
AuroraV_Payload_F439.elf:     file format elf32-littlearm

Sections:
Idx Name          Size      VMA       LMA       File off  Algn
  0 .isr_vector   000001ac  08000000  08000000  00010000  2**0
                  CONTENTS, ALLOC, LOAD, READONLY, DATA
  1 .text         000091b0  080001ac  080001ac  000101ac  2**2
                  CONTENTS, ALLOC, LOAD, READONLY, CODE
  2 .rodata       000000b8  0800935c  0800935c  0001935c  2**2
                  CONTENTS, ALLOC, LOAD, READONLY, DATA
  3 .ARM.extab    00000000  08009414  08009414  00020028  2**0
                  CONTENTS
  4 .ARM          00000008  08009414  08009414  00019414  2**2
                  CONTENTS, ALLOC, LOAD, READONLY, DATA
  5 .preinit_array 00000000  0800941c  0800941c  00020028  2**0
                  CONTENTS, ALLOC, LOAD, DATA
  6 .init_array   00000004  0800941c  0800941c  0001941c  2**2
                  CONTENTS, ALLOC, LOAD, DATA
  7 .fini_array   00000004  08009420  08009420  00019420  2**2
                  CONTENTS, ALLOC, LOAD, DATA
  8 .data         00000028  20000000  08009424  00020000  2**2
                  CONTENTS, ALLOC, LOAD, DATA
  9 .ccmram       00000000  10000000  10000000  00020028  2**0
                  CONTENTS
 10 .bss          00000610  20000028  20000028  00020028  2**2
                  ALLOC
 11 ._user_heap_stack 00000600  20000638  20000638  00020028  2**0
                  ALLOC
 12 .ARM.attributes 00000030  00000000  00000000  00020028  2**0
                  CONTENTS, READONLY
 13 .comment      00000043  00000000  00000000  00020058  2**0
                  CONTENTS, READONLY
 14 .debug_info   0001cd70  00000000  00000000  0002009b  2**0
                  CONTENTS, READONLY, DEBUGGING, OCTETS
 15 .debug_abbrev 00003efd  00000000  00000000  0003ce0b  2**0
                  CONTENTS, READONLY, DEBUGGING, OCTETS
 16 .debug_aranges 000016f8  00000000  00000000  00040d08  2**3
                  CONTENTS, READONLY, DEBUGGING, OCTETS
 17 .debug_rnglists 000011dc  00000000  00000000  00042400  2**0
                  CONTENTS, READONLY, DEBUGGING, OCTETS
 18 .debug_macro  00027dd9  00000000  00000000  000435dc  2**0
                  CONTENTS, READONLY, DEBUGGING, OCTETS
 19 .debug_line   0001d9df  00000000  00000000  0006b3b5  2**0
                  CONTENTS, READONLY, DEBUGGING, OCTETS
 20 .debug_str    000e9ece  00000000  00000000  00088d94  2**0
                  CONTENTS, READONLY, DEBUGGING, OCTETS
 21 .debug_frame  00005fdc  00000000  00000000  00172c64  2**2
                  CONTENTS, READONLY, DEBUGGING, OCTETS
 22 .debug_line_str 00000060  00000000  00000000  00178c40  2**0
                  CONTENTS, READONLY, DEBUGGING, OCTETS

Disassembly of section .text:

080001ac <__do_global_dtors_aux>:
 80001ac:	b510      	push	{r4, lr}
 80001ae:	4c05      	ldr	r4, [pc, #20]	; (80001c4 <__do_global_dtors_aux+0x18>)
 80001b0:	7823      	ldrb	r3, [r4, #0]
 80001b2:	b933      	cbnz	r3, 80001c2 <__do_global_dtors_aux+0x16>
 80001b4:	4b04      	ldr	r3, [pc, #16]	; (80001c8 <__do_global_dtors_aux+0x1c>)
 80001b6:	b113      	cbz	r3, 80001be <__do_global_dtors_aux+0x12>
 80001b8:	4804      	ldr	r0, [pc, #16]	; (80001cc <__do_global_dtors_aux+0x20>)
 80001ba:	f3af 8000 	nop.w
 80001be:	2301      	movs	r3, #1
 80001c0:	7023      	strb	r3, [r4, #0]
 80001c2:	bd10      	pop	{r4, pc}
 80001c4:	20000028 	.word	0x20000028
 80001c8:	00000000 	.word	0x00000000
 80001cc:	08009344 	.word	0x08009344

080001d0 <frame_dummy>:
 80001d0:	b508      	push	{r3, lr}
 80001d2:	4b03      	ldr	r3, [pc, #12]	; (80001e0 <frame_dummy+0x10>)
 80001d4:	b11b      	cbz	r3, 80001de <frame_dummy+0xe>
 80001d6:	4903      	ldr	r1, [pc, #12]	; (80001e4 <frame_dummy+0x14>)
 80001d8:	4803      	ldr	r0, [pc, #12]	; (80001e8 <frame_dummy+0x18>)
 80001da:	f3af 8000 	nop.w
 80001de:	bd08      	pop	{r3, pc}
 80001e0:	00000000 	.word	0x00000000
 80001e4:	2000002c 	.word	0x2000002c
 80001e8:	08009344 	.word	0x08009344

080001ec <strlen>:
 80001ec:	4603      	mov	r3, r0
 80001ee:	f813 2b01 	ldrb.w	r2, [r3], #1
 80001f2:	2a00      	cmp	r2, #0
 80001f4:	d1fb      	bne.n	80001ee <strlen+0x2>
 80001f6:	1a18      	subs	r0, r3, r0
 80001f8:	3801      	subs	r0, #1
 80001fa:	4770      	bx	lr

080001fc <__aeabi_uldivmod>:
 80001fc:	b953      	cbnz	r3, 8000214 <__aeabi_uldivmod+0x18>
 80001fe:	b94a      	cbnz	r2, 8000214 <__aeabi_uldivmod+0x18>
 8000200:	2900      	cmp	r1, #0
 8000202:	bf08      	it	eq
 8000204:	2800      	cmpeq	r0, #0
 8000206:	bf1c      	itt	ne
 8000208:	f04f 31ff 	movne.w	r1, #4294967295	; 0xffffffff
 800020c:	f04f 30ff 	movne.w	r0, #4294967295	; 0xffffffff
 8000210:	f000 b970 	b.w	80004f4 <__aeabi_idiv0>
 8000214:	f1ad 0c08 	sub.w	ip, sp, #8
 8000218:	e96d ce04 	strd	ip, lr, [sp, #-16]!
 800021c:	f000 f806 	bl	800022c <__udivmoddi4>
 8000220:	f8dd e004 	ldr.w	lr, [sp, #4]
 8000224:	e9dd 2302 	ldrd	r2, r3, [sp, #8]
 8000228:	b004      	add	sp, #16
 800022a:	4770      	bx	lr

0800022c <__udivmoddi4>:
 800022c:	e92d 47f0 	stmdb	sp!, {r4, r5, r6, r7, r8, r9, sl, lr}
 8000230:	9e08      	ldr	r6, [sp, #32]
 8000232:	460d      	mov	r5, r1
 8000234:	4604      	mov	r4, r0
 8000236:	460f      	mov	r7, r1
 8000238:	2b00      	cmp	r3, #0
 800023a:	d14a      	bne.n	80002d2 <__udivmoddi4+0xa6>
 800023c:	428a      	cmp	r2, r1
 800023e:	4694      	mov	ip, r2
 8000240:	d965      	bls.n	800030e <__udivmoddi4+0xe2>
 8000242:	fab2 f382 	clz	r3, r2
 8000246:	b143      	cbz	r3, 800025a <__udivmoddi4+0x2e>
 8000248:	fa02 fc03 	lsl.w	ip, r2, r3
 800024c:	f1c3 0220 	rsb	r2, r3, #32
 8000250:	409f      	lsls	r7, r3
 8000252:	fa20 f202 	lsr.w	r2, r0, r2
 8000256:	4317      	orrs	r7, r2
 8000258:	409c      	lsls	r4, r3
 800025a:	ea4f 4e1c 	mov.w	lr, ip, lsr #16
 800025e:	fa1f f58c 	uxth.w	r5, ip
 8000262:	fbb7 f1fe 	udiv	r1, r7, lr
 8000266:	0c22      	lsrs	r2, r4, #16
 8000268:	fb0e 7711 	mls	r7, lr, r1, r7
 800026c:	ea42 4207 	orr.w	r2, r2, r7, lsl #16
 8000270:	fb01 f005 	mul.w	r0, r1, r5
 8000274:	4290      	cmp	r0, r2
 8000276:	d90a      	bls.n	800028e <__udivmoddi4+0x62>
 8000278:	eb1c 0202 	adds.w	r2, ip, r2
 800027c:	f101 37ff 	add.w	r7, r1, #4294967295	; 0xffffffff
 8000280:	f080 811c 	bcs.w	80004bc <__udivmoddi4+0x290>
 8000284:	4290      	cmp	r0, r2
 8000286:	f240 8119 	bls.w	80004bc <__udivmoddi4+0x290>
 800028a:	3902      	subs	r1, #2
 800028c:	4462      	add	r2, ip
 800028e:	1a12      	subs	r2, r2, r0
 8000290:	b2a4      	uxth	r4, r4
 8000292:	fbb2 f0fe 	udiv	r0, r2, lr
 8000296:	fb0e 2210 	mls	r2, lr, r0, r2
 800029a:	ea44 4402 	orr.w	r4, r4, r2, lsl #16
 800029e:	fb00 f505 	mul.w	r5, r0, r5
 80002a2:	42a5      	cmp	r5, r4
 80002a4:	d90a      	bls.n	80002bc <__udivmoddi4+0x90>
 80002a6:	eb1c 0404 	adds.w	r4, ip, r4
 80002aa:	f100 32ff 	add.w	r2, r0, #4294967295	; 0xffffffff
 80002ae:	f080 8107 	bcs.w	80004c0 <__udivmoddi4+0x294>
 80002b2:	42a5      	cmp	r5, r4
 80002b4:	f240 8104 	bls.w	80004c0 <__udivmoddi4+0x294>
 80002b8:	4464      	add	r4, ip
 80002ba:	3802      	subs	r0, #2
 80002bc:	ea40 4001 	orr.w	r0, r0, r1, lsl #16
 80002c0:	1b64      	subs	r4, r4, r5
 80002c2:	2100      	movs	r1, #0
 80002c4:	b11e      	cbz	r6, 80002ce <__udivmoddi4+0xa2>
 80002c6:	40dc      	lsrs	r4, r3
 80002c8:	2300      	movs	r3, #0
 80002ca:	e9c6 4300 	strd	r4, r3, [r6]
 80002ce:	e8bd 87f0 	ldmia.w	sp!, {r4, r5, r6, r7, r8, r9, sl, pc}
 80002d2:	428b      	cmp	r3, r1
 80002d4:	d908      	bls.n	80002e8 <__udivmoddi4+0xbc>
 80002d6:	2e00      	cmp	r6, #0
 80002d8:	f000 80ed 	beq.w	80004b6 <__udivmoddi4+0x28a>
 80002dc:	2100      	movs	r1, #0
 80002de:	e9c6 0500 	strd	r0, r5, [r6]
 80002e2:	4608      	mov	r0, r1
 80002e4:	e8bd 87f0 	ldmia.w	sp!, {r4, r5, r6, r7, r8, r9, sl, pc}
 80002e8:	fab3 f183 	clz	r1, r3
 80002ec:	2900      	cmp	r1, #0
 80002ee:	d149      	bne.n	8000384 <__udivmoddi4+0x158>
 80002f0:	42ab      	cmp	r3, r5
 80002f2:	d302      	bcc.n	80002fa <__udivmoddi4+0xce>
 80002f4:	4282      	cmp	r2, r0
 80002f6:	f200 80f8 	bhi.w	80004ea <__udivmoddi4+0x2be>
 80002fa:	1a84      	subs	r4, r0, r2
 80002fc:	eb65 0203 	sbc.w	r2, r5, r3
 8000300:	2001      	movs	r0, #1
 8000302:	4617      	mov	r7, r2
 8000304:	2e00      	cmp	r6, #0
 8000306:	d0e2      	beq.n	80002ce <__udivmoddi4+0xa2>
 8000308:	e9c6 4700 	strd	r4, r7, [r6]
 800030c:	e7df      	b.n	80002ce <__udivmoddi4+0xa2>
 800030e:	b902      	cbnz	r2, 8000312 <__udivmoddi4+0xe6>
 8000310:	deff      	udf	#255	; 0xff
 8000312:	fab2 f382 	clz	r3, r2
 8000316:	2b00      	cmp	r3, #0
 8000318:	f040 8090 	bne.w	800043c <__udivmoddi4+0x210>
 800031c:	1a8a      	subs	r2, r1, r2
 800031e:	ea4f 471c 	mov.w	r7, ip, lsr #16
 8000322:	fa1f fe8c 	uxth.w	lr, ip
 8000326:	2101      	movs	r1, #1
 8000328:	fbb2 f5f7 	udiv	r5, r2, r7
 800032c:	fb07 2015 	mls	r0, r7, r5, r2
 8000330:	0c22      	lsrs	r2, r4, #16
 8000332:	ea42 4200 	orr.w	r2, r2, r0, lsl #16
 8000336:	fb0e f005 	mul.w	r0, lr, r5
 800033a:	4290      	cmp	r0, r2
 800033c:	d908      	bls.n	8000350 <__udivmoddi4+0x124>
 800033e:	eb1c 0202 	adds.w	r2, ip, r2
 8000342:	f105 38ff 	add.w	r8, r5, #4294967295	; 0xffffffff
 8000346:	d202      	bcs.n	800034e <__udivmoddi4+0x122>
 8000348:	4290      	cmp	r0, r2
 800034a:	f200 80cb 	bhi.w	80004e4 <__udivmoddi4+0x2b8>
 800034e:	4645      	mov	r5, r8
 8000350:	1a12      	subs	r2, r2, r0
 8000352:	b2a4      	uxth	r4, r4
 8000354:	fbb2 f0f7 	udiv	r0, r2, r7
 8000358:	fb07 2210 	mls	r2, r7, r0, r2
 800035c:	ea44 4402 	orr.w	r4, r4, r2, lsl #16
 8000360:	fb0e fe00 	mul.w	lr, lr, r0
 8000364:	45a6      	cmp	lr, r4
 8000366:	d908      	bls.n	800037a <__udivmoddi4+0x14e>
 8000368:	eb1c 0404 	adds.w	r4, ip, r4
 800036c:	f100 32ff 	add.w	r2, r0, #4294967295	; 0xffffffff
 8000370:	d202      	bcs.n	8000378 <__udivmoddi4+0x14c>
 8000372:	45a6      	cmp	lr, r4
 8000374:	f200 80bb 	bhi.w	80004ee <__udivmoddi4+0x2c2>
 8000378:	4610      	mov	r0, r2
 800037a:	eba4 040e 	sub.w	r4, r4, lr
 800037e:	ea40 4005 	orr.w	r0, r0, r5, lsl #16
 8000382:	e79f      	b.n	80002c4 <__udivmoddi4+0x98>
 8000384:	f1c1 0720 	rsb	r7, r1, #32
 8000388:	408b      	lsls	r3, r1
 800038a:	fa22 fc07 	lsr.w	ip, r2, r7
 800038e:	ea4c 0c03 	orr.w	ip, ip, r3
 8000392:	fa05 f401 	lsl.w	r4, r5, r1
 8000396:	fa20 f307 	lsr.w	r3, r0, r7
 800039a:	40fd      	lsrs	r5, r7
 800039c:	ea4f 491c 	mov.w	r9, ip, lsr #16
 80003a0:	4323      	orrs	r3, r4
 80003a2:	fbb5 f8f9 	udiv	r8, r5, r9
 80003a6:	fa1f fe8c 	uxth.w	lr, ip
 80003aa:	fb09 5518 	mls	r5, r9, r8, r5
 80003ae:	0c1c      	lsrs	r4, r3, #16
 80003b0:	ea44 4405 	orr.w	r4, r4, r5, lsl #16
 80003b4:	fb08 f50e 	mul.w	r5, r8, lr
 80003b8:	42a5      	cmp	r5, r4
 80003ba:	fa02 f201 	lsl.w	r2, r2, r1
 80003be:	fa00 f001 	lsl.w	r0, r0, r1
 80003c2:	d90b      	bls.n	80003dc <__udivmoddi4+0x1b0>
 80003c4:	eb1c 0404 	adds.w	r4, ip, r4
 80003c8:	f108 3aff 	add.w	sl, r8, #4294967295	; 0xffffffff
 80003cc:	f080 8088 	bcs.w	80004e0 <__udivmoddi4+0x2b4>
 80003d0:	42a5      	cmp	r5, r4
 80003d2:	f240 8085 	bls.w	80004e0 <__udivmoddi4+0x2b4>
 80003d6:	f1a8 0802 	sub.w	r8, r8, #2
 80003da:	4464      	add	r4, ip
 80003dc:	1b64      	subs	r4, r4, r5
 80003de:	b29d      	uxth	r5, r3
 80003e0:	fbb4 f3f9 	udiv	r3, r4, r9
 80003e4:	fb09 4413 	mls	r4, r9, r3, r4
 80003e8:	ea45 4404 	orr.w	r4, r5, r4, lsl #16
 80003ec:	fb03 fe0e 	mul.w	lr, r3, lr
 80003f0:	45a6      	cmp	lr, r4
 80003f2:	d908      	bls.n	8000406 <__udivmoddi4+0x1da>
 80003f4:	eb1c 0404 	adds.w	r4, ip, r4
 80003f8:	f103 35ff 	add.w	r5, r3, #4294967295	; 0xffffffff
 80003fc:	d26c      	bcs.n	80004d8 <__udivmoddi4+0x2ac>
 80003fe:	45a6      	cmp	lr, r4
 8000400:	d96a      	bls.n	80004d8 <__udivmoddi4+0x2ac>
 8000402:	3b02      	subs	r3, #2
 8000404:	4464      	add	r4, ip
 8000406:	ea43 4308 	orr.w	r3, r3, r8, lsl #16
 800040a:	fba3 9502 	umull	r9, r5, r3, r2
 800040e:	eba4 040e 	sub.w	r4, r4, lr
 8000412:	42ac      	cmp	r4, r5
 8000414:	46c8      	mov	r8, r9
 8000416:	46ae      	mov	lr, r5
 8000418:	d356      	bcc.n	80004c8 <__udivmoddi4+0x29c>
 800041a:	d053      	beq.n	80004c4 <__udivmoddi4+0x298>
 800041c:	b156      	cbz	r6, 8000434 <__udivmoddi4+0x208>
 800041e:	ebb0 0208 	subs.w	r2, r0, r8
 8000422:	eb64 040e 	sbc.w	r4, r4, lr
 8000426:	fa04 f707 	lsl.w	r7, r4, r7
 800042a:	40ca      	lsrs	r2, r1
 800042c:	40cc      	lsrs	r4, r1
 800042e:	4317      	orrs	r7, r2
 8000430:	e9c6 7400 	strd	r7, r4, [r6]
 8000434:	4618      	mov	r0, r3
 8000436:	2100      	movs	r1, #0
 8000438:	e8bd 87f0 	ldmia.w	sp!, {r4, r5, r6, r7, r8, r9, sl, pc}
 800043c:	f1c3 0120 	rsb	r1, r3, #32
 8000440:	fa02 fc03 	lsl.w	ip, r2, r3
 8000444:	fa20 f201 	lsr.w	r2, r0, r1
 8000448:	fa25 f101 	lsr.w	r1, r5, r1
 800044c:	409d      	lsls	r5, r3
 800044e:	432a      	orrs	r2, r5
 8000450:	ea4f 471c 	mov.w	r7, ip, lsr #16
 8000454:	fa1f fe8c 	uxth.w	lr, ip
 8000458:	fbb1 f0f7 	udiv	r0, r1, r7
 800045c:	fb07 1510 	mls	r5, r7, r0, r1
 8000460:	0c11      	lsrs	r1, r2, #16
 8000462:	ea41 4105 	orr.w	r1, r1, r5, lsl #16
 8000466:	fb00 f50e 	mul.w	r5, r0, lr
 800046a:	428d      	cmp	r5, r1
 800046c:	fa04 f403 	lsl.w	r4, r4, r3
 8000470:	d908      	bls.n	8000484 <__udivmoddi4+0x258>
 8000472:	eb1c 0101 	adds.w	r1, ip, r1
 8000476:	f100 38ff 	add.w	r8, r0, #4294967295	; 0xffffffff
 800047a:	d22f      	bcs.n	80004dc <__udivmoddi4+0x2b0>
 800047c:	428d      	cmp	r5, r1
 800047e:	d92d      	bls.n	80004dc <__udivmoddi4+0x2b0>
 8000480:	3802      	subs	r0, #2
 8000482:	4461      	add	r1, ip
 8000484:	1b49      	subs	r1, r1, r5
 8000486:	b292      	uxth	r2, r2
 8000488:	fbb1 f5f7 	udiv	r5, r1, r7
 800048c:	fb07 1115 	mls	r1, r7, r5, r1
 8000490:	ea42 4201 	orr.w	r2, r2, r1, lsl #16
 8000494:	fb05 f10e 	mul.w	r1, r5, lr
 8000498:	4291      	cmp	r1, r2
 800049a:	d908      	bls.n	80004ae <__udivmoddi4+0x282>
 800049c:	eb1c 0202 	adds.w	r2, ip, r2
 80004a0:	f105 38ff 	add.w	r8, r5, #4294967295	; 0xffffffff
 80004a4:	d216      	bcs.n	80004d4 <__udivmoddi4+0x2a8>
 80004a6:	4291      	cmp	r1, r2
 80004a8:	d914      	bls.n	80004d4 <__udivmoddi4+0x2a8>
 80004aa:	3d02      	subs	r5, #2
 80004ac:	4462      	add	r2, ip
 80004ae:	1a52      	subs	r2, r2, r1
 80004b0:	ea45 4100 	orr.w	r1, r5, r0, lsl #16
 80004b4:	e738      	b.n	8000328 <__udivmoddi4+0xfc>
 80004b6:	4631      	mov	r1, r6
 80004b8:	4630      	mov	r0, r6
 80004ba:	e708      	b.n	80002ce <__udivmoddi4+0xa2>
 80004bc:	4639      	mov	r1, r7
 80004be:	e6e6      	b.n	800028e <__udivmoddi4+0x62>
 80004c0:	4610      	mov	r0, r2
 80004c2:	e6fb      	b.n	80002bc <__udivmoddi4+0x90>
 80004c4:	4548      	cmp	r0, r9
 80004c6:	d2a9      	bcs.n	800041c <__udivmoddi4+0x1f0>
 80004c8:	ebb9 0802 	subs.w	r8, r9, r2
 80004cc:	eb65 0e0c 	sbc.w	lr, r5, ip
 80004d0:	3b01      	subs	r3, #1
 80004d2:	e7a3      	b.n	800041c <__udivmoddi4+0x1f0>
 80004d4:	4645      	mov	r5, r8
 80004d6:	e7ea      	b.n	80004ae <__udivmoddi4+0x282>
 80004d8:	462b      	mov	r3, r5
 80004da:	e794      	b.n	8000406 <__udivmoddi4+0x1da>
 80004dc:	4640      	mov	r0, r8
 80004de:	e7d1      	b.n	8000484 <__udivmoddi4+0x258>
 80004e0:	46d0      	mov	r8, sl
 80004e2:	e77b      	b.n	80003dc <__udivmoddi4+0x1b0>
 80004e4:	3d02      	subs	r5, #2
 80004e6:	4462      	add	r2, ip
 80004e8:	e732      	b.n	8000350 <__udivmoddi4+0x124>
 80004ea:	4608      	mov	r0, r1
 80004ec:	e70a      	b.n	8000304 <__udivmoddi4+0xd8>
 80004ee:	4464      	add	r4, ip
 80004f0:	3802      	subs	r0, #2
 80004f2:	e742      	b.n	800037a <__udivmoddi4+0x14e>

080004f4 <__aeabi_idiv0>:
 80004f4:	4770      	bx	lr
 80004f6:	bf00      	nop

080004f8 <init_accel>:
uint8_t OUT_Y_L 				= 0x34;
uint8_t OUT_Y_H 				= 0x35;
uint8_t OUT_Z_L 				= 0x36;
uint8_t OUT_Z_H 				= 0x37;

HAL_StatusTypeDef init_accel(I2C_HandleTypeDef* hi2c) {
 80004f8:	b580      	push	{r7, lr}
 80004fa:	b084      	sub	sp, #16
 80004fc:	af00      	add	r7, sp, #0
 80004fe:	6078      	str	r0, [r7, #4]
	HAL_StatusTypeDef ret;

	// Set standby mode
	ret = i2c_write_reg(hi2c, ADXL314_ADDR, &POWER_CTL_REG, 0x00);
 8000500:	4b14      	ldr	r3, [pc, #80]	; (8000554 <init_accel+0x5c>)
 8000502:	7819      	ldrb	r1, [r3, #0]
 8000504:	2300      	movs	r3, #0
 8000506:	4a14      	ldr	r2, [pc, #80]	; (8000558 <init_accel+0x60>)
 8000508:	6878      	ldr	r0, [r7, #4]
 800050a:	f000 fbe8 	bl	8000cde <i2c_write_reg>
 800050e:	4603      	mov	r3, r0
 8000510:	73fb      	strb	r3, [r7, #15]

	// Set to 200G right justified
	ret = i2c_write_reg(hi2c, ADXL314_ADDR, &DATA_FORMAT_REG, RIGHT_JUST);
 8000512:	4b10      	ldr	r3, [pc, #64]	; (8000554 <init_accel+0x5c>)
 8000514:	7819      	ldrb	r1, [r3, #0]
 8000516:	230b      	movs	r3, #11
 8000518:	4a10      	ldr	r2, [pc, #64]	; (800055c <init_accel+0x64>)
 800051a:	6878      	ldr	r0, [r7, #4]
 800051c:	f000 fbdf 	bl	8000cde <i2c_write_reg>
 8000520:	4603      	mov	r3, r0
 8000522:	73fb      	strb	r3, [r7, #15]

	// Set to 1kHz ODR
	ret = i2c_write_reg(hi2c, ADXL314_ADDR, &BW_RATE_REG, MASK_1kHz);
 8000524:	4b0b      	ldr	r3, [pc, #44]	; (8000554 <init_accel+0x5c>)
 8000526:	7819      	ldrb	r1, [r3, #0]
 8000528:	230a      	movs	r3, #10
 800052a:	4a0d      	ldr	r2, [pc, #52]	; (8000560 <init_accel+0x68>)
 800052c:	6878      	ldr	r0, [r7, #4]
 800052e:	f000 fbd6 	bl	8000cde <i2c_write_reg>
 8000532:	4603      	mov	r3, r0
 8000534:	73fb      	strb	r3, [r7, #15]

	// Write the offset registers
//	ret = writeOffset(hi2c);

	// Start measuring
	ret = i2c_write_reg(hi2c, ADXL314_ADDR, &POWER_CTL_REG, START_MEAS);
 8000536:	4b07      	ldr	r3, [pc, #28]	; (8000554 <init_accel+0x5c>)
 8000538:	7819      	ldrb	r1, [r3, #0]
 800053a:	2308      	movs	r3, #8
 800053c:	4a06      	ldr	r2, [pc, #24]	; (8000558 <init_accel+0x60>)
 800053e:	6878      	ldr	r0, [r7, #4]
 8000540:	f000 fbcd 	bl	8000cde <i2c_write_reg>
 8000544:	4603      	mov	r3, r0
 8000546:	73fb      	strb	r3, [r7, #15]

	return ret;
 8000548:	7bfb      	ldrb	r3, [r7, #15]
}
 800054a:	4618      	mov	r0, r3
 800054c:	3710      	adds	r7, #16
 800054e:	46bd      	mov	sp, r7
 8000550:	bd80      	pop	{r7, pc}
 8000552:	bf00      	nop
 8000554:	20000000 	.word	0x20000000
 8000558:	20000002 	.word	0x20000002
 800055c:	20000003 	.word	0x20000003
 8000560:	20000001 	.word	0x20000001

08000564 <readAccelerometer>:
void readAccelerometer(uint8_t values[6], I2C_HandleTypeDef* hi2c) {
 8000564:	b580      	push	{r7, lr}
 8000566:	b086      	sub	sp, #24
 8000568:	af02      	add	r7, sp, #8
 800056a:	6078      	str	r0, [r7, #4]
 800056c:	6039      	str	r1, [r7, #0]
	for (uint8_t i = 0; i < 6; i++) {
 800056e:	2300      	movs	r3, #0
 8000570:	73fb      	strb	r3, [r7, #15]
 8000572:	e007      	b.n	8000584 <readAccelerometer+0x20>
		values[i] = 0x00;
 8000574:	7bfb      	ldrb	r3, [r7, #15]
 8000576:	687a      	ldr	r2, [r7, #4]
 8000578:	4413      	add	r3, r2
 800057a:	2200      	movs	r2, #0
 800057c:	701a      	strb	r2, [r3, #0]
	for (uint8_t i = 0; i < 6; i++) {
 800057e:	7bfb      	ldrb	r3, [r7, #15]
 8000580:	3301      	adds	r3, #1
 8000582:	73fb      	strb	r3, [r7, #15]
 8000584:	7bfb      	ldrb	r3, [r7, #15]
 8000586:	2b05      	cmp	r3, #5
 8000588:	d9f4      	bls.n	8000574 <readAccelerometer+0x10>
	}

	i2c_burst_read(hi2c, ADXL314_ADDR, OUT_X_L, 6, values);
 800058a:	4b07      	ldr	r3, [pc, #28]	; (80005a8 <readAccelerometer+0x44>)
 800058c:	7819      	ldrb	r1, [r3, #0]
 800058e:	4b07      	ldr	r3, [pc, #28]	; (80005ac <readAccelerometer+0x48>)
 8000590:	781a      	ldrb	r2, [r3, #0]
 8000592:	687b      	ldr	r3, [r7, #4]
 8000594:	9300      	str	r3, [sp, #0]
 8000596:	2306      	movs	r3, #6
 8000598:	6838      	ldr	r0, [r7, #0]
 800059a:	f000 fb6b 	bl	8000c74 <i2c_burst_read>
}
 800059e:	bf00      	nop
 80005a0:	3710      	adds	r7, #16
 80005a2:	46bd      	mov	sp, r7
 80005a4:	bd80      	pop	{r7, pc}
 80005a6:	bf00      	nop
 80005a8:	20000000 	.word	0x20000000
 80005ac:	20000004 	.word	0x20000004

080005b0 <readAccel_whoami>:

uint8_t readAccel_whoami(I2C_HandleTypeDef* hi2c) {
 80005b0:	b580      	push	{r7, lr}
 80005b2:	b084      	sub	sp, #16
 80005b4:	af00      	add	r7, sp, #0
 80005b6:	6078      	str	r0, [r7, #4]
	uint8_t data = 0x00;
 80005b8:	2300      	movs	r3, #0
 80005ba:	73fb      	strb	r3, [r7, #15]
	i2c_read_reg(hi2c, &data, ADXL314_ADDR, &WHOAMI);
 80005bc:	4b06      	ldr	r3, [pc, #24]	; (80005d8 <readAccel_whoami+0x28>)
 80005be:	781a      	ldrb	r2, [r3, #0]
 80005c0:	f107 010f 	add.w	r1, r7, #15
 80005c4:	4b05      	ldr	r3, [pc, #20]	; (80005dc <readAccel_whoami+0x2c>)
 80005c6:	6878      	ldr	r0, [r7, #4]
 80005c8:	f000 fb2b 	bl	8000c22 <i2c_read_reg>

	return data;
 80005cc:	7bfb      	ldrb	r3, [r7, #15]
}
 80005ce:	4618      	mov	r0, r3
 80005d0:	3710      	adds	r7, #16
 80005d2:	46bd      	mov	sp, r7
 80005d4:	bd80      	pop	{r7, pc}
 80005d6:	bf00      	nop
 80005d8:	20000000 	.word	0x20000000
 80005dc:	20000044 	.word	0x20000044

080005e0 <init_bme280>:
uint8_t OUT_HUM_H 			= 0xFD;
uint8_t CALIB_ST_1			= 0x88;
uint8_t CALIB_ST_2			= 0xE1;


HAL_StatusTypeDef init_bme280(I2C_HandleTypeDef* hi2c, uint8_t bme) {
 80005e0:	b580      	push	{r7, lr}
 80005e2:	b084      	sub	sp, #16
 80005e4:	af00      	add	r7, sp, #0
 80005e6:	6078      	str	r0, [r7, #4]
 80005e8:	460b      	mov	r3, r1
 80005ea:	70fb      	strb	r3, [r7, #3]
	uint8_t bme_addr = getBME280Config(bme).bme_addr;
 80005ec:	78fb      	ldrb	r3, [r7, #3]
 80005ee:	4618      	mov	r0, r3
 80005f0:	f000 f8e0 	bl	80007b4 <getBME280Config>
 80005f4:	4603      	mov	r3, r0
 80005f6:	73fb      	strb	r3, [r7, #15]
	HAL_StatusTypeDef ret;
	uint8_t control_reg = 0x00;
 80005f8:	2300      	movs	r3, #0
 80005fa:	737b      	strb	r3, [r7, #13]

	// Reset the sensor
	ret =  i2c_write_reg(hi2c, bme_addr, &RST_REG, RST);
 80005fc:	7bf9      	ldrb	r1, [r7, #15]
 80005fe:	23b6      	movs	r3, #182	; 0xb6
 8000600:	4a19      	ldr	r2, [pc, #100]	; (8000668 <init_bme280+0x88>)
 8000602:	6878      	ldr	r0, [r7, #4]
 8000604:	f000 fb6b 	bl	8000cde <i2c_write_reg>
 8000608:	4603      	mov	r3, r0
 800060a:	73bb      	strb	r3, [r7, #14]

	// Set humidity control register
	i2c_read_reg(hi2c, &control_reg, bme_addr, &CTRL_HUM_REG);
 800060c:	7bfa      	ldrb	r2, [r7, #15]
 800060e:	f107 010d 	add.w	r1, r7, #13
 8000612:	4b16      	ldr	r3, [pc, #88]	; (800066c <init_bme280+0x8c>)
 8000614:	6878      	ldr	r0, [r7, #4]
 8000616:	f000 fb04 	bl	8000c22 <i2c_read_reg>
	control_reg = control_reg & 0xF8;
 800061a:	7b7b      	ldrb	r3, [r7, #13]
 800061c:	f023 0307 	bic.w	r3, r3, #7
 8000620:	b2db      	uxtb	r3, r3
 8000622:	737b      	strb	r3, [r7, #13]
	control_reg = control_reg | CTRL_HUM_MSK;
 8000624:	7b7b      	ldrb	r3, [r7, #13]
 8000626:	f043 0301 	orr.w	r3, r3, #1
 800062a:	b2db      	uxtb	r3, r3
 800062c:	737b      	strb	r3, [r7, #13]
	ret = i2c_write_reg(hi2c, bme_addr, &CTRL_HUM_REG, control_reg);
 800062e:	7b7b      	ldrb	r3, [r7, #13]
 8000630:	7bf9      	ldrb	r1, [r7, #15]
 8000632:	4a0e      	ldr	r2, [pc, #56]	; (800066c <init_bme280+0x8c>)
 8000634:	6878      	ldr	r0, [r7, #4]
 8000636:	f000 fb52 	bl	8000cde <i2c_write_reg>
 800063a:	4603      	mov	r3, r0
 800063c:	73bb      	strb	r3, [r7, #14]

	// Set measure control register
	ret = i2c_write_reg(hi2c, bme_addr, &CTRL_MEAS_REG, CTRL_MEAS_MSK);
 800063e:	7bf9      	ldrb	r1, [r7, #15]
 8000640:	2327      	movs	r3, #39	; 0x27
 8000642:	4a0b      	ldr	r2, [pc, #44]	; (8000670 <init_bme280+0x90>)
 8000644:	6878      	ldr	r0, [r7, #4]
 8000646:	f000 fb4a 	bl	8000cde <i2c_write_reg>
 800064a:	4603      	mov	r3, r0
 800064c:	73bb      	strb	r3, [r7, #14]

	// Set the config register
	ret = i2c_write_reg(hi2c, bme_addr, &CONF_REG, CONF_MSK);
 800064e:	7bf9      	ldrb	r1, [r7, #15]
 8000650:	2300      	movs	r3, #0
 8000652:	4a08      	ldr	r2, [pc, #32]	; (8000674 <init_bme280+0x94>)
 8000654:	6878      	ldr	r0, [r7, #4]
 8000656:	f000 fb42 	bl	8000cde <i2c_write_reg>
 800065a:	4603      	mov	r3, r0
 800065c:	73bb      	strb	r3, [r7, #14]

	return ret;
 800065e:	7bbb      	ldrb	r3, [r7, #14]
}
 8000660:	4618      	mov	r0, r3
 8000662:	3710      	adds	r7, #16
 8000664:	46bd      	mov	sp, r7
 8000666:	bd80      	pop	{r7, pc}
 8000668:	20000006 	.word	0x20000006
 800066c:	20000007 	.word	0x20000007
 8000670:	20000008 	.word	0x20000008
 8000674:	20000009 	.word	0x20000009

08000678 <readTempHumPres>:

void readTempHumPres(uint8_t values[6], I2C_HandleTypeDef* hi2c, uint8_t bme) {
 8000678:	b580      	push	{r7, lr}
 800067a:	b08a      	sub	sp, #40	; 0x28
 800067c:	af02      	add	r7, sp, #8
 800067e:	60f8      	str	r0, [r7, #12]
 8000680:	60b9      	str	r1, [r7, #8]
 8000682:	4613      	mov	r3, r2
 8000684:	71fb      	strb	r3, [r7, #7]
	uint8_t readings[8] = {0, 0, 0, 0, 0, 0, 0, 0};
 8000686:	4a27      	ldr	r2, [pc, #156]	; (8000724 <readTempHumPres+0xac>)
 8000688:	f107 0314 	add.w	r3, r7, #20
 800068c:	e892 0003 	ldmia.w	r2, {r0, r1}
 8000690:	e883 0003 	stmia.w	r3, {r0, r1}
	uint8_t bme_addr = getBME280Config(bme).bme_addr;
 8000694:	79fb      	ldrb	r3, [r7, #7]
 8000696:	4618      	mov	r0, r3
 8000698:	f000 f88c 	bl	80007b4 <getBME280Config>
 800069c:	4603      	mov	r3, r0
 800069e:	777b      	strb	r3, [r7, #29]
	i2c_burst_read(hi2c, bme_addr, OUT_PRESS_H, 8, readings);
 80006a0:	4b21      	ldr	r3, [pc, #132]	; (8000728 <readTempHumPres+0xb0>)
 80006a2:	781a      	ldrb	r2, [r3, #0]
 80006a4:	7f79      	ldrb	r1, [r7, #29]
 80006a6:	f107 0314 	add.w	r3, r7, #20
 80006aa:	9300      	str	r3, [sp, #0]
 80006ac:	2308      	movs	r3, #8
 80006ae:	68b8      	ldr	r0, [r7, #8]
 80006b0:	f000 fae0 	bl	8000c74 <i2c_burst_read>

	// Clear the 0 values on the xlsb registers
	uint8_t j = 0;
 80006b4:	2300      	movs	r3, #0
 80006b6:	77fb      	strb	r3, [r7, #31]
    for(uint8_t i = 0; i < 8; i++) {
 80006b8:	2300      	movs	r3, #0
 80006ba:	77bb      	strb	r3, [r7, #30]
 80006bc:	e014      	b.n	80006e8 <readTempHumPres+0x70>
        if(i != 2 && i != 5) {  // if the index is not 2 or 5
 80006be:	7fbb      	ldrb	r3, [r7, #30]
 80006c0:	2b02      	cmp	r3, #2
 80006c2:	d00e      	beq.n	80006e2 <readTempHumPres+0x6a>
 80006c4:	7fbb      	ldrb	r3, [r7, #30]
 80006c6:	2b05      	cmp	r3, #5
 80006c8:	d00b      	beq.n	80006e2 <readTempHumPres+0x6a>
        	values[j] = readings[i];
 80006ca:	7fba      	ldrb	r2, [r7, #30]
 80006cc:	7ffb      	ldrb	r3, [r7, #31]
 80006ce:	68f9      	ldr	r1, [r7, #12]
 80006d0:	440b      	add	r3, r1
 80006d2:	3220      	adds	r2, #32
 80006d4:	443a      	add	r2, r7
 80006d6:	f812 2c0c 	ldrb.w	r2, [r2, #-12]
 80006da:	701a      	strb	r2, [r3, #0]
            j++;
 80006dc:	7ffb      	ldrb	r3, [r7, #31]
 80006de:	3301      	adds	r3, #1
 80006e0:	77fb      	strb	r3, [r7, #31]
    for(uint8_t i = 0; i < 8; i++) {
 80006e2:	7fbb      	ldrb	r3, [r7, #30]
 80006e4:	3301      	adds	r3, #1
 80006e6:	77bb      	strb	r3, [r7, #30]
 80006e8:	7fbb      	ldrb	r3, [r7, #30]
 80006ea:	2b07      	cmp	r3, #7
 80006ec:	d9e7      	bls.n	80006be <readTempHumPres+0x46>
        }
    }

    // Swap elements to make the array little endian
    swap(&values[0], &values[1]);
 80006ee:	68fb      	ldr	r3, [r7, #12]
 80006f0:	3301      	adds	r3, #1
 80006f2:	4619      	mov	r1, r3
 80006f4:	68f8      	ldr	r0, [r7, #12]
 80006f6:	f000 f874 	bl	80007e2 <swap>
    swap(&values[2], &values[3]);
 80006fa:	68fb      	ldr	r3, [r7, #12]
 80006fc:	1c9a      	adds	r2, r3, #2
 80006fe:	68fb      	ldr	r3, [r7, #12]
 8000700:	3303      	adds	r3, #3
 8000702:	4619      	mov	r1, r3
 8000704:	4610      	mov	r0, r2
 8000706:	f000 f86c 	bl	80007e2 <swap>
    swap(&values[4], &values[5]);
 800070a:	68fb      	ldr	r3, [r7, #12]
 800070c:	1d1a      	adds	r2, r3, #4
 800070e:	68fb      	ldr	r3, [r7, #12]
 8000710:	3305      	adds	r3, #5
 8000712:	4619      	mov	r1, r3
 8000714:	4610      	mov	r0, r2
 8000716:	f000 f864 	bl	80007e2 <swap>
}
 800071a:	bf00      	nop
 800071c:	3720      	adds	r7, #32
 800071e:	46bd      	mov	sp, r7
 8000720:	bd80      	pop	{r7, pc}
 8000722:	bf00      	nop
 8000724:	0800935c 	.word	0x0800935c
 8000728:	2000000a 	.word	0x2000000a

0800072c <readBME280_id_reg>:

uint8_t readBME280_id_reg(I2C_HandleTypeDef* hi2c, uint8_t bme) {
 800072c:	b580      	push	{r7, lr}
 800072e:	b084      	sub	sp, #16
 8000730:	af00      	add	r7, sp, #0
 8000732:	6078      	str	r0, [r7, #4]
 8000734:	460b      	mov	r3, r1
 8000736:	70fb      	strb	r3, [r7, #3]
	uint8_t bme_addr = getBME280Config(bme).bme_addr;
 8000738:	78fb      	ldrb	r3, [r7, #3]
 800073a:	4618      	mov	r0, r3
 800073c:	f000 f83a 	bl	80007b4 <getBME280Config>
 8000740:	4603      	mov	r3, r0
 8000742:	73fb      	strb	r3, [r7, #15]
	uint8_t data = 0x00;
 8000744:	2300      	movs	r3, #0
 8000746:	73bb      	strb	r3, [r7, #14]
	i2c_read_reg(hi2c, &data, bme_addr, &ID_REG);
 8000748:	7bfa      	ldrb	r2, [r7, #15]
 800074a:	f107 010e 	add.w	r1, r7, #14
 800074e:	4b04      	ldr	r3, [pc, #16]	; (8000760 <readBME280_id_reg+0x34>)
 8000750:	6878      	ldr	r0, [r7, #4]
 8000752:	f000 fa66 	bl	8000c22 <i2c_read_reg>

	return data;
 8000756:	7bbb      	ldrb	r3, [r7, #14]
}
 8000758:	4618      	mov	r0, r3
 800075a:	3710      	adds	r7, #16
 800075c:	46bd      	mov	sp, r7
 800075e:	bd80      	pop	{r7, pc}
 8000760:	20000005 	.word	0x20000005

08000764 <readBME280_calib>:

void readBME280_calib(I2C_HandleTypeDef* hi2c, uint8_t bme, uint8_t calibration1[CALIB_CNT_1], uint8_t calibration2[CALIB_CNT_2]) {
 8000764:	b580      	push	{r7, lr}
 8000766:	b088      	sub	sp, #32
 8000768:	af02      	add	r7, sp, #8
 800076a:	60f8      	str	r0, [r7, #12]
 800076c:	607a      	str	r2, [r7, #4]
 800076e:	603b      	str	r3, [r7, #0]
 8000770:	460b      	mov	r3, r1
 8000772:	72fb      	strb	r3, [r7, #11]
	uint8_t bme_addr = getBME280Config(bme).bme_addr;
 8000774:	7afb      	ldrb	r3, [r7, #11]
 8000776:	4618      	mov	r0, r3
 8000778:	f000 f81c 	bl	80007b4 <getBME280Config>
 800077c:	4603      	mov	r3, r0
 800077e:	75fb      	strb	r3, [r7, #23]
	i2c_burst_read(hi2c, bme_addr, CALIB_ST_1, CALIB_CNT_1, calibration1);
 8000780:	4b0a      	ldr	r3, [pc, #40]	; (80007ac <readBME280_calib+0x48>)
 8000782:	781a      	ldrb	r2, [r3, #0]
 8000784:	7df9      	ldrb	r1, [r7, #23]
 8000786:	687b      	ldr	r3, [r7, #4]
 8000788:	9300      	str	r3, [sp, #0]
 800078a:	2319      	movs	r3, #25
 800078c:	68f8      	ldr	r0, [r7, #12]
 800078e:	f000 fa71 	bl	8000c74 <i2c_burst_read>
	i2c_burst_read(hi2c, bme_addr, CALIB_ST_2, CALIB_CNT_2, calibration2);
 8000792:	4b07      	ldr	r3, [pc, #28]	; (80007b0 <readBME280_calib+0x4c>)
 8000794:	781a      	ldrb	r2, [r3, #0]
 8000796:	7df9      	ldrb	r1, [r7, #23]
 8000798:	683b      	ldr	r3, [r7, #0]
 800079a:	9300      	str	r3, [sp, #0]
 800079c:	2307      	movs	r3, #7
 800079e:	68f8      	ldr	r0, [r7, #12]
 80007a0:	f000 fa68 	bl	8000c74 <i2c_burst_read>
}
 80007a4:	bf00      	nop
 80007a6:	3718      	adds	r7, #24
 80007a8:	46bd      	mov	sp, r7
 80007aa:	bd80      	pop	{r7, pc}
 80007ac:	2000000b 	.word	0x2000000b
 80007b0:	2000000c 	.word	0x2000000c

080007b4 <getBME280Config>:

BME280_Config getBME280Config(uint8_t bme) {
 80007b4:	b480      	push	{r7}
 80007b6:	b085      	sub	sp, #20
 80007b8:	af00      	add	r7, sp, #0
 80007ba:	4603      	mov	r3, r0
 80007bc:	71fb      	strb	r3, [r7, #7]
	BME280_Config config;
	if (bme == 0) {
 80007be:	79fb      	ldrb	r3, [r7, #7]
 80007c0:	2b00      	cmp	r3, #0
 80007c2:	d102      	bne.n	80007ca <getBME280Config+0x16>
		config.bme_addr = BME280_ADDR_0;
 80007c4:	2376      	movs	r3, #118	; 0x76
 80007c6:	733b      	strb	r3, [r7, #12]
 80007c8:	e004      	b.n	80007d4 <getBME280Config+0x20>
	} else if (bme == 1) {
 80007ca:	79fb      	ldrb	r3, [r7, #7]
 80007cc:	2b01      	cmp	r3, #1
 80007ce:	d101      	bne.n	80007d4 <getBME280Config+0x20>
		config.bme_addr = BME280_ADDR_1;
 80007d0:	2377      	movs	r3, #119	; 0x77
 80007d2:	733b      	strb	r3, [r7, #12]
	}
    return config;
 80007d4:	7b3b      	ldrb	r3, [r7, #12]
}
 80007d6:	4618      	mov	r0, r3
 80007d8:	3714      	adds	r7, #20
 80007da:	46bd      	mov	sp, r7
 80007dc:	f85d 7b04 	ldr.w	r7, [sp], #4
 80007e0:	4770      	bx	lr

080007e2 <swap>:

void swap(uint8_t* a, uint8_t* b) {
 80007e2:	b480      	push	{r7}
 80007e4:	b085      	sub	sp, #20
 80007e6:	af00      	add	r7, sp, #0
 80007e8:	6078      	str	r0, [r7, #4]
 80007ea:	6039      	str	r1, [r7, #0]
    uint8_t temp = *a;
 80007ec:	687b      	ldr	r3, [r7, #4]
 80007ee:	781b      	ldrb	r3, [r3, #0]
 80007f0:	73fb      	strb	r3, [r7, #15]
    *a = *b;
 80007f2:	683b      	ldr	r3, [r7, #0]
 80007f4:	781a      	ldrb	r2, [r3, #0]
 80007f6:	687b      	ldr	r3, [r7, #4]
 80007f8:	701a      	strb	r2, [r3, #0]
    *b = temp;
 80007fa:	683b      	ldr	r3, [r7, #0]
 80007fc:	7bfa      	ldrb	r2, [r7, #15]
 80007fe:	701a      	strb	r2, [r3, #0]
}
 8000800:	bf00      	nop
 8000802:	3714      	adds	r7, #20
 8000804:	46bd      	mov	sp, r7
 8000806:	f85d 7b04 	ldr.w	r7, [sp], #4
 800080a:	4770      	bx	lr

0800080c <sendCAN_TxMessage>:
 */

#include "can_driver.h"


void sendCAN_TxMessage(CAN_HandleTypeDef *hcan, uint8_t dataSize, uint8_t TxData[dataSize], uint32_t *CAN_TxMailbox, uint16_t payload_id) {
 800080c:	b580      	push	{r7, lr}
 800080e:	b08a      	sub	sp, #40	; 0x28
 8000810:	af00      	add	r7, sp, #0
 8000812:	60f8      	str	r0, [r7, #12]
 8000814:	607a      	str	r2, [r7, #4]
 8000816:	603b      	str	r3, [r7, #0]
 8000818:	460b      	mov	r3, r1
 800081a:	72fb      	strb	r3, [r7, #11]
	CAN_TxHeaderTypeDef TxHeader = configureTxHeader(payload_id, dataSize);
 800081c:	f107 0310 	add.w	r3, r7, #16
 8000820:	7afa      	ldrb	r2, [r7, #11]
 8000822:	8e39      	ldrh	r1, [r7, #48]	; 0x30
 8000824:	4618      	mov	r0, r3
 8000826:	f000 f80b 	bl	8000840 <configureTxHeader>
	HAL_CAN_AddTxMessage(hcan, &TxHeader, TxData, CAN_TxMailbox);
 800082a:	f107 0110 	add.w	r1, r7, #16
 800082e:	683b      	ldr	r3, [r7, #0]
 8000830:	687a      	ldr	r2, [r7, #4]
 8000832:	68f8      	ldr	r0, [r7, #12]
 8000834:	f002 fdda 	bl	80033ec <HAL_CAN_AddTxMessage>
}
 8000838:	bf00      	nop
 800083a:	3728      	adds	r7, #40	; 0x28
 800083c:	46bd      	mov	sp, r7
 800083e:	bd80      	pop	{r7, pc}

08000840 <configureTxHeader>:

CAN_TxHeaderTypeDef configureTxHeader(uint16_t payload_id, uint8_t dataSize) {
 8000840:	b4b0      	push	{r4, r5, r7}
 8000842:	b089      	sub	sp, #36	; 0x24
 8000844:	af00      	add	r7, sp, #0
 8000846:	6078      	str	r0, [r7, #4]
 8000848:	460b      	mov	r3, r1
 800084a:	807b      	strh	r3, [r7, #2]
 800084c:	4613      	mov	r3, r2
 800084e:	707b      	strb	r3, [r7, #1]
	CAN_TxHeaderTypeDef TxHeader;
	TxHeader.DLC = dataSize;
 8000850:	787b      	ldrb	r3, [r7, #1]
 8000852:	61bb      	str	r3, [r7, #24]
	TxHeader.IDE = CAN_ID_STD;
 8000854:	2300      	movs	r3, #0
 8000856:	613b      	str	r3, [r7, #16]
	TxHeader.RTR = CAN_RTR_DATA;
 8000858:	2300      	movs	r3, #0
 800085a:	617b      	str	r3, [r7, #20]
	TxHeader.StdId = payload_id;
 800085c:	887b      	ldrh	r3, [r7, #2]
 800085e:	60bb      	str	r3, [r7, #8]
	TxHeader.TransmitGlobalTime = DISABLE;
 8000860:	2300      	movs	r3, #0
 8000862:	773b      	strb	r3, [r7, #28]
	return TxHeader;
 8000864:	687b      	ldr	r3, [r7, #4]
 8000866:	461d      	mov	r5, r3
 8000868:	f107 0408 	add.w	r4, r7, #8
 800086c:	cc0f      	ldmia	r4!, {r0, r1, r2, r3}
 800086e:	c50f      	stmia	r5!, {r0, r1, r2, r3}
 8000870:	e894 0003 	ldmia.w	r4, {r0, r1}
 8000874:	e885 0003 	stmia.w	r5, {r0, r1}
}
 8000878:	6878      	ldr	r0, [r7, #4]
 800087a:	3724      	adds	r7, #36	; 0x24
 800087c:	46bd      	mov	sp, r7
 800087e:	bcb0      	pop	{r4, r5, r7}
 8000880:	4770      	bx	lr

08000882 <check_busy>:
uint8_t FLASH_32K_ERS	= 0x52;			// Erase all memory within a 32K-byte block
uint8_t FLASH_ERASE		= 0xC7;			// Erase the entire chip
uint8_t RST_EN			= 0x66;			// Reset enable
uint8_t DEV_RST			= 0x99;			// Reset device

uint8_t check_busy(SPI_HandleTypeDef *hspi, GPIO_Config config, int timeout) {
 8000882:	b580      	push	{r7, lr}
 8000884:	b088      	sub	sp, #32
 8000886:	af00      	add	r7, sp, #0
 8000888:	60f8      	str	r0, [r7, #12]
 800088a:	1d38      	adds	r0, r7, #4
 800088c:	e880 0006 	stmia.w	r0, {r1, r2}
 8000890:	603b      	str	r3, [r7, #0]
	uint8_t ret_val = 0x00;
 8000892:	2300      	movs	r3, #0
 8000894:	77fb      	strb	r3, [r7, #31]

    // Get the current time
	uint32_t startTick = HAL_GetTick();
 8000896:	f002 fb59 	bl	8002f4c <HAL_GetTick>
 800089a:	61b8      	str	r0, [r7, #24]

	// Read the status register to ensure no write is currently in progress
	uint8_t busy = 0x01;
 800089c:	2301      	movs	r3, #1
 800089e:	77bb      	strb	r3, [r7, #30]
	while(busy) {
 80008a0:	e015      	b.n	80008ce <check_busy+0x4c>
		// Check if there is a write in progress
		busy = (check_status_register(hspi, config) & 0x01);
 80008a2:	1d3b      	adds	r3, r7, #4
 80008a4:	e893 0006 	ldmia.w	r3, {r1, r2}
 80008a8:	68f8      	ldr	r0, [r7, #12]
 80008aa:	f000 f819 	bl	80008e0 <check_status_register>
 80008ae:	4603      	mov	r3, r0
 80008b0:	f003 0301 	and.w	r3, r3, #1
 80008b4:	77bb      	strb	r3, [r7, #30]

		uint32_t currTick = HAL_GetTick();
 80008b6:	f002 fb49 	bl	8002f4c <HAL_GetTick>
 80008ba:	6178      	str	r0, [r7, #20]

        // Check if the timeout has been reached
		if ((currTick - startTick) >= timeout) {
 80008bc:	697a      	ldr	r2, [r7, #20]
 80008be:	69bb      	ldr	r3, [r7, #24]
 80008c0:	1ad2      	subs	r2, r2, r3
 80008c2:	683b      	ldr	r3, [r7, #0]
 80008c4:	429a      	cmp	r2, r3
 80008c6:	d302      	bcc.n	80008ce <check_busy+0x4c>
        	ret_val = 0x01;
 80008c8:	2301      	movs	r3, #1
 80008ca:	77fb      	strb	r3, [r7, #31]
            break;
 80008cc:	e002      	b.n	80008d4 <check_busy+0x52>
	while(busy) {
 80008ce:	7fbb      	ldrb	r3, [r7, #30]
 80008d0:	2b00      	cmp	r3, #0
 80008d2:	d1e6      	bne.n	80008a2 <check_busy+0x20>
        }
	}

	return ret_val;
 80008d4:	7ffb      	ldrb	r3, [r7, #31]
}
 80008d6:	4618      	mov	r0, r3
 80008d8:	3720      	adds	r7, #32
 80008da:	46bd      	mov	sp, r7
 80008dc:	bd80      	pop	{r7, pc}
	...

080008e0 <check_status_register>:

uint8_t check_status_register(SPI_HandleTypeDef *hspi, GPIO_Config config) {
 80008e0:	b580      	push	{r7, lr}
 80008e2:	b088      	sub	sp, #32
 80008e4:	af02      	add	r7, sp, #8
 80008e6:	60f8      	str	r0, [r7, #12]
 80008e8:	1d3b      	adds	r3, r7, #4
 80008ea:	e883 0006 	stmia.w	r3, {r1, r2}
	uint8_t status_reg = 0x00;
 80008ee:	2300      	movs	r3, #0
 80008f0:	75fb      	strb	r3, [r7, #23]
	spi_sendOp_readByte(&FLASH_READSR1, hspi, &status_reg, config.GPIOx, config.GPIO_Pin);
 80008f2:	6879      	ldr	r1, [r7, #4]
 80008f4:	893b      	ldrh	r3, [r7, #8]
 80008f6:	f107 0217 	add.w	r2, r7, #23
 80008fa:	9300      	str	r3, [sp, #0]
 80008fc:	460b      	mov	r3, r1
 80008fe:	68f9      	ldr	r1, [r7, #12]
 8000900:	4803      	ldr	r0, [pc, #12]	; (8000910 <check_status_register+0x30>)
 8000902:	f001 fdcb 	bl	800249c <spi_sendOp_readByte>
	return status_reg;
 8000906:	7dfb      	ldrb	r3, [r7, #23]
}
 8000908:	4618      	mov	r0, r3
 800090a:	3718      	adds	r7, #24
 800090c:	46bd      	mov	sp, r7
 800090e:	bd80      	pop	{r7, pc}
 8000910:	2000000f 	.word	0x2000000f

08000914 <erase_chip_spi>:
 *      Author: aidencontini
 */

#include "data_output_spi.h"

HAL_StatusTypeDef erase_chip_spi(SPI_HandleTypeDef *hspi, GPIO_Config config) {
 8000914:	b580      	push	{r7, lr}
 8000916:	b084      	sub	sp, #16
 8000918:	af00      	add	r7, sp, #0
 800091a:	60f8      	str	r0, [r7, #12]
 800091c:	1d3b      	adds	r3, r7, #4
 800091e:	e883 0006 	stmia.w	r3, {r1, r2}
	check_busy(hspi, config, BSY_TIMEOUT_MS);
 8000922:	2305      	movs	r3, #5
 8000924:	1d3a      	adds	r2, r7, #4
 8000926:	ca06      	ldmia	r2, {r1, r2}
 8000928:	68f8      	ldr	r0, [r7, #12]
 800092a:	f7ff ffaa 	bl	8000882 <check_busy>

	write_enable_spi(hspi, config);
 800092e:	1d3b      	adds	r3, r7, #4
 8000930:	e893 0006 	ldmia.w	r3, {r1, r2}
 8000934:	68f8      	ldr	r0, [r7, #12]
 8000936:	f000 f815 	bl	8000964 <write_enable_spi>
	perform_operation(&FLASH_ERASE, hspi, config.GPIOx, config.GPIO_Pin);
 800093a:	687a      	ldr	r2, [r7, #4]
 800093c:	893b      	ldrh	r3, [r7, #8]
 800093e:	68f9      	ldr	r1, [r7, #12]
 8000940:	4806      	ldr	r0, [pc, #24]	; (800095c <erase_chip_spi+0x48>)
 8000942:	f001 fdd1 	bl	80024e8 <perform_operation>

	check_busy(hspi, config, CHIP_ERASE_TO);
 8000946:	4b06      	ldr	r3, [pc, #24]	; (8000960 <erase_chip_spi+0x4c>)
 8000948:	1d3a      	adds	r2, r7, #4
 800094a:	ca06      	ldmia	r2, {r1, r2}
 800094c:	68f8      	ldr	r0, [r7, #12]
 800094e:	f7ff ff98 	bl	8000882 <check_busy>

	return HAL_OK;
 8000952:	2300      	movs	r3, #0
}
 8000954:	4618      	mov	r0, r3
 8000956:	3710      	adds	r7, #16
 8000958:	46bd      	mov	sp, r7
 800095a:	bd80      	pop	{r7, pc}
 800095c:	20000012 	.word	0x20000012
 8000960:	00030d40 	.word	0x00030d40

08000964 <write_enable_spi>:
	check_busy(hspi, config, BLK_ERS_32K_TO);

	return HAL_OK;
}

void write_enable_spi(SPI_HandleTypeDef *hspi, GPIO_Config config) {
 8000964:	b580      	push	{r7, lr}
 8000966:	b084      	sub	sp, #16
 8000968:	af00      	add	r7, sp, #0
 800096a:	60f8      	str	r0, [r7, #12]
 800096c:	1d3b      	adds	r3, r7, #4
 800096e:	e883 0006 	stmia.w	r3, {r1, r2}
	perform_operation(&FLASH_WREN, hspi, config.GPIOx, config.GPIO_Pin);
 8000972:	687a      	ldr	r2, [r7, #4]
 8000974:	893b      	ldrh	r3, [r7, #8]
 8000976:	68f9      	ldr	r1, [r7, #12]
 8000978:	4803      	ldr	r0, [pc, #12]	; (8000988 <write_enable_spi+0x24>)
 800097a:	f001 fdb5 	bl	80024e8 <perform_operation>
}
 800097e:	bf00      	nop
 8000980:	3710      	adds	r7, #16
 8000982:	46bd      	mov	sp, r7
 8000984:	bd80      	pop	{r7, pc}
 8000986:	bf00      	nop
 8000988:	2000000d 	.word	0x2000000d

0800098c <software_reset>:

void write_disable_spi(SPI_HandleTypeDef *hspi, GPIO_Config config) {
	perform_operation(&FLASH_WRDIS, hspi, config.GPIOx, config.GPIO_Pin);
}

void software_reset(SPI_HandleTypeDef *hspi, GPIO_Config config) {
 800098c:	b580      	push	{r7, lr}
 800098e:	b084      	sub	sp, #16
 8000990:	af00      	add	r7, sp, #0
 8000992:	60f8      	str	r0, [r7, #12]
 8000994:	1d3b      	adds	r3, r7, #4
 8000996:	e883 0006 	stmia.w	r3, {r1, r2}

	check_busy(hspi, config, BSY_TIMEOUT_MS);
 800099a:	2305      	movs	r3, #5
 800099c:	1d3a      	adds	r2, r7, #4
 800099e:	ca06      	ldmia	r2, {r1, r2}
 80009a0:	68f8      	ldr	r0, [r7, #12]
 80009a2:	f7ff ff6e 	bl	8000882 <check_busy>

	perform_operation(&RST_EN, hspi, config.GPIOx, config.GPIO_Pin);
 80009a6:	687a      	ldr	r2, [r7, #4]
 80009a8:	893b      	ldrh	r3, [r7, #8]
 80009aa:	68f9      	ldr	r1, [r7, #12]
 80009ac:	4807      	ldr	r0, [pc, #28]	; (80009cc <software_reset+0x40>)
 80009ae:	f001 fd9b 	bl	80024e8 <perform_operation>
	perform_operation(&DEV_RST, hspi, config.GPIOx, config.GPIO_Pin);
 80009b2:	687a      	ldr	r2, [r7, #4]
 80009b4:	893b      	ldrh	r3, [r7, #8]
 80009b6:	68f9      	ldr	r1, [r7, #12]
 80009b8:	4805      	ldr	r0, [pc, #20]	; (80009d0 <software_reset+0x44>)
 80009ba:	f001 fd95 	bl	80024e8 <perform_operation>

	HAL_Delay(5);
 80009be:	2005      	movs	r0, #5
 80009c0:	f002 fad0 	bl	8002f64 <HAL_Delay>
}
 80009c4:	bf00      	nop
 80009c6:	3710      	adds	r7, #16
 80009c8:	46bd      	mov	sp, r7
 80009ca:	bd80      	pop	{r7, pc}
 80009cc:	20000013 	.word	0x20000013
 80009d0:	20000014 	.word	0x20000014

080009d4 <write_data_spi_dma>:
	spi_write_data(&FLASH_PGWR, PAGE_SIZE, page, hspi, addr, config.GPIOx, config.GPIO_Pin);

	return 0;
}

uint8_t write_data_spi_dma(uint8_t page[PAGE_SIZE], SPI_HandleTypeDef *hspi, uint32_t addr, GPIO_Config config) {
 80009d4:	b082      	sub	sp, #8
 80009d6:	b580      	push	{r7, lr}
 80009d8:	b088      	sub	sp, #32
 80009da:	af04      	add	r7, sp, #16
 80009dc:	60f8      	str	r0, [r7, #12]
 80009de:	60b9      	str	r1, [r7, #8]
 80009e0:	607a      	str	r2, [r7, #4]
 80009e2:	61fb      	str	r3, [r7, #28]
	check_busy(hspi, config, BSY_TIMEOUT_MS);
 80009e4:	2305      	movs	r3, #5
 80009e6:	f107 021c 	add.w	r2, r7, #28
 80009ea:	ca06      	ldmia	r2, {r1, r2}
 80009ec:	68b8      	ldr	r0, [r7, #8]
 80009ee:	f7ff ff48 	bl	8000882 <check_busy>

	// Send the write enable signal
	write_enable_spi(hspi, config);
 80009f2:	f107 031c 	add.w	r3, r7, #28
 80009f6:	e893 0006 	ldmia.w	r3, {r1, r2}
 80009fa:	68b8      	ldr	r0, [r7, #8]
 80009fc:	f7ff ffb2 	bl	8000964 <write_enable_spi>
	spi_write_data_dma(&FLASH_PGWR, PAGE_SIZE, page, hspi, addr, config.GPIOx, config.GPIO_Pin);
 8000a00:	69fb      	ldr	r3, [r7, #28]
 8000a02:	8c3a      	ldrh	r2, [r7, #32]
 8000a04:	9202      	str	r2, [sp, #8]
 8000a06:	9301      	str	r3, [sp, #4]
 8000a08:	687b      	ldr	r3, [r7, #4]
 8000a0a:	9300      	str	r3, [sp, #0]
 8000a0c:	68bb      	ldr	r3, [r7, #8]
 8000a0e:	68fa      	ldr	r2, [r7, #12]
 8000a10:	f44f 7180 	mov.w	r1, #256	; 0x100
 8000a14:	4805      	ldr	r0, [pc, #20]	; (8000a2c <write_data_spi_dma+0x58>)
 8000a16:	f001 fdce 	bl	80025b6 <spi_write_data_dma>

	return 0;
 8000a1a:	2300      	movs	r3, #0
}
 8000a1c:	4618      	mov	r0, r3
 8000a1e:	3710      	adds	r7, #16
 8000a20:	46bd      	mov	sp, r7
 8000a22:	e8bd 4080 	ldmia.w	sp!, {r7, lr}
 8000a26:	b002      	add	sp, #8
 8000a28:	4770      	bx	lr
 8000a2a:	bf00      	nop
 8000a2c:	2000000e 	.word	0x2000000e

08000a30 <find_next_blank_page>:
 *      Author: aidencontini
 */

#include "data_read_spi.h"

uint32_t find_next_blank_page(SPI_HandleTypeDef *hspi, GPIO_PinState *end_of_flash_ptr, GPIO_Config config) {
 8000a30:	e92d 43f0 	stmdb	sp!, {r4, r5, r6, r7, r8, r9, lr}
 8000a34:	b091      	sub	sp, #68	; 0x44
 8000a36:	af04      	add	r7, sp, #16
 8000a38:	60f8      	str	r0, [r7, #12]
 8000a3a:	60b9      	str	r1, [r7, #8]
 8000a3c:	4639      	mov	r1, r7
 8000a3e:	e881 000c 	stmia.w	r1, {r2, r3}
 8000a42:	466b      	mov	r3, sp
 8000a44:	461e      	mov	r6, r3
	uint8_t firstBytes = 4;
 8000a46:	2304      	movs	r3, #4
 8000a48:	77fb      	strb	r3, [r7, #31]

	uint8_t page_start[firstBytes];
 8000a4a:	7ff9      	ldrb	r1, [r7, #31]
 8000a4c:	460b      	mov	r3, r1
 8000a4e:	3b01      	subs	r3, #1
 8000a50:	61bb      	str	r3, [r7, #24]
 8000a52:	b2cb      	uxtb	r3, r1
 8000a54:	2200      	movs	r2, #0
 8000a56:	4698      	mov	r8, r3
 8000a58:	4691      	mov	r9, r2
 8000a5a:	f04f 0200 	mov.w	r2, #0
 8000a5e:	f04f 0300 	mov.w	r3, #0
 8000a62:	ea4f 03c9 	mov.w	r3, r9, lsl #3
 8000a66:	ea43 7358 	orr.w	r3, r3, r8, lsr #29
 8000a6a:	ea4f 02c8 	mov.w	r2, r8, lsl #3
 8000a6e:	b2cb      	uxtb	r3, r1
 8000a70:	2200      	movs	r2, #0
 8000a72:	461c      	mov	r4, r3
 8000a74:	4615      	mov	r5, r2
 8000a76:	f04f 0200 	mov.w	r2, #0
 8000a7a:	f04f 0300 	mov.w	r3, #0
 8000a7e:	00eb      	lsls	r3, r5, #3
 8000a80:	ea43 7354 	orr.w	r3, r3, r4, lsr #29
 8000a84:	00e2      	lsls	r2, r4, #3
 8000a86:	460b      	mov	r3, r1
 8000a88:	3307      	adds	r3, #7
 8000a8a:	08db      	lsrs	r3, r3, #3
 8000a8c:	00db      	lsls	r3, r3, #3
 8000a8e:	ebad 0d03 	sub.w	sp, sp, r3
 8000a92:	ab04      	add	r3, sp, #16
 8000a94:	3300      	adds	r3, #0
 8000a96:	617b      	str	r3, [r7, #20]
	for (int i = 0; i < firstBytes; i++) {
 8000a98:	2300      	movs	r3, #0
 8000a9a:	62fb      	str	r3, [r7, #44]	; 0x2c
 8000a9c:	e007      	b.n	8000aae <find_next_blank_page+0x7e>
		page_start[i] = 0;
 8000a9e:	697a      	ldr	r2, [r7, #20]
 8000aa0:	6afb      	ldr	r3, [r7, #44]	; 0x2c
 8000aa2:	4413      	add	r3, r2
 8000aa4:	2200      	movs	r2, #0
 8000aa6:	701a      	strb	r2, [r3, #0]
	for (int i = 0; i < firstBytes; i++) {
 8000aa8:	6afb      	ldr	r3, [r7, #44]	; 0x2c
 8000aaa:	3301      	adds	r3, #1
 8000aac:	62fb      	str	r3, [r7, #44]	; 0x2c
 8000aae:	7ffb      	ldrb	r3, [r7, #31]
 8000ab0:	6afa      	ldr	r2, [r7, #44]	; 0x2c
 8000ab2:	429a      	cmp	r2, r3
 8000ab4:	dbf3      	blt.n	8000a9e <find_next_blank_page+0x6e>
	}

	uint32_t page_start_concat = (page_start[0] << 24) | (page_start[1] << 16) | (page_start[2] << 8) | page_start[3];
 8000ab6:	697b      	ldr	r3, [r7, #20]
 8000ab8:	781b      	ldrb	r3, [r3, #0]
 8000aba:	061a      	lsls	r2, r3, #24
 8000abc:	697b      	ldr	r3, [r7, #20]
 8000abe:	785b      	ldrb	r3, [r3, #1]
 8000ac0:	041b      	lsls	r3, r3, #16
 8000ac2:	431a      	orrs	r2, r3
 8000ac4:	697b      	ldr	r3, [r7, #20]
 8000ac6:	789b      	ldrb	r3, [r3, #2]
 8000ac8:	021b      	lsls	r3, r3, #8
 8000aca:	4313      	orrs	r3, r2
 8000acc:	697a      	ldr	r2, [r7, #20]
 8000ace:	78d2      	ldrb	r2, [r2, #3]
 8000ad0:	4313      	orrs	r3, r2
 8000ad2:	62bb      	str	r3, [r7, #40]	; 0x28
	uint32_t temp = 0;
 8000ad4:	2300      	movs	r3, #0
 8000ad6:	627b      	str	r3, [r7, #36]	; 0x24
	uint32_t page_address = temp;
 8000ad8:	6a7b      	ldr	r3, [r7, #36]	; 0x24
 8000ada:	623b      	str	r3, [r7, #32]

	while ((page_start_concat != 0xFFFFFFFF) || (temp == NUM_OF_PAGES)) {
 8000adc:	e027      	b.n	8000b2e <find_next_blank_page+0xfe>
		page_address = temp;
 8000ade:	6a7b      	ldr	r3, [r7, #36]	; 0x24
 8000ae0:	623b      	str	r3, [r7, #32]

		check_busy(hspi, config, BSY_TIMEOUT_MS);
 8000ae2:	2305      	movs	r3, #5
 8000ae4:	463a      	mov	r2, r7
 8000ae6:	ca06      	ldmia	r2, {r1, r2}
 8000ae8:	68f8      	ldr	r0, [r7, #12]
 8000aea:	f7ff feca 	bl	8000882 <check_busy>

		spi_read_data(&FLASH_READEN, firstBytes, page_start, hspi, page_address, config.GPIOx, config.GPIO_Pin);
 8000aee:	7ffb      	ldrb	r3, [r7, #31]
 8000af0:	b299      	uxth	r1, r3
 8000af2:	683b      	ldr	r3, [r7, #0]
 8000af4:	88ba      	ldrh	r2, [r7, #4]
 8000af6:	9202      	str	r2, [sp, #8]
 8000af8:	9301      	str	r3, [sp, #4]
 8000afa:	6a3b      	ldr	r3, [r7, #32]
 8000afc:	9300      	str	r3, [sp, #0]
 8000afe:	68fb      	ldr	r3, [r7, #12]
 8000b00:	697a      	ldr	r2, [r7, #20]
 8000b02:	4816      	ldr	r0, [pc, #88]	; (8000b5c <find_next_blank_page+0x12c>)
 8000b04:	f001 fd10 	bl	8002528 <spi_read_data>

		page_start_concat = (page_start[0] << 24) | (page_start[1] << 16) | (page_start[2] << 8) | page_start[3];
 8000b08:	697b      	ldr	r3, [r7, #20]
 8000b0a:	781b      	ldrb	r3, [r3, #0]
 8000b0c:	061a      	lsls	r2, r3, #24
 8000b0e:	697b      	ldr	r3, [r7, #20]
 8000b10:	785b      	ldrb	r3, [r3, #1]
 8000b12:	041b      	lsls	r3, r3, #16
 8000b14:	431a      	orrs	r2, r3
 8000b16:	697b      	ldr	r3, [r7, #20]
 8000b18:	789b      	ldrb	r3, [r3, #2]
 8000b1a:	021b      	lsls	r3, r3, #8
 8000b1c:	4313      	orrs	r3, r2
 8000b1e:	697a      	ldr	r2, [r7, #20]
 8000b20:	78d2      	ldrb	r2, [r2, #3]
 8000b22:	4313      	orrs	r3, r2
 8000b24:	62bb      	str	r3, [r7, #40]	; 0x28
		temp += PAGE_SIZE;
 8000b26:	6a7b      	ldr	r3, [r7, #36]	; 0x24
 8000b28:	f503 7380 	add.w	r3, r3, #256	; 0x100
 8000b2c:	627b      	str	r3, [r7, #36]	; 0x24
	while ((page_start_concat != 0xFFFFFFFF) || (temp == NUM_OF_PAGES)) {
 8000b2e:	6abb      	ldr	r3, [r7, #40]	; 0x28
 8000b30:	f1b3 3fff 	cmp.w	r3, #4294967295	; 0xffffffff
 8000b34:	d1d3      	bne.n	8000ade <find_next_blank_page+0xae>
 8000b36:	6a7b      	ldr	r3, [r7, #36]	; 0x24
 8000b38:	f5b3 3f80 	cmp.w	r3, #65536	; 0x10000
 8000b3c:	d0cf      	beq.n	8000ade <find_next_blank_page+0xae>
	}

	if (page_address == (NUM_OF_PAGES * PAGE_SIZE)) {
 8000b3e:	6a3b      	ldr	r3, [r7, #32]
 8000b40:	f1b3 7f80 	cmp.w	r3, #16777216	; 0x1000000
 8000b44:	d102      	bne.n	8000b4c <find_next_blank_page+0x11c>
		*end_of_flash_ptr = GPIO_PIN_RESET;
 8000b46:	68bb      	ldr	r3, [r7, #8]
 8000b48:	2200      	movs	r2, #0
 8000b4a:	701a      	strb	r2, [r3, #0]
	}
	return page_address;
 8000b4c:	6a3b      	ldr	r3, [r7, #32]
 8000b4e:	46b5      	mov	sp, r6
}
 8000b50:	4618      	mov	r0, r3
 8000b52:	3734      	adds	r7, #52	; 0x34
 8000b54:	46bd      	mov	sp, r7
 8000b56:	e8bd 83f0 	ldmia.w	sp!, {r4, r5, r6, r7, r8, r9, pc}
 8000b5a:	bf00      	nop
 8000b5c:	20000010 	.word	0x20000010

08000b60 <read_page_spi>:

void read_page_spi(uint8_t data_read[PAGE_SIZE], SPI_HandleTypeDef *hspi, uint32_t addr, GPIO_Config config) {
 8000b60:	b082      	sub	sp, #8
 8000b62:	b580      	push	{r7, lr}
 8000b64:	b088      	sub	sp, #32
 8000b66:	af04      	add	r7, sp, #16
 8000b68:	60f8      	str	r0, [r7, #12]
 8000b6a:	60b9      	str	r1, [r7, #8]
 8000b6c:	607a      	str	r2, [r7, #4]
 8000b6e:	61fb      	str	r3, [r7, #28]

	// Read the status register to ensure no write is currently in progress
	check_busy(hspi, config, BSY_TIMEOUT_MS);
 8000b70:	2305      	movs	r3, #5
 8000b72:	f107 021c 	add.w	r2, r7, #28
 8000b76:	ca06      	ldmia	r2, {r1, r2}
 8000b78:	68b8      	ldr	r0, [r7, #8]
 8000b7a:	f7ff fe82 	bl	8000882 <check_busy>
	spi_read_data(&FLASH_READEN, PAGE_SIZE, data_read, hspi, addr, config.GPIOx, config.GPIO_Pin);
 8000b7e:	69fb      	ldr	r3, [r7, #28]
 8000b80:	8c3a      	ldrh	r2, [r7, #32]
 8000b82:	9202      	str	r2, [sp, #8]
 8000b84:	9301      	str	r3, [sp, #4]
 8000b86:	687b      	ldr	r3, [r7, #4]
 8000b88:	9300      	str	r3, [sp, #0]
 8000b8a:	68bb      	ldr	r3, [r7, #8]
 8000b8c:	68fa      	ldr	r2, [r7, #12]
 8000b8e:	f44f 7180 	mov.w	r1, #256	; 0x100
 8000b92:	4805      	ldr	r0, [pc, #20]	; (8000ba8 <read_page_spi+0x48>)
 8000b94:	f001 fcc8 	bl	8002528 <spi_read_data>
}
 8000b98:	bf00      	nop
 8000b9a:	3710      	adds	r7, #16
 8000b9c:	46bd      	mov	sp, r7
 8000b9e:	e8bd 4080 	ldmia.w	sp!, {r7, lr}
 8000ba2:	b002      	add	sp, #8
 8000ba4:	4770      	bx	lr
 8000ba6:	bf00      	nop
 8000ba8:	20000010 	.word	0x20000010

08000bac <read_manufacturer_id>:

void read_manufacturer_id(uint8_t manu[2], SPI_HandleTypeDef *hspi, GPIO_Config config) {
 8000bac:	b580      	push	{r7, lr}
 8000bae:	b08a      	sub	sp, #40	; 0x28
 8000bb0:	af04      	add	r7, sp, #16
 8000bb2:	60f8      	str	r0, [r7, #12]
 8000bb4:	60b9      	str	r1, [r7, #8]
 8000bb6:	4639      	mov	r1, r7
 8000bb8:	e881 000c 	stmia.w	r1, {r2, r3}

	// Read the status register to ensure no write is currently in progress
	check_busy(hspi, config, BSY_TIMEOUT_MS);
 8000bbc:	2305      	movs	r3, #5
 8000bbe:	463a      	mov	r2, r7
 8000bc0:	ca06      	ldmia	r2, {r1, r2}
 8000bc2:	68b8      	ldr	r0, [r7, #8]
 8000bc4:	f7ff fe5d 	bl	8000882 <check_busy>

	// Read the entire contents of a page starting from the given address
	uint8_t addr = 0x00;
 8000bc8:	2300      	movs	r3, #0
 8000bca:	75fb      	strb	r3, [r7, #23]
	spi_read_data(&FLASH_READ_MANU, 2, manu, hspi, addr, config.GPIOx, config.GPIO_Pin);
 8000bcc:	7dfb      	ldrb	r3, [r7, #23]
 8000bce:	683a      	ldr	r2, [r7, #0]
 8000bd0:	88b9      	ldrh	r1, [r7, #4]
 8000bd2:	9102      	str	r1, [sp, #8]
 8000bd4:	9201      	str	r2, [sp, #4]
 8000bd6:	9300      	str	r3, [sp, #0]
 8000bd8:	68bb      	ldr	r3, [r7, #8]
 8000bda:	68fa      	ldr	r2, [r7, #12]
 8000bdc:	2102      	movs	r1, #2
 8000bde:	4803      	ldr	r0, [pc, #12]	; (8000bec <read_manufacturer_id+0x40>)
 8000be0:	f001 fca2 	bl	8002528 <spi_read_data>
}
 8000be4:	bf00      	nop
 8000be6:	3718      	adds	r7, #24
 8000be8:	46bd      	mov	sp, r7
 8000bea:	bd80      	pop	{r7, pc}
 8000bec:	20000011 	.word	0x20000011

08000bf0 <create_GPIO_Config>:
 */

#include "gpio_struct.h"

// Function to initialize the GPIO_Config struct
GPIO_Config create_GPIO_Config(GPIO_TypeDef* GPIOx, uint16_t GPIO_Pin) {
 8000bf0:	b480      	push	{r7}
 8000bf2:	b087      	sub	sp, #28
 8000bf4:	af00      	add	r7, sp, #0
 8000bf6:	60f8      	str	r0, [r7, #12]
 8000bf8:	60b9      	str	r1, [r7, #8]
 8000bfa:	4613      	mov	r3, r2
 8000bfc:	80fb      	strh	r3, [r7, #6]
    GPIO_Config new_config;
    new_config.GPIOx = GPIOx;
 8000bfe:	68bb      	ldr	r3, [r7, #8]
 8000c00:	613b      	str	r3, [r7, #16]
    new_config.GPIO_Pin = GPIO_Pin;
 8000c02:	88fb      	ldrh	r3, [r7, #6]
 8000c04:	82bb      	strh	r3, [r7, #20]
    return new_config;
 8000c06:	68fb      	ldr	r3, [r7, #12]
 8000c08:	461a      	mov	r2, r3
 8000c0a:	f107 0310 	add.w	r3, r7, #16
 8000c0e:	e893 0003 	ldmia.w	r3, {r0, r1}
 8000c12:	e882 0003 	stmia.w	r2, {r0, r1}
}
 8000c16:	68f8      	ldr	r0, [r7, #12]
 8000c18:	371c      	adds	r7, #28
 8000c1a:	46bd      	mov	sp, r7
 8000c1c:	f85d 7b04 	ldr.w	r7, [sp], #4
 8000c20:	4770      	bx	lr

08000c22 <i2c_read_reg>:
 *      Author: aidencontini
 */

#include "i2c_driver.h"

HAL_StatusTypeDef i2c_read_reg(I2C_HandleTypeDef* hi2c, uint8_t* data_ptr, uint8_t dev_addr, uint8_t* register_addr) {
 8000c22:	b580      	push	{r7, lr}
 8000c24:	b088      	sub	sp, #32
 8000c26:	af02      	add	r7, sp, #8
 8000c28:	60f8      	str	r0, [r7, #12]
 8000c2a:	60b9      	str	r1, [r7, #8]
 8000c2c:	603b      	str	r3, [r7, #0]
 8000c2e:	4613      	mov	r3, r2
 8000c30:	71fb      	strb	r3, [r7, #7]
	HAL_I2C_Master_Transmit(hi2c, (dev_addr << 1) & 0xFE, register_addr, 1, I2C_TIMEOUT_SML);
 8000c32:	79fb      	ldrb	r3, [r7, #7]
 8000c34:	005b      	lsls	r3, r3, #1
 8000c36:	b29b      	uxth	r3, r3
 8000c38:	b2db      	uxtb	r3, r3
 8000c3a:	b299      	uxth	r1, r3
 8000c3c:	2301      	movs	r3, #1
 8000c3e:	9300      	str	r3, [sp, #0]
 8000c40:	2301      	movs	r3, #1
 8000c42:	683a      	ldr	r2, [r7, #0]
 8000c44:	68f8      	ldr	r0, [r7, #12]
 8000c46:	f004 f869 	bl	8004d1c <HAL_I2C_Master_Transmit>
	HAL_StatusTypeDef hal_status = HAL_I2C_Master_Receive(hi2c, (dev_addr << 1) | 0x01, data_ptr, 1, I2C_TIMEOUT_SML);
 8000c4a:	79fb      	ldrb	r3, [r7, #7]
 8000c4c:	005b      	lsls	r3, r3, #1
 8000c4e:	b21b      	sxth	r3, r3
 8000c50:	f043 0301 	orr.w	r3, r3, #1
 8000c54:	b21b      	sxth	r3, r3
 8000c56:	b299      	uxth	r1, r3
 8000c58:	2301      	movs	r3, #1
 8000c5a:	9300      	str	r3, [sp, #0]
 8000c5c:	2301      	movs	r3, #1
 8000c5e:	68ba      	ldr	r2, [r7, #8]
 8000c60:	68f8      	ldr	r0, [r7, #12]
 8000c62:	f004 f959 	bl	8004f18 <HAL_I2C_Master_Receive>
 8000c66:	4603      	mov	r3, r0
 8000c68:	75fb      	strb	r3, [r7, #23]
	return hal_status;
 8000c6a:	7dfb      	ldrb	r3, [r7, #23]
}
 8000c6c:	4618      	mov	r0, r3
 8000c6e:	3718      	adds	r7, #24
 8000c70:	46bd      	mov	sp, r7
 8000c72:	bd80      	pop	{r7, pc}

08000c74 <i2c_burst_read>:

HAL_StatusTypeDef i2c_burst_read(I2C_HandleTypeDef* hi2c, uint8_t dev_addr, uint8_t register_addr, uint8_t size, uint8_t data_buffer[size]) {
 8000c74:	b580      	push	{r7, lr}
 8000c76:	b086      	sub	sp, #24
 8000c78:	af02      	add	r7, sp, #8
 8000c7a:	6078      	str	r0, [r7, #4]
 8000c7c:	4608      	mov	r0, r1
 8000c7e:	4611      	mov	r1, r2
 8000c80:	461a      	mov	r2, r3
 8000c82:	4603      	mov	r3, r0
 8000c84:	70fb      	strb	r3, [r7, #3]
 8000c86:	460b      	mov	r3, r1
 8000c88:	70bb      	strb	r3, [r7, #2]
 8000c8a:	4613      	mov	r3, r2
 8000c8c:	707b      	strb	r3, [r7, #1]
	// In order to read multiple bytes, it is necessary to assert the most significant bit of the sub-address field.
	uint8_t addr = register_addr | 0x80;
 8000c8e:	78bb      	ldrb	r3, [r7, #2]
 8000c90:	f063 037f 	orn	r3, r3, #127	; 0x7f
 8000c94:	b2db      	uxtb	r3, r3
 8000c96:	73bb      	strb	r3, [r7, #14]
	HAL_I2C_Master_Transmit(hi2c, (dev_addr << 1) & 0xFE, &addr, 1, I2C_TIMEOUT_SML);
 8000c98:	78fb      	ldrb	r3, [r7, #3]
 8000c9a:	005b      	lsls	r3, r3, #1
 8000c9c:	b29b      	uxth	r3, r3
 8000c9e:	b2db      	uxtb	r3, r3
 8000ca0:	b299      	uxth	r1, r3
 8000ca2:	f107 020e 	add.w	r2, r7, #14
 8000ca6:	2301      	movs	r3, #1
 8000ca8:	9300      	str	r3, [sp, #0]
 8000caa:	2301      	movs	r3, #1
 8000cac:	6878      	ldr	r0, [r7, #4]
 8000cae:	f004 f835 	bl	8004d1c <HAL_I2C_Master_Transmit>
	HAL_StatusTypeDef hal_status =  HAL_I2C_Master_Receive(hi2c, (dev_addr << 1) | 0x01, data_buffer, size, I2C_TIMEOUT_LRG);
 8000cb2:	78fb      	ldrb	r3, [r7, #3]
 8000cb4:	005b      	lsls	r3, r3, #1
 8000cb6:	b21b      	sxth	r3, r3
 8000cb8:	f043 0301 	orr.w	r3, r3, #1
 8000cbc:	b21b      	sxth	r3, r3
 8000cbe:	b299      	uxth	r1, r3
 8000cc0:	787b      	ldrb	r3, [r7, #1]
 8000cc2:	b29b      	uxth	r3, r3
 8000cc4:	220a      	movs	r2, #10
 8000cc6:	9200      	str	r2, [sp, #0]
 8000cc8:	69ba      	ldr	r2, [r7, #24]
 8000cca:	6878      	ldr	r0, [r7, #4]
 8000ccc:	f004 f924 	bl	8004f18 <HAL_I2C_Master_Receive>
 8000cd0:	4603      	mov	r3, r0
 8000cd2:	73fb      	strb	r3, [r7, #15]
	return hal_status;
 8000cd4:	7bfb      	ldrb	r3, [r7, #15]
}
 8000cd6:	4618      	mov	r0, r3
 8000cd8:	3710      	adds	r7, #16
 8000cda:	46bd      	mov	sp, r7
 8000cdc:	bd80      	pop	{r7, pc}

08000cde <i2c_write_reg>:
	HAL_I2C_Master_Transmit(hi2c, (dev_addr << 1) & 0xFE, &addr, 1, I2C_TIMEOUT_SML);
	HAL_StatusTypeDef hal_status =  HAL_I2C_Master_Receive(hi2c, (dev_addr << 1) | 0x01, data_buffer, size, I2C_TIMEOUT_LRG);
	return hal_status;
}

HAL_StatusTypeDef i2c_write_reg(I2C_HandleTypeDef* hi2c, uint8_t dev_addr, uint8_t* register_addr, uint8_t data) {
 8000cde:	b580      	push	{r7, lr}
 8000ce0:	b088      	sub	sp, #32
 8000ce2:	af02      	add	r7, sp, #8
 8000ce4:	60f8      	str	r0, [r7, #12]
 8000ce6:	607a      	str	r2, [r7, #4]
 8000ce8:	461a      	mov	r2, r3
 8000cea:	460b      	mov	r3, r1
 8000cec:	72fb      	strb	r3, [r7, #11]
 8000cee:	4613      	mov	r3, r2
 8000cf0:	72bb      	strb	r3, [r7, #10]
	uint8_t data_tx[2] = {*register_addr, data};
 8000cf2:	687b      	ldr	r3, [r7, #4]
 8000cf4:	781b      	ldrb	r3, [r3, #0]
 8000cf6:	753b      	strb	r3, [r7, #20]
 8000cf8:	7abb      	ldrb	r3, [r7, #10]
 8000cfa:	757b      	strb	r3, [r7, #21]
	HAL_StatusTypeDef hal_status = HAL_I2C_Master_Transmit(hi2c, (dev_addr << 1) & 0xFE, data_tx, 2, I2C_TIMEOUT_SML);
 8000cfc:	7afb      	ldrb	r3, [r7, #11]
 8000cfe:	005b      	lsls	r3, r3, #1
 8000d00:	b29b      	uxth	r3, r3
 8000d02:	b2db      	uxtb	r3, r3
 8000d04:	b299      	uxth	r1, r3
 8000d06:	f107 0214 	add.w	r2, r7, #20
 8000d0a:	2301      	movs	r3, #1
 8000d0c:	9300      	str	r3, [sp, #0]
 8000d0e:	2302      	movs	r3, #2
 8000d10:	68f8      	ldr	r0, [r7, #12]
 8000d12:	f004 f803 	bl	8004d1c <HAL_I2C_Master_Transmit>
 8000d16:	4603      	mov	r3, r0
 8000d18:	75fb      	strb	r3, [r7, #23]
	return hal_status;
 8000d1a:	7dfb      	ldrb	r3, [r7, #23]
}
 8000d1c:	4618      	mov	r0, r3
 8000d1e:	3718      	adds	r7, #24
 8000d20:	46bd      	mov	sp, r7
 8000d22:	bd80      	pop	{r7, pc}

08000d24 <main>:
/**
  * @brief  The application entry point.
  * @retval int
  */
int main(void)
{
 8000d24:	b580      	push	{r7, lr}
 8000d26:	b084      	sub	sp, #16
 8000d28:	af02      	add	r7, sp, #8
  /* USER CODE END 1 */

  /* MCU Configuration--------------------------------------------------------*/

  /* Reset of all peripherals, Initializes the Flash interface and the Systick. */
  HAL_Init();
 8000d2a:	f002 f8a9 	bl	8002e80 <HAL_Init>
  /* USER CODE BEGIN Init */

  /* USER CODE END Init */

  /* Configure the system clock */
  SystemClock_Config();
 8000d2e:	f000 f907 	bl	8000f40 <SystemClock_Config>
  /* USER CODE BEGIN SysInit */

  /* USER CODE END SysInit */

  /* Initialize all configured peripherals */
  MX_GPIO_Init();
 8000d32:	f000 fb87 	bl	8001444 <MX_GPIO_Init>
  MX_DMA_Init();
 8000d36:	f000 fb4f 	bl	80013d8 <MX_DMA_Init>
  MX_I2C1_Init();
 8000d3a:	f000 f9a5 	bl	8001088 <MX_I2C1_Init>
  MX_RTC_Init();
 8000d3e:	f000 fa23 	bl	8001188 <MX_RTC_Init>
  MX_SPI1_Init();
 8000d42:	f000 fa47 	bl	80011d4 <MX_SPI1_Init>
  MX_TIM6_Init();
 8000d46:	f000 fab1 	bl	80012ac <MX_TIM6_Init>
  MX_USART2_UART_Init();
 8000d4a:	f000 fb1b 	bl	8001384 <MX_USART2_UART_Init>
  MX_I2C2_Init();
 8000d4e:	f000 f9db 	bl	8001108 <MX_I2C2_Init>
  MX_SPI2_Init();
 8000d52:	f000 fa75 	bl	8001240 <MX_SPI2_Init>
  MX_CAN2_Init();
 8000d56:	f000 f95f 	bl	8001018 <MX_CAN2_Init>
  MX_TIM7_Init();
 8000d5a:	f000 fadd 	bl	8001318 <MX_TIM7_Init>
  /* USER CODE BEGIN 2 */
  systemInit();
 8000d5e:	f000 fc51 	bl	8001604 <systemInit>
    /* USER CODE END WHILE */

    /* USER CODE BEGIN 3 */

	  // If the flight jumper has been removed (GPIO rising edge), reset the time to 0.
	  if(rtc_reset == FLAG_SET) {
 8000d62:	4b60      	ldr	r3, [pc, #384]	; (8000ee4 <main+0x1c0>)
 8000d64:	781b      	ldrb	r3, [r3, #0]
 8000d66:	2b01      	cmp	r3, #1
 8000d68:	d105      	bne.n	8000d76 <main+0x52>
		  initialise_rtc_default(&hrtc);
 8000d6a:	485f      	ldr	r0, [pc, #380]	; (8000ee8 <main+0x1c4>)
 8000d6c:	f001 fb28 	bl	80023c0 <initialise_rtc_default>
		  rtc_reset = FLAG_RESET;
 8000d70:	4b5c      	ldr	r3, [pc, #368]	; (8000ee4 <main+0x1c0>)
 8000d72:	2200      	movs	r2, #0
 8000d74:	701a      	strb	r2, [r3, #0]
	  }

	  // Handle UART receive flag
	  if(uart2_rec_flag == FLAG_SET) {
 8000d76:	4b5d      	ldr	r3, [pc, #372]	; (8000eec <main+0x1c8>)
 8000d78:	781b      	ldrb	r3, [r3, #0]
 8000d7a:	2b01      	cmp	r3, #1
 8000d7c:	d104      	bne.n	8000d88 <main+0x64>
		  handleUART();
 8000d7e:	f000 fe3b 	bl	80019f8 <handleUART>
		  uart2_rec_flag = FLAG_RESET;
 8000d82:	4b5a      	ldr	r3, [pc, #360]	; (8000eec <main+0x1c8>)
 8000d84:	2200      	movs	r2, #0
 8000d86:	701a      	strb	r2, [r3, #0]
	  }

	  // Handle CAN receive flag
	  if(CAN_RX_Flag == FLAG_SET) {
 8000d88:	4b59      	ldr	r3, [pc, #356]	; (8000ef0 <main+0x1cc>)
 8000d8a:	781b      	ldrb	r3, [r3, #0]
 8000d8c:	2b01      	cmp	r3, #1
 8000d8e:	d117      	bne.n	8000dc0 <main+0x9c>
		  if((CAN_First_Msg == FLAG_SET) && (flight_state == GROUND)) {
 8000d90:	4b58      	ldr	r3, [pc, #352]	; (8000ef4 <main+0x1d0>)
 8000d92:	781b      	ldrb	r3, [r3, #0]
 8000d94:	2b01      	cmp	r3, #1
 8000d96:	d106      	bne.n	8000da6 <main+0x82>
 8000d98:	4b57      	ldr	r3, [pc, #348]	; (8000ef8 <main+0x1d4>)
 8000d9a:	781b      	ldrb	r3, [r3, #0]
 8000d9c:	2b00      	cmp	r3, #0
 8000d9e:	d102      	bne.n	8000da6 <main+0x82>
			  flight_state = LOADED;
 8000da0:	4b55      	ldr	r3, [pc, #340]	; (8000ef8 <main+0x1d4>)
 8000da2:	2201      	movs	r2, #1
 8000da4:	701a      	strb	r2, [r3, #0]
		  }

		  handleCAN();
 8000da6:	f000 fdbd 	bl	8001924 <handleCAN>
		  HAL_GPIO_TogglePin(led_green.GPIOx, led_green.GPIO_Pin);
 8000daa:	4b54      	ldr	r3, [pc, #336]	; (8000efc <main+0x1d8>)
 8000dac:	681b      	ldr	r3, [r3, #0]
 8000dae:	4a53      	ldr	r2, [pc, #332]	; (8000efc <main+0x1d8>)
 8000db0:	8892      	ldrh	r2, [r2, #4]
 8000db2:	4611      	mov	r1, r2
 8000db4:	4618      	mov	r0, r3
 8000db6:	f003 fe52 	bl	8004a5e <HAL_GPIO_TogglePin>
		  CAN_RX_Flag = FLAG_RESET;
 8000dba:	4b4d      	ldr	r3, [pc, #308]	; (8000ef0 <main+0x1cc>)
 8000dbc:	2200      	movs	r2, #0
 8000dbe:	701a      	strb	r2, [r3, #0]
	  }

	  if (tim7_overflow_flag == FLAG_SET) {
 8000dc0:	4b4f      	ldr	r3, [pc, #316]	; (8000f00 <main+0x1dc>)
 8000dc2:	781b      	ldrb	r3, [r3, #0]
 8000dc4:	2b01      	cmp	r3, #1
 8000dc6:	d116      	bne.n	8000df6 <main+0xd2>
		  HAL_GPIO_TogglePin(led_orange.GPIOx, led_orange.GPIO_Pin);		// Toggle LED
 8000dc8:	4b4e      	ldr	r3, [pc, #312]	; (8000f04 <main+0x1e0>)
 8000dca:	681b      	ldr	r3, [r3, #0]
 8000dcc:	4a4d      	ldr	r2, [pc, #308]	; (8000f04 <main+0x1e0>)
 8000dce:	8892      	ldrh	r2, [r2, #4]
 8000dd0:	4611      	mov	r1, r2
 8000dd2:	4618      	mov	r0, r3
 8000dd4:	f003 fe43 	bl	8004a5e <HAL_GPIO_TogglePin>
		  sysStatus = systemStatus(&hspi1, &hspi2, i2c_bme280, i2c_accel);
 8000dd8:	4b4b      	ldr	r3, [pc, #300]	; (8000f08 <main+0x1e4>)
 8000dda:	681a      	ldr	r2, [r3, #0]
 8000ddc:	4b4b      	ldr	r3, [pc, #300]	; (8000f0c <main+0x1e8>)
 8000dde:	681b      	ldr	r3, [r3, #0]
 8000de0:	494b      	ldr	r1, [pc, #300]	; (8000f10 <main+0x1ec>)
 8000de2:	484c      	ldr	r0, [pc, #304]	; (8000f14 <main+0x1f0>)
 8000de4:	f000 ffa2 	bl	8001d2c <systemStatus>
 8000de8:	4603      	mov	r3, r0
 8000dea:	461a      	mov	r2, r3
 8000dec:	4b4a      	ldr	r3, [pc, #296]	; (8000f18 <main+0x1f4>)
 8000dee:	701a      	strb	r2, [r3, #0]
		  // TODO
//		  if(sysStatus == 0x00) {
//			  HAL_GPIO_WritePin(status_led.GPIOx, status_led.GPIO_Pin, GPIO_PIN_SET);	// Turn LED off
//		  }

		  tim7_overflow_flag = FLAG_RESET;
 8000df0:	4b43      	ldr	r3, [pc, #268]	; (8000f00 <main+0x1dc>)
 8000df2:	2200      	movs	r2, #0
 8000df4:	701a      	strb	r2, [r3, #0]
	  }

	  // Handle Timer 6 overflow flag
	  if(tim6_overflow_flag == FLAG_SET) {
 8000df6:	4b49      	ldr	r3, [pc, #292]	; (8000f1c <main+0x1f8>)
 8000df8:	781b      	ldrb	r3, [r3, #0]
 8000dfa:	2b01      	cmp	r3, #1
 8000dfc:	d10a      	bne.n	8000e14 <main+0xf0>
		  readAllSensors(i2c_accel, i2c_bme280, &hrtc);
 8000dfe:	4b43      	ldr	r3, [pc, #268]	; (8000f0c <main+0x1e8>)
 8000e00:	681b      	ldr	r3, [r3, #0]
 8000e02:	4a41      	ldr	r2, [pc, #260]	; (8000f08 <main+0x1e4>)
 8000e04:	6811      	ldr	r1, [r2, #0]
 8000e06:	4a38      	ldr	r2, [pc, #224]	; (8000ee8 <main+0x1c4>)
 8000e08:	4618      	mov	r0, r3
 8000e0a:	f001 f9f5 	bl	80021f8 <readAllSensors>
		  tim6_overflow_flag = FLAG_RESET;
 8000e0e:	4b43      	ldr	r3, [pc, #268]	; (8000f1c <main+0x1f8>)
 8000e10:	2200      	movs	r2, #0
 8000e12:	701a      	strb	r2, [r3, #0]
	  }

	  // Write data to flash when buffer is full
	  if(byte_tracker > (PAGE_SIZE - READ_SIZE)) {
 8000e14:	4b42      	ldr	r3, [pc, #264]	; (8000f20 <main+0x1fc>)
 8000e16:	881b      	ldrh	r3, [r3, #0]
 8000e18:	2beb      	cmp	r3, #235	; 0xeb
 8000e1a:	d953      	bls.n	8000ec4 <main+0x1a0>
		  GPIO_PinState flight_mode = HAL_GPIO_ReadPin(jmp_flight.GPIOx, jmp_flight.GPIO_Pin);
 8000e1c:	4b41      	ldr	r3, [pc, #260]	; (8000f24 <main+0x200>)
 8000e1e:	681b      	ldr	r3, [r3, #0]
 8000e20:	4a40      	ldr	r2, [pc, #256]	; (8000f24 <main+0x200>)
 8000e22:	8892      	ldrh	r2, [r2, #4]
 8000e24:	b292      	uxth	r2, r2
 8000e26:	4611      	mov	r1, r2
 8000e28:	4618      	mov	r0, r3
 8000e2a:	f003 fde7 	bl	80049fc <HAL_GPIO_ReadPin>
 8000e2e:	4603      	mov	r3, r0
 8000e30:	71fb      	strb	r3, [r7, #7]
		  if((flight_mode & !(end_of_flash)) == FLAG_SET) {
 8000e32:	79fb      	ldrb	r3, [r7, #7]
 8000e34:	4a3c      	ldr	r2, [pc, #240]	; (8000f28 <main+0x204>)
 8000e36:	7812      	ldrb	r2, [r2, #0]
 8000e38:	2a00      	cmp	r2, #0
 8000e3a:	bf0c      	ite	eq
 8000e3c:	2201      	moveq	r2, #1
 8000e3e:	2200      	movne	r2, #0
 8000e40:	b2d2      	uxtb	r2, r2
 8000e42:	4013      	ands	r3, r2
 8000e44:	2b01      	cmp	r3, #1
 8000e46:	d133      	bne.n	8000eb0 <main+0x18c>
			  HAL_GPIO_WritePin(led_green.GPIOx, led_green.GPIO_Pin, GPIO_PIN_SET);		// Toggle LED when writing data
 8000e48:	4b2c      	ldr	r3, [pc, #176]	; (8000efc <main+0x1d8>)
 8000e4a:	681b      	ldr	r3, [r3, #0]
 8000e4c:	4a2b      	ldr	r2, [pc, #172]	; (8000efc <main+0x1d8>)
 8000e4e:	8891      	ldrh	r1, [r2, #4]
 8000e50:	2201      	movs	r2, #1
 8000e52:	4618      	mov	r0, r3
 8000e54:	f003 fdea 	bl	8004a2c <HAL_GPIO_WritePin>

			  write_data_spi_dma(data_buffer_tx[buffer_tracker], &hspi1, next_blank_page, cs_spi1);
 8000e58:	4b34      	ldr	r3, [pc, #208]	; (8000f2c <main+0x208>)
 8000e5a:	781b      	ldrb	r3, [r3, #0]
 8000e5c:	021b      	lsls	r3, r3, #8
 8000e5e:	4a34      	ldr	r2, [pc, #208]	; (8000f30 <main+0x20c>)
 8000e60:	1898      	adds	r0, r3, r2
 8000e62:	4b34      	ldr	r3, [pc, #208]	; (8000f34 <main+0x210>)
 8000e64:	6819      	ldr	r1, [r3, #0]
 8000e66:	4b34      	ldr	r3, [pc, #208]	; (8000f38 <main+0x214>)
 8000e68:	685a      	ldr	r2, [r3, #4]
 8000e6a:	9200      	str	r2, [sp, #0]
 8000e6c:	681b      	ldr	r3, [r3, #0]
 8000e6e:	460a      	mov	r2, r1
 8000e70:	4928      	ldr	r1, [pc, #160]	; (8000f14 <main+0x1f0>)
 8000e72:	f7ff fdaf 	bl	80009d4 <write_data_spi_dma>
			  write_data_spi_dma(data_buffer_tx[buffer_tracker], &hspi2, next_blank_page, cs_spi2);
 8000e76:	4b2d      	ldr	r3, [pc, #180]	; (8000f2c <main+0x208>)
 8000e78:	781b      	ldrb	r3, [r3, #0]
 8000e7a:	021b      	lsls	r3, r3, #8
 8000e7c:	4a2c      	ldr	r2, [pc, #176]	; (8000f30 <main+0x20c>)
 8000e7e:	1898      	adds	r0, r3, r2
 8000e80:	4b2c      	ldr	r3, [pc, #176]	; (8000f34 <main+0x210>)
 8000e82:	6819      	ldr	r1, [r3, #0]
 8000e84:	4b2d      	ldr	r3, [pc, #180]	; (8000f3c <main+0x218>)
 8000e86:	685a      	ldr	r2, [r3, #4]
 8000e88:	9200      	str	r2, [sp, #0]
 8000e8a:	681b      	ldr	r3, [r3, #0]
 8000e8c:	460a      	mov	r2, r1
 8000e8e:	4920      	ldr	r1, [pc, #128]	; (8000f10 <main+0x1ec>)
 8000e90:	f7ff fda0 	bl	80009d4 <write_data_spi_dma>
			  next_blank_page += PAGE_SIZE;
 8000e94:	4b27      	ldr	r3, [pc, #156]	; (8000f34 <main+0x210>)
 8000e96:	681b      	ldr	r3, [r3, #0]
 8000e98:	f503 7380 	add.w	r3, r3, #256	; 0x100
 8000e9c:	4a25      	ldr	r2, [pc, #148]	; (8000f34 <main+0x210>)
 8000e9e:	6013      	str	r3, [r2, #0]

			  HAL_GPIO_WritePin(led_green.GPIOx, led_green.GPIO_Pin, GPIO_PIN_RESET);		// Toggle LED when writing data
 8000ea0:	4b16      	ldr	r3, [pc, #88]	; (8000efc <main+0x1d8>)
 8000ea2:	681b      	ldr	r3, [r3, #0]
 8000ea4:	4a15      	ldr	r2, [pc, #84]	; (8000efc <main+0x1d8>)
 8000ea6:	8891      	ldrh	r1, [r2, #4]
 8000ea8:	2200      	movs	r2, #0
 8000eaa:	4618      	mov	r0, r3
 8000eac:	f003 fdbe 	bl	8004a2c <HAL_GPIO_WritePin>
		  }

		// Reset the buffer trackers
		buffer_tracker = buffer_tracker ^ 0x01;
 8000eb0:	4b1e      	ldr	r3, [pc, #120]	; (8000f2c <main+0x208>)
 8000eb2:	781b      	ldrb	r3, [r3, #0]
 8000eb4:	f083 0301 	eor.w	r3, r3, #1
 8000eb8:	b2da      	uxtb	r2, r3
 8000eba:	4b1c      	ldr	r3, [pc, #112]	; (8000f2c <main+0x208>)
 8000ebc:	701a      	strb	r2, [r3, #0]
		byte_tracker = 0;
 8000ebe:	4b18      	ldr	r3, [pc, #96]	; (8000f20 <main+0x1fc>)
 8000ec0:	2200      	movs	r2, #0
 8000ec2:	801a      	strh	r2, [r3, #0]
	  }

	  if(next_blank_page == (NUM_OF_PAGES*PAGE_SIZE)) {
 8000ec4:	4b1b      	ldr	r3, [pc, #108]	; (8000f34 <main+0x210>)
 8000ec6:	681b      	ldr	r3, [r3, #0]
 8000ec8:	f1b3 7f80 	cmp.w	r3, #16777216	; 0x1000000
 8000ecc:	f47f af49 	bne.w	8000d62 <main+0x3e>
		  // TODO - Error Handle if SPI1 not found
		  next_blank_page = find_next_blank_page(&hspi1, &end_of_flash, cs_spi1);
 8000ed0:	4b19      	ldr	r3, [pc, #100]	; (8000f38 <main+0x214>)
 8000ed2:	cb0c      	ldmia	r3, {r2, r3}
 8000ed4:	4914      	ldr	r1, [pc, #80]	; (8000f28 <main+0x204>)
 8000ed6:	480f      	ldr	r0, [pc, #60]	; (8000f14 <main+0x1f0>)
 8000ed8:	f7ff fdaa 	bl	8000a30 <find_next_blank_page>
 8000edc:	4603      	mov	r3, r0
 8000ede:	4a15      	ldr	r2, [pc, #84]	; (8000f34 <main+0x210>)
 8000ee0:	6013      	str	r3, [r2, #0]
	  if(rtc_reset == FLAG_SET) {
 8000ee2:	e73e      	b.n	8000d62 <main+0x3e>
 8000ee4:	2000061c 	.word	0x2000061c
 8000ee8:	20000118 	.word	0x20000118
 8000eec:	2000038a 	.word	0x2000038a
 8000ef0:	200003b4 	.word	0x200003b4
 8000ef4:	200003b5 	.word	0x200003b5
 8000ef8:	2000061e 	.word	0x2000061e
 8000efc:	200005e4 	.word	0x200005e4
 8000f00:	200003b7 	.word	0x200003b7
 8000f04:	200005dc 	.word	0x200005dc
 8000f08:	20000384 	.word	0x20000384
 8000f0c:	20000380 	.word	0x20000380
 8000f10:	20000190 	.word	0x20000190
 8000f14:	20000138 	.word	0x20000138
 8000f18:	2000061d 	.word	0x2000061d
 8000f1c:	200003b6 	.word	0x200003b6
 8000f20:	200005d8 	.word	0x200005d8
 8000f24:	20000614 	.word	0x20000614
 8000f28:	200005da 	.word	0x200005da
 8000f2c:	200005b8 	.word	0x200005b8
 8000f30:	200003b8 	.word	0x200003b8
 8000f34:	200005d4 	.word	0x200005d4
 8000f38:	200005f4 	.word	0x200005f4
 8000f3c:	20000604 	.word	0x20000604

08000f40 <SystemClock_Config>:
/**
  * @brief System Clock Configuration
  * @retval None
  */
void SystemClock_Config(void)
{
 8000f40:	b580      	push	{r7, lr}
 8000f42:	b094      	sub	sp, #80	; 0x50
 8000f44:	af00      	add	r7, sp, #0
  RCC_OscInitTypeDef RCC_OscInitStruct = {0};
 8000f46:	f107 0320 	add.w	r3, r7, #32
 8000f4a:	2230      	movs	r2, #48	; 0x30
 8000f4c:	2100      	movs	r1, #0
 8000f4e:	4618      	mov	r0, r3
 8000f50:	f008 f9cc 	bl	80092ec <memset>
  RCC_ClkInitTypeDef RCC_ClkInitStruct = {0};
 8000f54:	f107 030c 	add.w	r3, r7, #12
 8000f58:	2200      	movs	r2, #0
 8000f5a:	601a      	str	r2, [r3, #0]
 8000f5c:	605a      	str	r2, [r3, #4]
 8000f5e:	609a      	str	r2, [r3, #8]
 8000f60:	60da      	str	r2, [r3, #12]
 8000f62:	611a      	str	r2, [r3, #16]

  /** Configure the main internal regulator output voltage
  */
  __HAL_RCC_PWR_CLK_ENABLE();
 8000f64:	2300      	movs	r3, #0
 8000f66:	60bb      	str	r3, [r7, #8]
 8000f68:	4b29      	ldr	r3, [pc, #164]	; (8001010 <SystemClock_Config+0xd0>)
 8000f6a:	6c1b      	ldr	r3, [r3, #64]	; 0x40
 8000f6c:	4a28      	ldr	r2, [pc, #160]	; (8001010 <SystemClock_Config+0xd0>)
 8000f6e:	f043 5380 	orr.w	r3, r3, #268435456	; 0x10000000
 8000f72:	6413      	str	r3, [r2, #64]	; 0x40
 8000f74:	4b26      	ldr	r3, [pc, #152]	; (8001010 <SystemClock_Config+0xd0>)
 8000f76:	6c1b      	ldr	r3, [r3, #64]	; 0x40
 8000f78:	f003 5380 	and.w	r3, r3, #268435456	; 0x10000000
 8000f7c:	60bb      	str	r3, [r7, #8]
 8000f7e:	68bb      	ldr	r3, [r7, #8]
  __HAL_PWR_VOLTAGESCALING_CONFIG(PWR_REGULATOR_VOLTAGE_SCALE1);
 8000f80:	2300      	movs	r3, #0
 8000f82:	607b      	str	r3, [r7, #4]
 8000f84:	4b23      	ldr	r3, [pc, #140]	; (8001014 <SystemClock_Config+0xd4>)
 8000f86:	681b      	ldr	r3, [r3, #0]
 8000f88:	4a22      	ldr	r2, [pc, #136]	; (8001014 <SystemClock_Config+0xd4>)
 8000f8a:	f443 4340 	orr.w	r3, r3, #49152	; 0xc000
 8000f8e:	6013      	str	r3, [r2, #0]
 8000f90:	4b20      	ldr	r3, [pc, #128]	; (8001014 <SystemClock_Config+0xd4>)
 8000f92:	681b      	ldr	r3, [r3, #0]
 8000f94:	f403 4340 	and.w	r3, r3, #49152	; 0xc000
 8000f98:	607b      	str	r3, [r7, #4]
 8000f9a:	687b      	ldr	r3, [r7, #4]

  /** Initializes the RCC Oscillators according to the specified parameters
  * in the RCC_OscInitTypeDef structure.
  */
  RCC_OscInitStruct.OscillatorType = RCC_OSCILLATORTYPE_LSI|RCC_OSCILLATORTYPE_HSE;
 8000f9c:	2309      	movs	r3, #9
 8000f9e:	623b      	str	r3, [r7, #32]
  RCC_OscInitStruct.HSEState = RCC_HSE_ON;
 8000fa0:	f44f 3380 	mov.w	r3, #65536	; 0x10000
 8000fa4:	627b      	str	r3, [r7, #36]	; 0x24
  RCC_OscInitStruct.LSIState = RCC_LSI_ON;
 8000fa6:	2301      	movs	r3, #1
 8000fa8:	637b      	str	r3, [r7, #52]	; 0x34
  RCC_OscInitStruct.PLL.PLLState = RCC_PLL_ON;
 8000faa:	2302      	movs	r3, #2
 8000fac:	63bb      	str	r3, [r7, #56]	; 0x38
  RCC_OscInitStruct.PLL.PLLSource = RCC_PLLSOURCE_HSE;
 8000fae:	f44f 0380 	mov.w	r3, #4194304	; 0x400000
 8000fb2:	63fb      	str	r3, [r7, #60]	; 0x3c
  RCC_OscInitStruct.PLL.PLLM = 25;
 8000fb4:	2319      	movs	r3, #25
 8000fb6:	643b      	str	r3, [r7, #64]	; 0x40
  RCC_OscInitStruct.PLL.PLLN = 336;
 8000fb8:	f44f 73a8 	mov.w	r3, #336	; 0x150
 8000fbc:	647b      	str	r3, [r7, #68]	; 0x44
  RCC_OscInitStruct.PLL.PLLP = RCC_PLLP_DIV2;
 8000fbe:	2302      	movs	r3, #2
 8000fc0:	64bb      	str	r3, [r7, #72]	; 0x48
  RCC_OscInitStruct.PLL.PLLQ = 4;
 8000fc2:	2304      	movs	r3, #4
 8000fc4:	64fb      	str	r3, [r7, #76]	; 0x4c
  if (HAL_RCC_OscConfig(&RCC_OscInitStruct) != HAL_OK)
 8000fc6:	f107 0320 	add.w	r3, r7, #32
 8000fca:	4618      	mov	r0, r3
 8000fcc:	f004 fdd8 	bl	8005b80 <HAL_RCC_OscConfig>
 8000fd0:	4603      	mov	r3, r0
 8000fd2:	2b00      	cmp	r3, #0
 8000fd4:	d001      	beq.n	8000fda <SystemClock_Config+0x9a>
  {
    Error_Handler();
 8000fd6:	f000 fea3 	bl	8001d20 <Error_Handler>
  }

  /** Initializes the CPU, AHB and APB buses clocks
  */
  RCC_ClkInitStruct.ClockType = RCC_CLOCKTYPE_HCLK|RCC_CLOCKTYPE_SYSCLK
 8000fda:	230f      	movs	r3, #15
 8000fdc:	60fb      	str	r3, [r7, #12]
                              |RCC_CLOCKTYPE_PCLK1|RCC_CLOCKTYPE_PCLK2;
  RCC_ClkInitStruct.SYSCLKSource = RCC_SYSCLKSOURCE_PLLCLK;
 8000fde:	2302      	movs	r3, #2
 8000fe0:	613b      	str	r3, [r7, #16]
  RCC_ClkInitStruct.AHBCLKDivider = RCC_SYSCLK_DIV1;
 8000fe2:	2300      	movs	r3, #0
 8000fe4:	617b      	str	r3, [r7, #20]
  RCC_ClkInitStruct.APB1CLKDivider = RCC_HCLK_DIV4;
 8000fe6:	f44f 53a0 	mov.w	r3, #5120	; 0x1400
 8000fea:	61bb      	str	r3, [r7, #24]
  RCC_ClkInitStruct.APB2CLKDivider = RCC_HCLK_DIV2;
 8000fec:	f44f 5380 	mov.w	r3, #4096	; 0x1000
 8000ff0:	61fb      	str	r3, [r7, #28]

  if (HAL_RCC_ClockConfig(&RCC_ClkInitStruct, FLASH_LATENCY_5) != HAL_OK)
 8000ff2:	f107 030c 	add.w	r3, r7, #12
 8000ff6:	2105      	movs	r1, #5
 8000ff8:	4618      	mov	r0, r3
 8000ffa:	f005 f839 	bl	8006070 <HAL_RCC_ClockConfig>
 8000ffe:	4603      	mov	r3, r0
 8001000:	2b00      	cmp	r3, #0
 8001002:	d001      	beq.n	8001008 <SystemClock_Config+0xc8>
  {
    Error_Handler();
 8001004:	f000 fe8c 	bl	8001d20 <Error_Handler>
  }
}
 8001008:	bf00      	nop
 800100a:	3750      	adds	r7, #80	; 0x50
 800100c:	46bd      	mov	sp, r7
 800100e:	bd80      	pop	{r7, pc}
 8001010:	40023800 	.word	0x40023800
 8001014:	40007000 	.word	0x40007000

08001018 <MX_CAN2_Init>:
  * @brief CAN2 Initialization Function
  * @param None
  * @retval None
  */
static void MX_CAN2_Init(void)
{
 8001018:	b580      	push	{r7, lr}
 800101a:	af00      	add	r7, sp, #0
  /* USER CODE END CAN2_Init 0 */

  /* USER CODE BEGIN CAN2_Init 1 */

  /* USER CODE END CAN2_Init 1 */
  hcan2.Instance = CAN2;
 800101c:	4b18      	ldr	r3, [pc, #96]	; (8001080 <MX_CAN2_Init+0x68>)
 800101e:	4a19      	ldr	r2, [pc, #100]	; (8001084 <MX_CAN2_Init+0x6c>)
 8001020:	601a      	str	r2, [r3, #0]
  hcan2.Init.Prescaler = 24;
 8001022:	4b17      	ldr	r3, [pc, #92]	; (8001080 <MX_CAN2_Init+0x68>)
 8001024:	2218      	movs	r2, #24
 8001026:	605a      	str	r2, [r3, #4]
  hcan2.Init.Mode = CAN_MODE_NORMAL;
 8001028:	4b15      	ldr	r3, [pc, #84]	; (8001080 <MX_CAN2_Init+0x68>)
 800102a:	2200      	movs	r2, #0
 800102c:	609a      	str	r2, [r3, #8]
  hcan2.Init.SyncJumpWidth = CAN_SJW_2TQ;
 800102e:	4b14      	ldr	r3, [pc, #80]	; (8001080 <MX_CAN2_Init+0x68>)
 8001030:	f04f 7280 	mov.w	r2, #16777216	; 0x1000000
 8001034:	60da      	str	r2, [r3, #12]
  hcan2.Init.TimeSeg1 = CAN_BS1_11TQ;
 8001036:	4b12      	ldr	r3, [pc, #72]	; (8001080 <MX_CAN2_Init+0x68>)
 8001038:	f44f 2220 	mov.w	r2, #655360	; 0xa0000
 800103c:	611a      	str	r2, [r3, #16]
  hcan2.Init.TimeSeg2 = CAN_BS2_2TQ;
 800103e:	4b10      	ldr	r3, [pc, #64]	; (8001080 <MX_CAN2_Init+0x68>)
 8001040:	f44f 1280 	mov.w	r2, #1048576	; 0x100000
 8001044:	615a      	str	r2, [r3, #20]
  hcan2.Init.TimeTriggeredMode = DISABLE;
 8001046:	4b0e      	ldr	r3, [pc, #56]	; (8001080 <MX_CAN2_Init+0x68>)
 8001048:	2200      	movs	r2, #0
 800104a:	761a      	strb	r2, [r3, #24]
  hcan2.Init.AutoBusOff = DISABLE;
 800104c:	4b0c      	ldr	r3, [pc, #48]	; (8001080 <MX_CAN2_Init+0x68>)
 800104e:	2200      	movs	r2, #0
 8001050:	765a      	strb	r2, [r3, #25]
  hcan2.Init.AutoWakeUp = DISABLE;
 8001052:	4b0b      	ldr	r3, [pc, #44]	; (8001080 <MX_CAN2_Init+0x68>)
 8001054:	2200      	movs	r2, #0
 8001056:	769a      	strb	r2, [r3, #26]
  hcan2.Init.AutoRetransmission = DISABLE;
 8001058:	4b09      	ldr	r3, [pc, #36]	; (8001080 <MX_CAN2_Init+0x68>)
 800105a:	2200      	movs	r2, #0
 800105c:	76da      	strb	r2, [r3, #27]
  hcan2.Init.ReceiveFifoLocked = DISABLE;
 800105e:	4b08      	ldr	r3, [pc, #32]	; (8001080 <MX_CAN2_Init+0x68>)
 8001060:	2200      	movs	r2, #0
 8001062:	771a      	strb	r2, [r3, #28]
  hcan2.Init.TransmitFifoPriority = DISABLE;
 8001064:	4b06      	ldr	r3, [pc, #24]	; (8001080 <MX_CAN2_Init+0x68>)
 8001066:	2200      	movs	r2, #0
 8001068:	775a      	strb	r2, [r3, #29]
  if (HAL_CAN_Init(&hcan2) != HAL_OK)
 800106a:	4805      	ldr	r0, [pc, #20]	; (8001080 <MX_CAN2_Init+0x68>)
 800106c:	f001 ff9e 	bl	8002fac <HAL_CAN_Init>
 8001070:	4603      	mov	r3, r0
 8001072:	2b00      	cmp	r3, #0
 8001074:	d001      	beq.n	800107a <MX_CAN2_Init+0x62>
  {
    Error_Handler();
 8001076:	f000 fe53 	bl	8001d20 <Error_Handler>
  }
  /* USER CODE BEGIN CAN2_Init 2 */

  /* USER CODE END CAN2_Init 2 */

}
 800107a:	bf00      	nop
 800107c:	bd80      	pop	{r7, pc}
 800107e:	bf00      	nop
 8001080:	20000048 	.word	0x20000048
 8001084:	40006800 	.word	0x40006800

08001088 <MX_I2C1_Init>:
  * @brief I2C1 Initialization Function
  * @param None
  * @retval None
  */
static void MX_I2C1_Init(void)
{
 8001088:	b580      	push	{r7, lr}
 800108a:	af00      	add	r7, sp, #0
  /* USER CODE END I2C1_Init 0 */

  /* USER CODE BEGIN I2C1_Init 1 */

  /* USER CODE END I2C1_Init 1 */
  hi2c1.Instance = I2C1;
 800108c:	4b1b      	ldr	r3, [pc, #108]	; (80010fc <MX_I2C1_Init+0x74>)
 800108e:	4a1c      	ldr	r2, [pc, #112]	; (8001100 <MX_I2C1_Init+0x78>)
 8001090:	601a      	str	r2, [r3, #0]
  hi2c1.Init.ClockSpeed = 100000;
 8001092:	4b1a      	ldr	r3, [pc, #104]	; (80010fc <MX_I2C1_Init+0x74>)
 8001094:	4a1b      	ldr	r2, [pc, #108]	; (8001104 <MX_I2C1_Init+0x7c>)
 8001096:	605a      	str	r2, [r3, #4]
  hi2c1.Init.DutyCycle = I2C_DUTYCYCLE_2;
 8001098:	4b18      	ldr	r3, [pc, #96]	; (80010fc <MX_I2C1_Init+0x74>)
 800109a:	2200      	movs	r2, #0
 800109c:	609a      	str	r2, [r3, #8]
  hi2c1.Init.OwnAddress1 = 0;
 800109e:	4b17      	ldr	r3, [pc, #92]	; (80010fc <MX_I2C1_Init+0x74>)
 80010a0:	2200      	movs	r2, #0
 80010a2:	60da      	str	r2, [r3, #12]
  hi2c1.Init.AddressingMode = I2C_ADDRESSINGMODE_7BIT;
 80010a4:	4b15      	ldr	r3, [pc, #84]	; (80010fc <MX_I2C1_Init+0x74>)
 80010a6:	f44f 4280 	mov.w	r2, #16384	; 0x4000
 80010aa:	611a      	str	r2, [r3, #16]
  hi2c1.Init.DualAddressMode = I2C_DUALADDRESS_DISABLE;
 80010ac:	4b13      	ldr	r3, [pc, #76]	; (80010fc <MX_I2C1_Init+0x74>)
 80010ae:	2200      	movs	r2, #0
 80010b0:	615a      	str	r2, [r3, #20]
  hi2c1.Init.OwnAddress2 = 0;
 80010b2:	4b12      	ldr	r3, [pc, #72]	; (80010fc <MX_I2C1_Init+0x74>)
 80010b4:	2200      	movs	r2, #0
 80010b6:	619a      	str	r2, [r3, #24]
  hi2c1.Init.GeneralCallMode = I2C_GENERALCALL_DISABLE;
 80010b8:	4b10      	ldr	r3, [pc, #64]	; (80010fc <MX_I2C1_Init+0x74>)
 80010ba:	2200      	movs	r2, #0
 80010bc:	61da      	str	r2, [r3, #28]
  hi2c1.Init.NoStretchMode = I2C_NOSTRETCH_DISABLE;
 80010be:	4b0f      	ldr	r3, [pc, #60]	; (80010fc <MX_I2C1_Init+0x74>)
 80010c0:	2200      	movs	r2, #0
 80010c2:	621a      	str	r2, [r3, #32]
  if (HAL_I2C_Init(&hi2c1) != HAL_OK)
 80010c4:	480d      	ldr	r0, [pc, #52]	; (80010fc <MX_I2C1_Init+0x74>)
 80010c6:	f003 fce5 	bl	8004a94 <HAL_I2C_Init>
 80010ca:	4603      	mov	r3, r0
 80010cc:	2b00      	cmp	r3, #0
 80010ce:	d001      	beq.n	80010d4 <MX_I2C1_Init+0x4c>
  {
    Error_Handler();
 80010d0:	f000 fe26 	bl	8001d20 <Error_Handler>
  }

  /** Configure Analogue filter
  */
  if (HAL_I2CEx_ConfigAnalogFilter(&hi2c1, I2C_ANALOGFILTER_ENABLE) != HAL_OK)
 80010d4:	2100      	movs	r1, #0
 80010d6:	4809      	ldr	r0, [pc, #36]	; (80010fc <MX_I2C1_Init+0x74>)
 80010d8:	f004 fcd6 	bl	8005a88 <HAL_I2CEx_ConfigAnalogFilter>
 80010dc:	4603      	mov	r3, r0
 80010de:	2b00      	cmp	r3, #0
 80010e0:	d001      	beq.n	80010e6 <MX_I2C1_Init+0x5e>
  {
    Error_Handler();
 80010e2:	f000 fe1d 	bl	8001d20 <Error_Handler>
  }

  /** Configure Digital filter
  */
  if (HAL_I2CEx_ConfigDigitalFilter(&hi2c1, 0) != HAL_OK)
 80010e6:	2100      	movs	r1, #0
 80010e8:	4804      	ldr	r0, [pc, #16]	; (80010fc <MX_I2C1_Init+0x74>)
 80010ea:	f004 fd09 	bl	8005b00 <HAL_I2CEx_ConfigDigitalFilter>
 80010ee:	4603      	mov	r3, r0
 80010f0:	2b00      	cmp	r3, #0
 80010f2:	d001      	beq.n	80010f8 <MX_I2C1_Init+0x70>
  {
    Error_Handler();
 80010f4:	f000 fe14 	bl	8001d20 <Error_Handler>
  }
  /* USER CODE BEGIN I2C1_Init 2 */

  /* USER CODE END I2C1_Init 2 */

}
 80010f8:	bf00      	nop
 80010fa:	bd80      	pop	{r7, pc}
 80010fc:	20000070 	.word	0x20000070
 8001100:	40005400 	.word	0x40005400
 8001104:	000186a0 	.word	0x000186a0

08001108 <MX_I2C2_Init>:
  * @brief I2C2 Initialization Function
  * @param None
  * @retval None
  */
static void MX_I2C2_Init(void)
{
 8001108:	b580      	push	{r7, lr}
 800110a:	af00      	add	r7, sp, #0
  /* USER CODE END I2C2_Init 0 */

  /* USER CODE BEGIN I2C2_Init 1 */

  /* USER CODE END I2C2_Init 1 */
  hi2c2.Instance = I2C2;
 800110c:	4b1b      	ldr	r3, [pc, #108]	; (800117c <MX_I2C2_Init+0x74>)
 800110e:	4a1c      	ldr	r2, [pc, #112]	; (8001180 <MX_I2C2_Init+0x78>)
 8001110:	601a      	str	r2, [r3, #0]
  hi2c2.Init.ClockSpeed = 100000;
 8001112:	4b1a      	ldr	r3, [pc, #104]	; (800117c <MX_I2C2_Init+0x74>)
 8001114:	4a1b      	ldr	r2, [pc, #108]	; (8001184 <MX_I2C2_Init+0x7c>)
 8001116:	605a      	str	r2, [r3, #4]
  hi2c2.Init.DutyCycle = I2C_DUTYCYCLE_2;
 8001118:	4b18      	ldr	r3, [pc, #96]	; (800117c <MX_I2C2_Init+0x74>)
 800111a:	2200      	movs	r2, #0
 800111c:	609a      	str	r2, [r3, #8]
  hi2c2.Init.OwnAddress1 = 0;
 800111e:	4b17      	ldr	r3, [pc, #92]	; (800117c <MX_I2C2_Init+0x74>)
 8001120:	2200      	movs	r2, #0
 8001122:	60da      	str	r2, [r3, #12]
  hi2c2.Init.AddressingMode = I2C_ADDRESSINGMODE_7BIT;
 8001124:	4b15      	ldr	r3, [pc, #84]	; (800117c <MX_I2C2_Init+0x74>)
 8001126:	f44f 4280 	mov.w	r2, #16384	; 0x4000
 800112a:	611a      	str	r2, [r3, #16]
  hi2c2.Init.DualAddressMode = I2C_DUALADDRESS_DISABLE;
 800112c:	4b13      	ldr	r3, [pc, #76]	; (800117c <MX_I2C2_Init+0x74>)
 800112e:	2200      	movs	r2, #0
 8001130:	615a      	str	r2, [r3, #20]
  hi2c2.Init.OwnAddress2 = 0;
 8001132:	4b12      	ldr	r3, [pc, #72]	; (800117c <MX_I2C2_Init+0x74>)
 8001134:	2200      	movs	r2, #0
 8001136:	619a      	str	r2, [r3, #24]
  hi2c2.Init.GeneralCallMode = I2C_GENERALCALL_DISABLE;
 8001138:	4b10      	ldr	r3, [pc, #64]	; (800117c <MX_I2C2_Init+0x74>)
 800113a:	2200      	movs	r2, #0
 800113c:	61da      	str	r2, [r3, #28]
  hi2c2.Init.NoStretchMode = I2C_NOSTRETCH_DISABLE;
 800113e:	4b0f      	ldr	r3, [pc, #60]	; (800117c <MX_I2C2_Init+0x74>)
 8001140:	2200      	movs	r2, #0
 8001142:	621a      	str	r2, [r3, #32]
  if (HAL_I2C_Init(&hi2c2) != HAL_OK)
 8001144:	480d      	ldr	r0, [pc, #52]	; (800117c <MX_I2C2_Init+0x74>)
 8001146:	f003 fca5 	bl	8004a94 <HAL_I2C_Init>
 800114a:	4603      	mov	r3, r0
 800114c:	2b00      	cmp	r3, #0
 800114e:	d001      	beq.n	8001154 <MX_I2C2_Init+0x4c>
  {
    Error_Handler();
 8001150:	f000 fde6 	bl	8001d20 <Error_Handler>
  }

  /** Configure Analogue filter
  */
  if (HAL_I2CEx_ConfigAnalogFilter(&hi2c2, I2C_ANALOGFILTER_ENABLE) != HAL_OK)
 8001154:	2100      	movs	r1, #0
 8001156:	4809      	ldr	r0, [pc, #36]	; (800117c <MX_I2C2_Init+0x74>)
 8001158:	f004 fc96 	bl	8005a88 <HAL_I2CEx_ConfigAnalogFilter>
 800115c:	4603      	mov	r3, r0
 800115e:	2b00      	cmp	r3, #0
 8001160:	d001      	beq.n	8001166 <MX_I2C2_Init+0x5e>
  {
    Error_Handler();
 8001162:	f000 fddd 	bl	8001d20 <Error_Handler>
  }

  /** Configure Digital filter
  */
  if (HAL_I2CEx_ConfigDigitalFilter(&hi2c2, 0) != HAL_OK)
 8001166:	2100      	movs	r1, #0
 8001168:	4804      	ldr	r0, [pc, #16]	; (800117c <MX_I2C2_Init+0x74>)
 800116a:	f004 fcc9 	bl	8005b00 <HAL_I2CEx_ConfigDigitalFilter>
 800116e:	4603      	mov	r3, r0
 8001170:	2b00      	cmp	r3, #0
 8001172:	d001      	beq.n	8001178 <MX_I2C2_Init+0x70>
  {
    Error_Handler();
 8001174:	f000 fdd4 	bl	8001d20 <Error_Handler>
  }
  /* USER CODE BEGIN I2C2_Init 2 */

  /* USER CODE END I2C2_Init 2 */

}
 8001178:	bf00      	nop
 800117a:	bd80      	pop	{r7, pc}
 800117c:	200000c4 	.word	0x200000c4
 8001180:	40005800 	.word	0x40005800
 8001184:	000186a0 	.word	0x000186a0

08001188 <MX_RTC_Init>:
  * @brief RTC Initialization Function
  * @param None
  * @retval None
  */
static void MX_RTC_Init(void)
{
 8001188:	b580      	push	{r7, lr}
 800118a:	af00      	add	r7, sp, #0

  /* USER CODE END RTC_Init 1 */

  /** Initialize RTC Only
  */
  hrtc.Instance = RTC;
 800118c:	4b0f      	ldr	r3, [pc, #60]	; (80011cc <MX_RTC_Init+0x44>)
 800118e:	4a10      	ldr	r2, [pc, #64]	; (80011d0 <MX_RTC_Init+0x48>)
 8001190:	601a      	str	r2, [r3, #0]
  hrtc.Init.HourFormat = RTC_HOURFORMAT_24;
 8001192:	4b0e      	ldr	r3, [pc, #56]	; (80011cc <MX_RTC_Init+0x44>)
 8001194:	2200      	movs	r2, #0
 8001196:	605a      	str	r2, [r3, #4]
  hrtc.Init.AsynchPrediv = 127;
 8001198:	4b0c      	ldr	r3, [pc, #48]	; (80011cc <MX_RTC_Init+0x44>)
 800119a:	227f      	movs	r2, #127	; 0x7f
 800119c:	609a      	str	r2, [r3, #8]
  hrtc.Init.SynchPrediv = 255;
 800119e:	4b0b      	ldr	r3, [pc, #44]	; (80011cc <MX_RTC_Init+0x44>)
 80011a0:	22ff      	movs	r2, #255	; 0xff
 80011a2:	60da      	str	r2, [r3, #12]
  hrtc.Init.OutPut = RTC_OUTPUT_DISABLE;
 80011a4:	4b09      	ldr	r3, [pc, #36]	; (80011cc <MX_RTC_Init+0x44>)
 80011a6:	2200      	movs	r2, #0
 80011a8:	611a      	str	r2, [r3, #16]
  hrtc.Init.OutPutPolarity = RTC_OUTPUT_POLARITY_HIGH;
 80011aa:	4b08      	ldr	r3, [pc, #32]	; (80011cc <MX_RTC_Init+0x44>)
 80011ac:	2200      	movs	r2, #0
 80011ae:	615a      	str	r2, [r3, #20]
  hrtc.Init.OutPutType = RTC_OUTPUT_TYPE_OPENDRAIN;
 80011b0:	4b06      	ldr	r3, [pc, #24]	; (80011cc <MX_RTC_Init+0x44>)
 80011b2:	2200      	movs	r2, #0
 80011b4:	619a      	str	r2, [r3, #24]
  if (HAL_RTC_Init(&hrtc) != HAL_OK)
 80011b6:	4805      	ldr	r0, [pc, #20]	; (80011cc <MX_RTC_Init+0x44>)
 80011b8:	f005 fafa 	bl	80067b0 <HAL_RTC_Init>
 80011bc:	4603      	mov	r3, r0
 80011be:	2b00      	cmp	r3, #0
 80011c0:	d001      	beq.n	80011c6 <MX_RTC_Init+0x3e>
  {
    Error_Handler();
 80011c2:	f000 fdad 	bl	8001d20 <Error_Handler>
  }
  /* USER CODE BEGIN RTC_Init 2 */

  /* USER CODE END RTC_Init 2 */

}
 80011c6:	bf00      	nop
 80011c8:	bd80      	pop	{r7, pc}
 80011ca:	bf00      	nop
 80011cc:	20000118 	.word	0x20000118
 80011d0:	40002800 	.word	0x40002800

080011d4 <MX_SPI1_Init>:
  * @brief SPI1 Initialization Function
  * @param None
  * @retval None
  */
static void MX_SPI1_Init(void)
{
 80011d4:	b580      	push	{r7, lr}
 80011d6:	af00      	add	r7, sp, #0

  /* USER CODE BEGIN SPI1_Init 1 */

  /* USER CODE END SPI1_Init 1 */
  /* SPI1 parameter configuration*/
  hspi1.Instance = SPI1;
 80011d8:	4b17      	ldr	r3, [pc, #92]	; (8001238 <MX_SPI1_Init+0x64>)
 80011da:	4a18      	ldr	r2, [pc, #96]	; (800123c <MX_SPI1_Init+0x68>)
 80011dc:	601a      	str	r2, [r3, #0]
  hspi1.Init.Mode = SPI_MODE_MASTER;
 80011de:	4b16      	ldr	r3, [pc, #88]	; (8001238 <MX_SPI1_Init+0x64>)
 80011e0:	f44f 7282 	mov.w	r2, #260	; 0x104
 80011e4:	605a      	str	r2, [r3, #4]
  hspi1.Init.Direction = SPI_DIRECTION_2LINES;
 80011e6:	4b14      	ldr	r3, [pc, #80]	; (8001238 <MX_SPI1_Init+0x64>)
 80011e8:	2200      	movs	r2, #0
 80011ea:	609a      	str	r2, [r3, #8]
  hspi1.Init.DataSize = SPI_DATASIZE_8BIT;
 80011ec:	4b12      	ldr	r3, [pc, #72]	; (8001238 <MX_SPI1_Init+0x64>)
 80011ee:	2200      	movs	r2, #0
 80011f0:	60da      	str	r2, [r3, #12]
  hspi1.Init.CLKPolarity = SPI_POLARITY_LOW;
 80011f2:	4b11      	ldr	r3, [pc, #68]	; (8001238 <MX_SPI1_Init+0x64>)
 80011f4:	2200      	movs	r2, #0
 80011f6:	611a      	str	r2, [r3, #16]
  hspi1.Init.CLKPhase = SPI_PHASE_1EDGE;
 80011f8:	4b0f      	ldr	r3, [pc, #60]	; (8001238 <MX_SPI1_Init+0x64>)
 80011fa:	2200      	movs	r2, #0
 80011fc:	615a      	str	r2, [r3, #20]
  hspi1.Init.NSS = SPI_NSS_SOFT;
 80011fe:	4b0e      	ldr	r3, [pc, #56]	; (8001238 <MX_SPI1_Init+0x64>)
 8001200:	f44f 7200 	mov.w	r2, #512	; 0x200
 8001204:	619a      	str	r2, [r3, #24]
  hspi1.Init.BaudRatePrescaler = SPI_BAUDRATEPRESCALER_2;
 8001206:	4b0c      	ldr	r3, [pc, #48]	; (8001238 <MX_SPI1_Init+0x64>)
 8001208:	2200      	movs	r2, #0
 800120a:	61da      	str	r2, [r3, #28]
  hspi1.Init.FirstBit = SPI_FIRSTBIT_MSB;
 800120c:	4b0a      	ldr	r3, [pc, #40]	; (8001238 <MX_SPI1_Init+0x64>)
 800120e:	2200      	movs	r2, #0
 8001210:	621a      	str	r2, [r3, #32]
  hspi1.Init.TIMode = SPI_TIMODE_DISABLE;
 8001212:	4b09      	ldr	r3, [pc, #36]	; (8001238 <MX_SPI1_Init+0x64>)
 8001214:	2200      	movs	r2, #0
 8001216:	625a      	str	r2, [r3, #36]	; 0x24
  hspi1.Init.CRCCalculation = SPI_CRCCALCULATION_DISABLE;
 8001218:	4b07      	ldr	r3, [pc, #28]	; (8001238 <MX_SPI1_Init+0x64>)
 800121a:	2200      	movs	r2, #0
 800121c:	629a      	str	r2, [r3, #40]	; 0x28
  hspi1.Init.CRCPolynomial = 10;
 800121e:	4b06      	ldr	r3, [pc, #24]	; (8001238 <MX_SPI1_Init+0x64>)
 8001220:	220a      	movs	r2, #10
 8001222:	62da      	str	r2, [r3, #44]	; 0x2c
  if (HAL_SPI_Init(&hspi1) != HAL_OK)
 8001224:	4804      	ldr	r0, [pc, #16]	; (8001238 <MX_SPI1_Init+0x64>)
 8001226:	f005 fdcf 	bl	8006dc8 <HAL_SPI_Init>
 800122a:	4603      	mov	r3, r0
 800122c:	2b00      	cmp	r3, #0
 800122e:	d001      	beq.n	8001234 <MX_SPI1_Init+0x60>
  {
    Error_Handler();
 8001230:	f000 fd76 	bl	8001d20 <Error_Handler>
  }
  /* USER CODE BEGIN SPI1_Init 2 */

  /* USER CODE END SPI1_Init 2 */

}
 8001234:	bf00      	nop
 8001236:	bd80      	pop	{r7, pc}
 8001238:	20000138 	.word	0x20000138
 800123c:	40013000 	.word	0x40013000

08001240 <MX_SPI2_Init>:
  * @brief SPI2 Initialization Function
  * @param None
  * @retval None
  */
static void MX_SPI2_Init(void)
{
 8001240:	b580      	push	{r7, lr}
 8001242:	af00      	add	r7, sp, #0

  /* USER CODE BEGIN SPI2_Init 1 */

  /* USER CODE END SPI2_Init 1 */
  /* SPI2 parameter configuration*/
  hspi2.Instance = SPI2;
 8001244:	4b17      	ldr	r3, [pc, #92]	; (80012a4 <MX_SPI2_Init+0x64>)
 8001246:	4a18      	ldr	r2, [pc, #96]	; (80012a8 <MX_SPI2_Init+0x68>)
 8001248:	601a      	str	r2, [r3, #0]
  hspi2.Init.Mode = SPI_MODE_MASTER;
 800124a:	4b16      	ldr	r3, [pc, #88]	; (80012a4 <MX_SPI2_Init+0x64>)
 800124c:	f44f 7282 	mov.w	r2, #260	; 0x104
 8001250:	605a      	str	r2, [r3, #4]
  hspi2.Init.Direction = SPI_DIRECTION_2LINES;
 8001252:	4b14      	ldr	r3, [pc, #80]	; (80012a4 <MX_SPI2_Init+0x64>)
 8001254:	2200      	movs	r2, #0
 8001256:	609a      	str	r2, [r3, #8]
  hspi2.Init.DataSize = SPI_DATASIZE_8BIT;
 8001258:	4b12      	ldr	r3, [pc, #72]	; (80012a4 <MX_SPI2_Init+0x64>)
 800125a:	2200      	movs	r2, #0
 800125c:	60da      	str	r2, [r3, #12]
  hspi2.Init.CLKPolarity = SPI_POLARITY_LOW;
 800125e:	4b11      	ldr	r3, [pc, #68]	; (80012a4 <MX_SPI2_Init+0x64>)
 8001260:	2200      	movs	r2, #0
 8001262:	611a      	str	r2, [r3, #16]
  hspi2.Init.CLKPhase = SPI_PHASE_1EDGE;
 8001264:	4b0f      	ldr	r3, [pc, #60]	; (80012a4 <MX_SPI2_Init+0x64>)
 8001266:	2200      	movs	r2, #0
 8001268:	615a      	str	r2, [r3, #20]
  hspi2.Init.NSS = SPI_NSS_SOFT;
 800126a:	4b0e      	ldr	r3, [pc, #56]	; (80012a4 <MX_SPI2_Init+0x64>)
 800126c:	f44f 7200 	mov.w	r2, #512	; 0x200
 8001270:	619a      	str	r2, [r3, #24]
  hspi2.Init.BaudRatePrescaler = SPI_BAUDRATEPRESCALER_2;
 8001272:	4b0c      	ldr	r3, [pc, #48]	; (80012a4 <MX_SPI2_Init+0x64>)
 8001274:	2200      	movs	r2, #0
 8001276:	61da      	str	r2, [r3, #28]
  hspi2.Init.FirstBit = SPI_FIRSTBIT_MSB;
 8001278:	4b0a      	ldr	r3, [pc, #40]	; (80012a4 <MX_SPI2_Init+0x64>)
 800127a:	2200      	movs	r2, #0
 800127c:	621a      	str	r2, [r3, #32]
  hspi2.Init.TIMode = SPI_TIMODE_DISABLE;
 800127e:	4b09      	ldr	r3, [pc, #36]	; (80012a4 <MX_SPI2_Init+0x64>)
 8001280:	2200      	movs	r2, #0
 8001282:	625a      	str	r2, [r3, #36]	; 0x24
  hspi2.Init.CRCCalculation = SPI_CRCCALCULATION_DISABLE;
 8001284:	4b07      	ldr	r3, [pc, #28]	; (80012a4 <MX_SPI2_Init+0x64>)
 8001286:	2200      	movs	r2, #0
 8001288:	629a      	str	r2, [r3, #40]	; 0x28
  hspi2.Init.CRCPolynomial = 10;
 800128a:	4b06      	ldr	r3, [pc, #24]	; (80012a4 <MX_SPI2_Init+0x64>)
 800128c:	220a      	movs	r2, #10
 800128e:	62da      	str	r2, [r3, #44]	; 0x2c
  if (HAL_SPI_Init(&hspi2) != HAL_OK)
 8001290:	4804      	ldr	r0, [pc, #16]	; (80012a4 <MX_SPI2_Init+0x64>)
 8001292:	f005 fd99 	bl	8006dc8 <HAL_SPI_Init>
 8001296:	4603      	mov	r3, r0
 8001298:	2b00      	cmp	r3, #0
 800129a:	d001      	beq.n	80012a0 <MX_SPI2_Init+0x60>
  {
    Error_Handler();
 800129c:	f000 fd40 	bl	8001d20 <Error_Handler>
  }
  /* USER CODE BEGIN SPI2_Init 2 */

  /* USER CODE END SPI2_Init 2 */

}
 80012a0:	bf00      	nop
 80012a2:	bd80      	pop	{r7, pc}
 80012a4:	20000190 	.word	0x20000190
 80012a8:	40003800 	.word	0x40003800

080012ac <MX_TIM6_Init>:
  * @brief TIM6 Initialization Function
  * @param None
  * @retval None
  */
static void MX_TIM6_Init(void)
{
 80012ac:	b580      	push	{r7, lr}
 80012ae:	b082      	sub	sp, #8
 80012b0:	af00      	add	r7, sp, #0

  /* USER CODE BEGIN TIM6_Init 0 */

  /* USER CODE END TIM6_Init 0 */

  TIM_MasterConfigTypeDef sMasterConfig = {0};
 80012b2:	463b      	mov	r3, r7
 80012b4:	2200      	movs	r2, #0
 80012b6:	601a      	str	r2, [r3, #0]
 80012b8:	605a      	str	r2, [r3, #4]

  /* USER CODE BEGIN TIM6_Init 1 */

  /* USER CODE END TIM6_Init 1 */
  htim6.Instance = TIM6;
 80012ba:	4b15      	ldr	r3, [pc, #84]	; (8001310 <MX_TIM6_Init+0x64>)
 80012bc:	4a15      	ldr	r2, [pc, #84]	; (8001314 <MX_TIM6_Init+0x68>)
 80012be:	601a      	str	r2, [r3, #0]
  htim6.Init.Prescaler = 20999;
 80012c0:	4b13      	ldr	r3, [pc, #76]	; (8001310 <MX_TIM6_Init+0x64>)
 80012c2:	f245 2207 	movw	r2, #20999	; 0x5207
 80012c6:	605a      	str	r2, [r3, #4]
  htim6.Init.CounterMode = TIM_COUNTERMODE_UP;
 80012c8:	4b11      	ldr	r3, [pc, #68]	; (8001310 <MX_TIM6_Init+0x64>)
 80012ca:	2200      	movs	r2, #0
 80012cc:	609a      	str	r2, [r3, #8]
  htim6.Init.Period = 80;
 80012ce:	4b10      	ldr	r3, [pc, #64]	; (8001310 <MX_TIM6_Init+0x64>)
 80012d0:	2250      	movs	r2, #80	; 0x50
 80012d2:	60da      	str	r2, [r3, #12]
  htim6.Init.AutoReloadPreload = TIM_AUTORELOAD_PRELOAD_DISABLE;
 80012d4:	4b0e      	ldr	r3, [pc, #56]	; (8001310 <MX_TIM6_Init+0x64>)
 80012d6:	2200      	movs	r2, #0
 80012d8:	619a      	str	r2, [r3, #24]
  if (HAL_TIM_Base_Init(&htim6) != HAL_OK)
 80012da:	480d      	ldr	r0, [pc, #52]	; (8001310 <MX_TIM6_Init+0x64>)
 80012dc:	f006 fc92 	bl	8007c04 <HAL_TIM_Base_Init>
 80012e0:	4603      	mov	r3, r0
 80012e2:	2b00      	cmp	r3, #0
 80012e4:	d001      	beq.n	80012ea <MX_TIM6_Init+0x3e>
  {
    Error_Handler();
 80012e6:	f000 fd1b 	bl	8001d20 <Error_Handler>
  }
  sMasterConfig.MasterOutputTrigger = TIM_TRGO_RESET;
 80012ea:	2300      	movs	r3, #0
 80012ec:	603b      	str	r3, [r7, #0]
  sMasterConfig.MasterSlaveMode = TIM_MASTERSLAVEMODE_DISABLE;
 80012ee:	2300      	movs	r3, #0
 80012f0:	607b      	str	r3, [r7, #4]
  if (HAL_TIMEx_MasterConfigSynchronization(&htim6, &sMasterConfig) != HAL_OK)
 80012f2:	463b      	mov	r3, r7
 80012f4:	4619      	mov	r1, r3
 80012f6:	4806      	ldr	r0, [pc, #24]	; (8001310 <MX_TIM6_Init+0x64>)
 80012f8:	f006 ff12 	bl	8008120 <HAL_TIMEx_MasterConfigSynchronization>
 80012fc:	4603      	mov	r3, r0
 80012fe:	2b00      	cmp	r3, #0
 8001300:	d001      	beq.n	8001306 <MX_TIM6_Init+0x5a>
  {
    Error_Handler();
 8001302:	f000 fd0d 	bl	8001d20 <Error_Handler>
  }
  /* USER CODE BEGIN TIM6_Init 2 */

  /* USER CODE END TIM6_Init 2 */

}
 8001306:	bf00      	nop
 8001308:	3708      	adds	r7, #8
 800130a:	46bd      	mov	sp, r7
 800130c:	bd80      	pop	{r7, pc}
 800130e:	bf00      	nop
 8001310:	200002a8 	.word	0x200002a8
 8001314:	40001000 	.word	0x40001000

08001318 <MX_TIM7_Init>:
  * @brief TIM7 Initialization Function
  * @param None
  * @retval None
  */
static void MX_TIM7_Init(void)
{
 8001318:	b580      	push	{r7, lr}
 800131a:	b082      	sub	sp, #8
 800131c:	af00      	add	r7, sp, #0

  /* USER CODE BEGIN TIM7_Init 0 */

  /* USER CODE END TIM7_Init 0 */

  TIM_MasterConfigTypeDef sMasterConfig = {0};
 800131e:	463b      	mov	r3, r7
 8001320:	2200      	movs	r2, #0
 8001322:	601a      	str	r2, [r3, #0]
 8001324:	605a      	str	r2, [r3, #4]

  /* USER CODE BEGIN TIM7_Init 1 */

  /* USER CODE END TIM7_Init 1 */
  htim7.Instance = TIM7;
 8001326:	4b15      	ldr	r3, [pc, #84]	; (800137c <MX_TIM7_Init+0x64>)
 8001328:	4a15      	ldr	r2, [pc, #84]	; (8001380 <MX_TIM7_Init+0x68>)
 800132a:	601a      	str	r2, [r3, #0]
  htim7.Init.Prescaler = 20999;
 800132c:	4b13      	ldr	r3, [pc, #76]	; (800137c <MX_TIM7_Init+0x64>)
 800132e:	f245 2207 	movw	r2, #20999	; 0x5207
 8001332:	605a      	str	r2, [r3, #4]
  htim7.Init.CounterMode = TIM_COUNTERMODE_UP;
 8001334:	4b11      	ldr	r3, [pc, #68]	; (800137c <MX_TIM7_Init+0x64>)
 8001336:	2200      	movs	r2, #0
 8001338:	609a      	str	r2, [r3, #8]
  htim7.Init.Period = 4000;
 800133a:	4b10      	ldr	r3, [pc, #64]	; (800137c <MX_TIM7_Init+0x64>)
 800133c:	f44f 627a 	mov.w	r2, #4000	; 0xfa0
 8001340:	60da      	str	r2, [r3, #12]
  htim7.Init.AutoReloadPreload = TIM_AUTORELOAD_PRELOAD_DISABLE;
 8001342:	4b0e      	ldr	r3, [pc, #56]	; (800137c <MX_TIM7_Init+0x64>)
 8001344:	2200      	movs	r2, #0
 8001346:	619a      	str	r2, [r3, #24]
  if (HAL_TIM_Base_Init(&htim7) != HAL_OK)
 8001348:	480c      	ldr	r0, [pc, #48]	; (800137c <MX_TIM7_Init+0x64>)
 800134a:	f006 fc5b 	bl	8007c04 <HAL_TIM_Base_Init>
 800134e:	4603      	mov	r3, r0
 8001350:	2b00      	cmp	r3, #0
 8001352:	d001      	beq.n	8001358 <MX_TIM7_Init+0x40>
  {
    Error_Handler();
 8001354:	f000 fce4 	bl	8001d20 <Error_Handler>
  }
  sMasterConfig.MasterOutputTrigger = TIM_TRGO_RESET;
 8001358:	2300      	movs	r3, #0
 800135a:	603b      	str	r3, [r7, #0]
  sMasterConfig.MasterSlaveMode = TIM_MASTERSLAVEMODE_DISABLE;
 800135c:	2300      	movs	r3, #0
 800135e:	607b      	str	r3, [r7, #4]
  if (HAL_TIMEx_MasterConfigSynchronization(&htim7, &sMasterConfig) != HAL_OK)
 8001360:	463b      	mov	r3, r7
 8001362:	4619      	mov	r1, r3
 8001364:	4805      	ldr	r0, [pc, #20]	; (800137c <MX_TIM7_Init+0x64>)
 8001366:	f006 fedb 	bl	8008120 <HAL_TIMEx_MasterConfigSynchronization>
 800136a:	4603      	mov	r3, r0
 800136c:	2b00      	cmp	r3, #0
 800136e:	d001      	beq.n	8001374 <MX_TIM7_Init+0x5c>
  {
    Error_Handler();
 8001370:	f000 fcd6 	bl	8001d20 <Error_Handler>
  }
  /* USER CODE BEGIN TIM7_Init 2 */

  /* USER CODE END TIM7_Init 2 */

}
 8001374:	bf00      	nop
 8001376:	3708      	adds	r7, #8
 8001378:	46bd      	mov	sp, r7
 800137a:	bd80      	pop	{r7, pc}
 800137c:	200002f0 	.word	0x200002f0
 8001380:	40001400 	.word	0x40001400

08001384 <MX_USART2_UART_Init>:
  * @brief USART2 Initialization Function
  * @param None
  * @retval None
  */
static void MX_USART2_UART_Init(void)
{
 8001384:	b580      	push	{r7, lr}
 8001386:	af00      	add	r7, sp, #0
  /* USER CODE END USART2_Init 0 */

  /* USER CODE BEGIN USART2_Init 1 */

  /* USER CODE END USART2_Init 1 */
  huart2.Instance = USART2;
 8001388:	4b11      	ldr	r3, [pc, #68]	; (80013d0 <MX_USART2_UART_Init+0x4c>)
 800138a:	4a12      	ldr	r2, [pc, #72]	; (80013d4 <MX_USART2_UART_Init+0x50>)
 800138c:	601a      	str	r2, [r3, #0]
  huart2.Init.BaudRate = 115200;
 800138e:	4b10      	ldr	r3, [pc, #64]	; (80013d0 <MX_USART2_UART_Init+0x4c>)
 8001390:	f44f 32e1 	mov.w	r2, #115200	; 0x1c200
 8001394:	605a      	str	r2, [r3, #4]
  huart2.Init.WordLength = UART_WORDLENGTH_8B;
 8001396:	4b0e      	ldr	r3, [pc, #56]	; (80013d0 <MX_USART2_UART_Init+0x4c>)
 8001398:	2200      	movs	r2, #0
 800139a:	609a      	str	r2, [r3, #8]
  huart2.Init.StopBits = UART_STOPBITS_1;
 800139c:	4b0c      	ldr	r3, [pc, #48]	; (80013d0 <MX_USART2_UART_Init+0x4c>)
 800139e:	2200      	movs	r2, #0
 80013a0:	60da      	str	r2, [r3, #12]
  huart2.Init.Parity = UART_PARITY_NONE;
 80013a2:	4b0b      	ldr	r3, [pc, #44]	; (80013d0 <MX_USART2_UART_Init+0x4c>)
 80013a4:	2200      	movs	r2, #0
 80013a6:	611a      	str	r2, [r3, #16]
  huart2.Init.Mode = UART_MODE_TX_RX;
 80013a8:	4b09      	ldr	r3, [pc, #36]	; (80013d0 <MX_USART2_UART_Init+0x4c>)
 80013aa:	220c      	movs	r2, #12
 80013ac:	615a      	str	r2, [r3, #20]
  huart2.Init.HwFlowCtl = UART_HWCONTROL_NONE;
 80013ae:	4b08      	ldr	r3, [pc, #32]	; (80013d0 <MX_USART2_UART_Init+0x4c>)
 80013b0:	2200      	movs	r2, #0
 80013b2:	619a      	str	r2, [r3, #24]
  huart2.Init.OverSampling = UART_OVERSAMPLING_16;
 80013b4:	4b06      	ldr	r3, [pc, #24]	; (80013d0 <MX_USART2_UART_Init+0x4c>)
 80013b6:	2200      	movs	r2, #0
 80013b8:	61da      	str	r2, [r3, #28]
  if (HAL_UART_Init(&huart2) != HAL_OK)
 80013ba:	4805      	ldr	r0, [pc, #20]	; (80013d0 <MX_USART2_UART_Init+0x4c>)
 80013bc:	f006 ff40 	bl	8008240 <HAL_UART_Init>
 80013c0:	4603      	mov	r3, r0
 80013c2:	2b00      	cmp	r3, #0
 80013c4:	d001      	beq.n	80013ca <MX_USART2_UART_Init+0x46>
  {
    Error_Handler();
 80013c6:	f000 fcab 	bl	8001d20 <Error_Handler>
  }
  /* USER CODE BEGIN USART2_Init 2 */

  /* USER CODE END USART2_Init 2 */

}
 80013ca:	bf00      	nop
 80013cc:	bd80      	pop	{r7, pc}
 80013ce:	bf00      	nop
 80013d0:	20000338 	.word	0x20000338
 80013d4:	40004400 	.word	0x40004400

080013d8 <MX_DMA_Init>:

/**
  * Enable DMA controller clock
  */
static void MX_DMA_Init(void)
{
 80013d8:	b580      	push	{r7, lr}
 80013da:	b082      	sub	sp, #8
 80013dc:	af00      	add	r7, sp, #0

  /* DMA controller clock enable */
  __HAL_RCC_DMA2_CLK_ENABLE();
 80013de:	2300      	movs	r3, #0
 80013e0:	607b      	str	r3, [r7, #4]
 80013e2:	4b17      	ldr	r3, [pc, #92]	; (8001440 <MX_DMA_Init+0x68>)
 80013e4:	6b1b      	ldr	r3, [r3, #48]	; 0x30
 80013e6:	4a16      	ldr	r2, [pc, #88]	; (8001440 <MX_DMA_Init+0x68>)
 80013e8:	f443 0380 	orr.w	r3, r3, #4194304	; 0x400000
 80013ec:	6313      	str	r3, [r2, #48]	; 0x30
 80013ee:	4b14      	ldr	r3, [pc, #80]	; (8001440 <MX_DMA_Init+0x68>)
 80013f0:	6b1b      	ldr	r3, [r3, #48]	; 0x30
 80013f2:	f403 0380 	and.w	r3, r3, #4194304	; 0x400000
 80013f6:	607b      	str	r3, [r7, #4]
 80013f8:	687b      	ldr	r3, [r7, #4]
  __HAL_RCC_DMA1_CLK_ENABLE();
 80013fa:	2300      	movs	r3, #0
 80013fc:	603b      	str	r3, [r7, #0]
 80013fe:	4b10      	ldr	r3, [pc, #64]	; (8001440 <MX_DMA_Init+0x68>)
 8001400:	6b1b      	ldr	r3, [r3, #48]	; 0x30
 8001402:	4a0f      	ldr	r2, [pc, #60]	; (8001440 <MX_DMA_Init+0x68>)
 8001404:	f443 1300 	orr.w	r3, r3, #2097152	; 0x200000
 8001408:	6313      	str	r3, [r2, #48]	; 0x30
 800140a:	4b0d      	ldr	r3, [pc, #52]	; (8001440 <MX_DMA_Init+0x68>)
 800140c:	6b1b      	ldr	r3, [r3, #48]	; 0x30
 800140e:	f403 1300 	and.w	r3, r3, #2097152	; 0x200000
 8001412:	603b      	str	r3, [r7, #0]
 8001414:	683b      	ldr	r3, [r7, #0]

  /* DMA interrupt init */
  /* DMA1_Stream4_IRQn interrupt configuration */
  HAL_NVIC_SetPriority(DMA1_Stream4_IRQn, 0, 0);
 8001416:	2200      	movs	r2, #0
 8001418:	2100      	movs	r1, #0
 800141a:	200f      	movs	r0, #15
 800141c:	f002 fd09 	bl	8003e32 <HAL_NVIC_SetPriority>
  HAL_NVIC_EnableIRQ(DMA1_Stream4_IRQn);
 8001420:	200f      	movs	r0, #15
 8001422:	f002 fd22 	bl	8003e6a <HAL_NVIC_EnableIRQ>
  /* DMA2_Stream3_IRQn interrupt configuration */
  HAL_NVIC_SetPriority(DMA2_Stream3_IRQn, 0, 0);
 8001426:	2200      	movs	r2, #0
 8001428:	2100      	movs	r1, #0
 800142a:	203b      	movs	r0, #59	; 0x3b
 800142c:	f002 fd01 	bl	8003e32 <HAL_NVIC_SetPriority>
  HAL_NVIC_EnableIRQ(DMA2_Stream3_IRQn);
 8001430:	203b      	movs	r0, #59	; 0x3b
 8001432:	f002 fd1a 	bl	8003e6a <HAL_NVIC_EnableIRQ>

}
 8001436:	bf00      	nop
 8001438:	3708      	adds	r7, #8
 800143a:	46bd      	mov	sp, r7
 800143c:	bd80      	pop	{r7, pc}
 800143e:	bf00      	nop
 8001440:	40023800 	.word	0x40023800

08001444 <MX_GPIO_Init>:
  * @brief GPIO Initialization Function
  * @param None
  * @retval None
  */
static void MX_GPIO_Init(void)
{
 8001444:	b580      	push	{r7, lr}
 8001446:	b08a      	sub	sp, #40	; 0x28
 8001448:	af00      	add	r7, sp, #0
  GPIO_InitTypeDef GPIO_InitStruct = {0};
 800144a:	f107 0314 	add.w	r3, r7, #20
 800144e:	2200      	movs	r2, #0
 8001450:	601a      	str	r2, [r3, #0]
 8001452:	605a      	str	r2, [r3, #4]
 8001454:	609a      	str	r2, [r3, #8]
 8001456:	60da      	str	r2, [r3, #12]
 8001458:	611a      	str	r2, [r3, #16]
/* USER CODE BEGIN MX_GPIO_Init_1 */
/* USER CODE END MX_GPIO_Init_1 */

  /* GPIO Ports Clock Enable */
  __HAL_RCC_GPIOC_CLK_ENABLE();
 800145a:	2300      	movs	r3, #0
 800145c:	613b      	str	r3, [r7, #16]
 800145e:	4b57      	ldr	r3, [pc, #348]	; (80015bc <MX_GPIO_Init+0x178>)
 8001460:	6b1b      	ldr	r3, [r3, #48]	; 0x30
 8001462:	4a56      	ldr	r2, [pc, #344]	; (80015bc <MX_GPIO_Init+0x178>)
 8001464:	f043 0304 	orr.w	r3, r3, #4
 8001468:	6313      	str	r3, [r2, #48]	; 0x30
 800146a:	4b54      	ldr	r3, [pc, #336]	; (80015bc <MX_GPIO_Init+0x178>)
 800146c:	6b1b      	ldr	r3, [r3, #48]	; 0x30
 800146e:	f003 0304 	and.w	r3, r3, #4
 8001472:	613b      	str	r3, [r7, #16]
 8001474:	693b      	ldr	r3, [r7, #16]
  __HAL_RCC_GPIOH_CLK_ENABLE();
 8001476:	2300      	movs	r3, #0
 8001478:	60fb      	str	r3, [r7, #12]
 800147a:	4b50      	ldr	r3, [pc, #320]	; (80015bc <MX_GPIO_Init+0x178>)
 800147c:	6b1b      	ldr	r3, [r3, #48]	; 0x30
 800147e:	4a4f      	ldr	r2, [pc, #316]	; (80015bc <MX_GPIO_Init+0x178>)
 8001480:	f043 0380 	orr.w	r3, r3, #128	; 0x80
 8001484:	6313      	str	r3, [r2, #48]	; 0x30
 8001486:	4b4d      	ldr	r3, [pc, #308]	; (80015bc <MX_GPIO_Init+0x178>)
 8001488:	6b1b      	ldr	r3, [r3, #48]	; 0x30
 800148a:	f003 0380 	and.w	r3, r3, #128	; 0x80
 800148e:	60fb      	str	r3, [r7, #12]
 8001490:	68fb      	ldr	r3, [r7, #12]
  __HAL_RCC_GPIOA_CLK_ENABLE();
 8001492:	2300      	movs	r3, #0
 8001494:	60bb      	str	r3, [r7, #8]
 8001496:	4b49      	ldr	r3, [pc, #292]	; (80015bc <MX_GPIO_Init+0x178>)
 8001498:	6b1b      	ldr	r3, [r3, #48]	; 0x30
 800149a:	4a48      	ldr	r2, [pc, #288]	; (80015bc <MX_GPIO_Init+0x178>)
 800149c:	f043 0301 	orr.w	r3, r3, #1
 80014a0:	6313      	str	r3, [r2, #48]	; 0x30
 80014a2:	4b46      	ldr	r3, [pc, #280]	; (80015bc <MX_GPIO_Init+0x178>)
 80014a4:	6b1b      	ldr	r3, [r3, #48]	; 0x30
 80014a6:	f003 0301 	and.w	r3, r3, #1
 80014aa:	60bb      	str	r3, [r7, #8]
 80014ac:	68bb      	ldr	r3, [r7, #8]
  __HAL_RCC_GPIOB_CLK_ENABLE();
 80014ae:	2300      	movs	r3, #0
 80014b0:	607b      	str	r3, [r7, #4]
 80014b2:	4b42      	ldr	r3, [pc, #264]	; (80015bc <MX_GPIO_Init+0x178>)
 80014b4:	6b1b      	ldr	r3, [r3, #48]	; 0x30
 80014b6:	4a41      	ldr	r2, [pc, #260]	; (80015bc <MX_GPIO_Init+0x178>)
 80014b8:	f043 0302 	orr.w	r3, r3, #2
 80014bc:	6313      	str	r3, [r2, #48]	; 0x30
 80014be:	4b3f      	ldr	r3, [pc, #252]	; (80015bc <MX_GPIO_Init+0x178>)
 80014c0:	6b1b      	ldr	r3, [r3, #48]	; 0x30
 80014c2:	f003 0302 	and.w	r3, r3, #2
 80014c6:	607b      	str	r3, [r7, #4]
 80014c8:	687b      	ldr	r3, [r7, #4]
  __HAL_RCC_GPIOD_CLK_ENABLE();
 80014ca:	2300      	movs	r3, #0
 80014cc:	603b      	str	r3, [r7, #0]
 80014ce:	4b3b      	ldr	r3, [pc, #236]	; (80015bc <MX_GPIO_Init+0x178>)
 80014d0:	6b1b      	ldr	r3, [r3, #48]	; 0x30
 80014d2:	4a3a      	ldr	r2, [pc, #232]	; (80015bc <MX_GPIO_Init+0x178>)
 80014d4:	f043 0308 	orr.w	r3, r3, #8
 80014d8:	6313      	str	r3, [r2, #48]	; 0x30
 80014da:	4b38      	ldr	r3, [pc, #224]	; (80015bc <MX_GPIO_Init+0x178>)
 80014dc:	6b1b      	ldr	r3, [r3, #48]	; 0x30
 80014de:	f003 0308 	and.w	r3, r3, #8
 80014e2:	603b      	str	r3, [r7, #0]
 80014e4:	683b      	ldr	r3, [r7, #0]

  /*Configure GPIO pin Output Level */
  HAL_GPIO_WritePin(GPIOC, SPI2_WP_Pin|SPI2_CS_Pin|SPI1_CS_Pin, GPIO_PIN_RESET);
 80014e6:	2200      	movs	r2, #0
 80014e8:	2113      	movs	r1, #19
 80014ea:	4835      	ldr	r0, [pc, #212]	; (80015c0 <MX_GPIO_Init+0x17c>)
 80014ec:	f003 fa9e 	bl	8004a2c <HAL_GPIO_WritePin>

  /*Configure GPIO pin Output Level */
  HAL_GPIO_WritePin(SPI1_WP_GPIO_Port, SPI1_WP_Pin, GPIO_PIN_RESET);
 80014f0:	2200      	movs	r2, #0
 80014f2:	2110      	movs	r1, #16
 80014f4:	4833      	ldr	r0, [pc, #204]	; (80015c4 <MX_GPIO_Init+0x180>)
 80014f6:	f003 fa99 	bl	8004a2c <HAL_GPIO_WritePin>

  /*Configure GPIO pin Output Level */
  HAL_GPIO_WritePin(GPIOB, LED3_Pin|LED2_Pin, GPIO_PIN_RESET);
 80014fa:	2200      	movs	r2, #0
 80014fc:	f44f 4181 	mov.w	r1, #16512	; 0x4080
 8001500:	4831      	ldr	r0, [pc, #196]	; (80015c8 <MX_GPIO_Init+0x184>)
 8001502:	f003 fa93 	bl	8004a2c <HAL_GPIO_WritePin>

  /*Configure GPIO pin : SPI2_WP_Pin */
  GPIO_InitStruct.Pin = SPI2_WP_Pin;
 8001506:	2301      	movs	r3, #1
 8001508:	617b      	str	r3, [r7, #20]
  GPIO_InitStruct.Mode = GPIO_MODE_OUTPUT_PP;
 800150a:	2301      	movs	r3, #1
 800150c:	61bb      	str	r3, [r7, #24]
  GPIO_InitStruct.Pull = GPIO_PULLUP;
 800150e:	2301      	movs	r3, #1
 8001510:	61fb      	str	r3, [r7, #28]
  GPIO_InitStruct.Speed = GPIO_SPEED_FREQ_LOW;
 8001512:	2300      	movs	r3, #0
 8001514:	623b      	str	r3, [r7, #32]
  HAL_GPIO_Init(SPI2_WP_GPIO_Port, &GPIO_InitStruct);
 8001516:	f107 0314 	add.w	r3, r7, #20
 800151a:	4619      	mov	r1, r3
 800151c:	4828      	ldr	r0, [pc, #160]	; (80015c0 <MX_GPIO_Init+0x17c>)
 800151e:	f003 f8c1 	bl	80046a4 <HAL_GPIO_Init>

  /*Configure GPIO pins : SPI2_CS_Pin SPI1_CS_Pin */
  GPIO_InitStruct.Pin = SPI2_CS_Pin|SPI1_CS_Pin;
 8001522:	2312      	movs	r3, #18
 8001524:	617b      	str	r3, [r7, #20]
  GPIO_InitStruct.Mode = GPIO_MODE_OUTPUT_PP;
 8001526:	2301      	movs	r3, #1
 8001528:	61bb      	str	r3, [r7, #24]
  GPIO_InitStruct.Pull = GPIO_NOPULL;
 800152a:	2300      	movs	r3, #0
 800152c:	61fb      	str	r3, [r7, #28]
  GPIO_InitStruct.Speed = GPIO_SPEED_FREQ_LOW;
 800152e:	2300      	movs	r3, #0
 8001530:	623b      	str	r3, [r7, #32]
  HAL_GPIO_Init(GPIOC, &GPIO_InitStruct);
 8001532:	f107 0314 	add.w	r3, r7, #20
 8001536:	4619      	mov	r1, r3
 8001538:	4821      	ldr	r0, [pc, #132]	; (80015c0 <MX_GPIO_Init+0x17c>)
 800153a:	f003 f8b3 	bl	80046a4 <HAL_GPIO_Init>

  /*Configure GPIO pin : SPI1_WP_Pin */
  GPIO_InitStruct.Pin = SPI1_WP_Pin;
 800153e:	2310      	movs	r3, #16
 8001540:	617b      	str	r3, [r7, #20]
  GPIO_InitStruct.Mode = GPIO_MODE_OUTPUT_PP;
 8001542:	2301      	movs	r3, #1
 8001544:	61bb      	str	r3, [r7, #24]
  GPIO_InitStruct.Pull = GPIO_PULLUP;
 8001546:	2301      	movs	r3, #1
 8001548:	61fb      	str	r3, [r7, #28]
  GPIO_InitStruct.Speed = GPIO_SPEED_FREQ_LOW;
 800154a:	2300      	movs	r3, #0
 800154c:	623b      	str	r3, [r7, #32]
  HAL_GPIO_Init(SPI1_WP_GPIO_Port, &GPIO_InitStruct);
 800154e:	f107 0314 	add.w	r3, r7, #20
 8001552:	4619      	mov	r1, r3
 8001554:	481b      	ldr	r0, [pc, #108]	; (80015c4 <MX_GPIO_Init+0x180>)
 8001556:	f003 f8a5 	bl	80046a4 <HAL_GPIO_Init>

  /*Configure GPIO pin : Flight_JMP_Pin */
  GPIO_InitStruct.Pin = Flight_JMP_Pin;
 800155a:	2302      	movs	r3, #2
 800155c:	617b      	str	r3, [r7, #20]
  GPIO_InitStruct.Mode = GPIO_MODE_IT_RISING;
 800155e:	f44f 1388 	mov.w	r3, #1114112	; 0x110000
 8001562:	61bb      	str	r3, [r7, #24]
  GPIO_InitStruct.Pull = GPIO_NOPULL;
 8001564:	2300      	movs	r3, #0
 8001566:	61fb      	str	r3, [r7, #28]
  HAL_GPIO_Init(Flight_JMP_GPIO_Port, &GPIO_InitStruct);
 8001568:	f107 0314 	add.w	r3, r7, #20
 800156c:	4619      	mov	r1, r3
 800156e:	4816      	ldr	r0, [pc, #88]	; (80015c8 <MX_GPIO_Init+0x184>)
 8001570:	f003 f898 	bl	80046a4 <HAL_GPIO_Init>

  /*Configure GPIO pins : LED3_Pin LED2_Pin */
  GPIO_InitStruct.Pin = LED3_Pin|LED2_Pin;
 8001574:	f44f 4381 	mov.w	r3, #16512	; 0x4080
 8001578:	617b      	str	r3, [r7, #20]
  GPIO_InitStruct.Mode = GPIO_MODE_OUTPUT_PP;
 800157a:	2301      	movs	r3, #1
 800157c:	61bb      	str	r3, [r7, #24]
  GPIO_InitStruct.Pull = GPIO_PULLDOWN;
 800157e:	2302      	movs	r3, #2
 8001580:	61fb      	str	r3, [r7, #28]
  GPIO_InitStruct.Speed = GPIO_SPEED_FREQ_LOW;
 8001582:	2300      	movs	r3, #0
 8001584:	623b      	str	r3, [r7, #32]
  HAL_GPIO_Init(GPIOB, &GPIO_InitStruct);
 8001586:	f107 0314 	add.w	r3, r7, #20
 800158a:	4619      	mov	r1, r3
 800158c:	480e      	ldr	r0, [pc, #56]	; (80015c8 <MX_GPIO_Init+0x184>)
 800158e:	f003 f889 	bl	80046a4 <HAL_GPIO_Init>

  /*Configure GPIO pins : PA11 PA12 */
  GPIO_InitStruct.Pin = GPIO_PIN_11|GPIO_PIN_12;
 8001592:	f44f 53c0 	mov.w	r3, #6144	; 0x1800
 8001596:	617b      	str	r3, [r7, #20]
  GPIO_InitStruct.Mode = GPIO_MODE_AF_PP;
 8001598:	2302      	movs	r3, #2
 800159a:	61bb      	str	r3, [r7, #24]
  GPIO_InitStruct.Pull = GPIO_NOPULL;
 800159c:	2300      	movs	r3, #0
 800159e:	61fb      	str	r3, [r7, #28]
  GPIO_InitStruct.Speed = GPIO_SPEED_FREQ_VERY_HIGH;
 80015a0:	2303      	movs	r3, #3
 80015a2:	623b      	str	r3, [r7, #32]
  GPIO_InitStruct.Alternate = GPIO_AF9_CAN1;
 80015a4:	2309      	movs	r3, #9
 80015a6:	627b      	str	r3, [r7, #36]	; 0x24
  HAL_GPIO_Init(GPIOA, &GPIO_InitStruct);
 80015a8:	f107 0314 	add.w	r3, r7, #20
 80015ac:	4619      	mov	r1, r3
 80015ae:	4805      	ldr	r0, [pc, #20]	; (80015c4 <MX_GPIO_Init+0x180>)
 80015b0:	f003 f878 	bl	80046a4 <HAL_GPIO_Init>

/* USER CODE BEGIN MX_GPIO_Init_2 */
/* USER CODE END MX_GPIO_Init_2 */
}
 80015b4:	bf00      	nop
 80015b6:	3728      	adds	r7, #40	; 0x28
 80015b8:	46bd      	mov	sp, r7
 80015ba:	bd80      	pop	{r7, pc}
 80015bc:	40023800 	.word	0x40023800
 80015c0:	40020800 	.word	0x40020800
 80015c4:	40020000 	.word	0x40020000
 80015c8:	40020400 	.word	0x40020400

080015cc <clean_data_buffer>:

/* USER CODE BEGIN 4 */
void clean_data_buffer(uint16_t array_size, uint8_t data_array[array_size]) {
 80015cc:	b480      	push	{r7}
 80015ce:	b085      	sub	sp, #20
 80015d0:	af00      	add	r7, sp, #0
 80015d2:	4603      	mov	r3, r0
 80015d4:	6039      	str	r1, [r7, #0]
 80015d6:	80fb      	strh	r3, [r7, #6]
    for (int i = 0; i < array_size; ++i) {
 80015d8:	2300      	movs	r3, #0
 80015da:	60fb      	str	r3, [r7, #12]
 80015dc:	e007      	b.n	80015ee <clean_data_buffer+0x22>
    	data_array[i] = 0xFF;  // Initialize each element to 0xFF
 80015de:	68fb      	ldr	r3, [r7, #12]
 80015e0:	683a      	ldr	r2, [r7, #0]
 80015e2:	4413      	add	r3, r2
 80015e4:	22ff      	movs	r2, #255	; 0xff
 80015e6:	701a      	strb	r2, [r3, #0]
    for (int i = 0; i < array_size; ++i) {
 80015e8:	68fb      	ldr	r3, [r7, #12]
 80015ea:	3301      	adds	r3, #1
 80015ec:	60fb      	str	r3, [r7, #12]
 80015ee:	88fb      	ldrh	r3, [r7, #6]
 80015f0:	68fa      	ldr	r2, [r7, #12]
 80015f2:	429a      	cmp	r2, r3
 80015f4:	dbf3      	blt.n	80015de <clean_data_buffer+0x12>
    }
}
 80015f6:	bf00      	nop
 80015f8:	bf00      	nop
 80015fa:	3714      	adds	r7, #20
 80015fc:	46bd      	mov	sp, r7
 80015fe:	f85d 7b04 	ldr.w	r7, [sp], #4
 8001602:	4770      	bx	lr

08001604 <systemInit>:

void systemInit() {
 8001604:	b580      	push	{r7, lr}
 8001606:	b084      	sub	sp, #16
 8001608:	af00      	add	r7, sp, #0
	i2c_accel = &hi2c2;
 800160a:	4b67      	ldr	r3, [pc, #412]	; (80017a8 <systemInit+0x1a4>)
 800160c:	4a67      	ldr	r2, [pc, #412]	; (80017ac <systemInit+0x1a8>)
 800160e:	601a      	str	r2, [r3, #0]
	i2c_bme280 = &hi2c1;
 8001610:	4b67      	ldr	r3, [pc, #412]	; (80017b0 <systemInit+0x1ac>)
 8001612:	4a68      	ldr	r2, [pc, #416]	; (80017b4 <systemInit+0x1b0>)
 8001614:	601a      	str	r2, [r3, #0]

	configureCAN();
 8001616:	f000 fb5f 	bl	8001cd8 <configureCAN>
	CAN_TxMailbox = 0;
 800161a:	4b67      	ldr	r3, [pc, #412]	; (80017b8 <systemInit+0x1b4>)
 800161c:	2200      	movs	r2, #0
 800161e:	601a      	str	r2, [r3, #0]
	CAN_First_Msg = FLAG_RESET;
 8001620:	4b66      	ldr	r3, [pc, #408]	; (80017bc <systemInit+0x1b8>)
 8001622:	2200      	movs	r2, #0
 8001624:	701a      	strb	r2, [r3, #0]
	clean_data_buffer(8, CAN_RxData);
 8001626:	4966      	ldr	r1, [pc, #408]	; (80017c0 <systemInit+0x1bc>)
 8001628:	2008      	movs	r0, #8
 800162a:	f7ff ffcf 	bl	80015cc <clean_data_buffer>

	gpio_set_config();
 800162e:	f000 f901 	bl	8001834 <gpio_set_config>
	HAL_GPIO_WritePin(led_orange.GPIOx, led_orange.GPIO_Pin, GPIO_PIN_RESET);	// Turn LED off
 8001632:	4b64      	ldr	r3, [pc, #400]	; (80017c4 <systemInit+0x1c0>)
 8001634:	681b      	ldr	r3, [r3, #0]
 8001636:	4a63      	ldr	r2, [pc, #396]	; (80017c4 <systemInit+0x1c0>)
 8001638:	8891      	ldrh	r1, [r2, #4]
 800163a:	2200      	movs	r2, #0
 800163c:	4618      	mov	r0, r3
 800163e:	f003 f9f5 	bl	8004a2c <HAL_GPIO_WritePin>
	HAL_GPIO_WritePin(status_led.GPIOx, status_led.GPIO_Pin, GPIO_PIN_RESET);	// Turn LED off
 8001642:	4b61      	ldr	r3, [pc, #388]	; (80017c8 <systemInit+0x1c4>)
 8001644:	681b      	ldr	r3, [r3, #0]
 8001646:	4a60      	ldr	r2, [pc, #384]	; (80017c8 <systemInit+0x1c4>)
 8001648:	8891      	ldrh	r1, [r2, #4]
 800164a:	2200      	movs	r2, #0
 800164c:	4618      	mov	r0, r3
 800164e:	f003 f9ed 	bl	8004a2c <HAL_GPIO_WritePin>
	HAL_GPIO_WritePin(cs_spi1.GPIOx, cs_spi1.GPIO_Pin, GPIO_PIN_SET);		// SET SPI CS High to disable bus 1
 8001652:	4b5e      	ldr	r3, [pc, #376]	; (80017cc <systemInit+0x1c8>)
 8001654:	681b      	ldr	r3, [r3, #0]
 8001656:	4a5d      	ldr	r2, [pc, #372]	; (80017cc <systemInit+0x1c8>)
 8001658:	8891      	ldrh	r1, [r2, #4]
 800165a:	2201      	movs	r2, #1
 800165c:	4618      	mov	r0, r3
 800165e:	f003 f9e5 	bl	8004a2c <HAL_GPIO_WritePin>
	HAL_GPIO_WritePin(cs_spi2.GPIOx, cs_spi2.GPIO_Pin, GPIO_PIN_SET);		// SET SPI CS High to disable bus 2
 8001662:	4b5b      	ldr	r3, [pc, #364]	; (80017d0 <systemInit+0x1cc>)
 8001664:	681b      	ldr	r3, [r3, #0]
 8001666:	4a5a      	ldr	r2, [pc, #360]	; (80017d0 <systemInit+0x1cc>)
 8001668:	8891      	ldrh	r1, [r2, #4]
 800166a:	2201      	movs	r2, #1
 800166c:	4618      	mov	r0, r3
 800166e:	f003 f9dd 	bl	8004a2c <HAL_GPIO_WritePin>

	// Clean the data buffer and set all values to 0xFF
	clean_data_buffer(PAGE_SIZE, data_buffer_tx[0]);
 8001672:	4958      	ldr	r1, [pc, #352]	; (80017d4 <systemInit+0x1d0>)
 8001674:	f44f 7080 	mov.w	r0, #256	; 0x100
 8001678:	f7ff ffa8 	bl	80015cc <clean_data_buffer>
	clean_data_buffer(PAGE_SIZE, data_buffer_tx[1]);
 800167c:	4956      	ldr	r1, [pc, #344]	; (80017d8 <systemInit+0x1d4>)
 800167e:	f44f 7080 	mov.w	r0, #256	; 0x100
 8001682:	f7ff ffa3 	bl	80015cc <clean_data_buffer>

	for (uint8_t i = 0; i < 6; i++) {
 8001686:	2300      	movs	r3, #0
 8001688:	73fb      	strb	r3, [r7, #15]
 800168a:	e00e      	b.n	80016aa <systemInit+0xa6>
		accel_data[i] = 0x00;
 800168c:	7bfb      	ldrb	r3, [r7, #15]
 800168e:	4a53      	ldr	r2, [pc, #332]	; (80017dc <systemInit+0x1d8>)
 8001690:	2100      	movs	r1, #0
 8001692:	54d1      	strb	r1, [r2, r3]
		bme280_data_0[i] = 0x00;
 8001694:	7bfb      	ldrb	r3, [r7, #15]
 8001696:	4a52      	ldr	r2, [pc, #328]	; (80017e0 <systemInit+0x1dc>)
 8001698:	2100      	movs	r1, #0
 800169a:	54d1      	strb	r1, [r2, r3]
		bme280_data_1[i] = 0x00;
 800169c:	7bfb      	ldrb	r3, [r7, #15]
 800169e:	4a51      	ldr	r2, [pc, #324]	; (80017e4 <systemInit+0x1e0>)
 80016a0:	2100      	movs	r1, #0
 80016a2:	54d1      	strb	r1, [r2, r3]
	for (uint8_t i = 0; i < 6; i++) {
 80016a4:	7bfb      	ldrb	r3, [r7, #15]
 80016a6:	3301      	adds	r3, #1
 80016a8:	73fb      	strb	r3, [r7, #15]
 80016aa:	7bfb      	ldrb	r3, [r7, #15]
 80016ac:	2b05      	cmp	r3, #5
 80016ae:	d9ed      	bls.n	800168c <systemInit+0x88>
	}

	// Initialise the peripherals
	init_accel(i2c_accel);
 80016b0:	4b3d      	ldr	r3, [pc, #244]	; (80017a8 <systemInit+0x1a4>)
 80016b2:	681b      	ldr	r3, [r3, #0]
 80016b4:	4618      	mov	r0, r3
 80016b6:	f7fe ff1f 	bl	80004f8 <init_accel>
	init_bme280(i2c_bme280, 0);
 80016ba:	4b3d      	ldr	r3, [pc, #244]	; (80017b0 <systemInit+0x1ac>)
 80016bc:	681b      	ldr	r3, [r3, #0]
 80016be:	2100      	movs	r1, #0
 80016c0:	4618      	mov	r0, r3
 80016c2:	f7fe ff8d 	bl	80005e0 <init_bme280>
	init_bme280(i2c_bme280, 1);
 80016c6:	4b3a      	ldr	r3, [pc, #232]	; (80017b0 <systemInit+0x1ac>)
 80016c8:	681b      	ldr	r3, [r3, #0]
 80016ca:	2101      	movs	r1, #1
 80016cc:	4618      	mov	r0, r3
 80016ce:	f7fe ff87 	bl	80005e0 <init_bme280>
	software_reset(&hspi1, cs_spi1);
 80016d2:	4b3e      	ldr	r3, [pc, #248]	; (80017cc <systemInit+0x1c8>)
 80016d4:	e893 0006 	ldmia.w	r3, {r1, r2}
 80016d8:	4843      	ldr	r0, [pc, #268]	; (80017e8 <systemInit+0x1e4>)
 80016da:	f7ff f957 	bl	800098c <software_reset>
	software_reset(&hspi2, cs_spi2);
 80016de:	4b3c      	ldr	r3, [pc, #240]	; (80017d0 <systemInit+0x1cc>)
 80016e0:	e893 0006 	ldmia.w	r3, {r1, r2}
 80016e4:	4841      	ldr	r0, [pc, #260]	; (80017ec <systemInit+0x1e8>)
 80016e6:	f7ff f951 	bl	800098c <software_reset>

	int next_blank_page0 = find_next_blank_page(&hspi1, &end_of_flash, cs_spi1);
 80016ea:	4b38      	ldr	r3, [pc, #224]	; (80017cc <systemInit+0x1c8>)
 80016ec:	cb0c      	ldmia	r3, {r2, r3}
 80016ee:	4940      	ldr	r1, [pc, #256]	; (80017f0 <systemInit+0x1ec>)
 80016f0:	483d      	ldr	r0, [pc, #244]	; (80017e8 <systemInit+0x1e4>)
 80016f2:	f7ff f99d 	bl	8000a30 <find_next_blank_page>
 80016f6:	4603      	mov	r3, r0
 80016f8:	60bb      	str	r3, [r7, #8]
	int next_blank_page1 = find_next_blank_page(&hspi2, &end_of_flash, cs_spi2);
 80016fa:	4b35      	ldr	r3, [pc, #212]	; (80017d0 <systemInit+0x1cc>)
 80016fc:	cb0c      	ldmia	r3, {r2, r3}
 80016fe:	493c      	ldr	r1, [pc, #240]	; (80017f0 <systemInit+0x1ec>)
 8001700:	483a      	ldr	r0, [pc, #232]	; (80017ec <systemInit+0x1e8>)
 8001702:	f7ff f995 	bl	8000a30 <find_next_blank_page>
 8001706:	4603      	mov	r3, r0
 8001708:	607b      	str	r3, [r7, #4]

	// Assign the value of next_blank_page to the larger of next_blank_page0 and next_blank_page1
	next_blank_page = (next_blank_page0 > next_blank_page1) ? next_blank_page0 : next_blank_page1;
 800170a:	687a      	ldr	r2, [r7, #4]
 800170c:	68bb      	ldr	r3, [r7, #8]
 800170e:	4293      	cmp	r3, r2
 8001710:	bfb8      	it	lt
 8001712:	4613      	movlt	r3, r2
 8001714:	461a      	mov	r2, r3
 8001716:	4b37      	ldr	r3, [pc, #220]	; (80017f4 <systemInit+0x1f0>)
 8001718:	601a      	str	r2, [r3, #0]

	buffer_ref = 0;
 800171a:	4b37      	ldr	r3, [pc, #220]	; (80017f8 <systemInit+0x1f4>)
 800171c:	2200      	movs	r2, #0
 800171e:	701a      	strb	r2, [r3, #0]
	byte_tracker = 0;
 8001720:	4b36      	ldr	r3, [pc, #216]	; (80017fc <systemInit+0x1f8>)
 8001722:	2200      	movs	r2, #0
 8001724:	801a      	strh	r2, [r3, #0]
	end_of_flash = FLAG_RESET;
 8001726:	4b32      	ldr	r3, [pc, #200]	; (80017f0 <systemInit+0x1ec>)
 8001728:	2200      	movs	r2, #0
 800172a:	701a      	strb	r2, [r3, #0]
	uart2_rec_flag = FLAG_RESET;
 800172c:	4b34      	ldr	r3, [pc, #208]	; (8001800 <systemInit+0x1fc>)
 800172e:	2200      	movs	r2, #0
 8001730:	701a      	strb	r2, [r3, #0]
	CAN_RX_Flag = FLAG_RESET;
 8001732:	4b34      	ldr	r3, [pc, #208]	; (8001804 <systemInit+0x200>)
 8001734:	2200      	movs	r2, #0
 8001736:	701a      	strb	r2, [r3, #0]
	tim6_overflow_flag = FLAG_RESET;
 8001738:	4b33      	ldr	r3, [pc, #204]	; (8001808 <systemInit+0x204>)
 800173a:	2200      	movs	r2, #0
 800173c:	701a      	strb	r2, [r3, #0]
	tim7_overflow_flag = FLAG_RESET;
 800173e:	4b33      	ldr	r3, [pc, #204]	; (800180c <systemInit+0x208>)
 8001740:	2200      	movs	r2, #0
 8001742:	701a      	strb	r2, [r3, #0]
	flight_state = GROUND;
 8001744:	4b32      	ldr	r3, [pc, #200]	; (8001810 <systemInit+0x20c>)
 8001746:	2200      	movs	r2, #0
 8001748:	701a      	strb	r2, [r3, #0]
	rtc_reset = FLAG_RESET;
 800174a:	4b32      	ldr	r3, [pc, #200]	; (8001814 <systemInit+0x210>)
 800174c:	2200      	movs	r2, #0
 800174e:	701a      	strb	r2, [r3, #0]

	sysStatus = systemStatus(&hspi1, &hspi2, i2c_bme280, i2c_accel);
 8001750:	4b17      	ldr	r3, [pc, #92]	; (80017b0 <systemInit+0x1ac>)
 8001752:	681a      	ldr	r2, [r3, #0]
 8001754:	4b14      	ldr	r3, [pc, #80]	; (80017a8 <systemInit+0x1a4>)
 8001756:	681b      	ldr	r3, [r3, #0]
 8001758:	4924      	ldr	r1, [pc, #144]	; (80017ec <systemInit+0x1e8>)
 800175a:	4823      	ldr	r0, [pc, #140]	; (80017e8 <systemInit+0x1e4>)
 800175c:	f000 fae6 	bl	8001d2c <systemStatus>
 8001760:	4603      	mov	r3, r0
 8001762:	461a      	mov	r2, r3
 8001764:	4b2c      	ldr	r3, [pc, #176]	; (8001818 <systemInit+0x214>)
 8001766:	701a      	strb	r2, [r3, #0]

	send_uart_hex(&huart2, sysStatus);
 8001768:	4b2b      	ldr	r3, [pc, #172]	; (8001818 <systemInit+0x214>)
 800176a:	781b      	ldrb	r3, [r3, #0]
 800176c:	4619      	mov	r1, r3
 800176e:	482b      	ldr	r0, [pc, #172]	; (800181c <systemInit+0x218>)
 8001770:	f001 fb47 	bl	8002e02 <send_uart_hex>

	// Initiate clocks, interrupts, CAN and DMA
	HAL_UART_Receive_IT(&huart2, UARTRxData, 2);
 8001774:	2202      	movs	r2, #2
 8001776:	492a      	ldr	r1, [pc, #168]	; (8001820 <systemInit+0x21c>)
 8001778:	4828      	ldr	r0, [pc, #160]	; (800181c <systemInit+0x218>)
 800177a:	f006 fe3c 	bl	80083f6 <HAL_UART_Receive_IT>
	HAL_CAN_Start(&hcan2);
 800177e:	4829      	ldr	r0, [pc, #164]	; (8001824 <systemInit+0x220>)
 8001780:	f001 fdf0 	bl	8003364 <HAL_CAN_Start>
	HAL_CAN_ActivateNotification(&hcan2, CAN_IT_RX_FIFO0_MSG_PENDING);
 8001784:	2102      	movs	r1, #2
 8001786:	4827      	ldr	r0, [pc, #156]	; (8001824 <systemInit+0x220>)
 8001788:	f002 f822 	bl	80037d0 <HAL_CAN_ActivateNotification>
	initialise_rtc_default(&hrtc);
 800178c:	4826      	ldr	r0, [pc, #152]	; (8001828 <systemInit+0x224>)
 800178e:	f000 fe17 	bl	80023c0 <initialise_rtc_default>
	HAL_TIM_Base_Start_IT(&htim6);
 8001792:	4826      	ldr	r0, [pc, #152]	; (800182c <systemInit+0x228>)
 8001794:	f006 fa86 	bl	8007ca4 <HAL_TIM_Base_Start_IT>
	HAL_TIM_Base_Start_IT(&htim7);
 8001798:	4825      	ldr	r0, [pc, #148]	; (8001830 <systemInit+0x22c>)
 800179a:	f006 fa83 	bl	8007ca4 <HAL_TIM_Base_Start_IT>
}
 800179e:	bf00      	nop
 80017a0:	3710      	adds	r7, #16
 80017a2:	46bd      	mov	sp, r7
 80017a4:	bd80      	pop	{r7, pc}
 80017a6:	bf00      	nop
 80017a8:	20000380 	.word	0x20000380
 80017ac:	200000c4 	.word	0x200000c4
 80017b0:	20000384 	.word	0x20000384
 80017b4:	20000070 	.word	0x20000070
 80017b8:	2000038c 	.word	0x2000038c
 80017bc:	200003b5 	.word	0x200003b5
 80017c0:	200003ac 	.word	0x200003ac
 80017c4:	200005dc 	.word	0x200005dc
 80017c8:	200005ec 	.word	0x200005ec
 80017cc:	200005f4 	.word	0x200005f4
 80017d0:	20000604 	.word	0x20000604
 80017d4:	200003b8 	.word	0x200003b8
 80017d8:	200004b8 	.word	0x200004b8
 80017dc:	200005bc 	.word	0x200005bc
 80017e0:	200005c4 	.word	0x200005c4
 80017e4:	200005cc 	.word	0x200005cc
 80017e8:	20000138 	.word	0x20000138
 80017ec:	20000190 	.word	0x20000190
 80017f0:	200005da 	.word	0x200005da
 80017f4:	200005d4 	.word	0x200005d4
 80017f8:	200005d2 	.word	0x200005d2
 80017fc:	200005d8 	.word	0x200005d8
 8001800:	2000038a 	.word	0x2000038a
 8001804:	200003b4 	.word	0x200003b4
 8001808:	200003b6 	.word	0x200003b6
 800180c:	200003b7 	.word	0x200003b7
 8001810:	2000061e 	.word	0x2000061e
 8001814:	2000061c 	.word	0x2000061c
 8001818:	2000061d 	.word	0x2000061d
 800181c:	20000338 	.word	0x20000338
 8001820:	20000388 	.word	0x20000388
 8001824:	20000048 	.word	0x20000048
 8001828:	20000118 	.word	0x20000118
 800182c:	200002a8 	.word	0x200002a8
 8001830:	200002f0 	.word	0x200002f0

08001834 <gpio_set_config>:

void gpio_set_config() {
 8001834:	b590      	push	{r4, r7, lr}
 8001836:	b083      	sub	sp, #12
 8001838:	af00      	add	r7, sp, #0
	// Set LED gpio
	led_orange = create_GPIO_Config(GPIOB, GPIO_PIN_14);	// Orange LED (Heartbeat LED)
 800183a:	4c30      	ldr	r4, [pc, #192]	; (80018fc <gpio_set_config+0xc8>)
 800183c:	463b      	mov	r3, r7
 800183e:	f44f 4280 	mov.w	r2, #16384	; 0x4000
 8001842:	492f      	ldr	r1, [pc, #188]	; (8001900 <gpio_set_config+0xcc>)
 8001844:	4618      	mov	r0, r3
 8001846:	f7ff f9d3 	bl	8000bf0 <create_GPIO_Config>
 800184a:	4622      	mov	r2, r4
 800184c:	463b      	mov	r3, r7
 800184e:	e893 0003 	ldmia.w	r3, {r0, r1}
 8001852:	e882 0003 	stmia.w	r2, {r0, r1}
	led_green = create_GPIO_Config(GPIOB, GPIO_PIN_7);		// Green LED (Hard Drive LED)
 8001856:	4c2b      	ldr	r4, [pc, #172]	; (8001904 <gpio_set_config+0xd0>)
 8001858:	463b      	mov	r3, r7
 800185a:	2280      	movs	r2, #128	; 0x80
 800185c:	4928      	ldr	r1, [pc, #160]	; (8001900 <gpio_set_config+0xcc>)
 800185e:	4618      	mov	r0, r3
 8001860:	f7ff f9c6 	bl	8000bf0 <create_GPIO_Config>
 8001864:	4622      	mov	r2, r4
 8001866:	463b      	mov	r3, r7
 8001868:	e893 0003 	ldmia.w	r3, {r0, r1}
 800186c:	e882 0003 	stmia.w	r2, {r0, r1}
//	status_led = create_GPIO_Config(GPIOB, GPIO_PIN_7);		//	TODO

	// SPI Flash 0 CS and WP
	cs_spi1 = create_GPIO_Config(GPIOC, GPIO_PIN_4);		// Change for SRAD
 8001870:	4c25      	ldr	r4, [pc, #148]	; (8001908 <gpio_set_config+0xd4>)
 8001872:	463b      	mov	r3, r7
 8001874:	2210      	movs	r2, #16
 8001876:	4925      	ldr	r1, [pc, #148]	; (800190c <gpio_set_config+0xd8>)
 8001878:	4618      	mov	r0, r3
 800187a:	f7ff f9b9 	bl	8000bf0 <create_GPIO_Config>
 800187e:	4622      	mov	r2, r4
 8001880:	463b      	mov	r3, r7
 8001882:	e893 0003 	ldmia.w	r3, {r0, r1}
 8001886:	e882 0003 	stmia.w	r2, {r0, r1}
	wp_spi1 = create_GPIO_Config(GPIOA, GPIO_PIN_4);
 800188a:	4c21      	ldr	r4, [pc, #132]	; (8001910 <gpio_set_config+0xdc>)
 800188c:	463b      	mov	r3, r7
 800188e:	2210      	movs	r2, #16
 8001890:	4920      	ldr	r1, [pc, #128]	; (8001914 <gpio_set_config+0xe0>)
 8001892:	4618      	mov	r0, r3
 8001894:	f7ff f9ac 	bl	8000bf0 <create_GPIO_Config>
 8001898:	4622      	mov	r2, r4
 800189a:	463b      	mov	r3, r7
 800189c:	e893 0003 	ldmia.w	r3, {r0, r1}
 80018a0:	e882 0003 	stmia.w	r2, {r0, r1}

	// SPI Flash 1 CS and WP
	cs_spi2 = create_GPIO_Config(GPIOC, GPIO_PIN_1);		// Change for SRAD
 80018a4:	4c1c      	ldr	r4, [pc, #112]	; (8001918 <gpio_set_config+0xe4>)
 80018a6:	463b      	mov	r3, r7
 80018a8:	2202      	movs	r2, #2
 80018aa:	4918      	ldr	r1, [pc, #96]	; (800190c <gpio_set_config+0xd8>)
 80018ac:	4618      	mov	r0, r3
 80018ae:	f7ff f99f 	bl	8000bf0 <create_GPIO_Config>
 80018b2:	4622      	mov	r2, r4
 80018b4:	463b      	mov	r3, r7
 80018b6:	e893 0003 	ldmia.w	r3, {r0, r1}
 80018ba:	e882 0003 	stmia.w	r2, {r0, r1}
	wp_spi2 = create_GPIO_Config(GPIOC, GPIO_PIN_0);
 80018be:	4c17      	ldr	r4, [pc, #92]	; (800191c <gpio_set_config+0xe8>)
 80018c0:	463b      	mov	r3, r7
 80018c2:	2201      	movs	r2, #1
 80018c4:	4911      	ldr	r1, [pc, #68]	; (800190c <gpio_set_config+0xd8>)
 80018c6:	4618      	mov	r0, r3
 80018c8:	f7ff f992 	bl	8000bf0 <create_GPIO_Config>
 80018cc:	4622      	mov	r2, r4
 80018ce:	463b      	mov	r3, r7
 80018d0:	e893 0003 	ldmia.w	r3, {r0, r1}
 80018d4:	e882 0003 	stmia.w	r2, {r0, r1}

	// Flight Jumper GPIO Input
	jmp_flight = create_GPIO_Config(GPIOB, GPIO_PIN_1);
 80018d8:	4c11      	ldr	r4, [pc, #68]	; (8001920 <gpio_set_config+0xec>)
 80018da:	463b      	mov	r3, r7
 80018dc:	2202      	movs	r2, #2
 80018de:	4908      	ldr	r1, [pc, #32]	; (8001900 <gpio_set_config+0xcc>)
 80018e0:	4618      	mov	r0, r3
 80018e2:	f7ff f985 	bl	8000bf0 <create_GPIO_Config>
 80018e6:	4622      	mov	r2, r4
 80018e8:	463b      	mov	r3, r7
 80018ea:	e893 0003 	ldmia.w	r3, {r0, r1}
 80018ee:	e882 0003 	stmia.w	r2, {r0, r1}
}
 80018f2:	bf00      	nop
 80018f4:	370c      	adds	r7, #12
 80018f6:	46bd      	mov	sp, r7
 80018f8:	bd90      	pop	{r4, r7, pc}
 80018fa:	bf00      	nop
 80018fc:	200005dc 	.word	0x200005dc
 8001900:	40020400 	.word	0x40020400
 8001904:	200005e4 	.word	0x200005e4
 8001908:	200005f4 	.word	0x200005f4
 800190c:	40020800 	.word	0x40020800
 8001910:	200005fc 	.word	0x200005fc
 8001914:	40020000 	.word	0x40020000
 8001918:	20000604 	.word	0x20000604
 800191c:	2000060c 	.word	0x2000060c
 8001920:	20000614 	.word	0x20000614

08001924 <handleCAN>:

void handleCAN() {
 8001924:	b580      	push	{r7, lr}
 8001926:	b084      	sub	sp, #16
 8001928:	af02      	add	r7, sp, #8
	// Process "clock-sync". Change flight-state to "rocket_loaded"
	if(CAN_RxHeader.StdId == CLK_SYNC_ID) {
 800192a:	4b2a      	ldr	r3, [pc, #168]	; (80019d4 <handleCAN+0xb0>)
 800192c:	681b      	ldr	r3, [r3, #0]
 800192e:	f240 72ff 	movw	r2, #2047	; 0x7ff
 8001932:	4293      	cmp	r3, r2
 8001934:	d10e      	bne.n	8001954 <handleCAN+0x30>
		flight_state = LOADED;
 8001936:	4b28      	ldr	r3, [pc, #160]	; (80019d8 <handleCAN+0xb4>)
 8001938:	2201      	movs	r2, #1
 800193a:	701a      	strb	r2, [r3, #0]
		uint8_t TxData[1] = {0x00};
 800193c:	2300      	movs	r3, #0
 800193e:	713b      	strb	r3, [r7, #4]
		sendCAN_TxMessage(&hcan2, 1, TxData, &CAN_TxMailbox, CLK_SYNC_ID);
 8001940:	1d3a      	adds	r2, r7, #4
 8001942:	f240 73ff 	movw	r3, #2047	; 0x7ff
 8001946:	9300      	str	r3, [sp, #0]
 8001948:	4b24      	ldr	r3, [pc, #144]	; (80019dc <handleCAN+0xb8>)
 800194a:	2101      	movs	r1, #1
 800194c:	4824      	ldr	r0, [pc, #144]	; (80019e0 <handleCAN+0xbc>)
 800194e:	f7fe ff5d 	bl	800080c <sendCAN_TxMessage>

	// Transmit values from accelerometer
	else if(CAN_RxHeader.StdId == DUMMY_ID) {
		send_uart_hex(&huart2, sysStatus);
	}
}
 8001952:	e03a      	b.n	80019ca <handleCAN+0xa6>
	else if(CAN_RxHeader.StdId == TX_BME280_0) {
 8001954:	4b1f      	ldr	r3, [pc, #124]	; (80019d4 <handleCAN+0xb0>)
 8001956:	681b      	ldr	r3, [r3, #0]
 8001958:	f240 5201 	movw	r2, #1281	; 0x501
 800195c:	4293      	cmp	r3, r2
 800195e:	d109      	bne.n	8001974 <handleCAN+0x50>
		sendCAN_TxMessage(&hcan2, 6, bme280_data_0, &CAN_TxMailbox, TX_BME280_0);
 8001960:	f240 5301 	movw	r3, #1281	; 0x501
 8001964:	9300      	str	r3, [sp, #0]
 8001966:	4b1d      	ldr	r3, [pc, #116]	; (80019dc <handleCAN+0xb8>)
 8001968:	4a1e      	ldr	r2, [pc, #120]	; (80019e4 <handleCAN+0xc0>)
 800196a:	2106      	movs	r1, #6
 800196c:	481c      	ldr	r0, [pc, #112]	; (80019e0 <handleCAN+0xbc>)
 800196e:	f7fe ff4d 	bl	800080c <sendCAN_TxMessage>
}
 8001972:	e02a      	b.n	80019ca <handleCAN+0xa6>
	else if(CAN_RxHeader.StdId == TX_BME280_1) {
 8001974:	4b17      	ldr	r3, [pc, #92]	; (80019d4 <handleCAN+0xb0>)
 8001976:	681b      	ldr	r3, [r3, #0]
 8001978:	f240 5202 	movw	r2, #1282	; 0x502
 800197c:	4293      	cmp	r3, r2
 800197e:	d109      	bne.n	8001994 <handleCAN+0x70>
		sendCAN_TxMessage(&hcan2, 6, bme280_data_1, &CAN_TxMailbox, TX_BME280_1);
 8001980:	f240 5302 	movw	r3, #1282	; 0x502
 8001984:	9300      	str	r3, [sp, #0]
 8001986:	4b15      	ldr	r3, [pc, #84]	; (80019dc <handleCAN+0xb8>)
 8001988:	4a17      	ldr	r2, [pc, #92]	; (80019e8 <handleCAN+0xc4>)
 800198a:	2106      	movs	r1, #6
 800198c:	4814      	ldr	r0, [pc, #80]	; (80019e0 <handleCAN+0xbc>)
 800198e:	f7fe ff3d 	bl	800080c <sendCAN_TxMessage>
}
 8001992:	e01a      	b.n	80019ca <handleCAN+0xa6>
	else if(CAN_RxHeader.StdId == TX_ACCEL) {
 8001994:	4b0f      	ldr	r3, [pc, #60]	; (80019d4 <handleCAN+0xb0>)
 8001996:	681b      	ldr	r3, [r3, #0]
 8001998:	f240 5203 	movw	r2, #1283	; 0x503
 800199c:	4293      	cmp	r3, r2
 800199e:	d109      	bne.n	80019b4 <handleCAN+0x90>
		sendCAN_TxMessage(&hcan2, 6, accel_data, &CAN_TxMailbox, TX_ACCEL);
 80019a0:	f240 5303 	movw	r3, #1283	; 0x503
 80019a4:	9300      	str	r3, [sp, #0]
 80019a6:	4b0d      	ldr	r3, [pc, #52]	; (80019dc <handleCAN+0xb8>)
 80019a8:	4a10      	ldr	r2, [pc, #64]	; (80019ec <handleCAN+0xc8>)
 80019aa:	2106      	movs	r1, #6
 80019ac:	480c      	ldr	r0, [pc, #48]	; (80019e0 <handleCAN+0xbc>)
 80019ae:	f7fe ff2d 	bl	800080c <sendCAN_TxMessage>
}
 80019b2:	e00a      	b.n	80019ca <handleCAN+0xa6>
	else if(CAN_RxHeader.StdId == DUMMY_ID) {
 80019b4:	4b07      	ldr	r3, [pc, #28]	; (80019d4 <handleCAN+0xb0>)
 80019b6:	681b      	ldr	r3, [r3, #0]
 80019b8:	f5b3 6fe0 	cmp.w	r3, #1792	; 0x700
 80019bc:	d105      	bne.n	80019ca <handleCAN+0xa6>
		send_uart_hex(&huart2, sysStatus);
 80019be:	4b0c      	ldr	r3, [pc, #48]	; (80019f0 <handleCAN+0xcc>)
 80019c0:	781b      	ldrb	r3, [r3, #0]
 80019c2:	4619      	mov	r1, r3
 80019c4:	480b      	ldr	r0, [pc, #44]	; (80019f4 <handleCAN+0xd0>)
 80019c6:	f001 fa1c 	bl	8002e02 <send_uart_hex>
}
 80019ca:	bf00      	nop
 80019cc:	3708      	adds	r7, #8
 80019ce:	46bd      	mov	sp, r7
 80019d0:	bd80      	pop	{r7, pc}
 80019d2:	bf00      	nop
 80019d4:	20000390 	.word	0x20000390
 80019d8:	2000061e 	.word	0x2000061e
 80019dc:	2000038c 	.word	0x2000038c
 80019e0:	20000048 	.word	0x20000048
 80019e4:	200005c4 	.word	0x200005c4
 80019e8:	200005cc 	.word	0x200005cc
 80019ec:	200005bc 	.word	0x200005bc
 80019f0:	2000061d 	.word	0x2000061d
 80019f4:	20000338 	.word	0x20000338

080019f8 <handleUART>:

void handleUART() {
 80019f8:	b590      	push	{r4, r7, lr}
 80019fa:	b085      	sub	sp, #20
 80019fc:	af02      	add	r7, sp, #8
	UART_HandleTypeDef *huart = &huart2;
 80019fe:	4b8e      	ldr	r3, [pc, #568]	; (8001c38 <handleUART+0x240>)
 8001a00:	607b      	str	r3, [r7, #4]

	// Send Heartbeat to UART (data_rx[0] = "h")
	if (UARTRxData[0] == 0x68) {
 8001a02:	4b8e      	ldr	r3, [pc, #568]	; (8001c3c <handleUART+0x244>)
 8001a04:	781b      	ldrb	r3, [r3, #0]
 8001a06:	2b68      	cmp	r3, #104	; 0x68
 8001a08:	d109      	bne.n	8001a1e <handleUART+0x26>
		heartbeatUART(huart);
 8001a0a:	6878      	ldr	r0, [r7, #4]
 8001a0c:	f000 f9e0 	bl	8001dd0 <heartbeatUART>
		send_uart_hex(huart, sysStatus);
 8001a10:	4b8b      	ldr	r3, [pc, #556]	; (8001c40 <handleUART+0x248>)
 8001a12:	781b      	ldrb	r3, [r3, #0]
 8001a14:	4619      	mov	r1, r3
 8001a16:	6878      	ldr	r0, [r7, #4]
 8001a18:	f001 f9f3 	bl	8002e02 <send_uart_hex>
 8001a1c:	e102      	b.n	8001c24 <handleUART+0x22c>
	}

/***************************** SPI Flash ************************************************/
	// Erase specified flash chip (data_rx[0]  = "e")
	else if (UARTRxData[0] == 0x65) {
 8001a1e:	4b87      	ldr	r3, [pc, #540]	; (8001c3c <handleUART+0x244>)
 8001a20:	781b      	ldrb	r3, [r3, #0]
 8001a22:	2b65      	cmp	r3, #101	; 0x65
 8001a24:	d11e      	bne.n	8001a64 <handleUART+0x6c>
		if(decodeASCII(UARTRxData[1]) == 0) {
 8001a26:	4b85      	ldr	r3, [pc, #532]	; (8001c3c <handleUART+0x244>)
 8001a28:	785b      	ldrb	r3, [r3, #1]
 8001a2a:	4618      	mov	r0, r3
 8001a2c:	f000 f91a 	bl	8001c64 <decodeASCII>
 8001a30:	4603      	mov	r3, r0
 8001a32:	2b00      	cmp	r3, #0
 8001a34:	d106      	bne.n	8001a44 <handleUART+0x4c>
			eraseFlashSPI(&hspi1, huart, cs_spi1);
 8001a36:	4b83      	ldr	r3, [pc, #524]	; (8001c44 <handleUART+0x24c>)
 8001a38:	cb0c      	ldmia	r3, {r2, r3}
 8001a3a:	6879      	ldr	r1, [r7, #4]
 8001a3c:	4882      	ldr	r0, [pc, #520]	; (8001c48 <handleUART+0x250>)
 8001a3e:	f000 f9d3 	bl	8001de8 <eraseFlashSPI>
 8001a42:	e0ef      	b.n	8001c24 <handleUART+0x22c>
		} else if (decodeASCII(UARTRxData[1]) == 1) {
 8001a44:	4b7d      	ldr	r3, [pc, #500]	; (8001c3c <handleUART+0x244>)
 8001a46:	785b      	ldrb	r3, [r3, #1]
 8001a48:	4618      	mov	r0, r3
 8001a4a:	f000 f90b 	bl	8001c64 <decodeASCII>
 8001a4e:	4603      	mov	r3, r0
 8001a50:	2b01      	cmp	r3, #1
 8001a52:	f040 80e7 	bne.w	8001c24 <handleUART+0x22c>
			eraseFlashSPI(&hspi2, huart, cs_spi2);
 8001a56:	4b7d      	ldr	r3, [pc, #500]	; (8001c4c <handleUART+0x254>)
 8001a58:	cb0c      	ldmia	r3, {r2, r3}
 8001a5a:	6879      	ldr	r1, [r7, #4]
 8001a5c:	487c      	ldr	r0, [pc, #496]	; (8001c50 <handleUART+0x258>)
 8001a5e:	f000 f9c3 	bl	8001de8 <eraseFlashSPI>
 8001a62:	e0df      	b.n	8001c24 <handleUART+0x22c>
		}
	}

	// Read data from specified flash chip (data_rx[0] = "r")
	else if (UARTRxData[0] == 0x72) {
 8001a64:	4b75      	ldr	r3, [pc, #468]	; (8001c3c <handleUART+0x244>)
 8001a66:	781b      	ldrb	r3, [r3, #0]
 8001a68:	2b72      	cmp	r3, #114	; 0x72
 8001a6a:	d11e      	bne.n	8001aaa <handleUART+0xb2>
		if(decodeASCII(UARTRxData[1]) == 0) {
 8001a6c:	4b73      	ldr	r3, [pc, #460]	; (8001c3c <handleUART+0x244>)
 8001a6e:	785b      	ldrb	r3, [r3, #1]
 8001a70:	4618      	mov	r0, r3
 8001a72:	f000 f8f7 	bl	8001c64 <decodeASCII>
 8001a76:	4603      	mov	r3, r0
 8001a78:	2b00      	cmp	r3, #0
 8001a7a:	d106      	bne.n	8001a8a <handleUART+0x92>
			readFlashToUART(&hspi1, huart, cs_spi1);
 8001a7c:	4b71      	ldr	r3, [pc, #452]	; (8001c44 <handleUART+0x24c>)
 8001a7e:	cb0c      	ldmia	r3, {r2, r3}
 8001a80:	6879      	ldr	r1, [r7, #4]
 8001a82:	4871      	ldr	r0, [pc, #452]	; (8001c48 <handleUART+0x250>)
 8001a84:	f000 f9ec 	bl	8001e60 <readFlashToUART>
 8001a88:	e0cc      	b.n	8001c24 <handleUART+0x22c>
		} else if (decodeASCII(UARTRxData[1]) == 1) {
 8001a8a:	4b6c      	ldr	r3, [pc, #432]	; (8001c3c <handleUART+0x244>)
 8001a8c:	785b      	ldrb	r3, [r3, #1]
 8001a8e:	4618      	mov	r0, r3
 8001a90:	f000 f8e8 	bl	8001c64 <decodeASCII>
 8001a94:	4603      	mov	r3, r0
 8001a96:	2b01      	cmp	r3, #1
 8001a98:	f040 80c4 	bne.w	8001c24 <handleUART+0x22c>
			readFlashToUART(&hspi2, huart, cs_spi2);
 8001a9c:	4b6b      	ldr	r3, [pc, #428]	; (8001c4c <handleUART+0x254>)
 8001a9e:	cb0c      	ldmia	r3, {r2, r3}
 8001aa0:	6879      	ldr	r1, [r7, #4]
 8001aa2:	486b      	ldr	r0, [pc, #428]	; (8001c50 <handleUART+0x258>)
 8001aa4:	f000 f9dc 	bl	8001e60 <readFlashToUART>
 8001aa8:	e0bc      	b.n	8001c24 <handleUART+0x22c>
		}
	}

	// Read Manufacturer over SPI (data_rx[0] = "m")
	else if (UARTRxData[0] == 0x6d) {
 8001aaa:	4b64      	ldr	r3, [pc, #400]	; (8001c3c <handleUART+0x244>)
 8001aac:	781b      	ldrb	r3, [r3, #0]
 8001aae:	2b6d      	cmp	r3, #109	; 0x6d
 8001ab0:	d11e      	bne.n	8001af0 <handleUART+0xf8>
		if(decodeASCII(UARTRxData[1]) == 0) {
 8001ab2:	4b62      	ldr	r3, [pc, #392]	; (8001c3c <handleUART+0x244>)
 8001ab4:	785b      	ldrb	r3, [r3, #1]
 8001ab6:	4618      	mov	r0, r3
 8001ab8:	f000 f8d4 	bl	8001c64 <decodeASCII>
 8001abc:	4603      	mov	r3, r0
 8001abe:	2b00      	cmp	r3, #0
 8001ac0:	d106      	bne.n	8001ad0 <handleUART+0xd8>
			readFlashManuSPI(&hspi1, huart, cs_spi1);
 8001ac2:	4b60      	ldr	r3, [pc, #384]	; (8001c44 <handleUART+0x24c>)
 8001ac4:	cb0c      	ldmia	r3, {r2, r3}
 8001ac6:	6879      	ldr	r1, [r7, #4]
 8001ac8:	485f      	ldr	r0, [pc, #380]	; (8001c48 <handleUART+0x250>)
 8001aca:	f000 fa35 	bl	8001f38 <readFlashManuSPI>
 8001ace:	e0a9      	b.n	8001c24 <handleUART+0x22c>
		} else if (decodeASCII(UARTRxData[1]) == 1) {
 8001ad0:	4b5a      	ldr	r3, [pc, #360]	; (8001c3c <handleUART+0x244>)
 8001ad2:	785b      	ldrb	r3, [r3, #1]
 8001ad4:	4618      	mov	r0, r3
 8001ad6:	f000 f8c5 	bl	8001c64 <decodeASCII>
 8001ada:	4603      	mov	r3, r0
 8001adc:	2b01      	cmp	r3, #1
 8001ade:	f040 80a1 	bne.w	8001c24 <handleUART+0x22c>
			readFlashManuSPI(&hspi2, huart, cs_spi2);
 8001ae2:	4b5a      	ldr	r3, [pc, #360]	; (8001c4c <handleUART+0x254>)
 8001ae4:	cb0c      	ldmia	r3, {r2, r3}
 8001ae6:	6879      	ldr	r1, [r7, #4]
 8001ae8:	4859      	ldr	r0, [pc, #356]	; (8001c50 <handleUART+0x258>)
 8001aea:	f000 fa25 	bl	8001f38 <readFlashManuSPI>
 8001aee:	e099      	b.n	8001c24 <handleUART+0x22c>
		}
	}

	// Write a page over SPI (data_rx[0] = "w")
	else if (UARTRxData[0] == 0x77) {
 8001af0:	4b52      	ldr	r3, [pc, #328]	; (8001c3c <handleUART+0x244>)
 8001af2:	781b      	ldrb	r3, [r3, #0]
 8001af4:	2b77      	cmp	r3, #119	; 0x77
 8001af6:	d11d      	bne.n	8001b34 <handleUART+0x13c>
		if(decodeASCII(UARTRxData[1]) == 0) {
 8001af8:	4b50      	ldr	r3, [pc, #320]	; (8001c3c <handleUART+0x244>)
 8001afa:	785b      	ldrb	r3, [r3, #1]
 8001afc:	4618      	mov	r0, r3
 8001afe:	f000 f8b1 	bl	8001c64 <decodeASCII>
 8001b02:	4603      	mov	r3, r0
 8001b04:	2b00      	cmp	r3, #0
 8001b06:	d106      	bne.n	8001b16 <handleUART+0x11e>
			writePageSPI_W(&hspi1, huart, cs_spi1);
 8001b08:	4b4e      	ldr	r3, [pc, #312]	; (8001c44 <handleUART+0x24c>)
 8001b0a:	cb0c      	ldmia	r3, {r2, r3}
 8001b0c:	6879      	ldr	r1, [r7, #4]
 8001b0e:	484e      	ldr	r0, [pc, #312]	; (8001c48 <handleUART+0x250>)
 8001b10:	f000 fa32 	bl	8001f78 <writePageSPI_W>
 8001b14:	e086      	b.n	8001c24 <handleUART+0x22c>
		} else if (decodeASCII(UARTRxData[1]) == 1) {
 8001b16:	4b49      	ldr	r3, [pc, #292]	; (8001c3c <handleUART+0x244>)
 8001b18:	785b      	ldrb	r3, [r3, #1]
 8001b1a:	4618      	mov	r0, r3
 8001b1c:	f000 f8a2 	bl	8001c64 <decodeASCII>
 8001b20:	4603      	mov	r3, r0
 8001b22:	2b01      	cmp	r3, #1
 8001b24:	d17e      	bne.n	8001c24 <handleUART+0x22c>
			writePageSPI_W(&hspi2, huart, cs_spi2);
 8001b26:	4b49      	ldr	r3, [pc, #292]	; (8001c4c <handleUART+0x254>)
 8001b28:	cb0c      	ldmia	r3, {r2, r3}
 8001b2a:	6879      	ldr	r1, [r7, #4]
 8001b2c:	4848      	ldr	r0, [pc, #288]	; (8001c50 <handleUART+0x258>)
 8001b2e:	f000 fa23 	bl	8001f78 <writePageSPI_W>
 8001b32:	e077      	b.n	8001c24 <handleUART+0x22c>
		}
	}

	// Software reset flash chip over SPI (data_rx[0] = "x")
	else if (UARTRxData[0] == 0x78) {
 8001b34:	4b41      	ldr	r3, [pc, #260]	; (8001c3c <handleUART+0x244>)
 8001b36:	781b      	ldrb	r3, [r3, #0]
 8001b38:	2b78      	cmp	r3, #120	; 0x78
 8001b3a:	d11d      	bne.n	8001b78 <handleUART+0x180>
		if(decodeASCII(UARTRxData[1]) == 0) {
 8001b3c:	4b3f      	ldr	r3, [pc, #252]	; (8001c3c <handleUART+0x244>)
 8001b3e:	785b      	ldrb	r3, [r3, #1]
 8001b40:	4618      	mov	r0, r3
 8001b42:	f000 f88f 	bl	8001c64 <decodeASCII>
 8001b46:	4603      	mov	r3, r0
 8001b48:	2b00      	cmp	r3, #0
 8001b4a:	d106      	bne.n	8001b5a <handleUART+0x162>
			resetSPIFlash(&hspi1, huart, cs_spi1);
 8001b4c:	4b3d      	ldr	r3, [pc, #244]	; (8001c44 <handleUART+0x24c>)
 8001b4e:	cb0c      	ldmia	r3, {r2, r3}
 8001b50:	6879      	ldr	r1, [r7, #4]
 8001b52:	483d      	ldr	r0, [pc, #244]	; (8001c48 <handleUART+0x250>)
 8001b54:	f000 fa64 	bl	8002020 <resetSPIFlash>
 8001b58:	e064      	b.n	8001c24 <handleUART+0x22c>
		} else if (decodeASCII(UARTRxData[1]) == 1) {
 8001b5a:	4b38      	ldr	r3, [pc, #224]	; (8001c3c <handleUART+0x244>)
 8001b5c:	785b      	ldrb	r3, [r3, #1]
 8001b5e:	4618      	mov	r0, r3
 8001b60:	f000 f880 	bl	8001c64 <decodeASCII>
 8001b64:	4603      	mov	r3, r0
 8001b66:	2b01      	cmp	r3, #1
 8001b68:	d15c      	bne.n	8001c24 <handleUART+0x22c>
			resetSPIFlash(&hspi2, huart, cs_spi2);
 8001b6a:	4b38      	ldr	r3, [pc, #224]	; (8001c4c <handleUART+0x254>)
 8001b6c:	cb0c      	ldmia	r3, {r2, r3}
 8001b6e:	6879      	ldr	r1, [r7, #4]
 8001b70:	4837      	ldr	r0, [pc, #220]	; (8001c50 <handleUART+0x258>)
 8001b72:	f000 fa55 	bl	8002020 <resetSPIFlash>
 8001b76:	e055      	b.n	8001c24 <handleUART+0x22c>
		}
	}

/*********************************** I2C Accelerometer ***********************************/
	// Read Accelerometer WhoAmI (data_rx[0] = "c")
	else if (UARTRxData[0] == 0x63) {
 8001b78:	4b30      	ldr	r3, [pc, #192]	; (8001c3c <handleUART+0x244>)
 8001b7a:	781b      	ldrb	r3, [r3, #0]
 8001b7c:	2b63      	cmp	r3, #99	; 0x63
 8001b7e:	d106      	bne.n	8001b8e <handleUART+0x196>
		checkAccelWhoAmI(i2c_accel, huart);
 8001b80:	4b34      	ldr	r3, [pc, #208]	; (8001c54 <handleUART+0x25c>)
 8001b82:	681b      	ldr	r3, [r3, #0]
 8001b84:	6879      	ldr	r1, [r7, #4]
 8001b86:	4618      	mov	r0, r3
 8001b88:	f000 fa62 	bl	8002050 <checkAccelWhoAmI>
 8001b8c:	e04a      	b.n	8001c24 <handleUART+0x22c>
	}

	// Read the accelerometer and print to the UART[0] (data_rx [0] = "a")
	else if (UARTRxData[0] == 0x61) {
 8001b8e:	4b2b      	ldr	r3, [pc, #172]	; (8001c3c <handleUART+0x244>)
 8001b90:	781b      	ldrb	r3, [r3, #0]
 8001b92:	2b61      	cmp	r3, #97	; 0x61
 8001b94:	d103      	bne.n	8001b9e <handleUART+0x1a6>
		accelToUART(huart);
 8001b96:	6878      	ldr	r0, [r7, #4]
 8001b98:	f000 fa6e 	bl	8002078 <accelToUART>
 8001b9c:	e042      	b.n	8001c24 <handleUART+0x22c>
	}

/********************************** I2C BME280 *******************************************/
	// Read the temp sensor ID and print to the UART[0] (data_rx [0]= "b")
	else if (UARTRxData[0] == 0x62) {
 8001b9e:	4b27      	ldr	r3, [pc, #156]	; (8001c3c <handleUART+0x244>)
 8001ba0:	781b      	ldrb	r3, [r3, #0]
 8001ba2:	2b62      	cmp	r3, #98	; 0x62
 8001ba4:	d10d      	bne.n	8001bc2 <handleUART+0x1ca>
		readTempSensorID(i2c_bme280, huart, decodeASCII(UARTRxData[1]));
 8001ba6:	4b2c      	ldr	r3, [pc, #176]	; (8001c58 <handleUART+0x260>)
 8001ba8:	681c      	ldr	r4, [r3, #0]
 8001baa:	4b24      	ldr	r3, [pc, #144]	; (8001c3c <handleUART+0x244>)
 8001bac:	785b      	ldrb	r3, [r3, #1]
 8001bae:	4618      	mov	r0, r3
 8001bb0:	f000 f858 	bl	8001c64 <decodeASCII>
 8001bb4:	4603      	mov	r3, r0
 8001bb6:	461a      	mov	r2, r3
 8001bb8:	6879      	ldr	r1, [r7, #4]
 8001bba:	4620      	mov	r0, r4
 8001bbc:	f000 fa78 	bl	80020b0 <readTempSensorID>
 8001bc0:	e030      	b.n	8001c24 <handleUART+0x22c>
	}

	// Read the temp sensor calibration registers and print to the UART (data_rx[0] = "p")
	else if (UARTRxData[0] == 0x70) {
 8001bc2:	4b1e      	ldr	r3, [pc, #120]	; (8001c3c <handleUART+0x244>)
 8001bc4:	781b      	ldrb	r3, [r3, #0]
 8001bc6:	2b70      	cmp	r3, #112	; 0x70
 8001bc8:	d10d      	bne.n	8001be6 <handleUART+0x1ee>
		readTempCalibration(i2c_bme280, huart, decodeASCII(UARTRxData[1]));
 8001bca:	4b23      	ldr	r3, [pc, #140]	; (8001c58 <handleUART+0x260>)
 8001bcc:	681c      	ldr	r4, [r3, #0]
 8001bce:	4b1b      	ldr	r3, [pc, #108]	; (8001c3c <handleUART+0x244>)
 8001bd0:	785b      	ldrb	r3, [r3, #1]
 8001bd2:	4618      	mov	r0, r3
 8001bd4:	f000 f846 	bl	8001c64 <decodeASCII>
 8001bd8:	4603      	mov	r3, r0
 8001bda:	461a      	mov	r2, r3
 8001bdc:	6879      	ldr	r1, [r7, #4]
 8001bde:	4620      	mov	r0, r4
 8001be0:	f000 fa7b 	bl	80020da <readTempCalibration>
 8001be4:	e01e      	b.n	8001c24 <handleUART+0x22c>
	}

	// Read the temp sensor and print to the UART[0] (data_rx [0]= "t")
	else if (UARTRxData[0] == 0x74) {
 8001be6:	4b15      	ldr	r3, [pc, #84]	; (8001c3c <handleUART+0x244>)
 8001be8:	781b      	ldrb	r3, [r3, #0]
 8001bea:	2b74      	cmp	r3, #116	; 0x74
 8001bec:	d10a      	bne.n	8001c04 <handleUART+0x20c>
		readTempSensor(huart, decodeASCII(UARTRxData[1]));
 8001bee:	4b13      	ldr	r3, [pc, #76]	; (8001c3c <handleUART+0x244>)
 8001bf0:	785b      	ldrb	r3, [r3, #1]
 8001bf2:	4618      	mov	r0, r3
 8001bf4:	f000 f836 	bl	8001c64 <decodeASCII>
 8001bf8:	4603      	mov	r3, r0
 8001bfa:	4619      	mov	r1, r3
 8001bfc:	6878      	ldr	r0, [r7, #4]
 8001bfe:	f000 fac3 	bl	8002188 <readTempSensor>
 8001c02:	e00f      	b.n	8001c24 <handleUART+0x22c>
	}

	/********************************** CAN Bus *******************************************/
	// Send the second byte received over the CAN bus as a payload with id 0x700 (data_rx [0]= "n")
	else if (UARTRxData[0] == 0x6E) {
 8001c04:	4b0d      	ldr	r3, [pc, #52]	; (8001c3c <handleUART+0x244>)
 8001c06:	781b      	ldrb	r3, [r3, #0]
 8001c08:	2b6e      	cmp	r3, #110	; 0x6e
 8001c0a:	d10b      	bne.n	8001c24 <handleUART+0x22c>
		uint8_t TxData[1] = {UARTRxData[1]};
 8001c0c:	4b0b      	ldr	r3, [pc, #44]	; (8001c3c <handleUART+0x244>)
 8001c0e:	785b      	ldrb	r3, [r3, #1]
 8001c10:	703b      	strb	r3, [r7, #0]
		sendCAN_TxMessage(&hcan2, 1, TxData, &CAN_TxMailbox, DUMMY_ID);
 8001c12:	463a      	mov	r2, r7
 8001c14:	f44f 63e0 	mov.w	r3, #1792	; 0x700
 8001c18:	9300      	str	r3, [sp, #0]
 8001c1a:	4b10      	ldr	r3, [pc, #64]	; (8001c5c <handleUART+0x264>)
 8001c1c:	2101      	movs	r1, #1
 8001c1e:	4810      	ldr	r0, [pc, #64]	; (8001c60 <handleUART+0x268>)
 8001c20:	f7fe fdf4 	bl	800080c <sendCAN_TxMessage>
	}

	UARTRxData[0] = 0x00;
 8001c24:	4b05      	ldr	r3, [pc, #20]	; (8001c3c <handleUART+0x244>)
 8001c26:	2200      	movs	r2, #0
 8001c28:	701a      	strb	r2, [r3, #0]
	UARTRxData[1] = 0x00;
 8001c2a:	4b04      	ldr	r3, [pc, #16]	; (8001c3c <handleUART+0x244>)
 8001c2c:	2200      	movs	r2, #0
 8001c2e:	705a      	strb	r2, [r3, #1]
}
 8001c30:	bf00      	nop
 8001c32:	370c      	adds	r7, #12
 8001c34:	46bd      	mov	sp, r7
 8001c36:	bd90      	pop	{r4, r7, pc}
 8001c38:	20000338 	.word	0x20000338
 8001c3c:	20000388 	.word	0x20000388
 8001c40:	2000061d 	.word	0x2000061d
 8001c44:	200005f4 	.word	0x200005f4
 8001c48:	20000138 	.word	0x20000138
 8001c4c:	20000604 	.word	0x20000604
 8001c50:	20000190 	.word	0x20000190
 8001c54:	20000380 	.word	0x20000380
 8001c58:	20000384 	.word	0x20000384
 8001c5c:	2000038c 	.word	0x2000038c
 8001c60:	20000048 	.word	0x20000048

08001c64 <decodeASCII>:

uint8_t decodeASCII(uint8_t asciiVal) {
 8001c64:	b480      	push	{r7}
 8001c66:	b085      	sub	sp, #20
 8001c68:	af00      	add	r7, sp, #0
 8001c6a:	4603      	mov	r3, r0
 8001c6c:	71fb      	strb	r3, [r7, #7]
	int returnVal = -1;
 8001c6e:	f04f 33ff 	mov.w	r3, #4294967295	; 0xffffffff
 8001c72:	60fb      	str	r3, [r7, #12]
	if ((asciiVal >= 48) && (asciiVal <= 57)) {
 8001c74:	79fb      	ldrb	r3, [r7, #7]
 8001c76:	2b2f      	cmp	r3, #47	; 0x2f
 8001c78:	d905      	bls.n	8001c86 <decodeASCII+0x22>
 8001c7a:	79fb      	ldrb	r3, [r7, #7]
 8001c7c:	2b39      	cmp	r3, #57	; 0x39
 8001c7e:	d802      	bhi.n	8001c86 <decodeASCII+0x22>
		returnVal = asciiVal - 48;
 8001c80:	79fb      	ldrb	r3, [r7, #7]
 8001c82:	3b30      	subs	r3, #48	; 0x30
 8001c84:	60fb      	str	r3, [r7, #12]
	}
	return returnVal;
 8001c86:	68fb      	ldr	r3, [r7, #12]
 8001c88:	b2db      	uxtb	r3, r3
}
 8001c8a:	4618      	mov	r0, r3
 8001c8c:	3714      	adds	r7, #20
 8001c8e:	46bd      	mov	sp, r7
 8001c90:	f85d 7b04 	ldr.w	r7, [sp], #4
 8001c94:	4770      	bx	lr
	...

08001c98 <combine_system_status>:

uint8_t combine_system_status() {
 8001c98:	b480      	push	{r7}
 8001c9a:	b083      	sub	sp, #12
 8001c9c:	af00      	add	r7, sp, #0
    // Mask status to use only bits 4:0
    uint8_t masked_status = sysStatus & 0x1F; 			// 0001 1111b
 8001c9e:	4b0c      	ldr	r3, [pc, #48]	; (8001cd0 <combine_system_status+0x38>)
 8001ca0:	781b      	ldrb	r3, [r3, #0]
 8001ca2:	f003 031f 	and.w	r3, r3, #31
 8001ca6:	71fb      	strb	r3, [r7, #7]

    // Mask flight_state to use only bits 2:0
    uint8_t masked_flight_state = flight_state & 0x07; 	// 0000 0111b
 8001ca8:	4b0a      	ldr	r3, [pc, #40]	; (8001cd4 <combine_system_status+0x3c>)
 8001caa:	781b      	ldrb	r3, [r3, #0]
 8001cac:	f003 0307 	and.w	r3, r3, #7
 8001cb0:	71bb      	strb	r3, [r7, #6]
    // Shift flight_state to the correct position (bits 7:5)
    uint8_t shifted_flight_state = masked_flight_state << 5;
 8001cb2:	79bb      	ldrb	r3, [r7, #6]
 8001cb4:	015b      	lsls	r3, r3, #5
 8001cb6:	717b      	strb	r3, [r7, #5]

    // Combine the masked_status and shifted_flight_state
    uint8_t combined_value = masked_status | shifted_flight_state;
 8001cb8:	79fa      	ldrb	r2, [r7, #7]
 8001cba:	797b      	ldrb	r3, [r7, #5]
 8001cbc:	4313      	orrs	r3, r2
 8001cbe:	713b      	strb	r3, [r7, #4]

    return combined_value;
 8001cc0:	793b      	ldrb	r3, [r7, #4]
}
 8001cc2:	4618      	mov	r0, r3
 8001cc4:	370c      	adds	r7, #12
 8001cc6:	46bd      	mov	sp, r7
 8001cc8:	f85d 7b04 	ldr.w	r7, [sp], #4
 8001ccc:	4770      	bx	lr
 8001cce:	bf00      	nop
 8001cd0:	2000061d 	.word	0x2000061d
 8001cd4:	2000061e 	.word	0x2000061e

08001cd8 <configureCAN>:

void configureCAN() {
 8001cd8:	b580      	push	{r7, lr}
 8001cda:	b08a      	sub	sp, #40	; 0x28
 8001cdc:	af00      	add	r7, sp, #0
	CAN_FilterTypeDef canFilterConfig;

	canFilterConfig.FilterActivation = CAN_FILTER_ENABLE;
 8001cde:	2301      	movs	r3, #1
 8001ce0:	623b      	str	r3, [r7, #32]
	canFilterConfig.FilterBank = 10;
 8001ce2:	230a      	movs	r3, #10
 8001ce4:	617b      	str	r3, [r7, #20]
	canFilterConfig.FilterFIFOAssignment = CAN_RX_FIFO0;
 8001ce6:	2300      	movs	r3, #0
 8001ce8:	613b      	str	r3, [r7, #16]
	canFilterConfig.FilterIdHigh = 0x500 << 5;				// Filter only messages with ID 1X1XXXXXXXXb
 8001cea:	f44f 4320 	mov.w	r3, #40960	; 0xa000
 8001cee:	603b      	str	r3, [r7, #0]
	canFilterConfig.FilterIdLow = 0x0000;
 8001cf0:	2300      	movs	r3, #0
 8001cf2:	607b      	str	r3, [r7, #4]
	canFilterConfig.FilterMaskIdHigh = 0x500 << 5;
 8001cf4:	f44f 4320 	mov.w	r3, #40960	; 0xa000
 8001cf8:	60bb      	str	r3, [r7, #8]
	canFilterConfig.FilterMaskIdLow = 0x0000;
 8001cfa:	2300      	movs	r3, #0
 8001cfc:	60fb      	str	r3, [r7, #12]
	canFilterConfig.FilterMode = CAN_FILTERMODE_IDMASK;
 8001cfe:	2300      	movs	r3, #0
 8001d00:	61bb      	str	r3, [r7, #24]
	canFilterConfig.FilterScale = CAN_FILTERSCALE_32BIT;
 8001d02:	2301      	movs	r3, #1
 8001d04:	61fb      	str	r3, [r7, #28]
	canFilterConfig.SlaveStartFilterBank = 0;
 8001d06:	2300      	movs	r3, #0
 8001d08:	627b      	str	r3, [r7, #36]	; 0x24

	HAL_CAN_ConfigFilter(&hcan2, &canFilterConfig);
 8001d0a:	463b      	mov	r3, r7
 8001d0c:	4619      	mov	r1, r3
 8001d0e:	4803      	ldr	r0, [pc, #12]	; (8001d1c <configureCAN+0x44>)
 8001d10:	f001 fa48 	bl	80031a4 <HAL_CAN_ConfigFilter>
}
 8001d14:	bf00      	nop
 8001d16:	3728      	adds	r7, #40	; 0x28
 8001d18:	46bd      	mov	sp, r7
 8001d1a:	bd80      	pop	{r7, pc}
 8001d1c:	20000048 	.word	0x20000048

08001d20 <Error_Handler>:
/**
  * @brief  This function is executed in case of error occurrence.
  * @retval None
  */
void Error_Handler(void)
{
 8001d20:	b480      	push	{r7}
 8001d22:	af00      	add	r7, sp, #0
  \details Disables IRQ interrupts by setting special-purpose register PRIMASK.
           Can only be executed in Privileged modes.
 */
__STATIC_FORCEINLINE void __disable_irq(void)
{
  __ASM volatile ("cpsid i" : : : "memory");
 8001d24:	b672      	cpsid	i
}
 8001d26:	bf00      	nop
  /* USER CODE BEGIN Error_Handler_Debug */
  /* User can add his own implementation to report the HAL error return state */
  __disable_irq();
  while (1)
 8001d28:	e7fe      	b.n	8001d28 <Error_Handler+0x8>
	...

08001d2c <systemStatus>:

#include "peripheral_driver.h"
/***************************************************************************************************************
 * Generic Functions
 */
uint8_t systemStatus(SPI_HandleTypeDef *hspi1, SPI_HandleTypeDef *hspi2, I2C_HandleTypeDef* hi2c1, I2C_HandleTypeDef* hi2c2) {
 8001d2c:	b580      	push	{r7, lr}
 8001d2e:	b086      	sub	sp, #24
 8001d30:	af00      	add	r7, sp, #0
 8001d32:	60f8      	str	r0, [r7, #12]
 8001d34:	60b9      	str	r1, [r7, #8]
 8001d36:	607a      	str	r2, [r7, #4]
 8001d38:	603b      	str	r3, [r7, #0]
	uint8_t retVal = 0x00;
 8001d3a:	2300      	movs	r3, #0
 8001d3c:	75fb      	strb	r3, [r7, #23]

	// Check BME280_1
	if(readBME280_id_reg(hi2c1, 1) != 0x60) {			// Expected 0x60
 8001d3e:	2101      	movs	r1, #1
 8001d40:	6878      	ldr	r0, [r7, #4]
 8001d42:	f7fe fcf3 	bl	800072c <readBME280_id_reg>
 8001d46:	4603      	mov	r3, r0
 8001d48:	2b60      	cmp	r3, #96	; 0x60
 8001d4a:	d003      	beq.n	8001d54 <systemStatus+0x28>
		retVal  = retVal | 0x10;
 8001d4c:	7dfb      	ldrb	r3, [r7, #23]
 8001d4e:	f043 0310 	orr.w	r3, r3, #16
 8001d52:	75fb      	strb	r3, [r7, #23]
	}

	// Check BME280_0
	if(readBME280_id_reg(hi2c1, 0) != 0x60) {			// Expected 0x60
 8001d54:	2100      	movs	r1, #0
 8001d56:	6878      	ldr	r0, [r7, #4]
 8001d58:	f7fe fce8 	bl	800072c <readBME280_id_reg>
 8001d5c:	4603      	mov	r3, r0
 8001d5e:	2b60      	cmp	r3, #96	; 0x60
 8001d60:	d003      	beq.n	8001d6a <systemStatus+0x3e>
		retVal  = retVal | 0x08;
 8001d62:	7dfb      	ldrb	r3, [r7, #23]
 8001d64:	f043 0308 	orr.w	r3, r3, #8
 8001d68:	75fb      	strb	r3, [r7, #23]
	}

	// Check Accelerometer
	if(readAccel_whoami(hi2c2) != 0xE5) {				// Expected 0xE5
 8001d6a:	6838      	ldr	r0, [r7, #0]
 8001d6c:	f7fe fc20 	bl	80005b0 <readAccel_whoami>
 8001d70:	4603      	mov	r3, r0
 8001d72:	2be5      	cmp	r3, #229	; 0xe5
 8001d74:	d003      	beq.n	8001d7e <systemStatus+0x52>
		retVal  = retVal | 0x04;
 8001d76:	7dfb      	ldrb	r3, [r7, #23]
 8001d78:	f043 0304 	orr.w	r3, r3, #4
 8001d7c:	75fb      	strb	r3, [r7, #23]
	}

	// Check SPIFlash_1
	uint8_t manu[2] = {0, 0};
 8001d7e:	2300      	movs	r3, #0
 8001d80:	82bb      	strh	r3, [r7, #20]
	read_manufacturer_id(manu, hspi2, cs_spi2);
 8001d82:	4b11      	ldr	r3, [pc, #68]	; (8001dc8 <systemStatus+0x9c>)
 8001d84:	f107 0014 	add.w	r0, r7, #20
 8001d88:	cb0c      	ldmia	r3, {r2, r3}
 8001d8a:	68b9      	ldr	r1, [r7, #8]
 8001d8c:	f7fe ff0e 	bl	8000bac <read_manufacturer_id>
	if(manu[0] != 0xEF) {								// Expected 0xEF
 8001d90:	7d3b      	ldrb	r3, [r7, #20]
 8001d92:	2bef      	cmp	r3, #239	; 0xef
 8001d94:	d003      	beq.n	8001d9e <systemStatus+0x72>
		retVal  = retVal | 0x02;
 8001d96:	7dfb      	ldrb	r3, [r7, #23]
 8001d98:	f043 0302 	orr.w	r3, r3, #2
 8001d9c:	75fb      	strb	r3, [r7, #23]
	}

	// Check SPIFlash_0
	uint8_t manu0[2] = {0, 0};
 8001d9e:	2300      	movs	r3, #0
 8001da0:	823b      	strh	r3, [r7, #16]
	read_manufacturer_id(manu0, hspi1, cs_spi1);
 8001da2:	4b0a      	ldr	r3, [pc, #40]	; (8001dcc <systemStatus+0xa0>)
 8001da4:	f107 0010 	add.w	r0, r7, #16
 8001da8:	cb0c      	ldmia	r3, {r2, r3}
 8001daa:	68f9      	ldr	r1, [r7, #12]
 8001dac:	f7fe fefe 	bl	8000bac <read_manufacturer_id>
	if(manu0[0] != 0xEF) {								// Expected 0xEF
 8001db0:	7c3b      	ldrb	r3, [r7, #16]
 8001db2:	2bef      	cmp	r3, #239	; 0xef
 8001db4:	d003      	beq.n	8001dbe <systemStatus+0x92>
		retVal  = retVal | 0x01;
 8001db6:	7dfb      	ldrb	r3, [r7, #23]
 8001db8:	f043 0301 	orr.w	r3, r3, #1
 8001dbc:	75fb      	strb	r3, [r7, #23]
	}
	return retVal;
 8001dbe:	7dfb      	ldrb	r3, [r7, #23]
}
 8001dc0:	4618      	mov	r0, r3
 8001dc2:	3718      	adds	r7, #24
 8001dc4:	46bd      	mov	sp, r7
 8001dc6:	bd80      	pop	{r7, pc}
 8001dc8:	20000604 	.word	0x20000604
 8001dcc:	200005f4 	.word	0x200005f4

08001dd0 <heartbeatUART>:

void heartbeatUART(UART_HandleTypeDef *huart) {
 8001dd0:	b580      	push	{r7, lr}
 8001dd2:	b082      	sub	sp, #8
 8001dd4:	af00      	add	r7, sp, #0
 8001dd6:	6078      	str	r0, [r7, #4]
	send_uart_hex(huart, 0x51);			// Transmit the heartbeat as device ID (0x51 = Q)
 8001dd8:	2151      	movs	r1, #81	; 0x51
 8001dda:	6878      	ldr	r0, [r7, #4]
 8001ddc:	f001 f811 	bl	8002e02 <send_uart_hex>
}
 8001de0:	bf00      	nop
 8001de2:	3708      	adds	r7, #8
 8001de4:	46bd      	mov	sp, r7
 8001de6:	bd80      	pop	{r7, pc}

08001de8 <eraseFlashSPI>:

/***************************************************************************************************************
 * SPI Flash Functions
 */
void eraseFlashSPI(SPI_HandleTypeDef *hspi, UART_HandleTypeDef *huart, GPIO_Config config) {
 8001de8:	b580      	push	{r7, lr}
 8001dea:	b084      	sub	sp, #16
 8001dec:	af00      	add	r7, sp, #0
 8001dee:	60f8      	str	r0, [r7, #12]
 8001df0:	60b9      	str	r1, [r7, #8]
 8001df2:	4639      	mov	r1, r7
 8001df4:	e881 000c 	stmia.w	r1, {r2, r3}
	HAL_GPIO_WritePin(GPIOB, GPIO_PIN_7, GPIO_PIN_SET);		// Activate the "write out" LED
 8001df8:	2201      	movs	r2, #1
 8001dfa:	2180      	movs	r1, #128	; 0x80
 8001dfc:	4813      	ldr	r0, [pc, #76]	; (8001e4c <eraseFlashSPI+0x64>)
 8001dfe:	f002 fe15 	bl	8004a2c <HAL_GPIO_WritePin>
	if (erase_chip_spi(hspi, config) == HAL_OK) {
 8001e02:	463b      	mov	r3, r7
 8001e04:	e893 0006 	ldmia.w	r3, {r1, r2}
 8001e08:	68f8      	ldr	r0, [r7, #12]
 8001e0a:	f7fe fd83 	bl	8000914 <erase_chip_spi>
 8001e0e:	4603      	mov	r3, r0
 8001e10:	2b00      	cmp	r3, #0
 8001e12:	d10d      	bne.n	8001e30 <eraseFlashSPI+0x48>
		send_uart_string(huart, "Successful Chip Erase\r\n");
 8001e14:	490e      	ldr	r1, [pc, #56]	; (8001e50 <eraseFlashSPI+0x68>)
 8001e16:	68b8      	ldr	r0, [r7, #8]
 8001e18:	f000 ffdf 	bl	8002dda <send_uart_string>
		next_blank_page = find_next_blank_page(hspi, &end_of_flash, config);
 8001e1c:	463b      	mov	r3, r7
 8001e1e:	cb0c      	ldmia	r3, {r2, r3}
 8001e20:	490c      	ldr	r1, [pc, #48]	; (8001e54 <eraseFlashSPI+0x6c>)
 8001e22:	68f8      	ldr	r0, [r7, #12]
 8001e24:	f7fe fe04 	bl	8000a30 <find_next_blank_page>
 8001e28:	4603      	mov	r3, r0
 8001e2a:	4a0b      	ldr	r2, [pc, #44]	; (8001e58 <eraseFlashSPI+0x70>)
 8001e2c:	6013      	str	r3, [r2, #0]
 8001e2e:	e003      	b.n	8001e38 <eraseFlashSPI+0x50>
	} else {
		send_uart_string(huart, "Error during chip erase. Please check the connection and try again.\r\n");
 8001e30:	490a      	ldr	r1, [pc, #40]	; (8001e5c <eraseFlashSPI+0x74>)
 8001e32:	68b8      	ldr	r0, [r7, #8]
 8001e34:	f000 ffd1 	bl	8002dda <send_uart_string>
	}
	HAL_GPIO_WritePin(GPIOB, GPIO_PIN_7,GPIO_PIN_RESET);	// Deactivate the "write out" LED
 8001e38:	2200      	movs	r2, #0
 8001e3a:	2180      	movs	r1, #128	; 0x80
 8001e3c:	4803      	ldr	r0, [pc, #12]	; (8001e4c <eraseFlashSPI+0x64>)
 8001e3e:	f002 fdf5 	bl	8004a2c <HAL_GPIO_WritePin>
}
 8001e42:	bf00      	nop
 8001e44:	3710      	adds	r7, #16
 8001e46:	46bd      	mov	sp, r7
 8001e48:	bd80      	pop	{r7, pc}
 8001e4a:	bf00      	nop
 8001e4c:	40020400 	.word	0x40020400
 8001e50:	08009364 	.word	0x08009364
 8001e54:	200005da 	.word	0x200005da
 8001e58:	200005d4 	.word	0x200005d4
 8001e5c:	0800937c 	.word	0x0800937c

08001e60 <readFlashToUART>:

void readFlashToUART(SPI_HandleTypeDef *hspi, UART_HandleTypeDef *huart, GPIO_Config config) {
 8001e60:	b590      	push	{r4, r7, lr}
 8001e62:	b0cb      	sub	sp, #300	; 0x12c
 8001e64:	af02      	add	r7, sp, #8
 8001e66:	f507 7490 	add.w	r4, r7, #288	; 0x120
 8001e6a:	f5a4 748a 	sub.w	r4, r4, #276	; 0x114
 8001e6e:	6020      	str	r0, [r4, #0]
 8001e70:	f507 7090 	add.w	r0, r7, #288	; 0x120
 8001e74:	f5a0 708c 	sub.w	r0, r0, #280	; 0x118
 8001e78:	6001      	str	r1, [r0, #0]
 8001e7a:	f507 7190 	add.w	r1, r7, #288	; 0x120
 8001e7e:	f5a1 7190 	sub.w	r1, r1, #288	; 0x120
 8001e82:	e881 000c 	stmia.w	r1, {r2, r3}
	uint32_t num_of_pages = next_blank_page;
 8001e86:	4b2a      	ldr	r3, [pc, #168]	; (8001f30 <readFlashToUART+0xd0>)
 8001e88:	681b      	ldr	r3, [r3, #0]
 8001e8a:	f8c7 311c 	str.w	r3, [r7, #284]	; 0x11c
	if(num_of_pages == 0) {
 8001e8e:	f8d7 311c 	ldr.w	r3, [r7, #284]	; 0x11c
 8001e92:	2b00      	cmp	r3, #0
 8001e94:	d103      	bne.n	8001e9e <readFlashToUART+0x3e>
		num_of_pages = PAGE_SIZE;
 8001e96:	f44f 7380 	mov.w	r3, #256	; 0x100
 8001e9a:	f8c7 311c 	str.w	r3, [r7, #284]	; 0x11c
	}
	num_of_pages = num_of_pages/PAGE_SIZE;
 8001e9e:	f8d7 311c 	ldr.w	r3, [r7, #284]	; 0x11c
 8001ea2:	0a1b      	lsrs	r3, r3, #8
 8001ea4:	f8c7 311c 	str.w	r3, [r7, #284]	; 0x11c
	uint32_t address = 0;
 8001ea8:	2300      	movs	r3, #0
 8001eaa:	f8c7 3118 	str.w	r3, [r7, #280]	; 0x118
	HAL_GPIO_WritePin(GPIOB, GPIO_PIN_7,GPIO_PIN_SET);		// Activate the "write out" LED
 8001eae:	2201      	movs	r2, #1
 8001eb0:	2180      	movs	r1, #128	; 0x80
 8001eb2:	4820      	ldr	r0, [pc, #128]	; (8001f34 <readFlashToUART+0xd4>)
 8001eb4:	f002 fdba 	bl	8004a2c <HAL_GPIO_WritePin>

	for (int i = 0; i < (num_of_pages); i++) {
 8001eb8:	2300      	movs	r3, #0
 8001eba:	f8c7 3114 	str.w	r3, [r7, #276]	; 0x114
 8001ebe:	e026      	b.n	8001f0e <readFlashToUART+0xae>
		uint8_t page[PAGE_SIZE];
		read_page_spi(page, hspi, address, config);
 8001ec0:	f507 7390 	add.w	r3, r7, #288	; 0x120
 8001ec4:	f5a3 7390 	sub.w	r3, r3, #288	; 0x120
 8001ec8:	f507 7290 	add.w	r2, r7, #288	; 0x120
 8001ecc:	f5a2 718a 	sub.w	r1, r2, #276	; 0x114
 8001ed0:	f107 0014 	add.w	r0, r7, #20
 8001ed4:	685a      	ldr	r2, [r3, #4]
 8001ed6:	9200      	str	r2, [sp, #0]
 8001ed8:	681b      	ldr	r3, [r3, #0]
 8001eda:	f8d7 2118 	ldr.w	r2, [r7, #280]	; 0x118
 8001ede:	6809      	ldr	r1, [r1, #0]
 8001ee0:	f7fe fe3e 	bl	8000b60 <read_page_spi>
		uart_transmit_page(huart, page);						// Transmit the data//
 8001ee4:	f107 0214 	add.w	r2, r7, #20
 8001ee8:	f507 7390 	add.w	r3, r7, #288	; 0x120
 8001eec:	f5a3 738c 	sub.w	r3, r3, #280	; 0x118
 8001ef0:	4611      	mov	r1, r2
 8001ef2:	6818      	ldr	r0, [r3, #0]
 8001ef4:	f000 ff60 	bl	8002db8 <uart_transmit_page>
		address += PAGE_SIZE;
 8001ef8:	f8d7 3118 	ldr.w	r3, [r7, #280]	; 0x118
 8001efc:	f503 7380 	add.w	r3, r3, #256	; 0x100
 8001f00:	f8c7 3118 	str.w	r3, [r7, #280]	; 0x118
	for (int i = 0; i < (num_of_pages); i++) {
 8001f04:	f8d7 3114 	ldr.w	r3, [r7, #276]	; 0x114
 8001f08:	3301      	adds	r3, #1
 8001f0a:	f8c7 3114 	str.w	r3, [r7, #276]	; 0x114
 8001f0e:	f8d7 3114 	ldr.w	r3, [r7, #276]	; 0x114
 8001f12:	f8d7 211c 	ldr.w	r2, [r7, #284]	; 0x11c
 8001f16:	429a      	cmp	r2, r3
 8001f18:	d8d2      	bhi.n	8001ec0 <readFlashToUART+0x60>
	}

	HAL_GPIO_WritePin(GPIOB, GPIO_PIN_7,GPIO_PIN_RESET);	// Deactivate the "write out" LED
 8001f1a:	2200      	movs	r2, #0
 8001f1c:	2180      	movs	r1, #128	; 0x80
 8001f1e:	4805      	ldr	r0, [pc, #20]	; (8001f34 <readFlashToUART+0xd4>)
 8001f20:	f002 fd84 	bl	8004a2c <HAL_GPIO_WritePin>
}
 8001f24:	bf00      	nop
 8001f26:	f507 7792 	add.w	r7, r7, #292	; 0x124
 8001f2a:	46bd      	mov	sp, r7
 8001f2c:	bd90      	pop	{r4, r7, pc}
 8001f2e:	bf00      	nop
 8001f30:	200005d4 	.word	0x200005d4
 8001f34:	40020400 	.word	0x40020400

08001f38 <readFlashManuSPI>:

void readFlashManuSPI(SPI_HandleTypeDef *hspi, UART_HandleTypeDef *huart, GPIO_Config config) {
 8001f38:	b580      	push	{r7, lr}
 8001f3a:	b086      	sub	sp, #24
 8001f3c:	af00      	add	r7, sp, #0
 8001f3e:	60f8      	str	r0, [r7, #12]
 8001f40:	60b9      	str	r1, [r7, #8]
 8001f42:	4639      	mov	r1, r7
 8001f44:	e881 000c 	stmia.w	r1, {r2, r3}
	uint8_t manu[2] = {0, 0};
 8001f48:	2300      	movs	r3, #0
 8001f4a:	82bb      	strh	r3, [r7, #20]
	read_manufacturer_id(manu, hspi, config);
 8001f4c:	f107 0014 	add.w	r0, r7, #20
 8001f50:	463b      	mov	r3, r7
 8001f52:	cb0c      	ldmia	r3, {r2, r3}
 8001f54:	68f9      	ldr	r1, [r7, #12]
 8001f56:	f7fe fe29 	bl	8000bac <read_manufacturer_id>
	send_uart_hex(huart, manu[0]);
 8001f5a:	7d3b      	ldrb	r3, [r7, #20]
 8001f5c:	4619      	mov	r1, r3
 8001f5e:	68b8      	ldr	r0, [r7, #8]
 8001f60:	f000 ff4f 	bl	8002e02 <send_uart_hex>
	send_uart_hex(huart, manu[1]);
 8001f64:	7d7b      	ldrb	r3, [r7, #21]
 8001f66:	4619      	mov	r1, r3
 8001f68:	68b8      	ldr	r0, [r7, #8]
 8001f6a:	f000 ff4a 	bl	8002e02 <send_uart_hex>
}
 8001f6e:	bf00      	nop
 8001f70:	3718      	adds	r7, #24
 8001f72:	46bd      	mov	sp, r7
 8001f74:	bd80      	pop	{r7, pc}
	...

08001f78 <writePageSPI_W>:

void writePageSPI_W(SPI_HandleTypeDef *hspi, UART_HandleTypeDef *huart, GPIO_Config config) {
 8001f78:	b590      	push	{r4, r7, lr}
 8001f7a:	b0c9      	sub	sp, #292	; 0x124
 8001f7c:	af02      	add	r7, sp, #8
 8001f7e:	f507 748c 	add.w	r4, r7, #280	; 0x118
 8001f82:	f5a4 7486 	sub.w	r4, r4, #268	; 0x10c
 8001f86:	6020      	str	r0, [r4, #0]
 8001f88:	f507 708c 	add.w	r0, r7, #280	; 0x118
 8001f8c:	f5a0 7088 	sub.w	r0, r0, #272	; 0x110
 8001f90:	6001      	str	r1, [r0, #0]
 8001f92:	f507 718c 	add.w	r1, r7, #280	; 0x118
 8001f96:	f5a1 718c 	sub.w	r1, r1, #280	; 0x118
 8001f9a:	e881 000c 	stmia.w	r1, {r2, r3}
	uint8_t data_out[PAGE_SIZE];
	for (int i = 0; i < PAGE_SIZE; i++) {
 8001f9e:	2300      	movs	r3, #0
 8001fa0:	f8c7 3114 	str.w	r3, [r7, #276]	; 0x114
 8001fa4:	e00d      	b.n	8001fc2 <writePageSPI_W+0x4a>
		data_out[i] = 0x77;		// Make all data in the page 'w'
 8001fa6:	f507 738c 	add.w	r3, r7, #280	; 0x118
 8001faa:	f5a3 7282 	sub.w	r2, r3, #260	; 0x104
 8001fae:	f8d7 3114 	ldr.w	r3, [r7, #276]	; 0x114
 8001fb2:	4413      	add	r3, r2
 8001fb4:	2277      	movs	r2, #119	; 0x77
 8001fb6:	701a      	strb	r2, [r3, #0]
	for (int i = 0; i < PAGE_SIZE; i++) {
 8001fb8:	f8d7 3114 	ldr.w	r3, [r7, #276]	; 0x114
 8001fbc:	3301      	adds	r3, #1
 8001fbe:	f8c7 3114 	str.w	r3, [r7, #276]	; 0x114
 8001fc2:	f8d7 3114 	ldr.w	r3, [r7, #276]	; 0x114
 8001fc6:	2bff      	cmp	r3, #255	; 0xff
 8001fc8:	dded      	ble.n	8001fa6 <writePageSPI_W+0x2e>
	}
	write_data_spi_dma(data_out, hspi, next_blank_page, config);
 8001fca:	4b13      	ldr	r3, [pc, #76]	; (8002018 <writePageSPI_W+0xa0>)
 8001fcc:	681c      	ldr	r4, [r3, #0]
 8001fce:	f507 738c 	add.w	r3, r7, #280	; 0x118
 8001fd2:	f5a3 738c 	sub.w	r3, r3, #280	; 0x118
 8001fd6:	f507 728c 	add.w	r2, r7, #280	; 0x118
 8001fda:	f5a2 7186 	sub.w	r1, r2, #268	; 0x10c
 8001fde:	f107 0014 	add.w	r0, r7, #20
 8001fe2:	685a      	ldr	r2, [r3, #4]
 8001fe4:	9200      	str	r2, [sp, #0]
 8001fe6:	681b      	ldr	r3, [r3, #0]
 8001fe8:	4622      	mov	r2, r4
 8001fea:	6809      	ldr	r1, [r1, #0]
 8001fec:	f7fe fcf2 	bl	80009d4 <write_data_spi_dma>
	next_blank_page += PAGE_SIZE;
 8001ff0:	4b09      	ldr	r3, [pc, #36]	; (8002018 <writePageSPI_W+0xa0>)
 8001ff2:	681b      	ldr	r3, [r3, #0]
 8001ff4:	f503 7380 	add.w	r3, r3, #256	; 0x100
 8001ff8:	4a07      	ldr	r2, [pc, #28]	; (8002018 <writePageSPI_W+0xa0>)
 8001ffa:	6013      	str	r3, [r2, #0]

	send_uart_string(huart, "Successful Page Written\r\n");
 8001ffc:	f507 738c 	add.w	r3, r7, #280	; 0x118
 8002000:	f5a3 7388 	sub.w	r3, r3, #272	; 0x110
 8002004:	4905      	ldr	r1, [pc, #20]	; (800201c <writePageSPI_W+0xa4>)
 8002006:	6818      	ldr	r0, [r3, #0]
 8002008:	f000 fee7 	bl	8002dda <send_uart_string>
}
 800200c:	bf00      	nop
 800200e:	f507 778e 	add.w	r7, r7, #284	; 0x11c
 8002012:	46bd      	mov	sp, r7
 8002014:	bd90      	pop	{r4, r7, pc}
 8002016:	bf00      	nop
 8002018:	200005d4 	.word	0x200005d4
 800201c:	080093c4 	.word	0x080093c4

08002020 <resetSPIFlash>:

void resetSPIFlash(SPI_HandleTypeDef *hspi, UART_HandleTypeDef *huart, GPIO_Config config) {
 8002020:	b580      	push	{r7, lr}
 8002022:	b084      	sub	sp, #16
 8002024:	af00      	add	r7, sp, #0
 8002026:	60f8      	str	r0, [r7, #12]
 8002028:	60b9      	str	r1, [r7, #8]
 800202a:	4639      	mov	r1, r7
 800202c:	e881 000c 	stmia.w	r1, {r2, r3}
	software_reset(hspi, config);
 8002030:	463b      	mov	r3, r7
 8002032:	e893 0006 	ldmia.w	r3, {r1, r2}
 8002036:	68f8      	ldr	r0, [r7, #12]
 8002038:	f7fe fca8 	bl	800098c <software_reset>
	send_uart_string(huart, "Flash Chip Reset\r\n");
 800203c:	4903      	ldr	r1, [pc, #12]	; (800204c <resetSPIFlash+0x2c>)
 800203e:	68b8      	ldr	r0, [r7, #8]
 8002040:	f000 fecb 	bl	8002dda <send_uart_string>
}
 8002044:	bf00      	nop
 8002046:	3710      	adds	r7, #16
 8002048:	46bd      	mov	sp, r7
 800204a:	bd80      	pop	{r7, pc}
 800204c:	080093e0 	.word	0x080093e0

08002050 <checkAccelWhoAmI>:
/***************************************************************************************************************
 * I2C Accelerometer Functions
 */
void checkAccelWhoAmI(I2C_HandleTypeDef* hi2c, UART_HandleTypeDef *huart) {
 8002050:	b580      	push	{r7, lr}
 8002052:	b084      	sub	sp, #16
 8002054:	af00      	add	r7, sp, #0
 8002056:	6078      	str	r0, [r7, #4]
 8002058:	6039      	str	r1, [r7, #0]
	uint8_t whoami = readAccel_whoami(hi2c);
 800205a:	6878      	ldr	r0, [r7, #4]
 800205c:	f7fe faa8 	bl	80005b0 <readAccel_whoami>
 8002060:	4603      	mov	r3, r0
 8002062:	73fb      	strb	r3, [r7, #15]
	send_uart_hex(huart, whoami);
 8002064:	7bfb      	ldrb	r3, [r7, #15]
 8002066:	4619      	mov	r1, r3
 8002068:	6838      	ldr	r0, [r7, #0]
 800206a:	f000 feca 	bl	8002e02 <send_uart_hex>
}
 800206e:	bf00      	nop
 8002070:	3710      	adds	r7, #16
 8002072:	46bd      	mov	sp, r7
 8002074:	bd80      	pop	{r7, pc}
	...

08002078 <accelToUART>:

void accelToUART(UART_HandleTypeDef *huart) {
 8002078:	b580      	push	{r7, lr}
 800207a:	b084      	sub	sp, #16
 800207c:	af00      	add	r7, sp, #0
 800207e:	6078      	str	r0, [r7, #4]
	for (int i = 0; i < 6; i++) {
 8002080:	2300      	movs	r3, #0
 8002082:	60fb      	str	r3, [r7, #12]
 8002084:	e00a      	b.n	800209c <accelToUART+0x24>
		send_uart_hex(huart, accel_data[i]);
 8002086:	4a09      	ldr	r2, [pc, #36]	; (80020ac <accelToUART+0x34>)
 8002088:	68fb      	ldr	r3, [r7, #12]
 800208a:	4413      	add	r3, r2
 800208c:	781b      	ldrb	r3, [r3, #0]
 800208e:	4619      	mov	r1, r3
 8002090:	6878      	ldr	r0, [r7, #4]
 8002092:	f000 feb6 	bl	8002e02 <send_uart_hex>
	for (int i = 0; i < 6; i++) {
 8002096:	68fb      	ldr	r3, [r7, #12]
 8002098:	3301      	adds	r3, #1
 800209a:	60fb      	str	r3, [r7, #12]
 800209c:	68fb      	ldr	r3, [r7, #12]
 800209e:	2b05      	cmp	r3, #5
 80020a0:	ddf1      	ble.n	8002086 <accelToUART+0xe>
	}
}
 80020a2:	bf00      	nop
 80020a4:	bf00      	nop
 80020a6:	3710      	adds	r7, #16
 80020a8:	46bd      	mov	sp, r7
 80020aa:	bd80      	pop	{r7, pc}
 80020ac:	200005bc 	.word	0x200005bc

080020b0 <readTempSensorID>:

/***************************************************************************************************************
 * I2C BME280 Sensor Functions
 */
void readTempSensorID(I2C_HandleTypeDef* hi2c, UART_HandleTypeDef *huart, uint8_t tempNo) {
 80020b0:	b580      	push	{r7, lr}
 80020b2:	b084      	sub	sp, #16
 80020b4:	af00      	add	r7, sp, #0
 80020b6:	60f8      	str	r0, [r7, #12]
 80020b8:	60b9      	str	r1, [r7, #8]
 80020ba:	4613      	mov	r3, r2
 80020bc:	71fb      	strb	r3, [r7, #7]
	send_uart_hex(huart, readBME280_id_reg(hi2c, tempNo));
 80020be:	79fb      	ldrb	r3, [r7, #7]
 80020c0:	4619      	mov	r1, r3
 80020c2:	68f8      	ldr	r0, [r7, #12]
 80020c4:	f7fe fb32 	bl	800072c <readBME280_id_reg>
 80020c8:	4603      	mov	r3, r0
 80020ca:	4619      	mov	r1, r3
 80020cc:	68b8      	ldr	r0, [r7, #8]
 80020ce:	f000 fe98 	bl	8002e02 <send_uart_hex>
}
 80020d2:	bf00      	nop
 80020d4:	3710      	adds	r7, #16
 80020d6:	46bd      	mov	sp, r7
 80020d8:	bd80      	pop	{r7, pc}

080020da <readTempCalibration>:

void readTempCalibration(I2C_HandleTypeDef* hi2c, UART_HandleTypeDef *huart, uint8_t tempNo) {
 80020da:	b580      	push	{r7, lr}
 80020dc:	b090      	sub	sp, #64	; 0x40
 80020de:	af00      	add	r7, sp, #0
 80020e0:	60f8      	str	r0, [r7, #12]
 80020e2:	60b9      	str	r1, [r7, #8]
 80020e4:	4613      	mov	r3, r2
 80020e6:	71fb      	strb	r3, [r7, #7]
	uint8_t calibration1[25];
	uint8_t calibration2[7];

	for (uint8_t i = 0; i < CALIB_CNT_1; i++) {
 80020e8:	2300      	movs	r3, #0
 80020ea:	f887 303f 	strb.w	r3, [r7, #63]	; 0x3f
 80020ee:	e016      	b.n	800211e <readTempCalibration+0x44>
		calibration1[i] = 0x00;
 80020f0:	f897 303f 	ldrb.w	r3, [r7, #63]	; 0x3f
 80020f4:	3340      	adds	r3, #64	; 0x40
 80020f6:	443b      	add	r3, r7
 80020f8:	2200      	movs	r2, #0
 80020fa:	f803 2c28 	strb.w	r2, [r3, #-40]
		if (i < CALIB_CNT_2) {
 80020fe:	f897 303f 	ldrb.w	r3, [r7, #63]	; 0x3f
 8002102:	2b06      	cmp	r3, #6
 8002104:	d806      	bhi.n	8002114 <readTempCalibration+0x3a>
			calibration2[i] = 0x00;
 8002106:	f897 303f 	ldrb.w	r3, [r7, #63]	; 0x3f
 800210a:	3340      	adds	r3, #64	; 0x40
 800210c:	443b      	add	r3, r7
 800210e:	2200      	movs	r2, #0
 8002110:	f803 2c30 	strb.w	r2, [r3, #-48]
	for (uint8_t i = 0; i < CALIB_CNT_1; i++) {
 8002114:	f897 303f 	ldrb.w	r3, [r7, #63]	; 0x3f
 8002118:	3301      	adds	r3, #1
 800211a:	f887 303f 	strb.w	r3, [r7, #63]	; 0x3f
 800211e:	f897 303f 	ldrb.w	r3, [r7, #63]	; 0x3f
 8002122:	2b18      	cmp	r3, #24
 8002124:	d9e4      	bls.n	80020f0 <readTempCalibration+0x16>
		}
	}

	readBME280_calib(hi2c, tempNo, calibration1, calibration2);
 8002126:	f107 0310 	add.w	r3, r7, #16
 800212a:	f107 0218 	add.w	r2, r7, #24
 800212e:	79f9      	ldrb	r1, [r7, #7]
 8002130:	68f8      	ldr	r0, [r7, #12]
 8002132:	f7fe fb17 	bl	8000764 <readBME280_calib>

	for (int i = 0; i < 25; i++) {
 8002136:	2300      	movs	r3, #0
 8002138:	63bb      	str	r3, [r7, #56]	; 0x38
 800213a:	e00b      	b.n	8002154 <readTempCalibration+0x7a>
	  send_uart_hex(huart, calibration1[i]);
 800213c:	f107 0218 	add.w	r2, r7, #24
 8002140:	6bbb      	ldr	r3, [r7, #56]	; 0x38
 8002142:	4413      	add	r3, r2
 8002144:	781b      	ldrb	r3, [r3, #0]
 8002146:	4619      	mov	r1, r3
 8002148:	68b8      	ldr	r0, [r7, #8]
 800214a:	f000 fe5a 	bl	8002e02 <send_uart_hex>
	for (int i = 0; i < 25; i++) {
 800214e:	6bbb      	ldr	r3, [r7, #56]	; 0x38
 8002150:	3301      	adds	r3, #1
 8002152:	63bb      	str	r3, [r7, #56]	; 0x38
 8002154:	6bbb      	ldr	r3, [r7, #56]	; 0x38
 8002156:	2b18      	cmp	r3, #24
 8002158:	ddf0      	ble.n	800213c <readTempCalibration+0x62>
	}

	for (int i = 0; i < 7; i++) {
 800215a:	2300      	movs	r3, #0
 800215c:	637b      	str	r3, [r7, #52]	; 0x34
 800215e:	e00b      	b.n	8002178 <readTempCalibration+0x9e>
	  send_uart_hex(huart, calibration2[i]);
 8002160:	f107 0210 	add.w	r2, r7, #16
 8002164:	6b7b      	ldr	r3, [r7, #52]	; 0x34
 8002166:	4413      	add	r3, r2
 8002168:	781b      	ldrb	r3, [r3, #0]
 800216a:	4619      	mov	r1, r3
 800216c:	68b8      	ldr	r0, [r7, #8]
 800216e:	f000 fe48 	bl	8002e02 <send_uart_hex>
	for (int i = 0; i < 7; i++) {
 8002172:	6b7b      	ldr	r3, [r7, #52]	; 0x34
 8002174:	3301      	adds	r3, #1
 8002176:	637b      	str	r3, [r7, #52]	; 0x34
 8002178:	6b7b      	ldr	r3, [r7, #52]	; 0x34
 800217a:	2b06      	cmp	r3, #6
 800217c:	ddf0      	ble.n	8002160 <readTempCalibration+0x86>
	}
}
 800217e:	bf00      	nop
 8002180:	bf00      	nop
 8002182:	3740      	adds	r7, #64	; 0x40
 8002184:	46bd      	mov	sp, r7
 8002186:	bd80      	pop	{r7, pc}

08002188 <readTempSensor>:

void readTempSensor(UART_HandleTypeDef *huart, uint8_t tempNo) {
 8002188:	b580      	push	{r7, lr}
 800218a:	b084      	sub	sp, #16
 800218c:	af00      	add	r7, sp, #0
 800218e:	6078      	str	r0, [r7, #4]
 8002190:	460b      	mov	r3, r1
 8002192:	70fb      	strb	r3, [r7, #3]
	if (tempNo == 0) {
 8002194:	78fb      	ldrb	r3, [r7, #3]
 8002196:	2b00      	cmp	r3, #0
 8002198:	d111      	bne.n	80021be <readTempSensor+0x36>
		for (int i = 0; i < 6; i++) {
 800219a:	2300      	movs	r3, #0
 800219c:	60fb      	str	r3, [r7, #12]
 800219e:	e00a      	b.n	80021b6 <readTempSensor+0x2e>
			send_uart_hex(huart, bme280_data_0[i]);
 80021a0:	4a13      	ldr	r2, [pc, #76]	; (80021f0 <readTempSensor+0x68>)
 80021a2:	68fb      	ldr	r3, [r7, #12]
 80021a4:	4413      	add	r3, r2
 80021a6:	781b      	ldrb	r3, [r3, #0]
 80021a8:	4619      	mov	r1, r3
 80021aa:	6878      	ldr	r0, [r7, #4]
 80021ac:	f000 fe29 	bl	8002e02 <send_uart_hex>
		for (int i = 0; i < 6; i++) {
 80021b0:	68fb      	ldr	r3, [r7, #12]
 80021b2:	3301      	adds	r3, #1
 80021b4:	60fb      	str	r3, [r7, #12]
 80021b6:	68fb      	ldr	r3, [r7, #12]
 80021b8:	2b05      	cmp	r3, #5
 80021ba:	ddf1      	ble.n	80021a0 <readTempSensor+0x18>
	} else if (tempNo == 1) {
		for (int i = 0; i < 6; i++) {
			send_uart_hex(huart, bme280_data_1[i]);
		}
	}
}
 80021bc:	e013      	b.n	80021e6 <readTempSensor+0x5e>
	} else if (tempNo == 1) {
 80021be:	78fb      	ldrb	r3, [r7, #3]
 80021c0:	2b01      	cmp	r3, #1
 80021c2:	d110      	bne.n	80021e6 <readTempSensor+0x5e>
		for (int i = 0; i < 6; i++) {
 80021c4:	2300      	movs	r3, #0
 80021c6:	60bb      	str	r3, [r7, #8]
 80021c8:	e00a      	b.n	80021e0 <readTempSensor+0x58>
			send_uart_hex(huart, bme280_data_1[i]);
 80021ca:	4a0a      	ldr	r2, [pc, #40]	; (80021f4 <readTempSensor+0x6c>)
 80021cc:	68bb      	ldr	r3, [r7, #8]
 80021ce:	4413      	add	r3, r2
 80021d0:	781b      	ldrb	r3, [r3, #0]
 80021d2:	4619      	mov	r1, r3
 80021d4:	6878      	ldr	r0, [r7, #4]
 80021d6:	f000 fe14 	bl	8002e02 <send_uart_hex>
		for (int i = 0; i < 6; i++) {
 80021da:	68bb      	ldr	r3, [r7, #8]
 80021dc:	3301      	adds	r3, #1
 80021de:	60bb      	str	r3, [r7, #8]
 80021e0:	68bb      	ldr	r3, [r7, #8]
 80021e2:	2b05      	cmp	r3, #5
 80021e4:	ddf1      	ble.n	80021ca <readTempSensor+0x42>
}
 80021e6:	bf00      	nop
 80021e8:	3710      	adds	r7, #16
 80021ea:	46bd      	mov	sp, r7
 80021ec:	bd80      	pop	{r7, pc}
 80021ee:	bf00      	nop
 80021f0:	200005c4 	.word	0x200005c4
 80021f4:	200005cc 	.word	0x200005cc

080021f8 <readAllSensors>:

/***************************************************************************************************************
 * Process All Sensors
 */
void readAllSensors(I2C_HandleTypeDef* hi2c_accel, I2C_HandleTypeDef* hi2c_temp, RTC_HandleTypeDef* hrtc) {
 80021f8:	b5b0      	push	{r4, r5, r7, lr}
 80021fa:	b08a      	sub	sp, #40	; 0x28
 80021fc:	af00      	add	r7, sp, #0
 80021fe:	60f8      	str	r0, [r7, #12]
 8002200:	60b9      	str	r1, [r7, #8]
 8002202:	607a      	str	r2, [r7, #4]
	// Read Accelerometer Data
	readAccelerometer(accel_data, hi2c_accel);
 8002204:	68f9      	ldr	r1, [r7, #12]
 8002206:	4868      	ldr	r0, [pc, #416]	; (80023a8 <readAllSensors+0x1b0>)
 8002208:	f7fe f9ac 	bl	8000564 <readAccelerometer>

	// Read BME280 Data
	readTempHumPres(bme280_data_0, hi2c_temp, 0);
 800220c:	2200      	movs	r2, #0
 800220e:	68b9      	ldr	r1, [r7, #8]
 8002210:	4866      	ldr	r0, [pc, #408]	; (80023ac <readAllSensors+0x1b4>)
 8002212:	f7fe fa31 	bl	8000678 <readTempHumPres>
	readTempHumPres(bme280_data_1, hi2c_temp, 1);
 8002216:	2201      	movs	r2, #1
 8002218:	68b9      	ldr	r1, [r7, #8]
 800221a:	4865      	ldr	r0, [pc, #404]	; (80023b0 <readAllSensors+0x1b8>)
 800221c:	f7fe fa2c 	bl	8000678 <readTempHumPres>

	uint16_t time = getTimestampMilliseconds(hrtc);
 8002220:	6878      	ldr	r0, [r7, #4]
 8002222:	f000 f8e7 	bl	80023f4 <getTimestampMilliseconds>
 8002226:	4603      	mov	r3, r0
 8002228:	82fb      	strh	r3, [r7, #22]
	uint8_t array_ptr = 0;
 800222a:	2300      	movs	r3, #0
 800222c:	f887 3027 	strb.w	r3, [r7, #39]	; 0x27

	// Store the new read in the buffer if there is space
	if (byte_tracker < (PAGE_SIZE - READ_SIZE)) {
 8002230:	4b60      	ldr	r3, [pc, #384]	; (80023b4 <readAllSensors+0x1bc>)
 8002232:	881b      	ldrh	r3, [r3, #0]
 8002234:	2bea      	cmp	r3, #234	; 0xea
 8002236:	f200 80b2 	bhi.w	800239e <readAllSensors+0x1a6>
		// Store the timestamp in the buffer (Little Endian)
		data_buffer_tx[buffer_tracker][byte_tracker + array_ptr] = (uint8_t) (time & 0xFF); 		// Least significant byte (LSB)
 800223a:	4b5f      	ldr	r3, [pc, #380]	; (80023b8 <readAllSensors+0x1c0>)
 800223c:	781b      	ldrb	r3, [r3, #0]
 800223e:	461a      	mov	r2, r3
 8002240:	4b5c      	ldr	r3, [pc, #368]	; (80023b4 <readAllSensors+0x1bc>)
 8002242:	881b      	ldrh	r3, [r3, #0]
 8002244:	4619      	mov	r1, r3
 8002246:	f897 3027 	ldrb.w	r3, [r7, #39]	; 0x27
 800224a:	440b      	add	r3, r1
 800224c:	8af9      	ldrh	r1, [r7, #22]
 800224e:	b2c8      	uxtb	r0, r1
 8002250:	495a      	ldr	r1, [pc, #360]	; (80023bc <readAllSensors+0x1c4>)
 8002252:	0212      	lsls	r2, r2, #8
 8002254:	440a      	add	r2, r1
 8002256:	4413      	add	r3, r2
 8002258:	4602      	mov	r2, r0
 800225a:	701a      	strb	r2, [r3, #0]
		array_ptr += 1;
 800225c:	f897 3027 	ldrb.w	r3, [r7, #39]	; 0x27
 8002260:	3301      	adds	r3, #1
 8002262:	f887 3027 	strb.w	r3, [r7, #39]	; 0x27
		data_buffer_tx[buffer_tracker][byte_tracker + array_ptr] = (uint8_t) ((time >> 8) & 0xFF); // Most significant byte (MSB)
 8002266:	8afb      	ldrh	r3, [r7, #22]
 8002268:	0a1b      	lsrs	r3, r3, #8
 800226a:	b299      	uxth	r1, r3
 800226c:	4b52      	ldr	r3, [pc, #328]	; (80023b8 <readAllSensors+0x1c0>)
 800226e:	781b      	ldrb	r3, [r3, #0]
 8002270:	461a      	mov	r2, r3
 8002272:	4b50      	ldr	r3, [pc, #320]	; (80023b4 <readAllSensors+0x1bc>)
 8002274:	881b      	ldrh	r3, [r3, #0]
 8002276:	4618      	mov	r0, r3
 8002278:	f897 3027 	ldrb.w	r3, [r7, #39]	; 0x27
 800227c:	4403      	add	r3, r0
 800227e:	b2c8      	uxtb	r0, r1
 8002280:	494e      	ldr	r1, [pc, #312]	; (80023bc <readAllSensors+0x1c4>)
 8002282:	0212      	lsls	r2, r2, #8
 8002284:	440a      	add	r2, r1
 8002286:	4413      	add	r3, r2
 8002288:	4602      	mov	r2, r0
 800228a:	701a      	strb	r2, [r3, #0]
		array_ptr += 1;
 800228c:	f897 3027 	ldrb.w	r3, [r7, #39]	; 0x27
 8002290:	3301      	adds	r3, #1
 8002292:	f887 3027 	strb.w	r3, [r7, #39]	; 0x27

		// Store the accelerometer data
		for (int i = 0; i < 6; i++) {
 8002296:	2300      	movs	r3, #0
 8002298:	623b      	str	r3, [r7, #32]
 800229a:	e01a      	b.n	80022d2 <readAllSensors+0xda>
		  data_buffer_tx[buffer_tracker][byte_tracker + array_ptr] = accel_data[i];
 800229c:	4b46      	ldr	r3, [pc, #280]	; (80023b8 <readAllSensors+0x1c0>)
 800229e:	781b      	ldrb	r3, [r3, #0]
 80022a0:	461c      	mov	r4, r3
 80022a2:	4b44      	ldr	r3, [pc, #272]	; (80023b4 <readAllSensors+0x1bc>)
 80022a4:	881b      	ldrh	r3, [r3, #0]
 80022a6:	461a      	mov	r2, r3
 80022a8:	f897 3027 	ldrb.w	r3, [r7, #39]	; 0x27
 80022ac:	4413      	add	r3, r2
 80022ae:	493e      	ldr	r1, [pc, #248]	; (80023a8 <readAllSensors+0x1b0>)
 80022b0:	6a3a      	ldr	r2, [r7, #32]
 80022b2:	440a      	add	r2, r1
 80022b4:	7810      	ldrb	r0, [r2, #0]
 80022b6:	4941      	ldr	r1, [pc, #260]	; (80023bc <readAllSensors+0x1c4>)
 80022b8:	0222      	lsls	r2, r4, #8
 80022ba:	440a      	add	r2, r1
 80022bc:	4413      	add	r3, r2
 80022be:	4602      	mov	r2, r0
 80022c0:	701a      	strb	r2, [r3, #0]
		  array_ptr += 1;
 80022c2:	f897 3027 	ldrb.w	r3, [r7, #39]	; 0x27
 80022c6:	3301      	adds	r3, #1
 80022c8:	f887 3027 	strb.w	r3, [r7, #39]	; 0x27
		for (int i = 0; i < 6; i++) {
 80022cc:	6a3b      	ldr	r3, [r7, #32]
 80022ce:	3301      	adds	r3, #1
 80022d0:	623b      	str	r3, [r7, #32]
 80022d2:	6a3b      	ldr	r3, [r7, #32]
 80022d4:	2b05      	cmp	r3, #5
 80022d6:	dde1      	ble.n	800229c <readAllSensors+0xa4>
		}

		// Store the BME280_0 Data
		for (int i = 0; i < 6; i++) {
 80022d8:	2300      	movs	r3, #0
 80022da:	61fb      	str	r3, [r7, #28]
 80022dc:	e01a      	b.n	8002314 <readAllSensors+0x11c>
		  data_buffer_tx[buffer_tracker][byte_tracker + array_ptr] = bme280_data_0[i];
 80022de:	4b36      	ldr	r3, [pc, #216]	; (80023b8 <readAllSensors+0x1c0>)
 80022e0:	781b      	ldrb	r3, [r3, #0]
 80022e2:	461c      	mov	r4, r3
 80022e4:	4b33      	ldr	r3, [pc, #204]	; (80023b4 <readAllSensors+0x1bc>)
 80022e6:	881b      	ldrh	r3, [r3, #0]
 80022e8:	461a      	mov	r2, r3
 80022ea:	f897 3027 	ldrb.w	r3, [r7, #39]	; 0x27
 80022ee:	4413      	add	r3, r2
 80022f0:	492e      	ldr	r1, [pc, #184]	; (80023ac <readAllSensors+0x1b4>)
 80022f2:	69fa      	ldr	r2, [r7, #28]
 80022f4:	440a      	add	r2, r1
 80022f6:	7810      	ldrb	r0, [r2, #0]
 80022f8:	4930      	ldr	r1, [pc, #192]	; (80023bc <readAllSensors+0x1c4>)
 80022fa:	0222      	lsls	r2, r4, #8
 80022fc:	440a      	add	r2, r1
 80022fe:	4413      	add	r3, r2
 8002300:	4602      	mov	r2, r0
 8002302:	701a      	strb	r2, [r3, #0]
		  array_ptr += 1;
 8002304:	f897 3027 	ldrb.w	r3, [r7, #39]	; 0x27
 8002308:	3301      	adds	r3, #1
 800230a:	f887 3027 	strb.w	r3, [r7, #39]	; 0x27
		for (int i = 0; i < 6; i++) {
 800230e:	69fb      	ldr	r3, [r7, #28]
 8002310:	3301      	adds	r3, #1
 8002312:	61fb      	str	r3, [r7, #28]
 8002314:	69fb      	ldr	r3, [r7, #28]
 8002316:	2b05      	cmp	r3, #5
 8002318:	dde1      	ble.n	80022de <readAllSensors+0xe6>
		}

		// Store the BME280_1 Data
		for (int i = 0; i < 6; i++) {
 800231a:	2300      	movs	r3, #0
 800231c:	61bb      	str	r3, [r7, #24]
 800231e:	e01a      	b.n	8002356 <readAllSensors+0x15e>
		  data_buffer_tx[buffer_tracker][byte_tracker + array_ptr] = bme280_data_1[i];
 8002320:	4b25      	ldr	r3, [pc, #148]	; (80023b8 <readAllSensors+0x1c0>)
 8002322:	781b      	ldrb	r3, [r3, #0]
 8002324:	461c      	mov	r4, r3
 8002326:	4b23      	ldr	r3, [pc, #140]	; (80023b4 <readAllSensors+0x1bc>)
 8002328:	881b      	ldrh	r3, [r3, #0]
 800232a:	461a      	mov	r2, r3
 800232c:	f897 3027 	ldrb.w	r3, [r7, #39]	; 0x27
 8002330:	4413      	add	r3, r2
 8002332:	491f      	ldr	r1, [pc, #124]	; (80023b0 <readAllSensors+0x1b8>)
 8002334:	69ba      	ldr	r2, [r7, #24]
 8002336:	440a      	add	r2, r1
 8002338:	7810      	ldrb	r0, [r2, #0]
 800233a:	4920      	ldr	r1, [pc, #128]	; (80023bc <readAllSensors+0x1c4>)
 800233c:	0222      	lsls	r2, r4, #8
 800233e:	440a      	add	r2, r1
 8002340:	4413      	add	r3, r2
 8002342:	4602      	mov	r2, r0
 8002344:	701a      	strb	r2, [r3, #0]
		  array_ptr += 1;
 8002346:	f897 3027 	ldrb.w	r3, [r7, #39]	; 0x27
 800234a:	3301      	adds	r3, #1
 800234c:	f887 3027 	strb.w	r3, [r7, #39]	; 0x27
		for (int i = 0; i < 6; i++) {
 8002350:	69bb      	ldr	r3, [r7, #24]
 8002352:	3301      	adds	r3, #1
 8002354:	61bb      	str	r3, [r7, #24]
 8002356:	69bb      	ldr	r3, [r7, #24]
 8002358:	2b05      	cmp	r3, #5
 800235a:	dde1      	ble.n	8002320 <readAllSensors+0x128>
		}

		// Store the flight state and peripheral status in the final byte
		data_buffer_tx[buffer_tracker][byte_tracker + array_ptr] = combine_system_status();
 800235c:	4b16      	ldr	r3, [pc, #88]	; (80023b8 <readAllSensors+0x1c0>)
 800235e:	781b      	ldrb	r3, [r3, #0]
 8002360:	461d      	mov	r5, r3
 8002362:	4b14      	ldr	r3, [pc, #80]	; (80023b4 <readAllSensors+0x1bc>)
 8002364:	881b      	ldrh	r3, [r3, #0]
 8002366:	461a      	mov	r2, r3
 8002368:	f897 3027 	ldrb.w	r3, [r7, #39]	; 0x27
 800236c:	18d4      	adds	r4, r2, r3
 800236e:	f7ff fc93 	bl	8001c98 <combine_system_status>
 8002372:	4603      	mov	r3, r0
 8002374:	4619      	mov	r1, r3
 8002376:	4a11      	ldr	r2, [pc, #68]	; (80023bc <readAllSensors+0x1c4>)
 8002378:	022b      	lsls	r3, r5, #8
 800237a:	4413      	add	r3, r2
 800237c:	4423      	add	r3, r4
 800237e:	460a      	mov	r2, r1
 8002380:	701a      	strb	r2, [r3, #0]
		array_ptr += 1;
 8002382:	f897 3027 	ldrb.w	r3, [r7, #39]	; 0x27
 8002386:	3301      	adds	r3, #1
 8002388:	f887 3027 	strb.w	r3, [r7, #39]	; 0x27

		byte_tracker = byte_tracker + (array_ptr);
 800238c:	f897 3027 	ldrb.w	r3, [r7, #39]	; 0x27
 8002390:	b29a      	uxth	r2, r3
 8002392:	4b08      	ldr	r3, [pc, #32]	; (80023b4 <readAllSensors+0x1bc>)
 8002394:	881b      	ldrh	r3, [r3, #0]
 8002396:	4413      	add	r3, r2
 8002398:	b29a      	uxth	r2, r3
 800239a:	4b06      	ldr	r3, [pc, #24]	; (80023b4 <readAllSensors+0x1bc>)
 800239c:	801a      	strh	r2, [r3, #0]
	}
}
 800239e:	bf00      	nop
 80023a0:	3728      	adds	r7, #40	; 0x28
 80023a2:	46bd      	mov	sp, r7
 80023a4:	bdb0      	pop	{r4, r5, r7, pc}
 80023a6:	bf00      	nop
 80023a8:	200005bc 	.word	0x200005bc
 80023ac:	200005c4 	.word	0x200005c4
 80023b0:	200005cc 	.word	0x200005cc
 80023b4:	200005d8 	.word	0x200005d8
 80023b8:	200005b8 	.word	0x200005b8
 80023bc:	200003b8 	.word	0x200003b8

080023c0 <initialise_rtc_default>:
    .Month = RTC_MONTH_JANUARY, // Set default month (e.g., January)
    .Date = 1, // Set default day of the month
    .Year = 24 // Set default year (e.g., 2021)
};

void initialise_rtc_default(RTC_HandleTypeDef* hrtc) {
 80023c0:	b580      	push	{r7, lr}
 80023c2:	b082      	sub	sp, #8
 80023c4:	af00      	add	r7, sp, #0
 80023c6:	6078      	str	r0, [r7, #4]
	// Reset RTC on boot
	HAL_RTC_MspInit(hrtc); // Initialize RTC hardware
 80023c8:	6878      	ldr	r0, [r7, #4]
 80023ca:	f000 fa39 	bl	8002840 <HAL_RTC_MspInit>
	HAL_RTC_SetTime(hrtc, &defaultTime, RTC_FORMAT_BIN); // Set default time
 80023ce:	2200      	movs	r2, #0
 80023d0:	4906      	ldr	r1, [pc, #24]	; (80023ec <initialise_rtc_default+0x2c>)
 80023d2:	6878      	ldr	r0, [r7, #4]
 80023d4:	f004 fa6f 	bl	80068b6 <HAL_RTC_SetTime>
	HAL_RTC_SetDate(hrtc, &defaultDate, RTC_FORMAT_BIN); // Set default date
 80023d8:	2200      	movs	r2, #0
 80023da:	4905      	ldr	r1, [pc, #20]	; (80023f0 <initialise_rtc_default+0x30>)
 80023dc:	6878      	ldr	r0, [r7, #4]
 80023de:	f004 fb62 	bl	8006aa6 <HAL_RTC_SetDate>
}
 80023e2:	bf00      	nop
 80023e4:	3708      	adds	r7, #8
 80023e6:	46bd      	mov	sp, r7
 80023e8:	bd80      	pop	{r7, pc}
 80023ea:	bf00      	nop
 80023ec:	20000620 	.word	0x20000620
 80023f0:	20000018 	.word	0x20000018

080023f4 <getTimestampMilliseconds>:

uint32_t getTimestampMilliseconds(RTC_HandleTypeDef* hrtc) {
 80023f4:	b580      	push	{r7, lr}
 80023f6:	b08c      	sub	sp, #48	; 0x30
 80023f8:	af00      	add	r7, sp, #0
 80023fa:	6078      	str	r0, [r7, #4]
    RTC_TimeTypeDef rtcTime;
    RTC_DateTypeDef rtcDate;

    // Read RTC time and date
    HAL_RTC_GetTime(hrtc, &rtcTime, RTC_FORMAT_BIN);
 80023fc:	f107 0310 	add.w	r3, r7, #16
 8002400:	2200      	movs	r2, #0
 8002402:	4619      	mov	r1, r3
 8002404:	6878      	ldr	r0, [r7, #4]
 8002406:	f004 faf0 	bl	80069ea <HAL_RTC_GetTime>
    HAL_RTC_GetDate(hrtc, &rtcDate, RTC_FORMAT_BIN);
 800240a:	f107 030c 	add.w	r3, r7, #12
 800240e:	2200      	movs	r2, #0
 8002410:	4619      	mov	r1, r3
 8002412:	6878      	ldr	r0, [r7, #4]
 8002414:	f004 fbcb 	bl	8006bae <HAL_RTC_GetDate>

    // Calculate timestamp in milliseconds
    uint32_t timestampSeconds = rtcTime.Seconds + rtcTime.Minutes * 60 + rtcTime.Hours * 3600;
 8002418:	7cbb      	ldrb	r3, [r7, #18]
 800241a:	4619      	mov	r1, r3
 800241c:	7c7b      	ldrb	r3, [r7, #17]
 800241e:	461a      	mov	r2, r3
 8002420:	4613      	mov	r3, r2
 8002422:	011b      	lsls	r3, r3, #4
 8002424:	1a9b      	subs	r3, r3, r2
 8002426:	009b      	lsls	r3, r3, #2
 8002428:	18ca      	adds	r2, r1, r3
 800242a:	7c3b      	ldrb	r3, [r7, #16]
 800242c:	4619      	mov	r1, r3
 800242e:	f44f 6361 	mov.w	r3, #3600	; 0xe10
 8002432:	fb01 f303 	mul.w	r3, r1, r3
 8002436:	4413      	add	r3, r2
 8002438:	62fb      	str	r3, [r7, #44]	; 0x2c
    uint32_t timestampMilliseconds = timestampSeconds * 1000;
 800243a:	6afb      	ldr	r3, [r7, #44]	; 0x2c
 800243c:	f44f 727a 	mov.w	r2, #1000	; 0x3e8
 8002440:	fb02 f303 	mul.w	r3, r2, r3
 8002444:	62bb      	str	r3, [r7, #40]	; 0x28
    float subsecondsFraction = (float)(rtcTime.SecondFraction - rtcTime.SubSeconds) / (rtcTime.SecondFraction + 1);
 8002446:	69ba      	ldr	r2, [r7, #24]
 8002448:	697b      	ldr	r3, [r7, #20]
 800244a:	1ad3      	subs	r3, r2, r3
 800244c:	ee07 3a90 	vmov	s15, r3
 8002450:	eef8 6a67 	vcvt.f32.u32	s13, s15
 8002454:	69bb      	ldr	r3, [r7, #24]
 8002456:	3301      	adds	r3, #1
 8002458:	ee07 3a90 	vmov	s15, r3
 800245c:	eeb8 7a67 	vcvt.f32.u32	s14, s15
 8002460:	eec6 7a87 	vdiv.f32	s15, s13, s14
 8002464:	edc7 7a09 	vstr	s15, [r7, #36]	; 0x24
    timestampMilliseconds += subsecondsFraction * 1000;
 8002468:	6abb      	ldr	r3, [r7, #40]	; 0x28
 800246a:	ee07 3a90 	vmov	s15, r3
 800246e:	eeb8 7a67 	vcvt.f32.u32	s14, s15
 8002472:	edd7 7a09 	vldr	s15, [r7, #36]	; 0x24
 8002476:	eddf 6a08 	vldr	s13, [pc, #32]	; 8002498 <getTimestampMilliseconds+0xa4>
 800247a:	ee67 7aa6 	vmul.f32	s15, s15, s13
 800247e:	ee77 7a27 	vadd.f32	s15, s14, s15
 8002482:	eefc 7ae7 	vcvt.u32.f32	s15, s15
 8002486:	ee17 3a90 	vmov	r3, s15
 800248a:	62bb      	str	r3, [r7, #40]	; 0x28

    return timestampMilliseconds;
 800248c:	6abb      	ldr	r3, [r7, #40]	; 0x28
}
 800248e:	4618      	mov	r0, r3
 8002490:	3730      	adds	r7, #48	; 0x30
 8002492:	46bd      	mov	sp, r7
 8002494:	bd80      	pop	{r7, pc}
 8002496:	bf00      	nop
 8002498:	447a0000 	.word	0x447a0000

0800249c <spi_sendOp_readByte>:
#ifndef SRC_SPI_DRIVER_C_
#define SRC_SPI_DRIVER_C_

#include "spi_driver.h"

HAL_StatusTypeDef spi_sendOp_readByte(uint8_t* opcode, SPI_HandleTypeDef *hspi, uint8_t* data_ptr, GPIO_TypeDef* GPIOx, uint16_t GPIO_Pin_CS) {
 800249c:	b580      	push	{r7, lr}
 800249e:	b086      	sub	sp, #24
 80024a0:	af00      	add	r7, sp, #0
 80024a2:	60f8      	str	r0, [r7, #12]
 80024a4:	60b9      	str	r1, [r7, #8]
 80024a6:	607a      	str	r2, [r7, #4]
 80024a8:	603b      	str	r3, [r7, #0]
	HAL_StatusTypeDef status;
	HAL_GPIO_WritePin(GPIOx, GPIO_Pin_CS, GPIO_PIN_RESET);	// Set the chip select pin to low to initiate SPI comms
 80024aa:	8c3b      	ldrh	r3, [r7, #32]
 80024ac:	2200      	movs	r2, #0
 80024ae:	4619      	mov	r1, r3
 80024b0:	6838      	ldr	r0, [r7, #0]
 80024b2:	f002 fabb 	bl	8004a2c <HAL_GPIO_WritePin>
	HAL_SPI_Transmit(hspi, opcode, 1, TIMEOUT_SML);			// Write the write enable value to the Flash to initial reading
 80024b6:	2302      	movs	r3, #2
 80024b8:	2201      	movs	r2, #1
 80024ba:	68f9      	ldr	r1, [r7, #12]
 80024bc:	68b8      	ldr	r0, [r7, #8]
 80024be:	f004 fd0c 	bl	8006eda <HAL_SPI_Transmit>
	status = HAL_SPI_Receive(hspi, data_ptr, 1, TIMEOUT_SML);
 80024c2:	2302      	movs	r3, #2
 80024c4:	2201      	movs	r2, #1
 80024c6:	6879      	ldr	r1, [r7, #4]
 80024c8:	68b8      	ldr	r0, [r7, #8]
 80024ca:	f004 fe49 	bl	8007160 <HAL_SPI_Receive>
 80024ce:	4603      	mov	r3, r0
 80024d0:	75fb      	strb	r3, [r7, #23]
	HAL_GPIO_WritePin(GPIOx, GPIO_Pin_CS, GPIO_PIN_SET);
 80024d2:	8c3b      	ldrh	r3, [r7, #32]
 80024d4:	2201      	movs	r2, #1
 80024d6:	4619      	mov	r1, r3
 80024d8:	6838      	ldr	r0, [r7, #0]
 80024da:	f002 faa7 	bl	8004a2c <HAL_GPIO_WritePin>
	return status;
 80024de:	7dfb      	ldrb	r3, [r7, #23]
}
 80024e0:	4618      	mov	r0, r3
 80024e2:	3718      	adds	r7, #24
 80024e4:	46bd      	mov	sp, r7
 80024e6:	bd80      	pop	{r7, pc}

080024e8 <perform_operation>:

HAL_StatusTypeDef perform_operation(uint8_t* opcode, SPI_HandleTypeDef *hspi, GPIO_TypeDef* GPIOx, uint16_t GPIO_Pin_CS) {
 80024e8:	b580      	push	{r7, lr}
 80024ea:	b086      	sub	sp, #24
 80024ec:	af00      	add	r7, sp, #0
 80024ee:	60f8      	str	r0, [r7, #12]
 80024f0:	60b9      	str	r1, [r7, #8]
 80024f2:	607a      	str	r2, [r7, #4]
 80024f4:	807b      	strh	r3, [r7, #2]
	HAL_StatusTypeDef status;
	HAL_GPIO_WritePin(GPIOx, GPIO_Pin_CS, GPIO_PIN_RESET);				// Set the chip select pin to low to initiate SPI comms
 80024f6:	887b      	ldrh	r3, [r7, #2]
 80024f8:	2200      	movs	r2, #0
 80024fa:	4619      	mov	r1, r3
 80024fc:	6878      	ldr	r0, [r7, #4]
 80024fe:	f002 fa95 	bl	8004a2c <HAL_GPIO_WritePin>
	status = HAL_SPI_Transmit(hspi, opcode, 1, TIMEOUT_SML);				// Write the opcode value
 8002502:	2302      	movs	r3, #2
 8002504:	2201      	movs	r2, #1
 8002506:	68f9      	ldr	r1, [r7, #12]
 8002508:	68b8      	ldr	r0, [r7, #8]
 800250a:	f004 fce6 	bl	8006eda <HAL_SPI_Transmit>
 800250e:	4603      	mov	r3, r0
 8002510:	75fb      	strb	r3, [r7, #23]
	HAL_GPIO_WritePin(GPIOx, GPIO_Pin_CS, GPIO_PIN_SET);
 8002512:	887b      	ldrh	r3, [r7, #2]
 8002514:	2201      	movs	r2, #1
 8002516:	4619      	mov	r1, r3
 8002518:	6878      	ldr	r0, [r7, #4]
 800251a:	f002 fa87 	bl	8004a2c <HAL_GPIO_WritePin>

	return status;
 800251e:	7dfb      	ldrb	r3, [r7, #23]
}
 8002520:	4618      	mov	r0, r3
 8002522:	3718      	adds	r7, #24
 8002524:	46bd      	mov	sp, r7
 8002526:	bd80      	pop	{r7, pc}

08002528 <spi_read_data>:

HAL_StatusTypeDef spi_read_data(uint8_t* opcode, uint16_t data_size, uint8_t data_read[data_size], SPI_HandleTypeDef *hspi, uint32_t addr, GPIO_TypeDef* GPIOx, uint16_t GPIO_Pin_CS) {
 8002528:	b580      	push	{r7, lr}
 800252a:	b086      	sub	sp, #24
 800252c:	af00      	add	r7, sp, #0
 800252e:	60f8      	str	r0, [r7, #12]
 8002530:	607a      	str	r2, [r7, #4]
 8002532:	603b      	str	r3, [r7, #0]
 8002534:	460b      	mov	r3, r1
 8002536:	817b      	strh	r3, [r7, #10]
	HAL_StatusTypeDef status;

	// Split the 24 bit address into three 8 bit ints
	uint8_t addrL = addr & 0xFF;  // Get the low byte
 8002538:	6a3b      	ldr	r3, [r7, #32]
 800253a:	b2db      	uxtb	r3, r3
 800253c:	75bb      	strb	r3, [r7, #22]
	uint8_t addrM = (addr >> 8) & 0xFF;  // Get the middle byte
 800253e:	6a3b      	ldr	r3, [r7, #32]
 8002540:	0a1b      	lsrs	r3, r3, #8
 8002542:	b2db      	uxtb	r3, r3
 8002544:	757b      	strb	r3, [r7, #21]
	uint8_t addrH = (addr >> 16) & 0xFF;  // Get the high byte
 8002546:	6a3b      	ldr	r3, [r7, #32]
 8002548:	0c1b      	lsrs	r3, r3, #16
 800254a:	b2db      	uxtb	r3, r3
 800254c:	753b      	strb	r3, [r7, #20]

	// Read the data denoted by the given address
	HAL_GPIO_WritePin(GPIOx, GPIO_Pin_CS, GPIO_PIN_RESET);
 800254e:	8d3b      	ldrh	r3, [r7, #40]	; 0x28
 8002550:	2200      	movs	r2, #0
 8002552:	4619      	mov	r1, r3
 8002554:	6a78      	ldr	r0, [r7, #36]	; 0x24
 8002556:	f002 fa69 	bl	8004a2c <HAL_GPIO_WritePin>
	HAL_SPI_Transmit(hspi, opcode, 1, TIMEOUT_SML);	// Write the read enable value
 800255a:	2302      	movs	r3, #2
 800255c:	2201      	movs	r2, #1
 800255e:	68f9      	ldr	r1, [r7, #12]
 8002560:	6838      	ldr	r0, [r7, #0]
 8002562:	f004 fcba 	bl	8006eda <HAL_SPI_Transmit>

	// Transmit the 24 bit address of the page to initialise read from
	HAL_SPI_Transmit(hspi, &addrH, 1, TIMEOUT_SML);
 8002566:	f107 0114 	add.w	r1, r7, #20
 800256a:	2302      	movs	r3, #2
 800256c:	2201      	movs	r2, #1
 800256e:	6838      	ldr	r0, [r7, #0]
 8002570:	f004 fcb3 	bl	8006eda <HAL_SPI_Transmit>
	HAL_SPI_Transmit(hspi, &addrM, 1, TIMEOUT_SML);
 8002574:	f107 0115 	add.w	r1, r7, #21
 8002578:	2302      	movs	r3, #2
 800257a:	2201      	movs	r2, #1
 800257c:	6838      	ldr	r0, [r7, #0]
 800257e:	f004 fcac 	bl	8006eda <HAL_SPI_Transmit>
	HAL_SPI_Transmit(hspi, &addrL, 1, TIMEOUT_SML);
 8002582:	f107 0116 	add.w	r1, r7, #22
 8002586:	2302      	movs	r3, #2
 8002588:	2201      	movs	r2, #1
 800258a:	6838      	ldr	r0, [r7, #0]
 800258c:	f004 fca5 	bl	8006eda <HAL_SPI_Transmit>

	status = HAL_SPI_Receive(hspi, data_read, data_size, TIMEOUT_LRG);
 8002590:	897a      	ldrh	r2, [r7, #10]
 8002592:	2364      	movs	r3, #100	; 0x64
 8002594:	6879      	ldr	r1, [r7, #4]
 8002596:	6838      	ldr	r0, [r7, #0]
 8002598:	f004 fde2 	bl	8007160 <HAL_SPI_Receive>
 800259c:	4603      	mov	r3, r0
 800259e:	75fb      	strb	r3, [r7, #23]
	HAL_GPIO_WritePin(GPIOx, GPIO_Pin_CS, GPIO_PIN_SET);
 80025a0:	8d3b      	ldrh	r3, [r7, #40]	; 0x28
 80025a2:	2201      	movs	r2, #1
 80025a4:	4619      	mov	r1, r3
 80025a6:	6a78      	ldr	r0, [r7, #36]	; 0x24
 80025a8:	f002 fa40 	bl	8004a2c <HAL_GPIO_WritePin>

	return status;
 80025ac:	7dfb      	ldrb	r3, [r7, #23]
}
 80025ae:	4618      	mov	r0, r3
 80025b0:	3718      	adds	r7, #24
 80025b2:	46bd      	mov	sp, r7
 80025b4:	bd80      	pop	{r7, pc}

080025b6 <spi_write_data_dma>:
	HAL_GPIO_WritePin(GPIOx, GPIO_Pin_CS, GPIO_PIN_SET);	// Set the chip select pin to high to remove the Flash from the SPI bus

	return status;
}

HAL_StatusTypeDef spi_write_data_dma(uint8_t* opcode, uint16_t data_size, uint8_t data_write[data_size], SPI_HandleTypeDef *hspi, uint32_t addr, GPIO_TypeDef* GPIOx, uint16_t GPIO_Pin_CS) {
 80025b6:	b580      	push	{r7, lr}
 80025b8:	b086      	sub	sp, #24
 80025ba:	af00      	add	r7, sp, #0
 80025bc:	60f8      	str	r0, [r7, #12]
 80025be:	607a      	str	r2, [r7, #4]
 80025c0:	603b      	str	r3, [r7, #0]
 80025c2:	460b      	mov	r3, r1
 80025c4:	817b      	strh	r3, [r7, #10]
    HAL_StatusTypeDef status;

    // Split the 24 bit address into three 8 bit ints
    uint8_t addrL = addr & 0xFF;  			// Get the low byte
 80025c6:	6a3b      	ldr	r3, [r7, #32]
 80025c8:	b2db      	uxtb	r3, r3
 80025ca:	75bb      	strb	r3, [r7, #22]
    uint8_t addrM = (addr >> 8) & 0xFF;  	// Get the middle byte
 80025cc:	6a3b      	ldr	r3, [r7, #32]
 80025ce:	0a1b      	lsrs	r3, r3, #8
 80025d0:	b2db      	uxtb	r3, r3
 80025d2:	757b      	strb	r3, [r7, #21]
    uint8_t addrH = (addr >> 16) & 0xFF;  	// Get the high byte
 80025d4:	6a3b      	ldr	r3, [r7, #32]
 80025d6:	0c1b      	lsrs	r3, r3, #16
 80025d8:	b2db      	uxtb	r3, r3
 80025da:	753b      	strb	r3, [r7, #20]

    // Send the PageWrite command
    HAL_GPIO_WritePin(GPIOx, GPIO_Pin_CS, GPIO_PIN_RESET);	// Set the chip select pin to low to initiate SPI comms
 80025dc:	8d3b      	ldrh	r3, [r7, #40]	; 0x28
 80025de:	2200      	movs	r2, #0
 80025e0:	4619      	mov	r1, r3
 80025e2:	6a78      	ldr	r0, [r7, #36]	; 0x24
 80025e4:	f002 fa22 	bl	8004a2c <HAL_GPIO_WritePin>
    HAL_SPI_Transmit(hspi, opcode, 1, TIMEOUT_SML);					// Write the write enable value to the Flash to initial writing
 80025e8:	2302      	movs	r3, #2
 80025ea:	2201      	movs	r2, #1
 80025ec:	68f9      	ldr	r1, [r7, #12]
 80025ee:	6838      	ldr	r0, [r7, #0]
 80025f0:	f004 fc73 	bl	8006eda <HAL_SPI_Transmit>

    // Transmit the 24 bit address of the page to write to
    HAL_SPI_Transmit(hspi, &addrH, 1, TIMEOUT_SML);
 80025f4:	f107 0114 	add.w	r1, r7, #20
 80025f8:	2302      	movs	r3, #2
 80025fa:	2201      	movs	r2, #1
 80025fc:	6838      	ldr	r0, [r7, #0]
 80025fe:	f004 fc6c 	bl	8006eda <HAL_SPI_Transmit>
    HAL_SPI_Transmit(hspi, &addrM, 1, TIMEOUT_SML);
 8002602:	f107 0115 	add.w	r1, r7, #21
 8002606:	2302      	movs	r3, #2
 8002608:	2201      	movs	r2, #1
 800260a:	6838      	ldr	r0, [r7, #0]
 800260c:	f004 fc65 	bl	8006eda <HAL_SPI_Transmit>
    HAL_SPI_Transmit(hspi, &addrL, 1, TIMEOUT_SML);
 8002610:	f107 0116 	add.w	r1, r7, #22
 8002614:	2302      	movs	r3, #2
 8002616:	2201      	movs	r2, #1
 8002618:	6838      	ldr	r0, [r7, #0]
 800261a:	f004 fc5e 	bl	8006eda <HAL_SPI_Transmit>

    // Start the DMA transfer
    status = HAL_SPI_Transmit_DMA(hspi, data_write, data_size);
 800261e:	897b      	ldrh	r3, [r7, #10]
 8002620:	461a      	mov	r2, r3
 8002622:	6879      	ldr	r1, [r7, #4]
 8002624:	6838      	ldr	r0, [r7, #0]
 8002626:	f005 f863 	bl	80076f0 <HAL_SPI_Transmit_DMA>
 800262a:	4603      	mov	r3, r0
 800262c:	75fb      	strb	r3, [r7, #23]

    return status;
 800262e:	7dfb      	ldrb	r3, [r7, #23]
}
 8002630:	4618      	mov	r0, r3
 8002632:	3718      	adds	r7, #24
 8002634:	46bd      	mov	sp, r7
 8002636:	bd80      	pop	{r7, pc}

08002638 <HAL_MspInit>:
/* USER CODE END 0 */
/**
  * Initializes the Global MSP.
  */
void HAL_MspInit(void)
{
 8002638:	b480      	push	{r7}
 800263a:	b083      	sub	sp, #12
 800263c:	af00      	add	r7, sp, #0
  /* USER CODE BEGIN MspInit 0 */

  /* USER CODE END MspInit 0 */

  __HAL_RCC_SYSCFG_CLK_ENABLE();
 800263e:	2300      	movs	r3, #0
 8002640:	607b      	str	r3, [r7, #4]
 8002642:	4b10      	ldr	r3, [pc, #64]	; (8002684 <HAL_MspInit+0x4c>)
 8002644:	6c5b      	ldr	r3, [r3, #68]	; 0x44
 8002646:	4a0f      	ldr	r2, [pc, #60]	; (8002684 <HAL_MspInit+0x4c>)
 8002648:	f443 4380 	orr.w	r3, r3, #16384	; 0x4000
 800264c:	6453      	str	r3, [r2, #68]	; 0x44
 800264e:	4b0d      	ldr	r3, [pc, #52]	; (8002684 <HAL_MspInit+0x4c>)
 8002650:	6c5b      	ldr	r3, [r3, #68]	; 0x44
 8002652:	f403 4380 	and.w	r3, r3, #16384	; 0x4000
 8002656:	607b      	str	r3, [r7, #4]
 8002658:	687b      	ldr	r3, [r7, #4]
  __HAL_RCC_PWR_CLK_ENABLE();
 800265a:	2300      	movs	r3, #0
 800265c:	603b      	str	r3, [r7, #0]
 800265e:	4b09      	ldr	r3, [pc, #36]	; (8002684 <HAL_MspInit+0x4c>)
 8002660:	6c1b      	ldr	r3, [r3, #64]	; 0x40
 8002662:	4a08      	ldr	r2, [pc, #32]	; (8002684 <HAL_MspInit+0x4c>)
 8002664:	f043 5380 	orr.w	r3, r3, #268435456	; 0x10000000
 8002668:	6413      	str	r3, [r2, #64]	; 0x40
 800266a:	4b06      	ldr	r3, [pc, #24]	; (8002684 <HAL_MspInit+0x4c>)
 800266c:	6c1b      	ldr	r3, [r3, #64]	; 0x40
 800266e:	f003 5380 	and.w	r3, r3, #268435456	; 0x10000000
 8002672:	603b      	str	r3, [r7, #0]
 8002674:	683b      	ldr	r3, [r7, #0]
  /* System interrupt init*/

  /* USER CODE BEGIN MspInit 1 */

  /* USER CODE END MspInit 1 */
}
 8002676:	bf00      	nop
 8002678:	370c      	adds	r7, #12
 800267a:	46bd      	mov	sp, r7
 800267c:	f85d 7b04 	ldr.w	r7, [sp], #4
 8002680:	4770      	bx	lr
 8002682:	bf00      	nop
 8002684:	40023800 	.word	0x40023800

08002688 <HAL_CAN_MspInit>:
* This function configures the hardware resources used in this example
* @param hcan: CAN handle pointer
* @retval None
*/
void HAL_CAN_MspInit(CAN_HandleTypeDef* hcan)
{
 8002688:	b580      	push	{r7, lr}
 800268a:	b08a      	sub	sp, #40	; 0x28
 800268c:	af00      	add	r7, sp, #0
 800268e:	6078      	str	r0, [r7, #4]
  GPIO_InitTypeDef GPIO_InitStruct = {0};
 8002690:	f107 0314 	add.w	r3, r7, #20
 8002694:	2200      	movs	r2, #0
 8002696:	601a      	str	r2, [r3, #0]
 8002698:	605a      	str	r2, [r3, #4]
 800269a:	609a      	str	r2, [r3, #8]
 800269c:	60da      	str	r2, [r3, #12]
 800269e:	611a      	str	r2, [r3, #16]
  if(hcan->Instance==CAN2)
 80026a0:	687b      	ldr	r3, [r7, #4]
 80026a2:	681b      	ldr	r3, [r3, #0]
 80026a4:	4a24      	ldr	r2, [pc, #144]	; (8002738 <HAL_CAN_MspInit+0xb0>)
 80026a6:	4293      	cmp	r3, r2
 80026a8:	d141      	bne.n	800272e <HAL_CAN_MspInit+0xa6>
  {
  /* USER CODE BEGIN CAN2_MspInit 0 */

  /* USER CODE END CAN2_MspInit 0 */
    /* Peripheral clock enable */
    __HAL_RCC_CAN2_CLK_ENABLE();
 80026aa:	2300      	movs	r3, #0
 80026ac:	613b      	str	r3, [r7, #16]
 80026ae:	4b23      	ldr	r3, [pc, #140]	; (800273c <HAL_CAN_MspInit+0xb4>)
 80026b0:	6c1b      	ldr	r3, [r3, #64]	; 0x40
 80026b2:	4a22      	ldr	r2, [pc, #136]	; (800273c <HAL_CAN_MspInit+0xb4>)
 80026b4:	f043 6380 	orr.w	r3, r3, #67108864	; 0x4000000
 80026b8:	6413      	str	r3, [r2, #64]	; 0x40
 80026ba:	4b20      	ldr	r3, [pc, #128]	; (800273c <HAL_CAN_MspInit+0xb4>)
 80026bc:	6c1b      	ldr	r3, [r3, #64]	; 0x40
 80026be:	f003 6380 	and.w	r3, r3, #67108864	; 0x4000000
 80026c2:	613b      	str	r3, [r7, #16]
 80026c4:	693b      	ldr	r3, [r7, #16]
    __HAL_RCC_CAN1_CLK_ENABLE();
 80026c6:	2300      	movs	r3, #0
 80026c8:	60fb      	str	r3, [r7, #12]
 80026ca:	4b1c      	ldr	r3, [pc, #112]	; (800273c <HAL_CAN_MspInit+0xb4>)
 80026cc:	6c1b      	ldr	r3, [r3, #64]	; 0x40
 80026ce:	4a1b      	ldr	r2, [pc, #108]	; (800273c <HAL_CAN_MspInit+0xb4>)
 80026d0:	f043 7300 	orr.w	r3, r3, #33554432	; 0x2000000
 80026d4:	6413      	str	r3, [r2, #64]	; 0x40
 80026d6:	4b19      	ldr	r3, [pc, #100]	; (800273c <HAL_CAN_MspInit+0xb4>)
 80026d8:	6c1b      	ldr	r3, [r3, #64]	; 0x40
 80026da:	f003 7300 	and.w	r3, r3, #33554432	; 0x2000000
 80026de:	60fb      	str	r3, [r7, #12]
 80026e0:	68fb      	ldr	r3, [r7, #12]

    __HAL_RCC_GPIOB_CLK_ENABLE();
 80026e2:	2300      	movs	r3, #0
 80026e4:	60bb      	str	r3, [r7, #8]
 80026e6:	4b15      	ldr	r3, [pc, #84]	; (800273c <HAL_CAN_MspInit+0xb4>)
 80026e8:	6b1b      	ldr	r3, [r3, #48]	; 0x30
 80026ea:	4a14      	ldr	r2, [pc, #80]	; (800273c <HAL_CAN_MspInit+0xb4>)
 80026ec:	f043 0302 	orr.w	r3, r3, #2
 80026f0:	6313      	str	r3, [r2, #48]	; 0x30
 80026f2:	4b12      	ldr	r3, [pc, #72]	; (800273c <HAL_CAN_MspInit+0xb4>)
 80026f4:	6b1b      	ldr	r3, [r3, #48]	; 0x30
 80026f6:	f003 0302 	and.w	r3, r3, #2
 80026fa:	60bb      	str	r3, [r7, #8]
 80026fc:	68bb      	ldr	r3, [r7, #8]
    /**CAN2 GPIO Configuration
    PB5     ------> CAN2_RX
    PB6     ------> CAN2_TX
    */
    GPIO_InitStruct.Pin = GPIO_PIN_5|GPIO_PIN_6;
 80026fe:	2360      	movs	r3, #96	; 0x60
 8002700:	617b      	str	r3, [r7, #20]
    GPIO_InitStruct.Mode = GPIO_MODE_AF_PP;
 8002702:	2302      	movs	r3, #2
 8002704:	61bb      	str	r3, [r7, #24]
    GPIO_InitStruct.Pull = GPIO_NOPULL;
 8002706:	2300      	movs	r3, #0
 8002708:	61fb      	str	r3, [r7, #28]
    GPIO_InitStruct.Speed = GPIO_SPEED_FREQ_VERY_HIGH;
 800270a:	2303      	movs	r3, #3
 800270c:	623b      	str	r3, [r7, #32]
    GPIO_InitStruct.Alternate = GPIO_AF9_CAN2;
 800270e:	2309      	movs	r3, #9
 8002710:	627b      	str	r3, [r7, #36]	; 0x24
    HAL_GPIO_Init(GPIOB, &GPIO_InitStruct);
 8002712:	f107 0314 	add.w	r3, r7, #20
 8002716:	4619      	mov	r1, r3
 8002718:	4809      	ldr	r0, [pc, #36]	; (8002740 <HAL_CAN_MspInit+0xb8>)
 800271a:	f001 ffc3 	bl	80046a4 <HAL_GPIO_Init>

    /* CAN2 interrupt Init */
    HAL_NVIC_SetPriority(CAN2_RX0_IRQn, 0, 0);
 800271e:	2200      	movs	r2, #0
 8002720:	2100      	movs	r1, #0
 8002722:	2040      	movs	r0, #64	; 0x40
 8002724:	f001 fb85 	bl	8003e32 <HAL_NVIC_SetPriority>
    HAL_NVIC_EnableIRQ(CAN2_RX0_IRQn);
 8002728:	2040      	movs	r0, #64	; 0x40
 800272a:	f001 fb9e 	bl	8003e6a <HAL_NVIC_EnableIRQ>
  /* USER CODE BEGIN CAN2_MspInit 1 */

  /* USER CODE END CAN2_MspInit 1 */
  }

}
 800272e:	bf00      	nop
 8002730:	3728      	adds	r7, #40	; 0x28
 8002732:	46bd      	mov	sp, r7
 8002734:	bd80      	pop	{r7, pc}
 8002736:	bf00      	nop
 8002738:	40006800 	.word	0x40006800
 800273c:	40023800 	.word	0x40023800
 8002740:	40020400 	.word	0x40020400

08002744 <HAL_I2C_MspInit>:
* This function configures the hardware resources used in this example
* @param hi2c: I2C handle pointer
* @retval None
*/
void HAL_I2C_MspInit(I2C_HandleTypeDef* hi2c)
{
 8002744:	b580      	push	{r7, lr}
 8002746:	b08c      	sub	sp, #48	; 0x30
 8002748:	af00      	add	r7, sp, #0
 800274a:	6078      	str	r0, [r7, #4]
  GPIO_InitTypeDef GPIO_InitStruct = {0};
 800274c:	f107 031c 	add.w	r3, r7, #28
 8002750:	2200      	movs	r2, #0
 8002752:	601a      	str	r2, [r3, #0]
 8002754:	605a      	str	r2, [r3, #4]
 8002756:	609a      	str	r2, [r3, #8]
 8002758:	60da      	str	r2, [r3, #12]
 800275a:	611a      	str	r2, [r3, #16]
  if(hi2c->Instance==I2C1)
 800275c:	687b      	ldr	r3, [r7, #4]
 800275e:	681b      	ldr	r3, [r3, #0]
 8002760:	4a33      	ldr	r2, [pc, #204]	; (8002830 <HAL_I2C_MspInit+0xec>)
 8002762:	4293      	cmp	r3, r2
 8002764:	d12d      	bne.n	80027c2 <HAL_I2C_MspInit+0x7e>
  {
  /* USER CODE BEGIN I2C1_MspInit 0 */

  /* USER CODE END I2C1_MspInit 0 */

    __HAL_RCC_GPIOB_CLK_ENABLE();
 8002766:	2300      	movs	r3, #0
 8002768:	61bb      	str	r3, [r7, #24]
 800276a:	4b32      	ldr	r3, [pc, #200]	; (8002834 <HAL_I2C_MspInit+0xf0>)
 800276c:	6b1b      	ldr	r3, [r3, #48]	; 0x30
 800276e:	4a31      	ldr	r2, [pc, #196]	; (8002834 <HAL_I2C_MspInit+0xf0>)
 8002770:	f043 0302 	orr.w	r3, r3, #2
 8002774:	6313      	str	r3, [r2, #48]	; 0x30
 8002776:	4b2f      	ldr	r3, [pc, #188]	; (8002834 <HAL_I2C_MspInit+0xf0>)
 8002778:	6b1b      	ldr	r3, [r3, #48]	; 0x30
 800277a:	f003 0302 	and.w	r3, r3, #2
 800277e:	61bb      	str	r3, [r7, #24]
 8002780:	69bb      	ldr	r3, [r7, #24]
    /**I2C1 GPIO Configuration
    PB8     ------> I2C1_SCL
    PB9     ------> I2C1_SDA
    */
    GPIO_InitStruct.Pin = GPIO_PIN_8|GPIO_PIN_9;
 8002782:	f44f 7340 	mov.w	r3, #768	; 0x300
 8002786:	61fb      	str	r3, [r7, #28]
    GPIO_InitStruct.Mode = GPIO_MODE_AF_OD;
 8002788:	2312      	movs	r3, #18
 800278a:	623b      	str	r3, [r7, #32]
    GPIO_InitStruct.Pull = GPIO_NOPULL;
 800278c:	2300      	movs	r3, #0
 800278e:	627b      	str	r3, [r7, #36]	; 0x24
    GPIO_InitStruct.Speed = GPIO_SPEED_FREQ_VERY_HIGH;
 8002790:	2303      	movs	r3, #3
 8002792:	62bb      	str	r3, [r7, #40]	; 0x28
    GPIO_InitStruct.Alternate = GPIO_AF4_I2C1;
 8002794:	2304      	movs	r3, #4
 8002796:	62fb      	str	r3, [r7, #44]	; 0x2c
    HAL_GPIO_Init(GPIOB, &GPIO_InitStruct);
 8002798:	f107 031c 	add.w	r3, r7, #28
 800279c:	4619      	mov	r1, r3
 800279e:	4826      	ldr	r0, [pc, #152]	; (8002838 <HAL_I2C_MspInit+0xf4>)
 80027a0:	f001 ff80 	bl	80046a4 <HAL_GPIO_Init>

    /* Peripheral clock enable */
    __HAL_RCC_I2C1_CLK_ENABLE();
 80027a4:	2300      	movs	r3, #0
 80027a6:	617b      	str	r3, [r7, #20]
 80027a8:	4b22      	ldr	r3, [pc, #136]	; (8002834 <HAL_I2C_MspInit+0xf0>)
 80027aa:	6c1b      	ldr	r3, [r3, #64]	; 0x40
 80027ac:	4a21      	ldr	r2, [pc, #132]	; (8002834 <HAL_I2C_MspInit+0xf0>)
 80027ae:	f443 1300 	orr.w	r3, r3, #2097152	; 0x200000
 80027b2:	6413      	str	r3, [r2, #64]	; 0x40
 80027b4:	4b1f      	ldr	r3, [pc, #124]	; (8002834 <HAL_I2C_MspInit+0xf0>)
 80027b6:	6c1b      	ldr	r3, [r3, #64]	; 0x40
 80027b8:	f403 1300 	and.w	r3, r3, #2097152	; 0x200000
 80027bc:	617b      	str	r3, [r7, #20]
 80027be:	697b      	ldr	r3, [r7, #20]
  /* USER CODE BEGIN I2C2_MspInit 1 */

  /* USER CODE END I2C2_MspInit 1 */
  }

}
 80027c0:	e031      	b.n	8002826 <HAL_I2C_MspInit+0xe2>
  else if(hi2c->Instance==I2C2)
 80027c2:	687b      	ldr	r3, [r7, #4]
 80027c4:	681b      	ldr	r3, [r3, #0]
 80027c6:	4a1d      	ldr	r2, [pc, #116]	; (800283c <HAL_I2C_MspInit+0xf8>)
 80027c8:	4293      	cmp	r3, r2
 80027ca:	d12c      	bne.n	8002826 <HAL_I2C_MspInit+0xe2>
    __HAL_RCC_GPIOB_CLK_ENABLE();
 80027cc:	2300      	movs	r3, #0
 80027ce:	613b      	str	r3, [r7, #16]
 80027d0:	4b18      	ldr	r3, [pc, #96]	; (8002834 <HAL_I2C_MspInit+0xf0>)
 80027d2:	6b1b      	ldr	r3, [r3, #48]	; 0x30
 80027d4:	4a17      	ldr	r2, [pc, #92]	; (8002834 <HAL_I2C_MspInit+0xf0>)
 80027d6:	f043 0302 	orr.w	r3, r3, #2
 80027da:	6313      	str	r3, [r2, #48]	; 0x30
 80027dc:	4b15      	ldr	r3, [pc, #84]	; (8002834 <HAL_I2C_MspInit+0xf0>)
 80027de:	6b1b      	ldr	r3, [r3, #48]	; 0x30
 80027e0:	f003 0302 	and.w	r3, r3, #2
 80027e4:	613b      	str	r3, [r7, #16]
 80027e6:	693b      	ldr	r3, [r7, #16]
    GPIO_InitStruct.Pin = GPIO_PIN_10|GPIO_PIN_11;
 80027e8:	f44f 6340 	mov.w	r3, #3072	; 0xc00
 80027ec:	61fb      	str	r3, [r7, #28]
    GPIO_InitStruct.Mode = GPIO_MODE_AF_OD;
 80027ee:	2312      	movs	r3, #18
 80027f0:	623b      	str	r3, [r7, #32]
    GPIO_InitStruct.Pull = GPIO_NOPULL;
 80027f2:	2300      	movs	r3, #0
 80027f4:	627b      	str	r3, [r7, #36]	; 0x24
    GPIO_InitStruct.Speed = GPIO_SPEED_FREQ_VERY_HIGH;
 80027f6:	2303      	movs	r3, #3
 80027f8:	62bb      	str	r3, [r7, #40]	; 0x28
    GPIO_InitStruct.Alternate = GPIO_AF4_I2C2;
 80027fa:	2304      	movs	r3, #4
 80027fc:	62fb      	str	r3, [r7, #44]	; 0x2c
    HAL_GPIO_Init(GPIOB, &GPIO_InitStruct);
 80027fe:	f107 031c 	add.w	r3, r7, #28
 8002802:	4619      	mov	r1, r3
 8002804:	480c      	ldr	r0, [pc, #48]	; (8002838 <HAL_I2C_MspInit+0xf4>)
 8002806:	f001 ff4d 	bl	80046a4 <HAL_GPIO_Init>
    __HAL_RCC_I2C2_CLK_ENABLE();
 800280a:	2300      	movs	r3, #0
 800280c:	60fb      	str	r3, [r7, #12]
 800280e:	4b09      	ldr	r3, [pc, #36]	; (8002834 <HAL_I2C_MspInit+0xf0>)
 8002810:	6c1b      	ldr	r3, [r3, #64]	; 0x40
 8002812:	4a08      	ldr	r2, [pc, #32]	; (8002834 <HAL_I2C_MspInit+0xf0>)
 8002814:	f443 0380 	orr.w	r3, r3, #4194304	; 0x400000
 8002818:	6413      	str	r3, [r2, #64]	; 0x40
 800281a:	4b06      	ldr	r3, [pc, #24]	; (8002834 <HAL_I2C_MspInit+0xf0>)
 800281c:	6c1b      	ldr	r3, [r3, #64]	; 0x40
 800281e:	f403 0380 	and.w	r3, r3, #4194304	; 0x400000
 8002822:	60fb      	str	r3, [r7, #12]
 8002824:	68fb      	ldr	r3, [r7, #12]
}
 8002826:	bf00      	nop
 8002828:	3730      	adds	r7, #48	; 0x30
 800282a:	46bd      	mov	sp, r7
 800282c:	bd80      	pop	{r7, pc}
 800282e:	bf00      	nop
 8002830:	40005400 	.word	0x40005400
 8002834:	40023800 	.word	0x40023800
 8002838:	40020400 	.word	0x40020400
 800283c:	40005800 	.word	0x40005800

08002840 <HAL_RTC_MspInit>:
* This function configures the hardware resources used in this example
* @param hrtc: RTC handle pointer
* @retval None
*/
void HAL_RTC_MspInit(RTC_HandleTypeDef* hrtc)
{
 8002840:	b580      	push	{r7, lr}
 8002842:	b08e      	sub	sp, #56	; 0x38
 8002844:	af00      	add	r7, sp, #0
 8002846:	6078      	str	r0, [r7, #4]
  RCC_PeriphCLKInitTypeDef PeriphClkInitStruct = {0};
 8002848:	f107 0308 	add.w	r3, r7, #8
 800284c:	2230      	movs	r2, #48	; 0x30
 800284e:	2100      	movs	r1, #0
 8002850:	4618      	mov	r0, r3
 8002852:	f006 fd4b 	bl	80092ec <memset>
  if(hrtc->Instance==RTC)
 8002856:	687b      	ldr	r3, [r7, #4]
 8002858:	681b      	ldr	r3, [r3, #0]
 800285a:	4a0c      	ldr	r2, [pc, #48]	; (800288c <HAL_RTC_MspInit+0x4c>)
 800285c:	4293      	cmp	r3, r2
 800285e:	d111      	bne.n	8002884 <HAL_RTC_MspInit+0x44>

  /* USER CODE END RTC_MspInit 0 */

  /** Initializes the peripherals clock
  */
    PeriphClkInitStruct.PeriphClockSelection = RCC_PERIPHCLK_RTC;
 8002860:	2320      	movs	r3, #32
 8002862:	60bb      	str	r3, [r7, #8]
    PeriphClkInitStruct.RTCClockSelection = RCC_RTCCLKSOURCE_LSI;
 8002864:	f44f 7300 	mov.w	r3, #512	; 0x200
 8002868:	633b      	str	r3, [r7, #48]	; 0x30
    if (HAL_RCCEx_PeriphCLKConfig(&PeriphClkInitStruct) != HAL_OK)
 800286a:	f107 0308 	add.w	r3, r7, #8
 800286e:	4618      	mov	r0, r3
 8002870:	f003 fdde 	bl	8006430 <HAL_RCCEx_PeriphCLKConfig>
 8002874:	4603      	mov	r3, r0
 8002876:	2b00      	cmp	r3, #0
 8002878:	d001      	beq.n	800287e <HAL_RTC_MspInit+0x3e>
    {
      Error_Handler();
 800287a:	f7ff fa51 	bl	8001d20 <Error_Handler>
    }

    /* Peripheral clock enable */
    __HAL_RCC_RTC_ENABLE();
 800287e:	4b04      	ldr	r3, [pc, #16]	; (8002890 <HAL_RTC_MspInit+0x50>)
 8002880:	2201      	movs	r2, #1
 8002882:	601a      	str	r2, [r3, #0]
  /* USER CODE BEGIN RTC_MspInit 1 */

  /* USER CODE END RTC_MspInit 1 */
  }

}
 8002884:	bf00      	nop
 8002886:	3738      	adds	r7, #56	; 0x38
 8002888:	46bd      	mov	sp, r7
 800288a:	bd80      	pop	{r7, pc}
 800288c:	40002800 	.word	0x40002800
 8002890:	42470e3c 	.word	0x42470e3c

08002894 <HAL_SPI_MspInit>:
* This function configures the hardware resources used in this example
* @param hspi: SPI handle pointer
* @retval None
*/
void HAL_SPI_MspInit(SPI_HandleTypeDef* hspi)
{
 8002894:	b580      	push	{r7, lr}
 8002896:	b08c      	sub	sp, #48	; 0x30
 8002898:	af00      	add	r7, sp, #0
 800289a:	6078      	str	r0, [r7, #4]
  GPIO_InitTypeDef GPIO_InitStruct = {0};
 800289c:	f107 031c 	add.w	r3, r7, #28
 80028a0:	2200      	movs	r2, #0
 80028a2:	601a      	str	r2, [r3, #0]
 80028a4:	605a      	str	r2, [r3, #4]
 80028a6:	609a      	str	r2, [r3, #8]
 80028a8:	60da      	str	r2, [r3, #12]
 80028aa:	611a      	str	r2, [r3, #16]
  if(hspi->Instance==SPI1)
 80028ac:	687b      	ldr	r3, [r7, #4]
 80028ae:	681b      	ldr	r3, [r3, #0]
 80028b0:	4a6f      	ldr	r2, [pc, #444]	; (8002a70 <HAL_SPI_MspInit+0x1dc>)
 80028b2:	4293      	cmp	r3, r2
 80028b4:	d15b      	bne.n	800296e <HAL_SPI_MspInit+0xda>
  {
  /* USER CODE BEGIN SPI1_MspInit 0 */

  /* USER CODE END SPI1_MspInit 0 */
    /* Peripheral clock enable */
    __HAL_RCC_SPI1_CLK_ENABLE();
 80028b6:	2300      	movs	r3, #0
 80028b8:	61bb      	str	r3, [r7, #24]
 80028ba:	4b6e      	ldr	r3, [pc, #440]	; (8002a74 <HAL_SPI_MspInit+0x1e0>)
 80028bc:	6c5b      	ldr	r3, [r3, #68]	; 0x44
 80028be:	4a6d      	ldr	r2, [pc, #436]	; (8002a74 <HAL_SPI_MspInit+0x1e0>)
 80028c0:	f443 5380 	orr.w	r3, r3, #4096	; 0x1000
 80028c4:	6453      	str	r3, [r2, #68]	; 0x44
 80028c6:	4b6b      	ldr	r3, [pc, #428]	; (8002a74 <HAL_SPI_MspInit+0x1e0>)
 80028c8:	6c5b      	ldr	r3, [r3, #68]	; 0x44
 80028ca:	f403 5380 	and.w	r3, r3, #4096	; 0x1000
 80028ce:	61bb      	str	r3, [r7, #24]
 80028d0:	69bb      	ldr	r3, [r7, #24]

    __HAL_RCC_GPIOA_CLK_ENABLE();
 80028d2:	2300      	movs	r3, #0
 80028d4:	617b      	str	r3, [r7, #20]
 80028d6:	4b67      	ldr	r3, [pc, #412]	; (8002a74 <HAL_SPI_MspInit+0x1e0>)
 80028d8:	6b1b      	ldr	r3, [r3, #48]	; 0x30
 80028da:	4a66      	ldr	r2, [pc, #408]	; (8002a74 <HAL_SPI_MspInit+0x1e0>)
 80028dc:	f043 0301 	orr.w	r3, r3, #1
 80028e0:	6313      	str	r3, [r2, #48]	; 0x30
 80028e2:	4b64      	ldr	r3, [pc, #400]	; (8002a74 <HAL_SPI_MspInit+0x1e0>)
 80028e4:	6b1b      	ldr	r3, [r3, #48]	; 0x30
 80028e6:	f003 0301 	and.w	r3, r3, #1
 80028ea:	617b      	str	r3, [r7, #20]
 80028ec:	697b      	ldr	r3, [r7, #20]
    /**SPI1 GPIO Configuration
    PA5     ------> SPI1_SCK
    PA6     ------> SPI1_MISO
    PA7     ------> SPI1_MOSI
    */
    GPIO_InitStruct.Pin = GPIO_PIN_5|GPIO_PIN_6|GPIO_PIN_7;
 80028ee:	23e0      	movs	r3, #224	; 0xe0
 80028f0:	61fb      	str	r3, [r7, #28]
    GPIO_InitStruct.Mode = GPIO_MODE_AF_PP;
 80028f2:	2302      	movs	r3, #2
 80028f4:	623b      	str	r3, [r7, #32]
    GPIO_InitStruct.Pull = GPIO_NOPULL;
 80028f6:	2300      	movs	r3, #0
 80028f8:	627b      	str	r3, [r7, #36]	; 0x24
    GPIO_InitStruct.Speed = GPIO_SPEED_FREQ_VERY_HIGH;
 80028fa:	2303      	movs	r3, #3
 80028fc:	62bb      	str	r3, [r7, #40]	; 0x28
    GPIO_InitStruct.Alternate = GPIO_AF5_SPI1;
 80028fe:	2305      	movs	r3, #5
 8002900:	62fb      	str	r3, [r7, #44]	; 0x2c
    HAL_GPIO_Init(GPIOA, &GPIO_InitStruct);
 8002902:	f107 031c 	add.w	r3, r7, #28
 8002906:	4619      	mov	r1, r3
 8002908:	485b      	ldr	r0, [pc, #364]	; (8002a78 <HAL_SPI_MspInit+0x1e4>)
 800290a:	f001 fecb 	bl	80046a4 <HAL_GPIO_Init>

    /* SPI1 DMA Init */
    /* SPI1_TX Init */
    hdma_spi1_tx.Instance = DMA2_Stream3;
 800290e:	4b5b      	ldr	r3, [pc, #364]	; (8002a7c <HAL_SPI_MspInit+0x1e8>)
 8002910:	4a5b      	ldr	r2, [pc, #364]	; (8002a80 <HAL_SPI_MspInit+0x1ec>)
 8002912:	601a      	str	r2, [r3, #0]
    hdma_spi1_tx.Init.Channel = DMA_CHANNEL_3;
 8002914:	4b59      	ldr	r3, [pc, #356]	; (8002a7c <HAL_SPI_MspInit+0x1e8>)
 8002916:	f04f 62c0 	mov.w	r2, #100663296	; 0x6000000
 800291a:	605a      	str	r2, [r3, #4]
    hdma_spi1_tx.Init.Direction = DMA_MEMORY_TO_PERIPH;
 800291c:	4b57      	ldr	r3, [pc, #348]	; (8002a7c <HAL_SPI_MspInit+0x1e8>)
 800291e:	2240      	movs	r2, #64	; 0x40
 8002920:	609a      	str	r2, [r3, #8]
    hdma_spi1_tx.Init.PeriphInc = DMA_PINC_DISABLE;
 8002922:	4b56      	ldr	r3, [pc, #344]	; (8002a7c <HAL_SPI_MspInit+0x1e8>)
 8002924:	2200      	movs	r2, #0
 8002926:	60da      	str	r2, [r3, #12]
    hdma_spi1_tx.Init.MemInc = DMA_MINC_ENABLE;
 8002928:	4b54      	ldr	r3, [pc, #336]	; (8002a7c <HAL_SPI_MspInit+0x1e8>)
 800292a:	f44f 6280 	mov.w	r2, #1024	; 0x400
 800292e:	611a      	str	r2, [r3, #16]
    hdma_spi1_tx.Init.PeriphDataAlignment = DMA_PDATAALIGN_BYTE;
 8002930:	4b52      	ldr	r3, [pc, #328]	; (8002a7c <HAL_SPI_MspInit+0x1e8>)
 8002932:	2200      	movs	r2, #0
 8002934:	615a      	str	r2, [r3, #20]
    hdma_spi1_tx.Init.MemDataAlignment = DMA_MDATAALIGN_BYTE;
 8002936:	4b51      	ldr	r3, [pc, #324]	; (8002a7c <HAL_SPI_MspInit+0x1e8>)
 8002938:	2200      	movs	r2, #0
 800293a:	619a      	str	r2, [r3, #24]
    hdma_spi1_tx.Init.Mode = DMA_NORMAL;
 800293c:	4b4f      	ldr	r3, [pc, #316]	; (8002a7c <HAL_SPI_MspInit+0x1e8>)
 800293e:	2200      	movs	r2, #0
 8002940:	61da      	str	r2, [r3, #28]
    hdma_spi1_tx.Init.Priority = DMA_PRIORITY_MEDIUM;
 8002942:	4b4e      	ldr	r3, [pc, #312]	; (8002a7c <HAL_SPI_MspInit+0x1e8>)
 8002944:	f44f 3280 	mov.w	r2, #65536	; 0x10000
 8002948:	621a      	str	r2, [r3, #32]
    hdma_spi1_tx.Init.FIFOMode = DMA_FIFOMODE_DISABLE;
 800294a:	4b4c      	ldr	r3, [pc, #304]	; (8002a7c <HAL_SPI_MspInit+0x1e8>)
 800294c:	2200      	movs	r2, #0
 800294e:	625a      	str	r2, [r3, #36]	; 0x24
    if (HAL_DMA_Init(&hdma_spi1_tx) != HAL_OK)
 8002950:	484a      	ldr	r0, [pc, #296]	; (8002a7c <HAL_SPI_MspInit+0x1e8>)
 8002952:	f001 faa5 	bl	8003ea0 <HAL_DMA_Init>
 8002956:	4603      	mov	r3, r0
 8002958:	2b00      	cmp	r3, #0
 800295a:	d001      	beq.n	8002960 <HAL_SPI_MspInit+0xcc>
    {
      Error_Handler();
 800295c:	f7ff f9e0 	bl	8001d20 <Error_Handler>
    }

    __HAL_LINKDMA(hspi,hdmatx,hdma_spi1_tx);
 8002960:	687b      	ldr	r3, [r7, #4]
 8002962:	4a46      	ldr	r2, [pc, #280]	; (8002a7c <HAL_SPI_MspInit+0x1e8>)
 8002964:	649a      	str	r2, [r3, #72]	; 0x48
 8002966:	4a45      	ldr	r2, [pc, #276]	; (8002a7c <HAL_SPI_MspInit+0x1e8>)
 8002968:	687b      	ldr	r3, [r7, #4]
 800296a:	6393      	str	r3, [r2, #56]	; 0x38
  /* USER CODE BEGIN SPI2_MspInit 1 */

  /* USER CODE END SPI2_MspInit 1 */
  }

}
 800296c:	e07b      	b.n	8002a66 <HAL_SPI_MspInit+0x1d2>
  else if(hspi->Instance==SPI2)
 800296e:	687b      	ldr	r3, [r7, #4]
 8002970:	681b      	ldr	r3, [r3, #0]
 8002972:	4a44      	ldr	r2, [pc, #272]	; (8002a84 <HAL_SPI_MspInit+0x1f0>)
 8002974:	4293      	cmp	r3, r2
 8002976:	d176      	bne.n	8002a66 <HAL_SPI_MspInit+0x1d2>
    __HAL_RCC_SPI2_CLK_ENABLE();
 8002978:	2300      	movs	r3, #0
 800297a:	613b      	str	r3, [r7, #16]
 800297c:	4b3d      	ldr	r3, [pc, #244]	; (8002a74 <HAL_SPI_MspInit+0x1e0>)
 800297e:	6c1b      	ldr	r3, [r3, #64]	; 0x40
 8002980:	4a3c      	ldr	r2, [pc, #240]	; (8002a74 <HAL_SPI_MspInit+0x1e0>)
 8002982:	f443 4380 	orr.w	r3, r3, #16384	; 0x4000
 8002986:	6413      	str	r3, [r2, #64]	; 0x40
 8002988:	4b3a      	ldr	r3, [pc, #232]	; (8002a74 <HAL_SPI_MspInit+0x1e0>)
 800298a:	6c1b      	ldr	r3, [r3, #64]	; 0x40
 800298c:	f403 4380 	and.w	r3, r3, #16384	; 0x4000
 8002990:	613b      	str	r3, [r7, #16]
 8002992:	693b      	ldr	r3, [r7, #16]
    __HAL_RCC_GPIOC_CLK_ENABLE();
 8002994:	2300      	movs	r3, #0
 8002996:	60fb      	str	r3, [r7, #12]
 8002998:	4b36      	ldr	r3, [pc, #216]	; (8002a74 <HAL_SPI_MspInit+0x1e0>)
 800299a:	6b1b      	ldr	r3, [r3, #48]	; 0x30
 800299c:	4a35      	ldr	r2, [pc, #212]	; (8002a74 <HAL_SPI_MspInit+0x1e0>)
 800299e:	f043 0304 	orr.w	r3, r3, #4
 80029a2:	6313      	str	r3, [r2, #48]	; 0x30
 80029a4:	4b33      	ldr	r3, [pc, #204]	; (8002a74 <HAL_SPI_MspInit+0x1e0>)
 80029a6:	6b1b      	ldr	r3, [r3, #48]	; 0x30
 80029a8:	f003 0304 	and.w	r3, r3, #4
 80029ac:	60fb      	str	r3, [r7, #12]
 80029ae:	68fb      	ldr	r3, [r7, #12]
    __HAL_RCC_GPIOD_CLK_ENABLE();
 80029b0:	2300      	movs	r3, #0
 80029b2:	60bb      	str	r3, [r7, #8]
 80029b4:	4b2f      	ldr	r3, [pc, #188]	; (8002a74 <HAL_SPI_MspInit+0x1e0>)
 80029b6:	6b1b      	ldr	r3, [r3, #48]	; 0x30
 80029b8:	4a2e      	ldr	r2, [pc, #184]	; (8002a74 <HAL_SPI_MspInit+0x1e0>)
 80029ba:	f043 0308 	orr.w	r3, r3, #8
 80029be:	6313      	str	r3, [r2, #48]	; 0x30
 80029c0:	4b2c      	ldr	r3, [pc, #176]	; (8002a74 <HAL_SPI_MspInit+0x1e0>)
 80029c2:	6b1b      	ldr	r3, [r3, #48]	; 0x30
 80029c4:	f003 0308 	and.w	r3, r3, #8
 80029c8:	60bb      	str	r3, [r7, #8]
 80029ca:	68bb      	ldr	r3, [r7, #8]
    GPIO_InitStruct.Pin = GPIO_PIN_2|GPIO_PIN_3;
 80029cc:	230c      	movs	r3, #12
 80029ce:	61fb      	str	r3, [r7, #28]
    GPIO_InitStruct.Mode = GPIO_MODE_AF_PP;
 80029d0:	2302      	movs	r3, #2
 80029d2:	623b      	str	r3, [r7, #32]
    GPIO_InitStruct.Pull = GPIO_NOPULL;
 80029d4:	2300      	movs	r3, #0
 80029d6:	627b      	str	r3, [r7, #36]	; 0x24
    GPIO_InitStruct.Speed = GPIO_SPEED_FREQ_VERY_HIGH;
 80029d8:	2303      	movs	r3, #3
 80029da:	62bb      	str	r3, [r7, #40]	; 0x28
    GPIO_InitStruct.Alternate = GPIO_AF5_SPI2;
 80029dc:	2305      	movs	r3, #5
 80029de:	62fb      	str	r3, [r7, #44]	; 0x2c
    HAL_GPIO_Init(GPIOC, &GPIO_InitStruct);
 80029e0:	f107 031c 	add.w	r3, r7, #28
 80029e4:	4619      	mov	r1, r3
 80029e6:	4828      	ldr	r0, [pc, #160]	; (8002a88 <HAL_SPI_MspInit+0x1f4>)
 80029e8:	f001 fe5c 	bl	80046a4 <HAL_GPIO_Init>
    GPIO_InitStruct.Pin = GPIO_PIN_3;
 80029ec:	2308      	movs	r3, #8
 80029ee:	61fb      	str	r3, [r7, #28]
    GPIO_InitStruct.Mode = GPIO_MODE_AF_PP;
 80029f0:	2302      	movs	r3, #2
 80029f2:	623b      	str	r3, [r7, #32]
    GPIO_InitStruct.Pull = GPIO_NOPULL;
 80029f4:	2300      	movs	r3, #0
 80029f6:	627b      	str	r3, [r7, #36]	; 0x24
    GPIO_InitStruct.Speed = GPIO_SPEED_FREQ_VERY_HIGH;
 80029f8:	2303      	movs	r3, #3
 80029fa:	62bb      	str	r3, [r7, #40]	; 0x28
    GPIO_InitStruct.Alternate = GPIO_AF5_SPI2;
 80029fc:	2305      	movs	r3, #5
 80029fe:	62fb      	str	r3, [r7, #44]	; 0x2c
    HAL_GPIO_Init(GPIOD, &GPIO_InitStruct);
 8002a00:	f107 031c 	add.w	r3, r7, #28
 8002a04:	4619      	mov	r1, r3
 8002a06:	4821      	ldr	r0, [pc, #132]	; (8002a8c <HAL_SPI_MspInit+0x1f8>)
 8002a08:	f001 fe4c 	bl	80046a4 <HAL_GPIO_Init>
    hdma_spi2_tx.Instance = DMA1_Stream4;
 8002a0c:	4b20      	ldr	r3, [pc, #128]	; (8002a90 <HAL_SPI_MspInit+0x1fc>)
 8002a0e:	4a21      	ldr	r2, [pc, #132]	; (8002a94 <HAL_SPI_MspInit+0x200>)
 8002a10:	601a      	str	r2, [r3, #0]
    hdma_spi2_tx.Init.Channel = DMA_CHANNEL_0;
 8002a12:	4b1f      	ldr	r3, [pc, #124]	; (8002a90 <HAL_SPI_MspInit+0x1fc>)
 8002a14:	2200      	movs	r2, #0
 8002a16:	605a      	str	r2, [r3, #4]
    hdma_spi2_tx.Init.Direction = DMA_MEMORY_TO_PERIPH;
 8002a18:	4b1d      	ldr	r3, [pc, #116]	; (8002a90 <HAL_SPI_MspInit+0x1fc>)
 8002a1a:	2240      	movs	r2, #64	; 0x40
 8002a1c:	609a      	str	r2, [r3, #8]
    hdma_spi2_tx.Init.PeriphInc = DMA_PINC_DISABLE;
 8002a1e:	4b1c      	ldr	r3, [pc, #112]	; (8002a90 <HAL_SPI_MspInit+0x1fc>)
 8002a20:	2200      	movs	r2, #0
 8002a22:	60da      	str	r2, [r3, #12]
    hdma_spi2_tx.Init.MemInc = DMA_MINC_ENABLE;
 8002a24:	4b1a      	ldr	r3, [pc, #104]	; (8002a90 <HAL_SPI_MspInit+0x1fc>)
 8002a26:	f44f 6280 	mov.w	r2, #1024	; 0x400
 8002a2a:	611a      	str	r2, [r3, #16]
    hdma_spi2_tx.Init.PeriphDataAlignment = DMA_PDATAALIGN_BYTE;
 8002a2c:	4b18      	ldr	r3, [pc, #96]	; (8002a90 <HAL_SPI_MspInit+0x1fc>)
 8002a2e:	2200      	movs	r2, #0
 8002a30:	615a      	str	r2, [r3, #20]
    hdma_spi2_tx.Init.MemDataAlignment = DMA_MDATAALIGN_BYTE;
 8002a32:	4b17      	ldr	r3, [pc, #92]	; (8002a90 <HAL_SPI_MspInit+0x1fc>)
 8002a34:	2200      	movs	r2, #0
 8002a36:	619a      	str	r2, [r3, #24]
    hdma_spi2_tx.Init.Mode = DMA_NORMAL;
 8002a38:	4b15      	ldr	r3, [pc, #84]	; (8002a90 <HAL_SPI_MspInit+0x1fc>)
 8002a3a:	2200      	movs	r2, #0
 8002a3c:	61da      	str	r2, [r3, #28]
    hdma_spi2_tx.Init.Priority = DMA_PRIORITY_LOW;
 8002a3e:	4b14      	ldr	r3, [pc, #80]	; (8002a90 <HAL_SPI_MspInit+0x1fc>)
 8002a40:	2200      	movs	r2, #0
 8002a42:	621a      	str	r2, [r3, #32]
    hdma_spi2_tx.Init.FIFOMode = DMA_FIFOMODE_DISABLE;
 8002a44:	4b12      	ldr	r3, [pc, #72]	; (8002a90 <HAL_SPI_MspInit+0x1fc>)
 8002a46:	2200      	movs	r2, #0
 8002a48:	625a      	str	r2, [r3, #36]	; 0x24
    if (HAL_DMA_Init(&hdma_spi2_tx) != HAL_OK)
 8002a4a:	4811      	ldr	r0, [pc, #68]	; (8002a90 <HAL_SPI_MspInit+0x1fc>)
 8002a4c:	f001 fa28 	bl	8003ea0 <HAL_DMA_Init>
 8002a50:	4603      	mov	r3, r0
 8002a52:	2b00      	cmp	r3, #0
 8002a54:	d001      	beq.n	8002a5a <HAL_SPI_MspInit+0x1c6>
      Error_Handler();
 8002a56:	f7ff f963 	bl	8001d20 <Error_Handler>
    __HAL_LINKDMA(hspi,hdmatx,hdma_spi2_tx);
 8002a5a:	687b      	ldr	r3, [r7, #4]
 8002a5c:	4a0c      	ldr	r2, [pc, #48]	; (8002a90 <HAL_SPI_MspInit+0x1fc>)
 8002a5e:	649a      	str	r2, [r3, #72]	; 0x48
 8002a60:	4a0b      	ldr	r2, [pc, #44]	; (8002a90 <HAL_SPI_MspInit+0x1fc>)
 8002a62:	687b      	ldr	r3, [r7, #4]
 8002a64:	6393      	str	r3, [r2, #56]	; 0x38
}
 8002a66:	bf00      	nop
 8002a68:	3730      	adds	r7, #48	; 0x30
 8002a6a:	46bd      	mov	sp, r7
 8002a6c:	bd80      	pop	{r7, pc}
 8002a6e:	bf00      	nop
 8002a70:	40013000 	.word	0x40013000
 8002a74:	40023800 	.word	0x40023800
 8002a78:	40020000 	.word	0x40020000
 8002a7c:	200001e8 	.word	0x200001e8
 8002a80:	40026458 	.word	0x40026458
 8002a84:	40003800 	.word	0x40003800
 8002a88:	40020800 	.word	0x40020800
 8002a8c:	40020c00 	.word	0x40020c00
 8002a90:	20000248 	.word	0x20000248
 8002a94:	40026070 	.word	0x40026070

08002a98 <HAL_TIM_Base_MspInit>:
* This function configures the hardware resources used in this example
* @param htim_base: TIM_Base handle pointer
* @retval None
*/
void HAL_TIM_Base_MspInit(TIM_HandleTypeDef* htim_base)
{
 8002a98:	b580      	push	{r7, lr}
 8002a9a:	b084      	sub	sp, #16
 8002a9c:	af00      	add	r7, sp, #0
 8002a9e:	6078      	str	r0, [r7, #4]
  if(htim_base->Instance==TIM6)
 8002aa0:	687b      	ldr	r3, [r7, #4]
 8002aa2:	681b      	ldr	r3, [r3, #0]
 8002aa4:	4a1c      	ldr	r2, [pc, #112]	; (8002b18 <HAL_TIM_Base_MspInit+0x80>)
 8002aa6:	4293      	cmp	r3, r2
 8002aa8:	d116      	bne.n	8002ad8 <HAL_TIM_Base_MspInit+0x40>
  {
  /* USER CODE BEGIN TIM6_MspInit 0 */

  /* USER CODE END TIM6_MspInit 0 */
    /* Peripheral clock enable */
    __HAL_RCC_TIM6_CLK_ENABLE();
 8002aaa:	2300      	movs	r3, #0
 8002aac:	60fb      	str	r3, [r7, #12]
 8002aae:	4b1b      	ldr	r3, [pc, #108]	; (8002b1c <HAL_TIM_Base_MspInit+0x84>)
 8002ab0:	6c1b      	ldr	r3, [r3, #64]	; 0x40
 8002ab2:	4a1a      	ldr	r2, [pc, #104]	; (8002b1c <HAL_TIM_Base_MspInit+0x84>)
 8002ab4:	f043 0310 	orr.w	r3, r3, #16
 8002ab8:	6413      	str	r3, [r2, #64]	; 0x40
 8002aba:	4b18      	ldr	r3, [pc, #96]	; (8002b1c <HAL_TIM_Base_MspInit+0x84>)
 8002abc:	6c1b      	ldr	r3, [r3, #64]	; 0x40
 8002abe:	f003 0310 	and.w	r3, r3, #16
 8002ac2:	60fb      	str	r3, [r7, #12]
 8002ac4:	68fb      	ldr	r3, [r7, #12]
    /* TIM6 interrupt Init */
    HAL_NVIC_SetPriority(TIM6_DAC_IRQn, 0, 0);
 8002ac6:	2200      	movs	r2, #0
 8002ac8:	2100      	movs	r1, #0
 8002aca:	2036      	movs	r0, #54	; 0x36
 8002acc:	f001 f9b1 	bl	8003e32 <HAL_NVIC_SetPriority>
    HAL_NVIC_EnableIRQ(TIM6_DAC_IRQn);
 8002ad0:	2036      	movs	r0, #54	; 0x36
 8002ad2:	f001 f9ca 	bl	8003e6a <HAL_NVIC_EnableIRQ>
  /* USER CODE BEGIN TIM7_MspInit 1 */

  /* USER CODE END TIM7_MspInit 1 */
  }

}
 8002ad6:	e01a      	b.n	8002b0e <HAL_TIM_Base_MspInit+0x76>
  else if(htim_base->Instance==TIM7)
 8002ad8:	687b      	ldr	r3, [r7, #4]
 8002ada:	681b      	ldr	r3, [r3, #0]
 8002adc:	4a10      	ldr	r2, [pc, #64]	; (8002b20 <HAL_TIM_Base_MspInit+0x88>)
 8002ade:	4293      	cmp	r3, r2
 8002ae0:	d115      	bne.n	8002b0e <HAL_TIM_Base_MspInit+0x76>
    __HAL_RCC_TIM7_CLK_ENABLE();
 8002ae2:	2300      	movs	r3, #0
 8002ae4:	60bb      	str	r3, [r7, #8]
 8002ae6:	4b0d      	ldr	r3, [pc, #52]	; (8002b1c <HAL_TIM_Base_MspInit+0x84>)
 8002ae8:	6c1b      	ldr	r3, [r3, #64]	; 0x40
 8002aea:	4a0c      	ldr	r2, [pc, #48]	; (8002b1c <HAL_TIM_Base_MspInit+0x84>)
 8002aec:	f043 0320 	orr.w	r3, r3, #32
 8002af0:	6413      	str	r3, [r2, #64]	; 0x40
 8002af2:	4b0a      	ldr	r3, [pc, #40]	; (8002b1c <HAL_TIM_Base_MspInit+0x84>)
 8002af4:	6c1b      	ldr	r3, [r3, #64]	; 0x40
 8002af6:	f003 0320 	and.w	r3, r3, #32
 8002afa:	60bb      	str	r3, [r7, #8]
 8002afc:	68bb      	ldr	r3, [r7, #8]
    HAL_NVIC_SetPriority(TIM7_IRQn, 0, 0);
 8002afe:	2200      	movs	r2, #0
 8002b00:	2100      	movs	r1, #0
 8002b02:	2037      	movs	r0, #55	; 0x37
 8002b04:	f001 f995 	bl	8003e32 <HAL_NVIC_SetPriority>
    HAL_NVIC_EnableIRQ(TIM7_IRQn);
 8002b08:	2037      	movs	r0, #55	; 0x37
 8002b0a:	f001 f9ae 	bl	8003e6a <HAL_NVIC_EnableIRQ>
}
 8002b0e:	bf00      	nop
 8002b10:	3710      	adds	r7, #16
 8002b12:	46bd      	mov	sp, r7
 8002b14:	bd80      	pop	{r7, pc}
 8002b16:	bf00      	nop
 8002b18:	40001000 	.word	0x40001000
 8002b1c:	40023800 	.word	0x40023800
 8002b20:	40001400 	.word	0x40001400

08002b24 <HAL_UART_MspInit>:
* This function configures the hardware resources used in this example
* @param huart: UART handle pointer
* @retval None
*/
void HAL_UART_MspInit(UART_HandleTypeDef* huart)
{
 8002b24:	b580      	push	{r7, lr}
 8002b26:	b08a      	sub	sp, #40	; 0x28
 8002b28:	af00      	add	r7, sp, #0
 8002b2a:	6078      	str	r0, [r7, #4]
  GPIO_InitTypeDef GPIO_InitStruct = {0};
 8002b2c:	f107 0314 	add.w	r3, r7, #20
 8002b30:	2200      	movs	r2, #0
 8002b32:	601a      	str	r2, [r3, #0]
 8002b34:	605a      	str	r2, [r3, #4]
 8002b36:	609a      	str	r2, [r3, #8]
 8002b38:	60da      	str	r2, [r3, #12]
 8002b3a:	611a      	str	r2, [r3, #16]
  if(huart->Instance==USART2)
 8002b3c:	687b      	ldr	r3, [r7, #4]
 8002b3e:	681b      	ldr	r3, [r3, #0]
 8002b40:	4a1d      	ldr	r2, [pc, #116]	; (8002bb8 <HAL_UART_MspInit+0x94>)
 8002b42:	4293      	cmp	r3, r2
 8002b44:	d133      	bne.n	8002bae <HAL_UART_MspInit+0x8a>
  {
  /* USER CODE BEGIN USART2_MspInit 0 */

  /* USER CODE END USART2_MspInit 0 */
    /* Peripheral clock enable */
    __HAL_RCC_USART2_CLK_ENABLE();
 8002b46:	2300      	movs	r3, #0
 8002b48:	613b      	str	r3, [r7, #16]
 8002b4a:	4b1c      	ldr	r3, [pc, #112]	; (8002bbc <HAL_UART_MspInit+0x98>)
 8002b4c:	6c1b      	ldr	r3, [r3, #64]	; 0x40
 8002b4e:	4a1b      	ldr	r2, [pc, #108]	; (8002bbc <HAL_UART_MspInit+0x98>)
 8002b50:	f443 3300 	orr.w	r3, r3, #131072	; 0x20000
 8002b54:	6413      	str	r3, [r2, #64]	; 0x40
 8002b56:	4b19      	ldr	r3, [pc, #100]	; (8002bbc <HAL_UART_MspInit+0x98>)
 8002b58:	6c1b      	ldr	r3, [r3, #64]	; 0x40
 8002b5a:	f403 3300 	and.w	r3, r3, #131072	; 0x20000
 8002b5e:	613b      	str	r3, [r7, #16]
 8002b60:	693b      	ldr	r3, [r7, #16]

    __HAL_RCC_GPIOD_CLK_ENABLE();
 8002b62:	2300      	movs	r3, #0
 8002b64:	60fb      	str	r3, [r7, #12]
 8002b66:	4b15      	ldr	r3, [pc, #84]	; (8002bbc <HAL_UART_MspInit+0x98>)
 8002b68:	6b1b      	ldr	r3, [r3, #48]	; 0x30
 8002b6a:	4a14      	ldr	r2, [pc, #80]	; (8002bbc <HAL_UART_MspInit+0x98>)
 8002b6c:	f043 0308 	orr.w	r3, r3, #8
 8002b70:	6313      	str	r3, [r2, #48]	; 0x30
 8002b72:	4b12      	ldr	r3, [pc, #72]	; (8002bbc <HAL_UART_MspInit+0x98>)
 8002b74:	6b1b      	ldr	r3, [r3, #48]	; 0x30
 8002b76:	f003 0308 	and.w	r3, r3, #8
 8002b7a:	60fb      	str	r3, [r7, #12]
 8002b7c:	68fb      	ldr	r3, [r7, #12]
    /**USART2 GPIO Configuration
    PD5     ------> USART2_TX
    PD6     ------> USART2_RX
    */
    GPIO_InitStruct.Pin = GPIO_PIN_5|GPIO_PIN_6;
 8002b7e:	2360      	movs	r3, #96	; 0x60
 8002b80:	617b      	str	r3, [r7, #20]
    GPIO_InitStruct.Mode = GPIO_MODE_AF_PP;
 8002b82:	2302      	movs	r3, #2
 8002b84:	61bb      	str	r3, [r7, #24]
    GPIO_InitStruct.Pull = GPIO_NOPULL;
 8002b86:	2300      	movs	r3, #0
 8002b88:	61fb      	str	r3, [r7, #28]
    GPIO_InitStruct.Speed = GPIO_SPEED_FREQ_VERY_HIGH;
 8002b8a:	2303      	movs	r3, #3
 8002b8c:	623b      	str	r3, [r7, #32]
    GPIO_InitStruct.Alternate = GPIO_AF7_USART2;
 8002b8e:	2307      	movs	r3, #7
 8002b90:	627b      	str	r3, [r7, #36]	; 0x24
    HAL_GPIO_Init(GPIOD, &GPIO_InitStruct);
 8002b92:	f107 0314 	add.w	r3, r7, #20
 8002b96:	4619      	mov	r1, r3
 8002b98:	4809      	ldr	r0, [pc, #36]	; (8002bc0 <HAL_UART_MspInit+0x9c>)
 8002b9a:	f001 fd83 	bl	80046a4 <HAL_GPIO_Init>

    /* USART2 interrupt Init */
    HAL_NVIC_SetPriority(USART2_IRQn, 0, 0);
 8002b9e:	2200      	movs	r2, #0
 8002ba0:	2100      	movs	r1, #0
 8002ba2:	2026      	movs	r0, #38	; 0x26
 8002ba4:	f001 f945 	bl	8003e32 <HAL_NVIC_SetPriority>
    HAL_NVIC_EnableIRQ(USART2_IRQn);
 8002ba8:	2026      	movs	r0, #38	; 0x26
 8002baa:	f001 f95e 	bl	8003e6a <HAL_NVIC_EnableIRQ>
  /* USER CODE BEGIN USART2_MspInit 1 */

  /* USER CODE END USART2_MspInit 1 */
  }

}
 8002bae:	bf00      	nop
 8002bb0:	3728      	adds	r7, #40	; 0x28
 8002bb2:	46bd      	mov	sp, r7
 8002bb4:	bd80      	pop	{r7, pc}
 8002bb6:	bf00      	nop
 8002bb8:	40004400 	.word	0x40004400
 8002bbc:	40023800 	.word	0x40023800
 8002bc0:	40020c00 	.word	0x40020c00

08002bc4 <NMI_Handler>:
/******************************************************************************/
/**
  * @brief This function handles Non maskable interrupt.
  */
void NMI_Handler(void)
{
 8002bc4:	b480      	push	{r7}
 8002bc6:	af00      	add	r7, sp, #0
  /* USER CODE BEGIN NonMaskableInt_IRQn 0 */

  /* USER CODE END NonMaskableInt_IRQn 0 */
  /* USER CODE BEGIN NonMaskableInt_IRQn 1 */
  while (1)
 8002bc8:	e7fe      	b.n	8002bc8 <NMI_Handler+0x4>

08002bca <HardFault_Handler>:

/**
  * @brief This function handles Hard fault interrupt.
  */
void HardFault_Handler(void)
{
 8002bca:	b480      	push	{r7}
 8002bcc:	af00      	add	r7, sp, #0
  /* USER CODE BEGIN HardFault_IRQn 0 */

  /* USER CODE END HardFault_IRQn 0 */
  while (1)
 8002bce:	e7fe      	b.n	8002bce <HardFault_Handler+0x4>

08002bd0 <MemManage_Handler>:

/**
  * @brief This function handles Memory management fault.
  */
void MemManage_Handler(void)
{
 8002bd0:	b480      	push	{r7}
 8002bd2:	af00      	add	r7, sp, #0
  /* USER CODE BEGIN MemoryManagement_IRQn 0 */

  /* USER CODE END MemoryManagement_IRQn 0 */
  while (1)
 8002bd4:	e7fe      	b.n	8002bd4 <MemManage_Handler+0x4>

08002bd6 <BusFault_Handler>:

/**
  * @brief This function handles Pre-fetch fault, memory access fault.
  */
void BusFault_Handler(void)
{
 8002bd6:	b480      	push	{r7}
 8002bd8:	af00      	add	r7, sp, #0
  /* USER CODE BEGIN BusFault_IRQn 0 */

  /* USER CODE END BusFault_IRQn 0 */
  while (1)
 8002bda:	e7fe      	b.n	8002bda <BusFault_Handler+0x4>

08002bdc <UsageFault_Handler>:

/**
  * @brief This function handles Undefined instruction or illegal state.
  */
void UsageFault_Handler(void)
{
 8002bdc:	b480      	push	{r7}
 8002bde:	af00      	add	r7, sp, #0
  /* USER CODE BEGIN UsageFault_IRQn 0 */

  /* USER CODE END UsageFault_IRQn 0 */
  while (1)
 8002be0:	e7fe      	b.n	8002be0 <UsageFault_Handler+0x4>

08002be2 <SVC_Handler>:

/**
  * @brief This function handles System service call via SWI instruction.
  */
void SVC_Handler(void)
{
 8002be2:	b480      	push	{r7}
 8002be4:	af00      	add	r7, sp, #0

  /* USER CODE END SVCall_IRQn 0 */
  /* USER CODE BEGIN SVCall_IRQn 1 */

  /* USER CODE END SVCall_IRQn 1 */
}
 8002be6:	bf00      	nop
 8002be8:	46bd      	mov	sp, r7
 8002bea:	f85d 7b04 	ldr.w	r7, [sp], #4
 8002bee:	4770      	bx	lr

08002bf0 <DebugMon_Handler>:

/**
  * @brief This function handles Debug monitor.
  */
void DebugMon_Handler(void)
{
 8002bf0:	b480      	push	{r7}
 8002bf2:	af00      	add	r7, sp, #0

  /* USER CODE END DebugMonitor_IRQn 0 */
  /* USER CODE BEGIN DebugMonitor_IRQn 1 */

  /* USER CODE END DebugMonitor_IRQn 1 */
}
 8002bf4:	bf00      	nop
 8002bf6:	46bd      	mov	sp, r7
 8002bf8:	f85d 7b04 	ldr.w	r7, [sp], #4
 8002bfc:	4770      	bx	lr

08002bfe <PendSV_Handler>:

/**
  * @brief This function handles Pendable request for system service.
  */
void PendSV_Handler(void)
{
 8002bfe:	b480      	push	{r7}
 8002c00:	af00      	add	r7, sp, #0

  /* USER CODE END PendSV_IRQn 0 */
  /* USER CODE BEGIN PendSV_IRQn 1 */

  /* USER CODE END PendSV_IRQn 1 */
}
 8002c02:	bf00      	nop
 8002c04:	46bd      	mov	sp, r7
 8002c06:	f85d 7b04 	ldr.w	r7, [sp], #4
 8002c0a:	4770      	bx	lr

08002c0c <SysTick_Handler>:

/**
  * @brief This function handles System tick timer.
  */
void SysTick_Handler(void)
{
 8002c0c:	b580      	push	{r7, lr}
 8002c0e:	af00      	add	r7, sp, #0
  /* USER CODE BEGIN SysTick_IRQn 0 */

  /* USER CODE END SysTick_IRQn 0 */
  HAL_IncTick();
 8002c10:	f000 f988 	bl	8002f24 <HAL_IncTick>
  /* USER CODE BEGIN SysTick_IRQn 1 */

  /* USER CODE END SysTick_IRQn 1 */
}
 8002c14:	bf00      	nop
 8002c16:	bd80      	pop	{r7, pc}

08002c18 <DMA1_Stream4_IRQHandler>:

/**
  * @brief This function handles DMA1 stream4 global interrupt.
  */
void DMA1_Stream4_IRQHandler(void)
{
 8002c18:	b580      	push	{r7, lr}
 8002c1a:	af00      	add	r7, sp, #0
  /* USER CODE BEGIN DMA1_Stream4_IRQn 0 */

  /* USER CODE END DMA1_Stream4_IRQn 0 */
  HAL_DMA_IRQHandler(&hdma_spi2_tx);
 8002c1c:	4802      	ldr	r0, [pc, #8]	; (8002c28 <DMA1_Stream4_IRQHandler+0x10>)
 8002c1e:	f001 fad7 	bl	80041d0 <HAL_DMA_IRQHandler>
  /* USER CODE BEGIN DMA1_Stream4_IRQn 1 */

  /* USER CODE END DMA1_Stream4_IRQn 1 */
}
 8002c22:	bf00      	nop
 8002c24:	bd80      	pop	{r7, pc}
 8002c26:	bf00      	nop
 8002c28:	20000248 	.word	0x20000248

08002c2c <USART2_IRQHandler>:

/**
  * @brief This function handles USART2 global interrupt.
  */
void USART2_IRQHandler(void)
{
 8002c2c:	b580      	push	{r7, lr}
 8002c2e:	af00      	add	r7, sp, #0
  /* USER CODE BEGIN USART2_IRQn 0 */

  /* USER CODE END USART2_IRQn 0 */
  HAL_UART_IRQHandler(&huart2);
 8002c30:	4802      	ldr	r0, [pc, #8]	; (8002c3c <USART2_IRQHandler+0x10>)
 8002c32:	f005 fc05 	bl	8008440 <HAL_UART_IRQHandler>
  /* USER CODE BEGIN USART2_IRQn 1 */

  /* USER CODE END USART2_IRQn 1 */
}
 8002c36:	bf00      	nop
 8002c38:	bd80      	pop	{r7, pc}
 8002c3a:	bf00      	nop
 8002c3c:	20000338 	.word	0x20000338

08002c40 <TIM6_DAC_IRQHandler>:

/**
  * @brief This function handles TIM6 global interrupt, DAC1 and DAC2 underrun error interrupts.
  */
void TIM6_DAC_IRQHandler(void)
{
 8002c40:	b580      	push	{r7, lr}
 8002c42:	af00      	add	r7, sp, #0
  /* USER CODE BEGIN TIM6_DAC_IRQn 0 */

  /* USER CODE END TIM6_DAC_IRQn 0 */
  HAL_TIM_IRQHandler(&htim6);
 8002c44:	4803      	ldr	r0, [pc, #12]	; (8002c54 <TIM6_DAC_IRQHandler+0x14>)
 8002c46:	f005 f89d 	bl	8007d84 <HAL_TIM_IRQHandler>
  /* USER CODE BEGIN TIM6_DAC_IRQn 1 */
  tim6_overflow_flag = FLAG_SET;
 8002c4a:	4b03      	ldr	r3, [pc, #12]	; (8002c58 <TIM6_DAC_IRQHandler+0x18>)
 8002c4c:	2201      	movs	r2, #1
 8002c4e:	701a      	strb	r2, [r3, #0]
  /* USER CODE END TIM6_DAC_IRQn 1 */
}
 8002c50:	bf00      	nop
 8002c52:	bd80      	pop	{r7, pc}
 8002c54:	200002a8 	.word	0x200002a8
 8002c58:	200003b6 	.word	0x200003b6

08002c5c <TIM7_IRQHandler>:

/**
  * @brief This function handles TIM7 global interrupt.
  */
void TIM7_IRQHandler(void)
{
 8002c5c:	b580      	push	{r7, lr}
 8002c5e:	af00      	add	r7, sp, #0
  /* USER CODE BEGIN TIM7_IRQn 0 */

  /* USER CODE END TIM7_IRQn 0 */
  HAL_TIM_IRQHandler(&htim7);
 8002c60:	4803      	ldr	r0, [pc, #12]	; (8002c70 <TIM7_IRQHandler+0x14>)
 8002c62:	f005 f88f 	bl	8007d84 <HAL_TIM_IRQHandler>
  /* USER CODE BEGIN TIM7_IRQn 1 */
  tim7_overflow_flag = FLAG_SET;
 8002c66:	4b03      	ldr	r3, [pc, #12]	; (8002c74 <TIM7_IRQHandler+0x18>)
 8002c68:	2201      	movs	r2, #1
 8002c6a:	701a      	strb	r2, [r3, #0]
  /* USER CODE END TIM7_IRQn 1 */
}
 8002c6c:	bf00      	nop
 8002c6e:	bd80      	pop	{r7, pc}
 8002c70:	200002f0 	.word	0x200002f0
 8002c74:	200003b7 	.word	0x200003b7

08002c78 <DMA2_Stream3_IRQHandler>:

/**
  * @brief This function handles DMA2 stream3 global interrupt.
  */
void DMA2_Stream3_IRQHandler(void)
{
 8002c78:	b580      	push	{r7, lr}
 8002c7a:	af00      	add	r7, sp, #0
  /* USER CODE BEGIN DMA2_Stream3_IRQn 0 */

  /* USER CODE END DMA2_Stream3_IRQn 0 */
  HAL_DMA_IRQHandler(&hdma_spi1_tx);
 8002c7c:	4802      	ldr	r0, [pc, #8]	; (8002c88 <DMA2_Stream3_IRQHandler+0x10>)
 8002c7e:	f001 faa7 	bl	80041d0 <HAL_DMA_IRQHandler>
  /* USER CODE BEGIN DMA2_Stream3_IRQn 1 */

  /* USER CODE END DMA2_Stream3_IRQn 1 */
}
 8002c82:	bf00      	nop
 8002c84:	bd80      	pop	{r7, pc}
 8002c86:	bf00      	nop
 8002c88:	200001e8 	.word	0x200001e8

08002c8c <CAN2_RX0_IRQHandler>:

/**
  * @brief This function handles CAN2 RX0 interrupts.
  */
void CAN2_RX0_IRQHandler(void)
{
 8002c8c:	b580      	push	{r7, lr}
 8002c8e:	af00      	add	r7, sp, #0
  /* USER CODE BEGIN CAN2_RX0_IRQn 0 */

  /* USER CODE END CAN2_RX0_IRQn 0 */
  HAL_CAN_IRQHandler(&hcan2);
 8002c90:	4802      	ldr	r0, [pc, #8]	; (8002c9c <CAN2_RX0_IRQHandler+0x10>)
 8002c92:	f000 fdc3 	bl	800381c <HAL_CAN_IRQHandler>
  /* USER CODE BEGIN CAN2_RX0_IRQn 1 */

  /* USER CODE END CAN2_RX0_IRQn 1 */
}
 8002c96:	bf00      	nop
 8002c98:	bd80      	pop	{r7, pc}
 8002c9a:	bf00      	nop
 8002c9c:	20000048 	.word	0x20000048

08002ca0 <HAL_CAN_RxFifo0MsgPendingCallback>:

/* USER CODE BEGIN 1 */
void HAL_CAN_RxFifo0MsgPendingCallback(CAN_HandleTypeDef *hcan) {
 8002ca0:	b580      	push	{r7, lr}
 8002ca2:	b082      	sub	sp, #8
 8002ca4:	af00      	add	r7, sp, #0
 8002ca6:	6078      	str	r0, [r7, #4]
	HAL_CAN_GetRxMessage(hcan, CAN_RX_FIFO0, &CAN_RxHeader, CAN_RxData);
 8002ca8:	4b09      	ldr	r3, [pc, #36]	; (8002cd0 <HAL_CAN_RxFifo0MsgPendingCallback+0x30>)
 8002caa:	4a0a      	ldr	r2, [pc, #40]	; (8002cd4 <HAL_CAN_RxFifo0MsgPendingCallback+0x34>)
 8002cac:	2100      	movs	r1, #0
 8002cae:	6878      	ldr	r0, [r7, #4]
 8002cb0:	f000 fc6c 	bl	800358c <HAL_CAN_GetRxMessage>
	CAN_RX_Flag = FLAG_SET;
 8002cb4:	4b08      	ldr	r3, [pc, #32]	; (8002cd8 <HAL_CAN_RxFifo0MsgPendingCallback+0x38>)
 8002cb6:	2201      	movs	r2, #1
 8002cb8:	701a      	strb	r2, [r3, #0]

	if(CAN_First_Msg == FLAG_RESET) {
 8002cba:	4b08      	ldr	r3, [pc, #32]	; (8002cdc <HAL_CAN_RxFifo0MsgPendingCallback+0x3c>)
 8002cbc:	781b      	ldrb	r3, [r3, #0]
 8002cbe:	2b00      	cmp	r3, #0
 8002cc0:	d102      	bne.n	8002cc8 <HAL_CAN_RxFifo0MsgPendingCallback+0x28>
		CAN_First_Msg = FLAG_SET;
 8002cc2:	4b06      	ldr	r3, [pc, #24]	; (8002cdc <HAL_CAN_RxFifo0MsgPendingCallback+0x3c>)
 8002cc4:	2201      	movs	r2, #1
 8002cc6:	701a      	strb	r2, [r3, #0]
	}
}
 8002cc8:	bf00      	nop
 8002cca:	3708      	adds	r7, #8
 8002ccc:	46bd      	mov	sp, r7
 8002cce:	bd80      	pop	{r7, pc}
 8002cd0:	200003ac 	.word	0x200003ac
 8002cd4:	20000390 	.word	0x20000390
 8002cd8:	200003b4 	.word	0x200003b4
 8002cdc:	200003b5 	.word	0x200003b5

08002ce0 <HAL_SPI_TxCpltCallback>:
		rtc_reset = FLAG_SET;
	}
}


void HAL_SPI_TxCpltCallback(SPI_HandleTypeDef *hspi) {
 8002ce0:	b580      	push	{r7, lr}
 8002ce2:	b082      	sub	sp, #8
 8002ce4:	af00      	add	r7, sp, #0
 8002ce6:	6078      	str	r0, [r7, #4]
	// Pull CS pin high to deselect the device
    if (hspi->Instance == SPI1) {
 8002ce8:	687b      	ldr	r3, [r7, #4]
 8002cea:	681b      	ldr	r3, [r3, #0]
 8002cec:	4a18      	ldr	r2, [pc, #96]	; (8002d50 <HAL_SPI_TxCpltCallback+0x70>)
 8002cee:	4293      	cmp	r3, r2
 8002cf0:	d108      	bne.n	8002d04 <HAL_SPI_TxCpltCallback+0x24>
        // Pull CS pin high for SPI1 to deselect the device
    	HAL_GPIO_WritePin(cs_spi1.GPIOx, cs_spi1.GPIO_Pin, GPIO_PIN_SET);
 8002cf2:	4b18      	ldr	r3, [pc, #96]	; (8002d54 <HAL_SPI_TxCpltCallback+0x74>)
 8002cf4:	681b      	ldr	r3, [r3, #0]
 8002cf6:	4a17      	ldr	r2, [pc, #92]	; (8002d54 <HAL_SPI_TxCpltCallback+0x74>)
 8002cf8:	8891      	ldrh	r1, [r2, #4]
 8002cfa:	2201      	movs	r2, #1
 8002cfc:	4618      	mov	r0, r3
 8002cfe:	f001 fe95 	bl	8004a2c <HAL_GPIO_WritePin>
 8002d02:	e00c      	b.n	8002d1e <HAL_SPI_TxCpltCallback+0x3e>
    } else if (hspi->Instance == SPI2) {
 8002d04:	687b      	ldr	r3, [r7, #4]
 8002d06:	681b      	ldr	r3, [r3, #0]
 8002d08:	4a13      	ldr	r2, [pc, #76]	; (8002d58 <HAL_SPI_TxCpltCallback+0x78>)
 8002d0a:	4293      	cmp	r3, r2
 8002d0c:	d107      	bne.n	8002d1e <HAL_SPI_TxCpltCallback+0x3e>
        // Pull CS pin high for SPI2 to deselect the device
    	HAL_GPIO_WritePin(cs_spi2.GPIOx, cs_spi2.GPIO_Pin, GPIO_PIN_SET);
 8002d0e:	4b13      	ldr	r3, [pc, #76]	; (8002d5c <HAL_SPI_TxCpltCallback+0x7c>)
 8002d10:	681b      	ldr	r3, [r3, #0]
 8002d12:	4a12      	ldr	r2, [pc, #72]	; (8002d5c <HAL_SPI_TxCpltCallback+0x7c>)
 8002d14:	8891      	ldrh	r1, [r2, #4]
 8002d16:	2201      	movs	r2, #1
 8002d18:	4618      	mov	r0, r3
 8002d1a:	f001 fe87 	bl	8004a2c <HAL_GPIO_WritePin>
    }

    CLEAR_BIT(hspi->Instance->CR2, SPI_CR2_TXDMAEN);
 8002d1e:	687b      	ldr	r3, [r7, #4]
 8002d20:	681b      	ldr	r3, [r3, #0]
 8002d22:	685a      	ldr	r2, [r3, #4]
 8002d24:	687b      	ldr	r3, [r7, #4]
 8002d26:	681b      	ldr	r3, [r3, #0]
 8002d28:	f022 0202 	bic.w	r2, r2, #2
 8002d2c:	605a      	str	r2, [r3, #4]
    clean_data_buffer(PAGE_SIZE, data_buffer_tx[buffer_tracker ^ 0x01]);
 8002d2e:	4b0c      	ldr	r3, [pc, #48]	; (8002d60 <HAL_SPI_TxCpltCallback+0x80>)
 8002d30:	781b      	ldrb	r3, [r3, #0]
 8002d32:	f083 0301 	eor.w	r3, r3, #1
 8002d36:	b2db      	uxtb	r3, r3
 8002d38:	021b      	lsls	r3, r3, #8
 8002d3a:	4a0a      	ldr	r2, [pc, #40]	; (8002d64 <HAL_SPI_TxCpltCallback+0x84>)
 8002d3c:	4413      	add	r3, r2
 8002d3e:	4619      	mov	r1, r3
 8002d40:	f44f 7080 	mov.w	r0, #256	; 0x100
 8002d44:	f7fe fc42 	bl	80015cc <clean_data_buffer>
}
 8002d48:	bf00      	nop
 8002d4a:	3708      	adds	r7, #8
 8002d4c:	46bd      	mov	sp, r7
 8002d4e:	bd80      	pop	{r7, pc}
 8002d50:	40013000 	.word	0x40013000
 8002d54:	200005f4 	.word	0x200005f4
 8002d58:	40003800 	.word	0x40003800
 8002d5c:	20000604 	.word	0x20000604
 8002d60:	200005b8 	.word	0x200005b8
 8002d64:	200003b8 	.word	0x200003b8

08002d68 <HAL_UART_RxCpltCallback>:

void HAL_UART_RxCpltCallback(UART_HandleTypeDef *huart) {
 8002d68:	b580      	push	{r7, lr}
 8002d6a:	b082      	sub	sp, #8
 8002d6c:	af00      	add	r7, sp, #0
 8002d6e:	6078      	str	r0, [r7, #4]
	uart2_rec_flag = FLAG_SET;
 8002d70:	4b05      	ldr	r3, [pc, #20]	; (8002d88 <HAL_UART_RxCpltCallback+0x20>)
 8002d72:	2201      	movs	r2, #1
 8002d74:	701a      	strb	r2, [r3, #0]
	HAL_UART_Receive_IT(&huart2, UARTRxData, 2);
 8002d76:	2202      	movs	r2, #2
 8002d78:	4904      	ldr	r1, [pc, #16]	; (8002d8c <HAL_UART_RxCpltCallback+0x24>)
 8002d7a:	4805      	ldr	r0, [pc, #20]	; (8002d90 <HAL_UART_RxCpltCallback+0x28>)
 8002d7c:	f005 fb3b 	bl	80083f6 <HAL_UART_Receive_IT>
}
 8002d80:	bf00      	nop
 8002d82:	3708      	adds	r7, #8
 8002d84:	46bd      	mov	sp, r7
 8002d86:	bd80      	pop	{r7, pc}
 8002d88:	2000038a 	.word	0x2000038a
 8002d8c:	20000388 	.word	0x20000388
 8002d90:	20000338 	.word	0x20000338

08002d94 <SystemInit>:
  *         configuration.
  * @param  None
  * @retval None
  */
void SystemInit(void)
{
 8002d94:	b480      	push	{r7}
 8002d96:	af00      	add	r7, sp, #0
  /* FPU settings ------------------------------------------------------------*/
  #if (__FPU_PRESENT == 1) && (__FPU_USED == 1)
    SCB->CPACR |= ((3UL << 10*2)|(3UL << 11*2));  /* set CP10 and CP11 Full Access */
 8002d98:	4b06      	ldr	r3, [pc, #24]	; (8002db4 <SystemInit+0x20>)
 8002d9a:	f8d3 3088 	ldr.w	r3, [r3, #136]	; 0x88
 8002d9e:	4a05      	ldr	r2, [pc, #20]	; (8002db4 <SystemInit+0x20>)
 8002da0:	f443 0370 	orr.w	r3, r3, #15728640	; 0xf00000
 8002da4:	f8c2 3088 	str.w	r3, [r2, #136]	; 0x88

  /* Configure the Vector Table location -------------------------------------*/
#if defined(USER_VECT_TAB_ADDRESS)
  SCB->VTOR = VECT_TAB_BASE_ADDRESS | VECT_TAB_OFFSET; /* Vector Table Relocation in Internal SRAM */
#endif /* USER_VECT_TAB_ADDRESS */
}
 8002da8:	bf00      	nop
 8002daa:	46bd      	mov	sp, r7
 8002dac:	f85d 7b04 	ldr.w	r7, [sp], #4
 8002db0:	4770      	bx	lr
 8002db2:	bf00      	nop
 8002db4:	e000ed00 	.word	0xe000ed00

08002db8 <uart_transmit_page>:

#include "uart_transmit.h"
/**
 * Transmit one single page over the UART interface
 */
void uart_transmit_page(UART_HandleTypeDef *huart, uint8_t page[PAGE_SIZE]) {
 8002db8:	b580      	push	{r7, lr}
 8002dba:	b082      	sub	sp, #8
 8002dbc:	af00      	add	r7, sp, #0
 8002dbe:	6078      	str	r0, [r7, #4]
 8002dc0:	6039      	str	r1, [r7, #0]
	HAL_UART_Transmit(huart, page, PAGE_SIZE, HAL_MAX_DELAY);
 8002dc2:	f04f 33ff 	mov.w	r3, #4294967295	; 0xffffffff
 8002dc6:	f44f 7280 	mov.w	r2, #256	; 0x100
 8002dca:	6839      	ldr	r1, [r7, #0]
 8002dcc:	6878      	ldr	r0, [r7, #4]
 8002dce:	f005 fa87 	bl	80082e0 <HAL_UART_Transmit>
}
 8002dd2:	bf00      	nop
 8002dd4:	3708      	adds	r7, #8
 8002dd6:	46bd      	mov	sp, r7
 8002dd8:	bd80      	pop	{r7, pc}

08002dda <send_uart_string>:

void send_uart_string(UART_HandleTypeDef *huart, const char *str) {
 8002dda:	b580      	push	{r7, lr}
 8002ddc:	b082      	sub	sp, #8
 8002dde:	af00      	add	r7, sp, #0
 8002de0:	6078      	str	r0, [r7, #4]
 8002de2:	6039      	str	r1, [r7, #0]
    HAL_UART_Transmit(huart, (uint8_t *)str, strlen(str), HAL_MAX_DELAY);
 8002de4:	6838      	ldr	r0, [r7, #0]
 8002de6:	f7fd fa01 	bl	80001ec <strlen>
 8002dea:	4603      	mov	r3, r0
 8002dec:	b29a      	uxth	r2, r3
 8002dee:	f04f 33ff 	mov.w	r3, #4294967295	; 0xffffffff
 8002df2:	6839      	ldr	r1, [r7, #0]
 8002df4:	6878      	ldr	r0, [r7, #4]
 8002df6:	f005 fa73 	bl	80082e0 <HAL_UART_Transmit>
}
 8002dfa:	bf00      	nop
 8002dfc:	3708      	adds	r7, #8
 8002dfe:	46bd      	mov	sp, r7
 8002e00:	bd80      	pop	{r7, pc}

08002e02 <send_uart_hex>:
	// Call the send_uart_string function to send the value to UART
	send_uart_string(huart, value_str);
	send_uart_string(huart, "\r\n");
}

void send_uart_hex(UART_HandleTypeDef *huart, uint8_t value) {
 8002e02:	b580      	push	{r7, lr}
 8002e04:	b084      	sub	sp, #16
 8002e06:	af00      	add	r7, sp, #0
 8002e08:	6078      	str	r0, [r7, #4]
 8002e0a:	460b      	mov	r3, r1
 8002e0c:	70fb      	strb	r3, [r7, #3]
	uint8_t buffer[1];
	buffer[0] = value;
 8002e0e:	78fb      	ldrb	r3, [r7, #3]
 8002e10:	733b      	strb	r3, [r7, #12]
	HAL_UART_Transmit(huart, buffer, 1, HAL_MAX_DELAY);
 8002e12:	f107 010c 	add.w	r1, r7, #12
 8002e16:	f04f 33ff 	mov.w	r3, #4294967295	; 0xffffffff
 8002e1a:	2201      	movs	r2, #1
 8002e1c:	6878      	ldr	r0, [r7, #4]
 8002e1e:	f005 fa5f 	bl	80082e0 <HAL_UART_Transmit>
}
 8002e22:	bf00      	nop
 8002e24:	3710      	adds	r7, #16
 8002e26:	46bd      	mov	sp, r7
 8002e28:	bd80      	pop	{r7, pc}
	...

08002e2c <Reset_Handler>:

    .section  .text.Reset_Handler
  .weak  Reset_Handler
  .type  Reset_Handler, %function
Reset_Handler:  
  ldr   sp, =_estack     /* set stack pointer */
 8002e2c:	f8df d034 	ldr.w	sp, [pc, #52]	; 8002e64 <LoopFillZerobss+0xe>
  
/* Call the clock system initialization function.*/
  bl  SystemInit  
 8002e30:	f7ff ffb0 	bl	8002d94 <SystemInit>

/* Copy the data segment initializers from flash to SRAM */  
  ldr r0, =_sdata
 8002e34:	480c      	ldr	r0, [pc, #48]	; (8002e68 <LoopFillZerobss+0x12>)
  ldr r1, =_edata
 8002e36:	490d      	ldr	r1, [pc, #52]	; (8002e6c <LoopFillZerobss+0x16>)
  ldr r2, =_sidata
 8002e38:	4a0d      	ldr	r2, [pc, #52]	; (8002e70 <LoopFillZerobss+0x1a>)
  movs r3, #0
 8002e3a:	2300      	movs	r3, #0
  b LoopCopyDataInit
 8002e3c:	e002      	b.n	8002e44 <LoopCopyDataInit>

08002e3e <CopyDataInit>:

CopyDataInit:
  ldr r4, [r2, r3]
 8002e3e:	58d4      	ldr	r4, [r2, r3]
  str r4, [r0, r3]
 8002e40:	50c4      	str	r4, [r0, r3]
  adds r3, r3, #4
 8002e42:	3304      	adds	r3, #4

08002e44 <LoopCopyDataInit>:

LoopCopyDataInit:
  adds r4, r0, r3
 8002e44:	18c4      	adds	r4, r0, r3
  cmp r4, r1
 8002e46:	428c      	cmp	r4, r1
  bcc CopyDataInit
 8002e48:	d3f9      	bcc.n	8002e3e <CopyDataInit>
  
/* Zero fill the bss segment. */
  ldr r2, =_sbss
 8002e4a:	4a0a      	ldr	r2, [pc, #40]	; (8002e74 <LoopFillZerobss+0x1e>)
  ldr r4, =_ebss
 8002e4c:	4c0a      	ldr	r4, [pc, #40]	; (8002e78 <LoopFillZerobss+0x22>)
  movs r3, #0
 8002e4e:	2300      	movs	r3, #0
  b LoopFillZerobss
 8002e50:	e001      	b.n	8002e56 <LoopFillZerobss>

08002e52 <FillZerobss>:

FillZerobss:
  str  r3, [r2]
 8002e52:	6013      	str	r3, [r2, #0]
  adds r2, r2, #4
 8002e54:	3204      	adds	r2, #4

08002e56 <LoopFillZerobss>:

LoopFillZerobss:
  cmp r2, r4
 8002e56:	42a2      	cmp	r2, r4
  bcc FillZerobss
 8002e58:	d3fb      	bcc.n	8002e52 <FillZerobss>

/* Call static constructors */
    bl __libc_init_array
 8002e5a:	f006 fa4f 	bl	80092fc <__libc_init_array>
/* Call the application's entry point.*/
  bl  main
 8002e5e:	f7fd ff61 	bl	8000d24 <main>
  bx  lr    
 8002e62:	4770      	bx	lr
  ldr   sp, =_estack     /* set stack pointer */
 8002e64:	20030000 	.word	0x20030000
  ldr r0, =_sdata
 8002e68:	20000000 	.word	0x20000000
  ldr r1, =_edata
 8002e6c:	20000028 	.word	0x20000028
  ldr r2, =_sidata
 8002e70:	08009424 	.word	0x08009424
  ldr r2, =_sbss
 8002e74:	20000028 	.word	0x20000028
  ldr r4, =_ebss
 8002e78:	20000638 	.word	0x20000638

08002e7c <ADC_IRQHandler>:
 * @retval None       
*/
    .section  .text.Default_Handler,"ax",%progbits
Default_Handler:
Infinite_Loop:
  b  Infinite_Loop
 8002e7c:	e7fe      	b.n	8002e7c <ADC_IRQHandler>
	...

08002e80 <HAL_Init>:
  *         need to ensure that the SysTick time base is always set to 1 millisecond
  *         to have correct HAL operation.
  * @retval HAL status
  */
HAL_StatusTypeDef HAL_Init(void)
{
 8002e80:	b580      	push	{r7, lr}
 8002e82:	af00      	add	r7, sp, #0
  /* Configure Flash prefetch, Instruction cache, Data cache */ 
#if (INSTRUCTION_CACHE_ENABLE != 0U)
  __HAL_FLASH_INSTRUCTION_CACHE_ENABLE();
 8002e84:	4b0e      	ldr	r3, [pc, #56]	; (8002ec0 <HAL_Init+0x40>)
 8002e86:	681b      	ldr	r3, [r3, #0]
 8002e88:	4a0d      	ldr	r2, [pc, #52]	; (8002ec0 <HAL_Init+0x40>)
 8002e8a:	f443 7300 	orr.w	r3, r3, #512	; 0x200
 8002e8e:	6013      	str	r3, [r2, #0]
#endif /* INSTRUCTION_CACHE_ENABLE */

#if (DATA_CACHE_ENABLE != 0U)
  __HAL_FLASH_DATA_CACHE_ENABLE();
 8002e90:	4b0b      	ldr	r3, [pc, #44]	; (8002ec0 <HAL_Init+0x40>)
 8002e92:	681b      	ldr	r3, [r3, #0]
 8002e94:	4a0a      	ldr	r2, [pc, #40]	; (8002ec0 <HAL_Init+0x40>)
 8002e96:	f443 6380 	orr.w	r3, r3, #1024	; 0x400
 8002e9a:	6013      	str	r3, [r2, #0]
#endif /* DATA_CACHE_ENABLE */

#if (PREFETCH_ENABLE != 0U)
  __HAL_FLASH_PREFETCH_BUFFER_ENABLE();
 8002e9c:	4b08      	ldr	r3, [pc, #32]	; (8002ec0 <HAL_Init+0x40>)
 8002e9e:	681b      	ldr	r3, [r3, #0]
 8002ea0:	4a07      	ldr	r2, [pc, #28]	; (8002ec0 <HAL_Init+0x40>)
 8002ea2:	f443 7380 	orr.w	r3, r3, #256	; 0x100
 8002ea6:	6013      	str	r3, [r2, #0]
#endif /* PREFETCH_ENABLE */

  /* Set Interrupt Group Priority */
  HAL_NVIC_SetPriorityGrouping(NVIC_PRIORITYGROUP_4);
 8002ea8:	2003      	movs	r0, #3
 8002eaa:	f000 ffb7 	bl	8003e1c <HAL_NVIC_SetPriorityGrouping>

  /* Use systick as time base source and configure 1ms tick (default clock after Reset is HSI) */
  HAL_InitTick(TICK_INT_PRIORITY);
 8002eae:	200f      	movs	r0, #15
 8002eb0:	f000 f808 	bl	8002ec4 <HAL_InitTick>

  /* Init the low level hardware */
  HAL_MspInit();
 8002eb4:	f7ff fbc0 	bl	8002638 <HAL_MspInit>

  /* Return function status */
  return HAL_OK;
 8002eb8:	2300      	movs	r3, #0
}
 8002eba:	4618      	mov	r0, r3
 8002ebc:	bd80      	pop	{r7, pc}
 8002ebe:	bf00      	nop
 8002ec0:	40023c00 	.word	0x40023c00

08002ec4 <HAL_InitTick>:
  *       implementation  in user file.
  * @param TickPriority Tick interrupt priority.
  * @retval HAL status
  */
__weak HAL_StatusTypeDef HAL_InitTick(uint32_t TickPriority)
{
 8002ec4:	b580      	push	{r7, lr}
 8002ec6:	b082      	sub	sp, #8
 8002ec8:	af00      	add	r7, sp, #0
 8002eca:	6078      	str	r0, [r7, #4]
  /* Configure the SysTick to have interrupt in 1ms time basis*/
  if (HAL_SYSTICK_Config(SystemCoreClock / (1000U / uwTickFreq)) > 0U)
 8002ecc:	4b12      	ldr	r3, [pc, #72]	; (8002f18 <HAL_InitTick+0x54>)
 8002ece:	681a      	ldr	r2, [r3, #0]
 8002ed0:	4b12      	ldr	r3, [pc, #72]	; (8002f1c <HAL_InitTick+0x58>)
 8002ed2:	781b      	ldrb	r3, [r3, #0]
 8002ed4:	4619      	mov	r1, r3
 8002ed6:	f44f 737a 	mov.w	r3, #1000	; 0x3e8
 8002eda:	fbb3 f3f1 	udiv	r3, r3, r1
 8002ede:	fbb2 f3f3 	udiv	r3, r2, r3
 8002ee2:	4618      	mov	r0, r3
 8002ee4:	f000 ffcf 	bl	8003e86 <HAL_SYSTICK_Config>
 8002ee8:	4603      	mov	r3, r0
 8002eea:	2b00      	cmp	r3, #0
 8002eec:	d001      	beq.n	8002ef2 <HAL_InitTick+0x2e>
  {
    return HAL_ERROR;
 8002eee:	2301      	movs	r3, #1
 8002ef0:	e00e      	b.n	8002f10 <HAL_InitTick+0x4c>
  }

  /* Configure the SysTick IRQ priority */
  if (TickPriority < (1UL << __NVIC_PRIO_BITS))
 8002ef2:	687b      	ldr	r3, [r7, #4]
 8002ef4:	2b0f      	cmp	r3, #15
 8002ef6:	d80a      	bhi.n	8002f0e <HAL_InitTick+0x4a>
  {
    HAL_NVIC_SetPriority(SysTick_IRQn, TickPriority, 0U);
 8002ef8:	2200      	movs	r2, #0
 8002efa:	6879      	ldr	r1, [r7, #4]
 8002efc:	f04f 30ff 	mov.w	r0, #4294967295	; 0xffffffff
 8002f00:	f000 ff97 	bl	8003e32 <HAL_NVIC_SetPriority>
    uwTickPrio = TickPriority;
 8002f04:	4a06      	ldr	r2, [pc, #24]	; (8002f20 <HAL_InitTick+0x5c>)
 8002f06:	687b      	ldr	r3, [r7, #4]
 8002f08:	6013      	str	r3, [r2, #0]
  {
    return HAL_ERROR;
  }

  /* Return function status */
  return HAL_OK;
 8002f0a:	2300      	movs	r3, #0
 8002f0c:	e000      	b.n	8002f10 <HAL_InitTick+0x4c>
    return HAL_ERROR;
 8002f0e:	2301      	movs	r3, #1
}
 8002f10:	4618      	mov	r0, r3
 8002f12:	3708      	adds	r7, #8
 8002f14:	46bd      	mov	sp, r7
 8002f16:	bd80      	pop	{r7, pc}
 8002f18:	2000001c 	.word	0x2000001c
 8002f1c:	20000024 	.word	0x20000024
 8002f20:	20000020 	.word	0x20000020

08002f24 <HAL_IncTick>:
 * @note This function is declared as __weak to be overwritten in case of other 
  *      implementations in user file.
  * @retval None
  */
__weak void HAL_IncTick(void)
{
 8002f24:	b480      	push	{r7}
 8002f26:	af00      	add	r7, sp, #0
  uwTick += uwTickFreq;
 8002f28:	4b06      	ldr	r3, [pc, #24]	; (8002f44 <HAL_IncTick+0x20>)
 8002f2a:	781b      	ldrb	r3, [r3, #0]
 8002f2c:	461a      	mov	r2, r3
 8002f2e:	4b06      	ldr	r3, [pc, #24]	; (8002f48 <HAL_IncTick+0x24>)
 8002f30:	681b      	ldr	r3, [r3, #0]
 8002f32:	4413      	add	r3, r2
 8002f34:	4a04      	ldr	r2, [pc, #16]	; (8002f48 <HAL_IncTick+0x24>)
 8002f36:	6013      	str	r3, [r2, #0]
}
 8002f38:	bf00      	nop
 8002f3a:	46bd      	mov	sp, r7
 8002f3c:	f85d 7b04 	ldr.w	r7, [sp], #4
 8002f40:	4770      	bx	lr
 8002f42:	bf00      	nop
 8002f44:	20000024 	.word	0x20000024
 8002f48:	20000634 	.word	0x20000634

08002f4c <HAL_GetTick>:
  * @note This function is declared as __weak to be overwritten in case of other 
  *       implementations in user file.
  * @retval tick value
  */
__weak uint32_t HAL_GetTick(void)
{
 8002f4c:	b480      	push	{r7}
 8002f4e:	af00      	add	r7, sp, #0
  return uwTick;
 8002f50:	4b03      	ldr	r3, [pc, #12]	; (8002f60 <HAL_GetTick+0x14>)
 8002f52:	681b      	ldr	r3, [r3, #0]
}
 8002f54:	4618      	mov	r0, r3
 8002f56:	46bd      	mov	sp, r7
 8002f58:	f85d 7b04 	ldr.w	r7, [sp], #4
 8002f5c:	4770      	bx	lr
 8002f5e:	bf00      	nop
 8002f60:	20000634 	.word	0x20000634

08002f64 <HAL_Delay>:
  *       implementations in user file.
  * @param Delay specifies the delay time length, in milliseconds.
  * @retval None
  */
__weak void HAL_Delay(uint32_t Delay)
{
 8002f64:	b580      	push	{r7, lr}
 8002f66:	b084      	sub	sp, #16
 8002f68:	af00      	add	r7, sp, #0
 8002f6a:	6078      	str	r0, [r7, #4]
  uint32_t tickstart = HAL_GetTick();
 8002f6c:	f7ff ffee 	bl	8002f4c <HAL_GetTick>
 8002f70:	60b8      	str	r0, [r7, #8]
  uint32_t wait = Delay;
 8002f72:	687b      	ldr	r3, [r7, #4]
 8002f74:	60fb      	str	r3, [r7, #12]

  /* Add a freq to guarantee minimum wait */
  if (wait < HAL_MAX_DELAY)
 8002f76:	68fb      	ldr	r3, [r7, #12]
 8002f78:	f1b3 3fff 	cmp.w	r3, #4294967295	; 0xffffffff
 8002f7c:	d005      	beq.n	8002f8a <HAL_Delay+0x26>
  {
    wait += (uint32_t)(uwTickFreq);
 8002f7e:	4b0a      	ldr	r3, [pc, #40]	; (8002fa8 <HAL_Delay+0x44>)
 8002f80:	781b      	ldrb	r3, [r3, #0]
 8002f82:	461a      	mov	r2, r3
 8002f84:	68fb      	ldr	r3, [r7, #12]
 8002f86:	4413      	add	r3, r2
 8002f88:	60fb      	str	r3, [r7, #12]
  }

  while((HAL_GetTick() - tickstart) < wait)
 8002f8a:	bf00      	nop
 8002f8c:	f7ff ffde 	bl	8002f4c <HAL_GetTick>
 8002f90:	4602      	mov	r2, r0
 8002f92:	68bb      	ldr	r3, [r7, #8]
 8002f94:	1ad3      	subs	r3, r2, r3
 8002f96:	68fa      	ldr	r2, [r7, #12]
 8002f98:	429a      	cmp	r2, r3
 8002f9a:	d8f7      	bhi.n	8002f8c <HAL_Delay+0x28>
  {
  }
}
 8002f9c:	bf00      	nop
 8002f9e:	bf00      	nop
 8002fa0:	3710      	adds	r7, #16
 8002fa2:	46bd      	mov	sp, r7
 8002fa4:	bd80      	pop	{r7, pc}
 8002fa6:	bf00      	nop
 8002fa8:	20000024 	.word	0x20000024

08002fac <HAL_CAN_Init>:
  * @param  hcan pointer to a CAN_HandleTypeDef structure that contains
  *         the configuration information for the specified CAN.
  * @retval HAL status
  */
HAL_StatusTypeDef HAL_CAN_Init(CAN_HandleTypeDef *hcan)
{
 8002fac:	b580      	push	{r7, lr}
 8002fae:	b084      	sub	sp, #16
 8002fb0:	af00      	add	r7, sp, #0
 8002fb2:	6078      	str	r0, [r7, #4]
  uint32_t tickstart;

  /* Check CAN handle */
  if (hcan == NULL)
 8002fb4:	687b      	ldr	r3, [r7, #4]
 8002fb6:	2b00      	cmp	r3, #0
 8002fb8:	d101      	bne.n	8002fbe <HAL_CAN_Init+0x12>
  {
    return HAL_ERROR;
 8002fba:	2301      	movs	r3, #1
 8002fbc:	e0ed      	b.n	800319a <HAL_CAN_Init+0x1ee>
    /* Init the low level hardware: CLOCK, NVIC */
    hcan->MspInitCallback(hcan);
  }

#else
  if (hcan->State == HAL_CAN_STATE_RESET)
 8002fbe:	687b      	ldr	r3, [r7, #4]
 8002fc0:	f893 3020 	ldrb.w	r3, [r3, #32]
 8002fc4:	b2db      	uxtb	r3, r3
 8002fc6:	2b00      	cmp	r3, #0
 8002fc8:	d102      	bne.n	8002fd0 <HAL_CAN_Init+0x24>
  {
    /* Init the low level hardware: CLOCK, NVIC */
    HAL_CAN_MspInit(hcan);
 8002fca:	6878      	ldr	r0, [r7, #4]
 8002fcc:	f7ff fb5c 	bl	8002688 <HAL_CAN_MspInit>
  }
#endif /* USE_HAL_CAN_REGISTER_CALLBACKS */

  /* Request initialisation */
  SET_BIT(hcan->Instance->MCR, CAN_MCR_INRQ);
 8002fd0:	687b      	ldr	r3, [r7, #4]
 8002fd2:	681b      	ldr	r3, [r3, #0]
 8002fd4:	681a      	ldr	r2, [r3, #0]
 8002fd6:	687b      	ldr	r3, [r7, #4]
 8002fd8:	681b      	ldr	r3, [r3, #0]
 8002fda:	f042 0201 	orr.w	r2, r2, #1
 8002fde:	601a      	str	r2, [r3, #0]

  /* Get tick */
  tickstart = HAL_GetTick();
 8002fe0:	f7ff ffb4 	bl	8002f4c <HAL_GetTick>
 8002fe4:	60f8      	str	r0, [r7, #12]

  /* Wait initialisation acknowledge */
  while ((hcan->Instance->MSR & CAN_MSR_INAK) == 0U)
 8002fe6:	e012      	b.n	800300e <HAL_CAN_Init+0x62>
  {
    if ((HAL_GetTick() - tickstart) > CAN_TIMEOUT_VALUE)
 8002fe8:	f7ff ffb0 	bl	8002f4c <HAL_GetTick>
 8002fec:	4602      	mov	r2, r0
 8002fee:	68fb      	ldr	r3, [r7, #12]
 8002ff0:	1ad3      	subs	r3, r2, r3
 8002ff2:	2b0a      	cmp	r3, #10
 8002ff4:	d90b      	bls.n	800300e <HAL_CAN_Init+0x62>
    {
      /* Update error code */
      hcan->ErrorCode |= HAL_CAN_ERROR_TIMEOUT;
 8002ff6:	687b      	ldr	r3, [r7, #4]
 8002ff8:	6a5b      	ldr	r3, [r3, #36]	; 0x24
 8002ffa:	f443 3200 	orr.w	r2, r3, #131072	; 0x20000
 8002ffe:	687b      	ldr	r3, [r7, #4]
 8003000:	625a      	str	r2, [r3, #36]	; 0x24

      /* Change CAN state */
      hcan->State = HAL_CAN_STATE_ERROR;
 8003002:	687b      	ldr	r3, [r7, #4]
 8003004:	2205      	movs	r2, #5
 8003006:	f883 2020 	strb.w	r2, [r3, #32]

      return HAL_ERROR;
 800300a:	2301      	movs	r3, #1
 800300c:	e0c5      	b.n	800319a <HAL_CAN_Init+0x1ee>
  while ((hcan->Instance->MSR & CAN_MSR_INAK) == 0U)
 800300e:	687b      	ldr	r3, [r7, #4]
 8003010:	681b      	ldr	r3, [r3, #0]
 8003012:	685b      	ldr	r3, [r3, #4]
 8003014:	f003 0301 	and.w	r3, r3, #1
 8003018:	2b00      	cmp	r3, #0
 800301a:	d0e5      	beq.n	8002fe8 <HAL_CAN_Init+0x3c>
    }
  }

  /* Exit from sleep mode */
  CLEAR_BIT(hcan->Instance->MCR, CAN_MCR_SLEEP);
 800301c:	687b      	ldr	r3, [r7, #4]
 800301e:	681b      	ldr	r3, [r3, #0]
 8003020:	681a      	ldr	r2, [r3, #0]
 8003022:	687b      	ldr	r3, [r7, #4]
 8003024:	681b      	ldr	r3, [r3, #0]
 8003026:	f022 0202 	bic.w	r2, r2, #2
 800302a:	601a      	str	r2, [r3, #0]

  /* Get tick */
  tickstart = HAL_GetTick();
 800302c:	f7ff ff8e 	bl	8002f4c <HAL_GetTick>
 8003030:	60f8      	str	r0, [r7, #12]

  /* Check Sleep mode leave acknowledge */
  while ((hcan->Instance->MSR & CAN_MSR_SLAK) != 0U)
 8003032:	e012      	b.n	800305a <HAL_CAN_Init+0xae>
  {
    if ((HAL_GetTick() - tickstart) > CAN_TIMEOUT_VALUE)
 8003034:	f7ff ff8a 	bl	8002f4c <HAL_GetTick>
 8003038:	4602      	mov	r2, r0
 800303a:	68fb      	ldr	r3, [r7, #12]
 800303c:	1ad3      	subs	r3, r2, r3
 800303e:	2b0a      	cmp	r3, #10
 8003040:	d90b      	bls.n	800305a <HAL_CAN_Init+0xae>
    {
      /* Update error code */
      hcan->ErrorCode |= HAL_CAN_ERROR_TIMEOUT;
 8003042:	687b      	ldr	r3, [r7, #4]
 8003044:	6a5b      	ldr	r3, [r3, #36]	; 0x24
 8003046:	f443 3200 	orr.w	r2, r3, #131072	; 0x20000
 800304a:	687b      	ldr	r3, [r7, #4]
 800304c:	625a      	str	r2, [r3, #36]	; 0x24

      /* Change CAN state */
      hcan->State = HAL_CAN_STATE_ERROR;
 800304e:	687b      	ldr	r3, [r7, #4]
 8003050:	2205      	movs	r2, #5
 8003052:	f883 2020 	strb.w	r2, [r3, #32]

      return HAL_ERROR;
 8003056:	2301      	movs	r3, #1
 8003058:	e09f      	b.n	800319a <HAL_CAN_Init+0x1ee>
  while ((hcan->Instance->MSR & CAN_MSR_SLAK) != 0U)
 800305a:	687b      	ldr	r3, [r7, #4]
 800305c:	681b      	ldr	r3, [r3, #0]
 800305e:	685b      	ldr	r3, [r3, #4]
 8003060:	f003 0302 	and.w	r3, r3, #2
 8003064:	2b00      	cmp	r3, #0
 8003066:	d1e5      	bne.n	8003034 <HAL_CAN_Init+0x88>
    }
  }

  /* Set the time triggered communication mode */
  if (hcan->Init.TimeTriggeredMode == ENABLE)
 8003068:	687b      	ldr	r3, [r7, #4]
 800306a:	7e1b      	ldrb	r3, [r3, #24]
 800306c:	2b01      	cmp	r3, #1
 800306e:	d108      	bne.n	8003082 <HAL_CAN_Init+0xd6>
  {
    SET_BIT(hcan->Instance->MCR, CAN_MCR_TTCM);
 8003070:	687b      	ldr	r3, [r7, #4]
 8003072:	681b      	ldr	r3, [r3, #0]
 8003074:	681a      	ldr	r2, [r3, #0]
 8003076:	687b      	ldr	r3, [r7, #4]
 8003078:	681b      	ldr	r3, [r3, #0]
 800307a:	f042 0280 	orr.w	r2, r2, #128	; 0x80
 800307e:	601a      	str	r2, [r3, #0]
 8003080:	e007      	b.n	8003092 <HAL_CAN_Init+0xe6>
  }
  else
  {
    CLEAR_BIT(hcan->Instance->MCR, CAN_MCR_TTCM);
 8003082:	687b      	ldr	r3, [r7, #4]
 8003084:	681b      	ldr	r3, [r3, #0]
 8003086:	681a      	ldr	r2, [r3, #0]
 8003088:	687b      	ldr	r3, [r7, #4]
 800308a:	681b      	ldr	r3, [r3, #0]
 800308c:	f022 0280 	bic.w	r2, r2, #128	; 0x80
 8003090:	601a      	str	r2, [r3, #0]
  }

  /* Set the automatic bus-off management */
  if (hcan->Init.AutoBusOff == ENABLE)
 8003092:	687b      	ldr	r3, [r7, #4]
 8003094:	7e5b      	ldrb	r3, [r3, #25]
 8003096:	2b01      	cmp	r3, #1
 8003098:	d108      	bne.n	80030ac <HAL_CAN_Init+0x100>
  {
    SET_BIT(hcan->Instance->MCR, CAN_MCR_ABOM);
 800309a:	687b      	ldr	r3, [r7, #4]
 800309c:	681b      	ldr	r3, [r3, #0]
 800309e:	681a      	ldr	r2, [r3, #0]
 80030a0:	687b      	ldr	r3, [r7, #4]
 80030a2:	681b      	ldr	r3, [r3, #0]
 80030a4:	f042 0240 	orr.w	r2, r2, #64	; 0x40
 80030a8:	601a      	str	r2, [r3, #0]
 80030aa:	e007      	b.n	80030bc <HAL_CAN_Init+0x110>
  }
  else
  {
    CLEAR_BIT(hcan->Instance->MCR, CAN_MCR_ABOM);
 80030ac:	687b      	ldr	r3, [r7, #4]
 80030ae:	681b      	ldr	r3, [r3, #0]
 80030b0:	681a      	ldr	r2, [r3, #0]
 80030b2:	687b      	ldr	r3, [r7, #4]
 80030b4:	681b      	ldr	r3, [r3, #0]
 80030b6:	f022 0240 	bic.w	r2, r2, #64	; 0x40
 80030ba:	601a      	str	r2, [r3, #0]
  }

  /* Set the automatic wake-up mode */
  if (hcan->Init.AutoWakeUp == ENABLE)
 80030bc:	687b      	ldr	r3, [r7, #4]
 80030be:	7e9b      	ldrb	r3, [r3, #26]
 80030c0:	2b01      	cmp	r3, #1
 80030c2:	d108      	bne.n	80030d6 <HAL_CAN_Init+0x12a>
  {
    SET_BIT(hcan->Instance->MCR, CAN_MCR_AWUM);
 80030c4:	687b      	ldr	r3, [r7, #4]
 80030c6:	681b      	ldr	r3, [r3, #0]
 80030c8:	681a      	ldr	r2, [r3, #0]
 80030ca:	687b      	ldr	r3, [r7, #4]
 80030cc:	681b      	ldr	r3, [r3, #0]
 80030ce:	f042 0220 	orr.w	r2, r2, #32
 80030d2:	601a      	str	r2, [r3, #0]
 80030d4:	e007      	b.n	80030e6 <HAL_CAN_Init+0x13a>
  }
  else
  {
    CLEAR_BIT(hcan->Instance->MCR, CAN_MCR_AWUM);
 80030d6:	687b      	ldr	r3, [r7, #4]
 80030d8:	681b      	ldr	r3, [r3, #0]
 80030da:	681a      	ldr	r2, [r3, #0]
 80030dc:	687b      	ldr	r3, [r7, #4]
 80030de:	681b      	ldr	r3, [r3, #0]
 80030e0:	f022 0220 	bic.w	r2, r2, #32
 80030e4:	601a      	str	r2, [r3, #0]
  }

  /* Set the automatic retransmission */
  if (hcan->Init.AutoRetransmission == ENABLE)
 80030e6:	687b      	ldr	r3, [r7, #4]
 80030e8:	7edb      	ldrb	r3, [r3, #27]
 80030ea:	2b01      	cmp	r3, #1
 80030ec:	d108      	bne.n	8003100 <HAL_CAN_Init+0x154>
  {
    CLEAR_BIT(hcan->Instance->MCR, CAN_MCR_NART);
 80030ee:	687b      	ldr	r3, [r7, #4]
 80030f0:	681b      	ldr	r3, [r3, #0]
 80030f2:	681a      	ldr	r2, [r3, #0]
 80030f4:	687b      	ldr	r3, [r7, #4]
 80030f6:	681b      	ldr	r3, [r3, #0]
 80030f8:	f022 0210 	bic.w	r2, r2, #16
 80030fc:	601a      	str	r2, [r3, #0]
 80030fe:	e007      	b.n	8003110 <HAL_CAN_Init+0x164>
  }
  else
  {
    SET_BIT(hcan->Instance->MCR, CAN_MCR_NART);
 8003100:	687b      	ldr	r3, [r7, #4]
 8003102:	681b      	ldr	r3, [r3, #0]
 8003104:	681a      	ldr	r2, [r3, #0]
 8003106:	687b      	ldr	r3, [r7, #4]
 8003108:	681b      	ldr	r3, [r3, #0]
 800310a:	f042 0210 	orr.w	r2, r2, #16
 800310e:	601a      	str	r2, [r3, #0]
  }

  /* Set the receive FIFO locked mode */
  if (hcan->Init.ReceiveFifoLocked == ENABLE)
 8003110:	687b      	ldr	r3, [r7, #4]
 8003112:	7f1b      	ldrb	r3, [r3, #28]
 8003114:	2b01      	cmp	r3, #1
 8003116:	d108      	bne.n	800312a <HAL_CAN_Init+0x17e>
  {
    SET_BIT(hcan->Instance->MCR, CAN_MCR_RFLM);
 8003118:	687b      	ldr	r3, [r7, #4]
 800311a:	681b      	ldr	r3, [r3, #0]
 800311c:	681a      	ldr	r2, [r3, #0]
 800311e:	687b      	ldr	r3, [r7, #4]
 8003120:	681b      	ldr	r3, [r3, #0]
 8003122:	f042 0208 	orr.w	r2, r2, #8
 8003126:	601a      	str	r2, [r3, #0]
 8003128:	e007      	b.n	800313a <HAL_CAN_Init+0x18e>
  }
  else
  {
    CLEAR_BIT(hcan->Instance->MCR, CAN_MCR_RFLM);
 800312a:	687b      	ldr	r3, [r7, #4]
 800312c:	681b      	ldr	r3, [r3, #0]
 800312e:	681a      	ldr	r2, [r3, #0]
 8003130:	687b      	ldr	r3, [r7, #4]
 8003132:	681b      	ldr	r3, [r3, #0]
 8003134:	f022 0208 	bic.w	r2, r2, #8
 8003138:	601a      	str	r2, [r3, #0]
  }

  /* Set the transmit FIFO priority */
  if (hcan->Init.TransmitFifoPriority == ENABLE)
 800313a:	687b      	ldr	r3, [r7, #4]
 800313c:	7f5b      	ldrb	r3, [r3, #29]
 800313e:	2b01      	cmp	r3, #1
 8003140:	d108      	bne.n	8003154 <HAL_CAN_Init+0x1a8>
  {
    SET_BIT(hcan->Instance->MCR, CAN_MCR_TXFP);
 8003142:	687b      	ldr	r3, [r7, #4]
 8003144:	681b      	ldr	r3, [r3, #0]
 8003146:	681a      	ldr	r2, [r3, #0]
 8003148:	687b      	ldr	r3, [r7, #4]
 800314a:	681b      	ldr	r3, [r3, #0]
 800314c:	f042 0204 	orr.w	r2, r2, #4
 8003150:	601a      	str	r2, [r3, #0]
 8003152:	e007      	b.n	8003164 <HAL_CAN_Init+0x1b8>
  }
  else
  {
    CLEAR_BIT(hcan->Instance->MCR, CAN_MCR_TXFP);
 8003154:	687b      	ldr	r3, [r7, #4]
 8003156:	681b      	ldr	r3, [r3, #0]
 8003158:	681a      	ldr	r2, [r3, #0]
 800315a:	687b      	ldr	r3, [r7, #4]
 800315c:	681b      	ldr	r3, [r3, #0]
 800315e:	f022 0204 	bic.w	r2, r2, #4
 8003162:	601a      	str	r2, [r3, #0]
  }

  /* Set the bit timing register */
  WRITE_REG(hcan->Instance->BTR, (uint32_t)(hcan->Init.Mode           |
 8003164:	687b      	ldr	r3, [r7, #4]
 8003166:	689a      	ldr	r2, [r3, #8]
 8003168:	687b      	ldr	r3, [r7, #4]
 800316a:	68db      	ldr	r3, [r3, #12]
 800316c:	431a      	orrs	r2, r3
 800316e:	687b      	ldr	r3, [r7, #4]
 8003170:	691b      	ldr	r3, [r3, #16]
 8003172:	431a      	orrs	r2, r3
 8003174:	687b      	ldr	r3, [r7, #4]
 8003176:	695b      	ldr	r3, [r3, #20]
 8003178:	ea42 0103 	orr.w	r1, r2, r3
 800317c:	687b      	ldr	r3, [r7, #4]
 800317e:	685b      	ldr	r3, [r3, #4]
 8003180:	1e5a      	subs	r2, r3, #1
 8003182:	687b      	ldr	r3, [r7, #4]
 8003184:	681b      	ldr	r3, [r3, #0]
 8003186:	430a      	orrs	r2, r1
 8003188:	61da      	str	r2, [r3, #28]
                                            hcan->Init.TimeSeg1       |
                                            hcan->Init.TimeSeg2       |
                                            (hcan->Init.Prescaler - 1U)));

  /* Initialize the error code */
  hcan->ErrorCode = HAL_CAN_ERROR_NONE;
 800318a:	687b      	ldr	r3, [r7, #4]
 800318c:	2200      	movs	r2, #0
 800318e:	625a      	str	r2, [r3, #36]	; 0x24

  /* Initialize the CAN state */
  hcan->State = HAL_CAN_STATE_READY;
 8003190:	687b      	ldr	r3, [r7, #4]
 8003192:	2201      	movs	r2, #1
 8003194:	f883 2020 	strb.w	r2, [r3, #32]

  /* Return function status */
  return HAL_OK;
 8003198:	2300      	movs	r3, #0
}
 800319a:	4618      	mov	r0, r3
 800319c:	3710      	adds	r7, #16
 800319e:	46bd      	mov	sp, r7
 80031a0:	bd80      	pop	{r7, pc}
	...

080031a4 <HAL_CAN_ConfigFilter>:
  * @param  sFilterConfig pointer to a CAN_FilterTypeDef structure that
  *         contains the filter configuration information.
  * @retval None
  */
HAL_StatusTypeDef HAL_CAN_ConfigFilter(CAN_HandleTypeDef *hcan, const CAN_FilterTypeDef *sFilterConfig)
{
 80031a4:	b480      	push	{r7}
 80031a6:	b087      	sub	sp, #28
 80031a8:	af00      	add	r7, sp, #0
 80031aa:	6078      	str	r0, [r7, #4]
 80031ac:	6039      	str	r1, [r7, #0]
  uint32_t filternbrbitpos;
  CAN_TypeDef *can_ip = hcan->Instance;
 80031ae:	687b      	ldr	r3, [r7, #4]
 80031b0:	681b      	ldr	r3, [r3, #0]
 80031b2:	617b      	str	r3, [r7, #20]
  HAL_CAN_StateTypeDef state = hcan->State;
 80031b4:	687b      	ldr	r3, [r7, #4]
 80031b6:	f893 3020 	ldrb.w	r3, [r3, #32]
 80031ba:	74fb      	strb	r3, [r7, #19]

  if ((state == HAL_CAN_STATE_READY) ||
 80031bc:	7cfb      	ldrb	r3, [r7, #19]
 80031be:	2b01      	cmp	r3, #1
 80031c0:	d003      	beq.n	80031ca <HAL_CAN_ConfigFilter+0x26>
 80031c2:	7cfb      	ldrb	r3, [r7, #19]
 80031c4:	2b02      	cmp	r3, #2
 80031c6:	f040 80be 	bne.w	8003346 <HAL_CAN_ConfigFilter+0x1a2>
      assert_param(IS_CAN_FILTER_BANK_DUAL(sFilterConfig->SlaveStartFilterBank));
    }
#elif defined(CAN2)
    /* CAN1 and CAN2 are dual instances with 28 common filters banks */
    /* Select master instance to access the filter banks */
    can_ip = CAN1;
 80031ca:	4b65      	ldr	r3, [pc, #404]	; (8003360 <HAL_CAN_ConfigFilter+0x1bc>)
 80031cc:	617b      	str	r3, [r7, #20]
    /* Check the parameters */
    assert_param(IS_CAN_FILTER_BANK_SINGLE(sFilterConfig->FilterBank));
#endif /* CAN3 */

    /* Initialisation mode for the filter */
    SET_BIT(can_ip->FMR, CAN_FMR_FINIT);
 80031ce:	697b      	ldr	r3, [r7, #20]
 80031d0:	f8d3 3200 	ldr.w	r3, [r3, #512]	; 0x200
 80031d4:	f043 0201 	orr.w	r2, r3, #1
 80031d8:	697b      	ldr	r3, [r7, #20]
 80031da:	f8c3 2200 	str.w	r2, [r3, #512]	; 0x200
      SET_BIT(can_ip->FMR, sFilterConfig->SlaveStartFilterBank << CAN_FMR_CAN2SB_Pos);
    }

#elif defined(CAN2)
    /* Select the start filter number of CAN2 slave instance */
    CLEAR_BIT(can_ip->FMR, CAN_FMR_CAN2SB);
 80031de:	697b      	ldr	r3, [r7, #20]
 80031e0:	f8d3 3200 	ldr.w	r3, [r3, #512]	; 0x200
 80031e4:	f423 527c 	bic.w	r2, r3, #16128	; 0x3f00
 80031e8:	697b      	ldr	r3, [r7, #20]
 80031ea:	f8c3 2200 	str.w	r2, [r3, #512]	; 0x200
    SET_BIT(can_ip->FMR, sFilterConfig->SlaveStartFilterBank << CAN_FMR_CAN2SB_Pos);
 80031ee:	697b      	ldr	r3, [r7, #20]
 80031f0:	f8d3 2200 	ldr.w	r2, [r3, #512]	; 0x200
 80031f4:	683b      	ldr	r3, [r7, #0]
 80031f6:	6a5b      	ldr	r3, [r3, #36]	; 0x24
 80031f8:	021b      	lsls	r3, r3, #8
 80031fa:	431a      	orrs	r2, r3
 80031fc:	697b      	ldr	r3, [r7, #20]
 80031fe:	f8c3 2200 	str.w	r2, [r3, #512]	; 0x200

#endif /* CAN3 */
    /* Convert filter number into bit position */
    filternbrbitpos = (uint32_t)1 << (sFilterConfig->FilterBank & 0x1FU);
 8003202:	683b      	ldr	r3, [r7, #0]
 8003204:	695b      	ldr	r3, [r3, #20]
 8003206:	f003 031f 	and.w	r3, r3, #31
 800320a:	2201      	movs	r2, #1
 800320c:	fa02 f303 	lsl.w	r3, r2, r3
 8003210:	60fb      	str	r3, [r7, #12]

    /* Filter Deactivation */
    CLEAR_BIT(can_ip->FA1R, filternbrbitpos);
 8003212:	697b      	ldr	r3, [r7, #20]
 8003214:	f8d3 221c 	ldr.w	r2, [r3, #540]	; 0x21c
 8003218:	68fb      	ldr	r3, [r7, #12]
 800321a:	43db      	mvns	r3, r3
 800321c:	401a      	ands	r2, r3
 800321e:	697b      	ldr	r3, [r7, #20]
 8003220:	f8c3 221c 	str.w	r2, [r3, #540]	; 0x21c

    /* Filter Scale */
    if (sFilterConfig->FilterScale == CAN_FILTERSCALE_16BIT)
 8003224:	683b      	ldr	r3, [r7, #0]
 8003226:	69db      	ldr	r3, [r3, #28]
 8003228:	2b00      	cmp	r3, #0
 800322a:	d123      	bne.n	8003274 <HAL_CAN_ConfigFilter+0xd0>
    {
      /* 16-bit scale for the filter */
      CLEAR_BIT(can_ip->FS1R, filternbrbitpos);
 800322c:	697b      	ldr	r3, [r7, #20]
 800322e:	f8d3 220c 	ldr.w	r2, [r3, #524]	; 0x20c
 8003232:	68fb      	ldr	r3, [r7, #12]
 8003234:	43db      	mvns	r3, r3
 8003236:	401a      	ands	r2, r3
 8003238:	697b      	ldr	r3, [r7, #20]
 800323a:	f8c3 220c 	str.w	r2, [r3, #524]	; 0x20c

      /* First 16-bit identifier and First 16-bit mask */
      /* Or First 16-bit identifier and Second 16-bit identifier */
      can_ip->sFilterRegister[sFilterConfig->FilterBank].FR1 =
        ((0x0000FFFFU & (uint32_t)sFilterConfig->FilterMaskIdLow) << 16U) |
 800323e:	683b      	ldr	r3, [r7, #0]
 8003240:	68db      	ldr	r3, [r3, #12]
 8003242:	0419      	lsls	r1, r3, #16
        (0x0000FFFFU & (uint32_t)sFilterConfig->FilterIdLow);
 8003244:	683b      	ldr	r3, [r7, #0]
 8003246:	685b      	ldr	r3, [r3, #4]
 8003248:	b29b      	uxth	r3, r3
      can_ip->sFilterRegister[sFilterConfig->FilterBank].FR1 =
 800324a:	683a      	ldr	r2, [r7, #0]
 800324c:	6952      	ldr	r2, [r2, #20]
        ((0x0000FFFFU & (uint32_t)sFilterConfig->FilterMaskIdLow) << 16U) |
 800324e:	4319      	orrs	r1, r3
      can_ip->sFilterRegister[sFilterConfig->FilterBank].FR1 =
 8003250:	697b      	ldr	r3, [r7, #20]
 8003252:	3248      	adds	r2, #72	; 0x48
 8003254:	f843 1032 	str.w	r1, [r3, r2, lsl #3]

      /* Second 16-bit identifier and Second 16-bit mask */
      /* Or Third 16-bit identifier and Fourth 16-bit identifier */
      can_ip->sFilterRegister[sFilterConfig->FilterBank].FR2 =
        ((0x0000FFFFU & (uint32_t)sFilterConfig->FilterMaskIdHigh) << 16U) |
 8003258:	683b      	ldr	r3, [r7, #0]
 800325a:	689b      	ldr	r3, [r3, #8]
 800325c:	0419      	lsls	r1, r3, #16
        (0x0000FFFFU & (uint32_t)sFilterConfig->FilterIdHigh);
 800325e:	683b      	ldr	r3, [r7, #0]
 8003260:	681b      	ldr	r3, [r3, #0]
 8003262:	b29a      	uxth	r2, r3
      can_ip->sFilterRegister[sFilterConfig->FilterBank].FR2 =
 8003264:	683b      	ldr	r3, [r7, #0]
 8003266:	695b      	ldr	r3, [r3, #20]
        ((0x0000FFFFU & (uint32_t)sFilterConfig->FilterMaskIdHigh) << 16U) |
 8003268:	430a      	orrs	r2, r1
      can_ip->sFilterRegister[sFilterConfig->FilterBank].FR2 =
 800326a:	6979      	ldr	r1, [r7, #20]
 800326c:	3348      	adds	r3, #72	; 0x48
 800326e:	00db      	lsls	r3, r3, #3
 8003270:	440b      	add	r3, r1
 8003272:	605a      	str	r2, [r3, #4]
    }

    if (sFilterConfig->FilterScale == CAN_FILTERSCALE_32BIT)
 8003274:	683b      	ldr	r3, [r7, #0]
 8003276:	69db      	ldr	r3, [r3, #28]
 8003278:	2b01      	cmp	r3, #1
 800327a:	d122      	bne.n	80032c2 <HAL_CAN_ConfigFilter+0x11e>
    {
      /* 32-bit scale for the filter */
      SET_BIT(can_ip->FS1R, filternbrbitpos);
 800327c:	697b      	ldr	r3, [r7, #20]
 800327e:	f8d3 220c 	ldr.w	r2, [r3, #524]	; 0x20c
 8003282:	68fb      	ldr	r3, [r7, #12]
 8003284:	431a      	orrs	r2, r3
 8003286:	697b      	ldr	r3, [r7, #20]
 8003288:	f8c3 220c 	str.w	r2, [r3, #524]	; 0x20c

      /* 32-bit identifier or First 32-bit identifier */
      can_ip->sFilterRegister[sFilterConfig->FilterBank].FR1 =
        ((0x0000FFFFU & (uint32_t)sFilterConfig->FilterIdHigh) << 16U) |
 800328c:	683b      	ldr	r3, [r7, #0]
 800328e:	681b      	ldr	r3, [r3, #0]
 8003290:	0419      	lsls	r1, r3, #16
        (0x0000FFFFU & (uint32_t)sFilterConfig->FilterIdLow);
 8003292:	683b      	ldr	r3, [r7, #0]
 8003294:	685b      	ldr	r3, [r3, #4]
 8003296:	b29b      	uxth	r3, r3
      can_ip->sFilterRegister[sFilterConfig->FilterBank].FR1 =
 8003298:	683a      	ldr	r2, [r7, #0]
 800329a:	6952      	ldr	r2, [r2, #20]
        ((0x0000FFFFU & (uint32_t)sFilterConfig->FilterIdHigh) << 16U) |
 800329c:	4319      	orrs	r1, r3
      can_ip->sFilterRegister[sFilterConfig->FilterBank].FR1 =
 800329e:	697b      	ldr	r3, [r7, #20]
 80032a0:	3248      	adds	r2, #72	; 0x48
 80032a2:	f843 1032 	str.w	r1, [r3, r2, lsl #3]

      /* 32-bit mask or Second 32-bit identifier */
      can_ip->sFilterRegister[sFilterConfig->FilterBank].FR2 =
        ((0x0000FFFFU & (uint32_t)sFilterConfig->FilterMaskIdHigh) << 16U) |
 80032a6:	683b      	ldr	r3, [r7, #0]
 80032a8:	689b      	ldr	r3, [r3, #8]
 80032aa:	0419      	lsls	r1, r3, #16
        (0x0000FFFFU & (uint32_t)sFilterConfig->FilterMaskIdLow);
 80032ac:	683b      	ldr	r3, [r7, #0]
 80032ae:	68db      	ldr	r3, [r3, #12]
 80032b0:	b29a      	uxth	r2, r3
      can_ip->sFilterRegister[sFilterConfig->FilterBank].FR2 =
 80032b2:	683b      	ldr	r3, [r7, #0]
 80032b4:	695b      	ldr	r3, [r3, #20]
        ((0x0000FFFFU & (uint32_t)sFilterConfig->FilterMaskIdHigh) << 16U) |
 80032b6:	430a      	orrs	r2, r1
      can_ip->sFilterRegister[sFilterConfig->FilterBank].FR2 =
 80032b8:	6979      	ldr	r1, [r7, #20]
 80032ba:	3348      	adds	r3, #72	; 0x48
 80032bc:	00db      	lsls	r3, r3, #3
 80032be:	440b      	add	r3, r1
 80032c0:	605a      	str	r2, [r3, #4]
    }

    /* Filter Mode */
    if (sFilterConfig->FilterMode == CAN_FILTERMODE_IDMASK)
 80032c2:	683b      	ldr	r3, [r7, #0]
 80032c4:	699b      	ldr	r3, [r3, #24]
 80032c6:	2b00      	cmp	r3, #0
 80032c8:	d109      	bne.n	80032de <HAL_CAN_ConfigFilter+0x13a>
    {
      /* Id/Mask mode for the filter*/
      CLEAR_BIT(can_ip->FM1R, filternbrbitpos);
 80032ca:	697b      	ldr	r3, [r7, #20]
 80032cc:	f8d3 2204 	ldr.w	r2, [r3, #516]	; 0x204
 80032d0:	68fb      	ldr	r3, [r7, #12]
 80032d2:	43db      	mvns	r3, r3
 80032d4:	401a      	ands	r2, r3
 80032d6:	697b      	ldr	r3, [r7, #20]
 80032d8:	f8c3 2204 	str.w	r2, [r3, #516]	; 0x204
 80032dc:	e007      	b.n	80032ee <HAL_CAN_ConfigFilter+0x14a>
    }
    else /* CAN_FilterInitStruct->CAN_FilterMode == CAN_FilterMode_IdList */
    {
      /* Identifier list mode for the filter*/
      SET_BIT(can_ip->FM1R, filternbrbitpos);
 80032de:	697b      	ldr	r3, [r7, #20]
 80032e0:	f8d3 2204 	ldr.w	r2, [r3, #516]	; 0x204
 80032e4:	68fb      	ldr	r3, [r7, #12]
 80032e6:	431a      	orrs	r2, r3
 80032e8:	697b      	ldr	r3, [r7, #20]
 80032ea:	f8c3 2204 	str.w	r2, [r3, #516]	; 0x204
    }

    /* Filter FIFO assignment */
    if (sFilterConfig->FilterFIFOAssignment == CAN_FILTER_FIFO0)
 80032ee:	683b      	ldr	r3, [r7, #0]
 80032f0:	691b      	ldr	r3, [r3, #16]
 80032f2:	2b00      	cmp	r3, #0
 80032f4:	d109      	bne.n	800330a <HAL_CAN_ConfigFilter+0x166>
    {
      /* FIFO 0 assignation for the filter */
      CLEAR_BIT(can_ip->FFA1R, filternbrbitpos);
 80032f6:	697b      	ldr	r3, [r7, #20]
 80032f8:	f8d3 2214 	ldr.w	r2, [r3, #532]	; 0x214
 80032fc:	68fb      	ldr	r3, [r7, #12]
 80032fe:	43db      	mvns	r3, r3
 8003300:	401a      	ands	r2, r3
 8003302:	697b      	ldr	r3, [r7, #20]
 8003304:	f8c3 2214 	str.w	r2, [r3, #532]	; 0x214
 8003308:	e007      	b.n	800331a <HAL_CAN_ConfigFilter+0x176>
    }
    else
    {
      /* FIFO 1 assignation for the filter */
      SET_BIT(can_ip->FFA1R, filternbrbitpos);
 800330a:	697b      	ldr	r3, [r7, #20]
 800330c:	f8d3 2214 	ldr.w	r2, [r3, #532]	; 0x214
 8003310:	68fb      	ldr	r3, [r7, #12]
 8003312:	431a      	orrs	r2, r3
 8003314:	697b      	ldr	r3, [r7, #20]
 8003316:	f8c3 2214 	str.w	r2, [r3, #532]	; 0x214
    }

    /* Filter activation */
    if (sFilterConfig->FilterActivation == CAN_FILTER_ENABLE)
 800331a:	683b      	ldr	r3, [r7, #0]
 800331c:	6a1b      	ldr	r3, [r3, #32]
 800331e:	2b01      	cmp	r3, #1
 8003320:	d107      	bne.n	8003332 <HAL_CAN_ConfigFilter+0x18e>
    {
      SET_BIT(can_ip->FA1R, filternbrbitpos);
 8003322:	697b      	ldr	r3, [r7, #20]
 8003324:	f8d3 221c 	ldr.w	r2, [r3, #540]	; 0x21c
 8003328:	68fb      	ldr	r3, [r7, #12]
 800332a:	431a      	orrs	r2, r3
 800332c:	697b      	ldr	r3, [r7, #20]
 800332e:	f8c3 221c 	str.w	r2, [r3, #540]	; 0x21c
    }

    /* Leave the initialisation mode for the filter */
    CLEAR_BIT(can_ip->FMR, CAN_FMR_FINIT);
 8003332:	697b      	ldr	r3, [r7, #20]
 8003334:	f8d3 3200 	ldr.w	r3, [r3, #512]	; 0x200
 8003338:	f023 0201 	bic.w	r2, r3, #1
 800333c:	697b      	ldr	r3, [r7, #20]
 800333e:	f8c3 2200 	str.w	r2, [r3, #512]	; 0x200

    /* Return function status */
    return HAL_OK;
 8003342:	2300      	movs	r3, #0
 8003344:	e006      	b.n	8003354 <HAL_CAN_ConfigFilter+0x1b0>
  }
  else
  {
    /* Update error code */
    hcan->ErrorCode |= HAL_CAN_ERROR_NOT_INITIALIZED;
 8003346:	687b      	ldr	r3, [r7, #4]
 8003348:	6a5b      	ldr	r3, [r3, #36]	; 0x24
 800334a:	f443 2280 	orr.w	r2, r3, #262144	; 0x40000
 800334e:	687b      	ldr	r3, [r7, #4]
 8003350:	625a      	str	r2, [r3, #36]	; 0x24

    return HAL_ERROR;
 8003352:	2301      	movs	r3, #1
  }
}
 8003354:	4618      	mov	r0, r3
 8003356:	371c      	adds	r7, #28
 8003358:	46bd      	mov	sp, r7
 800335a:	f85d 7b04 	ldr.w	r7, [sp], #4
 800335e:	4770      	bx	lr
 8003360:	40006400 	.word	0x40006400

08003364 <HAL_CAN_Start>:
  * @param  hcan pointer to an CAN_HandleTypeDef structure that contains
  *         the configuration information for the specified CAN.
  * @retval HAL status
  */
HAL_StatusTypeDef HAL_CAN_Start(CAN_HandleTypeDef *hcan)
{
 8003364:	b580      	push	{r7, lr}
 8003366:	b084      	sub	sp, #16
 8003368:	af00      	add	r7, sp, #0
 800336a:	6078      	str	r0, [r7, #4]
  uint32_t tickstart;

  if (hcan->State == HAL_CAN_STATE_READY)
 800336c:	687b      	ldr	r3, [r7, #4]
 800336e:	f893 3020 	ldrb.w	r3, [r3, #32]
 8003372:	b2db      	uxtb	r3, r3
 8003374:	2b01      	cmp	r3, #1
 8003376:	d12e      	bne.n	80033d6 <HAL_CAN_Start+0x72>
  {
    /* Change CAN peripheral state */
    hcan->State = HAL_CAN_STATE_LISTENING;
 8003378:	687b      	ldr	r3, [r7, #4]
 800337a:	2202      	movs	r2, #2
 800337c:	f883 2020 	strb.w	r2, [r3, #32]

    /* Request leave initialisation */
    CLEAR_BIT(hcan->Instance->MCR, CAN_MCR_INRQ);
 8003380:	687b      	ldr	r3, [r7, #4]
 8003382:	681b      	ldr	r3, [r3, #0]
 8003384:	681a      	ldr	r2, [r3, #0]
 8003386:	687b      	ldr	r3, [r7, #4]
 8003388:	681b      	ldr	r3, [r3, #0]
 800338a:	f022 0201 	bic.w	r2, r2, #1
 800338e:	601a      	str	r2, [r3, #0]

    /* Get tick */
    tickstart = HAL_GetTick();
 8003390:	f7ff fddc 	bl	8002f4c <HAL_GetTick>
 8003394:	60f8      	str	r0, [r7, #12]

    /* Wait the acknowledge */
    while ((hcan->Instance->MSR & CAN_MSR_INAK) != 0U)
 8003396:	e012      	b.n	80033be <HAL_CAN_Start+0x5a>
    {
      /* Check for the Timeout */
      if ((HAL_GetTick() - tickstart) > CAN_TIMEOUT_VALUE)
 8003398:	f7ff fdd8 	bl	8002f4c <HAL_GetTick>
 800339c:	4602      	mov	r2, r0
 800339e:	68fb      	ldr	r3, [r7, #12]
 80033a0:	1ad3      	subs	r3, r2, r3
 80033a2:	2b0a      	cmp	r3, #10
 80033a4:	d90b      	bls.n	80033be <HAL_CAN_Start+0x5a>
      {
        /* Update error code */
        hcan->ErrorCode |= HAL_CAN_ERROR_TIMEOUT;
 80033a6:	687b      	ldr	r3, [r7, #4]
 80033a8:	6a5b      	ldr	r3, [r3, #36]	; 0x24
 80033aa:	f443 3200 	orr.w	r2, r3, #131072	; 0x20000
 80033ae:	687b      	ldr	r3, [r7, #4]
 80033b0:	625a      	str	r2, [r3, #36]	; 0x24

        /* Change CAN state */
        hcan->State = HAL_CAN_STATE_ERROR;
 80033b2:	687b      	ldr	r3, [r7, #4]
 80033b4:	2205      	movs	r2, #5
 80033b6:	f883 2020 	strb.w	r2, [r3, #32]

        return HAL_ERROR;
 80033ba:	2301      	movs	r3, #1
 80033bc:	e012      	b.n	80033e4 <HAL_CAN_Start+0x80>
    while ((hcan->Instance->MSR & CAN_MSR_INAK) != 0U)
 80033be:	687b      	ldr	r3, [r7, #4]
 80033c0:	681b      	ldr	r3, [r3, #0]
 80033c2:	685b      	ldr	r3, [r3, #4]
 80033c4:	f003 0301 	and.w	r3, r3, #1
 80033c8:	2b00      	cmp	r3, #0
 80033ca:	d1e5      	bne.n	8003398 <HAL_CAN_Start+0x34>
      }
    }

    /* Reset the CAN ErrorCode */
    hcan->ErrorCode = HAL_CAN_ERROR_NONE;
 80033cc:	687b      	ldr	r3, [r7, #4]
 80033ce:	2200      	movs	r2, #0
 80033d0:	625a      	str	r2, [r3, #36]	; 0x24

    /* Return function status */
    return HAL_OK;
 80033d2:	2300      	movs	r3, #0
 80033d4:	e006      	b.n	80033e4 <HAL_CAN_Start+0x80>
  }
  else
  {
    /* Update error code */
    hcan->ErrorCode |= HAL_CAN_ERROR_NOT_READY;
 80033d6:	687b      	ldr	r3, [r7, #4]
 80033d8:	6a5b      	ldr	r3, [r3, #36]	; 0x24
 80033da:	f443 2200 	orr.w	r2, r3, #524288	; 0x80000
 80033de:	687b      	ldr	r3, [r7, #4]
 80033e0:	625a      	str	r2, [r3, #36]	; 0x24

    return HAL_ERROR;
 80033e2:	2301      	movs	r3, #1
  }
}
 80033e4:	4618      	mov	r0, r3
 80033e6:	3710      	adds	r7, #16
 80033e8:	46bd      	mov	sp, r7
 80033ea:	bd80      	pop	{r7, pc}

080033ec <HAL_CAN_AddTxMessage>:
  *         This parameter can be a value of @arg CAN_Tx_Mailboxes.
  * @retval HAL status
  */
HAL_StatusTypeDef HAL_CAN_AddTxMessage(CAN_HandleTypeDef *hcan, const CAN_TxHeaderTypeDef *pHeader,
                                       const uint8_t aData[], uint32_t *pTxMailbox)
{
 80033ec:	b480      	push	{r7}
 80033ee:	b089      	sub	sp, #36	; 0x24
 80033f0:	af00      	add	r7, sp, #0
 80033f2:	60f8      	str	r0, [r7, #12]
 80033f4:	60b9      	str	r1, [r7, #8]
 80033f6:	607a      	str	r2, [r7, #4]
 80033f8:	603b      	str	r3, [r7, #0]
  uint32_t transmitmailbox;
  HAL_CAN_StateTypeDef state = hcan->State;
 80033fa:	68fb      	ldr	r3, [r7, #12]
 80033fc:	f893 3020 	ldrb.w	r3, [r3, #32]
 8003400:	77fb      	strb	r3, [r7, #31]
  uint32_t tsr = READ_REG(hcan->Instance->TSR);
 8003402:	68fb      	ldr	r3, [r7, #12]
 8003404:	681b      	ldr	r3, [r3, #0]
 8003406:	689b      	ldr	r3, [r3, #8]
 8003408:	61bb      	str	r3, [r7, #24]
  {
    assert_param(IS_CAN_EXTID(pHeader->ExtId));
  }
  assert_param(IS_FUNCTIONAL_STATE(pHeader->TransmitGlobalTime));

  if ((state == HAL_CAN_STATE_READY) ||
 800340a:	7ffb      	ldrb	r3, [r7, #31]
 800340c:	2b01      	cmp	r3, #1
 800340e:	d003      	beq.n	8003418 <HAL_CAN_AddTxMessage+0x2c>
 8003410:	7ffb      	ldrb	r3, [r7, #31]
 8003412:	2b02      	cmp	r3, #2
 8003414:	f040 80ad 	bne.w	8003572 <HAL_CAN_AddTxMessage+0x186>
      (state == HAL_CAN_STATE_LISTENING))
  {
    /* Check that all the Tx mailboxes are not full */
    if (((tsr & CAN_TSR_TME0) != 0U) ||
 8003418:	69bb      	ldr	r3, [r7, #24]
 800341a:	f003 6380 	and.w	r3, r3, #67108864	; 0x4000000
 800341e:	2b00      	cmp	r3, #0
 8003420:	d10a      	bne.n	8003438 <HAL_CAN_AddTxMessage+0x4c>
        ((tsr & CAN_TSR_TME1) != 0U) ||
 8003422:	69bb      	ldr	r3, [r7, #24]
 8003424:	f003 6300 	and.w	r3, r3, #134217728	; 0x8000000
    if (((tsr & CAN_TSR_TME0) != 0U) ||
 8003428:	2b00      	cmp	r3, #0
 800342a:	d105      	bne.n	8003438 <HAL_CAN_AddTxMessage+0x4c>
        ((tsr & CAN_TSR_TME2) != 0U))
 800342c:	69bb      	ldr	r3, [r7, #24]
 800342e:	f003 5380 	and.w	r3, r3, #268435456	; 0x10000000
        ((tsr & CAN_TSR_TME1) != 0U) ||
 8003432:	2b00      	cmp	r3, #0
 8003434:	f000 8095 	beq.w	8003562 <HAL_CAN_AddTxMessage+0x176>
    {
      /* Select an empty transmit mailbox */
      transmitmailbox = (tsr & CAN_TSR_CODE) >> CAN_TSR_CODE_Pos;
 8003438:	69bb      	ldr	r3, [r7, #24]
 800343a:	0e1b      	lsrs	r3, r3, #24
 800343c:	f003 0303 	and.w	r3, r3, #3
 8003440:	617b      	str	r3, [r7, #20]

      /* Store the Tx mailbox */
      *pTxMailbox = (uint32_t)1 << transmitmailbox;
 8003442:	2201      	movs	r2, #1
 8003444:	697b      	ldr	r3, [r7, #20]
 8003446:	409a      	lsls	r2, r3
 8003448:	683b      	ldr	r3, [r7, #0]
 800344a:	601a      	str	r2, [r3, #0]

      /* Set up the Id */
      if (pHeader->IDE == CAN_ID_STD)
 800344c:	68bb      	ldr	r3, [r7, #8]
 800344e:	689b      	ldr	r3, [r3, #8]
 8003450:	2b00      	cmp	r3, #0
 8003452:	d10d      	bne.n	8003470 <HAL_CAN_AddTxMessage+0x84>
      {
        hcan->Instance->sTxMailBox[transmitmailbox].TIR = ((pHeader->StdId << CAN_TI0R_STID_Pos) |
 8003454:	68bb      	ldr	r3, [r7, #8]
 8003456:	681b      	ldr	r3, [r3, #0]
 8003458:	055a      	lsls	r2, r3, #21
                                                           pHeader->RTR);
 800345a:	68bb      	ldr	r3, [r7, #8]
 800345c:	68db      	ldr	r3, [r3, #12]
        hcan->Instance->sTxMailBox[transmitmailbox].TIR = ((pHeader->StdId << CAN_TI0R_STID_Pos) |
 800345e:	68f9      	ldr	r1, [r7, #12]
 8003460:	6809      	ldr	r1, [r1, #0]
 8003462:	431a      	orrs	r2, r3
 8003464:	697b      	ldr	r3, [r7, #20]
 8003466:	3318      	adds	r3, #24
 8003468:	011b      	lsls	r3, r3, #4
 800346a:	440b      	add	r3, r1
 800346c:	601a      	str	r2, [r3, #0]
 800346e:	e00f      	b.n	8003490 <HAL_CAN_AddTxMessage+0xa4>
      }
      else
      {
        hcan->Instance->sTxMailBox[transmitmailbox].TIR = ((pHeader->ExtId << CAN_TI0R_EXID_Pos) |
 8003470:	68bb      	ldr	r3, [r7, #8]
 8003472:	685b      	ldr	r3, [r3, #4]
 8003474:	00da      	lsls	r2, r3, #3
                                                           pHeader->IDE |
 8003476:	68bb      	ldr	r3, [r7, #8]
 8003478:	689b      	ldr	r3, [r3, #8]
        hcan->Instance->sTxMailBox[transmitmailbox].TIR = ((pHeader->ExtId << CAN_TI0R_EXID_Pos) |
 800347a:	431a      	orrs	r2, r3
                                                           pHeader->RTR);
 800347c:	68bb      	ldr	r3, [r7, #8]
 800347e:	68db      	ldr	r3, [r3, #12]
        hcan->Instance->sTxMailBox[transmitmailbox].TIR = ((pHeader->ExtId << CAN_TI0R_EXID_Pos) |
 8003480:	68f9      	ldr	r1, [r7, #12]
 8003482:	6809      	ldr	r1, [r1, #0]
                                                           pHeader->IDE |
 8003484:	431a      	orrs	r2, r3
        hcan->Instance->sTxMailBox[transmitmailbox].TIR = ((pHeader->ExtId << CAN_TI0R_EXID_Pos) |
 8003486:	697b      	ldr	r3, [r7, #20]
 8003488:	3318      	adds	r3, #24
 800348a:	011b      	lsls	r3, r3, #4
 800348c:	440b      	add	r3, r1
 800348e:	601a      	str	r2, [r3, #0]
      }

      /* Set up the DLC */
      hcan->Instance->sTxMailBox[transmitmailbox].TDTR = (pHeader->DLC);
 8003490:	68fb      	ldr	r3, [r7, #12]
 8003492:	6819      	ldr	r1, [r3, #0]
 8003494:	68bb      	ldr	r3, [r7, #8]
 8003496:	691a      	ldr	r2, [r3, #16]
 8003498:	697b      	ldr	r3, [r7, #20]
 800349a:	3318      	adds	r3, #24
 800349c:	011b      	lsls	r3, r3, #4
 800349e:	440b      	add	r3, r1
 80034a0:	3304      	adds	r3, #4
 80034a2:	601a      	str	r2, [r3, #0]

      /* Set up the Transmit Global Time mode */
      if (pHeader->TransmitGlobalTime == ENABLE)
 80034a4:	68bb      	ldr	r3, [r7, #8]
 80034a6:	7d1b      	ldrb	r3, [r3, #20]
 80034a8:	2b01      	cmp	r3, #1
 80034aa:	d111      	bne.n	80034d0 <HAL_CAN_AddTxMessage+0xe4>
      {
        SET_BIT(hcan->Instance->sTxMailBox[transmitmailbox].TDTR, CAN_TDT0R_TGT);
 80034ac:	68fb      	ldr	r3, [r7, #12]
 80034ae:	681a      	ldr	r2, [r3, #0]
 80034b0:	697b      	ldr	r3, [r7, #20]
 80034b2:	3318      	adds	r3, #24
 80034b4:	011b      	lsls	r3, r3, #4
 80034b6:	4413      	add	r3, r2
 80034b8:	3304      	adds	r3, #4
 80034ba:	681b      	ldr	r3, [r3, #0]
 80034bc:	68fa      	ldr	r2, [r7, #12]
 80034be:	6811      	ldr	r1, [r2, #0]
 80034c0:	f443 7280 	orr.w	r2, r3, #256	; 0x100
 80034c4:	697b      	ldr	r3, [r7, #20]
 80034c6:	3318      	adds	r3, #24
 80034c8:	011b      	lsls	r3, r3, #4
 80034ca:	440b      	add	r3, r1
 80034cc:	3304      	adds	r3, #4
 80034ce:	601a      	str	r2, [r3, #0]
      }

      /* Set up the data field */
      WRITE_REG(hcan->Instance->sTxMailBox[transmitmailbox].TDHR,
 80034d0:	687b      	ldr	r3, [r7, #4]
 80034d2:	3307      	adds	r3, #7
 80034d4:	781b      	ldrb	r3, [r3, #0]
 80034d6:	061a      	lsls	r2, r3, #24
 80034d8:	687b      	ldr	r3, [r7, #4]
 80034da:	3306      	adds	r3, #6
 80034dc:	781b      	ldrb	r3, [r3, #0]
 80034de:	041b      	lsls	r3, r3, #16
 80034e0:	431a      	orrs	r2, r3
 80034e2:	687b      	ldr	r3, [r7, #4]
 80034e4:	3305      	adds	r3, #5
 80034e6:	781b      	ldrb	r3, [r3, #0]
 80034e8:	021b      	lsls	r3, r3, #8
 80034ea:	4313      	orrs	r3, r2
 80034ec:	687a      	ldr	r2, [r7, #4]
 80034ee:	3204      	adds	r2, #4
 80034f0:	7812      	ldrb	r2, [r2, #0]
 80034f2:	4610      	mov	r0, r2
 80034f4:	68fa      	ldr	r2, [r7, #12]
 80034f6:	6811      	ldr	r1, [r2, #0]
 80034f8:	ea43 0200 	orr.w	r2, r3, r0
 80034fc:	697b      	ldr	r3, [r7, #20]
 80034fe:	011b      	lsls	r3, r3, #4
 8003500:	440b      	add	r3, r1
 8003502:	f503 73c6 	add.w	r3, r3, #396	; 0x18c
 8003506:	601a      	str	r2, [r3, #0]
                ((uint32_t)aData[7] << CAN_TDH0R_DATA7_Pos) |
                ((uint32_t)aData[6] << CAN_TDH0R_DATA6_Pos) |
                ((uint32_t)aData[5] << CAN_TDH0R_DATA5_Pos) |
                ((uint32_t)aData[4] << CAN_TDH0R_DATA4_Pos));
      WRITE_REG(hcan->Instance->sTxMailBox[transmitmailbox].TDLR,
 8003508:	687b      	ldr	r3, [r7, #4]
 800350a:	3303      	adds	r3, #3
 800350c:	781b      	ldrb	r3, [r3, #0]
 800350e:	061a      	lsls	r2, r3, #24
 8003510:	687b      	ldr	r3, [r7, #4]
 8003512:	3302      	adds	r3, #2
 8003514:	781b      	ldrb	r3, [r3, #0]
 8003516:	041b      	lsls	r3, r3, #16
 8003518:	431a      	orrs	r2, r3
 800351a:	687b      	ldr	r3, [r7, #4]
 800351c:	3301      	adds	r3, #1
 800351e:	781b      	ldrb	r3, [r3, #0]
 8003520:	021b      	lsls	r3, r3, #8
 8003522:	4313      	orrs	r3, r2
 8003524:	687a      	ldr	r2, [r7, #4]
 8003526:	7812      	ldrb	r2, [r2, #0]
 8003528:	4610      	mov	r0, r2
 800352a:	68fa      	ldr	r2, [r7, #12]
 800352c:	6811      	ldr	r1, [r2, #0]
 800352e:	ea43 0200 	orr.w	r2, r3, r0
 8003532:	697b      	ldr	r3, [r7, #20]
 8003534:	011b      	lsls	r3, r3, #4
 8003536:	440b      	add	r3, r1
 8003538:	f503 73c4 	add.w	r3, r3, #392	; 0x188
 800353c:	601a      	str	r2, [r3, #0]
                ((uint32_t)aData[2] << CAN_TDL0R_DATA2_Pos) |
                ((uint32_t)aData[1] << CAN_TDL0R_DATA1_Pos) |
                ((uint32_t)aData[0] << CAN_TDL0R_DATA0_Pos));

      /* Request transmission */
      SET_BIT(hcan->Instance->sTxMailBox[transmitmailbox].TIR, CAN_TI0R_TXRQ);
 800353e:	68fb      	ldr	r3, [r7, #12]
 8003540:	681a      	ldr	r2, [r3, #0]
 8003542:	697b      	ldr	r3, [r7, #20]
 8003544:	3318      	adds	r3, #24
 8003546:	011b      	lsls	r3, r3, #4
 8003548:	4413      	add	r3, r2
 800354a:	681b      	ldr	r3, [r3, #0]
 800354c:	68fa      	ldr	r2, [r7, #12]
 800354e:	6811      	ldr	r1, [r2, #0]
 8003550:	f043 0201 	orr.w	r2, r3, #1
 8003554:	697b      	ldr	r3, [r7, #20]
 8003556:	3318      	adds	r3, #24
 8003558:	011b      	lsls	r3, r3, #4
 800355a:	440b      	add	r3, r1
 800355c:	601a      	str	r2, [r3, #0]

      /* Return function status */
      return HAL_OK;
 800355e:	2300      	movs	r3, #0
 8003560:	e00e      	b.n	8003580 <HAL_CAN_AddTxMessage+0x194>
    }
    else
    {
      /* Update error code */
      hcan->ErrorCode |= HAL_CAN_ERROR_PARAM;
 8003562:	68fb      	ldr	r3, [r7, #12]
 8003564:	6a5b      	ldr	r3, [r3, #36]	; 0x24
 8003566:	f443 1200 	orr.w	r2, r3, #2097152	; 0x200000
 800356a:	68fb      	ldr	r3, [r7, #12]
 800356c:	625a      	str	r2, [r3, #36]	; 0x24

      return HAL_ERROR;
 800356e:	2301      	movs	r3, #1
 8003570:	e006      	b.n	8003580 <HAL_CAN_AddTxMessage+0x194>
    }
  }
  else
  {
    /* Update error code */
    hcan->ErrorCode |= HAL_CAN_ERROR_NOT_INITIALIZED;
 8003572:	68fb      	ldr	r3, [r7, #12]
 8003574:	6a5b      	ldr	r3, [r3, #36]	; 0x24
 8003576:	f443 2280 	orr.w	r2, r3, #262144	; 0x40000
 800357a:	68fb      	ldr	r3, [r7, #12]
 800357c:	625a      	str	r2, [r3, #36]	; 0x24

    return HAL_ERROR;
 800357e:	2301      	movs	r3, #1
  }
}
 8003580:	4618      	mov	r0, r3
 8003582:	3724      	adds	r7, #36	; 0x24
 8003584:	46bd      	mov	sp, r7
 8003586:	f85d 7b04 	ldr.w	r7, [sp], #4
 800358a:	4770      	bx	lr

0800358c <HAL_CAN_GetRxMessage>:
  * @param  aData array where the payload of the Rx frame will be stored.
  * @retval HAL status
  */
HAL_StatusTypeDef HAL_CAN_GetRxMessage(CAN_HandleTypeDef *hcan, uint32_t RxFifo,
                                       CAN_RxHeaderTypeDef *pHeader, uint8_t aData[])
{
 800358c:	b480      	push	{r7}
 800358e:	b087      	sub	sp, #28
 8003590:	af00      	add	r7, sp, #0
 8003592:	60f8      	str	r0, [r7, #12]
 8003594:	60b9      	str	r1, [r7, #8]
 8003596:	607a      	str	r2, [r7, #4]
 8003598:	603b      	str	r3, [r7, #0]
  HAL_CAN_StateTypeDef state = hcan->State;
 800359a:	68fb      	ldr	r3, [r7, #12]
 800359c:	f893 3020 	ldrb.w	r3, [r3, #32]
 80035a0:	75fb      	strb	r3, [r7, #23]

  assert_param(IS_CAN_RX_FIFO(RxFifo));

  if ((state == HAL_CAN_STATE_READY) ||
 80035a2:	7dfb      	ldrb	r3, [r7, #23]
 80035a4:	2b01      	cmp	r3, #1
 80035a6:	d003      	beq.n	80035b0 <HAL_CAN_GetRxMessage+0x24>
 80035a8:	7dfb      	ldrb	r3, [r7, #23]
 80035aa:	2b02      	cmp	r3, #2
 80035ac:	f040 8103 	bne.w	80037b6 <HAL_CAN_GetRxMessage+0x22a>
      (state == HAL_CAN_STATE_LISTENING))
  {
    /* Check the Rx FIFO */
    if (RxFifo == CAN_RX_FIFO0) /* Rx element is assigned to Rx FIFO 0 */
 80035b0:	68bb      	ldr	r3, [r7, #8]
 80035b2:	2b00      	cmp	r3, #0
 80035b4:	d10e      	bne.n	80035d4 <HAL_CAN_GetRxMessage+0x48>
    {
      /* Check that the Rx FIFO 0 is not empty */
      if ((hcan->Instance->RF0R & CAN_RF0R_FMP0) == 0U)
 80035b6:	68fb      	ldr	r3, [r7, #12]
 80035b8:	681b      	ldr	r3, [r3, #0]
 80035ba:	68db      	ldr	r3, [r3, #12]
 80035bc:	f003 0303 	and.w	r3, r3, #3
 80035c0:	2b00      	cmp	r3, #0
 80035c2:	d116      	bne.n	80035f2 <HAL_CAN_GetRxMessage+0x66>
      {
        /* Update error code */
        hcan->ErrorCode |= HAL_CAN_ERROR_PARAM;
 80035c4:	68fb      	ldr	r3, [r7, #12]
 80035c6:	6a5b      	ldr	r3, [r3, #36]	; 0x24
 80035c8:	f443 1200 	orr.w	r2, r3, #2097152	; 0x200000
 80035cc:	68fb      	ldr	r3, [r7, #12]
 80035ce:	625a      	str	r2, [r3, #36]	; 0x24

        return HAL_ERROR;
 80035d0:	2301      	movs	r3, #1
 80035d2:	e0f7      	b.n	80037c4 <HAL_CAN_GetRxMessage+0x238>
      }
    }
    else /* Rx element is assigned to Rx FIFO 1 */
    {
      /* Check that the Rx FIFO 1 is not empty */
      if ((hcan->Instance->RF1R & CAN_RF1R_FMP1) == 0U)
 80035d4:	68fb      	ldr	r3, [r7, #12]
 80035d6:	681b      	ldr	r3, [r3, #0]
 80035d8:	691b      	ldr	r3, [r3, #16]
 80035da:	f003 0303 	and.w	r3, r3, #3
 80035de:	2b00      	cmp	r3, #0
 80035e0:	d107      	bne.n	80035f2 <HAL_CAN_GetRxMessage+0x66>
      {
        /* Update error code */
        hcan->ErrorCode |= HAL_CAN_ERROR_PARAM;
 80035e2:	68fb      	ldr	r3, [r7, #12]
 80035e4:	6a5b      	ldr	r3, [r3, #36]	; 0x24
 80035e6:	f443 1200 	orr.w	r2, r3, #2097152	; 0x200000
 80035ea:	68fb      	ldr	r3, [r7, #12]
 80035ec:	625a      	str	r2, [r3, #36]	; 0x24

        return HAL_ERROR;
 80035ee:	2301      	movs	r3, #1
 80035f0:	e0e8      	b.n	80037c4 <HAL_CAN_GetRxMessage+0x238>
      }
    }

    /* Get the header */
    pHeader->IDE = CAN_RI0R_IDE & hcan->Instance->sFIFOMailBox[RxFifo].RIR;
 80035f2:	68fb      	ldr	r3, [r7, #12]
 80035f4:	681a      	ldr	r2, [r3, #0]
 80035f6:	68bb      	ldr	r3, [r7, #8]
 80035f8:	331b      	adds	r3, #27
 80035fa:	011b      	lsls	r3, r3, #4
 80035fc:	4413      	add	r3, r2
 80035fe:	681b      	ldr	r3, [r3, #0]
 8003600:	f003 0204 	and.w	r2, r3, #4
 8003604:	687b      	ldr	r3, [r7, #4]
 8003606:	609a      	str	r2, [r3, #8]
    if (pHeader->IDE == CAN_ID_STD)
 8003608:	687b      	ldr	r3, [r7, #4]
 800360a:	689b      	ldr	r3, [r3, #8]
 800360c:	2b00      	cmp	r3, #0
 800360e:	d10c      	bne.n	800362a <HAL_CAN_GetRxMessage+0x9e>
    {
      pHeader->StdId = (CAN_RI0R_STID & hcan->Instance->sFIFOMailBox[RxFifo].RIR) >> CAN_TI0R_STID_Pos;
 8003610:	68fb      	ldr	r3, [r7, #12]
 8003612:	681a      	ldr	r2, [r3, #0]
 8003614:	68bb      	ldr	r3, [r7, #8]
 8003616:	331b      	adds	r3, #27
 8003618:	011b      	lsls	r3, r3, #4
 800361a:	4413      	add	r3, r2
 800361c:	681b      	ldr	r3, [r3, #0]
 800361e:	0d5b      	lsrs	r3, r3, #21
 8003620:	f3c3 020a 	ubfx	r2, r3, #0, #11
 8003624:	687b      	ldr	r3, [r7, #4]
 8003626:	601a      	str	r2, [r3, #0]
 8003628:	e00b      	b.n	8003642 <HAL_CAN_GetRxMessage+0xb6>
    }
    else
    {
      pHeader->ExtId = ((CAN_RI0R_EXID | CAN_RI0R_STID) &
                        hcan->Instance->sFIFOMailBox[RxFifo].RIR) >> CAN_RI0R_EXID_Pos;
 800362a:	68fb      	ldr	r3, [r7, #12]
 800362c:	681a      	ldr	r2, [r3, #0]
 800362e:	68bb      	ldr	r3, [r7, #8]
 8003630:	331b      	adds	r3, #27
 8003632:	011b      	lsls	r3, r3, #4
 8003634:	4413      	add	r3, r2
 8003636:	681b      	ldr	r3, [r3, #0]
 8003638:	08db      	lsrs	r3, r3, #3
 800363a:	f023 4260 	bic.w	r2, r3, #3758096384	; 0xe0000000
      pHeader->ExtId = ((CAN_RI0R_EXID | CAN_RI0R_STID) &
 800363e:	687b      	ldr	r3, [r7, #4]
 8003640:	605a      	str	r2, [r3, #4]
    }
    pHeader->RTR = (CAN_RI0R_RTR & hcan->Instance->sFIFOMailBox[RxFifo].RIR);
 8003642:	68fb      	ldr	r3, [r7, #12]
 8003644:	681a      	ldr	r2, [r3, #0]
 8003646:	68bb      	ldr	r3, [r7, #8]
 8003648:	331b      	adds	r3, #27
 800364a:	011b      	lsls	r3, r3, #4
 800364c:	4413      	add	r3, r2
 800364e:	681b      	ldr	r3, [r3, #0]
 8003650:	f003 0202 	and.w	r2, r3, #2
 8003654:	687b      	ldr	r3, [r7, #4]
 8003656:	60da      	str	r2, [r3, #12]
    if (((CAN_RDT0R_DLC & hcan->Instance->sFIFOMailBox[RxFifo].RDTR) >> CAN_RDT0R_DLC_Pos) >= 8U)
 8003658:	68fb      	ldr	r3, [r7, #12]
 800365a:	681a      	ldr	r2, [r3, #0]
 800365c:	68bb      	ldr	r3, [r7, #8]
 800365e:	331b      	adds	r3, #27
 8003660:	011b      	lsls	r3, r3, #4
 8003662:	4413      	add	r3, r2
 8003664:	3304      	adds	r3, #4
 8003666:	681b      	ldr	r3, [r3, #0]
 8003668:	f003 0308 	and.w	r3, r3, #8
 800366c:	2b00      	cmp	r3, #0
 800366e:	d003      	beq.n	8003678 <HAL_CAN_GetRxMessage+0xec>
    {
      /* Truncate DLC to 8 if received field is over range */
      pHeader->DLC = 8U;
 8003670:	687b      	ldr	r3, [r7, #4]
 8003672:	2208      	movs	r2, #8
 8003674:	611a      	str	r2, [r3, #16]
 8003676:	e00b      	b.n	8003690 <HAL_CAN_GetRxMessage+0x104>
    }
    else
    {
      pHeader->DLC = (CAN_RDT0R_DLC & hcan->Instance->sFIFOMailBox[RxFifo].RDTR) >> CAN_RDT0R_DLC_Pos;
 8003678:	68fb      	ldr	r3, [r7, #12]
 800367a:	681a      	ldr	r2, [r3, #0]
 800367c:	68bb      	ldr	r3, [r7, #8]
 800367e:	331b      	adds	r3, #27
 8003680:	011b      	lsls	r3, r3, #4
 8003682:	4413      	add	r3, r2
 8003684:	3304      	adds	r3, #4
 8003686:	681b      	ldr	r3, [r3, #0]
 8003688:	f003 020f 	and.w	r2, r3, #15
 800368c:	687b      	ldr	r3, [r7, #4]
 800368e:	611a      	str	r2, [r3, #16]
    }
    pHeader->FilterMatchIndex = (CAN_RDT0R_FMI & hcan->Instance->sFIFOMailBox[RxFifo].RDTR) >> CAN_RDT0R_FMI_Pos;
 8003690:	68fb      	ldr	r3, [r7, #12]
 8003692:	681a      	ldr	r2, [r3, #0]
 8003694:	68bb      	ldr	r3, [r7, #8]
 8003696:	331b      	adds	r3, #27
 8003698:	011b      	lsls	r3, r3, #4
 800369a:	4413      	add	r3, r2
 800369c:	3304      	adds	r3, #4
 800369e:	681b      	ldr	r3, [r3, #0]
 80036a0:	0a1b      	lsrs	r3, r3, #8
 80036a2:	b2da      	uxtb	r2, r3
 80036a4:	687b      	ldr	r3, [r7, #4]
 80036a6:	619a      	str	r2, [r3, #24]
    pHeader->Timestamp = (CAN_RDT0R_TIME & hcan->Instance->sFIFOMailBox[RxFifo].RDTR) >> CAN_RDT0R_TIME_Pos;
 80036a8:	68fb      	ldr	r3, [r7, #12]
 80036aa:	681a      	ldr	r2, [r3, #0]
 80036ac:	68bb      	ldr	r3, [r7, #8]
 80036ae:	331b      	adds	r3, #27
 80036b0:	011b      	lsls	r3, r3, #4
 80036b2:	4413      	add	r3, r2
 80036b4:	3304      	adds	r3, #4
 80036b6:	681b      	ldr	r3, [r3, #0]
 80036b8:	0c1b      	lsrs	r3, r3, #16
 80036ba:	b29a      	uxth	r2, r3
 80036bc:	687b      	ldr	r3, [r7, #4]
 80036be:	615a      	str	r2, [r3, #20]

    /* Get the data */
    aData[0] = (uint8_t)((CAN_RDL0R_DATA0 & hcan->Instance->sFIFOMailBox[RxFifo].RDLR) >> CAN_RDL0R_DATA0_Pos);
 80036c0:	68fb      	ldr	r3, [r7, #12]
 80036c2:	681a      	ldr	r2, [r3, #0]
 80036c4:	68bb      	ldr	r3, [r7, #8]
 80036c6:	011b      	lsls	r3, r3, #4
 80036c8:	4413      	add	r3, r2
 80036ca:	f503 73dc 	add.w	r3, r3, #440	; 0x1b8
 80036ce:	681b      	ldr	r3, [r3, #0]
 80036d0:	b2da      	uxtb	r2, r3
 80036d2:	683b      	ldr	r3, [r7, #0]
 80036d4:	701a      	strb	r2, [r3, #0]
    aData[1] = (uint8_t)((CAN_RDL0R_DATA1 & hcan->Instance->sFIFOMailBox[RxFifo].RDLR) >> CAN_RDL0R_DATA1_Pos);
 80036d6:	68fb      	ldr	r3, [r7, #12]
 80036d8:	681a      	ldr	r2, [r3, #0]
 80036da:	68bb      	ldr	r3, [r7, #8]
 80036dc:	011b      	lsls	r3, r3, #4
 80036de:	4413      	add	r3, r2
 80036e0:	f503 73dc 	add.w	r3, r3, #440	; 0x1b8
 80036e4:	681b      	ldr	r3, [r3, #0]
 80036e6:	0a1a      	lsrs	r2, r3, #8
 80036e8:	683b      	ldr	r3, [r7, #0]
 80036ea:	3301      	adds	r3, #1
 80036ec:	b2d2      	uxtb	r2, r2
 80036ee:	701a      	strb	r2, [r3, #0]
    aData[2] = (uint8_t)((CAN_RDL0R_DATA2 & hcan->Instance->sFIFOMailBox[RxFifo].RDLR) >> CAN_RDL0R_DATA2_Pos);
 80036f0:	68fb      	ldr	r3, [r7, #12]
 80036f2:	681a      	ldr	r2, [r3, #0]
 80036f4:	68bb      	ldr	r3, [r7, #8]
 80036f6:	011b      	lsls	r3, r3, #4
 80036f8:	4413      	add	r3, r2
 80036fa:	f503 73dc 	add.w	r3, r3, #440	; 0x1b8
 80036fe:	681b      	ldr	r3, [r3, #0]
 8003700:	0c1a      	lsrs	r2, r3, #16
 8003702:	683b      	ldr	r3, [r7, #0]
 8003704:	3302      	adds	r3, #2
 8003706:	b2d2      	uxtb	r2, r2
 8003708:	701a      	strb	r2, [r3, #0]
    aData[3] = (uint8_t)((CAN_RDL0R_DATA3 & hcan->Instance->sFIFOMailBox[RxFifo].RDLR) >> CAN_RDL0R_DATA3_Pos);
 800370a:	68fb      	ldr	r3, [r7, #12]
 800370c:	681a      	ldr	r2, [r3, #0]
 800370e:	68bb      	ldr	r3, [r7, #8]
 8003710:	011b      	lsls	r3, r3, #4
 8003712:	4413      	add	r3, r2
 8003714:	f503 73dc 	add.w	r3, r3, #440	; 0x1b8
 8003718:	681b      	ldr	r3, [r3, #0]
 800371a:	0e1a      	lsrs	r2, r3, #24
 800371c:	683b      	ldr	r3, [r7, #0]
 800371e:	3303      	adds	r3, #3
 8003720:	b2d2      	uxtb	r2, r2
 8003722:	701a      	strb	r2, [r3, #0]
    aData[4] = (uint8_t)((CAN_RDH0R_DATA4 & hcan->Instance->sFIFOMailBox[RxFifo].RDHR) >> CAN_RDH0R_DATA4_Pos);
 8003724:	68fb      	ldr	r3, [r7, #12]
 8003726:	681a      	ldr	r2, [r3, #0]
 8003728:	68bb      	ldr	r3, [r7, #8]
 800372a:	011b      	lsls	r3, r3, #4
 800372c:	4413      	add	r3, r2
 800372e:	f503 73de 	add.w	r3, r3, #444	; 0x1bc
 8003732:	681a      	ldr	r2, [r3, #0]
 8003734:	683b      	ldr	r3, [r7, #0]
 8003736:	3304      	adds	r3, #4
 8003738:	b2d2      	uxtb	r2, r2
 800373a:	701a      	strb	r2, [r3, #0]
    aData[5] = (uint8_t)((CAN_RDH0R_DATA5 & hcan->Instance->sFIFOMailBox[RxFifo].RDHR) >> CAN_RDH0R_DATA5_Pos);
 800373c:	68fb      	ldr	r3, [r7, #12]
 800373e:	681a      	ldr	r2, [r3, #0]
 8003740:	68bb      	ldr	r3, [r7, #8]
 8003742:	011b      	lsls	r3, r3, #4
 8003744:	4413      	add	r3, r2
 8003746:	f503 73de 	add.w	r3, r3, #444	; 0x1bc
 800374a:	681b      	ldr	r3, [r3, #0]
 800374c:	0a1a      	lsrs	r2, r3, #8
 800374e:	683b      	ldr	r3, [r7, #0]
 8003750:	3305      	adds	r3, #5
 8003752:	b2d2      	uxtb	r2, r2
 8003754:	701a      	strb	r2, [r3, #0]
    aData[6] = (uint8_t)((CAN_RDH0R_DATA6 & hcan->Instance->sFIFOMailBox[RxFifo].RDHR) >> CAN_RDH0R_DATA6_Pos);
 8003756:	68fb      	ldr	r3, [r7, #12]
 8003758:	681a      	ldr	r2, [r3, #0]
 800375a:	68bb      	ldr	r3, [r7, #8]
 800375c:	011b      	lsls	r3, r3, #4
 800375e:	4413      	add	r3, r2
 8003760:	f503 73de 	add.w	r3, r3, #444	; 0x1bc
 8003764:	681b      	ldr	r3, [r3, #0]
 8003766:	0c1a      	lsrs	r2, r3, #16
 8003768:	683b      	ldr	r3, [r7, #0]
 800376a:	3306      	adds	r3, #6
 800376c:	b2d2      	uxtb	r2, r2
 800376e:	701a      	strb	r2, [r3, #0]
    aData[7] = (uint8_t)((CAN_RDH0R_DATA7 & hcan->Instance->sFIFOMailBox[RxFifo].RDHR) >> CAN_RDH0R_DATA7_Pos);
 8003770:	68fb      	ldr	r3, [r7, #12]
 8003772:	681a      	ldr	r2, [r3, #0]
 8003774:	68bb      	ldr	r3, [r7, #8]
 8003776:	011b      	lsls	r3, r3, #4
 8003778:	4413      	add	r3, r2
 800377a:	f503 73de 	add.w	r3, r3, #444	; 0x1bc
 800377e:	681b      	ldr	r3, [r3, #0]
 8003780:	0e1a      	lsrs	r2, r3, #24
 8003782:	683b      	ldr	r3, [r7, #0]
 8003784:	3307      	adds	r3, #7
 8003786:	b2d2      	uxtb	r2, r2
 8003788:	701a      	strb	r2, [r3, #0]

    /* Release the FIFO */
    if (RxFifo == CAN_RX_FIFO0) /* Rx element is assigned to Rx FIFO 0 */
 800378a:	68bb      	ldr	r3, [r7, #8]
 800378c:	2b00      	cmp	r3, #0
 800378e:	d108      	bne.n	80037a2 <HAL_CAN_GetRxMessage+0x216>
    {
      /* Release RX FIFO 0 */
      SET_BIT(hcan->Instance->RF0R, CAN_RF0R_RFOM0);
 8003790:	68fb      	ldr	r3, [r7, #12]
 8003792:	681b      	ldr	r3, [r3, #0]
 8003794:	68da      	ldr	r2, [r3, #12]
 8003796:	68fb      	ldr	r3, [r7, #12]
 8003798:	681b      	ldr	r3, [r3, #0]
 800379a:	f042 0220 	orr.w	r2, r2, #32
 800379e:	60da      	str	r2, [r3, #12]
 80037a0:	e007      	b.n	80037b2 <HAL_CAN_GetRxMessage+0x226>
    }
    else /* Rx element is assigned to Rx FIFO 1 */
    {
      /* Release RX FIFO 1 */
      SET_BIT(hcan->Instance->RF1R, CAN_RF1R_RFOM1);
 80037a2:	68fb      	ldr	r3, [r7, #12]
 80037a4:	681b      	ldr	r3, [r3, #0]
 80037a6:	691a      	ldr	r2, [r3, #16]
 80037a8:	68fb      	ldr	r3, [r7, #12]
 80037aa:	681b      	ldr	r3, [r3, #0]
 80037ac:	f042 0220 	orr.w	r2, r2, #32
 80037b0:	611a      	str	r2, [r3, #16]
    }

    /* Return function status */
    return HAL_OK;
 80037b2:	2300      	movs	r3, #0
 80037b4:	e006      	b.n	80037c4 <HAL_CAN_GetRxMessage+0x238>
  }
  else
  {
    /* Update error code */
    hcan->ErrorCode |= HAL_CAN_ERROR_NOT_INITIALIZED;
 80037b6:	68fb      	ldr	r3, [r7, #12]
 80037b8:	6a5b      	ldr	r3, [r3, #36]	; 0x24
 80037ba:	f443 2280 	orr.w	r2, r3, #262144	; 0x40000
 80037be:	68fb      	ldr	r3, [r7, #12]
 80037c0:	625a      	str	r2, [r3, #36]	; 0x24

    return HAL_ERROR;
 80037c2:	2301      	movs	r3, #1
  }
}
 80037c4:	4618      	mov	r0, r3
 80037c6:	371c      	adds	r7, #28
 80037c8:	46bd      	mov	sp, r7
 80037ca:	f85d 7b04 	ldr.w	r7, [sp], #4
 80037ce:	4770      	bx	lr

080037d0 <HAL_CAN_ActivateNotification>:
  * @param  ActiveITs indicates which interrupts will be enabled.
  *         This parameter can be any combination of @arg CAN_Interrupts.
  * @retval HAL status
  */
HAL_StatusTypeDef HAL_CAN_ActivateNotification(CAN_HandleTypeDef *hcan, uint32_t ActiveITs)
{
 80037d0:	b480      	push	{r7}
 80037d2:	b085      	sub	sp, #20
 80037d4:	af00      	add	r7, sp, #0
 80037d6:	6078      	str	r0, [r7, #4]
 80037d8:	6039      	str	r1, [r7, #0]
  HAL_CAN_StateTypeDef state = hcan->State;
 80037da:	687b      	ldr	r3, [r7, #4]
 80037dc:	f893 3020 	ldrb.w	r3, [r3, #32]
 80037e0:	73fb      	strb	r3, [r7, #15]

  /* Check function parameters */
  assert_param(IS_CAN_IT(ActiveITs));

  if ((state == HAL_CAN_STATE_READY) ||
 80037e2:	7bfb      	ldrb	r3, [r7, #15]
 80037e4:	2b01      	cmp	r3, #1
 80037e6:	d002      	beq.n	80037ee <HAL_CAN_ActivateNotification+0x1e>
 80037e8:	7bfb      	ldrb	r3, [r7, #15]
 80037ea:	2b02      	cmp	r3, #2
 80037ec:	d109      	bne.n	8003802 <HAL_CAN_ActivateNotification+0x32>
      (state == HAL_CAN_STATE_LISTENING))
  {
    /* Enable the selected interrupts */
    __HAL_CAN_ENABLE_IT(hcan, ActiveITs);
 80037ee:	687b      	ldr	r3, [r7, #4]
 80037f0:	681b      	ldr	r3, [r3, #0]
 80037f2:	6959      	ldr	r1, [r3, #20]
 80037f4:	687b      	ldr	r3, [r7, #4]
 80037f6:	681b      	ldr	r3, [r3, #0]
 80037f8:	683a      	ldr	r2, [r7, #0]
 80037fa:	430a      	orrs	r2, r1
 80037fc:	615a      	str	r2, [r3, #20]

    /* Return function status */
    return HAL_OK;
 80037fe:	2300      	movs	r3, #0
 8003800:	e006      	b.n	8003810 <HAL_CAN_ActivateNotification+0x40>
  }
  else
  {
    /* Update error code */
    hcan->ErrorCode |= HAL_CAN_ERROR_NOT_INITIALIZED;
 8003802:	687b      	ldr	r3, [r7, #4]
 8003804:	6a5b      	ldr	r3, [r3, #36]	; 0x24
 8003806:	f443 2280 	orr.w	r2, r3, #262144	; 0x40000
 800380a:	687b      	ldr	r3, [r7, #4]
 800380c:	625a      	str	r2, [r3, #36]	; 0x24

    return HAL_ERROR;
 800380e:	2301      	movs	r3, #1
  }
}
 8003810:	4618      	mov	r0, r3
 8003812:	3714      	adds	r7, #20
 8003814:	46bd      	mov	sp, r7
 8003816:	f85d 7b04 	ldr.w	r7, [sp], #4
 800381a:	4770      	bx	lr

0800381c <HAL_CAN_IRQHandler>:
  * @param  hcan pointer to a CAN_HandleTypeDef structure that contains
  *         the configuration information for the specified CAN.
  * @retval None
  */
void HAL_CAN_IRQHandler(CAN_HandleTypeDef *hcan)
{
 800381c:	b580      	push	{r7, lr}
 800381e:	b08a      	sub	sp, #40	; 0x28
 8003820:	af00      	add	r7, sp, #0
 8003822:	6078      	str	r0, [r7, #4]
  uint32_t errorcode = HAL_CAN_ERROR_NONE;
 8003824:	2300      	movs	r3, #0
 8003826:	627b      	str	r3, [r7, #36]	; 0x24
  uint32_t interrupts = READ_REG(hcan->Instance->IER);
 8003828:	687b      	ldr	r3, [r7, #4]
 800382a:	681b      	ldr	r3, [r3, #0]
 800382c:	695b      	ldr	r3, [r3, #20]
 800382e:	623b      	str	r3, [r7, #32]
  uint32_t msrflags = READ_REG(hcan->Instance->MSR);
 8003830:	687b      	ldr	r3, [r7, #4]
 8003832:	681b      	ldr	r3, [r3, #0]
 8003834:	685b      	ldr	r3, [r3, #4]
 8003836:	61fb      	str	r3, [r7, #28]
  uint32_t tsrflags = READ_REG(hcan->Instance->TSR);
 8003838:	687b      	ldr	r3, [r7, #4]
 800383a:	681b      	ldr	r3, [r3, #0]
 800383c:	689b      	ldr	r3, [r3, #8]
 800383e:	61bb      	str	r3, [r7, #24]
  uint32_t rf0rflags = READ_REG(hcan->Instance->RF0R);
 8003840:	687b      	ldr	r3, [r7, #4]
 8003842:	681b      	ldr	r3, [r3, #0]
 8003844:	68db      	ldr	r3, [r3, #12]
 8003846:	617b      	str	r3, [r7, #20]
  uint32_t rf1rflags = READ_REG(hcan->Instance->RF1R);
 8003848:	687b      	ldr	r3, [r7, #4]
 800384a:	681b      	ldr	r3, [r3, #0]
 800384c:	691b      	ldr	r3, [r3, #16]
 800384e:	613b      	str	r3, [r7, #16]
  uint32_t esrflags = READ_REG(hcan->Instance->ESR);
 8003850:	687b      	ldr	r3, [r7, #4]
 8003852:	681b      	ldr	r3, [r3, #0]
 8003854:	699b      	ldr	r3, [r3, #24]
 8003856:	60fb      	str	r3, [r7, #12]

  /* Transmit Mailbox empty interrupt management *****************************/
  if ((interrupts & CAN_IT_TX_MAILBOX_EMPTY) != 0U)
 8003858:	6a3b      	ldr	r3, [r7, #32]
 800385a:	f003 0301 	and.w	r3, r3, #1
 800385e:	2b00      	cmp	r3, #0
 8003860:	d07c      	beq.n	800395c <HAL_CAN_IRQHandler+0x140>
  {
    /* Transmit Mailbox 0 management *****************************************/
    if ((tsrflags & CAN_TSR_RQCP0) != 0U)
 8003862:	69bb      	ldr	r3, [r7, #24]
 8003864:	f003 0301 	and.w	r3, r3, #1
 8003868:	2b00      	cmp	r3, #0
 800386a:	d023      	beq.n	80038b4 <HAL_CAN_IRQHandler+0x98>
    {
      /* Clear the Transmission Complete flag (and TXOK0,ALST0,TERR0 bits) */
      __HAL_CAN_CLEAR_FLAG(hcan, CAN_FLAG_RQCP0);
 800386c:	687b      	ldr	r3, [r7, #4]
 800386e:	681b      	ldr	r3, [r3, #0]
 8003870:	2201      	movs	r2, #1
 8003872:	609a      	str	r2, [r3, #8]

      if ((tsrflags & CAN_TSR_TXOK0) != 0U)
 8003874:	69bb      	ldr	r3, [r7, #24]
 8003876:	f003 0302 	and.w	r3, r3, #2
 800387a:	2b00      	cmp	r3, #0
 800387c:	d003      	beq.n	8003886 <HAL_CAN_IRQHandler+0x6a>
#if USE_HAL_CAN_REGISTER_CALLBACKS == 1
        /* Call registered callback*/
        hcan->TxMailbox0CompleteCallback(hcan);
#else
        /* Call weak (surcharged) callback */
        HAL_CAN_TxMailbox0CompleteCallback(hcan);
 800387e:	6878      	ldr	r0, [r7, #4]
 8003880:	f000 f983 	bl	8003b8a <HAL_CAN_TxMailbox0CompleteCallback>
 8003884:	e016      	b.n	80038b4 <HAL_CAN_IRQHandler+0x98>
#endif /* USE_HAL_CAN_REGISTER_CALLBACKS */
      }
      else
      {
        if ((tsrflags & CAN_TSR_ALST0) != 0U)
 8003886:	69bb      	ldr	r3, [r7, #24]
 8003888:	f003 0304 	and.w	r3, r3, #4
 800388c:	2b00      	cmp	r3, #0
 800388e:	d004      	beq.n	800389a <HAL_CAN_IRQHandler+0x7e>
        {
          /* Update error code */
          errorcode |= HAL_CAN_ERROR_TX_ALST0;
 8003890:	6a7b      	ldr	r3, [r7, #36]	; 0x24
 8003892:	f443 6300 	orr.w	r3, r3, #2048	; 0x800
 8003896:	627b      	str	r3, [r7, #36]	; 0x24
 8003898:	e00c      	b.n	80038b4 <HAL_CAN_IRQHandler+0x98>
        }
        else if ((tsrflags & CAN_TSR_TERR0) != 0U)
 800389a:	69bb      	ldr	r3, [r7, #24]
 800389c:	f003 0308 	and.w	r3, r3, #8
 80038a0:	2b00      	cmp	r3, #0
 80038a2:	d004      	beq.n	80038ae <HAL_CAN_IRQHandler+0x92>
        {
          /* Update error code */
          errorcode |= HAL_CAN_ERROR_TX_TERR0;
 80038a4:	6a7b      	ldr	r3, [r7, #36]	; 0x24
 80038a6:	f443 5380 	orr.w	r3, r3, #4096	; 0x1000
 80038aa:	627b      	str	r3, [r7, #36]	; 0x24
 80038ac:	e002      	b.n	80038b4 <HAL_CAN_IRQHandler+0x98>
#if USE_HAL_CAN_REGISTER_CALLBACKS == 1
          /* Call registered callback*/
          hcan->TxMailbox0AbortCallback(hcan);
#else
          /* Call weak (surcharged) callback */
          HAL_CAN_TxMailbox0AbortCallback(hcan);
 80038ae:	6878      	ldr	r0, [r7, #4]
 80038b0:	f000 f989 	bl	8003bc6 <HAL_CAN_TxMailbox0AbortCallback>
        }
      }
    }

    /* Transmit Mailbox 1 management *****************************************/
    if ((tsrflags & CAN_TSR_RQCP1) != 0U)
 80038b4:	69bb      	ldr	r3, [r7, #24]
 80038b6:	f403 7380 	and.w	r3, r3, #256	; 0x100
 80038ba:	2b00      	cmp	r3, #0
 80038bc:	d024      	beq.n	8003908 <HAL_CAN_IRQHandler+0xec>
    {
      /* Clear the Transmission Complete flag (and TXOK1,ALST1,TERR1 bits) */
      __HAL_CAN_CLEAR_FLAG(hcan, CAN_FLAG_RQCP1);
 80038be:	687b      	ldr	r3, [r7, #4]
 80038c0:	681b      	ldr	r3, [r3, #0]
 80038c2:	f44f 7280 	mov.w	r2, #256	; 0x100
 80038c6:	609a      	str	r2, [r3, #8]

      if ((tsrflags & CAN_TSR_TXOK1) != 0U)
 80038c8:	69bb      	ldr	r3, [r7, #24]
 80038ca:	f403 7300 	and.w	r3, r3, #512	; 0x200
 80038ce:	2b00      	cmp	r3, #0
 80038d0:	d003      	beq.n	80038da <HAL_CAN_IRQHandler+0xbe>
#if USE_HAL_CAN_REGISTER_CALLBACKS == 1
        /* Call registered callback*/
        hcan->TxMailbox1CompleteCallback(hcan);
#else
        /* Call weak (surcharged) callback */
        HAL_CAN_TxMailbox1CompleteCallback(hcan);
 80038d2:	6878      	ldr	r0, [r7, #4]
 80038d4:	f000 f963 	bl	8003b9e <HAL_CAN_TxMailbox1CompleteCallback>
 80038d8:	e016      	b.n	8003908 <HAL_CAN_IRQHandler+0xec>
#endif /* USE_HAL_CAN_REGISTER_CALLBACKS */
      }
      else
      {
        if ((tsrflags & CAN_TSR_ALST1) != 0U)
 80038da:	69bb      	ldr	r3, [r7, #24]
 80038dc:	f403 6380 	and.w	r3, r3, #1024	; 0x400
 80038e0:	2b00      	cmp	r3, #0
 80038e2:	d004      	beq.n	80038ee <HAL_CAN_IRQHandler+0xd2>
        {
          /* Update error code */
          errorcode |= HAL_CAN_ERROR_TX_ALST1;
 80038e4:	6a7b      	ldr	r3, [r7, #36]	; 0x24
 80038e6:	f443 5300 	orr.w	r3, r3, #8192	; 0x2000
 80038ea:	627b      	str	r3, [r7, #36]	; 0x24
 80038ec:	e00c      	b.n	8003908 <HAL_CAN_IRQHandler+0xec>
        }
        else if ((tsrflags & CAN_TSR_TERR1) != 0U)
 80038ee:	69bb      	ldr	r3, [r7, #24]
 80038f0:	f403 6300 	and.w	r3, r3, #2048	; 0x800
 80038f4:	2b00      	cmp	r3, #0
 80038f6:	d004      	beq.n	8003902 <HAL_CAN_IRQHandler+0xe6>
        {
          /* Update error code */
          errorcode |= HAL_CAN_ERROR_TX_TERR1;
 80038f8:	6a7b      	ldr	r3, [r7, #36]	; 0x24
 80038fa:	f443 4380 	orr.w	r3, r3, #16384	; 0x4000
 80038fe:	627b      	str	r3, [r7, #36]	; 0x24
 8003900:	e002      	b.n	8003908 <HAL_CAN_IRQHandler+0xec>
#if USE_HAL_CAN_REGISTER_CALLBACKS == 1
          /* Call registered callback*/
          hcan->TxMailbox1AbortCallback(hcan);
#else
          /* Call weak (surcharged) callback */
          HAL_CAN_TxMailbox1AbortCallback(hcan);
 8003902:	6878      	ldr	r0, [r7, #4]
 8003904:	f000 f969 	bl	8003bda <HAL_CAN_TxMailbox1AbortCallback>
        }
      }
    }

    /* Transmit Mailbox 2 management *****************************************/
    if ((tsrflags & CAN_TSR_RQCP2) != 0U)
 8003908:	69bb      	ldr	r3, [r7, #24]
 800390a:	f403 3380 	and.w	r3, r3, #65536	; 0x10000
 800390e:	2b00      	cmp	r3, #0
 8003910:	d024      	beq.n	800395c <HAL_CAN_IRQHandler+0x140>
    {
      /* Clear the Transmission Complete flag (and TXOK2,ALST2,TERR2 bits) */
      __HAL_CAN_CLEAR_FLAG(hcan, CAN_FLAG_RQCP2);
 8003912:	687b      	ldr	r3, [r7, #4]
 8003914:	681b      	ldr	r3, [r3, #0]
 8003916:	f44f 3280 	mov.w	r2, #65536	; 0x10000
 800391a:	609a      	str	r2, [r3, #8]

      if ((tsrflags & CAN_TSR_TXOK2) != 0U)
 800391c:	69bb      	ldr	r3, [r7, #24]
 800391e:	f403 3300 	and.w	r3, r3, #131072	; 0x20000
 8003922:	2b00      	cmp	r3, #0
 8003924:	d003      	beq.n	800392e <HAL_CAN_IRQHandler+0x112>
#if USE_HAL_CAN_REGISTER_CALLBACKS == 1
        /* Call registered callback*/
        hcan->TxMailbox2CompleteCallback(hcan);
#else
        /* Call weak (surcharged) callback */
        HAL_CAN_TxMailbox2CompleteCallback(hcan);
 8003926:	6878      	ldr	r0, [r7, #4]
 8003928:	f000 f943 	bl	8003bb2 <HAL_CAN_TxMailbox2CompleteCallback>
 800392c:	e016      	b.n	800395c <HAL_CAN_IRQHandler+0x140>
#endif /* USE_HAL_CAN_REGISTER_CALLBACKS */
      }
      else
      {
        if ((tsrflags & CAN_TSR_ALST2) != 0U)
 800392e:	69bb      	ldr	r3, [r7, #24]
 8003930:	f403 2380 	and.w	r3, r3, #262144	; 0x40000
 8003934:	2b00      	cmp	r3, #0
 8003936:	d004      	beq.n	8003942 <HAL_CAN_IRQHandler+0x126>
        {
          /* Update error code */
          errorcode |= HAL_CAN_ERROR_TX_ALST2;
 8003938:	6a7b      	ldr	r3, [r7, #36]	; 0x24
 800393a:	f443 4300 	orr.w	r3, r3, #32768	; 0x8000
 800393e:	627b      	str	r3, [r7, #36]	; 0x24
 8003940:	e00c      	b.n	800395c <HAL_CAN_IRQHandler+0x140>
        }
        else if ((tsrflags & CAN_TSR_TERR2) != 0U)
 8003942:	69bb      	ldr	r3, [r7, #24]
 8003944:	f403 2300 	and.w	r3, r3, #524288	; 0x80000
 8003948:	2b00      	cmp	r3, #0
 800394a:	d004      	beq.n	8003956 <HAL_CAN_IRQHandler+0x13a>
        {
          /* Update error code */
          errorcode |= HAL_CAN_ERROR_TX_TERR2;
 800394c:	6a7b      	ldr	r3, [r7, #36]	; 0x24
 800394e:	f443 3380 	orr.w	r3, r3, #65536	; 0x10000
 8003952:	627b      	str	r3, [r7, #36]	; 0x24
 8003954:	e002      	b.n	800395c <HAL_CAN_IRQHandler+0x140>
#if USE_HAL_CAN_REGISTER_CALLBACKS == 1
          /* Call registered callback*/
          hcan->TxMailbox2AbortCallback(hcan);
#else
          /* Call weak (surcharged) callback */
          HAL_CAN_TxMailbox2AbortCallback(hcan);
 8003956:	6878      	ldr	r0, [r7, #4]
 8003958:	f000 f949 	bl	8003bee <HAL_CAN_TxMailbox2AbortCallback>
      }
    }
  }

  /* Receive FIFO 0 overrun interrupt management *****************************/
  if ((interrupts & CAN_IT_RX_FIFO0_OVERRUN) != 0U)
 800395c:	6a3b      	ldr	r3, [r7, #32]
 800395e:	f003 0308 	and.w	r3, r3, #8
 8003962:	2b00      	cmp	r3, #0
 8003964:	d00c      	beq.n	8003980 <HAL_CAN_IRQHandler+0x164>
  {
    if ((rf0rflags & CAN_RF0R_FOVR0) != 0U)
 8003966:	697b      	ldr	r3, [r7, #20]
 8003968:	f003 0310 	and.w	r3, r3, #16
 800396c:	2b00      	cmp	r3, #0
 800396e:	d007      	beq.n	8003980 <HAL_CAN_IRQHandler+0x164>
    {
      /* Set CAN error code to Rx Fifo 0 overrun error */
      errorcode |= HAL_CAN_ERROR_RX_FOV0;
 8003970:	6a7b      	ldr	r3, [r7, #36]	; 0x24
 8003972:	f443 7300 	orr.w	r3, r3, #512	; 0x200
 8003976:	627b      	str	r3, [r7, #36]	; 0x24

      /* Clear FIFO0 Overrun Flag */
      __HAL_CAN_CLEAR_FLAG(hcan, CAN_FLAG_FOV0);
 8003978:	687b      	ldr	r3, [r7, #4]
 800397a:	681b      	ldr	r3, [r3, #0]
 800397c:	2210      	movs	r2, #16
 800397e:	60da      	str	r2, [r3, #12]
    }
  }

  /* Receive FIFO 0 full interrupt management ********************************/
  if ((interrupts & CAN_IT_RX_FIFO0_FULL) != 0U)
 8003980:	6a3b      	ldr	r3, [r7, #32]
 8003982:	f003 0304 	and.w	r3, r3, #4
 8003986:	2b00      	cmp	r3, #0
 8003988:	d00b      	beq.n	80039a2 <HAL_CAN_IRQHandler+0x186>
  {
    if ((rf0rflags & CAN_RF0R_FULL0) != 0U)
 800398a:	697b      	ldr	r3, [r7, #20]
 800398c:	f003 0308 	and.w	r3, r3, #8
 8003990:	2b00      	cmp	r3, #0
 8003992:	d006      	beq.n	80039a2 <HAL_CAN_IRQHandler+0x186>
    {
      /* Clear FIFO 0 full Flag */
      __HAL_CAN_CLEAR_FLAG(hcan, CAN_FLAG_FF0);
 8003994:	687b      	ldr	r3, [r7, #4]
 8003996:	681b      	ldr	r3, [r3, #0]
 8003998:	2208      	movs	r2, #8
 800399a:	60da      	str	r2, [r3, #12]
#if USE_HAL_CAN_REGISTER_CALLBACKS == 1
      /* Call registered callback*/
      hcan->RxFifo0FullCallback(hcan);
#else
      /* Call weak (surcharged) callback */
      HAL_CAN_RxFifo0FullCallback(hcan);
 800399c:	6878      	ldr	r0, [r7, #4]
 800399e:	f000 f930 	bl	8003c02 <HAL_CAN_RxFifo0FullCallback>
#endif /* USE_HAL_CAN_REGISTER_CALLBACKS */
    }
  }

  /* Receive FIFO 0 message pending interrupt management *********************/
  if ((interrupts & CAN_IT_RX_FIFO0_MSG_PENDING) != 0U)
 80039a2:	6a3b      	ldr	r3, [r7, #32]
 80039a4:	f003 0302 	and.w	r3, r3, #2
 80039a8:	2b00      	cmp	r3, #0
 80039aa:	d009      	beq.n	80039c0 <HAL_CAN_IRQHandler+0x1a4>
  {
    /* Check if message is still pending */
    if ((hcan->Instance->RF0R & CAN_RF0R_FMP0) != 0U)
 80039ac:	687b      	ldr	r3, [r7, #4]
 80039ae:	681b      	ldr	r3, [r3, #0]
 80039b0:	68db      	ldr	r3, [r3, #12]
 80039b2:	f003 0303 	and.w	r3, r3, #3
 80039b6:	2b00      	cmp	r3, #0
 80039b8:	d002      	beq.n	80039c0 <HAL_CAN_IRQHandler+0x1a4>
#if USE_HAL_CAN_REGISTER_CALLBACKS == 1
      /* Call registered callback*/
      hcan->RxFifo0MsgPendingCallback(hcan);
#else
      /* Call weak (surcharged) callback */
      HAL_CAN_RxFifo0MsgPendingCallback(hcan);
 80039ba:	6878      	ldr	r0, [r7, #4]
 80039bc:	f7ff f970 	bl	8002ca0 <HAL_CAN_RxFifo0MsgPendingCallback>
#endif /* USE_HAL_CAN_REGISTER_CALLBACKS */
    }
  }

  /* Receive FIFO 1 overrun interrupt management *****************************/
  if ((interrupts & CAN_IT_RX_FIFO1_OVERRUN) != 0U)
 80039c0:	6a3b      	ldr	r3, [r7, #32]
 80039c2:	f003 0340 	and.w	r3, r3, #64	; 0x40
 80039c6:	2b00      	cmp	r3, #0
 80039c8:	d00c      	beq.n	80039e4 <HAL_CAN_IRQHandler+0x1c8>
  {
    if ((rf1rflags & CAN_RF1R_FOVR1) != 0U)
 80039ca:	693b      	ldr	r3, [r7, #16]
 80039cc:	f003 0310 	and.w	r3, r3, #16
 80039d0:	2b00      	cmp	r3, #0
 80039d2:	d007      	beq.n	80039e4 <HAL_CAN_IRQHandler+0x1c8>
    {
      /* Set CAN error code to Rx Fifo 1 overrun error */
      errorcode |= HAL_CAN_ERROR_RX_FOV1;
 80039d4:	6a7b      	ldr	r3, [r7, #36]	; 0x24
 80039d6:	f443 6380 	orr.w	r3, r3, #1024	; 0x400
 80039da:	627b      	str	r3, [r7, #36]	; 0x24

      /* Clear FIFO1 Overrun Flag */
      __HAL_CAN_CLEAR_FLAG(hcan, CAN_FLAG_FOV1);
 80039dc:	687b      	ldr	r3, [r7, #4]
 80039de:	681b      	ldr	r3, [r3, #0]
 80039e0:	2210      	movs	r2, #16
 80039e2:	611a      	str	r2, [r3, #16]
    }
  }

  /* Receive FIFO 1 full interrupt management ********************************/
  if ((interrupts & CAN_IT_RX_FIFO1_FULL) != 0U)
 80039e4:	6a3b      	ldr	r3, [r7, #32]
 80039e6:	f003 0320 	and.w	r3, r3, #32
 80039ea:	2b00      	cmp	r3, #0
 80039ec:	d00b      	beq.n	8003a06 <HAL_CAN_IRQHandler+0x1ea>
  {
    if ((rf1rflags & CAN_RF1R_FULL1) != 0U)
 80039ee:	693b      	ldr	r3, [r7, #16]
 80039f0:	f003 0308 	and.w	r3, r3, #8
 80039f4:	2b00      	cmp	r3, #0
 80039f6:	d006      	beq.n	8003a06 <HAL_CAN_IRQHandler+0x1ea>
    {
      /* Clear FIFO 1 full Flag */
      __HAL_CAN_CLEAR_FLAG(hcan, CAN_FLAG_FF1);
 80039f8:	687b      	ldr	r3, [r7, #4]
 80039fa:	681b      	ldr	r3, [r3, #0]
 80039fc:	2208      	movs	r2, #8
 80039fe:	611a      	str	r2, [r3, #16]
#if USE_HAL_CAN_REGISTER_CALLBACKS == 1
      /* Call registered callback*/
      hcan->RxFifo1FullCallback(hcan);
#else
      /* Call weak (surcharged) callback */
      HAL_CAN_RxFifo1FullCallback(hcan);
 8003a00:	6878      	ldr	r0, [r7, #4]
 8003a02:	f000 f912 	bl	8003c2a <HAL_CAN_RxFifo1FullCallback>
#endif /* USE_HAL_CAN_REGISTER_CALLBACKS */
    }
  }

  /* Receive FIFO 1 message pending interrupt management *********************/
  if ((interrupts & CAN_IT_RX_FIFO1_MSG_PENDING) != 0U)
 8003a06:	6a3b      	ldr	r3, [r7, #32]
 8003a08:	f003 0310 	and.w	r3, r3, #16
 8003a0c:	2b00      	cmp	r3, #0
 8003a0e:	d009      	beq.n	8003a24 <HAL_CAN_IRQHandler+0x208>
  {
    /* Check if message is still pending */
    if ((hcan->Instance->RF1R & CAN_RF1R_FMP1) != 0U)
 8003a10:	687b      	ldr	r3, [r7, #4]
 8003a12:	681b      	ldr	r3, [r3, #0]
 8003a14:	691b      	ldr	r3, [r3, #16]
 8003a16:	f003 0303 	and.w	r3, r3, #3
 8003a1a:	2b00      	cmp	r3, #0
 8003a1c:	d002      	beq.n	8003a24 <HAL_CAN_IRQHandler+0x208>
#if USE_HAL_CAN_REGISTER_CALLBACKS == 1
      /* Call registered callback*/
      hcan->RxFifo1MsgPendingCallback(hcan);
#else
      /* Call weak (surcharged) callback */
      HAL_CAN_RxFifo1MsgPendingCallback(hcan);
 8003a1e:	6878      	ldr	r0, [r7, #4]
 8003a20:	f000 f8f9 	bl	8003c16 <HAL_CAN_RxFifo1MsgPendingCallback>
#endif /* USE_HAL_CAN_REGISTER_CALLBACKS */
    }
  }

  /* Sleep interrupt management *********************************************/
  if ((interrupts & CAN_IT_SLEEP_ACK) != 0U)
 8003a24:	6a3b      	ldr	r3, [r7, #32]
 8003a26:	f403 3300 	and.w	r3, r3, #131072	; 0x20000
 8003a2a:	2b00      	cmp	r3, #0
 8003a2c:	d00b      	beq.n	8003a46 <HAL_CAN_IRQHandler+0x22a>
  {
    if ((msrflags & CAN_MSR_SLAKI) != 0U)
 8003a2e:	69fb      	ldr	r3, [r7, #28]
 8003a30:	f003 0310 	and.w	r3, r3, #16
 8003a34:	2b00      	cmp	r3, #0
 8003a36:	d006      	beq.n	8003a46 <HAL_CAN_IRQHandler+0x22a>
    {
      /* Clear Sleep interrupt Flag */
      __HAL_CAN_CLEAR_FLAG(hcan, CAN_FLAG_SLAKI);
 8003a38:	687b      	ldr	r3, [r7, #4]
 8003a3a:	681b      	ldr	r3, [r3, #0]
 8003a3c:	2210      	movs	r2, #16
 8003a3e:	605a      	str	r2, [r3, #4]
#if USE_HAL_CAN_REGISTER_CALLBACKS == 1
      /* Call registered callback*/
      hcan->SleepCallback(hcan);
#else
      /* Call weak (surcharged) callback */
      HAL_CAN_SleepCallback(hcan);
 8003a40:	6878      	ldr	r0, [r7, #4]
 8003a42:	f000 f8fc 	bl	8003c3e <HAL_CAN_SleepCallback>
#endif /* USE_HAL_CAN_REGISTER_CALLBACKS */
    }
  }

  /* WakeUp interrupt management *********************************************/
  if ((interrupts & CAN_IT_WAKEUP) != 0U)
 8003a46:	6a3b      	ldr	r3, [r7, #32]
 8003a48:	f403 3380 	and.w	r3, r3, #65536	; 0x10000
 8003a4c:	2b00      	cmp	r3, #0
 8003a4e:	d00b      	beq.n	8003a68 <HAL_CAN_IRQHandler+0x24c>
  {
    if ((msrflags & CAN_MSR_WKUI) != 0U)
 8003a50:	69fb      	ldr	r3, [r7, #28]
 8003a52:	f003 0308 	and.w	r3, r3, #8
 8003a56:	2b00      	cmp	r3, #0
 8003a58:	d006      	beq.n	8003a68 <HAL_CAN_IRQHandler+0x24c>
    {
      /* Clear WakeUp Flag */
      __HAL_CAN_CLEAR_FLAG(hcan, CAN_FLAG_WKU);
 8003a5a:	687b      	ldr	r3, [r7, #4]
 8003a5c:	681b      	ldr	r3, [r3, #0]
 8003a5e:	2208      	movs	r2, #8
 8003a60:	605a      	str	r2, [r3, #4]
#if USE_HAL_CAN_REGISTER_CALLBACKS == 1
      /* Call registered callback*/
      hcan->WakeUpFromRxMsgCallback(hcan);
#else
      /* Call weak (surcharged) callback */
      HAL_CAN_WakeUpFromRxMsgCallback(hcan);
 8003a62:	6878      	ldr	r0, [r7, #4]
 8003a64:	f000 f8f5 	bl	8003c52 <HAL_CAN_WakeUpFromRxMsgCallback>
#endif /* USE_HAL_CAN_REGISTER_CALLBACKS */
    }
  }

  /* Error interrupts management *********************************************/
  if ((interrupts & CAN_IT_ERROR) != 0U)
 8003a68:	6a3b      	ldr	r3, [r7, #32]
 8003a6a:	f403 4300 	and.w	r3, r3, #32768	; 0x8000
 8003a6e:	2b00      	cmp	r3, #0
 8003a70:	d07b      	beq.n	8003b6a <HAL_CAN_IRQHandler+0x34e>
  {
    if ((msrflags & CAN_MSR_ERRI) != 0U)
 8003a72:	69fb      	ldr	r3, [r7, #28]
 8003a74:	f003 0304 	and.w	r3, r3, #4
 8003a78:	2b00      	cmp	r3, #0
 8003a7a:	d072      	beq.n	8003b62 <HAL_CAN_IRQHandler+0x346>
    {
      /* Check Error Warning Flag */
      if (((interrupts & CAN_IT_ERROR_WARNING) != 0U) &&
 8003a7c:	6a3b      	ldr	r3, [r7, #32]
 8003a7e:	f403 7380 	and.w	r3, r3, #256	; 0x100
 8003a82:	2b00      	cmp	r3, #0
 8003a84:	d008      	beq.n	8003a98 <HAL_CAN_IRQHandler+0x27c>
          ((esrflags & CAN_ESR_EWGF) != 0U))
 8003a86:	68fb      	ldr	r3, [r7, #12]
 8003a88:	f003 0301 	and.w	r3, r3, #1
      if (((interrupts & CAN_IT_ERROR_WARNING) != 0U) &&
 8003a8c:	2b00      	cmp	r3, #0
 8003a8e:	d003      	beq.n	8003a98 <HAL_CAN_IRQHandler+0x27c>
      {
        /* Set CAN error code to Error Warning */
        errorcode |= HAL_CAN_ERROR_EWG;
 8003a90:	6a7b      	ldr	r3, [r7, #36]	; 0x24
 8003a92:	f043 0301 	orr.w	r3, r3, #1
 8003a96:	627b      	str	r3, [r7, #36]	; 0x24

        /* No need for clear of Error Warning Flag as read-only */
      }

      /* Check Error Passive Flag */
      if (((interrupts & CAN_IT_ERROR_PASSIVE) != 0U) &&
 8003a98:	6a3b      	ldr	r3, [r7, #32]
 8003a9a:	f403 7300 	and.w	r3, r3, #512	; 0x200
 8003a9e:	2b00      	cmp	r3, #0
 8003aa0:	d008      	beq.n	8003ab4 <HAL_CAN_IRQHandler+0x298>
          ((esrflags & CAN_ESR_EPVF) != 0U))
 8003aa2:	68fb      	ldr	r3, [r7, #12]
 8003aa4:	f003 0302 	and.w	r3, r3, #2
      if (((interrupts & CAN_IT_ERROR_PASSIVE) != 0U) &&
 8003aa8:	2b00      	cmp	r3, #0
 8003aaa:	d003      	beq.n	8003ab4 <HAL_CAN_IRQHandler+0x298>
      {
        /* Set CAN error code to Error Passive */
        errorcode |= HAL_CAN_ERROR_EPV;
 8003aac:	6a7b      	ldr	r3, [r7, #36]	; 0x24
 8003aae:	f043 0302 	orr.w	r3, r3, #2
 8003ab2:	627b      	str	r3, [r7, #36]	; 0x24

        /* No need for clear of Error Passive Flag as read-only */
      }

      /* Check Bus-off Flag */
      if (((interrupts & CAN_IT_BUSOFF) != 0U) &&
 8003ab4:	6a3b      	ldr	r3, [r7, #32]
 8003ab6:	f403 6380 	and.w	r3, r3, #1024	; 0x400
 8003aba:	2b00      	cmp	r3, #0
 8003abc:	d008      	beq.n	8003ad0 <HAL_CAN_IRQHandler+0x2b4>
          ((esrflags & CAN_ESR_BOFF) != 0U))
 8003abe:	68fb      	ldr	r3, [r7, #12]
 8003ac0:	f003 0304 	and.w	r3, r3, #4
      if (((interrupts & CAN_IT_BUSOFF) != 0U) &&
 8003ac4:	2b00      	cmp	r3, #0
 8003ac6:	d003      	beq.n	8003ad0 <HAL_CAN_IRQHandler+0x2b4>
      {
        /* Set CAN error code to Bus-Off */
        errorcode |= HAL_CAN_ERROR_BOF;
 8003ac8:	6a7b      	ldr	r3, [r7, #36]	; 0x24
 8003aca:	f043 0304 	orr.w	r3, r3, #4
 8003ace:	627b      	str	r3, [r7, #36]	; 0x24

        /* No need for clear of Error Bus-Off as read-only */
      }

      /* Check Last Error Code Flag */
      if (((interrupts & CAN_IT_LAST_ERROR_CODE) != 0U) &&
 8003ad0:	6a3b      	ldr	r3, [r7, #32]
 8003ad2:	f403 6300 	and.w	r3, r3, #2048	; 0x800
 8003ad6:	2b00      	cmp	r3, #0
 8003ad8:	d043      	beq.n	8003b62 <HAL_CAN_IRQHandler+0x346>
          ((esrflags & CAN_ESR_LEC) != 0U))
 8003ada:	68fb      	ldr	r3, [r7, #12]
 8003adc:	f003 0370 	and.w	r3, r3, #112	; 0x70
      if (((interrupts & CAN_IT_LAST_ERROR_CODE) != 0U) &&
 8003ae0:	2b00      	cmp	r3, #0
 8003ae2:	d03e      	beq.n	8003b62 <HAL_CAN_IRQHandler+0x346>
      {
        switch (esrflags & CAN_ESR_LEC)
 8003ae4:	68fb      	ldr	r3, [r7, #12]
 8003ae6:	f003 0370 	and.w	r3, r3, #112	; 0x70
 8003aea:	2b60      	cmp	r3, #96	; 0x60
 8003aec:	d02b      	beq.n	8003b46 <HAL_CAN_IRQHandler+0x32a>
 8003aee:	2b60      	cmp	r3, #96	; 0x60
 8003af0:	d82e      	bhi.n	8003b50 <HAL_CAN_IRQHandler+0x334>
 8003af2:	2b50      	cmp	r3, #80	; 0x50
 8003af4:	d022      	beq.n	8003b3c <HAL_CAN_IRQHandler+0x320>
 8003af6:	2b50      	cmp	r3, #80	; 0x50
 8003af8:	d82a      	bhi.n	8003b50 <HAL_CAN_IRQHandler+0x334>
 8003afa:	2b40      	cmp	r3, #64	; 0x40
 8003afc:	d019      	beq.n	8003b32 <HAL_CAN_IRQHandler+0x316>
 8003afe:	2b40      	cmp	r3, #64	; 0x40
 8003b00:	d826      	bhi.n	8003b50 <HAL_CAN_IRQHandler+0x334>
 8003b02:	2b30      	cmp	r3, #48	; 0x30
 8003b04:	d010      	beq.n	8003b28 <HAL_CAN_IRQHandler+0x30c>
 8003b06:	2b30      	cmp	r3, #48	; 0x30
 8003b08:	d822      	bhi.n	8003b50 <HAL_CAN_IRQHandler+0x334>
 8003b0a:	2b10      	cmp	r3, #16
 8003b0c:	d002      	beq.n	8003b14 <HAL_CAN_IRQHandler+0x2f8>
 8003b0e:	2b20      	cmp	r3, #32
 8003b10:	d005      	beq.n	8003b1e <HAL_CAN_IRQHandler+0x302>
          case (CAN_ESR_LEC_2 | CAN_ESR_LEC_1):
            /* Set CAN error code to CRC error */
            errorcode |= HAL_CAN_ERROR_CRC;
            break;
          default:
            break;
 8003b12:	e01d      	b.n	8003b50 <HAL_CAN_IRQHandler+0x334>
            errorcode |= HAL_CAN_ERROR_STF;
 8003b14:	6a7b      	ldr	r3, [r7, #36]	; 0x24
 8003b16:	f043 0308 	orr.w	r3, r3, #8
 8003b1a:	627b      	str	r3, [r7, #36]	; 0x24
            break;
 8003b1c:	e019      	b.n	8003b52 <HAL_CAN_IRQHandler+0x336>
            errorcode |= HAL_CAN_ERROR_FOR;
 8003b1e:	6a7b      	ldr	r3, [r7, #36]	; 0x24
 8003b20:	f043 0310 	orr.w	r3, r3, #16
 8003b24:	627b      	str	r3, [r7, #36]	; 0x24
            break;
 8003b26:	e014      	b.n	8003b52 <HAL_CAN_IRQHandler+0x336>
            errorcode |= HAL_CAN_ERROR_ACK;
 8003b28:	6a7b      	ldr	r3, [r7, #36]	; 0x24
 8003b2a:	f043 0320 	orr.w	r3, r3, #32
 8003b2e:	627b      	str	r3, [r7, #36]	; 0x24
            break;
 8003b30:	e00f      	b.n	8003b52 <HAL_CAN_IRQHandler+0x336>
            errorcode |= HAL_CAN_ERROR_BR;
 8003b32:	6a7b      	ldr	r3, [r7, #36]	; 0x24
 8003b34:	f043 0340 	orr.w	r3, r3, #64	; 0x40
 8003b38:	627b      	str	r3, [r7, #36]	; 0x24
            break;
 8003b3a:	e00a      	b.n	8003b52 <HAL_CAN_IRQHandler+0x336>
            errorcode |= HAL_CAN_ERROR_BD;
 8003b3c:	6a7b      	ldr	r3, [r7, #36]	; 0x24
 8003b3e:	f043 0380 	orr.w	r3, r3, #128	; 0x80
 8003b42:	627b      	str	r3, [r7, #36]	; 0x24
            break;
 8003b44:	e005      	b.n	8003b52 <HAL_CAN_IRQHandler+0x336>
            errorcode |= HAL_CAN_ERROR_CRC;
 8003b46:	6a7b      	ldr	r3, [r7, #36]	; 0x24
 8003b48:	f443 7380 	orr.w	r3, r3, #256	; 0x100
 8003b4c:	627b      	str	r3, [r7, #36]	; 0x24
            break;
 8003b4e:	e000      	b.n	8003b52 <HAL_CAN_IRQHandler+0x336>
            break;
 8003b50:	bf00      	nop
        }

        /* Clear Last error code Flag */
        CLEAR_BIT(hcan->Instance->ESR, CAN_ESR_LEC);
 8003b52:	687b      	ldr	r3, [r7, #4]
 8003b54:	681b      	ldr	r3, [r3, #0]
 8003b56:	699a      	ldr	r2, [r3, #24]
 8003b58:	687b      	ldr	r3, [r7, #4]
 8003b5a:	681b      	ldr	r3, [r3, #0]
 8003b5c:	f022 0270 	bic.w	r2, r2, #112	; 0x70
 8003b60:	619a      	str	r2, [r3, #24]
      }
    }

    /* Clear ERRI Flag */
    __HAL_CAN_CLEAR_FLAG(hcan, CAN_FLAG_ERRI);
 8003b62:	687b      	ldr	r3, [r7, #4]
 8003b64:	681b      	ldr	r3, [r3, #0]
 8003b66:	2204      	movs	r2, #4
 8003b68:	605a      	str	r2, [r3, #4]
  }

  /* Call the Error call Back in case of Errors */
  if (errorcode != HAL_CAN_ERROR_NONE)
 8003b6a:	6a7b      	ldr	r3, [r7, #36]	; 0x24
 8003b6c:	2b00      	cmp	r3, #0
 8003b6e:	d008      	beq.n	8003b82 <HAL_CAN_IRQHandler+0x366>
  {
    /* Update error code in handle */
    hcan->ErrorCode |= errorcode;
 8003b70:	687b      	ldr	r3, [r7, #4]
 8003b72:	6a5a      	ldr	r2, [r3, #36]	; 0x24
 8003b74:	6a7b      	ldr	r3, [r7, #36]	; 0x24
 8003b76:	431a      	orrs	r2, r3
 8003b78:	687b      	ldr	r3, [r7, #4]
 8003b7a:	625a      	str	r2, [r3, #36]	; 0x24
#if USE_HAL_CAN_REGISTER_CALLBACKS == 1
    /* Call registered callback*/
    hcan->ErrorCallback(hcan);
#else
    /* Call weak (surcharged) callback */
    HAL_CAN_ErrorCallback(hcan);
 8003b7c:	6878      	ldr	r0, [r7, #4]
 8003b7e:	f000 f872 	bl	8003c66 <HAL_CAN_ErrorCallback>
#endif /* USE_HAL_CAN_REGISTER_CALLBACKS */
  }
}
 8003b82:	bf00      	nop
 8003b84:	3728      	adds	r7, #40	; 0x28
 8003b86:	46bd      	mov	sp, r7
 8003b88:	bd80      	pop	{r7, pc}

08003b8a <HAL_CAN_TxMailbox0CompleteCallback>:
  * @param  hcan pointer to a CAN_HandleTypeDef structure that contains
  *         the configuration information for the specified CAN.
  * @retval None
  */
__weak void HAL_CAN_TxMailbox0CompleteCallback(CAN_HandleTypeDef *hcan)
{
 8003b8a:	b480      	push	{r7}
 8003b8c:	b083      	sub	sp, #12
 8003b8e:	af00      	add	r7, sp, #0
 8003b90:	6078      	str	r0, [r7, #4]

  /* NOTE : This function Should not be modified, when the callback is needed,
            the HAL_CAN_TxMailbox0CompleteCallback could be implemented in the
            user file
   */
}
 8003b92:	bf00      	nop
 8003b94:	370c      	adds	r7, #12
 8003b96:	46bd      	mov	sp, r7
 8003b98:	f85d 7b04 	ldr.w	r7, [sp], #4
 8003b9c:	4770      	bx	lr

08003b9e <HAL_CAN_TxMailbox1CompleteCallback>:
  * @param  hcan pointer to a CAN_HandleTypeDef structure that contains
  *         the configuration information for the specified CAN.
  * @retval None
  */
__weak void HAL_CAN_TxMailbox1CompleteCallback(CAN_HandleTypeDef *hcan)
{
 8003b9e:	b480      	push	{r7}
 8003ba0:	b083      	sub	sp, #12
 8003ba2:	af00      	add	r7, sp, #0
 8003ba4:	6078      	str	r0, [r7, #4]

  /* NOTE : This function Should not be modified, when the callback is needed,
            the HAL_CAN_TxMailbox1CompleteCallback could be implemented in the
            user file
   */
}
 8003ba6:	bf00      	nop
 8003ba8:	370c      	adds	r7, #12
 8003baa:	46bd      	mov	sp, r7
 8003bac:	f85d 7b04 	ldr.w	r7, [sp], #4
 8003bb0:	4770      	bx	lr

08003bb2 <HAL_CAN_TxMailbox2CompleteCallback>:
  * @param  hcan pointer to a CAN_HandleTypeDef structure that contains
  *         the configuration information for the specified CAN.
  * @retval None
  */
__weak void HAL_CAN_TxMailbox2CompleteCallback(CAN_HandleTypeDef *hcan)
{
 8003bb2:	b480      	push	{r7}
 8003bb4:	b083      	sub	sp, #12
 8003bb6:	af00      	add	r7, sp, #0
 8003bb8:	6078      	str	r0, [r7, #4]

  /* NOTE : This function Should not be modified, when the callback is needed,
            the HAL_CAN_TxMailbox2CompleteCallback could be implemented in the
            user file
   */
}
 8003bba:	bf00      	nop
 8003bbc:	370c      	adds	r7, #12
 8003bbe:	46bd      	mov	sp, r7
 8003bc0:	f85d 7b04 	ldr.w	r7, [sp], #4
 8003bc4:	4770      	bx	lr

08003bc6 <HAL_CAN_TxMailbox0AbortCallback>:
  * @param  hcan pointer to an CAN_HandleTypeDef structure that contains
  *         the configuration information for the specified CAN.
  * @retval None
  */
__weak void HAL_CAN_TxMailbox0AbortCallback(CAN_HandleTypeDef *hcan)
{
 8003bc6:	b480      	push	{r7}
 8003bc8:	b083      	sub	sp, #12
 8003bca:	af00      	add	r7, sp, #0
 8003bcc:	6078      	str	r0, [r7, #4]

  /* NOTE : This function Should not be modified, when the callback is needed,
            the HAL_CAN_TxMailbox0AbortCallback could be implemented in the
            user file
   */
}
 8003bce:	bf00      	nop
 8003bd0:	370c      	adds	r7, #12
 8003bd2:	46bd      	mov	sp, r7
 8003bd4:	f85d 7b04 	ldr.w	r7, [sp], #4
 8003bd8:	4770      	bx	lr

08003bda <HAL_CAN_TxMailbox1AbortCallback>:
  * @param  hcan pointer to an CAN_HandleTypeDef structure that contains
  *         the configuration information for the specified CAN.
  * @retval None
  */
__weak void HAL_CAN_TxMailbox1AbortCallback(CAN_HandleTypeDef *hcan)
{
 8003bda:	b480      	push	{r7}
 8003bdc:	b083      	sub	sp, #12
 8003bde:	af00      	add	r7, sp, #0
 8003be0:	6078      	str	r0, [r7, #4]

  /* NOTE : This function Should not be modified, when the callback is needed,
            the HAL_CAN_TxMailbox1AbortCallback could be implemented in the
            user file
   */
}
 8003be2:	bf00      	nop
 8003be4:	370c      	adds	r7, #12
 8003be6:	46bd      	mov	sp, r7
 8003be8:	f85d 7b04 	ldr.w	r7, [sp], #4
 8003bec:	4770      	bx	lr

08003bee <HAL_CAN_TxMailbox2AbortCallback>:
  * @param  hcan pointer to an CAN_HandleTypeDef structure that contains
  *         the configuration information for the specified CAN.
  * @retval None
  */
__weak void HAL_CAN_TxMailbox2AbortCallback(CAN_HandleTypeDef *hcan)
{
 8003bee:	b480      	push	{r7}
 8003bf0:	b083      	sub	sp, #12
 8003bf2:	af00      	add	r7, sp, #0
 8003bf4:	6078      	str	r0, [r7, #4]

  /* NOTE : This function Should not be modified, when the callback is needed,
            the HAL_CAN_TxMailbox2AbortCallback could be implemented in the
            user file
   */
}
 8003bf6:	bf00      	nop
 8003bf8:	370c      	adds	r7, #12
 8003bfa:	46bd      	mov	sp, r7
 8003bfc:	f85d 7b04 	ldr.w	r7, [sp], #4
 8003c00:	4770      	bx	lr

08003c02 <HAL_CAN_RxFifo0FullCallback>:
  * @param  hcan pointer to a CAN_HandleTypeDef structure that contains
  *         the configuration information for the specified CAN.
  * @retval None
  */
__weak void HAL_CAN_RxFifo0FullCallback(CAN_HandleTypeDef *hcan)
{
 8003c02:	b480      	push	{r7}
 8003c04:	b083      	sub	sp, #12
 8003c06:	af00      	add	r7, sp, #0
 8003c08:	6078      	str	r0, [r7, #4]

  /* NOTE : This function Should not be modified, when the callback is needed,
            the HAL_CAN_RxFifo0FullCallback could be implemented in the user
            file
   */
}
 8003c0a:	bf00      	nop
 8003c0c:	370c      	adds	r7, #12
 8003c0e:	46bd      	mov	sp, r7
 8003c10:	f85d 7b04 	ldr.w	r7, [sp], #4
 8003c14:	4770      	bx	lr

08003c16 <HAL_CAN_RxFifo1MsgPendingCallback>:
  * @param  hcan pointer to a CAN_HandleTypeDef structure that contains
  *         the configuration information for the specified CAN.
  * @retval None
  */
__weak void HAL_CAN_RxFifo1MsgPendingCallback(CAN_HandleTypeDef *hcan)
{
 8003c16:	b480      	push	{r7}
 8003c18:	b083      	sub	sp, #12
 8003c1a:	af00      	add	r7, sp, #0
 8003c1c:	6078      	str	r0, [r7, #4]

  /* NOTE : This function Should not be modified, when the callback is needed,
            the HAL_CAN_RxFifo1MsgPendingCallback could be implemented in the
            user file
   */
}
 8003c1e:	bf00      	nop
 8003c20:	370c      	adds	r7, #12
 8003c22:	46bd      	mov	sp, r7
 8003c24:	f85d 7b04 	ldr.w	r7, [sp], #4
 8003c28:	4770      	bx	lr

08003c2a <HAL_CAN_RxFifo1FullCallback>:
  * @param  hcan pointer to a CAN_HandleTypeDef structure that contains
  *         the configuration information for the specified CAN.
  * @retval None
  */
__weak void HAL_CAN_RxFifo1FullCallback(CAN_HandleTypeDef *hcan)
{
 8003c2a:	b480      	push	{r7}
 8003c2c:	b083      	sub	sp, #12
 8003c2e:	af00      	add	r7, sp, #0
 8003c30:	6078      	str	r0, [r7, #4]

  /* NOTE : This function Should not be modified, when the callback is needed,
            the HAL_CAN_RxFifo1FullCallback could be implemented in the user
            file
   */
}
 8003c32:	bf00      	nop
 8003c34:	370c      	adds	r7, #12
 8003c36:	46bd      	mov	sp, r7
 8003c38:	f85d 7b04 	ldr.w	r7, [sp], #4
 8003c3c:	4770      	bx	lr

08003c3e <HAL_CAN_SleepCallback>:
  * @param  hcan pointer to a CAN_HandleTypeDef structure that contains
  *         the configuration information for the specified CAN.
  * @retval None
  */
__weak void HAL_CAN_SleepCallback(CAN_HandleTypeDef *hcan)
{
 8003c3e:	b480      	push	{r7}
 8003c40:	b083      	sub	sp, #12
 8003c42:	af00      	add	r7, sp, #0
 8003c44:	6078      	str	r0, [r7, #4]
  UNUSED(hcan);

  /* NOTE : This function Should not be modified, when the callback is needed,
            the HAL_CAN_SleepCallback could be implemented in the user file
   */
}
 8003c46:	bf00      	nop
 8003c48:	370c      	adds	r7, #12
 8003c4a:	46bd      	mov	sp, r7
 8003c4c:	f85d 7b04 	ldr.w	r7, [sp], #4
 8003c50:	4770      	bx	lr

08003c52 <HAL_CAN_WakeUpFromRxMsgCallback>:
  * @param  hcan pointer to a CAN_HandleTypeDef structure that contains
  *         the configuration information for the specified CAN.
  * @retval None
  */
__weak void HAL_CAN_WakeUpFromRxMsgCallback(CAN_HandleTypeDef *hcan)
{
 8003c52:	b480      	push	{r7}
 8003c54:	b083      	sub	sp, #12
 8003c56:	af00      	add	r7, sp, #0
 8003c58:	6078      	str	r0, [r7, #4]

  /* NOTE : This function Should not be modified, when the callback is needed,
            the HAL_CAN_WakeUpFromRxMsgCallback could be implemented in the
            user file
   */
}
 8003c5a:	bf00      	nop
 8003c5c:	370c      	adds	r7, #12
 8003c5e:	46bd      	mov	sp, r7
 8003c60:	f85d 7b04 	ldr.w	r7, [sp], #4
 8003c64:	4770      	bx	lr

08003c66 <HAL_CAN_ErrorCallback>:
  * @param  hcan pointer to a CAN_HandleTypeDef structure that contains
  *         the configuration information for the specified CAN.
  * @retval None
  */
__weak void HAL_CAN_ErrorCallback(CAN_HandleTypeDef *hcan)
{
 8003c66:	b480      	push	{r7}
 8003c68:	b083      	sub	sp, #12
 8003c6a:	af00      	add	r7, sp, #0
 8003c6c:	6078      	str	r0, [r7, #4]
  UNUSED(hcan);

  /* NOTE : This function Should not be modified, when the callback is needed,
            the HAL_CAN_ErrorCallback could be implemented in the user file
   */
}
 8003c6e:	bf00      	nop
 8003c70:	370c      	adds	r7, #12
 8003c72:	46bd      	mov	sp, r7
 8003c74:	f85d 7b04 	ldr.w	r7, [sp], #4
 8003c78:	4770      	bx	lr
	...

08003c7c <__NVIC_SetPriorityGrouping>:
           In case of a conflict between priority grouping and available
           priority bits (__NVIC_PRIO_BITS), the smallest possible priority group is set.
  \param [in]      PriorityGroup  Priority grouping field.
 */
__STATIC_INLINE void __NVIC_SetPriorityGrouping(uint32_t PriorityGroup)
{
 8003c7c:	b480      	push	{r7}
 8003c7e:	b085      	sub	sp, #20
 8003c80:	af00      	add	r7, sp, #0
 8003c82:	6078      	str	r0, [r7, #4]
  uint32_t reg_value;
  uint32_t PriorityGroupTmp = (PriorityGroup & (uint32_t)0x07UL);             /* only values 0..7 are used          */
 8003c84:	687b      	ldr	r3, [r7, #4]
 8003c86:	f003 0307 	and.w	r3, r3, #7
 8003c8a:	60fb      	str	r3, [r7, #12]

  reg_value  =  SCB->AIRCR;                                                   /* read old register configuration    */
 8003c8c:	4b0c      	ldr	r3, [pc, #48]	; (8003cc0 <__NVIC_SetPriorityGrouping+0x44>)
 8003c8e:	68db      	ldr	r3, [r3, #12]
 8003c90:	60bb      	str	r3, [r7, #8]
  reg_value &= ~((uint32_t)(SCB_AIRCR_VECTKEY_Msk | SCB_AIRCR_PRIGROUP_Msk)); /* clear bits to change               */
 8003c92:	68ba      	ldr	r2, [r7, #8]
 8003c94:	f64f 03ff 	movw	r3, #63743	; 0xf8ff
 8003c98:	4013      	ands	r3, r2
 8003c9a:	60bb      	str	r3, [r7, #8]
  reg_value  =  (reg_value                                   |
                ((uint32_t)0x5FAUL << SCB_AIRCR_VECTKEY_Pos) |
                (PriorityGroupTmp << SCB_AIRCR_PRIGROUP_Pos)  );              /* Insert write key and priority group */
 8003c9c:	68fb      	ldr	r3, [r7, #12]
 8003c9e:	021a      	lsls	r2, r3, #8
                ((uint32_t)0x5FAUL << SCB_AIRCR_VECTKEY_Pos) |
 8003ca0:	68bb      	ldr	r3, [r7, #8]
 8003ca2:	4313      	orrs	r3, r2
  reg_value  =  (reg_value                                   |
 8003ca4:	f043 63bf 	orr.w	r3, r3, #100139008	; 0x5f80000
 8003ca8:	f443 3300 	orr.w	r3, r3, #131072	; 0x20000
 8003cac:	60bb      	str	r3, [r7, #8]
  SCB->AIRCR =  reg_value;
 8003cae:	4a04      	ldr	r2, [pc, #16]	; (8003cc0 <__NVIC_SetPriorityGrouping+0x44>)
 8003cb0:	68bb      	ldr	r3, [r7, #8]
 8003cb2:	60d3      	str	r3, [r2, #12]
}
 8003cb4:	bf00      	nop
 8003cb6:	3714      	adds	r7, #20
 8003cb8:	46bd      	mov	sp, r7
 8003cba:	f85d 7b04 	ldr.w	r7, [sp], #4
 8003cbe:	4770      	bx	lr
 8003cc0:	e000ed00 	.word	0xe000ed00

08003cc4 <__NVIC_GetPriorityGrouping>:
  \brief   Get Priority Grouping
  \details Reads the priority grouping field from the NVIC Interrupt Controller.
  \return                Priority grouping field (SCB->AIRCR [10:8] PRIGROUP field).
 */
__STATIC_INLINE uint32_t __NVIC_GetPriorityGrouping(void)
{
 8003cc4:	b480      	push	{r7}
 8003cc6:	af00      	add	r7, sp, #0
  return ((uint32_t)((SCB->AIRCR & SCB_AIRCR_PRIGROUP_Msk) >> SCB_AIRCR_PRIGROUP_Pos));
 8003cc8:	4b04      	ldr	r3, [pc, #16]	; (8003cdc <__NVIC_GetPriorityGrouping+0x18>)
 8003cca:	68db      	ldr	r3, [r3, #12]
 8003ccc:	0a1b      	lsrs	r3, r3, #8
 8003cce:	f003 0307 	and.w	r3, r3, #7
}
 8003cd2:	4618      	mov	r0, r3
 8003cd4:	46bd      	mov	sp, r7
 8003cd6:	f85d 7b04 	ldr.w	r7, [sp], #4
 8003cda:	4770      	bx	lr
 8003cdc:	e000ed00 	.word	0xe000ed00

08003ce0 <__NVIC_EnableIRQ>:
  \details Enables a device specific interrupt in the NVIC interrupt controller.
  \param [in]      IRQn  Device specific interrupt number.
  \note    IRQn must not be negative.
 */
__STATIC_INLINE void __NVIC_EnableIRQ(IRQn_Type IRQn)
{
 8003ce0:	b480      	push	{r7}
 8003ce2:	b083      	sub	sp, #12
 8003ce4:	af00      	add	r7, sp, #0
 8003ce6:	4603      	mov	r3, r0
 8003ce8:	71fb      	strb	r3, [r7, #7]
  if ((int32_t)(IRQn) >= 0)
 8003cea:	f997 3007 	ldrsb.w	r3, [r7, #7]
 8003cee:	2b00      	cmp	r3, #0
 8003cf0:	db0b      	blt.n	8003d0a <__NVIC_EnableIRQ+0x2a>
  {
    __COMPILER_BARRIER();
    NVIC->ISER[(((uint32_t)IRQn) >> 5UL)] = (uint32_t)(1UL << (((uint32_t)IRQn) & 0x1FUL));
 8003cf2:	79fb      	ldrb	r3, [r7, #7]
 8003cf4:	f003 021f 	and.w	r2, r3, #31
 8003cf8:	4907      	ldr	r1, [pc, #28]	; (8003d18 <__NVIC_EnableIRQ+0x38>)
 8003cfa:	f997 3007 	ldrsb.w	r3, [r7, #7]
 8003cfe:	095b      	lsrs	r3, r3, #5
 8003d00:	2001      	movs	r0, #1
 8003d02:	fa00 f202 	lsl.w	r2, r0, r2
 8003d06:	f841 2023 	str.w	r2, [r1, r3, lsl #2]
    __COMPILER_BARRIER();
  }
}
 8003d0a:	bf00      	nop
 8003d0c:	370c      	adds	r7, #12
 8003d0e:	46bd      	mov	sp, r7
 8003d10:	f85d 7b04 	ldr.w	r7, [sp], #4
 8003d14:	4770      	bx	lr
 8003d16:	bf00      	nop
 8003d18:	e000e100 	.word	0xe000e100

08003d1c <__NVIC_SetPriority>:
  \param [in]      IRQn  Interrupt number.
  \param [in]  priority  Priority to set.
  \note    The priority cannot be set for every processor exception.
 */
__STATIC_INLINE void __NVIC_SetPriority(IRQn_Type IRQn, uint32_t priority)
{
 8003d1c:	b480      	push	{r7}
 8003d1e:	b083      	sub	sp, #12
 8003d20:	af00      	add	r7, sp, #0
 8003d22:	4603      	mov	r3, r0
 8003d24:	6039      	str	r1, [r7, #0]
 8003d26:	71fb      	strb	r3, [r7, #7]
  if ((int32_t)(IRQn) >= 0)
 8003d28:	f997 3007 	ldrsb.w	r3, [r7, #7]
 8003d2c:	2b00      	cmp	r3, #0
 8003d2e:	db0a      	blt.n	8003d46 <__NVIC_SetPriority+0x2a>
  {
    NVIC->IP[((uint32_t)IRQn)]               = (uint8_t)((priority << (8U - __NVIC_PRIO_BITS)) & (uint32_t)0xFFUL);
 8003d30:	683b      	ldr	r3, [r7, #0]
 8003d32:	b2da      	uxtb	r2, r3
 8003d34:	490c      	ldr	r1, [pc, #48]	; (8003d68 <__NVIC_SetPriority+0x4c>)
 8003d36:	f997 3007 	ldrsb.w	r3, [r7, #7]
 8003d3a:	0112      	lsls	r2, r2, #4
 8003d3c:	b2d2      	uxtb	r2, r2
 8003d3e:	440b      	add	r3, r1
 8003d40:	f883 2300 	strb.w	r2, [r3, #768]	; 0x300
  }
  else
  {
    SCB->SHP[(((uint32_t)IRQn) & 0xFUL)-4UL] = (uint8_t)((priority << (8U - __NVIC_PRIO_BITS)) & (uint32_t)0xFFUL);
  }
}
 8003d44:	e00a      	b.n	8003d5c <__NVIC_SetPriority+0x40>
    SCB->SHP[(((uint32_t)IRQn) & 0xFUL)-4UL] = (uint8_t)((priority << (8U - __NVIC_PRIO_BITS)) & (uint32_t)0xFFUL);
 8003d46:	683b      	ldr	r3, [r7, #0]
 8003d48:	b2da      	uxtb	r2, r3
 8003d4a:	4908      	ldr	r1, [pc, #32]	; (8003d6c <__NVIC_SetPriority+0x50>)
 8003d4c:	79fb      	ldrb	r3, [r7, #7]
 8003d4e:	f003 030f 	and.w	r3, r3, #15
 8003d52:	3b04      	subs	r3, #4
 8003d54:	0112      	lsls	r2, r2, #4
 8003d56:	b2d2      	uxtb	r2, r2
 8003d58:	440b      	add	r3, r1
 8003d5a:	761a      	strb	r2, [r3, #24]
}
 8003d5c:	bf00      	nop
 8003d5e:	370c      	adds	r7, #12
 8003d60:	46bd      	mov	sp, r7
 8003d62:	f85d 7b04 	ldr.w	r7, [sp], #4
 8003d66:	4770      	bx	lr
 8003d68:	e000e100 	.word	0xe000e100
 8003d6c:	e000ed00 	.word	0xe000ed00

08003d70 <NVIC_EncodePriority>:
  \param [in]   PreemptPriority  Preemptive priority value (starting from 0).
  \param [in]       SubPriority  Subpriority value (starting from 0).
  \return                        Encoded priority. Value can be used in the function \ref NVIC_SetPriority().
 */
__STATIC_INLINE uint32_t NVIC_EncodePriority (uint32_t PriorityGroup, uint32_t PreemptPriority, uint32_t SubPriority)
{
 8003d70:	b480      	push	{r7}
 8003d72:	b089      	sub	sp, #36	; 0x24
 8003d74:	af00      	add	r7, sp, #0
 8003d76:	60f8      	str	r0, [r7, #12]
 8003d78:	60b9      	str	r1, [r7, #8]
 8003d7a:	607a      	str	r2, [r7, #4]
  uint32_t PriorityGroupTmp = (PriorityGroup & (uint32_t)0x07UL);   /* only values 0..7 are used          */
 8003d7c:	68fb      	ldr	r3, [r7, #12]
 8003d7e:	f003 0307 	and.w	r3, r3, #7
 8003d82:	61fb      	str	r3, [r7, #28]
  uint32_t PreemptPriorityBits;
  uint32_t SubPriorityBits;

  PreemptPriorityBits = ((7UL - PriorityGroupTmp) > (uint32_t)(__NVIC_PRIO_BITS)) ? (uint32_t)(__NVIC_PRIO_BITS) : (uint32_t)(7UL - PriorityGroupTmp);
 8003d84:	69fb      	ldr	r3, [r7, #28]
 8003d86:	f1c3 0307 	rsb	r3, r3, #7
 8003d8a:	2b04      	cmp	r3, #4
 8003d8c:	bf28      	it	cs
 8003d8e:	2304      	movcs	r3, #4
 8003d90:	61bb      	str	r3, [r7, #24]
  SubPriorityBits     = ((PriorityGroupTmp + (uint32_t)(__NVIC_PRIO_BITS)) < (uint32_t)7UL) ? (uint32_t)0UL : (uint32_t)((PriorityGroupTmp - 7UL) + (uint32_t)(__NVIC_PRIO_BITS));
 8003d92:	69fb      	ldr	r3, [r7, #28]
 8003d94:	3304      	adds	r3, #4
 8003d96:	2b06      	cmp	r3, #6
 8003d98:	d902      	bls.n	8003da0 <NVIC_EncodePriority+0x30>
 8003d9a:	69fb      	ldr	r3, [r7, #28]
 8003d9c:	3b03      	subs	r3, #3
 8003d9e:	e000      	b.n	8003da2 <NVIC_EncodePriority+0x32>
 8003da0:	2300      	movs	r3, #0
 8003da2:	617b      	str	r3, [r7, #20]

  return (
           ((PreemptPriority & (uint32_t)((1UL << (PreemptPriorityBits)) - 1UL)) << SubPriorityBits) |
 8003da4:	f04f 32ff 	mov.w	r2, #4294967295	; 0xffffffff
 8003da8:	69bb      	ldr	r3, [r7, #24]
 8003daa:	fa02 f303 	lsl.w	r3, r2, r3
 8003dae:	43da      	mvns	r2, r3
 8003db0:	68bb      	ldr	r3, [r7, #8]
 8003db2:	401a      	ands	r2, r3
 8003db4:	697b      	ldr	r3, [r7, #20]
 8003db6:	409a      	lsls	r2, r3
           ((SubPriority     & (uint32_t)((1UL << (SubPriorityBits    )) - 1UL)))
 8003db8:	f04f 31ff 	mov.w	r1, #4294967295	; 0xffffffff
 8003dbc:	697b      	ldr	r3, [r7, #20]
 8003dbe:	fa01 f303 	lsl.w	r3, r1, r3
 8003dc2:	43d9      	mvns	r1, r3
 8003dc4:	687b      	ldr	r3, [r7, #4]
 8003dc6:	400b      	ands	r3, r1
           ((PreemptPriority & (uint32_t)((1UL << (PreemptPriorityBits)) - 1UL)) << SubPriorityBits) |
 8003dc8:	4313      	orrs	r3, r2
         );
}
 8003dca:	4618      	mov	r0, r3
 8003dcc:	3724      	adds	r7, #36	; 0x24
 8003dce:	46bd      	mov	sp, r7
 8003dd0:	f85d 7b04 	ldr.w	r7, [sp], #4
 8003dd4:	4770      	bx	lr
	...

08003dd8 <SysTick_Config>:
  \note    When the variable <b>__Vendor_SysTickConfig</b> is set to 1, then the
           function <b>SysTick_Config</b> is not included. In this case, the file <b><i>device</i>.h</b>
           must contain a vendor-specific implementation of this function.
 */
__STATIC_INLINE uint32_t SysTick_Config(uint32_t ticks)
{
 8003dd8:	b580      	push	{r7, lr}
 8003dda:	b082      	sub	sp, #8
 8003ddc:	af00      	add	r7, sp, #0
 8003dde:	6078      	str	r0, [r7, #4]
  if ((ticks - 1UL) > SysTick_LOAD_RELOAD_Msk)
 8003de0:	687b      	ldr	r3, [r7, #4]
 8003de2:	3b01      	subs	r3, #1
 8003de4:	f1b3 7f80 	cmp.w	r3, #16777216	; 0x1000000
 8003de8:	d301      	bcc.n	8003dee <SysTick_Config+0x16>
  {
    return (1UL);                                                   /* Reload value impossible */
 8003dea:	2301      	movs	r3, #1
 8003dec:	e00f      	b.n	8003e0e <SysTick_Config+0x36>
  }

  SysTick->LOAD  = (uint32_t)(ticks - 1UL);                         /* set reload register */
 8003dee:	4a0a      	ldr	r2, [pc, #40]	; (8003e18 <SysTick_Config+0x40>)
 8003df0:	687b      	ldr	r3, [r7, #4]
 8003df2:	3b01      	subs	r3, #1
 8003df4:	6053      	str	r3, [r2, #4]
  NVIC_SetPriority (SysTick_IRQn, (1UL << __NVIC_PRIO_BITS) - 1UL); /* set Priority for Systick Interrupt */
 8003df6:	210f      	movs	r1, #15
 8003df8:	f04f 30ff 	mov.w	r0, #4294967295	; 0xffffffff
 8003dfc:	f7ff ff8e 	bl	8003d1c <__NVIC_SetPriority>
  SysTick->VAL   = 0UL;                                             /* Load the SysTick Counter Value */
 8003e00:	4b05      	ldr	r3, [pc, #20]	; (8003e18 <SysTick_Config+0x40>)
 8003e02:	2200      	movs	r2, #0
 8003e04:	609a      	str	r2, [r3, #8]
  SysTick->CTRL  = SysTick_CTRL_CLKSOURCE_Msk |
 8003e06:	4b04      	ldr	r3, [pc, #16]	; (8003e18 <SysTick_Config+0x40>)
 8003e08:	2207      	movs	r2, #7
 8003e0a:	601a      	str	r2, [r3, #0]
                   SysTick_CTRL_TICKINT_Msk   |
                   SysTick_CTRL_ENABLE_Msk;                         /* Enable SysTick IRQ and SysTick Timer */
  return (0UL);                                                     /* Function successful */
 8003e0c:	2300      	movs	r3, #0
}
 8003e0e:	4618      	mov	r0, r3
 8003e10:	3708      	adds	r7, #8
 8003e12:	46bd      	mov	sp, r7
 8003e14:	bd80      	pop	{r7, pc}
 8003e16:	bf00      	nop
 8003e18:	e000e010 	.word	0xe000e010

08003e1c <HAL_NVIC_SetPriorityGrouping>:
  * @note   When the NVIC_PriorityGroup_0 is selected, IRQ preemption is no more possible. 
  *         The pending IRQ priority will be managed only by the subpriority. 
  * @retval None
  */
void HAL_NVIC_SetPriorityGrouping(uint32_t PriorityGroup)
{
 8003e1c:	b580      	push	{r7, lr}
 8003e1e:	b082      	sub	sp, #8
 8003e20:	af00      	add	r7, sp, #0
 8003e22:	6078      	str	r0, [r7, #4]
  /* Check the parameters */
  assert_param(IS_NVIC_PRIORITY_GROUP(PriorityGroup));
  
  /* Set the PRIGROUP[10:8] bits according to the PriorityGroup parameter value */
  NVIC_SetPriorityGrouping(PriorityGroup);
 8003e24:	6878      	ldr	r0, [r7, #4]
 8003e26:	f7ff ff29 	bl	8003c7c <__NVIC_SetPriorityGrouping>
}
 8003e2a:	bf00      	nop
 8003e2c:	3708      	adds	r7, #8
 8003e2e:	46bd      	mov	sp, r7
 8003e30:	bd80      	pop	{r7, pc}

08003e32 <HAL_NVIC_SetPriority>:
  *         This parameter can be a value between 0 and 15
  *         A lower priority value indicates a higher priority.          
  * @retval None
  */
void HAL_NVIC_SetPriority(IRQn_Type IRQn, uint32_t PreemptPriority, uint32_t SubPriority)
{ 
 8003e32:	b580      	push	{r7, lr}
 8003e34:	b086      	sub	sp, #24
 8003e36:	af00      	add	r7, sp, #0
 8003e38:	4603      	mov	r3, r0
 8003e3a:	60b9      	str	r1, [r7, #8]
 8003e3c:	607a      	str	r2, [r7, #4]
 8003e3e:	73fb      	strb	r3, [r7, #15]
  uint32_t prioritygroup = 0x00U;
 8003e40:	2300      	movs	r3, #0
 8003e42:	617b      	str	r3, [r7, #20]
  
  /* Check the parameters */
  assert_param(IS_NVIC_SUB_PRIORITY(SubPriority));
  assert_param(IS_NVIC_PREEMPTION_PRIORITY(PreemptPriority));
  
  prioritygroup = NVIC_GetPriorityGrouping();
 8003e44:	f7ff ff3e 	bl	8003cc4 <__NVIC_GetPriorityGrouping>
 8003e48:	6178      	str	r0, [r7, #20]
  
  NVIC_SetPriority(IRQn, NVIC_EncodePriority(prioritygroup, PreemptPriority, SubPriority));
 8003e4a:	687a      	ldr	r2, [r7, #4]
 8003e4c:	68b9      	ldr	r1, [r7, #8]
 8003e4e:	6978      	ldr	r0, [r7, #20]
 8003e50:	f7ff ff8e 	bl	8003d70 <NVIC_EncodePriority>
 8003e54:	4602      	mov	r2, r0
 8003e56:	f997 300f 	ldrsb.w	r3, [r7, #15]
 8003e5a:	4611      	mov	r1, r2
 8003e5c:	4618      	mov	r0, r3
 8003e5e:	f7ff ff5d 	bl	8003d1c <__NVIC_SetPriority>
}
 8003e62:	bf00      	nop
 8003e64:	3718      	adds	r7, #24
 8003e66:	46bd      	mov	sp, r7
 8003e68:	bd80      	pop	{r7, pc}

08003e6a <HAL_NVIC_EnableIRQ>:
  *         This parameter can be an enumerator of IRQn_Type enumeration
  *         (For the complete STM32 Devices IRQ Channels list, please refer to the appropriate CMSIS device file (stm32f4xxxx.h))
  * @retval None
  */
void HAL_NVIC_EnableIRQ(IRQn_Type IRQn)
{
 8003e6a:	b580      	push	{r7, lr}
 8003e6c:	b082      	sub	sp, #8
 8003e6e:	af00      	add	r7, sp, #0
 8003e70:	4603      	mov	r3, r0
 8003e72:	71fb      	strb	r3, [r7, #7]
  /* Check the parameters */
  assert_param(IS_NVIC_DEVICE_IRQ(IRQn));
  
  /* Enable interrupt */
  NVIC_EnableIRQ(IRQn);
 8003e74:	f997 3007 	ldrsb.w	r3, [r7, #7]
 8003e78:	4618      	mov	r0, r3
 8003e7a:	f7ff ff31 	bl	8003ce0 <__NVIC_EnableIRQ>
}
 8003e7e:	bf00      	nop
 8003e80:	3708      	adds	r7, #8
 8003e82:	46bd      	mov	sp, r7
 8003e84:	bd80      	pop	{r7, pc}

08003e86 <HAL_SYSTICK_Config>:
  * @param  TicksNumb Specifies the ticks Number of ticks between two interrupts.
  * @retval status:  - 0  Function succeeded.
  *                  - 1  Function failed.
  */
uint32_t HAL_SYSTICK_Config(uint32_t TicksNumb)
{
 8003e86:	b580      	push	{r7, lr}
 8003e88:	b082      	sub	sp, #8
 8003e8a:	af00      	add	r7, sp, #0
 8003e8c:	6078      	str	r0, [r7, #4]
   return SysTick_Config(TicksNumb);
 8003e8e:	6878      	ldr	r0, [r7, #4]
 8003e90:	f7ff ffa2 	bl	8003dd8 <SysTick_Config>
 8003e94:	4603      	mov	r3, r0
}
 8003e96:	4618      	mov	r0, r3
 8003e98:	3708      	adds	r7, #8
 8003e9a:	46bd      	mov	sp, r7
 8003e9c:	bd80      	pop	{r7, pc}
	...

08003ea0 <HAL_DMA_Init>:
  * @param  hdma Pointer to a DMA_HandleTypeDef structure that contains
  *               the configuration information for the specified DMA Stream.  
  * @retval HAL status
  */
HAL_StatusTypeDef HAL_DMA_Init(DMA_HandleTypeDef *hdma)
{
 8003ea0:	b580      	push	{r7, lr}
 8003ea2:	b086      	sub	sp, #24
 8003ea4:	af00      	add	r7, sp, #0
 8003ea6:	6078      	str	r0, [r7, #4]
  uint32_t tmp = 0U;
 8003ea8:	2300      	movs	r3, #0
 8003eaa:	617b      	str	r3, [r7, #20]
  uint32_t tickstart = HAL_GetTick();
 8003eac:	f7ff f84e 	bl	8002f4c <HAL_GetTick>
 8003eb0:	6138      	str	r0, [r7, #16]
  DMA_Base_Registers *regs;

  /* Check the DMA peripheral state */
  if(hdma == NULL)
 8003eb2:	687b      	ldr	r3, [r7, #4]
 8003eb4:	2b00      	cmp	r3, #0
 8003eb6:	d101      	bne.n	8003ebc <HAL_DMA_Init+0x1c>
  {
    return HAL_ERROR;
 8003eb8:	2301      	movs	r3, #1
 8003eba:	e099      	b.n	8003ff0 <HAL_DMA_Init+0x150>
    assert_param(IS_DMA_MEMORY_BURST(hdma->Init.MemBurst));
    assert_param(IS_DMA_PERIPHERAL_BURST(hdma->Init.PeriphBurst));
  }

  /* Change DMA peripheral state */
  hdma->State = HAL_DMA_STATE_BUSY;
 8003ebc:	687b      	ldr	r3, [r7, #4]
 8003ebe:	2202      	movs	r2, #2
 8003ec0:	f883 2035 	strb.w	r2, [r3, #53]	; 0x35

  /* Allocate lock resource */
  __HAL_UNLOCK(hdma);
 8003ec4:	687b      	ldr	r3, [r7, #4]
 8003ec6:	2200      	movs	r2, #0
 8003ec8:	f883 2034 	strb.w	r2, [r3, #52]	; 0x34
  
  /* Disable the peripheral */
  __HAL_DMA_DISABLE(hdma);
 8003ecc:	687b      	ldr	r3, [r7, #4]
 8003ece:	681b      	ldr	r3, [r3, #0]
 8003ed0:	681a      	ldr	r2, [r3, #0]
 8003ed2:	687b      	ldr	r3, [r7, #4]
 8003ed4:	681b      	ldr	r3, [r3, #0]
 8003ed6:	f022 0201 	bic.w	r2, r2, #1
 8003eda:	601a      	str	r2, [r3, #0]
  
  /* Check if the DMA Stream is effectively disabled */
  while((hdma->Instance->CR & DMA_SxCR_EN) != RESET)
 8003edc:	e00f      	b.n	8003efe <HAL_DMA_Init+0x5e>
  {
    /* Check for the Timeout */
    if((HAL_GetTick() - tickstart ) > HAL_TIMEOUT_DMA_ABORT)
 8003ede:	f7ff f835 	bl	8002f4c <HAL_GetTick>
 8003ee2:	4602      	mov	r2, r0
 8003ee4:	693b      	ldr	r3, [r7, #16]
 8003ee6:	1ad3      	subs	r3, r2, r3
 8003ee8:	2b05      	cmp	r3, #5
 8003eea:	d908      	bls.n	8003efe <HAL_DMA_Init+0x5e>
    {
      /* Update error code */
      hdma->ErrorCode = HAL_DMA_ERROR_TIMEOUT;
 8003eec:	687b      	ldr	r3, [r7, #4]
 8003eee:	2220      	movs	r2, #32
 8003ef0:	655a      	str	r2, [r3, #84]	; 0x54
      
      /* Change the DMA state */
      hdma->State = HAL_DMA_STATE_TIMEOUT;
 8003ef2:	687b      	ldr	r3, [r7, #4]
 8003ef4:	2203      	movs	r2, #3
 8003ef6:	f883 2035 	strb.w	r2, [r3, #53]	; 0x35
      
      return HAL_TIMEOUT;
 8003efa:	2303      	movs	r3, #3
 8003efc:	e078      	b.n	8003ff0 <HAL_DMA_Init+0x150>
  while((hdma->Instance->CR & DMA_SxCR_EN) != RESET)
 8003efe:	687b      	ldr	r3, [r7, #4]
 8003f00:	681b      	ldr	r3, [r3, #0]
 8003f02:	681b      	ldr	r3, [r3, #0]
 8003f04:	f003 0301 	and.w	r3, r3, #1
 8003f08:	2b00      	cmp	r3, #0
 8003f0a:	d1e8      	bne.n	8003ede <HAL_DMA_Init+0x3e>
    }
  }
  
  /* Get the CR register value */
  tmp = hdma->Instance->CR;
 8003f0c:	687b      	ldr	r3, [r7, #4]
 8003f0e:	681b      	ldr	r3, [r3, #0]
 8003f10:	681b      	ldr	r3, [r3, #0]
 8003f12:	617b      	str	r3, [r7, #20]

  /* Clear CHSEL, MBURST, PBURST, PL, MSIZE, PSIZE, MINC, PINC, CIRC, DIR, CT and DBM bits */
  tmp &= ((uint32_t)~(DMA_SxCR_CHSEL | DMA_SxCR_MBURST | DMA_SxCR_PBURST | \
 8003f14:	697a      	ldr	r2, [r7, #20]
 8003f16:	4b38      	ldr	r3, [pc, #224]	; (8003ff8 <HAL_DMA_Init+0x158>)
 8003f18:	4013      	ands	r3, r2
 8003f1a:	617b      	str	r3, [r7, #20]
                      DMA_SxCR_PL    | DMA_SxCR_MSIZE  | DMA_SxCR_PSIZE  | \
                      DMA_SxCR_MINC  | DMA_SxCR_PINC   | DMA_SxCR_CIRC   | \
                      DMA_SxCR_DIR   | DMA_SxCR_CT     | DMA_SxCR_DBM));

  /* Prepare the DMA Stream configuration */
  tmp |=  hdma->Init.Channel             | hdma->Init.Direction        |
 8003f1c:	687b      	ldr	r3, [r7, #4]
 8003f1e:	685a      	ldr	r2, [r3, #4]
 8003f20:	687b      	ldr	r3, [r7, #4]
 8003f22:	689b      	ldr	r3, [r3, #8]
 8003f24:	431a      	orrs	r2, r3
          hdma->Init.PeriphInc           | hdma->Init.MemInc           |
 8003f26:	687b      	ldr	r3, [r7, #4]
 8003f28:	68db      	ldr	r3, [r3, #12]
  tmp |=  hdma->Init.Channel             | hdma->Init.Direction        |
 8003f2a:	431a      	orrs	r2, r3
          hdma->Init.PeriphInc           | hdma->Init.MemInc           |
 8003f2c:	687b      	ldr	r3, [r7, #4]
 8003f2e:	691b      	ldr	r3, [r3, #16]
 8003f30:	431a      	orrs	r2, r3
          hdma->Init.PeriphDataAlignment | hdma->Init.MemDataAlignment |
 8003f32:	687b      	ldr	r3, [r7, #4]
 8003f34:	695b      	ldr	r3, [r3, #20]
          hdma->Init.PeriphInc           | hdma->Init.MemInc           |
 8003f36:	431a      	orrs	r2, r3
          hdma->Init.PeriphDataAlignment | hdma->Init.MemDataAlignment |
 8003f38:	687b      	ldr	r3, [r7, #4]
 8003f3a:	699b      	ldr	r3, [r3, #24]
 8003f3c:	431a      	orrs	r2, r3
          hdma->Init.Mode                | hdma->Init.Priority;
 8003f3e:	687b      	ldr	r3, [r7, #4]
 8003f40:	69db      	ldr	r3, [r3, #28]
          hdma->Init.PeriphDataAlignment | hdma->Init.MemDataAlignment |
 8003f42:	431a      	orrs	r2, r3
          hdma->Init.Mode                | hdma->Init.Priority;
 8003f44:	687b      	ldr	r3, [r7, #4]
 8003f46:	6a1b      	ldr	r3, [r3, #32]
 8003f48:	4313      	orrs	r3, r2
  tmp |=  hdma->Init.Channel             | hdma->Init.Direction        |
 8003f4a:	697a      	ldr	r2, [r7, #20]
 8003f4c:	4313      	orrs	r3, r2
 8003f4e:	617b      	str	r3, [r7, #20]

  /* the Memory burst and peripheral burst are not used when the FIFO is disabled */
  if(hdma->Init.FIFOMode == DMA_FIFOMODE_ENABLE)
 8003f50:	687b      	ldr	r3, [r7, #4]
 8003f52:	6a5b      	ldr	r3, [r3, #36]	; 0x24
 8003f54:	2b04      	cmp	r3, #4
 8003f56:	d107      	bne.n	8003f68 <HAL_DMA_Init+0xc8>
  {
    /* Get memory burst and peripheral burst */
    tmp |=  hdma->Init.MemBurst | hdma->Init.PeriphBurst;
 8003f58:	687b      	ldr	r3, [r7, #4]
 8003f5a:	6ada      	ldr	r2, [r3, #44]	; 0x2c
 8003f5c:	687b      	ldr	r3, [r7, #4]
 8003f5e:	6b1b      	ldr	r3, [r3, #48]	; 0x30
 8003f60:	4313      	orrs	r3, r2
 8003f62:	697a      	ldr	r2, [r7, #20]
 8003f64:	4313      	orrs	r3, r2
 8003f66:	617b      	str	r3, [r7, #20]
  }
  
  /* Write to DMA Stream CR register */
  hdma->Instance->CR = tmp;  
 8003f68:	687b      	ldr	r3, [r7, #4]
 8003f6a:	681b      	ldr	r3, [r3, #0]
 8003f6c:	697a      	ldr	r2, [r7, #20]
 8003f6e:	601a      	str	r2, [r3, #0]

  /* Get the FCR register value */
  tmp = hdma->Instance->FCR;
 8003f70:	687b      	ldr	r3, [r7, #4]
 8003f72:	681b      	ldr	r3, [r3, #0]
 8003f74:	695b      	ldr	r3, [r3, #20]
 8003f76:	617b      	str	r3, [r7, #20]

  /* Clear Direct mode and FIFO threshold bits */
  tmp &= (uint32_t)~(DMA_SxFCR_DMDIS | DMA_SxFCR_FTH);
 8003f78:	697b      	ldr	r3, [r7, #20]
 8003f7a:	f023 0307 	bic.w	r3, r3, #7
 8003f7e:	617b      	str	r3, [r7, #20]

  /* Prepare the DMA Stream FIFO configuration */
  tmp |= hdma->Init.FIFOMode;
 8003f80:	687b      	ldr	r3, [r7, #4]
 8003f82:	6a5b      	ldr	r3, [r3, #36]	; 0x24
 8003f84:	697a      	ldr	r2, [r7, #20]
 8003f86:	4313      	orrs	r3, r2
 8003f88:	617b      	str	r3, [r7, #20]

  /* The FIFO threshold is not used when the FIFO mode is disabled */
  if(hdma->Init.FIFOMode == DMA_FIFOMODE_ENABLE)
 8003f8a:	687b      	ldr	r3, [r7, #4]
 8003f8c:	6a5b      	ldr	r3, [r3, #36]	; 0x24
 8003f8e:	2b04      	cmp	r3, #4
 8003f90:	d117      	bne.n	8003fc2 <HAL_DMA_Init+0x122>
  {
    /* Get the FIFO threshold */
    tmp |= hdma->Init.FIFOThreshold;
 8003f92:	687b      	ldr	r3, [r7, #4]
 8003f94:	6a9b      	ldr	r3, [r3, #40]	; 0x28
 8003f96:	697a      	ldr	r2, [r7, #20]
 8003f98:	4313      	orrs	r3, r2
 8003f9a:	617b      	str	r3, [r7, #20]
    
    /* Check compatibility between FIFO threshold level and size of the memory burst */
    /* for INCR4, INCR8, INCR16 bursts */
    if (hdma->Init.MemBurst != DMA_MBURST_SINGLE)
 8003f9c:	687b      	ldr	r3, [r7, #4]
 8003f9e:	6adb      	ldr	r3, [r3, #44]	; 0x2c
 8003fa0:	2b00      	cmp	r3, #0
 8003fa2:	d00e      	beq.n	8003fc2 <HAL_DMA_Init+0x122>
    {
      if (DMA_CheckFifoParam(hdma) != HAL_OK)
 8003fa4:	6878      	ldr	r0, [r7, #4]
 8003fa6:	f000 fb01 	bl	80045ac <DMA_CheckFifoParam>
 8003faa:	4603      	mov	r3, r0
 8003fac:	2b00      	cmp	r3, #0
 8003fae:	d008      	beq.n	8003fc2 <HAL_DMA_Init+0x122>
      {
        /* Update error code */
        hdma->ErrorCode = HAL_DMA_ERROR_PARAM;
 8003fb0:	687b      	ldr	r3, [r7, #4]
 8003fb2:	2240      	movs	r2, #64	; 0x40
 8003fb4:	655a      	str	r2, [r3, #84]	; 0x54
        
        /* Change the DMA state */
        hdma->State = HAL_DMA_STATE_READY;
 8003fb6:	687b      	ldr	r3, [r7, #4]
 8003fb8:	2201      	movs	r2, #1
 8003fba:	f883 2035 	strb.w	r2, [r3, #53]	; 0x35
        
        return HAL_ERROR; 
 8003fbe:	2301      	movs	r3, #1
 8003fc0:	e016      	b.n	8003ff0 <HAL_DMA_Init+0x150>
      }
    }
  }
  
  /* Write to DMA Stream FCR */
  hdma->Instance->FCR = tmp;
 8003fc2:	687b      	ldr	r3, [r7, #4]
 8003fc4:	681b      	ldr	r3, [r3, #0]
 8003fc6:	697a      	ldr	r2, [r7, #20]
 8003fc8:	615a      	str	r2, [r3, #20]

  /* Initialize StreamBaseAddress and StreamIndex parameters to be used to calculate
     DMA steam Base Address needed by HAL_DMA_IRQHandler() and HAL_DMA_PollForTransfer() */
  regs = (DMA_Base_Registers *)DMA_CalcBaseAndBitshift(hdma);
 8003fca:	6878      	ldr	r0, [r7, #4]
 8003fcc:	f000 fab8 	bl	8004540 <DMA_CalcBaseAndBitshift>
 8003fd0:	4603      	mov	r3, r0
 8003fd2:	60fb      	str	r3, [r7, #12]
  
  /* Clear all interrupt flags */
  regs->IFCR = 0x3FU << hdma->StreamIndex;
 8003fd4:	687b      	ldr	r3, [r7, #4]
 8003fd6:	6ddb      	ldr	r3, [r3, #92]	; 0x5c
 8003fd8:	223f      	movs	r2, #63	; 0x3f
 8003fda:	409a      	lsls	r2, r3
 8003fdc:	68fb      	ldr	r3, [r7, #12]
 8003fde:	609a      	str	r2, [r3, #8]

  /* Initialize the error code */
  hdma->ErrorCode = HAL_DMA_ERROR_NONE;
 8003fe0:	687b      	ldr	r3, [r7, #4]
 8003fe2:	2200      	movs	r2, #0
 8003fe4:	655a      	str	r2, [r3, #84]	; 0x54
                                                                                     
  /* Initialize the DMA state */
  hdma->State = HAL_DMA_STATE_READY;
 8003fe6:	687b      	ldr	r3, [r7, #4]
 8003fe8:	2201      	movs	r2, #1
 8003fea:	f883 2035 	strb.w	r2, [r3, #53]	; 0x35

  return HAL_OK;
 8003fee:	2300      	movs	r3, #0
}
 8003ff0:	4618      	mov	r0, r3
 8003ff2:	3718      	adds	r7, #24
 8003ff4:	46bd      	mov	sp, r7
 8003ff6:	bd80      	pop	{r7, pc}
 8003ff8:	f010803f 	.word	0xf010803f

08003ffc <HAL_DMA_Start_IT>:
  * @param  DstAddress The destination memory Buffer address
  * @param  DataLength The length of data to be transferred from source to destination
  * @retval HAL status
  */
HAL_StatusTypeDef HAL_DMA_Start_IT(DMA_HandleTypeDef *hdma, uint32_t SrcAddress, uint32_t DstAddress, uint32_t DataLength)
{
 8003ffc:	b580      	push	{r7, lr}
 8003ffe:	b086      	sub	sp, #24
 8004000:	af00      	add	r7, sp, #0
 8004002:	60f8      	str	r0, [r7, #12]
 8004004:	60b9      	str	r1, [r7, #8]
 8004006:	607a      	str	r2, [r7, #4]
 8004008:	603b      	str	r3, [r7, #0]
  HAL_StatusTypeDef status = HAL_OK;
 800400a:	2300      	movs	r3, #0
 800400c:	75fb      	strb	r3, [r7, #23]

  /* calculate DMA base and stream number */
  DMA_Base_Registers *regs = (DMA_Base_Registers *)hdma->StreamBaseAddress;
 800400e:	68fb      	ldr	r3, [r7, #12]
 8004010:	6d9b      	ldr	r3, [r3, #88]	; 0x58
 8004012:	613b      	str	r3, [r7, #16]
  
  /* Check the parameters */
  assert_param(IS_DMA_BUFFER_SIZE(DataLength));
 
  /* Process locked */
  __HAL_LOCK(hdma);
 8004014:	68fb      	ldr	r3, [r7, #12]
 8004016:	f893 3034 	ldrb.w	r3, [r3, #52]	; 0x34
 800401a:	2b01      	cmp	r3, #1
 800401c:	d101      	bne.n	8004022 <HAL_DMA_Start_IT+0x26>
 800401e:	2302      	movs	r3, #2
 8004020:	e040      	b.n	80040a4 <HAL_DMA_Start_IT+0xa8>
 8004022:	68fb      	ldr	r3, [r7, #12]
 8004024:	2201      	movs	r2, #1
 8004026:	f883 2034 	strb.w	r2, [r3, #52]	; 0x34
  
  if(HAL_DMA_STATE_READY == hdma->State)
 800402a:	68fb      	ldr	r3, [r7, #12]
 800402c:	f893 3035 	ldrb.w	r3, [r3, #53]	; 0x35
 8004030:	b2db      	uxtb	r3, r3
 8004032:	2b01      	cmp	r3, #1
 8004034:	d12f      	bne.n	8004096 <HAL_DMA_Start_IT+0x9a>
  {
    /* Change DMA peripheral state */
    hdma->State = HAL_DMA_STATE_BUSY;
 8004036:	68fb      	ldr	r3, [r7, #12]
 8004038:	2202      	movs	r2, #2
 800403a:	f883 2035 	strb.w	r2, [r3, #53]	; 0x35
    
    /* Initialize the error code */
    hdma->ErrorCode = HAL_DMA_ERROR_NONE;
 800403e:	68fb      	ldr	r3, [r7, #12]
 8004040:	2200      	movs	r2, #0
 8004042:	655a      	str	r2, [r3, #84]	; 0x54
    
    /* Configure the source, destination address and the data length */
    DMA_SetConfig(hdma, SrcAddress, DstAddress, DataLength);
 8004044:	683b      	ldr	r3, [r7, #0]
 8004046:	687a      	ldr	r2, [r7, #4]
 8004048:	68b9      	ldr	r1, [r7, #8]
 800404a:	68f8      	ldr	r0, [r7, #12]
 800404c:	f000 fa4a 	bl	80044e4 <DMA_SetConfig>
    
    /* Clear all interrupt flags at correct offset within the register */
    regs->IFCR = 0x3FU << hdma->StreamIndex;
 8004050:	68fb      	ldr	r3, [r7, #12]
 8004052:	6ddb      	ldr	r3, [r3, #92]	; 0x5c
 8004054:	223f      	movs	r2, #63	; 0x3f
 8004056:	409a      	lsls	r2, r3
 8004058:	693b      	ldr	r3, [r7, #16]
 800405a:	609a      	str	r2, [r3, #8]
    
    /* Enable Common interrupts*/
    hdma->Instance->CR  |= DMA_IT_TC | DMA_IT_TE | DMA_IT_DME;
 800405c:	68fb      	ldr	r3, [r7, #12]
 800405e:	681b      	ldr	r3, [r3, #0]
 8004060:	681a      	ldr	r2, [r3, #0]
 8004062:	68fb      	ldr	r3, [r7, #12]
 8004064:	681b      	ldr	r3, [r3, #0]
 8004066:	f042 0216 	orr.w	r2, r2, #22
 800406a:	601a      	str	r2, [r3, #0]
    
    if(hdma->XferHalfCpltCallback != NULL)
 800406c:	68fb      	ldr	r3, [r7, #12]
 800406e:	6c1b      	ldr	r3, [r3, #64]	; 0x40
 8004070:	2b00      	cmp	r3, #0
 8004072:	d007      	beq.n	8004084 <HAL_DMA_Start_IT+0x88>
    {
      hdma->Instance->CR  |= DMA_IT_HT;
 8004074:	68fb      	ldr	r3, [r7, #12]
 8004076:	681b      	ldr	r3, [r3, #0]
 8004078:	681a      	ldr	r2, [r3, #0]
 800407a:	68fb      	ldr	r3, [r7, #12]
 800407c:	681b      	ldr	r3, [r3, #0]
 800407e:	f042 0208 	orr.w	r2, r2, #8
 8004082:	601a      	str	r2, [r3, #0]
    }
    
    /* Enable the Peripheral */
    __HAL_DMA_ENABLE(hdma);
 8004084:	68fb      	ldr	r3, [r7, #12]
 8004086:	681b      	ldr	r3, [r3, #0]
 8004088:	681a      	ldr	r2, [r3, #0]
 800408a:	68fb      	ldr	r3, [r7, #12]
 800408c:	681b      	ldr	r3, [r3, #0]
 800408e:	f042 0201 	orr.w	r2, r2, #1
 8004092:	601a      	str	r2, [r3, #0]
 8004094:	e005      	b.n	80040a2 <HAL_DMA_Start_IT+0xa6>
  }
  else
  {
    /* Process unlocked */
    __HAL_UNLOCK(hdma);	  
 8004096:	68fb      	ldr	r3, [r7, #12]
 8004098:	2200      	movs	r2, #0
 800409a:	f883 2034 	strb.w	r2, [r3, #52]	; 0x34
    
    /* Return error status */
    status = HAL_BUSY;
 800409e:	2302      	movs	r3, #2
 80040a0:	75fb      	strb	r3, [r7, #23]
  }
  
  return status;
 80040a2:	7dfb      	ldrb	r3, [r7, #23]
}
 80040a4:	4618      	mov	r0, r3
 80040a6:	3718      	adds	r7, #24
 80040a8:	46bd      	mov	sp, r7
 80040aa:	bd80      	pop	{r7, pc}

080040ac <HAL_DMA_Abort>:
  *        and the Stream will be effectively disabled only after the transfer of
  *        this single data is finished.  
  * @retval HAL status
  */
HAL_StatusTypeDef HAL_DMA_Abort(DMA_HandleTypeDef *hdma)
{
 80040ac:	b580      	push	{r7, lr}
 80040ae:	b084      	sub	sp, #16
 80040b0:	af00      	add	r7, sp, #0
 80040b2:	6078      	str	r0, [r7, #4]
  /* calculate DMA base and stream number */
  DMA_Base_Registers *regs = (DMA_Base_Registers *)hdma->StreamBaseAddress;
 80040b4:	687b      	ldr	r3, [r7, #4]
 80040b6:	6d9b      	ldr	r3, [r3, #88]	; 0x58
 80040b8:	60fb      	str	r3, [r7, #12]
  
  uint32_t tickstart = HAL_GetTick();
 80040ba:	f7fe ff47 	bl	8002f4c <HAL_GetTick>
 80040be:	60b8      	str	r0, [r7, #8]
  
  if(hdma->State != HAL_DMA_STATE_BUSY)
 80040c0:	687b      	ldr	r3, [r7, #4]
 80040c2:	f893 3035 	ldrb.w	r3, [r3, #53]	; 0x35
 80040c6:	b2db      	uxtb	r3, r3
 80040c8:	2b02      	cmp	r3, #2
 80040ca:	d008      	beq.n	80040de <HAL_DMA_Abort+0x32>
  {
    hdma->ErrorCode = HAL_DMA_ERROR_NO_XFER;
 80040cc:	687b      	ldr	r3, [r7, #4]
 80040ce:	2280      	movs	r2, #128	; 0x80
 80040d0:	655a      	str	r2, [r3, #84]	; 0x54
    
    /* Process Unlocked */
    __HAL_UNLOCK(hdma);
 80040d2:	687b      	ldr	r3, [r7, #4]
 80040d4:	2200      	movs	r2, #0
 80040d6:	f883 2034 	strb.w	r2, [r3, #52]	; 0x34
    
    return HAL_ERROR;
 80040da:	2301      	movs	r3, #1
 80040dc:	e052      	b.n	8004184 <HAL_DMA_Abort+0xd8>
  }
  else
  {
    /* Disable all the transfer interrupts */
    hdma->Instance->CR  &= ~(DMA_IT_TC | DMA_IT_TE | DMA_IT_DME);
 80040de:	687b      	ldr	r3, [r7, #4]
 80040e0:	681b      	ldr	r3, [r3, #0]
 80040e2:	681a      	ldr	r2, [r3, #0]
 80040e4:	687b      	ldr	r3, [r7, #4]
 80040e6:	681b      	ldr	r3, [r3, #0]
 80040e8:	f022 0216 	bic.w	r2, r2, #22
 80040ec:	601a      	str	r2, [r3, #0]
    hdma->Instance->FCR &= ~(DMA_IT_FE);
 80040ee:	687b      	ldr	r3, [r7, #4]
 80040f0:	681b      	ldr	r3, [r3, #0]
 80040f2:	695a      	ldr	r2, [r3, #20]
 80040f4:	687b      	ldr	r3, [r7, #4]
 80040f6:	681b      	ldr	r3, [r3, #0]
 80040f8:	f022 0280 	bic.w	r2, r2, #128	; 0x80
 80040fc:	615a      	str	r2, [r3, #20]
    
    if((hdma->XferHalfCpltCallback != NULL) || (hdma->XferM1HalfCpltCallback != NULL))
 80040fe:	687b      	ldr	r3, [r7, #4]
 8004100:	6c1b      	ldr	r3, [r3, #64]	; 0x40
 8004102:	2b00      	cmp	r3, #0
 8004104:	d103      	bne.n	800410e <HAL_DMA_Abort+0x62>
 8004106:	687b      	ldr	r3, [r7, #4]
 8004108:	6c9b      	ldr	r3, [r3, #72]	; 0x48
 800410a:	2b00      	cmp	r3, #0
 800410c:	d007      	beq.n	800411e <HAL_DMA_Abort+0x72>
    {
      hdma->Instance->CR  &= ~(DMA_IT_HT);
 800410e:	687b      	ldr	r3, [r7, #4]
 8004110:	681b      	ldr	r3, [r3, #0]
 8004112:	681a      	ldr	r2, [r3, #0]
 8004114:	687b      	ldr	r3, [r7, #4]
 8004116:	681b      	ldr	r3, [r3, #0]
 8004118:	f022 0208 	bic.w	r2, r2, #8
 800411c:	601a      	str	r2, [r3, #0]
    }
    
    /* Disable the stream */
    __HAL_DMA_DISABLE(hdma);
 800411e:	687b      	ldr	r3, [r7, #4]
 8004120:	681b      	ldr	r3, [r3, #0]
 8004122:	681a      	ldr	r2, [r3, #0]
 8004124:	687b      	ldr	r3, [r7, #4]
 8004126:	681b      	ldr	r3, [r3, #0]
 8004128:	f022 0201 	bic.w	r2, r2, #1
 800412c:	601a      	str	r2, [r3, #0]
    
    /* Check if the DMA Stream is effectively disabled */
    while((hdma->Instance->CR & DMA_SxCR_EN) != RESET)
 800412e:	e013      	b.n	8004158 <HAL_DMA_Abort+0xac>
    {
      /* Check for the Timeout */
      if((HAL_GetTick() - tickstart ) > HAL_TIMEOUT_DMA_ABORT)
 8004130:	f7fe ff0c 	bl	8002f4c <HAL_GetTick>
 8004134:	4602      	mov	r2, r0
 8004136:	68bb      	ldr	r3, [r7, #8]
 8004138:	1ad3      	subs	r3, r2, r3
 800413a:	2b05      	cmp	r3, #5
 800413c:	d90c      	bls.n	8004158 <HAL_DMA_Abort+0xac>
      {
        /* Update error code */
        hdma->ErrorCode = HAL_DMA_ERROR_TIMEOUT;
 800413e:	687b      	ldr	r3, [r7, #4]
 8004140:	2220      	movs	r2, #32
 8004142:	655a      	str	r2, [r3, #84]	; 0x54
        
        /* Change the DMA state */
        hdma->State = HAL_DMA_STATE_TIMEOUT;
 8004144:	687b      	ldr	r3, [r7, #4]
 8004146:	2203      	movs	r2, #3
 8004148:	f883 2035 	strb.w	r2, [r3, #53]	; 0x35
        
        /* Process Unlocked */
        __HAL_UNLOCK(hdma);
 800414c:	687b      	ldr	r3, [r7, #4]
 800414e:	2200      	movs	r2, #0
 8004150:	f883 2034 	strb.w	r2, [r3, #52]	; 0x34
        
        return HAL_TIMEOUT;
 8004154:	2303      	movs	r3, #3
 8004156:	e015      	b.n	8004184 <HAL_DMA_Abort+0xd8>
    while((hdma->Instance->CR & DMA_SxCR_EN) != RESET)
 8004158:	687b      	ldr	r3, [r7, #4]
 800415a:	681b      	ldr	r3, [r3, #0]
 800415c:	681b      	ldr	r3, [r3, #0]
 800415e:	f003 0301 	and.w	r3, r3, #1
 8004162:	2b00      	cmp	r3, #0
 8004164:	d1e4      	bne.n	8004130 <HAL_DMA_Abort+0x84>
      }
    }
    
    /* Clear all interrupt flags at correct offset within the register */
    regs->IFCR = 0x3FU << hdma->StreamIndex;
 8004166:	687b      	ldr	r3, [r7, #4]
 8004168:	6ddb      	ldr	r3, [r3, #92]	; 0x5c
 800416a:	223f      	movs	r2, #63	; 0x3f
 800416c:	409a      	lsls	r2, r3
 800416e:	68fb      	ldr	r3, [r7, #12]
 8004170:	609a      	str	r2, [r3, #8]
    
    /* Change the DMA state*/
    hdma->State = HAL_DMA_STATE_READY;
 8004172:	687b      	ldr	r3, [r7, #4]
 8004174:	2201      	movs	r2, #1
 8004176:	f883 2035 	strb.w	r2, [r3, #53]	; 0x35
    
    /* Process Unlocked */
    __HAL_UNLOCK(hdma);
 800417a:	687b      	ldr	r3, [r7, #4]
 800417c:	2200      	movs	r2, #0
 800417e:	f883 2034 	strb.w	r2, [r3, #52]	; 0x34
  }
  return HAL_OK;
 8004182:	2300      	movs	r3, #0
}
 8004184:	4618      	mov	r0, r3
 8004186:	3710      	adds	r7, #16
 8004188:	46bd      	mov	sp, r7
 800418a:	bd80      	pop	{r7, pc}

0800418c <HAL_DMA_Abort_IT>:
  * @param  hdma   pointer to a DMA_HandleTypeDef structure that contains
  *                 the configuration information for the specified DMA Stream.
  * @retval HAL status
  */
HAL_StatusTypeDef HAL_DMA_Abort_IT(DMA_HandleTypeDef *hdma)
{
 800418c:	b480      	push	{r7}
 800418e:	b083      	sub	sp, #12
 8004190:	af00      	add	r7, sp, #0
 8004192:	6078      	str	r0, [r7, #4]
  if(hdma->State != HAL_DMA_STATE_BUSY)
 8004194:	687b      	ldr	r3, [r7, #4]
 8004196:	f893 3035 	ldrb.w	r3, [r3, #53]	; 0x35
 800419a:	b2db      	uxtb	r3, r3
 800419c:	2b02      	cmp	r3, #2
 800419e:	d004      	beq.n	80041aa <HAL_DMA_Abort_IT+0x1e>
  {
    hdma->ErrorCode = HAL_DMA_ERROR_NO_XFER;
 80041a0:	687b      	ldr	r3, [r7, #4]
 80041a2:	2280      	movs	r2, #128	; 0x80
 80041a4:	655a      	str	r2, [r3, #84]	; 0x54
    return HAL_ERROR;
 80041a6:	2301      	movs	r3, #1
 80041a8:	e00c      	b.n	80041c4 <HAL_DMA_Abort_IT+0x38>
  }
  else
  {
    /* Set Abort State  */
    hdma->State = HAL_DMA_STATE_ABORT;
 80041aa:	687b      	ldr	r3, [r7, #4]
 80041ac:	2205      	movs	r2, #5
 80041ae:	f883 2035 	strb.w	r2, [r3, #53]	; 0x35
    
    /* Disable the stream */
    __HAL_DMA_DISABLE(hdma);
 80041b2:	687b      	ldr	r3, [r7, #4]
 80041b4:	681b      	ldr	r3, [r3, #0]
 80041b6:	681a      	ldr	r2, [r3, #0]
 80041b8:	687b      	ldr	r3, [r7, #4]
 80041ba:	681b      	ldr	r3, [r3, #0]
 80041bc:	f022 0201 	bic.w	r2, r2, #1
 80041c0:	601a      	str	r2, [r3, #0]
  }

  return HAL_OK;
 80041c2:	2300      	movs	r3, #0
}
 80041c4:	4618      	mov	r0, r3
 80041c6:	370c      	adds	r7, #12
 80041c8:	46bd      	mov	sp, r7
 80041ca:	f85d 7b04 	ldr.w	r7, [sp], #4
 80041ce:	4770      	bx	lr

080041d0 <HAL_DMA_IRQHandler>:
  * @param  hdma pointer to a DMA_HandleTypeDef structure that contains
  *               the configuration information for the specified DMA Stream.  
  * @retval None
  */
void HAL_DMA_IRQHandler(DMA_HandleTypeDef *hdma)
{
 80041d0:	b580      	push	{r7, lr}
 80041d2:	b086      	sub	sp, #24
 80041d4:	af00      	add	r7, sp, #0
 80041d6:	6078      	str	r0, [r7, #4]
  uint32_t tmpisr;
  __IO uint32_t count = 0U;
 80041d8:	2300      	movs	r3, #0
 80041da:	60bb      	str	r3, [r7, #8]
  uint32_t timeout = SystemCoreClock / 9600U;
 80041dc:	4b8e      	ldr	r3, [pc, #568]	; (8004418 <HAL_DMA_IRQHandler+0x248>)
 80041de:	681b      	ldr	r3, [r3, #0]
 80041e0:	4a8e      	ldr	r2, [pc, #568]	; (800441c <HAL_DMA_IRQHandler+0x24c>)
 80041e2:	fba2 2303 	umull	r2, r3, r2, r3
 80041e6:	0a9b      	lsrs	r3, r3, #10
 80041e8:	617b      	str	r3, [r7, #20]

  /* calculate DMA base and stream number */
  DMA_Base_Registers *regs = (DMA_Base_Registers *)hdma->StreamBaseAddress;
 80041ea:	687b      	ldr	r3, [r7, #4]
 80041ec:	6d9b      	ldr	r3, [r3, #88]	; 0x58
 80041ee:	613b      	str	r3, [r7, #16]

  tmpisr = regs->ISR;
 80041f0:	693b      	ldr	r3, [r7, #16]
 80041f2:	681b      	ldr	r3, [r3, #0]
 80041f4:	60fb      	str	r3, [r7, #12]

  /* Transfer Error Interrupt management ***************************************/
  if ((tmpisr & (DMA_FLAG_TEIF0_4 << hdma->StreamIndex)) != RESET)
 80041f6:	687b      	ldr	r3, [r7, #4]
 80041f8:	6ddb      	ldr	r3, [r3, #92]	; 0x5c
 80041fa:	2208      	movs	r2, #8
 80041fc:	409a      	lsls	r2, r3
 80041fe:	68fb      	ldr	r3, [r7, #12]
 8004200:	4013      	ands	r3, r2
 8004202:	2b00      	cmp	r3, #0
 8004204:	d01a      	beq.n	800423c <HAL_DMA_IRQHandler+0x6c>
  {
    if(__HAL_DMA_GET_IT_SOURCE(hdma, DMA_IT_TE) != RESET)
 8004206:	687b      	ldr	r3, [r7, #4]
 8004208:	681b      	ldr	r3, [r3, #0]
 800420a:	681b      	ldr	r3, [r3, #0]
 800420c:	f003 0304 	and.w	r3, r3, #4
 8004210:	2b00      	cmp	r3, #0
 8004212:	d013      	beq.n	800423c <HAL_DMA_IRQHandler+0x6c>
    {
      /* Disable the transfer error interrupt */
      hdma->Instance->CR  &= ~(DMA_IT_TE);
 8004214:	687b      	ldr	r3, [r7, #4]
 8004216:	681b      	ldr	r3, [r3, #0]
 8004218:	681a      	ldr	r2, [r3, #0]
 800421a:	687b      	ldr	r3, [r7, #4]
 800421c:	681b      	ldr	r3, [r3, #0]
 800421e:	f022 0204 	bic.w	r2, r2, #4
 8004222:	601a      	str	r2, [r3, #0]
      
      /* Clear the transfer error flag */
      regs->IFCR = DMA_FLAG_TEIF0_4 << hdma->StreamIndex;
 8004224:	687b      	ldr	r3, [r7, #4]
 8004226:	6ddb      	ldr	r3, [r3, #92]	; 0x5c
 8004228:	2208      	movs	r2, #8
 800422a:	409a      	lsls	r2, r3
 800422c:	693b      	ldr	r3, [r7, #16]
 800422e:	609a      	str	r2, [r3, #8]
      
      /* Update error code */
      hdma->ErrorCode |= HAL_DMA_ERROR_TE;
 8004230:	687b      	ldr	r3, [r7, #4]
 8004232:	6d5b      	ldr	r3, [r3, #84]	; 0x54
 8004234:	f043 0201 	orr.w	r2, r3, #1
 8004238:	687b      	ldr	r3, [r7, #4]
 800423a:	655a      	str	r2, [r3, #84]	; 0x54
    }
  }
  /* FIFO Error Interrupt management ******************************************/
  if ((tmpisr & (DMA_FLAG_FEIF0_4 << hdma->StreamIndex)) != RESET)
 800423c:	687b      	ldr	r3, [r7, #4]
 800423e:	6ddb      	ldr	r3, [r3, #92]	; 0x5c
 8004240:	2201      	movs	r2, #1
 8004242:	409a      	lsls	r2, r3
 8004244:	68fb      	ldr	r3, [r7, #12]
 8004246:	4013      	ands	r3, r2
 8004248:	2b00      	cmp	r3, #0
 800424a:	d012      	beq.n	8004272 <HAL_DMA_IRQHandler+0xa2>
  {
    if(__HAL_DMA_GET_IT_SOURCE(hdma, DMA_IT_FE) != RESET)
 800424c:	687b      	ldr	r3, [r7, #4]
 800424e:	681b      	ldr	r3, [r3, #0]
 8004250:	695b      	ldr	r3, [r3, #20]
 8004252:	f003 0380 	and.w	r3, r3, #128	; 0x80
 8004256:	2b00      	cmp	r3, #0
 8004258:	d00b      	beq.n	8004272 <HAL_DMA_IRQHandler+0xa2>
    {
      /* Clear the FIFO error flag */
      regs->IFCR = DMA_FLAG_FEIF0_4 << hdma->StreamIndex;
 800425a:	687b      	ldr	r3, [r7, #4]
 800425c:	6ddb      	ldr	r3, [r3, #92]	; 0x5c
 800425e:	2201      	movs	r2, #1
 8004260:	409a      	lsls	r2, r3
 8004262:	693b      	ldr	r3, [r7, #16]
 8004264:	609a      	str	r2, [r3, #8]

      /* Update error code */
      hdma->ErrorCode |= HAL_DMA_ERROR_FE;
 8004266:	687b      	ldr	r3, [r7, #4]
 8004268:	6d5b      	ldr	r3, [r3, #84]	; 0x54
 800426a:	f043 0202 	orr.w	r2, r3, #2
 800426e:	687b      	ldr	r3, [r7, #4]
 8004270:	655a      	str	r2, [r3, #84]	; 0x54
    }
  }
  /* Direct Mode Error Interrupt management ***********************************/
  if ((tmpisr & (DMA_FLAG_DMEIF0_4 << hdma->StreamIndex)) != RESET)
 8004272:	687b      	ldr	r3, [r7, #4]
 8004274:	6ddb      	ldr	r3, [r3, #92]	; 0x5c
 8004276:	2204      	movs	r2, #4
 8004278:	409a      	lsls	r2, r3
 800427a:	68fb      	ldr	r3, [r7, #12]
 800427c:	4013      	ands	r3, r2
 800427e:	2b00      	cmp	r3, #0
 8004280:	d012      	beq.n	80042a8 <HAL_DMA_IRQHandler+0xd8>
  {
    if(__HAL_DMA_GET_IT_SOURCE(hdma, DMA_IT_DME) != RESET)
 8004282:	687b      	ldr	r3, [r7, #4]
 8004284:	681b      	ldr	r3, [r3, #0]
 8004286:	681b      	ldr	r3, [r3, #0]
 8004288:	f003 0302 	and.w	r3, r3, #2
 800428c:	2b00      	cmp	r3, #0
 800428e:	d00b      	beq.n	80042a8 <HAL_DMA_IRQHandler+0xd8>
    {
      /* Clear the direct mode error flag */
      regs->IFCR = DMA_FLAG_DMEIF0_4 << hdma->StreamIndex;
 8004290:	687b      	ldr	r3, [r7, #4]
 8004292:	6ddb      	ldr	r3, [r3, #92]	; 0x5c
 8004294:	2204      	movs	r2, #4
 8004296:	409a      	lsls	r2, r3
 8004298:	693b      	ldr	r3, [r7, #16]
 800429a:	609a      	str	r2, [r3, #8]

      /* Update error code */
      hdma->ErrorCode |= HAL_DMA_ERROR_DME;
 800429c:	687b      	ldr	r3, [r7, #4]
 800429e:	6d5b      	ldr	r3, [r3, #84]	; 0x54
 80042a0:	f043 0204 	orr.w	r2, r3, #4
 80042a4:	687b      	ldr	r3, [r7, #4]
 80042a6:	655a      	str	r2, [r3, #84]	; 0x54
    }
  }
  /* Half Transfer Complete Interrupt management ******************************/
  if ((tmpisr & (DMA_FLAG_HTIF0_4 << hdma->StreamIndex)) != RESET)
 80042a8:	687b      	ldr	r3, [r7, #4]
 80042aa:	6ddb      	ldr	r3, [r3, #92]	; 0x5c
 80042ac:	2210      	movs	r2, #16
 80042ae:	409a      	lsls	r2, r3
 80042b0:	68fb      	ldr	r3, [r7, #12]
 80042b2:	4013      	ands	r3, r2
 80042b4:	2b00      	cmp	r3, #0
 80042b6:	d043      	beq.n	8004340 <HAL_DMA_IRQHandler+0x170>
  {
    if(__HAL_DMA_GET_IT_SOURCE(hdma, DMA_IT_HT) != RESET)
 80042b8:	687b      	ldr	r3, [r7, #4]
 80042ba:	681b      	ldr	r3, [r3, #0]
 80042bc:	681b      	ldr	r3, [r3, #0]
 80042be:	f003 0308 	and.w	r3, r3, #8
 80042c2:	2b00      	cmp	r3, #0
 80042c4:	d03c      	beq.n	8004340 <HAL_DMA_IRQHandler+0x170>
    {
      /* Clear the half transfer complete flag */
      regs->IFCR = DMA_FLAG_HTIF0_4 << hdma->StreamIndex;
 80042c6:	687b      	ldr	r3, [r7, #4]
 80042c8:	6ddb      	ldr	r3, [r3, #92]	; 0x5c
 80042ca:	2210      	movs	r2, #16
 80042cc:	409a      	lsls	r2, r3
 80042ce:	693b      	ldr	r3, [r7, #16]
 80042d0:	609a      	str	r2, [r3, #8]
      
      /* Multi_Buffering mode enabled */
      if(((hdma->Instance->CR) & (uint32_t)(DMA_SxCR_DBM)) != RESET)
 80042d2:	687b      	ldr	r3, [r7, #4]
 80042d4:	681b      	ldr	r3, [r3, #0]
 80042d6:	681b      	ldr	r3, [r3, #0]
 80042d8:	f403 2380 	and.w	r3, r3, #262144	; 0x40000
 80042dc:	2b00      	cmp	r3, #0
 80042de:	d018      	beq.n	8004312 <HAL_DMA_IRQHandler+0x142>
      {
        /* Current memory buffer used is Memory 0 */
        if((hdma->Instance->CR & DMA_SxCR_CT) == RESET)
 80042e0:	687b      	ldr	r3, [r7, #4]
 80042e2:	681b      	ldr	r3, [r3, #0]
 80042e4:	681b      	ldr	r3, [r3, #0]
 80042e6:	f403 2300 	and.w	r3, r3, #524288	; 0x80000
 80042ea:	2b00      	cmp	r3, #0
 80042ec:	d108      	bne.n	8004300 <HAL_DMA_IRQHandler+0x130>
        {
          if(hdma->XferHalfCpltCallback != NULL)
 80042ee:	687b      	ldr	r3, [r7, #4]
 80042f0:	6c1b      	ldr	r3, [r3, #64]	; 0x40
 80042f2:	2b00      	cmp	r3, #0
 80042f4:	d024      	beq.n	8004340 <HAL_DMA_IRQHandler+0x170>
          {
            /* Half transfer callback */
            hdma->XferHalfCpltCallback(hdma);
 80042f6:	687b      	ldr	r3, [r7, #4]
 80042f8:	6c1b      	ldr	r3, [r3, #64]	; 0x40
 80042fa:	6878      	ldr	r0, [r7, #4]
 80042fc:	4798      	blx	r3
 80042fe:	e01f      	b.n	8004340 <HAL_DMA_IRQHandler+0x170>
          }
        }
        /* Current memory buffer used is Memory 1 */
        else
        {
          if(hdma->XferM1HalfCpltCallback != NULL)
 8004300:	687b      	ldr	r3, [r7, #4]
 8004302:	6c9b      	ldr	r3, [r3, #72]	; 0x48
 8004304:	2b00      	cmp	r3, #0
 8004306:	d01b      	beq.n	8004340 <HAL_DMA_IRQHandler+0x170>
          {
            /* Half transfer callback */
            hdma->XferM1HalfCpltCallback(hdma);
 8004308:	687b      	ldr	r3, [r7, #4]
 800430a:	6c9b      	ldr	r3, [r3, #72]	; 0x48
 800430c:	6878      	ldr	r0, [r7, #4]
 800430e:	4798      	blx	r3
 8004310:	e016      	b.n	8004340 <HAL_DMA_IRQHandler+0x170>
        }
      }
      else
      {
        /* Disable the half transfer interrupt if the DMA mode is not CIRCULAR */
        if((hdma->Instance->CR & DMA_SxCR_CIRC) == RESET)
 8004312:	687b      	ldr	r3, [r7, #4]
 8004314:	681b      	ldr	r3, [r3, #0]
 8004316:	681b      	ldr	r3, [r3, #0]
 8004318:	f403 7380 	and.w	r3, r3, #256	; 0x100
 800431c:	2b00      	cmp	r3, #0
 800431e:	d107      	bne.n	8004330 <HAL_DMA_IRQHandler+0x160>
        {
          /* Disable the half transfer interrupt */
          hdma->Instance->CR  &= ~(DMA_IT_HT);
 8004320:	687b      	ldr	r3, [r7, #4]
 8004322:	681b      	ldr	r3, [r3, #0]
 8004324:	681a      	ldr	r2, [r3, #0]
 8004326:	687b      	ldr	r3, [r7, #4]
 8004328:	681b      	ldr	r3, [r3, #0]
 800432a:	f022 0208 	bic.w	r2, r2, #8
 800432e:	601a      	str	r2, [r3, #0]
        }
        
        if(hdma->XferHalfCpltCallback != NULL)
 8004330:	687b      	ldr	r3, [r7, #4]
 8004332:	6c1b      	ldr	r3, [r3, #64]	; 0x40
 8004334:	2b00      	cmp	r3, #0
 8004336:	d003      	beq.n	8004340 <HAL_DMA_IRQHandler+0x170>
        {
          /* Half transfer callback */
          hdma->XferHalfCpltCallback(hdma);
 8004338:	687b      	ldr	r3, [r7, #4]
 800433a:	6c1b      	ldr	r3, [r3, #64]	; 0x40
 800433c:	6878      	ldr	r0, [r7, #4]
 800433e:	4798      	blx	r3
        }
      }
    }
  }
  /* Transfer Complete Interrupt management ***********************************/
  if ((tmpisr & (DMA_FLAG_TCIF0_4 << hdma->StreamIndex)) != RESET)
 8004340:	687b      	ldr	r3, [r7, #4]
 8004342:	6ddb      	ldr	r3, [r3, #92]	; 0x5c
 8004344:	2220      	movs	r2, #32
 8004346:	409a      	lsls	r2, r3
 8004348:	68fb      	ldr	r3, [r7, #12]
 800434a:	4013      	ands	r3, r2
 800434c:	2b00      	cmp	r3, #0
 800434e:	f000 808f 	beq.w	8004470 <HAL_DMA_IRQHandler+0x2a0>
  {
    if(__HAL_DMA_GET_IT_SOURCE(hdma, DMA_IT_TC) != RESET)
 8004352:	687b      	ldr	r3, [r7, #4]
 8004354:	681b      	ldr	r3, [r3, #0]
 8004356:	681b      	ldr	r3, [r3, #0]
 8004358:	f003 0310 	and.w	r3, r3, #16
 800435c:	2b00      	cmp	r3, #0
 800435e:	f000 8087 	beq.w	8004470 <HAL_DMA_IRQHandler+0x2a0>
    {
      /* Clear the transfer complete flag */
      regs->IFCR = DMA_FLAG_TCIF0_4 << hdma->StreamIndex;
 8004362:	687b      	ldr	r3, [r7, #4]
 8004364:	6ddb      	ldr	r3, [r3, #92]	; 0x5c
 8004366:	2220      	movs	r2, #32
 8004368:	409a      	lsls	r2, r3
 800436a:	693b      	ldr	r3, [r7, #16]
 800436c:	609a      	str	r2, [r3, #8]
      
      if(HAL_DMA_STATE_ABORT == hdma->State)
 800436e:	687b      	ldr	r3, [r7, #4]
 8004370:	f893 3035 	ldrb.w	r3, [r3, #53]	; 0x35
 8004374:	b2db      	uxtb	r3, r3
 8004376:	2b05      	cmp	r3, #5
 8004378:	d136      	bne.n	80043e8 <HAL_DMA_IRQHandler+0x218>
      {
        /* Disable all the transfer interrupts */
        hdma->Instance->CR  &= ~(DMA_IT_TC | DMA_IT_TE | DMA_IT_DME);
 800437a:	687b      	ldr	r3, [r7, #4]
 800437c:	681b      	ldr	r3, [r3, #0]
 800437e:	681a      	ldr	r2, [r3, #0]
 8004380:	687b      	ldr	r3, [r7, #4]
 8004382:	681b      	ldr	r3, [r3, #0]
 8004384:	f022 0216 	bic.w	r2, r2, #22
 8004388:	601a      	str	r2, [r3, #0]
        hdma->Instance->FCR &= ~(DMA_IT_FE);
 800438a:	687b      	ldr	r3, [r7, #4]
 800438c:	681b      	ldr	r3, [r3, #0]
 800438e:	695a      	ldr	r2, [r3, #20]
 8004390:	687b      	ldr	r3, [r7, #4]
 8004392:	681b      	ldr	r3, [r3, #0]
 8004394:	f022 0280 	bic.w	r2, r2, #128	; 0x80
 8004398:	615a      	str	r2, [r3, #20]
        
        if((hdma->XferHalfCpltCallback != NULL) || (hdma->XferM1HalfCpltCallback != NULL))
 800439a:	687b      	ldr	r3, [r7, #4]
 800439c:	6c1b      	ldr	r3, [r3, #64]	; 0x40
 800439e:	2b00      	cmp	r3, #0
 80043a0:	d103      	bne.n	80043aa <HAL_DMA_IRQHandler+0x1da>
 80043a2:	687b      	ldr	r3, [r7, #4]
 80043a4:	6c9b      	ldr	r3, [r3, #72]	; 0x48
 80043a6:	2b00      	cmp	r3, #0
 80043a8:	d007      	beq.n	80043ba <HAL_DMA_IRQHandler+0x1ea>
        {
          hdma->Instance->CR  &= ~(DMA_IT_HT);
 80043aa:	687b      	ldr	r3, [r7, #4]
 80043ac:	681b      	ldr	r3, [r3, #0]
 80043ae:	681a      	ldr	r2, [r3, #0]
 80043b0:	687b      	ldr	r3, [r7, #4]
 80043b2:	681b      	ldr	r3, [r3, #0]
 80043b4:	f022 0208 	bic.w	r2, r2, #8
 80043b8:	601a      	str	r2, [r3, #0]
        }

        /* Clear all interrupt flags at correct offset within the register */
        regs->IFCR = 0x3FU << hdma->StreamIndex;
 80043ba:	687b      	ldr	r3, [r7, #4]
 80043bc:	6ddb      	ldr	r3, [r3, #92]	; 0x5c
 80043be:	223f      	movs	r2, #63	; 0x3f
 80043c0:	409a      	lsls	r2, r3
 80043c2:	693b      	ldr	r3, [r7, #16]
 80043c4:	609a      	str	r2, [r3, #8]

        /* Change the DMA state */
        hdma->State = HAL_DMA_STATE_READY;
 80043c6:	687b      	ldr	r3, [r7, #4]
 80043c8:	2201      	movs	r2, #1
 80043ca:	f883 2035 	strb.w	r2, [r3, #53]	; 0x35

        /* Process Unlocked */
        __HAL_UNLOCK(hdma);
 80043ce:	687b      	ldr	r3, [r7, #4]
 80043d0:	2200      	movs	r2, #0
 80043d2:	f883 2034 	strb.w	r2, [r3, #52]	; 0x34

        if(hdma->XferAbortCallback != NULL)
 80043d6:	687b      	ldr	r3, [r7, #4]
 80043d8:	6d1b      	ldr	r3, [r3, #80]	; 0x50
 80043da:	2b00      	cmp	r3, #0
 80043dc:	d07e      	beq.n	80044dc <HAL_DMA_IRQHandler+0x30c>
        {
          hdma->XferAbortCallback(hdma);
 80043de:	687b      	ldr	r3, [r7, #4]
 80043e0:	6d1b      	ldr	r3, [r3, #80]	; 0x50
 80043e2:	6878      	ldr	r0, [r7, #4]
 80043e4:	4798      	blx	r3
        }
        return;
 80043e6:	e079      	b.n	80044dc <HAL_DMA_IRQHandler+0x30c>
      }

      if(((hdma->Instance->CR) & (uint32_t)(DMA_SxCR_DBM)) != RESET)
 80043e8:	687b      	ldr	r3, [r7, #4]
 80043ea:	681b      	ldr	r3, [r3, #0]
 80043ec:	681b      	ldr	r3, [r3, #0]
 80043ee:	f403 2380 	and.w	r3, r3, #262144	; 0x40000
 80043f2:	2b00      	cmp	r3, #0
 80043f4:	d01d      	beq.n	8004432 <HAL_DMA_IRQHandler+0x262>
      {
        /* Current memory buffer used is Memory 0 */
        if((hdma->Instance->CR & DMA_SxCR_CT) == RESET)
 80043f6:	687b      	ldr	r3, [r7, #4]
 80043f8:	681b      	ldr	r3, [r3, #0]
 80043fa:	681b      	ldr	r3, [r3, #0]
 80043fc:	f403 2300 	and.w	r3, r3, #524288	; 0x80000
 8004400:	2b00      	cmp	r3, #0
 8004402:	d10d      	bne.n	8004420 <HAL_DMA_IRQHandler+0x250>
        {
          if(hdma->XferM1CpltCallback != NULL)
 8004404:	687b      	ldr	r3, [r7, #4]
 8004406:	6c5b      	ldr	r3, [r3, #68]	; 0x44
 8004408:	2b00      	cmp	r3, #0
 800440a:	d031      	beq.n	8004470 <HAL_DMA_IRQHandler+0x2a0>
          {
            /* Transfer complete Callback for memory1 */
            hdma->XferM1CpltCallback(hdma);
 800440c:	687b      	ldr	r3, [r7, #4]
 800440e:	6c5b      	ldr	r3, [r3, #68]	; 0x44
 8004410:	6878      	ldr	r0, [r7, #4]
 8004412:	4798      	blx	r3
 8004414:	e02c      	b.n	8004470 <HAL_DMA_IRQHandler+0x2a0>
 8004416:	bf00      	nop
 8004418:	2000001c 	.word	0x2000001c
 800441c:	1b4e81b5 	.word	0x1b4e81b5
          }
        }
        /* Current memory buffer used is Memory 1 */
        else
        {
          if(hdma->XferCpltCallback != NULL)
 8004420:	687b      	ldr	r3, [r7, #4]
 8004422:	6bdb      	ldr	r3, [r3, #60]	; 0x3c
 8004424:	2b00      	cmp	r3, #0
 8004426:	d023      	beq.n	8004470 <HAL_DMA_IRQHandler+0x2a0>
          {
            /* Transfer complete Callback for memory0 */
            hdma->XferCpltCallback(hdma);
 8004428:	687b      	ldr	r3, [r7, #4]
 800442a:	6bdb      	ldr	r3, [r3, #60]	; 0x3c
 800442c:	6878      	ldr	r0, [r7, #4]
 800442e:	4798      	blx	r3
 8004430:	e01e      	b.n	8004470 <HAL_DMA_IRQHandler+0x2a0>
        }
      }
      /* Disable the transfer complete interrupt if the DMA mode is not CIRCULAR */
      else
      {
        if((hdma->Instance->CR & DMA_SxCR_CIRC) == RESET)
 8004432:	687b      	ldr	r3, [r7, #4]
 8004434:	681b      	ldr	r3, [r3, #0]
 8004436:	681b      	ldr	r3, [r3, #0]
 8004438:	f403 7380 	and.w	r3, r3, #256	; 0x100
 800443c:	2b00      	cmp	r3, #0
 800443e:	d10f      	bne.n	8004460 <HAL_DMA_IRQHandler+0x290>
        {
          /* Disable the transfer complete interrupt */
          hdma->Instance->CR  &= ~(DMA_IT_TC);
 8004440:	687b      	ldr	r3, [r7, #4]
 8004442:	681b      	ldr	r3, [r3, #0]
 8004444:	681a      	ldr	r2, [r3, #0]
 8004446:	687b      	ldr	r3, [r7, #4]
 8004448:	681b      	ldr	r3, [r3, #0]
 800444a:	f022 0210 	bic.w	r2, r2, #16
 800444e:	601a      	str	r2, [r3, #0]

          /* Change the DMA state */
          hdma->State = HAL_DMA_STATE_READY;
 8004450:	687b      	ldr	r3, [r7, #4]
 8004452:	2201      	movs	r2, #1
 8004454:	f883 2035 	strb.w	r2, [r3, #53]	; 0x35

          /* Process Unlocked */
          __HAL_UNLOCK(hdma);
 8004458:	687b      	ldr	r3, [r7, #4]
 800445a:	2200      	movs	r2, #0
 800445c:	f883 2034 	strb.w	r2, [r3, #52]	; 0x34
        }

        if(hdma->XferCpltCallback != NULL)
 8004460:	687b      	ldr	r3, [r7, #4]
 8004462:	6bdb      	ldr	r3, [r3, #60]	; 0x3c
 8004464:	2b00      	cmp	r3, #0
 8004466:	d003      	beq.n	8004470 <HAL_DMA_IRQHandler+0x2a0>
        {
          /* Transfer complete callback */
          hdma->XferCpltCallback(hdma);
 8004468:	687b      	ldr	r3, [r7, #4]
 800446a:	6bdb      	ldr	r3, [r3, #60]	; 0x3c
 800446c:	6878      	ldr	r0, [r7, #4]
 800446e:	4798      	blx	r3
      }
    }
  }
  
  /* manage error case */
  if(hdma->ErrorCode != HAL_DMA_ERROR_NONE)
 8004470:	687b      	ldr	r3, [r7, #4]
 8004472:	6d5b      	ldr	r3, [r3, #84]	; 0x54
 8004474:	2b00      	cmp	r3, #0
 8004476:	d032      	beq.n	80044de <HAL_DMA_IRQHandler+0x30e>
  {
    if((hdma->ErrorCode & HAL_DMA_ERROR_TE) != RESET)
 8004478:	687b      	ldr	r3, [r7, #4]
 800447a:	6d5b      	ldr	r3, [r3, #84]	; 0x54
 800447c:	f003 0301 	and.w	r3, r3, #1
 8004480:	2b00      	cmp	r3, #0
 8004482:	d022      	beq.n	80044ca <HAL_DMA_IRQHandler+0x2fa>
    {
      hdma->State = HAL_DMA_STATE_ABORT;
 8004484:	687b      	ldr	r3, [r7, #4]
 8004486:	2205      	movs	r2, #5
 8004488:	f883 2035 	strb.w	r2, [r3, #53]	; 0x35

      /* Disable the stream */
      __HAL_DMA_DISABLE(hdma);
 800448c:	687b      	ldr	r3, [r7, #4]
 800448e:	681b      	ldr	r3, [r3, #0]
 8004490:	681a      	ldr	r2, [r3, #0]
 8004492:	687b      	ldr	r3, [r7, #4]
 8004494:	681b      	ldr	r3, [r3, #0]
 8004496:	f022 0201 	bic.w	r2, r2, #1
 800449a:	601a      	str	r2, [r3, #0]

      do
      {
        if (++count > timeout)
 800449c:	68bb      	ldr	r3, [r7, #8]
 800449e:	3301      	adds	r3, #1
 80044a0:	60bb      	str	r3, [r7, #8]
 80044a2:	697a      	ldr	r2, [r7, #20]
 80044a4:	429a      	cmp	r2, r3
 80044a6:	d307      	bcc.n	80044b8 <HAL_DMA_IRQHandler+0x2e8>
        {
          break;
        }
      }
      while((hdma->Instance->CR & DMA_SxCR_EN) != RESET);
 80044a8:	687b      	ldr	r3, [r7, #4]
 80044aa:	681b      	ldr	r3, [r3, #0]
 80044ac:	681b      	ldr	r3, [r3, #0]
 80044ae:	f003 0301 	and.w	r3, r3, #1
 80044b2:	2b00      	cmp	r3, #0
 80044b4:	d1f2      	bne.n	800449c <HAL_DMA_IRQHandler+0x2cc>
 80044b6:	e000      	b.n	80044ba <HAL_DMA_IRQHandler+0x2ea>
          break;
 80044b8:	bf00      	nop

      /* Change the DMA state */
      hdma->State = HAL_DMA_STATE_READY;
 80044ba:	687b      	ldr	r3, [r7, #4]
 80044bc:	2201      	movs	r2, #1
 80044be:	f883 2035 	strb.w	r2, [r3, #53]	; 0x35

      /* Process Unlocked */
      __HAL_UNLOCK(hdma);
 80044c2:	687b      	ldr	r3, [r7, #4]
 80044c4:	2200      	movs	r2, #0
 80044c6:	f883 2034 	strb.w	r2, [r3, #52]	; 0x34
    }

    if(hdma->XferErrorCallback != NULL)
 80044ca:	687b      	ldr	r3, [r7, #4]
 80044cc:	6cdb      	ldr	r3, [r3, #76]	; 0x4c
 80044ce:	2b00      	cmp	r3, #0
 80044d0:	d005      	beq.n	80044de <HAL_DMA_IRQHandler+0x30e>
    {
      /* Transfer error callback */
      hdma->XferErrorCallback(hdma);
 80044d2:	687b      	ldr	r3, [r7, #4]
 80044d4:	6cdb      	ldr	r3, [r3, #76]	; 0x4c
 80044d6:	6878      	ldr	r0, [r7, #4]
 80044d8:	4798      	blx	r3
 80044da:	e000      	b.n	80044de <HAL_DMA_IRQHandler+0x30e>
        return;
 80044dc:	bf00      	nop
    }
  }
}
 80044de:	3718      	adds	r7, #24
 80044e0:	46bd      	mov	sp, r7
 80044e2:	bd80      	pop	{r7, pc}

080044e4 <DMA_SetConfig>:
  * @param  DstAddress The destination memory Buffer address
  * @param  DataLength The length of data to be transferred from source to destination
  * @retval HAL status
  */
static void DMA_SetConfig(DMA_HandleTypeDef *hdma, uint32_t SrcAddress, uint32_t DstAddress, uint32_t DataLength)
{
 80044e4:	b480      	push	{r7}
 80044e6:	b085      	sub	sp, #20
 80044e8:	af00      	add	r7, sp, #0
 80044ea:	60f8      	str	r0, [r7, #12]
 80044ec:	60b9      	str	r1, [r7, #8]
 80044ee:	607a      	str	r2, [r7, #4]
 80044f0:	603b      	str	r3, [r7, #0]
  /* Clear DBM bit */
  hdma->Instance->CR &= (uint32_t)(~DMA_SxCR_DBM);
 80044f2:	68fb      	ldr	r3, [r7, #12]
 80044f4:	681b      	ldr	r3, [r3, #0]
 80044f6:	681a      	ldr	r2, [r3, #0]
 80044f8:	68fb      	ldr	r3, [r7, #12]
 80044fa:	681b      	ldr	r3, [r3, #0]
 80044fc:	f422 2280 	bic.w	r2, r2, #262144	; 0x40000
 8004500:	601a      	str	r2, [r3, #0]

  /* Configure DMA Stream data length */
  hdma->Instance->NDTR = DataLength;
 8004502:	68fb      	ldr	r3, [r7, #12]
 8004504:	681b      	ldr	r3, [r3, #0]
 8004506:	683a      	ldr	r2, [r7, #0]
 8004508:	605a      	str	r2, [r3, #4]

  /* Memory to Peripheral */
  if((hdma->Init.Direction) == DMA_MEMORY_TO_PERIPH)
 800450a:	68fb      	ldr	r3, [r7, #12]
 800450c:	689b      	ldr	r3, [r3, #8]
 800450e:	2b40      	cmp	r3, #64	; 0x40
 8004510:	d108      	bne.n	8004524 <DMA_SetConfig+0x40>
  {
    /* Configure DMA Stream destination address */
    hdma->Instance->PAR = DstAddress;
 8004512:	68fb      	ldr	r3, [r7, #12]
 8004514:	681b      	ldr	r3, [r3, #0]
 8004516:	687a      	ldr	r2, [r7, #4]
 8004518:	609a      	str	r2, [r3, #8]

    /* Configure DMA Stream source address */
    hdma->Instance->M0AR = SrcAddress;
 800451a:	68fb      	ldr	r3, [r7, #12]
 800451c:	681b      	ldr	r3, [r3, #0]
 800451e:	68ba      	ldr	r2, [r7, #8]
 8004520:	60da      	str	r2, [r3, #12]
    hdma->Instance->PAR = SrcAddress;

    /* Configure DMA Stream destination address */
    hdma->Instance->M0AR = DstAddress;
  }
}
 8004522:	e007      	b.n	8004534 <DMA_SetConfig+0x50>
    hdma->Instance->PAR = SrcAddress;
 8004524:	68fb      	ldr	r3, [r7, #12]
 8004526:	681b      	ldr	r3, [r3, #0]
 8004528:	68ba      	ldr	r2, [r7, #8]
 800452a:	609a      	str	r2, [r3, #8]
    hdma->Instance->M0AR = DstAddress;
 800452c:	68fb      	ldr	r3, [r7, #12]
 800452e:	681b      	ldr	r3, [r3, #0]
 8004530:	687a      	ldr	r2, [r7, #4]
 8004532:	60da      	str	r2, [r3, #12]
}
 8004534:	bf00      	nop
 8004536:	3714      	adds	r7, #20
 8004538:	46bd      	mov	sp, r7
 800453a:	f85d 7b04 	ldr.w	r7, [sp], #4
 800453e:	4770      	bx	lr

08004540 <DMA_CalcBaseAndBitshift>:
  * @param  hdma       pointer to a DMA_HandleTypeDef structure that contains
  *                     the configuration information for the specified DMA Stream. 
  * @retval Stream base address
  */
static uint32_t DMA_CalcBaseAndBitshift(DMA_HandleTypeDef *hdma)
{
 8004540:	b480      	push	{r7}
 8004542:	b085      	sub	sp, #20
 8004544:	af00      	add	r7, sp, #0
 8004546:	6078      	str	r0, [r7, #4]
  uint32_t stream_number = (((uint32_t)hdma->Instance & 0xFFU) - 16U) / 24U;
 8004548:	687b      	ldr	r3, [r7, #4]
 800454a:	681b      	ldr	r3, [r3, #0]
 800454c:	b2db      	uxtb	r3, r3
 800454e:	3b10      	subs	r3, #16
 8004550:	4a14      	ldr	r2, [pc, #80]	; (80045a4 <DMA_CalcBaseAndBitshift+0x64>)
 8004552:	fba2 2303 	umull	r2, r3, r2, r3
 8004556:	091b      	lsrs	r3, r3, #4
 8004558:	60fb      	str	r3, [r7, #12]
  
  /* lookup table for necessary bitshift of flags within status registers */
  static const uint8_t flagBitshiftOffset[8U] = {0U, 6U, 16U, 22U, 0U, 6U, 16U, 22U};
  hdma->StreamIndex = flagBitshiftOffset[stream_number];
 800455a:	4a13      	ldr	r2, [pc, #76]	; (80045a8 <DMA_CalcBaseAndBitshift+0x68>)
 800455c:	68fb      	ldr	r3, [r7, #12]
 800455e:	4413      	add	r3, r2
 8004560:	781b      	ldrb	r3, [r3, #0]
 8004562:	461a      	mov	r2, r3
 8004564:	687b      	ldr	r3, [r7, #4]
 8004566:	65da      	str	r2, [r3, #92]	; 0x5c
  
  if (stream_number > 3U)
 8004568:	68fb      	ldr	r3, [r7, #12]
 800456a:	2b03      	cmp	r3, #3
 800456c:	d909      	bls.n	8004582 <DMA_CalcBaseAndBitshift+0x42>
  {
    /* return pointer to HISR and HIFCR */
    hdma->StreamBaseAddress = (((uint32_t)hdma->Instance & (uint32_t)(~0x3FFU)) + 4U);
 800456e:	687b      	ldr	r3, [r7, #4]
 8004570:	681b      	ldr	r3, [r3, #0]
 8004572:	f423 737f 	bic.w	r3, r3, #1020	; 0x3fc
 8004576:	f023 0303 	bic.w	r3, r3, #3
 800457a:	1d1a      	adds	r2, r3, #4
 800457c:	687b      	ldr	r3, [r7, #4]
 800457e:	659a      	str	r2, [r3, #88]	; 0x58
 8004580:	e007      	b.n	8004592 <DMA_CalcBaseAndBitshift+0x52>
  }
  else
  {
    /* return pointer to LISR and LIFCR */
    hdma->StreamBaseAddress = ((uint32_t)hdma->Instance & (uint32_t)(~0x3FFU));
 8004582:	687b      	ldr	r3, [r7, #4]
 8004584:	681b      	ldr	r3, [r3, #0]
 8004586:	f423 737f 	bic.w	r3, r3, #1020	; 0x3fc
 800458a:	f023 0303 	bic.w	r3, r3, #3
 800458e:	687a      	ldr	r2, [r7, #4]
 8004590:	6593      	str	r3, [r2, #88]	; 0x58
  }
  
  return hdma->StreamBaseAddress;
 8004592:	687b      	ldr	r3, [r7, #4]
 8004594:	6d9b      	ldr	r3, [r3, #88]	; 0x58
}
 8004596:	4618      	mov	r0, r3
 8004598:	3714      	adds	r7, #20
 800459a:	46bd      	mov	sp, r7
 800459c:	f85d 7b04 	ldr.w	r7, [sp], #4
 80045a0:	4770      	bx	lr
 80045a2:	bf00      	nop
 80045a4:	aaaaaaab 	.word	0xaaaaaaab
 80045a8:	0800940c 	.word	0x0800940c

080045ac <DMA_CheckFifoParam>:
  * @param  hdma       pointer to a DMA_HandleTypeDef structure that contains
  *                     the configuration information for the specified DMA Stream. 
  * @retval HAL status
  */
static HAL_StatusTypeDef DMA_CheckFifoParam(DMA_HandleTypeDef *hdma)
{
 80045ac:	b480      	push	{r7}
 80045ae:	b085      	sub	sp, #20
 80045b0:	af00      	add	r7, sp, #0
 80045b2:	6078      	str	r0, [r7, #4]
  HAL_StatusTypeDef status = HAL_OK;
 80045b4:	2300      	movs	r3, #0
 80045b6:	73fb      	strb	r3, [r7, #15]
  uint32_t tmp = hdma->Init.FIFOThreshold;
 80045b8:	687b      	ldr	r3, [r7, #4]
 80045ba:	6a9b      	ldr	r3, [r3, #40]	; 0x28
 80045bc:	60bb      	str	r3, [r7, #8]
  
  /* Memory Data size equal to Byte */
  if(hdma->Init.MemDataAlignment == DMA_MDATAALIGN_BYTE)
 80045be:	687b      	ldr	r3, [r7, #4]
 80045c0:	699b      	ldr	r3, [r3, #24]
 80045c2:	2b00      	cmp	r3, #0
 80045c4:	d11f      	bne.n	8004606 <DMA_CheckFifoParam+0x5a>
  {
    switch (tmp)
 80045c6:	68bb      	ldr	r3, [r7, #8]
 80045c8:	2b03      	cmp	r3, #3
 80045ca:	d856      	bhi.n	800467a <DMA_CheckFifoParam+0xce>
 80045cc:	a201      	add	r2, pc, #4	; (adr r2, 80045d4 <DMA_CheckFifoParam+0x28>)
 80045ce:	f852 f023 	ldr.w	pc, [r2, r3, lsl #2]
 80045d2:	bf00      	nop
 80045d4:	080045e5 	.word	0x080045e5
 80045d8:	080045f7 	.word	0x080045f7
 80045dc:	080045e5 	.word	0x080045e5
 80045e0:	0800467b 	.word	0x0800467b
    {
    case DMA_FIFO_THRESHOLD_1QUARTERFULL:
    case DMA_FIFO_THRESHOLD_3QUARTERSFULL:
      if ((hdma->Init.MemBurst & DMA_SxCR_MBURST_1) == DMA_SxCR_MBURST_1)
 80045e4:	687b      	ldr	r3, [r7, #4]
 80045e6:	6adb      	ldr	r3, [r3, #44]	; 0x2c
 80045e8:	f003 7380 	and.w	r3, r3, #16777216	; 0x1000000
 80045ec:	2b00      	cmp	r3, #0
 80045ee:	d046      	beq.n	800467e <DMA_CheckFifoParam+0xd2>
      {
        status = HAL_ERROR;
 80045f0:	2301      	movs	r3, #1
 80045f2:	73fb      	strb	r3, [r7, #15]
      }
      break;
 80045f4:	e043      	b.n	800467e <DMA_CheckFifoParam+0xd2>
    case DMA_FIFO_THRESHOLD_HALFFULL:
      if (hdma->Init.MemBurst == DMA_MBURST_INC16)
 80045f6:	687b      	ldr	r3, [r7, #4]
 80045f8:	6adb      	ldr	r3, [r3, #44]	; 0x2c
 80045fa:	f1b3 7fc0 	cmp.w	r3, #25165824	; 0x1800000
 80045fe:	d140      	bne.n	8004682 <DMA_CheckFifoParam+0xd6>
      {
        status = HAL_ERROR;
 8004600:	2301      	movs	r3, #1
 8004602:	73fb      	strb	r3, [r7, #15]
      }
      break;
 8004604:	e03d      	b.n	8004682 <DMA_CheckFifoParam+0xd6>
      break;
    }
  }
  
  /* Memory Data size equal to Half-Word */
  else if (hdma->Init.MemDataAlignment == DMA_MDATAALIGN_HALFWORD)
 8004606:	687b      	ldr	r3, [r7, #4]
 8004608:	699b      	ldr	r3, [r3, #24]
 800460a:	f5b3 5f00 	cmp.w	r3, #8192	; 0x2000
 800460e:	d121      	bne.n	8004654 <DMA_CheckFifoParam+0xa8>
  {
    switch (tmp)
 8004610:	68bb      	ldr	r3, [r7, #8]
 8004612:	2b03      	cmp	r3, #3
 8004614:	d837      	bhi.n	8004686 <DMA_CheckFifoParam+0xda>
 8004616:	a201      	add	r2, pc, #4	; (adr r2, 800461c <DMA_CheckFifoParam+0x70>)
 8004618:	f852 f023 	ldr.w	pc, [r2, r3, lsl #2]
 800461c:	0800462d 	.word	0x0800462d
 8004620:	08004633 	.word	0x08004633
 8004624:	0800462d 	.word	0x0800462d
 8004628:	08004645 	.word	0x08004645
    {
    case DMA_FIFO_THRESHOLD_1QUARTERFULL:
    case DMA_FIFO_THRESHOLD_3QUARTERSFULL:
      status = HAL_ERROR;
 800462c:	2301      	movs	r3, #1
 800462e:	73fb      	strb	r3, [r7, #15]
      break;
 8004630:	e030      	b.n	8004694 <DMA_CheckFifoParam+0xe8>
    case DMA_FIFO_THRESHOLD_HALFFULL:
      if ((hdma->Init.MemBurst & DMA_SxCR_MBURST_1) == DMA_SxCR_MBURST_1)
 8004632:	687b      	ldr	r3, [r7, #4]
 8004634:	6adb      	ldr	r3, [r3, #44]	; 0x2c
 8004636:	f003 7380 	and.w	r3, r3, #16777216	; 0x1000000
 800463a:	2b00      	cmp	r3, #0
 800463c:	d025      	beq.n	800468a <DMA_CheckFifoParam+0xde>
      {
        status = HAL_ERROR;
 800463e:	2301      	movs	r3, #1
 8004640:	73fb      	strb	r3, [r7, #15]
      }
      break;
 8004642:	e022      	b.n	800468a <DMA_CheckFifoParam+0xde>
    case DMA_FIFO_THRESHOLD_FULL:
      if (hdma->Init.MemBurst == DMA_MBURST_INC16)
 8004644:	687b      	ldr	r3, [r7, #4]
 8004646:	6adb      	ldr	r3, [r3, #44]	; 0x2c
 8004648:	f1b3 7fc0 	cmp.w	r3, #25165824	; 0x1800000
 800464c:	d11f      	bne.n	800468e <DMA_CheckFifoParam+0xe2>
      {
        status = HAL_ERROR;
 800464e:	2301      	movs	r3, #1
 8004650:	73fb      	strb	r3, [r7, #15]
      }
      break;   
 8004652:	e01c      	b.n	800468e <DMA_CheckFifoParam+0xe2>
  }
  
  /* Memory Data size equal to Word */
  else
  {
    switch (tmp)
 8004654:	68bb      	ldr	r3, [r7, #8]
 8004656:	2b02      	cmp	r3, #2
 8004658:	d903      	bls.n	8004662 <DMA_CheckFifoParam+0xb6>
 800465a:	68bb      	ldr	r3, [r7, #8]
 800465c:	2b03      	cmp	r3, #3
 800465e:	d003      	beq.n	8004668 <DMA_CheckFifoParam+0xbc>
      {
        status = HAL_ERROR;
      }
      break;
    default:
      break;
 8004660:	e018      	b.n	8004694 <DMA_CheckFifoParam+0xe8>
      status = HAL_ERROR;
 8004662:	2301      	movs	r3, #1
 8004664:	73fb      	strb	r3, [r7, #15]
      break;
 8004666:	e015      	b.n	8004694 <DMA_CheckFifoParam+0xe8>
      if ((hdma->Init.MemBurst & DMA_SxCR_MBURST_1) == DMA_SxCR_MBURST_1)
 8004668:	687b      	ldr	r3, [r7, #4]
 800466a:	6adb      	ldr	r3, [r3, #44]	; 0x2c
 800466c:	f003 7380 	and.w	r3, r3, #16777216	; 0x1000000
 8004670:	2b00      	cmp	r3, #0
 8004672:	d00e      	beq.n	8004692 <DMA_CheckFifoParam+0xe6>
        status = HAL_ERROR;
 8004674:	2301      	movs	r3, #1
 8004676:	73fb      	strb	r3, [r7, #15]
      break;
 8004678:	e00b      	b.n	8004692 <DMA_CheckFifoParam+0xe6>
      break;
 800467a:	bf00      	nop
 800467c:	e00a      	b.n	8004694 <DMA_CheckFifoParam+0xe8>
      break;
 800467e:	bf00      	nop
 8004680:	e008      	b.n	8004694 <DMA_CheckFifoParam+0xe8>
      break;
 8004682:	bf00      	nop
 8004684:	e006      	b.n	8004694 <DMA_CheckFifoParam+0xe8>
      break;
 8004686:	bf00      	nop
 8004688:	e004      	b.n	8004694 <DMA_CheckFifoParam+0xe8>
      break;
 800468a:	bf00      	nop
 800468c:	e002      	b.n	8004694 <DMA_CheckFifoParam+0xe8>
      break;   
 800468e:	bf00      	nop
 8004690:	e000      	b.n	8004694 <DMA_CheckFifoParam+0xe8>
      break;
 8004692:	bf00      	nop
    }
  } 
  
  return status; 
 8004694:	7bfb      	ldrb	r3, [r7, #15]
}
 8004696:	4618      	mov	r0, r3
 8004698:	3714      	adds	r7, #20
 800469a:	46bd      	mov	sp, r7
 800469c:	f85d 7b04 	ldr.w	r7, [sp], #4
 80046a0:	4770      	bx	lr
 80046a2:	bf00      	nop

080046a4 <HAL_GPIO_Init>:
  * @param  GPIO_Init pointer to a GPIO_InitTypeDef structure that contains
  *         the configuration information for the specified GPIO peripheral.
  * @retval None
  */
void HAL_GPIO_Init(GPIO_TypeDef  *GPIOx, GPIO_InitTypeDef *GPIO_Init)
{
 80046a4:	b480      	push	{r7}
 80046a6:	b089      	sub	sp, #36	; 0x24
 80046a8:	af00      	add	r7, sp, #0
 80046aa:	6078      	str	r0, [r7, #4]
 80046ac:	6039      	str	r1, [r7, #0]
  uint32_t position;
  uint32_t ioposition = 0x00U;
 80046ae:	2300      	movs	r3, #0
 80046b0:	617b      	str	r3, [r7, #20]
  uint32_t iocurrent = 0x00U;
 80046b2:	2300      	movs	r3, #0
 80046b4:	613b      	str	r3, [r7, #16]
  uint32_t temp = 0x00U;
 80046b6:	2300      	movs	r3, #0
 80046b8:	61bb      	str	r3, [r7, #24]
  assert_param(IS_GPIO_ALL_INSTANCE(GPIOx));
  assert_param(IS_GPIO_PIN(GPIO_Init->Pin));
  assert_param(IS_GPIO_MODE(GPIO_Init->Mode));

  /* Configure the port pins */
  for(position = 0U; position < GPIO_NUMBER; position++)
 80046ba:	2300      	movs	r3, #0
 80046bc:	61fb      	str	r3, [r7, #28]
 80046be:	e177      	b.n	80049b0 <HAL_GPIO_Init+0x30c>
  {
    /* Get the IO position */
    ioposition = 0x01U << position;
 80046c0:	2201      	movs	r2, #1
 80046c2:	69fb      	ldr	r3, [r7, #28]
 80046c4:	fa02 f303 	lsl.w	r3, r2, r3
 80046c8:	617b      	str	r3, [r7, #20]
    /* Get the current IO position */
    iocurrent = (uint32_t)(GPIO_Init->Pin) & ioposition;
 80046ca:	683b      	ldr	r3, [r7, #0]
 80046cc:	681b      	ldr	r3, [r3, #0]
 80046ce:	697a      	ldr	r2, [r7, #20]
 80046d0:	4013      	ands	r3, r2
 80046d2:	613b      	str	r3, [r7, #16]

    if(iocurrent == ioposition)
 80046d4:	693a      	ldr	r2, [r7, #16]
 80046d6:	697b      	ldr	r3, [r7, #20]
 80046d8:	429a      	cmp	r2, r3
 80046da:	f040 8166 	bne.w	80049aa <HAL_GPIO_Init+0x306>
    {
      /*--------------------- GPIO Mode Configuration ------------------------*/
      /* In case of Output or Alternate function mode selection */
      if(((GPIO_Init->Mode & GPIO_MODE) == MODE_OUTPUT) || \
 80046de:	683b      	ldr	r3, [r7, #0]
 80046e0:	685b      	ldr	r3, [r3, #4]
 80046e2:	f003 0303 	and.w	r3, r3, #3
 80046e6:	2b01      	cmp	r3, #1
 80046e8:	d005      	beq.n	80046f6 <HAL_GPIO_Init+0x52>
          (GPIO_Init->Mode & GPIO_MODE) == MODE_AF)
 80046ea:	683b      	ldr	r3, [r7, #0]
 80046ec:	685b      	ldr	r3, [r3, #4]
 80046ee:	f003 0303 	and.w	r3, r3, #3
      if(((GPIO_Init->Mode & GPIO_MODE) == MODE_OUTPUT) || \
 80046f2:	2b02      	cmp	r3, #2
 80046f4:	d130      	bne.n	8004758 <HAL_GPIO_Init+0xb4>
      {
        /* Check the Speed parameter */
        assert_param(IS_GPIO_SPEED(GPIO_Init->Speed));
        /* Configure the IO Speed */
        temp = GPIOx->OSPEEDR; 
 80046f6:	687b      	ldr	r3, [r7, #4]
 80046f8:	689b      	ldr	r3, [r3, #8]
 80046fa:	61bb      	str	r3, [r7, #24]
        temp &= ~(GPIO_OSPEEDER_OSPEEDR0 << (position * 2U));
 80046fc:	69fb      	ldr	r3, [r7, #28]
 80046fe:	005b      	lsls	r3, r3, #1
 8004700:	2203      	movs	r2, #3
 8004702:	fa02 f303 	lsl.w	r3, r2, r3
 8004706:	43db      	mvns	r3, r3
 8004708:	69ba      	ldr	r2, [r7, #24]
 800470a:	4013      	ands	r3, r2
 800470c:	61bb      	str	r3, [r7, #24]
        temp |= (GPIO_Init->Speed << (position * 2U));
 800470e:	683b      	ldr	r3, [r7, #0]
 8004710:	68da      	ldr	r2, [r3, #12]
 8004712:	69fb      	ldr	r3, [r7, #28]
 8004714:	005b      	lsls	r3, r3, #1
 8004716:	fa02 f303 	lsl.w	r3, r2, r3
 800471a:	69ba      	ldr	r2, [r7, #24]
 800471c:	4313      	orrs	r3, r2
 800471e:	61bb      	str	r3, [r7, #24]
        GPIOx->OSPEEDR = temp;
 8004720:	687b      	ldr	r3, [r7, #4]
 8004722:	69ba      	ldr	r2, [r7, #24]
 8004724:	609a      	str	r2, [r3, #8]

        /* Configure the IO Output Type */
        temp = GPIOx->OTYPER;
 8004726:	687b      	ldr	r3, [r7, #4]
 8004728:	685b      	ldr	r3, [r3, #4]
 800472a:	61bb      	str	r3, [r7, #24]
        temp &= ~(GPIO_OTYPER_OT_0 << position) ;
 800472c:	2201      	movs	r2, #1
 800472e:	69fb      	ldr	r3, [r7, #28]
 8004730:	fa02 f303 	lsl.w	r3, r2, r3
 8004734:	43db      	mvns	r3, r3
 8004736:	69ba      	ldr	r2, [r7, #24]
 8004738:	4013      	ands	r3, r2
 800473a:	61bb      	str	r3, [r7, #24]
        temp |= (((GPIO_Init->Mode & OUTPUT_TYPE) >> OUTPUT_TYPE_Pos) << position);
 800473c:	683b      	ldr	r3, [r7, #0]
 800473e:	685b      	ldr	r3, [r3, #4]
 8004740:	091b      	lsrs	r3, r3, #4
 8004742:	f003 0201 	and.w	r2, r3, #1
 8004746:	69fb      	ldr	r3, [r7, #28]
 8004748:	fa02 f303 	lsl.w	r3, r2, r3
 800474c:	69ba      	ldr	r2, [r7, #24]
 800474e:	4313      	orrs	r3, r2
 8004750:	61bb      	str	r3, [r7, #24]
        GPIOx->OTYPER = temp;
 8004752:	687b      	ldr	r3, [r7, #4]
 8004754:	69ba      	ldr	r2, [r7, #24]
 8004756:	605a      	str	r2, [r3, #4]
       }

      if((GPIO_Init->Mode & GPIO_MODE) != MODE_ANALOG)
 8004758:	683b      	ldr	r3, [r7, #0]
 800475a:	685b      	ldr	r3, [r3, #4]
 800475c:	f003 0303 	and.w	r3, r3, #3
 8004760:	2b03      	cmp	r3, #3
 8004762:	d017      	beq.n	8004794 <HAL_GPIO_Init+0xf0>
      {
        /* Check the parameters */
        assert_param(IS_GPIO_PULL(GPIO_Init->Pull));
        
        /* Activate the Pull-up or Pull down resistor for the current IO */
        temp = GPIOx->PUPDR;
 8004764:	687b      	ldr	r3, [r7, #4]
 8004766:	68db      	ldr	r3, [r3, #12]
 8004768:	61bb      	str	r3, [r7, #24]
        temp &= ~(GPIO_PUPDR_PUPDR0 << (position * 2U));
 800476a:	69fb      	ldr	r3, [r7, #28]
 800476c:	005b      	lsls	r3, r3, #1
 800476e:	2203      	movs	r2, #3
 8004770:	fa02 f303 	lsl.w	r3, r2, r3
 8004774:	43db      	mvns	r3, r3
 8004776:	69ba      	ldr	r2, [r7, #24]
 8004778:	4013      	ands	r3, r2
 800477a:	61bb      	str	r3, [r7, #24]
        temp |= ((GPIO_Init->Pull) << (position * 2U));
 800477c:	683b      	ldr	r3, [r7, #0]
 800477e:	689a      	ldr	r2, [r3, #8]
 8004780:	69fb      	ldr	r3, [r7, #28]
 8004782:	005b      	lsls	r3, r3, #1
 8004784:	fa02 f303 	lsl.w	r3, r2, r3
 8004788:	69ba      	ldr	r2, [r7, #24]
 800478a:	4313      	orrs	r3, r2
 800478c:	61bb      	str	r3, [r7, #24]
        GPIOx->PUPDR = temp;
 800478e:	687b      	ldr	r3, [r7, #4]
 8004790:	69ba      	ldr	r2, [r7, #24]
 8004792:	60da      	str	r2, [r3, #12]
      }

      /* In case of Alternate function mode selection */
      if((GPIO_Init->Mode & GPIO_MODE) == MODE_AF)
 8004794:	683b      	ldr	r3, [r7, #0]
 8004796:	685b      	ldr	r3, [r3, #4]
 8004798:	f003 0303 	and.w	r3, r3, #3
 800479c:	2b02      	cmp	r3, #2
 800479e:	d123      	bne.n	80047e8 <HAL_GPIO_Init+0x144>
      {
        /* Check the Alternate function parameter */
        assert_param(IS_GPIO_AF(GPIO_Init->Alternate));
        /* Configure Alternate function mapped with the current IO */
        temp = GPIOx->AFR[position >> 3U];
 80047a0:	69fb      	ldr	r3, [r7, #28]
 80047a2:	08da      	lsrs	r2, r3, #3
 80047a4:	687b      	ldr	r3, [r7, #4]
 80047a6:	3208      	adds	r2, #8
 80047a8:	f853 3022 	ldr.w	r3, [r3, r2, lsl #2]
 80047ac:	61bb      	str	r3, [r7, #24]
        temp &= ~(0xFU << ((uint32_t)(position & 0x07U) * 4U)) ;
 80047ae:	69fb      	ldr	r3, [r7, #28]
 80047b0:	f003 0307 	and.w	r3, r3, #7
 80047b4:	009b      	lsls	r3, r3, #2
 80047b6:	220f      	movs	r2, #15
 80047b8:	fa02 f303 	lsl.w	r3, r2, r3
 80047bc:	43db      	mvns	r3, r3
 80047be:	69ba      	ldr	r2, [r7, #24]
 80047c0:	4013      	ands	r3, r2
 80047c2:	61bb      	str	r3, [r7, #24]
        temp |= ((uint32_t)(GPIO_Init->Alternate) << (((uint32_t)position & 0x07U) * 4U));
 80047c4:	683b      	ldr	r3, [r7, #0]
 80047c6:	691a      	ldr	r2, [r3, #16]
 80047c8:	69fb      	ldr	r3, [r7, #28]
 80047ca:	f003 0307 	and.w	r3, r3, #7
 80047ce:	009b      	lsls	r3, r3, #2
 80047d0:	fa02 f303 	lsl.w	r3, r2, r3
 80047d4:	69ba      	ldr	r2, [r7, #24]
 80047d6:	4313      	orrs	r3, r2
 80047d8:	61bb      	str	r3, [r7, #24]
        GPIOx->AFR[position >> 3U] = temp;
 80047da:	69fb      	ldr	r3, [r7, #28]
 80047dc:	08da      	lsrs	r2, r3, #3
 80047de:	687b      	ldr	r3, [r7, #4]
 80047e0:	3208      	adds	r2, #8
 80047e2:	69b9      	ldr	r1, [r7, #24]
 80047e4:	f843 1022 	str.w	r1, [r3, r2, lsl #2]
      }

      /* Configure IO Direction mode (Input, Output, Alternate or Analog) */
      temp = GPIOx->MODER;
 80047e8:	687b      	ldr	r3, [r7, #4]
 80047ea:	681b      	ldr	r3, [r3, #0]
 80047ec:	61bb      	str	r3, [r7, #24]
      temp &= ~(GPIO_MODER_MODER0 << (position * 2U));
 80047ee:	69fb      	ldr	r3, [r7, #28]
 80047f0:	005b      	lsls	r3, r3, #1
 80047f2:	2203      	movs	r2, #3
 80047f4:	fa02 f303 	lsl.w	r3, r2, r3
 80047f8:	43db      	mvns	r3, r3
 80047fa:	69ba      	ldr	r2, [r7, #24]
 80047fc:	4013      	ands	r3, r2
 80047fe:	61bb      	str	r3, [r7, #24]
      temp |= ((GPIO_Init->Mode & GPIO_MODE) << (position * 2U));
 8004800:	683b      	ldr	r3, [r7, #0]
 8004802:	685b      	ldr	r3, [r3, #4]
 8004804:	f003 0203 	and.w	r2, r3, #3
 8004808:	69fb      	ldr	r3, [r7, #28]
 800480a:	005b      	lsls	r3, r3, #1
 800480c:	fa02 f303 	lsl.w	r3, r2, r3
 8004810:	69ba      	ldr	r2, [r7, #24]
 8004812:	4313      	orrs	r3, r2
 8004814:	61bb      	str	r3, [r7, #24]
      GPIOx->MODER = temp;
 8004816:	687b      	ldr	r3, [r7, #4]
 8004818:	69ba      	ldr	r2, [r7, #24]
 800481a:	601a      	str	r2, [r3, #0]

      /*--------------------- EXTI Mode Configuration ------------------------*/
      /* Configure the External Interrupt or event for the current IO */
      if((GPIO_Init->Mode & EXTI_MODE) != 0x00U)
 800481c:	683b      	ldr	r3, [r7, #0]
 800481e:	685b      	ldr	r3, [r3, #4]
 8004820:	f403 3340 	and.w	r3, r3, #196608	; 0x30000
 8004824:	2b00      	cmp	r3, #0
 8004826:	f000 80c0 	beq.w	80049aa <HAL_GPIO_Init+0x306>
      {
        /* Enable SYSCFG Clock */
        __HAL_RCC_SYSCFG_CLK_ENABLE();
 800482a:	2300      	movs	r3, #0
 800482c:	60fb      	str	r3, [r7, #12]
 800482e:	4b66      	ldr	r3, [pc, #408]	; (80049c8 <HAL_GPIO_Init+0x324>)
 8004830:	6c5b      	ldr	r3, [r3, #68]	; 0x44
 8004832:	4a65      	ldr	r2, [pc, #404]	; (80049c8 <HAL_GPIO_Init+0x324>)
 8004834:	f443 4380 	orr.w	r3, r3, #16384	; 0x4000
 8004838:	6453      	str	r3, [r2, #68]	; 0x44
 800483a:	4b63      	ldr	r3, [pc, #396]	; (80049c8 <HAL_GPIO_Init+0x324>)
 800483c:	6c5b      	ldr	r3, [r3, #68]	; 0x44
 800483e:	f403 4380 	and.w	r3, r3, #16384	; 0x4000
 8004842:	60fb      	str	r3, [r7, #12]
 8004844:	68fb      	ldr	r3, [r7, #12]

        temp = SYSCFG->EXTICR[position >> 2U];
 8004846:	4a61      	ldr	r2, [pc, #388]	; (80049cc <HAL_GPIO_Init+0x328>)
 8004848:	69fb      	ldr	r3, [r7, #28]
 800484a:	089b      	lsrs	r3, r3, #2
 800484c:	3302      	adds	r3, #2
 800484e:	f852 3023 	ldr.w	r3, [r2, r3, lsl #2]
 8004852:	61bb      	str	r3, [r7, #24]
        temp &= ~(0x0FU << (4U * (position & 0x03U)));
 8004854:	69fb      	ldr	r3, [r7, #28]
 8004856:	f003 0303 	and.w	r3, r3, #3
 800485a:	009b      	lsls	r3, r3, #2
 800485c:	220f      	movs	r2, #15
 800485e:	fa02 f303 	lsl.w	r3, r2, r3
 8004862:	43db      	mvns	r3, r3
 8004864:	69ba      	ldr	r2, [r7, #24]
 8004866:	4013      	ands	r3, r2
 8004868:	61bb      	str	r3, [r7, #24]
        temp |= ((uint32_t)(GPIO_GET_INDEX(GPIOx)) << (4U * (position & 0x03U)));
 800486a:	687b      	ldr	r3, [r7, #4]
 800486c:	4a58      	ldr	r2, [pc, #352]	; (80049d0 <HAL_GPIO_Init+0x32c>)
 800486e:	4293      	cmp	r3, r2
 8004870:	d037      	beq.n	80048e2 <HAL_GPIO_Init+0x23e>
 8004872:	687b      	ldr	r3, [r7, #4]
 8004874:	4a57      	ldr	r2, [pc, #348]	; (80049d4 <HAL_GPIO_Init+0x330>)
 8004876:	4293      	cmp	r3, r2
 8004878:	d031      	beq.n	80048de <HAL_GPIO_Init+0x23a>
 800487a:	687b      	ldr	r3, [r7, #4]
 800487c:	4a56      	ldr	r2, [pc, #344]	; (80049d8 <HAL_GPIO_Init+0x334>)
 800487e:	4293      	cmp	r3, r2
 8004880:	d02b      	beq.n	80048da <HAL_GPIO_Init+0x236>
 8004882:	687b      	ldr	r3, [r7, #4]
 8004884:	4a55      	ldr	r2, [pc, #340]	; (80049dc <HAL_GPIO_Init+0x338>)
 8004886:	4293      	cmp	r3, r2
 8004888:	d025      	beq.n	80048d6 <HAL_GPIO_Init+0x232>
 800488a:	687b      	ldr	r3, [r7, #4]
 800488c:	4a54      	ldr	r2, [pc, #336]	; (80049e0 <HAL_GPIO_Init+0x33c>)
 800488e:	4293      	cmp	r3, r2
 8004890:	d01f      	beq.n	80048d2 <HAL_GPIO_Init+0x22e>
 8004892:	687b      	ldr	r3, [r7, #4]
 8004894:	4a53      	ldr	r2, [pc, #332]	; (80049e4 <HAL_GPIO_Init+0x340>)
 8004896:	4293      	cmp	r3, r2
 8004898:	d019      	beq.n	80048ce <HAL_GPIO_Init+0x22a>
 800489a:	687b      	ldr	r3, [r7, #4]
 800489c:	4a52      	ldr	r2, [pc, #328]	; (80049e8 <HAL_GPIO_Init+0x344>)
 800489e:	4293      	cmp	r3, r2
 80048a0:	d013      	beq.n	80048ca <HAL_GPIO_Init+0x226>
 80048a2:	687b      	ldr	r3, [r7, #4]
 80048a4:	4a51      	ldr	r2, [pc, #324]	; (80049ec <HAL_GPIO_Init+0x348>)
 80048a6:	4293      	cmp	r3, r2
 80048a8:	d00d      	beq.n	80048c6 <HAL_GPIO_Init+0x222>
 80048aa:	687b      	ldr	r3, [r7, #4]
 80048ac:	4a50      	ldr	r2, [pc, #320]	; (80049f0 <HAL_GPIO_Init+0x34c>)
 80048ae:	4293      	cmp	r3, r2
 80048b0:	d007      	beq.n	80048c2 <HAL_GPIO_Init+0x21e>
 80048b2:	687b      	ldr	r3, [r7, #4]
 80048b4:	4a4f      	ldr	r2, [pc, #316]	; (80049f4 <HAL_GPIO_Init+0x350>)
 80048b6:	4293      	cmp	r3, r2
 80048b8:	d101      	bne.n	80048be <HAL_GPIO_Init+0x21a>
 80048ba:	2309      	movs	r3, #9
 80048bc:	e012      	b.n	80048e4 <HAL_GPIO_Init+0x240>
 80048be:	230a      	movs	r3, #10
 80048c0:	e010      	b.n	80048e4 <HAL_GPIO_Init+0x240>
 80048c2:	2308      	movs	r3, #8
 80048c4:	e00e      	b.n	80048e4 <HAL_GPIO_Init+0x240>
 80048c6:	2307      	movs	r3, #7
 80048c8:	e00c      	b.n	80048e4 <HAL_GPIO_Init+0x240>
 80048ca:	2306      	movs	r3, #6
 80048cc:	e00a      	b.n	80048e4 <HAL_GPIO_Init+0x240>
 80048ce:	2305      	movs	r3, #5
 80048d0:	e008      	b.n	80048e4 <HAL_GPIO_Init+0x240>
 80048d2:	2304      	movs	r3, #4
 80048d4:	e006      	b.n	80048e4 <HAL_GPIO_Init+0x240>
 80048d6:	2303      	movs	r3, #3
 80048d8:	e004      	b.n	80048e4 <HAL_GPIO_Init+0x240>
 80048da:	2302      	movs	r3, #2
 80048dc:	e002      	b.n	80048e4 <HAL_GPIO_Init+0x240>
 80048de:	2301      	movs	r3, #1
 80048e0:	e000      	b.n	80048e4 <HAL_GPIO_Init+0x240>
 80048e2:	2300      	movs	r3, #0
 80048e4:	69fa      	ldr	r2, [r7, #28]
 80048e6:	f002 0203 	and.w	r2, r2, #3
 80048ea:	0092      	lsls	r2, r2, #2
 80048ec:	4093      	lsls	r3, r2
 80048ee:	69ba      	ldr	r2, [r7, #24]
 80048f0:	4313      	orrs	r3, r2
 80048f2:	61bb      	str	r3, [r7, #24]
        SYSCFG->EXTICR[position >> 2U] = temp;
 80048f4:	4935      	ldr	r1, [pc, #212]	; (80049cc <HAL_GPIO_Init+0x328>)
 80048f6:	69fb      	ldr	r3, [r7, #28]
 80048f8:	089b      	lsrs	r3, r3, #2
 80048fa:	3302      	adds	r3, #2
 80048fc:	69ba      	ldr	r2, [r7, #24]
 80048fe:	f841 2023 	str.w	r2, [r1, r3, lsl #2]

        /* Clear Rising Falling edge configuration */
        temp = EXTI->RTSR;
 8004902:	4b3d      	ldr	r3, [pc, #244]	; (80049f8 <HAL_GPIO_Init+0x354>)
 8004904:	689b      	ldr	r3, [r3, #8]
 8004906:	61bb      	str	r3, [r7, #24]
        temp &= ~((uint32_t)iocurrent);
 8004908:	693b      	ldr	r3, [r7, #16]
 800490a:	43db      	mvns	r3, r3
 800490c:	69ba      	ldr	r2, [r7, #24]
 800490e:	4013      	ands	r3, r2
 8004910:	61bb      	str	r3, [r7, #24]
        if((GPIO_Init->Mode & TRIGGER_RISING) != 0x00U)
 8004912:	683b      	ldr	r3, [r7, #0]
 8004914:	685b      	ldr	r3, [r3, #4]
 8004916:	f403 1380 	and.w	r3, r3, #1048576	; 0x100000
 800491a:	2b00      	cmp	r3, #0
 800491c:	d003      	beq.n	8004926 <HAL_GPIO_Init+0x282>
        {
          temp |= iocurrent;
 800491e:	69ba      	ldr	r2, [r7, #24]
 8004920:	693b      	ldr	r3, [r7, #16]
 8004922:	4313      	orrs	r3, r2
 8004924:	61bb      	str	r3, [r7, #24]
        }
        EXTI->RTSR = temp;
 8004926:	4a34      	ldr	r2, [pc, #208]	; (80049f8 <HAL_GPIO_Init+0x354>)
 8004928:	69bb      	ldr	r3, [r7, #24]
 800492a:	6093      	str	r3, [r2, #8]

        temp = EXTI->FTSR;
 800492c:	4b32      	ldr	r3, [pc, #200]	; (80049f8 <HAL_GPIO_Init+0x354>)
 800492e:	68db      	ldr	r3, [r3, #12]
 8004930:	61bb      	str	r3, [r7, #24]
        temp &= ~((uint32_t)iocurrent);
 8004932:	693b      	ldr	r3, [r7, #16]
 8004934:	43db      	mvns	r3, r3
 8004936:	69ba      	ldr	r2, [r7, #24]
 8004938:	4013      	ands	r3, r2
 800493a:	61bb      	str	r3, [r7, #24]
        if((GPIO_Init->Mode & TRIGGER_FALLING) != 0x00U)
 800493c:	683b      	ldr	r3, [r7, #0]
 800493e:	685b      	ldr	r3, [r3, #4]
 8004940:	f403 1300 	and.w	r3, r3, #2097152	; 0x200000
 8004944:	2b00      	cmp	r3, #0
 8004946:	d003      	beq.n	8004950 <HAL_GPIO_Init+0x2ac>
        {
          temp |= iocurrent;
 8004948:	69ba      	ldr	r2, [r7, #24]
 800494a:	693b      	ldr	r3, [r7, #16]
 800494c:	4313      	orrs	r3, r2
 800494e:	61bb      	str	r3, [r7, #24]
        }
        EXTI->FTSR = temp;
 8004950:	4a29      	ldr	r2, [pc, #164]	; (80049f8 <HAL_GPIO_Init+0x354>)
 8004952:	69bb      	ldr	r3, [r7, #24]
 8004954:	60d3      	str	r3, [r2, #12]

        temp = EXTI->EMR;
 8004956:	4b28      	ldr	r3, [pc, #160]	; (80049f8 <HAL_GPIO_Init+0x354>)
 8004958:	685b      	ldr	r3, [r3, #4]
 800495a:	61bb      	str	r3, [r7, #24]
        temp &= ~((uint32_t)iocurrent);
 800495c:	693b      	ldr	r3, [r7, #16]
 800495e:	43db      	mvns	r3, r3
 8004960:	69ba      	ldr	r2, [r7, #24]
 8004962:	4013      	ands	r3, r2
 8004964:	61bb      	str	r3, [r7, #24]
        if((GPIO_Init->Mode & EXTI_EVT) != 0x00U)
 8004966:	683b      	ldr	r3, [r7, #0]
 8004968:	685b      	ldr	r3, [r3, #4]
 800496a:	f403 3300 	and.w	r3, r3, #131072	; 0x20000
 800496e:	2b00      	cmp	r3, #0
 8004970:	d003      	beq.n	800497a <HAL_GPIO_Init+0x2d6>
        {
          temp |= iocurrent;
 8004972:	69ba      	ldr	r2, [r7, #24]
 8004974:	693b      	ldr	r3, [r7, #16]
 8004976:	4313      	orrs	r3, r2
 8004978:	61bb      	str	r3, [r7, #24]
        }
        EXTI->EMR = temp;
 800497a:	4a1f      	ldr	r2, [pc, #124]	; (80049f8 <HAL_GPIO_Init+0x354>)
 800497c:	69bb      	ldr	r3, [r7, #24]
 800497e:	6053      	str	r3, [r2, #4]

        /* Clear EXTI line configuration */
        temp = EXTI->IMR;
 8004980:	4b1d      	ldr	r3, [pc, #116]	; (80049f8 <HAL_GPIO_Init+0x354>)
 8004982:	681b      	ldr	r3, [r3, #0]
 8004984:	61bb      	str	r3, [r7, #24]
        temp &= ~((uint32_t)iocurrent);
 8004986:	693b      	ldr	r3, [r7, #16]
 8004988:	43db      	mvns	r3, r3
 800498a:	69ba      	ldr	r2, [r7, #24]
 800498c:	4013      	ands	r3, r2
 800498e:	61bb      	str	r3, [r7, #24]
        if((GPIO_Init->Mode & EXTI_IT) != 0x00U)
 8004990:	683b      	ldr	r3, [r7, #0]
 8004992:	685b      	ldr	r3, [r3, #4]
 8004994:	f403 3380 	and.w	r3, r3, #65536	; 0x10000
 8004998:	2b00      	cmp	r3, #0
 800499a:	d003      	beq.n	80049a4 <HAL_GPIO_Init+0x300>
        {
          temp |= iocurrent;
 800499c:	69ba      	ldr	r2, [r7, #24]
 800499e:	693b      	ldr	r3, [r7, #16]
 80049a0:	4313      	orrs	r3, r2
 80049a2:	61bb      	str	r3, [r7, #24]
        }
        EXTI->IMR = temp;
 80049a4:	4a14      	ldr	r2, [pc, #80]	; (80049f8 <HAL_GPIO_Init+0x354>)
 80049a6:	69bb      	ldr	r3, [r7, #24]
 80049a8:	6013      	str	r3, [r2, #0]
  for(position = 0U; position < GPIO_NUMBER; position++)
 80049aa:	69fb      	ldr	r3, [r7, #28]
 80049ac:	3301      	adds	r3, #1
 80049ae:	61fb      	str	r3, [r7, #28]
 80049b0:	69fb      	ldr	r3, [r7, #28]
 80049b2:	2b0f      	cmp	r3, #15
 80049b4:	f67f ae84 	bls.w	80046c0 <HAL_GPIO_Init+0x1c>
      }
    }
  }
}
 80049b8:	bf00      	nop
 80049ba:	bf00      	nop
 80049bc:	3724      	adds	r7, #36	; 0x24
 80049be:	46bd      	mov	sp, r7
 80049c0:	f85d 7b04 	ldr.w	r7, [sp], #4
 80049c4:	4770      	bx	lr
 80049c6:	bf00      	nop
 80049c8:	40023800 	.word	0x40023800
 80049cc:	40013800 	.word	0x40013800
 80049d0:	40020000 	.word	0x40020000
 80049d4:	40020400 	.word	0x40020400
 80049d8:	40020800 	.word	0x40020800
 80049dc:	40020c00 	.word	0x40020c00
 80049e0:	40021000 	.word	0x40021000
 80049e4:	40021400 	.word	0x40021400
 80049e8:	40021800 	.word	0x40021800
 80049ec:	40021c00 	.word	0x40021c00
 80049f0:	40022000 	.word	0x40022000
 80049f4:	40022400 	.word	0x40022400
 80049f8:	40013c00 	.word	0x40013c00

080049fc <HAL_GPIO_ReadPin>:
  * @param  GPIO_Pin specifies the port bit to read.
  *         This parameter can be GPIO_PIN_x where x can be (0..15).
  * @retval The input port pin value.
  */
GPIO_PinState HAL_GPIO_ReadPin(GPIO_TypeDef* GPIOx, uint16_t GPIO_Pin)
{
 80049fc:	b480      	push	{r7}
 80049fe:	b085      	sub	sp, #20
 8004a00:	af00      	add	r7, sp, #0
 8004a02:	6078      	str	r0, [r7, #4]
 8004a04:	460b      	mov	r3, r1
 8004a06:	807b      	strh	r3, [r7, #2]
  GPIO_PinState bitstatus;

  /* Check the parameters */
  assert_param(IS_GPIO_PIN(GPIO_Pin));

  if((GPIOx->IDR & GPIO_Pin) != (uint32_t)GPIO_PIN_RESET)
 8004a08:	687b      	ldr	r3, [r7, #4]
 8004a0a:	691a      	ldr	r2, [r3, #16]
 8004a0c:	887b      	ldrh	r3, [r7, #2]
 8004a0e:	4013      	ands	r3, r2
 8004a10:	2b00      	cmp	r3, #0
 8004a12:	d002      	beq.n	8004a1a <HAL_GPIO_ReadPin+0x1e>
  {
    bitstatus = GPIO_PIN_SET;
 8004a14:	2301      	movs	r3, #1
 8004a16:	73fb      	strb	r3, [r7, #15]
 8004a18:	e001      	b.n	8004a1e <HAL_GPIO_ReadPin+0x22>
  }
  else
  {
    bitstatus = GPIO_PIN_RESET;
 8004a1a:	2300      	movs	r3, #0
 8004a1c:	73fb      	strb	r3, [r7, #15]
  }
  return bitstatus;
 8004a1e:	7bfb      	ldrb	r3, [r7, #15]
}
 8004a20:	4618      	mov	r0, r3
 8004a22:	3714      	adds	r7, #20
 8004a24:	46bd      	mov	sp, r7
 8004a26:	f85d 7b04 	ldr.w	r7, [sp], #4
 8004a2a:	4770      	bx	lr

08004a2c <HAL_GPIO_WritePin>:
  *            @arg GPIO_PIN_RESET: to clear the port pin
  *            @arg GPIO_PIN_SET: to set the port pin
  * @retval None
  */
void HAL_GPIO_WritePin(GPIO_TypeDef* GPIOx, uint16_t GPIO_Pin, GPIO_PinState PinState)
{
 8004a2c:	b480      	push	{r7}
 8004a2e:	b083      	sub	sp, #12
 8004a30:	af00      	add	r7, sp, #0
 8004a32:	6078      	str	r0, [r7, #4]
 8004a34:	460b      	mov	r3, r1
 8004a36:	807b      	strh	r3, [r7, #2]
 8004a38:	4613      	mov	r3, r2
 8004a3a:	707b      	strb	r3, [r7, #1]
  /* Check the parameters */
  assert_param(IS_GPIO_PIN(GPIO_Pin));
  assert_param(IS_GPIO_PIN_ACTION(PinState));

  if(PinState != GPIO_PIN_RESET)
 8004a3c:	787b      	ldrb	r3, [r7, #1]
 8004a3e:	2b00      	cmp	r3, #0
 8004a40:	d003      	beq.n	8004a4a <HAL_GPIO_WritePin+0x1e>
  {
    GPIOx->BSRR = GPIO_Pin;
 8004a42:	887a      	ldrh	r2, [r7, #2]
 8004a44:	687b      	ldr	r3, [r7, #4]
 8004a46:	619a      	str	r2, [r3, #24]
  }
  else
  {
    GPIOx->BSRR = (uint32_t)GPIO_Pin << 16U;
  }
}
 8004a48:	e003      	b.n	8004a52 <HAL_GPIO_WritePin+0x26>
    GPIOx->BSRR = (uint32_t)GPIO_Pin << 16U;
 8004a4a:	887b      	ldrh	r3, [r7, #2]
 8004a4c:	041a      	lsls	r2, r3, #16
 8004a4e:	687b      	ldr	r3, [r7, #4]
 8004a50:	619a      	str	r2, [r3, #24]
}
 8004a52:	bf00      	nop
 8004a54:	370c      	adds	r7, #12
 8004a56:	46bd      	mov	sp, r7
 8004a58:	f85d 7b04 	ldr.w	r7, [sp], #4
 8004a5c:	4770      	bx	lr

08004a5e <HAL_GPIO_TogglePin>:
  *                      x can be (A..I) to select the GPIO peripheral for STM32F40XX and STM32F427X devices.
  * @param  GPIO_Pin Specifies the pins to be toggled.
  * @retval None
  */
void HAL_GPIO_TogglePin(GPIO_TypeDef* GPIOx, uint16_t GPIO_Pin)
{
 8004a5e:	b480      	push	{r7}
 8004a60:	b085      	sub	sp, #20
 8004a62:	af00      	add	r7, sp, #0
 8004a64:	6078      	str	r0, [r7, #4]
 8004a66:	460b      	mov	r3, r1
 8004a68:	807b      	strh	r3, [r7, #2]

  /* Check the parameters */
  assert_param(IS_GPIO_PIN(GPIO_Pin));

  /* get current Output Data Register value */
  odr = GPIOx->ODR;
 8004a6a:	687b      	ldr	r3, [r7, #4]
 8004a6c:	695b      	ldr	r3, [r3, #20]
 8004a6e:	60fb      	str	r3, [r7, #12]

  /* Set selected pins that were at low level, and reset ones that were high */
  GPIOx->BSRR = ((odr & GPIO_Pin) << GPIO_NUMBER) | (~odr & GPIO_Pin);
 8004a70:	887a      	ldrh	r2, [r7, #2]
 8004a72:	68fb      	ldr	r3, [r7, #12]
 8004a74:	4013      	ands	r3, r2
 8004a76:	041a      	lsls	r2, r3, #16
 8004a78:	68fb      	ldr	r3, [r7, #12]
 8004a7a:	43d9      	mvns	r1, r3
 8004a7c:	887b      	ldrh	r3, [r7, #2]
 8004a7e:	400b      	ands	r3, r1
 8004a80:	431a      	orrs	r2, r3
 8004a82:	687b      	ldr	r3, [r7, #4]
 8004a84:	619a      	str	r2, [r3, #24]
}
 8004a86:	bf00      	nop
 8004a88:	3714      	adds	r7, #20
 8004a8a:	46bd      	mov	sp, r7
 8004a8c:	f85d 7b04 	ldr.w	r7, [sp], #4
 8004a90:	4770      	bx	lr
	...

08004a94 <HAL_I2C_Init>:
  * @param  hi2c Pointer to a I2C_HandleTypeDef structure that contains
  *                the configuration information for the specified I2C.
  * @retval HAL status
  */
HAL_StatusTypeDef HAL_I2C_Init(I2C_HandleTypeDef *hi2c)
{
 8004a94:	b580      	push	{r7, lr}
 8004a96:	b084      	sub	sp, #16
 8004a98:	af00      	add	r7, sp, #0
 8004a9a:	6078      	str	r0, [r7, #4]
  uint32_t freqrange;
  uint32_t pclk1;

  /* Check the I2C handle allocation */
  if (hi2c == NULL)
 8004a9c:	687b      	ldr	r3, [r7, #4]
 8004a9e:	2b00      	cmp	r3, #0
 8004aa0:	d101      	bne.n	8004aa6 <HAL_I2C_Init+0x12>
  {
    return HAL_ERROR;
 8004aa2:	2301      	movs	r3, #1
 8004aa4:	e12b      	b.n	8004cfe <HAL_I2C_Init+0x26a>
  assert_param(IS_I2C_DUAL_ADDRESS(hi2c->Init.DualAddressMode));
  assert_param(IS_I2C_OWN_ADDRESS2(hi2c->Init.OwnAddress2));
  assert_param(IS_I2C_GENERAL_CALL(hi2c->Init.GeneralCallMode));
  assert_param(IS_I2C_NO_STRETCH(hi2c->Init.NoStretchMode));

  if (hi2c->State == HAL_I2C_STATE_RESET)
 8004aa6:	687b      	ldr	r3, [r7, #4]
 8004aa8:	f893 303d 	ldrb.w	r3, [r3, #61]	; 0x3d
 8004aac:	b2db      	uxtb	r3, r3
 8004aae:	2b00      	cmp	r3, #0
 8004ab0:	d106      	bne.n	8004ac0 <HAL_I2C_Init+0x2c>
  {
    /* Allocate lock resource and initialize it */
    hi2c->Lock = HAL_UNLOCKED;
 8004ab2:	687b      	ldr	r3, [r7, #4]
 8004ab4:	2200      	movs	r2, #0
 8004ab6:	f883 203c 	strb.w	r2, [r3, #60]	; 0x3c

    /* Init the low level hardware : GPIO, CLOCK, NVIC */
    hi2c->MspInitCallback(hi2c);
#else
    /* Init the low level hardware : GPIO, CLOCK, NVIC */
    HAL_I2C_MspInit(hi2c);
 8004aba:	6878      	ldr	r0, [r7, #4]
 8004abc:	f7fd fe42 	bl	8002744 <HAL_I2C_MspInit>
#endif /* USE_HAL_I2C_REGISTER_CALLBACKS */
  }

  hi2c->State = HAL_I2C_STATE_BUSY;
 8004ac0:	687b      	ldr	r3, [r7, #4]
 8004ac2:	2224      	movs	r2, #36	; 0x24
 8004ac4:	f883 203d 	strb.w	r2, [r3, #61]	; 0x3d

  /* Disable the selected I2C peripheral */
  __HAL_I2C_DISABLE(hi2c);
 8004ac8:	687b      	ldr	r3, [r7, #4]
 8004aca:	681b      	ldr	r3, [r3, #0]
 8004acc:	681a      	ldr	r2, [r3, #0]
 8004ace:	687b      	ldr	r3, [r7, #4]
 8004ad0:	681b      	ldr	r3, [r3, #0]
 8004ad2:	f022 0201 	bic.w	r2, r2, #1
 8004ad6:	601a      	str	r2, [r3, #0]

  /*Reset I2C*/
  hi2c->Instance->CR1 |= I2C_CR1_SWRST;
 8004ad8:	687b      	ldr	r3, [r7, #4]
 8004ada:	681b      	ldr	r3, [r3, #0]
 8004adc:	681a      	ldr	r2, [r3, #0]
 8004ade:	687b      	ldr	r3, [r7, #4]
 8004ae0:	681b      	ldr	r3, [r3, #0]
 8004ae2:	f442 4200 	orr.w	r2, r2, #32768	; 0x8000
 8004ae6:	601a      	str	r2, [r3, #0]
  hi2c->Instance->CR1 &= ~I2C_CR1_SWRST;
 8004ae8:	687b      	ldr	r3, [r7, #4]
 8004aea:	681b      	ldr	r3, [r3, #0]
 8004aec:	681a      	ldr	r2, [r3, #0]
 8004aee:	687b      	ldr	r3, [r7, #4]
 8004af0:	681b      	ldr	r3, [r3, #0]
 8004af2:	f422 4200 	bic.w	r2, r2, #32768	; 0x8000
 8004af6:	601a      	str	r2, [r3, #0]

  /* Get PCLK1 frequency */
  pclk1 = HAL_RCC_GetPCLK1Freq();
 8004af8:	f001 fc72 	bl	80063e0 <HAL_RCC_GetPCLK1Freq>
 8004afc:	60f8      	str	r0, [r7, #12]

  /* Check the minimum allowed PCLK1 frequency */
  if (I2C_MIN_PCLK_FREQ(pclk1, hi2c->Init.ClockSpeed) == 1U)
 8004afe:	687b      	ldr	r3, [r7, #4]
 8004b00:	685b      	ldr	r3, [r3, #4]
 8004b02:	4a81      	ldr	r2, [pc, #516]	; (8004d08 <HAL_I2C_Init+0x274>)
 8004b04:	4293      	cmp	r3, r2
 8004b06:	d807      	bhi.n	8004b18 <HAL_I2C_Init+0x84>
 8004b08:	68fb      	ldr	r3, [r7, #12]
 8004b0a:	4a80      	ldr	r2, [pc, #512]	; (8004d0c <HAL_I2C_Init+0x278>)
 8004b0c:	4293      	cmp	r3, r2
 8004b0e:	bf94      	ite	ls
 8004b10:	2301      	movls	r3, #1
 8004b12:	2300      	movhi	r3, #0
 8004b14:	b2db      	uxtb	r3, r3
 8004b16:	e006      	b.n	8004b26 <HAL_I2C_Init+0x92>
 8004b18:	68fb      	ldr	r3, [r7, #12]
 8004b1a:	4a7d      	ldr	r2, [pc, #500]	; (8004d10 <HAL_I2C_Init+0x27c>)
 8004b1c:	4293      	cmp	r3, r2
 8004b1e:	bf94      	ite	ls
 8004b20:	2301      	movls	r3, #1
 8004b22:	2300      	movhi	r3, #0
 8004b24:	b2db      	uxtb	r3, r3
 8004b26:	2b00      	cmp	r3, #0
 8004b28:	d001      	beq.n	8004b2e <HAL_I2C_Init+0x9a>
  {
    return HAL_ERROR;
 8004b2a:	2301      	movs	r3, #1
 8004b2c:	e0e7      	b.n	8004cfe <HAL_I2C_Init+0x26a>
  }

  /* Calculate frequency range */
  freqrange = I2C_FREQRANGE(pclk1);
 8004b2e:	68fb      	ldr	r3, [r7, #12]
 8004b30:	4a78      	ldr	r2, [pc, #480]	; (8004d14 <HAL_I2C_Init+0x280>)
 8004b32:	fba2 2303 	umull	r2, r3, r2, r3
 8004b36:	0c9b      	lsrs	r3, r3, #18
 8004b38:	60bb      	str	r3, [r7, #8]

  /*---------------------------- I2Cx CR2 Configuration ----------------------*/
  /* Configure I2Cx: Frequency range */
  MODIFY_REG(hi2c->Instance->CR2, I2C_CR2_FREQ, freqrange);
 8004b3a:	687b      	ldr	r3, [r7, #4]
 8004b3c:	681b      	ldr	r3, [r3, #0]
 8004b3e:	685b      	ldr	r3, [r3, #4]
 8004b40:	f023 013f 	bic.w	r1, r3, #63	; 0x3f
 8004b44:	687b      	ldr	r3, [r7, #4]
 8004b46:	681b      	ldr	r3, [r3, #0]
 8004b48:	68ba      	ldr	r2, [r7, #8]
 8004b4a:	430a      	orrs	r2, r1
 8004b4c:	605a      	str	r2, [r3, #4]

  /*---------------------------- I2Cx TRISE Configuration --------------------*/
  /* Configure I2Cx: Rise Time */
  MODIFY_REG(hi2c->Instance->TRISE, I2C_TRISE_TRISE, I2C_RISE_TIME(freqrange, hi2c->Init.ClockSpeed));
 8004b4e:	687b      	ldr	r3, [r7, #4]
 8004b50:	681b      	ldr	r3, [r3, #0]
 8004b52:	6a1b      	ldr	r3, [r3, #32]
 8004b54:	f023 013f 	bic.w	r1, r3, #63	; 0x3f
 8004b58:	687b      	ldr	r3, [r7, #4]
 8004b5a:	685b      	ldr	r3, [r3, #4]
 8004b5c:	4a6a      	ldr	r2, [pc, #424]	; (8004d08 <HAL_I2C_Init+0x274>)
 8004b5e:	4293      	cmp	r3, r2
 8004b60:	d802      	bhi.n	8004b68 <HAL_I2C_Init+0xd4>
 8004b62:	68bb      	ldr	r3, [r7, #8]
 8004b64:	3301      	adds	r3, #1
 8004b66:	e009      	b.n	8004b7c <HAL_I2C_Init+0xe8>
 8004b68:	68bb      	ldr	r3, [r7, #8]
 8004b6a:	f44f 7296 	mov.w	r2, #300	; 0x12c
 8004b6e:	fb02 f303 	mul.w	r3, r2, r3
 8004b72:	4a69      	ldr	r2, [pc, #420]	; (8004d18 <HAL_I2C_Init+0x284>)
 8004b74:	fba2 2303 	umull	r2, r3, r2, r3
 8004b78:	099b      	lsrs	r3, r3, #6
 8004b7a:	3301      	adds	r3, #1
 8004b7c:	687a      	ldr	r2, [r7, #4]
 8004b7e:	6812      	ldr	r2, [r2, #0]
 8004b80:	430b      	orrs	r3, r1
 8004b82:	6213      	str	r3, [r2, #32]

  /*---------------------------- I2Cx CCR Configuration ----------------------*/
  /* Configure I2Cx: Speed */
  MODIFY_REG(hi2c->Instance->CCR, (I2C_CCR_FS | I2C_CCR_DUTY | I2C_CCR_CCR), I2C_SPEED(pclk1, hi2c->Init.ClockSpeed, hi2c->Init.DutyCycle));
 8004b84:	687b      	ldr	r3, [r7, #4]
 8004b86:	681b      	ldr	r3, [r3, #0]
 8004b88:	69db      	ldr	r3, [r3, #28]
 8004b8a:	f423 424f 	bic.w	r2, r3, #52992	; 0xcf00
 8004b8e:	f022 02ff 	bic.w	r2, r2, #255	; 0xff
 8004b92:	687b      	ldr	r3, [r7, #4]
 8004b94:	685b      	ldr	r3, [r3, #4]
 8004b96:	495c      	ldr	r1, [pc, #368]	; (8004d08 <HAL_I2C_Init+0x274>)
 8004b98:	428b      	cmp	r3, r1
 8004b9a:	d819      	bhi.n	8004bd0 <HAL_I2C_Init+0x13c>
 8004b9c:	68fb      	ldr	r3, [r7, #12]
 8004b9e:	1e59      	subs	r1, r3, #1
 8004ba0:	687b      	ldr	r3, [r7, #4]
 8004ba2:	685b      	ldr	r3, [r3, #4]
 8004ba4:	005b      	lsls	r3, r3, #1
 8004ba6:	fbb1 f3f3 	udiv	r3, r1, r3
 8004baa:	1c59      	adds	r1, r3, #1
 8004bac:	f640 73fc 	movw	r3, #4092	; 0xffc
 8004bb0:	400b      	ands	r3, r1
 8004bb2:	2b00      	cmp	r3, #0
 8004bb4:	d00a      	beq.n	8004bcc <HAL_I2C_Init+0x138>
 8004bb6:	68fb      	ldr	r3, [r7, #12]
 8004bb8:	1e59      	subs	r1, r3, #1
 8004bba:	687b      	ldr	r3, [r7, #4]
 8004bbc:	685b      	ldr	r3, [r3, #4]
 8004bbe:	005b      	lsls	r3, r3, #1
 8004bc0:	fbb1 f3f3 	udiv	r3, r1, r3
 8004bc4:	3301      	adds	r3, #1
 8004bc6:	f3c3 030b 	ubfx	r3, r3, #0, #12
 8004bca:	e051      	b.n	8004c70 <HAL_I2C_Init+0x1dc>
 8004bcc:	2304      	movs	r3, #4
 8004bce:	e04f      	b.n	8004c70 <HAL_I2C_Init+0x1dc>
 8004bd0:	687b      	ldr	r3, [r7, #4]
 8004bd2:	689b      	ldr	r3, [r3, #8]
 8004bd4:	2b00      	cmp	r3, #0
 8004bd6:	d111      	bne.n	8004bfc <HAL_I2C_Init+0x168>
 8004bd8:	68fb      	ldr	r3, [r7, #12]
 8004bda:	1e58      	subs	r0, r3, #1
 8004bdc:	687b      	ldr	r3, [r7, #4]
 8004bde:	6859      	ldr	r1, [r3, #4]
 8004be0:	460b      	mov	r3, r1
 8004be2:	005b      	lsls	r3, r3, #1
 8004be4:	440b      	add	r3, r1
 8004be6:	fbb0 f3f3 	udiv	r3, r0, r3
 8004bea:	3301      	adds	r3, #1
 8004bec:	f3c3 030b 	ubfx	r3, r3, #0, #12
 8004bf0:	2b00      	cmp	r3, #0
 8004bf2:	bf0c      	ite	eq
 8004bf4:	2301      	moveq	r3, #1
 8004bf6:	2300      	movne	r3, #0
 8004bf8:	b2db      	uxtb	r3, r3
 8004bfa:	e012      	b.n	8004c22 <HAL_I2C_Init+0x18e>
 8004bfc:	68fb      	ldr	r3, [r7, #12]
 8004bfe:	1e58      	subs	r0, r3, #1
 8004c00:	687b      	ldr	r3, [r7, #4]
 8004c02:	6859      	ldr	r1, [r3, #4]
 8004c04:	460b      	mov	r3, r1
 8004c06:	009b      	lsls	r3, r3, #2
 8004c08:	440b      	add	r3, r1
 8004c0a:	0099      	lsls	r1, r3, #2
 8004c0c:	440b      	add	r3, r1
 8004c0e:	fbb0 f3f3 	udiv	r3, r0, r3
 8004c12:	3301      	adds	r3, #1
 8004c14:	f3c3 030b 	ubfx	r3, r3, #0, #12
 8004c18:	2b00      	cmp	r3, #0
 8004c1a:	bf0c      	ite	eq
 8004c1c:	2301      	moveq	r3, #1
 8004c1e:	2300      	movne	r3, #0
 8004c20:	b2db      	uxtb	r3, r3
 8004c22:	2b00      	cmp	r3, #0
 8004c24:	d001      	beq.n	8004c2a <HAL_I2C_Init+0x196>
 8004c26:	2301      	movs	r3, #1
 8004c28:	e022      	b.n	8004c70 <HAL_I2C_Init+0x1dc>
 8004c2a:	687b      	ldr	r3, [r7, #4]
 8004c2c:	689b      	ldr	r3, [r3, #8]
 8004c2e:	2b00      	cmp	r3, #0
 8004c30:	d10e      	bne.n	8004c50 <HAL_I2C_Init+0x1bc>
 8004c32:	68fb      	ldr	r3, [r7, #12]
 8004c34:	1e58      	subs	r0, r3, #1
 8004c36:	687b      	ldr	r3, [r7, #4]
 8004c38:	6859      	ldr	r1, [r3, #4]
 8004c3a:	460b      	mov	r3, r1
 8004c3c:	005b      	lsls	r3, r3, #1
 8004c3e:	440b      	add	r3, r1
 8004c40:	fbb0 f3f3 	udiv	r3, r0, r3
 8004c44:	3301      	adds	r3, #1
 8004c46:	f3c3 030b 	ubfx	r3, r3, #0, #12
 8004c4a:	f443 4300 	orr.w	r3, r3, #32768	; 0x8000
 8004c4e:	e00f      	b.n	8004c70 <HAL_I2C_Init+0x1dc>
 8004c50:	68fb      	ldr	r3, [r7, #12]
 8004c52:	1e58      	subs	r0, r3, #1
 8004c54:	687b      	ldr	r3, [r7, #4]
 8004c56:	6859      	ldr	r1, [r3, #4]
 8004c58:	460b      	mov	r3, r1
 8004c5a:	009b      	lsls	r3, r3, #2
 8004c5c:	440b      	add	r3, r1
 8004c5e:	0099      	lsls	r1, r3, #2
 8004c60:	440b      	add	r3, r1
 8004c62:	fbb0 f3f3 	udiv	r3, r0, r3
 8004c66:	3301      	adds	r3, #1
 8004c68:	f3c3 030b 	ubfx	r3, r3, #0, #12
 8004c6c:	f443 4340 	orr.w	r3, r3, #49152	; 0xc000
 8004c70:	6879      	ldr	r1, [r7, #4]
 8004c72:	6809      	ldr	r1, [r1, #0]
 8004c74:	4313      	orrs	r3, r2
 8004c76:	61cb      	str	r3, [r1, #28]

  /*---------------------------- I2Cx CR1 Configuration ----------------------*/
  /* Configure I2Cx: Generalcall and NoStretch mode */
  MODIFY_REG(hi2c->Instance->CR1, (I2C_CR1_ENGC | I2C_CR1_NOSTRETCH), (hi2c->Init.GeneralCallMode | hi2c->Init.NoStretchMode));
 8004c78:	687b      	ldr	r3, [r7, #4]
 8004c7a:	681b      	ldr	r3, [r3, #0]
 8004c7c:	681b      	ldr	r3, [r3, #0]
 8004c7e:	f023 01c0 	bic.w	r1, r3, #192	; 0xc0
 8004c82:	687b      	ldr	r3, [r7, #4]
 8004c84:	69da      	ldr	r2, [r3, #28]
 8004c86:	687b      	ldr	r3, [r7, #4]
 8004c88:	6a1b      	ldr	r3, [r3, #32]
 8004c8a:	431a      	orrs	r2, r3
 8004c8c:	687b      	ldr	r3, [r7, #4]
 8004c8e:	681b      	ldr	r3, [r3, #0]
 8004c90:	430a      	orrs	r2, r1
 8004c92:	601a      	str	r2, [r3, #0]

  /*---------------------------- I2Cx OAR1 Configuration ---------------------*/
  /* Configure I2Cx: Own Address1 and addressing mode */
  MODIFY_REG(hi2c->Instance->OAR1, (I2C_OAR1_ADDMODE | I2C_OAR1_ADD8_9 | I2C_OAR1_ADD1_7 | I2C_OAR1_ADD0), (hi2c->Init.AddressingMode | hi2c->Init.OwnAddress1));
 8004c94:	687b      	ldr	r3, [r7, #4]
 8004c96:	681b      	ldr	r3, [r3, #0]
 8004c98:	689b      	ldr	r3, [r3, #8]
 8004c9a:	f423 4303 	bic.w	r3, r3, #33536	; 0x8300
 8004c9e:	f023 03ff 	bic.w	r3, r3, #255	; 0xff
 8004ca2:	687a      	ldr	r2, [r7, #4]
 8004ca4:	6911      	ldr	r1, [r2, #16]
 8004ca6:	687a      	ldr	r2, [r7, #4]
 8004ca8:	68d2      	ldr	r2, [r2, #12]
 8004caa:	4311      	orrs	r1, r2
 8004cac:	687a      	ldr	r2, [r7, #4]
 8004cae:	6812      	ldr	r2, [r2, #0]
 8004cb0:	430b      	orrs	r3, r1
 8004cb2:	6093      	str	r3, [r2, #8]

  /*---------------------------- I2Cx OAR2 Configuration ---------------------*/
  /* Configure I2Cx: Dual mode and Own Address2 */
  MODIFY_REG(hi2c->Instance->OAR2, (I2C_OAR2_ENDUAL | I2C_OAR2_ADD2), (hi2c->Init.DualAddressMode | hi2c->Init.OwnAddress2));
 8004cb4:	687b      	ldr	r3, [r7, #4]
 8004cb6:	681b      	ldr	r3, [r3, #0]
 8004cb8:	68db      	ldr	r3, [r3, #12]
 8004cba:	f023 01ff 	bic.w	r1, r3, #255	; 0xff
 8004cbe:	687b      	ldr	r3, [r7, #4]
 8004cc0:	695a      	ldr	r2, [r3, #20]
 8004cc2:	687b      	ldr	r3, [r7, #4]
 8004cc4:	699b      	ldr	r3, [r3, #24]
 8004cc6:	431a      	orrs	r2, r3
 8004cc8:	687b      	ldr	r3, [r7, #4]
 8004cca:	681b      	ldr	r3, [r3, #0]
 8004ccc:	430a      	orrs	r2, r1
 8004cce:	60da      	str	r2, [r3, #12]

  /* Enable the selected I2C peripheral */
  __HAL_I2C_ENABLE(hi2c);
 8004cd0:	687b      	ldr	r3, [r7, #4]
 8004cd2:	681b      	ldr	r3, [r3, #0]
 8004cd4:	681a      	ldr	r2, [r3, #0]
 8004cd6:	687b      	ldr	r3, [r7, #4]
 8004cd8:	681b      	ldr	r3, [r3, #0]
 8004cda:	f042 0201 	orr.w	r2, r2, #1
 8004cde:	601a      	str	r2, [r3, #0]

  hi2c->ErrorCode = HAL_I2C_ERROR_NONE;
 8004ce0:	687b      	ldr	r3, [r7, #4]
 8004ce2:	2200      	movs	r2, #0
 8004ce4:	641a      	str	r2, [r3, #64]	; 0x40
  hi2c->State = HAL_I2C_STATE_READY;
 8004ce6:	687b      	ldr	r3, [r7, #4]
 8004ce8:	2220      	movs	r2, #32
 8004cea:	f883 203d 	strb.w	r2, [r3, #61]	; 0x3d
  hi2c->PreviousState = I2C_STATE_NONE;
 8004cee:	687b      	ldr	r3, [r7, #4]
 8004cf0:	2200      	movs	r2, #0
 8004cf2:	631a      	str	r2, [r3, #48]	; 0x30
  hi2c->Mode = HAL_I2C_MODE_NONE;
 8004cf4:	687b      	ldr	r3, [r7, #4]
 8004cf6:	2200      	movs	r2, #0
 8004cf8:	f883 203e 	strb.w	r2, [r3, #62]	; 0x3e

  return HAL_OK;
 8004cfc:	2300      	movs	r3, #0
}
 8004cfe:	4618      	mov	r0, r3
 8004d00:	3710      	adds	r7, #16
 8004d02:	46bd      	mov	sp, r7
 8004d04:	bd80      	pop	{r7, pc}
 8004d06:	bf00      	nop
 8004d08:	000186a0 	.word	0x000186a0
 8004d0c:	001e847f 	.word	0x001e847f
 8004d10:	003d08ff 	.word	0x003d08ff
 8004d14:	431bde83 	.word	0x431bde83
 8004d18:	10624dd3 	.word	0x10624dd3

08004d1c <HAL_I2C_Master_Transmit>:
  * @param  Size Amount of data to be sent
  * @param  Timeout Timeout duration
  * @retval HAL status
  */
HAL_StatusTypeDef HAL_I2C_Master_Transmit(I2C_HandleTypeDef *hi2c, uint16_t DevAddress, uint8_t *pData, uint16_t Size, uint32_t Timeout)
{
 8004d1c:	b580      	push	{r7, lr}
 8004d1e:	b088      	sub	sp, #32
 8004d20:	af02      	add	r7, sp, #8
 8004d22:	60f8      	str	r0, [r7, #12]
 8004d24:	607a      	str	r2, [r7, #4]
 8004d26:	461a      	mov	r2, r3
 8004d28:	460b      	mov	r3, r1
 8004d2a:	817b      	strh	r3, [r7, #10]
 8004d2c:	4613      	mov	r3, r2
 8004d2e:	813b      	strh	r3, [r7, #8]
  /* Init tickstart for timeout management*/
  uint32_t tickstart = HAL_GetTick();
 8004d30:	f7fe f90c 	bl	8002f4c <HAL_GetTick>
 8004d34:	6178      	str	r0, [r7, #20]

  if (hi2c->State == HAL_I2C_STATE_READY)
 8004d36:	68fb      	ldr	r3, [r7, #12]
 8004d38:	f893 303d 	ldrb.w	r3, [r3, #61]	; 0x3d
 8004d3c:	b2db      	uxtb	r3, r3
 8004d3e:	2b20      	cmp	r3, #32
 8004d40:	f040 80e0 	bne.w	8004f04 <HAL_I2C_Master_Transmit+0x1e8>
  {
    /* Wait until BUSY flag is reset */
    if (I2C_WaitOnFlagUntilTimeout(hi2c, I2C_FLAG_BUSY, SET, I2C_TIMEOUT_BUSY_FLAG, tickstart) != HAL_OK)
 8004d44:	697b      	ldr	r3, [r7, #20]
 8004d46:	9300      	str	r3, [sp, #0]
 8004d48:	2319      	movs	r3, #25
 8004d4a:	2201      	movs	r2, #1
 8004d4c:	4970      	ldr	r1, [pc, #448]	; (8004f10 <HAL_I2C_Master_Transmit+0x1f4>)
 8004d4e:	68f8      	ldr	r0, [r7, #12]
 8004d50:	f000 fc64 	bl	800561c <I2C_WaitOnFlagUntilTimeout>
 8004d54:	4603      	mov	r3, r0
 8004d56:	2b00      	cmp	r3, #0
 8004d58:	d001      	beq.n	8004d5e <HAL_I2C_Master_Transmit+0x42>
    {
      return HAL_BUSY;
 8004d5a:	2302      	movs	r3, #2
 8004d5c:	e0d3      	b.n	8004f06 <HAL_I2C_Master_Transmit+0x1ea>
    }

    /* Process Locked */
    __HAL_LOCK(hi2c);
 8004d5e:	68fb      	ldr	r3, [r7, #12]
 8004d60:	f893 303c 	ldrb.w	r3, [r3, #60]	; 0x3c
 8004d64:	2b01      	cmp	r3, #1
 8004d66:	d101      	bne.n	8004d6c <HAL_I2C_Master_Transmit+0x50>
 8004d68:	2302      	movs	r3, #2
 8004d6a:	e0cc      	b.n	8004f06 <HAL_I2C_Master_Transmit+0x1ea>
 8004d6c:	68fb      	ldr	r3, [r7, #12]
 8004d6e:	2201      	movs	r2, #1
 8004d70:	f883 203c 	strb.w	r2, [r3, #60]	; 0x3c

    /* Check if the I2C is already enabled */
    if ((hi2c->Instance->CR1 & I2C_CR1_PE) != I2C_CR1_PE)
 8004d74:	68fb      	ldr	r3, [r7, #12]
 8004d76:	681b      	ldr	r3, [r3, #0]
 8004d78:	681b      	ldr	r3, [r3, #0]
 8004d7a:	f003 0301 	and.w	r3, r3, #1
 8004d7e:	2b01      	cmp	r3, #1
 8004d80:	d007      	beq.n	8004d92 <HAL_I2C_Master_Transmit+0x76>
    {
      /* Enable I2C peripheral */
      __HAL_I2C_ENABLE(hi2c);
 8004d82:	68fb      	ldr	r3, [r7, #12]
 8004d84:	681b      	ldr	r3, [r3, #0]
 8004d86:	681a      	ldr	r2, [r3, #0]
 8004d88:	68fb      	ldr	r3, [r7, #12]
 8004d8a:	681b      	ldr	r3, [r3, #0]
 8004d8c:	f042 0201 	orr.w	r2, r2, #1
 8004d90:	601a      	str	r2, [r3, #0]
    }

    /* Disable Pos */
    CLEAR_BIT(hi2c->Instance->CR1, I2C_CR1_POS);
 8004d92:	68fb      	ldr	r3, [r7, #12]
 8004d94:	681b      	ldr	r3, [r3, #0]
 8004d96:	681a      	ldr	r2, [r3, #0]
 8004d98:	68fb      	ldr	r3, [r7, #12]
 8004d9a:	681b      	ldr	r3, [r3, #0]
 8004d9c:	f422 6200 	bic.w	r2, r2, #2048	; 0x800
 8004da0:	601a      	str	r2, [r3, #0]

    hi2c->State       = HAL_I2C_STATE_BUSY_TX;
 8004da2:	68fb      	ldr	r3, [r7, #12]
 8004da4:	2221      	movs	r2, #33	; 0x21
 8004da6:	f883 203d 	strb.w	r2, [r3, #61]	; 0x3d
    hi2c->Mode        = HAL_I2C_MODE_MASTER;
 8004daa:	68fb      	ldr	r3, [r7, #12]
 8004dac:	2210      	movs	r2, #16
 8004dae:	f883 203e 	strb.w	r2, [r3, #62]	; 0x3e
    hi2c->ErrorCode   = HAL_I2C_ERROR_NONE;
 8004db2:	68fb      	ldr	r3, [r7, #12]
 8004db4:	2200      	movs	r2, #0
 8004db6:	641a      	str	r2, [r3, #64]	; 0x40

    /* Prepare transfer parameters */
    hi2c->pBuffPtr    = pData;
 8004db8:	68fb      	ldr	r3, [r7, #12]
 8004dba:	687a      	ldr	r2, [r7, #4]
 8004dbc:	625a      	str	r2, [r3, #36]	; 0x24
    hi2c->XferCount   = Size;
 8004dbe:	68fb      	ldr	r3, [r7, #12]
 8004dc0:	893a      	ldrh	r2, [r7, #8]
 8004dc2:	855a      	strh	r2, [r3, #42]	; 0x2a
    hi2c->XferSize    = hi2c->XferCount;
 8004dc4:	68fb      	ldr	r3, [r7, #12]
 8004dc6:	8d5b      	ldrh	r3, [r3, #42]	; 0x2a
 8004dc8:	b29a      	uxth	r2, r3
 8004dca:	68fb      	ldr	r3, [r7, #12]
 8004dcc:	851a      	strh	r2, [r3, #40]	; 0x28
    hi2c->XferOptions = I2C_NO_OPTION_FRAME;
 8004dce:	68fb      	ldr	r3, [r7, #12]
 8004dd0:	4a50      	ldr	r2, [pc, #320]	; (8004f14 <HAL_I2C_Master_Transmit+0x1f8>)
 8004dd2:	62da      	str	r2, [r3, #44]	; 0x2c

    /* Send Slave Address */
    if (I2C_MasterRequestWrite(hi2c, DevAddress, Timeout, tickstart) != HAL_OK)
 8004dd4:	8979      	ldrh	r1, [r7, #10]
 8004dd6:	697b      	ldr	r3, [r7, #20]
 8004dd8:	6a3a      	ldr	r2, [r7, #32]
 8004dda:	68f8      	ldr	r0, [r7, #12]
 8004ddc:	f000 face 	bl	800537c <I2C_MasterRequestWrite>
 8004de0:	4603      	mov	r3, r0
 8004de2:	2b00      	cmp	r3, #0
 8004de4:	d001      	beq.n	8004dea <HAL_I2C_Master_Transmit+0xce>
    {
      return HAL_ERROR;
 8004de6:	2301      	movs	r3, #1
 8004de8:	e08d      	b.n	8004f06 <HAL_I2C_Master_Transmit+0x1ea>
    }

    /* Clear ADDR flag */
    __HAL_I2C_CLEAR_ADDRFLAG(hi2c);
 8004dea:	2300      	movs	r3, #0
 8004dec:	613b      	str	r3, [r7, #16]
 8004dee:	68fb      	ldr	r3, [r7, #12]
 8004df0:	681b      	ldr	r3, [r3, #0]
 8004df2:	695b      	ldr	r3, [r3, #20]
 8004df4:	613b      	str	r3, [r7, #16]
 8004df6:	68fb      	ldr	r3, [r7, #12]
 8004df8:	681b      	ldr	r3, [r3, #0]
 8004dfa:	699b      	ldr	r3, [r3, #24]
 8004dfc:	613b      	str	r3, [r7, #16]
 8004dfe:	693b      	ldr	r3, [r7, #16]

    while (hi2c->XferSize > 0U)
 8004e00:	e066      	b.n	8004ed0 <HAL_I2C_Master_Transmit+0x1b4>
    {
      /* Wait until TXE flag is set */
      if (I2C_WaitOnTXEFlagUntilTimeout(hi2c, Timeout, tickstart) != HAL_OK)
 8004e02:	697a      	ldr	r2, [r7, #20]
 8004e04:	6a39      	ldr	r1, [r7, #32]
 8004e06:	68f8      	ldr	r0, [r7, #12]
 8004e08:	f000 fd22 	bl	8005850 <I2C_WaitOnTXEFlagUntilTimeout>
 8004e0c:	4603      	mov	r3, r0
 8004e0e:	2b00      	cmp	r3, #0
 8004e10:	d00d      	beq.n	8004e2e <HAL_I2C_Master_Transmit+0x112>
      {
        if (hi2c->ErrorCode == HAL_I2C_ERROR_AF)
 8004e12:	68fb      	ldr	r3, [r7, #12]
 8004e14:	6c1b      	ldr	r3, [r3, #64]	; 0x40
 8004e16:	2b04      	cmp	r3, #4
 8004e18:	d107      	bne.n	8004e2a <HAL_I2C_Master_Transmit+0x10e>
        {
          /* Generate Stop */
          SET_BIT(hi2c->Instance->CR1, I2C_CR1_STOP);
 8004e1a:	68fb      	ldr	r3, [r7, #12]
 8004e1c:	681b      	ldr	r3, [r3, #0]
 8004e1e:	681a      	ldr	r2, [r3, #0]
 8004e20:	68fb      	ldr	r3, [r7, #12]
 8004e22:	681b      	ldr	r3, [r3, #0]
 8004e24:	f442 7200 	orr.w	r2, r2, #512	; 0x200
 8004e28:	601a      	str	r2, [r3, #0]
        }
        return HAL_ERROR;
 8004e2a:	2301      	movs	r3, #1
 8004e2c:	e06b      	b.n	8004f06 <HAL_I2C_Master_Transmit+0x1ea>
      }

      /* Write data to DR */
      hi2c->Instance->DR = *hi2c->pBuffPtr;
 8004e2e:	68fb      	ldr	r3, [r7, #12]
 8004e30:	6a5b      	ldr	r3, [r3, #36]	; 0x24
 8004e32:	781a      	ldrb	r2, [r3, #0]
 8004e34:	68fb      	ldr	r3, [r7, #12]
 8004e36:	681b      	ldr	r3, [r3, #0]
 8004e38:	611a      	str	r2, [r3, #16]

      /* Increment Buffer pointer */
      hi2c->pBuffPtr++;
 8004e3a:	68fb      	ldr	r3, [r7, #12]
 8004e3c:	6a5b      	ldr	r3, [r3, #36]	; 0x24
 8004e3e:	1c5a      	adds	r2, r3, #1
 8004e40:	68fb      	ldr	r3, [r7, #12]
 8004e42:	625a      	str	r2, [r3, #36]	; 0x24

      /* Update counter */
      hi2c->XferCount--;
 8004e44:	68fb      	ldr	r3, [r7, #12]
 8004e46:	8d5b      	ldrh	r3, [r3, #42]	; 0x2a
 8004e48:	b29b      	uxth	r3, r3
 8004e4a:	3b01      	subs	r3, #1
 8004e4c:	b29a      	uxth	r2, r3
 8004e4e:	68fb      	ldr	r3, [r7, #12]
 8004e50:	855a      	strh	r2, [r3, #42]	; 0x2a
      hi2c->XferSize--;
 8004e52:	68fb      	ldr	r3, [r7, #12]
 8004e54:	8d1b      	ldrh	r3, [r3, #40]	; 0x28
 8004e56:	3b01      	subs	r3, #1
 8004e58:	b29a      	uxth	r2, r3
 8004e5a:	68fb      	ldr	r3, [r7, #12]
 8004e5c:	851a      	strh	r2, [r3, #40]	; 0x28

      if ((__HAL_I2C_GET_FLAG(hi2c, I2C_FLAG_BTF) == SET) && (hi2c->XferSize != 0U))
 8004e5e:	68fb      	ldr	r3, [r7, #12]
 8004e60:	681b      	ldr	r3, [r3, #0]
 8004e62:	695b      	ldr	r3, [r3, #20]
 8004e64:	f003 0304 	and.w	r3, r3, #4
 8004e68:	2b04      	cmp	r3, #4
 8004e6a:	d11b      	bne.n	8004ea4 <HAL_I2C_Master_Transmit+0x188>
 8004e6c:	68fb      	ldr	r3, [r7, #12]
 8004e6e:	8d1b      	ldrh	r3, [r3, #40]	; 0x28
 8004e70:	2b00      	cmp	r3, #0
 8004e72:	d017      	beq.n	8004ea4 <HAL_I2C_Master_Transmit+0x188>
      {
        /* Write data to DR */
        hi2c->Instance->DR = *hi2c->pBuffPtr;
 8004e74:	68fb      	ldr	r3, [r7, #12]
 8004e76:	6a5b      	ldr	r3, [r3, #36]	; 0x24
 8004e78:	781a      	ldrb	r2, [r3, #0]
 8004e7a:	68fb      	ldr	r3, [r7, #12]
 8004e7c:	681b      	ldr	r3, [r3, #0]
 8004e7e:	611a      	str	r2, [r3, #16]

        /* Increment Buffer pointer */
        hi2c->pBuffPtr++;
 8004e80:	68fb      	ldr	r3, [r7, #12]
 8004e82:	6a5b      	ldr	r3, [r3, #36]	; 0x24
 8004e84:	1c5a      	adds	r2, r3, #1
 8004e86:	68fb      	ldr	r3, [r7, #12]
 8004e88:	625a      	str	r2, [r3, #36]	; 0x24

        /* Update counter */
        hi2c->XferCount--;
 8004e8a:	68fb      	ldr	r3, [r7, #12]
 8004e8c:	8d5b      	ldrh	r3, [r3, #42]	; 0x2a
 8004e8e:	b29b      	uxth	r3, r3
 8004e90:	3b01      	subs	r3, #1
 8004e92:	b29a      	uxth	r2, r3
 8004e94:	68fb      	ldr	r3, [r7, #12]
 8004e96:	855a      	strh	r2, [r3, #42]	; 0x2a
        hi2c->XferSize--;
 8004e98:	68fb      	ldr	r3, [r7, #12]
 8004e9a:	8d1b      	ldrh	r3, [r3, #40]	; 0x28
 8004e9c:	3b01      	subs	r3, #1
 8004e9e:	b29a      	uxth	r2, r3
 8004ea0:	68fb      	ldr	r3, [r7, #12]
 8004ea2:	851a      	strh	r2, [r3, #40]	; 0x28
      }

      /* Wait until BTF flag is set */
      if (I2C_WaitOnBTFFlagUntilTimeout(hi2c, Timeout, tickstart) != HAL_OK)
 8004ea4:	697a      	ldr	r2, [r7, #20]
 8004ea6:	6a39      	ldr	r1, [r7, #32]
 8004ea8:	68f8      	ldr	r0, [r7, #12]
 8004eaa:	f000 fd19 	bl	80058e0 <I2C_WaitOnBTFFlagUntilTimeout>
 8004eae:	4603      	mov	r3, r0
 8004eb0:	2b00      	cmp	r3, #0
 8004eb2:	d00d      	beq.n	8004ed0 <HAL_I2C_Master_Transmit+0x1b4>
      {
        if (hi2c->ErrorCode == HAL_I2C_ERROR_AF)
 8004eb4:	68fb      	ldr	r3, [r7, #12]
 8004eb6:	6c1b      	ldr	r3, [r3, #64]	; 0x40
 8004eb8:	2b04      	cmp	r3, #4
 8004eba:	d107      	bne.n	8004ecc <HAL_I2C_Master_Transmit+0x1b0>
        {
          /* Generate Stop */
          SET_BIT(hi2c->Instance->CR1, I2C_CR1_STOP);
 8004ebc:	68fb      	ldr	r3, [r7, #12]
 8004ebe:	681b      	ldr	r3, [r3, #0]
 8004ec0:	681a      	ldr	r2, [r3, #0]
 8004ec2:	68fb      	ldr	r3, [r7, #12]
 8004ec4:	681b      	ldr	r3, [r3, #0]
 8004ec6:	f442 7200 	orr.w	r2, r2, #512	; 0x200
 8004eca:	601a      	str	r2, [r3, #0]
        }
        return HAL_ERROR;
 8004ecc:	2301      	movs	r3, #1
 8004ece:	e01a      	b.n	8004f06 <HAL_I2C_Master_Transmit+0x1ea>
    while (hi2c->XferSize > 0U)
 8004ed0:	68fb      	ldr	r3, [r7, #12]
 8004ed2:	8d1b      	ldrh	r3, [r3, #40]	; 0x28
 8004ed4:	2b00      	cmp	r3, #0
 8004ed6:	d194      	bne.n	8004e02 <HAL_I2C_Master_Transmit+0xe6>
      }
    }

    /* Generate Stop */
    SET_BIT(hi2c->Instance->CR1, I2C_CR1_STOP);
 8004ed8:	68fb      	ldr	r3, [r7, #12]
 8004eda:	681b      	ldr	r3, [r3, #0]
 8004edc:	681a      	ldr	r2, [r3, #0]
 8004ede:	68fb      	ldr	r3, [r7, #12]
 8004ee0:	681b      	ldr	r3, [r3, #0]
 8004ee2:	f442 7200 	orr.w	r2, r2, #512	; 0x200
 8004ee6:	601a      	str	r2, [r3, #0]

    hi2c->State = HAL_I2C_STATE_READY;
 8004ee8:	68fb      	ldr	r3, [r7, #12]
 8004eea:	2220      	movs	r2, #32
 8004eec:	f883 203d 	strb.w	r2, [r3, #61]	; 0x3d
    hi2c->Mode = HAL_I2C_MODE_NONE;
 8004ef0:	68fb      	ldr	r3, [r7, #12]
 8004ef2:	2200      	movs	r2, #0
 8004ef4:	f883 203e 	strb.w	r2, [r3, #62]	; 0x3e

    /* Process Unlocked */
    __HAL_UNLOCK(hi2c);
 8004ef8:	68fb      	ldr	r3, [r7, #12]
 8004efa:	2200      	movs	r2, #0
 8004efc:	f883 203c 	strb.w	r2, [r3, #60]	; 0x3c

    return HAL_OK;
 8004f00:	2300      	movs	r3, #0
 8004f02:	e000      	b.n	8004f06 <HAL_I2C_Master_Transmit+0x1ea>
  }
  else
  {
    return HAL_BUSY;
 8004f04:	2302      	movs	r3, #2
  }
}
 8004f06:	4618      	mov	r0, r3
 8004f08:	3718      	adds	r7, #24
 8004f0a:	46bd      	mov	sp, r7
 8004f0c:	bd80      	pop	{r7, pc}
 8004f0e:	bf00      	nop
 8004f10:	00100002 	.word	0x00100002
 8004f14:	ffff0000 	.word	0xffff0000

08004f18 <HAL_I2C_Master_Receive>:
  * @param  Size Amount of data to be sent
  * @param  Timeout Timeout duration
  * @retval HAL status
  */
HAL_StatusTypeDef HAL_I2C_Master_Receive(I2C_HandleTypeDef *hi2c, uint16_t DevAddress, uint8_t *pData, uint16_t Size, uint32_t Timeout)
{
 8004f18:	b580      	push	{r7, lr}
 8004f1a:	b08c      	sub	sp, #48	; 0x30
 8004f1c:	af02      	add	r7, sp, #8
 8004f1e:	60f8      	str	r0, [r7, #12]
 8004f20:	607a      	str	r2, [r7, #4]
 8004f22:	461a      	mov	r2, r3
 8004f24:	460b      	mov	r3, r1
 8004f26:	817b      	strh	r3, [r7, #10]
 8004f28:	4613      	mov	r3, r2
 8004f2a:	813b      	strh	r3, [r7, #8]
  /* Init tickstart for timeout management*/
  uint32_t tickstart = HAL_GetTick();
 8004f2c:	f7fe f80e 	bl	8002f4c <HAL_GetTick>
 8004f30:	6278      	str	r0, [r7, #36]	; 0x24

  if (hi2c->State == HAL_I2C_STATE_READY)
 8004f32:	68fb      	ldr	r3, [r7, #12]
 8004f34:	f893 303d 	ldrb.w	r3, [r3, #61]	; 0x3d
 8004f38:	b2db      	uxtb	r3, r3
 8004f3a:	2b20      	cmp	r3, #32
 8004f3c:	f040 8217 	bne.w	800536e <HAL_I2C_Master_Receive+0x456>
  {
    /* Wait until BUSY flag is reset */
    if (I2C_WaitOnFlagUntilTimeout(hi2c, I2C_FLAG_BUSY, SET, I2C_TIMEOUT_BUSY_FLAG, tickstart) != HAL_OK)
 8004f40:	6a7b      	ldr	r3, [r7, #36]	; 0x24
 8004f42:	9300      	str	r3, [sp, #0]
 8004f44:	2319      	movs	r3, #25
 8004f46:	2201      	movs	r2, #1
 8004f48:	497c      	ldr	r1, [pc, #496]	; (800513c <HAL_I2C_Master_Receive+0x224>)
 8004f4a:	68f8      	ldr	r0, [r7, #12]
 8004f4c:	f000 fb66 	bl	800561c <I2C_WaitOnFlagUntilTimeout>
 8004f50:	4603      	mov	r3, r0
 8004f52:	2b00      	cmp	r3, #0
 8004f54:	d001      	beq.n	8004f5a <HAL_I2C_Master_Receive+0x42>
    {
      return HAL_BUSY;
 8004f56:	2302      	movs	r3, #2
 8004f58:	e20a      	b.n	8005370 <HAL_I2C_Master_Receive+0x458>
    }

    /* Process Locked */
    __HAL_LOCK(hi2c);
 8004f5a:	68fb      	ldr	r3, [r7, #12]
 8004f5c:	f893 303c 	ldrb.w	r3, [r3, #60]	; 0x3c
 8004f60:	2b01      	cmp	r3, #1
 8004f62:	d101      	bne.n	8004f68 <HAL_I2C_Master_Receive+0x50>
 8004f64:	2302      	movs	r3, #2
 8004f66:	e203      	b.n	8005370 <HAL_I2C_Master_Receive+0x458>
 8004f68:	68fb      	ldr	r3, [r7, #12]
 8004f6a:	2201      	movs	r2, #1
 8004f6c:	f883 203c 	strb.w	r2, [r3, #60]	; 0x3c

    /* Check if the I2C is already enabled */
    if ((hi2c->Instance->CR1 & I2C_CR1_PE) != I2C_CR1_PE)
 8004f70:	68fb      	ldr	r3, [r7, #12]
 8004f72:	681b      	ldr	r3, [r3, #0]
 8004f74:	681b      	ldr	r3, [r3, #0]
 8004f76:	f003 0301 	and.w	r3, r3, #1
 8004f7a:	2b01      	cmp	r3, #1
 8004f7c:	d007      	beq.n	8004f8e <HAL_I2C_Master_Receive+0x76>
    {
      /* Enable I2C peripheral */
      __HAL_I2C_ENABLE(hi2c);
 8004f7e:	68fb      	ldr	r3, [r7, #12]
 8004f80:	681b      	ldr	r3, [r3, #0]
 8004f82:	681a      	ldr	r2, [r3, #0]
 8004f84:	68fb      	ldr	r3, [r7, #12]
 8004f86:	681b      	ldr	r3, [r3, #0]
 8004f88:	f042 0201 	orr.w	r2, r2, #1
 8004f8c:	601a      	str	r2, [r3, #0]
    }

    /* Disable Pos */
    CLEAR_BIT(hi2c->Instance->CR1, I2C_CR1_POS);
 8004f8e:	68fb      	ldr	r3, [r7, #12]
 8004f90:	681b      	ldr	r3, [r3, #0]
 8004f92:	681a      	ldr	r2, [r3, #0]
 8004f94:	68fb      	ldr	r3, [r7, #12]
 8004f96:	681b      	ldr	r3, [r3, #0]
 8004f98:	f422 6200 	bic.w	r2, r2, #2048	; 0x800
 8004f9c:	601a      	str	r2, [r3, #0]

    hi2c->State       = HAL_I2C_STATE_BUSY_RX;
 8004f9e:	68fb      	ldr	r3, [r7, #12]
 8004fa0:	2222      	movs	r2, #34	; 0x22
 8004fa2:	f883 203d 	strb.w	r2, [r3, #61]	; 0x3d
    hi2c->Mode        = HAL_I2C_MODE_MASTER;
 8004fa6:	68fb      	ldr	r3, [r7, #12]
 8004fa8:	2210      	movs	r2, #16
 8004faa:	f883 203e 	strb.w	r2, [r3, #62]	; 0x3e
    hi2c->ErrorCode   = HAL_I2C_ERROR_NONE;
 8004fae:	68fb      	ldr	r3, [r7, #12]
 8004fb0:	2200      	movs	r2, #0
 8004fb2:	641a      	str	r2, [r3, #64]	; 0x40

    /* Prepare transfer parameters */
    hi2c->pBuffPtr    = pData;
 8004fb4:	68fb      	ldr	r3, [r7, #12]
 8004fb6:	687a      	ldr	r2, [r7, #4]
 8004fb8:	625a      	str	r2, [r3, #36]	; 0x24
    hi2c->XferCount   = Size;
 8004fba:	68fb      	ldr	r3, [r7, #12]
 8004fbc:	893a      	ldrh	r2, [r7, #8]
 8004fbe:	855a      	strh	r2, [r3, #42]	; 0x2a
    hi2c->XferSize    = hi2c->XferCount;
 8004fc0:	68fb      	ldr	r3, [r7, #12]
 8004fc2:	8d5b      	ldrh	r3, [r3, #42]	; 0x2a
 8004fc4:	b29a      	uxth	r2, r3
 8004fc6:	68fb      	ldr	r3, [r7, #12]
 8004fc8:	851a      	strh	r2, [r3, #40]	; 0x28
    hi2c->XferOptions = I2C_NO_OPTION_FRAME;
 8004fca:	68fb      	ldr	r3, [r7, #12]
 8004fcc:	4a5c      	ldr	r2, [pc, #368]	; (8005140 <HAL_I2C_Master_Receive+0x228>)
 8004fce:	62da      	str	r2, [r3, #44]	; 0x2c

    /* Send Slave Address */
    if (I2C_MasterRequestRead(hi2c, DevAddress, Timeout, tickstart) != HAL_OK)
 8004fd0:	8979      	ldrh	r1, [r7, #10]
 8004fd2:	6a7b      	ldr	r3, [r7, #36]	; 0x24
 8004fd4:	6b3a      	ldr	r2, [r7, #48]	; 0x30
 8004fd6:	68f8      	ldr	r0, [r7, #12]
 8004fd8:	f000 fa52 	bl	8005480 <I2C_MasterRequestRead>
 8004fdc:	4603      	mov	r3, r0
 8004fde:	2b00      	cmp	r3, #0
 8004fe0:	d001      	beq.n	8004fe6 <HAL_I2C_Master_Receive+0xce>
    {
      return HAL_ERROR;
 8004fe2:	2301      	movs	r3, #1
 8004fe4:	e1c4      	b.n	8005370 <HAL_I2C_Master_Receive+0x458>
    }

    if (hi2c->XferSize == 0U)
 8004fe6:	68fb      	ldr	r3, [r7, #12]
 8004fe8:	8d1b      	ldrh	r3, [r3, #40]	; 0x28
 8004fea:	2b00      	cmp	r3, #0
 8004fec:	d113      	bne.n	8005016 <HAL_I2C_Master_Receive+0xfe>
    {
      /* Clear ADDR flag */
      __HAL_I2C_CLEAR_ADDRFLAG(hi2c);
 8004fee:	2300      	movs	r3, #0
 8004ff0:	623b      	str	r3, [r7, #32]
 8004ff2:	68fb      	ldr	r3, [r7, #12]
 8004ff4:	681b      	ldr	r3, [r3, #0]
 8004ff6:	695b      	ldr	r3, [r3, #20]
 8004ff8:	623b      	str	r3, [r7, #32]
 8004ffa:	68fb      	ldr	r3, [r7, #12]
 8004ffc:	681b      	ldr	r3, [r3, #0]
 8004ffe:	699b      	ldr	r3, [r3, #24]
 8005000:	623b      	str	r3, [r7, #32]
 8005002:	6a3b      	ldr	r3, [r7, #32]

      /* Generate Stop */
      SET_BIT(hi2c->Instance->CR1, I2C_CR1_STOP);
 8005004:	68fb      	ldr	r3, [r7, #12]
 8005006:	681b      	ldr	r3, [r3, #0]
 8005008:	681a      	ldr	r2, [r3, #0]
 800500a:	68fb      	ldr	r3, [r7, #12]
 800500c:	681b      	ldr	r3, [r3, #0]
 800500e:	f442 7200 	orr.w	r2, r2, #512	; 0x200
 8005012:	601a      	str	r2, [r3, #0]
 8005014:	e198      	b.n	8005348 <HAL_I2C_Master_Receive+0x430>
    }
    else if (hi2c->XferSize == 1U)
 8005016:	68fb      	ldr	r3, [r7, #12]
 8005018:	8d1b      	ldrh	r3, [r3, #40]	; 0x28
 800501a:	2b01      	cmp	r3, #1
 800501c:	d11b      	bne.n	8005056 <HAL_I2C_Master_Receive+0x13e>
    {
      /* Disable Acknowledge */
      CLEAR_BIT(hi2c->Instance->CR1, I2C_CR1_ACK);
 800501e:	68fb      	ldr	r3, [r7, #12]
 8005020:	681b      	ldr	r3, [r3, #0]
 8005022:	681a      	ldr	r2, [r3, #0]
 8005024:	68fb      	ldr	r3, [r7, #12]
 8005026:	681b      	ldr	r3, [r3, #0]
 8005028:	f422 6280 	bic.w	r2, r2, #1024	; 0x400
 800502c:	601a      	str	r2, [r3, #0]

      /* Clear ADDR flag */
      __HAL_I2C_CLEAR_ADDRFLAG(hi2c);
 800502e:	2300      	movs	r3, #0
 8005030:	61fb      	str	r3, [r7, #28]
 8005032:	68fb      	ldr	r3, [r7, #12]
 8005034:	681b      	ldr	r3, [r3, #0]
 8005036:	695b      	ldr	r3, [r3, #20]
 8005038:	61fb      	str	r3, [r7, #28]
 800503a:	68fb      	ldr	r3, [r7, #12]
 800503c:	681b      	ldr	r3, [r3, #0]
 800503e:	699b      	ldr	r3, [r3, #24]
 8005040:	61fb      	str	r3, [r7, #28]
 8005042:	69fb      	ldr	r3, [r7, #28]

      /* Generate Stop */
      SET_BIT(hi2c->Instance->CR1, I2C_CR1_STOP);
 8005044:	68fb      	ldr	r3, [r7, #12]
 8005046:	681b      	ldr	r3, [r3, #0]
 8005048:	681a      	ldr	r2, [r3, #0]
 800504a:	68fb      	ldr	r3, [r7, #12]
 800504c:	681b      	ldr	r3, [r3, #0]
 800504e:	f442 7200 	orr.w	r2, r2, #512	; 0x200
 8005052:	601a      	str	r2, [r3, #0]
 8005054:	e178      	b.n	8005348 <HAL_I2C_Master_Receive+0x430>
    }
    else if (hi2c->XferSize == 2U)
 8005056:	68fb      	ldr	r3, [r7, #12]
 8005058:	8d1b      	ldrh	r3, [r3, #40]	; 0x28
 800505a:	2b02      	cmp	r3, #2
 800505c:	d11b      	bne.n	8005096 <HAL_I2C_Master_Receive+0x17e>
    {
      /* Disable Acknowledge */
      CLEAR_BIT(hi2c->Instance->CR1, I2C_CR1_ACK);
 800505e:	68fb      	ldr	r3, [r7, #12]
 8005060:	681b      	ldr	r3, [r3, #0]
 8005062:	681a      	ldr	r2, [r3, #0]
 8005064:	68fb      	ldr	r3, [r7, #12]
 8005066:	681b      	ldr	r3, [r3, #0]
 8005068:	f422 6280 	bic.w	r2, r2, #1024	; 0x400
 800506c:	601a      	str	r2, [r3, #0]

      /* Enable Pos */
      SET_BIT(hi2c->Instance->CR1, I2C_CR1_POS);
 800506e:	68fb      	ldr	r3, [r7, #12]
 8005070:	681b      	ldr	r3, [r3, #0]
 8005072:	681a      	ldr	r2, [r3, #0]
 8005074:	68fb      	ldr	r3, [r7, #12]
 8005076:	681b      	ldr	r3, [r3, #0]
 8005078:	f442 6200 	orr.w	r2, r2, #2048	; 0x800
 800507c:	601a      	str	r2, [r3, #0]

      /* Clear ADDR flag */
      __HAL_I2C_CLEAR_ADDRFLAG(hi2c);
 800507e:	2300      	movs	r3, #0
 8005080:	61bb      	str	r3, [r7, #24]
 8005082:	68fb      	ldr	r3, [r7, #12]
 8005084:	681b      	ldr	r3, [r3, #0]
 8005086:	695b      	ldr	r3, [r3, #20]
 8005088:	61bb      	str	r3, [r7, #24]
 800508a:	68fb      	ldr	r3, [r7, #12]
 800508c:	681b      	ldr	r3, [r3, #0]
 800508e:	699b      	ldr	r3, [r3, #24]
 8005090:	61bb      	str	r3, [r7, #24]
 8005092:	69bb      	ldr	r3, [r7, #24]
 8005094:	e158      	b.n	8005348 <HAL_I2C_Master_Receive+0x430>
    }
    else
    {
      /* Enable Acknowledge */
      SET_BIT(hi2c->Instance->CR1, I2C_CR1_ACK);
 8005096:	68fb      	ldr	r3, [r7, #12]
 8005098:	681b      	ldr	r3, [r3, #0]
 800509a:	681a      	ldr	r2, [r3, #0]
 800509c:	68fb      	ldr	r3, [r7, #12]
 800509e:	681b      	ldr	r3, [r3, #0]
 80050a0:	f442 6280 	orr.w	r2, r2, #1024	; 0x400
 80050a4:	601a      	str	r2, [r3, #0]

      /* Clear ADDR flag */
      __HAL_I2C_CLEAR_ADDRFLAG(hi2c);
 80050a6:	2300      	movs	r3, #0
 80050a8:	617b      	str	r3, [r7, #20]
 80050aa:	68fb      	ldr	r3, [r7, #12]
 80050ac:	681b      	ldr	r3, [r3, #0]
 80050ae:	695b      	ldr	r3, [r3, #20]
 80050b0:	617b      	str	r3, [r7, #20]
 80050b2:	68fb      	ldr	r3, [r7, #12]
 80050b4:	681b      	ldr	r3, [r3, #0]
 80050b6:	699b      	ldr	r3, [r3, #24]
 80050b8:	617b      	str	r3, [r7, #20]
 80050ba:	697b      	ldr	r3, [r7, #20]
    }

    while (hi2c->XferSize > 0U)
 80050bc:	e144      	b.n	8005348 <HAL_I2C_Master_Receive+0x430>
    {
      if (hi2c->XferSize <= 3U)
 80050be:	68fb      	ldr	r3, [r7, #12]
 80050c0:	8d1b      	ldrh	r3, [r3, #40]	; 0x28
 80050c2:	2b03      	cmp	r3, #3
 80050c4:	f200 80f1 	bhi.w	80052aa <HAL_I2C_Master_Receive+0x392>
      {
        /* One byte */
        if (hi2c->XferSize == 1U)
 80050c8:	68fb      	ldr	r3, [r7, #12]
 80050ca:	8d1b      	ldrh	r3, [r3, #40]	; 0x28
 80050cc:	2b01      	cmp	r3, #1
 80050ce:	d123      	bne.n	8005118 <HAL_I2C_Master_Receive+0x200>
        {
          /* Wait until RXNE flag is set */
          if (I2C_WaitOnRXNEFlagUntilTimeout(hi2c, Timeout, tickstart) != HAL_OK)
 80050d0:	6a7a      	ldr	r2, [r7, #36]	; 0x24
 80050d2:	6b39      	ldr	r1, [r7, #48]	; 0x30
 80050d4:	68f8      	ldr	r0, [r7, #12]
 80050d6:	f000 fc4b 	bl	8005970 <I2C_WaitOnRXNEFlagUntilTimeout>
 80050da:	4603      	mov	r3, r0
 80050dc:	2b00      	cmp	r3, #0
 80050de:	d001      	beq.n	80050e4 <HAL_I2C_Master_Receive+0x1cc>
          {
            return HAL_ERROR;
 80050e0:	2301      	movs	r3, #1
 80050e2:	e145      	b.n	8005370 <HAL_I2C_Master_Receive+0x458>
          }

          /* Read data from DR */
          *hi2c->pBuffPtr = (uint8_t)hi2c->Instance->DR;
 80050e4:	68fb      	ldr	r3, [r7, #12]
 80050e6:	681b      	ldr	r3, [r3, #0]
 80050e8:	691a      	ldr	r2, [r3, #16]
 80050ea:	68fb      	ldr	r3, [r7, #12]
 80050ec:	6a5b      	ldr	r3, [r3, #36]	; 0x24
 80050ee:	b2d2      	uxtb	r2, r2
 80050f0:	701a      	strb	r2, [r3, #0]

          /* Increment Buffer pointer */
          hi2c->pBuffPtr++;
 80050f2:	68fb      	ldr	r3, [r7, #12]
 80050f4:	6a5b      	ldr	r3, [r3, #36]	; 0x24
 80050f6:	1c5a      	adds	r2, r3, #1
 80050f8:	68fb      	ldr	r3, [r7, #12]
 80050fa:	625a      	str	r2, [r3, #36]	; 0x24

          /* Update counter */
          hi2c->XferSize--;
 80050fc:	68fb      	ldr	r3, [r7, #12]
 80050fe:	8d1b      	ldrh	r3, [r3, #40]	; 0x28
 8005100:	3b01      	subs	r3, #1
 8005102:	b29a      	uxth	r2, r3
 8005104:	68fb      	ldr	r3, [r7, #12]
 8005106:	851a      	strh	r2, [r3, #40]	; 0x28
          hi2c->XferCount--;
 8005108:	68fb      	ldr	r3, [r7, #12]
 800510a:	8d5b      	ldrh	r3, [r3, #42]	; 0x2a
 800510c:	b29b      	uxth	r3, r3
 800510e:	3b01      	subs	r3, #1
 8005110:	b29a      	uxth	r2, r3
 8005112:	68fb      	ldr	r3, [r7, #12]
 8005114:	855a      	strh	r2, [r3, #42]	; 0x2a
 8005116:	e117      	b.n	8005348 <HAL_I2C_Master_Receive+0x430>
        }
        /* Two bytes */
        else if (hi2c->XferSize == 2U)
 8005118:	68fb      	ldr	r3, [r7, #12]
 800511a:	8d1b      	ldrh	r3, [r3, #40]	; 0x28
 800511c:	2b02      	cmp	r3, #2
 800511e:	d14e      	bne.n	80051be <HAL_I2C_Master_Receive+0x2a6>
        {
          /* Wait until BTF flag is set */
          if (I2C_WaitOnFlagUntilTimeout(hi2c, I2C_FLAG_BTF, RESET, Timeout, tickstart) != HAL_OK)
 8005120:	6a7b      	ldr	r3, [r7, #36]	; 0x24
 8005122:	9300      	str	r3, [sp, #0]
 8005124:	6b3b      	ldr	r3, [r7, #48]	; 0x30
 8005126:	2200      	movs	r2, #0
 8005128:	4906      	ldr	r1, [pc, #24]	; (8005144 <HAL_I2C_Master_Receive+0x22c>)
 800512a:	68f8      	ldr	r0, [r7, #12]
 800512c:	f000 fa76 	bl	800561c <I2C_WaitOnFlagUntilTimeout>
 8005130:	4603      	mov	r3, r0
 8005132:	2b00      	cmp	r3, #0
 8005134:	d008      	beq.n	8005148 <HAL_I2C_Master_Receive+0x230>
          {
            return HAL_ERROR;
 8005136:	2301      	movs	r3, #1
 8005138:	e11a      	b.n	8005370 <HAL_I2C_Master_Receive+0x458>
 800513a:	bf00      	nop
 800513c:	00100002 	.word	0x00100002
 8005140:	ffff0000 	.word	0xffff0000
 8005144:	00010004 	.word	0x00010004
          }

          /* Generate Stop */
          SET_BIT(hi2c->Instance->CR1, I2C_CR1_STOP);
 8005148:	68fb      	ldr	r3, [r7, #12]
 800514a:	681b      	ldr	r3, [r3, #0]
 800514c:	681a      	ldr	r2, [r3, #0]
 800514e:	68fb      	ldr	r3, [r7, #12]
 8005150:	681b      	ldr	r3, [r3, #0]
 8005152:	f442 7200 	orr.w	r2, r2, #512	; 0x200
 8005156:	601a      	str	r2, [r3, #0]

          /* Read data from DR */
          *hi2c->pBuffPtr = (uint8_t)hi2c->Instance->DR;
 8005158:	68fb      	ldr	r3, [r7, #12]
 800515a:	681b      	ldr	r3, [r3, #0]
 800515c:	691a      	ldr	r2, [r3, #16]
 800515e:	68fb      	ldr	r3, [r7, #12]
 8005160:	6a5b      	ldr	r3, [r3, #36]	; 0x24
 8005162:	b2d2      	uxtb	r2, r2
 8005164:	701a      	strb	r2, [r3, #0]

          /* Increment Buffer pointer */
          hi2c->pBuffPtr++;
 8005166:	68fb      	ldr	r3, [r7, #12]
 8005168:	6a5b      	ldr	r3, [r3, #36]	; 0x24
 800516a:	1c5a      	adds	r2, r3, #1
 800516c:	68fb      	ldr	r3, [r7, #12]
 800516e:	625a      	str	r2, [r3, #36]	; 0x24

          /* Update counter */
          hi2c->XferSize--;
 8005170:	68fb      	ldr	r3, [r7, #12]
 8005172:	8d1b      	ldrh	r3, [r3, #40]	; 0x28
 8005174:	3b01      	subs	r3, #1
 8005176:	b29a      	uxth	r2, r3
 8005178:	68fb      	ldr	r3, [r7, #12]
 800517a:	851a      	strh	r2, [r3, #40]	; 0x28
          hi2c->XferCount--;
 800517c:	68fb      	ldr	r3, [r7, #12]
 800517e:	8d5b      	ldrh	r3, [r3, #42]	; 0x2a
 8005180:	b29b      	uxth	r3, r3
 8005182:	3b01      	subs	r3, #1
 8005184:	b29a      	uxth	r2, r3
 8005186:	68fb      	ldr	r3, [r7, #12]
 8005188:	855a      	strh	r2, [r3, #42]	; 0x2a

          /* Read data from DR */
          *hi2c->pBuffPtr = (uint8_t)hi2c->Instance->DR;
 800518a:	68fb      	ldr	r3, [r7, #12]
 800518c:	681b      	ldr	r3, [r3, #0]
 800518e:	691a      	ldr	r2, [r3, #16]
 8005190:	68fb      	ldr	r3, [r7, #12]
 8005192:	6a5b      	ldr	r3, [r3, #36]	; 0x24
 8005194:	b2d2      	uxtb	r2, r2
 8005196:	701a      	strb	r2, [r3, #0]

          /* Increment Buffer pointer */
          hi2c->pBuffPtr++;
 8005198:	68fb      	ldr	r3, [r7, #12]
 800519a:	6a5b      	ldr	r3, [r3, #36]	; 0x24
 800519c:	1c5a      	adds	r2, r3, #1
 800519e:	68fb      	ldr	r3, [r7, #12]
 80051a0:	625a      	str	r2, [r3, #36]	; 0x24

          /* Update counter */
          hi2c->XferSize--;
 80051a2:	68fb      	ldr	r3, [r7, #12]
 80051a4:	8d1b      	ldrh	r3, [r3, #40]	; 0x28
 80051a6:	3b01      	subs	r3, #1
 80051a8:	b29a      	uxth	r2, r3
 80051aa:	68fb      	ldr	r3, [r7, #12]
 80051ac:	851a      	strh	r2, [r3, #40]	; 0x28
          hi2c->XferCount--;
 80051ae:	68fb      	ldr	r3, [r7, #12]
 80051b0:	8d5b      	ldrh	r3, [r3, #42]	; 0x2a
 80051b2:	b29b      	uxth	r3, r3
 80051b4:	3b01      	subs	r3, #1
 80051b6:	b29a      	uxth	r2, r3
 80051b8:	68fb      	ldr	r3, [r7, #12]
 80051ba:	855a      	strh	r2, [r3, #42]	; 0x2a
 80051bc:	e0c4      	b.n	8005348 <HAL_I2C_Master_Receive+0x430>
        }
        /* 3 Last bytes */
        else
        {
          /* Wait until BTF flag is set */
          if (I2C_WaitOnFlagUntilTimeout(hi2c, I2C_FLAG_BTF, RESET, Timeout, tickstart) != HAL_OK)
 80051be:	6a7b      	ldr	r3, [r7, #36]	; 0x24
 80051c0:	9300      	str	r3, [sp, #0]
 80051c2:	6b3b      	ldr	r3, [r7, #48]	; 0x30
 80051c4:	2200      	movs	r2, #0
 80051c6:	496c      	ldr	r1, [pc, #432]	; (8005378 <HAL_I2C_Master_Receive+0x460>)
 80051c8:	68f8      	ldr	r0, [r7, #12]
 80051ca:	f000 fa27 	bl	800561c <I2C_WaitOnFlagUntilTimeout>
 80051ce:	4603      	mov	r3, r0
 80051d0:	2b00      	cmp	r3, #0
 80051d2:	d001      	beq.n	80051d8 <HAL_I2C_Master_Receive+0x2c0>
          {
            return HAL_ERROR;
 80051d4:	2301      	movs	r3, #1
 80051d6:	e0cb      	b.n	8005370 <HAL_I2C_Master_Receive+0x458>
          }

          /* Disable Acknowledge */
          CLEAR_BIT(hi2c->Instance->CR1, I2C_CR1_ACK);
 80051d8:	68fb      	ldr	r3, [r7, #12]
 80051da:	681b      	ldr	r3, [r3, #0]
 80051dc:	681a      	ldr	r2, [r3, #0]
 80051de:	68fb      	ldr	r3, [r7, #12]
 80051e0:	681b      	ldr	r3, [r3, #0]
 80051e2:	f422 6280 	bic.w	r2, r2, #1024	; 0x400
 80051e6:	601a      	str	r2, [r3, #0]

          /* Read data from DR */
          *hi2c->pBuffPtr = (uint8_t)hi2c->Instance->DR;
 80051e8:	68fb      	ldr	r3, [r7, #12]
 80051ea:	681b      	ldr	r3, [r3, #0]
 80051ec:	691a      	ldr	r2, [r3, #16]
 80051ee:	68fb      	ldr	r3, [r7, #12]
 80051f0:	6a5b      	ldr	r3, [r3, #36]	; 0x24
 80051f2:	b2d2      	uxtb	r2, r2
 80051f4:	701a      	strb	r2, [r3, #0]

          /* Increment Buffer pointer */
          hi2c->pBuffPtr++;
 80051f6:	68fb      	ldr	r3, [r7, #12]
 80051f8:	6a5b      	ldr	r3, [r3, #36]	; 0x24
 80051fa:	1c5a      	adds	r2, r3, #1
 80051fc:	68fb      	ldr	r3, [r7, #12]
 80051fe:	625a      	str	r2, [r3, #36]	; 0x24

          /* Update counter */
          hi2c->XferSize--;
 8005200:	68fb      	ldr	r3, [r7, #12]
 8005202:	8d1b      	ldrh	r3, [r3, #40]	; 0x28
 8005204:	3b01      	subs	r3, #1
 8005206:	b29a      	uxth	r2, r3
 8005208:	68fb      	ldr	r3, [r7, #12]
 800520a:	851a      	strh	r2, [r3, #40]	; 0x28
          hi2c->XferCount--;
 800520c:	68fb      	ldr	r3, [r7, #12]
 800520e:	8d5b      	ldrh	r3, [r3, #42]	; 0x2a
 8005210:	b29b      	uxth	r3, r3
 8005212:	3b01      	subs	r3, #1
 8005214:	b29a      	uxth	r2, r3
 8005216:	68fb      	ldr	r3, [r7, #12]
 8005218:	855a      	strh	r2, [r3, #42]	; 0x2a

          /* Wait until BTF flag is set */
          if (I2C_WaitOnFlagUntilTimeout(hi2c, I2C_FLAG_BTF, RESET, Timeout, tickstart) != HAL_OK)
 800521a:	6a7b      	ldr	r3, [r7, #36]	; 0x24
 800521c:	9300      	str	r3, [sp, #0]
 800521e:	6b3b      	ldr	r3, [r7, #48]	; 0x30
 8005220:	2200      	movs	r2, #0
 8005222:	4955      	ldr	r1, [pc, #340]	; (8005378 <HAL_I2C_Master_Receive+0x460>)
 8005224:	68f8      	ldr	r0, [r7, #12]
 8005226:	f000 f9f9 	bl	800561c <I2C_WaitOnFlagUntilTimeout>
 800522a:	4603      	mov	r3, r0
 800522c:	2b00      	cmp	r3, #0
 800522e:	d001      	beq.n	8005234 <HAL_I2C_Master_Receive+0x31c>
          {
            return HAL_ERROR;
 8005230:	2301      	movs	r3, #1
 8005232:	e09d      	b.n	8005370 <HAL_I2C_Master_Receive+0x458>
          }

          /* Generate Stop */
          SET_BIT(hi2c->Instance->CR1, I2C_CR1_STOP);
 8005234:	68fb      	ldr	r3, [r7, #12]
 8005236:	681b      	ldr	r3, [r3, #0]
 8005238:	681a      	ldr	r2, [r3, #0]
 800523a:	68fb      	ldr	r3, [r7, #12]
 800523c:	681b      	ldr	r3, [r3, #0]
 800523e:	f442 7200 	orr.w	r2, r2, #512	; 0x200
 8005242:	601a      	str	r2, [r3, #0]

          /* Read data from DR */
          *hi2c->pBuffPtr = (uint8_t)hi2c->Instance->DR;
 8005244:	68fb      	ldr	r3, [r7, #12]
 8005246:	681b      	ldr	r3, [r3, #0]
 8005248:	691a      	ldr	r2, [r3, #16]
 800524a:	68fb      	ldr	r3, [r7, #12]
 800524c:	6a5b      	ldr	r3, [r3, #36]	; 0x24
 800524e:	b2d2      	uxtb	r2, r2
 8005250:	701a      	strb	r2, [r3, #0]

          /* Increment Buffer pointer */
          hi2c->pBuffPtr++;
 8005252:	68fb      	ldr	r3, [r7, #12]
 8005254:	6a5b      	ldr	r3, [r3, #36]	; 0x24
 8005256:	1c5a      	adds	r2, r3, #1
 8005258:	68fb      	ldr	r3, [r7, #12]
 800525a:	625a      	str	r2, [r3, #36]	; 0x24

          /* Update counter */
          hi2c->XferSize--;
 800525c:	68fb      	ldr	r3, [r7, #12]
 800525e:	8d1b      	ldrh	r3, [r3, #40]	; 0x28
 8005260:	3b01      	subs	r3, #1
 8005262:	b29a      	uxth	r2, r3
 8005264:	68fb      	ldr	r3, [r7, #12]
 8005266:	851a      	strh	r2, [r3, #40]	; 0x28
          hi2c->XferCount--;
 8005268:	68fb      	ldr	r3, [r7, #12]
 800526a:	8d5b      	ldrh	r3, [r3, #42]	; 0x2a
 800526c:	b29b      	uxth	r3, r3
 800526e:	3b01      	subs	r3, #1
 8005270:	b29a      	uxth	r2, r3
 8005272:	68fb      	ldr	r3, [r7, #12]
 8005274:	855a      	strh	r2, [r3, #42]	; 0x2a

          /* Read data from DR */
          *hi2c->pBuffPtr = (uint8_t)hi2c->Instance->DR;
 8005276:	68fb      	ldr	r3, [r7, #12]
 8005278:	681b      	ldr	r3, [r3, #0]
 800527a:	691a      	ldr	r2, [r3, #16]
 800527c:	68fb      	ldr	r3, [r7, #12]
 800527e:	6a5b      	ldr	r3, [r3, #36]	; 0x24
 8005280:	b2d2      	uxtb	r2, r2
 8005282:	701a      	strb	r2, [r3, #0]

          /* Increment Buffer pointer */
          hi2c->pBuffPtr++;
 8005284:	68fb      	ldr	r3, [r7, #12]
 8005286:	6a5b      	ldr	r3, [r3, #36]	; 0x24
 8005288:	1c5a      	adds	r2, r3, #1
 800528a:	68fb      	ldr	r3, [r7, #12]
 800528c:	625a      	str	r2, [r3, #36]	; 0x24

          /* Update counter */
          hi2c->XferSize--;
 800528e:	68fb      	ldr	r3, [r7, #12]
 8005290:	8d1b      	ldrh	r3, [r3, #40]	; 0x28
 8005292:	3b01      	subs	r3, #1
 8005294:	b29a      	uxth	r2, r3
 8005296:	68fb      	ldr	r3, [r7, #12]
 8005298:	851a      	strh	r2, [r3, #40]	; 0x28
          hi2c->XferCount--;
 800529a:	68fb      	ldr	r3, [r7, #12]
 800529c:	8d5b      	ldrh	r3, [r3, #42]	; 0x2a
 800529e:	b29b      	uxth	r3, r3
 80052a0:	3b01      	subs	r3, #1
 80052a2:	b29a      	uxth	r2, r3
 80052a4:	68fb      	ldr	r3, [r7, #12]
 80052a6:	855a      	strh	r2, [r3, #42]	; 0x2a
 80052a8:	e04e      	b.n	8005348 <HAL_I2C_Master_Receive+0x430>
        }
      }
      else
      {
        /* Wait until RXNE flag is set */
        if (I2C_WaitOnRXNEFlagUntilTimeout(hi2c, Timeout, tickstart) != HAL_OK)
 80052aa:	6a7a      	ldr	r2, [r7, #36]	; 0x24
 80052ac:	6b39      	ldr	r1, [r7, #48]	; 0x30
 80052ae:	68f8      	ldr	r0, [r7, #12]
 80052b0:	f000 fb5e 	bl	8005970 <I2C_WaitOnRXNEFlagUntilTimeout>
 80052b4:	4603      	mov	r3, r0
 80052b6:	2b00      	cmp	r3, #0
 80052b8:	d001      	beq.n	80052be <HAL_I2C_Master_Receive+0x3a6>
        {
          return HAL_ERROR;
 80052ba:	2301      	movs	r3, #1
 80052bc:	e058      	b.n	8005370 <HAL_I2C_Master_Receive+0x458>
        }

        /* Read data from DR */
        *hi2c->pBuffPtr = (uint8_t)hi2c->Instance->DR;
 80052be:	68fb      	ldr	r3, [r7, #12]
 80052c0:	681b      	ldr	r3, [r3, #0]
 80052c2:	691a      	ldr	r2, [r3, #16]
 80052c4:	68fb      	ldr	r3, [r7, #12]
 80052c6:	6a5b      	ldr	r3, [r3, #36]	; 0x24
 80052c8:	b2d2      	uxtb	r2, r2
 80052ca:	701a      	strb	r2, [r3, #0]

        /* Increment Buffer pointer */
        hi2c->pBuffPtr++;
 80052cc:	68fb      	ldr	r3, [r7, #12]
 80052ce:	6a5b      	ldr	r3, [r3, #36]	; 0x24
 80052d0:	1c5a      	adds	r2, r3, #1
 80052d2:	68fb      	ldr	r3, [r7, #12]
 80052d4:	625a      	str	r2, [r3, #36]	; 0x24

        /* Update counter */
        hi2c->XferSize--;
 80052d6:	68fb      	ldr	r3, [r7, #12]
 80052d8:	8d1b      	ldrh	r3, [r3, #40]	; 0x28
 80052da:	3b01      	subs	r3, #1
 80052dc:	b29a      	uxth	r2, r3
 80052de:	68fb      	ldr	r3, [r7, #12]
 80052e0:	851a      	strh	r2, [r3, #40]	; 0x28
        hi2c->XferCount--;
 80052e2:	68fb      	ldr	r3, [r7, #12]
 80052e4:	8d5b      	ldrh	r3, [r3, #42]	; 0x2a
 80052e6:	b29b      	uxth	r3, r3
 80052e8:	3b01      	subs	r3, #1
 80052ea:	b29a      	uxth	r2, r3
 80052ec:	68fb      	ldr	r3, [r7, #12]
 80052ee:	855a      	strh	r2, [r3, #42]	; 0x2a

        if (__HAL_I2C_GET_FLAG(hi2c, I2C_FLAG_BTF) == SET)
 80052f0:	68fb      	ldr	r3, [r7, #12]
 80052f2:	681b      	ldr	r3, [r3, #0]
 80052f4:	695b      	ldr	r3, [r3, #20]
 80052f6:	f003 0304 	and.w	r3, r3, #4
 80052fa:	2b04      	cmp	r3, #4
 80052fc:	d124      	bne.n	8005348 <HAL_I2C_Master_Receive+0x430>
        {

          if (hi2c->XferSize == 3U)
 80052fe:	68fb      	ldr	r3, [r7, #12]
 8005300:	8d1b      	ldrh	r3, [r3, #40]	; 0x28
 8005302:	2b03      	cmp	r3, #3
 8005304:	d107      	bne.n	8005316 <HAL_I2C_Master_Receive+0x3fe>
          {
            /* Disable Acknowledge */
            CLEAR_BIT(hi2c->Instance->CR1, I2C_CR1_ACK);
 8005306:	68fb      	ldr	r3, [r7, #12]
 8005308:	681b      	ldr	r3, [r3, #0]
 800530a:	681a      	ldr	r2, [r3, #0]
 800530c:	68fb      	ldr	r3, [r7, #12]
 800530e:	681b      	ldr	r3, [r3, #0]
 8005310:	f422 6280 	bic.w	r2, r2, #1024	; 0x400
 8005314:	601a      	str	r2, [r3, #0]
          }

          /* Read data from DR */
          *hi2c->pBuffPtr = (uint8_t)hi2c->Instance->DR;
 8005316:	68fb      	ldr	r3, [r7, #12]
 8005318:	681b      	ldr	r3, [r3, #0]
 800531a:	691a      	ldr	r2, [r3, #16]
 800531c:	68fb      	ldr	r3, [r7, #12]
 800531e:	6a5b      	ldr	r3, [r3, #36]	; 0x24
 8005320:	b2d2      	uxtb	r2, r2
 8005322:	701a      	strb	r2, [r3, #0]

          /* Increment Buffer pointer */
          hi2c->pBuffPtr++;
 8005324:	68fb      	ldr	r3, [r7, #12]
 8005326:	6a5b      	ldr	r3, [r3, #36]	; 0x24
 8005328:	1c5a      	adds	r2, r3, #1
 800532a:	68fb      	ldr	r3, [r7, #12]
 800532c:	625a      	str	r2, [r3, #36]	; 0x24

          /* Update counter */
          hi2c->XferSize--;
 800532e:	68fb      	ldr	r3, [r7, #12]
 8005330:	8d1b      	ldrh	r3, [r3, #40]	; 0x28
 8005332:	3b01      	subs	r3, #1
 8005334:	b29a      	uxth	r2, r3
 8005336:	68fb      	ldr	r3, [r7, #12]
 8005338:	851a      	strh	r2, [r3, #40]	; 0x28
          hi2c->XferCount--;
 800533a:	68fb      	ldr	r3, [r7, #12]
 800533c:	8d5b      	ldrh	r3, [r3, #42]	; 0x2a
 800533e:	b29b      	uxth	r3, r3
 8005340:	3b01      	subs	r3, #1
 8005342:	b29a      	uxth	r2, r3
 8005344:	68fb      	ldr	r3, [r7, #12]
 8005346:	855a      	strh	r2, [r3, #42]	; 0x2a
    while (hi2c->XferSize > 0U)
 8005348:	68fb      	ldr	r3, [r7, #12]
 800534a:	8d1b      	ldrh	r3, [r3, #40]	; 0x28
 800534c:	2b00      	cmp	r3, #0
 800534e:	f47f aeb6 	bne.w	80050be <HAL_I2C_Master_Receive+0x1a6>
        }
      }
    }

    hi2c->State = HAL_I2C_STATE_READY;
 8005352:	68fb      	ldr	r3, [r7, #12]
 8005354:	2220      	movs	r2, #32
 8005356:	f883 203d 	strb.w	r2, [r3, #61]	; 0x3d
    hi2c->Mode = HAL_I2C_MODE_NONE;
 800535a:	68fb      	ldr	r3, [r7, #12]
 800535c:	2200      	movs	r2, #0
 800535e:	f883 203e 	strb.w	r2, [r3, #62]	; 0x3e

    /* Process Unlocked */
    __HAL_UNLOCK(hi2c);
 8005362:	68fb      	ldr	r3, [r7, #12]
 8005364:	2200      	movs	r2, #0
 8005366:	f883 203c 	strb.w	r2, [r3, #60]	; 0x3c

    return HAL_OK;
 800536a:	2300      	movs	r3, #0
 800536c:	e000      	b.n	8005370 <HAL_I2C_Master_Receive+0x458>
  }
  else
  {
    return HAL_BUSY;
 800536e:	2302      	movs	r3, #2
  }
}
 8005370:	4618      	mov	r0, r3
 8005372:	3728      	adds	r7, #40	; 0x28
 8005374:	46bd      	mov	sp, r7
 8005376:	bd80      	pop	{r7, pc}
 8005378:	00010004 	.word	0x00010004

0800537c <I2C_MasterRequestWrite>:
  * @param  Timeout Timeout duration
  * @param  Tickstart Tick start value
  * @retval HAL status
  */
static HAL_StatusTypeDef I2C_MasterRequestWrite(I2C_HandleTypeDef *hi2c, uint16_t DevAddress, uint32_t Timeout, uint32_t Tickstart)
{
 800537c:	b580      	push	{r7, lr}
 800537e:	b088      	sub	sp, #32
 8005380:	af02      	add	r7, sp, #8
 8005382:	60f8      	str	r0, [r7, #12]
 8005384:	607a      	str	r2, [r7, #4]
 8005386:	603b      	str	r3, [r7, #0]
 8005388:	460b      	mov	r3, r1
 800538a:	817b      	strh	r3, [r7, #10]
  /* Declaration of temporary variable to prevent undefined behavior of volatile usage */
  uint32_t CurrentXferOptions = hi2c->XferOptions;
 800538c:	68fb      	ldr	r3, [r7, #12]
 800538e:	6adb      	ldr	r3, [r3, #44]	; 0x2c
 8005390:	617b      	str	r3, [r7, #20]

  /* Generate Start condition if first transfer */
  if ((CurrentXferOptions == I2C_FIRST_AND_LAST_FRAME) || (CurrentXferOptions == I2C_FIRST_FRAME) || (CurrentXferOptions == I2C_NO_OPTION_FRAME))
 8005392:	697b      	ldr	r3, [r7, #20]
 8005394:	2b08      	cmp	r3, #8
 8005396:	d006      	beq.n	80053a6 <I2C_MasterRequestWrite+0x2a>
 8005398:	697b      	ldr	r3, [r7, #20]
 800539a:	2b01      	cmp	r3, #1
 800539c:	d003      	beq.n	80053a6 <I2C_MasterRequestWrite+0x2a>
 800539e:	697b      	ldr	r3, [r7, #20]
 80053a0:	f513 3f80 	cmn.w	r3, #65536	; 0x10000
 80053a4:	d108      	bne.n	80053b8 <I2C_MasterRequestWrite+0x3c>
  {
    /* Generate Start */
    SET_BIT(hi2c->Instance->CR1, I2C_CR1_START);
 80053a6:	68fb      	ldr	r3, [r7, #12]
 80053a8:	681b      	ldr	r3, [r3, #0]
 80053aa:	681a      	ldr	r2, [r3, #0]
 80053ac:	68fb      	ldr	r3, [r7, #12]
 80053ae:	681b      	ldr	r3, [r3, #0]
 80053b0:	f442 7280 	orr.w	r2, r2, #256	; 0x100
 80053b4:	601a      	str	r2, [r3, #0]
 80053b6:	e00b      	b.n	80053d0 <I2C_MasterRequestWrite+0x54>
  }
  else if (hi2c->PreviousState == I2C_STATE_MASTER_BUSY_RX)
 80053b8:	68fb      	ldr	r3, [r7, #12]
 80053ba:	6b1b      	ldr	r3, [r3, #48]	; 0x30
 80053bc:	2b12      	cmp	r3, #18
 80053be:	d107      	bne.n	80053d0 <I2C_MasterRequestWrite+0x54>
  {
    /* Generate ReStart */
    SET_BIT(hi2c->Instance->CR1, I2C_CR1_START);
 80053c0:	68fb      	ldr	r3, [r7, #12]
 80053c2:	681b      	ldr	r3, [r3, #0]
 80053c4:	681a      	ldr	r2, [r3, #0]
 80053c6:	68fb      	ldr	r3, [r7, #12]
 80053c8:	681b      	ldr	r3, [r3, #0]
 80053ca:	f442 7280 	orr.w	r2, r2, #256	; 0x100
 80053ce:	601a      	str	r2, [r3, #0]
  {
    /* Do nothing */
  }

  /* Wait until SB flag is set */
  if (I2C_WaitOnFlagUntilTimeout(hi2c, I2C_FLAG_SB, RESET, Timeout, Tickstart) != HAL_OK)
 80053d0:	683b      	ldr	r3, [r7, #0]
 80053d2:	9300      	str	r3, [sp, #0]
 80053d4:	687b      	ldr	r3, [r7, #4]
 80053d6:	2200      	movs	r2, #0
 80053d8:	f04f 1101 	mov.w	r1, #65537	; 0x10001
 80053dc:	68f8      	ldr	r0, [r7, #12]
 80053de:	f000 f91d 	bl	800561c <I2C_WaitOnFlagUntilTimeout>
 80053e2:	4603      	mov	r3, r0
 80053e4:	2b00      	cmp	r3, #0
 80053e6:	d00d      	beq.n	8005404 <I2C_MasterRequestWrite+0x88>
  {
    if (READ_BIT(hi2c->Instance->CR1, I2C_CR1_START) == I2C_CR1_START)
 80053e8:	68fb      	ldr	r3, [r7, #12]
 80053ea:	681b      	ldr	r3, [r3, #0]
 80053ec:	681b      	ldr	r3, [r3, #0]
 80053ee:	f403 7380 	and.w	r3, r3, #256	; 0x100
 80053f2:	f5b3 7f80 	cmp.w	r3, #256	; 0x100
 80053f6:	d103      	bne.n	8005400 <I2C_MasterRequestWrite+0x84>
    {
      hi2c->ErrorCode = HAL_I2C_WRONG_START;
 80053f8:	68fb      	ldr	r3, [r7, #12]
 80053fa:	f44f 7200 	mov.w	r2, #512	; 0x200
 80053fe:	641a      	str	r2, [r3, #64]	; 0x40
    }
    return HAL_TIMEOUT;
 8005400:	2303      	movs	r3, #3
 8005402:	e035      	b.n	8005470 <I2C_MasterRequestWrite+0xf4>
  }

  if (hi2c->Init.AddressingMode == I2C_ADDRESSINGMODE_7BIT)
 8005404:	68fb      	ldr	r3, [r7, #12]
 8005406:	691b      	ldr	r3, [r3, #16]
 8005408:	f5b3 4f80 	cmp.w	r3, #16384	; 0x4000
 800540c:	d108      	bne.n	8005420 <I2C_MasterRequestWrite+0xa4>
  {
    /* Send slave address */
    hi2c->Instance->DR = I2C_7BIT_ADD_WRITE(DevAddress);
 800540e:	897b      	ldrh	r3, [r7, #10]
 8005410:	b2db      	uxtb	r3, r3
 8005412:	461a      	mov	r2, r3
 8005414:	68fb      	ldr	r3, [r7, #12]
 8005416:	681b      	ldr	r3, [r3, #0]
 8005418:	f002 02fe 	and.w	r2, r2, #254	; 0xfe
 800541c:	611a      	str	r2, [r3, #16]
 800541e:	e01b      	b.n	8005458 <I2C_MasterRequestWrite+0xdc>
  }
  else
  {
    /* Send header of slave address */
    hi2c->Instance->DR = I2C_10BIT_HEADER_WRITE(DevAddress);
 8005420:	897b      	ldrh	r3, [r7, #10]
 8005422:	11db      	asrs	r3, r3, #7
 8005424:	b2db      	uxtb	r3, r3
 8005426:	f003 0306 	and.w	r3, r3, #6
 800542a:	b2db      	uxtb	r3, r3
 800542c:	f063 030f 	orn	r3, r3, #15
 8005430:	b2da      	uxtb	r2, r3
 8005432:	68fb      	ldr	r3, [r7, #12]
 8005434:	681b      	ldr	r3, [r3, #0]
 8005436:	611a      	str	r2, [r3, #16]

    /* Wait until ADD10 flag is set */
    if (I2C_WaitOnMasterAddressFlagUntilTimeout(hi2c, I2C_FLAG_ADD10, Timeout, Tickstart) != HAL_OK)
 8005438:	683b      	ldr	r3, [r7, #0]
 800543a:	687a      	ldr	r2, [r7, #4]
 800543c:	490e      	ldr	r1, [pc, #56]	; (8005478 <I2C_MasterRequestWrite+0xfc>)
 800543e:	68f8      	ldr	r0, [r7, #12]
 8005440:	f000 f966 	bl	8005710 <I2C_WaitOnMasterAddressFlagUntilTimeout>
 8005444:	4603      	mov	r3, r0
 8005446:	2b00      	cmp	r3, #0
 8005448:	d001      	beq.n	800544e <I2C_MasterRequestWrite+0xd2>
    {
      return HAL_ERROR;
 800544a:	2301      	movs	r3, #1
 800544c:	e010      	b.n	8005470 <I2C_MasterRequestWrite+0xf4>
    }

    /* Send slave address */
    hi2c->Instance->DR = I2C_10BIT_ADDRESS(DevAddress);
 800544e:	897b      	ldrh	r3, [r7, #10]
 8005450:	b2da      	uxtb	r2, r3
 8005452:	68fb      	ldr	r3, [r7, #12]
 8005454:	681b      	ldr	r3, [r3, #0]
 8005456:	611a      	str	r2, [r3, #16]
  }

  /* Wait until ADDR flag is set */
  if (I2C_WaitOnMasterAddressFlagUntilTimeout(hi2c, I2C_FLAG_ADDR, Timeout, Tickstart) != HAL_OK)
 8005458:	683b      	ldr	r3, [r7, #0]
 800545a:	687a      	ldr	r2, [r7, #4]
 800545c:	4907      	ldr	r1, [pc, #28]	; (800547c <I2C_MasterRequestWrite+0x100>)
 800545e:	68f8      	ldr	r0, [r7, #12]
 8005460:	f000 f956 	bl	8005710 <I2C_WaitOnMasterAddressFlagUntilTimeout>
 8005464:	4603      	mov	r3, r0
 8005466:	2b00      	cmp	r3, #0
 8005468:	d001      	beq.n	800546e <I2C_MasterRequestWrite+0xf2>
  {
    return HAL_ERROR;
 800546a:	2301      	movs	r3, #1
 800546c:	e000      	b.n	8005470 <I2C_MasterRequestWrite+0xf4>
  }

  return HAL_OK;
 800546e:	2300      	movs	r3, #0
}
 8005470:	4618      	mov	r0, r3
 8005472:	3718      	adds	r7, #24
 8005474:	46bd      	mov	sp, r7
 8005476:	bd80      	pop	{r7, pc}
 8005478:	00010008 	.word	0x00010008
 800547c:	00010002 	.word	0x00010002

08005480 <I2C_MasterRequestRead>:
  * @param  Timeout Timeout duration
  * @param  Tickstart Tick start value
  * @retval HAL status
  */
static HAL_StatusTypeDef I2C_MasterRequestRead(I2C_HandleTypeDef *hi2c, uint16_t DevAddress, uint32_t Timeout, uint32_t Tickstart)
{
 8005480:	b580      	push	{r7, lr}
 8005482:	b088      	sub	sp, #32
 8005484:	af02      	add	r7, sp, #8
 8005486:	60f8      	str	r0, [r7, #12]
 8005488:	607a      	str	r2, [r7, #4]
 800548a:	603b      	str	r3, [r7, #0]
 800548c:	460b      	mov	r3, r1
 800548e:	817b      	strh	r3, [r7, #10]
  /* Declaration of temporary variable to prevent undefined behavior of volatile usage */
  uint32_t CurrentXferOptions = hi2c->XferOptions;
 8005490:	68fb      	ldr	r3, [r7, #12]
 8005492:	6adb      	ldr	r3, [r3, #44]	; 0x2c
 8005494:	617b      	str	r3, [r7, #20]

  /* Enable Acknowledge */
  SET_BIT(hi2c->Instance->CR1, I2C_CR1_ACK);
 8005496:	68fb      	ldr	r3, [r7, #12]
 8005498:	681b      	ldr	r3, [r3, #0]
 800549a:	681a      	ldr	r2, [r3, #0]
 800549c:	68fb      	ldr	r3, [r7, #12]
 800549e:	681b      	ldr	r3, [r3, #0]
 80054a0:	f442 6280 	orr.w	r2, r2, #1024	; 0x400
 80054a4:	601a      	str	r2, [r3, #0]

  /* Generate Start condition if first transfer */
  if ((CurrentXferOptions == I2C_FIRST_AND_LAST_FRAME) || (CurrentXferOptions == I2C_FIRST_FRAME)  || (CurrentXferOptions == I2C_NO_OPTION_FRAME))
 80054a6:	697b      	ldr	r3, [r7, #20]
 80054a8:	2b08      	cmp	r3, #8
 80054aa:	d006      	beq.n	80054ba <I2C_MasterRequestRead+0x3a>
 80054ac:	697b      	ldr	r3, [r7, #20]
 80054ae:	2b01      	cmp	r3, #1
 80054b0:	d003      	beq.n	80054ba <I2C_MasterRequestRead+0x3a>
 80054b2:	697b      	ldr	r3, [r7, #20]
 80054b4:	f513 3f80 	cmn.w	r3, #65536	; 0x10000
 80054b8:	d108      	bne.n	80054cc <I2C_MasterRequestRead+0x4c>
  {
    /* Generate Start */
    SET_BIT(hi2c->Instance->CR1, I2C_CR1_START);
 80054ba:	68fb      	ldr	r3, [r7, #12]
 80054bc:	681b      	ldr	r3, [r3, #0]
 80054be:	681a      	ldr	r2, [r3, #0]
 80054c0:	68fb      	ldr	r3, [r7, #12]
 80054c2:	681b      	ldr	r3, [r3, #0]
 80054c4:	f442 7280 	orr.w	r2, r2, #256	; 0x100
 80054c8:	601a      	str	r2, [r3, #0]
 80054ca:	e00b      	b.n	80054e4 <I2C_MasterRequestRead+0x64>
  }
  else if (hi2c->PreviousState == I2C_STATE_MASTER_BUSY_TX)
 80054cc:	68fb      	ldr	r3, [r7, #12]
 80054ce:	6b1b      	ldr	r3, [r3, #48]	; 0x30
 80054d0:	2b11      	cmp	r3, #17
 80054d2:	d107      	bne.n	80054e4 <I2C_MasterRequestRead+0x64>
  {
    /* Generate ReStart */
    SET_BIT(hi2c->Instance->CR1, I2C_CR1_START);
 80054d4:	68fb      	ldr	r3, [r7, #12]
 80054d6:	681b      	ldr	r3, [r3, #0]
 80054d8:	681a      	ldr	r2, [r3, #0]
 80054da:	68fb      	ldr	r3, [r7, #12]
 80054dc:	681b      	ldr	r3, [r3, #0]
 80054de:	f442 7280 	orr.w	r2, r2, #256	; 0x100
 80054e2:	601a      	str	r2, [r3, #0]
  {
    /* Do nothing */
  }

  /* Wait until SB flag is set */
  if (I2C_WaitOnFlagUntilTimeout(hi2c, I2C_FLAG_SB, RESET, Timeout, Tickstart) != HAL_OK)
 80054e4:	683b      	ldr	r3, [r7, #0]
 80054e6:	9300      	str	r3, [sp, #0]
 80054e8:	687b      	ldr	r3, [r7, #4]
 80054ea:	2200      	movs	r2, #0
 80054ec:	f04f 1101 	mov.w	r1, #65537	; 0x10001
 80054f0:	68f8      	ldr	r0, [r7, #12]
 80054f2:	f000 f893 	bl	800561c <I2C_WaitOnFlagUntilTimeout>
 80054f6:	4603      	mov	r3, r0
 80054f8:	2b00      	cmp	r3, #0
 80054fa:	d00d      	beq.n	8005518 <I2C_MasterRequestRead+0x98>
  {
    if (READ_BIT(hi2c->Instance->CR1, I2C_CR1_START) == I2C_CR1_START)
 80054fc:	68fb      	ldr	r3, [r7, #12]
 80054fe:	681b      	ldr	r3, [r3, #0]
 8005500:	681b      	ldr	r3, [r3, #0]
 8005502:	f403 7380 	and.w	r3, r3, #256	; 0x100
 8005506:	f5b3 7f80 	cmp.w	r3, #256	; 0x100
 800550a:	d103      	bne.n	8005514 <I2C_MasterRequestRead+0x94>
    {
      hi2c->ErrorCode = HAL_I2C_WRONG_START;
 800550c:	68fb      	ldr	r3, [r7, #12]
 800550e:	f44f 7200 	mov.w	r2, #512	; 0x200
 8005512:	641a      	str	r2, [r3, #64]	; 0x40
    }
    return HAL_TIMEOUT;
 8005514:	2303      	movs	r3, #3
 8005516:	e079      	b.n	800560c <I2C_MasterRequestRead+0x18c>
  }

  if (hi2c->Init.AddressingMode == I2C_ADDRESSINGMODE_7BIT)
 8005518:	68fb      	ldr	r3, [r7, #12]
 800551a:	691b      	ldr	r3, [r3, #16]
 800551c:	f5b3 4f80 	cmp.w	r3, #16384	; 0x4000
 8005520:	d108      	bne.n	8005534 <I2C_MasterRequestRead+0xb4>
  {
    /* Send slave address */
    hi2c->Instance->DR = I2C_7BIT_ADD_READ(DevAddress);
 8005522:	897b      	ldrh	r3, [r7, #10]
 8005524:	b2db      	uxtb	r3, r3
 8005526:	f043 0301 	orr.w	r3, r3, #1
 800552a:	b2da      	uxtb	r2, r3
 800552c:	68fb      	ldr	r3, [r7, #12]
 800552e:	681b      	ldr	r3, [r3, #0]
 8005530:	611a      	str	r2, [r3, #16]
 8005532:	e05f      	b.n	80055f4 <I2C_MasterRequestRead+0x174>
  }
  else
  {
    /* Send header of slave address */
    hi2c->Instance->DR = I2C_10BIT_HEADER_WRITE(DevAddress);
 8005534:	897b      	ldrh	r3, [r7, #10]
 8005536:	11db      	asrs	r3, r3, #7
 8005538:	b2db      	uxtb	r3, r3
 800553a:	f003 0306 	and.w	r3, r3, #6
 800553e:	b2db      	uxtb	r3, r3
 8005540:	f063 030f 	orn	r3, r3, #15
 8005544:	b2da      	uxtb	r2, r3
 8005546:	68fb      	ldr	r3, [r7, #12]
 8005548:	681b      	ldr	r3, [r3, #0]
 800554a:	611a      	str	r2, [r3, #16]

    /* Wait until ADD10 flag is set */
    if (I2C_WaitOnMasterAddressFlagUntilTimeout(hi2c, I2C_FLAG_ADD10, Timeout, Tickstart) != HAL_OK)
 800554c:	683b      	ldr	r3, [r7, #0]
 800554e:	687a      	ldr	r2, [r7, #4]
 8005550:	4930      	ldr	r1, [pc, #192]	; (8005614 <I2C_MasterRequestRead+0x194>)
 8005552:	68f8      	ldr	r0, [r7, #12]
 8005554:	f000 f8dc 	bl	8005710 <I2C_WaitOnMasterAddressFlagUntilTimeout>
 8005558:	4603      	mov	r3, r0
 800555a:	2b00      	cmp	r3, #0
 800555c:	d001      	beq.n	8005562 <I2C_MasterRequestRead+0xe2>
    {
      return HAL_ERROR;
 800555e:	2301      	movs	r3, #1
 8005560:	e054      	b.n	800560c <I2C_MasterRequestRead+0x18c>
    }

    /* Send slave address */
    hi2c->Instance->DR = I2C_10BIT_ADDRESS(DevAddress);
 8005562:	897b      	ldrh	r3, [r7, #10]
 8005564:	b2da      	uxtb	r2, r3
 8005566:	68fb      	ldr	r3, [r7, #12]
 8005568:	681b      	ldr	r3, [r3, #0]
 800556a:	611a      	str	r2, [r3, #16]

    /* Wait until ADDR flag is set */
    if (I2C_WaitOnMasterAddressFlagUntilTimeout(hi2c, I2C_FLAG_ADDR, Timeout, Tickstart) != HAL_OK)
 800556c:	683b      	ldr	r3, [r7, #0]
 800556e:	687a      	ldr	r2, [r7, #4]
 8005570:	4929      	ldr	r1, [pc, #164]	; (8005618 <I2C_MasterRequestRead+0x198>)
 8005572:	68f8      	ldr	r0, [r7, #12]
 8005574:	f000 f8cc 	bl	8005710 <I2C_WaitOnMasterAddressFlagUntilTimeout>
 8005578:	4603      	mov	r3, r0
 800557a:	2b00      	cmp	r3, #0
 800557c:	d001      	beq.n	8005582 <I2C_MasterRequestRead+0x102>
    {
      return HAL_ERROR;
 800557e:	2301      	movs	r3, #1
 8005580:	e044      	b.n	800560c <I2C_MasterRequestRead+0x18c>
    }

    /* Clear ADDR flag */
    __HAL_I2C_CLEAR_ADDRFLAG(hi2c);
 8005582:	2300      	movs	r3, #0
 8005584:	613b      	str	r3, [r7, #16]
 8005586:	68fb      	ldr	r3, [r7, #12]
 8005588:	681b      	ldr	r3, [r3, #0]
 800558a:	695b      	ldr	r3, [r3, #20]
 800558c:	613b      	str	r3, [r7, #16]
 800558e:	68fb      	ldr	r3, [r7, #12]
 8005590:	681b      	ldr	r3, [r3, #0]
 8005592:	699b      	ldr	r3, [r3, #24]
 8005594:	613b      	str	r3, [r7, #16]
 8005596:	693b      	ldr	r3, [r7, #16]

    /* Generate Restart */
    SET_BIT(hi2c->Instance->CR1, I2C_CR1_START);
 8005598:	68fb      	ldr	r3, [r7, #12]
 800559a:	681b      	ldr	r3, [r3, #0]
 800559c:	681a      	ldr	r2, [r3, #0]
 800559e:	68fb      	ldr	r3, [r7, #12]
 80055a0:	681b      	ldr	r3, [r3, #0]
 80055a2:	f442 7280 	orr.w	r2, r2, #256	; 0x100
 80055a6:	601a      	str	r2, [r3, #0]

    /* Wait until SB flag is set */
    if (I2C_WaitOnFlagUntilTimeout(hi2c, I2C_FLAG_SB, RESET, Timeout, Tickstart) != HAL_OK)
 80055a8:	683b      	ldr	r3, [r7, #0]
 80055aa:	9300      	str	r3, [sp, #0]
 80055ac:	687b      	ldr	r3, [r7, #4]
 80055ae:	2200      	movs	r2, #0
 80055b0:	f04f 1101 	mov.w	r1, #65537	; 0x10001
 80055b4:	68f8      	ldr	r0, [r7, #12]
 80055b6:	f000 f831 	bl	800561c <I2C_WaitOnFlagUntilTimeout>
 80055ba:	4603      	mov	r3, r0
 80055bc:	2b00      	cmp	r3, #0
 80055be:	d00d      	beq.n	80055dc <I2C_MasterRequestRead+0x15c>
    {
      if (READ_BIT(hi2c->Instance->CR1, I2C_CR1_START) == I2C_CR1_START)
 80055c0:	68fb      	ldr	r3, [r7, #12]
 80055c2:	681b      	ldr	r3, [r3, #0]
 80055c4:	681b      	ldr	r3, [r3, #0]
 80055c6:	f403 7380 	and.w	r3, r3, #256	; 0x100
 80055ca:	f5b3 7f80 	cmp.w	r3, #256	; 0x100
 80055ce:	d103      	bne.n	80055d8 <I2C_MasterRequestRead+0x158>
      {
        hi2c->ErrorCode = HAL_I2C_WRONG_START;
 80055d0:	68fb      	ldr	r3, [r7, #12]
 80055d2:	f44f 7200 	mov.w	r2, #512	; 0x200
 80055d6:	641a      	str	r2, [r3, #64]	; 0x40
      }
      return HAL_TIMEOUT;
 80055d8:	2303      	movs	r3, #3
 80055da:	e017      	b.n	800560c <I2C_MasterRequestRead+0x18c>
    }

    /* Send header of slave address */
    hi2c->Instance->DR = I2C_10BIT_HEADER_READ(DevAddress);
 80055dc:	897b      	ldrh	r3, [r7, #10]
 80055de:	11db      	asrs	r3, r3, #7
 80055e0:	b2db      	uxtb	r3, r3
 80055e2:	f003 0306 	and.w	r3, r3, #6
 80055e6:	b2db      	uxtb	r3, r3
 80055e8:	f063 030e 	orn	r3, r3, #14
 80055ec:	b2da      	uxtb	r2, r3
 80055ee:	68fb      	ldr	r3, [r7, #12]
 80055f0:	681b      	ldr	r3, [r3, #0]
 80055f2:	611a      	str	r2, [r3, #16]
  }

  /* Wait until ADDR flag is set */
  if (I2C_WaitOnMasterAddressFlagUntilTimeout(hi2c, I2C_FLAG_ADDR, Timeout, Tickstart) != HAL_OK)
 80055f4:	683b      	ldr	r3, [r7, #0]
 80055f6:	687a      	ldr	r2, [r7, #4]
 80055f8:	4907      	ldr	r1, [pc, #28]	; (8005618 <I2C_MasterRequestRead+0x198>)
 80055fa:	68f8      	ldr	r0, [r7, #12]
 80055fc:	f000 f888 	bl	8005710 <I2C_WaitOnMasterAddressFlagUntilTimeout>
 8005600:	4603      	mov	r3, r0
 8005602:	2b00      	cmp	r3, #0
 8005604:	d001      	beq.n	800560a <I2C_MasterRequestRead+0x18a>
  {
    return HAL_ERROR;
 8005606:	2301      	movs	r3, #1
 8005608:	e000      	b.n	800560c <I2C_MasterRequestRead+0x18c>
  }

  return HAL_OK;
 800560a:	2300      	movs	r3, #0
}
 800560c:	4618      	mov	r0, r3
 800560e:	3718      	adds	r7, #24
 8005610:	46bd      	mov	sp, r7
 8005612:	bd80      	pop	{r7, pc}
 8005614:	00010008 	.word	0x00010008
 8005618:	00010002 	.word	0x00010002

0800561c <I2C_WaitOnFlagUntilTimeout>:
  * @param  Timeout Timeout duration
  * @param  Tickstart Tick start value
  * @retval HAL status
  */
static HAL_StatusTypeDef I2C_WaitOnFlagUntilTimeout(I2C_HandleTypeDef *hi2c, uint32_t Flag, FlagStatus Status, uint32_t Timeout, uint32_t Tickstart)
{
 800561c:	b580      	push	{r7, lr}
 800561e:	b084      	sub	sp, #16
 8005620:	af00      	add	r7, sp, #0
 8005622:	60f8      	str	r0, [r7, #12]
 8005624:	60b9      	str	r1, [r7, #8]
 8005626:	603b      	str	r3, [r7, #0]
 8005628:	4613      	mov	r3, r2
 800562a:	71fb      	strb	r3, [r7, #7]
  /* Wait until flag is set */
  while (__HAL_I2C_GET_FLAG(hi2c, Flag) == Status)
 800562c:	e048      	b.n	80056c0 <I2C_WaitOnFlagUntilTimeout+0xa4>
  {
    /* Check for the Timeout */
    if (Timeout != HAL_MAX_DELAY)
 800562e:	683b      	ldr	r3, [r7, #0]
 8005630:	f1b3 3fff 	cmp.w	r3, #4294967295	; 0xffffffff
 8005634:	d044      	beq.n	80056c0 <I2C_WaitOnFlagUntilTimeout+0xa4>
    {
      if (((HAL_GetTick() - Tickstart) > Timeout) || (Timeout == 0U))
 8005636:	f7fd fc89 	bl	8002f4c <HAL_GetTick>
 800563a:	4602      	mov	r2, r0
 800563c:	69bb      	ldr	r3, [r7, #24]
 800563e:	1ad3      	subs	r3, r2, r3
 8005640:	683a      	ldr	r2, [r7, #0]
 8005642:	429a      	cmp	r2, r3
 8005644:	d302      	bcc.n	800564c <I2C_WaitOnFlagUntilTimeout+0x30>
 8005646:	683b      	ldr	r3, [r7, #0]
 8005648:	2b00      	cmp	r3, #0
 800564a:	d139      	bne.n	80056c0 <I2C_WaitOnFlagUntilTimeout+0xa4>
      {
        if ((__HAL_I2C_GET_FLAG(hi2c, Flag) == Status))
 800564c:	68bb      	ldr	r3, [r7, #8]
 800564e:	0c1b      	lsrs	r3, r3, #16
 8005650:	b2db      	uxtb	r3, r3
 8005652:	2b01      	cmp	r3, #1
 8005654:	d10d      	bne.n	8005672 <I2C_WaitOnFlagUntilTimeout+0x56>
 8005656:	68fb      	ldr	r3, [r7, #12]
 8005658:	681b      	ldr	r3, [r3, #0]
 800565a:	695b      	ldr	r3, [r3, #20]
 800565c:	43da      	mvns	r2, r3
 800565e:	68bb      	ldr	r3, [r7, #8]
 8005660:	4013      	ands	r3, r2
 8005662:	b29b      	uxth	r3, r3
 8005664:	2b00      	cmp	r3, #0
 8005666:	bf0c      	ite	eq
 8005668:	2301      	moveq	r3, #1
 800566a:	2300      	movne	r3, #0
 800566c:	b2db      	uxtb	r3, r3
 800566e:	461a      	mov	r2, r3
 8005670:	e00c      	b.n	800568c <I2C_WaitOnFlagUntilTimeout+0x70>
 8005672:	68fb      	ldr	r3, [r7, #12]
 8005674:	681b      	ldr	r3, [r3, #0]
 8005676:	699b      	ldr	r3, [r3, #24]
 8005678:	43da      	mvns	r2, r3
 800567a:	68bb      	ldr	r3, [r7, #8]
 800567c:	4013      	ands	r3, r2
 800567e:	b29b      	uxth	r3, r3
 8005680:	2b00      	cmp	r3, #0
 8005682:	bf0c      	ite	eq
 8005684:	2301      	moveq	r3, #1
 8005686:	2300      	movne	r3, #0
 8005688:	b2db      	uxtb	r3, r3
 800568a:	461a      	mov	r2, r3
 800568c:	79fb      	ldrb	r3, [r7, #7]
 800568e:	429a      	cmp	r2, r3
 8005690:	d116      	bne.n	80056c0 <I2C_WaitOnFlagUntilTimeout+0xa4>
        {
          hi2c->PreviousState     = I2C_STATE_NONE;
 8005692:	68fb      	ldr	r3, [r7, #12]
 8005694:	2200      	movs	r2, #0
 8005696:	631a      	str	r2, [r3, #48]	; 0x30
          hi2c->State             = HAL_I2C_STATE_READY;
 8005698:	68fb      	ldr	r3, [r7, #12]
 800569a:	2220      	movs	r2, #32
 800569c:	f883 203d 	strb.w	r2, [r3, #61]	; 0x3d
          hi2c->Mode              = HAL_I2C_MODE_NONE;
 80056a0:	68fb      	ldr	r3, [r7, #12]
 80056a2:	2200      	movs	r2, #0
 80056a4:	f883 203e 	strb.w	r2, [r3, #62]	; 0x3e
          hi2c->ErrorCode         |= HAL_I2C_ERROR_TIMEOUT;
 80056a8:	68fb      	ldr	r3, [r7, #12]
 80056aa:	6c1b      	ldr	r3, [r3, #64]	; 0x40
 80056ac:	f043 0220 	orr.w	r2, r3, #32
 80056b0:	68fb      	ldr	r3, [r7, #12]
 80056b2:	641a      	str	r2, [r3, #64]	; 0x40

          /* Process Unlocked */
          __HAL_UNLOCK(hi2c);
 80056b4:	68fb      	ldr	r3, [r7, #12]
 80056b6:	2200      	movs	r2, #0
 80056b8:	f883 203c 	strb.w	r2, [r3, #60]	; 0x3c

          return HAL_ERROR;
 80056bc:	2301      	movs	r3, #1
 80056be:	e023      	b.n	8005708 <I2C_WaitOnFlagUntilTimeout+0xec>
  while (__HAL_I2C_GET_FLAG(hi2c, Flag) == Status)
 80056c0:	68bb      	ldr	r3, [r7, #8]
 80056c2:	0c1b      	lsrs	r3, r3, #16
 80056c4:	b2db      	uxtb	r3, r3
 80056c6:	2b01      	cmp	r3, #1
 80056c8:	d10d      	bne.n	80056e6 <I2C_WaitOnFlagUntilTimeout+0xca>
 80056ca:	68fb      	ldr	r3, [r7, #12]
 80056cc:	681b      	ldr	r3, [r3, #0]
 80056ce:	695b      	ldr	r3, [r3, #20]
 80056d0:	43da      	mvns	r2, r3
 80056d2:	68bb      	ldr	r3, [r7, #8]
 80056d4:	4013      	ands	r3, r2
 80056d6:	b29b      	uxth	r3, r3
 80056d8:	2b00      	cmp	r3, #0
 80056da:	bf0c      	ite	eq
 80056dc:	2301      	moveq	r3, #1
 80056de:	2300      	movne	r3, #0
 80056e0:	b2db      	uxtb	r3, r3
 80056e2:	461a      	mov	r2, r3
 80056e4:	e00c      	b.n	8005700 <I2C_WaitOnFlagUntilTimeout+0xe4>
 80056e6:	68fb      	ldr	r3, [r7, #12]
 80056e8:	681b      	ldr	r3, [r3, #0]
 80056ea:	699b      	ldr	r3, [r3, #24]
 80056ec:	43da      	mvns	r2, r3
 80056ee:	68bb      	ldr	r3, [r7, #8]
 80056f0:	4013      	ands	r3, r2
 80056f2:	b29b      	uxth	r3, r3
 80056f4:	2b00      	cmp	r3, #0
 80056f6:	bf0c      	ite	eq
 80056f8:	2301      	moveq	r3, #1
 80056fa:	2300      	movne	r3, #0
 80056fc:	b2db      	uxtb	r3, r3
 80056fe:	461a      	mov	r2, r3
 8005700:	79fb      	ldrb	r3, [r7, #7]
 8005702:	429a      	cmp	r2, r3
 8005704:	d093      	beq.n	800562e <I2C_WaitOnFlagUntilTimeout+0x12>
        }
      }
    }
  }
  return HAL_OK;
 8005706:	2300      	movs	r3, #0
}
 8005708:	4618      	mov	r0, r3
 800570a:	3710      	adds	r7, #16
 800570c:	46bd      	mov	sp, r7
 800570e:	bd80      	pop	{r7, pc}

08005710 <I2C_WaitOnMasterAddressFlagUntilTimeout>:
  * @param  Timeout Timeout duration
  * @param  Tickstart Tick start value
  * @retval HAL status
  */
static HAL_StatusTypeDef I2C_WaitOnMasterAddressFlagUntilTimeout(I2C_HandleTypeDef *hi2c, uint32_t Flag, uint32_t Timeout, uint32_t Tickstart)
{
 8005710:	b580      	push	{r7, lr}
 8005712:	b084      	sub	sp, #16
 8005714:	af00      	add	r7, sp, #0
 8005716:	60f8      	str	r0, [r7, #12]
 8005718:	60b9      	str	r1, [r7, #8]
 800571a:	607a      	str	r2, [r7, #4]
 800571c:	603b      	str	r3, [r7, #0]
  while (__HAL_I2C_GET_FLAG(hi2c, Flag) == RESET)
 800571e:	e071      	b.n	8005804 <I2C_WaitOnMasterAddressFlagUntilTimeout+0xf4>
  {
    if (__HAL_I2C_GET_FLAG(hi2c, I2C_FLAG_AF) == SET)
 8005720:	68fb      	ldr	r3, [r7, #12]
 8005722:	681b      	ldr	r3, [r3, #0]
 8005724:	695b      	ldr	r3, [r3, #20]
 8005726:	f403 6380 	and.w	r3, r3, #1024	; 0x400
 800572a:	f5b3 6f80 	cmp.w	r3, #1024	; 0x400
 800572e:	d123      	bne.n	8005778 <I2C_WaitOnMasterAddressFlagUntilTimeout+0x68>
    {
      /* Generate Stop */
      SET_BIT(hi2c->Instance->CR1, I2C_CR1_STOP);
 8005730:	68fb      	ldr	r3, [r7, #12]
 8005732:	681b      	ldr	r3, [r3, #0]
 8005734:	681a      	ldr	r2, [r3, #0]
 8005736:	68fb      	ldr	r3, [r7, #12]
 8005738:	681b      	ldr	r3, [r3, #0]
 800573a:	f442 7200 	orr.w	r2, r2, #512	; 0x200
 800573e:	601a      	str	r2, [r3, #0]

      /* Clear AF Flag */
      __HAL_I2C_CLEAR_FLAG(hi2c, I2C_FLAG_AF);
 8005740:	68fb      	ldr	r3, [r7, #12]
 8005742:	681b      	ldr	r3, [r3, #0]
 8005744:	f46f 6280 	mvn.w	r2, #1024	; 0x400
 8005748:	615a      	str	r2, [r3, #20]

      hi2c->PreviousState       = I2C_STATE_NONE;
 800574a:	68fb      	ldr	r3, [r7, #12]
 800574c:	2200      	movs	r2, #0
 800574e:	631a      	str	r2, [r3, #48]	; 0x30
      hi2c->State               = HAL_I2C_STATE_READY;
 8005750:	68fb      	ldr	r3, [r7, #12]
 8005752:	2220      	movs	r2, #32
 8005754:	f883 203d 	strb.w	r2, [r3, #61]	; 0x3d
      hi2c->Mode                = HAL_I2C_MODE_NONE;
 8005758:	68fb      	ldr	r3, [r7, #12]
 800575a:	2200      	movs	r2, #0
 800575c:	f883 203e 	strb.w	r2, [r3, #62]	; 0x3e
      hi2c->ErrorCode           |= HAL_I2C_ERROR_AF;
 8005760:	68fb      	ldr	r3, [r7, #12]
 8005762:	6c1b      	ldr	r3, [r3, #64]	; 0x40
 8005764:	f043 0204 	orr.w	r2, r3, #4
 8005768:	68fb      	ldr	r3, [r7, #12]
 800576a:	641a      	str	r2, [r3, #64]	; 0x40

      /* Process Unlocked */
      __HAL_UNLOCK(hi2c);
 800576c:	68fb      	ldr	r3, [r7, #12]
 800576e:	2200      	movs	r2, #0
 8005770:	f883 203c 	strb.w	r2, [r3, #60]	; 0x3c

      return HAL_ERROR;
 8005774:	2301      	movs	r3, #1
 8005776:	e067      	b.n	8005848 <I2C_WaitOnMasterAddressFlagUntilTimeout+0x138>
    }

    /* Check for the Timeout */
    if (Timeout != HAL_MAX_DELAY)
 8005778:	687b      	ldr	r3, [r7, #4]
 800577a:	f1b3 3fff 	cmp.w	r3, #4294967295	; 0xffffffff
 800577e:	d041      	beq.n	8005804 <I2C_WaitOnMasterAddressFlagUntilTimeout+0xf4>
    {
      if (((HAL_GetTick() - Tickstart) > Timeout) || (Timeout == 0U))
 8005780:	f7fd fbe4 	bl	8002f4c <HAL_GetTick>
 8005784:	4602      	mov	r2, r0
 8005786:	683b      	ldr	r3, [r7, #0]
 8005788:	1ad3      	subs	r3, r2, r3
 800578a:	687a      	ldr	r2, [r7, #4]
 800578c:	429a      	cmp	r2, r3
 800578e:	d302      	bcc.n	8005796 <I2C_WaitOnMasterAddressFlagUntilTimeout+0x86>
 8005790:	687b      	ldr	r3, [r7, #4]
 8005792:	2b00      	cmp	r3, #0
 8005794:	d136      	bne.n	8005804 <I2C_WaitOnMasterAddressFlagUntilTimeout+0xf4>
      {
        if ((__HAL_I2C_GET_FLAG(hi2c, Flag) == RESET))
 8005796:	68bb      	ldr	r3, [r7, #8]
 8005798:	0c1b      	lsrs	r3, r3, #16
 800579a:	b2db      	uxtb	r3, r3
 800579c:	2b01      	cmp	r3, #1
 800579e:	d10c      	bne.n	80057ba <I2C_WaitOnMasterAddressFlagUntilTimeout+0xaa>
 80057a0:	68fb      	ldr	r3, [r7, #12]
 80057a2:	681b      	ldr	r3, [r3, #0]
 80057a4:	695b      	ldr	r3, [r3, #20]
 80057a6:	43da      	mvns	r2, r3
 80057a8:	68bb      	ldr	r3, [r7, #8]
 80057aa:	4013      	ands	r3, r2
 80057ac:	b29b      	uxth	r3, r3
 80057ae:	2b00      	cmp	r3, #0
 80057b0:	bf14      	ite	ne
 80057b2:	2301      	movne	r3, #1
 80057b4:	2300      	moveq	r3, #0
 80057b6:	b2db      	uxtb	r3, r3
 80057b8:	e00b      	b.n	80057d2 <I2C_WaitOnMasterAddressFlagUntilTimeout+0xc2>
 80057ba:	68fb      	ldr	r3, [r7, #12]
 80057bc:	681b      	ldr	r3, [r3, #0]
 80057be:	699b      	ldr	r3, [r3, #24]
 80057c0:	43da      	mvns	r2, r3
 80057c2:	68bb      	ldr	r3, [r7, #8]
 80057c4:	4013      	ands	r3, r2
 80057c6:	b29b      	uxth	r3, r3
 80057c8:	2b00      	cmp	r3, #0
 80057ca:	bf14      	ite	ne
 80057cc:	2301      	movne	r3, #1
 80057ce:	2300      	moveq	r3, #0
 80057d0:	b2db      	uxtb	r3, r3
 80057d2:	2b00      	cmp	r3, #0
 80057d4:	d016      	beq.n	8005804 <I2C_WaitOnMasterAddressFlagUntilTimeout+0xf4>
        {
          hi2c->PreviousState       = I2C_STATE_NONE;
 80057d6:	68fb      	ldr	r3, [r7, #12]
 80057d8:	2200      	movs	r2, #0
 80057da:	631a      	str	r2, [r3, #48]	; 0x30
          hi2c->State               = HAL_I2C_STATE_READY;
 80057dc:	68fb      	ldr	r3, [r7, #12]
 80057de:	2220      	movs	r2, #32
 80057e0:	f883 203d 	strb.w	r2, [r3, #61]	; 0x3d
          hi2c->Mode                = HAL_I2C_MODE_NONE;
 80057e4:	68fb      	ldr	r3, [r7, #12]
 80057e6:	2200      	movs	r2, #0
 80057e8:	f883 203e 	strb.w	r2, [r3, #62]	; 0x3e
          hi2c->ErrorCode           |= HAL_I2C_ERROR_TIMEOUT;
 80057ec:	68fb      	ldr	r3, [r7, #12]
 80057ee:	6c1b      	ldr	r3, [r3, #64]	; 0x40
 80057f0:	f043 0220 	orr.w	r2, r3, #32
 80057f4:	68fb      	ldr	r3, [r7, #12]
 80057f6:	641a      	str	r2, [r3, #64]	; 0x40

          /* Process Unlocked */
          __HAL_UNLOCK(hi2c);
 80057f8:	68fb      	ldr	r3, [r7, #12]
 80057fa:	2200      	movs	r2, #0
 80057fc:	f883 203c 	strb.w	r2, [r3, #60]	; 0x3c

          return HAL_ERROR;
 8005800:	2301      	movs	r3, #1
 8005802:	e021      	b.n	8005848 <I2C_WaitOnMasterAddressFlagUntilTimeout+0x138>
  while (__HAL_I2C_GET_FLAG(hi2c, Flag) == RESET)
 8005804:	68bb      	ldr	r3, [r7, #8]
 8005806:	0c1b      	lsrs	r3, r3, #16
 8005808:	b2db      	uxtb	r3, r3
 800580a:	2b01      	cmp	r3, #1
 800580c:	d10c      	bne.n	8005828 <I2C_WaitOnMasterAddressFlagUntilTimeout+0x118>
 800580e:	68fb      	ldr	r3, [r7, #12]
 8005810:	681b      	ldr	r3, [r3, #0]
 8005812:	695b      	ldr	r3, [r3, #20]
 8005814:	43da      	mvns	r2, r3
 8005816:	68bb      	ldr	r3, [r7, #8]
 8005818:	4013      	ands	r3, r2
 800581a:	b29b      	uxth	r3, r3
 800581c:	2b00      	cmp	r3, #0
 800581e:	bf14      	ite	ne
 8005820:	2301      	movne	r3, #1
 8005822:	2300      	moveq	r3, #0
 8005824:	b2db      	uxtb	r3, r3
 8005826:	e00b      	b.n	8005840 <I2C_WaitOnMasterAddressFlagUntilTimeout+0x130>
 8005828:	68fb      	ldr	r3, [r7, #12]
 800582a:	681b      	ldr	r3, [r3, #0]
 800582c:	699b      	ldr	r3, [r3, #24]
 800582e:	43da      	mvns	r2, r3
 8005830:	68bb      	ldr	r3, [r7, #8]
 8005832:	4013      	ands	r3, r2
 8005834:	b29b      	uxth	r3, r3
 8005836:	2b00      	cmp	r3, #0
 8005838:	bf14      	ite	ne
 800583a:	2301      	movne	r3, #1
 800583c:	2300      	moveq	r3, #0
 800583e:	b2db      	uxtb	r3, r3
 8005840:	2b00      	cmp	r3, #0
 8005842:	f47f af6d 	bne.w	8005720 <I2C_WaitOnMasterAddressFlagUntilTimeout+0x10>
        }
      }
    }
  }
  return HAL_OK;
 8005846:	2300      	movs	r3, #0
}
 8005848:	4618      	mov	r0, r3
 800584a:	3710      	adds	r7, #16
 800584c:	46bd      	mov	sp, r7
 800584e:	bd80      	pop	{r7, pc}

08005850 <I2C_WaitOnTXEFlagUntilTimeout>:
  * @param  Timeout Timeout duration
  * @param  Tickstart Tick start value
  * @retval HAL status
  */
static HAL_StatusTypeDef I2C_WaitOnTXEFlagUntilTimeout(I2C_HandleTypeDef *hi2c, uint32_t Timeout, uint32_t Tickstart)
{
 8005850:	b580      	push	{r7, lr}
 8005852:	b084      	sub	sp, #16
 8005854:	af00      	add	r7, sp, #0
 8005856:	60f8      	str	r0, [r7, #12]
 8005858:	60b9      	str	r1, [r7, #8]
 800585a:	607a      	str	r2, [r7, #4]
  while (__HAL_I2C_GET_FLAG(hi2c, I2C_FLAG_TXE) == RESET)
 800585c:	e034      	b.n	80058c8 <I2C_WaitOnTXEFlagUntilTimeout+0x78>
  {
    /* Check if a NACK is detected */
    if (I2C_IsAcknowledgeFailed(hi2c) != HAL_OK)
 800585e:	68f8      	ldr	r0, [r7, #12]
 8005860:	f000 f8e3 	bl	8005a2a <I2C_IsAcknowledgeFailed>
 8005864:	4603      	mov	r3, r0
 8005866:	2b00      	cmp	r3, #0
 8005868:	d001      	beq.n	800586e <I2C_WaitOnTXEFlagUntilTimeout+0x1e>
    {
      return HAL_ERROR;
 800586a:	2301      	movs	r3, #1
 800586c:	e034      	b.n	80058d8 <I2C_WaitOnTXEFlagUntilTimeout+0x88>
    }

    /* Check for the Timeout */
    if (Timeout != HAL_MAX_DELAY)
 800586e:	68bb      	ldr	r3, [r7, #8]
 8005870:	f1b3 3fff 	cmp.w	r3, #4294967295	; 0xffffffff
 8005874:	d028      	beq.n	80058c8 <I2C_WaitOnTXEFlagUntilTimeout+0x78>
    {
      if (((HAL_GetTick() - Tickstart) > Timeout) || (Timeout == 0U))
 8005876:	f7fd fb69 	bl	8002f4c <HAL_GetTick>
 800587a:	4602      	mov	r2, r0
 800587c:	687b      	ldr	r3, [r7, #4]
 800587e:	1ad3      	subs	r3, r2, r3
 8005880:	68ba      	ldr	r2, [r7, #8]
 8005882:	429a      	cmp	r2, r3
 8005884:	d302      	bcc.n	800588c <I2C_WaitOnTXEFlagUntilTimeout+0x3c>
 8005886:	68bb      	ldr	r3, [r7, #8]
 8005888:	2b00      	cmp	r3, #0
 800588a:	d11d      	bne.n	80058c8 <I2C_WaitOnTXEFlagUntilTimeout+0x78>
      {
        if ((__HAL_I2C_GET_FLAG(hi2c, I2C_FLAG_TXE) == RESET))
 800588c:	68fb      	ldr	r3, [r7, #12]
 800588e:	681b      	ldr	r3, [r3, #0]
 8005890:	695b      	ldr	r3, [r3, #20]
 8005892:	f003 0380 	and.w	r3, r3, #128	; 0x80
 8005896:	2b80      	cmp	r3, #128	; 0x80
 8005898:	d016      	beq.n	80058c8 <I2C_WaitOnTXEFlagUntilTimeout+0x78>
        {
          hi2c->PreviousState       = I2C_STATE_NONE;
 800589a:	68fb      	ldr	r3, [r7, #12]
 800589c:	2200      	movs	r2, #0
 800589e:	631a      	str	r2, [r3, #48]	; 0x30
          hi2c->State               = HAL_I2C_STATE_READY;
 80058a0:	68fb      	ldr	r3, [r7, #12]
 80058a2:	2220      	movs	r2, #32
 80058a4:	f883 203d 	strb.w	r2, [r3, #61]	; 0x3d
          hi2c->Mode                = HAL_I2C_MODE_NONE;
 80058a8:	68fb      	ldr	r3, [r7, #12]
 80058aa:	2200      	movs	r2, #0
 80058ac:	f883 203e 	strb.w	r2, [r3, #62]	; 0x3e
          hi2c->ErrorCode           |= HAL_I2C_ERROR_TIMEOUT;
 80058b0:	68fb      	ldr	r3, [r7, #12]
 80058b2:	6c1b      	ldr	r3, [r3, #64]	; 0x40
 80058b4:	f043 0220 	orr.w	r2, r3, #32
 80058b8:	68fb      	ldr	r3, [r7, #12]
 80058ba:	641a      	str	r2, [r3, #64]	; 0x40

          /* Process Unlocked */
          __HAL_UNLOCK(hi2c);
 80058bc:	68fb      	ldr	r3, [r7, #12]
 80058be:	2200      	movs	r2, #0
 80058c0:	f883 203c 	strb.w	r2, [r3, #60]	; 0x3c

          return HAL_ERROR;
 80058c4:	2301      	movs	r3, #1
 80058c6:	e007      	b.n	80058d8 <I2C_WaitOnTXEFlagUntilTimeout+0x88>
  while (__HAL_I2C_GET_FLAG(hi2c, I2C_FLAG_TXE) == RESET)
 80058c8:	68fb      	ldr	r3, [r7, #12]
 80058ca:	681b      	ldr	r3, [r3, #0]
 80058cc:	695b      	ldr	r3, [r3, #20]
 80058ce:	f003 0380 	and.w	r3, r3, #128	; 0x80
 80058d2:	2b80      	cmp	r3, #128	; 0x80
 80058d4:	d1c3      	bne.n	800585e <I2C_WaitOnTXEFlagUntilTimeout+0xe>
        }
      }
    }
  }
  return HAL_OK;
 80058d6:	2300      	movs	r3, #0
}
 80058d8:	4618      	mov	r0, r3
 80058da:	3710      	adds	r7, #16
 80058dc:	46bd      	mov	sp, r7
 80058de:	bd80      	pop	{r7, pc}

080058e0 <I2C_WaitOnBTFFlagUntilTimeout>:
  * @param  Timeout Timeout duration
  * @param  Tickstart Tick start value
  * @retval HAL status
  */
static HAL_StatusTypeDef I2C_WaitOnBTFFlagUntilTimeout(I2C_HandleTypeDef *hi2c, uint32_t Timeout, uint32_t Tickstart)
{
 80058e0:	b580      	push	{r7, lr}
 80058e2:	b084      	sub	sp, #16
 80058e4:	af00      	add	r7, sp, #0
 80058e6:	60f8      	str	r0, [r7, #12]
 80058e8:	60b9      	str	r1, [r7, #8]
 80058ea:	607a      	str	r2, [r7, #4]
  while (__HAL_I2C_GET_FLAG(hi2c, I2C_FLAG_BTF) == RESET)
 80058ec:	e034      	b.n	8005958 <I2C_WaitOnBTFFlagUntilTimeout+0x78>
  {
    /* Check if a NACK is detected */
    if (I2C_IsAcknowledgeFailed(hi2c) != HAL_OK)
 80058ee:	68f8      	ldr	r0, [r7, #12]
 80058f0:	f000 f89b 	bl	8005a2a <I2C_IsAcknowledgeFailed>
 80058f4:	4603      	mov	r3, r0
 80058f6:	2b00      	cmp	r3, #0
 80058f8:	d001      	beq.n	80058fe <I2C_WaitOnBTFFlagUntilTimeout+0x1e>
    {
      return HAL_ERROR;
 80058fa:	2301      	movs	r3, #1
 80058fc:	e034      	b.n	8005968 <I2C_WaitOnBTFFlagUntilTimeout+0x88>
    }

    /* Check for the Timeout */
    if (Timeout != HAL_MAX_DELAY)
 80058fe:	68bb      	ldr	r3, [r7, #8]
 8005900:	f1b3 3fff 	cmp.w	r3, #4294967295	; 0xffffffff
 8005904:	d028      	beq.n	8005958 <I2C_WaitOnBTFFlagUntilTimeout+0x78>
    {
      if (((HAL_GetTick() - Tickstart) > Timeout) || (Timeout == 0U))
 8005906:	f7fd fb21 	bl	8002f4c <HAL_GetTick>
 800590a:	4602      	mov	r2, r0
 800590c:	687b      	ldr	r3, [r7, #4]
 800590e:	1ad3      	subs	r3, r2, r3
 8005910:	68ba      	ldr	r2, [r7, #8]
 8005912:	429a      	cmp	r2, r3
 8005914:	d302      	bcc.n	800591c <I2C_WaitOnBTFFlagUntilTimeout+0x3c>
 8005916:	68bb      	ldr	r3, [r7, #8]
 8005918:	2b00      	cmp	r3, #0
 800591a:	d11d      	bne.n	8005958 <I2C_WaitOnBTFFlagUntilTimeout+0x78>
      {
        if ((__HAL_I2C_GET_FLAG(hi2c, I2C_FLAG_BTF) == RESET))
 800591c:	68fb      	ldr	r3, [r7, #12]
 800591e:	681b      	ldr	r3, [r3, #0]
 8005920:	695b      	ldr	r3, [r3, #20]
 8005922:	f003 0304 	and.w	r3, r3, #4
 8005926:	2b04      	cmp	r3, #4
 8005928:	d016      	beq.n	8005958 <I2C_WaitOnBTFFlagUntilTimeout+0x78>
        {
          hi2c->PreviousState       = I2C_STATE_NONE;
 800592a:	68fb      	ldr	r3, [r7, #12]
 800592c:	2200      	movs	r2, #0
 800592e:	631a      	str	r2, [r3, #48]	; 0x30
          hi2c->State               = HAL_I2C_STATE_READY;
 8005930:	68fb      	ldr	r3, [r7, #12]
 8005932:	2220      	movs	r2, #32
 8005934:	f883 203d 	strb.w	r2, [r3, #61]	; 0x3d
          hi2c->Mode                = HAL_I2C_MODE_NONE;
 8005938:	68fb      	ldr	r3, [r7, #12]
 800593a:	2200      	movs	r2, #0
 800593c:	f883 203e 	strb.w	r2, [r3, #62]	; 0x3e
          hi2c->ErrorCode           |= HAL_I2C_ERROR_TIMEOUT;
 8005940:	68fb      	ldr	r3, [r7, #12]
 8005942:	6c1b      	ldr	r3, [r3, #64]	; 0x40
 8005944:	f043 0220 	orr.w	r2, r3, #32
 8005948:	68fb      	ldr	r3, [r7, #12]
 800594a:	641a      	str	r2, [r3, #64]	; 0x40

          /* Process Unlocked */
          __HAL_UNLOCK(hi2c);
 800594c:	68fb      	ldr	r3, [r7, #12]
 800594e:	2200      	movs	r2, #0
 8005950:	f883 203c 	strb.w	r2, [r3, #60]	; 0x3c

          return HAL_ERROR;
 8005954:	2301      	movs	r3, #1
 8005956:	e007      	b.n	8005968 <I2C_WaitOnBTFFlagUntilTimeout+0x88>
  while (__HAL_I2C_GET_FLAG(hi2c, I2C_FLAG_BTF) == RESET)
 8005958:	68fb      	ldr	r3, [r7, #12]
 800595a:	681b      	ldr	r3, [r3, #0]
 800595c:	695b      	ldr	r3, [r3, #20]
 800595e:	f003 0304 	and.w	r3, r3, #4
 8005962:	2b04      	cmp	r3, #4
 8005964:	d1c3      	bne.n	80058ee <I2C_WaitOnBTFFlagUntilTimeout+0xe>
        }
      }
    }
  }
  return HAL_OK;
 8005966:	2300      	movs	r3, #0
}
 8005968:	4618      	mov	r0, r3
 800596a:	3710      	adds	r7, #16
 800596c:	46bd      	mov	sp, r7
 800596e:	bd80      	pop	{r7, pc}

08005970 <I2C_WaitOnRXNEFlagUntilTimeout>:
  * @param  Timeout Timeout duration
  * @param  Tickstart Tick start value
  * @retval HAL status
  */
static HAL_StatusTypeDef I2C_WaitOnRXNEFlagUntilTimeout(I2C_HandleTypeDef *hi2c, uint32_t Timeout, uint32_t Tickstart)
{
 8005970:	b580      	push	{r7, lr}
 8005972:	b084      	sub	sp, #16
 8005974:	af00      	add	r7, sp, #0
 8005976:	60f8      	str	r0, [r7, #12]
 8005978:	60b9      	str	r1, [r7, #8]
 800597a:	607a      	str	r2, [r7, #4]

  while (__HAL_I2C_GET_FLAG(hi2c, I2C_FLAG_RXNE) == RESET)
 800597c:	e049      	b.n	8005a12 <I2C_WaitOnRXNEFlagUntilTimeout+0xa2>
  {
    /* Check if a STOPF is detected */
    if (__HAL_I2C_GET_FLAG(hi2c, I2C_FLAG_STOPF) == SET)
 800597e:	68fb      	ldr	r3, [r7, #12]
 8005980:	681b      	ldr	r3, [r3, #0]
 8005982:	695b      	ldr	r3, [r3, #20]
 8005984:	f003 0310 	and.w	r3, r3, #16
 8005988:	2b10      	cmp	r3, #16
 800598a:	d119      	bne.n	80059c0 <I2C_WaitOnRXNEFlagUntilTimeout+0x50>
    {
      /* Clear STOP Flag */
      __HAL_I2C_CLEAR_FLAG(hi2c, I2C_FLAG_STOPF);
 800598c:	68fb      	ldr	r3, [r7, #12]
 800598e:	681b      	ldr	r3, [r3, #0]
 8005990:	f06f 0210 	mvn.w	r2, #16
 8005994:	615a      	str	r2, [r3, #20]

      hi2c->PreviousState       = I2C_STATE_NONE;
 8005996:	68fb      	ldr	r3, [r7, #12]
 8005998:	2200      	movs	r2, #0
 800599a:	631a      	str	r2, [r3, #48]	; 0x30
      hi2c->State               = HAL_I2C_STATE_READY;
 800599c:	68fb      	ldr	r3, [r7, #12]
 800599e:	2220      	movs	r2, #32
 80059a0:	f883 203d 	strb.w	r2, [r3, #61]	; 0x3d
      hi2c->Mode                = HAL_I2C_MODE_NONE;
 80059a4:	68fb      	ldr	r3, [r7, #12]
 80059a6:	2200      	movs	r2, #0
 80059a8:	f883 203e 	strb.w	r2, [r3, #62]	; 0x3e
      hi2c->ErrorCode           |= HAL_I2C_ERROR_NONE;
 80059ac:	68fb      	ldr	r3, [r7, #12]
 80059ae:	6c1a      	ldr	r2, [r3, #64]	; 0x40
 80059b0:	68fb      	ldr	r3, [r7, #12]
 80059b2:	641a      	str	r2, [r3, #64]	; 0x40

      /* Process Unlocked */
      __HAL_UNLOCK(hi2c);
 80059b4:	68fb      	ldr	r3, [r7, #12]
 80059b6:	2200      	movs	r2, #0
 80059b8:	f883 203c 	strb.w	r2, [r3, #60]	; 0x3c

      return HAL_ERROR;
 80059bc:	2301      	movs	r3, #1
 80059be:	e030      	b.n	8005a22 <I2C_WaitOnRXNEFlagUntilTimeout+0xb2>
    }

    /* Check for the Timeout */
    if (((HAL_GetTick() - Tickstart) > Timeout) || (Timeout == 0U))
 80059c0:	f7fd fac4 	bl	8002f4c <HAL_GetTick>
 80059c4:	4602      	mov	r2, r0
 80059c6:	687b      	ldr	r3, [r7, #4]
 80059c8:	1ad3      	subs	r3, r2, r3
 80059ca:	68ba      	ldr	r2, [r7, #8]
 80059cc:	429a      	cmp	r2, r3
 80059ce:	d302      	bcc.n	80059d6 <I2C_WaitOnRXNEFlagUntilTimeout+0x66>
 80059d0:	68bb      	ldr	r3, [r7, #8]
 80059d2:	2b00      	cmp	r3, #0
 80059d4:	d11d      	bne.n	8005a12 <I2C_WaitOnRXNEFlagUntilTimeout+0xa2>
    {
      if ((__HAL_I2C_GET_FLAG(hi2c, I2C_FLAG_RXNE) == RESET))
 80059d6:	68fb      	ldr	r3, [r7, #12]
 80059d8:	681b      	ldr	r3, [r3, #0]
 80059da:	695b      	ldr	r3, [r3, #20]
 80059dc:	f003 0340 	and.w	r3, r3, #64	; 0x40
 80059e0:	2b40      	cmp	r3, #64	; 0x40
 80059e2:	d016      	beq.n	8005a12 <I2C_WaitOnRXNEFlagUntilTimeout+0xa2>
      {
        hi2c->PreviousState       = I2C_STATE_NONE;
 80059e4:	68fb      	ldr	r3, [r7, #12]
 80059e6:	2200      	movs	r2, #0
 80059e8:	631a      	str	r2, [r3, #48]	; 0x30
        hi2c->State               = HAL_I2C_STATE_READY;
 80059ea:	68fb      	ldr	r3, [r7, #12]
 80059ec:	2220      	movs	r2, #32
 80059ee:	f883 203d 	strb.w	r2, [r3, #61]	; 0x3d
        hi2c->Mode                = HAL_I2C_MODE_NONE;
 80059f2:	68fb      	ldr	r3, [r7, #12]
 80059f4:	2200      	movs	r2, #0
 80059f6:	f883 203e 	strb.w	r2, [r3, #62]	; 0x3e
        hi2c->ErrorCode           |= HAL_I2C_ERROR_TIMEOUT;
 80059fa:	68fb      	ldr	r3, [r7, #12]
 80059fc:	6c1b      	ldr	r3, [r3, #64]	; 0x40
 80059fe:	f043 0220 	orr.w	r2, r3, #32
 8005a02:	68fb      	ldr	r3, [r7, #12]
 8005a04:	641a      	str	r2, [r3, #64]	; 0x40

        /* Process Unlocked */
        __HAL_UNLOCK(hi2c);
 8005a06:	68fb      	ldr	r3, [r7, #12]
 8005a08:	2200      	movs	r2, #0
 8005a0a:	f883 203c 	strb.w	r2, [r3, #60]	; 0x3c

        return HAL_ERROR;
 8005a0e:	2301      	movs	r3, #1
 8005a10:	e007      	b.n	8005a22 <I2C_WaitOnRXNEFlagUntilTimeout+0xb2>
  while (__HAL_I2C_GET_FLAG(hi2c, I2C_FLAG_RXNE) == RESET)
 8005a12:	68fb      	ldr	r3, [r7, #12]
 8005a14:	681b      	ldr	r3, [r3, #0]
 8005a16:	695b      	ldr	r3, [r3, #20]
 8005a18:	f003 0340 	and.w	r3, r3, #64	; 0x40
 8005a1c:	2b40      	cmp	r3, #64	; 0x40
 8005a1e:	d1ae      	bne.n	800597e <I2C_WaitOnRXNEFlagUntilTimeout+0xe>
      }
    }
  }
  return HAL_OK;
 8005a20:	2300      	movs	r3, #0
}
 8005a22:	4618      	mov	r0, r3
 8005a24:	3710      	adds	r7, #16
 8005a26:	46bd      	mov	sp, r7
 8005a28:	bd80      	pop	{r7, pc}

08005a2a <I2C_IsAcknowledgeFailed>:
  * @param  hi2c Pointer to a I2C_HandleTypeDef structure that contains
  *                the configuration information for the specified I2C.
  * @retval HAL status
  */
static HAL_StatusTypeDef I2C_IsAcknowledgeFailed(I2C_HandleTypeDef *hi2c)
{
 8005a2a:	b480      	push	{r7}
 8005a2c:	b083      	sub	sp, #12
 8005a2e:	af00      	add	r7, sp, #0
 8005a30:	6078      	str	r0, [r7, #4]
  if (__HAL_I2C_GET_FLAG(hi2c, I2C_FLAG_AF) == SET)
 8005a32:	687b      	ldr	r3, [r7, #4]
 8005a34:	681b      	ldr	r3, [r3, #0]
 8005a36:	695b      	ldr	r3, [r3, #20]
 8005a38:	f403 6380 	and.w	r3, r3, #1024	; 0x400
 8005a3c:	f5b3 6f80 	cmp.w	r3, #1024	; 0x400
 8005a40:	d11b      	bne.n	8005a7a <I2C_IsAcknowledgeFailed+0x50>
  {
    /* Clear NACKF Flag */
    __HAL_I2C_CLEAR_FLAG(hi2c, I2C_FLAG_AF);
 8005a42:	687b      	ldr	r3, [r7, #4]
 8005a44:	681b      	ldr	r3, [r3, #0]
 8005a46:	f46f 6280 	mvn.w	r2, #1024	; 0x400
 8005a4a:	615a      	str	r2, [r3, #20]

    hi2c->PreviousState       = I2C_STATE_NONE;
 8005a4c:	687b      	ldr	r3, [r7, #4]
 8005a4e:	2200      	movs	r2, #0
 8005a50:	631a      	str	r2, [r3, #48]	; 0x30
    hi2c->State               = HAL_I2C_STATE_READY;
 8005a52:	687b      	ldr	r3, [r7, #4]
 8005a54:	2220      	movs	r2, #32
 8005a56:	f883 203d 	strb.w	r2, [r3, #61]	; 0x3d
    hi2c->Mode                = HAL_I2C_MODE_NONE;
 8005a5a:	687b      	ldr	r3, [r7, #4]
 8005a5c:	2200      	movs	r2, #0
 8005a5e:	f883 203e 	strb.w	r2, [r3, #62]	; 0x3e
    hi2c->ErrorCode           |= HAL_I2C_ERROR_AF;
 8005a62:	687b      	ldr	r3, [r7, #4]
 8005a64:	6c1b      	ldr	r3, [r3, #64]	; 0x40
 8005a66:	f043 0204 	orr.w	r2, r3, #4
 8005a6a:	687b      	ldr	r3, [r7, #4]
 8005a6c:	641a      	str	r2, [r3, #64]	; 0x40

    /* Process Unlocked */
    __HAL_UNLOCK(hi2c);
 8005a6e:	687b      	ldr	r3, [r7, #4]
 8005a70:	2200      	movs	r2, #0
 8005a72:	f883 203c 	strb.w	r2, [r3, #60]	; 0x3c

    return HAL_ERROR;
 8005a76:	2301      	movs	r3, #1
 8005a78:	e000      	b.n	8005a7c <I2C_IsAcknowledgeFailed+0x52>
  }
  return HAL_OK;
 8005a7a:	2300      	movs	r3, #0
}
 8005a7c:	4618      	mov	r0, r3
 8005a7e:	370c      	adds	r7, #12
 8005a80:	46bd      	mov	sp, r7
 8005a82:	f85d 7b04 	ldr.w	r7, [sp], #4
 8005a86:	4770      	bx	lr

08005a88 <HAL_I2CEx_ConfigAnalogFilter>:
  *                the configuration information for the specified I2Cx peripheral.
  * @param  AnalogFilter new state of the Analog filter.
  * @retval HAL status
  */
HAL_StatusTypeDef HAL_I2CEx_ConfigAnalogFilter(I2C_HandleTypeDef *hi2c, uint32_t AnalogFilter)
{
 8005a88:	b480      	push	{r7}
 8005a8a:	b083      	sub	sp, #12
 8005a8c:	af00      	add	r7, sp, #0
 8005a8e:	6078      	str	r0, [r7, #4]
 8005a90:	6039      	str	r1, [r7, #0]
  /* Check the parameters */
  assert_param(IS_I2C_ALL_INSTANCE(hi2c->Instance));
  assert_param(IS_I2C_ANALOG_FILTER(AnalogFilter));

  if (hi2c->State == HAL_I2C_STATE_READY)
 8005a92:	687b      	ldr	r3, [r7, #4]
 8005a94:	f893 303d 	ldrb.w	r3, [r3, #61]	; 0x3d
 8005a98:	b2db      	uxtb	r3, r3
 8005a9a:	2b20      	cmp	r3, #32
 8005a9c:	d129      	bne.n	8005af2 <HAL_I2CEx_ConfigAnalogFilter+0x6a>
  {
    hi2c->State = HAL_I2C_STATE_BUSY;
 8005a9e:	687b      	ldr	r3, [r7, #4]
 8005aa0:	2224      	movs	r2, #36	; 0x24
 8005aa2:	f883 203d 	strb.w	r2, [r3, #61]	; 0x3d

    /* Disable the selected I2C peripheral */
    __HAL_I2C_DISABLE(hi2c);
 8005aa6:	687b      	ldr	r3, [r7, #4]
 8005aa8:	681b      	ldr	r3, [r3, #0]
 8005aaa:	681a      	ldr	r2, [r3, #0]
 8005aac:	687b      	ldr	r3, [r7, #4]
 8005aae:	681b      	ldr	r3, [r3, #0]
 8005ab0:	f022 0201 	bic.w	r2, r2, #1
 8005ab4:	601a      	str	r2, [r3, #0]

    /* Reset I2Cx ANOFF bit */
    hi2c->Instance->FLTR &= ~(I2C_FLTR_ANOFF);
 8005ab6:	687b      	ldr	r3, [r7, #4]
 8005ab8:	681b      	ldr	r3, [r3, #0]
 8005aba:	6a5a      	ldr	r2, [r3, #36]	; 0x24
 8005abc:	687b      	ldr	r3, [r7, #4]
 8005abe:	681b      	ldr	r3, [r3, #0]
 8005ac0:	f022 0210 	bic.w	r2, r2, #16
 8005ac4:	625a      	str	r2, [r3, #36]	; 0x24

    /* Disable the analog filter */
    hi2c->Instance->FLTR |= AnalogFilter;
 8005ac6:	687b      	ldr	r3, [r7, #4]
 8005ac8:	681b      	ldr	r3, [r3, #0]
 8005aca:	6a59      	ldr	r1, [r3, #36]	; 0x24
 8005acc:	687b      	ldr	r3, [r7, #4]
 8005ace:	681b      	ldr	r3, [r3, #0]
 8005ad0:	683a      	ldr	r2, [r7, #0]
 8005ad2:	430a      	orrs	r2, r1
 8005ad4:	625a      	str	r2, [r3, #36]	; 0x24

    __HAL_I2C_ENABLE(hi2c);
 8005ad6:	687b      	ldr	r3, [r7, #4]
 8005ad8:	681b      	ldr	r3, [r3, #0]
 8005ada:	681a      	ldr	r2, [r3, #0]
 8005adc:	687b      	ldr	r3, [r7, #4]
 8005ade:	681b      	ldr	r3, [r3, #0]
 8005ae0:	f042 0201 	orr.w	r2, r2, #1
 8005ae4:	601a      	str	r2, [r3, #0]

    hi2c->State = HAL_I2C_STATE_READY;
 8005ae6:	687b      	ldr	r3, [r7, #4]
 8005ae8:	2220      	movs	r2, #32
 8005aea:	f883 203d 	strb.w	r2, [r3, #61]	; 0x3d

    return HAL_OK;
 8005aee:	2300      	movs	r3, #0
 8005af0:	e000      	b.n	8005af4 <HAL_I2CEx_ConfigAnalogFilter+0x6c>
  }
  else
  {
    return HAL_BUSY;
 8005af2:	2302      	movs	r3, #2
  }
}
 8005af4:	4618      	mov	r0, r3
 8005af6:	370c      	adds	r7, #12
 8005af8:	46bd      	mov	sp, r7
 8005afa:	f85d 7b04 	ldr.w	r7, [sp], #4
 8005afe:	4770      	bx	lr

08005b00 <HAL_I2CEx_ConfigDigitalFilter>:
  *                the configuration information for the specified I2Cx peripheral.
  * @param  DigitalFilter Coefficient of digital noise filter between 0x00 and 0x0F.
  * @retval HAL status
  */
HAL_StatusTypeDef HAL_I2CEx_ConfigDigitalFilter(I2C_HandleTypeDef *hi2c, uint32_t DigitalFilter)
{
 8005b00:	b480      	push	{r7}
 8005b02:	b085      	sub	sp, #20
 8005b04:	af00      	add	r7, sp, #0
 8005b06:	6078      	str	r0, [r7, #4]
 8005b08:	6039      	str	r1, [r7, #0]
  uint16_t tmpreg = 0;
 8005b0a:	2300      	movs	r3, #0
 8005b0c:	81fb      	strh	r3, [r7, #14]

  /* Check the parameters */
  assert_param(IS_I2C_ALL_INSTANCE(hi2c->Instance));
  assert_param(IS_I2C_DIGITAL_FILTER(DigitalFilter));

  if (hi2c->State == HAL_I2C_STATE_READY)
 8005b0e:	687b      	ldr	r3, [r7, #4]
 8005b10:	f893 303d 	ldrb.w	r3, [r3, #61]	; 0x3d
 8005b14:	b2db      	uxtb	r3, r3
 8005b16:	2b20      	cmp	r3, #32
 8005b18:	d12a      	bne.n	8005b70 <HAL_I2CEx_ConfigDigitalFilter+0x70>
  {
    hi2c->State = HAL_I2C_STATE_BUSY;
 8005b1a:	687b      	ldr	r3, [r7, #4]
 8005b1c:	2224      	movs	r2, #36	; 0x24
 8005b1e:	f883 203d 	strb.w	r2, [r3, #61]	; 0x3d

    /* Disable the selected I2C peripheral */
    __HAL_I2C_DISABLE(hi2c);
 8005b22:	687b      	ldr	r3, [r7, #4]
 8005b24:	681b      	ldr	r3, [r3, #0]
 8005b26:	681a      	ldr	r2, [r3, #0]
 8005b28:	687b      	ldr	r3, [r7, #4]
 8005b2a:	681b      	ldr	r3, [r3, #0]
 8005b2c:	f022 0201 	bic.w	r2, r2, #1
 8005b30:	601a      	str	r2, [r3, #0]

    /* Get the old register value */
    tmpreg = hi2c->Instance->FLTR;
 8005b32:	687b      	ldr	r3, [r7, #4]
 8005b34:	681b      	ldr	r3, [r3, #0]
 8005b36:	6a5b      	ldr	r3, [r3, #36]	; 0x24
 8005b38:	81fb      	strh	r3, [r7, #14]

    /* Reset I2Cx DNF bit [3:0] */
    tmpreg &= ~(I2C_FLTR_DNF);
 8005b3a:	89fb      	ldrh	r3, [r7, #14]
 8005b3c:	f023 030f 	bic.w	r3, r3, #15
 8005b40:	81fb      	strh	r3, [r7, #14]

    /* Set I2Cx DNF coefficient */
    tmpreg |= DigitalFilter;
 8005b42:	683b      	ldr	r3, [r7, #0]
 8005b44:	b29a      	uxth	r2, r3
 8005b46:	89fb      	ldrh	r3, [r7, #14]
 8005b48:	4313      	orrs	r3, r2
 8005b4a:	81fb      	strh	r3, [r7, #14]

    /* Store the new register value */
    hi2c->Instance->FLTR = tmpreg;
 8005b4c:	687b      	ldr	r3, [r7, #4]
 8005b4e:	681b      	ldr	r3, [r3, #0]
 8005b50:	89fa      	ldrh	r2, [r7, #14]
 8005b52:	625a      	str	r2, [r3, #36]	; 0x24

    __HAL_I2C_ENABLE(hi2c);
 8005b54:	687b      	ldr	r3, [r7, #4]
 8005b56:	681b      	ldr	r3, [r3, #0]
 8005b58:	681a      	ldr	r2, [r3, #0]
 8005b5a:	687b      	ldr	r3, [r7, #4]
 8005b5c:	681b      	ldr	r3, [r3, #0]
 8005b5e:	f042 0201 	orr.w	r2, r2, #1
 8005b62:	601a      	str	r2, [r3, #0]

    hi2c->State = HAL_I2C_STATE_READY;
 8005b64:	687b      	ldr	r3, [r7, #4]
 8005b66:	2220      	movs	r2, #32
 8005b68:	f883 203d 	strb.w	r2, [r3, #61]	; 0x3d

    return HAL_OK;
 8005b6c:	2300      	movs	r3, #0
 8005b6e:	e000      	b.n	8005b72 <HAL_I2CEx_ConfigDigitalFilter+0x72>
  }
  else
  {
    return HAL_BUSY;
 8005b70:	2302      	movs	r3, #2
  }
}
 8005b72:	4618      	mov	r0, r3
 8005b74:	3714      	adds	r7, #20
 8005b76:	46bd      	mov	sp, r7
 8005b78:	f85d 7b04 	ldr.w	r7, [sp], #4
 8005b7c:	4770      	bx	lr
	...

08005b80 <HAL_RCC_OscConfig>:
  *         supported by this API. User should request a transition to HSE Off
  *         first and then HSE On or HSE Bypass.
  * @retval HAL status
  */
__weak HAL_StatusTypeDef HAL_RCC_OscConfig(RCC_OscInitTypeDef  *RCC_OscInitStruct)
{
 8005b80:	b580      	push	{r7, lr}
 8005b82:	b086      	sub	sp, #24
 8005b84:	af00      	add	r7, sp, #0
 8005b86:	6078      	str	r0, [r7, #4]
  uint32_t tickstart, pll_config;

  /* Check Null pointer */
  if(RCC_OscInitStruct == NULL)
 8005b88:	687b      	ldr	r3, [r7, #4]
 8005b8a:	2b00      	cmp	r3, #0
 8005b8c:	d101      	bne.n	8005b92 <HAL_RCC_OscConfig+0x12>
  {
    return HAL_ERROR;
 8005b8e:	2301      	movs	r3, #1
 8005b90:	e267      	b.n	8006062 <HAL_RCC_OscConfig+0x4e2>
  }

  /* Check the parameters */
  assert_param(IS_RCC_OSCILLATORTYPE(RCC_OscInitStruct->OscillatorType));
  /*------------------------------- HSE Configuration ------------------------*/
  if(((RCC_OscInitStruct->OscillatorType) & RCC_OSCILLATORTYPE_HSE) == RCC_OSCILLATORTYPE_HSE)
 8005b92:	687b      	ldr	r3, [r7, #4]
 8005b94:	681b      	ldr	r3, [r3, #0]
 8005b96:	f003 0301 	and.w	r3, r3, #1
 8005b9a:	2b00      	cmp	r3, #0
 8005b9c:	d075      	beq.n	8005c8a <HAL_RCC_OscConfig+0x10a>
  {
    /* Check the parameters */
    assert_param(IS_RCC_HSE(RCC_OscInitStruct->HSEState));
    /* When the HSE is used as system clock or clock source for PLL in these cases HSE will not disabled */
    if((__HAL_RCC_GET_SYSCLK_SOURCE() == RCC_CFGR_SWS_HSE) ||\
 8005b9e:	4b88      	ldr	r3, [pc, #544]	; (8005dc0 <HAL_RCC_OscConfig+0x240>)
 8005ba0:	689b      	ldr	r3, [r3, #8]
 8005ba2:	f003 030c 	and.w	r3, r3, #12
 8005ba6:	2b04      	cmp	r3, #4
 8005ba8:	d00c      	beq.n	8005bc4 <HAL_RCC_OscConfig+0x44>
      ((__HAL_RCC_GET_SYSCLK_SOURCE() == RCC_CFGR_SWS_PLL) && ((RCC->PLLCFGR & RCC_PLLCFGR_PLLSRC) == RCC_PLLCFGR_PLLSRC_HSE)))
 8005baa:	4b85      	ldr	r3, [pc, #532]	; (8005dc0 <HAL_RCC_OscConfig+0x240>)
 8005bac:	689b      	ldr	r3, [r3, #8]
 8005bae:	f003 030c 	and.w	r3, r3, #12
    if((__HAL_RCC_GET_SYSCLK_SOURCE() == RCC_CFGR_SWS_HSE) ||\
 8005bb2:	2b08      	cmp	r3, #8
 8005bb4:	d112      	bne.n	8005bdc <HAL_RCC_OscConfig+0x5c>
      ((__HAL_RCC_GET_SYSCLK_SOURCE() == RCC_CFGR_SWS_PLL) && ((RCC->PLLCFGR & RCC_PLLCFGR_PLLSRC) == RCC_PLLCFGR_PLLSRC_HSE)))
 8005bb6:	4b82      	ldr	r3, [pc, #520]	; (8005dc0 <HAL_RCC_OscConfig+0x240>)
 8005bb8:	685b      	ldr	r3, [r3, #4]
 8005bba:	f403 0380 	and.w	r3, r3, #4194304	; 0x400000
 8005bbe:	f5b3 0f80 	cmp.w	r3, #4194304	; 0x400000
 8005bc2:	d10b      	bne.n	8005bdc <HAL_RCC_OscConfig+0x5c>
    {
      if((__HAL_RCC_GET_FLAG(RCC_FLAG_HSERDY) != RESET) && (RCC_OscInitStruct->HSEState == RCC_HSE_OFF))
 8005bc4:	4b7e      	ldr	r3, [pc, #504]	; (8005dc0 <HAL_RCC_OscConfig+0x240>)
 8005bc6:	681b      	ldr	r3, [r3, #0]
 8005bc8:	f403 3300 	and.w	r3, r3, #131072	; 0x20000
 8005bcc:	2b00      	cmp	r3, #0
 8005bce:	d05b      	beq.n	8005c88 <HAL_RCC_OscConfig+0x108>
 8005bd0:	687b      	ldr	r3, [r7, #4]
 8005bd2:	685b      	ldr	r3, [r3, #4]
 8005bd4:	2b00      	cmp	r3, #0
 8005bd6:	d157      	bne.n	8005c88 <HAL_RCC_OscConfig+0x108>
      {
        return HAL_ERROR;
 8005bd8:	2301      	movs	r3, #1
 8005bda:	e242      	b.n	8006062 <HAL_RCC_OscConfig+0x4e2>
      }
    }
    else
    {
      /* Set the new HSE configuration ---------------------------------------*/
      __HAL_RCC_HSE_CONFIG(RCC_OscInitStruct->HSEState);
 8005bdc:	687b      	ldr	r3, [r7, #4]
 8005bde:	685b      	ldr	r3, [r3, #4]
 8005be0:	f5b3 3f80 	cmp.w	r3, #65536	; 0x10000
 8005be4:	d106      	bne.n	8005bf4 <HAL_RCC_OscConfig+0x74>
 8005be6:	4b76      	ldr	r3, [pc, #472]	; (8005dc0 <HAL_RCC_OscConfig+0x240>)
 8005be8:	681b      	ldr	r3, [r3, #0]
 8005bea:	4a75      	ldr	r2, [pc, #468]	; (8005dc0 <HAL_RCC_OscConfig+0x240>)
 8005bec:	f443 3380 	orr.w	r3, r3, #65536	; 0x10000
 8005bf0:	6013      	str	r3, [r2, #0]
 8005bf2:	e01d      	b.n	8005c30 <HAL_RCC_OscConfig+0xb0>
 8005bf4:	687b      	ldr	r3, [r7, #4]
 8005bf6:	685b      	ldr	r3, [r3, #4]
 8005bf8:	f5b3 2fa0 	cmp.w	r3, #327680	; 0x50000
 8005bfc:	d10c      	bne.n	8005c18 <HAL_RCC_OscConfig+0x98>
 8005bfe:	4b70      	ldr	r3, [pc, #448]	; (8005dc0 <HAL_RCC_OscConfig+0x240>)
 8005c00:	681b      	ldr	r3, [r3, #0]
 8005c02:	4a6f      	ldr	r2, [pc, #444]	; (8005dc0 <HAL_RCC_OscConfig+0x240>)
 8005c04:	f443 2380 	orr.w	r3, r3, #262144	; 0x40000
 8005c08:	6013      	str	r3, [r2, #0]
 8005c0a:	4b6d      	ldr	r3, [pc, #436]	; (8005dc0 <HAL_RCC_OscConfig+0x240>)
 8005c0c:	681b      	ldr	r3, [r3, #0]
 8005c0e:	4a6c      	ldr	r2, [pc, #432]	; (8005dc0 <HAL_RCC_OscConfig+0x240>)
 8005c10:	f443 3380 	orr.w	r3, r3, #65536	; 0x10000
 8005c14:	6013      	str	r3, [r2, #0]
 8005c16:	e00b      	b.n	8005c30 <HAL_RCC_OscConfig+0xb0>
 8005c18:	4b69      	ldr	r3, [pc, #420]	; (8005dc0 <HAL_RCC_OscConfig+0x240>)
 8005c1a:	681b      	ldr	r3, [r3, #0]
 8005c1c:	4a68      	ldr	r2, [pc, #416]	; (8005dc0 <HAL_RCC_OscConfig+0x240>)
 8005c1e:	f423 3380 	bic.w	r3, r3, #65536	; 0x10000
 8005c22:	6013      	str	r3, [r2, #0]
 8005c24:	4b66      	ldr	r3, [pc, #408]	; (8005dc0 <HAL_RCC_OscConfig+0x240>)
 8005c26:	681b      	ldr	r3, [r3, #0]
 8005c28:	4a65      	ldr	r2, [pc, #404]	; (8005dc0 <HAL_RCC_OscConfig+0x240>)
 8005c2a:	f423 2380 	bic.w	r3, r3, #262144	; 0x40000
 8005c2e:	6013      	str	r3, [r2, #0]

      /* Check the HSE State */
      if((RCC_OscInitStruct->HSEState) != RCC_HSE_OFF)
 8005c30:	687b      	ldr	r3, [r7, #4]
 8005c32:	685b      	ldr	r3, [r3, #4]
 8005c34:	2b00      	cmp	r3, #0
 8005c36:	d013      	beq.n	8005c60 <HAL_RCC_OscConfig+0xe0>
      {
        /* Get Start Tick */
        tickstart = HAL_GetTick();
 8005c38:	f7fd f988 	bl	8002f4c <HAL_GetTick>
 8005c3c:	6138      	str	r0, [r7, #16]

        /* Wait till HSE is ready */
        while(__HAL_RCC_GET_FLAG(RCC_FLAG_HSERDY) == RESET)
 8005c3e:	e008      	b.n	8005c52 <HAL_RCC_OscConfig+0xd2>
        {
          if((HAL_GetTick() - tickstart ) > HSE_TIMEOUT_VALUE)
 8005c40:	f7fd f984 	bl	8002f4c <HAL_GetTick>
 8005c44:	4602      	mov	r2, r0
 8005c46:	693b      	ldr	r3, [r7, #16]
 8005c48:	1ad3      	subs	r3, r2, r3
 8005c4a:	2b64      	cmp	r3, #100	; 0x64
 8005c4c:	d901      	bls.n	8005c52 <HAL_RCC_OscConfig+0xd2>
          {
            return HAL_TIMEOUT;
 8005c4e:	2303      	movs	r3, #3
 8005c50:	e207      	b.n	8006062 <HAL_RCC_OscConfig+0x4e2>
        while(__HAL_RCC_GET_FLAG(RCC_FLAG_HSERDY) == RESET)
 8005c52:	4b5b      	ldr	r3, [pc, #364]	; (8005dc0 <HAL_RCC_OscConfig+0x240>)
 8005c54:	681b      	ldr	r3, [r3, #0]
 8005c56:	f403 3300 	and.w	r3, r3, #131072	; 0x20000
 8005c5a:	2b00      	cmp	r3, #0
 8005c5c:	d0f0      	beq.n	8005c40 <HAL_RCC_OscConfig+0xc0>
 8005c5e:	e014      	b.n	8005c8a <HAL_RCC_OscConfig+0x10a>
        }
      }
      else
      {
        /* Get Start Tick */
        tickstart = HAL_GetTick();
 8005c60:	f7fd f974 	bl	8002f4c <HAL_GetTick>
 8005c64:	6138      	str	r0, [r7, #16]

        /* Wait till HSE is bypassed or disabled */
        while(__HAL_RCC_GET_FLAG(RCC_FLAG_HSERDY) != RESET)
 8005c66:	e008      	b.n	8005c7a <HAL_RCC_OscConfig+0xfa>
        {
          if((HAL_GetTick() - tickstart ) > HSE_TIMEOUT_VALUE)
 8005c68:	f7fd f970 	bl	8002f4c <HAL_GetTick>
 8005c6c:	4602      	mov	r2, r0
 8005c6e:	693b      	ldr	r3, [r7, #16]
 8005c70:	1ad3      	subs	r3, r2, r3
 8005c72:	2b64      	cmp	r3, #100	; 0x64
 8005c74:	d901      	bls.n	8005c7a <HAL_RCC_OscConfig+0xfa>
          {
            return HAL_TIMEOUT;
 8005c76:	2303      	movs	r3, #3
 8005c78:	e1f3      	b.n	8006062 <HAL_RCC_OscConfig+0x4e2>
        while(__HAL_RCC_GET_FLAG(RCC_FLAG_HSERDY) != RESET)
 8005c7a:	4b51      	ldr	r3, [pc, #324]	; (8005dc0 <HAL_RCC_OscConfig+0x240>)
 8005c7c:	681b      	ldr	r3, [r3, #0]
 8005c7e:	f403 3300 	and.w	r3, r3, #131072	; 0x20000
 8005c82:	2b00      	cmp	r3, #0
 8005c84:	d1f0      	bne.n	8005c68 <HAL_RCC_OscConfig+0xe8>
 8005c86:	e000      	b.n	8005c8a <HAL_RCC_OscConfig+0x10a>
      if((__HAL_RCC_GET_FLAG(RCC_FLAG_HSERDY) != RESET) && (RCC_OscInitStruct->HSEState == RCC_HSE_OFF))
 8005c88:	bf00      	nop
        }
      }
    }
  }
  /*----------------------------- HSI Configuration --------------------------*/
  if(((RCC_OscInitStruct->OscillatorType) & RCC_OSCILLATORTYPE_HSI) == RCC_OSCILLATORTYPE_HSI)
 8005c8a:	687b      	ldr	r3, [r7, #4]
 8005c8c:	681b      	ldr	r3, [r3, #0]
 8005c8e:	f003 0302 	and.w	r3, r3, #2
 8005c92:	2b00      	cmp	r3, #0
 8005c94:	d063      	beq.n	8005d5e <HAL_RCC_OscConfig+0x1de>
    /* Check the parameters */
    assert_param(IS_RCC_HSI(RCC_OscInitStruct->HSIState));
    assert_param(IS_RCC_CALIBRATION_VALUE(RCC_OscInitStruct->HSICalibrationValue));

    /* Check if HSI is used as system clock or as PLL source when PLL is selected as system clock */
    if((__HAL_RCC_GET_SYSCLK_SOURCE() == RCC_CFGR_SWS_HSI) ||\
 8005c96:	4b4a      	ldr	r3, [pc, #296]	; (8005dc0 <HAL_RCC_OscConfig+0x240>)
 8005c98:	689b      	ldr	r3, [r3, #8]
 8005c9a:	f003 030c 	and.w	r3, r3, #12
 8005c9e:	2b00      	cmp	r3, #0
 8005ca0:	d00b      	beq.n	8005cba <HAL_RCC_OscConfig+0x13a>
      ((__HAL_RCC_GET_SYSCLK_SOURCE() == RCC_CFGR_SWS_PLL) && ((RCC->PLLCFGR & RCC_PLLCFGR_PLLSRC) == RCC_PLLCFGR_PLLSRC_HSI)))
 8005ca2:	4b47      	ldr	r3, [pc, #284]	; (8005dc0 <HAL_RCC_OscConfig+0x240>)
 8005ca4:	689b      	ldr	r3, [r3, #8]
 8005ca6:	f003 030c 	and.w	r3, r3, #12
    if((__HAL_RCC_GET_SYSCLK_SOURCE() == RCC_CFGR_SWS_HSI) ||\
 8005caa:	2b08      	cmp	r3, #8
 8005cac:	d11c      	bne.n	8005ce8 <HAL_RCC_OscConfig+0x168>
      ((__HAL_RCC_GET_SYSCLK_SOURCE() == RCC_CFGR_SWS_PLL) && ((RCC->PLLCFGR & RCC_PLLCFGR_PLLSRC) == RCC_PLLCFGR_PLLSRC_HSI)))
 8005cae:	4b44      	ldr	r3, [pc, #272]	; (8005dc0 <HAL_RCC_OscConfig+0x240>)
 8005cb0:	685b      	ldr	r3, [r3, #4]
 8005cb2:	f403 0380 	and.w	r3, r3, #4194304	; 0x400000
 8005cb6:	2b00      	cmp	r3, #0
 8005cb8:	d116      	bne.n	8005ce8 <HAL_RCC_OscConfig+0x168>
    {
      /* When HSI is used as system clock it will not disabled */
      if((__HAL_RCC_GET_FLAG(RCC_FLAG_HSIRDY) != RESET) && (RCC_OscInitStruct->HSIState != RCC_HSI_ON))
 8005cba:	4b41      	ldr	r3, [pc, #260]	; (8005dc0 <HAL_RCC_OscConfig+0x240>)
 8005cbc:	681b      	ldr	r3, [r3, #0]
 8005cbe:	f003 0302 	and.w	r3, r3, #2
 8005cc2:	2b00      	cmp	r3, #0
 8005cc4:	d005      	beq.n	8005cd2 <HAL_RCC_OscConfig+0x152>
 8005cc6:	687b      	ldr	r3, [r7, #4]
 8005cc8:	68db      	ldr	r3, [r3, #12]
 8005cca:	2b01      	cmp	r3, #1
 8005ccc:	d001      	beq.n	8005cd2 <HAL_RCC_OscConfig+0x152>
      {
        return HAL_ERROR;
 8005cce:	2301      	movs	r3, #1
 8005cd0:	e1c7      	b.n	8006062 <HAL_RCC_OscConfig+0x4e2>
      }
      /* Otherwise, just the calibration is allowed */
      else
      {
        /* Adjusts the Internal High Speed oscillator (HSI) calibration value.*/
        __HAL_RCC_HSI_CALIBRATIONVALUE_ADJUST(RCC_OscInitStruct->HSICalibrationValue);
 8005cd2:	4b3b      	ldr	r3, [pc, #236]	; (8005dc0 <HAL_RCC_OscConfig+0x240>)
 8005cd4:	681b      	ldr	r3, [r3, #0]
 8005cd6:	f023 02f8 	bic.w	r2, r3, #248	; 0xf8
 8005cda:	687b      	ldr	r3, [r7, #4]
 8005cdc:	691b      	ldr	r3, [r3, #16]
 8005cde:	00db      	lsls	r3, r3, #3
 8005ce0:	4937      	ldr	r1, [pc, #220]	; (8005dc0 <HAL_RCC_OscConfig+0x240>)
 8005ce2:	4313      	orrs	r3, r2
 8005ce4:	600b      	str	r3, [r1, #0]
      if((__HAL_RCC_GET_FLAG(RCC_FLAG_HSIRDY) != RESET) && (RCC_OscInitStruct->HSIState != RCC_HSI_ON))
 8005ce6:	e03a      	b.n	8005d5e <HAL_RCC_OscConfig+0x1de>
      }
    }
    else
    {
      /* Check the HSI State */
      if((RCC_OscInitStruct->HSIState)!= RCC_HSI_OFF)
 8005ce8:	687b      	ldr	r3, [r7, #4]
 8005cea:	68db      	ldr	r3, [r3, #12]
 8005cec:	2b00      	cmp	r3, #0
 8005cee:	d020      	beq.n	8005d32 <HAL_RCC_OscConfig+0x1b2>
      {
        /* Enable the Internal High Speed oscillator (HSI). */
        __HAL_RCC_HSI_ENABLE();
 8005cf0:	4b34      	ldr	r3, [pc, #208]	; (8005dc4 <HAL_RCC_OscConfig+0x244>)
 8005cf2:	2201      	movs	r2, #1
 8005cf4:	601a      	str	r2, [r3, #0]

        /* Get Start Tick*/
        tickstart = HAL_GetTick();
 8005cf6:	f7fd f929 	bl	8002f4c <HAL_GetTick>
 8005cfa:	6138      	str	r0, [r7, #16]

        /* Wait till HSI is ready */
        while(__HAL_RCC_GET_FLAG(RCC_FLAG_HSIRDY) == RESET)
 8005cfc:	e008      	b.n	8005d10 <HAL_RCC_OscConfig+0x190>
        {
          if((HAL_GetTick() - tickstart ) > HSI_TIMEOUT_VALUE)
 8005cfe:	f7fd f925 	bl	8002f4c <HAL_GetTick>
 8005d02:	4602      	mov	r2, r0
 8005d04:	693b      	ldr	r3, [r7, #16]
 8005d06:	1ad3      	subs	r3, r2, r3
 8005d08:	2b02      	cmp	r3, #2
 8005d0a:	d901      	bls.n	8005d10 <HAL_RCC_OscConfig+0x190>
          {
            return HAL_TIMEOUT;
 8005d0c:	2303      	movs	r3, #3
 8005d0e:	e1a8      	b.n	8006062 <HAL_RCC_OscConfig+0x4e2>
        while(__HAL_RCC_GET_FLAG(RCC_FLAG_HSIRDY) == RESET)
 8005d10:	4b2b      	ldr	r3, [pc, #172]	; (8005dc0 <HAL_RCC_OscConfig+0x240>)
 8005d12:	681b      	ldr	r3, [r3, #0]
 8005d14:	f003 0302 	and.w	r3, r3, #2
 8005d18:	2b00      	cmp	r3, #0
 8005d1a:	d0f0      	beq.n	8005cfe <HAL_RCC_OscConfig+0x17e>
          }
        }

        /* Adjusts the Internal High Speed oscillator (HSI) calibration value. */
        __HAL_RCC_HSI_CALIBRATIONVALUE_ADJUST(RCC_OscInitStruct->HSICalibrationValue);
 8005d1c:	4b28      	ldr	r3, [pc, #160]	; (8005dc0 <HAL_RCC_OscConfig+0x240>)
 8005d1e:	681b      	ldr	r3, [r3, #0]
 8005d20:	f023 02f8 	bic.w	r2, r3, #248	; 0xf8
 8005d24:	687b      	ldr	r3, [r7, #4]
 8005d26:	691b      	ldr	r3, [r3, #16]
 8005d28:	00db      	lsls	r3, r3, #3
 8005d2a:	4925      	ldr	r1, [pc, #148]	; (8005dc0 <HAL_RCC_OscConfig+0x240>)
 8005d2c:	4313      	orrs	r3, r2
 8005d2e:	600b      	str	r3, [r1, #0]
 8005d30:	e015      	b.n	8005d5e <HAL_RCC_OscConfig+0x1de>
      }
      else
      {
        /* Disable the Internal High Speed oscillator (HSI). */
        __HAL_RCC_HSI_DISABLE();
 8005d32:	4b24      	ldr	r3, [pc, #144]	; (8005dc4 <HAL_RCC_OscConfig+0x244>)
 8005d34:	2200      	movs	r2, #0
 8005d36:	601a      	str	r2, [r3, #0]

        /* Get Start Tick*/
        tickstart = HAL_GetTick();
 8005d38:	f7fd f908 	bl	8002f4c <HAL_GetTick>
 8005d3c:	6138      	str	r0, [r7, #16]

        /* Wait till HSI is ready */
        while(__HAL_RCC_GET_FLAG(RCC_FLAG_HSIRDY) != RESET)
 8005d3e:	e008      	b.n	8005d52 <HAL_RCC_OscConfig+0x1d2>
        {
          if((HAL_GetTick() - tickstart ) > HSI_TIMEOUT_VALUE)
 8005d40:	f7fd f904 	bl	8002f4c <HAL_GetTick>
 8005d44:	4602      	mov	r2, r0
 8005d46:	693b      	ldr	r3, [r7, #16]
 8005d48:	1ad3      	subs	r3, r2, r3
 8005d4a:	2b02      	cmp	r3, #2
 8005d4c:	d901      	bls.n	8005d52 <HAL_RCC_OscConfig+0x1d2>
          {
            return HAL_TIMEOUT;
 8005d4e:	2303      	movs	r3, #3
 8005d50:	e187      	b.n	8006062 <HAL_RCC_OscConfig+0x4e2>
        while(__HAL_RCC_GET_FLAG(RCC_FLAG_HSIRDY) != RESET)
 8005d52:	4b1b      	ldr	r3, [pc, #108]	; (8005dc0 <HAL_RCC_OscConfig+0x240>)
 8005d54:	681b      	ldr	r3, [r3, #0]
 8005d56:	f003 0302 	and.w	r3, r3, #2
 8005d5a:	2b00      	cmp	r3, #0
 8005d5c:	d1f0      	bne.n	8005d40 <HAL_RCC_OscConfig+0x1c0>
        }
      }
    }
  }
  /*------------------------------ LSI Configuration -------------------------*/
  if(((RCC_OscInitStruct->OscillatorType) & RCC_OSCILLATORTYPE_LSI) == RCC_OSCILLATORTYPE_LSI)
 8005d5e:	687b      	ldr	r3, [r7, #4]
 8005d60:	681b      	ldr	r3, [r3, #0]
 8005d62:	f003 0308 	and.w	r3, r3, #8
 8005d66:	2b00      	cmp	r3, #0
 8005d68:	d036      	beq.n	8005dd8 <HAL_RCC_OscConfig+0x258>
  {
    /* Check the parameters */
    assert_param(IS_RCC_LSI(RCC_OscInitStruct->LSIState));

    /* Check the LSI State */
    if((RCC_OscInitStruct->LSIState)!= RCC_LSI_OFF)
 8005d6a:	687b      	ldr	r3, [r7, #4]
 8005d6c:	695b      	ldr	r3, [r3, #20]
 8005d6e:	2b00      	cmp	r3, #0
 8005d70:	d016      	beq.n	8005da0 <HAL_RCC_OscConfig+0x220>
    {
      /* Enable the Internal Low Speed oscillator (LSI). */
      __HAL_RCC_LSI_ENABLE();
 8005d72:	4b15      	ldr	r3, [pc, #84]	; (8005dc8 <HAL_RCC_OscConfig+0x248>)
 8005d74:	2201      	movs	r2, #1
 8005d76:	601a      	str	r2, [r3, #0]

      /* Get Start Tick*/
      tickstart = HAL_GetTick();
 8005d78:	f7fd f8e8 	bl	8002f4c <HAL_GetTick>
 8005d7c:	6138      	str	r0, [r7, #16]

      /* Wait till LSI is ready */
      while(__HAL_RCC_GET_FLAG(RCC_FLAG_LSIRDY) == RESET)
 8005d7e:	e008      	b.n	8005d92 <HAL_RCC_OscConfig+0x212>
      {
        if((HAL_GetTick() - tickstart ) > LSI_TIMEOUT_VALUE)
 8005d80:	f7fd f8e4 	bl	8002f4c <HAL_GetTick>
 8005d84:	4602      	mov	r2, r0
 8005d86:	693b      	ldr	r3, [r7, #16]
 8005d88:	1ad3      	subs	r3, r2, r3
 8005d8a:	2b02      	cmp	r3, #2
 8005d8c:	d901      	bls.n	8005d92 <HAL_RCC_OscConfig+0x212>
        {
          return HAL_TIMEOUT;
 8005d8e:	2303      	movs	r3, #3
 8005d90:	e167      	b.n	8006062 <HAL_RCC_OscConfig+0x4e2>
      while(__HAL_RCC_GET_FLAG(RCC_FLAG_LSIRDY) == RESET)
 8005d92:	4b0b      	ldr	r3, [pc, #44]	; (8005dc0 <HAL_RCC_OscConfig+0x240>)
 8005d94:	6f5b      	ldr	r3, [r3, #116]	; 0x74
 8005d96:	f003 0302 	and.w	r3, r3, #2
 8005d9a:	2b00      	cmp	r3, #0
 8005d9c:	d0f0      	beq.n	8005d80 <HAL_RCC_OscConfig+0x200>
 8005d9e:	e01b      	b.n	8005dd8 <HAL_RCC_OscConfig+0x258>
      }
    }
    else
    {
      /* Disable the Internal Low Speed oscillator (LSI). */
      __HAL_RCC_LSI_DISABLE();
 8005da0:	4b09      	ldr	r3, [pc, #36]	; (8005dc8 <HAL_RCC_OscConfig+0x248>)
 8005da2:	2200      	movs	r2, #0
 8005da4:	601a      	str	r2, [r3, #0]

      /* Get Start Tick */
      tickstart = HAL_GetTick();
 8005da6:	f7fd f8d1 	bl	8002f4c <HAL_GetTick>
 8005daa:	6138      	str	r0, [r7, #16]

      /* Wait till LSI is ready */
      while(__HAL_RCC_GET_FLAG(RCC_FLAG_LSIRDY) != RESET)
 8005dac:	e00e      	b.n	8005dcc <HAL_RCC_OscConfig+0x24c>
      {
        if((HAL_GetTick() - tickstart ) > LSI_TIMEOUT_VALUE)
 8005dae:	f7fd f8cd 	bl	8002f4c <HAL_GetTick>
 8005db2:	4602      	mov	r2, r0
 8005db4:	693b      	ldr	r3, [r7, #16]
 8005db6:	1ad3      	subs	r3, r2, r3
 8005db8:	2b02      	cmp	r3, #2
 8005dba:	d907      	bls.n	8005dcc <HAL_RCC_OscConfig+0x24c>
        {
          return HAL_TIMEOUT;
 8005dbc:	2303      	movs	r3, #3
 8005dbe:	e150      	b.n	8006062 <HAL_RCC_OscConfig+0x4e2>
 8005dc0:	40023800 	.word	0x40023800
 8005dc4:	42470000 	.word	0x42470000
 8005dc8:	42470e80 	.word	0x42470e80
      while(__HAL_RCC_GET_FLAG(RCC_FLAG_LSIRDY) != RESET)
 8005dcc:	4b88      	ldr	r3, [pc, #544]	; (8005ff0 <HAL_RCC_OscConfig+0x470>)
 8005dce:	6f5b      	ldr	r3, [r3, #116]	; 0x74
 8005dd0:	f003 0302 	and.w	r3, r3, #2
 8005dd4:	2b00      	cmp	r3, #0
 8005dd6:	d1ea      	bne.n	8005dae <HAL_RCC_OscConfig+0x22e>
        }
      }
    }
  }
  /*------------------------------ LSE Configuration -------------------------*/
  if(((RCC_OscInitStruct->OscillatorType) & RCC_OSCILLATORTYPE_LSE) == RCC_OSCILLATORTYPE_LSE)
 8005dd8:	687b      	ldr	r3, [r7, #4]
 8005dda:	681b      	ldr	r3, [r3, #0]
 8005ddc:	f003 0304 	and.w	r3, r3, #4
 8005de0:	2b00      	cmp	r3, #0
 8005de2:	f000 8097 	beq.w	8005f14 <HAL_RCC_OscConfig+0x394>
  {
    FlagStatus       pwrclkchanged = RESET;
 8005de6:	2300      	movs	r3, #0
 8005de8:	75fb      	strb	r3, [r7, #23]
    /* Check the parameters */
    assert_param(IS_RCC_LSE(RCC_OscInitStruct->LSEState));

    /* Update LSE configuration in Backup Domain control register    */
    /* Requires to enable write access to Backup Domain of necessary */
    if(__HAL_RCC_PWR_IS_CLK_DISABLED())
 8005dea:	4b81      	ldr	r3, [pc, #516]	; (8005ff0 <HAL_RCC_OscConfig+0x470>)
 8005dec:	6c1b      	ldr	r3, [r3, #64]	; 0x40
 8005dee:	f003 5380 	and.w	r3, r3, #268435456	; 0x10000000
 8005df2:	2b00      	cmp	r3, #0
 8005df4:	d10f      	bne.n	8005e16 <HAL_RCC_OscConfig+0x296>
    {
      __HAL_RCC_PWR_CLK_ENABLE();
 8005df6:	2300      	movs	r3, #0
 8005df8:	60bb      	str	r3, [r7, #8]
 8005dfa:	4b7d      	ldr	r3, [pc, #500]	; (8005ff0 <HAL_RCC_OscConfig+0x470>)
 8005dfc:	6c1b      	ldr	r3, [r3, #64]	; 0x40
 8005dfe:	4a7c      	ldr	r2, [pc, #496]	; (8005ff0 <HAL_RCC_OscConfig+0x470>)
 8005e00:	f043 5380 	orr.w	r3, r3, #268435456	; 0x10000000
 8005e04:	6413      	str	r3, [r2, #64]	; 0x40
 8005e06:	4b7a      	ldr	r3, [pc, #488]	; (8005ff0 <HAL_RCC_OscConfig+0x470>)
 8005e08:	6c1b      	ldr	r3, [r3, #64]	; 0x40
 8005e0a:	f003 5380 	and.w	r3, r3, #268435456	; 0x10000000
 8005e0e:	60bb      	str	r3, [r7, #8]
 8005e10:	68bb      	ldr	r3, [r7, #8]
      pwrclkchanged = SET;
 8005e12:	2301      	movs	r3, #1
 8005e14:	75fb      	strb	r3, [r7, #23]
    }

    if(HAL_IS_BIT_CLR(PWR->CR, PWR_CR_DBP))
 8005e16:	4b77      	ldr	r3, [pc, #476]	; (8005ff4 <HAL_RCC_OscConfig+0x474>)
 8005e18:	681b      	ldr	r3, [r3, #0]
 8005e1a:	f403 7380 	and.w	r3, r3, #256	; 0x100
 8005e1e:	2b00      	cmp	r3, #0
 8005e20:	d118      	bne.n	8005e54 <HAL_RCC_OscConfig+0x2d4>
    {
      /* Enable write access to Backup domain */
      SET_BIT(PWR->CR, PWR_CR_DBP);
 8005e22:	4b74      	ldr	r3, [pc, #464]	; (8005ff4 <HAL_RCC_OscConfig+0x474>)
 8005e24:	681b      	ldr	r3, [r3, #0]
 8005e26:	4a73      	ldr	r2, [pc, #460]	; (8005ff4 <HAL_RCC_OscConfig+0x474>)
 8005e28:	f443 7380 	orr.w	r3, r3, #256	; 0x100
 8005e2c:	6013      	str	r3, [r2, #0]

      /* Wait for Backup domain Write protection disable */
      tickstart = HAL_GetTick();
 8005e2e:	f7fd f88d 	bl	8002f4c <HAL_GetTick>
 8005e32:	6138      	str	r0, [r7, #16]

      while(HAL_IS_BIT_CLR(PWR->CR, PWR_CR_DBP))
 8005e34:	e008      	b.n	8005e48 <HAL_RCC_OscConfig+0x2c8>
      {
        if((HAL_GetTick() - tickstart) > RCC_DBP_TIMEOUT_VALUE)
 8005e36:	f7fd f889 	bl	8002f4c <HAL_GetTick>
 8005e3a:	4602      	mov	r2, r0
 8005e3c:	693b      	ldr	r3, [r7, #16]
 8005e3e:	1ad3      	subs	r3, r2, r3
 8005e40:	2b02      	cmp	r3, #2
 8005e42:	d901      	bls.n	8005e48 <HAL_RCC_OscConfig+0x2c8>
        {
          return HAL_TIMEOUT;
 8005e44:	2303      	movs	r3, #3
 8005e46:	e10c      	b.n	8006062 <HAL_RCC_OscConfig+0x4e2>
      while(HAL_IS_BIT_CLR(PWR->CR, PWR_CR_DBP))
 8005e48:	4b6a      	ldr	r3, [pc, #424]	; (8005ff4 <HAL_RCC_OscConfig+0x474>)
 8005e4a:	681b      	ldr	r3, [r3, #0]
 8005e4c:	f403 7380 	and.w	r3, r3, #256	; 0x100
 8005e50:	2b00      	cmp	r3, #0
 8005e52:	d0f0      	beq.n	8005e36 <HAL_RCC_OscConfig+0x2b6>
        }
      }
    }

    /* Set the new LSE configuration -----------------------------------------*/
    __HAL_RCC_LSE_CONFIG(RCC_OscInitStruct->LSEState);
 8005e54:	687b      	ldr	r3, [r7, #4]
 8005e56:	689b      	ldr	r3, [r3, #8]
 8005e58:	2b01      	cmp	r3, #1
 8005e5a:	d106      	bne.n	8005e6a <HAL_RCC_OscConfig+0x2ea>
 8005e5c:	4b64      	ldr	r3, [pc, #400]	; (8005ff0 <HAL_RCC_OscConfig+0x470>)
 8005e5e:	6f1b      	ldr	r3, [r3, #112]	; 0x70
 8005e60:	4a63      	ldr	r2, [pc, #396]	; (8005ff0 <HAL_RCC_OscConfig+0x470>)
 8005e62:	f043 0301 	orr.w	r3, r3, #1
 8005e66:	6713      	str	r3, [r2, #112]	; 0x70
 8005e68:	e01c      	b.n	8005ea4 <HAL_RCC_OscConfig+0x324>
 8005e6a:	687b      	ldr	r3, [r7, #4]
 8005e6c:	689b      	ldr	r3, [r3, #8]
 8005e6e:	2b05      	cmp	r3, #5
 8005e70:	d10c      	bne.n	8005e8c <HAL_RCC_OscConfig+0x30c>
 8005e72:	4b5f      	ldr	r3, [pc, #380]	; (8005ff0 <HAL_RCC_OscConfig+0x470>)
 8005e74:	6f1b      	ldr	r3, [r3, #112]	; 0x70
 8005e76:	4a5e      	ldr	r2, [pc, #376]	; (8005ff0 <HAL_RCC_OscConfig+0x470>)
 8005e78:	f043 0304 	orr.w	r3, r3, #4
 8005e7c:	6713      	str	r3, [r2, #112]	; 0x70
 8005e7e:	4b5c      	ldr	r3, [pc, #368]	; (8005ff0 <HAL_RCC_OscConfig+0x470>)
 8005e80:	6f1b      	ldr	r3, [r3, #112]	; 0x70
 8005e82:	4a5b      	ldr	r2, [pc, #364]	; (8005ff0 <HAL_RCC_OscConfig+0x470>)
 8005e84:	f043 0301 	orr.w	r3, r3, #1
 8005e88:	6713      	str	r3, [r2, #112]	; 0x70
 8005e8a:	e00b      	b.n	8005ea4 <HAL_RCC_OscConfig+0x324>
 8005e8c:	4b58      	ldr	r3, [pc, #352]	; (8005ff0 <HAL_RCC_OscConfig+0x470>)
 8005e8e:	6f1b      	ldr	r3, [r3, #112]	; 0x70
 8005e90:	4a57      	ldr	r2, [pc, #348]	; (8005ff0 <HAL_RCC_OscConfig+0x470>)
 8005e92:	f023 0301 	bic.w	r3, r3, #1
 8005e96:	6713      	str	r3, [r2, #112]	; 0x70
 8005e98:	4b55      	ldr	r3, [pc, #340]	; (8005ff0 <HAL_RCC_OscConfig+0x470>)
 8005e9a:	6f1b      	ldr	r3, [r3, #112]	; 0x70
 8005e9c:	4a54      	ldr	r2, [pc, #336]	; (8005ff0 <HAL_RCC_OscConfig+0x470>)
 8005e9e:	f023 0304 	bic.w	r3, r3, #4
 8005ea2:	6713      	str	r3, [r2, #112]	; 0x70
    /* Check the LSE State */
    if((RCC_OscInitStruct->LSEState) != RCC_LSE_OFF)
 8005ea4:	687b      	ldr	r3, [r7, #4]
 8005ea6:	689b      	ldr	r3, [r3, #8]
 8005ea8:	2b00      	cmp	r3, #0
 8005eaa:	d015      	beq.n	8005ed8 <HAL_RCC_OscConfig+0x358>
    {
      /* Get Start Tick*/
      tickstart = HAL_GetTick();
 8005eac:	f7fd f84e 	bl	8002f4c <HAL_GetTick>
 8005eb0:	6138      	str	r0, [r7, #16]

      /* Wait till LSE is ready */
      while(__HAL_RCC_GET_FLAG(RCC_FLAG_LSERDY) == RESET)
 8005eb2:	e00a      	b.n	8005eca <HAL_RCC_OscConfig+0x34a>
      {
        if((HAL_GetTick() - tickstart ) > RCC_LSE_TIMEOUT_VALUE)
 8005eb4:	f7fd f84a 	bl	8002f4c <HAL_GetTick>
 8005eb8:	4602      	mov	r2, r0
 8005eba:	693b      	ldr	r3, [r7, #16]
 8005ebc:	1ad3      	subs	r3, r2, r3
 8005ebe:	f241 3288 	movw	r2, #5000	; 0x1388
 8005ec2:	4293      	cmp	r3, r2
 8005ec4:	d901      	bls.n	8005eca <HAL_RCC_OscConfig+0x34a>
        {
          return HAL_TIMEOUT;
 8005ec6:	2303      	movs	r3, #3
 8005ec8:	e0cb      	b.n	8006062 <HAL_RCC_OscConfig+0x4e2>
      while(__HAL_RCC_GET_FLAG(RCC_FLAG_LSERDY) == RESET)
 8005eca:	4b49      	ldr	r3, [pc, #292]	; (8005ff0 <HAL_RCC_OscConfig+0x470>)
 8005ecc:	6f1b      	ldr	r3, [r3, #112]	; 0x70
 8005ece:	f003 0302 	and.w	r3, r3, #2
 8005ed2:	2b00      	cmp	r3, #0
 8005ed4:	d0ee      	beq.n	8005eb4 <HAL_RCC_OscConfig+0x334>
 8005ed6:	e014      	b.n	8005f02 <HAL_RCC_OscConfig+0x382>
      }
    }
    else
    {
      /* Get Start Tick */
      tickstart = HAL_GetTick();
 8005ed8:	f7fd f838 	bl	8002f4c <HAL_GetTick>
 8005edc:	6138      	str	r0, [r7, #16]

      /* Wait till LSE is ready */
      while(__HAL_RCC_GET_FLAG(RCC_FLAG_LSERDY) != RESET)
 8005ede:	e00a      	b.n	8005ef6 <HAL_RCC_OscConfig+0x376>
      {
        if((HAL_GetTick() - tickstart ) > RCC_LSE_TIMEOUT_VALUE)
 8005ee0:	f7fd f834 	bl	8002f4c <HAL_GetTick>
 8005ee4:	4602      	mov	r2, r0
 8005ee6:	693b      	ldr	r3, [r7, #16]
 8005ee8:	1ad3      	subs	r3, r2, r3
 8005eea:	f241 3288 	movw	r2, #5000	; 0x1388
 8005eee:	4293      	cmp	r3, r2
 8005ef0:	d901      	bls.n	8005ef6 <HAL_RCC_OscConfig+0x376>
        {
          return HAL_TIMEOUT;
 8005ef2:	2303      	movs	r3, #3
 8005ef4:	e0b5      	b.n	8006062 <HAL_RCC_OscConfig+0x4e2>
      while(__HAL_RCC_GET_FLAG(RCC_FLAG_LSERDY) != RESET)
 8005ef6:	4b3e      	ldr	r3, [pc, #248]	; (8005ff0 <HAL_RCC_OscConfig+0x470>)
 8005ef8:	6f1b      	ldr	r3, [r3, #112]	; 0x70
 8005efa:	f003 0302 	and.w	r3, r3, #2
 8005efe:	2b00      	cmp	r3, #0
 8005f00:	d1ee      	bne.n	8005ee0 <HAL_RCC_OscConfig+0x360>
        }
      }
    }

    /* Restore clock configuration if changed */
    if(pwrclkchanged == SET)
 8005f02:	7dfb      	ldrb	r3, [r7, #23]
 8005f04:	2b01      	cmp	r3, #1
 8005f06:	d105      	bne.n	8005f14 <HAL_RCC_OscConfig+0x394>
    {
      __HAL_RCC_PWR_CLK_DISABLE();
 8005f08:	4b39      	ldr	r3, [pc, #228]	; (8005ff0 <HAL_RCC_OscConfig+0x470>)
 8005f0a:	6c1b      	ldr	r3, [r3, #64]	; 0x40
 8005f0c:	4a38      	ldr	r2, [pc, #224]	; (8005ff0 <HAL_RCC_OscConfig+0x470>)
 8005f0e:	f023 5380 	bic.w	r3, r3, #268435456	; 0x10000000
 8005f12:	6413      	str	r3, [r2, #64]	; 0x40
    }
  }
  /*-------------------------------- PLL Configuration -----------------------*/
  /* Check the parameters */
  assert_param(IS_RCC_PLL(RCC_OscInitStruct->PLL.PLLState));
  if ((RCC_OscInitStruct->PLL.PLLState) != RCC_PLL_NONE)
 8005f14:	687b      	ldr	r3, [r7, #4]
 8005f16:	699b      	ldr	r3, [r3, #24]
 8005f18:	2b00      	cmp	r3, #0
 8005f1a:	f000 80a1 	beq.w	8006060 <HAL_RCC_OscConfig+0x4e0>
  {
    /* Check if the PLL is used as system clock or not */
    if(__HAL_RCC_GET_SYSCLK_SOURCE() != RCC_CFGR_SWS_PLL)
 8005f1e:	4b34      	ldr	r3, [pc, #208]	; (8005ff0 <HAL_RCC_OscConfig+0x470>)
 8005f20:	689b      	ldr	r3, [r3, #8]
 8005f22:	f003 030c 	and.w	r3, r3, #12
 8005f26:	2b08      	cmp	r3, #8
 8005f28:	d05c      	beq.n	8005fe4 <HAL_RCC_OscConfig+0x464>
    {
      if((RCC_OscInitStruct->PLL.PLLState) == RCC_PLL_ON)
 8005f2a:	687b      	ldr	r3, [r7, #4]
 8005f2c:	699b      	ldr	r3, [r3, #24]
 8005f2e:	2b02      	cmp	r3, #2
 8005f30:	d141      	bne.n	8005fb6 <HAL_RCC_OscConfig+0x436>
        assert_param(IS_RCC_PLLN_VALUE(RCC_OscInitStruct->PLL.PLLN));
        assert_param(IS_RCC_PLLP_VALUE(RCC_OscInitStruct->PLL.PLLP));
        assert_param(IS_RCC_PLLQ_VALUE(RCC_OscInitStruct->PLL.PLLQ));

        /* Disable the main PLL. */
        __HAL_RCC_PLL_DISABLE();
 8005f32:	4b31      	ldr	r3, [pc, #196]	; (8005ff8 <HAL_RCC_OscConfig+0x478>)
 8005f34:	2200      	movs	r2, #0
 8005f36:	601a      	str	r2, [r3, #0]

        /* Get Start Tick */
        tickstart = HAL_GetTick();
 8005f38:	f7fd f808 	bl	8002f4c <HAL_GetTick>
 8005f3c:	6138      	str	r0, [r7, #16]

        /* Wait till PLL is disabled */
        while(__HAL_RCC_GET_FLAG(RCC_FLAG_PLLRDY) != RESET)
 8005f3e:	e008      	b.n	8005f52 <HAL_RCC_OscConfig+0x3d2>
        {
          if((HAL_GetTick() - tickstart ) > PLL_TIMEOUT_VALUE)
 8005f40:	f7fd f804 	bl	8002f4c <HAL_GetTick>
 8005f44:	4602      	mov	r2, r0
 8005f46:	693b      	ldr	r3, [r7, #16]
 8005f48:	1ad3      	subs	r3, r2, r3
 8005f4a:	2b02      	cmp	r3, #2
 8005f4c:	d901      	bls.n	8005f52 <HAL_RCC_OscConfig+0x3d2>
          {
            return HAL_TIMEOUT;
 8005f4e:	2303      	movs	r3, #3
 8005f50:	e087      	b.n	8006062 <HAL_RCC_OscConfig+0x4e2>
        while(__HAL_RCC_GET_FLAG(RCC_FLAG_PLLRDY) != RESET)
 8005f52:	4b27      	ldr	r3, [pc, #156]	; (8005ff0 <HAL_RCC_OscConfig+0x470>)
 8005f54:	681b      	ldr	r3, [r3, #0]
 8005f56:	f003 7300 	and.w	r3, r3, #33554432	; 0x2000000
 8005f5a:	2b00      	cmp	r3, #0
 8005f5c:	d1f0      	bne.n	8005f40 <HAL_RCC_OscConfig+0x3c0>
          }
        }

        /* Configure the main PLL clock source, multiplication and division factors. */
        WRITE_REG(RCC->PLLCFGR, (RCC_OscInitStruct->PLL.PLLSource                                            | \
 8005f5e:	687b      	ldr	r3, [r7, #4]
 8005f60:	69da      	ldr	r2, [r3, #28]
 8005f62:	687b      	ldr	r3, [r7, #4]
 8005f64:	6a1b      	ldr	r3, [r3, #32]
 8005f66:	431a      	orrs	r2, r3
 8005f68:	687b      	ldr	r3, [r7, #4]
 8005f6a:	6a5b      	ldr	r3, [r3, #36]	; 0x24
 8005f6c:	019b      	lsls	r3, r3, #6
 8005f6e:	431a      	orrs	r2, r3
 8005f70:	687b      	ldr	r3, [r7, #4]
 8005f72:	6a9b      	ldr	r3, [r3, #40]	; 0x28
 8005f74:	085b      	lsrs	r3, r3, #1
 8005f76:	3b01      	subs	r3, #1
 8005f78:	041b      	lsls	r3, r3, #16
 8005f7a:	431a      	orrs	r2, r3
 8005f7c:	687b      	ldr	r3, [r7, #4]
 8005f7e:	6adb      	ldr	r3, [r3, #44]	; 0x2c
 8005f80:	061b      	lsls	r3, r3, #24
 8005f82:	491b      	ldr	r1, [pc, #108]	; (8005ff0 <HAL_RCC_OscConfig+0x470>)
 8005f84:	4313      	orrs	r3, r2
 8005f86:	604b      	str	r3, [r1, #4]
                                 RCC_OscInitStruct->PLL.PLLM                                                 | \
                                 (RCC_OscInitStruct->PLL.PLLN << RCC_PLLCFGR_PLLN_Pos)             | \
                                 (((RCC_OscInitStruct->PLL.PLLP >> 1U) - 1U) << RCC_PLLCFGR_PLLP_Pos) | \
                                 (RCC_OscInitStruct->PLL.PLLQ << RCC_PLLCFGR_PLLQ_Pos)));
        /* Enable the main PLL. */
        __HAL_RCC_PLL_ENABLE();
 8005f88:	4b1b      	ldr	r3, [pc, #108]	; (8005ff8 <HAL_RCC_OscConfig+0x478>)
 8005f8a:	2201      	movs	r2, #1
 8005f8c:	601a      	str	r2, [r3, #0]

        /* Get Start Tick */
        tickstart = HAL_GetTick();
 8005f8e:	f7fc ffdd 	bl	8002f4c <HAL_GetTick>
 8005f92:	6138      	str	r0, [r7, #16]

        /* Wait till PLL is ready */
        while(__HAL_RCC_GET_FLAG(RCC_FLAG_PLLRDY) == RESET)
 8005f94:	e008      	b.n	8005fa8 <HAL_RCC_OscConfig+0x428>
        {
          if((HAL_GetTick() - tickstart ) > PLL_TIMEOUT_VALUE)
 8005f96:	f7fc ffd9 	bl	8002f4c <HAL_GetTick>
 8005f9a:	4602      	mov	r2, r0
 8005f9c:	693b      	ldr	r3, [r7, #16]
 8005f9e:	1ad3      	subs	r3, r2, r3
 8005fa0:	2b02      	cmp	r3, #2
 8005fa2:	d901      	bls.n	8005fa8 <HAL_RCC_OscConfig+0x428>
          {
            return HAL_TIMEOUT;
 8005fa4:	2303      	movs	r3, #3
 8005fa6:	e05c      	b.n	8006062 <HAL_RCC_OscConfig+0x4e2>
        while(__HAL_RCC_GET_FLAG(RCC_FLAG_PLLRDY) == RESET)
 8005fa8:	4b11      	ldr	r3, [pc, #68]	; (8005ff0 <HAL_RCC_OscConfig+0x470>)
 8005faa:	681b      	ldr	r3, [r3, #0]
 8005fac:	f003 7300 	and.w	r3, r3, #33554432	; 0x2000000
 8005fb0:	2b00      	cmp	r3, #0
 8005fb2:	d0f0      	beq.n	8005f96 <HAL_RCC_OscConfig+0x416>
 8005fb4:	e054      	b.n	8006060 <HAL_RCC_OscConfig+0x4e0>
        }
      }
      else
      {
        /* Disable the main PLL. */
        __HAL_RCC_PLL_DISABLE();
 8005fb6:	4b10      	ldr	r3, [pc, #64]	; (8005ff8 <HAL_RCC_OscConfig+0x478>)
 8005fb8:	2200      	movs	r2, #0
 8005fba:	601a      	str	r2, [r3, #0]

        /* Get Start Tick */
        tickstart = HAL_GetTick();
 8005fbc:	f7fc ffc6 	bl	8002f4c <HAL_GetTick>
 8005fc0:	6138      	str	r0, [r7, #16]

        /* Wait till PLL is disabled */
        while(__HAL_RCC_GET_FLAG(RCC_FLAG_PLLRDY) != RESET)
 8005fc2:	e008      	b.n	8005fd6 <HAL_RCC_OscConfig+0x456>
        {
          if((HAL_GetTick() - tickstart ) > PLL_TIMEOUT_VALUE)
 8005fc4:	f7fc ffc2 	bl	8002f4c <HAL_GetTick>
 8005fc8:	4602      	mov	r2, r0
 8005fca:	693b      	ldr	r3, [r7, #16]
 8005fcc:	1ad3      	subs	r3, r2, r3
 8005fce:	2b02      	cmp	r3, #2
 8005fd0:	d901      	bls.n	8005fd6 <HAL_RCC_OscConfig+0x456>
          {
            return HAL_TIMEOUT;
 8005fd2:	2303      	movs	r3, #3
 8005fd4:	e045      	b.n	8006062 <HAL_RCC_OscConfig+0x4e2>
        while(__HAL_RCC_GET_FLAG(RCC_FLAG_PLLRDY) != RESET)
 8005fd6:	4b06      	ldr	r3, [pc, #24]	; (8005ff0 <HAL_RCC_OscConfig+0x470>)
 8005fd8:	681b      	ldr	r3, [r3, #0]
 8005fda:	f003 7300 	and.w	r3, r3, #33554432	; 0x2000000
 8005fde:	2b00      	cmp	r3, #0
 8005fe0:	d1f0      	bne.n	8005fc4 <HAL_RCC_OscConfig+0x444>
 8005fe2:	e03d      	b.n	8006060 <HAL_RCC_OscConfig+0x4e0>
      }
    }
    else
    {
      /* Check if there is a request to disable the PLL used as System clock source */
      if((RCC_OscInitStruct->PLL.PLLState) == RCC_PLL_OFF)
 8005fe4:	687b      	ldr	r3, [r7, #4]
 8005fe6:	699b      	ldr	r3, [r3, #24]
 8005fe8:	2b01      	cmp	r3, #1
 8005fea:	d107      	bne.n	8005ffc <HAL_RCC_OscConfig+0x47c>
      {
        return HAL_ERROR;
 8005fec:	2301      	movs	r3, #1
 8005fee:	e038      	b.n	8006062 <HAL_RCC_OscConfig+0x4e2>
 8005ff0:	40023800 	.word	0x40023800
 8005ff4:	40007000 	.word	0x40007000
 8005ff8:	42470060 	.word	0x42470060
      }
      else
      {
        /* Do not return HAL_ERROR if request repeats the current configuration */
        pll_config = RCC->PLLCFGR;
 8005ffc:	4b1b      	ldr	r3, [pc, #108]	; (800606c <HAL_RCC_OscConfig+0x4ec>)
 8005ffe:	685b      	ldr	r3, [r3, #4]
 8006000:	60fb      	str	r3, [r7, #12]
            (READ_BIT(pll_config, RCC_PLLCFGR_PLLN) != (RCC_OscInitStruct->PLL.PLLN) << RCC_PLLCFGR_PLLN_Pos) ||
            (READ_BIT(pll_config, RCC_PLLCFGR_PLLP) != (((RCC_OscInitStruct->PLL.PLLP >> 1U) - 1U)) << RCC_PLLCFGR_PLLP_Pos) ||
            (READ_BIT(pll_config, RCC_PLLCFGR_PLLQ) != (RCC_OscInitStruct->PLL.PLLQ << RCC_PLLCFGR_PLLQ_Pos)) ||
            (READ_BIT(pll_config, RCC_PLLCFGR_PLLR) != (RCC_OscInitStruct->PLL.PLLR << RCC_PLLCFGR_PLLR_Pos)))
#else
        if (((RCC_OscInitStruct->PLL.PLLState) == RCC_PLL_OFF) ||
 8006002:	687b      	ldr	r3, [r7, #4]
 8006004:	699b      	ldr	r3, [r3, #24]
 8006006:	2b01      	cmp	r3, #1
 8006008:	d028      	beq.n	800605c <HAL_RCC_OscConfig+0x4dc>
            (READ_BIT(pll_config, RCC_PLLCFGR_PLLSRC) != RCC_OscInitStruct->PLL.PLLSource) ||
 800600a:	68fb      	ldr	r3, [r7, #12]
 800600c:	f403 0280 	and.w	r2, r3, #4194304	; 0x400000
 8006010:	687b      	ldr	r3, [r7, #4]
 8006012:	69db      	ldr	r3, [r3, #28]
        if (((RCC_OscInitStruct->PLL.PLLState) == RCC_PLL_OFF) ||
 8006014:	429a      	cmp	r2, r3
 8006016:	d121      	bne.n	800605c <HAL_RCC_OscConfig+0x4dc>
            (READ_BIT(pll_config, RCC_PLLCFGR_PLLM) != (RCC_OscInitStruct->PLL.PLLM) << RCC_PLLCFGR_PLLM_Pos) ||
 8006018:	68fb      	ldr	r3, [r7, #12]
 800601a:	f003 023f 	and.w	r2, r3, #63	; 0x3f
 800601e:	687b      	ldr	r3, [r7, #4]
 8006020:	6a1b      	ldr	r3, [r3, #32]
            (READ_BIT(pll_config, RCC_PLLCFGR_PLLSRC) != RCC_OscInitStruct->PLL.PLLSource) ||
 8006022:	429a      	cmp	r2, r3
 8006024:	d11a      	bne.n	800605c <HAL_RCC_OscConfig+0x4dc>
            (READ_BIT(pll_config, RCC_PLLCFGR_PLLN) != (RCC_OscInitStruct->PLL.PLLN) << RCC_PLLCFGR_PLLN_Pos) ||
 8006026:	68fa      	ldr	r2, [r7, #12]
 8006028:	f647 73c0 	movw	r3, #32704	; 0x7fc0
 800602c:	4013      	ands	r3, r2
 800602e:	687a      	ldr	r2, [r7, #4]
 8006030:	6a52      	ldr	r2, [r2, #36]	; 0x24
 8006032:	0192      	lsls	r2, r2, #6
            (READ_BIT(pll_config, RCC_PLLCFGR_PLLM) != (RCC_OscInitStruct->PLL.PLLM) << RCC_PLLCFGR_PLLM_Pos) ||
 8006034:	4293      	cmp	r3, r2
 8006036:	d111      	bne.n	800605c <HAL_RCC_OscConfig+0x4dc>
            (READ_BIT(pll_config, RCC_PLLCFGR_PLLP) != (((RCC_OscInitStruct->PLL.PLLP >> 1U) - 1U)) << RCC_PLLCFGR_PLLP_Pos) ||
 8006038:	68fb      	ldr	r3, [r7, #12]
 800603a:	f403 3240 	and.w	r2, r3, #196608	; 0x30000
 800603e:	687b      	ldr	r3, [r7, #4]
 8006040:	6a9b      	ldr	r3, [r3, #40]	; 0x28
 8006042:	085b      	lsrs	r3, r3, #1
 8006044:	3b01      	subs	r3, #1
 8006046:	041b      	lsls	r3, r3, #16
            (READ_BIT(pll_config, RCC_PLLCFGR_PLLN) != (RCC_OscInitStruct->PLL.PLLN) << RCC_PLLCFGR_PLLN_Pos) ||
 8006048:	429a      	cmp	r2, r3
 800604a:	d107      	bne.n	800605c <HAL_RCC_OscConfig+0x4dc>
            (READ_BIT(pll_config, RCC_PLLCFGR_PLLQ) != (RCC_OscInitStruct->PLL.PLLQ << RCC_PLLCFGR_PLLQ_Pos)))
 800604c:	68fb      	ldr	r3, [r7, #12]
 800604e:	f003 6270 	and.w	r2, r3, #251658240	; 0xf000000
 8006052:	687b      	ldr	r3, [r7, #4]
 8006054:	6adb      	ldr	r3, [r3, #44]	; 0x2c
 8006056:	061b      	lsls	r3, r3, #24
            (READ_BIT(pll_config, RCC_PLLCFGR_PLLP) != (((RCC_OscInitStruct->PLL.PLLP >> 1U) - 1U)) << RCC_PLLCFGR_PLLP_Pos) ||
 8006058:	429a      	cmp	r2, r3
 800605a:	d001      	beq.n	8006060 <HAL_RCC_OscConfig+0x4e0>
#endif
        {
          return HAL_ERROR;
 800605c:	2301      	movs	r3, #1
 800605e:	e000      	b.n	8006062 <HAL_RCC_OscConfig+0x4e2>
        }
      }
    }
  }
  return HAL_OK;
 8006060:	2300      	movs	r3, #0
}
 8006062:	4618      	mov	r0, r3
 8006064:	3718      	adds	r7, #24
 8006066:	46bd      	mov	sp, r7
 8006068:	bd80      	pop	{r7, pc}
 800606a:	bf00      	nop
 800606c:	40023800 	.word	0x40023800

08006070 <HAL_RCC_ClockConfig>:
  *         HPRE[3:0] bits to ensure that HCLK not exceed the maximum allowed frequency
  *         (for more details refer to section above "Initialization/de-initialization functions")
  * @retval None
  */
HAL_StatusTypeDef HAL_RCC_ClockConfig(RCC_ClkInitTypeDef  *RCC_ClkInitStruct, uint32_t FLatency)
{
 8006070:	b580      	push	{r7, lr}
 8006072:	b084      	sub	sp, #16
 8006074:	af00      	add	r7, sp, #0
 8006076:	6078      	str	r0, [r7, #4]
 8006078:	6039      	str	r1, [r7, #0]
  uint32_t tickstart;

  /* Check Null pointer */
  if(RCC_ClkInitStruct == NULL)
 800607a:	687b      	ldr	r3, [r7, #4]
 800607c:	2b00      	cmp	r3, #0
 800607e:	d101      	bne.n	8006084 <HAL_RCC_ClockConfig+0x14>
  {
    return HAL_ERROR;
 8006080:	2301      	movs	r3, #1
 8006082:	e0cc      	b.n	800621e <HAL_RCC_ClockConfig+0x1ae>
  /* To correctly read data from FLASH memory, the number of wait states (LATENCY)
    must be correctly programmed according to the frequency of the CPU clock
    (HCLK) and the supply voltage of the device. */

  /* Increasing the number of wait states because of higher CPU frequency */
  if(FLatency > __HAL_FLASH_GET_LATENCY())
 8006084:	4b68      	ldr	r3, [pc, #416]	; (8006228 <HAL_RCC_ClockConfig+0x1b8>)
 8006086:	681b      	ldr	r3, [r3, #0]
 8006088:	f003 030f 	and.w	r3, r3, #15
 800608c:	683a      	ldr	r2, [r7, #0]
 800608e:	429a      	cmp	r2, r3
 8006090:	d90c      	bls.n	80060ac <HAL_RCC_ClockConfig+0x3c>
  {
    /* Program the new number of wait states to the LATENCY bits in the FLASH_ACR register */
    __HAL_FLASH_SET_LATENCY(FLatency);
 8006092:	4b65      	ldr	r3, [pc, #404]	; (8006228 <HAL_RCC_ClockConfig+0x1b8>)
 8006094:	683a      	ldr	r2, [r7, #0]
 8006096:	b2d2      	uxtb	r2, r2
 8006098:	701a      	strb	r2, [r3, #0]

    /* Check that the new number of wait states is taken into account to access the Flash
    memory by reading the FLASH_ACR register */
    if(__HAL_FLASH_GET_LATENCY() != FLatency)
 800609a:	4b63      	ldr	r3, [pc, #396]	; (8006228 <HAL_RCC_ClockConfig+0x1b8>)
 800609c:	681b      	ldr	r3, [r3, #0]
 800609e:	f003 030f 	and.w	r3, r3, #15
 80060a2:	683a      	ldr	r2, [r7, #0]
 80060a4:	429a      	cmp	r2, r3
 80060a6:	d001      	beq.n	80060ac <HAL_RCC_ClockConfig+0x3c>
    {
      return HAL_ERROR;
 80060a8:	2301      	movs	r3, #1
 80060aa:	e0b8      	b.n	800621e <HAL_RCC_ClockConfig+0x1ae>
    }
  }

  /*-------------------------- HCLK Configuration --------------------------*/
  if(((RCC_ClkInitStruct->ClockType) & RCC_CLOCKTYPE_HCLK) == RCC_CLOCKTYPE_HCLK)
 80060ac:	687b      	ldr	r3, [r7, #4]
 80060ae:	681b      	ldr	r3, [r3, #0]
 80060b0:	f003 0302 	and.w	r3, r3, #2
 80060b4:	2b00      	cmp	r3, #0
 80060b6:	d020      	beq.n	80060fa <HAL_RCC_ClockConfig+0x8a>
  {
    /* Set the highest APBx dividers in order to ensure that we do not go through
       a non-spec phase whatever we decrease or increase HCLK. */
    if(((RCC_ClkInitStruct->ClockType) & RCC_CLOCKTYPE_PCLK1) == RCC_CLOCKTYPE_PCLK1)
 80060b8:	687b      	ldr	r3, [r7, #4]
 80060ba:	681b      	ldr	r3, [r3, #0]
 80060bc:	f003 0304 	and.w	r3, r3, #4
 80060c0:	2b00      	cmp	r3, #0
 80060c2:	d005      	beq.n	80060d0 <HAL_RCC_ClockConfig+0x60>
    {
      MODIFY_REG(RCC->CFGR, RCC_CFGR_PPRE1, RCC_HCLK_DIV16);
 80060c4:	4b59      	ldr	r3, [pc, #356]	; (800622c <HAL_RCC_ClockConfig+0x1bc>)
 80060c6:	689b      	ldr	r3, [r3, #8]
 80060c8:	4a58      	ldr	r2, [pc, #352]	; (800622c <HAL_RCC_ClockConfig+0x1bc>)
 80060ca:	f443 53e0 	orr.w	r3, r3, #7168	; 0x1c00
 80060ce:	6093      	str	r3, [r2, #8]
    }

    if(((RCC_ClkInitStruct->ClockType) & RCC_CLOCKTYPE_PCLK2) == RCC_CLOCKTYPE_PCLK2)
 80060d0:	687b      	ldr	r3, [r7, #4]
 80060d2:	681b      	ldr	r3, [r3, #0]
 80060d4:	f003 0308 	and.w	r3, r3, #8
 80060d8:	2b00      	cmp	r3, #0
 80060da:	d005      	beq.n	80060e8 <HAL_RCC_ClockConfig+0x78>
    {
      MODIFY_REG(RCC->CFGR, RCC_CFGR_PPRE2, (RCC_HCLK_DIV16 << 3));
 80060dc:	4b53      	ldr	r3, [pc, #332]	; (800622c <HAL_RCC_ClockConfig+0x1bc>)
 80060de:	689b      	ldr	r3, [r3, #8]
 80060e0:	4a52      	ldr	r2, [pc, #328]	; (800622c <HAL_RCC_ClockConfig+0x1bc>)
 80060e2:	f443 4360 	orr.w	r3, r3, #57344	; 0xe000
 80060e6:	6093      	str	r3, [r2, #8]
    }

    assert_param(IS_RCC_HCLK(RCC_ClkInitStruct->AHBCLKDivider));
    MODIFY_REG(RCC->CFGR, RCC_CFGR_HPRE, RCC_ClkInitStruct->AHBCLKDivider);
 80060e8:	4b50      	ldr	r3, [pc, #320]	; (800622c <HAL_RCC_ClockConfig+0x1bc>)
 80060ea:	689b      	ldr	r3, [r3, #8]
 80060ec:	f023 02f0 	bic.w	r2, r3, #240	; 0xf0
 80060f0:	687b      	ldr	r3, [r7, #4]
 80060f2:	689b      	ldr	r3, [r3, #8]
 80060f4:	494d      	ldr	r1, [pc, #308]	; (800622c <HAL_RCC_ClockConfig+0x1bc>)
 80060f6:	4313      	orrs	r3, r2
 80060f8:	608b      	str	r3, [r1, #8]
  }

  /*------------------------- SYSCLK Configuration ---------------------------*/
  if(((RCC_ClkInitStruct->ClockType) & RCC_CLOCKTYPE_SYSCLK) == RCC_CLOCKTYPE_SYSCLK)
 80060fa:	687b      	ldr	r3, [r7, #4]
 80060fc:	681b      	ldr	r3, [r3, #0]
 80060fe:	f003 0301 	and.w	r3, r3, #1
 8006102:	2b00      	cmp	r3, #0
 8006104:	d044      	beq.n	8006190 <HAL_RCC_ClockConfig+0x120>
  {
    assert_param(IS_RCC_SYSCLKSOURCE(RCC_ClkInitStruct->SYSCLKSource));

    /* HSE is selected as System Clock Source */
    if(RCC_ClkInitStruct->SYSCLKSource == RCC_SYSCLKSOURCE_HSE)
 8006106:	687b      	ldr	r3, [r7, #4]
 8006108:	685b      	ldr	r3, [r3, #4]
 800610a:	2b01      	cmp	r3, #1
 800610c:	d107      	bne.n	800611e <HAL_RCC_ClockConfig+0xae>
    {
      /* Check the HSE ready flag */
      if(__HAL_RCC_GET_FLAG(RCC_FLAG_HSERDY) == RESET)
 800610e:	4b47      	ldr	r3, [pc, #284]	; (800622c <HAL_RCC_ClockConfig+0x1bc>)
 8006110:	681b      	ldr	r3, [r3, #0]
 8006112:	f403 3300 	and.w	r3, r3, #131072	; 0x20000
 8006116:	2b00      	cmp	r3, #0
 8006118:	d119      	bne.n	800614e <HAL_RCC_ClockConfig+0xde>
      {
        return HAL_ERROR;
 800611a:	2301      	movs	r3, #1
 800611c:	e07f      	b.n	800621e <HAL_RCC_ClockConfig+0x1ae>
      }
    }
    /* PLL is selected as System Clock Source */
    else if((RCC_ClkInitStruct->SYSCLKSource == RCC_SYSCLKSOURCE_PLLCLK)   ||
 800611e:	687b      	ldr	r3, [r7, #4]
 8006120:	685b      	ldr	r3, [r3, #4]
 8006122:	2b02      	cmp	r3, #2
 8006124:	d003      	beq.n	800612e <HAL_RCC_ClockConfig+0xbe>
            (RCC_ClkInitStruct->SYSCLKSource == RCC_SYSCLKSOURCE_PLLRCLK))
 8006126:	687b      	ldr	r3, [r7, #4]
 8006128:	685b      	ldr	r3, [r3, #4]
    else if((RCC_ClkInitStruct->SYSCLKSource == RCC_SYSCLKSOURCE_PLLCLK)   ||
 800612a:	2b03      	cmp	r3, #3
 800612c:	d107      	bne.n	800613e <HAL_RCC_ClockConfig+0xce>
    {
      /* Check the PLL ready flag */
      if(__HAL_RCC_GET_FLAG(RCC_FLAG_PLLRDY) == RESET)
 800612e:	4b3f      	ldr	r3, [pc, #252]	; (800622c <HAL_RCC_ClockConfig+0x1bc>)
 8006130:	681b      	ldr	r3, [r3, #0]
 8006132:	f003 7300 	and.w	r3, r3, #33554432	; 0x2000000
 8006136:	2b00      	cmp	r3, #0
 8006138:	d109      	bne.n	800614e <HAL_RCC_ClockConfig+0xde>
      {
        return HAL_ERROR;
 800613a:	2301      	movs	r3, #1
 800613c:	e06f      	b.n	800621e <HAL_RCC_ClockConfig+0x1ae>
    }
    /* HSI is selected as System Clock Source */
    else
    {
      /* Check the HSI ready flag */
      if(__HAL_RCC_GET_FLAG(RCC_FLAG_HSIRDY) == RESET)
 800613e:	4b3b      	ldr	r3, [pc, #236]	; (800622c <HAL_RCC_ClockConfig+0x1bc>)
 8006140:	681b      	ldr	r3, [r3, #0]
 8006142:	f003 0302 	and.w	r3, r3, #2
 8006146:	2b00      	cmp	r3, #0
 8006148:	d101      	bne.n	800614e <HAL_RCC_ClockConfig+0xde>
      {
        return HAL_ERROR;
 800614a:	2301      	movs	r3, #1
 800614c:	e067      	b.n	800621e <HAL_RCC_ClockConfig+0x1ae>
      }
    }

    __HAL_RCC_SYSCLK_CONFIG(RCC_ClkInitStruct->SYSCLKSource);
 800614e:	4b37      	ldr	r3, [pc, #220]	; (800622c <HAL_RCC_ClockConfig+0x1bc>)
 8006150:	689b      	ldr	r3, [r3, #8]
 8006152:	f023 0203 	bic.w	r2, r3, #3
 8006156:	687b      	ldr	r3, [r7, #4]
 8006158:	685b      	ldr	r3, [r3, #4]
 800615a:	4934      	ldr	r1, [pc, #208]	; (800622c <HAL_RCC_ClockConfig+0x1bc>)
 800615c:	4313      	orrs	r3, r2
 800615e:	608b      	str	r3, [r1, #8]

    /* Get Start Tick */
    tickstart = HAL_GetTick();
 8006160:	f7fc fef4 	bl	8002f4c <HAL_GetTick>
 8006164:	60f8      	str	r0, [r7, #12]

    while (__HAL_RCC_GET_SYSCLK_SOURCE() != (RCC_ClkInitStruct->SYSCLKSource << RCC_CFGR_SWS_Pos))
 8006166:	e00a      	b.n	800617e <HAL_RCC_ClockConfig+0x10e>
    {
      if ((HAL_GetTick() - tickstart) > CLOCKSWITCH_TIMEOUT_VALUE)
 8006168:	f7fc fef0 	bl	8002f4c <HAL_GetTick>
 800616c:	4602      	mov	r2, r0
 800616e:	68fb      	ldr	r3, [r7, #12]
 8006170:	1ad3      	subs	r3, r2, r3
 8006172:	f241 3288 	movw	r2, #5000	; 0x1388
 8006176:	4293      	cmp	r3, r2
 8006178:	d901      	bls.n	800617e <HAL_RCC_ClockConfig+0x10e>
      {
        return HAL_TIMEOUT;
 800617a:	2303      	movs	r3, #3
 800617c:	e04f      	b.n	800621e <HAL_RCC_ClockConfig+0x1ae>
    while (__HAL_RCC_GET_SYSCLK_SOURCE() != (RCC_ClkInitStruct->SYSCLKSource << RCC_CFGR_SWS_Pos))
 800617e:	4b2b      	ldr	r3, [pc, #172]	; (800622c <HAL_RCC_ClockConfig+0x1bc>)
 8006180:	689b      	ldr	r3, [r3, #8]
 8006182:	f003 020c 	and.w	r2, r3, #12
 8006186:	687b      	ldr	r3, [r7, #4]
 8006188:	685b      	ldr	r3, [r3, #4]
 800618a:	009b      	lsls	r3, r3, #2
 800618c:	429a      	cmp	r2, r3
 800618e:	d1eb      	bne.n	8006168 <HAL_RCC_ClockConfig+0xf8>
      }
    }
  }

  /* Decreasing the number of wait states because of lower CPU frequency */
  if(FLatency < __HAL_FLASH_GET_LATENCY())
 8006190:	4b25      	ldr	r3, [pc, #148]	; (8006228 <HAL_RCC_ClockConfig+0x1b8>)
 8006192:	681b      	ldr	r3, [r3, #0]
 8006194:	f003 030f 	and.w	r3, r3, #15
 8006198:	683a      	ldr	r2, [r7, #0]
 800619a:	429a      	cmp	r2, r3
 800619c:	d20c      	bcs.n	80061b8 <HAL_RCC_ClockConfig+0x148>
  {
     /* Program the new number of wait states to the LATENCY bits in the FLASH_ACR register */
    __HAL_FLASH_SET_LATENCY(FLatency);
 800619e:	4b22      	ldr	r3, [pc, #136]	; (8006228 <HAL_RCC_ClockConfig+0x1b8>)
 80061a0:	683a      	ldr	r2, [r7, #0]
 80061a2:	b2d2      	uxtb	r2, r2
 80061a4:	701a      	strb	r2, [r3, #0]

    /* Check that the new number of wait states is taken into account to access the Flash
    memory by reading the FLASH_ACR register */
    if(__HAL_FLASH_GET_LATENCY() != FLatency)
 80061a6:	4b20      	ldr	r3, [pc, #128]	; (8006228 <HAL_RCC_ClockConfig+0x1b8>)
 80061a8:	681b      	ldr	r3, [r3, #0]
 80061aa:	f003 030f 	and.w	r3, r3, #15
 80061ae:	683a      	ldr	r2, [r7, #0]
 80061b0:	429a      	cmp	r2, r3
 80061b2:	d001      	beq.n	80061b8 <HAL_RCC_ClockConfig+0x148>
    {
      return HAL_ERROR;
 80061b4:	2301      	movs	r3, #1
 80061b6:	e032      	b.n	800621e <HAL_RCC_ClockConfig+0x1ae>
    }
  }

  /*-------------------------- PCLK1 Configuration ---------------------------*/
  if(((RCC_ClkInitStruct->ClockType) & RCC_CLOCKTYPE_PCLK1) == RCC_CLOCKTYPE_PCLK1)
 80061b8:	687b      	ldr	r3, [r7, #4]
 80061ba:	681b      	ldr	r3, [r3, #0]
 80061bc:	f003 0304 	and.w	r3, r3, #4
 80061c0:	2b00      	cmp	r3, #0
 80061c2:	d008      	beq.n	80061d6 <HAL_RCC_ClockConfig+0x166>
  {
    assert_param(IS_RCC_PCLK(RCC_ClkInitStruct->APB1CLKDivider));
    MODIFY_REG(RCC->CFGR, RCC_CFGR_PPRE1, RCC_ClkInitStruct->APB1CLKDivider);
 80061c4:	4b19      	ldr	r3, [pc, #100]	; (800622c <HAL_RCC_ClockConfig+0x1bc>)
 80061c6:	689b      	ldr	r3, [r3, #8]
 80061c8:	f423 52e0 	bic.w	r2, r3, #7168	; 0x1c00
 80061cc:	687b      	ldr	r3, [r7, #4]
 80061ce:	68db      	ldr	r3, [r3, #12]
 80061d0:	4916      	ldr	r1, [pc, #88]	; (800622c <HAL_RCC_ClockConfig+0x1bc>)
 80061d2:	4313      	orrs	r3, r2
 80061d4:	608b      	str	r3, [r1, #8]
  }

  /*-------------------------- PCLK2 Configuration ---------------------------*/
  if(((RCC_ClkInitStruct->ClockType) & RCC_CLOCKTYPE_PCLK2) == RCC_CLOCKTYPE_PCLK2)
 80061d6:	687b      	ldr	r3, [r7, #4]
 80061d8:	681b      	ldr	r3, [r3, #0]
 80061da:	f003 0308 	and.w	r3, r3, #8
 80061de:	2b00      	cmp	r3, #0
 80061e0:	d009      	beq.n	80061f6 <HAL_RCC_ClockConfig+0x186>
  {
    assert_param(IS_RCC_PCLK(RCC_ClkInitStruct->APB2CLKDivider));
    MODIFY_REG(RCC->CFGR, RCC_CFGR_PPRE2, ((RCC_ClkInitStruct->APB2CLKDivider) << 3U));
 80061e2:	4b12      	ldr	r3, [pc, #72]	; (800622c <HAL_RCC_ClockConfig+0x1bc>)
 80061e4:	689b      	ldr	r3, [r3, #8]
 80061e6:	f423 4260 	bic.w	r2, r3, #57344	; 0xe000
 80061ea:	687b      	ldr	r3, [r7, #4]
 80061ec:	691b      	ldr	r3, [r3, #16]
 80061ee:	00db      	lsls	r3, r3, #3
 80061f0:	490e      	ldr	r1, [pc, #56]	; (800622c <HAL_RCC_ClockConfig+0x1bc>)
 80061f2:	4313      	orrs	r3, r2
 80061f4:	608b      	str	r3, [r1, #8]
  }

  /* Update the SystemCoreClock global variable */
  SystemCoreClock = HAL_RCC_GetSysClockFreq() >> AHBPrescTable[(RCC->CFGR & RCC_CFGR_HPRE)>> RCC_CFGR_HPRE_Pos];
 80061f6:	f000 f821 	bl	800623c <HAL_RCC_GetSysClockFreq>
 80061fa:	4602      	mov	r2, r0
 80061fc:	4b0b      	ldr	r3, [pc, #44]	; (800622c <HAL_RCC_ClockConfig+0x1bc>)
 80061fe:	689b      	ldr	r3, [r3, #8]
 8006200:	091b      	lsrs	r3, r3, #4
 8006202:	f003 030f 	and.w	r3, r3, #15
 8006206:	490a      	ldr	r1, [pc, #40]	; (8006230 <HAL_RCC_ClockConfig+0x1c0>)
 8006208:	5ccb      	ldrb	r3, [r1, r3]
 800620a:	fa22 f303 	lsr.w	r3, r2, r3
 800620e:	4a09      	ldr	r2, [pc, #36]	; (8006234 <HAL_RCC_ClockConfig+0x1c4>)
 8006210:	6013      	str	r3, [r2, #0]

  /* Configure the source of time base considering new system clocks settings */
  HAL_InitTick (uwTickPrio);
 8006212:	4b09      	ldr	r3, [pc, #36]	; (8006238 <HAL_RCC_ClockConfig+0x1c8>)
 8006214:	681b      	ldr	r3, [r3, #0]
 8006216:	4618      	mov	r0, r3
 8006218:	f7fc fe54 	bl	8002ec4 <HAL_InitTick>

  return HAL_OK;
 800621c:	2300      	movs	r3, #0
}
 800621e:	4618      	mov	r0, r3
 8006220:	3710      	adds	r7, #16
 8006222:	46bd      	mov	sp, r7
 8006224:	bd80      	pop	{r7, pc}
 8006226:	bf00      	nop
 8006228:	40023c00 	.word	0x40023c00
 800622c:	40023800 	.word	0x40023800
 8006230:	080093f4 	.word	0x080093f4
 8006234:	2000001c 	.word	0x2000001c
 8006238:	20000020 	.word	0x20000020

0800623c <HAL_RCC_GetSysClockFreq>:
  *
  *
  * @retval SYSCLK frequency
  */
__weak uint32_t HAL_RCC_GetSysClockFreq(void)
{
 800623c:	e92d 4fb0 	stmdb	sp!, {r4, r5, r7, r8, r9, sl, fp, lr}
 8006240:	b090      	sub	sp, #64	; 0x40
 8006242:	af00      	add	r7, sp, #0
  uint32_t pllm = 0U, pllvco = 0U, pllp = 0U;
 8006244:	2300      	movs	r3, #0
 8006246:	637b      	str	r3, [r7, #52]	; 0x34
 8006248:	2300      	movs	r3, #0
 800624a:	63fb      	str	r3, [r7, #60]	; 0x3c
 800624c:	2300      	movs	r3, #0
 800624e:	633b      	str	r3, [r7, #48]	; 0x30
  uint32_t sysclockfreq = 0U;
 8006250:	2300      	movs	r3, #0
 8006252:	63bb      	str	r3, [r7, #56]	; 0x38

  /* Get SYSCLK source -------------------------------------------------------*/
  switch (RCC->CFGR & RCC_CFGR_SWS)
 8006254:	4b59      	ldr	r3, [pc, #356]	; (80063bc <HAL_RCC_GetSysClockFreq+0x180>)
 8006256:	689b      	ldr	r3, [r3, #8]
 8006258:	f003 030c 	and.w	r3, r3, #12
 800625c:	2b08      	cmp	r3, #8
 800625e:	d00d      	beq.n	800627c <HAL_RCC_GetSysClockFreq+0x40>
 8006260:	2b08      	cmp	r3, #8
 8006262:	f200 80a1 	bhi.w	80063a8 <HAL_RCC_GetSysClockFreq+0x16c>
 8006266:	2b00      	cmp	r3, #0
 8006268:	d002      	beq.n	8006270 <HAL_RCC_GetSysClockFreq+0x34>
 800626a:	2b04      	cmp	r3, #4
 800626c:	d003      	beq.n	8006276 <HAL_RCC_GetSysClockFreq+0x3a>
 800626e:	e09b      	b.n	80063a8 <HAL_RCC_GetSysClockFreq+0x16c>
  {
    case RCC_CFGR_SWS_HSI:  /* HSI used as system clock source */
    {
      sysclockfreq = HSI_VALUE;
 8006270:	4b53      	ldr	r3, [pc, #332]	; (80063c0 <HAL_RCC_GetSysClockFreq+0x184>)
 8006272:	63bb      	str	r3, [r7, #56]	; 0x38
       break;
 8006274:	e09b      	b.n	80063ae <HAL_RCC_GetSysClockFreq+0x172>
    }
    case RCC_CFGR_SWS_HSE:  /* HSE used as system clock  source */
    {
      sysclockfreq = HSE_VALUE;
 8006276:	4b53      	ldr	r3, [pc, #332]	; (80063c4 <HAL_RCC_GetSysClockFreq+0x188>)
 8006278:	63bb      	str	r3, [r7, #56]	; 0x38
      break;
 800627a:	e098      	b.n	80063ae <HAL_RCC_GetSysClockFreq+0x172>
    }
    case RCC_CFGR_SWS_PLL:  /* PLL used as system clock  source */
    {
      /* PLL_VCO = (HSE_VALUE or HSI_VALUE / PLLM) * PLLN
      SYSCLK = PLL_VCO / PLLP */
      pllm = RCC->PLLCFGR & RCC_PLLCFGR_PLLM;
 800627c:	4b4f      	ldr	r3, [pc, #316]	; (80063bc <HAL_RCC_GetSysClockFreq+0x180>)
 800627e:	685b      	ldr	r3, [r3, #4]
 8006280:	f003 033f 	and.w	r3, r3, #63	; 0x3f
 8006284:	637b      	str	r3, [r7, #52]	; 0x34
      if(__HAL_RCC_GET_PLL_OSCSOURCE() != RCC_PLLSOURCE_HSI)
 8006286:	4b4d      	ldr	r3, [pc, #308]	; (80063bc <HAL_RCC_GetSysClockFreq+0x180>)
 8006288:	685b      	ldr	r3, [r3, #4]
 800628a:	f403 0380 	and.w	r3, r3, #4194304	; 0x400000
 800628e:	2b00      	cmp	r3, #0
 8006290:	d028      	beq.n	80062e4 <HAL_RCC_GetSysClockFreq+0xa8>
      {
        /* HSE used as PLL clock source */
        pllvco = (uint32_t) ((((uint64_t) HSE_VALUE * ((uint64_t) ((RCC->PLLCFGR & RCC_PLLCFGR_PLLN) >> RCC_PLLCFGR_PLLN_Pos)))) / (uint64_t)pllm);
 8006292:	4b4a      	ldr	r3, [pc, #296]	; (80063bc <HAL_RCC_GetSysClockFreq+0x180>)
 8006294:	685b      	ldr	r3, [r3, #4]
 8006296:	099b      	lsrs	r3, r3, #6
 8006298:	2200      	movs	r2, #0
 800629a:	623b      	str	r3, [r7, #32]
 800629c:	627a      	str	r2, [r7, #36]	; 0x24
 800629e:	6a3b      	ldr	r3, [r7, #32]
 80062a0:	f3c3 0008 	ubfx	r0, r3, #0, #9
 80062a4:	2100      	movs	r1, #0
 80062a6:	4b47      	ldr	r3, [pc, #284]	; (80063c4 <HAL_RCC_GetSysClockFreq+0x188>)
 80062a8:	fb03 f201 	mul.w	r2, r3, r1
 80062ac:	2300      	movs	r3, #0
 80062ae:	fb00 f303 	mul.w	r3, r0, r3
 80062b2:	4413      	add	r3, r2
 80062b4:	4a43      	ldr	r2, [pc, #268]	; (80063c4 <HAL_RCC_GetSysClockFreq+0x188>)
 80062b6:	fba0 1202 	umull	r1, r2, r0, r2
 80062ba:	62fa      	str	r2, [r7, #44]	; 0x2c
 80062bc:	460a      	mov	r2, r1
 80062be:	62ba      	str	r2, [r7, #40]	; 0x28
 80062c0:	6afa      	ldr	r2, [r7, #44]	; 0x2c
 80062c2:	4413      	add	r3, r2
 80062c4:	62fb      	str	r3, [r7, #44]	; 0x2c
 80062c6:	6b7b      	ldr	r3, [r7, #52]	; 0x34
 80062c8:	2200      	movs	r2, #0
 80062ca:	61bb      	str	r3, [r7, #24]
 80062cc:	61fa      	str	r2, [r7, #28]
 80062ce:	e9d7 2306 	ldrd	r2, r3, [r7, #24]
 80062d2:	e9d7 010a 	ldrd	r0, r1, [r7, #40]	; 0x28
 80062d6:	f7f9 ff91 	bl	80001fc <__aeabi_uldivmod>
 80062da:	4602      	mov	r2, r0
 80062dc:	460b      	mov	r3, r1
 80062de:	4613      	mov	r3, r2
 80062e0:	63fb      	str	r3, [r7, #60]	; 0x3c
 80062e2:	e053      	b.n	800638c <HAL_RCC_GetSysClockFreq+0x150>
      }
      else
      {
        /* HSI used as PLL clock source */
        pllvco = (uint32_t) ((((uint64_t) HSI_VALUE * ((uint64_t) ((RCC->PLLCFGR & RCC_PLLCFGR_PLLN) >> RCC_PLLCFGR_PLLN_Pos)))) / (uint64_t)pllm);
 80062e4:	4b35      	ldr	r3, [pc, #212]	; (80063bc <HAL_RCC_GetSysClockFreq+0x180>)
 80062e6:	685b      	ldr	r3, [r3, #4]
 80062e8:	099b      	lsrs	r3, r3, #6
 80062ea:	2200      	movs	r2, #0
 80062ec:	613b      	str	r3, [r7, #16]
 80062ee:	617a      	str	r2, [r7, #20]
 80062f0:	693b      	ldr	r3, [r7, #16]
 80062f2:	f3c3 0a08 	ubfx	sl, r3, #0, #9
 80062f6:	f04f 0b00 	mov.w	fp, #0
 80062fa:	4652      	mov	r2, sl
 80062fc:	465b      	mov	r3, fp
 80062fe:	f04f 0000 	mov.w	r0, #0
 8006302:	f04f 0100 	mov.w	r1, #0
 8006306:	0159      	lsls	r1, r3, #5
 8006308:	ea41 61d2 	orr.w	r1, r1, r2, lsr #27
 800630c:	0150      	lsls	r0, r2, #5
 800630e:	4602      	mov	r2, r0
 8006310:	460b      	mov	r3, r1
 8006312:	ebb2 080a 	subs.w	r8, r2, sl
 8006316:	eb63 090b 	sbc.w	r9, r3, fp
 800631a:	f04f 0200 	mov.w	r2, #0
 800631e:	f04f 0300 	mov.w	r3, #0
 8006322:	ea4f 1389 	mov.w	r3, r9, lsl #6
 8006326:	ea43 6398 	orr.w	r3, r3, r8, lsr #26
 800632a:	ea4f 1288 	mov.w	r2, r8, lsl #6
 800632e:	ebb2 0408 	subs.w	r4, r2, r8
 8006332:	eb63 0509 	sbc.w	r5, r3, r9
 8006336:	f04f 0200 	mov.w	r2, #0
 800633a:	f04f 0300 	mov.w	r3, #0
 800633e:	00eb      	lsls	r3, r5, #3
 8006340:	ea43 7354 	orr.w	r3, r3, r4, lsr #29
 8006344:	00e2      	lsls	r2, r4, #3
 8006346:	4614      	mov	r4, r2
 8006348:	461d      	mov	r5, r3
 800634a:	eb14 030a 	adds.w	r3, r4, sl
 800634e:	603b      	str	r3, [r7, #0]
 8006350:	eb45 030b 	adc.w	r3, r5, fp
 8006354:	607b      	str	r3, [r7, #4]
 8006356:	f04f 0200 	mov.w	r2, #0
 800635a:	f04f 0300 	mov.w	r3, #0
 800635e:	e9d7 4500 	ldrd	r4, r5, [r7]
 8006362:	4629      	mov	r1, r5
 8006364:	028b      	lsls	r3, r1, #10
 8006366:	4621      	mov	r1, r4
 8006368:	ea43 5391 	orr.w	r3, r3, r1, lsr #22
 800636c:	4621      	mov	r1, r4
 800636e:	028a      	lsls	r2, r1, #10
 8006370:	4610      	mov	r0, r2
 8006372:	4619      	mov	r1, r3
 8006374:	6b7b      	ldr	r3, [r7, #52]	; 0x34
 8006376:	2200      	movs	r2, #0
 8006378:	60bb      	str	r3, [r7, #8]
 800637a:	60fa      	str	r2, [r7, #12]
 800637c:	e9d7 2302 	ldrd	r2, r3, [r7, #8]
 8006380:	f7f9 ff3c 	bl	80001fc <__aeabi_uldivmod>
 8006384:	4602      	mov	r2, r0
 8006386:	460b      	mov	r3, r1
 8006388:	4613      	mov	r3, r2
 800638a:	63fb      	str	r3, [r7, #60]	; 0x3c
      }
      pllp = ((((RCC->PLLCFGR & RCC_PLLCFGR_PLLP) >> RCC_PLLCFGR_PLLP_Pos) + 1U) *2U);
 800638c:	4b0b      	ldr	r3, [pc, #44]	; (80063bc <HAL_RCC_GetSysClockFreq+0x180>)
 800638e:	685b      	ldr	r3, [r3, #4]
 8006390:	0c1b      	lsrs	r3, r3, #16
 8006392:	f003 0303 	and.w	r3, r3, #3
 8006396:	3301      	adds	r3, #1
 8006398:	005b      	lsls	r3, r3, #1
 800639a:	633b      	str	r3, [r7, #48]	; 0x30

      sysclockfreq = pllvco/pllp;
 800639c:	6bfa      	ldr	r2, [r7, #60]	; 0x3c
 800639e:	6b3b      	ldr	r3, [r7, #48]	; 0x30
 80063a0:	fbb2 f3f3 	udiv	r3, r2, r3
 80063a4:	63bb      	str	r3, [r7, #56]	; 0x38
      break;
 80063a6:	e002      	b.n	80063ae <HAL_RCC_GetSysClockFreq+0x172>
    }
    default:
    {
      sysclockfreq = HSI_VALUE;
 80063a8:	4b05      	ldr	r3, [pc, #20]	; (80063c0 <HAL_RCC_GetSysClockFreq+0x184>)
 80063aa:	63bb      	str	r3, [r7, #56]	; 0x38
      break;
 80063ac:	bf00      	nop
    }
  }
  return sysclockfreq;
 80063ae:	6bbb      	ldr	r3, [r7, #56]	; 0x38
}
 80063b0:	4618      	mov	r0, r3
 80063b2:	3740      	adds	r7, #64	; 0x40
 80063b4:	46bd      	mov	sp, r7
 80063b6:	e8bd 8fb0 	ldmia.w	sp!, {r4, r5, r7, r8, r9, sl, fp, pc}
 80063ba:	bf00      	nop
 80063bc:	40023800 	.word	0x40023800
 80063c0:	00f42400 	.word	0x00f42400
 80063c4:	017d7840 	.word	0x017d7840

080063c8 <HAL_RCC_GetHCLKFreq>:
  * @note   The SystemCoreClock CMSIS variable is used to store System Clock Frequency
  *         and updated within this function
  * @retval HCLK frequency
  */
uint32_t HAL_RCC_GetHCLKFreq(void)
{
 80063c8:	b480      	push	{r7}
 80063ca:	af00      	add	r7, sp, #0
  return SystemCoreClock;
 80063cc:	4b03      	ldr	r3, [pc, #12]	; (80063dc <HAL_RCC_GetHCLKFreq+0x14>)
 80063ce:	681b      	ldr	r3, [r3, #0]
}
 80063d0:	4618      	mov	r0, r3
 80063d2:	46bd      	mov	sp, r7
 80063d4:	f85d 7b04 	ldr.w	r7, [sp], #4
 80063d8:	4770      	bx	lr
 80063da:	bf00      	nop
 80063dc:	2000001c 	.word	0x2000001c

080063e0 <HAL_RCC_GetPCLK1Freq>:
  * @note   Each time PCLK1 changes, this function must be called to update the
  *         right PCLK1 value. Otherwise, any configuration based on this function will be incorrect.
  * @retval PCLK1 frequency
  */
uint32_t HAL_RCC_GetPCLK1Freq(void)
{
 80063e0:	b580      	push	{r7, lr}
 80063e2:	af00      	add	r7, sp, #0
  /* Get HCLK source and Compute PCLK1 frequency ---------------------------*/
  return (HAL_RCC_GetHCLKFreq() >> APBPrescTable[(RCC->CFGR & RCC_CFGR_PPRE1)>> RCC_CFGR_PPRE1_Pos]);
 80063e4:	f7ff fff0 	bl	80063c8 <HAL_RCC_GetHCLKFreq>
 80063e8:	4602      	mov	r2, r0
 80063ea:	4b05      	ldr	r3, [pc, #20]	; (8006400 <HAL_RCC_GetPCLK1Freq+0x20>)
 80063ec:	689b      	ldr	r3, [r3, #8]
 80063ee:	0a9b      	lsrs	r3, r3, #10
 80063f0:	f003 0307 	and.w	r3, r3, #7
 80063f4:	4903      	ldr	r1, [pc, #12]	; (8006404 <HAL_RCC_GetPCLK1Freq+0x24>)
 80063f6:	5ccb      	ldrb	r3, [r1, r3]
 80063f8:	fa22 f303 	lsr.w	r3, r2, r3
}
 80063fc:	4618      	mov	r0, r3
 80063fe:	bd80      	pop	{r7, pc}
 8006400:	40023800 	.word	0x40023800
 8006404:	08009404 	.word	0x08009404

08006408 <HAL_RCC_GetPCLK2Freq>:
  * @note   Each time PCLK2 changes, this function must be called to update the
  *         right PCLK2 value. Otherwise, any configuration based on this function will be incorrect.
  * @retval PCLK2 frequency
  */
uint32_t HAL_RCC_GetPCLK2Freq(void)
{
 8006408:	b580      	push	{r7, lr}
 800640a:	af00      	add	r7, sp, #0
  /* Get HCLK source and Compute PCLK2 frequency ---------------------------*/
  return (HAL_RCC_GetHCLKFreq()>> APBPrescTable[(RCC->CFGR & RCC_CFGR_PPRE2)>> RCC_CFGR_PPRE2_Pos]);
 800640c:	f7ff ffdc 	bl	80063c8 <HAL_RCC_GetHCLKFreq>
 8006410:	4602      	mov	r2, r0
 8006412:	4b05      	ldr	r3, [pc, #20]	; (8006428 <HAL_RCC_GetPCLK2Freq+0x20>)
 8006414:	689b      	ldr	r3, [r3, #8]
 8006416:	0b5b      	lsrs	r3, r3, #13
 8006418:	f003 0307 	and.w	r3, r3, #7
 800641c:	4903      	ldr	r1, [pc, #12]	; (800642c <HAL_RCC_GetPCLK2Freq+0x24>)
 800641e:	5ccb      	ldrb	r3, [r1, r3]
 8006420:	fa22 f303 	lsr.w	r3, r2, r3
}
 8006424:	4618      	mov	r0, r3
 8006426:	bd80      	pop	{r7, pc}
 8006428:	40023800 	.word	0x40023800
 800642c:	08009404 	.word	0x08009404

08006430 <HAL_RCCEx_PeriphCLKConfig>:
  *         the backup registers) and RCC_BDCR register are set to their reset values.
  *
  * @retval HAL status
  */
HAL_StatusTypeDef HAL_RCCEx_PeriphCLKConfig(RCC_PeriphCLKInitTypeDef  *PeriphClkInit)
{
 8006430:	b580      	push	{r7, lr}
 8006432:	b086      	sub	sp, #24
 8006434:	af00      	add	r7, sp, #0
 8006436:	6078      	str	r0, [r7, #4]
  uint32_t tickstart = 0U;
 8006438:	2300      	movs	r3, #0
 800643a:	617b      	str	r3, [r7, #20]
  uint32_t tmpreg1 = 0U;
 800643c:	2300      	movs	r3, #0
 800643e:	613b      	str	r3, [r7, #16]

  /*----------------------- SAI/I2S Configuration (PLLI2S) -------------------*/
  /*----------------------- Common configuration SAI/I2S ---------------------*/
  /* In Case of SAI or I2S Clock Configuration through PLLI2S, PLLI2SN division
     factor is common parameters for both peripherals */
  if((((PeriphClkInit->PeriphClockSelection) & RCC_PERIPHCLK_I2S) == RCC_PERIPHCLK_I2S) ||
 8006440:	687b      	ldr	r3, [r7, #4]
 8006442:	681b      	ldr	r3, [r3, #0]
 8006444:	f003 0301 	and.w	r3, r3, #1
 8006448:	2b00      	cmp	r3, #0
 800644a:	d10b      	bne.n	8006464 <HAL_RCCEx_PeriphCLKConfig+0x34>
     (((PeriphClkInit->PeriphClockSelection) & RCC_PERIPHCLK_SAI_PLLI2S) == RCC_PERIPHCLK_SAI_PLLI2S) ||
 800644c:	687b      	ldr	r3, [r7, #4]
 800644e:	681b      	ldr	r3, [r3, #0]
 8006450:	f003 0302 	and.w	r3, r3, #2
  if((((PeriphClkInit->PeriphClockSelection) & RCC_PERIPHCLK_I2S) == RCC_PERIPHCLK_I2S) ||
 8006454:	2b00      	cmp	r3, #0
 8006456:	d105      	bne.n	8006464 <HAL_RCCEx_PeriphCLKConfig+0x34>
     (((PeriphClkInit->PeriphClockSelection) & RCC_PERIPHCLK_PLLI2S) == RCC_PERIPHCLK_PLLI2S))
 8006458:	687b      	ldr	r3, [r7, #4]
 800645a:	681b      	ldr	r3, [r3, #0]
 800645c:	f003 0340 	and.w	r3, r3, #64	; 0x40
     (((PeriphClkInit->PeriphClockSelection) & RCC_PERIPHCLK_SAI_PLLI2S) == RCC_PERIPHCLK_SAI_PLLI2S) ||
 8006460:	2b00      	cmp	r3, #0
 8006462:	d075      	beq.n	8006550 <HAL_RCCEx_PeriphCLKConfig+0x120>
  {
    /* check for Parameters */
    assert_param(IS_RCC_PLLI2SN_VALUE(PeriphClkInit->PLLI2S.PLLI2SN));

    /* Disable the PLLI2S */
    __HAL_RCC_PLLI2S_DISABLE();
 8006464:	4b91      	ldr	r3, [pc, #580]	; (80066ac <HAL_RCCEx_PeriphCLKConfig+0x27c>)
 8006466:	2200      	movs	r2, #0
 8006468:	601a      	str	r2, [r3, #0]
    /* Get tick */
    tickstart = HAL_GetTick();
 800646a:	f7fc fd6f 	bl	8002f4c <HAL_GetTick>
 800646e:	6178      	str	r0, [r7, #20]
    /* Wait till PLLI2S is disabled */
    while(__HAL_RCC_GET_FLAG(RCC_FLAG_PLLI2SRDY)  != RESET)
 8006470:	e008      	b.n	8006484 <HAL_RCCEx_PeriphCLKConfig+0x54>
    {
      if((HAL_GetTick() - tickstart ) > PLLI2S_TIMEOUT_VALUE)
 8006472:	f7fc fd6b 	bl	8002f4c <HAL_GetTick>
 8006476:	4602      	mov	r2, r0
 8006478:	697b      	ldr	r3, [r7, #20]
 800647a:	1ad3      	subs	r3, r2, r3
 800647c:	2b02      	cmp	r3, #2
 800647e:	d901      	bls.n	8006484 <HAL_RCCEx_PeriphCLKConfig+0x54>
      {
        /* return in case of Timeout detected */
        return HAL_TIMEOUT;
 8006480:	2303      	movs	r3, #3
 8006482:	e189      	b.n	8006798 <HAL_RCCEx_PeriphCLKConfig+0x368>
    while(__HAL_RCC_GET_FLAG(RCC_FLAG_PLLI2SRDY)  != RESET)
 8006484:	4b8a      	ldr	r3, [pc, #552]	; (80066b0 <HAL_RCCEx_PeriphCLKConfig+0x280>)
 8006486:	681b      	ldr	r3, [r3, #0]
 8006488:	f003 6300 	and.w	r3, r3, #134217728	; 0x8000000
 800648c:	2b00      	cmp	r3, #0
 800648e:	d1f0      	bne.n	8006472 <HAL_RCCEx_PeriphCLKConfig+0x42>
    }

    /*---------------------------- I2S configuration -------------------------*/
    /* In Case of I2S Clock Configuration through PLLI2S, PLLI2SR must be added
      only for I2S configuration */
    if(((PeriphClkInit->PeriphClockSelection) & RCC_PERIPHCLK_I2S) == (RCC_PERIPHCLK_I2S))
 8006490:	687b      	ldr	r3, [r7, #4]
 8006492:	681b      	ldr	r3, [r3, #0]
 8006494:	f003 0301 	and.w	r3, r3, #1
 8006498:	2b00      	cmp	r3, #0
 800649a:	d009      	beq.n	80064b0 <HAL_RCCEx_PeriphCLKConfig+0x80>
      /* check for Parameters */
      assert_param(IS_RCC_PLLI2SR_VALUE(PeriphClkInit->PLLI2S.PLLI2SR));
      /* Configure the PLLI2S division factors */
      /* PLLI2S_VCO = f(VCO clock) = f(PLLI2S clock input) * (PLLI2SN/PLLM) */
      /* I2SCLK = f(PLLI2S clock output) = f(VCO clock) / PLLI2SR */
      __HAL_RCC_PLLI2S_CONFIG(PeriphClkInit->PLLI2S.PLLI2SN , PeriphClkInit->PLLI2S.PLLI2SR);
 800649c:	687b      	ldr	r3, [r7, #4]
 800649e:	685b      	ldr	r3, [r3, #4]
 80064a0:	019a      	lsls	r2, r3, #6
 80064a2:	687b      	ldr	r3, [r7, #4]
 80064a4:	689b      	ldr	r3, [r3, #8]
 80064a6:	071b      	lsls	r3, r3, #28
 80064a8:	4981      	ldr	r1, [pc, #516]	; (80066b0 <HAL_RCCEx_PeriphCLKConfig+0x280>)
 80064aa:	4313      	orrs	r3, r2
 80064ac:	f8c1 3084 	str.w	r3, [r1, #132]	; 0x84
    }

    /*---------------------------- SAI configuration -------------------------*/
    /* In Case of SAI Clock Configuration through PLLI2S, PLLI2SQ and PLLI2S_DIVQ must
       be added only for SAI configuration */
    if(((PeriphClkInit->PeriphClockSelection) & RCC_PERIPHCLK_SAI_PLLI2S) == (RCC_PERIPHCLK_SAI_PLLI2S))
 80064b0:	687b      	ldr	r3, [r7, #4]
 80064b2:	681b      	ldr	r3, [r3, #0]
 80064b4:	f003 0302 	and.w	r3, r3, #2
 80064b8:	2b00      	cmp	r3, #0
 80064ba:	d01f      	beq.n	80064fc <HAL_RCCEx_PeriphCLKConfig+0xcc>
      /* Check the PLLI2S division factors */
      assert_param(IS_RCC_PLLI2SQ_VALUE(PeriphClkInit->PLLI2S.PLLI2SQ));
      assert_param(IS_RCC_PLLI2S_DIVQ_VALUE(PeriphClkInit->PLLI2SDivQ));

      /* Read PLLI2SR value from PLLI2SCFGR register (this value is not need for SAI configuration) */
      tmpreg1 = ((RCC->PLLI2SCFGR & RCC_PLLI2SCFGR_PLLI2SR) >> RCC_PLLI2SCFGR_PLLI2SR_Pos);
 80064bc:	4b7c      	ldr	r3, [pc, #496]	; (80066b0 <HAL_RCCEx_PeriphCLKConfig+0x280>)
 80064be:	f8d3 3084 	ldr.w	r3, [r3, #132]	; 0x84
 80064c2:	0f1b      	lsrs	r3, r3, #28
 80064c4:	f003 0307 	and.w	r3, r3, #7
 80064c8:	613b      	str	r3, [r7, #16]
      /* Configure the PLLI2S division factors */
      /* PLLI2S_VCO Input  = PLL_SOURCE/PLLM */
      /* PLLI2S_VCO Output = PLLI2S_VCO Input * PLLI2SN */
      /* SAI_CLK(first level) = PLLI2S_VCO Output/PLLI2SQ */
      __HAL_RCC_PLLI2S_SAICLK_CONFIG(PeriphClkInit->PLLI2S.PLLI2SN , PeriphClkInit->PLLI2S.PLLI2SQ , tmpreg1);
 80064ca:	687b      	ldr	r3, [r7, #4]
 80064cc:	685b      	ldr	r3, [r3, #4]
 80064ce:	019a      	lsls	r2, r3, #6
 80064d0:	687b      	ldr	r3, [r7, #4]
 80064d2:	68db      	ldr	r3, [r3, #12]
 80064d4:	061b      	lsls	r3, r3, #24
 80064d6:	431a      	orrs	r2, r3
 80064d8:	693b      	ldr	r3, [r7, #16]
 80064da:	071b      	lsls	r3, r3, #28
 80064dc:	4974      	ldr	r1, [pc, #464]	; (80066b0 <HAL_RCCEx_PeriphCLKConfig+0x280>)
 80064de:	4313      	orrs	r3, r2
 80064e0:	f8c1 3084 	str.w	r3, [r1, #132]	; 0x84
      /* SAI_CLK_x = SAI_CLK(first level)/PLLI2SDIVQ */
      __HAL_RCC_PLLI2S_PLLSAICLKDIVQ_CONFIG(PeriphClkInit->PLLI2SDivQ);
 80064e4:	4b72      	ldr	r3, [pc, #456]	; (80066b0 <HAL_RCCEx_PeriphCLKConfig+0x280>)
 80064e6:	f8d3 308c 	ldr.w	r3, [r3, #140]	; 0x8c
 80064ea:	f023 021f 	bic.w	r2, r3, #31
 80064ee:	687b      	ldr	r3, [r7, #4]
 80064f0:	69db      	ldr	r3, [r3, #28]
 80064f2:	3b01      	subs	r3, #1
 80064f4:	496e      	ldr	r1, [pc, #440]	; (80066b0 <HAL_RCCEx_PeriphCLKConfig+0x280>)
 80064f6:	4313      	orrs	r3, r2
 80064f8:	f8c1 308c 	str.w	r3, [r1, #140]	; 0x8c
    }

    /*----------------- In Case of PLLI2S is just selected  -----------------*/
    if((PeriphClkInit->PeriphClockSelection & RCC_PERIPHCLK_PLLI2S) == RCC_PERIPHCLK_PLLI2S)
 80064fc:	687b      	ldr	r3, [r7, #4]
 80064fe:	681b      	ldr	r3, [r3, #0]
 8006500:	f003 0340 	and.w	r3, r3, #64	; 0x40
 8006504:	2b00      	cmp	r3, #0
 8006506:	d00d      	beq.n	8006524 <HAL_RCCEx_PeriphCLKConfig+0xf4>
      /* Check for Parameters */
      assert_param(IS_RCC_PLLI2SQ_VALUE(PeriphClkInit->PLLI2S.PLLI2SQ));
      assert_param(IS_RCC_PLLI2SR_VALUE(PeriphClkInit->PLLI2S.PLLI2SR));

      /* Configure the PLLI2S multiplication and division factors */
      __HAL_RCC_PLLI2S_SAICLK_CONFIG(PeriphClkInit->PLLI2S.PLLI2SN, PeriphClkInit->PLLI2S.PLLI2SQ, PeriphClkInit->PLLI2S.PLLI2SR);
 8006508:	687b      	ldr	r3, [r7, #4]
 800650a:	685b      	ldr	r3, [r3, #4]
 800650c:	019a      	lsls	r2, r3, #6
 800650e:	687b      	ldr	r3, [r7, #4]
 8006510:	68db      	ldr	r3, [r3, #12]
 8006512:	061b      	lsls	r3, r3, #24
 8006514:	431a      	orrs	r2, r3
 8006516:	687b      	ldr	r3, [r7, #4]
 8006518:	689b      	ldr	r3, [r3, #8]
 800651a:	071b      	lsls	r3, r3, #28
 800651c:	4964      	ldr	r1, [pc, #400]	; (80066b0 <HAL_RCCEx_PeriphCLKConfig+0x280>)
 800651e:	4313      	orrs	r3, r2
 8006520:	f8c1 3084 	str.w	r3, [r1, #132]	; 0x84
    }

    /* Enable the PLLI2S */
    __HAL_RCC_PLLI2S_ENABLE();
 8006524:	4b61      	ldr	r3, [pc, #388]	; (80066ac <HAL_RCCEx_PeriphCLKConfig+0x27c>)
 8006526:	2201      	movs	r2, #1
 8006528:	601a      	str	r2, [r3, #0]
    /* Get tick */
    tickstart = HAL_GetTick();
 800652a:	f7fc fd0f 	bl	8002f4c <HAL_GetTick>
 800652e:	6178      	str	r0, [r7, #20]
    /* Wait till PLLI2S is ready */
    while(__HAL_RCC_GET_FLAG(RCC_FLAG_PLLI2SRDY)  == RESET)
 8006530:	e008      	b.n	8006544 <HAL_RCCEx_PeriphCLKConfig+0x114>
    {
      if((HAL_GetTick() - tickstart ) > PLLI2S_TIMEOUT_VALUE)
 8006532:	f7fc fd0b 	bl	8002f4c <HAL_GetTick>
 8006536:	4602      	mov	r2, r0
 8006538:	697b      	ldr	r3, [r7, #20]
 800653a:	1ad3      	subs	r3, r2, r3
 800653c:	2b02      	cmp	r3, #2
 800653e:	d901      	bls.n	8006544 <HAL_RCCEx_PeriphCLKConfig+0x114>
      {
        /* return in case of Timeout detected */
        return HAL_TIMEOUT;
 8006540:	2303      	movs	r3, #3
 8006542:	e129      	b.n	8006798 <HAL_RCCEx_PeriphCLKConfig+0x368>
    while(__HAL_RCC_GET_FLAG(RCC_FLAG_PLLI2SRDY)  == RESET)
 8006544:	4b5a      	ldr	r3, [pc, #360]	; (80066b0 <HAL_RCCEx_PeriphCLKConfig+0x280>)
 8006546:	681b      	ldr	r3, [r3, #0]
 8006548:	f003 6300 	and.w	r3, r3, #134217728	; 0x8000000
 800654c:	2b00      	cmp	r3, #0
 800654e:	d0f0      	beq.n	8006532 <HAL_RCCEx_PeriphCLKConfig+0x102>

  /*----------------------- SAI/LTDC Configuration (PLLSAI) ------------------*/
  /*----------------------- Common configuration SAI/LTDC --------------------*/
  /* In Case of SAI or LTDC Clock Configuration through PLLSAI, PLLSAIN division
     factor is common parameters for both peripherals */
  if((((PeriphClkInit->PeriphClockSelection) & RCC_PERIPHCLK_SAI_PLLSAI) == RCC_PERIPHCLK_SAI_PLLSAI) ||
 8006550:	687b      	ldr	r3, [r7, #4]
 8006552:	681b      	ldr	r3, [r3, #0]
 8006554:	f003 0304 	and.w	r3, r3, #4
 8006558:	2b00      	cmp	r3, #0
 800655a:	d105      	bne.n	8006568 <HAL_RCCEx_PeriphCLKConfig+0x138>
     (((PeriphClkInit->PeriphClockSelection) & RCC_PERIPHCLK_LTDC) == RCC_PERIPHCLK_LTDC))
 800655c:	687b      	ldr	r3, [r7, #4]
 800655e:	681b      	ldr	r3, [r3, #0]
 8006560:	f003 0308 	and.w	r3, r3, #8
  if((((PeriphClkInit->PeriphClockSelection) & RCC_PERIPHCLK_SAI_PLLSAI) == RCC_PERIPHCLK_SAI_PLLSAI) ||
 8006564:	2b00      	cmp	r3, #0
 8006566:	d079      	beq.n	800665c <HAL_RCCEx_PeriphCLKConfig+0x22c>
  {
    /* Check the PLLSAI division factors */
    assert_param(IS_RCC_PLLSAIN_VALUE(PeriphClkInit->PLLSAI.PLLSAIN));

    /* Disable PLLSAI Clock */
    __HAL_RCC_PLLSAI_DISABLE();
 8006568:	4b52      	ldr	r3, [pc, #328]	; (80066b4 <HAL_RCCEx_PeriphCLKConfig+0x284>)
 800656a:	2200      	movs	r2, #0
 800656c:	601a      	str	r2, [r3, #0]
    /* Get tick */
    tickstart = HAL_GetTick();
 800656e:	f7fc fced 	bl	8002f4c <HAL_GetTick>
 8006572:	6178      	str	r0, [r7, #20]
    /* Wait till PLLSAI is disabled */
    while(__HAL_RCC_PLLSAI_GET_FLAG() != RESET)
 8006574:	e008      	b.n	8006588 <HAL_RCCEx_PeriphCLKConfig+0x158>
    {
      if((HAL_GetTick() - tickstart ) > PLLSAI_TIMEOUT_VALUE)
 8006576:	f7fc fce9 	bl	8002f4c <HAL_GetTick>
 800657a:	4602      	mov	r2, r0
 800657c:	697b      	ldr	r3, [r7, #20]
 800657e:	1ad3      	subs	r3, r2, r3
 8006580:	2b02      	cmp	r3, #2
 8006582:	d901      	bls.n	8006588 <HAL_RCCEx_PeriphCLKConfig+0x158>
      {
        /* return in case of Timeout detected */
        return HAL_TIMEOUT;
 8006584:	2303      	movs	r3, #3
 8006586:	e107      	b.n	8006798 <HAL_RCCEx_PeriphCLKConfig+0x368>
    while(__HAL_RCC_PLLSAI_GET_FLAG() != RESET)
 8006588:	4b49      	ldr	r3, [pc, #292]	; (80066b0 <HAL_RCCEx_PeriphCLKConfig+0x280>)
 800658a:	681b      	ldr	r3, [r3, #0]
 800658c:	f003 5300 	and.w	r3, r3, #536870912	; 0x20000000
 8006590:	f1b3 5f00 	cmp.w	r3, #536870912	; 0x20000000
 8006594:	d0ef      	beq.n	8006576 <HAL_RCCEx_PeriphCLKConfig+0x146>
    }

    /*---------------------------- SAI configuration -------------------------*/
    /* In Case of SAI Clock Configuration through PLLSAI, PLLSAIQ and PLLSAI_DIVQ must
       be added only for SAI configuration */
    if(((PeriphClkInit->PeriphClockSelection) & RCC_PERIPHCLK_SAI_PLLSAI) == (RCC_PERIPHCLK_SAI_PLLSAI))
 8006596:	687b      	ldr	r3, [r7, #4]
 8006598:	681b      	ldr	r3, [r3, #0]
 800659a:	f003 0304 	and.w	r3, r3, #4
 800659e:	2b00      	cmp	r3, #0
 80065a0:	d020      	beq.n	80065e4 <HAL_RCCEx_PeriphCLKConfig+0x1b4>
    {
      assert_param(IS_RCC_PLLSAIQ_VALUE(PeriphClkInit->PLLSAI.PLLSAIQ));
      assert_param(IS_RCC_PLLSAI_DIVQ_VALUE(PeriphClkInit->PLLSAIDivQ));

      /* Read PLLSAIR value from PLLSAICFGR register (this value is not need for SAI configuration) */
      tmpreg1 = ((RCC->PLLSAICFGR & RCC_PLLSAICFGR_PLLSAIR) >> RCC_PLLSAICFGR_PLLSAIR_Pos);
 80065a2:	4b43      	ldr	r3, [pc, #268]	; (80066b0 <HAL_RCCEx_PeriphCLKConfig+0x280>)
 80065a4:	f8d3 3088 	ldr.w	r3, [r3, #136]	; 0x88
 80065a8:	0f1b      	lsrs	r3, r3, #28
 80065aa:	f003 0307 	and.w	r3, r3, #7
 80065ae:	613b      	str	r3, [r7, #16]
      /* PLLSAI_VCO Input  = PLL_SOURCE/PLLM */
      /* PLLSAI_VCO Output = PLLSAI_VCO Input * PLLSAIN */
      /* SAI_CLK(first level) = PLLSAI_VCO Output/PLLSAIQ */
      __HAL_RCC_PLLSAI_CONFIG(PeriphClkInit->PLLSAI.PLLSAIN , PeriphClkInit->PLLSAI.PLLSAIQ, tmpreg1);
 80065b0:	687b      	ldr	r3, [r7, #4]
 80065b2:	691b      	ldr	r3, [r3, #16]
 80065b4:	019a      	lsls	r2, r3, #6
 80065b6:	687b      	ldr	r3, [r7, #4]
 80065b8:	695b      	ldr	r3, [r3, #20]
 80065ba:	061b      	lsls	r3, r3, #24
 80065bc:	431a      	orrs	r2, r3
 80065be:	693b      	ldr	r3, [r7, #16]
 80065c0:	071b      	lsls	r3, r3, #28
 80065c2:	493b      	ldr	r1, [pc, #236]	; (80066b0 <HAL_RCCEx_PeriphCLKConfig+0x280>)
 80065c4:	4313      	orrs	r3, r2
 80065c6:	f8c1 3088 	str.w	r3, [r1, #136]	; 0x88
      /* SAI_CLK_x = SAI_CLK(first level)/PLLSAIDIVQ */
      __HAL_RCC_PLLSAI_PLLSAICLKDIVQ_CONFIG(PeriphClkInit->PLLSAIDivQ);
 80065ca:	4b39      	ldr	r3, [pc, #228]	; (80066b0 <HAL_RCCEx_PeriphCLKConfig+0x280>)
 80065cc:	f8d3 308c 	ldr.w	r3, [r3, #140]	; 0x8c
 80065d0:	f423 52f8 	bic.w	r2, r3, #7936	; 0x1f00
 80065d4:	687b      	ldr	r3, [r7, #4]
 80065d6:	6a1b      	ldr	r3, [r3, #32]
 80065d8:	3b01      	subs	r3, #1
 80065da:	021b      	lsls	r3, r3, #8
 80065dc:	4934      	ldr	r1, [pc, #208]	; (80066b0 <HAL_RCCEx_PeriphCLKConfig+0x280>)
 80065de:	4313      	orrs	r3, r2
 80065e0:	f8c1 308c 	str.w	r3, [r1, #140]	; 0x8c
    }

    /*---------------------------- LTDC configuration ------------------------*/
    if(((PeriphClkInit->PeriphClockSelection) & RCC_PERIPHCLK_LTDC) == (RCC_PERIPHCLK_LTDC))
 80065e4:	687b      	ldr	r3, [r7, #4]
 80065e6:	681b      	ldr	r3, [r3, #0]
 80065e8:	f003 0308 	and.w	r3, r3, #8
 80065ec:	2b00      	cmp	r3, #0
 80065ee:	d01e      	beq.n	800662e <HAL_RCCEx_PeriphCLKConfig+0x1fe>
    {
      assert_param(IS_RCC_PLLSAIR_VALUE(PeriphClkInit->PLLSAI.PLLSAIR));
      assert_param(IS_RCC_PLLSAI_DIVR_VALUE(PeriphClkInit->PLLSAIDivR));

      /* Read PLLSAIR value from PLLSAICFGR register (this value is not need for SAI configuration) */
      tmpreg1 = ((RCC->PLLSAICFGR & RCC_PLLSAICFGR_PLLSAIQ) >> RCC_PLLSAICFGR_PLLSAIQ_Pos);
 80065f0:	4b2f      	ldr	r3, [pc, #188]	; (80066b0 <HAL_RCCEx_PeriphCLKConfig+0x280>)
 80065f2:	f8d3 3088 	ldr.w	r3, [r3, #136]	; 0x88
 80065f6:	0e1b      	lsrs	r3, r3, #24
 80065f8:	f003 030f 	and.w	r3, r3, #15
 80065fc:	613b      	str	r3, [r7, #16]
      /* PLLSAI_VCO Input  = PLL_SOURCE/PLLM */
      /* PLLSAI_VCO Output = PLLSAI_VCO Input * PLLSAIN */
      /* LTDC_CLK(first level) = PLLSAI_VCO Output/PLLSAIR */
      __HAL_RCC_PLLSAI_CONFIG(PeriphClkInit->PLLSAI.PLLSAIN , tmpreg1, PeriphClkInit->PLLSAI.PLLSAIR);
 80065fe:	687b      	ldr	r3, [r7, #4]
 8006600:	691b      	ldr	r3, [r3, #16]
 8006602:	019a      	lsls	r2, r3, #6
 8006604:	693b      	ldr	r3, [r7, #16]
 8006606:	061b      	lsls	r3, r3, #24
 8006608:	431a      	orrs	r2, r3
 800660a:	687b      	ldr	r3, [r7, #4]
 800660c:	699b      	ldr	r3, [r3, #24]
 800660e:	071b      	lsls	r3, r3, #28
 8006610:	4927      	ldr	r1, [pc, #156]	; (80066b0 <HAL_RCCEx_PeriphCLKConfig+0x280>)
 8006612:	4313      	orrs	r3, r2
 8006614:	f8c1 3088 	str.w	r3, [r1, #136]	; 0x88
      /* LTDC_CLK = LTDC_CLK(first level)/PLLSAIDIVR */
      __HAL_RCC_PLLSAI_PLLSAICLKDIVR_CONFIG(PeriphClkInit->PLLSAIDivR);
 8006618:	4b25      	ldr	r3, [pc, #148]	; (80066b0 <HAL_RCCEx_PeriphCLKConfig+0x280>)
 800661a:	f8d3 308c 	ldr.w	r3, [r3, #140]	; 0x8c
 800661e:	f423 3240 	bic.w	r2, r3, #196608	; 0x30000
 8006622:	687b      	ldr	r3, [r7, #4]
 8006624:	6a5b      	ldr	r3, [r3, #36]	; 0x24
 8006626:	4922      	ldr	r1, [pc, #136]	; (80066b0 <HAL_RCCEx_PeriphCLKConfig+0x280>)
 8006628:	4313      	orrs	r3, r2
 800662a:	f8c1 308c 	str.w	r3, [r1, #140]	; 0x8c
    }
    /* Enable PLLSAI Clock */
    __HAL_RCC_PLLSAI_ENABLE();
 800662e:	4b21      	ldr	r3, [pc, #132]	; (80066b4 <HAL_RCCEx_PeriphCLKConfig+0x284>)
 8006630:	2201      	movs	r2, #1
 8006632:	601a      	str	r2, [r3, #0]
    /* Get tick */
    tickstart = HAL_GetTick();
 8006634:	f7fc fc8a 	bl	8002f4c <HAL_GetTick>
 8006638:	6178      	str	r0, [r7, #20]
    /* Wait till PLLSAI is ready */
    while(__HAL_RCC_PLLSAI_GET_FLAG() == RESET)
 800663a:	e008      	b.n	800664e <HAL_RCCEx_PeriphCLKConfig+0x21e>
    {
      if((HAL_GetTick() - tickstart ) > PLLSAI_TIMEOUT_VALUE)
 800663c:	f7fc fc86 	bl	8002f4c <HAL_GetTick>
 8006640:	4602      	mov	r2, r0
 8006642:	697b      	ldr	r3, [r7, #20]
 8006644:	1ad3      	subs	r3, r2, r3
 8006646:	2b02      	cmp	r3, #2
 8006648:	d901      	bls.n	800664e <HAL_RCCEx_PeriphCLKConfig+0x21e>
      {
        /* return in case of Timeout detected */
        return HAL_TIMEOUT;
 800664a:	2303      	movs	r3, #3
 800664c:	e0a4      	b.n	8006798 <HAL_RCCEx_PeriphCLKConfig+0x368>
    while(__HAL_RCC_PLLSAI_GET_FLAG() == RESET)
 800664e:	4b18      	ldr	r3, [pc, #96]	; (80066b0 <HAL_RCCEx_PeriphCLKConfig+0x280>)
 8006650:	681b      	ldr	r3, [r3, #0]
 8006652:	f003 5300 	and.w	r3, r3, #536870912	; 0x20000000
 8006656:	f1b3 5f00 	cmp.w	r3, #536870912	; 0x20000000
 800665a:	d1ef      	bne.n	800663c <HAL_RCCEx_PeriphCLKConfig+0x20c>
    }
  }
  /*--------------------------------------------------------------------------*/

  /*---------------------------- RTC configuration ---------------------------*/
  if(((PeriphClkInit->PeriphClockSelection) & RCC_PERIPHCLK_RTC) == (RCC_PERIPHCLK_RTC))
 800665c:	687b      	ldr	r3, [r7, #4]
 800665e:	681b      	ldr	r3, [r3, #0]
 8006660:	f003 0320 	and.w	r3, r3, #32
 8006664:	2b00      	cmp	r3, #0
 8006666:	f000 808b 	beq.w	8006780 <HAL_RCCEx_PeriphCLKConfig+0x350>
  {
    /* Check for RTC Parameters used to output RTCCLK */
    assert_param(IS_RCC_RTCCLKSOURCE(PeriphClkInit->RTCClockSelection));

    /* Enable Power Clock*/
    __HAL_RCC_PWR_CLK_ENABLE();
 800666a:	2300      	movs	r3, #0
 800666c:	60fb      	str	r3, [r7, #12]
 800666e:	4b10      	ldr	r3, [pc, #64]	; (80066b0 <HAL_RCCEx_PeriphCLKConfig+0x280>)
 8006670:	6c1b      	ldr	r3, [r3, #64]	; 0x40
 8006672:	4a0f      	ldr	r2, [pc, #60]	; (80066b0 <HAL_RCCEx_PeriphCLKConfig+0x280>)
 8006674:	f043 5380 	orr.w	r3, r3, #268435456	; 0x10000000
 8006678:	6413      	str	r3, [r2, #64]	; 0x40
 800667a:	4b0d      	ldr	r3, [pc, #52]	; (80066b0 <HAL_RCCEx_PeriphCLKConfig+0x280>)
 800667c:	6c1b      	ldr	r3, [r3, #64]	; 0x40
 800667e:	f003 5380 	and.w	r3, r3, #268435456	; 0x10000000
 8006682:	60fb      	str	r3, [r7, #12]
 8006684:	68fb      	ldr	r3, [r7, #12]

    /* Enable write access to Backup domain */
    PWR->CR |= PWR_CR_DBP;
 8006686:	4b0c      	ldr	r3, [pc, #48]	; (80066b8 <HAL_RCCEx_PeriphCLKConfig+0x288>)
 8006688:	681b      	ldr	r3, [r3, #0]
 800668a:	4a0b      	ldr	r2, [pc, #44]	; (80066b8 <HAL_RCCEx_PeriphCLKConfig+0x288>)
 800668c:	f443 7380 	orr.w	r3, r3, #256	; 0x100
 8006690:	6013      	str	r3, [r2, #0]

    /* Get tick */
    tickstart = HAL_GetTick();
 8006692:	f7fc fc5b 	bl	8002f4c <HAL_GetTick>
 8006696:	6178      	str	r0, [r7, #20]

    while((PWR->CR & PWR_CR_DBP) == RESET)
 8006698:	e010      	b.n	80066bc <HAL_RCCEx_PeriphCLKConfig+0x28c>
    {
      if((HAL_GetTick() - tickstart ) > RCC_DBP_TIMEOUT_VALUE)
 800669a:	f7fc fc57 	bl	8002f4c <HAL_GetTick>
 800669e:	4602      	mov	r2, r0
 80066a0:	697b      	ldr	r3, [r7, #20]
 80066a2:	1ad3      	subs	r3, r2, r3
 80066a4:	2b02      	cmp	r3, #2
 80066a6:	d909      	bls.n	80066bc <HAL_RCCEx_PeriphCLKConfig+0x28c>
      {
        return HAL_TIMEOUT;
 80066a8:	2303      	movs	r3, #3
 80066aa:	e075      	b.n	8006798 <HAL_RCCEx_PeriphCLKConfig+0x368>
 80066ac:	42470068 	.word	0x42470068
 80066b0:	40023800 	.word	0x40023800
 80066b4:	42470070 	.word	0x42470070
 80066b8:	40007000 	.word	0x40007000
    while((PWR->CR & PWR_CR_DBP) == RESET)
 80066bc:	4b38      	ldr	r3, [pc, #224]	; (80067a0 <HAL_RCCEx_PeriphCLKConfig+0x370>)
 80066be:	681b      	ldr	r3, [r3, #0]
 80066c0:	f403 7380 	and.w	r3, r3, #256	; 0x100
 80066c4:	2b00      	cmp	r3, #0
 80066c6:	d0e8      	beq.n	800669a <HAL_RCCEx_PeriphCLKConfig+0x26a>
      }
    }
    /* Reset the Backup domain only if the RTC Clock source selection is modified from reset value */
    tmpreg1 = (RCC->BDCR & RCC_BDCR_RTCSEL);
 80066c8:	4b36      	ldr	r3, [pc, #216]	; (80067a4 <HAL_RCCEx_PeriphCLKConfig+0x374>)
 80066ca:	6f1b      	ldr	r3, [r3, #112]	; 0x70
 80066cc:	f403 7340 	and.w	r3, r3, #768	; 0x300
 80066d0:	613b      	str	r3, [r7, #16]
    if((tmpreg1 != 0x00000000U) && ((tmpreg1) != (PeriphClkInit->RTCClockSelection & RCC_BDCR_RTCSEL)))
 80066d2:	693b      	ldr	r3, [r7, #16]
 80066d4:	2b00      	cmp	r3, #0
 80066d6:	d02f      	beq.n	8006738 <HAL_RCCEx_PeriphCLKConfig+0x308>
 80066d8:	687b      	ldr	r3, [r7, #4]
 80066da:	6a9b      	ldr	r3, [r3, #40]	; 0x28
 80066dc:	f403 7340 	and.w	r3, r3, #768	; 0x300
 80066e0:	693a      	ldr	r2, [r7, #16]
 80066e2:	429a      	cmp	r2, r3
 80066e4:	d028      	beq.n	8006738 <HAL_RCCEx_PeriphCLKConfig+0x308>
    {
      /* Store the content of BDCR register before the reset of Backup Domain */
      tmpreg1 = (RCC->BDCR & ~(RCC_BDCR_RTCSEL));
 80066e6:	4b2f      	ldr	r3, [pc, #188]	; (80067a4 <HAL_RCCEx_PeriphCLKConfig+0x374>)
 80066e8:	6f1b      	ldr	r3, [r3, #112]	; 0x70
 80066ea:	f423 7340 	bic.w	r3, r3, #768	; 0x300
 80066ee:	613b      	str	r3, [r7, #16]
      /* RTC Clock selection can be changed only if the Backup Domain is reset */
      __HAL_RCC_BACKUPRESET_FORCE();
 80066f0:	4b2d      	ldr	r3, [pc, #180]	; (80067a8 <HAL_RCCEx_PeriphCLKConfig+0x378>)
 80066f2:	2201      	movs	r2, #1
 80066f4:	601a      	str	r2, [r3, #0]
      __HAL_RCC_BACKUPRESET_RELEASE();
 80066f6:	4b2c      	ldr	r3, [pc, #176]	; (80067a8 <HAL_RCCEx_PeriphCLKConfig+0x378>)
 80066f8:	2200      	movs	r2, #0
 80066fa:	601a      	str	r2, [r3, #0]
      /* Restore the Content of BDCR register */
      RCC->BDCR = tmpreg1;
 80066fc:	4a29      	ldr	r2, [pc, #164]	; (80067a4 <HAL_RCCEx_PeriphCLKConfig+0x374>)
 80066fe:	693b      	ldr	r3, [r7, #16]
 8006700:	6713      	str	r3, [r2, #112]	; 0x70

      /* Wait for LSE reactivation if LSE was enable prior to Backup Domain reset */
      if(HAL_IS_BIT_SET(RCC->BDCR, RCC_BDCR_LSEON))
 8006702:	4b28      	ldr	r3, [pc, #160]	; (80067a4 <HAL_RCCEx_PeriphCLKConfig+0x374>)
 8006704:	6f1b      	ldr	r3, [r3, #112]	; 0x70
 8006706:	f003 0301 	and.w	r3, r3, #1
 800670a:	2b01      	cmp	r3, #1
 800670c:	d114      	bne.n	8006738 <HAL_RCCEx_PeriphCLKConfig+0x308>
      {
        /* Get tick */
        tickstart = HAL_GetTick();
 800670e:	f7fc fc1d 	bl	8002f4c <HAL_GetTick>
 8006712:	6178      	str	r0, [r7, #20]

        /* Wait till LSE is ready */
        while(__HAL_RCC_GET_FLAG(RCC_FLAG_LSERDY) == RESET)
 8006714:	e00a      	b.n	800672c <HAL_RCCEx_PeriphCLKConfig+0x2fc>
        {
          if((HAL_GetTick() - tickstart ) > RCC_LSE_TIMEOUT_VALUE)
 8006716:	f7fc fc19 	bl	8002f4c <HAL_GetTick>
 800671a:	4602      	mov	r2, r0
 800671c:	697b      	ldr	r3, [r7, #20]
 800671e:	1ad3      	subs	r3, r2, r3
 8006720:	f241 3288 	movw	r2, #5000	; 0x1388
 8006724:	4293      	cmp	r3, r2
 8006726:	d901      	bls.n	800672c <HAL_RCCEx_PeriphCLKConfig+0x2fc>
          {
            return HAL_TIMEOUT;
 8006728:	2303      	movs	r3, #3
 800672a:	e035      	b.n	8006798 <HAL_RCCEx_PeriphCLKConfig+0x368>
        while(__HAL_RCC_GET_FLAG(RCC_FLAG_LSERDY) == RESET)
 800672c:	4b1d      	ldr	r3, [pc, #116]	; (80067a4 <HAL_RCCEx_PeriphCLKConfig+0x374>)
 800672e:	6f1b      	ldr	r3, [r3, #112]	; 0x70
 8006730:	f003 0302 	and.w	r3, r3, #2
 8006734:	2b00      	cmp	r3, #0
 8006736:	d0ee      	beq.n	8006716 <HAL_RCCEx_PeriphCLKConfig+0x2e6>
          }
        }
      }
    }
    __HAL_RCC_RTC_CONFIG(PeriphClkInit->RTCClockSelection);
 8006738:	687b      	ldr	r3, [r7, #4]
 800673a:	6a9b      	ldr	r3, [r3, #40]	; 0x28
 800673c:	f403 7340 	and.w	r3, r3, #768	; 0x300
 8006740:	f5b3 7f40 	cmp.w	r3, #768	; 0x300
 8006744:	d10d      	bne.n	8006762 <HAL_RCCEx_PeriphCLKConfig+0x332>
 8006746:	4b17      	ldr	r3, [pc, #92]	; (80067a4 <HAL_RCCEx_PeriphCLKConfig+0x374>)
 8006748:	689b      	ldr	r3, [r3, #8]
 800674a:	f423 12f8 	bic.w	r2, r3, #2031616	; 0x1f0000
 800674e:	687b      	ldr	r3, [r7, #4]
 8006750:	6a9b      	ldr	r3, [r3, #40]	; 0x28
 8006752:	f023 4370 	bic.w	r3, r3, #4026531840	; 0xf0000000
 8006756:	f423 7340 	bic.w	r3, r3, #768	; 0x300
 800675a:	4912      	ldr	r1, [pc, #72]	; (80067a4 <HAL_RCCEx_PeriphCLKConfig+0x374>)
 800675c:	4313      	orrs	r3, r2
 800675e:	608b      	str	r3, [r1, #8]
 8006760:	e005      	b.n	800676e <HAL_RCCEx_PeriphCLKConfig+0x33e>
 8006762:	4b10      	ldr	r3, [pc, #64]	; (80067a4 <HAL_RCCEx_PeriphCLKConfig+0x374>)
 8006764:	689b      	ldr	r3, [r3, #8]
 8006766:	4a0f      	ldr	r2, [pc, #60]	; (80067a4 <HAL_RCCEx_PeriphCLKConfig+0x374>)
 8006768:	f423 13f8 	bic.w	r3, r3, #2031616	; 0x1f0000
 800676c:	6093      	str	r3, [r2, #8]
 800676e:	4b0d      	ldr	r3, [pc, #52]	; (80067a4 <HAL_RCCEx_PeriphCLKConfig+0x374>)
 8006770:	6f1a      	ldr	r2, [r3, #112]	; 0x70
 8006772:	687b      	ldr	r3, [r7, #4]
 8006774:	6a9b      	ldr	r3, [r3, #40]	; 0x28
 8006776:	f3c3 030b 	ubfx	r3, r3, #0, #12
 800677a:	490a      	ldr	r1, [pc, #40]	; (80067a4 <HAL_RCCEx_PeriphCLKConfig+0x374>)
 800677c:	4313      	orrs	r3, r2
 800677e:	670b      	str	r3, [r1, #112]	; 0x70
  }
  /*--------------------------------------------------------------------------*/

  /*---------------------------- TIM configuration ---------------------------*/
  if(((PeriphClkInit->PeriphClockSelection) & RCC_PERIPHCLK_TIM) == (RCC_PERIPHCLK_TIM))
 8006780:	687b      	ldr	r3, [r7, #4]
 8006782:	681b      	ldr	r3, [r3, #0]
 8006784:	f003 0310 	and.w	r3, r3, #16
 8006788:	2b00      	cmp	r3, #0
 800678a:	d004      	beq.n	8006796 <HAL_RCCEx_PeriphCLKConfig+0x366>
  {
    __HAL_RCC_TIMCLKPRESCALER(PeriphClkInit->TIMPresSelection);
 800678c:	687b      	ldr	r3, [r7, #4]
 800678e:	f893 202c 	ldrb.w	r2, [r3, #44]	; 0x2c
 8006792:	4b06      	ldr	r3, [pc, #24]	; (80067ac <HAL_RCCEx_PeriphCLKConfig+0x37c>)
 8006794:	601a      	str	r2, [r3, #0]
  }
  return HAL_OK;
 8006796:	2300      	movs	r3, #0
}
 8006798:	4618      	mov	r0, r3
 800679a:	3718      	adds	r7, #24
 800679c:	46bd      	mov	sp, r7
 800679e:	bd80      	pop	{r7, pc}
 80067a0:	40007000 	.word	0x40007000
 80067a4:	40023800 	.word	0x40023800
 80067a8:	42470e40 	.word	0x42470e40
 80067ac:	424711e0 	.word	0x424711e0

080067b0 <HAL_RTC_Init>:
  * @param  hrtc pointer to a RTC_HandleTypeDef structure that contains
  *                the configuration information for RTC.
  * @retval HAL status
  */
HAL_StatusTypeDef HAL_RTC_Init(RTC_HandleTypeDef *hrtc)
{
 80067b0:	b580      	push	{r7, lr}
 80067b2:	b084      	sub	sp, #16
 80067b4:	af00      	add	r7, sp, #0
 80067b6:	6078      	str	r0, [r7, #4]
  HAL_StatusTypeDef status = HAL_ERROR;
 80067b8:	2301      	movs	r3, #1
 80067ba:	73fb      	strb	r3, [r7, #15]

  /* Check RTC handler validity */
  if (hrtc == NULL)
 80067bc:	687b      	ldr	r3, [r7, #4]
 80067be:	2b00      	cmp	r3, #0
 80067c0:	d101      	bne.n	80067c6 <HAL_RTC_Init+0x16>
  {
    return HAL_ERROR;
 80067c2:	2301      	movs	r3, #1
 80067c4:	e073      	b.n	80068ae <HAL_RTC_Init+0xfe>
    {
      hrtc->MspDeInitCallback = HAL_RTC_MspDeInit;
    }
  }
#else /* USE_HAL_RTC_REGISTER_CALLBACKS */
  if (hrtc->State == HAL_RTC_STATE_RESET)
 80067c6:	687b      	ldr	r3, [r7, #4]
 80067c8:	7f5b      	ldrb	r3, [r3, #29]
 80067ca:	b2db      	uxtb	r3, r3
 80067cc:	2b00      	cmp	r3, #0
 80067ce:	d105      	bne.n	80067dc <HAL_RTC_Init+0x2c>
  {
    /* Allocate lock resource and initialize it */
    hrtc->Lock = HAL_UNLOCKED;
 80067d0:	687b      	ldr	r3, [r7, #4]
 80067d2:	2200      	movs	r2, #0
 80067d4:	771a      	strb	r2, [r3, #28]

    /* Initialize RTC MSP */
    HAL_RTC_MspInit(hrtc);
 80067d6:	6878      	ldr	r0, [r7, #4]
 80067d8:	f7fc f832 	bl	8002840 <HAL_RTC_MspInit>
  }
#endif /* USE_HAL_RTC_REGISTER_CALLBACKS */

  /* Set RTC state */
  hrtc->State = HAL_RTC_STATE_BUSY;
 80067dc:	687b      	ldr	r3, [r7, #4]
 80067de:	2202      	movs	r2, #2
 80067e0:	775a      	strb	r2, [r3, #29]

  /* Check whether the calendar needs to be initialized */
  if (__HAL_RTC_IS_CALENDAR_INITIALIZED(hrtc) == 0U)
 80067e2:	687b      	ldr	r3, [r7, #4]
 80067e4:	681b      	ldr	r3, [r3, #0]
 80067e6:	68db      	ldr	r3, [r3, #12]
 80067e8:	f003 0310 	and.w	r3, r3, #16
 80067ec:	2b10      	cmp	r3, #16
 80067ee:	d055      	beq.n	800689c <HAL_RTC_Init+0xec>
  {
    /* Disable the write protection for RTC registers */
    __HAL_RTC_WRITEPROTECTION_DISABLE(hrtc);
 80067f0:	687b      	ldr	r3, [r7, #4]
 80067f2:	681b      	ldr	r3, [r3, #0]
 80067f4:	22ca      	movs	r2, #202	; 0xca
 80067f6:	625a      	str	r2, [r3, #36]	; 0x24
 80067f8:	687b      	ldr	r3, [r7, #4]
 80067fa:	681b      	ldr	r3, [r3, #0]
 80067fc:	2253      	movs	r2, #83	; 0x53
 80067fe:	625a      	str	r2, [r3, #36]	; 0x24

    /* Enter Initialization mode */
    status = RTC_EnterInitMode(hrtc);
 8006800:	6878      	ldr	r0, [r7, #4]
 8006802:	f000 fa49 	bl	8006c98 <RTC_EnterInitMode>
 8006806:	4603      	mov	r3, r0
 8006808:	73fb      	strb	r3, [r7, #15]

    if (status == HAL_OK)
 800680a:	7bfb      	ldrb	r3, [r7, #15]
 800680c:	2b00      	cmp	r3, #0
 800680e:	d12c      	bne.n	800686a <HAL_RTC_Init+0xba>
    {
      /* Clear RTC_CR FMT, OSEL and POL Bits */
      hrtc->Instance->CR &= ((uint32_t)~(RTC_CR_FMT | RTC_CR_OSEL | RTC_CR_POL));
 8006810:	687b      	ldr	r3, [r7, #4]
 8006812:	681b      	ldr	r3, [r3, #0]
 8006814:	689b      	ldr	r3, [r3, #8]
 8006816:	687a      	ldr	r2, [r7, #4]
 8006818:	6812      	ldr	r2, [r2, #0]
 800681a:	f423 03e0 	bic.w	r3, r3, #7340032	; 0x700000
 800681e:	f023 0340 	bic.w	r3, r3, #64	; 0x40
 8006822:	6093      	str	r3, [r2, #8]
      /* Set RTC_CR register */
      hrtc->Instance->CR |= (uint32_t)(hrtc->Init.HourFormat | hrtc->Init.OutPut | hrtc->Init.OutPutPolarity);
 8006824:	687b      	ldr	r3, [r7, #4]
 8006826:	681b      	ldr	r3, [r3, #0]
 8006828:	6899      	ldr	r1, [r3, #8]
 800682a:	687b      	ldr	r3, [r7, #4]
 800682c:	685a      	ldr	r2, [r3, #4]
 800682e:	687b      	ldr	r3, [r7, #4]
 8006830:	691b      	ldr	r3, [r3, #16]
 8006832:	431a      	orrs	r2, r3
 8006834:	687b      	ldr	r3, [r7, #4]
 8006836:	695b      	ldr	r3, [r3, #20]
 8006838:	431a      	orrs	r2, r3
 800683a:	687b      	ldr	r3, [r7, #4]
 800683c:	681b      	ldr	r3, [r3, #0]
 800683e:	430a      	orrs	r2, r1
 8006840:	609a      	str	r2, [r3, #8]

      /* Configure the RTC PRER */
      hrtc->Instance->PRER = (uint32_t)(hrtc->Init.SynchPrediv);
 8006842:	687b      	ldr	r3, [r7, #4]
 8006844:	681b      	ldr	r3, [r3, #0]
 8006846:	687a      	ldr	r2, [r7, #4]
 8006848:	68d2      	ldr	r2, [r2, #12]
 800684a:	611a      	str	r2, [r3, #16]
      hrtc->Instance->PRER |= (uint32_t)(hrtc->Init.AsynchPrediv << RTC_PRER_PREDIV_A_Pos);
 800684c:	687b      	ldr	r3, [r7, #4]
 800684e:	681b      	ldr	r3, [r3, #0]
 8006850:	6919      	ldr	r1, [r3, #16]
 8006852:	687b      	ldr	r3, [r7, #4]
 8006854:	689b      	ldr	r3, [r3, #8]
 8006856:	041a      	lsls	r2, r3, #16
 8006858:	687b      	ldr	r3, [r7, #4]
 800685a:	681b      	ldr	r3, [r3, #0]
 800685c:	430a      	orrs	r2, r1
 800685e:	611a      	str	r2, [r3, #16]

      /* Exit Initialization mode */
      status = RTC_ExitInitMode(hrtc);
 8006860:	6878      	ldr	r0, [r7, #4]
 8006862:	f000 fa50 	bl	8006d06 <RTC_ExitInitMode>
 8006866:	4603      	mov	r3, r0
 8006868:	73fb      	strb	r3, [r7, #15]
    }

    if (status == HAL_OK)
 800686a:	7bfb      	ldrb	r3, [r7, #15]
 800686c:	2b00      	cmp	r3, #0
 800686e:	d110      	bne.n	8006892 <HAL_RTC_Init+0xe2>
    {
      hrtc->Instance->TAFCR &= (uint32_t)~RTC_OUTPUT_TYPE_PUSHPULL;
 8006870:	687b      	ldr	r3, [r7, #4]
 8006872:	681b      	ldr	r3, [r3, #0]
 8006874:	6c1a      	ldr	r2, [r3, #64]	; 0x40
 8006876:	687b      	ldr	r3, [r7, #4]
 8006878:	681b      	ldr	r3, [r3, #0]
 800687a:	f422 2280 	bic.w	r2, r2, #262144	; 0x40000
 800687e:	641a      	str	r2, [r3, #64]	; 0x40
      hrtc->Instance->TAFCR |= (uint32_t)(hrtc->Init.OutPutType);
 8006880:	687b      	ldr	r3, [r7, #4]
 8006882:	681b      	ldr	r3, [r3, #0]
 8006884:	6c19      	ldr	r1, [r3, #64]	; 0x40
 8006886:	687b      	ldr	r3, [r7, #4]
 8006888:	699a      	ldr	r2, [r3, #24]
 800688a:	687b      	ldr	r3, [r7, #4]
 800688c:	681b      	ldr	r3, [r3, #0]
 800688e:	430a      	orrs	r2, r1
 8006890:	641a      	str	r2, [r3, #64]	; 0x40
    }

    /* Enable the write protection for RTC registers */
    __HAL_RTC_WRITEPROTECTION_ENABLE(hrtc);
 8006892:	687b      	ldr	r3, [r7, #4]
 8006894:	681b      	ldr	r3, [r3, #0]
 8006896:	22ff      	movs	r2, #255	; 0xff
 8006898:	625a      	str	r2, [r3, #36]	; 0x24
 800689a:	e001      	b.n	80068a0 <HAL_RTC_Init+0xf0>
  }
  else
  {
    /* The calendar is already initialized */
    status = HAL_OK;
 800689c:	2300      	movs	r3, #0
 800689e:	73fb      	strb	r3, [r7, #15]
  }

  if (status == HAL_OK)
 80068a0:	7bfb      	ldrb	r3, [r7, #15]
 80068a2:	2b00      	cmp	r3, #0
 80068a4:	d102      	bne.n	80068ac <HAL_RTC_Init+0xfc>
  {
    hrtc->State = HAL_RTC_STATE_READY;
 80068a6:	687b      	ldr	r3, [r7, #4]
 80068a8:	2201      	movs	r2, #1
 80068aa:	775a      	strb	r2, [r3, #29]
  }

  return status;
 80068ac:	7bfb      	ldrb	r3, [r7, #15]
}
 80068ae:	4618      	mov	r0, r3
 80068b0:	3710      	adds	r7, #16
 80068b2:	46bd      	mov	sp, r7
 80068b4:	bd80      	pop	{r7, pc}

080068b6 <HAL_RTC_SetTime>:
  *            @arg RTC_FORMAT_BIN: Binary data format
  *            @arg RTC_FORMAT_BCD: BCD data format
  * @retval HAL status
  */
HAL_StatusTypeDef HAL_RTC_SetTime(RTC_HandleTypeDef *hrtc, RTC_TimeTypeDef *sTime, uint32_t Format)
{
 80068b6:	b590      	push	{r4, r7, lr}
 80068b8:	b087      	sub	sp, #28
 80068ba:	af00      	add	r7, sp, #0
 80068bc:	60f8      	str	r0, [r7, #12]
 80068be:	60b9      	str	r1, [r7, #8]
 80068c0:	607a      	str	r2, [r7, #4]
  uint32_t tmpreg = 0U;
 80068c2:	2300      	movs	r3, #0
 80068c4:	617b      	str	r3, [r7, #20]
  assert_param(IS_RTC_FORMAT(Format));
  assert_param(IS_RTC_DAYLIGHT_SAVING(sTime->DayLightSaving));
  assert_param(IS_RTC_STORE_OPERATION(sTime->StoreOperation));

  /* Process Locked */
  __HAL_LOCK(hrtc);
 80068c6:	68fb      	ldr	r3, [r7, #12]
 80068c8:	7f1b      	ldrb	r3, [r3, #28]
 80068ca:	2b01      	cmp	r3, #1
 80068cc:	d101      	bne.n	80068d2 <HAL_RTC_SetTime+0x1c>
 80068ce:	2302      	movs	r3, #2
 80068d0:	e087      	b.n	80069e2 <HAL_RTC_SetTime+0x12c>
 80068d2:	68fb      	ldr	r3, [r7, #12]
 80068d4:	2201      	movs	r2, #1
 80068d6:	771a      	strb	r2, [r3, #28]

  hrtc->State = HAL_RTC_STATE_BUSY;
 80068d8:	68fb      	ldr	r3, [r7, #12]
 80068da:	2202      	movs	r2, #2
 80068dc:	775a      	strb	r2, [r3, #29]

  if (Format == RTC_FORMAT_BIN)
 80068de:	687b      	ldr	r3, [r7, #4]
 80068e0:	2b00      	cmp	r3, #0
 80068e2:	d126      	bne.n	8006932 <HAL_RTC_SetTime+0x7c>
  {
    if ((hrtc->Instance->CR & RTC_CR_FMT) != 0U)
 80068e4:	68fb      	ldr	r3, [r7, #12]
 80068e6:	681b      	ldr	r3, [r3, #0]
 80068e8:	689b      	ldr	r3, [r3, #8]
 80068ea:	f003 0340 	and.w	r3, r3, #64	; 0x40
 80068ee:	2b00      	cmp	r3, #0
 80068f0:	d102      	bne.n	80068f8 <HAL_RTC_SetTime+0x42>
      assert_param(IS_RTC_HOUR12(sTime->Hours));
      assert_param(IS_RTC_HOURFORMAT12(sTime->TimeFormat));
    }
    else
    {
      sTime->TimeFormat = 0x00U;
 80068f2:	68bb      	ldr	r3, [r7, #8]
 80068f4:	2200      	movs	r2, #0
 80068f6:	70da      	strb	r2, [r3, #3]
      assert_param(IS_RTC_HOUR24(sTime->Hours));
    }
    assert_param(IS_RTC_MINUTES(sTime->Minutes));
    assert_param(IS_RTC_SECONDS(sTime->Seconds));

    tmpreg = (uint32_t)(( (uint32_t)RTC_ByteToBcd2(sTime->Hours)   << RTC_TR_HU_Pos)  | \
 80068f8:	68bb      	ldr	r3, [r7, #8]
 80068fa:	781b      	ldrb	r3, [r3, #0]
 80068fc:	4618      	mov	r0, r3
 80068fe:	f000 fa27 	bl	8006d50 <RTC_ByteToBcd2>
 8006902:	4603      	mov	r3, r0
 8006904:	041c      	lsls	r4, r3, #16
                        ( (uint32_t)RTC_ByteToBcd2(sTime->Minutes) << RTC_TR_MNU_Pos) | \
 8006906:	68bb      	ldr	r3, [r7, #8]
 8006908:	785b      	ldrb	r3, [r3, #1]
 800690a:	4618      	mov	r0, r3
 800690c:	f000 fa20 	bl	8006d50 <RTC_ByteToBcd2>
 8006910:	4603      	mov	r3, r0
 8006912:	021b      	lsls	r3, r3, #8
    tmpreg = (uint32_t)(( (uint32_t)RTC_ByteToBcd2(sTime->Hours)   << RTC_TR_HU_Pos)  | \
 8006914:	431c      	orrs	r4, r3
                        ( (uint32_t)RTC_ByteToBcd2(sTime->Seconds))                   | \
 8006916:	68bb      	ldr	r3, [r7, #8]
 8006918:	789b      	ldrb	r3, [r3, #2]
 800691a:	4618      	mov	r0, r3
 800691c:	f000 fa18 	bl	8006d50 <RTC_ByteToBcd2>
 8006920:	4603      	mov	r3, r0
                        ( (uint32_t)RTC_ByteToBcd2(sTime->Minutes) << RTC_TR_MNU_Pos) | \
 8006922:	ea44 0203 	orr.w	r2, r4, r3
                        (((uint32_t)sTime->TimeFormat)             << RTC_TR_PM_Pos));
 8006926:	68bb      	ldr	r3, [r7, #8]
 8006928:	78db      	ldrb	r3, [r3, #3]
 800692a:	059b      	lsls	r3, r3, #22
    tmpreg = (uint32_t)(( (uint32_t)RTC_ByteToBcd2(sTime->Hours)   << RTC_TR_HU_Pos)  | \
 800692c:	4313      	orrs	r3, r2
 800692e:	617b      	str	r3, [r7, #20]
 8006930:	e018      	b.n	8006964 <HAL_RTC_SetTime+0xae>
  }
  else
  {
    if ((hrtc->Instance->CR & RTC_CR_FMT) != 0U)
 8006932:	68fb      	ldr	r3, [r7, #12]
 8006934:	681b      	ldr	r3, [r3, #0]
 8006936:	689b      	ldr	r3, [r3, #8]
 8006938:	f003 0340 	and.w	r3, r3, #64	; 0x40
 800693c:	2b00      	cmp	r3, #0
 800693e:	d102      	bne.n	8006946 <HAL_RTC_SetTime+0x90>
      assert_param(IS_RTC_HOUR12(RTC_Bcd2ToByte(sTime->Hours)));
      assert_param(IS_RTC_HOURFORMAT12(sTime->TimeFormat));
    }
    else
    {
      sTime->TimeFormat = 0x00U;
 8006940:	68bb      	ldr	r3, [r7, #8]
 8006942:	2200      	movs	r2, #0
 8006944:	70da      	strb	r2, [r3, #3]
      assert_param(IS_RTC_HOUR24(RTC_Bcd2ToByte(sTime->Hours)));
    }
    assert_param(IS_RTC_MINUTES(RTC_Bcd2ToByte(sTime->Minutes)));
    assert_param(IS_RTC_SECONDS(RTC_Bcd2ToByte(sTime->Seconds)));
    tmpreg = (((uint32_t)(sTime->Hours)      << RTC_TR_HU_Pos)  | \
 8006946:	68bb      	ldr	r3, [r7, #8]
 8006948:	781b      	ldrb	r3, [r3, #0]
 800694a:	041a      	lsls	r2, r3, #16
              ((uint32_t)(sTime->Minutes)    << RTC_TR_MNU_Pos) | \
 800694c:	68bb      	ldr	r3, [r7, #8]
 800694e:	785b      	ldrb	r3, [r3, #1]
 8006950:	021b      	lsls	r3, r3, #8
    tmpreg = (((uint32_t)(sTime->Hours)      << RTC_TR_HU_Pos)  | \
 8006952:	4313      	orrs	r3, r2
              ((uint32_t) sTime->Seconds)                       | \
 8006954:	68ba      	ldr	r2, [r7, #8]
 8006956:	7892      	ldrb	r2, [r2, #2]
              ((uint32_t)(sTime->Minutes)    << RTC_TR_MNU_Pos) | \
 8006958:	431a      	orrs	r2, r3
              ((uint32_t)(sTime->TimeFormat) << RTC_TR_PM_Pos));
 800695a:	68bb      	ldr	r3, [r7, #8]
 800695c:	78db      	ldrb	r3, [r3, #3]
 800695e:	059b      	lsls	r3, r3, #22
    tmpreg = (((uint32_t)(sTime->Hours)      << RTC_TR_HU_Pos)  | \
 8006960:	4313      	orrs	r3, r2
 8006962:	617b      	str	r3, [r7, #20]
  }

  /* Disable the write protection for RTC registers */
  __HAL_RTC_WRITEPROTECTION_DISABLE(hrtc);
 8006964:	68fb      	ldr	r3, [r7, #12]
 8006966:	681b      	ldr	r3, [r3, #0]
 8006968:	22ca      	movs	r2, #202	; 0xca
 800696a:	625a      	str	r2, [r3, #36]	; 0x24
 800696c:	68fb      	ldr	r3, [r7, #12]
 800696e:	681b      	ldr	r3, [r3, #0]
 8006970:	2253      	movs	r2, #83	; 0x53
 8006972:	625a      	str	r2, [r3, #36]	; 0x24

  /* Enter Initialization mode */
  status = RTC_EnterInitMode(hrtc);
 8006974:	68f8      	ldr	r0, [r7, #12]
 8006976:	f000 f98f 	bl	8006c98 <RTC_EnterInitMode>
 800697a:	4603      	mov	r3, r0
 800697c:	74fb      	strb	r3, [r7, #19]

  if (status == HAL_OK)
 800697e:	7cfb      	ldrb	r3, [r7, #19]
 8006980:	2b00      	cmp	r3, #0
 8006982:	d120      	bne.n	80069c6 <HAL_RTC_SetTime+0x110>
  {
    /* Set the RTC_TR register */
    hrtc->Instance->TR = (uint32_t)(tmpreg & RTC_TR_RESERVED_MASK);
 8006984:	68fb      	ldr	r3, [r7, #12]
 8006986:	681a      	ldr	r2, [r3, #0]
 8006988:	697b      	ldr	r3, [r7, #20]
 800698a:	f003 337f 	and.w	r3, r3, #2139062143	; 0x7f7f7f7f
 800698e:	f023 43fe 	bic.w	r3, r3, #2130706432	; 0x7f000000
 8006992:	6013      	str	r3, [r2, #0]

    /* Clear the bits to be configured (Deprecated. Use HAL_RTC_DST_xxx functions instead) */
    hrtc->Instance->CR &= (uint32_t)~RTC_CR_BKP;
 8006994:	68fb      	ldr	r3, [r7, #12]
 8006996:	681b      	ldr	r3, [r3, #0]
 8006998:	689a      	ldr	r2, [r3, #8]
 800699a:	68fb      	ldr	r3, [r7, #12]
 800699c:	681b      	ldr	r3, [r3, #0]
 800699e:	f422 2280 	bic.w	r2, r2, #262144	; 0x40000
 80069a2:	609a      	str	r2, [r3, #8]

    /* Configure the RTC_CR register (Deprecated. Use HAL_RTC_DST_xxx functions instead) */
    hrtc->Instance->CR |= (uint32_t)(sTime->DayLightSaving | sTime->StoreOperation);
 80069a4:	68fb      	ldr	r3, [r7, #12]
 80069a6:	681b      	ldr	r3, [r3, #0]
 80069a8:	6899      	ldr	r1, [r3, #8]
 80069aa:	68bb      	ldr	r3, [r7, #8]
 80069ac:	68da      	ldr	r2, [r3, #12]
 80069ae:	68bb      	ldr	r3, [r7, #8]
 80069b0:	691b      	ldr	r3, [r3, #16]
 80069b2:	431a      	orrs	r2, r3
 80069b4:	68fb      	ldr	r3, [r7, #12]
 80069b6:	681b      	ldr	r3, [r3, #0]
 80069b8:	430a      	orrs	r2, r1
 80069ba:	609a      	str	r2, [r3, #8]

    /* Exit Initialization mode */
    status = RTC_ExitInitMode(hrtc);
 80069bc:	68f8      	ldr	r0, [r7, #12]
 80069be:	f000 f9a2 	bl	8006d06 <RTC_ExitInitMode>
 80069c2:	4603      	mov	r3, r0
 80069c4:	74fb      	strb	r3, [r7, #19]
  }

  if (status == HAL_OK)
 80069c6:	7cfb      	ldrb	r3, [r7, #19]
 80069c8:	2b00      	cmp	r3, #0
 80069ca:	d102      	bne.n	80069d2 <HAL_RTC_SetTime+0x11c>
  {
    hrtc->State = HAL_RTC_STATE_READY;
 80069cc:	68fb      	ldr	r3, [r7, #12]
 80069ce:	2201      	movs	r2, #1
 80069d0:	775a      	strb	r2, [r3, #29]
  }

  /* Enable the write protection for RTC registers */
  __HAL_RTC_WRITEPROTECTION_ENABLE(hrtc);
 80069d2:	68fb      	ldr	r3, [r7, #12]
 80069d4:	681b      	ldr	r3, [r3, #0]
 80069d6:	22ff      	movs	r2, #255	; 0xff
 80069d8:	625a      	str	r2, [r3, #36]	; 0x24

  /* Process Unlocked */
  __HAL_UNLOCK(hrtc);
 80069da:	68fb      	ldr	r3, [r7, #12]
 80069dc:	2200      	movs	r2, #0
 80069de:	771a      	strb	r2, [r3, #28]

  return status;
 80069e0:	7cfb      	ldrb	r3, [r7, #19]
}
 80069e2:	4618      	mov	r0, r3
 80069e4:	371c      	adds	r7, #28
 80069e6:	46bd      	mov	sp, r7
 80069e8:	bd90      	pop	{r4, r7, pc}

080069ea <HAL_RTC_GetTime>:
  *        until current date is read to ensure consistency between the time and
  *        date values.
  * @retval HAL status
  */
HAL_StatusTypeDef HAL_RTC_GetTime(RTC_HandleTypeDef *hrtc, RTC_TimeTypeDef *sTime, uint32_t Format)
{
 80069ea:	b580      	push	{r7, lr}
 80069ec:	b086      	sub	sp, #24
 80069ee:	af00      	add	r7, sp, #0
 80069f0:	60f8      	str	r0, [r7, #12]
 80069f2:	60b9      	str	r1, [r7, #8]
 80069f4:	607a      	str	r2, [r7, #4]
  uint32_t tmpreg = 0U;
 80069f6:	2300      	movs	r3, #0
 80069f8:	617b      	str	r3, [r7, #20]

  /* Check the parameters */
  assert_param(IS_RTC_FORMAT(Format));

  /* Get subseconds value from the corresponding register */
  sTime->SubSeconds = (uint32_t)(hrtc->Instance->SSR);
 80069fa:	68fb      	ldr	r3, [r7, #12]
 80069fc:	681b      	ldr	r3, [r3, #0]
 80069fe:	6a9a      	ldr	r2, [r3, #40]	; 0x28
 8006a00:	68bb      	ldr	r3, [r7, #8]
 8006a02:	605a      	str	r2, [r3, #4]

  /* Get SecondFraction structure field from the corresponding register field*/
  sTime->SecondFraction = (uint32_t)(hrtc->Instance->PRER & RTC_PRER_PREDIV_S);
 8006a04:	68fb      	ldr	r3, [r7, #12]
 8006a06:	681b      	ldr	r3, [r3, #0]
 8006a08:	691b      	ldr	r3, [r3, #16]
 8006a0a:	f3c3 020e 	ubfx	r2, r3, #0, #15
 8006a0e:	68bb      	ldr	r3, [r7, #8]
 8006a10:	609a      	str	r2, [r3, #8]

  /* Get the TR register */
  tmpreg = (uint32_t)(hrtc->Instance->TR & RTC_TR_RESERVED_MASK);
 8006a12:	68fb      	ldr	r3, [r7, #12]
 8006a14:	681b      	ldr	r3, [r3, #0]
 8006a16:	681b      	ldr	r3, [r3, #0]
 8006a18:	f003 337f 	and.w	r3, r3, #2139062143	; 0x7f7f7f7f
 8006a1c:	f023 43fe 	bic.w	r3, r3, #2130706432	; 0x7f000000
 8006a20:	617b      	str	r3, [r7, #20]

  /* Fill the structure fields with the read parameters */
  sTime->Hours      = (uint8_t)((tmpreg & (RTC_TR_HT  | RTC_TR_HU))  >> RTC_TR_HU_Pos);
 8006a22:	697b      	ldr	r3, [r7, #20]
 8006a24:	0c1b      	lsrs	r3, r3, #16
 8006a26:	b2db      	uxtb	r3, r3
 8006a28:	f003 033f 	and.w	r3, r3, #63	; 0x3f
 8006a2c:	b2da      	uxtb	r2, r3
 8006a2e:	68bb      	ldr	r3, [r7, #8]
 8006a30:	701a      	strb	r2, [r3, #0]
  sTime->Minutes    = (uint8_t)((tmpreg & (RTC_TR_MNT | RTC_TR_MNU)) >> RTC_TR_MNU_Pos);
 8006a32:	697b      	ldr	r3, [r7, #20]
 8006a34:	0a1b      	lsrs	r3, r3, #8
 8006a36:	b2db      	uxtb	r3, r3
 8006a38:	f003 037f 	and.w	r3, r3, #127	; 0x7f
 8006a3c:	b2da      	uxtb	r2, r3
 8006a3e:	68bb      	ldr	r3, [r7, #8]
 8006a40:	705a      	strb	r2, [r3, #1]
  sTime->Seconds    = (uint8_t)( tmpreg & (RTC_TR_ST  | RTC_TR_SU));
 8006a42:	697b      	ldr	r3, [r7, #20]
 8006a44:	b2db      	uxtb	r3, r3
 8006a46:	f003 037f 	and.w	r3, r3, #127	; 0x7f
 8006a4a:	b2da      	uxtb	r2, r3
 8006a4c:	68bb      	ldr	r3, [r7, #8]
 8006a4e:	709a      	strb	r2, [r3, #2]
  sTime->TimeFormat = (uint8_t)((tmpreg & (RTC_TR_PM))               >> RTC_TR_PM_Pos);
 8006a50:	697b      	ldr	r3, [r7, #20]
 8006a52:	0d9b      	lsrs	r3, r3, #22
 8006a54:	b2db      	uxtb	r3, r3
 8006a56:	f003 0301 	and.w	r3, r3, #1
 8006a5a:	b2da      	uxtb	r2, r3
 8006a5c:	68bb      	ldr	r3, [r7, #8]
 8006a5e:	70da      	strb	r2, [r3, #3]

  /* Check the input parameters format */
  if (Format == RTC_FORMAT_BIN)
 8006a60:	687b      	ldr	r3, [r7, #4]
 8006a62:	2b00      	cmp	r3, #0
 8006a64:	d11a      	bne.n	8006a9c <HAL_RTC_GetTime+0xb2>
  {
    /* Convert the time structure parameters to Binary format */
    sTime->Hours = (uint8_t)RTC_Bcd2ToByte(sTime->Hours);
 8006a66:	68bb      	ldr	r3, [r7, #8]
 8006a68:	781b      	ldrb	r3, [r3, #0]
 8006a6a:	4618      	mov	r0, r3
 8006a6c:	f000 f98e 	bl	8006d8c <RTC_Bcd2ToByte>
 8006a70:	4603      	mov	r3, r0
 8006a72:	461a      	mov	r2, r3
 8006a74:	68bb      	ldr	r3, [r7, #8]
 8006a76:	701a      	strb	r2, [r3, #0]
    sTime->Minutes = (uint8_t)RTC_Bcd2ToByte(sTime->Minutes);
 8006a78:	68bb      	ldr	r3, [r7, #8]
 8006a7a:	785b      	ldrb	r3, [r3, #1]
 8006a7c:	4618      	mov	r0, r3
 8006a7e:	f000 f985 	bl	8006d8c <RTC_Bcd2ToByte>
 8006a82:	4603      	mov	r3, r0
 8006a84:	461a      	mov	r2, r3
 8006a86:	68bb      	ldr	r3, [r7, #8]
 8006a88:	705a      	strb	r2, [r3, #1]
    sTime->Seconds = (uint8_t)RTC_Bcd2ToByte(sTime->Seconds);
 8006a8a:	68bb      	ldr	r3, [r7, #8]
 8006a8c:	789b      	ldrb	r3, [r3, #2]
 8006a8e:	4618      	mov	r0, r3
 8006a90:	f000 f97c 	bl	8006d8c <RTC_Bcd2ToByte>
 8006a94:	4603      	mov	r3, r0
 8006a96:	461a      	mov	r2, r3
 8006a98:	68bb      	ldr	r3, [r7, #8]
 8006a9a:	709a      	strb	r2, [r3, #2]
  }

  return HAL_OK;
 8006a9c:	2300      	movs	r3, #0
}
 8006a9e:	4618      	mov	r0, r3
 8006aa0:	3718      	adds	r7, #24
 8006aa2:	46bd      	mov	sp, r7
 8006aa4:	bd80      	pop	{r7, pc}

08006aa6 <HAL_RTC_SetDate>:
  *            @arg RTC_FORMAT_BIN: Binary data format
  *            @arg RTC_FORMAT_BCD: BCD data format
  * @retval HAL status
  */
HAL_StatusTypeDef HAL_RTC_SetDate(RTC_HandleTypeDef *hrtc, RTC_DateTypeDef *sDate, uint32_t Format)
{
 8006aa6:	b590      	push	{r4, r7, lr}
 8006aa8:	b087      	sub	sp, #28
 8006aaa:	af00      	add	r7, sp, #0
 8006aac:	60f8      	str	r0, [r7, #12]
 8006aae:	60b9      	str	r1, [r7, #8]
 8006ab0:	607a      	str	r2, [r7, #4]
  uint32_t datetmpreg = 0U;
 8006ab2:	2300      	movs	r3, #0
 8006ab4:	617b      	str	r3, [r7, #20]

  /* Check the parameters */
  assert_param(IS_RTC_FORMAT(Format));

  /* Process Locked */
  __HAL_LOCK(hrtc);
 8006ab6:	68fb      	ldr	r3, [r7, #12]
 8006ab8:	7f1b      	ldrb	r3, [r3, #28]
 8006aba:	2b01      	cmp	r3, #1
 8006abc:	d101      	bne.n	8006ac2 <HAL_RTC_SetDate+0x1c>
 8006abe:	2302      	movs	r3, #2
 8006ac0:	e071      	b.n	8006ba6 <HAL_RTC_SetDate+0x100>
 8006ac2:	68fb      	ldr	r3, [r7, #12]
 8006ac4:	2201      	movs	r2, #1
 8006ac6:	771a      	strb	r2, [r3, #28]

  hrtc->State = HAL_RTC_STATE_BUSY;
 8006ac8:	68fb      	ldr	r3, [r7, #12]
 8006aca:	2202      	movs	r2, #2
 8006acc:	775a      	strb	r2, [r3, #29]

  if ((Format == RTC_FORMAT_BIN) && ((sDate->Month & 0x10U) == 0x10U))
 8006ace:	687b      	ldr	r3, [r7, #4]
 8006ad0:	2b00      	cmp	r3, #0
 8006ad2:	d10e      	bne.n	8006af2 <HAL_RTC_SetDate+0x4c>
 8006ad4:	68bb      	ldr	r3, [r7, #8]
 8006ad6:	785b      	ldrb	r3, [r3, #1]
 8006ad8:	f003 0310 	and.w	r3, r3, #16
 8006adc:	2b00      	cmp	r3, #0
 8006ade:	d008      	beq.n	8006af2 <HAL_RTC_SetDate+0x4c>
  {
    sDate->Month = (uint8_t)((sDate->Month & (uint8_t)~(0x10U)) + (uint8_t)0x0AU);
 8006ae0:	68bb      	ldr	r3, [r7, #8]
 8006ae2:	785b      	ldrb	r3, [r3, #1]
 8006ae4:	f023 0310 	bic.w	r3, r3, #16
 8006ae8:	b2db      	uxtb	r3, r3
 8006aea:	330a      	adds	r3, #10
 8006aec:	b2da      	uxtb	r2, r3
 8006aee:	68bb      	ldr	r3, [r7, #8]
 8006af0:	705a      	strb	r2, [r3, #1]
  }

  assert_param(IS_RTC_WEEKDAY(sDate->WeekDay));

  if (Format == RTC_FORMAT_BIN)
 8006af2:	687b      	ldr	r3, [r7, #4]
 8006af4:	2b00      	cmp	r3, #0
 8006af6:	d11c      	bne.n	8006b32 <HAL_RTC_SetDate+0x8c>
  {
    assert_param(IS_RTC_YEAR(sDate->Year));
    assert_param(IS_RTC_MONTH(sDate->Month));
    assert_param(IS_RTC_DATE(sDate->Date));

    datetmpreg = (((uint32_t)RTC_ByteToBcd2(sDate->Year)  << RTC_DR_YU_Pos) | \
 8006af8:	68bb      	ldr	r3, [r7, #8]
 8006afa:	78db      	ldrb	r3, [r3, #3]
 8006afc:	4618      	mov	r0, r3
 8006afe:	f000 f927 	bl	8006d50 <RTC_ByteToBcd2>
 8006b02:	4603      	mov	r3, r0
 8006b04:	041c      	lsls	r4, r3, #16
                  ((uint32_t)RTC_ByteToBcd2(sDate->Month) << RTC_DR_MU_Pos) | \
 8006b06:	68bb      	ldr	r3, [r7, #8]
 8006b08:	785b      	ldrb	r3, [r3, #1]
 8006b0a:	4618      	mov	r0, r3
 8006b0c:	f000 f920 	bl	8006d50 <RTC_ByteToBcd2>
 8006b10:	4603      	mov	r3, r0
 8006b12:	021b      	lsls	r3, r3, #8
    datetmpreg = (((uint32_t)RTC_ByteToBcd2(sDate->Year)  << RTC_DR_YU_Pos) | \
 8006b14:	431c      	orrs	r4, r3
                  ((uint32_t)RTC_ByteToBcd2(sDate->Date))                   | \
 8006b16:	68bb      	ldr	r3, [r7, #8]
 8006b18:	789b      	ldrb	r3, [r3, #2]
 8006b1a:	4618      	mov	r0, r3
 8006b1c:	f000 f918 	bl	8006d50 <RTC_ByteToBcd2>
 8006b20:	4603      	mov	r3, r0
                  ((uint32_t)RTC_ByteToBcd2(sDate->Month) << RTC_DR_MU_Pos) | \
 8006b22:	ea44 0203 	orr.w	r2, r4, r3
                  ((uint32_t)sDate->WeekDay               << RTC_DR_WDU_Pos));
 8006b26:	68bb      	ldr	r3, [r7, #8]
 8006b28:	781b      	ldrb	r3, [r3, #0]
 8006b2a:	035b      	lsls	r3, r3, #13
    datetmpreg = (((uint32_t)RTC_ByteToBcd2(sDate->Year)  << RTC_DR_YU_Pos) | \
 8006b2c:	4313      	orrs	r3, r2
 8006b2e:	617b      	str	r3, [r7, #20]
 8006b30:	e00e      	b.n	8006b50 <HAL_RTC_SetDate+0xaa>
  {
    assert_param(IS_RTC_YEAR(RTC_Bcd2ToByte(sDate->Year)));
    assert_param(IS_RTC_MONTH(RTC_Bcd2ToByte(sDate->Month)));
    assert_param(IS_RTC_DATE(RTC_Bcd2ToByte(sDate->Date)));

    datetmpreg = ((((uint32_t)sDate->Year)    << RTC_DR_YU_Pos) | \
 8006b32:	68bb      	ldr	r3, [r7, #8]
 8006b34:	78db      	ldrb	r3, [r3, #3]
 8006b36:	041a      	lsls	r2, r3, #16
                  (((uint32_t)sDate->Month)   << RTC_DR_MU_Pos) | \
 8006b38:	68bb      	ldr	r3, [r7, #8]
 8006b3a:	785b      	ldrb	r3, [r3, #1]
 8006b3c:	021b      	lsls	r3, r3, #8
    datetmpreg = ((((uint32_t)sDate->Year)    << RTC_DR_YU_Pos) | \
 8006b3e:	4313      	orrs	r3, r2
                  ((uint32_t) sDate->Date)                      | \
 8006b40:	68ba      	ldr	r2, [r7, #8]
 8006b42:	7892      	ldrb	r2, [r2, #2]
                  (((uint32_t)sDate->Month)   << RTC_DR_MU_Pos) | \
 8006b44:	431a      	orrs	r2, r3
                  (((uint32_t)sDate->WeekDay) << RTC_DR_WDU_Pos));
 8006b46:	68bb      	ldr	r3, [r7, #8]
 8006b48:	781b      	ldrb	r3, [r3, #0]
 8006b4a:	035b      	lsls	r3, r3, #13
    datetmpreg = ((((uint32_t)sDate->Year)    << RTC_DR_YU_Pos) | \
 8006b4c:	4313      	orrs	r3, r2
 8006b4e:	617b      	str	r3, [r7, #20]
  }

  /* Disable the write protection for RTC registers */
  __HAL_RTC_WRITEPROTECTION_DISABLE(hrtc);
 8006b50:	68fb      	ldr	r3, [r7, #12]
 8006b52:	681b      	ldr	r3, [r3, #0]
 8006b54:	22ca      	movs	r2, #202	; 0xca
 8006b56:	625a      	str	r2, [r3, #36]	; 0x24
 8006b58:	68fb      	ldr	r3, [r7, #12]
 8006b5a:	681b      	ldr	r3, [r3, #0]
 8006b5c:	2253      	movs	r2, #83	; 0x53
 8006b5e:	625a      	str	r2, [r3, #36]	; 0x24

  /* Enter Initialization mode */
  status = RTC_EnterInitMode(hrtc);
 8006b60:	68f8      	ldr	r0, [r7, #12]
 8006b62:	f000 f899 	bl	8006c98 <RTC_EnterInitMode>
 8006b66:	4603      	mov	r3, r0
 8006b68:	74fb      	strb	r3, [r7, #19]

  if (status == HAL_OK)
 8006b6a:	7cfb      	ldrb	r3, [r7, #19]
 8006b6c:	2b00      	cmp	r3, #0
 8006b6e:	d10c      	bne.n	8006b8a <HAL_RTC_SetDate+0xe4>
  {
    /* Set the RTC_DR register */
    hrtc->Instance->DR = (uint32_t)(datetmpreg & RTC_DR_RESERVED_MASK);
 8006b70:	68fb      	ldr	r3, [r7, #12]
 8006b72:	681a      	ldr	r2, [r3, #0]
 8006b74:	697b      	ldr	r3, [r7, #20]
 8006b76:	f023 437f 	bic.w	r3, r3, #4278190080	; 0xff000000
 8006b7a:	f023 03c0 	bic.w	r3, r3, #192	; 0xc0
 8006b7e:	6053      	str	r3, [r2, #4]

    /* Exit Initialization mode */
    status = RTC_ExitInitMode(hrtc);
 8006b80:	68f8      	ldr	r0, [r7, #12]
 8006b82:	f000 f8c0 	bl	8006d06 <RTC_ExitInitMode>
 8006b86:	4603      	mov	r3, r0
 8006b88:	74fb      	strb	r3, [r7, #19]
  }

  if (status == HAL_OK)
 8006b8a:	7cfb      	ldrb	r3, [r7, #19]
 8006b8c:	2b00      	cmp	r3, #0
 8006b8e:	d102      	bne.n	8006b96 <HAL_RTC_SetDate+0xf0>
  {
    hrtc->State = HAL_RTC_STATE_READY;
 8006b90:	68fb      	ldr	r3, [r7, #12]
 8006b92:	2201      	movs	r2, #1
 8006b94:	775a      	strb	r2, [r3, #29]
  }

  /* Enable the write protection for RTC registers */
  __HAL_RTC_WRITEPROTECTION_ENABLE(hrtc);
 8006b96:	68fb      	ldr	r3, [r7, #12]
 8006b98:	681b      	ldr	r3, [r3, #0]
 8006b9a:	22ff      	movs	r2, #255	; 0xff
 8006b9c:	625a      	str	r2, [r3, #36]	; 0x24

  /* Process Unlocked */
  __HAL_UNLOCK(hrtc);
 8006b9e:	68fb      	ldr	r3, [r7, #12]
 8006ba0:	2200      	movs	r2, #0
 8006ba2:	771a      	strb	r2, [r3, #28]

  return status;
 8006ba4:	7cfb      	ldrb	r3, [r7, #19]
}
 8006ba6:	4618      	mov	r0, r3
 8006ba8:	371c      	adds	r7, #28
 8006baa:	46bd      	mov	sp, r7
 8006bac:	bd90      	pop	{r4, r7, pc}

08006bae <HAL_RTC_GetDate>:
  *        until current date is read to ensure consistency between the time and
  *        date values.
  * @retval HAL status
  */
HAL_StatusTypeDef HAL_RTC_GetDate(RTC_HandleTypeDef *hrtc, RTC_DateTypeDef *sDate, uint32_t Format)
{
 8006bae:	b580      	push	{r7, lr}
 8006bb0:	b086      	sub	sp, #24
 8006bb2:	af00      	add	r7, sp, #0
 8006bb4:	60f8      	str	r0, [r7, #12]
 8006bb6:	60b9      	str	r1, [r7, #8]
 8006bb8:	607a      	str	r2, [r7, #4]
  uint32_t datetmpreg = 0U;
 8006bba:	2300      	movs	r3, #0
 8006bbc:	617b      	str	r3, [r7, #20]

  /* Check the parameters */
  assert_param(IS_RTC_FORMAT(Format));

  /* Get the DR register */
  datetmpreg = (uint32_t)(hrtc->Instance->DR & RTC_DR_RESERVED_MASK);
 8006bbe:	68fb      	ldr	r3, [r7, #12]
 8006bc0:	681b      	ldr	r3, [r3, #0]
 8006bc2:	685b      	ldr	r3, [r3, #4]
 8006bc4:	f023 437f 	bic.w	r3, r3, #4278190080	; 0xff000000
 8006bc8:	f023 03c0 	bic.w	r3, r3, #192	; 0xc0
 8006bcc:	617b      	str	r3, [r7, #20]

  /* Fill the structure fields with the read parameters */
  sDate->Year    = (uint8_t)((datetmpreg & (RTC_DR_YT | RTC_DR_YU)) >> RTC_DR_YU_Pos);
 8006bce:	697b      	ldr	r3, [r7, #20]
 8006bd0:	0c1b      	lsrs	r3, r3, #16
 8006bd2:	b2da      	uxtb	r2, r3
 8006bd4:	68bb      	ldr	r3, [r7, #8]
 8006bd6:	70da      	strb	r2, [r3, #3]
  sDate->Month   = (uint8_t)((datetmpreg & (RTC_DR_MT | RTC_DR_MU)) >> RTC_DR_MU_Pos);
 8006bd8:	697b      	ldr	r3, [r7, #20]
 8006bda:	0a1b      	lsrs	r3, r3, #8
 8006bdc:	b2db      	uxtb	r3, r3
 8006bde:	f003 031f 	and.w	r3, r3, #31
 8006be2:	b2da      	uxtb	r2, r3
 8006be4:	68bb      	ldr	r3, [r7, #8]
 8006be6:	705a      	strb	r2, [r3, #1]
  sDate->Date    = (uint8_t) (datetmpreg & (RTC_DR_DT | RTC_DR_DU));
 8006be8:	697b      	ldr	r3, [r7, #20]
 8006bea:	b2db      	uxtb	r3, r3
 8006bec:	f003 033f 	and.w	r3, r3, #63	; 0x3f
 8006bf0:	b2da      	uxtb	r2, r3
 8006bf2:	68bb      	ldr	r3, [r7, #8]
 8006bf4:	709a      	strb	r2, [r3, #2]
  sDate->WeekDay = (uint8_t)((datetmpreg & (RTC_DR_WDU))            >> RTC_DR_WDU_Pos);
 8006bf6:	697b      	ldr	r3, [r7, #20]
 8006bf8:	0b5b      	lsrs	r3, r3, #13
 8006bfa:	b2db      	uxtb	r3, r3
 8006bfc:	f003 0307 	and.w	r3, r3, #7
 8006c00:	b2da      	uxtb	r2, r3
 8006c02:	68bb      	ldr	r3, [r7, #8]
 8006c04:	701a      	strb	r2, [r3, #0]

  /* Check the input parameters format */
  if (Format == RTC_FORMAT_BIN)
 8006c06:	687b      	ldr	r3, [r7, #4]
 8006c08:	2b00      	cmp	r3, #0
 8006c0a:	d11a      	bne.n	8006c42 <HAL_RTC_GetDate+0x94>
  {
    /* Convert the date structure parameters to Binary format */
    sDate->Year  = (uint8_t)RTC_Bcd2ToByte(sDate->Year);
 8006c0c:	68bb      	ldr	r3, [r7, #8]
 8006c0e:	78db      	ldrb	r3, [r3, #3]
 8006c10:	4618      	mov	r0, r3
 8006c12:	f000 f8bb 	bl	8006d8c <RTC_Bcd2ToByte>
 8006c16:	4603      	mov	r3, r0
 8006c18:	461a      	mov	r2, r3
 8006c1a:	68bb      	ldr	r3, [r7, #8]
 8006c1c:	70da      	strb	r2, [r3, #3]
    sDate->Month = (uint8_t)RTC_Bcd2ToByte(sDate->Month);
 8006c1e:	68bb      	ldr	r3, [r7, #8]
 8006c20:	785b      	ldrb	r3, [r3, #1]
 8006c22:	4618      	mov	r0, r3
 8006c24:	f000 f8b2 	bl	8006d8c <RTC_Bcd2ToByte>
 8006c28:	4603      	mov	r3, r0
 8006c2a:	461a      	mov	r2, r3
 8006c2c:	68bb      	ldr	r3, [r7, #8]
 8006c2e:	705a      	strb	r2, [r3, #1]
    sDate->Date  = (uint8_t)RTC_Bcd2ToByte(sDate->Date);
 8006c30:	68bb      	ldr	r3, [r7, #8]
 8006c32:	789b      	ldrb	r3, [r3, #2]
 8006c34:	4618      	mov	r0, r3
 8006c36:	f000 f8a9 	bl	8006d8c <RTC_Bcd2ToByte>
 8006c3a:	4603      	mov	r3, r0
 8006c3c:	461a      	mov	r2, r3
 8006c3e:	68bb      	ldr	r3, [r7, #8]
 8006c40:	709a      	strb	r2, [r3, #2]
  }
  return HAL_OK;
 8006c42:	2300      	movs	r3, #0
}
 8006c44:	4618      	mov	r0, r3
 8006c46:	3718      	adds	r7, #24
 8006c48:	46bd      	mov	sp, r7
 8006c4a:	bd80      	pop	{r7, pc}

08006c4c <HAL_RTC_WaitForSynchro>:
  * @param  hrtc pointer to a RTC_HandleTypeDef structure that contains
  *                the configuration information for RTC.
  * @retval HAL status
  */
HAL_StatusTypeDef HAL_RTC_WaitForSynchro(RTC_HandleTypeDef *hrtc)
{
 8006c4c:	b580      	push	{r7, lr}
 8006c4e:	b084      	sub	sp, #16
 8006c50:	af00      	add	r7, sp, #0
 8006c52:	6078      	str	r0, [r7, #4]
  uint32_t tickstart = 0U;
 8006c54:	2300      	movs	r3, #0
 8006c56:	60fb      	str	r3, [r7, #12]

  /* Clear RSF flag, keep reserved bits at reset values (setting other flags has no effect) */
  hrtc->Instance->ISR = ((uint32_t)(RTC_RSF_MASK & RTC_ISR_RESERVED_MASK));
 8006c58:	687b      	ldr	r3, [r7, #4]
 8006c5a:	681b      	ldr	r3, [r3, #0]
 8006c5c:	4a0d      	ldr	r2, [pc, #52]	; (8006c94 <HAL_RTC_WaitForSynchro+0x48>)
 8006c5e:	60da      	str	r2, [r3, #12]

  /* Get tick */
  tickstart = HAL_GetTick();
 8006c60:	f7fc f974 	bl	8002f4c <HAL_GetTick>
 8006c64:	60f8      	str	r0, [r7, #12]

  /* Wait the registers to be synchronised */
  while ((hrtc->Instance->ISR & RTC_ISR_RSF) == 0U)
 8006c66:	e009      	b.n	8006c7c <HAL_RTC_WaitForSynchro+0x30>
  {
    if ((HAL_GetTick() - tickstart) > RTC_TIMEOUT_VALUE)
 8006c68:	f7fc f970 	bl	8002f4c <HAL_GetTick>
 8006c6c:	4602      	mov	r2, r0
 8006c6e:	68fb      	ldr	r3, [r7, #12]
 8006c70:	1ad3      	subs	r3, r2, r3
 8006c72:	f5b3 7f7a 	cmp.w	r3, #1000	; 0x3e8
 8006c76:	d901      	bls.n	8006c7c <HAL_RTC_WaitForSynchro+0x30>
    {
      return HAL_TIMEOUT;
 8006c78:	2303      	movs	r3, #3
 8006c7a:	e007      	b.n	8006c8c <HAL_RTC_WaitForSynchro+0x40>
  while ((hrtc->Instance->ISR & RTC_ISR_RSF) == 0U)
 8006c7c:	687b      	ldr	r3, [r7, #4]
 8006c7e:	681b      	ldr	r3, [r3, #0]
 8006c80:	68db      	ldr	r3, [r3, #12]
 8006c82:	f003 0320 	and.w	r3, r3, #32
 8006c86:	2b00      	cmp	r3, #0
 8006c88:	d0ee      	beq.n	8006c68 <HAL_RTC_WaitForSynchro+0x1c>
    }
  }

  return HAL_OK;
 8006c8a:	2300      	movs	r3, #0
}
 8006c8c:	4618      	mov	r0, r3
 8006c8e:	3710      	adds	r7, #16
 8006c90:	46bd      	mov	sp, r7
 8006c92:	bd80      	pop	{r7, pc}
 8006c94:	00017f5f 	.word	0x00017f5f

08006c98 <RTC_EnterInitMode>:
  * @param  hrtc pointer to a RTC_HandleTypeDef structure that contains
  *                the configuration information for RTC.
  * @retval HAL status
  */
HAL_StatusTypeDef RTC_EnterInitMode(RTC_HandleTypeDef *hrtc)
{
 8006c98:	b580      	push	{r7, lr}
 8006c9a:	b084      	sub	sp, #16
 8006c9c:	af00      	add	r7, sp, #0
 8006c9e:	6078      	str	r0, [r7, #4]
  uint32_t tickstart = 0U;
 8006ca0:	2300      	movs	r3, #0
 8006ca2:	60bb      	str	r3, [r7, #8]
  HAL_StatusTypeDef status = HAL_OK;
 8006ca4:	2300      	movs	r3, #0
 8006ca6:	73fb      	strb	r3, [r7, #15]

  /* Check that Initialization mode is not already set */
  if (READ_BIT(hrtc->Instance->ISR, RTC_ISR_INITF) == 0U)
 8006ca8:	687b      	ldr	r3, [r7, #4]
 8006caa:	681b      	ldr	r3, [r3, #0]
 8006cac:	68db      	ldr	r3, [r3, #12]
 8006cae:	f003 0340 	and.w	r3, r3, #64	; 0x40
 8006cb2:	2b00      	cmp	r3, #0
 8006cb4:	d122      	bne.n	8006cfc <RTC_EnterInitMode+0x64>
  {
    /* Set INIT bit to enter Initialization mode */
    SET_BIT(hrtc->Instance->ISR, RTC_ISR_INIT);
 8006cb6:	687b      	ldr	r3, [r7, #4]
 8006cb8:	681b      	ldr	r3, [r3, #0]
 8006cba:	68da      	ldr	r2, [r3, #12]
 8006cbc:	687b      	ldr	r3, [r7, #4]
 8006cbe:	681b      	ldr	r3, [r3, #0]
 8006cc0:	f042 0280 	orr.w	r2, r2, #128	; 0x80
 8006cc4:	60da      	str	r2, [r3, #12]

    /* Get tick */
    tickstart = HAL_GetTick();
 8006cc6:	f7fc f941 	bl	8002f4c <HAL_GetTick>
 8006cca:	60b8      	str	r0, [r7, #8]

    /* Wait till RTC is in INIT state and if timeout is reached exit */
    while ((READ_BIT(hrtc->Instance->ISR, RTC_ISR_INITF) == 0U) && (status != HAL_ERROR))
 8006ccc:	e00c      	b.n	8006ce8 <RTC_EnterInitMode+0x50>
    {
      if ((HAL_GetTick() - tickstart) > RTC_TIMEOUT_VALUE)
 8006cce:	f7fc f93d 	bl	8002f4c <HAL_GetTick>
 8006cd2:	4602      	mov	r2, r0
 8006cd4:	68bb      	ldr	r3, [r7, #8]
 8006cd6:	1ad3      	subs	r3, r2, r3
 8006cd8:	f5b3 7f7a 	cmp.w	r3, #1000	; 0x3e8
 8006cdc:	d904      	bls.n	8006ce8 <RTC_EnterInitMode+0x50>
      {
        /* Set RTC state */
        hrtc->State = HAL_RTC_STATE_ERROR;
 8006cde:	687b      	ldr	r3, [r7, #4]
 8006ce0:	2204      	movs	r2, #4
 8006ce2:	775a      	strb	r2, [r3, #29]
        status = HAL_ERROR;
 8006ce4:	2301      	movs	r3, #1
 8006ce6:	73fb      	strb	r3, [r7, #15]
    while ((READ_BIT(hrtc->Instance->ISR, RTC_ISR_INITF) == 0U) && (status != HAL_ERROR))
 8006ce8:	687b      	ldr	r3, [r7, #4]
 8006cea:	681b      	ldr	r3, [r3, #0]
 8006cec:	68db      	ldr	r3, [r3, #12]
 8006cee:	f003 0340 	and.w	r3, r3, #64	; 0x40
 8006cf2:	2b00      	cmp	r3, #0
 8006cf4:	d102      	bne.n	8006cfc <RTC_EnterInitMode+0x64>
 8006cf6:	7bfb      	ldrb	r3, [r7, #15]
 8006cf8:	2b01      	cmp	r3, #1
 8006cfa:	d1e8      	bne.n	8006cce <RTC_EnterInitMode+0x36>
      }
    }
  }

  return status;
 8006cfc:	7bfb      	ldrb	r3, [r7, #15]
}
 8006cfe:	4618      	mov	r0, r3
 8006d00:	3710      	adds	r7, #16
 8006d02:	46bd      	mov	sp, r7
 8006d04:	bd80      	pop	{r7, pc}

08006d06 <RTC_ExitInitMode>:
  * @param  hrtc pointer to a RTC_HandleTypeDef structure that contains
  *                the configuration information for RTC.
  * @retval HAL status
  */
HAL_StatusTypeDef RTC_ExitInitMode(RTC_HandleTypeDef *hrtc)
{
 8006d06:	b580      	push	{r7, lr}
 8006d08:	b084      	sub	sp, #16
 8006d0a:	af00      	add	r7, sp, #0
 8006d0c:	6078      	str	r0, [r7, #4]
  HAL_StatusTypeDef status = HAL_OK;
 8006d0e:	2300      	movs	r3, #0
 8006d10:	73fb      	strb	r3, [r7, #15]

  /* Clear INIT bit to exit Initialization mode */
  CLEAR_BIT(hrtc->Instance->ISR, RTC_ISR_INIT);
 8006d12:	687b      	ldr	r3, [r7, #4]
 8006d14:	681b      	ldr	r3, [r3, #0]
 8006d16:	68da      	ldr	r2, [r3, #12]
 8006d18:	687b      	ldr	r3, [r7, #4]
 8006d1a:	681b      	ldr	r3, [r3, #0]
 8006d1c:	f022 0280 	bic.w	r2, r2, #128	; 0x80
 8006d20:	60da      	str	r2, [r3, #12]

  /* If CR_BYPSHAD bit = 0, wait for synchro */
  if (READ_BIT(hrtc->Instance->CR, RTC_CR_BYPSHAD) == 0U)
 8006d22:	687b      	ldr	r3, [r7, #4]
 8006d24:	681b      	ldr	r3, [r3, #0]
 8006d26:	689b      	ldr	r3, [r3, #8]
 8006d28:	f003 0320 	and.w	r3, r3, #32
 8006d2c:	2b00      	cmp	r3, #0
 8006d2e:	d10a      	bne.n	8006d46 <RTC_ExitInitMode+0x40>
  {
    if (HAL_RTC_WaitForSynchro(hrtc) != HAL_OK)
 8006d30:	6878      	ldr	r0, [r7, #4]
 8006d32:	f7ff ff8b 	bl	8006c4c <HAL_RTC_WaitForSynchro>
 8006d36:	4603      	mov	r3, r0
 8006d38:	2b00      	cmp	r3, #0
 8006d3a:	d004      	beq.n	8006d46 <RTC_ExitInitMode+0x40>
    {
      /* Set RTC state */
      hrtc->State = HAL_RTC_STATE_ERROR;
 8006d3c:	687b      	ldr	r3, [r7, #4]
 8006d3e:	2204      	movs	r2, #4
 8006d40:	775a      	strb	r2, [r3, #29]
      status = HAL_ERROR;
 8006d42:	2301      	movs	r3, #1
 8006d44:	73fb      	strb	r3, [r7, #15]
    }
  }

  return status;
 8006d46:	7bfb      	ldrb	r3, [r7, #15]
}
 8006d48:	4618      	mov	r0, r3
 8006d4a:	3710      	adds	r7, #16
 8006d4c:	46bd      	mov	sp, r7
 8006d4e:	bd80      	pop	{r7, pc}

08006d50 <RTC_ByteToBcd2>:
  * @brief  Converts a 2-digit number from decimal to BCD format.
  * @param  number decimal-formatted number (from 0 to 99) to be converted
  * @retval Converted byte
  */
uint8_t RTC_ByteToBcd2(uint8_t number)
{
 8006d50:	b480      	push	{r7}
 8006d52:	b085      	sub	sp, #20
 8006d54:	af00      	add	r7, sp, #0
 8006d56:	4603      	mov	r3, r0
 8006d58:	71fb      	strb	r3, [r7, #7]
  uint32_t bcdhigh = 0U;
 8006d5a:	2300      	movs	r3, #0
 8006d5c:	60fb      	str	r3, [r7, #12]

  while (number >= 10U)
 8006d5e:	e005      	b.n	8006d6c <RTC_ByteToBcd2+0x1c>
  {
    bcdhigh++;
 8006d60:	68fb      	ldr	r3, [r7, #12]
 8006d62:	3301      	adds	r3, #1
 8006d64:	60fb      	str	r3, [r7, #12]
    number -= 10U;
 8006d66:	79fb      	ldrb	r3, [r7, #7]
 8006d68:	3b0a      	subs	r3, #10
 8006d6a:	71fb      	strb	r3, [r7, #7]
  while (number >= 10U)
 8006d6c:	79fb      	ldrb	r3, [r7, #7]
 8006d6e:	2b09      	cmp	r3, #9
 8006d70:	d8f6      	bhi.n	8006d60 <RTC_ByteToBcd2+0x10>
  }

  return ((uint8_t)(bcdhigh << 4U) | number);
 8006d72:	68fb      	ldr	r3, [r7, #12]
 8006d74:	b2db      	uxtb	r3, r3
 8006d76:	011b      	lsls	r3, r3, #4
 8006d78:	b2da      	uxtb	r2, r3
 8006d7a:	79fb      	ldrb	r3, [r7, #7]
 8006d7c:	4313      	orrs	r3, r2
 8006d7e:	b2db      	uxtb	r3, r3
}
 8006d80:	4618      	mov	r0, r3
 8006d82:	3714      	adds	r7, #20
 8006d84:	46bd      	mov	sp, r7
 8006d86:	f85d 7b04 	ldr.w	r7, [sp], #4
 8006d8a:	4770      	bx	lr

08006d8c <RTC_Bcd2ToByte>:
  * @brief  Converts a 2-digit number from BCD to decimal format.
  * @param  number BCD-formatted number (from 00 to 99) to be converted
  * @retval Converted word
  */
uint8_t RTC_Bcd2ToByte(uint8_t number)
{
 8006d8c:	b480      	push	{r7}
 8006d8e:	b085      	sub	sp, #20
 8006d90:	af00      	add	r7, sp, #0
 8006d92:	4603      	mov	r3, r0
 8006d94:	71fb      	strb	r3, [r7, #7]
  uint32_t tens = 0U;
 8006d96:	2300      	movs	r3, #0
 8006d98:	60fb      	str	r3, [r7, #12]
  tens = (((uint32_t)number & 0xF0U) >> 4U) * 10U;
 8006d9a:	79fb      	ldrb	r3, [r7, #7]
 8006d9c:	091b      	lsrs	r3, r3, #4
 8006d9e:	b2db      	uxtb	r3, r3
 8006da0:	461a      	mov	r2, r3
 8006da2:	4613      	mov	r3, r2
 8006da4:	009b      	lsls	r3, r3, #2
 8006da6:	4413      	add	r3, r2
 8006da8:	005b      	lsls	r3, r3, #1
 8006daa:	60fb      	str	r3, [r7, #12]
  return (uint8_t)(tens + ((uint32_t)number & 0x0FU));
 8006dac:	68fb      	ldr	r3, [r7, #12]
 8006dae:	b2da      	uxtb	r2, r3
 8006db0:	79fb      	ldrb	r3, [r7, #7]
 8006db2:	f003 030f 	and.w	r3, r3, #15
 8006db6:	b2db      	uxtb	r3, r3
 8006db8:	4413      	add	r3, r2
 8006dba:	b2db      	uxtb	r3, r3
}
 8006dbc:	4618      	mov	r0, r3
 8006dbe:	3714      	adds	r7, #20
 8006dc0:	46bd      	mov	sp, r7
 8006dc2:	f85d 7b04 	ldr.w	r7, [sp], #4
 8006dc6:	4770      	bx	lr

08006dc8 <HAL_SPI_Init>:
  * @param  hspi pointer to a SPI_HandleTypeDef structure that contains
  *               the configuration information for SPI module.
  * @retval HAL status
  */
HAL_StatusTypeDef HAL_SPI_Init(SPI_HandleTypeDef *hspi)
{
 8006dc8:	b580      	push	{r7, lr}
 8006dca:	b082      	sub	sp, #8
 8006dcc:	af00      	add	r7, sp, #0
 8006dce:	6078      	str	r0, [r7, #4]
  /* Check the SPI handle allocation */
  if (hspi == NULL)
 8006dd0:	687b      	ldr	r3, [r7, #4]
 8006dd2:	2b00      	cmp	r3, #0
 8006dd4:	d101      	bne.n	8006dda <HAL_SPI_Init+0x12>
  {
    return HAL_ERROR;
 8006dd6:	2301      	movs	r3, #1
 8006dd8:	e07b      	b.n	8006ed2 <HAL_SPI_Init+0x10a>
  assert_param(IS_SPI_DATASIZE(hspi->Init.DataSize));
  assert_param(IS_SPI_NSS(hspi->Init.NSS));
  assert_param(IS_SPI_BAUDRATE_PRESCALER(hspi->Init.BaudRatePrescaler));
  assert_param(IS_SPI_FIRST_BIT(hspi->Init.FirstBit));
  assert_param(IS_SPI_TIMODE(hspi->Init.TIMode));
  if (hspi->Init.TIMode == SPI_TIMODE_DISABLE)
 8006dda:	687b      	ldr	r3, [r7, #4]
 8006ddc:	6a5b      	ldr	r3, [r3, #36]	; 0x24
 8006dde:	2b00      	cmp	r3, #0
 8006de0:	d108      	bne.n	8006df4 <HAL_SPI_Init+0x2c>
  {
    assert_param(IS_SPI_CPOL(hspi->Init.CLKPolarity));
    assert_param(IS_SPI_CPHA(hspi->Init.CLKPhase));

    if (hspi->Init.Mode == SPI_MODE_MASTER)
 8006de2:	687b      	ldr	r3, [r7, #4]
 8006de4:	685b      	ldr	r3, [r3, #4]
 8006de6:	f5b3 7f82 	cmp.w	r3, #260	; 0x104
 8006dea:	d009      	beq.n	8006e00 <HAL_SPI_Init+0x38>
      assert_param(IS_SPI_BAUDRATE_PRESCALER(hspi->Init.BaudRatePrescaler));
    }
    else
    {
      /* Baudrate prescaler not use in Motoraola Slave mode. force to default value */
      hspi->Init.BaudRatePrescaler = SPI_BAUDRATEPRESCALER_2;
 8006dec:	687b      	ldr	r3, [r7, #4]
 8006dee:	2200      	movs	r2, #0
 8006df0:	61da      	str	r2, [r3, #28]
 8006df2:	e005      	b.n	8006e00 <HAL_SPI_Init+0x38>
  else
  {
    assert_param(IS_SPI_BAUDRATE_PRESCALER(hspi->Init.BaudRatePrescaler));

    /* Force polarity and phase to TI protocaol requirements */
    hspi->Init.CLKPolarity = SPI_POLARITY_LOW;
 8006df4:	687b      	ldr	r3, [r7, #4]
 8006df6:	2200      	movs	r2, #0
 8006df8:	611a      	str	r2, [r3, #16]
    hspi->Init.CLKPhase    = SPI_PHASE_1EDGE;
 8006dfa:	687b      	ldr	r3, [r7, #4]
 8006dfc:	2200      	movs	r2, #0
 8006dfe:	615a      	str	r2, [r3, #20]
  if (hspi->Init.CRCCalculation == SPI_CRCCALCULATION_ENABLE)
  {
    assert_param(IS_SPI_CRC_POLYNOMIAL(hspi->Init.CRCPolynomial));
  }
#else
  hspi->Init.CRCCalculation = SPI_CRCCALCULATION_DISABLE;
 8006e00:	687b      	ldr	r3, [r7, #4]
 8006e02:	2200      	movs	r2, #0
 8006e04:	629a      	str	r2, [r3, #40]	; 0x28
#endif /* USE_SPI_CRC */

  if (hspi->State == HAL_SPI_STATE_RESET)
 8006e06:	687b      	ldr	r3, [r7, #4]
 8006e08:	f893 3051 	ldrb.w	r3, [r3, #81]	; 0x51
 8006e0c:	b2db      	uxtb	r3, r3
 8006e0e:	2b00      	cmp	r3, #0
 8006e10:	d106      	bne.n	8006e20 <HAL_SPI_Init+0x58>
  {
    /* Allocate lock resource and initialize it */
    hspi->Lock = HAL_UNLOCKED;
 8006e12:	687b      	ldr	r3, [r7, #4]
 8006e14:	2200      	movs	r2, #0
 8006e16:	f883 2050 	strb.w	r2, [r3, #80]	; 0x50

    /* Init the low level hardware : GPIO, CLOCK, NVIC... */
    hspi->MspInitCallback(hspi);
#else
    /* Init the low level hardware : GPIO, CLOCK, NVIC... */
    HAL_SPI_MspInit(hspi);
 8006e1a:	6878      	ldr	r0, [r7, #4]
 8006e1c:	f7fb fd3a 	bl	8002894 <HAL_SPI_MspInit>
#endif /* USE_HAL_SPI_REGISTER_CALLBACKS */
  }

  hspi->State = HAL_SPI_STATE_BUSY;
 8006e20:	687b      	ldr	r3, [r7, #4]
 8006e22:	2202      	movs	r2, #2
 8006e24:	f883 2051 	strb.w	r2, [r3, #81]	; 0x51

  /* Disable the selected SPI peripheral */
  __HAL_SPI_DISABLE(hspi);
 8006e28:	687b      	ldr	r3, [r7, #4]
 8006e2a:	681b      	ldr	r3, [r3, #0]
 8006e2c:	681a      	ldr	r2, [r3, #0]
 8006e2e:	687b      	ldr	r3, [r7, #4]
 8006e30:	681b      	ldr	r3, [r3, #0]
 8006e32:	f022 0240 	bic.w	r2, r2, #64	; 0x40
 8006e36:	601a      	str	r2, [r3, #0]

  /*----------------------- SPIx CR1 & CR2 Configuration ---------------------*/
  /* Configure : SPI Mode, Communication Mode, Data size, Clock polarity and phase, NSS management,
  Communication speed, First bit and CRC calculation state */
  WRITE_REG(hspi->Instance->CR1, ((hspi->Init.Mode & (SPI_CR1_MSTR | SPI_CR1_SSI)) |
 8006e38:	687b      	ldr	r3, [r7, #4]
 8006e3a:	685b      	ldr	r3, [r3, #4]
 8006e3c:	f403 7282 	and.w	r2, r3, #260	; 0x104
 8006e40:	687b      	ldr	r3, [r7, #4]
 8006e42:	689b      	ldr	r3, [r3, #8]
 8006e44:	f403 4304 	and.w	r3, r3, #33792	; 0x8400
 8006e48:	431a      	orrs	r2, r3
 8006e4a:	687b      	ldr	r3, [r7, #4]
 8006e4c:	68db      	ldr	r3, [r3, #12]
 8006e4e:	f403 6300 	and.w	r3, r3, #2048	; 0x800
 8006e52:	431a      	orrs	r2, r3
 8006e54:	687b      	ldr	r3, [r7, #4]
 8006e56:	691b      	ldr	r3, [r3, #16]
 8006e58:	f003 0302 	and.w	r3, r3, #2
 8006e5c:	431a      	orrs	r2, r3
 8006e5e:	687b      	ldr	r3, [r7, #4]
 8006e60:	695b      	ldr	r3, [r3, #20]
 8006e62:	f003 0301 	and.w	r3, r3, #1
 8006e66:	431a      	orrs	r2, r3
 8006e68:	687b      	ldr	r3, [r7, #4]
 8006e6a:	699b      	ldr	r3, [r3, #24]
 8006e6c:	f403 7300 	and.w	r3, r3, #512	; 0x200
 8006e70:	431a      	orrs	r2, r3
 8006e72:	687b      	ldr	r3, [r7, #4]
 8006e74:	69db      	ldr	r3, [r3, #28]
 8006e76:	f003 0338 	and.w	r3, r3, #56	; 0x38
 8006e7a:	431a      	orrs	r2, r3
 8006e7c:	687b      	ldr	r3, [r7, #4]
 8006e7e:	6a1b      	ldr	r3, [r3, #32]
 8006e80:	f003 0380 	and.w	r3, r3, #128	; 0x80
 8006e84:	ea42 0103 	orr.w	r1, r2, r3
 8006e88:	687b      	ldr	r3, [r7, #4]
 8006e8a:	6a9b      	ldr	r3, [r3, #40]	; 0x28
 8006e8c:	f403 5200 	and.w	r2, r3, #8192	; 0x2000
 8006e90:	687b      	ldr	r3, [r7, #4]
 8006e92:	681b      	ldr	r3, [r3, #0]
 8006e94:	430a      	orrs	r2, r1
 8006e96:	601a      	str	r2, [r3, #0]
                                  (hspi->Init.BaudRatePrescaler & SPI_CR1_BR_Msk) |
                                  (hspi->Init.FirstBit  & SPI_CR1_LSBFIRST) |
                                  (hspi->Init.CRCCalculation & SPI_CR1_CRCEN)));

  /* Configure : NSS management, TI Mode */
  WRITE_REG(hspi->Instance->CR2, (((hspi->Init.NSS >> 16U) & SPI_CR2_SSOE) | (hspi->Init.TIMode & SPI_CR2_FRF)));
 8006e98:	687b      	ldr	r3, [r7, #4]
 8006e9a:	699b      	ldr	r3, [r3, #24]
 8006e9c:	0c1b      	lsrs	r3, r3, #16
 8006e9e:	f003 0104 	and.w	r1, r3, #4
 8006ea2:	687b      	ldr	r3, [r7, #4]
 8006ea4:	6a5b      	ldr	r3, [r3, #36]	; 0x24
 8006ea6:	f003 0210 	and.w	r2, r3, #16
 8006eaa:	687b      	ldr	r3, [r7, #4]
 8006eac:	681b      	ldr	r3, [r3, #0]
 8006eae:	430a      	orrs	r2, r1
 8006eb0:	605a      	str	r2, [r3, #4]
  }
#endif /* USE_SPI_CRC */

#if defined(SPI_I2SCFGR_I2SMOD)
  /* Activate the SPI mode (Make sure that I2SMOD bit in I2SCFGR register is reset) */
  CLEAR_BIT(hspi->Instance->I2SCFGR, SPI_I2SCFGR_I2SMOD);
 8006eb2:	687b      	ldr	r3, [r7, #4]
 8006eb4:	681b      	ldr	r3, [r3, #0]
 8006eb6:	69da      	ldr	r2, [r3, #28]
 8006eb8:	687b      	ldr	r3, [r7, #4]
 8006eba:	681b      	ldr	r3, [r3, #0]
 8006ebc:	f422 6200 	bic.w	r2, r2, #2048	; 0x800
 8006ec0:	61da      	str	r2, [r3, #28]
#endif /* SPI_I2SCFGR_I2SMOD */

  hspi->ErrorCode = HAL_SPI_ERROR_NONE;
 8006ec2:	687b      	ldr	r3, [r7, #4]
 8006ec4:	2200      	movs	r2, #0
 8006ec6:	655a      	str	r2, [r3, #84]	; 0x54
  hspi->State     = HAL_SPI_STATE_READY;
 8006ec8:	687b      	ldr	r3, [r7, #4]
 8006eca:	2201      	movs	r2, #1
 8006ecc:	f883 2051 	strb.w	r2, [r3, #81]	; 0x51

  return HAL_OK;
 8006ed0:	2300      	movs	r3, #0
}
 8006ed2:	4618      	mov	r0, r3
 8006ed4:	3708      	adds	r7, #8
 8006ed6:	46bd      	mov	sp, r7
 8006ed8:	bd80      	pop	{r7, pc}

08006eda <HAL_SPI_Transmit>:
  * @param  Size amount of data to be sent
  * @param  Timeout Timeout duration
  * @retval HAL status
  */
HAL_StatusTypeDef HAL_SPI_Transmit(SPI_HandleTypeDef *hspi, uint8_t *pData, uint16_t Size, uint32_t Timeout)
{
 8006eda:	b580      	push	{r7, lr}
 8006edc:	b088      	sub	sp, #32
 8006ede:	af00      	add	r7, sp, #0
 8006ee0:	60f8      	str	r0, [r7, #12]
 8006ee2:	60b9      	str	r1, [r7, #8]
 8006ee4:	603b      	str	r3, [r7, #0]
 8006ee6:	4613      	mov	r3, r2
 8006ee8:	80fb      	strh	r3, [r7, #6]
  uint32_t tickstart;
  HAL_StatusTypeDef errorcode = HAL_OK;
 8006eea:	2300      	movs	r3, #0
 8006eec:	77fb      	strb	r3, [r7, #31]

  /* Check Direction parameter */
  assert_param(IS_SPI_DIRECTION_2LINES_OR_1LINE(hspi->Init.Direction));

  /* Process Locked */
  __HAL_LOCK(hspi);
 8006eee:	68fb      	ldr	r3, [r7, #12]
 8006ef0:	f893 3050 	ldrb.w	r3, [r3, #80]	; 0x50
 8006ef4:	2b01      	cmp	r3, #1
 8006ef6:	d101      	bne.n	8006efc <HAL_SPI_Transmit+0x22>
 8006ef8:	2302      	movs	r3, #2
 8006efa:	e12d      	b.n	8007158 <HAL_SPI_Transmit+0x27e>
 8006efc:	68fb      	ldr	r3, [r7, #12]
 8006efe:	2201      	movs	r2, #1
 8006f00:	f883 2050 	strb.w	r2, [r3, #80]	; 0x50

  /* Init tickstart for timeout management*/
  tickstart = HAL_GetTick();
 8006f04:	f7fc f822 	bl	8002f4c <HAL_GetTick>
 8006f08:	61b8      	str	r0, [r7, #24]
  initial_TxXferCount = Size;
 8006f0a:	88fb      	ldrh	r3, [r7, #6]
 8006f0c:	82fb      	strh	r3, [r7, #22]

  if (hspi->State != HAL_SPI_STATE_READY)
 8006f0e:	68fb      	ldr	r3, [r7, #12]
 8006f10:	f893 3051 	ldrb.w	r3, [r3, #81]	; 0x51
 8006f14:	b2db      	uxtb	r3, r3
 8006f16:	2b01      	cmp	r3, #1
 8006f18:	d002      	beq.n	8006f20 <HAL_SPI_Transmit+0x46>
  {
    errorcode = HAL_BUSY;
 8006f1a:	2302      	movs	r3, #2
 8006f1c:	77fb      	strb	r3, [r7, #31]
    goto error;
 8006f1e:	e116      	b.n	800714e <HAL_SPI_Transmit+0x274>
  }

  if ((pData == NULL) || (Size == 0U))
 8006f20:	68bb      	ldr	r3, [r7, #8]
 8006f22:	2b00      	cmp	r3, #0
 8006f24:	d002      	beq.n	8006f2c <HAL_SPI_Transmit+0x52>
 8006f26:	88fb      	ldrh	r3, [r7, #6]
 8006f28:	2b00      	cmp	r3, #0
 8006f2a:	d102      	bne.n	8006f32 <HAL_SPI_Transmit+0x58>
  {
    errorcode = HAL_ERROR;
 8006f2c:	2301      	movs	r3, #1
 8006f2e:	77fb      	strb	r3, [r7, #31]
    goto error;
 8006f30:	e10d      	b.n	800714e <HAL_SPI_Transmit+0x274>
  }

  /* Set the transaction information */
  hspi->State       = HAL_SPI_STATE_BUSY_TX;
 8006f32:	68fb      	ldr	r3, [r7, #12]
 8006f34:	2203      	movs	r2, #3
 8006f36:	f883 2051 	strb.w	r2, [r3, #81]	; 0x51
  hspi->ErrorCode   = HAL_SPI_ERROR_NONE;
 8006f3a:	68fb      	ldr	r3, [r7, #12]
 8006f3c:	2200      	movs	r2, #0
 8006f3e:	655a      	str	r2, [r3, #84]	; 0x54
  hspi->pTxBuffPtr  = (uint8_t *)pData;
 8006f40:	68fb      	ldr	r3, [r7, #12]
 8006f42:	68ba      	ldr	r2, [r7, #8]
 8006f44:	631a      	str	r2, [r3, #48]	; 0x30
  hspi->TxXferSize  = Size;
 8006f46:	68fb      	ldr	r3, [r7, #12]
 8006f48:	88fa      	ldrh	r2, [r7, #6]
 8006f4a:	869a      	strh	r2, [r3, #52]	; 0x34
  hspi->TxXferCount = Size;
 8006f4c:	68fb      	ldr	r3, [r7, #12]
 8006f4e:	88fa      	ldrh	r2, [r7, #6]
 8006f50:	86da      	strh	r2, [r3, #54]	; 0x36

  /*Init field not used in handle to zero */
  hspi->pRxBuffPtr  = (uint8_t *)NULL;
 8006f52:	68fb      	ldr	r3, [r7, #12]
 8006f54:	2200      	movs	r2, #0
 8006f56:	639a      	str	r2, [r3, #56]	; 0x38
  hspi->RxXferSize  = 0U;
 8006f58:	68fb      	ldr	r3, [r7, #12]
 8006f5a:	2200      	movs	r2, #0
 8006f5c:	879a      	strh	r2, [r3, #60]	; 0x3c
  hspi->RxXferCount = 0U;
 8006f5e:	68fb      	ldr	r3, [r7, #12]
 8006f60:	2200      	movs	r2, #0
 8006f62:	87da      	strh	r2, [r3, #62]	; 0x3e
  hspi->TxISR       = NULL;
 8006f64:	68fb      	ldr	r3, [r7, #12]
 8006f66:	2200      	movs	r2, #0
 8006f68:	645a      	str	r2, [r3, #68]	; 0x44
  hspi->RxISR       = NULL;
 8006f6a:	68fb      	ldr	r3, [r7, #12]
 8006f6c:	2200      	movs	r2, #0
 8006f6e:	641a      	str	r2, [r3, #64]	; 0x40

  /* Configure communication direction : 1Line */
  if (hspi->Init.Direction == SPI_DIRECTION_1LINE)
 8006f70:	68fb      	ldr	r3, [r7, #12]
 8006f72:	689b      	ldr	r3, [r3, #8]
 8006f74:	f5b3 4f00 	cmp.w	r3, #32768	; 0x8000
 8006f78:	d10f      	bne.n	8006f9a <HAL_SPI_Transmit+0xc0>
  {
    /* Disable SPI Peripheral before set 1Line direction (BIDIOE bit) */
    __HAL_SPI_DISABLE(hspi);
 8006f7a:	68fb      	ldr	r3, [r7, #12]
 8006f7c:	681b      	ldr	r3, [r3, #0]
 8006f7e:	681a      	ldr	r2, [r3, #0]
 8006f80:	68fb      	ldr	r3, [r7, #12]
 8006f82:	681b      	ldr	r3, [r3, #0]
 8006f84:	f022 0240 	bic.w	r2, r2, #64	; 0x40
 8006f88:	601a      	str	r2, [r3, #0]
    SPI_1LINE_TX(hspi);
 8006f8a:	68fb      	ldr	r3, [r7, #12]
 8006f8c:	681b      	ldr	r3, [r3, #0]
 8006f8e:	681a      	ldr	r2, [r3, #0]
 8006f90:	68fb      	ldr	r3, [r7, #12]
 8006f92:	681b      	ldr	r3, [r3, #0]
 8006f94:	f442 4280 	orr.w	r2, r2, #16384	; 0x4000
 8006f98:	601a      	str	r2, [r3, #0]
    SPI_RESET_CRC(hspi);
  }
#endif /* USE_SPI_CRC */

  /* Check if the SPI is already enabled */
  if ((hspi->Instance->CR1 & SPI_CR1_SPE) != SPI_CR1_SPE)
 8006f9a:	68fb      	ldr	r3, [r7, #12]
 8006f9c:	681b      	ldr	r3, [r3, #0]
 8006f9e:	681b      	ldr	r3, [r3, #0]
 8006fa0:	f003 0340 	and.w	r3, r3, #64	; 0x40
 8006fa4:	2b40      	cmp	r3, #64	; 0x40
 8006fa6:	d007      	beq.n	8006fb8 <HAL_SPI_Transmit+0xde>
  {
    /* Enable SPI peripheral */
    __HAL_SPI_ENABLE(hspi);
 8006fa8:	68fb      	ldr	r3, [r7, #12]
 8006faa:	681b      	ldr	r3, [r3, #0]
 8006fac:	681a      	ldr	r2, [r3, #0]
 8006fae:	68fb      	ldr	r3, [r7, #12]
 8006fb0:	681b      	ldr	r3, [r3, #0]
 8006fb2:	f042 0240 	orr.w	r2, r2, #64	; 0x40
 8006fb6:	601a      	str	r2, [r3, #0]
  }

  /* Transmit data in 16 Bit mode */
  if (hspi->Init.DataSize == SPI_DATASIZE_16BIT)
 8006fb8:	68fb      	ldr	r3, [r7, #12]
 8006fba:	68db      	ldr	r3, [r3, #12]
 8006fbc:	f5b3 6f00 	cmp.w	r3, #2048	; 0x800
 8006fc0:	d14f      	bne.n	8007062 <HAL_SPI_Transmit+0x188>
  {
    if ((hspi->Init.Mode == SPI_MODE_SLAVE) || (initial_TxXferCount == 0x01U))
 8006fc2:	68fb      	ldr	r3, [r7, #12]
 8006fc4:	685b      	ldr	r3, [r3, #4]
 8006fc6:	2b00      	cmp	r3, #0
 8006fc8:	d002      	beq.n	8006fd0 <HAL_SPI_Transmit+0xf6>
 8006fca:	8afb      	ldrh	r3, [r7, #22]
 8006fcc:	2b01      	cmp	r3, #1
 8006fce:	d142      	bne.n	8007056 <HAL_SPI_Transmit+0x17c>
    {
      hspi->Instance->DR = *((uint16_t *)hspi->pTxBuffPtr);
 8006fd0:	68fb      	ldr	r3, [r7, #12]
 8006fd2:	6b1b      	ldr	r3, [r3, #48]	; 0x30
 8006fd4:	881a      	ldrh	r2, [r3, #0]
 8006fd6:	68fb      	ldr	r3, [r7, #12]
 8006fd8:	681b      	ldr	r3, [r3, #0]
 8006fda:	60da      	str	r2, [r3, #12]
      hspi->pTxBuffPtr += sizeof(uint16_t);
 8006fdc:	68fb      	ldr	r3, [r7, #12]
 8006fde:	6b1b      	ldr	r3, [r3, #48]	; 0x30
 8006fe0:	1c9a      	adds	r2, r3, #2
 8006fe2:	68fb      	ldr	r3, [r7, #12]
 8006fe4:	631a      	str	r2, [r3, #48]	; 0x30
      hspi->TxXferCount--;
 8006fe6:	68fb      	ldr	r3, [r7, #12]
 8006fe8:	8edb      	ldrh	r3, [r3, #54]	; 0x36
 8006fea:	b29b      	uxth	r3, r3
 8006fec:	3b01      	subs	r3, #1
 8006fee:	b29a      	uxth	r2, r3
 8006ff0:	68fb      	ldr	r3, [r7, #12]
 8006ff2:	86da      	strh	r2, [r3, #54]	; 0x36
    }
    /* Transmit data in 16 Bit mode */
    while (hspi->TxXferCount > 0U)
 8006ff4:	e02f      	b.n	8007056 <HAL_SPI_Transmit+0x17c>
    {
      /* Wait until TXE flag is set to send data */
      if (__HAL_SPI_GET_FLAG(hspi, SPI_FLAG_TXE))
 8006ff6:	68fb      	ldr	r3, [r7, #12]
 8006ff8:	681b      	ldr	r3, [r3, #0]
 8006ffa:	689b      	ldr	r3, [r3, #8]
 8006ffc:	f003 0302 	and.w	r3, r3, #2
 8007000:	2b02      	cmp	r3, #2
 8007002:	d112      	bne.n	800702a <HAL_SPI_Transmit+0x150>
      {
        hspi->Instance->DR = *((uint16_t *)hspi->pTxBuffPtr);
 8007004:	68fb      	ldr	r3, [r7, #12]
 8007006:	6b1b      	ldr	r3, [r3, #48]	; 0x30
 8007008:	881a      	ldrh	r2, [r3, #0]
 800700a:	68fb      	ldr	r3, [r7, #12]
 800700c:	681b      	ldr	r3, [r3, #0]
 800700e:	60da      	str	r2, [r3, #12]
        hspi->pTxBuffPtr += sizeof(uint16_t);
 8007010:	68fb      	ldr	r3, [r7, #12]
 8007012:	6b1b      	ldr	r3, [r3, #48]	; 0x30
 8007014:	1c9a      	adds	r2, r3, #2
 8007016:	68fb      	ldr	r3, [r7, #12]
 8007018:	631a      	str	r2, [r3, #48]	; 0x30
        hspi->TxXferCount--;
 800701a:	68fb      	ldr	r3, [r7, #12]
 800701c:	8edb      	ldrh	r3, [r3, #54]	; 0x36
 800701e:	b29b      	uxth	r3, r3
 8007020:	3b01      	subs	r3, #1
 8007022:	b29a      	uxth	r2, r3
 8007024:	68fb      	ldr	r3, [r7, #12]
 8007026:	86da      	strh	r2, [r3, #54]	; 0x36
 8007028:	e015      	b.n	8007056 <HAL_SPI_Transmit+0x17c>
      }
      else
      {
        /* Timeout management */
        if ((((HAL_GetTick() - tickstart) >=  Timeout) && (Timeout != HAL_MAX_DELAY)) || (Timeout == 0U))
 800702a:	f7fb ff8f 	bl	8002f4c <HAL_GetTick>
 800702e:	4602      	mov	r2, r0
 8007030:	69bb      	ldr	r3, [r7, #24]
 8007032:	1ad3      	subs	r3, r2, r3
 8007034:	683a      	ldr	r2, [r7, #0]
 8007036:	429a      	cmp	r2, r3
 8007038:	d803      	bhi.n	8007042 <HAL_SPI_Transmit+0x168>
 800703a:	683b      	ldr	r3, [r7, #0]
 800703c:	f1b3 3fff 	cmp.w	r3, #4294967295	; 0xffffffff
 8007040:	d102      	bne.n	8007048 <HAL_SPI_Transmit+0x16e>
 8007042:	683b      	ldr	r3, [r7, #0]
 8007044:	2b00      	cmp	r3, #0
 8007046:	d106      	bne.n	8007056 <HAL_SPI_Transmit+0x17c>
        {
          errorcode = HAL_TIMEOUT;
 8007048:	2303      	movs	r3, #3
 800704a:	77fb      	strb	r3, [r7, #31]
          hspi->State = HAL_SPI_STATE_READY;
 800704c:	68fb      	ldr	r3, [r7, #12]
 800704e:	2201      	movs	r2, #1
 8007050:	f883 2051 	strb.w	r2, [r3, #81]	; 0x51
          goto error;
 8007054:	e07b      	b.n	800714e <HAL_SPI_Transmit+0x274>
    while (hspi->TxXferCount > 0U)
 8007056:	68fb      	ldr	r3, [r7, #12]
 8007058:	8edb      	ldrh	r3, [r3, #54]	; 0x36
 800705a:	b29b      	uxth	r3, r3
 800705c:	2b00      	cmp	r3, #0
 800705e:	d1ca      	bne.n	8006ff6 <HAL_SPI_Transmit+0x11c>
 8007060:	e050      	b.n	8007104 <HAL_SPI_Transmit+0x22a>
    }
  }
  /* Transmit data in 8 Bit mode */
  else
  {
    if ((hspi->Init.Mode == SPI_MODE_SLAVE) || (initial_TxXferCount == 0x01U))
 8007062:	68fb      	ldr	r3, [r7, #12]
 8007064:	685b      	ldr	r3, [r3, #4]
 8007066:	2b00      	cmp	r3, #0
 8007068:	d002      	beq.n	8007070 <HAL_SPI_Transmit+0x196>
 800706a:	8afb      	ldrh	r3, [r7, #22]
 800706c:	2b01      	cmp	r3, #1
 800706e:	d144      	bne.n	80070fa <HAL_SPI_Transmit+0x220>
    {
      *((__IO uint8_t *)&hspi->Instance->DR) = (*hspi->pTxBuffPtr);
 8007070:	68fb      	ldr	r3, [r7, #12]
 8007072:	6b1a      	ldr	r2, [r3, #48]	; 0x30
 8007074:	68fb      	ldr	r3, [r7, #12]
 8007076:	681b      	ldr	r3, [r3, #0]
 8007078:	330c      	adds	r3, #12
 800707a:	7812      	ldrb	r2, [r2, #0]
 800707c:	701a      	strb	r2, [r3, #0]
      hspi->pTxBuffPtr += sizeof(uint8_t);
 800707e:	68fb      	ldr	r3, [r7, #12]
 8007080:	6b1b      	ldr	r3, [r3, #48]	; 0x30
 8007082:	1c5a      	adds	r2, r3, #1
 8007084:	68fb      	ldr	r3, [r7, #12]
 8007086:	631a      	str	r2, [r3, #48]	; 0x30
      hspi->TxXferCount--;
 8007088:	68fb      	ldr	r3, [r7, #12]
 800708a:	8edb      	ldrh	r3, [r3, #54]	; 0x36
 800708c:	b29b      	uxth	r3, r3
 800708e:	3b01      	subs	r3, #1
 8007090:	b29a      	uxth	r2, r3
 8007092:	68fb      	ldr	r3, [r7, #12]
 8007094:	86da      	strh	r2, [r3, #54]	; 0x36
    }
    while (hspi->TxXferCount > 0U)
 8007096:	e030      	b.n	80070fa <HAL_SPI_Transmit+0x220>
    {
      /* Wait until TXE flag is set to send data */
      if (__HAL_SPI_GET_FLAG(hspi, SPI_FLAG_TXE))
 8007098:	68fb      	ldr	r3, [r7, #12]
 800709a:	681b      	ldr	r3, [r3, #0]
 800709c:	689b      	ldr	r3, [r3, #8]
 800709e:	f003 0302 	and.w	r3, r3, #2
 80070a2:	2b02      	cmp	r3, #2
 80070a4:	d113      	bne.n	80070ce <HAL_SPI_Transmit+0x1f4>
      {
        *((__IO uint8_t *)&hspi->Instance->DR) = (*hspi->pTxBuffPtr);
 80070a6:	68fb      	ldr	r3, [r7, #12]
 80070a8:	6b1a      	ldr	r2, [r3, #48]	; 0x30
 80070aa:	68fb      	ldr	r3, [r7, #12]
 80070ac:	681b      	ldr	r3, [r3, #0]
 80070ae:	330c      	adds	r3, #12
 80070b0:	7812      	ldrb	r2, [r2, #0]
 80070b2:	701a      	strb	r2, [r3, #0]
        hspi->pTxBuffPtr += sizeof(uint8_t);
 80070b4:	68fb      	ldr	r3, [r7, #12]
 80070b6:	6b1b      	ldr	r3, [r3, #48]	; 0x30
 80070b8:	1c5a      	adds	r2, r3, #1
 80070ba:	68fb      	ldr	r3, [r7, #12]
 80070bc:	631a      	str	r2, [r3, #48]	; 0x30
        hspi->TxXferCount--;
 80070be:	68fb      	ldr	r3, [r7, #12]
 80070c0:	8edb      	ldrh	r3, [r3, #54]	; 0x36
 80070c2:	b29b      	uxth	r3, r3
 80070c4:	3b01      	subs	r3, #1
 80070c6:	b29a      	uxth	r2, r3
 80070c8:	68fb      	ldr	r3, [r7, #12]
 80070ca:	86da      	strh	r2, [r3, #54]	; 0x36
 80070cc:	e015      	b.n	80070fa <HAL_SPI_Transmit+0x220>
      }
      else
      {
        /* Timeout management */
        if ((((HAL_GetTick() - tickstart) >=  Timeout) && (Timeout != HAL_MAX_DELAY)) || (Timeout == 0U))
 80070ce:	f7fb ff3d 	bl	8002f4c <HAL_GetTick>
 80070d2:	4602      	mov	r2, r0
 80070d4:	69bb      	ldr	r3, [r7, #24]
 80070d6:	1ad3      	subs	r3, r2, r3
 80070d8:	683a      	ldr	r2, [r7, #0]
 80070da:	429a      	cmp	r2, r3
 80070dc:	d803      	bhi.n	80070e6 <HAL_SPI_Transmit+0x20c>
 80070de:	683b      	ldr	r3, [r7, #0]
 80070e0:	f1b3 3fff 	cmp.w	r3, #4294967295	; 0xffffffff
 80070e4:	d102      	bne.n	80070ec <HAL_SPI_Transmit+0x212>
 80070e6:	683b      	ldr	r3, [r7, #0]
 80070e8:	2b00      	cmp	r3, #0
 80070ea:	d106      	bne.n	80070fa <HAL_SPI_Transmit+0x220>
        {
          errorcode = HAL_TIMEOUT;
 80070ec:	2303      	movs	r3, #3
 80070ee:	77fb      	strb	r3, [r7, #31]
          hspi->State = HAL_SPI_STATE_READY;
 80070f0:	68fb      	ldr	r3, [r7, #12]
 80070f2:	2201      	movs	r2, #1
 80070f4:	f883 2051 	strb.w	r2, [r3, #81]	; 0x51
          goto error;
 80070f8:	e029      	b.n	800714e <HAL_SPI_Transmit+0x274>
    while (hspi->TxXferCount > 0U)
 80070fa:	68fb      	ldr	r3, [r7, #12]
 80070fc:	8edb      	ldrh	r3, [r3, #54]	; 0x36
 80070fe:	b29b      	uxth	r3, r3
 8007100:	2b00      	cmp	r3, #0
 8007102:	d1c9      	bne.n	8007098 <HAL_SPI_Transmit+0x1be>
    SET_BIT(hspi->Instance->CR1, SPI_CR1_CRCNEXT);
  }
#endif /* USE_SPI_CRC */

  /* Check the end of the transaction */
  if (SPI_EndRxTxTransaction(hspi, Timeout, tickstart) != HAL_OK)
 8007104:	69ba      	ldr	r2, [r7, #24]
 8007106:	6839      	ldr	r1, [r7, #0]
 8007108:	68f8      	ldr	r0, [r7, #12]
 800710a:	f000 fd27 	bl	8007b5c <SPI_EndRxTxTransaction>
 800710e:	4603      	mov	r3, r0
 8007110:	2b00      	cmp	r3, #0
 8007112:	d002      	beq.n	800711a <HAL_SPI_Transmit+0x240>
  {
    hspi->ErrorCode = HAL_SPI_ERROR_FLAG;
 8007114:	68fb      	ldr	r3, [r7, #12]
 8007116:	2220      	movs	r2, #32
 8007118:	655a      	str	r2, [r3, #84]	; 0x54
  }

  /* Clear overrun flag in 2 Lines communication mode because received is not read */
  if (hspi->Init.Direction == SPI_DIRECTION_2LINES)
 800711a:	68fb      	ldr	r3, [r7, #12]
 800711c:	689b      	ldr	r3, [r3, #8]
 800711e:	2b00      	cmp	r3, #0
 8007120:	d10a      	bne.n	8007138 <HAL_SPI_Transmit+0x25e>
  {
    __HAL_SPI_CLEAR_OVRFLAG(hspi);
 8007122:	2300      	movs	r3, #0
 8007124:	613b      	str	r3, [r7, #16]
 8007126:	68fb      	ldr	r3, [r7, #12]
 8007128:	681b      	ldr	r3, [r3, #0]
 800712a:	68db      	ldr	r3, [r3, #12]
 800712c:	613b      	str	r3, [r7, #16]
 800712e:	68fb      	ldr	r3, [r7, #12]
 8007130:	681b      	ldr	r3, [r3, #0]
 8007132:	689b      	ldr	r3, [r3, #8]
 8007134:	613b      	str	r3, [r7, #16]
 8007136:	693b      	ldr	r3, [r7, #16]
  }

  if (hspi->ErrorCode != HAL_SPI_ERROR_NONE)
 8007138:	68fb      	ldr	r3, [r7, #12]
 800713a:	6d5b      	ldr	r3, [r3, #84]	; 0x54
 800713c:	2b00      	cmp	r3, #0
 800713e:	d002      	beq.n	8007146 <HAL_SPI_Transmit+0x26c>
  {
    errorcode = HAL_ERROR;
 8007140:	2301      	movs	r3, #1
 8007142:	77fb      	strb	r3, [r7, #31]
 8007144:	e003      	b.n	800714e <HAL_SPI_Transmit+0x274>
  }
  else
  {
    hspi->State = HAL_SPI_STATE_READY;
 8007146:	68fb      	ldr	r3, [r7, #12]
 8007148:	2201      	movs	r2, #1
 800714a:	f883 2051 	strb.w	r2, [r3, #81]	; 0x51
  }

error:
  /* Process Unlocked */
  __HAL_UNLOCK(hspi);
 800714e:	68fb      	ldr	r3, [r7, #12]
 8007150:	2200      	movs	r2, #0
 8007152:	f883 2050 	strb.w	r2, [r3, #80]	; 0x50
  return errorcode;
 8007156:	7ffb      	ldrb	r3, [r7, #31]
}
 8007158:	4618      	mov	r0, r3
 800715a:	3720      	adds	r7, #32
 800715c:	46bd      	mov	sp, r7
 800715e:	bd80      	pop	{r7, pc}

08007160 <HAL_SPI_Receive>:
  * @param  Size amount of data to be received
  * @param  Timeout Timeout duration
  * @retval HAL status
  */
HAL_StatusTypeDef HAL_SPI_Receive(SPI_HandleTypeDef *hspi, uint8_t *pData, uint16_t Size, uint32_t Timeout)
{
 8007160:	b580      	push	{r7, lr}
 8007162:	b088      	sub	sp, #32
 8007164:	af02      	add	r7, sp, #8
 8007166:	60f8      	str	r0, [r7, #12]
 8007168:	60b9      	str	r1, [r7, #8]
 800716a:	603b      	str	r3, [r7, #0]
 800716c:	4613      	mov	r3, r2
 800716e:	80fb      	strh	r3, [r7, #6]
#if (USE_SPI_CRC != 0U)
  __IO uint32_t tmpreg = 0U;
#endif /* USE_SPI_CRC */
  uint32_t tickstart;
  HAL_StatusTypeDef errorcode = HAL_OK;
 8007170:	2300      	movs	r3, #0
 8007172:	75fb      	strb	r3, [r7, #23]

  if (hspi->State != HAL_SPI_STATE_READY)
 8007174:	68fb      	ldr	r3, [r7, #12]
 8007176:	f893 3051 	ldrb.w	r3, [r3, #81]	; 0x51
 800717a:	b2db      	uxtb	r3, r3
 800717c:	2b01      	cmp	r3, #1
 800717e:	d002      	beq.n	8007186 <HAL_SPI_Receive+0x26>
  {
    errorcode = HAL_BUSY;
 8007180:	2302      	movs	r3, #2
 8007182:	75fb      	strb	r3, [r7, #23]
    goto error;
 8007184:	e0fb      	b.n	800737e <HAL_SPI_Receive+0x21e>
  }

  if ((hspi->Init.Mode == SPI_MODE_MASTER) && (hspi->Init.Direction == SPI_DIRECTION_2LINES))
 8007186:	68fb      	ldr	r3, [r7, #12]
 8007188:	685b      	ldr	r3, [r3, #4]
 800718a:	f5b3 7f82 	cmp.w	r3, #260	; 0x104
 800718e:	d112      	bne.n	80071b6 <HAL_SPI_Receive+0x56>
 8007190:	68fb      	ldr	r3, [r7, #12]
 8007192:	689b      	ldr	r3, [r3, #8]
 8007194:	2b00      	cmp	r3, #0
 8007196:	d10e      	bne.n	80071b6 <HAL_SPI_Receive+0x56>
  {
    hspi->State = HAL_SPI_STATE_BUSY_RX;
 8007198:	68fb      	ldr	r3, [r7, #12]
 800719a:	2204      	movs	r2, #4
 800719c:	f883 2051 	strb.w	r2, [r3, #81]	; 0x51
    /* Call transmit-receive function to send Dummy data on Tx line and generate clock on CLK line */
    return HAL_SPI_TransmitReceive(hspi, pData, pData, Size, Timeout);
 80071a0:	88fa      	ldrh	r2, [r7, #6]
 80071a2:	683b      	ldr	r3, [r7, #0]
 80071a4:	9300      	str	r3, [sp, #0]
 80071a6:	4613      	mov	r3, r2
 80071a8:	68ba      	ldr	r2, [r7, #8]
 80071aa:	68b9      	ldr	r1, [r7, #8]
 80071ac:	68f8      	ldr	r0, [r7, #12]
 80071ae:	f000 f8ef 	bl	8007390 <HAL_SPI_TransmitReceive>
 80071b2:	4603      	mov	r3, r0
 80071b4:	e0e8      	b.n	8007388 <HAL_SPI_Receive+0x228>
  }

  /* Process Locked */
  __HAL_LOCK(hspi);
 80071b6:	68fb      	ldr	r3, [r7, #12]
 80071b8:	f893 3050 	ldrb.w	r3, [r3, #80]	; 0x50
 80071bc:	2b01      	cmp	r3, #1
 80071be:	d101      	bne.n	80071c4 <HAL_SPI_Receive+0x64>
 80071c0:	2302      	movs	r3, #2
 80071c2:	e0e1      	b.n	8007388 <HAL_SPI_Receive+0x228>
 80071c4:	68fb      	ldr	r3, [r7, #12]
 80071c6:	2201      	movs	r2, #1
 80071c8:	f883 2050 	strb.w	r2, [r3, #80]	; 0x50

  /* Init tickstart for timeout management*/
  tickstart = HAL_GetTick();
 80071cc:	f7fb febe 	bl	8002f4c <HAL_GetTick>
 80071d0:	6138      	str	r0, [r7, #16]

  if ((pData == NULL) || (Size == 0U))
 80071d2:	68bb      	ldr	r3, [r7, #8]
 80071d4:	2b00      	cmp	r3, #0
 80071d6:	d002      	beq.n	80071de <HAL_SPI_Receive+0x7e>
 80071d8:	88fb      	ldrh	r3, [r7, #6]
 80071da:	2b00      	cmp	r3, #0
 80071dc:	d102      	bne.n	80071e4 <HAL_SPI_Receive+0x84>
  {
    errorcode = HAL_ERROR;
 80071de:	2301      	movs	r3, #1
 80071e0:	75fb      	strb	r3, [r7, #23]
    goto error;
 80071e2:	e0cc      	b.n	800737e <HAL_SPI_Receive+0x21e>
  }

  /* Set the transaction information */
  hspi->State       = HAL_SPI_STATE_BUSY_RX;
 80071e4:	68fb      	ldr	r3, [r7, #12]
 80071e6:	2204      	movs	r2, #4
 80071e8:	f883 2051 	strb.w	r2, [r3, #81]	; 0x51
  hspi->ErrorCode   = HAL_SPI_ERROR_NONE;
 80071ec:	68fb      	ldr	r3, [r7, #12]
 80071ee:	2200      	movs	r2, #0
 80071f0:	655a      	str	r2, [r3, #84]	; 0x54
  hspi->pRxBuffPtr  = (uint8_t *)pData;
 80071f2:	68fb      	ldr	r3, [r7, #12]
 80071f4:	68ba      	ldr	r2, [r7, #8]
 80071f6:	639a      	str	r2, [r3, #56]	; 0x38
  hspi->RxXferSize  = Size;
 80071f8:	68fb      	ldr	r3, [r7, #12]
 80071fa:	88fa      	ldrh	r2, [r7, #6]
 80071fc:	879a      	strh	r2, [r3, #60]	; 0x3c
  hspi->RxXferCount = Size;
 80071fe:	68fb      	ldr	r3, [r7, #12]
 8007200:	88fa      	ldrh	r2, [r7, #6]
 8007202:	87da      	strh	r2, [r3, #62]	; 0x3e

  /*Init field not used in handle to zero */
  hspi->pTxBuffPtr  = (uint8_t *)NULL;
 8007204:	68fb      	ldr	r3, [r7, #12]
 8007206:	2200      	movs	r2, #0
 8007208:	631a      	str	r2, [r3, #48]	; 0x30
  hspi->TxXferSize  = 0U;
 800720a:	68fb      	ldr	r3, [r7, #12]
 800720c:	2200      	movs	r2, #0
 800720e:	869a      	strh	r2, [r3, #52]	; 0x34
  hspi->TxXferCount = 0U;
 8007210:	68fb      	ldr	r3, [r7, #12]
 8007212:	2200      	movs	r2, #0
 8007214:	86da      	strh	r2, [r3, #54]	; 0x36
  hspi->RxISR       = NULL;
 8007216:	68fb      	ldr	r3, [r7, #12]
 8007218:	2200      	movs	r2, #0
 800721a:	641a      	str	r2, [r3, #64]	; 0x40
  hspi->TxISR       = NULL;
 800721c:	68fb      	ldr	r3, [r7, #12]
 800721e:	2200      	movs	r2, #0
 8007220:	645a      	str	r2, [r3, #68]	; 0x44
    hspi->RxXferCount--;
  }
#endif /* USE_SPI_CRC */

  /* Configure communication direction: 1Line */
  if (hspi->Init.Direction == SPI_DIRECTION_1LINE)
 8007222:	68fb      	ldr	r3, [r7, #12]
 8007224:	689b      	ldr	r3, [r3, #8]
 8007226:	f5b3 4f00 	cmp.w	r3, #32768	; 0x8000
 800722a:	d10f      	bne.n	800724c <HAL_SPI_Receive+0xec>
  {
    /* Disable SPI Peripheral before set 1Line direction (BIDIOE bit) */
    __HAL_SPI_DISABLE(hspi);
 800722c:	68fb      	ldr	r3, [r7, #12]
 800722e:	681b      	ldr	r3, [r3, #0]
 8007230:	681a      	ldr	r2, [r3, #0]
 8007232:	68fb      	ldr	r3, [r7, #12]
 8007234:	681b      	ldr	r3, [r3, #0]
 8007236:	f022 0240 	bic.w	r2, r2, #64	; 0x40
 800723a:	601a      	str	r2, [r3, #0]
    SPI_1LINE_RX(hspi);
 800723c:	68fb      	ldr	r3, [r7, #12]
 800723e:	681b      	ldr	r3, [r3, #0]
 8007240:	681a      	ldr	r2, [r3, #0]
 8007242:	68fb      	ldr	r3, [r7, #12]
 8007244:	681b      	ldr	r3, [r3, #0]
 8007246:	f422 4280 	bic.w	r2, r2, #16384	; 0x4000
 800724a:	601a      	str	r2, [r3, #0]
  }

  /* Check if the SPI is already enabled */
  if ((hspi->Instance->CR1 & SPI_CR1_SPE) != SPI_CR1_SPE)
 800724c:	68fb      	ldr	r3, [r7, #12]
 800724e:	681b      	ldr	r3, [r3, #0]
 8007250:	681b      	ldr	r3, [r3, #0]
 8007252:	f003 0340 	and.w	r3, r3, #64	; 0x40
 8007256:	2b40      	cmp	r3, #64	; 0x40
 8007258:	d007      	beq.n	800726a <HAL_SPI_Receive+0x10a>
  {
    /* Enable SPI peripheral */
    __HAL_SPI_ENABLE(hspi);
 800725a:	68fb      	ldr	r3, [r7, #12]
 800725c:	681b      	ldr	r3, [r3, #0]
 800725e:	681a      	ldr	r2, [r3, #0]
 8007260:	68fb      	ldr	r3, [r7, #12]
 8007262:	681b      	ldr	r3, [r3, #0]
 8007264:	f042 0240 	orr.w	r2, r2, #64	; 0x40
 8007268:	601a      	str	r2, [r3, #0]
  }

  /* Receive data in 8 Bit mode */
  if (hspi->Init.DataSize == SPI_DATASIZE_8BIT)
 800726a:	68fb      	ldr	r3, [r7, #12]
 800726c:	68db      	ldr	r3, [r3, #12]
 800726e:	2b00      	cmp	r3, #0
 8007270:	d16a      	bne.n	8007348 <HAL_SPI_Receive+0x1e8>
  {
    /* Transfer loop */
    while (hspi->RxXferCount > 0U)
 8007272:	e032      	b.n	80072da <HAL_SPI_Receive+0x17a>
    {
      /* Check the RXNE flag */
      if (__HAL_SPI_GET_FLAG(hspi, SPI_FLAG_RXNE))
 8007274:	68fb      	ldr	r3, [r7, #12]
 8007276:	681b      	ldr	r3, [r3, #0]
 8007278:	689b      	ldr	r3, [r3, #8]
 800727a:	f003 0301 	and.w	r3, r3, #1
 800727e:	2b01      	cmp	r3, #1
 8007280:	d115      	bne.n	80072ae <HAL_SPI_Receive+0x14e>
      {
        /* read the received data */
        (* (uint8_t *)hspi->pRxBuffPtr) = *(__IO uint8_t *)&hspi->Instance->DR;
 8007282:	68fb      	ldr	r3, [r7, #12]
 8007284:	681b      	ldr	r3, [r3, #0]
 8007286:	f103 020c 	add.w	r2, r3, #12
 800728a:	68fb      	ldr	r3, [r7, #12]
 800728c:	6b9b      	ldr	r3, [r3, #56]	; 0x38
 800728e:	7812      	ldrb	r2, [r2, #0]
 8007290:	b2d2      	uxtb	r2, r2
 8007292:	701a      	strb	r2, [r3, #0]
        hspi->pRxBuffPtr += sizeof(uint8_t);
 8007294:	68fb      	ldr	r3, [r7, #12]
 8007296:	6b9b      	ldr	r3, [r3, #56]	; 0x38
 8007298:	1c5a      	adds	r2, r3, #1
 800729a:	68fb      	ldr	r3, [r7, #12]
 800729c:	639a      	str	r2, [r3, #56]	; 0x38
        hspi->RxXferCount--;
 800729e:	68fb      	ldr	r3, [r7, #12]
 80072a0:	8fdb      	ldrh	r3, [r3, #62]	; 0x3e
 80072a2:	b29b      	uxth	r3, r3
 80072a4:	3b01      	subs	r3, #1
 80072a6:	b29a      	uxth	r2, r3
 80072a8:	68fb      	ldr	r3, [r7, #12]
 80072aa:	87da      	strh	r2, [r3, #62]	; 0x3e
 80072ac:	e015      	b.n	80072da <HAL_SPI_Receive+0x17a>
      }
      else
      {
        /* Timeout management */
        if ((((HAL_GetTick() - tickstart) >=  Timeout) && (Timeout != HAL_MAX_DELAY)) || (Timeout == 0U))
 80072ae:	f7fb fe4d 	bl	8002f4c <HAL_GetTick>
 80072b2:	4602      	mov	r2, r0
 80072b4:	693b      	ldr	r3, [r7, #16]
 80072b6:	1ad3      	subs	r3, r2, r3
 80072b8:	683a      	ldr	r2, [r7, #0]
 80072ba:	429a      	cmp	r2, r3
 80072bc:	d803      	bhi.n	80072c6 <HAL_SPI_Receive+0x166>
 80072be:	683b      	ldr	r3, [r7, #0]
 80072c0:	f1b3 3fff 	cmp.w	r3, #4294967295	; 0xffffffff
 80072c4:	d102      	bne.n	80072cc <HAL_SPI_Receive+0x16c>
 80072c6:	683b      	ldr	r3, [r7, #0]
 80072c8:	2b00      	cmp	r3, #0
 80072ca:	d106      	bne.n	80072da <HAL_SPI_Receive+0x17a>
        {
          errorcode = HAL_TIMEOUT;
 80072cc:	2303      	movs	r3, #3
 80072ce:	75fb      	strb	r3, [r7, #23]
          hspi->State = HAL_SPI_STATE_READY;
 80072d0:	68fb      	ldr	r3, [r7, #12]
 80072d2:	2201      	movs	r2, #1
 80072d4:	f883 2051 	strb.w	r2, [r3, #81]	; 0x51
          goto error;
 80072d8:	e051      	b.n	800737e <HAL_SPI_Receive+0x21e>
    while (hspi->RxXferCount > 0U)
 80072da:	68fb      	ldr	r3, [r7, #12]
 80072dc:	8fdb      	ldrh	r3, [r3, #62]	; 0x3e
 80072de:	b29b      	uxth	r3, r3
 80072e0:	2b00      	cmp	r3, #0
 80072e2:	d1c7      	bne.n	8007274 <HAL_SPI_Receive+0x114>
 80072e4:	e035      	b.n	8007352 <HAL_SPI_Receive+0x1f2>
  {
    /* Transfer loop */
    while (hspi->RxXferCount > 0U)
    {
      /* Check the RXNE flag */
      if (__HAL_SPI_GET_FLAG(hspi, SPI_FLAG_RXNE))
 80072e6:	68fb      	ldr	r3, [r7, #12]
 80072e8:	681b      	ldr	r3, [r3, #0]
 80072ea:	689b      	ldr	r3, [r3, #8]
 80072ec:	f003 0301 	and.w	r3, r3, #1
 80072f0:	2b01      	cmp	r3, #1
 80072f2:	d113      	bne.n	800731c <HAL_SPI_Receive+0x1bc>
      {
        *((uint16_t *)hspi->pRxBuffPtr) = (uint16_t)hspi->Instance->DR;
 80072f4:	68fb      	ldr	r3, [r7, #12]
 80072f6:	681b      	ldr	r3, [r3, #0]
 80072f8:	68da      	ldr	r2, [r3, #12]
 80072fa:	68fb      	ldr	r3, [r7, #12]
 80072fc:	6b9b      	ldr	r3, [r3, #56]	; 0x38
 80072fe:	b292      	uxth	r2, r2
 8007300:	801a      	strh	r2, [r3, #0]
        hspi->pRxBuffPtr += sizeof(uint16_t);
 8007302:	68fb      	ldr	r3, [r7, #12]
 8007304:	6b9b      	ldr	r3, [r3, #56]	; 0x38
 8007306:	1c9a      	adds	r2, r3, #2
 8007308:	68fb      	ldr	r3, [r7, #12]
 800730a:	639a      	str	r2, [r3, #56]	; 0x38
        hspi->RxXferCount--;
 800730c:	68fb      	ldr	r3, [r7, #12]
 800730e:	8fdb      	ldrh	r3, [r3, #62]	; 0x3e
 8007310:	b29b      	uxth	r3, r3
 8007312:	3b01      	subs	r3, #1
 8007314:	b29a      	uxth	r2, r3
 8007316:	68fb      	ldr	r3, [r7, #12]
 8007318:	87da      	strh	r2, [r3, #62]	; 0x3e
 800731a:	e015      	b.n	8007348 <HAL_SPI_Receive+0x1e8>
      }
      else
      {
        /* Timeout management */
        if ((((HAL_GetTick() - tickstart) >=  Timeout) && (Timeout != HAL_MAX_DELAY)) || (Timeout == 0U))
 800731c:	f7fb fe16 	bl	8002f4c <HAL_GetTick>
 8007320:	4602      	mov	r2, r0
 8007322:	693b      	ldr	r3, [r7, #16]
 8007324:	1ad3      	subs	r3, r2, r3
 8007326:	683a      	ldr	r2, [r7, #0]
 8007328:	429a      	cmp	r2, r3
 800732a:	d803      	bhi.n	8007334 <HAL_SPI_Receive+0x1d4>
 800732c:	683b      	ldr	r3, [r7, #0]
 800732e:	f1b3 3fff 	cmp.w	r3, #4294967295	; 0xffffffff
 8007332:	d102      	bne.n	800733a <HAL_SPI_Receive+0x1da>
 8007334:	683b      	ldr	r3, [r7, #0]
 8007336:	2b00      	cmp	r3, #0
 8007338:	d106      	bne.n	8007348 <HAL_SPI_Receive+0x1e8>
        {
          errorcode = HAL_TIMEOUT;
 800733a:	2303      	movs	r3, #3
 800733c:	75fb      	strb	r3, [r7, #23]
          hspi->State = HAL_SPI_STATE_READY;
 800733e:	68fb      	ldr	r3, [r7, #12]
 8007340:	2201      	movs	r2, #1
 8007342:	f883 2051 	strb.w	r2, [r3, #81]	; 0x51
          goto error;
 8007346:	e01a      	b.n	800737e <HAL_SPI_Receive+0x21e>
    while (hspi->RxXferCount > 0U)
 8007348:	68fb      	ldr	r3, [r7, #12]
 800734a:	8fdb      	ldrh	r3, [r3, #62]	; 0x3e
 800734c:	b29b      	uxth	r3, r3
 800734e:	2b00      	cmp	r3, #0
 8007350:	d1c9      	bne.n	80072e6 <HAL_SPI_Receive+0x186>
    UNUSED(tmpreg);
  }
#endif /* USE_SPI_CRC */

  /* Check the end of the transaction */
  if (SPI_EndRxTransaction(hspi, Timeout, tickstart) != HAL_OK)
 8007352:	693a      	ldr	r2, [r7, #16]
 8007354:	6839      	ldr	r1, [r7, #0]
 8007356:	68f8      	ldr	r0, [r7, #12]
 8007358:	f000 fb9a 	bl	8007a90 <SPI_EndRxTransaction>
 800735c:	4603      	mov	r3, r0
 800735e:	2b00      	cmp	r3, #0
 8007360:	d002      	beq.n	8007368 <HAL_SPI_Receive+0x208>
  {
    hspi->ErrorCode = HAL_SPI_ERROR_FLAG;
 8007362:	68fb      	ldr	r3, [r7, #12]
 8007364:	2220      	movs	r2, #32
 8007366:	655a      	str	r2, [r3, #84]	; 0x54
    SET_BIT(hspi->ErrorCode, HAL_SPI_ERROR_CRC);
    __HAL_SPI_CLEAR_CRCERRFLAG(hspi);
  }
#endif /* USE_SPI_CRC */

  if (hspi->ErrorCode != HAL_SPI_ERROR_NONE)
 8007368:	68fb      	ldr	r3, [r7, #12]
 800736a:	6d5b      	ldr	r3, [r3, #84]	; 0x54
 800736c:	2b00      	cmp	r3, #0
 800736e:	d002      	beq.n	8007376 <HAL_SPI_Receive+0x216>
  {
    errorcode = HAL_ERROR;
 8007370:	2301      	movs	r3, #1
 8007372:	75fb      	strb	r3, [r7, #23]
 8007374:	e003      	b.n	800737e <HAL_SPI_Receive+0x21e>
  }
  else
  {
    hspi->State = HAL_SPI_STATE_READY;
 8007376:	68fb      	ldr	r3, [r7, #12]
 8007378:	2201      	movs	r2, #1
 800737a:	f883 2051 	strb.w	r2, [r3, #81]	; 0x51
  }

error :
  __HAL_UNLOCK(hspi);
 800737e:	68fb      	ldr	r3, [r7, #12]
 8007380:	2200      	movs	r2, #0
 8007382:	f883 2050 	strb.w	r2, [r3, #80]	; 0x50
  return errorcode;
 8007386:	7dfb      	ldrb	r3, [r7, #23]
}
 8007388:	4618      	mov	r0, r3
 800738a:	3718      	adds	r7, #24
 800738c:	46bd      	mov	sp, r7
 800738e:	bd80      	pop	{r7, pc}

08007390 <HAL_SPI_TransmitReceive>:
  * @param  Timeout Timeout duration
  * @retval HAL status
  */
HAL_StatusTypeDef HAL_SPI_TransmitReceive(SPI_HandleTypeDef *hspi, uint8_t *pTxData, uint8_t *pRxData, uint16_t Size,
                                          uint32_t Timeout)
{
 8007390:	b580      	push	{r7, lr}
 8007392:	b08c      	sub	sp, #48	; 0x30
 8007394:	af00      	add	r7, sp, #0
 8007396:	60f8      	str	r0, [r7, #12]
 8007398:	60b9      	str	r1, [r7, #8]
 800739a:	607a      	str	r2, [r7, #4]
 800739c:	807b      	strh	r3, [r7, #2]
#if (USE_SPI_CRC != 0U)
  __IO uint32_t tmpreg = 0U;
#endif /* USE_SPI_CRC */

  /* Variable used to alternate Rx and Tx during transfer */
  uint32_t             txallowed = 1U;
 800739e:	2301      	movs	r3, #1
 80073a0:	62fb      	str	r3, [r7, #44]	; 0x2c
  HAL_StatusTypeDef    errorcode = HAL_OK;
 80073a2:	2300      	movs	r3, #0
 80073a4:	f887 302b 	strb.w	r3, [r7, #43]	; 0x2b

  /* Check Direction parameter */
  assert_param(IS_SPI_DIRECTION_2LINES(hspi->Init.Direction));

  /* Process Locked */
  __HAL_LOCK(hspi);
 80073a8:	68fb      	ldr	r3, [r7, #12]
 80073aa:	f893 3050 	ldrb.w	r3, [r3, #80]	; 0x50
 80073ae:	2b01      	cmp	r3, #1
 80073b0:	d101      	bne.n	80073b6 <HAL_SPI_TransmitReceive+0x26>
 80073b2:	2302      	movs	r3, #2
 80073b4:	e198      	b.n	80076e8 <HAL_SPI_TransmitReceive+0x358>
 80073b6:	68fb      	ldr	r3, [r7, #12]
 80073b8:	2201      	movs	r2, #1
 80073ba:	f883 2050 	strb.w	r2, [r3, #80]	; 0x50

  /* Init tickstart for timeout management*/
  tickstart = HAL_GetTick();
 80073be:	f7fb fdc5 	bl	8002f4c <HAL_GetTick>
 80073c2:	6278      	str	r0, [r7, #36]	; 0x24

  /* Init temporary variables */
  tmp_state           = hspi->State;
 80073c4:	68fb      	ldr	r3, [r7, #12]
 80073c6:	f893 3051 	ldrb.w	r3, [r3, #81]	; 0x51
 80073ca:	f887 3023 	strb.w	r3, [r7, #35]	; 0x23
  tmp_mode            = hspi->Init.Mode;
 80073ce:	68fb      	ldr	r3, [r7, #12]
 80073d0:	685b      	ldr	r3, [r3, #4]
 80073d2:	61fb      	str	r3, [r7, #28]
  initial_TxXferCount = Size;
 80073d4:	887b      	ldrh	r3, [r7, #2]
 80073d6:	837b      	strh	r3, [r7, #26]

  if (!((tmp_state == HAL_SPI_STATE_READY) || \
 80073d8:	f897 3023 	ldrb.w	r3, [r7, #35]	; 0x23
 80073dc:	2b01      	cmp	r3, #1
 80073de:	d00f      	beq.n	8007400 <HAL_SPI_TransmitReceive+0x70>
 80073e0:	69fb      	ldr	r3, [r7, #28]
 80073e2:	f5b3 7f82 	cmp.w	r3, #260	; 0x104
 80073e6:	d107      	bne.n	80073f8 <HAL_SPI_TransmitReceive+0x68>
        ((tmp_mode == SPI_MODE_MASTER) && (hspi->Init.Direction == SPI_DIRECTION_2LINES) && (tmp_state == HAL_SPI_STATE_BUSY_RX))))
 80073e8:	68fb      	ldr	r3, [r7, #12]
 80073ea:	689b      	ldr	r3, [r3, #8]
 80073ec:	2b00      	cmp	r3, #0
 80073ee:	d103      	bne.n	80073f8 <HAL_SPI_TransmitReceive+0x68>
 80073f0:	f897 3023 	ldrb.w	r3, [r7, #35]	; 0x23
 80073f4:	2b04      	cmp	r3, #4
 80073f6:	d003      	beq.n	8007400 <HAL_SPI_TransmitReceive+0x70>
  {
    errorcode = HAL_BUSY;
 80073f8:	2302      	movs	r3, #2
 80073fa:	f887 302b 	strb.w	r3, [r7, #43]	; 0x2b
    goto error;
 80073fe:	e16d      	b.n	80076dc <HAL_SPI_TransmitReceive+0x34c>
  }

  if ((pTxData == NULL) || (pRxData == NULL) || (Size == 0U))
 8007400:	68bb      	ldr	r3, [r7, #8]
 8007402:	2b00      	cmp	r3, #0
 8007404:	d005      	beq.n	8007412 <HAL_SPI_TransmitReceive+0x82>
 8007406:	687b      	ldr	r3, [r7, #4]
 8007408:	2b00      	cmp	r3, #0
 800740a:	d002      	beq.n	8007412 <HAL_SPI_TransmitReceive+0x82>
 800740c:	887b      	ldrh	r3, [r7, #2]
 800740e:	2b00      	cmp	r3, #0
 8007410:	d103      	bne.n	800741a <HAL_SPI_TransmitReceive+0x8a>
  {
    errorcode = HAL_ERROR;
 8007412:	2301      	movs	r3, #1
 8007414:	f887 302b 	strb.w	r3, [r7, #43]	; 0x2b
    goto error;
 8007418:	e160      	b.n	80076dc <HAL_SPI_TransmitReceive+0x34c>
  }

  /* Don't overwrite in case of HAL_SPI_STATE_BUSY_RX */
  if (hspi->State != HAL_SPI_STATE_BUSY_RX)
 800741a:	68fb      	ldr	r3, [r7, #12]
 800741c:	f893 3051 	ldrb.w	r3, [r3, #81]	; 0x51
 8007420:	b2db      	uxtb	r3, r3
 8007422:	2b04      	cmp	r3, #4
 8007424:	d003      	beq.n	800742e <HAL_SPI_TransmitReceive+0x9e>
  {
    hspi->State = HAL_SPI_STATE_BUSY_TX_RX;
 8007426:	68fb      	ldr	r3, [r7, #12]
 8007428:	2205      	movs	r2, #5
 800742a:	f883 2051 	strb.w	r2, [r3, #81]	; 0x51
  }

  /* Set the transaction information */
  hspi->ErrorCode   = HAL_SPI_ERROR_NONE;
 800742e:	68fb      	ldr	r3, [r7, #12]
 8007430:	2200      	movs	r2, #0
 8007432:	655a      	str	r2, [r3, #84]	; 0x54
  hspi->pRxBuffPtr  = (uint8_t *)pRxData;
 8007434:	68fb      	ldr	r3, [r7, #12]
 8007436:	687a      	ldr	r2, [r7, #4]
 8007438:	639a      	str	r2, [r3, #56]	; 0x38
  hspi->RxXferCount = Size;
 800743a:	68fb      	ldr	r3, [r7, #12]
 800743c:	887a      	ldrh	r2, [r7, #2]
 800743e:	87da      	strh	r2, [r3, #62]	; 0x3e
  hspi->RxXferSize  = Size;
 8007440:	68fb      	ldr	r3, [r7, #12]
 8007442:	887a      	ldrh	r2, [r7, #2]
 8007444:	879a      	strh	r2, [r3, #60]	; 0x3c
  hspi->pTxBuffPtr  = (uint8_t *)pTxData;
 8007446:	68fb      	ldr	r3, [r7, #12]
 8007448:	68ba      	ldr	r2, [r7, #8]
 800744a:	631a      	str	r2, [r3, #48]	; 0x30
  hspi->TxXferCount = Size;
 800744c:	68fb      	ldr	r3, [r7, #12]
 800744e:	887a      	ldrh	r2, [r7, #2]
 8007450:	86da      	strh	r2, [r3, #54]	; 0x36
  hspi->TxXferSize  = Size;
 8007452:	68fb      	ldr	r3, [r7, #12]
 8007454:	887a      	ldrh	r2, [r7, #2]
 8007456:	869a      	strh	r2, [r3, #52]	; 0x34

  /*Init field not used in handle to zero */
  hspi->RxISR       = NULL;
 8007458:	68fb      	ldr	r3, [r7, #12]
 800745a:	2200      	movs	r2, #0
 800745c:	641a      	str	r2, [r3, #64]	; 0x40
  hspi->TxISR       = NULL;
 800745e:	68fb      	ldr	r3, [r7, #12]
 8007460:	2200      	movs	r2, #0
 8007462:	645a      	str	r2, [r3, #68]	; 0x44
    SPI_RESET_CRC(hspi);
  }
#endif /* USE_SPI_CRC */

  /* Check if the SPI is already enabled */
  if ((hspi->Instance->CR1 & SPI_CR1_SPE) != SPI_CR1_SPE)
 8007464:	68fb      	ldr	r3, [r7, #12]
 8007466:	681b      	ldr	r3, [r3, #0]
 8007468:	681b      	ldr	r3, [r3, #0]
 800746a:	f003 0340 	and.w	r3, r3, #64	; 0x40
 800746e:	2b40      	cmp	r3, #64	; 0x40
 8007470:	d007      	beq.n	8007482 <HAL_SPI_TransmitReceive+0xf2>
  {
    /* Enable SPI peripheral */
    __HAL_SPI_ENABLE(hspi);
 8007472:	68fb      	ldr	r3, [r7, #12]
 8007474:	681b      	ldr	r3, [r3, #0]
 8007476:	681a      	ldr	r2, [r3, #0]
 8007478:	68fb      	ldr	r3, [r7, #12]
 800747a:	681b      	ldr	r3, [r3, #0]
 800747c:	f042 0240 	orr.w	r2, r2, #64	; 0x40
 8007480:	601a      	str	r2, [r3, #0]
  }

  /* Transmit and Receive data in 16 Bit mode */
  if (hspi->Init.DataSize == SPI_DATASIZE_16BIT)
 8007482:	68fb      	ldr	r3, [r7, #12]
 8007484:	68db      	ldr	r3, [r3, #12]
 8007486:	f5b3 6f00 	cmp.w	r3, #2048	; 0x800
 800748a:	d17c      	bne.n	8007586 <HAL_SPI_TransmitReceive+0x1f6>
  {
    if ((hspi->Init.Mode == SPI_MODE_SLAVE) || (initial_TxXferCount == 0x01U))
 800748c:	68fb      	ldr	r3, [r7, #12]
 800748e:	685b      	ldr	r3, [r3, #4]
 8007490:	2b00      	cmp	r3, #0
 8007492:	d002      	beq.n	800749a <HAL_SPI_TransmitReceive+0x10a>
 8007494:	8b7b      	ldrh	r3, [r7, #26]
 8007496:	2b01      	cmp	r3, #1
 8007498:	d16a      	bne.n	8007570 <HAL_SPI_TransmitReceive+0x1e0>
    {
      hspi->Instance->DR = *((uint16_t *)hspi->pTxBuffPtr);
 800749a:	68fb      	ldr	r3, [r7, #12]
 800749c:	6b1b      	ldr	r3, [r3, #48]	; 0x30
 800749e:	881a      	ldrh	r2, [r3, #0]
 80074a0:	68fb      	ldr	r3, [r7, #12]
 80074a2:	681b      	ldr	r3, [r3, #0]
 80074a4:	60da      	str	r2, [r3, #12]
      hspi->pTxBuffPtr += sizeof(uint16_t);
 80074a6:	68fb      	ldr	r3, [r7, #12]
 80074a8:	6b1b      	ldr	r3, [r3, #48]	; 0x30
 80074aa:	1c9a      	adds	r2, r3, #2
 80074ac:	68fb      	ldr	r3, [r7, #12]
 80074ae:	631a      	str	r2, [r3, #48]	; 0x30
      hspi->TxXferCount--;
 80074b0:	68fb      	ldr	r3, [r7, #12]
 80074b2:	8edb      	ldrh	r3, [r3, #54]	; 0x36
 80074b4:	b29b      	uxth	r3, r3
 80074b6:	3b01      	subs	r3, #1
 80074b8:	b29a      	uxth	r2, r3
 80074ba:	68fb      	ldr	r3, [r7, #12]
 80074bc:	86da      	strh	r2, [r3, #54]	; 0x36
        SET_BIT(hspi->Instance->CR1, SPI_CR1_CRCNEXT);
      }
#endif /* USE_SPI_CRC */

    }
    while ((hspi->TxXferCount > 0U) || (hspi->RxXferCount > 0U))
 80074be:	e057      	b.n	8007570 <HAL_SPI_TransmitReceive+0x1e0>
    {
      /* Check TXE flag */
      if ((__HAL_SPI_GET_FLAG(hspi, SPI_FLAG_TXE)) && (hspi->TxXferCount > 0U) && (txallowed == 1U))
 80074c0:	68fb      	ldr	r3, [r7, #12]
 80074c2:	681b      	ldr	r3, [r3, #0]
 80074c4:	689b      	ldr	r3, [r3, #8]
 80074c6:	f003 0302 	and.w	r3, r3, #2
 80074ca:	2b02      	cmp	r3, #2
 80074cc:	d11b      	bne.n	8007506 <HAL_SPI_TransmitReceive+0x176>
 80074ce:	68fb      	ldr	r3, [r7, #12]
 80074d0:	8edb      	ldrh	r3, [r3, #54]	; 0x36
 80074d2:	b29b      	uxth	r3, r3
 80074d4:	2b00      	cmp	r3, #0
 80074d6:	d016      	beq.n	8007506 <HAL_SPI_TransmitReceive+0x176>
 80074d8:	6afb      	ldr	r3, [r7, #44]	; 0x2c
 80074da:	2b01      	cmp	r3, #1
 80074dc:	d113      	bne.n	8007506 <HAL_SPI_TransmitReceive+0x176>
      {
        hspi->Instance->DR = *((uint16_t *)hspi->pTxBuffPtr);
 80074de:	68fb      	ldr	r3, [r7, #12]
 80074e0:	6b1b      	ldr	r3, [r3, #48]	; 0x30
 80074e2:	881a      	ldrh	r2, [r3, #0]
 80074e4:	68fb      	ldr	r3, [r7, #12]
 80074e6:	681b      	ldr	r3, [r3, #0]
 80074e8:	60da      	str	r2, [r3, #12]
        hspi->pTxBuffPtr += sizeof(uint16_t);
 80074ea:	68fb      	ldr	r3, [r7, #12]
 80074ec:	6b1b      	ldr	r3, [r3, #48]	; 0x30
 80074ee:	1c9a      	adds	r2, r3, #2
 80074f0:	68fb      	ldr	r3, [r7, #12]
 80074f2:	631a      	str	r2, [r3, #48]	; 0x30
        hspi->TxXferCount--;
 80074f4:	68fb      	ldr	r3, [r7, #12]
 80074f6:	8edb      	ldrh	r3, [r3, #54]	; 0x36
 80074f8:	b29b      	uxth	r3, r3
 80074fa:	3b01      	subs	r3, #1
 80074fc:	b29a      	uxth	r2, r3
 80074fe:	68fb      	ldr	r3, [r7, #12]
 8007500:	86da      	strh	r2, [r3, #54]	; 0x36
        /* Next Data is a reception (Rx). Tx not allowed */
        txallowed = 0U;
 8007502:	2300      	movs	r3, #0
 8007504:	62fb      	str	r3, [r7, #44]	; 0x2c
        }
#endif /* USE_SPI_CRC */
      }

      /* Check RXNE flag */
      if ((__HAL_SPI_GET_FLAG(hspi, SPI_FLAG_RXNE)) && (hspi->RxXferCount > 0U))
 8007506:	68fb      	ldr	r3, [r7, #12]
 8007508:	681b      	ldr	r3, [r3, #0]
 800750a:	689b      	ldr	r3, [r3, #8]
 800750c:	f003 0301 	and.w	r3, r3, #1
 8007510:	2b01      	cmp	r3, #1
 8007512:	d119      	bne.n	8007548 <HAL_SPI_TransmitReceive+0x1b8>
 8007514:	68fb      	ldr	r3, [r7, #12]
 8007516:	8fdb      	ldrh	r3, [r3, #62]	; 0x3e
 8007518:	b29b      	uxth	r3, r3
 800751a:	2b00      	cmp	r3, #0
 800751c:	d014      	beq.n	8007548 <HAL_SPI_TransmitReceive+0x1b8>
      {
        *((uint16_t *)hspi->pRxBuffPtr) = (uint16_t)hspi->Instance->DR;
 800751e:	68fb      	ldr	r3, [r7, #12]
 8007520:	681b      	ldr	r3, [r3, #0]
 8007522:	68da      	ldr	r2, [r3, #12]
 8007524:	68fb      	ldr	r3, [r7, #12]
 8007526:	6b9b      	ldr	r3, [r3, #56]	; 0x38
 8007528:	b292      	uxth	r2, r2
 800752a:	801a      	strh	r2, [r3, #0]
        hspi->pRxBuffPtr += sizeof(uint16_t);
 800752c:	68fb      	ldr	r3, [r7, #12]
 800752e:	6b9b      	ldr	r3, [r3, #56]	; 0x38
 8007530:	1c9a      	adds	r2, r3, #2
 8007532:	68fb      	ldr	r3, [r7, #12]
 8007534:	639a      	str	r2, [r3, #56]	; 0x38
        hspi->RxXferCount--;
 8007536:	68fb      	ldr	r3, [r7, #12]
 8007538:	8fdb      	ldrh	r3, [r3, #62]	; 0x3e
 800753a:	b29b      	uxth	r3, r3
 800753c:	3b01      	subs	r3, #1
 800753e:	b29a      	uxth	r2, r3
 8007540:	68fb      	ldr	r3, [r7, #12]
 8007542:	87da      	strh	r2, [r3, #62]	; 0x3e
        /* Next Data is a Transmission (Tx). Tx is allowed */
        txallowed = 1U;
 8007544:	2301      	movs	r3, #1
 8007546:	62fb      	str	r3, [r7, #44]	; 0x2c
      }
      if (((HAL_GetTick() - tickstart) >=  Timeout) && (Timeout != HAL_MAX_DELAY))
 8007548:	f7fb fd00 	bl	8002f4c <HAL_GetTick>
 800754c:	4602      	mov	r2, r0
 800754e:	6a7b      	ldr	r3, [r7, #36]	; 0x24
 8007550:	1ad3      	subs	r3, r2, r3
 8007552:	6bba      	ldr	r2, [r7, #56]	; 0x38
 8007554:	429a      	cmp	r2, r3
 8007556:	d80b      	bhi.n	8007570 <HAL_SPI_TransmitReceive+0x1e0>
 8007558:	6bbb      	ldr	r3, [r7, #56]	; 0x38
 800755a:	f1b3 3fff 	cmp.w	r3, #4294967295	; 0xffffffff
 800755e:	d007      	beq.n	8007570 <HAL_SPI_TransmitReceive+0x1e0>
      {
        errorcode = HAL_TIMEOUT;
 8007560:	2303      	movs	r3, #3
 8007562:	f887 302b 	strb.w	r3, [r7, #43]	; 0x2b
        hspi->State = HAL_SPI_STATE_READY;
 8007566:	68fb      	ldr	r3, [r7, #12]
 8007568:	2201      	movs	r2, #1
 800756a:	f883 2051 	strb.w	r2, [r3, #81]	; 0x51
        goto error;
 800756e:	e0b5      	b.n	80076dc <HAL_SPI_TransmitReceive+0x34c>
    while ((hspi->TxXferCount > 0U) || (hspi->RxXferCount > 0U))
 8007570:	68fb      	ldr	r3, [r7, #12]
 8007572:	8edb      	ldrh	r3, [r3, #54]	; 0x36
 8007574:	b29b      	uxth	r3, r3
 8007576:	2b00      	cmp	r3, #0
 8007578:	d1a2      	bne.n	80074c0 <HAL_SPI_TransmitReceive+0x130>
 800757a:	68fb      	ldr	r3, [r7, #12]
 800757c:	8fdb      	ldrh	r3, [r3, #62]	; 0x3e
 800757e:	b29b      	uxth	r3, r3
 8007580:	2b00      	cmp	r3, #0
 8007582:	d19d      	bne.n	80074c0 <HAL_SPI_TransmitReceive+0x130>
 8007584:	e080      	b.n	8007688 <HAL_SPI_TransmitReceive+0x2f8>
    }
  }
  /* Transmit and Receive data in 8 Bit mode */
  else
  {
    if ((hspi->Init.Mode == SPI_MODE_SLAVE) || (initial_TxXferCount == 0x01U))
 8007586:	68fb      	ldr	r3, [r7, #12]
 8007588:	685b      	ldr	r3, [r3, #4]
 800758a:	2b00      	cmp	r3, #0
 800758c:	d002      	beq.n	8007594 <HAL_SPI_TransmitReceive+0x204>
 800758e:	8b7b      	ldrh	r3, [r7, #26]
 8007590:	2b01      	cmp	r3, #1
 8007592:	d16f      	bne.n	8007674 <HAL_SPI_TransmitReceive+0x2e4>
    {
      *((__IO uint8_t *)&hspi->Instance->DR) = (*hspi->pTxBuffPtr);
 8007594:	68fb      	ldr	r3, [r7, #12]
 8007596:	6b1a      	ldr	r2, [r3, #48]	; 0x30
 8007598:	68fb      	ldr	r3, [r7, #12]
 800759a:	681b      	ldr	r3, [r3, #0]
 800759c:	330c      	adds	r3, #12
 800759e:	7812      	ldrb	r2, [r2, #0]
 80075a0:	701a      	strb	r2, [r3, #0]
      hspi->pTxBuffPtr += sizeof(uint8_t);
 80075a2:	68fb      	ldr	r3, [r7, #12]
 80075a4:	6b1b      	ldr	r3, [r3, #48]	; 0x30
 80075a6:	1c5a      	adds	r2, r3, #1
 80075a8:	68fb      	ldr	r3, [r7, #12]
 80075aa:	631a      	str	r2, [r3, #48]	; 0x30
      hspi->TxXferCount--;
 80075ac:	68fb      	ldr	r3, [r7, #12]
 80075ae:	8edb      	ldrh	r3, [r3, #54]	; 0x36
 80075b0:	b29b      	uxth	r3, r3
 80075b2:	3b01      	subs	r3, #1
 80075b4:	b29a      	uxth	r2, r3
 80075b6:	68fb      	ldr	r3, [r7, #12]
 80075b8:	86da      	strh	r2, [r3, #54]	; 0x36
      {
        SET_BIT(hspi->Instance->CR1, SPI_CR1_CRCNEXT);
      }
#endif /* USE_SPI_CRC */
    }
    while ((hspi->TxXferCount > 0U) || (hspi->RxXferCount > 0U))
 80075ba:	e05b      	b.n	8007674 <HAL_SPI_TransmitReceive+0x2e4>
    {
      /* Check TXE flag */
      if ((__HAL_SPI_GET_FLAG(hspi, SPI_FLAG_TXE)) && (hspi->TxXferCount > 0U) && (txallowed == 1U))
 80075bc:	68fb      	ldr	r3, [r7, #12]
 80075be:	681b      	ldr	r3, [r3, #0]
 80075c0:	689b      	ldr	r3, [r3, #8]
 80075c2:	f003 0302 	and.w	r3, r3, #2
 80075c6:	2b02      	cmp	r3, #2
 80075c8:	d11c      	bne.n	8007604 <HAL_SPI_TransmitReceive+0x274>
 80075ca:	68fb      	ldr	r3, [r7, #12]
 80075cc:	8edb      	ldrh	r3, [r3, #54]	; 0x36
 80075ce:	b29b      	uxth	r3, r3
 80075d0:	2b00      	cmp	r3, #0
 80075d2:	d017      	beq.n	8007604 <HAL_SPI_TransmitReceive+0x274>
 80075d4:	6afb      	ldr	r3, [r7, #44]	; 0x2c
 80075d6:	2b01      	cmp	r3, #1
 80075d8:	d114      	bne.n	8007604 <HAL_SPI_TransmitReceive+0x274>
      {
        *(__IO uint8_t *)&hspi->Instance->DR = (*hspi->pTxBuffPtr);
 80075da:	68fb      	ldr	r3, [r7, #12]
 80075dc:	6b1a      	ldr	r2, [r3, #48]	; 0x30
 80075de:	68fb      	ldr	r3, [r7, #12]
 80075e0:	681b      	ldr	r3, [r3, #0]
 80075e2:	330c      	adds	r3, #12
 80075e4:	7812      	ldrb	r2, [r2, #0]
 80075e6:	701a      	strb	r2, [r3, #0]
        hspi->pTxBuffPtr++;
 80075e8:	68fb      	ldr	r3, [r7, #12]
 80075ea:	6b1b      	ldr	r3, [r3, #48]	; 0x30
 80075ec:	1c5a      	adds	r2, r3, #1
 80075ee:	68fb      	ldr	r3, [r7, #12]
 80075f0:	631a      	str	r2, [r3, #48]	; 0x30
        hspi->TxXferCount--;
 80075f2:	68fb      	ldr	r3, [r7, #12]
 80075f4:	8edb      	ldrh	r3, [r3, #54]	; 0x36
 80075f6:	b29b      	uxth	r3, r3
 80075f8:	3b01      	subs	r3, #1
 80075fa:	b29a      	uxth	r2, r3
 80075fc:	68fb      	ldr	r3, [r7, #12]
 80075fe:	86da      	strh	r2, [r3, #54]	; 0x36
        /* Next Data is a reception (Rx). Tx not allowed */
        txallowed = 0U;
 8007600:	2300      	movs	r3, #0
 8007602:	62fb      	str	r3, [r7, #44]	; 0x2c
        }
#endif /* USE_SPI_CRC */
      }

      /* Wait until RXNE flag is reset */
      if ((__HAL_SPI_GET_FLAG(hspi, SPI_FLAG_RXNE)) && (hspi->RxXferCount > 0U))
 8007604:	68fb      	ldr	r3, [r7, #12]
 8007606:	681b      	ldr	r3, [r3, #0]
 8007608:	689b      	ldr	r3, [r3, #8]
 800760a:	f003 0301 	and.w	r3, r3, #1
 800760e:	2b01      	cmp	r3, #1
 8007610:	d119      	bne.n	8007646 <HAL_SPI_TransmitReceive+0x2b6>
 8007612:	68fb      	ldr	r3, [r7, #12]
 8007614:	8fdb      	ldrh	r3, [r3, #62]	; 0x3e
 8007616:	b29b      	uxth	r3, r3
 8007618:	2b00      	cmp	r3, #0
 800761a:	d014      	beq.n	8007646 <HAL_SPI_TransmitReceive+0x2b6>
      {
        (*(uint8_t *)hspi->pRxBuffPtr) = hspi->Instance->DR;
 800761c:	68fb      	ldr	r3, [r7, #12]
 800761e:	681b      	ldr	r3, [r3, #0]
 8007620:	68da      	ldr	r2, [r3, #12]
 8007622:	68fb      	ldr	r3, [r7, #12]
 8007624:	6b9b      	ldr	r3, [r3, #56]	; 0x38
 8007626:	b2d2      	uxtb	r2, r2
 8007628:	701a      	strb	r2, [r3, #0]
        hspi->pRxBuffPtr++;
 800762a:	68fb      	ldr	r3, [r7, #12]
 800762c:	6b9b      	ldr	r3, [r3, #56]	; 0x38
 800762e:	1c5a      	adds	r2, r3, #1
 8007630:	68fb      	ldr	r3, [r7, #12]
 8007632:	639a      	str	r2, [r3, #56]	; 0x38
        hspi->RxXferCount--;
 8007634:	68fb      	ldr	r3, [r7, #12]
 8007636:	8fdb      	ldrh	r3, [r3, #62]	; 0x3e
 8007638:	b29b      	uxth	r3, r3
 800763a:	3b01      	subs	r3, #1
 800763c:	b29a      	uxth	r2, r3
 800763e:	68fb      	ldr	r3, [r7, #12]
 8007640:	87da      	strh	r2, [r3, #62]	; 0x3e
        /* Next Data is a Transmission (Tx). Tx is allowed */
        txallowed = 1U;
 8007642:	2301      	movs	r3, #1
 8007644:	62fb      	str	r3, [r7, #44]	; 0x2c
      }
      if ((((HAL_GetTick() - tickstart) >=  Timeout) && ((Timeout != HAL_MAX_DELAY))) || (Timeout == 0U))
 8007646:	f7fb fc81 	bl	8002f4c <HAL_GetTick>
 800764a:	4602      	mov	r2, r0
 800764c:	6a7b      	ldr	r3, [r7, #36]	; 0x24
 800764e:	1ad3      	subs	r3, r2, r3
 8007650:	6bba      	ldr	r2, [r7, #56]	; 0x38
 8007652:	429a      	cmp	r2, r3
 8007654:	d803      	bhi.n	800765e <HAL_SPI_TransmitReceive+0x2ce>
 8007656:	6bbb      	ldr	r3, [r7, #56]	; 0x38
 8007658:	f1b3 3fff 	cmp.w	r3, #4294967295	; 0xffffffff
 800765c:	d102      	bne.n	8007664 <HAL_SPI_TransmitReceive+0x2d4>
 800765e:	6bbb      	ldr	r3, [r7, #56]	; 0x38
 8007660:	2b00      	cmp	r3, #0
 8007662:	d107      	bne.n	8007674 <HAL_SPI_TransmitReceive+0x2e4>
      {
        errorcode = HAL_TIMEOUT;
 8007664:	2303      	movs	r3, #3
 8007666:	f887 302b 	strb.w	r3, [r7, #43]	; 0x2b
        hspi->State = HAL_SPI_STATE_READY;
 800766a:	68fb      	ldr	r3, [r7, #12]
 800766c:	2201      	movs	r2, #1
 800766e:	f883 2051 	strb.w	r2, [r3, #81]	; 0x51
        goto error;
 8007672:	e033      	b.n	80076dc <HAL_SPI_TransmitReceive+0x34c>
    while ((hspi->TxXferCount > 0U) || (hspi->RxXferCount > 0U))
 8007674:	68fb      	ldr	r3, [r7, #12]
 8007676:	8edb      	ldrh	r3, [r3, #54]	; 0x36
 8007678:	b29b      	uxth	r3, r3
 800767a:	2b00      	cmp	r3, #0
 800767c:	d19e      	bne.n	80075bc <HAL_SPI_TransmitReceive+0x22c>
 800767e:	68fb      	ldr	r3, [r7, #12]
 8007680:	8fdb      	ldrh	r3, [r3, #62]	; 0x3e
 8007682:	b29b      	uxth	r3, r3
 8007684:	2b00      	cmp	r3, #0
 8007686:	d199      	bne.n	80075bc <HAL_SPI_TransmitReceive+0x22c>
    errorcode = HAL_ERROR;
  }
#endif /* USE_SPI_CRC */

  /* Check the end of the transaction */
  if (SPI_EndRxTxTransaction(hspi, Timeout, tickstart) != HAL_OK)
 8007688:	6a7a      	ldr	r2, [r7, #36]	; 0x24
 800768a:	6bb9      	ldr	r1, [r7, #56]	; 0x38
 800768c:	68f8      	ldr	r0, [r7, #12]
 800768e:	f000 fa65 	bl	8007b5c <SPI_EndRxTxTransaction>
 8007692:	4603      	mov	r3, r0
 8007694:	2b00      	cmp	r3, #0
 8007696:	d006      	beq.n	80076a6 <HAL_SPI_TransmitReceive+0x316>
  {
    errorcode = HAL_ERROR;
 8007698:	2301      	movs	r3, #1
 800769a:	f887 302b 	strb.w	r3, [r7, #43]	; 0x2b
    hspi->ErrorCode = HAL_SPI_ERROR_FLAG;
 800769e:	68fb      	ldr	r3, [r7, #12]
 80076a0:	2220      	movs	r2, #32
 80076a2:	655a      	str	r2, [r3, #84]	; 0x54
    goto error;
 80076a4:	e01a      	b.n	80076dc <HAL_SPI_TransmitReceive+0x34c>
  }

  /* Clear overrun flag in 2 Lines communication mode because received is not read */
  if (hspi->Init.Direction == SPI_DIRECTION_2LINES)
 80076a6:	68fb      	ldr	r3, [r7, #12]
 80076a8:	689b      	ldr	r3, [r3, #8]
 80076aa:	2b00      	cmp	r3, #0
 80076ac:	d10a      	bne.n	80076c4 <HAL_SPI_TransmitReceive+0x334>
  {
    __HAL_SPI_CLEAR_OVRFLAG(hspi);
 80076ae:	2300      	movs	r3, #0
 80076b0:	617b      	str	r3, [r7, #20]
 80076b2:	68fb      	ldr	r3, [r7, #12]
 80076b4:	681b      	ldr	r3, [r3, #0]
 80076b6:	68db      	ldr	r3, [r3, #12]
 80076b8:	617b      	str	r3, [r7, #20]
 80076ba:	68fb      	ldr	r3, [r7, #12]
 80076bc:	681b      	ldr	r3, [r3, #0]
 80076be:	689b      	ldr	r3, [r3, #8]
 80076c0:	617b      	str	r3, [r7, #20]
 80076c2:	697b      	ldr	r3, [r7, #20]
  }

  if (hspi->ErrorCode != HAL_SPI_ERROR_NONE)
 80076c4:	68fb      	ldr	r3, [r7, #12]
 80076c6:	6d5b      	ldr	r3, [r3, #84]	; 0x54
 80076c8:	2b00      	cmp	r3, #0
 80076ca:	d003      	beq.n	80076d4 <HAL_SPI_TransmitReceive+0x344>
  {
    errorcode = HAL_ERROR;
 80076cc:	2301      	movs	r3, #1
 80076ce:	f887 302b 	strb.w	r3, [r7, #43]	; 0x2b
 80076d2:	e003      	b.n	80076dc <HAL_SPI_TransmitReceive+0x34c>
  }
  else
  {
    hspi->State = HAL_SPI_STATE_READY;
 80076d4:	68fb      	ldr	r3, [r7, #12]
 80076d6:	2201      	movs	r2, #1
 80076d8:	f883 2051 	strb.w	r2, [r3, #81]	; 0x51
  }
  
error :
  __HAL_UNLOCK(hspi);
 80076dc:	68fb      	ldr	r3, [r7, #12]
 80076de:	2200      	movs	r2, #0
 80076e0:	f883 2050 	strb.w	r2, [r3, #80]	; 0x50
  return errorcode;
 80076e4:	f897 302b 	ldrb.w	r3, [r7, #43]	; 0x2b
}
 80076e8:	4618      	mov	r0, r3
 80076ea:	3730      	adds	r7, #48	; 0x30
 80076ec:	46bd      	mov	sp, r7
 80076ee:	bd80      	pop	{r7, pc}

080076f0 <HAL_SPI_Transmit_DMA>:
  * @param  pData pointer to data buffer
  * @param  Size amount of data to be sent
  * @retval HAL status
  */
HAL_StatusTypeDef HAL_SPI_Transmit_DMA(SPI_HandleTypeDef *hspi, uint8_t *pData, uint16_t Size)
{
 80076f0:	b580      	push	{r7, lr}
 80076f2:	b086      	sub	sp, #24
 80076f4:	af00      	add	r7, sp, #0
 80076f6:	60f8      	str	r0, [r7, #12]
 80076f8:	60b9      	str	r1, [r7, #8]
 80076fa:	4613      	mov	r3, r2
 80076fc:	80fb      	strh	r3, [r7, #6]
  HAL_StatusTypeDef errorcode = HAL_OK;
 80076fe:	2300      	movs	r3, #0
 8007700:	75fb      	strb	r3, [r7, #23]

  /* Check Direction parameter */
  assert_param(IS_SPI_DIRECTION_2LINES_OR_1LINE(hspi->Init.Direction));

  /* Process Locked */
  __HAL_LOCK(hspi);
 8007702:	68fb      	ldr	r3, [r7, #12]
 8007704:	f893 3050 	ldrb.w	r3, [r3, #80]	; 0x50
 8007708:	2b01      	cmp	r3, #1
 800770a:	d101      	bne.n	8007710 <HAL_SPI_Transmit_DMA+0x20>
 800770c:	2302      	movs	r3, #2
 800770e:	e097      	b.n	8007840 <HAL_SPI_Transmit_DMA+0x150>
 8007710:	68fb      	ldr	r3, [r7, #12]
 8007712:	2201      	movs	r2, #1
 8007714:	f883 2050 	strb.w	r2, [r3, #80]	; 0x50

  if (hspi->State != HAL_SPI_STATE_READY)
 8007718:	68fb      	ldr	r3, [r7, #12]
 800771a:	f893 3051 	ldrb.w	r3, [r3, #81]	; 0x51
 800771e:	b2db      	uxtb	r3, r3
 8007720:	2b01      	cmp	r3, #1
 8007722:	d002      	beq.n	800772a <HAL_SPI_Transmit_DMA+0x3a>
  {
    errorcode = HAL_BUSY;
 8007724:	2302      	movs	r3, #2
 8007726:	75fb      	strb	r3, [r7, #23]
    goto error;
 8007728:	e085      	b.n	8007836 <HAL_SPI_Transmit_DMA+0x146>
  }

  if ((pData == NULL) || (Size == 0U))
 800772a:	68bb      	ldr	r3, [r7, #8]
 800772c:	2b00      	cmp	r3, #0
 800772e:	d002      	beq.n	8007736 <HAL_SPI_Transmit_DMA+0x46>
 8007730:	88fb      	ldrh	r3, [r7, #6]
 8007732:	2b00      	cmp	r3, #0
 8007734:	d102      	bne.n	800773c <HAL_SPI_Transmit_DMA+0x4c>
  {
    errorcode = HAL_ERROR;
 8007736:	2301      	movs	r3, #1
 8007738:	75fb      	strb	r3, [r7, #23]
    goto error;
 800773a:	e07c      	b.n	8007836 <HAL_SPI_Transmit_DMA+0x146>
  }

  /* Set the transaction information */
  hspi->State       = HAL_SPI_STATE_BUSY_TX;
 800773c:	68fb      	ldr	r3, [r7, #12]
 800773e:	2203      	movs	r2, #3
 8007740:	f883 2051 	strb.w	r2, [r3, #81]	; 0x51
  hspi->ErrorCode   = HAL_SPI_ERROR_NONE;
 8007744:	68fb      	ldr	r3, [r7, #12]
 8007746:	2200      	movs	r2, #0
 8007748:	655a      	str	r2, [r3, #84]	; 0x54
  hspi->pTxBuffPtr  = (uint8_t *)pData;
 800774a:	68fb      	ldr	r3, [r7, #12]
 800774c:	68ba      	ldr	r2, [r7, #8]
 800774e:	631a      	str	r2, [r3, #48]	; 0x30
  hspi->TxXferSize  = Size;
 8007750:	68fb      	ldr	r3, [r7, #12]
 8007752:	88fa      	ldrh	r2, [r7, #6]
 8007754:	869a      	strh	r2, [r3, #52]	; 0x34
  hspi->TxXferCount = Size;
 8007756:	68fb      	ldr	r3, [r7, #12]
 8007758:	88fa      	ldrh	r2, [r7, #6]
 800775a:	86da      	strh	r2, [r3, #54]	; 0x36

  /* Init field not used in handle to zero */
  hspi->pRxBuffPtr  = (uint8_t *)NULL;
 800775c:	68fb      	ldr	r3, [r7, #12]
 800775e:	2200      	movs	r2, #0
 8007760:	639a      	str	r2, [r3, #56]	; 0x38
  hspi->TxISR       = NULL;
 8007762:	68fb      	ldr	r3, [r7, #12]
 8007764:	2200      	movs	r2, #0
 8007766:	645a      	str	r2, [r3, #68]	; 0x44
  hspi->RxISR       = NULL;
 8007768:	68fb      	ldr	r3, [r7, #12]
 800776a:	2200      	movs	r2, #0
 800776c:	641a      	str	r2, [r3, #64]	; 0x40
  hspi->RxXferSize  = 0U;
 800776e:	68fb      	ldr	r3, [r7, #12]
 8007770:	2200      	movs	r2, #0
 8007772:	879a      	strh	r2, [r3, #60]	; 0x3c
  hspi->RxXferCount = 0U;
 8007774:	68fb      	ldr	r3, [r7, #12]
 8007776:	2200      	movs	r2, #0
 8007778:	87da      	strh	r2, [r3, #62]	; 0x3e

  /* Configure communication direction : 1Line */
  if (hspi->Init.Direction == SPI_DIRECTION_1LINE)
 800777a:	68fb      	ldr	r3, [r7, #12]
 800777c:	689b      	ldr	r3, [r3, #8]
 800777e:	f5b3 4f00 	cmp.w	r3, #32768	; 0x8000
 8007782:	d10f      	bne.n	80077a4 <HAL_SPI_Transmit_DMA+0xb4>
  {
    /* Disable SPI Peripheral before set 1Line direction (BIDIOE bit) */
    __HAL_SPI_DISABLE(hspi);
 8007784:	68fb      	ldr	r3, [r7, #12]
 8007786:	681b      	ldr	r3, [r3, #0]
 8007788:	681a      	ldr	r2, [r3, #0]
 800778a:	68fb      	ldr	r3, [r7, #12]
 800778c:	681b      	ldr	r3, [r3, #0]
 800778e:	f022 0240 	bic.w	r2, r2, #64	; 0x40
 8007792:	601a      	str	r2, [r3, #0]
    SPI_1LINE_TX(hspi);
 8007794:	68fb      	ldr	r3, [r7, #12]
 8007796:	681b      	ldr	r3, [r3, #0]
 8007798:	681a      	ldr	r2, [r3, #0]
 800779a:	68fb      	ldr	r3, [r7, #12]
 800779c:	681b      	ldr	r3, [r3, #0]
 800779e:	f442 4280 	orr.w	r2, r2, #16384	; 0x4000
 80077a2:	601a      	str	r2, [r3, #0]
    SPI_RESET_CRC(hspi);
  }
#endif /* USE_SPI_CRC */

  /* Set the SPI TxDMA Half transfer complete callback */
  hspi->hdmatx->XferHalfCpltCallback = SPI_DMAHalfTransmitCplt;
 80077a4:	68fb      	ldr	r3, [r7, #12]
 80077a6:	6c9b      	ldr	r3, [r3, #72]	; 0x48
 80077a8:	4a27      	ldr	r2, [pc, #156]	; (8007848 <HAL_SPI_Transmit_DMA+0x158>)
 80077aa:	641a      	str	r2, [r3, #64]	; 0x40

  /* Set the SPI TxDMA transfer complete callback */
  hspi->hdmatx->XferCpltCallback = SPI_DMATransmitCplt;
 80077ac:	68fb      	ldr	r3, [r7, #12]
 80077ae:	6c9b      	ldr	r3, [r3, #72]	; 0x48
 80077b0:	4a26      	ldr	r2, [pc, #152]	; (800784c <HAL_SPI_Transmit_DMA+0x15c>)
 80077b2:	63da      	str	r2, [r3, #60]	; 0x3c

  /* Set the DMA error callback */
  hspi->hdmatx->XferErrorCallback = SPI_DMAError;
 80077b4:	68fb      	ldr	r3, [r7, #12]
 80077b6:	6c9b      	ldr	r3, [r3, #72]	; 0x48
 80077b8:	4a25      	ldr	r2, [pc, #148]	; (8007850 <HAL_SPI_Transmit_DMA+0x160>)
 80077ba:	64da      	str	r2, [r3, #76]	; 0x4c

  /* Set the DMA AbortCpltCallback */
  hspi->hdmatx->XferAbortCallback = NULL;
 80077bc:	68fb      	ldr	r3, [r7, #12]
 80077be:	6c9b      	ldr	r3, [r3, #72]	; 0x48
 80077c0:	2200      	movs	r2, #0
 80077c2:	651a      	str	r2, [r3, #80]	; 0x50

  /* Enable the Tx DMA Stream/Channel */
  if (HAL_OK != HAL_DMA_Start_IT(hspi->hdmatx, (uint32_t)hspi->pTxBuffPtr, (uint32_t)&hspi->Instance->DR,
 80077c4:	68fb      	ldr	r3, [r7, #12]
 80077c6:	6c98      	ldr	r0, [r3, #72]	; 0x48
 80077c8:	68fb      	ldr	r3, [r7, #12]
 80077ca:	6b1b      	ldr	r3, [r3, #48]	; 0x30
 80077cc:	4619      	mov	r1, r3
 80077ce:	68fb      	ldr	r3, [r7, #12]
 80077d0:	681b      	ldr	r3, [r3, #0]
 80077d2:	330c      	adds	r3, #12
 80077d4:	461a      	mov	r2, r3
                                 hspi->TxXferCount))
 80077d6:	68fb      	ldr	r3, [r7, #12]
 80077d8:	8edb      	ldrh	r3, [r3, #54]	; 0x36
 80077da:	b29b      	uxth	r3, r3
  if (HAL_OK != HAL_DMA_Start_IT(hspi->hdmatx, (uint32_t)hspi->pTxBuffPtr, (uint32_t)&hspi->Instance->DR,
 80077dc:	f7fc fc0e 	bl	8003ffc <HAL_DMA_Start_IT>
 80077e0:	4603      	mov	r3, r0
 80077e2:	2b00      	cmp	r3, #0
 80077e4:	d008      	beq.n	80077f8 <HAL_SPI_Transmit_DMA+0x108>
  {
    /* Update SPI error code */
    SET_BIT(hspi->ErrorCode, HAL_SPI_ERROR_DMA);
 80077e6:	68fb      	ldr	r3, [r7, #12]
 80077e8:	6d5b      	ldr	r3, [r3, #84]	; 0x54
 80077ea:	f043 0210 	orr.w	r2, r3, #16
 80077ee:	68fb      	ldr	r3, [r7, #12]
 80077f0:	655a      	str	r2, [r3, #84]	; 0x54
    errorcode = HAL_ERROR;
 80077f2:	2301      	movs	r3, #1
 80077f4:	75fb      	strb	r3, [r7, #23]

    goto error;
 80077f6:	e01e      	b.n	8007836 <HAL_SPI_Transmit_DMA+0x146>
  }

  /* Check if the SPI is already enabled */
  if ((hspi->Instance->CR1 & SPI_CR1_SPE) != SPI_CR1_SPE)
 80077f8:	68fb      	ldr	r3, [r7, #12]
 80077fa:	681b      	ldr	r3, [r3, #0]
 80077fc:	681b      	ldr	r3, [r3, #0]
 80077fe:	f003 0340 	and.w	r3, r3, #64	; 0x40
 8007802:	2b40      	cmp	r3, #64	; 0x40
 8007804:	d007      	beq.n	8007816 <HAL_SPI_Transmit_DMA+0x126>
  {
    /* Enable SPI peripheral */
    __HAL_SPI_ENABLE(hspi);
 8007806:	68fb      	ldr	r3, [r7, #12]
 8007808:	681b      	ldr	r3, [r3, #0]
 800780a:	681a      	ldr	r2, [r3, #0]
 800780c:	68fb      	ldr	r3, [r7, #12]
 800780e:	681b      	ldr	r3, [r3, #0]
 8007810:	f042 0240 	orr.w	r2, r2, #64	; 0x40
 8007814:	601a      	str	r2, [r3, #0]
  }

  /* Enable the SPI Error Interrupt Bit */
  __HAL_SPI_ENABLE_IT(hspi, (SPI_IT_ERR));
 8007816:	68fb      	ldr	r3, [r7, #12]
 8007818:	681b      	ldr	r3, [r3, #0]
 800781a:	685a      	ldr	r2, [r3, #4]
 800781c:	68fb      	ldr	r3, [r7, #12]
 800781e:	681b      	ldr	r3, [r3, #0]
 8007820:	f042 0220 	orr.w	r2, r2, #32
 8007824:	605a      	str	r2, [r3, #4]

  /* Enable Tx DMA Request */
  SET_BIT(hspi->Instance->CR2, SPI_CR2_TXDMAEN);
 8007826:	68fb      	ldr	r3, [r7, #12]
 8007828:	681b      	ldr	r3, [r3, #0]
 800782a:	685a      	ldr	r2, [r3, #4]
 800782c:	68fb      	ldr	r3, [r7, #12]
 800782e:	681b      	ldr	r3, [r3, #0]
 8007830:	f042 0202 	orr.w	r2, r2, #2
 8007834:	605a      	str	r2, [r3, #4]

error :
  /* Process Unlocked */
  __HAL_UNLOCK(hspi);
 8007836:	68fb      	ldr	r3, [r7, #12]
 8007838:	2200      	movs	r2, #0
 800783a:	f883 2050 	strb.w	r2, [r3, #80]	; 0x50
  return errorcode;
 800783e:	7dfb      	ldrb	r3, [r7, #23]
}
 8007840:	4618      	mov	r0, r3
 8007842:	3718      	adds	r7, #24
 8007844:	46bd      	mov	sp, r7
 8007846:	bd80      	pop	{r7, pc}
 8007848:	08007925 	.word	0x08007925
 800784c:	0800787d 	.word	0x0800787d
 8007850:	08007941 	.word	0x08007941

08007854 <HAL_SPI_TxHalfCpltCallback>:
  * @param  hspi pointer to a SPI_HandleTypeDef structure that contains
  *               the configuration information for SPI module.
  * @retval None
  */
__weak void HAL_SPI_TxHalfCpltCallback(SPI_HandleTypeDef *hspi)
{
 8007854:	b480      	push	{r7}
 8007856:	b083      	sub	sp, #12
 8007858:	af00      	add	r7, sp, #0
 800785a:	6078      	str	r0, [r7, #4]
  UNUSED(hspi);

  /* NOTE : This function should not be modified, when the callback is needed,
            the HAL_SPI_TxHalfCpltCallback should be implemented in the user file
   */
}
 800785c:	bf00      	nop
 800785e:	370c      	adds	r7, #12
 8007860:	46bd      	mov	sp, r7
 8007862:	f85d 7b04 	ldr.w	r7, [sp], #4
 8007866:	4770      	bx	lr

08007868 <HAL_SPI_ErrorCallback>:
  * @param  hspi pointer to a SPI_HandleTypeDef structure that contains
  *               the configuration information for SPI module.
  * @retval None
  */
__weak void HAL_SPI_ErrorCallback(SPI_HandleTypeDef *hspi)
{
 8007868:	b480      	push	{r7}
 800786a:	b083      	sub	sp, #12
 800786c:	af00      	add	r7, sp, #0
 800786e:	6078      	str	r0, [r7, #4]
            the HAL_SPI_ErrorCallback should be implemented in the user file
   */
  /* NOTE : The ErrorCode parameter in the hspi handle is updated by the SPI processes
            and user can use HAL_SPI_GetError() API to check the latest error occurred
   */
}
 8007870:	bf00      	nop
 8007872:	370c      	adds	r7, #12
 8007874:	46bd      	mov	sp, r7
 8007876:	f85d 7b04 	ldr.w	r7, [sp], #4
 800787a:	4770      	bx	lr

0800787c <SPI_DMATransmitCplt>:
  * @param  hdma pointer to a DMA_HandleTypeDef structure that contains
  *               the configuration information for the specified DMA module.
  * @retval None
  */
static void SPI_DMATransmitCplt(DMA_HandleTypeDef *hdma)
{
 800787c:	b580      	push	{r7, lr}
 800787e:	b086      	sub	sp, #24
 8007880:	af00      	add	r7, sp, #0
 8007882:	6078      	str	r0, [r7, #4]
  SPI_HandleTypeDef *hspi = (SPI_HandleTypeDef *)(((DMA_HandleTypeDef *)hdma)->Parent); /* Derogation MISRAC2012-Rule-11.5 */
 8007884:	687b      	ldr	r3, [r7, #4]
 8007886:	6b9b      	ldr	r3, [r3, #56]	; 0x38
 8007888:	617b      	str	r3, [r7, #20]
  uint32_t tickstart;

  /* Init tickstart for timeout management*/
  tickstart = HAL_GetTick();
 800788a:	f7fb fb5f 	bl	8002f4c <HAL_GetTick>
 800788e:	6138      	str	r0, [r7, #16]

  /* DMA Normal Mode */
  if ((hdma->Instance->CR & DMA_SxCR_CIRC) != DMA_SxCR_CIRC)
 8007890:	687b      	ldr	r3, [r7, #4]
 8007892:	681b      	ldr	r3, [r3, #0]
 8007894:	681b      	ldr	r3, [r3, #0]
 8007896:	f403 7380 	and.w	r3, r3, #256	; 0x100
 800789a:	f5b3 7f80 	cmp.w	r3, #256	; 0x100
 800789e:	d03b      	beq.n	8007918 <SPI_DMATransmitCplt+0x9c>
  {
    /* Disable ERR interrupt */
    __HAL_SPI_DISABLE_IT(hspi, SPI_IT_ERR);
 80078a0:	697b      	ldr	r3, [r7, #20]
 80078a2:	681b      	ldr	r3, [r3, #0]
 80078a4:	685a      	ldr	r2, [r3, #4]
 80078a6:	697b      	ldr	r3, [r7, #20]
 80078a8:	681b      	ldr	r3, [r3, #0]
 80078aa:	f022 0220 	bic.w	r2, r2, #32
 80078ae:	605a      	str	r2, [r3, #4]

    /* Disable Tx DMA Request */
    CLEAR_BIT(hspi->Instance->CR2, SPI_CR2_TXDMAEN);
 80078b0:	697b      	ldr	r3, [r7, #20]
 80078b2:	681b      	ldr	r3, [r3, #0]
 80078b4:	685a      	ldr	r2, [r3, #4]
 80078b6:	697b      	ldr	r3, [r7, #20]
 80078b8:	681b      	ldr	r3, [r3, #0]
 80078ba:	f022 0202 	bic.w	r2, r2, #2
 80078be:	605a      	str	r2, [r3, #4]

    /* Check the end of the transaction */
    if (SPI_EndRxTxTransaction(hspi, SPI_DEFAULT_TIMEOUT, tickstart) != HAL_OK)
 80078c0:	693a      	ldr	r2, [r7, #16]
 80078c2:	2164      	movs	r1, #100	; 0x64
 80078c4:	6978      	ldr	r0, [r7, #20]
 80078c6:	f000 f949 	bl	8007b5c <SPI_EndRxTxTransaction>
 80078ca:	4603      	mov	r3, r0
 80078cc:	2b00      	cmp	r3, #0
 80078ce:	d005      	beq.n	80078dc <SPI_DMATransmitCplt+0x60>
    {
      SET_BIT(hspi->ErrorCode, HAL_SPI_ERROR_FLAG);
 80078d0:	697b      	ldr	r3, [r7, #20]
 80078d2:	6d5b      	ldr	r3, [r3, #84]	; 0x54
 80078d4:	f043 0220 	orr.w	r2, r3, #32
 80078d8:	697b      	ldr	r3, [r7, #20]
 80078da:	655a      	str	r2, [r3, #84]	; 0x54
    }

    /* Clear overrun flag in 2 Lines communication mode because received data is not read */
    if (hspi->Init.Direction == SPI_DIRECTION_2LINES)
 80078dc:	697b      	ldr	r3, [r7, #20]
 80078de:	689b      	ldr	r3, [r3, #8]
 80078e0:	2b00      	cmp	r3, #0
 80078e2:	d10a      	bne.n	80078fa <SPI_DMATransmitCplt+0x7e>
    {
      __HAL_SPI_CLEAR_OVRFLAG(hspi);
 80078e4:	2300      	movs	r3, #0
 80078e6:	60fb      	str	r3, [r7, #12]
 80078e8:	697b      	ldr	r3, [r7, #20]
 80078ea:	681b      	ldr	r3, [r3, #0]
 80078ec:	68db      	ldr	r3, [r3, #12]
 80078ee:	60fb      	str	r3, [r7, #12]
 80078f0:	697b      	ldr	r3, [r7, #20]
 80078f2:	681b      	ldr	r3, [r3, #0]
 80078f4:	689b      	ldr	r3, [r3, #8]
 80078f6:	60fb      	str	r3, [r7, #12]
 80078f8:	68fb      	ldr	r3, [r7, #12]
    }

    hspi->TxXferCount = 0U;
 80078fa:	697b      	ldr	r3, [r7, #20]
 80078fc:	2200      	movs	r2, #0
 80078fe:	86da      	strh	r2, [r3, #54]	; 0x36
    hspi->State = HAL_SPI_STATE_READY;
 8007900:	697b      	ldr	r3, [r7, #20]
 8007902:	2201      	movs	r2, #1
 8007904:	f883 2051 	strb.w	r2, [r3, #81]	; 0x51

    if (hspi->ErrorCode != HAL_SPI_ERROR_NONE)
 8007908:	697b      	ldr	r3, [r7, #20]
 800790a:	6d5b      	ldr	r3, [r3, #84]	; 0x54
 800790c:	2b00      	cmp	r3, #0
 800790e:	d003      	beq.n	8007918 <SPI_DMATransmitCplt+0x9c>
    {
      /* Call user error callback */
#if (USE_HAL_SPI_REGISTER_CALLBACKS == 1U)
      hspi->ErrorCallback(hspi);
#else
      HAL_SPI_ErrorCallback(hspi);
 8007910:	6978      	ldr	r0, [r7, #20]
 8007912:	f7ff ffa9 	bl	8007868 <HAL_SPI_ErrorCallback>
#endif /* USE_HAL_SPI_REGISTER_CALLBACKS */
      return;
 8007916:	e002      	b.n	800791e <SPI_DMATransmitCplt+0xa2>
  }
  /* Call user Tx complete callback */
#if (USE_HAL_SPI_REGISTER_CALLBACKS == 1U)
  hspi->TxCpltCallback(hspi);
#else
  HAL_SPI_TxCpltCallback(hspi);
 8007918:	6978      	ldr	r0, [r7, #20]
 800791a:	f7fb f9e1 	bl	8002ce0 <HAL_SPI_TxCpltCallback>
#endif /* USE_HAL_SPI_REGISTER_CALLBACKS */
}
 800791e:	3718      	adds	r7, #24
 8007920:	46bd      	mov	sp, r7
 8007922:	bd80      	pop	{r7, pc}

08007924 <SPI_DMAHalfTransmitCplt>:
  * @param  hdma pointer to a DMA_HandleTypeDef structure that contains
  *               the configuration information for the specified DMA module.
  * @retval None
  */
static void SPI_DMAHalfTransmitCplt(DMA_HandleTypeDef *hdma)
{
 8007924:	b580      	push	{r7, lr}
 8007926:	b084      	sub	sp, #16
 8007928:	af00      	add	r7, sp, #0
 800792a:	6078      	str	r0, [r7, #4]
  SPI_HandleTypeDef *hspi = (SPI_HandleTypeDef *)(((DMA_HandleTypeDef *)hdma)->Parent); /* Derogation MISRAC2012-Rule-11.5 */
 800792c:	687b      	ldr	r3, [r7, #4]
 800792e:	6b9b      	ldr	r3, [r3, #56]	; 0x38
 8007930:	60fb      	str	r3, [r7, #12]

  /* Call user Tx half complete callback */
#if (USE_HAL_SPI_REGISTER_CALLBACKS == 1U)
  hspi->TxHalfCpltCallback(hspi);
#else
  HAL_SPI_TxHalfCpltCallback(hspi);
 8007932:	68f8      	ldr	r0, [r7, #12]
 8007934:	f7ff ff8e 	bl	8007854 <HAL_SPI_TxHalfCpltCallback>
#endif /* USE_HAL_SPI_REGISTER_CALLBACKS */
}
 8007938:	bf00      	nop
 800793a:	3710      	adds	r7, #16
 800793c:	46bd      	mov	sp, r7
 800793e:	bd80      	pop	{r7, pc}

08007940 <SPI_DMAError>:
  * @param  hdma pointer to a DMA_HandleTypeDef structure that contains
  *               the configuration information for the specified DMA module.
  * @retval None
  */
static void SPI_DMAError(DMA_HandleTypeDef *hdma)
{
 8007940:	b580      	push	{r7, lr}
 8007942:	b084      	sub	sp, #16
 8007944:	af00      	add	r7, sp, #0
 8007946:	6078      	str	r0, [r7, #4]
  SPI_HandleTypeDef *hspi = (SPI_HandleTypeDef *)(((DMA_HandleTypeDef *)hdma)->Parent); /* Derogation MISRAC2012-Rule-11.5 */
 8007948:	687b      	ldr	r3, [r7, #4]
 800794a:	6b9b      	ldr	r3, [r3, #56]	; 0x38
 800794c:	60fb      	str	r3, [r7, #12]

  /* Stop the disable DMA transfer on SPI side */
  CLEAR_BIT(hspi->Instance->CR2, SPI_CR2_TXDMAEN | SPI_CR2_RXDMAEN);
 800794e:	68fb      	ldr	r3, [r7, #12]
 8007950:	681b      	ldr	r3, [r3, #0]
 8007952:	685a      	ldr	r2, [r3, #4]
 8007954:	68fb      	ldr	r3, [r7, #12]
 8007956:	681b      	ldr	r3, [r3, #0]
 8007958:	f022 0203 	bic.w	r2, r2, #3
 800795c:	605a      	str	r2, [r3, #4]

  SET_BIT(hspi->ErrorCode, HAL_SPI_ERROR_DMA);
 800795e:	68fb      	ldr	r3, [r7, #12]
 8007960:	6d5b      	ldr	r3, [r3, #84]	; 0x54
 8007962:	f043 0210 	orr.w	r2, r3, #16
 8007966:	68fb      	ldr	r3, [r7, #12]
 8007968:	655a      	str	r2, [r3, #84]	; 0x54
  hspi->State = HAL_SPI_STATE_READY;
 800796a:	68fb      	ldr	r3, [r7, #12]
 800796c:	2201      	movs	r2, #1
 800796e:	f883 2051 	strb.w	r2, [r3, #81]	; 0x51
  /* Call user error callback */
#if (USE_HAL_SPI_REGISTER_CALLBACKS == 1U)
  hspi->ErrorCallback(hspi);
#else
  HAL_SPI_ErrorCallback(hspi);
 8007972:	68f8      	ldr	r0, [r7, #12]
 8007974:	f7ff ff78 	bl	8007868 <HAL_SPI_ErrorCallback>
#endif /* USE_HAL_SPI_REGISTER_CALLBACKS */
}
 8007978:	bf00      	nop
 800797a:	3710      	adds	r7, #16
 800797c:	46bd      	mov	sp, r7
 800797e:	bd80      	pop	{r7, pc}

08007980 <SPI_WaitFlagStateUntilTimeout>:
  * @param  Tickstart tick start value
  * @retval HAL status
  */
static HAL_StatusTypeDef SPI_WaitFlagStateUntilTimeout(SPI_HandleTypeDef *hspi, uint32_t Flag, FlagStatus State,
                                                       uint32_t Timeout, uint32_t Tickstart)
{
 8007980:	b580      	push	{r7, lr}
 8007982:	b088      	sub	sp, #32
 8007984:	af00      	add	r7, sp, #0
 8007986:	60f8      	str	r0, [r7, #12]
 8007988:	60b9      	str	r1, [r7, #8]
 800798a:	603b      	str	r3, [r7, #0]
 800798c:	4613      	mov	r3, r2
 800798e:	71fb      	strb	r3, [r7, #7]
  __IO uint32_t count;
  uint32_t tmp_timeout;
  uint32_t tmp_tickstart;

  /* Adjust Timeout value  in case of end of transfer */
  tmp_timeout   = Timeout - (HAL_GetTick() - Tickstart);
 8007990:	f7fb fadc 	bl	8002f4c <HAL_GetTick>
 8007994:	4602      	mov	r2, r0
 8007996:	6abb      	ldr	r3, [r7, #40]	; 0x28
 8007998:	1a9b      	subs	r3, r3, r2
 800799a:	683a      	ldr	r2, [r7, #0]
 800799c:	4413      	add	r3, r2
 800799e:	61fb      	str	r3, [r7, #28]
  tmp_tickstart = HAL_GetTick();
 80079a0:	f7fb fad4 	bl	8002f4c <HAL_GetTick>
 80079a4:	61b8      	str	r0, [r7, #24]

  /* Calculate Timeout based on a software loop to avoid blocking issue if Systick is disabled */
  count = tmp_timeout * ((SystemCoreClock * 32U) >> 20U);
 80079a6:	4b39      	ldr	r3, [pc, #228]	; (8007a8c <SPI_WaitFlagStateUntilTimeout+0x10c>)
 80079a8:	681b      	ldr	r3, [r3, #0]
 80079aa:	015b      	lsls	r3, r3, #5
 80079ac:	0d1b      	lsrs	r3, r3, #20
 80079ae:	69fa      	ldr	r2, [r7, #28]
 80079b0:	fb02 f303 	mul.w	r3, r2, r3
 80079b4:	617b      	str	r3, [r7, #20]

  while ((__HAL_SPI_GET_FLAG(hspi, Flag) ? SET : RESET) != State)
 80079b6:	e054      	b.n	8007a62 <SPI_WaitFlagStateUntilTimeout+0xe2>
  {
    if (Timeout != HAL_MAX_DELAY)
 80079b8:	683b      	ldr	r3, [r7, #0]
 80079ba:	f1b3 3fff 	cmp.w	r3, #4294967295	; 0xffffffff
 80079be:	d050      	beq.n	8007a62 <SPI_WaitFlagStateUntilTimeout+0xe2>
    {
      if (((HAL_GetTick() - tmp_tickstart) >= tmp_timeout) || (tmp_timeout == 0U))
 80079c0:	f7fb fac4 	bl	8002f4c <HAL_GetTick>
 80079c4:	4602      	mov	r2, r0
 80079c6:	69bb      	ldr	r3, [r7, #24]
 80079c8:	1ad3      	subs	r3, r2, r3
 80079ca:	69fa      	ldr	r2, [r7, #28]
 80079cc:	429a      	cmp	r2, r3
 80079ce:	d902      	bls.n	80079d6 <SPI_WaitFlagStateUntilTimeout+0x56>
 80079d0:	69fb      	ldr	r3, [r7, #28]
 80079d2:	2b00      	cmp	r3, #0
 80079d4:	d13d      	bne.n	8007a52 <SPI_WaitFlagStateUntilTimeout+0xd2>
        /* Disable the SPI and reset the CRC: the CRC value should be cleared
           on both master and slave sides in order to resynchronize the master
           and slave for their respective CRC calculation */

        /* Disable TXE, RXNE and ERR interrupts for the interrupt process */
        __HAL_SPI_DISABLE_IT(hspi, (SPI_IT_TXE | SPI_IT_RXNE | SPI_IT_ERR));
 80079d6:	68fb      	ldr	r3, [r7, #12]
 80079d8:	681b      	ldr	r3, [r3, #0]
 80079da:	685a      	ldr	r2, [r3, #4]
 80079dc:	68fb      	ldr	r3, [r7, #12]
 80079de:	681b      	ldr	r3, [r3, #0]
 80079e0:	f022 02e0 	bic.w	r2, r2, #224	; 0xe0
 80079e4:	605a      	str	r2, [r3, #4]

        if ((hspi->Init.Mode == SPI_MODE_MASTER) && ((hspi->Init.Direction == SPI_DIRECTION_1LINE)
 80079e6:	68fb      	ldr	r3, [r7, #12]
 80079e8:	685b      	ldr	r3, [r3, #4]
 80079ea:	f5b3 7f82 	cmp.w	r3, #260	; 0x104
 80079ee:	d111      	bne.n	8007a14 <SPI_WaitFlagStateUntilTimeout+0x94>
 80079f0:	68fb      	ldr	r3, [r7, #12]
 80079f2:	689b      	ldr	r3, [r3, #8]
 80079f4:	f5b3 4f00 	cmp.w	r3, #32768	; 0x8000
 80079f8:	d004      	beq.n	8007a04 <SPI_WaitFlagStateUntilTimeout+0x84>
                                                     || (hspi->Init.Direction == SPI_DIRECTION_2LINES_RXONLY)))
 80079fa:	68fb      	ldr	r3, [r7, #12]
 80079fc:	689b      	ldr	r3, [r3, #8]
 80079fe:	f5b3 6f80 	cmp.w	r3, #1024	; 0x400
 8007a02:	d107      	bne.n	8007a14 <SPI_WaitFlagStateUntilTimeout+0x94>
        {
          /* Disable SPI peripheral */
          __HAL_SPI_DISABLE(hspi);
 8007a04:	68fb      	ldr	r3, [r7, #12]
 8007a06:	681b      	ldr	r3, [r3, #0]
 8007a08:	681a      	ldr	r2, [r3, #0]
 8007a0a:	68fb      	ldr	r3, [r7, #12]
 8007a0c:	681b      	ldr	r3, [r3, #0]
 8007a0e:	f022 0240 	bic.w	r2, r2, #64	; 0x40
 8007a12:	601a      	str	r2, [r3, #0]
        }

        /* Reset CRC Calculation */
        if (hspi->Init.CRCCalculation == SPI_CRCCALCULATION_ENABLE)
 8007a14:	68fb      	ldr	r3, [r7, #12]
 8007a16:	6a9b      	ldr	r3, [r3, #40]	; 0x28
 8007a18:	f5b3 5f00 	cmp.w	r3, #8192	; 0x2000
 8007a1c:	d10f      	bne.n	8007a3e <SPI_WaitFlagStateUntilTimeout+0xbe>
        {
          SPI_RESET_CRC(hspi);
 8007a1e:	68fb      	ldr	r3, [r7, #12]
 8007a20:	681b      	ldr	r3, [r3, #0]
 8007a22:	681a      	ldr	r2, [r3, #0]
 8007a24:	68fb      	ldr	r3, [r7, #12]
 8007a26:	681b      	ldr	r3, [r3, #0]
 8007a28:	f422 5200 	bic.w	r2, r2, #8192	; 0x2000
 8007a2c:	601a      	str	r2, [r3, #0]
 8007a2e:	68fb      	ldr	r3, [r7, #12]
 8007a30:	681b      	ldr	r3, [r3, #0]
 8007a32:	681a      	ldr	r2, [r3, #0]
 8007a34:	68fb      	ldr	r3, [r7, #12]
 8007a36:	681b      	ldr	r3, [r3, #0]
 8007a38:	f442 5200 	orr.w	r2, r2, #8192	; 0x2000
 8007a3c:	601a      	str	r2, [r3, #0]
        }

        hspi->State = HAL_SPI_STATE_READY;
 8007a3e:	68fb      	ldr	r3, [r7, #12]
 8007a40:	2201      	movs	r2, #1
 8007a42:	f883 2051 	strb.w	r2, [r3, #81]	; 0x51

        /* Process Unlocked */
        __HAL_UNLOCK(hspi);
 8007a46:	68fb      	ldr	r3, [r7, #12]
 8007a48:	2200      	movs	r2, #0
 8007a4a:	f883 2050 	strb.w	r2, [r3, #80]	; 0x50

        return HAL_TIMEOUT;
 8007a4e:	2303      	movs	r3, #3
 8007a50:	e017      	b.n	8007a82 <SPI_WaitFlagStateUntilTimeout+0x102>
      }
      /* If Systick is disabled or not incremented, deactivate timeout to go in disable loop procedure */
      if (count == 0U)
 8007a52:	697b      	ldr	r3, [r7, #20]
 8007a54:	2b00      	cmp	r3, #0
 8007a56:	d101      	bne.n	8007a5c <SPI_WaitFlagStateUntilTimeout+0xdc>
      {
        tmp_timeout = 0U;
 8007a58:	2300      	movs	r3, #0
 8007a5a:	61fb      	str	r3, [r7, #28]
      }
      count--;
 8007a5c:	697b      	ldr	r3, [r7, #20]
 8007a5e:	3b01      	subs	r3, #1
 8007a60:	617b      	str	r3, [r7, #20]
  while ((__HAL_SPI_GET_FLAG(hspi, Flag) ? SET : RESET) != State)
 8007a62:	68fb      	ldr	r3, [r7, #12]
 8007a64:	681b      	ldr	r3, [r3, #0]
 8007a66:	689a      	ldr	r2, [r3, #8]
 8007a68:	68bb      	ldr	r3, [r7, #8]
 8007a6a:	4013      	ands	r3, r2
 8007a6c:	68ba      	ldr	r2, [r7, #8]
 8007a6e:	429a      	cmp	r2, r3
 8007a70:	bf0c      	ite	eq
 8007a72:	2301      	moveq	r3, #1
 8007a74:	2300      	movne	r3, #0
 8007a76:	b2db      	uxtb	r3, r3
 8007a78:	461a      	mov	r2, r3
 8007a7a:	79fb      	ldrb	r3, [r7, #7]
 8007a7c:	429a      	cmp	r2, r3
 8007a7e:	d19b      	bne.n	80079b8 <SPI_WaitFlagStateUntilTimeout+0x38>
    }
  }

  return HAL_OK;
 8007a80:	2300      	movs	r3, #0
}
 8007a82:	4618      	mov	r0, r3
 8007a84:	3720      	adds	r7, #32
 8007a86:	46bd      	mov	sp, r7
 8007a88:	bd80      	pop	{r7, pc}
 8007a8a:	bf00      	nop
 8007a8c:	2000001c 	.word	0x2000001c

08007a90 <SPI_EndRxTransaction>:
  * @param  Timeout Timeout duration
  * @param  Tickstart tick start value
  * @retval HAL status
  */
static HAL_StatusTypeDef SPI_EndRxTransaction(SPI_HandleTypeDef *hspi,  uint32_t Timeout, uint32_t Tickstart)
{
 8007a90:	b580      	push	{r7, lr}
 8007a92:	b086      	sub	sp, #24
 8007a94:	af02      	add	r7, sp, #8
 8007a96:	60f8      	str	r0, [r7, #12]
 8007a98:	60b9      	str	r1, [r7, #8]
 8007a9a:	607a      	str	r2, [r7, #4]
  if ((hspi->Init.Mode == SPI_MODE_MASTER) && ((hspi->Init.Direction == SPI_DIRECTION_1LINE)
 8007a9c:	68fb      	ldr	r3, [r7, #12]
 8007a9e:	685b      	ldr	r3, [r3, #4]
 8007aa0:	f5b3 7f82 	cmp.w	r3, #260	; 0x104
 8007aa4:	d111      	bne.n	8007aca <SPI_EndRxTransaction+0x3a>
 8007aa6:	68fb      	ldr	r3, [r7, #12]
 8007aa8:	689b      	ldr	r3, [r3, #8]
 8007aaa:	f5b3 4f00 	cmp.w	r3, #32768	; 0x8000
 8007aae:	d004      	beq.n	8007aba <SPI_EndRxTransaction+0x2a>
                                               || (hspi->Init.Direction == SPI_DIRECTION_2LINES_RXONLY)))
 8007ab0:	68fb      	ldr	r3, [r7, #12]
 8007ab2:	689b      	ldr	r3, [r3, #8]
 8007ab4:	f5b3 6f80 	cmp.w	r3, #1024	; 0x400
 8007ab8:	d107      	bne.n	8007aca <SPI_EndRxTransaction+0x3a>
  {
    /* Disable SPI peripheral */
    __HAL_SPI_DISABLE(hspi);
 8007aba:	68fb      	ldr	r3, [r7, #12]
 8007abc:	681b      	ldr	r3, [r3, #0]
 8007abe:	681a      	ldr	r2, [r3, #0]
 8007ac0:	68fb      	ldr	r3, [r7, #12]
 8007ac2:	681b      	ldr	r3, [r3, #0]
 8007ac4:	f022 0240 	bic.w	r2, r2, #64	; 0x40
 8007ac8:	601a      	str	r2, [r3, #0]
  }

  /* Erratasheet: BSY bit may stay high at the end of a data transfer in Slave mode */
  if (hspi->Init.Mode == SPI_MODE_MASTER)
 8007aca:	68fb      	ldr	r3, [r7, #12]
 8007acc:	685b      	ldr	r3, [r3, #4]
 8007ace:	f5b3 7f82 	cmp.w	r3, #260	; 0x104
 8007ad2:	d12a      	bne.n	8007b2a <SPI_EndRxTransaction+0x9a>
  {
    if (hspi->Init.Direction != SPI_DIRECTION_2LINES_RXONLY)
 8007ad4:	68fb      	ldr	r3, [r7, #12]
 8007ad6:	689b      	ldr	r3, [r3, #8]
 8007ad8:	f5b3 6f80 	cmp.w	r3, #1024	; 0x400
 8007adc:	d012      	beq.n	8007b04 <SPI_EndRxTransaction+0x74>
    {
      /* Control the BSY flag */
      if (SPI_WaitFlagStateUntilTimeout(hspi, SPI_FLAG_BSY, RESET, Timeout, Tickstart) != HAL_OK)
 8007ade:	687b      	ldr	r3, [r7, #4]
 8007ae0:	9300      	str	r3, [sp, #0]
 8007ae2:	68bb      	ldr	r3, [r7, #8]
 8007ae4:	2200      	movs	r2, #0
 8007ae6:	2180      	movs	r1, #128	; 0x80
 8007ae8:	68f8      	ldr	r0, [r7, #12]
 8007aea:	f7ff ff49 	bl	8007980 <SPI_WaitFlagStateUntilTimeout>
 8007aee:	4603      	mov	r3, r0
 8007af0:	2b00      	cmp	r3, #0
 8007af2:	d02d      	beq.n	8007b50 <SPI_EndRxTransaction+0xc0>
      {
        SET_BIT(hspi->ErrorCode, HAL_SPI_ERROR_FLAG);
 8007af4:	68fb      	ldr	r3, [r7, #12]
 8007af6:	6d5b      	ldr	r3, [r3, #84]	; 0x54
 8007af8:	f043 0220 	orr.w	r2, r3, #32
 8007afc:	68fb      	ldr	r3, [r7, #12]
 8007afe:	655a      	str	r2, [r3, #84]	; 0x54
        return HAL_TIMEOUT;
 8007b00:	2303      	movs	r3, #3
 8007b02:	e026      	b.n	8007b52 <SPI_EndRxTransaction+0xc2>
      }
    }
    else
    {
      /* Wait the RXNE reset */
      if (SPI_WaitFlagStateUntilTimeout(hspi, SPI_FLAG_RXNE, RESET, Timeout, Tickstart) != HAL_OK)
 8007b04:	687b      	ldr	r3, [r7, #4]
 8007b06:	9300      	str	r3, [sp, #0]
 8007b08:	68bb      	ldr	r3, [r7, #8]
 8007b0a:	2200      	movs	r2, #0
 8007b0c:	2101      	movs	r1, #1
 8007b0e:	68f8      	ldr	r0, [r7, #12]
 8007b10:	f7ff ff36 	bl	8007980 <SPI_WaitFlagStateUntilTimeout>
 8007b14:	4603      	mov	r3, r0
 8007b16:	2b00      	cmp	r3, #0
 8007b18:	d01a      	beq.n	8007b50 <SPI_EndRxTransaction+0xc0>
      {
        SET_BIT(hspi->ErrorCode, HAL_SPI_ERROR_FLAG);
 8007b1a:	68fb      	ldr	r3, [r7, #12]
 8007b1c:	6d5b      	ldr	r3, [r3, #84]	; 0x54
 8007b1e:	f043 0220 	orr.w	r2, r3, #32
 8007b22:	68fb      	ldr	r3, [r7, #12]
 8007b24:	655a      	str	r2, [r3, #84]	; 0x54
        return HAL_TIMEOUT;
 8007b26:	2303      	movs	r3, #3
 8007b28:	e013      	b.n	8007b52 <SPI_EndRxTransaction+0xc2>
    }
  }
  else
  {
    /* Wait the RXNE reset */
    if (SPI_WaitFlagStateUntilTimeout(hspi, SPI_FLAG_RXNE, RESET, Timeout, Tickstart) != HAL_OK)
 8007b2a:	687b      	ldr	r3, [r7, #4]
 8007b2c:	9300      	str	r3, [sp, #0]
 8007b2e:	68bb      	ldr	r3, [r7, #8]
 8007b30:	2200      	movs	r2, #0
 8007b32:	2101      	movs	r1, #1
 8007b34:	68f8      	ldr	r0, [r7, #12]
 8007b36:	f7ff ff23 	bl	8007980 <SPI_WaitFlagStateUntilTimeout>
 8007b3a:	4603      	mov	r3, r0
 8007b3c:	2b00      	cmp	r3, #0
 8007b3e:	d007      	beq.n	8007b50 <SPI_EndRxTransaction+0xc0>
    {
      SET_BIT(hspi->ErrorCode, HAL_SPI_ERROR_FLAG);
 8007b40:	68fb      	ldr	r3, [r7, #12]
 8007b42:	6d5b      	ldr	r3, [r3, #84]	; 0x54
 8007b44:	f043 0220 	orr.w	r2, r3, #32
 8007b48:	68fb      	ldr	r3, [r7, #12]
 8007b4a:	655a      	str	r2, [r3, #84]	; 0x54
      return HAL_TIMEOUT;
 8007b4c:	2303      	movs	r3, #3
 8007b4e:	e000      	b.n	8007b52 <SPI_EndRxTransaction+0xc2>
    }
  }
  return HAL_OK;
 8007b50:	2300      	movs	r3, #0
}
 8007b52:	4618      	mov	r0, r3
 8007b54:	3710      	adds	r7, #16
 8007b56:	46bd      	mov	sp, r7
 8007b58:	bd80      	pop	{r7, pc}
	...

08007b5c <SPI_EndRxTxTransaction>:
  * @param  Timeout Timeout duration
  * @param  Tickstart tick start value
  * @retval HAL status
  */
static HAL_StatusTypeDef SPI_EndRxTxTransaction(SPI_HandleTypeDef *hspi, uint32_t Timeout, uint32_t Tickstart)
{
 8007b5c:	b580      	push	{r7, lr}
 8007b5e:	b088      	sub	sp, #32
 8007b60:	af02      	add	r7, sp, #8
 8007b62:	60f8      	str	r0, [r7, #12]
 8007b64:	60b9      	str	r1, [r7, #8]
 8007b66:	607a      	str	r2, [r7, #4]
  /* Wait until TXE flag */
  if(SPI_WaitFlagStateUntilTimeout(hspi, SPI_FLAG_TXE, SET, Timeout, Tickstart) != HAL_OK)
 8007b68:	687b      	ldr	r3, [r7, #4]
 8007b6a:	9300      	str	r3, [sp, #0]
 8007b6c:	68bb      	ldr	r3, [r7, #8]
 8007b6e:	2201      	movs	r2, #1
 8007b70:	2102      	movs	r1, #2
 8007b72:	68f8      	ldr	r0, [r7, #12]
 8007b74:	f7ff ff04 	bl	8007980 <SPI_WaitFlagStateUntilTimeout>
 8007b78:	4603      	mov	r3, r0
 8007b7a:	2b00      	cmp	r3, #0
 8007b7c:	d007      	beq.n	8007b8e <SPI_EndRxTxTransaction+0x32>
  {
    SET_BIT(hspi->ErrorCode, HAL_SPI_ERROR_FLAG);
 8007b7e:	68fb      	ldr	r3, [r7, #12]
 8007b80:	6d5b      	ldr	r3, [r3, #84]	; 0x54
 8007b82:	f043 0220 	orr.w	r2, r3, #32
 8007b86:	68fb      	ldr	r3, [r7, #12]
 8007b88:	655a      	str	r2, [r3, #84]	; 0x54
    return HAL_TIMEOUT;
 8007b8a:	2303      	movs	r3, #3
 8007b8c:	e032      	b.n	8007bf4 <SPI_EndRxTxTransaction+0x98>
  }

  /* Timeout in s */
  __IO uint32_t count = SPI_BSY_FLAG_WORKAROUND_TIMEOUT * (SystemCoreClock / 24U / 1000000U);
 8007b8e:	4b1b      	ldr	r3, [pc, #108]	; (8007bfc <SPI_EndRxTxTransaction+0xa0>)
 8007b90:	681b      	ldr	r3, [r3, #0]
 8007b92:	4a1b      	ldr	r2, [pc, #108]	; (8007c00 <SPI_EndRxTxTransaction+0xa4>)
 8007b94:	fba2 2303 	umull	r2, r3, r2, r3
 8007b98:	0d5b      	lsrs	r3, r3, #21
 8007b9a:	f44f 727a 	mov.w	r2, #1000	; 0x3e8
 8007b9e:	fb02 f303 	mul.w	r3, r2, r3
 8007ba2:	617b      	str	r3, [r7, #20]
  /* Erratasheet: BSY bit may stay high at the end of a data transfer in Slave mode */
  if (hspi->Init.Mode == SPI_MODE_MASTER)
 8007ba4:	68fb      	ldr	r3, [r7, #12]
 8007ba6:	685b      	ldr	r3, [r3, #4]
 8007ba8:	f5b3 7f82 	cmp.w	r3, #260	; 0x104
 8007bac:	d112      	bne.n	8007bd4 <SPI_EndRxTxTransaction+0x78>
  {
    /* Control the BSY flag */
    if (SPI_WaitFlagStateUntilTimeout(hspi, SPI_FLAG_BSY, RESET, Timeout, Tickstart) != HAL_OK)
 8007bae:	687b      	ldr	r3, [r7, #4]
 8007bb0:	9300      	str	r3, [sp, #0]
 8007bb2:	68bb      	ldr	r3, [r7, #8]
 8007bb4:	2200      	movs	r2, #0
 8007bb6:	2180      	movs	r1, #128	; 0x80
 8007bb8:	68f8      	ldr	r0, [r7, #12]
 8007bba:	f7ff fee1 	bl	8007980 <SPI_WaitFlagStateUntilTimeout>
 8007bbe:	4603      	mov	r3, r0
 8007bc0:	2b00      	cmp	r3, #0
 8007bc2:	d016      	beq.n	8007bf2 <SPI_EndRxTxTransaction+0x96>
    {
      SET_BIT(hspi->ErrorCode, HAL_SPI_ERROR_FLAG);
 8007bc4:	68fb      	ldr	r3, [r7, #12]
 8007bc6:	6d5b      	ldr	r3, [r3, #84]	; 0x54
 8007bc8:	f043 0220 	orr.w	r2, r3, #32
 8007bcc:	68fb      	ldr	r3, [r7, #12]
 8007bce:	655a      	str	r2, [r3, #84]	; 0x54
      return HAL_TIMEOUT;
 8007bd0:	2303      	movs	r3, #3
 8007bd2:	e00f      	b.n	8007bf4 <SPI_EndRxTxTransaction+0x98>
    * User have to calculate the timeout value to fit with the time of 1 byte transfer.
    * This time is directly link with the SPI clock from Master device.
    */
    do
    {
      if (count == 0U)
 8007bd4:	697b      	ldr	r3, [r7, #20]
 8007bd6:	2b00      	cmp	r3, #0
 8007bd8:	d00a      	beq.n	8007bf0 <SPI_EndRxTxTransaction+0x94>
      {
        break;
      }
      count--;
 8007bda:	697b      	ldr	r3, [r7, #20]
 8007bdc:	3b01      	subs	r3, #1
 8007bde:	617b      	str	r3, [r7, #20]
    } while (__HAL_SPI_GET_FLAG(hspi, SPI_FLAG_BSY) != RESET);
 8007be0:	68fb      	ldr	r3, [r7, #12]
 8007be2:	681b      	ldr	r3, [r3, #0]
 8007be4:	689b      	ldr	r3, [r3, #8]
 8007be6:	f003 0380 	and.w	r3, r3, #128	; 0x80
 8007bea:	2b80      	cmp	r3, #128	; 0x80
 8007bec:	d0f2      	beq.n	8007bd4 <SPI_EndRxTxTransaction+0x78>
 8007bee:	e000      	b.n	8007bf2 <SPI_EndRxTxTransaction+0x96>
        break;
 8007bf0:	bf00      	nop
  }

  return HAL_OK;
 8007bf2:	2300      	movs	r3, #0
}
 8007bf4:	4618      	mov	r0, r3
 8007bf6:	3718      	adds	r7, #24
 8007bf8:	46bd      	mov	sp, r7
 8007bfa:	bd80      	pop	{r7, pc}
 8007bfc:	2000001c 	.word	0x2000001c
 8007c00:	165e9f81 	.word	0x165e9f81

08007c04 <HAL_TIM_Base_Init>:
  *         Ex: call @ref HAL_TIM_Base_DeInit() before HAL_TIM_Base_Init()
  * @param  htim TIM Base handle
  * @retval HAL status
  */
HAL_StatusTypeDef HAL_TIM_Base_Init(TIM_HandleTypeDef *htim)
{
 8007c04:	b580      	push	{r7, lr}
 8007c06:	b082      	sub	sp, #8
 8007c08:	af00      	add	r7, sp, #0
 8007c0a:	6078      	str	r0, [r7, #4]
  /* Check the TIM handle allocation */
  if (htim == NULL)
 8007c0c:	687b      	ldr	r3, [r7, #4]
 8007c0e:	2b00      	cmp	r3, #0
 8007c10:	d101      	bne.n	8007c16 <HAL_TIM_Base_Init+0x12>
  {
    return HAL_ERROR;
 8007c12:	2301      	movs	r3, #1
 8007c14:	e041      	b.n	8007c9a <HAL_TIM_Base_Init+0x96>
  assert_param(IS_TIM_COUNTER_MODE(htim->Init.CounterMode));
  assert_param(IS_TIM_CLOCKDIVISION_DIV(htim->Init.ClockDivision));
  assert_param(IS_TIM_PERIOD(htim, htim->Init.Period));
  assert_param(IS_TIM_AUTORELOAD_PRELOAD(htim->Init.AutoReloadPreload));

  if (htim->State == HAL_TIM_STATE_RESET)
 8007c16:	687b      	ldr	r3, [r7, #4]
 8007c18:	f893 303d 	ldrb.w	r3, [r3, #61]	; 0x3d
 8007c1c:	b2db      	uxtb	r3, r3
 8007c1e:	2b00      	cmp	r3, #0
 8007c20:	d106      	bne.n	8007c30 <HAL_TIM_Base_Init+0x2c>
  {
    /* Allocate lock resource and initialize it */
    htim->Lock = HAL_UNLOCKED;
 8007c22:	687b      	ldr	r3, [r7, #4]
 8007c24:	2200      	movs	r2, #0
 8007c26:	f883 203c 	strb.w	r2, [r3, #60]	; 0x3c
    }
    /* Init the low level hardware : GPIO, CLOCK, NVIC */
    htim->Base_MspInitCallback(htim);
#else
    /* Init the low level hardware : GPIO, CLOCK, NVIC */
    HAL_TIM_Base_MspInit(htim);
 8007c2a:	6878      	ldr	r0, [r7, #4]
 8007c2c:	f7fa ff34 	bl	8002a98 <HAL_TIM_Base_MspInit>
#endif /* USE_HAL_TIM_REGISTER_CALLBACKS */
  }

  /* Set the TIM state */
  htim->State = HAL_TIM_STATE_BUSY;
 8007c30:	687b      	ldr	r3, [r7, #4]
 8007c32:	2202      	movs	r2, #2
 8007c34:	f883 203d 	strb.w	r2, [r3, #61]	; 0x3d

  /* Set the Time Base configuration */
  TIM_Base_SetConfig(htim->Instance, &htim->Init);
 8007c38:	687b      	ldr	r3, [r7, #4]
 8007c3a:	681a      	ldr	r2, [r3, #0]
 8007c3c:	687b      	ldr	r3, [r7, #4]
 8007c3e:	3304      	adds	r3, #4
 8007c40:	4619      	mov	r1, r3
 8007c42:	4610      	mov	r0, r2
 8007c44:	f000 f9c0 	bl	8007fc8 <TIM_Base_SetConfig>

  /* Initialize the DMA burst operation state */
  htim->DMABurstState = HAL_DMA_BURST_STATE_READY;
 8007c48:	687b      	ldr	r3, [r7, #4]
 8007c4a:	2201      	movs	r2, #1
 8007c4c:	f883 2046 	strb.w	r2, [r3, #70]	; 0x46

  /* Initialize the TIM channels state */
  TIM_CHANNEL_STATE_SET_ALL(htim, HAL_TIM_CHANNEL_STATE_READY);
 8007c50:	687b      	ldr	r3, [r7, #4]
 8007c52:	2201      	movs	r2, #1
 8007c54:	f883 203e 	strb.w	r2, [r3, #62]	; 0x3e
 8007c58:	687b      	ldr	r3, [r7, #4]
 8007c5a:	2201      	movs	r2, #1
 8007c5c:	f883 203f 	strb.w	r2, [r3, #63]	; 0x3f
 8007c60:	687b      	ldr	r3, [r7, #4]
 8007c62:	2201      	movs	r2, #1
 8007c64:	f883 2040 	strb.w	r2, [r3, #64]	; 0x40
 8007c68:	687b      	ldr	r3, [r7, #4]
 8007c6a:	2201      	movs	r2, #1
 8007c6c:	f883 2041 	strb.w	r2, [r3, #65]	; 0x41
  TIM_CHANNEL_N_STATE_SET_ALL(htim, HAL_TIM_CHANNEL_STATE_READY);
 8007c70:	687b      	ldr	r3, [r7, #4]
 8007c72:	2201      	movs	r2, #1
 8007c74:	f883 2042 	strb.w	r2, [r3, #66]	; 0x42
 8007c78:	687b      	ldr	r3, [r7, #4]
 8007c7a:	2201      	movs	r2, #1
 8007c7c:	f883 2043 	strb.w	r2, [r3, #67]	; 0x43
 8007c80:	687b      	ldr	r3, [r7, #4]
 8007c82:	2201      	movs	r2, #1
 8007c84:	f883 2044 	strb.w	r2, [r3, #68]	; 0x44
 8007c88:	687b      	ldr	r3, [r7, #4]
 8007c8a:	2201      	movs	r2, #1
 8007c8c:	f883 2045 	strb.w	r2, [r3, #69]	; 0x45

  /* Initialize the TIM state*/
  htim->State = HAL_TIM_STATE_READY;
 8007c90:	687b      	ldr	r3, [r7, #4]
 8007c92:	2201      	movs	r2, #1
 8007c94:	f883 203d 	strb.w	r2, [r3, #61]	; 0x3d

  return HAL_OK;
 8007c98:	2300      	movs	r3, #0
}
 8007c9a:	4618      	mov	r0, r3
 8007c9c:	3708      	adds	r7, #8
 8007c9e:	46bd      	mov	sp, r7
 8007ca0:	bd80      	pop	{r7, pc}
	...

08007ca4 <HAL_TIM_Base_Start_IT>:
  * @brief  Starts the TIM Base generation in interrupt mode.
  * @param  htim TIM Base handle
  * @retval HAL status
  */
HAL_StatusTypeDef HAL_TIM_Base_Start_IT(TIM_HandleTypeDef *htim)
{
 8007ca4:	b480      	push	{r7}
 8007ca6:	b085      	sub	sp, #20
 8007ca8:	af00      	add	r7, sp, #0
 8007caa:	6078      	str	r0, [r7, #4]

  /* Check the parameters */
  assert_param(IS_TIM_INSTANCE(htim->Instance));

  /* Check the TIM state */
  if (htim->State != HAL_TIM_STATE_READY)
 8007cac:	687b      	ldr	r3, [r7, #4]
 8007cae:	f893 303d 	ldrb.w	r3, [r3, #61]	; 0x3d
 8007cb2:	b2db      	uxtb	r3, r3
 8007cb4:	2b01      	cmp	r3, #1
 8007cb6:	d001      	beq.n	8007cbc <HAL_TIM_Base_Start_IT+0x18>
  {
    return HAL_ERROR;
 8007cb8:	2301      	movs	r3, #1
 8007cba:	e04e      	b.n	8007d5a <HAL_TIM_Base_Start_IT+0xb6>
  }

  /* Set the TIM state */
  htim->State = HAL_TIM_STATE_BUSY;
 8007cbc:	687b      	ldr	r3, [r7, #4]
 8007cbe:	2202      	movs	r2, #2
 8007cc0:	f883 203d 	strb.w	r2, [r3, #61]	; 0x3d

  /* Enable the TIM Update interrupt */
  __HAL_TIM_ENABLE_IT(htim, TIM_IT_UPDATE);
 8007cc4:	687b      	ldr	r3, [r7, #4]
 8007cc6:	681b      	ldr	r3, [r3, #0]
 8007cc8:	68da      	ldr	r2, [r3, #12]
 8007cca:	687b      	ldr	r3, [r7, #4]
 8007ccc:	681b      	ldr	r3, [r3, #0]
 8007cce:	f042 0201 	orr.w	r2, r2, #1
 8007cd2:	60da      	str	r2, [r3, #12]

  /* Enable the Peripheral, except in trigger mode where enable is automatically done with trigger */
  if (IS_TIM_SLAVE_INSTANCE(htim->Instance))
 8007cd4:	687b      	ldr	r3, [r7, #4]
 8007cd6:	681b      	ldr	r3, [r3, #0]
 8007cd8:	4a23      	ldr	r2, [pc, #140]	; (8007d68 <HAL_TIM_Base_Start_IT+0xc4>)
 8007cda:	4293      	cmp	r3, r2
 8007cdc:	d022      	beq.n	8007d24 <HAL_TIM_Base_Start_IT+0x80>
 8007cde:	687b      	ldr	r3, [r7, #4]
 8007ce0:	681b      	ldr	r3, [r3, #0]
 8007ce2:	f1b3 4f80 	cmp.w	r3, #1073741824	; 0x40000000
 8007ce6:	d01d      	beq.n	8007d24 <HAL_TIM_Base_Start_IT+0x80>
 8007ce8:	687b      	ldr	r3, [r7, #4]
 8007cea:	681b      	ldr	r3, [r3, #0]
 8007cec:	4a1f      	ldr	r2, [pc, #124]	; (8007d6c <HAL_TIM_Base_Start_IT+0xc8>)
 8007cee:	4293      	cmp	r3, r2
 8007cf0:	d018      	beq.n	8007d24 <HAL_TIM_Base_Start_IT+0x80>
 8007cf2:	687b      	ldr	r3, [r7, #4]
 8007cf4:	681b      	ldr	r3, [r3, #0]
 8007cf6:	4a1e      	ldr	r2, [pc, #120]	; (8007d70 <HAL_TIM_Base_Start_IT+0xcc>)
 8007cf8:	4293      	cmp	r3, r2
 8007cfa:	d013      	beq.n	8007d24 <HAL_TIM_Base_Start_IT+0x80>
 8007cfc:	687b      	ldr	r3, [r7, #4]
 8007cfe:	681b      	ldr	r3, [r3, #0]
 8007d00:	4a1c      	ldr	r2, [pc, #112]	; (8007d74 <HAL_TIM_Base_Start_IT+0xd0>)
 8007d02:	4293      	cmp	r3, r2
 8007d04:	d00e      	beq.n	8007d24 <HAL_TIM_Base_Start_IT+0x80>
 8007d06:	687b      	ldr	r3, [r7, #4]
 8007d08:	681b      	ldr	r3, [r3, #0]
 8007d0a:	4a1b      	ldr	r2, [pc, #108]	; (8007d78 <HAL_TIM_Base_Start_IT+0xd4>)
 8007d0c:	4293      	cmp	r3, r2
 8007d0e:	d009      	beq.n	8007d24 <HAL_TIM_Base_Start_IT+0x80>
 8007d10:	687b      	ldr	r3, [r7, #4]
 8007d12:	681b      	ldr	r3, [r3, #0]
 8007d14:	4a19      	ldr	r2, [pc, #100]	; (8007d7c <HAL_TIM_Base_Start_IT+0xd8>)
 8007d16:	4293      	cmp	r3, r2
 8007d18:	d004      	beq.n	8007d24 <HAL_TIM_Base_Start_IT+0x80>
 8007d1a:	687b      	ldr	r3, [r7, #4]
 8007d1c:	681b      	ldr	r3, [r3, #0]
 8007d1e:	4a18      	ldr	r2, [pc, #96]	; (8007d80 <HAL_TIM_Base_Start_IT+0xdc>)
 8007d20:	4293      	cmp	r3, r2
 8007d22:	d111      	bne.n	8007d48 <HAL_TIM_Base_Start_IT+0xa4>
  {
    tmpsmcr = htim->Instance->SMCR & TIM_SMCR_SMS;
 8007d24:	687b      	ldr	r3, [r7, #4]
 8007d26:	681b      	ldr	r3, [r3, #0]
 8007d28:	689b      	ldr	r3, [r3, #8]
 8007d2a:	f003 0307 	and.w	r3, r3, #7
 8007d2e:	60fb      	str	r3, [r7, #12]
    if (!IS_TIM_SLAVEMODE_TRIGGER_ENABLED(tmpsmcr))
 8007d30:	68fb      	ldr	r3, [r7, #12]
 8007d32:	2b06      	cmp	r3, #6
 8007d34:	d010      	beq.n	8007d58 <HAL_TIM_Base_Start_IT+0xb4>
    {
      __HAL_TIM_ENABLE(htim);
 8007d36:	687b      	ldr	r3, [r7, #4]
 8007d38:	681b      	ldr	r3, [r3, #0]
 8007d3a:	681a      	ldr	r2, [r3, #0]
 8007d3c:	687b      	ldr	r3, [r7, #4]
 8007d3e:	681b      	ldr	r3, [r3, #0]
 8007d40:	f042 0201 	orr.w	r2, r2, #1
 8007d44:	601a      	str	r2, [r3, #0]
    if (!IS_TIM_SLAVEMODE_TRIGGER_ENABLED(tmpsmcr))
 8007d46:	e007      	b.n	8007d58 <HAL_TIM_Base_Start_IT+0xb4>
    }
  }
  else
  {
    __HAL_TIM_ENABLE(htim);
 8007d48:	687b      	ldr	r3, [r7, #4]
 8007d4a:	681b      	ldr	r3, [r3, #0]
 8007d4c:	681a      	ldr	r2, [r3, #0]
 8007d4e:	687b      	ldr	r3, [r7, #4]
 8007d50:	681b      	ldr	r3, [r3, #0]
 8007d52:	f042 0201 	orr.w	r2, r2, #1
 8007d56:	601a      	str	r2, [r3, #0]
  }

  /* Return function status */
  return HAL_OK;
 8007d58:	2300      	movs	r3, #0
}
 8007d5a:	4618      	mov	r0, r3
 8007d5c:	3714      	adds	r7, #20
 8007d5e:	46bd      	mov	sp, r7
 8007d60:	f85d 7b04 	ldr.w	r7, [sp], #4
 8007d64:	4770      	bx	lr
 8007d66:	bf00      	nop
 8007d68:	40010000 	.word	0x40010000
 8007d6c:	40000400 	.word	0x40000400
 8007d70:	40000800 	.word	0x40000800
 8007d74:	40000c00 	.word	0x40000c00
 8007d78:	40010400 	.word	0x40010400
 8007d7c:	40014000 	.word	0x40014000
 8007d80:	40001800 	.word	0x40001800

08007d84 <HAL_TIM_IRQHandler>:
  * @brief  This function handles TIM interrupts requests.
  * @param  htim TIM  handle
  * @retval None
  */
void HAL_TIM_IRQHandler(TIM_HandleTypeDef *htim)
{
 8007d84:	b580      	push	{r7, lr}
 8007d86:	b084      	sub	sp, #16
 8007d88:	af00      	add	r7, sp, #0
 8007d8a:	6078      	str	r0, [r7, #4]
  uint32_t itsource = htim->Instance->DIER;
 8007d8c:	687b      	ldr	r3, [r7, #4]
 8007d8e:	681b      	ldr	r3, [r3, #0]
 8007d90:	68db      	ldr	r3, [r3, #12]
 8007d92:	60fb      	str	r3, [r7, #12]
  uint32_t itflag   = htim->Instance->SR;
 8007d94:	687b      	ldr	r3, [r7, #4]
 8007d96:	681b      	ldr	r3, [r3, #0]
 8007d98:	691b      	ldr	r3, [r3, #16]
 8007d9a:	60bb      	str	r3, [r7, #8]

  /* Capture compare 1 event */
  if ((itflag & (TIM_FLAG_CC1)) == (TIM_FLAG_CC1))
 8007d9c:	68bb      	ldr	r3, [r7, #8]
 8007d9e:	f003 0302 	and.w	r3, r3, #2
 8007da2:	2b00      	cmp	r3, #0
 8007da4:	d020      	beq.n	8007de8 <HAL_TIM_IRQHandler+0x64>
  {
    if ((itsource & (TIM_IT_CC1)) == (TIM_IT_CC1))
 8007da6:	68fb      	ldr	r3, [r7, #12]
 8007da8:	f003 0302 	and.w	r3, r3, #2
 8007dac:	2b00      	cmp	r3, #0
 8007dae:	d01b      	beq.n	8007de8 <HAL_TIM_IRQHandler+0x64>
    {
      {
        __HAL_TIM_CLEAR_FLAG(htim, TIM_FLAG_CC1);
 8007db0:	687b      	ldr	r3, [r7, #4]
 8007db2:	681b      	ldr	r3, [r3, #0]
 8007db4:	f06f 0202 	mvn.w	r2, #2
 8007db8:	611a      	str	r2, [r3, #16]
        htim->Channel = HAL_TIM_ACTIVE_CHANNEL_1;
 8007dba:	687b      	ldr	r3, [r7, #4]
 8007dbc:	2201      	movs	r2, #1
 8007dbe:	771a      	strb	r2, [r3, #28]

        /* Input capture event */
        if ((htim->Instance->CCMR1 & TIM_CCMR1_CC1S) != 0x00U)
 8007dc0:	687b      	ldr	r3, [r7, #4]
 8007dc2:	681b      	ldr	r3, [r3, #0]
 8007dc4:	699b      	ldr	r3, [r3, #24]
 8007dc6:	f003 0303 	and.w	r3, r3, #3
 8007dca:	2b00      	cmp	r3, #0
 8007dcc:	d003      	beq.n	8007dd6 <HAL_TIM_IRQHandler+0x52>
        {
#if (USE_HAL_TIM_REGISTER_CALLBACKS == 1)
          htim->IC_CaptureCallback(htim);
#else
          HAL_TIM_IC_CaptureCallback(htim);
 8007dce:	6878      	ldr	r0, [r7, #4]
 8007dd0:	f000 f8dc 	bl	8007f8c <HAL_TIM_IC_CaptureCallback>
 8007dd4:	e005      	b.n	8007de2 <HAL_TIM_IRQHandler+0x5e>
        {
#if (USE_HAL_TIM_REGISTER_CALLBACKS == 1)
          htim->OC_DelayElapsedCallback(htim);
          htim->PWM_PulseFinishedCallback(htim);
#else
          HAL_TIM_OC_DelayElapsedCallback(htim);
 8007dd6:	6878      	ldr	r0, [r7, #4]
 8007dd8:	f000 f8ce 	bl	8007f78 <HAL_TIM_OC_DelayElapsedCallback>
          HAL_TIM_PWM_PulseFinishedCallback(htim);
 8007ddc:	6878      	ldr	r0, [r7, #4]
 8007dde:	f000 f8df 	bl	8007fa0 <HAL_TIM_PWM_PulseFinishedCallback>
#endif /* USE_HAL_TIM_REGISTER_CALLBACKS */
        }
        htim->Channel = HAL_TIM_ACTIVE_CHANNEL_CLEARED;
 8007de2:	687b      	ldr	r3, [r7, #4]
 8007de4:	2200      	movs	r2, #0
 8007de6:	771a      	strb	r2, [r3, #28]
      }
    }
  }
  /* Capture compare 2 event */
  if ((itflag & (TIM_FLAG_CC2)) == (TIM_FLAG_CC2))
 8007de8:	68bb      	ldr	r3, [r7, #8]
 8007dea:	f003 0304 	and.w	r3, r3, #4
 8007dee:	2b00      	cmp	r3, #0
 8007df0:	d020      	beq.n	8007e34 <HAL_TIM_IRQHandler+0xb0>
  {
    if ((itsource & (TIM_IT_CC2)) == (TIM_IT_CC2))
 8007df2:	68fb      	ldr	r3, [r7, #12]
 8007df4:	f003 0304 	and.w	r3, r3, #4
 8007df8:	2b00      	cmp	r3, #0
 8007dfa:	d01b      	beq.n	8007e34 <HAL_TIM_IRQHandler+0xb0>
    {
      __HAL_TIM_CLEAR_FLAG(htim, TIM_FLAG_CC2);
 8007dfc:	687b      	ldr	r3, [r7, #4]
 8007dfe:	681b      	ldr	r3, [r3, #0]
 8007e00:	f06f 0204 	mvn.w	r2, #4
 8007e04:	611a      	str	r2, [r3, #16]
      htim->Channel = HAL_TIM_ACTIVE_CHANNEL_2;
 8007e06:	687b      	ldr	r3, [r7, #4]
 8007e08:	2202      	movs	r2, #2
 8007e0a:	771a      	strb	r2, [r3, #28]
      /* Input capture event */
      if ((htim->Instance->CCMR1 & TIM_CCMR1_CC2S) != 0x00U)
 8007e0c:	687b      	ldr	r3, [r7, #4]
 8007e0e:	681b      	ldr	r3, [r3, #0]
 8007e10:	699b      	ldr	r3, [r3, #24]
 8007e12:	f403 7340 	and.w	r3, r3, #768	; 0x300
 8007e16:	2b00      	cmp	r3, #0
 8007e18:	d003      	beq.n	8007e22 <HAL_TIM_IRQHandler+0x9e>
      {
#if (USE_HAL_TIM_REGISTER_CALLBACKS == 1)
        htim->IC_CaptureCallback(htim);
#else
        HAL_TIM_IC_CaptureCallback(htim);
 8007e1a:	6878      	ldr	r0, [r7, #4]
 8007e1c:	f000 f8b6 	bl	8007f8c <HAL_TIM_IC_CaptureCallback>
 8007e20:	e005      	b.n	8007e2e <HAL_TIM_IRQHandler+0xaa>
      {
#if (USE_HAL_TIM_REGISTER_CALLBACKS == 1)
        htim->OC_DelayElapsedCallback(htim);
        htim->PWM_PulseFinishedCallback(htim);
#else
        HAL_TIM_OC_DelayElapsedCallback(htim);
 8007e22:	6878      	ldr	r0, [r7, #4]
 8007e24:	f000 f8a8 	bl	8007f78 <HAL_TIM_OC_DelayElapsedCallback>
        HAL_TIM_PWM_PulseFinishedCallback(htim);
 8007e28:	6878      	ldr	r0, [r7, #4]
 8007e2a:	f000 f8b9 	bl	8007fa0 <HAL_TIM_PWM_PulseFinishedCallback>
#endif /* USE_HAL_TIM_REGISTER_CALLBACKS */
      }
      htim->Channel = HAL_TIM_ACTIVE_CHANNEL_CLEARED;
 8007e2e:	687b      	ldr	r3, [r7, #4]
 8007e30:	2200      	movs	r2, #0
 8007e32:	771a      	strb	r2, [r3, #28]
    }
  }
  /* Capture compare 3 event */
  if ((itflag & (TIM_FLAG_CC3)) == (TIM_FLAG_CC3))
 8007e34:	68bb      	ldr	r3, [r7, #8]
 8007e36:	f003 0308 	and.w	r3, r3, #8
 8007e3a:	2b00      	cmp	r3, #0
 8007e3c:	d020      	beq.n	8007e80 <HAL_TIM_IRQHandler+0xfc>
  {
    if ((itsource & (TIM_IT_CC3)) == (TIM_IT_CC3))
 8007e3e:	68fb      	ldr	r3, [r7, #12]
 8007e40:	f003 0308 	and.w	r3, r3, #8
 8007e44:	2b00      	cmp	r3, #0
 8007e46:	d01b      	beq.n	8007e80 <HAL_TIM_IRQHandler+0xfc>
    {
      __HAL_TIM_CLEAR_FLAG(htim, TIM_FLAG_CC3);
 8007e48:	687b      	ldr	r3, [r7, #4]
 8007e4a:	681b      	ldr	r3, [r3, #0]
 8007e4c:	f06f 0208 	mvn.w	r2, #8
 8007e50:	611a      	str	r2, [r3, #16]
      htim->Channel = HAL_TIM_ACTIVE_CHANNEL_3;
 8007e52:	687b      	ldr	r3, [r7, #4]
 8007e54:	2204      	movs	r2, #4
 8007e56:	771a      	strb	r2, [r3, #28]
      /* Input capture event */
      if ((htim->Instance->CCMR2 & TIM_CCMR2_CC3S) != 0x00U)
 8007e58:	687b      	ldr	r3, [r7, #4]
 8007e5a:	681b      	ldr	r3, [r3, #0]
 8007e5c:	69db      	ldr	r3, [r3, #28]
 8007e5e:	f003 0303 	and.w	r3, r3, #3
 8007e62:	2b00      	cmp	r3, #0
 8007e64:	d003      	beq.n	8007e6e <HAL_TIM_IRQHandler+0xea>
      {
#if (USE_HAL_TIM_REGISTER_CALLBACKS == 1)
        htim->IC_CaptureCallback(htim);
#else
        HAL_TIM_IC_CaptureCallback(htim);
 8007e66:	6878      	ldr	r0, [r7, #4]
 8007e68:	f000 f890 	bl	8007f8c <HAL_TIM_IC_CaptureCallback>
 8007e6c:	e005      	b.n	8007e7a <HAL_TIM_IRQHandler+0xf6>
      {
#if (USE_HAL_TIM_REGISTER_CALLBACKS == 1)
        htim->OC_DelayElapsedCallback(htim);
        htim->PWM_PulseFinishedCallback(htim);
#else
        HAL_TIM_OC_DelayElapsedCallback(htim);
 8007e6e:	6878      	ldr	r0, [r7, #4]
 8007e70:	f000 f882 	bl	8007f78 <HAL_TIM_OC_DelayElapsedCallback>
        HAL_TIM_PWM_PulseFinishedCallback(htim);
 8007e74:	6878      	ldr	r0, [r7, #4]
 8007e76:	f000 f893 	bl	8007fa0 <HAL_TIM_PWM_PulseFinishedCallback>
#endif /* USE_HAL_TIM_REGISTER_CALLBACKS */
      }
      htim->Channel = HAL_TIM_ACTIVE_CHANNEL_CLEARED;
 8007e7a:	687b      	ldr	r3, [r7, #4]
 8007e7c:	2200      	movs	r2, #0
 8007e7e:	771a      	strb	r2, [r3, #28]
    }
  }
  /* Capture compare 4 event */
  if ((itflag & (TIM_FLAG_CC4)) == (TIM_FLAG_CC4))
 8007e80:	68bb      	ldr	r3, [r7, #8]
 8007e82:	f003 0310 	and.w	r3, r3, #16
 8007e86:	2b00      	cmp	r3, #0
 8007e88:	d020      	beq.n	8007ecc <HAL_TIM_IRQHandler+0x148>
  {
    if ((itsource & (TIM_IT_CC4)) == (TIM_IT_CC4))
 8007e8a:	68fb      	ldr	r3, [r7, #12]
 8007e8c:	f003 0310 	and.w	r3, r3, #16
 8007e90:	2b00      	cmp	r3, #0
 8007e92:	d01b      	beq.n	8007ecc <HAL_TIM_IRQHandler+0x148>
    {
      __HAL_TIM_CLEAR_FLAG(htim, TIM_FLAG_CC4);
 8007e94:	687b      	ldr	r3, [r7, #4]
 8007e96:	681b      	ldr	r3, [r3, #0]
 8007e98:	f06f 0210 	mvn.w	r2, #16
 8007e9c:	611a      	str	r2, [r3, #16]
      htim->Channel = HAL_TIM_ACTIVE_CHANNEL_4;
 8007e9e:	687b      	ldr	r3, [r7, #4]
 8007ea0:	2208      	movs	r2, #8
 8007ea2:	771a      	strb	r2, [r3, #28]
      /* Input capture event */
      if ((htim->Instance->CCMR2 & TIM_CCMR2_CC4S) != 0x00U)
 8007ea4:	687b      	ldr	r3, [r7, #4]
 8007ea6:	681b      	ldr	r3, [r3, #0]
 8007ea8:	69db      	ldr	r3, [r3, #28]
 8007eaa:	f403 7340 	and.w	r3, r3, #768	; 0x300
 8007eae:	2b00      	cmp	r3, #0
 8007eb0:	d003      	beq.n	8007eba <HAL_TIM_IRQHandler+0x136>
      {
#if (USE_HAL_TIM_REGISTER_CALLBACKS == 1)
        htim->IC_CaptureCallback(htim);
#else
        HAL_TIM_IC_CaptureCallback(htim);
 8007eb2:	6878      	ldr	r0, [r7, #4]
 8007eb4:	f000 f86a 	bl	8007f8c <HAL_TIM_IC_CaptureCallback>
 8007eb8:	e005      	b.n	8007ec6 <HAL_TIM_IRQHandler+0x142>
      {
#if (USE_HAL_TIM_REGISTER_CALLBACKS == 1)
        htim->OC_DelayElapsedCallback(htim);
        htim->PWM_PulseFinishedCallback(htim);
#else
        HAL_TIM_OC_DelayElapsedCallback(htim);
 8007eba:	6878      	ldr	r0, [r7, #4]
 8007ebc:	f000 f85c 	bl	8007f78 <HAL_TIM_OC_DelayElapsedCallback>
        HAL_TIM_PWM_PulseFinishedCallback(htim);
 8007ec0:	6878      	ldr	r0, [r7, #4]
 8007ec2:	f000 f86d 	bl	8007fa0 <HAL_TIM_PWM_PulseFinishedCallback>
#endif /* USE_HAL_TIM_REGISTER_CALLBACKS */
      }
      htim->Channel = HAL_TIM_ACTIVE_CHANNEL_CLEARED;
 8007ec6:	687b      	ldr	r3, [r7, #4]
 8007ec8:	2200      	movs	r2, #0
 8007eca:	771a      	strb	r2, [r3, #28]
    }
  }
  /* TIM Update event */
  if ((itflag & (TIM_FLAG_UPDATE)) == (TIM_FLAG_UPDATE))
 8007ecc:	68bb      	ldr	r3, [r7, #8]
 8007ece:	f003 0301 	and.w	r3, r3, #1
 8007ed2:	2b00      	cmp	r3, #0
 8007ed4:	d00c      	beq.n	8007ef0 <HAL_TIM_IRQHandler+0x16c>
  {
    if ((itsource & (TIM_IT_UPDATE)) == (TIM_IT_UPDATE))
 8007ed6:	68fb      	ldr	r3, [r7, #12]
 8007ed8:	f003 0301 	and.w	r3, r3, #1
 8007edc:	2b00      	cmp	r3, #0
 8007ede:	d007      	beq.n	8007ef0 <HAL_TIM_IRQHandler+0x16c>
    {
      __HAL_TIM_CLEAR_FLAG(htim, TIM_FLAG_UPDATE);
 8007ee0:	687b      	ldr	r3, [r7, #4]
 8007ee2:	681b      	ldr	r3, [r3, #0]
 8007ee4:	f06f 0201 	mvn.w	r2, #1
 8007ee8:	611a      	str	r2, [r3, #16]
#if (USE_HAL_TIM_REGISTER_CALLBACKS == 1)
      htim->PeriodElapsedCallback(htim);
#else
      HAL_TIM_PeriodElapsedCallback(htim);
 8007eea:	6878      	ldr	r0, [r7, #4]
 8007eec:	f000 f83a 	bl	8007f64 <HAL_TIM_PeriodElapsedCallback>
#endif /* USE_HAL_TIM_REGISTER_CALLBACKS */
    }
  }
  /* TIM Break input event */
  if ((itflag & (TIM_FLAG_BREAK)) == (TIM_FLAG_BREAK))
 8007ef0:	68bb      	ldr	r3, [r7, #8]
 8007ef2:	f003 0380 	and.w	r3, r3, #128	; 0x80
 8007ef6:	2b00      	cmp	r3, #0
 8007ef8:	d00c      	beq.n	8007f14 <HAL_TIM_IRQHandler+0x190>
  {
    if ((itsource & (TIM_IT_BREAK)) == (TIM_IT_BREAK))
 8007efa:	68fb      	ldr	r3, [r7, #12]
 8007efc:	f003 0380 	and.w	r3, r3, #128	; 0x80
 8007f00:	2b00      	cmp	r3, #0
 8007f02:	d007      	beq.n	8007f14 <HAL_TIM_IRQHandler+0x190>
    {
      __HAL_TIM_CLEAR_FLAG(htim, TIM_FLAG_BREAK);
 8007f04:	687b      	ldr	r3, [r7, #4]
 8007f06:	681b      	ldr	r3, [r3, #0]
 8007f08:	f06f 0280 	mvn.w	r2, #128	; 0x80
 8007f0c:	611a      	str	r2, [r3, #16]
#if (USE_HAL_TIM_REGISTER_CALLBACKS == 1)
      htim->BreakCallback(htim);
#else
      HAL_TIMEx_BreakCallback(htim);
 8007f0e:	6878      	ldr	r0, [r7, #4]
 8007f10:	f000 f98c 	bl	800822c <HAL_TIMEx_BreakCallback>
#endif /* USE_HAL_TIM_REGISTER_CALLBACKS */
    }
  }
  /* TIM Trigger detection event */
  if ((itflag & (TIM_FLAG_TRIGGER)) == (TIM_FLAG_TRIGGER))
 8007f14:	68bb      	ldr	r3, [r7, #8]
 8007f16:	f003 0340 	and.w	r3, r3, #64	; 0x40
 8007f1a:	2b00      	cmp	r3, #0
 8007f1c:	d00c      	beq.n	8007f38 <HAL_TIM_IRQHandler+0x1b4>
  {
    if ((itsource & (TIM_IT_TRIGGER)) == (TIM_IT_TRIGGER))
 8007f1e:	68fb      	ldr	r3, [r7, #12]
 8007f20:	f003 0340 	and.w	r3, r3, #64	; 0x40
 8007f24:	2b00      	cmp	r3, #0
 8007f26:	d007      	beq.n	8007f38 <HAL_TIM_IRQHandler+0x1b4>
    {
      __HAL_TIM_CLEAR_FLAG(htim, TIM_FLAG_TRIGGER);
 8007f28:	687b      	ldr	r3, [r7, #4]
 8007f2a:	681b      	ldr	r3, [r3, #0]
 8007f2c:	f06f 0240 	mvn.w	r2, #64	; 0x40
 8007f30:	611a      	str	r2, [r3, #16]
#if (USE_HAL_TIM_REGISTER_CALLBACKS == 1)
      htim->TriggerCallback(htim);
#else
      HAL_TIM_TriggerCallback(htim);
 8007f32:	6878      	ldr	r0, [r7, #4]
 8007f34:	f000 f83e 	bl	8007fb4 <HAL_TIM_TriggerCallback>
#endif /* USE_HAL_TIM_REGISTER_CALLBACKS */
    }
  }
  /* TIM commutation event */
  if ((itflag & (TIM_FLAG_COM)) == (TIM_FLAG_COM))
 8007f38:	68bb      	ldr	r3, [r7, #8]
 8007f3a:	f003 0320 	and.w	r3, r3, #32
 8007f3e:	2b00      	cmp	r3, #0
 8007f40:	d00c      	beq.n	8007f5c <HAL_TIM_IRQHandler+0x1d8>
  {
    if ((itsource & (TIM_IT_COM)) == (TIM_IT_COM))
 8007f42:	68fb      	ldr	r3, [r7, #12]
 8007f44:	f003 0320 	and.w	r3, r3, #32
 8007f48:	2b00      	cmp	r3, #0
 8007f4a:	d007      	beq.n	8007f5c <HAL_TIM_IRQHandler+0x1d8>
    {
      __HAL_TIM_CLEAR_FLAG(htim, TIM_FLAG_COM);
 8007f4c:	687b      	ldr	r3, [r7, #4]
 8007f4e:	681b      	ldr	r3, [r3, #0]
 8007f50:	f06f 0220 	mvn.w	r2, #32
 8007f54:	611a      	str	r2, [r3, #16]
#if (USE_HAL_TIM_REGISTER_CALLBACKS == 1)
      htim->CommutationCallback(htim);
#else
      HAL_TIMEx_CommutCallback(htim);
 8007f56:	6878      	ldr	r0, [r7, #4]
 8007f58:	f000 f95e 	bl	8008218 <HAL_TIMEx_CommutCallback>
#endif /* USE_HAL_TIM_REGISTER_CALLBACKS */
    }
  }
}
 8007f5c:	bf00      	nop
 8007f5e:	3710      	adds	r7, #16
 8007f60:	46bd      	mov	sp, r7
 8007f62:	bd80      	pop	{r7, pc}

08007f64 <HAL_TIM_PeriodElapsedCallback>:
  * @brief  Period elapsed callback in non-blocking mode
  * @param  htim TIM handle
  * @retval None
  */
__weak void HAL_TIM_PeriodElapsedCallback(TIM_HandleTypeDef *htim)
{
 8007f64:	b480      	push	{r7}
 8007f66:	b083      	sub	sp, #12
 8007f68:	af00      	add	r7, sp, #0
 8007f6a:	6078      	str	r0, [r7, #4]
  UNUSED(htim);

  /* NOTE : This function should not be modified, when the callback is needed,
            the HAL_TIM_PeriodElapsedCallback could be implemented in the user file
   */
}
 8007f6c:	bf00      	nop
 8007f6e:	370c      	adds	r7, #12
 8007f70:	46bd      	mov	sp, r7
 8007f72:	f85d 7b04 	ldr.w	r7, [sp], #4
 8007f76:	4770      	bx	lr

08007f78 <HAL_TIM_OC_DelayElapsedCallback>:
  * @brief  Output Compare callback in non-blocking mode
  * @param  htim TIM OC handle
  * @retval None
  */
__weak void HAL_TIM_OC_DelayElapsedCallback(TIM_HandleTypeDef *htim)
{
 8007f78:	b480      	push	{r7}
 8007f7a:	b083      	sub	sp, #12
 8007f7c:	af00      	add	r7, sp, #0
 8007f7e:	6078      	str	r0, [r7, #4]
  UNUSED(htim);

  /* NOTE : This function should not be modified, when the callback is needed,
            the HAL_TIM_OC_DelayElapsedCallback could be implemented in the user file
   */
}
 8007f80:	bf00      	nop
 8007f82:	370c      	adds	r7, #12
 8007f84:	46bd      	mov	sp, r7
 8007f86:	f85d 7b04 	ldr.w	r7, [sp], #4
 8007f8a:	4770      	bx	lr

08007f8c <HAL_TIM_IC_CaptureCallback>:
  * @brief  Input Capture callback in non-blocking mode
  * @param  htim TIM IC handle
  * @retval None
  */
__weak void HAL_TIM_IC_CaptureCallback(TIM_HandleTypeDef *htim)
{
 8007f8c:	b480      	push	{r7}
 8007f8e:	b083      	sub	sp, #12
 8007f90:	af00      	add	r7, sp, #0
 8007f92:	6078      	str	r0, [r7, #4]
  UNUSED(htim);

  /* NOTE : This function should not be modified, when the callback is needed,
            the HAL_TIM_IC_CaptureCallback could be implemented in the user file
   */
}
 8007f94:	bf00      	nop
 8007f96:	370c      	adds	r7, #12
 8007f98:	46bd      	mov	sp, r7
 8007f9a:	f85d 7b04 	ldr.w	r7, [sp], #4
 8007f9e:	4770      	bx	lr

08007fa0 <HAL_TIM_PWM_PulseFinishedCallback>:
  * @brief  PWM Pulse finished callback in non-blocking mode
  * @param  htim TIM handle
  * @retval None
  */
__weak void HAL_TIM_PWM_PulseFinishedCallback(TIM_HandleTypeDef *htim)
{
 8007fa0:	b480      	push	{r7}
 8007fa2:	b083      	sub	sp, #12
 8007fa4:	af00      	add	r7, sp, #0
 8007fa6:	6078      	str	r0, [r7, #4]
  UNUSED(htim);

  /* NOTE : This function should not be modified, when the callback is needed,
            the HAL_TIM_PWM_PulseFinishedCallback could be implemented in the user file
   */
}
 8007fa8:	bf00      	nop
 8007faa:	370c      	adds	r7, #12
 8007fac:	46bd      	mov	sp, r7
 8007fae:	f85d 7b04 	ldr.w	r7, [sp], #4
 8007fb2:	4770      	bx	lr

08007fb4 <HAL_TIM_TriggerCallback>:
  * @brief  Hall Trigger detection callback in non-blocking mode
  * @param  htim TIM handle
  * @retval None
  */
__weak void HAL_TIM_TriggerCallback(TIM_HandleTypeDef *htim)
{
 8007fb4:	b480      	push	{r7}
 8007fb6:	b083      	sub	sp, #12
 8007fb8:	af00      	add	r7, sp, #0
 8007fba:	6078      	str	r0, [r7, #4]
  UNUSED(htim);

  /* NOTE : This function should not be modified, when the callback is needed,
            the HAL_TIM_TriggerCallback could be implemented in the user file
   */
}
 8007fbc:	bf00      	nop
 8007fbe:	370c      	adds	r7, #12
 8007fc0:	46bd      	mov	sp, r7
 8007fc2:	f85d 7b04 	ldr.w	r7, [sp], #4
 8007fc6:	4770      	bx	lr

08007fc8 <TIM_Base_SetConfig>:
  * @param  TIMx TIM peripheral
  * @param  Structure TIM Base configuration structure
  * @retval None
  */
void TIM_Base_SetConfig(TIM_TypeDef *TIMx, const TIM_Base_InitTypeDef *Structure)
{
 8007fc8:	b480      	push	{r7}
 8007fca:	b085      	sub	sp, #20
 8007fcc:	af00      	add	r7, sp, #0
 8007fce:	6078      	str	r0, [r7, #4]
 8007fd0:	6039      	str	r1, [r7, #0]
  uint32_t tmpcr1;
  tmpcr1 = TIMx->CR1;
 8007fd2:	687b      	ldr	r3, [r7, #4]
 8007fd4:	681b      	ldr	r3, [r3, #0]
 8007fd6:	60fb      	str	r3, [r7, #12]

  /* Set TIM Time Base Unit parameters ---------------------------------------*/
  if (IS_TIM_COUNTER_MODE_SELECT_INSTANCE(TIMx))
 8007fd8:	687b      	ldr	r3, [r7, #4]
 8007fda:	4a46      	ldr	r2, [pc, #280]	; (80080f4 <TIM_Base_SetConfig+0x12c>)
 8007fdc:	4293      	cmp	r3, r2
 8007fde:	d013      	beq.n	8008008 <TIM_Base_SetConfig+0x40>
 8007fe0:	687b      	ldr	r3, [r7, #4]
 8007fe2:	f1b3 4f80 	cmp.w	r3, #1073741824	; 0x40000000
 8007fe6:	d00f      	beq.n	8008008 <TIM_Base_SetConfig+0x40>
 8007fe8:	687b      	ldr	r3, [r7, #4]
 8007fea:	4a43      	ldr	r2, [pc, #268]	; (80080f8 <TIM_Base_SetConfig+0x130>)
 8007fec:	4293      	cmp	r3, r2
 8007fee:	d00b      	beq.n	8008008 <TIM_Base_SetConfig+0x40>
 8007ff0:	687b      	ldr	r3, [r7, #4]
 8007ff2:	4a42      	ldr	r2, [pc, #264]	; (80080fc <TIM_Base_SetConfig+0x134>)
 8007ff4:	4293      	cmp	r3, r2
 8007ff6:	d007      	beq.n	8008008 <TIM_Base_SetConfig+0x40>
 8007ff8:	687b      	ldr	r3, [r7, #4]
 8007ffa:	4a41      	ldr	r2, [pc, #260]	; (8008100 <TIM_Base_SetConfig+0x138>)
 8007ffc:	4293      	cmp	r3, r2
 8007ffe:	d003      	beq.n	8008008 <TIM_Base_SetConfig+0x40>
 8008000:	687b      	ldr	r3, [r7, #4]
 8008002:	4a40      	ldr	r2, [pc, #256]	; (8008104 <TIM_Base_SetConfig+0x13c>)
 8008004:	4293      	cmp	r3, r2
 8008006:	d108      	bne.n	800801a <TIM_Base_SetConfig+0x52>
  {
    /* Select the Counter Mode */
    tmpcr1 &= ~(TIM_CR1_DIR | TIM_CR1_CMS);
 8008008:	68fb      	ldr	r3, [r7, #12]
 800800a:	f023 0370 	bic.w	r3, r3, #112	; 0x70
 800800e:	60fb      	str	r3, [r7, #12]
    tmpcr1 |= Structure->CounterMode;
 8008010:	683b      	ldr	r3, [r7, #0]
 8008012:	685b      	ldr	r3, [r3, #4]
 8008014:	68fa      	ldr	r2, [r7, #12]
 8008016:	4313      	orrs	r3, r2
 8008018:	60fb      	str	r3, [r7, #12]
  }

  if (IS_TIM_CLOCK_DIVISION_INSTANCE(TIMx))
 800801a:	687b      	ldr	r3, [r7, #4]
 800801c:	4a35      	ldr	r2, [pc, #212]	; (80080f4 <TIM_Base_SetConfig+0x12c>)
 800801e:	4293      	cmp	r3, r2
 8008020:	d02b      	beq.n	800807a <TIM_Base_SetConfig+0xb2>
 8008022:	687b      	ldr	r3, [r7, #4]
 8008024:	f1b3 4f80 	cmp.w	r3, #1073741824	; 0x40000000
 8008028:	d027      	beq.n	800807a <TIM_Base_SetConfig+0xb2>
 800802a:	687b      	ldr	r3, [r7, #4]
 800802c:	4a32      	ldr	r2, [pc, #200]	; (80080f8 <TIM_Base_SetConfig+0x130>)
 800802e:	4293      	cmp	r3, r2
 8008030:	d023      	beq.n	800807a <TIM_Base_SetConfig+0xb2>
 8008032:	687b      	ldr	r3, [r7, #4]
 8008034:	4a31      	ldr	r2, [pc, #196]	; (80080fc <TIM_Base_SetConfig+0x134>)
 8008036:	4293      	cmp	r3, r2
 8008038:	d01f      	beq.n	800807a <TIM_Base_SetConfig+0xb2>
 800803a:	687b      	ldr	r3, [r7, #4]
 800803c:	4a30      	ldr	r2, [pc, #192]	; (8008100 <TIM_Base_SetConfig+0x138>)
 800803e:	4293      	cmp	r3, r2
 8008040:	d01b      	beq.n	800807a <TIM_Base_SetConfig+0xb2>
 8008042:	687b      	ldr	r3, [r7, #4]
 8008044:	4a2f      	ldr	r2, [pc, #188]	; (8008104 <TIM_Base_SetConfig+0x13c>)
 8008046:	4293      	cmp	r3, r2
 8008048:	d017      	beq.n	800807a <TIM_Base_SetConfig+0xb2>
 800804a:	687b      	ldr	r3, [r7, #4]
 800804c:	4a2e      	ldr	r2, [pc, #184]	; (8008108 <TIM_Base_SetConfig+0x140>)
 800804e:	4293      	cmp	r3, r2
 8008050:	d013      	beq.n	800807a <TIM_Base_SetConfig+0xb2>
 8008052:	687b      	ldr	r3, [r7, #4]
 8008054:	4a2d      	ldr	r2, [pc, #180]	; (800810c <TIM_Base_SetConfig+0x144>)
 8008056:	4293      	cmp	r3, r2
 8008058:	d00f      	beq.n	800807a <TIM_Base_SetConfig+0xb2>
 800805a:	687b      	ldr	r3, [r7, #4]
 800805c:	4a2c      	ldr	r2, [pc, #176]	; (8008110 <TIM_Base_SetConfig+0x148>)
 800805e:	4293      	cmp	r3, r2
 8008060:	d00b      	beq.n	800807a <TIM_Base_SetConfig+0xb2>
 8008062:	687b      	ldr	r3, [r7, #4]
 8008064:	4a2b      	ldr	r2, [pc, #172]	; (8008114 <TIM_Base_SetConfig+0x14c>)
 8008066:	4293      	cmp	r3, r2
 8008068:	d007      	beq.n	800807a <TIM_Base_SetConfig+0xb2>
 800806a:	687b      	ldr	r3, [r7, #4]
 800806c:	4a2a      	ldr	r2, [pc, #168]	; (8008118 <TIM_Base_SetConfig+0x150>)
 800806e:	4293      	cmp	r3, r2
 8008070:	d003      	beq.n	800807a <TIM_Base_SetConfig+0xb2>
 8008072:	687b      	ldr	r3, [r7, #4]
 8008074:	4a29      	ldr	r2, [pc, #164]	; (800811c <TIM_Base_SetConfig+0x154>)
 8008076:	4293      	cmp	r3, r2
 8008078:	d108      	bne.n	800808c <TIM_Base_SetConfig+0xc4>
  {
    /* Set the clock division */
    tmpcr1 &= ~TIM_CR1_CKD;
 800807a:	68fb      	ldr	r3, [r7, #12]
 800807c:	f423 7340 	bic.w	r3, r3, #768	; 0x300
 8008080:	60fb      	str	r3, [r7, #12]
    tmpcr1 |= (uint32_t)Structure->ClockDivision;
 8008082:	683b      	ldr	r3, [r7, #0]
 8008084:	68db      	ldr	r3, [r3, #12]
 8008086:	68fa      	ldr	r2, [r7, #12]
 8008088:	4313      	orrs	r3, r2
 800808a:	60fb      	str	r3, [r7, #12]
  }

  /* Set the auto-reload preload */
  MODIFY_REG(tmpcr1, TIM_CR1_ARPE, Structure->AutoReloadPreload);
 800808c:	68fb      	ldr	r3, [r7, #12]
 800808e:	f023 0280 	bic.w	r2, r3, #128	; 0x80
 8008092:	683b      	ldr	r3, [r7, #0]
 8008094:	695b      	ldr	r3, [r3, #20]
 8008096:	4313      	orrs	r3, r2
 8008098:	60fb      	str	r3, [r7, #12]

  TIMx->CR1 = tmpcr1;
 800809a:	687b      	ldr	r3, [r7, #4]
 800809c:	68fa      	ldr	r2, [r7, #12]
 800809e:	601a      	str	r2, [r3, #0]

  /* Set the Autoreload value */
  TIMx->ARR = (uint32_t)Structure->Period ;
 80080a0:	683b      	ldr	r3, [r7, #0]
 80080a2:	689a      	ldr	r2, [r3, #8]
 80080a4:	687b      	ldr	r3, [r7, #4]
 80080a6:	62da      	str	r2, [r3, #44]	; 0x2c

  /* Set the Prescaler value */
  TIMx->PSC = Structure->Prescaler;
 80080a8:	683b      	ldr	r3, [r7, #0]
 80080aa:	681a      	ldr	r2, [r3, #0]
 80080ac:	687b      	ldr	r3, [r7, #4]
 80080ae:	629a      	str	r2, [r3, #40]	; 0x28

  if (IS_TIM_REPETITION_COUNTER_INSTANCE(TIMx))
 80080b0:	687b      	ldr	r3, [r7, #4]
 80080b2:	4a10      	ldr	r2, [pc, #64]	; (80080f4 <TIM_Base_SetConfig+0x12c>)
 80080b4:	4293      	cmp	r3, r2
 80080b6:	d003      	beq.n	80080c0 <TIM_Base_SetConfig+0xf8>
 80080b8:	687b      	ldr	r3, [r7, #4]
 80080ba:	4a12      	ldr	r2, [pc, #72]	; (8008104 <TIM_Base_SetConfig+0x13c>)
 80080bc:	4293      	cmp	r3, r2
 80080be:	d103      	bne.n	80080c8 <TIM_Base_SetConfig+0x100>
  {
    /* Set the Repetition Counter value */
    TIMx->RCR = Structure->RepetitionCounter;
 80080c0:	683b      	ldr	r3, [r7, #0]
 80080c2:	691a      	ldr	r2, [r3, #16]
 80080c4:	687b      	ldr	r3, [r7, #4]
 80080c6:	631a      	str	r2, [r3, #48]	; 0x30
  }

  /* Generate an update event to reload the Prescaler
     and the repetition counter (only for advanced timer) value immediately */
  TIMx->EGR = TIM_EGR_UG;
 80080c8:	687b      	ldr	r3, [r7, #4]
 80080ca:	2201      	movs	r2, #1
 80080cc:	615a      	str	r2, [r3, #20]

  /* Check if the update flag is set after the Update Generation, if so clear the UIF flag */
  if (HAL_IS_BIT_SET(TIMx->SR, TIM_FLAG_UPDATE))
 80080ce:	687b      	ldr	r3, [r7, #4]
 80080d0:	691b      	ldr	r3, [r3, #16]
 80080d2:	f003 0301 	and.w	r3, r3, #1
 80080d6:	2b01      	cmp	r3, #1
 80080d8:	d105      	bne.n	80080e6 <TIM_Base_SetConfig+0x11e>
  {
    /* Clear the update flag */
    CLEAR_BIT(TIMx->SR, TIM_FLAG_UPDATE);
 80080da:	687b      	ldr	r3, [r7, #4]
 80080dc:	691b      	ldr	r3, [r3, #16]
 80080de:	f023 0201 	bic.w	r2, r3, #1
 80080e2:	687b      	ldr	r3, [r7, #4]
 80080e4:	611a      	str	r2, [r3, #16]
  }
}
 80080e6:	bf00      	nop
 80080e8:	3714      	adds	r7, #20
 80080ea:	46bd      	mov	sp, r7
 80080ec:	f85d 7b04 	ldr.w	r7, [sp], #4
 80080f0:	4770      	bx	lr
 80080f2:	bf00      	nop
 80080f4:	40010000 	.word	0x40010000
 80080f8:	40000400 	.word	0x40000400
 80080fc:	40000800 	.word	0x40000800
 8008100:	40000c00 	.word	0x40000c00
 8008104:	40010400 	.word	0x40010400
 8008108:	40014000 	.word	0x40014000
 800810c:	40014400 	.word	0x40014400
 8008110:	40014800 	.word	0x40014800
 8008114:	40001800 	.word	0x40001800
 8008118:	40001c00 	.word	0x40001c00
 800811c:	40002000 	.word	0x40002000

08008120 <HAL_TIMEx_MasterConfigSynchronization>:
  *         mode.
  * @retval HAL status
  */
HAL_StatusTypeDef HAL_TIMEx_MasterConfigSynchronization(TIM_HandleTypeDef *htim,
                                                        const TIM_MasterConfigTypeDef *sMasterConfig)
{
 8008120:	b480      	push	{r7}
 8008122:	b085      	sub	sp, #20
 8008124:	af00      	add	r7, sp, #0
 8008126:	6078      	str	r0, [r7, #4]
 8008128:	6039      	str	r1, [r7, #0]
  assert_param(IS_TIM_MASTER_INSTANCE(htim->Instance));
  assert_param(IS_TIM_TRGO_SOURCE(sMasterConfig->MasterOutputTrigger));
  assert_param(IS_TIM_MSM_STATE(sMasterConfig->MasterSlaveMode));

  /* Check input state */
  __HAL_LOCK(htim);
 800812a:	687b      	ldr	r3, [r7, #4]
 800812c:	f893 303c 	ldrb.w	r3, [r3, #60]	; 0x3c
 8008130:	2b01      	cmp	r3, #1
 8008132:	d101      	bne.n	8008138 <HAL_TIMEx_MasterConfigSynchronization+0x18>
 8008134:	2302      	movs	r3, #2
 8008136:	e05a      	b.n	80081ee <HAL_TIMEx_MasterConfigSynchronization+0xce>
 8008138:	687b      	ldr	r3, [r7, #4]
 800813a:	2201      	movs	r2, #1
 800813c:	f883 203c 	strb.w	r2, [r3, #60]	; 0x3c

  /* Change the handler state */
  htim->State = HAL_TIM_STATE_BUSY;
 8008140:	687b      	ldr	r3, [r7, #4]
 8008142:	2202      	movs	r2, #2
 8008144:	f883 203d 	strb.w	r2, [r3, #61]	; 0x3d

  /* Get the TIMx CR2 register value */
  tmpcr2 = htim->Instance->CR2;
 8008148:	687b      	ldr	r3, [r7, #4]
 800814a:	681b      	ldr	r3, [r3, #0]
 800814c:	685b      	ldr	r3, [r3, #4]
 800814e:	60fb      	str	r3, [r7, #12]

  /* Get the TIMx SMCR register value */
  tmpsmcr = htim->Instance->SMCR;
 8008150:	687b      	ldr	r3, [r7, #4]
 8008152:	681b      	ldr	r3, [r3, #0]
 8008154:	689b      	ldr	r3, [r3, #8]
 8008156:	60bb      	str	r3, [r7, #8]

  /* Reset the MMS Bits */
  tmpcr2 &= ~TIM_CR2_MMS;
 8008158:	68fb      	ldr	r3, [r7, #12]
 800815a:	f023 0370 	bic.w	r3, r3, #112	; 0x70
 800815e:	60fb      	str	r3, [r7, #12]
  /* Select the TRGO source */
  tmpcr2 |=  sMasterConfig->MasterOutputTrigger;
 8008160:	683b      	ldr	r3, [r7, #0]
 8008162:	681b      	ldr	r3, [r3, #0]
 8008164:	68fa      	ldr	r2, [r7, #12]
 8008166:	4313      	orrs	r3, r2
 8008168:	60fb      	str	r3, [r7, #12]

  /* Update TIMx CR2 */
  htim->Instance->CR2 = tmpcr2;
 800816a:	687b      	ldr	r3, [r7, #4]
 800816c:	681b      	ldr	r3, [r3, #0]
 800816e:	68fa      	ldr	r2, [r7, #12]
 8008170:	605a      	str	r2, [r3, #4]

  if (IS_TIM_SLAVE_INSTANCE(htim->Instance))
 8008172:	687b      	ldr	r3, [r7, #4]
 8008174:	681b      	ldr	r3, [r3, #0]
 8008176:	4a21      	ldr	r2, [pc, #132]	; (80081fc <HAL_TIMEx_MasterConfigSynchronization+0xdc>)
 8008178:	4293      	cmp	r3, r2
 800817a:	d022      	beq.n	80081c2 <HAL_TIMEx_MasterConfigSynchronization+0xa2>
 800817c:	687b      	ldr	r3, [r7, #4]
 800817e:	681b      	ldr	r3, [r3, #0]
 8008180:	f1b3 4f80 	cmp.w	r3, #1073741824	; 0x40000000
 8008184:	d01d      	beq.n	80081c2 <HAL_TIMEx_MasterConfigSynchronization+0xa2>
 8008186:	687b      	ldr	r3, [r7, #4]
 8008188:	681b      	ldr	r3, [r3, #0]
 800818a:	4a1d      	ldr	r2, [pc, #116]	; (8008200 <HAL_TIMEx_MasterConfigSynchronization+0xe0>)
 800818c:	4293      	cmp	r3, r2
 800818e:	d018      	beq.n	80081c2 <HAL_TIMEx_MasterConfigSynchronization+0xa2>
 8008190:	687b      	ldr	r3, [r7, #4]
 8008192:	681b      	ldr	r3, [r3, #0]
 8008194:	4a1b      	ldr	r2, [pc, #108]	; (8008204 <HAL_TIMEx_MasterConfigSynchronization+0xe4>)
 8008196:	4293      	cmp	r3, r2
 8008198:	d013      	beq.n	80081c2 <HAL_TIMEx_MasterConfigSynchronization+0xa2>
 800819a:	687b      	ldr	r3, [r7, #4]
 800819c:	681b      	ldr	r3, [r3, #0]
 800819e:	4a1a      	ldr	r2, [pc, #104]	; (8008208 <HAL_TIMEx_MasterConfigSynchronization+0xe8>)
 80081a0:	4293      	cmp	r3, r2
 80081a2:	d00e      	beq.n	80081c2 <HAL_TIMEx_MasterConfigSynchronization+0xa2>
 80081a4:	687b      	ldr	r3, [r7, #4]
 80081a6:	681b      	ldr	r3, [r3, #0]
 80081a8:	4a18      	ldr	r2, [pc, #96]	; (800820c <HAL_TIMEx_MasterConfigSynchronization+0xec>)
 80081aa:	4293      	cmp	r3, r2
 80081ac:	d009      	beq.n	80081c2 <HAL_TIMEx_MasterConfigSynchronization+0xa2>
 80081ae:	687b      	ldr	r3, [r7, #4]
 80081b0:	681b      	ldr	r3, [r3, #0]
 80081b2:	4a17      	ldr	r2, [pc, #92]	; (8008210 <HAL_TIMEx_MasterConfigSynchronization+0xf0>)
 80081b4:	4293      	cmp	r3, r2
 80081b6:	d004      	beq.n	80081c2 <HAL_TIMEx_MasterConfigSynchronization+0xa2>
 80081b8:	687b      	ldr	r3, [r7, #4]
 80081ba:	681b      	ldr	r3, [r3, #0]
 80081bc:	4a15      	ldr	r2, [pc, #84]	; (8008214 <HAL_TIMEx_MasterConfigSynchronization+0xf4>)
 80081be:	4293      	cmp	r3, r2
 80081c0:	d10c      	bne.n	80081dc <HAL_TIMEx_MasterConfigSynchronization+0xbc>
  {
    /* Reset the MSM Bit */
    tmpsmcr &= ~TIM_SMCR_MSM;
 80081c2:	68bb      	ldr	r3, [r7, #8]
 80081c4:	f023 0380 	bic.w	r3, r3, #128	; 0x80
 80081c8:	60bb      	str	r3, [r7, #8]
    /* Set master mode */
    tmpsmcr |= sMasterConfig->MasterSlaveMode;
 80081ca:	683b      	ldr	r3, [r7, #0]
 80081cc:	685b      	ldr	r3, [r3, #4]
 80081ce:	68ba      	ldr	r2, [r7, #8]
 80081d0:	4313      	orrs	r3, r2
 80081d2:	60bb      	str	r3, [r7, #8]

    /* Update TIMx SMCR */
    htim->Instance->SMCR = tmpsmcr;
 80081d4:	687b      	ldr	r3, [r7, #4]
 80081d6:	681b      	ldr	r3, [r3, #0]
 80081d8:	68ba      	ldr	r2, [r7, #8]
 80081da:	609a      	str	r2, [r3, #8]
  }

  /* Change the htim state */
  htim->State = HAL_TIM_STATE_READY;
 80081dc:	687b      	ldr	r3, [r7, #4]
 80081de:	2201      	movs	r2, #1
 80081e0:	f883 203d 	strb.w	r2, [r3, #61]	; 0x3d

  __HAL_UNLOCK(htim);
 80081e4:	687b      	ldr	r3, [r7, #4]
 80081e6:	2200      	movs	r2, #0
 80081e8:	f883 203c 	strb.w	r2, [r3, #60]	; 0x3c

  return HAL_OK;
 80081ec:	2300      	movs	r3, #0
}
 80081ee:	4618      	mov	r0, r3
 80081f0:	3714      	adds	r7, #20
 80081f2:	46bd      	mov	sp, r7
 80081f4:	f85d 7b04 	ldr.w	r7, [sp], #4
 80081f8:	4770      	bx	lr
 80081fa:	bf00      	nop
 80081fc:	40010000 	.word	0x40010000
 8008200:	40000400 	.word	0x40000400
 8008204:	40000800 	.word	0x40000800
 8008208:	40000c00 	.word	0x40000c00
 800820c:	40010400 	.word	0x40010400
 8008210:	40014000 	.word	0x40014000
 8008214:	40001800 	.word	0x40001800

08008218 <HAL_TIMEx_CommutCallback>:
  * @brief  Commutation callback in non-blocking mode
  * @param  htim TIM handle
  * @retval None
  */
__weak void HAL_TIMEx_CommutCallback(TIM_HandleTypeDef *htim)
{
 8008218:	b480      	push	{r7}
 800821a:	b083      	sub	sp, #12
 800821c:	af00      	add	r7, sp, #0
 800821e:	6078      	str	r0, [r7, #4]
  UNUSED(htim);

  /* NOTE : This function should not be modified, when the callback is needed,
            the HAL_TIMEx_CommutCallback could be implemented in the user file
   */
}
 8008220:	bf00      	nop
 8008222:	370c      	adds	r7, #12
 8008224:	46bd      	mov	sp, r7
 8008226:	f85d 7b04 	ldr.w	r7, [sp], #4
 800822a:	4770      	bx	lr

0800822c <HAL_TIMEx_BreakCallback>:
  * @brief  Break detection callback in non-blocking mode
  * @param  htim TIM handle
  * @retval None
  */
__weak void HAL_TIMEx_BreakCallback(TIM_HandleTypeDef *htim)
{
 800822c:	b480      	push	{r7}
 800822e:	b083      	sub	sp, #12
 8008230:	af00      	add	r7, sp, #0
 8008232:	6078      	str	r0, [r7, #4]
  UNUSED(htim);

  /* NOTE : This function should not be modified, when the callback is needed,
            the HAL_TIMEx_BreakCallback could be implemented in the user file
   */
}
 8008234:	bf00      	nop
 8008236:	370c      	adds	r7, #12
 8008238:	46bd      	mov	sp, r7
 800823a:	f85d 7b04 	ldr.w	r7, [sp], #4
 800823e:	4770      	bx	lr

08008240 <HAL_UART_Init>:
  * @param  huart  Pointer to a UART_HandleTypeDef structure that contains
  *                the configuration information for the specified UART module.
  * @retval HAL status
  */
HAL_StatusTypeDef HAL_UART_Init(UART_HandleTypeDef *huart)
{
 8008240:	b580      	push	{r7, lr}
 8008242:	b082      	sub	sp, #8
 8008244:	af00      	add	r7, sp, #0
 8008246:	6078      	str	r0, [r7, #4]
  /* Check the UART handle allocation */
  if (huart == NULL)
 8008248:	687b      	ldr	r3, [r7, #4]
 800824a:	2b00      	cmp	r3, #0
 800824c:	d101      	bne.n	8008252 <HAL_UART_Init+0x12>
  {
    return HAL_ERROR;
 800824e:	2301      	movs	r3, #1
 8008250:	e042      	b.n	80082d8 <HAL_UART_Init+0x98>
    assert_param(IS_UART_INSTANCE(huart->Instance));
  }
  assert_param(IS_UART_WORD_LENGTH(huart->Init.WordLength));
  assert_param(IS_UART_OVERSAMPLING(huart->Init.OverSampling));

  if (huart->gState == HAL_UART_STATE_RESET)
 8008252:	687b      	ldr	r3, [r7, #4]
 8008254:	f893 3041 	ldrb.w	r3, [r3, #65]	; 0x41
 8008258:	b2db      	uxtb	r3, r3
 800825a:	2b00      	cmp	r3, #0
 800825c:	d106      	bne.n	800826c <HAL_UART_Init+0x2c>
  {
    /* Allocate lock resource and initialize it */
    huart->Lock = HAL_UNLOCKED;
 800825e:	687b      	ldr	r3, [r7, #4]
 8008260:	2200      	movs	r2, #0
 8008262:	f883 2040 	strb.w	r2, [r3, #64]	; 0x40

    /* Init the low level hardware */
    huart->MspInitCallback(huart);
#else
    /* Init the low level hardware : GPIO, CLOCK */
    HAL_UART_MspInit(huart);
 8008266:	6878      	ldr	r0, [r7, #4]
 8008268:	f7fa fc5c 	bl	8002b24 <HAL_UART_MspInit>
#endif /* (USE_HAL_UART_REGISTER_CALLBACKS) */
  }

  huart->gState = HAL_UART_STATE_BUSY;
 800826c:	687b      	ldr	r3, [r7, #4]
 800826e:	2224      	movs	r2, #36	; 0x24
 8008270:	f883 2041 	strb.w	r2, [r3, #65]	; 0x41

  /* Disable the peripheral */
  __HAL_UART_DISABLE(huart);
 8008274:	687b      	ldr	r3, [r7, #4]
 8008276:	681b      	ldr	r3, [r3, #0]
 8008278:	68da      	ldr	r2, [r3, #12]
 800827a:	687b      	ldr	r3, [r7, #4]
 800827c:	681b      	ldr	r3, [r3, #0]
 800827e:	f422 5200 	bic.w	r2, r2, #8192	; 0x2000
 8008282:	60da      	str	r2, [r3, #12]

  /* Set the UART Communication parameters */
  UART_SetConfig(huart);
 8008284:	6878      	ldr	r0, [r7, #4]
 8008286:	f000 fdbd 	bl	8008e04 <UART_SetConfig>

  /* In asynchronous mode, the following bits must be kept cleared:
     - LINEN and CLKEN bits in the USART_CR2 register,
     - SCEN, HDSEL and IREN  bits in the USART_CR3 register.*/
  CLEAR_BIT(huart->Instance->CR2, (USART_CR2_LINEN | USART_CR2_CLKEN));
 800828a:	687b      	ldr	r3, [r7, #4]
 800828c:	681b      	ldr	r3, [r3, #0]
 800828e:	691a      	ldr	r2, [r3, #16]
 8008290:	687b      	ldr	r3, [r7, #4]
 8008292:	681b      	ldr	r3, [r3, #0]
 8008294:	f422 4290 	bic.w	r2, r2, #18432	; 0x4800
 8008298:	611a      	str	r2, [r3, #16]
  CLEAR_BIT(huart->Instance->CR3, (USART_CR3_SCEN | USART_CR3_HDSEL | USART_CR3_IREN));
 800829a:	687b      	ldr	r3, [r7, #4]
 800829c:	681b      	ldr	r3, [r3, #0]
 800829e:	695a      	ldr	r2, [r3, #20]
 80082a0:	687b      	ldr	r3, [r7, #4]
 80082a2:	681b      	ldr	r3, [r3, #0]
 80082a4:	f022 022a 	bic.w	r2, r2, #42	; 0x2a
 80082a8:	615a      	str	r2, [r3, #20]

  /* Enable the peripheral */
  __HAL_UART_ENABLE(huart);
 80082aa:	687b      	ldr	r3, [r7, #4]
 80082ac:	681b      	ldr	r3, [r3, #0]
 80082ae:	68da      	ldr	r2, [r3, #12]
 80082b0:	687b      	ldr	r3, [r7, #4]
 80082b2:	681b      	ldr	r3, [r3, #0]
 80082b4:	f442 5200 	orr.w	r2, r2, #8192	; 0x2000
 80082b8:	60da      	str	r2, [r3, #12]

  /* Initialize the UART state */
  huart->ErrorCode = HAL_UART_ERROR_NONE;
 80082ba:	687b      	ldr	r3, [r7, #4]
 80082bc:	2200      	movs	r2, #0
 80082be:	645a      	str	r2, [r3, #68]	; 0x44
  huart->gState = HAL_UART_STATE_READY;
 80082c0:	687b      	ldr	r3, [r7, #4]
 80082c2:	2220      	movs	r2, #32
 80082c4:	f883 2041 	strb.w	r2, [r3, #65]	; 0x41
  huart->RxState = HAL_UART_STATE_READY;
 80082c8:	687b      	ldr	r3, [r7, #4]
 80082ca:	2220      	movs	r2, #32
 80082cc:	f883 2042 	strb.w	r2, [r3, #66]	; 0x42
  huart->RxEventType = HAL_UART_RXEVENT_TC;
 80082d0:	687b      	ldr	r3, [r7, #4]
 80082d2:	2200      	movs	r2, #0
 80082d4:	635a      	str	r2, [r3, #52]	; 0x34

  return HAL_OK;
 80082d6:	2300      	movs	r3, #0
}
 80082d8:	4618      	mov	r0, r3
 80082da:	3708      	adds	r7, #8
 80082dc:	46bd      	mov	sp, r7
 80082de:	bd80      	pop	{r7, pc}

080082e0 <HAL_UART_Transmit>:
  * @param  Size  Amount of data elements (u8 or u16) to be sent
  * @param  Timeout Timeout duration
  * @retval HAL status
  */
HAL_StatusTypeDef HAL_UART_Transmit(UART_HandleTypeDef *huart, const uint8_t *pData, uint16_t Size, uint32_t Timeout)
{
 80082e0:	b580      	push	{r7, lr}
 80082e2:	b08a      	sub	sp, #40	; 0x28
 80082e4:	af02      	add	r7, sp, #8
 80082e6:	60f8      	str	r0, [r7, #12]
 80082e8:	60b9      	str	r1, [r7, #8]
 80082ea:	603b      	str	r3, [r7, #0]
 80082ec:	4613      	mov	r3, r2
 80082ee:	80fb      	strh	r3, [r7, #6]
  const uint8_t  *pdata8bits;
  const uint16_t *pdata16bits;
  uint32_t tickstart = 0U;
 80082f0:	2300      	movs	r3, #0
 80082f2:	617b      	str	r3, [r7, #20]

  /* Check that a Tx process is not already ongoing */
  if (huart->gState == HAL_UART_STATE_READY)
 80082f4:	68fb      	ldr	r3, [r7, #12]
 80082f6:	f893 3041 	ldrb.w	r3, [r3, #65]	; 0x41
 80082fa:	b2db      	uxtb	r3, r3
 80082fc:	2b20      	cmp	r3, #32
 80082fe:	d175      	bne.n	80083ec <HAL_UART_Transmit+0x10c>
  {
    if ((pData == NULL) || (Size == 0U))
 8008300:	68bb      	ldr	r3, [r7, #8]
 8008302:	2b00      	cmp	r3, #0
 8008304:	d002      	beq.n	800830c <HAL_UART_Transmit+0x2c>
 8008306:	88fb      	ldrh	r3, [r7, #6]
 8008308:	2b00      	cmp	r3, #0
 800830a:	d101      	bne.n	8008310 <HAL_UART_Transmit+0x30>
    {
      return  HAL_ERROR;
 800830c:	2301      	movs	r3, #1
 800830e:	e06e      	b.n	80083ee <HAL_UART_Transmit+0x10e>
    }

    huart->ErrorCode = HAL_UART_ERROR_NONE;
 8008310:	68fb      	ldr	r3, [r7, #12]
 8008312:	2200      	movs	r2, #0
 8008314:	645a      	str	r2, [r3, #68]	; 0x44
    huart->gState = HAL_UART_STATE_BUSY_TX;
 8008316:	68fb      	ldr	r3, [r7, #12]
 8008318:	2221      	movs	r2, #33	; 0x21
 800831a:	f883 2041 	strb.w	r2, [r3, #65]	; 0x41

    /* Init tickstart for timeout management */
    tickstart = HAL_GetTick();
 800831e:	f7fa fe15 	bl	8002f4c <HAL_GetTick>
 8008322:	6178      	str	r0, [r7, #20]

    huart->TxXferSize = Size;
 8008324:	68fb      	ldr	r3, [r7, #12]
 8008326:	88fa      	ldrh	r2, [r7, #6]
 8008328:	849a      	strh	r2, [r3, #36]	; 0x24
    huart->TxXferCount = Size;
 800832a:	68fb      	ldr	r3, [r7, #12]
 800832c:	88fa      	ldrh	r2, [r7, #6]
 800832e:	84da      	strh	r2, [r3, #38]	; 0x26

    /* In case of 9bits/No Parity transfer, pData needs to be handled as a uint16_t pointer */
    if ((huart->Init.WordLength == UART_WORDLENGTH_9B) && (huart->Init.Parity == UART_PARITY_NONE))
 8008330:	68fb      	ldr	r3, [r7, #12]
 8008332:	689b      	ldr	r3, [r3, #8]
 8008334:	f5b3 5f80 	cmp.w	r3, #4096	; 0x1000
 8008338:	d108      	bne.n	800834c <HAL_UART_Transmit+0x6c>
 800833a:	68fb      	ldr	r3, [r7, #12]
 800833c:	691b      	ldr	r3, [r3, #16]
 800833e:	2b00      	cmp	r3, #0
 8008340:	d104      	bne.n	800834c <HAL_UART_Transmit+0x6c>
    {
      pdata8bits  = NULL;
 8008342:	2300      	movs	r3, #0
 8008344:	61fb      	str	r3, [r7, #28]
      pdata16bits = (const uint16_t *) pData;
 8008346:	68bb      	ldr	r3, [r7, #8]
 8008348:	61bb      	str	r3, [r7, #24]
 800834a:	e003      	b.n	8008354 <HAL_UART_Transmit+0x74>
    }
    else
    {
      pdata8bits  = pData;
 800834c:	68bb      	ldr	r3, [r7, #8]
 800834e:	61fb      	str	r3, [r7, #28]
      pdata16bits = NULL;
 8008350:	2300      	movs	r3, #0
 8008352:	61bb      	str	r3, [r7, #24]
    }

    while (huart->TxXferCount > 0U)
 8008354:	e02e      	b.n	80083b4 <HAL_UART_Transmit+0xd4>
    {
      if (UART_WaitOnFlagUntilTimeout(huart, UART_FLAG_TXE, RESET, tickstart, Timeout) != HAL_OK)
 8008356:	683b      	ldr	r3, [r7, #0]
 8008358:	9300      	str	r3, [sp, #0]
 800835a:	697b      	ldr	r3, [r7, #20]
 800835c:	2200      	movs	r2, #0
 800835e:	2180      	movs	r1, #128	; 0x80
 8008360:	68f8      	ldr	r0, [r7, #12]
 8008362:	f000 fb1f 	bl	80089a4 <UART_WaitOnFlagUntilTimeout>
 8008366:	4603      	mov	r3, r0
 8008368:	2b00      	cmp	r3, #0
 800836a:	d005      	beq.n	8008378 <HAL_UART_Transmit+0x98>
      {
        huart->gState = HAL_UART_STATE_READY;
 800836c:	68fb      	ldr	r3, [r7, #12]
 800836e:	2220      	movs	r2, #32
 8008370:	f883 2041 	strb.w	r2, [r3, #65]	; 0x41

        return HAL_TIMEOUT;
 8008374:	2303      	movs	r3, #3
 8008376:	e03a      	b.n	80083ee <HAL_UART_Transmit+0x10e>
      }
      if (pdata8bits == NULL)
 8008378:	69fb      	ldr	r3, [r7, #28]
 800837a:	2b00      	cmp	r3, #0
 800837c:	d10b      	bne.n	8008396 <HAL_UART_Transmit+0xb6>
      {
        huart->Instance->DR = (uint16_t)(*pdata16bits & 0x01FFU);
 800837e:	69bb      	ldr	r3, [r7, #24]
 8008380:	881b      	ldrh	r3, [r3, #0]
 8008382:	461a      	mov	r2, r3
 8008384:	68fb      	ldr	r3, [r7, #12]
 8008386:	681b      	ldr	r3, [r3, #0]
 8008388:	f3c2 0208 	ubfx	r2, r2, #0, #9
 800838c:	605a      	str	r2, [r3, #4]
        pdata16bits++;
 800838e:	69bb      	ldr	r3, [r7, #24]
 8008390:	3302      	adds	r3, #2
 8008392:	61bb      	str	r3, [r7, #24]
 8008394:	e007      	b.n	80083a6 <HAL_UART_Transmit+0xc6>
      }
      else
      {
        huart->Instance->DR = (uint8_t)(*pdata8bits & 0xFFU);
 8008396:	69fb      	ldr	r3, [r7, #28]
 8008398:	781a      	ldrb	r2, [r3, #0]
 800839a:	68fb      	ldr	r3, [r7, #12]
 800839c:	681b      	ldr	r3, [r3, #0]
 800839e:	605a      	str	r2, [r3, #4]
        pdata8bits++;
 80083a0:	69fb      	ldr	r3, [r7, #28]
 80083a2:	3301      	adds	r3, #1
 80083a4:	61fb      	str	r3, [r7, #28]
      }
      huart->TxXferCount--;
 80083a6:	68fb      	ldr	r3, [r7, #12]
 80083a8:	8cdb      	ldrh	r3, [r3, #38]	; 0x26
 80083aa:	b29b      	uxth	r3, r3
 80083ac:	3b01      	subs	r3, #1
 80083ae:	b29a      	uxth	r2, r3
 80083b0:	68fb      	ldr	r3, [r7, #12]
 80083b2:	84da      	strh	r2, [r3, #38]	; 0x26
    while (huart->TxXferCount > 0U)
 80083b4:	68fb      	ldr	r3, [r7, #12]
 80083b6:	8cdb      	ldrh	r3, [r3, #38]	; 0x26
 80083b8:	b29b      	uxth	r3, r3
 80083ba:	2b00      	cmp	r3, #0
 80083bc:	d1cb      	bne.n	8008356 <HAL_UART_Transmit+0x76>
    }

    if (UART_WaitOnFlagUntilTimeout(huart, UART_FLAG_TC, RESET, tickstart, Timeout) != HAL_OK)
 80083be:	683b      	ldr	r3, [r7, #0]
 80083c0:	9300      	str	r3, [sp, #0]
 80083c2:	697b      	ldr	r3, [r7, #20]
 80083c4:	2200      	movs	r2, #0
 80083c6:	2140      	movs	r1, #64	; 0x40
 80083c8:	68f8      	ldr	r0, [r7, #12]
 80083ca:	f000 faeb 	bl	80089a4 <UART_WaitOnFlagUntilTimeout>
 80083ce:	4603      	mov	r3, r0
 80083d0:	2b00      	cmp	r3, #0
 80083d2:	d005      	beq.n	80083e0 <HAL_UART_Transmit+0x100>
    {
      huart->gState = HAL_UART_STATE_READY;
 80083d4:	68fb      	ldr	r3, [r7, #12]
 80083d6:	2220      	movs	r2, #32
 80083d8:	f883 2041 	strb.w	r2, [r3, #65]	; 0x41

      return HAL_TIMEOUT;
 80083dc:	2303      	movs	r3, #3
 80083de:	e006      	b.n	80083ee <HAL_UART_Transmit+0x10e>
    }

    /* At end of Tx process, restore huart->gState to Ready */
    huart->gState = HAL_UART_STATE_READY;
 80083e0:	68fb      	ldr	r3, [r7, #12]
 80083e2:	2220      	movs	r2, #32
 80083e4:	f883 2041 	strb.w	r2, [r3, #65]	; 0x41

    return HAL_OK;
 80083e8:	2300      	movs	r3, #0
 80083ea:	e000      	b.n	80083ee <HAL_UART_Transmit+0x10e>
  }
  else
  {
    return HAL_BUSY;
 80083ec:	2302      	movs	r3, #2
  }
}
 80083ee:	4618      	mov	r0, r3
 80083f0:	3720      	adds	r7, #32
 80083f2:	46bd      	mov	sp, r7
 80083f4:	bd80      	pop	{r7, pc}

080083f6 <HAL_UART_Receive_IT>:
  * @param  pData Pointer to data buffer (u8 or u16 data elements).
  * @param  Size  Amount of data elements (u8 or u16) to be received.
  * @retval HAL status
  */
HAL_StatusTypeDef HAL_UART_Receive_IT(UART_HandleTypeDef *huart, uint8_t *pData, uint16_t Size)
{
 80083f6:	b580      	push	{r7, lr}
 80083f8:	b084      	sub	sp, #16
 80083fa:	af00      	add	r7, sp, #0
 80083fc:	60f8      	str	r0, [r7, #12]
 80083fe:	60b9      	str	r1, [r7, #8]
 8008400:	4613      	mov	r3, r2
 8008402:	80fb      	strh	r3, [r7, #6]
  /* Check that a Rx process is not already ongoing */
  if (huart->RxState == HAL_UART_STATE_READY)
 8008404:	68fb      	ldr	r3, [r7, #12]
 8008406:	f893 3042 	ldrb.w	r3, [r3, #66]	; 0x42
 800840a:	b2db      	uxtb	r3, r3
 800840c:	2b20      	cmp	r3, #32
 800840e:	d112      	bne.n	8008436 <HAL_UART_Receive_IT+0x40>
  {
    if ((pData == NULL) || (Size == 0U))
 8008410:	68bb      	ldr	r3, [r7, #8]
 8008412:	2b00      	cmp	r3, #0
 8008414:	d002      	beq.n	800841c <HAL_UART_Receive_IT+0x26>
 8008416:	88fb      	ldrh	r3, [r7, #6]
 8008418:	2b00      	cmp	r3, #0
 800841a:	d101      	bne.n	8008420 <HAL_UART_Receive_IT+0x2a>
    {
      return HAL_ERROR;
 800841c:	2301      	movs	r3, #1
 800841e:	e00b      	b.n	8008438 <HAL_UART_Receive_IT+0x42>
    }

    /* Set Reception type to Standard reception */
    huart->ReceptionType = HAL_UART_RECEPTION_STANDARD;
 8008420:	68fb      	ldr	r3, [r7, #12]
 8008422:	2200      	movs	r2, #0
 8008424:	631a      	str	r2, [r3, #48]	; 0x30

    return (UART_Start_Receive_IT(huart, pData, Size));
 8008426:	88fb      	ldrh	r3, [r7, #6]
 8008428:	461a      	mov	r2, r3
 800842a:	68b9      	ldr	r1, [r7, #8]
 800842c:	68f8      	ldr	r0, [r7, #12]
 800842e:	f000 fb12 	bl	8008a56 <UART_Start_Receive_IT>
 8008432:	4603      	mov	r3, r0
 8008434:	e000      	b.n	8008438 <HAL_UART_Receive_IT+0x42>
  }
  else
  {
    return HAL_BUSY;
 8008436:	2302      	movs	r3, #2
  }
}
 8008438:	4618      	mov	r0, r3
 800843a:	3710      	adds	r7, #16
 800843c:	46bd      	mov	sp, r7
 800843e:	bd80      	pop	{r7, pc}

08008440 <HAL_UART_IRQHandler>:
  * @param  huart  Pointer to a UART_HandleTypeDef structure that contains
  *                the configuration information for the specified UART module.
  * @retval None
  */
void HAL_UART_IRQHandler(UART_HandleTypeDef *huart)
{
 8008440:	b580      	push	{r7, lr}
 8008442:	b0ba      	sub	sp, #232	; 0xe8
 8008444:	af00      	add	r7, sp, #0
 8008446:	6078      	str	r0, [r7, #4]
  uint32_t isrflags   = READ_REG(huart->Instance->SR);
 8008448:	687b      	ldr	r3, [r7, #4]
 800844a:	681b      	ldr	r3, [r3, #0]
 800844c:	681b      	ldr	r3, [r3, #0]
 800844e:	f8c7 30e4 	str.w	r3, [r7, #228]	; 0xe4
  uint32_t cr1its     = READ_REG(huart->Instance->CR1);
 8008452:	687b      	ldr	r3, [r7, #4]
 8008454:	681b      	ldr	r3, [r3, #0]
 8008456:	68db      	ldr	r3, [r3, #12]
 8008458:	f8c7 30e0 	str.w	r3, [r7, #224]	; 0xe0
  uint32_t cr3its     = READ_REG(huart->Instance->CR3);
 800845c:	687b      	ldr	r3, [r7, #4]
 800845e:	681b      	ldr	r3, [r3, #0]
 8008460:	695b      	ldr	r3, [r3, #20]
 8008462:	f8c7 30dc 	str.w	r3, [r7, #220]	; 0xdc
  uint32_t errorflags = 0x00U;
 8008466:	2300      	movs	r3, #0
 8008468:	f8c7 30d8 	str.w	r3, [r7, #216]	; 0xd8
  uint32_t dmarequest = 0x00U;
 800846c:	2300      	movs	r3, #0
 800846e:	f8c7 30d4 	str.w	r3, [r7, #212]	; 0xd4

  /* If no error occurs */
  errorflags = (isrflags & (uint32_t)(USART_SR_PE | USART_SR_FE | USART_SR_ORE | USART_SR_NE));
 8008472:	f8d7 30e4 	ldr.w	r3, [r7, #228]	; 0xe4
 8008476:	f003 030f 	and.w	r3, r3, #15
 800847a:	f8c7 30d8 	str.w	r3, [r7, #216]	; 0xd8
  if (errorflags == RESET)
 800847e:	f8d7 30d8 	ldr.w	r3, [r7, #216]	; 0xd8
 8008482:	2b00      	cmp	r3, #0
 8008484:	d10f      	bne.n	80084a6 <HAL_UART_IRQHandler+0x66>
  {
    /* UART in mode Receiver -------------------------------------------------*/
    if (((isrflags & USART_SR_RXNE) != RESET) && ((cr1its & USART_CR1_RXNEIE) != RESET))
 8008486:	f8d7 30e4 	ldr.w	r3, [r7, #228]	; 0xe4
 800848a:	f003 0320 	and.w	r3, r3, #32
 800848e:	2b00      	cmp	r3, #0
 8008490:	d009      	beq.n	80084a6 <HAL_UART_IRQHandler+0x66>
 8008492:	f8d7 30e0 	ldr.w	r3, [r7, #224]	; 0xe0
 8008496:	f003 0320 	and.w	r3, r3, #32
 800849a:	2b00      	cmp	r3, #0
 800849c:	d003      	beq.n	80084a6 <HAL_UART_IRQHandler+0x66>
    {
      UART_Receive_IT(huart);
 800849e:	6878      	ldr	r0, [r7, #4]
 80084a0:	f000 fbf2 	bl	8008c88 <UART_Receive_IT>
      return;
 80084a4:	e25b      	b.n	800895e <HAL_UART_IRQHandler+0x51e>
    }
  }

  /* If some errors occur */
  if ((errorflags != RESET) && (((cr3its & USART_CR3_EIE) != RESET)
 80084a6:	f8d7 30d8 	ldr.w	r3, [r7, #216]	; 0xd8
 80084aa:	2b00      	cmp	r3, #0
 80084ac:	f000 80de 	beq.w	800866c <HAL_UART_IRQHandler+0x22c>
 80084b0:	f8d7 30dc 	ldr.w	r3, [r7, #220]	; 0xdc
 80084b4:	f003 0301 	and.w	r3, r3, #1
 80084b8:	2b00      	cmp	r3, #0
 80084ba:	d106      	bne.n	80084ca <HAL_UART_IRQHandler+0x8a>
                                || ((cr1its & (USART_CR1_RXNEIE | USART_CR1_PEIE)) != RESET)))
 80084bc:	f8d7 30e0 	ldr.w	r3, [r7, #224]	; 0xe0
 80084c0:	f403 7390 	and.w	r3, r3, #288	; 0x120
 80084c4:	2b00      	cmp	r3, #0
 80084c6:	f000 80d1 	beq.w	800866c <HAL_UART_IRQHandler+0x22c>
  {
    /* UART parity error interrupt occurred ----------------------------------*/
    if (((isrflags & USART_SR_PE) != RESET) && ((cr1its & USART_CR1_PEIE) != RESET))
 80084ca:	f8d7 30e4 	ldr.w	r3, [r7, #228]	; 0xe4
 80084ce:	f003 0301 	and.w	r3, r3, #1
 80084d2:	2b00      	cmp	r3, #0
 80084d4:	d00b      	beq.n	80084ee <HAL_UART_IRQHandler+0xae>
 80084d6:	f8d7 30e0 	ldr.w	r3, [r7, #224]	; 0xe0
 80084da:	f403 7380 	and.w	r3, r3, #256	; 0x100
 80084de:	2b00      	cmp	r3, #0
 80084e0:	d005      	beq.n	80084ee <HAL_UART_IRQHandler+0xae>
    {
      huart->ErrorCode |= HAL_UART_ERROR_PE;
 80084e2:	687b      	ldr	r3, [r7, #4]
 80084e4:	6c5b      	ldr	r3, [r3, #68]	; 0x44
 80084e6:	f043 0201 	orr.w	r2, r3, #1
 80084ea:	687b      	ldr	r3, [r7, #4]
 80084ec:	645a      	str	r2, [r3, #68]	; 0x44
    }

    /* UART noise error interrupt occurred -----------------------------------*/
    if (((isrflags & USART_SR_NE) != RESET) && ((cr3its & USART_CR3_EIE) != RESET))
 80084ee:	f8d7 30e4 	ldr.w	r3, [r7, #228]	; 0xe4
 80084f2:	f003 0304 	and.w	r3, r3, #4
 80084f6:	2b00      	cmp	r3, #0
 80084f8:	d00b      	beq.n	8008512 <HAL_UART_IRQHandler+0xd2>
 80084fa:	f8d7 30dc 	ldr.w	r3, [r7, #220]	; 0xdc
 80084fe:	f003 0301 	and.w	r3, r3, #1
 8008502:	2b00      	cmp	r3, #0
 8008504:	d005      	beq.n	8008512 <HAL_UART_IRQHandler+0xd2>
    {
      huart->ErrorCode |= HAL_UART_ERROR_NE;
 8008506:	687b      	ldr	r3, [r7, #4]
 8008508:	6c5b      	ldr	r3, [r3, #68]	; 0x44
 800850a:	f043 0202 	orr.w	r2, r3, #2
 800850e:	687b      	ldr	r3, [r7, #4]
 8008510:	645a      	str	r2, [r3, #68]	; 0x44
    }

    /* UART frame error interrupt occurred -----------------------------------*/
    if (((isrflags & USART_SR_FE) != RESET) && ((cr3its & USART_CR3_EIE) != RESET))
 8008512:	f8d7 30e4 	ldr.w	r3, [r7, #228]	; 0xe4
 8008516:	f003 0302 	and.w	r3, r3, #2
 800851a:	2b00      	cmp	r3, #0
 800851c:	d00b      	beq.n	8008536 <HAL_UART_IRQHandler+0xf6>
 800851e:	f8d7 30dc 	ldr.w	r3, [r7, #220]	; 0xdc
 8008522:	f003 0301 	and.w	r3, r3, #1
 8008526:	2b00      	cmp	r3, #0
 8008528:	d005      	beq.n	8008536 <HAL_UART_IRQHandler+0xf6>
    {
      huart->ErrorCode |= HAL_UART_ERROR_FE;
 800852a:	687b      	ldr	r3, [r7, #4]
 800852c:	6c5b      	ldr	r3, [r3, #68]	; 0x44
 800852e:	f043 0204 	orr.w	r2, r3, #4
 8008532:	687b      	ldr	r3, [r7, #4]
 8008534:	645a      	str	r2, [r3, #68]	; 0x44
    }

    /* UART Over-Run interrupt occurred --------------------------------------*/
    if (((isrflags & USART_SR_ORE) != RESET) && (((cr1its & USART_CR1_RXNEIE) != RESET)
 8008536:	f8d7 30e4 	ldr.w	r3, [r7, #228]	; 0xe4
 800853a:	f003 0308 	and.w	r3, r3, #8
 800853e:	2b00      	cmp	r3, #0
 8008540:	d011      	beq.n	8008566 <HAL_UART_IRQHandler+0x126>
 8008542:	f8d7 30e0 	ldr.w	r3, [r7, #224]	; 0xe0
 8008546:	f003 0320 	and.w	r3, r3, #32
 800854a:	2b00      	cmp	r3, #0
 800854c:	d105      	bne.n	800855a <HAL_UART_IRQHandler+0x11a>
                                                 || ((cr3its & USART_CR3_EIE) != RESET)))
 800854e:	f8d7 30dc 	ldr.w	r3, [r7, #220]	; 0xdc
 8008552:	f003 0301 	and.w	r3, r3, #1
 8008556:	2b00      	cmp	r3, #0
 8008558:	d005      	beq.n	8008566 <HAL_UART_IRQHandler+0x126>
    {
      huart->ErrorCode |= HAL_UART_ERROR_ORE;
 800855a:	687b      	ldr	r3, [r7, #4]
 800855c:	6c5b      	ldr	r3, [r3, #68]	; 0x44
 800855e:	f043 0208 	orr.w	r2, r3, #8
 8008562:	687b      	ldr	r3, [r7, #4]
 8008564:	645a      	str	r2, [r3, #68]	; 0x44
    }

    /* Call UART Error Call back function if need be --------------------------*/
    if (huart->ErrorCode != HAL_UART_ERROR_NONE)
 8008566:	687b      	ldr	r3, [r7, #4]
 8008568:	6c5b      	ldr	r3, [r3, #68]	; 0x44
 800856a:	2b00      	cmp	r3, #0
 800856c:	f000 81f2 	beq.w	8008954 <HAL_UART_IRQHandler+0x514>
    {
      /* UART in mode Receiver -----------------------------------------------*/
      if (((isrflags & USART_SR_RXNE) != RESET) && ((cr1its & USART_CR1_RXNEIE) != RESET))
 8008570:	f8d7 30e4 	ldr.w	r3, [r7, #228]	; 0xe4
 8008574:	f003 0320 	and.w	r3, r3, #32
 8008578:	2b00      	cmp	r3, #0
 800857a:	d008      	beq.n	800858e <HAL_UART_IRQHandler+0x14e>
 800857c:	f8d7 30e0 	ldr.w	r3, [r7, #224]	; 0xe0
 8008580:	f003 0320 	and.w	r3, r3, #32
 8008584:	2b00      	cmp	r3, #0
 8008586:	d002      	beq.n	800858e <HAL_UART_IRQHandler+0x14e>
      {
        UART_Receive_IT(huart);
 8008588:	6878      	ldr	r0, [r7, #4]
 800858a:	f000 fb7d 	bl	8008c88 <UART_Receive_IT>
      }

      /* If Overrun error occurs, or if any error occurs in DMA mode reception,
         consider error as blocking */
      dmarequest = HAL_IS_BIT_SET(huart->Instance->CR3, USART_CR3_DMAR);
 800858e:	687b      	ldr	r3, [r7, #4]
 8008590:	681b      	ldr	r3, [r3, #0]
 8008592:	695b      	ldr	r3, [r3, #20]
 8008594:	f003 0340 	and.w	r3, r3, #64	; 0x40
 8008598:	2b40      	cmp	r3, #64	; 0x40
 800859a:	bf0c      	ite	eq
 800859c:	2301      	moveq	r3, #1
 800859e:	2300      	movne	r3, #0
 80085a0:	b2db      	uxtb	r3, r3
 80085a2:	f8c7 30d4 	str.w	r3, [r7, #212]	; 0xd4
      if (((huart->ErrorCode & HAL_UART_ERROR_ORE) != RESET) || dmarequest)
 80085a6:	687b      	ldr	r3, [r7, #4]
 80085a8:	6c5b      	ldr	r3, [r3, #68]	; 0x44
 80085aa:	f003 0308 	and.w	r3, r3, #8
 80085ae:	2b00      	cmp	r3, #0
 80085b0:	d103      	bne.n	80085ba <HAL_UART_IRQHandler+0x17a>
 80085b2:	f8d7 30d4 	ldr.w	r3, [r7, #212]	; 0xd4
 80085b6:	2b00      	cmp	r3, #0
 80085b8:	d04f      	beq.n	800865a <HAL_UART_IRQHandler+0x21a>
      {
        /* Blocking error : transfer is aborted
           Set the UART state ready to be able to start again the process,
           Disable Rx Interrupts, and disable Rx DMA request, if ongoing */
        UART_EndRxTransfer(huart);
 80085ba:	6878      	ldr	r0, [r7, #4]
 80085bc:	f000 fa85 	bl	8008aca <UART_EndRxTransfer>

        /* Disable the UART DMA Rx request if enabled */
        if (HAL_IS_BIT_SET(huart->Instance->CR3, USART_CR3_DMAR))
 80085c0:	687b      	ldr	r3, [r7, #4]
 80085c2:	681b      	ldr	r3, [r3, #0]
 80085c4:	695b      	ldr	r3, [r3, #20]
 80085c6:	f003 0340 	and.w	r3, r3, #64	; 0x40
 80085ca:	2b40      	cmp	r3, #64	; 0x40
 80085cc:	d141      	bne.n	8008652 <HAL_UART_IRQHandler+0x212>
        {
          ATOMIC_CLEAR_BIT(huart->Instance->CR3, USART_CR3_DMAR);
 80085ce:	687b      	ldr	r3, [r7, #4]
 80085d0:	681b      	ldr	r3, [r3, #0]
 80085d2:	3314      	adds	r3, #20
 80085d4:	f8c7 309c 	str.w	r3, [r7, #156]	; 0x9c
   __ASM volatile ("ldrex %0, %1" : "=r" (result) : "Q" (*addr) );
 80085d8:	f8d7 309c 	ldr.w	r3, [r7, #156]	; 0x9c
 80085dc:	e853 3f00 	ldrex	r3, [r3]
 80085e0:	f8c7 3098 	str.w	r3, [r7, #152]	; 0x98
   return(result);
 80085e4:	f8d7 3098 	ldr.w	r3, [r7, #152]	; 0x98
 80085e8:	f023 0340 	bic.w	r3, r3, #64	; 0x40
 80085ec:	f8c7 30d0 	str.w	r3, [r7, #208]	; 0xd0
 80085f0:	687b      	ldr	r3, [r7, #4]
 80085f2:	681b      	ldr	r3, [r3, #0]
 80085f4:	3314      	adds	r3, #20
 80085f6:	f8d7 20d0 	ldr.w	r2, [r7, #208]	; 0xd0
 80085fa:	f8c7 20a8 	str.w	r2, [r7, #168]	; 0xa8
 80085fe:	f8c7 30a4 	str.w	r3, [r7, #164]	; 0xa4
   __ASM volatile ("strex %0, %2, %1" : "=&r" (result), "=Q" (*addr) : "r" (value) );
 8008602:	f8d7 10a4 	ldr.w	r1, [r7, #164]	; 0xa4
 8008606:	f8d7 20a8 	ldr.w	r2, [r7, #168]	; 0xa8
 800860a:	e841 2300 	strex	r3, r2, [r1]
 800860e:	f8c7 30a0 	str.w	r3, [r7, #160]	; 0xa0
   return(result);
 8008612:	f8d7 30a0 	ldr.w	r3, [r7, #160]	; 0xa0
 8008616:	2b00      	cmp	r3, #0
 8008618:	d1d9      	bne.n	80085ce <HAL_UART_IRQHandler+0x18e>

          /* Abort the UART DMA Rx stream */
          if (huart->hdmarx != NULL)
 800861a:	687b      	ldr	r3, [r7, #4]
 800861c:	6bdb      	ldr	r3, [r3, #60]	; 0x3c
 800861e:	2b00      	cmp	r3, #0
 8008620:	d013      	beq.n	800864a <HAL_UART_IRQHandler+0x20a>
          {
            /* Set the UART DMA Abort callback :
               will lead to call HAL_UART_ErrorCallback() at end of DMA abort procedure */
            huart->hdmarx->XferAbortCallback = UART_DMAAbortOnError;
 8008622:	687b      	ldr	r3, [r7, #4]
 8008624:	6bdb      	ldr	r3, [r3, #60]	; 0x3c
 8008626:	4a7e      	ldr	r2, [pc, #504]	; (8008820 <HAL_UART_IRQHandler+0x3e0>)
 8008628:	651a      	str	r2, [r3, #80]	; 0x50
            if (HAL_DMA_Abort_IT(huart->hdmarx) != HAL_OK)
 800862a:	687b      	ldr	r3, [r7, #4]
 800862c:	6bdb      	ldr	r3, [r3, #60]	; 0x3c
 800862e:	4618      	mov	r0, r3
 8008630:	f7fb fdac 	bl	800418c <HAL_DMA_Abort_IT>
 8008634:	4603      	mov	r3, r0
 8008636:	2b00      	cmp	r3, #0
 8008638:	d016      	beq.n	8008668 <HAL_UART_IRQHandler+0x228>
            {
              /* Call Directly XferAbortCallback function in case of error */
              huart->hdmarx->XferAbortCallback(huart->hdmarx);
 800863a:	687b      	ldr	r3, [r7, #4]
 800863c:	6bdb      	ldr	r3, [r3, #60]	; 0x3c
 800863e:	6d1b      	ldr	r3, [r3, #80]	; 0x50
 8008640:	687a      	ldr	r2, [r7, #4]
 8008642:	6bd2      	ldr	r2, [r2, #60]	; 0x3c
 8008644:	4610      	mov	r0, r2
 8008646:	4798      	blx	r3
        if (HAL_IS_BIT_SET(huart->Instance->CR3, USART_CR3_DMAR))
 8008648:	e00e      	b.n	8008668 <HAL_UART_IRQHandler+0x228>
#if (USE_HAL_UART_REGISTER_CALLBACKS == 1)
            /*Call registered error callback*/
            huart->ErrorCallback(huart);
#else
            /*Call legacy weak error callback*/
            HAL_UART_ErrorCallback(huart);
 800864a:	6878      	ldr	r0, [r7, #4]
 800864c:	f000 f994 	bl	8008978 <HAL_UART_ErrorCallback>
        if (HAL_IS_BIT_SET(huart->Instance->CR3, USART_CR3_DMAR))
 8008650:	e00a      	b.n	8008668 <HAL_UART_IRQHandler+0x228>
#if (USE_HAL_UART_REGISTER_CALLBACKS == 1)
          /*Call registered error callback*/
          huart->ErrorCallback(huart);
#else
          /*Call legacy weak error callback*/
          HAL_UART_ErrorCallback(huart);
 8008652:	6878      	ldr	r0, [r7, #4]
 8008654:	f000 f990 	bl	8008978 <HAL_UART_ErrorCallback>
        if (HAL_IS_BIT_SET(huart->Instance->CR3, USART_CR3_DMAR))
 8008658:	e006      	b.n	8008668 <HAL_UART_IRQHandler+0x228>
#if (USE_HAL_UART_REGISTER_CALLBACKS == 1)
        /*Call registered error callback*/
        huart->ErrorCallback(huart);
#else
        /*Call legacy weak error callback*/
        HAL_UART_ErrorCallback(huart);
 800865a:	6878      	ldr	r0, [r7, #4]
 800865c:	f000 f98c 	bl	8008978 <HAL_UART_ErrorCallback>
#endif /* USE_HAL_UART_REGISTER_CALLBACKS */

        huart->ErrorCode = HAL_UART_ERROR_NONE;
 8008660:	687b      	ldr	r3, [r7, #4]
 8008662:	2200      	movs	r2, #0
 8008664:	645a      	str	r2, [r3, #68]	; 0x44
      }
    }
    return;
 8008666:	e175      	b.n	8008954 <HAL_UART_IRQHandler+0x514>
        if (HAL_IS_BIT_SET(huart->Instance->CR3, USART_CR3_DMAR))
 8008668:	bf00      	nop
    return;
 800866a:	e173      	b.n	8008954 <HAL_UART_IRQHandler+0x514>
  } /* End if some error occurs */

  /* Check current reception Mode :
     If Reception till IDLE event has been selected : */
  if ((huart->ReceptionType == HAL_UART_RECEPTION_TOIDLE)
 800866c:	687b      	ldr	r3, [r7, #4]
 800866e:	6b1b      	ldr	r3, [r3, #48]	; 0x30
 8008670:	2b01      	cmp	r3, #1
 8008672:	f040 814f 	bne.w	8008914 <HAL_UART_IRQHandler+0x4d4>
      && ((isrflags & USART_SR_IDLE) != 0U)
 8008676:	f8d7 30e4 	ldr.w	r3, [r7, #228]	; 0xe4
 800867a:	f003 0310 	and.w	r3, r3, #16
 800867e:	2b00      	cmp	r3, #0
 8008680:	f000 8148 	beq.w	8008914 <HAL_UART_IRQHandler+0x4d4>
      && ((cr1its & USART_SR_IDLE) != 0U))
 8008684:	f8d7 30e0 	ldr.w	r3, [r7, #224]	; 0xe0
 8008688:	f003 0310 	and.w	r3, r3, #16
 800868c:	2b00      	cmp	r3, #0
 800868e:	f000 8141 	beq.w	8008914 <HAL_UART_IRQHandler+0x4d4>
  {
    __HAL_UART_CLEAR_IDLEFLAG(huart);
 8008692:	2300      	movs	r3, #0
 8008694:	60bb      	str	r3, [r7, #8]
 8008696:	687b      	ldr	r3, [r7, #4]
 8008698:	681b      	ldr	r3, [r3, #0]
 800869a:	681b      	ldr	r3, [r3, #0]
 800869c:	60bb      	str	r3, [r7, #8]
 800869e:	687b      	ldr	r3, [r7, #4]
 80086a0:	681b      	ldr	r3, [r3, #0]
 80086a2:	685b      	ldr	r3, [r3, #4]
 80086a4:	60bb      	str	r3, [r7, #8]
 80086a6:	68bb      	ldr	r3, [r7, #8]

    /* Check if DMA mode is enabled in UART */
    if (HAL_IS_BIT_SET(huart->Instance->CR3, USART_CR3_DMAR))
 80086a8:	687b      	ldr	r3, [r7, #4]
 80086aa:	681b      	ldr	r3, [r3, #0]
 80086ac:	695b      	ldr	r3, [r3, #20]
 80086ae:	f003 0340 	and.w	r3, r3, #64	; 0x40
 80086b2:	2b40      	cmp	r3, #64	; 0x40
 80086b4:	f040 80b6 	bne.w	8008824 <HAL_UART_IRQHandler+0x3e4>
    {
      /* DMA mode enabled */
      /* Check received length : If all expected data are received, do nothing,
         (DMA cplt callback will be called).
         Otherwise, if at least one data has already been received, IDLE event is to be notified to user */
      uint16_t nb_remaining_rx_data = (uint16_t) __HAL_DMA_GET_COUNTER(huart->hdmarx);
 80086b8:	687b      	ldr	r3, [r7, #4]
 80086ba:	6bdb      	ldr	r3, [r3, #60]	; 0x3c
 80086bc:	681b      	ldr	r3, [r3, #0]
 80086be:	685b      	ldr	r3, [r3, #4]
 80086c0:	f8a7 30be 	strh.w	r3, [r7, #190]	; 0xbe
      if ((nb_remaining_rx_data > 0U)
 80086c4:	f8b7 30be 	ldrh.w	r3, [r7, #190]	; 0xbe
 80086c8:	2b00      	cmp	r3, #0
 80086ca:	f000 8145 	beq.w	8008958 <HAL_UART_IRQHandler+0x518>
          && (nb_remaining_rx_data < huart->RxXferSize))
 80086ce:	687b      	ldr	r3, [r7, #4]
 80086d0:	8d9b      	ldrh	r3, [r3, #44]	; 0x2c
 80086d2:	f8b7 20be 	ldrh.w	r2, [r7, #190]	; 0xbe
 80086d6:	429a      	cmp	r2, r3
 80086d8:	f080 813e 	bcs.w	8008958 <HAL_UART_IRQHandler+0x518>
      {
        /* Reception is not complete */
        huart->RxXferCount = nb_remaining_rx_data;
 80086dc:	687b      	ldr	r3, [r7, #4]
 80086de:	f8b7 20be 	ldrh.w	r2, [r7, #190]	; 0xbe
 80086e2:	85da      	strh	r2, [r3, #46]	; 0x2e

        /* In Normal mode, end DMA xfer and HAL UART Rx process*/
        if (huart->hdmarx->Init.Mode != DMA_CIRCULAR)
 80086e4:	687b      	ldr	r3, [r7, #4]
 80086e6:	6bdb      	ldr	r3, [r3, #60]	; 0x3c
 80086e8:	69db      	ldr	r3, [r3, #28]
 80086ea:	f5b3 7f80 	cmp.w	r3, #256	; 0x100
 80086ee:	f000 8088 	beq.w	8008802 <HAL_UART_IRQHandler+0x3c2>
        {
          /* Disable PE and ERR (Frame error, noise error, overrun error) interrupts */
          ATOMIC_CLEAR_BIT(huart->Instance->CR1, USART_CR1_PEIE);
 80086f2:	687b      	ldr	r3, [r7, #4]
 80086f4:	681b      	ldr	r3, [r3, #0]
 80086f6:	330c      	adds	r3, #12
 80086f8:	f8c7 3088 	str.w	r3, [r7, #136]	; 0x88
   __ASM volatile ("ldrex %0, %1" : "=r" (result) : "Q" (*addr) );
 80086fc:	f8d7 3088 	ldr.w	r3, [r7, #136]	; 0x88
 8008700:	e853 3f00 	ldrex	r3, [r3]
 8008704:	f8c7 3084 	str.w	r3, [r7, #132]	; 0x84
   return(result);
 8008708:	f8d7 3084 	ldr.w	r3, [r7, #132]	; 0x84
 800870c:	f423 7380 	bic.w	r3, r3, #256	; 0x100
 8008710:	f8c7 30b8 	str.w	r3, [r7, #184]	; 0xb8
 8008714:	687b      	ldr	r3, [r7, #4]
 8008716:	681b      	ldr	r3, [r3, #0]
 8008718:	330c      	adds	r3, #12
 800871a:	f8d7 20b8 	ldr.w	r2, [r7, #184]	; 0xb8
 800871e:	f8c7 2094 	str.w	r2, [r7, #148]	; 0x94
 8008722:	f8c7 3090 	str.w	r3, [r7, #144]	; 0x90
   __ASM volatile ("strex %0, %2, %1" : "=&r" (result), "=Q" (*addr) : "r" (value) );
 8008726:	f8d7 1090 	ldr.w	r1, [r7, #144]	; 0x90
 800872a:	f8d7 2094 	ldr.w	r2, [r7, #148]	; 0x94
 800872e:	e841 2300 	strex	r3, r2, [r1]
 8008732:	f8c7 308c 	str.w	r3, [r7, #140]	; 0x8c
   return(result);
 8008736:	f8d7 308c 	ldr.w	r3, [r7, #140]	; 0x8c
 800873a:	2b00      	cmp	r3, #0
 800873c:	d1d9      	bne.n	80086f2 <HAL_UART_IRQHandler+0x2b2>
          ATOMIC_CLEAR_BIT(huart->Instance->CR3, USART_CR3_EIE);
 800873e:	687b      	ldr	r3, [r7, #4]
 8008740:	681b      	ldr	r3, [r3, #0]
 8008742:	3314      	adds	r3, #20
 8008744:	677b      	str	r3, [r7, #116]	; 0x74
   __ASM volatile ("ldrex %0, %1" : "=r" (result) : "Q" (*addr) );
 8008746:	6f7b      	ldr	r3, [r7, #116]	; 0x74
 8008748:	e853 3f00 	ldrex	r3, [r3]
 800874c:	673b      	str	r3, [r7, #112]	; 0x70
   return(result);
 800874e:	6f3b      	ldr	r3, [r7, #112]	; 0x70
 8008750:	f023 0301 	bic.w	r3, r3, #1
 8008754:	f8c7 30b4 	str.w	r3, [r7, #180]	; 0xb4
 8008758:	687b      	ldr	r3, [r7, #4]
 800875a:	681b      	ldr	r3, [r3, #0]
 800875c:	3314      	adds	r3, #20
 800875e:	f8d7 20b4 	ldr.w	r2, [r7, #180]	; 0xb4
 8008762:	f8c7 2080 	str.w	r2, [r7, #128]	; 0x80
 8008766:	67fb      	str	r3, [r7, #124]	; 0x7c
   __ASM volatile ("strex %0, %2, %1" : "=&r" (result), "=Q" (*addr) : "r" (value) );
 8008768:	6ff9      	ldr	r1, [r7, #124]	; 0x7c
 800876a:	f8d7 2080 	ldr.w	r2, [r7, #128]	; 0x80
 800876e:	e841 2300 	strex	r3, r2, [r1]
 8008772:	67bb      	str	r3, [r7, #120]	; 0x78
   return(result);
 8008774:	6fbb      	ldr	r3, [r7, #120]	; 0x78
 8008776:	2b00      	cmp	r3, #0
 8008778:	d1e1      	bne.n	800873e <HAL_UART_IRQHandler+0x2fe>

          /* Disable the DMA transfer for the receiver request by resetting the DMAR bit
             in the UART CR3 register */
          ATOMIC_CLEAR_BIT(huart->Instance->CR3, USART_CR3_DMAR);
 800877a:	687b      	ldr	r3, [r7, #4]
 800877c:	681b      	ldr	r3, [r3, #0]
 800877e:	3314      	adds	r3, #20
 8008780:	663b      	str	r3, [r7, #96]	; 0x60
   __ASM volatile ("ldrex %0, %1" : "=r" (result) : "Q" (*addr) );
 8008782:	6e3b      	ldr	r3, [r7, #96]	; 0x60
 8008784:	e853 3f00 	ldrex	r3, [r3]
 8008788:	65fb      	str	r3, [r7, #92]	; 0x5c
   return(result);
 800878a:	6dfb      	ldr	r3, [r7, #92]	; 0x5c
 800878c:	f023 0340 	bic.w	r3, r3, #64	; 0x40
 8008790:	f8c7 30b0 	str.w	r3, [r7, #176]	; 0xb0
 8008794:	687b      	ldr	r3, [r7, #4]
 8008796:	681b      	ldr	r3, [r3, #0]
 8008798:	3314      	adds	r3, #20
 800879a:	f8d7 20b0 	ldr.w	r2, [r7, #176]	; 0xb0
 800879e:	66fa      	str	r2, [r7, #108]	; 0x6c
 80087a0:	66bb      	str	r3, [r7, #104]	; 0x68
   __ASM volatile ("strex %0, %2, %1" : "=&r" (result), "=Q" (*addr) : "r" (value) );
 80087a2:	6eb9      	ldr	r1, [r7, #104]	; 0x68
 80087a4:	6efa      	ldr	r2, [r7, #108]	; 0x6c
 80087a6:	e841 2300 	strex	r3, r2, [r1]
 80087aa:	667b      	str	r3, [r7, #100]	; 0x64
   return(result);
 80087ac:	6e7b      	ldr	r3, [r7, #100]	; 0x64
 80087ae:	2b00      	cmp	r3, #0
 80087b0:	d1e3      	bne.n	800877a <HAL_UART_IRQHandler+0x33a>

          /* At end of Rx process, restore huart->RxState to Ready */
          huart->RxState = HAL_UART_STATE_READY;
 80087b2:	687b      	ldr	r3, [r7, #4]
 80087b4:	2220      	movs	r2, #32
 80087b6:	f883 2042 	strb.w	r2, [r3, #66]	; 0x42
          huart->ReceptionType = HAL_UART_RECEPTION_STANDARD;
 80087ba:	687b      	ldr	r3, [r7, #4]
 80087bc:	2200      	movs	r2, #0
 80087be:	631a      	str	r2, [r3, #48]	; 0x30

          ATOMIC_CLEAR_BIT(huart->Instance->CR1, USART_CR1_IDLEIE);
 80087c0:	687b      	ldr	r3, [r7, #4]
 80087c2:	681b      	ldr	r3, [r3, #0]
 80087c4:	330c      	adds	r3, #12
 80087c6:	64fb      	str	r3, [r7, #76]	; 0x4c
   __ASM volatile ("ldrex %0, %1" : "=r" (result) : "Q" (*addr) );
 80087c8:	6cfb      	ldr	r3, [r7, #76]	; 0x4c
 80087ca:	e853 3f00 	ldrex	r3, [r3]
 80087ce:	64bb      	str	r3, [r7, #72]	; 0x48
   return(result);
 80087d0:	6cbb      	ldr	r3, [r7, #72]	; 0x48
 80087d2:	f023 0310 	bic.w	r3, r3, #16
 80087d6:	f8c7 30ac 	str.w	r3, [r7, #172]	; 0xac
 80087da:	687b      	ldr	r3, [r7, #4]
 80087dc:	681b      	ldr	r3, [r3, #0]
 80087de:	330c      	adds	r3, #12
 80087e0:	f8d7 20ac 	ldr.w	r2, [r7, #172]	; 0xac
 80087e4:	65ba      	str	r2, [r7, #88]	; 0x58
 80087e6:	657b      	str	r3, [r7, #84]	; 0x54
   __ASM volatile ("strex %0, %2, %1" : "=&r" (result), "=Q" (*addr) : "r" (value) );
 80087e8:	6d79      	ldr	r1, [r7, #84]	; 0x54
 80087ea:	6dba      	ldr	r2, [r7, #88]	; 0x58
 80087ec:	e841 2300 	strex	r3, r2, [r1]
 80087f0:	653b      	str	r3, [r7, #80]	; 0x50
   return(result);
 80087f2:	6d3b      	ldr	r3, [r7, #80]	; 0x50
 80087f4:	2b00      	cmp	r3, #0
 80087f6:	d1e3      	bne.n	80087c0 <HAL_UART_IRQHandler+0x380>

          /* Last bytes received, so no need as the abort is immediate */
          (void)HAL_DMA_Abort(huart->hdmarx);
 80087f8:	687b      	ldr	r3, [r7, #4]
 80087fa:	6bdb      	ldr	r3, [r3, #60]	; 0x3c
 80087fc:	4618      	mov	r0, r3
 80087fe:	f7fb fc55 	bl	80040ac <HAL_DMA_Abort>
        }

        /* Initialize type of RxEvent that correspond to RxEvent callback execution;
        In this case, Rx Event type is Idle Event */
        huart->RxEventType = HAL_UART_RXEVENT_IDLE;
 8008802:	687b      	ldr	r3, [r7, #4]
 8008804:	2202      	movs	r2, #2
 8008806:	635a      	str	r2, [r3, #52]	; 0x34
#if (USE_HAL_UART_REGISTER_CALLBACKS == 1)
        /*Call registered Rx Event callback*/
        huart->RxEventCallback(huart, (huart->RxXferSize - huart->RxXferCount));
#else
        /*Call legacy weak Rx Event callback*/
        HAL_UARTEx_RxEventCallback(huart, (huart->RxXferSize - huart->RxXferCount));
 8008808:	687b      	ldr	r3, [r7, #4]
 800880a:	8d9a      	ldrh	r2, [r3, #44]	; 0x2c
 800880c:	687b      	ldr	r3, [r7, #4]
 800880e:	8ddb      	ldrh	r3, [r3, #46]	; 0x2e
 8008810:	b29b      	uxth	r3, r3
 8008812:	1ad3      	subs	r3, r2, r3
 8008814:	b29b      	uxth	r3, r3
 8008816:	4619      	mov	r1, r3
 8008818:	6878      	ldr	r0, [r7, #4]
 800881a:	f000 f8b7 	bl	800898c <HAL_UARTEx_RxEventCallback>
#endif /* USE_HAL_UART_REGISTER_CALLBACKS */
      }
      return;
 800881e:	e09b      	b.n	8008958 <HAL_UART_IRQHandler+0x518>
 8008820:	08008b91 	.word	0x08008b91
    else
    {
      /* DMA mode not enabled */
      /* Check received length : If all expected data are received, do nothing.
         Otherwise, if at least one data has already been received, IDLE event is to be notified to user */
      uint16_t nb_rx_data = huart->RxXferSize - huart->RxXferCount;
 8008824:	687b      	ldr	r3, [r7, #4]
 8008826:	8d9a      	ldrh	r2, [r3, #44]	; 0x2c
 8008828:	687b      	ldr	r3, [r7, #4]
 800882a:	8ddb      	ldrh	r3, [r3, #46]	; 0x2e
 800882c:	b29b      	uxth	r3, r3
 800882e:	1ad3      	subs	r3, r2, r3
 8008830:	f8a7 30ce 	strh.w	r3, [r7, #206]	; 0xce
      if ((huart->RxXferCount > 0U)
 8008834:	687b      	ldr	r3, [r7, #4]
 8008836:	8ddb      	ldrh	r3, [r3, #46]	; 0x2e
 8008838:	b29b      	uxth	r3, r3
 800883a:	2b00      	cmp	r3, #0
 800883c:	f000 808e 	beq.w	800895c <HAL_UART_IRQHandler+0x51c>
          && (nb_rx_data > 0U))
 8008840:	f8b7 30ce 	ldrh.w	r3, [r7, #206]	; 0xce
 8008844:	2b00      	cmp	r3, #0
 8008846:	f000 8089 	beq.w	800895c <HAL_UART_IRQHandler+0x51c>
      {
        /* Disable the UART Parity Error Interrupt and RXNE interrupts */
        ATOMIC_CLEAR_BIT(huart->Instance->CR1, (USART_CR1_RXNEIE | USART_CR1_PEIE));
 800884a:	687b      	ldr	r3, [r7, #4]
 800884c:	681b      	ldr	r3, [r3, #0]
 800884e:	330c      	adds	r3, #12
 8008850:	63bb      	str	r3, [r7, #56]	; 0x38
   __ASM volatile ("ldrex %0, %1" : "=r" (result) : "Q" (*addr) );
 8008852:	6bbb      	ldr	r3, [r7, #56]	; 0x38
 8008854:	e853 3f00 	ldrex	r3, [r3]
 8008858:	637b      	str	r3, [r7, #52]	; 0x34
   return(result);
 800885a:	6b7b      	ldr	r3, [r7, #52]	; 0x34
 800885c:	f423 7390 	bic.w	r3, r3, #288	; 0x120
 8008860:	f8c7 30c8 	str.w	r3, [r7, #200]	; 0xc8
 8008864:	687b      	ldr	r3, [r7, #4]
 8008866:	681b      	ldr	r3, [r3, #0]
 8008868:	330c      	adds	r3, #12
 800886a:	f8d7 20c8 	ldr.w	r2, [r7, #200]	; 0xc8
 800886e:	647a      	str	r2, [r7, #68]	; 0x44
 8008870:	643b      	str	r3, [r7, #64]	; 0x40
   __ASM volatile ("strex %0, %2, %1" : "=&r" (result), "=Q" (*addr) : "r" (value) );
 8008872:	6c39      	ldr	r1, [r7, #64]	; 0x40
 8008874:	6c7a      	ldr	r2, [r7, #68]	; 0x44
 8008876:	e841 2300 	strex	r3, r2, [r1]
 800887a:	63fb      	str	r3, [r7, #60]	; 0x3c
   return(result);
 800887c:	6bfb      	ldr	r3, [r7, #60]	; 0x3c
 800887e:	2b00      	cmp	r3, #0
 8008880:	d1e3      	bne.n	800884a <HAL_UART_IRQHandler+0x40a>

        /* Disable the UART Error Interrupt: (Frame error, noise error, overrun error) */
        ATOMIC_CLEAR_BIT(huart->Instance->CR3, USART_CR3_EIE);
 8008882:	687b      	ldr	r3, [r7, #4]
 8008884:	681b      	ldr	r3, [r3, #0]
 8008886:	3314      	adds	r3, #20
 8008888:	627b      	str	r3, [r7, #36]	; 0x24
   __ASM volatile ("ldrex %0, %1" : "=r" (result) : "Q" (*addr) );
 800888a:	6a7b      	ldr	r3, [r7, #36]	; 0x24
 800888c:	e853 3f00 	ldrex	r3, [r3]
 8008890:	623b      	str	r3, [r7, #32]
   return(result);
 8008892:	6a3b      	ldr	r3, [r7, #32]
 8008894:	f023 0301 	bic.w	r3, r3, #1
 8008898:	f8c7 30c4 	str.w	r3, [r7, #196]	; 0xc4
 800889c:	687b      	ldr	r3, [r7, #4]
 800889e:	681b      	ldr	r3, [r3, #0]
 80088a0:	3314      	adds	r3, #20
 80088a2:	f8d7 20c4 	ldr.w	r2, [r7, #196]	; 0xc4
 80088a6:	633a      	str	r2, [r7, #48]	; 0x30
 80088a8:	62fb      	str	r3, [r7, #44]	; 0x2c
   __ASM volatile ("strex %0, %2, %1" : "=&r" (result), "=Q" (*addr) : "r" (value) );
 80088aa:	6af9      	ldr	r1, [r7, #44]	; 0x2c
 80088ac:	6b3a      	ldr	r2, [r7, #48]	; 0x30
 80088ae:	e841 2300 	strex	r3, r2, [r1]
 80088b2:	62bb      	str	r3, [r7, #40]	; 0x28
   return(result);
 80088b4:	6abb      	ldr	r3, [r7, #40]	; 0x28
 80088b6:	2b00      	cmp	r3, #0
 80088b8:	d1e3      	bne.n	8008882 <HAL_UART_IRQHandler+0x442>

        /* Rx process is completed, restore huart->RxState to Ready */
        huart->RxState = HAL_UART_STATE_READY;
 80088ba:	687b      	ldr	r3, [r7, #4]
 80088bc:	2220      	movs	r2, #32
 80088be:	f883 2042 	strb.w	r2, [r3, #66]	; 0x42
        huart->ReceptionType = HAL_UART_RECEPTION_STANDARD;
 80088c2:	687b      	ldr	r3, [r7, #4]
 80088c4:	2200      	movs	r2, #0
 80088c6:	631a      	str	r2, [r3, #48]	; 0x30

        ATOMIC_CLEAR_BIT(huart->Instance->CR1, USART_CR1_IDLEIE);
 80088c8:	687b      	ldr	r3, [r7, #4]
 80088ca:	681b      	ldr	r3, [r3, #0]
 80088cc:	330c      	adds	r3, #12
 80088ce:	613b      	str	r3, [r7, #16]
   __ASM volatile ("ldrex %0, %1" : "=r" (result) : "Q" (*addr) );
 80088d0:	693b      	ldr	r3, [r7, #16]
 80088d2:	e853 3f00 	ldrex	r3, [r3]
 80088d6:	60fb      	str	r3, [r7, #12]
   return(result);
 80088d8:	68fb      	ldr	r3, [r7, #12]
 80088da:	f023 0310 	bic.w	r3, r3, #16
 80088de:	f8c7 30c0 	str.w	r3, [r7, #192]	; 0xc0
 80088e2:	687b      	ldr	r3, [r7, #4]
 80088e4:	681b      	ldr	r3, [r3, #0]
 80088e6:	330c      	adds	r3, #12
 80088e8:	f8d7 20c0 	ldr.w	r2, [r7, #192]	; 0xc0
 80088ec:	61fa      	str	r2, [r7, #28]
 80088ee:	61bb      	str	r3, [r7, #24]
   __ASM volatile ("strex %0, %2, %1" : "=&r" (result), "=Q" (*addr) : "r" (value) );
 80088f0:	69b9      	ldr	r1, [r7, #24]
 80088f2:	69fa      	ldr	r2, [r7, #28]
 80088f4:	e841 2300 	strex	r3, r2, [r1]
 80088f8:	617b      	str	r3, [r7, #20]
   return(result);
 80088fa:	697b      	ldr	r3, [r7, #20]
 80088fc:	2b00      	cmp	r3, #0
 80088fe:	d1e3      	bne.n	80088c8 <HAL_UART_IRQHandler+0x488>

        /* Initialize type of RxEvent that correspond to RxEvent callback execution;
           In this case, Rx Event type is Idle Event */
        huart->RxEventType = HAL_UART_RXEVENT_IDLE;
 8008900:	687b      	ldr	r3, [r7, #4]
 8008902:	2202      	movs	r2, #2
 8008904:	635a      	str	r2, [r3, #52]	; 0x34
#if (USE_HAL_UART_REGISTER_CALLBACKS == 1)
        /*Call registered Rx complete callback*/
        huart->RxEventCallback(huart, nb_rx_data);
#else
        /*Call legacy weak Rx Event callback*/
        HAL_UARTEx_RxEventCallback(huart, nb_rx_data);
 8008906:	f8b7 30ce 	ldrh.w	r3, [r7, #206]	; 0xce
 800890a:	4619      	mov	r1, r3
 800890c:	6878      	ldr	r0, [r7, #4]
 800890e:	f000 f83d 	bl	800898c <HAL_UARTEx_RxEventCallback>
#endif /* USE_HAL_UART_REGISTER_CALLBACKS */
      }
      return;
 8008912:	e023      	b.n	800895c <HAL_UART_IRQHandler+0x51c>
    }
  }

  /* UART in mode Transmitter ------------------------------------------------*/
  if (((isrflags & USART_SR_TXE) != RESET) && ((cr1its & USART_CR1_TXEIE) != RESET))
 8008914:	f8d7 30e4 	ldr.w	r3, [r7, #228]	; 0xe4
 8008918:	f003 0380 	and.w	r3, r3, #128	; 0x80
 800891c:	2b00      	cmp	r3, #0
 800891e:	d009      	beq.n	8008934 <HAL_UART_IRQHandler+0x4f4>
 8008920:	f8d7 30e0 	ldr.w	r3, [r7, #224]	; 0xe0
 8008924:	f003 0380 	and.w	r3, r3, #128	; 0x80
 8008928:	2b00      	cmp	r3, #0
 800892a:	d003      	beq.n	8008934 <HAL_UART_IRQHandler+0x4f4>
  {
    UART_Transmit_IT(huart);
 800892c:	6878      	ldr	r0, [r7, #4]
 800892e:	f000 f943 	bl	8008bb8 <UART_Transmit_IT>
    return;
 8008932:	e014      	b.n	800895e <HAL_UART_IRQHandler+0x51e>
  }

  /* UART in mode Transmitter end --------------------------------------------*/
  if (((isrflags & USART_SR_TC) != RESET) && ((cr1its & USART_CR1_TCIE) != RESET))
 8008934:	f8d7 30e4 	ldr.w	r3, [r7, #228]	; 0xe4
 8008938:	f003 0340 	and.w	r3, r3, #64	; 0x40
 800893c:	2b00      	cmp	r3, #0
 800893e:	d00e      	beq.n	800895e <HAL_UART_IRQHandler+0x51e>
 8008940:	f8d7 30e0 	ldr.w	r3, [r7, #224]	; 0xe0
 8008944:	f003 0340 	and.w	r3, r3, #64	; 0x40
 8008948:	2b00      	cmp	r3, #0
 800894a:	d008      	beq.n	800895e <HAL_UART_IRQHandler+0x51e>
  {
    UART_EndTransmit_IT(huart);
 800894c:	6878      	ldr	r0, [r7, #4]
 800894e:	f000 f983 	bl	8008c58 <UART_EndTransmit_IT>
    return;
 8008952:	e004      	b.n	800895e <HAL_UART_IRQHandler+0x51e>
    return;
 8008954:	bf00      	nop
 8008956:	e002      	b.n	800895e <HAL_UART_IRQHandler+0x51e>
      return;
 8008958:	bf00      	nop
 800895a:	e000      	b.n	800895e <HAL_UART_IRQHandler+0x51e>
      return;
 800895c:	bf00      	nop
  }
}
 800895e:	37e8      	adds	r7, #232	; 0xe8
 8008960:	46bd      	mov	sp, r7
 8008962:	bd80      	pop	{r7, pc}

08008964 <HAL_UART_TxCpltCallback>:
  * @param  huart  Pointer to a UART_HandleTypeDef structure that contains
  *                the configuration information for the specified UART module.
  * @retval None
  */
__weak void HAL_UART_TxCpltCallback(UART_HandleTypeDef *huart)
{
 8008964:	b480      	push	{r7}
 8008966:	b083      	sub	sp, #12
 8008968:	af00      	add	r7, sp, #0
 800896a:	6078      	str	r0, [r7, #4]
  /* Prevent unused argument(s) compilation warning */
  UNUSED(huart);
  /* NOTE: This function should not be modified, when the callback is needed,
           the HAL_UART_TxCpltCallback could be implemented in the user file
   */
}
 800896c:	bf00      	nop
 800896e:	370c      	adds	r7, #12
 8008970:	46bd      	mov	sp, r7
 8008972:	f85d 7b04 	ldr.w	r7, [sp], #4
 8008976:	4770      	bx	lr

08008978 <HAL_UART_ErrorCallback>:
  * @param  huart  Pointer to a UART_HandleTypeDef structure that contains
  *                the configuration information for the specified UART module.
  * @retval None
  */
__weak void HAL_UART_ErrorCallback(UART_HandleTypeDef *huart)
{
 8008978:	b480      	push	{r7}
 800897a:	b083      	sub	sp, #12
 800897c:	af00      	add	r7, sp, #0
 800897e:	6078      	str	r0, [r7, #4]
  /* Prevent unused argument(s) compilation warning */
  UNUSED(huart);
  /* NOTE: This function should not be modified, when the callback is needed,
           the HAL_UART_ErrorCallback could be implemented in the user file
   */
}
 8008980:	bf00      	nop
 8008982:	370c      	adds	r7, #12
 8008984:	46bd      	mov	sp, r7
 8008986:	f85d 7b04 	ldr.w	r7, [sp], #4
 800898a:	4770      	bx	lr

0800898c <HAL_UARTEx_RxEventCallback>:
  * @param  Size  Number of data available in application reception buffer (indicates a position in
  *               reception buffer until which, data are available)
  * @retval None
  */
__weak void HAL_UARTEx_RxEventCallback(UART_HandleTypeDef *huart, uint16_t Size)
{
 800898c:	b480      	push	{r7}
 800898e:	b083      	sub	sp, #12
 8008990:	af00      	add	r7, sp, #0
 8008992:	6078      	str	r0, [r7, #4]
 8008994:	460b      	mov	r3, r1
 8008996:	807b      	strh	r3, [r7, #2]
  UNUSED(Size);

  /* NOTE : This function should not be modified, when the callback is needed,
            the HAL_UARTEx_RxEventCallback can be implemented in the user file.
   */
}
 8008998:	bf00      	nop
 800899a:	370c      	adds	r7, #12
 800899c:	46bd      	mov	sp, r7
 800899e:	f85d 7b04 	ldr.w	r7, [sp], #4
 80089a2:	4770      	bx	lr

080089a4 <UART_WaitOnFlagUntilTimeout>:
  * @param  Timeout Timeout duration
  * @retval HAL status
  */
static HAL_StatusTypeDef UART_WaitOnFlagUntilTimeout(UART_HandleTypeDef *huart, uint32_t Flag, FlagStatus Status,
                                                     uint32_t Tickstart, uint32_t Timeout)
{
 80089a4:	b580      	push	{r7, lr}
 80089a6:	b086      	sub	sp, #24
 80089a8:	af00      	add	r7, sp, #0
 80089aa:	60f8      	str	r0, [r7, #12]
 80089ac:	60b9      	str	r1, [r7, #8]
 80089ae:	603b      	str	r3, [r7, #0]
 80089b0:	4613      	mov	r3, r2
 80089b2:	71fb      	strb	r3, [r7, #7]
  /* Wait until flag is set */
  while ((__HAL_UART_GET_FLAG(huart, Flag) ? SET : RESET) == Status)
 80089b4:	e03b      	b.n	8008a2e <UART_WaitOnFlagUntilTimeout+0x8a>
  {
    /* Check for the Timeout */
    if (Timeout != HAL_MAX_DELAY)
 80089b6:	6a3b      	ldr	r3, [r7, #32]
 80089b8:	f1b3 3fff 	cmp.w	r3, #4294967295	; 0xffffffff
 80089bc:	d037      	beq.n	8008a2e <UART_WaitOnFlagUntilTimeout+0x8a>
    {
      if (((HAL_GetTick() - Tickstart) > Timeout) || (Timeout == 0U))
 80089be:	f7fa fac5 	bl	8002f4c <HAL_GetTick>
 80089c2:	4602      	mov	r2, r0
 80089c4:	683b      	ldr	r3, [r7, #0]
 80089c6:	1ad3      	subs	r3, r2, r3
 80089c8:	6a3a      	ldr	r2, [r7, #32]
 80089ca:	429a      	cmp	r2, r3
 80089cc:	d302      	bcc.n	80089d4 <UART_WaitOnFlagUntilTimeout+0x30>
 80089ce:	6a3b      	ldr	r3, [r7, #32]
 80089d0:	2b00      	cmp	r3, #0
 80089d2:	d101      	bne.n	80089d8 <UART_WaitOnFlagUntilTimeout+0x34>
      {

        return HAL_TIMEOUT;
 80089d4:	2303      	movs	r3, #3
 80089d6:	e03a      	b.n	8008a4e <UART_WaitOnFlagUntilTimeout+0xaa>
      }

      if ((READ_BIT(huart->Instance->CR1, USART_CR1_RE) != 0U) && (Flag != UART_FLAG_TXE) && (Flag != UART_FLAG_TC))
 80089d8:	68fb      	ldr	r3, [r7, #12]
 80089da:	681b      	ldr	r3, [r3, #0]
 80089dc:	68db      	ldr	r3, [r3, #12]
 80089de:	f003 0304 	and.w	r3, r3, #4
 80089e2:	2b00      	cmp	r3, #0
 80089e4:	d023      	beq.n	8008a2e <UART_WaitOnFlagUntilTimeout+0x8a>
 80089e6:	68bb      	ldr	r3, [r7, #8]
 80089e8:	2b80      	cmp	r3, #128	; 0x80
 80089ea:	d020      	beq.n	8008a2e <UART_WaitOnFlagUntilTimeout+0x8a>
 80089ec:	68bb      	ldr	r3, [r7, #8]
 80089ee:	2b40      	cmp	r3, #64	; 0x40
 80089f0:	d01d      	beq.n	8008a2e <UART_WaitOnFlagUntilTimeout+0x8a>
      {
        if (__HAL_UART_GET_FLAG(huart, UART_FLAG_ORE) == SET)
 80089f2:	68fb      	ldr	r3, [r7, #12]
 80089f4:	681b      	ldr	r3, [r3, #0]
 80089f6:	681b      	ldr	r3, [r3, #0]
 80089f8:	f003 0308 	and.w	r3, r3, #8
 80089fc:	2b08      	cmp	r3, #8
 80089fe:	d116      	bne.n	8008a2e <UART_WaitOnFlagUntilTimeout+0x8a>
        {
          /* Clear Overrun Error flag*/
          __HAL_UART_CLEAR_OREFLAG(huart);
 8008a00:	2300      	movs	r3, #0
 8008a02:	617b      	str	r3, [r7, #20]
 8008a04:	68fb      	ldr	r3, [r7, #12]
 8008a06:	681b      	ldr	r3, [r3, #0]
 8008a08:	681b      	ldr	r3, [r3, #0]
 8008a0a:	617b      	str	r3, [r7, #20]
 8008a0c:	68fb      	ldr	r3, [r7, #12]
 8008a0e:	681b      	ldr	r3, [r3, #0]
 8008a10:	685b      	ldr	r3, [r3, #4]
 8008a12:	617b      	str	r3, [r7, #20]
 8008a14:	697b      	ldr	r3, [r7, #20]

          /* Blocking error : transfer is aborted
          Set the UART state ready to be able to start again the process,
          Disable Rx Interrupts if ongoing */
          UART_EndRxTransfer(huart);
 8008a16:	68f8      	ldr	r0, [r7, #12]
 8008a18:	f000 f857 	bl	8008aca <UART_EndRxTransfer>

          huart->ErrorCode = HAL_UART_ERROR_ORE;
 8008a1c:	68fb      	ldr	r3, [r7, #12]
 8008a1e:	2208      	movs	r2, #8
 8008a20:	645a      	str	r2, [r3, #68]	; 0x44

          /* Process Unlocked */
          __HAL_UNLOCK(huart);
 8008a22:	68fb      	ldr	r3, [r7, #12]
 8008a24:	2200      	movs	r2, #0
 8008a26:	f883 2040 	strb.w	r2, [r3, #64]	; 0x40

          return HAL_ERROR;
 8008a2a:	2301      	movs	r3, #1
 8008a2c:	e00f      	b.n	8008a4e <UART_WaitOnFlagUntilTimeout+0xaa>
  while ((__HAL_UART_GET_FLAG(huart, Flag) ? SET : RESET) == Status)
 8008a2e:	68fb      	ldr	r3, [r7, #12]
 8008a30:	681b      	ldr	r3, [r3, #0]
 8008a32:	681a      	ldr	r2, [r3, #0]
 8008a34:	68bb      	ldr	r3, [r7, #8]
 8008a36:	4013      	ands	r3, r2
 8008a38:	68ba      	ldr	r2, [r7, #8]
 8008a3a:	429a      	cmp	r2, r3
 8008a3c:	bf0c      	ite	eq
 8008a3e:	2301      	moveq	r3, #1
 8008a40:	2300      	movne	r3, #0
 8008a42:	b2db      	uxtb	r3, r3
 8008a44:	461a      	mov	r2, r3
 8008a46:	79fb      	ldrb	r3, [r7, #7]
 8008a48:	429a      	cmp	r2, r3
 8008a4a:	d0b4      	beq.n	80089b6 <UART_WaitOnFlagUntilTimeout+0x12>
        }
      }
    }
  }
  return HAL_OK;
 8008a4c:	2300      	movs	r3, #0
}
 8008a4e:	4618      	mov	r0, r3
 8008a50:	3718      	adds	r7, #24
 8008a52:	46bd      	mov	sp, r7
 8008a54:	bd80      	pop	{r7, pc}

08008a56 <UART_Start_Receive_IT>:
  * @param  pData Pointer to data buffer (u8 or u16 data elements).
  * @param  Size  Amount of data elements (u8 or u16) to be received.
  * @retval HAL status
  */
HAL_StatusTypeDef UART_Start_Receive_IT(UART_HandleTypeDef *huart, uint8_t *pData, uint16_t Size)
{
 8008a56:	b480      	push	{r7}
 8008a58:	b085      	sub	sp, #20
 8008a5a:	af00      	add	r7, sp, #0
 8008a5c:	60f8      	str	r0, [r7, #12]
 8008a5e:	60b9      	str	r1, [r7, #8]
 8008a60:	4613      	mov	r3, r2
 8008a62:	80fb      	strh	r3, [r7, #6]
  huart->pRxBuffPtr = pData;
 8008a64:	68fb      	ldr	r3, [r7, #12]
 8008a66:	68ba      	ldr	r2, [r7, #8]
 8008a68:	629a      	str	r2, [r3, #40]	; 0x28
  huart->RxXferSize = Size;
 8008a6a:	68fb      	ldr	r3, [r7, #12]
 8008a6c:	88fa      	ldrh	r2, [r7, #6]
 8008a6e:	859a      	strh	r2, [r3, #44]	; 0x2c
  huart->RxXferCount = Size;
 8008a70:	68fb      	ldr	r3, [r7, #12]
 8008a72:	88fa      	ldrh	r2, [r7, #6]
 8008a74:	85da      	strh	r2, [r3, #46]	; 0x2e

  huart->ErrorCode = HAL_UART_ERROR_NONE;
 8008a76:	68fb      	ldr	r3, [r7, #12]
 8008a78:	2200      	movs	r2, #0
 8008a7a:	645a      	str	r2, [r3, #68]	; 0x44
  huart->RxState = HAL_UART_STATE_BUSY_RX;
 8008a7c:	68fb      	ldr	r3, [r7, #12]
 8008a7e:	2222      	movs	r2, #34	; 0x22
 8008a80:	f883 2042 	strb.w	r2, [r3, #66]	; 0x42

  if (huart->Init.Parity != UART_PARITY_NONE)
 8008a84:	68fb      	ldr	r3, [r7, #12]
 8008a86:	691b      	ldr	r3, [r3, #16]
 8008a88:	2b00      	cmp	r3, #0
 8008a8a:	d007      	beq.n	8008a9c <UART_Start_Receive_IT+0x46>
  {
    /* Enable the UART Parity Error Interrupt */
    __HAL_UART_ENABLE_IT(huart, UART_IT_PE);
 8008a8c:	68fb      	ldr	r3, [r7, #12]
 8008a8e:	681b      	ldr	r3, [r3, #0]
 8008a90:	68da      	ldr	r2, [r3, #12]
 8008a92:	68fb      	ldr	r3, [r7, #12]
 8008a94:	681b      	ldr	r3, [r3, #0]
 8008a96:	f442 7280 	orr.w	r2, r2, #256	; 0x100
 8008a9a:	60da      	str	r2, [r3, #12]
  }

  /* Enable the UART Error Interrupt: (Frame error, noise error, overrun error) */
  __HAL_UART_ENABLE_IT(huart, UART_IT_ERR);
 8008a9c:	68fb      	ldr	r3, [r7, #12]
 8008a9e:	681b      	ldr	r3, [r3, #0]
 8008aa0:	695a      	ldr	r2, [r3, #20]
 8008aa2:	68fb      	ldr	r3, [r7, #12]
 8008aa4:	681b      	ldr	r3, [r3, #0]
 8008aa6:	f042 0201 	orr.w	r2, r2, #1
 8008aaa:	615a      	str	r2, [r3, #20]

  /* Enable the UART Data Register not empty Interrupt */
  __HAL_UART_ENABLE_IT(huart, UART_IT_RXNE);
 8008aac:	68fb      	ldr	r3, [r7, #12]
 8008aae:	681b      	ldr	r3, [r3, #0]
 8008ab0:	68da      	ldr	r2, [r3, #12]
 8008ab2:	68fb      	ldr	r3, [r7, #12]
 8008ab4:	681b      	ldr	r3, [r3, #0]
 8008ab6:	f042 0220 	orr.w	r2, r2, #32
 8008aba:	60da      	str	r2, [r3, #12]

  return HAL_OK;
 8008abc:	2300      	movs	r3, #0
}
 8008abe:	4618      	mov	r0, r3
 8008ac0:	3714      	adds	r7, #20
 8008ac2:	46bd      	mov	sp, r7
 8008ac4:	f85d 7b04 	ldr.w	r7, [sp], #4
 8008ac8:	4770      	bx	lr

08008aca <UART_EndRxTransfer>:
  * @brief  End ongoing Rx transfer on UART peripheral (following error detection or Reception completion).
  * @param  huart UART handle.
  * @retval None
  */
static void UART_EndRxTransfer(UART_HandleTypeDef *huart)
{
 8008aca:	b480      	push	{r7}
 8008acc:	b095      	sub	sp, #84	; 0x54
 8008ace:	af00      	add	r7, sp, #0
 8008ad0:	6078      	str	r0, [r7, #4]
  /* Disable RXNE, PE and ERR (Frame error, noise error, overrun error) interrupts */
  ATOMIC_CLEAR_BIT(huart->Instance->CR1, (USART_CR1_RXNEIE | USART_CR1_PEIE));
 8008ad2:	687b      	ldr	r3, [r7, #4]
 8008ad4:	681b      	ldr	r3, [r3, #0]
 8008ad6:	330c      	adds	r3, #12
 8008ad8:	637b      	str	r3, [r7, #52]	; 0x34
   __ASM volatile ("ldrex %0, %1" : "=r" (result) : "Q" (*addr) );
 8008ada:	6b7b      	ldr	r3, [r7, #52]	; 0x34
 8008adc:	e853 3f00 	ldrex	r3, [r3]
 8008ae0:	633b      	str	r3, [r7, #48]	; 0x30
   return(result);
 8008ae2:	6b3b      	ldr	r3, [r7, #48]	; 0x30
 8008ae4:	f423 7390 	bic.w	r3, r3, #288	; 0x120
 8008ae8:	64fb      	str	r3, [r7, #76]	; 0x4c
 8008aea:	687b      	ldr	r3, [r7, #4]
 8008aec:	681b      	ldr	r3, [r3, #0]
 8008aee:	330c      	adds	r3, #12
 8008af0:	6cfa      	ldr	r2, [r7, #76]	; 0x4c
 8008af2:	643a      	str	r2, [r7, #64]	; 0x40
 8008af4:	63fb      	str	r3, [r7, #60]	; 0x3c
   __ASM volatile ("strex %0, %2, %1" : "=&r" (result), "=Q" (*addr) : "r" (value) );
 8008af6:	6bf9      	ldr	r1, [r7, #60]	; 0x3c
 8008af8:	6c3a      	ldr	r2, [r7, #64]	; 0x40
 8008afa:	e841 2300 	strex	r3, r2, [r1]
 8008afe:	63bb      	str	r3, [r7, #56]	; 0x38
   return(result);
 8008b00:	6bbb      	ldr	r3, [r7, #56]	; 0x38
 8008b02:	2b00      	cmp	r3, #0
 8008b04:	d1e5      	bne.n	8008ad2 <UART_EndRxTransfer+0x8>
  ATOMIC_CLEAR_BIT(huart->Instance->CR3, USART_CR3_EIE);
 8008b06:	687b      	ldr	r3, [r7, #4]
 8008b08:	681b      	ldr	r3, [r3, #0]
 8008b0a:	3314      	adds	r3, #20
 8008b0c:	623b      	str	r3, [r7, #32]
   __ASM volatile ("ldrex %0, %1" : "=r" (result) : "Q" (*addr) );
 8008b0e:	6a3b      	ldr	r3, [r7, #32]
 8008b10:	e853 3f00 	ldrex	r3, [r3]
 8008b14:	61fb      	str	r3, [r7, #28]
   return(result);
 8008b16:	69fb      	ldr	r3, [r7, #28]
 8008b18:	f023 0301 	bic.w	r3, r3, #1
 8008b1c:	64bb      	str	r3, [r7, #72]	; 0x48
 8008b1e:	687b      	ldr	r3, [r7, #4]
 8008b20:	681b      	ldr	r3, [r3, #0]
 8008b22:	3314      	adds	r3, #20
 8008b24:	6cba      	ldr	r2, [r7, #72]	; 0x48
 8008b26:	62fa      	str	r2, [r7, #44]	; 0x2c
 8008b28:	62bb      	str	r3, [r7, #40]	; 0x28
   __ASM volatile ("strex %0, %2, %1" : "=&r" (result), "=Q" (*addr) : "r" (value) );
 8008b2a:	6ab9      	ldr	r1, [r7, #40]	; 0x28
 8008b2c:	6afa      	ldr	r2, [r7, #44]	; 0x2c
 8008b2e:	e841 2300 	strex	r3, r2, [r1]
 8008b32:	627b      	str	r3, [r7, #36]	; 0x24
   return(result);
 8008b34:	6a7b      	ldr	r3, [r7, #36]	; 0x24
 8008b36:	2b00      	cmp	r3, #0
 8008b38:	d1e5      	bne.n	8008b06 <UART_EndRxTransfer+0x3c>

  /* In case of reception waiting for IDLE event, disable also the IDLE IE interrupt source */
  if (huart->ReceptionType == HAL_UART_RECEPTION_TOIDLE)
 8008b3a:	687b      	ldr	r3, [r7, #4]
 8008b3c:	6b1b      	ldr	r3, [r3, #48]	; 0x30
 8008b3e:	2b01      	cmp	r3, #1
 8008b40:	d119      	bne.n	8008b76 <UART_EndRxTransfer+0xac>
  {
    ATOMIC_CLEAR_BIT(huart->Instance->CR1, USART_CR1_IDLEIE);
 8008b42:	687b      	ldr	r3, [r7, #4]
 8008b44:	681b      	ldr	r3, [r3, #0]
 8008b46:	330c      	adds	r3, #12
 8008b48:	60fb      	str	r3, [r7, #12]
   __ASM volatile ("ldrex %0, %1" : "=r" (result) : "Q" (*addr) );
 8008b4a:	68fb      	ldr	r3, [r7, #12]
 8008b4c:	e853 3f00 	ldrex	r3, [r3]
 8008b50:	60bb      	str	r3, [r7, #8]
   return(result);
 8008b52:	68bb      	ldr	r3, [r7, #8]
 8008b54:	f023 0310 	bic.w	r3, r3, #16
 8008b58:	647b      	str	r3, [r7, #68]	; 0x44
 8008b5a:	687b      	ldr	r3, [r7, #4]
 8008b5c:	681b      	ldr	r3, [r3, #0]
 8008b5e:	330c      	adds	r3, #12
 8008b60:	6c7a      	ldr	r2, [r7, #68]	; 0x44
 8008b62:	61ba      	str	r2, [r7, #24]
 8008b64:	617b      	str	r3, [r7, #20]
   __ASM volatile ("strex %0, %2, %1" : "=&r" (result), "=Q" (*addr) : "r" (value) );
 8008b66:	6979      	ldr	r1, [r7, #20]
 8008b68:	69ba      	ldr	r2, [r7, #24]
 8008b6a:	e841 2300 	strex	r3, r2, [r1]
 8008b6e:	613b      	str	r3, [r7, #16]
   return(result);
 8008b70:	693b      	ldr	r3, [r7, #16]
 8008b72:	2b00      	cmp	r3, #0
 8008b74:	d1e5      	bne.n	8008b42 <UART_EndRxTransfer+0x78>
  }

  /* At end of Rx process, restore huart->RxState to Ready */
  huart->RxState = HAL_UART_STATE_READY;
 8008b76:	687b      	ldr	r3, [r7, #4]
 8008b78:	2220      	movs	r2, #32
 8008b7a:	f883 2042 	strb.w	r2, [r3, #66]	; 0x42
  huart->ReceptionType = HAL_UART_RECEPTION_STANDARD;
 8008b7e:	687b      	ldr	r3, [r7, #4]
 8008b80:	2200      	movs	r2, #0
 8008b82:	631a      	str	r2, [r3, #48]	; 0x30
}
 8008b84:	bf00      	nop
 8008b86:	3754      	adds	r7, #84	; 0x54
 8008b88:	46bd      	mov	sp, r7
 8008b8a:	f85d 7b04 	ldr.w	r7, [sp], #4
 8008b8e:	4770      	bx	lr

08008b90 <UART_DMAAbortOnError>:
  * @param  hdma  Pointer to a DMA_HandleTypeDef structure that contains
  *               the configuration information for the specified DMA module.
  * @retval None
  */
static void UART_DMAAbortOnError(DMA_HandleTypeDef *hdma)
{
 8008b90:	b580      	push	{r7, lr}
 8008b92:	b084      	sub	sp, #16
 8008b94:	af00      	add	r7, sp, #0
 8008b96:	6078      	str	r0, [r7, #4]
  UART_HandleTypeDef *huart = (UART_HandleTypeDef *)((DMA_HandleTypeDef *)hdma)->Parent;
 8008b98:	687b      	ldr	r3, [r7, #4]
 8008b9a:	6b9b      	ldr	r3, [r3, #56]	; 0x38
 8008b9c:	60fb      	str	r3, [r7, #12]
  huart->RxXferCount = 0x00U;
 8008b9e:	68fb      	ldr	r3, [r7, #12]
 8008ba0:	2200      	movs	r2, #0
 8008ba2:	85da      	strh	r2, [r3, #46]	; 0x2e
  huart->TxXferCount = 0x00U;
 8008ba4:	68fb      	ldr	r3, [r7, #12]
 8008ba6:	2200      	movs	r2, #0
 8008ba8:	84da      	strh	r2, [r3, #38]	; 0x26
#if (USE_HAL_UART_REGISTER_CALLBACKS == 1)
  /*Call registered error callback*/
  huart->ErrorCallback(huart);
#else
  /*Call legacy weak error callback*/
  HAL_UART_ErrorCallback(huart);
 8008baa:	68f8      	ldr	r0, [r7, #12]
 8008bac:	f7ff fee4 	bl	8008978 <HAL_UART_ErrorCallback>
#endif /* USE_HAL_UART_REGISTER_CALLBACKS */
}
 8008bb0:	bf00      	nop
 8008bb2:	3710      	adds	r7, #16
 8008bb4:	46bd      	mov	sp, r7
 8008bb6:	bd80      	pop	{r7, pc}

08008bb8 <UART_Transmit_IT>:
  * @param  huart  Pointer to a UART_HandleTypeDef structure that contains
  *                the configuration information for the specified UART module.
  * @retval HAL status
  */
static HAL_StatusTypeDef UART_Transmit_IT(UART_HandleTypeDef *huart)
{
 8008bb8:	b480      	push	{r7}
 8008bba:	b085      	sub	sp, #20
 8008bbc:	af00      	add	r7, sp, #0
 8008bbe:	6078      	str	r0, [r7, #4]
  const uint16_t *tmp;

  /* Check that a Tx process is ongoing */
  if (huart->gState == HAL_UART_STATE_BUSY_TX)
 8008bc0:	687b      	ldr	r3, [r7, #4]
 8008bc2:	f893 3041 	ldrb.w	r3, [r3, #65]	; 0x41
 8008bc6:	b2db      	uxtb	r3, r3
 8008bc8:	2b21      	cmp	r3, #33	; 0x21
 8008bca:	d13e      	bne.n	8008c4a <UART_Transmit_IT+0x92>
  {
    if ((huart->Init.WordLength == UART_WORDLENGTH_9B) && (huart->Init.Parity == UART_PARITY_NONE))
 8008bcc:	687b      	ldr	r3, [r7, #4]
 8008bce:	689b      	ldr	r3, [r3, #8]
 8008bd0:	f5b3 5f80 	cmp.w	r3, #4096	; 0x1000
 8008bd4:	d114      	bne.n	8008c00 <UART_Transmit_IT+0x48>
 8008bd6:	687b      	ldr	r3, [r7, #4]
 8008bd8:	691b      	ldr	r3, [r3, #16]
 8008bda:	2b00      	cmp	r3, #0
 8008bdc:	d110      	bne.n	8008c00 <UART_Transmit_IT+0x48>
    {
      tmp = (const uint16_t *) huart->pTxBuffPtr;
 8008bde:	687b      	ldr	r3, [r7, #4]
 8008be0:	6a1b      	ldr	r3, [r3, #32]
 8008be2:	60fb      	str	r3, [r7, #12]
      huart->Instance->DR = (uint16_t)(*tmp & (uint16_t)0x01FF);
 8008be4:	68fb      	ldr	r3, [r7, #12]
 8008be6:	881b      	ldrh	r3, [r3, #0]
 8008be8:	461a      	mov	r2, r3
 8008bea:	687b      	ldr	r3, [r7, #4]
 8008bec:	681b      	ldr	r3, [r3, #0]
 8008bee:	f3c2 0208 	ubfx	r2, r2, #0, #9
 8008bf2:	605a      	str	r2, [r3, #4]
      huart->pTxBuffPtr += 2U;
 8008bf4:	687b      	ldr	r3, [r7, #4]
 8008bf6:	6a1b      	ldr	r3, [r3, #32]
 8008bf8:	1c9a      	adds	r2, r3, #2
 8008bfa:	687b      	ldr	r3, [r7, #4]
 8008bfc:	621a      	str	r2, [r3, #32]
 8008bfe:	e008      	b.n	8008c12 <UART_Transmit_IT+0x5a>
    }
    else
    {
      huart->Instance->DR = (uint8_t)(*huart->pTxBuffPtr++ & (uint8_t)0x00FF);
 8008c00:	687b      	ldr	r3, [r7, #4]
 8008c02:	6a1b      	ldr	r3, [r3, #32]
 8008c04:	1c59      	adds	r1, r3, #1
 8008c06:	687a      	ldr	r2, [r7, #4]
 8008c08:	6211      	str	r1, [r2, #32]
 8008c0a:	781a      	ldrb	r2, [r3, #0]
 8008c0c:	687b      	ldr	r3, [r7, #4]
 8008c0e:	681b      	ldr	r3, [r3, #0]
 8008c10:	605a      	str	r2, [r3, #4]
    }

    if (--huart->TxXferCount == 0U)
 8008c12:	687b      	ldr	r3, [r7, #4]
 8008c14:	8cdb      	ldrh	r3, [r3, #38]	; 0x26
 8008c16:	b29b      	uxth	r3, r3
 8008c18:	3b01      	subs	r3, #1
 8008c1a:	b29b      	uxth	r3, r3
 8008c1c:	687a      	ldr	r2, [r7, #4]
 8008c1e:	4619      	mov	r1, r3
 8008c20:	84d1      	strh	r1, [r2, #38]	; 0x26
 8008c22:	2b00      	cmp	r3, #0
 8008c24:	d10f      	bne.n	8008c46 <UART_Transmit_IT+0x8e>
    {
      /* Disable the UART Transmit Data Register Empty Interrupt */
      __HAL_UART_DISABLE_IT(huart, UART_IT_TXE);
 8008c26:	687b      	ldr	r3, [r7, #4]
 8008c28:	681b      	ldr	r3, [r3, #0]
 8008c2a:	68da      	ldr	r2, [r3, #12]
 8008c2c:	687b      	ldr	r3, [r7, #4]
 8008c2e:	681b      	ldr	r3, [r3, #0]
 8008c30:	f022 0280 	bic.w	r2, r2, #128	; 0x80
 8008c34:	60da      	str	r2, [r3, #12]

      /* Enable the UART Transmit Complete Interrupt */
      __HAL_UART_ENABLE_IT(huart, UART_IT_TC);
 8008c36:	687b      	ldr	r3, [r7, #4]
 8008c38:	681b      	ldr	r3, [r3, #0]
 8008c3a:	68da      	ldr	r2, [r3, #12]
 8008c3c:	687b      	ldr	r3, [r7, #4]
 8008c3e:	681b      	ldr	r3, [r3, #0]
 8008c40:	f042 0240 	orr.w	r2, r2, #64	; 0x40
 8008c44:	60da      	str	r2, [r3, #12]
    }
    return HAL_OK;
 8008c46:	2300      	movs	r3, #0
 8008c48:	e000      	b.n	8008c4c <UART_Transmit_IT+0x94>
  }
  else
  {
    return HAL_BUSY;
 8008c4a:	2302      	movs	r3, #2
  }
}
 8008c4c:	4618      	mov	r0, r3
 8008c4e:	3714      	adds	r7, #20
 8008c50:	46bd      	mov	sp, r7
 8008c52:	f85d 7b04 	ldr.w	r7, [sp], #4
 8008c56:	4770      	bx	lr

08008c58 <UART_EndTransmit_IT>:
  * @param  huart  Pointer to a UART_HandleTypeDef structure that contains
  *                the configuration information for the specified UART module.
  * @retval HAL status
  */
static HAL_StatusTypeDef UART_EndTransmit_IT(UART_HandleTypeDef *huart)
{
 8008c58:	b580      	push	{r7, lr}
 8008c5a:	b082      	sub	sp, #8
 8008c5c:	af00      	add	r7, sp, #0
 8008c5e:	6078      	str	r0, [r7, #4]
  /* Disable the UART Transmit Complete Interrupt */
  __HAL_UART_DISABLE_IT(huart, UART_IT_TC);
 8008c60:	687b      	ldr	r3, [r7, #4]
 8008c62:	681b      	ldr	r3, [r3, #0]
 8008c64:	68da      	ldr	r2, [r3, #12]
 8008c66:	687b      	ldr	r3, [r7, #4]
 8008c68:	681b      	ldr	r3, [r3, #0]
 8008c6a:	f022 0240 	bic.w	r2, r2, #64	; 0x40
 8008c6e:	60da      	str	r2, [r3, #12]

  /* Tx process is ended, restore huart->gState to Ready */
  huart->gState = HAL_UART_STATE_READY;
 8008c70:	687b      	ldr	r3, [r7, #4]
 8008c72:	2220      	movs	r2, #32
 8008c74:	f883 2041 	strb.w	r2, [r3, #65]	; 0x41
#if (USE_HAL_UART_REGISTER_CALLBACKS == 1)
  /*Call registered Tx complete callback*/
  huart->TxCpltCallback(huart);
#else
  /*Call legacy weak Tx complete callback*/
  HAL_UART_TxCpltCallback(huart);
 8008c78:	6878      	ldr	r0, [r7, #4]
 8008c7a:	f7ff fe73 	bl	8008964 <HAL_UART_TxCpltCallback>
#endif /* USE_HAL_UART_REGISTER_CALLBACKS */

  return HAL_OK;
 8008c7e:	2300      	movs	r3, #0
}
 8008c80:	4618      	mov	r0, r3
 8008c82:	3708      	adds	r7, #8
 8008c84:	46bd      	mov	sp, r7
 8008c86:	bd80      	pop	{r7, pc}

08008c88 <UART_Receive_IT>:
  * @param  huart  Pointer to a UART_HandleTypeDef structure that contains
  *                the configuration information for the specified UART module.
  * @retval HAL status
  */
static HAL_StatusTypeDef UART_Receive_IT(UART_HandleTypeDef *huart)
{
 8008c88:	b580      	push	{r7, lr}
 8008c8a:	b08c      	sub	sp, #48	; 0x30
 8008c8c:	af00      	add	r7, sp, #0
 8008c8e:	6078      	str	r0, [r7, #4]
  uint8_t  *pdata8bits;
  uint16_t *pdata16bits;

  /* Check that a Rx process is ongoing */
  if (huart->RxState == HAL_UART_STATE_BUSY_RX)
 8008c90:	687b      	ldr	r3, [r7, #4]
 8008c92:	f893 3042 	ldrb.w	r3, [r3, #66]	; 0x42
 8008c96:	b2db      	uxtb	r3, r3
 8008c98:	2b22      	cmp	r3, #34	; 0x22
 8008c9a:	f040 80ae 	bne.w	8008dfa <UART_Receive_IT+0x172>
  {
    if ((huart->Init.WordLength == UART_WORDLENGTH_9B) && (huart->Init.Parity == UART_PARITY_NONE))
 8008c9e:	687b      	ldr	r3, [r7, #4]
 8008ca0:	689b      	ldr	r3, [r3, #8]
 8008ca2:	f5b3 5f80 	cmp.w	r3, #4096	; 0x1000
 8008ca6:	d117      	bne.n	8008cd8 <UART_Receive_IT+0x50>
 8008ca8:	687b      	ldr	r3, [r7, #4]
 8008caa:	691b      	ldr	r3, [r3, #16]
 8008cac:	2b00      	cmp	r3, #0
 8008cae:	d113      	bne.n	8008cd8 <UART_Receive_IT+0x50>
    {
      pdata8bits  = NULL;
 8008cb0:	2300      	movs	r3, #0
 8008cb2:	62fb      	str	r3, [r7, #44]	; 0x2c
      pdata16bits = (uint16_t *) huart->pRxBuffPtr;
 8008cb4:	687b      	ldr	r3, [r7, #4]
 8008cb6:	6a9b      	ldr	r3, [r3, #40]	; 0x28
 8008cb8:	62bb      	str	r3, [r7, #40]	; 0x28
      *pdata16bits = (uint16_t)(huart->Instance->DR & (uint16_t)0x01FF);
 8008cba:	687b      	ldr	r3, [r7, #4]
 8008cbc:	681b      	ldr	r3, [r3, #0]
 8008cbe:	685b      	ldr	r3, [r3, #4]
 8008cc0:	b29b      	uxth	r3, r3
 8008cc2:	f3c3 0308 	ubfx	r3, r3, #0, #9
 8008cc6:	b29a      	uxth	r2, r3
 8008cc8:	6abb      	ldr	r3, [r7, #40]	; 0x28
 8008cca:	801a      	strh	r2, [r3, #0]
      huart->pRxBuffPtr += 2U;
 8008ccc:	687b      	ldr	r3, [r7, #4]
 8008cce:	6a9b      	ldr	r3, [r3, #40]	; 0x28
 8008cd0:	1c9a      	adds	r2, r3, #2
 8008cd2:	687b      	ldr	r3, [r7, #4]
 8008cd4:	629a      	str	r2, [r3, #40]	; 0x28
 8008cd6:	e026      	b.n	8008d26 <UART_Receive_IT+0x9e>
    }
    else
    {
      pdata8bits = (uint8_t *) huart->pRxBuffPtr;
 8008cd8:	687b      	ldr	r3, [r7, #4]
 8008cda:	6a9b      	ldr	r3, [r3, #40]	; 0x28
 8008cdc:	62fb      	str	r3, [r7, #44]	; 0x2c
      pdata16bits  = NULL;
 8008cde:	2300      	movs	r3, #0
 8008ce0:	62bb      	str	r3, [r7, #40]	; 0x28

      if ((huart->Init.WordLength == UART_WORDLENGTH_9B) || ((huart->Init.WordLength == UART_WORDLENGTH_8B) && (huart->Init.Parity == UART_PARITY_NONE)))
 8008ce2:	687b      	ldr	r3, [r7, #4]
 8008ce4:	689b      	ldr	r3, [r3, #8]
 8008ce6:	f5b3 5f80 	cmp.w	r3, #4096	; 0x1000
 8008cea:	d007      	beq.n	8008cfc <UART_Receive_IT+0x74>
 8008cec:	687b      	ldr	r3, [r7, #4]
 8008cee:	689b      	ldr	r3, [r3, #8]
 8008cf0:	2b00      	cmp	r3, #0
 8008cf2:	d10a      	bne.n	8008d0a <UART_Receive_IT+0x82>
 8008cf4:	687b      	ldr	r3, [r7, #4]
 8008cf6:	691b      	ldr	r3, [r3, #16]
 8008cf8:	2b00      	cmp	r3, #0
 8008cfa:	d106      	bne.n	8008d0a <UART_Receive_IT+0x82>
      {
        *pdata8bits = (uint8_t)(huart->Instance->DR & (uint8_t)0x00FF);
 8008cfc:	687b      	ldr	r3, [r7, #4]
 8008cfe:	681b      	ldr	r3, [r3, #0]
 8008d00:	685b      	ldr	r3, [r3, #4]
 8008d02:	b2da      	uxtb	r2, r3
 8008d04:	6afb      	ldr	r3, [r7, #44]	; 0x2c
 8008d06:	701a      	strb	r2, [r3, #0]
 8008d08:	e008      	b.n	8008d1c <UART_Receive_IT+0x94>
      }
      else
      {
        *pdata8bits = (uint8_t)(huart->Instance->DR & (uint8_t)0x007F);
 8008d0a:	687b      	ldr	r3, [r7, #4]
 8008d0c:	681b      	ldr	r3, [r3, #0]
 8008d0e:	685b      	ldr	r3, [r3, #4]
 8008d10:	b2db      	uxtb	r3, r3
 8008d12:	f003 037f 	and.w	r3, r3, #127	; 0x7f
 8008d16:	b2da      	uxtb	r2, r3
 8008d18:	6afb      	ldr	r3, [r7, #44]	; 0x2c
 8008d1a:	701a      	strb	r2, [r3, #0]
      }
      huart->pRxBuffPtr += 1U;
 8008d1c:	687b      	ldr	r3, [r7, #4]
 8008d1e:	6a9b      	ldr	r3, [r3, #40]	; 0x28
 8008d20:	1c5a      	adds	r2, r3, #1
 8008d22:	687b      	ldr	r3, [r7, #4]
 8008d24:	629a      	str	r2, [r3, #40]	; 0x28
    }

    if (--huart->RxXferCount == 0U)
 8008d26:	687b      	ldr	r3, [r7, #4]
 8008d28:	8ddb      	ldrh	r3, [r3, #46]	; 0x2e
 8008d2a:	b29b      	uxth	r3, r3
 8008d2c:	3b01      	subs	r3, #1
 8008d2e:	b29b      	uxth	r3, r3
 8008d30:	687a      	ldr	r2, [r7, #4]
 8008d32:	4619      	mov	r1, r3
 8008d34:	85d1      	strh	r1, [r2, #46]	; 0x2e
 8008d36:	2b00      	cmp	r3, #0
 8008d38:	d15d      	bne.n	8008df6 <UART_Receive_IT+0x16e>
    {
      /* Disable the UART Data Register not empty Interrupt */
      __HAL_UART_DISABLE_IT(huart, UART_IT_RXNE);
 8008d3a:	687b      	ldr	r3, [r7, #4]
 8008d3c:	681b      	ldr	r3, [r3, #0]
 8008d3e:	68da      	ldr	r2, [r3, #12]
 8008d40:	687b      	ldr	r3, [r7, #4]
 8008d42:	681b      	ldr	r3, [r3, #0]
 8008d44:	f022 0220 	bic.w	r2, r2, #32
 8008d48:	60da      	str	r2, [r3, #12]

      /* Disable the UART Parity Error Interrupt */
      __HAL_UART_DISABLE_IT(huart, UART_IT_PE);
 8008d4a:	687b      	ldr	r3, [r7, #4]
 8008d4c:	681b      	ldr	r3, [r3, #0]
 8008d4e:	68da      	ldr	r2, [r3, #12]
 8008d50:	687b      	ldr	r3, [r7, #4]
 8008d52:	681b      	ldr	r3, [r3, #0]
 8008d54:	f422 7280 	bic.w	r2, r2, #256	; 0x100
 8008d58:	60da      	str	r2, [r3, #12]

      /* Disable the UART Error Interrupt: (Frame error, noise error, overrun error) */
      __HAL_UART_DISABLE_IT(huart, UART_IT_ERR);
 8008d5a:	687b      	ldr	r3, [r7, #4]
 8008d5c:	681b      	ldr	r3, [r3, #0]
 8008d5e:	695a      	ldr	r2, [r3, #20]
 8008d60:	687b      	ldr	r3, [r7, #4]
 8008d62:	681b      	ldr	r3, [r3, #0]
 8008d64:	f022 0201 	bic.w	r2, r2, #1
 8008d68:	615a      	str	r2, [r3, #20]

      /* Rx process is completed, restore huart->RxState to Ready */
      huart->RxState = HAL_UART_STATE_READY;
 8008d6a:	687b      	ldr	r3, [r7, #4]
 8008d6c:	2220      	movs	r2, #32
 8008d6e:	f883 2042 	strb.w	r2, [r3, #66]	; 0x42

      /* Initialize type of RxEvent to Transfer Complete */
      huart->RxEventType = HAL_UART_RXEVENT_TC;
 8008d72:	687b      	ldr	r3, [r7, #4]
 8008d74:	2200      	movs	r2, #0
 8008d76:	635a      	str	r2, [r3, #52]	; 0x34

      /* Check current reception Mode :
         If Reception till IDLE event has been selected : */
      if (huart->ReceptionType == HAL_UART_RECEPTION_TOIDLE)
 8008d78:	687b      	ldr	r3, [r7, #4]
 8008d7a:	6b1b      	ldr	r3, [r3, #48]	; 0x30
 8008d7c:	2b01      	cmp	r3, #1
 8008d7e:	d135      	bne.n	8008dec <UART_Receive_IT+0x164>
      {
        /* Set reception type to Standard */
        huart->ReceptionType = HAL_UART_RECEPTION_STANDARD;
 8008d80:	687b      	ldr	r3, [r7, #4]
 8008d82:	2200      	movs	r2, #0
 8008d84:	631a      	str	r2, [r3, #48]	; 0x30

        /* Disable IDLE interrupt */
        ATOMIC_CLEAR_BIT(huart->Instance->CR1, USART_CR1_IDLEIE);
 8008d86:	687b      	ldr	r3, [r7, #4]
 8008d88:	681b      	ldr	r3, [r3, #0]
 8008d8a:	330c      	adds	r3, #12
 8008d8c:	617b      	str	r3, [r7, #20]
   __ASM volatile ("ldrex %0, %1" : "=r" (result) : "Q" (*addr) );
 8008d8e:	697b      	ldr	r3, [r7, #20]
 8008d90:	e853 3f00 	ldrex	r3, [r3]
 8008d94:	613b      	str	r3, [r7, #16]
   return(result);
 8008d96:	693b      	ldr	r3, [r7, #16]
 8008d98:	f023 0310 	bic.w	r3, r3, #16
 8008d9c:	627b      	str	r3, [r7, #36]	; 0x24
 8008d9e:	687b      	ldr	r3, [r7, #4]
 8008da0:	681b      	ldr	r3, [r3, #0]
 8008da2:	330c      	adds	r3, #12
 8008da4:	6a7a      	ldr	r2, [r7, #36]	; 0x24
 8008da6:	623a      	str	r2, [r7, #32]
 8008da8:	61fb      	str	r3, [r7, #28]
   __ASM volatile ("strex %0, %2, %1" : "=&r" (result), "=Q" (*addr) : "r" (value) );
 8008daa:	69f9      	ldr	r1, [r7, #28]
 8008dac:	6a3a      	ldr	r2, [r7, #32]
 8008dae:	e841 2300 	strex	r3, r2, [r1]
 8008db2:	61bb      	str	r3, [r7, #24]
   return(result);
 8008db4:	69bb      	ldr	r3, [r7, #24]
 8008db6:	2b00      	cmp	r3, #0
 8008db8:	d1e5      	bne.n	8008d86 <UART_Receive_IT+0xfe>

        /* Check if IDLE flag is set */
        if (__HAL_UART_GET_FLAG(huart, UART_FLAG_IDLE))
 8008dba:	687b      	ldr	r3, [r7, #4]
 8008dbc:	681b      	ldr	r3, [r3, #0]
 8008dbe:	681b      	ldr	r3, [r3, #0]
 8008dc0:	f003 0310 	and.w	r3, r3, #16
 8008dc4:	2b10      	cmp	r3, #16
 8008dc6:	d10a      	bne.n	8008dde <UART_Receive_IT+0x156>
        {
          /* Clear IDLE flag in ISR */
          __HAL_UART_CLEAR_IDLEFLAG(huart);
 8008dc8:	2300      	movs	r3, #0
 8008dca:	60fb      	str	r3, [r7, #12]
 8008dcc:	687b      	ldr	r3, [r7, #4]
 8008dce:	681b      	ldr	r3, [r3, #0]
 8008dd0:	681b      	ldr	r3, [r3, #0]
 8008dd2:	60fb      	str	r3, [r7, #12]
 8008dd4:	687b      	ldr	r3, [r7, #4]
 8008dd6:	681b      	ldr	r3, [r3, #0]
 8008dd8:	685b      	ldr	r3, [r3, #4]
 8008dda:	60fb      	str	r3, [r7, #12]
 8008ddc:	68fb      	ldr	r3, [r7, #12]
#if (USE_HAL_UART_REGISTER_CALLBACKS == 1)
        /*Call registered Rx Event callback*/
        huart->RxEventCallback(huart, huart->RxXferSize);
#else
        /*Call legacy weak Rx Event callback*/
        HAL_UARTEx_RxEventCallback(huart, huart->RxXferSize);
 8008dde:	687b      	ldr	r3, [r7, #4]
 8008de0:	8d9b      	ldrh	r3, [r3, #44]	; 0x2c
 8008de2:	4619      	mov	r1, r3
 8008de4:	6878      	ldr	r0, [r7, #4]
 8008de6:	f7ff fdd1 	bl	800898c <HAL_UARTEx_RxEventCallback>
 8008dea:	e002      	b.n	8008df2 <UART_Receive_IT+0x16a>
#if (USE_HAL_UART_REGISTER_CALLBACKS == 1)
        /*Call registered Rx complete callback*/
        huart->RxCpltCallback(huart);
#else
        /*Call legacy weak Rx complete callback*/
        HAL_UART_RxCpltCallback(huart);
 8008dec:	6878      	ldr	r0, [r7, #4]
 8008dee:	f7f9 ffbb 	bl	8002d68 <HAL_UART_RxCpltCallback>
#endif /* USE_HAL_UART_REGISTER_CALLBACKS */
      }

      return HAL_OK;
 8008df2:	2300      	movs	r3, #0
 8008df4:	e002      	b.n	8008dfc <UART_Receive_IT+0x174>
    }
    return HAL_OK;
 8008df6:	2300      	movs	r3, #0
 8008df8:	e000      	b.n	8008dfc <UART_Receive_IT+0x174>
  }
  else
  {
    return HAL_BUSY;
 8008dfa:	2302      	movs	r3, #2
  }
}
 8008dfc:	4618      	mov	r0, r3
 8008dfe:	3730      	adds	r7, #48	; 0x30
 8008e00:	46bd      	mov	sp, r7
 8008e02:	bd80      	pop	{r7, pc}

08008e04 <UART_SetConfig>:
  * @param  huart  Pointer to a UART_HandleTypeDef structure that contains
  *                the configuration information for the specified UART module.
  * @retval None
  */
static void UART_SetConfig(UART_HandleTypeDef *huart)
{
 8008e04:	e92d 4fb0 	stmdb	sp!, {r4, r5, r7, r8, r9, sl, fp, lr}
 8008e08:	b0c0      	sub	sp, #256	; 0x100
 8008e0a:	af00      	add	r7, sp, #0
 8008e0c:	f8c7 00f4 	str.w	r0, [r7, #244]	; 0xf4
  assert_param(IS_UART_MODE(huart->Init.Mode));

  /*-------------------------- USART CR2 Configuration -----------------------*/
  /* Configure the UART Stop Bits: Set STOP[13:12] bits
     according to huart->Init.StopBits value */
  MODIFY_REG(huart->Instance->CR2, USART_CR2_STOP, huart->Init.StopBits);
 8008e10:	f8d7 30f4 	ldr.w	r3, [r7, #244]	; 0xf4
 8008e14:	681b      	ldr	r3, [r3, #0]
 8008e16:	691b      	ldr	r3, [r3, #16]
 8008e18:	f423 5040 	bic.w	r0, r3, #12288	; 0x3000
 8008e1c:	f8d7 30f4 	ldr.w	r3, [r7, #244]	; 0xf4
 8008e20:	68d9      	ldr	r1, [r3, #12]
 8008e22:	f8d7 30f4 	ldr.w	r3, [r7, #244]	; 0xf4
 8008e26:	681a      	ldr	r2, [r3, #0]
 8008e28:	ea40 0301 	orr.w	r3, r0, r1
 8008e2c:	6113      	str	r3, [r2, #16]
     Set the M bits according to huart->Init.WordLength value
     Set PCE and PS bits according to huart->Init.Parity value
     Set TE and RE bits according to huart->Init.Mode value
     Set OVER8 bit according to huart->Init.OverSampling value */

  tmpreg = (uint32_t)huart->Init.WordLength | huart->Init.Parity | huart->Init.Mode | huart->Init.OverSampling;
 8008e2e:	f8d7 30f4 	ldr.w	r3, [r7, #244]	; 0xf4
 8008e32:	689a      	ldr	r2, [r3, #8]
 8008e34:	f8d7 30f4 	ldr.w	r3, [r7, #244]	; 0xf4
 8008e38:	691b      	ldr	r3, [r3, #16]
 8008e3a:	431a      	orrs	r2, r3
 8008e3c:	f8d7 30f4 	ldr.w	r3, [r7, #244]	; 0xf4
 8008e40:	695b      	ldr	r3, [r3, #20]
 8008e42:	431a      	orrs	r2, r3
 8008e44:	f8d7 30f4 	ldr.w	r3, [r7, #244]	; 0xf4
 8008e48:	69db      	ldr	r3, [r3, #28]
 8008e4a:	4313      	orrs	r3, r2
 8008e4c:	f8c7 30f8 	str.w	r3, [r7, #248]	; 0xf8
  MODIFY_REG(huart->Instance->CR1,
 8008e50:	f8d7 30f4 	ldr.w	r3, [r7, #244]	; 0xf4
 8008e54:	681b      	ldr	r3, [r3, #0]
 8008e56:	68db      	ldr	r3, [r3, #12]
 8008e58:	f423 4116 	bic.w	r1, r3, #38400	; 0x9600
 8008e5c:	f021 010c 	bic.w	r1, r1, #12
 8008e60:	f8d7 30f4 	ldr.w	r3, [r7, #244]	; 0xf4
 8008e64:	681a      	ldr	r2, [r3, #0]
 8008e66:	f8d7 30f8 	ldr.w	r3, [r7, #248]	; 0xf8
 8008e6a:	430b      	orrs	r3, r1
 8008e6c:	60d3      	str	r3, [r2, #12]
             (uint32_t)(USART_CR1_M | USART_CR1_PCE | USART_CR1_PS | USART_CR1_TE | USART_CR1_RE | USART_CR1_OVER8),
             tmpreg);

  /*-------------------------- USART CR3 Configuration -----------------------*/
  /* Configure the UART HFC: Set CTSE and RTSE bits according to huart->Init.HwFlowCtl value */
  MODIFY_REG(huart->Instance->CR3, (USART_CR3_RTSE | USART_CR3_CTSE), huart->Init.HwFlowCtl);
 8008e6e:	f8d7 30f4 	ldr.w	r3, [r7, #244]	; 0xf4
 8008e72:	681b      	ldr	r3, [r3, #0]
 8008e74:	695b      	ldr	r3, [r3, #20]
 8008e76:	f423 7040 	bic.w	r0, r3, #768	; 0x300
 8008e7a:	f8d7 30f4 	ldr.w	r3, [r7, #244]	; 0xf4
 8008e7e:	6999      	ldr	r1, [r3, #24]
 8008e80:	f8d7 30f4 	ldr.w	r3, [r7, #244]	; 0xf4
 8008e84:	681a      	ldr	r2, [r3, #0]
 8008e86:	ea40 0301 	orr.w	r3, r0, r1
 8008e8a:	6153      	str	r3, [r2, #20]
    if ((huart->Instance == USART1) || (huart->Instance == USART6) || (huart->Instance == UART9) || (huart->Instance == UART10))
    {
      pclk = HAL_RCC_GetPCLK2Freq();
    }
#elif defined(USART6)
    if ((huart->Instance == USART1) || (huart->Instance == USART6))
 8008e8c:	f8d7 30f4 	ldr.w	r3, [r7, #244]	; 0xf4
 8008e90:	681a      	ldr	r2, [r3, #0]
 8008e92:	4b8f      	ldr	r3, [pc, #572]	; (80090d0 <UART_SetConfig+0x2cc>)
 8008e94:	429a      	cmp	r2, r3
 8008e96:	d005      	beq.n	8008ea4 <UART_SetConfig+0xa0>
 8008e98:	f8d7 30f4 	ldr.w	r3, [r7, #244]	; 0xf4
 8008e9c:	681a      	ldr	r2, [r3, #0]
 8008e9e:	4b8d      	ldr	r3, [pc, #564]	; (80090d4 <UART_SetConfig+0x2d0>)
 8008ea0:	429a      	cmp	r2, r3
 8008ea2:	d104      	bne.n	8008eae <UART_SetConfig+0xaa>
    {
      pclk = HAL_RCC_GetPCLK2Freq();
 8008ea4:	f7fd fab0 	bl	8006408 <HAL_RCC_GetPCLK2Freq>
 8008ea8:	f8c7 00fc 	str.w	r0, [r7, #252]	; 0xfc
 8008eac:	e003      	b.n	8008eb6 <UART_SetConfig+0xb2>
      pclk = HAL_RCC_GetPCLK2Freq();
    }
#endif /* USART6 */
    else
    {
      pclk = HAL_RCC_GetPCLK1Freq();
 8008eae:	f7fd fa97 	bl	80063e0 <HAL_RCC_GetPCLK1Freq>
 8008eb2:	f8c7 00fc 	str.w	r0, [r7, #252]	; 0xfc
    }
  /*-------------------------- USART BRR Configuration ---------------------*/
  if (huart->Init.OverSampling == UART_OVERSAMPLING_8)
 8008eb6:	f8d7 30f4 	ldr.w	r3, [r7, #244]	; 0xf4
 8008eba:	69db      	ldr	r3, [r3, #28]
 8008ebc:	f5b3 4f00 	cmp.w	r3, #32768	; 0x8000
 8008ec0:	f040 810c 	bne.w	80090dc <UART_SetConfig+0x2d8>
  {
    huart->Instance->BRR = UART_BRR_SAMPLING8(pclk, huart->Init.BaudRate);
 8008ec4:	f8d7 30fc 	ldr.w	r3, [r7, #252]	; 0xfc
 8008ec8:	2200      	movs	r2, #0
 8008eca:	f8c7 30e8 	str.w	r3, [r7, #232]	; 0xe8
 8008ece:	f8c7 20ec 	str.w	r2, [r7, #236]	; 0xec
 8008ed2:	e9d7 453a 	ldrd	r4, r5, [r7, #232]	; 0xe8
 8008ed6:	4622      	mov	r2, r4
 8008ed8:	462b      	mov	r3, r5
 8008eda:	1891      	adds	r1, r2, r2
 8008edc:	65b9      	str	r1, [r7, #88]	; 0x58
 8008ede:	415b      	adcs	r3, r3
 8008ee0:	65fb      	str	r3, [r7, #92]	; 0x5c
 8008ee2:	e9d7 2316 	ldrd	r2, r3, [r7, #88]	; 0x58
 8008ee6:	4621      	mov	r1, r4
 8008ee8:	eb12 0801 	adds.w	r8, r2, r1
 8008eec:	4629      	mov	r1, r5
 8008eee:	eb43 0901 	adc.w	r9, r3, r1
 8008ef2:	f04f 0200 	mov.w	r2, #0
 8008ef6:	f04f 0300 	mov.w	r3, #0
 8008efa:	ea4f 03c9 	mov.w	r3, r9, lsl #3
 8008efe:	ea43 7358 	orr.w	r3, r3, r8, lsr #29
 8008f02:	ea4f 02c8 	mov.w	r2, r8, lsl #3
 8008f06:	4690      	mov	r8, r2
 8008f08:	4699      	mov	r9, r3
 8008f0a:	4623      	mov	r3, r4
 8008f0c:	eb18 0303 	adds.w	r3, r8, r3
 8008f10:	f8c7 30e0 	str.w	r3, [r7, #224]	; 0xe0
 8008f14:	462b      	mov	r3, r5
 8008f16:	eb49 0303 	adc.w	r3, r9, r3
 8008f1a:	f8c7 30e4 	str.w	r3, [r7, #228]	; 0xe4
 8008f1e:	f8d7 30f4 	ldr.w	r3, [r7, #244]	; 0xf4
 8008f22:	685b      	ldr	r3, [r3, #4]
 8008f24:	2200      	movs	r2, #0
 8008f26:	f8c7 30d8 	str.w	r3, [r7, #216]	; 0xd8
 8008f2a:	f8c7 20dc 	str.w	r2, [r7, #220]	; 0xdc
 8008f2e:	e9d7 1236 	ldrd	r1, r2, [r7, #216]	; 0xd8
 8008f32:	460b      	mov	r3, r1
 8008f34:	18db      	adds	r3, r3, r3
 8008f36:	653b      	str	r3, [r7, #80]	; 0x50
 8008f38:	4613      	mov	r3, r2
 8008f3a:	eb42 0303 	adc.w	r3, r2, r3
 8008f3e:	657b      	str	r3, [r7, #84]	; 0x54
 8008f40:	e9d7 2314 	ldrd	r2, r3, [r7, #80]	; 0x50
 8008f44:	e9d7 0138 	ldrd	r0, r1, [r7, #224]	; 0xe0
 8008f48:	f7f7 f958 	bl	80001fc <__aeabi_uldivmod>
 8008f4c:	4602      	mov	r2, r0
 8008f4e:	460b      	mov	r3, r1
 8008f50:	4b61      	ldr	r3, [pc, #388]	; (80090d8 <UART_SetConfig+0x2d4>)
 8008f52:	fba3 2302 	umull	r2, r3, r3, r2
 8008f56:	095b      	lsrs	r3, r3, #5
 8008f58:	011c      	lsls	r4, r3, #4
 8008f5a:	f8d7 30fc 	ldr.w	r3, [r7, #252]	; 0xfc
 8008f5e:	2200      	movs	r2, #0
 8008f60:	f8c7 30d0 	str.w	r3, [r7, #208]	; 0xd0
 8008f64:	f8c7 20d4 	str.w	r2, [r7, #212]	; 0xd4
 8008f68:	e9d7 8934 	ldrd	r8, r9, [r7, #208]	; 0xd0
 8008f6c:	4642      	mov	r2, r8
 8008f6e:	464b      	mov	r3, r9
 8008f70:	1891      	adds	r1, r2, r2
 8008f72:	64b9      	str	r1, [r7, #72]	; 0x48
 8008f74:	415b      	adcs	r3, r3
 8008f76:	64fb      	str	r3, [r7, #76]	; 0x4c
 8008f78:	e9d7 2312 	ldrd	r2, r3, [r7, #72]	; 0x48
 8008f7c:	4641      	mov	r1, r8
 8008f7e:	eb12 0a01 	adds.w	sl, r2, r1
 8008f82:	4649      	mov	r1, r9
 8008f84:	eb43 0b01 	adc.w	fp, r3, r1
 8008f88:	f04f 0200 	mov.w	r2, #0
 8008f8c:	f04f 0300 	mov.w	r3, #0
 8008f90:	ea4f 03cb 	mov.w	r3, fp, lsl #3
 8008f94:	ea43 735a 	orr.w	r3, r3, sl, lsr #29
 8008f98:	ea4f 02ca 	mov.w	r2, sl, lsl #3
 8008f9c:	4692      	mov	sl, r2
 8008f9e:	469b      	mov	fp, r3
 8008fa0:	4643      	mov	r3, r8
 8008fa2:	eb1a 0303 	adds.w	r3, sl, r3
 8008fa6:	f8c7 30c8 	str.w	r3, [r7, #200]	; 0xc8
 8008faa:	464b      	mov	r3, r9
 8008fac:	eb4b 0303 	adc.w	r3, fp, r3
 8008fb0:	f8c7 30cc 	str.w	r3, [r7, #204]	; 0xcc
 8008fb4:	f8d7 30f4 	ldr.w	r3, [r7, #244]	; 0xf4
 8008fb8:	685b      	ldr	r3, [r3, #4]
 8008fba:	2200      	movs	r2, #0
 8008fbc:	f8c7 30c0 	str.w	r3, [r7, #192]	; 0xc0
 8008fc0:	f8c7 20c4 	str.w	r2, [r7, #196]	; 0xc4
 8008fc4:	e9d7 1230 	ldrd	r1, r2, [r7, #192]	; 0xc0
 8008fc8:	460b      	mov	r3, r1
 8008fca:	18db      	adds	r3, r3, r3
 8008fcc:	643b      	str	r3, [r7, #64]	; 0x40
 8008fce:	4613      	mov	r3, r2
 8008fd0:	eb42 0303 	adc.w	r3, r2, r3
 8008fd4:	647b      	str	r3, [r7, #68]	; 0x44
 8008fd6:	e9d7 2310 	ldrd	r2, r3, [r7, #64]	; 0x40
 8008fda:	e9d7 0132 	ldrd	r0, r1, [r7, #200]	; 0xc8
 8008fde:	f7f7 f90d 	bl	80001fc <__aeabi_uldivmod>
 8008fe2:	4602      	mov	r2, r0
 8008fe4:	460b      	mov	r3, r1
 8008fe6:	4611      	mov	r1, r2
 8008fe8:	4b3b      	ldr	r3, [pc, #236]	; (80090d8 <UART_SetConfig+0x2d4>)
 8008fea:	fba3 2301 	umull	r2, r3, r3, r1
 8008fee:	095b      	lsrs	r3, r3, #5
 8008ff0:	2264      	movs	r2, #100	; 0x64
 8008ff2:	fb02 f303 	mul.w	r3, r2, r3
 8008ff6:	1acb      	subs	r3, r1, r3
 8008ff8:	00db      	lsls	r3, r3, #3
 8008ffa:	f103 0232 	add.w	r2, r3, #50	; 0x32
 8008ffe:	4b36      	ldr	r3, [pc, #216]	; (80090d8 <UART_SetConfig+0x2d4>)
 8009000:	fba3 2302 	umull	r2, r3, r3, r2
 8009004:	095b      	lsrs	r3, r3, #5
 8009006:	005b      	lsls	r3, r3, #1
 8009008:	f403 73f8 	and.w	r3, r3, #496	; 0x1f0
 800900c:	441c      	add	r4, r3
 800900e:	f8d7 30fc 	ldr.w	r3, [r7, #252]	; 0xfc
 8009012:	2200      	movs	r2, #0
 8009014:	f8c7 30b8 	str.w	r3, [r7, #184]	; 0xb8
 8009018:	f8c7 20bc 	str.w	r2, [r7, #188]	; 0xbc
 800901c:	e9d7 892e 	ldrd	r8, r9, [r7, #184]	; 0xb8
 8009020:	4642      	mov	r2, r8
 8009022:	464b      	mov	r3, r9
 8009024:	1891      	adds	r1, r2, r2
 8009026:	63b9      	str	r1, [r7, #56]	; 0x38
 8009028:	415b      	adcs	r3, r3
 800902a:	63fb      	str	r3, [r7, #60]	; 0x3c
 800902c:	e9d7 230e 	ldrd	r2, r3, [r7, #56]	; 0x38
 8009030:	4641      	mov	r1, r8
 8009032:	1851      	adds	r1, r2, r1
 8009034:	6339      	str	r1, [r7, #48]	; 0x30
 8009036:	4649      	mov	r1, r9
 8009038:	414b      	adcs	r3, r1
 800903a:	637b      	str	r3, [r7, #52]	; 0x34
 800903c:	f04f 0200 	mov.w	r2, #0
 8009040:	f04f 0300 	mov.w	r3, #0
 8009044:	e9d7 ab0c 	ldrd	sl, fp, [r7, #48]	; 0x30
 8009048:	4659      	mov	r1, fp
 800904a:	00cb      	lsls	r3, r1, #3
 800904c:	4651      	mov	r1, sl
 800904e:	ea43 7351 	orr.w	r3, r3, r1, lsr #29
 8009052:	4651      	mov	r1, sl
 8009054:	00ca      	lsls	r2, r1, #3
 8009056:	4610      	mov	r0, r2
 8009058:	4619      	mov	r1, r3
 800905a:	4603      	mov	r3, r0
 800905c:	4642      	mov	r2, r8
 800905e:	189b      	adds	r3, r3, r2
 8009060:	f8c7 30b0 	str.w	r3, [r7, #176]	; 0xb0
 8009064:	464b      	mov	r3, r9
 8009066:	460a      	mov	r2, r1
 8009068:	eb42 0303 	adc.w	r3, r2, r3
 800906c:	f8c7 30b4 	str.w	r3, [r7, #180]	; 0xb4
 8009070:	f8d7 30f4 	ldr.w	r3, [r7, #244]	; 0xf4
 8009074:	685b      	ldr	r3, [r3, #4]
 8009076:	2200      	movs	r2, #0
 8009078:	f8c7 30a8 	str.w	r3, [r7, #168]	; 0xa8
 800907c:	f8c7 20ac 	str.w	r2, [r7, #172]	; 0xac
 8009080:	e9d7 122a 	ldrd	r1, r2, [r7, #168]	; 0xa8
 8009084:	460b      	mov	r3, r1
 8009086:	18db      	adds	r3, r3, r3
 8009088:	62bb      	str	r3, [r7, #40]	; 0x28
 800908a:	4613      	mov	r3, r2
 800908c:	eb42 0303 	adc.w	r3, r2, r3
 8009090:	62fb      	str	r3, [r7, #44]	; 0x2c
 8009092:	e9d7 230a 	ldrd	r2, r3, [r7, #40]	; 0x28
 8009096:	e9d7 012c 	ldrd	r0, r1, [r7, #176]	; 0xb0
 800909a:	f7f7 f8af 	bl	80001fc <__aeabi_uldivmod>
 800909e:	4602      	mov	r2, r0
 80090a0:	460b      	mov	r3, r1
 80090a2:	4b0d      	ldr	r3, [pc, #52]	; (80090d8 <UART_SetConfig+0x2d4>)
 80090a4:	fba3 1302 	umull	r1, r3, r3, r2
 80090a8:	095b      	lsrs	r3, r3, #5
 80090aa:	2164      	movs	r1, #100	; 0x64
 80090ac:	fb01 f303 	mul.w	r3, r1, r3
 80090b0:	1ad3      	subs	r3, r2, r3
 80090b2:	00db      	lsls	r3, r3, #3
 80090b4:	3332      	adds	r3, #50	; 0x32
 80090b6:	4a08      	ldr	r2, [pc, #32]	; (80090d8 <UART_SetConfig+0x2d4>)
 80090b8:	fba2 2303 	umull	r2, r3, r2, r3
 80090bc:	095b      	lsrs	r3, r3, #5
 80090be:	f003 0207 	and.w	r2, r3, #7
 80090c2:	f8d7 30f4 	ldr.w	r3, [r7, #244]	; 0xf4
 80090c6:	681b      	ldr	r3, [r3, #0]
 80090c8:	4422      	add	r2, r4
 80090ca:	609a      	str	r2, [r3, #8]
  }
  else
  {
    huart->Instance->BRR = UART_BRR_SAMPLING16(pclk, huart->Init.BaudRate);
  }
}
 80090cc:	e106      	b.n	80092dc <UART_SetConfig+0x4d8>
 80090ce:	bf00      	nop
 80090d0:	40011000 	.word	0x40011000
 80090d4:	40011400 	.word	0x40011400
 80090d8:	51eb851f 	.word	0x51eb851f
    huart->Instance->BRR = UART_BRR_SAMPLING16(pclk, huart->Init.BaudRate);
 80090dc:	f8d7 30fc 	ldr.w	r3, [r7, #252]	; 0xfc
 80090e0:	2200      	movs	r2, #0
 80090e2:	f8c7 30a0 	str.w	r3, [r7, #160]	; 0xa0
 80090e6:	f8c7 20a4 	str.w	r2, [r7, #164]	; 0xa4
 80090ea:	e9d7 8928 	ldrd	r8, r9, [r7, #160]	; 0xa0
 80090ee:	4642      	mov	r2, r8
 80090f0:	464b      	mov	r3, r9
 80090f2:	1891      	adds	r1, r2, r2
 80090f4:	6239      	str	r1, [r7, #32]
 80090f6:	415b      	adcs	r3, r3
 80090f8:	627b      	str	r3, [r7, #36]	; 0x24
 80090fa:	e9d7 2308 	ldrd	r2, r3, [r7, #32]
 80090fe:	4641      	mov	r1, r8
 8009100:	1854      	adds	r4, r2, r1
 8009102:	4649      	mov	r1, r9
 8009104:	eb43 0501 	adc.w	r5, r3, r1
 8009108:	f04f 0200 	mov.w	r2, #0
 800910c:	f04f 0300 	mov.w	r3, #0
 8009110:	00eb      	lsls	r3, r5, #3
 8009112:	ea43 7354 	orr.w	r3, r3, r4, lsr #29
 8009116:	00e2      	lsls	r2, r4, #3
 8009118:	4614      	mov	r4, r2
 800911a:	461d      	mov	r5, r3
 800911c:	4643      	mov	r3, r8
 800911e:	18e3      	adds	r3, r4, r3
 8009120:	f8c7 3098 	str.w	r3, [r7, #152]	; 0x98
 8009124:	464b      	mov	r3, r9
 8009126:	eb45 0303 	adc.w	r3, r5, r3
 800912a:	f8c7 309c 	str.w	r3, [r7, #156]	; 0x9c
 800912e:	f8d7 30f4 	ldr.w	r3, [r7, #244]	; 0xf4
 8009132:	685b      	ldr	r3, [r3, #4]
 8009134:	2200      	movs	r2, #0
 8009136:	f8c7 3090 	str.w	r3, [r7, #144]	; 0x90
 800913a:	f8c7 2094 	str.w	r2, [r7, #148]	; 0x94
 800913e:	f04f 0200 	mov.w	r2, #0
 8009142:	f04f 0300 	mov.w	r3, #0
 8009146:	e9d7 4524 	ldrd	r4, r5, [r7, #144]	; 0x90
 800914a:	4629      	mov	r1, r5
 800914c:	008b      	lsls	r3, r1, #2
 800914e:	4621      	mov	r1, r4
 8009150:	ea43 7391 	orr.w	r3, r3, r1, lsr #30
 8009154:	4621      	mov	r1, r4
 8009156:	008a      	lsls	r2, r1, #2
 8009158:	e9d7 0126 	ldrd	r0, r1, [r7, #152]	; 0x98
 800915c:	f7f7 f84e 	bl	80001fc <__aeabi_uldivmod>
 8009160:	4602      	mov	r2, r0
 8009162:	460b      	mov	r3, r1
 8009164:	4b60      	ldr	r3, [pc, #384]	; (80092e8 <UART_SetConfig+0x4e4>)
 8009166:	fba3 2302 	umull	r2, r3, r3, r2
 800916a:	095b      	lsrs	r3, r3, #5
 800916c:	011c      	lsls	r4, r3, #4
 800916e:	f8d7 30fc 	ldr.w	r3, [r7, #252]	; 0xfc
 8009172:	2200      	movs	r2, #0
 8009174:	f8c7 3088 	str.w	r3, [r7, #136]	; 0x88
 8009178:	f8c7 208c 	str.w	r2, [r7, #140]	; 0x8c
 800917c:	e9d7 8922 	ldrd	r8, r9, [r7, #136]	; 0x88
 8009180:	4642      	mov	r2, r8
 8009182:	464b      	mov	r3, r9
 8009184:	1891      	adds	r1, r2, r2
 8009186:	61b9      	str	r1, [r7, #24]
 8009188:	415b      	adcs	r3, r3
 800918a:	61fb      	str	r3, [r7, #28]
 800918c:	e9d7 2306 	ldrd	r2, r3, [r7, #24]
 8009190:	4641      	mov	r1, r8
 8009192:	1851      	adds	r1, r2, r1
 8009194:	6139      	str	r1, [r7, #16]
 8009196:	4649      	mov	r1, r9
 8009198:	414b      	adcs	r3, r1
 800919a:	617b      	str	r3, [r7, #20]
 800919c:	f04f 0200 	mov.w	r2, #0
 80091a0:	f04f 0300 	mov.w	r3, #0
 80091a4:	e9d7 ab04 	ldrd	sl, fp, [r7, #16]
 80091a8:	4659      	mov	r1, fp
 80091aa:	00cb      	lsls	r3, r1, #3
 80091ac:	4651      	mov	r1, sl
 80091ae:	ea43 7351 	orr.w	r3, r3, r1, lsr #29
 80091b2:	4651      	mov	r1, sl
 80091b4:	00ca      	lsls	r2, r1, #3
 80091b6:	4610      	mov	r0, r2
 80091b8:	4619      	mov	r1, r3
 80091ba:	4603      	mov	r3, r0
 80091bc:	4642      	mov	r2, r8
 80091be:	189b      	adds	r3, r3, r2
 80091c0:	f8c7 3080 	str.w	r3, [r7, #128]	; 0x80
 80091c4:	464b      	mov	r3, r9
 80091c6:	460a      	mov	r2, r1
 80091c8:	eb42 0303 	adc.w	r3, r2, r3
 80091cc:	f8c7 3084 	str.w	r3, [r7, #132]	; 0x84
 80091d0:	f8d7 30f4 	ldr.w	r3, [r7, #244]	; 0xf4
 80091d4:	685b      	ldr	r3, [r3, #4]
 80091d6:	2200      	movs	r2, #0
 80091d8:	67bb      	str	r3, [r7, #120]	; 0x78
 80091da:	67fa      	str	r2, [r7, #124]	; 0x7c
 80091dc:	f04f 0200 	mov.w	r2, #0
 80091e0:	f04f 0300 	mov.w	r3, #0
 80091e4:	e9d7 891e 	ldrd	r8, r9, [r7, #120]	; 0x78
 80091e8:	4649      	mov	r1, r9
 80091ea:	008b      	lsls	r3, r1, #2
 80091ec:	4641      	mov	r1, r8
 80091ee:	ea43 7391 	orr.w	r3, r3, r1, lsr #30
 80091f2:	4641      	mov	r1, r8
 80091f4:	008a      	lsls	r2, r1, #2
 80091f6:	e9d7 0120 	ldrd	r0, r1, [r7, #128]	; 0x80
 80091fa:	f7f6 ffff 	bl	80001fc <__aeabi_uldivmod>
 80091fe:	4602      	mov	r2, r0
 8009200:	460b      	mov	r3, r1
 8009202:	4611      	mov	r1, r2
 8009204:	4b38      	ldr	r3, [pc, #224]	; (80092e8 <UART_SetConfig+0x4e4>)
 8009206:	fba3 2301 	umull	r2, r3, r3, r1
 800920a:	095b      	lsrs	r3, r3, #5
 800920c:	2264      	movs	r2, #100	; 0x64
 800920e:	fb02 f303 	mul.w	r3, r2, r3
 8009212:	1acb      	subs	r3, r1, r3
 8009214:	011b      	lsls	r3, r3, #4
 8009216:	3332      	adds	r3, #50	; 0x32
 8009218:	4a33      	ldr	r2, [pc, #204]	; (80092e8 <UART_SetConfig+0x4e4>)
 800921a:	fba2 2303 	umull	r2, r3, r2, r3
 800921e:	095b      	lsrs	r3, r3, #5
 8009220:	f003 03f0 	and.w	r3, r3, #240	; 0xf0
 8009224:	441c      	add	r4, r3
 8009226:	f8d7 30fc 	ldr.w	r3, [r7, #252]	; 0xfc
 800922a:	2200      	movs	r2, #0
 800922c:	673b      	str	r3, [r7, #112]	; 0x70
 800922e:	677a      	str	r2, [r7, #116]	; 0x74
 8009230:	e9d7 891c 	ldrd	r8, r9, [r7, #112]	; 0x70
 8009234:	4642      	mov	r2, r8
 8009236:	464b      	mov	r3, r9
 8009238:	1891      	adds	r1, r2, r2
 800923a:	60b9      	str	r1, [r7, #8]
 800923c:	415b      	adcs	r3, r3
 800923e:	60fb      	str	r3, [r7, #12]
 8009240:	e9d7 2302 	ldrd	r2, r3, [r7, #8]
 8009244:	4641      	mov	r1, r8
 8009246:	1851      	adds	r1, r2, r1
 8009248:	6039      	str	r1, [r7, #0]
 800924a:	4649      	mov	r1, r9
 800924c:	414b      	adcs	r3, r1
 800924e:	607b      	str	r3, [r7, #4]
 8009250:	f04f 0200 	mov.w	r2, #0
 8009254:	f04f 0300 	mov.w	r3, #0
 8009258:	e9d7 ab00 	ldrd	sl, fp, [r7]
 800925c:	4659      	mov	r1, fp
 800925e:	00cb      	lsls	r3, r1, #3
 8009260:	4651      	mov	r1, sl
 8009262:	ea43 7351 	orr.w	r3, r3, r1, lsr #29
 8009266:	4651      	mov	r1, sl
 8009268:	00ca      	lsls	r2, r1, #3
 800926a:	4610      	mov	r0, r2
 800926c:	4619      	mov	r1, r3
 800926e:	4603      	mov	r3, r0
 8009270:	4642      	mov	r2, r8
 8009272:	189b      	adds	r3, r3, r2
 8009274:	66bb      	str	r3, [r7, #104]	; 0x68
 8009276:	464b      	mov	r3, r9
 8009278:	460a      	mov	r2, r1
 800927a:	eb42 0303 	adc.w	r3, r2, r3
 800927e:	66fb      	str	r3, [r7, #108]	; 0x6c
 8009280:	f8d7 30f4 	ldr.w	r3, [r7, #244]	; 0xf4
 8009284:	685b      	ldr	r3, [r3, #4]
 8009286:	2200      	movs	r2, #0
 8009288:	663b      	str	r3, [r7, #96]	; 0x60
 800928a:	667a      	str	r2, [r7, #100]	; 0x64
 800928c:	f04f 0200 	mov.w	r2, #0
 8009290:	f04f 0300 	mov.w	r3, #0
 8009294:	e9d7 8918 	ldrd	r8, r9, [r7, #96]	; 0x60
 8009298:	4649      	mov	r1, r9
 800929a:	008b      	lsls	r3, r1, #2
 800929c:	4641      	mov	r1, r8
 800929e:	ea43 7391 	orr.w	r3, r3, r1, lsr #30
 80092a2:	4641      	mov	r1, r8
 80092a4:	008a      	lsls	r2, r1, #2
 80092a6:	e9d7 011a 	ldrd	r0, r1, [r7, #104]	; 0x68
 80092aa:	f7f6 ffa7 	bl	80001fc <__aeabi_uldivmod>
 80092ae:	4602      	mov	r2, r0
 80092b0:	460b      	mov	r3, r1
 80092b2:	4b0d      	ldr	r3, [pc, #52]	; (80092e8 <UART_SetConfig+0x4e4>)
 80092b4:	fba3 1302 	umull	r1, r3, r3, r2
 80092b8:	095b      	lsrs	r3, r3, #5
 80092ba:	2164      	movs	r1, #100	; 0x64
 80092bc:	fb01 f303 	mul.w	r3, r1, r3
 80092c0:	1ad3      	subs	r3, r2, r3
 80092c2:	011b      	lsls	r3, r3, #4
 80092c4:	3332      	adds	r3, #50	; 0x32
 80092c6:	4a08      	ldr	r2, [pc, #32]	; (80092e8 <UART_SetConfig+0x4e4>)
 80092c8:	fba2 2303 	umull	r2, r3, r2, r3
 80092cc:	095b      	lsrs	r3, r3, #5
 80092ce:	f003 020f 	and.w	r2, r3, #15
 80092d2:	f8d7 30f4 	ldr.w	r3, [r7, #244]	; 0xf4
 80092d6:	681b      	ldr	r3, [r3, #0]
 80092d8:	4422      	add	r2, r4
 80092da:	609a      	str	r2, [r3, #8]
}
 80092dc:	bf00      	nop
 80092de:	f507 7780 	add.w	r7, r7, #256	; 0x100
 80092e2:	46bd      	mov	sp, r7
 80092e4:	e8bd 8fb0 	ldmia.w	sp!, {r4, r5, r7, r8, r9, sl, fp, pc}
 80092e8:	51eb851f 	.word	0x51eb851f

080092ec <memset>:
 80092ec:	4402      	add	r2, r0
 80092ee:	4603      	mov	r3, r0
 80092f0:	4293      	cmp	r3, r2
 80092f2:	d100      	bne.n	80092f6 <memset+0xa>
 80092f4:	4770      	bx	lr
 80092f6:	f803 1b01 	strb.w	r1, [r3], #1
 80092fa:	e7f9      	b.n	80092f0 <memset+0x4>

080092fc <__libc_init_array>:
 80092fc:	b570      	push	{r4, r5, r6, lr}
 80092fe:	4d0d      	ldr	r5, [pc, #52]	; (8009334 <__libc_init_array+0x38>)
 8009300:	4c0d      	ldr	r4, [pc, #52]	; (8009338 <__libc_init_array+0x3c>)
 8009302:	1b64      	subs	r4, r4, r5
 8009304:	10a4      	asrs	r4, r4, #2
 8009306:	2600      	movs	r6, #0
 8009308:	42a6      	cmp	r6, r4
 800930a:	d109      	bne.n	8009320 <__libc_init_array+0x24>
 800930c:	4d0b      	ldr	r5, [pc, #44]	; (800933c <__libc_init_array+0x40>)
 800930e:	4c0c      	ldr	r4, [pc, #48]	; (8009340 <__libc_init_array+0x44>)
 8009310:	f000 f818 	bl	8009344 <_init>
 8009314:	1b64      	subs	r4, r4, r5
 8009316:	10a4      	asrs	r4, r4, #2
 8009318:	2600      	movs	r6, #0
 800931a:	42a6      	cmp	r6, r4
 800931c:	d105      	bne.n	800932a <__libc_init_array+0x2e>
 800931e:	bd70      	pop	{r4, r5, r6, pc}
 8009320:	f855 3b04 	ldr.w	r3, [r5], #4
 8009324:	4798      	blx	r3
 8009326:	3601      	adds	r6, #1
 8009328:	e7ee      	b.n	8009308 <__libc_init_array+0xc>
 800932a:	f855 3b04 	ldr.w	r3, [r5], #4
 800932e:	4798      	blx	r3
 8009330:	3601      	adds	r6, #1
 8009332:	e7f2      	b.n	800931a <__libc_init_array+0x1e>
 8009334:	0800941c 	.word	0x0800941c
 8009338:	0800941c 	.word	0x0800941c
 800933c:	0800941c 	.word	0x0800941c
 8009340:	08009420 	.word	0x08009420

08009344 <_init>:
 8009344:	b5f8      	push	{r3, r4, r5, r6, r7, lr}
 8009346:	bf00      	nop
 8009348:	bcf8      	pop	{r3, r4, r5, r6, r7}
 800934a:	bc08      	pop	{r3}
 800934c:	469e      	mov	lr, r3
 800934e:	4770      	bx	lr

08009350 <_fini>:
 8009350:	b5f8      	push	{r3, r4, r5, r6, r7, lr}
 8009352:	bf00      	nop
 8009354:	bcf8      	pop	{r3, r4, r5, r6, r7}
 8009356:	bc08      	pop	{r3}
 8009358:	469e      	mov	lr, r3
 800935a:	4770      	bx	lr
