
AuroraV_Payload_F439.elf:     file format elf32-littlearm

Sections:
Idx Name          Size      VMA       LMA       File off  Algn
  0 .isr_vector   000001ac  08000000  08000000  00001000  2**0
                  CONTENTS, ALLOC, LOAD, READONLY, DATA
  1 .text         00009760  080001ac  080001ac  000011ac  2**2
                  CONTENTS, ALLOC, LOAD, READONLY, CODE
  2 .rodata       000000b8  0800990c  0800990c  0000a90c  2**2
                  CONTENTS, ALLOC, LOAD, READONLY, DATA
  3 .ARM.extab    00000000  080099c4  080099c4  0000b028  2**0
                  CONTENTS
  4 .ARM          00000008  080099c4  080099c4  0000a9c4  2**2
                  CONTENTS, ALLOC, LOAD, READONLY, DATA
  5 .preinit_array 00000000  080099cc  080099cc  0000b028  2**0
                  CONTENTS, ALLOC, LOAD, DATA
  6 .init_array   00000004  080099cc  080099cc  0000a9cc  2**2
                  CONTENTS, ALLOC, LOAD, DATA
  7 .fini_array   00000004  080099d0  080099d0  0000a9d0  2**2
                  CONTENTS, ALLOC, LOAD, DATA
  8 .data         00000028  20000000  080099d4  0000b000  2**2
                  CONTENTS, ALLOC, LOAD, DATA
  9 .ccmram       00000000  10000000  10000000  0000b028  2**0
                  CONTENTS
 10 .bss          00000610  20000028  20000028  0000b028  2**2
                  ALLOC
 11 ._user_heap_stack 00000600  20000638  20000638  0000b028  2**0
                  ALLOC
 12 .ARM.attributes 00000030  00000000  00000000  0000b028  2**0
                  CONTENTS, READONLY
 13 .debug_info   0001d6b0  00000000  00000000  0000b058  2**0
                  CONTENTS, READONLY, DEBUGGING, OCTETS
 14 .debug_abbrev 000040f9  00000000  00000000  00028708  2**0
                  CONTENTS, READONLY, DEBUGGING, OCTETS
 15 .debug_aranges 000017a8  00000000  00000000  0002c808  2**3
                  CONTENTS, READONLY, DEBUGGING, OCTETS
 16 .debug_rnglists 0000125d  00000000  00000000  0002dfb0  2**0
                  CONTENTS, READONLY, DEBUGGING, OCTETS
 17 .debug_macro  0002804e  00000000  00000000  0002f20d  2**0
                  CONTENTS, READONLY, DEBUGGING, OCTETS
 18 .debug_line   0001e57d  00000000  00000000  0005725b  2**0
                  CONTENTS, READONLY, DEBUGGING, OCTETS
 19 .debug_str    000ea24e  00000000  00000000  000757d8  2**0
                  CONTENTS, READONLY, DEBUGGING, OCTETS
 20 .comment      00000043  00000000  00000000  0015fa26  2**0
                  CONTENTS, READONLY
 21 .debug_frame  00006280  00000000  00000000  0015fa6c  2**2
                  CONTENTS, READONLY, DEBUGGING, OCTETS
 22 .debug_line_str 00000060  00000000  00000000  00165cec  2**0
                  CONTENTS, READONLY, DEBUGGING, OCTETS

Disassembly of section .text:

080001ac <__do_global_dtors_aux>:
 80001ac:	b510      	push	{r4, lr}
 80001ae:	4c05      	ldr	r4, [pc, #20]	@ (80001c4 <__do_global_dtors_aux+0x18>)
 80001b0:	7823      	ldrb	r3, [r4, #0]
 80001b2:	b933      	cbnz	r3, 80001c2 <__do_global_dtors_aux+0x16>
 80001b4:	4b04      	ldr	r3, [pc, #16]	@ (80001c8 <__do_global_dtors_aux+0x1c>)
 80001b6:	b113      	cbz	r3, 80001be <__do_global_dtors_aux+0x12>
 80001b8:	4804      	ldr	r0, [pc, #16]	@ (80001cc <__do_global_dtors_aux+0x20>)
 80001ba:	f3af 8000 	nop.w
 80001be:	2301      	movs	r3, #1
 80001c0:	7023      	strb	r3, [r4, #0]
 80001c2:	bd10      	pop	{r4, pc}
 80001c4:	20000028 	.word	0x20000028
 80001c8:	00000000 	.word	0x00000000
 80001cc:	080098f4 	.word	0x080098f4

080001d0 <frame_dummy>:
 80001d0:	b508      	push	{r3, lr}
 80001d2:	4b03      	ldr	r3, [pc, #12]	@ (80001e0 <frame_dummy+0x10>)
 80001d4:	b11b      	cbz	r3, 80001de <frame_dummy+0xe>
 80001d6:	4903      	ldr	r1, [pc, #12]	@ (80001e4 <frame_dummy+0x14>)
 80001d8:	4803      	ldr	r0, [pc, #12]	@ (80001e8 <frame_dummy+0x18>)
 80001da:	f3af 8000 	nop.w
 80001de:	bd08      	pop	{r3, pc}
 80001e0:	00000000 	.word	0x00000000
 80001e4:	2000002c 	.word	0x2000002c
 80001e8:	080098f4 	.word	0x080098f4

080001ec <strlen>:
 80001ec:	4603      	mov	r3, r0
 80001ee:	f813 2b01 	ldrb.w	r2, [r3], #1
 80001f2:	2a00      	cmp	r2, #0
 80001f4:	d1fb      	bne.n	80001ee <strlen+0x2>
 80001f6:	1a18      	subs	r0, r3, r0
 80001f8:	3801      	subs	r0, #1
 80001fa:	4770      	bx	lr

080001fc <__aeabi_uldivmod>:
 80001fc:	b953      	cbnz	r3, 8000214 <__aeabi_uldivmod+0x18>
 80001fe:	b94a      	cbnz	r2, 8000214 <__aeabi_uldivmod+0x18>
 8000200:	2900      	cmp	r1, #0
 8000202:	bf08      	it	eq
 8000204:	2800      	cmpeq	r0, #0
 8000206:	bf1c      	itt	ne
 8000208:	f04f 31ff 	movne.w	r1, #4294967295	@ 0xffffffff
 800020c:	f04f 30ff 	movne.w	r0, #4294967295	@ 0xffffffff
 8000210:	f000 b96a 	b.w	80004e8 <__aeabi_idiv0>
 8000214:	f1ad 0c08 	sub.w	ip, sp, #8
 8000218:	e96d ce04 	strd	ip, lr, [sp, #-16]!
 800021c:	f000 f806 	bl	800022c <__udivmoddi4>
 8000220:	f8dd e004 	ldr.w	lr, [sp, #4]
 8000224:	e9dd 2302 	ldrd	r2, r3, [sp, #8]
 8000228:	b004      	add	sp, #16
 800022a:	4770      	bx	lr

0800022c <__udivmoddi4>:
 800022c:	e92d 47f0 	stmdb	sp!, {r4, r5, r6, r7, r8, r9, sl, lr}
 8000230:	9d08      	ldr	r5, [sp, #32]
 8000232:	460c      	mov	r4, r1
 8000234:	2b00      	cmp	r3, #0
 8000236:	d14e      	bne.n	80002d6 <__udivmoddi4+0xaa>
 8000238:	4694      	mov	ip, r2
 800023a:	458c      	cmp	ip, r1
 800023c:	4686      	mov	lr, r0
 800023e:	fab2 f282 	clz	r2, r2
 8000242:	d962      	bls.n	800030a <__udivmoddi4+0xde>
 8000244:	b14a      	cbz	r2, 800025a <__udivmoddi4+0x2e>
 8000246:	f1c2 0320 	rsb	r3, r2, #32
 800024a:	4091      	lsls	r1, r2
 800024c:	fa20 f303 	lsr.w	r3, r0, r3
 8000250:	fa0c fc02 	lsl.w	ip, ip, r2
 8000254:	4319      	orrs	r1, r3
 8000256:	fa00 fe02 	lsl.w	lr, r0, r2
 800025a:	ea4f 471c 	mov.w	r7, ip, lsr #16
 800025e:	fa1f f68c 	uxth.w	r6, ip
 8000262:	fbb1 f4f7 	udiv	r4, r1, r7
 8000266:	ea4f 431e 	mov.w	r3, lr, lsr #16
 800026a:	fb07 1114 	mls	r1, r7, r4, r1
 800026e:	ea43 4301 	orr.w	r3, r3, r1, lsl #16
 8000272:	fb04 f106 	mul.w	r1, r4, r6
 8000276:	4299      	cmp	r1, r3
 8000278:	d90a      	bls.n	8000290 <__udivmoddi4+0x64>
 800027a:	eb1c 0303 	adds.w	r3, ip, r3
 800027e:	f104 30ff 	add.w	r0, r4, #4294967295	@ 0xffffffff
 8000282:	f080 8112 	bcs.w	80004aa <__udivmoddi4+0x27e>
 8000286:	4299      	cmp	r1, r3
 8000288:	f240 810f 	bls.w	80004aa <__udivmoddi4+0x27e>
 800028c:	3c02      	subs	r4, #2
 800028e:	4463      	add	r3, ip
 8000290:	1a59      	subs	r1, r3, r1
 8000292:	fa1f f38e 	uxth.w	r3, lr
 8000296:	fbb1 f0f7 	udiv	r0, r1, r7
 800029a:	fb07 1110 	mls	r1, r7, r0, r1
 800029e:	ea43 4301 	orr.w	r3, r3, r1, lsl #16
 80002a2:	fb00 f606 	mul.w	r6, r0, r6
 80002a6:	429e      	cmp	r6, r3
 80002a8:	d90a      	bls.n	80002c0 <__udivmoddi4+0x94>
 80002aa:	eb1c 0303 	adds.w	r3, ip, r3
 80002ae:	f100 31ff 	add.w	r1, r0, #4294967295	@ 0xffffffff
 80002b2:	f080 80fc 	bcs.w	80004ae <__udivmoddi4+0x282>
 80002b6:	429e      	cmp	r6, r3
 80002b8:	f240 80f9 	bls.w	80004ae <__udivmoddi4+0x282>
 80002bc:	4463      	add	r3, ip
 80002be:	3802      	subs	r0, #2
 80002c0:	1b9b      	subs	r3, r3, r6
 80002c2:	ea40 4004 	orr.w	r0, r0, r4, lsl #16
 80002c6:	2100      	movs	r1, #0
 80002c8:	b11d      	cbz	r5, 80002d2 <__udivmoddi4+0xa6>
 80002ca:	40d3      	lsrs	r3, r2
 80002cc:	2200      	movs	r2, #0
 80002ce:	e9c5 3200 	strd	r3, r2, [r5]
 80002d2:	e8bd 87f0 	ldmia.w	sp!, {r4, r5, r6, r7, r8, r9, sl, pc}
 80002d6:	428b      	cmp	r3, r1
 80002d8:	d905      	bls.n	80002e6 <__udivmoddi4+0xba>
 80002da:	b10d      	cbz	r5, 80002e0 <__udivmoddi4+0xb4>
 80002dc:	e9c5 0100 	strd	r0, r1, [r5]
 80002e0:	2100      	movs	r1, #0
 80002e2:	4608      	mov	r0, r1
 80002e4:	e7f5      	b.n	80002d2 <__udivmoddi4+0xa6>
 80002e6:	fab3 f183 	clz	r1, r3
 80002ea:	2900      	cmp	r1, #0
 80002ec:	d146      	bne.n	800037c <__udivmoddi4+0x150>
 80002ee:	42a3      	cmp	r3, r4
 80002f0:	d302      	bcc.n	80002f8 <__udivmoddi4+0xcc>
 80002f2:	4290      	cmp	r0, r2
 80002f4:	f0c0 80f0 	bcc.w	80004d8 <__udivmoddi4+0x2ac>
 80002f8:	1a86      	subs	r6, r0, r2
 80002fa:	eb64 0303 	sbc.w	r3, r4, r3
 80002fe:	2001      	movs	r0, #1
 8000300:	2d00      	cmp	r5, #0
 8000302:	d0e6      	beq.n	80002d2 <__udivmoddi4+0xa6>
 8000304:	e9c5 6300 	strd	r6, r3, [r5]
 8000308:	e7e3      	b.n	80002d2 <__udivmoddi4+0xa6>
 800030a:	2a00      	cmp	r2, #0
 800030c:	f040 8090 	bne.w	8000430 <__udivmoddi4+0x204>
 8000310:	eba1 040c 	sub.w	r4, r1, ip
 8000314:	ea4f 481c 	mov.w	r8, ip, lsr #16
 8000318:	fa1f f78c 	uxth.w	r7, ip
 800031c:	2101      	movs	r1, #1
 800031e:	fbb4 f6f8 	udiv	r6, r4, r8
 8000322:	ea4f 431e 	mov.w	r3, lr, lsr #16
 8000326:	fb08 4416 	mls	r4, r8, r6, r4
 800032a:	ea43 4304 	orr.w	r3, r3, r4, lsl #16
 800032e:	fb07 f006 	mul.w	r0, r7, r6
 8000332:	4298      	cmp	r0, r3
 8000334:	d908      	bls.n	8000348 <__udivmoddi4+0x11c>
 8000336:	eb1c 0303 	adds.w	r3, ip, r3
 800033a:	f106 34ff 	add.w	r4, r6, #4294967295	@ 0xffffffff
 800033e:	d202      	bcs.n	8000346 <__udivmoddi4+0x11a>
 8000340:	4298      	cmp	r0, r3
 8000342:	f200 80cd 	bhi.w	80004e0 <__udivmoddi4+0x2b4>
 8000346:	4626      	mov	r6, r4
 8000348:	1a1c      	subs	r4, r3, r0
 800034a:	fa1f f38e 	uxth.w	r3, lr
 800034e:	fbb4 f0f8 	udiv	r0, r4, r8
 8000352:	fb08 4410 	mls	r4, r8, r0, r4
 8000356:	ea43 4304 	orr.w	r3, r3, r4, lsl #16
 800035a:	fb00 f707 	mul.w	r7, r0, r7
 800035e:	429f      	cmp	r7, r3
 8000360:	d908      	bls.n	8000374 <__udivmoddi4+0x148>
 8000362:	eb1c 0303 	adds.w	r3, ip, r3
 8000366:	f100 34ff 	add.w	r4, r0, #4294967295	@ 0xffffffff
 800036a:	d202      	bcs.n	8000372 <__udivmoddi4+0x146>
 800036c:	429f      	cmp	r7, r3
 800036e:	f200 80b0 	bhi.w	80004d2 <__udivmoddi4+0x2a6>
 8000372:	4620      	mov	r0, r4
 8000374:	1bdb      	subs	r3, r3, r7
 8000376:	ea40 4006 	orr.w	r0, r0, r6, lsl #16
 800037a:	e7a5      	b.n	80002c8 <__udivmoddi4+0x9c>
 800037c:	f1c1 0620 	rsb	r6, r1, #32
 8000380:	408b      	lsls	r3, r1
 8000382:	fa22 f706 	lsr.w	r7, r2, r6
 8000386:	431f      	orrs	r7, r3
 8000388:	fa20 fc06 	lsr.w	ip, r0, r6
 800038c:	fa04 f301 	lsl.w	r3, r4, r1
 8000390:	ea43 030c 	orr.w	r3, r3, ip
 8000394:	40f4      	lsrs	r4, r6
 8000396:	fa00 f801 	lsl.w	r8, r0, r1
 800039a:	0c38      	lsrs	r0, r7, #16
 800039c:	ea4f 4913 	mov.w	r9, r3, lsr #16
 80003a0:	fbb4 fef0 	udiv	lr, r4, r0
 80003a4:	fa1f fc87 	uxth.w	ip, r7
 80003a8:	fb00 441e 	mls	r4, r0, lr, r4
 80003ac:	ea49 4404 	orr.w	r4, r9, r4, lsl #16
 80003b0:	fb0e f90c 	mul.w	r9, lr, ip
 80003b4:	45a1      	cmp	r9, r4
 80003b6:	fa02 f201 	lsl.w	r2, r2, r1
 80003ba:	d90a      	bls.n	80003d2 <__udivmoddi4+0x1a6>
 80003bc:	193c      	adds	r4, r7, r4
 80003be:	f10e 3aff 	add.w	sl, lr, #4294967295	@ 0xffffffff
 80003c2:	f080 8084 	bcs.w	80004ce <__udivmoddi4+0x2a2>
 80003c6:	45a1      	cmp	r9, r4
 80003c8:	f240 8081 	bls.w	80004ce <__udivmoddi4+0x2a2>
 80003cc:	f1ae 0e02 	sub.w	lr, lr, #2
 80003d0:	443c      	add	r4, r7
 80003d2:	eba4 0409 	sub.w	r4, r4, r9
 80003d6:	fa1f f983 	uxth.w	r9, r3
 80003da:	fbb4 f3f0 	udiv	r3, r4, r0
 80003de:	fb00 4413 	mls	r4, r0, r3, r4
 80003e2:	ea49 4404 	orr.w	r4, r9, r4, lsl #16
 80003e6:	fb03 fc0c 	mul.w	ip, r3, ip
 80003ea:	45a4      	cmp	ip, r4
 80003ec:	d907      	bls.n	80003fe <__udivmoddi4+0x1d2>
 80003ee:	193c      	adds	r4, r7, r4
 80003f0:	f103 30ff 	add.w	r0, r3, #4294967295	@ 0xffffffff
 80003f4:	d267      	bcs.n	80004c6 <__udivmoddi4+0x29a>
 80003f6:	45a4      	cmp	ip, r4
 80003f8:	d965      	bls.n	80004c6 <__udivmoddi4+0x29a>
 80003fa:	3b02      	subs	r3, #2
 80003fc:	443c      	add	r4, r7
 80003fe:	ea43 400e 	orr.w	r0, r3, lr, lsl #16
 8000402:	fba0 9302 	umull	r9, r3, r0, r2
 8000406:	eba4 040c 	sub.w	r4, r4, ip
 800040a:	429c      	cmp	r4, r3
 800040c:	46ce      	mov	lr, r9
 800040e:	469c      	mov	ip, r3
 8000410:	d351      	bcc.n	80004b6 <__udivmoddi4+0x28a>
 8000412:	d04e      	beq.n	80004b2 <__udivmoddi4+0x286>
 8000414:	b155      	cbz	r5, 800042c <__udivmoddi4+0x200>
 8000416:	ebb8 030e 	subs.w	r3, r8, lr
 800041a:	eb64 040c 	sbc.w	r4, r4, ip
 800041e:	fa04 f606 	lsl.w	r6, r4, r6
 8000422:	40cb      	lsrs	r3, r1
 8000424:	431e      	orrs	r6, r3
 8000426:	40cc      	lsrs	r4, r1
 8000428:	e9c5 6400 	strd	r6, r4, [r5]
 800042c:	2100      	movs	r1, #0
 800042e:	e750      	b.n	80002d2 <__udivmoddi4+0xa6>
 8000430:	f1c2 0320 	rsb	r3, r2, #32
 8000434:	fa20 f103 	lsr.w	r1, r0, r3
 8000438:	fa0c fc02 	lsl.w	ip, ip, r2
 800043c:	fa24 f303 	lsr.w	r3, r4, r3
 8000440:	4094      	lsls	r4, r2
 8000442:	430c      	orrs	r4, r1
 8000444:	ea4f 481c 	mov.w	r8, ip, lsr #16
 8000448:	fa00 fe02 	lsl.w	lr, r0, r2
 800044c:	fa1f f78c 	uxth.w	r7, ip
 8000450:	fbb3 f0f8 	udiv	r0, r3, r8
 8000454:	fb08 3110 	mls	r1, r8, r0, r3
 8000458:	0c23      	lsrs	r3, r4, #16
 800045a:	ea43 4301 	orr.w	r3, r3, r1, lsl #16
 800045e:	fb00 f107 	mul.w	r1, r0, r7
 8000462:	4299      	cmp	r1, r3
 8000464:	d908      	bls.n	8000478 <__udivmoddi4+0x24c>
 8000466:	eb1c 0303 	adds.w	r3, ip, r3
 800046a:	f100 36ff 	add.w	r6, r0, #4294967295	@ 0xffffffff
 800046e:	d22c      	bcs.n	80004ca <__udivmoddi4+0x29e>
 8000470:	4299      	cmp	r1, r3
 8000472:	d92a      	bls.n	80004ca <__udivmoddi4+0x29e>
 8000474:	3802      	subs	r0, #2
 8000476:	4463      	add	r3, ip
 8000478:	1a5b      	subs	r3, r3, r1
 800047a:	b2a4      	uxth	r4, r4
 800047c:	fbb3 f1f8 	udiv	r1, r3, r8
 8000480:	fb08 3311 	mls	r3, r8, r1, r3
 8000484:	ea44 4403 	orr.w	r4, r4, r3, lsl #16
 8000488:	fb01 f307 	mul.w	r3, r1, r7
 800048c:	42a3      	cmp	r3, r4
 800048e:	d908      	bls.n	80004a2 <__udivmoddi4+0x276>
 8000490:	eb1c 0404 	adds.w	r4, ip, r4
 8000494:	f101 36ff 	add.w	r6, r1, #4294967295	@ 0xffffffff
 8000498:	d213      	bcs.n	80004c2 <__udivmoddi4+0x296>
 800049a:	42a3      	cmp	r3, r4
 800049c:	d911      	bls.n	80004c2 <__udivmoddi4+0x296>
 800049e:	3902      	subs	r1, #2
 80004a0:	4464      	add	r4, ip
 80004a2:	1ae4      	subs	r4, r4, r3
 80004a4:	ea41 4100 	orr.w	r1, r1, r0, lsl #16
 80004a8:	e739      	b.n	800031e <__udivmoddi4+0xf2>
 80004aa:	4604      	mov	r4, r0
 80004ac:	e6f0      	b.n	8000290 <__udivmoddi4+0x64>
 80004ae:	4608      	mov	r0, r1
 80004b0:	e706      	b.n	80002c0 <__udivmoddi4+0x94>
 80004b2:	45c8      	cmp	r8, r9
 80004b4:	d2ae      	bcs.n	8000414 <__udivmoddi4+0x1e8>
 80004b6:	ebb9 0e02 	subs.w	lr, r9, r2
 80004ba:	eb63 0c07 	sbc.w	ip, r3, r7
 80004be:	3801      	subs	r0, #1
 80004c0:	e7a8      	b.n	8000414 <__udivmoddi4+0x1e8>
 80004c2:	4631      	mov	r1, r6
 80004c4:	e7ed      	b.n	80004a2 <__udivmoddi4+0x276>
 80004c6:	4603      	mov	r3, r0
 80004c8:	e799      	b.n	80003fe <__udivmoddi4+0x1d2>
 80004ca:	4630      	mov	r0, r6
 80004cc:	e7d4      	b.n	8000478 <__udivmoddi4+0x24c>
 80004ce:	46d6      	mov	lr, sl
 80004d0:	e77f      	b.n	80003d2 <__udivmoddi4+0x1a6>
 80004d2:	4463      	add	r3, ip
 80004d4:	3802      	subs	r0, #2
 80004d6:	e74d      	b.n	8000374 <__udivmoddi4+0x148>
 80004d8:	4606      	mov	r6, r0
 80004da:	4623      	mov	r3, r4
 80004dc:	4608      	mov	r0, r1
 80004de:	e70f      	b.n	8000300 <__udivmoddi4+0xd4>
 80004e0:	3e02      	subs	r6, #2
 80004e2:	4463      	add	r3, ip
 80004e4:	e730      	b.n	8000348 <__udivmoddi4+0x11c>
 80004e6:	bf00      	nop

080004e8 <__aeabi_idiv0>:
 80004e8:	4770      	bx	lr
 80004ea:	bf00      	nop

080004ec <init_accel>:
uint8_t OUT_Y_L 				= 0x34;
uint8_t OUT_Y_H 				= 0x35;
uint8_t OUT_Z_L 				= 0x36;
uint8_t OUT_Z_H 				= 0x37;

HAL_StatusTypeDef init_accel(I2C_HandleTypeDef* hi2c) {
 80004ec:	b580      	push	{r7, lr}
 80004ee:	b084      	sub	sp, #16
 80004f0:	af00      	add	r7, sp, #0
 80004f2:	6078      	str	r0, [r7, #4]
	HAL_StatusTypeDef ret;

	// Set standby mode
	ret = i2c_write_reg(hi2c, ADXL314_ADDR, &POWER_CTL_REG, 0x00);
 80004f4:	4b16      	ldr	r3, [pc, #88]	@ (8000550 <init_accel+0x64>)
 80004f6:	7819      	ldrb	r1, [r3, #0]
 80004f8:	2300      	movs	r3, #0
 80004fa:	4a16      	ldr	r2, [pc, #88]	@ (8000554 <init_accel+0x68>)
 80004fc:	6878      	ldr	r0, [r7, #4]
 80004fe:	f000 fc1e 	bl	8000d3e <i2c_write_reg>
 8000502:	4603      	mov	r3, r0
 8000504:	73fb      	strb	r3, [r7, #15]

	// Set to 200G right justified
	ret = i2c_write_reg(hi2c, ADXL314_ADDR, &DATA_FORMAT_REG, RIGHT_JUST);
 8000506:	4b12      	ldr	r3, [pc, #72]	@ (8000550 <init_accel+0x64>)
 8000508:	7819      	ldrb	r1, [r3, #0]
 800050a:	230b      	movs	r3, #11
 800050c:	4a12      	ldr	r2, [pc, #72]	@ (8000558 <init_accel+0x6c>)
 800050e:	6878      	ldr	r0, [r7, #4]
 8000510:	f000 fc15 	bl	8000d3e <i2c_write_reg>
 8000514:	4603      	mov	r3, r0
 8000516:	73fb      	strb	r3, [r7, #15]

	// Set to 200Hz ODR
	ret = i2c_write_reg(hi2c, ADXL314_ADDR, &BW_RATE_REG, MASK_200Hz);
 8000518:	4b0d      	ldr	r3, [pc, #52]	@ (8000550 <init_accel+0x64>)
 800051a:	7819      	ldrb	r1, [r3, #0]
 800051c:	230b      	movs	r3, #11
 800051e:	4a0f      	ldr	r2, [pc, #60]	@ (800055c <init_accel+0x70>)
 8000520:	6878      	ldr	r0, [r7, #4]
 8000522:	f000 fc0c 	bl	8000d3e <i2c_write_reg>
 8000526:	4603      	mov	r3, r0
 8000528:	73fb      	strb	r3, [r7, #15]

	// Write the offset registers
	ret = writeOffset(hi2c);
 800052a:	6878      	ldr	r0, [r7, #4]
 800052c:	f000 f856 	bl	80005dc <writeOffset>
 8000530:	4603      	mov	r3, r0
 8000532:	73fb      	strb	r3, [r7, #15]

	// Start measuring
	ret = i2c_write_reg(hi2c, ADXL314_ADDR, &POWER_CTL_REG, START_MEAS);
 8000534:	4b06      	ldr	r3, [pc, #24]	@ (8000550 <init_accel+0x64>)
 8000536:	7819      	ldrb	r1, [r3, #0]
 8000538:	2308      	movs	r3, #8
 800053a:	4a06      	ldr	r2, [pc, #24]	@ (8000554 <init_accel+0x68>)
 800053c:	6878      	ldr	r0, [r7, #4]
 800053e:	f000 fbfe 	bl	8000d3e <i2c_write_reg>
 8000542:	4603      	mov	r3, r0
 8000544:	73fb      	strb	r3, [r7, #15]

	return ret;
 8000546:	7bfb      	ldrb	r3, [r7, #15]
}
 8000548:	4618      	mov	r0, r3
 800054a:	3710      	adds	r7, #16
 800054c:	46bd      	mov	sp, r7
 800054e:	bd80      	pop	{r7, pc}
 8000550:	20000000 	.word	0x20000000
 8000554:	20000002 	.word	0x20000002
 8000558:	20000003 	.word	0x20000003
 800055c:	20000001 	.word	0x20000001

08000560 <readAccelerometer>:
void readAccelerometer(uint8_t values[6], I2C_HandleTypeDef* hi2c) {
 8000560:	b580      	push	{r7, lr}
 8000562:	b086      	sub	sp, #24
 8000564:	af02      	add	r7, sp, #8
 8000566:	6078      	str	r0, [r7, #4]
 8000568:	6039      	str	r1, [r7, #0]
	for (uint8_t i = 0; i < 6; i++) {
 800056a:	2300      	movs	r3, #0
 800056c:	73fb      	strb	r3, [r7, #15]
 800056e:	e007      	b.n	8000580 <readAccelerometer+0x20>
		values[i] = 0x00;
 8000570:	7bfb      	ldrb	r3, [r7, #15]
 8000572:	687a      	ldr	r2, [r7, #4]
 8000574:	4413      	add	r3, r2
 8000576:	2200      	movs	r2, #0
 8000578:	701a      	strb	r2, [r3, #0]
	for (uint8_t i = 0; i < 6; i++) {
 800057a:	7bfb      	ldrb	r3, [r7, #15]
 800057c:	3301      	adds	r3, #1
 800057e:	73fb      	strb	r3, [r7, #15]
 8000580:	7bfb      	ldrb	r3, [r7, #15]
 8000582:	2b05      	cmp	r3, #5
 8000584:	d9f4      	bls.n	8000570 <readAccelerometer+0x10>
	}

	i2c_burst_read(hi2c, ADXL314_ADDR, OUT_X_L, 6, values);
 8000586:	4b07      	ldr	r3, [pc, #28]	@ (80005a4 <readAccelerometer+0x44>)
 8000588:	7819      	ldrb	r1, [r3, #0]
 800058a:	4b07      	ldr	r3, [pc, #28]	@ (80005a8 <readAccelerometer+0x48>)
 800058c:	781a      	ldrb	r2, [r3, #0]
 800058e:	687b      	ldr	r3, [r7, #4]
 8000590:	9300      	str	r3, [sp, #0]
 8000592:	2306      	movs	r3, #6
 8000594:	6838      	ldr	r0, [r7, #0]
 8000596:	f000 fb9d 	bl	8000cd4 <i2c_burst_read>
}
 800059a:	bf00      	nop
 800059c:	3710      	adds	r7, #16
 800059e:	46bd      	mov	sp, r7
 80005a0:	bd80      	pop	{r7, pc}
 80005a2:	bf00      	nop
 80005a4:	20000000 	.word	0x20000000
 80005a8:	20000007 	.word	0x20000007

080005ac <readAccel_whoami>:

uint8_t readAccel_whoami(I2C_HandleTypeDef* hi2c) {
 80005ac:	b580      	push	{r7, lr}
 80005ae:	b084      	sub	sp, #16
 80005b0:	af00      	add	r7, sp, #0
 80005b2:	6078      	str	r0, [r7, #4]
	uint8_t data = 0x00;
 80005b4:	2300      	movs	r3, #0
 80005b6:	73fb      	strb	r3, [r7, #15]
	i2c_read_reg(hi2c, &data, ADXL314_ADDR, &WHOAMI);
 80005b8:	4b06      	ldr	r3, [pc, #24]	@ (80005d4 <readAccel_whoami+0x28>)
 80005ba:	781a      	ldrb	r2, [r3, #0]
 80005bc:	f107 010f 	add.w	r1, r7, #15
 80005c0:	4b05      	ldr	r3, [pc, #20]	@ (80005d8 <readAccel_whoami+0x2c>)
 80005c2:	6878      	ldr	r0, [r7, #4]
 80005c4:	f000 fb5d 	bl	8000c82 <i2c_read_reg>

	return data;
 80005c8:	7bfb      	ldrb	r3, [r7, #15]
}
 80005ca:	4618      	mov	r0, r3
 80005cc:	3710      	adds	r7, #16
 80005ce:	46bd      	mov	sp, r7
 80005d0:	bd80      	pop	{r7, pc}
 80005d2:	bf00      	nop
 80005d4:	20000000 	.word	0x20000000
 80005d8:	20000044 	.word	0x20000044

080005dc <writeOffset>:

HAL_StatusTypeDef writeOffset(I2C_HandleTypeDef* hi2c) {
 80005dc:	b580      	push	{r7, lr}
 80005de:	b084      	sub	sp, #16
 80005e0:	af00      	add	r7, sp, #0
 80005e2:	6078      	str	r0, [r7, #4]
	HAL_StatusTypeDef ret;

	ret = i2c_write_reg(hi2c, ADXL314_ADDR, &OFFSET_REG_X, OFFSETX);
 80005e4:	4b0f      	ldr	r3, [pc, #60]	@ (8000624 <writeOffset+0x48>)
 80005e6:	7819      	ldrb	r1, [r3, #0]
 80005e8:	2302      	movs	r3, #2
 80005ea:	4a0f      	ldr	r2, [pc, #60]	@ (8000628 <writeOffset+0x4c>)
 80005ec:	6878      	ldr	r0, [r7, #4]
 80005ee:	f000 fba6 	bl	8000d3e <i2c_write_reg>
 80005f2:	4603      	mov	r3, r0
 80005f4:	73fb      	strb	r3, [r7, #15]
	ret = i2c_write_reg(hi2c, ADXL314_ADDR, &OFFSET_REG_Y, OFFSETY);
 80005f6:	4b0b      	ldr	r3, [pc, #44]	@ (8000624 <writeOffset+0x48>)
 80005f8:	7819      	ldrb	r1, [r3, #0]
 80005fa:	2301      	movs	r3, #1
 80005fc:	4a0b      	ldr	r2, [pc, #44]	@ (800062c <writeOffset+0x50>)
 80005fe:	6878      	ldr	r0, [r7, #4]
 8000600:	f000 fb9d 	bl	8000d3e <i2c_write_reg>
 8000604:	4603      	mov	r3, r0
 8000606:	73fb      	strb	r3, [r7, #15]
	ret = i2c_write_reg(hi2c, ADXL314_ADDR, &OFFSET_REG_Z, OFFSETZ);
 8000608:	4b06      	ldr	r3, [pc, #24]	@ (8000624 <writeOffset+0x48>)
 800060a:	7819      	ldrb	r1, [r3, #0]
 800060c:	2301      	movs	r3, #1
 800060e:	4a08      	ldr	r2, [pc, #32]	@ (8000630 <writeOffset+0x54>)
 8000610:	6878      	ldr	r0, [r7, #4]
 8000612:	f000 fb94 	bl	8000d3e <i2c_write_reg>
 8000616:	4603      	mov	r3, r0
 8000618:	73fb      	strb	r3, [r7, #15]

	return ret;
 800061a:	7bfb      	ldrb	r3, [r7, #15]
}
 800061c:	4618      	mov	r0, r3
 800061e:	3710      	adds	r7, #16
 8000620:	46bd      	mov	sp, r7
 8000622:	bd80      	pop	{r7, pc}
 8000624:	20000000 	.word	0x20000000
 8000628:	20000004 	.word	0x20000004
 800062c:	20000005 	.word	0x20000005
 8000630:	20000006 	.word	0x20000006

08000634 <init_bme280>:
uint8_t OUT_HUM_H 			= 0xFD;
uint8_t CALIB_ST_1			= 0x88;
uint8_t CALIB_ST_2			= 0xE1;


HAL_StatusTypeDef init_bme280(I2C_HandleTypeDef* hi2c, uint8_t bme) {
 8000634:	b580      	push	{r7, lr}
 8000636:	b084      	sub	sp, #16
 8000638:	af00      	add	r7, sp, #0
 800063a:	6078      	str	r0, [r7, #4]
 800063c:	460b      	mov	r3, r1
 800063e:	70fb      	strb	r3, [r7, #3]
	uint8_t bme_addr = getBME280Config(bme).bme_addr;
 8000640:	78fb      	ldrb	r3, [r7, #3]
 8000642:	4618      	mov	r0, r3
 8000644:	f000 f8e0 	bl	8000808 <getBME280Config>
 8000648:	4603      	mov	r3, r0
 800064a:	73fb      	strb	r3, [r7, #15]
	HAL_StatusTypeDef ret;
	uint8_t control_reg = 0x00;
 800064c:	2300      	movs	r3, #0
 800064e:	737b      	strb	r3, [r7, #13]

	// Reset the sensor
	ret =  i2c_write_reg(hi2c, bme_addr, &RST_REG, RST);
 8000650:	7bf9      	ldrb	r1, [r7, #15]
 8000652:	23b6      	movs	r3, #182	@ 0xb6
 8000654:	4a19      	ldr	r2, [pc, #100]	@ (80006bc <init_bme280+0x88>)
 8000656:	6878      	ldr	r0, [r7, #4]
 8000658:	f000 fb71 	bl	8000d3e <i2c_write_reg>
 800065c:	4603      	mov	r3, r0
 800065e:	73bb      	strb	r3, [r7, #14]

	// Set humidity control register
	i2c_read_reg(hi2c, &control_reg, bme_addr, &CTRL_HUM_REG);
 8000660:	7bfa      	ldrb	r2, [r7, #15]
 8000662:	f107 010d 	add.w	r1, r7, #13
 8000666:	4b16      	ldr	r3, [pc, #88]	@ (80006c0 <init_bme280+0x8c>)
 8000668:	6878      	ldr	r0, [r7, #4]
 800066a:	f000 fb0a 	bl	8000c82 <i2c_read_reg>
	control_reg = control_reg & 0xF8;
 800066e:	7b7b      	ldrb	r3, [r7, #13]
 8000670:	f023 0307 	bic.w	r3, r3, #7
 8000674:	b2db      	uxtb	r3, r3
 8000676:	737b      	strb	r3, [r7, #13]
	control_reg = control_reg | CTRL_HUM_MSK;
 8000678:	7b7b      	ldrb	r3, [r7, #13]
 800067a:	f043 0301 	orr.w	r3, r3, #1
 800067e:	b2db      	uxtb	r3, r3
 8000680:	737b      	strb	r3, [r7, #13]
	ret = i2c_write_reg(hi2c, bme_addr, &CTRL_HUM_REG, control_reg);
 8000682:	7b7b      	ldrb	r3, [r7, #13]
 8000684:	7bf9      	ldrb	r1, [r7, #15]
 8000686:	4a0e      	ldr	r2, [pc, #56]	@ (80006c0 <init_bme280+0x8c>)
 8000688:	6878      	ldr	r0, [r7, #4]
 800068a:	f000 fb58 	bl	8000d3e <i2c_write_reg>
 800068e:	4603      	mov	r3, r0
 8000690:	73bb      	strb	r3, [r7, #14]

	// Set measure control register
	ret = i2c_write_reg(hi2c, bme_addr, &CTRL_MEAS_REG, CTRL_MEAS_MSK);
 8000692:	7bf9      	ldrb	r1, [r7, #15]
 8000694:	2327      	movs	r3, #39	@ 0x27
 8000696:	4a0b      	ldr	r2, [pc, #44]	@ (80006c4 <init_bme280+0x90>)
 8000698:	6878      	ldr	r0, [r7, #4]
 800069a:	f000 fb50 	bl	8000d3e <i2c_write_reg>
 800069e:	4603      	mov	r3, r0
 80006a0:	73bb      	strb	r3, [r7, #14]

	// Set the config register
	ret = i2c_write_reg(hi2c, bme_addr, &CONF_REG, CONF_MSK);
 80006a2:	7bf9      	ldrb	r1, [r7, #15]
 80006a4:	2300      	movs	r3, #0
 80006a6:	4a08      	ldr	r2, [pc, #32]	@ (80006c8 <init_bme280+0x94>)
 80006a8:	6878      	ldr	r0, [r7, #4]
 80006aa:	f000 fb48 	bl	8000d3e <i2c_write_reg>
 80006ae:	4603      	mov	r3, r0
 80006b0:	73bb      	strb	r3, [r7, #14]

	return ret;
 80006b2:	7bbb      	ldrb	r3, [r7, #14]
}
 80006b4:	4618      	mov	r0, r3
 80006b6:	3710      	adds	r7, #16
 80006b8:	46bd      	mov	sp, r7
 80006ba:	bd80      	pop	{r7, pc}
 80006bc:	20000009 	.word	0x20000009
 80006c0:	2000000a 	.word	0x2000000a
 80006c4:	2000000b 	.word	0x2000000b
 80006c8:	2000000c 	.word	0x2000000c

080006cc <readTempHumPres>:

void readTempHumPres(uint8_t values[6], I2C_HandleTypeDef* hi2c, uint8_t bme) {
 80006cc:	b580      	push	{r7, lr}
 80006ce:	b08a      	sub	sp, #40	@ 0x28
 80006d0:	af02      	add	r7, sp, #8
 80006d2:	60f8      	str	r0, [r7, #12]
 80006d4:	60b9      	str	r1, [r7, #8]
 80006d6:	4613      	mov	r3, r2
 80006d8:	71fb      	strb	r3, [r7, #7]
	uint8_t readings[8] = {0, 0, 0, 0, 0, 0, 0, 0};
 80006da:	4a27      	ldr	r2, [pc, #156]	@ (8000778 <readTempHumPres+0xac>)
 80006dc:	f107 0314 	add.w	r3, r7, #20
 80006e0:	e892 0003 	ldmia.w	r2, {r0, r1}
 80006e4:	e883 0003 	stmia.w	r3, {r0, r1}
	uint8_t bme_addr = getBME280Config(bme).bme_addr;
 80006e8:	79fb      	ldrb	r3, [r7, #7]
 80006ea:	4618      	mov	r0, r3
 80006ec:	f000 f88c 	bl	8000808 <getBME280Config>
 80006f0:	4603      	mov	r3, r0
 80006f2:	777b      	strb	r3, [r7, #29]
	i2c_burst_read(hi2c, bme_addr, OUT_PRESS_H, 8, readings);
 80006f4:	4b21      	ldr	r3, [pc, #132]	@ (800077c <readTempHumPres+0xb0>)
 80006f6:	781a      	ldrb	r2, [r3, #0]
 80006f8:	7f79      	ldrb	r1, [r7, #29]
 80006fa:	f107 0314 	add.w	r3, r7, #20
 80006fe:	9300      	str	r3, [sp, #0]
 8000700:	2308      	movs	r3, #8
 8000702:	68b8      	ldr	r0, [r7, #8]
 8000704:	f000 fae6 	bl	8000cd4 <i2c_burst_read>

	// Clear the 0 values on the xlsb registers
	uint8_t j = 0;
 8000708:	2300      	movs	r3, #0
 800070a:	77fb      	strb	r3, [r7, #31]
    for(uint8_t i = 0; i < 8; i++) {
 800070c:	2300      	movs	r3, #0
 800070e:	77bb      	strb	r3, [r7, #30]
 8000710:	e014      	b.n	800073c <readTempHumPres+0x70>
        if(i != 2 && i != 5) {  // if the index is not 2 or 5
 8000712:	7fbb      	ldrb	r3, [r7, #30]
 8000714:	2b02      	cmp	r3, #2
 8000716:	d00e      	beq.n	8000736 <readTempHumPres+0x6a>
 8000718:	7fbb      	ldrb	r3, [r7, #30]
 800071a:	2b05      	cmp	r3, #5
 800071c:	d00b      	beq.n	8000736 <readTempHumPres+0x6a>
        	values[j] = readings[i];
 800071e:	7fba      	ldrb	r2, [r7, #30]
 8000720:	7ffb      	ldrb	r3, [r7, #31]
 8000722:	68f9      	ldr	r1, [r7, #12]
 8000724:	440b      	add	r3, r1
 8000726:	3220      	adds	r2, #32
 8000728:	443a      	add	r2, r7
 800072a:	f812 2c0c 	ldrb.w	r2, [r2, #-12]
 800072e:	701a      	strb	r2, [r3, #0]
            j++;
 8000730:	7ffb      	ldrb	r3, [r7, #31]
 8000732:	3301      	adds	r3, #1
 8000734:	77fb      	strb	r3, [r7, #31]
    for(uint8_t i = 0; i < 8; i++) {
 8000736:	7fbb      	ldrb	r3, [r7, #30]
 8000738:	3301      	adds	r3, #1
 800073a:	77bb      	strb	r3, [r7, #30]
 800073c:	7fbb      	ldrb	r3, [r7, #30]
 800073e:	2b07      	cmp	r3, #7
 8000740:	d9e7      	bls.n	8000712 <readTempHumPres+0x46>
        }
    }

    // Swap elements to make the array little endian
    swap(&values[0], &values[1]);
 8000742:	68fb      	ldr	r3, [r7, #12]
 8000744:	3301      	adds	r3, #1
 8000746:	4619      	mov	r1, r3
 8000748:	68f8      	ldr	r0, [r7, #12]
 800074a:	f000 f874 	bl	8000836 <swap>
    swap(&values[2], &values[3]);
 800074e:	68fb      	ldr	r3, [r7, #12]
 8000750:	1c9a      	adds	r2, r3, #2
 8000752:	68fb      	ldr	r3, [r7, #12]
 8000754:	3303      	adds	r3, #3
 8000756:	4619      	mov	r1, r3
 8000758:	4610      	mov	r0, r2
 800075a:	f000 f86c 	bl	8000836 <swap>
    swap(&values[4], &values[5]);
 800075e:	68fb      	ldr	r3, [r7, #12]
 8000760:	1d1a      	adds	r2, r3, #4
 8000762:	68fb      	ldr	r3, [r7, #12]
 8000764:	3305      	adds	r3, #5
 8000766:	4619      	mov	r1, r3
 8000768:	4610      	mov	r0, r2
 800076a:	f000 f864 	bl	8000836 <swap>
}
 800076e:	bf00      	nop
 8000770:	3720      	adds	r7, #32
 8000772:	46bd      	mov	sp, r7
 8000774:	bd80      	pop	{r7, pc}
 8000776:	bf00      	nop
 8000778:	0800990c 	.word	0x0800990c
 800077c:	2000000d 	.word	0x2000000d

08000780 <readBME280_id_reg>:

uint8_t readBME280_id_reg(I2C_HandleTypeDef* hi2c, uint8_t bme) {
 8000780:	b580      	push	{r7, lr}
 8000782:	b084      	sub	sp, #16
 8000784:	af00      	add	r7, sp, #0
 8000786:	6078      	str	r0, [r7, #4]
 8000788:	460b      	mov	r3, r1
 800078a:	70fb      	strb	r3, [r7, #3]
	uint8_t bme_addr = getBME280Config(bme).bme_addr;
 800078c:	78fb      	ldrb	r3, [r7, #3]
 800078e:	4618      	mov	r0, r3
 8000790:	f000 f83a 	bl	8000808 <getBME280Config>
 8000794:	4603      	mov	r3, r0
 8000796:	73fb      	strb	r3, [r7, #15]
	uint8_t data = 0x00;
 8000798:	2300      	movs	r3, #0
 800079a:	73bb      	strb	r3, [r7, #14]
	i2c_read_reg(hi2c, &data, bme_addr, &ID_REG);
 800079c:	7bfa      	ldrb	r2, [r7, #15]
 800079e:	f107 010e 	add.w	r1, r7, #14
 80007a2:	4b04      	ldr	r3, [pc, #16]	@ (80007b4 <readBME280_id_reg+0x34>)
 80007a4:	6878      	ldr	r0, [r7, #4]
 80007a6:	f000 fa6c 	bl	8000c82 <i2c_read_reg>

	return data;
 80007aa:	7bbb      	ldrb	r3, [r7, #14]
}
 80007ac:	4618      	mov	r0, r3
 80007ae:	3710      	adds	r7, #16
 80007b0:	46bd      	mov	sp, r7
 80007b2:	bd80      	pop	{r7, pc}
 80007b4:	20000008 	.word	0x20000008

080007b8 <readBME280_calib>:

void readBME280_calib(I2C_HandleTypeDef* hi2c, uint8_t bme, uint8_t calibration1[CALIB_CNT_1], uint8_t calibration2[CALIB_CNT_2]) {
 80007b8:	b580      	push	{r7, lr}
 80007ba:	b088      	sub	sp, #32
 80007bc:	af02      	add	r7, sp, #8
 80007be:	60f8      	str	r0, [r7, #12]
 80007c0:	607a      	str	r2, [r7, #4]
 80007c2:	603b      	str	r3, [r7, #0]
 80007c4:	460b      	mov	r3, r1
 80007c6:	72fb      	strb	r3, [r7, #11]
	uint8_t bme_addr = getBME280Config(bme).bme_addr;
 80007c8:	7afb      	ldrb	r3, [r7, #11]
 80007ca:	4618      	mov	r0, r3
 80007cc:	f000 f81c 	bl	8000808 <getBME280Config>
 80007d0:	4603      	mov	r3, r0
 80007d2:	75fb      	strb	r3, [r7, #23]
	i2c_burst_read(hi2c, bme_addr, CALIB_ST_1, CALIB_CNT_1, calibration1);
 80007d4:	4b0a      	ldr	r3, [pc, #40]	@ (8000800 <readBME280_calib+0x48>)
 80007d6:	781a      	ldrb	r2, [r3, #0]
 80007d8:	7df9      	ldrb	r1, [r7, #23]
 80007da:	687b      	ldr	r3, [r7, #4]
 80007dc:	9300      	str	r3, [sp, #0]
 80007de:	2319      	movs	r3, #25
 80007e0:	68f8      	ldr	r0, [r7, #12]
 80007e2:	f000 fa77 	bl	8000cd4 <i2c_burst_read>
	i2c_burst_read(hi2c, bme_addr, CALIB_ST_2, CALIB_CNT_2, calibration2);
 80007e6:	4b07      	ldr	r3, [pc, #28]	@ (8000804 <readBME280_calib+0x4c>)
 80007e8:	781a      	ldrb	r2, [r3, #0]
 80007ea:	7df9      	ldrb	r1, [r7, #23]
 80007ec:	683b      	ldr	r3, [r7, #0]
 80007ee:	9300      	str	r3, [sp, #0]
 80007f0:	2307      	movs	r3, #7
 80007f2:	68f8      	ldr	r0, [r7, #12]
 80007f4:	f000 fa6e 	bl	8000cd4 <i2c_burst_read>
}
 80007f8:	bf00      	nop
 80007fa:	3718      	adds	r7, #24
 80007fc:	46bd      	mov	sp, r7
 80007fe:	bd80      	pop	{r7, pc}
 8000800:	2000000e 	.word	0x2000000e
 8000804:	2000000f 	.word	0x2000000f

08000808 <getBME280Config>:

BME280_Config getBME280Config(uint8_t bme) {
 8000808:	b480      	push	{r7}
 800080a:	b085      	sub	sp, #20
 800080c:	af00      	add	r7, sp, #0
 800080e:	4603      	mov	r3, r0
 8000810:	71fb      	strb	r3, [r7, #7]
	BME280_Config config;
	if (bme == 0) {
 8000812:	79fb      	ldrb	r3, [r7, #7]
 8000814:	2b00      	cmp	r3, #0
 8000816:	d102      	bne.n	800081e <getBME280Config+0x16>
		config.bme_addr = BME280_ADDR_0;
 8000818:	2376      	movs	r3, #118	@ 0x76
 800081a:	733b      	strb	r3, [r7, #12]
 800081c:	e004      	b.n	8000828 <getBME280Config+0x20>
	} else if (bme == 1) {
 800081e:	79fb      	ldrb	r3, [r7, #7]
 8000820:	2b01      	cmp	r3, #1
 8000822:	d101      	bne.n	8000828 <getBME280Config+0x20>
		config.bme_addr = BME280_ADDR_1;
 8000824:	2377      	movs	r3, #119	@ 0x77
 8000826:	733b      	strb	r3, [r7, #12]
	}
    return config;
 8000828:	7b3b      	ldrb	r3, [r7, #12]
}
 800082a:	4618      	mov	r0, r3
 800082c:	3714      	adds	r7, #20
 800082e:	46bd      	mov	sp, r7
 8000830:	f85d 7b04 	ldr.w	r7, [sp], #4
 8000834:	4770      	bx	lr

08000836 <swap>:

void swap(uint8_t* a, uint8_t* b) {
 8000836:	b480      	push	{r7}
 8000838:	b085      	sub	sp, #20
 800083a:	af00      	add	r7, sp, #0
 800083c:	6078      	str	r0, [r7, #4]
 800083e:	6039      	str	r1, [r7, #0]
    uint8_t temp = *a;
 8000840:	687b      	ldr	r3, [r7, #4]
 8000842:	781b      	ldrb	r3, [r3, #0]
 8000844:	73fb      	strb	r3, [r7, #15]
    *a = *b;
 8000846:	683b      	ldr	r3, [r7, #0]
 8000848:	781a      	ldrb	r2, [r3, #0]
 800084a:	687b      	ldr	r3, [r7, #4]
 800084c:	701a      	strb	r2, [r3, #0]
    *b = temp;
 800084e:	683b      	ldr	r3, [r7, #0]
 8000850:	7bfa      	ldrb	r2, [r7, #15]
 8000852:	701a      	strb	r2, [r3, #0]
}
 8000854:	bf00      	nop
 8000856:	3714      	adds	r7, #20
 8000858:	46bd      	mov	sp, r7
 800085a:	f85d 7b04 	ldr.w	r7, [sp], #4
 800085e:	4770      	bx	lr

08000860 <sendCAN_TxMessage>:
 */

#include "can_driver.h"


void sendCAN_TxMessage(CAN_HandleTypeDef *hcan, uint8_t dataSize, uint8_t TxData[dataSize], uint32_t *CAN_TxMailbox, uint16_t payload_id) {
 8000860:	b580      	push	{r7, lr}
 8000862:	b08a      	sub	sp, #40	@ 0x28
 8000864:	af00      	add	r7, sp, #0
 8000866:	60f8      	str	r0, [r7, #12]
 8000868:	607a      	str	r2, [r7, #4]
 800086a:	603b      	str	r3, [r7, #0]
 800086c:	460b      	mov	r3, r1
 800086e:	72fb      	strb	r3, [r7, #11]
	CAN_TxHeaderTypeDef TxHeader = configureTxHeader(payload_id, dataSize);
 8000870:	f107 0310 	add.w	r3, r7, #16
 8000874:	7afa      	ldrb	r2, [r7, #11]
 8000876:	8e39      	ldrh	r1, [r7, #48]	@ 0x30
 8000878:	4618      	mov	r0, r3
 800087a:	f000 f80b 	bl	8000894 <configureTxHeader>
	HAL_CAN_AddTxMessage(hcan, &TxHeader, TxData, CAN_TxMailbox);
 800087e:	f107 0110 	add.w	r1, r7, #16
 8000882:	683b      	ldr	r3, [r7, #0]
 8000884:	687a      	ldr	r2, [r7, #4]
 8000886:	68f8      	ldr	r0, [r7, #12]
 8000888:	f002 ff0c 	bl	80036a4 <HAL_CAN_AddTxMessage>
}
 800088c:	bf00      	nop
 800088e:	3728      	adds	r7, #40	@ 0x28
 8000890:	46bd      	mov	sp, r7
 8000892:	bd80      	pop	{r7, pc}

08000894 <configureTxHeader>:

CAN_TxHeaderTypeDef configureTxHeader(uint16_t payload_id, uint8_t dataSize) {
 8000894:	b4b0      	push	{r4, r5, r7}
 8000896:	b089      	sub	sp, #36	@ 0x24
 8000898:	af00      	add	r7, sp, #0
 800089a:	6078      	str	r0, [r7, #4]
 800089c:	460b      	mov	r3, r1
 800089e:	807b      	strh	r3, [r7, #2]
 80008a0:	4613      	mov	r3, r2
 80008a2:	707b      	strb	r3, [r7, #1]
	CAN_TxHeaderTypeDef TxHeader;
	TxHeader.DLC = dataSize;
 80008a4:	787b      	ldrb	r3, [r7, #1]
 80008a6:	61bb      	str	r3, [r7, #24]
	TxHeader.IDE = CAN_ID_STD;
 80008a8:	2300      	movs	r3, #0
 80008aa:	613b      	str	r3, [r7, #16]
	TxHeader.RTR = CAN_RTR_DATA;
 80008ac:	2300      	movs	r3, #0
 80008ae:	617b      	str	r3, [r7, #20]
	TxHeader.StdId = payload_id;
 80008b0:	887b      	ldrh	r3, [r7, #2]
 80008b2:	60bb      	str	r3, [r7, #8]
	TxHeader.TransmitGlobalTime = DISABLE;
 80008b4:	2300      	movs	r3, #0
 80008b6:	773b      	strb	r3, [r7, #28]
	return TxHeader;
 80008b8:	687b      	ldr	r3, [r7, #4]
 80008ba:	461d      	mov	r5, r3
 80008bc:	f107 0408 	add.w	r4, r7, #8
 80008c0:	cc0f      	ldmia	r4!, {r0, r1, r2, r3}
 80008c2:	c50f      	stmia	r5!, {r0, r1, r2, r3}
 80008c4:	e894 0003 	ldmia.w	r4, {r0, r1}
 80008c8:	e885 0003 	stmia.w	r5, {r0, r1}
}
 80008cc:	6878      	ldr	r0, [r7, #4]
 80008ce:	3724      	adds	r7, #36	@ 0x24
 80008d0:	46bd      	mov	sp, r7
 80008d2:	bcb0      	pop	{r4, r5, r7}
 80008d4:	4770      	bx	lr

080008d6 <check_busy>:
uint8_t FLASH_32K_ERS	= 0x52;			// Erase all memory within a 32K-byte block
uint8_t FLASH_ERASE		= 0xC7;			// Erase the entire chip
uint8_t RST_EN			= 0x66;			// Reset enable
uint8_t DEV_RST			= 0x99;			// Reset device

uint8_t check_busy(SPI_HandleTypeDef *hspi, GPIO_Config config, int timeout) {
 80008d6:	b580      	push	{r7, lr}
 80008d8:	b088      	sub	sp, #32
 80008da:	af00      	add	r7, sp, #0
 80008dc:	60f8      	str	r0, [r7, #12]
 80008de:	1d38      	adds	r0, r7, #4
 80008e0:	e880 0006 	stmia.w	r0, {r1, r2}
 80008e4:	603b      	str	r3, [r7, #0]
	uint8_t ret_val = 0x00;
 80008e6:	2300      	movs	r3, #0
 80008e8:	77fb      	strb	r3, [r7, #31]

    // Get the current time
	uint32_t startTick = HAL_GetTick();
 80008ea:	f002 fc8b 	bl	8003204 <HAL_GetTick>
 80008ee:	61b8      	str	r0, [r7, #24]

	// Read the status register to ensure no write is currently in progress
	uint8_t busy = 0x01;
 80008f0:	2301      	movs	r3, #1
 80008f2:	77bb      	strb	r3, [r7, #30]
	while(busy) {
 80008f4:	e015      	b.n	8000922 <check_busy+0x4c>
		// Check if there is a write in progress
		busy = (check_status_register(hspi, config) & 0x01);
 80008f6:	1d3b      	adds	r3, r7, #4
 80008f8:	e893 0006 	ldmia.w	r3, {r1, r2}
 80008fc:	68f8      	ldr	r0, [r7, #12]
 80008fe:	f000 f819 	bl	8000934 <check_status_register>
 8000902:	4603      	mov	r3, r0
 8000904:	f003 0301 	and.w	r3, r3, #1
 8000908:	77bb      	strb	r3, [r7, #30]

		uint32_t currTick = HAL_GetTick();
 800090a:	f002 fc7b 	bl	8003204 <HAL_GetTick>
 800090e:	6178      	str	r0, [r7, #20]

        // Check if the timeout has been reached
		if ((currTick - startTick) >= timeout) {
 8000910:	697a      	ldr	r2, [r7, #20]
 8000912:	69bb      	ldr	r3, [r7, #24]
 8000914:	1ad2      	subs	r2, r2, r3
 8000916:	683b      	ldr	r3, [r7, #0]
 8000918:	429a      	cmp	r2, r3
 800091a:	d302      	bcc.n	8000922 <check_busy+0x4c>
        	ret_val = 0x01;
 800091c:	2301      	movs	r3, #1
 800091e:	77fb      	strb	r3, [r7, #31]
            break;
 8000920:	e002      	b.n	8000928 <check_busy+0x52>
	while(busy) {
 8000922:	7fbb      	ldrb	r3, [r7, #30]
 8000924:	2b00      	cmp	r3, #0
 8000926:	d1e6      	bne.n	80008f6 <check_busy+0x20>
        }
	}

	return ret_val;
 8000928:	7ffb      	ldrb	r3, [r7, #31]
}
 800092a:	4618      	mov	r0, r3
 800092c:	3720      	adds	r7, #32
 800092e:	46bd      	mov	sp, r7
 8000930:	bd80      	pop	{r7, pc}
	...

08000934 <check_status_register>:

uint8_t check_status_register(SPI_HandleTypeDef *hspi, GPIO_Config config) {
 8000934:	b580      	push	{r7, lr}
 8000936:	b088      	sub	sp, #32
 8000938:	af02      	add	r7, sp, #8
 800093a:	60f8      	str	r0, [r7, #12]
 800093c:	1d3b      	adds	r3, r7, #4
 800093e:	e883 0006 	stmia.w	r3, {r1, r2}
	uint8_t status_reg = 0x00;
 8000942:	2300      	movs	r3, #0
 8000944:	75fb      	strb	r3, [r7, #23]
	spi_sendOp_readByte(&FLASH_READSR1, hspi, &status_reg, config.GPIOx, config.GPIO_Pin);
 8000946:	6879      	ldr	r1, [r7, #4]
 8000948:	893b      	ldrh	r3, [r7, #8]
 800094a:	f107 0217 	add.w	r2, r7, #23
 800094e:	9300      	str	r3, [sp, #0]
 8000950:	460b      	mov	r3, r1
 8000952:	68f9      	ldr	r1, [r7, #12]
 8000954:	4803      	ldr	r0, [pc, #12]	@ (8000964 <check_status_register+0x30>)
 8000956:	f001 fe77 	bl	8002648 <spi_sendOp_readByte>
	return status_reg;
 800095a:	7dfb      	ldrb	r3, [r7, #23]
}
 800095c:	4618      	mov	r0, r3
 800095e:	3718      	adds	r7, #24
 8000960:	46bd      	mov	sp, r7
 8000962:	bd80      	pop	{r7, pc}
 8000964:	20000012 	.word	0x20000012

08000968 <erase_chip_spi>:
 *      Author: aidencontini
 */

#include "data_output_spi.h"

HAL_StatusTypeDef erase_chip_spi(SPI_HandleTypeDef *hspi, GPIO_Config config) {
 8000968:	b580      	push	{r7, lr}
 800096a:	b084      	sub	sp, #16
 800096c:	af00      	add	r7, sp, #0
 800096e:	60f8      	str	r0, [r7, #12]
 8000970:	1d3b      	adds	r3, r7, #4
 8000972:	e883 0006 	stmia.w	r3, {r1, r2}
	check_busy(hspi, config, BSY_TIMEOUT_MS);
 8000976:	2305      	movs	r3, #5
 8000978:	1d3a      	adds	r2, r7, #4
 800097a:	ca06      	ldmia	r2, {r1, r2}
 800097c:	68f8      	ldr	r0, [r7, #12]
 800097e:	f7ff ffaa 	bl	80008d6 <check_busy>

	write_enable_spi(hspi, config);
 8000982:	1d3b      	adds	r3, r7, #4
 8000984:	e893 0006 	ldmia.w	r3, {r1, r2}
 8000988:	68f8      	ldr	r0, [r7, #12]
 800098a:	f000 f815 	bl	80009b8 <write_enable_spi>
	perform_operation(&FLASH_ERASE, hspi, config.GPIOx, config.GPIO_Pin);
 800098e:	687a      	ldr	r2, [r7, #4]
 8000990:	893b      	ldrh	r3, [r7, #8]
 8000992:	68f9      	ldr	r1, [r7, #12]
 8000994:	4806      	ldr	r0, [pc, #24]	@ (80009b0 <erase_chip_spi+0x48>)
 8000996:	f001 fe7d 	bl	8002694 <perform_operation>

	check_busy(hspi, config, CHIP_ERASE_TO);
 800099a:	4b06      	ldr	r3, [pc, #24]	@ (80009b4 <erase_chip_spi+0x4c>)
 800099c:	1d3a      	adds	r2, r7, #4
 800099e:	ca06      	ldmia	r2, {r1, r2}
 80009a0:	68f8      	ldr	r0, [r7, #12]
 80009a2:	f7ff ff98 	bl	80008d6 <check_busy>

	return HAL_OK;
 80009a6:	2300      	movs	r3, #0
}
 80009a8:	4618      	mov	r0, r3
 80009aa:	3710      	adds	r7, #16
 80009ac:	46bd      	mov	sp, r7
 80009ae:	bd80      	pop	{r7, pc}
 80009b0:	20000015 	.word	0x20000015
 80009b4:	00030d40 	.word	0x00030d40

080009b8 <write_enable_spi>:
	check_busy(hspi, config, BLK_ERS_32K_TO);

	return HAL_OK;
}

void write_enable_spi(SPI_HandleTypeDef *hspi, GPIO_Config config) {
 80009b8:	b580      	push	{r7, lr}
 80009ba:	b084      	sub	sp, #16
 80009bc:	af00      	add	r7, sp, #0
 80009be:	60f8      	str	r0, [r7, #12]
 80009c0:	1d3b      	adds	r3, r7, #4
 80009c2:	e883 0006 	stmia.w	r3, {r1, r2}
	perform_operation(&FLASH_WREN, hspi, config.GPIOx, config.GPIO_Pin);
 80009c6:	687a      	ldr	r2, [r7, #4]
 80009c8:	893b      	ldrh	r3, [r7, #8]
 80009ca:	68f9      	ldr	r1, [r7, #12]
 80009cc:	4803      	ldr	r0, [pc, #12]	@ (80009dc <write_enable_spi+0x24>)
 80009ce:	f001 fe61 	bl	8002694 <perform_operation>
}
 80009d2:	bf00      	nop
 80009d4:	3710      	adds	r7, #16
 80009d6:	46bd      	mov	sp, r7
 80009d8:	bd80      	pop	{r7, pc}
 80009da:	bf00      	nop
 80009dc:	20000010 	.word	0x20000010

080009e0 <software_reset>:

void write_disable_spi(SPI_HandleTypeDef *hspi, GPIO_Config config) {
	perform_operation(&FLASH_WRDIS, hspi, config.GPIOx, config.GPIO_Pin);
}

void software_reset(SPI_HandleTypeDef *hspi, GPIO_Config config) {
 80009e0:	b580      	push	{r7, lr}
 80009e2:	b084      	sub	sp, #16
 80009e4:	af00      	add	r7, sp, #0
 80009e6:	60f8      	str	r0, [r7, #12]
 80009e8:	1d3b      	adds	r3, r7, #4
 80009ea:	e883 0006 	stmia.w	r3, {r1, r2}

	check_busy(hspi, config, BSY_TIMEOUT_MS);
 80009ee:	2305      	movs	r3, #5
 80009f0:	1d3a      	adds	r2, r7, #4
 80009f2:	ca06      	ldmia	r2, {r1, r2}
 80009f4:	68f8      	ldr	r0, [r7, #12]
 80009f6:	f7ff ff6e 	bl	80008d6 <check_busy>

	perform_operation(&RST_EN, hspi, config.GPIOx, config.GPIO_Pin);
 80009fa:	687a      	ldr	r2, [r7, #4]
 80009fc:	893b      	ldrh	r3, [r7, #8]
 80009fe:	68f9      	ldr	r1, [r7, #12]
 8000a00:	4807      	ldr	r0, [pc, #28]	@ (8000a20 <software_reset+0x40>)
 8000a02:	f001 fe47 	bl	8002694 <perform_operation>
	perform_operation(&DEV_RST, hspi, config.GPIOx, config.GPIO_Pin);
 8000a06:	687a      	ldr	r2, [r7, #4]
 8000a08:	893b      	ldrh	r3, [r7, #8]
 8000a0a:	68f9      	ldr	r1, [r7, #12]
 8000a0c:	4805      	ldr	r0, [pc, #20]	@ (8000a24 <software_reset+0x44>)
 8000a0e:	f001 fe41 	bl	8002694 <perform_operation>

	HAL_Delay(5);
 8000a12:	2005      	movs	r0, #5
 8000a14:	f002 fc02 	bl	800321c <HAL_Delay>
}
 8000a18:	bf00      	nop
 8000a1a:	3710      	adds	r7, #16
 8000a1c:	46bd      	mov	sp, r7
 8000a1e:	bd80      	pop	{r7, pc}
 8000a20:	20000016 	.word	0x20000016
 8000a24:	20000017 	.word	0x20000017

08000a28 <write_data_spi_dma>:
	spi_write_data(&FLASH_PGWR, PAGE_SIZE, page, hspi, addr, config.GPIOx, config.GPIO_Pin);

	return 0;
}

uint8_t write_data_spi_dma(uint8_t page[PAGE_SIZE], SPI_HandleTypeDef *hspi, uint32_t addr, GPIO_Config config) {
 8000a28:	b082      	sub	sp, #8
 8000a2a:	b580      	push	{r7, lr}
 8000a2c:	b088      	sub	sp, #32
 8000a2e:	af04      	add	r7, sp, #16
 8000a30:	60f8      	str	r0, [r7, #12]
 8000a32:	60b9      	str	r1, [r7, #8]
 8000a34:	607a      	str	r2, [r7, #4]
 8000a36:	61fb      	str	r3, [r7, #28]
	check_busy(hspi, config, BSY_TIMEOUT_MS);
 8000a38:	2305      	movs	r3, #5
 8000a3a:	f107 021c 	add.w	r2, r7, #28
 8000a3e:	ca06      	ldmia	r2, {r1, r2}
 8000a40:	68b8      	ldr	r0, [r7, #8]
 8000a42:	f7ff ff48 	bl	80008d6 <check_busy>

	// Send the write enable signal
	write_enable_spi(hspi, config);
 8000a46:	f107 031c 	add.w	r3, r7, #28
 8000a4a:	e893 0006 	ldmia.w	r3, {r1, r2}
 8000a4e:	68b8      	ldr	r0, [r7, #8]
 8000a50:	f7ff ffb2 	bl	80009b8 <write_enable_spi>
	spi_write_data_dma(&FLASH_PGWR, PAGE_SIZE, page, hspi, addr, config.GPIOx, config.GPIO_Pin);
 8000a54:	69fb      	ldr	r3, [r7, #28]
 8000a56:	8c3a      	ldrh	r2, [r7, #32]
 8000a58:	9202      	str	r2, [sp, #8]
 8000a5a:	9301      	str	r3, [sp, #4]
 8000a5c:	687b      	ldr	r3, [r7, #4]
 8000a5e:	9300      	str	r3, [sp, #0]
 8000a60:	68bb      	ldr	r3, [r7, #8]
 8000a62:	68fa      	ldr	r2, [r7, #12]
 8000a64:	f44f 7180 	mov.w	r1, #256	@ 0x100
 8000a68:	4805      	ldr	r0, [pc, #20]	@ (8000a80 <write_data_spi_dma+0x58>)
 8000a6a:	f001 fe7a 	bl	8002762 <spi_write_data_dma>

	return 0;
 8000a6e:	2300      	movs	r3, #0
}
 8000a70:	4618      	mov	r0, r3
 8000a72:	3710      	adds	r7, #16
 8000a74:	46bd      	mov	sp, r7
 8000a76:	e8bd 4080 	ldmia.w	sp!, {r7, lr}
 8000a7a:	b002      	add	sp, #8
 8000a7c:	4770      	bx	lr
 8000a7e:	bf00      	nop
 8000a80:	20000011 	.word	0x20000011

08000a84 <find_next_blank_page>:
 *      Author: aidencontini
 */

#include "data_read_spi.h"

uint32_t find_next_blank_page(SPI_HandleTypeDef *hspi, GPIO_PinState *end_of_flash_ptr, GPIO_Config config) {
 8000a84:	e92d 43f0 	stmdb	sp!, {r4, r5, r6, r7, r8, r9, lr}
 8000a88:	b091      	sub	sp, #68	@ 0x44
 8000a8a:	af04      	add	r7, sp, #16
 8000a8c:	60f8      	str	r0, [r7, #12]
 8000a8e:	60b9      	str	r1, [r7, #8]
 8000a90:	4639      	mov	r1, r7
 8000a92:	e881 000c 	stmia.w	r1, {r2, r3}
 8000a96:	466b      	mov	r3, sp
 8000a98:	461e      	mov	r6, r3
	uint8_t firstBytes = 4;
 8000a9a:	2304      	movs	r3, #4
 8000a9c:	77fb      	strb	r3, [r7, #31]

	uint8_t page_start[firstBytes];
 8000a9e:	7ff9      	ldrb	r1, [r7, #31]
 8000aa0:	460b      	mov	r3, r1
 8000aa2:	3b01      	subs	r3, #1
 8000aa4:	61bb      	str	r3, [r7, #24]
 8000aa6:	b2cb      	uxtb	r3, r1
 8000aa8:	2200      	movs	r2, #0
 8000aaa:	4698      	mov	r8, r3
 8000aac:	4691      	mov	r9, r2
 8000aae:	f04f 0200 	mov.w	r2, #0
 8000ab2:	f04f 0300 	mov.w	r3, #0
 8000ab6:	ea4f 03c9 	mov.w	r3, r9, lsl #3
 8000aba:	ea43 7358 	orr.w	r3, r3, r8, lsr #29
 8000abe:	ea4f 02c8 	mov.w	r2, r8, lsl #3
 8000ac2:	b2cb      	uxtb	r3, r1
 8000ac4:	2200      	movs	r2, #0
 8000ac6:	461c      	mov	r4, r3
 8000ac8:	4615      	mov	r5, r2
 8000aca:	f04f 0200 	mov.w	r2, #0
 8000ace:	f04f 0300 	mov.w	r3, #0
 8000ad2:	00eb      	lsls	r3, r5, #3
 8000ad4:	ea43 7354 	orr.w	r3, r3, r4, lsr #29
 8000ad8:	00e2      	lsls	r2, r4, #3
 8000ada:	460b      	mov	r3, r1
 8000adc:	3307      	adds	r3, #7
 8000ade:	08db      	lsrs	r3, r3, #3
 8000ae0:	00db      	lsls	r3, r3, #3
 8000ae2:	ebad 0d03 	sub.w	sp, sp, r3
 8000ae6:	ab04      	add	r3, sp, #16
 8000ae8:	3300      	adds	r3, #0
 8000aea:	617b      	str	r3, [r7, #20]
	for (int i = 0; i < firstBytes; i++) {
 8000aec:	2300      	movs	r3, #0
 8000aee:	62fb      	str	r3, [r7, #44]	@ 0x2c
 8000af0:	e007      	b.n	8000b02 <find_next_blank_page+0x7e>
		page_start[i] = 0;
 8000af2:	697a      	ldr	r2, [r7, #20]
 8000af4:	6afb      	ldr	r3, [r7, #44]	@ 0x2c
 8000af6:	4413      	add	r3, r2
 8000af8:	2200      	movs	r2, #0
 8000afa:	701a      	strb	r2, [r3, #0]
	for (int i = 0; i < firstBytes; i++) {
 8000afc:	6afb      	ldr	r3, [r7, #44]	@ 0x2c
 8000afe:	3301      	adds	r3, #1
 8000b00:	62fb      	str	r3, [r7, #44]	@ 0x2c
 8000b02:	7ffb      	ldrb	r3, [r7, #31]
 8000b04:	6afa      	ldr	r2, [r7, #44]	@ 0x2c
 8000b06:	429a      	cmp	r2, r3
 8000b08:	dbf3      	blt.n	8000af2 <find_next_blank_page+0x6e>
	}

	uint32_t page_start_concat = (page_start[0] << 24) | (page_start[1] << 16) | (page_start[2] << 8) | page_start[3];
 8000b0a:	697b      	ldr	r3, [r7, #20]
 8000b0c:	781b      	ldrb	r3, [r3, #0]
 8000b0e:	061a      	lsls	r2, r3, #24
 8000b10:	697b      	ldr	r3, [r7, #20]
 8000b12:	785b      	ldrb	r3, [r3, #1]
 8000b14:	041b      	lsls	r3, r3, #16
 8000b16:	431a      	orrs	r2, r3
 8000b18:	697b      	ldr	r3, [r7, #20]
 8000b1a:	789b      	ldrb	r3, [r3, #2]
 8000b1c:	021b      	lsls	r3, r3, #8
 8000b1e:	4313      	orrs	r3, r2
 8000b20:	697a      	ldr	r2, [r7, #20]
 8000b22:	78d2      	ldrb	r2, [r2, #3]
 8000b24:	4313      	orrs	r3, r2
 8000b26:	62bb      	str	r3, [r7, #40]	@ 0x28
	uint32_t temp = 0;
 8000b28:	2300      	movs	r3, #0
 8000b2a:	627b      	str	r3, [r7, #36]	@ 0x24
	uint32_t page_address = temp;
 8000b2c:	6a7b      	ldr	r3, [r7, #36]	@ 0x24
 8000b2e:	623b      	str	r3, [r7, #32]

	while ((page_start_concat != 0xFFFFFFFF) || (temp == NUM_OF_PAGES)) {
 8000b30:	e027      	b.n	8000b82 <find_next_blank_page+0xfe>
		page_address = temp;
 8000b32:	6a7b      	ldr	r3, [r7, #36]	@ 0x24
 8000b34:	623b      	str	r3, [r7, #32]

		check_busy(hspi, config, BSY_TIMEOUT_MS);
 8000b36:	2305      	movs	r3, #5
 8000b38:	463a      	mov	r2, r7
 8000b3a:	ca06      	ldmia	r2, {r1, r2}
 8000b3c:	68f8      	ldr	r0, [r7, #12]
 8000b3e:	f7ff feca 	bl	80008d6 <check_busy>

		spi_read_data(&FLASH_READEN, firstBytes, page_start, hspi, page_address, config.GPIOx, config.GPIO_Pin);
 8000b42:	7ffb      	ldrb	r3, [r7, #31]
 8000b44:	b299      	uxth	r1, r3
 8000b46:	683b      	ldr	r3, [r7, #0]
 8000b48:	88ba      	ldrh	r2, [r7, #4]
 8000b4a:	9202      	str	r2, [sp, #8]
 8000b4c:	9301      	str	r3, [sp, #4]
 8000b4e:	6a3b      	ldr	r3, [r7, #32]
 8000b50:	9300      	str	r3, [sp, #0]
 8000b52:	68fb      	ldr	r3, [r7, #12]
 8000b54:	697a      	ldr	r2, [r7, #20]
 8000b56:	4818      	ldr	r0, [pc, #96]	@ (8000bb8 <find_next_blank_page+0x134>)
 8000b58:	f001 fdbc 	bl	80026d4 <spi_read_data>

		page_start_concat = (page_start[0] << 24) | (page_start[1] << 16) | (page_start[2] << 8) | page_start[3];
 8000b5c:	697b      	ldr	r3, [r7, #20]
 8000b5e:	781b      	ldrb	r3, [r3, #0]
 8000b60:	061a      	lsls	r2, r3, #24
 8000b62:	697b      	ldr	r3, [r7, #20]
 8000b64:	785b      	ldrb	r3, [r3, #1]
 8000b66:	041b      	lsls	r3, r3, #16
 8000b68:	431a      	orrs	r2, r3
 8000b6a:	697b      	ldr	r3, [r7, #20]
 8000b6c:	789b      	ldrb	r3, [r3, #2]
 8000b6e:	021b      	lsls	r3, r3, #8
 8000b70:	4313      	orrs	r3, r2
 8000b72:	697a      	ldr	r2, [r7, #20]
 8000b74:	78d2      	ldrb	r2, [r2, #3]
 8000b76:	4313      	orrs	r3, r2
 8000b78:	62bb      	str	r3, [r7, #40]	@ 0x28
		temp += PAGE_SIZE;
 8000b7a:	6a7b      	ldr	r3, [r7, #36]	@ 0x24
 8000b7c:	f503 7380 	add.w	r3, r3, #256	@ 0x100
 8000b80:	627b      	str	r3, [r7, #36]	@ 0x24
	while ((page_start_concat != 0xFFFFFFFF) || (temp == NUM_OF_PAGES)) {
 8000b82:	6abb      	ldr	r3, [r7, #40]	@ 0x28
 8000b84:	f1b3 3fff 	cmp.w	r3, #4294967295	@ 0xffffffff
 8000b88:	d1d3      	bne.n	8000b32 <find_next_blank_page+0xae>
 8000b8a:	6a7b      	ldr	r3, [r7, #36]	@ 0x24
 8000b8c:	f64f 72ff 	movw	r2, #65535	@ 0xffff
 8000b90:	4293      	cmp	r3, r2
 8000b92:	d0ce      	beq.n	8000b32 <find_next_blank_page+0xae>
	}

	if (page_address == (NUM_OF_PAGES * PAGE_SIZE)) {
 8000b94:	6a3b      	ldr	r3, [r7, #32]
 8000b96:	4a09      	ldr	r2, [pc, #36]	@ (8000bbc <find_next_blank_page+0x138>)
 8000b98:	4293      	cmp	r3, r2
 8000b9a:	d106      	bne.n	8000baa <find_next_blank_page+0x126>
		if(*end_of_flash_ptr == GPIO_PIN_RESET) {
 8000b9c:	68bb      	ldr	r3, [r7, #8]
 8000b9e:	781b      	ldrb	r3, [r3, #0]
 8000ba0:	2b00      	cmp	r3, #0
 8000ba2:	d102      	bne.n	8000baa <find_next_blank_page+0x126>
			*end_of_flash_ptr = GPIO_PIN_SET;
 8000ba4:	68bb      	ldr	r3, [r7, #8]
 8000ba6:	2201      	movs	r2, #1
 8000ba8:	701a      	strb	r2, [r3, #0]
		}
	}
	return page_address;
 8000baa:	6a3b      	ldr	r3, [r7, #32]
 8000bac:	46b5      	mov	sp, r6
}
 8000bae:	4618      	mov	r0, r3
 8000bb0:	3734      	adds	r7, #52	@ 0x34
 8000bb2:	46bd      	mov	sp, r7
 8000bb4:	e8bd 83f0 	ldmia.w	sp!, {r4, r5, r6, r7, r8, r9, pc}
 8000bb8:	20000013 	.word	0x20000013
 8000bbc:	00ffff00 	.word	0x00ffff00

08000bc0 <read_page_spi>:

void read_page_spi(uint8_t data_read[PAGE_SIZE], SPI_HandleTypeDef *hspi, uint32_t addr, GPIO_Config config) {
 8000bc0:	b082      	sub	sp, #8
 8000bc2:	b580      	push	{r7, lr}
 8000bc4:	b088      	sub	sp, #32
 8000bc6:	af04      	add	r7, sp, #16
 8000bc8:	60f8      	str	r0, [r7, #12]
 8000bca:	60b9      	str	r1, [r7, #8]
 8000bcc:	607a      	str	r2, [r7, #4]
 8000bce:	61fb      	str	r3, [r7, #28]

	// Read the status register to ensure no write is currently in progress
	check_busy(hspi, config, BSY_TIMEOUT_MS);
 8000bd0:	2305      	movs	r3, #5
 8000bd2:	f107 021c 	add.w	r2, r7, #28
 8000bd6:	ca06      	ldmia	r2, {r1, r2}
 8000bd8:	68b8      	ldr	r0, [r7, #8]
 8000bda:	f7ff fe7c 	bl	80008d6 <check_busy>
	spi_read_data(&FLASH_READEN, PAGE_SIZE, data_read, hspi, addr, config.GPIOx, config.GPIO_Pin);
 8000bde:	69fb      	ldr	r3, [r7, #28]
 8000be0:	8c3a      	ldrh	r2, [r7, #32]
 8000be2:	9202      	str	r2, [sp, #8]
 8000be4:	9301      	str	r3, [sp, #4]
 8000be6:	687b      	ldr	r3, [r7, #4]
 8000be8:	9300      	str	r3, [sp, #0]
 8000bea:	68bb      	ldr	r3, [r7, #8]
 8000bec:	68fa      	ldr	r2, [r7, #12]
 8000bee:	f44f 7180 	mov.w	r1, #256	@ 0x100
 8000bf2:	4805      	ldr	r0, [pc, #20]	@ (8000c08 <read_page_spi+0x48>)
 8000bf4:	f001 fd6e 	bl	80026d4 <spi_read_data>
}
 8000bf8:	bf00      	nop
 8000bfa:	3710      	adds	r7, #16
 8000bfc:	46bd      	mov	sp, r7
 8000bfe:	e8bd 4080 	ldmia.w	sp!, {r7, lr}
 8000c02:	b002      	add	sp, #8
 8000c04:	4770      	bx	lr
 8000c06:	bf00      	nop
 8000c08:	20000013 	.word	0x20000013

08000c0c <read_manufacturer_id>:

void read_manufacturer_id(uint8_t manu[2], SPI_HandleTypeDef *hspi, GPIO_Config config) {
 8000c0c:	b580      	push	{r7, lr}
 8000c0e:	b08a      	sub	sp, #40	@ 0x28
 8000c10:	af04      	add	r7, sp, #16
 8000c12:	60f8      	str	r0, [r7, #12]
 8000c14:	60b9      	str	r1, [r7, #8]
 8000c16:	4639      	mov	r1, r7
 8000c18:	e881 000c 	stmia.w	r1, {r2, r3}

	// Read the status register to ensure no write is currently in progress
	check_busy(hspi, config, BSY_TIMEOUT_MS);
 8000c1c:	2305      	movs	r3, #5
 8000c1e:	463a      	mov	r2, r7
 8000c20:	ca06      	ldmia	r2, {r1, r2}
 8000c22:	68b8      	ldr	r0, [r7, #8]
 8000c24:	f7ff fe57 	bl	80008d6 <check_busy>

	// Read the entire contents of a page starting from the given address
	uint8_t addr = 0x00;
 8000c28:	2300      	movs	r3, #0
 8000c2a:	75fb      	strb	r3, [r7, #23]
	spi_read_data(&FLASH_READ_MANU, 2, manu, hspi, addr, config.GPIOx, config.GPIO_Pin);
 8000c2c:	7dfb      	ldrb	r3, [r7, #23]
 8000c2e:	683a      	ldr	r2, [r7, #0]
 8000c30:	88b9      	ldrh	r1, [r7, #4]
 8000c32:	9102      	str	r1, [sp, #8]
 8000c34:	9201      	str	r2, [sp, #4]
 8000c36:	9300      	str	r3, [sp, #0]
 8000c38:	68bb      	ldr	r3, [r7, #8]
 8000c3a:	68fa      	ldr	r2, [r7, #12]
 8000c3c:	2102      	movs	r1, #2
 8000c3e:	4803      	ldr	r0, [pc, #12]	@ (8000c4c <read_manufacturer_id+0x40>)
 8000c40:	f001 fd48 	bl	80026d4 <spi_read_data>
}
 8000c44:	bf00      	nop
 8000c46:	3718      	adds	r7, #24
 8000c48:	46bd      	mov	sp, r7
 8000c4a:	bd80      	pop	{r7, pc}
 8000c4c:	20000014 	.word	0x20000014

08000c50 <create_GPIO_Config>:
 */

#include "gpio_struct.h"

// Function to initialize the GPIO_Config struct
GPIO_Config create_GPIO_Config(GPIO_TypeDef* GPIOx, uint16_t GPIO_Pin) {
 8000c50:	b480      	push	{r7}
 8000c52:	b087      	sub	sp, #28
 8000c54:	af00      	add	r7, sp, #0
 8000c56:	60f8      	str	r0, [r7, #12]
 8000c58:	60b9      	str	r1, [r7, #8]
 8000c5a:	4613      	mov	r3, r2
 8000c5c:	80fb      	strh	r3, [r7, #6]
    GPIO_Config new_config;
    new_config.GPIOx = GPIOx;
 8000c5e:	68bb      	ldr	r3, [r7, #8]
 8000c60:	613b      	str	r3, [r7, #16]
    new_config.GPIO_Pin = GPIO_Pin;
 8000c62:	88fb      	ldrh	r3, [r7, #6]
 8000c64:	82bb      	strh	r3, [r7, #20]
    return new_config;
 8000c66:	68fb      	ldr	r3, [r7, #12]
 8000c68:	461a      	mov	r2, r3
 8000c6a:	f107 0310 	add.w	r3, r7, #16
 8000c6e:	e893 0003 	ldmia.w	r3, {r0, r1}
 8000c72:	e882 0003 	stmia.w	r2, {r0, r1}
}
 8000c76:	68f8      	ldr	r0, [r7, #12]
 8000c78:	371c      	adds	r7, #28
 8000c7a:	46bd      	mov	sp, r7
 8000c7c:	f85d 7b04 	ldr.w	r7, [sp], #4
 8000c80:	4770      	bx	lr

08000c82 <i2c_read_reg>:
 *      Author: aidencontini
 */

#include "i2c_driver.h"

HAL_StatusTypeDef i2c_read_reg(I2C_HandleTypeDef* hi2c, uint8_t* data_ptr, uint8_t dev_addr, uint8_t* register_addr) {
 8000c82:	b580      	push	{r7, lr}
 8000c84:	b088      	sub	sp, #32
 8000c86:	af02      	add	r7, sp, #8
 8000c88:	60f8      	str	r0, [r7, #12]
 8000c8a:	60b9      	str	r1, [r7, #8]
 8000c8c:	603b      	str	r3, [r7, #0]
 8000c8e:	4613      	mov	r3, r2
 8000c90:	71fb      	strb	r3, [r7, #7]
	HAL_I2C_Master_Transmit(hi2c, (dev_addr << 1) & 0xFE, register_addr, 1, I2C_TIMEOUT_SML);
 8000c92:	79fb      	ldrb	r3, [r7, #7]
 8000c94:	005b      	lsls	r3, r3, #1
 8000c96:	b29b      	uxth	r3, r3
 8000c98:	b2db      	uxtb	r3, r3
 8000c9a:	b299      	uxth	r1, r3
 8000c9c:	2301      	movs	r3, #1
 8000c9e:	9300      	str	r3, [sp, #0]
 8000ca0:	2301      	movs	r3, #1
 8000ca2:	683a      	ldr	r2, [r7, #0]
 8000ca4:	68f8      	ldr	r0, [r7, #12]
 8000ca6:	f004 fae9 	bl	800527c <HAL_I2C_Master_Transmit>
	HAL_StatusTypeDef hal_status = HAL_I2C_Master_Receive(hi2c, (dev_addr << 1) | 0x01, data_ptr, 1, I2C_TIMEOUT_SML);
 8000caa:	79fb      	ldrb	r3, [r7, #7]
 8000cac:	005b      	lsls	r3, r3, #1
 8000cae:	b21b      	sxth	r3, r3
 8000cb0:	f043 0301 	orr.w	r3, r3, #1
 8000cb4:	b21b      	sxth	r3, r3
 8000cb6:	b299      	uxth	r1, r3
 8000cb8:	2301      	movs	r3, #1
 8000cba:	9300      	str	r3, [sp, #0]
 8000cbc:	2301      	movs	r3, #1
 8000cbe:	68ba      	ldr	r2, [r7, #8]
 8000cc0:	68f8      	ldr	r0, [r7, #12]
 8000cc2:	f004 fbd9 	bl	8005478 <HAL_I2C_Master_Receive>
 8000cc6:	4603      	mov	r3, r0
 8000cc8:	75fb      	strb	r3, [r7, #23]
	return hal_status;
 8000cca:	7dfb      	ldrb	r3, [r7, #23]
}
 8000ccc:	4618      	mov	r0, r3
 8000cce:	3718      	adds	r7, #24
 8000cd0:	46bd      	mov	sp, r7
 8000cd2:	bd80      	pop	{r7, pc}

08000cd4 <i2c_burst_read>:

HAL_StatusTypeDef i2c_burst_read(I2C_HandleTypeDef* hi2c, uint8_t dev_addr, uint8_t register_addr, uint8_t size, uint8_t data_buffer[size]) {
 8000cd4:	b580      	push	{r7, lr}
 8000cd6:	b086      	sub	sp, #24
 8000cd8:	af02      	add	r7, sp, #8
 8000cda:	6078      	str	r0, [r7, #4]
 8000cdc:	4608      	mov	r0, r1
 8000cde:	4611      	mov	r1, r2
 8000ce0:	461a      	mov	r2, r3
 8000ce2:	4603      	mov	r3, r0
 8000ce4:	70fb      	strb	r3, [r7, #3]
 8000ce6:	460b      	mov	r3, r1
 8000ce8:	70bb      	strb	r3, [r7, #2]
 8000cea:	4613      	mov	r3, r2
 8000cec:	707b      	strb	r3, [r7, #1]
	// In order to read multiple bytes, it is necessary to assert the most significant bit of the sub-address field.
	uint8_t addr = register_addr | 0x80;
 8000cee:	78bb      	ldrb	r3, [r7, #2]
 8000cf0:	f063 037f 	orn	r3, r3, #127	@ 0x7f
 8000cf4:	b2db      	uxtb	r3, r3
 8000cf6:	73bb      	strb	r3, [r7, #14]
	HAL_I2C_Master_Transmit(hi2c, (dev_addr << 1) & 0xFE, &addr, 1, I2C_TIMEOUT_SML);
 8000cf8:	78fb      	ldrb	r3, [r7, #3]
 8000cfa:	005b      	lsls	r3, r3, #1
 8000cfc:	b29b      	uxth	r3, r3
 8000cfe:	b2db      	uxtb	r3, r3
 8000d00:	b299      	uxth	r1, r3
 8000d02:	f107 020e 	add.w	r2, r7, #14
 8000d06:	2301      	movs	r3, #1
 8000d08:	9300      	str	r3, [sp, #0]
 8000d0a:	2301      	movs	r3, #1
 8000d0c:	6878      	ldr	r0, [r7, #4]
 8000d0e:	f004 fab5 	bl	800527c <HAL_I2C_Master_Transmit>
	HAL_StatusTypeDef hal_status =  HAL_I2C_Master_Receive(hi2c, (dev_addr << 1) | 0x01, data_buffer, size, I2C_TIMEOUT_LRG);
 8000d12:	78fb      	ldrb	r3, [r7, #3]
 8000d14:	005b      	lsls	r3, r3, #1
 8000d16:	b21b      	sxth	r3, r3
 8000d18:	f043 0301 	orr.w	r3, r3, #1
 8000d1c:	b21b      	sxth	r3, r3
 8000d1e:	b299      	uxth	r1, r3
 8000d20:	787b      	ldrb	r3, [r7, #1]
 8000d22:	b29b      	uxth	r3, r3
 8000d24:	220a      	movs	r2, #10
 8000d26:	9200      	str	r2, [sp, #0]
 8000d28:	69ba      	ldr	r2, [r7, #24]
 8000d2a:	6878      	ldr	r0, [r7, #4]
 8000d2c:	f004 fba4 	bl	8005478 <HAL_I2C_Master_Receive>
 8000d30:	4603      	mov	r3, r0
 8000d32:	73fb      	strb	r3, [r7, #15]
	return hal_status;
 8000d34:	7bfb      	ldrb	r3, [r7, #15]
}
 8000d36:	4618      	mov	r0, r3
 8000d38:	3710      	adds	r7, #16
 8000d3a:	46bd      	mov	sp, r7
 8000d3c:	bd80      	pop	{r7, pc}

08000d3e <i2c_write_reg>:
	HAL_I2C_Master_Transmit(hi2c, (dev_addr << 1) & 0xFE, &addr, 1, I2C_TIMEOUT_SML);
	HAL_StatusTypeDef hal_status =  HAL_I2C_Master_Receive(hi2c, (dev_addr << 1) | 0x01, data_buffer, size, I2C_TIMEOUT_LRG);
	return hal_status;
}

HAL_StatusTypeDef i2c_write_reg(I2C_HandleTypeDef* hi2c, uint8_t dev_addr, uint8_t* register_addr, uint8_t data) {
 8000d3e:	b580      	push	{r7, lr}
 8000d40:	b088      	sub	sp, #32
 8000d42:	af02      	add	r7, sp, #8
 8000d44:	60f8      	str	r0, [r7, #12]
 8000d46:	607a      	str	r2, [r7, #4]
 8000d48:	461a      	mov	r2, r3
 8000d4a:	460b      	mov	r3, r1
 8000d4c:	72fb      	strb	r3, [r7, #11]
 8000d4e:	4613      	mov	r3, r2
 8000d50:	72bb      	strb	r3, [r7, #10]
	uint8_t data_tx[2] = {*register_addr, data};
 8000d52:	687b      	ldr	r3, [r7, #4]
 8000d54:	781b      	ldrb	r3, [r3, #0]
 8000d56:	753b      	strb	r3, [r7, #20]
 8000d58:	7abb      	ldrb	r3, [r7, #10]
 8000d5a:	757b      	strb	r3, [r7, #21]
	HAL_StatusTypeDef hal_status = HAL_I2C_Master_Transmit(hi2c, (dev_addr << 1) & 0xFE, data_tx, 2, I2C_TIMEOUT_SML);
 8000d5c:	7afb      	ldrb	r3, [r7, #11]
 8000d5e:	005b      	lsls	r3, r3, #1
 8000d60:	b29b      	uxth	r3, r3
 8000d62:	b2db      	uxtb	r3, r3
 8000d64:	b299      	uxth	r1, r3
 8000d66:	f107 0214 	add.w	r2, r7, #20
 8000d6a:	2301      	movs	r3, #1
 8000d6c:	9300      	str	r3, [sp, #0]
 8000d6e:	2302      	movs	r3, #2
 8000d70:	68f8      	ldr	r0, [r7, #12]
 8000d72:	f004 fa83 	bl	800527c <HAL_I2C_Master_Transmit>
 8000d76:	4603      	mov	r3, r0
 8000d78:	75fb      	strb	r3, [r7, #23]
	return hal_status;
 8000d7a:	7dfb      	ldrb	r3, [r7, #23]
}
 8000d7c:	4618      	mov	r0, r3
 8000d7e:	3718      	adds	r7, #24
 8000d80:	46bd      	mov	sp, r7
 8000d82:	bd80      	pop	{r7, pc}

08000d84 <main>:
/**
  * @brief  The application entry point.
  * @retval int
  */
int main(void)
{
 8000d84:	b580      	push	{r7, lr}
 8000d86:	b084      	sub	sp, #16
 8000d88:	af02      	add	r7, sp, #8
  /* USER CODE END 1 */

  /* MCU Configuration--------------------------------------------------------*/

  /* Reset of all peripherals, Initializes the Flash interface and the Systick. */
  HAL_Init();
 8000d8a:	f002 f9d5 	bl	8003138 <HAL_Init>
  /* USER CODE BEGIN Init */

  /* USER CODE END Init */

  /* Configure the system clock */
  SystemClock_Config();
 8000d8e:	f000 f94b 	bl	8001028 <SystemClock_Config>
  /* USER CODE BEGIN SysInit */

  /* USER CODE END SysInit */

  /* Initialize all configured peripherals */
  MX_GPIO_Init();
 8000d92:	f000 fbcb 	bl	800152c <MX_GPIO_Init>
  MX_DMA_Init();
 8000d96:	f000 fb93 	bl	80014c0 <MX_DMA_Init>
  MX_I2C1_Init();
 8000d9a:	f000 f9e9 	bl	8001170 <MX_I2C1_Init>
  MX_RTC_Init();
 8000d9e:	f000 fa67 	bl	8001270 <MX_RTC_Init>
  MX_SPI1_Init();
 8000da2:	f000 fa8b 	bl	80012bc <MX_SPI1_Init>
  MX_TIM6_Init();
 8000da6:	f000 faf5 	bl	8001394 <MX_TIM6_Init>
  MX_USART2_UART_Init();
 8000daa:	f000 fb5f 	bl	800146c <MX_USART2_UART_Init>
  MX_SPI2_Init();
 8000dae:	f000 fabb 	bl	8001328 <MX_SPI2_Init>
  MX_CAN2_Init();
 8000db2:	f000 f9a5 	bl	8001100 <MX_CAN2_Init>
  MX_TIM7_Init();
 8000db6:	f000 fb23 	bl	8001400 <MX_TIM7_Init>
  MX_I2C3_Init();
 8000dba:	f000 fa19 	bl	80011f0 <MX_I2C3_Init>
  /* USER CODE BEGIN 2 */
  systemInit();
 8000dbe:	f000 fc9d 	bl	80016fc <systemInit>
    /* USER CODE END WHILE */

    /* USER CODE BEGIN 3 */

	  // If the flight jumper has been removed (GPIO rising edge), reset the time to 0.
	  if(rtc_reset == FLAG_SET) {
 8000dc2:	4b7f      	ldr	r3, [pc, #508]	@ (8000fc0 <main+0x23c>)
 8000dc4:	781b      	ldrb	r3, [r3, #0]
 8000dc6:	2b01      	cmp	r3, #1
 8000dc8:	d105      	bne.n	8000dd6 <main+0x52>
		  initialise_rtc_default(&hrtc);
 8000dca:	487e      	ldr	r0, [pc, #504]	@ (8000fc4 <main+0x240>)
 8000dcc:	f001 fbb2 	bl	8002534 <initialise_rtc_default>
		  rtc_reset = FLAG_RESET;
 8000dd0:	4b7b      	ldr	r3, [pc, #492]	@ (8000fc0 <main+0x23c>)
 8000dd2:	2200      	movs	r2, #0
 8000dd4:	701a      	strb	r2, [r3, #0]
	  }

	  // Handle UART receive flag
	  if(uart2_rec_flag == FLAG_SET) {
 8000dd6:	4b7c      	ldr	r3, [pc, #496]	@ (8000fc8 <main+0x244>)
 8000dd8:	781b      	ldrb	r3, [r3, #0]
 8000dda:	2b01      	cmp	r3, #1
 8000ddc:	d104      	bne.n	8000de8 <main+0x64>
		  handleUART();
 8000dde:	f000 fe9d 	bl	8001b1c <handleUART>
		  uart2_rec_flag = FLAG_RESET;
 8000de2:	4b79      	ldr	r3, [pc, #484]	@ (8000fc8 <main+0x244>)
 8000de4:	2200      	movs	r2, #0
 8000de6:	701a      	strb	r2, [r3, #0]
	  }

	  // Handle CAN receive flag
	  if(CAN_RX_Flag == FLAG_SET) {
 8000de8:	4b78      	ldr	r3, [pc, #480]	@ (8000fcc <main+0x248>)
 8000dea:	781b      	ldrb	r3, [r3, #0]
 8000dec:	2b01      	cmp	r3, #1
 8000dee:	d10f      	bne.n	8000e10 <main+0x8c>
		  if((CAN_First_Msg == FLAG_SET) && (flight_state == GROUND)) {
 8000df0:	4b77      	ldr	r3, [pc, #476]	@ (8000fd0 <main+0x24c>)
 8000df2:	781b      	ldrb	r3, [r3, #0]
 8000df4:	2b01      	cmp	r3, #1
 8000df6:	d106      	bne.n	8000e06 <main+0x82>
 8000df8:	4b76      	ldr	r3, [pc, #472]	@ (8000fd4 <main+0x250>)
 8000dfa:	781b      	ldrb	r3, [r3, #0]
 8000dfc:	2b00      	cmp	r3, #0
 8000dfe:	d102      	bne.n	8000e06 <main+0x82>
			  flight_state = LOADED;
 8000e00:	4b74      	ldr	r3, [pc, #464]	@ (8000fd4 <main+0x250>)
 8000e02:	2201      	movs	r2, #1
 8000e04:	701a      	strb	r2, [r3, #0]
		  }

		  handleCAN();
 8000e06:	f000 fe0b 	bl	8001a20 <handleCAN>
//		  HAL_GPIO_TogglePin(led_green.GPIOx, led_green.GPIO_Pin);
		  CAN_RX_Flag = FLAG_RESET;
 8000e0a:	4b70      	ldr	r3, [pc, #448]	@ (8000fcc <main+0x248>)
 8000e0c:	2200      	movs	r2, #0
 8000e0e:	701a      	strb	r2, [r3, #0]
	  }

	  if (tim7_overflow_flag == FLAG_SET) {
 8000e10:	4b71      	ldr	r3, [pc, #452]	@ (8000fd8 <main+0x254>)
 8000e12:	781b      	ldrb	r3, [r3, #0]
 8000e14:	2b01      	cmp	r3, #1
 8000e16:	d134      	bne.n	8000e82 <main+0xfe>
		  HAL_GPIO_TogglePin(led_orange.GPIOx, led_orange.GPIO_Pin);		// Toggle LED
 8000e18:	4b70      	ldr	r3, [pc, #448]	@ (8000fdc <main+0x258>)
 8000e1a:	681b      	ldr	r3, [r3, #0]
 8000e1c:	4a6f      	ldr	r2, [pc, #444]	@ (8000fdc <main+0x258>)
 8000e1e:	8892      	ldrh	r2, [r2, #4]
 8000e20:	4611      	mov	r1, r2
 8000e22:	4618      	mov	r0, r3
 8000e24:	f004 f883 	bl	8004f2e <HAL_GPIO_TogglePin>
		  sysStatus = systemStatus(&hspi1, &hspi2, i2c_bme280, i2c_accel);
 8000e28:	4b6d      	ldr	r3, [pc, #436]	@ (8000fe0 <main+0x25c>)
 8000e2a:	681a      	ldr	r2, [r3, #0]
 8000e2c:	4b6d      	ldr	r3, [pc, #436]	@ (8000fe4 <main+0x260>)
 8000e2e:	681b      	ldr	r3, [r3, #0]
 8000e30:	496d      	ldr	r1, [pc, #436]	@ (8000fe8 <main+0x264>)
 8000e32:	486e      	ldr	r0, [pc, #440]	@ (8000fec <main+0x268>)
 8000e34:	f001 f85a 	bl	8001eec <systemStatus>
 8000e38:	4603      	mov	r3, r0
 8000e3a:	461a      	mov	r2, r3
 8000e3c:	4b6c      	ldr	r3, [pc, #432]	@ (8000ff0 <main+0x26c>)
 8000e3e:	701a      	strb	r2, [r3, #0]

		  if(sysStatus == 0x00) {
 8000e40:	4b6b      	ldr	r3, [pc, #428]	@ (8000ff0 <main+0x26c>)
 8000e42:	781b      	ldrb	r3, [r3, #0]
 8000e44:	2b00      	cmp	r3, #0
 8000e46:	d10b      	bne.n	8000e60 <main+0xdc>
			  HAL_GPIO_WritePin(status_led.GPIOx, status_led.GPIO_Pin, GPIO_PIN_SET);	// Turn LED off
 8000e48:	4b6a      	ldr	r3, [pc, #424]	@ (8000ff4 <main+0x270>)
 8000e4a:	681b      	ldr	r3, [r3, #0]
 8000e4c:	4a69      	ldr	r2, [pc, #420]	@ (8000ff4 <main+0x270>)
 8000e4e:	8891      	ldrh	r1, [r2, #4]
 8000e50:	2201      	movs	r2, #1
 8000e52:	4618      	mov	r0, r3
 8000e54:	f004 f852 	bl	8004efc <HAL_GPIO_WritePin>
			  i2c_offline_cnt = FLAG_RESET;
 8000e58:	4b67      	ldr	r3, [pc, #412]	@ (8000ff8 <main+0x274>)
 8000e5a:	2200      	movs	r2, #0
 8000e5c:	701a      	strb	r2, [r3, #0]
 8000e5e:	e00d      	b.n	8000e7c <main+0xf8>
		  } else {
			  HAL_GPIO_WritePin(status_led.GPIOx, status_led.GPIO_Pin, GPIO_PIN_RESET);
 8000e60:	4b64      	ldr	r3, [pc, #400]	@ (8000ff4 <main+0x270>)
 8000e62:	681b      	ldr	r3, [r3, #0]
 8000e64:	4a63      	ldr	r2, [pc, #396]	@ (8000ff4 <main+0x270>)
 8000e66:	8891      	ldrh	r1, [r2, #4]
 8000e68:	2200      	movs	r2, #0
 8000e6a:	4618      	mov	r0, r3
 8000e6c:	f004 f846 	bl	8004efc <HAL_GPIO_WritePin>
			  i2c_offline_cnt = i2c_offline_cnt + 1;
 8000e70:	4b61      	ldr	r3, [pc, #388]	@ (8000ff8 <main+0x274>)
 8000e72:	781b      	ldrb	r3, [r3, #0]
 8000e74:	3301      	adds	r3, #1
 8000e76:	b2da      	uxtb	r2, r3
 8000e78:	4b5f      	ldr	r3, [pc, #380]	@ (8000ff8 <main+0x274>)
 8000e7a:	701a      	strb	r2, [r3, #0]
		  }

		  tim7_overflow_flag = FLAG_RESET;
 8000e7c:	4b56      	ldr	r3, [pc, #344]	@ (8000fd8 <main+0x254>)
 8000e7e:	2200      	movs	r2, #0
 8000e80:	701a      	strb	r2, [r3, #0]
	  }

	  // Attempt to reset the I2C bus to bring the sensors back online
	  if(i2c_offline_cnt > I2C_OFFLINE_THRESH) {
 8000e82:	4b5d      	ldr	r3, [pc, #372]	@ (8000ff8 <main+0x274>)
 8000e84:	781b      	ldrb	r3, [r3, #0]
 8000e86:	2b03      	cmp	r3, #3
 8000e88:	d922      	bls.n	8000ed0 <main+0x14c>
		  if((sysStatus & 0x04) == 0x04) {
 8000e8a:	4b59      	ldr	r3, [pc, #356]	@ (8000ff0 <main+0x26c>)
 8000e8c:	781b      	ldrb	r3, [r3, #0]
 8000e8e:	f003 0304 	and.w	r3, r3, #4
 8000e92:	2b00      	cmp	r3, #0
 8000e94:	d009      	beq.n	8000eaa <main+0x126>
			  HAL_I2C_DeInit(i2c_accel); // Deinitialize the I2C bus
 8000e96:	4b53      	ldr	r3, [pc, #332]	@ (8000fe4 <main+0x260>)
 8000e98:	681b      	ldr	r3, [r3, #0]
 8000e9a:	4618      	mov	r0, r3
 8000e9c:	f004 f9be 	bl	800521c <HAL_I2C_DeInit>
			  HAL_I2C_Init(i2c_accel);   // Reinitialize the I2C bus
 8000ea0:	4b50      	ldr	r3, [pc, #320]	@ (8000fe4 <main+0x260>)
 8000ea2:	681b      	ldr	r3, [r3, #0]
 8000ea4:	4618      	mov	r0, r3
 8000ea6:	f004 f875 	bl	8004f94 <HAL_I2C_Init>
		  }

		  if ((sysStatus >> 3) > 0) {
 8000eaa:	4b51      	ldr	r3, [pc, #324]	@ (8000ff0 <main+0x26c>)
 8000eac:	781b      	ldrb	r3, [r3, #0]
 8000eae:	08db      	lsrs	r3, r3, #3
 8000eb0:	b2db      	uxtb	r3, r3
 8000eb2:	2b00      	cmp	r3, #0
 8000eb4:	d009      	beq.n	8000eca <main+0x146>
			  HAL_I2C_DeInit(i2c_bme280); // Deinitialize the I2C bus
 8000eb6:	4b4a      	ldr	r3, [pc, #296]	@ (8000fe0 <main+0x25c>)
 8000eb8:	681b      	ldr	r3, [r3, #0]
 8000eba:	4618      	mov	r0, r3
 8000ebc:	f004 f9ae 	bl	800521c <HAL_I2C_DeInit>
			  HAL_I2C_Init(i2c_bme280);   // Reinitialize the I2C bus
 8000ec0:	4b47      	ldr	r3, [pc, #284]	@ (8000fe0 <main+0x25c>)
 8000ec2:	681b      	ldr	r3, [r3, #0]
 8000ec4:	4618      	mov	r0, r3
 8000ec6:	f004 f865 	bl	8004f94 <HAL_I2C_Init>
		  }

		  i2c_offline_cnt = 0;
 8000eca:	4b4b      	ldr	r3, [pc, #300]	@ (8000ff8 <main+0x274>)
 8000ecc:	2200      	movs	r2, #0
 8000ece:	701a      	strb	r2, [r3, #0]
	  }

	  // Handle Timer 6 overflow flag
	  if(tim6_overflow_flag == FLAG_SET) {
 8000ed0:	4b4a      	ldr	r3, [pc, #296]	@ (8000ffc <main+0x278>)
 8000ed2:	781b      	ldrb	r3, [r3, #0]
 8000ed4:	2b01      	cmp	r3, #1
 8000ed6:	d10a      	bne.n	8000eee <main+0x16a>
		  readAllSensors(i2c_accel, i2c_bme280, &hrtc);
 8000ed8:	4b42      	ldr	r3, [pc, #264]	@ (8000fe4 <main+0x260>)
 8000eda:	681b      	ldr	r3, [r3, #0]
 8000edc:	4a40      	ldr	r2, [pc, #256]	@ (8000fe0 <main+0x25c>)
 8000ede:	6811      	ldr	r1, [r2, #0]
 8000ee0:	4a38      	ldr	r2, [pc, #224]	@ (8000fc4 <main+0x240>)
 8000ee2:	4618      	mov	r0, r3
 8000ee4:	f001 fa42 	bl	800236c <readAllSensors>
		  tim6_overflow_flag = FLAG_RESET;
 8000ee8:	4b44      	ldr	r3, [pc, #272]	@ (8000ffc <main+0x278>)
 8000eea:	2200      	movs	r2, #0
 8000eec:	701a      	strb	r2, [r3, #0]
	  }

	  // Write data to flash when buffer is full
	  if(byte_tracker > (PAGE_SIZE - READ_SIZE)) {
 8000eee:	4b44      	ldr	r3, [pc, #272]	@ (8001000 <main+0x27c>)
 8000ef0:	881b      	ldrh	r3, [r3, #0]
 8000ef2:	2beb      	cmp	r3, #235	@ 0xeb
 8000ef4:	d953      	bls.n	8000f9e <main+0x21a>
		  GPIO_PinState flight_mode = HAL_GPIO_ReadPin(jmp_flight.GPIOx, jmp_flight.GPIO_Pin);
 8000ef6:	4b43      	ldr	r3, [pc, #268]	@ (8001004 <main+0x280>)
 8000ef8:	681b      	ldr	r3, [r3, #0]
 8000efa:	4a42      	ldr	r2, [pc, #264]	@ (8001004 <main+0x280>)
 8000efc:	8892      	ldrh	r2, [r2, #4]
 8000efe:	b292      	uxth	r2, r2
 8000f00:	4611      	mov	r1, r2
 8000f02:	4618      	mov	r0, r3
 8000f04:	f003 ffe2 	bl	8004ecc <HAL_GPIO_ReadPin>
 8000f08:	4603      	mov	r3, r0
 8000f0a:	71fb      	strb	r3, [r7, #7]
		  if((flight_mode & !(end_of_flash)) == FLAG_SET) {
 8000f0c:	79fb      	ldrb	r3, [r7, #7]
 8000f0e:	4a3e      	ldr	r2, [pc, #248]	@ (8001008 <main+0x284>)
 8000f10:	7812      	ldrb	r2, [r2, #0]
 8000f12:	2a00      	cmp	r2, #0
 8000f14:	bf0c      	ite	eq
 8000f16:	2201      	moveq	r2, #1
 8000f18:	2200      	movne	r2, #0
 8000f1a:	b2d2      	uxtb	r2, r2
 8000f1c:	4013      	ands	r3, r2
 8000f1e:	2b01      	cmp	r3, #1
 8000f20:	d133      	bne.n	8000f8a <main+0x206>
			  HAL_GPIO_WritePin(led_green.GPIOx, led_green.GPIO_Pin, GPIO_PIN_SET);		// Toggle LED when writing data
 8000f22:	4b3a      	ldr	r3, [pc, #232]	@ (800100c <main+0x288>)
 8000f24:	681b      	ldr	r3, [r3, #0]
 8000f26:	4a39      	ldr	r2, [pc, #228]	@ (800100c <main+0x288>)
 8000f28:	8891      	ldrh	r1, [r2, #4]
 8000f2a:	2201      	movs	r2, #1
 8000f2c:	4618      	mov	r0, r3
 8000f2e:	f003 ffe5 	bl	8004efc <HAL_GPIO_WritePin>

			  write_data_spi_dma(data_buffer_tx[buffer_tracker], &hspi1, next_blank_page, cs_spi1);
 8000f32:	4b37      	ldr	r3, [pc, #220]	@ (8001010 <main+0x28c>)
 8000f34:	781b      	ldrb	r3, [r3, #0]
 8000f36:	021b      	lsls	r3, r3, #8
 8000f38:	4a36      	ldr	r2, [pc, #216]	@ (8001014 <main+0x290>)
 8000f3a:	1898      	adds	r0, r3, r2
 8000f3c:	4b36      	ldr	r3, [pc, #216]	@ (8001018 <main+0x294>)
 8000f3e:	6819      	ldr	r1, [r3, #0]
 8000f40:	4b36      	ldr	r3, [pc, #216]	@ (800101c <main+0x298>)
 8000f42:	685a      	ldr	r2, [r3, #4]
 8000f44:	9200      	str	r2, [sp, #0]
 8000f46:	681b      	ldr	r3, [r3, #0]
 8000f48:	460a      	mov	r2, r1
 8000f4a:	4928      	ldr	r1, [pc, #160]	@ (8000fec <main+0x268>)
 8000f4c:	f7ff fd6c 	bl	8000a28 <write_data_spi_dma>
			  write_data_spi_dma(data_buffer_tx[buffer_tracker], &hspi2, next_blank_page, cs_spi2);
 8000f50:	4b2f      	ldr	r3, [pc, #188]	@ (8001010 <main+0x28c>)
 8000f52:	781b      	ldrb	r3, [r3, #0]
 8000f54:	021b      	lsls	r3, r3, #8
 8000f56:	4a2f      	ldr	r2, [pc, #188]	@ (8001014 <main+0x290>)
 8000f58:	1898      	adds	r0, r3, r2
 8000f5a:	4b2f      	ldr	r3, [pc, #188]	@ (8001018 <main+0x294>)
 8000f5c:	6819      	ldr	r1, [r3, #0]
 8000f5e:	4b30      	ldr	r3, [pc, #192]	@ (8001020 <main+0x29c>)
 8000f60:	685a      	ldr	r2, [r3, #4]
 8000f62:	9200      	str	r2, [sp, #0]
 8000f64:	681b      	ldr	r3, [r3, #0]
 8000f66:	460a      	mov	r2, r1
 8000f68:	491f      	ldr	r1, [pc, #124]	@ (8000fe8 <main+0x264>)
 8000f6a:	f7ff fd5d 	bl	8000a28 <write_data_spi_dma>
			  next_blank_page += PAGE_SIZE;
 8000f6e:	4b2a      	ldr	r3, [pc, #168]	@ (8001018 <main+0x294>)
 8000f70:	681b      	ldr	r3, [r3, #0]
 8000f72:	f503 7380 	add.w	r3, r3, #256	@ 0x100
 8000f76:	4a28      	ldr	r2, [pc, #160]	@ (8001018 <main+0x294>)
 8000f78:	6013      	str	r3, [r2, #0]

			  HAL_GPIO_WritePin(led_green.GPIOx, led_green.GPIO_Pin, GPIO_PIN_RESET);		// Toggle LED when writing data
 8000f7a:	4b24      	ldr	r3, [pc, #144]	@ (800100c <main+0x288>)
 8000f7c:	681b      	ldr	r3, [r3, #0]
 8000f7e:	4a23      	ldr	r2, [pc, #140]	@ (800100c <main+0x288>)
 8000f80:	8891      	ldrh	r1, [r2, #4]
 8000f82:	2200      	movs	r2, #0
 8000f84:	4618      	mov	r0, r3
 8000f86:	f003 ffb9 	bl	8004efc <HAL_GPIO_WritePin>
		  }

		// Reset the buffer trackers
		buffer_tracker = buffer_tracker ^ 0x01;
 8000f8a:	4b21      	ldr	r3, [pc, #132]	@ (8001010 <main+0x28c>)
 8000f8c:	781b      	ldrb	r3, [r3, #0]
 8000f8e:	f083 0301 	eor.w	r3, r3, #1
 8000f92:	b2da      	uxtb	r2, r3
 8000f94:	4b1e      	ldr	r3, [pc, #120]	@ (8001010 <main+0x28c>)
 8000f96:	701a      	strb	r2, [r3, #0]
		byte_tracker = 0;
 8000f98:	4b19      	ldr	r3, [pc, #100]	@ (8001000 <main+0x27c>)
 8000f9a:	2200      	movs	r2, #0
 8000f9c:	801a      	strh	r2, [r3, #0]
	  }

	  if(next_blank_page == (NUM_OF_PAGES*PAGE_SIZE)) {
 8000f9e:	4b1e      	ldr	r3, [pc, #120]	@ (8001018 <main+0x294>)
 8000fa0:	681b      	ldr	r3, [r3, #0]
 8000fa2:	4a20      	ldr	r2, [pc, #128]	@ (8001024 <main+0x2a0>)
 8000fa4:	4293      	cmp	r3, r2
 8000fa6:	f47f af0c 	bne.w	8000dc2 <main+0x3e>
		if(end_of_flash == GPIO_PIN_RESET) {
 8000faa:	4b17      	ldr	r3, [pc, #92]	@ (8001008 <main+0x284>)
 8000fac:	781b      	ldrb	r3, [r3, #0]
 8000fae:	2b00      	cmp	r3, #0
 8000fb0:	f47f af07 	bne.w	8000dc2 <main+0x3e>
		  // TODO - Error Handle if SPI1 not found
		  next_blank_page = find_next_blank_page_all();
 8000fb4:	f000 ff70 	bl	8001e98 <find_next_blank_page_all>
 8000fb8:	4603      	mov	r3, r0
 8000fba:	4a17      	ldr	r2, [pc, #92]	@ (8001018 <main+0x294>)
 8000fbc:	6013      	str	r3, [r2, #0]
	  if(rtc_reset == FLAG_SET) {
 8000fbe:	e700      	b.n	8000dc2 <main+0x3e>
 8000fc0:	2000061c 	.word	0x2000061c
 8000fc4:	20000118 	.word	0x20000118
 8000fc8:	2000038a 	.word	0x2000038a
 8000fcc:	200003b4 	.word	0x200003b4
 8000fd0:	200003b5 	.word	0x200003b5
 8000fd4:	2000061e 	.word	0x2000061e
 8000fd8:	200003b7 	.word	0x200003b7
 8000fdc:	200005dc 	.word	0x200005dc
 8000fe0:	20000384 	.word	0x20000384
 8000fe4:	20000380 	.word	0x20000380
 8000fe8:	20000190 	.word	0x20000190
 8000fec:	20000138 	.word	0x20000138
 8000ff0:	2000061d 	.word	0x2000061d
 8000ff4:	200005ec 	.word	0x200005ec
 8000ff8:	2000061f 	.word	0x2000061f
 8000ffc:	200003b6 	.word	0x200003b6
 8001000:	200005d8 	.word	0x200005d8
 8001004:	20000614 	.word	0x20000614
 8001008:	200005da 	.word	0x200005da
 800100c:	200005e4 	.word	0x200005e4
 8001010:	200005b8 	.word	0x200005b8
 8001014:	200003b8 	.word	0x200003b8
 8001018:	200005d4 	.word	0x200005d4
 800101c:	200005f4 	.word	0x200005f4
 8001020:	20000604 	.word	0x20000604
 8001024:	00ffff00 	.word	0x00ffff00

08001028 <SystemClock_Config>:
/**
  * @brief System Clock Configuration
  * @retval None
  */
void SystemClock_Config(void)
{
 8001028:	b580      	push	{r7, lr}
 800102a:	b094      	sub	sp, #80	@ 0x50
 800102c:	af00      	add	r7, sp, #0
  RCC_OscInitTypeDef RCC_OscInitStruct = {0};
 800102e:	f107 0320 	add.w	r3, r7, #32
 8001032:	2230      	movs	r2, #48	@ 0x30
 8001034:	2100      	movs	r1, #0
 8001036:	4618      	mov	r0, r3
 8001038:	f008 fc30 	bl	800989c <memset>
  RCC_ClkInitTypeDef RCC_ClkInitStruct = {0};
 800103c:	f107 030c 	add.w	r3, r7, #12
 8001040:	2200      	movs	r2, #0
 8001042:	601a      	str	r2, [r3, #0]
 8001044:	605a      	str	r2, [r3, #4]
 8001046:	609a      	str	r2, [r3, #8]
 8001048:	60da      	str	r2, [r3, #12]
 800104a:	611a      	str	r2, [r3, #16]

  /** Configure the main internal regulator output voltage
  */
  __HAL_RCC_PWR_CLK_ENABLE();
 800104c:	2300      	movs	r3, #0
 800104e:	60bb      	str	r3, [r7, #8]
 8001050:	4b29      	ldr	r3, [pc, #164]	@ (80010f8 <SystemClock_Config+0xd0>)
 8001052:	6c1b      	ldr	r3, [r3, #64]	@ 0x40
 8001054:	4a28      	ldr	r2, [pc, #160]	@ (80010f8 <SystemClock_Config+0xd0>)
 8001056:	f043 5380 	orr.w	r3, r3, #268435456	@ 0x10000000
 800105a:	6413      	str	r3, [r2, #64]	@ 0x40
 800105c:	4b26      	ldr	r3, [pc, #152]	@ (80010f8 <SystemClock_Config+0xd0>)
 800105e:	6c1b      	ldr	r3, [r3, #64]	@ 0x40
 8001060:	f003 5380 	and.w	r3, r3, #268435456	@ 0x10000000
 8001064:	60bb      	str	r3, [r7, #8]
 8001066:	68bb      	ldr	r3, [r7, #8]
  __HAL_PWR_VOLTAGESCALING_CONFIG(PWR_REGULATOR_VOLTAGE_SCALE1);
 8001068:	2300      	movs	r3, #0
 800106a:	607b      	str	r3, [r7, #4]
 800106c:	4b23      	ldr	r3, [pc, #140]	@ (80010fc <SystemClock_Config+0xd4>)
 800106e:	681b      	ldr	r3, [r3, #0]
 8001070:	4a22      	ldr	r2, [pc, #136]	@ (80010fc <SystemClock_Config+0xd4>)
 8001072:	f443 4340 	orr.w	r3, r3, #49152	@ 0xc000
 8001076:	6013      	str	r3, [r2, #0]
 8001078:	4b20      	ldr	r3, [pc, #128]	@ (80010fc <SystemClock_Config+0xd4>)
 800107a:	681b      	ldr	r3, [r3, #0]
 800107c:	f403 4340 	and.w	r3, r3, #49152	@ 0xc000
 8001080:	607b      	str	r3, [r7, #4]
 8001082:	687b      	ldr	r3, [r7, #4]

  /** Initializes the RCC Oscillators according to the specified parameters
  * in the RCC_OscInitTypeDef structure.
  */
  RCC_OscInitStruct.OscillatorType = RCC_OSCILLATORTYPE_HSI|RCC_OSCILLATORTYPE_LSI;
 8001084:	230a      	movs	r3, #10
 8001086:	623b      	str	r3, [r7, #32]
  RCC_OscInitStruct.HSIState = RCC_HSI_ON;
 8001088:	2301      	movs	r3, #1
 800108a:	62fb      	str	r3, [r7, #44]	@ 0x2c
  RCC_OscInitStruct.HSICalibrationValue = RCC_HSICALIBRATION_DEFAULT;
 800108c:	2310      	movs	r3, #16
 800108e:	633b      	str	r3, [r7, #48]	@ 0x30
  RCC_OscInitStruct.LSIState = RCC_LSI_ON;
 8001090:	2301      	movs	r3, #1
 8001092:	637b      	str	r3, [r7, #52]	@ 0x34
  RCC_OscInitStruct.PLL.PLLState = RCC_PLL_ON;
 8001094:	2302      	movs	r3, #2
 8001096:	63bb      	str	r3, [r7, #56]	@ 0x38
  RCC_OscInitStruct.PLL.PLLSource = RCC_PLLSOURCE_HSI;
 8001098:	2300      	movs	r3, #0
 800109a:	63fb      	str	r3, [r7, #60]	@ 0x3c
  RCC_OscInitStruct.PLL.PLLM = 16;
 800109c:	2310      	movs	r3, #16
 800109e:	643b      	str	r3, [r7, #64]	@ 0x40
  RCC_OscInitStruct.PLL.PLLN = 336;
 80010a0:	f44f 73a8 	mov.w	r3, #336	@ 0x150
 80010a4:	647b      	str	r3, [r7, #68]	@ 0x44
  RCC_OscInitStruct.PLL.PLLP = RCC_PLLP_DIV2;
 80010a6:	2302      	movs	r3, #2
 80010a8:	64bb      	str	r3, [r7, #72]	@ 0x48
  RCC_OscInitStruct.PLL.PLLQ = 4;
 80010aa:	2304      	movs	r3, #4
 80010ac:	64fb      	str	r3, [r7, #76]	@ 0x4c
  if (HAL_RCC_OscConfig(&RCC_OscInitStruct) != HAL_OK)
 80010ae:	f107 0320 	add.w	r3, r7, #32
 80010b2:	4618      	mov	r0, r3
 80010b4:	f005 f83c 	bl	8006130 <HAL_RCC_OscConfig>
 80010b8:	4603      	mov	r3, r0
 80010ba:	2b00      	cmp	r3, #0
 80010bc:	d001      	beq.n	80010c2 <SystemClock_Config+0x9a>
  {
    Error_Handler();
 80010be:	f000 ff0f 	bl	8001ee0 <Error_Handler>
  }

  /** Initializes the CPU, AHB and APB buses clocks
  */
  RCC_ClkInitStruct.ClockType = RCC_CLOCKTYPE_HCLK|RCC_CLOCKTYPE_SYSCLK
 80010c2:	230f      	movs	r3, #15
 80010c4:	60fb      	str	r3, [r7, #12]
                              |RCC_CLOCKTYPE_PCLK1|RCC_CLOCKTYPE_PCLK2;
  RCC_ClkInitStruct.SYSCLKSource = RCC_SYSCLKSOURCE_PLLCLK;
 80010c6:	2302      	movs	r3, #2
 80010c8:	613b      	str	r3, [r7, #16]
  RCC_ClkInitStruct.AHBCLKDivider = RCC_SYSCLK_DIV1;
 80010ca:	2300      	movs	r3, #0
 80010cc:	617b      	str	r3, [r7, #20]
  RCC_ClkInitStruct.APB1CLKDivider = RCC_HCLK_DIV4;
 80010ce:	f44f 53a0 	mov.w	r3, #5120	@ 0x1400
 80010d2:	61bb      	str	r3, [r7, #24]
  RCC_ClkInitStruct.APB2CLKDivider = RCC_HCLK_DIV2;
 80010d4:	f44f 5380 	mov.w	r3, #4096	@ 0x1000
 80010d8:	61fb      	str	r3, [r7, #28]

  if (HAL_RCC_ClockConfig(&RCC_ClkInitStruct, FLASH_LATENCY_5) != HAL_OK)
 80010da:	f107 030c 	add.w	r3, r7, #12
 80010de:	2105      	movs	r1, #5
 80010e0:	4618      	mov	r0, r3
 80010e2:	f005 fa9d 	bl	8006620 <HAL_RCC_ClockConfig>
 80010e6:	4603      	mov	r3, r0
 80010e8:	2b00      	cmp	r3, #0
 80010ea:	d001      	beq.n	80010f0 <SystemClock_Config+0xc8>
  {
    Error_Handler();
 80010ec:	f000 fef8 	bl	8001ee0 <Error_Handler>
  }
}
 80010f0:	bf00      	nop
 80010f2:	3750      	adds	r7, #80	@ 0x50
 80010f4:	46bd      	mov	sp, r7
 80010f6:	bd80      	pop	{r7, pc}
 80010f8:	40023800 	.word	0x40023800
 80010fc:	40007000 	.word	0x40007000

08001100 <MX_CAN2_Init>:
  * @brief CAN2 Initialization Function
  * @param None
  * @retval None
  */
static void MX_CAN2_Init(void)
{
 8001100:	b580      	push	{r7, lr}
 8001102:	af00      	add	r7, sp, #0
  /* USER CODE END CAN2_Init 0 */

  /* USER CODE BEGIN CAN2_Init 1 */

  /* USER CODE END CAN2_Init 1 */
  hcan2.Instance = CAN2;
 8001104:	4b18      	ldr	r3, [pc, #96]	@ (8001168 <MX_CAN2_Init+0x68>)
 8001106:	4a19      	ldr	r2, [pc, #100]	@ (800116c <MX_CAN2_Init+0x6c>)
 8001108:	601a      	str	r2, [r3, #0]
  hcan2.Init.Prescaler = 24;
 800110a:	4b17      	ldr	r3, [pc, #92]	@ (8001168 <MX_CAN2_Init+0x68>)
 800110c:	2218      	movs	r2, #24
 800110e:	605a      	str	r2, [r3, #4]
  hcan2.Init.Mode = CAN_MODE_NORMAL;
 8001110:	4b15      	ldr	r3, [pc, #84]	@ (8001168 <MX_CAN2_Init+0x68>)
 8001112:	2200      	movs	r2, #0
 8001114:	609a      	str	r2, [r3, #8]
  hcan2.Init.SyncJumpWidth = CAN_SJW_2TQ;
 8001116:	4b14      	ldr	r3, [pc, #80]	@ (8001168 <MX_CAN2_Init+0x68>)
 8001118:	f04f 7280 	mov.w	r2, #16777216	@ 0x1000000
 800111c:	60da      	str	r2, [r3, #12]
  hcan2.Init.TimeSeg1 = CAN_BS1_11TQ;
 800111e:	4b12      	ldr	r3, [pc, #72]	@ (8001168 <MX_CAN2_Init+0x68>)
 8001120:	f44f 2220 	mov.w	r2, #655360	@ 0xa0000
 8001124:	611a      	str	r2, [r3, #16]
  hcan2.Init.TimeSeg2 = CAN_BS2_2TQ;
 8001126:	4b10      	ldr	r3, [pc, #64]	@ (8001168 <MX_CAN2_Init+0x68>)
 8001128:	f44f 1280 	mov.w	r2, #1048576	@ 0x100000
 800112c:	615a      	str	r2, [r3, #20]
  hcan2.Init.TimeTriggeredMode = DISABLE;
 800112e:	4b0e      	ldr	r3, [pc, #56]	@ (8001168 <MX_CAN2_Init+0x68>)
 8001130:	2200      	movs	r2, #0
 8001132:	761a      	strb	r2, [r3, #24]
  hcan2.Init.AutoBusOff = DISABLE;
 8001134:	4b0c      	ldr	r3, [pc, #48]	@ (8001168 <MX_CAN2_Init+0x68>)
 8001136:	2200      	movs	r2, #0
 8001138:	765a      	strb	r2, [r3, #25]
  hcan2.Init.AutoWakeUp = DISABLE;
 800113a:	4b0b      	ldr	r3, [pc, #44]	@ (8001168 <MX_CAN2_Init+0x68>)
 800113c:	2200      	movs	r2, #0
 800113e:	769a      	strb	r2, [r3, #26]
  hcan2.Init.AutoRetransmission = DISABLE;
 8001140:	4b09      	ldr	r3, [pc, #36]	@ (8001168 <MX_CAN2_Init+0x68>)
 8001142:	2200      	movs	r2, #0
 8001144:	76da      	strb	r2, [r3, #27]
  hcan2.Init.ReceiveFifoLocked = DISABLE;
 8001146:	4b08      	ldr	r3, [pc, #32]	@ (8001168 <MX_CAN2_Init+0x68>)
 8001148:	2200      	movs	r2, #0
 800114a:	771a      	strb	r2, [r3, #28]
  hcan2.Init.TransmitFifoPriority = DISABLE;
 800114c:	4b06      	ldr	r3, [pc, #24]	@ (8001168 <MX_CAN2_Init+0x68>)
 800114e:	2200      	movs	r2, #0
 8001150:	775a      	strb	r2, [r3, #29]
  if (HAL_CAN_Init(&hcan2) != HAL_OK)
 8001152:	4805      	ldr	r0, [pc, #20]	@ (8001168 <MX_CAN2_Init+0x68>)
 8001154:	f002 f886 	bl	8003264 <HAL_CAN_Init>
 8001158:	4603      	mov	r3, r0
 800115a:	2b00      	cmp	r3, #0
 800115c:	d001      	beq.n	8001162 <MX_CAN2_Init+0x62>
  {
    Error_Handler();
 800115e:	f000 febf 	bl	8001ee0 <Error_Handler>
  }
  /* USER CODE BEGIN CAN2_Init 2 */

  /* USER CODE END CAN2_Init 2 */

}
 8001162:	bf00      	nop
 8001164:	bd80      	pop	{r7, pc}
 8001166:	bf00      	nop
 8001168:	20000048 	.word	0x20000048
 800116c:	40006800 	.word	0x40006800

08001170 <MX_I2C1_Init>:
  * @brief I2C1 Initialization Function
  * @param None
  * @retval None
  */
static void MX_I2C1_Init(void)
{
 8001170:	b580      	push	{r7, lr}
 8001172:	af00      	add	r7, sp, #0
  /* USER CODE END I2C1_Init 0 */

  /* USER CODE BEGIN I2C1_Init 1 */

  /* USER CODE END I2C1_Init 1 */
  hi2c1.Instance = I2C1;
 8001174:	4b1b      	ldr	r3, [pc, #108]	@ (80011e4 <MX_I2C1_Init+0x74>)
 8001176:	4a1c      	ldr	r2, [pc, #112]	@ (80011e8 <MX_I2C1_Init+0x78>)
 8001178:	601a      	str	r2, [r3, #0]
  hi2c1.Init.ClockSpeed = 100000;
 800117a:	4b1a      	ldr	r3, [pc, #104]	@ (80011e4 <MX_I2C1_Init+0x74>)
 800117c:	4a1b      	ldr	r2, [pc, #108]	@ (80011ec <MX_I2C1_Init+0x7c>)
 800117e:	605a      	str	r2, [r3, #4]
  hi2c1.Init.DutyCycle = I2C_DUTYCYCLE_2;
 8001180:	4b18      	ldr	r3, [pc, #96]	@ (80011e4 <MX_I2C1_Init+0x74>)
 8001182:	2200      	movs	r2, #0
 8001184:	609a      	str	r2, [r3, #8]
  hi2c1.Init.OwnAddress1 = 0;
 8001186:	4b17      	ldr	r3, [pc, #92]	@ (80011e4 <MX_I2C1_Init+0x74>)
 8001188:	2200      	movs	r2, #0
 800118a:	60da      	str	r2, [r3, #12]
  hi2c1.Init.AddressingMode = I2C_ADDRESSINGMODE_7BIT;
 800118c:	4b15      	ldr	r3, [pc, #84]	@ (80011e4 <MX_I2C1_Init+0x74>)
 800118e:	f44f 4280 	mov.w	r2, #16384	@ 0x4000
 8001192:	611a      	str	r2, [r3, #16]
  hi2c1.Init.DualAddressMode = I2C_DUALADDRESS_DISABLE;
 8001194:	4b13      	ldr	r3, [pc, #76]	@ (80011e4 <MX_I2C1_Init+0x74>)
 8001196:	2200      	movs	r2, #0
 8001198:	615a      	str	r2, [r3, #20]
  hi2c1.Init.OwnAddress2 = 0;
 800119a:	4b12      	ldr	r3, [pc, #72]	@ (80011e4 <MX_I2C1_Init+0x74>)
 800119c:	2200      	movs	r2, #0
 800119e:	619a      	str	r2, [r3, #24]
  hi2c1.Init.GeneralCallMode = I2C_GENERALCALL_DISABLE;
 80011a0:	4b10      	ldr	r3, [pc, #64]	@ (80011e4 <MX_I2C1_Init+0x74>)
 80011a2:	2200      	movs	r2, #0
 80011a4:	61da      	str	r2, [r3, #28]
  hi2c1.Init.NoStretchMode = I2C_NOSTRETCH_DISABLE;
 80011a6:	4b0f      	ldr	r3, [pc, #60]	@ (80011e4 <MX_I2C1_Init+0x74>)
 80011a8:	2200      	movs	r2, #0
 80011aa:	621a      	str	r2, [r3, #32]
  if (HAL_I2C_Init(&hi2c1) != HAL_OK)
 80011ac:	480d      	ldr	r0, [pc, #52]	@ (80011e4 <MX_I2C1_Init+0x74>)
 80011ae:	f003 fef1 	bl	8004f94 <HAL_I2C_Init>
 80011b2:	4603      	mov	r3, r0
 80011b4:	2b00      	cmp	r3, #0
 80011b6:	d001      	beq.n	80011bc <MX_I2C1_Init+0x4c>
  {
    Error_Handler();
 80011b8:	f000 fe92 	bl	8001ee0 <Error_Handler>
  }

  /** Configure Analogue filter
  */
  if (HAL_I2CEx_ConfigAnalogFilter(&hi2c1, I2C_ANALOGFILTER_ENABLE) != HAL_OK)
 80011bc:	2100      	movs	r1, #0
 80011be:	4809      	ldr	r0, [pc, #36]	@ (80011e4 <MX_I2C1_Init+0x74>)
 80011c0:	f004 ff12 	bl	8005fe8 <HAL_I2CEx_ConfigAnalogFilter>
 80011c4:	4603      	mov	r3, r0
 80011c6:	2b00      	cmp	r3, #0
 80011c8:	d001      	beq.n	80011ce <MX_I2C1_Init+0x5e>
  {
    Error_Handler();
 80011ca:	f000 fe89 	bl	8001ee0 <Error_Handler>
  }

  /** Configure Digital filter
  */
  if (HAL_I2CEx_ConfigDigitalFilter(&hi2c1, 0) != HAL_OK)
 80011ce:	2100      	movs	r1, #0
 80011d0:	4804      	ldr	r0, [pc, #16]	@ (80011e4 <MX_I2C1_Init+0x74>)
 80011d2:	f004 ff45 	bl	8006060 <HAL_I2CEx_ConfigDigitalFilter>
 80011d6:	4603      	mov	r3, r0
 80011d8:	2b00      	cmp	r3, #0
 80011da:	d001      	beq.n	80011e0 <MX_I2C1_Init+0x70>
  {
    Error_Handler();
 80011dc:	f000 fe80 	bl	8001ee0 <Error_Handler>
  }
  /* USER CODE BEGIN I2C1_Init 2 */

  /* USER CODE END I2C1_Init 2 */

}
 80011e0:	bf00      	nop
 80011e2:	bd80      	pop	{r7, pc}
 80011e4:	20000070 	.word	0x20000070
 80011e8:	40005400 	.word	0x40005400
 80011ec:	000186a0 	.word	0x000186a0

080011f0 <MX_I2C3_Init>:
  * @brief I2C3 Initialization Function
  * @param None
  * @retval None
  */
static void MX_I2C3_Init(void)
{
 80011f0:	b580      	push	{r7, lr}
 80011f2:	af00      	add	r7, sp, #0
  /* USER CODE END I2C3_Init 0 */

  /* USER CODE BEGIN I2C3_Init 1 */

  /* USER CODE END I2C3_Init 1 */
  hi2c3.Instance = I2C3;
 80011f4:	4b1b      	ldr	r3, [pc, #108]	@ (8001264 <MX_I2C3_Init+0x74>)
 80011f6:	4a1c      	ldr	r2, [pc, #112]	@ (8001268 <MX_I2C3_Init+0x78>)
 80011f8:	601a      	str	r2, [r3, #0]
  hi2c3.Init.ClockSpeed = 100000;
 80011fa:	4b1a      	ldr	r3, [pc, #104]	@ (8001264 <MX_I2C3_Init+0x74>)
 80011fc:	4a1b      	ldr	r2, [pc, #108]	@ (800126c <MX_I2C3_Init+0x7c>)
 80011fe:	605a      	str	r2, [r3, #4]
  hi2c3.Init.DutyCycle = I2C_DUTYCYCLE_2;
 8001200:	4b18      	ldr	r3, [pc, #96]	@ (8001264 <MX_I2C3_Init+0x74>)
 8001202:	2200      	movs	r2, #0
 8001204:	609a      	str	r2, [r3, #8]
  hi2c3.Init.OwnAddress1 = 0;
 8001206:	4b17      	ldr	r3, [pc, #92]	@ (8001264 <MX_I2C3_Init+0x74>)
 8001208:	2200      	movs	r2, #0
 800120a:	60da      	str	r2, [r3, #12]
  hi2c3.Init.AddressingMode = I2C_ADDRESSINGMODE_7BIT;
 800120c:	4b15      	ldr	r3, [pc, #84]	@ (8001264 <MX_I2C3_Init+0x74>)
 800120e:	f44f 4280 	mov.w	r2, #16384	@ 0x4000
 8001212:	611a      	str	r2, [r3, #16]
  hi2c3.Init.DualAddressMode = I2C_DUALADDRESS_DISABLE;
 8001214:	4b13      	ldr	r3, [pc, #76]	@ (8001264 <MX_I2C3_Init+0x74>)
 8001216:	2200      	movs	r2, #0
 8001218:	615a      	str	r2, [r3, #20]
  hi2c3.Init.OwnAddress2 = 0;
 800121a:	4b12      	ldr	r3, [pc, #72]	@ (8001264 <MX_I2C3_Init+0x74>)
 800121c:	2200      	movs	r2, #0
 800121e:	619a      	str	r2, [r3, #24]
  hi2c3.Init.GeneralCallMode = I2C_GENERALCALL_DISABLE;
 8001220:	4b10      	ldr	r3, [pc, #64]	@ (8001264 <MX_I2C3_Init+0x74>)
 8001222:	2200      	movs	r2, #0
 8001224:	61da      	str	r2, [r3, #28]
  hi2c3.Init.NoStretchMode = I2C_NOSTRETCH_DISABLE;
 8001226:	4b0f      	ldr	r3, [pc, #60]	@ (8001264 <MX_I2C3_Init+0x74>)
 8001228:	2200      	movs	r2, #0
 800122a:	621a      	str	r2, [r3, #32]
  if (HAL_I2C_Init(&hi2c3) != HAL_OK)
 800122c:	480d      	ldr	r0, [pc, #52]	@ (8001264 <MX_I2C3_Init+0x74>)
 800122e:	f003 feb1 	bl	8004f94 <HAL_I2C_Init>
 8001232:	4603      	mov	r3, r0
 8001234:	2b00      	cmp	r3, #0
 8001236:	d001      	beq.n	800123c <MX_I2C3_Init+0x4c>
  {
    Error_Handler();
 8001238:	f000 fe52 	bl	8001ee0 <Error_Handler>
  }

  /** Configure Analogue filter
  */
  if (HAL_I2CEx_ConfigAnalogFilter(&hi2c3, I2C_ANALOGFILTER_ENABLE) != HAL_OK)
 800123c:	2100      	movs	r1, #0
 800123e:	4809      	ldr	r0, [pc, #36]	@ (8001264 <MX_I2C3_Init+0x74>)
 8001240:	f004 fed2 	bl	8005fe8 <HAL_I2CEx_ConfigAnalogFilter>
 8001244:	4603      	mov	r3, r0
 8001246:	2b00      	cmp	r3, #0
 8001248:	d001      	beq.n	800124e <MX_I2C3_Init+0x5e>
  {
    Error_Handler();
 800124a:	f000 fe49 	bl	8001ee0 <Error_Handler>
  }

  /** Configure Digital filter
  */
  if (HAL_I2CEx_ConfigDigitalFilter(&hi2c3, 0) != HAL_OK)
 800124e:	2100      	movs	r1, #0
 8001250:	4804      	ldr	r0, [pc, #16]	@ (8001264 <MX_I2C3_Init+0x74>)
 8001252:	f004 ff05 	bl	8006060 <HAL_I2CEx_ConfigDigitalFilter>
 8001256:	4603      	mov	r3, r0
 8001258:	2b00      	cmp	r3, #0
 800125a:	d001      	beq.n	8001260 <MX_I2C3_Init+0x70>
  {
    Error_Handler();
 800125c:	f000 fe40 	bl	8001ee0 <Error_Handler>
  }
  /* USER CODE BEGIN I2C3_Init 2 */

  /* USER CODE END I2C3_Init 2 */

}
 8001260:	bf00      	nop
 8001262:	bd80      	pop	{r7, pc}
 8001264:	200000c4 	.word	0x200000c4
 8001268:	40005c00 	.word	0x40005c00
 800126c:	000186a0 	.word	0x000186a0

08001270 <MX_RTC_Init>:
  * @brief RTC Initialization Function
  * @param None
  * @retval None
  */
static void MX_RTC_Init(void)
{
 8001270:	b580      	push	{r7, lr}
 8001272:	af00      	add	r7, sp, #0

  /* USER CODE END RTC_Init 1 */

  /** Initialize RTC Only
  */
  hrtc.Instance = RTC;
 8001274:	4b0f      	ldr	r3, [pc, #60]	@ (80012b4 <MX_RTC_Init+0x44>)
 8001276:	4a10      	ldr	r2, [pc, #64]	@ (80012b8 <MX_RTC_Init+0x48>)
 8001278:	601a      	str	r2, [r3, #0]
  hrtc.Init.HourFormat = RTC_HOURFORMAT_24;
 800127a:	4b0e      	ldr	r3, [pc, #56]	@ (80012b4 <MX_RTC_Init+0x44>)
 800127c:	2200      	movs	r2, #0
 800127e:	605a      	str	r2, [r3, #4]
  hrtc.Init.AsynchPrediv = 127;
 8001280:	4b0c      	ldr	r3, [pc, #48]	@ (80012b4 <MX_RTC_Init+0x44>)
 8001282:	227f      	movs	r2, #127	@ 0x7f
 8001284:	609a      	str	r2, [r3, #8]
  hrtc.Init.SynchPrediv = 255;
 8001286:	4b0b      	ldr	r3, [pc, #44]	@ (80012b4 <MX_RTC_Init+0x44>)
 8001288:	22ff      	movs	r2, #255	@ 0xff
 800128a:	60da      	str	r2, [r3, #12]
  hrtc.Init.OutPut = RTC_OUTPUT_DISABLE;
 800128c:	4b09      	ldr	r3, [pc, #36]	@ (80012b4 <MX_RTC_Init+0x44>)
 800128e:	2200      	movs	r2, #0
 8001290:	611a      	str	r2, [r3, #16]
  hrtc.Init.OutPutPolarity = RTC_OUTPUT_POLARITY_HIGH;
 8001292:	4b08      	ldr	r3, [pc, #32]	@ (80012b4 <MX_RTC_Init+0x44>)
 8001294:	2200      	movs	r2, #0
 8001296:	615a      	str	r2, [r3, #20]
  hrtc.Init.OutPutType = RTC_OUTPUT_TYPE_OPENDRAIN;
 8001298:	4b06      	ldr	r3, [pc, #24]	@ (80012b4 <MX_RTC_Init+0x44>)
 800129a:	2200      	movs	r2, #0
 800129c:	619a      	str	r2, [r3, #24]
  if (HAL_RTC_Init(&hrtc) != HAL_OK)
 800129e:	4805      	ldr	r0, [pc, #20]	@ (80012b4 <MX_RTC_Init+0x44>)
 80012a0:	f005 fd5e 	bl	8006d60 <HAL_RTC_Init>
 80012a4:	4603      	mov	r3, r0
 80012a6:	2b00      	cmp	r3, #0
 80012a8:	d001      	beq.n	80012ae <MX_RTC_Init+0x3e>
  {
    Error_Handler();
 80012aa:	f000 fe19 	bl	8001ee0 <Error_Handler>
  }
  /* USER CODE BEGIN RTC_Init 2 */

  /* USER CODE END RTC_Init 2 */

}
 80012ae:	bf00      	nop
 80012b0:	bd80      	pop	{r7, pc}
 80012b2:	bf00      	nop
 80012b4:	20000118 	.word	0x20000118
 80012b8:	40002800 	.word	0x40002800

080012bc <MX_SPI1_Init>:
  * @brief SPI1 Initialization Function
  * @param None
  * @retval None
  */
static void MX_SPI1_Init(void)
{
 80012bc:	b580      	push	{r7, lr}
 80012be:	af00      	add	r7, sp, #0

  /* USER CODE BEGIN SPI1_Init 1 */

  /* USER CODE END SPI1_Init 1 */
  /* SPI1 parameter configuration*/
  hspi1.Instance = SPI1;
 80012c0:	4b17      	ldr	r3, [pc, #92]	@ (8001320 <MX_SPI1_Init+0x64>)
 80012c2:	4a18      	ldr	r2, [pc, #96]	@ (8001324 <MX_SPI1_Init+0x68>)
 80012c4:	601a      	str	r2, [r3, #0]
  hspi1.Init.Mode = SPI_MODE_MASTER;
 80012c6:	4b16      	ldr	r3, [pc, #88]	@ (8001320 <MX_SPI1_Init+0x64>)
 80012c8:	f44f 7282 	mov.w	r2, #260	@ 0x104
 80012cc:	605a      	str	r2, [r3, #4]
  hspi1.Init.Direction = SPI_DIRECTION_2LINES;
 80012ce:	4b14      	ldr	r3, [pc, #80]	@ (8001320 <MX_SPI1_Init+0x64>)
 80012d0:	2200      	movs	r2, #0
 80012d2:	609a      	str	r2, [r3, #8]
  hspi1.Init.DataSize = SPI_DATASIZE_8BIT;
 80012d4:	4b12      	ldr	r3, [pc, #72]	@ (8001320 <MX_SPI1_Init+0x64>)
 80012d6:	2200      	movs	r2, #0
 80012d8:	60da      	str	r2, [r3, #12]
  hspi1.Init.CLKPolarity = SPI_POLARITY_LOW;
 80012da:	4b11      	ldr	r3, [pc, #68]	@ (8001320 <MX_SPI1_Init+0x64>)
 80012dc:	2200      	movs	r2, #0
 80012de:	611a      	str	r2, [r3, #16]
  hspi1.Init.CLKPhase = SPI_PHASE_1EDGE;
 80012e0:	4b0f      	ldr	r3, [pc, #60]	@ (8001320 <MX_SPI1_Init+0x64>)
 80012e2:	2200      	movs	r2, #0
 80012e4:	615a      	str	r2, [r3, #20]
  hspi1.Init.NSS = SPI_NSS_SOFT;
 80012e6:	4b0e      	ldr	r3, [pc, #56]	@ (8001320 <MX_SPI1_Init+0x64>)
 80012e8:	f44f 7200 	mov.w	r2, #512	@ 0x200
 80012ec:	619a      	str	r2, [r3, #24]
  hspi1.Init.BaudRatePrescaler = SPI_BAUDRATEPRESCALER_4;
 80012ee:	4b0c      	ldr	r3, [pc, #48]	@ (8001320 <MX_SPI1_Init+0x64>)
 80012f0:	2208      	movs	r2, #8
 80012f2:	61da      	str	r2, [r3, #28]
  hspi1.Init.FirstBit = SPI_FIRSTBIT_MSB;
 80012f4:	4b0a      	ldr	r3, [pc, #40]	@ (8001320 <MX_SPI1_Init+0x64>)
 80012f6:	2200      	movs	r2, #0
 80012f8:	621a      	str	r2, [r3, #32]
  hspi1.Init.TIMode = SPI_TIMODE_DISABLE;
 80012fa:	4b09      	ldr	r3, [pc, #36]	@ (8001320 <MX_SPI1_Init+0x64>)
 80012fc:	2200      	movs	r2, #0
 80012fe:	625a      	str	r2, [r3, #36]	@ 0x24
  hspi1.Init.CRCCalculation = SPI_CRCCALCULATION_DISABLE;
 8001300:	4b07      	ldr	r3, [pc, #28]	@ (8001320 <MX_SPI1_Init+0x64>)
 8001302:	2200      	movs	r2, #0
 8001304:	629a      	str	r2, [r3, #40]	@ 0x28
  hspi1.Init.CRCPolynomial = 10;
 8001306:	4b06      	ldr	r3, [pc, #24]	@ (8001320 <MX_SPI1_Init+0x64>)
 8001308:	220a      	movs	r2, #10
 800130a:	62da      	str	r2, [r3, #44]	@ 0x2c
  if (HAL_SPI_Init(&hspi1) != HAL_OK)
 800130c:	4804      	ldr	r0, [pc, #16]	@ (8001320 <MX_SPI1_Init+0x64>)
 800130e:	f006 f833 	bl	8007378 <HAL_SPI_Init>
 8001312:	4603      	mov	r3, r0
 8001314:	2b00      	cmp	r3, #0
 8001316:	d001      	beq.n	800131c <MX_SPI1_Init+0x60>
  {
    Error_Handler();
 8001318:	f000 fde2 	bl	8001ee0 <Error_Handler>
  }
  /* USER CODE BEGIN SPI1_Init 2 */

  /* USER CODE END SPI1_Init 2 */

}
 800131c:	bf00      	nop
 800131e:	bd80      	pop	{r7, pc}
 8001320:	20000138 	.word	0x20000138
 8001324:	40013000 	.word	0x40013000

08001328 <MX_SPI2_Init>:
  * @brief SPI2 Initialization Function
  * @param None
  * @retval None
  */
static void MX_SPI2_Init(void)
{
 8001328:	b580      	push	{r7, lr}
 800132a:	af00      	add	r7, sp, #0

  /* USER CODE BEGIN SPI2_Init 1 */

  /* USER CODE END SPI2_Init 1 */
  /* SPI2 parameter configuration*/
  hspi2.Instance = SPI2;
 800132c:	4b17      	ldr	r3, [pc, #92]	@ (800138c <MX_SPI2_Init+0x64>)
 800132e:	4a18      	ldr	r2, [pc, #96]	@ (8001390 <MX_SPI2_Init+0x68>)
 8001330:	601a      	str	r2, [r3, #0]
  hspi2.Init.Mode = SPI_MODE_MASTER;
 8001332:	4b16      	ldr	r3, [pc, #88]	@ (800138c <MX_SPI2_Init+0x64>)
 8001334:	f44f 7282 	mov.w	r2, #260	@ 0x104
 8001338:	605a      	str	r2, [r3, #4]
  hspi2.Init.Direction = SPI_DIRECTION_2LINES;
 800133a:	4b14      	ldr	r3, [pc, #80]	@ (800138c <MX_SPI2_Init+0x64>)
 800133c:	2200      	movs	r2, #0
 800133e:	609a      	str	r2, [r3, #8]
  hspi2.Init.DataSize = SPI_DATASIZE_8BIT;
 8001340:	4b12      	ldr	r3, [pc, #72]	@ (800138c <MX_SPI2_Init+0x64>)
 8001342:	2200      	movs	r2, #0
 8001344:	60da      	str	r2, [r3, #12]
  hspi2.Init.CLKPolarity = SPI_POLARITY_LOW;
 8001346:	4b11      	ldr	r3, [pc, #68]	@ (800138c <MX_SPI2_Init+0x64>)
 8001348:	2200      	movs	r2, #0
 800134a:	611a      	str	r2, [r3, #16]
  hspi2.Init.CLKPhase = SPI_PHASE_1EDGE;
 800134c:	4b0f      	ldr	r3, [pc, #60]	@ (800138c <MX_SPI2_Init+0x64>)
 800134e:	2200      	movs	r2, #0
 8001350:	615a      	str	r2, [r3, #20]
  hspi2.Init.NSS = SPI_NSS_SOFT;
 8001352:	4b0e      	ldr	r3, [pc, #56]	@ (800138c <MX_SPI2_Init+0x64>)
 8001354:	f44f 7200 	mov.w	r2, #512	@ 0x200
 8001358:	619a      	str	r2, [r3, #24]
  hspi2.Init.BaudRatePrescaler = SPI_BAUDRATEPRESCALER_2;
 800135a:	4b0c      	ldr	r3, [pc, #48]	@ (800138c <MX_SPI2_Init+0x64>)
 800135c:	2200      	movs	r2, #0
 800135e:	61da      	str	r2, [r3, #28]
  hspi2.Init.FirstBit = SPI_FIRSTBIT_MSB;
 8001360:	4b0a      	ldr	r3, [pc, #40]	@ (800138c <MX_SPI2_Init+0x64>)
 8001362:	2200      	movs	r2, #0
 8001364:	621a      	str	r2, [r3, #32]
  hspi2.Init.TIMode = SPI_TIMODE_DISABLE;
 8001366:	4b09      	ldr	r3, [pc, #36]	@ (800138c <MX_SPI2_Init+0x64>)
 8001368:	2200      	movs	r2, #0
 800136a:	625a      	str	r2, [r3, #36]	@ 0x24
  hspi2.Init.CRCCalculation = SPI_CRCCALCULATION_DISABLE;
 800136c:	4b07      	ldr	r3, [pc, #28]	@ (800138c <MX_SPI2_Init+0x64>)
 800136e:	2200      	movs	r2, #0
 8001370:	629a      	str	r2, [r3, #40]	@ 0x28
  hspi2.Init.CRCPolynomial = 10;
 8001372:	4b06      	ldr	r3, [pc, #24]	@ (800138c <MX_SPI2_Init+0x64>)
 8001374:	220a      	movs	r2, #10
 8001376:	62da      	str	r2, [r3, #44]	@ 0x2c
  if (HAL_SPI_Init(&hspi2) != HAL_OK)
 8001378:	4804      	ldr	r0, [pc, #16]	@ (800138c <MX_SPI2_Init+0x64>)
 800137a:	f005 fffd 	bl	8007378 <HAL_SPI_Init>
 800137e:	4603      	mov	r3, r0
 8001380:	2b00      	cmp	r3, #0
 8001382:	d001      	beq.n	8001388 <MX_SPI2_Init+0x60>
  {
    Error_Handler();
 8001384:	f000 fdac 	bl	8001ee0 <Error_Handler>
  }
  /* USER CODE BEGIN SPI2_Init 2 */

  /* USER CODE END SPI2_Init 2 */

}
 8001388:	bf00      	nop
 800138a:	bd80      	pop	{r7, pc}
 800138c:	20000190 	.word	0x20000190
 8001390:	40003800 	.word	0x40003800

08001394 <MX_TIM6_Init>:
  * @brief TIM6 Initialization Function
  * @param None
  * @retval None
  */
static void MX_TIM6_Init(void)
{
 8001394:	b580      	push	{r7, lr}
 8001396:	b082      	sub	sp, #8
 8001398:	af00      	add	r7, sp, #0

  /* USER CODE BEGIN TIM6_Init 0 */

  /* USER CODE END TIM6_Init 0 */

  TIM_MasterConfigTypeDef sMasterConfig = {0};
 800139a:	463b      	mov	r3, r7
 800139c:	2200      	movs	r2, #0
 800139e:	601a      	str	r2, [r3, #0]
 80013a0:	605a      	str	r2, [r3, #4]

  /* USER CODE BEGIN TIM6_Init 1 */

  /* USER CODE END TIM6_Init 1 */
  htim6.Instance = TIM6;
 80013a2:	4b15      	ldr	r3, [pc, #84]	@ (80013f8 <MX_TIM6_Init+0x64>)
 80013a4:	4a15      	ldr	r2, [pc, #84]	@ (80013fc <MX_TIM6_Init+0x68>)
 80013a6:	601a      	str	r2, [r3, #0]
  htim6.Init.Prescaler = 20999;
 80013a8:	4b13      	ldr	r3, [pc, #76]	@ (80013f8 <MX_TIM6_Init+0x64>)
 80013aa:	f245 2207 	movw	r2, #20999	@ 0x5207
 80013ae:	605a      	str	r2, [r3, #4]
  htim6.Init.CounterMode = TIM_COUNTERMODE_UP;
 80013b0:	4b11      	ldr	r3, [pc, #68]	@ (80013f8 <MX_TIM6_Init+0x64>)
 80013b2:	2200      	movs	r2, #0
 80013b4:	609a      	str	r2, [r3, #8]
  htim6.Init.Period = 40;
 80013b6:	4b10      	ldr	r3, [pc, #64]	@ (80013f8 <MX_TIM6_Init+0x64>)
 80013b8:	2228      	movs	r2, #40	@ 0x28
 80013ba:	60da      	str	r2, [r3, #12]
  htim6.Init.AutoReloadPreload = TIM_AUTORELOAD_PRELOAD_DISABLE;
 80013bc:	4b0e      	ldr	r3, [pc, #56]	@ (80013f8 <MX_TIM6_Init+0x64>)
 80013be:	2200      	movs	r2, #0
 80013c0:	619a      	str	r2, [r3, #24]
  if (HAL_TIM_Base_Init(&htim6) != HAL_OK)
 80013c2:	480d      	ldr	r0, [pc, #52]	@ (80013f8 <MX_TIM6_Init+0x64>)
 80013c4:	f006 fef6 	bl	80081b4 <HAL_TIM_Base_Init>
 80013c8:	4603      	mov	r3, r0
 80013ca:	2b00      	cmp	r3, #0
 80013cc:	d001      	beq.n	80013d2 <MX_TIM6_Init+0x3e>
  {
    Error_Handler();
 80013ce:	f000 fd87 	bl	8001ee0 <Error_Handler>
  }
  sMasterConfig.MasterOutputTrigger = TIM_TRGO_RESET;
 80013d2:	2300      	movs	r3, #0
 80013d4:	603b      	str	r3, [r7, #0]
  sMasterConfig.MasterSlaveMode = TIM_MASTERSLAVEMODE_DISABLE;
 80013d6:	2300      	movs	r3, #0
 80013d8:	607b      	str	r3, [r7, #4]
  if (HAL_TIMEx_MasterConfigSynchronization(&htim6, &sMasterConfig) != HAL_OK)
 80013da:	463b      	mov	r3, r7
 80013dc:	4619      	mov	r1, r3
 80013de:	4806      	ldr	r0, [pc, #24]	@ (80013f8 <MX_TIM6_Init+0x64>)
 80013e0:	f007 f976 	bl	80086d0 <HAL_TIMEx_MasterConfigSynchronization>
 80013e4:	4603      	mov	r3, r0
 80013e6:	2b00      	cmp	r3, #0
 80013e8:	d001      	beq.n	80013ee <MX_TIM6_Init+0x5a>
  {
    Error_Handler();
 80013ea:	f000 fd79 	bl	8001ee0 <Error_Handler>
  }
  /* USER CODE BEGIN TIM6_Init 2 */

  /* USER CODE END TIM6_Init 2 */

}
 80013ee:	bf00      	nop
 80013f0:	3708      	adds	r7, #8
 80013f2:	46bd      	mov	sp, r7
 80013f4:	bd80      	pop	{r7, pc}
 80013f6:	bf00      	nop
 80013f8:	200002a8 	.word	0x200002a8
 80013fc:	40001000 	.word	0x40001000

08001400 <MX_TIM7_Init>:
  * @brief TIM7 Initialization Function
  * @param None
  * @retval None
  */
static void MX_TIM7_Init(void)
{
 8001400:	b580      	push	{r7, lr}
 8001402:	b082      	sub	sp, #8
 8001404:	af00      	add	r7, sp, #0

  /* USER CODE BEGIN TIM7_Init 0 */

  /* USER CODE END TIM7_Init 0 */

  TIM_MasterConfigTypeDef sMasterConfig = {0};
 8001406:	463b      	mov	r3, r7
 8001408:	2200      	movs	r2, #0
 800140a:	601a      	str	r2, [r3, #0]
 800140c:	605a      	str	r2, [r3, #4]

  /* USER CODE BEGIN TIM7_Init 1 */

  /* USER CODE END TIM7_Init 1 */
  htim7.Instance = TIM7;
 800140e:	4b15      	ldr	r3, [pc, #84]	@ (8001464 <MX_TIM7_Init+0x64>)
 8001410:	4a15      	ldr	r2, [pc, #84]	@ (8001468 <MX_TIM7_Init+0x68>)
 8001412:	601a      	str	r2, [r3, #0]
  htim7.Init.Prescaler = 20999;
 8001414:	4b13      	ldr	r3, [pc, #76]	@ (8001464 <MX_TIM7_Init+0x64>)
 8001416:	f245 2207 	movw	r2, #20999	@ 0x5207
 800141a:	605a      	str	r2, [r3, #4]
  htim7.Init.CounterMode = TIM_COUNTERMODE_UP;
 800141c:	4b11      	ldr	r3, [pc, #68]	@ (8001464 <MX_TIM7_Init+0x64>)
 800141e:	2200      	movs	r2, #0
 8001420:	609a      	str	r2, [r3, #8]
  htim7.Init.Period = 2000;
 8001422:	4b10      	ldr	r3, [pc, #64]	@ (8001464 <MX_TIM7_Init+0x64>)
 8001424:	f44f 62fa 	mov.w	r2, #2000	@ 0x7d0
 8001428:	60da      	str	r2, [r3, #12]
  htim7.Init.AutoReloadPreload = TIM_AUTORELOAD_PRELOAD_DISABLE;
 800142a:	4b0e      	ldr	r3, [pc, #56]	@ (8001464 <MX_TIM7_Init+0x64>)
 800142c:	2200      	movs	r2, #0
 800142e:	619a      	str	r2, [r3, #24]
  if (HAL_TIM_Base_Init(&htim7) != HAL_OK)
 8001430:	480c      	ldr	r0, [pc, #48]	@ (8001464 <MX_TIM7_Init+0x64>)
 8001432:	f006 febf 	bl	80081b4 <HAL_TIM_Base_Init>
 8001436:	4603      	mov	r3, r0
 8001438:	2b00      	cmp	r3, #0
 800143a:	d001      	beq.n	8001440 <MX_TIM7_Init+0x40>
  {
    Error_Handler();
 800143c:	f000 fd50 	bl	8001ee0 <Error_Handler>
  }
  sMasterConfig.MasterOutputTrigger = TIM_TRGO_RESET;
 8001440:	2300      	movs	r3, #0
 8001442:	603b      	str	r3, [r7, #0]
  sMasterConfig.MasterSlaveMode = TIM_MASTERSLAVEMODE_DISABLE;
 8001444:	2300      	movs	r3, #0
 8001446:	607b      	str	r3, [r7, #4]
  if (HAL_TIMEx_MasterConfigSynchronization(&htim7, &sMasterConfig) != HAL_OK)
 8001448:	463b      	mov	r3, r7
 800144a:	4619      	mov	r1, r3
 800144c:	4805      	ldr	r0, [pc, #20]	@ (8001464 <MX_TIM7_Init+0x64>)
 800144e:	f007 f93f 	bl	80086d0 <HAL_TIMEx_MasterConfigSynchronization>
 8001452:	4603      	mov	r3, r0
 8001454:	2b00      	cmp	r3, #0
 8001456:	d001      	beq.n	800145c <MX_TIM7_Init+0x5c>
  {
    Error_Handler();
 8001458:	f000 fd42 	bl	8001ee0 <Error_Handler>
  }
  /* USER CODE BEGIN TIM7_Init 2 */

  /* USER CODE END TIM7_Init 2 */

}
 800145c:	bf00      	nop
 800145e:	3708      	adds	r7, #8
 8001460:	46bd      	mov	sp, r7
 8001462:	bd80      	pop	{r7, pc}
 8001464:	200002f0 	.word	0x200002f0
 8001468:	40001400 	.word	0x40001400

0800146c <MX_USART2_UART_Init>:
  * @brief USART2 Initialization Function
  * @param None
  * @retval None
  */
static void MX_USART2_UART_Init(void)
{
 800146c:	b580      	push	{r7, lr}
 800146e:	af00      	add	r7, sp, #0
  /* USER CODE END USART2_Init 0 */

  /* USER CODE BEGIN USART2_Init 1 */

  /* USER CODE END USART2_Init 1 */
  huart2.Instance = USART2;
 8001470:	4b11      	ldr	r3, [pc, #68]	@ (80014b8 <MX_USART2_UART_Init+0x4c>)
 8001472:	4a12      	ldr	r2, [pc, #72]	@ (80014bc <MX_USART2_UART_Init+0x50>)
 8001474:	601a      	str	r2, [r3, #0]
  huart2.Init.BaudRate = 921600;
 8001476:	4b10      	ldr	r3, [pc, #64]	@ (80014b8 <MX_USART2_UART_Init+0x4c>)
 8001478:	f44f 2261 	mov.w	r2, #921600	@ 0xe1000
 800147c:	605a      	str	r2, [r3, #4]
  huart2.Init.WordLength = UART_WORDLENGTH_8B;
 800147e:	4b0e      	ldr	r3, [pc, #56]	@ (80014b8 <MX_USART2_UART_Init+0x4c>)
 8001480:	2200      	movs	r2, #0
 8001482:	609a      	str	r2, [r3, #8]
  huart2.Init.StopBits = UART_STOPBITS_1;
 8001484:	4b0c      	ldr	r3, [pc, #48]	@ (80014b8 <MX_USART2_UART_Init+0x4c>)
 8001486:	2200      	movs	r2, #0
 8001488:	60da      	str	r2, [r3, #12]
  huart2.Init.Parity = UART_PARITY_NONE;
 800148a:	4b0b      	ldr	r3, [pc, #44]	@ (80014b8 <MX_USART2_UART_Init+0x4c>)
 800148c:	2200      	movs	r2, #0
 800148e:	611a      	str	r2, [r3, #16]
  huart2.Init.Mode = UART_MODE_TX_RX;
 8001490:	4b09      	ldr	r3, [pc, #36]	@ (80014b8 <MX_USART2_UART_Init+0x4c>)
 8001492:	220c      	movs	r2, #12
 8001494:	615a      	str	r2, [r3, #20]
  huart2.Init.HwFlowCtl = UART_HWCONTROL_NONE;
 8001496:	4b08      	ldr	r3, [pc, #32]	@ (80014b8 <MX_USART2_UART_Init+0x4c>)
 8001498:	2200      	movs	r2, #0
 800149a:	619a      	str	r2, [r3, #24]
  huart2.Init.OverSampling = UART_OVERSAMPLING_16;
 800149c:	4b06      	ldr	r3, [pc, #24]	@ (80014b8 <MX_USART2_UART_Init+0x4c>)
 800149e:	2200      	movs	r2, #0
 80014a0:	61da      	str	r2, [r3, #28]
  if (HAL_UART_Init(&huart2) != HAL_OK)
 80014a2:	4805      	ldr	r0, [pc, #20]	@ (80014b8 <MX_USART2_UART_Init+0x4c>)
 80014a4:	f007 f9a4 	bl	80087f0 <HAL_UART_Init>
 80014a8:	4603      	mov	r3, r0
 80014aa:	2b00      	cmp	r3, #0
 80014ac:	d001      	beq.n	80014b2 <MX_USART2_UART_Init+0x46>
  {
    Error_Handler();
 80014ae:	f000 fd17 	bl	8001ee0 <Error_Handler>
  }
  /* USER CODE BEGIN USART2_Init 2 */

  /* USER CODE END USART2_Init 2 */

}
 80014b2:	bf00      	nop
 80014b4:	bd80      	pop	{r7, pc}
 80014b6:	bf00      	nop
 80014b8:	20000338 	.word	0x20000338
 80014bc:	40004400 	.word	0x40004400

080014c0 <MX_DMA_Init>:

/**
  * Enable DMA controller clock
  */
static void MX_DMA_Init(void)
{
 80014c0:	b580      	push	{r7, lr}
 80014c2:	b082      	sub	sp, #8
 80014c4:	af00      	add	r7, sp, #0

  /* DMA controller clock enable */
  __HAL_RCC_DMA2_CLK_ENABLE();
 80014c6:	2300      	movs	r3, #0
 80014c8:	607b      	str	r3, [r7, #4]
 80014ca:	4b17      	ldr	r3, [pc, #92]	@ (8001528 <MX_DMA_Init+0x68>)
 80014cc:	6b1b      	ldr	r3, [r3, #48]	@ 0x30
 80014ce:	4a16      	ldr	r2, [pc, #88]	@ (8001528 <MX_DMA_Init+0x68>)
 80014d0:	f443 0380 	orr.w	r3, r3, #4194304	@ 0x400000
 80014d4:	6313      	str	r3, [r2, #48]	@ 0x30
 80014d6:	4b14      	ldr	r3, [pc, #80]	@ (8001528 <MX_DMA_Init+0x68>)
 80014d8:	6b1b      	ldr	r3, [r3, #48]	@ 0x30
 80014da:	f403 0380 	and.w	r3, r3, #4194304	@ 0x400000
 80014de:	607b      	str	r3, [r7, #4]
 80014e0:	687b      	ldr	r3, [r7, #4]
  __HAL_RCC_DMA1_CLK_ENABLE();
 80014e2:	2300      	movs	r3, #0
 80014e4:	603b      	str	r3, [r7, #0]
 80014e6:	4b10      	ldr	r3, [pc, #64]	@ (8001528 <MX_DMA_Init+0x68>)
 80014e8:	6b1b      	ldr	r3, [r3, #48]	@ 0x30
 80014ea:	4a0f      	ldr	r2, [pc, #60]	@ (8001528 <MX_DMA_Init+0x68>)
 80014ec:	f443 1300 	orr.w	r3, r3, #2097152	@ 0x200000
 80014f0:	6313      	str	r3, [r2, #48]	@ 0x30
 80014f2:	4b0d      	ldr	r3, [pc, #52]	@ (8001528 <MX_DMA_Init+0x68>)
 80014f4:	6b1b      	ldr	r3, [r3, #48]	@ 0x30
 80014f6:	f403 1300 	and.w	r3, r3, #2097152	@ 0x200000
 80014fa:	603b      	str	r3, [r7, #0]
 80014fc:	683b      	ldr	r3, [r7, #0]

  /* DMA interrupt init */
  /* DMA1_Stream4_IRQn interrupt configuration */
  HAL_NVIC_SetPriority(DMA1_Stream4_IRQn, 0, 0);
 80014fe:	2200      	movs	r2, #0
 8001500:	2100      	movs	r1, #0
 8001502:	200f      	movs	r0, #15
 8001504:	f002 fdf1 	bl	80040ea <HAL_NVIC_SetPriority>
  HAL_NVIC_EnableIRQ(DMA1_Stream4_IRQn);
 8001508:	200f      	movs	r0, #15
 800150a:	f002 fe0a 	bl	8004122 <HAL_NVIC_EnableIRQ>
  /* DMA2_Stream3_IRQn interrupt configuration */
  HAL_NVIC_SetPriority(DMA2_Stream3_IRQn, 0, 0);
 800150e:	2200      	movs	r2, #0
 8001510:	2100      	movs	r1, #0
 8001512:	203b      	movs	r0, #59	@ 0x3b
 8001514:	f002 fde9 	bl	80040ea <HAL_NVIC_SetPriority>
  HAL_NVIC_EnableIRQ(DMA2_Stream3_IRQn);
 8001518:	203b      	movs	r0, #59	@ 0x3b
 800151a:	f002 fe02 	bl	8004122 <HAL_NVIC_EnableIRQ>

}
 800151e:	bf00      	nop
 8001520:	3708      	adds	r7, #8
 8001522:	46bd      	mov	sp, r7
 8001524:	bd80      	pop	{r7, pc}
 8001526:	bf00      	nop
 8001528:	40023800 	.word	0x40023800

0800152c <MX_GPIO_Init>:
  * @brief GPIO Initialization Function
  * @param None
  * @retval None
  */
static void MX_GPIO_Init(void)
{
 800152c:	b580      	push	{r7, lr}
 800152e:	b08a      	sub	sp, #40	@ 0x28
 8001530:	af00      	add	r7, sp, #0
  GPIO_InitTypeDef GPIO_InitStruct = {0};
 8001532:	f107 0314 	add.w	r3, r7, #20
 8001536:	2200      	movs	r2, #0
 8001538:	601a      	str	r2, [r3, #0]
 800153a:	605a      	str	r2, [r3, #4]
 800153c:	609a      	str	r2, [r3, #8]
 800153e:	60da      	str	r2, [r3, #12]
 8001540:	611a      	str	r2, [r3, #16]
/* USER CODE BEGIN MX_GPIO_Init_1 */
/* USER CODE END MX_GPIO_Init_1 */

  /* GPIO Ports Clock Enable */
  __HAL_RCC_GPIOC_CLK_ENABLE();
 8001542:	2300      	movs	r3, #0
 8001544:	613b      	str	r3, [r7, #16]
 8001546:	4b5b      	ldr	r3, [pc, #364]	@ (80016b4 <MX_GPIO_Init+0x188>)
 8001548:	6b1b      	ldr	r3, [r3, #48]	@ 0x30
 800154a:	4a5a      	ldr	r2, [pc, #360]	@ (80016b4 <MX_GPIO_Init+0x188>)
 800154c:	f043 0304 	orr.w	r3, r3, #4
 8001550:	6313      	str	r3, [r2, #48]	@ 0x30
 8001552:	4b58      	ldr	r3, [pc, #352]	@ (80016b4 <MX_GPIO_Init+0x188>)
 8001554:	6b1b      	ldr	r3, [r3, #48]	@ 0x30
 8001556:	f003 0304 	and.w	r3, r3, #4
 800155a:	613b      	str	r3, [r7, #16]
 800155c:	693b      	ldr	r3, [r7, #16]
  __HAL_RCC_GPIOH_CLK_ENABLE();
 800155e:	2300      	movs	r3, #0
 8001560:	60fb      	str	r3, [r7, #12]
 8001562:	4b54      	ldr	r3, [pc, #336]	@ (80016b4 <MX_GPIO_Init+0x188>)
 8001564:	6b1b      	ldr	r3, [r3, #48]	@ 0x30
 8001566:	4a53      	ldr	r2, [pc, #332]	@ (80016b4 <MX_GPIO_Init+0x188>)
 8001568:	f043 0380 	orr.w	r3, r3, #128	@ 0x80
 800156c:	6313      	str	r3, [r2, #48]	@ 0x30
 800156e:	4b51      	ldr	r3, [pc, #324]	@ (80016b4 <MX_GPIO_Init+0x188>)
 8001570:	6b1b      	ldr	r3, [r3, #48]	@ 0x30
 8001572:	f003 0380 	and.w	r3, r3, #128	@ 0x80
 8001576:	60fb      	str	r3, [r7, #12]
 8001578:	68fb      	ldr	r3, [r7, #12]
  __HAL_RCC_GPIOA_CLK_ENABLE();
 800157a:	2300      	movs	r3, #0
 800157c:	60bb      	str	r3, [r7, #8]
 800157e:	4b4d      	ldr	r3, [pc, #308]	@ (80016b4 <MX_GPIO_Init+0x188>)
 8001580:	6b1b      	ldr	r3, [r3, #48]	@ 0x30
 8001582:	4a4c      	ldr	r2, [pc, #304]	@ (80016b4 <MX_GPIO_Init+0x188>)
 8001584:	f043 0301 	orr.w	r3, r3, #1
 8001588:	6313      	str	r3, [r2, #48]	@ 0x30
 800158a:	4b4a      	ldr	r3, [pc, #296]	@ (80016b4 <MX_GPIO_Init+0x188>)
 800158c:	6b1b      	ldr	r3, [r3, #48]	@ 0x30
 800158e:	f003 0301 	and.w	r3, r3, #1
 8001592:	60bb      	str	r3, [r7, #8]
 8001594:	68bb      	ldr	r3, [r7, #8]
  __HAL_RCC_GPIOB_CLK_ENABLE();
 8001596:	2300      	movs	r3, #0
 8001598:	607b      	str	r3, [r7, #4]
 800159a:	4b46      	ldr	r3, [pc, #280]	@ (80016b4 <MX_GPIO_Init+0x188>)
 800159c:	6b1b      	ldr	r3, [r3, #48]	@ 0x30
 800159e:	4a45      	ldr	r2, [pc, #276]	@ (80016b4 <MX_GPIO_Init+0x188>)
 80015a0:	f043 0302 	orr.w	r3, r3, #2
 80015a4:	6313      	str	r3, [r2, #48]	@ 0x30
 80015a6:	4b43      	ldr	r3, [pc, #268]	@ (80016b4 <MX_GPIO_Init+0x188>)
 80015a8:	6b1b      	ldr	r3, [r3, #48]	@ 0x30
 80015aa:	f003 0302 	and.w	r3, r3, #2
 80015ae:	607b      	str	r3, [r7, #4]
 80015b0:	687b      	ldr	r3, [r7, #4]
  __HAL_RCC_GPIOD_CLK_ENABLE();
 80015b2:	2300      	movs	r3, #0
 80015b4:	603b      	str	r3, [r7, #0]
 80015b6:	4b3f      	ldr	r3, [pc, #252]	@ (80016b4 <MX_GPIO_Init+0x188>)
 80015b8:	6b1b      	ldr	r3, [r3, #48]	@ 0x30
 80015ba:	4a3e      	ldr	r2, [pc, #248]	@ (80016b4 <MX_GPIO_Init+0x188>)
 80015bc:	f043 0308 	orr.w	r3, r3, #8
 80015c0:	6313      	str	r3, [r2, #48]	@ 0x30
 80015c2:	4b3c      	ldr	r3, [pc, #240]	@ (80016b4 <MX_GPIO_Init+0x188>)
 80015c4:	6b1b      	ldr	r3, [r3, #48]	@ 0x30
 80015c6:	f003 0308 	and.w	r3, r3, #8
 80015ca:	603b      	str	r3, [r7, #0]
 80015cc:	683b      	ldr	r3, [r7, #0]

  /*Configure GPIO pin Output Level */
  HAL_GPIO_WritePin(GPIOC, SPI2_WP_Pin|SPI2_CS_Pin|SPI1_CS_Pin, GPIO_PIN_RESET);
 80015ce:	2200      	movs	r2, #0
 80015d0:	2113      	movs	r1, #19
 80015d2:	4839      	ldr	r0, [pc, #228]	@ (80016b8 <MX_GPIO_Init+0x18c>)
 80015d4:	f003 fc92 	bl	8004efc <HAL_GPIO_WritePin>

  /*Configure GPIO pin Output Level */
  HAL_GPIO_WritePin(SPI1_WP_GPIO_Port, SPI1_WP_Pin, GPIO_PIN_RESET);
 80015d8:	2200      	movs	r2, #0
 80015da:	2110      	movs	r1, #16
 80015dc:	4837      	ldr	r0, [pc, #220]	@ (80016bc <MX_GPIO_Init+0x190>)
 80015de:	f003 fc8d 	bl	8004efc <HAL_GPIO_WritePin>

  /*Configure GPIO pin Output Level */
  HAL_GPIO_WritePin(GPIOB, LED3_Pin|LED1_Pin|LED2_Pin, GPIO_PIN_RESET);
 80015e2:	2200      	movs	r2, #0
 80015e4:	f44f 41e0 	mov.w	r1, #28672	@ 0x7000
 80015e8:	4835      	ldr	r0, [pc, #212]	@ (80016c0 <MX_GPIO_Init+0x194>)
 80015ea:	f003 fc87 	bl	8004efc <HAL_GPIO_WritePin>

  /*Configure GPIO pin : SPI2_WP_Pin */
  GPIO_InitStruct.Pin = SPI2_WP_Pin;
 80015ee:	2301      	movs	r3, #1
 80015f0:	617b      	str	r3, [r7, #20]
  GPIO_InitStruct.Mode = GPIO_MODE_OUTPUT_PP;
 80015f2:	2301      	movs	r3, #1
 80015f4:	61bb      	str	r3, [r7, #24]
  GPIO_InitStruct.Pull = GPIO_PULLUP;
 80015f6:	2301      	movs	r3, #1
 80015f8:	61fb      	str	r3, [r7, #28]
  GPIO_InitStruct.Speed = GPIO_SPEED_FREQ_LOW;
 80015fa:	2300      	movs	r3, #0
 80015fc:	623b      	str	r3, [r7, #32]
  HAL_GPIO_Init(SPI2_WP_GPIO_Port, &GPIO_InitStruct);
 80015fe:	f107 0314 	add.w	r3, r7, #20
 8001602:	4619      	mov	r1, r3
 8001604:	482c      	ldr	r0, [pc, #176]	@ (80016b8 <MX_GPIO_Init+0x18c>)
 8001606:	f003 f9a9 	bl	800495c <HAL_GPIO_Init>

  /*Configure GPIO pins : SPI2_CS_Pin SPI1_CS_Pin */
  GPIO_InitStruct.Pin = SPI2_CS_Pin|SPI1_CS_Pin;
 800160a:	2312      	movs	r3, #18
 800160c:	617b      	str	r3, [r7, #20]
  GPIO_InitStruct.Mode = GPIO_MODE_OUTPUT_PP;
 800160e:	2301      	movs	r3, #1
 8001610:	61bb      	str	r3, [r7, #24]
  GPIO_InitStruct.Pull = GPIO_NOPULL;
 8001612:	2300      	movs	r3, #0
 8001614:	61fb      	str	r3, [r7, #28]
  GPIO_InitStruct.Speed = GPIO_SPEED_FREQ_LOW;
 8001616:	2300      	movs	r3, #0
 8001618:	623b      	str	r3, [r7, #32]
  HAL_GPIO_Init(GPIOC, &GPIO_InitStruct);
 800161a:	f107 0314 	add.w	r3, r7, #20
 800161e:	4619      	mov	r1, r3
 8001620:	4825      	ldr	r0, [pc, #148]	@ (80016b8 <MX_GPIO_Init+0x18c>)
 8001622:	f003 f99b 	bl	800495c <HAL_GPIO_Init>

  /*Configure GPIO pin : SPI1_WP_Pin */
  GPIO_InitStruct.Pin = SPI1_WP_Pin;
 8001626:	2310      	movs	r3, #16
 8001628:	617b      	str	r3, [r7, #20]
  GPIO_InitStruct.Mode = GPIO_MODE_OUTPUT_PP;
 800162a:	2301      	movs	r3, #1
 800162c:	61bb      	str	r3, [r7, #24]
  GPIO_InitStruct.Pull = GPIO_PULLUP;
 800162e:	2301      	movs	r3, #1
 8001630:	61fb      	str	r3, [r7, #28]
  GPIO_InitStruct.Speed = GPIO_SPEED_FREQ_LOW;
 8001632:	2300      	movs	r3, #0
 8001634:	623b      	str	r3, [r7, #32]
  HAL_GPIO_Init(SPI1_WP_GPIO_Port, &GPIO_InitStruct);
 8001636:	f107 0314 	add.w	r3, r7, #20
 800163a:	4619      	mov	r1, r3
 800163c:	481f      	ldr	r0, [pc, #124]	@ (80016bc <MX_GPIO_Init+0x190>)
 800163e:	f003 f98d 	bl	800495c <HAL_GPIO_Init>

  /*Configure GPIO pin : Flight_JMP_Pin */
  GPIO_InitStruct.Pin = Flight_JMP_Pin;
 8001642:	2302      	movs	r3, #2
 8001644:	617b      	str	r3, [r7, #20]
  GPIO_InitStruct.Mode = GPIO_MODE_IT_RISING;
 8001646:	f44f 1388 	mov.w	r3, #1114112	@ 0x110000
 800164a:	61bb      	str	r3, [r7, #24]
  GPIO_InitStruct.Pull = GPIO_NOPULL;
 800164c:	2300      	movs	r3, #0
 800164e:	61fb      	str	r3, [r7, #28]
  HAL_GPIO_Init(Flight_JMP_GPIO_Port, &GPIO_InitStruct);
 8001650:	f107 0314 	add.w	r3, r7, #20
 8001654:	4619      	mov	r1, r3
 8001656:	481a      	ldr	r0, [pc, #104]	@ (80016c0 <MX_GPIO_Init+0x194>)
 8001658:	f003 f980 	bl	800495c <HAL_GPIO_Init>

  /*Configure GPIO pins : LED3_Pin LED1_Pin LED2_Pin */
  GPIO_InitStruct.Pin = LED3_Pin|LED1_Pin|LED2_Pin;
 800165c:	f44f 43e0 	mov.w	r3, #28672	@ 0x7000
 8001660:	617b      	str	r3, [r7, #20]
  GPIO_InitStruct.Mode = GPIO_MODE_OUTPUT_PP;
 8001662:	2301      	movs	r3, #1
 8001664:	61bb      	str	r3, [r7, #24]
  GPIO_InitStruct.Pull = GPIO_PULLDOWN;
 8001666:	2302      	movs	r3, #2
 8001668:	61fb      	str	r3, [r7, #28]
  GPIO_InitStruct.Speed = GPIO_SPEED_FREQ_LOW;
 800166a:	2300      	movs	r3, #0
 800166c:	623b      	str	r3, [r7, #32]
  HAL_GPIO_Init(GPIOB, &GPIO_InitStruct);
 800166e:	f107 0314 	add.w	r3, r7, #20
 8001672:	4619      	mov	r1, r3
 8001674:	4812      	ldr	r0, [pc, #72]	@ (80016c0 <MX_GPIO_Init+0x194>)
 8001676:	f003 f971 	bl	800495c <HAL_GPIO_Init>

  /*Configure GPIO pins : PA11 PA12 */
  GPIO_InitStruct.Pin = GPIO_PIN_11|GPIO_PIN_12;
 800167a:	f44f 53c0 	mov.w	r3, #6144	@ 0x1800
 800167e:	617b      	str	r3, [r7, #20]
  GPIO_InitStruct.Mode = GPIO_MODE_AF_PP;
 8001680:	2302      	movs	r3, #2
 8001682:	61bb      	str	r3, [r7, #24]
  GPIO_InitStruct.Pull = GPIO_NOPULL;
 8001684:	2300      	movs	r3, #0
 8001686:	61fb      	str	r3, [r7, #28]
  GPIO_InitStruct.Speed = GPIO_SPEED_FREQ_VERY_HIGH;
 8001688:	2303      	movs	r3, #3
 800168a:	623b      	str	r3, [r7, #32]
  GPIO_InitStruct.Alternate = GPIO_AF9_CAN1;
 800168c:	2309      	movs	r3, #9
 800168e:	627b      	str	r3, [r7, #36]	@ 0x24
  HAL_GPIO_Init(GPIOA, &GPIO_InitStruct);
 8001690:	f107 0314 	add.w	r3, r7, #20
 8001694:	4619      	mov	r1, r3
 8001696:	4809      	ldr	r0, [pc, #36]	@ (80016bc <MX_GPIO_Init+0x190>)
 8001698:	f003 f960 	bl	800495c <HAL_GPIO_Init>

  /* EXTI interrupt init*/
  HAL_NVIC_SetPriority(EXTI1_IRQn, 0, 0);
 800169c:	2200      	movs	r2, #0
 800169e:	2100      	movs	r1, #0
 80016a0:	2007      	movs	r0, #7
 80016a2:	f002 fd22 	bl	80040ea <HAL_NVIC_SetPriority>
  HAL_NVIC_EnableIRQ(EXTI1_IRQn);
 80016a6:	2007      	movs	r0, #7
 80016a8:	f002 fd3b 	bl	8004122 <HAL_NVIC_EnableIRQ>

/* USER CODE BEGIN MX_GPIO_Init_2 */
/* USER CODE END MX_GPIO_Init_2 */
}
 80016ac:	bf00      	nop
 80016ae:	3728      	adds	r7, #40	@ 0x28
 80016b0:	46bd      	mov	sp, r7
 80016b2:	bd80      	pop	{r7, pc}
 80016b4:	40023800 	.word	0x40023800
 80016b8:	40020800 	.word	0x40020800
 80016bc:	40020000 	.word	0x40020000
 80016c0:	40020400 	.word	0x40020400

080016c4 <clean_data_buffer>:

/* USER CODE BEGIN 4 */
void clean_data_buffer(uint16_t array_size, uint8_t data_array[array_size]) {
 80016c4:	b480      	push	{r7}
 80016c6:	b085      	sub	sp, #20
 80016c8:	af00      	add	r7, sp, #0
 80016ca:	4603      	mov	r3, r0
 80016cc:	6039      	str	r1, [r7, #0]
 80016ce:	80fb      	strh	r3, [r7, #6]
    for (int i = 0; i < array_size; ++i) {
 80016d0:	2300      	movs	r3, #0
 80016d2:	60fb      	str	r3, [r7, #12]
 80016d4:	e007      	b.n	80016e6 <clean_data_buffer+0x22>
    	data_array[i] = 0xFF;  // Initialize each element to 0xFF
 80016d6:	68fb      	ldr	r3, [r7, #12]
 80016d8:	683a      	ldr	r2, [r7, #0]
 80016da:	4413      	add	r3, r2
 80016dc:	22ff      	movs	r2, #255	@ 0xff
 80016de:	701a      	strb	r2, [r3, #0]
    for (int i = 0; i < array_size; ++i) {
 80016e0:	68fb      	ldr	r3, [r7, #12]
 80016e2:	3301      	adds	r3, #1
 80016e4:	60fb      	str	r3, [r7, #12]
 80016e6:	88fb      	ldrh	r3, [r7, #6]
 80016e8:	68fa      	ldr	r2, [r7, #12]
 80016ea:	429a      	cmp	r2, r3
 80016ec:	dbf3      	blt.n	80016d6 <clean_data_buffer+0x12>
    }
}
 80016ee:	bf00      	nop
 80016f0:	bf00      	nop
 80016f2:	3714      	adds	r7, #20
 80016f4:	46bd      	mov	sp, r7
 80016f6:	f85d 7b04 	ldr.w	r7, [sp], #4
 80016fa:	4770      	bx	lr

080016fc <systemInit>:


void systemInit() {
 80016fc:	b580      	push	{r7, lr}
 80016fe:	b082      	sub	sp, #8
 8001700:	af00      	add	r7, sp, #0
	i2c_accel = &hi2c3;
 8001702:	4b5f      	ldr	r3, [pc, #380]	@ (8001880 <systemInit+0x184>)
 8001704:	4a5f      	ldr	r2, [pc, #380]	@ (8001884 <systemInit+0x188>)
 8001706:	601a      	str	r2, [r3, #0]
	i2c_bme280 = &hi2c1;
 8001708:	4b5f      	ldr	r3, [pc, #380]	@ (8001888 <systemInit+0x18c>)
 800170a:	4a60      	ldr	r2, [pc, #384]	@ (800188c <systemInit+0x190>)
 800170c:	601a      	str	r2, [r3, #0]

	configureCAN();
 800170e:	f000 fb9f 	bl	8001e50 <configureCAN>
	CAN_TxMailbox = 0;
 8001712:	4b5f      	ldr	r3, [pc, #380]	@ (8001890 <systemInit+0x194>)
 8001714:	2200      	movs	r2, #0
 8001716:	601a      	str	r2, [r3, #0]
	CAN_First_Msg = FLAG_RESET;
 8001718:	4b5e      	ldr	r3, [pc, #376]	@ (8001894 <systemInit+0x198>)
 800171a:	2200      	movs	r2, #0
 800171c:	701a      	strb	r2, [r3, #0]
	clean_data_buffer(8, CAN_RxData);
 800171e:	495e      	ldr	r1, [pc, #376]	@ (8001898 <systemInit+0x19c>)
 8001720:	2008      	movs	r0, #8
 8001722:	f7ff ffcf 	bl	80016c4 <clean_data_buffer>

	gpio_set_config();
 8001726:	f000 f8f3 	bl	8001910 <gpio_set_config>
	HAL_GPIO_WritePin(led_orange.GPIOx, led_orange.GPIO_Pin, GPIO_PIN_RESET);	// Turn LED off
 800172a:	4b5c      	ldr	r3, [pc, #368]	@ (800189c <systemInit+0x1a0>)
 800172c:	681b      	ldr	r3, [r3, #0]
 800172e:	4a5b      	ldr	r2, [pc, #364]	@ (800189c <systemInit+0x1a0>)
 8001730:	8891      	ldrh	r1, [r2, #4]
 8001732:	2200      	movs	r2, #0
 8001734:	4618      	mov	r0, r3
 8001736:	f003 fbe1 	bl	8004efc <HAL_GPIO_WritePin>
	HAL_GPIO_WritePin(status_led.GPIOx, status_led.GPIO_Pin, GPIO_PIN_RESET);	// Turn LED off
 800173a:	4b59      	ldr	r3, [pc, #356]	@ (80018a0 <systemInit+0x1a4>)
 800173c:	681b      	ldr	r3, [r3, #0]
 800173e:	4a58      	ldr	r2, [pc, #352]	@ (80018a0 <systemInit+0x1a4>)
 8001740:	8891      	ldrh	r1, [r2, #4]
 8001742:	2200      	movs	r2, #0
 8001744:	4618      	mov	r0, r3
 8001746:	f003 fbd9 	bl	8004efc <HAL_GPIO_WritePin>
	HAL_GPIO_WritePin(cs_spi1.GPIOx, cs_spi1.GPIO_Pin, GPIO_PIN_SET);		// SET SPI CS High to disable bus 1
 800174a:	4b56      	ldr	r3, [pc, #344]	@ (80018a4 <systemInit+0x1a8>)
 800174c:	681b      	ldr	r3, [r3, #0]
 800174e:	4a55      	ldr	r2, [pc, #340]	@ (80018a4 <systemInit+0x1a8>)
 8001750:	8891      	ldrh	r1, [r2, #4]
 8001752:	2201      	movs	r2, #1
 8001754:	4618      	mov	r0, r3
 8001756:	f003 fbd1 	bl	8004efc <HAL_GPIO_WritePin>
	HAL_GPIO_WritePin(cs_spi2.GPIOx, cs_spi2.GPIO_Pin, GPIO_PIN_SET);		// SET SPI CS High to disable bus 2
 800175a:	4b53      	ldr	r3, [pc, #332]	@ (80018a8 <systemInit+0x1ac>)
 800175c:	681b      	ldr	r3, [r3, #0]
 800175e:	4a52      	ldr	r2, [pc, #328]	@ (80018a8 <systemInit+0x1ac>)
 8001760:	8891      	ldrh	r1, [r2, #4]
 8001762:	2201      	movs	r2, #1
 8001764:	4618      	mov	r0, r3
 8001766:	f003 fbc9 	bl	8004efc <HAL_GPIO_WritePin>

	// Clean the data buffer and set all values to 0xFF
	clean_data_buffer(PAGE_SIZE, data_buffer_tx[0]);
 800176a:	4950      	ldr	r1, [pc, #320]	@ (80018ac <systemInit+0x1b0>)
 800176c:	f44f 7080 	mov.w	r0, #256	@ 0x100
 8001770:	f7ff ffa8 	bl	80016c4 <clean_data_buffer>
	clean_data_buffer(PAGE_SIZE, data_buffer_tx[1]);
 8001774:	494e      	ldr	r1, [pc, #312]	@ (80018b0 <systemInit+0x1b4>)
 8001776:	f44f 7080 	mov.w	r0, #256	@ 0x100
 800177a:	f7ff ffa3 	bl	80016c4 <clean_data_buffer>

	for (uint8_t i = 0; i < 6; i++) {
 800177e:	2300      	movs	r3, #0
 8001780:	71fb      	strb	r3, [r7, #7]
 8001782:	e00e      	b.n	80017a2 <systemInit+0xa6>
		accel_data[i] = 0x00;
 8001784:	79fb      	ldrb	r3, [r7, #7]
 8001786:	4a4b      	ldr	r2, [pc, #300]	@ (80018b4 <systemInit+0x1b8>)
 8001788:	2100      	movs	r1, #0
 800178a:	54d1      	strb	r1, [r2, r3]
		bme280_data_0[i] = 0x00;
 800178c:	79fb      	ldrb	r3, [r7, #7]
 800178e:	4a4a      	ldr	r2, [pc, #296]	@ (80018b8 <systemInit+0x1bc>)
 8001790:	2100      	movs	r1, #0
 8001792:	54d1      	strb	r1, [r2, r3]
		bme280_data_1[i] = 0x00;
 8001794:	79fb      	ldrb	r3, [r7, #7]
 8001796:	4a49      	ldr	r2, [pc, #292]	@ (80018bc <systemInit+0x1c0>)
 8001798:	2100      	movs	r1, #0
 800179a:	54d1      	strb	r1, [r2, r3]
	for (uint8_t i = 0; i < 6; i++) {
 800179c:	79fb      	ldrb	r3, [r7, #7]
 800179e:	3301      	adds	r3, #1
 80017a0:	71fb      	strb	r3, [r7, #7]
 80017a2:	79fb      	ldrb	r3, [r7, #7]
 80017a4:	2b05      	cmp	r3, #5
 80017a6:	d9ed      	bls.n	8001784 <systemInit+0x88>
	}

	// Initialise the peripherals
	init_accel(i2c_accel);
 80017a8:	4b35      	ldr	r3, [pc, #212]	@ (8001880 <systemInit+0x184>)
 80017aa:	681b      	ldr	r3, [r3, #0]
 80017ac:	4618      	mov	r0, r3
 80017ae:	f7fe fe9d 	bl	80004ec <init_accel>
	init_bme280(i2c_bme280, 0);
 80017b2:	4b35      	ldr	r3, [pc, #212]	@ (8001888 <systemInit+0x18c>)
 80017b4:	681b      	ldr	r3, [r3, #0]
 80017b6:	2100      	movs	r1, #0
 80017b8:	4618      	mov	r0, r3
 80017ba:	f7fe ff3b 	bl	8000634 <init_bme280>
	init_bme280(i2c_bme280, 1);
 80017be:	4b32      	ldr	r3, [pc, #200]	@ (8001888 <systemInit+0x18c>)
 80017c0:	681b      	ldr	r3, [r3, #0]
 80017c2:	2101      	movs	r1, #1
 80017c4:	4618      	mov	r0, r3
 80017c6:	f7fe ff35 	bl	8000634 <init_bme280>
	software_reset(&hspi1, cs_spi1);
 80017ca:	4b36      	ldr	r3, [pc, #216]	@ (80018a4 <systemInit+0x1a8>)
 80017cc:	e893 0006 	ldmia.w	r3, {r1, r2}
 80017d0:	483b      	ldr	r0, [pc, #236]	@ (80018c0 <systemInit+0x1c4>)
 80017d2:	f7ff f905 	bl	80009e0 <software_reset>
	software_reset(&hspi2, cs_spi2);
 80017d6:	4b34      	ldr	r3, [pc, #208]	@ (80018a8 <systemInit+0x1ac>)
 80017d8:	e893 0006 	ldmia.w	r3, {r1, r2}
 80017dc:	4839      	ldr	r0, [pc, #228]	@ (80018c4 <systemInit+0x1c8>)
 80017de:	f7ff f8ff 	bl	80009e0 <software_reset>

	end_of_flash = GPIO_PIN_RESET;
 80017e2:	4b39      	ldr	r3, [pc, #228]	@ (80018c8 <systemInit+0x1cc>)
 80017e4:	2200      	movs	r2, #0
 80017e6:	701a      	strb	r2, [r3, #0]

	// Assign the value of next_blank_page to the larger of next_blank_page0 and next_blank_page1
	next_blank_page = find_next_blank_page_all();
 80017e8:	f000 fb56 	bl	8001e98 <find_next_blank_page_all>
 80017ec:	4603      	mov	r3, r0
 80017ee:	4a37      	ldr	r2, [pc, #220]	@ (80018cc <systemInit+0x1d0>)
 80017f0:	6013      	str	r3, [r2, #0]

	buffer_ref = 0;
 80017f2:	4b37      	ldr	r3, [pc, #220]	@ (80018d0 <systemInit+0x1d4>)
 80017f4:	2200      	movs	r2, #0
 80017f6:	701a      	strb	r2, [r3, #0]
	byte_tracker = 0;
 80017f8:	4b36      	ldr	r3, [pc, #216]	@ (80018d4 <systemInit+0x1d8>)
 80017fa:	2200      	movs	r2, #0
 80017fc:	801a      	strh	r2, [r3, #0]
	uart2_rec_flag = FLAG_RESET;
 80017fe:	4b36      	ldr	r3, [pc, #216]	@ (80018d8 <systemInit+0x1dc>)
 8001800:	2200      	movs	r2, #0
 8001802:	701a      	strb	r2, [r3, #0]
	CAN_RX_Flag = FLAG_RESET;
 8001804:	4b35      	ldr	r3, [pc, #212]	@ (80018dc <systemInit+0x1e0>)
 8001806:	2200      	movs	r2, #0
 8001808:	701a      	strb	r2, [r3, #0]
	tim6_overflow_flag = FLAG_RESET;
 800180a:	4b35      	ldr	r3, [pc, #212]	@ (80018e0 <systemInit+0x1e4>)
 800180c:	2200      	movs	r2, #0
 800180e:	701a      	strb	r2, [r3, #0]
	tim7_overflow_flag = FLAG_RESET;
 8001810:	4b34      	ldr	r3, [pc, #208]	@ (80018e4 <systemInit+0x1e8>)
 8001812:	2200      	movs	r2, #0
 8001814:	701a      	strb	r2, [r3, #0]
	flight_state = GROUND;
 8001816:	4b34      	ldr	r3, [pc, #208]	@ (80018e8 <systemInit+0x1ec>)
 8001818:	2200      	movs	r2, #0
 800181a:	701a      	strb	r2, [r3, #0]
	rtc_reset = FLAG_RESET;
 800181c:	4b33      	ldr	r3, [pc, #204]	@ (80018ec <systemInit+0x1f0>)
 800181e:	2200      	movs	r2, #0
 8001820:	701a      	strb	r2, [r3, #0]
	i2c_offline_cnt = FLAG_RESET;
 8001822:	4b33      	ldr	r3, [pc, #204]	@ (80018f0 <systemInit+0x1f4>)
 8001824:	2200      	movs	r2, #0
 8001826:	701a      	strb	r2, [r3, #0]

	sysStatus = systemStatus(&hspi1, &hspi2, i2c_bme280, i2c_accel);
 8001828:	4b17      	ldr	r3, [pc, #92]	@ (8001888 <systemInit+0x18c>)
 800182a:	681a      	ldr	r2, [r3, #0]
 800182c:	4b14      	ldr	r3, [pc, #80]	@ (8001880 <systemInit+0x184>)
 800182e:	681b      	ldr	r3, [r3, #0]
 8001830:	4924      	ldr	r1, [pc, #144]	@ (80018c4 <systemInit+0x1c8>)
 8001832:	4823      	ldr	r0, [pc, #140]	@ (80018c0 <systemInit+0x1c4>)
 8001834:	f000 fb5a 	bl	8001eec <systemStatus>
 8001838:	4603      	mov	r3, r0
 800183a:	461a      	mov	r2, r3
 800183c:	4b2d      	ldr	r3, [pc, #180]	@ (80018f4 <systemInit+0x1f8>)
 800183e:	701a      	strb	r2, [r3, #0]

	send_uart_hex(&huart2, sysStatus);
 8001840:	4b2c      	ldr	r3, [pc, #176]	@ (80018f4 <systemInit+0x1f8>)
 8001842:	781b      	ldrb	r3, [r3, #0]
 8001844:	4619      	mov	r1, r3
 8001846:	482c      	ldr	r0, [pc, #176]	@ (80018f8 <systemInit+0x1fc>)
 8001848:	f001 fc37 	bl	80030ba <send_uart_hex>

	// Initiate clocks, interrupts, CAN and DMA
	HAL_UART_Receive_IT(&huart2, UARTRxData, 2);
 800184c:	2202      	movs	r2, #2
 800184e:	492b      	ldr	r1, [pc, #172]	@ (80018fc <systemInit+0x200>)
 8001850:	4829      	ldr	r0, [pc, #164]	@ (80018f8 <systemInit+0x1fc>)
 8001852:	f007 f8a8 	bl	80089a6 <HAL_UART_Receive_IT>
	HAL_CAN_Start(&hcan2);
 8001856:	482a      	ldr	r0, [pc, #168]	@ (8001900 <systemInit+0x204>)
 8001858:	f001 fee0 	bl	800361c <HAL_CAN_Start>
	HAL_CAN_ActivateNotification(&hcan2, CAN_IT_RX_FIFO0_MSG_PENDING);
 800185c:	2102      	movs	r1, #2
 800185e:	4828      	ldr	r0, [pc, #160]	@ (8001900 <systemInit+0x204>)
 8001860:	f002 f912 	bl	8003a88 <HAL_CAN_ActivateNotification>
	initialise_rtc_default(&hrtc);
 8001864:	4827      	ldr	r0, [pc, #156]	@ (8001904 <systemInit+0x208>)
 8001866:	f000 fe65 	bl	8002534 <initialise_rtc_default>
	HAL_TIM_Base_Start_IT(&htim6);
 800186a:	4827      	ldr	r0, [pc, #156]	@ (8001908 <systemInit+0x20c>)
 800186c:	f006 fcf2 	bl	8008254 <HAL_TIM_Base_Start_IT>
	HAL_TIM_Base_Start_IT(&htim7);
 8001870:	4826      	ldr	r0, [pc, #152]	@ (800190c <systemInit+0x210>)
 8001872:	f006 fcef 	bl	8008254 <HAL_TIM_Base_Start_IT>
}
 8001876:	bf00      	nop
 8001878:	3708      	adds	r7, #8
 800187a:	46bd      	mov	sp, r7
 800187c:	bd80      	pop	{r7, pc}
 800187e:	bf00      	nop
 8001880:	20000380 	.word	0x20000380
 8001884:	200000c4 	.word	0x200000c4
 8001888:	20000384 	.word	0x20000384
 800188c:	20000070 	.word	0x20000070
 8001890:	2000038c 	.word	0x2000038c
 8001894:	200003b5 	.word	0x200003b5
 8001898:	200003ac 	.word	0x200003ac
 800189c:	200005dc 	.word	0x200005dc
 80018a0:	200005ec 	.word	0x200005ec
 80018a4:	200005f4 	.word	0x200005f4
 80018a8:	20000604 	.word	0x20000604
 80018ac:	200003b8 	.word	0x200003b8
 80018b0:	200004b8 	.word	0x200004b8
 80018b4:	200005bc 	.word	0x200005bc
 80018b8:	200005c4 	.word	0x200005c4
 80018bc:	200005cc 	.word	0x200005cc
 80018c0:	20000138 	.word	0x20000138
 80018c4:	20000190 	.word	0x20000190
 80018c8:	200005da 	.word	0x200005da
 80018cc:	200005d4 	.word	0x200005d4
 80018d0:	200005d2 	.word	0x200005d2
 80018d4:	200005d8 	.word	0x200005d8
 80018d8:	2000038a 	.word	0x2000038a
 80018dc:	200003b4 	.word	0x200003b4
 80018e0:	200003b6 	.word	0x200003b6
 80018e4:	200003b7 	.word	0x200003b7
 80018e8:	2000061e 	.word	0x2000061e
 80018ec:	2000061c 	.word	0x2000061c
 80018f0:	2000061f 	.word	0x2000061f
 80018f4:	2000061d 	.word	0x2000061d
 80018f8:	20000338 	.word	0x20000338
 80018fc:	20000388 	.word	0x20000388
 8001900:	20000048 	.word	0x20000048
 8001904:	20000118 	.word	0x20000118
 8001908:	200002a8 	.word	0x200002a8
 800190c:	200002f0 	.word	0x200002f0

08001910 <gpio_set_config>:

void gpio_set_config() {
 8001910:	b590      	push	{r4, r7, lr}
 8001912:	b083      	sub	sp, #12
 8001914:	af00      	add	r7, sp, #0
	// Set LED gpio
	led_orange = create_GPIO_Config(GPIOB, GPIO_PIN_14);	// Orange LED (Heartbeat LED)
 8001916:	4c37      	ldr	r4, [pc, #220]	@ (80019f4 <gpio_set_config+0xe4>)
 8001918:	463b      	mov	r3, r7
 800191a:	f44f 4280 	mov.w	r2, #16384	@ 0x4000
 800191e:	4936      	ldr	r1, [pc, #216]	@ (80019f8 <gpio_set_config+0xe8>)
 8001920:	4618      	mov	r0, r3
 8001922:	f7ff f995 	bl	8000c50 <create_GPIO_Config>
 8001926:	4622      	mov	r2, r4
 8001928:	463b      	mov	r3, r7
 800192a:	e893 0003 	ldmia.w	r3, {r0, r1}
 800192e:	e882 0003 	stmia.w	r2, {r0, r1}
	led_green = create_GPIO_Config(GPIOB, GPIO_PIN_13);		// Green LED (Hard Drive LED)
 8001932:	4c32      	ldr	r4, [pc, #200]	@ (80019fc <gpio_set_config+0xec>)
 8001934:	463b      	mov	r3, r7
 8001936:	f44f 5200 	mov.w	r2, #8192	@ 0x2000
 800193a:	492f      	ldr	r1, [pc, #188]	@ (80019f8 <gpio_set_config+0xe8>)
 800193c:	4618      	mov	r0, r3
 800193e:	f7ff f987 	bl	8000c50 <create_GPIO_Config>
 8001942:	4622      	mov	r2, r4
 8001944:	463b      	mov	r3, r7
 8001946:	e893 0003 	ldmia.w	r3, {r0, r1}
 800194a:	e882 0003 	stmia.w	r2, {r0, r1}
	status_led = create_GPIO_Config(GPIOB, GPIO_PIN_12);	// Status LED
 800194e:	4c2c      	ldr	r4, [pc, #176]	@ (8001a00 <gpio_set_config+0xf0>)
 8001950:	463b      	mov	r3, r7
 8001952:	f44f 5280 	mov.w	r2, #4096	@ 0x1000
 8001956:	4928      	ldr	r1, [pc, #160]	@ (80019f8 <gpio_set_config+0xe8>)
 8001958:	4618      	mov	r0, r3
 800195a:	f7ff f979 	bl	8000c50 <create_GPIO_Config>
 800195e:	4622      	mov	r2, r4
 8001960:	463b      	mov	r3, r7
 8001962:	e893 0003 	ldmia.w	r3, {r0, r1}
 8001966:	e882 0003 	stmia.w	r2, {r0, r1}

	// SPI Flash 0 CS and WP
	cs_spi1 = create_GPIO_Config(GPIOC, GPIO_PIN_4);		// Change for SRAD
 800196a:	4c26      	ldr	r4, [pc, #152]	@ (8001a04 <gpio_set_config+0xf4>)
 800196c:	463b      	mov	r3, r7
 800196e:	2210      	movs	r2, #16
 8001970:	4925      	ldr	r1, [pc, #148]	@ (8001a08 <gpio_set_config+0xf8>)
 8001972:	4618      	mov	r0, r3
 8001974:	f7ff f96c 	bl	8000c50 <create_GPIO_Config>
 8001978:	4622      	mov	r2, r4
 800197a:	463b      	mov	r3, r7
 800197c:	e893 0003 	ldmia.w	r3, {r0, r1}
 8001980:	e882 0003 	stmia.w	r2, {r0, r1}
	wp_spi1 = create_GPIO_Config(GPIOA, GPIO_PIN_4);
 8001984:	4c21      	ldr	r4, [pc, #132]	@ (8001a0c <gpio_set_config+0xfc>)
 8001986:	463b      	mov	r3, r7
 8001988:	2210      	movs	r2, #16
 800198a:	4921      	ldr	r1, [pc, #132]	@ (8001a10 <gpio_set_config+0x100>)
 800198c:	4618      	mov	r0, r3
 800198e:	f7ff f95f 	bl	8000c50 <create_GPIO_Config>
 8001992:	4622      	mov	r2, r4
 8001994:	463b      	mov	r3, r7
 8001996:	e893 0003 	ldmia.w	r3, {r0, r1}
 800199a:	e882 0003 	stmia.w	r2, {r0, r1}

	// SPI Flash 1 CS and WP
	cs_spi2 = create_GPIO_Config(GPIOC, GPIO_PIN_1);		// Change for SRAD
 800199e:	4c1d      	ldr	r4, [pc, #116]	@ (8001a14 <gpio_set_config+0x104>)
 80019a0:	463b      	mov	r3, r7
 80019a2:	2202      	movs	r2, #2
 80019a4:	4918      	ldr	r1, [pc, #96]	@ (8001a08 <gpio_set_config+0xf8>)
 80019a6:	4618      	mov	r0, r3
 80019a8:	f7ff f952 	bl	8000c50 <create_GPIO_Config>
 80019ac:	4622      	mov	r2, r4
 80019ae:	463b      	mov	r3, r7
 80019b0:	e893 0003 	ldmia.w	r3, {r0, r1}
 80019b4:	e882 0003 	stmia.w	r2, {r0, r1}
	wp_spi2 = create_GPIO_Config(GPIOC, GPIO_PIN_0);
 80019b8:	4c17      	ldr	r4, [pc, #92]	@ (8001a18 <gpio_set_config+0x108>)
 80019ba:	463b      	mov	r3, r7
 80019bc:	2201      	movs	r2, #1
 80019be:	4912      	ldr	r1, [pc, #72]	@ (8001a08 <gpio_set_config+0xf8>)
 80019c0:	4618      	mov	r0, r3
 80019c2:	f7ff f945 	bl	8000c50 <create_GPIO_Config>
 80019c6:	4622      	mov	r2, r4
 80019c8:	463b      	mov	r3, r7
 80019ca:	e893 0003 	ldmia.w	r3, {r0, r1}
 80019ce:	e882 0003 	stmia.w	r2, {r0, r1}

	// Flight Jumper GPIO Input
	jmp_flight = create_GPIO_Config(GPIOB, GPIO_PIN_1);
 80019d2:	4c12      	ldr	r4, [pc, #72]	@ (8001a1c <gpio_set_config+0x10c>)
 80019d4:	463b      	mov	r3, r7
 80019d6:	2202      	movs	r2, #2
 80019d8:	4907      	ldr	r1, [pc, #28]	@ (80019f8 <gpio_set_config+0xe8>)
 80019da:	4618      	mov	r0, r3
 80019dc:	f7ff f938 	bl	8000c50 <create_GPIO_Config>
 80019e0:	4622      	mov	r2, r4
 80019e2:	463b      	mov	r3, r7
 80019e4:	e893 0003 	ldmia.w	r3, {r0, r1}
 80019e8:	e882 0003 	stmia.w	r2, {r0, r1}
}
 80019ec:	bf00      	nop
 80019ee:	370c      	adds	r7, #12
 80019f0:	46bd      	mov	sp, r7
 80019f2:	bd90      	pop	{r4, r7, pc}
 80019f4:	200005dc 	.word	0x200005dc
 80019f8:	40020400 	.word	0x40020400
 80019fc:	200005e4 	.word	0x200005e4
 8001a00:	200005ec 	.word	0x200005ec
 8001a04:	200005f4 	.word	0x200005f4
 8001a08:	40020800 	.word	0x40020800
 8001a0c:	200005fc 	.word	0x200005fc
 8001a10:	40020000 	.word	0x40020000
 8001a14:	20000604 	.word	0x20000604
 8001a18:	2000060c 	.word	0x2000060c
 8001a1c:	20000614 	.word	0x20000614

08001a20 <handleCAN>:

void handleCAN() {
 8001a20:	b580      	push	{r7, lr}
 8001a22:	b084      	sub	sp, #16
 8001a24:	af02      	add	r7, sp, #8
	// Process "clock-sync". Change flight-state to "rocket_loaded"
	if(CAN_RxHeader.StdId == CLK_SYNC_ID) {
 8001a26:	4b34      	ldr	r3, [pc, #208]	@ (8001af8 <handleCAN+0xd8>)
 8001a28:	681b      	ldr	r3, [r3, #0]
 8001a2a:	f240 72ff 	movw	r2, #2047	@ 0x7ff
 8001a2e:	4293      	cmp	r3, r2
 8001a30:	d10e      	bne.n	8001a50 <handleCAN+0x30>
		flight_state = LOADED;
 8001a32:	4b32      	ldr	r3, [pc, #200]	@ (8001afc <handleCAN+0xdc>)
 8001a34:	2201      	movs	r2, #1
 8001a36:	701a      	strb	r2, [r3, #0]
		uint8_t TxData[1] = {0x00};
 8001a38:	2300      	movs	r3, #0
 8001a3a:	713b      	strb	r3, [r7, #4]
		sendCAN_TxMessage(&hcan2, 1, TxData, &CAN_TxMailbox, CLK_SYNC_ID);
 8001a3c:	1d3a      	adds	r2, r7, #4
 8001a3e:	f240 73ff 	movw	r3, #2047	@ 0x7ff
 8001a42:	9300      	str	r3, [sp, #0]
 8001a44:	4b2e      	ldr	r3, [pc, #184]	@ (8001b00 <handleCAN+0xe0>)
 8001a46:	2101      	movs	r1, #1
 8001a48:	482e      	ldr	r0, [pc, #184]	@ (8001b04 <handleCAN+0xe4>)
 8001a4a:	f7fe ff09 	bl	8000860 <sendCAN_TxMessage>

	// Transmit "confirmation" of dummy over UART
	else if(CAN_RxHeader.StdId == DUMMY_ID) {
		send_uart_hex(&huart2, sysStatus);
	}
}
 8001a4e:	e04e      	b.n	8001aee <handleCAN+0xce>
	else if(CAN_RxHeader.StdId == TX_BME280_0) {
 8001a50:	4b29      	ldr	r3, [pc, #164]	@ (8001af8 <handleCAN+0xd8>)
 8001a52:	681b      	ldr	r3, [r3, #0]
 8001a54:	f240 5201 	movw	r2, #1281	@ 0x501
 8001a58:	4293      	cmp	r3, r2
 8001a5a:	d109      	bne.n	8001a70 <handleCAN+0x50>
		sendCAN_TxMessage(&hcan2, 6, bme280_data_0, &CAN_TxMailbox, TX_BME280_0);
 8001a5c:	f240 5301 	movw	r3, #1281	@ 0x501
 8001a60:	9300      	str	r3, [sp, #0]
 8001a62:	4b27      	ldr	r3, [pc, #156]	@ (8001b00 <handleCAN+0xe0>)
 8001a64:	4a28      	ldr	r2, [pc, #160]	@ (8001b08 <handleCAN+0xe8>)
 8001a66:	2106      	movs	r1, #6
 8001a68:	4826      	ldr	r0, [pc, #152]	@ (8001b04 <handleCAN+0xe4>)
 8001a6a:	f7fe fef9 	bl	8000860 <sendCAN_TxMessage>
}
 8001a6e:	e03e      	b.n	8001aee <handleCAN+0xce>
	else if(CAN_RxHeader.StdId == TX_BME280_1) {
 8001a70:	4b21      	ldr	r3, [pc, #132]	@ (8001af8 <handleCAN+0xd8>)
 8001a72:	681b      	ldr	r3, [r3, #0]
 8001a74:	f240 5202 	movw	r2, #1282	@ 0x502
 8001a78:	4293      	cmp	r3, r2
 8001a7a:	d109      	bne.n	8001a90 <handleCAN+0x70>
		sendCAN_TxMessage(&hcan2, 6, bme280_data_1, &CAN_TxMailbox, TX_BME280_1);
 8001a7c:	f240 5302 	movw	r3, #1282	@ 0x502
 8001a80:	9300      	str	r3, [sp, #0]
 8001a82:	4b1f      	ldr	r3, [pc, #124]	@ (8001b00 <handleCAN+0xe0>)
 8001a84:	4a21      	ldr	r2, [pc, #132]	@ (8001b0c <handleCAN+0xec>)
 8001a86:	2106      	movs	r1, #6
 8001a88:	481e      	ldr	r0, [pc, #120]	@ (8001b04 <handleCAN+0xe4>)
 8001a8a:	f7fe fee9 	bl	8000860 <sendCAN_TxMessage>
}
 8001a8e:	e02e      	b.n	8001aee <handleCAN+0xce>
	else if(CAN_RxHeader.StdId == TX_ACCEL) {
 8001a90:	4b19      	ldr	r3, [pc, #100]	@ (8001af8 <handleCAN+0xd8>)
 8001a92:	681b      	ldr	r3, [r3, #0]
 8001a94:	f240 5203 	movw	r2, #1283	@ 0x503
 8001a98:	4293      	cmp	r3, r2
 8001a9a:	d109      	bne.n	8001ab0 <handleCAN+0x90>
		sendCAN_TxMessage(&hcan2, 6, accel_data, &CAN_TxMailbox, TX_ACCEL);
 8001a9c:	f240 5303 	movw	r3, #1283	@ 0x503
 8001aa0:	9300      	str	r3, [sp, #0]
 8001aa2:	4b17      	ldr	r3, [pc, #92]	@ (8001b00 <handleCAN+0xe0>)
 8001aa4:	4a1a      	ldr	r2, [pc, #104]	@ (8001b10 <handleCAN+0xf0>)
 8001aa6:	2106      	movs	r1, #6
 8001aa8:	4816      	ldr	r0, [pc, #88]	@ (8001b04 <handleCAN+0xe4>)
 8001aaa:	f7fe fed9 	bl	8000860 <sendCAN_TxMessage>
}
 8001aae:	e01e      	b.n	8001aee <handleCAN+0xce>
	else if(CAN_RxHeader.StdId == TX_STATUS) {
 8001ab0:	4b11      	ldr	r3, [pc, #68]	@ (8001af8 <handleCAN+0xd8>)
 8001ab2:	681b      	ldr	r3, [r3, #0]
 8001ab4:	f240 5204 	movw	r2, #1284	@ 0x504
 8001ab8:	4293      	cmp	r3, r2
 8001aba:	d10d      	bne.n	8001ad8 <handleCAN+0xb8>
		uint8_t combState = combine_system_status();
 8001abc:	f000 f9a8 	bl	8001e10 <combine_system_status>
 8001ac0:	4603      	mov	r3, r0
 8001ac2:	70fb      	strb	r3, [r7, #3]
		sendCAN_TxMessage(&hcan2, 1, &combState, &CAN_TxMailbox, TX_STATUS);
 8001ac4:	1cfa      	adds	r2, r7, #3
 8001ac6:	f240 5304 	movw	r3, #1284	@ 0x504
 8001aca:	9300      	str	r3, [sp, #0]
 8001acc:	4b0c      	ldr	r3, [pc, #48]	@ (8001b00 <handleCAN+0xe0>)
 8001ace:	2101      	movs	r1, #1
 8001ad0:	480c      	ldr	r0, [pc, #48]	@ (8001b04 <handleCAN+0xe4>)
 8001ad2:	f7fe fec5 	bl	8000860 <sendCAN_TxMessage>
}
 8001ad6:	e00a      	b.n	8001aee <handleCAN+0xce>
	else if(CAN_RxHeader.StdId == DUMMY_ID) {
 8001ad8:	4b07      	ldr	r3, [pc, #28]	@ (8001af8 <handleCAN+0xd8>)
 8001ada:	681b      	ldr	r3, [r3, #0]
 8001adc:	f5b3 6fe0 	cmp.w	r3, #1792	@ 0x700
 8001ae0:	d105      	bne.n	8001aee <handleCAN+0xce>
		send_uart_hex(&huart2, sysStatus);
 8001ae2:	4b0c      	ldr	r3, [pc, #48]	@ (8001b14 <handleCAN+0xf4>)
 8001ae4:	781b      	ldrb	r3, [r3, #0]
 8001ae6:	4619      	mov	r1, r3
 8001ae8:	480b      	ldr	r0, [pc, #44]	@ (8001b18 <handleCAN+0xf8>)
 8001aea:	f001 fae6 	bl	80030ba <send_uart_hex>
}
 8001aee:	bf00      	nop
 8001af0:	3708      	adds	r7, #8
 8001af2:	46bd      	mov	sp, r7
 8001af4:	bd80      	pop	{r7, pc}
 8001af6:	bf00      	nop
 8001af8:	20000390 	.word	0x20000390
 8001afc:	2000061e 	.word	0x2000061e
 8001b00:	2000038c 	.word	0x2000038c
 8001b04:	20000048 	.word	0x20000048
 8001b08:	200005c4 	.word	0x200005c4
 8001b0c:	200005cc 	.word	0x200005cc
 8001b10:	200005bc 	.word	0x200005bc
 8001b14:	2000061d 	.word	0x2000061d
 8001b18:	20000338 	.word	0x20000338

08001b1c <handleUART>:

void handleUART() {
 8001b1c:	b590      	push	{r4, r7, lr}
 8001b1e:	b085      	sub	sp, #20
 8001b20:	af02      	add	r7, sp, #8
	UART_HandleTypeDef *huart = &huart2;
 8001b22:	4b93      	ldr	r3, [pc, #588]	@ (8001d70 <handleUART+0x254>)
 8001b24:	607b      	str	r3, [r7, #4]

	// Send Heartbeat to UART (data_rx[0] = "h")
	if (UARTRxData[0] == 0x68) {
 8001b26:	4b93      	ldr	r3, [pc, #588]	@ (8001d74 <handleUART+0x258>)
 8001b28:	781b      	ldrb	r3, [r3, #0]
 8001b2a:	2b68      	cmp	r3, #104	@ 0x68
 8001b2c:	d109      	bne.n	8001b42 <handleUART+0x26>
		heartbeatUART(huart);
 8001b2e:	6878      	ldr	r0, [r7, #4]
 8001b30:	f000 fa2e 	bl	8001f90 <heartbeatUART>
		send_uart_hex(huart, sysStatus);
 8001b34:	4b90      	ldr	r3, [pc, #576]	@ (8001d78 <handleUART+0x25c>)
 8001b36:	781b      	ldrb	r3, [r3, #0]
 8001b38:	4619      	mov	r1, r3
 8001b3a:	6878      	ldr	r0, [r7, #4]
 8001b3c:	f001 fabd 	bl	80030ba <send_uart_hex>
 8001b40:	e13c      	b.n	8001dbc <handleUART+0x2a0>
	}

/***************************** SPI Flash ************************************************/
	// Erase specified flash chip (data_rx[0]  = "e")
	else if (UARTRxData[0] == 0x65) {
 8001b42:	4b8c      	ldr	r3, [pc, #560]	@ (8001d74 <handleUART+0x258>)
 8001b44:	781b      	ldrb	r3, [r3, #0]
 8001b46:	2b65      	cmp	r3, #101	@ 0x65
 8001b48:	d132      	bne.n	8001bb0 <handleUART+0x94>
		HAL_GPIO_WritePin(led_green.GPIOx, led_green.GPIO_Pin, GPIO_PIN_SET);		// Activate the "write out" LED
 8001b4a:	4b8c      	ldr	r3, [pc, #560]	@ (8001d7c <handleUART+0x260>)
 8001b4c:	681b      	ldr	r3, [r3, #0]
 8001b4e:	4a8b      	ldr	r2, [pc, #556]	@ (8001d7c <handleUART+0x260>)
 8001b50:	8891      	ldrh	r1, [r2, #4]
 8001b52:	2201      	movs	r2, #1
 8001b54:	4618      	mov	r0, r3
 8001b56:	f003 f9d1 	bl	8004efc <HAL_GPIO_WritePin>
		if(decodeASCII(UARTRxData[1]) == 0) {
 8001b5a:	4b86      	ldr	r3, [pc, #536]	@ (8001d74 <handleUART+0x258>)
 8001b5c:	785b      	ldrb	r3, [r3, #1]
 8001b5e:	4618      	mov	r0, r3
 8001b60:	f000 f93c 	bl	8001ddc <decodeASCII>
 8001b64:	4603      	mov	r3, r0
 8001b66:	2b00      	cmp	r3, #0
 8001b68:	d106      	bne.n	8001b78 <handleUART+0x5c>
			eraseFlashSPI(&hspi1, huart, cs_spi1);
 8001b6a:	4b85      	ldr	r3, [pc, #532]	@ (8001d80 <handleUART+0x264>)
 8001b6c:	cb0c      	ldmia	r3, {r2, r3}
 8001b6e:	6879      	ldr	r1, [r7, #4]
 8001b70:	4884      	ldr	r0, [pc, #528]	@ (8001d84 <handleUART+0x268>)
 8001b72:	f000 fa19 	bl	8001fa8 <eraseFlashSPI>
 8001b76:	e00d      	b.n	8001b94 <handleUART+0x78>
		} else if (decodeASCII(UARTRxData[1]) == 1) {
 8001b78:	4b7e      	ldr	r3, [pc, #504]	@ (8001d74 <handleUART+0x258>)
 8001b7a:	785b      	ldrb	r3, [r3, #1]
 8001b7c:	4618      	mov	r0, r3
 8001b7e:	f000 f92d 	bl	8001ddc <decodeASCII>
 8001b82:	4603      	mov	r3, r0
 8001b84:	2b01      	cmp	r3, #1
 8001b86:	d105      	bne.n	8001b94 <handleUART+0x78>
			eraseFlashSPI(&hspi2, huart, cs_spi2);
 8001b88:	4b7f      	ldr	r3, [pc, #508]	@ (8001d88 <handleUART+0x26c>)
 8001b8a:	cb0c      	ldmia	r3, {r2, r3}
 8001b8c:	6879      	ldr	r1, [r7, #4]
 8001b8e:	487f      	ldr	r0, [pc, #508]	@ (8001d8c <handleUART+0x270>)
 8001b90:	f000 fa0a 	bl	8001fa8 <eraseFlashSPI>
		}

		// Assign the value of next_blank_page to the larger of next_blank_page0 and next_blank_page1
		next_blank_page = find_next_blank_page_all();
 8001b94:	f000 f980 	bl	8001e98 <find_next_blank_page_all>
 8001b98:	4603      	mov	r3, r0
 8001b9a:	4a7d      	ldr	r2, [pc, #500]	@ (8001d90 <handleUART+0x274>)
 8001b9c:	6013      	str	r3, [r2, #0]
		HAL_GPIO_WritePin(led_green.GPIOx, led_green.GPIO_Pin,GPIO_PIN_RESET);	// Deactivate the "write out" LED
 8001b9e:	4b77      	ldr	r3, [pc, #476]	@ (8001d7c <handleUART+0x260>)
 8001ba0:	681b      	ldr	r3, [r3, #0]
 8001ba2:	4a76      	ldr	r2, [pc, #472]	@ (8001d7c <handleUART+0x260>)
 8001ba4:	8891      	ldrh	r1, [r2, #4]
 8001ba6:	2200      	movs	r2, #0
 8001ba8:	4618      	mov	r0, r3
 8001baa:	f003 f9a7 	bl	8004efc <HAL_GPIO_WritePin>
 8001bae:	e105      	b.n	8001dbc <handleUART+0x2a0>
	}

	// Read data from specified flash chip (data_rx[0] = "r")
	else if (UARTRxData[0] == 0x72) {
 8001bb0:	4b70      	ldr	r3, [pc, #448]	@ (8001d74 <handleUART+0x258>)
 8001bb2:	781b      	ldrb	r3, [r3, #0]
 8001bb4:	2b72      	cmp	r3, #114	@ 0x72
 8001bb6:	d12d      	bne.n	8001c14 <handleUART+0xf8>
		HAL_GPIO_WritePin(led_green.GPIOx, led_green.GPIO_Pin,GPIO_PIN_SET);
 8001bb8:	4b70      	ldr	r3, [pc, #448]	@ (8001d7c <handleUART+0x260>)
 8001bba:	681b      	ldr	r3, [r3, #0]
 8001bbc:	4a6f      	ldr	r2, [pc, #444]	@ (8001d7c <handleUART+0x260>)
 8001bbe:	8891      	ldrh	r1, [r2, #4]
 8001bc0:	2201      	movs	r2, #1
 8001bc2:	4618      	mov	r0, r3
 8001bc4:	f003 f99a 	bl	8004efc <HAL_GPIO_WritePin>
		if(decodeASCII(UARTRxData[1]) == 0) {
 8001bc8:	4b6a      	ldr	r3, [pc, #424]	@ (8001d74 <handleUART+0x258>)
 8001bca:	785b      	ldrb	r3, [r3, #1]
 8001bcc:	4618      	mov	r0, r3
 8001bce:	f000 f905 	bl	8001ddc <decodeASCII>
 8001bd2:	4603      	mov	r3, r0
 8001bd4:	2b00      	cmp	r3, #0
 8001bd6:	d106      	bne.n	8001be6 <handleUART+0xca>
			readFlashToUART(&hspi1, huart, cs_spi1);
 8001bd8:	4b69      	ldr	r3, [pc, #420]	@ (8001d80 <handleUART+0x264>)
 8001bda:	cb0c      	ldmia	r3, {r2, r3}
 8001bdc:	6879      	ldr	r1, [r7, #4]
 8001bde:	4869      	ldr	r0, [pc, #420]	@ (8001d84 <handleUART+0x268>)
 8001be0:	f000 fa04 	bl	8001fec <readFlashToUART>
 8001be4:	e00d      	b.n	8001c02 <handleUART+0xe6>
		} else if (decodeASCII(UARTRxData[1]) == 1) {
 8001be6:	4b63      	ldr	r3, [pc, #396]	@ (8001d74 <handleUART+0x258>)
 8001be8:	785b      	ldrb	r3, [r3, #1]
 8001bea:	4618      	mov	r0, r3
 8001bec:	f000 f8f6 	bl	8001ddc <decodeASCII>
 8001bf0:	4603      	mov	r3, r0
 8001bf2:	2b01      	cmp	r3, #1
 8001bf4:	d105      	bne.n	8001c02 <handleUART+0xe6>
			readFlashToUART(&hspi2, huart, cs_spi2);
 8001bf6:	4b64      	ldr	r3, [pc, #400]	@ (8001d88 <handleUART+0x26c>)
 8001bf8:	cb0c      	ldmia	r3, {r2, r3}
 8001bfa:	6879      	ldr	r1, [r7, #4]
 8001bfc:	4863      	ldr	r0, [pc, #396]	@ (8001d8c <handleUART+0x270>)
 8001bfe:	f000 f9f5 	bl	8001fec <readFlashToUART>
		}
		HAL_GPIO_WritePin(led_green.GPIOx, led_green.GPIO_Pin,GPIO_PIN_RESET);
 8001c02:	4b5e      	ldr	r3, [pc, #376]	@ (8001d7c <handleUART+0x260>)
 8001c04:	681b      	ldr	r3, [r3, #0]
 8001c06:	4a5d      	ldr	r2, [pc, #372]	@ (8001d7c <handleUART+0x260>)
 8001c08:	8891      	ldrh	r1, [r2, #4]
 8001c0a:	2200      	movs	r2, #0
 8001c0c:	4618      	mov	r0, r3
 8001c0e:	f003 f975 	bl	8004efc <HAL_GPIO_WritePin>
 8001c12:	e0d3      	b.n	8001dbc <handleUART+0x2a0>
	}

	// Read Manufacturer over SPI (data_rx[0] = "m")
	else if (UARTRxData[0] == 0x6d) {
 8001c14:	4b57      	ldr	r3, [pc, #348]	@ (8001d74 <handleUART+0x258>)
 8001c16:	781b      	ldrb	r3, [r3, #0]
 8001c18:	2b6d      	cmp	r3, #109	@ 0x6d
 8001c1a:	d11e      	bne.n	8001c5a <handleUART+0x13e>
		if(decodeASCII(UARTRxData[1]) == 0) {
 8001c1c:	4b55      	ldr	r3, [pc, #340]	@ (8001d74 <handleUART+0x258>)
 8001c1e:	785b      	ldrb	r3, [r3, #1]
 8001c20:	4618      	mov	r0, r3
 8001c22:	f000 f8db 	bl	8001ddc <decodeASCII>
 8001c26:	4603      	mov	r3, r0
 8001c28:	2b00      	cmp	r3, #0
 8001c2a:	d106      	bne.n	8001c3a <handleUART+0x11e>
			readFlashManuSPI(&hspi1, huart, cs_spi1);
 8001c2c:	4b54      	ldr	r3, [pc, #336]	@ (8001d80 <handleUART+0x264>)
 8001c2e:	cb0c      	ldmia	r3, {r2, r3}
 8001c30:	6879      	ldr	r1, [r7, #4]
 8001c32:	4854      	ldr	r0, [pc, #336]	@ (8001d84 <handleUART+0x268>)
 8001c34:	f000 fa3a 	bl	80020ac <readFlashManuSPI>
 8001c38:	e0c0      	b.n	8001dbc <handleUART+0x2a0>
		} else if (decodeASCII(UARTRxData[1]) == 1) {
 8001c3a:	4b4e      	ldr	r3, [pc, #312]	@ (8001d74 <handleUART+0x258>)
 8001c3c:	785b      	ldrb	r3, [r3, #1]
 8001c3e:	4618      	mov	r0, r3
 8001c40:	f000 f8cc 	bl	8001ddc <decodeASCII>
 8001c44:	4603      	mov	r3, r0
 8001c46:	2b01      	cmp	r3, #1
 8001c48:	f040 80b8 	bne.w	8001dbc <handleUART+0x2a0>
			readFlashManuSPI(&hspi2, huart, cs_spi2);
 8001c4c:	4b4e      	ldr	r3, [pc, #312]	@ (8001d88 <handleUART+0x26c>)
 8001c4e:	cb0c      	ldmia	r3, {r2, r3}
 8001c50:	6879      	ldr	r1, [r7, #4]
 8001c52:	484e      	ldr	r0, [pc, #312]	@ (8001d8c <handleUART+0x270>)
 8001c54:	f000 fa2a 	bl	80020ac <readFlashManuSPI>
 8001c58:	e0b0      	b.n	8001dbc <handleUART+0x2a0>
		}
	}

	// Write a page over SPI (data_rx[0] = "w")
	else if (UARTRxData[0] == 0x77) {
 8001c5a:	4b46      	ldr	r3, [pc, #280]	@ (8001d74 <handleUART+0x258>)
 8001c5c:	781b      	ldrb	r3, [r3, #0]
 8001c5e:	2b77      	cmp	r3, #119	@ 0x77
 8001c60:	d11e      	bne.n	8001ca0 <handleUART+0x184>
		if(decodeASCII(UARTRxData[1]) == 0) {
 8001c62:	4b44      	ldr	r3, [pc, #272]	@ (8001d74 <handleUART+0x258>)
 8001c64:	785b      	ldrb	r3, [r3, #1]
 8001c66:	4618      	mov	r0, r3
 8001c68:	f000 f8b8 	bl	8001ddc <decodeASCII>
 8001c6c:	4603      	mov	r3, r0
 8001c6e:	2b00      	cmp	r3, #0
 8001c70:	d106      	bne.n	8001c80 <handleUART+0x164>
			writePageSPI_W(&hspi1, huart, cs_spi1);
 8001c72:	4b43      	ldr	r3, [pc, #268]	@ (8001d80 <handleUART+0x264>)
 8001c74:	cb0c      	ldmia	r3, {r2, r3}
 8001c76:	6879      	ldr	r1, [r7, #4]
 8001c78:	4842      	ldr	r0, [pc, #264]	@ (8001d84 <handleUART+0x268>)
 8001c7a:	f000 fa37 	bl	80020ec <writePageSPI_W>
 8001c7e:	e09d      	b.n	8001dbc <handleUART+0x2a0>
		} else if (decodeASCII(UARTRxData[1]) == 1) {
 8001c80:	4b3c      	ldr	r3, [pc, #240]	@ (8001d74 <handleUART+0x258>)
 8001c82:	785b      	ldrb	r3, [r3, #1]
 8001c84:	4618      	mov	r0, r3
 8001c86:	f000 f8a9 	bl	8001ddc <decodeASCII>
 8001c8a:	4603      	mov	r3, r0
 8001c8c:	2b01      	cmp	r3, #1
 8001c8e:	f040 8095 	bne.w	8001dbc <handleUART+0x2a0>
			writePageSPI_W(&hspi2, huart, cs_spi2);
 8001c92:	4b3d      	ldr	r3, [pc, #244]	@ (8001d88 <handleUART+0x26c>)
 8001c94:	cb0c      	ldmia	r3, {r2, r3}
 8001c96:	6879      	ldr	r1, [r7, #4]
 8001c98:	483c      	ldr	r0, [pc, #240]	@ (8001d8c <handleUART+0x270>)
 8001c9a:	f000 fa27 	bl	80020ec <writePageSPI_W>
 8001c9e:	e08d      	b.n	8001dbc <handleUART+0x2a0>
		}
	}

	// Software reset flash chip over SPI (data_rx[0] = "x")
	else if (UARTRxData[0] == 0x78) {
 8001ca0:	4b34      	ldr	r3, [pc, #208]	@ (8001d74 <handleUART+0x258>)
 8001ca2:	781b      	ldrb	r3, [r3, #0]
 8001ca4:	2b78      	cmp	r3, #120	@ 0x78
 8001ca6:	d11d      	bne.n	8001ce4 <handleUART+0x1c8>
		if(decodeASCII(UARTRxData[1]) == 0) {
 8001ca8:	4b32      	ldr	r3, [pc, #200]	@ (8001d74 <handleUART+0x258>)
 8001caa:	785b      	ldrb	r3, [r3, #1]
 8001cac:	4618      	mov	r0, r3
 8001cae:	f000 f895 	bl	8001ddc <decodeASCII>
 8001cb2:	4603      	mov	r3, r0
 8001cb4:	2b00      	cmp	r3, #0
 8001cb6:	d106      	bne.n	8001cc6 <handleUART+0x1aa>
			resetSPIFlash(&hspi1, huart, cs_spi1);
 8001cb8:	4b31      	ldr	r3, [pc, #196]	@ (8001d80 <handleUART+0x264>)
 8001cba:	cb0c      	ldmia	r3, {r2, r3}
 8001cbc:	6879      	ldr	r1, [r7, #4]
 8001cbe:	4831      	ldr	r0, [pc, #196]	@ (8001d84 <handleUART+0x268>)
 8001cc0:	f000 fa68 	bl	8002194 <resetSPIFlash>
 8001cc4:	e07a      	b.n	8001dbc <handleUART+0x2a0>
		} else if (decodeASCII(UARTRxData[1]) == 1) {
 8001cc6:	4b2b      	ldr	r3, [pc, #172]	@ (8001d74 <handleUART+0x258>)
 8001cc8:	785b      	ldrb	r3, [r3, #1]
 8001cca:	4618      	mov	r0, r3
 8001ccc:	f000 f886 	bl	8001ddc <decodeASCII>
 8001cd0:	4603      	mov	r3, r0
 8001cd2:	2b01      	cmp	r3, #1
 8001cd4:	d172      	bne.n	8001dbc <handleUART+0x2a0>
			resetSPIFlash(&hspi2, huart, cs_spi2);
 8001cd6:	4b2c      	ldr	r3, [pc, #176]	@ (8001d88 <handleUART+0x26c>)
 8001cd8:	cb0c      	ldmia	r3, {r2, r3}
 8001cda:	6879      	ldr	r1, [r7, #4]
 8001cdc:	482b      	ldr	r0, [pc, #172]	@ (8001d8c <handleUART+0x270>)
 8001cde:	f000 fa59 	bl	8002194 <resetSPIFlash>
 8001ce2:	e06b      	b.n	8001dbc <handleUART+0x2a0>
		}
	}

/*********************************** I2C Accelerometer ***********************************/
	// Read Accelerometer WhoAmI (data_rx[0] = "c")
	else if (UARTRxData[0] == 0x63) {
 8001ce4:	4b23      	ldr	r3, [pc, #140]	@ (8001d74 <handleUART+0x258>)
 8001ce6:	781b      	ldrb	r3, [r3, #0]
 8001ce8:	2b63      	cmp	r3, #99	@ 0x63
 8001cea:	d106      	bne.n	8001cfa <handleUART+0x1de>
		checkAccelWhoAmI(i2c_accel, huart);
 8001cec:	4b29      	ldr	r3, [pc, #164]	@ (8001d94 <handleUART+0x278>)
 8001cee:	681b      	ldr	r3, [r3, #0]
 8001cf0:	6879      	ldr	r1, [r7, #4]
 8001cf2:	4618      	mov	r0, r3
 8001cf4:	f000 fa66 	bl	80021c4 <checkAccelWhoAmI>
 8001cf8:	e060      	b.n	8001dbc <handleUART+0x2a0>
	}

	// Read the accelerometer and print to the UART[0] (data_rx [0] = "a")
	else if (UARTRxData[0] == 0x61) {
 8001cfa:	4b1e      	ldr	r3, [pc, #120]	@ (8001d74 <handleUART+0x258>)
 8001cfc:	781b      	ldrb	r3, [r3, #0]
 8001cfe:	2b61      	cmp	r3, #97	@ 0x61
 8001d00:	d103      	bne.n	8001d0a <handleUART+0x1ee>
		accelToUART(huart);
 8001d02:	6878      	ldr	r0, [r7, #4]
 8001d04:	f000 fa72 	bl	80021ec <accelToUART>
 8001d08:	e058      	b.n	8001dbc <handleUART+0x2a0>
	}

/********************************** I2C BME280 *******************************************/
	// Read the temp sensor ID and print to the UART[0] (data_rx [0]= "b")
	else if (UARTRxData[0] == 0x62) {
 8001d0a:	4b1a      	ldr	r3, [pc, #104]	@ (8001d74 <handleUART+0x258>)
 8001d0c:	781b      	ldrb	r3, [r3, #0]
 8001d0e:	2b62      	cmp	r3, #98	@ 0x62
 8001d10:	d10d      	bne.n	8001d2e <handleUART+0x212>
		readTempSensorID(i2c_bme280, huart, decodeASCII(UARTRxData[1]));
 8001d12:	4b21      	ldr	r3, [pc, #132]	@ (8001d98 <handleUART+0x27c>)
 8001d14:	681c      	ldr	r4, [r3, #0]
 8001d16:	4b17      	ldr	r3, [pc, #92]	@ (8001d74 <handleUART+0x258>)
 8001d18:	785b      	ldrb	r3, [r3, #1]
 8001d1a:	4618      	mov	r0, r3
 8001d1c:	f000 f85e 	bl	8001ddc <decodeASCII>
 8001d20:	4603      	mov	r3, r0
 8001d22:	461a      	mov	r2, r3
 8001d24:	6879      	ldr	r1, [r7, #4]
 8001d26:	4620      	mov	r0, r4
 8001d28:	f000 fa7c 	bl	8002224 <readTempSensorID>
 8001d2c:	e046      	b.n	8001dbc <handleUART+0x2a0>
	}

	// Read the temp sensor calibration registers and print to the UART (data_rx[0] = "p")
	else if (UARTRxData[0] == 0x70) {
 8001d2e:	4b11      	ldr	r3, [pc, #68]	@ (8001d74 <handleUART+0x258>)
 8001d30:	781b      	ldrb	r3, [r3, #0]
 8001d32:	2b70      	cmp	r3, #112	@ 0x70
 8001d34:	d10d      	bne.n	8001d52 <handleUART+0x236>
		readTempCalibration(i2c_bme280, huart, decodeASCII(UARTRxData[1]));
 8001d36:	4b18      	ldr	r3, [pc, #96]	@ (8001d98 <handleUART+0x27c>)
 8001d38:	681c      	ldr	r4, [r3, #0]
 8001d3a:	4b0e      	ldr	r3, [pc, #56]	@ (8001d74 <handleUART+0x258>)
 8001d3c:	785b      	ldrb	r3, [r3, #1]
 8001d3e:	4618      	mov	r0, r3
 8001d40:	f000 f84c 	bl	8001ddc <decodeASCII>
 8001d44:	4603      	mov	r3, r0
 8001d46:	461a      	mov	r2, r3
 8001d48:	6879      	ldr	r1, [r7, #4]
 8001d4a:	4620      	mov	r0, r4
 8001d4c:	f000 fa7f 	bl	800224e <readTempCalibration>
 8001d50:	e034      	b.n	8001dbc <handleUART+0x2a0>
	}

	// Read the temp sensor and print to the UART[0] (data_rx [0]= "t")
	else if (UARTRxData[0] == 0x74) {
 8001d52:	4b08      	ldr	r3, [pc, #32]	@ (8001d74 <handleUART+0x258>)
 8001d54:	781b      	ldrb	r3, [r3, #0]
 8001d56:	2b74      	cmp	r3, #116	@ 0x74
 8001d58:	d120      	bne.n	8001d9c <handleUART+0x280>
		readTempSensor(huart, decodeASCII(UARTRxData[1]));
 8001d5a:	4b06      	ldr	r3, [pc, #24]	@ (8001d74 <handleUART+0x258>)
 8001d5c:	785b      	ldrb	r3, [r3, #1]
 8001d5e:	4618      	mov	r0, r3
 8001d60:	f000 f83c 	bl	8001ddc <decodeASCII>
 8001d64:	4603      	mov	r3, r0
 8001d66:	4619      	mov	r1, r3
 8001d68:	6878      	ldr	r0, [r7, #4]
 8001d6a:	f000 fac7 	bl	80022fc <readTempSensor>
 8001d6e:	e025      	b.n	8001dbc <handleUART+0x2a0>
 8001d70:	20000338 	.word	0x20000338
 8001d74:	20000388 	.word	0x20000388
 8001d78:	2000061d 	.word	0x2000061d
 8001d7c:	200005e4 	.word	0x200005e4
 8001d80:	200005f4 	.word	0x200005f4
 8001d84:	20000138 	.word	0x20000138
 8001d88:	20000604 	.word	0x20000604
 8001d8c:	20000190 	.word	0x20000190
 8001d90:	200005d4 	.word	0x200005d4
 8001d94:	20000380 	.word	0x20000380
 8001d98:	20000384 	.word	0x20000384
	}

	/********************************** CAN Bus *******************************************/
	// Send the second byte received over the CAN bus as a payload with id 0x700 (data_rx [0]= "n")
	else if (UARTRxData[0] == 0x6E) {
 8001d9c:	4b0c      	ldr	r3, [pc, #48]	@ (8001dd0 <handleUART+0x2b4>)
 8001d9e:	781b      	ldrb	r3, [r3, #0]
 8001da0:	2b6e      	cmp	r3, #110	@ 0x6e
 8001da2:	d10b      	bne.n	8001dbc <handleUART+0x2a0>
		uint8_t TxData[1] = {UARTRxData[1]};
 8001da4:	4b0a      	ldr	r3, [pc, #40]	@ (8001dd0 <handleUART+0x2b4>)
 8001da6:	785b      	ldrb	r3, [r3, #1]
 8001da8:	703b      	strb	r3, [r7, #0]
		sendCAN_TxMessage(&hcan2, 1, TxData, &CAN_TxMailbox, DUMMY_ID);
 8001daa:	463a      	mov	r2, r7
 8001dac:	f44f 63e0 	mov.w	r3, #1792	@ 0x700
 8001db0:	9300      	str	r3, [sp, #0]
 8001db2:	4b08      	ldr	r3, [pc, #32]	@ (8001dd4 <handleUART+0x2b8>)
 8001db4:	2101      	movs	r1, #1
 8001db6:	4808      	ldr	r0, [pc, #32]	@ (8001dd8 <handleUART+0x2bc>)
 8001db8:	f7fe fd52 	bl	8000860 <sendCAN_TxMessage>
	}

	UARTRxData[0] = 0x00;
 8001dbc:	4b04      	ldr	r3, [pc, #16]	@ (8001dd0 <handleUART+0x2b4>)
 8001dbe:	2200      	movs	r2, #0
 8001dc0:	701a      	strb	r2, [r3, #0]
	UARTRxData[1] = 0x00;
 8001dc2:	4b03      	ldr	r3, [pc, #12]	@ (8001dd0 <handleUART+0x2b4>)
 8001dc4:	2200      	movs	r2, #0
 8001dc6:	705a      	strb	r2, [r3, #1]
}
 8001dc8:	bf00      	nop
 8001dca:	370c      	adds	r7, #12
 8001dcc:	46bd      	mov	sp, r7
 8001dce:	bd90      	pop	{r4, r7, pc}
 8001dd0:	20000388 	.word	0x20000388
 8001dd4:	2000038c 	.word	0x2000038c
 8001dd8:	20000048 	.word	0x20000048

08001ddc <decodeASCII>:

uint8_t decodeASCII(uint8_t asciiVal) {
 8001ddc:	b480      	push	{r7}
 8001dde:	b085      	sub	sp, #20
 8001de0:	af00      	add	r7, sp, #0
 8001de2:	4603      	mov	r3, r0
 8001de4:	71fb      	strb	r3, [r7, #7]
	int returnVal = -1;
 8001de6:	f04f 33ff 	mov.w	r3, #4294967295	@ 0xffffffff
 8001dea:	60fb      	str	r3, [r7, #12]
	if ((asciiVal >= 48) && (asciiVal <= 57)) {
 8001dec:	79fb      	ldrb	r3, [r7, #7]
 8001dee:	2b2f      	cmp	r3, #47	@ 0x2f
 8001df0:	d905      	bls.n	8001dfe <decodeASCII+0x22>
 8001df2:	79fb      	ldrb	r3, [r7, #7]
 8001df4:	2b39      	cmp	r3, #57	@ 0x39
 8001df6:	d802      	bhi.n	8001dfe <decodeASCII+0x22>
		returnVal = asciiVal - 48;
 8001df8:	79fb      	ldrb	r3, [r7, #7]
 8001dfa:	3b30      	subs	r3, #48	@ 0x30
 8001dfc:	60fb      	str	r3, [r7, #12]
	}
	return returnVal;
 8001dfe:	68fb      	ldr	r3, [r7, #12]
 8001e00:	b2db      	uxtb	r3, r3
}
 8001e02:	4618      	mov	r0, r3
 8001e04:	3714      	adds	r7, #20
 8001e06:	46bd      	mov	sp, r7
 8001e08:	f85d 7b04 	ldr.w	r7, [sp], #4
 8001e0c:	4770      	bx	lr
	...

08001e10 <combine_system_status>:

uint8_t combine_system_status() {
 8001e10:	b480      	push	{r7}
 8001e12:	b083      	sub	sp, #12
 8001e14:	af00      	add	r7, sp, #0
    // Mask status to use only bits 4:0
    uint8_t masked_status = sysStatus & 0x1F; 			// 0001 1111b
 8001e16:	4b0c      	ldr	r3, [pc, #48]	@ (8001e48 <combine_system_status+0x38>)
 8001e18:	781b      	ldrb	r3, [r3, #0]
 8001e1a:	f003 031f 	and.w	r3, r3, #31
 8001e1e:	71fb      	strb	r3, [r7, #7]

    // Mask flight_state to use only bits 2:0
    uint8_t masked_flight_state = flight_state & 0x07; 	// 0000 0111b
 8001e20:	4b0a      	ldr	r3, [pc, #40]	@ (8001e4c <combine_system_status+0x3c>)
 8001e22:	781b      	ldrb	r3, [r3, #0]
 8001e24:	f003 0307 	and.w	r3, r3, #7
 8001e28:	71bb      	strb	r3, [r7, #6]
    // Shift flight_state to the correct position (bits 7:5)
    uint8_t shifted_flight_state = masked_flight_state << 5;
 8001e2a:	79bb      	ldrb	r3, [r7, #6]
 8001e2c:	015b      	lsls	r3, r3, #5
 8001e2e:	717b      	strb	r3, [r7, #5]

    // Combine the masked_status and shifted_flight_state
    uint8_t combined_value = masked_status | shifted_flight_state;
 8001e30:	79fa      	ldrb	r2, [r7, #7]
 8001e32:	797b      	ldrb	r3, [r7, #5]
 8001e34:	4313      	orrs	r3, r2
 8001e36:	713b      	strb	r3, [r7, #4]

    return combined_value;
 8001e38:	793b      	ldrb	r3, [r7, #4]
}
 8001e3a:	4618      	mov	r0, r3
 8001e3c:	370c      	adds	r7, #12
 8001e3e:	46bd      	mov	sp, r7
 8001e40:	f85d 7b04 	ldr.w	r7, [sp], #4
 8001e44:	4770      	bx	lr
 8001e46:	bf00      	nop
 8001e48:	2000061d 	.word	0x2000061d
 8001e4c:	2000061e 	.word	0x2000061e

08001e50 <configureCAN>:

void configureCAN() {
 8001e50:	b580      	push	{r7, lr}
 8001e52:	b08a      	sub	sp, #40	@ 0x28
 8001e54:	af00      	add	r7, sp, #0
	CAN_FilterTypeDef canFilterConfig;

	canFilterConfig.FilterActivation = CAN_FILTER_ENABLE;
 8001e56:	2301      	movs	r3, #1
 8001e58:	623b      	str	r3, [r7, #32]
	canFilterConfig.FilterBank = 10;
 8001e5a:	230a      	movs	r3, #10
 8001e5c:	617b      	str	r3, [r7, #20]
	canFilterConfig.FilterFIFOAssignment = CAN_RX_FIFO0;
 8001e5e:	2300      	movs	r3, #0
 8001e60:	613b      	str	r3, [r7, #16]
	canFilterConfig.FilterIdHigh = 0x500 << 5;				// Filter only messages with ID 1X1XXXXXXXXb
 8001e62:	f44f 4320 	mov.w	r3, #40960	@ 0xa000
 8001e66:	603b      	str	r3, [r7, #0]
	canFilterConfig.FilterIdLow = 0x0000;
 8001e68:	2300      	movs	r3, #0
 8001e6a:	607b      	str	r3, [r7, #4]
	canFilterConfig.FilterMaskIdHigh = 0x500 << 5;
 8001e6c:	f44f 4320 	mov.w	r3, #40960	@ 0xa000
 8001e70:	60bb      	str	r3, [r7, #8]
	canFilterConfig.FilterMaskIdLow = 0x0000;
 8001e72:	2300      	movs	r3, #0
 8001e74:	60fb      	str	r3, [r7, #12]
	canFilterConfig.FilterMode = CAN_FILTERMODE_IDMASK;
 8001e76:	2300      	movs	r3, #0
 8001e78:	61bb      	str	r3, [r7, #24]
	canFilterConfig.FilterScale = CAN_FILTERSCALE_32BIT;
 8001e7a:	2301      	movs	r3, #1
 8001e7c:	61fb      	str	r3, [r7, #28]
	canFilterConfig.SlaveStartFilterBank = 0;
 8001e7e:	2300      	movs	r3, #0
 8001e80:	627b      	str	r3, [r7, #36]	@ 0x24

	HAL_CAN_ConfigFilter(&hcan2, &canFilterConfig);
 8001e82:	463b      	mov	r3, r7
 8001e84:	4619      	mov	r1, r3
 8001e86:	4803      	ldr	r0, [pc, #12]	@ (8001e94 <configureCAN+0x44>)
 8001e88:	f001 fae8 	bl	800345c <HAL_CAN_ConfigFilter>
}
 8001e8c:	bf00      	nop
 8001e8e:	3728      	adds	r7, #40	@ 0x28
 8001e90:	46bd      	mov	sp, r7
 8001e92:	bd80      	pop	{r7, pc}
 8001e94:	20000048 	.word	0x20000048

08001e98 <find_next_blank_page_all>:

uint32_t find_next_blank_page_all() {
 8001e98:	b580      	push	{r7, lr}
 8001e9a:	b082      	sub	sp, #8
 8001e9c:	af00      	add	r7, sp, #0
//	int next_blank_page0 = find_next_blank_page(&hspi1, &end_of_flash, cs_spi1);
	int next_blank_page0 = 0;
 8001e9e:	2300      	movs	r3, #0
 8001ea0:	607b      	str	r3, [r7, #4]
	int next_blank_page1 = find_next_blank_page(&hspi2, &end_of_flash, cs_spi2);
 8001ea2:	4b0b      	ldr	r3, [pc, #44]	@ (8001ed0 <find_next_blank_page_all+0x38>)
 8001ea4:	cb0c      	ldmia	r3, {r2, r3}
 8001ea6:	490b      	ldr	r1, [pc, #44]	@ (8001ed4 <find_next_blank_page_all+0x3c>)
 8001ea8:	480b      	ldr	r0, [pc, #44]	@ (8001ed8 <find_next_blank_page_all+0x40>)
 8001eaa:	f7fe fdeb 	bl	8000a84 <find_next_blank_page>
 8001eae:	4603      	mov	r3, r0
 8001eb0:	603b      	str	r3, [r7, #0]
//	int next_blank_page1= 0;
	// Assign the value of next_blank_page to the larger of next_blank_page0 and next_blank_page1
	next_blank_page = (next_blank_page0 > next_blank_page1) ? next_blank_page0 : next_blank_page1;
 8001eb2:	683a      	ldr	r2, [r7, #0]
 8001eb4:	687b      	ldr	r3, [r7, #4]
 8001eb6:	4293      	cmp	r3, r2
 8001eb8:	bfb8      	it	lt
 8001eba:	4613      	movlt	r3, r2
 8001ebc:	461a      	mov	r2, r3
 8001ebe:	4b07      	ldr	r3, [pc, #28]	@ (8001edc <find_next_blank_page_all+0x44>)
 8001ec0:	601a      	str	r2, [r3, #0]

	return next_blank_page;
 8001ec2:	4b06      	ldr	r3, [pc, #24]	@ (8001edc <find_next_blank_page_all+0x44>)
 8001ec4:	681b      	ldr	r3, [r3, #0]
}
 8001ec6:	4618      	mov	r0, r3
 8001ec8:	3708      	adds	r7, #8
 8001eca:	46bd      	mov	sp, r7
 8001ecc:	bd80      	pop	{r7, pc}
 8001ece:	bf00      	nop
 8001ed0:	20000604 	.word	0x20000604
 8001ed4:	200005da 	.word	0x200005da
 8001ed8:	20000190 	.word	0x20000190
 8001edc:	200005d4 	.word	0x200005d4

08001ee0 <Error_Handler>:
/**
  * @brief  This function is executed in case of error occurrence.
  * @retval None
  */
void Error_Handler(void)
{
 8001ee0:	b480      	push	{r7}
 8001ee2:	af00      	add	r7, sp, #0
  \details Disables IRQ interrupts by setting special-purpose register PRIMASK.
           Can only be executed in Privileged modes.
 */
__STATIC_FORCEINLINE void __disable_irq(void)
{
  __ASM volatile ("cpsid i" : : : "memory");
 8001ee4:	b672      	cpsid	i
}
 8001ee6:	bf00      	nop
  /* USER CODE BEGIN Error_Handler_Debug */
  /* User can add his own implementation to report the HAL error return state */
  __disable_irq();
  while (1)
 8001ee8:	bf00      	nop
 8001eea:	e7fd      	b.n	8001ee8 <Error_Handler+0x8>

08001eec <systemStatus>:

#include "peripheral_driver.h"
/***************************************************************************************************************
 * Generic Functions
 */
uint8_t systemStatus(SPI_HandleTypeDef *hspi1, SPI_HandleTypeDef *hspi2, I2C_HandleTypeDef* hi2c1, I2C_HandleTypeDef* hi2c2) {
 8001eec:	b580      	push	{r7, lr}
 8001eee:	b086      	sub	sp, #24
 8001ef0:	af00      	add	r7, sp, #0
 8001ef2:	60f8      	str	r0, [r7, #12]
 8001ef4:	60b9      	str	r1, [r7, #8]
 8001ef6:	607a      	str	r2, [r7, #4]
 8001ef8:	603b      	str	r3, [r7, #0]
	uint8_t retVal = 0x00;
 8001efa:	2300      	movs	r3, #0
 8001efc:	75fb      	strb	r3, [r7, #23]

	// Check BME280_1
	if(readBME280_id_reg(hi2c1, 1) != 0x60) {			// Expected 0x60
 8001efe:	2101      	movs	r1, #1
 8001f00:	6878      	ldr	r0, [r7, #4]
 8001f02:	f7fe fc3d 	bl	8000780 <readBME280_id_reg>
 8001f06:	4603      	mov	r3, r0
 8001f08:	2b60      	cmp	r3, #96	@ 0x60
 8001f0a:	d003      	beq.n	8001f14 <systemStatus+0x28>
		retVal  = retVal | 0x10;
 8001f0c:	7dfb      	ldrb	r3, [r7, #23]
 8001f0e:	f043 0310 	orr.w	r3, r3, #16
 8001f12:	75fb      	strb	r3, [r7, #23]
	}

	// Check BME280_0
	if(readBME280_id_reg(hi2c1, 0) != 0x60) {			// Expected 0x60
 8001f14:	2100      	movs	r1, #0
 8001f16:	6878      	ldr	r0, [r7, #4]
 8001f18:	f7fe fc32 	bl	8000780 <readBME280_id_reg>
 8001f1c:	4603      	mov	r3, r0
 8001f1e:	2b60      	cmp	r3, #96	@ 0x60
 8001f20:	d003      	beq.n	8001f2a <systemStatus+0x3e>
		retVal  = retVal | 0x08;
 8001f22:	7dfb      	ldrb	r3, [r7, #23]
 8001f24:	f043 0308 	orr.w	r3, r3, #8
 8001f28:	75fb      	strb	r3, [r7, #23]
	}

	// Check Accelerometer
	if(readAccel_whoami(hi2c2) != 0xE5) {				// Expected 0xE5
 8001f2a:	6838      	ldr	r0, [r7, #0]
 8001f2c:	f7fe fb3e 	bl	80005ac <readAccel_whoami>
 8001f30:	4603      	mov	r3, r0
 8001f32:	2be5      	cmp	r3, #229	@ 0xe5
 8001f34:	d003      	beq.n	8001f3e <systemStatus+0x52>
		retVal  = retVal | 0x04;
 8001f36:	7dfb      	ldrb	r3, [r7, #23]
 8001f38:	f043 0304 	orr.w	r3, r3, #4
 8001f3c:	75fb      	strb	r3, [r7, #23]
	}

	// Check SPIFlash_1
	uint8_t manu[2] = {0, 0};
 8001f3e:	2300      	movs	r3, #0
 8001f40:	82bb      	strh	r3, [r7, #20]
	read_manufacturer_id(manu, hspi2, cs_spi2);
 8001f42:	4b11      	ldr	r3, [pc, #68]	@ (8001f88 <systemStatus+0x9c>)
 8001f44:	f107 0014 	add.w	r0, r7, #20
 8001f48:	cb0c      	ldmia	r3, {r2, r3}
 8001f4a:	68b9      	ldr	r1, [r7, #8]
 8001f4c:	f7fe fe5e 	bl	8000c0c <read_manufacturer_id>
	if(manu[0] != 0xEF) {								// Expected 0xEF
 8001f50:	7d3b      	ldrb	r3, [r7, #20]
 8001f52:	2bef      	cmp	r3, #239	@ 0xef
 8001f54:	d003      	beq.n	8001f5e <systemStatus+0x72>
		retVal  = retVal | 0x02;
 8001f56:	7dfb      	ldrb	r3, [r7, #23]
 8001f58:	f043 0302 	orr.w	r3, r3, #2
 8001f5c:	75fb      	strb	r3, [r7, #23]
	}

	// Check SPIFlash_0
	uint8_t manu0[2] = {0, 0};
 8001f5e:	2300      	movs	r3, #0
 8001f60:	823b      	strh	r3, [r7, #16]
	read_manufacturer_id(manu0, hspi1, cs_spi1);
 8001f62:	4b0a      	ldr	r3, [pc, #40]	@ (8001f8c <systemStatus+0xa0>)
 8001f64:	f107 0010 	add.w	r0, r7, #16
 8001f68:	cb0c      	ldmia	r3, {r2, r3}
 8001f6a:	68f9      	ldr	r1, [r7, #12]
 8001f6c:	f7fe fe4e 	bl	8000c0c <read_manufacturer_id>
	if(manu0[0] != 0xEF) {								// Expected 0xEF
 8001f70:	7c3b      	ldrb	r3, [r7, #16]
 8001f72:	2bef      	cmp	r3, #239	@ 0xef
 8001f74:	d003      	beq.n	8001f7e <systemStatus+0x92>
		retVal  = retVal | 0x01;
 8001f76:	7dfb      	ldrb	r3, [r7, #23]
 8001f78:	f043 0301 	orr.w	r3, r3, #1
 8001f7c:	75fb      	strb	r3, [r7, #23]
	}
	return retVal;
 8001f7e:	7dfb      	ldrb	r3, [r7, #23]
}
 8001f80:	4618      	mov	r0, r3
 8001f82:	3718      	adds	r7, #24
 8001f84:	46bd      	mov	sp, r7
 8001f86:	bd80      	pop	{r7, pc}
 8001f88:	20000604 	.word	0x20000604
 8001f8c:	200005f4 	.word	0x200005f4

08001f90 <heartbeatUART>:

void heartbeatUART(UART_HandleTypeDef *huart) {
 8001f90:	b580      	push	{r7, lr}
 8001f92:	b082      	sub	sp, #8
 8001f94:	af00      	add	r7, sp, #0
 8001f96:	6078      	str	r0, [r7, #4]
	send_uart_hex(huart, 0x51);			// Transmit the heartbeat as device ID (0x51 = Q)
 8001f98:	2151      	movs	r1, #81	@ 0x51
 8001f9a:	6878      	ldr	r0, [r7, #4]
 8001f9c:	f001 f88d 	bl	80030ba <send_uart_hex>
}
 8001fa0:	bf00      	nop
 8001fa2:	3708      	adds	r7, #8
 8001fa4:	46bd      	mov	sp, r7
 8001fa6:	bd80      	pop	{r7, pc}

08001fa8 <eraseFlashSPI>:

/***************************************************************************************************************
 * SPI Flash Functions
 */
void eraseFlashSPI(SPI_HandleTypeDef *hspi, UART_HandleTypeDef *huart, GPIO_Config chip_select) {
 8001fa8:	b580      	push	{r7, lr}
 8001faa:	b084      	sub	sp, #16
 8001fac:	af00      	add	r7, sp, #0
 8001fae:	60f8      	str	r0, [r7, #12]
 8001fb0:	60b9      	str	r1, [r7, #8]
 8001fb2:	4639      	mov	r1, r7
 8001fb4:	e881 000c 	stmia.w	r1, {r2, r3}
	if (erase_chip_spi(hspi, chip_select) == HAL_OK) {
 8001fb8:	463b      	mov	r3, r7
 8001fba:	e893 0006 	ldmia.w	r3, {r1, r2}
 8001fbe:	68f8      	ldr	r0, [r7, #12]
 8001fc0:	f7fe fcd2 	bl	8000968 <erase_chip_spi>
 8001fc4:	4603      	mov	r3, r0
 8001fc6:	2b00      	cmp	r3, #0
 8001fc8:	d104      	bne.n	8001fd4 <eraseFlashSPI+0x2c>
		send_uart_string(huart, "Successful Chip Erase\r\n");
 8001fca:	4906      	ldr	r1, [pc, #24]	@ (8001fe4 <eraseFlashSPI+0x3c>)
 8001fcc:	68b8      	ldr	r0, [r7, #8]
 8001fce:	f001 f860 	bl	8003092 <send_uart_string>
	} else {
		send_uart_string(huart, "Error during chip erase. Please check the connection and try again.\r\n");
	}
}
 8001fd2:	e003      	b.n	8001fdc <eraseFlashSPI+0x34>
		send_uart_string(huart, "Error during chip erase. Please check the connection and try again.\r\n");
 8001fd4:	4904      	ldr	r1, [pc, #16]	@ (8001fe8 <eraseFlashSPI+0x40>)
 8001fd6:	68b8      	ldr	r0, [r7, #8]
 8001fd8:	f001 f85b 	bl	8003092 <send_uart_string>
}
 8001fdc:	bf00      	nop
 8001fde:	3710      	adds	r7, #16
 8001fe0:	46bd      	mov	sp, r7
 8001fe2:	bd80      	pop	{r7, pc}
 8001fe4:	08009914 	.word	0x08009914
 8001fe8:	0800992c 	.word	0x0800992c

08001fec <readFlashToUART>:

void readFlashToUART(SPI_HandleTypeDef *hspi, UART_HandleTypeDef *huart, GPIO_Config chip_select) {
 8001fec:	b590      	push	{r4, r7, lr}
 8001fee:	b0cb      	sub	sp, #300	@ 0x12c
 8001ff0:	af02      	add	r7, sp, #8
 8001ff2:	f507 7490 	add.w	r4, r7, #288	@ 0x120
 8001ff6:	f5a4 748a 	sub.w	r4, r4, #276	@ 0x114
 8001ffa:	6020      	str	r0, [r4, #0]
 8001ffc:	f507 7090 	add.w	r0, r7, #288	@ 0x120
 8002000:	f5a0 708c 	sub.w	r0, r0, #280	@ 0x118
 8002004:	6001      	str	r1, [r0, #0]
 8002006:	f507 7190 	add.w	r1, r7, #288	@ 0x120
 800200a:	f5a1 7190 	sub.w	r1, r1, #288	@ 0x120
 800200e:	e881 000c 	stmia.w	r1, {r2, r3}
	uint32_t num_of_pages = next_blank_page;
 8002012:	4b25      	ldr	r3, [pc, #148]	@ (80020a8 <readFlashToUART+0xbc>)
 8002014:	681b      	ldr	r3, [r3, #0]
 8002016:	f8c7 311c 	str.w	r3, [r7, #284]	@ 0x11c
	if(num_of_pages == 0) {
 800201a:	f8d7 311c 	ldr.w	r3, [r7, #284]	@ 0x11c
 800201e:	2b00      	cmp	r3, #0
 8002020:	d103      	bne.n	800202a <readFlashToUART+0x3e>
		num_of_pages = PAGE_SIZE;
 8002022:	f44f 7380 	mov.w	r3, #256	@ 0x100
 8002026:	f8c7 311c 	str.w	r3, [r7, #284]	@ 0x11c
	}
	num_of_pages = num_of_pages/PAGE_SIZE;
 800202a:	f8d7 311c 	ldr.w	r3, [r7, #284]	@ 0x11c
 800202e:	0a1b      	lsrs	r3, r3, #8
 8002030:	f8c7 311c 	str.w	r3, [r7, #284]	@ 0x11c
	uint32_t address = 0;
 8002034:	2300      	movs	r3, #0
 8002036:	f8c7 3118 	str.w	r3, [r7, #280]	@ 0x118

	for (int i = 0; i < (num_of_pages); i++) {
 800203a:	2300      	movs	r3, #0
 800203c:	f8c7 3114 	str.w	r3, [r7, #276]	@ 0x114
 8002040:	e026      	b.n	8002090 <readFlashToUART+0xa4>
		uint8_t page[PAGE_SIZE];
		read_page_spi(page, hspi, address, chip_select);
 8002042:	f507 7390 	add.w	r3, r7, #288	@ 0x120
 8002046:	f5a3 7390 	sub.w	r3, r3, #288	@ 0x120
 800204a:	f507 7290 	add.w	r2, r7, #288	@ 0x120
 800204e:	f5a2 718a 	sub.w	r1, r2, #276	@ 0x114
 8002052:	f107 0014 	add.w	r0, r7, #20
 8002056:	685a      	ldr	r2, [r3, #4]
 8002058:	9200      	str	r2, [sp, #0]
 800205a:	681b      	ldr	r3, [r3, #0]
 800205c:	f8d7 2118 	ldr.w	r2, [r7, #280]	@ 0x118
 8002060:	6809      	ldr	r1, [r1, #0]
 8002062:	f7fe fdad 	bl	8000bc0 <read_page_spi>
		uart_transmit_page(huart, page);						// Transmit the data//
 8002066:	f107 0214 	add.w	r2, r7, #20
 800206a:	f507 7390 	add.w	r3, r7, #288	@ 0x120
 800206e:	f5a3 738c 	sub.w	r3, r3, #280	@ 0x118
 8002072:	4611      	mov	r1, r2
 8002074:	6818      	ldr	r0, [r3, #0]
 8002076:	f000 fffb 	bl	8003070 <uart_transmit_page>
		address += PAGE_SIZE;
 800207a:	f8d7 3118 	ldr.w	r3, [r7, #280]	@ 0x118
 800207e:	f503 7380 	add.w	r3, r3, #256	@ 0x100
 8002082:	f8c7 3118 	str.w	r3, [r7, #280]	@ 0x118
	for (int i = 0; i < (num_of_pages); i++) {
 8002086:	f8d7 3114 	ldr.w	r3, [r7, #276]	@ 0x114
 800208a:	3301      	adds	r3, #1
 800208c:	f8c7 3114 	str.w	r3, [r7, #276]	@ 0x114
 8002090:	f8d7 3114 	ldr.w	r3, [r7, #276]	@ 0x114
 8002094:	f8d7 211c 	ldr.w	r2, [r7, #284]	@ 0x11c
 8002098:	429a      	cmp	r2, r3
 800209a:	d8d2      	bhi.n	8002042 <readFlashToUART+0x56>
	}
}
 800209c:	bf00      	nop
 800209e:	bf00      	nop
 80020a0:	f507 7792 	add.w	r7, r7, #292	@ 0x124
 80020a4:	46bd      	mov	sp, r7
 80020a6:	bd90      	pop	{r4, r7, pc}
 80020a8:	200005d4 	.word	0x200005d4

080020ac <readFlashManuSPI>:

void readFlashManuSPI(SPI_HandleTypeDef *hspi, UART_HandleTypeDef *huart, GPIO_Config config) {
 80020ac:	b580      	push	{r7, lr}
 80020ae:	b086      	sub	sp, #24
 80020b0:	af00      	add	r7, sp, #0
 80020b2:	60f8      	str	r0, [r7, #12]
 80020b4:	60b9      	str	r1, [r7, #8]
 80020b6:	4639      	mov	r1, r7
 80020b8:	e881 000c 	stmia.w	r1, {r2, r3}
	uint8_t manu[2] = {0, 0};
 80020bc:	2300      	movs	r3, #0
 80020be:	82bb      	strh	r3, [r7, #20]
	read_manufacturer_id(manu, hspi, config);
 80020c0:	f107 0014 	add.w	r0, r7, #20
 80020c4:	463b      	mov	r3, r7
 80020c6:	cb0c      	ldmia	r3, {r2, r3}
 80020c8:	68f9      	ldr	r1, [r7, #12]
 80020ca:	f7fe fd9f 	bl	8000c0c <read_manufacturer_id>
	send_uart_hex(huart, manu[0]);
 80020ce:	7d3b      	ldrb	r3, [r7, #20]
 80020d0:	4619      	mov	r1, r3
 80020d2:	68b8      	ldr	r0, [r7, #8]
 80020d4:	f000 fff1 	bl	80030ba <send_uart_hex>
	send_uart_hex(huart, manu[1]);
 80020d8:	7d7b      	ldrb	r3, [r7, #21]
 80020da:	4619      	mov	r1, r3
 80020dc:	68b8      	ldr	r0, [r7, #8]
 80020de:	f000 ffec 	bl	80030ba <send_uart_hex>
}
 80020e2:	bf00      	nop
 80020e4:	3718      	adds	r7, #24
 80020e6:	46bd      	mov	sp, r7
 80020e8:	bd80      	pop	{r7, pc}
	...

080020ec <writePageSPI_W>:

void writePageSPI_W(SPI_HandleTypeDef *hspi, UART_HandleTypeDef *huart, GPIO_Config config) {
 80020ec:	b590      	push	{r4, r7, lr}
 80020ee:	b0c9      	sub	sp, #292	@ 0x124
 80020f0:	af02      	add	r7, sp, #8
 80020f2:	f507 748c 	add.w	r4, r7, #280	@ 0x118
 80020f6:	f5a4 7486 	sub.w	r4, r4, #268	@ 0x10c
 80020fa:	6020      	str	r0, [r4, #0]
 80020fc:	f507 708c 	add.w	r0, r7, #280	@ 0x118
 8002100:	f5a0 7088 	sub.w	r0, r0, #272	@ 0x110
 8002104:	6001      	str	r1, [r0, #0]
 8002106:	f507 718c 	add.w	r1, r7, #280	@ 0x118
 800210a:	f5a1 718c 	sub.w	r1, r1, #280	@ 0x118
 800210e:	e881 000c 	stmia.w	r1, {r2, r3}
	uint8_t data_out[PAGE_SIZE];
	for (int i = 0; i < PAGE_SIZE; i++) {
 8002112:	2300      	movs	r3, #0
 8002114:	f8c7 3114 	str.w	r3, [r7, #276]	@ 0x114
 8002118:	e00d      	b.n	8002136 <writePageSPI_W+0x4a>
		data_out[i] = 0x77;		// Make all data in the page 'w'
 800211a:	f507 738c 	add.w	r3, r7, #280	@ 0x118
 800211e:	f5a3 7282 	sub.w	r2, r3, #260	@ 0x104
 8002122:	f8d7 3114 	ldr.w	r3, [r7, #276]	@ 0x114
 8002126:	4413      	add	r3, r2
 8002128:	2277      	movs	r2, #119	@ 0x77
 800212a:	701a      	strb	r2, [r3, #0]
	for (int i = 0; i < PAGE_SIZE; i++) {
 800212c:	f8d7 3114 	ldr.w	r3, [r7, #276]	@ 0x114
 8002130:	3301      	adds	r3, #1
 8002132:	f8c7 3114 	str.w	r3, [r7, #276]	@ 0x114
 8002136:	f8d7 3114 	ldr.w	r3, [r7, #276]	@ 0x114
 800213a:	2bff      	cmp	r3, #255	@ 0xff
 800213c:	dded      	ble.n	800211a <writePageSPI_W+0x2e>
	}
	write_data_spi_dma(data_out, hspi, next_blank_page, config);
 800213e:	4b13      	ldr	r3, [pc, #76]	@ (800218c <writePageSPI_W+0xa0>)
 8002140:	681c      	ldr	r4, [r3, #0]
 8002142:	f507 738c 	add.w	r3, r7, #280	@ 0x118
 8002146:	f5a3 738c 	sub.w	r3, r3, #280	@ 0x118
 800214a:	f507 728c 	add.w	r2, r7, #280	@ 0x118
 800214e:	f5a2 7186 	sub.w	r1, r2, #268	@ 0x10c
 8002152:	f107 0014 	add.w	r0, r7, #20
 8002156:	685a      	ldr	r2, [r3, #4]
 8002158:	9200      	str	r2, [sp, #0]
 800215a:	681b      	ldr	r3, [r3, #0]
 800215c:	4622      	mov	r2, r4
 800215e:	6809      	ldr	r1, [r1, #0]
 8002160:	f7fe fc62 	bl	8000a28 <write_data_spi_dma>
	next_blank_page += PAGE_SIZE;
 8002164:	4b09      	ldr	r3, [pc, #36]	@ (800218c <writePageSPI_W+0xa0>)
 8002166:	681b      	ldr	r3, [r3, #0]
 8002168:	f503 7380 	add.w	r3, r3, #256	@ 0x100
 800216c:	4a07      	ldr	r2, [pc, #28]	@ (800218c <writePageSPI_W+0xa0>)
 800216e:	6013      	str	r3, [r2, #0]

	send_uart_string(huart, "Successful Page Written\r\n");
 8002170:	f507 738c 	add.w	r3, r7, #280	@ 0x118
 8002174:	f5a3 7388 	sub.w	r3, r3, #272	@ 0x110
 8002178:	4905      	ldr	r1, [pc, #20]	@ (8002190 <writePageSPI_W+0xa4>)
 800217a:	6818      	ldr	r0, [r3, #0]
 800217c:	f000 ff89 	bl	8003092 <send_uart_string>
}
 8002180:	bf00      	nop
 8002182:	f507 778e 	add.w	r7, r7, #284	@ 0x11c
 8002186:	46bd      	mov	sp, r7
 8002188:	bd90      	pop	{r4, r7, pc}
 800218a:	bf00      	nop
 800218c:	200005d4 	.word	0x200005d4
 8002190:	08009974 	.word	0x08009974

08002194 <resetSPIFlash>:

void resetSPIFlash(SPI_HandleTypeDef *hspi, UART_HandleTypeDef *huart, GPIO_Config config) {
 8002194:	b580      	push	{r7, lr}
 8002196:	b084      	sub	sp, #16
 8002198:	af00      	add	r7, sp, #0
 800219a:	60f8      	str	r0, [r7, #12]
 800219c:	60b9      	str	r1, [r7, #8]
 800219e:	4639      	mov	r1, r7
 80021a0:	e881 000c 	stmia.w	r1, {r2, r3}
	software_reset(hspi, config);
 80021a4:	463b      	mov	r3, r7
 80021a6:	e893 0006 	ldmia.w	r3, {r1, r2}
 80021aa:	68f8      	ldr	r0, [r7, #12]
 80021ac:	f7fe fc18 	bl	80009e0 <software_reset>
	send_uart_string(huart, "Flash Chip Reset\r\n");
 80021b0:	4903      	ldr	r1, [pc, #12]	@ (80021c0 <resetSPIFlash+0x2c>)
 80021b2:	68b8      	ldr	r0, [r7, #8]
 80021b4:	f000 ff6d 	bl	8003092 <send_uart_string>
}
 80021b8:	bf00      	nop
 80021ba:	3710      	adds	r7, #16
 80021bc:	46bd      	mov	sp, r7
 80021be:	bd80      	pop	{r7, pc}
 80021c0:	08009990 	.word	0x08009990

080021c4 <checkAccelWhoAmI>:
/***************************************************************************************************************
 * I2C Accelerometer Functions
 */
void checkAccelWhoAmI(I2C_HandleTypeDef* hi2c, UART_HandleTypeDef *huart) {
 80021c4:	b580      	push	{r7, lr}
 80021c6:	b084      	sub	sp, #16
 80021c8:	af00      	add	r7, sp, #0
 80021ca:	6078      	str	r0, [r7, #4]
 80021cc:	6039      	str	r1, [r7, #0]
	uint8_t whoami = readAccel_whoami(hi2c);
 80021ce:	6878      	ldr	r0, [r7, #4]
 80021d0:	f7fe f9ec 	bl	80005ac <readAccel_whoami>
 80021d4:	4603      	mov	r3, r0
 80021d6:	73fb      	strb	r3, [r7, #15]
	send_uart_hex(huart, whoami);
 80021d8:	7bfb      	ldrb	r3, [r7, #15]
 80021da:	4619      	mov	r1, r3
 80021dc:	6838      	ldr	r0, [r7, #0]
 80021de:	f000 ff6c 	bl	80030ba <send_uart_hex>
}
 80021e2:	bf00      	nop
 80021e4:	3710      	adds	r7, #16
 80021e6:	46bd      	mov	sp, r7
 80021e8:	bd80      	pop	{r7, pc}
	...

080021ec <accelToUART>:

void accelToUART(UART_HandleTypeDef *huart) {
 80021ec:	b580      	push	{r7, lr}
 80021ee:	b084      	sub	sp, #16
 80021f0:	af00      	add	r7, sp, #0
 80021f2:	6078      	str	r0, [r7, #4]
	for (int i = 0; i < 6; i++) {
 80021f4:	2300      	movs	r3, #0
 80021f6:	60fb      	str	r3, [r7, #12]
 80021f8:	e00a      	b.n	8002210 <accelToUART+0x24>
		send_uart_hex(huart, accel_data[i]);
 80021fa:	4a09      	ldr	r2, [pc, #36]	@ (8002220 <accelToUART+0x34>)
 80021fc:	68fb      	ldr	r3, [r7, #12]
 80021fe:	4413      	add	r3, r2
 8002200:	781b      	ldrb	r3, [r3, #0]
 8002202:	4619      	mov	r1, r3
 8002204:	6878      	ldr	r0, [r7, #4]
 8002206:	f000 ff58 	bl	80030ba <send_uart_hex>
	for (int i = 0; i < 6; i++) {
 800220a:	68fb      	ldr	r3, [r7, #12]
 800220c:	3301      	adds	r3, #1
 800220e:	60fb      	str	r3, [r7, #12]
 8002210:	68fb      	ldr	r3, [r7, #12]
 8002212:	2b05      	cmp	r3, #5
 8002214:	ddf1      	ble.n	80021fa <accelToUART+0xe>
	}
}
 8002216:	bf00      	nop
 8002218:	bf00      	nop
 800221a:	3710      	adds	r7, #16
 800221c:	46bd      	mov	sp, r7
 800221e:	bd80      	pop	{r7, pc}
 8002220:	200005bc 	.word	0x200005bc

08002224 <readTempSensorID>:

/***************************************************************************************************************
 * I2C BME280 Sensor Functions
 */
void readTempSensorID(I2C_HandleTypeDef* hi2c, UART_HandleTypeDef *huart, uint8_t tempNo) {
 8002224:	b580      	push	{r7, lr}
 8002226:	b084      	sub	sp, #16
 8002228:	af00      	add	r7, sp, #0
 800222a:	60f8      	str	r0, [r7, #12]
 800222c:	60b9      	str	r1, [r7, #8]
 800222e:	4613      	mov	r3, r2
 8002230:	71fb      	strb	r3, [r7, #7]
	send_uart_hex(huart, readBME280_id_reg(hi2c, tempNo));
 8002232:	79fb      	ldrb	r3, [r7, #7]
 8002234:	4619      	mov	r1, r3
 8002236:	68f8      	ldr	r0, [r7, #12]
 8002238:	f7fe faa2 	bl	8000780 <readBME280_id_reg>
 800223c:	4603      	mov	r3, r0
 800223e:	4619      	mov	r1, r3
 8002240:	68b8      	ldr	r0, [r7, #8]
 8002242:	f000 ff3a 	bl	80030ba <send_uart_hex>
}
 8002246:	bf00      	nop
 8002248:	3710      	adds	r7, #16
 800224a:	46bd      	mov	sp, r7
 800224c:	bd80      	pop	{r7, pc}

0800224e <readTempCalibration>:

void readTempCalibration(I2C_HandleTypeDef* hi2c, UART_HandleTypeDef *huart, uint8_t tempNo) {
 800224e:	b580      	push	{r7, lr}
 8002250:	b090      	sub	sp, #64	@ 0x40
 8002252:	af00      	add	r7, sp, #0
 8002254:	60f8      	str	r0, [r7, #12]
 8002256:	60b9      	str	r1, [r7, #8]
 8002258:	4613      	mov	r3, r2
 800225a:	71fb      	strb	r3, [r7, #7]
	uint8_t calibration1[25];
	uint8_t calibration2[7];

	for (uint8_t i = 0; i < CALIB_CNT_1; i++) {
 800225c:	2300      	movs	r3, #0
 800225e:	f887 303f 	strb.w	r3, [r7, #63]	@ 0x3f
 8002262:	e016      	b.n	8002292 <readTempCalibration+0x44>
		calibration1[i] = 0x00;
 8002264:	f897 303f 	ldrb.w	r3, [r7, #63]	@ 0x3f
 8002268:	3340      	adds	r3, #64	@ 0x40
 800226a:	443b      	add	r3, r7
 800226c:	2200      	movs	r2, #0
 800226e:	f803 2c28 	strb.w	r2, [r3, #-40]
		if (i < CALIB_CNT_2) {
 8002272:	f897 303f 	ldrb.w	r3, [r7, #63]	@ 0x3f
 8002276:	2b06      	cmp	r3, #6
 8002278:	d806      	bhi.n	8002288 <readTempCalibration+0x3a>
			calibration2[i] = 0x00;
 800227a:	f897 303f 	ldrb.w	r3, [r7, #63]	@ 0x3f
 800227e:	3340      	adds	r3, #64	@ 0x40
 8002280:	443b      	add	r3, r7
 8002282:	2200      	movs	r2, #0
 8002284:	f803 2c30 	strb.w	r2, [r3, #-48]
	for (uint8_t i = 0; i < CALIB_CNT_1; i++) {
 8002288:	f897 303f 	ldrb.w	r3, [r7, #63]	@ 0x3f
 800228c:	3301      	adds	r3, #1
 800228e:	f887 303f 	strb.w	r3, [r7, #63]	@ 0x3f
 8002292:	f897 303f 	ldrb.w	r3, [r7, #63]	@ 0x3f
 8002296:	2b18      	cmp	r3, #24
 8002298:	d9e4      	bls.n	8002264 <readTempCalibration+0x16>
		}
	}

	readBME280_calib(hi2c, tempNo, calibration1, calibration2);
 800229a:	f107 0310 	add.w	r3, r7, #16
 800229e:	f107 0218 	add.w	r2, r7, #24
 80022a2:	79f9      	ldrb	r1, [r7, #7]
 80022a4:	68f8      	ldr	r0, [r7, #12]
 80022a6:	f7fe fa87 	bl	80007b8 <readBME280_calib>

	for (int i = 0; i < 25; i++) {
 80022aa:	2300      	movs	r3, #0
 80022ac:	63bb      	str	r3, [r7, #56]	@ 0x38
 80022ae:	e00b      	b.n	80022c8 <readTempCalibration+0x7a>
	  send_uart_hex(huart, calibration1[i]);
 80022b0:	f107 0218 	add.w	r2, r7, #24
 80022b4:	6bbb      	ldr	r3, [r7, #56]	@ 0x38
 80022b6:	4413      	add	r3, r2
 80022b8:	781b      	ldrb	r3, [r3, #0]
 80022ba:	4619      	mov	r1, r3
 80022bc:	68b8      	ldr	r0, [r7, #8]
 80022be:	f000 fefc 	bl	80030ba <send_uart_hex>
	for (int i = 0; i < 25; i++) {
 80022c2:	6bbb      	ldr	r3, [r7, #56]	@ 0x38
 80022c4:	3301      	adds	r3, #1
 80022c6:	63bb      	str	r3, [r7, #56]	@ 0x38
 80022c8:	6bbb      	ldr	r3, [r7, #56]	@ 0x38
 80022ca:	2b18      	cmp	r3, #24
 80022cc:	ddf0      	ble.n	80022b0 <readTempCalibration+0x62>
	}

	for (int i = 0; i < 7; i++) {
 80022ce:	2300      	movs	r3, #0
 80022d0:	637b      	str	r3, [r7, #52]	@ 0x34
 80022d2:	e00b      	b.n	80022ec <readTempCalibration+0x9e>
	  send_uart_hex(huart, calibration2[i]);
 80022d4:	f107 0210 	add.w	r2, r7, #16
 80022d8:	6b7b      	ldr	r3, [r7, #52]	@ 0x34
 80022da:	4413      	add	r3, r2
 80022dc:	781b      	ldrb	r3, [r3, #0]
 80022de:	4619      	mov	r1, r3
 80022e0:	68b8      	ldr	r0, [r7, #8]
 80022e2:	f000 feea 	bl	80030ba <send_uart_hex>
	for (int i = 0; i < 7; i++) {
 80022e6:	6b7b      	ldr	r3, [r7, #52]	@ 0x34
 80022e8:	3301      	adds	r3, #1
 80022ea:	637b      	str	r3, [r7, #52]	@ 0x34
 80022ec:	6b7b      	ldr	r3, [r7, #52]	@ 0x34
 80022ee:	2b06      	cmp	r3, #6
 80022f0:	ddf0      	ble.n	80022d4 <readTempCalibration+0x86>
	}
}
 80022f2:	bf00      	nop
 80022f4:	bf00      	nop
 80022f6:	3740      	adds	r7, #64	@ 0x40
 80022f8:	46bd      	mov	sp, r7
 80022fa:	bd80      	pop	{r7, pc}

080022fc <readTempSensor>:

void readTempSensor(UART_HandleTypeDef *huart, uint8_t tempNo) {
 80022fc:	b580      	push	{r7, lr}
 80022fe:	b084      	sub	sp, #16
 8002300:	af00      	add	r7, sp, #0
 8002302:	6078      	str	r0, [r7, #4]
 8002304:	460b      	mov	r3, r1
 8002306:	70fb      	strb	r3, [r7, #3]
	if (tempNo == 0) {
 8002308:	78fb      	ldrb	r3, [r7, #3]
 800230a:	2b00      	cmp	r3, #0
 800230c:	d111      	bne.n	8002332 <readTempSensor+0x36>
		for (int i = 0; i < 6; i++) {
 800230e:	2300      	movs	r3, #0
 8002310:	60fb      	str	r3, [r7, #12]
 8002312:	e00a      	b.n	800232a <readTempSensor+0x2e>
			send_uart_hex(huart, bme280_data_0[i]);
 8002314:	4a13      	ldr	r2, [pc, #76]	@ (8002364 <readTempSensor+0x68>)
 8002316:	68fb      	ldr	r3, [r7, #12]
 8002318:	4413      	add	r3, r2
 800231a:	781b      	ldrb	r3, [r3, #0]
 800231c:	4619      	mov	r1, r3
 800231e:	6878      	ldr	r0, [r7, #4]
 8002320:	f000 fecb 	bl	80030ba <send_uart_hex>
		for (int i = 0; i < 6; i++) {
 8002324:	68fb      	ldr	r3, [r7, #12]
 8002326:	3301      	adds	r3, #1
 8002328:	60fb      	str	r3, [r7, #12]
 800232a:	68fb      	ldr	r3, [r7, #12]
 800232c:	2b05      	cmp	r3, #5
 800232e:	ddf1      	ble.n	8002314 <readTempSensor+0x18>
	} else if (tempNo == 1) {
		for (int i = 0; i < 6; i++) {
			send_uart_hex(huart, bme280_data_1[i]);
		}
	}
}
 8002330:	e013      	b.n	800235a <readTempSensor+0x5e>
	} else if (tempNo == 1) {
 8002332:	78fb      	ldrb	r3, [r7, #3]
 8002334:	2b01      	cmp	r3, #1
 8002336:	d110      	bne.n	800235a <readTempSensor+0x5e>
		for (int i = 0; i < 6; i++) {
 8002338:	2300      	movs	r3, #0
 800233a:	60bb      	str	r3, [r7, #8]
 800233c:	e00a      	b.n	8002354 <readTempSensor+0x58>
			send_uart_hex(huart, bme280_data_1[i]);
 800233e:	4a0a      	ldr	r2, [pc, #40]	@ (8002368 <readTempSensor+0x6c>)
 8002340:	68bb      	ldr	r3, [r7, #8]
 8002342:	4413      	add	r3, r2
 8002344:	781b      	ldrb	r3, [r3, #0]
 8002346:	4619      	mov	r1, r3
 8002348:	6878      	ldr	r0, [r7, #4]
 800234a:	f000 feb6 	bl	80030ba <send_uart_hex>
		for (int i = 0; i < 6; i++) {
 800234e:	68bb      	ldr	r3, [r7, #8]
 8002350:	3301      	adds	r3, #1
 8002352:	60bb      	str	r3, [r7, #8]
 8002354:	68bb      	ldr	r3, [r7, #8]
 8002356:	2b05      	cmp	r3, #5
 8002358:	ddf1      	ble.n	800233e <readTempSensor+0x42>
}
 800235a:	bf00      	nop
 800235c:	3710      	adds	r7, #16
 800235e:	46bd      	mov	sp, r7
 8002360:	bd80      	pop	{r7, pc}
 8002362:	bf00      	nop
 8002364:	200005c4 	.word	0x200005c4
 8002368:	200005cc 	.word	0x200005cc

0800236c <readAllSensors>:

/***************************************************************************************************************
 * Process All Sensors
 */
void readAllSensors(I2C_HandleTypeDef* hi2c_accel, I2C_HandleTypeDef* hi2c_temp, RTC_HandleTypeDef* hrtc) {
 800236c:	b5b0      	push	{r4, r5, r7, lr}
 800236e:	b08a      	sub	sp, #40	@ 0x28
 8002370:	af00      	add	r7, sp, #0
 8002372:	60f8      	str	r0, [r7, #12]
 8002374:	60b9      	str	r1, [r7, #8]
 8002376:	607a      	str	r2, [r7, #4]
	// Read Accelerometer Data
	readAccelerometer(accel_data, hi2c_accel);
 8002378:	68f9      	ldr	r1, [r7, #12]
 800237a:	4868      	ldr	r0, [pc, #416]	@ (800251c <readAllSensors+0x1b0>)
 800237c:	f7fe f8f0 	bl	8000560 <readAccelerometer>

	// Read BME280 Data
	readTempHumPres(bme280_data_0, hi2c_temp, 0);
 8002380:	2200      	movs	r2, #0
 8002382:	68b9      	ldr	r1, [r7, #8]
 8002384:	4866      	ldr	r0, [pc, #408]	@ (8002520 <readAllSensors+0x1b4>)
 8002386:	f7fe f9a1 	bl	80006cc <readTempHumPres>
	readTempHumPres(bme280_data_1, hi2c_temp, 1);
 800238a:	2201      	movs	r2, #1
 800238c:	68b9      	ldr	r1, [r7, #8]
 800238e:	4865      	ldr	r0, [pc, #404]	@ (8002524 <readAllSensors+0x1b8>)
 8002390:	f7fe f99c 	bl	80006cc <readTempHumPres>

	uint16_t time = getTimestampMilliseconds(hrtc);
 8002394:	6878      	ldr	r0, [r7, #4]
 8002396:	f000 f903 	bl	80025a0 <getTimestampMilliseconds>
 800239a:	4603      	mov	r3, r0
 800239c:	82fb      	strh	r3, [r7, #22]
	uint8_t array_ptr = 0;
 800239e:	2300      	movs	r3, #0
 80023a0:	f887 3027 	strb.w	r3, [r7, #39]	@ 0x27

	// Store the new read in the buffer if there is space
	if (byte_tracker < (PAGE_SIZE - READ_SIZE)) {
 80023a4:	4b60      	ldr	r3, [pc, #384]	@ (8002528 <readAllSensors+0x1bc>)
 80023a6:	881b      	ldrh	r3, [r3, #0]
 80023a8:	2bea      	cmp	r3, #234	@ 0xea
 80023aa:	f200 80b2 	bhi.w	8002512 <readAllSensors+0x1a6>
		// Store the timestamp in the buffer (Little Endian)
		data_buffer_tx[buffer_tracker][byte_tracker + array_ptr] = (uint8_t) (time & 0xFF); 		// Least significant byte (LSB)
 80023ae:	4b5f      	ldr	r3, [pc, #380]	@ (800252c <readAllSensors+0x1c0>)
 80023b0:	781b      	ldrb	r3, [r3, #0]
 80023b2:	461a      	mov	r2, r3
 80023b4:	4b5c      	ldr	r3, [pc, #368]	@ (8002528 <readAllSensors+0x1bc>)
 80023b6:	881b      	ldrh	r3, [r3, #0]
 80023b8:	4619      	mov	r1, r3
 80023ba:	f897 3027 	ldrb.w	r3, [r7, #39]	@ 0x27
 80023be:	440b      	add	r3, r1
 80023c0:	8af9      	ldrh	r1, [r7, #22]
 80023c2:	b2c8      	uxtb	r0, r1
 80023c4:	495a      	ldr	r1, [pc, #360]	@ (8002530 <readAllSensors+0x1c4>)
 80023c6:	0212      	lsls	r2, r2, #8
 80023c8:	440a      	add	r2, r1
 80023ca:	4413      	add	r3, r2
 80023cc:	4602      	mov	r2, r0
 80023ce:	701a      	strb	r2, [r3, #0]
		array_ptr += 1;
 80023d0:	f897 3027 	ldrb.w	r3, [r7, #39]	@ 0x27
 80023d4:	3301      	adds	r3, #1
 80023d6:	f887 3027 	strb.w	r3, [r7, #39]	@ 0x27
		data_buffer_tx[buffer_tracker][byte_tracker + array_ptr] = (uint8_t) ((time >> 8) & 0xFF); // Most significant byte (MSB)
 80023da:	8afb      	ldrh	r3, [r7, #22]
 80023dc:	0a1b      	lsrs	r3, r3, #8
 80023de:	b299      	uxth	r1, r3
 80023e0:	4b52      	ldr	r3, [pc, #328]	@ (800252c <readAllSensors+0x1c0>)
 80023e2:	781b      	ldrb	r3, [r3, #0]
 80023e4:	461a      	mov	r2, r3
 80023e6:	4b50      	ldr	r3, [pc, #320]	@ (8002528 <readAllSensors+0x1bc>)
 80023e8:	881b      	ldrh	r3, [r3, #0]
 80023ea:	4618      	mov	r0, r3
 80023ec:	f897 3027 	ldrb.w	r3, [r7, #39]	@ 0x27
 80023f0:	4403      	add	r3, r0
 80023f2:	b2c8      	uxtb	r0, r1
 80023f4:	494e      	ldr	r1, [pc, #312]	@ (8002530 <readAllSensors+0x1c4>)
 80023f6:	0212      	lsls	r2, r2, #8
 80023f8:	440a      	add	r2, r1
 80023fa:	4413      	add	r3, r2
 80023fc:	4602      	mov	r2, r0
 80023fe:	701a      	strb	r2, [r3, #0]
		array_ptr += 1;
 8002400:	f897 3027 	ldrb.w	r3, [r7, #39]	@ 0x27
 8002404:	3301      	adds	r3, #1
 8002406:	f887 3027 	strb.w	r3, [r7, #39]	@ 0x27

		// Store the accelerometer data
		for (int i = 0; i < 6; i++) {
 800240a:	2300      	movs	r3, #0
 800240c:	623b      	str	r3, [r7, #32]
 800240e:	e01a      	b.n	8002446 <readAllSensors+0xda>
		  data_buffer_tx[buffer_tracker][byte_tracker + array_ptr] = accel_data[i];
 8002410:	4b46      	ldr	r3, [pc, #280]	@ (800252c <readAllSensors+0x1c0>)
 8002412:	781b      	ldrb	r3, [r3, #0]
 8002414:	461c      	mov	r4, r3
 8002416:	4b44      	ldr	r3, [pc, #272]	@ (8002528 <readAllSensors+0x1bc>)
 8002418:	881b      	ldrh	r3, [r3, #0]
 800241a:	461a      	mov	r2, r3
 800241c:	f897 3027 	ldrb.w	r3, [r7, #39]	@ 0x27
 8002420:	4413      	add	r3, r2
 8002422:	493e      	ldr	r1, [pc, #248]	@ (800251c <readAllSensors+0x1b0>)
 8002424:	6a3a      	ldr	r2, [r7, #32]
 8002426:	440a      	add	r2, r1
 8002428:	7810      	ldrb	r0, [r2, #0]
 800242a:	4941      	ldr	r1, [pc, #260]	@ (8002530 <readAllSensors+0x1c4>)
 800242c:	0222      	lsls	r2, r4, #8
 800242e:	440a      	add	r2, r1
 8002430:	4413      	add	r3, r2
 8002432:	4602      	mov	r2, r0
 8002434:	701a      	strb	r2, [r3, #0]
		  array_ptr += 1;
 8002436:	f897 3027 	ldrb.w	r3, [r7, #39]	@ 0x27
 800243a:	3301      	adds	r3, #1
 800243c:	f887 3027 	strb.w	r3, [r7, #39]	@ 0x27
		for (int i = 0; i < 6; i++) {
 8002440:	6a3b      	ldr	r3, [r7, #32]
 8002442:	3301      	adds	r3, #1
 8002444:	623b      	str	r3, [r7, #32]
 8002446:	6a3b      	ldr	r3, [r7, #32]
 8002448:	2b05      	cmp	r3, #5
 800244a:	dde1      	ble.n	8002410 <readAllSensors+0xa4>
		}

		// Store the BME280_0 Data
		for (int i = 0; i < 6; i++) {
 800244c:	2300      	movs	r3, #0
 800244e:	61fb      	str	r3, [r7, #28]
 8002450:	e01a      	b.n	8002488 <readAllSensors+0x11c>
		  data_buffer_tx[buffer_tracker][byte_tracker + array_ptr] = bme280_data_0[i];
 8002452:	4b36      	ldr	r3, [pc, #216]	@ (800252c <readAllSensors+0x1c0>)
 8002454:	781b      	ldrb	r3, [r3, #0]
 8002456:	461c      	mov	r4, r3
 8002458:	4b33      	ldr	r3, [pc, #204]	@ (8002528 <readAllSensors+0x1bc>)
 800245a:	881b      	ldrh	r3, [r3, #0]
 800245c:	461a      	mov	r2, r3
 800245e:	f897 3027 	ldrb.w	r3, [r7, #39]	@ 0x27
 8002462:	4413      	add	r3, r2
 8002464:	492e      	ldr	r1, [pc, #184]	@ (8002520 <readAllSensors+0x1b4>)
 8002466:	69fa      	ldr	r2, [r7, #28]
 8002468:	440a      	add	r2, r1
 800246a:	7810      	ldrb	r0, [r2, #0]
 800246c:	4930      	ldr	r1, [pc, #192]	@ (8002530 <readAllSensors+0x1c4>)
 800246e:	0222      	lsls	r2, r4, #8
 8002470:	440a      	add	r2, r1
 8002472:	4413      	add	r3, r2
 8002474:	4602      	mov	r2, r0
 8002476:	701a      	strb	r2, [r3, #0]
		  array_ptr += 1;
 8002478:	f897 3027 	ldrb.w	r3, [r7, #39]	@ 0x27
 800247c:	3301      	adds	r3, #1
 800247e:	f887 3027 	strb.w	r3, [r7, #39]	@ 0x27
		for (int i = 0; i < 6; i++) {
 8002482:	69fb      	ldr	r3, [r7, #28]
 8002484:	3301      	adds	r3, #1
 8002486:	61fb      	str	r3, [r7, #28]
 8002488:	69fb      	ldr	r3, [r7, #28]
 800248a:	2b05      	cmp	r3, #5
 800248c:	dde1      	ble.n	8002452 <readAllSensors+0xe6>
		}

		// Store the BME280_1 Data
		for (int i = 0; i < 6; i++) {
 800248e:	2300      	movs	r3, #0
 8002490:	61bb      	str	r3, [r7, #24]
 8002492:	e01a      	b.n	80024ca <readAllSensors+0x15e>
		  data_buffer_tx[buffer_tracker][byte_tracker + array_ptr] = bme280_data_1[i];
 8002494:	4b25      	ldr	r3, [pc, #148]	@ (800252c <readAllSensors+0x1c0>)
 8002496:	781b      	ldrb	r3, [r3, #0]
 8002498:	461c      	mov	r4, r3
 800249a:	4b23      	ldr	r3, [pc, #140]	@ (8002528 <readAllSensors+0x1bc>)
 800249c:	881b      	ldrh	r3, [r3, #0]
 800249e:	461a      	mov	r2, r3
 80024a0:	f897 3027 	ldrb.w	r3, [r7, #39]	@ 0x27
 80024a4:	4413      	add	r3, r2
 80024a6:	491f      	ldr	r1, [pc, #124]	@ (8002524 <readAllSensors+0x1b8>)
 80024a8:	69ba      	ldr	r2, [r7, #24]
 80024aa:	440a      	add	r2, r1
 80024ac:	7810      	ldrb	r0, [r2, #0]
 80024ae:	4920      	ldr	r1, [pc, #128]	@ (8002530 <readAllSensors+0x1c4>)
 80024b0:	0222      	lsls	r2, r4, #8
 80024b2:	440a      	add	r2, r1
 80024b4:	4413      	add	r3, r2
 80024b6:	4602      	mov	r2, r0
 80024b8:	701a      	strb	r2, [r3, #0]
		  array_ptr += 1;
 80024ba:	f897 3027 	ldrb.w	r3, [r7, #39]	@ 0x27
 80024be:	3301      	adds	r3, #1
 80024c0:	f887 3027 	strb.w	r3, [r7, #39]	@ 0x27
		for (int i = 0; i < 6; i++) {
 80024c4:	69bb      	ldr	r3, [r7, #24]
 80024c6:	3301      	adds	r3, #1
 80024c8:	61bb      	str	r3, [r7, #24]
 80024ca:	69bb      	ldr	r3, [r7, #24]
 80024cc:	2b05      	cmp	r3, #5
 80024ce:	dde1      	ble.n	8002494 <readAllSensors+0x128>
		}

		// Store the flight state and peripheral status in the final byte
		data_buffer_tx[buffer_tracker][byte_tracker + array_ptr] = combine_system_status();
 80024d0:	4b16      	ldr	r3, [pc, #88]	@ (800252c <readAllSensors+0x1c0>)
 80024d2:	781b      	ldrb	r3, [r3, #0]
 80024d4:	461d      	mov	r5, r3
 80024d6:	4b14      	ldr	r3, [pc, #80]	@ (8002528 <readAllSensors+0x1bc>)
 80024d8:	881b      	ldrh	r3, [r3, #0]
 80024da:	461a      	mov	r2, r3
 80024dc:	f897 3027 	ldrb.w	r3, [r7, #39]	@ 0x27
 80024e0:	18d4      	adds	r4, r2, r3
 80024e2:	f7ff fc95 	bl	8001e10 <combine_system_status>
 80024e6:	4603      	mov	r3, r0
 80024e8:	4619      	mov	r1, r3
 80024ea:	4a11      	ldr	r2, [pc, #68]	@ (8002530 <readAllSensors+0x1c4>)
 80024ec:	022b      	lsls	r3, r5, #8
 80024ee:	4413      	add	r3, r2
 80024f0:	4423      	add	r3, r4
 80024f2:	460a      	mov	r2, r1
 80024f4:	701a      	strb	r2, [r3, #0]
		array_ptr += 1;
 80024f6:	f897 3027 	ldrb.w	r3, [r7, #39]	@ 0x27
 80024fa:	3301      	adds	r3, #1
 80024fc:	f887 3027 	strb.w	r3, [r7, #39]	@ 0x27

		byte_tracker = byte_tracker + (array_ptr);
 8002500:	f897 3027 	ldrb.w	r3, [r7, #39]	@ 0x27
 8002504:	b29a      	uxth	r2, r3
 8002506:	4b08      	ldr	r3, [pc, #32]	@ (8002528 <readAllSensors+0x1bc>)
 8002508:	881b      	ldrh	r3, [r3, #0]
 800250a:	4413      	add	r3, r2
 800250c:	b29a      	uxth	r2, r3
 800250e:	4b06      	ldr	r3, [pc, #24]	@ (8002528 <readAllSensors+0x1bc>)
 8002510:	801a      	strh	r2, [r3, #0]
	}
}
 8002512:	bf00      	nop
 8002514:	3728      	adds	r7, #40	@ 0x28
 8002516:	46bd      	mov	sp, r7
 8002518:	bdb0      	pop	{r4, r5, r7, pc}
 800251a:	bf00      	nop
 800251c:	200005bc 	.word	0x200005bc
 8002520:	200005c4 	.word	0x200005c4
 8002524:	200005cc 	.word	0x200005cc
 8002528:	200005d8 	.word	0x200005d8
 800252c:	200005b8 	.word	0x200005b8
 8002530:	200003b8 	.word	0x200003b8

08002534 <initialise_rtc_default>:
    .Month = RTC_MONTH_JANUARY, // Set default month (e.g., January)
    .Date = 1, // Set default day of the month
    .Year = 24 // Set default year (e.g., 2021)
};

void initialise_rtc_default(RTC_HandleTypeDef* hrtc) {
 8002534:	b580      	push	{r7, lr}
 8002536:	b084      	sub	sp, #16
 8002538:	af00      	add	r7, sp, #0
 800253a:	6078      	str	r0, [r7, #4]
    // Enable access to the backup domain
    __HAL_RCC_PWR_CLK_ENABLE();
 800253c:	2300      	movs	r3, #0
 800253e:	60fb      	str	r3, [r7, #12]
 8002540:	4b13      	ldr	r3, [pc, #76]	@ (8002590 <initialise_rtc_default+0x5c>)
 8002542:	6c1b      	ldr	r3, [r3, #64]	@ 0x40
 8002544:	4a12      	ldr	r2, [pc, #72]	@ (8002590 <initialise_rtc_default+0x5c>)
 8002546:	f043 5380 	orr.w	r3, r3, #268435456	@ 0x10000000
 800254a:	6413      	str	r3, [r2, #64]	@ 0x40
 800254c:	4b10      	ldr	r3, [pc, #64]	@ (8002590 <initialise_rtc_default+0x5c>)
 800254e:	6c1b      	ldr	r3, [r3, #64]	@ 0x40
 8002550:	f003 5380 	and.w	r3, r3, #268435456	@ 0x10000000
 8002554:	60fb      	str	r3, [r7, #12]
 8002556:	68fb      	ldr	r3, [r7, #12]
    HAL_PWR_EnableBkUpAccess();
 8002558:	f003 fdc2 	bl	80060e0 <HAL_PWR_EnableBkUpAccess>

    // Reset the RTC
    __HAL_RCC_BACKUPRESET_FORCE();
 800255c:	4b0d      	ldr	r3, [pc, #52]	@ (8002594 <initialise_rtc_default+0x60>)
 800255e:	2201      	movs	r2, #1
 8002560:	601a      	str	r2, [r3, #0]
    __HAL_RCC_BACKUPRESET_RELEASE();
 8002562:	4b0c      	ldr	r3, [pc, #48]	@ (8002594 <initialise_rtc_default+0x60>)
 8002564:	2200      	movs	r2, #0
 8002566:	601a      	str	r2, [r3, #0]

    // Initialize RTC hardware
    HAL_RTC_MspInit(hrtc);
 8002568:	6878      	ldr	r0, [r7, #4]
 800256a:	f000 faa1 	bl	8002ab0 <HAL_RTC_MspInit>

    // Set default time and date
    HAL_RTC_SetTime(hrtc, &defaultTime, RTC_FORMAT_BIN);
 800256e:	2200      	movs	r2, #0
 8002570:	4909      	ldr	r1, [pc, #36]	@ (8002598 <initialise_rtc_default+0x64>)
 8002572:	6878      	ldr	r0, [r7, #4]
 8002574:	f004 fc77 	bl	8006e66 <HAL_RTC_SetTime>
    HAL_RTC_SetDate(hrtc, &defaultDate, RTC_FORMAT_BIN);
 8002578:	2200      	movs	r2, #0
 800257a:	4908      	ldr	r1, [pc, #32]	@ (800259c <initialise_rtc_default+0x68>)
 800257c:	6878      	ldr	r0, [r7, #4]
 800257e:	f004 fd6a 	bl	8007056 <HAL_RTC_SetDate>

    // Disable access to the backup domain
    HAL_PWR_DisableBkUpAccess();
 8002582:	f003 fdc1 	bl	8006108 <HAL_PWR_DisableBkUpAccess>
}
 8002586:	bf00      	nop
 8002588:	3710      	adds	r7, #16
 800258a:	46bd      	mov	sp, r7
 800258c:	bd80      	pop	{r7, pc}
 800258e:	bf00      	nop
 8002590:	40023800 	.word	0x40023800
 8002594:	42470e40 	.word	0x42470e40
 8002598:	20000620 	.word	0x20000620
 800259c:	20000018 	.word	0x20000018

080025a0 <getTimestampMilliseconds>:

uint32_t getTimestampMilliseconds(RTC_HandleTypeDef* hrtc) {
 80025a0:	b580      	push	{r7, lr}
 80025a2:	b08c      	sub	sp, #48	@ 0x30
 80025a4:	af00      	add	r7, sp, #0
 80025a6:	6078      	str	r0, [r7, #4]
    RTC_TimeTypeDef rtcTime;
    RTC_DateTypeDef rtcDate;

    // Read RTC time and date
    HAL_RTC_GetTime(hrtc, &rtcTime, RTC_FORMAT_BIN);
 80025a8:	f107 0310 	add.w	r3, r7, #16
 80025ac:	2200      	movs	r2, #0
 80025ae:	4619      	mov	r1, r3
 80025b0:	6878      	ldr	r0, [r7, #4]
 80025b2:	f004 fcf2 	bl	8006f9a <HAL_RTC_GetTime>
    HAL_RTC_GetDate(hrtc, &rtcDate, RTC_FORMAT_BIN);
 80025b6:	f107 030c 	add.w	r3, r7, #12
 80025ba:	2200      	movs	r2, #0
 80025bc:	4619      	mov	r1, r3
 80025be:	6878      	ldr	r0, [r7, #4]
 80025c0:	f004 fdcd 	bl	800715e <HAL_RTC_GetDate>

    // Calculate timestamp in milliseconds
    uint32_t timestampSeconds = rtcTime.Seconds + rtcTime.Minutes * 60 + rtcTime.Hours * 3600;
 80025c4:	7cbb      	ldrb	r3, [r7, #18]
 80025c6:	4619      	mov	r1, r3
 80025c8:	7c7b      	ldrb	r3, [r7, #17]
 80025ca:	461a      	mov	r2, r3
 80025cc:	4613      	mov	r3, r2
 80025ce:	011b      	lsls	r3, r3, #4
 80025d0:	1a9b      	subs	r3, r3, r2
 80025d2:	009b      	lsls	r3, r3, #2
 80025d4:	18ca      	adds	r2, r1, r3
 80025d6:	7c3b      	ldrb	r3, [r7, #16]
 80025d8:	4619      	mov	r1, r3
 80025da:	f44f 6361 	mov.w	r3, #3600	@ 0xe10
 80025de:	fb01 f303 	mul.w	r3, r1, r3
 80025e2:	4413      	add	r3, r2
 80025e4:	62fb      	str	r3, [r7, #44]	@ 0x2c
    uint32_t timestampMilliseconds = timestampSeconds * 1000;
 80025e6:	6afb      	ldr	r3, [r7, #44]	@ 0x2c
 80025e8:	f44f 727a 	mov.w	r2, #1000	@ 0x3e8
 80025ec:	fb02 f303 	mul.w	r3, r2, r3
 80025f0:	62bb      	str	r3, [r7, #40]	@ 0x28
    float subsecondsFraction = (float)(rtcTime.SecondFraction - rtcTime.SubSeconds) / (rtcTime.SecondFraction + 1);
 80025f2:	69ba      	ldr	r2, [r7, #24]
 80025f4:	697b      	ldr	r3, [r7, #20]
 80025f6:	1ad3      	subs	r3, r2, r3
 80025f8:	ee07 3a90 	vmov	s15, r3
 80025fc:	eef8 6a67 	vcvt.f32.u32	s13, s15
 8002600:	69bb      	ldr	r3, [r7, #24]
 8002602:	3301      	adds	r3, #1
 8002604:	ee07 3a90 	vmov	s15, r3
 8002608:	eeb8 7a67 	vcvt.f32.u32	s14, s15
 800260c:	eec6 7a87 	vdiv.f32	s15, s13, s14
 8002610:	edc7 7a09 	vstr	s15, [r7, #36]	@ 0x24
    timestampMilliseconds += subsecondsFraction * 1000;
 8002614:	6abb      	ldr	r3, [r7, #40]	@ 0x28
 8002616:	ee07 3a90 	vmov	s15, r3
 800261a:	eeb8 7a67 	vcvt.f32.u32	s14, s15
 800261e:	edd7 7a09 	vldr	s15, [r7, #36]	@ 0x24
 8002622:	eddf 6a08 	vldr	s13, [pc, #32]	@ 8002644 <getTimestampMilliseconds+0xa4>
 8002626:	ee67 7aa6 	vmul.f32	s15, s15, s13
 800262a:	ee77 7a27 	vadd.f32	s15, s14, s15
 800262e:	eefc 7ae7 	vcvt.u32.f32	s15, s15
 8002632:	ee17 3a90 	vmov	r3, s15
 8002636:	62bb      	str	r3, [r7, #40]	@ 0x28

    return timestampMilliseconds;
 8002638:	6abb      	ldr	r3, [r7, #40]	@ 0x28
}
 800263a:	4618      	mov	r0, r3
 800263c:	3730      	adds	r7, #48	@ 0x30
 800263e:	46bd      	mov	sp, r7
 8002640:	bd80      	pop	{r7, pc}
 8002642:	bf00      	nop
 8002644:	447a0000 	.word	0x447a0000

08002648 <spi_sendOp_readByte>:
#ifndef SRC_SPI_DRIVER_C_
#define SRC_SPI_DRIVER_C_

#include "spi_driver.h"

HAL_StatusTypeDef spi_sendOp_readByte(uint8_t* opcode, SPI_HandleTypeDef *hspi, uint8_t* data_ptr, GPIO_TypeDef* GPIOx, uint16_t GPIO_Pin_CS) {
 8002648:	b580      	push	{r7, lr}
 800264a:	b086      	sub	sp, #24
 800264c:	af00      	add	r7, sp, #0
 800264e:	60f8      	str	r0, [r7, #12]
 8002650:	60b9      	str	r1, [r7, #8]
 8002652:	607a      	str	r2, [r7, #4]
 8002654:	603b      	str	r3, [r7, #0]
	HAL_StatusTypeDef status;
	HAL_GPIO_WritePin(GPIOx, GPIO_Pin_CS, GPIO_PIN_RESET);	// Set the chip select pin to low to initiate SPI comms
 8002656:	8c3b      	ldrh	r3, [r7, #32]
 8002658:	2200      	movs	r2, #0
 800265a:	4619      	mov	r1, r3
 800265c:	6838      	ldr	r0, [r7, #0]
 800265e:	f002 fc4d 	bl	8004efc <HAL_GPIO_WritePin>
	HAL_SPI_Transmit(hspi, opcode, 1, TIMEOUT_SML);			// Write the write enable value to the Flash to initial reading
 8002662:	2302      	movs	r3, #2
 8002664:	2201      	movs	r2, #1
 8002666:	68f9      	ldr	r1, [r7, #12]
 8002668:	68b8      	ldr	r0, [r7, #8]
 800266a:	f004 ff0e 	bl	800748a <HAL_SPI_Transmit>
	status = HAL_SPI_Receive(hspi, data_ptr, 1, TIMEOUT_SML);
 800266e:	2302      	movs	r3, #2
 8002670:	2201      	movs	r2, #1
 8002672:	6879      	ldr	r1, [r7, #4]
 8002674:	68b8      	ldr	r0, [r7, #8]
 8002676:	f005 f84b 	bl	8007710 <HAL_SPI_Receive>
 800267a:	4603      	mov	r3, r0
 800267c:	75fb      	strb	r3, [r7, #23]
	HAL_GPIO_WritePin(GPIOx, GPIO_Pin_CS, GPIO_PIN_SET);
 800267e:	8c3b      	ldrh	r3, [r7, #32]
 8002680:	2201      	movs	r2, #1
 8002682:	4619      	mov	r1, r3
 8002684:	6838      	ldr	r0, [r7, #0]
 8002686:	f002 fc39 	bl	8004efc <HAL_GPIO_WritePin>
	return status;
 800268a:	7dfb      	ldrb	r3, [r7, #23]
}
 800268c:	4618      	mov	r0, r3
 800268e:	3718      	adds	r7, #24
 8002690:	46bd      	mov	sp, r7
 8002692:	bd80      	pop	{r7, pc}

08002694 <perform_operation>:

HAL_StatusTypeDef perform_operation(uint8_t* opcode, SPI_HandleTypeDef *hspi, GPIO_TypeDef* GPIOx, uint16_t GPIO_Pin_CS) {
 8002694:	b580      	push	{r7, lr}
 8002696:	b086      	sub	sp, #24
 8002698:	af00      	add	r7, sp, #0
 800269a:	60f8      	str	r0, [r7, #12]
 800269c:	60b9      	str	r1, [r7, #8]
 800269e:	607a      	str	r2, [r7, #4]
 80026a0:	807b      	strh	r3, [r7, #2]
	HAL_StatusTypeDef status;
	HAL_GPIO_WritePin(GPIOx, GPIO_Pin_CS, GPIO_PIN_RESET);				// Set the chip select pin to low to initiate SPI comms
 80026a2:	887b      	ldrh	r3, [r7, #2]
 80026a4:	2200      	movs	r2, #0
 80026a6:	4619      	mov	r1, r3
 80026a8:	6878      	ldr	r0, [r7, #4]
 80026aa:	f002 fc27 	bl	8004efc <HAL_GPIO_WritePin>
	status = HAL_SPI_Transmit(hspi, opcode, 1, TIMEOUT_SML);				// Write the opcode value
 80026ae:	2302      	movs	r3, #2
 80026b0:	2201      	movs	r2, #1
 80026b2:	68f9      	ldr	r1, [r7, #12]
 80026b4:	68b8      	ldr	r0, [r7, #8]
 80026b6:	f004 fee8 	bl	800748a <HAL_SPI_Transmit>
 80026ba:	4603      	mov	r3, r0
 80026bc:	75fb      	strb	r3, [r7, #23]
	HAL_GPIO_WritePin(GPIOx, GPIO_Pin_CS, GPIO_PIN_SET);
 80026be:	887b      	ldrh	r3, [r7, #2]
 80026c0:	2201      	movs	r2, #1
 80026c2:	4619      	mov	r1, r3
 80026c4:	6878      	ldr	r0, [r7, #4]
 80026c6:	f002 fc19 	bl	8004efc <HAL_GPIO_WritePin>

	return status;
 80026ca:	7dfb      	ldrb	r3, [r7, #23]
}
 80026cc:	4618      	mov	r0, r3
 80026ce:	3718      	adds	r7, #24
 80026d0:	46bd      	mov	sp, r7
 80026d2:	bd80      	pop	{r7, pc}

080026d4 <spi_read_data>:

HAL_StatusTypeDef spi_read_data(uint8_t* opcode, uint16_t data_size, uint8_t data_read[data_size], SPI_HandleTypeDef *hspi, uint32_t addr, GPIO_TypeDef* GPIOx, uint16_t GPIO_Pin_CS) {
 80026d4:	b580      	push	{r7, lr}
 80026d6:	b086      	sub	sp, #24
 80026d8:	af00      	add	r7, sp, #0
 80026da:	60f8      	str	r0, [r7, #12]
 80026dc:	607a      	str	r2, [r7, #4]
 80026de:	603b      	str	r3, [r7, #0]
 80026e0:	460b      	mov	r3, r1
 80026e2:	817b      	strh	r3, [r7, #10]
	HAL_StatusTypeDef status;

	// Split the 24 bit address into three 8 bit ints
	uint8_t addrL = addr & 0xFF;  // Get the low byte
 80026e4:	6a3b      	ldr	r3, [r7, #32]
 80026e6:	b2db      	uxtb	r3, r3
 80026e8:	75bb      	strb	r3, [r7, #22]
	uint8_t addrM = (addr >> 8) & 0xFF;  // Get the middle byte
 80026ea:	6a3b      	ldr	r3, [r7, #32]
 80026ec:	0a1b      	lsrs	r3, r3, #8
 80026ee:	b2db      	uxtb	r3, r3
 80026f0:	757b      	strb	r3, [r7, #21]
	uint8_t addrH = (addr >> 16) & 0xFF;  // Get the high byte
 80026f2:	6a3b      	ldr	r3, [r7, #32]
 80026f4:	0c1b      	lsrs	r3, r3, #16
 80026f6:	b2db      	uxtb	r3, r3
 80026f8:	753b      	strb	r3, [r7, #20]

	// Read the data denoted by the given address
	HAL_GPIO_WritePin(GPIOx, GPIO_Pin_CS, GPIO_PIN_RESET);
 80026fa:	8d3b      	ldrh	r3, [r7, #40]	@ 0x28
 80026fc:	2200      	movs	r2, #0
 80026fe:	4619      	mov	r1, r3
 8002700:	6a78      	ldr	r0, [r7, #36]	@ 0x24
 8002702:	f002 fbfb 	bl	8004efc <HAL_GPIO_WritePin>
	HAL_SPI_Transmit(hspi, opcode, 1, TIMEOUT_SML);	// Write the read enable value
 8002706:	2302      	movs	r3, #2
 8002708:	2201      	movs	r2, #1
 800270a:	68f9      	ldr	r1, [r7, #12]
 800270c:	6838      	ldr	r0, [r7, #0]
 800270e:	f004 febc 	bl	800748a <HAL_SPI_Transmit>

	// Transmit the 24 bit address of the page to initialise read from
	HAL_SPI_Transmit(hspi, &addrH, 1, TIMEOUT_SML);
 8002712:	f107 0114 	add.w	r1, r7, #20
 8002716:	2302      	movs	r3, #2
 8002718:	2201      	movs	r2, #1
 800271a:	6838      	ldr	r0, [r7, #0]
 800271c:	f004 feb5 	bl	800748a <HAL_SPI_Transmit>
	HAL_SPI_Transmit(hspi, &addrM, 1, TIMEOUT_SML);
 8002720:	f107 0115 	add.w	r1, r7, #21
 8002724:	2302      	movs	r3, #2
 8002726:	2201      	movs	r2, #1
 8002728:	6838      	ldr	r0, [r7, #0]
 800272a:	f004 feae 	bl	800748a <HAL_SPI_Transmit>
	HAL_SPI_Transmit(hspi, &addrL, 1, TIMEOUT_SML);
 800272e:	f107 0116 	add.w	r1, r7, #22
 8002732:	2302      	movs	r3, #2
 8002734:	2201      	movs	r2, #1
 8002736:	6838      	ldr	r0, [r7, #0]
 8002738:	f004 fea7 	bl	800748a <HAL_SPI_Transmit>

	status = HAL_SPI_Receive(hspi, data_read, data_size, TIMEOUT_LRG);
 800273c:	897a      	ldrh	r2, [r7, #10]
 800273e:	2364      	movs	r3, #100	@ 0x64
 8002740:	6879      	ldr	r1, [r7, #4]
 8002742:	6838      	ldr	r0, [r7, #0]
 8002744:	f004 ffe4 	bl	8007710 <HAL_SPI_Receive>
 8002748:	4603      	mov	r3, r0
 800274a:	75fb      	strb	r3, [r7, #23]
	HAL_GPIO_WritePin(GPIOx, GPIO_Pin_CS, GPIO_PIN_SET);
 800274c:	8d3b      	ldrh	r3, [r7, #40]	@ 0x28
 800274e:	2201      	movs	r2, #1
 8002750:	4619      	mov	r1, r3
 8002752:	6a78      	ldr	r0, [r7, #36]	@ 0x24
 8002754:	f002 fbd2 	bl	8004efc <HAL_GPIO_WritePin>

	return status;
 8002758:	7dfb      	ldrb	r3, [r7, #23]
}
 800275a:	4618      	mov	r0, r3
 800275c:	3718      	adds	r7, #24
 800275e:	46bd      	mov	sp, r7
 8002760:	bd80      	pop	{r7, pc}

08002762 <spi_write_data_dma>:
	HAL_GPIO_WritePin(GPIOx, GPIO_Pin_CS, GPIO_PIN_SET);	// Set the chip select pin to high to remove the Flash from the SPI bus

	return status;
}

HAL_StatusTypeDef spi_write_data_dma(uint8_t* opcode, uint16_t data_size, uint8_t data_write[data_size], SPI_HandleTypeDef *hspi, uint32_t addr, GPIO_TypeDef* GPIOx, uint16_t GPIO_Pin_CS) {
 8002762:	b580      	push	{r7, lr}
 8002764:	b086      	sub	sp, #24
 8002766:	af00      	add	r7, sp, #0
 8002768:	60f8      	str	r0, [r7, #12]
 800276a:	607a      	str	r2, [r7, #4]
 800276c:	603b      	str	r3, [r7, #0]
 800276e:	460b      	mov	r3, r1
 8002770:	817b      	strh	r3, [r7, #10]
    HAL_StatusTypeDef status;

    // Split the 24 bit address into three 8 bit ints
    uint8_t addrL = addr & 0xFF;  			// Get the low byte
 8002772:	6a3b      	ldr	r3, [r7, #32]
 8002774:	b2db      	uxtb	r3, r3
 8002776:	75bb      	strb	r3, [r7, #22]
    uint8_t addrM = (addr >> 8) & 0xFF;  	// Get the middle byte
 8002778:	6a3b      	ldr	r3, [r7, #32]
 800277a:	0a1b      	lsrs	r3, r3, #8
 800277c:	b2db      	uxtb	r3, r3
 800277e:	757b      	strb	r3, [r7, #21]
    uint8_t addrH = (addr >> 16) & 0xFF;  	// Get the high byte
 8002780:	6a3b      	ldr	r3, [r7, #32]
 8002782:	0c1b      	lsrs	r3, r3, #16
 8002784:	b2db      	uxtb	r3, r3
 8002786:	753b      	strb	r3, [r7, #20]

    // Send the PageWrite command
    HAL_GPIO_WritePin(GPIOx, GPIO_Pin_CS, GPIO_PIN_RESET);	// Set the chip select pin to low to initiate SPI comms
 8002788:	8d3b      	ldrh	r3, [r7, #40]	@ 0x28
 800278a:	2200      	movs	r2, #0
 800278c:	4619      	mov	r1, r3
 800278e:	6a78      	ldr	r0, [r7, #36]	@ 0x24
 8002790:	f002 fbb4 	bl	8004efc <HAL_GPIO_WritePin>
    HAL_SPI_Transmit(hspi, opcode, 1, TIMEOUT_SML);					// Write the write enable value to the Flash to initial writing
 8002794:	2302      	movs	r3, #2
 8002796:	2201      	movs	r2, #1
 8002798:	68f9      	ldr	r1, [r7, #12]
 800279a:	6838      	ldr	r0, [r7, #0]
 800279c:	f004 fe75 	bl	800748a <HAL_SPI_Transmit>

    // Transmit the 24 bit address of the page to write to
    HAL_SPI_Transmit(hspi, &addrH, 1, TIMEOUT_SML);
 80027a0:	f107 0114 	add.w	r1, r7, #20
 80027a4:	2302      	movs	r3, #2
 80027a6:	2201      	movs	r2, #1
 80027a8:	6838      	ldr	r0, [r7, #0]
 80027aa:	f004 fe6e 	bl	800748a <HAL_SPI_Transmit>
    HAL_SPI_Transmit(hspi, &addrM, 1, TIMEOUT_SML);
 80027ae:	f107 0115 	add.w	r1, r7, #21
 80027b2:	2302      	movs	r3, #2
 80027b4:	2201      	movs	r2, #1
 80027b6:	6838      	ldr	r0, [r7, #0]
 80027b8:	f004 fe67 	bl	800748a <HAL_SPI_Transmit>
    HAL_SPI_Transmit(hspi, &addrL, 1, TIMEOUT_SML);
 80027bc:	f107 0116 	add.w	r1, r7, #22
 80027c0:	2302      	movs	r3, #2
 80027c2:	2201      	movs	r2, #1
 80027c4:	6838      	ldr	r0, [r7, #0]
 80027c6:	f004 fe60 	bl	800748a <HAL_SPI_Transmit>

    // Start the DMA transfer
    status = HAL_SPI_Transmit_DMA(hspi, data_write, data_size);
 80027ca:	897b      	ldrh	r3, [r7, #10]
 80027cc:	461a      	mov	r2, r3
 80027ce:	6879      	ldr	r1, [r7, #4]
 80027d0:	6838      	ldr	r0, [r7, #0]
 80027d2:	f005 fa65 	bl	8007ca0 <HAL_SPI_Transmit_DMA>
 80027d6:	4603      	mov	r3, r0
 80027d8:	75fb      	strb	r3, [r7, #23]

    return status;
 80027da:	7dfb      	ldrb	r3, [r7, #23]
}
 80027dc:	4618      	mov	r0, r3
 80027de:	3718      	adds	r7, #24
 80027e0:	46bd      	mov	sp, r7
 80027e2:	bd80      	pop	{r7, pc}

080027e4 <HAL_MspInit>:
/* USER CODE END 0 */
/**
  * Initializes the Global MSP.
  */
void HAL_MspInit(void)
{
 80027e4:	b480      	push	{r7}
 80027e6:	b083      	sub	sp, #12
 80027e8:	af00      	add	r7, sp, #0

  /* USER CODE BEGIN MspInit 0 */

  /* USER CODE END MspInit 0 */

  __HAL_RCC_SYSCFG_CLK_ENABLE();
 80027ea:	2300      	movs	r3, #0
 80027ec:	607b      	str	r3, [r7, #4]
 80027ee:	4b10      	ldr	r3, [pc, #64]	@ (8002830 <HAL_MspInit+0x4c>)
 80027f0:	6c5b      	ldr	r3, [r3, #68]	@ 0x44
 80027f2:	4a0f      	ldr	r2, [pc, #60]	@ (8002830 <HAL_MspInit+0x4c>)
 80027f4:	f443 4380 	orr.w	r3, r3, #16384	@ 0x4000
 80027f8:	6453      	str	r3, [r2, #68]	@ 0x44
 80027fa:	4b0d      	ldr	r3, [pc, #52]	@ (8002830 <HAL_MspInit+0x4c>)
 80027fc:	6c5b      	ldr	r3, [r3, #68]	@ 0x44
 80027fe:	f403 4380 	and.w	r3, r3, #16384	@ 0x4000
 8002802:	607b      	str	r3, [r7, #4]
 8002804:	687b      	ldr	r3, [r7, #4]
  __HAL_RCC_PWR_CLK_ENABLE();
 8002806:	2300      	movs	r3, #0
 8002808:	603b      	str	r3, [r7, #0]
 800280a:	4b09      	ldr	r3, [pc, #36]	@ (8002830 <HAL_MspInit+0x4c>)
 800280c:	6c1b      	ldr	r3, [r3, #64]	@ 0x40
 800280e:	4a08      	ldr	r2, [pc, #32]	@ (8002830 <HAL_MspInit+0x4c>)
 8002810:	f043 5380 	orr.w	r3, r3, #268435456	@ 0x10000000
 8002814:	6413      	str	r3, [r2, #64]	@ 0x40
 8002816:	4b06      	ldr	r3, [pc, #24]	@ (8002830 <HAL_MspInit+0x4c>)
 8002818:	6c1b      	ldr	r3, [r3, #64]	@ 0x40
 800281a:	f003 5380 	and.w	r3, r3, #268435456	@ 0x10000000
 800281e:	603b      	str	r3, [r7, #0]
 8002820:	683b      	ldr	r3, [r7, #0]
  /* System interrupt init*/

  /* USER CODE BEGIN MspInit 1 */

  /* USER CODE END MspInit 1 */
}
 8002822:	bf00      	nop
 8002824:	370c      	adds	r7, #12
 8002826:	46bd      	mov	sp, r7
 8002828:	f85d 7b04 	ldr.w	r7, [sp], #4
 800282c:	4770      	bx	lr
 800282e:	bf00      	nop
 8002830:	40023800 	.word	0x40023800

08002834 <HAL_CAN_MspInit>:
* This function configures the hardware resources used in this example
* @param hcan: CAN handle pointer
* @retval None
*/
void HAL_CAN_MspInit(CAN_HandleTypeDef* hcan)
{
 8002834:	b580      	push	{r7, lr}
 8002836:	b08a      	sub	sp, #40	@ 0x28
 8002838:	af00      	add	r7, sp, #0
 800283a:	6078      	str	r0, [r7, #4]
  GPIO_InitTypeDef GPIO_InitStruct = {0};
 800283c:	f107 0314 	add.w	r3, r7, #20
 8002840:	2200      	movs	r2, #0
 8002842:	601a      	str	r2, [r3, #0]
 8002844:	605a      	str	r2, [r3, #4]
 8002846:	609a      	str	r2, [r3, #8]
 8002848:	60da      	str	r2, [r3, #12]
 800284a:	611a      	str	r2, [r3, #16]
  if(hcan->Instance==CAN2)
 800284c:	687b      	ldr	r3, [r7, #4]
 800284e:	681b      	ldr	r3, [r3, #0]
 8002850:	4a24      	ldr	r2, [pc, #144]	@ (80028e4 <HAL_CAN_MspInit+0xb0>)
 8002852:	4293      	cmp	r3, r2
 8002854:	d141      	bne.n	80028da <HAL_CAN_MspInit+0xa6>
  {
  /* USER CODE BEGIN CAN2_MspInit 0 */

  /* USER CODE END CAN2_MspInit 0 */
    /* Peripheral clock enable */
    __HAL_RCC_CAN2_CLK_ENABLE();
 8002856:	2300      	movs	r3, #0
 8002858:	613b      	str	r3, [r7, #16]
 800285a:	4b23      	ldr	r3, [pc, #140]	@ (80028e8 <HAL_CAN_MspInit+0xb4>)
 800285c:	6c1b      	ldr	r3, [r3, #64]	@ 0x40
 800285e:	4a22      	ldr	r2, [pc, #136]	@ (80028e8 <HAL_CAN_MspInit+0xb4>)
 8002860:	f043 6380 	orr.w	r3, r3, #67108864	@ 0x4000000
 8002864:	6413      	str	r3, [r2, #64]	@ 0x40
 8002866:	4b20      	ldr	r3, [pc, #128]	@ (80028e8 <HAL_CAN_MspInit+0xb4>)
 8002868:	6c1b      	ldr	r3, [r3, #64]	@ 0x40
 800286a:	f003 6380 	and.w	r3, r3, #67108864	@ 0x4000000
 800286e:	613b      	str	r3, [r7, #16]
 8002870:	693b      	ldr	r3, [r7, #16]
    __HAL_RCC_CAN1_CLK_ENABLE();
 8002872:	2300      	movs	r3, #0
 8002874:	60fb      	str	r3, [r7, #12]
 8002876:	4b1c      	ldr	r3, [pc, #112]	@ (80028e8 <HAL_CAN_MspInit+0xb4>)
 8002878:	6c1b      	ldr	r3, [r3, #64]	@ 0x40
 800287a:	4a1b      	ldr	r2, [pc, #108]	@ (80028e8 <HAL_CAN_MspInit+0xb4>)
 800287c:	f043 7300 	orr.w	r3, r3, #33554432	@ 0x2000000
 8002880:	6413      	str	r3, [r2, #64]	@ 0x40
 8002882:	4b19      	ldr	r3, [pc, #100]	@ (80028e8 <HAL_CAN_MspInit+0xb4>)
 8002884:	6c1b      	ldr	r3, [r3, #64]	@ 0x40
 8002886:	f003 7300 	and.w	r3, r3, #33554432	@ 0x2000000
 800288a:	60fb      	str	r3, [r7, #12]
 800288c:	68fb      	ldr	r3, [r7, #12]

    __HAL_RCC_GPIOB_CLK_ENABLE();
 800288e:	2300      	movs	r3, #0
 8002890:	60bb      	str	r3, [r7, #8]
 8002892:	4b15      	ldr	r3, [pc, #84]	@ (80028e8 <HAL_CAN_MspInit+0xb4>)
 8002894:	6b1b      	ldr	r3, [r3, #48]	@ 0x30
 8002896:	4a14      	ldr	r2, [pc, #80]	@ (80028e8 <HAL_CAN_MspInit+0xb4>)
 8002898:	f043 0302 	orr.w	r3, r3, #2
 800289c:	6313      	str	r3, [r2, #48]	@ 0x30
 800289e:	4b12      	ldr	r3, [pc, #72]	@ (80028e8 <HAL_CAN_MspInit+0xb4>)
 80028a0:	6b1b      	ldr	r3, [r3, #48]	@ 0x30
 80028a2:	f003 0302 	and.w	r3, r3, #2
 80028a6:	60bb      	str	r3, [r7, #8]
 80028a8:	68bb      	ldr	r3, [r7, #8]
    /**CAN2 GPIO Configuration
    PB5     ------> CAN2_RX
    PB6     ------> CAN2_TX
    */
    GPIO_InitStruct.Pin = GPIO_PIN_5|GPIO_PIN_6;
 80028aa:	2360      	movs	r3, #96	@ 0x60
 80028ac:	617b      	str	r3, [r7, #20]
    GPIO_InitStruct.Mode = GPIO_MODE_AF_PP;
 80028ae:	2302      	movs	r3, #2
 80028b0:	61bb      	str	r3, [r7, #24]
    GPIO_InitStruct.Pull = GPIO_NOPULL;
 80028b2:	2300      	movs	r3, #0
 80028b4:	61fb      	str	r3, [r7, #28]
    GPIO_InitStruct.Speed = GPIO_SPEED_FREQ_VERY_HIGH;
 80028b6:	2303      	movs	r3, #3
 80028b8:	623b      	str	r3, [r7, #32]
    GPIO_InitStruct.Alternate = GPIO_AF9_CAN2;
 80028ba:	2309      	movs	r3, #9
 80028bc:	627b      	str	r3, [r7, #36]	@ 0x24
    HAL_GPIO_Init(GPIOB, &GPIO_InitStruct);
 80028be:	f107 0314 	add.w	r3, r7, #20
 80028c2:	4619      	mov	r1, r3
 80028c4:	4809      	ldr	r0, [pc, #36]	@ (80028ec <HAL_CAN_MspInit+0xb8>)
 80028c6:	f002 f849 	bl	800495c <HAL_GPIO_Init>

    /* CAN2 interrupt Init */
    HAL_NVIC_SetPriority(CAN2_RX0_IRQn, 0, 0);
 80028ca:	2200      	movs	r2, #0
 80028cc:	2100      	movs	r1, #0
 80028ce:	2040      	movs	r0, #64	@ 0x40
 80028d0:	f001 fc0b 	bl	80040ea <HAL_NVIC_SetPriority>
    HAL_NVIC_EnableIRQ(CAN2_RX0_IRQn);
 80028d4:	2040      	movs	r0, #64	@ 0x40
 80028d6:	f001 fc24 	bl	8004122 <HAL_NVIC_EnableIRQ>

  /* USER CODE END CAN2_MspInit 1 */

  }

}
 80028da:	bf00      	nop
 80028dc:	3728      	adds	r7, #40	@ 0x28
 80028de:	46bd      	mov	sp, r7
 80028e0:	bd80      	pop	{r7, pc}
 80028e2:	bf00      	nop
 80028e4:	40006800 	.word	0x40006800
 80028e8:	40023800 	.word	0x40023800
 80028ec:	40020400 	.word	0x40020400

080028f0 <HAL_I2C_MspInit>:
* This function configures the hardware resources used in this example
* @param hi2c: I2C handle pointer
* @retval None
*/
void HAL_I2C_MspInit(I2C_HandleTypeDef* hi2c)
{
 80028f0:	b580      	push	{r7, lr}
 80028f2:	b08c      	sub	sp, #48	@ 0x30
 80028f4:	af00      	add	r7, sp, #0
 80028f6:	6078      	str	r0, [r7, #4]
  GPIO_InitTypeDef GPIO_InitStruct = {0};
 80028f8:	f107 031c 	add.w	r3, r7, #28
 80028fc:	2200      	movs	r2, #0
 80028fe:	601a      	str	r2, [r3, #0]
 8002900:	605a      	str	r2, [r3, #4]
 8002902:	609a      	str	r2, [r3, #8]
 8002904:	60da      	str	r2, [r3, #12]
 8002906:	611a      	str	r2, [r3, #16]
  if(hi2c->Instance==I2C1)
 8002908:	687b      	ldr	r3, [r7, #4]
 800290a:	681b      	ldr	r3, [r3, #0]
 800290c:	4a42      	ldr	r2, [pc, #264]	@ (8002a18 <HAL_I2C_MspInit+0x128>)
 800290e:	4293      	cmp	r3, r2
 8002910:	d12d      	bne.n	800296e <HAL_I2C_MspInit+0x7e>
  {
  /* USER CODE BEGIN I2C1_MspInit 0 */

  /* USER CODE END I2C1_MspInit 0 */

    __HAL_RCC_GPIOB_CLK_ENABLE();
 8002912:	2300      	movs	r3, #0
 8002914:	61bb      	str	r3, [r7, #24]
 8002916:	4b41      	ldr	r3, [pc, #260]	@ (8002a1c <HAL_I2C_MspInit+0x12c>)
 8002918:	6b1b      	ldr	r3, [r3, #48]	@ 0x30
 800291a:	4a40      	ldr	r2, [pc, #256]	@ (8002a1c <HAL_I2C_MspInit+0x12c>)
 800291c:	f043 0302 	orr.w	r3, r3, #2
 8002920:	6313      	str	r3, [r2, #48]	@ 0x30
 8002922:	4b3e      	ldr	r3, [pc, #248]	@ (8002a1c <HAL_I2C_MspInit+0x12c>)
 8002924:	6b1b      	ldr	r3, [r3, #48]	@ 0x30
 8002926:	f003 0302 	and.w	r3, r3, #2
 800292a:	61bb      	str	r3, [r7, #24]
 800292c:	69bb      	ldr	r3, [r7, #24]
    /**I2C1 GPIO Configuration
    PB8     ------> I2C1_SCL
    PB9     ------> I2C1_SDA
    */
    GPIO_InitStruct.Pin = GPIO_PIN_8|GPIO_PIN_9;
 800292e:	f44f 7340 	mov.w	r3, #768	@ 0x300
 8002932:	61fb      	str	r3, [r7, #28]
    GPIO_InitStruct.Mode = GPIO_MODE_AF_OD;
 8002934:	2312      	movs	r3, #18
 8002936:	623b      	str	r3, [r7, #32]
    GPIO_InitStruct.Pull = GPIO_NOPULL;
 8002938:	2300      	movs	r3, #0
 800293a:	627b      	str	r3, [r7, #36]	@ 0x24
    GPIO_InitStruct.Speed = GPIO_SPEED_FREQ_VERY_HIGH;
 800293c:	2303      	movs	r3, #3
 800293e:	62bb      	str	r3, [r7, #40]	@ 0x28
    GPIO_InitStruct.Alternate = GPIO_AF4_I2C1;
 8002940:	2304      	movs	r3, #4
 8002942:	62fb      	str	r3, [r7, #44]	@ 0x2c
    HAL_GPIO_Init(GPIOB, &GPIO_InitStruct);
 8002944:	f107 031c 	add.w	r3, r7, #28
 8002948:	4619      	mov	r1, r3
 800294a:	4835      	ldr	r0, [pc, #212]	@ (8002a20 <HAL_I2C_MspInit+0x130>)
 800294c:	f002 f806 	bl	800495c <HAL_GPIO_Init>

    /* Peripheral clock enable */
    __HAL_RCC_I2C1_CLK_ENABLE();
 8002950:	2300      	movs	r3, #0
 8002952:	617b      	str	r3, [r7, #20]
 8002954:	4b31      	ldr	r3, [pc, #196]	@ (8002a1c <HAL_I2C_MspInit+0x12c>)
 8002956:	6c1b      	ldr	r3, [r3, #64]	@ 0x40
 8002958:	4a30      	ldr	r2, [pc, #192]	@ (8002a1c <HAL_I2C_MspInit+0x12c>)
 800295a:	f443 1300 	orr.w	r3, r3, #2097152	@ 0x200000
 800295e:	6413      	str	r3, [r2, #64]	@ 0x40
 8002960:	4b2e      	ldr	r3, [pc, #184]	@ (8002a1c <HAL_I2C_MspInit+0x12c>)
 8002962:	6c1b      	ldr	r3, [r3, #64]	@ 0x40
 8002964:	f403 1300 	and.w	r3, r3, #2097152	@ 0x200000
 8002968:	617b      	str	r3, [r7, #20]
 800296a:	697b      	ldr	r3, [r7, #20]
  /* USER CODE BEGIN I2C3_MspInit 1 */

  /* USER CODE END I2C3_MspInit 1 */
  }

}
 800296c:	e050      	b.n	8002a10 <HAL_I2C_MspInit+0x120>
  else if(hi2c->Instance==I2C3)
 800296e:	687b      	ldr	r3, [r7, #4]
 8002970:	681b      	ldr	r3, [r3, #0]
 8002972:	4a2c      	ldr	r2, [pc, #176]	@ (8002a24 <HAL_I2C_MspInit+0x134>)
 8002974:	4293      	cmp	r3, r2
 8002976:	d14b      	bne.n	8002a10 <HAL_I2C_MspInit+0x120>
    __HAL_RCC_GPIOC_CLK_ENABLE();
 8002978:	2300      	movs	r3, #0
 800297a:	613b      	str	r3, [r7, #16]
 800297c:	4b27      	ldr	r3, [pc, #156]	@ (8002a1c <HAL_I2C_MspInit+0x12c>)
 800297e:	6b1b      	ldr	r3, [r3, #48]	@ 0x30
 8002980:	4a26      	ldr	r2, [pc, #152]	@ (8002a1c <HAL_I2C_MspInit+0x12c>)
 8002982:	f043 0304 	orr.w	r3, r3, #4
 8002986:	6313      	str	r3, [r2, #48]	@ 0x30
 8002988:	4b24      	ldr	r3, [pc, #144]	@ (8002a1c <HAL_I2C_MspInit+0x12c>)
 800298a:	6b1b      	ldr	r3, [r3, #48]	@ 0x30
 800298c:	f003 0304 	and.w	r3, r3, #4
 8002990:	613b      	str	r3, [r7, #16]
 8002992:	693b      	ldr	r3, [r7, #16]
    __HAL_RCC_GPIOA_CLK_ENABLE();
 8002994:	2300      	movs	r3, #0
 8002996:	60fb      	str	r3, [r7, #12]
 8002998:	4b20      	ldr	r3, [pc, #128]	@ (8002a1c <HAL_I2C_MspInit+0x12c>)
 800299a:	6b1b      	ldr	r3, [r3, #48]	@ 0x30
 800299c:	4a1f      	ldr	r2, [pc, #124]	@ (8002a1c <HAL_I2C_MspInit+0x12c>)
 800299e:	f043 0301 	orr.w	r3, r3, #1
 80029a2:	6313      	str	r3, [r2, #48]	@ 0x30
 80029a4:	4b1d      	ldr	r3, [pc, #116]	@ (8002a1c <HAL_I2C_MspInit+0x12c>)
 80029a6:	6b1b      	ldr	r3, [r3, #48]	@ 0x30
 80029a8:	f003 0301 	and.w	r3, r3, #1
 80029ac:	60fb      	str	r3, [r7, #12]
 80029ae:	68fb      	ldr	r3, [r7, #12]
    GPIO_InitStruct.Pin = GPIO_PIN_9;
 80029b0:	f44f 7300 	mov.w	r3, #512	@ 0x200
 80029b4:	61fb      	str	r3, [r7, #28]
    GPIO_InitStruct.Mode = GPIO_MODE_AF_OD;
 80029b6:	2312      	movs	r3, #18
 80029b8:	623b      	str	r3, [r7, #32]
    GPIO_InitStruct.Pull = GPIO_NOPULL;
 80029ba:	2300      	movs	r3, #0
 80029bc:	627b      	str	r3, [r7, #36]	@ 0x24
    GPIO_InitStruct.Speed = GPIO_SPEED_FREQ_VERY_HIGH;
 80029be:	2303      	movs	r3, #3
 80029c0:	62bb      	str	r3, [r7, #40]	@ 0x28
    GPIO_InitStruct.Alternate = GPIO_AF4_I2C3;
 80029c2:	2304      	movs	r3, #4
 80029c4:	62fb      	str	r3, [r7, #44]	@ 0x2c
    HAL_GPIO_Init(GPIOC, &GPIO_InitStruct);
 80029c6:	f107 031c 	add.w	r3, r7, #28
 80029ca:	4619      	mov	r1, r3
 80029cc:	4816      	ldr	r0, [pc, #88]	@ (8002a28 <HAL_I2C_MspInit+0x138>)
 80029ce:	f001 ffc5 	bl	800495c <HAL_GPIO_Init>
    GPIO_InitStruct.Pin = GPIO_PIN_8;
 80029d2:	f44f 7380 	mov.w	r3, #256	@ 0x100
 80029d6:	61fb      	str	r3, [r7, #28]
    GPIO_InitStruct.Mode = GPIO_MODE_AF_OD;
 80029d8:	2312      	movs	r3, #18
 80029da:	623b      	str	r3, [r7, #32]
    GPIO_InitStruct.Pull = GPIO_NOPULL;
 80029dc:	2300      	movs	r3, #0
 80029de:	627b      	str	r3, [r7, #36]	@ 0x24
    GPIO_InitStruct.Speed = GPIO_SPEED_FREQ_VERY_HIGH;
 80029e0:	2303      	movs	r3, #3
 80029e2:	62bb      	str	r3, [r7, #40]	@ 0x28
    GPIO_InitStruct.Alternate = GPIO_AF4_I2C3;
 80029e4:	2304      	movs	r3, #4
 80029e6:	62fb      	str	r3, [r7, #44]	@ 0x2c
    HAL_GPIO_Init(GPIOA, &GPIO_InitStruct);
 80029e8:	f107 031c 	add.w	r3, r7, #28
 80029ec:	4619      	mov	r1, r3
 80029ee:	480f      	ldr	r0, [pc, #60]	@ (8002a2c <HAL_I2C_MspInit+0x13c>)
 80029f0:	f001 ffb4 	bl	800495c <HAL_GPIO_Init>
    __HAL_RCC_I2C3_CLK_ENABLE();
 80029f4:	2300      	movs	r3, #0
 80029f6:	60bb      	str	r3, [r7, #8]
 80029f8:	4b08      	ldr	r3, [pc, #32]	@ (8002a1c <HAL_I2C_MspInit+0x12c>)
 80029fa:	6c1b      	ldr	r3, [r3, #64]	@ 0x40
 80029fc:	4a07      	ldr	r2, [pc, #28]	@ (8002a1c <HAL_I2C_MspInit+0x12c>)
 80029fe:	f443 0300 	orr.w	r3, r3, #8388608	@ 0x800000
 8002a02:	6413      	str	r3, [r2, #64]	@ 0x40
 8002a04:	4b05      	ldr	r3, [pc, #20]	@ (8002a1c <HAL_I2C_MspInit+0x12c>)
 8002a06:	6c1b      	ldr	r3, [r3, #64]	@ 0x40
 8002a08:	f403 0300 	and.w	r3, r3, #8388608	@ 0x800000
 8002a0c:	60bb      	str	r3, [r7, #8]
 8002a0e:	68bb      	ldr	r3, [r7, #8]
}
 8002a10:	bf00      	nop
 8002a12:	3730      	adds	r7, #48	@ 0x30
 8002a14:	46bd      	mov	sp, r7
 8002a16:	bd80      	pop	{r7, pc}
 8002a18:	40005400 	.word	0x40005400
 8002a1c:	40023800 	.word	0x40023800
 8002a20:	40020400 	.word	0x40020400
 8002a24:	40005c00 	.word	0x40005c00
 8002a28:	40020800 	.word	0x40020800
 8002a2c:	40020000 	.word	0x40020000

08002a30 <HAL_I2C_MspDeInit>:
* This function freeze the hardware resources used in this example
* @param hi2c: I2C handle pointer
* @retval None
*/
void HAL_I2C_MspDeInit(I2C_HandleTypeDef* hi2c)
{
 8002a30:	b580      	push	{r7, lr}
 8002a32:	b082      	sub	sp, #8
 8002a34:	af00      	add	r7, sp, #0
 8002a36:	6078      	str	r0, [r7, #4]
  if(hi2c->Instance==I2C1)
 8002a38:	687b      	ldr	r3, [r7, #4]
 8002a3a:	681b      	ldr	r3, [r3, #0]
 8002a3c:	4a16      	ldr	r2, [pc, #88]	@ (8002a98 <HAL_I2C_MspDeInit+0x68>)
 8002a3e:	4293      	cmp	r3, r2
 8002a40:	d110      	bne.n	8002a64 <HAL_I2C_MspDeInit+0x34>
  {
  /* USER CODE BEGIN I2C1_MspDeInit 0 */

  /* USER CODE END I2C1_MspDeInit 0 */
    /* Peripheral clock disable */
    __HAL_RCC_I2C1_CLK_DISABLE();
 8002a42:	4b16      	ldr	r3, [pc, #88]	@ (8002a9c <HAL_I2C_MspDeInit+0x6c>)
 8002a44:	6c1b      	ldr	r3, [r3, #64]	@ 0x40
 8002a46:	4a15      	ldr	r2, [pc, #84]	@ (8002a9c <HAL_I2C_MspDeInit+0x6c>)
 8002a48:	f423 1300 	bic.w	r3, r3, #2097152	@ 0x200000
 8002a4c:	6413      	str	r3, [r2, #64]	@ 0x40

    /**I2C1 GPIO Configuration
    PB8     ------> I2C1_SCL
    PB9     ------> I2C1_SDA
    */
    HAL_GPIO_DeInit(GPIOB, GPIO_PIN_8);
 8002a4e:	f44f 7180 	mov.w	r1, #256	@ 0x100
 8002a52:	4813      	ldr	r0, [pc, #76]	@ (8002aa0 <HAL_I2C_MspDeInit+0x70>)
 8002a54:	f002 f92e 	bl	8004cb4 <HAL_GPIO_DeInit>

    HAL_GPIO_DeInit(GPIOB, GPIO_PIN_9);
 8002a58:	f44f 7100 	mov.w	r1, #512	@ 0x200
 8002a5c:	4810      	ldr	r0, [pc, #64]	@ (8002aa0 <HAL_I2C_MspDeInit+0x70>)
 8002a5e:	f002 f929 	bl	8004cb4 <HAL_GPIO_DeInit>
  /* USER CODE BEGIN I2C3_MspDeInit 1 */

  /* USER CODE END I2C3_MspDeInit 1 */
  }

}
 8002a62:	e014      	b.n	8002a8e <HAL_I2C_MspDeInit+0x5e>
  else if(hi2c->Instance==I2C3)
 8002a64:	687b      	ldr	r3, [r7, #4]
 8002a66:	681b      	ldr	r3, [r3, #0]
 8002a68:	4a0e      	ldr	r2, [pc, #56]	@ (8002aa4 <HAL_I2C_MspDeInit+0x74>)
 8002a6a:	4293      	cmp	r3, r2
 8002a6c:	d10f      	bne.n	8002a8e <HAL_I2C_MspDeInit+0x5e>
    __HAL_RCC_I2C3_CLK_DISABLE();
 8002a6e:	4b0b      	ldr	r3, [pc, #44]	@ (8002a9c <HAL_I2C_MspDeInit+0x6c>)
 8002a70:	6c1b      	ldr	r3, [r3, #64]	@ 0x40
 8002a72:	4a0a      	ldr	r2, [pc, #40]	@ (8002a9c <HAL_I2C_MspDeInit+0x6c>)
 8002a74:	f423 0300 	bic.w	r3, r3, #8388608	@ 0x800000
 8002a78:	6413      	str	r3, [r2, #64]	@ 0x40
    HAL_GPIO_DeInit(GPIOC, GPIO_PIN_9);
 8002a7a:	f44f 7100 	mov.w	r1, #512	@ 0x200
 8002a7e:	480a      	ldr	r0, [pc, #40]	@ (8002aa8 <HAL_I2C_MspDeInit+0x78>)
 8002a80:	f002 f918 	bl	8004cb4 <HAL_GPIO_DeInit>
    HAL_GPIO_DeInit(GPIOA, GPIO_PIN_8);
 8002a84:	f44f 7180 	mov.w	r1, #256	@ 0x100
 8002a88:	4808      	ldr	r0, [pc, #32]	@ (8002aac <HAL_I2C_MspDeInit+0x7c>)
 8002a8a:	f002 f913 	bl	8004cb4 <HAL_GPIO_DeInit>
}
 8002a8e:	bf00      	nop
 8002a90:	3708      	adds	r7, #8
 8002a92:	46bd      	mov	sp, r7
 8002a94:	bd80      	pop	{r7, pc}
 8002a96:	bf00      	nop
 8002a98:	40005400 	.word	0x40005400
 8002a9c:	40023800 	.word	0x40023800
 8002aa0:	40020400 	.word	0x40020400
 8002aa4:	40005c00 	.word	0x40005c00
 8002aa8:	40020800 	.word	0x40020800
 8002aac:	40020000 	.word	0x40020000

08002ab0 <HAL_RTC_MspInit>:
* This function configures the hardware resources used in this example
* @param hrtc: RTC handle pointer
* @retval None
*/
void HAL_RTC_MspInit(RTC_HandleTypeDef* hrtc)
{
 8002ab0:	b580      	push	{r7, lr}
 8002ab2:	b08e      	sub	sp, #56	@ 0x38
 8002ab4:	af00      	add	r7, sp, #0
 8002ab6:	6078      	str	r0, [r7, #4]
  RCC_PeriphCLKInitTypeDef PeriphClkInitStruct = {0};
 8002ab8:	f107 0308 	add.w	r3, r7, #8
 8002abc:	2230      	movs	r2, #48	@ 0x30
 8002abe:	2100      	movs	r1, #0
 8002ac0:	4618      	mov	r0, r3
 8002ac2:	f006 feeb 	bl	800989c <memset>
  if(hrtc->Instance==RTC)
 8002ac6:	687b      	ldr	r3, [r7, #4]
 8002ac8:	681b      	ldr	r3, [r3, #0]
 8002aca:	4a0c      	ldr	r2, [pc, #48]	@ (8002afc <HAL_RTC_MspInit+0x4c>)
 8002acc:	4293      	cmp	r3, r2
 8002ace:	d111      	bne.n	8002af4 <HAL_RTC_MspInit+0x44>

  /* USER CODE END RTC_MspInit 0 */

  /** Initializes the peripherals clock
  */
    PeriphClkInitStruct.PeriphClockSelection = RCC_PERIPHCLK_RTC;
 8002ad0:	2320      	movs	r3, #32
 8002ad2:	60bb      	str	r3, [r7, #8]
    PeriphClkInitStruct.RTCClockSelection = RCC_RTCCLKSOURCE_LSI;
 8002ad4:	f44f 7300 	mov.w	r3, #512	@ 0x200
 8002ad8:	633b      	str	r3, [r7, #48]	@ 0x30
    if (HAL_RCCEx_PeriphCLKConfig(&PeriphClkInitStruct) != HAL_OK)
 8002ada:	f107 0308 	add.w	r3, r7, #8
 8002ade:	4618      	mov	r0, r3
 8002ae0:	f003 ff7e 	bl	80069e0 <HAL_RCCEx_PeriphCLKConfig>
 8002ae4:	4603      	mov	r3, r0
 8002ae6:	2b00      	cmp	r3, #0
 8002ae8:	d001      	beq.n	8002aee <HAL_RTC_MspInit+0x3e>
    {
      Error_Handler();
 8002aea:	f7ff f9f9 	bl	8001ee0 <Error_Handler>
    }

    /* Peripheral clock enable */
    __HAL_RCC_RTC_ENABLE();
 8002aee:	4b04      	ldr	r3, [pc, #16]	@ (8002b00 <HAL_RTC_MspInit+0x50>)
 8002af0:	2201      	movs	r2, #1
 8002af2:	601a      	str	r2, [r3, #0]

  /* USER CODE END RTC_MspInit 1 */

  }

}
 8002af4:	bf00      	nop
 8002af6:	3738      	adds	r7, #56	@ 0x38
 8002af8:	46bd      	mov	sp, r7
 8002afa:	bd80      	pop	{r7, pc}
 8002afc:	40002800 	.word	0x40002800
 8002b00:	42470e3c 	.word	0x42470e3c

08002b04 <HAL_SPI_MspInit>:
* This function configures the hardware resources used in this example
* @param hspi: SPI handle pointer
* @retval None
*/
void HAL_SPI_MspInit(SPI_HandleTypeDef* hspi)
{
 8002b04:	b580      	push	{r7, lr}
 8002b06:	b08c      	sub	sp, #48	@ 0x30
 8002b08:	af00      	add	r7, sp, #0
 8002b0a:	6078      	str	r0, [r7, #4]
  GPIO_InitTypeDef GPIO_InitStruct = {0};
 8002b0c:	f107 031c 	add.w	r3, r7, #28
 8002b10:	2200      	movs	r2, #0
 8002b12:	601a      	str	r2, [r3, #0]
 8002b14:	605a      	str	r2, [r3, #4]
 8002b16:	609a      	str	r2, [r3, #8]
 8002b18:	60da      	str	r2, [r3, #12]
 8002b1a:	611a      	str	r2, [r3, #16]
  if(hspi->Instance==SPI1)
 8002b1c:	687b      	ldr	r3, [r7, #4]
 8002b1e:	681b      	ldr	r3, [r3, #0]
 8002b20:	4a6f      	ldr	r2, [pc, #444]	@ (8002ce0 <HAL_SPI_MspInit+0x1dc>)
 8002b22:	4293      	cmp	r3, r2
 8002b24:	d15b      	bne.n	8002bde <HAL_SPI_MspInit+0xda>
  {
  /* USER CODE BEGIN SPI1_MspInit 0 */

  /* USER CODE END SPI1_MspInit 0 */
    /* Peripheral clock enable */
    __HAL_RCC_SPI1_CLK_ENABLE();
 8002b26:	2300      	movs	r3, #0
 8002b28:	61bb      	str	r3, [r7, #24]
 8002b2a:	4b6e      	ldr	r3, [pc, #440]	@ (8002ce4 <HAL_SPI_MspInit+0x1e0>)
 8002b2c:	6c5b      	ldr	r3, [r3, #68]	@ 0x44
 8002b2e:	4a6d      	ldr	r2, [pc, #436]	@ (8002ce4 <HAL_SPI_MspInit+0x1e0>)
 8002b30:	f443 5380 	orr.w	r3, r3, #4096	@ 0x1000
 8002b34:	6453      	str	r3, [r2, #68]	@ 0x44
 8002b36:	4b6b      	ldr	r3, [pc, #428]	@ (8002ce4 <HAL_SPI_MspInit+0x1e0>)
 8002b38:	6c5b      	ldr	r3, [r3, #68]	@ 0x44
 8002b3a:	f403 5380 	and.w	r3, r3, #4096	@ 0x1000
 8002b3e:	61bb      	str	r3, [r7, #24]
 8002b40:	69bb      	ldr	r3, [r7, #24]

    __HAL_RCC_GPIOA_CLK_ENABLE();
 8002b42:	2300      	movs	r3, #0
 8002b44:	617b      	str	r3, [r7, #20]
 8002b46:	4b67      	ldr	r3, [pc, #412]	@ (8002ce4 <HAL_SPI_MspInit+0x1e0>)
 8002b48:	6b1b      	ldr	r3, [r3, #48]	@ 0x30
 8002b4a:	4a66      	ldr	r2, [pc, #408]	@ (8002ce4 <HAL_SPI_MspInit+0x1e0>)
 8002b4c:	f043 0301 	orr.w	r3, r3, #1
 8002b50:	6313      	str	r3, [r2, #48]	@ 0x30
 8002b52:	4b64      	ldr	r3, [pc, #400]	@ (8002ce4 <HAL_SPI_MspInit+0x1e0>)
 8002b54:	6b1b      	ldr	r3, [r3, #48]	@ 0x30
 8002b56:	f003 0301 	and.w	r3, r3, #1
 8002b5a:	617b      	str	r3, [r7, #20]
 8002b5c:	697b      	ldr	r3, [r7, #20]
    /**SPI1 GPIO Configuration
    PA5     ------> SPI1_SCK
    PA6     ------> SPI1_MISO
    PA7     ------> SPI1_MOSI
    */
    GPIO_InitStruct.Pin = GPIO_PIN_5|GPIO_PIN_6|GPIO_PIN_7;
 8002b5e:	23e0      	movs	r3, #224	@ 0xe0
 8002b60:	61fb      	str	r3, [r7, #28]
    GPIO_InitStruct.Mode = GPIO_MODE_AF_PP;
 8002b62:	2302      	movs	r3, #2
 8002b64:	623b      	str	r3, [r7, #32]
    GPIO_InitStruct.Pull = GPIO_NOPULL;
 8002b66:	2300      	movs	r3, #0
 8002b68:	627b      	str	r3, [r7, #36]	@ 0x24
    GPIO_InitStruct.Speed = GPIO_SPEED_FREQ_VERY_HIGH;
 8002b6a:	2303      	movs	r3, #3
 8002b6c:	62bb      	str	r3, [r7, #40]	@ 0x28
    GPIO_InitStruct.Alternate = GPIO_AF5_SPI1;
 8002b6e:	2305      	movs	r3, #5
 8002b70:	62fb      	str	r3, [r7, #44]	@ 0x2c
    HAL_GPIO_Init(GPIOA, &GPIO_InitStruct);
 8002b72:	f107 031c 	add.w	r3, r7, #28
 8002b76:	4619      	mov	r1, r3
 8002b78:	485b      	ldr	r0, [pc, #364]	@ (8002ce8 <HAL_SPI_MspInit+0x1e4>)
 8002b7a:	f001 feef 	bl	800495c <HAL_GPIO_Init>

    /* SPI1 DMA Init */
    /* SPI1_TX Init */
    hdma_spi1_tx.Instance = DMA2_Stream3;
 8002b7e:	4b5b      	ldr	r3, [pc, #364]	@ (8002cec <HAL_SPI_MspInit+0x1e8>)
 8002b80:	4a5b      	ldr	r2, [pc, #364]	@ (8002cf0 <HAL_SPI_MspInit+0x1ec>)
 8002b82:	601a      	str	r2, [r3, #0]
    hdma_spi1_tx.Init.Channel = DMA_CHANNEL_3;
 8002b84:	4b59      	ldr	r3, [pc, #356]	@ (8002cec <HAL_SPI_MspInit+0x1e8>)
 8002b86:	f04f 62c0 	mov.w	r2, #100663296	@ 0x6000000
 8002b8a:	605a      	str	r2, [r3, #4]
    hdma_spi1_tx.Init.Direction = DMA_MEMORY_TO_PERIPH;
 8002b8c:	4b57      	ldr	r3, [pc, #348]	@ (8002cec <HAL_SPI_MspInit+0x1e8>)
 8002b8e:	2240      	movs	r2, #64	@ 0x40
 8002b90:	609a      	str	r2, [r3, #8]
    hdma_spi1_tx.Init.PeriphInc = DMA_PINC_DISABLE;
 8002b92:	4b56      	ldr	r3, [pc, #344]	@ (8002cec <HAL_SPI_MspInit+0x1e8>)
 8002b94:	2200      	movs	r2, #0
 8002b96:	60da      	str	r2, [r3, #12]
    hdma_spi1_tx.Init.MemInc = DMA_MINC_ENABLE;
 8002b98:	4b54      	ldr	r3, [pc, #336]	@ (8002cec <HAL_SPI_MspInit+0x1e8>)
 8002b9a:	f44f 6280 	mov.w	r2, #1024	@ 0x400
 8002b9e:	611a      	str	r2, [r3, #16]
    hdma_spi1_tx.Init.PeriphDataAlignment = DMA_PDATAALIGN_BYTE;
 8002ba0:	4b52      	ldr	r3, [pc, #328]	@ (8002cec <HAL_SPI_MspInit+0x1e8>)
 8002ba2:	2200      	movs	r2, #0
 8002ba4:	615a      	str	r2, [r3, #20]
    hdma_spi1_tx.Init.MemDataAlignment = DMA_MDATAALIGN_BYTE;
 8002ba6:	4b51      	ldr	r3, [pc, #324]	@ (8002cec <HAL_SPI_MspInit+0x1e8>)
 8002ba8:	2200      	movs	r2, #0
 8002baa:	619a      	str	r2, [r3, #24]
    hdma_spi1_tx.Init.Mode = DMA_NORMAL;
 8002bac:	4b4f      	ldr	r3, [pc, #316]	@ (8002cec <HAL_SPI_MspInit+0x1e8>)
 8002bae:	2200      	movs	r2, #0
 8002bb0:	61da      	str	r2, [r3, #28]
    hdma_spi1_tx.Init.Priority = DMA_PRIORITY_MEDIUM;
 8002bb2:	4b4e      	ldr	r3, [pc, #312]	@ (8002cec <HAL_SPI_MspInit+0x1e8>)
 8002bb4:	f44f 3280 	mov.w	r2, #65536	@ 0x10000
 8002bb8:	621a      	str	r2, [r3, #32]
    hdma_spi1_tx.Init.FIFOMode = DMA_FIFOMODE_DISABLE;
 8002bba:	4b4c      	ldr	r3, [pc, #304]	@ (8002cec <HAL_SPI_MspInit+0x1e8>)
 8002bbc:	2200      	movs	r2, #0
 8002bbe:	625a      	str	r2, [r3, #36]	@ 0x24
    if (HAL_DMA_Init(&hdma_spi1_tx) != HAL_OK)
 8002bc0:	484a      	ldr	r0, [pc, #296]	@ (8002cec <HAL_SPI_MspInit+0x1e8>)
 8002bc2:	f001 fac9 	bl	8004158 <HAL_DMA_Init>
 8002bc6:	4603      	mov	r3, r0
 8002bc8:	2b00      	cmp	r3, #0
 8002bca:	d001      	beq.n	8002bd0 <HAL_SPI_MspInit+0xcc>
    {
      Error_Handler();
 8002bcc:	f7ff f988 	bl	8001ee0 <Error_Handler>
    }

    __HAL_LINKDMA(hspi,hdmatx,hdma_spi1_tx);
 8002bd0:	687b      	ldr	r3, [r7, #4]
 8002bd2:	4a46      	ldr	r2, [pc, #280]	@ (8002cec <HAL_SPI_MspInit+0x1e8>)
 8002bd4:	649a      	str	r2, [r3, #72]	@ 0x48
 8002bd6:	4a45      	ldr	r2, [pc, #276]	@ (8002cec <HAL_SPI_MspInit+0x1e8>)
 8002bd8:	687b      	ldr	r3, [r7, #4]
 8002bda:	6393      	str	r3, [r2, #56]	@ 0x38
  /* USER CODE BEGIN SPI2_MspInit 1 */

  /* USER CODE END SPI2_MspInit 1 */
  }

}
 8002bdc:	e07c      	b.n	8002cd8 <HAL_SPI_MspInit+0x1d4>
  else if(hspi->Instance==SPI2)
 8002bde:	687b      	ldr	r3, [r7, #4]
 8002be0:	681b      	ldr	r3, [r3, #0]
 8002be2:	4a44      	ldr	r2, [pc, #272]	@ (8002cf4 <HAL_SPI_MspInit+0x1f0>)
 8002be4:	4293      	cmp	r3, r2
 8002be6:	d177      	bne.n	8002cd8 <HAL_SPI_MspInit+0x1d4>
    __HAL_RCC_SPI2_CLK_ENABLE();
 8002be8:	2300      	movs	r3, #0
 8002bea:	613b      	str	r3, [r7, #16]
 8002bec:	4b3d      	ldr	r3, [pc, #244]	@ (8002ce4 <HAL_SPI_MspInit+0x1e0>)
 8002bee:	6c1b      	ldr	r3, [r3, #64]	@ 0x40
 8002bf0:	4a3c      	ldr	r2, [pc, #240]	@ (8002ce4 <HAL_SPI_MspInit+0x1e0>)
 8002bf2:	f443 4380 	orr.w	r3, r3, #16384	@ 0x4000
 8002bf6:	6413      	str	r3, [r2, #64]	@ 0x40
 8002bf8:	4b3a      	ldr	r3, [pc, #232]	@ (8002ce4 <HAL_SPI_MspInit+0x1e0>)
 8002bfa:	6c1b      	ldr	r3, [r3, #64]	@ 0x40
 8002bfc:	f403 4380 	and.w	r3, r3, #16384	@ 0x4000
 8002c00:	613b      	str	r3, [r7, #16]
 8002c02:	693b      	ldr	r3, [r7, #16]
    __HAL_RCC_GPIOC_CLK_ENABLE();
 8002c04:	2300      	movs	r3, #0
 8002c06:	60fb      	str	r3, [r7, #12]
 8002c08:	4b36      	ldr	r3, [pc, #216]	@ (8002ce4 <HAL_SPI_MspInit+0x1e0>)
 8002c0a:	6b1b      	ldr	r3, [r3, #48]	@ 0x30
 8002c0c:	4a35      	ldr	r2, [pc, #212]	@ (8002ce4 <HAL_SPI_MspInit+0x1e0>)
 8002c0e:	f043 0304 	orr.w	r3, r3, #4
 8002c12:	6313      	str	r3, [r2, #48]	@ 0x30
 8002c14:	4b33      	ldr	r3, [pc, #204]	@ (8002ce4 <HAL_SPI_MspInit+0x1e0>)
 8002c16:	6b1b      	ldr	r3, [r3, #48]	@ 0x30
 8002c18:	f003 0304 	and.w	r3, r3, #4
 8002c1c:	60fb      	str	r3, [r7, #12]
 8002c1e:	68fb      	ldr	r3, [r7, #12]
    __HAL_RCC_GPIOD_CLK_ENABLE();
 8002c20:	2300      	movs	r3, #0
 8002c22:	60bb      	str	r3, [r7, #8]
 8002c24:	4b2f      	ldr	r3, [pc, #188]	@ (8002ce4 <HAL_SPI_MspInit+0x1e0>)
 8002c26:	6b1b      	ldr	r3, [r3, #48]	@ 0x30
 8002c28:	4a2e      	ldr	r2, [pc, #184]	@ (8002ce4 <HAL_SPI_MspInit+0x1e0>)
 8002c2a:	f043 0308 	orr.w	r3, r3, #8
 8002c2e:	6313      	str	r3, [r2, #48]	@ 0x30
 8002c30:	4b2c      	ldr	r3, [pc, #176]	@ (8002ce4 <HAL_SPI_MspInit+0x1e0>)
 8002c32:	6b1b      	ldr	r3, [r3, #48]	@ 0x30
 8002c34:	f003 0308 	and.w	r3, r3, #8
 8002c38:	60bb      	str	r3, [r7, #8]
 8002c3a:	68bb      	ldr	r3, [r7, #8]
    GPIO_InitStruct.Pin = GPIO_PIN_2|GPIO_PIN_3;
 8002c3c:	230c      	movs	r3, #12
 8002c3e:	61fb      	str	r3, [r7, #28]
    GPIO_InitStruct.Mode = GPIO_MODE_AF_PP;
 8002c40:	2302      	movs	r3, #2
 8002c42:	623b      	str	r3, [r7, #32]
    GPIO_InitStruct.Pull = GPIO_NOPULL;
 8002c44:	2300      	movs	r3, #0
 8002c46:	627b      	str	r3, [r7, #36]	@ 0x24
    GPIO_InitStruct.Speed = GPIO_SPEED_FREQ_VERY_HIGH;
 8002c48:	2303      	movs	r3, #3
 8002c4a:	62bb      	str	r3, [r7, #40]	@ 0x28
    GPIO_InitStruct.Alternate = GPIO_AF5_SPI2;
 8002c4c:	2305      	movs	r3, #5
 8002c4e:	62fb      	str	r3, [r7, #44]	@ 0x2c
    HAL_GPIO_Init(GPIOC, &GPIO_InitStruct);
 8002c50:	f107 031c 	add.w	r3, r7, #28
 8002c54:	4619      	mov	r1, r3
 8002c56:	4828      	ldr	r0, [pc, #160]	@ (8002cf8 <HAL_SPI_MspInit+0x1f4>)
 8002c58:	f001 fe80 	bl	800495c <HAL_GPIO_Init>
    GPIO_InitStruct.Pin = GPIO_PIN_3;
 8002c5c:	2308      	movs	r3, #8
 8002c5e:	61fb      	str	r3, [r7, #28]
    GPIO_InitStruct.Mode = GPIO_MODE_AF_PP;
 8002c60:	2302      	movs	r3, #2
 8002c62:	623b      	str	r3, [r7, #32]
    GPIO_InitStruct.Pull = GPIO_NOPULL;
 8002c64:	2300      	movs	r3, #0
 8002c66:	627b      	str	r3, [r7, #36]	@ 0x24
    GPIO_InitStruct.Speed = GPIO_SPEED_FREQ_VERY_HIGH;
 8002c68:	2303      	movs	r3, #3
 8002c6a:	62bb      	str	r3, [r7, #40]	@ 0x28
    GPIO_InitStruct.Alternate = GPIO_AF5_SPI2;
 8002c6c:	2305      	movs	r3, #5
 8002c6e:	62fb      	str	r3, [r7, #44]	@ 0x2c
    HAL_GPIO_Init(GPIOD, &GPIO_InitStruct);
 8002c70:	f107 031c 	add.w	r3, r7, #28
 8002c74:	4619      	mov	r1, r3
 8002c76:	4821      	ldr	r0, [pc, #132]	@ (8002cfc <HAL_SPI_MspInit+0x1f8>)
 8002c78:	f001 fe70 	bl	800495c <HAL_GPIO_Init>
    hdma_spi2_tx.Instance = DMA1_Stream4;
 8002c7c:	4b20      	ldr	r3, [pc, #128]	@ (8002d00 <HAL_SPI_MspInit+0x1fc>)
 8002c7e:	4a21      	ldr	r2, [pc, #132]	@ (8002d04 <HAL_SPI_MspInit+0x200>)
 8002c80:	601a      	str	r2, [r3, #0]
    hdma_spi2_tx.Init.Channel = DMA_CHANNEL_0;
 8002c82:	4b1f      	ldr	r3, [pc, #124]	@ (8002d00 <HAL_SPI_MspInit+0x1fc>)
 8002c84:	2200      	movs	r2, #0
 8002c86:	605a      	str	r2, [r3, #4]
    hdma_spi2_tx.Init.Direction = DMA_MEMORY_TO_PERIPH;
 8002c88:	4b1d      	ldr	r3, [pc, #116]	@ (8002d00 <HAL_SPI_MspInit+0x1fc>)
 8002c8a:	2240      	movs	r2, #64	@ 0x40
 8002c8c:	609a      	str	r2, [r3, #8]
    hdma_spi2_tx.Init.PeriphInc = DMA_PINC_DISABLE;
 8002c8e:	4b1c      	ldr	r3, [pc, #112]	@ (8002d00 <HAL_SPI_MspInit+0x1fc>)
 8002c90:	2200      	movs	r2, #0
 8002c92:	60da      	str	r2, [r3, #12]
    hdma_spi2_tx.Init.MemInc = DMA_MINC_ENABLE;
 8002c94:	4b1a      	ldr	r3, [pc, #104]	@ (8002d00 <HAL_SPI_MspInit+0x1fc>)
 8002c96:	f44f 6280 	mov.w	r2, #1024	@ 0x400
 8002c9a:	611a      	str	r2, [r3, #16]
    hdma_spi2_tx.Init.PeriphDataAlignment = DMA_PDATAALIGN_BYTE;
 8002c9c:	4b18      	ldr	r3, [pc, #96]	@ (8002d00 <HAL_SPI_MspInit+0x1fc>)
 8002c9e:	2200      	movs	r2, #0
 8002ca0:	615a      	str	r2, [r3, #20]
    hdma_spi2_tx.Init.MemDataAlignment = DMA_MDATAALIGN_BYTE;
 8002ca2:	4b17      	ldr	r3, [pc, #92]	@ (8002d00 <HAL_SPI_MspInit+0x1fc>)
 8002ca4:	2200      	movs	r2, #0
 8002ca6:	619a      	str	r2, [r3, #24]
    hdma_spi2_tx.Init.Mode = DMA_NORMAL;
 8002ca8:	4b15      	ldr	r3, [pc, #84]	@ (8002d00 <HAL_SPI_MspInit+0x1fc>)
 8002caa:	2200      	movs	r2, #0
 8002cac:	61da      	str	r2, [r3, #28]
    hdma_spi2_tx.Init.Priority = DMA_PRIORITY_MEDIUM;
 8002cae:	4b14      	ldr	r3, [pc, #80]	@ (8002d00 <HAL_SPI_MspInit+0x1fc>)
 8002cb0:	f44f 3280 	mov.w	r2, #65536	@ 0x10000
 8002cb4:	621a      	str	r2, [r3, #32]
    hdma_spi2_tx.Init.FIFOMode = DMA_FIFOMODE_DISABLE;
 8002cb6:	4b12      	ldr	r3, [pc, #72]	@ (8002d00 <HAL_SPI_MspInit+0x1fc>)
 8002cb8:	2200      	movs	r2, #0
 8002cba:	625a      	str	r2, [r3, #36]	@ 0x24
    if (HAL_DMA_Init(&hdma_spi2_tx) != HAL_OK)
 8002cbc:	4810      	ldr	r0, [pc, #64]	@ (8002d00 <HAL_SPI_MspInit+0x1fc>)
 8002cbe:	f001 fa4b 	bl	8004158 <HAL_DMA_Init>
 8002cc2:	4603      	mov	r3, r0
 8002cc4:	2b00      	cmp	r3, #0
 8002cc6:	d001      	beq.n	8002ccc <HAL_SPI_MspInit+0x1c8>
      Error_Handler();
 8002cc8:	f7ff f90a 	bl	8001ee0 <Error_Handler>
    __HAL_LINKDMA(hspi,hdmatx,hdma_spi2_tx);
 8002ccc:	687b      	ldr	r3, [r7, #4]
 8002cce:	4a0c      	ldr	r2, [pc, #48]	@ (8002d00 <HAL_SPI_MspInit+0x1fc>)
 8002cd0:	649a      	str	r2, [r3, #72]	@ 0x48
 8002cd2:	4a0b      	ldr	r2, [pc, #44]	@ (8002d00 <HAL_SPI_MspInit+0x1fc>)
 8002cd4:	687b      	ldr	r3, [r7, #4]
 8002cd6:	6393      	str	r3, [r2, #56]	@ 0x38
}
 8002cd8:	bf00      	nop
 8002cda:	3730      	adds	r7, #48	@ 0x30
 8002cdc:	46bd      	mov	sp, r7
 8002cde:	bd80      	pop	{r7, pc}
 8002ce0:	40013000 	.word	0x40013000
 8002ce4:	40023800 	.word	0x40023800
 8002ce8:	40020000 	.word	0x40020000
 8002cec:	200001e8 	.word	0x200001e8
 8002cf0:	40026458 	.word	0x40026458
 8002cf4:	40003800 	.word	0x40003800
 8002cf8:	40020800 	.word	0x40020800
 8002cfc:	40020c00 	.word	0x40020c00
 8002d00:	20000248 	.word	0x20000248
 8002d04:	40026070 	.word	0x40026070

08002d08 <HAL_TIM_Base_MspInit>:
* This function configures the hardware resources used in this example
* @param htim_base: TIM_Base handle pointer
* @retval None
*/
void HAL_TIM_Base_MspInit(TIM_HandleTypeDef* htim_base)
{
 8002d08:	b580      	push	{r7, lr}
 8002d0a:	b084      	sub	sp, #16
 8002d0c:	af00      	add	r7, sp, #0
 8002d0e:	6078      	str	r0, [r7, #4]
  if(htim_base->Instance==TIM6)
 8002d10:	687b      	ldr	r3, [r7, #4]
 8002d12:	681b      	ldr	r3, [r3, #0]
 8002d14:	4a1c      	ldr	r2, [pc, #112]	@ (8002d88 <HAL_TIM_Base_MspInit+0x80>)
 8002d16:	4293      	cmp	r3, r2
 8002d18:	d116      	bne.n	8002d48 <HAL_TIM_Base_MspInit+0x40>
  {
  /* USER CODE BEGIN TIM6_MspInit 0 */

  /* USER CODE END TIM6_MspInit 0 */
    /* Peripheral clock enable */
    __HAL_RCC_TIM6_CLK_ENABLE();
 8002d1a:	2300      	movs	r3, #0
 8002d1c:	60fb      	str	r3, [r7, #12]
 8002d1e:	4b1b      	ldr	r3, [pc, #108]	@ (8002d8c <HAL_TIM_Base_MspInit+0x84>)
 8002d20:	6c1b      	ldr	r3, [r3, #64]	@ 0x40
 8002d22:	4a1a      	ldr	r2, [pc, #104]	@ (8002d8c <HAL_TIM_Base_MspInit+0x84>)
 8002d24:	f043 0310 	orr.w	r3, r3, #16
 8002d28:	6413      	str	r3, [r2, #64]	@ 0x40
 8002d2a:	4b18      	ldr	r3, [pc, #96]	@ (8002d8c <HAL_TIM_Base_MspInit+0x84>)
 8002d2c:	6c1b      	ldr	r3, [r3, #64]	@ 0x40
 8002d2e:	f003 0310 	and.w	r3, r3, #16
 8002d32:	60fb      	str	r3, [r7, #12]
 8002d34:	68fb      	ldr	r3, [r7, #12]
    /* TIM6 interrupt Init */
    HAL_NVIC_SetPriority(TIM6_DAC_IRQn, 0, 0);
 8002d36:	2200      	movs	r2, #0
 8002d38:	2100      	movs	r1, #0
 8002d3a:	2036      	movs	r0, #54	@ 0x36
 8002d3c:	f001 f9d5 	bl	80040ea <HAL_NVIC_SetPriority>
    HAL_NVIC_EnableIRQ(TIM6_DAC_IRQn);
 8002d40:	2036      	movs	r0, #54	@ 0x36
 8002d42:	f001 f9ee 	bl	8004122 <HAL_NVIC_EnableIRQ>
  /* USER CODE BEGIN TIM7_MspInit 1 */

  /* USER CODE END TIM7_MspInit 1 */
  }

}
 8002d46:	e01a      	b.n	8002d7e <HAL_TIM_Base_MspInit+0x76>
  else if(htim_base->Instance==TIM7)
 8002d48:	687b      	ldr	r3, [r7, #4]
 8002d4a:	681b      	ldr	r3, [r3, #0]
 8002d4c:	4a10      	ldr	r2, [pc, #64]	@ (8002d90 <HAL_TIM_Base_MspInit+0x88>)
 8002d4e:	4293      	cmp	r3, r2
 8002d50:	d115      	bne.n	8002d7e <HAL_TIM_Base_MspInit+0x76>
    __HAL_RCC_TIM7_CLK_ENABLE();
 8002d52:	2300      	movs	r3, #0
 8002d54:	60bb      	str	r3, [r7, #8]
 8002d56:	4b0d      	ldr	r3, [pc, #52]	@ (8002d8c <HAL_TIM_Base_MspInit+0x84>)
 8002d58:	6c1b      	ldr	r3, [r3, #64]	@ 0x40
 8002d5a:	4a0c      	ldr	r2, [pc, #48]	@ (8002d8c <HAL_TIM_Base_MspInit+0x84>)
 8002d5c:	f043 0320 	orr.w	r3, r3, #32
 8002d60:	6413      	str	r3, [r2, #64]	@ 0x40
 8002d62:	4b0a      	ldr	r3, [pc, #40]	@ (8002d8c <HAL_TIM_Base_MspInit+0x84>)
 8002d64:	6c1b      	ldr	r3, [r3, #64]	@ 0x40
 8002d66:	f003 0320 	and.w	r3, r3, #32
 8002d6a:	60bb      	str	r3, [r7, #8]
 8002d6c:	68bb      	ldr	r3, [r7, #8]
    HAL_NVIC_SetPriority(TIM7_IRQn, 0, 0);
 8002d6e:	2200      	movs	r2, #0
 8002d70:	2100      	movs	r1, #0
 8002d72:	2037      	movs	r0, #55	@ 0x37
 8002d74:	f001 f9b9 	bl	80040ea <HAL_NVIC_SetPriority>
    HAL_NVIC_EnableIRQ(TIM7_IRQn);
 8002d78:	2037      	movs	r0, #55	@ 0x37
 8002d7a:	f001 f9d2 	bl	8004122 <HAL_NVIC_EnableIRQ>
}
 8002d7e:	bf00      	nop
 8002d80:	3710      	adds	r7, #16
 8002d82:	46bd      	mov	sp, r7
 8002d84:	bd80      	pop	{r7, pc}
 8002d86:	bf00      	nop
 8002d88:	40001000 	.word	0x40001000
 8002d8c:	40023800 	.word	0x40023800
 8002d90:	40001400 	.word	0x40001400

08002d94 <HAL_UART_MspInit>:
* This function configures the hardware resources used in this example
* @param huart: UART handle pointer
* @retval None
*/
void HAL_UART_MspInit(UART_HandleTypeDef* huart)
{
 8002d94:	b580      	push	{r7, lr}
 8002d96:	b08a      	sub	sp, #40	@ 0x28
 8002d98:	af00      	add	r7, sp, #0
 8002d9a:	6078      	str	r0, [r7, #4]
  GPIO_InitTypeDef GPIO_InitStruct = {0};
 8002d9c:	f107 0314 	add.w	r3, r7, #20
 8002da0:	2200      	movs	r2, #0
 8002da2:	601a      	str	r2, [r3, #0]
 8002da4:	605a      	str	r2, [r3, #4]
 8002da6:	609a      	str	r2, [r3, #8]
 8002da8:	60da      	str	r2, [r3, #12]
 8002daa:	611a      	str	r2, [r3, #16]
  if(huart->Instance==USART2)
 8002dac:	687b      	ldr	r3, [r7, #4]
 8002dae:	681b      	ldr	r3, [r3, #0]
 8002db0:	4a1d      	ldr	r2, [pc, #116]	@ (8002e28 <HAL_UART_MspInit+0x94>)
 8002db2:	4293      	cmp	r3, r2
 8002db4:	d133      	bne.n	8002e1e <HAL_UART_MspInit+0x8a>
  {
  /* USER CODE BEGIN USART2_MspInit 0 */

  /* USER CODE END USART2_MspInit 0 */
    /* Peripheral clock enable */
    __HAL_RCC_USART2_CLK_ENABLE();
 8002db6:	2300      	movs	r3, #0
 8002db8:	613b      	str	r3, [r7, #16]
 8002dba:	4b1c      	ldr	r3, [pc, #112]	@ (8002e2c <HAL_UART_MspInit+0x98>)
 8002dbc:	6c1b      	ldr	r3, [r3, #64]	@ 0x40
 8002dbe:	4a1b      	ldr	r2, [pc, #108]	@ (8002e2c <HAL_UART_MspInit+0x98>)
 8002dc0:	f443 3300 	orr.w	r3, r3, #131072	@ 0x20000
 8002dc4:	6413      	str	r3, [r2, #64]	@ 0x40
 8002dc6:	4b19      	ldr	r3, [pc, #100]	@ (8002e2c <HAL_UART_MspInit+0x98>)
 8002dc8:	6c1b      	ldr	r3, [r3, #64]	@ 0x40
 8002dca:	f403 3300 	and.w	r3, r3, #131072	@ 0x20000
 8002dce:	613b      	str	r3, [r7, #16]
 8002dd0:	693b      	ldr	r3, [r7, #16]

    __HAL_RCC_GPIOD_CLK_ENABLE();
 8002dd2:	2300      	movs	r3, #0
 8002dd4:	60fb      	str	r3, [r7, #12]
 8002dd6:	4b15      	ldr	r3, [pc, #84]	@ (8002e2c <HAL_UART_MspInit+0x98>)
 8002dd8:	6b1b      	ldr	r3, [r3, #48]	@ 0x30
 8002dda:	4a14      	ldr	r2, [pc, #80]	@ (8002e2c <HAL_UART_MspInit+0x98>)
 8002ddc:	f043 0308 	orr.w	r3, r3, #8
 8002de0:	6313      	str	r3, [r2, #48]	@ 0x30
 8002de2:	4b12      	ldr	r3, [pc, #72]	@ (8002e2c <HAL_UART_MspInit+0x98>)
 8002de4:	6b1b      	ldr	r3, [r3, #48]	@ 0x30
 8002de6:	f003 0308 	and.w	r3, r3, #8
 8002dea:	60fb      	str	r3, [r7, #12]
 8002dec:	68fb      	ldr	r3, [r7, #12]
    /**USART2 GPIO Configuration
    PD5     ------> USART2_TX
    PD6     ------> USART2_RX
    */
    GPIO_InitStruct.Pin = GPIO_PIN_5|GPIO_PIN_6;
 8002dee:	2360      	movs	r3, #96	@ 0x60
 8002df0:	617b      	str	r3, [r7, #20]
    GPIO_InitStruct.Mode = GPIO_MODE_AF_PP;
 8002df2:	2302      	movs	r3, #2
 8002df4:	61bb      	str	r3, [r7, #24]
    GPIO_InitStruct.Pull = GPIO_NOPULL;
 8002df6:	2300      	movs	r3, #0
 8002df8:	61fb      	str	r3, [r7, #28]
    GPIO_InitStruct.Speed = GPIO_SPEED_FREQ_VERY_HIGH;
 8002dfa:	2303      	movs	r3, #3
 8002dfc:	623b      	str	r3, [r7, #32]
    GPIO_InitStruct.Alternate = GPIO_AF7_USART2;
 8002dfe:	2307      	movs	r3, #7
 8002e00:	627b      	str	r3, [r7, #36]	@ 0x24
    HAL_GPIO_Init(GPIOD, &GPIO_InitStruct);
 8002e02:	f107 0314 	add.w	r3, r7, #20
 8002e06:	4619      	mov	r1, r3
 8002e08:	4809      	ldr	r0, [pc, #36]	@ (8002e30 <HAL_UART_MspInit+0x9c>)
 8002e0a:	f001 fda7 	bl	800495c <HAL_GPIO_Init>

    /* USART2 interrupt Init */
    HAL_NVIC_SetPriority(USART2_IRQn, 0, 0);
 8002e0e:	2200      	movs	r2, #0
 8002e10:	2100      	movs	r1, #0
 8002e12:	2026      	movs	r0, #38	@ 0x26
 8002e14:	f001 f969 	bl	80040ea <HAL_NVIC_SetPriority>
    HAL_NVIC_EnableIRQ(USART2_IRQn);
 8002e18:	2026      	movs	r0, #38	@ 0x26
 8002e1a:	f001 f982 	bl	8004122 <HAL_NVIC_EnableIRQ>

  /* USER CODE END USART2_MspInit 1 */

  }

}
 8002e1e:	bf00      	nop
 8002e20:	3728      	adds	r7, #40	@ 0x28
 8002e22:	46bd      	mov	sp, r7
 8002e24:	bd80      	pop	{r7, pc}
 8002e26:	bf00      	nop
 8002e28:	40004400 	.word	0x40004400
 8002e2c:	40023800 	.word	0x40023800
 8002e30:	40020c00 	.word	0x40020c00

08002e34 <NMI_Handler>:
/******************************************************************************/
/**
  * @brief This function handles Non maskable interrupt.
  */
void NMI_Handler(void)
{
 8002e34:	b480      	push	{r7}
 8002e36:	af00      	add	r7, sp, #0
  /* USER CODE BEGIN NonMaskableInt_IRQn 0 */

  /* USER CODE END NonMaskableInt_IRQn 0 */
  /* USER CODE BEGIN NonMaskableInt_IRQn 1 */
  while (1)
 8002e38:	bf00      	nop
 8002e3a:	e7fd      	b.n	8002e38 <NMI_Handler+0x4>

08002e3c <HardFault_Handler>:

/**
  * @brief This function handles Hard fault interrupt.
  */
void HardFault_Handler(void)
{
 8002e3c:	b480      	push	{r7}
 8002e3e:	af00      	add	r7, sp, #0
  /* USER CODE BEGIN HardFault_IRQn 0 */

  /* USER CODE END HardFault_IRQn 0 */
  while (1)
 8002e40:	bf00      	nop
 8002e42:	e7fd      	b.n	8002e40 <HardFault_Handler+0x4>

08002e44 <MemManage_Handler>:

/**
  * @brief This function handles Memory management fault.
  */
void MemManage_Handler(void)
{
 8002e44:	b480      	push	{r7}
 8002e46:	af00      	add	r7, sp, #0
  /* USER CODE BEGIN MemoryManagement_IRQn 0 */

  /* USER CODE END MemoryManagement_IRQn 0 */
  while (1)
 8002e48:	bf00      	nop
 8002e4a:	e7fd      	b.n	8002e48 <MemManage_Handler+0x4>

08002e4c <BusFault_Handler>:

/**
  * @brief This function handles Pre-fetch fault, memory access fault.
  */
void BusFault_Handler(void)
{
 8002e4c:	b480      	push	{r7}
 8002e4e:	af00      	add	r7, sp, #0
  /* USER CODE BEGIN BusFault_IRQn 0 */

  /* USER CODE END BusFault_IRQn 0 */
  while (1)
 8002e50:	bf00      	nop
 8002e52:	e7fd      	b.n	8002e50 <BusFault_Handler+0x4>

08002e54 <UsageFault_Handler>:

/**
  * @brief This function handles Undefined instruction or illegal state.
  */
void UsageFault_Handler(void)
{
 8002e54:	b480      	push	{r7}
 8002e56:	af00      	add	r7, sp, #0
  /* USER CODE BEGIN UsageFault_IRQn 0 */

  /* USER CODE END UsageFault_IRQn 0 */
  while (1)
 8002e58:	bf00      	nop
 8002e5a:	e7fd      	b.n	8002e58 <UsageFault_Handler+0x4>

08002e5c <SVC_Handler>:

/**
  * @brief This function handles System service call via SWI instruction.
  */
void SVC_Handler(void)
{
 8002e5c:	b480      	push	{r7}
 8002e5e:	af00      	add	r7, sp, #0

  /* USER CODE END SVCall_IRQn 0 */
  /* USER CODE BEGIN SVCall_IRQn 1 */

  /* USER CODE END SVCall_IRQn 1 */
}
 8002e60:	bf00      	nop
 8002e62:	46bd      	mov	sp, r7
 8002e64:	f85d 7b04 	ldr.w	r7, [sp], #4
 8002e68:	4770      	bx	lr

08002e6a <DebugMon_Handler>:

/**
  * @brief This function handles Debug monitor.
  */
void DebugMon_Handler(void)
{
 8002e6a:	b480      	push	{r7}
 8002e6c:	af00      	add	r7, sp, #0

  /* USER CODE END DebugMonitor_IRQn 0 */
  /* USER CODE BEGIN DebugMonitor_IRQn 1 */

  /* USER CODE END DebugMonitor_IRQn 1 */
}
 8002e6e:	bf00      	nop
 8002e70:	46bd      	mov	sp, r7
 8002e72:	f85d 7b04 	ldr.w	r7, [sp], #4
 8002e76:	4770      	bx	lr

08002e78 <PendSV_Handler>:

/**
  * @brief This function handles Pendable request for system service.
  */
void PendSV_Handler(void)
{
 8002e78:	b480      	push	{r7}
 8002e7a:	af00      	add	r7, sp, #0

  /* USER CODE END PendSV_IRQn 0 */
  /* USER CODE BEGIN PendSV_IRQn 1 */

  /* USER CODE END PendSV_IRQn 1 */
}
 8002e7c:	bf00      	nop
 8002e7e:	46bd      	mov	sp, r7
 8002e80:	f85d 7b04 	ldr.w	r7, [sp], #4
 8002e84:	4770      	bx	lr

08002e86 <SysTick_Handler>:

/**
  * @brief This function handles System tick timer.
  */
void SysTick_Handler(void)
{
 8002e86:	b580      	push	{r7, lr}
 8002e88:	af00      	add	r7, sp, #0
  /* USER CODE BEGIN SysTick_IRQn 0 */

  /* USER CODE END SysTick_IRQn 0 */
  HAL_IncTick();
 8002e8a:	f000 f9a7 	bl	80031dc <HAL_IncTick>
  /* USER CODE BEGIN SysTick_IRQn 1 */

  /* USER CODE END SysTick_IRQn 1 */
}
 8002e8e:	bf00      	nop
 8002e90:	bd80      	pop	{r7, pc}

08002e92 <EXTI1_IRQHandler>:

/**
  * @brief This function handles EXTI line1 interrupt.
  */
void EXTI1_IRQHandler(void)
{
 8002e92:	b580      	push	{r7, lr}
 8002e94:	af00      	add	r7, sp, #0
  /* USER CODE BEGIN EXTI1_IRQn 0 */

  /* USER CODE END EXTI1_IRQn 0 */
  HAL_GPIO_EXTI_IRQHandler(Flight_JMP_Pin);
 8002e96:	2002      	movs	r0, #2
 8002e98:	f002 f864 	bl	8004f64 <HAL_GPIO_EXTI_IRQHandler>
  /* USER CODE BEGIN EXTI1_IRQn 1 */

  /* USER CODE END EXTI1_IRQn 1 */
}
 8002e9c:	bf00      	nop
 8002e9e:	bd80      	pop	{r7, pc}

08002ea0 <DMA1_Stream4_IRQHandler>:

/**
  * @brief This function handles DMA1 stream4 global interrupt.
  */
void DMA1_Stream4_IRQHandler(void)
{
 8002ea0:	b580      	push	{r7, lr}
 8002ea2:	af00      	add	r7, sp, #0
  /* USER CODE BEGIN DMA1_Stream4_IRQn 0 */

  /* USER CODE END DMA1_Stream4_IRQn 0 */
  HAL_DMA_IRQHandler(&hdma_spi2_tx);
 8002ea4:	4802      	ldr	r0, [pc, #8]	@ (8002eb0 <DMA1_Stream4_IRQHandler+0x10>)
 8002ea6:	f001 faef 	bl	8004488 <HAL_DMA_IRQHandler>
  /* USER CODE BEGIN DMA1_Stream4_IRQn 1 */

  /* USER CODE END DMA1_Stream4_IRQn 1 */
}
 8002eaa:	bf00      	nop
 8002eac:	bd80      	pop	{r7, pc}
 8002eae:	bf00      	nop
 8002eb0:	20000248 	.word	0x20000248

08002eb4 <USART2_IRQHandler>:

/**
  * @brief This function handles USART2 global interrupt.
  */
void USART2_IRQHandler(void)
{
 8002eb4:	b580      	push	{r7, lr}
 8002eb6:	af00      	add	r7, sp, #0
  /* USER CODE BEGIN USART2_IRQn 0 */

  /* USER CODE END USART2_IRQn 0 */
  HAL_UART_IRQHandler(&huart2);
 8002eb8:	4802      	ldr	r0, [pc, #8]	@ (8002ec4 <USART2_IRQHandler+0x10>)
 8002eba:	f005 fd99 	bl	80089f0 <HAL_UART_IRQHandler>
  /* USER CODE BEGIN USART2_IRQn 1 */

  /* USER CODE END USART2_IRQn 1 */
}
 8002ebe:	bf00      	nop
 8002ec0:	bd80      	pop	{r7, pc}
 8002ec2:	bf00      	nop
 8002ec4:	20000338 	.word	0x20000338

08002ec8 <TIM6_DAC_IRQHandler>:

/**
  * @brief This function handles TIM6 global interrupt, DAC1 and DAC2 underrun error interrupts.
  */
void TIM6_DAC_IRQHandler(void)
{
 8002ec8:	b580      	push	{r7, lr}
 8002eca:	af00      	add	r7, sp, #0
  /* USER CODE BEGIN TIM6_DAC_IRQn 0 */

  /* USER CODE END TIM6_DAC_IRQn 0 */
  HAL_TIM_IRQHandler(&htim6);
 8002ecc:	4803      	ldr	r0, [pc, #12]	@ (8002edc <TIM6_DAC_IRQHandler+0x14>)
 8002ece:	f005 fa31 	bl	8008334 <HAL_TIM_IRQHandler>
  /* USER CODE BEGIN TIM6_DAC_IRQn 1 */
  tim6_overflow_flag = FLAG_SET;
 8002ed2:	4b03      	ldr	r3, [pc, #12]	@ (8002ee0 <TIM6_DAC_IRQHandler+0x18>)
 8002ed4:	2201      	movs	r2, #1
 8002ed6:	701a      	strb	r2, [r3, #0]
  /* USER CODE END TIM6_DAC_IRQn 1 */
}
 8002ed8:	bf00      	nop
 8002eda:	bd80      	pop	{r7, pc}
 8002edc:	200002a8 	.word	0x200002a8
 8002ee0:	200003b6 	.word	0x200003b6

08002ee4 <TIM7_IRQHandler>:

/**
  * @brief This function handles TIM7 global interrupt.
  */
void TIM7_IRQHandler(void)
{
 8002ee4:	b580      	push	{r7, lr}
 8002ee6:	af00      	add	r7, sp, #0
  /* USER CODE BEGIN TIM7_IRQn 0 */

  /* USER CODE END TIM7_IRQn 0 */
  HAL_TIM_IRQHandler(&htim7);
 8002ee8:	4803      	ldr	r0, [pc, #12]	@ (8002ef8 <TIM7_IRQHandler+0x14>)
 8002eea:	f005 fa23 	bl	8008334 <HAL_TIM_IRQHandler>
  /* USER CODE BEGIN TIM7_IRQn 1 */
  tim7_overflow_flag = FLAG_SET;
 8002eee:	4b03      	ldr	r3, [pc, #12]	@ (8002efc <TIM7_IRQHandler+0x18>)
 8002ef0:	2201      	movs	r2, #1
 8002ef2:	701a      	strb	r2, [r3, #0]
  /* USER CODE END TIM7_IRQn 1 */
}
 8002ef4:	bf00      	nop
 8002ef6:	bd80      	pop	{r7, pc}
 8002ef8:	200002f0 	.word	0x200002f0
 8002efc:	200003b7 	.word	0x200003b7

08002f00 <DMA2_Stream3_IRQHandler>:

/**
  * @brief This function handles DMA2 stream3 global interrupt.
  */
void DMA2_Stream3_IRQHandler(void)
{
 8002f00:	b580      	push	{r7, lr}
 8002f02:	af00      	add	r7, sp, #0
  /* USER CODE BEGIN DMA2_Stream3_IRQn 0 */

  /* USER CODE END DMA2_Stream3_IRQn 0 */
  HAL_DMA_IRQHandler(&hdma_spi1_tx);
 8002f04:	4802      	ldr	r0, [pc, #8]	@ (8002f10 <DMA2_Stream3_IRQHandler+0x10>)
 8002f06:	f001 fabf 	bl	8004488 <HAL_DMA_IRQHandler>
  /* USER CODE BEGIN DMA2_Stream3_IRQn 1 */

  /* USER CODE END DMA2_Stream3_IRQn 1 */
}
 8002f0a:	bf00      	nop
 8002f0c:	bd80      	pop	{r7, pc}
 8002f0e:	bf00      	nop
 8002f10:	200001e8 	.word	0x200001e8

08002f14 <CAN2_RX0_IRQHandler>:

/**
  * @brief This function handles CAN2 RX0 interrupts.
  */
void CAN2_RX0_IRQHandler(void)
{
 8002f14:	b580      	push	{r7, lr}
 8002f16:	af00      	add	r7, sp, #0
  /* USER CODE BEGIN CAN2_RX0_IRQn 0 */

  /* USER CODE END CAN2_RX0_IRQn 0 */
  HAL_CAN_IRQHandler(&hcan2);
 8002f18:	4802      	ldr	r0, [pc, #8]	@ (8002f24 <CAN2_RX0_IRQHandler+0x10>)
 8002f1a:	f000 fddb 	bl	8003ad4 <HAL_CAN_IRQHandler>
  /* USER CODE BEGIN CAN2_RX0_IRQn 1 */

  /* USER CODE END CAN2_RX0_IRQn 1 */
}
 8002f1e:	bf00      	nop
 8002f20:	bd80      	pop	{r7, pc}
 8002f22:	bf00      	nop
 8002f24:	20000048 	.word	0x20000048

08002f28 <HAL_CAN_RxFifo0MsgPendingCallback>:

/* USER CODE BEGIN 1 */
void HAL_CAN_RxFifo0MsgPendingCallback(CAN_HandleTypeDef *hcan) {
 8002f28:	b580      	push	{r7, lr}
 8002f2a:	b082      	sub	sp, #8
 8002f2c:	af00      	add	r7, sp, #0
 8002f2e:	6078      	str	r0, [r7, #4]
	HAL_CAN_GetRxMessage(hcan, CAN_RX_FIFO0, &CAN_RxHeader, CAN_RxData);
 8002f30:	4b09      	ldr	r3, [pc, #36]	@ (8002f58 <HAL_CAN_RxFifo0MsgPendingCallback+0x30>)
 8002f32:	4a0a      	ldr	r2, [pc, #40]	@ (8002f5c <HAL_CAN_RxFifo0MsgPendingCallback+0x34>)
 8002f34:	2100      	movs	r1, #0
 8002f36:	6878      	ldr	r0, [r7, #4]
 8002f38:	f000 fc84 	bl	8003844 <HAL_CAN_GetRxMessage>
	CAN_RX_Flag = FLAG_SET;
 8002f3c:	4b08      	ldr	r3, [pc, #32]	@ (8002f60 <HAL_CAN_RxFifo0MsgPendingCallback+0x38>)
 8002f3e:	2201      	movs	r2, #1
 8002f40:	701a      	strb	r2, [r3, #0]

	if(CAN_First_Msg == FLAG_RESET) {
 8002f42:	4b08      	ldr	r3, [pc, #32]	@ (8002f64 <HAL_CAN_RxFifo0MsgPendingCallback+0x3c>)
 8002f44:	781b      	ldrb	r3, [r3, #0]
 8002f46:	2b00      	cmp	r3, #0
 8002f48:	d102      	bne.n	8002f50 <HAL_CAN_RxFifo0MsgPendingCallback+0x28>
		CAN_First_Msg = FLAG_SET;
 8002f4a:	4b06      	ldr	r3, [pc, #24]	@ (8002f64 <HAL_CAN_RxFifo0MsgPendingCallback+0x3c>)
 8002f4c:	2201      	movs	r2, #1
 8002f4e:	701a      	strb	r2, [r3, #0]
	}
}
 8002f50:	bf00      	nop
 8002f52:	3708      	adds	r7, #8
 8002f54:	46bd      	mov	sp, r7
 8002f56:	bd80      	pop	{r7, pc}
 8002f58:	200003ac 	.word	0x200003ac
 8002f5c:	20000390 	.word	0x20000390
 8002f60:	200003b4 	.word	0x200003b4
 8002f64:	200003b5 	.word	0x200003b5

08002f68 <HAL_GPIO_EXTI_Callback>:

// Set the reset RTC flag on the rising edge of the jumper flight input pin
void HAL_GPIO_EXTI_Callback(uint16_t GPIO_Pin) {
 8002f68:	b480      	push	{r7}
 8002f6a:	b083      	sub	sp, #12
 8002f6c:	af00      	add	r7, sp, #0
 8002f6e:	4603      	mov	r3, r0
 8002f70:	80fb      	strh	r3, [r7, #6]
	if(GPIO_Pin == jmp_flight.GPIO_Pin) {
 8002f72:	4b07      	ldr	r3, [pc, #28]	@ (8002f90 <HAL_GPIO_EXTI_Callback+0x28>)
 8002f74:	889b      	ldrh	r3, [r3, #4]
 8002f76:	b29b      	uxth	r3, r3
 8002f78:	88fa      	ldrh	r2, [r7, #6]
 8002f7a:	429a      	cmp	r2, r3
 8002f7c:	d102      	bne.n	8002f84 <HAL_GPIO_EXTI_Callback+0x1c>
		rtc_reset = FLAG_SET;
 8002f7e:	4b05      	ldr	r3, [pc, #20]	@ (8002f94 <HAL_GPIO_EXTI_Callback+0x2c>)
 8002f80:	2201      	movs	r2, #1
 8002f82:	701a      	strb	r2, [r3, #0]
	}
}
 8002f84:	bf00      	nop
 8002f86:	370c      	adds	r7, #12
 8002f88:	46bd      	mov	sp, r7
 8002f8a:	f85d 7b04 	ldr.w	r7, [sp], #4
 8002f8e:	4770      	bx	lr
 8002f90:	20000614 	.word	0x20000614
 8002f94:	2000061c 	.word	0x2000061c

08002f98 <HAL_SPI_TxCpltCallback>:


void HAL_SPI_TxCpltCallback(SPI_HandleTypeDef *hspi) {
 8002f98:	b580      	push	{r7, lr}
 8002f9a:	b082      	sub	sp, #8
 8002f9c:	af00      	add	r7, sp, #0
 8002f9e:	6078      	str	r0, [r7, #4]
	// Pull CS pin high to deselect the device
    if (hspi->Instance == SPI1) {
 8002fa0:	687b      	ldr	r3, [r7, #4]
 8002fa2:	681b      	ldr	r3, [r3, #0]
 8002fa4:	4a18      	ldr	r2, [pc, #96]	@ (8003008 <HAL_SPI_TxCpltCallback+0x70>)
 8002fa6:	4293      	cmp	r3, r2
 8002fa8:	d108      	bne.n	8002fbc <HAL_SPI_TxCpltCallback+0x24>
        // Pull CS pin high for SPI1 to deselect the device
    	HAL_GPIO_WritePin(cs_spi1.GPIOx, cs_spi1.GPIO_Pin, GPIO_PIN_SET);
 8002faa:	4b18      	ldr	r3, [pc, #96]	@ (800300c <HAL_SPI_TxCpltCallback+0x74>)
 8002fac:	681b      	ldr	r3, [r3, #0]
 8002fae:	4a17      	ldr	r2, [pc, #92]	@ (800300c <HAL_SPI_TxCpltCallback+0x74>)
 8002fb0:	8891      	ldrh	r1, [r2, #4]
 8002fb2:	2201      	movs	r2, #1
 8002fb4:	4618      	mov	r0, r3
 8002fb6:	f001 ffa1 	bl	8004efc <HAL_GPIO_WritePin>
 8002fba:	e00c      	b.n	8002fd6 <HAL_SPI_TxCpltCallback+0x3e>
    } else if (hspi->Instance == SPI2) {
 8002fbc:	687b      	ldr	r3, [r7, #4]
 8002fbe:	681b      	ldr	r3, [r3, #0]
 8002fc0:	4a13      	ldr	r2, [pc, #76]	@ (8003010 <HAL_SPI_TxCpltCallback+0x78>)
 8002fc2:	4293      	cmp	r3, r2
 8002fc4:	d107      	bne.n	8002fd6 <HAL_SPI_TxCpltCallback+0x3e>
        // Pull CS pin high for SPI2 to deselect the device
    	HAL_GPIO_WritePin(cs_spi2.GPIOx, cs_spi2.GPIO_Pin, GPIO_PIN_SET);
 8002fc6:	4b13      	ldr	r3, [pc, #76]	@ (8003014 <HAL_SPI_TxCpltCallback+0x7c>)
 8002fc8:	681b      	ldr	r3, [r3, #0]
 8002fca:	4a12      	ldr	r2, [pc, #72]	@ (8003014 <HAL_SPI_TxCpltCallback+0x7c>)
 8002fcc:	8891      	ldrh	r1, [r2, #4]
 8002fce:	2201      	movs	r2, #1
 8002fd0:	4618      	mov	r0, r3
 8002fd2:	f001 ff93 	bl	8004efc <HAL_GPIO_WritePin>
    }

    CLEAR_BIT(hspi->Instance->CR2, SPI_CR2_TXDMAEN);
 8002fd6:	687b      	ldr	r3, [r7, #4]
 8002fd8:	681b      	ldr	r3, [r3, #0]
 8002fda:	685a      	ldr	r2, [r3, #4]
 8002fdc:	687b      	ldr	r3, [r7, #4]
 8002fde:	681b      	ldr	r3, [r3, #0]
 8002fe0:	f022 0202 	bic.w	r2, r2, #2
 8002fe4:	605a      	str	r2, [r3, #4]
    clean_data_buffer(PAGE_SIZE, data_buffer_tx[buffer_tracker ^ 0x01]);
 8002fe6:	4b0c      	ldr	r3, [pc, #48]	@ (8003018 <HAL_SPI_TxCpltCallback+0x80>)
 8002fe8:	781b      	ldrb	r3, [r3, #0]
 8002fea:	f083 0301 	eor.w	r3, r3, #1
 8002fee:	b2db      	uxtb	r3, r3
 8002ff0:	021b      	lsls	r3, r3, #8
 8002ff2:	4a0a      	ldr	r2, [pc, #40]	@ (800301c <HAL_SPI_TxCpltCallback+0x84>)
 8002ff4:	4413      	add	r3, r2
 8002ff6:	4619      	mov	r1, r3
 8002ff8:	f44f 7080 	mov.w	r0, #256	@ 0x100
 8002ffc:	f7fe fb62 	bl	80016c4 <clean_data_buffer>
}
 8003000:	bf00      	nop
 8003002:	3708      	adds	r7, #8
 8003004:	46bd      	mov	sp, r7
 8003006:	bd80      	pop	{r7, pc}
 8003008:	40013000 	.word	0x40013000
 800300c:	200005f4 	.word	0x200005f4
 8003010:	40003800 	.word	0x40003800
 8003014:	20000604 	.word	0x20000604
 8003018:	200005b8 	.word	0x200005b8
 800301c:	200003b8 	.word	0x200003b8

08003020 <HAL_UART_RxCpltCallback>:

void HAL_UART_RxCpltCallback(UART_HandleTypeDef *huart) {
 8003020:	b580      	push	{r7, lr}
 8003022:	b082      	sub	sp, #8
 8003024:	af00      	add	r7, sp, #0
 8003026:	6078      	str	r0, [r7, #4]
	uart2_rec_flag = FLAG_SET;
 8003028:	4b05      	ldr	r3, [pc, #20]	@ (8003040 <HAL_UART_RxCpltCallback+0x20>)
 800302a:	2201      	movs	r2, #1
 800302c:	701a      	strb	r2, [r3, #0]
	HAL_UART_Receive_IT(&huart2, UARTRxData, 2);
 800302e:	2202      	movs	r2, #2
 8003030:	4904      	ldr	r1, [pc, #16]	@ (8003044 <HAL_UART_RxCpltCallback+0x24>)
 8003032:	4805      	ldr	r0, [pc, #20]	@ (8003048 <HAL_UART_RxCpltCallback+0x28>)
 8003034:	f005 fcb7 	bl	80089a6 <HAL_UART_Receive_IT>
}
 8003038:	bf00      	nop
 800303a:	3708      	adds	r7, #8
 800303c:	46bd      	mov	sp, r7
 800303e:	bd80      	pop	{r7, pc}
 8003040:	2000038a 	.word	0x2000038a
 8003044:	20000388 	.word	0x20000388
 8003048:	20000338 	.word	0x20000338

0800304c <SystemInit>:
  *         configuration.
  * @param  None
  * @retval None
  */
void SystemInit(void)
{
 800304c:	b480      	push	{r7}
 800304e:	af00      	add	r7, sp, #0
  /* FPU settings ------------------------------------------------------------*/
  #if (__FPU_PRESENT == 1) && (__FPU_USED == 1)
    SCB->CPACR |= ((3UL << 10*2)|(3UL << 11*2));  /* set CP10 and CP11 Full Access */
 8003050:	4b06      	ldr	r3, [pc, #24]	@ (800306c <SystemInit+0x20>)
 8003052:	f8d3 3088 	ldr.w	r3, [r3, #136]	@ 0x88
 8003056:	4a05      	ldr	r2, [pc, #20]	@ (800306c <SystemInit+0x20>)
 8003058:	f443 0370 	orr.w	r3, r3, #15728640	@ 0xf00000
 800305c:	f8c2 3088 	str.w	r3, [r2, #136]	@ 0x88

  /* Configure the Vector Table location -------------------------------------*/
#if defined(USER_VECT_TAB_ADDRESS)
  SCB->VTOR = VECT_TAB_BASE_ADDRESS | VECT_TAB_OFFSET; /* Vector Table Relocation in Internal SRAM */
#endif /* USER_VECT_TAB_ADDRESS */
}
 8003060:	bf00      	nop
 8003062:	46bd      	mov	sp, r7
 8003064:	f85d 7b04 	ldr.w	r7, [sp], #4
 8003068:	4770      	bx	lr
 800306a:	bf00      	nop
 800306c:	e000ed00 	.word	0xe000ed00

08003070 <uart_transmit_page>:

#include "uart_transmit.h"
/**
 * Transmit one single page over the UART interface
 */
void uart_transmit_page(UART_HandleTypeDef *huart, uint8_t page[PAGE_SIZE]) {
 8003070:	b580      	push	{r7, lr}
 8003072:	b082      	sub	sp, #8
 8003074:	af00      	add	r7, sp, #0
 8003076:	6078      	str	r0, [r7, #4]
 8003078:	6039      	str	r1, [r7, #0]
	HAL_UART_Transmit(huart, page, PAGE_SIZE, HAL_MAX_DELAY);
 800307a:	f04f 33ff 	mov.w	r3, #4294967295	@ 0xffffffff
 800307e:	f44f 7280 	mov.w	r2, #256	@ 0x100
 8003082:	6839      	ldr	r1, [r7, #0]
 8003084:	6878      	ldr	r0, [r7, #4]
 8003086:	f005 fc03 	bl	8008890 <HAL_UART_Transmit>
}
 800308a:	bf00      	nop
 800308c:	3708      	adds	r7, #8
 800308e:	46bd      	mov	sp, r7
 8003090:	bd80      	pop	{r7, pc}

08003092 <send_uart_string>:

void send_uart_string(UART_HandleTypeDef *huart, const char *str) {
 8003092:	b580      	push	{r7, lr}
 8003094:	b082      	sub	sp, #8
 8003096:	af00      	add	r7, sp, #0
 8003098:	6078      	str	r0, [r7, #4]
 800309a:	6039      	str	r1, [r7, #0]
    HAL_UART_Transmit(huart, (uint8_t *)str, strlen(str), HAL_MAX_DELAY);
 800309c:	6838      	ldr	r0, [r7, #0]
 800309e:	f7fd f8a5 	bl	80001ec <strlen>
 80030a2:	4603      	mov	r3, r0
 80030a4:	b29a      	uxth	r2, r3
 80030a6:	f04f 33ff 	mov.w	r3, #4294967295	@ 0xffffffff
 80030aa:	6839      	ldr	r1, [r7, #0]
 80030ac:	6878      	ldr	r0, [r7, #4]
 80030ae:	f005 fbef 	bl	8008890 <HAL_UART_Transmit>
}
 80030b2:	bf00      	nop
 80030b4:	3708      	adds	r7, #8
 80030b6:	46bd      	mov	sp, r7
 80030b8:	bd80      	pop	{r7, pc}

080030ba <send_uart_hex>:
	// Call the send_uart_string function to send the value to UART
	send_uart_string(huart, value_str);
	send_uart_string(huart, "\r\n");
}

void send_uart_hex(UART_HandleTypeDef *huart, uint8_t value) {
 80030ba:	b580      	push	{r7, lr}
 80030bc:	b084      	sub	sp, #16
 80030be:	af00      	add	r7, sp, #0
 80030c0:	6078      	str	r0, [r7, #4]
 80030c2:	460b      	mov	r3, r1
 80030c4:	70fb      	strb	r3, [r7, #3]
	uint8_t buffer[1];
	buffer[0] = value;
 80030c6:	78fb      	ldrb	r3, [r7, #3]
 80030c8:	733b      	strb	r3, [r7, #12]
	HAL_UART_Transmit(huart, buffer, 1, HAL_MAX_DELAY);
 80030ca:	f107 010c 	add.w	r1, r7, #12
 80030ce:	f04f 33ff 	mov.w	r3, #4294967295	@ 0xffffffff
 80030d2:	2201      	movs	r2, #1
 80030d4:	6878      	ldr	r0, [r7, #4]
 80030d6:	f005 fbdb 	bl	8008890 <HAL_UART_Transmit>
}
 80030da:	bf00      	nop
 80030dc:	3710      	adds	r7, #16
 80030de:	46bd      	mov	sp, r7
 80030e0:	bd80      	pop	{r7, pc}
	...

080030e4 <Reset_Handler>:

    .section  .text.Reset_Handler
  .weak  Reset_Handler
  .type  Reset_Handler, %function
Reset_Handler:  
  ldr   sp, =_estack     /* set stack pointer */
 80030e4:	f8df d034 	ldr.w	sp, [pc, #52]	@ 800311c <LoopFillZerobss+0xe>
  
/* Call the clock system initialization function.*/
  bl  SystemInit  
 80030e8:	f7ff ffb0 	bl	800304c <SystemInit>

/* Copy the data segment initializers from flash to SRAM */  
  ldr r0, =_sdata
 80030ec:	480c      	ldr	r0, [pc, #48]	@ (8003120 <LoopFillZerobss+0x12>)
  ldr r1, =_edata
 80030ee:	490d      	ldr	r1, [pc, #52]	@ (8003124 <LoopFillZerobss+0x16>)
  ldr r2, =_sidata
 80030f0:	4a0d      	ldr	r2, [pc, #52]	@ (8003128 <LoopFillZerobss+0x1a>)
  movs r3, #0
 80030f2:	2300      	movs	r3, #0
  b LoopCopyDataInit
 80030f4:	e002      	b.n	80030fc <LoopCopyDataInit>

080030f6 <CopyDataInit>:

CopyDataInit:
  ldr r4, [r2, r3]
 80030f6:	58d4      	ldr	r4, [r2, r3]
  str r4, [r0, r3]
 80030f8:	50c4      	str	r4, [r0, r3]
  adds r3, r3, #4
 80030fa:	3304      	adds	r3, #4

080030fc <LoopCopyDataInit>:

LoopCopyDataInit:
  adds r4, r0, r3
 80030fc:	18c4      	adds	r4, r0, r3
  cmp r4, r1
 80030fe:	428c      	cmp	r4, r1
  bcc CopyDataInit
 8003100:	d3f9      	bcc.n	80030f6 <CopyDataInit>
  
/* Zero fill the bss segment. */
  ldr r2, =_sbss
 8003102:	4a0a      	ldr	r2, [pc, #40]	@ (800312c <LoopFillZerobss+0x1e>)
  ldr r4, =_ebss
 8003104:	4c0a      	ldr	r4, [pc, #40]	@ (8003130 <LoopFillZerobss+0x22>)
  movs r3, #0
 8003106:	2300      	movs	r3, #0
  b LoopFillZerobss
 8003108:	e001      	b.n	800310e <LoopFillZerobss>

0800310a <FillZerobss>:

FillZerobss:
  str  r3, [r2]
 800310a:	6013      	str	r3, [r2, #0]
  adds r2, r2, #4
 800310c:	3204      	adds	r2, #4

0800310e <LoopFillZerobss>:

LoopFillZerobss:
  cmp r2, r4
 800310e:	42a2      	cmp	r2, r4
  bcc FillZerobss
 8003110:	d3fb      	bcc.n	800310a <FillZerobss>

/* Call static constructors */
    bl __libc_init_array
 8003112:	f006 fbcb 	bl	80098ac <__libc_init_array>
/* Call the application's entry point.*/
  bl  main
 8003116:	f7fd fe35 	bl	8000d84 <main>
  bx  lr    
 800311a:	4770      	bx	lr
  ldr   sp, =_estack     /* set stack pointer */
 800311c:	20030000 	.word	0x20030000
  ldr r0, =_sdata
 8003120:	20000000 	.word	0x20000000
  ldr r1, =_edata
 8003124:	20000028 	.word	0x20000028
  ldr r2, =_sidata
 8003128:	080099d4 	.word	0x080099d4
  ldr r2, =_sbss
 800312c:	20000028 	.word	0x20000028
  ldr r4, =_ebss
 8003130:	20000638 	.word	0x20000638

08003134 <ADC_IRQHandler>:
 * @retval None       
*/
    .section  .text.Default_Handler,"ax",%progbits
Default_Handler:
Infinite_Loop:
  b  Infinite_Loop
 8003134:	e7fe      	b.n	8003134 <ADC_IRQHandler>
	...

08003138 <HAL_Init>:
  *         need to ensure that the SysTick time base is always set to 1 millisecond
  *         to have correct HAL operation.
  * @retval HAL status
  */
HAL_StatusTypeDef HAL_Init(void)
{
 8003138:	b580      	push	{r7, lr}
 800313a:	af00      	add	r7, sp, #0
  /* Configure Flash prefetch, Instruction cache, Data cache */ 
#if (INSTRUCTION_CACHE_ENABLE != 0U)
  __HAL_FLASH_INSTRUCTION_CACHE_ENABLE();
 800313c:	4b0e      	ldr	r3, [pc, #56]	@ (8003178 <HAL_Init+0x40>)
 800313e:	681b      	ldr	r3, [r3, #0]
 8003140:	4a0d      	ldr	r2, [pc, #52]	@ (8003178 <HAL_Init+0x40>)
 8003142:	f443 7300 	orr.w	r3, r3, #512	@ 0x200
 8003146:	6013      	str	r3, [r2, #0]
#endif /* INSTRUCTION_CACHE_ENABLE */

#if (DATA_CACHE_ENABLE != 0U)
  __HAL_FLASH_DATA_CACHE_ENABLE();
 8003148:	4b0b      	ldr	r3, [pc, #44]	@ (8003178 <HAL_Init+0x40>)
 800314a:	681b      	ldr	r3, [r3, #0]
 800314c:	4a0a      	ldr	r2, [pc, #40]	@ (8003178 <HAL_Init+0x40>)
 800314e:	f443 6380 	orr.w	r3, r3, #1024	@ 0x400
 8003152:	6013      	str	r3, [r2, #0]
#endif /* DATA_CACHE_ENABLE */

#if (PREFETCH_ENABLE != 0U)
  __HAL_FLASH_PREFETCH_BUFFER_ENABLE();
 8003154:	4b08      	ldr	r3, [pc, #32]	@ (8003178 <HAL_Init+0x40>)
 8003156:	681b      	ldr	r3, [r3, #0]
 8003158:	4a07      	ldr	r2, [pc, #28]	@ (8003178 <HAL_Init+0x40>)
 800315a:	f443 7380 	orr.w	r3, r3, #256	@ 0x100
 800315e:	6013      	str	r3, [r2, #0]
#endif /* PREFETCH_ENABLE */

  /* Set Interrupt Group Priority */
  HAL_NVIC_SetPriorityGrouping(NVIC_PRIORITYGROUP_4);
 8003160:	2003      	movs	r0, #3
 8003162:	f000 ffb7 	bl	80040d4 <HAL_NVIC_SetPriorityGrouping>

  /* Use systick as time base source and configure 1ms tick (default clock after Reset is HSI) */
  HAL_InitTick(TICK_INT_PRIORITY);
 8003166:	200f      	movs	r0, #15
 8003168:	f000 f808 	bl	800317c <HAL_InitTick>

  /* Init the low level hardware */
  HAL_MspInit();
 800316c:	f7ff fb3a 	bl	80027e4 <HAL_MspInit>

  /* Return function status */
  return HAL_OK;
 8003170:	2300      	movs	r3, #0
}
 8003172:	4618      	mov	r0, r3
 8003174:	bd80      	pop	{r7, pc}
 8003176:	bf00      	nop
 8003178:	40023c00 	.word	0x40023c00

0800317c <HAL_InitTick>:
  *       implementation  in user file.
  * @param TickPriority Tick interrupt priority.
  * @retval HAL status
  */
__weak HAL_StatusTypeDef HAL_InitTick(uint32_t TickPriority)
{
 800317c:	b580      	push	{r7, lr}
 800317e:	b082      	sub	sp, #8
 8003180:	af00      	add	r7, sp, #0
 8003182:	6078      	str	r0, [r7, #4]
  /* Configure the SysTick to have interrupt in 1ms time basis*/
  if (HAL_SYSTICK_Config(SystemCoreClock / (1000U / uwTickFreq)) > 0U)
 8003184:	4b12      	ldr	r3, [pc, #72]	@ (80031d0 <HAL_InitTick+0x54>)
 8003186:	681a      	ldr	r2, [r3, #0]
 8003188:	4b12      	ldr	r3, [pc, #72]	@ (80031d4 <HAL_InitTick+0x58>)
 800318a:	781b      	ldrb	r3, [r3, #0]
 800318c:	4619      	mov	r1, r3
 800318e:	f44f 737a 	mov.w	r3, #1000	@ 0x3e8
 8003192:	fbb3 f3f1 	udiv	r3, r3, r1
 8003196:	fbb2 f3f3 	udiv	r3, r2, r3
 800319a:	4618      	mov	r0, r3
 800319c:	f000 ffcf 	bl	800413e <HAL_SYSTICK_Config>
 80031a0:	4603      	mov	r3, r0
 80031a2:	2b00      	cmp	r3, #0
 80031a4:	d001      	beq.n	80031aa <HAL_InitTick+0x2e>
  {
    return HAL_ERROR;
 80031a6:	2301      	movs	r3, #1
 80031a8:	e00e      	b.n	80031c8 <HAL_InitTick+0x4c>
  }

  /* Configure the SysTick IRQ priority */
  if (TickPriority < (1UL << __NVIC_PRIO_BITS))
 80031aa:	687b      	ldr	r3, [r7, #4]
 80031ac:	2b0f      	cmp	r3, #15
 80031ae:	d80a      	bhi.n	80031c6 <HAL_InitTick+0x4a>
  {
    HAL_NVIC_SetPriority(SysTick_IRQn, TickPriority, 0U);
 80031b0:	2200      	movs	r2, #0
 80031b2:	6879      	ldr	r1, [r7, #4]
 80031b4:	f04f 30ff 	mov.w	r0, #4294967295	@ 0xffffffff
 80031b8:	f000 ff97 	bl	80040ea <HAL_NVIC_SetPriority>
    uwTickPrio = TickPriority;
 80031bc:	4a06      	ldr	r2, [pc, #24]	@ (80031d8 <HAL_InitTick+0x5c>)
 80031be:	687b      	ldr	r3, [r7, #4]
 80031c0:	6013      	str	r3, [r2, #0]
  {
    return HAL_ERROR;
  }

  /* Return function status */
  return HAL_OK;
 80031c2:	2300      	movs	r3, #0
 80031c4:	e000      	b.n	80031c8 <HAL_InitTick+0x4c>
    return HAL_ERROR;
 80031c6:	2301      	movs	r3, #1
}
 80031c8:	4618      	mov	r0, r3
 80031ca:	3708      	adds	r7, #8
 80031cc:	46bd      	mov	sp, r7
 80031ce:	bd80      	pop	{r7, pc}
 80031d0:	2000001c 	.word	0x2000001c
 80031d4:	20000024 	.word	0x20000024
 80031d8:	20000020 	.word	0x20000020

080031dc <HAL_IncTick>:
 * @note This function is declared as __weak to be overwritten in case of other 
  *      implementations in user file.
  * @retval None
  */
__weak void HAL_IncTick(void)
{
 80031dc:	b480      	push	{r7}
 80031de:	af00      	add	r7, sp, #0
  uwTick += uwTickFreq;
 80031e0:	4b06      	ldr	r3, [pc, #24]	@ (80031fc <HAL_IncTick+0x20>)
 80031e2:	781b      	ldrb	r3, [r3, #0]
 80031e4:	461a      	mov	r2, r3
 80031e6:	4b06      	ldr	r3, [pc, #24]	@ (8003200 <HAL_IncTick+0x24>)
 80031e8:	681b      	ldr	r3, [r3, #0]
 80031ea:	4413      	add	r3, r2
 80031ec:	4a04      	ldr	r2, [pc, #16]	@ (8003200 <HAL_IncTick+0x24>)
 80031ee:	6013      	str	r3, [r2, #0]
}
 80031f0:	bf00      	nop
 80031f2:	46bd      	mov	sp, r7
 80031f4:	f85d 7b04 	ldr.w	r7, [sp], #4
 80031f8:	4770      	bx	lr
 80031fa:	bf00      	nop
 80031fc:	20000024 	.word	0x20000024
 8003200:	20000634 	.word	0x20000634

08003204 <HAL_GetTick>:
  * @note This function is declared as __weak to be overwritten in case of other 
  *       implementations in user file.
  * @retval tick value
  */
__weak uint32_t HAL_GetTick(void)
{
 8003204:	b480      	push	{r7}
 8003206:	af00      	add	r7, sp, #0
  return uwTick;
 8003208:	4b03      	ldr	r3, [pc, #12]	@ (8003218 <HAL_GetTick+0x14>)
 800320a:	681b      	ldr	r3, [r3, #0]
}
 800320c:	4618      	mov	r0, r3
 800320e:	46bd      	mov	sp, r7
 8003210:	f85d 7b04 	ldr.w	r7, [sp], #4
 8003214:	4770      	bx	lr
 8003216:	bf00      	nop
 8003218:	20000634 	.word	0x20000634

0800321c <HAL_Delay>:
  *       implementations in user file.
  * @param Delay specifies the delay time length, in milliseconds.
  * @retval None
  */
__weak void HAL_Delay(uint32_t Delay)
{
 800321c:	b580      	push	{r7, lr}
 800321e:	b084      	sub	sp, #16
 8003220:	af00      	add	r7, sp, #0
 8003222:	6078      	str	r0, [r7, #4]
  uint32_t tickstart = HAL_GetTick();
 8003224:	f7ff ffee 	bl	8003204 <HAL_GetTick>
 8003228:	60b8      	str	r0, [r7, #8]
  uint32_t wait = Delay;
 800322a:	687b      	ldr	r3, [r7, #4]
 800322c:	60fb      	str	r3, [r7, #12]

  /* Add a freq to guarantee minimum wait */
  if (wait < HAL_MAX_DELAY)
 800322e:	68fb      	ldr	r3, [r7, #12]
 8003230:	f1b3 3fff 	cmp.w	r3, #4294967295	@ 0xffffffff
 8003234:	d005      	beq.n	8003242 <HAL_Delay+0x26>
  {
    wait += (uint32_t)(uwTickFreq);
 8003236:	4b0a      	ldr	r3, [pc, #40]	@ (8003260 <HAL_Delay+0x44>)
 8003238:	781b      	ldrb	r3, [r3, #0]
 800323a:	461a      	mov	r2, r3
 800323c:	68fb      	ldr	r3, [r7, #12]
 800323e:	4413      	add	r3, r2
 8003240:	60fb      	str	r3, [r7, #12]
  }

  while((HAL_GetTick() - tickstart) < wait)
 8003242:	bf00      	nop
 8003244:	f7ff ffde 	bl	8003204 <HAL_GetTick>
 8003248:	4602      	mov	r2, r0
 800324a:	68bb      	ldr	r3, [r7, #8]
 800324c:	1ad3      	subs	r3, r2, r3
 800324e:	68fa      	ldr	r2, [r7, #12]
 8003250:	429a      	cmp	r2, r3
 8003252:	d8f7      	bhi.n	8003244 <HAL_Delay+0x28>
  {
  }
}
 8003254:	bf00      	nop
 8003256:	bf00      	nop
 8003258:	3710      	adds	r7, #16
 800325a:	46bd      	mov	sp, r7
 800325c:	bd80      	pop	{r7, pc}
 800325e:	bf00      	nop
 8003260:	20000024 	.word	0x20000024

08003264 <HAL_CAN_Init>:
  * @param  hcan pointer to a CAN_HandleTypeDef structure that contains
  *         the configuration information for the specified CAN.
  * @retval HAL status
  */
HAL_StatusTypeDef HAL_CAN_Init(CAN_HandleTypeDef *hcan)
{
 8003264:	b580      	push	{r7, lr}
 8003266:	b084      	sub	sp, #16
 8003268:	af00      	add	r7, sp, #0
 800326a:	6078      	str	r0, [r7, #4]
  uint32_t tickstart;

  /* Check CAN handle */
  if (hcan == NULL)
 800326c:	687b      	ldr	r3, [r7, #4]
 800326e:	2b00      	cmp	r3, #0
 8003270:	d101      	bne.n	8003276 <HAL_CAN_Init+0x12>
  {
    return HAL_ERROR;
 8003272:	2301      	movs	r3, #1
 8003274:	e0ed      	b.n	8003452 <HAL_CAN_Init+0x1ee>
    /* Init the low level hardware: CLOCK, NVIC */
    hcan->MspInitCallback(hcan);
  }

#else
  if (hcan->State == HAL_CAN_STATE_RESET)
 8003276:	687b      	ldr	r3, [r7, #4]
 8003278:	f893 3020 	ldrb.w	r3, [r3, #32]
 800327c:	b2db      	uxtb	r3, r3
 800327e:	2b00      	cmp	r3, #0
 8003280:	d102      	bne.n	8003288 <HAL_CAN_Init+0x24>
  {
    /* Init the low level hardware: CLOCK, NVIC */
    HAL_CAN_MspInit(hcan);
 8003282:	6878      	ldr	r0, [r7, #4]
 8003284:	f7ff fad6 	bl	8002834 <HAL_CAN_MspInit>
  }
#endif /* USE_HAL_CAN_REGISTER_CALLBACKS */

  /* Request initialisation */
  SET_BIT(hcan->Instance->MCR, CAN_MCR_INRQ);
 8003288:	687b      	ldr	r3, [r7, #4]
 800328a:	681b      	ldr	r3, [r3, #0]
 800328c:	681a      	ldr	r2, [r3, #0]
 800328e:	687b      	ldr	r3, [r7, #4]
 8003290:	681b      	ldr	r3, [r3, #0]
 8003292:	f042 0201 	orr.w	r2, r2, #1
 8003296:	601a      	str	r2, [r3, #0]

  /* Get tick */
  tickstart = HAL_GetTick();
 8003298:	f7ff ffb4 	bl	8003204 <HAL_GetTick>
 800329c:	60f8      	str	r0, [r7, #12]

  /* Wait initialisation acknowledge */
  while ((hcan->Instance->MSR & CAN_MSR_INAK) == 0U)
 800329e:	e012      	b.n	80032c6 <HAL_CAN_Init+0x62>
  {
    if ((HAL_GetTick() - tickstart) > CAN_TIMEOUT_VALUE)
 80032a0:	f7ff ffb0 	bl	8003204 <HAL_GetTick>
 80032a4:	4602      	mov	r2, r0
 80032a6:	68fb      	ldr	r3, [r7, #12]
 80032a8:	1ad3      	subs	r3, r2, r3
 80032aa:	2b0a      	cmp	r3, #10
 80032ac:	d90b      	bls.n	80032c6 <HAL_CAN_Init+0x62>
    {
      /* Update error code */
      hcan->ErrorCode |= HAL_CAN_ERROR_TIMEOUT;
 80032ae:	687b      	ldr	r3, [r7, #4]
 80032b0:	6a5b      	ldr	r3, [r3, #36]	@ 0x24
 80032b2:	f443 3200 	orr.w	r2, r3, #131072	@ 0x20000
 80032b6:	687b      	ldr	r3, [r7, #4]
 80032b8:	625a      	str	r2, [r3, #36]	@ 0x24

      /* Change CAN state */
      hcan->State = HAL_CAN_STATE_ERROR;
 80032ba:	687b      	ldr	r3, [r7, #4]
 80032bc:	2205      	movs	r2, #5
 80032be:	f883 2020 	strb.w	r2, [r3, #32]

      return HAL_ERROR;
 80032c2:	2301      	movs	r3, #1
 80032c4:	e0c5      	b.n	8003452 <HAL_CAN_Init+0x1ee>
  while ((hcan->Instance->MSR & CAN_MSR_INAK) == 0U)
 80032c6:	687b      	ldr	r3, [r7, #4]
 80032c8:	681b      	ldr	r3, [r3, #0]
 80032ca:	685b      	ldr	r3, [r3, #4]
 80032cc:	f003 0301 	and.w	r3, r3, #1
 80032d0:	2b00      	cmp	r3, #0
 80032d2:	d0e5      	beq.n	80032a0 <HAL_CAN_Init+0x3c>
    }
  }

  /* Exit from sleep mode */
  CLEAR_BIT(hcan->Instance->MCR, CAN_MCR_SLEEP);
 80032d4:	687b      	ldr	r3, [r7, #4]
 80032d6:	681b      	ldr	r3, [r3, #0]
 80032d8:	681a      	ldr	r2, [r3, #0]
 80032da:	687b      	ldr	r3, [r7, #4]
 80032dc:	681b      	ldr	r3, [r3, #0]
 80032de:	f022 0202 	bic.w	r2, r2, #2
 80032e2:	601a      	str	r2, [r3, #0]

  /* Get tick */
  tickstart = HAL_GetTick();
 80032e4:	f7ff ff8e 	bl	8003204 <HAL_GetTick>
 80032e8:	60f8      	str	r0, [r7, #12]

  /* Check Sleep mode leave acknowledge */
  while ((hcan->Instance->MSR & CAN_MSR_SLAK) != 0U)
 80032ea:	e012      	b.n	8003312 <HAL_CAN_Init+0xae>
  {
    if ((HAL_GetTick() - tickstart) > CAN_TIMEOUT_VALUE)
 80032ec:	f7ff ff8a 	bl	8003204 <HAL_GetTick>
 80032f0:	4602      	mov	r2, r0
 80032f2:	68fb      	ldr	r3, [r7, #12]
 80032f4:	1ad3      	subs	r3, r2, r3
 80032f6:	2b0a      	cmp	r3, #10
 80032f8:	d90b      	bls.n	8003312 <HAL_CAN_Init+0xae>
    {
      /* Update error code */
      hcan->ErrorCode |= HAL_CAN_ERROR_TIMEOUT;
 80032fa:	687b      	ldr	r3, [r7, #4]
 80032fc:	6a5b      	ldr	r3, [r3, #36]	@ 0x24
 80032fe:	f443 3200 	orr.w	r2, r3, #131072	@ 0x20000
 8003302:	687b      	ldr	r3, [r7, #4]
 8003304:	625a      	str	r2, [r3, #36]	@ 0x24

      /* Change CAN state */
      hcan->State = HAL_CAN_STATE_ERROR;
 8003306:	687b      	ldr	r3, [r7, #4]
 8003308:	2205      	movs	r2, #5
 800330a:	f883 2020 	strb.w	r2, [r3, #32]

      return HAL_ERROR;
 800330e:	2301      	movs	r3, #1
 8003310:	e09f      	b.n	8003452 <HAL_CAN_Init+0x1ee>
  while ((hcan->Instance->MSR & CAN_MSR_SLAK) != 0U)
 8003312:	687b      	ldr	r3, [r7, #4]
 8003314:	681b      	ldr	r3, [r3, #0]
 8003316:	685b      	ldr	r3, [r3, #4]
 8003318:	f003 0302 	and.w	r3, r3, #2
 800331c:	2b00      	cmp	r3, #0
 800331e:	d1e5      	bne.n	80032ec <HAL_CAN_Init+0x88>
    }
  }

  /* Set the time triggered communication mode */
  if (hcan->Init.TimeTriggeredMode == ENABLE)
 8003320:	687b      	ldr	r3, [r7, #4]
 8003322:	7e1b      	ldrb	r3, [r3, #24]
 8003324:	2b01      	cmp	r3, #1
 8003326:	d108      	bne.n	800333a <HAL_CAN_Init+0xd6>
  {
    SET_BIT(hcan->Instance->MCR, CAN_MCR_TTCM);
 8003328:	687b      	ldr	r3, [r7, #4]
 800332a:	681b      	ldr	r3, [r3, #0]
 800332c:	681a      	ldr	r2, [r3, #0]
 800332e:	687b      	ldr	r3, [r7, #4]
 8003330:	681b      	ldr	r3, [r3, #0]
 8003332:	f042 0280 	orr.w	r2, r2, #128	@ 0x80
 8003336:	601a      	str	r2, [r3, #0]
 8003338:	e007      	b.n	800334a <HAL_CAN_Init+0xe6>
  }
  else
  {
    CLEAR_BIT(hcan->Instance->MCR, CAN_MCR_TTCM);
 800333a:	687b      	ldr	r3, [r7, #4]
 800333c:	681b      	ldr	r3, [r3, #0]
 800333e:	681a      	ldr	r2, [r3, #0]
 8003340:	687b      	ldr	r3, [r7, #4]
 8003342:	681b      	ldr	r3, [r3, #0]
 8003344:	f022 0280 	bic.w	r2, r2, #128	@ 0x80
 8003348:	601a      	str	r2, [r3, #0]
  }

  /* Set the automatic bus-off management */
  if (hcan->Init.AutoBusOff == ENABLE)
 800334a:	687b      	ldr	r3, [r7, #4]
 800334c:	7e5b      	ldrb	r3, [r3, #25]
 800334e:	2b01      	cmp	r3, #1
 8003350:	d108      	bne.n	8003364 <HAL_CAN_Init+0x100>
  {
    SET_BIT(hcan->Instance->MCR, CAN_MCR_ABOM);
 8003352:	687b      	ldr	r3, [r7, #4]
 8003354:	681b      	ldr	r3, [r3, #0]
 8003356:	681a      	ldr	r2, [r3, #0]
 8003358:	687b      	ldr	r3, [r7, #4]
 800335a:	681b      	ldr	r3, [r3, #0]
 800335c:	f042 0240 	orr.w	r2, r2, #64	@ 0x40
 8003360:	601a      	str	r2, [r3, #0]
 8003362:	e007      	b.n	8003374 <HAL_CAN_Init+0x110>
  }
  else
  {
    CLEAR_BIT(hcan->Instance->MCR, CAN_MCR_ABOM);
 8003364:	687b      	ldr	r3, [r7, #4]
 8003366:	681b      	ldr	r3, [r3, #0]
 8003368:	681a      	ldr	r2, [r3, #0]
 800336a:	687b      	ldr	r3, [r7, #4]
 800336c:	681b      	ldr	r3, [r3, #0]
 800336e:	f022 0240 	bic.w	r2, r2, #64	@ 0x40
 8003372:	601a      	str	r2, [r3, #0]
  }

  /* Set the automatic wake-up mode */
  if (hcan->Init.AutoWakeUp == ENABLE)
 8003374:	687b      	ldr	r3, [r7, #4]
 8003376:	7e9b      	ldrb	r3, [r3, #26]
 8003378:	2b01      	cmp	r3, #1
 800337a:	d108      	bne.n	800338e <HAL_CAN_Init+0x12a>
  {
    SET_BIT(hcan->Instance->MCR, CAN_MCR_AWUM);
 800337c:	687b      	ldr	r3, [r7, #4]
 800337e:	681b      	ldr	r3, [r3, #0]
 8003380:	681a      	ldr	r2, [r3, #0]
 8003382:	687b      	ldr	r3, [r7, #4]
 8003384:	681b      	ldr	r3, [r3, #0]
 8003386:	f042 0220 	orr.w	r2, r2, #32
 800338a:	601a      	str	r2, [r3, #0]
 800338c:	e007      	b.n	800339e <HAL_CAN_Init+0x13a>
  }
  else
  {
    CLEAR_BIT(hcan->Instance->MCR, CAN_MCR_AWUM);
 800338e:	687b      	ldr	r3, [r7, #4]
 8003390:	681b      	ldr	r3, [r3, #0]
 8003392:	681a      	ldr	r2, [r3, #0]
 8003394:	687b      	ldr	r3, [r7, #4]
 8003396:	681b      	ldr	r3, [r3, #0]
 8003398:	f022 0220 	bic.w	r2, r2, #32
 800339c:	601a      	str	r2, [r3, #0]
  }

  /* Set the automatic retransmission */
  if (hcan->Init.AutoRetransmission == ENABLE)
 800339e:	687b      	ldr	r3, [r7, #4]
 80033a0:	7edb      	ldrb	r3, [r3, #27]
 80033a2:	2b01      	cmp	r3, #1
 80033a4:	d108      	bne.n	80033b8 <HAL_CAN_Init+0x154>
  {
    CLEAR_BIT(hcan->Instance->MCR, CAN_MCR_NART);
 80033a6:	687b      	ldr	r3, [r7, #4]
 80033a8:	681b      	ldr	r3, [r3, #0]
 80033aa:	681a      	ldr	r2, [r3, #0]
 80033ac:	687b      	ldr	r3, [r7, #4]
 80033ae:	681b      	ldr	r3, [r3, #0]
 80033b0:	f022 0210 	bic.w	r2, r2, #16
 80033b4:	601a      	str	r2, [r3, #0]
 80033b6:	e007      	b.n	80033c8 <HAL_CAN_Init+0x164>
  }
  else
  {
    SET_BIT(hcan->Instance->MCR, CAN_MCR_NART);
 80033b8:	687b      	ldr	r3, [r7, #4]
 80033ba:	681b      	ldr	r3, [r3, #0]
 80033bc:	681a      	ldr	r2, [r3, #0]
 80033be:	687b      	ldr	r3, [r7, #4]
 80033c0:	681b      	ldr	r3, [r3, #0]
 80033c2:	f042 0210 	orr.w	r2, r2, #16
 80033c6:	601a      	str	r2, [r3, #0]
  }

  /* Set the receive FIFO locked mode */
  if (hcan->Init.ReceiveFifoLocked == ENABLE)
 80033c8:	687b      	ldr	r3, [r7, #4]
 80033ca:	7f1b      	ldrb	r3, [r3, #28]
 80033cc:	2b01      	cmp	r3, #1
 80033ce:	d108      	bne.n	80033e2 <HAL_CAN_Init+0x17e>
  {
    SET_BIT(hcan->Instance->MCR, CAN_MCR_RFLM);
 80033d0:	687b      	ldr	r3, [r7, #4]
 80033d2:	681b      	ldr	r3, [r3, #0]
 80033d4:	681a      	ldr	r2, [r3, #0]
 80033d6:	687b      	ldr	r3, [r7, #4]
 80033d8:	681b      	ldr	r3, [r3, #0]
 80033da:	f042 0208 	orr.w	r2, r2, #8
 80033de:	601a      	str	r2, [r3, #0]
 80033e0:	e007      	b.n	80033f2 <HAL_CAN_Init+0x18e>
  }
  else
  {
    CLEAR_BIT(hcan->Instance->MCR, CAN_MCR_RFLM);
 80033e2:	687b      	ldr	r3, [r7, #4]
 80033e4:	681b      	ldr	r3, [r3, #0]
 80033e6:	681a      	ldr	r2, [r3, #0]
 80033e8:	687b      	ldr	r3, [r7, #4]
 80033ea:	681b      	ldr	r3, [r3, #0]
 80033ec:	f022 0208 	bic.w	r2, r2, #8
 80033f0:	601a      	str	r2, [r3, #0]
  }

  /* Set the transmit FIFO priority */
  if (hcan->Init.TransmitFifoPriority == ENABLE)
 80033f2:	687b      	ldr	r3, [r7, #4]
 80033f4:	7f5b      	ldrb	r3, [r3, #29]
 80033f6:	2b01      	cmp	r3, #1
 80033f8:	d108      	bne.n	800340c <HAL_CAN_Init+0x1a8>
  {
    SET_BIT(hcan->Instance->MCR, CAN_MCR_TXFP);
 80033fa:	687b      	ldr	r3, [r7, #4]
 80033fc:	681b      	ldr	r3, [r3, #0]
 80033fe:	681a      	ldr	r2, [r3, #0]
 8003400:	687b      	ldr	r3, [r7, #4]
 8003402:	681b      	ldr	r3, [r3, #0]
 8003404:	f042 0204 	orr.w	r2, r2, #4
 8003408:	601a      	str	r2, [r3, #0]
 800340a:	e007      	b.n	800341c <HAL_CAN_Init+0x1b8>
  }
  else
  {
    CLEAR_BIT(hcan->Instance->MCR, CAN_MCR_TXFP);
 800340c:	687b      	ldr	r3, [r7, #4]
 800340e:	681b      	ldr	r3, [r3, #0]
 8003410:	681a      	ldr	r2, [r3, #0]
 8003412:	687b      	ldr	r3, [r7, #4]
 8003414:	681b      	ldr	r3, [r3, #0]
 8003416:	f022 0204 	bic.w	r2, r2, #4
 800341a:	601a      	str	r2, [r3, #0]
  }

  /* Set the bit timing register */
  WRITE_REG(hcan->Instance->BTR, (uint32_t)(hcan->Init.Mode           |
 800341c:	687b      	ldr	r3, [r7, #4]
 800341e:	689a      	ldr	r2, [r3, #8]
 8003420:	687b      	ldr	r3, [r7, #4]
 8003422:	68db      	ldr	r3, [r3, #12]
 8003424:	431a      	orrs	r2, r3
 8003426:	687b      	ldr	r3, [r7, #4]
 8003428:	691b      	ldr	r3, [r3, #16]
 800342a:	431a      	orrs	r2, r3
 800342c:	687b      	ldr	r3, [r7, #4]
 800342e:	695b      	ldr	r3, [r3, #20]
 8003430:	ea42 0103 	orr.w	r1, r2, r3
 8003434:	687b      	ldr	r3, [r7, #4]
 8003436:	685b      	ldr	r3, [r3, #4]
 8003438:	1e5a      	subs	r2, r3, #1
 800343a:	687b      	ldr	r3, [r7, #4]
 800343c:	681b      	ldr	r3, [r3, #0]
 800343e:	430a      	orrs	r2, r1
 8003440:	61da      	str	r2, [r3, #28]
                                            hcan->Init.TimeSeg1       |
                                            hcan->Init.TimeSeg2       |
                                            (hcan->Init.Prescaler - 1U)));

  /* Initialize the error code */
  hcan->ErrorCode = HAL_CAN_ERROR_NONE;
 8003442:	687b      	ldr	r3, [r7, #4]
 8003444:	2200      	movs	r2, #0
 8003446:	625a      	str	r2, [r3, #36]	@ 0x24

  /* Initialize the CAN state */
  hcan->State = HAL_CAN_STATE_READY;
 8003448:	687b      	ldr	r3, [r7, #4]
 800344a:	2201      	movs	r2, #1
 800344c:	f883 2020 	strb.w	r2, [r3, #32]

  /* Return function status */
  return HAL_OK;
 8003450:	2300      	movs	r3, #0
}
 8003452:	4618      	mov	r0, r3
 8003454:	3710      	adds	r7, #16
 8003456:	46bd      	mov	sp, r7
 8003458:	bd80      	pop	{r7, pc}
	...

0800345c <HAL_CAN_ConfigFilter>:
  * @param  sFilterConfig pointer to a CAN_FilterTypeDef structure that
  *         contains the filter configuration information.
  * @retval None
  */
HAL_StatusTypeDef HAL_CAN_ConfigFilter(CAN_HandleTypeDef *hcan, const CAN_FilterTypeDef *sFilterConfig)
{
 800345c:	b480      	push	{r7}
 800345e:	b087      	sub	sp, #28
 8003460:	af00      	add	r7, sp, #0
 8003462:	6078      	str	r0, [r7, #4]
 8003464:	6039      	str	r1, [r7, #0]
  uint32_t filternbrbitpos;
  CAN_TypeDef *can_ip = hcan->Instance;
 8003466:	687b      	ldr	r3, [r7, #4]
 8003468:	681b      	ldr	r3, [r3, #0]
 800346a:	617b      	str	r3, [r7, #20]
  HAL_CAN_StateTypeDef state = hcan->State;
 800346c:	687b      	ldr	r3, [r7, #4]
 800346e:	f893 3020 	ldrb.w	r3, [r3, #32]
 8003472:	74fb      	strb	r3, [r7, #19]

  if ((state == HAL_CAN_STATE_READY) ||
 8003474:	7cfb      	ldrb	r3, [r7, #19]
 8003476:	2b01      	cmp	r3, #1
 8003478:	d003      	beq.n	8003482 <HAL_CAN_ConfigFilter+0x26>
 800347a:	7cfb      	ldrb	r3, [r7, #19]
 800347c:	2b02      	cmp	r3, #2
 800347e:	f040 80be 	bne.w	80035fe <HAL_CAN_ConfigFilter+0x1a2>
      assert_param(IS_CAN_FILTER_BANK_DUAL(sFilterConfig->SlaveStartFilterBank));
    }
#elif defined(CAN2)
    /* CAN1 and CAN2 are dual instances with 28 common filters banks */
    /* Select master instance to access the filter banks */
    can_ip = CAN1;
 8003482:	4b65      	ldr	r3, [pc, #404]	@ (8003618 <HAL_CAN_ConfigFilter+0x1bc>)
 8003484:	617b      	str	r3, [r7, #20]
    /* Check the parameters */
    assert_param(IS_CAN_FILTER_BANK_SINGLE(sFilterConfig->FilterBank));
#endif /* CAN3 */

    /* Initialisation mode for the filter */
    SET_BIT(can_ip->FMR, CAN_FMR_FINIT);
 8003486:	697b      	ldr	r3, [r7, #20]
 8003488:	f8d3 3200 	ldr.w	r3, [r3, #512]	@ 0x200
 800348c:	f043 0201 	orr.w	r2, r3, #1
 8003490:	697b      	ldr	r3, [r7, #20]
 8003492:	f8c3 2200 	str.w	r2, [r3, #512]	@ 0x200
      SET_BIT(can_ip->FMR, sFilterConfig->SlaveStartFilterBank << CAN_FMR_CAN2SB_Pos);
    }

#elif defined(CAN2)
    /* Select the start filter number of CAN2 slave instance */
    CLEAR_BIT(can_ip->FMR, CAN_FMR_CAN2SB);
 8003496:	697b      	ldr	r3, [r7, #20]
 8003498:	f8d3 3200 	ldr.w	r3, [r3, #512]	@ 0x200
 800349c:	f423 527c 	bic.w	r2, r3, #16128	@ 0x3f00
 80034a0:	697b      	ldr	r3, [r7, #20]
 80034a2:	f8c3 2200 	str.w	r2, [r3, #512]	@ 0x200
    SET_BIT(can_ip->FMR, sFilterConfig->SlaveStartFilterBank << CAN_FMR_CAN2SB_Pos);
 80034a6:	697b      	ldr	r3, [r7, #20]
 80034a8:	f8d3 2200 	ldr.w	r2, [r3, #512]	@ 0x200
 80034ac:	683b      	ldr	r3, [r7, #0]
 80034ae:	6a5b      	ldr	r3, [r3, #36]	@ 0x24
 80034b0:	021b      	lsls	r3, r3, #8
 80034b2:	431a      	orrs	r2, r3
 80034b4:	697b      	ldr	r3, [r7, #20]
 80034b6:	f8c3 2200 	str.w	r2, [r3, #512]	@ 0x200

#endif /* CAN3 */
    /* Convert filter number into bit position */
    filternbrbitpos = (uint32_t)1 << (sFilterConfig->FilterBank & 0x1FU);
 80034ba:	683b      	ldr	r3, [r7, #0]
 80034bc:	695b      	ldr	r3, [r3, #20]
 80034be:	f003 031f 	and.w	r3, r3, #31
 80034c2:	2201      	movs	r2, #1
 80034c4:	fa02 f303 	lsl.w	r3, r2, r3
 80034c8:	60fb      	str	r3, [r7, #12]

    /* Filter Deactivation */
    CLEAR_BIT(can_ip->FA1R, filternbrbitpos);
 80034ca:	697b      	ldr	r3, [r7, #20]
 80034cc:	f8d3 221c 	ldr.w	r2, [r3, #540]	@ 0x21c
 80034d0:	68fb      	ldr	r3, [r7, #12]
 80034d2:	43db      	mvns	r3, r3
 80034d4:	401a      	ands	r2, r3
 80034d6:	697b      	ldr	r3, [r7, #20]
 80034d8:	f8c3 221c 	str.w	r2, [r3, #540]	@ 0x21c

    /* Filter Scale */
    if (sFilterConfig->FilterScale == CAN_FILTERSCALE_16BIT)
 80034dc:	683b      	ldr	r3, [r7, #0]
 80034de:	69db      	ldr	r3, [r3, #28]
 80034e0:	2b00      	cmp	r3, #0
 80034e2:	d123      	bne.n	800352c <HAL_CAN_ConfigFilter+0xd0>
    {
      /* 16-bit scale for the filter */
      CLEAR_BIT(can_ip->FS1R, filternbrbitpos);
 80034e4:	697b      	ldr	r3, [r7, #20]
 80034e6:	f8d3 220c 	ldr.w	r2, [r3, #524]	@ 0x20c
 80034ea:	68fb      	ldr	r3, [r7, #12]
 80034ec:	43db      	mvns	r3, r3
 80034ee:	401a      	ands	r2, r3
 80034f0:	697b      	ldr	r3, [r7, #20]
 80034f2:	f8c3 220c 	str.w	r2, [r3, #524]	@ 0x20c

      /* First 16-bit identifier and First 16-bit mask */
      /* Or First 16-bit identifier and Second 16-bit identifier */
      can_ip->sFilterRegister[sFilterConfig->FilterBank].FR1 =
        ((0x0000FFFFU & (uint32_t)sFilterConfig->FilterMaskIdLow) << 16U) |
 80034f6:	683b      	ldr	r3, [r7, #0]
 80034f8:	68db      	ldr	r3, [r3, #12]
 80034fa:	0419      	lsls	r1, r3, #16
        (0x0000FFFFU & (uint32_t)sFilterConfig->FilterIdLow);
 80034fc:	683b      	ldr	r3, [r7, #0]
 80034fe:	685b      	ldr	r3, [r3, #4]
 8003500:	b29b      	uxth	r3, r3
      can_ip->sFilterRegister[sFilterConfig->FilterBank].FR1 =
 8003502:	683a      	ldr	r2, [r7, #0]
 8003504:	6952      	ldr	r2, [r2, #20]
        ((0x0000FFFFU & (uint32_t)sFilterConfig->FilterMaskIdLow) << 16U) |
 8003506:	4319      	orrs	r1, r3
      can_ip->sFilterRegister[sFilterConfig->FilterBank].FR1 =
 8003508:	697b      	ldr	r3, [r7, #20]
 800350a:	3248      	adds	r2, #72	@ 0x48
 800350c:	f843 1032 	str.w	r1, [r3, r2, lsl #3]

      /* Second 16-bit identifier and Second 16-bit mask */
      /* Or Third 16-bit identifier and Fourth 16-bit identifier */
      can_ip->sFilterRegister[sFilterConfig->FilterBank].FR2 =
        ((0x0000FFFFU & (uint32_t)sFilterConfig->FilterMaskIdHigh) << 16U) |
 8003510:	683b      	ldr	r3, [r7, #0]
 8003512:	689b      	ldr	r3, [r3, #8]
 8003514:	0419      	lsls	r1, r3, #16
        (0x0000FFFFU & (uint32_t)sFilterConfig->FilterIdHigh);
 8003516:	683b      	ldr	r3, [r7, #0]
 8003518:	681b      	ldr	r3, [r3, #0]
 800351a:	b29a      	uxth	r2, r3
      can_ip->sFilterRegister[sFilterConfig->FilterBank].FR2 =
 800351c:	683b      	ldr	r3, [r7, #0]
 800351e:	695b      	ldr	r3, [r3, #20]
        ((0x0000FFFFU & (uint32_t)sFilterConfig->FilterMaskIdHigh) << 16U) |
 8003520:	430a      	orrs	r2, r1
      can_ip->sFilterRegister[sFilterConfig->FilterBank].FR2 =
 8003522:	6979      	ldr	r1, [r7, #20]
 8003524:	3348      	adds	r3, #72	@ 0x48
 8003526:	00db      	lsls	r3, r3, #3
 8003528:	440b      	add	r3, r1
 800352a:	605a      	str	r2, [r3, #4]
    }

    if (sFilterConfig->FilterScale == CAN_FILTERSCALE_32BIT)
 800352c:	683b      	ldr	r3, [r7, #0]
 800352e:	69db      	ldr	r3, [r3, #28]
 8003530:	2b01      	cmp	r3, #1
 8003532:	d122      	bne.n	800357a <HAL_CAN_ConfigFilter+0x11e>
    {
      /* 32-bit scale for the filter */
      SET_BIT(can_ip->FS1R, filternbrbitpos);
 8003534:	697b      	ldr	r3, [r7, #20]
 8003536:	f8d3 220c 	ldr.w	r2, [r3, #524]	@ 0x20c
 800353a:	68fb      	ldr	r3, [r7, #12]
 800353c:	431a      	orrs	r2, r3
 800353e:	697b      	ldr	r3, [r7, #20]
 8003540:	f8c3 220c 	str.w	r2, [r3, #524]	@ 0x20c

      /* 32-bit identifier or First 32-bit identifier */
      can_ip->sFilterRegister[sFilterConfig->FilterBank].FR1 =
        ((0x0000FFFFU & (uint32_t)sFilterConfig->FilterIdHigh) << 16U) |
 8003544:	683b      	ldr	r3, [r7, #0]
 8003546:	681b      	ldr	r3, [r3, #0]
 8003548:	0419      	lsls	r1, r3, #16
        (0x0000FFFFU & (uint32_t)sFilterConfig->FilterIdLow);
 800354a:	683b      	ldr	r3, [r7, #0]
 800354c:	685b      	ldr	r3, [r3, #4]
 800354e:	b29b      	uxth	r3, r3
      can_ip->sFilterRegister[sFilterConfig->FilterBank].FR1 =
 8003550:	683a      	ldr	r2, [r7, #0]
 8003552:	6952      	ldr	r2, [r2, #20]
        ((0x0000FFFFU & (uint32_t)sFilterConfig->FilterIdHigh) << 16U) |
 8003554:	4319      	orrs	r1, r3
      can_ip->sFilterRegister[sFilterConfig->FilterBank].FR1 =
 8003556:	697b      	ldr	r3, [r7, #20]
 8003558:	3248      	adds	r2, #72	@ 0x48
 800355a:	f843 1032 	str.w	r1, [r3, r2, lsl #3]

      /* 32-bit mask or Second 32-bit identifier */
      can_ip->sFilterRegister[sFilterConfig->FilterBank].FR2 =
        ((0x0000FFFFU & (uint32_t)sFilterConfig->FilterMaskIdHigh) << 16U) |
 800355e:	683b      	ldr	r3, [r7, #0]
 8003560:	689b      	ldr	r3, [r3, #8]
 8003562:	0419      	lsls	r1, r3, #16
        (0x0000FFFFU & (uint32_t)sFilterConfig->FilterMaskIdLow);
 8003564:	683b      	ldr	r3, [r7, #0]
 8003566:	68db      	ldr	r3, [r3, #12]
 8003568:	b29a      	uxth	r2, r3
      can_ip->sFilterRegister[sFilterConfig->FilterBank].FR2 =
 800356a:	683b      	ldr	r3, [r7, #0]
 800356c:	695b      	ldr	r3, [r3, #20]
        ((0x0000FFFFU & (uint32_t)sFilterConfig->FilterMaskIdHigh) << 16U) |
 800356e:	430a      	orrs	r2, r1
      can_ip->sFilterRegister[sFilterConfig->FilterBank].FR2 =
 8003570:	6979      	ldr	r1, [r7, #20]
 8003572:	3348      	adds	r3, #72	@ 0x48
 8003574:	00db      	lsls	r3, r3, #3
 8003576:	440b      	add	r3, r1
 8003578:	605a      	str	r2, [r3, #4]
    }

    /* Filter Mode */
    if (sFilterConfig->FilterMode == CAN_FILTERMODE_IDMASK)
 800357a:	683b      	ldr	r3, [r7, #0]
 800357c:	699b      	ldr	r3, [r3, #24]
 800357e:	2b00      	cmp	r3, #0
 8003580:	d109      	bne.n	8003596 <HAL_CAN_ConfigFilter+0x13a>
    {
      /* Id/Mask mode for the filter*/
      CLEAR_BIT(can_ip->FM1R, filternbrbitpos);
 8003582:	697b      	ldr	r3, [r7, #20]
 8003584:	f8d3 2204 	ldr.w	r2, [r3, #516]	@ 0x204
 8003588:	68fb      	ldr	r3, [r7, #12]
 800358a:	43db      	mvns	r3, r3
 800358c:	401a      	ands	r2, r3
 800358e:	697b      	ldr	r3, [r7, #20]
 8003590:	f8c3 2204 	str.w	r2, [r3, #516]	@ 0x204
 8003594:	e007      	b.n	80035a6 <HAL_CAN_ConfigFilter+0x14a>
    }
    else /* CAN_FilterInitStruct->CAN_FilterMode == CAN_FilterMode_IdList */
    {
      /* Identifier list mode for the filter*/
      SET_BIT(can_ip->FM1R, filternbrbitpos);
 8003596:	697b      	ldr	r3, [r7, #20]
 8003598:	f8d3 2204 	ldr.w	r2, [r3, #516]	@ 0x204
 800359c:	68fb      	ldr	r3, [r7, #12]
 800359e:	431a      	orrs	r2, r3
 80035a0:	697b      	ldr	r3, [r7, #20]
 80035a2:	f8c3 2204 	str.w	r2, [r3, #516]	@ 0x204
    }

    /* Filter FIFO assignment */
    if (sFilterConfig->FilterFIFOAssignment == CAN_FILTER_FIFO0)
 80035a6:	683b      	ldr	r3, [r7, #0]
 80035a8:	691b      	ldr	r3, [r3, #16]
 80035aa:	2b00      	cmp	r3, #0
 80035ac:	d109      	bne.n	80035c2 <HAL_CAN_ConfigFilter+0x166>
    {
      /* FIFO 0 assignation for the filter */
      CLEAR_BIT(can_ip->FFA1R, filternbrbitpos);
 80035ae:	697b      	ldr	r3, [r7, #20]
 80035b0:	f8d3 2214 	ldr.w	r2, [r3, #532]	@ 0x214
 80035b4:	68fb      	ldr	r3, [r7, #12]
 80035b6:	43db      	mvns	r3, r3
 80035b8:	401a      	ands	r2, r3
 80035ba:	697b      	ldr	r3, [r7, #20]
 80035bc:	f8c3 2214 	str.w	r2, [r3, #532]	@ 0x214
 80035c0:	e007      	b.n	80035d2 <HAL_CAN_ConfigFilter+0x176>
    }
    else
    {
      /* FIFO 1 assignation for the filter */
      SET_BIT(can_ip->FFA1R, filternbrbitpos);
 80035c2:	697b      	ldr	r3, [r7, #20]
 80035c4:	f8d3 2214 	ldr.w	r2, [r3, #532]	@ 0x214
 80035c8:	68fb      	ldr	r3, [r7, #12]
 80035ca:	431a      	orrs	r2, r3
 80035cc:	697b      	ldr	r3, [r7, #20]
 80035ce:	f8c3 2214 	str.w	r2, [r3, #532]	@ 0x214
    }

    /* Filter activation */
    if (sFilterConfig->FilterActivation == CAN_FILTER_ENABLE)
 80035d2:	683b      	ldr	r3, [r7, #0]
 80035d4:	6a1b      	ldr	r3, [r3, #32]
 80035d6:	2b01      	cmp	r3, #1
 80035d8:	d107      	bne.n	80035ea <HAL_CAN_ConfigFilter+0x18e>
    {
      SET_BIT(can_ip->FA1R, filternbrbitpos);
 80035da:	697b      	ldr	r3, [r7, #20]
 80035dc:	f8d3 221c 	ldr.w	r2, [r3, #540]	@ 0x21c
 80035e0:	68fb      	ldr	r3, [r7, #12]
 80035e2:	431a      	orrs	r2, r3
 80035e4:	697b      	ldr	r3, [r7, #20]
 80035e6:	f8c3 221c 	str.w	r2, [r3, #540]	@ 0x21c
    }

    /* Leave the initialisation mode for the filter */
    CLEAR_BIT(can_ip->FMR, CAN_FMR_FINIT);
 80035ea:	697b      	ldr	r3, [r7, #20]
 80035ec:	f8d3 3200 	ldr.w	r3, [r3, #512]	@ 0x200
 80035f0:	f023 0201 	bic.w	r2, r3, #1
 80035f4:	697b      	ldr	r3, [r7, #20]
 80035f6:	f8c3 2200 	str.w	r2, [r3, #512]	@ 0x200

    /* Return function status */
    return HAL_OK;
 80035fa:	2300      	movs	r3, #0
 80035fc:	e006      	b.n	800360c <HAL_CAN_ConfigFilter+0x1b0>
  }
  else
  {
    /* Update error code */
    hcan->ErrorCode |= HAL_CAN_ERROR_NOT_INITIALIZED;
 80035fe:	687b      	ldr	r3, [r7, #4]
 8003600:	6a5b      	ldr	r3, [r3, #36]	@ 0x24
 8003602:	f443 2280 	orr.w	r2, r3, #262144	@ 0x40000
 8003606:	687b      	ldr	r3, [r7, #4]
 8003608:	625a      	str	r2, [r3, #36]	@ 0x24

    return HAL_ERROR;
 800360a:	2301      	movs	r3, #1
  }
}
 800360c:	4618      	mov	r0, r3
 800360e:	371c      	adds	r7, #28
 8003610:	46bd      	mov	sp, r7
 8003612:	f85d 7b04 	ldr.w	r7, [sp], #4
 8003616:	4770      	bx	lr
 8003618:	40006400 	.word	0x40006400

0800361c <HAL_CAN_Start>:
  * @param  hcan pointer to an CAN_HandleTypeDef structure that contains
  *         the configuration information for the specified CAN.
  * @retval HAL status
  */
HAL_StatusTypeDef HAL_CAN_Start(CAN_HandleTypeDef *hcan)
{
 800361c:	b580      	push	{r7, lr}
 800361e:	b084      	sub	sp, #16
 8003620:	af00      	add	r7, sp, #0
 8003622:	6078      	str	r0, [r7, #4]
  uint32_t tickstart;

  if (hcan->State == HAL_CAN_STATE_READY)
 8003624:	687b      	ldr	r3, [r7, #4]
 8003626:	f893 3020 	ldrb.w	r3, [r3, #32]
 800362a:	b2db      	uxtb	r3, r3
 800362c:	2b01      	cmp	r3, #1
 800362e:	d12e      	bne.n	800368e <HAL_CAN_Start+0x72>
  {
    /* Change CAN peripheral state */
    hcan->State = HAL_CAN_STATE_LISTENING;
 8003630:	687b      	ldr	r3, [r7, #4]
 8003632:	2202      	movs	r2, #2
 8003634:	f883 2020 	strb.w	r2, [r3, #32]

    /* Request leave initialisation */
    CLEAR_BIT(hcan->Instance->MCR, CAN_MCR_INRQ);
 8003638:	687b      	ldr	r3, [r7, #4]
 800363a:	681b      	ldr	r3, [r3, #0]
 800363c:	681a      	ldr	r2, [r3, #0]
 800363e:	687b      	ldr	r3, [r7, #4]
 8003640:	681b      	ldr	r3, [r3, #0]
 8003642:	f022 0201 	bic.w	r2, r2, #1
 8003646:	601a      	str	r2, [r3, #0]

    /* Get tick */
    tickstart = HAL_GetTick();
 8003648:	f7ff fddc 	bl	8003204 <HAL_GetTick>
 800364c:	60f8      	str	r0, [r7, #12]

    /* Wait the acknowledge */
    while ((hcan->Instance->MSR & CAN_MSR_INAK) != 0U)
 800364e:	e012      	b.n	8003676 <HAL_CAN_Start+0x5a>
    {
      /* Check for the Timeout */
      if ((HAL_GetTick() - tickstart) > CAN_TIMEOUT_VALUE)
 8003650:	f7ff fdd8 	bl	8003204 <HAL_GetTick>
 8003654:	4602      	mov	r2, r0
 8003656:	68fb      	ldr	r3, [r7, #12]
 8003658:	1ad3      	subs	r3, r2, r3
 800365a:	2b0a      	cmp	r3, #10
 800365c:	d90b      	bls.n	8003676 <HAL_CAN_Start+0x5a>
      {
        /* Update error code */
        hcan->ErrorCode |= HAL_CAN_ERROR_TIMEOUT;
 800365e:	687b      	ldr	r3, [r7, #4]
 8003660:	6a5b      	ldr	r3, [r3, #36]	@ 0x24
 8003662:	f443 3200 	orr.w	r2, r3, #131072	@ 0x20000
 8003666:	687b      	ldr	r3, [r7, #4]
 8003668:	625a      	str	r2, [r3, #36]	@ 0x24

        /* Change CAN state */
        hcan->State = HAL_CAN_STATE_ERROR;
 800366a:	687b      	ldr	r3, [r7, #4]
 800366c:	2205      	movs	r2, #5
 800366e:	f883 2020 	strb.w	r2, [r3, #32]

        return HAL_ERROR;
 8003672:	2301      	movs	r3, #1
 8003674:	e012      	b.n	800369c <HAL_CAN_Start+0x80>
    while ((hcan->Instance->MSR & CAN_MSR_INAK) != 0U)
 8003676:	687b      	ldr	r3, [r7, #4]
 8003678:	681b      	ldr	r3, [r3, #0]
 800367a:	685b      	ldr	r3, [r3, #4]
 800367c:	f003 0301 	and.w	r3, r3, #1
 8003680:	2b00      	cmp	r3, #0
 8003682:	d1e5      	bne.n	8003650 <HAL_CAN_Start+0x34>
      }
    }

    /* Reset the CAN ErrorCode */
    hcan->ErrorCode = HAL_CAN_ERROR_NONE;
 8003684:	687b      	ldr	r3, [r7, #4]
 8003686:	2200      	movs	r2, #0
 8003688:	625a      	str	r2, [r3, #36]	@ 0x24

    /* Return function status */
    return HAL_OK;
 800368a:	2300      	movs	r3, #0
 800368c:	e006      	b.n	800369c <HAL_CAN_Start+0x80>
  }
  else
  {
    /* Update error code */
    hcan->ErrorCode |= HAL_CAN_ERROR_NOT_READY;
 800368e:	687b      	ldr	r3, [r7, #4]
 8003690:	6a5b      	ldr	r3, [r3, #36]	@ 0x24
 8003692:	f443 2200 	orr.w	r2, r3, #524288	@ 0x80000
 8003696:	687b      	ldr	r3, [r7, #4]
 8003698:	625a      	str	r2, [r3, #36]	@ 0x24

    return HAL_ERROR;
 800369a:	2301      	movs	r3, #1
  }
}
 800369c:	4618      	mov	r0, r3
 800369e:	3710      	adds	r7, #16
 80036a0:	46bd      	mov	sp, r7
 80036a2:	bd80      	pop	{r7, pc}

080036a4 <HAL_CAN_AddTxMessage>:
  *         This parameter can be a value of @arg CAN_Tx_Mailboxes.
  * @retval HAL status
  */
HAL_StatusTypeDef HAL_CAN_AddTxMessage(CAN_HandleTypeDef *hcan, const CAN_TxHeaderTypeDef *pHeader,
                                       const uint8_t aData[], uint32_t *pTxMailbox)
{
 80036a4:	b480      	push	{r7}
 80036a6:	b089      	sub	sp, #36	@ 0x24
 80036a8:	af00      	add	r7, sp, #0
 80036aa:	60f8      	str	r0, [r7, #12]
 80036ac:	60b9      	str	r1, [r7, #8]
 80036ae:	607a      	str	r2, [r7, #4]
 80036b0:	603b      	str	r3, [r7, #0]
  uint32_t transmitmailbox;
  HAL_CAN_StateTypeDef state = hcan->State;
 80036b2:	68fb      	ldr	r3, [r7, #12]
 80036b4:	f893 3020 	ldrb.w	r3, [r3, #32]
 80036b8:	77fb      	strb	r3, [r7, #31]
  uint32_t tsr = READ_REG(hcan->Instance->TSR);
 80036ba:	68fb      	ldr	r3, [r7, #12]
 80036bc:	681b      	ldr	r3, [r3, #0]
 80036be:	689b      	ldr	r3, [r3, #8]
 80036c0:	61bb      	str	r3, [r7, #24]
  {
    assert_param(IS_CAN_EXTID(pHeader->ExtId));
  }
  assert_param(IS_FUNCTIONAL_STATE(pHeader->TransmitGlobalTime));

  if ((state == HAL_CAN_STATE_READY) ||
 80036c2:	7ffb      	ldrb	r3, [r7, #31]
 80036c4:	2b01      	cmp	r3, #1
 80036c6:	d003      	beq.n	80036d0 <HAL_CAN_AddTxMessage+0x2c>
 80036c8:	7ffb      	ldrb	r3, [r7, #31]
 80036ca:	2b02      	cmp	r3, #2
 80036cc:	f040 80ad 	bne.w	800382a <HAL_CAN_AddTxMessage+0x186>
      (state == HAL_CAN_STATE_LISTENING))
  {
    /* Check that all the Tx mailboxes are not full */
    if (((tsr & CAN_TSR_TME0) != 0U) ||
 80036d0:	69bb      	ldr	r3, [r7, #24]
 80036d2:	f003 6380 	and.w	r3, r3, #67108864	@ 0x4000000
 80036d6:	2b00      	cmp	r3, #0
 80036d8:	d10a      	bne.n	80036f0 <HAL_CAN_AddTxMessage+0x4c>
        ((tsr & CAN_TSR_TME1) != 0U) ||
 80036da:	69bb      	ldr	r3, [r7, #24]
 80036dc:	f003 6300 	and.w	r3, r3, #134217728	@ 0x8000000
    if (((tsr & CAN_TSR_TME0) != 0U) ||
 80036e0:	2b00      	cmp	r3, #0
 80036e2:	d105      	bne.n	80036f0 <HAL_CAN_AddTxMessage+0x4c>
        ((tsr & CAN_TSR_TME2) != 0U))
 80036e4:	69bb      	ldr	r3, [r7, #24]
 80036e6:	f003 5380 	and.w	r3, r3, #268435456	@ 0x10000000
        ((tsr & CAN_TSR_TME1) != 0U) ||
 80036ea:	2b00      	cmp	r3, #0
 80036ec:	f000 8095 	beq.w	800381a <HAL_CAN_AddTxMessage+0x176>
    {
      /* Select an empty transmit mailbox */
      transmitmailbox = (tsr & CAN_TSR_CODE) >> CAN_TSR_CODE_Pos;
 80036f0:	69bb      	ldr	r3, [r7, #24]
 80036f2:	0e1b      	lsrs	r3, r3, #24
 80036f4:	f003 0303 	and.w	r3, r3, #3
 80036f8:	617b      	str	r3, [r7, #20]

      /* Store the Tx mailbox */
      *pTxMailbox = (uint32_t)1 << transmitmailbox;
 80036fa:	2201      	movs	r2, #1
 80036fc:	697b      	ldr	r3, [r7, #20]
 80036fe:	409a      	lsls	r2, r3
 8003700:	683b      	ldr	r3, [r7, #0]
 8003702:	601a      	str	r2, [r3, #0]

      /* Set up the Id */
      if (pHeader->IDE == CAN_ID_STD)
 8003704:	68bb      	ldr	r3, [r7, #8]
 8003706:	689b      	ldr	r3, [r3, #8]
 8003708:	2b00      	cmp	r3, #0
 800370a:	d10d      	bne.n	8003728 <HAL_CAN_AddTxMessage+0x84>
      {
        hcan->Instance->sTxMailBox[transmitmailbox].TIR = ((pHeader->StdId << CAN_TI0R_STID_Pos) |
 800370c:	68bb      	ldr	r3, [r7, #8]
 800370e:	681b      	ldr	r3, [r3, #0]
 8003710:	055a      	lsls	r2, r3, #21
                                                           pHeader->RTR);
 8003712:	68bb      	ldr	r3, [r7, #8]
 8003714:	68db      	ldr	r3, [r3, #12]
        hcan->Instance->sTxMailBox[transmitmailbox].TIR = ((pHeader->StdId << CAN_TI0R_STID_Pos) |
 8003716:	68f9      	ldr	r1, [r7, #12]
 8003718:	6809      	ldr	r1, [r1, #0]
 800371a:	431a      	orrs	r2, r3
 800371c:	697b      	ldr	r3, [r7, #20]
 800371e:	3318      	adds	r3, #24
 8003720:	011b      	lsls	r3, r3, #4
 8003722:	440b      	add	r3, r1
 8003724:	601a      	str	r2, [r3, #0]
 8003726:	e00f      	b.n	8003748 <HAL_CAN_AddTxMessage+0xa4>
      }
      else
      {
        hcan->Instance->sTxMailBox[transmitmailbox].TIR = ((pHeader->ExtId << CAN_TI0R_EXID_Pos) |
 8003728:	68bb      	ldr	r3, [r7, #8]
 800372a:	685b      	ldr	r3, [r3, #4]
 800372c:	00da      	lsls	r2, r3, #3
                                                           pHeader->IDE |
 800372e:	68bb      	ldr	r3, [r7, #8]
 8003730:	689b      	ldr	r3, [r3, #8]
        hcan->Instance->sTxMailBox[transmitmailbox].TIR = ((pHeader->ExtId << CAN_TI0R_EXID_Pos) |
 8003732:	431a      	orrs	r2, r3
                                                           pHeader->RTR);
 8003734:	68bb      	ldr	r3, [r7, #8]
 8003736:	68db      	ldr	r3, [r3, #12]
        hcan->Instance->sTxMailBox[transmitmailbox].TIR = ((pHeader->ExtId << CAN_TI0R_EXID_Pos) |
 8003738:	68f9      	ldr	r1, [r7, #12]
 800373a:	6809      	ldr	r1, [r1, #0]
                                                           pHeader->IDE |
 800373c:	431a      	orrs	r2, r3
        hcan->Instance->sTxMailBox[transmitmailbox].TIR = ((pHeader->ExtId << CAN_TI0R_EXID_Pos) |
 800373e:	697b      	ldr	r3, [r7, #20]
 8003740:	3318      	adds	r3, #24
 8003742:	011b      	lsls	r3, r3, #4
 8003744:	440b      	add	r3, r1
 8003746:	601a      	str	r2, [r3, #0]
      }

      /* Set up the DLC */
      hcan->Instance->sTxMailBox[transmitmailbox].TDTR = (pHeader->DLC);
 8003748:	68fb      	ldr	r3, [r7, #12]
 800374a:	6819      	ldr	r1, [r3, #0]
 800374c:	68bb      	ldr	r3, [r7, #8]
 800374e:	691a      	ldr	r2, [r3, #16]
 8003750:	697b      	ldr	r3, [r7, #20]
 8003752:	3318      	adds	r3, #24
 8003754:	011b      	lsls	r3, r3, #4
 8003756:	440b      	add	r3, r1
 8003758:	3304      	adds	r3, #4
 800375a:	601a      	str	r2, [r3, #0]

      /* Set up the Transmit Global Time mode */
      if (pHeader->TransmitGlobalTime == ENABLE)
 800375c:	68bb      	ldr	r3, [r7, #8]
 800375e:	7d1b      	ldrb	r3, [r3, #20]
 8003760:	2b01      	cmp	r3, #1
 8003762:	d111      	bne.n	8003788 <HAL_CAN_AddTxMessage+0xe4>
      {
        SET_BIT(hcan->Instance->sTxMailBox[transmitmailbox].TDTR, CAN_TDT0R_TGT);
 8003764:	68fb      	ldr	r3, [r7, #12]
 8003766:	681a      	ldr	r2, [r3, #0]
 8003768:	697b      	ldr	r3, [r7, #20]
 800376a:	3318      	adds	r3, #24
 800376c:	011b      	lsls	r3, r3, #4
 800376e:	4413      	add	r3, r2
 8003770:	3304      	adds	r3, #4
 8003772:	681b      	ldr	r3, [r3, #0]
 8003774:	68fa      	ldr	r2, [r7, #12]
 8003776:	6811      	ldr	r1, [r2, #0]
 8003778:	f443 7280 	orr.w	r2, r3, #256	@ 0x100
 800377c:	697b      	ldr	r3, [r7, #20]
 800377e:	3318      	adds	r3, #24
 8003780:	011b      	lsls	r3, r3, #4
 8003782:	440b      	add	r3, r1
 8003784:	3304      	adds	r3, #4
 8003786:	601a      	str	r2, [r3, #0]
      }

      /* Set up the data field */
      WRITE_REG(hcan->Instance->sTxMailBox[transmitmailbox].TDHR,
 8003788:	687b      	ldr	r3, [r7, #4]
 800378a:	3307      	adds	r3, #7
 800378c:	781b      	ldrb	r3, [r3, #0]
 800378e:	061a      	lsls	r2, r3, #24
 8003790:	687b      	ldr	r3, [r7, #4]
 8003792:	3306      	adds	r3, #6
 8003794:	781b      	ldrb	r3, [r3, #0]
 8003796:	041b      	lsls	r3, r3, #16
 8003798:	431a      	orrs	r2, r3
 800379a:	687b      	ldr	r3, [r7, #4]
 800379c:	3305      	adds	r3, #5
 800379e:	781b      	ldrb	r3, [r3, #0]
 80037a0:	021b      	lsls	r3, r3, #8
 80037a2:	4313      	orrs	r3, r2
 80037a4:	687a      	ldr	r2, [r7, #4]
 80037a6:	3204      	adds	r2, #4
 80037a8:	7812      	ldrb	r2, [r2, #0]
 80037aa:	4610      	mov	r0, r2
 80037ac:	68fa      	ldr	r2, [r7, #12]
 80037ae:	6811      	ldr	r1, [r2, #0]
 80037b0:	ea43 0200 	orr.w	r2, r3, r0
 80037b4:	697b      	ldr	r3, [r7, #20]
 80037b6:	011b      	lsls	r3, r3, #4
 80037b8:	440b      	add	r3, r1
 80037ba:	f503 73c6 	add.w	r3, r3, #396	@ 0x18c
 80037be:	601a      	str	r2, [r3, #0]
                ((uint32_t)aData[7] << CAN_TDH0R_DATA7_Pos) |
                ((uint32_t)aData[6] << CAN_TDH0R_DATA6_Pos) |
                ((uint32_t)aData[5] << CAN_TDH0R_DATA5_Pos) |
                ((uint32_t)aData[4] << CAN_TDH0R_DATA4_Pos));
      WRITE_REG(hcan->Instance->sTxMailBox[transmitmailbox].TDLR,
 80037c0:	687b      	ldr	r3, [r7, #4]
 80037c2:	3303      	adds	r3, #3
 80037c4:	781b      	ldrb	r3, [r3, #0]
 80037c6:	061a      	lsls	r2, r3, #24
 80037c8:	687b      	ldr	r3, [r7, #4]
 80037ca:	3302      	adds	r3, #2
 80037cc:	781b      	ldrb	r3, [r3, #0]
 80037ce:	041b      	lsls	r3, r3, #16
 80037d0:	431a      	orrs	r2, r3
 80037d2:	687b      	ldr	r3, [r7, #4]
 80037d4:	3301      	adds	r3, #1
 80037d6:	781b      	ldrb	r3, [r3, #0]
 80037d8:	021b      	lsls	r3, r3, #8
 80037da:	4313      	orrs	r3, r2
 80037dc:	687a      	ldr	r2, [r7, #4]
 80037de:	7812      	ldrb	r2, [r2, #0]
 80037e0:	4610      	mov	r0, r2
 80037e2:	68fa      	ldr	r2, [r7, #12]
 80037e4:	6811      	ldr	r1, [r2, #0]
 80037e6:	ea43 0200 	orr.w	r2, r3, r0
 80037ea:	697b      	ldr	r3, [r7, #20]
 80037ec:	011b      	lsls	r3, r3, #4
 80037ee:	440b      	add	r3, r1
 80037f0:	f503 73c4 	add.w	r3, r3, #392	@ 0x188
 80037f4:	601a      	str	r2, [r3, #0]
                ((uint32_t)aData[2] << CAN_TDL0R_DATA2_Pos) |
                ((uint32_t)aData[1] << CAN_TDL0R_DATA1_Pos) |
                ((uint32_t)aData[0] << CAN_TDL0R_DATA0_Pos));

      /* Request transmission */
      SET_BIT(hcan->Instance->sTxMailBox[transmitmailbox].TIR, CAN_TI0R_TXRQ);
 80037f6:	68fb      	ldr	r3, [r7, #12]
 80037f8:	681a      	ldr	r2, [r3, #0]
 80037fa:	697b      	ldr	r3, [r7, #20]
 80037fc:	3318      	adds	r3, #24
 80037fe:	011b      	lsls	r3, r3, #4
 8003800:	4413      	add	r3, r2
 8003802:	681b      	ldr	r3, [r3, #0]
 8003804:	68fa      	ldr	r2, [r7, #12]
 8003806:	6811      	ldr	r1, [r2, #0]
 8003808:	f043 0201 	orr.w	r2, r3, #1
 800380c:	697b      	ldr	r3, [r7, #20]
 800380e:	3318      	adds	r3, #24
 8003810:	011b      	lsls	r3, r3, #4
 8003812:	440b      	add	r3, r1
 8003814:	601a      	str	r2, [r3, #0]

      /* Return function status */
      return HAL_OK;
 8003816:	2300      	movs	r3, #0
 8003818:	e00e      	b.n	8003838 <HAL_CAN_AddTxMessage+0x194>
    }
    else
    {
      /* Update error code */
      hcan->ErrorCode |= HAL_CAN_ERROR_PARAM;
 800381a:	68fb      	ldr	r3, [r7, #12]
 800381c:	6a5b      	ldr	r3, [r3, #36]	@ 0x24
 800381e:	f443 1200 	orr.w	r2, r3, #2097152	@ 0x200000
 8003822:	68fb      	ldr	r3, [r7, #12]
 8003824:	625a      	str	r2, [r3, #36]	@ 0x24

      return HAL_ERROR;
 8003826:	2301      	movs	r3, #1
 8003828:	e006      	b.n	8003838 <HAL_CAN_AddTxMessage+0x194>
    }
  }
  else
  {
    /* Update error code */
    hcan->ErrorCode |= HAL_CAN_ERROR_NOT_INITIALIZED;
 800382a:	68fb      	ldr	r3, [r7, #12]
 800382c:	6a5b      	ldr	r3, [r3, #36]	@ 0x24
 800382e:	f443 2280 	orr.w	r2, r3, #262144	@ 0x40000
 8003832:	68fb      	ldr	r3, [r7, #12]
 8003834:	625a      	str	r2, [r3, #36]	@ 0x24

    return HAL_ERROR;
 8003836:	2301      	movs	r3, #1
  }
}
 8003838:	4618      	mov	r0, r3
 800383a:	3724      	adds	r7, #36	@ 0x24
 800383c:	46bd      	mov	sp, r7
 800383e:	f85d 7b04 	ldr.w	r7, [sp], #4
 8003842:	4770      	bx	lr

08003844 <HAL_CAN_GetRxMessage>:
  * @param  aData array where the payload of the Rx frame will be stored.
  * @retval HAL status
  */
HAL_StatusTypeDef HAL_CAN_GetRxMessage(CAN_HandleTypeDef *hcan, uint32_t RxFifo,
                                       CAN_RxHeaderTypeDef *pHeader, uint8_t aData[])
{
 8003844:	b480      	push	{r7}
 8003846:	b087      	sub	sp, #28
 8003848:	af00      	add	r7, sp, #0
 800384a:	60f8      	str	r0, [r7, #12]
 800384c:	60b9      	str	r1, [r7, #8]
 800384e:	607a      	str	r2, [r7, #4]
 8003850:	603b      	str	r3, [r7, #0]
  HAL_CAN_StateTypeDef state = hcan->State;
 8003852:	68fb      	ldr	r3, [r7, #12]
 8003854:	f893 3020 	ldrb.w	r3, [r3, #32]
 8003858:	75fb      	strb	r3, [r7, #23]

  assert_param(IS_CAN_RX_FIFO(RxFifo));

  if ((state == HAL_CAN_STATE_READY) ||
 800385a:	7dfb      	ldrb	r3, [r7, #23]
 800385c:	2b01      	cmp	r3, #1
 800385e:	d003      	beq.n	8003868 <HAL_CAN_GetRxMessage+0x24>
 8003860:	7dfb      	ldrb	r3, [r7, #23]
 8003862:	2b02      	cmp	r3, #2
 8003864:	f040 8103 	bne.w	8003a6e <HAL_CAN_GetRxMessage+0x22a>
      (state == HAL_CAN_STATE_LISTENING))
  {
    /* Check the Rx FIFO */
    if (RxFifo == CAN_RX_FIFO0) /* Rx element is assigned to Rx FIFO 0 */
 8003868:	68bb      	ldr	r3, [r7, #8]
 800386a:	2b00      	cmp	r3, #0
 800386c:	d10e      	bne.n	800388c <HAL_CAN_GetRxMessage+0x48>
    {
      /* Check that the Rx FIFO 0 is not empty */
      if ((hcan->Instance->RF0R & CAN_RF0R_FMP0) == 0U)
 800386e:	68fb      	ldr	r3, [r7, #12]
 8003870:	681b      	ldr	r3, [r3, #0]
 8003872:	68db      	ldr	r3, [r3, #12]
 8003874:	f003 0303 	and.w	r3, r3, #3
 8003878:	2b00      	cmp	r3, #0
 800387a:	d116      	bne.n	80038aa <HAL_CAN_GetRxMessage+0x66>
      {
        /* Update error code */
        hcan->ErrorCode |= HAL_CAN_ERROR_PARAM;
 800387c:	68fb      	ldr	r3, [r7, #12]
 800387e:	6a5b      	ldr	r3, [r3, #36]	@ 0x24
 8003880:	f443 1200 	orr.w	r2, r3, #2097152	@ 0x200000
 8003884:	68fb      	ldr	r3, [r7, #12]
 8003886:	625a      	str	r2, [r3, #36]	@ 0x24

        return HAL_ERROR;
 8003888:	2301      	movs	r3, #1
 800388a:	e0f7      	b.n	8003a7c <HAL_CAN_GetRxMessage+0x238>
      }
    }
    else /* Rx element is assigned to Rx FIFO 1 */
    {
      /* Check that the Rx FIFO 1 is not empty */
      if ((hcan->Instance->RF1R & CAN_RF1R_FMP1) == 0U)
 800388c:	68fb      	ldr	r3, [r7, #12]
 800388e:	681b      	ldr	r3, [r3, #0]
 8003890:	691b      	ldr	r3, [r3, #16]
 8003892:	f003 0303 	and.w	r3, r3, #3
 8003896:	2b00      	cmp	r3, #0
 8003898:	d107      	bne.n	80038aa <HAL_CAN_GetRxMessage+0x66>
      {
        /* Update error code */
        hcan->ErrorCode |= HAL_CAN_ERROR_PARAM;
 800389a:	68fb      	ldr	r3, [r7, #12]
 800389c:	6a5b      	ldr	r3, [r3, #36]	@ 0x24
 800389e:	f443 1200 	orr.w	r2, r3, #2097152	@ 0x200000
 80038a2:	68fb      	ldr	r3, [r7, #12]
 80038a4:	625a      	str	r2, [r3, #36]	@ 0x24

        return HAL_ERROR;
 80038a6:	2301      	movs	r3, #1
 80038a8:	e0e8      	b.n	8003a7c <HAL_CAN_GetRxMessage+0x238>
      }
    }

    /* Get the header */
    pHeader->IDE = CAN_RI0R_IDE & hcan->Instance->sFIFOMailBox[RxFifo].RIR;
 80038aa:	68fb      	ldr	r3, [r7, #12]
 80038ac:	681a      	ldr	r2, [r3, #0]
 80038ae:	68bb      	ldr	r3, [r7, #8]
 80038b0:	331b      	adds	r3, #27
 80038b2:	011b      	lsls	r3, r3, #4
 80038b4:	4413      	add	r3, r2
 80038b6:	681b      	ldr	r3, [r3, #0]
 80038b8:	f003 0204 	and.w	r2, r3, #4
 80038bc:	687b      	ldr	r3, [r7, #4]
 80038be:	609a      	str	r2, [r3, #8]
    if (pHeader->IDE == CAN_ID_STD)
 80038c0:	687b      	ldr	r3, [r7, #4]
 80038c2:	689b      	ldr	r3, [r3, #8]
 80038c4:	2b00      	cmp	r3, #0
 80038c6:	d10c      	bne.n	80038e2 <HAL_CAN_GetRxMessage+0x9e>
    {
      pHeader->StdId = (CAN_RI0R_STID & hcan->Instance->sFIFOMailBox[RxFifo].RIR) >> CAN_TI0R_STID_Pos;
 80038c8:	68fb      	ldr	r3, [r7, #12]
 80038ca:	681a      	ldr	r2, [r3, #0]
 80038cc:	68bb      	ldr	r3, [r7, #8]
 80038ce:	331b      	adds	r3, #27
 80038d0:	011b      	lsls	r3, r3, #4
 80038d2:	4413      	add	r3, r2
 80038d4:	681b      	ldr	r3, [r3, #0]
 80038d6:	0d5b      	lsrs	r3, r3, #21
 80038d8:	f3c3 020a 	ubfx	r2, r3, #0, #11
 80038dc:	687b      	ldr	r3, [r7, #4]
 80038de:	601a      	str	r2, [r3, #0]
 80038e0:	e00b      	b.n	80038fa <HAL_CAN_GetRxMessage+0xb6>
    }
    else
    {
      pHeader->ExtId = ((CAN_RI0R_EXID | CAN_RI0R_STID) &
                        hcan->Instance->sFIFOMailBox[RxFifo].RIR) >> CAN_RI0R_EXID_Pos;
 80038e2:	68fb      	ldr	r3, [r7, #12]
 80038e4:	681a      	ldr	r2, [r3, #0]
 80038e6:	68bb      	ldr	r3, [r7, #8]
 80038e8:	331b      	adds	r3, #27
 80038ea:	011b      	lsls	r3, r3, #4
 80038ec:	4413      	add	r3, r2
 80038ee:	681b      	ldr	r3, [r3, #0]
 80038f0:	08db      	lsrs	r3, r3, #3
 80038f2:	f023 4260 	bic.w	r2, r3, #3758096384	@ 0xe0000000
      pHeader->ExtId = ((CAN_RI0R_EXID | CAN_RI0R_STID) &
 80038f6:	687b      	ldr	r3, [r7, #4]
 80038f8:	605a      	str	r2, [r3, #4]
    }
    pHeader->RTR = (CAN_RI0R_RTR & hcan->Instance->sFIFOMailBox[RxFifo].RIR);
 80038fa:	68fb      	ldr	r3, [r7, #12]
 80038fc:	681a      	ldr	r2, [r3, #0]
 80038fe:	68bb      	ldr	r3, [r7, #8]
 8003900:	331b      	adds	r3, #27
 8003902:	011b      	lsls	r3, r3, #4
 8003904:	4413      	add	r3, r2
 8003906:	681b      	ldr	r3, [r3, #0]
 8003908:	f003 0202 	and.w	r2, r3, #2
 800390c:	687b      	ldr	r3, [r7, #4]
 800390e:	60da      	str	r2, [r3, #12]
    if (((CAN_RDT0R_DLC & hcan->Instance->sFIFOMailBox[RxFifo].RDTR) >> CAN_RDT0R_DLC_Pos) >= 8U)
 8003910:	68fb      	ldr	r3, [r7, #12]
 8003912:	681a      	ldr	r2, [r3, #0]
 8003914:	68bb      	ldr	r3, [r7, #8]
 8003916:	331b      	adds	r3, #27
 8003918:	011b      	lsls	r3, r3, #4
 800391a:	4413      	add	r3, r2
 800391c:	3304      	adds	r3, #4
 800391e:	681b      	ldr	r3, [r3, #0]
 8003920:	f003 0308 	and.w	r3, r3, #8
 8003924:	2b00      	cmp	r3, #0
 8003926:	d003      	beq.n	8003930 <HAL_CAN_GetRxMessage+0xec>
    {
      /* Truncate DLC to 8 if received field is over range */
      pHeader->DLC = 8U;
 8003928:	687b      	ldr	r3, [r7, #4]
 800392a:	2208      	movs	r2, #8
 800392c:	611a      	str	r2, [r3, #16]
 800392e:	e00b      	b.n	8003948 <HAL_CAN_GetRxMessage+0x104>
    }
    else
    {
      pHeader->DLC = (CAN_RDT0R_DLC & hcan->Instance->sFIFOMailBox[RxFifo].RDTR) >> CAN_RDT0R_DLC_Pos;
 8003930:	68fb      	ldr	r3, [r7, #12]
 8003932:	681a      	ldr	r2, [r3, #0]
 8003934:	68bb      	ldr	r3, [r7, #8]
 8003936:	331b      	adds	r3, #27
 8003938:	011b      	lsls	r3, r3, #4
 800393a:	4413      	add	r3, r2
 800393c:	3304      	adds	r3, #4
 800393e:	681b      	ldr	r3, [r3, #0]
 8003940:	f003 020f 	and.w	r2, r3, #15
 8003944:	687b      	ldr	r3, [r7, #4]
 8003946:	611a      	str	r2, [r3, #16]
    }
    pHeader->FilterMatchIndex = (CAN_RDT0R_FMI & hcan->Instance->sFIFOMailBox[RxFifo].RDTR) >> CAN_RDT0R_FMI_Pos;
 8003948:	68fb      	ldr	r3, [r7, #12]
 800394a:	681a      	ldr	r2, [r3, #0]
 800394c:	68bb      	ldr	r3, [r7, #8]
 800394e:	331b      	adds	r3, #27
 8003950:	011b      	lsls	r3, r3, #4
 8003952:	4413      	add	r3, r2
 8003954:	3304      	adds	r3, #4
 8003956:	681b      	ldr	r3, [r3, #0]
 8003958:	0a1b      	lsrs	r3, r3, #8
 800395a:	b2da      	uxtb	r2, r3
 800395c:	687b      	ldr	r3, [r7, #4]
 800395e:	619a      	str	r2, [r3, #24]
    pHeader->Timestamp = (CAN_RDT0R_TIME & hcan->Instance->sFIFOMailBox[RxFifo].RDTR) >> CAN_RDT0R_TIME_Pos;
 8003960:	68fb      	ldr	r3, [r7, #12]
 8003962:	681a      	ldr	r2, [r3, #0]
 8003964:	68bb      	ldr	r3, [r7, #8]
 8003966:	331b      	adds	r3, #27
 8003968:	011b      	lsls	r3, r3, #4
 800396a:	4413      	add	r3, r2
 800396c:	3304      	adds	r3, #4
 800396e:	681b      	ldr	r3, [r3, #0]
 8003970:	0c1b      	lsrs	r3, r3, #16
 8003972:	b29a      	uxth	r2, r3
 8003974:	687b      	ldr	r3, [r7, #4]
 8003976:	615a      	str	r2, [r3, #20]

    /* Get the data */
    aData[0] = (uint8_t)((CAN_RDL0R_DATA0 & hcan->Instance->sFIFOMailBox[RxFifo].RDLR) >> CAN_RDL0R_DATA0_Pos);
 8003978:	68fb      	ldr	r3, [r7, #12]
 800397a:	681a      	ldr	r2, [r3, #0]
 800397c:	68bb      	ldr	r3, [r7, #8]
 800397e:	011b      	lsls	r3, r3, #4
 8003980:	4413      	add	r3, r2
 8003982:	f503 73dc 	add.w	r3, r3, #440	@ 0x1b8
 8003986:	681b      	ldr	r3, [r3, #0]
 8003988:	b2da      	uxtb	r2, r3
 800398a:	683b      	ldr	r3, [r7, #0]
 800398c:	701a      	strb	r2, [r3, #0]
    aData[1] = (uint8_t)((CAN_RDL0R_DATA1 & hcan->Instance->sFIFOMailBox[RxFifo].RDLR) >> CAN_RDL0R_DATA1_Pos);
 800398e:	68fb      	ldr	r3, [r7, #12]
 8003990:	681a      	ldr	r2, [r3, #0]
 8003992:	68bb      	ldr	r3, [r7, #8]
 8003994:	011b      	lsls	r3, r3, #4
 8003996:	4413      	add	r3, r2
 8003998:	f503 73dc 	add.w	r3, r3, #440	@ 0x1b8
 800399c:	681b      	ldr	r3, [r3, #0]
 800399e:	0a1a      	lsrs	r2, r3, #8
 80039a0:	683b      	ldr	r3, [r7, #0]
 80039a2:	3301      	adds	r3, #1
 80039a4:	b2d2      	uxtb	r2, r2
 80039a6:	701a      	strb	r2, [r3, #0]
    aData[2] = (uint8_t)((CAN_RDL0R_DATA2 & hcan->Instance->sFIFOMailBox[RxFifo].RDLR) >> CAN_RDL0R_DATA2_Pos);
 80039a8:	68fb      	ldr	r3, [r7, #12]
 80039aa:	681a      	ldr	r2, [r3, #0]
 80039ac:	68bb      	ldr	r3, [r7, #8]
 80039ae:	011b      	lsls	r3, r3, #4
 80039b0:	4413      	add	r3, r2
 80039b2:	f503 73dc 	add.w	r3, r3, #440	@ 0x1b8
 80039b6:	681b      	ldr	r3, [r3, #0]
 80039b8:	0c1a      	lsrs	r2, r3, #16
 80039ba:	683b      	ldr	r3, [r7, #0]
 80039bc:	3302      	adds	r3, #2
 80039be:	b2d2      	uxtb	r2, r2
 80039c0:	701a      	strb	r2, [r3, #0]
    aData[3] = (uint8_t)((CAN_RDL0R_DATA3 & hcan->Instance->sFIFOMailBox[RxFifo].RDLR) >> CAN_RDL0R_DATA3_Pos);
 80039c2:	68fb      	ldr	r3, [r7, #12]
 80039c4:	681a      	ldr	r2, [r3, #0]
 80039c6:	68bb      	ldr	r3, [r7, #8]
 80039c8:	011b      	lsls	r3, r3, #4
 80039ca:	4413      	add	r3, r2
 80039cc:	f503 73dc 	add.w	r3, r3, #440	@ 0x1b8
 80039d0:	681b      	ldr	r3, [r3, #0]
 80039d2:	0e1a      	lsrs	r2, r3, #24
 80039d4:	683b      	ldr	r3, [r7, #0]
 80039d6:	3303      	adds	r3, #3
 80039d8:	b2d2      	uxtb	r2, r2
 80039da:	701a      	strb	r2, [r3, #0]
    aData[4] = (uint8_t)((CAN_RDH0R_DATA4 & hcan->Instance->sFIFOMailBox[RxFifo].RDHR) >> CAN_RDH0R_DATA4_Pos);
 80039dc:	68fb      	ldr	r3, [r7, #12]
 80039de:	681a      	ldr	r2, [r3, #0]
 80039e0:	68bb      	ldr	r3, [r7, #8]
 80039e2:	011b      	lsls	r3, r3, #4
 80039e4:	4413      	add	r3, r2
 80039e6:	f503 73de 	add.w	r3, r3, #444	@ 0x1bc
 80039ea:	681a      	ldr	r2, [r3, #0]
 80039ec:	683b      	ldr	r3, [r7, #0]
 80039ee:	3304      	adds	r3, #4
 80039f0:	b2d2      	uxtb	r2, r2
 80039f2:	701a      	strb	r2, [r3, #0]
    aData[5] = (uint8_t)((CAN_RDH0R_DATA5 & hcan->Instance->sFIFOMailBox[RxFifo].RDHR) >> CAN_RDH0R_DATA5_Pos);
 80039f4:	68fb      	ldr	r3, [r7, #12]
 80039f6:	681a      	ldr	r2, [r3, #0]
 80039f8:	68bb      	ldr	r3, [r7, #8]
 80039fa:	011b      	lsls	r3, r3, #4
 80039fc:	4413      	add	r3, r2
 80039fe:	f503 73de 	add.w	r3, r3, #444	@ 0x1bc
 8003a02:	681b      	ldr	r3, [r3, #0]
 8003a04:	0a1a      	lsrs	r2, r3, #8
 8003a06:	683b      	ldr	r3, [r7, #0]
 8003a08:	3305      	adds	r3, #5
 8003a0a:	b2d2      	uxtb	r2, r2
 8003a0c:	701a      	strb	r2, [r3, #0]
    aData[6] = (uint8_t)((CAN_RDH0R_DATA6 & hcan->Instance->sFIFOMailBox[RxFifo].RDHR) >> CAN_RDH0R_DATA6_Pos);
 8003a0e:	68fb      	ldr	r3, [r7, #12]
 8003a10:	681a      	ldr	r2, [r3, #0]
 8003a12:	68bb      	ldr	r3, [r7, #8]
 8003a14:	011b      	lsls	r3, r3, #4
 8003a16:	4413      	add	r3, r2
 8003a18:	f503 73de 	add.w	r3, r3, #444	@ 0x1bc
 8003a1c:	681b      	ldr	r3, [r3, #0]
 8003a1e:	0c1a      	lsrs	r2, r3, #16
 8003a20:	683b      	ldr	r3, [r7, #0]
 8003a22:	3306      	adds	r3, #6
 8003a24:	b2d2      	uxtb	r2, r2
 8003a26:	701a      	strb	r2, [r3, #0]
    aData[7] = (uint8_t)((CAN_RDH0R_DATA7 & hcan->Instance->sFIFOMailBox[RxFifo].RDHR) >> CAN_RDH0R_DATA7_Pos);
 8003a28:	68fb      	ldr	r3, [r7, #12]
 8003a2a:	681a      	ldr	r2, [r3, #0]
 8003a2c:	68bb      	ldr	r3, [r7, #8]
 8003a2e:	011b      	lsls	r3, r3, #4
 8003a30:	4413      	add	r3, r2
 8003a32:	f503 73de 	add.w	r3, r3, #444	@ 0x1bc
 8003a36:	681b      	ldr	r3, [r3, #0]
 8003a38:	0e1a      	lsrs	r2, r3, #24
 8003a3a:	683b      	ldr	r3, [r7, #0]
 8003a3c:	3307      	adds	r3, #7
 8003a3e:	b2d2      	uxtb	r2, r2
 8003a40:	701a      	strb	r2, [r3, #0]

    /* Release the FIFO */
    if (RxFifo == CAN_RX_FIFO0) /* Rx element is assigned to Rx FIFO 0 */
 8003a42:	68bb      	ldr	r3, [r7, #8]
 8003a44:	2b00      	cmp	r3, #0
 8003a46:	d108      	bne.n	8003a5a <HAL_CAN_GetRxMessage+0x216>
    {
      /* Release RX FIFO 0 */
      SET_BIT(hcan->Instance->RF0R, CAN_RF0R_RFOM0);
 8003a48:	68fb      	ldr	r3, [r7, #12]
 8003a4a:	681b      	ldr	r3, [r3, #0]
 8003a4c:	68da      	ldr	r2, [r3, #12]
 8003a4e:	68fb      	ldr	r3, [r7, #12]
 8003a50:	681b      	ldr	r3, [r3, #0]
 8003a52:	f042 0220 	orr.w	r2, r2, #32
 8003a56:	60da      	str	r2, [r3, #12]
 8003a58:	e007      	b.n	8003a6a <HAL_CAN_GetRxMessage+0x226>
    }
    else /* Rx element is assigned to Rx FIFO 1 */
    {
      /* Release RX FIFO 1 */
      SET_BIT(hcan->Instance->RF1R, CAN_RF1R_RFOM1);
 8003a5a:	68fb      	ldr	r3, [r7, #12]
 8003a5c:	681b      	ldr	r3, [r3, #0]
 8003a5e:	691a      	ldr	r2, [r3, #16]
 8003a60:	68fb      	ldr	r3, [r7, #12]
 8003a62:	681b      	ldr	r3, [r3, #0]
 8003a64:	f042 0220 	orr.w	r2, r2, #32
 8003a68:	611a      	str	r2, [r3, #16]
    }

    /* Return function status */
    return HAL_OK;
 8003a6a:	2300      	movs	r3, #0
 8003a6c:	e006      	b.n	8003a7c <HAL_CAN_GetRxMessage+0x238>
  }
  else
  {
    /* Update error code */
    hcan->ErrorCode |= HAL_CAN_ERROR_NOT_INITIALIZED;
 8003a6e:	68fb      	ldr	r3, [r7, #12]
 8003a70:	6a5b      	ldr	r3, [r3, #36]	@ 0x24
 8003a72:	f443 2280 	orr.w	r2, r3, #262144	@ 0x40000
 8003a76:	68fb      	ldr	r3, [r7, #12]
 8003a78:	625a      	str	r2, [r3, #36]	@ 0x24

    return HAL_ERROR;
 8003a7a:	2301      	movs	r3, #1
  }
}
 8003a7c:	4618      	mov	r0, r3
 8003a7e:	371c      	adds	r7, #28
 8003a80:	46bd      	mov	sp, r7
 8003a82:	f85d 7b04 	ldr.w	r7, [sp], #4
 8003a86:	4770      	bx	lr

08003a88 <HAL_CAN_ActivateNotification>:
  * @param  ActiveITs indicates which interrupts will be enabled.
  *         This parameter can be any combination of @arg CAN_Interrupts.
  * @retval HAL status
  */
HAL_StatusTypeDef HAL_CAN_ActivateNotification(CAN_HandleTypeDef *hcan, uint32_t ActiveITs)
{
 8003a88:	b480      	push	{r7}
 8003a8a:	b085      	sub	sp, #20
 8003a8c:	af00      	add	r7, sp, #0
 8003a8e:	6078      	str	r0, [r7, #4]
 8003a90:	6039      	str	r1, [r7, #0]
  HAL_CAN_StateTypeDef state = hcan->State;
 8003a92:	687b      	ldr	r3, [r7, #4]
 8003a94:	f893 3020 	ldrb.w	r3, [r3, #32]
 8003a98:	73fb      	strb	r3, [r7, #15]

  /* Check function parameters */
  assert_param(IS_CAN_IT(ActiveITs));

  if ((state == HAL_CAN_STATE_READY) ||
 8003a9a:	7bfb      	ldrb	r3, [r7, #15]
 8003a9c:	2b01      	cmp	r3, #1
 8003a9e:	d002      	beq.n	8003aa6 <HAL_CAN_ActivateNotification+0x1e>
 8003aa0:	7bfb      	ldrb	r3, [r7, #15]
 8003aa2:	2b02      	cmp	r3, #2
 8003aa4:	d109      	bne.n	8003aba <HAL_CAN_ActivateNotification+0x32>
      (state == HAL_CAN_STATE_LISTENING))
  {
    /* Enable the selected interrupts */
    __HAL_CAN_ENABLE_IT(hcan, ActiveITs);
 8003aa6:	687b      	ldr	r3, [r7, #4]
 8003aa8:	681b      	ldr	r3, [r3, #0]
 8003aaa:	6959      	ldr	r1, [r3, #20]
 8003aac:	687b      	ldr	r3, [r7, #4]
 8003aae:	681b      	ldr	r3, [r3, #0]
 8003ab0:	683a      	ldr	r2, [r7, #0]
 8003ab2:	430a      	orrs	r2, r1
 8003ab4:	615a      	str	r2, [r3, #20]

    /* Return function status */
    return HAL_OK;
 8003ab6:	2300      	movs	r3, #0
 8003ab8:	e006      	b.n	8003ac8 <HAL_CAN_ActivateNotification+0x40>
  }
  else
  {
    /* Update error code */
    hcan->ErrorCode |= HAL_CAN_ERROR_NOT_INITIALIZED;
 8003aba:	687b      	ldr	r3, [r7, #4]
 8003abc:	6a5b      	ldr	r3, [r3, #36]	@ 0x24
 8003abe:	f443 2280 	orr.w	r2, r3, #262144	@ 0x40000
 8003ac2:	687b      	ldr	r3, [r7, #4]
 8003ac4:	625a      	str	r2, [r3, #36]	@ 0x24

    return HAL_ERROR;
 8003ac6:	2301      	movs	r3, #1
  }
}
 8003ac8:	4618      	mov	r0, r3
 8003aca:	3714      	adds	r7, #20
 8003acc:	46bd      	mov	sp, r7
 8003ace:	f85d 7b04 	ldr.w	r7, [sp], #4
 8003ad2:	4770      	bx	lr

08003ad4 <HAL_CAN_IRQHandler>:
  * @param  hcan pointer to a CAN_HandleTypeDef structure that contains
  *         the configuration information for the specified CAN.
  * @retval None
  */
void HAL_CAN_IRQHandler(CAN_HandleTypeDef *hcan)
{
 8003ad4:	b580      	push	{r7, lr}
 8003ad6:	b08a      	sub	sp, #40	@ 0x28
 8003ad8:	af00      	add	r7, sp, #0
 8003ada:	6078      	str	r0, [r7, #4]
  uint32_t errorcode = HAL_CAN_ERROR_NONE;
 8003adc:	2300      	movs	r3, #0
 8003ade:	627b      	str	r3, [r7, #36]	@ 0x24
  uint32_t interrupts = READ_REG(hcan->Instance->IER);
 8003ae0:	687b      	ldr	r3, [r7, #4]
 8003ae2:	681b      	ldr	r3, [r3, #0]
 8003ae4:	695b      	ldr	r3, [r3, #20]
 8003ae6:	623b      	str	r3, [r7, #32]
  uint32_t msrflags = READ_REG(hcan->Instance->MSR);
 8003ae8:	687b      	ldr	r3, [r7, #4]
 8003aea:	681b      	ldr	r3, [r3, #0]
 8003aec:	685b      	ldr	r3, [r3, #4]
 8003aee:	61fb      	str	r3, [r7, #28]
  uint32_t tsrflags = READ_REG(hcan->Instance->TSR);
 8003af0:	687b      	ldr	r3, [r7, #4]
 8003af2:	681b      	ldr	r3, [r3, #0]
 8003af4:	689b      	ldr	r3, [r3, #8]
 8003af6:	61bb      	str	r3, [r7, #24]
  uint32_t rf0rflags = READ_REG(hcan->Instance->RF0R);
 8003af8:	687b      	ldr	r3, [r7, #4]
 8003afa:	681b      	ldr	r3, [r3, #0]
 8003afc:	68db      	ldr	r3, [r3, #12]
 8003afe:	617b      	str	r3, [r7, #20]
  uint32_t rf1rflags = READ_REG(hcan->Instance->RF1R);
 8003b00:	687b      	ldr	r3, [r7, #4]
 8003b02:	681b      	ldr	r3, [r3, #0]
 8003b04:	691b      	ldr	r3, [r3, #16]
 8003b06:	613b      	str	r3, [r7, #16]
  uint32_t esrflags = READ_REG(hcan->Instance->ESR);
 8003b08:	687b      	ldr	r3, [r7, #4]
 8003b0a:	681b      	ldr	r3, [r3, #0]
 8003b0c:	699b      	ldr	r3, [r3, #24]
 8003b0e:	60fb      	str	r3, [r7, #12]

  /* Transmit Mailbox empty interrupt management *****************************/
  if ((interrupts & CAN_IT_TX_MAILBOX_EMPTY) != 0U)
 8003b10:	6a3b      	ldr	r3, [r7, #32]
 8003b12:	f003 0301 	and.w	r3, r3, #1
 8003b16:	2b00      	cmp	r3, #0
 8003b18:	d07c      	beq.n	8003c14 <HAL_CAN_IRQHandler+0x140>
  {
    /* Transmit Mailbox 0 management *****************************************/
    if ((tsrflags & CAN_TSR_RQCP0) != 0U)
 8003b1a:	69bb      	ldr	r3, [r7, #24]
 8003b1c:	f003 0301 	and.w	r3, r3, #1
 8003b20:	2b00      	cmp	r3, #0
 8003b22:	d023      	beq.n	8003b6c <HAL_CAN_IRQHandler+0x98>
    {
      /* Clear the Transmission Complete flag (and TXOK0,ALST0,TERR0 bits) */
      __HAL_CAN_CLEAR_FLAG(hcan, CAN_FLAG_RQCP0);
 8003b24:	687b      	ldr	r3, [r7, #4]
 8003b26:	681b      	ldr	r3, [r3, #0]
 8003b28:	2201      	movs	r2, #1
 8003b2a:	609a      	str	r2, [r3, #8]

      if ((tsrflags & CAN_TSR_TXOK0) != 0U)
 8003b2c:	69bb      	ldr	r3, [r7, #24]
 8003b2e:	f003 0302 	and.w	r3, r3, #2
 8003b32:	2b00      	cmp	r3, #0
 8003b34:	d003      	beq.n	8003b3e <HAL_CAN_IRQHandler+0x6a>
#if USE_HAL_CAN_REGISTER_CALLBACKS == 1
        /* Call registered callback*/
        hcan->TxMailbox0CompleteCallback(hcan);
#else
        /* Call weak (surcharged) callback */
        HAL_CAN_TxMailbox0CompleteCallback(hcan);
 8003b36:	6878      	ldr	r0, [r7, #4]
 8003b38:	f000 f983 	bl	8003e42 <HAL_CAN_TxMailbox0CompleteCallback>
 8003b3c:	e016      	b.n	8003b6c <HAL_CAN_IRQHandler+0x98>
#endif /* USE_HAL_CAN_REGISTER_CALLBACKS */
      }
      else
      {
        if ((tsrflags & CAN_TSR_ALST0) != 0U)
 8003b3e:	69bb      	ldr	r3, [r7, #24]
 8003b40:	f003 0304 	and.w	r3, r3, #4
 8003b44:	2b00      	cmp	r3, #0
 8003b46:	d004      	beq.n	8003b52 <HAL_CAN_IRQHandler+0x7e>
        {
          /* Update error code */
          errorcode |= HAL_CAN_ERROR_TX_ALST0;
 8003b48:	6a7b      	ldr	r3, [r7, #36]	@ 0x24
 8003b4a:	f443 6300 	orr.w	r3, r3, #2048	@ 0x800
 8003b4e:	627b      	str	r3, [r7, #36]	@ 0x24
 8003b50:	e00c      	b.n	8003b6c <HAL_CAN_IRQHandler+0x98>
        }
        else if ((tsrflags & CAN_TSR_TERR0) != 0U)
 8003b52:	69bb      	ldr	r3, [r7, #24]
 8003b54:	f003 0308 	and.w	r3, r3, #8
 8003b58:	2b00      	cmp	r3, #0
 8003b5a:	d004      	beq.n	8003b66 <HAL_CAN_IRQHandler+0x92>
        {
          /* Update error code */
          errorcode |= HAL_CAN_ERROR_TX_TERR0;
 8003b5c:	6a7b      	ldr	r3, [r7, #36]	@ 0x24
 8003b5e:	f443 5380 	orr.w	r3, r3, #4096	@ 0x1000
 8003b62:	627b      	str	r3, [r7, #36]	@ 0x24
 8003b64:	e002      	b.n	8003b6c <HAL_CAN_IRQHandler+0x98>
#if USE_HAL_CAN_REGISTER_CALLBACKS == 1
          /* Call registered callback*/
          hcan->TxMailbox0AbortCallback(hcan);
#else
          /* Call weak (surcharged) callback */
          HAL_CAN_TxMailbox0AbortCallback(hcan);
 8003b66:	6878      	ldr	r0, [r7, #4]
 8003b68:	f000 f989 	bl	8003e7e <HAL_CAN_TxMailbox0AbortCallback>
        }
      }
    }

    /* Transmit Mailbox 1 management *****************************************/
    if ((tsrflags & CAN_TSR_RQCP1) != 0U)
 8003b6c:	69bb      	ldr	r3, [r7, #24]
 8003b6e:	f403 7380 	and.w	r3, r3, #256	@ 0x100
 8003b72:	2b00      	cmp	r3, #0
 8003b74:	d024      	beq.n	8003bc0 <HAL_CAN_IRQHandler+0xec>
    {
      /* Clear the Transmission Complete flag (and TXOK1,ALST1,TERR1 bits) */
      __HAL_CAN_CLEAR_FLAG(hcan, CAN_FLAG_RQCP1);
 8003b76:	687b      	ldr	r3, [r7, #4]
 8003b78:	681b      	ldr	r3, [r3, #0]
 8003b7a:	f44f 7280 	mov.w	r2, #256	@ 0x100
 8003b7e:	609a      	str	r2, [r3, #8]

      if ((tsrflags & CAN_TSR_TXOK1) != 0U)
 8003b80:	69bb      	ldr	r3, [r7, #24]
 8003b82:	f403 7300 	and.w	r3, r3, #512	@ 0x200
 8003b86:	2b00      	cmp	r3, #0
 8003b88:	d003      	beq.n	8003b92 <HAL_CAN_IRQHandler+0xbe>
#if USE_HAL_CAN_REGISTER_CALLBACKS == 1
        /* Call registered callback*/
        hcan->TxMailbox1CompleteCallback(hcan);
#else
        /* Call weak (surcharged) callback */
        HAL_CAN_TxMailbox1CompleteCallback(hcan);
 8003b8a:	6878      	ldr	r0, [r7, #4]
 8003b8c:	f000 f963 	bl	8003e56 <HAL_CAN_TxMailbox1CompleteCallback>
 8003b90:	e016      	b.n	8003bc0 <HAL_CAN_IRQHandler+0xec>
#endif /* USE_HAL_CAN_REGISTER_CALLBACKS */
      }
      else
      {
        if ((tsrflags & CAN_TSR_ALST1) != 0U)
 8003b92:	69bb      	ldr	r3, [r7, #24]
 8003b94:	f403 6380 	and.w	r3, r3, #1024	@ 0x400
 8003b98:	2b00      	cmp	r3, #0
 8003b9a:	d004      	beq.n	8003ba6 <HAL_CAN_IRQHandler+0xd2>
        {
          /* Update error code */
          errorcode |= HAL_CAN_ERROR_TX_ALST1;
 8003b9c:	6a7b      	ldr	r3, [r7, #36]	@ 0x24
 8003b9e:	f443 5300 	orr.w	r3, r3, #8192	@ 0x2000
 8003ba2:	627b      	str	r3, [r7, #36]	@ 0x24
 8003ba4:	e00c      	b.n	8003bc0 <HAL_CAN_IRQHandler+0xec>
        }
        else if ((tsrflags & CAN_TSR_TERR1) != 0U)
 8003ba6:	69bb      	ldr	r3, [r7, #24]
 8003ba8:	f403 6300 	and.w	r3, r3, #2048	@ 0x800
 8003bac:	2b00      	cmp	r3, #0
 8003bae:	d004      	beq.n	8003bba <HAL_CAN_IRQHandler+0xe6>
        {
          /* Update error code */
          errorcode |= HAL_CAN_ERROR_TX_TERR1;
 8003bb0:	6a7b      	ldr	r3, [r7, #36]	@ 0x24
 8003bb2:	f443 4380 	orr.w	r3, r3, #16384	@ 0x4000
 8003bb6:	627b      	str	r3, [r7, #36]	@ 0x24
 8003bb8:	e002      	b.n	8003bc0 <HAL_CAN_IRQHandler+0xec>
#if USE_HAL_CAN_REGISTER_CALLBACKS == 1
          /* Call registered callback*/
          hcan->TxMailbox1AbortCallback(hcan);
#else
          /* Call weak (surcharged) callback */
          HAL_CAN_TxMailbox1AbortCallback(hcan);
 8003bba:	6878      	ldr	r0, [r7, #4]
 8003bbc:	f000 f969 	bl	8003e92 <HAL_CAN_TxMailbox1AbortCallback>
        }
      }
    }

    /* Transmit Mailbox 2 management *****************************************/
    if ((tsrflags & CAN_TSR_RQCP2) != 0U)
 8003bc0:	69bb      	ldr	r3, [r7, #24]
 8003bc2:	f403 3380 	and.w	r3, r3, #65536	@ 0x10000
 8003bc6:	2b00      	cmp	r3, #0
 8003bc8:	d024      	beq.n	8003c14 <HAL_CAN_IRQHandler+0x140>
    {
      /* Clear the Transmission Complete flag (and TXOK2,ALST2,TERR2 bits) */
      __HAL_CAN_CLEAR_FLAG(hcan, CAN_FLAG_RQCP2);
 8003bca:	687b      	ldr	r3, [r7, #4]
 8003bcc:	681b      	ldr	r3, [r3, #0]
 8003bce:	f44f 3280 	mov.w	r2, #65536	@ 0x10000
 8003bd2:	609a      	str	r2, [r3, #8]

      if ((tsrflags & CAN_TSR_TXOK2) != 0U)
 8003bd4:	69bb      	ldr	r3, [r7, #24]
 8003bd6:	f403 3300 	and.w	r3, r3, #131072	@ 0x20000
 8003bda:	2b00      	cmp	r3, #0
 8003bdc:	d003      	beq.n	8003be6 <HAL_CAN_IRQHandler+0x112>
#if USE_HAL_CAN_REGISTER_CALLBACKS == 1
        /* Call registered callback*/
        hcan->TxMailbox2CompleteCallback(hcan);
#else
        /* Call weak (surcharged) callback */
        HAL_CAN_TxMailbox2CompleteCallback(hcan);
 8003bde:	6878      	ldr	r0, [r7, #4]
 8003be0:	f000 f943 	bl	8003e6a <HAL_CAN_TxMailbox2CompleteCallback>
 8003be4:	e016      	b.n	8003c14 <HAL_CAN_IRQHandler+0x140>
#endif /* USE_HAL_CAN_REGISTER_CALLBACKS */
      }
      else
      {
        if ((tsrflags & CAN_TSR_ALST2) != 0U)
 8003be6:	69bb      	ldr	r3, [r7, #24]
 8003be8:	f403 2380 	and.w	r3, r3, #262144	@ 0x40000
 8003bec:	2b00      	cmp	r3, #0
 8003bee:	d004      	beq.n	8003bfa <HAL_CAN_IRQHandler+0x126>
        {
          /* Update error code */
          errorcode |= HAL_CAN_ERROR_TX_ALST2;
 8003bf0:	6a7b      	ldr	r3, [r7, #36]	@ 0x24
 8003bf2:	f443 4300 	orr.w	r3, r3, #32768	@ 0x8000
 8003bf6:	627b      	str	r3, [r7, #36]	@ 0x24
 8003bf8:	e00c      	b.n	8003c14 <HAL_CAN_IRQHandler+0x140>
        }
        else if ((tsrflags & CAN_TSR_TERR2) != 0U)
 8003bfa:	69bb      	ldr	r3, [r7, #24]
 8003bfc:	f403 2300 	and.w	r3, r3, #524288	@ 0x80000
 8003c00:	2b00      	cmp	r3, #0
 8003c02:	d004      	beq.n	8003c0e <HAL_CAN_IRQHandler+0x13a>
        {
          /* Update error code */
          errorcode |= HAL_CAN_ERROR_TX_TERR2;
 8003c04:	6a7b      	ldr	r3, [r7, #36]	@ 0x24
 8003c06:	f443 3380 	orr.w	r3, r3, #65536	@ 0x10000
 8003c0a:	627b      	str	r3, [r7, #36]	@ 0x24
 8003c0c:	e002      	b.n	8003c14 <HAL_CAN_IRQHandler+0x140>
#if USE_HAL_CAN_REGISTER_CALLBACKS == 1
          /* Call registered callback*/
          hcan->TxMailbox2AbortCallback(hcan);
#else
          /* Call weak (surcharged) callback */
          HAL_CAN_TxMailbox2AbortCallback(hcan);
 8003c0e:	6878      	ldr	r0, [r7, #4]
 8003c10:	f000 f949 	bl	8003ea6 <HAL_CAN_TxMailbox2AbortCallback>
      }
    }
  }

  /* Receive FIFO 0 overrun interrupt management *****************************/
  if ((interrupts & CAN_IT_RX_FIFO0_OVERRUN) != 0U)
 8003c14:	6a3b      	ldr	r3, [r7, #32]
 8003c16:	f003 0308 	and.w	r3, r3, #8
 8003c1a:	2b00      	cmp	r3, #0
 8003c1c:	d00c      	beq.n	8003c38 <HAL_CAN_IRQHandler+0x164>
  {
    if ((rf0rflags & CAN_RF0R_FOVR0) != 0U)
 8003c1e:	697b      	ldr	r3, [r7, #20]
 8003c20:	f003 0310 	and.w	r3, r3, #16
 8003c24:	2b00      	cmp	r3, #0
 8003c26:	d007      	beq.n	8003c38 <HAL_CAN_IRQHandler+0x164>
    {
      /* Set CAN error code to Rx Fifo 0 overrun error */
      errorcode |= HAL_CAN_ERROR_RX_FOV0;
 8003c28:	6a7b      	ldr	r3, [r7, #36]	@ 0x24
 8003c2a:	f443 7300 	orr.w	r3, r3, #512	@ 0x200
 8003c2e:	627b      	str	r3, [r7, #36]	@ 0x24

      /* Clear FIFO0 Overrun Flag */
      __HAL_CAN_CLEAR_FLAG(hcan, CAN_FLAG_FOV0);
 8003c30:	687b      	ldr	r3, [r7, #4]
 8003c32:	681b      	ldr	r3, [r3, #0]
 8003c34:	2210      	movs	r2, #16
 8003c36:	60da      	str	r2, [r3, #12]
    }
  }

  /* Receive FIFO 0 full interrupt management ********************************/
  if ((interrupts & CAN_IT_RX_FIFO0_FULL) != 0U)
 8003c38:	6a3b      	ldr	r3, [r7, #32]
 8003c3a:	f003 0304 	and.w	r3, r3, #4
 8003c3e:	2b00      	cmp	r3, #0
 8003c40:	d00b      	beq.n	8003c5a <HAL_CAN_IRQHandler+0x186>
  {
    if ((rf0rflags & CAN_RF0R_FULL0) != 0U)
 8003c42:	697b      	ldr	r3, [r7, #20]
 8003c44:	f003 0308 	and.w	r3, r3, #8
 8003c48:	2b00      	cmp	r3, #0
 8003c4a:	d006      	beq.n	8003c5a <HAL_CAN_IRQHandler+0x186>
    {
      /* Clear FIFO 0 full Flag */
      __HAL_CAN_CLEAR_FLAG(hcan, CAN_FLAG_FF0);
 8003c4c:	687b      	ldr	r3, [r7, #4]
 8003c4e:	681b      	ldr	r3, [r3, #0]
 8003c50:	2208      	movs	r2, #8
 8003c52:	60da      	str	r2, [r3, #12]
#if USE_HAL_CAN_REGISTER_CALLBACKS == 1
      /* Call registered callback*/
      hcan->RxFifo0FullCallback(hcan);
#else
      /* Call weak (surcharged) callback */
      HAL_CAN_RxFifo0FullCallback(hcan);
 8003c54:	6878      	ldr	r0, [r7, #4]
 8003c56:	f000 f930 	bl	8003eba <HAL_CAN_RxFifo0FullCallback>
#endif /* USE_HAL_CAN_REGISTER_CALLBACKS */
    }
  }

  /* Receive FIFO 0 message pending interrupt management *********************/
  if ((interrupts & CAN_IT_RX_FIFO0_MSG_PENDING) != 0U)
 8003c5a:	6a3b      	ldr	r3, [r7, #32]
 8003c5c:	f003 0302 	and.w	r3, r3, #2
 8003c60:	2b00      	cmp	r3, #0
 8003c62:	d009      	beq.n	8003c78 <HAL_CAN_IRQHandler+0x1a4>
  {
    /* Check if message is still pending */
    if ((hcan->Instance->RF0R & CAN_RF0R_FMP0) != 0U)
 8003c64:	687b      	ldr	r3, [r7, #4]
 8003c66:	681b      	ldr	r3, [r3, #0]
 8003c68:	68db      	ldr	r3, [r3, #12]
 8003c6a:	f003 0303 	and.w	r3, r3, #3
 8003c6e:	2b00      	cmp	r3, #0
 8003c70:	d002      	beq.n	8003c78 <HAL_CAN_IRQHandler+0x1a4>
#if USE_HAL_CAN_REGISTER_CALLBACKS == 1
      /* Call registered callback*/
      hcan->RxFifo0MsgPendingCallback(hcan);
#else
      /* Call weak (surcharged) callback */
      HAL_CAN_RxFifo0MsgPendingCallback(hcan);
 8003c72:	6878      	ldr	r0, [r7, #4]
 8003c74:	f7ff f958 	bl	8002f28 <HAL_CAN_RxFifo0MsgPendingCallback>
#endif /* USE_HAL_CAN_REGISTER_CALLBACKS */
    }
  }

  /* Receive FIFO 1 overrun interrupt management *****************************/
  if ((interrupts & CAN_IT_RX_FIFO1_OVERRUN) != 0U)
 8003c78:	6a3b      	ldr	r3, [r7, #32]
 8003c7a:	f003 0340 	and.w	r3, r3, #64	@ 0x40
 8003c7e:	2b00      	cmp	r3, #0
 8003c80:	d00c      	beq.n	8003c9c <HAL_CAN_IRQHandler+0x1c8>
  {
    if ((rf1rflags & CAN_RF1R_FOVR1) != 0U)
 8003c82:	693b      	ldr	r3, [r7, #16]
 8003c84:	f003 0310 	and.w	r3, r3, #16
 8003c88:	2b00      	cmp	r3, #0
 8003c8a:	d007      	beq.n	8003c9c <HAL_CAN_IRQHandler+0x1c8>
    {
      /* Set CAN error code to Rx Fifo 1 overrun error */
      errorcode |= HAL_CAN_ERROR_RX_FOV1;
 8003c8c:	6a7b      	ldr	r3, [r7, #36]	@ 0x24
 8003c8e:	f443 6380 	orr.w	r3, r3, #1024	@ 0x400
 8003c92:	627b      	str	r3, [r7, #36]	@ 0x24

      /* Clear FIFO1 Overrun Flag */
      __HAL_CAN_CLEAR_FLAG(hcan, CAN_FLAG_FOV1);
 8003c94:	687b      	ldr	r3, [r7, #4]
 8003c96:	681b      	ldr	r3, [r3, #0]
 8003c98:	2210      	movs	r2, #16
 8003c9a:	611a      	str	r2, [r3, #16]
    }
  }

  /* Receive FIFO 1 full interrupt management ********************************/
  if ((interrupts & CAN_IT_RX_FIFO1_FULL) != 0U)
 8003c9c:	6a3b      	ldr	r3, [r7, #32]
 8003c9e:	f003 0320 	and.w	r3, r3, #32
 8003ca2:	2b00      	cmp	r3, #0
 8003ca4:	d00b      	beq.n	8003cbe <HAL_CAN_IRQHandler+0x1ea>
  {
    if ((rf1rflags & CAN_RF1R_FULL1) != 0U)
 8003ca6:	693b      	ldr	r3, [r7, #16]
 8003ca8:	f003 0308 	and.w	r3, r3, #8
 8003cac:	2b00      	cmp	r3, #0
 8003cae:	d006      	beq.n	8003cbe <HAL_CAN_IRQHandler+0x1ea>
    {
      /* Clear FIFO 1 full Flag */
      __HAL_CAN_CLEAR_FLAG(hcan, CAN_FLAG_FF1);
 8003cb0:	687b      	ldr	r3, [r7, #4]
 8003cb2:	681b      	ldr	r3, [r3, #0]
 8003cb4:	2208      	movs	r2, #8
 8003cb6:	611a      	str	r2, [r3, #16]
#if USE_HAL_CAN_REGISTER_CALLBACKS == 1
      /* Call registered callback*/
      hcan->RxFifo1FullCallback(hcan);
#else
      /* Call weak (surcharged) callback */
      HAL_CAN_RxFifo1FullCallback(hcan);
 8003cb8:	6878      	ldr	r0, [r7, #4]
 8003cba:	f000 f912 	bl	8003ee2 <HAL_CAN_RxFifo1FullCallback>
#endif /* USE_HAL_CAN_REGISTER_CALLBACKS */
    }
  }

  /* Receive FIFO 1 message pending interrupt management *********************/
  if ((interrupts & CAN_IT_RX_FIFO1_MSG_PENDING) != 0U)
 8003cbe:	6a3b      	ldr	r3, [r7, #32]
 8003cc0:	f003 0310 	and.w	r3, r3, #16
 8003cc4:	2b00      	cmp	r3, #0
 8003cc6:	d009      	beq.n	8003cdc <HAL_CAN_IRQHandler+0x208>
  {
    /* Check if message is still pending */
    if ((hcan->Instance->RF1R & CAN_RF1R_FMP1) != 0U)
 8003cc8:	687b      	ldr	r3, [r7, #4]
 8003cca:	681b      	ldr	r3, [r3, #0]
 8003ccc:	691b      	ldr	r3, [r3, #16]
 8003cce:	f003 0303 	and.w	r3, r3, #3
 8003cd2:	2b00      	cmp	r3, #0
 8003cd4:	d002      	beq.n	8003cdc <HAL_CAN_IRQHandler+0x208>
#if USE_HAL_CAN_REGISTER_CALLBACKS == 1
      /* Call registered callback*/
      hcan->RxFifo1MsgPendingCallback(hcan);
#else
      /* Call weak (surcharged) callback */
      HAL_CAN_RxFifo1MsgPendingCallback(hcan);
 8003cd6:	6878      	ldr	r0, [r7, #4]
 8003cd8:	f000 f8f9 	bl	8003ece <HAL_CAN_RxFifo1MsgPendingCallback>
#endif /* USE_HAL_CAN_REGISTER_CALLBACKS */
    }
  }

  /* Sleep interrupt management *********************************************/
  if ((interrupts & CAN_IT_SLEEP_ACK) != 0U)
 8003cdc:	6a3b      	ldr	r3, [r7, #32]
 8003cde:	f403 3300 	and.w	r3, r3, #131072	@ 0x20000
 8003ce2:	2b00      	cmp	r3, #0
 8003ce4:	d00b      	beq.n	8003cfe <HAL_CAN_IRQHandler+0x22a>
  {
    if ((msrflags & CAN_MSR_SLAKI) != 0U)
 8003ce6:	69fb      	ldr	r3, [r7, #28]
 8003ce8:	f003 0310 	and.w	r3, r3, #16
 8003cec:	2b00      	cmp	r3, #0
 8003cee:	d006      	beq.n	8003cfe <HAL_CAN_IRQHandler+0x22a>
    {
      /* Clear Sleep interrupt Flag */
      __HAL_CAN_CLEAR_FLAG(hcan, CAN_FLAG_SLAKI);
 8003cf0:	687b      	ldr	r3, [r7, #4]
 8003cf2:	681b      	ldr	r3, [r3, #0]
 8003cf4:	2210      	movs	r2, #16
 8003cf6:	605a      	str	r2, [r3, #4]
#if USE_HAL_CAN_REGISTER_CALLBACKS == 1
      /* Call registered callback*/
      hcan->SleepCallback(hcan);
#else
      /* Call weak (surcharged) callback */
      HAL_CAN_SleepCallback(hcan);
 8003cf8:	6878      	ldr	r0, [r7, #4]
 8003cfa:	f000 f8fc 	bl	8003ef6 <HAL_CAN_SleepCallback>
#endif /* USE_HAL_CAN_REGISTER_CALLBACKS */
    }
  }

  /* WakeUp interrupt management *********************************************/
  if ((interrupts & CAN_IT_WAKEUP) != 0U)
 8003cfe:	6a3b      	ldr	r3, [r7, #32]
 8003d00:	f403 3380 	and.w	r3, r3, #65536	@ 0x10000
 8003d04:	2b00      	cmp	r3, #0
 8003d06:	d00b      	beq.n	8003d20 <HAL_CAN_IRQHandler+0x24c>
  {
    if ((msrflags & CAN_MSR_WKUI) != 0U)
 8003d08:	69fb      	ldr	r3, [r7, #28]
 8003d0a:	f003 0308 	and.w	r3, r3, #8
 8003d0e:	2b00      	cmp	r3, #0
 8003d10:	d006      	beq.n	8003d20 <HAL_CAN_IRQHandler+0x24c>
    {
      /* Clear WakeUp Flag */
      __HAL_CAN_CLEAR_FLAG(hcan, CAN_FLAG_WKU);
 8003d12:	687b      	ldr	r3, [r7, #4]
 8003d14:	681b      	ldr	r3, [r3, #0]
 8003d16:	2208      	movs	r2, #8
 8003d18:	605a      	str	r2, [r3, #4]
#if USE_HAL_CAN_REGISTER_CALLBACKS == 1
      /* Call registered callback*/
      hcan->WakeUpFromRxMsgCallback(hcan);
#else
      /* Call weak (surcharged) callback */
      HAL_CAN_WakeUpFromRxMsgCallback(hcan);
 8003d1a:	6878      	ldr	r0, [r7, #4]
 8003d1c:	f000 f8f5 	bl	8003f0a <HAL_CAN_WakeUpFromRxMsgCallback>
#endif /* USE_HAL_CAN_REGISTER_CALLBACKS */
    }
  }

  /* Error interrupts management *********************************************/
  if ((interrupts & CAN_IT_ERROR) != 0U)
 8003d20:	6a3b      	ldr	r3, [r7, #32]
 8003d22:	f403 4300 	and.w	r3, r3, #32768	@ 0x8000
 8003d26:	2b00      	cmp	r3, #0
 8003d28:	d07b      	beq.n	8003e22 <HAL_CAN_IRQHandler+0x34e>
  {
    if ((msrflags & CAN_MSR_ERRI) != 0U)
 8003d2a:	69fb      	ldr	r3, [r7, #28]
 8003d2c:	f003 0304 	and.w	r3, r3, #4
 8003d30:	2b00      	cmp	r3, #0
 8003d32:	d072      	beq.n	8003e1a <HAL_CAN_IRQHandler+0x346>
    {
      /* Check Error Warning Flag */
      if (((interrupts & CAN_IT_ERROR_WARNING) != 0U) &&
 8003d34:	6a3b      	ldr	r3, [r7, #32]
 8003d36:	f403 7380 	and.w	r3, r3, #256	@ 0x100
 8003d3a:	2b00      	cmp	r3, #0
 8003d3c:	d008      	beq.n	8003d50 <HAL_CAN_IRQHandler+0x27c>
          ((esrflags & CAN_ESR_EWGF) != 0U))
 8003d3e:	68fb      	ldr	r3, [r7, #12]
 8003d40:	f003 0301 	and.w	r3, r3, #1
      if (((interrupts & CAN_IT_ERROR_WARNING) != 0U) &&
 8003d44:	2b00      	cmp	r3, #0
 8003d46:	d003      	beq.n	8003d50 <HAL_CAN_IRQHandler+0x27c>
      {
        /* Set CAN error code to Error Warning */
        errorcode |= HAL_CAN_ERROR_EWG;
 8003d48:	6a7b      	ldr	r3, [r7, #36]	@ 0x24
 8003d4a:	f043 0301 	orr.w	r3, r3, #1
 8003d4e:	627b      	str	r3, [r7, #36]	@ 0x24

        /* No need for clear of Error Warning Flag as read-only */
      }

      /* Check Error Passive Flag */
      if (((interrupts & CAN_IT_ERROR_PASSIVE) != 0U) &&
 8003d50:	6a3b      	ldr	r3, [r7, #32]
 8003d52:	f403 7300 	and.w	r3, r3, #512	@ 0x200
 8003d56:	2b00      	cmp	r3, #0
 8003d58:	d008      	beq.n	8003d6c <HAL_CAN_IRQHandler+0x298>
          ((esrflags & CAN_ESR_EPVF) != 0U))
 8003d5a:	68fb      	ldr	r3, [r7, #12]
 8003d5c:	f003 0302 	and.w	r3, r3, #2
      if (((interrupts & CAN_IT_ERROR_PASSIVE) != 0U) &&
 8003d60:	2b00      	cmp	r3, #0
 8003d62:	d003      	beq.n	8003d6c <HAL_CAN_IRQHandler+0x298>
      {
        /* Set CAN error code to Error Passive */
        errorcode |= HAL_CAN_ERROR_EPV;
 8003d64:	6a7b      	ldr	r3, [r7, #36]	@ 0x24
 8003d66:	f043 0302 	orr.w	r3, r3, #2
 8003d6a:	627b      	str	r3, [r7, #36]	@ 0x24

        /* No need for clear of Error Passive Flag as read-only */
      }

      /* Check Bus-off Flag */
      if (((interrupts & CAN_IT_BUSOFF) != 0U) &&
 8003d6c:	6a3b      	ldr	r3, [r7, #32]
 8003d6e:	f403 6380 	and.w	r3, r3, #1024	@ 0x400
 8003d72:	2b00      	cmp	r3, #0
 8003d74:	d008      	beq.n	8003d88 <HAL_CAN_IRQHandler+0x2b4>
          ((esrflags & CAN_ESR_BOFF) != 0U))
 8003d76:	68fb      	ldr	r3, [r7, #12]
 8003d78:	f003 0304 	and.w	r3, r3, #4
      if (((interrupts & CAN_IT_BUSOFF) != 0U) &&
 8003d7c:	2b00      	cmp	r3, #0
 8003d7e:	d003      	beq.n	8003d88 <HAL_CAN_IRQHandler+0x2b4>
      {
        /* Set CAN error code to Bus-Off */
        errorcode |= HAL_CAN_ERROR_BOF;
 8003d80:	6a7b      	ldr	r3, [r7, #36]	@ 0x24
 8003d82:	f043 0304 	orr.w	r3, r3, #4
 8003d86:	627b      	str	r3, [r7, #36]	@ 0x24

        /* No need for clear of Error Bus-Off as read-only */
      }

      /* Check Last Error Code Flag */
      if (((interrupts & CAN_IT_LAST_ERROR_CODE) != 0U) &&
 8003d88:	6a3b      	ldr	r3, [r7, #32]
 8003d8a:	f403 6300 	and.w	r3, r3, #2048	@ 0x800
 8003d8e:	2b00      	cmp	r3, #0
 8003d90:	d043      	beq.n	8003e1a <HAL_CAN_IRQHandler+0x346>
          ((esrflags & CAN_ESR_LEC) != 0U))
 8003d92:	68fb      	ldr	r3, [r7, #12]
 8003d94:	f003 0370 	and.w	r3, r3, #112	@ 0x70
      if (((interrupts & CAN_IT_LAST_ERROR_CODE) != 0U) &&
 8003d98:	2b00      	cmp	r3, #0
 8003d9a:	d03e      	beq.n	8003e1a <HAL_CAN_IRQHandler+0x346>
      {
        switch (esrflags & CAN_ESR_LEC)
 8003d9c:	68fb      	ldr	r3, [r7, #12]
 8003d9e:	f003 0370 	and.w	r3, r3, #112	@ 0x70
 8003da2:	2b60      	cmp	r3, #96	@ 0x60
 8003da4:	d02b      	beq.n	8003dfe <HAL_CAN_IRQHandler+0x32a>
 8003da6:	2b60      	cmp	r3, #96	@ 0x60
 8003da8:	d82e      	bhi.n	8003e08 <HAL_CAN_IRQHandler+0x334>
 8003daa:	2b50      	cmp	r3, #80	@ 0x50
 8003dac:	d022      	beq.n	8003df4 <HAL_CAN_IRQHandler+0x320>
 8003dae:	2b50      	cmp	r3, #80	@ 0x50
 8003db0:	d82a      	bhi.n	8003e08 <HAL_CAN_IRQHandler+0x334>
 8003db2:	2b40      	cmp	r3, #64	@ 0x40
 8003db4:	d019      	beq.n	8003dea <HAL_CAN_IRQHandler+0x316>
 8003db6:	2b40      	cmp	r3, #64	@ 0x40
 8003db8:	d826      	bhi.n	8003e08 <HAL_CAN_IRQHandler+0x334>
 8003dba:	2b30      	cmp	r3, #48	@ 0x30
 8003dbc:	d010      	beq.n	8003de0 <HAL_CAN_IRQHandler+0x30c>
 8003dbe:	2b30      	cmp	r3, #48	@ 0x30
 8003dc0:	d822      	bhi.n	8003e08 <HAL_CAN_IRQHandler+0x334>
 8003dc2:	2b10      	cmp	r3, #16
 8003dc4:	d002      	beq.n	8003dcc <HAL_CAN_IRQHandler+0x2f8>
 8003dc6:	2b20      	cmp	r3, #32
 8003dc8:	d005      	beq.n	8003dd6 <HAL_CAN_IRQHandler+0x302>
          case (CAN_ESR_LEC_2 | CAN_ESR_LEC_1):
            /* Set CAN error code to CRC error */
            errorcode |= HAL_CAN_ERROR_CRC;
            break;
          default:
            break;
 8003dca:	e01d      	b.n	8003e08 <HAL_CAN_IRQHandler+0x334>
            errorcode |= HAL_CAN_ERROR_STF;
 8003dcc:	6a7b      	ldr	r3, [r7, #36]	@ 0x24
 8003dce:	f043 0308 	orr.w	r3, r3, #8
 8003dd2:	627b      	str	r3, [r7, #36]	@ 0x24
            break;
 8003dd4:	e019      	b.n	8003e0a <HAL_CAN_IRQHandler+0x336>
            errorcode |= HAL_CAN_ERROR_FOR;
 8003dd6:	6a7b      	ldr	r3, [r7, #36]	@ 0x24
 8003dd8:	f043 0310 	orr.w	r3, r3, #16
 8003ddc:	627b      	str	r3, [r7, #36]	@ 0x24
            break;
 8003dde:	e014      	b.n	8003e0a <HAL_CAN_IRQHandler+0x336>
            errorcode |= HAL_CAN_ERROR_ACK;
 8003de0:	6a7b      	ldr	r3, [r7, #36]	@ 0x24
 8003de2:	f043 0320 	orr.w	r3, r3, #32
 8003de6:	627b      	str	r3, [r7, #36]	@ 0x24
            break;
 8003de8:	e00f      	b.n	8003e0a <HAL_CAN_IRQHandler+0x336>
            errorcode |= HAL_CAN_ERROR_BR;
 8003dea:	6a7b      	ldr	r3, [r7, #36]	@ 0x24
 8003dec:	f043 0340 	orr.w	r3, r3, #64	@ 0x40
 8003df0:	627b      	str	r3, [r7, #36]	@ 0x24
            break;
 8003df2:	e00a      	b.n	8003e0a <HAL_CAN_IRQHandler+0x336>
            errorcode |= HAL_CAN_ERROR_BD;
 8003df4:	6a7b      	ldr	r3, [r7, #36]	@ 0x24
 8003df6:	f043 0380 	orr.w	r3, r3, #128	@ 0x80
 8003dfa:	627b      	str	r3, [r7, #36]	@ 0x24
            break;
 8003dfc:	e005      	b.n	8003e0a <HAL_CAN_IRQHandler+0x336>
            errorcode |= HAL_CAN_ERROR_CRC;
 8003dfe:	6a7b      	ldr	r3, [r7, #36]	@ 0x24
 8003e00:	f443 7380 	orr.w	r3, r3, #256	@ 0x100
 8003e04:	627b      	str	r3, [r7, #36]	@ 0x24
            break;
 8003e06:	e000      	b.n	8003e0a <HAL_CAN_IRQHandler+0x336>
            break;
 8003e08:	bf00      	nop
        }

        /* Clear Last error code Flag */
        CLEAR_BIT(hcan->Instance->ESR, CAN_ESR_LEC);
 8003e0a:	687b      	ldr	r3, [r7, #4]
 8003e0c:	681b      	ldr	r3, [r3, #0]
 8003e0e:	699a      	ldr	r2, [r3, #24]
 8003e10:	687b      	ldr	r3, [r7, #4]
 8003e12:	681b      	ldr	r3, [r3, #0]
 8003e14:	f022 0270 	bic.w	r2, r2, #112	@ 0x70
 8003e18:	619a      	str	r2, [r3, #24]
      }
    }

    /* Clear ERRI Flag */
    __HAL_CAN_CLEAR_FLAG(hcan, CAN_FLAG_ERRI);
 8003e1a:	687b      	ldr	r3, [r7, #4]
 8003e1c:	681b      	ldr	r3, [r3, #0]
 8003e1e:	2204      	movs	r2, #4
 8003e20:	605a      	str	r2, [r3, #4]
  }

  /* Call the Error call Back in case of Errors */
  if (errorcode != HAL_CAN_ERROR_NONE)
 8003e22:	6a7b      	ldr	r3, [r7, #36]	@ 0x24
 8003e24:	2b00      	cmp	r3, #0
 8003e26:	d008      	beq.n	8003e3a <HAL_CAN_IRQHandler+0x366>
  {
    /* Update error code in handle */
    hcan->ErrorCode |= errorcode;
 8003e28:	687b      	ldr	r3, [r7, #4]
 8003e2a:	6a5a      	ldr	r2, [r3, #36]	@ 0x24
 8003e2c:	6a7b      	ldr	r3, [r7, #36]	@ 0x24
 8003e2e:	431a      	orrs	r2, r3
 8003e30:	687b      	ldr	r3, [r7, #4]
 8003e32:	625a      	str	r2, [r3, #36]	@ 0x24
#if USE_HAL_CAN_REGISTER_CALLBACKS == 1
    /* Call registered callback*/
    hcan->ErrorCallback(hcan);
#else
    /* Call weak (surcharged) callback */
    HAL_CAN_ErrorCallback(hcan);
 8003e34:	6878      	ldr	r0, [r7, #4]
 8003e36:	f000 f872 	bl	8003f1e <HAL_CAN_ErrorCallback>
#endif /* USE_HAL_CAN_REGISTER_CALLBACKS */
  }
}
 8003e3a:	bf00      	nop
 8003e3c:	3728      	adds	r7, #40	@ 0x28
 8003e3e:	46bd      	mov	sp, r7
 8003e40:	bd80      	pop	{r7, pc}

08003e42 <HAL_CAN_TxMailbox0CompleteCallback>:
  * @param  hcan pointer to a CAN_HandleTypeDef structure that contains
  *         the configuration information for the specified CAN.
  * @retval None
  */
__weak void HAL_CAN_TxMailbox0CompleteCallback(CAN_HandleTypeDef *hcan)
{
 8003e42:	b480      	push	{r7}
 8003e44:	b083      	sub	sp, #12
 8003e46:	af00      	add	r7, sp, #0
 8003e48:	6078      	str	r0, [r7, #4]

  /* NOTE : This function Should not be modified, when the callback is needed,
            the HAL_CAN_TxMailbox0CompleteCallback could be implemented in the
            user file
   */
}
 8003e4a:	bf00      	nop
 8003e4c:	370c      	adds	r7, #12
 8003e4e:	46bd      	mov	sp, r7
 8003e50:	f85d 7b04 	ldr.w	r7, [sp], #4
 8003e54:	4770      	bx	lr

08003e56 <HAL_CAN_TxMailbox1CompleteCallback>:
  * @param  hcan pointer to a CAN_HandleTypeDef structure that contains
  *         the configuration information for the specified CAN.
  * @retval None
  */
__weak void HAL_CAN_TxMailbox1CompleteCallback(CAN_HandleTypeDef *hcan)
{
 8003e56:	b480      	push	{r7}
 8003e58:	b083      	sub	sp, #12
 8003e5a:	af00      	add	r7, sp, #0
 8003e5c:	6078      	str	r0, [r7, #4]

  /* NOTE : This function Should not be modified, when the callback is needed,
            the HAL_CAN_TxMailbox1CompleteCallback could be implemented in the
            user file
   */
}
 8003e5e:	bf00      	nop
 8003e60:	370c      	adds	r7, #12
 8003e62:	46bd      	mov	sp, r7
 8003e64:	f85d 7b04 	ldr.w	r7, [sp], #4
 8003e68:	4770      	bx	lr

08003e6a <HAL_CAN_TxMailbox2CompleteCallback>:
  * @param  hcan pointer to a CAN_HandleTypeDef structure that contains
  *         the configuration information for the specified CAN.
  * @retval None
  */
__weak void HAL_CAN_TxMailbox2CompleteCallback(CAN_HandleTypeDef *hcan)
{
 8003e6a:	b480      	push	{r7}
 8003e6c:	b083      	sub	sp, #12
 8003e6e:	af00      	add	r7, sp, #0
 8003e70:	6078      	str	r0, [r7, #4]

  /* NOTE : This function Should not be modified, when the callback is needed,
            the HAL_CAN_TxMailbox2CompleteCallback could be implemented in the
            user file
   */
}
 8003e72:	bf00      	nop
 8003e74:	370c      	adds	r7, #12
 8003e76:	46bd      	mov	sp, r7
 8003e78:	f85d 7b04 	ldr.w	r7, [sp], #4
 8003e7c:	4770      	bx	lr

08003e7e <HAL_CAN_TxMailbox0AbortCallback>:
  * @param  hcan pointer to an CAN_HandleTypeDef structure that contains
  *         the configuration information for the specified CAN.
  * @retval None
  */
__weak void HAL_CAN_TxMailbox0AbortCallback(CAN_HandleTypeDef *hcan)
{
 8003e7e:	b480      	push	{r7}
 8003e80:	b083      	sub	sp, #12
 8003e82:	af00      	add	r7, sp, #0
 8003e84:	6078      	str	r0, [r7, #4]

  /* NOTE : This function Should not be modified, when the callback is needed,
            the HAL_CAN_TxMailbox0AbortCallback could be implemented in the
            user file
   */
}
 8003e86:	bf00      	nop
 8003e88:	370c      	adds	r7, #12
 8003e8a:	46bd      	mov	sp, r7
 8003e8c:	f85d 7b04 	ldr.w	r7, [sp], #4
 8003e90:	4770      	bx	lr

08003e92 <HAL_CAN_TxMailbox1AbortCallback>:
  * @param  hcan pointer to an CAN_HandleTypeDef structure that contains
  *         the configuration information for the specified CAN.
  * @retval None
  */
__weak void HAL_CAN_TxMailbox1AbortCallback(CAN_HandleTypeDef *hcan)
{
 8003e92:	b480      	push	{r7}
 8003e94:	b083      	sub	sp, #12
 8003e96:	af00      	add	r7, sp, #0
 8003e98:	6078      	str	r0, [r7, #4]

  /* NOTE : This function Should not be modified, when the callback is needed,
            the HAL_CAN_TxMailbox1AbortCallback could be implemented in the
            user file
   */
}
 8003e9a:	bf00      	nop
 8003e9c:	370c      	adds	r7, #12
 8003e9e:	46bd      	mov	sp, r7
 8003ea0:	f85d 7b04 	ldr.w	r7, [sp], #4
 8003ea4:	4770      	bx	lr

08003ea6 <HAL_CAN_TxMailbox2AbortCallback>:
  * @param  hcan pointer to an CAN_HandleTypeDef structure that contains
  *         the configuration information for the specified CAN.
  * @retval None
  */
__weak void HAL_CAN_TxMailbox2AbortCallback(CAN_HandleTypeDef *hcan)
{
 8003ea6:	b480      	push	{r7}
 8003ea8:	b083      	sub	sp, #12
 8003eaa:	af00      	add	r7, sp, #0
 8003eac:	6078      	str	r0, [r7, #4]

  /* NOTE : This function Should not be modified, when the callback is needed,
            the HAL_CAN_TxMailbox2AbortCallback could be implemented in the
            user file
   */
}
 8003eae:	bf00      	nop
 8003eb0:	370c      	adds	r7, #12
 8003eb2:	46bd      	mov	sp, r7
 8003eb4:	f85d 7b04 	ldr.w	r7, [sp], #4
 8003eb8:	4770      	bx	lr

08003eba <HAL_CAN_RxFifo0FullCallback>:
  * @param  hcan pointer to a CAN_HandleTypeDef structure that contains
  *         the configuration information for the specified CAN.
  * @retval None
  */
__weak void HAL_CAN_RxFifo0FullCallback(CAN_HandleTypeDef *hcan)
{
 8003eba:	b480      	push	{r7}
 8003ebc:	b083      	sub	sp, #12
 8003ebe:	af00      	add	r7, sp, #0
 8003ec0:	6078      	str	r0, [r7, #4]

  /* NOTE : This function Should not be modified, when the callback is needed,
            the HAL_CAN_RxFifo0FullCallback could be implemented in the user
            file
   */
}
 8003ec2:	bf00      	nop
 8003ec4:	370c      	adds	r7, #12
 8003ec6:	46bd      	mov	sp, r7
 8003ec8:	f85d 7b04 	ldr.w	r7, [sp], #4
 8003ecc:	4770      	bx	lr

08003ece <HAL_CAN_RxFifo1MsgPendingCallback>:
  * @param  hcan pointer to a CAN_HandleTypeDef structure that contains
  *         the configuration information for the specified CAN.
  * @retval None
  */
__weak void HAL_CAN_RxFifo1MsgPendingCallback(CAN_HandleTypeDef *hcan)
{
 8003ece:	b480      	push	{r7}
 8003ed0:	b083      	sub	sp, #12
 8003ed2:	af00      	add	r7, sp, #0
 8003ed4:	6078      	str	r0, [r7, #4]

  /* NOTE : This function Should not be modified, when the callback is needed,
            the HAL_CAN_RxFifo1MsgPendingCallback could be implemented in the
            user file
   */
}
 8003ed6:	bf00      	nop
 8003ed8:	370c      	adds	r7, #12
 8003eda:	46bd      	mov	sp, r7
 8003edc:	f85d 7b04 	ldr.w	r7, [sp], #4
 8003ee0:	4770      	bx	lr

08003ee2 <HAL_CAN_RxFifo1FullCallback>:
  * @param  hcan pointer to a CAN_HandleTypeDef structure that contains
  *         the configuration information for the specified CAN.
  * @retval None
  */
__weak void HAL_CAN_RxFifo1FullCallback(CAN_HandleTypeDef *hcan)
{
 8003ee2:	b480      	push	{r7}
 8003ee4:	b083      	sub	sp, #12
 8003ee6:	af00      	add	r7, sp, #0
 8003ee8:	6078      	str	r0, [r7, #4]

  /* NOTE : This function Should not be modified, when the callback is needed,
            the HAL_CAN_RxFifo1FullCallback could be implemented in the user
            file
   */
}
 8003eea:	bf00      	nop
 8003eec:	370c      	adds	r7, #12
 8003eee:	46bd      	mov	sp, r7
 8003ef0:	f85d 7b04 	ldr.w	r7, [sp], #4
 8003ef4:	4770      	bx	lr

08003ef6 <HAL_CAN_SleepCallback>:
  * @param  hcan pointer to a CAN_HandleTypeDef structure that contains
  *         the configuration information for the specified CAN.
  * @retval None
  */
__weak void HAL_CAN_SleepCallback(CAN_HandleTypeDef *hcan)
{
 8003ef6:	b480      	push	{r7}
 8003ef8:	b083      	sub	sp, #12
 8003efa:	af00      	add	r7, sp, #0
 8003efc:	6078      	str	r0, [r7, #4]
  UNUSED(hcan);

  /* NOTE : This function Should not be modified, when the callback is needed,
            the HAL_CAN_SleepCallback could be implemented in the user file
   */
}
 8003efe:	bf00      	nop
 8003f00:	370c      	adds	r7, #12
 8003f02:	46bd      	mov	sp, r7
 8003f04:	f85d 7b04 	ldr.w	r7, [sp], #4
 8003f08:	4770      	bx	lr

08003f0a <HAL_CAN_WakeUpFromRxMsgCallback>:
  * @param  hcan pointer to a CAN_HandleTypeDef structure that contains
  *         the configuration information for the specified CAN.
  * @retval None
  */
__weak void HAL_CAN_WakeUpFromRxMsgCallback(CAN_HandleTypeDef *hcan)
{
 8003f0a:	b480      	push	{r7}
 8003f0c:	b083      	sub	sp, #12
 8003f0e:	af00      	add	r7, sp, #0
 8003f10:	6078      	str	r0, [r7, #4]

  /* NOTE : This function Should not be modified, when the callback is needed,
            the HAL_CAN_WakeUpFromRxMsgCallback could be implemented in the
            user file
   */
}
 8003f12:	bf00      	nop
 8003f14:	370c      	adds	r7, #12
 8003f16:	46bd      	mov	sp, r7
 8003f18:	f85d 7b04 	ldr.w	r7, [sp], #4
 8003f1c:	4770      	bx	lr

08003f1e <HAL_CAN_ErrorCallback>:
  * @param  hcan pointer to a CAN_HandleTypeDef structure that contains
  *         the configuration information for the specified CAN.
  * @retval None
  */
__weak void HAL_CAN_ErrorCallback(CAN_HandleTypeDef *hcan)
{
 8003f1e:	b480      	push	{r7}
 8003f20:	b083      	sub	sp, #12
 8003f22:	af00      	add	r7, sp, #0
 8003f24:	6078      	str	r0, [r7, #4]
  UNUSED(hcan);

  /* NOTE : This function Should not be modified, when the callback is needed,
            the HAL_CAN_ErrorCallback could be implemented in the user file
   */
}
 8003f26:	bf00      	nop
 8003f28:	370c      	adds	r7, #12
 8003f2a:	46bd      	mov	sp, r7
 8003f2c:	f85d 7b04 	ldr.w	r7, [sp], #4
 8003f30:	4770      	bx	lr
	...

08003f34 <__NVIC_SetPriorityGrouping>:
           In case of a conflict between priority grouping and available
           priority bits (__NVIC_PRIO_BITS), the smallest possible priority group is set.
  \param [in]      PriorityGroup  Priority grouping field.
 */
__STATIC_INLINE void __NVIC_SetPriorityGrouping(uint32_t PriorityGroup)
{
 8003f34:	b480      	push	{r7}
 8003f36:	b085      	sub	sp, #20
 8003f38:	af00      	add	r7, sp, #0
 8003f3a:	6078      	str	r0, [r7, #4]
  uint32_t reg_value;
  uint32_t PriorityGroupTmp = (PriorityGroup & (uint32_t)0x07UL);             /* only values 0..7 are used          */
 8003f3c:	687b      	ldr	r3, [r7, #4]
 8003f3e:	f003 0307 	and.w	r3, r3, #7
 8003f42:	60fb      	str	r3, [r7, #12]

  reg_value  =  SCB->AIRCR;                                                   /* read old register configuration    */
 8003f44:	4b0c      	ldr	r3, [pc, #48]	@ (8003f78 <__NVIC_SetPriorityGrouping+0x44>)
 8003f46:	68db      	ldr	r3, [r3, #12]
 8003f48:	60bb      	str	r3, [r7, #8]
  reg_value &= ~((uint32_t)(SCB_AIRCR_VECTKEY_Msk | SCB_AIRCR_PRIGROUP_Msk)); /* clear bits to change               */
 8003f4a:	68ba      	ldr	r2, [r7, #8]
 8003f4c:	f64f 03ff 	movw	r3, #63743	@ 0xf8ff
 8003f50:	4013      	ands	r3, r2
 8003f52:	60bb      	str	r3, [r7, #8]
  reg_value  =  (reg_value                                   |
                ((uint32_t)0x5FAUL << SCB_AIRCR_VECTKEY_Pos) |
                (PriorityGroupTmp << SCB_AIRCR_PRIGROUP_Pos)  );              /* Insert write key and priority group */
 8003f54:	68fb      	ldr	r3, [r7, #12]
 8003f56:	021a      	lsls	r2, r3, #8
                ((uint32_t)0x5FAUL << SCB_AIRCR_VECTKEY_Pos) |
 8003f58:	68bb      	ldr	r3, [r7, #8]
 8003f5a:	4313      	orrs	r3, r2
  reg_value  =  (reg_value                                   |
 8003f5c:	f043 63bf 	orr.w	r3, r3, #100139008	@ 0x5f80000
 8003f60:	f443 3300 	orr.w	r3, r3, #131072	@ 0x20000
 8003f64:	60bb      	str	r3, [r7, #8]
  SCB->AIRCR =  reg_value;
 8003f66:	4a04      	ldr	r2, [pc, #16]	@ (8003f78 <__NVIC_SetPriorityGrouping+0x44>)
 8003f68:	68bb      	ldr	r3, [r7, #8]
 8003f6a:	60d3      	str	r3, [r2, #12]
}
 8003f6c:	bf00      	nop
 8003f6e:	3714      	adds	r7, #20
 8003f70:	46bd      	mov	sp, r7
 8003f72:	f85d 7b04 	ldr.w	r7, [sp], #4
 8003f76:	4770      	bx	lr
 8003f78:	e000ed00 	.word	0xe000ed00

08003f7c <__NVIC_GetPriorityGrouping>:
  \brief   Get Priority Grouping
  \details Reads the priority grouping field from the NVIC Interrupt Controller.
  \return                Priority grouping field (SCB->AIRCR [10:8] PRIGROUP field).
 */
__STATIC_INLINE uint32_t __NVIC_GetPriorityGrouping(void)
{
 8003f7c:	b480      	push	{r7}
 8003f7e:	af00      	add	r7, sp, #0
  return ((uint32_t)((SCB->AIRCR & SCB_AIRCR_PRIGROUP_Msk) >> SCB_AIRCR_PRIGROUP_Pos));
 8003f80:	4b04      	ldr	r3, [pc, #16]	@ (8003f94 <__NVIC_GetPriorityGrouping+0x18>)
 8003f82:	68db      	ldr	r3, [r3, #12]
 8003f84:	0a1b      	lsrs	r3, r3, #8
 8003f86:	f003 0307 	and.w	r3, r3, #7
}
 8003f8a:	4618      	mov	r0, r3
 8003f8c:	46bd      	mov	sp, r7
 8003f8e:	f85d 7b04 	ldr.w	r7, [sp], #4
 8003f92:	4770      	bx	lr
 8003f94:	e000ed00 	.word	0xe000ed00

08003f98 <__NVIC_EnableIRQ>:
  \details Enables a device specific interrupt in the NVIC interrupt controller.
  \param [in]      IRQn  Device specific interrupt number.
  \note    IRQn must not be negative.
 */
__STATIC_INLINE void __NVIC_EnableIRQ(IRQn_Type IRQn)
{
 8003f98:	b480      	push	{r7}
 8003f9a:	b083      	sub	sp, #12
 8003f9c:	af00      	add	r7, sp, #0
 8003f9e:	4603      	mov	r3, r0
 8003fa0:	71fb      	strb	r3, [r7, #7]
  if ((int32_t)(IRQn) >= 0)
 8003fa2:	f997 3007 	ldrsb.w	r3, [r7, #7]
 8003fa6:	2b00      	cmp	r3, #0
 8003fa8:	db0b      	blt.n	8003fc2 <__NVIC_EnableIRQ+0x2a>
  {
    __COMPILER_BARRIER();
    NVIC->ISER[(((uint32_t)IRQn) >> 5UL)] = (uint32_t)(1UL << (((uint32_t)IRQn) & 0x1FUL));
 8003faa:	79fb      	ldrb	r3, [r7, #7]
 8003fac:	f003 021f 	and.w	r2, r3, #31
 8003fb0:	4907      	ldr	r1, [pc, #28]	@ (8003fd0 <__NVIC_EnableIRQ+0x38>)
 8003fb2:	f997 3007 	ldrsb.w	r3, [r7, #7]
 8003fb6:	095b      	lsrs	r3, r3, #5
 8003fb8:	2001      	movs	r0, #1
 8003fba:	fa00 f202 	lsl.w	r2, r0, r2
 8003fbe:	f841 2023 	str.w	r2, [r1, r3, lsl #2]
    __COMPILER_BARRIER();
  }
}
 8003fc2:	bf00      	nop
 8003fc4:	370c      	adds	r7, #12
 8003fc6:	46bd      	mov	sp, r7
 8003fc8:	f85d 7b04 	ldr.w	r7, [sp], #4
 8003fcc:	4770      	bx	lr
 8003fce:	bf00      	nop
 8003fd0:	e000e100 	.word	0xe000e100

08003fd4 <__NVIC_SetPriority>:
  \param [in]      IRQn  Interrupt number.
  \param [in]  priority  Priority to set.
  \note    The priority cannot be set for every processor exception.
 */
__STATIC_INLINE void __NVIC_SetPriority(IRQn_Type IRQn, uint32_t priority)
{
 8003fd4:	b480      	push	{r7}
 8003fd6:	b083      	sub	sp, #12
 8003fd8:	af00      	add	r7, sp, #0
 8003fda:	4603      	mov	r3, r0
 8003fdc:	6039      	str	r1, [r7, #0]
 8003fde:	71fb      	strb	r3, [r7, #7]
  if ((int32_t)(IRQn) >= 0)
 8003fe0:	f997 3007 	ldrsb.w	r3, [r7, #7]
 8003fe4:	2b00      	cmp	r3, #0
 8003fe6:	db0a      	blt.n	8003ffe <__NVIC_SetPriority+0x2a>
  {
    NVIC->IP[((uint32_t)IRQn)]               = (uint8_t)((priority << (8U - __NVIC_PRIO_BITS)) & (uint32_t)0xFFUL);
 8003fe8:	683b      	ldr	r3, [r7, #0]
 8003fea:	b2da      	uxtb	r2, r3
 8003fec:	490c      	ldr	r1, [pc, #48]	@ (8004020 <__NVIC_SetPriority+0x4c>)
 8003fee:	f997 3007 	ldrsb.w	r3, [r7, #7]
 8003ff2:	0112      	lsls	r2, r2, #4
 8003ff4:	b2d2      	uxtb	r2, r2
 8003ff6:	440b      	add	r3, r1
 8003ff8:	f883 2300 	strb.w	r2, [r3, #768]	@ 0x300
  }
  else
  {
    SCB->SHP[(((uint32_t)IRQn) & 0xFUL)-4UL] = (uint8_t)((priority << (8U - __NVIC_PRIO_BITS)) & (uint32_t)0xFFUL);
  }
}
 8003ffc:	e00a      	b.n	8004014 <__NVIC_SetPriority+0x40>
    SCB->SHP[(((uint32_t)IRQn) & 0xFUL)-4UL] = (uint8_t)((priority << (8U - __NVIC_PRIO_BITS)) & (uint32_t)0xFFUL);
 8003ffe:	683b      	ldr	r3, [r7, #0]
 8004000:	b2da      	uxtb	r2, r3
 8004002:	4908      	ldr	r1, [pc, #32]	@ (8004024 <__NVIC_SetPriority+0x50>)
 8004004:	79fb      	ldrb	r3, [r7, #7]
 8004006:	f003 030f 	and.w	r3, r3, #15
 800400a:	3b04      	subs	r3, #4
 800400c:	0112      	lsls	r2, r2, #4
 800400e:	b2d2      	uxtb	r2, r2
 8004010:	440b      	add	r3, r1
 8004012:	761a      	strb	r2, [r3, #24]
}
 8004014:	bf00      	nop
 8004016:	370c      	adds	r7, #12
 8004018:	46bd      	mov	sp, r7
 800401a:	f85d 7b04 	ldr.w	r7, [sp], #4
 800401e:	4770      	bx	lr
 8004020:	e000e100 	.word	0xe000e100
 8004024:	e000ed00 	.word	0xe000ed00

08004028 <NVIC_EncodePriority>:
  \param [in]   PreemptPriority  Preemptive priority value (starting from 0).
  \param [in]       SubPriority  Subpriority value (starting from 0).
  \return                        Encoded priority. Value can be used in the function \ref NVIC_SetPriority().
 */
__STATIC_INLINE uint32_t NVIC_EncodePriority (uint32_t PriorityGroup, uint32_t PreemptPriority, uint32_t SubPriority)
{
 8004028:	b480      	push	{r7}
 800402a:	b089      	sub	sp, #36	@ 0x24
 800402c:	af00      	add	r7, sp, #0
 800402e:	60f8      	str	r0, [r7, #12]
 8004030:	60b9      	str	r1, [r7, #8]
 8004032:	607a      	str	r2, [r7, #4]
  uint32_t PriorityGroupTmp = (PriorityGroup & (uint32_t)0x07UL);   /* only values 0..7 are used          */
 8004034:	68fb      	ldr	r3, [r7, #12]
 8004036:	f003 0307 	and.w	r3, r3, #7
 800403a:	61fb      	str	r3, [r7, #28]
  uint32_t PreemptPriorityBits;
  uint32_t SubPriorityBits;

  PreemptPriorityBits = ((7UL - PriorityGroupTmp) > (uint32_t)(__NVIC_PRIO_BITS)) ? (uint32_t)(__NVIC_PRIO_BITS) : (uint32_t)(7UL - PriorityGroupTmp);
 800403c:	69fb      	ldr	r3, [r7, #28]
 800403e:	f1c3 0307 	rsb	r3, r3, #7
 8004042:	2b04      	cmp	r3, #4
 8004044:	bf28      	it	cs
 8004046:	2304      	movcs	r3, #4
 8004048:	61bb      	str	r3, [r7, #24]
  SubPriorityBits     = ((PriorityGroupTmp + (uint32_t)(__NVIC_PRIO_BITS)) < (uint32_t)7UL) ? (uint32_t)0UL : (uint32_t)((PriorityGroupTmp - 7UL) + (uint32_t)(__NVIC_PRIO_BITS));
 800404a:	69fb      	ldr	r3, [r7, #28]
 800404c:	3304      	adds	r3, #4
 800404e:	2b06      	cmp	r3, #6
 8004050:	d902      	bls.n	8004058 <NVIC_EncodePriority+0x30>
 8004052:	69fb      	ldr	r3, [r7, #28]
 8004054:	3b03      	subs	r3, #3
 8004056:	e000      	b.n	800405a <NVIC_EncodePriority+0x32>
 8004058:	2300      	movs	r3, #0
 800405a:	617b      	str	r3, [r7, #20]

  return (
           ((PreemptPriority & (uint32_t)((1UL << (PreemptPriorityBits)) - 1UL)) << SubPriorityBits) |
 800405c:	f04f 32ff 	mov.w	r2, #4294967295	@ 0xffffffff
 8004060:	69bb      	ldr	r3, [r7, #24]
 8004062:	fa02 f303 	lsl.w	r3, r2, r3
 8004066:	43da      	mvns	r2, r3
 8004068:	68bb      	ldr	r3, [r7, #8]
 800406a:	401a      	ands	r2, r3
 800406c:	697b      	ldr	r3, [r7, #20]
 800406e:	409a      	lsls	r2, r3
           ((SubPriority     & (uint32_t)((1UL << (SubPriorityBits    )) - 1UL)))
 8004070:	f04f 31ff 	mov.w	r1, #4294967295	@ 0xffffffff
 8004074:	697b      	ldr	r3, [r7, #20]
 8004076:	fa01 f303 	lsl.w	r3, r1, r3
 800407a:	43d9      	mvns	r1, r3
 800407c:	687b      	ldr	r3, [r7, #4]
 800407e:	400b      	ands	r3, r1
           ((PreemptPriority & (uint32_t)((1UL << (PreemptPriorityBits)) - 1UL)) << SubPriorityBits) |
 8004080:	4313      	orrs	r3, r2
         );
}
 8004082:	4618      	mov	r0, r3
 8004084:	3724      	adds	r7, #36	@ 0x24
 8004086:	46bd      	mov	sp, r7
 8004088:	f85d 7b04 	ldr.w	r7, [sp], #4
 800408c:	4770      	bx	lr
	...

08004090 <SysTick_Config>:
  \note    When the variable <b>__Vendor_SysTickConfig</b> is set to 1, then the
           function <b>SysTick_Config</b> is not included. In this case, the file <b><i>device</i>.h</b>
           must contain a vendor-specific implementation of this function.
 */
__STATIC_INLINE uint32_t SysTick_Config(uint32_t ticks)
{
 8004090:	b580      	push	{r7, lr}
 8004092:	b082      	sub	sp, #8
 8004094:	af00      	add	r7, sp, #0
 8004096:	6078      	str	r0, [r7, #4]
  if ((ticks - 1UL) > SysTick_LOAD_RELOAD_Msk)
 8004098:	687b      	ldr	r3, [r7, #4]
 800409a:	3b01      	subs	r3, #1
 800409c:	f1b3 7f80 	cmp.w	r3, #16777216	@ 0x1000000
 80040a0:	d301      	bcc.n	80040a6 <SysTick_Config+0x16>
  {
    return (1UL);                                                   /* Reload value impossible */
 80040a2:	2301      	movs	r3, #1
 80040a4:	e00f      	b.n	80040c6 <SysTick_Config+0x36>
  }

  SysTick->LOAD  = (uint32_t)(ticks - 1UL);                         /* set reload register */
 80040a6:	4a0a      	ldr	r2, [pc, #40]	@ (80040d0 <SysTick_Config+0x40>)
 80040a8:	687b      	ldr	r3, [r7, #4]
 80040aa:	3b01      	subs	r3, #1
 80040ac:	6053      	str	r3, [r2, #4]
  NVIC_SetPriority (SysTick_IRQn, (1UL << __NVIC_PRIO_BITS) - 1UL); /* set Priority for Systick Interrupt */
 80040ae:	210f      	movs	r1, #15
 80040b0:	f04f 30ff 	mov.w	r0, #4294967295	@ 0xffffffff
 80040b4:	f7ff ff8e 	bl	8003fd4 <__NVIC_SetPriority>
  SysTick->VAL   = 0UL;                                             /* Load the SysTick Counter Value */
 80040b8:	4b05      	ldr	r3, [pc, #20]	@ (80040d0 <SysTick_Config+0x40>)
 80040ba:	2200      	movs	r2, #0
 80040bc:	609a      	str	r2, [r3, #8]
  SysTick->CTRL  = SysTick_CTRL_CLKSOURCE_Msk |
 80040be:	4b04      	ldr	r3, [pc, #16]	@ (80040d0 <SysTick_Config+0x40>)
 80040c0:	2207      	movs	r2, #7
 80040c2:	601a      	str	r2, [r3, #0]
                   SysTick_CTRL_TICKINT_Msk   |
                   SysTick_CTRL_ENABLE_Msk;                         /* Enable SysTick IRQ and SysTick Timer */
  return (0UL);                                                     /* Function successful */
 80040c4:	2300      	movs	r3, #0
}
 80040c6:	4618      	mov	r0, r3
 80040c8:	3708      	adds	r7, #8
 80040ca:	46bd      	mov	sp, r7
 80040cc:	bd80      	pop	{r7, pc}
 80040ce:	bf00      	nop
 80040d0:	e000e010 	.word	0xe000e010

080040d4 <HAL_NVIC_SetPriorityGrouping>:
  * @note   When the NVIC_PriorityGroup_0 is selected, IRQ preemption is no more possible. 
  *         The pending IRQ priority will be managed only by the subpriority. 
  * @retval None
  */
void HAL_NVIC_SetPriorityGrouping(uint32_t PriorityGroup)
{
 80040d4:	b580      	push	{r7, lr}
 80040d6:	b082      	sub	sp, #8
 80040d8:	af00      	add	r7, sp, #0
 80040da:	6078      	str	r0, [r7, #4]
  /* Check the parameters */
  assert_param(IS_NVIC_PRIORITY_GROUP(PriorityGroup));
  
  /* Set the PRIGROUP[10:8] bits according to the PriorityGroup parameter value */
  NVIC_SetPriorityGrouping(PriorityGroup);
 80040dc:	6878      	ldr	r0, [r7, #4]
 80040de:	f7ff ff29 	bl	8003f34 <__NVIC_SetPriorityGrouping>
}
 80040e2:	bf00      	nop
 80040e4:	3708      	adds	r7, #8
 80040e6:	46bd      	mov	sp, r7
 80040e8:	bd80      	pop	{r7, pc}

080040ea <HAL_NVIC_SetPriority>:
  *         This parameter can be a value between 0 and 15
  *         A lower priority value indicates a higher priority.          
  * @retval None
  */
void HAL_NVIC_SetPriority(IRQn_Type IRQn, uint32_t PreemptPriority, uint32_t SubPriority)
{ 
 80040ea:	b580      	push	{r7, lr}
 80040ec:	b086      	sub	sp, #24
 80040ee:	af00      	add	r7, sp, #0
 80040f0:	4603      	mov	r3, r0
 80040f2:	60b9      	str	r1, [r7, #8]
 80040f4:	607a      	str	r2, [r7, #4]
 80040f6:	73fb      	strb	r3, [r7, #15]
  uint32_t prioritygroup = 0x00U;
 80040f8:	2300      	movs	r3, #0
 80040fa:	617b      	str	r3, [r7, #20]
  
  /* Check the parameters */
  assert_param(IS_NVIC_SUB_PRIORITY(SubPriority));
  assert_param(IS_NVIC_PREEMPTION_PRIORITY(PreemptPriority));
  
  prioritygroup = NVIC_GetPriorityGrouping();
 80040fc:	f7ff ff3e 	bl	8003f7c <__NVIC_GetPriorityGrouping>
 8004100:	6178      	str	r0, [r7, #20]
  
  NVIC_SetPriority(IRQn, NVIC_EncodePriority(prioritygroup, PreemptPriority, SubPriority));
 8004102:	687a      	ldr	r2, [r7, #4]
 8004104:	68b9      	ldr	r1, [r7, #8]
 8004106:	6978      	ldr	r0, [r7, #20]
 8004108:	f7ff ff8e 	bl	8004028 <NVIC_EncodePriority>
 800410c:	4602      	mov	r2, r0
 800410e:	f997 300f 	ldrsb.w	r3, [r7, #15]
 8004112:	4611      	mov	r1, r2
 8004114:	4618      	mov	r0, r3
 8004116:	f7ff ff5d 	bl	8003fd4 <__NVIC_SetPriority>
}
 800411a:	bf00      	nop
 800411c:	3718      	adds	r7, #24
 800411e:	46bd      	mov	sp, r7
 8004120:	bd80      	pop	{r7, pc}

08004122 <HAL_NVIC_EnableIRQ>:
  *         This parameter can be an enumerator of IRQn_Type enumeration
  *         (For the complete STM32 Devices IRQ Channels list, please refer to the appropriate CMSIS device file (stm32f4xxxx.h))
  * @retval None
  */
void HAL_NVIC_EnableIRQ(IRQn_Type IRQn)
{
 8004122:	b580      	push	{r7, lr}
 8004124:	b082      	sub	sp, #8
 8004126:	af00      	add	r7, sp, #0
 8004128:	4603      	mov	r3, r0
 800412a:	71fb      	strb	r3, [r7, #7]
  /* Check the parameters */
  assert_param(IS_NVIC_DEVICE_IRQ(IRQn));
  
  /* Enable interrupt */
  NVIC_EnableIRQ(IRQn);
 800412c:	f997 3007 	ldrsb.w	r3, [r7, #7]
 8004130:	4618      	mov	r0, r3
 8004132:	f7ff ff31 	bl	8003f98 <__NVIC_EnableIRQ>
}
 8004136:	bf00      	nop
 8004138:	3708      	adds	r7, #8
 800413a:	46bd      	mov	sp, r7
 800413c:	bd80      	pop	{r7, pc}

0800413e <HAL_SYSTICK_Config>:
  * @param  TicksNumb Specifies the ticks Number of ticks between two interrupts.
  * @retval status:  - 0  Function succeeded.
  *                  - 1  Function failed.
  */
uint32_t HAL_SYSTICK_Config(uint32_t TicksNumb)
{
 800413e:	b580      	push	{r7, lr}
 8004140:	b082      	sub	sp, #8
 8004142:	af00      	add	r7, sp, #0
 8004144:	6078      	str	r0, [r7, #4]
   return SysTick_Config(TicksNumb);
 8004146:	6878      	ldr	r0, [r7, #4]
 8004148:	f7ff ffa2 	bl	8004090 <SysTick_Config>
 800414c:	4603      	mov	r3, r0
}
 800414e:	4618      	mov	r0, r3
 8004150:	3708      	adds	r7, #8
 8004152:	46bd      	mov	sp, r7
 8004154:	bd80      	pop	{r7, pc}
	...

08004158 <HAL_DMA_Init>:
  * @param  hdma Pointer to a DMA_HandleTypeDef structure that contains
  *               the configuration information for the specified DMA Stream.  
  * @retval HAL status
  */
HAL_StatusTypeDef HAL_DMA_Init(DMA_HandleTypeDef *hdma)
{
 8004158:	b580      	push	{r7, lr}
 800415a:	b086      	sub	sp, #24
 800415c:	af00      	add	r7, sp, #0
 800415e:	6078      	str	r0, [r7, #4]
  uint32_t tmp = 0U;
 8004160:	2300      	movs	r3, #0
 8004162:	617b      	str	r3, [r7, #20]
  uint32_t tickstart = HAL_GetTick();
 8004164:	f7ff f84e 	bl	8003204 <HAL_GetTick>
 8004168:	6138      	str	r0, [r7, #16]
  DMA_Base_Registers *regs;

  /* Check the DMA peripheral state */
  if(hdma == NULL)
 800416a:	687b      	ldr	r3, [r7, #4]
 800416c:	2b00      	cmp	r3, #0
 800416e:	d101      	bne.n	8004174 <HAL_DMA_Init+0x1c>
  {
    return HAL_ERROR;
 8004170:	2301      	movs	r3, #1
 8004172:	e099      	b.n	80042a8 <HAL_DMA_Init+0x150>
    assert_param(IS_DMA_MEMORY_BURST(hdma->Init.MemBurst));
    assert_param(IS_DMA_PERIPHERAL_BURST(hdma->Init.PeriphBurst));
  }

  /* Change DMA peripheral state */
  hdma->State = HAL_DMA_STATE_BUSY;
 8004174:	687b      	ldr	r3, [r7, #4]
 8004176:	2202      	movs	r2, #2
 8004178:	f883 2035 	strb.w	r2, [r3, #53]	@ 0x35

  /* Allocate lock resource */
  __HAL_UNLOCK(hdma);
 800417c:	687b      	ldr	r3, [r7, #4]
 800417e:	2200      	movs	r2, #0
 8004180:	f883 2034 	strb.w	r2, [r3, #52]	@ 0x34
  
  /* Disable the peripheral */
  __HAL_DMA_DISABLE(hdma);
 8004184:	687b      	ldr	r3, [r7, #4]
 8004186:	681b      	ldr	r3, [r3, #0]
 8004188:	681a      	ldr	r2, [r3, #0]
 800418a:	687b      	ldr	r3, [r7, #4]
 800418c:	681b      	ldr	r3, [r3, #0]
 800418e:	f022 0201 	bic.w	r2, r2, #1
 8004192:	601a      	str	r2, [r3, #0]
  
  /* Check if the DMA Stream is effectively disabled */
  while((hdma->Instance->CR & DMA_SxCR_EN) != RESET)
 8004194:	e00f      	b.n	80041b6 <HAL_DMA_Init+0x5e>
  {
    /* Check for the Timeout */
    if((HAL_GetTick() - tickstart ) > HAL_TIMEOUT_DMA_ABORT)
 8004196:	f7ff f835 	bl	8003204 <HAL_GetTick>
 800419a:	4602      	mov	r2, r0
 800419c:	693b      	ldr	r3, [r7, #16]
 800419e:	1ad3      	subs	r3, r2, r3
 80041a0:	2b05      	cmp	r3, #5
 80041a2:	d908      	bls.n	80041b6 <HAL_DMA_Init+0x5e>
    {
      /* Update error code */
      hdma->ErrorCode = HAL_DMA_ERROR_TIMEOUT;
 80041a4:	687b      	ldr	r3, [r7, #4]
 80041a6:	2220      	movs	r2, #32
 80041a8:	655a      	str	r2, [r3, #84]	@ 0x54
      
      /* Change the DMA state */
      hdma->State = HAL_DMA_STATE_TIMEOUT;
 80041aa:	687b      	ldr	r3, [r7, #4]
 80041ac:	2203      	movs	r2, #3
 80041ae:	f883 2035 	strb.w	r2, [r3, #53]	@ 0x35
      
      return HAL_TIMEOUT;
 80041b2:	2303      	movs	r3, #3
 80041b4:	e078      	b.n	80042a8 <HAL_DMA_Init+0x150>
  while((hdma->Instance->CR & DMA_SxCR_EN) != RESET)
 80041b6:	687b      	ldr	r3, [r7, #4]
 80041b8:	681b      	ldr	r3, [r3, #0]
 80041ba:	681b      	ldr	r3, [r3, #0]
 80041bc:	f003 0301 	and.w	r3, r3, #1
 80041c0:	2b00      	cmp	r3, #0
 80041c2:	d1e8      	bne.n	8004196 <HAL_DMA_Init+0x3e>
    }
  }
  
  /* Get the CR register value */
  tmp = hdma->Instance->CR;
 80041c4:	687b      	ldr	r3, [r7, #4]
 80041c6:	681b      	ldr	r3, [r3, #0]
 80041c8:	681b      	ldr	r3, [r3, #0]
 80041ca:	617b      	str	r3, [r7, #20]

  /* Clear CHSEL, MBURST, PBURST, PL, MSIZE, PSIZE, MINC, PINC, CIRC, DIR, CT and DBM bits */
  tmp &= ((uint32_t)~(DMA_SxCR_CHSEL | DMA_SxCR_MBURST | DMA_SxCR_PBURST | \
 80041cc:	697a      	ldr	r2, [r7, #20]
 80041ce:	4b38      	ldr	r3, [pc, #224]	@ (80042b0 <HAL_DMA_Init+0x158>)
 80041d0:	4013      	ands	r3, r2
 80041d2:	617b      	str	r3, [r7, #20]
                      DMA_SxCR_PL    | DMA_SxCR_MSIZE  | DMA_SxCR_PSIZE  | \
                      DMA_SxCR_MINC  | DMA_SxCR_PINC   | DMA_SxCR_CIRC   | \
                      DMA_SxCR_DIR   | DMA_SxCR_CT     | DMA_SxCR_DBM));

  /* Prepare the DMA Stream configuration */
  tmp |=  hdma->Init.Channel             | hdma->Init.Direction        |
 80041d4:	687b      	ldr	r3, [r7, #4]
 80041d6:	685a      	ldr	r2, [r3, #4]
 80041d8:	687b      	ldr	r3, [r7, #4]
 80041da:	689b      	ldr	r3, [r3, #8]
 80041dc:	431a      	orrs	r2, r3
          hdma->Init.PeriphInc           | hdma->Init.MemInc           |
 80041de:	687b      	ldr	r3, [r7, #4]
 80041e0:	68db      	ldr	r3, [r3, #12]
  tmp |=  hdma->Init.Channel             | hdma->Init.Direction        |
 80041e2:	431a      	orrs	r2, r3
          hdma->Init.PeriphInc           | hdma->Init.MemInc           |
 80041e4:	687b      	ldr	r3, [r7, #4]
 80041e6:	691b      	ldr	r3, [r3, #16]
 80041e8:	431a      	orrs	r2, r3
          hdma->Init.PeriphDataAlignment | hdma->Init.MemDataAlignment |
 80041ea:	687b      	ldr	r3, [r7, #4]
 80041ec:	695b      	ldr	r3, [r3, #20]
          hdma->Init.PeriphInc           | hdma->Init.MemInc           |
 80041ee:	431a      	orrs	r2, r3
          hdma->Init.PeriphDataAlignment | hdma->Init.MemDataAlignment |
 80041f0:	687b      	ldr	r3, [r7, #4]
 80041f2:	699b      	ldr	r3, [r3, #24]
 80041f4:	431a      	orrs	r2, r3
          hdma->Init.Mode                | hdma->Init.Priority;
 80041f6:	687b      	ldr	r3, [r7, #4]
 80041f8:	69db      	ldr	r3, [r3, #28]
          hdma->Init.PeriphDataAlignment | hdma->Init.MemDataAlignment |
 80041fa:	431a      	orrs	r2, r3
          hdma->Init.Mode                | hdma->Init.Priority;
 80041fc:	687b      	ldr	r3, [r7, #4]
 80041fe:	6a1b      	ldr	r3, [r3, #32]
 8004200:	4313      	orrs	r3, r2
  tmp |=  hdma->Init.Channel             | hdma->Init.Direction        |
 8004202:	697a      	ldr	r2, [r7, #20]
 8004204:	4313      	orrs	r3, r2
 8004206:	617b      	str	r3, [r7, #20]

  /* the Memory burst and peripheral burst are not used when the FIFO is disabled */
  if(hdma->Init.FIFOMode == DMA_FIFOMODE_ENABLE)
 8004208:	687b      	ldr	r3, [r7, #4]
 800420a:	6a5b      	ldr	r3, [r3, #36]	@ 0x24
 800420c:	2b04      	cmp	r3, #4
 800420e:	d107      	bne.n	8004220 <HAL_DMA_Init+0xc8>
  {
    /* Get memory burst and peripheral burst */
    tmp |=  hdma->Init.MemBurst | hdma->Init.PeriphBurst;
 8004210:	687b      	ldr	r3, [r7, #4]
 8004212:	6ada      	ldr	r2, [r3, #44]	@ 0x2c
 8004214:	687b      	ldr	r3, [r7, #4]
 8004216:	6b1b      	ldr	r3, [r3, #48]	@ 0x30
 8004218:	4313      	orrs	r3, r2
 800421a:	697a      	ldr	r2, [r7, #20]
 800421c:	4313      	orrs	r3, r2
 800421e:	617b      	str	r3, [r7, #20]
  }
  
  /* Write to DMA Stream CR register */
  hdma->Instance->CR = tmp;  
 8004220:	687b      	ldr	r3, [r7, #4]
 8004222:	681b      	ldr	r3, [r3, #0]
 8004224:	697a      	ldr	r2, [r7, #20]
 8004226:	601a      	str	r2, [r3, #0]

  /* Get the FCR register value */
  tmp = hdma->Instance->FCR;
 8004228:	687b      	ldr	r3, [r7, #4]
 800422a:	681b      	ldr	r3, [r3, #0]
 800422c:	695b      	ldr	r3, [r3, #20]
 800422e:	617b      	str	r3, [r7, #20]

  /* Clear Direct mode and FIFO threshold bits */
  tmp &= (uint32_t)~(DMA_SxFCR_DMDIS | DMA_SxFCR_FTH);
 8004230:	697b      	ldr	r3, [r7, #20]
 8004232:	f023 0307 	bic.w	r3, r3, #7
 8004236:	617b      	str	r3, [r7, #20]

  /* Prepare the DMA Stream FIFO configuration */
  tmp |= hdma->Init.FIFOMode;
 8004238:	687b      	ldr	r3, [r7, #4]
 800423a:	6a5b      	ldr	r3, [r3, #36]	@ 0x24
 800423c:	697a      	ldr	r2, [r7, #20]
 800423e:	4313      	orrs	r3, r2
 8004240:	617b      	str	r3, [r7, #20]

  /* The FIFO threshold is not used when the FIFO mode is disabled */
  if(hdma->Init.FIFOMode == DMA_FIFOMODE_ENABLE)
 8004242:	687b      	ldr	r3, [r7, #4]
 8004244:	6a5b      	ldr	r3, [r3, #36]	@ 0x24
 8004246:	2b04      	cmp	r3, #4
 8004248:	d117      	bne.n	800427a <HAL_DMA_Init+0x122>
  {
    /* Get the FIFO threshold */
    tmp |= hdma->Init.FIFOThreshold;
 800424a:	687b      	ldr	r3, [r7, #4]
 800424c:	6a9b      	ldr	r3, [r3, #40]	@ 0x28
 800424e:	697a      	ldr	r2, [r7, #20]
 8004250:	4313      	orrs	r3, r2
 8004252:	617b      	str	r3, [r7, #20]
    
    /* Check compatibility between FIFO threshold level and size of the memory burst */
    /* for INCR4, INCR8, INCR16 bursts */
    if (hdma->Init.MemBurst != DMA_MBURST_SINGLE)
 8004254:	687b      	ldr	r3, [r7, #4]
 8004256:	6adb      	ldr	r3, [r3, #44]	@ 0x2c
 8004258:	2b00      	cmp	r3, #0
 800425a:	d00e      	beq.n	800427a <HAL_DMA_Init+0x122>
    {
      if (DMA_CheckFifoParam(hdma) != HAL_OK)
 800425c:	6878      	ldr	r0, [r7, #4]
 800425e:	f000 fb01 	bl	8004864 <DMA_CheckFifoParam>
 8004262:	4603      	mov	r3, r0
 8004264:	2b00      	cmp	r3, #0
 8004266:	d008      	beq.n	800427a <HAL_DMA_Init+0x122>
      {
        /* Update error code */
        hdma->ErrorCode = HAL_DMA_ERROR_PARAM;
 8004268:	687b      	ldr	r3, [r7, #4]
 800426a:	2240      	movs	r2, #64	@ 0x40
 800426c:	655a      	str	r2, [r3, #84]	@ 0x54
        
        /* Change the DMA state */
        hdma->State = HAL_DMA_STATE_READY;
 800426e:	687b      	ldr	r3, [r7, #4]
 8004270:	2201      	movs	r2, #1
 8004272:	f883 2035 	strb.w	r2, [r3, #53]	@ 0x35
        
        return HAL_ERROR; 
 8004276:	2301      	movs	r3, #1
 8004278:	e016      	b.n	80042a8 <HAL_DMA_Init+0x150>
      }
    }
  }
  
  /* Write to DMA Stream FCR */
  hdma->Instance->FCR = tmp;
 800427a:	687b      	ldr	r3, [r7, #4]
 800427c:	681b      	ldr	r3, [r3, #0]
 800427e:	697a      	ldr	r2, [r7, #20]
 8004280:	615a      	str	r2, [r3, #20]

  /* Initialize StreamBaseAddress and StreamIndex parameters to be used to calculate
     DMA steam Base Address needed by HAL_DMA_IRQHandler() and HAL_DMA_PollForTransfer() */
  regs = (DMA_Base_Registers *)DMA_CalcBaseAndBitshift(hdma);
 8004282:	6878      	ldr	r0, [r7, #4]
 8004284:	f000 fab8 	bl	80047f8 <DMA_CalcBaseAndBitshift>
 8004288:	4603      	mov	r3, r0
 800428a:	60fb      	str	r3, [r7, #12]
  
  /* Clear all interrupt flags */
  regs->IFCR = 0x3FU << hdma->StreamIndex;
 800428c:	687b      	ldr	r3, [r7, #4]
 800428e:	6ddb      	ldr	r3, [r3, #92]	@ 0x5c
 8004290:	223f      	movs	r2, #63	@ 0x3f
 8004292:	409a      	lsls	r2, r3
 8004294:	68fb      	ldr	r3, [r7, #12]
 8004296:	609a      	str	r2, [r3, #8]

  /* Initialize the error code */
  hdma->ErrorCode = HAL_DMA_ERROR_NONE;
 8004298:	687b      	ldr	r3, [r7, #4]
 800429a:	2200      	movs	r2, #0
 800429c:	655a      	str	r2, [r3, #84]	@ 0x54
                                                                                     
  /* Initialize the DMA state */
  hdma->State = HAL_DMA_STATE_READY;
 800429e:	687b      	ldr	r3, [r7, #4]
 80042a0:	2201      	movs	r2, #1
 80042a2:	f883 2035 	strb.w	r2, [r3, #53]	@ 0x35

  return HAL_OK;
 80042a6:	2300      	movs	r3, #0
}
 80042a8:	4618      	mov	r0, r3
 80042aa:	3718      	adds	r7, #24
 80042ac:	46bd      	mov	sp, r7
 80042ae:	bd80      	pop	{r7, pc}
 80042b0:	f010803f 	.word	0xf010803f

080042b4 <HAL_DMA_Start_IT>:
  * @param  DstAddress The destination memory Buffer address
  * @param  DataLength The length of data to be transferred from source to destination
  * @retval HAL status
  */
HAL_StatusTypeDef HAL_DMA_Start_IT(DMA_HandleTypeDef *hdma, uint32_t SrcAddress, uint32_t DstAddress, uint32_t DataLength)
{
 80042b4:	b580      	push	{r7, lr}
 80042b6:	b086      	sub	sp, #24
 80042b8:	af00      	add	r7, sp, #0
 80042ba:	60f8      	str	r0, [r7, #12]
 80042bc:	60b9      	str	r1, [r7, #8]
 80042be:	607a      	str	r2, [r7, #4]
 80042c0:	603b      	str	r3, [r7, #0]
  HAL_StatusTypeDef status = HAL_OK;
 80042c2:	2300      	movs	r3, #0
 80042c4:	75fb      	strb	r3, [r7, #23]

  /* calculate DMA base and stream number */
  DMA_Base_Registers *regs = (DMA_Base_Registers *)hdma->StreamBaseAddress;
 80042c6:	68fb      	ldr	r3, [r7, #12]
 80042c8:	6d9b      	ldr	r3, [r3, #88]	@ 0x58
 80042ca:	613b      	str	r3, [r7, #16]
  
  /* Check the parameters */
  assert_param(IS_DMA_BUFFER_SIZE(DataLength));
 
  /* Process locked */
  __HAL_LOCK(hdma);
 80042cc:	68fb      	ldr	r3, [r7, #12]
 80042ce:	f893 3034 	ldrb.w	r3, [r3, #52]	@ 0x34
 80042d2:	2b01      	cmp	r3, #1
 80042d4:	d101      	bne.n	80042da <HAL_DMA_Start_IT+0x26>
 80042d6:	2302      	movs	r3, #2
 80042d8:	e040      	b.n	800435c <HAL_DMA_Start_IT+0xa8>
 80042da:	68fb      	ldr	r3, [r7, #12]
 80042dc:	2201      	movs	r2, #1
 80042de:	f883 2034 	strb.w	r2, [r3, #52]	@ 0x34
  
  if(HAL_DMA_STATE_READY == hdma->State)
 80042e2:	68fb      	ldr	r3, [r7, #12]
 80042e4:	f893 3035 	ldrb.w	r3, [r3, #53]	@ 0x35
 80042e8:	b2db      	uxtb	r3, r3
 80042ea:	2b01      	cmp	r3, #1
 80042ec:	d12f      	bne.n	800434e <HAL_DMA_Start_IT+0x9a>
  {
    /* Change DMA peripheral state */
    hdma->State = HAL_DMA_STATE_BUSY;
 80042ee:	68fb      	ldr	r3, [r7, #12]
 80042f0:	2202      	movs	r2, #2
 80042f2:	f883 2035 	strb.w	r2, [r3, #53]	@ 0x35
    
    /* Initialize the error code */
    hdma->ErrorCode = HAL_DMA_ERROR_NONE;
 80042f6:	68fb      	ldr	r3, [r7, #12]
 80042f8:	2200      	movs	r2, #0
 80042fa:	655a      	str	r2, [r3, #84]	@ 0x54
    
    /* Configure the source, destination address and the data length */
    DMA_SetConfig(hdma, SrcAddress, DstAddress, DataLength);
 80042fc:	683b      	ldr	r3, [r7, #0]
 80042fe:	687a      	ldr	r2, [r7, #4]
 8004300:	68b9      	ldr	r1, [r7, #8]
 8004302:	68f8      	ldr	r0, [r7, #12]
 8004304:	f000 fa4a 	bl	800479c <DMA_SetConfig>
    
    /* Clear all interrupt flags at correct offset within the register */
    regs->IFCR = 0x3FU << hdma->StreamIndex;
 8004308:	68fb      	ldr	r3, [r7, #12]
 800430a:	6ddb      	ldr	r3, [r3, #92]	@ 0x5c
 800430c:	223f      	movs	r2, #63	@ 0x3f
 800430e:	409a      	lsls	r2, r3
 8004310:	693b      	ldr	r3, [r7, #16]
 8004312:	609a      	str	r2, [r3, #8]
    
    /* Enable Common interrupts*/
    hdma->Instance->CR  |= DMA_IT_TC | DMA_IT_TE | DMA_IT_DME;
 8004314:	68fb      	ldr	r3, [r7, #12]
 8004316:	681b      	ldr	r3, [r3, #0]
 8004318:	681a      	ldr	r2, [r3, #0]
 800431a:	68fb      	ldr	r3, [r7, #12]
 800431c:	681b      	ldr	r3, [r3, #0]
 800431e:	f042 0216 	orr.w	r2, r2, #22
 8004322:	601a      	str	r2, [r3, #0]
    
    if(hdma->XferHalfCpltCallback != NULL)
 8004324:	68fb      	ldr	r3, [r7, #12]
 8004326:	6c1b      	ldr	r3, [r3, #64]	@ 0x40
 8004328:	2b00      	cmp	r3, #0
 800432a:	d007      	beq.n	800433c <HAL_DMA_Start_IT+0x88>
    {
      hdma->Instance->CR  |= DMA_IT_HT;
 800432c:	68fb      	ldr	r3, [r7, #12]
 800432e:	681b      	ldr	r3, [r3, #0]
 8004330:	681a      	ldr	r2, [r3, #0]
 8004332:	68fb      	ldr	r3, [r7, #12]
 8004334:	681b      	ldr	r3, [r3, #0]
 8004336:	f042 0208 	orr.w	r2, r2, #8
 800433a:	601a      	str	r2, [r3, #0]
    }
    
    /* Enable the Peripheral */
    __HAL_DMA_ENABLE(hdma);
 800433c:	68fb      	ldr	r3, [r7, #12]
 800433e:	681b      	ldr	r3, [r3, #0]
 8004340:	681a      	ldr	r2, [r3, #0]
 8004342:	68fb      	ldr	r3, [r7, #12]
 8004344:	681b      	ldr	r3, [r3, #0]
 8004346:	f042 0201 	orr.w	r2, r2, #1
 800434a:	601a      	str	r2, [r3, #0]
 800434c:	e005      	b.n	800435a <HAL_DMA_Start_IT+0xa6>
  }
  else
  {
    /* Process unlocked */
    __HAL_UNLOCK(hdma);	  
 800434e:	68fb      	ldr	r3, [r7, #12]
 8004350:	2200      	movs	r2, #0
 8004352:	f883 2034 	strb.w	r2, [r3, #52]	@ 0x34
    
    /* Return error status */
    status = HAL_BUSY;
 8004356:	2302      	movs	r3, #2
 8004358:	75fb      	strb	r3, [r7, #23]
  }
  
  return status;
 800435a:	7dfb      	ldrb	r3, [r7, #23]
}
 800435c:	4618      	mov	r0, r3
 800435e:	3718      	adds	r7, #24
 8004360:	46bd      	mov	sp, r7
 8004362:	bd80      	pop	{r7, pc}

08004364 <HAL_DMA_Abort>:
  *        and the Stream will be effectively disabled only after the transfer of
  *        this single data is finished.  
  * @retval HAL status
  */
HAL_StatusTypeDef HAL_DMA_Abort(DMA_HandleTypeDef *hdma)
{
 8004364:	b580      	push	{r7, lr}
 8004366:	b084      	sub	sp, #16
 8004368:	af00      	add	r7, sp, #0
 800436a:	6078      	str	r0, [r7, #4]
  /* calculate DMA base and stream number */
  DMA_Base_Registers *regs = (DMA_Base_Registers *)hdma->StreamBaseAddress;
 800436c:	687b      	ldr	r3, [r7, #4]
 800436e:	6d9b      	ldr	r3, [r3, #88]	@ 0x58
 8004370:	60fb      	str	r3, [r7, #12]
  
  uint32_t tickstart = HAL_GetTick();
 8004372:	f7fe ff47 	bl	8003204 <HAL_GetTick>
 8004376:	60b8      	str	r0, [r7, #8]
  
  if(hdma->State != HAL_DMA_STATE_BUSY)
 8004378:	687b      	ldr	r3, [r7, #4]
 800437a:	f893 3035 	ldrb.w	r3, [r3, #53]	@ 0x35
 800437e:	b2db      	uxtb	r3, r3
 8004380:	2b02      	cmp	r3, #2
 8004382:	d008      	beq.n	8004396 <HAL_DMA_Abort+0x32>
  {
    hdma->ErrorCode = HAL_DMA_ERROR_NO_XFER;
 8004384:	687b      	ldr	r3, [r7, #4]
 8004386:	2280      	movs	r2, #128	@ 0x80
 8004388:	655a      	str	r2, [r3, #84]	@ 0x54
    
    /* Process Unlocked */
    __HAL_UNLOCK(hdma);
 800438a:	687b      	ldr	r3, [r7, #4]
 800438c:	2200      	movs	r2, #0
 800438e:	f883 2034 	strb.w	r2, [r3, #52]	@ 0x34
    
    return HAL_ERROR;
 8004392:	2301      	movs	r3, #1
 8004394:	e052      	b.n	800443c <HAL_DMA_Abort+0xd8>
  }
  else
  {
    /* Disable all the transfer interrupts */
    hdma->Instance->CR  &= ~(DMA_IT_TC | DMA_IT_TE | DMA_IT_DME);
 8004396:	687b      	ldr	r3, [r7, #4]
 8004398:	681b      	ldr	r3, [r3, #0]
 800439a:	681a      	ldr	r2, [r3, #0]
 800439c:	687b      	ldr	r3, [r7, #4]
 800439e:	681b      	ldr	r3, [r3, #0]
 80043a0:	f022 0216 	bic.w	r2, r2, #22
 80043a4:	601a      	str	r2, [r3, #0]
    hdma->Instance->FCR &= ~(DMA_IT_FE);
 80043a6:	687b      	ldr	r3, [r7, #4]
 80043a8:	681b      	ldr	r3, [r3, #0]
 80043aa:	695a      	ldr	r2, [r3, #20]
 80043ac:	687b      	ldr	r3, [r7, #4]
 80043ae:	681b      	ldr	r3, [r3, #0]
 80043b0:	f022 0280 	bic.w	r2, r2, #128	@ 0x80
 80043b4:	615a      	str	r2, [r3, #20]
    
    if((hdma->XferHalfCpltCallback != NULL) || (hdma->XferM1HalfCpltCallback != NULL))
 80043b6:	687b      	ldr	r3, [r7, #4]
 80043b8:	6c1b      	ldr	r3, [r3, #64]	@ 0x40
 80043ba:	2b00      	cmp	r3, #0
 80043bc:	d103      	bne.n	80043c6 <HAL_DMA_Abort+0x62>
 80043be:	687b      	ldr	r3, [r7, #4]
 80043c0:	6c9b      	ldr	r3, [r3, #72]	@ 0x48
 80043c2:	2b00      	cmp	r3, #0
 80043c4:	d007      	beq.n	80043d6 <HAL_DMA_Abort+0x72>
    {
      hdma->Instance->CR  &= ~(DMA_IT_HT);
 80043c6:	687b      	ldr	r3, [r7, #4]
 80043c8:	681b      	ldr	r3, [r3, #0]
 80043ca:	681a      	ldr	r2, [r3, #0]
 80043cc:	687b      	ldr	r3, [r7, #4]
 80043ce:	681b      	ldr	r3, [r3, #0]
 80043d0:	f022 0208 	bic.w	r2, r2, #8
 80043d4:	601a      	str	r2, [r3, #0]
    }
    
    /* Disable the stream */
    __HAL_DMA_DISABLE(hdma);
 80043d6:	687b      	ldr	r3, [r7, #4]
 80043d8:	681b      	ldr	r3, [r3, #0]
 80043da:	681a      	ldr	r2, [r3, #0]
 80043dc:	687b      	ldr	r3, [r7, #4]
 80043de:	681b      	ldr	r3, [r3, #0]
 80043e0:	f022 0201 	bic.w	r2, r2, #1
 80043e4:	601a      	str	r2, [r3, #0]
    
    /* Check if the DMA Stream is effectively disabled */
    while((hdma->Instance->CR & DMA_SxCR_EN) != RESET)
 80043e6:	e013      	b.n	8004410 <HAL_DMA_Abort+0xac>
    {
      /* Check for the Timeout */
      if((HAL_GetTick() - tickstart ) > HAL_TIMEOUT_DMA_ABORT)
 80043e8:	f7fe ff0c 	bl	8003204 <HAL_GetTick>
 80043ec:	4602      	mov	r2, r0
 80043ee:	68bb      	ldr	r3, [r7, #8]
 80043f0:	1ad3      	subs	r3, r2, r3
 80043f2:	2b05      	cmp	r3, #5
 80043f4:	d90c      	bls.n	8004410 <HAL_DMA_Abort+0xac>
      {
        /* Update error code */
        hdma->ErrorCode = HAL_DMA_ERROR_TIMEOUT;
 80043f6:	687b      	ldr	r3, [r7, #4]
 80043f8:	2220      	movs	r2, #32
 80043fa:	655a      	str	r2, [r3, #84]	@ 0x54
        
        /* Change the DMA state */
        hdma->State = HAL_DMA_STATE_TIMEOUT;
 80043fc:	687b      	ldr	r3, [r7, #4]
 80043fe:	2203      	movs	r2, #3
 8004400:	f883 2035 	strb.w	r2, [r3, #53]	@ 0x35
        
        /* Process Unlocked */
        __HAL_UNLOCK(hdma);
 8004404:	687b      	ldr	r3, [r7, #4]
 8004406:	2200      	movs	r2, #0
 8004408:	f883 2034 	strb.w	r2, [r3, #52]	@ 0x34
        
        return HAL_TIMEOUT;
 800440c:	2303      	movs	r3, #3
 800440e:	e015      	b.n	800443c <HAL_DMA_Abort+0xd8>
    while((hdma->Instance->CR & DMA_SxCR_EN) != RESET)
 8004410:	687b      	ldr	r3, [r7, #4]
 8004412:	681b      	ldr	r3, [r3, #0]
 8004414:	681b      	ldr	r3, [r3, #0]
 8004416:	f003 0301 	and.w	r3, r3, #1
 800441a:	2b00      	cmp	r3, #0
 800441c:	d1e4      	bne.n	80043e8 <HAL_DMA_Abort+0x84>
      }
    }
    
    /* Clear all interrupt flags at correct offset within the register */
    regs->IFCR = 0x3FU << hdma->StreamIndex;
 800441e:	687b      	ldr	r3, [r7, #4]
 8004420:	6ddb      	ldr	r3, [r3, #92]	@ 0x5c
 8004422:	223f      	movs	r2, #63	@ 0x3f
 8004424:	409a      	lsls	r2, r3
 8004426:	68fb      	ldr	r3, [r7, #12]
 8004428:	609a      	str	r2, [r3, #8]
    
    /* Change the DMA state*/
    hdma->State = HAL_DMA_STATE_READY;
 800442a:	687b      	ldr	r3, [r7, #4]
 800442c:	2201      	movs	r2, #1
 800442e:	f883 2035 	strb.w	r2, [r3, #53]	@ 0x35
    
    /* Process Unlocked */
    __HAL_UNLOCK(hdma);
 8004432:	687b      	ldr	r3, [r7, #4]
 8004434:	2200      	movs	r2, #0
 8004436:	f883 2034 	strb.w	r2, [r3, #52]	@ 0x34
  }
  return HAL_OK;
 800443a:	2300      	movs	r3, #0
}
 800443c:	4618      	mov	r0, r3
 800443e:	3710      	adds	r7, #16
 8004440:	46bd      	mov	sp, r7
 8004442:	bd80      	pop	{r7, pc}

08004444 <HAL_DMA_Abort_IT>:
  * @param  hdma   pointer to a DMA_HandleTypeDef structure that contains
  *                 the configuration information for the specified DMA Stream.
  * @retval HAL status
  */
HAL_StatusTypeDef HAL_DMA_Abort_IT(DMA_HandleTypeDef *hdma)
{
 8004444:	b480      	push	{r7}
 8004446:	b083      	sub	sp, #12
 8004448:	af00      	add	r7, sp, #0
 800444a:	6078      	str	r0, [r7, #4]
  if(hdma->State != HAL_DMA_STATE_BUSY)
 800444c:	687b      	ldr	r3, [r7, #4]
 800444e:	f893 3035 	ldrb.w	r3, [r3, #53]	@ 0x35
 8004452:	b2db      	uxtb	r3, r3
 8004454:	2b02      	cmp	r3, #2
 8004456:	d004      	beq.n	8004462 <HAL_DMA_Abort_IT+0x1e>
  {
    hdma->ErrorCode = HAL_DMA_ERROR_NO_XFER;
 8004458:	687b      	ldr	r3, [r7, #4]
 800445a:	2280      	movs	r2, #128	@ 0x80
 800445c:	655a      	str	r2, [r3, #84]	@ 0x54
    return HAL_ERROR;
 800445e:	2301      	movs	r3, #1
 8004460:	e00c      	b.n	800447c <HAL_DMA_Abort_IT+0x38>
  }
  else
  {
    /* Set Abort State  */
    hdma->State = HAL_DMA_STATE_ABORT;
 8004462:	687b      	ldr	r3, [r7, #4]
 8004464:	2205      	movs	r2, #5
 8004466:	f883 2035 	strb.w	r2, [r3, #53]	@ 0x35
    
    /* Disable the stream */
    __HAL_DMA_DISABLE(hdma);
 800446a:	687b      	ldr	r3, [r7, #4]
 800446c:	681b      	ldr	r3, [r3, #0]
 800446e:	681a      	ldr	r2, [r3, #0]
 8004470:	687b      	ldr	r3, [r7, #4]
 8004472:	681b      	ldr	r3, [r3, #0]
 8004474:	f022 0201 	bic.w	r2, r2, #1
 8004478:	601a      	str	r2, [r3, #0]
  }

  return HAL_OK;
 800447a:	2300      	movs	r3, #0
}
 800447c:	4618      	mov	r0, r3
 800447e:	370c      	adds	r7, #12
 8004480:	46bd      	mov	sp, r7
 8004482:	f85d 7b04 	ldr.w	r7, [sp], #4
 8004486:	4770      	bx	lr

08004488 <HAL_DMA_IRQHandler>:
  * @param  hdma pointer to a DMA_HandleTypeDef structure that contains
  *               the configuration information for the specified DMA Stream.  
  * @retval None
  */
void HAL_DMA_IRQHandler(DMA_HandleTypeDef *hdma)
{
 8004488:	b580      	push	{r7, lr}
 800448a:	b086      	sub	sp, #24
 800448c:	af00      	add	r7, sp, #0
 800448e:	6078      	str	r0, [r7, #4]
  uint32_t tmpisr;
  __IO uint32_t count = 0U;
 8004490:	2300      	movs	r3, #0
 8004492:	60bb      	str	r3, [r7, #8]
  uint32_t timeout = SystemCoreClock / 9600U;
 8004494:	4b8e      	ldr	r3, [pc, #568]	@ (80046d0 <HAL_DMA_IRQHandler+0x248>)
 8004496:	681b      	ldr	r3, [r3, #0]
 8004498:	4a8e      	ldr	r2, [pc, #568]	@ (80046d4 <HAL_DMA_IRQHandler+0x24c>)
 800449a:	fba2 2303 	umull	r2, r3, r2, r3
 800449e:	0a9b      	lsrs	r3, r3, #10
 80044a0:	617b      	str	r3, [r7, #20]

  /* calculate DMA base and stream number */
  DMA_Base_Registers *regs = (DMA_Base_Registers *)hdma->StreamBaseAddress;
 80044a2:	687b      	ldr	r3, [r7, #4]
 80044a4:	6d9b      	ldr	r3, [r3, #88]	@ 0x58
 80044a6:	613b      	str	r3, [r7, #16]

  tmpisr = regs->ISR;
 80044a8:	693b      	ldr	r3, [r7, #16]
 80044aa:	681b      	ldr	r3, [r3, #0]
 80044ac:	60fb      	str	r3, [r7, #12]

  /* Transfer Error Interrupt management ***************************************/
  if ((tmpisr & (DMA_FLAG_TEIF0_4 << hdma->StreamIndex)) != RESET)
 80044ae:	687b      	ldr	r3, [r7, #4]
 80044b0:	6ddb      	ldr	r3, [r3, #92]	@ 0x5c
 80044b2:	2208      	movs	r2, #8
 80044b4:	409a      	lsls	r2, r3
 80044b6:	68fb      	ldr	r3, [r7, #12]
 80044b8:	4013      	ands	r3, r2
 80044ba:	2b00      	cmp	r3, #0
 80044bc:	d01a      	beq.n	80044f4 <HAL_DMA_IRQHandler+0x6c>
  {
    if(__HAL_DMA_GET_IT_SOURCE(hdma, DMA_IT_TE) != RESET)
 80044be:	687b      	ldr	r3, [r7, #4]
 80044c0:	681b      	ldr	r3, [r3, #0]
 80044c2:	681b      	ldr	r3, [r3, #0]
 80044c4:	f003 0304 	and.w	r3, r3, #4
 80044c8:	2b00      	cmp	r3, #0
 80044ca:	d013      	beq.n	80044f4 <HAL_DMA_IRQHandler+0x6c>
    {
      /* Disable the transfer error interrupt */
      hdma->Instance->CR  &= ~(DMA_IT_TE);
 80044cc:	687b      	ldr	r3, [r7, #4]
 80044ce:	681b      	ldr	r3, [r3, #0]
 80044d0:	681a      	ldr	r2, [r3, #0]
 80044d2:	687b      	ldr	r3, [r7, #4]
 80044d4:	681b      	ldr	r3, [r3, #0]
 80044d6:	f022 0204 	bic.w	r2, r2, #4
 80044da:	601a      	str	r2, [r3, #0]
      
      /* Clear the transfer error flag */
      regs->IFCR = DMA_FLAG_TEIF0_4 << hdma->StreamIndex;
 80044dc:	687b      	ldr	r3, [r7, #4]
 80044de:	6ddb      	ldr	r3, [r3, #92]	@ 0x5c
 80044e0:	2208      	movs	r2, #8
 80044e2:	409a      	lsls	r2, r3
 80044e4:	693b      	ldr	r3, [r7, #16]
 80044e6:	609a      	str	r2, [r3, #8]
      
      /* Update error code */
      hdma->ErrorCode |= HAL_DMA_ERROR_TE;
 80044e8:	687b      	ldr	r3, [r7, #4]
 80044ea:	6d5b      	ldr	r3, [r3, #84]	@ 0x54
 80044ec:	f043 0201 	orr.w	r2, r3, #1
 80044f0:	687b      	ldr	r3, [r7, #4]
 80044f2:	655a      	str	r2, [r3, #84]	@ 0x54
    }
  }
  /* FIFO Error Interrupt management ******************************************/
  if ((tmpisr & (DMA_FLAG_FEIF0_4 << hdma->StreamIndex)) != RESET)
 80044f4:	687b      	ldr	r3, [r7, #4]
 80044f6:	6ddb      	ldr	r3, [r3, #92]	@ 0x5c
 80044f8:	2201      	movs	r2, #1
 80044fa:	409a      	lsls	r2, r3
 80044fc:	68fb      	ldr	r3, [r7, #12]
 80044fe:	4013      	ands	r3, r2
 8004500:	2b00      	cmp	r3, #0
 8004502:	d012      	beq.n	800452a <HAL_DMA_IRQHandler+0xa2>
  {
    if(__HAL_DMA_GET_IT_SOURCE(hdma, DMA_IT_FE) != RESET)
 8004504:	687b      	ldr	r3, [r7, #4]
 8004506:	681b      	ldr	r3, [r3, #0]
 8004508:	695b      	ldr	r3, [r3, #20]
 800450a:	f003 0380 	and.w	r3, r3, #128	@ 0x80
 800450e:	2b00      	cmp	r3, #0
 8004510:	d00b      	beq.n	800452a <HAL_DMA_IRQHandler+0xa2>
    {
      /* Clear the FIFO error flag */
      regs->IFCR = DMA_FLAG_FEIF0_4 << hdma->StreamIndex;
 8004512:	687b      	ldr	r3, [r7, #4]
 8004514:	6ddb      	ldr	r3, [r3, #92]	@ 0x5c
 8004516:	2201      	movs	r2, #1
 8004518:	409a      	lsls	r2, r3
 800451a:	693b      	ldr	r3, [r7, #16]
 800451c:	609a      	str	r2, [r3, #8]

      /* Update error code */
      hdma->ErrorCode |= HAL_DMA_ERROR_FE;
 800451e:	687b      	ldr	r3, [r7, #4]
 8004520:	6d5b      	ldr	r3, [r3, #84]	@ 0x54
 8004522:	f043 0202 	orr.w	r2, r3, #2
 8004526:	687b      	ldr	r3, [r7, #4]
 8004528:	655a      	str	r2, [r3, #84]	@ 0x54
    }
  }
  /* Direct Mode Error Interrupt management ***********************************/
  if ((tmpisr & (DMA_FLAG_DMEIF0_4 << hdma->StreamIndex)) != RESET)
 800452a:	687b      	ldr	r3, [r7, #4]
 800452c:	6ddb      	ldr	r3, [r3, #92]	@ 0x5c
 800452e:	2204      	movs	r2, #4
 8004530:	409a      	lsls	r2, r3
 8004532:	68fb      	ldr	r3, [r7, #12]
 8004534:	4013      	ands	r3, r2
 8004536:	2b00      	cmp	r3, #0
 8004538:	d012      	beq.n	8004560 <HAL_DMA_IRQHandler+0xd8>
  {
    if(__HAL_DMA_GET_IT_SOURCE(hdma, DMA_IT_DME) != RESET)
 800453a:	687b      	ldr	r3, [r7, #4]
 800453c:	681b      	ldr	r3, [r3, #0]
 800453e:	681b      	ldr	r3, [r3, #0]
 8004540:	f003 0302 	and.w	r3, r3, #2
 8004544:	2b00      	cmp	r3, #0
 8004546:	d00b      	beq.n	8004560 <HAL_DMA_IRQHandler+0xd8>
    {
      /* Clear the direct mode error flag */
      regs->IFCR = DMA_FLAG_DMEIF0_4 << hdma->StreamIndex;
 8004548:	687b      	ldr	r3, [r7, #4]
 800454a:	6ddb      	ldr	r3, [r3, #92]	@ 0x5c
 800454c:	2204      	movs	r2, #4
 800454e:	409a      	lsls	r2, r3
 8004550:	693b      	ldr	r3, [r7, #16]
 8004552:	609a      	str	r2, [r3, #8]

      /* Update error code */
      hdma->ErrorCode |= HAL_DMA_ERROR_DME;
 8004554:	687b      	ldr	r3, [r7, #4]
 8004556:	6d5b      	ldr	r3, [r3, #84]	@ 0x54
 8004558:	f043 0204 	orr.w	r2, r3, #4
 800455c:	687b      	ldr	r3, [r7, #4]
 800455e:	655a      	str	r2, [r3, #84]	@ 0x54
    }
  }
  /* Half Transfer Complete Interrupt management ******************************/
  if ((tmpisr & (DMA_FLAG_HTIF0_4 << hdma->StreamIndex)) != RESET)
 8004560:	687b      	ldr	r3, [r7, #4]
 8004562:	6ddb      	ldr	r3, [r3, #92]	@ 0x5c
 8004564:	2210      	movs	r2, #16
 8004566:	409a      	lsls	r2, r3
 8004568:	68fb      	ldr	r3, [r7, #12]
 800456a:	4013      	ands	r3, r2
 800456c:	2b00      	cmp	r3, #0
 800456e:	d043      	beq.n	80045f8 <HAL_DMA_IRQHandler+0x170>
  {
    if(__HAL_DMA_GET_IT_SOURCE(hdma, DMA_IT_HT) != RESET)
 8004570:	687b      	ldr	r3, [r7, #4]
 8004572:	681b      	ldr	r3, [r3, #0]
 8004574:	681b      	ldr	r3, [r3, #0]
 8004576:	f003 0308 	and.w	r3, r3, #8
 800457a:	2b00      	cmp	r3, #0
 800457c:	d03c      	beq.n	80045f8 <HAL_DMA_IRQHandler+0x170>
    {
      /* Clear the half transfer complete flag */
      regs->IFCR = DMA_FLAG_HTIF0_4 << hdma->StreamIndex;
 800457e:	687b      	ldr	r3, [r7, #4]
 8004580:	6ddb      	ldr	r3, [r3, #92]	@ 0x5c
 8004582:	2210      	movs	r2, #16
 8004584:	409a      	lsls	r2, r3
 8004586:	693b      	ldr	r3, [r7, #16]
 8004588:	609a      	str	r2, [r3, #8]
      
      /* Multi_Buffering mode enabled */
      if(((hdma->Instance->CR) & (uint32_t)(DMA_SxCR_DBM)) != RESET)
 800458a:	687b      	ldr	r3, [r7, #4]
 800458c:	681b      	ldr	r3, [r3, #0]
 800458e:	681b      	ldr	r3, [r3, #0]
 8004590:	f403 2380 	and.w	r3, r3, #262144	@ 0x40000
 8004594:	2b00      	cmp	r3, #0
 8004596:	d018      	beq.n	80045ca <HAL_DMA_IRQHandler+0x142>
      {
        /* Current memory buffer used is Memory 0 */
        if((hdma->Instance->CR & DMA_SxCR_CT) == RESET)
 8004598:	687b      	ldr	r3, [r7, #4]
 800459a:	681b      	ldr	r3, [r3, #0]
 800459c:	681b      	ldr	r3, [r3, #0]
 800459e:	f403 2300 	and.w	r3, r3, #524288	@ 0x80000
 80045a2:	2b00      	cmp	r3, #0
 80045a4:	d108      	bne.n	80045b8 <HAL_DMA_IRQHandler+0x130>
        {
          if(hdma->XferHalfCpltCallback != NULL)
 80045a6:	687b      	ldr	r3, [r7, #4]
 80045a8:	6c1b      	ldr	r3, [r3, #64]	@ 0x40
 80045aa:	2b00      	cmp	r3, #0
 80045ac:	d024      	beq.n	80045f8 <HAL_DMA_IRQHandler+0x170>
          {
            /* Half transfer callback */
            hdma->XferHalfCpltCallback(hdma);
 80045ae:	687b      	ldr	r3, [r7, #4]
 80045b0:	6c1b      	ldr	r3, [r3, #64]	@ 0x40
 80045b2:	6878      	ldr	r0, [r7, #4]
 80045b4:	4798      	blx	r3
 80045b6:	e01f      	b.n	80045f8 <HAL_DMA_IRQHandler+0x170>
          }
        }
        /* Current memory buffer used is Memory 1 */
        else
        {
          if(hdma->XferM1HalfCpltCallback != NULL)
 80045b8:	687b      	ldr	r3, [r7, #4]
 80045ba:	6c9b      	ldr	r3, [r3, #72]	@ 0x48
 80045bc:	2b00      	cmp	r3, #0
 80045be:	d01b      	beq.n	80045f8 <HAL_DMA_IRQHandler+0x170>
          {
            /* Half transfer callback */
            hdma->XferM1HalfCpltCallback(hdma);
 80045c0:	687b      	ldr	r3, [r7, #4]
 80045c2:	6c9b      	ldr	r3, [r3, #72]	@ 0x48
 80045c4:	6878      	ldr	r0, [r7, #4]
 80045c6:	4798      	blx	r3
 80045c8:	e016      	b.n	80045f8 <HAL_DMA_IRQHandler+0x170>
        }
      }
      else
      {
        /* Disable the half transfer interrupt if the DMA mode is not CIRCULAR */
        if((hdma->Instance->CR & DMA_SxCR_CIRC) == RESET)
 80045ca:	687b      	ldr	r3, [r7, #4]
 80045cc:	681b      	ldr	r3, [r3, #0]
 80045ce:	681b      	ldr	r3, [r3, #0]
 80045d0:	f403 7380 	and.w	r3, r3, #256	@ 0x100
 80045d4:	2b00      	cmp	r3, #0
 80045d6:	d107      	bne.n	80045e8 <HAL_DMA_IRQHandler+0x160>
        {
          /* Disable the half transfer interrupt */
          hdma->Instance->CR  &= ~(DMA_IT_HT);
 80045d8:	687b      	ldr	r3, [r7, #4]
 80045da:	681b      	ldr	r3, [r3, #0]
 80045dc:	681a      	ldr	r2, [r3, #0]
 80045de:	687b      	ldr	r3, [r7, #4]
 80045e0:	681b      	ldr	r3, [r3, #0]
 80045e2:	f022 0208 	bic.w	r2, r2, #8
 80045e6:	601a      	str	r2, [r3, #0]
        }
        
        if(hdma->XferHalfCpltCallback != NULL)
 80045e8:	687b      	ldr	r3, [r7, #4]
 80045ea:	6c1b      	ldr	r3, [r3, #64]	@ 0x40
 80045ec:	2b00      	cmp	r3, #0
 80045ee:	d003      	beq.n	80045f8 <HAL_DMA_IRQHandler+0x170>
        {
          /* Half transfer callback */
          hdma->XferHalfCpltCallback(hdma);
 80045f0:	687b      	ldr	r3, [r7, #4]
 80045f2:	6c1b      	ldr	r3, [r3, #64]	@ 0x40
 80045f4:	6878      	ldr	r0, [r7, #4]
 80045f6:	4798      	blx	r3
        }
      }
    }
  }
  /* Transfer Complete Interrupt management ***********************************/
  if ((tmpisr & (DMA_FLAG_TCIF0_4 << hdma->StreamIndex)) != RESET)
 80045f8:	687b      	ldr	r3, [r7, #4]
 80045fa:	6ddb      	ldr	r3, [r3, #92]	@ 0x5c
 80045fc:	2220      	movs	r2, #32
 80045fe:	409a      	lsls	r2, r3
 8004600:	68fb      	ldr	r3, [r7, #12]
 8004602:	4013      	ands	r3, r2
 8004604:	2b00      	cmp	r3, #0
 8004606:	f000 808f 	beq.w	8004728 <HAL_DMA_IRQHandler+0x2a0>
  {
    if(__HAL_DMA_GET_IT_SOURCE(hdma, DMA_IT_TC) != RESET)
 800460a:	687b      	ldr	r3, [r7, #4]
 800460c:	681b      	ldr	r3, [r3, #0]
 800460e:	681b      	ldr	r3, [r3, #0]
 8004610:	f003 0310 	and.w	r3, r3, #16
 8004614:	2b00      	cmp	r3, #0
 8004616:	f000 8087 	beq.w	8004728 <HAL_DMA_IRQHandler+0x2a0>
    {
      /* Clear the transfer complete flag */
      regs->IFCR = DMA_FLAG_TCIF0_4 << hdma->StreamIndex;
 800461a:	687b      	ldr	r3, [r7, #4]
 800461c:	6ddb      	ldr	r3, [r3, #92]	@ 0x5c
 800461e:	2220      	movs	r2, #32
 8004620:	409a      	lsls	r2, r3
 8004622:	693b      	ldr	r3, [r7, #16]
 8004624:	609a      	str	r2, [r3, #8]
      
      if(HAL_DMA_STATE_ABORT == hdma->State)
 8004626:	687b      	ldr	r3, [r7, #4]
 8004628:	f893 3035 	ldrb.w	r3, [r3, #53]	@ 0x35
 800462c:	b2db      	uxtb	r3, r3
 800462e:	2b05      	cmp	r3, #5
 8004630:	d136      	bne.n	80046a0 <HAL_DMA_IRQHandler+0x218>
      {
        /* Disable all the transfer interrupts */
        hdma->Instance->CR  &= ~(DMA_IT_TC | DMA_IT_TE | DMA_IT_DME);
 8004632:	687b      	ldr	r3, [r7, #4]
 8004634:	681b      	ldr	r3, [r3, #0]
 8004636:	681a      	ldr	r2, [r3, #0]
 8004638:	687b      	ldr	r3, [r7, #4]
 800463a:	681b      	ldr	r3, [r3, #0]
 800463c:	f022 0216 	bic.w	r2, r2, #22
 8004640:	601a      	str	r2, [r3, #0]
        hdma->Instance->FCR &= ~(DMA_IT_FE);
 8004642:	687b      	ldr	r3, [r7, #4]
 8004644:	681b      	ldr	r3, [r3, #0]
 8004646:	695a      	ldr	r2, [r3, #20]
 8004648:	687b      	ldr	r3, [r7, #4]
 800464a:	681b      	ldr	r3, [r3, #0]
 800464c:	f022 0280 	bic.w	r2, r2, #128	@ 0x80
 8004650:	615a      	str	r2, [r3, #20]
        
        if((hdma->XferHalfCpltCallback != NULL) || (hdma->XferM1HalfCpltCallback != NULL))
 8004652:	687b      	ldr	r3, [r7, #4]
 8004654:	6c1b      	ldr	r3, [r3, #64]	@ 0x40
 8004656:	2b00      	cmp	r3, #0
 8004658:	d103      	bne.n	8004662 <HAL_DMA_IRQHandler+0x1da>
 800465a:	687b      	ldr	r3, [r7, #4]
 800465c:	6c9b      	ldr	r3, [r3, #72]	@ 0x48
 800465e:	2b00      	cmp	r3, #0
 8004660:	d007      	beq.n	8004672 <HAL_DMA_IRQHandler+0x1ea>
        {
          hdma->Instance->CR  &= ~(DMA_IT_HT);
 8004662:	687b      	ldr	r3, [r7, #4]
 8004664:	681b      	ldr	r3, [r3, #0]
 8004666:	681a      	ldr	r2, [r3, #0]
 8004668:	687b      	ldr	r3, [r7, #4]
 800466a:	681b      	ldr	r3, [r3, #0]
 800466c:	f022 0208 	bic.w	r2, r2, #8
 8004670:	601a      	str	r2, [r3, #0]
        }

        /* Clear all interrupt flags at correct offset within the register */
        regs->IFCR = 0x3FU << hdma->StreamIndex;
 8004672:	687b      	ldr	r3, [r7, #4]
 8004674:	6ddb      	ldr	r3, [r3, #92]	@ 0x5c
 8004676:	223f      	movs	r2, #63	@ 0x3f
 8004678:	409a      	lsls	r2, r3
 800467a:	693b      	ldr	r3, [r7, #16]
 800467c:	609a      	str	r2, [r3, #8]

        /* Change the DMA state */
        hdma->State = HAL_DMA_STATE_READY;
 800467e:	687b      	ldr	r3, [r7, #4]
 8004680:	2201      	movs	r2, #1
 8004682:	f883 2035 	strb.w	r2, [r3, #53]	@ 0x35

        /* Process Unlocked */
        __HAL_UNLOCK(hdma);
 8004686:	687b      	ldr	r3, [r7, #4]
 8004688:	2200      	movs	r2, #0
 800468a:	f883 2034 	strb.w	r2, [r3, #52]	@ 0x34

        if(hdma->XferAbortCallback != NULL)
 800468e:	687b      	ldr	r3, [r7, #4]
 8004690:	6d1b      	ldr	r3, [r3, #80]	@ 0x50
 8004692:	2b00      	cmp	r3, #0
 8004694:	d07e      	beq.n	8004794 <HAL_DMA_IRQHandler+0x30c>
        {
          hdma->XferAbortCallback(hdma);
 8004696:	687b      	ldr	r3, [r7, #4]
 8004698:	6d1b      	ldr	r3, [r3, #80]	@ 0x50
 800469a:	6878      	ldr	r0, [r7, #4]
 800469c:	4798      	blx	r3
        }
        return;
 800469e:	e079      	b.n	8004794 <HAL_DMA_IRQHandler+0x30c>
      }

      if(((hdma->Instance->CR) & (uint32_t)(DMA_SxCR_DBM)) != RESET)
 80046a0:	687b      	ldr	r3, [r7, #4]
 80046a2:	681b      	ldr	r3, [r3, #0]
 80046a4:	681b      	ldr	r3, [r3, #0]
 80046a6:	f403 2380 	and.w	r3, r3, #262144	@ 0x40000
 80046aa:	2b00      	cmp	r3, #0
 80046ac:	d01d      	beq.n	80046ea <HAL_DMA_IRQHandler+0x262>
      {
        /* Current memory buffer used is Memory 0 */
        if((hdma->Instance->CR & DMA_SxCR_CT) == RESET)
 80046ae:	687b      	ldr	r3, [r7, #4]
 80046b0:	681b      	ldr	r3, [r3, #0]
 80046b2:	681b      	ldr	r3, [r3, #0]
 80046b4:	f403 2300 	and.w	r3, r3, #524288	@ 0x80000
 80046b8:	2b00      	cmp	r3, #0
 80046ba:	d10d      	bne.n	80046d8 <HAL_DMA_IRQHandler+0x250>
        {
          if(hdma->XferM1CpltCallback != NULL)
 80046bc:	687b      	ldr	r3, [r7, #4]
 80046be:	6c5b      	ldr	r3, [r3, #68]	@ 0x44
 80046c0:	2b00      	cmp	r3, #0
 80046c2:	d031      	beq.n	8004728 <HAL_DMA_IRQHandler+0x2a0>
          {
            /* Transfer complete Callback for memory1 */
            hdma->XferM1CpltCallback(hdma);
 80046c4:	687b      	ldr	r3, [r7, #4]
 80046c6:	6c5b      	ldr	r3, [r3, #68]	@ 0x44
 80046c8:	6878      	ldr	r0, [r7, #4]
 80046ca:	4798      	blx	r3
 80046cc:	e02c      	b.n	8004728 <HAL_DMA_IRQHandler+0x2a0>
 80046ce:	bf00      	nop
 80046d0:	2000001c 	.word	0x2000001c
 80046d4:	1b4e81b5 	.word	0x1b4e81b5
          }
        }
        /* Current memory buffer used is Memory 1 */
        else
        {
          if(hdma->XferCpltCallback != NULL)
 80046d8:	687b      	ldr	r3, [r7, #4]
 80046da:	6bdb      	ldr	r3, [r3, #60]	@ 0x3c
 80046dc:	2b00      	cmp	r3, #0
 80046de:	d023      	beq.n	8004728 <HAL_DMA_IRQHandler+0x2a0>
          {
            /* Transfer complete Callback for memory0 */
            hdma->XferCpltCallback(hdma);
 80046e0:	687b      	ldr	r3, [r7, #4]
 80046e2:	6bdb      	ldr	r3, [r3, #60]	@ 0x3c
 80046e4:	6878      	ldr	r0, [r7, #4]
 80046e6:	4798      	blx	r3
 80046e8:	e01e      	b.n	8004728 <HAL_DMA_IRQHandler+0x2a0>
        }
      }
      /* Disable the transfer complete interrupt if the DMA mode is not CIRCULAR */
      else
      {
        if((hdma->Instance->CR & DMA_SxCR_CIRC) == RESET)
 80046ea:	687b      	ldr	r3, [r7, #4]
 80046ec:	681b      	ldr	r3, [r3, #0]
 80046ee:	681b      	ldr	r3, [r3, #0]
 80046f0:	f403 7380 	and.w	r3, r3, #256	@ 0x100
 80046f4:	2b00      	cmp	r3, #0
 80046f6:	d10f      	bne.n	8004718 <HAL_DMA_IRQHandler+0x290>
        {
          /* Disable the transfer complete interrupt */
          hdma->Instance->CR  &= ~(DMA_IT_TC);
 80046f8:	687b      	ldr	r3, [r7, #4]
 80046fa:	681b      	ldr	r3, [r3, #0]
 80046fc:	681a      	ldr	r2, [r3, #0]
 80046fe:	687b      	ldr	r3, [r7, #4]
 8004700:	681b      	ldr	r3, [r3, #0]
 8004702:	f022 0210 	bic.w	r2, r2, #16
 8004706:	601a      	str	r2, [r3, #0]

          /* Change the DMA state */
          hdma->State = HAL_DMA_STATE_READY;
 8004708:	687b      	ldr	r3, [r7, #4]
 800470a:	2201      	movs	r2, #1
 800470c:	f883 2035 	strb.w	r2, [r3, #53]	@ 0x35

          /* Process Unlocked */
          __HAL_UNLOCK(hdma);
 8004710:	687b      	ldr	r3, [r7, #4]
 8004712:	2200      	movs	r2, #0
 8004714:	f883 2034 	strb.w	r2, [r3, #52]	@ 0x34
        }

        if(hdma->XferCpltCallback != NULL)
 8004718:	687b      	ldr	r3, [r7, #4]
 800471a:	6bdb      	ldr	r3, [r3, #60]	@ 0x3c
 800471c:	2b00      	cmp	r3, #0
 800471e:	d003      	beq.n	8004728 <HAL_DMA_IRQHandler+0x2a0>
        {
          /* Transfer complete callback */
          hdma->XferCpltCallback(hdma);
 8004720:	687b      	ldr	r3, [r7, #4]
 8004722:	6bdb      	ldr	r3, [r3, #60]	@ 0x3c
 8004724:	6878      	ldr	r0, [r7, #4]
 8004726:	4798      	blx	r3
      }
    }
  }
  
  /* manage error case */
  if(hdma->ErrorCode != HAL_DMA_ERROR_NONE)
 8004728:	687b      	ldr	r3, [r7, #4]
 800472a:	6d5b      	ldr	r3, [r3, #84]	@ 0x54
 800472c:	2b00      	cmp	r3, #0
 800472e:	d032      	beq.n	8004796 <HAL_DMA_IRQHandler+0x30e>
  {
    if((hdma->ErrorCode & HAL_DMA_ERROR_TE) != RESET)
 8004730:	687b      	ldr	r3, [r7, #4]
 8004732:	6d5b      	ldr	r3, [r3, #84]	@ 0x54
 8004734:	f003 0301 	and.w	r3, r3, #1
 8004738:	2b00      	cmp	r3, #0
 800473a:	d022      	beq.n	8004782 <HAL_DMA_IRQHandler+0x2fa>
    {
      hdma->State = HAL_DMA_STATE_ABORT;
 800473c:	687b      	ldr	r3, [r7, #4]
 800473e:	2205      	movs	r2, #5
 8004740:	f883 2035 	strb.w	r2, [r3, #53]	@ 0x35

      /* Disable the stream */
      __HAL_DMA_DISABLE(hdma);
 8004744:	687b      	ldr	r3, [r7, #4]
 8004746:	681b      	ldr	r3, [r3, #0]
 8004748:	681a      	ldr	r2, [r3, #0]
 800474a:	687b      	ldr	r3, [r7, #4]
 800474c:	681b      	ldr	r3, [r3, #0]
 800474e:	f022 0201 	bic.w	r2, r2, #1
 8004752:	601a      	str	r2, [r3, #0]

      do
      {
        if (++count > timeout)
 8004754:	68bb      	ldr	r3, [r7, #8]
 8004756:	3301      	adds	r3, #1
 8004758:	60bb      	str	r3, [r7, #8]
 800475a:	697a      	ldr	r2, [r7, #20]
 800475c:	429a      	cmp	r2, r3
 800475e:	d307      	bcc.n	8004770 <HAL_DMA_IRQHandler+0x2e8>
        {
          break;
        }
      }
      while((hdma->Instance->CR & DMA_SxCR_EN) != RESET);
 8004760:	687b      	ldr	r3, [r7, #4]
 8004762:	681b      	ldr	r3, [r3, #0]
 8004764:	681b      	ldr	r3, [r3, #0]
 8004766:	f003 0301 	and.w	r3, r3, #1
 800476a:	2b00      	cmp	r3, #0
 800476c:	d1f2      	bne.n	8004754 <HAL_DMA_IRQHandler+0x2cc>
 800476e:	e000      	b.n	8004772 <HAL_DMA_IRQHandler+0x2ea>
          break;
 8004770:	bf00      	nop

      /* Change the DMA state */
      hdma->State = HAL_DMA_STATE_READY;
 8004772:	687b      	ldr	r3, [r7, #4]
 8004774:	2201      	movs	r2, #1
 8004776:	f883 2035 	strb.w	r2, [r3, #53]	@ 0x35

      /* Process Unlocked */
      __HAL_UNLOCK(hdma);
 800477a:	687b      	ldr	r3, [r7, #4]
 800477c:	2200      	movs	r2, #0
 800477e:	f883 2034 	strb.w	r2, [r3, #52]	@ 0x34
    }

    if(hdma->XferErrorCallback != NULL)
 8004782:	687b      	ldr	r3, [r7, #4]
 8004784:	6cdb      	ldr	r3, [r3, #76]	@ 0x4c
 8004786:	2b00      	cmp	r3, #0
 8004788:	d005      	beq.n	8004796 <HAL_DMA_IRQHandler+0x30e>
    {
      /* Transfer error callback */
      hdma->XferErrorCallback(hdma);
 800478a:	687b      	ldr	r3, [r7, #4]
 800478c:	6cdb      	ldr	r3, [r3, #76]	@ 0x4c
 800478e:	6878      	ldr	r0, [r7, #4]
 8004790:	4798      	blx	r3
 8004792:	e000      	b.n	8004796 <HAL_DMA_IRQHandler+0x30e>
        return;
 8004794:	bf00      	nop
    }
  }
}
 8004796:	3718      	adds	r7, #24
 8004798:	46bd      	mov	sp, r7
 800479a:	bd80      	pop	{r7, pc}

0800479c <DMA_SetConfig>:
  * @param  DstAddress The destination memory Buffer address
  * @param  DataLength The length of data to be transferred from source to destination
  * @retval HAL status
  */
static void DMA_SetConfig(DMA_HandleTypeDef *hdma, uint32_t SrcAddress, uint32_t DstAddress, uint32_t DataLength)
{
 800479c:	b480      	push	{r7}
 800479e:	b085      	sub	sp, #20
 80047a0:	af00      	add	r7, sp, #0
 80047a2:	60f8      	str	r0, [r7, #12]
 80047a4:	60b9      	str	r1, [r7, #8]
 80047a6:	607a      	str	r2, [r7, #4]
 80047a8:	603b      	str	r3, [r7, #0]
  /* Clear DBM bit */
  hdma->Instance->CR &= (uint32_t)(~DMA_SxCR_DBM);
 80047aa:	68fb      	ldr	r3, [r7, #12]
 80047ac:	681b      	ldr	r3, [r3, #0]
 80047ae:	681a      	ldr	r2, [r3, #0]
 80047b0:	68fb      	ldr	r3, [r7, #12]
 80047b2:	681b      	ldr	r3, [r3, #0]
 80047b4:	f422 2280 	bic.w	r2, r2, #262144	@ 0x40000
 80047b8:	601a      	str	r2, [r3, #0]

  /* Configure DMA Stream data length */
  hdma->Instance->NDTR = DataLength;
 80047ba:	68fb      	ldr	r3, [r7, #12]
 80047bc:	681b      	ldr	r3, [r3, #0]
 80047be:	683a      	ldr	r2, [r7, #0]
 80047c0:	605a      	str	r2, [r3, #4]

  /* Memory to Peripheral */
  if((hdma->Init.Direction) == DMA_MEMORY_TO_PERIPH)
 80047c2:	68fb      	ldr	r3, [r7, #12]
 80047c4:	689b      	ldr	r3, [r3, #8]
 80047c6:	2b40      	cmp	r3, #64	@ 0x40
 80047c8:	d108      	bne.n	80047dc <DMA_SetConfig+0x40>
  {
    /* Configure DMA Stream destination address */
    hdma->Instance->PAR = DstAddress;
 80047ca:	68fb      	ldr	r3, [r7, #12]
 80047cc:	681b      	ldr	r3, [r3, #0]
 80047ce:	687a      	ldr	r2, [r7, #4]
 80047d0:	609a      	str	r2, [r3, #8]

    /* Configure DMA Stream source address */
    hdma->Instance->M0AR = SrcAddress;
 80047d2:	68fb      	ldr	r3, [r7, #12]
 80047d4:	681b      	ldr	r3, [r3, #0]
 80047d6:	68ba      	ldr	r2, [r7, #8]
 80047d8:	60da      	str	r2, [r3, #12]
    hdma->Instance->PAR = SrcAddress;

    /* Configure DMA Stream destination address */
    hdma->Instance->M0AR = DstAddress;
  }
}
 80047da:	e007      	b.n	80047ec <DMA_SetConfig+0x50>
    hdma->Instance->PAR = SrcAddress;
 80047dc:	68fb      	ldr	r3, [r7, #12]
 80047de:	681b      	ldr	r3, [r3, #0]
 80047e0:	68ba      	ldr	r2, [r7, #8]
 80047e2:	609a      	str	r2, [r3, #8]
    hdma->Instance->M0AR = DstAddress;
 80047e4:	68fb      	ldr	r3, [r7, #12]
 80047e6:	681b      	ldr	r3, [r3, #0]
 80047e8:	687a      	ldr	r2, [r7, #4]
 80047ea:	60da      	str	r2, [r3, #12]
}
 80047ec:	bf00      	nop
 80047ee:	3714      	adds	r7, #20
 80047f0:	46bd      	mov	sp, r7
 80047f2:	f85d 7b04 	ldr.w	r7, [sp], #4
 80047f6:	4770      	bx	lr

080047f8 <DMA_CalcBaseAndBitshift>:
  * @param  hdma       pointer to a DMA_HandleTypeDef structure that contains
  *                     the configuration information for the specified DMA Stream. 
  * @retval Stream base address
  */
static uint32_t DMA_CalcBaseAndBitshift(DMA_HandleTypeDef *hdma)
{
 80047f8:	b480      	push	{r7}
 80047fa:	b085      	sub	sp, #20
 80047fc:	af00      	add	r7, sp, #0
 80047fe:	6078      	str	r0, [r7, #4]
  uint32_t stream_number = (((uint32_t)hdma->Instance & 0xFFU) - 16U) / 24U;
 8004800:	687b      	ldr	r3, [r7, #4]
 8004802:	681b      	ldr	r3, [r3, #0]
 8004804:	b2db      	uxtb	r3, r3
 8004806:	3b10      	subs	r3, #16
 8004808:	4a14      	ldr	r2, [pc, #80]	@ (800485c <DMA_CalcBaseAndBitshift+0x64>)
 800480a:	fba2 2303 	umull	r2, r3, r2, r3
 800480e:	091b      	lsrs	r3, r3, #4
 8004810:	60fb      	str	r3, [r7, #12]
  
  /* lookup table for necessary bitshift of flags within status registers */
  static const uint8_t flagBitshiftOffset[8U] = {0U, 6U, 16U, 22U, 0U, 6U, 16U, 22U};
  hdma->StreamIndex = flagBitshiftOffset[stream_number];
 8004812:	4a13      	ldr	r2, [pc, #76]	@ (8004860 <DMA_CalcBaseAndBitshift+0x68>)
 8004814:	68fb      	ldr	r3, [r7, #12]
 8004816:	4413      	add	r3, r2
 8004818:	781b      	ldrb	r3, [r3, #0]
 800481a:	461a      	mov	r2, r3
 800481c:	687b      	ldr	r3, [r7, #4]
 800481e:	65da      	str	r2, [r3, #92]	@ 0x5c
  
  if (stream_number > 3U)
 8004820:	68fb      	ldr	r3, [r7, #12]
 8004822:	2b03      	cmp	r3, #3
 8004824:	d909      	bls.n	800483a <DMA_CalcBaseAndBitshift+0x42>
  {
    /* return pointer to HISR and HIFCR */
    hdma->StreamBaseAddress = (((uint32_t)hdma->Instance & (uint32_t)(~0x3FFU)) + 4U);
 8004826:	687b      	ldr	r3, [r7, #4]
 8004828:	681b      	ldr	r3, [r3, #0]
 800482a:	f423 737f 	bic.w	r3, r3, #1020	@ 0x3fc
 800482e:	f023 0303 	bic.w	r3, r3, #3
 8004832:	1d1a      	adds	r2, r3, #4
 8004834:	687b      	ldr	r3, [r7, #4]
 8004836:	659a      	str	r2, [r3, #88]	@ 0x58
 8004838:	e007      	b.n	800484a <DMA_CalcBaseAndBitshift+0x52>
  }
  else
  {
    /* return pointer to LISR and LIFCR */
    hdma->StreamBaseAddress = ((uint32_t)hdma->Instance & (uint32_t)(~0x3FFU));
 800483a:	687b      	ldr	r3, [r7, #4]
 800483c:	681b      	ldr	r3, [r3, #0]
 800483e:	f423 737f 	bic.w	r3, r3, #1020	@ 0x3fc
 8004842:	f023 0303 	bic.w	r3, r3, #3
 8004846:	687a      	ldr	r2, [r7, #4]
 8004848:	6593      	str	r3, [r2, #88]	@ 0x58
  }
  
  return hdma->StreamBaseAddress;
 800484a:	687b      	ldr	r3, [r7, #4]
 800484c:	6d9b      	ldr	r3, [r3, #88]	@ 0x58
}
 800484e:	4618      	mov	r0, r3
 8004850:	3714      	adds	r7, #20
 8004852:	46bd      	mov	sp, r7
 8004854:	f85d 7b04 	ldr.w	r7, [sp], #4
 8004858:	4770      	bx	lr
 800485a:	bf00      	nop
 800485c:	aaaaaaab 	.word	0xaaaaaaab
 8004860:	080099bc 	.word	0x080099bc

08004864 <DMA_CheckFifoParam>:
  * @param  hdma       pointer to a DMA_HandleTypeDef structure that contains
  *                     the configuration information for the specified DMA Stream. 
  * @retval HAL status
  */
static HAL_StatusTypeDef DMA_CheckFifoParam(DMA_HandleTypeDef *hdma)
{
 8004864:	b480      	push	{r7}
 8004866:	b085      	sub	sp, #20
 8004868:	af00      	add	r7, sp, #0
 800486a:	6078      	str	r0, [r7, #4]
  HAL_StatusTypeDef status = HAL_OK;
 800486c:	2300      	movs	r3, #0
 800486e:	73fb      	strb	r3, [r7, #15]
  uint32_t tmp = hdma->Init.FIFOThreshold;
 8004870:	687b      	ldr	r3, [r7, #4]
 8004872:	6a9b      	ldr	r3, [r3, #40]	@ 0x28
 8004874:	60bb      	str	r3, [r7, #8]
  
  /* Memory Data size equal to Byte */
  if(hdma->Init.MemDataAlignment == DMA_MDATAALIGN_BYTE)
 8004876:	687b      	ldr	r3, [r7, #4]
 8004878:	699b      	ldr	r3, [r3, #24]
 800487a:	2b00      	cmp	r3, #0
 800487c:	d11f      	bne.n	80048be <DMA_CheckFifoParam+0x5a>
  {
    switch (tmp)
 800487e:	68bb      	ldr	r3, [r7, #8]
 8004880:	2b03      	cmp	r3, #3
 8004882:	d856      	bhi.n	8004932 <DMA_CheckFifoParam+0xce>
 8004884:	a201      	add	r2, pc, #4	@ (adr r2, 800488c <DMA_CheckFifoParam+0x28>)
 8004886:	f852 f023 	ldr.w	pc, [r2, r3, lsl #2]
 800488a:	bf00      	nop
 800488c:	0800489d 	.word	0x0800489d
 8004890:	080048af 	.word	0x080048af
 8004894:	0800489d 	.word	0x0800489d
 8004898:	08004933 	.word	0x08004933
    {
    case DMA_FIFO_THRESHOLD_1QUARTERFULL:
    case DMA_FIFO_THRESHOLD_3QUARTERSFULL:
      if ((hdma->Init.MemBurst & DMA_SxCR_MBURST_1) == DMA_SxCR_MBURST_1)
 800489c:	687b      	ldr	r3, [r7, #4]
 800489e:	6adb      	ldr	r3, [r3, #44]	@ 0x2c
 80048a0:	f003 7380 	and.w	r3, r3, #16777216	@ 0x1000000
 80048a4:	2b00      	cmp	r3, #0
 80048a6:	d046      	beq.n	8004936 <DMA_CheckFifoParam+0xd2>
      {
        status = HAL_ERROR;
 80048a8:	2301      	movs	r3, #1
 80048aa:	73fb      	strb	r3, [r7, #15]
      }
      break;
 80048ac:	e043      	b.n	8004936 <DMA_CheckFifoParam+0xd2>
    case DMA_FIFO_THRESHOLD_HALFFULL:
      if (hdma->Init.MemBurst == DMA_MBURST_INC16)
 80048ae:	687b      	ldr	r3, [r7, #4]
 80048b0:	6adb      	ldr	r3, [r3, #44]	@ 0x2c
 80048b2:	f1b3 7fc0 	cmp.w	r3, #25165824	@ 0x1800000
 80048b6:	d140      	bne.n	800493a <DMA_CheckFifoParam+0xd6>
      {
        status = HAL_ERROR;
 80048b8:	2301      	movs	r3, #1
 80048ba:	73fb      	strb	r3, [r7, #15]
      }
      break;
 80048bc:	e03d      	b.n	800493a <DMA_CheckFifoParam+0xd6>
      break;
    }
  }
  
  /* Memory Data size equal to Half-Word */
  else if (hdma->Init.MemDataAlignment == DMA_MDATAALIGN_HALFWORD)
 80048be:	687b      	ldr	r3, [r7, #4]
 80048c0:	699b      	ldr	r3, [r3, #24]
 80048c2:	f5b3 5f00 	cmp.w	r3, #8192	@ 0x2000
 80048c6:	d121      	bne.n	800490c <DMA_CheckFifoParam+0xa8>
  {
    switch (tmp)
 80048c8:	68bb      	ldr	r3, [r7, #8]
 80048ca:	2b03      	cmp	r3, #3
 80048cc:	d837      	bhi.n	800493e <DMA_CheckFifoParam+0xda>
 80048ce:	a201      	add	r2, pc, #4	@ (adr r2, 80048d4 <DMA_CheckFifoParam+0x70>)
 80048d0:	f852 f023 	ldr.w	pc, [r2, r3, lsl #2]
 80048d4:	080048e5 	.word	0x080048e5
 80048d8:	080048eb 	.word	0x080048eb
 80048dc:	080048e5 	.word	0x080048e5
 80048e0:	080048fd 	.word	0x080048fd
    {
    case DMA_FIFO_THRESHOLD_1QUARTERFULL:
    case DMA_FIFO_THRESHOLD_3QUARTERSFULL:
      status = HAL_ERROR;
 80048e4:	2301      	movs	r3, #1
 80048e6:	73fb      	strb	r3, [r7, #15]
      break;
 80048e8:	e030      	b.n	800494c <DMA_CheckFifoParam+0xe8>
    case DMA_FIFO_THRESHOLD_HALFFULL:
      if ((hdma->Init.MemBurst & DMA_SxCR_MBURST_1) == DMA_SxCR_MBURST_1)
 80048ea:	687b      	ldr	r3, [r7, #4]
 80048ec:	6adb      	ldr	r3, [r3, #44]	@ 0x2c
 80048ee:	f003 7380 	and.w	r3, r3, #16777216	@ 0x1000000
 80048f2:	2b00      	cmp	r3, #0
 80048f4:	d025      	beq.n	8004942 <DMA_CheckFifoParam+0xde>
      {
        status = HAL_ERROR;
 80048f6:	2301      	movs	r3, #1
 80048f8:	73fb      	strb	r3, [r7, #15]
      }
      break;
 80048fa:	e022      	b.n	8004942 <DMA_CheckFifoParam+0xde>
    case DMA_FIFO_THRESHOLD_FULL:
      if (hdma->Init.MemBurst == DMA_MBURST_INC16)
 80048fc:	687b      	ldr	r3, [r7, #4]
 80048fe:	6adb      	ldr	r3, [r3, #44]	@ 0x2c
 8004900:	f1b3 7fc0 	cmp.w	r3, #25165824	@ 0x1800000
 8004904:	d11f      	bne.n	8004946 <DMA_CheckFifoParam+0xe2>
      {
        status = HAL_ERROR;
 8004906:	2301      	movs	r3, #1
 8004908:	73fb      	strb	r3, [r7, #15]
      }
      break;   
 800490a:	e01c      	b.n	8004946 <DMA_CheckFifoParam+0xe2>
  }
  
  /* Memory Data size equal to Word */
  else
  {
    switch (tmp)
 800490c:	68bb      	ldr	r3, [r7, #8]
 800490e:	2b02      	cmp	r3, #2
 8004910:	d903      	bls.n	800491a <DMA_CheckFifoParam+0xb6>
 8004912:	68bb      	ldr	r3, [r7, #8]
 8004914:	2b03      	cmp	r3, #3
 8004916:	d003      	beq.n	8004920 <DMA_CheckFifoParam+0xbc>
      {
        status = HAL_ERROR;
      }
      break;
    default:
      break;
 8004918:	e018      	b.n	800494c <DMA_CheckFifoParam+0xe8>
      status = HAL_ERROR;
 800491a:	2301      	movs	r3, #1
 800491c:	73fb      	strb	r3, [r7, #15]
      break;
 800491e:	e015      	b.n	800494c <DMA_CheckFifoParam+0xe8>
      if ((hdma->Init.MemBurst & DMA_SxCR_MBURST_1) == DMA_SxCR_MBURST_1)
 8004920:	687b      	ldr	r3, [r7, #4]
 8004922:	6adb      	ldr	r3, [r3, #44]	@ 0x2c
 8004924:	f003 7380 	and.w	r3, r3, #16777216	@ 0x1000000
 8004928:	2b00      	cmp	r3, #0
 800492a:	d00e      	beq.n	800494a <DMA_CheckFifoParam+0xe6>
        status = HAL_ERROR;
 800492c:	2301      	movs	r3, #1
 800492e:	73fb      	strb	r3, [r7, #15]
      break;
 8004930:	e00b      	b.n	800494a <DMA_CheckFifoParam+0xe6>
      break;
 8004932:	bf00      	nop
 8004934:	e00a      	b.n	800494c <DMA_CheckFifoParam+0xe8>
      break;
 8004936:	bf00      	nop
 8004938:	e008      	b.n	800494c <DMA_CheckFifoParam+0xe8>
      break;
 800493a:	bf00      	nop
 800493c:	e006      	b.n	800494c <DMA_CheckFifoParam+0xe8>
      break;
 800493e:	bf00      	nop
 8004940:	e004      	b.n	800494c <DMA_CheckFifoParam+0xe8>
      break;
 8004942:	bf00      	nop
 8004944:	e002      	b.n	800494c <DMA_CheckFifoParam+0xe8>
      break;   
 8004946:	bf00      	nop
 8004948:	e000      	b.n	800494c <DMA_CheckFifoParam+0xe8>
      break;
 800494a:	bf00      	nop
    }
  } 
  
  return status; 
 800494c:	7bfb      	ldrb	r3, [r7, #15]
}
 800494e:	4618      	mov	r0, r3
 8004950:	3714      	adds	r7, #20
 8004952:	46bd      	mov	sp, r7
 8004954:	f85d 7b04 	ldr.w	r7, [sp], #4
 8004958:	4770      	bx	lr
 800495a:	bf00      	nop

0800495c <HAL_GPIO_Init>:
  * @param  GPIO_Init pointer to a GPIO_InitTypeDef structure that contains
  *         the configuration information for the specified GPIO peripheral.
  * @retval None
  */
void HAL_GPIO_Init(GPIO_TypeDef  *GPIOx, GPIO_InitTypeDef *GPIO_Init)
{
 800495c:	b480      	push	{r7}
 800495e:	b089      	sub	sp, #36	@ 0x24
 8004960:	af00      	add	r7, sp, #0
 8004962:	6078      	str	r0, [r7, #4]
 8004964:	6039      	str	r1, [r7, #0]
  uint32_t position;
  uint32_t ioposition = 0x00U;
 8004966:	2300      	movs	r3, #0
 8004968:	617b      	str	r3, [r7, #20]
  uint32_t iocurrent = 0x00U;
 800496a:	2300      	movs	r3, #0
 800496c:	613b      	str	r3, [r7, #16]
  uint32_t temp = 0x00U;
 800496e:	2300      	movs	r3, #0
 8004970:	61bb      	str	r3, [r7, #24]
  assert_param(IS_GPIO_ALL_INSTANCE(GPIOx));
  assert_param(IS_GPIO_PIN(GPIO_Init->Pin));
  assert_param(IS_GPIO_MODE(GPIO_Init->Mode));

  /* Configure the port pins */
  for(position = 0U; position < GPIO_NUMBER; position++)
 8004972:	2300      	movs	r3, #0
 8004974:	61fb      	str	r3, [r7, #28]
 8004976:	e177      	b.n	8004c68 <HAL_GPIO_Init+0x30c>
  {
    /* Get the IO position */
    ioposition = 0x01U << position;
 8004978:	2201      	movs	r2, #1
 800497a:	69fb      	ldr	r3, [r7, #28]
 800497c:	fa02 f303 	lsl.w	r3, r2, r3
 8004980:	617b      	str	r3, [r7, #20]
    /* Get the current IO position */
    iocurrent = (uint32_t)(GPIO_Init->Pin) & ioposition;
 8004982:	683b      	ldr	r3, [r7, #0]
 8004984:	681b      	ldr	r3, [r3, #0]
 8004986:	697a      	ldr	r2, [r7, #20]
 8004988:	4013      	ands	r3, r2
 800498a:	613b      	str	r3, [r7, #16]

    if(iocurrent == ioposition)
 800498c:	693a      	ldr	r2, [r7, #16]
 800498e:	697b      	ldr	r3, [r7, #20]
 8004990:	429a      	cmp	r2, r3
 8004992:	f040 8166 	bne.w	8004c62 <HAL_GPIO_Init+0x306>
    {
      /*--------------------- GPIO Mode Configuration ------------------------*/
      /* In case of Output or Alternate function mode selection */
      if(((GPIO_Init->Mode & GPIO_MODE) == MODE_OUTPUT) || \
 8004996:	683b      	ldr	r3, [r7, #0]
 8004998:	685b      	ldr	r3, [r3, #4]
 800499a:	f003 0303 	and.w	r3, r3, #3
 800499e:	2b01      	cmp	r3, #1
 80049a0:	d005      	beq.n	80049ae <HAL_GPIO_Init+0x52>
          (GPIO_Init->Mode & GPIO_MODE) == MODE_AF)
 80049a2:	683b      	ldr	r3, [r7, #0]
 80049a4:	685b      	ldr	r3, [r3, #4]
 80049a6:	f003 0303 	and.w	r3, r3, #3
      if(((GPIO_Init->Mode & GPIO_MODE) == MODE_OUTPUT) || \
 80049aa:	2b02      	cmp	r3, #2
 80049ac:	d130      	bne.n	8004a10 <HAL_GPIO_Init+0xb4>
      {
        /* Check the Speed parameter */
        assert_param(IS_GPIO_SPEED(GPIO_Init->Speed));
        /* Configure the IO Speed */
        temp = GPIOx->OSPEEDR; 
 80049ae:	687b      	ldr	r3, [r7, #4]
 80049b0:	689b      	ldr	r3, [r3, #8]
 80049b2:	61bb      	str	r3, [r7, #24]
        temp &= ~(GPIO_OSPEEDER_OSPEEDR0 << (position * 2U));
 80049b4:	69fb      	ldr	r3, [r7, #28]
 80049b6:	005b      	lsls	r3, r3, #1
 80049b8:	2203      	movs	r2, #3
 80049ba:	fa02 f303 	lsl.w	r3, r2, r3
 80049be:	43db      	mvns	r3, r3
 80049c0:	69ba      	ldr	r2, [r7, #24]
 80049c2:	4013      	ands	r3, r2
 80049c4:	61bb      	str	r3, [r7, #24]
        temp |= (GPIO_Init->Speed << (position * 2U));
 80049c6:	683b      	ldr	r3, [r7, #0]
 80049c8:	68da      	ldr	r2, [r3, #12]
 80049ca:	69fb      	ldr	r3, [r7, #28]
 80049cc:	005b      	lsls	r3, r3, #1
 80049ce:	fa02 f303 	lsl.w	r3, r2, r3
 80049d2:	69ba      	ldr	r2, [r7, #24]
 80049d4:	4313      	orrs	r3, r2
 80049d6:	61bb      	str	r3, [r7, #24]
        GPIOx->OSPEEDR = temp;
 80049d8:	687b      	ldr	r3, [r7, #4]
 80049da:	69ba      	ldr	r2, [r7, #24]
 80049dc:	609a      	str	r2, [r3, #8]

        /* Configure the IO Output Type */
        temp = GPIOx->OTYPER;
 80049de:	687b      	ldr	r3, [r7, #4]
 80049e0:	685b      	ldr	r3, [r3, #4]
 80049e2:	61bb      	str	r3, [r7, #24]
        temp &= ~(GPIO_OTYPER_OT_0 << position) ;
 80049e4:	2201      	movs	r2, #1
 80049e6:	69fb      	ldr	r3, [r7, #28]
 80049e8:	fa02 f303 	lsl.w	r3, r2, r3
 80049ec:	43db      	mvns	r3, r3
 80049ee:	69ba      	ldr	r2, [r7, #24]
 80049f0:	4013      	ands	r3, r2
 80049f2:	61bb      	str	r3, [r7, #24]
        temp |= (((GPIO_Init->Mode & OUTPUT_TYPE) >> OUTPUT_TYPE_Pos) << position);
 80049f4:	683b      	ldr	r3, [r7, #0]
 80049f6:	685b      	ldr	r3, [r3, #4]
 80049f8:	091b      	lsrs	r3, r3, #4
 80049fa:	f003 0201 	and.w	r2, r3, #1
 80049fe:	69fb      	ldr	r3, [r7, #28]
 8004a00:	fa02 f303 	lsl.w	r3, r2, r3
 8004a04:	69ba      	ldr	r2, [r7, #24]
 8004a06:	4313      	orrs	r3, r2
 8004a08:	61bb      	str	r3, [r7, #24]
        GPIOx->OTYPER = temp;
 8004a0a:	687b      	ldr	r3, [r7, #4]
 8004a0c:	69ba      	ldr	r2, [r7, #24]
 8004a0e:	605a      	str	r2, [r3, #4]
       }

      if((GPIO_Init->Mode & GPIO_MODE) != MODE_ANALOG)
 8004a10:	683b      	ldr	r3, [r7, #0]
 8004a12:	685b      	ldr	r3, [r3, #4]
 8004a14:	f003 0303 	and.w	r3, r3, #3
 8004a18:	2b03      	cmp	r3, #3
 8004a1a:	d017      	beq.n	8004a4c <HAL_GPIO_Init+0xf0>
      {
        /* Check the parameters */
        assert_param(IS_GPIO_PULL(GPIO_Init->Pull));
        
        /* Activate the Pull-up or Pull down resistor for the current IO */
        temp = GPIOx->PUPDR;
 8004a1c:	687b      	ldr	r3, [r7, #4]
 8004a1e:	68db      	ldr	r3, [r3, #12]
 8004a20:	61bb      	str	r3, [r7, #24]
        temp &= ~(GPIO_PUPDR_PUPDR0 << (position * 2U));
 8004a22:	69fb      	ldr	r3, [r7, #28]
 8004a24:	005b      	lsls	r3, r3, #1
 8004a26:	2203      	movs	r2, #3
 8004a28:	fa02 f303 	lsl.w	r3, r2, r3
 8004a2c:	43db      	mvns	r3, r3
 8004a2e:	69ba      	ldr	r2, [r7, #24]
 8004a30:	4013      	ands	r3, r2
 8004a32:	61bb      	str	r3, [r7, #24]
        temp |= ((GPIO_Init->Pull) << (position * 2U));
 8004a34:	683b      	ldr	r3, [r7, #0]
 8004a36:	689a      	ldr	r2, [r3, #8]
 8004a38:	69fb      	ldr	r3, [r7, #28]
 8004a3a:	005b      	lsls	r3, r3, #1
 8004a3c:	fa02 f303 	lsl.w	r3, r2, r3
 8004a40:	69ba      	ldr	r2, [r7, #24]
 8004a42:	4313      	orrs	r3, r2
 8004a44:	61bb      	str	r3, [r7, #24]
        GPIOx->PUPDR = temp;
 8004a46:	687b      	ldr	r3, [r7, #4]
 8004a48:	69ba      	ldr	r2, [r7, #24]
 8004a4a:	60da      	str	r2, [r3, #12]
      }

      /* In case of Alternate function mode selection */
      if((GPIO_Init->Mode & GPIO_MODE) == MODE_AF)
 8004a4c:	683b      	ldr	r3, [r7, #0]
 8004a4e:	685b      	ldr	r3, [r3, #4]
 8004a50:	f003 0303 	and.w	r3, r3, #3
 8004a54:	2b02      	cmp	r3, #2
 8004a56:	d123      	bne.n	8004aa0 <HAL_GPIO_Init+0x144>
      {
        /* Check the Alternate function parameter */
        assert_param(IS_GPIO_AF(GPIO_Init->Alternate));
        /* Configure Alternate function mapped with the current IO */
        temp = GPIOx->AFR[position >> 3U];
 8004a58:	69fb      	ldr	r3, [r7, #28]
 8004a5a:	08da      	lsrs	r2, r3, #3
 8004a5c:	687b      	ldr	r3, [r7, #4]
 8004a5e:	3208      	adds	r2, #8
 8004a60:	f853 3022 	ldr.w	r3, [r3, r2, lsl #2]
 8004a64:	61bb      	str	r3, [r7, #24]
        temp &= ~(0xFU << ((uint32_t)(position & 0x07U) * 4U)) ;
 8004a66:	69fb      	ldr	r3, [r7, #28]
 8004a68:	f003 0307 	and.w	r3, r3, #7
 8004a6c:	009b      	lsls	r3, r3, #2
 8004a6e:	220f      	movs	r2, #15
 8004a70:	fa02 f303 	lsl.w	r3, r2, r3
 8004a74:	43db      	mvns	r3, r3
 8004a76:	69ba      	ldr	r2, [r7, #24]
 8004a78:	4013      	ands	r3, r2
 8004a7a:	61bb      	str	r3, [r7, #24]
        temp |= ((uint32_t)(GPIO_Init->Alternate) << (((uint32_t)position & 0x07U) * 4U));
 8004a7c:	683b      	ldr	r3, [r7, #0]
 8004a7e:	691a      	ldr	r2, [r3, #16]
 8004a80:	69fb      	ldr	r3, [r7, #28]
 8004a82:	f003 0307 	and.w	r3, r3, #7
 8004a86:	009b      	lsls	r3, r3, #2
 8004a88:	fa02 f303 	lsl.w	r3, r2, r3
 8004a8c:	69ba      	ldr	r2, [r7, #24]
 8004a8e:	4313      	orrs	r3, r2
 8004a90:	61bb      	str	r3, [r7, #24]
        GPIOx->AFR[position >> 3U] = temp;
 8004a92:	69fb      	ldr	r3, [r7, #28]
 8004a94:	08da      	lsrs	r2, r3, #3
 8004a96:	687b      	ldr	r3, [r7, #4]
 8004a98:	3208      	adds	r2, #8
 8004a9a:	69b9      	ldr	r1, [r7, #24]
 8004a9c:	f843 1022 	str.w	r1, [r3, r2, lsl #2]
      }

      /* Configure IO Direction mode (Input, Output, Alternate or Analog) */
      temp = GPIOx->MODER;
 8004aa0:	687b      	ldr	r3, [r7, #4]
 8004aa2:	681b      	ldr	r3, [r3, #0]
 8004aa4:	61bb      	str	r3, [r7, #24]
      temp &= ~(GPIO_MODER_MODER0 << (position * 2U));
 8004aa6:	69fb      	ldr	r3, [r7, #28]
 8004aa8:	005b      	lsls	r3, r3, #1
 8004aaa:	2203      	movs	r2, #3
 8004aac:	fa02 f303 	lsl.w	r3, r2, r3
 8004ab0:	43db      	mvns	r3, r3
 8004ab2:	69ba      	ldr	r2, [r7, #24]
 8004ab4:	4013      	ands	r3, r2
 8004ab6:	61bb      	str	r3, [r7, #24]
      temp |= ((GPIO_Init->Mode & GPIO_MODE) << (position * 2U));
 8004ab8:	683b      	ldr	r3, [r7, #0]
 8004aba:	685b      	ldr	r3, [r3, #4]
 8004abc:	f003 0203 	and.w	r2, r3, #3
 8004ac0:	69fb      	ldr	r3, [r7, #28]
 8004ac2:	005b      	lsls	r3, r3, #1
 8004ac4:	fa02 f303 	lsl.w	r3, r2, r3
 8004ac8:	69ba      	ldr	r2, [r7, #24]
 8004aca:	4313      	orrs	r3, r2
 8004acc:	61bb      	str	r3, [r7, #24]
      GPIOx->MODER = temp;
 8004ace:	687b      	ldr	r3, [r7, #4]
 8004ad0:	69ba      	ldr	r2, [r7, #24]
 8004ad2:	601a      	str	r2, [r3, #0]

      /*--------------------- EXTI Mode Configuration ------------------------*/
      /* Configure the External Interrupt or event for the current IO */
      if((GPIO_Init->Mode & EXTI_MODE) != 0x00U)
 8004ad4:	683b      	ldr	r3, [r7, #0]
 8004ad6:	685b      	ldr	r3, [r3, #4]
 8004ad8:	f403 3340 	and.w	r3, r3, #196608	@ 0x30000
 8004adc:	2b00      	cmp	r3, #0
 8004ade:	f000 80c0 	beq.w	8004c62 <HAL_GPIO_Init+0x306>
      {
        /* Enable SYSCFG Clock */
        __HAL_RCC_SYSCFG_CLK_ENABLE();
 8004ae2:	2300      	movs	r3, #0
 8004ae4:	60fb      	str	r3, [r7, #12]
 8004ae6:	4b66      	ldr	r3, [pc, #408]	@ (8004c80 <HAL_GPIO_Init+0x324>)
 8004ae8:	6c5b      	ldr	r3, [r3, #68]	@ 0x44
 8004aea:	4a65      	ldr	r2, [pc, #404]	@ (8004c80 <HAL_GPIO_Init+0x324>)
 8004aec:	f443 4380 	orr.w	r3, r3, #16384	@ 0x4000
 8004af0:	6453      	str	r3, [r2, #68]	@ 0x44
 8004af2:	4b63      	ldr	r3, [pc, #396]	@ (8004c80 <HAL_GPIO_Init+0x324>)
 8004af4:	6c5b      	ldr	r3, [r3, #68]	@ 0x44
 8004af6:	f403 4380 	and.w	r3, r3, #16384	@ 0x4000
 8004afa:	60fb      	str	r3, [r7, #12]
 8004afc:	68fb      	ldr	r3, [r7, #12]

        temp = SYSCFG->EXTICR[position >> 2U];
 8004afe:	4a61      	ldr	r2, [pc, #388]	@ (8004c84 <HAL_GPIO_Init+0x328>)
 8004b00:	69fb      	ldr	r3, [r7, #28]
 8004b02:	089b      	lsrs	r3, r3, #2
 8004b04:	3302      	adds	r3, #2
 8004b06:	f852 3023 	ldr.w	r3, [r2, r3, lsl #2]
 8004b0a:	61bb      	str	r3, [r7, #24]
        temp &= ~(0x0FU << (4U * (position & 0x03U)));
 8004b0c:	69fb      	ldr	r3, [r7, #28]
 8004b0e:	f003 0303 	and.w	r3, r3, #3
 8004b12:	009b      	lsls	r3, r3, #2
 8004b14:	220f      	movs	r2, #15
 8004b16:	fa02 f303 	lsl.w	r3, r2, r3
 8004b1a:	43db      	mvns	r3, r3
 8004b1c:	69ba      	ldr	r2, [r7, #24]
 8004b1e:	4013      	ands	r3, r2
 8004b20:	61bb      	str	r3, [r7, #24]
        temp |= ((uint32_t)(GPIO_GET_INDEX(GPIOx)) << (4U * (position & 0x03U)));
 8004b22:	687b      	ldr	r3, [r7, #4]
 8004b24:	4a58      	ldr	r2, [pc, #352]	@ (8004c88 <HAL_GPIO_Init+0x32c>)
 8004b26:	4293      	cmp	r3, r2
 8004b28:	d037      	beq.n	8004b9a <HAL_GPIO_Init+0x23e>
 8004b2a:	687b      	ldr	r3, [r7, #4]
 8004b2c:	4a57      	ldr	r2, [pc, #348]	@ (8004c8c <HAL_GPIO_Init+0x330>)
 8004b2e:	4293      	cmp	r3, r2
 8004b30:	d031      	beq.n	8004b96 <HAL_GPIO_Init+0x23a>
 8004b32:	687b      	ldr	r3, [r7, #4]
 8004b34:	4a56      	ldr	r2, [pc, #344]	@ (8004c90 <HAL_GPIO_Init+0x334>)
 8004b36:	4293      	cmp	r3, r2
 8004b38:	d02b      	beq.n	8004b92 <HAL_GPIO_Init+0x236>
 8004b3a:	687b      	ldr	r3, [r7, #4]
 8004b3c:	4a55      	ldr	r2, [pc, #340]	@ (8004c94 <HAL_GPIO_Init+0x338>)
 8004b3e:	4293      	cmp	r3, r2
 8004b40:	d025      	beq.n	8004b8e <HAL_GPIO_Init+0x232>
 8004b42:	687b      	ldr	r3, [r7, #4]
 8004b44:	4a54      	ldr	r2, [pc, #336]	@ (8004c98 <HAL_GPIO_Init+0x33c>)
 8004b46:	4293      	cmp	r3, r2
 8004b48:	d01f      	beq.n	8004b8a <HAL_GPIO_Init+0x22e>
 8004b4a:	687b      	ldr	r3, [r7, #4]
 8004b4c:	4a53      	ldr	r2, [pc, #332]	@ (8004c9c <HAL_GPIO_Init+0x340>)
 8004b4e:	4293      	cmp	r3, r2
 8004b50:	d019      	beq.n	8004b86 <HAL_GPIO_Init+0x22a>
 8004b52:	687b      	ldr	r3, [r7, #4]
 8004b54:	4a52      	ldr	r2, [pc, #328]	@ (8004ca0 <HAL_GPIO_Init+0x344>)
 8004b56:	4293      	cmp	r3, r2
 8004b58:	d013      	beq.n	8004b82 <HAL_GPIO_Init+0x226>
 8004b5a:	687b      	ldr	r3, [r7, #4]
 8004b5c:	4a51      	ldr	r2, [pc, #324]	@ (8004ca4 <HAL_GPIO_Init+0x348>)
 8004b5e:	4293      	cmp	r3, r2
 8004b60:	d00d      	beq.n	8004b7e <HAL_GPIO_Init+0x222>
 8004b62:	687b      	ldr	r3, [r7, #4]
 8004b64:	4a50      	ldr	r2, [pc, #320]	@ (8004ca8 <HAL_GPIO_Init+0x34c>)
 8004b66:	4293      	cmp	r3, r2
 8004b68:	d007      	beq.n	8004b7a <HAL_GPIO_Init+0x21e>
 8004b6a:	687b      	ldr	r3, [r7, #4]
 8004b6c:	4a4f      	ldr	r2, [pc, #316]	@ (8004cac <HAL_GPIO_Init+0x350>)
 8004b6e:	4293      	cmp	r3, r2
 8004b70:	d101      	bne.n	8004b76 <HAL_GPIO_Init+0x21a>
 8004b72:	2309      	movs	r3, #9
 8004b74:	e012      	b.n	8004b9c <HAL_GPIO_Init+0x240>
 8004b76:	230a      	movs	r3, #10
 8004b78:	e010      	b.n	8004b9c <HAL_GPIO_Init+0x240>
 8004b7a:	2308      	movs	r3, #8
 8004b7c:	e00e      	b.n	8004b9c <HAL_GPIO_Init+0x240>
 8004b7e:	2307      	movs	r3, #7
 8004b80:	e00c      	b.n	8004b9c <HAL_GPIO_Init+0x240>
 8004b82:	2306      	movs	r3, #6
 8004b84:	e00a      	b.n	8004b9c <HAL_GPIO_Init+0x240>
 8004b86:	2305      	movs	r3, #5
 8004b88:	e008      	b.n	8004b9c <HAL_GPIO_Init+0x240>
 8004b8a:	2304      	movs	r3, #4
 8004b8c:	e006      	b.n	8004b9c <HAL_GPIO_Init+0x240>
 8004b8e:	2303      	movs	r3, #3
 8004b90:	e004      	b.n	8004b9c <HAL_GPIO_Init+0x240>
 8004b92:	2302      	movs	r3, #2
 8004b94:	e002      	b.n	8004b9c <HAL_GPIO_Init+0x240>
 8004b96:	2301      	movs	r3, #1
 8004b98:	e000      	b.n	8004b9c <HAL_GPIO_Init+0x240>
 8004b9a:	2300      	movs	r3, #0
 8004b9c:	69fa      	ldr	r2, [r7, #28]
 8004b9e:	f002 0203 	and.w	r2, r2, #3
 8004ba2:	0092      	lsls	r2, r2, #2
 8004ba4:	4093      	lsls	r3, r2
 8004ba6:	69ba      	ldr	r2, [r7, #24]
 8004ba8:	4313      	orrs	r3, r2
 8004baa:	61bb      	str	r3, [r7, #24]
        SYSCFG->EXTICR[position >> 2U] = temp;
 8004bac:	4935      	ldr	r1, [pc, #212]	@ (8004c84 <HAL_GPIO_Init+0x328>)
 8004bae:	69fb      	ldr	r3, [r7, #28]
 8004bb0:	089b      	lsrs	r3, r3, #2
 8004bb2:	3302      	adds	r3, #2
 8004bb4:	69ba      	ldr	r2, [r7, #24]
 8004bb6:	f841 2023 	str.w	r2, [r1, r3, lsl #2]

        /* Clear Rising Falling edge configuration */
        temp = EXTI->RTSR;
 8004bba:	4b3d      	ldr	r3, [pc, #244]	@ (8004cb0 <HAL_GPIO_Init+0x354>)
 8004bbc:	689b      	ldr	r3, [r3, #8]
 8004bbe:	61bb      	str	r3, [r7, #24]
        temp &= ~((uint32_t)iocurrent);
 8004bc0:	693b      	ldr	r3, [r7, #16]
 8004bc2:	43db      	mvns	r3, r3
 8004bc4:	69ba      	ldr	r2, [r7, #24]
 8004bc6:	4013      	ands	r3, r2
 8004bc8:	61bb      	str	r3, [r7, #24]
        if((GPIO_Init->Mode & TRIGGER_RISING) != 0x00U)
 8004bca:	683b      	ldr	r3, [r7, #0]
 8004bcc:	685b      	ldr	r3, [r3, #4]
 8004bce:	f403 1380 	and.w	r3, r3, #1048576	@ 0x100000
 8004bd2:	2b00      	cmp	r3, #0
 8004bd4:	d003      	beq.n	8004bde <HAL_GPIO_Init+0x282>
        {
          temp |= iocurrent;
 8004bd6:	69ba      	ldr	r2, [r7, #24]
 8004bd8:	693b      	ldr	r3, [r7, #16]
 8004bda:	4313      	orrs	r3, r2
 8004bdc:	61bb      	str	r3, [r7, #24]
        }
        EXTI->RTSR = temp;
 8004bde:	4a34      	ldr	r2, [pc, #208]	@ (8004cb0 <HAL_GPIO_Init+0x354>)
 8004be0:	69bb      	ldr	r3, [r7, #24]
 8004be2:	6093      	str	r3, [r2, #8]

        temp = EXTI->FTSR;
 8004be4:	4b32      	ldr	r3, [pc, #200]	@ (8004cb0 <HAL_GPIO_Init+0x354>)
 8004be6:	68db      	ldr	r3, [r3, #12]
 8004be8:	61bb      	str	r3, [r7, #24]
        temp &= ~((uint32_t)iocurrent);
 8004bea:	693b      	ldr	r3, [r7, #16]
 8004bec:	43db      	mvns	r3, r3
 8004bee:	69ba      	ldr	r2, [r7, #24]
 8004bf0:	4013      	ands	r3, r2
 8004bf2:	61bb      	str	r3, [r7, #24]
        if((GPIO_Init->Mode & TRIGGER_FALLING) != 0x00U)
 8004bf4:	683b      	ldr	r3, [r7, #0]
 8004bf6:	685b      	ldr	r3, [r3, #4]
 8004bf8:	f403 1300 	and.w	r3, r3, #2097152	@ 0x200000
 8004bfc:	2b00      	cmp	r3, #0
 8004bfe:	d003      	beq.n	8004c08 <HAL_GPIO_Init+0x2ac>
        {
          temp |= iocurrent;
 8004c00:	69ba      	ldr	r2, [r7, #24]
 8004c02:	693b      	ldr	r3, [r7, #16]
 8004c04:	4313      	orrs	r3, r2
 8004c06:	61bb      	str	r3, [r7, #24]
        }
        EXTI->FTSR = temp;
 8004c08:	4a29      	ldr	r2, [pc, #164]	@ (8004cb0 <HAL_GPIO_Init+0x354>)
 8004c0a:	69bb      	ldr	r3, [r7, #24]
 8004c0c:	60d3      	str	r3, [r2, #12]

        temp = EXTI->EMR;
 8004c0e:	4b28      	ldr	r3, [pc, #160]	@ (8004cb0 <HAL_GPIO_Init+0x354>)
 8004c10:	685b      	ldr	r3, [r3, #4]
 8004c12:	61bb      	str	r3, [r7, #24]
        temp &= ~((uint32_t)iocurrent);
 8004c14:	693b      	ldr	r3, [r7, #16]
 8004c16:	43db      	mvns	r3, r3
 8004c18:	69ba      	ldr	r2, [r7, #24]
 8004c1a:	4013      	ands	r3, r2
 8004c1c:	61bb      	str	r3, [r7, #24]
        if((GPIO_Init->Mode & EXTI_EVT) != 0x00U)
 8004c1e:	683b      	ldr	r3, [r7, #0]
 8004c20:	685b      	ldr	r3, [r3, #4]
 8004c22:	f403 3300 	and.w	r3, r3, #131072	@ 0x20000
 8004c26:	2b00      	cmp	r3, #0
 8004c28:	d003      	beq.n	8004c32 <HAL_GPIO_Init+0x2d6>
        {
          temp |= iocurrent;
 8004c2a:	69ba      	ldr	r2, [r7, #24]
 8004c2c:	693b      	ldr	r3, [r7, #16]
 8004c2e:	4313      	orrs	r3, r2
 8004c30:	61bb      	str	r3, [r7, #24]
        }
        EXTI->EMR = temp;
 8004c32:	4a1f      	ldr	r2, [pc, #124]	@ (8004cb0 <HAL_GPIO_Init+0x354>)
 8004c34:	69bb      	ldr	r3, [r7, #24]
 8004c36:	6053      	str	r3, [r2, #4]

        /* Clear EXTI line configuration */
        temp = EXTI->IMR;
 8004c38:	4b1d      	ldr	r3, [pc, #116]	@ (8004cb0 <HAL_GPIO_Init+0x354>)
 8004c3a:	681b      	ldr	r3, [r3, #0]
 8004c3c:	61bb      	str	r3, [r7, #24]
        temp &= ~((uint32_t)iocurrent);
 8004c3e:	693b      	ldr	r3, [r7, #16]
 8004c40:	43db      	mvns	r3, r3
 8004c42:	69ba      	ldr	r2, [r7, #24]
 8004c44:	4013      	ands	r3, r2
 8004c46:	61bb      	str	r3, [r7, #24]
        if((GPIO_Init->Mode & EXTI_IT) != 0x00U)
 8004c48:	683b      	ldr	r3, [r7, #0]
 8004c4a:	685b      	ldr	r3, [r3, #4]
 8004c4c:	f403 3380 	and.w	r3, r3, #65536	@ 0x10000
 8004c50:	2b00      	cmp	r3, #0
 8004c52:	d003      	beq.n	8004c5c <HAL_GPIO_Init+0x300>
        {
          temp |= iocurrent;
 8004c54:	69ba      	ldr	r2, [r7, #24]
 8004c56:	693b      	ldr	r3, [r7, #16]
 8004c58:	4313      	orrs	r3, r2
 8004c5a:	61bb      	str	r3, [r7, #24]
        }
        EXTI->IMR = temp;
 8004c5c:	4a14      	ldr	r2, [pc, #80]	@ (8004cb0 <HAL_GPIO_Init+0x354>)
 8004c5e:	69bb      	ldr	r3, [r7, #24]
 8004c60:	6013      	str	r3, [r2, #0]
  for(position = 0U; position < GPIO_NUMBER; position++)
 8004c62:	69fb      	ldr	r3, [r7, #28]
 8004c64:	3301      	adds	r3, #1
 8004c66:	61fb      	str	r3, [r7, #28]
 8004c68:	69fb      	ldr	r3, [r7, #28]
 8004c6a:	2b0f      	cmp	r3, #15
 8004c6c:	f67f ae84 	bls.w	8004978 <HAL_GPIO_Init+0x1c>
      }
    }
  }
}
 8004c70:	bf00      	nop
 8004c72:	bf00      	nop
 8004c74:	3724      	adds	r7, #36	@ 0x24
 8004c76:	46bd      	mov	sp, r7
 8004c78:	f85d 7b04 	ldr.w	r7, [sp], #4
 8004c7c:	4770      	bx	lr
 8004c7e:	bf00      	nop
 8004c80:	40023800 	.word	0x40023800
 8004c84:	40013800 	.word	0x40013800
 8004c88:	40020000 	.word	0x40020000
 8004c8c:	40020400 	.word	0x40020400
 8004c90:	40020800 	.word	0x40020800
 8004c94:	40020c00 	.word	0x40020c00
 8004c98:	40021000 	.word	0x40021000
 8004c9c:	40021400 	.word	0x40021400
 8004ca0:	40021800 	.word	0x40021800
 8004ca4:	40021c00 	.word	0x40021c00
 8004ca8:	40022000 	.word	0x40022000
 8004cac:	40022400 	.word	0x40022400
 8004cb0:	40013c00 	.word	0x40013c00

08004cb4 <HAL_GPIO_DeInit>:
  * @param  GPIO_Pin specifies the port bit to be written.
  *          This parameter can be one of GPIO_PIN_x where x can be (0..15).
  * @retval None
  */
void HAL_GPIO_DeInit(GPIO_TypeDef  *GPIOx, uint32_t GPIO_Pin)
{
 8004cb4:	b480      	push	{r7}
 8004cb6:	b087      	sub	sp, #28
 8004cb8:	af00      	add	r7, sp, #0
 8004cba:	6078      	str	r0, [r7, #4]
 8004cbc:	6039      	str	r1, [r7, #0]
  uint32_t position;
  uint32_t ioposition = 0x00U;
 8004cbe:	2300      	movs	r3, #0
 8004cc0:	613b      	str	r3, [r7, #16]
  uint32_t iocurrent = 0x00U;
 8004cc2:	2300      	movs	r3, #0
 8004cc4:	60fb      	str	r3, [r7, #12]
  uint32_t tmp = 0x00U;
 8004cc6:	2300      	movs	r3, #0
 8004cc8:	60bb      	str	r3, [r7, #8]

  /* Check the parameters */
  assert_param(IS_GPIO_ALL_INSTANCE(GPIOx));
  
  /* Configure the port pins */
  for(position = 0U; position < GPIO_NUMBER; position++)
 8004cca:	2300      	movs	r3, #0
 8004ccc:	617b      	str	r3, [r7, #20]
 8004cce:	e0d9      	b.n	8004e84 <HAL_GPIO_DeInit+0x1d0>
  {
    /* Get the IO position */
    ioposition = 0x01U << position;
 8004cd0:	2201      	movs	r2, #1
 8004cd2:	697b      	ldr	r3, [r7, #20]
 8004cd4:	fa02 f303 	lsl.w	r3, r2, r3
 8004cd8:	613b      	str	r3, [r7, #16]
    /* Get the current IO position */
    iocurrent = (GPIO_Pin) & ioposition;
 8004cda:	683a      	ldr	r2, [r7, #0]
 8004cdc:	693b      	ldr	r3, [r7, #16]
 8004cde:	4013      	ands	r3, r2
 8004ce0:	60fb      	str	r3, [r7, #12]

    if(iocurrent == ioposition)
 8004ce2:	68fa      	ldr	r2, [r7, #12]
 8004ce4:	693b      	ldr	r3, [r7, #16]
 8004ce6:	429a      	cmp	r2, r3
 8004ce8:	f040 80c9 	bne.w	8004e7e <HAL_GPIO_DeInit+0x1ca>
    {
      /*------------------------- EXTI Mode Configuration --------------------*/
      tmp = SYSCFG->EXTICR[position >> 2U];
 8004cec:	4a6b      	ldr	r2, [pc, #428]	@ (8004e9c <HAL_GPIO_DeInit+0x1e8>)
 8004cee:	697b      	ldr	r3, [r7, #20]
 8004cf0:	089b      	lsrs	r3, r3, #2
 8004cf2:	3302      	adds	r3, #2
 8004cf4:	f852 3023 	ldr.w	r3, [r2, r3, lsl #2]
 8004cf8:	60bb      	str	r3, [r7, #8]
      tmp &= (0x0FU << (4U * (position & 0x03U)));
 8004cfa:	697b      	ldr	r3, [r7, #20]
 8004cfc:	f003 0303 	and.w	r3, r3, #3
 8004d00:	009b      	lsls	r3, r3, #2
 8004d02:	220f      	movs	r2, #15
 8004d04:	fa02 f303 	lsl.w	r3, r2, r3
 8004d08:	68ba      	ldr	r2, [r7, #8]
 8004d0a:	4013      	ands	r3, r2
 8004d0c:	60bb      	str	r3, [r7, #8]
      if(tmp == ((uint32_t)(GPIO_GET_INDEX(GPIOx)) << (4U * (position & 0x03U))))
 8004d0e:	687b      	ldr	r3, [r7, #4]
 8004d10:	4a63      	ldr	r2, [pc, #396]	@ (8004ea0 <HAL_GPIO_DeInit+0x1ec>)
 8004d12:	4293      	cmp	r3, r2
 8004d14:	d037      	beq.n	8004d86 <HAL_GPIO_DeInit+0xd2>
 8004d16:	687b      	ldr	r3, [r7, #4]
 8004d18:	4a62      	ldr	r2, [pc, #392]	@ (8004ea4 <HAL_GPIO_DeInit+0x1f0>)
 8004d1a:	4293      	cmp	r3, r2
 8004d1c:	d031      	beq.n	8004d82 <HAL_GPIO_DeInit+0xce>
 8004d1e:	687b      	ldr	r3, [r7, #4]
 8004d20:	4a61      	ldr	r2, [pc, #388]	@ (8004ea8 <HAL_GPIO_DeInit+0x1f4>)
 8004d22:	4293      	cmp	r3, r2
 8004d24:	d02b      	beq.n	8004d7e <HAL_GPIO_DeInit+0xca>
 8004d26:	687b      	ldr	r3, [r7, #4]
 8004d28:	4a60      	ldr	r2, [pc, #384]	@ (8004eac <HAL_GPIO_DeInit+0x1f8>)
 8004d2a:	4293      	cmp	r3, r2
 8004d2c:	d025      	beq.n	8004d7a <HAL_GPIO_DeInit+0xc6>
 8004d2e:	687b      	ldr	r3, [r7, #4]
 8004d30:	4a5f      	ldr	r2, [pc, #380]	@ (8004eb0 <HAL_GPIO_DeInit+0x1fc>)
 8004d32:	4293      	cmp	r3, r2
 8004d34:	d01f      	beq.n	8004d76 <HAL_GPIO_DeInit+0xc2>
 8004d36:	687b      	ldr	r3, [r7, #4]
 8004d38:	4a5e      	ldr	r2, [pc, #376]	@ (8004eb4 <HAL_GPIO_DeInit+0x200>)
 8004d3a:	4293      	cmp	r3, r2
 8004d3c:	d019      	beq.n	8004d72 <HAL_GPIO_DeInit+0xbe>
 8004d3e:	687b      	ldr	r3, [r7, #4]
 8004d40:	4a5d      	ldr	r2, [pc, #372]	@ (8004eb8 <HAL_GPIO_DeInit+0x204>)
 8004d42:	4293      	cmp	r3, r2
 8004d44:	d013      	beq.n	8004d6e <HAL_GPIO_DeInit+0xba>
 8004d46:	687b      	ldr	r3, [r7, #4]
 8004d48:	4a5c      	ldr	r2, [pc, #368]	@ (8004ebc <HAL_GPIO_DeInit+0x208>)
 8004d4a:	4293      	cmp	r3, r2
 8004d4c:	d00d      	beq.n	8004d6a <HAL_GPIO_DeInit+0xb6>
 8004d4e:	687b      	ldr	r3, [r7, #4]
 8004d50:	4a5b      	ldr	r2, [pc, #364]	@ (8004ec0 <HAL_GPIO_DeInit+0x20c>)
 8004d52:	4293      	cmp	r3, r2
 8004d54:	d007      	beq.n	8004d66 <HAL_GPIO_DeInit+0xb2>
 8004d56:	687b      	ldr	r3, [r7, #4]
 8004d58:	4a5a      	ldr	r2, [pc, #360]	@ (8004ec4 <HAL_GPIO_DeInit+0x210>)
 8004d5a:	4293      	cmp	r3, r2
 8004d5c:	d101      	bne.n	8004d62 <HAL_GPIO_DeInit+0xae>
 8004d5e:	2309      	movs	r3, #9
 8004d60:	e012      	b.n	8004d88 <HAL_GPIO_DeInit+0xd4>
 8004d62:	230a      	movs	r3, #10
 8004d64:	e010      	b.n	8004d88 <HAL_GPIO_DeInit+0xd4>
 8004d66:	2308      	movs	r3, #8
 8004d68:	e00e      	b.n	8004d88 <HAL_GPIO_DeInit+0xd4>
 8004d6a:	2307      	movs	r3, #7
 8004d6c:	e00c      	b.n	8004d88 <HAL_GPIO_DeInit+0xd4>
 8004d6e:	2306      	movs	r3, #6
 8004d70:	e00a      	b.n	8004d88 <HAL_GPIO_DeInit+0xd4>
 8004d72:	2305      	movs	r3, #5
 8004d74:	e008      	b.n	8004d88 <HAL_GPIO_DeInit+0xd4>
 8004d76:	2304      	movs	r3, #4
 8004d78:	e006      	b.n	8004d88 <HAL_GPIO_DeInit+0xd4>
 8004d7a:	2303      	movs	r3, #3
 8004d7c:	e004      	b.n	8004d88 <HAL_GPIO_DeInit+0xd4>
 8004d7e:	2302      	movs	r3, #2
 8004d80:	e002      	b.n	8004d88 <HAL_GPIO_DeInit+0xd4>
 8004d82:	2301      	movs	r3, #1
 8004d84:	e000      	b.n	8004d88 <HAL_GPIO_DeInit+0xd4>
 8004d86:	2300      	movs	r3, #0
 8004d88:	697a      	ldr	r2, [r7, #20]
 8004d8a:	f002 0203 	and.w	r2, r2, #3
 8004d8e:	0092      	lsls	r2, r2, #2
 8004d90:	4093      	lsls	r3, r2
 8004d92:	68ba      	ldr	r2, [r7, #8]
 8004d94:	429a      	cmp	r2, r3
 8004d96:	d132      	bne.n	8004dfe <HAL_GPIO_DeInit+0x14a>
      {
        /* Clear EXTI line configuration */
        EXTI->IMR &= ~((uint32_t)iocurrent);
 8004d98:	4b4b      	ldr	r3, [pc, #300]	@ (8004ec8 <HAL_GPIO_DeInit+0x214>)
 8004d9a:	681a      	ldr	r2, [r3, #0]
 8004d9c:	68fb      	ldr	r3, [r7, #12]
 8004d9e:	43db      	mvns	r3, r3
 8004da0:	4949      	ldr	r1, [pc, #292]	@ (8004ec8 <HAL_GPIO_DeInit+0x214>)
 8004da2:	4013      	ands	r3, r2
 8004da4:	600b      	str	r3, [r1, #0]
        EXTI->EMR &= ~((uint32_t)iocurrent);
 8004da6:	4b48      	ldr	r3, [pc, #288]	@ (8004ec8 <HAL_GPIO_DeInit+0x214>)
 8004da8:	685a      	ldr	r2, [r3, #4]
 8004daa:	68fb      	ldr	r3, [r7, #12]
 8004dac:	43db      	mvns	r3, r3
 8004dae:	4946      	ldr	r1, [pc, #280]	@ (8004ec8 <HAL_GPIO_DeInit+0x214>)
 8004db0:	4013      	ands	r3, r2
 8004db2:	604b      	str	r3, [r1, #4]
        
        /* Clear Rising Falling edge configuration */
        EXTI->FTSR &= ~((uint32_t)iocurrent);
 8004db4:	4b44      	ldr	r3, [pc, #272]	@ (8004ec8 <HAL_GPIO_DeInit+0x214>)
 8004db6:	68da      	ldr	r2, [r3, #12]
 8004db8:	68fb      	ldr	r3, [r7, #12]
 8004dba:	43db      	mvns	r3, r3
 8004dbc:	4942      	ldr	r1, [pc, #264]	@ (8004ec8 <HAL_GPIO_DeInit+0x214>)
 8004dbe:	4013      	ands	r3, r2
 8004dc0:	60cb      	str	r3, [r1, #12]
        EXTI->RTSR &= ~((uint32_t)iocurrent);
 8004dc2:	4b41      	ldr	r3, [pc, #260]	@ (8004ec8 <HAL_GPIO_DeInit+0x214>)
 8004dc4:	689a      	ldr	r2, [r3, #8]
 8004dc6:	68fb      	ldr	r3, [r7, #12]
 8004dc8:	43db      	mvns	r3, r3
 8004dca:	493f      	ldr	r1, [pc, #252]	@ (8004ec8 <HAL_GPIO_DeInit+0x214>)
 8004dcc:	4013      	ands	r3, r2
 8004dce:	608b      	str	r3, [r1, #8]

        /* Configure the External Interrupt or event for the current IO */
        tmp = 0x0FU << (4U * (position & 0x03U));
 8004dd0:	697b      	ldr	r3, [r7, #20]
 8004dd2:	f003 0303 	and.w	r3, r3, #3
 8004dd6:	009b      	lsls	r3, r3, #2
 8004dd8:	220f      	movs	r2, #15
 8004dda:	fa02 f303 	lsl.w	r3, r2, r3
 8004dde:	60bb      	str	r3, [r7, #8]
        SYSCFG->EXTICR[position >> 2U] &= ~tmp;
 8004de0:	4a2e      	ldr	r2, [pc, #184]	@ (8004e9c <HAL_GPIO_DeInit+0x1e8>)
 8004de2:	697b      	ldr	r3, [r7, #20]
 8004de4:	089b      	lsrs	r3, r3, #2
 8004de6:	3302      	adds	r3, #2
 8004de8:	f852 1023 	ldr.w	r1, [r2, r3, lsl #2]
 8004dec:	68bb      	ldr	r3, [r7, #8]
 8004dee:	43da      	mvns	r2, r3
 8004df0:	482a      	ldr	r0, [pc, #168]	@ (8004e9c <HAL_GPIO_DeInit+0x1e8>)
 8004df2:	697b      	ldr	r3, [r7, #20]
 8004df4:	089b      	lsrs	r3, r3, #2
 8004df6:	400a      	ands	r2, r1
 8004df8:	3302      	adds	r3, #2
 8004dfa:	f840 2023 	str.w	r2, [r0, r3, lsl #2]
      }

      /*------------------------- GPIO Mode Configuration --------------------*/
      /* Configure IO Direction in Input Floating Mode */
      GPIOx->MODER &= ~(GPIO_MODER_MODER0 << (position * 2U));
 8004dfe:	687b      	ldr	r3, [r7, #4]
 8004e00:	681a      	ldr	r2, [r3, #0]
 8004e02:	697b      	ldr	r3, [r7, #20]
 8004e04:	005b      	lsls	r3, r3, #1
 8004e06:	2103      	movs	r1, #3
 8004e08:	fa01 f303 	lsl.w	r3, r1, r3
 8004e0c:	43db      	mvns	r3, r3
 8004e0e:	401a      	ands	r2, r3
 8004e10:	687b      	ldr	r3, [r7, #4]
 8004e12:	601a      	str	r2, [r3, #0]

      /* Configure the default Alternate Function in current IO */
      GPIOx->AFR[position >> 3U] &= ~(0xFU << ((uint32_t)(position & 0x07U) * 4U)) ;
 8004e14:	697b      	ldr	r3, [r7, #20]
 8004e16:	08da      	lsrs	r2, r3, #3
 8004e18:	687b      	ldr	r3, [r7, #4]
 8004e1a:	3208      	adds	r2, #8
 8004e1c:	f853 1022 	ldr.w	r1, [r3, r2, lsl #2]
 8004e20:	697b      	ldr	r3, [r7, #20]
 8004e22:	f003 0307 	and.w	r3, r3, #7
 8004e26:	009b      	lsls	r3, r3, #2
 8004e28:	220f      	movs	r2, #15
 8004e2a:	fa02 f303 	lsl.w	r3, r2, r3
 8004e2e:	43db      	mvns	r3, r3
 8004e30:	697a      	ldr	r2, [r7, #20]
 8004e32:	08d2      	lsrs	r2, r2, #3
 8004e34:	4019      	ands	r1, r3
 8004e36:	687b      	ldr	r3, [r7, #4]
 8004e38:	3208      	adds	r2, #8
 8004e3a:	f843 1022 	str.w	r1, [r3, r2, lsl #2]

      /* Deactivate the Pull-up and Pull-down resistor for the current IO */
      GPIOx->PUPDR &= ~(GPIO_PUPDR_PUPDR0 << (position * 2U));
 8004e3e:	687b      	ldr	r3, [r7, #4]
 8004e40:	68da      	ldr	r2, [r3, #12]
 8004e42:	697b      	ldr	r3, [r7, #20]
 8004e44:	005b      	lsls	r3, r3, #1
 8004e46:	2103      	movs	r1, #3
 8004e48:	fa01 f303 	lsl.w	r3, r1, r3
 8004e4c:	43db      	mvns	r3, r3
 8004e4e:	401a      	ands	r2, r3
 8004e50:	687b      	ldr	r3, [r7, #4]
 8004e52:	60da      	str	r2, [r3, #12]

      /* Configure the default value IO Output Type */
      GPIOx->OTYPER  &= ~(GPIO_OTYPER_OT_0 << position) ;
 8004e54:	687b      	ldr	r3, [r7, #4]
 8004e56:	685a      	ldr	r2, [r3, #4]
 8004e58:	2101      	movs	r1, #1
 8004e5a:	697b      	ldr	r3, [r7, #20]
 8004e5c:	fa01 f303 	lsl.w	r3, r1, r3
 8004e60:	43db      	mvns	r3, r3
 8004e62:	401a      	ands	r2, r3
 8004e64:	687b      	ldr	r3, [r7, #4]
 8004e66:	605a      	str	r2, [r3, #4]

      /* Configure the default value for IO Speed */
      GPIOx->OSPEEDR &= ~(GPIO_OSPEEDER_OSPEEDR0 << (position * 2U));
 8004e68:	687b      	ldr	r3, [r7, #4]
 8004e6a:	689a      	ldr	r2, [r3, #8]
 8004e6c:	697b      	ldr	r3, [r7, #20]
 8004e6e:	005b      	lsls	r3, r3, #1
 8004e70:	2103      	movs	r1, #3
 8004e72:	fa01 f303 	lsl.w	r3, r1, r3
 8004e76:	43db      	mvns	r3, r3
 8004e78:	401a      	ands	r2, r3
 8004e7a:	687b      	ldr	r3, [r7, #4]
 8004e7c:	609a      	str	r2, [r3, #8]
  for(position = 0U; position < GPIO_NUMBER; position++)
 8004e7e:	697b      	ldr	r3, [r7, #20]
 8004e80:	3301      	adds	r3, #1
 8004e82:	617b      	str	r3, [r7, #20]
 8004e84:	697b      	ldr	r3, [r7, #20]
 8004e86:	2b0f      	cmp	r3, #15
 8004e88:	f67f af22 	bls.w	8004cd0 <HAL_GPIO_DeInit+0x1c>
    }
  }
}
 8004e8c:	bf00      	nop
 8004e8e:	bf00      	nop
 8004e90:	371c      	adds	r7, #28
 8004e92:	46bd      	mov	sp, r7
 8004e94:	f85d 7b04 	ldr.w	r7, [sp], #4
 8004e98:	4770      	bx	lr
 8004e9a:	bf00      	nop
 8004e9c:	40013800 	.word	0x40013800
 8004ea0:	40020000 	.word	0x40020000
 8004ea4:	40020400 	.word	0x40020400
 8004ea8:	40020800 	.word	0x40020800
 8004eac:	40020c00 	.word	0x40020c00
 8004eb0:	40021000 	.word	0x40021000
 8004eb4:	40021400 	.word	0x40021400
 8004eb8:	40021800 	.word	0x40021800
 8004ebc:	40021c00 	.word	0x40021c00
 8004ec0:	40022000 	.word	0x40022000
 8004ec4:	40022400 	.word	0x40022400
 8004ec8:	40013c00 	.word	0x40013c00

08004ecc <HAL_GPIO_ReadPin>:
  * @param  GPIO_Pin specifies the port bit to read.
  *         This parameter can be GPIO_PIN_x where x can be (0..15).
  * @retval The input port pin value.
  */
GPIO_PinState HAL_GPIO_ReadPin(GPIO_TypeDef* GPIOx, uint16_t GPIO_Pin)
{
 8004ecc:	b480      	push	{r7}
 8004ece:	b085      	sub	sp, #20
 8004ed0:	af00      	add	r7, sp, #0
 8004ed2:	6078      	str	r0, [r7, #4]
 8004ed4:	460b      	mov	r3, r1
 8004ed6:	807b      	strh	r3, [r7, #2]
  GPIO_PinState bitstatus;

  /* Check the parameters */
  assert_param(IS_GPIO_PIN(GPIO_Pin));

  if((GPIOx->IDR & GPIO_Pin) != (uint32_t)GPIO_PIN_RESET)
 8004ed8:	687b      	ldr	r3, [r7, #4]
 8004eda:	691a      	ldr	r2, [r3, #16]
 8004edc:	887b      	ldrh	r3, [r7, #2]
 8004ede:	4013      	ands	r3, r2
 8004ee0:	2b00      	cmp	r3, #0
 8004ee2:	d002      	beq.n	8004eea <HAL_GPIO_ReadPin+0x1e>
  {
    bitstatus = GPIO_PIN_SET;
 8004ee4:	2301      	movs	r3, #1
 8004ee6:	73fb      	strb	r3, [r7, #15]
 8004ee8:	e001      	b.n	8004eee <HAL_GPIO_ReadPin+0x22>
  }
  else
  {
    bitstatus = GPIO_PIN_RESET;
 8004eea:	2300      	movs	r3, #0
 8004eec:	73fb      	strb	r3, [r7, #15]
  }
  return bitstatus;
 8004eee:	7bfb      	ldrb	r3, [r7, #15]
}
 8004ef0:	4618      	mov	r0, r3
 8004ef2:	3714      	adds	r7, #20
 8004ef4:	46bd      	mov	sp, r7
 8004ef6:	f85d 7b04 	ldr.w	r7, [sp], #4
 8004efa:	4770      	bx	lr

08004efc <HAL_GPIO_WritePin>:
  *            @arg GPIO_PIN_RESET: to clear the port pin
  *            @arg GPIO_PIN_SET: to set the port pin
  * @retval None
  */
void HAL_GPIO_WritePin(GPIO_TypeDef* GPIOx, uint16_t GPIO_Pin, GPIO_PinState PinState)
{
 8004efc:	b480      	push	{r7}
 8004efe:	b083      	sub	sp, #12
 8004f00:	af00      	add	r7, sp, #0
 8004f02:	6078      	str	r0, [r7, #4]
 8004f04:	460b      	mov	r3, r1
 8004f06:	807b      	strh	r3, [r7, #2]
 8004f08:	4613      	mov	r3, r2
 8004f0a:	707b      	strb	r3, [r7, #1]
  /* Check the parameters */
  assert_param(IS_GPIO_PIN(GPIO_Pin));
  assert_param(IS_GPIO_PIN_ACTION(PinState));

  if(PinState != GPIO_PIN_RESET)
 8004f0c:	787b      	ldrb	r3, [r7, #1]
 8004f0e:	2b00      	cmp	r3, #0
 8004f10:	d003      	beq.n	8004f1a <HAL_GPIO_WritePin+0x1e>
  {
    GPIOx->BSRR = GPIO_Pin;
 8004f12:	887a      	ldrh	r2, [r7, #2]
 8004f14:	687b      	ldr	r3, [r7, #4]
 8004f16:	619a      	str	r2, [r3, #24]
  }
  else
  {
    GPIOx->BSRR = (uint32_t)GPIO_Pin << 16U;
  }
}
 8004f18:	e003      	b.n	8004f22 <HAL_GPIO_WritePin+0x26>
    GPIOx->BSRR = (uint32_t)GPIO_Pin << 16U;
 8004f1a:	887b      	ldrh	r3, [r7, #2]
 8004f1c:	041a      	lsls	r2, r3, #16
 8004f1e:	687b      	ldr	r3, [r7, #4]
 8004f20:	619a      	str	r2, [r3, #24]
}
 8004f22:	bf00      	nop
 8004f24:	370c      	adds	r7, #12
 8004f26:	46bd      	mov	sp, r7
 8004f28:	f85d 7b04 	ldr.w	r7, [sp], #4
 8004f2c:	4770      	bx	lr

08004f2e <HAL_GPIO_TogglePin>:
  *                      x can be (A..I) to select the GPIO peripheral for STM32F40XX and STM32F427X devices.
  * @param  GPIO_Pin Specifies the pins to be toggled.
  * @retval None
  */
void HAL_GPIO_TogglePin(GPIO_TypeDef* GPIOx, uint16_t GPIO_Pin)
{
 8004f2e:	b480      	push	{r7}
 8004f30:	b085      	sub	sp, #20
 8004f32:	af00      	add	r7, sp, #0
 8004f34:	6078      	str	r0, [r7, #4]
 8004f36:	460b      	mov	r3, r1
 8004f38:	807b      	strh	r3, [r7, #2]

  /* Check the parameters */
  assert_param(IS_GPIO_PIN(GPIO_Pin));

  /* get current Output Data Register value */
  odr = GPIOx->ODR;
 8004f3a:	687b      	ldr	r3, [r7, #4]
 8004f3c:	695b      	ldr	r3, [r3, #20]
 8004f3e:	60fb      	str	r3, [r7, #12]

  /* Set selected pins that were at low level, and reset ones that were high */
  GPIOx->BSRR = ((odr & GPIO_Pin) << GPIO_NUMBER) | (~odr & GPIO_Pin);
 8004f40:	887a      	ldrh	r2, [r7, #2]
 8004f42:	68fb      	ldr	r3, [r7, #12]
 8004f44:	4013      	ands	r3, r2
 8004f46:	041a      	lsls	r2, r3, #16
 8004f48:	68fb      	ldr	r3, [r7, #12]
 8004f4a:	43d9      	mvns	r1, r3
 8004f4c:	887b      	ldrh	r3, [r7, #2]
 8004f4e:	400b      	ands	r3, r1
 8004f50:	431a      	orrs	r2, r3
 8004f52:	687b      	ldr	r3, [r7, #4]
 8004f54:	619a      	str	r2, [r3, #24]
}
 8004f56:	bf00      	nop
 8004f58:	3714      	adds	r7, #20
 8004f5a:	46bd      	mov	sp, r7
 8004f5c:	f85d 7b04 	ldr.w	r7, [sp], #4
 8004f60:	4770      	bx	lr
	...

08004f64 <HAL_GPIO_EXTI_IRQHandler>:
  * @brief  This function handles EXTI interrupt request.
  * @param  GPIO_Pin Specifies the pins connected EXTI line
  * @retval None
  */
void HAL_GPIO_EXTI_IRQHandler(uint16_t GPIO_Pin)
{
 8004f64:	b580      	push	{r7, lr}
 8004f66:	b082      	sub	sp, #8
 8004f68:	af00      	add	r7, sp, #0
 8004f6a:	4603      	mov	r3, r0
 8004f6c:	80fb      	strh	r3, [r7, #6]
  /* EXTI line interrupt detected */
  if(__HAL_GPIO_EXTI_GET_IT(GPIO_Pin) != RESET)
 8004f6e:	4b08      	ldr	r3, [pc, #32]	@ (8004f90 <HAL_GPIO_EXTI_IRQHandler+0x2c>)
 8004f70:	695a      	ldr	r2, [r3, #20]
 8004f72:	88fb      	ldrh	r3, [r7, #6]
 8004f74:	4013      	ands	r3, r2
 8004f76:	2b00      	cmp	r3, #0
 8004f78:	d006      	beq.n	8004f88 <HAL_GPIO_EXTI_IRQHandler+0x24>
  {
    __HAL_GPIO_EXTI_CLEAR_IT(GPIO_Pin);
 8004f7a:	4a05      	ldr	r2, [pc, #20]	@ (8004f90 <HAL_GPIO_EXTI_IRQHandler+0x2c>)
 8004f7c:	88fb      	ldrh	r3, [r7, #6]
 8004f7e:	6153      	str	r3, [r2, #20]
    HAL_GPIO_EXTI_Callback(GPIO_Pin);
 8004f80:	88fb      	ldrh	r3, [r7, #6]
 8004f82:	4618      	mov	r0, r3
 8004f84:	f7fd fff0 	bl	8002f68 <HAL_GPIO_EXTI_Callback>
  }
}
 8004f88:	bf00      	nop
 8004f8a:	3708      	adds	r7, #8
 8004f8c:	46bd      	mov	sp, r7
 8004f8e:	bd80      	pop	{r7, pc}
 8004f90:	40013c00 	.word	0x40013c00

08004f94 <HAL_I2C_Init>:
  * @param  hi2c Pointer to a I2C_HandleTypeDef structure that contains
  *                the configuration information for the specified I2C.
  * @retval HAL status
  */
HAL_StatusTypeDef HAL_I2C_Init(I2C_HandleTypeDef *hi2c)
{
 8004f94:	b580      	push	{r7, lr}
 8004f96:	b084      	sub	sp, #16
 8004f98:	af00      	add	r7, sp, #0
 8004f9a:	6078      	str	r0, [r7, #4]
  uint32_t freqrange;
  uint32_t pclk1;

  /* Check the I2C handle allocation */
  if (hi2c == NULL)
 8004f9c:	687b      	ldr	r3, [r7, #4]
 8004f9e:	2b00      	cmp	r3, #0
 8004fa0:	d101      	bne.n	8004fa6 <HAL_I2C_Init+0x12>
  {
    return HAL_ERROR;
 8004fa2:	2301      	movs	r3, #1
 8004fa4:	e12b      	b.n	80051fe <HAL_I2C_Init+0x26a>
  assert_param(IS_I2C_DUAL_ADDRESS(hi2c->Init.DualAddressMode));
  assert_param(IS_I2C_OWN_ADDRESS2(hi2c->Init.OwnAddress2));
  assert_param(IS_I2C_GENERAL_CALL(hi2c->Init.GeneralCallMode));
  assert_param(IS_I2C_NO_STRETCH(hi2c->Init.NoStretchMode));

  if (hi2c->State == HAL_I2C_STATE_RESET)
 8004fa6:	687b      	ldr	r3, [r7, #4]
 8004fa8:	f893 303d 	ldrb.w	r3, [r3, #61]	@ 0x3d
 8004fac:	b2db      	uxtb	r3, r3
 8004fae:	2b00      	cmp	r3, #0
 8004fb0:	d106      	bne.n	8004fc0 <HAL_I2C_Init+0x2c>
  {
    /* Allocate lock resource and initialize it */
    hi2c->Lock = HAL_UNLOCKED;
 8004fb2:	687b      	ldr	r3, [r7, #4]
 8004fb4:	2200      	movs	r2, #0
 8004fb6:	f883 203c 	strb.w	r2, [r3, #60]	@ 0x3c

    /* Init the low level hardware : GPIO, CLOCK, NVIC */
    hi2c->MspInitCallback(hi2c);
#else
    /* Init the low level hardware : GPIO, CLOCK, NVIC */
    HAL_I2C_MspInit(hi2c);
 8004fba:	6878      	ldr	r0, [r7, #4]
 8004fbc:	f7fd fc98 	bl	80028f0 <HAL_I2C_MspInit>
#endif /* USE_HAL_I2C_REGISTER_CALLBACKS */
  }

  hi2c->State = HAL_I2C_STATE_BUSY;
 8004fc0:	687b      	ldr	r3, [r7, #4]
 8004fc2:	2224      	movs	r2, #36	@ 0x24
 8004fc4:	f883 203d 	strb.w	r2, [r3, #61]	@ 0x3d

  /* Disable the selected I2C peripheral */
  __HAL_I2C_DISABLE(hi2c);
 8004fc8:	687b      	ldr	r3, [r7, #4]
 8004fca:	681b      	ldr	r3, [r3, #0]
 8004fcc:	681a      	ldr	r2, [r3, #0]
 8004fce:	687b      	ldr	r3, [r7, #4]
 8004fd0:	681b      	ldr	r3, [r3, #0]
 8004fd2:	f022 0201 	bic.w	r2, r2, #1
 8004fd6:	601a      	str	r2, [r3, #0]

  /*Reset I2C*/
  hi2c->Instance->CR1 |= I2C_CR1_SWRST;
 8004fd8:	687b      	ldr	r3, [r7, #4]
 8004fda:	681b      	ldr	r3, [r3, #0]
 8004fdc:	681a      	ldr	r2, [r3, #0]
 8004fde:	687b      	ldr	r3, [r7, #4]
 8004fe0:	681b      	ldr	r3, [r3, #0]
 8004fe2:	f442 4200 	orr.w	r2, r2, #32768	@ 0x8000
 8004fe6:	601a      	str	r2, [r3, #0]
  hi2c->Instance->CR1 &= ~I2C_CR1_SWRST;
 8004fe8:	687b      	ldr	r3, [r7, #4]
 8004fea:	681b      	ldr	r3, [r3, #0]
 8004fec:	681a      	ldr	r2, [r3, #0]
 8004fee:	687b      	ldr	r3, [r7, #4]
 8004ff0:	681b      	ldr	r3, [r3, #0]
 8004ff2:	f422 4200 	bic.w	r2, r2, #32768	@ 0x8000
 8004ff6:	601a      	str	r2, [r3, #0]

  /* Get PCLK1 frequency */
  pclk1 = HAL_RCC_GetPCLK1Freq();
 8004ff8:	f001 fcca 	bl	8006990 <HAL_RCC_GetPCLK1Freq>
 8004ffc:	60f8      	str	r0, [r7, #12]

  /* Check the minimum allowed PCLK1 frequency */
  if (I2C_MIN_PCLK_FREQ(pclk1, hi2c->Init.ClockSpeed) == 1U)
 8004ffe:	687b      	ldr	r3, [r7, #4]
 8005000:	685b      	ldr	r3, [r3, #4]
 8005002:	4a81      	ldr	r2, [pc, #516]	@ (8005208 <HAL_I2C_Init+0x274>)
 8005004:	4293      	cmp	r3, r2
 8005006:	d807      	bhi.n	8005018 <HAL_I2C_Init+0x84>
 8005008:	68fb      	ldr	r3, [r7, #12]
 800500a:	4a80      	ldr	r2, [pc, #512]	@ (800520c <HAL_I2C_Init+0x278>)
 800500c:	4293      	cmp	r3, r2
 800500e:	bf94      	ite	ls
 8005010:	2301      	movls	r3, #1
 8005012:	2300      	movhi	r3, #0
 8005014:	b2db      	uxtb	r3, r3
 8005016:	e006      	b.n	8005026 <HAL_I2C_Init+0x92>
 8005018:	68fb      	ldr	r3, [r7, #12]
 800501a:	4a7d      	ldr	r2, [pc, #500]	@ (8005210 <HAL_I2C_Init+0x27c>)
 800501c:	4293      	cmp	r3, r2
 800501e:	bf94      	ite	ls
 8005020:	2301      	movls	r3, #1
 8005022:	2300      	movhi	r3, #0
 8005024:	b2db      	uxtb	r3, r3
 8005026:	2b00      	cmp	r3, #0
 8005028:	d001      	beq.n	800502e <HAL_I2C_Init+0x9a>
  {
    return HAL_ERROR;
 800502a:	2301      	movs	r3, #1
 800502c:	e0e7      	b.n	80051fe <HAL_I2C_Init+0x26a>
  }

  /* Calculate frequency range */
  freqrange = I2C_FREQRANGE(pclk1);
 800502e:	68fb      	ldr	r3, [r7, #12]
 8005030:	4a78      	ldr	r2, [pc, #480]	@ (8005214 <HAL_I2C_Init+0x280>)
 8005032:	fba2 2303 	umull	r2, r3, r2, r3
 8005036:	0c9b      	lsrs	r3, r3, #18
 8005038:	60bb      	str	r3, [r7, #8]

  /*---------------------------- I2Cx CR2 Configuration ----------------------*/
  /* Configure I2Cx: Frequency range */
  MODIFY_REG(hi2c->Instance->CR2, I2C_CR2_FREQ, freqrange);
 800503a:	687b      	ldr	r3, [r7, #4]
 800503c:	681b      	ldr	r3, [r3, #0]
 800503e:	685b      	ldr	r3, [r3, #4]
 8005040:	f023 013f 	bic.w	r1, r3, #63	@ 0x3f
 8005044:	687b      	ldr	r3, [r7, #4]
 8005046:	681b      	ldr	r3, [r3, #0]
 8005048:	68ba      	ldr	r2, [r7, #8]
 800504a:	430a      	orrs	r2, r1
 800504c:	605a      	str	r2, [r3, #4]

  /*---------------------------- I2Cx TRISE Configuration --------------------*/
  /* Configure I2Cx: Rise Time */
  MODIFY_REG(hi2c->Instance->TRISE, I2C_TRISE_TRISE, I2C_RISE_TIME(freqrange, hi2c->Init.ClockSpeed));
 800504e:	687b      	ldr	r3, [r7, #4]
 8005050:	681b      	ldr	r3, [r3, #0]
 8005052:	6a1b      	ldr	r3, [r3, #32]
 8005054:	f023 013f 	bic.w	r1, r3, #63	@ 0x3f
 8005058:	687b      	ldr	r3, [r7, #4]
 800505a:	685b      	ldr	r3, [r3, #4]
 800505c:	4a6a      	ldr	r2, [pc, #424]	@ (8005208 <HAL_I2C_Init+0x274>)
 800505e:	4293      	cmp	r3, r2
 8005060:	d802      	bhi.n	8005068 <HAL_I2C_Init+0xd4>
 8005062:	68bb      	ldr	r3, [r7, #8]
 8005064:	3301      	adds	r3, #1
 8005066:	e009      	b.n	800507c <HAL_I2C_Init+0xe8>
 8005068:	68bb      	ldr	r3, [r7, #8]
 800506a:	f44f 7296 	mov.w	r2, #300	@ 0x12c
 800506e:	fb02 f303 	mul.w	r3, r2, r3
 8005072:	4a69      	ldr	r2, [pc, #420]	@ (8005218 <HAL_I2C_Init+0x284>)
 8005074:	fba2 2303 	umull	r2, r3, r2, r3
 8005078:	099b      	lsrs	r3, r3, #6
 800507a:	3301      	adds	r3, #1
 800507c:	687a      	ldr	r2, [r7, #4]
 800507e:	6812      	ldr	r2, [r2, #0]
 8005080:	430b      	orrs	r3, r1
 8005082:	6213      	str	r3, [r2, #32]

  /*---------------------------- I2Cx CCR Configuration ----------------------*/
  /* Configure I2Cx: Speed */
  MODIFY_REG(hi2c->Instance->CCR, (I2C_CCR_FS | I2C_CCR_DUTY | I2C_CCR_CCR), I2C_SPEED(pclk1, hi2c->Init.ClockSpeed, hi2c->Init.DutyCycle));
 8005084:	687b      	ldr	r3, [r7, #4]
 8005086:	681b      	ldr	r3, [r3, #0]
 8005088:	69db      	ldr	r3, [r3, #28]
 800508a:	f423 424f 	bic.w	r2, r3, #52992	@ 0xcf00
 800508e:	f022 02ff 	bic.w	r2, r2, #255	@ 0xff
 8005092:	687b      	ldr	r3, [r7, #4]
 8005094:	685b      	ldr	r3, [r3, #4]
 8005096:	495c      	ldr	r1, [pc, #368]	@ (8005208 <HAL_I2C_Init+0x274>)
 8005098:	428b      	cmp	r3, r1
 800509a:	d819      	bhi.n	80050d0 <HAL_I2C_Init+0x13c>
 800509c:	68fb      	ldr	r3, [r7, #12]
 800509e:	1e59      	subs	r1, r3, #1
 80050a0:	687b      	ldr	r3, [r7, #4]
 80050a2:	685b      	ldr	r3, [r3, #4]
 80050a4:	005b      	lsls	r3, r3, #1
 80050a6:	fbb1 f3f3 	udiv	r3, r1, r3
 80050aa:	1c59      	adds	r1, r3, #1
 80050ac:	f640 73fc 	movw	r3, #4092	@ 0xffc
 80050b0:	400b      	ands	r3, r1
 80050b2:	2b00      	cmp	r3, #0
 80050b4:	d00a      	beq.n	80050cc <HAL_I2C_Init+0x138>
 80050b6:	68fb      	ldr	r3, [r7, #12]
 80050b8:	1e59      	subs	r1, r3, #1
 80050ba:	687b      	ldr	r3, [r7, #4]
 80050bc:	685b      	ldr	r3, [r3, #4]
 80050be:	005b      	lsls	r3, r3, #1
 80050c0:	fbb1 f3f3 	udiv	r3, r1, r3
 80050c4:	3301      	adds	r3, #1
 80050c6:	f3c3 030b 	ubfx	r3, r3, #0, #12
 80050ca:	e051      	b.n	8005170 <HAL_I2C_Init+0x1dc>
 80050cc:	2304      	movs	r3, #4
 80050ce:	e04f      	b.n	8005170 <HAL_I2C_Init+0x1dc>
 80050d0:	687b      	ldr	r3, [r7, #4]
 80050d2:	689b      	ldr	r3, [r3, #8]
 80050d4:	2b00      	cmp	r3, #0
 80050d6:	d111      	bne.n	80050fc <HAL_I2C_Init+0x168>
 80050d8:	68fb      	ldr	r3, [r7, #12]
 80050da:	1e58      	subs	r0, r3, #1
 80050dc:	687b      	ldr	r3, [r7, #4]
 80050de:	6859      	ldr	r1, [r3, #4]
 80050e0:	460b      	mov	r3, r1
 80050e2:	005b      	lsls	r3, r3, #1
 80050e4:	440b      	add	r3, r1
 80050e6:	fbb0 f3f3 	udiv	r3, r0, r3
 80050ea:	3301      	adds	r3, #1
 80050ec:	f3c3 030b 	ubfx	r3, r3, #0, #12
 80050f0:	2b00      	cmp	r3, #0
 80050f2:	bf0c      	ite	eq
 80050f4:	2301      	moveq	r3, #1
 80050f6:	2300      	movne	r3, #0
 80050f8:	b2db      	uxtb	r3, r3
 80050fa:	e012      	b.n	8005122 <HAL_I2C_Init+0x18e>
 80050fc:	68fb      	ldr	r3, [r7, #12]
 80050fe:	1e58      	subs	r0, r3, #1
 8005100:	687b      	ldr	r3, [r7, #4]
 8005102:	6859      	ldr	r1, [r3, #4]
 8005104:	460b      	mov	r3, r1
 8005106:	009b      	lsls	r3, r3, #2
 8005108:	440b      	add	r3, r1
 800510a:	0099      	lsls	r1, r3, #2
 800510c:	440b      	add	r3, r1
 800510e:	fbb0 f3f3 	udiv	r3, r0, r3
 8005112:	3301      	adds	r3, #1
 8005114:	f3c3 030b 	ubfx	r3, r3, #0, #12
 8005118:	2b00      	cmp	r3, #0
 800511a:	bf0c      	ite	eq
 800511c:	2301      	moveq	r3, #1
 800511e:	2300      	movne	r3, #0
 8005120:	b2db      	uxtb	r3, r3
 8005122:	2b00      	cmp	r3, #0
 8005124:	d001      	beq.n	800512a <HAL_I2C_Init+0x196>
 8005126:	2301      	movs	r3, #1
 8005128:	e022      	b.n	8005170 <HAL_I2C_Init+0x1dc>
 800512a:	687b      	ldr	r3, [r7, #4]
 800512c:	689b      	ldr	r3, [r3, #8]
 800512e:	2b00      	cmp	r3, #0
 8005130:	d10e      	bne.n	8005150 <HAL_I2C_Init+0x1bc>
 8005132:	68fb      	ldr	r3, [r7, #12]
 8005134:	1e58      	subs	r0, r3, #1
 8005136:	687b      	ldr	r3, [r7, #4]
 8005138:	6859      	ldr	r1, [r3, #4]
 800513a:	460b      	mov	r3, r1
 800513c:	005b      	lsls	r3, r3, #1
 800513e:	440b      	add	r3, r1
 8005140:	fbb0 f3f3 	udiv	r3, r0, r3
 8005144:	3301      	adds	r3, #1
 8005146:	f3c3 030b 	ubfx	r3, r3, #0, #12
 800514a:	f443 4300 	orr.w	r3, r3, #32768	@ 0x8000
 800514e:	e00f      	b.n	8005170 <HAL_I2C_Init+0x1dc>
 8005150:	68fb      	ldr	r3, [r7, #12]
 8005152:	1e58      	subs	r0, r3, #1
 8005154:	687b      	ldr	r3, [r7, #4]
 8005156:	6859      	ldr	r1, [r3, #4]
 8005158:	460b      	mov	r3, r1
 800515a:	009b      	lsls	r3, r3, #2
 800515c:	440b      	add	r3, r1
 800515e:	0099      	lsls	r1, r3, #2
 8005160:	440b      	add	r3, r1
 8005162:	fbb0 f3f3 	udiv	r3, r0, r3
 8005166:	3301      	adds	r3, #1
 8005168:	f3c3 030b 	ubfx	r3, r3, #0, #12
 800516c:	f443 4340 	orr.w	r3, r3, #49152	@ 0xc000
 8005170:	6879      	ldr	r1, [r7, #4]
 8005172:	6809      	ldr	r1, [r1, #0]
 8005174:	4313      	orrs	r3, r2
 8005176:	61cb      	str	r3, [r1, #28]

  /*---------------------------- I2Cx CR1 Configuration ----------------------*/
  /* Configure I2Cx: Generalcall and NoStretch mode */
  MODIFY_REG(hi2c->Instance->CR1, (I2C_CR1_ENGC | I2C_CR1_NOSTRETCH), (hi2c->Init.GeneralCallMode | hi2c->Init.NoStretchMode));
 8005178:	687b      	ldr	r3, [r7, #4]
 800517a:	681b      	ldr	r3, [r3, #0]
 800517c:	681b      	ldr	r3, [r3, #0]
 800517e:	f023 01c0 	bic.w	r1, r3, #192	@ 0xc0
 8005182:	687b      	ldr	r3, [r7, #4]
 8005184:	69da      	ldr	r2, [r3, #28]
 8005186:	687b      	ldr	r3, [r7, #4]
 8005188:	6a1b      	ldr	r3, [r3, #32]
 800518a:	431a      	orrs	r2, r3
 800518c:	687b      	ldr	r3, [r7, #4]
 800518e:	681b      	ldr	r3, [r3, #0]
 8005190:	430a      	orrs	r2, r1
 8005192:	601a      	str	r2, [r3, #0]

  /*---------------------------- I2Cx OAR1 Configuration ---------------------*/
  /* Configure I2Cx: Own Address1 and addressing mode */
  MODIFY_REG(hi2c->Instance->OAR1, (I2C_OAR1_ADDMODE | I2C_OAR1_ADD8_9 | I2C_OAR1_ADD1_7 | I2C_OAR1_ADD0), (hi2c->Init.AddressingMode | hi2c->Init.OwnAddress1));
 8005194:	687b      	ldr	r3, [r7, #4]
 8005196:	681b      	ldr	r3, [r3, #0]
 8005198:	689b      	ldr	r3, [r3, #8]
 800519a:	f423 4303 	bic.w	r3, r3, #33536	@ 0x8300
 800519e:	f023 03ff 	bic.w	r3, r3, #255	@ 0xff
 80051a2:	687a      	ldr	r2, [r7, #4]
 80051a4:	6911      	ldr	r1, [r2, #16]
 80051a6:	687a      	ldr	r2, [r7, #4]
 80051a8:	68d2      	ldr	r2, [r2, #12]
 80051aa:	4311      	orrs	r1, r2
 80051ac:	687a      	ldr	r2, [r7, #4]
 80051ae:	6812      	ldr	r2, [r2, #0]
 80051b0:	430b      	orrs	r3, r1
 80051b2:	6093      	str	r3, [r2, #8]

  /*---------------------------- I2Cx OAR2 Configuration ---------------------*/
  /* Configure I2Cx: Dual mode and Own Address2 */
  MODIFY_REG(hi2c->Instance->OAR2, (I2C_OAR2_ENDUAL | I2C_OAR2_ADD2), (hi2c->Init.DualAddressMode | hi2c->Init.OwnAddress2));
 80051b4:	687b      	ldr	r3, [r7, #4]
 80051b6:	681b      	ldr	r3, [r3, #0]
 80051b8:	68db      	ldr	r3, [r3, #12]
 80051ba:	f023 01ff 	bic.w	r1, r3, #255	@ 0xff
 80051be:	687b      	ldr	r3, [r7, #4]
 80051c0:	695a      	ldr	r2, [r3, #20]
 80051c2:	687b      	ldr	r3, [r7, #4]
 80051c4:	699b      	ldr	r3, [r3, #24]
 80051c6:	431a      	orrs	r2, r3
 80051c8:	687b      	ldr	r3, [r7, #4]
 80051ca:	681b      	ldr	r3, [r3, #0]
 80051cc:	430a      	orrs	r2, r1
 80051ce:	60da      	str	r2, [r3, #12]

  /* Enable the selected I2C peripheral */
  __HAL_I2C_ENABLE(hi2c);
 80051d0:	687b      	ldr	r3, [r7, #4]
 80051d2:	681b      	ldr	r3, [r3, #0]
 80051d4:	681a      	ldr	r2, [r3, #0]
 80051d6:	687b      	ldr	r3, [r7, #4]
 80051d8:	681b      	ldr	r3, [r3, #0]
 80051da:	f042 0201 	orr.w	r2, r2, #1
 80051de:	601a      	str	r2, [r3, #0]

  hi2c->ErrorCode = HAL_I2C_ERROR_NONE;
 80051e0:	687b      	ldr	r3, [r7, #4]
 80051e2:	2200      	movs	r2, #0
 80051e4:	641a      	str	r2, [r3, #64]	@ 0x40
  hi2c->State = HAL_I2C_STATE_READY;
 80051e6:	687b      	ldr	r3, [r7, #4]
 80051e8:	2220      	movs	r2, #32
 80051ea:	f883 203d 	strb.w	r2, [r3, #61]	@ 0x3d
  hi2c->PreviousState = I2C_STATE_NONE;
 80051ee:	687b      	ldr	r3, [r7, #4]
 80051f0:	2200      	movs	r2, #0
 80051f2:	631a      	str	r2, [r3, #48]	@ 0x30
  hi2c->Mode = HAL_I2C_MODE_NONE;
 80051f4:	687b      	ldr	r3, [r7, #4]
 80051f6:	2200      	movs	r2, #0
 80051f8:	f883 203e 	strb.w	r2, [r3, #62]	@ 0x3e

  return HAL_OK;
 80051fc:	2300      	movs	r3, #0
}
 80051fe:	4618      	mov	r0, r3
 8005200:	3710      	adds	r7, #16
 8005202:	46bd      	mov	sp, r7
 8005204:	bd80      	pop	{r7, pc}
 8005206:	bf00      	nop
 8005208:	000186a0 	.word	0x000186a0
 800520c:	001e847f 	.word	0x001e847f
 8005210:	003d08ff 	.word	0x003d08ff
 8005214:	431bde83 	.word	0x431bde83
 8005218:	10624dd3 	.word	0x10624dd3

0800521c <HAL_I2C_DeInit>:
  * @param  hi2c Pointer to a I2C_HandleTypeDef structure that contains
  *         the configuration information for the specified I2C.
  * @retval HAL status
  */
HAL_StatusTypeDef HAL_I2C_DeInit(I2C_HandleTypeDef *hi2c)
{
 800521c:	b580      	push	{r7, lr}
 800521e:	b082      	sub	sp, #8
 8005220:	af00      	add	r7, sp, #0
 8005222:	6078      	str	r0, [r7, #4]
  /* Check the I2C handle allocation */
  if (hi2c == NULL)
 8005224:	687b      	ldr	r3, [r7, #4]
 8005226:	2b00      	cmp	r3, #0
 8005228:	d101      	bne.n	800522e <HAL_I2C_DeInit+0x12>
  {
    return HAL_ERROR;
 800522a:	2301      	movs	r3, #1
 800522c:	e021      	b.n	8005272 <HAL_I2C_DeInit+0x56>
  }

  /* Check the parameters */
  assert_param(IS_I2C_ALL_INSTANCE(hi2c->Instance));

  hi2c->State = HAL_I2C_STATE_BUSY;
 800522e:	687b      	ldr	r3, [r7, #4]
 8005230:	2224      	movs	r2, #36	@ 0x24
 8005232:	f883 203d 	strb.w	r2, [r3, #61]	@ 0x3d

  /* Disable the I2C Peripheral Clock */
  __HAL_I2C_DISABLE(hi2c);
 8005236:	687b      	ldr	r3, [r7, #4]
 8005238:	681b      	ldr	r3, [r3, #0]
 800523a:	681a      	ldr	r2, [r3, #0]
 800523c:	687b      	ldr	r3, [r7, #4]
 800523e:	681b      	ldr	r3, [r3, #0]
 8005240:	f022 0201 	bic.w	r2, r2, #1
 8005244:	601a      	str	r2, [r3, #0]

  /* DeInit the low level hardware: GPIO, CLOCK, NVIC */
  hi2c->MspDeInitCallback(hi2c);
#else
  /* DeInit the low level hardware: GPIO, CLOCK, NVIC */
  HAL_I2C_MspDeInit(hi2c);
 8005246:	6878      	ldr	r0, [r7, #4]
 8005248:	f7fd fbf2 	bl	8002a30 <HAL_I2C_MspDeInit>
#endif /* USE_HAL_I2C_REGISTER_CALLBACKS */

  hi2c->ErrorCode     = HAL_I2C_ERROR_NONE;
 800524c:	687b      	ldr	r3, [r7, #4]
 800524e:	2200      	movs	r2, #0
 8005250:	641a      	str	r2, [r3, #64]	@ 0x40
  hi2c->State         = HAL_I2C_STATE_RESET;
 8005252:	687b      	ldr	r3, [r7, #4]
 8005254:	2200      	movs	r2, #0
 8005256:	f883 203d 	strb.w	r2, [r3, #61]	@ 0x3d
  hi2c->PreviousState = I2C_STATE_NONE;
 800525a:	687b      	ldr	r3, [r7, #4]
 800525c:	2200      	movs	r2, #0
 800525e:	631a      	str	r2, [r3, #48]	@ 0x30
  hi2c->Mode          = HAL_I2C_MODE_NONE;
 8005260:	687b      	ldr	r3, [r7, #4]
 8005262:	2200      	movs	r2, #0
 8005264:	f883 203e 	strb.w	r2, [r3, #62]	@ 0x3e

  /* Release Lock */
  __HAL_UNLOCK(hi2c);
 8005268:	687b      	ldr	r3, [r7, #4]
 800526a:	2200      	movs	r2, #0
 800526c:	f883 203c 	strb.w	r2, [r3, #60]	@ 0x3c

  return HAL_OK;
 8005270:	2300      	movs	r3, #0
}
 8005272:	4618      	mov	r0, r3
 8005274:	3708      	adds	r7, #8
 8005276:	46bd      	mov	sp, r7
 8005278:	bd80      	pop	{r7, pc}
	...

0800527c <HAL_I2C_Master_Transmit>:
  * @param  Size Amount of data to be sent
  * @param  Timeout Timeout duration
  * @retval HAL status
  */
HAL_StatusTypeDef HAL_I2C_Master_Transmit(I2C_HandleTypeDef *hi2c, uint16_t DevAddress, uint8_t *pData, uint16_t Size, uint32_t Timeout)
{
 800527c:	b580      	push	{r7, lr}
 800527e:	b088      	sub	sp, #32
 8005280:	af02      	add	r7, sp, #8
 8005282:	60f8      	str	r0, [r7, #12]
 8005284:	607a      	str	r2, [r7, #4]
 8005286:	461a      	mov	r2, r3
 8005288:	460b      	mov	r3, r1
 800528a:	817b      	strh	r3, [r7, #10]
 800528c:	4613      	mov	r3, r2
 800528e:	813b      	strh	r3, [r7, #8]
  /* Init tickstart for timeout management*/
  uint32_t tickstart = HAL_GetTick();
 8005290:	f7fd ffb8 	bl	8003204 <HAL_GetTick>
 8005294:	6178      	str	r0, [r7, #20]

  if (hi2c->State == HAL_I2C_STATE_READY)
 8005296:	68fb      	ldr	r3, [r7, #12]
 8005298:	f893 303d 	ldrb.w	r3, [r3, #61]	@ 0x3d
 800529c:	b2db      	uxtb	r3, r3
 800529e:	2b20      	cmp	r3, #32
 80052a0:	f040 80e0 	bne.w	8005464 <HAL_I2C_Master_Transmit+0x1e8>
  {
    /* Wait until BUSY flag is reset */
    if (I2C_WaitOnFlagUntilTimeout(hi2c, I2C_FLAG_BUSY, SET, I2C_TIMEOUT_BUSY_FLAG, tickstart) != HAL_OK)
 80052a4:	697b      	ldr	r3, [r7, #20]
 80052a6:	9300      	str	r3, [sp, #0]
 80052a8:	2319      	movs	r3, #25
 80052aa:	2201      	movs	r2, #1
 80052ac:	4970      	ldr	r1, [pc, #448]	@ (8005470 <HAL_I2C_Master_Transmit+0x1f4>)
 80052ae:	68f8      	ldr	r0, [r7, #12]
 80052b0:	f000 fc64 	bl	8005b7c <I2C_WaitOnFlagUntilTimeout>
 80052b4:	4603      	mov	r3, r0
 80052b6:	2b00      	cmp	r3, #0
 80052b8:	d001      	beq.n	80052be <HAL_I2C_Master_Transmit+0x42>
    {
      return HAL_BUSY;
 80052ba:	2302      	movs	r3, #2
 80052bc:	e0d3      	b.n	8005466 <HAL_I2C_Master_Transmit+0x1ea>
    }

    /* Process Locked */
    __HAL_LOCK(hi2c);
 80052be:	68fb      	ldr	r3, [r7, #12]
 80052c0:	f893 303c 	ldrb.w	r3, [r3, #60]	@ 0x3c
 80052c4:	2b01      	cmp	r3, #1
 80052c6:	d101      	bne.n	80052cc <HAL_I2C_Master_Transmit+0x50>
 80052c8:	2302      	movs	r3, #2
 80052ca:	e0cc      	b.n	8005466 <HAL_I2C_Master_Transmit+0x1ea>
 80052cc:	68fb      	ldr	r3, [r7, #12]
 80052ce:	2201      	movs	r2, #1
 80052d0:	f883 203c 	strb.w	r2, [r3, #60]	@ 0x3c

    /* Check if the I2C is already enabled */
    if ((hi2c->Instance->CR1 & I2C_CR1_PE) != I2C_CR1_PE)
 80052d4:	68fb      	ldr	r3, [r7, #12]
 80052d6:	681b      	ldr	r3, [r3, #0]
 80052d8:	681b      	ldr	r3, [r3, #0]
 80052da:	f003 0301 	and.w	r3, r3, #1
 80052de:	2b01      	cmp	r3, #1
 80052e0:	d007      	beq.n	80052f2 <HAL_I2C_Master_Transmit+0x76>
    {
      /* Enable I2C peripheral */
      __HAL_I2C_ENABLE(hi2c);
 80052e2:	68fb      	ldr	r3, [r7, #12]
 80052e4:	681b      	ldr	r3, [r3, #0]
 80052e6:	681a      	ldr	r2, [r3, #0]
 80052e8:	68fb      	ldr	r3, [r7, #12]
 80052ea:	681b      	ldr	r3, [r3, #0]
 80052ec:	f042 0201 	orr.w	r2, r2, #1
 80052f0:	601a      	str	r2, [r3, #0]
    }

    /* Disable Pos */
    CLEAR_BIT(hi2c->Instance->CR1, I2C_CR1_POS);
 80052f2:	68fb      	ldr	r3, [r7, #12]
 80052f4:	681b      	ldr	r3, [r3, #0]
 80052f6:	681a      	ldr	r2, [r3, #0]
 80052f8:	68fb      	ldr	r3, [r7, #12]
 80052fa:	681b      	ldr	r3, [r3, #0]
 80052fc:	f422 6200 	bic.w	r2, r2, #2048	@ 0x800
 8005300:	601a      	str	r2, [r3, #0]

    hi2c->State       = HAL_I2C_STATE_BUSY_TX;
 8005302:	68fb      	ldr	r3, [r7, #12]
 8005304:	2221      	movs	r2, #33	@ 0x21
 8005306:	f883 203d 	strb.w	r2, [r3, #61]	@ 0x3d
    hi2c->Mode        = HAL_I2C_MODE_MASTER;
 800530a:	68fb      	ldr	r3, [r7, #12]
 800530c:	2210      	movs	r2, #16
 800530e:	f883 203e 	strb.w	r2, [r3, #62]	@ 0x3e
    hi2c->ErrorCode   = HAL_I2C_ERROR_NONE;
 8005312:	68fb      	ldr	r3, [r7, #12]
 8005314:	2200      	movs	r2, #0
 8005316:	641a      	str	r2, [r3, #64]	@ 0x40

    /* Prepare transfer parameters */
    hi2c->pBuffPtr    = pData;
 8005318:	68fb      	ldr	r3, [r7, #12]
 800531a:	687a      	ldr	r2, [r7, #4]
 800531c:	625a      	str	r2, [r3, #36]	@ 0x24
    hi2c->XferCount   = Size;
 800531e:	68fb      	ldr	r3, [r7, #12]
 8005320:	893a      	ldrh	r2, [r7, #8]
 8005322:	855a      	strh	r2, [r3, #42]	@ 0x2a
    hi2c->XferSize    = hi2c->XferCount;
 8005324:	68fb      	ldr	r3, [r7, #12]
 8005326:	8d5b      	ldrh	r3, [r3, #42]	@ 0x2a
 8005328:	b29a      	uxth	r2, r3
 800532a:	68fb      	ldr	r3, [r7, #12]
 800532c:	851a      	strh	r2, [r3, #40]	@ 0x28
    hi2c->XferOptions = I2C_NO_OPTION_FRAME;
 800532e:	68fb      	ldr	r3, [r7, #12]
 8005330:	4a50      	ldr	r2, [pc, #320]	@ (8005474 <HAL_I2C_Master_Transmit+0x1f8>)
 8005332:	62da      	str	r2, [r3, #44]	@ 0x2c

    /* Send Slave Address */
    if (I2C_MasterRequestWrite(hi2c, DevAddress, Timeout, tickstart) != HAL_OK)
 8005334:	8979      	ldrh	r1, [r7, #10]
 8005336:	697b      	ldr	r3, [r7, #20]
 8005338:	6a3a      	ldr	r2, [r7, #32]
 800533a:	68f8      	ldr	r0, [r7, #12]
 800533c:	f000 face 	bl	80058dc <I2C_MasterRequestWrite>
 8005340:	4603      	mov	r3, r0
 8005342:	2b00      	cmp	r3, #0
 8005344:	d001      	beq.n	800534a <HAL_I2C_Master_Transmit+0xce>
    {
      return HAL_ERROR;
 8005346:	2301      	movs	r3, #1
 8005348:	e08d      	b.n	8005466 <HAL_I2C_Master_Transmit+0x1ea>
    }

    /* Clear ADDR flag */
    __HAL_I2C_CLEAR_ADDRFLAG(hi2c);
 800534a:	2300      	movs	r3, #0
 800534c:	613b      	str	r3, [r7, #16]
 800534e:	68fb      	ldr	r3, [r7, #12]
 8005350:	681b      	ldr	r3, [r3, #0]
 8005352:	695b      	ldr	r3, [r3, #20]
 8005354:	613b      	str	r3, [r7, #16]
 8005356:	68fb      	ldr	r3, [r7, #12]
 8005358:	681b      	ldr	r3, [r3, #0]
 800535a:	699b      	ldr	r3, [r3, #24]
 800535c:	613b      	str	r3, [r7, #16]
 800535e:	693b      	ldr	r3, [r7, #16]

    while (hi2c->XferSize > 0U)
 8005360:	e066      	b.n	8005430 <HAL_I2C_Master_Transmit+0x1b4>
    {
      /* Wait until TXE flag is set */
      if (I2C_WaitOnTXEFlagUntilTimeout(hi2c, Timeout, tickstart) != HAL_OK)
 8005362:	697a      	ldr	r2, [r7, #20]
 8005364:	6a39      	ldr	r1, [r7, #32]
 8005366:	68f8      	ldr	r0, [r7, #12]
 8005368:	f000 fd22 	bl	8005db0 <I2C_WaitOnTXEFlagUntilTimeout>
 800536c:	4603      	mov	r3, r0
 800536e:	2b00      	cmp	r3, #0
 8005370:	d00d      	beq.n	800538e <HAL_I2C_Master_Transmit+0x112>
      {
        if (hi2c->ErrorCode == HAL_I2C_ERROR_AF)
 8005372:	68fb      	ldr	r3, [r7, #12]
 8005374:	6c1b      	ldr	r3, [r3, #64]	@ 0x40
 8005376:	2b04      	cmp	r3, #4
 8005378:	d107      	bne.n	800538a <HAL_I2C_Master_Transmit+0x10e>
        {
          /* Generate Stop */
          SET_BIT(hi2c->Instance->CR1, I2C_CR1_STOP);
 800537a:	68fb      	ldr	r3, [r7, #12]
 800537c:	681b      	ldr	r3, [r3, #0]
 800537e:	681a      	ldr	r2, [r3, #0]
 8005380:	68fb      	ldr	r3, [r7, #12]
 8005382:	681b      	ldr	r3, [r3, #0]
 8005384:	f442 7200 	orr.w	r2, r2, #512	@ 0x200
 8005388:	601a      	str	r2, [r3, #0]
        }
        return HAL_ERROR;
 800538a:	2301      	movs	r3, #1
 800538c:	e06b      	b.n	8005466 <HAL_I2C_Master_Transmit+0x1ea>
      }

      /* Write data to DR */
      hi2c->Instance->DR = *hi2c->pBuffPtr;
 800538e:	68fb      	ldr	r3, [r7, #12]
 8005390:	6a5b      	ldr	r3, [r3, #36]	@ 0x24
 8005392:	781a      	ldrb	r2, [r3, #0]
 8005394:	68fb      	ldr	r3, [r7, #12]
 8005396:	681b      	ldr	r3, [r3, #0]
 8005398:	611a      	str	r2, [r3, #16]

      /* Increment Buffer pointer */
      hi2c->pBuffPtr++;
 800539a:	68fb      	ldr	r3, [r7, #12]
 800539c:	6a5b      	ldr	r3, [r3, #36]	@ 0x24
 800539e:	1c5a      	adds	r2, r3, #1
 80053a0:	68fb      	ldr	r3, [r7, #12]
 80053a2:	625a      	str	r2, [r3, #36]	@ 0x24

      /* Update counter */
      hi2c->XferCount--;
 80053a4:	68fb      	ldr	r3, [r7, #12]
 80053a6:	8d5b      	ldrh	r3, [r3, #42]	@ 0x2a
 80053a8:	b29b      	uxth	r3, r3
 80053aa:	3b01      	subs	r3, #1
 80053ac:	b29a      	uxth	r2, r3
 80053ae:	68fb      	ldr	r3, [r7, #12]
 80053b0:	855a      	strh	r2, [r3, #42]	@ 0x2a
      hi2c->XferSize--;
 80053b2:	68fb      	ldr	r3, [r7, #12]
 80053b4:	8d1b      	ldrh	r3, [r3, #40]	@ 0x28
 80053b6:	3b01      	subs	r3, #1
 80053b8:	b29a      	uxth	r2, r3
 80053ba:	68fb      	ldr	r3, [r7, #12]
 80053bc:	851a      	strh	r2, [r3, #40]	@ 0x28

      if ((__HAL_I2C_GET_FLAG(hi2c, I2C_FLAG_BTF) == SET) && (hi2c->XferSize != 0U))
 80053be:	68fb      	ldr	r3, [r7, #12]
 80053c0:	681b      	ldr	r3, [r3, #0]
 80053c2:	695b      	ldr	r3, [r3, #20]
 80053c4:	f003 0304 	and.w	r3, r3, #4
 80053c8:	2b04      	cmp	r3, #4
 80053ca:	d11b      	bne.n	8005404 <HAL_I2C_Master_Transmit+0x188>
 80053cc:	68fb      	ldr	r3, [r7, #12]
 80053ce:	8d1b      	ldrh	r3, [r3, #40]	@ 0x28
 80053d0:	2b00      	cmp	r3, #0
 80053d2:	d017      	beq.n	8005404 <HAL_I2C_Master_Transmit+0x188>
      {
        /* Write data to DR */
        hi2c->Instance->DR = *hi2c->pBuffPtr;
 80053d4:	68fb      	ldr	r3, [r7, #12]
 80053d6:	6a5b      	ldr	r3, [r3, #36]	@ 0x24
 80053d8:	781a      	ldrb	r2, [r3, #0]
 80053da:	68fb      	ldr	r3, [r7, #12]
 80053dc:	681b      	ldr	r3, [r3, #0]
 80053de:	611a      	str	r2, [r3, #16]

        /* Increment Buffer pointer */
        hi2c->pBuffPtr++;
 80053e0:	68fb      	ldr	r3, [r7, #12]
 80053e2:	6a5b      	ldr	r3, [r3, #36]	@ 0x24
 80053e4:	1c5a      	adds	r2, r3, #1
 80053e6:	68fb      	ldr	r3, [r7, #12]
 80053e8:	625a      	str	r2, [r3, #36]	@ 0x24

        /* Update counter */
        hi2c->XferCount--;
 80053ea:	68fb      	ldr	r3, [r7, #12]
 80053ec:	8d5b      	ldrh	r3, [r3, #42]	@ 0x2a
 80053ee:	b29b      	uxth	r3, r3
 80053f0:	3b01      	subs	r3, #1
 80053f2:	b29a      	uxth	r2, r3
 80053f4:	68fb      	ldr	r3, [r7, #12]
 80053f6:	855a      	strh	r2, [r3, #42]	@ 0x2a
        hi2c->XferSize--;
 80053f8:	68fb      	ldr	r3, [r7, #12]
 80053fa:	8d1b      	ldrh	r3, [r3, #40]	@ 0x28
 80053fc:	3b01      	subs	r3, #1
 80053fe:	b29a      	uxth	r2, r3
 8005400:	68fb      	ldr	r3, [r7, #12]
 8005402:	851a      	strh	r2, [r3, #40]	@ 0x28
      }

      /* Wait until BTF flag is set */
      if (I2C_WaitOnBTFFlagUntilTimeout(hi2c, Timeout, tickstart) != HAL_OK)
 8005404:	697a      	ldr	r2, [r7, #20]
 8005406:	6a39      	ldr	r1, [r7, #32]
 8005408:	68f8      	ldr	r0, [r7, #12]
 800540a:	f000 fd19 	bl	8005e40 <I2C_WaitOnBTFFlagUntilTimeout>
 800540e:	4603      	mov	r3, r0
 8005410:	2b00      	cmp	r3, #0
 8005412:	d00d      	beq.n	8005430 <HAL_I2C_Master_Transmit+0x1b4>
      {
        if (hi2c->ErrorCode == HAL_I2C_ERROR_AF)
 8005414:	68fb      	ldr	r3, [r7, #12]
 8005416:	6c1b      	ldr	r3, [r3, #64]	@ 0x40
 8005418:	2b04      	cmp	r3, #4
 800541a:	d107      	bne.n	800542c <HAL_I2C_Master_Transmit+0x1b0>
        {
          /* Generate Stop */
          SET_BIT(hi2c->Instance->CR1, I2C_CR1_STOP);
 800541c:	68fb      	ldr	r3, [r7, #12]
 800541e:	681b      	ldr	r3, [r3, #0]
 8005420:	681a      	ldr	r2, [r3, #0]
 8005422:	68fb      	ldr	r3, [r7, #12]
 8005424:	681b      	ldr	r3, [r3, #0]
 8005426:	f442 7200 	orr.w	r2, r2, #512	@ 0x200
 800542a:	601a      	str	r2, [r3, #0]
        }
        return HAL_ERROR;
 800542c:	2301      	movs	r3, #1
 800542e:	e01a      	b.n	8005466 <HAL_I2C_Master_Transmit+0x1ea>
    while (hi2c->XferSize > 0U)
 8005430:	68fb      	ldr	r3, [r7, #12]
 8005432:	8d1b      	ldrh	r3, [r3, #40]	@ 0x28
 8005434:	2b00      	cmp	r3, #0
 8005436:	d194      	bne.n	8005362 <HAL_I2C_Master_Transmit+0xe6>
      }
    }

    /* Generate Stop */
    SET_BIT(hi2c->Instance->CR1, I2C_CR1_STOP);
 8005438:	68fb      	ldr	r3, [r7, #12]
 800543a:	681b      	ldr	r3, [r3, #0]
 800543c:	681a      	ldr	r2, [r3, #0]
 800543e:	68fb      	ldr	r3, [r7, #12]
 8005440:	681b      	ldr	r3, [r3, #0]
 8005442:	f442 7200 	orr.w	r2, r2, #512	@ 0x200
 8005446:	601a      	str	r2, [r3, #0]

    hi2c->State = HAL_I2C_STATE_READY;
 8005448:	68fb      	ldr	r3, [r7, #12]
 800544a:	2220      	movs	r2, #32
 800544c:	f883 203d 	strb.w	r2, [r3, #61]	@ 0x3d
    hi2c->Mode = HAL_I2C_MODE_NONE;
 8005450:	68fb      	ldr	r3, [r7, #12]
 8005452:	2200      	movs	r2, #0
 8005454:	f883 203e 	strb.w	r2, [r3, #62]	@ 0x3e

    /* Process Unlocked */
    __HAL_UNLOCK(hi2c);
 8005458:	68fb      	ldr	r3, [r7, #12]
 800545a:	2200      	movs	r2, #0
 800545c:	f883 203c 	strb.w	r2, [r3, #60]	@ 0x3c

    return HAL_OK;
 8005460:	2300      	movs	r3, #0
 8005462:	e000      	b.n	8005466 <HAL_I2C_Master_Transmit+0x1ea>
  }
  else
  {
    return HAL_BUSY;
 8005464:	2302      	movs	r3, #2
  }
}
 8005466:	4618      	mov	r0, r3
 8005468:	3718      	adds	r7, #24
 800546a:	46bd      	mov	sp, r7
 800546c:	bd80      	pop	{r7, pc}
 800546e:	bf00      	nop
 8005470:	00100002 	.word	0x00100002
 8005474:	ffff0000 	.word	0xffff0000

08005478 <HAL_I2C_Master_Receive>:
  * @param  Size Amount of data to be sent
  * @param  Timeout Timeout duration
  * @retval HAL status
  */
HAL_StatusTypeDef HAL_I2C_Master_Receive(I2C_HandleTypeDef *hi2c, uint16_t DevAddress, uint8_t *pData, uint16_t Size, uint32_t Timeout)
{
 8005478:	b580      	push	{r7, lr}
 800547a:	b08c      	sub	sp, #48	@ 0x30
 800547c:	af02      	add	r7, sp, #8
 800547e:	60f8      	str	r0, [r7, #12]
 8005480:	607a      	str	r2, [r7, #4]
 8005482:	461a      	mov	r2, r3
 8005484:	460b      	mov	r3, r1
 8005486:	817b      	strh	r3, [r7, #10]
 8005488:	4613      	mov	r3, r2
 800548a:	813b      	strh	r3, [r7, #8]
  /* Init tickstart for timeout management*/
  uint32_t tickstart = HAL_GetTick();
 800548c:	f7fd feba 	bl	8003204 <HAL_GetTick>
 8005490:	6278      	str	r0, [r7, #36]	@ 0x24

  if (hi2c->State == HAL_I2C_STATE_READY)
 8005492:	68fb      	ldr	r3, [r7, #12]
 8005494:	f893 303d 	ldrb.w	r3, [r3, #61]	@ 0x3d
 8005498:	b2db      	uxtb	r3, r3
 800549a:	2b20      	cmp	r3, #32
 800549c:	f040 8217 	bne.w	80058ce <HAL_I2C_Master_Receive+0x456>
  {
    /* Wait until BUSY flag is reset */
    if (I2C_WaitOnFlagUntilTimeout(hi2c, I2C_FLAG_BUSY, SET, I2C_TIMEOUT_BUSY_FLAG, tickstart) != HAL_OK)
 80054a0:	6a7b      	ldr	r3, [r7, #36]	@ 0x24
 80054a2:	9300      	str	r3, [sp, #0]
 80054a4:	2319      	movs	r3, #25
 80054a6:	2201      	movs	r2, #1
 80054a8:	497c      	ldr	r1, [pc, #496]	@ (800569c <HAL_I2C_Master_Receive+0x224>)
 80054aa:	68f8      	ldr	r0, [r7, #12]
 80054ac:	f000 fb66 	bl	8005b7c <I2C_WaitOnFlagUntilTimeout>
 80054b0:	4603      	mov	r3, r0
 80054b2:	2b00      	cmp	r3, #0
 80054b4:	d001      	beq.n	80054ba <HAL_I2C_Master_Receive+0x42>
    {
      return HAL_BUSY;
 80054b6:	2302      	movs	r3, #2
 80054b8:	e20a      	b.n	80058d0 <HAL_I2C_Master_Receive+0x458>
    }

    /* Process Locked */
    __HAL_LOCK(hi2c);
 80054ba:	68fb      	ldr	r3, [r7, #12]
 80054bc:	f893 303c 	ldrb.w	r3, [r3, #60]	@ 0x3c
 80054c0:	2b01      	cmp	r3, #1
 80054c2:	d101      	bne.n	80054c8 <HAL_I2C_Master_Receive+0x50>
 80054c4:	2302      	movs	r3, #2
 80054c6:	e203      	b.n	80058d0 <HAL_I2C_Master_Receive+0x458>
 80054c8:	68fb      	ldr	r3, [r7, #12]
 80054ca:	2201      	movs	r2, #1
 80054cc:	f883 203c 	strb.w	r2, [r3, #60]	@ 0x3c

    /* Check if the I2C is already enabled */
    if ((hi2c->Instance->CR1 & I2C_CR1_PE) != I2C_CR1_PE)
 80054d0:	68fb      	ldr	r3, [r7, #12]
 80054d2:	681b      	ldr	r3, [r3, #0]
 80054d4:	681b      	ldr	r3, [r3, #0]
 80054d6:	f003 0301 	and.w	r3, r3, #1
 80054da:	2b01      	cmp	r3, #1
 80054dc:	d007      	beq.n	80054ee <HAL_I2C_Master_Receive+0x76>
    {
      /* Enable I2C peripheral */
      __HAL_I2C_ENABLE(hi2c);
 80054de:	68fb      	ldr	r3, [r7, #12]
 80054e0:	681b      	ldr	r3, [r3, #0]
 80054e2:	681a      	ldr	r2, [r3, #0]
 80054e4:	68fb      	ldr	r3, [r7, #12]
 80054e6:	681b      	ldr	r3, [r3, #0]
 80054e8:	f042 0201 	orr.w	r2, r2, #1
 80054ec:	601a      	str	r2, [r3, #0]
    }

    /* Disable Pos */
    CLEAR_BIT(hi2c->Instance->CR1, I2C_CR1_POS);
 80054ee:	68fb      	ldr	r3, [r7, #12]
 80054f0:	681b      	ldr	r3, [r3, #0]
 80054f2:	681a      	ldr	r2, [r3, #0]
 80054f4:	68fb      	ldr	r3, [r7, #12]
 80054f6:	681b      	ldr	r3, [r3, #0]
 80054f8:	f422 6200 	bic.w	r2, r2, #2048	@ 0x800
 80054fc:	601a      	str	r2, [r3, #0]

    hi2c->State       = HAL_I2C_STATE_BUSY_RX;
 80054fe:	68fb      	ldr	r3, [r7, #12]
 8005500:	2222      	movs	r2, #34	@ 0x22
 8005502:	f883 203d 	strb.w	r2, [r3, #61]	@ 0x3d
    hi2c->Mode        = HAL_I2C_MODE_MASTER;
 8005506:	68fb      	ldr	r3, [r7, #12]
 8005508:	2210      	movs	r2, #16
 800550a:	f883 203e 	strb.w	r2, [r3, #62]	@ 0x3e
    hi2c->ErrorCode   = HAL_I2C_ERROR_NONE;
 800550e:	68fb      	ldr	r3, [r7, #12]
 8005510:	2200      	movs	r2, #0
 8005512:	641a      	str	r2, [r3, #64]	@ 0x40

    /* Prepare transfer parameters */
    hi2c->pBuffPtr    = pData;
 8005514:	68fb      	ldr	r3, [r7, #12]
 8005516:	687a      	ldr	r2, [r7, #4]
 8005518:	625a      	str	r2, [r3, #36]	@ 0x24
    hi2c->XferCount   = Size;
 800551a:	68fb      	ldr	r3, [r7, #12]
 800551c:	893a      	ldrh	r2, [r7, #8]
 800551e:	855a      	strh	r2, [r3, #42]	@ 0x2a
    hi2c->XferSize    = hi2c->XferCount;
 8005520:	68fb      	ldr	r3, [r7, #12]
 8005522:	8d5b      	ldrh	r3, [r3, #42]	@ 0x2a
 8005524:	b29a      	uxth	r2, r3
 8005526:	68fb      	ldr	r3, [r7, #12]
 8005528:	851a      	strh	r2, [r3, #40]	@ 0x28
    hi2c->XferOptions = I2C_NO_OPTION_FRAME;
 800552a:	68fb      	ldr	r3, [r7, #12]
 800552c:	4a5c      	ldr	r2, [pc, #368]	@ (80056a0 <HAL_I2C_Master_Receive+0x228>)
 800552e:	62da      	str	r2, [r3, #44]	@ 0x2c

    /* Send Slave Address */
    if (I2C_MasterRequestRead(hi2c, DevAddress, Timeout, tickstart) != HAL_OK)
 8005530:	8979      	ldrh	r1, [r7, #10]
 8005532:	6a7b      	ldr	r3, [r7, #36]	@ 0x24
 8005534:	6b3a      	ldr	r2, [r7, #48]	@ 0x30
 8005536:	68f8      	ldr	r0, [r7, #12]
 8005538:	f000 fa52 	bl	80059e0 <I2C_MasterRequestRead>
 800553c:	4603      	mov	r3, r0
 800553e:	2b00      	cmp	r3, #0
 8005540:	d001      	beq.n	8005546 <HAL_I2C_Master_Receive+0xce>
    {
      return HAL_ERROR;
 8005542:	2301      	movs	r3, #1
 8005544:	e1c4      	b.n	80058d0 <HAL_I2C_Master_Receive+0x458>
    }

    if (hi2c->XferSize == 0U)
 8005546:	68fb      	ldr	r3, [r7, #12]
 8005548:	8d1b      	ldrh	r3, [r3, #40]	@ 0x28
 800554a:	2b00      	cmp	r3, #0
 800554c:	d113      	bne.n	8005576 <HAL_I2C_Master_Receive+0xfe>
    {
      /* Clear ADDR flag */
      __HAL_I2C_CLEAR_ADDRFLAG(hi2c);
 800554e:	2300      	movs	r3, #0
 8005550:	623b      	str	r3, [r7, #32]
 8005552:	68fb      	ldr	r3, [r7, #12]
 8005554:	681b      	ldr	r3, [r3, #0]
 8005556:	695b      	ldr	r3, [r3, #20]
 8005558:	623b      	str	r3, [r7, #32]
 800555a:	68fb      	ldr	r3, [r7, #12]
 800555c:	681b      	ldr	r3, [r3, #0]
 800555e:	699b      	ldr	r3, [r3, #24]
 8005560:	623b      	str	r3, [r7, #32]
 8005562:	6a3b      	ldr	r3, [r7, #32]

      /* Generate Stop */
      SET_BIT(hi2c->Instance->CR1, I2C_CR1_STOP);
 8005564:	68fb      	ldr	r3, [r7, #12]
 8005566:	681b      	ldr	r3, [r3, #0]
 8005568:	681a      	ldr	r2, [r3, #0]
 800556a:	68fb      	ldr	r3, [r7, #12]
 800556c:	681b      	ldr	r3, [r3, #0]
 800556e:	f442 7200 	orr.w	r2, r2, #512	@ 0x200
 8005572:	601a      	str	r2, [r3, #0]
 8005574:	e198      	b.n	80058a8 <HAL_I2C_Master_Receive+0x430>
    }
    else if (hi2c->XferSize == 1U)
 8005576:	68fb      	ldr	r3, [r7, #12]
 8005578:	8d1b      	ldrh	r3, [r3, #40]	@ 0x28
 800557a:	2b01      	cmp	r3, #1
 800557c:	d11b      	bne.n	80055b6 <HAL_I2C_Master_Receive+0x13e>
    {
      /* Disable Acknowledge */
      CLEAR_BIT(hi2c->Instance->CR1, I2C_CR1_ACK);
 800557e:	68fb      	ldr	r3, [r7, #12]
 8005580:	681b      	ldr	r3, [r3, #0]
 8005582:	681a      	ldr	r2, [r3, #0]
 8005584:	68fb      	ldr	r3, [r7, #12]
 8005586:	681b      	ldr	r3, [r3, #0]
 8005588:	f422 6280 	bic.w	r2, r2, #1024	@ 0x400
 800558c:	601a      	str	r2, [r3, #0]

      /* Clear ADDR flag */
      __HAL_I2C_CLEAR_ADDRFLAG(hi2c);
 800558e:	2300      	movs	r3, #0
 8005590:	61fb      	str	r3, [r7, #28]
 8005592:	68fb      	ldr	r3, [r7, #12]
 8005594:	681b      	ldr	r3, [r3, #0]
 8005596:	695b      	ldr	r3, [r3, #20]
 8005598:	61fb      	str	r3, [r7, #28]
 800559a:	68fb      	ldr	r3, [r7, #12]
 800559c:	681b      	ldr	r3, [r3, #0]
 800559e:	699b      	ldr	r3, [r3, #24]
 80055a0:	61fb      	str	r3, [r7, #28]
 80055a2:	69fb      	ldr	r3, [r7, #28]

      /* Generate Stop */
      SET_BIT(hi2c->Instance->CR1, I2C_CR1_STOP);
 80055a4:	68fb      	ldr	r3, [r7, #12]
 80055a6:	681b      	ldr	r3, [r3, #0]
 80055a8:	681a      	ldr	r2, [r3, #0]
 80055aa:	68fb      	ldr	r3, [r7, #12]
 80055ac:	681b      	ldr	r3, [r3, #0]
 80055ae:	f442 7200 	orr.w	r2, r2, #512	@ 0x200
 80055b2:	601a      	str	r2, [r3, #0]
 80055b4:	e178      	b.n	80058a8 <HAL_I2C_Master_Receive+0x430>
    }
    else if (hi2c->XferSize == 2U)
 80055b6:	68fb      	ldr	r3, [r7, #12]
 80055b8:	8d1b      	ldrh	r3, [r3, #40]	@ 0x28
 80055ba:	2b02      	cmp	r3, #2
 80055bc:	d11b      	bne.n	80055f6 <HAL_I2C_Master_Receive+0x17e>
    {
      /* Disable Acknowledge */
      CLEAR_BIT(hi2c->Instance->CR1, I2C_CR1_ACK);
 80055be:	68fb      	ldr	r3, [r7, #12]
 80055c0:	681b      	ldr	r3, [r3, #0]
 80055c2:	681a      	ldr	r2, [r3, #0]
 80055c4:	68fb      	ldr	r3, [r7, #12]
 80055c6:	681b      	ldr	r3, [r3, #0]
 80055c8:	f422 6280 	bic.w	r2, r2, #1024	@ 0x400
 80055cc:	601a      	str	r2, [r3, #0]

      /* Enable Pos */
      SET_BIT(hi2c->Instance->CR1, I2C_CR1_POS);
 80055ce:	68fb      	ldr	r3, [r7, #12]
 80055d0:	681b      	ldr	r3, [r3, #0]
 80055d2:	681a      	ldr	r2, [r3, #0]
 80055d4:	68fb      	ldr	r3, [r7, #12]
 80055d6:	681b      	ldr	r3, [r3, #0]
 80055d8:	f442 6200 	orr.w	r2, r2, #2048	@ 0x800
 80055dc:	601a      	str	r2, [r3, #0]

      /* Clear ADDR flag */
      __HAL_I2C_CLEAR_ADDRFLAG(hi2c);
 80055de:	2300      	movs	r3, #0
 80055e0:	61bb      	str	r3, [r7, #24]
 80055e2:	68fb      	ldr	r3, [r7, #12]
 80055e4:	681b      	ldr	r3, [r3, #0]
 80055e6:	695b      	ldr	r3, [r3, #20]
 80055e8:	61bb      	str	r3, [r7, #24]
 80055ea:	68fb      	ldr	r3, [r7, #12]
 80055ec:	681b      	ldr	r3, [r3, #0]
 80055ee:	699b      	ldr	r3, [r3, #24]
 80055f0:	61bb      	str	r3, [r7, #24]
 80055f2:	69bb      	ldr	r3, [r7, #24]
 80055f4:	e158      	b.n	80058a8 <HAL_I2C_Master_Receive+0x430>
    }
    else
    {
      /* Enable Acknowledge */
      SET_BIT(hi2c->Instance->CR1, I2C_CR1_ACK);
 80055f6:	68fb      	ldr	r3, [r7, #12]
 80055f8:	681b      	ldr	r3, [r3, #0]
 80055fa:	681a      	ldr	r2, [r3, #0]
 80055fc:	68fb      	ldr	r3, [r7, #12]
 80055fe:	681b      	ldr	r3, [r3, #0]
 8005600:	f442 6280 	orr.w	r2, r2, #1024	@ 0x400
 8005604:	601a      	str	r2, [r3, #0]

      /* Clear ADDR flag */
      __HAL_I2C_CLEAR_ADDRFLAG(hi2c);
 8005606:	2300      	movs	r3, #0
 8005608:	617b      	str	r3, [r7, #20]
 800560a:	68fb      	ldr	r3, [r7, #12]
 800560c:	681b      	ldr	r3, [r3, #0]
 800560e:	695b      	ldr	r3, [r3, #20]
 8005610:	617b      	str	r3, [r7, #20]
 8005612:	68fb      	ldr	r3, [r7, #12]
 8005614:	681b      	ldr	r3, [r3, #0]
 8005616:	699b      	ldr	r3, [r3, #24]
 8005618:	617b      	str	r3, [r7, #20]
 800561a:	697b      	ldr	r3, [r7, #20]
    }

    while (hi2c->XferSize > 0U)
 800561c:	e144      	b.n	80058a8 <HAL_I2C_Master_Receive+0x430>
    {
      if (hi2c->XferSize <= 3U)
 800561e:	68fb      	ldr	r3, [r7, #12]
 8005620:	8d1b      	ldrh	r3, [r3, #40]	@ 0x28
 8005622:	2b03      	cmp	r3, #3
 8005624:	f200 80f1 	bhi.w	800580a <HAL_I2C_Master_Receive+0x392>
      {
        /* One byte */
        if (hi2c->XferSize == 1U)
 8005628:	68fb      	ldr	r3, [r7, #12]
 800562a:	8d1b      	ldrh	r3, [r3, #40]	@ 0x28
 800562c:	2b01      	cmp	r3, #1
 800562e:	d123      	bne.n	8005678 <HAL_I2C_Master_Receive+0x200>
        {
          /* Wait until RXNE flag is set */
          if (I2C_WaitOnRXNEFlagUntilTimeout(hi2c, Timeout, tickstart) != HAL_OK)
 8005630:	6a7a      	ldr	r2, [r7, #36]	@ 0x24
 8005632:	6b39      	ldr	r1, [r7, #48]	@ 0x30
 8005634:	68f8      	ldr	r0, [r7, #12]
 8005636:	f000 fc4b 	bl	8005ed0 <I2C_WaitOnRXNEFlagUntilTimeout>
 800563a:	4603      	mov	r3, r0
 800563c:	2b00      	cmp	r3, #0
 800563e:	d001      	beq.n	8005644 <HAL_I2C_Master_Receive+0x1cc>
          {
            return HAL_ERROR;
 8005640:	2301      	movs	r3, #1
 8005642:	e145      	b.n	80058d0 <HAL_I2C_Master_Receive+0x458>
          }

          /* Read data from DR */
          *hi2c->pBuffPtr = (uint8_t)hi2c->Instance->DR;
 8005644:	68fb      	ldr	r3, [r7, #12]
 8005646:	681b      	ldr	r3, [r3, #0]
 8005648:	691a      	ldr	r2, [r3, #16]
 800564a:	68fb      	ldr	r3, [r7, #12]
 800564c:	6a5b      	ldr	r3, [r3, #36]	@ 0x24
 800564e:	b2d2      	uxtb	r2, r2
 8005650:	701a      	strb	r2, [r3, #0]

          /* Increment Buffer pointer */
          hi2c->pBuffPtr++;
 8005652:	68fb      	ldr	r3, [r7, #12]
 8005654:	6a5b      	ldr	r3, [r3, #36]	@ 0x24
 8005656:	1c5a      	adds	r2, r3, #1
 8005658:	68fb      	ldr	r3, [r7, #12]
 800565a:	625a      	str	r2, [r3, #36]	@ 0x24

          /* Update counter */
          hi2c->XferSize--;
 800565c:	68fb      	ldr	r3, [r7, #12]
 800565e:	8d1b      	ldrh	r3, [r3, #40]	@ 0x28
 8005660:	3b01      	subs	r3, #1
 8005662:	b29a      	uxth	r2, r3
 8005664:	68fb      	ldr	r3, [r7, #12]
 8005666:	851a      	strh	r2, [r3, #40]	@ 0x28
          hi2c->XferCount--;
 8005668:	68fb      	ldr	r3, [r7, #12]
 800566a:	8d5b      	ldrh	r3, [r3, #42]	@ 0x2a
 800566c:	b29b      	uxth	r3, r3
 800566e:	3b01      	subs	r3, #1
 8005670:	b29a      	uxth	r2, r3
 8005672:	68fb      	ldr	r3, [r7, #12]
 8005674:	855a      	strh	r2, [r3, #42]	@ 0x2a
 8005676:	e117      	b.n	80058a8 <HAL_I2C_Master_Receive+0x430>
        }
        /* Two bytes */
        else if (hi2c->XferSize == 2U)
 8005678:	68fb      	ldr	r3, [r7, #12]
 800567a:	8d1b      	ldrh	r3, [r3, #40]	@ 0x28
 800567c:	2b02      	cmp	r3, #2
 800567e:	d14e      	bne.n	800571e <HAL_I2C_Master_Receive+0x2a6>
        {
          /* Wait until BTF flag is set */
          if (I2C_WaitOnFlagUntilTimeout(hi2c, I2C_FLAG_BTF, RESET, Timeout, tickstart) != HAL_OK)
 8005680:	6a7b      	ldr	r3, [r7, #36]	@ 0x24
 8005682:	9300      	str	r3, [sp, #0]
 8005684:	6b3b      	ldr	r3, [r7, #48]	@ 0x30
 8005686:	2200      	movs	r2, #0
 8005688:	4906      	ldr	r1, [pc, #24]	@ (80056a4 <HAL_I2C_Master_Receive+0x22c>)
 800568a:	68f8      	ldr	r0, [r7, #12]
 800568c:	f000 fa76 	bl	8005b7c <I2C_WaitOnFlagUntilTimeout>
 8005690:	4603      	mov	r3, r0
 8005692:	2b00      	cmp	r3, #0
 8005694:	d008      	beq.n	80056a8 <HAL_I2C_Master_Receive+0x230>
          {
            return HAL_ERROR;
 8005696:	2301      	movs	r3, #1
 8005698:	e11a      	b.n	80058d0 <HAL_I2C_Master_Receive+0x458>
 800569a:	bf00      	nop
 800569c:	00100002 	.word	0x00100002
 80056a0:	ffff0000 	.word	0xffff0000
 80056a4:	00010004 	.word	0x00010004
          }

          /* Generate Stop */
          SET_BIT(hi2c->Instance->CR1, I2C_CR1_STOP);
 80056a8:	68fb      	ldr	r3, [r7, #12]
 80056aa:	681b      	ldr	r3, [r3, #0]
 80056ac:	681a      	ldr	r2, [r3, #0]
 80056ae:	68fb      	ldr	r3, [r7, #12]
 80056b0:	681b      	ldr	r3, [r3, #0]
 80056b2:	f442 7200 	orr.w	r2, r2, #512	@ 0x200
 80056b6:	601a      	str	r2, [r3, #0]

          /* Read data from DR */
          *hi2c->pBuffPtr = (uint8_t)hi2c->Instance->DR;
 80056b8:	68fb      	ldr	r3, [r7, #12]
 80056ba:	681b      	ldr	r3, [r3, #0]
 80056bc:	691a      	ldr	r2, [r3, #16]
 80056be:	68fb      	ldr	r3, [r7, #12]
 80056c0:	6a5b      	ldr	r3, [r3, #36]	@ 0x24
 80056c2:	b2d2      	uxtb	r2, r2
 80056c4:	701a      	strb	r2, [r3, #0]

          /* Increment Buffer pointer */
          hi2c->pBuffPtr++;
 80056c6:	68fb      	ldr	r3, [r7, #12]
 80056c8:	6a5b      	ldr	r3, [r3, #36]	@ 0x24
 80056ca:	1c5a      	adds	r2, r3, #1
 80056cc:	68fb      	ldr	r3, [r7, #12]
 80056ce:	625a      	str	r2, [r3, #36]	@ 0x24

          /* Update counter */
          hi2c->XferSize--;
 80056d0:	68fb      	ldr	r3, [r7, #12]
 80056d2:	8d1b      	ldrh	r3, [r3, #40]	@ 0x28
 80056d4:	3b01      	subs	r3, #1
 80056d6:	b29a      	uxth	r2, r3
 80056d8:	68fb      	ldr	r3, [r7, #12]
 80056da:	851a      	strh	r2, [r3, #40]	@ 0x28
          hi2c->XferCount--;
 80056dc:	68fb      	ldr	r3, [r7, #12]
 80056de:	8d5b      	ldrh	r3, [r3, #42]	@ 0x2a
 80056e0:	b29b      	uxth	r3, r3
 80056e2:	3b01      	subs	r3, #1
 80056e4:	b29a      	uxth	r2, r3
 80056e6:	68fb      	ldr	r3, [r7, #12]
 80056e8:	855a      	strh	r2, [r3, #42]	@ 0x2a

          /* Read data from DR */
          *hi2c->pBuffPtr = (uint8_t)hi2c->Instance->DR;
 80056ea:	68fb      	ldr	r3, [r7, #12]
 80056ec:	681b      	ldr	r3, [r3, #0]
 80056ee:	691a      	ldr	r2, [r3, #16]
 80056f0:	68fb      	ldr	r3, [r7, #12]
 80056f2:	6a5b      	ldr	r3, [r3, #36]	@ 0x24
 80056f4:	b2d2      	uxtb	r2, r2
 80056f6:	701a      	strb	r2, [r3, #0]

          /* Increment Buffer pointer */
          hi2c->pBuffPtr++;
 80056f8:	68fb      	ldr	r3, [r7, #12]
 80056fa:	6a5b      	ldr	r3, [r3, #36]	@ 0x24
 80056fc:	1c5a      	adds	r2, r3, #1
 80056fe:	68fb      	ldr	r3, [r7, #12]
 8005700:	625a      	str	r2, [r3, #36]	@ 0x24

          /* Update counter */
          hi2c->XferSize--;
 8005702:	68fb      	ldr	r3, [r7, #12]
 8005704:	8d1b      	ldrh	r3, [r3, #40]	@ 0x28
 8005706:	3b01      	subs	r3, #1
 8005708:	b29a      	uxth	r2, r3
 800570a:	68fb      	ldr	r3, [r7, #12]
 800570c:	851a      	strh	r2, [r3, #40]	@ 0x28
          hi2c->XferCount--;
 800570e:	68fb      	ldr	r3, [r7, #12]
 8005710:	8d5b      	ldrh	r3, [r3, #42]	@ 0x2a
 8005712:	b29b      	uxth	r3, r3
 8005714:	3b01      	subs	r3, #1
 8005716:	b29a      	uxth	r2, r3
 8005718:	68fb      	ldr	r3, [r7, #12]
 800571a:	855a      	strh	r2, [r3, #42]	@ 0x2a
 800571c:	e0c4      	b.n	80058a8 <HAL_I2C_Master_Receive+0x430>
        }
        /* 3 Last bytes */
        else
        {
          /* Wait until BTF flag is set */
          if (I2C_WaitOnFlagUntilTimeout(hi2c, I2C_FLAG_BTF, RESET, Timeout, tickstart) != HAL_OK)
 800571e:	6a7b      	ldr	r3, [r7, #36]	@ 0x24
 8005720:	9300      	str	r3, [sp, #0]
 8005722:	6b3b      	ldr	r3, [r7, #48]	@ 0x30
 8005724:	2200      	movs	r2, #0
 8005726:	496c      	ldr	r1, [pc, #432]	@ (80058d8 <HAL_I2C_Master_Receive+0x460>)
 8005728:	68f8      	ldr	r0, [r7, #12]
 800572a:	f000 fa27 	bl	8005b7c <I2C_WaitOnFlagUntilTimeout>
 800572e:	4603      	mov	r3, r0
 8005730:	2b00      	cmp	r3, #0
 8005732:	d001      	beq.n	8005738 <HAL_I2C_Master_Receive+0x2c0>
          {
            return HAL_ERROR;
 8005734:	2301      	movs	r3, #1
 8005736:	e0cb      	b.n	80058d0 <HAL_I2C_Master_Receive+0x458>
          }

          /* Disable Acknowledge */
          CLEAR_BIT(hi2c->Instance->CR1, I2C_CR1_ACK);
 8005738:	68fb      	ldr	r3, [r7, #12]
 800573a:	681b      	ldr	r3, [r3, #0]
 800573c:	681a      	ldr	r2, [r3, #0]
 800573e:	68fb      	ldr	r3, [r7, #12]
 8005740:	681b      	ldr	r3, [r3, #0]
 8005742:	f422 6280 	bic.w	r2, r2, #1024	@ 0x400
 8005746:	601a      	str	r2, [r3, #0]

          /* Read data from DR */
          *hi2c->pBuffPtr = (uint8_t)hi2c->Instance->DR;
 8005748:	68fb      	ldr	r3, [r7, #12]
 800574a:	681b      	ldr	r3, [r3, #0]
 800574c:	691a      	ldr	r2, [r3, #16]
 800574e:	68fb      	ldr	r3, [r7, #12]
 8005750:	6a5b      	ldr	r3, [r3, #36]	@ 0x24
 8005752:	b2d2      	uxtb	r2, r2
 8005754:	701a      	strb	r2, [r3, #0]

          /* Increment Buffer pointer */
          hi2c->pBuffPtr++;
 8005756:	68fb      	ldr	r3, [r7, #12]
 8005758:	6a5b      	ldr	r3, [r3, #36]	@ 0x24
 800575a:	1c5a      	adds	r2, r3, #1
 800575c:	68fb      	ldr	r3, [r7, #12]
 800575e:	625a      	str	r2, [r3, #36]	@ 0x24

          /* Update counter */
          hi2c->XferSize--;
 8005760:	68fb      	ldr	r3, [r7, #12]
 8005762:	8d1b      	ldrh	r3, [r3, #40]	@ 0x28
 8005764:	3b01      	subs	r3, #1
 8005766:	b29a      	uxth	r2, r3
 8005768:	68fb      	ldr	r3, [r7, #12]
 800576a:	851a      	strh	r2, [r3, #40]	@ 0x28
          hi2c->XferCount--;
 800576c:	68fb      	ldr	r3, [r7, #12]
 800576e:	8d5b      	ldrh	r3, [r3, #42]	@ 0x2a
 8005770:	b29b      	uxth	r3, r3
 8005772:	3b01      	subs	r3, #1
 8005774:	b29a      	uxth	r2, r3
 8005776:	68fb      	ldr	r3, [r7, #12]
 8005778:	855a      	strh	r2, [r3, #42]	@ 0x2a

          /* Wait until BTF flag is set */
          if (I2C_WaitOnFlagUntilTimeout(hi2c, I2C_FLAG_BTF, RESET, Timeout, tickstart) != HAL_OK)
 800577a:	6a7b      	ldr	r3, [r7, #36]	@ 0x24
 800577c:	9300      	str	r3, [sp, #0]
 800577e:	6b3b      	ldr	r3, [r7, #48]	@ 0x30
 8005780:	2200      	movs	r2, #0
 8005782:	4955      	ldr	r1, [pc, #340]	@ (80058d8 <HAL_I2C_Master_Receive+0x460>)
 8005784:	68f8      	ldr	r0, [r7, #12]
 8005786:	f000 f9f9 	bl	8005b7c <I2C_WaitOnFlagUntilTimeout>
 800578a:	4603      	mov	r3, r0
 800578c:	2b00      	cmp	r3, #0
 800578e:	d001      	beq.n	8005794 <HAL_I2C_Master_Receive+0x31c>
          {
            return HAL_ERROR;
 8005790:	2301      	movs	r3, #1
 8005792:	e09d      	b.n	80058d0 <HAL_I2C_Master_Receive+0x458>
          }

          /* Generate Stop */
          SET_BIT(hi2c->Instance->CR1, I2C_CR1_STOP);
 8005794:	68fb      	ldr	r3, [r7, #12]
 8005796:	681b      	ldr	r3, [r3, #0]
 8005798:	681a      	ldr	r2, [r3, #0]
 800579a:	68fb      	ldr	r3, [r7, #12]
 800579c:	681b      	ldr	r3, [r3, #0]
 800579e:	f442 7200 	orr.w	r2, r2, #512	@ 0x200
 80057a2:	601a      	str	r2, [r3, #0]

          /* Read data from DR */
          *hi2c->pBuffPtr = (uint8_t)hi2c->Instance->DR;
 80057a4:	68fb      	ldr	r3, [r7, #12]
 80057a6:	681b      	ldr	r3, [r3, #0]
 80057a8:	691a      	ldr	r2, [r3, #16]
 80057aa:	68fb      	ldr	r3, [r7, #12]
 80057ac:	6a5b      	ldr	r3, [r3, #36]	@ 0x24
 80057ae:	b2d2      	uxtb	r2, r2
 80057b0:	701a      	strb	r2, [r3, #0]

          /* Increment Buffer pointer */
          hi2c->pBuffPtr++;
 80057b2:	68fb      	ldr	r3, [r7, #12]
 80057b4:	6a5b      	ldr	r3, [r3, #36]	@ 0x24
 80057b6:	1c5a      	adds	r2, r3, #1
 80057b8:	68fb      	ldr	r3, [r7, #12]
 80057ba:	625a      	str	r2, [r3, #36]	@ 0x24

          /* Update counter */
          hi2c->XferSize--;
 80057bc:	68fb      	ldr	r3, [r7, #12]
 80057be:	8d1b      	ldrh	r3, [r3, #40]	@ 0x28
 80057c0:	3b01      	subs	r3, #1
 80057c2:	b29a      	uxth	r2, r3
 80057c4:	68fb      	ldr	r3, [r7, #12]
 80057c6:	851a      	strh	r2, [r3, #40]	@ 0x28
          hi2c->XferCount--;
 80057c8:	68fb      	ldr	r3, [r7, #12]
 80057ca:	8d5b      	ldrh	r3, [r3, #42]	@ 0x2a
 80057cc:	b29b      	uxth	r3, r3
 80057ce:	3b01      	subs	r3, #1
 80057d0:	b29a      	uxth	r2, r3
 80057d2:	68fb      	ldr	r3, [r7, #12]
 80057d4:	855a      	strh	r2, [r3, #42]	@ 0x2a

          /* Read data from DR */
          *hi2c->pBuffPtr = (uint8_t)hi2c->Instance->DR;
 80057d6:	68fb      	ldr	r3, [r7, #12]
 80057d8:	681b      	ldr	r3, [r3, #0]
 80057da:	691a      	ldr	r2, [r3, #16]
 80057dc:	68fb      	ldr	r3, [r7, #12]
 80057de:	6a5b      	ldr	r3, [r3, #36]	@ 0x24
 80057e0:	b2d2      	uxtb	r2, r2
 80057e2:	701a      	strb	r2, [r3, #0]

          /* Increment Buffer pointer */
          hi2c->pBuffPtr++;
 80057e4:	68fb      	ldr	r3, [r7, #12]
 80057e6:	6a5b      	ldr	r3, [r3, #36]	@ 0x24
 80057e8:	1c5a      	adds	r2, r3, #1
 80057ea:	68fb      	ldr	r3, [r7, #12]
 80057ec:	625a      	str	r2, [r3, #36]	@ 0x24

          /* Update counter */
          hi2c->XferSize--;
 80057ee:	68fb      	ldr	r3, [r7, #12]
 80057f0:	8d1b      	ldrh	r3, [r3, #40]	@ 0x28
 80057f2:	3b01      	subs	r3, #1
 80057f4:	b29a      	uxth	r2, r3
 80057f6:	68fb      	ldr	r3, [r7, #12]
 80057f8:	851a      	strh	r2, [r3, #40]	@ 0x28
          hi2c->XferCount--;
 80057fa:	68fb      	ldr	r3, [r7, #12]
 80057fc:	8d5b      	ldrh	r3, [r3, #42]	@ 0x2a
 80057fe:	b29b      	uxth	r3, r3
 8005800:	3b01      	subs	r3, #1
 8005802:	b29a      	uxth	r2, r3
 8005804:	68fb      	ldr	r3, [r7, #12]
 8005806:	855a      	strh	r2, [r3, #42]	@ 0x2a
 8005808:	e04e      	b.n	80058a8 <HAL_I2C_Master_Receive+0x430>
        }
      }
      else
      {
        /* Wait until RXNE flag is set */
        if (I2C_WaitOnRXNEFlagUntilTimeout(hi2c, Timeout, tickstart) != HAL_OK)
 800580a:	6a7a      	ldr	r2, [r7, #36]	@ 0x24
 800580c:	6b39      	ldr	r1, [r7, #48]	@ 0x30
 800580e:	68f8      	ldr	r0, [r7, #12]
 8005810:	f000 fb5e 	bl	8005ed0 <I2C_WaitOnRXNEFlagUntilTimeout>
 8005814:	4603      	mov	r3, r0
 8005816:	2b00      	cmp	r3, #0
 8005818:	d001      	beq.n	800581e <HAL_I2C_Master_Receive+0x3a6>
        {
          return HAL_ERROR;
 800581a:	2301      	movs	r3, #1
 800581c:	e058      	b.n	80058d0 <HAL_I2C_Master_Receive+0x458>
        }

        /* Read data from DR */
        *hi2c->pBuffPtr = (uint8_t)hi2c->Instance->DR;
 800581e:	68fb      	ldr	r3, [r7, #12]
 8005820:	681b      	ldr	r3, [r3, #0]
 8005822:	691a      	ldr	r2, [r3, #16]
 8005824:	68fb      	ldr	r3, [r7, #12]
 8005826:	6a5b      	ldr	r3, [r3, #36]	@ 0x24
 8005828:	b2d2      	uxtb	r2, r2
 800582a:	701a      	strb	r2, [r3, #0]

        /* Increment Buffer pointer */
        hi2c->pBuffPtr++;
 800582c:	68fb      	ldr	r3, [r7, #12]
 800582e:	6a5b      	ldr	r3, [r3, #36]	@ 0x24
 8005830:	1c5a      	adds	r2, r3, #1
 8005832:	68fb      	ldr	r3, [r7, #12]
 8005834:	625a      	str	r2, [r3, #36]	@ 0x24

        /* Update counter */
        hi2c->XferSize--;
 8005836:	68fb      	ldr	r3, [r7, #12]
 8005838:	8d1b      	ldrh	r3, [r3, #40]	@ 0x28
 800583a:	3b01      	subs	r3, #1
 800583c:	b29a      	uxth	r2, r3
 800583e:	68fb      	ldr	r3, [r7, #12]
 8005840:	851a      	strh	r2, [r3, #40]	@ 0x28
        hi2c->XferCount--;
 8005842:	68fb      	ldr	r3, [r7, #12]
 8005844:	8d5b      	ldrh	r3, [r3, #42]	@ 0x2a
 8005846:	b29b      	uxth	r3, r3
 8005848:	3b01      	subs	r3, #1
 800584a:	b29a      	uxth	r2, r3
 800584c:	68fb      	ldr	r3, [r7, #12]
 800584e:	855a      	strh	r2, [r3, #42]	@ 0x2a

        if (__HAL_I2C_GET_FLAG(hi2c, I2C_FLAG_BTF) == SET)
 8005850:	68fb      	ldr	r3, [r7, #12]
 8005852:	681b      	ldr	r3, [r3, #0]
 8005854:	695b      	ldr	r3, [r3, #20]
 8005856:	f003 0304 	and.w	r3, r3, #4
 800585a:	2b04      	cmp	r3, #4
 800585c:	d124      	bne.n	80058a8 <HAL_I2C_Master_Receive+0x430>
        {

          if (hi2c->XferSize == 3U)
 800585e:	68fb      	ldr	r3, [r7, #12]
 8005860:	8d1b      	ldrh	r3, [r3, #40]	@ 0x28
 8005862:	2b03      	cmp	r3, #3
 8005864:	d107      	bne.n	8005876 <HAL_I2C_Master_Receive+0x3fe>
          {
            /* Disable Acknowledge */
            CLEAR_BIT(hi2c->Instance->CR1, I2C_CR1_ACK);
 8005866:	68fb      	ldr	r3, [r7, #12]
 8005868:	681b      	ldr	r3, [r3, #0]
 800586a:	681a      	ldr	r2, [r3, #0]
 800586c:	68fb      	ldr	r3, [r7, #12]
 800586e:	681b      	ldr	r3, [r3, #0]
 8005870:	f422 6280 	bic.w	r2, r2, #1024	@ 0x400
 8005874:	601a      	str	r2, [r3, #0]
          }

          /* Read data from DR */
          *hi2c->pBuffPtr = (uint8_t)hi2c->Instance->DR;
 8005876:	68fb      	ldr	r3, [r7, #12]
 8005878:	681b      	ldr	r3, [r3, #0]
 800587a:	691a      	ldr	r2, [r3, #16]
 800587c:	68fb      	ldr	r3, [r7, #12]
 800587e:	6a5b      	ldr	r3, [r3, #36]	@ 0x24
 8005880:	b2d2      	uxtb	r2, r2
 8005882:	701a      	strb	r2, [r3, #0]

          /* Increment Buffer pointer */
          hi2c->pBuffPtr++;
 8005884:	68fb      	ldr	r3, [r7, #12]
 8005886:	6a5b      	ldr	r3, [r3, #36]	@ 0x24
 8005888:	1c5a      	adds	r2, r3, #1
 800588a:	68fb      	ldr	r3, [r7, #12]
 800588c:	625a      	str	r2, [r3, #36]	@ 0x24

          /* Update counter */
          hi2c->XferSize--;
 800588e:	68fb      	ldr	r3, [r7, #12]
 8005890:	8d1b      	ldrh	r3, [r3, #40]	@ 0x28
 8005892:	3b01      	subs	r3, #1
 8005894:	b29a      	uxth	r2, r3
 8005896:	68fb      	ldr	r3, [r7, #12]
 8005898:	851a      	strh	r2, [r3, #40]	@ 0x28
          hi2c->XferCount--;
 800589a:	68fb      	ldr	r3, [r7, #12]
 800589c:	8d5b      	ldrh	r3, [r3, #42]	@ 0x2a
 800589e:	b29b      	uxth	r3, r3
 80058a0:	3b01      	subs	r3, #1
 80058a2:	b29a      	uxth	r2, r3
 80058a4:	68fb      	ldr	r3, [r7, #12]
 80058a6:	855a      	strh	r2, [r3, #42]	@ 0x2a
    while (hi2c->XferSize > 0U)
 80058a8:	68fb      	ldr	r3, [r7, #12]
 80058aa:	8d1b      	ldrh	r3, [r3, #40]	@ 0x28
 80058ac:	2b00      	cmp	r3, #0
 80058ae:	f47f aeb6 	bne.w	800561e <HAL_I2C_Master_Receive+0x1a6>
        }
      }
    }

    hi2c->State = HAL_I2C_STATE_READY;
 80058b2:	68fb      	ldr	r3, [r7, #12]
 80058b4:	2220      	movs	r2, #32
 80058b6:	f883 203d 	strb.w	r2, [r3, #61]	@ 0x3d
    hi2c->Mode = HAL_I2C_MODE_NONE;
 80058ba:	68fb      	ldr	r3, [r7, #12]
 80058bc:	2200      	movs	r2, #0
 80058be:	f883 203e 	strb.w	r2, [r3, #62]	@ 0x3e

    /* Process Unlocked */
    __HAL_UNLOCK(hi2c);
 80058c2:	68fb      	ldr	r3, [r7, #12]
 80058c4:	2200      	movs	r2, #0
 80058c6:	f883 203c 	strb.w	r2, [r3, #60]	@ 0x3c

    return HAL_OK;
 80058ca:	2300      	movs	r3, #0
 80058cc:	e000      	b.n	80058d0 <HAL_I2C_Master_Receive+0x458>
  }
  else
  {
    return HAL_BUSY;
 80058ce:	2302      	movs	r3, #2
  }
}
 80058d0:	4618      	mov	r0, r3
 80058d2:	3728      	adds	r7, #40	@ 0x28
 80058d4:	46bd      	mov	sp, r7
 80058d6:	bd80      	pop	{r7, pc}
 80058d8:	00010004 	.word	0x00010004

080058dc <I2C_MasterRequestWrite>:
  * @param  Timeout Timeout duration
  * @param  Tickstart Tick start value
  * @retval HAL status
  */
static HAL_StatusTypeDef I2C_MasterRequestWrite(I2C_HandleTypeDef *hi2c, uint16_t DevAddress, uint32_t Timeout, uint32_t Tickstart)
{
 80058dc:	b580      	push	{r7, lr}
 80058de:	b088      	sub	sp, #32
 80058e0:	af02      	add	r7, sp, #8
 80058e2:	60f8      	str	r0, [r7, #12]
 80058e4:	607a      	str	r2, [r7, #4]
 80058e6:	603b      	str	r3, [r7, #0]
 80058e8:	460b      	mov	r3, r1
 80058ea:	817b      	strh	r3, [r7, #10]
  /* Declaration of temporary variable to prevent undefined behavior of volatile usage */
  uint32_t CurrentXferOptions = hi2c->XferOptions;
 80058ec:	68fb      	ldr	r3, [r7, #12]
 80058ee:	6adb      	ldr	r3, [r3, #44]	@ 0x2c
 80058f0:	617b      	str	r3, [r7, #20]

  /* Generate Start condition if first transfer */
  if ((CurrentXferOptions == I2C_FIRST_AND_LAST_FRAME) || (CurrentXferOptions == I2C_FIRST_FRAME) || (CurrentXferOptions == I2C_NO_OPTION_FRAME))
 80058f2:	697b      	ldr	r3, [r7, #20]
 80058f4:	2b08      	cmp	r3, #8
 80058f6:	d006      	beq.n	8005906 <I2C_MasterRequestWrite+0x2a>
 80058f8:	697b      	ldr	r3, [r7, #20]
 80058fa:	2b01      	cmp	r3, #1
 80058fc:	d003      	beq.n	8005906 <I2C_MasterRequestWrite+0x2a>
 80058fe:	697b      	ldr	r3, [r7, #20]
 8005900:	f513 3f80 	cmn.w	r3, #65536	@ 0x10000
 8005904:	d108      	bne.n	8005918 <I2C_MasterRequestWrite+0x3c>
  {
    /* Generate Start */
    SET_BIT(hi2c->Instance->CR1, I2C_CR1_START);
 8005906:	68fb      	ldr	r3, [r7, #12]
 8005908:	681b      	ldr	r3, [r3, #0]
 800590a:	681a      	ldr	r2, [r3, #0]
 800590c:	68fb      	ldr	r3, [r7, #12]
 800590e:	681b      	ldr	r3, [r3, #0]
 8005910:	f442 7280 	orr.w	r2, r2, #256	@ 0x100
 8005914:	601a      	str	r2, [r3, #0]
 8005916:	e00b      	b.n	8005930 <I2C_MasterRequestWrite+0x54>
  }
  else if (hi2c->PreviousState == I2C_STATE_MASTER_BUSY_RX)
 8005918:	68fb      	ldr	r3, [r7, #12]
 800591a:	6b1b      	ldr	r3, [r3, #48]	@ 0x30
 800591c:	2b12      	cmp	r3, #18
 800591e:	d107      	bne.n	8005930 <I2C_MasterRequestWrite+0x54>
  {
    /* Generate ReStart */
    SET_BIT(hi2c->Instance->CR1, I2C_CR1_START);
 8005920:	68fb      	ldr	r3, [r7, #12]
 8005922:	681b      	ldr	r3, [r3, #0]
 8005924:	681a      	ldr	r2, [r3, #0]
 8005926:	68fb      	ldr	r3, [r7, #12]
 8005928:	681b      	ldr	r3, [r3, #0]
 800592a:	f442 7280 	orr.w	r2, r2, #256	@ 0x100
 800592e:	601a      	str	r2, [r3, #0]
  {
    /* Do nothing */
  }

  /* Wait until SB flag is set */
  if (I2C_WaitOnFlagUntilTimeout(hi2c, I2C_FLAG_SB, RESET, Timeout, Tickstart) != HAL_OK)
 8005930:	683b      	ldr	r3, [r7, #0]
 8005932:	9300      	str	r3, [sp, #0]
 8005934:	687b      	ldr	r3, [r7, #4]
 8005936:	2200      	movs	r2, #0
 8005938:	f04f 1101 	mov.w	r1, #65537	@ 0x10001
 800593c:	68f8      	ldr	r0, [r7, #12]
 800593e:	f000 f91d 	bl	8005b7c <I2C_WaitOnFlagUntilTimeout>
 8005942:	4603      	mov	r3, r0
 8005944:	2b00      	cmp	r3, #0
 8005946:	d00d      	beq.n	8005964 <I2C_MasterRequestWrite+0x88>
  {
    if (READ_BIT(hi2c->Instance->CR1, I2C_CR1_START) == I2C_CR1_START)
 8005948:	68fb      	ldr	r3, [r7, #12]
 800594a:	681b      	ldr	r3, [r3, #0]
 800594c:	681b      	ldr	r3, [r3, #0]
 800594e:	f403 7380 	and.w	r3, r3, #256	@ 0x100
 8005952:	f5b3 7f80 	cmp.w	r3, #256	@ 0x100
 8005956:	d103      	bne.n	8005960 <I2C_MasterRequestWrite+0x84>
    {
      hi2c->ErrorCode = HAL_I2C_WRONG_START;
 8005958:	68fb      	ldr	r3, [r7, #12]
 800595a:	f44f 7200 	mov.w	r2, #512	@ 0x200
 800595e:	641a      	str	r2, [r3, #64]	@ 0x40
    }
    return HAL_TIMEOUT;
 8005960:	2303      	movs	r3, #3
 8005962:	e035      	b.n	80059d0 <I2C_MasterRequestWrite+0xf4>
  }

  if (hi2c->Init.AddressingMode == I2C_ADDRESSINGMODE_7BIT)
 8005964:	68fb      	ldr	r3, [r7, #12]
 8005966:	691b      	ldr	r3, [r3, #16]
 8005968:	f5b3 4f80 	cmp.w	r3, #16384	@ 0x4000
 800596c:	d108      	bne.n	8005980 <I2C_MasterRequestWrite+0xa4>
  {
    /* Send slave address */
    hi2c->Instance->DR = I2C_7BIT_ADD_WRITE(DevAddress);
 800596e:	897b      	ldrh	r3, [r7, #10]
 8005970:	b2db      	uxtb	r3, r3
 8005972:	461a      	mov	r2, r3
 8005974:	68fb      	ldr	r3, [r7, #12]
 8005976:	681b      	ldr	r3, [r3, #0]
 8005978:	f002 02fe 	and.w	r2, r2, #254	@ 0xfe
 800597c:	611a      	str	r2, [r3, #16]
 800597e:	e01b      	b.n	80059b8 <I2C_MasterRequestWrite+0xdc>
  }
  else
  {
    /* Send header of slave address */
    hi2c->Instance->DR = I2C_10BIT_HEADER_WRITE(DevAddress);
 8005980:	897b      	ldrh	r3, [r7, #10]
 8005982:	11db      	asrs	r3, r3, #7
 8005984:	b2db      	uxtb	r3, r3
 8005986:	f003 0306 	and.w	r3, r3, #6
 800598a:	b2db      	uxtb	r3, r3
 800598c:	f063 030f 	orn	r3, r3, #15
 8005990:	b2da      	uxtb	r2, r3
 8005992:	68fb      	ldr	r3, [r7, #12]
 8005994:	681b      	ldr	r3, [r3, #0]
 8005996:	611a      	str	r2, [r3, #16]

    /* Wait until ADD10 flag is set */
    if (I2C_WaitOnMasterAddressFlagUntilTimeout(hi2c, I2C_FLAG_ADD10, Timeout, Tickstart) != HAL_OK)
 8005998:	683b      	ldr	r3, [r7, #0]
 800599a:	687a      	ldr	r2, [r7, #4]
 800599c:	490e      	ldr	r1, [pc, #56]	@ (80059d8 <I2C_MasterRequestWrite+0xfc>)
 800599e:	68f8      	ldr	r0, [r7, #12]
 80059a0:	f000 f966 	bl	8005c70 <I2C_WaitOnMasterAddressFlagUntilTimeout>
 80059a4:	4603      	mov	r3, r0
 80059a6:	2b00      	cmp	r3, #0
 80059a8:	d001      	beq.n	80059ae <I2C_MasterRequestWrite+0xd2>
    {
      return HAL_ERROR;
 80059aa:	2301      	movs	r3, #1
 80059ac:	e010      	b.n	80059d0 <I2C_MasterRequestWrite+0xf4>
    }

    /* Send slave address */
    hi2c->Instance->DR = I2C_10BIT_ADDRESS(DevAddress);
 80059ae:	897b      	ldrh	r3, [r7, #10]
 80059b0:	b2da      	uxtb	r2, r3
 80059b2:	68fb      	ldr	r3, [r7, #12]
 80059b4:	681b      	ldr	r3, [r3, #0]
 80059b6:	611a      	str	r2, [r3, #16]
  }

  /* Wait until ADDR flag is set */
  if (I2C_WaitOnMasterAddressFlagUntilTimeout(hi2c, I2C_FLAG_ADDR, Timeout, Tickstart) != HAL_OK)
 80059b8:	683b      	ldr	r3, [r7, #0]
 80059ba:	687a      	ldr	r2, [r7, #4]
 80059bc:	4907      	ldr	r1, [pc, #28]	@ (80059dc <I2C_MasterRequestWrite+0x100>)
 80059be:	68f8      	ldr	r0, [r7, #12]
 80059c0:	f000 f956 	bl	8005c70 <I2C_WaitOnMasterAddressFlagUntilTimeout>
 80059c4:	4603      	mov	r3, r0
 80059c6:	2b00      	cmp	r3, #0
 80059c8:	d001      	beq.n	80059ce <I2C_MasterRequestWrite+0xf2>
  {
    return HAL_ERROR;
 80059ca:	2301      	movs	r3, #1
 80059cc:	e000      	b.n	80059d0 <I2C_MasterRequestWrite+0xf4>
  }

  return HAL_OK;
 80059ce:	2300      	movs	r3, #0
}
 80059d0:	4618      	mov	r0, r3
 80059d2:	3718      	adds	r7, #24
 80059d4:	46bd      	mov	sp, r7
 80059d6:	bd80      	pop	{r7, pc}
 80059d8:	00010008 	.word	0x00010008
 80059dc:	00010002 	.word	0x00010002

080059e0 <I2C_MasterRequestRead>:
  * @param  Timeout Timeout duration
  * @param  Tickstart Tick start value
  * @retval HAL status
  */
static HAL_StatusTypeDef I2C_MasterRequestRead(I2C_HandleTypeDef *hi2c, uint16_t DevAddress, uint32_t Timeout, uint32_t Tickstart)
{
 80059e0:	b580      	push	{r7, lr}
 80059e2:	b088      	sub	sp, #32
 80059e4:	af02      	add	r7, sp, #8
 80059e6:	60f8      	str	r0, [r7, #12]
 80059e8:	607a      	str	r2, [r7, #4]
 80059ea:	603b      	str	r3, [r7, #0]
 80059ec:	460b      	mov	r3, r1
 80059ee:	817b      	strh	r3, [r7, #10]
  /* Declaration of temporary variable to prevent undefined behavior of volatile usage */
  uint32_t CurrentXferOptions = hi2c->XferOptions;
 80059f0:	68fb      	ldr	r3, [r7, #12]
 80059f2:	6adb      	ldr	r3, [r3, #44]	@ 0x2c
 80059f4:	617b      	str	r3, [r7, #20]

  /* Enable Acknowledge */
  SET_BIT(hi2c->Instance->CR1, I2C_CR1_ACK);
 80059f6:	68fb      	ldr	r3, [r7, #12]
 80059f8:	681b      	ldr	r3, [r3, #0]
 80059fa:	681a      	ldr	r2, [r3, #0]
 80059fc:	68fb      	ldr	r3, [r7, #12]
 80059fe:	681b      	ldr	r3, [r3, #0]
 8005a00:	f442 6280 	orr.w	r2, r2, #1024	@ 0x400
 8005a04:	601a      	str	r2, [r3, #0]

  /* Generate Start condition if first transfer */
  if ((CurrentXferOptions == I2C_FIRST_AND_LAST_FRAME) || (CurrentXferOptions == I2C_FIRST_FRAME)  || (CurrentXferOptions == I2C_NO_OPTION_FRAME))
 8005a06:	697b      	ldr	r3, [r7, #20]
 8005a08:	2b08      	cmp	r3, #8
 8005a0a:	d006      	beq.n	8005a1a <I2C_MasterRequestRead+0x3a>
 8005a0c:	697b      	ldr	r3, [r7, #20]
 8005a0e:	2b01      	cmp	r3, #1
 8005a10:	d003      	beq.n	8005a1a <I2C_MasterRequestRead+0x3a>
 8005a12:	697b      	ldr	r3, [r7, #20]
 8005a14:	f513 3f80 	cmn.w	r3, #65536	@ 0x10000
 8005a18:	d108      	bne.n	8005a2c <I2C_MasterRequestRead+0x4c>
  {
    /* Generate Start */
    SET_BIT(hi2c->Instance->CR1, I2C_CR1_START);
 8005a1a:	68fb      	ldr	r3, [r7, #12]
 8005a1c:	681b      	ldr	r3, [r3, #0]
 8005a1e:	681a      	ldr	r2, [r3, #0]
 8005a20:	68fb      	ldr	r3, [r7, #12]
 8005a22:	681b      	ldr	r3, [r3, #0]
 8005a24:	f442 7280 	orr.w	r2, r2, #256	@ 0x100
 8005a28:	601a      	str	r2, [r3, #0]
 8005a2a:	e00b      	b.n	8005a44 <I2C_MasterRequestRead+0x64>
  }
  else if (hi2c->PreviousState == I2C_STATE_MASTER_BUSY_TX)
 8005a2c:	68fb      	ldr	r3, [r7, #12]
 8005a2e:	6b1b      	ldr	r3, [r3, #48]	@ 0x30
 8005a30:	2b11      	cmp	r3, #17
 8005a32:	d107      	bne.n	8005a44 <I2C_MasterRequestRead+0x64>
  {
    /* Generate ReStart */
    SET_BIT(hi2c->Instance->CR1, I2C_CR1_START);
 8005a34:	68fb      	ldr	r3, [r7, #12]
 8005a36:	681b      	ldr	r3, [r3, #0]
 8005a38:	681a      	ldr	r2, [r3, #0]
 8005a3a:	68fb      	ldr	r3, [r7, #12]
 8005a3c:	681b      	ldr	r3, [r3, #0]
 8005a3e:	f442 7280 	orr.w	r2, r2, #256	@ 0x100
 8005a42:	601a      	str	r2, [r3, #0]
  {
    /* Do nothing */
  }

  /* Wait until SB flag is set */
  if (I2C_WaitOnFlagUntilTimeout(hi2c, I2C_FLAG_SB, RESET, Timeout, Tickstart) != HAL_OK)
 8005a44:	683b      	ldr	r3, [r7, #0]
 8005a46:	9300      	str	r3, [sp, #0]
 8005a48:	687b      	ldr	r3, [r7, #4]
 8005a4a:	2200      	movs	r2, #0
 8005a4c:	f04f 1101 	mov.w	r1, #65537	@ 0x10001
 8005a50:	68f8      	ldr	r0, [r7, #12]
 8005a52:	f000 f893 	bl	8005b7c <I2C_WaitOnFlagUntilTimeout>
 8005a56:	4603      	mov	r3, r0
 8005a58:	2b00      	cmp	r3, #0
 8005a5a:	d00d      	beq.n	8005a78 <I2C_MasterRequestRead+0x98>
  {
    if (READ_BIT(hi2c->Instance->CR1, I2C_CR1_START) == I2C_CR1_START)
 8005a5c:	68fb      	ldr	r3, [r7, #12]
 8005a5e:	681b      	ldr	r3, [r3, #0]
 8005a60:	681b      	ldr	r3, [r3, #0]
 8005a62:	f403 7380 	and.w	r3, r3, #256	@ 0x100
 8005a66:	f5b3 7f80 	cmp.w	r3, #256	@ 0x100
 8005a6a:	d103      	bne.n	8005a74 <I2C_MasterRequestRead+0x94>
    {
      hi2c->ErrorCode = HAL_I2C_WRONG_START;
 8005a6c:	68fb      	ldr	r3, [r7, #12]
 8005a6e:	f44f 7200 	mov.w	r2, #512	@ 0x200
 8005a72:	641a      	str	r2, [r3, #64]	@ 0x40
    }
    return HAL_TIMEOUT;
 8005a74:	2303      	movs	r3, #3
 8005a76:	e079      	b.n	8005b6c <I2C_MasterRequestRead+0x18c>
  }

  if (hi2c->Init.AddressingMode == I2C_ADDRESSINGMODE_7BIT)
 8005a78:	68fb      	ldr	r3, [r7, #12]
 8005a7a:	691b      	ldr	r3, [r3, #16]
 8005a7c:	f5b3 4f80 	cmp.w	r3, #16384	@ 0x4000
 8005a80:	d108      	bne.n	8005a94 <I2C_MasterRequestRead+0xb4>
  {
    /* Send slave address */
    hi2c->Instance->DR = I2C_7BIT_ADD_READ(DevAddress);
 8005a82:	897b      	ldrh	r3, [r7, #10]
 8005a84:	b2db      	uxtb	r3, r3
 8005a86:	f043 0301 	orr.w	r3, r3, #1
 8005a8a:	b2da      	uxtb	r2, r3
 8005a8c:	68fb      	ldr	r3, [r7, #12]
 8005a8e:	681b      	ldr	r3, [r3, #0]
 8005a90:	611a      	str	r2, [r3, #16]
 8005a92:	e05f      	b.n	8005b54 <I2C_MasterRequestRead+0x174>
  }
  else
  {
    /* Send header of slave address */
    hi2c->Instance->DR = I2C_10BIT_HEADER_WRITE(DevAddress);
 8005a94:	897b      	ldrh	r3, [r7, #10]
 8005a96:	11db      	asrs	r3, r3, #7
 8005a98:	b2db      	uxtb	r3, r3
 8005a9a:	f003 0306 	and.w	r3, r3, #6
 8005a9e:	b2db      	uxtb	r3, r3
 8005aa0:	f063 030f 	orn	r3, r3, #15
 8005aa4:	b2da      	uxtb	r2, r3
 8005aa6:	68fb      	ldr	r3, [r7, #12]
 8005aa8:	681b      	ldr	r3, [r3, #0]
 8005aaa:	611a      	str	r2, [r3, #16]

    /* Wait until ADD10 flag is set */
    if (I2C_WaitOnMasterAddressFlagUntilTimeout(hi2c, I2C_FLAG_ADD10, Timeout, Tickstart) != HAL_OK)
 8005aac:	683b      	ldr	r3, [r7, #0]
 8005aae:	687a      	ldr	r2, [r7, #4]
 8005ab0:	4930      	ldr	r1, [pc, #192]	@ (8005b74 <I2C_MasterRequestRead+0x194>)
 8005ab2:	68f8      	ldr	r0, [r7, #12]
 8005ab4:	f000 f8dc 	bl	8005c70 <I2C_WaitOnMasterAddressFlagUntilTimeout>
 8005ab8:	4603      	mov	r3, r0
 8005aba:	2b00      	cmp	r3, #0
 8005abc:	d001      	beq.n	8005ac2 <I2C_MasterRequestRead+0xe2>
    {
      return HAL_ERROR;
 8005abe:	2301      	movs	r3, #1
 8005ac0:	e054      	b.n	8005b6c <I2C_MasterRequestRead+0x18c>
    }

    /* Send slave address */
    hi2c->Instance->DR = I2C_10BIT_ADDRESS(DevAddress);
 8005ac2:	897b      	ldrh	r3, [r7, #10]
 8005ac4:	b2da      	uxtb	r2, r3
 8005ac6:	68fb      	ldr	r3, [r7, #12]
 8005ac8:	681b      	ldr	r3, [r3, #0]
 8005aca:	611a      	str	r2, [r3, #16]

    /* Wait until ADDR flag is set */
    if (I2C_WaitOnMasterAddressFlagUntilTimeout(hi2c, I2C_FLAG_ADDR, Timeout, Tickstart) != HAL_OK)
 8005acc:	683b      	ldr	r3, [r7, #0]
 8005ace:	687a      	ldr	r2, [r7, #4]
 8005ad0:	4929      	ldr	r1, [pc, #164]	@ (8005b78 <I2C_MasterRequestRead+0x198>)
 8005ad2:	68f8      	ldr	r0, [r7, #12]
 8005ad4:	f000 f8cc 	bl	8005c70 <I2C_WaitOnMasterAddressFlagUntilTimeout>
 8005ad8:	4603      	mov	r3, r0
 8005ada:	2b00      	cmp	r3, #0
 8005adc:	d001      	beq.n	8005ae2 <I2C_MasterRequestRead+0x102>
    {
      return HAL_ERROR;
 8005ade:	2301      	movs	r3, #1
 8005ae0:	e044      	b.n	8005b6c <I2C_MasterRequestRead+0x18c>
    }

    /* Clear ADDR flag */
    __HAL_I2C_CLEAR_ADDRFLAG(hi2c);
 8005ae2:	2300      	movs	r3, #0
 8005ae4:	613b      	str	r3, [r7, #16]
 8005ae6:	68fb      	ldr	r3, [r7, #12]
 8005ae8:	681b      	ldr	r3, [r3, #0]
 8005aea:	695b      	ldr	r3, [r3, #20]
 8005aec:	613b      	str	r3, [r7, #16]
 8005aee:	68fb      	ldr	r3, [r7, #12]
 8005af0:	681b      	ldr	r3, [r3, #0]
 8005af2:	699b      	ldr	r3, [r3, #24]
 8005af4:	613b      	str	r3, [r7, #16]
 8005af6:	693b      	ldr	r3, [r7, #16]

    /* Generate Restart */
    SET_BIT(hi2c->Instance->CR1, I2C_CR1_START);
 8005af8:	68fb      	ldr	r3, [r7, #12]
 8005afa:	681b      	ldr	r3, [r3, #0]
 8005afc:	681a      	ldr	r2, [r3, #0]
 8005afe:	68fb      	ldr	r3, [r7, #12]
 8005b00:	681b      	ldr	r3, [r3, #0]
 8005b02:	f442 7280 	orr.w	r2, r2, #256	@ 0x100
 8005b06:	601a      	str	r2, [r3, #0]

    /* Wait until SB flag is set */
    if (I2C_WaitOnFlagUntilTimeout(hi2c, I2C_FLAG_SB, RESET, Timeout, Tickstart) != HAL_OK)
 8005b08:	683b      	ldr	r3, [r7, #0]
 8005b0a:	9300      	str	r3, [sp, #0]
 8005b0c:	687b      	ldr	r3, [r7, #4]
 8005b0e:	2200      	movs	r2, #0
 8005b10:	f04f 1101 	mov.w	r1, #65537	@ 0x10001
 8005b14:	68f8      	ldr	r0, [r7, #12]
 8005b16:	f000 f831 	bl	8005b7c <I2C_WaitOnFlagUntilTimeout>
 8005b1a:	4603      	mov	r3, r0
 8005b1c:	2b00      	cmp	r3, #0
 8005b1e:	d00d      	beq.n	8005b3c <I2C_MasterRequestRead+0x15c>
    {
      if (READ_BIT(hi2c->Instance->CR1, I2C_CR1_START) == I2C_CR1_START)
 8005b20:	68fb      	ldr	r3, [r7, #12]
 8005b22:	681b      	ldr	r3, [r3, #0]
 8005b24:	681b      	ldr	r3, [r3, #0]
 8005b26:	f403 7380 	and.w	r3, r3, #256	@ 0x100
 8005b2a:	f5b3 7f80 	cmp.w	r3, #256	@ 0x100
 8005b2e:	d103      	bne.n	8005b38 <I2C_MasterRequestRead+0x158>
      {
        hi2c->ErrorCode = HAL_I2C_WRONG_START;
 8005b30:	68fb      	ldr	r3, [r7, #12]
 8005b32:	f44f 7200 	mov.w	r2, #512	@ 0x200
 8005b36:	641a      	str	r2, [r3, #64]	@ 0x40
      }
      return HAL_TIMEOUT;
 8005b38:	2303      	movs	r3, #3
 8005b3a:	e017      	b.n	8005b6c <I2C_MasterRequestRead+0x18c>
    }

    /* Send header of slave address */
    hi2c->Instance->DR = I2C_10BIT_HEADER_READ(DevAddress);
 8005b3c:	897b      	ldrh	r3, [r7, #10]
 8005b3e:	11db      	asrs	r3, r3, #7
 8005b40:	b2db      	uxtb	r3, r3
 8005b42:	f003 0306 	and.w	r3, r3, #6
 8005b46:	b2db      	uxtb	r3, r3
 8005b48:	f063 030e 	orn	r3, r3, #14
 8005b4c:	b2da      	uxtb	r2, r3
 8005b4e:	68fb      	ldr	r3, [r7, #12]
 8005b50:	681b      	ldr	r3, [r3, #0]
 8005b52:	611a      	str	r2, [r3, #16]
  }

  /* Wait until ADDR flag is set */
  if (I2C_WaitOnMasterAddressFlagUntilTimeout(hi2c, I2C_FLAG_ADDR, Timeout, Tickstart) != HAL_OK)
 8005b54:	683b      	ldr	r3, [r7, #0]
 8005b56:	687a      	ldr	r2, [r7, #4]
 8005b58:	4907      	ldr	r1, [pc, #28]	@ (8005b78 <I2C_MasterRequestRead+0x198>)
 8005b5a:	68f8      	ldr	r0, [r7, #12]
 8005b5c:	f000 f888 	bl	8005c70 <I2C_WaitOnMasterAddressFlagUntilTimeout>
 8005b60:	4603      	mov	r3, r0
 8005b62:	2b00      	cmp	r3, #0
 8005b64:	d001      	beq.n	8005b6a <I2C_MasterRequestRead+0x18a>
  {
    return HAL_ERROR;
 8005b66:	2301      	movs	r3, #1
 8005b68:	e000      	b.n	8005b6c <I2C_MasterRequestRead+0x18c>
  }

  return HAL_OK;
 8005b6a:	2300      	movs	r3, #0
}
 8005b6c:	4618      	mov	r0, r3
 8005b6e:	3718      	adds	r7, #24
 8005b70:	46bd      	mov	sp, r7
 8005b72:	bd80      	pop	{r7, pc}
 8005b74:	00010008 	.word	0x00010008
 8005b78:	00010002 	.word	0x00010002

08005b7c <I2C_WaitOnFlagUntilTimeout>:
  * @param  Timeout Timeout duration
  * @param  Tickstart Tick start value
  * @retval HAL status
  */
static HAL_StatusTypeDef I2C_WaitOnFlagUntilTimeout(I2C_HandleTypeDef *hi2c, uint32_t Flag, FlagStatus Status, uint32_t Timeout, uint32_t Tickstart)
{
 8005b7c:	b580      	push	{r7, lr}
 8005b7e:	b084      	sub	sp, #16
 8005b80:	af00      	add	r7, sp, #0
 8005b82:	60f8      	str	r0, [r7, #12]
 8005b84:	60b9      	str	r1, [r7, #8]
 8005b86:	603b      	str	r3, [r7, #0]
 8005b88:	4613      	mov	r3, r2
 8005b8a:	71fb      	strb	r3, [r7, #7]
  /* Wait until flag is set */
  while (__HAL_I2C_GET_FLAG(hi2c, Flag) == Status)
 8005b8c:	e048      	b.n	8005c20 <I2C_WaitOnFlagUntilTimeout+0xa4>
  {
    /* Check for the Timeout */
    if (Timeout != HAL_MAX_DELAY)
 8005b8e:	683b      	ldr	r3, [r7, #0]
 8005b90:	f1b3 3fff 	cmp.w	r3, #4294967295	@ 0xffffffff
 8005b94:	d044      	beq.n	8005c20 <I2C_WaitOnFlagUntilTimeout+0xa4>
    {
      if (((HAL_GetTick() - Tickstart) > Timeout) || (Timeout == 0U))
 8005b96:	f7fd fb35 	bl	8003204 <HAL_GetTick>
 8005b9a:	4602      	mov	r2, r0
 8005b9c:	69bb      	ldr	r3, [r7, #24]
 8005b9e:	1ad3      	subs	r3, r2, r3
 8005ba0:	683a      	ldr	r2, [r7, #0]
 8005ba2:	429a      	cmp	r2, r3
 8005ba4:	d302      	bcc.n	8005bac <I2C_WaitOnFlagUntilTimeout+0x30>
 8005ba6:	683b      	ldr	r3, [r7, #0]
 8005ba8:	2b00      	cmp	r3, #0
 8005baa:	d139      	bne.n	8005c20 <I2C_WaitOnFlagUntilTimeout+0xa4>
      {
        if ((__HAL_I2C_GET_FLAG(hi2c, Flag) == Status))
 8005bac:	68bb      	ldr	r3, [r7, #8]
 8005bae:	0c1b      	lsrs	r3, r3, #16
 8005bb0:	b2db      	uxtb	r3, r3
 8005bb2:	2b01      	cmp	r3, #1
 8005bb4:	d10d      	bne.n	8005bd2 <I2C_WaitOnFlagUntilTimeout+0x56>
 8005bb6:	68fb      	ldr	r3, [r7, #12]
 8005bb8:	681b      	ldr	r3, [r3, #0]
 8005bba:	695b      	ldr	r3, [r3, #20]
 8005bbc:	43da      	mvns	r2, r3
 8005bbe:	68bb      	ldr	r3, [r7, #8]
 8005bc0:	4013      	ands	r3, r2
 8005bc2:	b29b      	uxth	r3, r3
 8005bc4:	2b00      	cmp	r3, #0
 8005bc6:	bf0c      	ite	eq
 8005bc8:	2301      	moveq	r3, #1
 8005bca:	2300      	movne	r3, #0
 8005bcc:	b2db      	uxtb	r3, r3
 8005bce:	461a      	mov	r2, r3
 8005bd0:	e00c      	b.n	8005bec <I2C_WaitOnFlagUntilTimeout+0x70>
 8005bd2:	68fb      	ldr	r3, [r7, #12]
 8005bd4:	681b      	ldr	r3, [r3, #0]
 8005bd6:	699b      	ldr	r3, [r3, #24]
 8005bd8:	43da      	mvns	r2, r3
 8005bda:	68bb      	ldr	r3, [r7, #8]
 8005bdc:	4013      	ands	r3, r2
 8005bde:	b29b      	uxth	r3, r3
 8005be0:	2b00      	cmp	r3, #0
 8005be2:	bf0c      	ite	eq
 8005be4:	2301      	moveq	r3, #1
 8005be6:	2300      	movne	r3, #0
 8005be8:	b2db      	uxtb	r3, r3
 8005bea:	461a      	mov	r2, r3
 8005bec:	79fb      	ldrb	r3, [r7, #7]
 8005bee:	429a      	cmp	r2, r3
 8005bf0:	d116      	bne.n	8005c20 <I2C_WaitOnFlagUntilTimeout+0xa4>
        {
          hi2c->PreviousState     = I2C_STATE_NONE;
 8005bf2:	68fb      	ldr	r3, [r7, #12]
 8005bf4:	2200      	movs	r2, #0
 8005bf6:	631a      	str	r2, [r3, #48]	@ 0x30
          hi2c->State             = HAL_I2C_STATE_READY;
 8005bf8:	68fb      	ldr	r3, [r7, #12]
 8005bfa:	2220      	movs	r2, #32
 8005bfc:	f883 203d 	strb.w	r2, [r3, #61]	@ 0x3d
          hi2c->Mode              = HAL_I2C_MODE_NONE;
 8005c00:	68fb      	ldr	r3, [r7, #12]
 8005c02:	2200      	movs	r2, #0
 8005c04:	f883 203e 	strb.w	r2, [r3, #62]	@ 0x3e
          hi2c->ErrorCode         |= HAL_I2C_ERROR_TIMEOUT;
 8005c08:	68fb      	ldr	r3, [r7, #12]
 8005c0a:	6c1b      	ldr	r3, [r3, #64]	@ 0x40
 8005c0c:	f043 0220 	orr.w	r2, r3, #32
 8005c10:	68fb      	ldr	r3, [r7, #12]
 8005c12:	641a      	str	r2, [r3, #64]	@ 0x40

          /* Process Unlocked */
          __HAL_UNLOCK(hi2c);
 8005c14:	68fb      	ldr	r3, [r7, #12]
 8005c16:	2200      	movs	r2, #0
 8005c18:	f883 203c 	strb.w	r2, [r3, #60]	@ 0x3c

          return HAL_ERROR;
 8005c1c:	2301      	movs	r3, #1
 8005c1e:	e023      	b.n	8005c68 <I2C_WaitOnFlagUntilTimeout+0xec>
  while (__HAL_I2C_GET_FLAG(hi2c, Flag) == Status)
 8005c20:	68bb      	ldr	r3, [r7, #8]
 8005c22:	0c1b      	lsrs	r3, r3, #16
 8005c24:	b2db      	uxtb	r3, r3
 8005c26:	2b01      	cmp	r3, #1
 8005c28:	d10d      	bne.n	8005c46 <I2C_WaitOnFlagUntilTimeout+0xca>
 8005c2a:	68fb      	ldr	r3, [r7, #12]
 8005c2c:	681b      	ldr	r3, [r3, #0]
 8005c2e:	695b      	ldr	r3, [r3, #20]
 8005c30:	43da      	mvns	r2, r3
 8005c32:	68bb      	ldr	r3, [r7, #8]
 8005c34:	4013      	ands	r3, r2
 8005c36:	b29b      	uxth	r3, r3
 8005c38:	2b00      	cmp	r3, #0
 8005c3a:	bf0c      	ite	eq
 8005c3c:	2301      	moveq	r3, #1
 8005c3e:	2300      	movne	r3, #0
 8005c40:	b2db      	uxtb	r3, r3
 8005c42:	461a      	mov	r2, r3
 8005c44:	e00c      	b.n	8005c60 <I2C_WaitOnFlagUntilTimeout+0xe4>
 8005c46:	68fb      	ldr	r3, [r7, #12]
 8005c48:	681b      	ldr	r3, [r3, #0]
 8005c4a:	699b      	ldr	r3, [r3, #24]
 8005c4c:	43da      	mvns	r2, r3
 8005c4e:	68bb      	ldr	r3, [r7, #8]
 8005c50:	4013      	ands	r3, r2
 8005c52:	b29b      	uxth	r3, r3
 8005c54:	2b00      	cmp	r3, #0
 8005c56:	bf0c      	ite	eq
 8005c58:	2301      	moveq	r3, #1
 8005c5a:	2300      	movne	r3, #0
 8005c5c:	b2db      	uxtb	r3, r3
 8005c5e:	461a      	mov	r2, r3
 8005c60:	79fb      	ldrb	r3, [r7, #7]
 8005c62:	429a      	cmp	r2, r3
 8005c64:	d093      	beq.n	8005b8e <I2C_WaitOnFlagUntilTimeout+0x12>
        }
      }
    }
  }
  return HAL_OK;
 8005c66:	2300      	movs	r3, #0
}
 8005c68:	4618      	mov	r0, r3
 8005c6a:	3710      	adds	r7, #16
 8005c6c:	46bd      	mov	sp, r7
 8005c6e:	bd80      	pop	{r7, pc}

08005c70 <I2C_WaitOnMasterAddressFlagUntilTimeout>:
  * @param  Timeout Timeout duration
  * @param  Tickstart Tick start value
  * @retval HAL status
  */
static HAL_StatusTypeDef I2C_WaitOnMasterAddressFlagUntilTimeout(I2C_HandleTypeDef *hi2c, uint32_t Flag, uint32_t Timeout, uint32_t Tickstart)
{
 8005c70:	b580      	push	{r7, lr}
 8005c72:	b084      	sub	sp, #16
 8005c74:	af00      	add	r7, sp, #0
 8005c76:	60f8      	str	r0, [r7, #12]
 8005c78:	60b9      	str	r1, [r7, #8]
 8005c7a:	607a      	str	r2, [r7, #4]
 8005c7c:	603b      	str	r3, [r7, #0]
  while (__HAL_I2C_GET_FLAG(hi2c, Flag) == RESET)
 8005c7e:	e071      	b.n	8005d64 <I2C_WaitOnMasterAddressFlagUntilTimeout+0xf4>
  {
    if (__HAL_I2C_GET_FLAG(hi2c, I2C_FLAG_AF) == SET)
 8005c80:	68fb      	ldr	r3, [r7, #12]
 8005c82:	681b      	ldr	r3, [r3, #0]
 8005c84:	695b      	ldr	r3, [r3, #20]
 8005c86:	f403 6380 	and.w	r3, r3, #1024	@ 0x400
 8005c8a:	f5b3 6f80 	cmp.w	r3, #1024	@ 0x400
 8005c8e:	d123      	bne.n	8005cd8 <I2C_WaitOnMasterAddressFlagUntilTimeout+0x68>
    {
      /* Generate Stop */
      SET_BIT(hi2c->Instance->CR1, I2C_CR1_STOP);
 8005c90:	68fb      	ldr	r3, [r7, #12]
 8005c92:	681b      	ldr	r3, [r3, #0]
 8005c94:	681a      	ldr	r2, [r3, #0]
 8005c96:	68fb      	ldr	r3, [r7, #12]
 8005c98:	681b      	ldr	r3, [r3, #0]
 8005c9a:	f442 7200 	orr.w	r2, r2, #512	@ 0x200
 8005c9e:	601a      	str	r2, [r3, #0]

      /* Clear AF Flag */
      __HAL_I2C_CLEAR_FLAG(hi2c, I2C_FLAG_AF);
 8005ca0:	68fb      	ldr	r3, [r7, #12]
 8005ca2:	681b      	ldr	r3, [r3, #0]
 8005ca4:	f46f 6280 	mvn.w	r2, #1024	@ 0x400
 8005ca8:	615a      	str	r2, [r3, #20]

      hi2c->PreviousState       = I2C_STATE_NONE;
 8005caa:	68fb      	ldr	r3, [r7, #12]
 8005cac:	2200      	movs	r2, #0
 8005cae:	631a      	str	r2, [r3, #48]	@ 0x30
      hi2c->State               = HAL_I2C_STATE_READY;
 8005cb0:	68fb      	ldr	r3, [r7, #12]
 8005cb2:	2220      	movs	r2, #32
 8005cb4:	f883 203d 	strb.w	r2, [r3, #61]	@ 0x3d
      hi2c->Mode                = HAL_I2C_MODE_NONE;
 8005cb8:	68fb      	ldr	r3, [r7, #12]
 8005cba:	2200      	movs	r2, #0
 8005cbc:	f883 203e 	strb.w	r2, [r3, #62]	@ 0x3e
      hi2c->ErrorCode           |= HAL_I2C_ERROR_AF;
 8005cc0:	68fb      	ldr	r3, [r7, #12]
 8005cc2:	6c1b      	ldr	r3, [r3, #64]	@ 0x40
 8005cc4:	f043 0204 	orr.w	r2, r3, #4
 8005cc8:	68fb      	ldr	r3, [r7, #12]
 8005cca:	641a      	str	r2, [r3, #64]	@ 0x40

      /* Process Unlocked */
      __HAL_UNLOCK(hi2c);
 8005ccc:	68fb      	ldr	r3, [r7, #12]
 8005cce:	2200      	movs	r2, #0
 8005cd0:	f883 203c 	strb.w	r2, [r3, #60]	@ 0x3c

      return HAL_ERROR;
 8005cd4:	2301      	movs	r3, #1
 8005cd6:	e067      	b.n	8005da8 <I2C_WaitOnMasterAddressFlagUntilTimeout+0x138>
    }

    /* Check for the Timeout */
    if (Timeout != HAL_MAX_DELAY)
 8005cd8:	687b      	ldr	r3, [r7, #4]
 8005cda:	f1b3 3fff 	cmp.w	r3, #4294967295	@ 0xffffffff
 8005cde:	d041      	beq.n	8005d64 <I2C_WaitOnMasterAddressFlagUntilTimeout+0xf4>
    {
      if (((HAL_GetTick() - Tickstart) > Timeout) || (Timeout == 0U))
 8005ce0:	f7fd fa90 	bl	8003204 <HAL_GetTick>
 8005ce4:	4602      	mov	r2, r0
 8005ce6:	683b      	ldr	r3, [r7, #0]
 8005ce8:	1ad3      	subs	r3, r2, r3
 8005cea:	687a      	ldr	r2, [r7, #4]
 8005cec:	429a      	cmp	r2, r3
 8005cee:	d302      	bcc.n	8005cf6 <I2C_WaitOnMasterAddressFlagUntilTimeout+0x86>
 8005cf0:	687b      	ldr	r3, [r7, #4]
 8005cf2:	2b00      	cmp	r3, #0
 8005cf4:	d136      	bne.n	8005d64 <I2C_WaitOnMasterAddressFlagUntilTimeout+0xf4>
      {
        if ((__HAL_I2C_GET_FLAG(hi2c, Flag) == RESET))
 8005cf6:	68bb      	ldr	r3, [r7, #8]
 8005cf8:	0c1b      	lsrs	r3, r3, #16
 8005cfa:	b2db      	uxtb	r3, r3
 8005cfc:	2b01      	cmp	r3, #1
 8005cfe:	d10c      	bne.n	8005d1a <I2C_WaitOnMasterAddressFlagUntilTimeout+0xaa>
 8005d00:	68fb      	ldr	r3, [r7, #12]
 8005d02:	681b      	ldr	r3, [r3, #0]
 8005d04:	695b      	ldr	r3, [r3, #20]
 8005d06:	43da      	mvns	r2, r3
 8005d08:	68bb      	ldr	r3, [r7, #8]
 8005d0a:	4013      	ands	r3, r2
 8005d0c:	b29b      	uxth	r3, r3
 8005d0e:	2b00      	cmp	r3, #0
 8005d10:	bf14      	ite	ne
 8005d12:	2301      	movne	r3, #1
 8005d14:	2300      	moveq	r3, #0
 8005d16:	b2db      	uxtb	r3, r3
 8005d18:	e00b      	b.n	8005d32 <I2C_WaitOnMasterAddressFlagUntilTimeout+0xc2>
 8005d1a:	68fb      	ldr	r3, [r7, #12]
 8005d1c:	681b      	ldr	r3, [r3, #0]
 8005d1e:	699b      	ldr	r3, [r3, #24]
 8005d20:	43da      	mvns	r2, r3
 8005d22:	68bb      	ldr	r3, [r7, #8]
 8005d24:	4013      	ands	r3, r2
 8005d26:	b29b      	uxth	r3, r3
 8005d28:	2b00      	cmp	r3, #0
 8005d2a:	bf14      	ite	ne
 8005d2c:	2301      	movne	r3, #1
 8005d2e:	2300      	moveq	r3, #0
 8005d30:	b2db      	uxtb	r3, r3
 8005d32:	2b00      	cmp	r3, #0
 8005d34:	d016      	beq.n	8005d64 <I2C_WaitOnMasterAddressFlagUntilTimeout+0xf4>
        {
          hi2c->PreviousState       = I2C_STATE_NONE;
 8005d36:	68fb      	ldr	r3, [r7, #12]
 8005d38:	2200      	movs	r2, #0
 8005d3a:	631a      	str	r2, [r3, #48]	@ 0x30
          hi2c->State               = HAL_I2C_STATE_READY;
 8005d3c:	68fb      	ldr	r3, [r7, #12]
 8005d3e:	2220      	movs	r2, #32
 8005d40:	f883 203d 	strb.w	r2, [r3, #61]	@ 0x3d
          hi2c->Mode                = HAL_I2C_MODE_NONE;
 8005d44:	68fb      	ldr	r3, [r7, #12]
 8005d46:	2200      	movs	r2, #0
 8005d48:	f883 203e 	strb.w	r2, [r3, #62]	@ 0x3e
          hi2c->ErrorCode           |= HAL_I2C_ERROR_TIMEOUT;
 8005d4c:	68fb      	ldr	r3, [r7, #12]
 8005d4e:	6c1b      	ldr	r3, [r3, #64]	@ 0x40
 8005d50:	f043 0220 	orr.w	r2, r3, #32
 8005d54:	68fb      	ldr	r3, [r7, #12]
 8005d56:	641a      	str	r2, [r3, #64]	@ 0x40

          /* Process Unlocked */
          __HAL_UNLOCK(hi2c);
 8005d58:	68fb      	ldr	r3, [r7, #12]
 8005d5a:	2200      	movs	r2, #0
 8005d5c:	f883 203c 	strb.w	r2, [r3, #60]	@ 0x3c

          return HAL_ERROR;
 8005d60:	2301      	movs	r3, #1
 8005d62:	e021      	b.n	8005da8 <I2C_WaitOnMasterAddressFlagUntilTimeout+0x138>
  while (__HAL_I2C_GET_FLAG(hi2c, Flag) == RESET)
 8005d64:	68bb      	ldr	r3, [r7, #8]
 8005d66:	0c1b      	lsrs	r3, r3, #16
 8005d68:	b2db      	uxtb	r3, r3
 8005d6a:	2b01      	cmp	r3, #1
 8005d6c:	d10c      	bne.n	8005d88 <I2C_WaitOnMasterAddressFlagUntilTimeout+0x118>
 8005d6e:	68fb      	ldr	r3, [r7, #12]
 8005d70:	681b      	ldr	r3, [r3, #0]
 8005d72:	695b      	ldr	r3, [r3, #20]
 8005d74:	43da      	mvns	r2, r3
 8005d76:	68bb      	ldr	r3, [r7, #8]
 8005d78:	4013      	ands	r3, r2
 8005d7a:	b29b      	uxth	r3, r3
 8005d7c:	2b00      	cmp	r3, #0
 8005d7e:	bf14      	ite	ne
 8005d80:	2301      	movne	r3, #1
 8005d82:	2300      	moveq	r3, #0
 8005d84:	b2db      	uxtb	r3, r3
 8005d86:	e00b      	b.n	8005da0 <I2C_WaitOnMasterAddressFlagUntilTimeout+0x130>
 8005d88:	68fb      	ldr	r3, [r7, #12]
 8005d8a:	681b      	ldr	r3, [r3, #0]
 8005d8c:	699b      	ldr	r3, [r3, #24]
 8005d8e:	43da      	mvns	r2, r3
 8005d90:	68bb      	ldr	r3, [r7, #8]
 8005d92:	4013      	ands	r3, r2
 8005d94:	b29b      	uxth	r3, r3
 8005d96:	2b00      	cmp	r3, #0
 8005d98:	bf14      	ite	ne
 8005d9a:	2301      	movne	r3, #1
 8005d9c:	2300      	moveq	r3, #0
 8005d9e:	b2db      	uxtb	r3, r3
 8005da0:	2b00      	cmp	r3, #0
 8005da2:	f47f af6d 	bne.w	8005c80 <I2C_WaitOnMasterAddressFlagUntilTimeout+0x10>
        }
      }
    }
  }
  return HAL_OK;
 8005da6:	2300      	movs	r3, #0
}
 8005da8:	4618      	mov	r0, r3
 8005daa:	3710      	adds	r7, #16
 8005dac:	46bd      	mov	sp, r7
 8005dae:	bd80      	pop	{r7, pc}

08005db0 <I2C_WaitOnTXEFlagUntilTimeout>:
  * @param  Timeout Timeout duration
  * @param  Tickstart Tick start value
  * @retval HAL status
  */
static HAL_StatusTypeDef I2C_WaitOnTXEFlagUntilTimeout(I2C_HandleTypeDef *hi2c, uint32_t Timeout, uint32_t Tickstart)
{
 8005db0:	b580      	push	{r7, lr}
 8005db2:	b084      	sub	sp, #16
 8005db4:	af00      	add	r7, sp, #0
 8005db6:	60f8      	str	r0, [r7, #12]
 8005db8:	60b9      	str	r1, [r7, #8]
 8005dba:	607a      	str	r2, [r7, #4]
  while (__HAL_I2C_GET_FLAG(hi2c, I2C_FLAG_TXE) == RESET)
 8005dbc:	e034      	b.n	8005e28 <I2C_WaitOnTXEFlagUntilTimeout+0x78>
  {
    /* Check if a NACK is detected */
    if (I2C_IsAcknowledgeFailed(hi2c) != HAL_OK)
 8005dbe:	68f8      	ldr	r0, [r7, #12]
 8005dc0:	f000 f8e3 	bl	8005f8a <I2C_IsAcknowledgeFailed>
 8005dc4:	4603      	mov	r3, r0
 8005dc6:	2b00      	cmp	r3, #0
 8005dc8:	d001      	beq.n	8005dce <I2C_WaitOnTXEFlagUntilTimeout+0x1e>
    {
      return HAL_ERROR;
 8005dca:	2301      	movs	r3, #1
 8005dcc:	e034      	b.n	8005e38 <I2C_WaitOnTXEFlagUntilTimeout+0x88>
    }

    /* Check for the Timeout */
    if (Timeout != HAL_MAX_DELAY)
 8005dce:	68bb      	ldr	r3, [r7, #8]
 8005dd0:	f1b3 3fff 	cmp.w	r3, #4294967295	@ 0xffffffff
 8005dd4:	d028      	beq.n	8005e28 <I2C_WaitOnTXEFlagUntilTimeout+0x78>
    {
      if (((HAL_GetTick() - Tickstart) > Timeout) || (Timeout == 0U))
 8005dd6:	f7fd fa15 	bl	8003204 <HAL_GetTick>
 8005dda:	4602      	mov	r2, r0
 8005ddc:	687b      	ldr	r3, [r7, #4]
 8005dde:	1ad3      	subs	r3, r2, r3
 8005de0:	68ba      	ldr	r2, [r7, #8]
 8005de2:	429a      	cmp	r2, r3
 8005de4:	d302      	bcc.n	8005dec <I2C_WaitOnTXEFlagUntilTimeout+0x3c>
 8005de6:	68bb      	ldr	r3, [r7, #8]
 8005de8:	2b00      	cmp	r3, #0
 8005dea:	d11d      	bne.n	8005e28 <I2C_WaitOnTXEFlagUntilTimeout+0x78>
      {
        if ((__HAL_I2C_GET_FLAG(hi2c, I2C_FLAG_TXE) == RESET))
 8005dec:	68fb      	ldr	r3, [r7, #12]
 8005dee:	681b      	ldr	r3, [r3, #0]
 8005df0:	695b      	ldr	r3, [r3, #20]
 8005df2:	f003 0380 	and.w	r3, r3, #128	@ 0x80
 8005df6:	2b80      	cmp	r3, #128	@ 0x80
 8005df8:	d016      	beq.n	8005e28 <I2C_WaitOnTXEFlagUntilTimeout+0x78>
        {
          hi2c->PreviousState       = I2C_STATE_NONE;
 8005dfa:	68fb      	ldr	r3, [r7, #12]
 8005dfc:	2200      	movs	r2, #0
 8005dfe:	631a      	str	r2, [r3, #48]	@ 0x30
          hi2c->State               = HAL_I2C_STATE_READY;
 8005e00:	68fb      	ldr	r3, [r7, #12]
 8005e02:	2220      	movs	r2, #32
 8005e04:	f883 203d 	strb.w	r2, [r3, #61]	@ 0x3d
          hi2c->Mode                = HAL_I2C_MODE_NONE;
 8005e08:	68fb      	ldr	r3, [r7, #12]
 8005e0a:	2200      	movs	r2, #0
 8005e0c:	f883 203e 	strb.w	r2, [r3, #62]	@ 0x3e
          hi2c->ErrorCode           |= HAL_I2C_ERROR_TIMEOUT;
 8005e10:	68fb      	ldr	r3, [r7, #12]
 8005e12:	6c1b      	ldr	r3, [r3, #64]	@ 0x40
 8005e14:	f043 0220 	orr.w	r2, r3, #32
 8005e18:	68fb      	ldr	r3, [r7, #12]
 8005e1a:	641a      	str	r2, [r3, #64]	@ 0x40

          /* Process Unlocked */
          __HAL_UNLOCK(hi2c);
 8005e1c:	68fb      	ldr	r3, [r7, #12]
 8005e1e:	2200      	movs	r2, #0
 8005e20:	f883 203c 	strb.w	r2, [r3, #60]	@ 0x3c

          return HAL_ERROR;
 8005e24:	2301      	movs	r3, #1
 8005e26:	e007      	b.n	8005e38 <I2C_WaitOnTXEFlagUntilTimeout+0x88>
  while (__HAL_I2C_GET_FLAG(hi2c, I2C_FLAG_TXE) == RESET)
 8005e28:	68fb      	ldr	r3, [r7, #12]
 8005e2a:	681b      	ldr	r3, [r3, #0]
 8005e2c:	695b      	ldr	r3, [r3, #20]
 8005e2e:	f003 0380 	and.w	r3, r3, #128	@ 0x80
 8005e32:	2b80      	cmp	r3, #128	@ 0x80
 8005e34:	d1c3      	bne.n	8005dbe <I2C_WaitOnTXEFlagUntilTimeout+0xe>
        }
      }
    }
  }
  return HAL_OK;
 8005e36:	2300      	movs	r3, #0
}
 8005e38:	4618      	mov	r0, r3
 8005e3a:	3710      	adds	r7, #16
 8005e3c:	46bd      	mov	sp, r7
 8005e3e:	bd80      	pop	{r7, pc}

08005e40 <I2C_WaitOnBTFFlagUntilTimeout>:
  * @param  Timeout Timeout duration
  * @param  Tickstart Tick start value
  * @retval HAL status
  */
static HAL_StatusTypeDef I2C_WaitOnBTFFlagUntilTimeout(I2C_HandleTypeDef *hi2c, uint32_t Timeout, uint32_t Tickstart)
{
 8005e40:	b580      	push	{r7, lr}
 8005e42:	b084      	sub	sp, #16
 8005e44:	af00      	add	r7, sp, #0
 8005e46:	60f8      	str	r0, [r7, #12]
 8005e48:	60b9      	str	r1, [r7, #8]
 8005e4a:	607a      	str	r2, [r7, #4]
  while (__HAL_I2C_GET_FLAG(hi2c, I2C_FLAG_BTF) == RESET)
 8005e4c:	e034      	b.n	8005eb8 <I2C_WaitOnBTFFlagUntilTimeout+0x78>
  {
    /* Check if a NACK is detected */
    if (I2C_IsAcknowledgeFailed(hi2c) != HAL_OK)
 8005e4e:	68f8      	ldr	r0, [r7, #12]
 8005e50:	f000 f89b 	bl	8005f8a <I2C_IsAcknowledgeFailed>
 8005e54:	4603      	mov	r3, r0
 8005e56:	2b00      	cmp	r3, #0
 8005e58:	d001      	beq.n	8005e5e <I2C_WaitOnBTFFlagUntilTimeout+0x1e>
    {
      return HAL_ERROR;
 8005e5a:	2301      	movs	r3, #1
 8005e5c:	e034      	b.n	8005ec8 <I2C_WaitOnBTFFlagUntilTimeout+0x88>
    }

    /* Check for the Timeout */
    if (Timeout != HAL_MAX_DELAY)
 8005e5e:	68bb      	ldr	r3, [r7, #8]
 8005e60:	f1b3 3fff 	cmp.w	r3, #4294967295	@ 0xffffffff
 8005e64:	d028      	beq.n	8005eb8 <I2C_WaitOnBTFFlagUntilTimeout+0x78>
    {
      if (((HAL_GetTick() - Tickstart) > Timeout) || (Timeout == 0U))
 8005e66:	f7fd f9cd 	bl	8003204 <HAL_GetTick>
 8005e6a:	4602      	mov	r2, r0
 8005e6c:	687b      	ldr	r3, [r7, #4]
 8005e6e:	1ad3      	subs	r3, r2, r3
 8005e70:	68ba      	ldr	r2, [r7, #8]
 8005e72:	429a      	cmp	r2, r3
 8005e74:	d302      	bcc.n	8005e7c <I2C_WaitOnBTFFlagUntilTimeout+0x3c>
 8005e76:	68bb      	ldr	r3, [r7, #8]
 8005e78:	2b00      	cmp	r3, #0
 8005e7a:	d11d      	bne.n	8005eb8 <I2C_WaitOnBTFFlagUntilTimeout+0x78>
      {
        if ((__HAL_I2C_GET_FLAG(hi2c, I2C_FLAG_BTF) == RESET))
 8005e7c:	68fb      	ldr	r3, [r7, #12]
 8005e7e:	681b      	ldr	r3, [r3, #0]
 8005e80:	695b      	ldr	r3, [r3, #20]
 8005e82:	f003 0304 	and.w	r3, r3, #4
 8005e86:	2b04      	cmp	r3, #4
 8005e88:	d016      	beq.n	8005eb8 <I2C_WaitOnBTFFlagUntilTimeout+0x78>
        {
          hi2c->PreviousState       = I2C_STATE_NONE;
 8005e8a:	68fb      	ldr	r3, [r7, #12]
 8005e8c:	2200      	movs	r2, #0
 8005e8e:	631a      	str	r2, [r3, #48]	@ 0x30
          hi2c->State               = HAL_I2C_STATE_READY;
 8005e90:	68fb      	ldr	r3, [r7, #12]
 8005e92:	2220      	movs	r2, #32
 8005e94:	f883 203d 	strb.w	r2, [r3, #61]	@ 0x3d
          hi2c->Mode                = HAL_I2C_MODE_NONE;
 8005e98:	68fb      	ldr	r3, [r7, #12]
 8005e9a:	2200      	movs	r2, #0
 8005e9c:	f883 203e 	strb.w	r2, [r3, #62]	@ 0x3e
          hi2c->ErrorCode           |= HAL_I2C_ERROR_TIMEOUT;
 8005ea0:	68fb      	ldr	r3, [r7, #12]
 8005ea2:	6c1b      	ldr	r3, [r3, #64]	@ 0x40
 8005ea4:	f043 0220 	orr.w	r2, r3, #32
 8005ea8:	68fb      	ldr	r3, [r7, #12]
 8005eaa:	641a      	str	r2, [r3, #64]	@ 0x40

          /* Process Unlocked */
          __HAL_UNLOCK(hi2c);
 8005eac:	68fb      	ldr	r3, [r7, #12]
 8005eae:	2200      	movs	r2, #0
 8005eb0:	f883 203c 	strb.w	r2, [r3, #60]	@ 0x3c

          return HAL_ERROR;
 8005eb4:	2301      	movs	r3, #1
 8005eb6:	e007      	b.n	8005ec8 <I2C_WaitOnBTFFlagUntilTimeout+0x88>
  while (__HAL_I2C_GET_FLAG(hi2c, I2C_FLAG_BTF) == RESET)
 8005eb8:	68fb      	ldr	r3, [r7, #12]
 8005eba:	681b      	ldr	r3, [r3, #0]
 8005ebc:	695b      	ldr	r3, [r3, #20]
 8005ebe:	f003 0304 	and.w	r3, r3, #4
 8005ec2:	2b04      	cmp	r3, #4
 8005ec4:	d1c3      	bne.n	8005e4e <I2C_WaitOnBTFFlagUntilTimeout+0xe>
        }
      }
    }
  }
  return HAL_OK;
 8005ec6:	2300      	movs	r3, #0
}
 8005ec8:	4618      	mov	r0, r3
 8005eca:	3710      	adds	r7, #16
 8005ecc:	46bd      	mov	sp, r7
 8005ece:	bd80      	pop	{r7, pc}

08005ed0 <I2C_WaitOnRXNEFlagUntilTimeout>:
  * @param  Timeout Timeout duration
  * @param  Tickstart Tick start value
  * @retval HAL status
  */
static HAL_StatusTypeDef I2C_WaitOnRXNEFlagUntilTimeout(I2C_HandleTypeDef *hi2c, uint32_t Timeout, uint32_t Tickstart)
{
 8005ed0:	b580      	push	{r7, lr}
 8005ed2:	b084      	sub	sp, #16
 8005ed4:	af00      	add	r7, sp, #0
 8005ed6:	60f8      	str	r0, [r7, #12]
 8005ed8:	60b9      	str	r1, [r7, #8]
 8005eda:	607a      	str	r2, [r7, #4]

  while (__HAL_I2C_GET_FLAG(hi2c, I2C_FLAG_RXNE) == RESET)
 8005edc:	e049      	b.n	8005f72 <I2C_WaitOnRXNEFlagUntilTimeout+0xa2>
  {
    /* Check if a STOPF is detected */
    if (__HAL_I2C_GET_FLAG(hi2c, I2C_FLAG_STOPF) == SET)
 8005ede:	68fb      	ldr	r3, [r7, #12]
 8005ee0:	681b      	ldr	r3, [r3, #0]
 8005ee2:	695b      	ldr	r3, [r3, #20]
 8005ee4:	f003 0310 	and.w	r3, r3, #16
 8005ee8:	2b10      	cmp	r3, #16
 8005eea:	d119      	bne.n	8005f20 <I2C_WaitOnRXNEFlagUntilTimeout+0x50>
    {
      /* Clear STOP Flag */
      __HAL_I2C_CLEAR_FLAG(hi2c, I2C_FLAG_STOPF);
 8005eec:	68fb      	ldr	r3, [r7, #12]
 8005eee:	681b      	ldr	r3, [r3, #0]
 8005ef0:	f06f 0210 	mvn.w	r2, #16
 8005ef4:	615a      	str	r2, [r3, #20]

      hi2c->PreviousState       = I2C_STATE_NONE;
 8005ef6:	68fb      	ldr	r3, [r7, #12]
 8005ef8:	2200      	movs	r2, #0
 8005efa:	631a      	str	r2, [r3, #48]	@ 0x30
      hi2c->State               = HAL_I2C_STATE_READY;
 8005efc:	68fb      	ldr	r3, [r7, #12]
 8005efe:	2220      	movs	r2, #32
 8005f00:	f883 203d 	strb.w	r2, [r3, #61]	@ 0x3d
      hi2c->Mode                = HAL_I2C_MODE_NONE;
 8005f04:	68fb      	ldr	r3, [r7, #12]
 8005f06:	2200      	movs	r2, #0
 8005f08:	f883 203e 	strb.w	r2, [r3, #62]	@ 0x3e
      hi2c->ErrorCode           |= HAL_I2C_ERROR_NONE;
 8005f0c:	68fb      	ldr	r3, [r7, #12]
 8005f0e:	6c1a      	ldr	r2, [r3, #64]	@ 0x40
 8005f10:	68fb      	ldr	r3, [r7, #12]
 8005f12:	641a      	str	r2, [r3, #64]	@ 0x40

      /* Process Unlocked */
      __HAL_UNLOCK(hi2c);
 8005f14:	68fb      	ldr	r3, [r7, #12]
 8005f16:	2200      	movs	r2, #0
 8005f18:	f883 203c 	strb.w	r2, [r3, #60]	@ 0x3c

      return HAL_ERROR;
 8005f1c:	2301      	movs	r3, #1
 8005f1e:	e030      	b.n	8005f82 <I2C_WaitOnRXNEFlagUntilTimeout+0xb2>
    }

    /* Check for the Timeout */
    if (((HAL_GetTick() - Tickstart) > Timeout) || (Timeout == 0U))
 8005f20:	f7fd f970 	bl	8003204 <HAL_GetTick>
 8005f24:	4602      	mov	r2, r0
 8005f26:	687b      	ldr	r3, [r7, #4]
 8005f28:	1ad3      	subs	r3, r2, r3
 8005f2a:	68ba      	ldr	r2, [r7, #8]
 8005f2c:	429a      	cmp	r2, r3
 8005f2e:	d302      	bcc.n	8005f36 <I2C_WaitOnRXNEFlagUntilTimeout+0x66>
 8005f30:	68bb      	ldr	r3, [r7, #8]
 8005f32:	2b00      	cmp	r3, #0
 8005f34:	d11d      	bne.n	8005f72 <I2C_WaitOnRXNEFlagUntilTimeout+0xa2>
    {
      if ((__HAL_I2C_GET_FLAG(hi2c, I2C_FLAG_RXNE) == RESET))
 8005f36:	68fb      	ldr	r3, [r7, #12]
 8005f38:	681b      	ldr	r3, [r3, #0]
 8005f3a:	695b      	ldr	r3, [r3, #20]
 8005f3c:	f003 0340 	and.w	r3, r3, #64	@ 0x40
 8005f40:	2b40      	cmp	r3, #64	@ 0x40
 8005f42:	d016      	beq.n	8005f72 <I2C_WaitOnRXNEFlagUntilTimeout+0xa2>
      {
        hi2c->PreviousState       = I2C_STATE_NONE;
 8005f44:	68fb      	ldr	r3, [r7, #12]
 8005f46:	2200      	movs	r2, #0
 8005f48:	631a      	str	r2, [r3, #48]	@ 0x30
        hi2c->State               = HAL_I2C_STATE_READY;
 8005f4a:	68fb      	ldr	r3, [r7, #12]
 8005f4c:	2220      	movs	r2, #32
 8005f4e:	f883 203d 	strb.w	r2, [r3, #61]	@ 0x3d
        hi2c->Mode                = HAL_I2C_MODE_NONE;
 8005f52:	68fb      	ldr	r3, [r7, #12]
 8005f54:	2200      	movs	r2, #0
 8005f56:	f883 203e 	strb.w	r2, [r3, #62]	@ 0x3e
        hi2c->ErrorCode           |= HAL_I2C_ERROR_TIMEOUT;
 8005f5a:	68fb      	ldr	r3, [r7, #12]
 8005f5c:	6c1b      	ldr	r3, [r3, #64]	@ 0x40
 8005f5e:	f043 0220 	orr.w	r2, r3, #32
 8005f62:	68fb      	ldr	r3, [r7, #12]
 8005f64:	641a      	str	r2, [r3, #64]	@ 0x40

        /* Process Unlocked */
        __HAL_UNLOCK(hi2c);
 8005f66:	68fb      	ldr	r3, [r7, #12]
 8005f68:	2200      	movs	r2, #0
 8005f6a:	f883 203c 	strb.w	r2, [r3, #60]	@ 0x3c

        return HAL_ERROR;
 8005f6e:	2301      	movs	r3, #1
 8005f70:	e007      	b.n	8005f82 <I2C_WaitOnRXNEFlagUntilTimeout+0xb2>
  while (__HAL_I2C_GET_FLAG(hi2c, I2C_FLAG_RXNE) == RESET)
 8005f72:	68fb      	ldr	r3, [r7, #12]
 8005f74:	681b      	ldr	r3, [r3, #0]
 8005f76:	695b      	ldr	r3, [r3, #20]
 8005f78:	f003 0340 	and.w	r3, r3, #64	@ 0x40
 8005f7c:	2b40      	cmp	r3, #64	@ 0x40
 8005f7e:	d1ae      	bne.n	8005ede <I2C_WaitOnRXNEFlagUntilTimeout+0xe>
      }
    }
  }
  return HAL_OK;
 8005f80:	2300      	movs	r3, #0
}
 8005f82:	4618      	mov	r0, r3
 8005f84:	3710      	adds	r7, #16
 8005f86:	46bd      	mov	sp, r7
 8005f88:	bd80      	pop	{r7, pc}

08005f8a <I2C_IsAcknowledgeFailed>:
  * @param  hi2c Pointer to a I2C_HandleTypeDef structure that contains
  *                the configuration information for the specified I2C.
  * @retval HAL status
  */
static HAL_StatusTypeDef I2C_IsAcknowledgeFailed(I2C_HandleTypeDef *hi2c)
{
 8005f8a:	b480      	push	{r7}
 8005f8c:	b083      	sub	sp, #12
 8005f8e:	af00      	add	r7, sp, #0
 8005f90:	6078      	str	r0, [r7, #4]
  if (__HAL_I2C_GET_FLAG(hi2c, I2C_FLAG_AF) == SET)
 8005f92:	687b      	ldr	r3, [r7, #4]
 8005f94:	681b      	ldr	r3, [r3, #0]
 8005f96:	695b      	ldr	r3, [r3, #20]
 8005f98:	f403 6380 	and.w	r3, r3, #1024	@ 0x400
 8005f9c:	f5b3 6f80 	cmp.w	r3, #1024	@ 0x400
 8005fa0:	d11b      	bne.n	8005fda <I2C_IsAcknowledgeFailed+0x50>
  {
    /* Clear NACKF Flag */
    __HAL_I2C_CLEAR_FLAG(hi2c, I2C_FLAG_AF);
 8005fa2:	687b      	ldr	r3, [r7, #4]
 8005fa4:	681b      	ldr	r3, [r3, #0]
 8005fa6:	f46f 6280 	mvn.w	r2, #1024	@ 0x400
 8005faa:	615a      	str	r2, [r3, #20]

    hi2c->PreviousState       = I2C_STATE_NONE;
 8005fac:	687b      	ldr	r3, [r7, #4]
 8005fae:	2200      	movs	r2, #0
 8005fb0:	631a      	str	r2, [r3, #48]	@ 0x30
    hi2c->State               = HAL_I2C_STATE_READY;
 8005fb2:	687b      	ldr	r3, [r7, #4]
 8005fb4:	2220      	movs	r2, #32
 8005fb6:	f883 203d 	strb.w	r2, [r3, #61]	@ 0x3d
    hi2c->Mode                = HAL_I2C_MODE_NONE;
 8005fba:	687b      	ldr	r3, [r7, #4]
 8005fbc:	2200      	movs	r2, #0
 8005fbe:	f883 203e 	strb.w	r2, [r3, #62]	@ 0x3e
    hi2c->ErrorCode           |= HAL_I2C_ERROR_AF;
 8005fc2:	687b      	ldr	r3, [r7, #4]
 8005fc4:	6c1b      	ldr	r3, [r3, #64]	@ 0x40
 8005fc6:	f043 0204 	orr.w	r2, r3, #4
 8005fca:	687b      	ldr	r3, [r7, #4]
 8005fcc:	641a      	str	r2, [r3, #64]	@ 0x40

    /* Process Unlocked */
    __HAL_UNLOCK(hi2c);
 8005fce:	687b      	ldr	r3, [r7, #4]
 8005fd0:	2200      	movs	r2, #0
 8005fd2:	f883 203c 	strb.w	r2, [r3, #60]	@ 0x3c

    return HAL_ERROR;
 8005fd6:	2301      	movs	r3, #1
 8005fd8:	e000      	b.n	8005fdc <I2C_IsAcknowledgeFailed+0x52>
  }
  return HAL_OK;
 8005fda:	2300      	movs	r3, #0
}
 8005fdc:	4618      	mov	r0, r3
 8005fde:	370c      	adds	r7, #12
 8005fe0:	46bd      	mov	sp, r7
 8005fe2:	f85d 7b04 	ldr.w	r7, [sp], #4
 8005fe6:	4770      	bx	lr

08005fe8 <HAL_I2CEx_ConfigAnalogFilter>:
  *                the configuration information for the specified I2Cx peripheral.
  * @param  AnalogFilter new state of the Analog filter.
  * @retval HAL status
  */
HAL_StatusTypeDef HAL_I2CEx_ConfigAnalogFilter(I2C_HandleTypeDef *hi2c, uint32_t AnalogFilter)
{
 8005fe8:	b480      	push	{r7}
 8005fea:	b083      	sub	sp, #12
 8005fec:	af00      	add	r7, sp, #0
 8005fee:	6078      	str	r0, [r7, #4]
 8005ff0:	6039      	str	r1, [r7, #0]
  /* Check the parameters */
  assert_param(IS_I2C_ALL_INSTANCE(hi2c->Instance));
  assert_param(IS_I2C_ANALOG_FILTER(AnalogFilter));

  if (hi2c->State == HAL_I2C_STATE_READY)
 8005ff2:	687b      	ldr	r3, [r7, #4]
 8005ff4:	f893 303d 	ldrb.w	r3, [r3, #61]	@ 0x3d
 8005ff8:	b2db      	uxtb	r3, r3
 8005ffa:	2b20      	cmp	r3, #32
 8005ffc:	d129      	bne.n	8006052 <HAL_I2CEx_ConfigAnalogFilter+0x6a>
  {
    hi2c->State = HAL_I2C_STATE_BUSY;
 8005ffe:	687b      	ldr	r3, [r7, #4]
 8006000:	2224      	movs	r2, #36	@ 0x24
 8006002:	f883 203d 	strb.w	r2, [r3, #61]	@ 0x3d

    /* Disable the selected I2C peripheral */
    __HAL_I2C_DISABLE(hi2c);
 8006006:	687b      	ldr	r3, [r7, #4]
 8006008:	681b      	ldr	r3, [r3, #0]
 800600a:	681a      	ldr	r2, [r3, #0]
 800600c:	687b      	ldr	r3, [r7, #4]
 800600e:	681b      	ldr	r3, [r3, #0]
 8006010:	f022 0201 	bic.w	r2, r2, #1
 8006014:	601a      	str	r2, [r3, #0]

    /* Reset I2Cx ANOFF bit */
    hi2c->Instance->FLTR &= ~(I2C_FLTR_ANOFF);
 8006016:	687b      	ldr	r3, [r7, #4]
 8006018:	681b      	ldr	r3, [r3, #0]
 800601a:	6a5a      	ldr	r2, [r3, #36]	@ 0x24
 800601c:	687b      	ldr	r3, [r7, #4]
 800601e:	681b      	ldr	r3, [r3, #0]
 8006020:	f022 0210 	bic.w	r2, r2, #16
 8006024:	625a      	str	r2, [r3, #36]	@ 0x24

    /* Disable the analog filter */
    hi2c->Instance->FLTR |= AnalogFilter;
 8006026:	687b      	ldr	r3, [r7, #4]
 8006028:	681b      	ldr	r3, [r3, #0]
 800602a:	6a59      	ldr	r1, [r3, #36]	@ 0x24
 800602c:	687b      	ldr	r3, [r7, #4]
 800602e:	681b      	ldr	r3, [r3, #0]
 8006030:	683a      	ldr	r2, [r7, #0]
 8006032:	430a      	orrs	r2, r1
 8006034:	625a      	str	r2, [r3, #36]	@ 0x24

    __HAL_I2C_ENABLE(hi2c);
 8006036:	687b      	ldr	r3, [r7, #4]
 8006038:	681b      	ldr	r3, [r3, #0]
 800603a:	681a      	ldr	r2, [r3, #0]
 800603c:	687b      	ldr	r3, [r7, #4]
 800603e:	681b      	ldr	r3, [r3, #0]
 8006040:	f042 0201 	orr.w	r2, r2, #1
 8006044:	601a      	str	r2, [r3, #0]

    hi2c->State = HAL_I2C_STATE_READY;
 8006046:	687b      	ldr	r3, [r7, #4]
 8006048:	2220      	movs	r2, #32
 800604a:	f883 203d 	strb.w	r2, [r3, #61]	@ 0x3d

    return HAL_OK;
 800604e:	2300      	movs	r3, #0
 8006050:	e000      	b.n	8006054 <HAL_I2CEx_ConfigAnalogFilter+0x6c>
  }
  else
  {
    return HAL_BUSY;
 8006052:	2302      	movs	r3, #2
  }
}
 8006054:	4618      	mov	r0, r3
 8006056:	370c      	adds	r7, #12
 8006058:	46bd      	mov	sp, r7
 800605a:	f85d 7b04 	ldr.w	r7, [sp], #4
 800605e:	4770      	bx	lr

08006060 <HAL_I2CEx_ConfigDigitalFilter>:
  *                the configuration information for the specified I2Cx peripheral.
  * @param  DigitalFilter Coefficient of digital noise filter between 0x00 and 0x0F.
  * @retval HAL status
  */
HAL_StatusTypeDef HAL_I2CEx_ConfigDigitalFilter(I2C_HandleTypeDef *hi2c, uint32_t DigitalFilter)
{
 8006060:	b480      	push	{r7}
 8006062:	b085      	sub	sp, #20
 8006064:	af00      	add	r7, sp, #0
 8006066:	6078      	str	r0, [r7, #4]
 8006068:	6039      	str	r1, [r7, #0]
  uint16_t tmpreg = 0;
 800606a:	2300      	movs	r3, #0
 800606c:	81fb      	strh	r3, [r7, #14]

  /* Check the parameters */
  assert_param(IS_I2C_ALL_INSTANCE(hi2c->Instance));
  assert_param(IS_I2C_DIGITAL_FILTER(DigitalFilter));

  if (hi2c->State == HAL_I2C_STATE_READY)
 800606e:	687b      	ldr	r3, [r7, #4]
 8006070:	f893 303d 	ldrb.w	r3, [r3, #61]	@ 0x3d
 8006074:	b2db      	uxtb	r3, r3
 8006076:	2b20      	cmp	r3, #32
 8006078:	d12a      	bne.n	80060d0 <HAL_I2CEx_ConfigDigitalFilter+0x70>
  {
    hi2c->State = HAL_I2C_STATE_BUSY;
 800607a:	687b      	ldr	r3, [r7, #4]
 800607c:	2224      	movs	r2, #36	@ 0x24
 800607e:	f883 203d 	strb.w	r2, [r3, #61]	@ 0x3d

    /* Disable the selected I2C peripheral */
    __HAL_I2C_DISABLE(hi2c);
 8006082:	687b      	ldr	r3, [r7, #4]
 8006084:	681b      	ldr	r3, [r3, #0]
 8006086:	681a      	ldr	r2, [r3, #0]
 8006088:	687b      	ldr	r3, [r7, #4]
 800608a:	681b      	ldr	r3, [r3, #0]
 800608c:	f022 0201 	bic.w	r2, r2, #1
 8006090:	601a      	str	r2, [r3, #0]

    /* Get the old register value */
    tmpreg = hi2c->Instance->FLTR;
 8006092:	687b      	ldr	r3, [r7, #4]
 8006094:	681b      	ldr	r3, [r3, #0]
 8006096:	6a5b      	ldr	r3, [r3, #36]	@ 0x24
 8006098:	81fb      	strh	r3, [r7, #14]

    /* Reset I2Cx DNF bit [3:0] */
    tmpreg &= ~(I2C_FLTR_DNF);
 800609a:	89fb      	ldrh	r3, [r7, #14]
 800609c:	f023 030f 	bic.w	r3, r3, #15
 80060a0:	81fb      	strh	r3, [r7, #14]

    /* Set I2Cx DNF coefficient */
    tmpreg |= DigitalFilter;
 80060a2:	683b      	ldr	r3, [r7, #0]
 80060a4:	b29a      	uxth	r2, r3
 80060a6:	89fb      	ldrh	r3, [r7, #14]
 80060a8:	4313      	orrs	r3, r2
 80060aa:	81fb      	strh	r3, [r7, #14]

    /* Store the new register value */
    hi2c->Instance->FLTR = tmpreg;
 80060ac:	687b      	ldr	r3, [r7, #4]
 80060ae:	681b      	ldr	r3, [r3, #0]
 80060b0:	89fa      	ldrh	r2, [r7, #14]
 80060b2:	625a      	str	r2, [r3, #36]	@ 0x24

    __HAL_I2C_ENABLE(hi2c);
 80060b4:	687b      	ldr	r3, [r7, #4]
 80060b6:	681b      	ldr	r3, [r3, #0]
 80060b8:	681a      	ldr	r2, [r3, #0]
 80060ba:	687b      	ldr	r3, [r7, #4]
 80060bc:	681b      	ldr	r3, [r3, #0]
 80060be:	f042 0201 	orr.w	r2, r2, #1
 80060c2:	601a      	str	r2, [r3, #0]

    hi2c->State = HAL_I2C_STATE_READY;
 80060c4:	687b      	ldr	r3, [r7, #4]
 80060c6:	2220      	movs	r2, #32
 80060c8:	f883 203d 	strb.w	r2, [r3, #61]	@ 0x3d

    return HAL_OK;
 80060cc:	2300      	movs	r3, #0
 80060ce:	e000      	b.n	80060d2 <HAL_I2CEx_ConfigDigitalFilter+0x72>
  }
  else
  {
    return HAL_BUSY;
 80060d0:	2302      	movs	r3, #2
  }
}
 80060d2:	4618      	mov	r0, r3
 80060d4:	3714      	adds	r7, #20
 80060d6:	46bd      	mov	sp, r7
 80060d8:	f85d 7b04 	ldr.w	r7, [sp], #4
 80060dc:	4770      	bx	lr
	...

080060e0 <HAL_PWR_EnableBkUpAccess>:
  *         in backup domain protection disabling/enabling after programming the
  *         DBP bit" section.
  * @retval None
  */
void HAL_PWR_EnableBkUpAccess(void)
{
 80060e0:	b480      	push	{r7}
 80060e2:	b083      	sub	sp, #12
 80060e4:	af00      	add	r7, sp, #0
  __IO uint32_t dummyread;
  *(__IO uint32_t *) CR_DBP_BB = (uint32_t)ENABLE;
 80060e6:	4b06      	ldr	r3, [pc, #24]	@ (8006100 <HAL_PWR_EnableBkUpAccess+0x20>)
 80060e8:	2201      	movs	r2, #1
 80060ea:	601a      	str	r2, [r3, #0]
  dummyread = PWR->CR;
 80060ec:	4b05      	ldr	r3, [pc, #20]	@ (8006104 <HAL_PWR_EnableBkUpAccess+0x24>)
 80060ee:	681b      	ldr	r3, [r3, #0]
 80060f0:	607b      	str	r3, [r7, #4]
  UNUSED(dummyread);
 80060f2:	687b      	ldr	r3, [r7, #4]
}
 80060f4:	bf00      	nop
 80060f6:	370c      	adds	r7, #12
 80060f8:	46bd      	mov	sp, r7
 80060fa:	f85d 7b04 	ldr.w	r7, [sp], #4
 80060fe:	4770      	bx	lr
 8006100:	420e0020 	.word	0x420e0020
 8006104:	40007000 	.word	0x40007000

08006108 <HAL_PWR_DisableBkUpAccess>:
  *         in backup domain protection disabling/enabling after programming the
  *         DBP bit" section.
  * @retval None
  */
void HAL_PWR_DisableBkUpAccess(void)
{
 8006108:	b480      	push	{r7}
 800610a:	b083      	sub	sp, #12
 800610c:	af00      	add	r7, sp, #0
  __IO uint32_t dummyread;
  *(__IO uint32_t *) CR_DBP_BB = (uint32_t)DISABLE;
 800610e:	4b06      	ldr	r3, [pc, #24]	@ (8006128 <HAL_PWR_DisableBkUpAccess+0x20>)
 8006110:	2200      	movs	r2, #0
 8006112:	601a      	str	r2, [r3, #0]
  dummyread = PWR->CR;
 8006114:	4b05      	ldr	r3, [pc, #20]	@ (800612c <HAL_PWR_DisableBkUpAccess+0x24>)
 8006116:	681b      	ldr	r3, [r3, #0]
 8006118:	607b      	str	r3, [r7, #4]
  UNUSED(dummyread);
 800611a:	687b      	ldr	r3, [r7, #4]
}
 800611c:	bf00      	nop
 800611e:	370c      	adds	r7, #12
 8006120:	46bd      	mov	sp, r7
 8006122:	f85d 7b04 	ldr.w	r7, [sp], #4
 8006126:	4770      	bx	lr
 8006128:	420e0020 	.word	0x420e0020
 800612c:	40007000 	.word	0x40007000

08006130 <HAL_RCC_OscConfig>:
  *         supported by this API. User should request a transition to HSE Off
  *         first and then HSE On or HSE Bypass.
  * @retval HAL status
  */
__weak HAL_StatusTypeDef HAL_RCC_OscConfig(RCC_OscInitTypeDef  *RCC_OscInitStruct)
{
 8006130:	b580      	push	{r7, lr}
 8006132:	b086      	sub	sp, #24
 8006134:	af00      	add	r7, sp, #0
 8006136:	6078      	str	r0, [r7, #4]
  uint32_t tickstart, pll_config;

  /* Check Null pointer */
  if(RCC_OscInitStruct == NULL)
 8006138:	687b      	ldr	r3, [r7, #4]
 800613a:	2b00      	cmp	r3, #0
 800613c:	d101      	bne.n	8006142 <HAL_RCC_OscConfig+0x12>
  {
    return HAL_ERROR;
 800613e:	2301      	movs	r3, #1
 8006140:	e267      	b.n	8006612 <HAL_RCC_OscConfig+0x4e2>
  }

  /* Check the parameters */
  assert_param(IS_RCC_OSCILLATORTYPE(RCC_OscInitStruct->OscillatorType));
  /*------------------------------- HSE Configuration ------------------------*/
  if(((RCC_OscInitStruct->OscillatorType) & RCC_OSCILLATORTYPE_HSE) == RCC_OSCILLATORTYPE_HSE)
 8006142:	687b      	ldr	r3, [r7, #4]
 8006144:	681b      	ldr	r3, [r3, #0]
 8006146:	f003 0301 	and.w	r3, r3, #1
 800614a:	2b00      	cmp	r3, #0
 800614c:	d075      	beq.n	800623a <HAL_RCC_OscConfig+0x10a>
  {
    /* Check the parameters */
    assert_param(IS_RCC_HSE(RCC_OscInitStruct->HSEState));
    /* When the HSE is used as system clock or clock source for PLL in these cases HSE will not disabled */
    if((__HAL_RCC_GET_SYSCLK_SOURCE() == RCC_CFGR_SWS_HSE) ||\
 800614e:	4b88      	ldr	r3, [pc, #544]	@ (8006370 <HAL_RCC_OscConfig+0x240>)
 8006150:	689b      	ldr	r3, [r3, #8]
 8006152:	f003 030c 	and.w	r3, r3, #12
 8006156:	2b04      	cmp	r3, #4
 8006158:	d00c      	beq.n	8006174 <HAL_RCC_OscConfig+0x44>
      ((__HAL_RCC_GET_SYSCLK_SOURCE() == RCC_CFGR_SWS_PLL) && ((RCC->PLLCFGR & RCC_PLLCFGR_PLLSRC) == RCC_PLLCFGR_PLLSRC_HSE)))
 800615a:	4b85      	ldr	r3, [pc, #532]	@ (8006370 <HAL_RCC_OscConfig+0x240>)
 800615c:	689b      	ldr	r3, [r3, #8]
 800615e:	f003 030c 	and.w	r3, r3, #12
    if((__HAL_RCC_GET_SYSCLK_SOURCE() == RCC_CFGR_SWS_HSE) ||\
 8006162:	2b08      	cmp	r3, #8
 8006164:	d112      	bne.n	800618c <HAL_RCC_OscConfig+0x5c>
      ((__HAL_RCC_GET_SYSCLK_SOURCE() == RCC_CFGR_SWS_PLL) && ((RCC->PLLCFGR & RCC_PLLCFGR_PLLSRC) == RCC_PLLCFGR_PLLSRC_HSE)))
 8006166:	4b82      	ldr	r3, [pc, #520]	@ (8006370 <HAL_RCC_OscConfig+0x240>)
 8006168:	685b      	ldr	r3, [r3, #4]
 800616a:	f403 0380 	and.w	r3, r3, #4194304	@ 0x400000
 800616e:	f5b3 0f80 	cmp.w	r3, #4194304	@ 0x400000
 8006172:	d10b      	bne.n	800618c <HAL_RCC_OscConfig+0x5c>
    {
      if((__HAL_RCC_GET_FLAG(RCC_FLAG_HSERDY) != RESET) && (RCC_OscInitStruct->HSEState == RCC_HSE_OFF))
 8006174:	4b7e      	ldr	r3, [pc, #504]	@ (8006370 <HAL_RCC_OscConfig+0x240>)
 8006176:	681b      	ldr	r3, [r3, #0]
 8006178:	f403 3300 	and.w	r3, r3, #131072	@ 0x20000
 800617c:	2b00      	cmp	r3, #0
 800617e:	d05b      	beq.n	8006238 <HAL_RCC_OscConfig+0x108>
 8006180:	687b      	ldr	r3, [r7, #4]
 8006182:	685b      	ldr	r3, [r3, #4]
 8006184:	2b00      	cmp	r3, #0
 8006186:	d157      	bne.n	8006238 <HAL_RCC_OscConfig+0x108>
      {
        return HAL_ERROR;
 8006188:	2301      	movs	r3, #1
 800618a:	e242      	b.n	8006612 <HAL_RCC_OscConfig+0x4e2>
      }
    }
    else
    {
      /* Set the new HSE configuration ---------------------------------------*/
      __HAL_RCC_HSE_CONFIG(RCC_OscInitStruct->HSEState);
 800618c:	687b      	ldr	r3, [r7, #4]
 800618e:	685b      	ldr	r3, [r3, #4]
 8006190:	f5b3 3f80 	cmp.w	r3, #65536	@ 0x10000
 8006194:	d106      	bne.n	80061a4 <HAL_RCC_OscConfig+0x74>
 8006196:	4b76      	ldr	r3, [pc, #472]	@ (8006370 <HAL_RCC_OscConfig+0x240>)
 8006198:	681b      	ldr	r3, [r3, #0]
 800619a:	4a75      	ldr	r2, [pc, #468]	@ (8006370 <HAL_RCC_OscConfig+0x240>)
 800619c:	f443 3380 	orr.w	r3, r3, #65536	@ 0x10000
 80061a0:	6013      	str	r3, [r2, #0]
 80061a2:	e01d      	b.n	80061e0 <HAL_RCC_OscConfig+0xb0>
 80061a4:	687b      	ldr	r3, [r7, #4]
 80061a6:	685b      	ldr	r3, [r3, #4]
 80061a8:	f5b3 2fa0 	cmp.w	r3, #327680	@ 0x50000
 80061ac:	d10c      	bne.n	80061c8 <HAL_RCC_OscConfig+0x98>
 80061ae:	4b70      	ldr	r3, [pc, #448]	@ (8006370 <HAL_RCC_OscConfig+0x240>)
 80061b0:	681b      	ldr	r3, [r3, #0]
 80061b2:	4a6f      	ldr	r2, [pc, #444]	@ (8006370 <HAL_RCC_OscConfig+0x240>)
 80061b4:	f443 2380 	orr.w	r3, r3, #262144	@ 0x40000
 80061b8:	6013      	str	r3, [r2, #0]
 80061ba:	4b6d      	ldr	r3, [pc, #436]	@ (8006370 <HAL_RCC_OscConfig+0x240>)
 80061bc:	681b      	ldr	r3, [r3, #0]
 80061be:	4a6c      	ldr	r2, [pc, #432]	@ (8006370 <HAL_RCC_OscConfig+0x240>)
 80061c0:	f443 3380 	orr.w	r3, r3, #65536	@ 0x10000
 80061c4:	6013      	str	r3, [r2, #0]
 80061c6:	e00b      	b.n	80061e0 <HAL_RCC_OscConfig+0xb0>
 80061c8:	4b69      	ldr	r3, [pc, #420]	@ (8006370 <HAL_RCC_OscConfig+0x240>)
 80061ca:	681b      	ldr	r3, [r3, #0]
 80061cc:	4a68      	ldr	r2, [pc, #416]	@ (8006370 <HAL_RCC_OscConfig+0x240>)
 80061ce:	f423 3380 	bic.w	r3, r3, #65536	@ 0x10000
 80061d2:	6013      	str	r3, [r2, #0]
 80061d4:	4b66      	ldr	r3, [pc, #408]	@ (8006370 <HAL_RCC_OscConfig+0x240>)
 80061d6:	681b      	ldr	r3, [r3, #0]
 80061d8:	4a65      	ldr	r2, [pc, #404]	@ (8006370 <HAL_RCC_OscConfig+0x240>)
 80061da:	f423 2380 	bic.w	r3, r3, #262144	@ 0x40000
 80061de:	6013      	str	r3, [r2, #0]

      /* Check the HSE State */
      if((RCC_OscInitStruct->HSEState) != RCC_HSE_OFF)
 80061e0:	687b      	ldr	r3, [r7, #4]
 80061e2:	685b      	ldr	r3, [r3, #4]
 80061e4:	2b00      	cmp	r3, #0
 80061e6:	d013      	beq.n	8006210 <HAL_RCC_OscConfig+0xe0>
      {
        /* Get Start Tick */
        tickstart = HAL_GetTick();
 80061e8:	f7fd f80c 	bl	8003204 <HAL_GetTick>
 80061ec:	6138      	str	r0, [r7, #16]

        /* Wait till HSE is ready */
        while(__HAL_RCC_GET_FLAG(RCC_FLAG_HSERDY) == RESET)
 80061ee:	e008      	b.n	8006202 <HAL_RCC_OscConfig+0xd2>
        {
          if((HAL_GetTick() - tickstart ) > HSE_TIMEOUT_VALUE)
 80061f0:	f7fd f808 	bl	8003204 <HAL_GetTick>
 80061f4:	4602      	mov	r2, r0
 80061f6:	693b      	ldr	r3, [r7, #16]
 80061f8:	1ad3      	subs	r3, r2, r3
 80061fa:	2b64      	cmp	r3, #100	@ 0x64
 80061fc:	d901      	bls.n	8006202 <HAL_RCC_OscConfig+0xd2>
          {
            return HAL_TIMEOUT;
 80061fe:	2303      	movs	r3, #3
 8006200:	e207      	b.n	8006612 <HAL_RCC_OscConfig+0x4e2>
        while(__HAL_RCC_GET_FLAG(RCC_FLAG_HSERDY) == RESET)
 8006202:	4b5b      	ldr	r3, [pc, #364]	@ (8006370 <HAL_RCC_OscConfig+0x240>)
 8006204:	681b      	ldr	r3, [r3, #0]
 8006206:	f403 3300 	and.w	r3, r3, #131072	@ 0x20000
 800620a:	2b00      	cmp	r3, #0
 800620c:	d0f0      	beq.n	80061f0 <HAL_RCC_OscConfig+0xc0>
 800620e:	e014      	b.n	800623a <HAL_RCC_OscConfig+0x10a>
        }
      }
      else
      {
        /* Get Start Tick */
        tickstart = HAL_GetTick();
 8006210:	f7fc fff8 	bl	8003204 <HAL_GetTick>
 8006214:	6138      	str	r0, [r7, #16]

        /* Wait till HSE is bypassed or disabled */
        while(__HAL_RCC_GET_FLAG(RCC_FLAG_HSERDY) != RESET)
 8006216:	e008      	b.n	800622a <HAL_RCC_OscConfig+0xfa>
        {
          if((HAL_GetTick() - tickstart ) > HSE_TIMEOUT_VALUE)
 8006218:	f7fc fff4 	bl	8003204 <HAL_GetTick>
 800621c:	4602      	mov	r2, r0
 800621e:	693b      	ldr	r3, [r7, #16]
 8006220:	1ad3      	subs	r3, r2, r3
 8006222:	2b64      	cmp	r3, #100	@ 0x64
 8006224:	d901      	bls.n	800622a <HAL_RCC_OscConfig+0xfa>
          {
            return HAL_TIMEOUT;
 8006226:	2303      	movs	r3, #3
 8006228:	e1f3      	b.n	8006612 <HAL_RCC_OscConfig+0x4e2>
        while(__HAL_RCC_GET_FLAG(RCC_FLAG_HSERDY) != RESET)
 800622a:	4b51      	ldr	r3, [pc, #324]	@ (8006370 <HAL_RCC_OscConfig+0x240>)
 800622c:	681b      	ldr	r3, [r3, #0]
 800622e:	f403 3300 	and.w	r3, r3, #131072	@ 0x20000
 8006232:	2b00      	cmp	r3, #0
 8006234:	d1f0      	bne.n	8006218 <HAL_RCC_OscConfig+0xe8>
 8006236:	e000      	b.n	800623a <HAL_RCC_OscConfig+0x10a>
      if((__HAL_RCC_GET_FLAG(RCC_FLAG_HSERDY) != RESET) && (RCC_OscInitStruct->HSEState == RCC_HSE_OFF))
 8006238:	bf00      	nop
        }
      }
    }
  }
  /*----------------------------- HSI Configuration --------------------------*/
  if(((RCC_OscInitStruct->OscillatorType) & RCC_OSCILLATORTYPE_HSI) == RCC_OSCILLATORTYPE_HSI)
 800623a:	687b      	ldr	r3, [r7, #4]
 800623c:	681b      	ldr	r3, [r3, #0]
 800623e:	f003 0302 	and.w	r3, r3, #2
 8006242:	2b00      	cmp	r3, #0
 8006244:	d063      	beq.n	800630e <HAL_RCC_OscConfig+0x1de>
    /* Check the parameters */
    assert_param(IS_RCC_HSI(RCC_OscInitStruct->HSIState));
    assert_param(IS_RCC_CALIBRATION_VALUE(RCC_OscInitStruct->HSICalibrationValue));

    /* Check if HSI is used as system clock or as PLL source when PLL is selected as system clock */
    if((__HAL_RCC_GET_SYSCLK_SOURCE() == RCC_CFGR_SWS_HSI) ||\
 8006246:	4b4a      	ldr	r3, [pc, #296]	@ (8006370 <HAL_RCC_OscConfig+0x240>)
 8006248:	689b      	ldr	r3, [r3, #8]
 800624a:	f003 030c 	and.w	r3, r3, #12
 800624e:	2b00      	cmp	r3, #0
 8006250:	d00b      	beq.n	800626a <HAL_RCC_OscConfig+0x13a>
      ((__HAL_RCC_GET_SYSCLK_SOURCE() == RCC_CFGR_SWS_PLL) && ((RCC->PLLCFGR & RCC_PLLCFGR_PLLSRC) == RCC_PLLCFGR_PLLSRC_HSI)))
 8006252:	4b47      	ldr	r3, [pc, #284]	@ (8006370 <HAL_RCC_OscConfig+0x240>)
 8006254:	689b      	ldr	r3, [r3, #8]
 8006256:	f003 030c 	and.w	r3, r3, #12
    if((__HAL_RCC_GET_SYSCLK_SOURCE() == RCC_CFGR_SWS_HSI) ||\
 800625a:	2b08      	cmp	r3, #8
 800625c:	d11c      	bne.n	8006298 <HAL_RCC_OscConfig+0x168>
      ((__HAL_RCC_GET_SYSCLK_SOURCE() == RCC_CFGR_SWS_PLL) && ((RCC->PLLCFGR & RCC_PLLCFGR_PLLSRC) == RCC_PLLCFGR_PLLSRC_HSI)))
 800625e:	4b44      	ldr	r3, [pc, #272]	@ (8006370 <HAL_RCC_OscConfig+0x240>)
 8006260:	685b      	ldr	r3, [r3, #4]
 8006262:	f403 0380 	and.w	r3, r3, #4194304	@ 0x400000
 8006266:	2b00      	cmp	r3, #0
 8006268:	d116      	bne.n	8006298 <HAL_RCC_OscConfig+0x168>
    {
      /* When HSI is used as system clock it will not disabled */
      if((__HAL_RCC_GET_FLAG(RCC_FLAG_HSIRDY) != RESET) && (RCC_OscInitStruct->HSIState != RCC_HSI_ON))
 800626a:	4b41      	ldr	r3, [pc, #260]	@ (8006370 <HAL_RCC_OscConfig+0x240>)
 800626c:	681b      	ldr	r3, [r3, #0]
 800626e:	f003 0302 	and.w	r3, r3, #2
 8006272:	2b00      	cmp	r3, #0
 8006274:	d005      	beq.n	8006282 <HAL_RCC_OscConfig+0x152>
 8006276:	687b      	ldr	r3, [r7, #4]
 8006278:	68db      	ldr	r3, [r3, #12]
 800627a:	2b01      	cmp	r3, #1
 800627c:	d001      	beq.n	8006282 <HAL_RCC_OscConfig+0x152>
      {
        return HAL_ERROR;
 800627e:	2301      	movs	r3, #1
 8006280:	e1c7      	b.n	8006612 <HAL_RCC_OscConfig+0x4e2>
      }
      /* Otherwise, just the calibration is allowed */
      else
      {
        /* Adjusts the Internal High Speed oscillator (HSI) calibration value.*/
        __HAL_RCC_HSI_CALIBRATIONVALUE_ADJUST(RCC_OscInitStruct->HSICalibrationValue);
 8006282:	4b3b      	ldr	r3, [pc, #236]	@ (8006370 <HAL_RCC_OscConfig+0x240>)
 8006284:	681b      	ldr	r3, [r3, #0]
 8006286:	f023 02f8 	bic.w	r2, r3, #248	@ 0xf8
 800628a:	687b      	ldr	r3, [r7, #4]
 800628c:	691b      	ldr	r3, [r3, #16]
 800628e:	00db      	lsls	r3, r3, #3
 8006290:	4937      	ldr	r1, [pc, #220]	@ (8006370 <HAL_RCC_OscConfig+0x240>)
 8006292:	4313      	orrs	r3, r2
 8006294:	600b      	str	r3, [r1, #0]
      if((__HAL_RCC_GET_FLAG(RCC_FLAG_HSIRDY) != RESET) && (RCC_OscInitStruct->HSIState != RCC_HSI_ON))
 8006296:	e03a      	b.n	800630e <HAL_RCC_OscConfig+0x1de>
      }
    }
    else
    {
      /* Check the HSI State */
      if((RCC_OscInitStruct->HSIState)!= RCC_HSI_OFF)
 8006298:	687b      	ldr	r3, [r7, #4]
 800629a:	68db      	ldr	r3, [r3, #12]
 800629c:	2b00      	cmp	r3, #0
 800629e:	d020      	beq.n	80062e2 <HAL_RCC_OscConfig+0x1b2>
      {
        /* Enable the Internal High Speed oscillator (HSI). */
        __HAL_RCC_HSI_ENABLE();
 80062a0:	4b34      	ldr	r3, [pc, #208]	@ (8006374 <HAL_RCC_OscConfig+0x244>)
 80062a2:	2201      	movs	r2, #1
 80062a4:	601a      	str	r2, [r3, #0]

        /* Get Start Tick*/
        tickstart = HAL_GetTick();
 80062a6:	f7fc ffad 	bl	8003204 <HAL_GetTick>
 80062aa:	6138      	str	r0, [r7, #16]

        /* Wait till HSI is ready */
        while(__HAL_RCC_GET_FLAG(RCC_FLAG_HSIRDY) == RESET)
 80062ac:	e008      	b.n	80062c0 <HAL_RCC_OscConfig+0x190>
        {
          if((HAL_GetTick() - tickstart ) > HSI_TIMEOUT_VALUE)
 80062ae:	f7fc ffa9 	bl	8003204 <HAL_GetTick>
 80062b2:	4602      	mov	r2, r0
 80062b4:	693b      	ldr	r3, [r7, #16]
 80062b6:	1ad3      	subs	r3, r2, r3
 80062b8:	2b02      	cmp	r3, #2
 80062ba:	d901      	bls.n	80062c0 <HAL_RCC_OscConfig+0x190>
          {
            return HAL_TIMEOUT;
 80062bc:	2303      	movs	r3, #3
 80062be:	e1a8      	b.n	8006612 <HAL_RCC_OscConfig+0x4e2>
        while(__HAL_RCC_GET_FLAG(RCC_FLAG_HSIRDY) == RESET)
 80062c0:	4b2b      	ldr	r3, [pc, #172]	@ (8006370 <HAL_RCC_OscConfig+0x240>)
 80062c2:	681b      	ldr	r3, [r3, #0]
 80062c4:	f003 0302 	and.w	r3, r3, #2
 80062c8:	2b00      	cmp	r3, #0
 80062ca:	d0f0      	beq.n	80062ae <HAL_RCC_OscConfig+0x17e>
          }
        }

        /* Adjusts the Internal High Speed oscillator (HSI) calibration value. */
        __HAL_RCC_HSI_CALIBRATIONVALUE_ADJUST(RCC_OscInitStruct->HSICalibrationValue);
 80062cc:	4b28      	ldr	r3, [pc, #160]	@ (8006370 <HAL_RCC_OscConfig+0x240>)
 80062ce:	681b      	ldr	r3, [r3, #0]
 80062d0:	f023 02f8 	bic.w	r2, r3, #248	@ 0xf8
 80062d4:	687b      	ldr	r3, [r7, #4]
 80062d6:	691b      	ldr	r3, [r3, #16]
 80062d8:	00db      	lsls	r3, r3, #3
 80062da:	4925      	ldr	r1, [pc, #148]	@ (8006370 <HAL_RCC_OscConfig+0x240>)
 80062dc:	4313      	orrs	r3, r2
 80062de:	600b      	str	r3, [r1, #0]
 80062e0:	e015      	b.n	800630e <HAL_RCC_OscConfig+0x1de>
      }
      else
      {
        /* Disable the Internal High Speed oscillator (HSI). */
        __HAL_RCC_HSI_DISABLE();
 80062e2:	4b24      	ldr	r3, [pc, #144]	@ (8006374 <HAL_RCC_OscConfig+0x244>)
 80062e4:	2200      	movs	r2, #0
 80062e6:	601a      	str	r2, [r3, #0]

        /* Get Start Tick*/
        tickstart = HAL_GetTick();
 80062e8:	f7fc ff8c 	bl	8003204 <HAL_GetTick>
 80062ec:	6138      	str	r0, [r7, #16]

        /* Wait till HSI is ready */
        while(__HAL_RCC_GET_FLAG(RCC_FLAG_HSIRDY) != RESET)
 80062ee:	e008      	b.n	8006302 <HAL_RCC_OscConfig+0x1d2>
        {
          if((HAL_GetTick() - tickstart ) > HSI_TIMEOUT_VALUE)
 80062f0:	f7fc ff88 	bl	8003204 <HAL_GetTick>
 80062f4:	4602      	mov	r2, r0
 80062f6:	693b      	ldr	r3, [r7, #16]
 80062f8:	1ad3      	subs	r3, r2, r3
 80062fa:	2b02      	cmp	r3, #2
 80062fc:	d901      	bls.n	8006302 <HAL_RCC_OscConfig+0x1d2>
          {
            return HAL_TIMEOUT;
 80062fe:	2303      	movs	r3, #3
 8006300:	e187      	b.n	8006612 <HAL_RCC_OscConfig+0x4e2>
        while(__HAL_RCC_GET_FLAG(RCC_FLAG_HSIRDY) != RESET)
 8006302:	4b1b      	ldr	r3, [pc, #108]	@ (8006370 <HAL_RCC_OscConfig+0x240>)
 8006304:	681b      	ldr	r3, [r3, #0]
 8006306:	f003 0302 	and.w	r3, r3, #2
 800630a:	2b00      	cmp	r3, #0
 800630c:	d1f0      	bne.n	80062f0 <HAL_RCC_OscConfig+0x1c0>
        }
      }
    }
  }
  /*------------------------------ LSI Configuration -------------------------*/
  if(((RCC_OscInitStruct->OscillatorType) & RCC_OSCILLATORTYPE_LSI) == RCC_OSCILLATORTYPE_LSI)
 800630e:	687b      	ldr	r3, [r7, #4]
 8006310:	681b      	ldr	r3, [r3, #0]
 8006312:	f003 0308 	and.w	r3, r3, #8
 8006316:	2b00      	cmp	r3, #0
 8006318:	d036      	beq.n	8006388 <HAL_RCC_OscConfig+0x258>
  {
    /* Check the parameters */
    assert_param(IS_RCC_LSI(RCC_OscInitStruct->LSIState));

    /* Check the LSI State */
    if((RCC_OscInitStruct->LSIState)!= RCC_LSI_OFF)
 800631a:	687b      	ldr	r3, [r7, #4]
 800631c:	695b      	ldr	r3, [r3, #20]
 800631e:	2b00      	cmp	r3, #0
 8006320:	d016      	beq.n	8006350 <HAL_RCC_OscConfig+0x220>
    {
      /* Enable the Internal Low Speed oscillator (LSI). */
      __HAL_RCC_LSI_ENABLE();
 8006322:	4b15      	ldr	r3, [pc, #84]	@ (8006378 <HAL_RCC_OscConfig+0x248>)
 8006324:	2201      	movs	r2, #1
 8006326:	601a      	str	r2, [r3, #0]

      /* Get Start Tick*/
      tickstart = HAL_GetTick();
 8006328:	f7fc ff6c 	bl	8003204 <HAL_GetTick>
 800632c:	6138      	str	r0, [r7, #16]

      /* Wait till LSI is ready */
      while(__HAL_RCC_GET_FLAG(RCC_FLAG_LSIRDY) == RESET)
 800632e:	e008      	b.n	8006342 <HAL_RCC_OscConfig+0x212>
      {
        if((HAL_GetTick() - tickstart ) > LSI_TIMEOUT_VALUE)
 8006330:	f7fc ff68 	bl	8003204 <HAL_GetTick>
 8006334:	4602      	mov	r2, r0
 8006336:	693b      	ldr	r3, [r7, #16]
 8006338:	1ad3      	subs	r3, r2, r3
 800633a:	2b02      	cmp	r3, #2
 800633c:	d901      	bls.n	8006342 <HAL_RCC_OscConfig+0x212>
        {
          return HAL_TIMEOUT;
 800633e:	2303      	movs	r3, #3
 8006340:	e167      	b.n	8006612 <HAL_RCC_OscConfig+0x4e2>
      while(__HAL_RCC_GET_FLAG(RCC_FLAG_LSIRDY) == RESET)
 8006342:	4b0b      	ldr	r3, [pc, #44]	@ (8006370 <HAL_RCC_OscConfig+0x240>)
 8006344:	6f5b      	ldr	r3, [r3, #116]	@ 0x74
 8006346:	f003 0302 	and.w	r3, r3, #2
 800634a:	2b00      	cmp	r3, #0
 800634c:	d0f0      	beq.n	8006330 <HAL_RCC_OscConfig+0x200>
 800634e:	e01b      	b.n	8006388 <HAL_RCC_OscConfig+0x258>
      }
    }
    else
    {
      /* Disable the Internal Low Speed oscillator (LSI). */
      __HAL_RCC_LSI_DISABLE();
 8006350:	4b09      	ldr	r3, [pc, #36]	@ (8006378 <HAL_RCC_OscConfig+0x248>)
 8006352:	2200      	movs	r2, #0
 8006354:	601a      	str	r2, [r3, #0]

      /* Get Start Tick */
      tickstart = HAL_GetTick();
 8006356:	f7fc ff55 	bl	8003204 <HAL_GetTick>
 800635a:	6138      	str	r0, [r7, #16]

      /* Wait till LSI is ready */
      while(__HAL_RCC_GET_FLAG(RCC_FLAG_LSIRDY) != RESET)
 800635c:	e00e      	b.n	800637c <HAL_RCC_OscConfig+0x24c>
      {
        if((HAL_GetTick() - tickstart ) > LSI_TIMEOUT_VALUE)
 800635e:	f7fc ff51 	bl	8003204 <HAL_GetTick>
 8006362:	4602      	mov	r2, r0
 8006364:	693b      	ldr	r3, [r7, #16]
 8006366:	1ad3      	subs	r3, r2, r3
 8006368:	2b02      	cmp	r3, #2
 800636a:	d907      	bls.n	800637c <HAL_RCC_OscConfig+0x24c>
        {
          return HAL_TIMEOUT;
 800636c:	2303      	movs	r3, #3
 800636e:	e150      	b.n	8006612 <HAL_RCC_OscConfig+0x4e2>
 8006370:	40023800 	.word	0x40023800
 8006374:	42470000 	.word	0x42470000
 8006378:	42470e80 	.word	0x42470e80
      while(__HAL_RCC_GET_FLAG(RCC_FLAG_LSIRDY) != RESET)
 800637c:	4b88      	ldr	r3, [pc, #544]	@ (80065a0 <HAL_RCC_OscConfig+0x470>)
 800637e:	6f5b      	ldr	r3, [r3, #116]	@ 0x74
 8006380:	f003 0302 	and.w	r3, r3, #2
 8006384:	2b00      	cmp	r3, #0
 8006386:	d1ea      	bne.n	800635e <HAL_RCC_OscConfig+0x22e>
        }
      }
    }
  }
  /*------------------------------ LSE Configuration -------------------------*/
  if(((RCC_OscInitStruct->OscillatorType) & RCC_OSCILLATORTYPE_LSE) == RCC_OSCILLATORTYPE_LSE)
 8006388:	687b      	ldr	r3, [r7, #4]
 800638a:	681b      	ldr	r3, [r3, #0]
 800638c:	f003 0304 	and.w	r3, r3, #4
 8006390:	2b00      	cmp	r3, #0
 8006392:	f000 8097 	beq.w	80064c4 <HAL_RCC_OscConfig+0x394>
  {
    FlagStatus       pwrclkchanged = RESET;
 8006396:	2300      	movs	r3, #0
 8006398:	75fb      	strb	r3, [r7, #23]
    /* Check the parameters */
    assert_param(IS_RCC_LSE(RCC_OscInitStruct->LSEState));

    /* Update LSE configuration in Backup Domain control register    */
    /* Requires to enable write access to Backup Domain of necessary */
    if(__HAL_RCC_PWR_IS_CLK_DISABLED())
 800639a:	4b81      	ldr	r3, [pc, #516]	@ (80065a0 <HAL_RCC_OscConfig+0x470>)
 800639c:	6c1b      	ldr	r3, [r3, #64]	@ 0x40
 800639e:	f003 5380 	and.w	r3, r3, #268435456	@ 0x10000000
 80063a2:	2b00      	cmp	r3, #0
 80063a4:	d10f      	bne.n	80063c6 <HAL_RCC_OscConfig+0x296>
    {
      __HAL_RCC_PWR_CLK_ENABLE();
 80063a6:	2300      	movs	r3, #0
 80063a8:	60bb      	str	r3, [r7, #8]
 80063aa:	4b7d      	ldr	r3, [pc, #500]	@ (80065a0 <HAL_RCC_OscConfig+0x470>)
 80063ac:	6c1b      	ldr	r3, [r3, #64]	@ 0x40
 80063ae:	4a7c      	ldr	r2, [pc, #496]	@ (80065a0 <HAL_RCC_OscConfig+0x470>)
 80063b0:	f043 5380 	orr.w	r3, r3, #268435456	@ 0x10000000
 80063b4:	6413      	str	r3, [r2, #64]	@ 0x40
 80063b6:	4b7a      	ldr	r3, [pc, #488]	@ (80065a0 <HAL_RCC_OscConfig+0x470>)
 80063b8:	6c1b      	ldr	r3, [r3, #64]	@ 0x40
 80063ba:	f003 5380 	and.w	r3, r3, #268435456	@ 0x10000000
 80063be:	60bb      	str	r3, [r7, #8]
 80063c0:	68bb      	ldr	r3, [r7, #8]
      pwrclkchanged = SET;
 80063c2:	2301      	movs	r3, #1
 80063c4:	75fb      	strb	r3, [r7, #23]
    }

    if(HAL_IS_BIT_CLR(PWR->CR, PWR_CR_DBP))
 80063c6:	4b77      	ldr	r3, [pc, #476]	@ (80065a4 <HAL_RCC_OscConfig+0x474>)
 80063c8:	681b      	ldr	r3, [r3, #0]
 80063ca:	f403 7380 	and.w	r3, r3, #256	@ 0x100
 80063ce:	2b00      	cmp	r3, #0
 80063d0:	d118      	bne.n	8006404 <HAL_RCC_OscConfig+0x2d4>
    {
      /* Enable write access to Backup domain */
      SET_BIT(PWR->CR, PWR_CR_DBP);
 80063d2:	4b74      	ldr	r3, [pc, #464]	@ (80065a4 <HAL_RCC_OscConfig+0x474>)
 80063d4:	681b      	ldr	r3, [r3, #0]
 80063d6:	4a73      	ldr	r2, [pc, #460]	@ (80065a4 <HAL_RCC_OscConfig+0x474>)
 80063d8:	f443 7380 	orr.w	r3, r3, #256	@ 0x100
 80063dc:	6013      	str	r3, [r2, #0]

      /* Wait for Backup domain Write protection disable */
      tickstart = HAL_GetTick();
 80063de:	f7fc ff11 	bl	8003204 <HAL_GetTick>
 80063e2:	6138      	str	r0, [r7, #16]

      while(HAL_IS_BIT_CLR(PWR->CR, PWR_CR_DBP))
 80063e4:	e008      	b.n	80063f8 <HAL_RCC_OscConfig+0x2c8>
      {
        if((HAL_GetTick() - tickstart) > RCC_DBP_TIMEOUT_VALUE)
 80063e6:	f7fc ff0d 	bl	8003204 <HAL_GetTick>
 80063ea:	4602      	mov	r2, r0
 80063ec:	693b      	ldr	r3, [r7, #16]
 80063ee:	1ad3      	subs	r3, r2, r3
 80063f0:	2b02      	cmp	r3, #2
 80063f2:	d901      	bls.n	80063f8 <HAL_RCC_OscConfig+0x2c8>
        {
          return HAL_TIMEOUT;
 80063f4:	2303      	movs	r3, #3
 80063f6:	e10c      	b.n	8006612 <HAL_RCC_OscConfig+0x4e2>
      while(HAL_IS_BIT_CLR(PWR->CR, PWR_CR_DBP))
 80063f8:	4b6a      	ldr	r3, [pc, #424]	@ (80065a4 <HAL_RCC_OscConfig+0x474>)
 80063fa:	681b      	ldr	r3, [r3, #0]
 80063fc:	f403 7380 	and.w	r3, r3, #256	@ 0x100
 8006400:	2b00      	cmp	r3, #0
 8006402:	d0f0      	beq.n	80063e6 <HAL_RCC_OscConfig+0x2b6>
        }
      }
    }

    /* Set the new LSE configuration -----------------------------------------*/
    __HAL_RCC_LSE_CONFIG(RCC_OscInitStruct->LSEState);
 8006404:	687b      	ldr	r3, [r7, #4]
 8006406:	689b      	ldr	r3, [r3, #8]
 8006408:	2b01      	cmp	r3, #1
 800640a:	d106      	bne.n	800641a <HAL_RCC_OscConfig+0x2ea>
 800640c:	4b64      	ldr	r3, [pc, #400]	@ (80065a0 <HAL_RCC_OscConfig+0x470>)
 800640e:	6f1b      	ldr	r3, [r3, #112]	@ 0x70
 8006410:	4a63      	ldr	r2, [pc, #396]	@ (80065a0 <HAL_RCC_OscConfig+0x470>)
 8006412:	f043 0301 	orr.w	r3, r3, #1
 8006416:	6713      	str	r3, [r2, #112]	@ 0x70
 8006418:	e01c      	b.n	8006454 <HAL_RCC_OscConfig+0x324>
 800641a:	687b      	ldr	r3, [r7, #4]
 800641c:	689b      	ldr	r3, [r3, #8]
 800641e:	2b05      	cmp	r3, #5
 8006420:	d10c      	bne.n	800643c <HAL_RCC_OscConfig+0x30c>
 8006422:	4b5f      	ldr	r3, [pc, #380]	@ (80065a0 <HAL_RCC_OscConfig+0x470>)
 8006424:	6f1b      	ldr	r3, [r3, #112]	@ 0x70
 8006426:	4a5e      	ldr	r2, [pc, #376]	@ (80065a0 <HAL_RCC_OscConfig+0x470>)
 8006428:	f043 0304 	orr.w	r3, r3, #4
 800642c:	6713      	str	r3, [r2, #112]	@ 0x70
 800642e:	4b5c      	ldr	r3, [pc, #368]	@ (80065a0 <HAL_RCC_OscConfig+0x470>)
 8006430:	6f1b      	ldr	r3, [r3, #112]	@ 0x70
 8006432:	4a5b      	ldr	r2, [pc, #364]	@ (80065a0 <HAL_RCC_OscConfig+0x470>)
 8006434:	f043 0301 	orr.w	r3, r3, #1
 8006438:	6713      	str	r3, [r2, #112]	@ 0x70
 800643a:	e00b      	b.n	8006454 <HAL_RCC_OscConfig+0x324>
 800643c:	4b58      	ldr	r3, [pc, #352]	@ (80065a0 <HAL_RCC_OscConfig+0x470>)
 800643e:	6f1b      	ldr	r3, [r3, #112]	@ 0x70
 8006440:	4a57      	ldr	r2, [pc, #348]	@ (80065a0 <HAL_RCC_OscConfig+0x470>)
 8006442:	f023 0301 	bic.w	r3, r3, #1
 8006446:	6713      	str	r3, [r2, #112]	@ 0x70
 8006448:	4b55      	ldr	r3, [pc, #340]	@ (80065a0 <HAL_RCC_OscConfig+0x470>)
 800644a:	6f1b      	ldr	r3, [r3, #112]	@ 0x70
 800644c:	4a54      	ldr	r2, [pc, #336]	@ (80065a0 <HAL_RCC_OscConfig+0x470>)
 800644e:	f023 0304 	bic.w	r3, r3, #4
 8006452:	6713      	str	r3, [r2, #112]	@ 0x70
    /* Check the LSE State */
    if((RCC_OscInitStruct->LSEState) != RCC_LSE_OFF)
 8006454:	687b      	ldr	r3, [r7, #4]
 8006456:	689b      	ldr	r3, [r3, #8]
 8006458:	2b00      	cmp	r3, #0
 800645a:	d015      	beq.n	8006488 <HAL_RCC_OscConfig+0x358>
    {
      /* Get Start Tick*/
      tickstart = HAL_GetTick();
 800645c:	f7fc fed2 	bl	8003204 <HAL_GetTick>
 8006460:	6138      	str	r0, [r7, #16]

      /* Wait till LSE is ready */
      while(__HAL_RCC_GET_FLAG(RCC_FLAG_LSERDY) == RESET)
 8006462:	e00a      	b.n	800647a <HAL_RCC_OscConfig+0x34a>
      {
        if((HAL_GetTick() - tickstart ) > RCC_LSE_TIMEOUT_VALUE)
 8006464:	f7fc fece 	bl	8003204 <HAL_GetTick>
 8006468:	4602      	mov	r2, r0
 800646a:	693b      	ldr	r3, [r7, #16]
 800646c:	1ad3      	subs	r3, r2, r3
 800646e:	f241 3288 	movw	r2, #5000	@ 0x1388
 8006472:	4293      	cmp	r3, r2
 8006474:	d901      	bls.n	800647a <HAL_RCC_OscConfig+0x34a>
        {
          return HAL_TIMEOUT;
 8006476:	2303      	movs	r3, #3
 8006478:	e0cb      	b.n	8006612 <HAL_RCC_OscConfig+0x4e2>
      while(__HAL_RCC_GET_FLAG(RCC_FLAG_LSERDY) == RESET)
 800647a:	4b49      	ldr	r3, [pc, #292]	@ (80065a0 <HAL_RCC_OscConfig+0x470>)
 800647c:	6f1b      	ldr	r3, [r3, #112]	@ 0x70
 800647e:	f003 0302 	and.w	r3, r3, #2
 8006482:	2b00      	cmp	r3, #0
 8006484:	d0ee      	beq.n	8006464 <HAL_RCC_OscConfig+0x334>
 8006486:	e014      	b.n	80064b2 <HAL_RCC_OscConfig+0x382>
      }
    }
    else
    {
      /* Get Start Tick */
      tickstart = HAL_GetTick();
 8006488:	f7fc febc 	bl	8003204 <HAL_GetTick>
 800648c:	6138      	str	r0, [r7, #16]

      /* Wait till LSE is ready */
      while(__HAL_RCC_GET_FLAG(RCC_FLAG_LSERDY) != RESET)
 800648e:	e00a      	b.n	80064a6 <HAL_RCC_OscConfig+0x376>
      {
        if((HAL_GetTick() - tickstart ) > RCC_LSE_TIMEOUT_VALUE)
 8006490:	f7fc feb8 	bl	8003204 <HAL_GetTick>
 8006494:	4602      	mov	r2, r0
 8006496:	693b      	ldr	r3, [r7, #16]
 8006498:	1ad3      	subs	r3, r2, r3
 800649a:	f241 3288 	movw	r2, #5000	@ 0x1388
 800649e:	4293      	cmp	r3, r2
 80064a0:	d901      	bls.n	80064a6 <HAL_RCC_OscConfig+0x376>
        {
          return HAL_TIMEOUT;
 80064a2:	2303      	movs	r3, #3
 80064a4:	e0b5      	b.n	8006612 <HAL_RCC_OscConfig+0x4e2>
      while(__HAL_RCC_GET_FLAG(RCC_FLAG_LSERDY) != RESET)
 80064a6:	4b3e      	ldr	r3, [pc, #248]	@ (80065a0 <HAL_RCC_OscConfig+0x470>)
 80064a8:	6f1b      	ldr	r3, [r3, #112]	@ 0x70
 80064aa:	f003 0302 	and.w	r3, r3, #2
 80064ae:	2b00      	cmp	r3, #0
 80064b0:	d1ee      	bne.n	8006490 <HAL_RCC_OscConfig+0x360>
        }
      }
    }

    /* Restore clock configuration if changed */
    if(pwrclkchanged == SET)
 80064b2:	7dfb      	ldrb	r3, [r7, #23]
 80064b4:	2b01      	cmp	r3, #1
 80064b6:	d105      	bne.n	80064c4 <HAL_RCC_OscConfig+0x394>
    {
      __HAL_RCC_PWR_CLK_DISABLE();
 80064b8:	4b39      	ldr	r3, [pc, #228]	@ (80065a0 <HAL_RCC_OscConfig+0x470>)
 80064ba:	6c1b      	ldr	r3, [r3, #64]	@ 0x40
 80064bc:	4a38      	ldr	r2, [pc, #224]	@ (80065a0 <HAL_RCC_OscConfig+0x470>)
 80064be:	f023 5380 	bic.w	r3, r3, #268435456	@ 0x10000000
 80064c2:	6413      	str	r3, [r2, #64]	@ 0x40
    }
  }
  /*-------------------------------- PLL Configuration -----------------------*/
  /* Check the parameters */
  assert_param(IS_RCC_PLL(RCC_OscInitStruct->PLL.PLLState));
  if ((RCC_OscInitStruct->PLL.PLLState) != RCC_PLL_NONE)
 80064c4:	687b      	ldr	r3, [r7, #4]
 80064c6:	699b      	ldr	r3, [r3, #24]
 80064c8:	2b00      	cmp	r3, #0
 80064ca:	f000 80a1 	beq.w	8006610 <HAL_RCC_OscConfig+0x4e0>
  {
    /* Check if the PLL is used as system clock or not */
    if(__HAL_RCC_GET_SYSCLK_SOURCE() != RCC_CFGR_SWS_PLL)
 80064ce:	4b34      	ldr	r3, [pc, #208]	@ (80065a0 <HAL_RCC_OscConfig+0x470>)
 80064d0:	689b      	ldr	r3, [r3, #8]
 80064d2:	f003 030c 	and.w	r3, r3, #12
 80064d6:	2b08      	cmp	r3, #8
 80064d8:	d05c      	beq.n	8006594 <HAL_RCC_OscConfig+0x464>
    {
      if((RCC_OscInitStruct->PLL.PLLState) == RCC_PLL_ON)
 80064da:	687b      	ldr	r3, [r7, #4]
 80064dc:	699b      	ldr	r3, [r3, #24]
 80064de:	2b02      	cmp	r3, #2
 80064e0:	d141      	bne.n	8006566 <HAL_RCC_OscConfig+0x436>
        assert_param(IS_RCC_PLLN_VALUE(RCC_OscInitStruct->PLL.PLLN));
        assert_param(IS_RCC_PLLP_VALUE(RCC_OscInitStruct->PLL.PLLP));
        assert_param(IS_RCC_PLLQ_VALUE(RCC_OscInitStruct->PLL.PLLQ));

        /* Disable the main PLL. */
        __HAL_RCC_PLL_DISABLE();
 80064e2:	4b31      	ldr	r3, [pc, #196]	@ (80065a8 <HAL_RCC_OscConfig+0x478>)
 80064e4:	2200      	movs	r2, #0
 80064e6:	601a      	str	r2, [r3, #0]

        /* Get Start Tick */
        tickstart = HAL_GetTick();
 80064e8:	f7fc fe8c 	bl	8003204 <HAL_GetTick>
 80064ec:	6138      	str	r0, [r7, #16]

        /* Wait till PLL is disabled */
        while(__HAL_RCC_GET_FLAG(RCC_FLAG_PLLRDY) != RESET)
 80064ee:	e008      	b.n	8006502 <HAL_RCC_OscConfig+0x3d2>
        {
          if((HAL_GetTick() - tickstart ) > PLL_TIMEOUT_VALUE)
 80064f0:	f7fc fe88 	bl	8003204 <HAL_GetTick>
 80064f4:	4602      	mov	r2, r0
 80064f6:	693b      	ldr	r3, [r7, #16]
 80064f8:	1ad3      	subs	r3, r2, r3
 80064fa:	2b02      	cmp	r3, #2
 80064fc:	d901      	bls.n	8006502 <HAL_RCC_OscConfig+0x3d2>
          {
            return HAL_TIMEOUT;
 80064fe:	2303      	movs	r3, #3
 8006500:	e087      	b.n	8006612 <HAL_RCC_OscConfig+0x4e2>
        while(__HAL_RCC_GET_FLAG(RCC_FLAG_PLLRDY) != RESET)
 8006502:	4b27      	ldr	r3, [pc, #156]	@ (80065a0 <HAL_RCC_OscConfig+0x470>)
 8006504:	681b      	ldr	r3, [r3, #0]
 8006506:	f003 7300 	and.w	r3, r3, #33554432	@ 0x2000000
 800650a:	2b00      	cmp	r3, #0
 800650c:	d1f0      	bne.n	80064f0 <HAL_RCC_OscConfig+0x3c0>
          }
        }

        /* Configure the main PLL clock source, multiplication and division factors. */
        WRITE_REG(RCC->PLLCFGR, (RCC_OscInitStruct->PLL.PLLSource                                            | \
 800650e:	687b      	ldr	r3, [r7, #4]
 8006510:	69da      	ldr	r2, [r3, #28]
 8006512:	687b      	ldr	r3, [r7, #4]
 8006514:	6a1b      	ldr	r3, [r3, #32]
 8006516:	431a      	orrs	r2, r3
 8006518:	687b      	ldr	r3, [r7, #4]
 800651a:	6a5b      	ldr	r3, [r3, #36]	@ 0x24
 800651c:	019b      	lsls	r3, r3, #6
 800651e:	431a      	orrs	r2, r3
 8006520:	687b      	ldr	r3, [r7, #4]
 8006522:	6a9b      	ldr	r3, [r3, #40]	@ 0x28
 8006524:	085b      	lsrs	r3, r3, #1
 8006526:	3b01      	subs	r3, #1
 8006528:	041b      	lsls	r3, r3, #16
 800652a:	431a      	orrs	r2, r3
 800652c:	687b      	ldr	r3, [r7, #4]
 800652e:	6adb      	ldr	r3, [r3, #44]	@ 0x2c
 8006530:	061b      	lsls	r3, r3, #24
 8006532:	491b      	ldr	r1, [pc, #108]	@ (80065a0 <HAL_RCC_OscConfig+0x470>)
 8006534:	4313      	orrs	r3, r2
 8006536:	604b      	str	r3, [r1, #4]
                                 RCC_OscInitStruct->PLL.PLLM                                                 | \
                                 (RCC_OscInitStruct->PLL.PLLN << RCC_PLLCFGR_PLLN_Pos)             | \
                                 (((RCC_OscInitStruct->PLL.PLLP >> 1U) - 1U) << RCC_PLLCFGR_PLLP_Pos) | \
                                 (RCC_OscInitStruct->PLL.PLLQ << RCC_PLLCFGR_PLLQ_Pos)));
        /* Enable the main PLL. */
        __HAL_RCC_PLL_ENABLE();
 8006538:	4b1b      	ldr	r3, [pc, #108]	@ (80065a8 <HAL_RCC_OscConfig+0x478>)
 800653a:	2201      	movs	r2, #1
 800653c:	601a      	str	r2, [r3, #0]

        /* Get Start Tick */
        tickstart = HAL_GetTick();
 800653e:	f7fc fe61 	bl	8003204 <HAL_GetTick>
 8006542:	6138      	str	r0, [r7, #16]

        /* Wait till PLL is ready */
        while(__HAL_RCC_GET_FLAG(RCC_FLAG_PLLRDY) == RESET)
 8006544:	e008      	b.n	8006558 <HAL_RCC_OscConfig+0x428>
        {
          if((HAL_GetTick() - tickstart ) > PLL_TIMEOUT_VALUE)
 8006546:	f7fc fe5d 	bl	8003204 <HAL_GetTick>
 800654a:	4602      	mov	r2, r0
 800654c:	693b      	ldr	r3, [r7, #16]
 800654e:	1ad3      	subs	r3, r2, r3
 8006550:	2b02      	cmp	r3, #2
 8006552:	d901      	bls.n	8006558 <HAL_RCC_OscConfig+0x428>
          {
            return HAL_TIMEOUT;
 8006554:	2303      	movs	r3, #3
 8006556:	e05c      	b.n	8006612 <HAL_RCC_OscConfig+0x4e2>
        while(__HAL_RCC_GET_FLAG(RCC_FLAG_PLLRDY) == RESET)
 8006558:	4b11      	ldr	r3, [pc, #68]	@ (80065a0 <HAL_RCC_OscConfig+0x470>)
 800655a:	681b      	ldr	r3, [r3, #0]
 800655c:	f003 7300 	and.w	r3, r3, #33554432	@ 0x2000000
 8006560:	2b00      	cmp	r3, #0
 8006562:	d0f0      	beq.n	8006546 <HAL_RCC_OscConfig+0x416>
 8006564:	e054      	b.n	8006610 <HAL_RCC_OscConfig+0x4e0>
        }
      }
      else
      {
        /* Disable the main PLL. */
        __HAL_RCC_PLL_DISABLE();
 8006566:	4b10      	ldr	r3, [pc, #64]	@ (80065a8 <HAL_RCC_OscConfig+0x478>)
 8006568:	2200      	movs	r2, #0
 800656a:	601a      	str	r2, [r3, #0]

        /* Get Start Tick */
        tickstart = HAL_GetTick();
 800656c:	f7fc fe4a 	bl	8003204 <HAL_GetTick>
 8006570:	6138      	str	r0, [r7, #16]

        /* Wait till PLL is disabled */
        while(__HAL_RCC_GET_FLAG(RCC_FLAG_PLLRDY) != RESET)
 8006572:	e008      	b.n	8006586 <HAL_RCC_OscConfig+0x456>
        {
          if((HAL_GetTick() - tickstart ) > PLL_TIMEOUT_VALUE)
 8006574:	f7fc fe46 	bl	8003204 <HAL_GetTick>
 8006578:	4602      	mov	r2, r0
 800657a:	693b      	ldr	r3, [r7, #16]
 800657c:	1ad3      	subs	r3, r2, r3
 800657e:	2b02      	cmp	r3, #2
 8006580:	d901      	bls.n	8006586 <HAL_RCC_OscConfig+0x456>
          {
            return HAL_TIMEOUT;
 8006582:	2303      	movs	r3, #3
 8006584:	e045      	b.n	8006612 <HAL_RCC_OscConfig+0x4e2>
        while(__HAL_RCC_GET_FLAG(RCC_FLAG_PLLRDY) != RESET)
 8006586:	4b06      	ldr	r3, [pc, #24]	@ (80065a0 <HAL_RCC_OscConfig+0x470>)
 8006588:	681b      	ldr	r3, [r3, #0]
 800658a:	f003 7300 	and.w	r3, r3, #33554432	@ 0x2000000
 800658e:	2b00      	cmp	r3, #0
 8006590:	d1f0      	bne.n	8006574 <HAL_RCC_OscConfig+0x444>
 8006592:	e03d      	b.n	8006610 <HAL_RCC_OscConfig+0x4e0>
      }
    }
    else
    {
      /* Check if there is a request to disable the PLL used as System clock source */
      if((RCC_OscInitStruct->PLL.PLLState) == RCC_PLL_OFF)
 8006594:	687b      	ldr	r3, [r7, #4]
 8006596:	699b      	ldr	r3, [r3, #24]
 8006598:	2b01      	cmp	r3, #1
 800659a:	d107      	bne.n	80065ac <HAL_RCC_OscConfig+0x47c>
      {
        return HAL_ERROR;
 800659c:	2301      	movs	r3, #1
 800659e:	e038      	b.n	8006612 <HAL_RCC_OscConfig+0x4e2>
 80065a0:	40023800 	.word	0x40023800
 80065a4:	40007000 	.word	0x40007000
 80065a8:	42470060 	.word	0x42470060
      }
      else
      {
        /* Do not return HAL_ERROR if request repeats the current configuration */
        pll_config = RCC->PLLCFGR;
 80065ac:	4b1b      	ldr	r3, [pc, #108]	@ (800661c <HAL_RCC_OscConfig+0x4ec>)
 80065ae:	685b      	ldr	r3, [r3, #4]
 80065b0:	60fb      	str	r3, [r7, #12]
            (READ_BIT(pll_config, RCC_PLLCFGR_PLLN) != (RCC_OscInitStruct->PLL.PLLN) << RCC_PLLCFGR_PLLN_Pos) ||
            (READ_BIT(pll_config, RCC_PLLCFGR_PLLP) != (((RCC_OscInitStruct->PLL.PLLP >> 1U) - 1U)) << RCC_PLLCFGR_PLLP_Pos) ||
            (READ_BIT(pll_config, RCC_PLLCFGR_PLLQ) != (RCC_OscInitStruct->PLL.PLLQ << RCC_PLLCFGR_PLLQ_Pos)) ||
            (READ_BIT(pll_config, RCC_PLLCFGR_PLLR) != (RCC_OscInitStruct->PLL.PLLR << RCC_PLLCFGR_PLLR_Pos)))
#else
        if (((RCC_OscInitStruct->PLL.PLLState) == RCC_PLL_OFF) ||
 80065b2:	687b      	ldr	r3, [r7, #4]
 80065b4:	699b      	ldr	r3, [r3, #24]
 80065b6:	2b01      	cmp	r3, #1
 80065b8:	d028      	beq.n	800660c <HAL_RCC_OscConfig+0x4dc>
            (READ_BIT(pll_config, RCC_PLLCFGR_PLLSRC) != RCC_OscInitStruct->PLL.PLLSource) ||
 80065ba:	68fb      	ldr	r3, [r7, #12]
 80065bc:	f403 0280 	and.w	r2, r3, #4194304	@ 0x400000
 80065c0:	687b      	ldr	r3, [r7, #4]
 80065c2:	69db      	ldr	r3, [r3, #28]
        if (((RCC_OscInitStruct->PLL.PLLState) == RCC_PLL_OFF) ||
 80065c4:	429a      	cmp	r2, r3
 80065c6:	d121      	bne.n	800660c <HAL_RCC_OscConfig+0x4dc>
            (READ_BIT(pll_config, RCC_PLLCFGR_PLLM) != (RCC_OscInitStruct->PLL.PLLM) << RCC_PLLCFGR_PLLM_Pos) ||
 80065c8:	68fb      	ldr	r3, [r7, #12]
 80065ca:	f003 023f 	and.w	r2, r3, #63	@ 0x3f
 80065ce:	687b      	ldr	r3, [r7, #4]
 80065d0:	6a1b      	ldr	r3, [r3, #32]
            (READ_BIT(pll_config, RCC_PLLCFGR_PLLSRC) != RCC_OscInitStruct->PLL.PLLSource) ||
 80065d2:	429a      	cmp	r2, r3
 80065d4:	d11a      	bne.n	800660c <HAL_RCC_OscConfig+0x4dc>
            (READ_BIT(pll_config, RCC_PLLCFGR_PLLN) != (RCC_OscInitStruct->PLL.PLLN) << RCC_PLLCFGR_PLLN_Pos) ||
 80065d6:	68fa      	ldr	r2, [r7, #12]
 80065d8:	f647 73c0 	movw	r3, #32704	@ 0x7fc0
 80065dc:	4013      	ands	r3, r2
 80065de:	687a      	ldr	r2, [r7, #4]
 80065e0:	6a52      	ldr	r2, [r2, #36]	@ 0x24
 80065e2:	0192      	lsls	r2, r2, #6
            (READ_BIT(pll_config, RCC_PLLCFGR_PLLM) != (RCC_OscInitStruct->PLL.PLLM) << RCC_PLLCFGR_PLLM_Pos) ||
 80065e4:	4293      	cmp	r3, r2
 80065e6:	d111      	bne.n	800660c <HAL_RCC_OscConfig+0x4dc>
            (READ_BIT(pll_config, RCC_PLLCFGR_PLLP) != (((RCC_OscInitStruct->PLL.PLLP >> 1U) - 1U)) << RCC_PLLCFGR_PLLP_Pos) ||
 80065e8:	68fb      	ldr	r3, [r7, #12]
 80065ea:	f403 3240 	and.w	r2, r3, #196608	@ 0x30000
 80065ee:	687b      	ldr	r3, [r7, #4]
 80065f0:	6a9b      	ldr	r3, [r3, #40]	@ 0x28
 80065f2:	085b      	lsrs	r3, r3, #1
 80065f4:	3b01      	subs	r3, #1
 80065f6:	041b      	lsls	r3, r3, #16
            (READ_BIT(pll_config, RCC_PLLCFGR_PLLN) != (RCC_OscInitStruct->PLL.PLLN) << RCC_PLLCFGR_PLLN_Pos) ||
 80065f8:	429a      	cmp	r2, r3
 80065fa:	d107      	bne.n	800660c <HAL_RCC_OscConfig+0x4dc>
            (READ_BIT(pll_config, RCC_PLLCFGR_PLLQ) != (RCC_OscInitStruct->PLL.PLLQ << RCC_PLLCFGR_PLLQ_Pos)))
 80065fc:	68fb      	ldr	r3, [r7, #12]
 80065fe:	f003 6270 	and.w	r2, r3, #251658240	@ 0xf000000
 8006602:	687b      	ldr	r3, [r7, #4]
 8006604:	6adb      	ldr	r3, [r3, #44]	@ 0x2c
 8006606:	061b      	lsls	r3, r3, #24
            (READ_BIT(pll_config, RCC_PLLCFGR_PLLP) != (((RCC_OscInitStruct->PLL.PLLP >> 1U) - 1U)) << RCC_PLLCFGR_PLLP_Pos) ||
 8006608:	429a      	cmp	r2, r3
 800660a:	d001      	beq.n	8006610 <HAL_RCC_OscConfig+0x4e0>
#endif
        {
          return HAL_ERROR;
 800660c:	2301      	movs	r3, #1
 800660e:	e000      	b.n	8006612 <HAL_RCC_OscConfig+0x4e2>
        }
      }
    }
  }
  return HAL_OK;
 8006610:	2300      	movs	r3, #0
}
 8006612:	4618      	mov	r0, r3
 8006614:	3718      	adds	r7, #24
 8006616:	46bd      	mov	sp, r7
 8006618:	bd80      	pop	{r7, pc}
 800661a:	bf00      	nop
 800661c:	40023800 	.word	0x40023800

08006620 <HAL_RCC_ClockConfig>:
  *         HPRE[3:0] bits to ensure that HCLK not exceed the maximum allowed frequency
  *         (for more details refer to section above "Initialization/de-initialization functions")
  * @retval None
  */
HAL_StatusTypeDef HAL_RCC_ClockConfig(RCC_ClkInitTypeDef  *RCC_ClkInitStruct, uint32_t FLatency)
{
 8006620:	b580      	push	{r7, lr}
 8006622:	b084      	sub	sp, #16
 8006624:	af00      	add	r7, sp, #0
 8006626:	6078      	str	r0, [r7, #4]
 8006628:	6039      	str	r1, [r7, #0]
  uint32_t tickstart;

  /* Check Null pointer */
  if(RCC_ClkInitStruct == NULL)
 800662a:	687b      	ldr	r3, [r7, #4]
 800662c:	2b00      	cmp	r3, #0
 800662e:	d101      	bne.n	8006634 <HAL_RCC_ClockConfig+0x14>
  {
    return HAL_ERROR;
 8006630:	2301      	movs	r3, #1
 8006632:	e0cc      	b.n	80067ce <HAL_RCC_ClockConfig+0x1ae>
  /* To correctly read data from FLASH memory, the number of wait states (LATENCY)
    must be correctly programmed according to the frequency of the CPU clock
    (HCLK) and the supply voltage of the device. */

  /* Increasing the number of wait states because of higher CPU frequency */
  if(FLatency > __HAL_FLASH_GET_LATENCY())
 8006634:	4b68      	ldr	r3, [pc, #416]	@ (80067d8 <HAL_RCC_ClockConfig+0x1b8>)
 8006636:	681b      	ldr	r3, [r3, #0]
 8006638:	f003 030f 	and.w	r3, r3, #15
 800663c:	683a      	ldr	r2, [r7, #0]
 800663e:	429a      	cmp	r2, r3
 8006640:	d90c      	bls.n	800665c <HAL_RCC_ClockConfig+0x3c>
  {
    /* Program the new number of wait states to the LATENCY bits in the FLASH_ACR register */
    __HAL_FLASH_SET_LATENCY(FLatency);
 8006642:	4b65      	ldr	r3, [pc, #404]	@ (80067d8 <HAL_RCC_ClockConfig+0x1b8>)
 8006644:	683a      	ldr	r2, [r7, #0]
 8006646:	b2d2      	uxtb	r2, r2
 8006648:	701a      	strb	r2, [r3, #0]

    /* Check that the new number of wait states is taken into account to access the Flash
    memory by reading the FLASH_ACR register */
    if(__HAL_FLASH_GET_LATENCY() != FLatency)
 800664a:	4b63      	ldr	r3, [pc, #396]	@ (80067d8 <HAL_RCC_ClockConfig+0x1b8>)
 800664c:	681b      	ldr	r3, [r3, #0]
 800664e:	f003 030f 	and.w	r3, r3, #15
 8006652:	683a      	ldr	r2, [r7, #0]
 8006654:	429a      	cmp	r2, r3
 8006656:	d001      	beq.n	800665c <HAL_RCC_ClockConfig+0x3c>
    {
      return HAL_ERROR;
 8006658:	2301      	movs	r3, #1
 800665a:	e0b8      	b.n	80067ce <HAL_RCC_ClockConfig+0x1ae>
    }
  }

  /*-------------------------- HCLK Configuration --------------------------*/
  if(((RCC_ClkInitStruct->ClockType) & RCC_CLOCKTYPE_HCLK) == RCC_CLOCKTYPE_HCLK)
 800665c:	687b      	ldr	r3, [r7, #4]
 800665e:	681b      	ldr	r3, [r3, #0]
 8006660:	f003 0302 	and.w	r3, r3, #2
 8006664:	2b00      	cmp	r3, #0
 8006666:	d020      	beq.n	80066aa <HAL_RCC_ClockConfig+0x8a>
  {
    /* Set the highest APBx dividers in order to ensure that we do not go through
       a non-spec phase whatever we decrease or increase HCLK. */
    if(((RCC_ClkInitStruct->ClockType) & RCC_CLOCKTYPE_PCLK1) == RCC_CLOCKTYPE_PCLK1)
 8006668:	687b      	ldr	r3, [r7, #4]
 800666a:	681b      	ldr	r3, [r3, #0]
 800666c:	f003 0304 	and.w	r3, r3, #4
 8006670:	2b00      	cmp	r3, #0
 8006672:	d005      	beq.n	8006680 <HAL_RCC_ClockConfig+0x60>
    {
      MODIFY_REG(RCC->CFGR, RCC_CFGR_PPRE1, RCC_HCLK_DIV16);
 8006674:	4b59      	ldr	r3, [pc, #356]	@ (80067dc <HAL_RCC_ClockConfig+0x1bc>)
 8006676:	689b      	ldr	r3, [r3, #8]
 8006678:	4a58      	ldr	r2, [pc, #352]	@ (80067dc <HAL_RCC_ClockConfig+0x1bc>)
 800667a:	f443 53e0 	orr.w	r3, r3, #7168	@ 0x1c00
 800667e:	6093      	str	r3, [r2, #8]
    }

    if(((RCC_ClkInitStruct->ClockType) & RCC_CLOCKTYPE_PCLK2) == RCC_CLOCKTYPE_PCLK2)
 8006680:	687b      	ldr	r3, [r7, #4]
 8006682:	681b      	ldr	r3, [r3, #0]
 8006684:	f003 0308 	and.w	r3, r3, #8
 8006688:	2b00      	cmp	r3, #0
 800668a:	d005      	beq.n	8006698 <HAL_RCC_ClockConfig+0x78>
    {
      MODIFY_REG(RCC->CFGR, RCC_CFGR_PPRE2, (RCC_HCLK_DIV16 << 3));
 800668c:	4b53      	ldr	r3, [pc, #332]	@ (80067dc <HAL_RCC_ClockConfig+0x1bc>)
 800668e:	689b      	ldr	r3, [r3, #8]
 8006690:	4a52      	ldr	r2, [pc, #328]	@ (80067dc <HAL_RCC_ClockConfig+0x1bc>)
 8006692:	f443 4360 	orr.w	r3, r3, #57344	@ 0xe000
 8006696:	6093      	str	r3, [r2, #8]
    }

    assert_param(IS_RCC_HCLK(RCC_ClkInitStruct->AHBCLKDivider));
    MODIFY_REG(RCC->CFGR, RCC_CFGR_HPRE, RCC_ClkInitStruct->AHBCLKDivider);
 8006698:	4b50      	ldr	r3, [pc, #320]	@ (80067dc <HAL_RCC_ClockConfig+0x1bc>)
 800669a:	689b      	ldr	r3, [r3, #8]
 800669c:	f023 02f0 	bic.w	r2, r3, #240	@ 0xf0
 80066a0:	687b      	ldr	r3, [r7, #4]
 80066a2:	689b      	ldr	r3, [r3, #8]
 80066a4:	494d      	ldr	r1, [pc, #308]	@ (80067dc <HAL_RCC_ClockConfig+0x1bc>)
 80066a6:	4313      	orrs	r3, r2
 80066a8:	608b      	str	r3, [r1, #8]
  }

  /*------------------------- SYSCLK Configuration ---------------------------*/
  if(((RCC_ClkInitStruct->ClockType) & RCC_CLOCKTYPE_SYSCLK) == RCC_CLOCKTYPE_SYSCLK)
 80066aa:	687b      	ldr	r3, [r7, #4]
 80066ac:	681b      	ldr	r3, [r3, #0]
 80066ae:	f003 0301 	and.w	r3, r3, #1
 80066b2:	2b00      	cmp	r3, #0
 80066b4:	d044      	beq.n	8006740 <HAL_RCC_ClockConfig+0x120>
  {
    assert_param(IS_RCC_SYSCLKSOURCE(RCC_ClkInitStruct->SYSCLKSource));

    /* HSE is selected as System Clock Source */
    if(RCC_ClkInitStruct->SYSCLKSource == RCC_SYSCLKSOURCE_HSE)
 80066b6:	687b      	ldr	r3, [r7, #4]
 80066b8:	685b      	ldr	r3, [r3, #4]
 80066ba:	2b01      	cmp	r3, #1
 80066bc:	d107      	bne.n	80066ce <HAL_RCC_ClockConfig+0xae>
    {
      /* Check the HSE ready flag */
      if(__HAL_RCC_GET_FLAG(RCC_FLAG_HSERDY) == RESET)
 80066be:	4b47      	ldr	r3, [pc, #284]	@ (80067dc <HAL_RCC_ClockConfig+0x1bc>)
 80066c0:	681b      	ldr	r3, [r3, #0]
 80066c2:	f403 3300 	and.w	r3, r3, #131072	@ 0x20000
 80066c6:	2b00      	cmp	r3, #0
 80066c8:	d119      	bne.n	80066fe <HAL_RCC_ClockConfig+0xde>
      {
        return HAL_ERROR;
 80066ca:	2301      	movs	r3, #1
 80066cc:	e07f      	b.n	80067ce <HAL_RCC_ClockConfig+0x1ae>
      }
    }
    /* PLL is selected as System Clock Source */
    else if((RCC_ClkInitStruct->SYSCLKSource == RCC_SYSCLKSOURCE_PLLCLK)   ||
 80066ce:	687b      	ldr	r3, [r7, #4]
 80066d0:	685b      	ldr	r3, [r3, #4]
 80066d2:	2b02      	cmp	r3, #2
 80066d4:	d003      	beq.n	80066de <HAL_RCC_ClockConfig+0xbe>
            (RCC_ClkInitStruct->SYSCLKSource == RCC_SYSCLKSOURCE_PLLRCLK))
 80066d6:	687b      	ldr	r3, [r7, #4]
 80066d8:	685b      	ldr	r3, [r3, #4]
    else if((RCC_ClkInitStruct->SYSCLKSource == RCC_SYSCLKSOURCE_PLLCLK)   ||
 80066da:	2b03      	cmp	r3, #3
 80066dc:	d107      	bne.n	80066ee <HAL_RCC_ClockConfig+0xce>
    {
      /* Check the PLL ready flag */
      if(__HAL_RCC_GET_FLAG(RCC_FLAG_PLLRDY) == RESET)
 80066de:	4b3f      	ldr	r3, [pc, #252]	@ (80067dc <HAL_RCC_ClockConfig+0x1bc>)
 80066e0:	681b      	ldr	r3, [r3, #0]
 80066e2:	f003 7300 	and.w	r3, r3, #33554432	@ 0x2000000
 80066e6:	2b00      	cmp	r3, #0
 80066e8:	d109      	bne.n	80066fe <HAL_RCC_ClockConfig+0xde>
      {
        return HAL_ERROR;
 80066ea:	2301      	movs	r3, #1
 80066ec:	e06f      	b.n	80067ce <HAL_RCC_ClockConfig+0x1ae>
    }
    /* HSI is selected as System Clock Source */
    else
    {
      /* Check the HSI ready flag */
      if(__HAL_RCC_GET_FLAG(RCC_FLAG_HSIRDY) == RESET)
 80066ee:	4b3b      	ldr	r3, [pc, #236]	@ (80067dc <HAL_RCC_ClockConfig+0x1bc>)
 80066f0:	681b      	ldr	r3, [r3, #0]
 80066f2:	f003 0302 	and.w	r3, r3, #2
 80066f6:	2b00      	cmp	r3, #0
 80066f8:	d101      	bne.n	80066fe <HAL_RCC_ClockConfig+0xde>
      {
        return HAL_ERROR;
 80066fa:	2301      	movs	r3, #1
 80066fc:	e067      	b.n	80067ce <HAL_RCC_ClockConfig+0x1ae>
      }
    }

    __HAL_RCC_SYSCLK_CONFIG(RCC_ClkInitStruct->SYSCLKSource);
 80066fe:	4b37      	ldr	r3, [pc, #220]	@ (80067dc <HAL_RCC_ClockConfig+0x1bc>)
 8006700:	689b      	ldr	r3, [r3, #8]
 8006702:	f023 0203 	bic.w	r2, r3, #3
 8006706:	687b      	ldr	r3, [r7, #4]
 8006708:	685b      	ldr	r3, [r3, #4]
 800670a:	4934      	ldr	r1, [pc, #208]	@ (80067dc <HAL_RCC_ClockConfig+0x1bc>)
 800670c:	4313      	orrs	r3, r2
 800670e:	608b      	str	r3, [r1, #8]

    /* Get Start Tick */
    tickstart = HAL_GetTick();
 8006710:	f7fc fd78 	bl	8003204 <HAL_GetTick>
 8006714:	60f8      	str	r0, [r7, #12]

    while (__HAL_RCC_GET_SYSCLK_SOURCE() != (RCC_ClkInitStruct->SYSCLKSource << RCC_CFGR_SWS_Pos))
 8006716:	e00a      	b.n	800672e <HAL_RCC_ClockConfig+0x10e>
    {
      if ((HAL_GetTick() - tickstart) > CLOCKSWITCH_TIMEOUT_VALUE)
 8006718:	f7fc fd74 	bl	8003204 <HAL_GetTick>
 800671c:	4602      	mov	r2, r0
 800671e:	68fb      	ldr	r3, [r7, #12]
 8006720:	1ad3      	subs	r3, r2, r3
 8006722:	f241 3288 	movw	r2, #5000	@ 0x1388
 8006726:	4293      	cmp	r3, r2
 8006728:	d901      	bls.n	800672e <HAL_RCC_ClockConfig+0x10e>
      {
        return HAL_TIMEOUT;
 800672a:	2303      	movs	r3, #3
 800672c:	e04f      	b.n	80067ce <HAL_RCC_ClockConfig+0x1ae>
    while (__HAL_RCC_GET_SYSCLK_SOURCE() != (RCC_ClkInitStruct->SYSCLKSource << RCC_CFGR_SWS_Pos))
 800672e:	4b2b      	ldr	r3, [pc, #172]	@ (80067dc <HAL_RCC_ClockConfig+0x1bc>)
 8006730:	689b      	ldr	r3, [r3, #8]
 8006732:	f003 020c 	and.w	r2, r3, #12
 8006736:	687b      	ldr	r3, [r7, #4]
 8006738:	685b      	ldr	r3, [r3, #4]
 800673a:	009b      	lsls	r3, r3, #2
 800673c:	429a      	cmp	r2, r3
 800673e:	d1eb      	bne.n	8006718 <HAL_RCC_ClockConfig+0xf8>
      }
    }
  }

  /* Decreasing the number of wait states because of lower CPU frequency */
  if(FLatency < __HAL_FLASH_GET_LATENCY())
 8006740:	4b25      	ldr	r3, [pc, #148]	@ (80067d8 <HAL_RCC_ClockConfig+0x1b8>)
 8006742:	681b      	ldr	r3, [r3, #0]
 8006744:	f003 030f 	and.w	r3, r3, #15
 8006748:	683a      	ldr	r2, [r7, #0]
 800674a:	429a      	cmp	r2, r3
 800674c:	d20c      	bcs.n	8006768 <HAL_RCC_ClockConfig+0x148>
  {
     /* Program the new number of wait states to the LATENCY bits in the FLASH_ACR register */
    __HAL_FLASH_SET_LATENCY(FLatency);
 800674e:	4b22      	ldr	r3, [pc, #136]	@ (80067d8 <HAL_RCC_ClockConfig+0x1b8>)
 8006750:	683a      	ldr	r2, [r7, #0]
 8006752:	b2d2      	uxtb	r2, r2
 8006754:	701a      	strb	r2, [r3, #0]

    /* Check that the new number of wait states is taken into account to access the Flash
    memory by reading the FLASH_ACR register */
    if(__HAL_FLASH_GET_LATENCY() != FLatency)
 8006756:	4b20      	ldr	r3, [pc, #128]	@ (80067d8 <HAL_RCC_ClockConfig+0x1b8>)
 8006758:	681b      	ldr	r3, [r3, #0]
 800675a:	f003 030f 	and.w	r3, r3, #15
 800675e:	683a      	ldr	r2, [r7, #0]
 8006760:	429a      	cmp	r2, r3
 8006762:	d001      	beq.n	8006768 <HAL_RCC_ClockConfig+0x148>
    {
      return HAL_ERROR;
 8006764:	2301      	movs	r3, #1
 8006766:	e032      	b.n	80067ce <HAL_RCC_ClockConfig+0x1ae>
    }
  }

  /*-------------------------- PCLK1 Configuration ---------------------------*/
  if(((RCC_ClkInitStruct->ClockType) & RCC_CLOCKTYPE_PCLK1) == RCC_CLOCKTYPE_PCLK1)
 8006768:	687b      	ldr	r3, [r7, #4]
 800676a:	681b      	ldr	r3, [r3, #0]
 800676c:	f003 0304 	and.w	r3, r3, #4
 8006770:	2b00      	cmp	r3, #0
 8006772:	d008      	beq.n	8006786 <HAL_RCC_ClockConfig+0x166>
  {
    assert_param(IS_RCC_PCLK(RCC_ClkInitStruct->APB1CLKDivider));
    MODIFY_REG(RCC->CFGR, RCC_CFGR_PPRE1, RCC_ClkInitStruct->APB1CLKDivider);
 8006774:	4b19      	ldr	r3, [pc, #100]	@ (80067dc <HAL_RCC_ClockConfig+0x1bc>)
 8006776:	689b      	ldr	r3, [r3, #8]
 8006778:	f423 52e0 	bic.w	r2, r3, #7168	@ 0x1c00
 800677c:	687b      	ldr	r3, [r7, #4]
 800677e:	68db      	ldr	r3, [r3, #12]
 8006780:	4916      	ldr	r1, [pc, #88]	@ (80067dc <HAL_RCC_ClockConfig+0x1bc>)
 8006782:	4313      	orrs	r3, r2
 8006784:	608b      	str	r3, [r1, #8]
  }

  /*-------------------------- PCLK2 Configuration ---------------------------*/
  if(((RCC_ClkInitStruct->ClockType) & RCC_CLOCKTYPE_PCLK2) == RCC_CLOCKTYPE_PCLK2)
 8006786:	687b      	ldr	r3, [r7, #4]
 8006788:	681b      	ldr	r3, [r3, #0]
 800678a:	f003 0308 	and.w	r3, r3, #8
 800678e:	2b00      	cmp	r3, #0
 8006790:	d009      	beq.n	80067a6 <HAL_RCC_ClockConfig+0x186>
  {
    assert_param(IS_RCC_PCLK(RCC_ClkInitStruct->APB2CLKDivider));
    MODIFY_REG(RCC->CFGR, RCC_CFGR_PPRE2, ((RCC_ClkInitStruct->APB2CLKDivider) << 3U));
 8006792:	4b12      	ldr	r3, [pc, #72]	@ (80067dc <HAL_RCC_ClockConfig+0x1bc>)
 8006794:	689b      	ldr	r3, [r3, #8]
 8006796:	f423 4260 	bic.w	r2, r3, #57344	@ 0xe000
 800679a:	687b      	ldr	r3, [r7, #4]
 800679c:	691b      	ldr	r3, [r3, #16]
 800679e:	00db      	lsls	r3, r3, #3
 80067a0:	490e      	ldr	r1, [pc, #56]	@ (80067dc <HAL_RCC_ClockConfig+0x1bc>)
 80067a2:	4313      	orrs	r3, r2
 80067a4:	608b      	str	r3, [r1, #8]
  }

  /* Update the SystemCoreClock global variable */
  SystemCoreClock = HAL_RCC_GetSysClockFreq() >> AHBPrescTable[(RCC->CFGR & RCC_CFGR_HPRE)>> RCC_CFGR_HPRE_Pos];
 80067a6:	f000 f821 	bl	80067ec <HAL_RCC_GetSysClockFreq>
 80067aa:	4602      	mov	r2, r0
 80067ac:	4b0b      	ldr	r3, [pc, #44]	@ (80067dc <HAL_RCC_ClockConfig+0x1bc>)
 80067ae:	689b      	ldr	r3, [r3, #8]
 80067b0:	091b      	lsrs	r3, r3, #4
 80067b2:	f003 030f 	and.w	r3, r3, #15
 80067b6:	490a      	ldr	r1, [pc, #40]	@ (80067e0 <HAL_RCC_ClockConfig+0x1c0>)
 80067b8:	5ccb      	ldrb	r3, [r1, r3]
 80067ba:	fa22 f303 	lsr.w	r3, r2, r3
 80067be:	4a09      	ldr	r2, [pc, #36]	@ (80067e4 <HAL_RCC_ClockConfig+0x1c4>)
 80067c0:	6013      	str	r3, [r2, #0]

  /* Configure the source of time base considering new system clocks settings */
  HAL_InitTick (uwTickPrio);
 80067c2:	4b09      	ldr	r3, [pc, #36]	@ (80067e8 <HAL_RCC_ClockConfig+0x1c8>)
 80067c4:	681b      	ldr	r3, [r3, #0]
 80067c6:	4618      	mov	r0, r3
 80067c8:	f7fc fcd8 	bl	800317c <HAL_InitTick>

  return HAL_OK;
 80067cc:	2300      	movs	r3, #0
}
 80067ce:	4618      	mov	r0, r3
 80067d0:	3710      	adds	r7, #16
 80067d2:	46bd      	mov	sp, r7
 80067d4:	bd80      	pop	{r7, pc}
 80067d6:	bf00      	nop
 80067d8:	40023c00 	.word	0x40023c00
 80067dc:	40023800 	.word	0x40023800
 80067e0:	080099a4 	.word	0x080099a4
 80067e4:	2000001c 	.word	0x2000001c
 80067e8:	20000020 	.word	0x20000020

080067ec <HAL_RCC_GetSysClockFreq>:
  *
  *
  * @retval SYSCLK frequency
  */
__weak uint32_t HAL_RCC_GetSysClockFreq(void)
{
 80067ec:	e92d 4fb0 	stmdb	sp!, {r4, r5, r7, r8, r9, sl, fp, lr}
 80067f0:	b090      	sub	sp, #64	@ 0x40
 80067f2:	af00      	add	r7, sp, #0
  uint32_t pllm = 0U, pllvco = 0U, pllp = 0U;
 80067f4:	2300      	movs	r3, #0
 80067f6:	637b      	str	r3, [r7, #52]	@ 0x34
 80067f8:	2300      	movs	r3, #0
 80067fa:	63fb      	str	r3, [r7, #60]	@ 0x3c
 80067fc:	2300      	movs	r3, #0
 80067fe:	633b      	str	r3, [r7, #48]	@ 0x30
  uint32_t sysclockfreq = 0U;
 8006800:	2300      	movs	r3, #0
 8006802:	63bb      	str	r3, [r7, #56]	@ 0x38

  /* Get SYSCLK source -------------------------------------------------------*/
  switch (RCC->CFGR & RCC_CFGR_SWS)
 8006804:	4b59      	ldr	r3, [pc, #356]	@ (800696c <HAL_RCC_GetSysClockFreq+0x180>)
 8006806:	689b      	ldr	r3, [r3, #8]
 8006808:	f003 030c 	and.w	r3, r3, #12
 800680c:	2b08      	cmp	r3, #8
 800680e:	d00d      	beq.n	800682c <HAL_RCC_GetSysClockFreq+0x40>
 8006810:	2b08      	cmp	r3, #8
 8006812:	f200 80a1 	bhi.w	8006958 <HAL_RCC_GetSysClockFreq+0x16c>
 8006816:	2b00      	cmp	r3, #0
 8006818:	d002      	beq.n	8006820 <HAL_RCC_GetSysClockFreq+0x34>
 800681a:	2b04      	cmp	r3, #4
 800681c:	d003      	beq.n	8006826 <HAL_RCC_GetSysClockFreq+0x3a>
 800681e:	e09b      	b.n	8006958 <HAL_RCC_GetSysClockFreq+0x16c>
  {
    case RCC_CFGR_SWS_HSI:  /* HSI used as system clock source */
    {
      sysclockfreq = HSI_VALUE;
 8006820:	4b53      	ldr	r3, [pc, #332]	@ (8006970 <HAL_RCC_GetSysClockFreq+0x184>)
 8006822:	63bb      	str	r3, [r7, #56]	@ 0x38
       break;
 8006824:	e09b      	b.n	800695e <HAL_RCC_GetSysClockFreq+0x172>
    }
    case RCC_CFGR_SWS_HSE:  /* HSE used as system clock  source */
    {
      sysclockfreq = HSE_VALUE;
 8006826:	4b53      	ldr	r3, [pc, #332]	@ (8006974 <HAL_RCC_GetSysClockFreq+0x188>)
 8006828:	63bb      	str	r3, [r7, #56]	@ 0x38
      break;
 800682a:	e098      	b.n	800695e <HAL_RCC_GetSysClockFreq+0x172>
    }
    case RCC_CFGR_SWS_PLL:  /* PLL used as system clock  source */
    {
      /* PLL_VCO = (HSE_VALUE or HSI_VALUE / PLLM) * PLLN
      SYSCLK = PLL_VCO / PLLP */
      pllm = RCC->PLLCFGR & RCC_PLLCFGR_PLLM;
 800682c:	4b4f      	ldr	r3, [pc, #316]	@ (800696c <HAL_RCC_GetSysClockFreq+0x180>)
 800682e:	685b      	ldr	r3, [r3, #4]
 8006830:	f003 033f 	and.w	r3, r3, #63	@ 0x3f
 8006834:	637b      	str	r3, [r7, #52]	@ 0x34
      if(__HAL_RCC_GET_PLL_OSCSOURCE() != RCC_PLLSOURCE_HSI)
 8006836:	4b4d      	ldr	r3, [pc, #308]	@ (800696c <HAL_RCC_GetSysClockFreq+0x180>)
 8006838:	685b      	ldr	r3, [r3, #4]
 800683a:	f403 0380 	and.w	r3, r3, #4194304	@ 0x400000
 800683e:	2b00      	cmp	r3, #0
 8006840:	d028      	beq.n	8006894 <HAL_RCC_GetSysClockFreq+0xa8>
      {
        /* HSE used as PLL clock source */
        pllvco = (uint32_t) ((((uint64_t) HSE_VALUE * ((uint64_t) ((RCC->PLLCFGR & RCC_PLLCFGR_PLLN) >> RCC_PLLCFGR_PLLN_Pos)))) / (uint64_t)pllm);
 8006842:	4b4a      	ldr	r3, [pc, #296]	@ (800696c <HAL_RCC_GetSysClockFreq+0x180>)
 8006844:	685b      	ldr	r3, [r3, #4]
 8006846:	099b      	lsrs	r3, r3, #6
 8006848:	2200      	movs	r2, #0
 800684a:	623b      	str	r3, [r7, #32]
 800684c:	627a      	str	r2, [r7, #36]	@ 0x24
 800684e:	6a3b      	ldr	r3, [r7, #32]
 8006850:	f3c3 0008 	ubfx	r0, r3, #0, #9
 8006854:	2100      	movs	r1, #0
 8006856:	4b47      	ldr	r3, [pc, #284]	@ (8006974 <HAL_RCC_GetSysClockFreq+0x188>)
 8006858:	fb03 f201 	mul.w	r2, r3, r1
 800685c:	2300      	movs	r3, #0
 800685e:	fb00 f303 	mul.w	r3, r0, r3
 8006862:	4413      	add	r3, r2
 8006864:	4a43      	ldr	r2, [pc, #268]	@ (8006974 <HAL_RCC_GetSysClockFreq+0x188>)
 8006866:	fba0 1202 	umull	r1, r2, r0, r2
 800686a:	62fa      	str	r2, [r7, #44]	@ 0x2c
 800686c:	460a      	mov	r2, r1
 800686e:	62ba      	str	r2, [r7, #40]	@ 0x28
 8006870:	6afa      	ldr	r2, [r7, #44]	@ 0x2c
 8006872:	4413      	add	r3, r2
 8006874:	62fb      	str	r3, [r7, #44]	@ 0x2c
 8006876:	6b7b      	ldr	r3, [r7, #52]	@ 0x34
 8006878:	2200      	movs	r2, #0
 800687a:	61bb      	str	r3, [r7, #24]
 800687c:	61fa      	str	r2, [r7, #28]
 800687e:	e9d7 2306 	ldrd	r2, r3, [r7, #24]
 8006882:	e9d7 010a 	ldrd	r0, r1, [r7, #40]	@ 0x28
 8006886:	f7f9 fcb9 	bl	80001fc <__aeabi_uldivmod>
 800688a:	4602      	mov	r2, r0
 800688c:	460b      	mov	r3, r1
 800688e:	4613      	mov	r3, r2
 8006890:	63fb      	str	r3, [r7, #60]	@ 0x3c
 8006892:	e053      	b.n	800693c <HAL_RCC_GetSysClockFreq+0x150>
      }
      else
      {
        /* HSI used as PLL clock source */
        pllvco = (uint32_t) ((((uint64_t) HSI_VALUE * ((uint64_t) ((RCC->PLLCFGR & RCC_PLLCFGR_PLLN) >> RCC_PLLCFGR_PLLN_Pos)))) / (uint64_t)pllm);
 8006894:	4b35      	ldr	r3, [pc, #212]	@ (800696c <HAL_RCC_GetSysClockFreq+0x180>)
 8006896:	685b      	ldr	r3, [r3, #4]
 8006898:	099b      	lsrs	r3, r3, #6
 800689a:	2200      	movs	r2, #0
 800689c:	613b      	str	r3, [r7, #16]
 800689e:	617a      	str	r2, [r7, #20]
 80068a0:	693b      	ldr	r3, [r7, #16]
 80068a2:	f3c3 0a08 	ubfx	sl, r3, #0, #9
 80068a6:	f04f 0b00 	mov.w	fp, #0
 80068aa:	4652      	mov	r2, sl
 80068ac:	465b      	mov	r3, fp
 80068ae:	f04f 0000 	mov.w	r0, #0
 80068b2:	f04f 0100 	mov.w	r1, #0
 80068b6:	0159      	lsls	r1, r3, #5
 80068b8:	ea41 61d2 	orr.w	r1, r1, r2, lsr #27
 80068bc:	0150      	lsls	r0, r2, #5
 80068be:	4602      	mov	r2, r0
 80068c0:	460b      	mov	r3, r1
 80068c2:	ebb2 080a 	subs.w	r8, r2, sl
 80068c6:	eb63 090b 	sbc.w	r9, r3, fp
 80068ca:	f04f 0200 	mov.w	r2, #0
 80068ce:	f04f 0300 	mov.w	r3, #0
 80068d2:	ea4f 1389 	mov.w	r3, r9, lsl #6
 80068d6:	ea43 6398 	orr.w	r3, r3, r8, lsr #26
 80068da:	ea4f 1288 	mov.w	r2, r8, lsl #6
 80068de:	ebb2 0408 	subs.w	r4, r2, r8
 80068e2:	eb63 0509 	sbc.w	r5, r3, r9
 80068e6:	f04f 0200 	mov.w	r2, #0
 80068ea:	f04f 0300 	mov.w	r3, #0
 80068ee:	00eb      	lsls	r3, r5, #3
 80068f0:	ea43 7354 	orr.w	r3, r3, r4, lsr #29
 80068f4:	00e2      	lsls	r2, r4, #3
 80068f6:	4614      	mov	r4, r2
 80068f8:	461d      	mov	r5, r3
 80068fa:	eb14 030a 	adds.w	r3, r4, sl
 80068fe:	603b      	str	r3, [r7, #0]
 8006900:	eb45 030b 	adc.w	r3, r5, fp
 8006904:	607b      	str	r3, [r7, #4]
 8006906:	f04f 0200 	mov.w	r2, #0
 800690a:	f04f 0300 	mov.w	r3, #0
 800690e:	e9d7 4500 	ldrd	r4, r5, [r7]
 8006912:	4629      	mov	r1, r5
 8006914:	028b      	lsls	r3, r1, #10
 8006916:	4621      	mov	r1, r4
 8006918:	ea43 5391 	orr.w	r3, r3, r1, lsr #22
 800691c:	4621      	mov	r1, r4
 800691e:	028a      	lsls	r2, r1, #10
 8006920:	4610      	mov	r0, r2
 8006922:	4619      	mov	r1, r3
 8006924:	6b7b      	ldr	r3, [r7, #52]	@ 0x34
 8006926:	2200      	movs	r2, #0
 8006928:	60bb      	str	r3, [r7, #8]
 800692a:	60fa      	str	r2, [r7, #12]
 800692c:	e9d7 2302 	ldrd	r2, r3, [r7, #8]
 8006930:	f7f9 fc64 	bl	80001fc <__aeabi_uldivmod>
 8006934:	4602      	mov	r2, r0
 8006936:	460b      	mov	r3, r1
 8006938:	4613      	mov	r3, r2
 800693a:	63fb      	str	r3, [r7, #60]	@ 0x3c
      }
      pllp = ((((RCC->PLLCFGR & RCC_PLLCFGR_PLLP) >> RCC_PLLCFGR_PLLP_Pos) + 1U) *2U);
 800693c:	4b0b      	ldr	r3, [pc, #44]	@ (800696c <HAL_RCC_GetSysClockFreq+0x180>)
 800693e:	685b      	ldr	r3, [r3, #4]
 8006940:	0c1b      	lsrs	r3, r3, #16
 8006942:	f003 0303 	and.w	r3, r3, #3
 8006946:	3301      	adds	r3, #1
 8006948:	005b      	lsls	r3, r3, #1
 800694a:	633b      	str	r3, [r7, #48]	@ 0x30

      sysclockfreq = pllvco/pllp;
 800694c:	6bfa      	ldr	r2, [r7, #60]	@ 0x3c
 800694e:	6b3b      	ldr	r3, [r7, #48]	@ 0x30
 8006950:	fbb2 f3f3 	udiv	r3, r2, r3
 8006954:	63bb      	str	r3, [r7, #56]	@ 0x38
      break;
 8006956:	e002      	b.n	800695e <HAL_RCC_GetSysClockFreq+0x172>
    }
    default:
    {
      sysclockfreq = HSI_VALUE;
 8006958:	4b05      	ldr	r3, [pc, #20]	@ (8006970 <HAL_RCC_GetSysClockFreq+0x184>)
 800695a:	63bb      	str	r3, [r7, #56]	@ 0x38
      break;
 800695c:	bf00      	nop
    }
  }
  return sysclockfreq;
 800695e:	6bbb      	ldr	r3, [r7, #56]	@ 0x38
}
 8006960:	4618      	mov	r0, r3
 8006962:	3740      	adds	r7, #64	@ 0x40
 8006964:	46bd      	mov	sp, r7
 8006966:	e8bd 8fb0 	ldmia.w	sp!, {r4, r5, r7, r8, r9, sl, fp, pc}
 800696a:	bf00      	nop
 800696c:	40023800 	.word	0x40023800
 8006970:	00f42400 	.word	0x00f42400
 8006974:	017d7840 	.word	0x017d7840

08006978 <HAL_RCC_GetHCLKFreq>:
  * @note   The SystemCoreClock CMSIS variable is used to store System Clock Frequency
  *         and updated within this function
  * @retval HCLK frequency
  */
uint32_t HAL_RCC_GetHCLKFreq(void)
{
 8006978:	b480      	push	{r7}
 800697a:	af00      	add	r7, sp, #0
  return SystemCoreClock;
 800697c:	4b03      	ldr	r3, [pc, #12]	@ (800698c <HAL_RCC_GetHCLKFreq+0x14>)
 800697e:	681b      	ldr	r3, [r3, #0]
}
 8006980:	4618      	mov	r0, r3
 8006982:	46bd      	mov	sp, r7
 8006984:	f85d 7b04 	ldr.w	r7, [sp], #4
 8006988:	4770      	bx	lr
 800698a:	bf00      	nop
 800698c:	2000001c 	.word	0x2000001c

08006990 <HAL_RCC_GetPCLK1Freq>:
  * @note   Each time PCLK1 changes, this function must be called to update the
  *         right PCLK1 value. Otherwise, any configuration based on this function will be incorrect.
  * @retval PCLK1 frequency
  */
uint32_t HAL_RCC_GetPCLK1Freq(void)
{
 8006990:	b580      	push	{r7, lr}
 8006992:	af00      	add	r7, sp, #0
  /* Get HCLK source and Compute PCLK1 frequency ---------------------------*/
  return (HAL_RCC_GetHCLKFreq() >> APBPrescTable[(RCC->CFGR & RCC_CFGR_PPRE1)>> RCC_CFGR_PPRE1_Pos]);
 8006994:	f7ff fff0 	bl	8006978 <HAL_RCC_GetHCLKFreq>
 8006998:	4602      	mov	r2, r0
 800699a:	4b05      	ldr	r3, [pc, #20]	@ (80069b0 <HAL_RCC_GetPCLK1Freq+0x20>)
 800699c:	689b      	ldr	r3, [r3, #8]
 800699e:	0a9b      	lsrs	r3, r3, #10
 80069a0:	f003 0307 	and.w	r3, r3, #7
 80069a4:	4903      	ldr	r1, [pc, #12]	@ (80069b4 <HAL_RCC_GetPCLK1Freq+0x24>)
 80069a6:	5ccb      	ldrb	r3, [r1, r3]
 80069a8:	fa22 f303 	lsr.w	r3, r2, r3
}
 80069ac:	4618      	mov	r0, r3
 80069ae:	bd80      	pop	{r7, pc}
 80069b0:	40023800 	.word	0x40023800
 80069b4:	080099b4 	.word	0x080099b4

080069b8 <HAL_RCC_GetPCLK2Freq>:
  * @note   Each time PCLK2 changes, this function must be called to update the
  *         right PCLK2 value. Otherwise, any configuration based on this function will be incorrect.
  * @retval PCLK2 frequency
  */
uint32_t HAL_RCC_GetPCLK2Freq(void)
{
 80069b8:	b580      	push	{r7, lr}
 80069ba:	af00      	add	r7, sp, #0
  /* Get HCLK source and Compute PCLK2 frequency ---------------------------*/
  return (HAL_RCC_GetHCLKFreq()>> APBPrescTable[(RCC->CFGR & RCC_CFGR_PPRE2)>> RCC_CFGR_PPRE2_Pos]);
 80069bc:	f7ff ffdc 	bl	8006978 <HAL_RCC_GetHCLKFreq>
 80069c0:	4602      	mov	r2, r0
 80069c2:	4b05      	ldr	r3, [pc, #20]	@ (80069d8 <HAL_RCC_GetPCLK2Freq+0x20>)
 80069c4:	689b      	ldr	r3, [r3, #8]
 80069c6:	0b5b      	lsrs	r3, r3, #13
 80069c8:	f003 0307 	and.w	r3, r3, #7
 80069cc:	4903      	ldr	r1, [pc, #12]	@ (80069dc <HAL_RCC_GetPCLK2Freq+0x24>)
 80069ce:	5ccb      	ldrb	r3, [r1, r3]
 80069d0:	fa22 f303 	lsr.w	r3, r2, r3
}
 80069d4:	4618      	mov	r0, r3
 80069d6:	bd80      	pop	{r7, pc}
 80069d8:	40023800 	.word	0x40023800
 80069dc:	080099b4 	.word	0x080099b4

080069e0 <HAL_RCCEx_PeriphCLKConfig>:
  *         the backup registers) and RCC_BDCR register are set to their reset values.
  *
  * @retval HAL status
  */
HAL_StatusTypeDef HAL_RCCEx_PeriphCLKConfig(RCC_PeriphCLKInitTypeDef  *PeriphClkInit)
{
 80069e0:	b580      	push	{r7, lr}
 80069e2:	b086      	sub	sp, #24
 80069e4:	af00      	add	r7, sp, #0
 80069e6:	6078      	str	r0, [r7, #4]
  uint32_t tickstart = 0U;
 80069e8:	2300      	movs	r3, #0
 80069ea:	617b      	str	r3, [r7, #20]
  uint32_t tmpreg1 = 0U;
 80069ec:	2300      	movs	r3, #0
 80069ee:	613b      	str	r3, [r7, #16]

  /*----------------------- SAI/I2S Configuration (PLLI2S) -------------------*/
  /*----------------------- Common configuration SAI/I2S ---------------------*/
  /* In Case of SAI or I2S Clock Configuration through PLLI2S, PLLI2SN division
     factor is common parameters for both peripherals */
  if((((PeriphClkInit->PeriphClockSelection) & RCC_PERIPHCLK_I2S) == RCC_PERIPHCLK_I2S) ||
 80069f0:	687b      	ldr	r3, [r7, #4]
 80069f2:	681b      	ldr	r3, [r3, #0]
 80069f4:	f003 0301 	and.w	r3, r3, #1
 80069f8:	2b00      	cmp	r3, #0
 80069fa:	d10b      	bne.n	8006a14 <HAL_RCCEx_PeriphCLKConfig+0x34>
     (((PeriphClkInit->PeriphClockSelection) & RCC_PERIPHCLK_SAI_PLLI2S) == RCC_PERIPHCLK_SAI_PLLI2S) ||
 80069fc:	687b      	ldr	r3, [r7, #4]
 80069fe:	681b      	ldr	r3, [r3, #0]
 8006a00:	f003 0302 	and.w	r3, r3, #2
  if((((PeriphClkInit->PeriphClockSelection) & RCC_PERIPHCLK_I2S) == RCC_PERIPHCLK_I2S) ||
 8006a04:	2b00      	cmp	r3, #0
 8006a06:	d105      	bne.n	8006a14 <HAL_RCCEx_PeriphCLKConfig+0x34>
     (((PeriphClkInit->PeriphClockSelection) & RCC_PERIPHCLK_PLLI2S) == RCC_PERIPHCLK_PLLI2S))
 8006a08:	687b      	ldr	r3, [r7, #4]
 8006a0a:	681b      	ldr	r3, [r3, #0]
 8006a0c:	f003 0340 	and.w	r3, r3, #64	@ 0x40
     (((PeriphClkInit->PeriphClockSelection) & RCC_PERIPHCLK_SAI_PLLI2S) == RCC_PERIPHCLK_SAI_PLLI2S) ||
 8006a10:	2b00      	cmp	r3, #0
 8006a12:	d075      	beq.n	8006b00 <HAL_RCCEx_PeriphCLKConfig+0x120>
  {
    /* check for Parameters */
    assert_param(IS_RCC_PLLI2SN_VALUE(PeriphClkInit->PLLI2S.PLLI2SN));

    /* Disable the PLLI2S */
    __HAL_RCC_PLLI2S_DISABLE();
 8006a14:	4b91      	ldr	r3, [pc, #580]	@ (8006c5c <HAL_RCCEx_PeriphCLKConfig+0x27c>)
 8006a16:	2200      	movs	r2, #0
 8006a18:	601a      	str	r2, [r3, #0]
    /* Get tick */
    tickstart = HAL_GetTick();
 8006a1a:	f7fc fbf3 	bl	8003204 <HAL_GetTick>
 8006a1e:	6178      	str	r0, [r7, #20]
    /* Wait till PLLI2S is disabled */
    while(__HAL_RCC_GET_FLAG(RCC_FLAG_PLLI2SRDY)  != RESET)
 8006a20:	e008      	b.n	8006a34 <HAL_RCCEx_PeriphCLKConfig+0x54>
    {
      if((HAL_GetTick() - tickstart ) > PLLI2S_TIMEOUT_VALUE)
 8006a22:	f7fc fbef 	bl	8003204 <HAL_GetTick>
 8006a26:	4602      	mov	r2, r0
 8006a28:	697b      	ldr	r3, [r7, #20]
 8006a2a:	1ad3      	subs	r3, r2, r3
 8006a2c:	2b02      	cmp	r3, #2
 8006a2e:	d901      	bls.n	8006a34 <HAL_RCCEx_PeriphCLKConfig+0x54>
      {
        /* return in case of Timeout detected */
        return HAL_TIMEOUT;
 8006a30:	2303      	movs	r3, #3
 8006a32:	e189      	b.n	8006d48 <HAL_RCCEx_PeriphCLKConfig+0x368>
    while(__HAL_RCC_GET_FLAG(RCC_FLAG_PLLI2SRDY)  != RESET)
 8006a34:	4b8a      	ldr	r3, [pc, #552]	@ (8006c60 <HAL_RCCEx_PeriphCLKConfig+0x280>)
 8006a36:	681b      	ldr	r3, [r3, #0]
 8006a38:	f003 6300 	and.w	r3, r3, #134217728	@ 0x8000000
 8006a3c:	2b00      	cmp	r3, #0
 8006a3e:	d1f0      	bne.n	8006a22 <HAL_RCCEx_PeriphCLKConfig+0x42>
    }

    /*---------------------------- I2S configuration -------------------------*/
    /* In Case of I2S Clock Configuration through PLLI2S, PLLI2SR must be added
      only for I2S configuration */
    if(((PeriphClkInit->PeriphClockSelection) & RCC_PERIPHCLK_I2S) == (RCC_PERIPHCLK_I2S))
 8006a40:	687b      	ldr	r3, [r7, #4]
 8006a42:	681b      	ldr	r3, [r3, #0]
 8006a44:	f003 0301 	and.w	r3, r3, #1
 8006a48:	2b00      	cmp	r3, #0
 8006a4a:	d009      	beq.n	8006a60 <HAL_RCCEx_PeriphCLKConfig+0x80>
      /* check for Parameters */
      assert_param(IS_RCC_PLLI2SR_VALUE(PeriphClkInit->PLLI2S.PLLI2SR));
      /* Configure the PLLI2S division factors */
      /* PLLI2S_VCO = f(VCO clock) = f(PLLI2S clock input) * (PLLI2SN/PLLM) */
      /* I2SCLK = f(PLLI2S clock output) = f(VCO clock) / PLLI2SR */
      __HAL_RCC_PLLI2S_CONFIG(PeriphClkInit->PLLI2S.PLLI2SN , PeriphClkInit->PLLI2S.PLLI2SR);
 8006a4c:	687b      	ldr	r3, [r7, #4]
 8006a4e:	685b      	ldr	r3, [r3, #4]
 8006a50:	019a      	lsls	r2, r3, #6
 8006a52:	687b      	ldr	r3, [r7, #4]
 8006a54:	689b      	ldr	r3, [r3, #8]
 8006a56:	071b      	lsls	r3, r3, #28
 8006a58:	4981      	ldr	r1, [pc, #516]	@ (8006c60 <HAL_RCCEx_PeriphCLKConfig+0x280>)
 8006a5a:	4313      	orrs	r3, r2
 8006a5c:	f8c1 3084 	str.w	r3, [r1, #132]	@ 0x84
    }

    /*---------------------------- SAI configuration -------------------------*/
    /* In Case of SAI Clock Configuration through PLLI2S, PLLI2SQ and PLLI2S_DIVQ must
       be added only for SAI configuration */
    if(((PeriphClkInit->PeriphClockSelection) & RCC_PERIPHCLK_SAI_PLLI2S) == (RCC_PERIPHCLK_SAI_PLLI2S))
 8006a60:	687b      	ldr	r3, [r7, #4]
 8006a62:	681b      	ldr	r3, [r3, #0]
 8006a64:	f003 0302 	and.w	r3, r3, #2
 8006a68:	2b00      	cmp	r3, #0
 8006a6a:	d01f      	beq.n	8006aac <HAL_RCCEx_PeriphCLKConfig+0xcc>
      /* Check the PLLI2S division factors */
      assert_param(IS_RCC_PLLI2SQ_VALUE(PeriphClkInit->PLLI2S.PLLI2SQ));
      assert_param(IS_RCC_PLLI2S_DIVQ_VALUE(PeriphClkInit->PLLI2SDivQ));

      /* Read PLLI2SR value from PLLI2SCFGR register (this value is not need for SAI configuration) */
      tmpreg1 = ((RCC->PLLI2SCFGR & RCC_PLLI2SCFGR_PLLI2SR) >> RCC_PLLI2SCFGR_PLLI2SR_Pos);
 8006a6c:	4b7c      	ldr	r3, [pc, #496]	@ (8006c60 <HAL_RCCEx_PeriphCLKConfig+0x280>)
 8006a6e:	f8d3 3084 	ldr.w	r3, [r3, #132]	@ 0x84
 8006a72:	0f1b      	lsrs	r3, r3, #28
 8006a74:	f003 0307 	and.w	r3, r3, #7
 8006a78:	613b      	str	r3, [r7, #16]
      /* Configure the PLLI2S division factors */
      /* PLLI2S_VCO Input  = PLL_SOURCE/PLLM */
      /* PLLI2S_VCO Output = PLLI2S_VCO Input * PLLI2SN */
      /* SAI_CLK(first level) = PLLI2S_VCO Output/PLLI2SQ */
      __HAL_RCC_PLLI2S_SAICLK_CONFIG(PeriphClkInit->PLLI2S.PLLI2SN , PeriphClkInit->PLLI2S.PLLI2SQ , tmpreg1);
 8006a7a:	687b      	ldr	r3, [r7, #4]
 8006a7c:	685b      	ldr	r3, [r3, #4]
 8006a7e:	019a      	lsls	r2, r3, #6
 8006a80:	687b      	ldr	r3, [r7, #4]
 8006a82:	68db      	ldr	r3, [r3, #12]
 8006a84:	061b      	lsls	r3, r3, #24
 8006a86:	431a      	orrs	r2, r3
 8006a88:	693b      	ldr	r3, [r7, #16]
 8006a8a:	071b      	lsls	r3, r3, #28
 8006a8c:	4974      	ldr	r1, [pc, #464]	@ (8006c60 <HAL_RCCEx_PeriphCLKConfig+0x280>)
 8006a8e:	4313      	orrs	r3, r2
 8006a90:	f8c1 3084 	str.w	r3, [r1, #132]	@ 0x84
      /* SAI_CLK_x = SAI_CLK(first level)/PLLI2SDIVQ */
      __HAL_RCC_PLLI2S_PLLSAICLKDIVQ_CONFIG(PeriphClkInit->PLLI2SDivQ);
 8006a94:	4b72      	ldr	r3, [pc, #456]	@ (8006c60 <HAL_RCCEx_PeriphCLKConfig+0x280>)
 8006a96:	f8d3 308c 	ldr.w	r3, [r3, #140]	@ 0x8c
 8006a9a:	f023 021f 	bic.w	r2, r3, #31
 8006a9e:	687b      	ldr	r3, [r7, #4]
 8006aa0:	69db      	ldr	r3, [r3, #28]
 8006aa2:	3b01      	subs	r3, #1
 8006aa4:	496e      	ldr	r1, [pc, #440]	@ (8006c60 <HAL_RCCEx_PeriphCLKConfig+0x280>)
 8006aa6:	4313      	orrs	r3, r2
 8006aa8:	f8c1 308c 	str.w	r3, [r1, #140]	@ 0x8c
    }

    /*----------------- In Case of PLLI2S is just selected  -----------------*/
    if((PeriphClkInit->PeriphClockSelection & RCC_PERIPHCLK_PLLI2S) == RCC_PERIPHCLK_PLLI2S)
 8006aac:	687b      	ldr	r3, [r7, #4]
 8006aae:	681b      	ldr	r3, [r3, #0]
 8006ab0:	f003 0340 	and.w	r3, r3, #64	@ 0x40
 8006ab4:	2b00      	cmp	r3, #0
 8006ab6:	d00d      	beq.n	8006ad4 <HAL_RCCEx_PeriphCLKConfig+0xf4>
      /* Check for Parameters */
      assert_param(IS_RCC_PLLI2SQ_VALUE(PeriphClkInit->PLLI2S.PLLI2SQ));
      assert_param(IS_RCC_PLLI2SR_VALUE(PeriphClkInit->PLLI2S.PLLI2SR));

      /* Configure the PLLI2S multiplication and division factors */
      __HAL_RCC_PLLI2S_SAICLK_CONFIG(PeriphClkInit->PLLI2S.PLLI2SN, PeriphClkInit->PLLI2S.PLLI2SQ, PeriphClkInit->PLLI2S.PLLI2SR);
 8006ab8:	687b      	ldr	r3, [r7, #4]
 8006aba:	685b      	ldr	r3, [r3, #4]
 8006abc:	019a      	lsls	r2, r3, #6
 8006abe:	687b      	ldr	r3, [r7, #4]
 8006ac0:	68db      	ldr	r3, [r3, #12]
 8006ac2:	061b      	lsls	r3, r3, #24
 8006ac4:	431a      	orrs	r2, r3
 8006ac6:	687b      	ldr	r3, [r7, #4]
 8006ac8:	689b      	ldr	r3, [r3, #8]
 8006aca:	071b      	lsls	r3, r3, #28
 8006acc:	4964      	ldr	r1, [pc, #400]	@ (8006c60 <HAL_RCCEx_PeriphCLKConfig+0x280>)
 8006ace:	4313      	orrs	r3, r2
 8006ad0:	f8c1 3084 	str.w	r3, [r1, #132]	@ 0x84
    }

    /* Enable the PLLI2S */
    __HAL_RCC_PLLI2S_ENABLE();
 8006ad4:	4b61      	ldr	r3, [pc, #388]	@ (8006c5c <HAL_RCCEx_PeriphCLKConfig+0x27c>)
 8006ad6:	2201      	movs	r2, #1
 8006ad8:	601a      	str	r2, [r3, #0]
    /* Get tick */
    tickstart = HAL_GetTick();
 8006ada:	f7fc fb93 	bl	8003204 <HAL_GetTick>
 8006ade:	6178      	str	r0, [r7, #20]
    /* Wait till PLLI2S is ready */
    while(__HAL_RCC_GET_FLAG(RCC_FLAG_PLLI2SRDY)  == RESET)
 8006ae0:	e008      	b.n	8006af4 <HAL_RCCEx_PeriphCLKConfig+0x114>
    {
      if((HAL_GetTick() - tickstart ) > PLLI2S_TIMEOUT_VALUE)
 8006ae2:	f7fc fb8f 	bl	8003204 <HAL_GetTick>
 8006ae6:	4602      	mov	r2, r0
 8006ae8:	697b      	ldr	r3, [r7, #20]
 8006aea:	1ad3      	subs	r3, r2, r3
 8006aec:	2b02      	cmp	r3, #2
 8006aee:	d901      	bls.n	8006af4 <HAL_RCCEx_PeriphCLKConfig+0x114>
      {
        /* return in case of Timeout detected */
        return HAL_TIMEOUT;
 8006af0:	2303      	movs	r3, #3
 8006af2:	e129      	b.n	8006d48 <HAL_RCCEx_PeriphCLKConfig+0x368>
    while(__HAL_RCC_GET_FLAG(RCC_FLAG_PLLI2SRDY)  == RESET)
 8006af4:	4b5a      	ldr	r3, [pc, #360]	@ (8006c60 <HAL_RCCEx_PeriphCLKConfig+0x280>)
 8006af6:	681b      	ldr	r3, [r3, #0]
 8006af8:	f003 6300 	and.w	r3, r3, #134217728	@ 0x8000000
 8006afc:	2b00      	cmp	r3, #0
 8006afe:	d0f0      	beq.n	8006ae2 <HAL_RCCEx_PeriphCLKConfig+0x102>

  /*----------------------- SAI/LTDC Configuration (PLLSAI) ------------------*/
  /*----------------------- Common configuration SAI/LTDC --------------------*/
  /* In Case of SAI or LTDC Clock Configuration through PLLSAI, PLLSAIN division
     factor is common parameters for both peripherals */
  if((((PeriphClkInit->PeriphClockSelection) & RCC_PERIPHCLK_SAI_PLLSAI) == RCC_PERIPHCLK_SAI_PLLSAI) ||
 8006b00:	687b      	ldr	r3, [r7, #4]
 8006b02:	681b      	ldr	r3, [r3, #0]
 8006b04:	f003 0304 	and.w	r3, r3, #4
 8006b08:	2b00      	cmp	r3, #0
 8006b0a:	d105      	bne.n	8006b18 <HAL_RCCEx_PeriphCLKConfig+0x138>
     (((PeriphClkInit->PeriphClockSelection) & RCC_PERIPHCLK_LTDC) == RCC_PERIPHCLK_LTDC))
 8006b0c:	687b      	ldr	r3, [r7, #4]
 8006b0e:	681b      	ldr	r3, [r3, #0]
 8006b10:	f003 0308 	and.w	r3, r3, #8
  if((((PeriphClkInit->PeriphClockSelection) & RCC_PERIPHCLK_SAI_PLLSAI) == RCC_PERIPHCLK_SAI_PLLSAI) ||
 8006b14:	2b00      	cmp	r3, #0
 8006b16:	d079      	beq.n	8006c0c <HAL_RCCEx_PeriphCLKConfig+0x22c>
  {
    /* Check the PLLSAI division factors */
    assert_param(IS_RCC_PLLSAIN_VALUE(PeriphClkInit->PLLSAI.PLLSAIN));

    /* Disable PLLSAI Clock */
    __HAL_RCC_PLLSAI_DISABLE();
 8006b18:	4b52      	ldr	r3, [pc, #328]	@ (8006c64 <HAL_RCCEx_PeriphCLKConfig+0x284>)
 8006b1a:	2200      	movs	r2, #0
 8006b1c:	601a      	str	r2, [r3, #0]
    /* Get tick */
    tickstart = HAL_GetTick();
 8006b1e:	f7fc fb71 	bl	8003204 <HAL_GetTick>
 8006b22:	6178      	str	r0, [r7, #20]
    /* Wait till PLLSAI is disabled */
    while(__HAL_RCC_PLLSAI_GET_FLAG() != RESET)
 8006b24:	e008      	b.n	8006b38 <HAL_RCCEx_PeriphCLKConfig+0x158>
    {
      if((HAL_GetTick() - tickstart ) > PLLSAI_TIMEOUT_VALUE)
 8006b26:	f7fc fb6d 	bl	8003204 <HAL_GetTick>
 8006b2a:	4602      	mov	r2, r0
 8006b2c:	697b      	ldr	r3, [r7, #20]
 8006b2e:	1ad3      	subs	r3, r2, r3
 8006b30:	2b02      	cmp	r3, #2
 8006b32:	d901      	bls.n	8006b38 <HAL_RCCEx_PeriphCLKConfig+0x158>
      {
        /* return in case of Timeout detected */
        return HAL_TIMEOUT;
 8006b34:	2303      	movs	r3, #3
 8006b36:	e107      	b.n	8006d48 <HAL_RCCEx_PeriphCLKConfig+0x368>
    while(__HAL_RCC_PLLSAI_GET_FLAG() != RESET)
 8006b38:	4b49      	ldr	r3, [pc, #292]	@ (8006c60 <HAL_RCCEx_PeriphCLKConfig+0x280>)
 8006b3a:	681b      	ldr	r3, [r3, #0]
 8006b3c:	f003 5300 	and.w	r3, r3, #536870912	@ 0x20000000
 8006b40:	f1b3 5f00 	cmp.w	r3, #536870912	@ 0x20000000
 8006b44:	d0ef      	beq.n	8006b26 <HAL_RCCEx_PeriphCLKConfig+0x146>
    }

    /*---------------------------- SAI configuration -------------------------*/
    /* In Case of SAI Clock Configuration through PLLSAI, PLLSAIQ and PLLSAI_DIVQ must
       be added only for SAI configuration */
    if(((PeriphClkInit->PeriphClockSelection) & RCC_PERIPHCLK_SAI_PLLSAI) == (RCC_PERIPHCLK_SAI_PLLSAI))
 8006b46:	687b      	ldr	r3, [r7, #4]
 8006b48:	681b      	ldr	r3, [r3, #0]
 8006b4a:	f003 0304 	and.w	r3, r3, #4
 8006b4e:	2b00      	cmp	r3, #0
 8006b50:	d020      	beq.n	8006b94 <HAL_RCCEx_PeriphCLKConfig+0x1b4>
    {
      assert_param(IS_RCC_PLLSAIQ_VALUE(PeriphClkInit->PLLSAI.PLLSAIQ));
      assert_param(IS_RCC_PLLSAI_DIVQ_VALUE(PeriphClkInit->PLLSAIDivQ));

      /* Read PLLSAIR value from PLLSAICFGR register (this value is not need for SAI configuration) */
      tmpreg1 = ((RCC->PLLSAICFGR & RCC_PLLSAICFGR_PLLSAIR) >> RCC_PLLSAICFGR_PLLSAIR_Pos);
 8006b52:	4b43      	ldr	r3, [pc, #268]	@ (8006c60 <HAL_RCCEx_PeriphCLKConfig+0x280>)
 8006b54:	f8d3 3088 	ldr.w	r3, [r3, #136]	@ 0x88
 8006b58:	0f1b      	lsrs	r3, r3, #28
 8006b5a:	f003 0307 	and.w	r3, r3, #7
 8006b5e:	613b      	str	r3, [r7, #16]
      /* PLLSAI_VCO Input  = PLL_SOURCE/PLLM */
      /* PLLSAI_VCO Output = PLLSAI_VCO Input * PLLSAIN */
      /* SAI_CLK(first level) = PLLSAI_VCO Output/PLLSAIQ */
      __HAL_RCC_PLLSAI_CONFIG(PeriphClkInit->PLLSAI.PLLSAIN , PeriphClkInit->PLLSAI.PLLSAIQ, tmpreg1);
 8006b60:	687b      	ldr	r3, [r7, #4]
 8006b62:	691b      	ldr	r3, [r3, #16]
 8006b64:	019a      	lsls	r2, r3, #6
 8006b66:	687b      	ldr	r3, [r7, #4]
 8006b68:	695b      	ldr	r3, [r3, #20]
 8006b6a:	061b      	lsls	r3, r3, #24
 8006b6c:	431a      	orrs	r2, r3
 8006b6e:	693b      	ldr	r3, [r7, #16]
 8006b70:	071b      	lsls	r3, r3, #28
 8006b72:	493b      	ldr	r1, [pc, #236]	@ (8006c60 <HAL_RCCEx_PeriphCLKConfig+0x280>)
 8006b74:	4313      	orrs	r3, r2
 8006b76:	f8c1 3088 	str.w	r3, [r1, #136]	@ 0x88
      /* SAI_CLK_x = SAI_CLK(first level)/PLLSAIDIVQ */
      __HAL_RCC_PLLSAI_PLLSAICLKDIVQ_CONFIG(PeriphClkInit->PLLSAIDivQ);
 8006b7a:	4b39      	ldr	r3, [pc, #228]	@ (8006c60 <HAL_RCCEx_PeriphCLKConfig+0x280>)
 8006b7c:	f8d3 308c 	ldr.w	r3, [r3, #140]	@ 0x8c
 8006b80:	f423 52f8 	bic.w	r2, r3, #7936	@ 0x1f00
 8006b84:	687b      	ldr	r3, [r7, #4]
 8006b86:	6a1b      	ldr	r3, [r3, #32]
 8006b88:	3b01      	subs	r3, #1
 8006b8a:	021b      	lsls	r3, r3, #8
 8006b8c:	4934      	ldr	r1, [pc, #208]	@ (8006c60 <HAL_RCCEx_PeriphCLKConfig+0x280>)
 8006b8e:	4313      	orrs	r3, r2
 8006b90:	f8c1 308c 	str.w	r3, [r1, #140]	@ 0x8c
    }

    /*---------------------------- LTDC configuration ------------------------*/
    if(((PeriphClkInit->PeriphClockSelection) & RCC_PERIPHCLK_LTDC) == (RCC_PERIPHCLK_LTDC))
 8006b94:	687b      	ldr	r3, [r7, #4]
 8006b96:	681b      	ldr	r3, [r3, #0]
 8006b98:	f003 0308 	and.w	r3, r3, #8
 8006b9c:	2b00      	cmp	r3, #0
 8006b9e:	d01e      	beq.n	8006bde <HAL_RCCEx_PeriphCLKConfig+0x1fe>
    {
      assert_param(IS_RCC_PLLSAIR_VALUE(PeriphClkInit->PLLSAI.PLLSAIR));
      assert_param(IS_RCC_PLLSAI_DIVR_VALUE(PeriphClkInit->PLLSAIDivR));

      /* Read PLLSAIR value from PLLSAICFGR register (this value is not need for SAI configuration) */
      tmpreg1 = ((RCC->PLLSAICFGR & RCC_PLLSAICFGR_PLLSAIQ) >> RCC_PLLSAICFGR_PLLSAIQ_Pos);
 8006ba0:	4b2f      	ldr	r3, [pc, #188]	@ (8006c60 <HAL_RCCEx_PeriphCLKConfig+0x280>)
 8006ba2:	f8d3 3088 	ldr.w	r3, [r3, #136]	@ 0x88
 8006ba6:	0e1b      	lsrs	r3, r3, #24
 8006ba8:	f003 030f 	and.w	r3, r3, #15
 8006bac:	613b      	str	r3, [r7, #16]
      /* PLLSAI_VCO Input  = PLL_SOURCE/PLLM */
      /* PLLSAI_VCO Output = PLLSAI_VCO Input * PLLSAIN */
      /* LTDC_CLK(first level) = PLLSAI_VCO Output/PLLSAIR */
      __HAL_RCC_PLLSAI_CONFIG(PeriphClkInit->PLLSAI.PLLSAIN , tmpreg1, PeriphClkInit->PLLSAI.PLLSAIR);
 8006bae:	687b      	ldr	r3, [r7, #4]
 8006bb0:	691b      	ldr	r3, [r3, #16]
 8006bb2:	019a      	lsls	r2, r3, #6
 8006bb4:	693b      	ldr	r3, [r7, #16]
 8006bb6:	061b      	lsls	r3, r3, #24
 8006bb8:	431a      	orrs	r2, r3
 8006bba:	687b      	ldr	r3, [r7, #4]
 8006bbc:	699b      	ldr	r3, [r3, #24]
 8006bbe:	071b      	lsls	r3, r3, #28
 8006bc0:	4927      	ldr	r1, [pc, #156]	@ (8006c60 <HAL_RCCEx_PeriphCLKConfig+0x280>)
 8006bc2:	4313      	orrs	r3, r2
 8006bc4:	f8c1 3088 	str.w	r3, [r1, #136]	@ 0x88
      /* LTDC_CLK = LTDC_CLK(first level)/PLLSAIDIVR */
      __HAL_RCC_PLLSAI_PLLSAICLKDIVR_CONFIG(PeriphClkInit->PLLSAIDivR);
 8006bc8:	4b25      	ldr	r3, [pc, #148]	@ (8006c60 <HAL_RCCEx_PeriphCLKConfig+0x280>)
 8006bca:	f8d3 308c 	ldr.w	r3, [r3, #140]	@ 0x8c
 8006bce:	f423 3240 	bic.w	r2, r3, #196608	@ 0x30000
 8006bd2:	687b      	ldr	r3, [r7, #4]
 8006bd4:	6a5b      	ldr	r3, [r3, #36]	@ 0x24
 8006bd6:	4922      	ldr	r1, [pc, #136]	@ (8006c60 <HAL_RCCEx_PeriphCLKConfig+0x280>)
 8006bd8:	4313      	orrs	r3, r2
 8006bda:	f8c1 308c 	str.w	r3, [r1, #140]	@ 0x8c
    }
    /* Enable PLLSAI Clock */
    __HAL_RCC_PLLSAI_ENABLE();
 8006bde:	4b21      	ldr	r3, [pc, #132]	@ (8006c64 <HAL_RCCEx_PeriphCLKConfig+0x284>)
 8006be0:	2201      	movs	r2, #1
 8006be2:	601a      	str	r2, [r3, #0]
    /* Get tick */
    tickstart = HAL_GetTick();
 8006be4:	f7fc fb0e 	bl	8003204 <HAL_GetTick>
 8006be8:	6178      	str	r0, [r7, #20]
    /* Wait till PLLSAI is ready */
    while(__HAL_RCC_PLLSAI_GET_FLAG() == RESET)
 8006bea:	e008      	b.n	8006bfe <HAL_RCCEx_PeriphCLKConfig+0x21e>
    {
      if((HAL_GetTick() - tickstart ) > PLLSAI_TIMEOUT_VALUE)
 8006bec:	f7fc fb0a 	bl	8003204 <HAL_GetTick>
 8006bf0:	4602      	mov	r2, r0
 8006bf2:	697b      	ldr	r3, [r7, #20]
 8006bf4:	1ad3      	subs	r3, r2, r3
 8006bf6:	2b02      	cmp	r3, #2
 8006bf8:	d901      	bls.n	8006bfe <HAL_RCCEx_PeriphCLKConfig+0x21e>
      {
        /* return in case of Timeout detected */
        return HAL_TIMEOUT;
 8006bfa:	2303      	movs	r3, #3
 8006bfc:	e0a4      	b.n	8006d48 <HAL_RCCEx_PeriphCLKConfig+0x368>
    while(__HAL_RCC_PLLSAI_GET_FLAG() == RESET)
 8006bfe:	4b18      	ldr	r3, [pc, #96]	@ (8006c60 <HAL_RCCEx_PeriphCLKConfig+0x280>)
 8006c00:	681b      	ldr	r3, [r3, #0]
 8006c02:	f003 5300 	and.w	r3, r3, #536870912	@ 0x20000000
 8006c06:	f1b3 5f00 	cmp.w	r3, #536870912	@ 0x20000000
 8006c0a:	d1ef      	bne.n	8006bec <HAL_RCCEx_PeriphCLKConfig+0x20c>
    }
  }
  /*--------------------------------------------------------------------------*/

  /*---------------------------- RTC configuration ---------------------------*/
  if(((PeriphClkInit->PeriphClockSelection) & RCC_PERIPHCLK_RTC) == (RCC_PERIPHCLK_RTC))
 8006c0c:	687b      	ldr	r3, [r7, #4]
 8006c0e:	681b      	ldr	r3, [r3, #0]
 8006c10:	f003 0320 	and.w	r3, r3, #32
 8006c14:	2b00      	cmp	r3, #0
 8006c16:	f000 808b 	beq.w	8006d30 <HAL_RCCEx_PeriphCLKConfig+0x350>
  {
    /* Check for RTC Parameters used to output RTCCLK */
    assert_param(IS_RCC_RTCCLKSOURCE(PeriphClkInit->RTCClockSelection));

    /* Enable Power Clock*/
    __HAL_RCC_PWR_CLK_ENABLE();
 8006c1a:	2300      	movs	r3, #0
 8006c1c:	60fb      	str	r3, [r7, #12]
 8006c1e:	4b10      	ldr	r3, [pc, #64]	@ (8006c60 <HAL_RCCEx_PeriphCLKConfig+0x280>)
 8006c20:	6c1b      	ldr	r3, [r3, #64]	@ 0x40
 8006c22:	4a0f      	ldr	r2, [pc, #60]	@ (8006c60 <HAL_RCCEx_PeriphCLKConfig+0x280>)
 8006c24:	f043 5380 	orr.w	r3, r3, #268435456	@ 0x10000000
 8006c28:	6413      	str	r3, [r2, #64]	@ 0x40
 8006c2a:	4b0d      	ldr	r3, [pc, #52]	@ (8006c60 <HAL_RCCEx_PeriphCLKConfig+0x280>)
 8006c2c:	6c1b      	ldr	r3, [r3, #64]	@ 0x40
 8006c2e:	f003 5380 	and.w	r3, r3, #268435456	@ 0x10000000
 8006c32:	60fb      	str	r3, [r7, #12]
 8006c34:	68fb      	ldr	r3, [r7, #12]

    /* Enable write access to Backup domain */
    PWR->CR |= PWR_CR_DBP;
 8006c36:	4b0c      	ldr	r3, [pc, #48]	@ (8006c68 <HAL_RCCEx_PeriphCLKConfig+0x288>)
 8006c38:	681b      	ldr	r3, [r3, #0]
 8006c3a:	4a0b      	ldr	r2, [pc, #44]	@ (8006c68 <HAL_RCCEx_PeriphCLKConfig+0x288>)
 8006c3c:	f443 7380 	orr.w	r3, r3, #256	@ 0x100
 8006c40:	6013      	str	r3, [r2, #0]

    /* Get tick */
    tickstart = HAL_GetTick();
 8006c42:	f7fc fadf 	bl	8003204 <HAL_GetTick>
 8006c46:	6178      	str	r0, [r7, #20]

    while((PWR->CR & PWR_CR_DBP) == RESET)
 8006c48:	e010      	b.n	8006c6c <HAL_RCCEx_PeriphCLKConfig+0x28c>
    {
      if((HAL_GetTick() - tickstart ) > RCC_DBP_TIMEOUT_VALUE)
 8006c4a:	f7fc fadb 	bl	8003204 <HAL_GetTick>
 8006c4e:	4602      	mov	r2, r0
 8006c50:	697b      	ldr	r3, [r7, #20]
 8006c52:	1ad3      	subs	r3, r2, r3
 8006c54:	2b02      	cmp	r3, #2
 8006c56:	d909      	bls.n	8006c6c <HAL_RCCEx_PeriphCLKConfig+0x28c>
      {
        return HAL_TIMEOUT;
 8006c58:	2303      	movs	r3, #3
 8006c5a:	e075      	b.n	8006d48 <HAL_RCCEx_PeriphCLKConfig+0x368>
 8006c5c:	42470068 	.word	0x42470068
 8006c60:	40023800 	.word	0x40023800
 8006c64:	42470070 	.word	0x42470070
 8006c68:	40007000 	.word	0x40007000
    while((PWR->CR & PWR_CR_DBP) == RESET)
 8006c6c:	4b38      	ldr	r3, [pc, #224]	@ (8006d50 <HAL_RCCEx_PeriphCLKConfig+0x370>)
 8006c6e:	681b      	ldr	r3, [r3, #0]
 8006c70:	f403 7380 	and.w	r3, r3, #256	@ 0x100
 8006c74:	2b00      	cmp	r3, #0
 8006c76:	d0e8      	beq.n	8006c4a <HAL_RCCEx_PeriphCLKConfig+0x26a>
      }
    }
    /* Reset the Backup domain only if the RTC Clock source selection is modified from reset value */
    tmpreg1 = (RCC->BDCR & RCC_BDCR_RTCSEL);
 8006c78:	4b36      	ldr	r3, [pc, #216]	@ (8006d54 <HAL_RCCEx_PeriphCLKConfig+0x374>)
 8006c7a:	6f1b      	ldr	r3, [r3, #112]	@ 0x70
 8006c7c:	f403 7340 	and.w	r3, r3, #768	@ 0x300
 8006c80:	613b      	str	r3, [r7, #16]
    if((tmpreg1 != 0x00000000U) && ((tmpreg1) != (PeriphClkInit->RTCClockSelection & RCC_BDCR_RTCSEL)))
 8006c82:	693b      	ldr	r3, [r7, #16]
 8006c84:	2b00      	cmp	r3, #0
 8006c86:	d02f      	beq.n	8006ce8 <HAL_RCCEx_PeriphCLKConfig+0x308>
 8006c88:	687b      	ldr	r3, [r7, #4]
 8006c8a:	6a9b      	ldr	r3, [r3, #40]	@ 0x28
 8006c8c:	f403 7340 	and.w	r3, r3, #768	@ 0x300
 8006c90:	693a      	ldr	r2, [r7, #16]
 8006c92:	429a      	cmp	r2, r3
 8006c94:	d028      	beq.n	8006ce8 <HAL_RCCEx_PeriphCLKConfig+0x308>
    {
      /* Store the content of BDCR register before the reset of Backup Domain */
      tmpreg1 = (RCC->BDCR & ~(RCC_BDCR_RTCSEL));
 8006c96:	4b2f      	ldr	r3, [pc, #188]	@ (8006d54 <HAL_RCCEx_PeriphCLKConfig+0x374>)
 8006c98:	6f1b      	ldr	r3, [r3, #112]	@ 0x70
 8006c9a:	f423 7340 	bic.w	r3, r3, #768	@ 0x300
 8006c9e:	613b      	str	r3, [r7, #16]
      /* RTC Clock selection can be changed only if the Backup Domain is reset */
      __HAL_RCC_BACKUPRESET_FORCE();
 8006ca0:	4b2d      	ldr	r3, [pc, #180]	@ (8006d58 <HAL_RCCEx_PeriphCLKConfig+0x378>)
 8006ca2:	2201      	movs	r2, #1
 8006ca4:	601a      	str	r2, [r3, #0]
      __HAL_RCC_BACKUPRESET_RELEASE();
 8006ca6:	4b2c      	ldr	r3, [pc, #176]	@ (8006d58 <HAL_RCCEx_PeriphCLKConfig+0x378>)
 8006ca8:	2200      	movs	r2, #0
 8006caa:	601a      	str	r2, [r3, #0]
      /* Restore the Content of BDCR register */
      RCC->BDCR = tmpreg1;
 8006cac:	4a29      	ldr	r2, [pc, #164]	@ (8006d54 <HAL_RCCEx_PeriphCLKConfig+0x374>)
 8006cae:	693b      	ldr	r3, [r7, #16]
 8006cb0:	6713      	str	r3, [r2, #112]	@ 0x70

      /* Wait for LSE reactivation if LSE was enable prior to Backup Domain reset */
      if(HAL_IS_BIT_SET(RCC->BDCR, RCC_BDCR_LSEON))
 8006cb2:	4b28      	ldr	r3, [pc, #160]	@ (8006d54 <HAL_RCCEx_PeriphCLKConfig+0x374>)
 8006cb4:	6f1b      	ldr	r3, [r3, #112]	@ 0x70
 8006cb6:	f003 0301 	and.w	r3, r3, #1
 8006cba:	2b01      	cmp	r3, #1
 8006cbc:	d114      	bne.n	8006ce8 <HAL_RCCEx_PeriphCLKConfig+0x308>
      {
        /* Get tick */
        tickstart = HAL_GetTick();
 8006cbe:	f7fc faa1 	bl	8003204 <HAL_GetTick>
 8006cc2:	6178      	str	r0, [r7, #20]

        /* Wait till LSE is ready */
        while(__HAL_RCC_GET_FLAG(RCC_FLAG_LSERDY) == RESET)
 8006cc4:	e00a      	b.n	8006cdc <HAL_RCCEx_PeriphCLKConfig+0x2fc>
        {
          if((HAL_GetTick() - tickstart ) > RCC_LSE_TIMEOUT_VALUE)
 8006cc6:	f7fc fa9d 	bl	8003204 <HAL_GetTick>
 8006cca:	4602      	mov	r2, r0
 8006ccc:	697b      	ldr	r3, [r7, #20]
 8006cce:	1ad3      	subs	r3, r2, r3
 8006cd0:	f241 3288 	movw	r2, #5000	@ 0x1388
 8006cd4:	4293      	cmp	r3, r2
 8006cd6:	d901      	bls.n	8006cdc <HAL_RCCEx_PeriphCLKConfig+0x2fc>
          {
            return HAL_TIMEOUT;
 8006cd8:	2303      	movs	r3, #3
 8006cda:	e035      	b.n	8006d48 <HAL_RCCEx_PeriphCLKConfig+0x368>
        while(__HAL_RCC_GET_FLAG(RCC_FLAG_LSERDY) == RESET)
 8006cdc:	4b1d      	ldr	r3, [pc, #116]	@ (8006d54 <HAL_RCCEx_PeriphCLKConfig+0x374>)
 8006cde:	6f1b      	ldr	r3, [r3, #112]	@ 0x70
 8006ce0:	f003 0302 	and.w	r3, r3, #2
 8006ce4:	2b00      	cmp	r3, #0
 8006ce6:	d0ee      	beq.n	8006cc6 <HAL_RCCEx_PeriphCLKConfig+0x2e6>
          }
        }
      }
    }
    __HAL_RCC_RTC_CONFIG(PeriphClkInit->RTCClockSelection);
 8006ce8:	687b      	ldr	r3, [r7, #4]
 8006cea:	6a9b      	ldr	r3, [r3, #40]	@ 0x28
 8006cec:	f403 7340 	and.w	r3, r3, #768	@ 0x300
 8006cf0:	f5b3 7f40 	cmp.w	r3, #768	@ 0x300
 8006cf4:	d10d      	bne.n	8006d12 <HAL_RCCEx_PeriphCLKConfig+0x332>
 8006cf6:	4b17      	ldr	r3, [pc, #92]	@ (8006d54 <HAL_RCCEx_PeriphCLKConfig+0x374>)
 8006cf8:	689b      	ldr	r3, [r3, #8]
 8006cfa:	f423 12f8 	bic.w	r2, r3, #2031616	@ 0x1f0000
 8006cfe:	687b      	ldr	r3, [r7, #4]
 8006d00:	6a9b      	ldr	r3, [r3, #40]	@ 0x28
 8006d02:	f023 4370 	bic.w	r3, r3, #4026531840	@ 0xf0000000
 8006d06:	f423 7340 	bic.w	r3, r3, #768	@ 0x300
 8006d0a:	4912      	ldr	r1, [pc, #72]	@ (8006d54 <HAL_RCCEx_PeriphCLKConfig+0x374>)
 8006d0c:	4313      	orrs	r3, r2
 8006d0e:	608b      	str	r3, [r1, #8]
 8006d10:	e005      	b.n	8006d1e <HAL_RCCEx_PeriphCLKConfig+0x33e>
 8006d12:	4b10      	ldr	r3, [pc, #64]	@ (8006d54 <HAL_RCCEx_PeriphCLKConfig+0x374>)
 8006d14:	689b      	ldr	r3, [r3, #8]
 8006d16:	4a0f      	ldr	r2, [pc, #60]	@ (8006d54 <HAL_RCCEx_PeriphCLKConfig+0x374>)
 8006d18:	f423 13f8 	bic.w	r3, r3, #2031616	@ 0x1f0000
 8006d1c:	6093      	str	r3, [r2, #8]
 8006d1e:	4b0d      	ldr	r3, [pc, #52]	@ (8006d54 <HAL_RCCEx_PeriphCLKConfig+0x374>)
 8006d20:	6f1a      	ldr	r2, [r3, #112]	@ 0x70
 8006d22:	687b      	ldr	r3, [r7, #4]
 8006d24:	6a9b      	ldr	r3, [r3, #40]	@ 0x28
 8006d26:	f3c3 030b 	ubfx	r3, r3, #0, #12
 8006d2a:	490a      	ldr	r1, [pc, #40]	@ (8006d54 <HAL_RCCEx_PeriphCLKConfig+0x374>)
 8006d2c:	4313      	orrs	r3, r2
 8006d2e:	670b      	str	r3, [r1, #112]	@ 0x70
  }
  /*--------------------------------------------------------------------------*/

  /*---------------------------- TIM configuration ---------------------------*/
  if(((PeriphClkInit->PeriphClockSelection) & RCC_PERIPHCLK_TIM) == (RCC_PERIPHCLK_TIM))
 8006d30:	687b      	ldr	r3, [r7, #4]
 8006d32:	681b      	ldr	r3, [r3, #0]
 8006d34:	f003 0310 	and.w	r3, r3, #16
 8006d38:	2b00      	cmp	r3, #0
 8006d3a:	d004      	beq.n	8006d46 <HAL_RCCEx_PeriphCLKConfig+0x366>
  {
    __HAL_RCC_TIMCLKPRESCALER(PeriphClkInit->TIMPresSelection);
 8006d3c:	687b      	ldr	r3, [r7, #4]
 8006d3e:	f893 202c 	ldrb.w	r2, [r3, #44]	@ 0x2c
 8006d42:	4b06      	ldr	r3, [pc, #24]	@ (8006d5c <HAL_RCCEx_PeriphCLKConfig+0x37c>)
 8006d44:	601a      	str	r2, [r3, #0]
  }
  return HAL_OK;
 8006d46:	2300      	movs	r3, #0
}
 8006d48:	4618      	mov	r0, r3
 8006d4a:	3718      	adds	r7, #24
 8006d4c:	46bd      	mov	sp, r7
 8006d4e:	bd80      	pop	{r7, pc}
 8006d50:	40007000 	.word	0x40007000
 8006d54:	40023800 	.word	0x40023800
 8006d58:	42470e40 	.word	0x42470e40
 8006d5c:	424711e0 	.word	0x424711e0

08006d60 <HAL_RTC_Init>:
  * @param  hrtc pointer to a RTC_HandleTypeDef structure that contains
  *                the configuration information for RTC.
  * @retval HAL status
  */
HAL_StatusTypeDef HAL_RTC_Init(RTC_HandleTypeDef *hrtc)
{
 8006d60:	b580      	push	{r7, lr}
 8006d62:	b084      	sub	sp, #16
 8006d64:	af00      	add	r7, sp, #0
 8006d66:	6078      	str	r0, [r7, #4]
  HAL_StatusTypeDef status = HAL_ERROR;
 8006d68:	2301      	movs	r3, #1
 8006d6a:	73fb      	strb	r3, [r7, #15]

  /* Check RTC handler validity */
  if (hrtc == NULL)
 8006d6c:	687b      	ldr	r3, [r7, #4]
 8006d6e:	2b00      	cmp	r3, #0
 8006d70:	d101      	bne.n	8006d76 <HAL_RTC_Init+0x16>
  {
    return HAL_ERROR;
 8006d72:	2301      	movs	r3, #1
 8006d74:	e073      	b.n	8006e5e <HAL_RTC_Init+0xfe>
    {
      hrtc->MspDeInitCallback = HAL_RTC_MspDeInit;
    }
  }
#else /* USE_HAL_RTC_REGISTER_CALLBACKS */
  if (hrtc->State == HAL_RTC_STATE_RESET)
 8006d76:	687b      	ldr	r3, [r7, #4]
 8006d78:	7f5b      	ldrb	r3, [r3, #29]
 8006d7a:	b2db      	uxtb	r3, r3
 8006d7c:	2b00      	cmp	r3, #0
 8006d7e:	d105      	bne.n	8006d8c <HAL_RTC_Init+0x2c>
  {
    /* Allocate lock resource and initialize it */
    hrtc->Lock = HAL_UNLOCKED;
 8006d80:	687b      	ldr	r3, [r7, #4]
 8006d82:	2200      	movs	r2, #0
 8006d84:	771a      	strb	r2, [r3, #28]

    /* Initialize RTC MSP */
    HAL_RTC_MspInit(hrtc);
 8006d86:	6878      	ldr	r0, [r7, #4]
 8006d88:	f7fb fe92 	bl	8002ab0 <HAL_RTC_MspInit>
  }
#endif /* USE_HAL_RTC_REGISTER_CALLBACKS */

  /* Set RTC state */
  hrtc->State = HAL_RTC_STATE_BUSY;
 8006d8c:	687b      	ldr	r3, [r7, #4]
 8006d8e:	2202      	movs	r2, #2
 8006d90:	775a      	strb	r2, [r3, #29]

  /* Check whether the calendar needs to be initialized */
  if (__HAL_RTC_IS_CALENDAR_INITIALIZED(hrtc) == 0U)
 8006d92:	687b      	ldr	r3, [r7, #4]
 8006d94:	681b      	ldr	r3, [r3, #0]
 8006d96:	68db      	ldr	r3, [r3, #12]
 8006d98:	f003 0310 	and.w	r3, r3, #16
 8006d9c:	2b10      	cmp	r3, #16
 8006d9e:	d055      	beq.n	8006e4c <HAL_RTC_Init+0xec>
  {
    /* Disable the write protection for RTC registers */
    __HAL_RTC_WRITEPROTECTION_DISABLE(hrtc);
 8006da0:	687b      	ldr	r3, [r7, #4]
 8006da2:	681b      	ldr	r3, [r3, #0]
 8006da4:	22ca      	movs	r2, #202	@ 0xca
 8006da6:	625a      	str	r2, [r3, #36]	@ 0x24
 8006da8:	687b      	ldr	r3, [r7, #4]
 8006daa:	681b      	ldr	r3, [r3, #0]
 8006dac:	2253      	movs	r2, #83	@ 0x53
 8006dae:	625a      	str	r2, [r3, #36]	@ 0x24

    /* Enter Initialization mode */
    status = RTC_EnterInitMode(hrtc);
 8006db0:	6878      	ldr	r0, [r7, #4]
 8006db2:	f000 fa49 	bl	8007248 <RTC_EnterInitMode>
 8006db6:	4603      	mov	r3, r0
 8006db8:	73fb      	strb	r3, [r7, #15]

    if (status == HAL_OK)
 8006dba:	7bfb      	ldrb	r3, [r7, #15]
 8006dbc:	2b00      	cmp	r3, #0
 8006dbe:	d12c      	bne.n	8006e1a <HAL_RTC_Init+0xba>
    {
      /* Clear RTC_CR FMT, OSEL and POL Bits */
      hrtc->Instance->CR &= ((uint32_t)~(RTC_CR_FMT | RTC_CR_OSEL | RTC_CR_POL));
 8006dc0:	687b      	ldr	r3, [r7, #4]
 8006dc2:	681b      	ldr	r3, [r3, #0]
 8006dc4:	689b      	ldr	r3, [r3, #8]
 8006dc6:	687a      	ldr	r2, [r7, #4]
 8006dc8:	6812      	ldr	r2, [r2, #0]
 8006dca:	f423 03e0 	bic.w	r3, r3, #7340032	@ 0x700000
 8006dce:	f023 0340 	bic.w	r3, r3, #64	@ 0x40
 8006dd2:	6093      	str	r3, [r2, #8]
      /* Set RTC_CR register */
      hrtc->Instance->CR |= (uint32_t)(hrtc->Init.HourFormat | hrtc->Init.OutPut | hrtc->Init.OutPutPolarity);
 8006dd4:	687b      	ldr	r3, [r7, #4]
 8006dd6:	681b      	ldr	r3, [r3, #0]
 8006dd8:	6899      	ldr	r1, [r3, #8]
 8006dda:	687b      	ldr	r3, [r7, #4]
 8006ddc:	685a      	ldr	r2, [r3, #4]
 8006dde:	687b      	ldr	r3, [r7, #4]
 8006de0:	691b      	ldr	r3, [r3, #16]
 8006de2:	431a      	orrs	r2, r3
 8006de4:	687b      	ldr	r3, [r7, #4]
 8006de6:	695b      	ldr	r3, [r3, #20]
 8006de8:	431a      	orrs	r2, r3
 8006dea:	687b      	ldr	r3, [r7, #4]
 8006dec:	681b      	ldr	r3, [r3, #0]
 8006dee:	430a      	orrs	r2, r1
 8006df0:	609a      	str	r2, [r3, #8]

      /* Configure the RTC PRER */
      hrtc->Instance->PRER = (uint32_t)(hrtc->Init.SynchPrediv);
 8006df2:	687b      	ldr	r3, [r7, #4]
 8006df4:	681b      	ldr	r3, [r3, #0]
 8006df6:	687a      	ldr	r2, [r7, #4]
 8006df8:	68d2      	ldr	r2, [r2, #12]
 8006dfa:	611a      	str	r2, [r3, #16]
      hrtc->Instance->PRER |= (uint32_t)(hrtc->Init.AsynchPrediv << RTC_PRER_PREDIV_A_Pos);
 8006dfc:	687b      	ldr	r3, [r7, #4]
 8006dfe:	681b      	ldr	r3, [r3, #0]
 8006e00:	6919      	ldr	r1, [r3, #16]
 8006e02:	687b      	ldr	r3, [r7, #4]
 8006e04:	689b      	ldr	r3, [r3, #8]
 8006e06:	041a      	lsls	r2, r3, #16
 8006e08:	687b      	ldr	r3, [r7, #4]
 8006e0a:	681b      	ldr	r3, [r3, #0]
 8006e0c:	430a      	orrs	r2, r1
 8006e0e:	611a      	str	r2, [r3, #16]

      /* Exit Initialization mode */
      status = RTC_ExitInitMode(hrtc);
 8006e10:	6878      	ldr	r0, [r7, #4]
 8006e12:	f000 fa50 	bl	80072b6 <RTC_ExitInitMode>
 8006e16:	4603      	mov	r3, r0
 8006e18:	73fb      	strb	r3, [r7, #15]
    }

    if (status == HAL_OK)
 8006e1a:	7bfb      	ldrb	r3, [r7, #15]
 8006e1c:	2b00      	cmp	r3, #0
 8006e1e:	d110      	bne.n	8006e42 <HAL_RTC_Init+0xe2>
    {
      hrtc->Instance->TAFCR &= (uint32_t)~RTC_OUTPUT_TYPE_PUSHPULL;
 8006e20:	687b      	ldr	r3, [r7, #4]
 8006e22:	681b      	ldr	r3, [r3, #0]
 8006e24:	6c1a      	ldr	r2, [r3, #64]	@ 0x40
 8006e26:	687b      	ldr	r3, [r7, #4]
 8006e28:	681b      	ldr	r3, [r3, #0]
 8006e2a:	f422 2280 	bic.w	r2, r2, #262144	@ 0x40000
 8006e2e:	641a      	str	r2, [r3, #64]	@ 0x40
      hrtc->Instance->TAFCR |= (uint32_t)(hrtc->Init.OutPutType);
 8006e30:	687b      	ldr	r3, [r7, #4]
 8006e32:	681b      	ldr	r3, [r3, #0]
 8006e34:	6c19      	ldr	r1, [r3, #64]	@ 0x40
 8006e36:	687b      	ldr	r3, [r7, #4]
 8006e38:	699a      	ldr	r2, [r3, #24]
 8006e3a:	687b      	ldr	r3, [r7, #4]
 8006e3c:	681b      	ldr	r3, [r3, #0]
 8006e3e:	430a      	orrs	r2, r1
 8006e40:	641a      	str	r2, [r3, #64]	@ 0x40
    }

    /* Enable the write protection for RTC registers */
    __HAL_RTC_WRITEPROTECTION_ENABLE(hrtc);
 8006e42:	687b      	ldr	r3, [r7, #4]
 8006e44:	681b      	ldr	r3, [r3, #0]
 8006e46:	22ff      	movs	r2, #255	@ 0xff
 8006e48:	625a      	str	r2, [r3, #36]	@ 0x24
 8006e4a:	e001      	b.n	8006e50 <HAL_RTC_Init+0xf0>
  }
  else
  {
    /* The calendar is already initialized */
    status = HAL_OK;
 8006e4c:	2300      	movs	r3, #0
 8006e4e:	73fb      	strb	r3, [r7, #15]
  }

  if (status == HAL_OK)
 8006e50:	7bfb      	ldrb	r3, [r7, #15]
 8006e52:	2b00      	cmp	r3, #0
 8006e54:	d102      	bne.n	8006e5c <HAL_RTC_Init+0xfc>
  {
    hrtc->State = HAL_RTC_STATE_READY;
 8006e56:	687b      	ldr	r3, [r7, #4]
 8006e58:	2201      	movs	r2, #1
 8006e5a:	775a      	strb	r2, [r3, #29]
  }

  return status;
 8006e5c:	7bfb      	ldrb	r3, [r7, #15]
}
 8006e5e:	4618      	mov	r0, r3
 8006e60:	3710      	adds	r7, #16
 8006e62:	46bd      	mov	sp, r7
 8006e64:	bd80      	pop	{r7, pc}

08006e66 <HAL_RTC_SetTime>:
  *            @arg RTC_FORMAT_BIN: Binary data format
  *            @arg RTC_FORMAT_BCD: BCD data format
  * @retval HAL status
  */
HAL_StatusTypeDef HAL_RTC_SetTime(RTC_HandleTypeDef *hrtc, RTC_TimeTypeDef *sTime, uint32_t Format)
{
 8006e66:	b590      	push	{r4, r7, lr}
 8006e68:	b087      	sub	sp, #28
 8006e6a:	af00      	add	r7, sp, #0
 8006e6c:	60f8      	str	r0, [r7, #12]
 8006e6e:	60b9      	str	r1, [r7, #8]
 8006e70:	607a      	str	r2, [r7, #4]
  uint32_t tmpreg = 0U;
 8006e72:	2300      	movs	r3, #0
 8006e74:	617b      	str	r3, [r7, #20]
  assert_param(IS_RTC_FORMAT(Format));
  assert_param(IS_RTC_DAYLIGHT_SAVING(sTime->DayLightSaving));
  assert_param(IS_RTC_STORE_OPERATION(sTime->StoreOperation));

  /* Process Locked */
  __HAL_LOCK(hrtc);
 8006e76:	68fb      	ldr	r3, [r7, #12]
 8006e78:	7f1b      	ldrb	r3, [r3, #28]
 8006e7a:	2b01      	cmp	r3, #1
 8006e7c:	d101      	bne.n	8006e82 <HAL_RTC_SetTime+0x1c>
 8006e7e:	2302      	movs	r3, #2
 8006e80:	e087      	b.n	8006f92 <HAL_RTC_SetTime+0x12c>
 8006e82:	68fb      	ldr	r3, [r7, #12]
 8006e84:	2201      	movs	r2, #1
 8006e86:	771a      	strb	r2, [r3, #28]

  hrtc->State = HAL_RTC_STATE_BUSY;
 8006e88:	68fb      	ldr	r3, [r7, #12]
 8006e8a:	2202      	movs	r2, #2
 8006e8c:	775a      	strb	r2, [r3, #29]

  if (Format == RTC_FORMAT_BIN)
 8006e8e:	687b      	ldr	r3, [r7, #4]
 8006e90:	2b00      	cmp	r3, #0
 8006e92:	d126      	bne.n	8006ee2 <HAL_RTC_SetTime+0x7c>
  {
    if ((hrtc->Instance->CR & RTC_CR_FMT) != 0U)
 8006e94:	68fb      	ldr	r3, [r7, #12]
 8006e96:	681b      	ldr	r3, [r3, #0]
 8006e98:	689b      	ldr	r3, [r3, #8]
 8006e9a:	f003 0340 	and.w	r3, r3, #64	@ 0x40
 8006e9e:	2b00      	cmp	r3, #0
 8006ea0:	d102      	bne.n	8006ea8 <HAL_RTC_SetTime+0x42>
      assert_param(IS_RTC_HOUR12(sTime->Hours));
      assert_param(IS_RTC_HOURFORMAT12(sTime->TimeFormat));
    }
    else
    {
      sTime->TimeFormat = 0x00U;
 8006ea2:	68bb      	ldr	r3, [r7, #8]
 8006ea4:	2200      	movs	r2, #0
 8006ea6:	70da      	strb	r2, [r3, #3]
      assert_param(IS_RTC_HOUR24(sTime->Hours));
    }
    assert_param(IS_RTC_MINUTES(sTime->Minutes));
    assert_param(IS_RTC_SECONDS(sTime->Seconds));

    tmpreg = (uint32_t)(( (uint32_t)RTC_ByteToBcd2(sTime->Hours)   << RTC_TR_HU_Pos)  | \
 8006ea8:	68bb      	ldr	r3, [r7, #8]
 8006eaa:	781b      	ldrb	r3, [r3, #0]
 8006eac:	4618      	mov	r0, r3
 8006eae:	f000 fa27 	bl	8007300 <RTC_ByteToBcd2>
 8006eb2:	4603      	mov	r3, r0
 8006eb4:	041c      	lsls	r4, r3, #16
                        ( (uint32_t)RTC_ByteToBcd2(sTime->Minutes) << RTC_TR_MNU_Pos) | \
 8006eb6:	68bb      	ldr	r3, [r7, #8]
 8006eb8:	785b      	ldrb	r3, [r3, #1]
 8006eba:	4618      	mov	r0, r3
 8006ebc:	f000 fa20 	bl	8007300 <RTC_ByteToBcd2>
 8006ec0:	4603      	mov	r3, r0
 8006ec2:	021b      	lsls	r3, r3, #8
    tmpreg = (uint32_t)(( (uint32_t)RTC_ByteToBcd2(sTime->Hours)   << RTC_TR_HU_Pos)  | \
 8006ec4:	431c      	orrs	r4, r3
                        ( (uint32_t)RTC_ByteToBcd2(sTime->Seconds))                   | \
 8006ec6:	68bb      	ldr	r3, [r7, #8]
 8006ec8:	789b      	ldrb	r3, [r3, #2]
 8006eca:	4618      	mov	r0, r3
 8006ecc:	f000 fa18 	bl	8007300 <RTC_ByteToBcd2>
 8006ed0:	4603      	mov	r3, r0
                        ( (uint32_t)RTC_ByteToBcd2(sTime->Minutes) << RTC_TR_MNU_Pos) | \
 8006ed2:	ea44 0203 	orr.w	r2, r4, r3
                        (((uint32_t)sTime->TimeFormat)             << RTC_TR_PM_Pos));
 8006ed6:	68bb      	ldr	r3, [r7, #8]
 8006ed8:	78db      	ldrb	r3, [r3, #3]
 8006eda:	059b      	lsls	r3, r3, #22
    tmpreg = (uint32_t)(( (uint32_t)RTC_ByteToBcd2(sTime->Hours)   << RTC_TR_HU_Pos)  | \
 8006edc:	4313      	orrs	r3, r2
 8006ede:	617b      	str	r3, [r7, #20]
 8006ee0:	e018      	b.n	8006f14 <HAL_RTC_SetTime+0xae>
  }
  else
  {
    if ((hrtc->Instance->CR & RTC_CR_FMT) != 0U)
 8006ee2:	68fb      	ldr	r3, [r7, #12]
 8006ee4:	681b      	ldr	r3, [r3, #0]
 8006ee6:	689b      	ldr	r3, [r3, #8]
 8006ee8:	f003 0340 	and.w	r3, r3, #64	@ 0x40
 8006eec:	2b00      	cmp	r3, #0
 8006eee:	d102      	bne.n	8006ef6 <HAL_RTC_SetTime+0x90>
      assert_param(IS_RTC_HOUR12(RTC_Bcd2ToByte(sTime->Hours)));
      assert_param(IS_RTC_HOURFORMAT12(sTime->TimeFormat));
    }
    else
    {
      sTime->TimeFormat = 0x00U;
 8006ef0:	68bb      	ldr	r3, [r7, #8]
 8006ef2:	2200      	movs	r2, #0
 8006ef4:	70da      	strb	r2, [r3, #3]
      assert_param(IS_RTC_HOUR24(RTC_Bcd2ToByte(sTime->Hours)));
    }
    assert_param(IS_RTC_MINUTES(RTC_Bcd2ToByte(sTime->Minutes)));
    assert_param(IS_RTC_SECONDS(RTC_Bcd2ToByte(sTime->Seconds)));
    tmpreg = (((uint32_t)(sTime->Hours)      << RTC_TR_HU_Pos)  | \
 8006ef6:	68bb      	ldr	r3, [r7, #8]
 8006ef8:	781b      	ldrb	r3, [r3, #0]
 8006efa:	041a      	lsls	r2, r3, #16
              ((uint32_t)(sTime->Minutes)    << RTC_TR_MNU_Pos) | \
 8006efc:	68bb      	ldr	r3, [r7, #8]
 8006efe:	785b      	ldrb	r3, [r3, #1]
 8006f00:	021b      	lsls	r3, r3, #8
    tmpreg = (((uint32_t)(sTime->Hours)      << RTC_TR_HU_Pos)  | \
 8006f02:	4313      	orrs	r3, r2
              ((uint32_t) sTime->Seconds)                       | \
 8006f04:	68ba      	ldr	r2, [r7, #8]
 8006f06:	7892      	ldrb	r2, [r2, #2]
              ((uint32_t)(sTime->Minutes)    << RTC_TR_MNU_Pos) | \
 8006f08:	431a      	orrs	r2, r3
              ((uint32_t)(sTime->TimeFormat) << RTC_TR_PM_Pos));
 8006f0a:	68bb      	ldr	r3, [r7, #8]
 8006f0c:	78db      	ldrb	r3, [r3, #3]
 8006f0e:	059b      	lsls	r3, r3, #22
    tmpreg = (((uint32_t)(sTime->Hours)      << RTC_TR_HU_Pos)  | \
 8006f10:	4313      	orrs	r3, r2
 8006f12:	617b      	str	r3, [r7, #20]
  }

  /* Disable the write protection for RTC registers */
  __HAL_RTC_WRITEPROTECTION_DISABLE(hrtc);
 8006f14:	68fb      	ldr	r3, [r7, #12]
 8006f16:	681b      	ldr	r3, [r3, #0]
 8006f18:	22ca      	movs	r2, #202	@ 0xca
 8006f1a:	625a      	str	r2, [r3, #36]	@ 0x24
 8006f1c:	68fb      	ldr	r3, [r7, #12]
 8006f1e:	681b      	ldr	r3, [r3, #0]
 8006f20:	2253      	movs	r2, #83	@ 0x53
 8006f22:	625a      	str	r2, [r3, #36]	@ 0x24

  /* Enter Initialization mode */
  status = RTC_EnterInitMode(hrtc);
 8006f24:	68f8      	ldr	r0, [r7, #12]
 8006f26:	f000 f98f 	bl	8007248 <RTC_EnterInitMode>
 8006f2a:	4603      	mov	r3, r0
 8006f2c:	74fb      	strb	r3, [r7, #19]

  if (status == HAL_OK)
 8006f2e:	7cfb      	ldrb	r3, [r7, #19]
 8006f30:	2b00      	cmp	r3, #0
 8006f32:	d120      	bne.n	8006f76 <HAL_RTC_SetTime+0x110>
  {
    /* Set the RTC_TR register */
    hrtc->Instance->TR = (uint32_t)(tmpreg & RTC_TR_RESERVED_MASK);
 8006f34:	68fb      	ldr	r3, [r7, #12]
 8006f36:	681a      	ldr	r2, [r3, #0]
 8006f38:	697b      	ldr	r3, [r7, #20]
 8006f3a:	f003 337f 	and.w	r3, r3, #2139062143	@ 0x7f7f7f7f
 8006f3e:	f023 43fe 	bic.w	r3, r3, #2130706432	@ 0x7f000000
 8006f42:	6013      	str	r3, [r2, #0]

    /* Clear the bits to be configured (Deprecated. Use HAL_RTC_DST_xxx functions instead) */
    hrtc->Instance->CR &= (uint32_t)~RTC_CR_BKP;
 8006f44:	68fb      	ldr	r3, [r7, #12]
 8006f46:	681b      	ldr	r3, [r3, #0]
 8006f48:	689a      	ldr	r2, [r3, #8]
 8006f4a:	68fb      	ldr	r3, [r7, #12]
 8006f4c:	681b      	ldr	r3, [r3, #0]
 8006f4e:	f422 2280 	bic.w	r2, r2, #262144	@ 0x40000
 8006f52:	609a      	str	r2, [r3, #8]

    /* Configure the RTC_CR register (Deprecated. Use HAL_RTC_DST_xxx functions instead) */
    hrtc->Instance->CR |= (uint32_t)(sTime->DayLightSaving | sTime->StoreOperation);
 8006f54:	68fb      	ldr	r3, [r7, #12]
 8006f56:	681b      	ldr	r3, [r3, #0]
 8006f58:	6899      	ldr	r1, [r3, #8]
 8006f5a:	68bb      	ldr	r3, [r7, #8]
 8006f5c:	68da      	ldr	r2, [r3, #12]
 8006f5e:	68bb      	ldr	r3, [r7, #8]
 8006f60:	691b      	ldr	r3, [r3, #16]
 8006f62:	431a      	orrs	r2, r3
 8006f64:	68fb      	ldr	r3, [r7, #12]
 8006f66:	681b      	ldr	r3, [r3, #0]
 8006f68:	430a      	orrs	r2, r1
 8006f6a:	609a      	str	r2, [r3, #8]

    /* Exit Initialization mode */
    status = RTC_ExitInitMode(hrtc);
 8006f6c:	68f8      	ldr	r0, [r7, #12]
 8006f6e:	f000 f9a2 	bl	80072b6 <RTC_ExitInitMode>
 8006f72:	4603      	mov	r3, r0
 8006f74:	74fb      	strb	r3, [r7, #19]
  }

  if (status == HAL_OK)
 8006f76:	7cfb      	ldrb	r3, [r7, #19]
 8006f78:	2b00      	cmp	r3, #0
 8006f7a:	d102      	bne.n	8006f82 <HAL_RTC_SetTime+0x11c>
  {
    hrtc->State = HAL_RTC_STATE_READY;
 8006f7c:	68fb      	ldr	r3, [r7, #12]
 8006f7e:	2201      	movs	r2, #1
 8006f80:	775a      	strb	r2, [r3, #29]
  }

  /* Enable the write protection for RTC registers */
  __HAL_RTC_WRITEPROTECTION_ENABLE(hrtc);
 8006f82:	68fb      	ldr	r3, [r7, #12]
 8006f84:	681b      	ldr	r3, [r3, #0]
 8006f86:	22ff      	movs	r2, #255	@ 0xff
 8006f88:	625a      	str	r2, [r3, #36]	@ 0x24

  /* Process Unlocked */
  __HAL_UNLOCK(hrtc);
 8006f8a:	68fb      	ldr	r3, [r7, #12]
 8006f8c:	2200      	movs	r2, #0
 8006f8e:	771a      	strb	r2, [r3, #28]

  return status;
 8006f90:	7cfb      	ldrb	r3, [r7, #19]
}
 8006f92:	4618      	mov	r0, r3
 8006f94:	371c      	adds	r7, #28
 8006f96:	46bd      	mov	sp, r7
 8006f98:	bd90      	pop	{r4, r7, pc}

08006f9a <HAL_RTC_GetTime>:
  *        until current date is read to ensure consistency between the time and
  *        date values.
  * @retval HAL status
  */
HAL_StatusTypeDef HAL_RTC_GetTime(RTC_HandleTypeDef *hrtc, RTC_TimeTypeDef *sTime, uint32_t Format)
{
 8006f9a:	b580      	push	{r7, lr}
 8006f9c:	b086      	sub	sp, #24
 8006f9e:	af00      	add	r7, sp, #0
 8006fa0:	60f8      	str	r0, [r7, #12]
 8006fa2:	60b9      	str	r1, [r7, #8]
 8006fa4:	607a      	str	r2, [r7, #4]
  uint32_t tmpreg = 0U;
 8006fa6:	2300      	movs	r3, #0
 8006fa8:	617b      	str	r3, [r7, #20]

  /* Check the parameters */
  assert_param(IS_RTC_FORMAT(Format));

  /* Get subseconds value from the corresponding register */
  sTime->SubSeconds = (uint32_t)(hrtc->Instance->SSR);
 8006faa:	68fb      	ldr	r3, [r7, #12]
 8006fac:	681b      	ldr	r3, [r3, #0]
 8006fae:	6a9a      	ldr	r2, [r3, #40]	@ 0x28
 8006fb0:	68bb      	ldr	r3, [r7, #8]
 8006fb2:	605a      	str	r2, [r3, #4]

  /* Get SecondFraction structure field from the corresponding register field*/
  sTime->SecondFraction = (uint32_t)(hrtc->Instance->PRER & RTC_PRER_PREDIV_S);
 8006fb4:	68fb      	ldr	r3, [r7, #12]
 8006fb6:	681b      	ldr	r3, [r3, #0]
 8006fb8:	691b      	ldr	r3, [r3, #16]
 8006fba:	f3c3 020e 	ubfx	r2, r3, #0, #15
 8006fbe:	68bb      	ldr	r3, [r7, #8]
 8006fc0:	609a      	str	r2, [r3, #8]

  /* Get the TR register */
  tmpreg = (uint32_t)(hrtc->Instance->TR & RTC_TR_RESERVED_MASK);
 8006fc2:	68fb      	ldr	r3, [r7, #12]
 8006fc4:	681b      	ldr	r3, [r3, #0]
 8006fc6:	681b      	ldr	r3, [r3, #0]
 8006fc8:	f003 337f 	and.w	r3, r3, #2139062143	@ 0x7f7f7f7f
 8006fcc:	f023 43fe 	bic.w	r3, r3, #2130706432	@ 0x7f000000
 8006fd0:	617b      	str	r3, [r7, #20]

  /* Fill the structure fields with the read parameters */
  sTime->Hours      = (uint8_t)((tmpreg & (RTC_TR_HT  | RTC_TR_HU))  >> RTC_TR_HU_Pos);
 8006fd2:	697b      	ldr	r3, [r7, #20]
 8006fd4:	0c1b      	lsrs	r3, r3, #16
 8006fd6:	b2db      	uxtb	r3, r3
 8006fd8:	f003 033f 	and.w	r3, r3, #63	@ 0x3f
 8006fdc:	b2da      	uxtb	r2, r3
 8006fde:	68bb      	ldr	r3, [r7, #8]
 8006fe0:	701a      	strb	r2, [r3, #0]
  sTime->Minutes    = (uint8_t)((tmpreg & (RTC_TR_MNT | RTC_TR_MNU)) >> RTC_TR_MNU_Pos);
 8006fe2:	697b      	ldr	r3, [r7, #20]
 8006fe4:	0a1b      	lsrs	r3, r3, #8
 8006fe6:	b2db      	uxtb	r3, r3
 8006fe8:	f003 037f 	and.w	r3, r3, #127	@ 0x7f
 8006fec:	b2da      	uxtb	r2, r3
 8006fee:	68bb      	ldr	r3, [r7, #8]
 8006ff0:	705a      	strb	r2, [r3, #1]
  sTime->Seconds    = (uint8_t)( tmpreg & (RTC_TR_ST  | RTC_TR_SU));
 8006ff2:	697b      	ldr	r3, [r7, #20]
 8006ff4:	b2db      	uxtb	r3, r3
 8006ff6:	f003 037f 	and.w	r3, r3, #127	@ 0x7f
 8006ffa:	b2da      	uxtb	r2, r3
 8006ffc:	68bb      	ldr	r3, [r7, #8]
 8006ffe:	709a      	strb	r2, [r3, #2]
  sTime->TimeFormat = (uint8_t)((tmpreg & (RTC_TR_PM))               >> RTC_TR_PM_Pos);
 8007000:	697b      	ldr	r3, [r7, #20]
 8007002:	0d9b      	lsrs	r3, r3, #22
 8007004:	b2db      	uxtb	r3, r3
 8007006:	f003 0301 	and.w	r3, r3, #1
 800700a:	b2da      	uxtb	r2, r3
 800700c:	68bb      	ldr	r3, [r7, #8]
 800700e:	70da      	strb	r2, [r3, #3]

  /* Check the input parameters format */
  if (Format == RTC_FORMAT_BIN)
 8007010:	687b      	ldr	r3, [r7, #4]
 8007012:	2b00      	cmp	r3, #0
 8007014:	d11a      	bne.n	800704c <HAL_RTC_GetTime+0xb2>
  {
    /* Convert the time structure parameters to Binary format */
    sTime->Hours = (uint8_t)RTC_Bcd2ToByte(sTime->Hours);
 8007016:	68bb      	ldr	r3, [r7, #8]
 8007018:	781b      	ldrb	r3, [r3, #0]
 800701a:	4618      	mov	r0, r3
 800701c:	f000 f98e 	bl	800733c <RTC_Bcd2ToByte>
 8007020:	4603      	mov	r3, r0
 8007022:	461a      	mov	r2, r3
 8007024:	68bb      	ldr	r3, [r7, #8]
 8007026:	701a      	strb	r2, [r3, #0]
    sTime->Minutes = (uint8_t)RTC_Bcd2ToByte(sTime->Minutes);
 8007028:	68bb      	ldr	r3, [r7, #8]
 800702a:	785b      	ldrb	r3, [r3, #1]
 800702c:	4618      	mov	r0, r3
 800702e:	f000 f985 	bl	800733c <RTC_Bcd2ToByte>
 8007032:	4603      	mov	r3, r0
 8007034:	461a      	mov	r2, r3
 8007036:	68bb      	ldr	r3, [r7, #8]
 8007038:	705a      	strb	r2, [r3, #1]
    sTime->Seconds = (uint8_t)RTC_Bcd2ToByte(sTime->Seconds);
 800703a:	68bb      	ldr	r3, [r7, #8]
 800703c:	789b      	ldrb	r3, [r3, #2]
 800703e:	4618      	mov	r0, r3
 8007040:	f000 f97c 	bl	800733c <RTC_Bcd2ToByte>
 8007044:	4603      	mov	r3, r0
 8007046:	461a      	mov	r2, r3
 8007048:	68bb      	ldr	r3, [r7, #8]
 800704a:	709a      	strb	r2, [r3, #2]
  }

  return HAL_OK;
 800704c:	2300      	movs	r3, #0
}
 800704e:	4618      	mov	r0, r3
 8007050:	3718      	adds	r7, #24
 8007052:	46bd      	mov	sp, r7
 8007054:	bd80      	pop	{r7, pc}

08007056 <HAL_RTC_SetDate>:
  *            @arg RTC_FORMAT_BIN: Binary data format
  *            @arg RTC_FORMAT_BCD: BCD data format
  * @retval HAL status
  */
HAL_StatusTypeDef HAL_RTC_SetDate(RTC_HandleTypeDef *hrtc, RTC_DateTypeDef *sDate, uint32_t Format)
{
 8007056:	b590      	push	{r4, r7, lr}
 8007058:	b087      	sub	sp, #28
 800705a:	af00      	add	r7, sp, #0
 800705c:	60f8      	str	r0, [r7, #12]
 800705e:	60b9      	str	r1, [r7, #8]
 8007060:	607a      	str	r2, [r7, #4]
  uint32_t datetmpreg = 0U;
 8007062:	2300      	movs	r3, #0
 8007064:	617b      	str	r3, [r7, #20]

  /* Check the parameters */
  assert_param(IS_RTC_FORMAT(Format));

  /* Process Locked */
  __HAL_LOCK(hrtc);
 8007066:	68fb      	ldr	r3, [r7, #12]
 8007068:	7f1b      	ldrb	r3, [r3, #28]
 800706a:	2b01      	cmp	r3, #1
 800706c:	d101      	bne.n	8007072 <HAL_RTC_SetDate+0x1c>
 800706e:	2302      	movs	r3, #2
 8007070:	e071      	b.n	8007156 <HAL_RTC_SetDate+0x100>
 8007072:	68fb      	ldr	r3, [r7, #12]
 8007074:	2201      	movs	r2, #1
 8007076:	771a      	strb	r2, [r3, #28]

  hrtc->State = HAL_RTC_STATE_BUSY;
 8007078:	68fb      	ldr	r3, [r7, #12]
 800707a:	2202      	movs	r2, #2
 800707c:	775a      	strb	r2, [r3, #29]

  if ((Format == RTC_FORMAT_BIN) && ((sDate->Month & 0x10U) == 0x10U))
 800707e:	687b      	ldr	r3, [r7, #4]
 8007080:	2b00      	cmp	r3, #0
 8007082:	d10e      	bne.n	80070a2 <HAL_RTC_SetDate+0x4c>
 8007084:	68bb      	ldr	r3, [r7, #8]
 8007086:	785b      	ldrb	r3, [r3, #1]
 8007088:	f003 0310 	and.w	r3, r3, #16
 800708c:	2b00      	cmp	r3, #0
 800708e:	d008      	beq.n	80070a2 <HAL_RTC_SetDate+0x4c>
  {
    sDate->Month = (uint8_t)((sDate->Month & (uint8_t)~(0x10U)) + (uint8_t)0x0AU);
 8007090:	68bb      	ldr	r3, [r7, #8]
 8007092:	785b      	ldrb	r3, [r3, #1]
 8007094:	f023 0310 	bic.w	r3, r3, #16
 8007098:	b2db      	uxtb	r3, r3
 800709a:	330a      	adds	r3, #10
 800709c:	b2da      	uxtb	r2, r3
 800709e:	68bb      	ldr	r3, [r7, #8]
 80070a0:	705a      	strb	r2, [r3, #1]
  }

  assert_param(IS_RTC_WEEKDAY(sDate->WeekDay));

  if (Format == RTC_FORMAT_BIN)
 80070a2:	687b      	ldr	r3, [r7, #4]
 80070a4:	2b00      	cmp	r3, #0
 80070a6:	d11c      	bne.n	80070e2 <HAL_RTC_SetDate+0x8c>
  {
    assert_param(IS_RTC_YEAR(sDate->Year));
    assert_param(IS_RTC_MONTH(sDate->Month));
    assert_param(IS_RTC_DATE(sDate->Date));

    datetmpreg = (((uint32_t)RTC_ByteToBcd2(sDate->Year)  << RTC_DR_YU_Pos) | \
 80070a8:	68bb      	ldr	r3, [r7, #8]
 80070aa:	78db      	ldrb	r3, [r3, #3]
 80070ac:	4618      	mov	r0, r3
 80070ae:	f000 f927 	bl	8007300 <RTC_ByteToBcd2>
 80070b2:	4603      	mov	r3, r0
 80070b4:	041c      	lsls	r4, r3, #16
                  ((uint32_t)RTC_ByteToBcd2(sDate->Month) << RTC_DR_MU_Pos) | \
 80070b6:	68bb      	ldr	r3, [r7, #8]
 80070b8:	785b      	ldrb	r3, [r3, #1]
 80070ba:	4618      	mov	r0, r3
 80070bc:	f000 f920 	bl	8007300 <RTC_ByteToBcd2>
 80070c0:	4603      	mov	r3, r0
 80070c2:	021b      	lsls	r3, r3, #8
    datetmpreg = (((uint32_t)RTC_ByteToBcd2(sDate->Year)  << RTC_DR_YU_Pos) | \
 80070c4:	431c      	orrs	r4, r3
                  ((uint32_t)RTC_ByteToBcd2(sDate->Date))                   | \
 80070c6:	68bb      	ldr	r3, [r7, #8]
 80070c8:	789b      	ldrb	r3, [r3, #2]
 80070ca:	4618      	mov	r0, r3
 80070cc:	f000 f918 	bl	8007300 <RTC_ByteToBcd2>
 80070d0:	4603      	mov	r3, r0
                  ((uint32_t)RTC_ByteToBcd2(sDate->Month) << RTC_DR_MU_Pos) | \
 80070d2:	ea44 0203 	orr.w	r2, r4, r3
                  ((uint32_t)sDate->WeekDay               << RTC_DR_WDU_Pos));
 80070d6:	68bb      	ldr	r3, [r7, #8]
 80070d8:	781b      	ldrb	r3, [r3, #0]
 80070da:	035b      	lsls	r3, r3, #13
    datetmpreg = (((uint32_t)RTC_ByteToBcd2(sDate->Year)  << RTC_DR_YU_Pos) | \
 80070dc:	4313      	orrs	r3, r2
 80070de:	617b      	str	r3, [r7, #20]
 80070e0:	e00e      	b.n	8007100 <HAL_RTC_SetDate+0xaa>
  {
    assert_param(IS_RTC_YEAR(RTC_Bcd2ToByte(sDate->Year)));
    assert_param(IS_RTC_MONTH(RTC_Bcd2ToByte(sDate->Month)));
    assert_param(IS_RTC_DATE(RTC_Bcd2ToByte(sDate->Date)));

    datetmpreg = ((((uint32_t)sDate->Year)    << RTC_DR_YU_Pos) | \
 80070e2:	68bb      	ldr	r3, [r7, #8]
 80070e4:	78db      	ldrb	r3, [r3, #3]
 80070e6:	041a      	lsls	r2, r3, #16
                  (((uint32_t)sDate->Month)   << RTC_DR_MU_Pos) | \
 80070e8:	68bb      	ldr	r3, [r7, #8]
 80070ea:	785b      	ldrb	r3, [r3, #1]
 80070ec:	021b      	lsls	r3, r3, #8
    datetmpreg = ((((uint32_t)sDate->Year)    << RTC_DR_YU_Pos) | \
 80070ee:	4313      	orrs	r3, r2
                  ((uint32_t) sDate->Date)                      | \
 80070f0:	68ba      	ldr	r2, [r7, #8]
 80070f2:	7892      	ldrb	r2, [r2, #2]
                  (((uint32_t)sDate->Month)   << RTC_DR_MU_Pos) | \
 80070f4:	431a      	orrs	r2, r3
                  (((uint32_t)sDate->WeekDay) << RTC_DR_WDU_Pos));
 80070f6:	68bb      	ldr	r3, [r7, #8]
 80070f8:	781b      	ldrb	r3, [r3, #0]
 80070fa:	035b      	lsls	r3, r3, #13
    datetmpreg = ((((uint32_t)sDate->Year)    << RTC_DR_YU_Pos) | \
 80070fc:	4313      	orrs	r3, r2
 80070fe:	617b      	str	r3, [r7, #20]
  }

  /* Disable the write protection for RTC registers */
  __HAL_RTC_WRITEPROTECTION_DISABLE(hrtc);
 8007100:	68fb      	ldr	r3, [r7, #12]
 8007102:	681b      	ldr	r3, [r3, #0]
 8007104:	22ca      	movs	r2, #202	@ 0xca
 8007106:	625a      	str	r2, [r3, #36]	@ 0x24
 8007108:	68fb      	ldr	r3, [r7, #12]
 800710a:	681b      	ldr	r3, [r3, #0]
 800710c:	2253      	movs	r2, #83	@ 0x53
 800710e:	625a      	str	r2, [r3, #36]	@ 0x24

  /* Enter Initialization mode */
  status = RTC_EnterInitMode(hrtc);
 8007110:	68f8      	ldr	r0, [r7, #12]
 8007112:	f000 f899 	bl	8007248 <RTC_EnterInitMode>
 8007116:	4603      	mov	r3, r0
 8007118:	74fb      	strb	r3, [r7, #19]

  if (status == HAL_OK)
 800711a:	7cfb      	ldrb	r3, [r7, #19]
 800711c:	2b00      	cmp	r3, #0
 800711e:	d10c      	bne.n	800713a <HAL_RTC_SetDate+0xe4>
  {
    /* Set the RTC_DR register */
    hrtc->Instance->DR = (uint32_t)(datetmpreg & RTC_DR_RESERVED_MASK);
 8007120:	68fb      	ldr	r3, [r7, #12]
 8007122:	681a      	ldr	r2, [r3, #0]
 8007124:	697b      	ldr	r3, [r7, #20]
 8007126:	f023 437f 	bic.w	r3, r3, #4278190080	@ 0xff000000
 800712a:	f023 03c0 	bic.w	r3, r3, #192	@ 0xc0
 800712e:	6053      	str	r3, [r2, #4]

    /* Exit Initialization mode */
    status = RTC_ExitInitMode(hrtc);
 8007130:	68f8      	ldr	r0, [r7, #12]
 8007132:	f000 f8c0 	bl	80072b6 <RTC_ExitInitMode>
 8007136:	4603      	mov	r3, r0
 8007138:	74fb      	strb	r3, [r7, #19]
  }

  if (status == HAL_OK)
 800713a:	7cfb      	ldrb	r3, [r7, #19]
 800713c:	2b00      	cmp	r3, #0
 800713e:	d102      	bne.n	8007146 <HAL_RTC_SetDate+0xf0>
  {
    hrtc->State = HAL_RTC_STATE_READY;
 8007140:	68fb      	ldr	r3, [r7, #12]
 8007142:	2201      	movs	r2, #1
 8007144:	775a      	strb	r2, [r3, #29]
  }

  /* Enable the write protection for RTC registers */
  __HAL_RTC_WRITEPROTECTION_ENABLE(hrtc);
 8007146:	68fb      	ldr	r3, [r7, #12]
 8007148:	681b      	ldr	r3, [r3, #0]
 800714a:	22ff      	movs	r2, #255	@ 0xff
 800714c:	625a      	str	r2, [r3, #36]	@ 0x24

  /* Process Unlocked */
  __HAL_UNLOCK(hrtc);
 800714e:	68fb      	ldr	r3, [r7, #12]
 8007150:	2200      	movs	r2, #0
 8007152:	771a      	strb	r2, [r3, #28]

  return status;
 8007154:	7cfb      	ldrb	r3, [r7, #19]
}
 8007156:	4618      	mov	r0, r3
 8007158:	371c      	adds	r7, #28
 800715a:	46bd      	mov	sp, r7
 800715c:	bd90      	pop	{r4, r7, pc}

0800715e <HAL_RTC_GetDate>:
  *        until current date is read to ensure consistency between the time and
  *        date values.
  * @retval HAL status
  */
HAL_StatusTypeDef HAL_RTC_GetDate(RTC_HandleTypeDef *hrtc, RTC_DateTypeDef *sDate, uint32_t Format)
{
 800715e:	b580      	push	{r7, lr}
 8007160:	b086      	sub	sp, #24
 8007162:	af00      	add	r7, sp, #0
 8007164:	60f8      	str	r0, [r7, #12]
 8007166:	60b9      	str	r1, [r7, #8]
 8007168:	607a      	str	r2, [r7, #4]
  uint32_t datetmpreg = 0U;
 800716a:	2300      	movs	r3, #0
 800716c:	617b      	str	r3, [r7, #20]

  /* Check the parameters */
  assert_param(IS_RTC_FORMAT(Format));

  /* Get the DR register */
  datetmpreg = (uint32_t)(hrtc->Instance->DR & RTC_DR_RESERVED_MASK);
 800716e:	68fb      	ldr	r3, [r7, #12]
 8007170:	681b      	ldr	r3, [r3, #0]
 8007172:	685b      	ldr	r3, [r3, #4]
 8007174:	f023 437f 	bic.w	r3, r3, #4278190080	@ 0xff000000
 8007178:	f023 03c0 	bic.w	r3, r3, #192	@ 0xc0
 800717c:	617b      	str	r3, [r7, #20]

  /* Fill the structure fields with the read parameters */
  sDate->Year    = (uint8_t)((datetmpreg & (RTC_DR_YT | RTC_DR_YU)) >> RTC_DR_YU_Pos);
 800717e:	697b      	ldr	r3, [r7, #20]
 8007180:	0c1b      	lsrs	r3, r3, #16
 8007182:	b2da      	uxtb	r2, r3
 8007184:	68bb      	ldr	r3, [r7, #8]
 8007186:	70da      	strb	r2, [r3, #3]
  sDate->Month   = (uint8_t)((datetmpreg & (RTC_DR_MT | RTC_DR_MU)) >> RTC_DR_MU_Pos);
 8007188:	697b      	ldr	r3, [r7, #20]
 800718a:	0a1b      	lsrs	r3, r3, #8
 800718c:	b2db      	uxtb	r3, r3
 800718e:	f003 031f 	and.w	r3, r3, #31
 8007192:	b2da      	uxtb	r2, r3
 8007194:	68bb      	ldr	r3, [r7, #8]
 8007196:	705a      	strb	r2, [r3, #1]
  sDate->Date    = (uint8_t) (datetmpreg & (RTC_DR_DT | RTC_DR_DU));
 8007198:	697b      	ldr	r3, [r7, #20]
 800719a:	b2db      	uxtb	r3, r3
 800719c:	f003 033f 	and.w	r3, r3, #63	@ 0x3f
 80071a0:	b2da      	uxtb	r2, r3
 80071a2:	68bb      	ldr	r3, [r7, #8]
 80071a4:	709a      	strb	r2, [r3, #2]
  sDate->WeekDay = (uint8_t)((datetmpreg & (RTC_DR_WDU))            >> RTC_DR_WDU_Pos);
 80071a6:	697b      	ldr	r3, [r7, #20]
 80071a8:	0b5b      	lsrs	r3, r3, #13
 80071aa:	b2db      	uxtb	r3, r3
 80071ac:	f003 0307 	and.w	r3, r3, #7
 80071b0:	b2da      	uxtb	r2, r3
 80071b2:	68bb      	ldr	r3, [r7, #8]
 80071b4:	701a      	strb	r2, [r3, #0]

  /* Check the input parameters format */
  if (Format == RTC_FORMAT_BIN)
 80071b6:	687b      	ldr	r3, [r7, #4]
 80071b8:	2b00      	cmp	r3, #0
 80071ba:	d11a      	bne.n	80071f2 <HAL_RTC_GetDate+0x94>
  {
    /* Convert the date structure parameters to Binary format */
    sDate->Year  = (uint8_t)RTC_Bcd2ToByte(sDate->Year);
 80071bc:	68bb      	ldr	r3, [r7, #8]
 80071be:	78db      	ldrb	r3, [r3, #3]
 80071c0:	4618      	mov	r0, r3
 80071c2:	f000 f8bb 	bl	800733c <RTC_Bcd2ToByte>
 80071c6:	4603      	mov	r3, r0
 80071c8:	461a      	mov	r2, r3
 80071ca:	68bb      	ldr	r3, [r7, #8]
 80071cc:	70da      	strb	r2, [r3, #3]
    sDate->Month = (uint8_t)RTC_Bcd2ToByte(sDate->Month);
 80071ce:	68bb      	ldr	r3, [r7, #8]
 80071d0:	785b      	ldrb	r3, [r3, #1]
 80071d2:	4618      	mov	r0, r3
 80071d4:	f000 f8b2 	bl	800733c <RTC_Bcd2ToByte>
 80071d8:	4603      	mov	r3, r0
 80071da:	461a      	mov	r2, r3
 80071dc:	68bb      	ldr	r3, [r7, #8]
 80071de:	705a      	strb	r2, [r3, #1]
    sDate->Date  = (uint8_t)RTC_Bcd2ToByte(sDate->Date);
 80071e0:	68bb      	ldr	r3, [r7, #8]
 80071e2:	789b      	ldrb	r3, [r3, #2]
 80071e4:	4618      	mov	r0, r3
 80071e6:	f000 f8a9 	bl	800733c <RTC_Bcd2ToByte>
 80071ea:	4603      	mov	r3, r0
 80071ec:	461a      	mov	r2, r3
 80071ee:	68bb      	ldr	r3, [r7, #8]
 80071f0:	709a      	strb	r2, [r3, #2]
  }
  return HAL_OK;
 80071f2:	2300      	movs	r3, #0
}
 80071f4:	4618      	mov	r0, r3
 80071f6:	3718      	adds	r7, #24
 80071f8:	46bd      	mov	sp, r7
 80071fa:	bd80      	pop	{r7, pc}

080071fc <HAL_RTC_WaitForSynchro>:
  * @param  hrtc pointer to a RTC_HandleTypeDef structure that contains
  *                the configuration information for RTC.
  * @retval HAL status
  */
HAL_StatusTypeDef HAL_RTC_WaitForSynchro(RTC_HandleTypeDef *hrtc)
{
 80071fc:	b580      	push	{r7, lr}
 80071fe:	b084      	sub	sp, #16
 8007200:	af00      	add	r7, sp, #0
 8007202:	6078      	str	r0, [r7, #4]
  uint32_t tickstart = 0U;
 8007204:	2300      	movs	r3, #0
 8007206:	60fb      	str	r3, [r7, #12]

  /* Clear RSF flag, keep reserved bits at reset values (setting other flags has no effect) */
  hrtc->Instance->ISR = ((uint32_t)(RTC_RSF_MASK & RTC_ISR_RESERVED_MASK));
 8007208:	687b      	ldr	r3, [r7, #4]
 800720a:	681b      	ldr	r3, [r3, #0]
 800720c:	4a0d      	ldr	r2, [pc, #52]	@ (8007244 <HAL_RTC_WaitForSynchro+0x48>)
 800720e:	60da      	str	r2, [r3, #12]

  /* Get tick */
  tickstart = HAL_GetTick();
 8007210:	f7fb fff8 	bl	8003204 <HAL_GetTick>
 8007214:	60f8      	str	r0, [r7, #12]

  /* Wait the registers to be synchronised */
  while ((hrtc->Instance->ISR & RTC_ISR_RSF) == 0U)
 8007216:	e009      	b.n	800722c <HAL_RTC_WaitForSynchro+0x30>
  {
    if ((HAL_GetTick() - tickstart) > RTC_TIMEOUT_VALUE)
 8007218:	f7fb fff4 	bl	8003204 <HAL_GetTick>
 800721c:	4602      	mov	r2, r0
 800721e:	68fb      	ldr	r3, [r7, #12]
 8007220:	1ad3      	subs	r3, r2, r3
 8007222:	f5b3 7f7a 	cmp.w	r3, #1000	@ 0x3e8
 8007226:	d901      	bls.n	800722c <HAL_RTC_WaitForSynchro+0x30>
    {
      return HAL_TIMEOUT;
 8007228:	2303      	movs	r3, #3
 800722a:	e007      	b.n	800723c <HAL_RTC_WaitForSynchro+0x40>
  while ((hrtc->Instance->ISR & RTC_ISR_RSF) == 0U)
 800722c:	687b      	ldr	r3, [r7, #4]
 800722e:	681b      	ldr	r3, [r3, #0]
 8007230:	68db      	ldr	r3, [r3, #12]
 8007232:	f003 0320 	and.w	r3, r3, #32
 8007236:	2b00      	cmp	r3, #0
 8007238:	d0ee      	beq.n	8007218 <HAL_RTC_WaitForSynchro+0x1c>
    }
  }

  return HAL_OK;
 800723a:	2300      	movs	r3, #0
}
 800723c:	4618      	mov	r0, r3
 800723e:	3710      	adds	r7, #16
 8007240:	46bd      	mov	sp, r7
 8007242:	bd80      	pop	{r7, pc}
 8007244:	00017f5f 	.word	0x00017f5f

08007248 <RTC_EnterInitMode>:
  * @param  hrtc pointer to a RTC_HandleTypeDef structure that contains
  *                the configuration information for RTC.
  * @retval HAL status
  */
HAL_StatusTypeDef RTC_EnterInitMode(RTC_HandleTypeDef *hrtc)
{
 8007248:	b580      	push	{r7, lr}
 800724a:	b084      	sub	sp, #16
 800724c:	af00      	add	r7, sp, #0
 800724e:	6078      	str	r0, [r7, #4]
  uint32_t tickstart = 0U;
 8007250:	2300      	movs	r3, #0
 8007252:	60bb      	str	r3, [r7, #8]
  HAL_StatusTypeDef status = HAL_OK;
 8007254:	2300      	movs	r3, #0
 8007256:	73fb      	strb	r3, [r7, #15]

  /* Check that Initialization mode is not already set */
  if (READ_BIT(hrtc->Instance->ISR, RTC_ISR_INITF) == 0U)
 8007258:	687b      	ldr	r3, [r7, #4]
 800725a:	681b      	ldr	r3, [r3, #0]
 800725c:	68db      	ldr	r3, [r3, #12]
 800725e:	f003 0340 	and.w	r3, r3, #64	@ 0x40
 8007262:	2b00      	cmp	r3, #0
 8007264:	d122      	bne.n	80072ac <RTC_EnterInitMode+0x64>
  {
    /* Set INIT bit to enter Initialization mode */
    SET_BIT(hrtc->Instance->ISR, RTC_ISR_INIT);
 8007266:	687b      	ldr	r3, [r7, #4]
 8007268:	681b      	ldr	r3, [r3, #0]
 800726a:	68da      	ldr	r2, [r3, #12]
 800726c:	687b      	ldr	r3, [r7, #4]
 800726e:	681b      	ldr	r3, [r3, #0]
 8007270:	f042 0280 	orr.w	r2, r2, #128	@ 0x80
 8007274:	60da      	str	r2, [r3, #12]

    /* Get tick */
    tickstart = HAL_GetTick();
 8007276:	f7fb ffc5 	bl	8003204 <HAL_GetTick>
 800727a:	60b8      	str	r0, [r7, #8]

    /* Wait till RTC is in INIT state and if timeout is reached exit */
    while ((READ_BIT(hrtc->Instance->ISR, RTC_ISR_INITF) == 0U) && (status != HAL_ERROR))
 800727c:	e00c      	b.n	8007298 <RTC_EnterInitMode+0x50>
    {
      if ((HAL_GetTick() - tickstart) > RTC_TIMEOUT_VALUE)
 800727e:	f7fb ffc1 	bl	8003204 <HAL_GetTick>
 8007282:	4602      	mov	r2, r0
 8007284:	68bb      	ldr	r3, [r7, #8]
 8007286:	1ad3      	subs	r3, r2, r3
 8007288:	f5b3 7f7a 	cmp.w	r3, #1000	@ 0x3e8
 800728c:	d904      	bls.n	8007298 <RTC_EnterInitMode+0x50>
      {
        /* Set RTC state */
        hrtc->State = HAL_RTC_STATE_ERROR;
 800728e:	687b      	ldr	r3, [r7, #4]
 8007290:	2204      	movs	r2, #4
 8007292:	775a      	strb	r2, [r3, #29]
        status = HAL_ERROR;
 8007294:	2301      	movs	r3, #1
 8007296:	73fb      	strb	r3, [r7, #15]
    while ((READ_BIT(hrtc->Instance->ISR, RTC_ISR_INITF) == 0U) && (status != HAL_ERROR))
 8007298:	687b      	ldr	r3, [r7, #4]
 800729a:	681b      	ldr	r3, [r3, #0]
 800729c:	68db      	ldr	r3, [r3, #12]
 800729e:	f003 0340 	and.w	r3, r3, #64	@ 0x40
 80072a2:	2b00      	cmp	r3, #0
 80072a4:	d102      	bne.n	80072ac <RTC_EnterInitMode+0x64>
 80072a6:	7bfb      	ldrb	r3, [r7, #15]
 80072a8:	2b01      	cmp	r3, #1
 80072aa:	d1e8      	bne.n	800727e <RTC_EnterInitMode+0x36>
      }
    }
  }

  return status;
 80072ac:	7bfb      	ldrb	r3, [r7, #15]
}
 80072ae:	4618      	mov	r0, r3
 80072b0:	3710      	adds	r7, #16
 80072b2:	46bd      	mov	sp, r7
 80072b4:	bd80      	pop	{r7, pc}

080072b6 <RTC_ExitInitMode>:
  * @param  hrtc pointer to a RTC_HandleTypeDef structure that contains
  *                the configuration information for RTC.
  * @retval HAL status
  */
HAL_StatusTypeDef RTC_ExitInitMode(RTC_HandleTypeDef *hrtc)
{
 80072b6:	b580      	push	{r7, lr}
 80072b8:	b084      	sub	sp, #16
 80072ba:	af00      	add	r7, sp, #0
 80072bc:	6078      	str	r0, [r7, #4]
  HAL_StatusTypeDef status = HAL_OK;
 80072be:	2300      	movs	r3, #0
 80072c0:	73fb      	strb	r3, [r7, #15]

  /* Clear INIT bit to exit Initialization mode */
  CLEAR_BIT(hrtc->Instance->ISR, RTC_ISR_INIT);
 80072c2:	687b      	ldr	r3, [r7, #4]
 80072c4:	681b      	ldr	r3, [r3, #0]
 80072c6:	68da      	ldr	r2, [r3, #12]
 80072c8:	687b      	ldr	r3, [r7, #4]
 80072ca:	681b      	ldr	r3, [r3, #0]
 80072cc:	f022 0280 	bic.w	r2, r2, #128	@ 0x80
 80072d0:	60da      	str	r2, [r3, #12]

  /* If CR_BYPSHAD bit = 0, wait for synchro */
  if (READ_BIT(hrtc->Instance->CR, RTC_CR_BYPSHAD) == 0U)
 80072d2:	687b      	ldr	r3, [r7, #4]
 80072d4:	681b      	ldr	r3, [r3, #0]
 80072d6:	689b      	ldr	r3, [r3, #8]
 80072d8:	f003 0320 	and.w	r3, r3, #32
 80072dc:	2b00      	cmp	r3, #0
 80072de:	d10a      	bne.n	80072f6 <RTC_ExitInitMode+0x40>
  {
    if (HAL_RTC_WaitForSynchro(hrtc) != HAL_OK)
 80072e0:	6878      	ldr	r0, [r7, #4]
 80072e2:	f7ff ff8b 	bl	80071fc <HAL_RTC_WaitForSynchro>
 80072e6:	4603      	mov	r3, r0
 80072e8:	2b00      	cmp	r3, #0
 80072ea:	d004      	beq.n	80072f6 <RTC_ExitInitMode+0x40>
    {
      /* Set RTC state */
      hrtc->State = HAL_RTC_STATE_ERROR;
 80072ec:	687b      	ldr	r3, [r7, #4]
 80072ee:	2204      	movs	r2, #4
 80072f0:	775a      	strb	r2, [r3, #29]
      status = HAL_ERROR;
 80072f2:	2301      	movs	r3, #1
 80072f4:	73fb      	strb	r3, [r7, #15]
    }
  }

  return status;
 80072f6:	7bfb      	ldrb	r3, [r7, #15]
}
 80072f8:	4618      	mov	r0, r3
 80072fa:	3710      	adds	r7, #16
 80072fc:	46bd      	mov	sp, r7
 80072fe:	bd80      	pop	{r7, pc}

08007300 <RTC_ByteToBcd2>:
  * @brief  Converts a 2-digit number from decimal to BCD format.
  * @param  number decimal-formatted number (from 0 to 99) to be converted
  * @retval Converted byte
  */
uint8_t RTC_ByteToBcd2(uint8_t number)
{
 8007300:	b480      	push	{r7}
 8007302:	b085      	sub	sp, #20
 8007304:	af00      	add	r7, sp, #0
 8007306:	4603      	mov	r3, r0
 8007308:	71fb      	strb	r3, [r7, #7]
  uint32_t bcdhigh = 0U;
 800730a:	2300      	movs	r3, #0
 800730c:	60fb      	str	r3, [r7, #12]

  while (number >= 10U)
 800730e:	e005      	b.n	800731c <RTC_ByteToBcd2+0x1c>
  {
    bcdhigh++;
 8007310:	68fb      	ldr	r3, [r7, #12]
 8007312:	3301      	adds	r3, #1
 8007314:	60fb      	str	r3, [r7, #12]
    number -= 10U;
 8007316:	79fb      	ldrb	r3, [r7, #7]
 8007318:	3b0a      	subs	r3, #10
 800731a:	71fb      	strb	r3, [r7, #7]
  while (number >= 10U)
 800731c:	79fb      	ldrb	r3, [r7, #7]
 800731e:	2b09      	cmp	r3, #9
 8007320:	d8f6      	bhi.n	8007310 <RTC_ByteToBcd2+0x10>
  }

  return ((uint8_t)(bcdhigh << 4U) | number);
 8007322:	68fb      	ldr	r3, [r7, #12]
 8007324:	b2db      	uxtb	r3, r3
 8007326:	011b      	lsls	r3, r3, #4
 8007328:	b2da      	uxtb	r2, r3
 800732a:	79fb      	ldrb	r3, [r7, #7]
 800732c:	4313      	orrs	r3, r2
 800732e:	b2db      	uxtb	r3, r3
}
 8007330:	4618      	mov	r0, r3
 8007332:	3714      	adds	r7, #20
 8007334:	46bd      	mov	sp, r7
 8007336:	f85d 7b04 	ldr.w	r7, [sp], #4
 800733a:	4770      	bx	lr

0800733c <RTC_Bcd2ToByte>:
  * @brief  Converts a 2-digit number from BCD to decimal format.
  * @param  number BCD-formatted number (from 00 to 99) to be converted
  * @retval Converted word
  */
uint8_t RTC_Bcd2ToByte(uint8_t number)
{
 800733c:	b480      	push	{r7}
 800733e:	b085      	sub	sp, #20
 8007340:	af00      	add	r7, sp, #0
 8007342:	4603      	mov	r3, r0
 8007344:	71fb      	strb	r3, [r7, #7]
  uint32_t tens = 0U;
 8007346:	2300      	movs	r3, #0
 8007348:	60fb      	str	r3, [r7, #12]
  tens = (((uint32_t)number & 0xF0U) >> 4U) * 10U;
 800734a:	79fb      	ldrb	r3, [r7, #7]
 800734c:	091b      	lsrs	r3, r3, #4
 800734e:	b2db      	uxtb	r3, r3
 8007350:	461a      	mov	r2, r3
 8007352:	4613      	mov	r3, r2
 8007354:	009b      	lsls	r3, r3, #2
 8007356:	4413      	add	r3, r2
 8007358:	005b      	lsls	r3, r3, #1
 800735a:	60fb      	str	r3, [r7, #12]
  return (uint8_t)(tens + ((uint32_t)number & 0x0FU));
 800735c:	68fb      	ldr	r3, [r7, #12]
 800735e:	b2da      	uxtb	r2, r3
 8007360:	79fb      	ldrb	r3, [r7, #7]
 8007362:	f003 030f 	and.w	r3, r3, #15
 8007366:	b2db      	uxtb	r3, r3
 8007368:	4413      	add	r3, r2
 800736a:	b2db      	uxtb	r3, r3
}
 800736c:	4618      	mov	r0, r3
 800736e:	3714      	adds	r7, #20
 8007370:	46bd      	mov	sp, r7
 8007372:	f85d 7b04 	ldr.w	r7, [sp], #4
 8007376:	4770      	bx	lr

08007378 <HAL_SPI_Init>:
  * @param  hspi pointer to a SPI_HandleTypeDef structure that contains
  *               the configuration information for SPI module.
  * @retval HAL status
  */
HAL_StatusTypeDef HAL_SPI_Init(SPI_HandleTypeDef *hspi)
{
 8007378:	b580      	push	{r7, lr}
 800737a:	b082      	sub	sp, #8
 800737c:	af00      	add	r7, sp, #0
 800737e:	6078      	str	r0, [r7, #4]
  /* Check the SPI handle allocation */
  if (hspi == NULL)
 8007380:	687b      	ldr	r3, [r7, #4]
 8007382:	2b00      	cmp	r3, #0
 8007384:	d101      	bne.n	800738a <HAL_SPI_Init+0x12>
  {
    return HAL_ERROR;
 8007386:	2301      	movs	r3, #1
 8007388:	e07b      	b.n	8007482 <HAL_SPI_Init+0x10a>
  assert_param(IS_SPI_DATASIZE(hspi->Init.DataSize));
  assert_param(IS_SPI_NSS(hspi->Init.NSS));
  assert_param(IS_SPI_BAUDRATE_PRESCALER(hspi->Init.BaudRatePrescaler));
  assert_param(IS_SPI_FIRST_BIT(hspi->Init.FirstBit));
  assert_param(IS_SPI_TIMODE(hspi->Init.TIMode));
  if (hspi->Init.TIMode == SPI_TIMODE_DISABLE)
 800738a:	687b      	ldr	r3, [r7, #4]
 800738c:	6a5b      	ldr	r3, [r3, #36]	@ 0x24
 800738e:	2b00      	cmp	r3, #0
 8007390:	d108      	bne.n	80073a4 <HAL_SPI_Init+0x2c>
  {
    assert_param(IS_SPI_CPOL(hspi->Init.CLKPolarity));
    assert_param(IS_SPI_CPHA(hspi->Init.CLKPhase));

    if (hspi->Init.Mode == SPI_MODE_MASTER)
 8007392:	687b      	ldr	r3, [r7, #4]
 8007394:	685b      	ldr	r3, [r3, #4]
 8007396:	f5b3 7f82 	cmp.w	r3, #260	@ 0x104
 800739a:	d009      	beq.n	80073b0 <HAL_SPI_Init+0x38>
      assert_param(IS_SPI_BAUDRATE_PRESCALER(hspi->Init.BaudRatePrescaler));
    }
    else
    {
      /* Baudrate prescaler not use in Motoraola Slave mode. force to default value */
      hspi->Init.BaudRatePrescaler = SPI_BAUDRATEPRESCALER_2;
 800739c:	687b      	ldr	r3, [r7, #4]
 800739e:	2200      	movs	r2, #0
 80073a0:	61da      	str	r2, [r3, #28]
 80073a2:	e005      	b.n	80073b0 <HAL_SPI_Init+0x38>
  else
  {
    assert_param(IS_SPI_BAUDRATE_PRESCALER(hspi->Init.BaudRatePrescaler));

    /* Force polarity and phase to TI protocaol requirements */
    hspi->Init.CLKPolarity = SPI_POLARITY_LOW;
 80073a4:	687b      	ldr	r3, [r7, #4]
 80073a6:	2200      	movs	r2, #0
 80073a8:	611a      	str	r2, [r3, #16]
    hspi->Init.CLKPhase    = SPI_PHASE_1EDGE;
 80073aa:	687b      	ldr	r3, [r7, #4]
 80073ac:	2200      	movs	r2, #0
 80073ae:	615a      	str	r2, [r3, #20]
  if (hspi->Init.CRCCalculation == SPI_CRCCALCULATION_ENABLE)
  {
    assert_param(IS_SPI_CRC_POLYNOMIAL(hspi->Init.CRCPolynomial));
  }
#else
  hspi->Init.CRCCalculation = SPI_CRCCALCULATION_DISABLE;
 80073b0:	687b      	ldr	r3, [r7, #4]
 80073b2:	2200      	movs	r2, #0
 80073b4:	629a      	str	r2, [r3, #40]	@ 0x28
#endif /* USE_SPI_CRC */

  if (hspi->State == HAL_SPI_STATE_RESET)
 80073b6:	687b      	ldr	r3, [r7, #4]
 80073b8:	f893 3051 	ldrb.w	r3, [r3, #81]	@ 0x51
 80073bc:	b2db      	uxtb	r3, r3
 80073be:	2b00      	cmp	r3, #0
 80073c0:	d106      	bne.n	80073d0 <HAL_SPI_Init+0x58>
  {
    /* Allocate lock resource and initialize it */
    hspi->Lock = HAL_UNLOCKED;
 80073c2:	687b      	ldr	r3, [r7, #4]
 80073c4:	2200      	movs	r2, #0
 80073c6:	f883 2050 	strb.w	r2, [r3, #80]	@ 0x50

    /* Init the low level hardware : GPIO, CLOCK, NVIC... */
    hspi->MspInitCallback(hspi);
#else
    /* Init the low level hardware : GPIO, CLOCK, NVIC... */
    HAL_SPI_MspInit(hspi);
 80073ca:	6878      	ldr	r0, [r7, #4]
 80073cc:	f7fb fb9a 	bl	8002b04 <HAL_SPI_MspInit>
#endif /* USE_HAL_SPI_REGISTER_CALLBACKS */
  }

  hspi->State = HAL_SPI_STATE_BUSY;
 80073d0:	687b      	ldr	r3, [r7, #4]
 80073d2:	2202      	movs	r2, #2
 80073d4:	f883 2051 	strb.w	r2, [r3, #81]	@ 0x51

  /* Disable the selected SPI peripheral */
  __HAL_SPI_DISABLE(hspi);
 80073d8:	687b      	ldr	r3, [r7, #4]
 80073da:	681b      	ldr	r3, [r3, #0]
 80073dc:	681a      	ldr	r2, [r3, #0]
 80073de:	687b      	ldr	r3, [r7, #4]
 80073e0:	681b      	ldr	r3, [r3, #0]
 80073e2:	f022 0240 	bic.w	r2, r2, #64	@ 0x40
 80073e6:	601a      	str	r2, [r3, #0]

  /*----------------------- SPIx CR1 & CR2 Configuration ---------------------*/
  /* Configure : SPI Mode, Communication Mode, Data size, Clock polarity and phase, NSS management,
  Communication speed, First bit and CRC calculation state */
  WRITE_REG(hspi->Instance->CR1, ((hspi->Init.Mode & (SPI_CR1_MSTR | SPI_CR1_SSI)) |
 80073e8:	687b      	ldr	r3, [r7, #4]
 80073ea:	685b      	ldr	r3, [r3, #4]
 80073ec:	f403 7282 	and.w	r2, r3, #260	@ 0x104
 80073f0:	687b      	ldr	r3, [r7, #4]
 80073f2:	689b      	ldr	r3, [r3, #8]
 80073f4:	f403 4304 	and.w	r3, r3, #33792	@ 0x8400
 80073f8:	431a      	orrs	r2, r3
 80073fa:	687b      	ldr	r3, [r7, #4]
 80073fc:	68db      	ldr	r3, [r3, #12]
 80073fe:	f403 6300 	and.w	r3, r3, #2048	@ 0x800
 8007402:	431a      	orrs	r2, r3
 8007404:	687b      	ldr	r3, [r7, #4]
 8007406:	691b      	ldr	r3, [r3, #16]
 8007408:	f003 0302 	and.w	r3, r3, #2
 800740c:	431a      	orrs	r2, r3
 800740e:	687b      	ldr	r3, [r7, #4]
 8007410:	695b      	ldr	r3, [r3, #20]
 8007412:	f003 0301 	and.w	r3, r3, #1
 8007416:	431a      	orrs	r2, r3
 8007418:	687b      	ldr	r3, [r7, #4]
 800741a:	699b      	ldr	r3, [r3, #24]
 800741c:	f403 7300 	and.w	r3, r3, #512	@ 0x200
 8007420:	431a      	orrs	r2, r3
 8007422:	687b      	ldr	r3, [r7, #4]
 8007424:	69db      	ldr	r3, [r3, #28]
 8007426:	f003 0338 	and.w	r3, r3, #56	@ 0x38
 800742a:	431a      	orrs	r2, r3
 800742c:	687b      	ldr	r3, [r7, #4]
 800742e:	6a1b      	ldr	r3, [r3, #32]
 8007430:	f003 0380 	and.w	r3, r3, #128	@ 0x80
 8007434:	ea42 0103 	orr.w	r1, r2, r3
 8007438:	687b      	ldr	r3, [r7, #4]
 800743a:	6a9b      	ldr	r3, [r3, #40]	@ 0x28
 800743c:	f403 5200 	and.w	r2, r3, #8192	@ 0x2000
 8007440:	687b      	ldr	r3, [r7, #4]
 8007442:	681b      	ldr	r3, [r3, #0]
 8007444:	430a      	orrs	r2, r1
 8007446:	601a      	str	r2, [r3, #0]
                                  (hspi->Init.BaudRatePrescaler & SPI_CR1_BR_Msk) |
                                  (hspi->Init.FirstBit  & SPI_CR1_LSBFIRST) |
                                  (hspi->Init.CRCCalculation & SPI_CR1_CRCEN)));

  /* Configure : NSS management, TI Mode */
  WRITE_REG(hspi->Instance->CR2, (((hspi->Init.NSS >> 16U) & SPI_CR2_SSOE) | (hspi->Init.TIMode & SPI_CR2_FRF)));
 8007448:	687b      	ldr	r3, [r7, #4]
 800744a:	699b      	ldr	r3, [r3, #24]
 800744c:	0c1b      	lsrs	r3, r3, #16
 800744e:	f003 0104 	and.w	r1, r3, #4
 8007452:	687b      	ldr	r3, [r7, #4]
 8007454:	6a5b      	ldr	r3, [r3, #36]	@ 0x24
 8007456:	f003 0210 	and.w	r2, r3, #16
 800745a:	687b      	ldr	r3, [r7, #4]
 800745c:	681b      	ldr	r3, [r3, #0]
 800745e:	430a      	orrs	r2, r1
 8007460:	605a      	str	r2, [r3, #4]
  }
#endif /* USE_SPI_CRC */

#if defined(SPI_I2SCFGR_I2SMOD)
  /* Activate the SPI mode (Make sure that I2SMOD bit in I2SCFGR register is reset) */
  CLEAR_BIT(hspi->Instance->I2SCFGR, SPI_I2SCFGR_I2SMOD);
 8007462:	687b      	ldr	r3, [r7, #4]
 8007464:	681b      	ldr	r3, [r3, #0]
 8007466:	69da      	ldr	r2, [r3, #28]
 8007468:	687b      	ldr	r3, [r7, #4]
 800746a:	681b      	ldr	r3, [r3, #0]
 800746c:	f422 6200 	bic.w	r2, r2, #2048	@ 0x800
 8007470:	61da      	str	r2, [r3, #28]
#endif /* SPI_I2SCFGR_I2SMOD */

  hspi->ErrorCode = HAL_SPI_ERROR_NONE;
 8007472:	687b      	ldr	r3, [r7, #4]
 8007474:	2200      	movs	r2, #0
 8007476:	655a      	str	r2, [r3, #84]	@ 0x54
  hspi->State     = HAL_SPI_STATE_READY;
 8007478:	687b      	ldr	r3, [r7, #4]
 800747a:	2201      	movs	r2, #1
 800747c:	f883 2051 	strb.w	r2, [r3, #81]	@ 0x51

  return HAL_OK;
 8007480:	2300      	movs	r3, #0
}
 8007482:	4618      	mov	r0, r3
 8007484:	3708      	adds	r7, #8
 8007486:	46bd      	mov	sp, r7
 8007488:	bd80      	pop	{r7, pc}

0800748a <HAL_SPI_Transmit>:
  * @param  Size amount of data to be sent
  * @param  Timeout Timeout duration
  * @retval HAL status
  */
HAL_StatusTypeDef HAL_SPI_Transmit(SPI_HandleTypeDef *hspi, uint8_t *pData, uint16_t Size, uint32_t Timeout)
{
 800748a:	b580      	push	{r7, lr}
 800748c:	b088      	sub	sp, #32
 800748e:	af00      	add	r7, sp, #0
 8007490:	60f8      	str	r0, [r7, #12]
 8007492:	60b9      	str	r1, [r7, #8]
 8007494:	603b      	str	r3, [r7, #0]
 8007496:	4613      	mov	r3, r2
 8007498:	80fb      	strh	r3, [r7, #6]
  uint32_t tickstart;
  HAL_StatusTypeDef errorcode = HAL_OK;
 800749a:	2300      	movs	r3, #0
 800749c:	77fb      	strb	r3, [r7, #31]

  /* Check Direction parameter */
  assert_param(IS_SPI_DIRECTION_2LINES_OR_1LINE(hspi->Init.Direction));

  /* Process Locked */
  __HAL_LOCK(hspi);
 800749e:	68fb      	ldr	r3, [r7, #12]
 80074a0:	f893 3050 	ldrb.w	r3, [r3, #80]	@ 0x50
 80074a4:	2b01      	cmp	r3, #1
 80074a6:	d101      	bne.n	80074ac <HAL_SPI_Transmit+0x22>
 80074a8:	2302      	movs	r3, #2
 80074aa:	e12d      	b.n	8007708 <HAL_SPI_Transmit+0x27e>
 80074ac:	68fb      	ldr	r3, [r7, #12]
 80074ae:	2201      	movs	r2, #1
 80074b0:	f883 2050 	strb.w	r2, [r3, #80]	@ 0x50

  /* Init tickstart for timeout management*/
  tickstart = HAL_GetTick();
 80074b4:	f7fb fea6 	bl	8003204 <HAL_GetTick>
 80074b8:	61b8      	str	r0, [r7, #24]
  initial_TxXferCount = Size;
 80074ba:	88fb      	ldrh	r3, [r7, #6]
 80074bc:	82fb      	strh	r3, [r7, #22]

  if (hspi->State != HAL_SPI_STATE_READY)
 80074be:	68fb      	ldr	r3, [r7, #12]
 80074c0:	f893 3051 	ldrb.w	r3, [r3, #81]	@ 0x51
 80074c4:	b2db      	uxtb	r3, r3
 80074c6:	2b01      	cmp	r3, #1
 80074c8:	d002      	beq.n	80074d0 <HAL_SPI_Transmit+0x46>
  {
    errorcode = HAL_BUSY;
 80074ca:	2302      	movs	r3, #2
 80074cc:	77fb      	strb	r3, [r7, #31]
    goto error;
 80074ce:	e116      	b.n	80076fe <HAL_SPI_Transmit+0x274>
  }

  if ((pData == NULL) || (Size == 0U))
 80074d0:	68bb      	ldr	r3, [r7, #8]
 80074d2:	2b00      	cmp	r3, #0
 80074d4:	d002      	beq.n	80074dc <HAL_SPI_Transmit+0x52>
 80074d6:	88fb      	ldrh	r3, [r7, #6]
 80074d8:	2b00      	cmp	r3, #0
 80074da:	d102      	bne.n	80074e2 <HAL_SPI_Transmit+0x58>
  {
    errorcode = HAL_ERROR;
 80074dc:	2301      	movs	r3, #1
 80074de:	77fb      	strb	r3, [r7, #31]
    goto error;
 80074e0:	e10d      	b.n	80076fe <HAL_SPI_Transmit+0x274>
  }

  /* Set the transaction information */
  hspi->State       = HAL_SPI_STATE_BUSY_TX;
 80074e2:	68fb      	ldr	r3, [r7, #12]
 80074e4:	2203      	movs	r2, #3
 80074e6:	f883 2051 	strb.w	r2, [r3, #81]	@ 0x51
  hspi->ErrorCode   = HAL_SPI_ERROR_NONE;
 80074ea:	68fb      	ldr	r3, [r7, #12]
 80074ec:	2200      	movs	r2, #0
 80074ee:	655a      	str	r2, [r3, #84]	@ 0x54
  hspi->pTxBuffPtr  = (uint8_t *)pData;
 80074f0:	68fb      	ldr	r3, [r7, #12]
 80074f2:	68ba      	ldr	r2, [r7, #8]
 80074f4:	631a      	str	r2, [r3, #48]	@ 0x30
  hspi->TxXferSize  = Size;
 80074f6:	68fb      	ldr	r3, [r7, #12]
 80074f8:	88fa      	ldrh	r2, [r7, #6]
 80074fa:	869a      	strh	r2, [r3, #52]	@ 0x34
  hspi->TxXferCount = Size;
 80074fc:	68fb      	ldr	r3, [r7, #12]
 80074fe:	88fa      	ldrh	r2, [r7, #6]
 8007500:	86da      	strh	r2, [r3, #54]	@ 0x36

  /*Init field not used in handle to zero */
  hspi->pRxBuffPtr  = (uint8_t *)NULL;
 8007502:	68fb      	ldr	r3, [r7, #12]
 8007504:	2200      	movs	r2, #0
 8007506:	639a      	str	r2, [r3, #56]	@ 0x38
  hspi->RxXferSize  = 0U;
 8007508:	68fb      	ldr	r3, [r7, #12]
 800750a:	2200      	movs	r2, #0
 800750c:	879a      	strh	r2, [r3, #60]	@ 0x3c
  hspi->RxXferCount = 0U;
 800750e:	68fb      	ldr	r3, [r7, #12]
 8007510:	2200      	movs	r2, #0
 8007512:	87da      	strh	r2, [r3, #62]	@ 0x3e
  hspi->TxISR       = NULL;
 8007514:	68fb      	ldr	r3, [r7, #12]
 8007516:	2200      	movs	r2, #0
 8007518:	645a      	str	r2, [r3, #68]	@ 0x44
  hspi->RxISR       = NULL;
 800751a:	68fb      	ldr	r3, [r7, #12]
 800751c:	2200      	movs	r2, #0
 800751e:	641a      	str	r2, [r3, #64]	@ 0x40

  /* Configure communication direction : 1Line */
  if (hspi->Init.Direction == SPI_DIRECTION_1LINE)
 8007520:	68fb      	ldr	r3, [r7, #12]
 8007522:	689b      	ldr	r3, [r3, #8]
 8007524:	f5b3 4f00 	cmp.w	r3, #32768	@ 0x8000
 8007528:	d10f      	bne.n	800754a <HAL_SPI_Transmit+0xc0>
  {
    /* Disable SPI Peripheral before set 1Line direction (BIDIOE bit) */
    __HAL_SPI_DISABLE(hspi);
 800752a:	68fb      	ldr	r3, [r7, #12]
 800752c:	681b      	ldr	r3, [r3, #0]
 800752e:	681a      	ldr	r2, [r3, #0]
 8007530:	68fb      	ldr	r3, [r7, #12]
 8007532:	681b      	ldr	r3, [r3, #0]
 8007534:	f022 0240 	bic.w	r2, r2, #64	@ 0x40
 8007538:	601a      	str	r2, [r3, #0]
    SPI_1LINE_TX(hspi);
 800753a:	68fb      	ldr	r3, [r7, #12]
 800753c:	681b      	ldr	r3, [r3, #0]
 800753e:	681a      	ldr	r2, [r3, #0]
 8007540:	68fb      	ldr	r3, [r7, #12]
 8007542:	681b      	ldr	r3, [r3, #0]
 8007544:	f442 4280 	orr.w	r2, r2, #16384	@ 0x4000
 8007548:	601a      	str	r2, [r3, #0]
    SPI_RESET_CRC(hspi);
  }
#endif /* USE_SPI_CRC */

  /* Check if the SPI is already enabled */
  if ((hspi->Instance->CR1 & SPI_CR1_SPE) != SPI_CR1_SPE)
 800754a:	68fb      	ldr	r3, [r7, #12]
 800754c:	681b      	ldr	r3, [r3, #0]
 800754e:	681b      	ldr	r3, [r3, #0]
 8007550:	f003 0340 	and.w	r3, r3, #64	@ 0x40
 8007554:	2b40      	cmp	r3, #64	@ 0x40
 8007556:	d007      	beq.n	8007568 <HAL_SPI_Transmit+0xde>
  {
    /* Enable SPI peripheral */
    __HAL_SPI_ENABLE(hspi);
 8007558:	68fb      	ldr	r3, [r7, #12]
 800755a:	681b      	ldr	r3, [r3, #0]
 800755c:	681a      	ldr	r2, [r3, #0]
 800755e:	68fb      	ldr	r3, [r7, #12]
 8007560:	681b      	ldr	r3, [r3, #0]
 8007562:	f042 0240 	orr.w	r2, r2, #64	@ 0x40
 8007566:	601a      	str	r2, [r3, #0]
  }

  /* Transmit data in 16 Bit mode */
  if (hspi->Init.DataSize == SPI_DATASIZE_16BIT)
 8007568:	68fb      	ldr	r3, [r7, #12]
 800756a:	68db      	ldr	r3, [r3, #12]
 800756c:	f5b3 6f00 	cmp.w	r3, #2048	@ 0x800
 8007570:	d14f      	bne.n	8007612 <HAL_SPI_Transmit+0x188>
  {
    if ((hspi->Init.Mode == SPI_MODE_SLAVE) || (initial_TxXferCount == 0x01U))
 8007572:	68fb      	ldr	r3, [r7, #12]
 8007574:	685b      	ldr	r3, [r3, #4]
 8007576:	2b00      	cmp	r3, #0
 8007578:	d002      	beq.n	8007580 <HAL_SPI_Transmit+0xf6>
 800757a:	8afb      	ldrh	r3, [r7, #22]
 800757c:	2b01      	cmp	r3, #1
 800757e:	d142      	bne.n	8007606 <HAL_SPI_Transmit+0x17c>
    {
      hspi->Instance->DR = *((uint16_t *)hspi->pTxBuffPtr);
 8007580:	68fb      	ldr	r3, [r7, #12]
 8007582:	6b1b      	ldr	r3, [r3, #48]	@ 0x30
 8007584:	881a      	ldrh	r2, [r3, #0]
 8007586:	68fb      	ldr	r3, [r7, #12]
 8007588:	681b      	ldr	r3, [r3, #0]
 800758a:	60da      	str	r2, [r3, #12]
      hspi->pTxBuffPtr += sizeof(uint16_t);
 800758c:	68fb      	ldr	r3, [r7, #12]
 800758e:	6b1b      	ldr	r3, [r3, #48]	@ 0x30
 8007590:	1c9a      	adds	r2, r3, #2
 8007592:	68fb      	ldr	r3, [r7, #12]
 8007594:	631a      	str	r2, [r3, #48]	@ 0x30
      hspi->TxXferCount--;
 8007596:	68fb      	ldr	r3, [r7, #12]
 8007598:	8edb      	ldrh	r3, [r3, #54]	@ 0x36
 800759a:	b29b      	uxth	r3, r3
 800759c:	3b01      	subs	r3, #1
 800759e:	b29a      	uxth	r2, r3
 80075a0:	68fb      	ldr	r3, [r7, #12]
 80075a2:	86da      	strh	r2, [r3, #54]	@ 0x36
    }
    /* Transmit data in 16 Bit mode */
    while (hspi->TxXferCount > 0U)
 80075a4:	e02f      	b.n	8007606 <HAL_SPI_Transmit+0x17c>
    {
      /* Wait until TXE flag is set to send data */
      if (__HAL_SPI_GET_FLAG(hspi, SPI_FLAG_TXE))
 80075a6:	68fb      	ldr	r3, [r7, #12]
 80075a8:	681b      	ldr	r3, [r3, #0]
 80075aa:	689b      	ldr	r3, [r3, #8]
 80075ac:	f003 0302 	and.w	r3, r3, #2
 80075b0:	2b02      	cmp	r3, #2
 80075b2:	d112      	bne.n	80075da <HAL_SPI_Transmit+0x150>
      {
        hspi->Instance->DR = *((uint16_t *)hspi->pTxBuffPtr);
 80075b4:	68fb      	ldr	r3, [r7, #12]
 80075b6:	6b1b      	ldr	r3, [r3, #48]	@ 0x30
 80075b8:	881a      	ldrh	r2, [r3, #0]
 80075ba:	68fb      	ldr	r3, [r7, #12]
 80075bc:	681b      	ldr	r3, [r3, #0]
 80075be:	60da      	str	r2, [r3, #12]
        hspi->pTxBuffPtr += sizeof(uint16_t);
 80075c0:	68fb      	ldr	r3, [r7, #12]
 80075c2:	6b1b      	ldr	r3, [r3, #48]	@ 0x30
 80075c4:	1c9a      	adds	r2, r3, #2
 80075c6:	68fb      	ldr	r3, [r7, #12]
 80075c8:	631a      	str	r2, [r3, #48]	@ 0x30
        hspi->TxXferCount--;
 80075ca:	68fb      	ldr	r3, [r7, #12]
 80075cc:	8edb      	ldrh	r3, [r3, #54]	@ 0x36
 80075ce:	b29b      	uxth	r3, r3
 80075d0:	3b01      	subs	r3, #1
 80075d2:	b29a      	uxth	r2, r3
 80075d4:	68fb      	ldr	r3, [r7, #12]
 80075d6:	86da      	strh	r2, [r3, #54]	@ 0x36
 80075d8:	e015      	b.n	8007606 <HAL_SPI_Transmit+0x17c>
      }
      else
      {
        /* Timeout management */
        if ((((HAL_GetTick() - tickstart) >=  Timeout) && (Timeout != HAL_MAX_DELAY)) || (Timeout == 0U))
 80075da:	f7fb fe13 	bl	8003204 <HAL_GetTick>
 80075de:	4602      	mov	r2, r0
 80075e0:	69bb      	ldr	r3, [r7, #24]
 80075e2:	1ad3      	subs	r3, r2, r3
 80075e4:	683a      	ldr	r2, [r7, #0]
 80075e6:	429a      	cmp	r2, r3
 80075e8:	d803      	bhi.n	80075f2 <HAL_SPI_Transmit+0x168>
 80075ea:	683b      	ldr	r3, [r7, #0]
 80075ec:	f1b3 3fff 	cmp.w	r3, #4294967295	@ 0xffffffff
 80075f0:	d102      	bne.n	80075f8 <HAL_SPI_Transmit+0x16e>
 80075f2:	683b      	ldr	r3, [r7, #0]
 80075f4:	2b00      	cmp	r3, #0
 80075f6:	d106      	bne.n	8007606 <HAL_SPI_Transmit+0x17c>
        {
          errorcode = HAL_TIMEOUT;
 80075f8:	2303      	movs	r3, #3
 80075fa:	77fb      	strb	r3, [r7, #31]
          hspi->State = HAL_SPI_STATE_READY;
 80075fc:	68fb      	ldr	r3, [r7, #12]
 80075fe:	2201      	movs	r2, #1
 8007600:	f883 2051 	strb.w	r2, [r3, #81]	@ 0x51
          goto error;
 8007604:	e07b      	b.n	80076fe <HAL_SPI_Transmit+0x274>
    while (hspi->TxXferCount > 0U)
 8007606:	68fb      	ldr	r3, [r7, #12]
 8007608:	8edb      	ldrh	r3, [r3, #54]	@ 0x36
 800760a:	b29b      	uxth	r3, r3
 800760c:	2b00      	cmp	r3, #0
 800760e:	d1ca      	bne.n	80075a6 <HAL_SPI_Transmit+0x11c>
 8007610:	e050      	b.n	80076b4 <HAL_SPI_Transmit+0x22a>
    }
  }
  /* Transmit data in 8 Bit mode */
  else
  {
    if ((hspi->Init.Mode == SPI_MODE_SLAVE) || (initial_TxXferCount == 0x01U))
 8007612:	68fb      	ldr	r3, [r7, #12]
 8007614:	685b      	ldr	r3, [r3, #4]
 8007616:	2b00      	cmp	r3, #0
 8007618:	d002      	beq.n	8007620 <HAL_SPI_Transmit+0x196>
 800761a:	8afb      	ldrh	r3, [r7, #22]
 800761c:	2b01      	cmp	r3, #1
 800761e:	d144      	bne.n	80076aa <HAL_SPI_Transmit+0x220>
    {
      *((__IO uint8_t *)&hspi->Instance->DR) = (*hspi->pTxBuffPtr);
 8007620:	68fb      	ldr	r3, [r7, #12]
 8007622:	6b1a      	ldr	r2, [r3, #48]	@ 0x30
 8007624:	68fb      	ldr	r3, [r7, #12]
 8007626:	681b      	ldr	r3, [r3, #0]
 8007628:	330c      	adds	r3, #12
 800762a:	7812      	ldrb	r2, [r2, #0]
 800762c:	701a      	strb	r2, [r3, #0]
      hspi->pTxBuffPtr += sizeof(uint8_t);
 800762e:	68fb      	ldr	r3, [r7, #12]
 8007630:	6b1b      	ldr	r3, [r3, #48]	@ 0x30
 8007632:	1c5a      	adds	r2, r3, #1
 8007634:	68fb      	ldr	r3, [r7, #12]
 8007636:	631a      	str	r2, [r3, #48]	@ 0x30
      hspi->TxXferCount--;
 8007638:	68fb      	ldr	r3, [r7, #12]
 800763a:	8edb      	ldrh	r3, [r3, #54]	@ 0x36
 800763c:	b29b      	uxth	r3, r3
 800763e:	3b01      	subs	r3, #1
 8007640:	b29a      	uxth	r2, r3
 8007642:	68fb      	ldr	r3, [r7, #12]
 8007644:	86da      	strh	r2, [r3, #54]	@ 0x36
    }
    while (hspi->TxXferCount > 0U)
 8007646:	e030      	b.n	80076aa <HAL_SPI_Transmit+0x220>
    {
      /* Wait until TXE flag is set to send data */
      if (__HAL_SPI_GET_FLAG(hspi, SPI_FLAG_TXE))
 8007648:	68fb      	ldr	r3, [r7, #12]
 800764a:	681b      	ldr	r3, [r3, #0]
 800764c:	689b      	ldr	r3, [r3, #8]
 800764e:	f003 0302 	and.w	r3, r3, #2
 8007652:	2b02      	cmp	r3, #2
 8007654:	d113      	bne.n	800767e <HAL_SPI_Transmit+0x1f4>
      {
        *((__IO uint8_t *)&hspi->Instance->DR) = (*hspi->pTxBuffPtr);
 8007656:	68fb      	ldr	r3, [r7, #12]
 8007658:	6b1a      	ldr	r2, [r3, #48]	@ 0x30
 800765a:	68fb      	ldr	r3, [r7, #12]
 800765c:	681b      	ldr	r3, [r3, #0]
 800765e:	330c      	adds	r3, #12
 8007660:	7812      	ldrb	r2, [r2, #0]
 8007662:	701a      	strb	r2, [r3, #0]
        hspi->pTxBuffPtr += sizeof(uint8_t);
 8007664:	68fb      	ldr	r3, [r7, #12]
 8007666:	6b1b      	ldr	r3, [r3, #48]	@ 0x30
 8007668:	1c5a      	adds	r2, r3, #1
 800766a:	68fb      	ldr	r3, [r7, #12]
 800766c:	631a      	str	r2, [r3, #48]	@ 0x30
        hspi->TxXferCount--;
 800766e:	68fb      	ldr	r3, [r7, #12]
 8007670:	8edb      	ldrh	r3, [r3, #54]	@ 0x36
 8007672:	b29b      	uxth	r3, r3
 8007674:	3b01      	subs	r3, #1
 8007676:	b29a      	uxth	r2, r3
 8007678:	68fb      	ldr	r3, [r7, #12]
 800767a:	86da      	strh	r2, [r3, #54]	@ 0x36
 800767c:	e015      	b.n	80076aa <HAL_SPI_Transmit+0x220>
      }
      else
      {
        /* Timeout management */
        if ((((HAL_GetTick() - tickstart) >=  Timeout) && (Timeout != HAL_MAX_DELAY)) || (Timeout == 0U))
 800767e:	f7fb fdc1 	bl	8003204 <HAL_GetTick>
 8007682:	4602      	mov	r2, r0
 8007684:	69bb      	ldr	r3, [r7, #24]
 8007686:	1ad3      	subs	r3, r2, r3
 8007688:	683a      	ldr	r2, [r7, #0]
 800768a:	429a      	cmp	r2, r3
 800768c:	d803      	bhi.n	8007696 <HAL_SPI_Transmit+0x20c>
 800768e:	683b      	ldr	r3, [r7, #0]
 8007690:	f1b3 3fff 	cmp.w	r3, #4294967295	@ 0xffffffff
 8007694:	d102      	bne.n	800769c <HAL_SPI_Transmit+0x212>
 8007696:	683b      	ldr	r3, [r7, #0]
 8007698:	2b00      	cmp	r3, #0
 800769a:	d106      	bne.n	80076aa <HAL_SPI_Transmit+0x220>
        {
          errorcode = HAL_TIMEOUT;
 800769c:	2303      	movs	r3, #3
 800769e:	77fb      	strb	r3, [r7, #31]
          hspi->State = HAL_SPI_STATE_READY;
 80076a0:	68fb      	ldr	r3, [r7, #12]
 80076a2:	2201      	movs	r2, #1
 80076a4:	f883 2051 	strb.w	r2, [r3, #81]	@ 0x51
          goto error;
 80076a8:	e029      	b.n	80076fe <HAL_SPI_Transmit+0x274>
    while (hspi->TxXferCount > 0U)
 80076aa:	68fb      	ldr	r3, [r7, #12]
 80076ac:	8edb      	ldrh	r3, [r3, #54]	@ 0x36
 80076ae:	b29b      	uxth	r3, r3
 80076b0:	2b00      	cmp	r3, #0
 80076b2:	d1c9      	bne.n	8007648 <HAL_SPI_Transmit+0x1be>
    SET_BIT(hspi->Instance->CR1, SPI_CR1_CRCNEXT);
  }
#endif /* USE_SPI_CRC */

  /* Check the end of the transaction */
  if (SPI_EndRxTxTransaction(hspi, Timeout, tickstart) != HAL_OK)
 80076b4:	69ba      	ldr	r2, [r7, #24]
 80076b6:	6839      	ldr	r1, [r7, #0]
 80076b8:	68f8      	ldr	r0, [r7, #12]
 80076ba:	f000 fd27 	bl	800810c <SPI_EndRxTxTransaction>
 80076be:	4603      	mov	r3, r0
 80076c0:	2b00      	cmp	r3, #0
 80076c2:	d002      	beq.n	80076ca <HAL_SPI_Transmit+0x240>
  {
    hspi->ErrorCode = HAL_SPI_ERROR_FLAG;
 80076c4:	68fb      	ldr	r3, [r7, #12]
 80076c6:	2220      	movs	r2, #32
 80076c8:	655a      	str	r2, [r3, #84]	@ 0x54
  }

  /* Clear overrun flag in 2 Lines communication mode because received is not read */
  if (hspi->Init.Direction == SPI_DIRECTION_2LINES)
 80076ca:	68fb      	ldr	r3, [r7, #12]
 80076cc:	689b      	ldr	r3, [r3, #8]
 80076ce:	2b00      	cmp	r3, #0
 80076d0:	d10a      	bne.n	80076e8 <HAL_SPI_Transmit+0x25e>
  {
    __HAL_SPI_CLEAR_OVRFLAG(hspi);
 80076d2:	2300      	movs	r3, #0
 80076d4:	613b      	str	r3, [r7, #16]
 80076d6:	68fb      	ldr	r3, [r7, #12]
 80076d8:	681b      	ldr	r3, [r3, #0]
 80076da:	68db      	ldr	r3, [r3, #12]
 80076dc:	613b      	str	r3, [r7, #16]
 80076de:	68fb      	ldr	r3, [r7, #12]
 80076e0:	681b      	ldr	r3, [r3, #0]
 80076e2:	689b      	ldr	r3, [r3, #8]
 80076e4:	613b      	str	r3, [r7, #16]
 80076e6:	693b      	ldr	r3, [r7, #16]
  }

  if (hspi->ErrorCode != HAL_SPI_ERROR_NONE)
 80076e8:	68fb      	ldr	r3, [r7, #12]
 80076ea:	6d5b      	ldr	r3, [r3, #84]	@ 0x54
 80076ec:	2b00      	cmp	r3, #0
 80076ee:	d002      	beq.n	80076f6 <HAL_SPI_Transmit+0x26c>
  {
    errorcode = HAL_ERROR;
 80076f0:	2301      	movs	r3, #1
 80076f2:	77fb      	strb	r3, [r7, #31]
 80076f4:	e003      	b.n	80076fe <HAL_SPI_Transmit+0x274>
  }
  else
  {
    hspi->State = HAL_SPI_STATE_READY;
 80076f6:	68fb      	ldr	r3, [r7, #12]
 80076f8:	2201      	movs	r2, #1
 80076fa:	f883 2051 	strb.w	r2, [r3, #81]	@ 0x51
  }

error:
  /* Process Unlocked */
  __HAL_UNLOCK(hspi);
 80076fe:	68fb      	ldr	r3, [r7, #12]
 8007700:	2200      	movs	r2, #0
 8007702:	f883 2050 	strb.w	r2, [r3, #80]	@ 0x50
  return errorcode;
 8007706:	7ffb      	ldrb	r3, [r7, #31]
}
 8007708:	4618      	mov	r0, r3
 800770a:	3720      	adds	r7, #32
 800770c:	46bd      	mov	sp, r7
 800770e:	bd80      	pop	{r7, pc}

08007710 <HAL_SPI_Receive>:
  * @param  Size amount of data to be received
  * @param  Timeout Timeout duration
  * @retval HAL status
  */
HAL_StatusTypeDef HAL_SPI_Receive(SPI_HandleTypeDef *hspi, uint8_t *pData, uint16_t Size, uint32_t Timeout)
{
 8007710:	b580      	push	{r7, lr}
 8007712:	b088      	sub	sp, #32
 8007714:	af02      	add	r7, sp, #8
 8007716:	60f8      	str	r0, [r7, #12]
 8007718:	60b9      	str	r1, [r7, #8]
 800771a:	603b      	str	r3, [r7, #0]
 800771c:	4613      	mov	r3, r2
 800771e:	80fb      	strh	r3, [r7, #6]
#if (USE_SPI_CRC != 0U)
  __IO uint32_t tmpreg = 0U;
#endif /* USE_SPI_CRC */
  uint32_t tickstart;
  HAL_StatusTypeDef errorcode = HAL_OK;
 8007720:	2300      	movs	r3, #0
 8007722:	75fb      	strb	r3, [r7, #23]

  if (hspi->State != HAL_SPI_STATE_READY)
 8007724:	68fb      	ldr	r3, [r7, #12]
 8007726:	f893 3051 	ldrb.w	r3, [r3, #81]	@ 0x51
 800772a:	b2db      	uxtb	r3, r3
 800772c:	2b01      	cmp	r3, #1
 800772e:	d002      	beq.n	8007736 <HAL_SPI_Receive+0x26>
  {
    errorcode = HAL_BUSY;
 8007730:	2302      	movs	r3, #2
 8007732:	75fb      	strb	r3, [r7, #23]
    goto error;
 8007734:	e0fb      	b.n	800792e <HAL_SPI_Receive+0x21e>
  }

  if ((hspi->Init.Mode == SPI_MODE_MASTER) && (hspi->Init.Direction == SPI_DIRECTION_2LINES))
 8007736:	68fb      	ldr	r3, [r7, #12]
 8007738:	685b      	ldr	r3, [r3, #4]
 800773a:	f5b3 7f82 	cmp.w	r3, #260	@ 0x104
 800773e:	d112      	bne.n	8007766 <HAL_SPI_Receive+0x56>
 8007740:	68fb      	ldr	r3, [r7, #12]
 8007742:	689b      	ldr	r3, [r3, #8]
 8007744:	2b00      	cmp	r3, #0
 8007746:	d10e      	bne.n	8007766 <HAL_SPI_Receive+0x56>
  {
    hspi->State = HAL_SPI_STATE_BUSY_RX;
 8007748:	68fb      	ldr	r3, [r7, #12]
 800774a:	2204      	movs	r2, #4
 800774c:	f883 2051 	strb.w	r2, [r3, #81]	@ 0x51
    /* Call transmit-receive function to send Dummy data on Tx line and generate clock on CLK line */
    return HAL_SPI_TransmitReceive(hspi, pData, pData, Size, Timeout);
 8007750:	88fa      	ldrh	r2, [r7, #6]
 8007752:	683b      	ldr	r3, [r7, #0]
 8007754:	9300      	str	r3, [sp, #0]
 8007756:	4613      	mov	r3, r2
 8007758:	68ba      	ldr	r2, [r7, #8]
 800775a:	68b9      	ldr	r1, [r7, #8]
 800775c:	68f8      	ldr	r0, [r7, #12]
 800775e:	f000 f8ef 	bl	8007940 <HAL_SPI_TransmitReceive>
 8007762:	4603      	mov	r3, r0
 8007764:	e0e8      	b.n	8007938 <HAL_SPI_Receive+0x228>
  }

  /* Process Locked */
  __HAL_LOCK(hspi);
 8007766:	68fb      	ldr	r3, [r7, #12]
 8007768:	f893 3050 	ldrb.w	r3, [r3, #80]	@ 0x50
 800776c:	2b01      	cmp	r3, #1
 800776e:	d101      	bne.n	8007774 <HAL_SPI_Receive+0x64>
 8007770:	2302      	movs	r3, #2
 8007772:	e0e1      	b.n	8007938 <HAL_SPI_Receive+0x228>
 8007774:	68fb      	ldr	r3, [r7, #12]
 8007776:	2201      	movs	r2, #1
 8007778:	f883 2050 	strb.w	r2, [r3, #80]	@ 0x50

  /* Init tickstart for timeout management*/
  tickstart = HAL_GetTick();
 800777c:	f7fb fd42 	bl	8003204 <HAL_GetTick>
 8007780:	6138      	str	r0, [r7, #16]

  if ((pData == NULL) || (Size == 0U))
 8007782:	68bb      	ldr	r3, [r7, #8]
 8007784:	2b00      	cmp	r3, #0
 8007786:	d002      	beq.n	800778e <HAL_SPI_Receive+0x7e>
 8007788:	88fb      	ldrh	r3, [r7, #6]
 800778a:	2b00      	cmp	r3, #0
 800778c:	d102      	bne.n	8007794 <HAL_SPI_Receive+0x84>
  {
    errorcode = HAL_ERROR;
 800778e:	2301      	movs	r3, #1
 8007790:	75fb      	strb	r3, [r7, #23]
    goto error;
 8007792:	e0cc      	b.n	800792e <HAL_SPI_Receive+0x21e>
  }

  /* Set the transaction information */
  hspi->State       = HAL_SPI_STATE_BUSY_RX;
 8007794:	68fb      	ldr	r3, [r7, #12]
 8007796:	2204      	movs	r2, #4
 8007798:	f883 2051 	strb.w	r2, [r3, #81]	@ 0x51
  hspi->ErrorCode   = HAL_SPI_ERROR_NONE;
 800779c:	68fb      	ldr	r3, [r7, #12]
 800779e:	2200      	movs	r2, #0
 80077a0:	655a      	str	r2, [r3, #84]	@ 0x54
  hspi->pRxBuffPtr  = (uint8_t *)pData;
 80077a2:	68fb      	ldr	r3, [r7, #12]
 80077a4:	68ba      	ldr	r2, [r7, #8]
 80077a6:	639a      	str	r2, [r3, #56]	@ 0x38
  hspi->RxXferSize  = Size;
 80077a8:	68fb      	ldr	r3, [r7, #12]
 80077aa:	88fa      	ldrh	r2, [r7, #6]
 80077ac:	879a      	strh	r2, [r3, #60]	@ 0x3c
  hspi->RxXferCount = Size;
 80077ae:	68fb      	ldr	r3, [r7, #12]
 80077b0:	88fa      	ldrh	r2, [r7, #6]
 80077b2:	87da      	strh	r2, [r3, #62]	@ 0x3e

  /*Init field not used in handle to zero */
  hspi->pTxBuffPtr  = (uint8_t *)NULL;
 80077b4:	68fb      	ldr	r3, [r7, #12]
 80077b6:	2200      	movs	r2, #0
 80077b8:	631a      	str	r2, [r3, #48]	@ 0x30
  hspi->TxXferSize  = 0U;
 80077ba:	68fb      	ldr	r3, [r7, #12]
 80077bc:	2200      	movs	r2, #0
 80077be:	869a      	strh	r2, [r3, #52]	@ 0x34
  hspi->TxXferCount = 0U;
 80077c0:	68fb      	ldr	r3, [r7, #12]
 80077c2:	2200      	movs	r2, #0
 80077c4:	86da      	strh	r2, [r3, #54]	@ 0x36
  hspi->RxISR       = NULL;
 80077c6:	68fb      	ldr	r3, [r7, #12]
 80077c8:	2200      	movs	r2, #0
 80077ca:	641a      	str	r2, [r3, #64]	@ 0x40
  hspi->TxISR       = NULL;
 80077cc:	68fb      	ldr	r3, [r7, #12]
 80077ce:	2200      	movs	r2, #0
 80077d0:	645a      	str	r2, [r3, #68]	@ 0x44
    hspi->RxXferCount--;
  }
#endif /* USE_SPI_CRC */

  /* Configure communication direction: 1Line */
  if (hspi->Init.Direction == SPI_DIRECTION_1LINE)
 80077d2:	68fb      	ldr	r3, [r7, #12]
 80077d4:	689b      	ldr	r3, [r3, #8]
 80077d6:	f5b3 4f00 	cmp.w	r3, #32768	@ 0x8000
 80077da:	d10f      	bne.n	80077fc <HAL_SPI_Receive+0xec>
  {
    /* Disable SPI Peripheral before set 1Line direction (BIDIOE bit) */
    __HAL_SPI_DISABLE(hspi);
 80077dc:	68fb      	ldr	r3, [r7, #12]
 80077de:	681b      	ldr	r3, [r3, #0]
 80077e0:	681a      	ldr	r2, [r3, #0]
 80077e2:	68fb      	ldr	r3, [r7, #12]
 80077e4:	681b      	ldr	r3, [r3, #0]
 80077e6:	f022 0240 	bic.w	r2, r2, #64	@ 0x40
 80077ea:	601a      	str	r2, [r3, #0]
    SPI_1LINE_RX(hspi);
 80077ec:	68fb      	ldr	r3, [r7, #12]
 80077ee:	681b      	ldr	r3, [r3, #0]
 80077f0:	681a      	ldr	r2, [r3, #0]
 80077f2:	68fb      	ldr	r3, [r7, #12]
 80077f4:	681b      	ldr	r3, [r3, #0]
 80077f6:	f422 4280 	bic.w	r2, r2, #16384	@ 0x4000
 80077fa:	601a      	str	r2, [r3, #0]
  }

  /* Check if the SPI is already enabled */
  if ((hspi->Instance->CR1 & SPI_CR1_SPE) != SPI_CR1_SPE)
 80077fc:	68fb      	ldr	r3, [r7, #12]
 80077fe:	681b      	ldr	r3, [r3, #0]
 8007800:	681b      	ldr	r3, [r3, #0]
 8007802:	f003 0340 	and.w	r3, r3, #64	@ 0x40
 8007806:	2b40      	cmp	r3, #64	@ 0x40
 8007808:	d007      	beq.n	800781a <HAL_SPI_Receive+0x10a>
  {
    /* Enable SPI peripheral */
    __HAL_SPI_ENABLE(hspi);
 800780a:	68fb      	ldr	r3, [r7, #12]
 800780c:	681b      	ldr	r3, [r3, #0]
 800780e:	681a      	ldr	r2, [r3, #0]
 8007810:	68fb      	ldr	r3, [r7, #12]
 8007812:	681b      	ldr	r3, [r3, #0]
 8007814:	f042 0240 	orr.w	r2, r2, #64	@ 0x40
 8007818:	601a      	str	r2, [r3, #0]
  }

  /* Receive data in 8 Bit mode */
  if (hspi->Init.DataSize == SPI_DATASIZE_8BIT)
 800781a:	68fb      	ldr	r3, [r7, #12]
 800781c:	68db      	ldr	r3, [r3, #12]
 800781e:	2b00      	cmp	r3, #0
 8007820:	d16a      	bne.n	80078f8 <HAL_SPI_Receive+0x1e8>
  {
    /* Transfer loop */
    while (hspi->RxXferCount > 0U)
 8007822:	e032      	b.n	800788a <HAL_SPI_Receive+0x17a>
    {
      /* Check the RXNE flag */
      if (__HAL_SPI_GET_FLAG(hspi, SPI_FLAG_RXNE))
 8007824:	68fb      	ldr	r3, [r7, #12]
 8007826:	681b      	ldr	r3, [r3, #0]
 8007828:	689b      	ldr	r3, [r3, #8]
 800782a:	f003 0301 	and.w	r3, r3, #1
 800782e:	2b01      	cmp	r3, #1
 8007830:	d115      	bne.n	800785e <HAL_SPI_Receive+0x14e>
      {
        /* read the received data */
        (* (uint8_t *)hspi->pRxBuffPtr) = *(__IO uint8_t *)&hspi->Instance->DR;
 8007832:	68fb      	ldr	r3, [r7, #12]
 8007834:	681b      	ldr	r3, [r3, #0]
 8007836:	f103 020c 	add.w	r2, r3, #12
 800783a:	68fb      	ldr	r3, [r7, #12]
 800783c:	6b9b      	ldr	r3, [r3, #56]	@ 0x38
 800783e:	7812      	ldrb	r2, [r2, #0]
 8007840:	b2d2      	uxtb	r2, r2
 8007842:	701a      	strb	r2, [r3, #0]
        hspi->pRxBuffPtr += sizeof(uint8_t);
 8007844:	68fb      	ldr	r3, [r7, #12]
 8007846:	6b9b      	ldr	r3, [r3, #56]	@ 0x38
 8007848:	1c5a      	adds	r2, r3, #1
 800784a:	68fb      	ldr	r3, [r7, #12]
 800784c:	639a      	str	r2, [r3, #56]	@ 0x38
        hspi->RxXferCount--;
 800784e:	68fb      	ldr	r3, [r7, #12]
 8007850:	8fdb      	ldrh	r3, [r3, #62]	@ 0x3e
 8007852:	b29b      	uxth	r3, r3
 8007854:	3b01      	subs	r3, #1
 8007856:	b29a      	uxth	r2, r3
 8007858:	68fb      	ldr	r3, [r7, #12]
 800785a:	87da      	strh	r2, [r3, #62]	@ 0x3e
 800785c:	e015      	b.n	800788a <HAL_SPI_Receive+0x17a>
      }
      else
      {
        /* Timeout management */
        if ((((HAL_GetTick() - tickstart) >=  Timeout) && (Timeout != HAL_MAX_DELAY)) || (Timeout == 0U))
 800785e:	f7fb fcd1 	bl	8003204 <HAL_GetTick>
 8007862:	4602      	mov	r2, r0
 8007864:	693b      	ldr	r3, [r7, #16]
 8007866:	1ad3      	subs	r3, r2, r3
 8007868:	683a      	ldr	r2, [r7, #0]
 800786a:	429a      	cmp	r2, r3
 800786c:	d803      	bhi.n	8007876 <HAL_SPI_Receive+0x166>
 800786e:	683b      	ldr	r3, [r7, #0]
 8007870:	f1b3 3fff 	cmp.w	r3, #4294967295	@ 0xffffffff
 8007874:	d102      	bne.n	800787c <HAL_SPI_Receive+0x16c>
 8007876:	683b      	ldr	r3, [r7, #0]
 8007878:	2b00      	cmp	r3, #0
 800787a:	d106      	bne.n	800788a <HAL_SPI_Receive+0x17a>
        {
          errorcode = HAL_TIMEOUT;
 800787c:	2303      	movs	r3, #3
 800787e:	75fb      	strb	r3, [r7, #23]
          hspi->State = HAL_SPI_STATE_READY;
 8007880:	68fb      	ldr	r3, [r7, #12]
 8007882:	2201      	movs	r2, #1
 8007884:	f883 2051 	strb.w	r2, [r3, #81]	@ 0x51
          goto error;
 8007888:	e051      	b.n	800792e <HAL_SPI_Receive+0x21e>
    while (hspi->RxXferCount > 0U)
 800788a:	68fb      	ldr	r3, [r7, #12]
 800788c:	8fdb      	ldrh	r3, [r3, #62]	@ 0x3e
 800788e:	b29b      	uxth	r3, r3
 8007890:	2b00      	cmp	r3, #0
 8007892:	d1c7      	bne.n	8007824 <HAL_SPI_Receive+0x114>
 8007894:	e035      	b.n	8007902 <HAL_SPI_Receive+0x1f2>
  {
    /* Transfer loop */
    while (hspi->RxXferCount > 0U)
    {
      /* Check the RXNE flag */
      if (__HAL_SPI_GET_FLAG(hspi, SPI_FLAG_RXNE))
 8007896:	68fb      	ldr	r3, [r7, #12]
 8007898:	681b      	ldr	r3, [r3, #0]
 800789a:	689b      	ldr	r3, [r3, #8]
 800789c:	f003 0301 	and.w	r3, r3, #1
 80078a0:	2b01      	cmp	r3, #1
 80078a2:	d113      	bne.n	80078cc <HAL_SPI_Receive+0x1bc>
      {
        *((uint16_t *)hspi->pRxBuffPtr) = (uint16_t)hspi->Instance->DR;
 80078a4:	68fb      	ldr	r3, [r7, #12]
 80078a6:	681b      	ldr	r3, [r3, #0]
 80078a8:	68da      	ldr	r2, [r3, #12]
 80078aa:	68fb      	ldr	r3, [r7, #12]
 80078ac:	6b9b      	ldr	r3, [r3, #56]	@ 0x38
 80078ae:	b292      	uxth	r2, r2
 80078b0:	801a      	strh	r2, [r3, #0]
        hspi->pRxBuffPtr += sizeof(uint16_t);
 80078b2:	68fb      	ldr	r3, [r7, #12]
 80078b4:	6b9b      	ldr	r3, [r3, #56]	@ 0x38
 80078b6:	1c9a      	adds	r2, r3, #2
 80078b8:	68fb      	ldr	r3, [r7, #12]
 80078ba:	639a      	str	r2, [r3, #56]	@ 0x38
        hspi->RxXferCount--;
 80078bc:	68fb      	ldr	r3, [r7, #12]
 80078be:	8fdb      	ldrh	r3, [r3, #62]	@ 0x3e
 80078c0:	b29b      	uxth	r3, r3
 80078c2:	3b01      	subs	r3, #1
 80078c4:	b29a      	uxth	r2, r3
 80078c6:	68fb      	ldr	r3, [r7, #12]
 80078c8:	87da      	strh	r2, [r3, #62]	@ 0x3e
 80078ca:	e015      	b.n	80078f8 <HAL_SPI_Receive+0x1e8>
      }
      else
      {
        /* Timeout management */
        if ((((HAL_GetTick() - tickstart) >=  Timeout) && (Timeout != HAL_MAX_DELAY)) || (Timeout == 0U))
 80078cc:	f7fb fc9a 	bl	8003204 <HAL_GetTick>
 80078d0:	4602      	mov	r2, r0
 80078d2:	693b      	ldr	r3, [r7, #16]
 80078d4:	1ad3      	subs	r3, r2, r3
 80078d6:	683a      	ldr	r2, [r7, #0]
 80078d8:	429a      	cmp	r2, r3
 80078da:	d803      	bhi.n	80078e4 <HAL_SPI_Receive+0x1d4>
 80078dc:	683b      	ldr	r3, [r7, #0]
 80078de:	f1b3 3fff 	cmp.w	r3, #4294967295	@ 0xffffffff
 80078e2:	d102      	bne.n	80078ea <HAL_SPI_Receive+0x1da>
 80078e4:	683b      	ldr	r3, [r7, #0]
 80078e6:	2b00      	cmp	r3, #0
 80078e8:	d106      	bne.n	80078f8 <HAL_SPI_Receive+0x1e8>
        {
          errorcode = HAL_TIMEOUT;
 80078ea:	2303      	movs	r3, #3
 80078ec:	75fb      	strb	r3, [r7, #23]
          hspi->State = HAL_SPI_STATE_READY;
 80078ee:	68fb      	ldr	r3, [r7, #12]
 80078f0:	2201      	movs	r2, #1
 80078f2:	f883 2051 	strb.w	r2, [r3, #81]	@ 0x51
          goto error;
 80078f6:	e01a      	b.n	800792e <HAL_SPI_Receive+0x21e>
    while (hspi->RxXferCount > 0U)
 80078f8:	68fb      	ldr	r3, [r7, #12]
 80078fa:	8fdb      	ldrh	r3, [r3, #62]	@ 0x3e
 80078fc:	b29b      	uxth	r3, r3
 80078fe:	2b00      	cmp	r3, #0
 8007900:	d1c9      	bne.n	8007896 <HAL_SPI_Receive+0x186>
    UNUSED(tmpreg);
  }
#endif /* USE_SPI_CRC */

  /* Check the end of the transaction */
  if (SPI_EndRxTransaction(hspi, Timeout, tickstart) != HAL_OK)
 8007902:	693a      	ldr	r2, [r7, #16]
 8007904:	6839      	ldr	r1, [r7, #0]
 8007906:	68f8      	ldr	r0, [r7, #12]
 8007908:	f000 fb9a 	bl	8008040 <SPI_EndRxTransaction>
 800790c:	4603      	mov	r3, r0
 800790e:	2b00      	cmp	r3, #0
 8007910:	d002      	beq.n	8007918 <HAL_SPI_Receive+0x208>
  {
    hspi->ErrorCode = HAL_SPI_ERROR_FLAG;
 8007912:	68fb      	ldr	r3, [r7, #12]
 8007914:	2220      	movs	r2, #32
 8007916:	655a      	str	r2, [r3, #84]	@ 0x54
    SET_BIT(hspi->ErrorCode, HAL_SPI_ERROR_CRC);
    __HAL_SPI_CLEAR_CRCERRFLAG(hspi);
  }
#endif /* USE_SPI_CRC */

  if (hspi->ErrorCode != HAL_SPI_ERROR_NONE)
 8007918:	68fb      	ldr	r3, [r7, #12]
 800791a:	6d5b      	ldr	r3, [r3, #84]	@ 0x54
 800791c:	2b00      	cmp	r3, #0
 800791e:	d002      	beq.n	8007926 <HAL_SPI_Receive+0x216>
  {
    errorcode = HAL_ERROR;
 8007920:	2301      	movs	r3, #1
 8007922:	75fb      	strb	r3, [r7, #23]
 8007924:	e003      	b.n	800792e <HAL_SPI_Receive+0x21e>
  }
  else
  {
    hspi->State = HAL_SPI_STATE_READY;
 8007926:	68fb      	ldr	r3, [r7, #12]
 8007928:	2201      	movs	r2, #1
 800792a:	f883 2051 	strb.w	r2, [r3, #81]	@ 0x51
  }

error :
  __HAL_UNLOCK(hspi);
 800792e:	68fb      	ldr	r3, [r7, #12]
 8007930:	2200      	movs	r2, #0
 8007932:	f883 2050 	strb.w	r2, [r3, #80]	@ 0x50
  return errorcode;
 8007936:	7dfb      	ldrb	r3, [r7, #23]
}
 8007938:	4618      	mov	r0, r3
 800793a:	3718      	adds	r7, #24
 800793c:	46bd      	mov	sp, r7
 800793e:	bd80      	pop	{r7, pc}

08007940 <HAL_SPI_TransmitReceive>:
  * @param  Timeout Timeout duration
  * @retval HAL status
  */
HAL_StatusTypeDef HAL_SPI_TransmitReceive(SPI_HandleTypeDef *hspi, uint8_t *pTxData, uint8_t *pRxData, uint16_t Size,
                                          uint32_t Timeout)
{
 8007940:	b580      	push	{r7, lr}
 8007942:	b08c      	sub	sp, #48	@ 0x30
 8007944:	af00      	add	r7, sp, #0
 8007946:	60f8      	str	r0, [r7, #12]
 8007948:	60b9      	str	r1, [r7, #8]
 800794a:	607a      	str	r2, [r7, #4]
 800794c:	807b      	strh	r3, [r7, #2]
#if (USE_SPI_CRC != 0U)
  __IO uint32_t tmpreg = 0U;
#endif /* USE_SPI_CRC */

  /* Variable used to alternate Rx and Tx during transfer */
  uint32_t             txallowed = 1U;
 800794e:	2301      	movs	r3, #1
 8007950:	62fb      	str	r3, [r7, #44]	@ 0x2c
  HAL_StatusTypeDef    errorcode = HAL_OK;
 8007952:	2300      	movs	r3, #0
 8007954:	f887 302b 	strb.w	r3, [r7, #43]	@ 0x2b

  /* Check Direction parameter */
  assert_param(IS_SPI_DIRECTION_2LINES(hspi->Init.Direction));

  /* Process Locked */
  __HAL_LOCK(hspi);
 8007958:	68fb      	ldr	r3, [r7, #12]
 800795a:	f893 3050 	ldrb.w	r3, [r3, #80]	@ 0x50
 800795e:	2b01      	cmp	r3, #1
 8007960:	d101      	bne.n	8007966 <HAL_SPI_TransmitReceive+0x26>
 8007962:	2302      	movs	r3, #2
 8007964:	e198      	b.n	8007c98 <HAL_SPI_TransmitReceive+0x358>
 8007966:	68fb      	ldr	r3, [r7, #12]
 8007968:	2201      	movs	r2, #1
 800796a:	f883 2050 	strb.w	r2, [r3, #80]	@ 0x50

  /* Init tickstart for timeout management*/
  tickstart = HAL_GetTick();
 800796e:	f7fb fc49 	bl	8003204 <HAL_GetTick>
 8007972:	6278      	str	r0, [r7, #36]	@ 0x24

  /* Init temporary variables */
  tmp_state           = hspi->State;
 8007974:	68fb      	ldr	r3, [r7, #12]
 8007976:	f893 3051 	ldrb.w	r3, [r3, #81]	@ 0x51
 800797a:	f887 3023 	strb.w	r3, [r7, #35]	@ 0x23
  tmp_mode            = hspi->Init.Mode;
 800797e:	68fb      	ldr	r3, [r7, #12]
 8007980:	685b      	ldr	r3, [r3, #4]
 8007982:	61fb      	str	r3, [r7, #28]
  initial_TxXferCount = Size;
 8007984:	887b      	ldrh	r3, [r7, #2]
 8007986:	837b      	strh	r3, [r7, #26]

  if (!((tmp_state == HAL_SPI_STATE_READY) || \
 8007988:	f897 3023 	ldrb.w	r3, [r7, #35]	@ 0x23
 800798c:	2b01      	cmp	r3, #1
 800798e:	d00f      	beq.n	80079b0 <HAL_SPI_TransmitReceive+0x70>
 8007990:	69fb      	ldr	r3, [r7, #28]
 8007992:	f5b3 7f82 	cmp.w	r3, #260	@ 0x104
 8007996:	d107      	bne.n	80079a8 <HAL_SPI_TransmitReceive+0x68>
        ((tmp_mode == SPI_MODE_MASTER) && (hspi->Init.Direction == SPI_DIRECTION_2LINES) && (tmp_state == HAL_SPI_STATE_BUSY_RX))))
 8007998:	68fb      	ldr	r3, [r7, #12]
 800799a:	689b      	ldr	r3, [r3, #8]
 800799c:	2b00      	cmp	r3, #0
 800799e:	d103      	bne.n	80079a8 <HAL_SPI_TransmitReceive+0x68>
 80079a0:	f897 3023 	ldrb.w	r3, [r7, #35]	@ 0x23
 80079a4:	2b04      	cmp	r3, #4
 80079a6:	d003      	beq.n	80079b0 <HAL_SPI_TransmitReceive+0x70>
  {
    errorcode = HAL_BUSY;
 80079a8:	2302      	movs	r3, #2
 80079aa:	f887 302b 	strb.w	r3, [r7, #43]	@ 0x2b
    goto error;
 80079ae:	e16d      	b.n	8007c8c <HAL_SPI_TransmitReceive+0x34c>
  }

  if ((pTxData == NULL) || (pRxData == NULL) || (Size == 0U))
 80079b0:	68bb      	ldr	r3, [r7, #8]
 80079b2:	2b00      	cmp	r3, #0
 80079b4:	d005      	beq.n	80079c2 <HAL_SPI_TransmitReceive+0x82>
 80079b6:	687b      	ldr	r3, [r7, #4]
 80079b8:	2b00      	cmp	r3, #0
 80079ba:	d002      	beq.n	80079c2 <HAL_SPI_TransmitReceive+0x82>
 80079bc:	887b      	ldrh	r3, [r7, #2]
 80079be:	2b00      	cmp	r3, #0
 80079c0:	d103      	bne.n	80079ca <HAL_SPI_TransmitReceive+0x8a>
  {
    errorcode = HAL_ERROR;
 80079c2:	2301      	movs	r3, #1
 80079c4:	f887 302b 	strb.w	r3, [r7, #43]	@ 0x2b
    goto error;
 80079c8:	e160      	b.n	8007c8c <HAL_SPI_TransmitReceive+0x34c>
  }

  /* Don't overwrite in case of HAL_SPI_STATE_BUSY_RX */
  if (hspi->State != HAL_SPI_STATE_BUSY_RX)
 80079ca:	68fb      	ldr	r3, [r7, #12]
 80079cc:	f893 3051 	ldrb.w	r3, [r3, #81]	@ 0x51
 80079d0:	b2db      	uxtb	r3, r3
 80079d2:	2b04      	cmp	r3, #4
 80079d4:	d003      	beq.n	80079de <HAL_SPI_TransmitReceive+0x9e>
  {
    hspi->State = HAL_SPI_STATE_BUSY_TX_RX;
 80079d6:	68fb      	ldr	r3, [r7, #12]
 80079d8:	2205      	movs	r2, #5
 80079da:	f883 2051 	strb.w	r2, [r3, #81]	@ 0x51
  }

  /* Set the transaction information */
  hspi->ErrorCode   = HAL_SPI_ERROR_NONE;
 80079de:	68fb      	ldr	r3, [r7, #12]
 80079e0:	2200      	movs	r2, #0
 80079e2:	655a      	str	r2, [r3, #84]	@ 0x54
  hspi->pRxBuffPtr  = (uint8_t *)pRxData;
 80079e4:	68fb      	ldr	r3, [r7, #12]
 80079e6:	687a      	ldr	r2, [r7, #4]
 80079e8:	639a      	str	r2, [r3, #56]	@ 0x38
  hspi->RxXferCount = Size;
 80079ea:	68fb      	ldr	r3, [r7, #12]
 80079ec:	887a      	ldrh	r2, [r7, #2]
 80079ee:	87da      	strh	r2, [r3, #62]	@ 0x3e
  hspi->RxXferSize  = Size;
 80079f0:	68fb      	ldr	r3, [r7, #12]
 80079f2:	887a      	ldrh	r2, [r7, #2]
 80079f4:	879a      	strh	r2, [r3, #60]	@ 0x3c
  hspi->pTxBuffPtr  = (uint8_t *)pTxData;
 80079f6:	68fb      	ldr	r3, [r7, #12]
 80079f8:	68ba      	ldr	r2, [r7, #8]
 80079fa:	631a      	str	r2, [r3, #48]	@ 0x30
  hspi->TxXferCount = Size;
 80079fc:	68fb      	ldr	r3, [r7, #12]
 80079fe:	887a      	ldrh	r2, [r7, #2]
 8007a00:	86da      	strh	r2, [r3, #54]	@ 0x36
  hspi->TxXferSize  = Size;
 8007a02:	68fb      	ldr	r3, [r7, #12]
 8007a04:	887a      	ldrh	r2, [r7, #2]
 8007a06:	869a      	strh	r2, [r3, #52]	@ 0x34

  /*Init field not used in handle to zero */
  hspi->RxISR       = NULL;
 8007a08:	68fb      	ldr	r3, [r7, #12]
 8007a0a:	2200      	movs	r2, #0
 8007a0c:	641a      	str	r2, [r3, #64]	@ 0x40
  hspi->TxISR       = NULL;
 8007a0e:	68fb      	ldr	r3, [r7, #12]
 8007a10:	2200      	movs	r2, #0
 8007a12:	645a      	str	r2, [r3, #68]	@ 0x44
    SPI_RESET_CRC(hspi);
  }
#endif /* USE_SPI_CRC */

  /* Check if the SPI is already enabled */
  if ((hspi->Instance->CR1 & SPI_CR1_SPE) != SPI_CR1_SPE)
 8007a14:	68fb      	ldr	r3, [r7, #12]
 8007a16:	681b      	ldr	r3, [r3, #0]
 8007a18:	681b      	ldr	r3, [r3, #0]
 8007a1a:	f003 0340 	and.w	r3, r3, #64	@ 0x40
 8007a1e:	2b40      	cmp	r3, #64	@ 0x40
 8007a20:	d007      	beq.n	8007a32 <HAL_SPI_TransmitReceive+0xf2>
  {
    /* Enable SPI peripheral */
    __HAL_SPI_ENABLE(hspi);
 8007a22:	68fb      	ldr	r3, [r7, #12]
 8007a24:	681b      	ldr	r3, [r3, #0]
 8007a26:	681a      	ldr	r2, [r3, #0]
 8007a28:	68fb      	ldr	r3, [r7, #12]
 8007a2a:	681b      	ldr	r3, [r3, #0]
 8007a2c:	f042 0240 	orr.w	r2, r2, #64	@ 0x40
 8007a30:	601a      	str	r2, [r3, #0]
  }

  /* Transmit and Receive data in 16 Bit mode */
  if (hspi->Init.DataSize == SPI_DATASIZE_16BIT)
 8007a32:	68fb      	ldr	r3, [r7, #12]
 8007a34:	68db      	ldr	r3, [r3, #12]
 8007a36:	f5b3 6f00 	cmp.w	r3, #2048	@ 0x800
 8007a3a:	d17c      	bne.n	8007b36 <HAL_SPI_TransmitReceive+0x1f6>
  {
    if ((hspi->Init.Mode == SPI_MODE_SLAVE) || (initial_TxXferCount == 0x01U))
 8007a3c:	68fb      	ldr	r3, [r7, #12]
 8007a3e:	685b      	ldr	r3, [r3, #4]
 8007a40:	2b00      	cmp	r3, #0
 8007a42:	d002      	beq.n	8007a4a <HAL_SPI_TransmitReceive+0x10a>
 8007a44:	8b7b      	ldrh	r3, [r7, #26]
 8007a46:	2b01      	cmp	r3, #1
 8007a48:	d16a      	bne.n	8007b20 <HAL_SPI_TransmitReceive+0x1e0>
    {
      hspi->Instance->DR = *((uint16_t *)hspi->pTxBuffPtr);
 8007a4a:	68fb      	ldr	r3, [r7, #12]
 8007a4c:	6b1b      	ldr	r3, [r3, #48]	@ 0x30
 8007a4e:	881a      	ldrh	r2, [r3, #0]
 8007a50:	68fb      	ldr	r3, [r7, #12]
 8007a52:	681b      	ldr	r3, [r3, #0]
 8007a54:	60da      	str	r2, [r3, #12]
      hspi->pTxBuffPtr += sizeof(uint16_t);
 8007a56:	68fb      	ldr	r3, [r7, #12]
 8007a58:	6b1b      	ldr	r3, [r3, #48]	@ 0x30
 8007a5a:	1c9a      	adds	r2, r3, #2
 8007a5c:	68fb      	ldr	r3, [r7, #12]
 8007a5e:	631a      	str	r2, [r3, #48]	@ 0x30
      hspi->TxXferCount--;
 8007a60:	68fb      	ldr	r3, [r7, #12]
 8007a62:	8edb      	ldrh	r3, [r3, #54]	@ 0x36
 8007a64:	b29b      	uxth	r3, r3
 8007a66:	3b01      	subs	r3, #1
 8007a68:	b29a      	uxth	r2, r3
 8007a6a:	68fb      	ldr	r3, [r7, #12]
 8007a6c:	86da      	strh	r2, [r3, #54]	@ 0x36
        SET_BIT(hspi->Instance->CR1, SPI_CR1_CRCNEXT);
      }
#endif /* USE_SPI_CRC */

    }
    while ((hspi->TxXferCount > 0U) || (hspi->RxXferCount > 0U))
 8007a6e:	e057      	b.n	8007b20 <HAL_SPI_TransmitReceive+0x1e0>
    {
      /* Check TXE flag */
      if ((__HAL_SPI_GET_FLAG(hspi, SPI_FLAG_TXE)) && (hspi->TxXferCount > 0U) && (txallowed == 1U))
 8007a70:	68fb      	ldr	r3, [r7, #12]
 8007a72:	681b      	ldr	r3, [r3, #0]
 8007a74:	689b      	ldr	r3, [r3, #8]
 8007a76:	f003 0302 	and.w	r3, r3, #2
 8007a7a:	2b02      	cmp	r3, #2
 8007a7c:	d11b      	bne.n	8007ab6 <HAL_SPI_TransmitReceive+0x176>
 8007a7e:	68fb      	ldr	r3, [r7, #12]
 8007a80:	8edb      	ldrh	r3, [r3, #54]	@ 0x36
 8007a82:	b29b      	uxth	r3, r3
 8007a84:	2b00      	cmp	r3, #0
 8007a86:	d016      	beq.n	8007ab6 <HAL_SPI_TransmitReceive+0x176>
 8007a88:	6afb      	ldr	r3, [r7, #44]	@ 0x2c
 8007a8a:	2b01      	cmp	r3, #1
 8007a8c:	d113      	bne.n	8007ab6 <HAL_SPI_TransmitReceive+0x176>
      {
        hspi->Instance->DR = *((uint16_t *)hspi->pTxBuffPtr);
 8007a8e:	68fb      	ldr	r3, [r7, #12]
 8007a90:	6b1b      	ldr	r3, [r3, #48]	@ 0x30
 8007a92:	881a      	ldrh	r2, [r3, #0]
 8007a94:	68fb      	ldr	r3, [r7, #12]
 8007a96:	681b      	ldr	r3, [r3, #0]
 8007a98:	60da      	str	r2, [r3, #12]
        hspi->pTxBuffPtr += sizeof(uint16_t);
 8007a9a:	68fb      	ldr	r3, [r7, #12]
 8007a9c:	6b1b      	ldr	r3, [r3, #48]	@ 0x30
 8007a9e:	1c9a      	adds	r2, r3, #2
 8007aa0:	68fb      	ldr	r3, [r7, #12]
 8007aa2:	631a      	str	r2, [r3, #48]	@ 0x30
        hspi->TxXferCount--;
 8007aa4:	68fb      	ldr	r3, [r7, #12]
 8007aa6:	8edb      	ldrh	r3, [r3, #54]	@ 0x36
 8007aa8:	b29b      	uxth	r3, r3
 8007aaa:	3b01      	subs	r3, #1
 8007aac:	b29a      	uxth	r2, r3
 8007aae:	68fb      	ldr	r3, [r7, #12]
 8007ab0:	86da      	strh	r2, [r3, #54]	@ 0x36
        /* Next Data is a reception (Rx). Tx not allowed */
        txallowed = 0U;
 8007ab2:	2300      	movs	r3, #0
 8007ab4:	62fb      	str	r3, [r7, #44]	@ 0x2c
        }
#endif /* USE_SPI_CRC */
      }

      /* Check RXNE flag */
      if ((__HAL_SPI_GET_FLAG(hspi, SPI_FLAG_RXNE)) && (hspi->RxXferCount > 0U))
 8007ab6:	68fb      	ldr	r3, [r7, #12]
 8007ab8:	681b      	ldr	r3, [r3, #0]
 8007aba:	689b      	ldr	r3, [r3, #8]
 8007abc:	f003 0301 	and.w	r3, r3, #1
 8007ac0:	2b01      	cmp	r3, #1
 8007ac2:	d119      	bne.n	8007af8 <HAL_SPI_TransmitReceive+0x1b8>
 8007ac4:	68fb      	ldr	r3, [r7, #12]
 8007ac6:	8fdb      	ldrh	r3, [r3, #62]	@ 0x3e
 8007ac8:	b29b      	uxth	r3, r3
 8007aca:	2b00      	cmp	r3, #0
 8007acc:	d014      	beq.n	8007af8 <HAL_SPI_TransmitReceive+0x1b8>
      {
        *((uint16_t *)hspi->pRxBuffPtr) = (uint16_t)hspi->Instance->DR;
 8007ace:	68fb      	ldr	r3, [r7, #12]
 8007ad0:	681b      	ldr	r3, [r3, #0]
 8007ad2:	68da      	ldr	r2, [r3, #12]
 8007ad4:	68fb      	ldr	r3, [r7, #12]
 8007ad6:	6b9b      	ldr	r3, [r3, #56]	@ 0x38
 8007ad8:	b292      	uxth	r2, r2
 8007ada:	801a      	strh	r2, [r3, #0]
        hspi->pRxBuffPtr += sizeof(uint16_t);
 8007adc:	68fb      	ldr	r3, [r7, #12]
 8007ade:	6b9b      	ldr	r3, [r3, #56]	@ 0x38
 8007ae0:	1c9a      	adds	r2, r3, #2
 8007ae2:	68fb      	ldr	r3, [r7, #12]
 8007ae4:	639a      	str	r2, [r3, #56]	@ 0x38
        hspi->RxXferCount--;
 8007ae6:	68fb      	ldr	r3, [r7, #12]
 8007ae8:	8fdb      	ldrh	r3, [r3, #62]	@ 0x3e
 8007aea:	b29b      	uxth	r3, r3
 8007aec:	3b01      	subs	r3, #1
 8007aee:	b29a      	uxth	r2, r3
 8007af0:	68fb      	ldr	r3, [r7, #12]
 8007af2:	87da      	strh	r2, [r3, #62]	@ 0x3e
        /* Next Data is a Transmission (Tx). Tx is allowed */
        txallowed = 1U;
 8007af4:	2301      	movs	r3, #1
 8007af6:	62fb      	str	r3, [r7, #44]	@ 0x2c
      }
      if (((HAL_GetTick() - tickstart) >=  Timeout) && (Timeout != HAL_MAX_DELAY))
 8007af8:	f7fb fb84 	bl	8003204 <HAL_GetTick>
 8007afc:	4602      	mov	r2, r0
 8007afe:	6a7b      	ldr	r3, [r7, #36]	@ 0x24
 8007b00:	1ad3      	subs	r3, r2, r3
 8007b02:	6bba      	ldr	r2, [r7, #56]	@ 0x38
 8007b04:	429a      	cmp	r2, r3
 8007b06:	d80b      	bhi.n	8007b20 <HAL_SPI_TransmitReceive+0x1e0>
 8007b08:	6bbb      	ldr	r3, [r7, #56]	@ 0x38
 8007b0a:	f1b3 3fff 	cmp.w	r3, #4294967295	@ 0xffffffff
 8007b0e:	d007      	beq.n	8007b20 <HAL_SPI_TransmitReceive+0x1e0>
      {
        errorcode = HAL_TIMEOUT;
 8007b10:	2303      	movs	r3, #3
 8007b12:	f887 302b 	strb.w	r3, [r7, #43]	@ 0x2b
        hspi->State = HAL_SPI_STATE_READY;
 8007b16:	68fb      	ldr	r3, [r7, #12]
 8007b18:	2201      	movs	r2, #1
 8007b1a:	f883 2051 	strb.w	r2, [r3, #81]	@ 0x51
        goto error;
 8007b1e:	e0b5      	b.n	8007c8c <HAL_SPI_TransmitReceive+0x34c>
    while ((hspi->TxXferCount > 0U) || (hspi->RxXferCount > 0U))
 8007b20:	68fb      	ldr	r3, [r7, #12]
 8007b22:	8edb      	ldrh	r3, [r3, #54]	@ 0x36
 8007b24:	b29b      	uxth	r3, r3
 8007b26:	2b00      	cmp	r3, #0
 8007b28:	d1a2      	bne.n	8007a70 <HAL_SPI_TransmitReceive+0x130>
 8007b2a:	68fb      	ldr	r3, [r7, #12]
 8007b2c:	8fdb      	ldrh	r3, [r3, #62]	@ 0x3e
 8007b2e:	b29b      	uxth	r3, r3
 8007b30:	2b00      	cmp	r3, #0
 8007b32:	d19d      	bne.n	8007a70 <HAL_SPI_TransmitReceive+0x130>
 8007b34:	e080      	b.n	8007c38 <HAL_SPI_TransmitReceive+0x2f8>
    }
  }
  /* Transmit and Receive data in 8 Bit mode */
  else
  {
    if ((hspi->Init.Mode == SPI_MODE_SLAVE) || (initial_TxXferCount == 0x01U))
 8007b36:	68fb      	ldr	r3, [r7, #12]
 8007b38:	685b      	ldr	r3, [r3, #4]
 8007b3a:	2b00      	cmp	r3, #0
 8007b3c:	d002      	beq.n	8007b44 <HAL_SPI_TransmitReceive+0x204>
 8007b3e:	8b7b      	ldrh	r3, [r7, #26]
 8007b40:	2b01      	cmp	r3, #1
 8007b42:	d16f      	bne.n	8007c24 <HAL_SPI_TransmitReceive+0x2e4>
    {
      *((__IO uint8_t *)&hspi->Instance->DR) = (*hspi->pTxBuffPtr);
 8007b44:	68fb      	ldr	r3, [r7, #12]
 8007b46:	6b1a      	ldr	r2, [r3, #48]	@ 0x30
 8007b48:	68fb      	ldr	r3, [r7, #12]
 8007b4a:	681b      	ldr	r3, [r3, #0]
 8007b4c:	330c      	adds	r3, #12
 8007b4e:	7812      	ldrb	r2, [r2, #0]
 8007b50:	701a      	strb	r2, [r3, #0]
      hspi->pTxBuffPtr += sizeof(uint8_t);
 8007b52:	68fb      	ldr	r3, [r7, #12]
 8007b54:	6b1b      	ldr	r3, [r3, #48]	@ 0x30
 8007b56:	1c5a      	adds	r2, r3, #1
 8007b58:	68fb      	ldr	r3, [r7, #12]
 8007b5a:	631a      	str	r2, [r3, #48]	@ 0x30
      hspi->TxXferCount--;
 8007b5c:	68fb      	ldr	r3, [r7, #12]
 8007b5e:	8edb      	ldrh	r3, [r3, #54]	@ 0x36
 8007b60:	b29b      	uxth	r3, r3
 8007b62:	3b01      	subs	r3, #1
 8007b64:	b29a      	uxth	r2, r3
 8007b66:	68fb      	ldr	r3, [r7, #12]
 8007b68:	86da      	strh	r2, [r3, #54]	@ 0x36
      {
        SET_BIT(hspi->Instance->CR1, SPI_CR1_CRCNEXT);
      }
#endif /* USE_SPI_CRC */
    }
    while ((hspi->TxXferCount > 0U) || (hspi->RxXferCount > 0U))
 8007b6a:	e05b      	b.n	8007c24 <HAL_SPI_TransmitReceive+0x2e4>
    {
      /* Check TXE flag */
      if ((__HAL_SPI_GET_FLAG(hspi, SPI_FLAG_TXE)) && (hspi->TxXferCount > 0U) && (txallowed == 1U))
 8007b6c:	68fb      	ldr	r3, [r7, #12]
 8007b6e:	681b      	ldr	r3, [r3, #0]
 8007b70:	689b      	ldr	r3, [r3, #8]
 8007b72:	f003 0302 	and.w	r3, r3, #2
 8007b76:	2b02      	cmp	r3, #2
 8007b78:	d11c      	bne.n	8007bb4 <HAL_SPI_TransmitReceive+0x274>
 8007b7a:	68fb      	ldr	r3, [r7, #12]
 8007b7c:	8edb      	ldrh	r3, [r3, #54]	@ 0x36
 8007b7e:	b29b      	uxth	r3, r3
 8007b80:	2b00      	cmp	r3, #0
 8007b82:	d017      	beq.n	8007bb4 <HAL_SPI_TransmitReceive+0x274>
 8007b84:	6afb      	ldr	r3, [r7, #44]	@ 0x2c
 8007b86:	2b01      	cmp	r3, #1
 8007b88:	d114      	bne.n	8007bb4 <HAL_SPI_TransmitReceive+0x274>
      {
        *(__IO uint8_t *)&hspi->Instance->DR = (*hspi->pTxBuffPtr);
 8007b8a:	68fb      	ldr	r3, [r7, #12]
 8007b8c:	6b1a      	ldr	r2, [r3, #48]	@ 0x30
 8007b8e:	68fb      	ldr	r3, [r7, #12]
 8007b90:	681b      	ldr	r3, [r3, #0]
 8007b92:	330c      	adds	r3, #12
 8007b94:	7812      	ldrb	r2, [r2, #0]
 8007b96:	701a      	strb	r2, [r3, #0]
        hspi->pTxBuffPtr++;
 8007b98:	68fb      	ldr	r3, [r7, #12]
 8007b9a:	6b1b      	ldr	r3, [r3, #48]	@ 0x30
 8007b9c:	1c5a      	adds	r2, r3, #1
 8007b9e:	68fb      	ldr	r3, [r7, #12]
 8007ba0:	631a      	str	r2, [r3, #48]	@ 0x30
        hspi->TxXferCount--;
 8007ba2:	68fb      	ldr	r3, [r7, #12]
 8007ba4:	8edb      	ldrh	r3, [r3, #54]	@ 0x36
 8007ba6:	b29b      	uxth	r3, r3
 8007ba8:	3b01      	subs	r3, #1
 8007baa:	b29a      	uxth	r2, r3
 8007bac:	68fb      	ldr	r3, [r7, #12]
 8007bae:	86da      	strh	r2, [r3, #54]	@ 0x36
        /* Next Data is a reception (Rx). Tx not allowed */
        txallowed = 0U;
 8007bb0:	2300      	movs	r3, #0
 8007bb2:	62fb      	str	r3, [r7, #44]	@ 0x2c
        }
#endif /* USE_SPI_CRC */
      }

      /* Wait until RXNE flag is reset */
      if ((__HAL_SPI_GET_FLAG(hspi, SPI_FLAG_RXNE)) && (hspi->RxXferCount > 0U))
 8007bb4:	68fb      	ldr	r3, [r7, #12]
 8007bb6:	681b      	ldr	r3, [r3, #0]
 8007bb8:	689b      	ldr	r3, [r3, #8]
 8007bba:	f003 0301 	and.w	r3, r3, #1
 8007bbe:	2b01      	cmp	r3, #1
 8007bc0:	d119      	bne.n	8007bf6 <HAL_SPI_TransmitReceive+0x2b6>
 8007bc2:	68fb      	ldr	r3, [r7, #12]
 8007bc4:	8fdb      	ldrh	r3, [r3, #62]	@ 0x3e
 8007bc6:	b29b      	uxth	r3, r3
 8007bc8:	2b00      	cmp	r3, #0
 8007bca:	d014      	beq.n	8007bf6 <HAL_SPI_TransmitReceive+0x2b6>
      {
        (*(uint8_t *)hspi->pRxBuffPtr) = hspi->Instance->DR;
 8007bcc:	68fb      	ldr	r3, [r7, #12]
 8007bce:	681b      	ldr	r3, [r3, #0]
 8007bd0:	68da      	ldr	r2, [r3, #12]
 8007bd2:	68fb      	ldr	r3, [r7, #12]
 8007bd4:	6b9b      	ldr	r3, [r3, #56]	@ 0x38
 8007bd6:	b2d2      	uxtb	r2, r2
 8007bd8:	701a      	strb	r2, [r3, #0]
        hspi->pRxBuffPtr++;
 8007bda:	68fb      	ldr	r3, [r7, #12]
 8007bdc:	6b9b      	ldr	r3, [r3, #56]	@ 0x38
 8007bde:	1c5a      	adds	r2, r3, #1
 8007be0:	68fb      	ldr	r3, [r7, #12]
 8007be2:	639a      	str	r2, [r3, #56]	@ 0x38
        hspi->RxXferCount--;
 8007be4:	68fb      	ldr	r3, [r7, #12]
 8007be6:	8fdb      	ldrh	r3, [r3, #62]	@ 0x3e
 8007be8:	b29b      	uxth	r3, r3
 8007bea:	3b01      	subs	r3, #1
 8007bec:	b29a      	uxth	r2, r3
 8007bee:	68fb      	ldr	r3, [r7, #12]
 8007bf0:	87da      	strh	r2, [r3, #62]	@ 0x3e
        /* Next Data is a Transmission (Tx). Tx is allowed */
        txallowed = 1U;
 8007bf2:	2301      	movs	r3, #1
 8007bf4:	62fb      	str	r3, [r7, #44]	@ 0x2c
      }
      if ((((HAL_GetTick() - tickstart) >=  Timeout) && ((Timeout != HAL_MAX_DELAY))) || (Timeout == 0U))
 8007bf6:	f7fb fb05 	bl	8003204 <HAL_GetTick>
 8007bfa:	4602      	mov	r2, r0
 8007bfc:	6a7b      	ldr	r3, [r7, #36]	@ 0x24
 8007bfe:	1ad3      	subs	r3, r2, r3
 8007c00:	6bba      	ldr	r2, [r7, #56]	@ 0x38
 8007c02:	429a      	cmp	r2, r3
 8007c04:	d803      	bhi.n	8007c0e <HAL_SPI_TransmitReceive+0x2ce>
 8007c06:	6bbb      	ldr	r3, [r7, #56]	@ 0x38
 8007c08:	f1b3 3fff 	cmp.w	r3, #4294967295	@ 0xffffffff
 8007c0c:	d102      	bne.n	8007c14 <HAL_SPI_TransmitReceive+0x2d4>
 8007c0e:	6bbb      	ldr	r3, [r7, #56]	@ 0x38
 8007c10:	2b00      	cmp	r3, #0
 8007c12:	d107      	bne.n	8007c24 <HAL_SPI_TransmitReceive+0x2e4>
      {
        errorcode = HAL_TIMEOUT;
 8007c14:	2303      	movs	r3, #3
 8007c16:	f887 302b 	strb.w	r3, [r7, #43]	@ 0x2b
        hspi->State = HAL_SPI_STATE_READY;
 8007c1a:	68fb      	ldr	r3, [r7, #12]
 8007c1c:	2201      	movs	r2, #1
 8007c1e:	f883 2051 	strb.w	r2, [r3, #81]	@ 0x51
        goto error;
 8007c22:	e033      	b.n	8007c8c <HAL_SPI_TransmitReceive+0x34c>
    while ((hspi->TxXferCount > 0U) || (hspi->RxXferCount > 0U))
 8007c24:	68fb      	ldr	r3, [r7, #12]
 8007c26:	8edb      	ldrh	r3, [r3, #54]	@ 0x36
 8007c28:	b29b      	uxth	r3, r3
 8007c2a:	2b00      	cmp	r3, #0
 8007c2c:	d19e      	bne.n	8007b6c <HAL_SPI_TransmitReceive+0x22c>
 8007c2e:	68fb      	ldr	r3, [r7, #12]
 8007c30:	8fdb      	ldrh	r3, [r3, #62]	@ 0x3e
 8007c32:	b29b      	uxth	r3, r3
 8007c34:	2b00      	cmp	r3, #0
 8007c36:	d199      	bne.n	8007b6c <HAL_SPI_TransmitReceive+0x22c>
    errorcode = HAL_ERROR;
  }
#endif /* USE_SPI_CRC */

  /* Check the end of the transaction */
  if (SPI_EndRxTxTransaction(hspi, Timeout, tickstart) != HAL_OK)
 8007c38:	6a7a      	ldr	r2, [r7, #36]	@ 0x24
 8007c3a:	6bb9      	ldr	r1, [r7, #56]	@ 0x38
 8007c3c:	68f8      	ldr	r0, [r7, #12]
 8007c3e:	f000 fa65 	bl	800810c <SPI_EndRxTxTransaction>
 8007c42:	4603      	mov	r3, r0
 8007c44:	2b00      	cmp	r3, #0
 8007c46:	d006      	beq.n	8007c56 <HAL_SPI_TransmitReceive+0x316>
  {
    errorcode = HAL_ERROR;
 8007c48:	2301      	movs	r3, #1
 8007c4a:	f887 302b 	strb.w	r3, [r7, #43]	@ 0x2b
    hspi->ErrorCode = HAL_SPI_ERROR_FLAG;
 8007c4e:	68fb      	ldr	r3, [r7, #12]
 8007c50:	2220      	movs	r2, #32
 8007c52:	655a      	str	r2, [r3, #84]	@ 0x54
    goto error;
 8007c54:	e01a      	b.n	8007c8c <HAL_SPI_TransmitReceive+0x34c>
  }

  /* Clear overrun flag in 2 Lines communication mode because received is not read */
  if (hspi->Init.Direction == SPI_DIRECTION_2LINES)
 8007c56:	68fb      	ldr	r3, [r7, #12]
 8007c58:	689b      	ldr	r3, [r3, #8]
 8007c5a:	2b00      	cmp	r3, #0
 8007c5c:	d10a      	bne.n	8007c74 <HAL_SPI_TransmitReceive+0x334>
  {
    __HAL_SPI_CLEAR_OVRFLAG(hspi);
 8007c5e:	2300      	movs	r3, #0
 8007c60:	617b      	str	r3, [r7, #20]
 8007c62:	68fb      	ldr	r3, [r7, #12]
 8007c64:	681b      	ldr	r3, [r3, #0]
 8007c66:	68db      	ldr	r3, [r3, #12]
 8007c68:	617b      	str	r3, [r7, #20]
 8007c6a:	68fb      	ldr	r3, [r7, #12]
 8007c6c:	681b      	ldr	r3, [r3, #0]
 8007c6e:	689b      	ldr	r3, [r3, #8]
 8007c70:	617b      	str	r3, [r7, #20]
 8007c72:	697b      	ldr	r3, [r7, #20]
  }

  if (hspi->ErrorCode != HAL_SPI_ERROR_NONE)
 8007c74:	68fb      	ldr	r3, [r7, #12]
 8007c76:	6d5b      	ldr	r3, [r3, #84]	@ 0x54
 8007c78:	2b00      	cmp	r3, #0
 8007c7a:	d003      	beq.n	8007c84 <HAL_SPI_TransmitReceive+0x344>
  {
    errorcode = HAL_ERROR;
 8007c7c:	2301      	movs	r3, #1
 8007c7e:	f887 302b 	strb.w	r3, [r7, #43]	@ 0x2b
 8007c82:	e003      	b.n	8007c8c <HAL_SPI_TransmitReceive+0x34c>
  }
  else
  {
    hspi->State = HAL_SPI_STATE_READY;
 8007c84:	68fb      	ldr	r3, [r7, #12]
 8007c86:	2201      	movs	r2, #1
 8007c88:	f883 2051 	strb.w	r2, [r3, #81]	@ 0x51
  }
  
error :
  __HAL_UNLOCK(hspi);
 8007c8c:	68fb      	ldr	r3, [r7, #12]
 8007c8e:	2200      	movs	r2, #0
 8007c90:	f883 2050 	strb.w	r2, [r3, #80]	@ 0x50
  return errorcode;
 8007c94:	f897 302b 	ldrb.w	r3, [r7, #43]	@ 0x2b
}
 8007c98:	4618      	mov	r0, r3
 8007c9a:	3730      	adds	r7, #48	@ 0x30
 8007c9c:	46bd      	mov	sp, r7
 8007c9e:	bd80      	pop	{r7, pc}

08007ca0 <HAL_SPI_Transmit_DMA>:
  * @param  pData pointer to data buffer
  * @param  Size amount of data to be sent
  * @retval HAL status
  */
HAL_StatusTypeDef HAL_SPI_Transmit_DMA(SPI_HandleTypeDef *hspi, uint8_t *pData, uint16_t Size)
{
 8007ca0:	b580      	push	{r7, lr}
 8007ca2:	b086      	sub	sp, #24
 8007ca4:	af00      	add	r7, sp, #0
 8007ca6:	60f8      	str	r0, [r7, #12]
 8007ca8:	60b9      	str	r1, [r7, #8]
 8007caa:	4613      	mov	r3, r2
 8007cac:	80fb      	strh	r3, [r7, #6]
  HAL_StatusTypeDef errorcode = HAL_OK;
 8007cae:	2300      	movs	r3, #0
 8007cb0:	75fb      	strb	r3, [r7, #23]

  /* Check Direction parameter */
  assert_param(IS_SPI_DIRECTION_2LINES_OR_1LINE(hspi->Init.Direction));

  /* Process Locked */
  __HAL_LOCK(hspi);
 8007cb2:	68fb      	ldr	r3, [r7, #12]
 8007cb4:	f893 3050 	ldrb.w	r3, [r3, #80]	@ 0x50
 8007cb8:	2b01      	cmp	r3, #1
 8007cba:	d101      	bne.n	8007cc0 <HAL_SPI_Transmit_DMA+0x20>
 8007cbc:	2302      	movs	r3, #2
 8007cbe:	e097      	b.n	8007df0 <HAL_SPI_Transmit_DMA+0x150>
 8007cc0:	68fb      	ldr	r3, [r7, #12]
 8007cc2:	2201      	movs	r2, #1
 8007cc4:	f883 2050 	strb.w	r2, [r3, #80]	@ 0x50

  if (hspi->State != HAL_SPI_STATE_READY)
 8007cc8:	68fb      	ldr	r3, [r7, #12]
 8007cca:	f893 3051 	ldrb.w	r3, [r3, #81]	@ 0x51
 8007cce:	b2db      	uxtb	r3, r3
 8007cd0:	2b01      	cmp	r3, #1
 8007cd2:	d002      	beq.n	8007cda <HAL_SPI_Transmit_DMA+0x3a>
  {
    errorcode = HAL_BUSY;
 8007cd4:	2302      	movs	r3, #2
 8007cd6:	75fb      	strb	r3, [r7, #23]
    goto error;
 8007cd8:	e085      	b.n	8007de6 <HAL_SPI_Transmit_DMA+0x146>
  }

  if ((pData == NULL) || (Size == 0U))
 8007cda:	68bb      	ldr	r3, [r7, #8]
 8007cdc:	2b00      	cmp	r3, #0
 8007cde:	d002      	beq.n	8007ce6 <HAL_SPI_Transmit_DMA+0x46>
 8007ce0:	88fb      	ldrh	r3, [r7, #6]
 8007ce2:	2b00      	cmp	r3, #0
 8007ce4:	d102      	bne.n	8007cec <HAL_SPI_Transmit_DMA+0x4c>
  {
    errorcode = HAL_ERROR;
 8007ce6:	2301      	movs	r3, #1
 8007ce8:	75fb      	strb	r3, [r7, #23]
    goto error;
 8007cea:	e07c      	b.n	8007de6 <HAL_SPI_Transmit_DMA+0x146>
  }

  /* Set the transaction information */
  hspi->State       = HAL_SPI_STATE_BUSY_TX;
 8007cec:	68fb      	ldr	r3, [r7, #12]
 8007cee:	2203      	movs	r2, #3
 8007cf0:	f883 2051 	strb.w	r2, [r3, #81]	@ 0x51
  hspi->ErrorCode   = HAL_SPI_ERROR_NONE;
 8007cf4:	68fb      	ldr	r3, [r7, #12]
 8007cf6:	2200      	movs	r2, #0
 8007cf8:	655a      	str	r2, [r3, #84]	@ 0x54
  hspi->pTxBuffPtr  = (uint8_t *)pData;
 8007cfa:	68fb      	ldr	r3, [r7, #12]
 8007cfc:	68ba      	ldr	r2, [r7, #8]
 8007cfe:	631a      	str	r2, [r3, #48]	@ 0x30
  hspi->TxXferSize  = Size;
 8007d00:	68fb      	ldr	r3, [r7, #12]
 8007d02:	88fa      	ldrh	r2, [r7, #6]
 8007d04:	869a      	strh	r2, [r3, #52]	@ 0x34
  hspi->TxXferCount = Size;
 8007d06:	68fb      	ldr	r3, [r7, #12]
 8007d08:	88fa      	ldrh	r2, [r7, #6]
 8007d0a:	86da      	strh	r2, [r3, #54]	@ 0x36

  /* Init field not used in handle to zero */
  hspi->pRxBuffPtr  = (uint8_t *)NULL;
 8007d0c:	68fb      	ldr	r3, [r7, #12]
 8007d0e:	2200      	movs	r2, #0
 8007d10:	639a      	str	r2, [r3, #56]	@ 0x38
  hspi->TxISR       = NULL;
 8007d12:	68fb      	ldr	r3, [r7, #12]
 8007d14:	2200      	movs	r2, #0
 8007d16:	645a      	str	r2, [r3, #68]	@ 0x44
  hspi->RxISR       = NULL;
 8007d18:	68fb      	ldr	r3, [r7, #12]
 8007d1a:	2200      	movs	r2, #0
 8007d1c:	641a      	str	r2, [r3, #64]	@ 0x40
  hspi->RxXferSize  = 0U;
 8007d1e:	68fb      	ldr	r3, [r7, #12]
 8007d20:	2200      	movs	r2, #0
 8007d22:	879a      	strh	r2, [r3, #60]	@ 0x3c
  hspi->RxXferCount = 0U;
 8007d24:	68fb      	ldr	r3, [r7, #12]
 8007d26:	2200      	movs	r2, #0
 8007d28:	87da      	strh	r2, [r3, #62]	@ 0x3e

  /* Configure communication direction : 1Line */
  if (hspi->Init.Direction == SPI_DIRECTION_1LINE)
 8007d2a:	68fb      	ldr	r3, [r7, #12]
 8007d2c:	689b      	ldr	r3, [r3, #8]
 8007d2e:	f5b3 4f00 	cmp.w	r3, #32768	@ 0x8000
 8007d32:	d10f      	bne.n	8007d54 <HAL_SPI_Transmit_DMA+0xb4>
  {
    /* Disable SPI Peripheral before set 1Line direction (BIDIOE bit) */
    __HAL_SPI_DISABLE(hspi);
 8007d34:	68fb      	ldr	r3, [r7, #12]
 8007d36:	681b      	ldr	r3, [r3, #0]
 8007d38:	681a      	ldr	r2, [r3, #0]
 8007d3a:	68fb      	ldr	r3, [r7, #12]
 8007d3c:	681b      	ldr	r3, [r3, #0]
 8007d3e:	f022 0240 	bic.w	r2, r2, #64	@ 0x40
 8007d42:	601a      	str	r2, [r3, #0]
    SPI_1LINE_TX(hspi);
 8007d44:	68fb      	ldr	r3, [r7, #12]
 8007d46:	681b      	ldr	r3, [r3, #0]
 8007d48:	681a      	ldr	r2, [r3, #0]
 8007d4a:	68fb      	ldr	r3, [r7, #12]
 8007d4c:	681b      	ldr	r3, [r3, #0]
 8007d4e:	f442 4280 	orr.w	r2, r2, #16384	@ 0x4000
 8007d52:	601a      	str	r2, [r3, #0]
    SPI_RESET_CRC(hspi);
  }
#endif /* USE_SPI_CRC */

  /* Set the SPI TxDMA Half transfer complete callback */
  hspi->hdmatx->XferHalfCpltCallback = SPI_DMAHalfTransmitCplt;
 8007d54:	68fb      	ldr	r3, [r7, #12]
 8007d56:	6c9b      	ldr	r3, [r3, #72]	@ 0x48
 8007d58:	4a27      	ldr	r2, [pc, #156]	@ (8007df8 <HAL_SPI_Transmit_DMA+0x158>)
 8007d5a:	641a      	str	r2, [r3, #64]	@ 0x40

  /* Set the SPI TxDMA transfer complete callback */
  hspi->hdmatx->XferCpltCallback = SPI_DMATransmitCplt;
 8007d5c:	68fb      	ldr	r3, [r7, #12]
 8007d5e:	6c9b      	ldr	r3, [r3, #72]	@ 0x48
 8007d60:	4a26      	ldr	r2, [pc, #152]	@ (8007dfc <HAL_SPI_Transmit_DMA+0x15c>)
 8007d62:	63da      	str	r2, [r3, #60]	@ 0x3c

  /* Set the DMA error callback */
  hspi->hdmatx->XferErrorCallback = SPI_DMAError;
 8007d64:	68fb      	ldr	r3, [r7, #12]
 8007d66:	6c9b      	ldr	r3, [r3, #72]	@ 0x48
 8007d68:	4a25      	ldr	r2, [pc, #148]	@ (8007e00 <HAL_SPI_Transmit_DMA+0x160>)
 8007d6a:	64da      	str	r2, [r3, #76]	@ 0x4c

  /* Set the DMA AbortCpltCallback */
  hspi->hdmatx->XferAbortCallback = NULL;
 8007d6c:	68fb      	ldr	r3, [r7, #12]
 8007d6e:	6c9b      	ldr	r3, [r3, #72]	@ 0x48
 8007d70:	2200      	movs	r2, #0
 8007d72:	651a      	str	r2, [r3, #80]	@ 0x50

  /* Enable the Tx DMA Stream/Channel */
  if (HAL_OK != HAL_DMA_Start_IT(hspi->hdmatx, (uint32_t)hspi->pTxBuffPtr, (uint32_t)&hspi->Instance->DR,
 8007d74:	68fb      	ldr	r3, [r7, #12]
 8007d76:	6c98      	ldr	r0, [r3, #72]	@ 0x48
 8007d78:	68fb      	ldr	r3, [r7, #12]
 8007d7a:	6b1b      	ldr	r3, [r3, #48]	@ 0x30
 8007d7c:	4619      	mov	r1, r3
 8007d7e:	68fb      	ldr	r3, [r7, #12]
 8007d80:	681b      	ldr	r3, [r3, #0]
 8007d82:	330c      	adds	r3, #12
 8007d84:	461a      	mov	r2, r3
                                 hspi->TxXferCount))
 8007d86:	68fb      	ldr	r3, [r7, #12]
 8007d88:	8edb      	ldrh	r3, [r3, #54]	@ 0x36
 8007d8a:	b29b      	uxth	r3, r3
  if (HAL_OK != HAL_DMA_Start_IT(hspi->hdmatx, (uint32_t)hspi->pTxBuffPtr, (uint32_t)&hspi->Instance->DR,
 8007d8c:	f7fc fa92 	bl	80042b4 <HAL_DMA_Start_IT>
 8007d90:	4603      	mov	r3, r0
 8007d92:	2b00      	cmp	r3, #0
 8007d94:	d008      	beq.n	8007da8 <HAL_SPI_Transmit_DMA+0x108>
  {
    /* Update SPI error code */
    SET_BIT(hspi->ErrorCode, HAL_SPI_ERROR_DMA);
 8007d96:	68fb      	ldr	r3, [r7, #12]
 8007d98:	6d5b      	ldr	r3, [r3, #84]	@ 0x54
 8007d9a:	f043 0210 	orr.w	r2, r3, #16
 8007d9e:	68fb      	ldr	r3, [r7, #12]
 8007da0:	655a      	str	r2, [r3, #84]	@ 0x54
    errorcode = HAL_ERROR;
 8007da2:	2301      	movs	r3, #1
 8007da4:	75fb      	strb	r3, [r7, #23]

    goto error;
 8007da6:	e01e      	b.n	8007de6 <HAL_SPI_Transmit_DMA+0x146>
  }

  /* Check if the SPI is already enabled */
  if ((hspi->Instance->CR1 & SPI_CR1_SPE) != SPI_CR1_SPE)
 8007da8:	68fb      	ldr	r3, [r7, #12]
 8007daa:	681b      	ldr	r3, [r3, #0]
 8007dac:	681b      	ldr	r3, [r3, #0]
 8007dae:	f003 0340 	and.w	r3, r3, #64	@ 0x40
 8007db2:	2b40      	cmp	r3, #64	@ 0x40
 8007db4:	d007      	beq.n	8007dc6 <HAL_SPI_Transmit_DMA+0x126>
  {
    /* Enable SPI peripheral */
    __HAL_SPI_ENABLE(hspi);
 8007db6:	68fb      	ldr	r3, [r7, #12]
 8007db8:	681b      	ldr	r3, [r3, #0]
 8007dba:	681a      	ldr	r2, [r3, #0]
 8007dbc:	68fb      	ldr	r3, [r7, #12]
 8007dbe:	681b      	ldr	r3, [r3, #0]
 8007dc0:	f042 0240 	orr.w	r2, r2, #64	@ 0x40
 8007dc4:	601a      	str	r2, [r3, #0]
  }

  /* Enable the SPI Error Interrupt Bit */
  __HAL_SPI_ENABLE_IT(hspi, (SPI_IT_ERR));
 8007dc6:	68fb      	ldr	r3, [r7, #12]
 8007dc8:	681b      	ldr	r3, [r3, #0]
 8007dca:	685a      	ldr	r2, [r3, #4]
 8007dcc:	68fb      	ldr	r3, [r7, #12]
 8007dce:	681b      	ldr	r3, [r3, #0]
 8007dd0:	f042 0220 	orr.w	r2, r2, #32
 8007dd4:	605a      	str	r2, [r3, #4]

  /* Enable Tx DMA Request */
  SET_BIT(hspi->Instance->CR2, SPI_CR2_TXDMAEN);
 8007dd6:	68fb      	ldr	r3, [r7, #12]
 8007dd8:	681b      	ldr	r3, [r3, #0]
 8007dda:	685a      	ldr	r2, [r3, #4]
 8007ddc:	68fb      	ldr	r3, [r7, #12]
 8007dde:	681b      	ldr	r3, [r3, #0]
 8007de0:	f042 0202 	orr.w	r2, r2, #2
 8007de4:	605a      	str	r2, [r3, #4]

error :
  /* Process Unlocked */
  __HAL_UNLOCK(hspi);
 8007de6:	68fb      	ldr	r3, [r7, #12]
 8007de8:	2200      	movs	r2, #0
 8007dea:	f883 2050 	strb.w	r2, [r3, #80]	@ 0x50
  return errorcode;
 8007dee:	7dfb      	ldrb	r3, [r7, #23]
}
 8007df0:	4618      	mov	r0, r3
 8007df2:	3718      	adds	r7, #24
 8007df4:	46bd      	mov	sp, r7
 8007df6:	bd80      	pop	{r7, pc}
 8007df8:	08007ed5 	.word	0x08007ed5
 8007dfc:	08007e2d 	.word	0x08007e2d
 8007e00:	08007ef1 	.word	0x08007ef1

08007e04 <HAL_SPI_TxHalfCpltCallback>:
  * @param  hspi pointer to a SPI_HandleTypeDef structure that contains
  *               the configuration information for SPI module.
  * @retval None
  */
__weak void HAL_SPI_TxHalfCpltCallback(SPI_HandleTypeDef *hspi)
{
 8007e04:	b480      	push	{r7}
 8007e06:	b083      	sub	sp, #12
 8007e08:	af00      	add	r7, sp, #0
 8007e0a:	6078      	str	r0, [r7, #4]
  UNUSED(hspi);

  /* NOTE : This function should not be modified, when the callback is needed,
            the HAL_SPI_TxHalfCpltCallback should be implemented in the user file
   */
}
 8007e0c:	bf00      	nop
 8007e0e:	370c      	adds	r7, #12
 8007e10:	46bd      	mov	sp, r7
 8007e12:	f85d 7b04 	ldr.w	r7, [sp], #4
 8007e16:	4770      	bx	lr

08007e18 <HAL_SPI_ErrorCallback>:
  * @param  hspi pointer to a SPI_HandleTypeDef structure that contains
  *               the configuration information for SPI module.
  * @retval None
  */
__weak void HAL_SPI_ErrorCallback(SPI_HandleTypeDef *hspi)
{
 8007e18:	b480      	push	{r7}
 8007e1a:	b083      	sub	sp, #12
 8007e1c:	af00      	add	r7, sp, #0
 8007e1e:	6078      	str	r0, [r7, #4]
            the HAL_SPI_ErrorCallback should be implemented in the user file
   */
  /* NOTE : The ErrorCode parameter in the hspi handle is updated by the SPI processes
            and user can use HAL_SPI_GetError() API to check the latest error occurred
   */
}
 8007e20:	bf00      	nop
 8007e22:	370c      	adds	r7, #12
 8007e24:	46bd      	mov	sp, r7
 8007e26:	f85d 7b04 	ldr.w	r7, [sp], #4
 8007e2a:	4770      	bx	lr

08007e2c <SPI_DMATransmitCplt>:
  * @param  hdma pointer to a DMA_HandleTypeDef structure that contains
  *               the configuration information for the specified DMA module.
  * @retval None
  */
static void SPI_DMATransmitCplt(DMA_HandleTypeDef *hdma)
{
 8007e2c:	b580      	push	{r7, lr}
 8007e2e:	b086      	sub	sp, #24
 8007e30:	af00      	add	r7, sp, #0
 8007e32:	6078      	str	r0, [r7, #4]
  SPI_HandleTypeDef *hspi = (SPI_HandleTypeDef *)(((DMA_HandleTypeDef *)hdma)->Parent); /* Derogation MISRAC2012-Rule-11.5 */
 8007e34:	687b      	ldr	r3, [r7, #4]
 8007e36:	6b9b      	ldr	r3, [r3, #56]	@ 0x38
 8007e38:	617b      	str	r3, [r7, #20]
  uint32_t tickstart;

  /* Init tickstart for timeout management*/
  tickstart = HAL_GetTick();
 8007e3a:	f7fb f9e3 	bl	8003204 <HAL_GetTick>
 8007e3e:	6138      	str	r0, [r7, #16]

  /* DMA Normal Mode */
  if ((hdma->Instance->CR & DMA_SxCR_CIRC) != DMA_SxCR_CIRC)
 8007e40:	687b      	ldr	r3, [r7, #4]
 8007e42:	681b      	ldr	r3, [r3, #0]
 8007e44:	681b      	ldr	r3, [r3, #0]
 8007e46:	f403 7380 	and.w	r3, r3, #256	@ 0x100
 8007e4a:	f5b3 7f80 	cmp.w	r3, #256	@ 0x100
 8007e4e:	d03b      	beq.n	8007ec8 <SPI_DMATransmitCplt+0x9c>
  {
    /* Disable ERR interrupt */
    __HAL_SPI_DISABLE_IT(hspi, SPI_IT_ERR);
 8007e50:	697b      	ldr	r3, [r7, #20]
 8007e52:	681b      	ldr	r3, [r3, #0]
 8007e54:	685a      	ldr	r2, [r3, #4]
 8007e56:	697b      	ldr	r3, [r7, #20]
 8007e58:	681b      	ldr	r3, [r3, #0]
 8007e5a:	f022 0220 	bic.w	r2, r2, #32
 8007e5e:	605a      	str	r2, [r3, #4]

    /* Disable Tx DMA Request */
    CLEAR_BIT(hspi->Instance->CR2, SPI_CR2_TXDMAEN);
 8007e60:	697b      	ldr	r3, [r7, #20]
 8007e62:	681b      	ldr	r3, [r3, #0]
 8007e64:	685a      	ldr	r2, [r3, #4]
 8007e66:	697b      	ldr	r3, [r7, #20]
 8007e68:	681b      	ldr	r3, [r3, #0]
 8007e6a:	f022 0202 	bic.w	r2, r2, #2
 8007e6e:	605a      	str	r2, [r3, #4]

    /* Check the end of the transaction */
    if (SPI_EndRxTxTransaction(hspi, SPI_DEFAULT_TIMEOUT, tickstart) != HAL_OK)
 8007e70:	693a      	ldr	r2, [r7, #16]
 8007e72:	2164      	movs	r1, #100	@ 0x64
 8007e74:	6978      	ldr	r0, [r7, #20]
 8007e76:	f000 f949 	bl	800810c <SPI_EndRxTxTransaction>
 8007e7a:	4603      	mov	r3, r0
 8007e7c:	2b00      	cmp	r3, #0
 8007e7e:	d005      	beq.n	8007e8c <SPI_DMATransmitCplt+0x60>
    {
      SET_BIT(hspi->ErrorCode, HAL_SPI_ERROR_FLAG);
 8007e80:	697b      	ldr	r3, [r7, #20]
 8007e82:	6d5b      	ldr	r3, [r3, #84]	@ 0x54
 8007e84:	f043 0220 	orr.w	r2, r3, #32
 8007e88:	697b      	ldr	r3, [r7, #20]
 8007e8a:	655a      	str	r2, [r3, #84]	@ 0x54
    }

    /* Clear overrun flag in 2 Lines communication mode because received data is not read */
    if (hspi->Init.Direction == SPI_DIRECTION_2LINES)
 8007e8c:	697b      	ldr	r3, [r7, #20]
 8007e8e:	689b      	ldr	r3, [r3, #8]
 8007e90:	2b00      	cmp	r3, #0
 8007e92:	d10a      	bne.n	8007eaa <SPI_DMATransmitCplt+0x7e>
    {
      __HAL_SPI_CLEAR_OVRFLAG(hspi);
 8007e94:	2300      	movs	r3, #0
 8007e96:	60fb      	str	r3, [r7, #12]
 8007e98:	697b      	ldr	r3, [r7, #20]
 8007e9a:	681b      	ldr	r3, [r3, #0]
 8007e9c:	68db      	ldr	r3, [r3, #12]
 8007e9e:	60fb      	str	r3, [r7, #12]
 8007ea0:	697b      	ldr	r3, [r7, #20]
 8007ea2:	681b      	ldr	r3, [r3, #0]
 8007ea4:	689b      	ldr	r3, [r3, #8]
 8007ea6:	60fb      	str	r3, [r7, #12]
 8007ea8:	68fb      	ldr	r3, [r7, #12]
    }

    hspi->TxXferCount = 0U;
 8007eaa:	697b      	ldr	r3, [r7, #20]
 8007eac:	2200      	movs	r2, #0
 8007eae:	86da      	strh	r2, [r3, #54]	@ 0x36
    hspi->State = HAL_SPI_STATE_READY;
 8007eb0:	697b      	ldr	r3, [r7, #20]
 8007eb2:	2201      	movs	r2, #1
 8007eb4:	f883 2051 	strb.w	r2, [r3, #81]	@ 0x51

    if (hspi->ErrorCode != HAL_SPI_ERROR_NONE)
 8007eb8:	697b      	ldr	r3, [r7, #20]
 8007eba:	6d5b      	ldr	r3, [r3, #84]	@ 0x54
 8007ebc:	2b00      	cmp	r3, #0
 8007ebe:	d003      	beq.n	8007ec8 <SPI_DMATransmitCplt+0x9c>
    {
      /* Call user error callback */
#if (USE_HAL_SPI_REGISTER_CALLBACKS == 1U)
      hspi->ErrorCallback(hspi);
#else
      HAL_SPI_ErrorCallback(hspi);
 8007ec0:	6978      	ldr	r0, [r7, #20]
 8007ec2:	f7ff ffa9 	bl	8007e18 <HAL_SPI_ErrorCallback>
#endif /* USE_HAL_SPI_REGISTER_CALLBACKS */
      return;
 8007ec6:	e002      	b.n	8007ece <SPI_DMATransmitCplt+0xa2>
  }
  /* Call user Tx complete callback */
#if (USE_HAL_SPI_REGISTER_CALLBACKS == 1U)
  hspi->TxCpltCallback(hspi);
#else
  HAL_SPI_TxCpltCallback(hspi);
 8007ec8:	6978      	ldr	r0, [r7, #20]
 8007eca:	f7fb f865 	bl	8002f98 <HAL_SPI_TxCpltCallback>
#endif /* USE_HAL_SPI_REGISTER_CALLBACKS */
}
 8007ece:	3718      	adds	r7, #24
 8007ed0:	46bd      	mov	sp, r7
 8007ed2:	bd80      	pop	{r7, pc}

08007ed4 <SPI_DMAHalfTransmitCplt>:
  * @param  hdma pointer to a DMA_HandleTypeDef structure that contains
  *               the configuration information for the specified DMA module.
  * @retval None
  */
static void SPI_DMAHalfTransmitCplt(DMA_HandleTypeDef *hdma)
{
 8007ed4:	b580      	push	{r7, lr}
 8007ed6:	b084      	sub	sp, #16
 8007ed8:	af00      	add	r7, sp, #0
 8007eda:	6078      	str	r0, [r7, #4]
  SPI_HandleTypeDef *hspi = (SPI_HandleTypeDef *)(((DMA_HandleTypeDef *)hdma)->Parent); /* Derogation MISRAC2012-Rule-11.5 */
 8007edc:	687b      	ldr	r3, [r7, #4]
 8007ede:	6b9b      	ldr	r3, [r3, #56]	@ 0x38
 8007ee0:	60fb      	str	r3, [r7, #12]

  /* Call user Tx half complete callback */
#if (USE_HAL_SPI_REGISTER_CALLBACKS == 1U)
  hspi->TxHalfCpltCallback(hspi);
#else
  HAL_SPI_TxHalfCpltCallback(hspi);
 8007ee2:	68f8      	ldr	r0, [r7, #12]
 8007ee4:	f7ff ff8e 	bl	8007e04 <HAL_SPI_TxHalfCpltCallback>
#endif /* USE_HAL_SPI_REGISTER_CALLBACKS */
}
 8007ee8:	bf00      	nop
 8007eea:	3710      	adds	r7, #16
 8007eec:	46bd      	mov	sp, r7
 8007eee:	bd80      	pop	{r7, pc}

08007ef0 <SPI_DMAError>:
  * @param  hdma pointer to a DMA_HandleTypeDef structure that contains
  *               the configuration information for the specified DMA module.
  * @retval None
  */
static void SPI_DMAError(DMA_HandleTypeDef *hdma)
{
 8007ef0:	b580      	push	{r7, lr}
 8007ef2:	b084      	sub	sp, #16
 8007ef4:	af00      	add	r7, sp, #0
 8007ef6:	6078      	str	r0, [r7, #4]
  SPI_HandleTypeDef *hspi = (SPI_HandleTypeDef *)(((DMA_HandleTypeDef *)hdma)->Parent); /* Derogation MISRAC2012-Rule-11.5 */
 8007ef8:	687b      	ldr	r3, [r7, #4]
 8007efa:	6b9b      	ldr	r3, [r3, #56]	@ 0x38
 8007efc:	60fb      	str	r3, [r7, #12]

  /* Stop the disable DMA transfer on SPI side */
  CLEAR_BIT(hspi->Instance->CR2, SPI_CR2_TXDMAEN | SPI_CR2_RXDMAEN);
 8007efe:	68fb      	ldr	r3, [r7, #12]
 8007f00:	681b      	ldr	r3, [r3, #0]
 8007f02:	685a      	ldr	r2, [r3, #4]
 8007f04:	68fb      	ldr	r3, [r7, #12]
 8007f06:	681b      	ldr	r3, [r3, #0]
 8007f08:	f022 0203 	bic.w	r2, r2, #3
 8007f0c:	605a      	str	r2, [r3, #4]

  SET_BIT(hspi->ErrorCode, HAL_SPI_ERROR_DMA);
 8007f0e:	68fb      	ldr	r3, [r7, #12]
 8007f10:	6d5b      	ldr	r3, [r3, #84]	@ 0x54
 8007f12:	f043 0210 	orr.w	r2, r3, #16
 8007f16:	68fb      	ldr	r3, [r7, #12]
 8007f18:	655a      	str	r2, [r3, #84]	@ 0x54
  hspi->State = HAL_SPI_STATE_READY;
 8007f1a:	68fb      	ldr	r3, [r7, #12]
 8007f1c:	2201      	movs	r2, #1
 8007f1e:	f883 2051 	strb.w	r2, [r3, #81]	@ 0x51
  /* Call user error callback */
#if (USE_HAL_SPI_REGISTER_CALLBACKS == 1U)
  hspi->ErrorCallback(hspi);
#else
  HAL_SPI_ErrorCallback(hspi);
 8007f22:	68f8      	ldr	r0, [r7, #12]
 8007f24:	f7ff ff78 	bl	8007e18 <HAL_SPI_ErrorCallback>
#endif /* USE_HAL_SPI_REGISTER_CALLBACKS */
}
 8007f28:	bf00      	nop
 8007f2a:	3710      	adds	r7, #16
 8007f2c:	46bd      	mov	sp, r7
 8007f2e:	bd80      	pop	{r7, pc}

08007f30 <SPI_WaitFlagStateUntilTimeout>:
  * @param  Tickstart tick start value
  * @retval HAL status
  */
static HAL_StatusTypeDef SPI_WaitFlagStateUntilTimeout(SPI_HandleTypeDef *hspi, uint32_t Flag, FlagStatus State,
                                                       uint32_t Timeout, uint32_t Tickstart)
{
 8007f30:	b580      	push	{r7, lr}
 8007f32:	b088      	sub	sp, #32
 8007f34:	af00      	add	r7, sp, #0
 8007f36:	60f8      	str	r0, [r7, #12]
 8007f38:	60b9      	str	r1, [r7, #8]
 8007f3a:	603b      	str	r3, [r7, #0]
 8007f3c:	4613      	mov	r3, r2
 8007f3e:	71fb      	strb	r3, [r7, #7]
  __IO uint32_t count;
  uint32_t tmp_timeout;
  uint32_t tmp_tickstart;

  /* Adjust Timeout value  in case of end of transfer */
  tmp_timeout   = Timeout - (HAL_GetTick() - Tickstart);
 8007f40:	f7fb f960 	bl	8003204 <HAL_GetTick>
 8007f44:	4602      	mov	r2, r0
 8007f46:	6abb      	ldr	r3, [r7, #40]	@ 0x28
 8007f48:	1a9b      	subs	r3, r3, r2
 8007f4a:	683a      	ldr	r2, [r7, #0]
 8007f4c:	4413      	add	r3, r2
 8007f4e:	61fb      	str	r3, [r7, #28]
  tmp_tickstart = HAL_GetTick();
 8007f50:	f7fb f958 	bl	8003204 <HAL_GetTick>
 8007f54:	61b8      	str	r0, [r7, #24]

  /* Calculate Timeout based on a software loop to avoid blocking issue if Systick is disabled */
  count = tmp_timeout * ((SystemCoreClock * 32U) >> 20U);
 8007f56:	4b39      	ldr	r3, [pc, #228]	@ (800803c <SPI_WaitFlagStateUntilTimeout+0x10c>)
 8007f58:	681b      	ldr	r3, [r3, #0]
 8007f5a:	015b      	lsls	r3, r3, #5
 8007f5c:	0d1b      	lsrs	r3, r3, #20
 8007f5e:	69fa      	ldr	r2, [r7, #28]
 8007f60:	fb02 f303 	mul.w	r3, r2, r3
 8007f64:	617b      	str	r3, [r7, #20]

  while ((__HAL_SPI_GET_FLAG(hspi, Flag) ? SET : RESET) != State)
 8007f66:	e054      	b.n	8008012 <SPI_WaitFlagStateUntilTimeout+0xe2>
  {
    if (Timeout != HAL_MAX_DELAY)
 8007f68:	683b      	ldr	r3, [r7, #0]
 8007f6a:	f1b3 3fff 	cmp.w	r3, #4294967295	@ 0xffffffff
 8007f6e:	d050      	beq.n	8008012 <SPI_WaitFlagStateUntilTimeout+0xe2>
    {
      if (((HAL_GetTick() - tmp_tickstart) >= tmp_timeout) || (tmp_timeout == 0U))
 8007f70:	f7fb f948 	bl	8003204 <HAL_GetTick>
 8007f74:	4602      	mov	r2, r0
 8007f76:	69bb      	ldr	r3, [r7, #24]
 8007f78:	1ad3      	subs	r3, r2, r3
 8007f7a:	69fa      	ldr	r2, [r7, #28]
 8007f7c:	429a      	cmp	r2, r3
 8007f7e:	d902      	bls.n	8007f86 <SPI_WaitFlagStateUntilTimeout+0x56>
 8007f80:	69fb      	ldr	r3, [r7, #28]
 8007f82:	2b00      	cmp	r3, #0
 8007f84:	d13d      	bne.n	8008002 <SPI_WaitFlagStateUntilTimeout+0xd2>
        /* Disable the SPI and reset the CRC: the CRC value should be cleared
           on both master and slave sides in order to resynchronize the master
           and slave for their respective CRC calculation */

        /* Disable TXE, RXNE and ERR interrupts for the interrupt process */
        __HAL_SPI_DISABLE_IT(hspi, (SPI_IT_TXE | SPI_IT_RXNE | SPI_IT_ERR));
 8007f86:	68fb      	ldr	r3, [r7, #12]
 8007f88:	681b      	ldr	r3, [r3, #0]
 8007f8a:	685a      	ldr	r2, [r3, #4]
 8007f8c:	68fb      	ldr	r3, [r7, #12]
 8007f8e:	681b      	ldr	r3, [r3, #0]
 8007f90:	f022 02e0 	bic.w	r2, r2, #224	@ 0xe0
 8007f94:	605a      	str	r2, [r3, #4]

        if ((hspi->Init.Mode == SPI_MODE_MASTER) && ((hspi->Init.Direction == SPI_DIRECTION_1LINE)
 8007f96:	68fb      	ldr	r3, [r7, #12]
 8007f98:	685b      	ldr	r3, [r3, #4]
 8007f9a:	f5b3 7f82 	cmp.w	r3, #260	@ 0x104
 8007f9e:	d111      	bne.n	8007fc4 <SPI_WaitFlagStateUntilTimeout+0x94>
 8007fa0:	68fb      	ldr	r3, [r7, #12]
 8007fa2:	689b      	ldr	r3, [r3, #8]
 8007fa4:	f5b3 4f00 	cmp.w	r3, #32768	@ 0x8000
 8007fa8:	d004      	beq.n	8007fb4 <SPI_WaitFlagStateUntilTimeout+0x84>
                                                     || (hspi->Init.Direction == SPI_DIRECTION_2LINES_RXONLY)))
 8007faa:	68fb      	ldr	r3, [r7, #12]
 8007fac:	689b      	ldr	r3, [r3, #8]
 8007fae:	f5b3 6f80 	cmp.w	r3, #1024	@ 0x400
 8007fb2:	d107      	bne.n	8007fc4 <SPI_WaitFlagStateUntilTimeout+0x94>
        {
          /* Disable SPI peripheral */
          __HAL_SPI_DISABLE(hspi);
 8007fb4:	68fb      	ldr	r3, [r7, #12]
 8007fb6:	681b      	ldr	r3, [r3, #0]
 8007fb8:	681a      	ldr	r2, [r3, #0]
 8007fba:	68fb      	ldr	r3, [r7, #12]
 8007fbc:	681b      	ldr	r3, [r3, #0]
 8007fbe:	f022 0240 	bic.w	r2, r2, #64	@ 0x40
 8007fc2:	601a      	str	r2, [r3, #0]
        }

        /* Reset CRC Calculation */
        if (hspi->Init.CRCCalculation == SPI_CRCCALCULATION_ENABLE)
 8007fc4:	68fb      	ldr	r3, [r7, #12]
 8007fc6:	6a9b      	ldr	r3, [r3, #40]	@ 0x28
 8007fc8:	f5b3 5f00 	cmp.w	r3, #8192	@ 0x2000
 8007fcc:	d10f      	bne.n	8007fee <SPI_WaitFlagStateUntilTimeout+0xbe>
        {
          SPI_RESET_CRC(hspi);
 8007fce:	68fb      	ldr	r3, [r7, #12]
 8007fd0:	681b      	ldr	r3, [r3, #0]
 8007fd2:	681a      	ldr	r2, [r3, #0]
 8007fd4:	68fb      	ldr	r3, [r7, #12]
 8007fd6:	681b      	ldr	r3, [r3, #0]
 8007fd8:	f422 5200 	bic.w	r2, r2, #8192	@ 0x2000
 8007fdc:	601a      	str	r2, [r3, #0]
 8007fde:	68fb      	ldr	r3, [r7, #12]
 8007fe0:	681b      	ldr	r3, [r3, #0]
 8007fe2:	681a      	ldr	r2, [r3, #0]
 8007fe4:	68fb      	ldr	r3, [r7, #12]
 8007fe6:	681b      	ldr	r3, [r3, #0]
 8007fe8:	f442 5200 	orr.w	r2, r2, #8192	@ 0x2000
 8007fec:	601a      	str	r2, [r3, #0]
        }

        hspi->State = HAL_SPI_STATE_READY;
 8007fee:	68fb      	ldr	r3, [r7, #12]
 8007ff0:	2201      	movs	r2, #1
 8007ff2:	f883 2051 	strb.w	r2, [r3, #81]	@ 0x51

        /* Process Unlocked */
        __HAL_UNLOCK(hspi);
 8007ff6:	68fb      	ldr	r3, [r7, #12]
 8007ff8:	2200      	movs	r2, #0
 8007ffa:	f883 2050 	strb.w	r2, [r3, #80]	@ 0x50

        return HAL_TIMEOUT;
 8007ffe:	2303      	movs	r3, #3
 8008000:	e017      	b.n	8008032 <SPI_WaitFlagStateUntilTimeout+0x102>
      }
      /* If Systick is disabled or not incremented, deactivate timeout to go in disable loop procedure */
      if (count == 0U)
 8008002:	697b      	ldr	r3, [r7, #20]
 8008004:	2b00      	cmp	r3, #0
 8008006:	d101      	bne.n	800800c <SPI_WaitFlagStateUntilTimeout+0xdc>
      {
        tmp_timeout = 0U;
 8008008:	2300      	movs	r3, #0
 800800a:	61fb      	str	r3, [r7, #28]
      }
      count--;
 800800c:	697b      	ldr	r3, [r7, #20]
 800800e:	3b01      	subs	r3, #1
 8008010:	617b      	str	r3, [r7, #20]
  while ((__HAL_SPI_GET_FLAG(hspi, Flag) ? SET : RESET) != State)
 8008012:	68fb      	ldr	r3, [r7, #12]
 8008014:	681b      	ldr	r3, [r3, #0]
 8008016:	689a      	ldr	r2, [r3, #8]
 8008018:	68bb      	ldr	r3, [r7, #8]
 800801a:	4013      	ands	r3, r2
 800801c:	68ba      	ldr	r2, [r7, #8]
 800801e:	429a      	cmp	r2, r3
 8008020:	bf0c      	ite	eq
 8008022:	2301      	moveq	r3, #1
 8008024:	2300      	movne	r3, #0
 8008026:	b2db      	uxtb	r3, r3
 8008028:	461a      	mov	r2, r3
 800802a:	79fb      	ldrb	r3, [r7, #7]
 800802c:	429a      	cmp	r2, r3
 800802e:	d19b      	bne.n	8007f68 <SPI_WaitFlagStateUntilTimeout+0x38>
    }
  }

  return HAL_OK;
 8008030:	2300      	movs	r3, #0
}
 8008032:	4618      	mov	r0, r3
 8008034:	3720      	adds	r7, #32
 8008036:	46bd      	mov	sp, r7
 8008038:	bd80      	pop	{r7, pc}
 800803a:	bf00      	nop
 800803c:	2000001c 	.word	0x2000001c

08008040 <SPI_EndRxTransaction>:
  * @param  Timeout Timeout duration
  * @param  Tickstart tick start value
  * @retval HAL status
  */
static HAL_StatusTypeDef SPI_EndRxTransaction(SPI_HandleTypeDef *hspi,  uint32_t Timeout, uint32_t Tickstart)
{
 8008040:	b580      	push	{r7, lr}
 8008042:	b086      	sub	sp, #24
 8008044:	af02      	add	r7, sp, #8
 8008046:	60f8      	str	r0, [r7, #12]
 8008048:	60b9      	str	r1, [r7, #8]
 800804a:	607a      	str	r2, [r7, #4]
  if ((hspi->Init.Mode == SPI_MODE_MASTER) && ((hspi->Init.Direction == SPI_DIRECTION_1LINE)
 800804c:	68fb      	ldr	r3, [r7, #12]
 800804e:	685b      	ldr	r3, [r3, #4]
 8008050:	f5b3 7f82 	cmp.w	r3, #260	@ 0x104
 8008054:	d111      	bne.n	800807a <SPI_EndRxTransaction+0x3a>
 8008056:	68fb      	ldr	r3, [r7, #12]
 8008058:	689b      	ldr	r3, [r3, #8]
 800805a:	f5b3 4f00 	cmp.w	r3, #32768	@ 0x8000
 800805e:	d004      	beq.n	800806a <SPI_EndRxTransaction+0x2a>
                                               || (hspi->Init.Direction == SPI_DIRECTION_2LINES_RXONLY)))
 8008060:	68fb      	ldr	r3, [r7, #12]
 8008062:	689b      	ldr	r3, [r3, #8]
 8008064:	f5b3 6f80 	cmp.w	r3, #1024	@ 0x400
 8008068:	d107      	bne.n	800807a <SPI_EndRxTransaction+0x3a>
  {
    /* Disable SPI peripheral */
    __HAL_SPI_DISABLE(hspi);
 800806a:	68fb      	ldr	r3, [r7, #12]
 800806c:	681b      	ldr	r3, [r3, #0]
 800806e:	681a      	ldr	r2, [r3, #0]
 8008070:	68fb      	ldr	r3, [r7, #12]
 8008072:	681b      	ldr	r3, [r3, #0]
 8008074:	f022 0240 	bic.w	r2, r2, #64	@ 0x40
 8008078:	601a      	str	r2, [r3, #0]
  }

  /* Erratasheet: BSY bit may stay high at the end of a data transfer in Slave mode */
  if (hspi->Init.Mode == SPI_MODE_MASTER)
 800807a:	68fb      	ldr	r3, [r7, #12]
 800807c:	685b      	ldr	r3, [r3, #4]
 800807e:	f5b3 7f82 	cmp.w	r3, #260	@ 0x104
 8008082:	d12a      	bne.n	80080da <SPI_EndRxTransaction+0x9a>
  {
    if (hspi->Init.Direction != SPI_DIRECTION_2LINES_RXONLY)
 8008084:	68fb      	ldr	r3, [r7, #12]
 8008086:	689b      	ldr	r3, [r3, #8]
 8008088:	f5b3 6f80 	cmp.w	r3, #1024	@ 0x400
 800808c:	d012      	beq.n	80080b4 <SPI_EndRxTransaction+0x74>
    {
      /* Control the BSY flag */
      if (SPI_WaitFlagStateUntilTimeout(hspi, SPI_FLAG_BSY, RESET, Timeout, Tickstart) != HAL_OK)
 800808e:	687b      	ldr	r3, [r7, #4]
 8008090:	9300      	str	r3, [sp, #0]
 8008092:	68bb      	ldr	r3, [r7, #8]
 8008094:	2200      	movs	r2, #0
 8008096:	2180      	movs	r1, #128	@ 0x80
 8008098:	68f8      	ldr	r0, [r7, #12]
 800809a:	f7ff ff49 	bl	8007f30 <SPI_WaitFlagStateUntilTimeout>
 800809e:	4603      	mov	r3, r0
 80080a0:	2b00      	cmp	r3, #0
 80080a2:	d02d      	beq.n	8008100 <SPI_EndRxTransaction+0xc0>
      {
        SET_BIT(hspi->ErrorCode, HAL_SPI_ERROR_FLAG);
 80080a4:	68fb      	ldr	r3, [r7, #12]
 80080a6:	6d5b      	ldr	r3, [r3, #84]	@ 0x54
 80080a8:	f043 0220 	orr.w	r2, r3, #32
 80080ac:	68fb      	ldr	r3, [r7, #12]
 80080ae:	655a      	str	r2, [r3, #84]	@ 0x54
        return HAL_TIMEOUT;
 80080b0:	2303      	movs	r3, #3
 80080b2:	e026      	b.n	8008102 <SPI_EndRxTransaction+0xc2>
      }
    }
    else
    {
      /* Wait the RXNE reset */
      if (SPI_WaitFlagStateUntilTimeout(hspi, SPI_FLAG_RXNE, RESET, Timeout, Tickstart) != HAL_OK)
 80080b4:	687b      	ldr	r3, [r7, #4]
 80080b6:	9300      	str	r3, [sp, #0]
 80080b8:	68bb      	ldr	r3, [r7, #8]
 80080ba:	2200      	movs	r2, #0
 80080bc:	2101      	movs	r1, #1
 80080be:	68f8      	ldr	r0, [r7, #12]
 80080c0:	f7ff ff36 	bl	8007f30 <SPI_WaitFlagStateUntilTimeout>
 80080c4:	4603      	mov	r3, r0
 80080c6:	2b00      	cmp	r3, #0
 80080c8:	d01a      	beq.n	8008100 <SPI_EndRxTransaction+0xc0>
      {
        SET_BIT(hspi->ErrorCode, HAL_SPI_ERROR_FLAG);
 80080ca:	68fb      	ldr	r3, [r7, #12]
 80080cc:	6d5b      	ldr	r3, [r3, #84]	@ 0x54
 80080ce:	f043 0220 	orr.w	r2, r3, #32
 80080d2:	68fb      	ldr	r3, [r7, #12]
 80080d4:	655a      	str	r2, [r3, #84]	@ 0x54
        return HAL_TIMEOUT;
 80080d6:	2303      	movs	r3, #3
 80080d8:	e013      	b.n	8008102 <SPI_EndRxTransaction+0xc2>
    }
  }
  else
  {
    /* Wait the RXNE reset */
    if (SPI_WaitFlagStateUntilTimeout(hspi, SPI_FLAG_RXNE, RESET, Timeout, Tickstart) != HAL_OK)
 80080da:	687b      	ldr	r3, [r7, #4]
 80080dc:	9300      	str	r3, [sp, #0]
 80080de:	68bb      	ldr	r3, [r7, #8]
 80080e0:	2200      	movs	r2, #0
 80080e2:	2101      	movs	r1, #1
 80080e4:	68f8      	ldr	r0, [r7, #12]
 80080e6:	f7ff ff23 	bl	8007f30 <SPI_WaitFlagStateUntilTimeout>
 80080ea:	4603      	mov	r3, r0
 80080ec:	2b00      	cmp	r3, #0
 80080ee:	d007      	beq.n	8008100 <SPI_EndRxTransaction+0xc0>
    {
      SET_BIT(hspi->ErrorCode, HAL_SPI_ERROR_FLAG);
 80080f0:	68fb      	ldr	r3, [r7, #12]
 80080f2:	6d5b      	ldr	r3, [r3, #84]	@ 0x54
 80080f4:	f043 0220 	orr.w	r2, r3, #32
 80080f8:	68fb      	ldr	r3, [r7, #12]
 80080fa:	655a      	str	r2, [r3, #84]	@ 0x54
      return HAL_TIMEOUT;
 80080fc:	2303      	movs	r3, #3
 80080fe:	e000      	b.n	8008102 <SPI_EndRxTransaction+0xc2>
    }
  }
  return HAL_OK;
 8008100:	2300      	movs	r3, #0
}
 8008102:	4618      	mov	r0, r3
 8008104:	3710      	adds	r7, #16
 8008106:	46bd      	mov	sp, r7
 8008108:	bd80      	pop	{r7, pc}
	...

0800810c <SPI_EndRxTxTransaction>:
  * @param  Timeout Timeout duration
  * @param  Tickstart tick start value
  * @retval HAL status
  */
static HAL_StatusTypeDef SPI_EndRxTxTransaction(SPI_HandleTypeDef *hspi, uint32_t Timeout, uint32_t Tickstart)
{
 800810c:	b580      	push	{r7, lr}
 800810e:	b088      	sub	sp, #32
 8008110:	af02      	add	r7, sp, #8
 8008112:	60f8      	str	r0, [r7, #12]
 8008114:	60b9      	str	r1, [r7, #8]
 8008116:	607a      	str	r2, [r7, #4]
  /* Wait until TXE flag */
  if(SPI_WaitFlagStateUntilTimeout(hspi, SPI_FLAG_TXE, SET, Timeout, Tickstart) != HAL_OK)
 8008118:	687b      	ldr	r3, [r7, #4]
 800811a:	9300      	str	r3, [sp, #0]
 800811c:	68bb      	ldr	r3, [r7, #8]
 800811e:	2201      	movs	r2, #1
 8008120:	2102      	movs	r1, #2
 8008122:	68f8      	ldr	r0, [r7, #12]
 8008124:	f7ff ff04 	bl	8007f30 <SPI_WaitFlagStateUntilTimeout>
 8008128:	4603      	mov	r3, r0
 800812a:	2b00      	cmp	r3, #0
 800812c:	d007      	beq.n	800813e <SPI_EndRxTxTransaction+0x32>
  {
    SET_BIT(hspi->ErrorCode, HAL_SPI_ERROR_FLAG);
 800812e:	68fb      	ldr	r3, [r7, #12]
 8008130:	6d5b      	ldr	r3, [r3, #84]	@ 0x54
 8008132:	f043 0220 	orr.w	r2, r3, #32
 8008136:	68fb      	ldr	r3, [r7, #12]
 8008138:	655a      	str	r2, [r3, #84]	@ 0x54
    return HAL_TIMEOUT;
 800813a:	2303      	movs	r3, #3
 800813c:	e032      	b.n	80081a4 <SPI_EndRxTxTransaction+0x98>
  }

  /* Timeout in s */
  __IO uint32_t count = SPI_BSY_FLAG_WORKAROUND_TIMEOUT * (SystemCoreClock / 24U / 1000000U);
 800813e:	4b1b      	ldr	r3, [pc, #108]	@ (80081ac <SPI_EndRxTxTransaction+0xa0>)
 8008140:	681b      	ldr	r3, [r3, #0]
 8008142:	4a1b      	ldr	r2, [pc, #108]	@ (80081b0 <SPI_EndRxTxTransaction+0xa4>)
 8008144:	fba2 2303 	umull	r2, r3, r2, r3
 8008148:	0d5b      	lsrs	r3, r3, #21
 800814a:	f44f 727a 	mov.w	r2, #1000	@ 0x3e8
 800814e:	fb02 f303 	mul.w	r3, r2, r3
 8008152:	617b      	str	r3, [r7, #20]
  /* Erratasheet: BSY bit may stay high at the end of a data transfer in Slave mode */
  if (hspi->Init.Mode == SPI_MODE_MASTER)
 8008154:	68fb      	ldr	r3, [r7, #12]
 8008156:	685b      	ldr	r3, [r3, #4]
 8008158:	f5b3 7f82 	cmp.w	r3, #260	@ 0x104
 800815c:	d112      	bne.n	8008184 <SPI_EndRxTxTransaction+0x78>
  {
    /* Control the BSY flag */
    if (SPI_WaitFlagStateUntilTimeout(hspi, SPI_FLAG_BSY, RESET, Timeout, Tickstart) != HAL_OK)
 800815e:	687b      	ldr	r3, [r7, #4]
 8008160:	9300      	str	r3, [sp, #0]
 8008162:	68bb      	ldr	r3, [r7, #8]
 8008164:	2200      	movs	r2, #0
 8008166:	2180      	movs	r1, #128	@ 0x80
 8008168:	68f8      	ldr	r0, [r7, #12]
 800816a:	f7ff fee1 	bl	8007f30 <SPI_WaitFlagStateUntilTimeout>
 800816e:	4603      	mov	r3, r0
 8008170:	2b00      	cmp	r3, #0
 8008172:	d016      	beq.n	80081a2 <SPI_EndRxTxTransaction+0x96>
    {
      SET_BIT(hspi->ErrorCode, HAL_SPI_ERROR_FLAG);
 8008174:	68fb      	ldr	r3, [r7, #12]
 8008176:	6d5b      	ldr	r3, [r3, #84]	@ 0x54
 8008178:	f043 0220 	orr.w	r2, r3, #32
 800817c:	68fb      	ldr	r3, [r7, #12]
 800817e:	655a      	str	r2, [r3, #84]	@ 0x54
      return HAL_TIMEOUT;
 8008180:	2303      	movs	r3, #3
 8008182:	e00f      	b.n	80081a4 <SPI_EndRxTxTransaction+0x98>
    * User have to calculate the timeout value to fit with the time of 1 byte transfer.
    * This time is directly link with the SPI clock from Master device.
    */
    do
    {
      if (count == 0U)
 8008184:	697b      	ldr	r3, [r7, #20]
 8008186:	2b00      	cmp	r3, #0
 8008188:	d00a      	beq.n	80081a0 <SPI_EndRxTxTransaction+0x94>
      {
        break;
      }
      count--;
 800818a:	697b      	ldr	r3, [r7, #20]
 800818c:	3b01      	subs	r3, #1
 800818e:	617b      	str	r3, [r7, #20]
    } while (__HAL_SPI_GET_FLAG(hspi, SPI_FLAG_BSY) != RESET);
 8008190:	68fb      	ldr	r3, [r7, #12]
 8008192:	681b      	ldr	r3, [r3, #0]
 8008194:	689b      	ldr	r3, [r3, #8]
 8008196:	f003 0380 	and.w	r3, r3, #128	@ 0x80
 800819a:	2b80      	cmp	r3, #128	@ 0x80
 800819c:	d0f2      	beq.n	8008184 <SPI_EndRxTxTransaction+0x78>
 800819e:	e000      	b.n	80081a2 <SPI_EndRxTxTransaction+0x96>
        break;
 80081a0:	bf00      	nop
  }

  return HAL_OK;
 80081a2:	2300      	movs	r3, #0
}
 80081a4:	4618      	mov	r0, r3
 80081a6:	3718      	adds	r7, #24
 80081a8:	46bd      	mov	sp, r7
 80081aa:	bd80      	pop	{r7, pc}
 80081ac:	2000001c 	.word	0x2000001c
 80081b0:	165e9f81 	.word	0x165e9f81

080081b4 <HAL_TIM_Base_Init>:
  *         Ex: call @ref HAL_TIM_Base_DeInit() before HAL_TIM_Base_Init()
  * @param  htim TIM Base handle
  * @retval HAL status
  */
HAL_StatusTypeDef HAL_TIM_Base_Init(TIM_HandleTypeDef *htim)
{
 80081b4:	b580      	push	{r7, lr}
 80081b6:	b082      	sub	sp, #8
 80081b8:	af00      	add	r7, sp, #0
 80081ba:	6078      	str	r0, [r7, #4]
  /* Check the TIM handle allocation */
  if (htim == NULL)
 80081bc:	687b      	ldr	r3, [r7, #4]
 80081be:	2b00      	cmp	r3, #0
 80081c0:	d101      	bne.n	80081c6 <HAL_TIM_Base_Init+0x12>
  {
    return HAL_ERROR;
 80081c2:	2301      	movs	r3, #1
 80081c4:	e041      	b.n	800824a <HAL_TIM_Base_Init+0x96>
  assert_param(IS_TIM_COUNTER_MODE(htim->Init.CounterMode));
  assert_param(IS_TIM_CLOCKDIVISION_DIV(htim->Init.ClockDivision));
  assert_param(IS_TIM_PERIOD(htim, htim->Init.Period));
  assert_param(IS_TIM_AUTORELOAD_PRELOAD(htim->Init.AutoReloadPreload));

  if (htim->State == HAL_TIM_STATE_RESET)
 80081c6:	687b      	ldr	r3, [r7, #4]
 80081c8:	f893 303d 	ldrb.w	r3, [r3, #61]	@ 0x3d
 80081cc:	b2db      	uxtb	r3, r3
 80081ce:	2b00      	cmp	r3, #0
 80081d0:	d106      	bne.n	80081e0 <HAL_TIM_Base_Init+0x2c>
  {
    /* Allocate lock resource and initialize it */
    htim->Lock = HAL_UNLOCKED;
 80081d2:	687b      	ldr	r3, [r7, #4]
 80081d4:	2200      	movs	r2, #0
 80081d6:	f883 203c 	strb.w	r2, [r3, #60]	@ 0x3c
    }
    /* Init the low level hardware : GPIO, CLOCK, NVIC */
    htim->Base_MspInitCallback(htim);
#else
    /* Init the low level hardware : GPIO, CLOCK, NVIC */
    HAL_TIM_Base_MspInit(htim);
 80081da:	6878      	ldr	r0, [r7, #4]
 80081dc:	f7fa fd94 	bl	8002d08 <HAL_TIM_Base_MspInit>
#endif /* USE_HAL_TIM_REGISTER_CALLBACKS */
  }

  /* Set the TIM state */
  htim->State = HAL_TIM_STATE_BUSY;
 80081e0:	687b      	ldr	r3, [r7, #4]
 80081e2:	2202      	movs	r2, #2
 80081e4:	f883 203d 	strb.w	r2, [r3, #61]	@ 0x3d

  /* Set the Time Base configuration */
  TIM_Base_SetConfig(htim->Instance, &htim->Init);
 80081e8:	687b      	ldr	r3, [r7, #4]
 80081ea:	681a      	ldr	r2, [r3, #0]
 80081ec:	687b      	ldr	r3, [r7, #4]
 80081ee:	3304      	adds	r3, #4
 80081f0:	4619      	mov	r1, r3
 80081f2:	4610      	mov	r0, r2
 80081f4:	f000 f9c0 	bl	8008578 <TIM_Base_SetConfig>

  /* Initialize the DMA burst operation state */
  htim->DMABurstState = HAL_DMA_BURST_STATE_READY;
 80081f8:	687b      	ldr	r3, [r7, #4]
 80081fa:	2201      	movs	r2, #1
 80081fc:	f883 2046 	strb.w	r2, [r3, #70]	@ 0x46

  /* Initialize the TIM channels state */
  TIM_CHANNEL_STATE_SET_ALL(htim, HAL_TIM_CHANNEL_STATE_READY);
 8008200:	687b      	ldr	r3, [r7, #4]
 8008202:	2201      	movs	r2, #1
 8008204:	f883 203e 	strb.w	r2, [r3, #62]	@ 0x3e
 8008208:	687b      	ldr	r3, [r7, #4]
 800820a:	2201      	movs	r2, #1
 800820c:	f883 203f 	strb.w	r2, [r3, #63]	@ 0x3f
 8008210:	687b      	ldr	r3, [r7, #4]
 8008212:	2201      	movs	r2, #1
 8008214:	f883 2040 	strb.w	r2, [r3, #64]	@ 0x40
 8008218:	687b      	ldr	r3, [r7, #4]
 800821a:	2201      	movs	r2, #1
 800821c:	f883 2041 	strb.w	r2, [r3, #65]	@ 0x41
  TIM_CHANNEL_N_STATE_SET_ALL(htim, HAL_TIM_CHANNEL_STATE_READY);
 8008220:	687b      	ldr	r3, [r7, #4]
 8008222:	2201      	movs	r2, #1
 8008224:	f883 2042 	strb.w	r2, [r3, #66]	@ 0x42
 8008228:	687b      	ldr	r3, [r7, #4]
 800822a:	2201      	movs	r2, #1
 800822c:	f883 2043 	strb.w	r2, [r3, #67]	@ 0x43
 8008230:	687b      	ldr	r3, [r7, #4]
 8008232:	2201      	movs	r2, #1
 8008234:	f883 2044 	strb.w	r2, [r3, #68]	@ 0x44
 8008238:	687b      	ldr	r3, [r7, #4]
 800823a:	2201      	movs	r2, #1
 800823c:	f883 2045 	strb.w	r2, [r3, #69]	@ 0x45

  /* Initialize the TIM state*/
  htim->State = HAL_TIM_STATE_READY;
 8008240:	687b      	ldr	r3, [r7, #4]
 8008242:	2201      	movs	r2, #1
 8008244:	f883 203d 	strb.w	r2, [r3, #61]	@ 0x3d

  return HAL_OK;
 8008248:	2300      	movs	r3, #0
}
 800824a:	4618      	mov	r0, r3
 800824c:	3708      	adds	r7, #8
 800824e:	46bd      	mov	sp, r7
 8008250:	bd80      	pop	{r7, pc}
	...

08008254 <HAL_TIM_Base_Start_IT>:
  * @brief  Starts the TIM Base generation in interrupt mode.
  * @param  htim TIM Base handle
  * @retval HAL status
  */
HAL_StatusTypeDef HAL_TIM_Base_Start_IT(TIM_HandleTypeDef *htim)
{
 8008254:	b480      	push	{r7}
 8008256:	b085      	sub	sp, #20
 8008258:	af00      	add	r7, sp, #0
 800825a:	6078      	str	r0, [r7, #4]

  /* Check the parameters */
  assert_param(IS_TIM_INSTANCE(htim->Instance));

  /* Check the TIM state */
  if (htim->State != HAL_TIM_STATE_READY)
 800825c:	687b      	ldr	r3, [r7, #4]
 800825e:	f893 303d 	ldrb.w	r3, [r3, #61]	@ 0x3d
 8008262:	b2db      	uxtb	r3, r3
 8008264:	2b01      	cmp	r3, #1
 8008266:	d001      	beq.n	800826c <HAL_TIM_Base_Start_IT+0x18>
  {
    return HAL_ERROR;
 8008268:	2301      	movs	r3, #1
 800826a:	e04e      	b.n	800830a <HAL_TIM_Base_Start_IT+0xb6>
  }

  /* Set the TIM state */
  htim->State = HAL_TIM_STATE_BUSY;
 800826c:	687b      	ldr	r3, [r7, #4]
 800826e:	2202      	movs	r2, #2
 8008270:	f883 203d 	strb.w	r2, [r3, #61]	@ 0x3d

  /* Enable the TIM Update interrupt */
  __HAL_TIM_ENABLE_IT(htim, TIM_IT_UPDATE);
 8008274:	687b      	ldr	r3, [r7, #4]
 8008276:	681b      	ldr	r3, [r3, #0]
 8008278:	68da      	ldr	r2, [r3, #12]
 800827a:	687b      	ldr	r3, [r7, #4]
 800827c:	681b      	ldr	r3, [r3, #0]
 800827e:	f042 0201 	orr.w	r2, r2, #1
 8008282:	60da      	str	r2, [r3, #12]

  /* Enable the Peripheral, except in trigger mode where enable is automatically done with trigger */
  if (IS_TIM_SLAVE_INSTANCE(htim->Instance))
 8008284:	687b      	ldr	r3, [r7, #4]
 8008286:	681b      	ldr	r3, [r3, #0]
 8008288:	4a23      	ldr	r2, [pc, #140]	@ (8008318 <HAL_TIM_Base_Start_IT+0xc4>)
 800828a:	4293      	cmp	r3, r2
 800828c:	d022      	beq.n	80082d4 <HAL_TIM_Base_Start_IT+0x80>
 800828e:	687b      	ldr	r3, [r7, #4]
 8008290:	681b      	ldr	r3, [r3, #0]
 8008292:	f1b3 4f80 	cmp.w	r3, #1073741824	@ 0x40000000
 8008296:	d01d      	beq.n	80082d4 <HAL_TIM_Base_Start_IT+0x80>
 8008298:	687b      	ldr	r3, [r7, #4]
 800829a:	681b      	ldr	r3, [r3, #0]
 800829c:	4a1f      	ldr	r2, [pc, #124]	@ (800831c <HAL_TIM_Base_Start_IT+0xc8>)
 800829e:	4293      	cmp	r3, r2
 80082a0:	d018      	beq.n	80082d4 <HAL_TIM_Base_Start_IT+0x80>
 80082a2:	687b      	ldr	r3, [r7, #4]
 80082a4:	681b      	ldr	r3, [r3, #0]
 80082a6:	4a1e      	ldr	r2, [pc, #120]	@ (8008320 <HAL_TIM_Base_Start_IT+0xcc>)
 80082a8:	4293      	cmp	r3, r2
 80082aa:	d013      	beq.n	80082d4 <HAL_TIM_Base_Start_IT+0x80>
 80082ac:	687b      	ldr	r3, [r7, #4]
 80082ae:	681b      	ldr	r3, [r3, #0]
 80082b0:	4a1c      	ldr	r2, [pc, #112]	@ (8008324 <HAL_TIM_Base_Start_IT+0xd0>)
 80082b2:	4293      	cmp	r3, r2
 80082b4:	d00e      	beq.n	80082d4 <HAL_TIM_Base_Start_IT+0x80>
 80082b6:	687b      	ldr	r3, [r7, #4]
 80082b8:	681b      	ldr	r3, [r3, #0]
 80082ba:	4a1b      	ldr	r2, [pc, #108]	@ (8008328 <HAL_TIM_Base_Start_IT+0xd4>)
 80082bc:	4293      	cmp	r3, r2
 80082be:	d009      	beq.n	80082d4 <HAL_TIM_Base_Start_IT+0x80>
 80082c0:	687b      	ldr	r3, [r7, #4]
 80082c2:	681b      	ldr	r3, [r3, #0]
 80082c4:	4a19      	ldr	r2, [pc, #100]	@ (800832c <HAL_TIM_Base_Start_IT+0xd8>)
 80082c6:	4293      	cmp	r3, r2
 80082c8:	d004      	beq.n	80082d4 <HAL_TIM_Base_Start_IT+0x80>
 80082ca:	687b      	ldr	r3, [r7, #4]
 80082cc:	681b      	ldr	r3, [r3, #0]
 80082ce:	4a18      	ldr	r2, [pc, #96]	@ (8008330 <HAL_TIM_Base_Start_IT+0xdc>)
 80082d0:	4293      	cmp	r3, r2
 80082d2:	d111      	bne.n	80082f8 <HAL_TIM_Base_Start_IT+0xa4>
  {
    tmpsmcr = htim->Instance->SMCR & TIM_SMCR_SMS;
 80082d4:	687b      	ldr	r3, [r7, #4]
 80082d6:	681b      	ldr	r3, [r3, #0]
 80082d8:	689b      	ldr	r3, [r3, #8]
 80082da:	f003 0307 	and.w	r3, r3, #7
 80082de:	60fb      	str	r3, [r7, #12]
    if (!IS_TIM_SLAVEMODE_TRIGGER_ENABLED(tmpsmcr))
 80082e0:	68fb      	ldr	r3, [r7, #12]
 80082e2:	2b06      	cmp	r3, #6
 80082e4:	d010      	beq.n	8008308 <HAL_TIM_Base_Start_IT+0xb4>
    {
      __HAL_TIM_ENABLE(htim);
 80082e6:	687b      	ldr	r3, [r7, #4]
 80082e8:	681b      	ldr	r3, [r3, #0]
 80082ea:	681a      	ldr	r2, [r3, #0]
 80082ec:	687b      	ldr	r3, [r7, #4]
 80082ee:	681b      	ldr	r3, [r3, #0]
 80082f0:	f042 0201 	orr.w	r2, r2, #1
 80082f4:	601a      	str	r2, [r3, #0]
    if (!IS_TIM_SLAVEMODE_TRIGGER_ENABLED(tmpsmcr))
 80082f6:	e007      	b.n	8008308 <HAL_TIM_Base_Start_IT+0xb4>
    }
  }
  else
  {
    __HAL_TIM_ENABLE(htim);
 80082f8:	687b      	ldr	r3, [r7, #4]
 80082fa:	681b      	ldr	r3, [r3, #0]
 80082fc:	681a      	ldr	r2, [r3, #0]
 80082fe:	687b      	ldr	r3, [r7, #4]
 8008300:	681b      	ldr	r3, [r3, #0]
 8008302:	f042 0201 	orr.w	r2, r2, #1
 8008306:	601a      	str	r2, [r3, #0]
  }

  /* Return function status */
  return HAL_OK;
 8008308:	2300      	movs	r3, #0
}
 800830a:	4618      	mov	r0, r3
 800830c:	3714      	adds	r7, #20
 800830e:	46bd      	mov	sp, r7
 8008310:	f85d 7b04 	ldr.w	r7, [sp], #4
 8008314:	4770      	bx	lr
 8008316:	bf00      	nop
 8008318:	40010000 	.word	0x40010000
 800831c:	40000400 	.word	0x40000400
 8008320:	40000800 	.word	0x40000800
 8008324:	40000c00 	.word	0x40000c00
 8008328:	40010400 	.word	0x40010400
 800832c:	40014000 	.word	0x40014000
 8008330:	40001800 	.word	0x40001800

08008334 <HAL_TIM_IRQHandler>:
  * @brief  This function handles TIM interrupts requests.
  * @param  htim TIM  handle
  * @retval None
  */
void HAL_TIM_IRQHandler(TIM_HandleTypeDef *htim)
{
 8008334:	b580      	push	{r7, lr}
 8008336:	b084      	sub	sp, #16
 8008338:	af00      	add	r7, sp, #0
 800833a:	6078      	str	r0, [r7, #4]
  uint32_t itsource = htim->Instance->DIER;
 800833c:	687b      	ldr	r3, [r7, #4]
 800833e:	681b      	ldr	r3, [r3, #0]
 8008340:	68db      	ldr	r3, [r3, #12]
 8008342:	60fb      	str	r3, [r7, #12]
  uint32_t itflag   = htim->Instance->SR;
 8008344:	687b      	ldr	r3, [r7, #4]
 8008346:	681b      	ldr	r3, [r3, #0]
 8008348:	691b      	ldr	r3, [r3, #16]
 800834a:	60bb      	str	r3, [r7, #8]

  /* Capture compare 1 event */
  if ((itflag & (TIM_FLAG_CC1)) == (TIM_FLAG_CC1))
 800834c:	68bb      	ldr	r3, [r7, #8]
 800834e:	f003 0302 	and.w	r3, r3, #2
 8008352:	2b00      	cmp	r3, #0
 8008354:	d020      	beq.n	8008398 <HAL_TIM_IRQHandler+0x64>
  {
    if ((itsource & (TIM_IT_CC1)) == (TIM_IT_CC1))
 8008356:	68fb      	ldr	r3, [r7, #12]
 8008358:	f003 0302 	and.w	r3, r3, #2
 800835c:	2b00      	cmp	r3, #0
 800835e:	d01b      	beq.n	8008398 <HAL_TIM_IRQHandler+0x64>
    {
      {
        __HAL_TIM_CLEAR_FLAG(htim, TIM_FLAG_CC1);
 8008360:	687b      	ldr	r3, [r7, #4]
 8008362:	681b      	ldr	r3, [r3, #0]
 8008364:	f06f 0202 	mvn.w	r2, #2
 8008368:	611a      	str	r2, [r3, #16]
        htim->Channel = HAL_TIM_ACTIVE_CHANNEL_1;
 800836a:	687b      	ldr	r3, [r7, #4]
 800836c:	2201      	movs	r2, #1
 800836e:	771a      	strb	r2, [r3, #28]

        /* Input capture event */
        if ((htim->Instance->CCMR1 & TIM_CCMR1_CC1S) != 0x00U)
 8008370:	687b      	ldr	r3, [r7, #4]
 8008372:	681b      	ldr	r3, [r3, #0]
 8008374:	699b      	ldr	r3, [r3, #24]
 8008376:	f003 0303 	and.w	r3, r3, #3
 800837a:	2b00      	cmp	r3, #0
 800837c:	d003      	beq.n	8008386 <HAL_TIM_IRQHandler+0x52>
        {
#if (USE_HAL_TIM_REGISTER_CALLBACKS == 1)
          htim->IC_CaptureCallback(htim);
#else
          HAL_TIM_IC_CaptureCallback(htim);
 800837e:	6878      	ldr	r0, [r7, #4]
 8008380:	f000 f8dc 	bl	800853c <HAL_TIM_IC_CaptureCallback>
 8008384:	e005      	b.n	8008392 <HAL_TIM_IRQHandler+0x5e>
        {
#if (USE_HAL_TIM_REGISTER_CALLBACKS == 1)
          htim->OC_DelayElapsedCallback(htim);
          htim->PWM_PulseFinishedCallback(htim);
#else
          HAL_TIM_OC_DelayElapsedCallback(htim);
 8008386:	6878      	ldr	r0, [r7, #4]
 8008388:	f000 f8ce 	bl	8008528 <HAL_TIM_OC_DelayElapsedCallback>
          HAL_TIM_PWM_PulseFinishedCallback(htim);
 800838c:	6878      	ldr	r0, [r7, #4]
 800838e:	f000 f8df 	bl	8008550 <HAL_TIM_PWM_PulseFinishedCallback>
#endif /* USE_HAL_TIM_REGISTER_CALLBACKS */
        }
        htim->Channel = HAL_TIM_ACTIVE_CHANNEL_CLEARED;
 8008392:	687b      	ldr	r3, [r7, #4]
 8008394:	2200      	movs	r2, #0
 8008396:	771a      	strb	r2, [r3, #28]
      }
    }
  }
  /* Capture compare 2 event */
  if ((itflag & (TIM_FLAG_CC2)) == (TIM_FLAG_CC2))
 8008398:	68bb      	ldr	r3, [r7, #8]
 800839a:	f003 0304 	and.w	r3, r3, #4
 800839e:	2b00      	cmp	r3, #0
 80083a0:	d020      	beq.n	80083e4 <HAL_TIM_IRQHandler+0xb0>
  {
    if ((itsource & (TIM_IT_CC2)) == (TIM_IT_CC2))
 80083a2:	68fb      	ldr	r3, [r7, #12]
 80083a4:	f003 0304 	and.w	r3, r3, #4
 80083a8:	2b00      	cmp	r3, #0
 80083aa:	d01b      	beq.n	80083e4 <HAL_TIM_IRQHandler+0xb0>
    {
      __HAL_TIM_CLEAR_FLAG(htim, TIM_FLAG_CC2);
 80083ac:	687b      	ldr	r3, [r7, #4]
 80083ae:	681b      	ldr	r3, [r3, #0]
 80083b0:	f06f 0204 	mvn.w	r2, #4
 80083b4:	611a      	str	r2, [r3, #16]
      htim->Channel = HAL_TIM_ACTIVE_CHANNEL_2;
 80083b6:	687b      	ldr	r3, [r7, #4]
 80083b8:	2202      	movs	r2, #2
 80083ba:	771a      	strb	r2, [r3, #28]
      /* Input capture event */
      if ((htim->Instance->CCMR1 & TIM_CCMR1_CC2S) != 0x00U)
 80083bc:	687b      	ldr	r3, [r7, #4]
 80083be:	681b      	ldr	r3, [r3, #0]
 80083c0:	699b      	ldr	r3, [r3, #24]
 80083c2:	f403 7340 	and.w	r3, r3, #768	@ 0x300
 80083c6:	2b00      	cmp	r3, #0
 80083c8:	d003      	beq.n	80083d2 <HAL_TIM_IRQHandler+0x9e>
      {
#if (USE_HAL_TIM_REGISTER_CALLBACKS == 1)
        htim->IC_CaptureCallback(htim);
#else
        HAL_TIM_IC_CaptureCallback(htim);
 80083ca:	6878      	ldr	r0, [r7, #4]
 80083cc:	f000 f8b6 	bl	800853c <HAL_TIM_IC_CaptureCallback>
 80083d0:	e005      	b.n	80083de <HAL_TIM_IRQHandler+0xaa>
      {
#if (USE_HAL_TIM_REGISTER_CALLBACKS == 1)
        htim->OC_DelayElapsedCallback(htim);
        htim->PWM_PulseFinishedCallback(htim);
#else
        HAL_TIM_OC_DelayElapsedCallback(htim);
 80083d2:	6878      	ldr	r0, [r7, #4]
 80083d4:	f000 f8a8 	bl	8008528 <HAL_TIM_OC_DelayElapsedCallback>
        HAL_TIM_PWM_PulseFinishedCallback(htim);
 80083d8:	6878      	ldr	r0, [r7, #4]
 80083da:	f000 f8b9 	bl	8008550 <HAL_TIM_PWM_PulseFinishedCallback>
#endif /* USE_HAL_TIM_REGISTER_CALLBACKS */
      }
      htim->Channel = HAL_TIM_ACTIVE_CHANNEL_CLEARED;
 80083de:	687b      	ldr	r3, [r7, #4]
 80083e0:	2200      	movs	r2, #0
 80083e2:	771a      	strb	r2, [r3, #28]
    }
  }
  /* Capture compare 3 event */
  if ((itflag & (TIM_FLAG_CC3)) == (TIM_FLAG_CC3))
 80083e4:	68bb      	ldr	r3, [r7, #8]
 80083e6:	f003 0308 	and.w	r3, r3, #8
 80083ea:	2b00      	cmp	r3, #0
 80083ec:	d020      	beq.n	8008430 <HAL_TIM_IRQHandler+0xfc>
  {
    if ((itsource & (TIM_IT_CC3)) == (TIM_IT_CC3))
 80083ee:	68fb      	ldr	r3, [r7, #12]
 80083f0:	f003 0308 	and.w	r3, r3, #8
 80083f4:	2b00      	cmp	r3, #0
 80083f6:	d01b      	beq.n	8008430 <HAL_TIM_IRQHandler+0xfc>
    {
      __HAL_TIM_CLEAR_FLAG(htim, TIM_FLAG_CC3);
 80083f8:	687b      	ldr	r3, [r7, #4]
 80083fa:	681b      	ldr	r3, [r3, #0]
 80083fc:	f06f 0208 	mvn.w	r2, #8
 8008400:	611a      	str	r2, [r3, #16]
      htim->Channel = HAL_TIM_ACTIVE_CHANNEL_3;
 8008402:	687b      	ldr	r3, [r7, #4]
 8008404:	2204      	movs	r2, #4
 8008406:	771a      	strb	r2, [r3, #28]
      /* Input capture event */
      if ((htim->Instance->CCMR2 & TIM_CCMR2_CC3S) != 0x00U)
 8008408:	687b      	ldr	r3, [r7, #4]
 800840a:	681b      	ldr	r3, [r3, #0]
 800840c:	69db      	ldr	r3, [r3, #28]
 800840e:	f003 0303 	and.w	r3, r3, #3
 8008412:	2b00      	cmp	r3, #0
 8008414:	d003      	beq.n	800841e <HAL_TIM_IRQHandler+0xea>
      {
#if (USE_HAL_TIM_REGISTER_CALLBACKS == 1)
        htim->IC_CaptureCallback(htim);
#else
        HAL_TIM_IC_CaptureCallback(htim);
 8008416:	6878      	ldr	r0, [r7, #4]
 8008418:	f000 f890 	bl	800853c <HAL_TIM_IC_CaptureCallback>
 800841c:	e005      	b.n	800842a <HAL_TIM_IRQHandler+0xf6>
      {
#if (USE_HAL_TIM_REGISTER_CALLBACKS == 1)
        htim->OC_DelayElapsedCallback(htim);
        htim->PWM_PulseFinishedCallback(htim);
#else
        HAL_TIM_OC_DelayElapsedCallback(htim);
 800841e:	6878      	ldr	r0, [r7, #4]
 8008420:	f000 f882 	bl	8008528 <HAL_TIM_OC_DelayElapsedCallback>
        HAL_TIM_PWM_PulseFinishedCallback(htim);
 8008424:	6878      	ldr	r0, [r7, #4]
 8008426:	f000 f893 	bl	8008550 <HAL_TIM_PWM_PulseFinishedCallback>
#endif /* USE_HAL_TIM_REGISTER_CALLBACKS */
      }
      htim->Channel = HAL_TIM_ACTIVE_CHANNEL_CLEARED;
 800842a:	687b      	ldr	r3, [r7, #4]
 800842c:	2200      	movs	r2, #0
 800842e:	771a      	strb	r2, [r3, #28]
    }
  }
  /* Capture compare 4 event */
  if ((itflag & (TIM_FLAG_CC4)) == (TIM_FLAG_CC4))
 8008430:	68bb      	ldr	r3, [r7, #8]
 8008432:	f003 0310 	and.w	r3, r3, #16
 8008436:	2b00      	cmp	r3, #0
 8008438:	d020      	beq.n	800847c <HAL_TIM_IRQHandler+0x148>
  {
    if ((itsource & (TIM_IT_CC4)) == (TIM_IT_CC4))
 800843a:	68fb      	ldr	r3, [r7, #12]
 800843c:	f003 0310 	and.w	r3, r3, #16
 8008440:	2b00      	cmp	r3, #0
 8008442:	d01b      	beq.n	800847c <HAL_TIM_IRQHandler+0x148>
    {
      __HAL_TIM_CLEAR_FLAG(htim, TIM_FLAG_CC4);
 8008444:	687b      	ldr	r3, [r7, #4]
 8008446:	681b      	ldr	r3, [r3, #0]
 8008448:	f06f 0210 	mvn.w	r2, #16
 800844c:	611a      	str	r2, [r3, #16]
      htim->Channel = HAL_TIM_ACTIVE_CHANNEL_4;
 800844e:	687b      	ldr	r3, [r7, #4]
 8008450:	2208      	movs	r2, #8
 8008452:	771a      	strb	r2, [r3, #28]
      /* Input capture event */
      if ((htim->Instance->CCMR2 & TIM_CCMR2_CC4S) != 0x00U)
 8008454:	687b      	ldr	r3, [r7, #4]
 8008456:	681b      	ldr	r3, [r3, #0]
 8008458:	69db      	ldr	r3, [r3, #28]
 800845a:	f403 7340 	and.w	r3, r3, #768	@ 0x300
 800845e:	2b00      	cmp	r3, #0
 8008460:	d003      	beq.n	800846a <HAL_TIM_IRQHandler+0x136>
      {
#if (USE_HAL_TIM_REGISTER_CALLBACKS == 1)
        htim->IC_CaptureCallback(htim);
#else
        HAL_TIM_IC_CaptureCallback(htim);
 8008462:	6878      	ldr	r0, [r7, #4]
 8008464:	f000 f86a 	bl	800853c <HAL_TIM_IC_CaptureCallback>
 8008468:	e005      	b.n	8008476 <HAL_TIM_IRQHandler+0x142>
      {
#if (USE_HAL_TIM_REGISTER_CALLBACKS == 1)
        htim->OC_DelayElapsedCallback(htim);
        htim->PWM_PulseFinishedCallback(htim);
#else
        HAL_TIM_OC_DelayElapsedCallback(htim);
 800846a:	6878      	ldr	r0, [r7, #4]
 800846c:	f000 f85c 	bl	8008528 <HAL_TIM_OC_DelayElapsedCallback>
        HAL_TIM_PWM_PulseFinishedCallback(htim);
 8008470:	6878      	ldr	r0, [r7, #4]
 8008472:	f000 f86d 	bl	8008550 <HAL_TIM_PWM_PulseFinishedCallback>
#endif /* USE_HAL_TIM_REGISTER_CALLBACKS */
      }
      htim->Channel = HAL_TIM_ACTIVE_CHANNEL_CLEARED;
 8008476:	687b      	ldr	r3, [r7, #4]
 8008478:	2200      	movs	r2, #0
 800847a:	771a      	strb	r2, [r3, #28]
    }
  }
  /* TIM Update event */
  if ((itflag & (TIM_FLAG_UPDATE)) == (TIM_FLAG_UPDATE))
 800847c:	68bb      	ldr	r3, [r7, #8]
 800847e:	f003 0301 	and.w	r3, r3, #1
 8008482:	2b00      	cmp	r3, #0
 8008484:	d00c      	beq.n	80084a0 <HAL_TIM_IRQHandler+0x16c>
  {
    if ((itsource & (TIM_IT_UPDATE)) == (TIM_IT_UPDATE))
 8008486:	68fb      	ldr	r3, [r7, #12]
 8008488:	f003 0301 	and.w	r3, r3, #1
 800848c:	2b00      	cmp	r3, #0
 800848e:	d007      	beq.n	80084a0 <HAL_TIM_IRQHandler+0x16c>
    {
      __HAL_TIM_CLEAR_FLAG(htim, TIM_FLAG_UPDATE);
 8008490:	687b      	ldr	r3, [r7, #4]
 8008492:	681b      	ldr	r3, [r3, #0]
 8008494:	f06f 0201 	mvn.w	r2, #1
 8008498:	611a      	str	r2, [r3, #16]
#if (USE_HAL_TIM_REGISTER_CALLBACKS == 1)
      htim->PeriodElapsedCallback(htim);
#else
      HAL_TIM_PeriodElapsedCallback(htim);
 800849a:	6878      	ldr	r0, [r7, #4]
 800849c:	f000 f83a 	bl	8008514 <HAL_TIM_PeriodElapsedCallback>
#endif /* USE_HAL_TIM_REGISTER_CALLBACKS */
    }
  }
  /* TIM Break input event */
  if ((itflag & (TIM_FLAG_BREAK)) == (TIM_FLAG_BREAK))
 80084a0:	68bb      	ldr	r3, [r7, #8]
 80084a2:	f003 0380 	and.w	r3, r3, #128	@ 0x80
 80084a6:	2b00      	cmp	r3, #0
 80084a8:	d00c      	beq.n	80084c4 <HAL_TIM_IRQHandler+0x190>
  {
    if ((itsource & (TIM_IT_BREAK)) == (TIM_IT_BREAK))
 80084aa:	68fb      	ldr	r3, [r7, #12]
 80084ac:	f003 0380 	and.w	r3, r3, #128	@ 0x80
 80084b0:	2b00      	cmp	r3, #0
 80084b2:	d007      	beq.n	80084c4 <HAL_TIM_IRQHandler+0x190>
    {
      __HAL_TIM_CLEAR_FLAG(htim, TIM_FLAG_BREAK);
 80084b4:	687b      	ldr	r3, [r7, #4]
 80084b6:	681b      	ldr	r3, [r3, #0]
 80084b8:	f06f 0280 	mvn.w	r2, #128	@ 0x80
 80084bc:	611a      	str	r2, [r3, #16]
#if (USE_HAL_TIM_REGISTER_CALLBACKS == 1)
      htim->BreakCallback(htim);
#else
      HAL_TIMEx_BreakCallback(htim);
 80084be:	6878      	ldr	r0, [r7, #4]
 80084c0:	f000 f98c 	bl	80087dc <HAL_TIMEx_BreakCallback>
#endif /* USE_HAL_TIM_REGISTER_CALLBACKS */
    }
  }
  /* TIM Trigger detection event */
  if ((itflag & (TIM_FLAG_TRIGGER)) == (TIM_FLAG_TRIGGER))
 80084c4:	68bb      	ldr	r3, [r7, #8]
 80084c6:	f003 0340 	and.w	r3, r3, #64	@ 0x40
 80084ca:	2b00      	cmp	r3, #0
 80084cc:	d00c      	beq.n	80084e8 <HAL_TIM_IRQHandler+0x1b4>
  {
    if ((itsource & (TIM_IT_TRIGGER)) == (TIM_IT_TRIGGER))
 80084ce:	68fb      	ldr	r3, [r7, #12]
 80084d0:	f003 0340 	and.w	r3, r3, #64	@ 0x40
 80084d4:	2b00      	cmp	r3, #0
 80084d6:	d007      	beq.n	80084e8 <HAL_TIM_IRQHandler+0x1b4>
    {
      __HAL_TIM_CLEAR_FLAG(htim, TIM_FLAG_TRIGGER);
 80084d8:	687b      	ldr	r3, [r7, #4]
 80084da:	681b      	ldr	r3, [r3, #0]
 80084dc:	f06f 0240 	mvn.w	r2, #64	@ 0x40
 80084e0:	611a      	str	r2, [r3, #16]
#if (USE_HAL_TIM_REGISTER_CALLBACKS == 1)
      htim->TriggerCallback(htim);
#else
      HAL_TIM_TriggerCallback(htim);
 80084e2:	6878      	ldr	r0, [r7, #4]
 80084e4:	f000 f83e 	bl	8008564 <HAL_TIM_TriggerCallback>
#endif /* USE_HAL_TIM_REGISTER_CALLBACKS */
    }
  }
  /* TIM commutation event */
  if ((itflag & (TIM_FLAG_COM)) == (TIM_FLAG_COM))
 80084e8:	68bb      	ldr	r3, [r7, #8]
 80084ea:	f003 0320 	and.w	r3, r3, #32
 80084ee:	2b00      	cmp	r3, #0
 80084f0:	d00c      	beq.n	800850c <HAL_TIM_IRQHandler+0x1d8>
  {
    if ((itsource & (TIM_IT_COM)) == (TIM_IT_COM))
 80084f2:	68fb      	ldr	r3, [r7, #12]
 80084f4:	f003 0320 	and.w	r3, r3, #32
 80084f8:	2b00      	cmp	r3, #0
 80084fa:	d007      	beq.n	800850c <HAL_TIM_IRQHandler+0x1d8>
    {
      __HAL_TIM_CLEAR_FLAG(htim, TIM_FLAG_COM);
 80084fc:	687b      	ldr	r3, [r7, #4]
 80084fe:	681b      	ldr	r3, [r3, #0]
 8008500:	f06f 0220 	mvn.w	r2, #32
 8008504:	611a      	str	r2, [r3, #16]
#if (USE_HAL_TIM_REGISTER_CALLBACKS == 1)
      htim->CommutationCallback(htim);
#else
      HAL_TIMEx_CommutCallback(htim);
 8008506:	6878      	ldr	r0, [r7, #4]
 8008508:	f000 f95e 	bl	80087c8 <HAL_TIMEx_CommutCallback>
#endif /* USE_HAL_TIM_REGISTER_CALLBACKS */
    }
  }
}
 800850c:	bf00      	nop
 800850e:	3710      	adds	r7, #16
 8008510:	46bd      	mov	sp, r7
 8008512:	bd80      	pop	{r7, pc}

08008514 <HAL_TIM_PeriodElapsedCallback>:
  * @brief  Period elapsed callback in non-blocking mode
  * @param  htim TIM handle
  * @retval None
  */
__weak void HAL_TIM_PeriodElapsedCallback(TIM_HandleTypeDef *htim)
{
 8008514:	b480      	push	{r7}
 8008516:	b083      	sub	sp, #12
 8008518:	af00      	add	r7, sp, #0
 800851a:	6078      	str	r0, [r7, #4]
  UNUSED(htim);

  /* NOTE : This function should not be modified, when the callback is needed,
            the HAL_TIM_PeriodElapsedCallback could be implemented in the user file
   */
}
 800851c:	bf00      	nop
 800851e:	370c      	adds	r7, #12
 8008520:	46bd      	mov	sp, r7
 8008522:	f85d 7b04 	ldr.w	r7, [sp], #4
 8008526:	4770      	bx	lr

08008528 <HAL_TIM_OC_DelayElapsedCallback>:
  * @brief  Output Compare callback in non-blocking mode
  * @param  htim TIM OC handle
  * @retval None
  */
__weak void HAL_TIM_OC_DelayElapsedCallback(TIM_HandleTypeDef *htim)
{
 8008528:	b480      	push	{r7}
 800852a:	b083      	sub	sp, #12
 800852c:	af00      	add	r7, sp, #0
 800852e:	6078      	str	r0, [r7, #4]
  UNUSED(htim);

  /* NOTE : This function should not be modified, when the callback is needed,
            the HAL_TIM_OC_DelayElapsedCallback could be implemented in the user file
   */
}
 8008530:	bf00      	nop
 8008532:	370c      	adds	r7, #12
 8008534:	46bd      	mov	sp, r7
 8008536:	f85d 7b04 	ldr.w	r7, [sp], #4
 800853a:	4770      	bx	lr

0800853c <HAL_TIM_IC_CaptureCallback>:
  * @brief  Input Capture callback in non-blocking mode
  * @param  htim TIM IC handle
  * @retval None
  */
__weak void HAL_TIM_IC_CaptureCallback(TIM_HandleTypeDef *htim)
{
 800853c:	b480      	push	{r7}
 800853e:	b083      	sub	sp, #12
 8008540:	af00      	add	r7, sp, #0
 8008542:	6078      	str	r0, [r7, #4]
  UNUSED(htim);

  /* NOTE : This function should not be modified, when the callback is needed,
            the HAL_TIM_IC_CaptureCallback could be implemented in the user file
   */
}
 8008544:	bf00      	nop
 8008546:	370c      	adds	r7, #12
 8008548:	46bd      	mov	sp, r7
 800854a:	f85d 7b04 	ldr.w	r7, [sp], #4
 800854e:	4770      	bx	lr

08008550 <HAL_TIM_PWM_PulseFinishedCallback>:
  * @brief  PWM Pulse finished callback in non-blocking mode
  * @param  htim TIM handle
  * @retval None
  */
__weak void HAL_TIM_PWM_PulseFinishedCallback(TIM_HandleTypeDef *htim)
{
 8008550:	b480      	push	{r7}
 8008552:	b083      	sub	sp, #12
 8008554:	af00      	add	r7, sp, #0
 8008556:	6078      	str	r0, [r7, #4]
  UNUSED(htim);

  /* NOTE : This function should not be modified, when the callback is needed,
            the HAL_TIM_PWM_PulseFinishedCallback could be implemented in the user file
   */
}
 8008558:	bf00      	nop
 800855a:	370c      	adds	r7, #12
 800855c:	46bd      	mov	sp, r7
 800855e:	f85d 7b04 	ldr.w	r7, [sp], #4
 8008562:	4770      	bx	lr

08008564 <HAL_TIM_TriggerCallback>:
  * @brief  Hall Trigger detection callback in non-blocking mode
  * @param  htim TIM handle
  * @retval None
  */
__weak void HAL_TIM_TriggerCallback(TIM_HandleTypeDef *htim)
{
 8008564:	b480      	push	{r7}
 8008566:	b083      	sub	sp, #12
 8008568:	af00      	add	r7, sp, #0
 800856a:	6078      	str	r0, [r7, #4]
  UNUSED(htim);

  /* NOTE : This function should not be modified, when the callback is needed,
            the HAL_TIM_TriggerCallback could be implemented in the user file
   */
}
 800856c:	bf00      	nop
 800856e:	370c      	adds	r7, #12
 8008570:	46bd      	mov	sp, r7
 8008572:	f85d 7b04 	ldr.w	r7, [sp], #4
 8008576:	4770      	bx	lr

08008578 <TIM_Base_SetConfig>:
  * @param  TIMx TIM peripheral
  * @param  Structure TIM Base configuration structure
  * @retval None
  */
void TIM_Base_SetConfig(TIM_TypeDef *TIMx, const TIM_Base_InitTypeDef *Structure)
{
 8008578:	b480      	push	{r7}
 800857a:	b085      	sub	sp, #20
 800857c:	af00      	add	r7, sp, #0
 800857e:	6078      	str	r0, [r7, #4]
 8008580:	6039      	str	r1, [r7, #0]
  uint32_t tmpcr1;
  tmpcr1 = TIMx->CR1;
 8008582:	687b      	ldr	r3, [r7, #4]
 8008584:	681b      	ldr	r3, [r3, #0]
 8008586:	60fb      	str	r3, [r7, #12]

  /* Set TIM Time Base Unit parameters ---------------------------------------*/
  if (IS_TIM_COUNTER_MODE_SELECT_INSTANCE(TIMx))
 8008588:	687b      	ldr	r3, [r7, #4]
 800858a:	4a46      	ldr	r2, [pc, #280]	@ (80086a4 <TIM_Base_SetConfig+0x12c>)
 800858c:	4293      	cmp	r3, r2
 800858e:	d013      	beq.n	80085b8 <TIM_Base_SetConfig+0x40>
 8008590:	687b      	ldr	r3, [r7, #4]
 8008592:	f1b3 4f80 	cmp.w	r3, #1073741824	@ 0x40000000
 8008596:	d00f      	beq.n	80085b8 <TIM_Base_SetConfig+0x40>
 8008598:	687b      	ldr	r3, [r7, #4]
 800859a:	4a43      	ldr	r2, [pc, #268]	@ (80086a8 <TIM_Base_SetConfig+0x130>)
 800859c:	4293      	cmp	r3, r2
 800859e:	d00b      	beq.n	80085b8 <TIM_Base_SetConfig+0x40>
 80085a0:	687b      	ldr	r3, [r7, #4]
 80085a2:	4a42      	ldr	r2, [pc, #264]	@ (80086ac <TIM_Base_SetConfig+0x134>)
 80085a4:	4293      	cmp	r3, r2
 80085a6:	d007      	beq.n	80085b8 <TIM_Base_SetConfig+0x40>
 80085a8:	687b      	ldr	r3, [r7, #4]
 80085aa:	4a41      	ldr	r2, [pc, #260]	@ (80086b0 <TIM_Base_SetConfig+0x138>)
 80085ac:	4293      	cmp	r3, r2
 80085ae:	d003      	beq.n	80085b8 <TIM_Base_SetConfig+0x40>
 80085b0:	687b      	ldr	r3, [r7, #4]
 80085b2:	4a40      	ldr	r2, [pc, #256]	@ (80086b4 <TIM_Base_SetConfig+0x13c>)
 80085b4:	4293      	cmp	r3, r2
 80085b6:	d108      	bne.n	80085ca <TIM_Base_SetConfig+0x52>
  {
    /* Select the Counter Mode */
    tmpcr1 &= ~(TIM_CR1_DIR | TIM_CR1_CMS);
 80085b8:	68fb      	ldr	r3, [r7, #12]
 80085ba:	f023 0370 	bic.w	r3, r3, #112	@ 0x70
 80085be:	60fb      	str	r3, [r7, #12]
    tmpcr1 |= Structure->CounterMode;
 80085c0:	683b      	ldr	r3, [r7, #0]
 80085c2:	685b      	ldr	r3, [r3, #4]
 80085c4:	68fa      	ldr	r2, [r7, #12]
 80085c6:	4313      	orrs	r3, r2
 80085c8:	60fb      	str	r3, [r7, #12]
  }

  if (IS_TIM_CLOCK_DIVISION_INSTANCE(TIMx))
 80085ca:	687b      	ldr	r3, [r7, #4]
 80085cc:	4a35      	ldr	r2, [pc, #212]	@ (80086a4 <TIM_Base_SetConfig+0x12c>)
 80085ce:	4293      	cmp	r3, r2
 80085d0:	d02b      	beq.n	800862a <TIM_Base_SetConfig+0xb2>
 80085d2:	687b      	ldr	r3, [r7, #4]
 80085d4:	f1b3 4f80 	cmp.w	r3, #1073741824	@ 0x40000000
 80085d8:	d027      	beq.n	800862a <TIM_Base_SetConfig+0xb2>
 80085da:	687b      	ldr	r3, [r7, #4]
 80085dc:	4a32      	ldr	r2, [pc, #200]	@ (80086a8 <TIM_Base_SetConfig+0x130>)
 80085de:	4293      	cmp	r3, r2
 80085e0:	d023      	beq.n	800862a <TIM_Base_SetConfig+0xb2>
 80085e2:	687b      	ldr	r3, [r7, #4]
 80085e4:	4a31      	ldr	r2, [pc, #196]	@ (80086ac <TIM_Base_SetConfig+0x134>)
 80085e6:	4293      	cmp	r3, r2
 80085e8:	d01f      	beq.n	800862a <TIM_Base_SetConfig+0xb2>
 80085ea:	687b      	ldr	r3, [r7, #4]
 80085ec:	4a30      	ldr	r2, [pc, #192]	@ (80086b0 <TIM_Base_SetConfig+0x138>)
 80085ee:	4293      	cmp	r3, r2
 80085f0:	d01b      	beq.n	800862a <TIM_Base_SetConfig+0xb2>
 80085f2:	687b      	ldr	r3, [r7, #4]
 80085f4:	4a2f      	ldr	r2, [pc, #188]	@ (80086b4 <TIM_Base_SetConfig+0x13c>)
 80085f6:	4293      	cmp	r3, r2
 80085f8:	d017      	beq.n	800862a <TIM_Base_SetConfig+0xb2>
 80085fa:	687b      	ldr	r3, [r7, #4]
 80085fc:	4a2e      	ldr	r2, [pc, #184]	@ (80086b8 <TIM_Base_SetConfig+0x140>)
 80085fe:	4293      	cmp	r3, r2
 8008600:	d013      	beq.n	800862a <TIM_Base_SetConfig+0xb2>
 8008602:	687b      	ldr	r3, [r7, #4]
 8008604:	4a2d      	ldr	r2, [pc, #180]	@ (80086bc <TIM_Base_SetConfig+0x144>)
 8008606:	4293      	cmp	r3, r2
 8008608:	d00f      	beq.n	800862a <TIM_Base_SetConfig+0xb2>
 800860a:	687b      	ldr	r3, [r7, #4]
 800860c:	4a2c      	ldr	r2, [pc, #176]	@ (80086c0 <TIM_Base_SetConfig+0x148>)
 800860e:	4293      	cmp	r3, r2
 8008610:	d00b      	beq.n	800862a <TIM_Base_SetConfig+0xb2>
 8008612:	687b      	ldr	r3, [r7, #4]
 8008614:	4a2b      	ldr	r2, [pc, #172]	@ (80086c4 <TIM_Base_SetConfig+0x14c>)
 8008616:	4293      	cmp	r3, r2
 8008618:	d007      	beq.n	800862a <TIM_Base_SetConfig+0xb2>
 800861a:	687b      	ldr	r3, [r7, #4]
 800861c:	4a2a      	ldr	r2, [pc, #168]	@ (80086c8 <TIM_Base_SetConfig+0x150>)
 800861e:	4293      	cmp	r3, r2
 8008620:	d003      	beq.n	800862a <TIM_Base_SetConfig+0xb2>
 8008622:	687b      	ldr	r3, [r7, #4]
 8008624:	4a29      	ldr	r2, [pc, #164]	@ (80086cc <TIM_Base_SetConfig+0x154>)
 8008626:	4293      	cmp	r3, r2
 8008628:	d108      	bne.n	800863c <TIM_Base_SetConfig+0xc4>
  {
    /* Set the clock division */
    tmpcr1 &= ~TIM_CR1_CKD;
 800862a:	68fb      	ldr	r3, [r7, #12]
 800862c:	f423 7340 	bic.w	r3, r3, #768	@ 0x300
 8008630:	60fb      	str	r3, [r7, #12]
    tmpcr1 |= (uint32_t)Structure->ClockDivision;
 8008632:	683b      	ldr	r3, [r7, #0]
 8008634:	68db      	ldr	r3, [r3, #12]
 8008636:	68fa      	ldr	r2, [r7, #12]
 8008638:	4313      	orrs	r3, r2
 800863a:	60fb      	str	r3, [r7, #12]
  }

  /* Set the auto-reload preload */
  MODIFY_REG(tmpcr1, TIM_CR1_ARPE, Structure->AutoReloadPreload);
 800863c:	68fb      	ldr	r3, [r7, #12]
 800863e:	f023 0280 	bic.w	r2, r3, #128	@ 0x80
 8008642:	683b      	ldr	r3, [r7, #0]
 8008644:	695b      	ldr	r3, [r3, #20]
 8008646:	4313      	orrs	r3, r2
 8008648:	60fb      	str	r3, [r7, #12]

  TIMx->CR1 = tmpcr1;
 800864a:	687b      	ldr	r3, [r7, #4]
 800864c:	68fa      	ldr	r2, [r7, #12]
 800864e:	601a      	str	r2, [r3, #0]

  /* Set the Autoreload value */
  TIMx->ARR = (uint32_t)Structure->Period ;
 8008650:	683b      	ldr	r3, [r7, #0]
 8008652:	689a      	ldr	r2, [r3, #8]
 8008654:	687b      	ldr	r3, [r7, #4]
 8008656:	62da      	str	r2, [r3, #44]	@ 0x2c

  /* Set the Prescaler value */
  TIMx->PSC = Structure->Prescaler;
 8008658:	683b      	ldr	r3, [r7, #0]
 800865a:	681a      	ldr	r2, [r3, #0]
 800865c:	687b      	ldr	r3, [r7, #4]
 800865e:	629a      	str	r2, [r3, #40]	@ 0x28

  if (IS_TIM_REPETITION_COUNTER_INSTANCE(TIMx))
 8008660:	687b      	ldr	r3, [r7, #4]
 8008662:	4a10      	ldr	r2, [pc, #64]	@ (80086a4 <TIM_Base_SetConfig+0x12c>)
 8008664:	4293      	cmp	r3, r2
 8008666:	d003      	beq.n	8008670 <TIM_Base_SetConfig+0xf8>
 8008668:	687b      	ldr	r3, [r7, #4]
 800866a:	4a12      	ldr	r2, [pc, #72]	@ (80086b4 <TIM_Base_SetConfig+0x13c>)
 800866c:	4293      	cmp	r3, r2
 800866e:	d103      	bne.n	8008678 <TIM_Base_SetConfig+0x100>
  {
    /* Set the Repetition Counter value */
    TIMx->RCR = Structure->RepetitionCounter;
 8008670:	683b      	ldr	r3, [r7, #0]
 8008672:	691a      	ldr	r2, [r3, #16]
 8008674:	687b      	ldr	r3, [r7, #4]
 8008676:	631a      	str	r2, [r3, #48]	@ 0x30
  }

  /* Generate an update event to reload the Prescaler
     and the repetition counter (only for advanced timer) value immediately */
  TIMx->EGR = TIM_EGR_UG;
 8008678:	687b      	ldr	r3, [r7, #4]
 800867a:	2201      	movs	r2, #1
 800867c:	615a      	str	r2, [r3, #20]

  /* Check if the update flag is set after the Update Generation, if so clear the UIF flag */
  if (HAL_IS_BIT_SET(TIMx->SR, TIM_FLAG_UPDATE))
 800867e:	687b      	ldr	r3, [r7, #4]
 8008680:	691b      	ldr	r3, [r3, #16]
 8008682:	f003 0301 	and.w	r3, r3, #1
 8008686:	2b01      	cmp	r3, #1
 8008688:	d105      	bne.n	8008696 <TIM_Base_SetConfig+0x11e>
  {
    /* Clear the update flag */
    CLEAR_BIT(TIMx->SR, TIM_FLAG_UPDATE);
 800868a:	687b      	ldr	r3, [r7, #4]
 800868c:	691b      	ldr	r3, [r3, #16]
 800868e:	f023 0201 	bic.w	r2, r3, #1
 8008692:	687b      	ldr	r3, [r7, #4]
 8008694:	611a      	str	r2, [r3, #16]
  }
}
 8008696:	bf00      	nop
 8008698:	3714      	adds	r7, #20
 800869a:	46bd      	mov	sp, r7
 800869c:	f85d 7b04 	ldr.w	r7, [sp], #4
 80086a0:	4770      	bx	lr
 80086a2:	bf00      	nop
 80086a4:	40010000 	.word	0x40010000
 80086a8:	40000400 	.word	0x40000400
 80086ac:	40000800 	.word	0x40000800
 80086b0:	40000c00 	.word	0x40000c00
 80086b4:	40010400 	.word	0x40010400
 80086b8:	40014000 	.word	0x40014000
 80086bc:	40014400 	.word	0x40014400
 80086c0:	40014800 	.word	0x40014800
 80086c4:	40001800 	.word	0x40001800
 80086c8:	40001c00 	.word	0x40001c00
 80086cc:	40002000 	.word	0x40002000

080086d0 <HAL_TIMEx_MasterConfigSynchronization>:
  *         mode.
  * @retval HAL status
  */
HAL_StatusTypeDef HAL_TIMEx_MasterConfigSynchronization(TIM_HandleTypeDef *htim,
                                                        const TIM_MasterConfigTypeDef *sMasterConfig)
{
 80086d0:	b480      	push	{r7}
 80086d2:	b085      	sub	sp, #20
 80086d4:	af00      	add	r7, sp, #0
 80086d6:	6078      	str	r0, [r7, #4]
 80086d8:	6039      	str	r1, [r7, #0]
  assert_param(IS_TIM_MASTER_INSTANCE(htim->Instance));
  assert_param(IS_TIM_TRGO_SOURCE(sMasterConfig->MasterOutputTrigger));
  assert_param(IS_TIM_MSM_STATE(sMasterConfig->MasterSlaveMode));

  /* Check input state */
  __HAL_LOCK(htim);
 80086da:	687b      	ldr	r3, [r7, #4]
 80086dc:	f893 303c 	ldrb.w	r3, [r3, #60]	@ 0x3c
 80086e0:	2b01      	cmp	r3, #1
 80086e2:	d101      	bne.n	80086e8 <HAL_TIMEx_MasterConfigSynchronization+0x18>
 80086e4:	2302      	movs	r3, #2
 80086e6:	e05a      	b.n	800879e <HAL_TIMEx_MasterConfigSynchronization+0xce>
 80086e8:	687b      	ldr	r3, [r7, #4]
 80086ea:	2201      	movs	r2, #1
 80086ec:	f883 203c 	strb.w	r2, [r3, #60]	@ 0x3c

  /* Change the handler state */
  htim->State = HAL_TIM_STATE_BUSY;
 80086f0:	687b      	ldr	r3, [r7, #4]
 80086f2:	2202      	movs	r2, #2
 80086f4:	f883 203d 	strb.w	r2, [r3, #61]	@ 0x3d

  /* Get the TIMx CR2 register value */
  tmpcr2 = htim->Instance->CR2;
 80086f8:	687b      	ldr	r3, [r7, #4]
 80086fa:	681b      	ldr	r3, [r3, #0]
 80086fc:	685b      	ldr	r3, [r3, #4]
 80086fe:	60fb      	str	r3, [r7, #12]

  /* Get the TIMx SMCR register value */
  tmpsmcr = htim->Instance->SMCR;
 8008700:	687b      	ldr	r3, [r7, #4]
 8008702:	681b      	ldr	r3, [r3, #0]
 8008704:	689b      	ldr	r3, [r3, #8]
 8008706:	60bb      	str	r3, [r7, #8]

  /* Reset the MMS Bits */
  tmpcr2 &= ~TIM_CR2_MMS;
 8008708:	68fb      	ldr	r3, [r7, #12]
 800870a:	f023 0370 	bic.w	r3, r3, #112	@ 0x70
 800870e:	60fb      	str	r3, [r7, #12]
  /* Select the TRGO source */
  tmpcr2 |=  sMasterConfig->MasterOutputTrigger;
 8008710:	683b      	ldr	r3, [r7, #0]
 8008712:	681b      	ldr	r3, [r3, #0]
 8008714:	68fa      	ldr	r2, [r7, #12]
 8008716:	4313      	orrs	r3, r2
 8008718:	60fb      	str	r3, [r7, #12]

  /* Update TIMx CR2 */
  htim->Instance->CR2 = tmpcr2;
 800871a:	687b      	ldr	r3, [r7, #4]
 800871c:	681b      	ldr	r3, [r3, #0]
 800871e:	68fa      	ldr	r2, [r7, #12]
 8008720:	605a      	str	r2, [r3, #4]

  if (IS_TIM_SLAVE_INSTANCE(htim->Instance))
 8008722:	687b      	ldr	r3, [r7, #4]
 8008724:	681b      	ldr	r3, [r3, #0]
 8008726:	4a21      	ldr	r2, [pc, #132]	@ (80087ac <HAL_TIMEx_MasterConfigSynchronization+0xdc>)
 8008728:	4293      	cmp	r3, r2
 800872a:	d022      	beq.n	8008772 <HAL_TIMEx_MasterConfigSynchronization+0xa2>
 800872c:	687b      	ldr	r3, [r7, #4]
 800872e:	681b      	ldr	r3, [r3, #0]
 8008730:	f1b3 4f80 	cmp.w	r3, #1073741824	@ 0x40000000
 8008734:	d01d      	beq.n	8008772 <HAL_TIMEx_MasterConfigSynchronization+0xa2>
 8008736:	687b      	ldr	r3, [r7, #4]
 8008738:	681b      	ldr	r3, [r3, #0]
 800873a:	4a1d      	ldr	r2, [pc, #116]	@ (80087b0 <HAL_TIMEx_MasterConfigSynchronization+0xe0>)
 800873c:	4293      	cmp	r3, r2
 800873e:	d018      	beq.n	8008772 <HAL_TIMEx_MasterConfigSynchronization+0xa2>
 8008740:	687b      	ldr	r3, [r7, #4]
 8008742:	681b      	ldr	r3, [r3, #0]
 8008744:	4a1b      	ldr	r2, [pc, #108]	@ (80087b4 <HAL_TIMEx_MasterConfigSynchronization+0xe4>)
 8008746:	4293      	cmp	r3, r2
 8008748:	d013      	beq.n	8008772 <HAL_TIMEx_MasterConfigSynchronization+0xa2>
 800874a:	687b      	ldr	r3, [r7, #4]
 800874c:	681b      	ldr	r3, [r3, #0]
 800874e:	4a1a      	ldr	r2, [pc, #104]	@ (80087b8 <HAL_TIMEx_MasterConfigSynchronization+0xe8>)
 8008750:	4293      	cmp	r3, r2
 8008752:	d00e      	beq.n	8008772 <HAL_TIMEx_MasterConfigSynchronization+0xa2>
 8008754:	687b      	ldr	r3, [r7, #4]
 8008756:	681b      	ldr	r3, [r3, #0]
 8008758:	4a18      	ldr	r2, [pc, #96]	@ (80087bc <HAL_TIMEx_MasterConfigSynchronization+0xec>)
 800875a:	4293      	cmp	r3, r2
 800875c:	d009      	beq.n	8008772 <HAL_TIMEx_MasterConfigSynchronization+0xa2>
 800875e:	687b      	ldr	r3, [r7, #4]
 8008760:	681b      	ldr	r3, [r3, #0]
 8008762:	4a17      	ldr	r2, [pc, #92]	@ (80087c0 <HAL_TIMEx_MasterConfigSynchronization+0xf0>)
 8008764:	4293      	cmp	r3, r2
 8008766:	d004      	beq.n	8008772 <HAL_TIMEx_MasterConfigSynchronization+0xa2>
 8008768:	687b      	ldr	r3, [r7, #4]
 800876a:	681b      	ldr	r3, [r3, #0]
 800876c:	4a15      	ldr	r2, [pc, #84]	@ (80087c4 <HAL_TIMEx_MasterConfigSynchronization+0xf4>)
 800876e:	4293      	cmp	r3, r2
 8008770:	d10c      	bne.n	800878c <HAL_TIMEx_MasterConfigSynchronization+0xbc>
  {
    /* Reset the MSM Bit */
    tmpsmcr &= ~TIM_SMCR_MSM;
 8008772:	68bb      	ldr	r3, [r7, #8]
 8008774:	f023 0380 	bic.w	r3, r3, #128	@ 0x80
 8008778:	60bb      	str	r3, [r7, #8]
    /* Set master mode */
    tmpsmcr |= sMasterConfig->MasterSlaveMode;
 800877a:	683b      	ldr	r3, [r7, #0]
 800877c:	685b      	ldr	r3, [r3, #4]
 800877e:	68ba      	ldr	r2, [r7, #8]
 8008780:	4313      	orrs	r3, r2
 8008782:	60bb      	str	r3, [r7, #8]

    /* Update TIMx SMCR */
    htim->Instance->SMCR = tmpsmcr;
 8008784:	687b      	ldr	r3, [r7, #4]
 8008786:	681b      	ldr	r3, [r3, #0]
 8008788:	68ba      	ldr	r2, [r7, #8]
 800878a:	609a      	str	r2, [r3, #8]
  }

  /* Change the htim state */
  htim->State = HAL_TIM_STATE_READY;
 800878c:	687b      	ldr	r3, [r7, #4]
 800878e:	2201      	movs	r2, #1
 8008790:	f883 203d 	strb.w	r2, [r3, #61]	@ 0x3d

  __HAL_UNLOCK(htim);
 8008794:	687b      	ldr	r3, [r7, #4]
 8008796:	2200      	movs	r2, #0
 8008798:	f883 203c 	strb.w	r2, [r3, #60]	@ 0x3c

  return HAL_OK;
 800879c:	2300      	movs	r3, #0
}
 800879e:	4618      	mov	r0, r3
 80087a0:	3714      	adds	r7, #20
 80087a2:	46bd      	mov	sp, r7
 80087a4:	f85d 7b04 	ldr.w	r7, [sp], #4
 80087a8:	4770      	bx	lr
 80087aa:	bf00      	nop
 80087ac:	40010000 	.word	0x40010000
 80087b0:	40000400 	.word	0x40000400
 80087b4:	40000800 	.word	0x40000800
 80087b8:	40000c00 	.word	0x40000c00
 80087bc:	40010400 	.word	0x40010400
 80087c0:	40014000 	.word	0x40014000
 80087c4:	40001800 	.word	0x40001800

080087c8 <HAL_TIMEx_CommutCallback>:
  * @brief  Commutation callback in non-blocking mode
  * @param  htim TIM handle
  * @retval None
  */
__weak void HAL_TIMEx_CommutCallback(TIM_HandleTypeDef *htim)
{
 80087c8:	b480      	push	{r7}
 80087ca:	b083      	sub	sp, #12
 80087cc:	af00      	add	r7, sp, #0
 80087ce:	6078      	str	r0, [r7, #4]
  UNUSED(htim);

  /* NOTE : This function should not be modified, when the callback is needed,
            the HAL_TIMEx_CommutCallback could be implemented in the user file
   */
}
 80087d0:	bf00      	nop
 80087d2:	370c      	adds	r7, #12
 80087d4:	46bd      	mov	sp, r7
 80087d6:	f85d 7b04 	ldr.w	r7, [sp], #4
 80087da:	4770      	bx	lr

080087dc <HAL_TIMEx_BreakCallback>:
  * @brief  Break detection callback in non-blocking mode
  * @param  htim TIM handle
  * @retval None
  */
__weak void HAL_TIMEx_BreakCallback(TIM_HandleTypeDef *htim)
{
 80087dc:	b480      	push	{r7}
 80087de:	b083      	sub	sp, #12
 80087e0:	af00      	add	r7, sp, #0
 80087e2:	6078      	str	r0, [r7, #4]
  UNUSED(htim);

  /* NOTE : This function should not be modified, when the callback is needed,
            the HAL_TIMEx_BreakCallback could be implemented in the user file
   */
}
 80087e4:	bf00      	nop
 80087e6:	370c      	adds	r7, #12
 80087e8:	46bd      	mov	sp, r7
 80087ea:	f85d 7b04 	ldr.w	r7, [sp], #4
 80087ee:	4770      	bx	lr

080087f0 <HAL_UART_Init>:
  * @param  huart  Pointer to a UART_HandleTypeDef structure that contains
  *                the configuration information for the specified UART module.
  * @retval HAL status
  */
HAL_StatusTypeDef HAL_UART_Init(UART_HandleTypeDef *huart)
{
 80087f0:	b580      	push	{r7, lr}
 80087f2:	b082      	sub	sp, #8
 80087f4:	af00      	add	r7, sp, #0
 80087f6:	6078      	str	r0, [r7, #4]
  /* Check the UART handle allocation */
  if (huart == NULL)
 80087f8:	687b      	ldr	r3, [r7, #4]
 80087fa:	2b00      	cmp	r3, #0
 80087fc:	d101      	bne.n	8008802 <HAL_UART_Init+0x12>
  {
    return HAL_ERROR;
 80087fe:	2301      	movs	r3, #1
 8008800:	e042      	b.n	8008888 <HAL_UART_Init+0x98>
    assert_param(IS_UART_INSTANCE(huart->Instance));
  }
  assert_param(IS_UART_WORD_LENGTH(huart->Init.WordLength));
  assert_param(IS_UART_OVERSAMPLING(huart->Init.OverSampling));

  if (huart->gState == HAL_UART_STATE_RESET)
 8008802:	687b      	ldr	r3, [r7, #4]
 8008804:	f893 3041 	ldrb.w	r3, [r3, #65]	@ 0x41
 8008808:	b2db      	uxtb	r3, r3
 800880a:	2b00      	cmp	r3, #0
 800880c:	d106      	bne.n	800881c <HAL_UART_Init+0x2c>
  {
    /* Allocate lock resource and initialize it */
    huart->Lock = HAL_UNLOCKED;
 800880e:	687b      	ldr	r3, [r7, #4]
 8008810:	2200      	movs	r2, #0
 8008812:	f883 2040 	strb.w	r2, [r3, #64]	@ 0x40

    /* Init the low level hardware */
    huart->MspInitCallback(huart);
#else
    /* Init the low level hardware : GPIO, CLOCK */
    HAL_UART_MspInit(huart);
 8008816:	6878      	ldr	r0, [r7, #4]
 8008818:	f7fa fabc 	bl	8002d94 <HAL_UART_MspInit>
#endif /* (USE_HAL_UART_REGISTER_CALLBACKS) */
  }

  huart->gState = HAL_UART_STATE_BUSY;
 800881c:	687b      	ldr	r3, [r7, #4]
 800881e:	2224      	movs	r2, #36	@ 0x24
 8008820:	f883 2041 	strb.w	r2, [r3, #65]	@ 0x41

  /* Disable the peripheral */
  __HAL_UART_DISABLE(huart);
 8008824:	687b      	ldr	r3, [r7, #4]
 8008826:	681b      	ldr	r3, [r3, #0]
 8008828:	68da      	ldr	r2, [r3, #12]
 800882a:	687b      	ldr	r3, [r7, #4]
 800882c:	681b      	ldr	r3, [r3, #0]
 800882e:	f422 5200 	bic.w	r2, r2, #8192	@ 0x2000
 8008832:	60da      	str	r2, [r3, #12]

  /* Set the UART Communication parameters */
  UART_SetConfig(huart);
 8008834:	6878      	ldr	r0, [r7, #4]
 8008836:	f000 fdbd 	bl	80093b4 <UART_SetConfig>

  /* In asynchronous mode, the following bits must be kept cleared:
     - LINEN and CLKEN bits in the USART_CR2 register,
     - SCEN, HDSEL and IREN  bits in the USART_CR3 register.*/
  CLEAR_BIT(huart->Instance->CR2, (USART_CR2_LINEN | USART_CR2_CLKEN));
 800883a:	687b      	ldr	r3, [r7, #4]
 800883c:	681b      	ldr	r3, [r3, #0]
 800883e:	691a      	ldr	r2, [r3, #16]
 8008840:	687b      	ldr	r3, [r7, #4]
 8008842:	681b      	ldr	r3, [r3, #0]
 8008844:	f422 4290 	bic.w	r2, r2, #18432	@ 0x4800
 8008848:	611a      	str	r2, [r3, #16]
  CLEAR_BIT(huart->Instance->CR3, (USART_CR3_SCEN | USART_CR3_HDSEL | USART_CR3_IREN));
 800884a:	687b      	ldr	r3, [r7, #4]
 800884c:	681b      	ldr	r3, [r3, #0]
 800884e:	695a      	ldr	r2, [r3, #20]
 8008850:	687b      	ldr	r3, [r7, #4]
 8008852:	681b      	ldr	r3, [r3, #0]
 8008854:	f022 022a 	bic.w	r2, r2, #42	@ 0x2a
 8008858:	615a      	str	r2, [r3, #20]

  /* Enable the peripheral */
  __HAL_UART_ENABLE(huart);
 800885a:	687b      	ldr	r3, [r7, #4]
 800885c:	681b      	ldr	r3, [r3, #0]
 800885e:	68da      	ldr	r2, [r3, #12]
 8008860:	687b      	ldr	r3, [r7, #4]
 8008862:	681b      	ldr	r3, [r3, #0]
 8008864:	f442 5200 	orr.w	r2, r2, #8192	@ 0x2000
 8008868:	60da      	str	r2, [r3, #12]

  /* Initialize the UART state */
  huart->ErrorCode = HAL_UART_ERROR_NONE;
 800886a:	687b      	ldr	r3, [r7, #4]
 800886c:	2200      	movs	r2, #0
 800886e:	645a      	str	r2, [r3, #68]	@ 0x44
  huart->gState = HAL_UART_STATE_READY;
 8008870:	687b      	ldr	r3, [r7, #4]
 8008872:	2220      	movs	r2, #32
 8008874:	f883 2041 	strb.w	r2, [r3, #65]	@ 0x41
  huart->RxState = HAL_UART_STATE_READY;
 8008878:	687b      	ldr	r3, [r7, #4]
 800887a:	2220      	movs	r2, #32
 800887c:	f883 2042 	strb.w	r2, [r3, #66]	@ 0x42
  huart->RxEventType = HAL_UART_RXEVENT_TC;
 8008880:	687b      	ldr	r3, [r7, #4]
 8008882:	2200      	movs	r2, #0
 8008884:	635a      	str	r2, [r3, #52]	@ 0x34

  return HAL_OK;
 8008886:	2300      	movs	r3, #0
}
 8008888:	4618      	mov	r0, r3
 800888a:	3708      	adds	r7, #8
 800888c:	46bd      	mov	sp, r7
 800888e:	bd80      	pop	{r7, pc}

08008890 <HAL_UART_Transmit>:
  * @param  Size  Amount of data elements (u8 or u16) to be sent
  * @param  Timeout Timeout duration
  * @retval HAL status
  */
HAL_StatusTypeDef HAL_UART_Transmit(UART_HandleTypeDef *huart, const uint8_t *pData, uint16_t Size, uint32_t Timeout)
{
 8008890:	b580      	push	{r7, lr}
 8008892:	b08a      	sub	sp, #40	@ 0x28
 8008894:	af02      	add	r7, sp, #8
 8008896:	60f8      	str	r0, [r7, #12]
 8008898:	60b9      	str	r1, [r7, #8]
 800889a:	603b      	str	r3, [r7, #0]
 800889c:	4613      	mov	r3, r2
 800889e:	80fb      	strh	r3, [r7, #6]
  const uint8_t  *pdata8bits;
  const uint16_t *pdata16bits;
  uint32_t tickstart = 0U;
 80088a0:	2300      	movs	r3, #0
 80088a2:	617b      	str	r3, [r7, #20]

  /* Check that a Tx process is not already ongoing */
  if (huart->gState == HAL_UART_STATE_READY)
 80088a4:	68fb      	ldr	r3, [r7, #12]
 80088a6:	f893 3041 	ldrb.w	r3, [r3, #65]	@ 0x41
 80088aa:	b2db      	uxtb	r3, r3
 80088ac:	2b20      	cmp	r3, #32
 80088ae:	d175      	bne.n	800899c <HAL_UART_Transmit+0x10c>
  {
    if ((pData == NULL) || (Size == 0U))
 80088b0:	68bb      	ldr	r3, [r7, #8]
 80088b2:	2b00      	cmp	r3, #0
 80088b4:	d002      	beq.n	80088bc <HAL_UART_Transmit+0x2c>
 80088b6:	88fb      	ldrh	r3, [r7, #6]
 80088b8:	2b00      	cmp	r3, #0
 80088ba:	d101      	bne.n	80088c0 <HAL_UART_Transmit+0x30>
    {
      return  HAL_ERROR;
 80088bc:	2301      	movs	r3, #1
 80088be:	e06e      	b.n	800899e <HAL_UART_Transmit+0x10e>
    }

    huart->ErrorCode = HAL_UART_ERROR_NONE;
 80088c0:	68fb      	ldr	r3, [r7, #12]
 80088c2:	2200      	movs	r2, #0
 80088c4:	645a      	str	r2, [r3, #68]	@ 0x44
    huart->gState = HAL_UART_STATE_BUSY_TX;
 80088c6:	68fb      	ldr	r3, [r7, #12]
 80088c8:	2221      	movs	r2, #33	@ 0x21
 80088ca:	f883 2041 	strb.w	r2, [r3, #65]	@ 0x41

    /* Init tickstart for timeout management */
    tickstart = HAL_GetTick();
 80088ce:	f7fa fc99 	bl	8003204 <HAL_GetTick>
 80088d2:	6178      	str	r0, [r7, #20]

    huart->TxXferSize = Size;
 80088d4:	68fb      	ldr	r3, [r7, #12]
 80088d6:	88fa      	ldrh	r2, [r7, #6]
 80088d8:	849a      	strh	r2, [r3, #36]	@ 0x24
    huart->TxXferCount = Size;
 80088da:	68fb      	ldr	r3, [r7, #12]
 80088dc:	88fa      	ldrh	r2, [r7, #6]
 80088de:	84da      	strh	r2, [r3, #38]	@ 0x26

    /* In case of 9bits/No Parity transfer, pData needs to be handled as a uint16_t pointer */
    if ((huart->Init.WordLength == UART_WORDLENGTH_9B) && (huart->Init.Parity == UART_PARITY_NONE))
 80088e0:	68fb      	ldr	r3, [r7, #12]
 80088e2:	689b      	ldr	r3, [r3, #8]
 80088e4:	f5b3 5f80 	cmp.w	r3, #4096	@ 0x1000
 80088e8:	d108      	bne.n	80088fc <HAL_UART_Transmit+0x6c>
 80088ea:	68fb      	ldr	r3, [r7, #12]
 80088ec:	691b      	ldr	r3, [r3, #16]
 80088ee:	2b00      	cmp	r3, #0
 80088f0:	d104      	bne.n	80088fc <HAL_UART_Transmit+0x6c>
    {
      pdata8bits  = NULL;
 80088f2:	2300      	movs	r3, #0
 80088f4:	61fb      	str	r3, [r7, #28]
      pdata16bits = (const uint16_t *) pData;
 80088f6:	68bb      	ldr	r3, [r7, #8]
 80088f8:	61bb      	str	r3, [r7, #24]
 80088fa:	e003      	b.n	8008904 <HAL_UART_Transmit+0x74>
    }
    else
    {
      pdata8bits  = pData;
 80088fc:	68bb      	ldr	r3, [r7, #8]
 80088fe:	61fb      	str	r3, [r7, #28]
      pdata16bits = NULL;
 8008900:	2300      	movs	r3, #0
 8008902:	61bb      	str	r3, [r7, #24]
    }

    while (huart->TxXferCount > 0U)
 8008904:	e02e      	b.n	8008964 <HAL_UART_Transmit+0xd4>
    {
      if (UART_WaitOnFlagUntilTimeout(huart, UART_FLAG_TXE, RESET, tickstart, Timeout) != HAL_OK)
 8008906:	683b      	ldr	r3, [r7, #0]
 8008908:	9300      	str	r3, [sp, #0]
 800890a:	697b      	ldr	r3, [r7, #20]
 800890c:	2200      	movs	r2, #0
 800890e:	2180      	movs	r1, #128	@ 0x80
 8008910:	68f8      	ldr	r0, [r7, #12]
 8008912:	f000 fb1f 	bl	8008f54 <UART_WaitOnFlagUntilTimeout>
 8008916:	4603      	mov	r3, r0
 8008918:	2b00      	cmp	r3, #0
 800891a:	d005      	beq.n	8008928 <HAL_UART_Transmit+0x98>
      {
        huart->gState = HAL_UART_STATE_READY;
 800891c:	68fb      	ldr	r3, [r7, #12]
 800891e:	2220      	movs	r2, #32
 8008920:	f883 2041 	strb.w	r2, [r3, #65]	@ 0x41

        return HAL_TIMEOUT;
 8008924:	2303      	movs	r3, #3
 8008926:	e03a      	b.n	800899e <HAL_UART_Transmit+0x10e>
      }
      if (pdata8bits == NULL)
 8008928:	69fb      	ldr	r3, [r7, #28]
 800892a:	2b00      	cmp	r3, #0
 800892c:	d10b      	bne.n	8008946 <HAL_UART_Transmit+0xb6>
      {
        huart->Instance->DR = (uint16_t)(*pdata16bits & 0x01FFU);
 800892e:	69bb      	ldr	r3, [r7, #24]
 8008930:	881b      	ldrh	r3, [r3, #0]
 8008932:	461a      	mov	r2, r3
 8008934:	68fb      	ldr	r3, [r7, #12]
 8008936:	681b      	ldr	r3, [r3, #0]
 8008938:	f3c2 0208 	ubfx	r2, r2, #0, #9
 800893c:	605a      	str	r2, [r3, #4]
        pdata16bits++;
 800893e:	69bb      	ldr	r3, [r7, #24]
 8008940:	3302      	adds	r3, #2
 8008942:	61bb      	str	r3, [r7, #24]
 8008944:	e007      	b.n	8008956 <HAL_UART_Transmit+0xc6>
      }
      else
      {
        huart->Instance->DR = (uint8_t)(*pdata8bits & 0xFFU);
 8008946:	69fb      	ldr	r3, [r7, #28]
 8008948:	781a      	ldrb	r2, [r3, #0]
 800894a:	68fb      	ldr	r3, [r7, #12]
 800894c:	681b      	ldr	r3, [r3, #0]
 800894e:	605a      	str	r2, [r3, #4]
        pdata8bits++;
 8008950:	69fb      	ldr	r3, [r7, #28]
 8008952:	3301      	adds	r3, #1
 8008954:	61fb      	str	r3, [r7, #28]
      }
      huart->TxXferCount--;
 8008956:	68fb      	ldr	r3, [r7, #12]
 8008958:	8cdb      	ldrh	r3, [r3, #38]	@ 0x26
 800895a:	b29b      	uxth	r3, r3
 800895c:	3b01      	subs	r3, #1
 800895e:	b29a      	uxth	r2, r3
 8008960:	68fb      	ldr	r3, [r7, #12]
 8008962:	84da      	strh	r2, [r3, #38]	@ 0x26
    while (huart->TxXferCount > 0U)
 8008964:	68fb      	ldr	r3, [r7, #12]
 8008966:	8cdb      	ldrh	r3, [r3, #38]	@ 0x26
 8008968:	b29b      	uxth	r3, r3
 800896a:	2b00      	cmp	r3, #0
 800896c:	d1cb      	bne.n	8008906 <HAL_UART_Transmit+0x76>
    }

    if (UART_WaitOnFlagUntilTimeout(huart, UART_FLAG_TC, RESET, tickstart, Timeout) != HAL_OK)
 800896e:	683b      	ldr	r3, [r7, #0]
 8008970:	9300      	str	r3, [sp, #0]
 8008972:	697b      	ldr	r3, [r7, #20]
 8008974:	2200      	movs	r2, #0
 8008976:	2140      	movs	r1, #64	@ 0x40
 8008978:	68f8      	ldr	r0, [r7, #12]
 800897a:	f000 faeb 	bl	8008f54 <UART_WaitOnFlagUntilTimeout>
 800897e:	4603      	mov	r3, r0
 8008980:	2b00      	cmp	r3, #0
 8008982:	d005      	beq.n	8008990 <HAL_UART_Transmit+0x100>
    {
      huart->gState = HAL_UART_STATE_READY;
 8008984:	68fb      	ldr	r3, [r7, #12]
 8008986:	2220      	movs	r2, #32
 8008988:	f883 2041 	strb.w	r2, [r3, #65]	@ 0x41

      return HAL_TIMEOUT;
 800898c:	2303      	movs	r3, #3
 800898e:	e006      	b.n	800899e <HAL_UART_Transmit+0x10e>
    }

    /* At end of Tx process, restore huart->gState to Ready */
    huart->gState = HAL_UART_STATE_READY;
 8008990:	68fb      	ldr	r3, [r7, #12]
 8008992:	2220      	movs	r2, #32
 8008994:	f883 2041 	strb.w	r2, [r3, #65]	@ 0x41

    return HAL_OK;
 8008998:	2300      	movs	r3, #0
 800899a:	e000      	b.n	800899e <HAL_UART_Transmit+0x10e>
  }
  else
  {
    return HAL_BUSY;
 800899c:	2302      	movs	r3, #2
  }
}
 800899e:	4618      	mov	r0, r3
 80089a0:	3720      	adds	r7, #32
 80089a2:	46bd      	mov	sp, r7
 80089a4:	bd80      	pop	{r7, pc}

080089a6 <HAL_UART_Receive_IT>:
  * @param  pData Pointer to data buffer (u8 or u16 data elements).
  * @param  Size  Amount of data elements (u8 or u16) to be received.
  * @retval HAL status
  */
HAL_StatusTypeDef HAL_UART_Receive_IT(UART_HandleTypeDef *huart, uint8_t *pData, uint16_t Size)
{
 80089a6:	b580      	push	{r7, lr}
 80089a8:	b084      	sub	sp, #16
 80089aa:	af00      	add	r7, sp, #0
 80089ac:	60f8      	str	r0, [r7, #12]
 80089ae:	60b9      	str	r1, [r7, #8]
 80089b0:	4613      	mov	r3, r2
 80089b2:	80fb      	strh	r3, [r7, #6]
  /* Check that a Rx process is not already ongoing */
  if (huart->RxState == HAL_UART_STATE_READY)
 80089b4:	68fb      	ldr	r3, [r7, #12]
 80089b6:	f893 3042 	ldrb.w	r3, [r3, #66]	@ 0x42
 80089ba:	b2db      	uxtb	r3, r3
 80089bc:	2b20      	cmp	r3, #32
 80089be:	d112      	bne.n	80089e6 <HAL_UART_Receive_IT+0x40>
  {
    if ((pData == NULL) || (Size == 0U))
 80089c0:	68bb      	ldr	r3, [r7, #8]
 80089c2:	2b00      	cmp	r3, #0
 80089c4:	d002      	beq.n	80089cc <HAL_UART_Receive_IT+0x26>
 80089c6:	88fb      	ldrh	r3, [r7, #6]
 80089c8:	2b00      	cmp	r3, #0
 80089ca:	d101      	bne.n	80089d0 <HAL_UART_Receive_IT+0x2a>
    {
      return HAL_ERROR;
 80089cc:	2301      	movs	r3, #1
 80089ce:	e00b      	b.n	80089e8 <HAL_UART_Receive_IT+0x42>
    }

    /* Set Reception type to Standard reception */
    huart->ReceptionType = HAL_UART_RECEPTION_STANDARD;
 80089d0:	68fb      	ldr	r3, [r7, #12]
 80089d2:	2200      	movs	r2, #0
 80089d4:	631a      	str	r2, [r3, #48]	@ 0x30

    return (UART_Start_Receive_IT(huart, pData, Size));
 80089d6:	88fb      	ldrh	r3, [r7, #6]
 80089d8:	461a      	mov	r2, r3
 80089da:	68b9      	ldr	r1, [r7, #8]
 80089dc:	68f8      	ldr	r0, [r7, #12]
 80089de:	f000 fb12 	bl	8009006 <UART_Start_Receive_IT>
 80089e2:	4603      	mov	r3, r0
 80089e4:	e000      	b.n	80089e8 <HAL_UART_Receive_IT+0x42>
  }
  else
  {
    return HAL_BUSY;
 80089e6:	2302      	movs	r3, #2
  }
}
 80089e8:	4618      	mov	r0, r3
 80089ea:	3710      	adds	r7, #16
 80089ec:	46bd      	mov	sp, r7
 80089ee:	bd80      	pop	{r7, pc}

080089f0 <HAL_UART_IRQHandler>:
  * @param  huart  Pointer to a UART_HandleTypeDef structure that contains
  *                the configuration information for the specified UART module.
  * @retval None
  */
void HAL_UART_IRQHandler(UART_HandleTypeDef *huart)
{
 80089f0:	b580      	push	{r7, lr}
 80089f2:	b0ba      	sub	sp, #232	@ 0xe8
 80089f4:	af00      	add	r7, sp, #0
 80089f6:	6078      	str	r0, [r7, #4]
  uint32_t isrflags   = READ_REG(huart->Instance->SR);
 80089f8:	687b      	ldr	r3, [r7, #4]
 80089fa:	681b      	ldr	r3, [r3, #0]
 80089fc:	681b      	ldr	r3, [r3, #0]
 80089fe:	f8c7 30e4 	str.w	r3, [r7, #228]	@ 0xe4
  uint32_t cr1its     = READ_REG(huart->Instance->CR1);
 8008a02:	687b      	ldr	r3, [r7, #4]
 8008a04:	681b      	ldr	r3, [r3, #0]
 8008a06:	68db      	ldr	r3, [r3, #12]
 8008a08:	f8c7 30e0 	str.w	r3, [r7, #224]	@ 0xe0
  uint32_t cr3its     = READ_REG(huart->Instance->CR3);
 8008a0c:	687b      	ldr	r3, [r7, #4]
 8008a0e:	681b      	ldr	r3, [r3, #0]
 8008a10:	695b      	ldr	r3, [r3, #20]
 8008a12:	f8c7 30dc 	str.w	r3, [r7, #220]	@ 0xdc
  uint32_t errorflags = 0x00U;
 8008a16:	2300      	movs	r3, #0
 8008a18:	f8c7 30d8 	str.w	r3, [r7, #216]	@ 0xd8
  uint32_t dmarequest = 0x00U;
 8008a1c:	2300      	movs	r3, #0
 8008a1e:	f8c7 30d4 	str.w	r3, [r7, #212]	@ 0xd4

  /* If no error occurs */
  errorflags = (isrflags & (uint32_t)(USART_SR_PE | USART_SR_FE | USART_SR_ORE | USART_SR_NE));
 8008a22:	f8d7 30e4 	ldr.w	r3, [r7, #228]	@ 0xe4
 8008a26:	f003 030f 	and.w	r3, r3, #15
 8008a2a:	f8c7 30d8 	str.w	r3, [r7, #216]	@ 0xd8
  if (errorflags == RESET)
 8008a2e:	f8d7 30d8 	ldr.w	r3, [r7, #216]	@ 0xd8
 8008a32:	2b00      	cmp	r3, #0
 8008a34:	d10f      	bne.n	8008a56 <HAL_UART_IRQHandler+0x66>
  {
    /* UART in mode Receiver -------------------------------------------------*/
    if (((isrflags & USART_SR_RXNE) != RESET) && ((cr1its & USART_CR1_RXNEIE) != RESET))
 8008a36:	f8d7 30e4 	ldr.w	r3, [r7, #228]	@ 0xe4
 8008a3a:	f003 0320 	and.w	r3, r3, #32
 8008a3e:	2b00      	cmp	r3, #0
 8008a40:	d009      	beq.n	8008a56 <HAL_UART_IRQHandler+0x66>
 8008a42:	f8d7 30e0 	ldr.w	r3, [r7, #224]	@ 0xe0
 8008a46:	f003 0320 	and.w	r3, r3, #32
 8008a4a:	2b00      	cmp	r3, #0
 8008a4c:	d003      	beq.n	8008a56 <HAL_UART_IRQHandler+0x66>
    {
      UART_Receive_IT(huart);
 8008a4e:	6878      	ldr	r0, [r7, #4]
 8008a50:	f000 fbf2 	bl	8009238 <UART_Receive_IT>
      return;
 8008a54:	e25b      	b.n	8008f0e <HAL_UART_IRQHandler+0x51e>
    }
  }

  /* If some errors occur */
  if ((errorflags != RESET) && (((cr3its & USART_CR3_EIE) != RESET)
 8008a56:	f8d7 30d8 	ldr.w	r3, [r7, #216]	@ 0xd8
 8008a5a:	2b00      	cmp	r3, #0
 8008a5c:	f000 80de 	beq.w	8008c1c <HAL_UART_IRQHandler+0x22c>
 8008a60:	f8d7 30dc 	ldr.w	r3, [r7, #220]	@ 0xdc
 8008a64:	f003 0301 	and.w	r3, r3, #1
 8008a68:	2b00      	cmp	r3, #0
 8008a6a:	d106      	bne.n	8008a7a <HAL_UART_IRQHandler+0x8a>
                                || ((cr1its & (USART_CR1_RXNEIE | USART_CR1_PEIE)) != RESET)))
 8008a6c:	f8d7 30e0 	ldr.w	r3, [r7, #224]	@ 0xe0
 8008a70:	f403 7390 	and.w	r3, r3, #288	@ 0x120
 8008a74:	2b00      	cmp	r3, #0
 8008a76:	f000 80d1 	beq.w	8008c1c <HAL_UART_IRQHandler+0x22c>
  {
    /* UART parity error interrupt occurred ----------------------------------*/
    if (((isrflags & USART_SR_PE) != RESET) && ((cr1its & USART_CR1_PEIE) != RESET))
 8008a7a:	f8d7 30e4 	ldr.w	r3, [r7, #228]	@ 0xe4
 8008a7e:	f003 0301 	and.w	r3, r3, #1
 8008a82:	2b00      	cmp	r3, #0
 8008a84:	d00b      	beq.n	8008a9e <HAL_UART_IRQHandler+0xae>
 8008a86:	f8d7 30e0 	ldr.w	r3, [r7, #224]	@ 0xe0
 8008a8a:	f403 7380 	and.w	r3, r3, #256	@ 0x100
 8008a8e:	2b00      	cmp	r3, #0
 8008a90:	d005      	beq.n	8008a9e <HAL_UART_IRQHandler+0xae>
    {
      huart->ErrorCode |= HAL_UART_ERROR_PE;
 8008a92:	687b      	ldr	r3, [r7, #4]
 8008a94:	6c5b      	ldr	r3, [r3, #68]	@ 0x44
 8008a96:	f043 0201 	orr.w	r2, r3, #1
 8008a9a:	687b      	ldr	r3, [r7, #4]
 8008a9c:	645a      	str	r2, [r3, #68]	@ 0x44
    }

    /* UART noise error interrupt occurred -----------------------------------*/
    if (((isrflags & USART_SR_NE) != RESET) && ((cr3its & USART_CR3_EIE) != RESET))
 8008a9e:	f8d7 30e4 	ldr.w	r3, [r7, #228]	@ 0xe4
 8008aa2:	f003 0304 	and.w	r3, r3, #4
 8008aa6:	2b00      	cmp	r3, #0
 8008aa8:	d00b      	beq.n	8008ac2 <HAL_UART_IRQHandler+0xd2>
 8008aaa:	f8d7 30dc 	ldr.w	r3, [r7, #220]	@ 0xdc
 8008aae:	f003 0301 	and.w	r3, r3, #1
 8008ab2:	2b00      	cmp	r3, #0
 8008ab4:	d005      	beq.n	8008ac2 <HAL_UART_IRQHandler+0xd2>
    {
      huart->ErrorCode |= HAL_UART_ERROR_NE;
 8008ab6:	687b      	ldr	r3, [r7, #4]
 8008ab8:	6c5b      	ldr	r3, [r3, #68]	@ 0x44
 8008aba:	f043 0202 	orr.w	r2, r3, #2
 8008abe:	687b      	ldr	r3, [r7, #4]
 8008ac0:	645a      	str	r2, [r3, #68]	@ 0x44
    }

    /* UART frame error interrupt occurred -----------------------------------*/
    if (((isrflags & USART_SR_FE) != RESET) && ((cr3its & USART_CR3_EIE) != RESET))
 8008ac2:	f8d7 30e4 	ldr.w	r3, [r7, #228]	@ 0xe4
 8008ac6:	f003 0302 	and.w	r3, r3, #2
 8008aca:	2b00      	cmp	r3, #0
 8008acc:	d00b      	beq.n	8008ae6 <HAL_UART_IRQHandler+0xf6>
 8008ace:	f8d7 30dc 	ldr.w	r3, [r7, #220]	@ 0xdc
 8008ad2:	f003 0301 	and.w	r3, r3, #1
 8008ad6:	2b00      	cmp	r3, #0
 8008ad8:	d005      	beq.n	8008ae6 <HAL_UART_IRQHandler+0xf6>
    {
      huart->ErrorCode |= HAL_UART_ERROR_FE;
 8008ada:	687b      	ldr	r3, [r7, #4]
 8008adc:	6c5b      	ldr	r3, [r3, #68]	@ 0x44
 8008ade:	f043 0204 	orr.w	r2, r3, #4
 8008ae2:	687b      	ldr	r3, [r7, #4]
 8008ae4:	645a      	str	r2, [r3, #68]	@ 0x44
    }

    /* UART Over-Run interrupt occurred --------------------------------------*/
    if (((isrflags & USART_SR_ORE) != RESET) && (((cr1its & USART_CR1_RXNEIE) != RESET)
 8008ae6:	f8d7 30e4 	ldr.w	r3, [r7, #228]	@ 0xe4
 8008aea:	f003 0308 	and.w	r3, r3, #8
 8008aee:	2b00      	cmp	r3, #0
 8008af0:	d011      	beq.n	8008b16 <HAL_UART_IRQHandler+0x126>
 8008af2:	f8d7 30e0 	ldr.w	r3, [r7, #224]	@ 0xe0
 8008af6:	f003 0320 	and.w	r3, r3, #32
 8008afa:	2b00      	cmp	r3, #0
 8008afc:	d105      	bne.n	8008b0a <HAL_UART_IRQHandler+0x11a>
                                                 || ((cr3its & USART_CR3_EIE) != RESET)))
 8008afe:	f8d7 30dc 	ldr.w	r3, [r7, #220]	@ 0xdc
 8008b02:	f003 0301 	and.w	r3, r3, #1
 8008b06:	2b00      	cmp	r3, #0
 8008b08:	d005      	beq.n	8008b16 <HAL_UART_IRQHandler+0x126>
    {
      huart->ErrorCode |= HAL_UART_ERROR_ORE;
 8008b0a:	687b      	ldr	r3, [r7, #4]
 8008b0c:	6c5b      	ldr	r3, [r3, #68]	@ 0x44
 8008b0e:	f043 0208 	orr.w	r2, r3, #8
 8008b12:	687b      	ldr	r3, [r7, #4]
 8008b14:	645a      	str	r2, [r3, #68]	@ 0x44
    }

    /* Call UART Error Call back function if need be --------------------------*/
    if (huart->ErrorCode != HAL_UART_ERROR_NONE)
 8008b16:	687b      	ldr	r3, [r7, #4]
 8008b18:	6c5b      	ldr	r3, [r3, #68]	@ 0x44
 8008b1a:	2b00      	cmp	r3, #0
 8008b1c:	f000 81f2 	beq.w	8008f04 <HAL_UART_IRQHandler+0x514>
    {
      /* UART in mode Receiver -----------------------------------------------*/
      if (((isrflags & USART_SR_RXNE) != RESET) && ((cr1its & USART_CR1_RXNEIE) != RESET))
 8008b20:	f8d7 30e4 	ldr.w	r3, [r7, #228]	@ 0xe4
 8008b24:	f003 0320 	and.w	r3, r3, #32
 8008b28:	2b00      	cmp	r3, #0
 8008b2a:	d008      	beq.n	8008b3e <HAL_UART_IRQHandler+0x14e>
 8008b2c:	f8d7 30e0 	ldr.w	r3, [r7, #224]	@ 0xe0
 8008b30:	f003 0320 	and.w	r3, r3, #32
 8008b34:	2b00      	cmp	r3, #0
 8008b36:	d002      	beq.n	8008b3e <HAL_UART_IRQHandler+0x14e>
      {
        UART_Receive_IT(huart);
 8008b38:	6878      	ldr	r0, [r7, #4]
 8008b3a:	f000 fb7d 	bl	8009238 <UART_Receive_IT>
      }

      /* If Overrun error occurs, or if any error occurs in DMA mode reception,
         consider error as blocking */
      dmarequest = HAL_IS_BIT_SET(huart->Instance->CR3, USART_CR3_DMAR);
 8008b3e:	687b      	ldr	r3, [r7, #4]
 8008b40:	681b      	ldr	r3, [r3, #0]
 8008b42:	695b      	ldr	r3, [r3, #20]
 8008b44:	f003 0340 	and.w	r3, r3, #64	@ 0x40
 8008b48:	2b40      	cmp	r3, #64	@ 0x40
 8008b4a:	bf0c      	ite	eq
 8008b4c:	2301      	moveq	r3, #1
 8008b4e:	2300      	movne	r3, #0
 8008b50:	b2db      	uxtb	r3, r3
 8008b52:	f8c7 30d4 	str.w	r3, [r7, #212]	@ 0xd4
      if (((huart->ErrorCode & HAL_UART_ERROR_ORE) != RESET) || dmarequest)
 8008b56:	687b      	ldr	r3, [r7, #4]
 8008b58:	6c5b      	ldr	r3, [r3, #68]	@ 0x44
 8008b5a:	f003 0308 	and.w	r3, r3, #8
 8008b5e:	2b00      	cmp	r3, #0
 8008b60:	d103      	bne.n	8008b6a <HAL_UART_IRQHandler+0x17a>
 8008b62:	f8d7 30d4 	ldr.w	r3, [r7, #212]	@ 0xd4
 8008b66:	2b00      	cmp	r3, #0
 8008b68:	d04f      	beq.n	8008c0a <HAL_UART_IRQHandler+0x21a>
      {
        /* Blocking error : transfer is aborted
           Set the UART state ready to be able to start again the process,
           Disable Rx Interrupts, and disable Rx DMA request, if ongoing */
        UART_EndRxTransfer(huart);
 8008b6a:	6878      	ldr	r0, [r7, #4]
 8008b6c:	f000 fa85 	bl	800907a <UART_EndRxTransfer>

        /* Disable the UART DMA Rx request if enabled */
        if (HAL_IS_BIT_SET(huart->Instance->CR3, USART_CR3_DMAR))
 8008b70:	687b      	ldr	r3, [r7, #4]
 8008b72:	681b      	ldr	r3, [r3, #0]
 8008b74:	695b      	ldr	r3, [r3, #20]
 8008b76:	f003 0340 	and.w	r3, r3, #64	@ 0x40
 8008b7a:	2b40      	cmp	r3, #64	@ 0x40
 8008b7c:	d141      	bne.n	8008c02 <HAL_UART_IRQHandler+0x212>
        {
          ATOMIC_CLEAR_BIT(huart->Instance->CR3, USART_CR3_DMAR);
 8008b7e:	687b      	ldr	r3, [r7, #4]
 8008b80:	681b      	ldr	r3, [r3, #0]
 8008b82:	3314      	adds	r3, #20
 8008b84:	f8c7 309c 	str.w	r3, [r7, #156]	@ 0x9c
   __ASM volatile ("ldrex %0, %1" : "=r" (result) : "Q" (*addr) );
 8008b88:	f8d7 309c 	ldr.w	r3, [r7, #156]	@ 0x9c
 8008b8c:	e853 3f00 	ldrex	r3, [r3]
 8008b90:	f8c7 3098 	str.w	r3, [r7, #152]	@ 0x98
   return(result);
 8008b94:	f8d7 3098 	ldr.w	r3, [r7, #152]	@ 0x98
 8008b98:	f023 0340 	bic.w	r3, r3, #64	@ 0x40
 8008b9c:	f8c7 30d0 	str.w	r3, [r7, #208]	@ 0xd0
 8008ba0:	687b      	ldr	r3, [r7, #4]
 8008ba2:	681b      	ldr	r3, [r3, #0]
 8008ba4:	3314      	adds	r3, #20
 8008ba6:	f8d7 20d0 	ldr.w	r2, [r7, #208]	@ 0xd0
 8008baa:	f8c7 20a8 	str.w	r2, [r7, #168]	@ 0xa8
 8008bae:	f8c7 30a4 	str.w	r3, [r7, #164]	@ 0xa4
   __ASM volatile ("strex %0, %2, %1" : "=&r" (result), "=Q" (*addr) : "r" (value) );
 8008bb2:	f8d7 10a4 	ldr.w	r1, [r7, #164]	@ 0xa4
 8008bb6:	f8d7 20a8 	ldr.w	r2, [r7, #168]	@ 0xa8
 8008bba:	e841 2300 	strex	r3, r2, [r1]
 8008bbe:	f8c7 30a0 	str.w	r3, [r7, #160]	@ 0xa0
   return(result);
 8008bc2:	f8d7 30a0 	ldr.w	r3, [r7, #160]	@ 0xa0
 8008bc6:	2b00      	cmp	r3, #0
 8008bc8:	d1d9      	bne.n	8008b7e <HAL_UART_IRQHandler+0x18e>

          /* Abort the UART DMA Rx stream */
          if (huart->hdmarx != NULL)
 8008bca:	687b      	ldr	r3, [r7, #4]
 8008bcc:	6bdb      	ldr	r3, [r3, #60]	@ 0x3c
 8008bce:	2b00      	cmp	r3, #0
 8008bd0:	d013      	beq.n	8008bfa <HAL_UART_IRQHandler+0x20a>
          {
            /* Set the UART DMA Abort callback :
               will lead to call HAL_UART_ErrorCallback() at end of DMA abort procedure */
            huart->hdmarx->XferAbortCallback = UART_DMAAbortOnError;
 8008bd2:	687b      	ldr	r3, [r7, #4]
 8008bd4:	6bdb      	ldr	r3, [r3, #60]	@ 0x3c
 8008bd6:	4a7e      	ldr	r2, [pc, #504]	@ (8008dd0 <HAL_UART_IRQHandler+0x3e0>)
 8008bd8:	651a      	str	r2, [r3, #80]	@ 0x50
            if (HAL_DMA_Abort_IT(huart->hdmarx) != HAL_OK)
 8008bda:	687b      	ldr	r3, [r7, #4]
 8008bdc:	6bdb      	ldr	r3, [r3, #60]	@ 0x3c
 8008bde:	4618      	mov	r0, r3
 8008be0:	f7fb fc30 	bl	8004444 <HAL_DMA_Abort_IT>
 8008be4:	4603      	mov	r3, r0
 8008be6:	2b00      	cmp	r3, #0
 8008be8:	d016      	beq.n	8008c18 <HAL_UART_IRQHandler+0x228>
            {
              /* Call Directly XferAbortCallback function in case of error */
              huart->hdmarx->XferAbortCallback(huart->hdmarx);
 8008bea:	687b      	ldr	r3, [r7, #4]
 8008bec:	6bdb      	ldr	r3, [r3, #60]	@ 0x3c
 8008bee:	6d1b      	ldr	r3, [r3, #80]	@ 0x50
 8008bf0:	687a      	ldr	r2, [r7, #4]
 8008bf2:	6bd2      	ldr	r2, [r2, #60]	@ 0x3c
 8008bf4:	4610      	mov	r0, r2
 8008bf6:	4798      	blx	r3
        if (HAL_IS_BIT_SET(huart->Instance->CR3, USART_CR3_DMAR))
 8008bf8:	e00e      	b.n	8008c18 <HAL_UART_IRQHandler+0x228>
#if (USE_HAL_UART_REGISTER_CALLBACKS == 1)
            /*Call registered error callback*/
            huart->ErrorCallback(huart);
#else
            /*Call legacy weak error callback*/
            HAL_UART_ErrorCallback(huart);
 8008bfa:	6878      	ldr	r0, [r7, #4]
 8008bfc:	f000 f994 	bl	8008f28 <HAL_UART_ErrorCallback>
        if (HAL_IS_BIT_SET(huart->Instance->CR3, USART_CR3_DMAR))
 8008c00:	e00a      	b.n	8008c18 <HAL_UART_IRQHandler+0x228>
#if (USE_HAL_UART_REGISTER_CALLBACKS == 1)
          /*Call registered error callback*/
          huart->ErrorCallback(huart);
#else
          /*Call legacy weak error callback*/
          HAL_UART_ErrorCallback(huart);
 8008c02:	6878      	ldr	r0, [r7, #4]
 8008c04:	f000 f990 	bl	8008f28 <HAL_UART_ErrorCallback>
        if (HAL_IS_BIT_SET(huart->Instance->CR3, USART_CR3_DMAR))
 8008c08:	e006      	b.n	8008c18 <HAL_UART_IRQHandler+0x228>
#if (USE_HAL_UART_REGISTER_CALLBACKS == 1)
        /*Call registered error callback*/
        huart->ErrorCallback(huart);
#else
        /*Call legacy weak error callback*/
        HAL_UART_ErrorCallback(huart);
 8008c0a:	6878      	ldr	r0, [r7, #4]
 8008c0c:	f000 f98c 	bl	8008f28 <HAL_UART_ErrorCallback>
#endif /* USE_HAL_UART_REGISTER_CALLBACKS */

        huart->ErrorCode = HAL_UART_ERROR_NONE;
 8008c10:	687b      	ldr	r3, [r7, #4]
 8008c12:	2200      	movs	r2, #0
 8008c14:	645a      	str	r2, [r3, #68]	@ 0x44
      }
    }
    return;
 8008c16:	e175      	b.n	8008f04 <HAL_UART_IRQHandler+0x514>
        if (HAL_IS_BIT_SET(huart->Instance->CR3, USART_CR3_DMAR))
 8008c18:	bf00      	nop
    return;
 8008c1a:	e173      	b.n	8008f04 <HAL_UART_IRQHandler+0x514>
  } /* End if some error occurs */

  /* Check current reception Mode :
     If Reception till IDLE event has been selected : */
  if ((huart->ReceptionType == HAL_UART_RECEPTION_TOIDLE)
 8008c1c:	687b      	ldr	r3, [r7, #4]
 8008c1e:	6b1b      	ldr	r3, [r3, #48]	@ 0x30
 8008c20:	2b01      	cmp	r3, #1
 8008c22:	f040 814f 	bne.w	8008ec4 <HAL_UART_IRQHandler+0x4d4>
      && ((isrflags & USART_SR_IDLE) != 0U)
 8008c26:	f8d7 30e4 	ldr.w	r3, [r7, #228]	@ 0xe4
 8008c2a:	f003 0310 	and.w	r3, r3, #16
 8008c2e:	2b00      	cmp	r3, #0
 8008c30:	f000 8148 	beq.w	8008ec4 <HAL_UART_IRQHandler+0x4d4>
      && ((cr1its & USART_SR_IDLE) != 0U))
 8008c34:	f8d7 30e0 	ldr.w	r3, [r7, #224]	@ 0xe0
 8008c38:	f003 0310 	and.w	r3, r3, #16
 8008c3c:	2b00      	cmp	r3, #0
 8008c3e:	f000 8141 	beq.w	8008ec4 <HAL_UART_IRQHandler+0x4d4>
  {
    __HAL_UART_CLEAR_IDLEFLAG(huart);
 8008c42:	2300      	movs	r3, #0
 8008c44:	60bb      	str	r3, [r7, #8]
 8008c46:	687b      	ldr	r3, [r7, #4]
 8008c48:	681b      	ldr	r3, [r3, #0]
 8008c4a:	681b      	ldr	r3, [r3, #0]
 8008c4c:	60bb      	str	r3, [r7, #8]
 8008c4e:	687b      	ldr	r3, [r7, #4]
 8008c50:	681b      	ldr	r3, [r3, #0]
 8008c52:	685b      	ldr	r3, [r3, #4]
 8008c54:	60bb      	str	r3, [r7, #8]
 8008c56:	68bb      	ldr	r3, [r7, #8]

    /* Check if DMA mode is enabled in UART */
    if (HAL_IS_BIT_SET(huart->Instance->CR3, USART_CR3_DMAR))
 8008c58:	687b      	ldr	r3, [r7, #4]
 8008c5a:	681b      	ldr	r3, [r3, #0]
 8008c5c:	695b      	ldr	r3, [r3, #20]
 8008c5e:	f003 0340 	and.w	r3, r3, #64	@ 0x40
 8008c62:	2b40      	cmp	r3, #64	@ 0x40
 8008c64:	f040 80b6 	bne.w	8008dd4 <HAL_UART_IRQHandler+0x3e4>
    {
      /* DMA mode enabled */
      /* Check received length : If all expected data are received, do nothing,
         (DMA cplt callback will be called).
         Otherwise, if at least one data has already been received, IDLE event is to be notified to user */
      uint16_t nb_remaining_rx_data = (uint16_t) __HAL_DMA_GET_COUNTER(huart->hdmarx);
 8008c68:	687b      	ldr	r3, [r7, #4]
 8008c6a:	6bdb      	ldr	r3, [r3, #60]	@ 0x3c
 8008c6c:	681b      	ldr	r3, [r3, #0]
 8008c6e:	685b      	ldr	r3, [r3, #4]
 8008c70:	f8a7 30be 	strh.w	r3, [r7, #190]	@ 0xbe
      if ((nb_remaining_rx_data > 0U)
 8008c74:	f8b7 30be 	ldrh.w	r3, [r7, #190]	@ 0xbe
 8008c78:	2b00      	cmp	r3, #0
 8008c7a:	f000 8145 	beq.w	8008f08 <HAL_UART_IRQHandler+0x518>
          && (nb_remaining_rx_data < huart->RxXferSize))
 8008c7e:	687b      	ldr	r3, [r7, #4]
 8008c80:	8d9b      	ldrh	r3, [r3, #44]	@ 0x2c
 8008c82:	f8b7 20be 	ldrh.w	r2, [r7, #190]	@ 0xbe
 8008c86:	429a      	cmp	r2, r3
 8008c88:	f080 813e 	bcs.w	8008f08 <HAL_UART_IRQHandler+0x518>
      {
        /* Reception is not complete */
        huart->RxXferCount = nb_remaining_rx_data;
 8008c8c:	687b      	ldr	r3, [r7, #4]
 8008c8e:	f8b7 20be 	ldrh.w	r2, [r7, #190]	@ 0xbe
 8008c92:	85da      	strh	r2, [r3, #46]	@ 0x2e

        /* In Normal mode, end DMA xfer and HAL UART Rx process*/
        if (huart->hdmarx->Init.Mode != DMA_CIRCULAR)
 8008c94:	687b      	ldr	r3, [r7, #4]
 8008c96:	6bdb      	ldr	r3, [r3, #60]	@ 0x3c
 8008c98:	69db      	ldr	r3, [r3, #28]
 8008c9a:	f5b3 7f80 	cmp.w	r3, #256	@ 0x100
 8008c9e:	f000 8088 	beq.w	8008db2 <HAL_UART_IRQHandler+0x3c2>
        {
          /* Disable PE and ERR (Frame error, noise error, overrun error) interrupts */
          ATOMIC_CLEAR_BIT(huart->Instance->CR1, USART_CR1_PEIE);
 8008ca2:	687b      	ldr	r3, [r7, #4]
 8008ca4:	681b      	ldr	r3, [r3, #0]
 8008ca6:	330c      	adds	r3, #12
 8008ca8:	f8c7 3088 	str.w	r3, [r7, #136]	@ 0x88
   __ASM volatile ("ldrex %0, %1" : "=r" (result) : "Q" (*addr) );
 8008cac:	f8d7 3088 	ldr.w	r3, [r7, #136]	@ 0x88
 8008cb0:	e853 3f00 	ldrex	r3, [r3]
 8008cb4:	f8c7 3084 	str.w	r3, [r7, #132]	@ 0x84
   return(result);
 8008cb8:	f8d7 3084 	ldr.w	r3, [r7, #132]	@ 0x84
 8008cbc:	f423 7380 	bic.w	r3, r3, #256	@ 0x100
 8008cc0:	f8c7 30b8 	str.w	r3, [r7, #184]	@ 0xb8
 8008cc4:	687b      	ldr	r3, [r7, #4]
 8008cc6:	681b      	ldr	r3, [r3, #0]
 8008cc8:	330c      	adds	r3, #12
 8008cca:	f8d7 20b8 	ldr.w	r2, [r7, #184]	@ 0xb8
 8008cce:	f8c7 2094 	str.w	r2, [r7, #148]	@ 0x94
 8008cd2:	f8c7 3090 	str.w	r3, [r7, #144]	@ 0x90
   __ASM volatile ("strex %0, %2, %1" : "=&r" (result), "=Q" (*addr) : "r" (value) );
 8008cd6:	f8d7 1090 	ldr.w	r1, [r7, #144]	@ 0x90
 8008cda:	f8d7 2094 	ldr.w	r2, [r7, #148]	@ 0x94
 8008cde:	e841 2300 	strex	r3, r2, [r1]
 8008ce2:	f8c7 308c 	str.w	r3, [r7, #140]	@ 0x8c
   return(result);
 8008ce6:	f8d7 308c 	ldr.w	r3, [r7, #140]	@ 0x8c
 8008cea:	2b00      	cmp	r3, #0
 8008cec:	d1d9      	bne.n	8008ca2 <HAL_UART_IRQHandler+0x2b2>
          ATOMIC_CLEAR_BIT(huart->Instance->CR3, USART_CR3_EIE);
 8008cee:	687b      	ldr	r3, [r7, #4]
 8008cf0:	681b      	ldr	r3, [r3, #0]
 8008cf2:	3314      	adds	r3, #20
 8008cf4:	677b      	str	r3, [r7, #116]	@ 0x74
   __ASM volatile ("ldrex %0, %1" : "=r" (result) : "Q" (*addr) );
 8008cf6:	6f7b      	ldr	r3, [r7, #116]	@ 0x74
 8008cf8:	e853 3f00 	ldrex	r3, [r3]
 8008cfc:	673b      	str	r3, [r7, #112]	@ 0x70
   return(result);
 8008cfe:	6f3b      	ldr	r3, [r7, #112]	@ 0x70
 8008d00:	f023 0301 	bic.w	r3, r3, #1
 8008d04:	f8c7 30b4 	str.w	r3, [r7, #180]	@ 0xb4
 8008d08:	687b      	ldr	r3, [r7, #4]
 8008d0a:	681b      	ldr	r3, [r3, #0]
 8008d0c:	3314      	adds	r3, #20
 8008d0e:	f8d7 20b4 	ldr.w	r2, [r7, #180]	@ 0xb4
 8008d12:	f8c7 2080 	str.w	r2, [r7, #128]	@ 0x80
 8008d16:	67fb      	str	r3, [r7, #124]	@ 0x7c
   __ASM volatile ("strex %0, %2, %1" : "=&r" (result), "=Q" (*addr) : "r" (value) );
 8008d18:	6ff9      	ldr	r1, [r7, #124]	@ 0x7c
 8008d1a:	f8d7 2080 	ldr.w	r2, [r7, #128]	@ 0x80
 8008d1e:	e841 2300 	strex	r3, r2, [r1]
 8008d22:	67bb      	str	r3, [r7, #120]	@ 0x78
   return(result);
 8008d24:	6fbb      	ldr	r3, [r7, #120]	@ 0x78
 8008d26:	2b00      	cmp	r3, #0
 8008d28:	d1e1      	bne.n	8008cee <HAL_UART_IRQHandler+0x2fe>

          /* Disable the DMA transfer for the receiver request by resetting the DMAR bit
             in the UART CR3 register */
          ATOMIC_CLEAR_BIT(huart->Instance->CR3, USART_CR3_DMAR);
 8008d2a:	687b      	ldr	r3, [r7, #4]
 8008d2c:	681b      	ldr	r3, [r3, #0]
 8008d2e:	3314      	adds	r3, #20
 8008d30:	663b      	str	r3, [r7, #96]	@ 0x60
   __ASM volatile ("ldrex %0, %1" : "=r" (result) : "Q" (*addr) );
 8008d32:	6e3b      	ldr	r3, [r7, #96]	@ 0x60
 8008d34:	e853 3f00 	ldrex	r3, [r3]
 8008d38:	65fb      	str	r3, [r7, #92]	@ 0x5c
   return(result);
 8008d3a:	6dfb      	ldr	r3, [r7, #92]	@ 0x5c
 8008d3c:	f023 0340 	bic.w	r3, r3, #64	@ 0x40
 8008d40:	f8c7 30b0 	str.w	r3, [r7, #176]	@ 0xb0
 8008d44:	687b      	ldr	r3, [r7, #4]
 8008d46:	681b      	ldr	r3, [r3, #0]
 8008d48:	3314      	adds	r3, #20
 8008d4a:	f8d7 20b0 	ldr.w	r2, [r7, #176]	@ 0xb0
 8008d4e:	66fa      	str	r2, [r7, #108]	@ 0x6c
 8008d50:	66bb      	str	r3, [r7, #104]	@ 0x68
   __ASM volatile ("strex %0, %2, %1" : "=&r" (result), "=Q" (*addr) : "r" (value) );
 8008d52:	6eb9      	ldr	r1, [r7, #104]	@ 0x68
 8008d54:	6efa      	ldr	r2, [r7, #108]	@ 0x6c
 8008d56:	e841 2300 	strex	r3, r2, [r1]
 8008d5a:	667b      	str	r3, [r7, #100]	@ 0x64
   return(result);
 8008d5c:	6e7b      	ldr	r3, [r7, #100]	@ 0x64
 8008d5e:	2b00      	cmp	r3, #0
 8008d60:	d1e3      	bne.n	8008d2a <HAL_UART_IRQHandler+0x33a>

          /* At end of Rx process, restore huart->RxState to Ready */
          huart->RxState = HAL_UART_STATE_READY;
 8008d62:	687b      	ldr	r3, [r7, #4]
 8008d64:	2220      	movs	r2, #32
 8008d66:	f883 2042 	strb.w	r2, [r3, #66]	@ 0x42
          huart->ReceptionType = HAL_UART_RECEPTION_STANDARD;
 8008d6a:	687b      	ldr	r3, [r7, #4]
 8008d6c:	2200      	movs	r2, #0
 8008d6e:	631a      	str	r2, [r3, #48]	@ 0x30

          ATOMIC_CLEAR_BIT(huart->Instance->CR1, USART_CR1_IDLEIE);
 8008d70:	687b      	ldr	r3, [r7, #4]
 8008d72:	681b      	ldr	r3, [r3, #0]
 8008d74:	330c      	adds	r3, #12
 8008d76:	64fb      	str	r3, [r7, #76]	@ 0x4c
   __ASM volatile ("ldrex %0, %1" : "=r" (result) : "Q" (*addr) );
 8008d78:	6cfb      	ldr	r3, [r7, #76]	@ 0x4c
 8008d7a:	e853 3f00 	ldrex	r3, [r3]
 8008d7e:	64bb      	str	r3, [r7, #72]	@ 0x48
   return(result);
 8008d80:	6cbb      	ldr	r3, [r7, #72]	@ 0x48
 8008d82:	f023 0310 	bic.w	r3, r3, #16
 8008d86:	f8c7 30ac 	str.w	r3, [r7, #172]	@ 0xac
 8008d8a:	687b      	ldr	r3, [r7, #4]
 8008d8c:	681b      	ldr	r3, [r3, #0]
 8008d8e:	330c      	adds	r3, #12
 8008d90:	f8d7 20ac 	ldr.w	r2, [r7, #172]	@ 0xac
 8008d94:	65ba      	str	r2, [r7, #88]	@ 0x58
 8008d96:	657b      	str	r3, [r7, #84]	@ 0x54
   __ASM volatile ("strex %0, %2, %1" : "=&r" (result), "=Q" (*addr) : "r" (value) );
 8008d98:	6d79      	ldr	r1, [r7, #84]	@ 0x54
 8008d9a:	6dba      	ldr	r2, [r7, #88]	@ 0x58
 8008d9c:	e841 2300 	strex	r3, r2, [r1]
 8008da0:	653b      	str	r3, [r7, #80]	@ 0x50
   return(result);
 8008da2:	6d3b      	ldr	r3, [r7, #80]	@ 0x50
 8008da4:	2b00      	cmp	r3, #0
 8008da6:	d1e3      	bne.n	8008d70 <HAL_UART_IRQHandler+0x380>

          /* Last bytes received, so no need as the abort is immediate */
          (void)HAL_DMA_Abort(huart->hdmarx);
 8008da8:	687b      	ldr	r3, [r7, #4]
 8008daa:	6bdb      	ldr	r3, [r3, #60]	@ 0x3c
 8008dac:	4618      	mov	r0, r3
 8008dae:	f7fb fad9 	bl	8004364 <HAL_DMA_Abort>
        }

        /* Initialize type of RxEvent that correspond to RxEvent callback execution;
        In this case, Rx Event type is Idle Event */
        huart->RxEventType = HAL_UART_RXEVENT_IDLE;
 8008db2:	687b      	ldr	r3, [r7, #4]
 8008db4:	2202      	movs	r2, #2
 8008db6:	635a      	str	r2, [r3, #52]	@ 0x34
#if (USE_HAL_UART_REGISTER_CALLBACKS == 1)
        /*Call registered Rx Event callback*/
        huart->RxEventCallback(huart, (huart->RxXferSize - huart->RxXferCount));
#else
        /*Call legacy weak Rx Event callback*/
        HAL_UARTEx_RxEventCallback(huart, (huart->RxXferSize - huart->RxXferCount));
 8008db8:	687b      	ldr	r3, [r7, #4]
 8008dba:	8d9a      	ldrh	r2, [r3, #44]	@ 0x2c
 8008dbc:	687b      	ldr	r3, [r7, #4]
 8008dbe:	8ddb      	ldrh	r3, [r3, #46]	@ 0x2e
 8008dc0:	b29b      	uxth	r3, r3
 8008dc2:	1ad3      	subs	r3, r2, r3
 8008dc4:	b29b      	uxth	r3, r3
 8008dc6:	4619      	mov	r1, r3
 8008dc8:	6878      	ldr	r0, [r7, #4]
 8008dca:	f000 f8b7 	bl	8008f3c <HAL_UARTEx_RxEventCallback>
#endif /* USE_HAL_UART_REGISTER_CALLBACKS */
      }
      return;
 8008dce:	e09b      	b.n	8008f08 <HAL_UART_IRQHandler+0x518>
 8008dd0:	08009141 	.word	0x08009141
    else
    {
      /* DMA mode not enabled */
      /* Check received length : If all expected data are received, do nothing.
         Otherwise, if at least one data has already been received, IDLE event is to be notified to user */
      uint16_t nb_rx_data = huart->RxXferSize - huart->RxXferCount;
 8008dd4:	687b      	ldr	r3, [r7, #4]
 8008dd6:	8d9a      	ldrh	r2, [r3, #44]	@ 0x2c
 8008dd8:	687b      	ldr	r3, [r7, #4]
 8008dda:	8ddb      	ldrh	r3, [r3, #46]	@ 0x2e
 8008ddc:	b29b      	uxth	r3, r3
 8008dde:	1ad3      	subs	r3, r2, r3
 8008de0:	f8a7 30ce 	strh.w	r3, [r7, #206]	@ 0xce
      if ((huart->RxXferCount > 0U)
 8008de4:	687b      	ldr	r3, [r7, #4]
 8008de6:	8ddb      	ldrh	r3, [r3, #46]	@ 0x2e
 8008de8:	b29b      	uxth	r3, r3
 8008dea:	2b00      	cmp	r3, #0
 8008dec:	f000 808e 	beq.w	8008f0c <HAL_UART_IRQHandler+0x51c>
          && (nb_rx_data > 0U))
 8008df0:	f8b7 30ce 	ldrh.w	r3, [r7, #206]	@ 0xce
 8008df4:	2b00      	cmp	r3, #0
 8008df6:	f000 8089 	beq.w	8008f0c <HAL_UART_IRQHandler+0x51c>
      {
        /* Disable the UART Parity Error Interrupt and RXNE interrupts */
        ATOMIC_CLEAR_BIT(huart->Instance->CR1, (USART_CR1_RXNEIE | USART_CR1_PEIE));
 8008dfa:	687b      	ldr	r3, [r7, #4]
 8008dfc:	681b      	ldr	r3, [r3, #0]
 8008dfe:	330c      	adds	r3, #12
 8008e00:	63bb      	str	r3, [r7, #56]	@ 0x38
   __ASM volatile ("ldrex %0, %1" : "=r" (result) : "Q" (*addr) );
 8008e02:	6bbb      	ldr	r3, [r7, #56]	@ 0x38
 8008e04:	e853 3f00 	ldrex	r3, [r3]
 8008e08:	637b      	str	r3, [r7, #52]	@ 0x34
   return(result);
 8008e0a:	6b7b      	ldr	r3, [r7, #52]	@ 0x34
 8008e0c:	f423 7390 	bic.w	r3, r3, #288	@ 0x120
 8008e10:	f8c7 30c8 	str.w	r3, [r7, #200]	@ 0xc8
 8008e14:	687b      	ldr	r3, [r7, #4]
 8008e16:	681b      	ldr	r3, [r3, #0]
 8008e18:	330c      	adds	r3, #12
 8008e1a:	f8d7 20c8 	ldr.w	r2, [r7, #200]	@ 0xc8
 8008e1e:	647a      	str	r2, [r7, #68]	@ 0x44
 8008e20:	643b      	str	r3, [r7, #64]	@ 0x40
   __ASM volatile ("strex %0, %2, %1" : "=&r" (result), "=Q" (*addr) : "r" (value) );
 8008e22:	6c39      	ldr	r1, [r7, #64]	@ 0x40
 8008e24:	6c7a      	ldr	r2, [r7, #68]	@ 0x44
 8008e26:	e841 2300 	strex	r3, r2, [r1]
 8008e2a:	63fb      	str	r3, [r7, #60]	@ 0x3c
   return(result);
 8008e2c:	6bfb      	ldr	r3, [r7, #60]	@ 0x3c
 8008e2e:	2b00      	cmp	r3, #0
 8008e30:	d1e3      	bne.n	8008dfa <HAL_UART_IRQHandler+0x40a>

        /* Disable the UART Error Interrupt: (Frame error, noise error, overrun error) */
        ATOMIC_CLEAR_BIT(huart->Instance->CR3, USART_CR3_EIE);
 8008e32:	687b      	ldr	r3, [r7, #4]
 8008e34:	681b      	ldr	r3, [r3, #0]
 8008e36:	3314      	adds	r3, #20
 8008e38:	627b      	str	r3, [r7, #36]	@ 0x24
   __ASM volatile ("ldrex %0, %1" : "=r" (result) : "Q" (*addr) );
 8008e3a:	6a7b      	ldr	r3, [r7, #36]	@ 0x24
 8008e3c:	e853 3f00 	ldrex	r3, [r3]
 8008e40:	623b      	str	r3, [r7, #32]
   return(result);
 8008e42:	6a3b      	ldr	r3, [r7, #32]
 8008e44:	f023 0301 	bic.w	r3, r3, #1
 8008e48:	f8c7 30c4 	str.w	r3, [r7, #196]	@ 0xc4
 8008e4c:	687b      	ldr	r3, [r7, #4]
 8008e4e:	681b      	ldr	r3, [r3, #0]
 8008e50:	3314      	adds	r3, #20
 8008e52:	f8d7 20c4 	ldr.w	r2, [r7, #196]	@ 0xc4
 8008e56:	633a      	str	r2, [r7, #48]	@ 0x30
 8008e58:	62fb      	str	r3, [r7, #44]	@ 0x2c
   __ASM volatile ("strex %0, %2, %1" : "=&r" (result), "=Q" (*addr) : "r" (value) );
 8008e5a:	6af9      	ldr	r1, [r7, #44]	@ 0x2c
 8008e5c:	6b3a      	ldr	r2, [r7, #48]	@ 0x30
 8008e5e:	e841 2300 	strex	r3, r2, [r1]
 8008e62:	62bb      	str	r3, [r7, #40]	@ 0x28
   return(result);
 8008e64:	6abb      	ldr	r3, [r7, #40]	@ 0x28
 8008e66:	2b00      	cmp	r3, #0
 8008e68:	d1e3      	bne.n	8008e32 <HAL_UART_IRQHandler+0x442>

        /* Rx process is completed, restore huart->RxState to Ready */
        huart->RxState = HAL_UART_STATE_READY;
 8008e6a:	687b      	ldr	r3, [r7, #4]
 8008e6c:	2220      	movs	r2, #32
 8008e6e:	f883 2042 	strb.w	r2, [r3, #66]	@ 0x42
        huart->ReceptionType = HAL_UART_RECEPTION_STANDARD;
 8008e72:	687b      	ldr	r3, [r7, #4]
 8008e74:	2200      	movs	r2, #0
 8008e76:	631a      	str	r2, [r3, #48]	@ 0x30

        ATOMIC_CLEAR_BIT(huart->Instance->CR1, USART_CR1_IDLEIE);
 8008e78:	687b      	ldr	r3, [r7, #4]
 8008e7a:	681b      	ldr	r3, [r3, #0]
 8008e7c:	330c      	adds	r3, #12
 8008e7e:	613b      	str	r3, [r7, #16]
   __ASM volatile ("ldrex %0, %1" : "=r" (result) : "Q" (*addr) );
 8008e80:	693b      	ldr	r3, [r7, #16]
 8008e82:	e853 3f00 	ldrex	r3, [r3]
 8008e86:	60fb      	str	r3, [r7, #12]
   return(result);
 8008e88:	68fb      	ldr	r3, [r7, #12]
 8008e8a:	f023 0310 	bic.w	r3, r3, #16
 8008e8e:	f8c7 30c0 	str.w	r3, [r7, #192]	@ 0xc0
 8008e92:	687b      	ldr	r3, [r7, #4]
 8008e94:	681b      	ldr	r3, [r3, #0]
 8008e96:	330c      	adds	r3, #12
 8008e98:	f8d7 20c0 	ldr.w	r2, [r7, #192]	@ 0xc0
 8008e9c:	61fa      	str	r2, [r7, #28]
 8008e9e:	61bb      	str	r3, [r7, #24]
   __ASM volatile ("strex %0, %2, %1" : "=&r" (result), "=Q" (*addr) : "r" (value) );
 8008ea0:	69b9      	ldr	r1, [r7, #24]
 8008ea2:	69fa      	ldr	r2, [r7, #28]
 8008ea4:	e841 2300 	strex	r3, r2, [r1]
 8008ea8:	617b      	str	r3, [r7, #20]
   return(result);
 8008eaa:	697b      	ldr	r3, [r7, #20]
 8008eac:	2b00      	cmp	r3, #0
 8008eae:	d1e3      	bne.n	8008e78 <HAL_UART_IRQHandler+0x488>

        /* Initialize type of RxEvent that correspond to RxEvent callback execution;
           In this case, Rx Event type is Idle Event */
        huart->RxEventType = HAL_UART_RXEVENT_IDLE;
 8008eb0:	687b      	ldr	r3, [r7, #4]
 8008eb2:	2202      	movs	r2, #2
 8008eb4:	635a      	str	r2, [r3, #52]	@ 0x34
#if (USE_HAL_UART_REGISTER_CALLBACKS == 1)
        /*Call registered Rx complete callback*/
        huart->RxEventCallback(huart, nb_rx_data);
#else
        /*Call legacy weak Rx Event callback*/
        HAL_UARTEx_RxEventCallback(huart, nb_rx_data);
 8008eb6:	f8b7 30ce 	ldrh.w	r3, [r7, #206]	@ 0xce
 8008eba:	4619      	mov	r1, r3
 8008ebc:	6878      	ldr	r0, [r7, #4]
 8008ebe:	f000 f83d 	bl	8008f3c <HAL_UARTEx_RxEventCallback>
#endif /* USE_HAL_UART_REGISTER_CALLBACKS */
      }
      return;
 8008ec2:	e023      	b.n	8008f0c <HAL_UART_IRQHandler+0x51c>
    }
  }

  /* UART in mode Transmitter ------------------------------------------------*/
  if (((isrflags & USART_SR_TXE) != RESET) && ((cr1its & USART_CR1_TXEIE) != RESET))
 8008ec4:	f8d7 30e4 	ldr.w	r3, [r7, #228]	@ 0xe4
 8008ec8:	f003 0380 	and.w	r3, r3, #128	@ 0x80
 8008ecc:	2b00      	cmp	r3, #0
 8008ece:	d009      	beq.n	8008ee4 <HAL_UART_IRQHandler+0x4f4>
 8008ed0:	f8d7 30e0 	ldr.w	r3, [r7, #224]	@ 0xe0
 8008ed4:	f003 0380 	and.w	r3, r3, #128	@ 0x80
 8008ed8:	2b00      	cmp	r3, #0
 8008eda:	d003      	beq.n	8008ee4 <HAL_UART_IRQHandler+0x4f4>
  {
    UART_Transmit_IT(huart);
 8008edc:	6878      	ldr	r0, [r7, #4]
 8008ede:	f000 f943 	bl	8009168 <UART_Transmit_IT>
    return;
 8008ee2:	e014      	b.n	8008f0e <HAL_UART_IRQHandler+0x51e>
  }

  /* UART in mode Transmitter end --------------------------------------------*/
  if (((isrflags & USART_SR_TC) != RESET) && ((cr1its & USART_CR1_TCIE) != RESET))
 8008ee4:	f8d7 30e4 	ldr.w	r3, [r7, #228]	@ 0xe4
 8008ee8:	f003 0340 	and.w	r3, r3, #64	@ 0x40
 8008eec:	2b00      	cmp	r3, #0
 8008eee:	d00e      	beq.n	8008f0e <HAL_UART_IRQHandler+0x51e>
 8008ef0:	f8d7 30e0 	ldr.w	r3, [r7, #224]	@ 0xe0
 8008ef4:	f003 0340 	and.w	r3, r3, #64	@ 0x40
 8008ef8:	2b00      	cmp	r3, #0
 8008efa:	d008      	beq.n	8008f0e <HAL_UART_IRQHandler+0x51e>
  {
    UART_EndTransmit_IT(huart);
 8008efc:	6878      	ldr	r0, [r7, #4]
 8008efe:	f000 f983 	bl	8009208 <UART_EndTransmit_IT>
    return;
 8008f02:	e004      	b.n	8008f0e <HAL_UART_IRQHandler+0x51e>
    return;
 8008f04:	bf00      	nop
 8008f06:	e002      	b.n	8008f0e <HAL_UART_IRQHandler+0x51e>
      return;
 8008f08:	bf00      	nop
 8008f0a:	e000      	b.n	8008f0e <HAL_UART_IRQHandler+0x51e>
      return;
 8008f0c:	bf00      	nop
  }
}
 8008f0e:	37e8      	adds	r7, #232	@ 0xe8
 8008f10:	46bd      	mov	sp, r7
 8008f12:	bd80      	pop	{r7, pc}

08008f14 <HAL_UART_TxCpltCallback>:
  * @param  huart  Pointer to a UART_HandleTypeDef structure that contains
  *                the configuration information for the specified UART module.
  * @retval None
  */
__weak void HAL_UART_TxCpltCallback(UART_HandleTypeDef *huart)
{
 8008f14:	b480      	push	{r7}
 8008f16:	b083      	sub	sp, #12
 8008f18:	af00      	add	r7, sp, #0
 8008f1a:	6078      	str	r0, [r7, #4]
  /* Prevent unused argument(s) compilation warning */
  UNUSED(huart);
  /* NOTE: This function should not be modified, when the callback is needed,
           the HAL_UART_TxCpltCallback could be implemented in the user file
   */
}
 8008f1c:	bf00      	nop
 8008f1e:	370c      	adds	r7, #12
 8008f20:	46bd      	mov	sp, r7
 8008f22:	f85d 7b04 	ldr.w	r7, [sp], #4
 8008f26:	4770      	bx	lr

08008f28 <HAL_UART_ErrorCallback>:
  * @param  huart  Pointer to a UART_HandleTypeDef structure that contains
  *                the configuration information for the specified UART module.
  * @retval None
  */
__weak void HAL_UART_ErrorCallback(UART_HandleTypeDef *huart)
{
 8008f28:	b480      	push	{r7}
 8008f2a:	b083      	sub	sp, #12
 8008f2c:	af00      	add	r7, sp, #0
 8008f2e:	6078      	str	r0, [r7, #4]
  /* Prevent unused argument(s) compilation warning */
  UNUSED(huart);
  /* NOTE: This function should not be modified, when the callback is needed,
           the HAL_UART_ErrorCallback could be implemented in the user file
   */
}
 8008f30:	bf00      	nop
 8008f32:	370c      	adds	r7, #12
 8008f34:	46bd      	mov	sp, r7
 8008f36:	f85d 7b04 	ldr.w	r7, [sp], #4
 8008f3a:	4770      	bx	lr

08008f3c <HAL_UARTEx_RxEventCallback>:
  * @param  Size  Number of data available in application reception buffer (indicates a position in
  *               reception buffer until which, data are available)
  * @retval None
  */
__weak void HAL_UARTEx_RxEventCallback(UART_HandleTypeDef *huart, uint16_t Size)
{
 8008f3c:	b480      	push	{r7}
 8008f3e:	b083      	sub	sp, #12
 8008f40:	af00      	add	r7, sp, #0
 8008f42:	6078      	str	r0, [r7, #4]
 8008f44:	460b      	mov	r3, r1
 8008f46:	807b      	strh	r3, [r7, #2]
  UNUSED(Size);

  /* NOTE : This function should not be modified, when the callback is needed,
            the HAL_UARTEx_RxEventCallback can be implemented in the user file.
   */
}
 8008f48:	bf00      	nop
 8008f4a:	370c      	adds	r7, #12
 8008f4c:	46bd      	mov	sp, r7
 8008f4e:	f85d 7b04 	ldr.w	r7, [sp], #4
 8008f52:	4770      	bx	lr

08008f54 <UART_WaitOnFlagUntilTimeout>:
  * @param  Timeout Timeout duration
  * @retval HAL status
  */
static HAL_StatusTypeDef UART_WaitOnFlagUntilTimeout(UART_HandleTypeDef *huart, uint32_t Flag, FlagStatus Status,
                                                     uint32_t Tickstart, uint32_t Timeout)
{
 8008f54:	b580      	push	{r7, lr}
 8008f56:	b086      	sub	sp, #24
 8008f58:	af00      	add	r7, sp, #0
 8008f5a:	60f8      	str	r0, [r7, #12]
 8008f5c:	60b9      	str	r1, [r7, #8]
 8008f5e:	603b      	str	r3, [r7, #0]
 8008f60:	4613      	mov	r3, r2
 8008f62:	71fb      	strb	r3, [r7, #7]
  /* Wait until flag is set */
  while ((__HAL_UART_GET_FLAG(huart, Flag) ? SET : RESET) == Status)
 8008f64:	e03b      	b.n	8008fde <UART_WaitOnFlagUntilTimeout+0x8a>
  {
    /* Check for the Timeout */
    if (Timeout != HAL_MAX_DELAY)
 8008f66:	6a3b      	ldr	r3, [r7, #32]
 8008f68:	f1b3 3fff 	cmp.w	r3, #4294967295	@ 0xffffffff
 8008f6c:	d037      	beq.n	8008fde <UART_WaitOnFlagUntilTimeout+0x8a>
    {
      if (((HAL_GetTick() - Tickstart) > Timeout) || (Timeout == 0U))
 8008f6e:	f7fa f949 	bl	8003204 <HAL_GetTick>
 8008f72:	4602      	mov	r2, r0
 8008f74:	683b      	ldr	r3, [r7, #0]
 8008f76:	1ad3      	subs	r3, r2, r3
 8008f78:	6a3a      	ldr	r2, [r7, #32]
 8008f7a:	429a      	cmp	r2, r3
 8008f7c:	d302      	bcc.n	8008f84 <UART_WaitOnFlagUntilTimeout+0x30>
 8008f7e:	6a3b      	ldr	r3, [r7, #32]
 8008f80:	2b00      	cmp	r3, #0
 8008f82:	d101      	bne.n	8008f88 <UART_WaitOnFlagUntilTimeout+0x34>
      {

        return HAL_TIMEOUT;
 8008f84:	2303      	movs	r3, #3
 8008f86:	e03a      	b.n	8008ffe <UART_WaitOnFlagUntilTimeout+0xaa>
      }

      if ((READ_BIT(huart->Instance->CR1, USART_CR1_RE) != 0U) && (Flag != UART_FLAG_TXE) && (Flag != UART_FLAG_TC))
 8008f88:	68fb      	ldr	r3, [r7, #12]
 8008f8a:	681b      	ldr	r3, [r3, #0]
 8008f8c:	68db      	ldr	r3, [r3, #12]
 8008f8e:	f003 0304 	and.w	r3, r3, #4
 8008f92:	2b00      	cmp	r3, #0
 8008f94:	d023      	beq.n	8008fde <UART_WaitOnFlagUntilTimeout+0x8a>
 8008f96:	68bb      	ldr	r3, [r7, #8]
 8008f98:	2b80      	cmp	r3, #128	@ 0x80
 8008f9a:	d020      	beq.n	8008fde <UART_WaitOnFlagUntilTimeout+0x8a>
 8008f9c:	68bb      	ldr	r3, [r7, #8]
 8008f9e:	2b40      	cmp	r3, #64	@ 0x40
 8008fa0:	d01d      	beq.n	8008fde <UART_WaitOnFlagUntilTimeout+0x8a>
      {
        if (__HAL_UART_GET_FLAG(huart, UART_FLAG_ORE) == SET)
 8008fa2:	68fb      	ldr	r3, [r7, #12]
 8008fa4:	681b      	ldr	r3, [r3, #0]
 8008fa6:	681b      	ldr	r3, [r3, #0]
 8008fa8:	f003 0308 	and.w	r3, r3, #8
 8008fac:	2b08      	cmp	r3, #8
 8008fae:	d116      	bne.n	8008fde <UART_WaitOnFlagUntilTimeout+0x8a>
        {
          /* Clear Overrun Error flag*/
          __HAL_UART_CLEAR_OREFLAG(huart);
 8008fb0:	2300      	movs	r3, #0
 8008fb2:	617b      	str	r3, [r7, #20]
 8008fb4:	68fb      	ldr	r3, [r7, #12]
 8008fb6:	681b      	ldr	r3, [r3, #0]
 8008fb8:	681b      	ldr	r3, [r3, #0]
 8008fba:	617b      	str	r3, [r7, #20]
 8008fbc:	68fb      	ldr	r3, [r7, #12]
 8008fbe:	681b      	ldr	r3, [r3, #0]
 8008fc0:	685b      	ldr	r3, [r3, #4]
 8008fc2:	617b      	str	r3, [r7, #20]
 8008fc4:	697b      	ldr	r3, [r7, #20]

          /* Blocking error : transfer is aborted
          Set the UART state ready to be able to start again the process,
          Disable Rx Interrupts if ongoing */
          UART_EndRxTransfer(huart);
 8008fc6:	68f8      	ldr	r0, [r7, #12]
 8008fc8:	f000 f857 	bl	800907a <UART_EndRxTransfer>

          huart->ErrorCode = HAL_UART_ERROR_ORE;
 8008fcc:	68fb      	ldr	r3, [r7, #12]
 8008fce:	2208      	movs	r2, #8
 8008fd0:	645a      	str	r2, [r3, #68]	@ 0x44

          /* Process Unlocked */
          __HAL_UNLOCK(huart);
 8008fd2:	68fb      	ldr	r3, [r7, #12]
 8008fd4:	2200      	movs	r2, #0
 8008fd6:	f883 2040 	strb.w	r2, [r3, #64]	@ 0x40

          return HAL_ERROR;
 8008fda:	2301      	movs	r3, #1
 8008fdc:	e00f      	b.n	8008ffe <UART_WaitOnFlagUntilTimeout+0xaa>
  while ((__HAL_UART_GET_FLAG(huart, Flag) ? SET : RESET) == Status)
 8008fde:	68fb      	ldr	r3, [r7, #12]
 8008fe0:	681b      	ldr	r3, [r3, #0]
 8008fe2:	681a      	ldr	r2, [r3, #0]
 8008fe4:	68bb      	ldr	r3, [r7, #8]
 8008fe6:	4013      	ands	r3, r2
 8008fe8:	68ba      	ldr	r2, [r7, #8]
 8008fea:	429a      	cmp	r2, r3
 8008fec:	bf0c      	ite	eq
 8008fee:	2301      	moveq	r3, #1
 8008ff0:	2300      	movne	r3, #0
 8008ff2:	b2db      	uxtb	r3, r3
 8008ff4:	461a      	mov	r2, r3
 8008ff6:	79fb      	ldrb	r3, [r7, #7]
 8008ff8:	429a      	cmp	r2, r3
 8008ffa:	d0b4      	beq.n	8008f66 <UART_WaitOnFlagUntilTimeout+0x12>
        }
      }
    }
  }
  return HAL_OK;
 8008ffc:	2300      	movs	r3, #0
}
 8008ffe:	4618      	mov	r0, r3
 8009000:	3718      	adds	r7, #24
 8009002:	46bd      	mov	sp, r7
 8009004:	bd80      	pop	{r7, pc}

08009006 <UART_Start_Receive_IT>:
  * @param  pData Pointer to data buffer (u8 or u16 data elements).
  * @param  Size  Amount of data elements (u8 or u16) to be received.
  * @retval HAL status
  */
HAL_StatusTypeDef UART_Start_Receive_IT(UART_HandleTypeDef *huart, uint8_t *pData, uint16_t Size)
{
 8009006:	b480      	push	{r7}
 8009008:	b085      	sub	sp, #20
 800900a:	af00      	add	r7, sp, #0
 800900c:	60f8      	str	r0, [r7, #12]
 800900e:	60b9      	str	r1, [r7, #8]
 8009010:	4613      	mov	r3, r2
 8009012:	80fb      	strh	r3, [r7, #6]
  huart->pRxBuffPtr = pData;
 8009014:	68fb      	ldr	r3, [r7, #12]
 8009016:	68ba      	ldr	r2, [r7, #8]
 8009018:	629a      	str	r2, [r3, #40]	@ 0x28
  huart->RxXferSize = Size;
 800901a:	68fb      	ldr	r3, [r7, #12]
 800901c:	88fa      	ldrh	r2, [r7, #6]
 800901e:	859a      	strh	r2, [r3, #44]	@ 0x2c
  huart->RxXferCount = Size;
 8009020:	68fb      	ldr	r3, [r7, #12]
 8009022:	88fa      	ldrh	r2, [r7, #6]
 8009024:	85da      	strh	r2, [r3, #46]	@ 0x2e

  huart->ErrorCode = HAL_UART_ERROR_NONE;
 8009026:	68fb      	ldr	r3, [r7, #12]
 8009028:	2200      	movs	r2, #0
 800902a:	645a      	str	r2, [r3, #68]	@ 0x44
  huart->RxState = HAL_UART_STATE_BUSY_RX;
 800902c:	68fb      	ldr	r3, [r7, #12]
 800902e:	2222      	movs	r2, #34	@ 0x22
 8009030:	f883 2042 	strb.w	r2, [r3, #66]	@ 0x42

  if (huart->Init.Parity != UART_PARITY_NONE)
 8009034:	68fb      	ldr	r3, [r7, #12]
 8009036:	691b      	ldr	r3, [r3, #16]
 8009038:	2b00      	cmp	r3, #0
 800903a:	d007      	beq.n	800904c <UART_Start_Receive_IT+0x46>
  {
    /* Enable the UART Parity Error Interrupt */
    __HAL_UART_ENABLE_IT(huart, UART_IT_PE);
 800903c:	68fb      	ldr	r3, [r7, #12]
 800903e:	681b      	ldr	r3, [r3, #0]
 8009040:	68da      	ldr	r2, [r3, #12]
 8009042:	68fb      	ldr	r3, [r7, #12]
 8009044:	681b      	ldr	r3, [r3, #0]
 8009046:	f442 7280 	orr.w	r2, r2, #256	@ 0x100
 800904a:	60da      	str	r2, [r3, #12]
  }

  /* Enable the UART Error Interrupt: (Frame error, noise error, overrun error) */
  __HAL_UART_ENABLE_IT(huart, UART_IT_ERR);
 800904c:	68fb      	ldr	r3, [r7, #12]
 800904e:	681b      	ldr	r3, [r3, #0]
 8009050:	695a      	ldr	r2, [r3, #20]
 8009052:	68fb      	ldr	r3, [r7, #12]
 8009054:	681b      	ldr	r3, [r3, #0]
 8009056:	f042 0201 	orr.w	r2, r2, #1
 800905a:	615a      	str	r2, [r3, #20]

  /* Enable the UART Data Register not empty Interrupt */
  __HAL_UART_ENABLE_IT(huart, UART_IT_RXNE);
 800905c:	68fb      	ldr	r3, [r7, #12]
 800905e:	681b      	ldr	r3, [r3, #0]
 8009060:	68da      	ldr	r2, [r3, #12]
 8009062:	68fb      	ldr	r3, [r7, #12]
 8009064:	681b      	ldr	r3, [r3, #0]
 8009066:	f042 0220 	orr.w	r2, r2, #32
 800906a:	60da      	str	r2, [r3, #12]

  return HAL_OK;
 800906c:	2300      	movs	r3, #0
}
 800906e:	4618      	mov	r0, r3
 8009070:	3714      	adds	r7, #20
 8009072:	46bd      	mov	sp, r7
 8009074:	f85d 7b04 	ldr.w	r7, [sp], #4
 8009078:	4770      	bx	lr

0800907a <UART_EndRxTransfer>:
  * @brief  End ongoing Rx transfer on UART peripheral (following error detection or Reception completion).
  * @param  huart UART handle.
  * @retval None
  */
static void UART_EndRxTransfer(UART_HandleTypeDef *huart)
{
 800907a:	b480      	push	{r7}
 800907c:	b095      	sub	sp, #84	@ 0x54
 800907e:	af00      	add	r7, sp, #0
 8009080:	6078      	str	r0, [r7, #4]
  /* Disable RXNE, PE and ERR (Frame error, noise error, overrun error) interrupts */
  ATOMIC_CLEAR_BIT(huart->Instance->CR1, (USART_CR1_RXNEIE | USART_CR1_PEIE));
 8009082:	687b      	ldr	r3, [r7, #4]
 8009084:	681b      	ldr	r3, [r3, #0]
 8009086:	330c      	adds	r3, #12
 8009088:	637b      	str	r3, [r7, #52]	@ 0x34
   __ASM volatile ("ldrex %0, %1" : "=r" (result) : "Q" (*addr) );
 800908a:	6b7b      	ldr	r3, [r7, #52]	@ 0x34
 800908c:	e853 3f00 	ldrex	r3, [r3]
 8009090:	633b      	str	r3, [r7, #48]	@ 0x30
   return(result);
 8009092:	6b3b      	ldr	r3, [r7, #48]	@ 0x30
 8009094:	f423 7390 	bic.w	r3, r3, #288	@ 0x120
 8009098:	64fb      	str	r3, [r7, #76]	@ 0x4c
 800909a:	687b      	ldr	r3, [r7, #4]
 800909c:	681b      	ldr	r3, [r3, #0]
 800909e:	330c      	adds	r3, #12
 80090a0:	6cfa      	ldr	r2, [r7, #76]	@ 0x4c
 80090a2:	643a      	str	r2, [r7, #64]	@ 0x40
 80090a4:	63fb      	str	r3, [r7, #60]	@ 0x3c
   __ASM volatile ("strex %0, %2, %1" : "=&r" (result), "=Q" (*addr) : "r" (value) );
 80090a6:	6bf9      	ldr	r1, [r7, #60]	@ 0x3c
 80090a8:	6c3a      	ldr	r2, [r7, #64]	@ 0x40
 80090aa:	e841 2300 	strex	r3, r2, [r1]
 80090ae:	63bb      	str	r3, [r7, #56]	@ 0x38
   return(result);
 80090b0:	6bbb      	ldr	r3, [r7, #56]	@ 0x38
 80090b2:	2b00      	cmp	r3, #0
 80090b4:	d1e5      	bne.n	8009082 <UART_EndRxTransfer+0x8>
  ATOMIC_CLEAR_BIT(huart->Instance->CR3, USART_CR3_EIE);
 80090b6:	687b      	ldr	r3, [r7, #4]
 80090b8:	681b      	ldr	r3, [r3, #0]
 80090ba:	3314      	adds	r3, #20
 80090bc:	623b      	str	r3, [r7, #32]
   __ASM volatile ("ldrex %0, %1" : "=r" (result) : "Q" (*addr) );
 80090be:	6a3b      	ldr	r3, [r7, #32]
 80090c0:	e853 3f00 	ldrex	r3, [r3]
 80090c4:	61fb      	str	r3, [r7, #28]
   return(result);
 80090c6:	69fb      	ldr	r3, [r7, #28]
 80090c8:	f023 0301 	bic.w	r3, r3, #1
 80090cc:	64bb      	str	r3, [r7, #72]	@ 0x48
 80090ce:	687b      	ldr	r3, [r7, #4]
 80090d0:	681b      	ldr	r3, [r3, #0]
 80090d2:	3314      	adds	r3, #20
 80090d4:	6cba      	ldr	r2, [r7, #72]	@ 0x48
 80090d6:	62fa      	str	r2, [r7, #44]	@ 0x2c
 80090d8:	62bb      	str	r3, [r7, #40]	@ 0x28
   __ASM volatile ("strex %0, %2, %1" : "=&r" (result), "=Q" (*addr) : "r" (value) );
 80090da:	6ab9      	ldr	r1, [r7, #40]	@ 0x28
 80090dc:	6afa      	ldr	r2, [r7, #44]	@ 0x2c
 80090de:	e841 2300 	strex	r3, r2, [r1]
 80090e2:	627b      	str	r3, [r7, #36]	@ 0x24
   return(result);
 80090e4:	6a7b      	ldr	r3, [r7, #36]	@ 0x24
 80090e6:	2b00      	cmp	r3, #0
 80090e8:	d1e5      	bne.n	80090b6 <UART_EndRxTransfer+0x3c>

  /* In case of reception waiting for IDLE event, disable also the IDLE IE interrupt source */
  if (huart->ReceptionType == HAL_UART_RECEPTION_TOIDLE)
 80090ea:	687b      	ldr	r3, [r7, #4]
 80090ec:	6b1b      	ldr	r3, [r3, #48]	@ 0x30
 80090ee:	2b01      	cmp	r3, #1
 80090f0:	d119      	bne.n	8009126 <UART_EndRxTransfer+0xac>
  {
    ATOMIC_CLEAR_BIT(huart->Instance->CR1, USART_CR1_IDLEIE);
 80090f2:	687b      	ldr	r3, [r7, #4]
 80090f4:	681b      	ldr	r3, [r3, #0]
 80090f6:	330c      	adds	r3, #12
 80090f8:	60fb      	str	r3, [r7, #12]
   __ASM volatile ("ldrex %0, %1" : "=r" (result) : "Q" (*addr) );
 80090fa:	68fb      	ldr	r3, [r7, #12]
 80090fc:	e853 3f00 	ldrex	r3, [r3]
 8009100:	60bb      	str	r3, [r7, #8]
   return(result);
 8009102:	68bb      	ldr	r3, [r7, #8]
 8009104:	f023 0310 	bic.w	r3, r3, #16
 8009108:	647b      	str	r3, [r7, #68]	@ 0x44
 800910a:	687b      	ldr	r3, [r7, #4]
 800910c:	681b      	ldr	r3, [r3, #0]
 800910e:	330c      	adds	r3, #12
 8009110:	6c7a      	ldr	r2, [r7, #68]	@ 0x44
 8009112:	61ba      	str	r2, [r7, #24]
 8009114:	617b      	str	r3, [r7, #20]
   __ASM volatile ("strex %0, %2, %1" : "=&r" (result), "=Q" (*addr) : "r" (value) );
 8009116:	6979      	ldr	r1, [r7, #20]
 8009118:	69ba      	ldr	r2, [r7, #24]
 800911a:	e841 2300 	strex	r3, r2, [r1]
 800911e:	613b      	str	r3, [r7, #16]
   return(result);
 8009120:	693b      	ldr	r3, [r7, #16]
 8009122:	2b00      	cmp	r3, #0
 8009124:	d1e5      	bne.n	80090f2 <UART_EndRxTransfer+0x78>
  }

  /* At end of Rx process, restore huart->RxState to Ready */
  huart->RxState = HAL_UART_STATE_READY;
 8009126:	687b      	ldr	r3, [r7, #4]
 8009128:	2220      	movs	r2, #32
 800912a:	f883 2042 	strb.w	r2, [r3, #66]	@ 0x42
  huart->ReceptionType = HAL_UART_RECEPTION_STANDARD;
 800912e:	687b      	ldr	r3, [r7, #4]
 8009130:	2200      	movs	r2, #0
 8009132:	631a      	str	r2, [r3, #48]	@ 0x30
}
 8009134:	bf00      	nop
 8009136:	3754      	adds	r7, #84	@ 0x54
 8009138:	46bd      	mov	sp, r7
 800913a:	f85d 7b04 	ldr.w	r7, [sp], #4
 800913e:	4770      	bx	lr

08009140 <UART_DMAAbortOnError>:
  * @param  hdma  Pointer to a DMA_HandleTypeDef structure that contains
  *               the configuration information for the specified DMA module.
  * @retval None
  */
static void UART_DMAAbortOnError(DMA_HandleTypeDef *hdma)
{
 8009140:	b580      	push	{r7, lr}
 8009142:	b084      	sub	sp, #16
 8009144:	af00      	add	r7, sp, #0
 8009146:	6078      	str	r0, [r7, #4]
  UART_HandleTypeDef *huart = (UART_HandleTypeDef *)((DMA_HandleTypeDef *)hdma)->Parent;
 8009148:	687b      	ldr	r3, [r7, #4]
 800914a:	6b9b      	ldr	r3, [r3, #56]	@ 0x38
 800914c:	60fb      	str	r3, [r7, #12]
  huart->RxXferCount = 0x00U;
 800914e:	68fb      	ldr	r3, [r7, #12]
 8009150:	2200      	movs	r2, #0
 8009152:	85da      	strh	r2, [r3, #46]	@ 0x2e
  huart->TxXferCount = 0x00U;
 8009154:	68fb      	ldr	r3, [r7, #12]
 8009156:	2200      	movs	r2, #0
 8009158:	84da      	strh	r2, [r3, #38]	@ 0x26
#if (USE_HAL_UART_REGISTER_CALLBACKS == 1)
  /*Call registered error callback*/
  huart->ErrorCallback(huart);
#else
  /*Call legacy weak error callback*/
  HAL_UART_ErrorCallback(huart);
 800915a:	68f8      	ldr	r0, [r7, #12]
 800915c:	f7ff fee4 	bl	8008f28 <HAL_UART_ErrorCallback>
#endif /* USE_HAL_UART_REGISTER_CALLBACKS */
}
 8009160:	bf00      	nop
 8009162:	3710      	adds	r7, #16
 8009164:	46bd      	mov	sp, r7
 8009166:	bd80      	pop	{r7, pc}

08009168 <UART_Transmit_IT>:
  * @param  huart  Pointer to a UART_HandleTypeDef structure that contains
  *                the configuration information for the specified UART module.
  * @retval HAL status
  */
static HAL_StatusTypeDef UART_Transmit_IT(UART_HandleTypeDef *huart)
{
 8009168:	b480      	push	{r7}
 800916a:	b085      	sub	sp, #20
 800916c:	af00      	add	r7, sp, #0
 800916e:	6078      	str	r0, [r7, #4]
  const uint16_t *tmp;

  /* Check that a Tx process is ongoing */
  if (huart->gState == HAL_UART_STATE_BUSY_TX)
 8009170:	687b      	ldr	r3, [r7, #4]
 8009172:	f893 3041 	ldrb.w	r3, [r3, #65]	@ 0x41
 8009176:	b2db      	uxtb	r3, r3
 8009178:	2b21      	cmp	r3, #33	@ 0x21
 800917a:	d13e      	bne.n	80091fa <UART_Transmit_IT+0x92>
  {
    if ((huart->Init.WordLength == UART_WORDLENGTH_9B) && (huart->Init.Parity == UART_PARITY_NONE))
 800917c:	687b      	ldr	r3, [r7, #4]
 800917e:	689b      	ldr	r3, [r3, #8]
 8009180:	f5b3 5f80 	cmp.w	r3, #4096	@ 0x1000
 8009184:	d114      	bne.n	80091b0 <UART_Transmit_IT+0x48>
 8009186:	687b      	ldr	r3, [r7, #4]
 8009188:	691b      	ldr	r3, [r3, #16]
 800918a:	2b00      	cmp	r3, #0
 800918c:	d110      	bne.n	80091b0 <UART_Transmit_IT+0x48>
    {
      tmp = (const uint16_t *) huart->pTxBuffPtr;
 800918e:	687b      	ldr	r3, [r7, #4]
 8009190:	6a1b      	ldr	r3, [r3, #32]
 8009192:	60fb      	str	r3, [r7, #12]
      huart->Instance->DR = (uint16_t)(*tmp & (uint16_t)0x01FF);
 8009194:	68fb      	ldr	r3, [r7, #12]
 8009196:	881b      	ldrh	r3, [r3, #0]
 8009198:	461a      	mov	r2, r3
 800919a:	687b      	ldr	r3, [r7, #4]
 800919c:	681b      	ldr	r3, [r3, #0]
 800919e:	f3c2 0208 	ubfx	r2, r2, #0, #9
 80091a2:	605a      	str	r2, [r3, #4]
      huart->pTxBuffPtr += 2U;
 80091a4:	687b      	ldr	r3, [r7, #4]
 80091a6:	6a1b      	ldr	r3, [r3, #32]
 80091a8:	1c9a      	adds	r2, r3, #2
 80091aa:	687b      	ldr	r3, [r7, #4]
 80091ac:	621a      	str	r2, [r3, #32]
 80091ae:	e008      	b.n	80091c2 <UART_Transmit_IT+0x5a>
    }
    else
    {
      huart->Instance->DR = (uint8_t)(*huart->pTxBuffPtr++ & (uint8_t)0x00FF);
 80091b0:	687b      	ldr	r3, [r7, #4]
 80091b2:	6a1b      	ldr	r3, [r3, #32]
 80091b4:	1c59      	adds	r1, r3, #1
 80091b6:	687a      	ldr	r2, [r7, #4]
 80091b8:	6211      	str	r1, [r2, #32]
 80091ba:	781a      	ldrb	r2, [r3, #0]
 80091bc:	687b      	ldr	r3, [r7, #4]
 80091be:	681b      	ldr	r3, [r3, #0]
 80091c0:	605a      	str	r2, [r3, #4]
    }

    if (--huart->TxXferCount == 0U)
 80091c2:	687b      	ldr	r3, [r7, #4]
 80091c4:	8cdb      	ldrh	r3, [r3, #38]	@ 0x26
 80091c6:	b29b      	uxth	r3, r3
 80091c8:	3b01      	subs	r3, #1
 80091ca:	b29b      	uxth	r3, r3
 80091cc:	687a      	ldr	r2, [r7, #4]
 80091ce:	4619      	mov	r1, r3
 80091d0:	84d1      	strh	r1, [r2, #38]	@ 0x26
 80091d2:	2b00      	cmp	r3, #0
 80091d4:	d10f      	bne.n	80091f6 <UART_Transmit_IT+0x8e>
    {
      /* Disable the UART Transmit Data Register Empty Interrupt */
      __HAL_UART_DISABLE_IT(huart, UART_IT_TXE);
 80091d6:	687b      	ldr	r3, [r7, #4]
 80091d8:	681b      	ldr	r3, [r3, #0]
 80091da:	68da      	ldr	r2, [r3, #12]
 80091dc:	687b      	ldr	r3, [r7, #4]
 80091de:	681b      	ldr	r3, [r3, #0]
 80091e0:	f022 0280 	bic.w	r2, r2, #128	@ 0x80
 80091e4:	60da      	str	r2, [r3, #12]

      /* Enable the UART Transmit Complete Interrupt */
      __HAL_UART_ENABLE_IT(huart, UART_IT_TC);
 80091e6:	687b      	ldr	r3, [r7, #4]
 80091e8:	681b      	ldr	r3, [r3, #0]
 80091ea:	68da      	ldr	r2, [r3, #12]
 80091ec:	687b      	ldr	r3, [r7, #4]
 80091ee:	681b      	ldr	r3, [r3, #0]
 80091f0:	f042 0240 	orr.w	r2, r2, #64	@ 0x40
 80091f4:	60da      	str	r2, [r3, #12]
    }
    return HAL_OK;
 80091f6:	2300      	movs	r3, #0
 80091f8:	e000      	b.n	80091fc <UART_Transmit_IT+0x94>
  }
  else
  {
    return HAL_BUSY;
 80091fa:	2302      	movs	r3, #2
  }
}
 80091fc:	4618      	mov	r0, r3
 80091fe:	3714      	adds	r7, #20
 8009200:	46bd      	mov	sp, r7
 8009202:	f85d 7b04 	ldr.w	r7, [sp], #4
 8009206:	4770      	bx	lr

08009208 <UART_EndTransmit_IT>:
  * @param  huart  Pointer to a UART_HandleTypeDef structure that contains
  *                the configuration information for the specified UART module.
  * @retval HAL status
  */
static HAL_StatusTypeDef UART_EndTransmit_IT(UART_HandleTypeDef *huart)
{
 8009208:	b580      	push	{r7, lr}
 800920a:	b082      	sub	sp, #8
 800920c:	af00      	add	r7, sp, #0
 800920e:	6078      	str	r0, [r7, #4]
  /* Disable the UART Transmit Complete Interrupt */
  __HAL_UART_DISABLE_IT(huart, UART_IT_TC);
 8009210:	687b      	ldr	r3, [r7, #4]
 8009212:	681b      	ldr	r3, [r3, #0]
 8009214:	68da      	ldr	r2, [r3, #12]
 8009216:	687b      	ldr	r3, [r7, #4]
 8009218:	681b      	ldr	r3, [r3, #0]
 800921a:	f022 0240 	bic.w	r2, r2, #64	@ 0x40
 800921e:	60da      	str	r2, [r3, #12]

  /* Tx process is ended, restore huart->gState to Ready */
  huart->gState = HAL_UART_STATE_READY;
 8009220:	687b      	ldr	r3, [r7, #4]
 8009222:	2220      	movs	r2, #32
 8009224:	f883 2041 	strb.w	r2, [r3, #65]	@ 0x41
#if (USE_HAL_UART_REGISTER_CALLBACKS == 1)
  /*Call registered Tx complete callback*/
  huart->TxCpltCallback(huart);
#else
  /*Call legacy weak Tx complete callback*/
  HAL_UART_TxCpltCallback(huart);
 8009228:	6878      	ldr	r0, [r7, #4]
 800922a:	f7ff fe73 	bl	8008f14 <HAL_UART_TxCpltCallback>
#endif /* USE_HAL_UART_REGISTER_CALLBACKS */

  return HAL_OK;
 800922e:	2300      	movs	r3, #0
}
 8009230:	4618      	mov	r0, r3
 8009232:	3708      	adds	r7, #8
 8009234:	46bd      	mov	sp, r7
 8009236:	bd80      	pop	{r7, pc}

08009238 <UART_Receive_IT>:
  * @param  huart  Pointer to a UART_HandleTypeDef structure that contains
  *                the configuration information for the specified UART module.
  * @retval HAL status
  */
static HAL_StatusTypeDef UART_Receive_IT(UART_HandleTypeDef *huart)
{
 8009238:	b580      	push	{r7, lr}
 800923a:	b08c      	sub	sp, #48	@ 0x30
 800923c:	af00      	add	r7, sp, #0
 800923e:	6078      	str	r0, [r7, #4]
  uint8_t  *pdata8bits;
  uint16_t *pdata16bits;

  /* Check that a Rx process is ongoing */
  if (huart->RxState == HAL_UART_STATE_BUSY_RX)
 8009240:	687b      	ldr	r3, [r7, #4]
 8009242:	f893 3042 	ldrb.w	r3, [r3, #66]	@ 0x42
 8009246:	b2db      	uxtb	r3, r3
 8009248:	2b22      	cmp	r3, #34	@ 0x22
 800924a:	f040 80ae 	bne.w	80093aa <UART_Receive_IT+0x172>
  {
    if ((huart->Init.WordLength == UART_WORDLENGTH_9B) && (huart->Init.Parity == UART_PARITY_NONE))
 800924e:	687b      	ldr	r3, [r7, #4]
 8009250:	689b      	ldr	r3, [r3, #8]
 8009252:	f5b3 5f80 	cmp.w	r3, #4096	@ 0x1000
 8009256:	d117      	bne.n	8009288 <UART_Receive_IT+0x50>
 8009258:	687b      	ldr	r3, [r7, #4]
 800925a:	691b      	ldr	r3, [r3, #16]
 800925c:	2b00      	cmp	r3, #0
 800925e:	d113      	bne.n	8009288 <UART_Receive_IT+0x50>
    {
      pdata8bits  = NULL;
 8009260:	2300      	movs	r3, #0
 8009262:	62fb      	str	r3, [r7, #44]	@ 0x2c
      pdata16bits = (uint16_t *) huart->pRxBuffPtr;
 8009264:	687b      	ldr	r3, [r7, #4]
 8009266:	6a9b      	ldr	r3, [r3, #40]	@ 0x28
 8009268:	62bb      	str	r3, [r7, #40]	@ 0x28
      *pdata16bits = (uint16_t)(huart->Instance->DR & (uint16_t)0x01FF);
 800926a:	687b      	ldr	r3, [r7, #4]
 800926c:	681b      	ldr	r3, [r3, #0]
 800926e:	685b      	ldr	r3, [r3, #4]
 8009270:	b29b      	uxth	r3, r3
 8009272:	f3c3 0308 	ubfx	r3, r3, #0, #9
 8009276:	b29a      	uxth	r2, r3
 8009278:	6abb      	ldr	r3, [r7, #40]	@ 0x28
 800927a:	801a      	strh	r2, [r3, #0]
      huart->pRxBuffPtr += 2U;
 800927c:	687b      	ldr	r3, [r7, #4]
 800927e:	6a9b      	ldr	r3, [r3, #40]	@ 0x28
 8009280:	1c9a      	adds	r2, r3, #2
 8009282:	687b      	ldr	r3, [r7, #4]
 8009284:	629a      	str	r2, [r3, #40]	@ 0x28
 8009286:	e026      	b.n	80092d6 <UART_Receive_IT+0x9e>
    }
    else
    {
      pdata8bits = (uint8_t *) huart->pRxBuffPtr;
 8009288:	687b      	ldr	r3, [r7, #4]
 800928a:	6a9b      	ldr	r3, [r3, #40]	@ 0x28
 800928c:	62fb      	str	r3, [r7, #44]	@ 0x2c
      pdata16bits  = NULL;
 800928e:	2300      	movs	r3, #0
 8009290:	62bb      	str	r3, [r7, #40]	@ 0x28

      if ((huart->Init.WordLength == UART_WORDLENGTH_9B) || ((huart->Init.WordLength == UART_WORDLENGTH_8B) && (huart->Init.Parity == UART_PARITY_NONE)))
 8009292:	687b      	ldr	r3, [r7, #4]
 8009294:	689b      	ldr	r3, [r3, #8]
 8009296:	f5b3 5f80 	cmp.w	r3, #4096	@ 0x1000
 800929a:	d007      	beq.n	80092ac <UART_Receive_IT+0x74>
 800929c:	687b      	ldr	r3, [r7, #4]
 800929e:	689b      	ldr	r3, [r3, #8]
 80092a0:	2b00      	cmp	r3, #0
 80092a2:	d10a      	bne.n	80092ba <UART_Receive_IT+0x82>
 80092a4:	687b      	ldr	r3, [r7, #4]
 80092a6:	691b      	ldr	r3, [r3, #16]
 80092a8:	2b00      	cmp	r3, #0
 80092aa:	d106      	bne.n	80092ba <UART_Receive_IT+0x82>
      {
        *pdata8bits = (uint8_t)(huart->Instance->DR & (uint8_t)0x00FF);
 80092ac:	687b      	ldr	r3, [r7, #4]
 80092ae:	681b      	ldr	r3, [r3, #0]
 80092b0:	685b      	ldr	r3, [r3, #4]
 80092b2:	b2da      	uxtb	r2, r3
 80092b4:	6afb      	ldr	r3, [r7, #44]	@ 0x2c
 80092b6:	701a      	strb	r2, [r3, #0]
 80092b8:	e008      	b.n	80092cc <UART_Receive_IT+0x94>
      }
      else
      {
        *pdata8bits = (uint8_t)(huart->Instance->DR & (uint8_t)0x007F);
 80092ba:	687b      	ldr	r3, [r7, #4]
 80092bc:	681b      	ldr	r3, [r3, #0]
 80092be:	685b      	ldr	r3, [r3, #4]
 80092c0:	b2db      	uxtb	r3, r3
 80092c2:	f003 037f 	and.w	r3, r3, #127	@ 0x7f
 80092c6:	b2da      	uxtb	r2, r3
 80092c8:	6afb      	ldr	r3, [r7, #44]	@ 0x2c
 80092ca:	701a      	strb	r2, [r3, #0]
      }
      huart->pRxBuffPtr += 1U;
 80092cc:	687b      	ldr	r3, [r7, #4]
 80092ce:	6a9b      	ldr	r3, [r3, #40]	@ 0x28
 80092d0:	1c5a      	adds	r2, r3, #1
 80092d2:	687b      	ldr	r3, [r7, #4]
 80092d4:	629a      	str	r2, [r3, #40]	@ 0x28
    }

    if (--huart->RxXferCount == 0U)
 80092d6:	687b      	ldr	r3, [r7, #4]
 80092d8:	8ddb      	ldrh	r3, [r3, #46]	@ 0x2e
 80092da:	b29b      	uxth	r3, r3
 80092dc:	3b01      	subs	r3, #1
 80092de:	b29b      	uxth	r3, r3
 80092e0:	687a      	ldr	r2, [r7, #4]
 80092e2:	4619      	mov	r1, r3
 80092e4:	85d1      	strh	r1, [r2, #46]	@ 0x2e
 80092e6:	2b00      	cmp	r3, #0
 80092e8:	d15d      	bne.n	80093a6 <UART_Receive_IT+0x16e>
    {
      /* Disable the UART Data Register not empty Interrupt */
      __HAL_UART_DISABLE_IT(huart, UART_IT_RXNE);
 80092ea:	687b      	ldr	r3, [r7, #4]
 80092ec:	681b      	ldr	r3, [r3, #0]
 80092ee:	68da      	ldr	r2, [r3, #12]
 80092f0:	687b      	ldr	r3, [r7, #4]
 80092f2:	681b      	ldr	r3, [r3, #0]
 80092f4:	f022 0220 	bic.w	r2, r2, #32
 80092f8:	60da      	str	r2, [r3, #12]

      /* Disable the UART Parity Error Interrupt */
      __HAL_UART_DISABLE_IT(huart, UART_IT_PE);
 80092fa:	687b      	ldr	r3, [r7, #4]
 80092fc:	681b      	ldr	r3, [r3, #0]
 80092fe:	68da      	ldr	r2, [r3, #12]
 8009300:	687b      	ldr	r3, [r7, #4]
 8009302:	681b      	ldr	r3, [r3, #0]
 8009304:	f422 7280 	bic.w	r2, r2, #256	@ 0x100
 8009308:	60da      	str	r2, [r3, #12]

      /* Disable the UART Error Interrupt: (Frame error, noise error, overrun error) */
      __HAL_UART_DISABLE_IT(huart, UART_IT_ERR);
 800930a:	687b      	ldr	r3, [r7, #4]
 800930c:	681b      	ldr	r3, [r3, #0]
 800930e:	695a      	ldr	r2, [r3, #20]
 8009310:	687b      	ldr	r3, [r7, #4]
 8009312:	681b      	ldr	r3, [r3, #0]
 8009314:	f022 0201 	bic.w	r2, r2, #1
 8009318:	615a      	str	r2, [r3, #20]

      /* Rx process is completed, restore huart->RxState to Ready */
      huart->RxState = HAL_UART_STATE_READY;
 800931a:	687b      	ldr	r3, [r7, #4]
 800931c:	2220      	movs	r2, #32
 800931e:	f883 2042 	strb.w	r2, [r3, #66]	@ 0x42

      /* Initialize type of RxEvent to Transfer Complete */
      huart->RxEventType = HAL_UART_RXEVENT_TC;
 8009322:	687b      	ldr	r3, [r7, #4]
 8009324:	2200      	movs	r2, #0
 8009326:	635a      	str	r2, [r3, #52]	@ 0x34

      /* Check current reception Mode :
         If Reception till IDLE event has been selected : */
      if (huart->ReceptionType == HAL_UART_RECEPTION_TOIDLE)
 8009328:	687b      	ldr	r3, [r7, #4]
 800932a:	6b1b      	ldr	r3, [r3, #48]	@ 0x30
 800932c:	2b01      	cmp	r3, #1
 800932e:	d135      	bne.n	800939c <UART_Receive_IT+0x164>
      {
        /* Set reception type to Standard */
        huart->ReceptionType = HAL_UART_RECEPTION_STANDARD;
 8009330:	687b      	ldr	r3, [r7, #4]
 8009332:	2200      	movs	r2, #0
 8009334:	631a      	str	r2, [r3, #48]	@ 0x30

        /* Disable IDLE interrupt */
        ATOMIC_CLEAR_BIT(huart->Instance->CR1, USART_CR1_IDLEIE);
 8009336:	687b      	ldr	r3, [r7, #4]
 8009338:	681b      	ldr	r3, [r3, #0]
 800933a:	330c      	adds	r3, #12
 800933c:	617b      	str	r3, [r7, #20]
   __ASM volatile ("ldrex %0, %1" : "=r" (result) : "Q" (*addr) );
 800933e:	697b      	ldr	r3, [r7, #20]
 8009340:	e853 3f00 	ldrex	r3, [r3]
 8009344:	613b      	str	r3, [r7, #16]
   return(result);
 8009346:	693b      	ldr	r3, [r7, #16]
 8009348:	f023 0310 	bic.w	r3, r3, #16
 800934c:	627b      	str	r3, [r7, #36]	@ 0x24
 800934e:	687b      	ldr	r3, [r7, #4]
 8009350:	681b      	ldr	r3, [r3, #0]
 8009352:	330c      	adds	r3, #12
 8009354:	6a7a      	ldr	r2, [r7, #36]	@ 0x24
 8009356:	623a      	str	r2, [r7, #32]
 8009358:	61fb      	str	r3, [r7, #28]
   __ASM volatile ("strex %0, %2, %1" : "=&r" (result), "=Q" (*addr) : "r" (value) );
 800935a:	69f9      	ldr	r1, [r7, #28]
 800935c:	6a3a      	ldr	r2, [r7, #32]
 800935e:	e841 2300 	strex	r3, r2, [r1]
 8009362:	61bb      	str	r3, [r7, #24]
   return(result);
 8009364:	69bb      	ldr	r3, [r7, #24]
 8009366:	2b00      	cmp	r3, #0
 8009368:	d1e5      	bne.n	8009336 <UART_Receive_IT+0xfe>

        /* Check if IDLE flag is set */
        if (__HAL_UART_GET_FLAG(huart, UART_FLAG_IDLE))
 800936a:	687b      	ldr	r3, [r7, #4]
 800936c:	681b      	ldr	r3, [r3, #0]
 800936e:	681b      	ldr	r3, [r3, #0]
 8009370:	f003 0310 	and.w	r3, r3, #16
 8009374:	2b10      	cmp	r3, #16
 8009376:	d10a      	bne.n	800938e <UART_Receive_IT+0x156>
        {
          /* Clear IDLE flag in ISR */
          __HAL_UART_CLEAR_IDLEFLAG(huart);
 8009378:	2300      	movs	r3, #0
 800937a:	60fb      	str	r3, [r7, #12]
 800937c:	687b      	ldr	r3, [r7, #4]
 800937e:	681b      	ldr	r3, [r3, #0]
 8009380:	681b      	ldr	r3, [r3, #0]
 8009382:	60fb      	str	r3, [r7, #12]
 8009384:	687b      	ldr	r3, [r7, #4]
 8009386:	681b      	ldr	r3, [r3, #0]
 8009388:	685b      	ldr	r3, [r3, #4]
 800938a:	60fb      	str	r3, [r7, #12]
 800938c:	68fb      	ldr	r3, [r7, #12]
#if (USE_HAL_UART_REGISTER_CALLBACKS == 1)
        /*Call registered Rx Event callback*/
        huart->RxEventCallback(huart, huart->RxXferSize);
#else
        /*Call legacy weak Rx Event callback*/
        HAL_UARTEx_RxEventCallback(huart, huart->RxXferSize);
 800938e:	687b      	ldr	r3, [r7, #4]
 8009390:	8d9b      	ldrh	r3, [r3, #44]	@ 0x2c
 8009392:	4619      	mov	r1, r3
 8009394:	6878      	ldr	r0, [r7, #4]
 8009396:	f7ff fdd1 	bl	8008f3c <HAL_UARTEx_RxEventCallback>
 800939a:	e002      	b.n	80093a2 <UART_Receive_IT+0x16a>
#if (USE_HAL_UART_REGISTER_CALLBACKS == 1)
        /*Call registered Rx complete callback*/
        huart->RxCpltCallback(huart);
#else
        /*Call legacy weak Rx complete callback*/
        HAL_UART_RxCpltCallback(huart);
 800939c:	6878      	ldr	r0, [r7, #4]
 800939e:	f7f9 fe3f 	bl	8003020 <HAL_UART_RxCpltCallback>
#endif /* USE_HAL_UART_REGISTER_CALLBACKS */
      }

      return HAL_OK;
 80093a2:	2300      	movs	r3, #0
 80093a4:	e002      	b.n	80093ac <UART_Receive_IT+0x174>
    }
    return HAL_OK;
 80093a6:	2300      	movs	r3, #0
 80093a8:	e000      	b.n	80093ac <UART_Receive_IT+0x174>
  }
  else
  {
    return HAL_BUSY;
 80093aa:	2302      	movs	r3, #2
  }
}
 80093ac:	4618      	mov	r0, r3
 80093ae:	3730      	adds	r7, #48	@ 0x30
 80093b0:	46bd      	mov	sp, r7
 80093b2:	bd80      	pop	{r7, pc}

080093b4 <UART_SetConfig>:
  * @param  huart  Pointer to a UART_HandleTypeDef structure that contains
  *                the configuration information for the specified UART module.
  * @retval None
  */
static void UART_SetConfig(UART_HandleTypeDef *huart)
{
 80093b4:	e92d 4fb0 	stmdb	sp!, {r4, r5, r7, r8, r9, sl, fp, lr}
 80093b8:	b0c0      	sub	sp, #256	@ 0x100
 80093ba:	af00      	add	r7, sp, #0
 80093bc:	f8c7 00f4 	str.w	r0, [r7, #244]	@ 0xf4
  assert_param(IS_UART_MODE(huart->Init.Mode));

  /*-------------------------- USART CR2 Configuration -----------------------*/
  /* Configure the UART Stop Bits: Set STOP[13:12] bits
     according to huart->Init.StopBits value */
  MODIFY_REG(huart->Instance->CR2, USART_CR2_STOP, huart->Init.StopBits);
 80093c0:	f8d7 30f4 	ldr.w	r3, [r7, #244]	@ 0xf4
 80093c4:	681b      	ldr	r3, [r3, #0]
 80093c6:	691b      	ldr	r3, [r3, #16]
 80093c8:	f423 5040 	bic.w	r0, r3, #12288	@ 0x3000
 80093cc:	f8d7 30f4 	ldr.w	r3, [r7, #244]	@ 0xf4
 80093d0:	68d9      	ldr	r1, [r3, #12]
 80093d2:	f8d7 30f4 	ldr.w	r3, [r7, #244]	@ 0xf4
 80093d6:	681a      	ldr	r2, [r3, #0]
 80093d8:	ea40 0301 	orr.w	r3, r0, r1
 80093dc:	6113      	str	r3, [r2, #16]
     Set the M bits according to huart->Init.WordLength value
     Set PCE and PS bits according to huart->Init.Parity value
     Set TE and RE bits according to huart->Init.Mode value
     Set OVER8 bit according to huart->Init.OverSampling value */

  tmpreg = (uint32_t)huart->Init.WordLength | huart->Init.Parity | huart->Init.Mode | huart->Init.OverSampling;
 80093de:	f8d7 30f4 	ldr.w	r3, [r7, #244]	@ 0xf4
 80093e2:	689a      	ldr	r2, [r3, #8]
 80093e4:	f8d7 30f4 	ldr.w	r3, [r7, #244]	@ 0xf4
 80093e8:	691b      	ldr	r3, [r3, #16]
 80093ea:	431a      	orrs	r2, r3
 80093ec:	f8d7 30f4 	ldr.w	r3, [r7, #244]	@ 0xf4
 80093f0:	695b      	ldr	r3, [r3, #20]
 80093f2:	431a      	orrs	r2, r3
 80093f4:	f8d7 30f4 	ldr.w	r3, [r7, #244]	@ 0xf4
 80093f8:	69db      	ldr	r3, [r3, #28]
 80093fa:	4313      	orrs	r3, r2
 80093fc:	f8c7 30f8 	str.w	r3, [r7, #248]	@ 0xf8
  MODIFY_REG(huart->Instance->CR1,
 8009400:	f8d7 30f4 	ldr.w	r3, [r7, #244]	@ 0xf4
 8009404:	681b      	ldr	r3, [r3, #0]
 8009406:	68db      	ldr	r3, [r3, #12]
 8009408:	f423 4116 	bic.w	r1, r3, #38400	@ 0x9600
 800940c:	f021 010c 	bic.w	r1, r1, #12
 8009410:	f8d7 30f4 	ldr.w	r3, [r7, #244]	@ 0xf4
 8009414:	681a      	ldr	r2, [r3, #0]
 8009416:	f8d7 30f8 	ldr.w	r3, [r7, #248]	@ 0xf8
 800941a:	430b      	orrs	r3, r1
 800941c:	60d3      	str	r3, [r2, #12]
             (uint32_t)(USART_CR1_M | USART_CR1_PCE | USART_CR1_PS | USART_CR1_TE | USART_CR1_RE | USART_CR1_OVER8),
             tmpreg);

  /*-------------------------- USART CR3 Configuration -----------------------*/
  /* Configure the UART HFC: Set CTSE and RTSE bits according to huart->Init.HwFlowCtl value */
  MODIFY_REG(huart->Instance->CR3, (USART_CR3_RTSE | USART_CR3_CTSE), huart->Init.HwFlowCtl);
 800941e:	f8d7 30f4 	ldr.w	r3, [r7, #244]	@ 0xf4
 8009422:	681b      	ldr	r3, [r3, #0]
 8009424:	695b      	ldr	r3, [r3, #20]
 8009426:	f423 7040 	bic.w	r0, r3, #768	@ 0x300
 800942a:	f8d7 30f4 	ldr.w	r3, [r7, #244]	@ 0xf4
 800942e:	6999      	ldr	r1, [r3, #24]
 8009430:	f8d7 30f4 	ldr.w	r3, [r7, #244]	@ 0xf4
 8009434:	681a      	ldr	r2, [r3, #0]
 8009436:	ea40 0301 	orr.w	r3, r0, r1
 800943a:	6153      	str	r3, [r2, #20]
    if ((huart->Instance == USART1) || (huart->Instance == USART6) || (huart->Instance == UART9) || (huart->Instance == UART10))
    {
      pclk = HAL_RCC_GetPCLK2Freq();
    }
#elif defined(USART6)
    if ((huart->Instance == USART1) || (huart->Instance == USART6))
 800943c:	f8d7 30f4 	ldr.w	r3, [r7, #244]	@ 0xf4
 8009440:	681a      	ldr	r2, [r3, #0]
 8009442:	4b8f      	ldr	r3, [pc, #572]	@ (8009680 <UART_SetConfig+0x2cc>)
 8009444:	429a      	cmp	r2, r3
 8009446:	d005      	beq.n	8009454 <UART_SetConfig+0xa0>
 8009448:	f8d7 30f4 	ldr.w	r3, [r7, #244]	@ 0xf4
 800944c:	681a      	ldr	r2, [r3, #0]
 800944e:	4b8d      	ldr	r3, [pc, #564]	@ (8009684 <UART_SetConfig+0x2d0>)
 8009450:	429a      	cmp	r2, r3
 8009452:	d104      	bne.n	800945e <UART_SetConfig+0xaa>
    {
      pclk = HAL_RCC_GetPCLK2Freq();
 8009454:	f7fd fab0 	bl	80069b8 <HAL_RCC_GetPCLK2Freq>
 8009458:	f8c7 00fc 	str.w	r0, [r7, #252]	@ 0xfc
 800945c:	e003      	b.n	8009466 <UART_SetConfig+0xb2>
      pclk = HAL_RCC_GetPCLK2Freq();
    }
#endif /* USART6 */
    else
    {
      pclk = HAL_RCC_GetPCLK1Freq();
 800945e:	f7fd fa97 	bl	8006990 <HAL_RCC_GetPCLK1Freq>
 8009462:	f8c7 00fc 	str.w	r0, [r7, #252]	@ 0xfc
    }
  /*-------------------------- USART BRR Configuration ---------------------*/
  if (huart->Init.OverSampling == UART_OVERSAMPLING_8)
 8009466:	f8d7 30f4 	ldr.w	r3, [r7, #244]	@ 0xf4
 800946a:	69db      	ldr	r3, [r3, #28]
 800946c:	f5b3 4f00 	cmp.w	r3, #32768	@ 0x8000
 8009470:	f040 810c 	bne.w	800968c <UART_SetConfig+0x2d8>
  {
    huart->Instance->BRR = UART_BRR_SAMPLING8(pclk, huart->Init.BaudRate);
 8009474:	f8d7 30fc 	ldr.w	r3, [r7, #252]	@ 0xfc
 8009478:	2200      	movs	r2, #0
 800947a:	f8c7 30e8 	str.w	r3, [r7, #232]	@ 0xe8
 800947e:	f8c7 20ec 	str.w	r2, [r7, #236]	@ 0xec
 8009482:	e9d7 453a 	ldrd	r4, r5, [r7, #232]	@ 0xe8
 8009486:	4622      	mov	r2, r4
 8009488:	462b      	mov	r3, r5
 800948a:	1891      	adds	r1, r2, r2
 800948c:	65b9      	str	r1, [r7, #88]	@ 0x58
 800948e:	415b      	adcs	r3, r3
 8009490:	65fb      	str	r3, [r7, #92]	@ 0x5c
 8009492:	e9d7 2316 	ldrd	r2, r3, [r7, #88]	@ 0x58
 8009496:	4621      	mov	r1, r4
 8009498:	eb12 0801 	adds.w	r8, r2, r1
 800949c:	4629      	mov	r1, r5
 800949e:	eb43 0901 	adc.w	r9, r3, r1
 80094a2:	f04f 0200 	mov.w	r2, #0
 80094a6:	f04f 0300 	mov.w	r3, #0
 80094aa:	ea4f 03c9 	mov.w	r3, r9, lsl #3
 80094ae:	ea43 7358 	orr.w	r3, r3, r8, lsr #29
 80094b2:	ea4f 02c8 	mov.w	r2, r8, lsl #3
 80094b6:	4690      	mov	r8, r2
 80094b8:	4699      	mov	r9, r3
 80094ba:	4623      	mov	r3, r4
 80094bc:	eb18 0303 	adds.w	r3, r8, r3
 80094c0:	f8c7 30e0 	str.w	r3, [r7, #224]	@ 0xe0
 80094c4:	462b      	mov	r3, r5
 80094c6:	eb49 0303 	adc.w	r3, r9, r3
 80094ca:	f8c7 30e4 	str.w	r3, [r7, #228]	@ 0xe4
 80094ce:	f8d7 30f4 	ldr.w	r3, [r7, #244]	@ 0xf4
 80094d2:	685b      	ldr	r3, [r3, #4]
 80094d4:	2200      	movs	r2, #0
 80094d6:	f8c7 30d8 	str.w	r3, [r7, #216]	@ 0xd8
 80094da:	f8c7 20dc 	str.w	r2, [r7, #220]	@ 0xdc
 80094de:	e9d7 1236 	ldrd	r1, r2, [r7, #216]	@ 0xd8
 80094e2:	460b      	mov	r3, r1
 80094e4:	18db      	adds	r3, r3, r3
 80094e6:	653b      	str	r3, [r7, #80]	@ 0x50
 80094e8:	4613      	mov	r3, r2
 80094ea:	eb42 0303 	adc.w	r3, r2, r3
 80094ee:	657b      	str	r3, [r7, #84]	@ 0x54
 80094f0:	e9d7 2314 	ldrd	r2, r3, [r7, #80]	@ 0x50
 80094f4:	e9d7 0138 	ldrd	r0, r1, [r7, #224]	@ 0xe0
 80094f8:	f7f6 fe80 	bl	80001fc <__aeabi_uldivmod>
 80094fc:	4602      	mov	r2, r0
 80094fe:	460b      	mov	r3, r1
 8009500:	4b61      	ldr	r3, [pc, #388]	@ (8009688 <UART_SetConfig+0x2d4>)
 8009502:	fba3 2302 	umull	r2, r3, r3, r2
 8009506:	095b      	lsrs	r3, r3, #5
 8009508:	011c      	lsls	r4, r3, #4
 800950a:	f8d7 30fc 	ldr.w	r3, [r7, #252]	@ 0xfc
 800950e:	2200      	movs	r2, #0
 8009510:	f8c7 30d0 	str.w	r3, [r7, #208]	@ 0xd0
 8009514:	f8c7 20d4 	str.w	r2, [r7, #212]	@ 0xd4
 8009518:	e9d7 8934 	ldrd	r8, r9, [r7, #208]	@ 0xd0
 800951c:	4642      	mov	r2, r8
 800951e:	464b      	mov	r3, r9
 8009520:	1891      	adds	r1, r2, r2
 8009522:	64b9      	str	r1, [r7, #72]	@ 0x48
 8009524:	415b      	adcs	r3, r3
 8009526:	64fb      	str	r3, [r7, #76]	@ 0x4c
 8009528:	e9d7 2312 	ldrd	r2, r3, [r7, #72]	@ 0x48
 800952c:	4641      	mov	r1, r8
 800952e:	eb12 0a01 	adds.w	sl, r2, r1
 8009532:	4649      	mov	r1, r9
 8009534:	eb43 0b01 	adc.w	fp, r3, r1
 8009538:	f04f 0200 	mov.w	r2, #0
 800953c:	f04f 0300 	mov.w	r3, #0
 8009540:	ea4f 03cb 	mov.w	r3, fp, lsl #3
 8009544:	ea43 735a 	orr.w	r3, r3, sl, lsr #29
 8009548:	ea4f 02ca 	mov.w	r2, sl, lsl #3
 800954c:	4692      	mov	sl, r2
 800954e:	469b      	mov	fp, r3
 8009550:	4643      	mov	r3, r8
 8009552:	eb1a 0303 	adds.w	r3, sl, r3
 8009556:	f8c7 30c8 	str.w	r3, [r7, #200]	@ 0xc8
 800955a:	464b      	mov	r3, r9
 800955c:	eb4b 0303 	adc.w	r3, fp, r3
 8009560:	f8c7 30cc 	str.w	r3, [r7, #204]	@ 0xcc
 8009564:	f8d7 30f4 	ldr.w	r3, [r7, #244]	@ 0xf4
 8009568:	685b      	ldr	r3, [r3, #4]
 800956a:	2200      	movs	r2, #0
 800956c:	f8c7 30c0 	str.w	r3, [r7, #192]	@ 0xc0
 8009570:	f8c7 20c4 	str.w	r2, [r7, #196]	@ 0xc4
 8009574:	e9d7 1230 	ldrd	r1, r2, [r7, #192]	@ 0xc0
 8009578:	460b      	mov	r3, r1
 800957a:	18db      	adds	r3, r3, r3
 800957c:	643b      	str	r3, [r7, #64]	@ 0x40
 800957e:	4613      	mov	r3, r2
 8009580:	eb42 0303 	adc.w	r3, r2, r3
 8009584:	647b      	str	r3, [r7, #68]	@ 0x44
 8009586:	e9d7 2310 	ldrd	r2, r3, [r7, #64]	@ 0x40
 800958a:	e9d7 0132 	ldrd	r0, r1, [r7, #200]	@ 0xc8
 800958e:	f7f6 fe35 	bl	80001fc <__aeabi_uldivmod>
 8009592:	4602      	mov	r2, r0
 8009594:	460b      	mov	r3, r1
 8009596:	4611      	mov	r1, r2
 8009598:	4b3b      	ldr	r3, [pc, #236]	@ (8009688 <UART_SetConfig+0x2d4>)
 800959a:	fba3 2301 	umull	r2, r3, r3, r1
 800959e:	095b      	lsrs	r3, r3, #5
 80095a0:	2264      	movs	r2, #100	@ 0x64
 80095a2:	fb02 f303 	mul.w	r3, r2, r3
 80095a6:	1acb      	subs	r3, r1, r3
 80095a8:	00db      	lsls	r3, r3, #3
 80095aa:	f103 0232 	add.w	r2, r3, #50	@ 0x32
 80095ae:	4b36      	ldr	r3, [pc, #216]	@ (8009688 <UART_SetConfig+0x2d4>)
 80095b0:	fba3 2302 	umull	r2, r3, r3, r2
 80095b4:	095b      	lsrs	r3, r3, #5
 80095b6:	005b      	lsls	r3, r3, #1
 80095b8:	f403 73f8 	and.w	r3, r3, #496	@ 0x1f0
 80095bc:	441c      	add	r4, r3
 80095be:	f8d7 30fc 	ldr.w	r3, [r7, #252]	@ 0xfc
 80095c2:	2200      	movs	r2, #0
 80095c4:	f8c7 30b8 	str.w	r3, [r7, #184]	@ 0xb8
 80095c8:	f8c7 20bc 	str.w	r2, [r7, #188]	@ 0xbc
 80095cc:	e9d7 892e 	ldrd	r8, r9, [r7, #184]	@ 0xb8
 80095d0:	4642      	mov	r2, r8
 80095d2:	464b      	mov	r3, r9
 80095d4:	1891      	adds	r1, r2, r2
 80095d6:	63b9      	str	r1, [r7, #56]	@ 0x38
 80095d8:	415b      	adcs	r3, r3
 80095da:	63fb      	str	r3, [r7, #60]	@ 0x3c
 80095dc:	e9d7 230e 	ldrd	r2, r3, [r7, #56]	@ 0x38
 80095e0:	4641      	mov	r1, r8
 80095e2:	1851      	adds	r1, r2, r1
 80095e4:	6339      	str	r1, [r7, #48]	@ 0x30
 80095e6:	4649      	mov	r1, r9
 80095e8:	414b      	adcs	r3, r1
 80095ea:	637b      	str	r3, [r7, #52]	@ 0x34
 80095ec:	f04f 0200 	mov.w	r2, #0
 80095f0:	f04f 0300 	mov.w	r3, #0
 80095f4:	e9d7 ab0c 	ldrd	sl, fp, [r7, #48]	@ 0x30
 80095f8:	4659      	mov	r1, fp
 80095fa:	00cb      	lsls	r3, r1, #3
 80095fc:	4651      	mov	r1, sl
 80095fe:	ea43 7351 	orr.w	r3, r3, r1, lsr #29
 8009602:	4651      	mov	r1, sl
 8009604:	00ca      	lsls	r2, r1, #3
 8009606:	4610      	mov	r0, r2
 8009608:	4619      	mov	r1, r3
 800960a:	4603      	mov	r3, r0
 800960c:	4642      	mov	r2, r8
 800960e:	189b      	adds	r3, r3, r2
 8009610:	f8c7 30b0 	str.w	r3, [r7, #176]	@ 0xb0
 8009614:	464b      	mov	r3, r9
 8009616:	460a      	mov	r2, r1
 8009618:	eb42 0303 	adc.w	r3, r2, r3
 800961c:	f8c7 30b4 	str.w	r3, [r7, #180]	@ 0xb4
 8009620:	f8d7 30f4 	ldr.w	r3, [r7, #244]	@ 0xf4
 8009624:	685b      	ldr	r3, [r3, #4]
 8009626:	2200      	movs	r2, #0
 8009628:	f8c7 30a8 	str.w	r3, [r7, #168]	@ 0xa8
 800962c:	f8c7 20ac 	str.w	r2, [r7, #172]	@ 0xac
 8009630:	e9d7 122a 	ldrd	r1, r2, [r7, #168]	@ 0xa8
 8009634:	460b      	mov	r3, r1
 8009636:	18db      	adds	r3, r3, r3
 8009638:	62bb      	str	r3, [r7, #40]	@ 0x28
 800963a:	4613      	mov	r3, r2
 800963c:	eb42 0303 	adc.w	r3, r2, r3
 8009640:	62fb      	str	r3, [r7, #44]	@ 0x2c
 8009642:	e9d7 230a 	ldrd	r2, r3, [r7, #40]	@ 0x28
 8009646:	e9d7 012c 	ldrd	r0, r1, [r7, #176]	@ 0xb0
 800964a:	f7f6 fdd7 	bl	80001fc <__aeabi_uldivmod>
 800964e:	4602      	mov	r2, r0
 8009650:	460b      	mov	r3, r1
 8009652:	4b0d      	ldr	r3, [pc, #52]	@ (8009688 <UART_SetConfig+0x2d4>)
 8009654:	fba3 1302 	umull	r1, r3, r3, r2
 8009658:	095b      	lsrs	r3, r3, #5
 800965a:	2164      	movs	r1, #100	@ 0x64
 800965c:	fb01 f303 	mul.w	r3, r1, r3
 8009660:	1ad3      	subs	r3, r2, r3
 8009662:	00db      	lsls	r3, r3, #3
 8009664:	3332      	adds	r3, #50	@ 0x32
 8009666:	4a08      	ldr	r2, [pc, #32]	@ (8009688 <UART_SetConfig+0x2d4>)
 8009668:	fba2 2303 	umull	r2, r3, r2, r3
 800966c:	095b      	lsrs	r3, r3, #5
 800966e:	f003 0207 	and.w	r2, r3, #7
 8009672:	f8d7 30f4 	ldr.w	r3, [r7, #244]	@ 0xf4
 8009676:	681b      	ldr	r3, [r3, #0]
 8009678:	4422      	add	r2, r4
 800967a:	609a      	str	r2, [r3, #8]
  }
  else
  {
    huart->Instance->BRR = UART_BRR_SAMPLING16(pclk, huart->Init.BaudRate);
  }
}
 800967c:	e106      	b.n	800988c <UART_SetConfig+0x4d8>
 800967e:	bf00      	nop
 8009680:	40011000 	.word	0x40011000
 8009684:	40011400 	.word	0x40011400
 8009688:	51eb851f 	.word	0x51eb851f
    huart->Instance->BRR = UART_BRR_SAMPLING16(pclk, huart->Init.BaudRate);
 800968c:	f8d7 30fc 	ldr.w	r3, [r7, #252]	@ 0xfc
 8009690:	2200      	movs	r2, #0
 8009692:	f8c7 30a0 	str.w	r3, [r7, #160]	@ 0xa0
 8009696:	f8c7 20a4 	str.w	r2, [r7, #164]	@ 0xa4
 800969a:	e9d7 8928 	ldrd	r8, r9, [r7, #160]	@ 0xa0
 800969e:	4642      	mov	r2, r8
 80096a0:	464b      	mov	r3, r9
 80096a2:	1891      	adds	r1, r2, r2
 80096a4:	6239      	str	r1, [r7, #32]
 80096a6:	415b      	adcs	r3, r3
 80096a8:	627b      	str	r3, [r7, #36]	@ 0x24
 80096aa:	e9d7 2308 	ldrd	r2, r3, [r7, #32]
 80096ae:	4641      	mov	r1, r8
 80096b0:	1854      	adds	r4, r2, r1
 80096b2:	4649      	mov	r1, r9
 80096b4:	eb43 0501 	adc.w	r5, r3, r1
 80096b8:	f04f 0200 	mov.w	r2, #0
 80096bc:	f04f 0300 	mov.w	r3, #0
 80096c0:	00eb      	lsls	r3, r5, #3
 80096c2:	ea43 7354 	orr.w	r3, r3, r4, lsr #29
 80096c6:	00e2      	lsls	r2, r4, #3
 80096c8:	4614      	mov	r4, r2
 80096ca:	461d      	mov	r5, r3
 80096cc:	4643      	mov	r3, r8
 80096ce:	18e3      	adds	r3, r4, r3
 80096d0:	f8c7 3098 	str.w	r3, [r7, #152]	@ 0x98
 80096d4:	464b      	mov	r3, r9
 80096d6:	eb45 0303 	adc.w	r3, r5, r3
 80096da:	f8c7 309c 	str.w	r3, [r7, #156]	@ 0x9c
 80096de:	f8d7 30f4 	ldr.w	r3, [r7, #244]	@ 0xf4
 80096e2:	685b      	ldr	r3, [r3, #4]
 80096e4:	2200      	movs	r2, #0
 80096e6:	f8c7 3090 	str.w	r3, [r7, #144]	@ 0x90
 80096ea:	f8c7 2094 	str.w	r2, [r7, #148]	@ 0x94
 80096ee:	f04f 0200 	mov.w	r2, #0
 80096f2:	f04f 0300 	mov.w	r3, #0
 80096f6:	e9d7 4524 	ldrd	r4, r5, [r7, #144]	@ 0x90
 80096fa:	4629      	mov	r1, r5
 80096fc:	008b      	lsls	r3, r1, #2
 80096fe:	4621      	mov	r1, r4
 8009700:	ea43 7391 	orr.w	r3, r3, r1, lsr #30
 8009704:	4621      	mov	r1, r4
 8009706:	008a      	lsls	r2, r1, #2
 8009708:	e9d7 0126 	ldrd	r0, r1, [r7, #152]	@ 0x98
 800970c:	f7f6 fd76 	bl	80001fc <__aeabi_uldivmod>
 8009710:	4602      	mov	r2, r0
 8009712:	460b      	mov	r3, r1
 8009714:	4b60      	ldr	r3, [pc, #384]	@ (8009898 <UART_SetConfig+0x4e4>)
 8009716:	fba3 2302 	umull	r2, r3, r3, r2
 800971a:	095b      	lsrs	r3, r3, #5
 800971c:	011c      	lsls	r4, r3, #4
 800971e:	f8d7 30fc 	ldr.w	r3, [r7, #252]	@ 0xfc
 8009722:	2200      	movs	r2, #0
 8009724:	f8c7 3088 	str.w	r3, [r7, #136]	@ 0x88
 8009728:	f8c7 208c 	str.w	r2, [r7, #140]	@ 0x8c
 800972c:	e9d7 8922 	ldrd	r8, r9, [r7, #136]	@ 0x88
 8009730:	4642      	mov	r2, r8
 8009732:	464b      	mov	r3, r9
 8009734:	1891      	adds	r1, r2, r2
 8009736:	61b9      	str	r1, [r7, #24]
 8009738:	415b      	adcs	r3, r3
 800973a:	61fb      	str	r3, [r7, #28]
 800973c:	e9d7 2306 	ldrd	r2, r3, [r7, #24]
 8009740:	4641      	mov	r1, r8
 8009742:	1851      	adds	r1, r2, r1
 8009744:	6139      	str	r1, [r7, #16]
 8009746:	4649      	mov	r1, r9
 8009748:	414b      	adcs	r3, r1
 800974a:	617b      	str	r3, [r7, #20]
 800974c:	f04f 0200 	mov.w	r2, #0
 8009750:	f04f 0300 	mov.w	r3, #0
 8009754:	e9d7 ab04 	ldrd	sl, fp, [r7, #16]
 8009758:	4659      	mov	r1, fp
 800975a:	00cb      	lsls	r3, r1, #3
 800975c:	4651      	mov	r1, sl
 800975e:	ea43 7351 	orr.w	r3, r3, r1, lsr #29
 8009762:	4651      	mov	r1, sl
 8009764:	00ca      	lsls	r2, r1, #3
 8009766:	4610      	mov	r0, r2
 8009768:	4619      	mov	r1, r3
 800976a:	4603      	mov	r3, r0
 800976c:	4642      	mov	r2, r8
 800976e:	189b      	adds	r3, r3, r2
 8009770:	f8c7 3080 	str.w	r3, [r7, #128]	@ 0x80
 8009774:	464b      	mov	r3, r9
 8009776:	460a      	mov	r2, r1
 8009778:	eb42 0303 	adc.w	r3, r2, r3
 800977c:	f8c7 3084 	str.w	r3, [r7, #132]	@ 0x84
 8009780:	f8d7 30f4 	ldr.w	r3, [r7, #244]	@ 0xf4
 8009784:	685b      	ldr	r3, [r3, #4]
 8009786:	2200      	movs	r2, #0
 8009788:	67bb      	str	r3, [r7, #120]	@ 0x78
 800978a:	67fa      	str	r2, [r7, #124]	@ 0x7c
 800978c:	f04f 0200 	mov.w	r2, #0
 8009790:	f04f 0300 	mov.w	r3, #0
 8009794:	e9d7 891e 	ldrd	r8, r9, [r7, #120]	@ 0x78
 8009798:	4649      	mov	r1, r9
 800979a:	008b      	lsls	r3, r1, #2
 800979c:	4641      	mov	r1, r8
 800979e:	ea43 7391 	orr.w	r3, r3, r1, lsr #30
 80097a2:	4641      	mov	r1, r8
 80097a4:	008a      	lsls	r2, r1, #2
 80097a6:	e9d7 0120 	ldrd	r0, r1, [r7, #128]	@ 0x80
 80097aa:	f7f6 fd27 	bl	80001fc <__aeabi_uldivmod>
 80097ae:	4602      	mov	r2, r0
 80097b0:	460b      	mov	r3, r1
 80097b2:	4611      	mov	r1, r2
 80097b4:	4b38      	ldr	r3, [pc, #224]	@ (8009898 <UART_SetConfig+0x4e4>)
 80097b6:	fba3 2301 	umull	r2, r3, r3, r1
 80097ba:	095b      	lsrs	r3, r3, #5
 80097bc:	2264      	movs	r2, #100	@ 0x64
 80097be:	fb02 f303 	mul.w	r3, r2, r3
 80097c2:	1acb      	subs	r3, r1, r3
 80097c4:	011b      	lsls	r3, r3, #4
 80097c6:	3332      	adds	r3, #50	@ 0x32
 80097c8:	4a33      	ldr	r2, [pc, #204]	@ (8009898 <UART_SetConfig+0x4e4>)
 80097ca:	fba2 2303 	umull	r2, r3, r2, r3
 80097ce:	095b      	lsrs	r3, r3, #5
 80097d0:	f003 03f0 	and.w	r3, r3, #240	@ 0xf0
 80097d4:	441c      	add	r4, r3
 80097d6:	f8d7 30fc 	ldr.w	r3, [r7, #252]	@ 0xfc
 80097da:	2200      	movs	r2, #0
 80097dc:	673b      	str	r3, [r7, #112]	@ 0x70
 80097de:	677a      	str	r2, [r7, #116]	@ 0x74
 80097e0:	e9d7 891c 	ldrd	r8, r9, [r7, #112]	@ 0x70
 80097e4:	4642      	mov	r2, r8
 80097e6:	464b      	mov	r3, r9
 80097e8:	1891      	adds	r1, r2, r2
 80097ea:	60b9      	str	r1, [r7, #8]
 80097ec:	415b      	adcs	r3, r3
 80097ee:	60fb      	str	r3, [r7, #12]
 80097f0:	e9d7 2302 	ldrd	r2, r3, [r7, #8]
 80097f4:	4641      	mov	r1, r8
 80097f6:	1851      	adds	r1, r2, r1
 80097f8:	6039      	str	r1, [r7, #0]
 80097fa:	4649      	mov	r1, r9
 80097fc:	414b      	adcs	r3, r1
 80097fe:	607b      	str	r3, [r7, #4]
 8009800:	f04f 0200 	mov.w	r2, #0
 8009804:	f04f 0300 	mov.w	r3, #0
 8009808:	e9d7 ab00 	ldrd	sl, fp, [r7]
 800980c:	4659      	mov	r1, fp
 800980e:	00cb      	lsls	r3, r1, #3
 8009810:	4651      	mov	r1, sl
 8009812:	ea43 7351 	orr.w	r3, r3, r1, lsr #29
 8009816:	4651      	mov	r1, sl
 8009818:	00ca      	lsls	r2, r1, #3
 800981a:	4610      	mov	r0, r2
 800981c:	4619      	mov	r1, r3
 800981e:	4603      	mov	r3, r0
 8009820:	4642      	mov	r2, r8
 8009822:	189b      	adds	r3, r3, r2
 8009824:	66bb      	str	r3, [r7, #104]	@ 0x68
 8009826:	464b      	mov	r3, r9
 8009828:	460a      	mov	r2, r1
 800982a:	eb42 0303 	adc.w	r3, r2, r3
 800982e:	66fb      	str	r3, [r7, #108]	@ 0x6c
 8009830:	f8d7 30f4 	ldr.w	r3, [r7, #244]	@ 0xf4
 8009834:	685b      	ldr	r3, [r3, #4]
 8009836:	2200      	movs	r2, #0
 8009838:	663b      	str	r3, [r7, #96]	@ 0x60
 800983a:	667a      	str	r2, [r7, #100]	@ 0x64
 800983c:	f04f 0200 	mov.w	r2, #0
 8009840:	f04f 0300 	mov.w	r3, #0
 8009844:	e9d7 8918 	ldrd	r8, r9, [r7, #96]	@ 0x60
 8009848:	4649      	mov	r1, r9
 800984a:	008b      	lsls	r3, r1, #2
 800984c:	4641      	mov	r1, r8
 800984e:	ea43 7391 	orr.w	r3, r3, r1, lsr #30
 8009852:	4641      	mov	r1, r8
 8009854:	008a      	lsls	r2, r1, #2
 8009856:	e9d7 011a 	ldrd	r0, r1, [r7, #104]	@ 0x68
 800985a:	f7f6 fccf 	bl	80001fc <__aeabi_uldivmod>
 800985e:	4602      	mov	r2, r0
 8009860:	460b      	mov	r3, r1
 8009862:	4b0d      	ldr	r3, [pc, #52]	@ (8009898 <UART_SetConfig+0x4e4>)
 8009864:	fba3 1302 	umull	r1, r3, r3, r2
 8009868:	095b      	lsrs	r3, r3, #5
 800986a:	2164      	movs	r1, #100	@ 0x64
 800986c:	fb01 f303 	mul.w	r3, r1, r3
 8009870:	1ad3      	subs	r3, r2, r3
 8009872:	011b      	lsls	r3, r3, #4
 8009874:	3332      	adds	r3, #50	@ 0x32
 8009876:	4a08      	ldr	r2, [pc, #32]	@ (8009898 <UART_SetConfig+0x4e4>)
 8009878:	fba2 2303 	umull	r2, r3, r2, r3
 800987c:	095b      	lsrs	r3, r3, #5
 800987e:	f003 020f 	and.w	r2, r3, #15
 8009882:	f8d7 30f4 	ldr.w	r3, [r7, #244]	@ 0xf4
 8009886:	681b      	ldr	r3, [r3, #0]
 8009888:	4422      	add	r2, r4
 800988a:	609a      	str	r2, [r3, #8]
}
 800988c:	bf00      	nop
 800988e:	f507 7780 	add.w	r7, r7, #256	@ 0x100
 8009892:	46bd      	mov	sp, r7
 8009894:	e8bd 8fb0 	ldmia.w	sp!, {r4, r5, r7, r8, r9, sl, fp, pc}
 8009898:	51eb851f 	.word	0x51eb851f

0800989c <memset>:
 800989c:	4402      	add	r2, r0
 800989e:	4603      	mov	r3, r0
 80098a0:	4293      	cmp	r3, r2
 80098a2:	d100      	bne.n	80098a6 <memset+0xa>
 80098a4:	4770      	bx	lr
 80098a6:	f803 1b01 	strb.w	r1, [r3], #1
 80098aa:	e7f9      	b.n	80098a0 <memset+0x4>

080098ac <__libc_init_array>:
 80098ac:	b570      	push	{r4, r5, r6, lr}
 80098ae:	4d0d      	ldr	r5, [pc, #52]	@ (80098e4 <__libc_init_array+0x38>)
 80098b0:	4c0d      	ldr	r4, [pc, #52]	@ (80098e8 <__libc_init_array+0x3c>)
 80098b2:	1b64      	subs	r4, r4, r5
 80098b4:	10a4      	asrs	r4, r4, #2
 80098b6:	2600      	movs	r6, #0
 80098b8:	42a6      	cmp	r6, r4
 80098ba:	d109      	bne.n	80098d0 <__libc_init_array+0x24>
 80098bc:	4d0b      	ldr	r5, [pc, #44]	@ (80098ec <__libc_init_array+0x40>)
 80098be:	4c0c      	ldr	r4, [pc, #48]	@ (80098f0 <__libc_init_array+0x44>)
 80098c0:	f000 f818 	bl	80098f4 <_init>
 80098c4:	1b64      	subs	r4, r4, r5
 80098c6:	10a4      	asrs	r4, r4, #2
 80098c8:	2600      	movs	r6, #0
 80098ca:	42a6      	cmp	r6, r4
 80098cc:	d105      	bne.n	80098da <__libc_init_array+0x2e>
 80098ce:	bd70      	pop	{r4, r5, r6, pc}
 80098d0:	f855 3b04 	ldr.w	r3, [r5], #4
 80098d4:	4798      	blx	r3
 80098d6:	3601      	adds	r6, #1
 80098d8:	e7ee      	b.n	80098b8 <__libc_init_array+0xc>
 80098da:	f855 3b04 	ldr.w	r3, [r5], #4
 80098de:	4798      	blx	r3
 80098e0:	3601      	adds	r6, #1
 80098e2:	e7f2      	b.n	80098ca <__libc_init_array+0x1e>
 80098e4:	080099cc 	.word	0x080099cc
 80098e8:	080099cc 	.word	0x080099cc
 80098ec:	080099cc 	.word	0x080099cc
 80098f0:	080099d0 	.word	0x080099d0

080098f4 <_init>:
 80098f4:	b5f8      	push	{r3, r4, r5, r6, r7, lr}
 80098f6:	bf00      	nop
 80098f8:	bcf8      	pop	{r3, r4, r5, r6, r7}
 80098fa:	bc08      	pop	{r3}
 80098fc:	469e      	mov	lr, r3
 80098fe:	4770      	bx	lr

08009900 <_fini>:
 8009900:	b5f8      	push	{r3, r4, r5, r6, r7, lr}
 8009902:	bf00      	nop
 8009904:	bcf8      	pop	{r3, r4, r5, r6, r7}
 8009906:	bc08      	pop	{r3}
 8009908:	469e      	mov	lr, r3
 800990a:	4770      	bx	lr
