
AuroraV_Payload_F439.elf:     file format elf32-littlearm

Sections:
Idx Name          Size      VMA       LMA       File off  Algn
  0 .isr_vector   000001ac  08000000  08000000  00010000  2**0
                  CONTENTS, ALLOC, LOAD, READONLY, DATA
  1 .text         00009158  080001ac  080001ac  000101ac  2**2
                  CONTENTS, ALLOC, LOAD, READONLY, CODE
  2 .rodata       000000b8  08009304  08009304  00019304  2**2
                  CONTENTS, ALLOC, LOAD, READONLY, DATA
  3 .ARM.extab    00000000  080093bc  080093bc  00020028  2**0
                  CONTENTS
  4 .ARM          00000008  080093bc  080093bc  000193bc  2**2
                  CONTENTS, ALLOC, LOAD, READONLY, DATA
  5 .preinit_array 00000000  080093c4  080093c4  00020028  2**0
                  CONTENTS, ALLOC, LOAD, DATA
  6 .init_array   00000004  080093c4  080093c4  000193c4  2**2
                  CONTENTS, ALLOC, LOAD, DATA
  7 .fini_array   00000004  080093c8  080093c8  000193c8  2**2
                  CONTENTS, ALLOC, LOAD, DATA
  8 .data         00000028  20000000  080093cc  00020000  2**2
                  CONTENTS, ALLOC, LOAD, DATA
  9 .ccmram       00000000  10000000  10000000  00020028  2**0
                  CONTENTS
 10 .bss          00000608  20000028  20000028  00020028  2**2
                  ALLOC
 11 ._user_heap_stack 00000600  20000630  20000630  00020028  2**0
                  ALLOC
 12 .ARM.attributes 00000030  00000000  00000000  00020028  2**0
                  CONTENTS, READONLY
 13 .comment      00000043  00000000  00000000  00020058  2**0
                  CONTENTS, READONLY
 14 .debug_info   0001cd05  00000000  00000000  0002009b  2**0
                  CONTENTS, READONLY, DEBUGGING, OCTETS
 15 .debug_abbrev 00003ee3  00000000  00000000  0003cda0  2**0
                  CONTENTS, READONLY, DEBUGGING, OCTETS
 16 .debug_aranges 000016f0  00000000  00000000  00040c88  2**3
                  CONTENTS, READONLY, DEBUGGING, OCTETS
 17 .debug_rnglists 000011d6  00000000  00000000  00042378  2**0
                  CONTENTS, READONLY, DEBUGGING, OCTETS
 18 .debug_macro  00027dc5  00000000  00000000  0004354e  2**0
                  CONTENTS, READONLY, DEBUGGING, OCTETS
 19 .debug_line   0001d998  00000000  00000000  0006b313  2**0
                  CONTENTS, READONLY, DEBUGGING, OCTETS
 20 .debug_str    000e9ea2  00000000  00000000  00088cab  2**0
                  CONTENTS, READONLY, DEBUGGING, OCTETS
 21 .debug_frame  00005fb4  00000000  00000000  00172b50  2**2
                  CONTENTS, READONLY, DEBUGGING, OCTETS
 22 .debug_line_str 00000060  00000000  00000000  00178b04  2**0
                  CONTENTS, READONLY, DEBUGGING, OCTETS

Disassembly of section .text:

080001ac <__do_global_dtors_aux>:
 80001ac:	b510      	push	{r4, lr}
 80001ae:	4c05      	ldr	r4, [pc, #20]	; (80001c4 <__do_global_dtors_aux+0x18>)
 80001b0:	7823      	ldrb	r3, [r4, #0]
 80001b2:	b933      	cbnz	r3, 80001c2 <__do_global_dtors_aux+0x16>
 80001b4:	4b04      	ldr	r3, [pc, #16]	; (80001c8 <__do_global_dtors_aux+0x1c>)
 80001b6:	b113      	cbz	r3, 80001be <__do_global_dtors_aux+0x12>
 80001b8:	4804      	ldr	r0, [pc, #16]	; (80001cc <__do_global_dtors_aux+0x20>)
 80001ba:	f3af 8000 	nop.w
 80001be:	2301      	movs	r3, #1
 80001c0:	7023      	strb	r3, [r4, #0]
 80001c2:	bd10      	pop	{r4, pc}
 80001c4:	20000028 	.word	0x20000028
 80001c8:	00000000 	.word	0x00000000
 80001cc:	080092ec 	.word	0x080092ec

080001d0 <frame_dummy>:
 80001d0:	b508      	push	{r3, lr}
 80001d2:	4b03      	ldr	r3, [pc, #12]	; (80001e0 <frame_dummy+0x10>)
 80001d4:	b11b      	cbz	r3, 80001de <frame_dummy+0xe>
 80001d6:	4903      	ldr	r1, [pc, #12]	; (80001e4 <frame_dummy+0x14>)
 80001d8:	4803      	ldr	r0, [pc, #12]	; (80001e8 <frame_dummy+0x18>)
 80001da:	f3af 8000 	nop.w
 80001de:	bd08      	pop	{r3, pc}
 80001e0:	00000000 	.word	0x00000000
 80001e4:	2000002c 	.word	0x2000002c
 80001e8:	080092ec 	.word	0x080092ec

080001ec <strlen>:
 80001ec:	4603      	mov	r3, r0
 80001ee:	f813 2b01 	ldrb.w	r2, [r3], #1
 80001f2:	2a00      	cmp	r2, #0
 80001f4:	d1fb      	bne.n	80001ee <strlen+0x2>
 80001f6:	1a18      	subs	r0, r3, r0
 80001f8:	3801      	subs	r0, #1
 80001fa:	4770      	bx	lr

080001fc <__aeabi_uldivmod>:
 80001fc:	b953      	cbnz	r3, 8000214 <__aeabi_uldivmod+0x18>
 80001fe:	b94a      	cbnz	r2, 8000214 <__aeabi_uldivmod+0x18>
 8000200:	2900      	cmp	r1, #0
 8000202:	bf08      	it	eq
 8000204:	2800      	cmpeq	r0, #0
 8000206:	bf1c      	itt	ne
 8000208:	f04f 31ff 	movne.w	r1, #4294967295	; 0xffffffff
 800020c:	f04f 30ff 	movne.w	r0, #4294967295	; 0xffffffff
 8000210:	f000 b970 	b.w	80004f4 <__aeabi_idiv0>
 8000214:	f1ad 0c08 	sub.w	ip, sp, #8
 8000218:	e96d ce04 	strd	ip, lr, [sp, #-16]!
 800021c:	f000 f806 	bl	800022c <__udivmoddi4>
 8000220:	f8dd e004 	ldr.w	lr, [sp, #4]
 8000224:	e9dd 2302 	ldrd	r2, r3, [sp, #8]
 8000228:	b004      	add	sp, #16
 800022a:	4770      	bx	lr

0800022c <__udivmoddi4>:
 800022c:	e92d 47f0 	stmdb	sp!, {r4, r5, r6, r7, r8, r9, sl, lr}
 8000230:	9e08      	ldr	r6, [sp, #32]
 8000232:	460d      	mov	r5, r1
 8000234:	4604      	mov	r4, r0
 8000236:	460f      	mov	r7, r1
 8000238:	2b00      	cmp	r3, #0
 800023a:	d14a      	bne.n	80002d2 <__udivmoddi4+0xa6>
 800023c:	428a      	cmp	r2, r1
 800023e:	4694      	mov	ip, r2
 8000240:	d965      	bls.n	800030e <__udivmoddi4+0xe2>
 8000242:	fab2 f382 	clz	r3, r2
 8000246:	b143      	cbz	r3, 800025a <__udivmoddi4+0x2e>
 8000248:	fa02 fc03 	lsl.w	ip, r2, r3
 800024c:	f1c3 0220 	rsb	r2, r3, #32
 8000250:	409f      	lsls	r7, r3
 8000252:	fa20 f202 	lsr.w	r2, r0, r2
 8000256:	4317      	orrs	r7, r2
 8000258:	409c      	lsls	r4, r3
 800025a:	ea4f 4e1c 	mov.w	lr, ip, lsr #16
 800025e:	fa1f f58c 	uxth.w	r5, ip
 8000262:	fbb7 f1fe 	udiv	r1, r7, lr
 8000266:	0c22      	lsrs	r2, r4, #16
 8000268:	fb0e 7711 	mls	r7, lr, r1, r7
 800026c:	ea42 4207 	orr.w	r2, r2, r7, lsl #16
 8000270:	fb01 f005 	mul.w	r0, r1, r5
 8000274:	4290      	cmp	r0, r2
 8000276:	d90a      	bls.n	800028e <__udivmoddi4+0x62>
 8000278:	eb1c 0202 	adds.w	r2, ip, r2
 800027c:	f101 37ff 	add.w	r7, r1, #4294967295	; 0xffffffff
 8000280:	f080 811c 	bcs.w	80004bc <__udivmoddi4+0x290>
 8000284:	4290      	cmp	r0, r2
 8000286:	f240 8119 	bls.w	80004bc <__udivmoddi4+0x290>
 800028a:	3902      	subs	r1, #2
 800028c:	4462      	add	r2, ip
 800028e:	1a12      	subs	r2, r2, r0
 8000290:	b2a4      	uxth	r4, r4
 8000292:	fbb2 f0fe 	udiv	r0, r2, lr
 8000296:	fb0e 2210 	mls	r2, lr, r0, r2
 800029a:	ea44 4402 	orr.w	r4, r4, r2, lsl #16
 800029e:	fb00 f505 	mul.w	r5, r0, r5
 80002a2:	42a5      	cmp	r5, r4
 80002a4:	d90a      	bls.n	80002bc <__udivmoddi4+0x90>
 80002a6:	eb1c 0404 	adds.w	r4, ip, r4
 80002aa:	f100 32ff 	add.w	r2, r0, #4294967295	; 0xffffffff
 80002ae:	f080 8107 	bcs.w	80004c0 <__udivmoddi4+0x294>
 80002b2:	42a5      	cmp	r5, r4
 80002b4:	f240 8104 	bls.w	80004c0 <__udivmoddi4+0x294>
 80002b8:	4464      	add	r4, ip
 80002ba:	3802      	subs	r0, #2
 80002bc:	ea40 4001 	orr.w	r0, r0, r1, lsl #16
 80002c0:	1b64      	subs	r4, r4, r5
 80002c2:	2100      	movs	r1, #0
 80002c4:	b11e      	cbz	r6, 80002ce <__udivmoddi4+0xa2>
 80002c6:	40dc      	lsrs	r4, r3
 80002c8:	2300      	movs	r3, #0
 80002ca:	e9c6 4300 	strd	r4, r3, [r6]
 80002ce:	e8bd 87f0 	ldmia.w	sp!, {r4, r5, r6, r7, r8, r9, sl, pc}
 80002d2:	428b      	cmp	r3, r1
 80002d4:	d908      	bls.n	80002e8 <__udivmoddi4+0xbc>
 80002d6:	2e00      	cmp	r6, #0
 80002d8:	f000 80ed 	beq.w	80004b6 <__udivmoddi4+0x28a>
 80002dc:	2100      	movs	r1, #0
 80002de:	e9c6 0500 	strd	r0, r5, [r6]
 80002e2:	4608      	mov	r0, r1
 80002e4:	e8bd 87f0 	ldmia.w	sp!, {r4, r5, r6, r7, r8, r9, sl, pc}
 80002e8:	fab3 f183 	clz	r1, r3
 80002ec:	2900      	cmp	r1, #0
 80002ee:	d149      	bne.n	8000384 <__udivmoddi4+0x158>
 80002f0:	42ab      	cmp	r3, r5
 80002f2:	d302      	bcc.n	80002fa <__udivmoddi4+0xce>
 80002f4:	4282      	cmp	r2, r0
 80002f6:	f200 80f8 	bhi.w	80004ea <__udivmoddi4+0x2be>
 80002fa:	1a84      	subs	r4, r0, r2
 80002fc:	eb65 0203 	sbc.w	r2, r5, r3
 8000300:	2001      	movs	r0, #1
 8000302:	4617      	mov	r7, r2
 8000304:	2e00      	cmp	r6, #0
 8000306:	d0e2      	beq.n	80002ce <__udivmoddi4+0xa2>
 8000308:	e9c6 4700 	strd	r4, r7, [r6]
 800030c:	e7df      	b.n	80002ce <__udivmoddi4+0xa2>
 800030e:	b902      	cbnz	r2, 8000312 <__udivmoddi4+0xe6>
 8000310:	deff      	udf	#255	; 0xff
 8000312:	fab2 f382 	clz	r3, r2
 8000316:	2b00      	cmp	r3, #0
 8000318:	f040 8090 	bne.w	800043c <__udivmoddi4+0x210>
 800031c:	1a8a      	subs	r2, r1, r2
 800031e:	ea4f 471c 	mov.w	r7, ip, lsr #16
 8000322:	fa1f fe8c 	uxth.w	lr, ip
 8000326:	2101      	movs	r1, #1
 8000328:	fbb2 f5f7 	udiv	r5, r2, r7
 800032c:	fb07 2015 	mls	r0, r7, r5, r2
 8000330:	0c22      	lsrs	r2, r4, #16
 8000332:	ea42 4200 	orr.w	r2, r2, r0, lsl #16
 8000336:	fb0e f005 	mul.w	r0, lr, r5
 800033a:	4290      	cmp	r0, r2
 800033c:	d908      	bls.n	8000350 <__udivmoddi4+0x124>
 800033e:	eb1c 0202 	adds.w	r2, ip, r2
 8000342:	f105 38ff 	add.w	r8, r5, #4294967295	; 0xffffffff
 8000346:	d202      	bcs.n	800034e <__udivmoddi4+0x122>
 8000348:	4290      	cmp	r0, r2
 800034a:	f200 80cb 	bhi.w	80004e4 <__udivmoddi4+0x2b8>
 800034e:	4645      	mov	r5, r8
 8000350:	1a12      	subs	r2, r2, r0
 8000352:	b2a4      	uxth	r4, r4
 8000354:	fbb2 f0f7 	udiv	r0, r2, r7
 8000358:	fb07 2210 	mls	r2, r7, r0, r2
 800035c:	ea44 4402 	orr.w	r4, r4, r2, lsl #16
 8000360:	fb0e fe00 	mul.w	lr, lr, r0
 8000364:	45a6      	cmp	lr, r4
 8000366:	d908      	bls.n	800037a <__udivmoddi4+0x14e>
 8000368:	eb1c 0404 	adds.w	r4, ip, r4
 800036c:	f100 32ff 	add.w	r2, r0, #4294967295	; 0xffffffff
 8000370:	d202      	bcs.n	8000378 <__udivmoddi4+0x14c>
 8000372:	45a6      	cmp	lr, r4
 8000374:	f200 80bb 	bhi.w	80004ee <__udivmoddi4+0x2c2>
 8000378:	4610      	mov	r0, r2
 800037a:	eba4 040e 	sub.w	r4, r4, lr
 800037e:	ea40 4005 	orr.w	r0, r0, r5, lsl #16
 8000382:	e79f      	b.n	80002c4 <__udivmoddi4+0x98>
 8000384:	f1c1 0720 	rsb	r7, r1, #32
 8000388:	408b      	lsls	r3, r1
 800038a:	fa22 fc07 	lsr.w	ip, r2, r7
 800038e:	ea4c 0c03 	orr.w	ip, ip, r3
 8000392:	fa05 f401 	lsl.w	r4, r5, r1
 8000396:	fa20 f307 	lsr.w	r3, r0, r7
 800039a:	40fd      	lsrs	r5, r7
 800039c:	ea4f 491c 	mov.w	r9, ip, lsr #16
 80003a0:	4323      	orrs	r3, r4
 80003a2:	fbb5 f8f9 	udiv	r8, r5, r9
 80003a6:	fa1f fe8c 	uxth.w	lr, ip
 80003aa:	fb09 5518 	mls	r5, r9, r8, r5
 80003ae:	0c1c      	lsrs	r4, r3, #16
 80003b0:	ea44 4405 	orr.w	r4, r4, r5, lsl #16
 80003b4:	fb08 f50e 	mul.w	r5, r8, lr
 80003b8:	42a5      	cmp	r5, r4
 80003ba:	fa02 f201 	lsl.w	r2, r2, r1
 80003be:	fa00 f001 	lsl.w	r0, r0, r1
 80003c2:	d90b      	bls.n	80003dc <__udivmoddi4+0x1b0>
 80003c4:	eb1c 0404 	adds.w	r4, ip, r4
 80003c8:	f108 3aff 	add.w	sl, r8, #4294967295	; 0xffffffff
 80003cc:	f080 8088 	bcs.w	80004e0 <__udivmoddi4+0x2b4>
 80003d0:	42a5      	cmp	r5, r4
 80003d2:	f240 8085 	bls.w	80004e0 <__udivmoddi4+0x2b4>
 80003d6:	f1a8 0802 	sub.w	r8, r8, #2
 80003da:	4464      	add	r4, ip
 80003dc:	1b64      	subs	r4, r4, r5
 80003de:	b29d      	uxth	r5, r3
 80003e0:	fbb4 f3f9 	udiv	r3, r4, r9
 80003e4:	fb09 4413 	mls	r4, r9, r3, r4
 80003e8:	ea45 4404 	orr.w	r4, r5, r4, lsl #16
 80003ec:	fb03 fe0e 	mul.w	lr, r3, lr
 80003f0:	45a6      	cmp	lr, r4
 80003f2:	d908      	bls.n	8000406 <__udivmoddi4+0x1da>
 80003f4:	eb1c 0404 	adds.w	r4, ip, r4
 80003f8:	f103 35ff 	add.w	r5, r3, #4294967295	; 0xffffffff
 80003fc:	d26c      	bcs.n	80004d8 <__udivmoddi4+0x2ac>
 80003fe:	45a6      	cmp	lr, r4
 8000400:	d96a      	bls.n	80004d8 <__udivmoddi4+0x2ac>
 8000402:	3b02      	subs	r3, #2
 8000404:	4464      	add	r4, ip
 8000406:	ea43 4308 	orr.w	r3, r3, r8, lsl #16
 800040a:	fba3 9502 	umull	r9, r5, r3, r2
 800040e:	eba4 040e 	sub.w	r4, r4, lr
 8000412:	42ac      	cmp	r4, r5
 8000414:	46c8      	mov	r8, r9
 8000416:	46ae      	mov	lr, r5
 8000418:	d356      	bcc.n	80004c8 <__udivmoddi4+0x29c>
 800041a:	d053      	beq.n	80004c4 <__udivmoddi4+0x298>
 800041c:	b156      	cbz	r6, 8000434 <__udivmoddi4+0x208>
 800041e:	ebb0 0208 	subs.w	r2, r0, r8
 8000422:	eb64 040e 	sbc.w	r4, r4, lr
 8000426:	fa04 f707 	lsl.w	r7, r4, r7
 800042a:	40ca      	lsrs	r2, r1
 800042c:	40cc      	lsrs	r4, r1
 800042e:	4317      	orrs	r7, r2
 8000430:	e9c6 7400 	strd	r7, r4, [r6]
 8000434:	4618      	mov	r0, r3
 8000436:	2100      	movs	r1, #0
 8000438:	e8bd 87f0 	ldmia.w	sp!, {r4, r5, r6, r7, r8, r9, sl, pc}
 800043c:	f1c3 0120 	rsb	r1, r3, #32
 8000440:	fa02 fc03 	lsl.w	ip, r2, r3
 8000444:	fa20 f201 	lsr.w	r2, r0, r1
 8000448:	fa25 f101 	lsr.w	r1, r5, r1
 800044c:	409d      	lsls	r5, r3
 800044e:	432a      	orrs	r2, r5
 8000450:	ea4f 471c 	mov.w	r7, ip, lsr #16
 8000454:	fa1f fe8c 	uxth.w	lr, ip
 8000458:	fbb1 f0f7 	udiv	r0, r1, r7
 800045c:	fb07 1510 	mls	r5, r7, r0, r1
 8000460:	0c11      	lsrs	r1, r2, #16
 8000462:	ea41 4105 	orr.w	r1, r1, r5, lsl #16
 8000466:	fb00 f50e 	mul.w	r5, r0, lr
 800046a:	428d      	cmp	r5, r1
 800046c:	fa04 f403 	lsl.w	r4, r4, r3
 8000470:	d908      	bls.n	8000484 <__udivmoddi4+0x258>
 8000472:	eb1c 0101 	adds.w	r1, ip, r1
 8000476:	f100 38ff 	add.w	r8, r0, #4294967295	; 0xffffffff
 800047a:	d22f      	bcs.n	80004dc <__udivmoddi4+0x2b0>
 800047c:	428d      	cmp	r5, r1
 800047e:	d92d      	bls.n	80004dc <__udivmoddi4+0x2b0>
 8000480:	3802      	subs	r0, #2
 8000482:	4461      	add	r1, ip
 8000484:	1b49      	subs	r1, r1, r5
 8000486:	b292      	uxth	r2, r2
 8000488:	fbb1 f5f7 	udiv	r5, r1, r7
 800048c:	fb07 1115 	mls	r1, r7, r5, r1
 8000490:	ea42 4201 	orr.w	r2, r2, r1, lsl #16
 8000494:	fb05 f10e 	mul.w	r1, r5, lr
 8000498:	4291      	cmp	r1, r2
 800049a:	d908      	bls.n	80004ae <__udivmoddi4+0x282>
 800049c:	eb1c 0202 	adds.w	r2, ip, r2
 80004a0:	f105 38ff 	add.w	r8, r5, #4294967295	; 0xffffffff
 80004a4:	d216      	bcs.n	80004d4 <__udivmoddi4+0x2a8>
 80004a6:	4291      	cmp	r1, r2
 80004a8:	d914      	bls.n	80004d4 <__udivmoddi4+0x2a8>
 80004aa:	3d02      	subs	r5, #2
 80004ac:	4462      	add	r2, ip
 80004ae:	1a52      	subs	r2, r2, r1
 80004b0:	ea45 4100 	orr.w	r1, r5, r0, lsl #16
 80004b4:	e738      	b.n	8000328 <__udivmoddi4+0xfc>
 80004b6:	4631      	mov	r1, r6
 80004b8:	4630      	mov	r0, r6
 80004ba:	e708      	b.n	80002ce <__udivmoddi4+0xa2>
 80004bc:	4639      	mov	r1, r7
 80004be:	e6e6      	b.n	800028e <__udivmoddi4+0x62>
 80004c0:	4610      	mov	r0, r2
 80004c2:	e6fb      	b.n	80002bc <__udivmoddi4+0x90>
 80004c4:	4548      	cmp	r0, r9
 80004c6:	d2a9      	bcs.n	800041c <__udivmoddi4+0x1f0>
 80004c8:	ebb9 0802 	subs.w	r8, r9, r2
 80004cc:	eb65 0e0c 	sbc.w	lr, r5, ip
 80004d0:	3b01      	subs	r3, #1
 80004d2:	e7a3      	b.n	800041c <__udivmoddi4+0x1f0>
 80004d4:	4645      	mov	r5, r8
 80004d6:	e7ea      	b.n	80004ae <__udivmoddi4+0x282>
 80004d8:	462b      	mov	r3, r5
 80004da:	e794      	b.n	8000406 <__udivmoddi4+0x1da>
 80004dc:	4640      	mov	r0, r8
 80004de:	e7d1      	b.n	8000484 <__udivmoddi4+0x258>
 80004e0:	46d0      	mov	r8, sl
 80004e2:	e77b      	b.n	80003dc <__udivmoddi4+0x1b0>
 80004e4:	3d02      	subs	r5, #2
 80004e6:	4462      	add	r2, ip
 80004e8:	e732      	b.n	8000350 <__udivmoddi4+0x124>
 80004ea:	4608      	mov	r0, r1
 80004ec:	e70a      	b.n	8000304 <__udivmoddi4+0xd8>
 80004ee:	4464      	add	r4, ip
 80004f0:	3802      	subs	r0, #2
 80004f2:	e742      	b.n	800037a <__udivmoddi4+0x14e>

080004f4 <__aeabi_idiv0>:
 80004f4:	4770      	bx	lr
 80004f6:	bf00      	nop

080004f8 <init_accel>:
uint8_t OUT_Y_L 				= 0x34;
uint8_t OUT_Y_H 				= 0x35;
uint8_t OUT_Z_L 				= 0x36;
uint8_t OUT_Z_H 				= 0x37;

HAL_StatusTypeDef init_accel(I2C_HandleTypeDef* hi2c) {
 80004f8:	b580      	push	{r7, lr}
 80004fa:	b084      	sub	sp, #16
 80004fc:	af00      	add	r7, sp, #0
 80004fe:	6078      	str	r0, [r7, #4]
	HAL_StatusTypeDef ret;

	// Set standby mode
	ret = i2c_write_reg(hi2c, ADXL314_ADDR, &POWER_CTL_REG, 0x00);
 8000500:	4b14      	ldr	r3, [pc, #80]	; (8000554 <init_accel+0x5c>)
 8000502:	7819      	ldrb	r1, [r3, #0]
 8000504:	2300      	movs	r3, #0
 8000506:	4a14      	ldr	r2, [pc, #80]	; (8000558 <init_accel+0x60>)
 8000508:	6878      	ldr	r0, [r7, #4]
 800050a:	f000 fbe8 	bl	8000cde <i2c_write_reg>
 800050e:	4603      	mov	r3, r0
 8000510:	73fb      	strb	r3, [r7, #15]

	// Set to 200G right justified
	ret = i2c_write_reg(hi2c, ADXL314_ADDR, &DATA_FORMAT_REG, RIGHT_JUST);
 8000512:	4b10      	ldr	r3, [pc, #64]	; (8000554 <init_accel+0x5c>)
 8000514:	7819      	ldrb	r1, [r3, #0]
 8000516:	230b      	movs	r3, #11
 8000518:	4a10      	ldr	r2, [pc, #64]	; (800055c <init_accel+0x64>)
 800051a:	6878      	ldr	r0, [r7, #4]
 800051c:	f000 fbdf 	bl	8000cde <i2c_write_reg>
 8000520:	4603      	mov	r3, r0
 8000522:	73fb      	strb	r3, [r7, #15]

	// Set to 1kHz ODR
	ret = i2c_write_reg(hi2c, ADXL314_ADDR, &BW_RATE_REG, MASK_1kHz);
 8000524:	4b0b      	ldr	r3, [pc, #44]	; (8000554 <init_accel+0x5c>)
 8000526:	7819      	ldrb	r1, [r3, #0]
 8000528:	230a      	movs	r3, #10
 800052a:	4a0d      	ldr	r2, [pc, #52]	; (8000560 <init_accel+0x68>)
 800052c:	6878      	ldr	r0, [r7, #4]
 800052e:	f000 fbd6 	bl	8000cde <i2c_write_reg>
 8000532:	4603      	mov	r3, r0
 8000534:	73fb      	strb	r3, [r7, #15]

	// Write the offset registers
//	ret = writeOffset(hi2c);

	// Start measuring
	ret = i2c_write_reg(hi2c, ADXL314_ADDR, &POWER_CTL_REG, START_MEAS);
 8000536:	4b07      	ldr	r3, [pc, #28]	; (8000554 <init_accel+0x5c>)
 8000538:	7819      	ldrb	r1, [r3, #0]
 800053a:	2308      	movs	r3, #8
 800053c:	4a06      	ldr	r2, [pc, #24]	; (8000558 <init_accel+0x60>)
 800053e:	6878      	ldr	r0, [r7, #4]
 8000540:	f000 fbcd 	bl	8000cde <i2c_write_reg>
 8000544:	4603      	mov	r3, r0
 8000546:	73fb      	strb	r3, [r7, #15]

	return ret;
 8000548:	7bfb      	ldrb	r3, [r7, #15]
}
 800054a:	4618      	mov	r0, r3
 800054c:	3710      	adds	r7, #16
 800054e:	46bd      	mov	sp, r7
 8000550:	bd80      	pop	{r7, pc}
 8000552:	bf00      	nop
 8000554:	20000000 	.word	0x20000000
 8000558:	20000002 	.word	0x20000002
 800055c:	20000003 	.word	0x20000003
 8000560:	20000001 	.word	0x20000001

08000564 <readAccelerometer>:
void readAccelerometer(uint8_t values[6], I2C_HandleTypeDef* hi2c) {
 8000564:	b580      	push	{r7, lr}
 8000566:	b086      	sub	sp, #24
 8000568:	af02      	add	r7, sp, #8
 800056a:	6078      	str	r0, [r7, #4]
 800056c:	6039      	str	r1, [r7, #0]
	for (uint8_t i = 0; i < 6; i++) {
 800056e:	2300      	movs	r3, #0
 8000570:	73fb      	strb	r3, [r7, #15]
 8000572:	e007      	b.n	8000584 <readAccelerometer+0x20>
		values[i] = 0x00;
 8000574:	7bfb      	ldrb	r3, [r7, #15]
 8000576:	687a      	ldr	r2, [r7, #4]
 8000578:	4413      	add	r3, r2
 800057a:	2200      	movs	r2, #0
 800057c:	701a      	strb	r2, [r3, #0]
	for (uint8_t i = 0; i < 6; i++) {
 800057e:	7bfb      	ldrb	r3, [r7, #15]
 8000580:	3301      	adds	r3, #1
 8000582:	73fb      	strb	r3, [r7, #15]
 8000584:	7bfb      	ldrb	r3, [r7, #15]
 8000586:	2b05      	cmp	r3, #5
 8000588:	d9f4      	bls.n	8000574 <readAccelerometer+0x10>
	}

	i2c_burst_read(hi2c, ADXL314_ADDR, OUT_X_L, 6, values);
 800058a:	4b07      	ldr	r3, [pc, #28]	; (80005a8 <readAccelerometer+0x44>)
 800058c:	7819      	ldrb	r1, [r3, #0]
 800058e:	4b07      	ldr	r3, [pc, #28]	; (80005ac <readAccelerometer+0x48>)
 8000590:	781a      	ldrb	r2, [r3, #0]
 8000592:	687b      	ldr	r3, [r7, #4]
 8000594:	9300      	str	r3, [sp, #0]
 8000596:	2306      	movs	r3, #6
 8000598:	6838      	ldr	r0, [r7, #0]
 800059a:	f000 fb6b 	bl	8000c74 <i2c_burst_read>
}
 800059e:	bf00      	nop
 80005a0:	3710      	adds	r7, #16
 80005a2:	46bd      	mov	sp, r7
 80005a4:	bd80      	pop	{r7, pc}
 80005a6:	bf00      	nop
 80005a8:	20000000 	.word	0x20000000
 80005ac:	20000004 	.word	0x20000004

080005b0 <readAccel_whoami>:

uint8_t readAccel_whoami(I2C_HandleTypeDef* hi2c) {
 80005b0:	b580      	push	{r7, lr}
 80005b2:	b084      	sub	sp, #16
 80005b4:	af00      	add	r7, sp, #0
 80005b6:	6078      	str	r0, [r7, #4]
	uint8_t data = 0x00;
 80005b8:	2300      	movs	r3, #0
 80005ba:	73fb      	strb	r3, [r7, #15]
	i2c_read_reg(hi2c, &data, ADXL314_ADDR, &WHOAMI);
 80005bc:	4b06      	ldr	r3, [pc, #24]	; (80005d8 <readAccel_whoami+0x28>)
 80005be:	781a      	ldrb	r2, [r3, #0]
 80005c0:	f107 010f 	add.w	r1, r7, #15
 80005c4:	4b05      	ldr	r3, [pc, #20]	; (80005dc <readAccel_whoami+0x2c>)
 80005c6:	6878      	ldr	r0, [r7, #4]
 80005c8:	f000 fb2b 	bl	8000c22 <i2c_read_reg>

	return data;
 80005cc:	7bfb      	ldrb	r3, [r7, #15]
}
 80005ce:	4618      	mov	r0, r3
 80005d0:	3710      	adds	r7, #16
 80005d2:	46bd      	mov	sp, r7
 80005d4:	bd80      	pop	{r7, pc}
 80005d6:	bf00      	nop
 80005d8:	20000000 	.word	0x20000000
 80005dc:	20000044 	.word	0x20000044

080005e0 <init_bme280>:
uint8_t OUT_HUM_H 			= 0xFD;
uint8_t CALIB_ST_1			= 0x88;
uint8_t CALIB_ST_2			= 0xE1;


HAL_StatusTypeDef init_bme280(I2C_HandleTypeDef* hi2c, uint8_t bme) {
 80005e0:	b580      	push	{r7, lr}
 80005e2:	b084      	sub	sp, #16
 80005e4:	af00      	add	r7, sp, #0
 80005e6:	6078      	str	r0, [r7, #4]
 80005e8:	460b      	mov	r3, r1
 80005ea:	70fb      	strb	r3, [r7, #3]
	uint8_t bme_addr = getBME280Config(bme).bme_addr;
 80005ec:	78fb      	ldrb	r3, [r7, #3]
 80005ee:	4618      	mov	r0, r3
 80005f0:	f000 f8e0 	bl	80007b4 <getBME280Config>
 80005f4:	4603      	mov	r3, r0
 80005f6:	73fb      	strb	r3, [r7, #15]
	HAL_StatusTypeDef ret;
	uint8_t control_reg = 0x00;
 80005f8:	2300      	movs	r3, #0
 80005fa:	737b      	strb	r3, [r7, #13]

	// Reset the sensor
	ret =  i2c_write_reg(hi2c, bme_addr, &RST_REG, RST);
 80005fc:	7bf9      	ldrb	r1, [r7, #15]
 80005fe:	23b6      	movs	r3, #182	; 0xb6
 8000600:	4a19      	ldr	r2, [pc, #100]	; (8000668 <init_bme280+0x88>)
 8000602:	6878      	ldr	r0, [r7, #4]
 8000604:	f000 fb6b 	bl	8000cde <i2c_write_reg>
 8000608:	4603      	mov	r3, r0
 800060a:	73bb      	strb	r3, [r7, #14]

	// Set humidity control register
	i2c_read_reg(hi2c, &control_reg, bme_addr, &CTRL_HUM_REG);
 800060c:	7bfa      	ldrb	r2, [r7, #15]
 800060e:	f107 010d 	add.w	r1, r7, #13
 8000612:	4b16      	ldr	r3, [pc, #88]	; (800066c <init_bme280+0x8c>)
 8000614:	6878      	ldr	r0, [r7, #4]
 8000616:	f000 fb04 	bl	8000c22 <i2c_read_reg>
	control_reg = control_reg & 0xF8;
 800061a:	7b7b      	ldrb	r3, [r7, #13]
 800061c:	f023 0307 	bic.w	r3, r3, #7
 8000620:	b2db      	uxtb	r3, r3
 8000622:	737b      	strb	r3, [r7, #13]
	control_reg = control_reg | CTRL_HUM_MSK;
 8000624:	7b7b      	ldrb	r3, [r7, #13]
 8000626:	f043 0301 	orr.w	r3, r3, #1
 800062a:	b2db      	uxtb	r3, r3
 800062c:	737b      	strb	r3, [r7, #13]
	ret = i2c_write_reg(hi2c, bme_addr, &CTRL_HUM_REG, control_reg);
 800062e:	7b7b      	ldrb	r3, [r7, #13]
 8000630:	7bf9      	ldrb	r1, [r7, #15]
 8000632:	4a0e      	ldr	r2, [pc, #56]	; (800066c <init_bme280+0x8c>)
 8000634:	6878      	ldr	r0, [r7, #4]
 8000636:	f000 fb52 	bl	8000cde <i2c_write_reg>
 800063a:	4603      	mov	r3, r0
 800063c:	73bb      	strb	r3, [r7, #14]

	// Set measure control register
	ret = i2c_write_reg(hi2c, bme_addr, &CTRL_MEAS_REG, CTRL_MEAS_MSK);
 800063e:	7bf9      	ldrb	r1, [r7, #15]
 8000640:	2327      	movs	r3, #39	; 0x27
 8000642:	4a0b      	ldr	r2, [pc, #44]	; (8000670 <init_bme280+0x90>)
 8000644:	6878      	ldr	r0, [r7, #4]
 8000646:	f000 fb4a 	bl	8000cde <i2c_write_reg>
 800064a:	4603      	mov	r3, r0
 800064c:	73bb      	strb	r3, [r7, #14]

	// Set the config register
	ret = i2c_write_reg(hi2c, bme_addr, &CONF_REG, CONF_MSK);
 800064e:	7bf9      	ldrb	r1, [r7, #15]
 8000650:	2300      	movs	r3, #0
 8000652:	4a08      	ldr	r2, [pc, #32]	; (8000674 <init_bme280+0x94>)
 8000654:	6878      	ldr	r0, [r7, #4]
 8000656:	f000 fb42 	bl	8000cde <i2c_write_reg>
 800065a:	4603      	mov	r3, r0
 800065c:	73bb      	strb	r3, [r7, #14]

	return ret;
 800065e:	7bbb      	ldrb	r3, [r7, #14]
}
 8000660:	4618      	mov	r0, r3
 8000662:	3710      	adds	r7, #16
 8000664:	46bd      	mov	sp, r7
 8000666:	bd80      	pop	{r7, pc}
 8000668:	20000006 	.word	0x20000006
 800066c:	20000007 	.word	0x20000007
 8000670:	20000008 	.word	0x20000008
 8000674:	20000009 	.word	0x20000009

08000678 <readTempHumPres>:

void readTempHumPres(uint8_t values[6], I2C_HandleTypeDef* hi2c, uint8_t bme) {
 8000678:	b580      	push	{r7, lr}
 800067a:	b08a      	sub	sp, #40	; 0x28
 800067c:	af02      	add	r7, sp, #8
 800067e:	60f8      	str	r0, [r7, #12]
 8000680:	60b9      	str	r1, [r7, #8]
 8000682:	4613      	mov	r3, r2
 8000684:	71fb      	strb	r3, [r7, #7]
	uint8_t readings[8] = {0, 0, 0, 0, 0, 0, 0, 0};
 8000686:	4a27      	ldr	r2, [pc, #156]	; (8000724 <readTempHumPres+0xac>)
 8000688:	f107 0314 	add.w	r3, r7, #20
 800068c:	e892 0003 	ldmia.w	r2, {r0, r1}
 8000690:	e883 0003 	stmia.w	r3, {r0, r1}
	uint8_t bme_addr = getBME280Config(bme).bme_addr;
 8000694:	79fb      	ldrb	r3, [r7, #7]
 8000696:	4618      	mov	r0, r3
 8000698:	f000 f88c 	bl	80007b4 <getBME280Config>
 800069c:	4603      	mov	r3, r0
 800069e:	777b      	strb	r3, [r7, #29]
	i2c_burst_read(hi2c, bme_addr, OUT_PRESS_H, 8, readings);
 80006a0:	4b21      	ldr	r3, [pc, #132]	; (8000728 <readTempHumPres+0xb0>)
 80006a2:	781a      	ldrb	r2, [r3, #0]
 80006a4:	7f79      	ldrb	r1, [r7, #29]
 80006a6:	f107 0314 	add.w	r3, r7, #20
 80006aa:	9300      	str	r3, [sp, #0]
 80006ac:	2308      	movs	r3, #8
 80006ae:	68b8      	ldr	r0, [r7, #8]
 80006b0:	f000 fae0 	bl	8000c74 <i2c_burst_read>

	// Clear the 0 values on the xlsb registers
	uint8_t j = 0;
 80006b4:	2300      	movs	r3, #0
 80006b6:	77fb      	strb	r3, [r7, #31]
    for(uint8_t i = 0; i < 8; i++) {
 80006b8:	2300      	movs	r3, #0
 80006ba:	77bb      	strb	r3, [r7, #30]
 80006bc:	e014      	b.n	80006e8 <readTempHumPres+0x70>
        if(i != 2 && i != 5) {  // if the index is not 2 or 5
 80006be:	7fbb      	ldrb	r3, [r7, #30]
 80006c0:	2b02      	cmp	r3, #2
 80006c2:	d00e      	beq.n	80006e2 <readTempHumPres+0x6a>
 80006c4:	7fbb      	ldrb	r3, [r7, #30]
 80006c6:	2b05      	cmp	r3, #5
 80006c8:	d00b      	beq.n	80006e2 <readTempHumPres+0x6a>
        	values[j] = readings[i];
 80006ca:	7fba      	ldrb	r2, [r7, #30]
 80006cc:	7ffb      	ldrb	r3, [r7, #31]
 80006ce:	68f9      	ldr	r1, [r7, #12]
 80006d0:	440b      	add	r3, r1
 80006d2:	3220      	adds	r2, #32
 80006d4:	443a      	add	r2, r7
 80006d6:	f812 2c0c 	ldrb.w	r2, [r2, #-12]
 80006da:	701a      	strb	r2, [r3, #0]
            j++;
 80006dc:	7ffb      	ldrb	r3, [r7, #31]
 80006de:	3301      	adds	r3, #1
 80006e0:	77fb      	strb	r3, [r7, #31]
    for(uint8_t i = 0; i < 8; i++) {
 80006e2:	7fbb      	ldrb	r3, [r7, #30]
 80006e4:	3301      	adds	r3, #1
 80006e6:	77bb      	strb	r3, [r7, #30]
 80006e8:	7fbb      	ldrb	r3, [r7, #30]
 80006ea:	2b07      	cmp	r3, #7
 80006ec:	d9e7      	bls.n	80006be <readTempHumPres+0x46>
        }
    }

    // Swap elements to make the array little endian
    swap(&values[0], &values[1]);
 80006ee:	68fb      	ldr	r3, [r7, #12]
 80006f0:	3301      	adds	r3, #1
 80006f2:	4619      	mov	r1, r3
 80006f4:	68f8      	ldr	r0, [r7, #12]
 80006f6:	f000 f874 	bl	80007e2 <swap>
    swap(&values[2], &values[3]);
 80006fa:	68fb      	ldr	r3, [r7, #12]
 80006fc:	1c9a      	adds	r2, r3, #2
 80006fe:	68fb      	ldr	r3, [r7, #12]
 8000700:	3303      	adds	r3, #3
 8000702:	4619      	mov	r1, r3
 8000704:	4610      	mov	r0, r2
 8000706:	f000 f86c 	bl	80007e2 <swap>
    swap(&values[4], &values[5]);
 800070a:	68fb      	ldr	r3, [r7, #12]
 800070c:	1d1a      	adds	r2, r3, #4
 800070e:	68fb      	ldr	r3, [r7, #12]
 8000710:	3305      	adds	r3, #5
 8000712:	4619      	mov	r1, r3
 8000714:	4610      	mov	r0, r2
 8000716:	f000 f864 	bl	80007e2 <swap>
}
 800071a:	bf00      	nop
 800071c:	3720      	adds	r7, #32
 800071e:	46bd      	mov	sp, r7
 8000720:	bd80      	pop	{r7, pc}
 8000722:	bf00      	nop
 8000724:	08009304 	.word	0x08009304
 8000728:	2000000a 	.word	0x2000000a

0800072c <readBME280_id_reg>:

uint8_t readBME280_id_reg(I2C_HandleTypeDef* hi2c, uint8_t bme) {
 800072c:	b580      	push	{r7, lr}
 800072e:	b084      	sub	sp, #16
 8000730:	af00      	add	r7, sp, #0
 8000732:	6078      	str	r0, [r7, #4]
 8000734:	460b      	mov	r3, r1
 8000736:	70fb      	strb	r3, [r7, #3]
	uint8_t bme_addr = getBME280Config(bme).bme_addr;
 8000738:	78fb      	ldrb	r3, [r7, #3]
 800073a:	4618      	mov	r0, r3
 800073c:	f000 f83a 	bl	80007b4 <getBME280Config>
 8000740:	4603      	mov	r3, r0
 8000742:	73fb      	strb	r3, [r7, #15]
	uint8_t data = 0x00;
 8000744:	2300      	movs	r3, #0
 8000746:	73bb      	strb	r3, [r7, #14]
	i2c_read_reg(hi2c, &data, bme_addr, &ID_REG);
 8000748:	7bfa      	ldrb	r2, [r7, #15]
 800074a:	f107 010e 	add.w	r1, r7, #14
 800074e:	4b04      	ldr	r3, [pc, #16]	; (8000760 <readBME280_id_reg+0x34>)
 8000750:	6878      	ldr	r0, [r7, #4]
 8000752:	f000 fa66 	bl	8000c22 <i2c_read_reg>

	return data;
 8000756:	7bbb      	ldrb	r3, [r7, #14]
}
 8000758:	4618      	mov	r0, r3
 800075a:	3710      	adds	r7, #16
 800075c:	46bd      	mov	sp, r7
 800075e:	bd80      	pop	{r7, pc}
 8000760:	20000005 	.word	0x20000005

08000764 <readBME280_calib>:

void readBME280_calib(I2C_HandleTypeDef* hi2c, uint8_t bme, uint8_t calibration1[CALIB_CNT_1], uint8_t calibration2[CALIB_CNT_2]) {
 8000764:	b580      	push	{r7, lr}
 8000766:	b088      	sub	sp, #32
 8000768:	af02      	add	r7, sp, #8
 800076a:	60f8      	str	r0, [r7, #12]
 800076c:	607a      	str	r2, [r7, #4]
 800076e:	603b      	str	r3, [r7, #0]
 8000770:	460b      	mov	r3, r1
 8000772:	72fb      	strb	r3, [r7, #11]
	uint8_t bme_addr = getBME280Config(bme).bme_addr;
 8000774:	7afb      	ldrb	r3, [r7, #11]
 8000776:	4618      	mov	r0, r3
 8000778:	f000 f81c 	bl	80007b4 <getBME280Config>
 800077c:	4603      	mov	r3, r0
 800077e:	75fb      	strb	r3, [r7, #23]
	i2c_burst_read(hi2c, bme_addr, CALIB_ST_1, CALIB_CNT_1, calibration1);
 8000780:	4b0a      	ldr	r3, [pc, #40]	; (80007ac <readBME280_calib+0x48>)
 8000782:	781a      	ldrb	r2, [r3, #0]
 8000784:	7df9      	ldrb	r1, [r7, #23]
 8000786:	687b      	ldr	r3, [r7, #4]
 8000788:	9300      	str	r3, [sp, #0]
 800078a:	2319      	movs	r3, #25
 800078c:	68f8      	ldr	r0, [r7, #12]
 800078e:	f000 fa71 	bl	8000c74 <i2c_burst_read>
	i2c_burst_read(hi2c, bme_addr, CALIB_ST_2, CALIB_CNT_2, calibration2);
 8000792:	4b07      	ldr	r3, [pc, #28]	; (80007b0 <readBME280_calib+0x4c>)
 8000794:	781a      	ldrb	r2, [r3, #0]
 8000796:	7df9      	ldrb	r1, [r7, #23]
 8000798:	683b      	ldr	r3, [r7, #0]
 800079a:	9300      	str	r3, [sp, #0]
 800079c:	2307      	movs	r3, #7
 800079e:	68f8      	ldr	r0, [r7, #12]
 80007a0:	f000 fa68 	bl	8000c74 <i2c_burst_read>
}
 80007a4:	bf00      	nop
 80007a6:	3718      	adds	r7, #24
 80007a8:	46bd      	mov	sp, r7
 80007aa:	bd80      	pop	{r7, pc}
 80007ac:	2000000b 	.word	0x2000000b
 80007b0:	2000000c 	.word	0x2000000c

080007b4 <getBME280Config>:

BME280_Config getBME280Config(uint8_t bme) {
 80007b4:	b480      	push	{r7}
 80007b6:	b085      	sub	sp, #20
 80007b8:	af00      	add	r7, sp, #0
 80007ba:	4603      	mov	r3, r0
 80007bc:	71fb      	strb	r3, [r7, #7]
	BME280_Config config;
	if (bme == 0) {
 80007be:	79fb      	ldrb	r3, [r7, #7]
 80007c0:	2b00      	cmp	r3, #0
 80007c2:	d102      	bne.n	80007ca <getBME280Config+0x16>
		config.bme_addr = BME280_ADDR_0;
 80007c4:	2376      	movs	r3, #118	; 0x76
 80007c6:	733b      	strb	r3, [r7, #12]
 80007c8:	e004      	b.n	80007d4 <getBME280Config+0x20>
	} else if (bme == 1) {
 80007ca:	79fb      	ldrb	r3, [r7, #7]
 80007cc:	2b01      	cmp	r3, #1
 80007ce:	d101      	bne.n	80007d4 <getBME280Config+0x20>
		config.bme_addr = BME280_ADDR_1;
 80007d0:	2377      	movs	r3, #119	; 0x77
 80007d2:	733b      	strb	r3, [r7, #12]
	}
    return config;
 80007d4:	7b3b      	ldrb	r3, [r7, #12]
}
 80007d6:	4618      	mov	r0, r3
 80007d8:	3714      	adds	r7, #20
 80007da:	46bd      	mov	sp, r7
 80007dc:	f85d 7b04 	ldr.w	r7, [sp], #4
 80007e0:	4770      	bx	lr

080007e2 <swap>:

void swap(uint8_t* a, uint8_t* b) {
 80007e2:	b480      	push	{r7}
 80007e4:	b085      	sub	sp, #20
 80007e6:	af00      	add	r7, sp, #0
 80007e8:	6078      	str	r0, [r7, #4]
 80007ea:	6039      	str	r1, [r7, #0]
    uint8_t temp = *a;
 80007ec:	687b      	ldr	r3, [r7, #4]
 80007ee:	781b      	ldrb	r3, [r3, #0]
 80007f0:	73fb      	strb	r3, [r7, #15]
    *a = *b;
 80007f2:	683b      	ldr	r3, [r7, #0]
 80007f4:	781a      	ldrb	r2, [r3, #0]
 80007f6:	687b      	ldr	r3, [r7, #4]
 80007f8:	701a      	strb	r2, [r3, #0]
    *b = temp;
 80007fa:	683b      	ldr	r3, [r7, #0]
 80007fc:	7bfa      	ldrb	r2, [r7, #15]
 80007fe:	701a      	strb	r2, [r3, #0]
}
 8000800:	bf00      	nop
 8000802:	3714      	adds	r7, #20
 8000804:	46bd      	mov	sp, r7
 8000806:	f85d 7b04 	ldr.w	r7, [sp], #4
 800080a:	4770      	bx	lr

0800080c <sendCAN_TxMessage>:
 */

#include "can_driver.h"


void sendCAN_TxMessage(CAN_HandleTypeDef *hcan, uint8_t dataSize, uint8_t TxData[dataSize], uint32_t *CAN_TxMailbox, uint16_t payload_id) {
 800080c:	b580      	push	{r7, lr}
 800080e:	b08a      	sub	sp, #40	; 0x28
 8000810:	af00      	add	r7, sp, #0
 8000812:	60f8      	str	r0, [r7, #12]
 8000814:	607a      	str	r2, [r7, #4]
 8000816:	603b      	str	r3, [r7, #0]
 8000818:	460b      	mov	r3, r1
 800081a:	72fb      	strb	r3, [r7, #11]
	CAN_TxHeaderTypeDef TxHeader = configureTxHeader(payload_id, dataSize);
 800081c:	f107 0310 	add.w	r3, r7, #16
 8000820:	7afa      	ldrb	r2, [r7, #11]
 8000822:	8e39      	ldrh	r1, [r7, #48]	; 0x30
 8000824:	4618      	mov	r0, r3
 8000826:	f000 f80b 	bl	8000840 <configureTxHeader>
	HAL_CAN_AddTxMessage(hcan, &TxHeader, TxData, CAN_TxMailbox);
 800082a:	f107 0110 	add.w	r1, r7, #16
 800082e:	683b      	ldr	r3, [r7, #0]
 8000830:	687a      	ldr	r2, [r7, #4]
 8000832:	68f8      	ldr	r0, [r7, #12]
 8000834:	f002 fdae 	bl	8003394 <HAL_CAN_AddTxMessage>
}
 8000838:	bf00      	nop
 800083a:	3728      	adds	r7, #40	; 0x28
 800083c:	46bd      	mov	sp, r7
 800083e:	bd80      	pop	{r7, pc}

08000840 <configureTxHeader>:

CAN_TxHeaderTypeDef configureTxHeader(uint16_t payload_id, uint8_t dataSize) {
 8000840:	b4b0      	push	{r4, r5, r7}
 8000842:	b089      	sub	sp, #36	; 0x24
 8000844:	af00      	add	r7, sp, #0
 8000846:	6078      	str	r0, [r7, #4]
 8000848:	460b      	mov	r3, r1
 800084a:	807b      	strh	r3, [r7, #2]
 800084c:	4613      	mov	r3, r2
 800084e:	707b      	strb	r3, [r7, #1]
	CAN_TxHeaderTypeDef TxHeader;
	TxHeader.DLC = dataSize;
 8000850:	787b      	ldrb	r3, [r7, #1]
 8000852:	61bb      	str	r3, [r7, #24]
	TxHeader.IDE = CAN_ID_STD;
 8000854:	2300      	movs	r3, #0
 8000856:	613b      	str	r3, [r7, #16]
	TxHeader.RTR = CAN_RTR_DATA;
 8000858:	2300      	movs	r3, #0
 800085a:	617b      	str	r3, [r7, #20]
	TxHeader.StdId = payload_id;
 800085c:	887b      	ldrh	r3, [r7, #2]
 800085e:	60bb      	str	r3, [r7, #8]
	TxHeader.TransmitGlobalTime = DISABLE;
 8000860:	2300      	movs	r3, #0
 8000862:	773b      	strb	r3, [r7, #28]
	return TxHeader;
 8000864:	687b      	ldr	r3, [r7, #4]
 8000866:	461d      	mov	r5, r3
 8000868:	f107 0408 	add.w	r4, r7, #8
 800086c:	cc0f      	ldmia	r4!, {r0, r1, r2, r3}
 800086e:	c50f      	stmia	r5!, {r0, r1, r2, r3}
 8000870:	e894 0003 	ldmia.w	r4, {r0, r1}
 8000874:	e885 0003 	stmia.w	r5, {r0, r1}
}
 8000878:	6878      	ldr	r0, [r7, #4]
 800087a:	3724      	adds	r7, #36	; 0x24
 800087c:	46bd      	mov	sp, r7
 800087e:	bcb0      	pop	{r4, r5, r7}
 8000880:	4770      	bx	lr

08000882 <check_busy>:
uint8_t FLASH_32K_ERS	= 0x52;			// Erase all memory within a 32K-byte block
uint8_t FLASH_ERASE		= 0xC7;			// Erase the entire chip
uint8_t RST_EN			= 0x66;			// Reset enable
uint8_t DEV_RST			= 0x99;			// Reset device

uint8_t check_busy(SPI_HandleTypeDef *hspi, GPIO_Config config, int timeout) {
 8000882:	b580      	push	{r7, lr}
 8000884:	b088      	sub	sp, #32
 8000886:	af00      	add	r7, sp, #0
 8000888:	60f8      	str	r0, [r7, #12]
 800088a:	1d38      	adds	r0, r7, #4
 800088c:	e880 0006 	stmia.w	r0, {r1, r2}
 8000890:	603b      	str	r3, [r7, #0]
	uint8_t ret_val = 0x00;
 8000892:	2300      	movs	r3, #0
 8000894:	77fb      	strb	r3, [r7, #31]

    // Get the current time
	uint32_t startTick = HAL_GetTick();
 8000896:	f002 fb2d 	bl	8002ef4 <HAL_GetTick>
 800089a:	61b8      	str	r0, [r7, #24]

	// Read the status register to ensure no write is currently in progress
	uint8_t busy = 0x01;
 800089c:	2301      	movs	r3, #1
 800089e:	77bb      	strb	r3, [r7, #30]
	while(busy) {
 80008a0:	e015      	b.n	80008ce <check_busy+0x4c>
		// Check if there is a write in progress
		busy = (check_status_register(hspi, config) & 0x01);
 80008a2:	1d3b      	adds	r3, r7, #4
 80008a4:	e893 0006 	ldmia.w	r3, {r1, r2}
 80008a8:	68f8      	ldr	r0, [r7, #12]
 80008aa:	f000 f819 	bl	80008e0 <check_status_register>
 80008ae:	4603      	mov	r3, r0
 80008b0:	f003 0301 	and.w	r3, r3, #1
 80008b4:	77bb      	strb	r3, [r7, #30]

		uint32_t currTick = HAL_GetTick();
 80008b6:	f002 fb1d 	bl	8002ef4 <HAL_GetTick>
 80008ba:	6178      	str	r0, [r7, #20]

        // Check if the timeout has been reached
		if ((currTick - startTick) >= timeout) {
 80008bc:	697a      	ldr	r2, [r7, #20]
 80008be:	69bb      	ldr	r3, [r7, #24]
 80008c0:	1ad2      	subs	r2, r2, r3
 80008c2:	683b      	ldr	r3, [r7, #0]
 80008c4:	429a      	cmp	r2, r3
 80008c6:	d302      	bcc.n	80008ce <check_busy+0x4c>
        	ret_val = 0x01;
 80008c8:	2301      	movs	r3, #1
 80008ca:	77fb      	strb	r3, [r7, #31]
            break;
 80008cc:	e002      	b.n	80008d4 <check_busy+0x52>
	while(busy) {
 80008ce:	7fbb      	ldrb	r3, [r7, #30]
 80008d0:	2b00      	cmp	r3, #0
 80008d2:	d1e6      	bne.n	80008a2 <check_busy+0x20>
        }
	}

	return ret_val;
 80008d4:	7ffb      	ldrb	r3, [r7, #31]
}
 80008d6:	4618      	mov	r0, r3
 80008d8:	3720      	adds	r7, #32
 80008da:	46bd      	mov	sp, r7
 80008dc:	bd80      	pop	{r7, pc}
	...

080008e0 <check_status_register>:

uint8_t check_status_register(SPI_HandleTypeDef *hspi, GPIO_Config config) {
 80008e0:	b580      	push	{r7, lr}
 80008e2:	b088      	sub	sp, #32
 80008e4:	af02      	add	r7, sp, #8
 80008e6:	60f8      	str	r0, [r7, #12]
 80008e8:	1d3b      	adds	r3, r7, #4
 80008ea:	e883 0006 	stmia.w	r3, {r1, r2}
	uint8_t status_reg = 0x00;
 80008ee:	2300      	movs	r3, #0
 80008f0:	75fb      	strb	r3, [r7, #23]
	spi_sendOp_readByte(&FLASH_READSR1, hspi, &status_reg, config.GPIOx, config.GPIO_Pin);
 80008f2:	6879      	ldr	r1, [r7, #4]
 80008f4:	893b      	ldrh	r3, [r7, #8]
 80008f6:	f107 0217 	add.w	r2, r7, #23
 80008fa:	9300      	str	r3, [sp, #0]
 80008fc:	460b      	mov	r3, r1
 80008fe:	68f9      	ldr	r1, [r7, #12]
 8000900:	4803      	ldr	r0, [pc, #12]	; (8000910 <check_status_register+0x30>)
 8000902:	f001 fda7 	bl	8002454 <spi_sendOp_readByte>
	return status_reg;
 8000906:	7dfb      	ldrb	r3, [r7, #23]
}
 8000908:	4618      	mov	r0, r3
 800090a:	3718      	adds	r7, #24
 800090c:	46bd      	mov	sp, r7
 800090e:	bd80      	pop	{r7, pc}
 8000910:	2000000f 	.word	0x2000000f

08000914 <erase_chip_spi>:
 *      Author: aidencontini
 */

#include "data_output_spi.h"

HAL_StatusTypeDef erase_chip_spi(SPI_HandleTypeDef *hspi, GPIO_Config config) {
 8000914:	b580      	push	{r7, lr}
 8000916:	b084      	sub	sp, #16
 8000918:	af00      	add	r7, sp, #0
 800091a:	60f8      	str	r0, [r7, #12]
 800091c:	1d3b      	adds	r3, r7, #4
 800091e:	e883 0006 	stmia.w	r3, {r1, r2}
	check_busy(hspi, config, BSY_TIMEOUT_MS);
 8000922:	2305      	movs	r3, #5
 8000924:	1d3a      	adds	r2, r7, #4
 8000926:	ca06      	ldmia	r2, {r1, r2}
 8000928:	68f8      	ldr	r0, [r7, #12]
 800092a:	f7ff ffaa 	bl	8000882 <check_busy>

	write_enable_spi(hspi, config);
 800092e:	1d3b      	adds	r3, r7, #4
 8000930:	e893 0006 	ldmia.w	r3, {r1, r2}
 8000934:	68f8      	ldr	r0, [r7, #12]
 8000936:	f000 f815 	bl	8000964 <write_enable_spi>
	perform_operation(&FLASH_ERASE, hspi, config.GPIOx, config.GPIO_Pin);
 800093a:	687a      	ldr	r2, [r7, #4]
 800093c:	893b      	ldrh	r3, [r7, #8]
 800093e:	68f9      	ldr	r1, [r7, #12]
 8000940:	4806      	ldr	r0, [pc, #24]	; (800095c <erase_chip_spi+0x48>)
 8000942:	f001 fdad 	bl	80024a0 <perform_operation>

	check_busy(hspi, config, CHIP_ERASE_TO);
 8000946:	4b06      	ldr	r3, [pc, #24]	; (8000960 <erase_chip_spi+0x4c>)
 8000948:	1d3a      	adds	r2, r7, #4
 800094a:	ca06      	ldmia	r2, {r1, r2}
 800094c:	68f8      	ldr	r0, [r7, #12]
 800094e:	f7ff ff98 	bl	8000882 <check_busy>

	return HAL_OK;
 8000952:	2300      	movs	r3, #0
}
 8000954:	4618      	mov	r0, r3
 8000956:	3710      	adds	r7, #16
 8000958:	46bd      	mov	sp, r7
 800095a:	bd80      	pop	{r7, pc}
 800095c:	20000012 	.word	0x20000012
 8000960:	00030d40 	.word	0x00030d40

08000964 <write_enable_spi>:
	check_busy(hspi, config, BLK_ERS_32K_TO);

	return HAL_OK;
}

void write_enable_spi(SPI_HandleTypeDef *hspi, GPIO_Config config) {
 8000964:	b580      	push	{r7, lr}
 8000966:	b084      	sub	sp, #16
 8000968:	af00      	add	r7, sp, #0
 800096a:	60f8      	str	r0, [r7, #12]
 800096c:	1d3b      	adds	r3, r7, #4
 800096e:	e883 0006 	stmia.w	r3, {r1, r2}
	perform_operation(&FLASH_WREN, hspi, config.GPIOx, config.GPIO_Pin);
 8000972:	687a      	ldr	r2, [r7, #4]
 8000974:	893b      	ldrh	r3, [r7, #8]
 8000976:	68f9      	ldr	r1, [r7, #12]
 8000978:	4803      	ldr	r0, [pc, #12]	; (8000988 <write_enable_spi+0x24>)
 800097a:	f001 fd91 	bl	80024a0 <perform_operation>
}
 800097e:	bf00      	nop
 8000980:	3710      	adds	r7, #16
 8000982:	46bd      	mov	sp, r7
 8000984:	bd80      	pop	{r7, pc}
 8000986:	bf00      	nop
 8000988:	2000000d 	.word	0x2000000d

0800098c <software_reset>:

void write_disable_spi(SPI_HandleTypeDef *hspi, GPIO_Config config) {
	perform_operation(&FLASH_WRDIS, hspi, config.GPIOx, config.GPIO_Pin);
}

void software_reset(SPI_HandleTypeDef *hspi, GPIO_Config config) {
 800098c:	b580      	push	{r7, lr}
 800098e:	b084      	sub	sp, #16
 8000990:	af00      	add	r7, sp, #0
 8000992:	60f8      	str	r0, [r7, #12]
 8000994:	1d3b      	adds	r3, r7, #4
 8000996:	e883 0006 	stmia.w	r3, {r1, r2}

	check_busy(hspi, config, BSY_TIMEOUT_MS);
 800099a:	2305      	movs	r3, #5
 800099c:	1d3a      	adds	r2, r7, #4
 800099e:	ca06      	ldmia	r2, {r1, r2}
 80009a0:	68f8      	ldr	r0, [r7, #12]
 80009a2:	f7ff ff6e 	bl	8000882 <check_busy>

	perform_operation(&RST_EN, hspi, config.GPIOx, config.GPIO_Pin);
 80009a6:	687a      	ldr	r2, [r7, #4]
 80009a8:	893b      	ldrh	r3, [r7, #8]
 80009aa:	68f9      	ldr	r1, [r7, #12]
 80009ac:	4807      	ldr	r0, [pc, #28]	; (80009cc <software_reset+0x40>)
 80009ae:	f001 fd77 	bl	80024a0 <perform_operation>
	perform_operation(&DEV_RST, hspi, config.GPIOx, config.GPIO_Pin);
 80009b2:	687a      	ldr	r2, [r7, #4]
 80009b4:	893b      	ldrh	r3, [r7, #8]
 80009b6:	68f9      	ldr	r1, [r7, #12]
 80009b8:	4805      	ldr	r0, [pc, #20]	; (80009d0 <software_reset+0x44>)
 80009ba:	f001 fd71 	bl	80024a0 <perform_operation>

	HAL_Delay(5);
 80009be:	2005      	movs	r0, #5
 80009c0:	f002 faa4 	bl	8002f0c <HAL_Delay>
}
 80009c4:	bf00      	nop
 80009c6:	3710      	adds	r7, #16
 80009c8:	46bd      	mov	sp, r7
 80009ca:	bd80      	pop	{r7, pc}
 80009cc:	20000013 	.word	0x20000013
 80009d0:	20000014 	.word	0x20000014

080009d4 <write_data_spi_dma>:
	spi_write_data(&FLASH_PGWR, PAGE_SIZE, page, hspi, addr, config.GPIOx, config.GPIO_Pin);

	return 0;
}

uint8_t write_data_spi_dma(uint8_t page[PAGE_SIZE], SPI_HandleTypeDef *hspi, uint32_t addr, GPIO_Config config) {
 80009d4:	b082      	sub	sp, #8
 80009d6:	b580      	push	{r7, lr}
 80009d8:	b088      	sub	sp, #32
 80009da:	af04      	add	r7, sp, #16
 80009dc:	60f8      	str	r0, [r7, #12]
 80009de:	60b9      	str	r1, [r7, #8]
 80009e0:	607a      	str	r2, [r7, #4]
 80009e2:	61fb      	str	r3, [r7, #28]
	check_busy(hspi, config, BSY_TIMEOUT_MS);
 80009e4:	2305      	movs	r3, #5
 80009e6:	f107 021c 	add.w	r2, r7, #28
 80009ea:	ca06      	ldmia	r2, {r1, r2}
 80009ec:	68b8      	ldr	r0, [r7, #8]
 80009ee:	f7ff ff48 	bl	8000882 <check_busy>

	// Send the write enable signal
	write_enable_spi(hspi, config);
 80009f2:	f107 031c 	add.w	r3, r7, #28
 80009f6:	e893 0006 	ldmia.w	r3, {r1, r2}
 80009fa:	68b8      	ldr	r0, [r7, #8]
 80009fc:	f7ff ffb2 	bl	8000964 <write_enable_spi>
	spi_write_data_dma(&FLASH_PGWR, PAGE_SIZE, page, hspi, addr, config.GPIOx, config.GPIO_Pin);
 8000a00:	69fb      	ldr	r3, [r7, #28]
 8000a02:	8c3a      	ldrh	r2, [r7, #32]
 8000a04:	9202      	str	r2, [sp, #8]
 8000a06:	9301      	str	r3, [sp, #4]
 8000a08:	687b      	ldr	r3, [r7, #4]
 8000a0a:	9300      	str	r3, [sp, #0]
 8000a0c:	68bb      	ldr	r3, [r7, #8]
 8000a0e:	68fa      	ldr	r2, [r7, #12]
 8000a10:	f44f 7180 	mov.w	r1, #256	; 0x100
 8000a14:	4805      	ldr	r0, [pc, #20]	; (8000a2c <write_data_spi_dma+0x58>)
 8000a16:	f001 fdaa 	bl	800256e <spi_write_data_dma>

	return 0;
 8000a1a:	2300      	movs	r3, #0
}
 8000a1c:	4618      	mov	r0, r3
 8000a1e:	3710      	adds	r7, #16
 8000a20:	46bd      	mov	sp, r7
 8000a22:	e8bd 4080 	ldmia.w	sp!, {r7, lr}
 8000a26:	b002      	add	sp, #8
 8000a28:	4770      	bx	lr
 8000a2a:	bf00      	nop
 8000a2c:	2000000e 	.word	0x2000000e

08000a30 <find_next_blank_page>:
 *      Author: aidencontini
 */

#include "data_read_spi.h"

uint32_t find_next_blank_page(SPI_HandleTypeDef *hspi, GPIO_PinState *end_of_flash_ptr, GPIO_Config config) {
 8000a30:	e92d 43f0 	stmdb	sp!, {r4, r5, r6, r7, r8, r9, lr}
 8000a34:	b091      	sub	sp, #68	; 0x44
 8000a36:	af04      	add	r7, sp, #16
 8000a38:	60f8      	str	r0, [r7, #12]
 8000a3a:	60b9      	str	r1, [r7, #8]
 8000a3c:	4639      	mov	r1, r7
 8000a3e:	e881 000c 	stmia.w	r1, {r2, r3}
 8000a42:	466b      	mov	r3, sp
 8000a44:	461e      	mov	r6, r3
	uint8_t firstBytes = 4;
 8000a46:	2304      	movs	r3, #4
 8000a48:	77fb      	strb	r3, [r7, #31]

	uint8_t page_start[firstBytes];
 8000a4a:	7ff9      	ldrb	r1, [r7, #31]
 8000a4c:	460b      	mov	r3, r1
 8000a4e:	3b01      	subs	r3, #1
 8000a50:	61bb      	str	r3, [r7, #24]
 8000a52:	b2cb      	uxtb	r3, r1
 8000a54:	2200      	movs	r2, #0
 8000a56:	4698      	mov	r8, r3
 8000a58:	4691      	mov	r9, r2
 8000a5a:	f04f 0200 	mov.w	r2, #0
 8000a5e:	f04f 0300 	mov.w	r3, #0
 8000a62:	ea4f 03c9 	mov.w	r3, r9, lsl #3
 8000a66:	ea43 7358 	orr.w	r3, r3, r8, lsr #29
 8000a6a:	ea4f 02c8 	mov.w	r2, r8, lsl #3
 8000a6e:	b2cb      	uxtb	r3, r1
 8000a70:	2200      	movs	r2, #0
 8000a72:	461c      	mov	r4, r3
 8000a74:	4615      	mov	r5, r2
 8000a76:	f04f 0200 	mov.w	r2, #0
 8000a7a:	f04f 0300 	mov.w	r3, #0
 8000a7e:	00eb      	lsls	r3, r5, #3
 8000a80:	ea43 7354 	orr.w	r3, r3, r4, lsr #29
 8000a84:	00e2      	lsls	r2, r4, #3
 8000a86:	460b      	mov	r3, r1
 8000a88:	3307      	adds	r3, #7
 8000a8a:	08db      	lsrs	r3, r3, #3
 8000a8c:	00db      	lsls	r3, r3, #3
 8000a8e:	ebad 0d03 	sub.w	sp, sp, r3
 8000a92:	ab04      	add	r3, sp, #16
 8000a94:	3300      	adds	r3, #0
 8000a96:	617b      	str	r3, [r7, #20]
	for (int i = 0; i < firstBytes; i++) {
 8000a98:	2300      	movs	r3, #0
 8000a9a:	62fb      	str	r3, [r7, #44]	; 0x2c
 8000a9c:	e007      	b.n	8000aae <find_next_blank_page+0x7e>
		page_start[i] = 0;
 8000a9e:	697a      	ldr	r2, [r7, #20]
 8000aa0:	6afb      	ldr	r3, [r7, #44]	; 0x2c
 8000aa2:	4413      	add	r3, r2
 8000aa4:	2200      	movs	r2, #0
 8000aa6:	701a      	strb	r2, [r3, #0]
	for (int i = 0; i < firstBytes; i++) {
 8000aa8:	6afb      	ldr	r3, [r7, #44]	; 0x2c
 8000aaa:	3301      	adds	r3, #1
 8000aac:	62fb      	str	r3, [r7, #44]	; 0x2c
 8000aae:	7ffb      	ldrb	r3, [r7, #31]
 8000ab0:	6afa      	ldr	r2, [r7, #44]	; 0x2c
 8000ab2:	429a      	cmp	r2, r3
 8000ab4:	dbf3      	blt.n	8000a9e <find_next_blank_page+0x6e>
	}

	uint32_t page_start_concat = (page_start[0] << 24) | (page_start[1] << 16) | (page_start[2] << 8) | page_start[3];
 8000ab6:	697b      	ldr	r3, [r7, #20]
 8000ab8:	781b      	ldrb	r3, [r3, #0]
 8000aba:	061a      	lsls	r2, r3, #24
 8000abc:	697b      	ldr	r3, [r7, #20]
 8000abe:	785b      	ldrb	r3, [r3, #1]
 8000ac0:	041b      	lsls	r3, r3, #16
 8000ac2:	431a      	orrs	r2, r3
 8000ac4:	697b      	ldr	r3, [r7, #20]
 8000ac6:	789b      	ldrb	r3, [r3, #2]
 8000ac8:	021b      	lsls	r3, r3, #8
 8000aca:	4313      	orrs	r3, r2
 8000acc:	697a      	ldr	r2, [r7, #20]
 8000ace:	78d2      	ldrb	r2, [r2, #3]
 8000ad0:	4313      	orrs	r3, r2
 8000ad2:	62bb      	str	r3, [r7, #40]	; 0x28
	uint32_t temp = 0;
 8000ad4:	2300      	movs	r3, #0
 8000ad6:	627b      	str	r3, [r7, #36]	; 0x24
	uint32_t page_address = temp;
 8000ad8:	6a7b      	ldr	r3, [r7, #36]	; 0x24
 8000ada:	623b      	str	r3, [r7, #32]

	while ((page_start_concat != 0xFFFFFFFF) || (temp == NUM_OF_PAGES)) {
 8000adc:	e027      	b.n	8000b2e <find_next_blank_page+0xfe>
		page_address = temp;
 8000ade:	6a7b      	ldr	r3, [r7, #36]	; 0x24
 8000ae0:	623b      	str	r3, [r7, #32]

		check_busy(hspi, config, BSY_TIMEOUT_MS);
 8000ae2:	2305      	movs	r3, #5
 8000ae4:	463a      	mov	r2, r7
 8000ae6:	ca06      	ldmia	r2, {r1, r2}
 8000ae8:	68f8      	ldr	r0, [r7, #12]
 8000aea:	f7ff feca 	bl	8000882 <check_busy>

		spi_read_data(&FLASH_READEN, firstBytes, page_start, hspi, page_address, config.GPIOx, config.GPIO_Pin);
 8000aee:	7ffb      	ldrb	r3, [r7, #31]
 8000af0:	b299      	uxth	r1, r3
 8000af2:	683b      	ldr	r3, [r7, #0]
 8000af4:	88ba      	ldrh	r2, [r7, #4]
 8000af6:	9202      	str	r2, [sp, #8]
 8000af8:	9301      	str	r3, [sp, #4]
 8000afa:	6a3b      	ldr	r3, [r7, #32]
 8000afc:	9300      	str	r3, [sp, #0]
 8000afe:	68fb      	ldr	r3, [r7, #12]
 8000b00:	697a      	ldr	r2, [r7, #20]
 8000b02:	4816      	ldr	r0, [pc, #88]	; (8000b5c <find_next_blank_page+0x12c>)
 8000b04:	f001 fcec 	bl	80024e0 <spi_read_data>

		page_start_concat = (page_start[0] << 24) | (page_start[1] << 16) | (page_start[2] << 8) | page_start[3];
 8000b08:	697b      	ldr	r3, [r7, #20]
 8000b0a:	781b      	ldrb	r3, [r3, #0]
 8000b0c:	061a      	lsls	r2, r3, #24
 8000b0e:	697b      	ldr	r3, [r7, #20]
 8000b10:	785b      	ldrb	r3, [r3, #1]
 8000b12:	041b      	lsls	r3, r3, #16
 8000b14:	431a      	orrs	r2, r3
 8000b16:	697b      	ldr	r3, [r7, #20]
 8000b18:	789b      	ldrb	r3, [r3, #2]
 8000b1a:	021b      	lsls	r3, r3, #8
 8000b1c:	4313      	orrs	r3, r2
 8000b1e:	697a      	ldr	r2, [r7, #20]
 8000b20:	78d2      	ldrb	r2, [r2, #3]
 8000b22:	4313      	orrs	r3, r2
 8000b24:	62bb      	str	r3, [r7, #40]	; 0x28
		temp += PAGE_SIZE;
 8000b26:	6a7b      	ldr	r3, [r7, #36]	; 0x24
 8000b28:	f503 7380 	add.w	r3, r3, #256	; 0x100
 8000b2c:	627b      	str	r3, [r7, #36]	; 0x24
	while ((page_start_concat != 0xFFFFFFFF) || (temp == NUM_OF_PAGES)) {
 8000b2e:	6abb      	ldr	r3, [r7, #40]	; 0x28
 8000b30:	f1b3 3fff 	cmp.w	r3, #4294967295	; 0xffffffff
 8000b34:	d1d3      	bne.n	8000ade <find_next_blank_page+0xae>
 8000b36:	6a7b      	ldr	r3, [r7, #36]	; 0x24
 8000b38:	f5b3 3f80 	cmp.w	r3, #65536	; 0x10000
 8000b3c:	d0cf      	beq.n	8000ade <find_next_blank_page+0xae>
	}

	if (page_address == (NUM_OF_PAGES * PAGE_SIZE)) {
 8000b3e:	6a3b      	ldr	r3, [r7, #32]
 8000b40:	f1b3 7f80 	cmp.w	r3, #16777216	; 0x1000000
 8000b44:	d102      	bne.n	8000b4c <find_next_blank_page+0x11c>
		*end_of_flash_ptr = GPIO_PIN_RESET;
 8000b46:	68bb      	ldr	r3, [r7, #8]
 8000b48:	2200      	movs	r2, #0
 8000b4a:	701a      	strb	r2, [r3, #0]
	}
	return page_address;
 8000b4c:	6a3b      	ldr	r3, [r7, #32]
 8000b4e:	46b5      	mov	sp, r6
}
 8000b50:	4618      	mov	r0, r3
 8000b52:	3734      	adds	r7, #52	; 0x34
 8000b54:	46bd      	mov	sp, r7
 8000b56:	e8bd 83f0 	ldmia.w	sp!, {r4, r5, r6, r7, r8, r9, pc}
 8000b5a:	bf00      	nop
 8000b5c:	20000010 	.word	0x20000010

08000b60 <read_page_spi>:

void read_page_spi(uint8_t data_read[PAGE_SIZE], SPI_HandleTypeDef *hspi, uint32_t addr, GPIO_Config config) {
 8000b60:	b082      	sub	sp, #8
 8000b62:	b580      	push	{r7, lr}
 8000b64:	b088      	sub	sp, #32
 8000b66:	af04      	add	r7, sp, #16
 8000b68:	60f8      	str	r0, [r7, #12]
 8000b6a:	60b9      	str	r1, [r7, #8]
 8000b6c:	607a      	str	r2, [r7, #4]
 8000b6e:	61fb      	str	r3, [r7, #28]

	// Read the status register to ensure no write is currently in progress
	check_busy(hspi, config, BSY_TIMEOUT_MS);
 8000b70:	2305      	movs	r3, #5
 8000b72:	f107 021c 	add.w	r2, r7, #28
 8000b76:	ca06      	ldmia	r2, {r1, r2}
 8000b78:	68b8      	ldr	r0, [r7, #8]
 8000b7a:	f7ff fe82 	bl	8000882 <check_busy>
	spi_read_data(&FLASH_READEN, PAGE_SIZE, data_read, hspi, addr, config.GPIOx, config.GPIO_Pin);
 8000b7e:	69fb      	ldr	r3, [r7, #28]
 8000b80:	8c3a      	ldrh	r2, [r7, #32]
 8000b82:	9202      	str	r2, [sp, #8]
 8000b84:	9301      	str	r3, [sp, #4]
 8000b86:	687b      	ldr	r3, [r7, #4]
 8000b88:	9300      	str	r3, [sp, #0]
 8000b8a:	68bb      	ldr	r3, [r7, #8]
 8000b8c:	68fa      	ldr	r2, [r7, #12]
 8000b8e:	f44f 7180 	mov.w	r1, #256	; 0x100
 8000b92:	4805      	ldr	r0, [pc, #20]	; (8000ba8 <read_page_spi+0x48>)
 8000b94:	f001 fca4 	bl	80024e0 <spi_read_data>
}
 8000b98:	bf00      	nop
 8000b9a:	3710      	adds	r7, #16
 8000b9c:	46bd      	mov	sp, r7
 8000b9e:	e8bd 4080 	ldmia.w	sp!, {r7, lr}
 8000ba2:	b002      	add	sp, #8
 8000ba4:	4770      	bx	lr
 8000ba6:	bf00      	nop
 8000ba8:	20000010 	.word	0x20000010

08000bac <read_manufacturer_id>:

void read_manufacturer_id(uint8_t manu[2], SPI_HandleTypeDef *hspi, GPIO_Config config) {
 8000bac:	b580      	push	{r7, lr}
 8000bae:	b08a      	sub	sp, #40	; 0x28
 8000bb0:	af04      	add	r7, sp, #16
 8000bb2:	60f8      	str	r0, [r7, #12]
 8000bb4:	60b9      	str	r1, [r7, #8]
 8000bb6:	4639      	mov	r1, r7
 8000bb8:	e881 000c 	stmia.w	r1, {r2, r3}

	// Read the status register to ensure no write is currently in progress
	check_busy(hspi, config, BSY_TIMEOUT_MS);
 8000bbc:	2305      	movs	r3, #5
 8000bbe:	463a      	mov	r2, r7
 8000bc0:	ca06      	ldmia	r2, {r1, r2}
 8000bc2:	68b8      	ldr	r0, [r7, #8]
 8000bc4:	f7ff fe5d 	bl	8000882 <check_busy>

	// Read the entire contents of a page starting from the given address
	uint8_t addr = 0x00;
 8000bc8:	2300      	movs	r3, #0
 8000bca:	75fb      	strb	r3, [r7, #23]
	spi_read_data(&FLASH_READ_MANU, 2, manu, hspi, addr, config.GPIOx, config.GPIO_Pin);
 8000bcc:	7dfb      	ldrb	r3, [r7, #23]
 8000bce:	683a      	ldr	r2, [r7, #0]
 8000bd0:	88b9      	ldrh	r1, [r7, #4]
 8000bd2:	9102      	str	r1, [sp, #8]
 8000bd4:	9201      	str	r2, [sp, #4]
 8000bd6:	9300      	str	r3, [sp, #0]
 8000bd8:	68bb      	ldr	r3, [r7, #8]
 8000bda:	68fa      	ldr	r2, [r7, #12]
 8000bdc:	2102      	movs	r1, #2
 8000bde:	4803      	ldr	r0, [pc, #12]	; (8000bec <read_manufacturer_id+0x40>)
 8000be0:	f001 fc7e 	bl	80024e0 <spi_read_data>
}
 8000be4:	bf00      	nop
 8000be6:	3718      	adds	r7, #24
 8000be8:	46bd      	mov	sp, r7
 8000bea:	bd80      	pop	{r7, pc}
 8000bec:	20000011 	.word	0x20000011

08000bf0 <create_GPIO_Config>:
 */

#include "gpio_struct.h"

// Function to initialize the GPIO_Config struct
GPIO_Config create_GPIO_Config(GPIO_TypeDef* GPIOx, uint16_t GPIO_Pin) {
 8000bf0:	b480      	push	{r7}
 8000bf2:	b087      	sub	sp, #28
 8000bf4:	af00      	add	r7, sp, #0
 8000bf6:	60f8      	str	r0, [r7, #12]
 8000bf8:	60b9      	str	r1, [r7, #8]
 8000bfa:	4613      	mov	r3, r2
 8000bfc:	80fb      	strh	r3, [r7, #6]
    GPIO_Config new_config;
    new_config.GPIOx = GPIOx;
 8000bfe:	68bb      	ldr	r3, [r7, #8]
 8000c00:	613b      	str	r3, [r7, #16]
    new_config.GPIO_Pin = GPIO_Pin;
 8000c02:	88fb      	ldrh	r3, [r7, #6]
 8000c04:	82bb      	strh	r3, [r7, #20]
    return new_config;
 8000c06:	68fb      	ldr	r3, [r7, #12]
 8000c08:	461a      	mov	r2, r3
 8000c0a:	f107 0310 	add.w	r3, r7, #16
 8000c0e:	e893 0003 	ldmia.w	r3, {r0, r1}
 8000c12:	e882 0003 	stmia.w	r2, {r0, r1}
}
 8000c16:	68f8      	ldr	r0, [r7, #12]
 8000c18:	371c      	adds	r7, #28
 8000c1a:	46bd      	mov	sp, r7
 8000c1c:	f85d 7b04 	ldr.w	r7, [sp], #4
 8000c20:	4770      	bx	lr

08000c22 <i2c_read_reg>:
 *      Author: aidencontini
 */

#include "i2c_driver.h"

HAL_StatusTypeDef i2c_read_reg(I2C_HandleTypeDef* hi2c, uint8_t* data_ptr, uint8_t dev_addr, uint8_t* register_addr) {
 8000c22:	b580      	push	{r7, lr}
 8000c24:	b088      	sub	sp, #32
 8000c26:	af02      	add	r7, sp, #8
 8000c28:	60f8      	str	r0, [r7, #12]
 8000c2a:	60b9      	str	r1, [r7, #8]
 8000c2c:	603b      	str	r3, [r7, #0]
 8000c2e:	4613      	mov	r3, r2
 8000c30:	71fb      	strb	r3, [r7, #7]
	HAL_I2C_Master_Transmit(hi2c, (dev_addr << 1) & 0xFE, register_addr, 1, I2C_TIMEOUT_SML);
 8000c32:	79fb      	ldrb	r3, [r7, #7]
 8000c34:	005b      	lsls	r3, r3, #1
 8000c36:	b29b      	uxth	r3, r3
 8000c38:	b2db      	uxtb	r3, r3
 8000c3a:	b299      	uxth	r1, r3
 8000c3c:	2301      	movs	r3, #1
 8000c3e:	9300      	str	r3, [sp, #0]
 8000c40:	2301      	movs	r3, #1
 8000c42:	683a      	ldr	r2, [r7, #0]
 8000c44:	68f8      	ldr	r0, [r7, #12]
 8000c46:	f004 f83d 	bl	8004cc4 <HAL_I2C_Master_Transmit>
	HAL_StatusTypeDef hal_status = HAL_I2C_Master_Receive(hi2c, (dev_addr << 1) | 0x01, data_ptr, 1, I2C_TIMEOUT_SML);
 8000c4a:	79fb      	ldrb	r3, [r7, #7]
 8000c4c:	005b      	lsls	r3, r3, #1
 8000c4e:	b21b      	sxth	r3, r3
 8000c50:	f043 0301 	orr.w	r3, r3, #1
 8000c54:	b21b      	sxth	r3, r3
 8000c56:	b299      	uxth	r1, r3
 8000c58:	2301      	movs	r3, #1
 8000c5a:	9300      	str	r3, [sp, #0]
 8000c5c:	2301      	movs	r3, #1
 8000c5e:	68ba      	ldr	r2, [r7, #8]
 8000c60:	68f8      	ldr	r0, [r7, #12]
 8000c62:	f004 f92d 	bl	8004ec0 <HAL_I2C_Master_Receive>
 8000c66:	4603      	mov	r3, r0
 8000c68:	75fb      	strb	r3, [r7, #23]
	return hal_status;
 8000c6a:	7dfb      	ldrb	r3, [r7, #23]
}
 8000c6c:	4618      	mov	r0, r3
 8000c6e:	3718      	adds	r7, #24
 8000c70:	46bd      	mov	sp, r7
 8000c72:	bd80      	pop	{r7, pc}

08000c74 <i2c_burst_read>:

HAL_StatusTypeDef i2c_burst_read(I2C_HandleTypeDef* hi2c, uint8_t dev_addr, uint8_t register_addr, uint8_t size, uint8_t data_buffer[size]) {
 8000c74:	b580      	push	{r7, lr}
 8000c76:	b086      	sub	sp, #24
 8000c78:	af02      	add	r7, sp, #8
 8000c7a:	6078      	str	r0, [r7, #4]
 8000c7c:	4608      	mov	r0, r1
 8000c7e:	4611      	mov	r1, r2
 8000c80:	461a      	mov	r2, r3
 8000c82:	4603      	mov	r3, r0
 8000c84:	70fb      	strb	r3, [r7, #3]
 8000c86:	460b      	mov	r3, r1
 8000c88:	70bb      	strb	r3, [r7, #2]
 8000c8a:	4613      	mov	r3, r2
 8000c8c:	707b      	strb	r3, [r7, #1]
	// In order to read multiple bytes, it is necessary to assert the most significant bit of the sub-address field.
	uint8_t addr = register_addr | 0x80;
 8000c8e:	78bb      	ldrb	r3, [r7, #2]
 8000c90:	f063 037f 	orn	r3, r3, #127	; 0x7f
 8000c94:	b2db      	uxtb	r3, r3
 8000c96:	73bb      	strb	r3, [r7, #14]
	HAL_I2C_Master_Transmit(hi2c, (dev_addr << 1) & 0xFE, &addr, 1, I2C_TIMEOUT_SML);
 8000c98:	78fb      	ldrb	r3, [r7, #3]
 8000c9a:	005b      	lsls	r3, r3, #1
 8000c9c:	b29b      	uxth	r3, r3
 8000c9e:	b2db      	uxtb	r3, r3
 8000ca0:	b299      	uxth	r1, r3
 8000ca2:	f107 020e 	add.w	r2, r7, #14
 8000ca6:	2301      	movs	r3, #1
 8000ca8:	9300      	str	r3, [sp, #0]
 8000caa:	2301      	movs	r3, #1
 8000cac:	6878      	ldr	r0, [r7, #4]
 8000cae:	f004 f809 	bl	8004cc4 <HAL_I2C_Master_Transmit>
	HAL_StatusTypeDef hal_status =  HAL_I2C_Master_Receive(hi2c, (dev_addr << 1) | 0x01, data_buffer, size, I2C_TIMEOUT_LRG);
 8000cb2:	78fb      	ldrb	r3, [r7, #3]
 8000cb4:	005b      	lsls	r3, r3, #1
 8000cb6:	b21b      	sxth	r3, r3
 8000cb8:	f043 0301 	orr.w	r3, r3, #1
 8000cbc:	b21b      	sxth	r3, r3
 8000cbe:	b299      	uxth	r1, r3
 8000cc0:	787b      	ldrb	r3, [r7, #1]
 8000cc2:	b29b      	uxth	r3, r3
 8000cc4:	220a      	movs	r2, #10
 8000cc6:	9200      	str	r2, [sp, #0]
 8000cc8:	69ba      	ldr	r2, [r7, #24]
 8000cca:	6878      	ldr	r0, [r7, #4]
 8000ccc:	f004 f8f8 	bl	8004ec0 <HAL_I2C_Master_Receive>
 8000cd0:	4603      	mov	r3, r0
 8000cd2:	73fb      	strb	r3, [r7, #15]
	return hal_status;
 8000cd4:	7bfb      	ldrb	r3, [r7, #15]
}
 8000cd6:	4618      	mov	r0, r3
 8000cd8:	3710      	adds	r7, #16
 8000cda:	46bd      	mov	sp, r7
 8000cdc:	bd80      	pop	{r7, pc}

08000cde <i2c_write_reg>:
	HAL_I2C_Master_Transmit(hi2c, (dev_addr << 1) & 0xFE, &addr, 1, I2C_TIMEOUT_SML);
	HAL_StatusTypeDef hal_status =  HAL_I2C_Master_Receive(hi2c, (dev_addr << 1) | 0x01, data_buffer, size, I2C_TIMEOUT_LRG);
	return hal_status;
}

HAL_StatusTypeDef i2c_write_reg(I2C_HandleTypeDef* hi2c, uint8_t dev_addr, uint8_t* register_addr, uint8_t data) {
 8000cde:	b580      	push	{r7, lr}
 8000ce0:	b088      	sub	sp, #32
 8000ce2:	af02      	add	r7, sp, #8
 8000ce4:	60f8      	str	r0, [r7, #12]
 8000ce6:	607a      	str	r2, [r7, #4]
 8000ce8:	461a      	mov	r2, r3
 8000cea:	460b      	mov	r3, r1
 8000cec:	72fb      	strb	r3, [r7, #11]
 8000cee:	4613      	mov	r3, r2
 8000cf0:	72bb      	strb	r3, [r7, #10]
	uint8_t data_tx[2] = {*register_addr, data};
 8000cf2:	687b      	ldr	r3, [r7, #4]
 8000cf4:	781b      	ldrb	r3, [r3, #0]
 8000cf6:	753b      	strb	r3, [r7, #20]
 8000cf8:	7abb      	ldrb	r3, [r7, #10]
 8000cfa:	757b      	strb	r3, [r7, #21]
	HAL_StatusTypeDef hal_status = HAL_I2C_Master_Transmit(hi2c, (dev_addr << 1) & 0xFE, data_tx, 2, I2C_TIMEOUT_SML);
 8000cfc:	7afb      	ldrb	r3, [r7, #11]
 8000cfe:	005b      	lsls	r3, r3, #1
 8000d00:	b29b      	uxth	r3, r3
 8000d02:	b2db      	uxtb	r3, r3
 8000d04:	b299      	uxth	r1, r3
 8000d06:	f107 0214 	add.w	r2, r7, #20
 8000d0a:	2301      	movs	r3, #1
 8000d0c:	9300      	str	r3, [sp, #0]
 8000d0e:	2302      	movs	r3, #2
 8000d10:	68f8      	ldr	r0, [r7, #12]
 8000d12:	f003 ffd7 	bl	8004cc4 <HAL_I2C_Master_Transmit>
 8000d16:	4603      	mov	r3, r0
 8000d18:	75fb      	strb	r3, [r7, #23]
	return hal_status;
 8000d1a:	7dfb      	ldrb	r3, [r7, #23]
}
 8000d1c:	4618      	mov	r0, r3
 8000d1e:	3718      	adds	r7, #24
 8000d20:	46bd      	mov	sp, r7
 8000d22:	bd80      	pop	{r7, pc}

08000d24 <main>:
/**
  * @brief  The application entry point.
  * @retval int
  */
int main(void)
{
 8000d24:	b580      	push	{r7, lr}
 8000d26:	b084      	sub	sp, #16
 8000d28:	af02      	add	r7, sp, #8
  /* USER CODE END 1 */

  /* MCU Configuration--------------------------------------------------------*/

  /* Reset of all peripherals, Initializes the Flash interface and the Systick. */
  HAL_Init();
 8000d2a:	f002 f87d 	bl	8002e28 <HAL_Init>
  /* USER CODE BEGIN Init */

  /* USER CODE END Init */

  /* Configure the system clock */
  SystemClock_Config();
 8000d2e:	f000 f8eb 	bl	8000f08 <SystemClock_Config>
  /* USER CODE BEGIN SysInit */

  /* USER CODE END SysInit */

  /* Initialize all configured peripherals */
  MX_GPIO_Init();
 8000d32:	f000 fb6b 	bl	800140c <MX_GPIO_Init>
  MX_DMA_Init();
 8000d36:	f000 fb33 	bl	80013a0 <MX_DMA_Init>
  MX_I2C1_Init();
 8000d3a:	f000 f989 	bl	8001050 <MX_I2C1_Init>
  MX_RTC_Init();
 8000d3e:	f000 fa07 	bl	8001150 <MX_RTC_Init>
  MX_SPI1_Init();
 8000d42:	f000 fa2b 	bl	800119c <MX_SPI1_Init>
  MX_TIM6_Init();
 8000d46:	f000 fa95 	bl	8001274 <MX_TIM6_Init>
  MX_USART2_UART_Init();
 8000d4a:	f000 faff 	bl	800134c <MX_USART2_UART_Init>
  MX_I2C2_Init();
 8000d4e:	f000 f9bf 	bl	80010d0 <MX_I2C2_Init>
  MX_SPI2_Init();
 8000d52:	f000 fa59 	bl	8001208 <MX_SPI2_Init>
  MX_CAN2_Init();
 8000d56:	f000 f943 	bl	8000fe0 <MX_CAN2_Init>
  MX_TIM7_Init();
 8000d5a:	f000 fac1 	bl	80012e0 <MX_TIM7_Init>
  /* USER CODE BEGIN 2 */
  systemInit();
 8000d5e:	f000 fc35 	bl	80015cc <systemInit>
  {
    /* USER CODE END WHILE */

    /* USER CODE BEGIN 3 */
	  // Handle UART receive flag
	  if(uart2_rec_flag == FLAG_SET) {
 8000d62:	4b55      	ldr	r3, [pc, #340]	; (8000eb8 <main+0x194>)
 8000d64:	781b      	ldrb	r3, [r3, #0]
 8000d66:	2b01      	cmp	r3, #1
 8000d68:	d104      	bne.n	8000d74 <main+0x50>
		  handleUART();
 8000d6a:	f000 fe15 	bl	8001998 <handleUART>
		  uart2_rec_flag = FLAG_RESET;
 8000d6e:	4b52      	ldr	r3, [pc, #328]	; (8000eb8 <main+0x194>)
 8000d70:	2200      	movs	r2, #0
 8000d72:	701a      	strb	r2, [r3, #0]
	  }

	  // Handle CAN receive flag
	  if(CAN_RX_Flag == FLAG_SET) {
 8000d74:	4b51      	ldr	r3, [pc, #324]	; (8000ebc <main+0x198>)
 8000d76:	781b      	ldrb	r3, [r3, #0]
 8000d78:	2b01      	cmp	r3, #1
 8000d7a:	d10c      	bne.n	8000d96 <main+0x72>
		  handleCAN();
 8000d7c:	f000 fda2 	bl	80018c4 <handleCAN>
		  HAL_GPIO_TogglePin(led_green.GPIOx, led_green.GPIO_Pin);
 8000d80:	4b4f      	ldr	r3, [pc, #316]	; (8000ec0 <main+0x19c>)
 8000d82:	681b      	ldr	r3, [r3, #0]
 8000d84:	4a4e      	ldr	r2, [pc, #312]	; (8000ec0 <main+0x19c>)
 8000d86:	8892      	ldrh	r2, [r2, #4]
 8000d88:	4611      	mov	r1, r2
 8000d8a:	4618      	mov	r0, r3
 8000d8c:	f003 fe3b 	bl	8004a06 <HAL_GPIO_TogglePin>
		  CAN_RX_Flag = FLAG_RESET;
 8000d90:	4b4a      	ldr	r3, [pc, #296]	; (8000ebc <main+0x198>)
 8000d92:	2200      	movs	r2, #0
 8000d94:	701a      	strb	r2, [r3, #0]
	  }

	  if (tim7_overflow_flag == FLAG_SET) {
 8000d96:	4b4b      	ldr	r3, [pc, #300]	; (8000ec4 <main+0x1a0>)
 8000d98:	781b      	ldrb	r3, [r3, #0]
 8000d9a:	2b01      	cmp	r3, #1
 8000d9c:	d116      	bne.n	8000dcc <main+0xa8>
		  HAL_GPIO_TogglePin(led_orange.GPIOx, led_orange.GPIO_Pin);		// Toggle LED
 8000d9e:	4b4a      	ldr	r3, [pc, #296]	; (8000ec8 <main+0x1a4>)
 8000da0:	681b      	ldr	r3, [r3, #0]
 8000da2:	4a49      	ldr	r2, [pc, #292]	; (8000ec8 <main+0x1a4>)
 8000da4:	8892      	ldrh	r2, [r2, #4]
 8000da6:	4611      	mov	r1, r2
 8000da8:	4618      	mov	r0, r3
 8000daa:	f003 fe2c 	bl	8004a06 <HAL_GPIO_TogglePin>
		  sysStatus = systemStatus(&hspi1, &hspi2, i2c_bme280, i2c_accel);
 8000dae:	4b47      	ldr	r3, [pc, #284]	; (8000ecc <main+0x1a8>)
 8000db0:	681a      	ldr	r2, [r3, #0]
 8000db2:	4b47      	ldr	r3, [pc, #284]	; (8000ed0 <main+0x1ac>)
 8000db4:	681b      	ldr	r3, [r3, #0]
 8000db6:	4947      	ldr	r1, [pc, #284]	; (8000ed4 <main+0x1b0>)
 8000db8:	4847      	ldr	r0, [pc, #284]	; (8000ed8 <main+0x1b4>)
 8000dba:	f000 ff91 	bl	8001ce0 <systemStatus>
 8000dbe:	4603      	mov	r3, r0
 8000dc0:	461a      	mov	r2, r3
 8000dc2:	4b46      	ldr	r3, [pc, #280]	; (8000edc <main+0x1b8>)
 8000dc4:	701a      	strb	r2, [r3, #0]
		  tim7_overflow_flag = FLAG_RESET;
 8000dc6:	4b3f      	ldr	r3, [pc, #252]	; (8000ec4 <main+0x1a0>)
 8000dc8:	2200      	movs	r2, #0
 8000dca:	701a      	strb	r2, [r3, #0]
	  }

	  // Handle Timer 6 overflow flag
	  if(tim6_overflow_flag == FLAG_SET) {
 8000dcc:	4b44      	ldr	r3, [pc, #272]	; (8000ee0 <main+0x1bc>)
 8000dce:	781b      	ldrb	r3, [r3, #0]
 8000dd0:	2b01      	cmp	r3, #1
 8000dd2:	d10a      	bne.n	8000dea <main+0xc6>
		  readAllSensors(i2c_accel, i2c_bme280, &hrtc);
 8000dd4:	4b3e      	ldr	r3, [pc, #248]	; (8000ed0 <main+0x1ac>)
 8000dd6:	681b      	ldr	r3, [r3, #0]
 8000dd8:	4a3c      	ldr	r2, [pc, #240]	; (8000ecc <main+0x1a8>)
 8000dda:	6811      	ldr	r1, [r2, #0]
 8000ddc:	4a41      	ldr	r2, [pc, #260]	; (8000ee4 <main+0x1c0>)
 8000dde:	4618      	mov	r0, r3
 8000de0:	f001 f9e4 	bl	80021ac <readAllSensors>
		  tim6_overflow_flag = FLAG_RESET;
 8000de4:	4b3e      	ldr	r3, [pc, #248]	; (8000ee0 <main+0x1bc>)
 8000de6:	2200      	movs	r2, #0
 8000de8:	701a      	strb	r2, [r3, #0]
	  }

	  // Write data to flash when buffer is full
	  if(byte_tracker > (PAGE_SIZE - READ_SIZE)) {
 8000dea:	4b3f      	ldr	r3, [pc, #252]	; (8000ee8 <main+0x1c4>)
 8000dec:	881b      	ldrh	r3, [r3, #0]
 8000dee:	2beb      	cmp	r3, #235	; 0xeb
 8000df0:	d952      	bls.n	8000e98 <main+0x174>
		  GPIO_PinState flight_mode = HAL_GPIO_ReadPin(jmp_flight.GPIOx, jmp_flight.GPIO_Pin);
 8000df2:	4b3e      	ldr	r3, [pc, #248]	; (8000eec <main+0x1c8>)
 8000df4:	681b      	ldr	r3, [r3, #0]
 8000df6:	4a3d      	ldr	r2, [pc, #244]	; (8000eec <main+0x1c8>)
 8000df8:	8892      	ldrh	r2, [r2, #4]
 8000dfa:	4611      	mov	r1, r2
 8000dfc:	4618      	mov	r0, r3
 8000dfe:	f003 fdd1 	bl	80049a4 <HAL_GPIO_ReadPin>
 8000e02:	4603      	mov	r3, r0
 8000e04:	71fb      	strb	r3, [r7, #7]
		  if((flight_mode & !(end_of_flash)) == FLAG_SET) {
 8000e06:	79fb      	ldrb	r3, [r7, #7]
 8000e08:	4a39      	ldr	r2, [pc, #228]	; (8000ef0 <main+0x1cc>)
 8000e0a:	7812      	ldrb	r2, [r2, #0]
 8000e0c:	2a00      	cmp	r2, #0
 8000e0e:	bf0c      	ite	eq
 8000e10:	2201      	moveq	r2, #1
 8000e12:	2200      	movne	r2, #0
 8000e14:	b2d2      	uxtb	r2, r2
 8000e16:	4013      	ands	r3, r2
 8000e18:	2b01      	cmp	r3, #1
 8000e1a:	d133      	bne.n	8000e84 <main+0x160>
			  HAL_GPIO_WritePin(led_green.GPIOx, led_green.GPIO_Pin, GPIO_PIN_SET);		// Toggle LED when writing data
 8000e1c:	4b28      	ldr	r3, [pc, #160]	; (8000ec0 <main+0x19c>)
 8000e1e:	681b      	ldr	r3, [r3, #0]
 8000e20:	4a27      	ldr	r2, [pc, #156]	; (8000ec0 <main+0x19c>)
 8000e22:	8891      	ldrh	r1, [r2, #4]
 8000e24:	2201      	movs	r2, #1
 8000e26:	4618      	mov	r0, r3
 8000e28:	f003 fdd4 	bl	80049d4 <HAL_GPIO_WritePin>

			  write_data_spi_dma(data_buffer_tx[buffer_tracker], &hspi1, next_blank_page, cs_spi1);
 8000e2c:	4b31      	ldr	r3, [pc, #196]	; (8000ef4 <main+0x1d0>)
 8000e2e:	781b      	ldrb	r3, [r3, #0]
 8000e30:	021b      	lsls	r3, r3, #8
 8000e32:	4a31      	ldr	r2, [pc, #196]	; (8000ef8 <main+0x1d4>)
 8000e34:	1898      	adds	r0, r3, r2
 8000e36:	4b31      	ldr	r3, [pc, #196]	; (8000efc <main+0x1d8>)
 8000e38:	6819      	ldr	r1, [r3, #0]
 8000e3a:	4b31      	ldr	r3, [pc, #196]	; (8000f00 <main+0x1dc>)
 8000e3c:	685a      	ldr	r2, [r3, #4]
 8000e3e:	9200      	str	r2, [sp, #0]
 8000e40:	681b      	ldr	r3, [r3, #0]
 8000e42:	460a      	mov	r2, r1
 8000e44:	4924      	ldr	r1, [pc, #144]	; (8000ed8 <main+0x1b4>)
 8000e46:	f7ff fdc5 	bl	80009d4 <write_data_spi_dma>
			  write_data_spi_dma(data_buffer_tx[buffer_tracker], &hspi2, next_blank_page, cs_spi2);
 8000e4a:	4b2a      	ldr	r3, [pc, #168]	; (8000ef4 <main+0x1d0>)
 8000e4c:	781b      	ldrb	r3, [r3, #0]
 8000e4e:	021b      	lsls	r3, r3, #8
 8000e50:	4a29      	ldr	r2, [pc, #164]	; (8000ef8 <main+0x1d4>)
 8000e52:	1898      	adds	r0, r3, r2
 8000e54:	4b29      	ldr	r3, [pc, #164]	; (8000efc <main+0x1d8>)
 8000e56:	6819      	ldr	r1, [r3, #0]
 8000e58:	4b2a      	ldr	r3, [pc, #168]	; (8000f04 <main+0x1e0>)
 8000e5a:	685a      	ldr	r2, [r3, #4]
 8000e5c:	9200      	str	r2, [sp, #0]
 8000e5e:	681b      	ldr	r3, [r3, #0]
 8000e60:	460a      	mov	r2, r1
 8000e62:	491c      	ldr	r1, [pc, #112]	; (8000ed4 <main+0x1b0>)
 8000e64:	f7ff fdb6 	bl	80009d4 <write_data_spi_dma>
			  next_blank_page += PAGE_SIZE;
 8000e68:	4b24      	ldr	r3, [pc, #144]	; (8000efc <main+0x1d8>)
 8000e6a:	681b      	ldr	r3, [r3, #0]
 8000e6c:	f503 7380 	add.w	r3, r3, #256	; 0x100
 8000e70:	4a22      	ldr	r2, [pc, #136]	; (8000efc <main+0x1d8>)
 8000e72:	6013      	str	r3, [r2, #0]

			  HAL_GPIO_WritePin(led_green.GPIOx, led_green.GPIO_Pin, GPIO_PIN_RESET);		// Toggle LED when writing data
 8000e74:	4b12      	ldr	r3, [pc, #72]	; (8000ec0 <main+0x19c>)
 8000e76:	681b      	ldr	r3, [r3, #0]
 8000e78:	4a11      	ldr	r2, [pc, #68]	; (8000ec0 <main+0x19c>)
 8000e7a:	8891      	ldrh	r1, [r2, #4]
 8000e7c:	2200      	movs	r2, #0
 8000e7e:	4618      	mov	r0, r3
 8000e80:	f003 fda8 	bl	80049d4 <HAL_GPIO_WritePin>
		  }

		// Reset the buffer trackers
		buffer_tracker = buffer_tracker ^ 0x01;
 8000e84:	4b1b      	ldr	r3, [pc, #108]	; (8000ef4 <main+0x1d0>)
 8000e86:	781b      	ldrb	r3, [r3, #0]
 8000e88:	f083 0301 	eor.w	r3, r3, #1
 8000e8c:	b2da      	uxtb	r2, r3
 8000e8e:	4b19      	ldr	r3, [pc, #100]	; (8000ef4 <main+0x1d0>)
 8000e90:	701a      	strb	r2, [r3, #0]
		byte_tracker = 0;
 8000e92:	4b15      	ldr	r3, [pc, #84]	; (8000ee8 <main+0x1c4>)
 8000e94:	2200      	movs	r2, #0
 8000e96:	801a      	strh	r2, [r3, #0]
	  }

	  if(next_blank_page == (NUM_OF_PAGES*PAGE_SIZE)) {
 8000e98:	4b18      	ldr	r3, [pc, #96]	; (8000efc <main+0x1d8>)
 8000e9a:	681b      	ldr	r3, [r3, #0]
 8000e9c:	f1b3 7f80 	cmp.w	r3, #16777216	; 0x1000000
 8000ea0:	f47f af5f 	bne.w	8000d62 <main+0x3e>
		  next_blank_page = find_next_blank_page(&hspi1, &end_of_flash, cs_spi1);
 8000ea4:	4b16      	ldr	r3, [pc, #88]	; (8000f00 <main+0x1dc>)
 8000ea6:	cb0c      	ldmia	r3, {r2, r3}
 8000ea8:	4911      	ldr	r1, [pc, #68]	; (8000ef0 <main+0x1cc>)
 8000eaa:	480b      	ldr	r0, [pc, #44]	; (8000ed8 <main+0x1b4>)
 8000eac:	f7ff fdc0 	bl	8000a30 <find_next_blank_page>
 8000eb0:	4603      	mov	r3, r0
 8000eb2:	4a12      	ldr	r2, [pc, #72]	; (8000efc <main+0x1d8>)
 8000eb4:	6013      	str	r3, [r2, #0]
	  if(uart2_rec_flag == FLAG_SET) {
 8000eb6:	e754      	b.n	8000d62 <main+0x3e>
 8000eb8:	2000038a 	.word	0x2000038a
 8000ebc:	200003b4 	.word	0x200003b4
 8000ec0:	200005e4 	.word	0x200005e4
 8000ec4:	200003b6 	.word	0x200003b6
 8000ec8:	200005dc 	.word	0x200005dc
 8000ecc:	20000384 	.word	0x20000384
 8000ed0:	20000380 	.word	0x20000380
 8000ed4:	20000190 	.word	0x20000190
 8000ed8:	20000138 	.word	0x20000138
 8000edc:	20000614 	.word	0x20000614
 8000ee0:	200003b5 	.word	0x200003b5
 8000ee4:	20000118 	.word	0x20000118
 8000ee8:	200005d8 	.word	0x200005d8
 8000eec:	2000060c 	.word	0x2000060c
 8000ef0:	200005da 	.word	0x200005da
 8000ef4:	200005b8 	.word	0x200005b8
 8000ef8:	200003b8 	.word	0x200003b8
 8000efc:	200005d4 	.word	0x200005d4
 8000f00:	200005ec 	.word	0x200005ec
 8000f04:	200005fc 	.word	0x200005fc

08000f08 <SystemClock_Config>:
/**
  * @brief System Clock Configuration
  * @retval None
  */
void SystemClock_Config(void)
{
 8000f08:	b580      	push	{r7, lr}
 8000f0a:	b094      	sub	sp, #80	; 0x50
 8000f0c:	af00      	add	r7, sp, #0
  RCC_OscInitTypeDef RCC_OscInitStruct = {0};
 8000f0e:	f107 0320 	add.w	r3, r7, #32
 8000f12:	2230      	movs	r2, #48	; 0x30
 8000f14:	2100      	movs	r1, #0
 8000f16:	4618      	mov	r0, r3
 8000f18:	f008 f9bc 	bl	8009294 <memset>
  RCC_ClkInitTypeDef RCC_ClkInitStruct = {0};
 8000f1c:	f107 030c 	add.w	r3, r7, #12
 8000f20:	2200      	movs	r2, #0
 8000f22:	601a      	str	r2, [r3, #0]
 8000f24:	605a      	str	r2, [r3, #4]
 8000f26:	609a      	str	r2, [r3, #8]
 8000f28:	60da      	str	r2, [r3, #12]
 8000f2a:	611a      	str	r2, [r3, #16]

  /** Configure the main internal regulator output voltage
  */
  __HAL_RCC_PWR_CLK_ENABLE();
 8000f2c:	2300      	movs	r3, #0
 8000f2e:	60bb      	str	r3, [r7, #8]
 8000f30:	4b29      	ldr	r3, [pc, #164]	; (8000fd8 <SystemClock_Config+0xd0>)
 8000f32:	6c1b      	ldr	r3, [r3, #64]	; 0x40
 8000f34:	4a28      	ldr	r2, [pc, #160]	; (8000fd8 <SystemClock_Config+0xd0>)
 8000f36:	f043 5380 	orr.w	r3, r3, #268435456	; 0x10000000
 8000f3a:	6413      	str	r3, [r2, #64]	; 0x40
 8000f3c:	4b26      	ldr	r3, [pc, #152]	; (8000fd8 <SystemClock_Config+0xd0>)
 8000f3e:	6c1b      	ldr	r3, [r3, #64]	; 0x40
 8000f40:	f003 5380 	and.w	r3, r3, #268435456	; 0x10000000
 8000f44:	60bb      	str	r3, [r7, #8]
 8000f46:	68bb      	ldr	r3, [r7, #8]
  __HAL_PWR_VOLTAGESCALING_CONFIG(PWR_REGULATOR_VOLTAGE_SCALE1);
 8000f48:	2300      	movs	r3, #0
 8000f4a:	607b      	str	r3, [r7, #4]
 8000f4c:	4b23      	ldr	r3, [pc, #140]	; (8000fdc <SystemClock_Config+0xd4>)
 8000f4e:	681b      	ldr	r3, [r3, #0]
 8000f50:	4a22      	ldr	r2, [pc, #136]	; (8000fdc <SystemClock_Config+0xd4>)
 8000f52:	f443 4340 	orr.w	r3, r3, #49152	; 0xc000
 8000f56:	6013      	str	r3, [r2, #0]
 8000f58:	4b20      	ldr	r3, [pc, #128]	; (8000fdc <SystemClock_Config+0xd4>)
 8000f5a:	681b      	ldr	r3, [r3, #0]
 8000f5c:	f403 4340 	and.w	r3, r3, #49152	; 0xc000
 8000f60:	607b      	str	r3, [r7, #4]
 8000f62:	687b      	ldr	r3, [r7, #4]

  /** Initializes the RCC Oscillators according to the specified parameters
  * in the RCC_OscInitTypeDef structure.
  */
  RCC_OscInitStruct.OscillatorType = RCC_OSCILLATORTYPE_LSI|RCC_OSCILLATORTYPE_HSE;
 8000f64:	2309      	movs	r3, #9
 8000f66:	623b      	str	r3, [r7, #32]
  RCC_OscInitStruct.HSEState = RCC_HSE_ON;
 8000f68:	f44f 3380 	mov.w	r3, #65536	; 0x10000
 8000f6c:	627b      	str	r3, [r7, #36]	; 0x24
  RCC_OscInitStruct.LSIState = RCC_LSI_ON;
 8000f6e:	2301      	movs	r3, #1
 8000f70:	637b      	str	r3, [r7, #52]	; 0x34
  RCC_OscInitStruct.PLL.PLLState = RCC_PLL_ON;
 8000f72:	2302      	movs	r3, #2
 8000f74:	63bb      	str	r3, [r7, #56]	; 0x38
  RCC_OscInitStruct.PLL.PLLSource = RCC_PLLSOURCE_HSE;
 8000f76:	f44f 0380 	mov.w	r3, #4194304	; 0x400000
 8000f7a:	63fb      	str	r3, [r7, #60]	; 0x3c
  RCC_OscInitStruct.PLL.PLLM = 25;
 8000f7c:	2319      	movs	r3, #25
 8000f7e:	643b      	str	r3, [r7, #64]	; 0x40
  RCC_OscInitStruct.PLL.PLLN = 336;
 8000f80:	f44f 73a8 	mov.w	r3, #336	; 0x150
 8000f84:	647b      	str	r3, [r7, #68]	; 0x44
  RCC_OscInitStruct.PLL.PLLP = RCC_PLLP_DIV2;
 8000f86:	2302      	movs	r3, #2
 8000f88:	64bb      	str	r3, [r7, #72]	; 0x48
  RCC_OscInitStruct.PLL.PLLQ = 4;
 8000f8a:	2304      	movs	r3, #4
 8000f8c:	64fb      	str	r3, [r7, #76]	; 0x4c
  if (HAL_RCC_OscConfig(&RCC_OscInitStruct) != HAL_OK)
 8000f8e:	f107 0320 	add.w	r3, r7, #32
 8000f92:	4618      	mov	r0, r3
 8000f94:	f004 fdc8 	bl	8005b28 <HAL_RCC_OscConfig>
 8000f98:	4603      	mov	r3, r0
 8000f9a:	2b00      	cmp	r3, #0
 8000f9c:	d001      	beq.n	8000fa2 <SystemClock_Config+0x9a>
  {
    Error_Handler();
 8000f9e:	f000 fe99 	bl	8001cd4 <Error_Handler>
  }

  /** Initializes the CPU, AHB and APB buses clocks
  */
  RCC_ClkInitStruct.ClockType = RCC_CLOCKTYPE_HCLK|RCC_CLOCKTYPE_SYSCLK
 8000fa2:	230f      	movs	r3, #15
 8000fa4:	60fb      	str	r3, [r7, #12]
                              |RCC_CLOCKTYPE_PCLK1|RCC_CLOCKTYPE_PCLK2;
  RCC_ClkInitStruct.SYSCLKSource = RCC_SYSCLKSOURCE_PLLCLK;
 8000fa6:	2302      	movs	r3, #2
 8000fa8:	613b      	str	r3, [r7, #16]
  RCC_ClkInitStruct.AHBCLKDivider = RCC_SYSCLK_DIV1;
 8000faa:	2300      	movs	r3, #0
 8000fac:	617b      	str	r3, [r7, #20]
  RCC_ClkInitStruct.APB1CLKDivider = RCC_HCLK_DIV4;
 8000fae:	f44f 53a0 	mov.w	r3, #5120	; 0x1400
 8000fb2:	61bb      	str	r3, [r7, #24]
  RCC_ClkInitStruct.APB2CLKDivider = RCC_HCLK_DIV2;
 8000fb4:	f44f 5380 	mov.w	r3, #4096	; 0x1000
 8000fb8:	61fb      	str	r3, [r7, #28]

  if (HAL_RCC_ClockConfig(&RCC_ClkInitStruct, FLASH_LATENCY_5) != HAL_OK)
 8000fba:	f107 030c 	add.w	r3, r7, #12
 8000fbe:	2105      	movs	r1, #5
 8000fc0:	4618      	mov	r0, r3
 8000fc2:	f005 f829 	bl	8006018 <HAL_RCC_ClockConfig>
 8000fc6:	4603      	mov	r3, r0
 8000fc8:	2b00      	cmp	r3, #0
 8000fca:	d001      	beq.n	8000fd0 <SystemClock_Config+0xc8>
  {
    Error_Handler();
 8000fcc:	f000 fe82 	bl	8001cd4 <Error_Handler>
  }
}
 8000fd0:	bf00      	nop
 8000fd2:	3750      	adds	r7, #80	; 0x50
 8000fd4:	46bd      	mov	sp, r7
 8000fd6:	bd80      	pop	{r7, pc}
 8000fd8:	40023800 	.word	0x40023800
 8000fdc:	40007000 	.word	0x40007000

08000fe0 <MX_CAN2_Init>:
  * @brief CAN2 Initialization Function
  * @param None
  * @retval None
  */
static void MX_CAN2_Init(void)
{
 8000fe0:	b580      	push	{r7, lr}
 8000fe2:	af00      	add	r7, sp, #0
  /* USER CODE END CAN2_Init 0 */

  /* USER CODE BEGIN CAN2_Init 1 */

  /* USER CODE END CAN2_Init 1 */
  hcan2.Instance = CAN2;
 8000fe4:	4b18      	ldr	r3, [pc, #96]	; (8001048 <MX_CAN2_Init+0x68>)
 8000fe6:	4a19      	ldr	r2, [pc, #100]	; (800104c <MX_CAN2_Init+0x6c>)
 8000fe8:	601a      	str	r2, [r3, #0]
  hcan2.Init.Prescaler = 24;
 8000fea:	4b17      	ldr	r3, [pc, #92]	; (8001048 <MX_CAN2_Init+0x68>)
 8000fec:	2218      	movs	r2, #24
 8000fee:	605a      	str	r2, [r3, #4]
  hcan2.Init.Mode = CAN_MODE_NORMAL;
 8000ff0:	4b15      	ldr	r3, [pc, #84]	; (8001048 <MX_CAN2_Init+0x68>)
 8000ff2:	2200      	movs	r2, #0
 8000ff4:	609a      	str	r2, [r3, #8]
  hcan2.Init.SyncJumpWidth = CAN_SJW_2TQ;
 8000ff6:	4b14      	ldr	r3, [pc, #80]	; (8001048 <MX_CAN2_Init+0x68>)
 8000ff8:	f04f 7280 	mov.w	r2, #16777216	; 0x1000000
 8000ffc:	60da      	str	r2, [r3, #12]
  hcan2.Init.TimeSeg1 = CAN_BS1_11TQ;
 8000ffe:	4b12      	ldr	r3, [pc, #72]	; (8001048 <MX_CAN2_Init+0x68>)
 8001000:	f44f 2220 	mov.w	r2, #655360	; 0xa0000
 8001004:	611a      	str	r2, [r3, #16]
  hcan2.Init.TimeSeg2 = CAN_BS2_2TQ;
 8001006:	4b10      	ldr	r3, [pc, #64]	; (8001048 <MX_CAN2_Init+0x68>)
 8001008:	f44f 1280 	mov.w	r2, #1048576	; 0x100000
 800100c:	615a      	str	r2, [r3, #20]
  hcan2.Init.TimeTriggeredMode = DISABLE;
 800100e:	4b0e      	ldr	r3, [pc, #56]	; (8001048 <MX_CAN2_Init+0x68>)
 8001010:	2200      	movs	r2, #0
 8001012:	761a      	strb	r2, [r3, #24]
  hcan2.Init.AutoBusOff = DISABLE;
 8001014:	4b0c      	ldr	r3, [pc, #48]	; (8001048 <MX_CAN2_Init+0x68>)
 8001016:	2200      	movs	r2, #0
 8001018:	765a      	strb	r2, [r3, #25]
  hcan2.Init.AutoWakeUp = DISABLE;
 800101a:	4b0b      	ldr	r3, [pc, #44]	; (8001048 <MX_CAN2_Init+0x68>)
 800101c:	2200      	movs	r2, #0
 800101e:	769a      	strb	r2, [r3, #26]
  hcan2.Init.AutoRetransmission = DISABLE;
 8001020:	4b09      	ldr	r3, [pc, #36]	; (8001048 <MX_CAN2_Init+0x68>)
 8001022:	2200      	movs	r2, #0
 8001024:	76da      	strb	r2, [r3, #27]
  hcan2.Init.ReceiveFifoLocked = DISABLE;
 8001026:	4b08      	ldr	r3, [pc, #32]	; (8001048 <MX_CAN2_Init+0x68>)
 8001028:	2200      	movs	r2, #0
 800102a:	771a      	strb	r2, [r3, #28]
  hcan2.Init.TransmitFifoPriority = DISABLE;
 800102c:	4b06      	ldr	r3, [pc, #24]	; (8001048 <MX_CAN2_Init+0x68>)
 800102e:	2200      	movs	r2, #0
 8001030:	775a      	strb	r2, [r3, #29]
  if (HAL_CAN_Init(&hcan2) != HAL_OK)
 8001032:	4805      	ldr	r0, [pc, #20]	; (8001048 <MX_CAN2_Init+0x68>)
 8001034:	f001 ff8e 	bl	8002f54 <HAL_CAN_Init>
 8001038:	4603      	mov	r3, r0
 800103a:	2b00      	cmp	r3, #0
 800103c:	d001      	beq.n	8001042 <MX_CAN2_Init+0x62>
  {
    Error_Handler();
 800103e:	f000 fe49 	bl	8001cd4 <Error_Handler>
  }
  /* USER CODE BEGIN CAN2_Init 2 */

  /* USER CODE END CAN2_Init 2 */

}
 8001042:	bf00      	nop
 8001044:	bd80      	pop	{r7, pc}
 8001046:	bf00      	nop
 8001048:	20000048 	.word	0x20000048
 800104c:	40006800 	.word	0x40006800

08001050 <MX_I2C1_Init>:
  * @brief I2C1 Initialization Function
  * @param None
  * @retval None
  */
static void MX_I2C1_Init(void)
{
 8001050:	b580      	push	{r7, lr}
 8001052:	af00      	add	r7, sp, #0
  /* USER CODE END I2C1_Init 0 */

  /* USER CODE BEGIN I2C1_Init 1 */

  /* USER CODE END I2C1_Init 1 */
  hi2c1.Instance = I2C1;
 8001054:	4b1b      	ldr	r3, [pc, #108]	; (80010c4 <MX_I2C1_Init+0x74>)
 8001056:	4a1c      	ldr	r2, [pc, #112]	; (80010c8 <MX_I2C1_Init+0x78>)
 8001058:	601a      	str	r2, [r3, #0]
  hi2c1.Init.ClockSpeed = 100000;
 800105a:	4b1a      	ldr	r3, [pc, #104]	; (80010c4 <MX_I2C1_Init+0x74>)
 800105c:	4a1b      	ldr	r2, [pc, #108]	; (80010cc <MX_I2C1_Init+0x7c>)
 800105e:	605a      	str	r2, [r3, #4]
  hi2c1.Init.DutyCycle = I2C_DUTYCYCLE_2;
 8001060:	4b18      	ldr	r3, [pc, #96]	; (80010c4 <MX_I2C1_Init+0x74>)
 8001062:	2200      	movs	r2, #0
 8001064:	609a      	str	r2, [r3, #8]
  hi2c1.Init.OwnAddress1 = 0;
 8001066:	4b17      	ldr	r3, [pc, #92]	; (80010c4 <MX_I2C1_Init+0x74>)
 8001068:	2200      	movs	r2, #0
 800106a:	60da      	str	r2, [r3, #12]
  hi2c1.Init.AddressingMode = I2C_ADDRESSINGMODE_7BIT;
 800106c:	4b15      	ldr	r3, [pc, #84]	; (80010c4 <MX_I2C1_Init+0x74>)
 800106e:	f44f 4280 	mov.w	r2, #16384	; 0x4000
 8001072:	611a      	str	r2, [r3, #16]
  hi2c1.Init.DualAddressMode = I2C_DUALADDRESS_DISABLE;
 8001074:	4b13      	ldr	r3, [pc, #76]	; (80010c4 <MX_I2C1_Init+0x74>)
 8001076:	2200      	movs	r2, #0
 8001078:	615a      	str	r2, [r3, #20]
  hi2c1.Init.OwnAddress2 = 0;
 800107a:	4b12      	ldr	r3, [pc, #72]	; (80010c4 <MX_I2C1_Init+0x74>)
 800107c:	2200      	movs	r2, #0
 800107e:	619a      	str	r2, [r3, #24]
  hi2c1.Init.GeneralCallMode = I2C_GENERALCALL_DISABLE;
 8001080:	4b10      	ldr	r3, [pc, #64]	; (80010c4 <MX_I2C1_Init+0x74>)
 8001082:	2200      	movs	r2, #0
 8001084:	61da      	str	r2, [r3, #28]
  hi2c1.Init.NoStretchMode = I2C_NOSTRETCH_DISABLE;
 8001086:	4b0f      	ldr	r3, [pc, #60]	; (80010c4 <MX_I2C1_Init+0x74>)
 8001088:	2200      	movs	r2, #0
 800108a:	621a      	str	r2, [r3, #32]
  if (HAL_I2C_Init(&hi2c1) != HAL_OK)
 800108c:	480d      	ldr	r0, [pc, #52]	; (80010c4 <MX_I2C1_Init+0x74>)
 800108e:	f003 fcd5 	bl	8004a3c <HAL_I2C_Init>
 8001092:	4603      	mov	r3, r0
 8001094:	2b00      	cmp	r3, #0
 8001096:	d001      	beq.n	800109c <MX_I2C1_Init+0x4c>
  {
    Error_Handler();
 8001098:	f000 fe1c 	bl	8001cd4 <Error_Handler>
  }

  /** Configure Analogue filter
  */
  if (HAL_I2CEx_ConfigAnalogFilter(&hi2c1, I2C_ANALOGFILTER_ENABLE) != HAL_OK)
 800109c:	2100      	movs	r1, #0
 800109e:	4809      	ldr	r0, [pc, #36]	; (80010c4 <MX_I2C1_Init+0x74>)
 80010a0:	f004 fcc6 	bl	8005a30 <HAL_I2CEx_ConfigAnalogFilter>
 80010a4:	4603      	mov	r3, r0
 80010a6:	2b00      	cmp	r3, #0
 80010a8:	d001      	beq.n	80010ae <MX_I2C1_Init+0x5e>
  {
    Error_Handler();
 80010aa:	f000 fe13 	bl	8001cd4 <Error_Handler>
  }

  /** Configure Digital filter
  */
  if (HAL_I2CEx_ConfigDigitalFilter(&hi2c1, 0) != HAL_OK)
 80010ae:	2100      	movs	r1, #0
 80010b0:	4804      	ldr	r0, [pc, #16]	; (80010c4 <MX_I2C1_Init+0x74>)
 80010b2:	f004 fcf9 	bl	8005aa8 <HAL_I2CEx_ConfigDigitalFilter>
 80010b6:	4603      	mov	r3, r0
 80010b8:	2b00      	cmp	r3, #0
 80010ba:	d001      	beq.n	80010c0 <MX_I2C1_Init+0x70>
  {
    Error_Handler();
 80010bc:	f000 fe0a 	bl	8001cd4 <Error_Handler>
  }
  /* USER CODE BEGIN I2C1_Init 2 */

  /* USER CODE END I2C1_Init 2 */

}
 80010c0:	bf00      	nop
 80010c2:	bd80      	pop	{r7, pc}
 80010c4:	20000070 	.word	0x20000070
 80010c8:	40005400 	.word	0x40005400
 80010cc:	000186a0 	.word	0x000186a0

080010d0 <MX_I2C2_Init>:
  * @brief I2C2 Initialization Function
  * @param None
  * @retval None
  */
static void MX_I2C2_Init(void)
{
 80010d0:	b580      	push	{r7, lr}
 80010d2:	af00      	add	r7, sp, #0
  /* USER CODE END I2C2_Init 0 */

  /* USER CODE BEGIN I2C2_Init 1 */

  /* USER CODE END I2C2_Init 1 */
  hi2c2.Instance = I2C2;
 80010d4:	4b1b      	ldr	r3, [pc, #108]	; (8001144 <MX_I2C2_Init+0x74>)
 80010d6:	4a1c      	ldr	r2, [pc, #112]	; (8001148 <MX_I2C2_Init+0x78>)
 80010d8:	601a      	str	r2, [r3, #0]
  hi2c2.Init.ClockSpeed = 100000;
 80010da:	4b1a      	ldr	r3, [pc, #104]	; (8001144 <MX_I2C2_Init+0x74>)
 80010dc:	4a1b      	ldr	r2, [pc, #108]	; (800114c <MX_I2C2_Init+0x7c>)
 80010de:	605a      	str	r2, [r3, #4]
  hi2c2.Init.DutyCycle = I2C_DUTYCYCLE_2;
 80010e0:	4b18      	ldr	r3, [pc, #96]	; (8001144 <MX_I2C2_Init+0x74>)
 80010e2:	2200      	movs	r2, #0
 80010e4:	609a      	str	r2, [r3, #8]
  hi2c2.Init.OwnAddress1 = 0;
 80010e6:	4b17      	ldr	r3, [pc, #92]	; (8001144 <MX_I2C2_Init+0x74>)
 80010e8:	2200      	movs	r2, #0
 80010ea:	60da      	str	r2, [r3, #12]
  hi2c2.Init.AddressingMode = I2C_ADDRESSINGMODE_7BIT;
 80010ec:	4b15      	ldr	r3, [pc, #84]	; (8001144 <MX_I2C2_Init+0x74>)
 80010ee:	f44f 4280 	mov.w	r2, #16384	; 0x4000
 80010f2:	611a      	str	r2, [r3, #16]
  hi2c2.Init.DualAddressMode = I2C_DUALADDRESS_DISABLE;
 80010f4:	4b13      	ldr	r3, [pc, #76]	; (8001144 <MX_I2C2_Init+0x74>)
 80010f6:	2200      	movs	r2, #0
 80010f8:	615a      	str	r2, [r3, #20]
  hi2c2.Init.OwnAddress2 = 0;
 80010fa:	4b12      	ldr	r3, [pc, #72]	; (8001144 <MX_I2C2_Init+0x74>)
 80010fc:	2200      	movs	r2, #0
 80010fe:	619a      	str	r2, [r3, #24]
  hi2c2.Init.GeneralCallMode = I2C_GENERALCALL_DISABLE;
 8001100:	4b10      	ldr	r3, [pc, #64]	; (8001144 <MX_I2C2_Init+0x74>)
 8001102:	2200      	movs	r2, #0
 8001104:	61da      	str	r2, [r3, #28]
  hi2c2.Init.NoStretchMode = I2C_NOSTRETCH_DISABLE;
 8001106:	4b0f      	ldr	r3, [pc, #60]	; (8001144 <MX_I2C2_Init+0x74>)
 8001108:	2200      	movs	r2, #0
 800110a:	621a      	str	r2, [r3, #32]
  if (HAL_I2C_Init(&hi2c2) != HAL_OK)
 800110c:	480d      	ldr	r0, [pc, #52]	; (8001144 <MX_I2C2_Init+0x74>)
 800110e:	f003 fc95 	bl	8004a3c <HAL_I2C_Init>
 8001112:	4603      	mov	r3, r0
 8001114:	2b00      	cmp	r3, #0
 8001116:	d001      	beq.n	800111c <MX_I2C2_Init+0x4c>
  {
    Error_Handler();
 8001118:	f000 fddc 	bl	8001cd4 <Error_Handler>
  }

  /** Configure Analogue filter
  */
  if (HAL_I2CEx_ConfigAnalogFilter(&hi2c2, I2C_ANALOGFILTER_ENABLE) != HAL_OK)
 800111c:	2100      	movs	r1, #0
 800111e:	4809      	ldr	r0, [pc, #36]	; (8001144 <MX_I2C2_Init+0x74>)
 8001120:	f004 fc86 	bl	8005a30 <HAL_I2CEx_ConfigAnalogFilter>
 8001124:	4603      	mov	r3, r0
 8001126:	2b00      	cmp	r3, #0
 8001128:	d001      	beq.n	800112e <MX_I2C2_Init+0x5e>
  {
    Error_Handler();
 800112a:	f000 fdd3 	bl	8001cd4 <Error_Handler>
  }

  /** Configure Digital filter
  */
  if (HAL_I2CEx_ConfigDigitalFilter(&hi2c2, 0) != HAL_OK)
 800112e:	2100      	movs	r1, #0
 8001130:	4804      	ldr	r0, [pc, #16]	; (8001144 <MX_I2C2_Init+0x74>)
 8001132:	f004 fcb9 	bl	8005aa8 <HAL_I2CEx_ConfigDigitalFilter>
 8001136:	4603      	mov	r3, r0
 8001138:	2b00      	cmp	r3, #0
 800113a:	d001      	beq.n	8001140 <MX_I2C2_Init+0x70>
  {
    Error_Handler();
 800113c:	f000 fdca 	bl	8001cd4 <Error_Handler>
  }
  /* USER CODE BEGIN I2C2_Init 2 */

  /* USER CODE END I2C2_Init 2 */

}
 8001140:	bf00      	nop
 8001142:	bd80      	pop	{r7, pc}
 8001144:	200000c4 	.word	0x200000c4
 8001148:	40005800 	.word	0x40005800
 800114c:	000186a0 	.word	0x000186a0

08001150 <MX_RTC_Init>:
  * @brief RTC Initialization Function
  * @param None
  * @retval None
  */
static void MX_RTC_Init(void)
{
 8001150:	b580      	push	{r7, lr}
 8001152:	af00      	add	r7, sp, #0

  /* USER CODE END RTC_Init 1 */

  /** Initialize RTC Only
  */
  hrtc.Instance = RTC;
 8001154:	4b0f      	ldr	r3, [pc, #60]	; (8001194 <MX_RTC_Init+0x44>)
 8001156:	4a10      	ldr	r2, [pc, #64]	; (8001198 <MX_RTC_Init+0x48>)
 8001158:	601a      	str	r2, [r3, #0]
  hrtc.Init.HourFormat = RTC_HOURFORMAT_24;
 800115a:	4b0e      	ldr	r3, [pc, #56]	; (8001194 <MX_RTC_Init+0x44>)
 800115c:	2200      	movs	r2, #0
 800115e:	605a      	str	r2, [r3, #4]
  hrtc.Init.AsynchPrediv = 127;
 8001160:	4b0c      	ldr	r3, [pc, #48]	; (8001194 <MX_RTC_Init+0x44>)
 8001162:	227f      	movs	r2, #127	; 0x7f
 8001164:	609a      	str	r2, [r3, #8]
  hrtc.Init.SynchPrediv = 255;
 8001166:	4b0b      	ldr	r3, [pc, #44]	; (8001194 <MX_RTC_Init+0x44>)
 8001168:	22ff      	movs	r2, #255	; 0xff
 800116a:	60da      	str	r2, [r3, #12]
  hrtc.Init.OutPut = RTC_OUTPUT_DISABLE;
 800116c:	4b09      	ldr	r3, [pc, #36]	; (8001194 <MX_RTC_Init+0x44>)
 800116e:	2200      	movs	r2, #0
 8001170:	611a      	str	r2, [r3, #16]
  hrtc.Init.OutPutPolarity = RTC_OUTPUT_POLARITY_HIGH;
 8001172:	4b08      	ldr	r3, [pc, #32]	; (8001194 <MX_RTC_Init+0x44>)
 8001174:	2200      	movs	r2, #0
 8001176:	615a      	str	r2, [r3, #20]
  hrtc.Init.OutPutType = RTC_OUTPUT_TYPE_OPENDRAIN;
 8001178:	4b06      	ldr	r3, [pc, #24]	; (8001194 <MX_RTC_Init+0x44>)
 800117a:	2200      	movs	r2, #0
 800117c:	619a      	str	r2, [r3, #24]
  if (HAL_RTC_Init(&hrtc) != HAL_OK)
 800117e:	4805      	ldr	r0, [pc, #20]	; (8001194 <MX_RTC_Init+0x44>)
 8001180:	f005 faea 	bl	8006758 <HAL_RTC_Init>
 8001184:	4603      	mov	r3, r0
 8001186:	2b00      	cmp	r3, #0
 8001188:	d001      	beq.n	800118e <MX_RTC_Init+0x3e>
  {
    Error_Handler();
 800118a:	f000 fda3 	bl	8001cd4 <Error_Handler>
  }
  /* USER CODE BEGIN RTC_Init 2 */

  /* USER CODE END RTC_Init 2 */

}
 800118e:	bf00      	nop
 8001190:	bd80      	pop	{r7, pc}
 8001192:	bf00      	nop
 8001194:	20000118 	.word	0x20000118
 8001198:	40002800 	.word	0x40002800

0800119c <MX_SPI1_Init>:
  * @brief SPI1 Initialization Function
  * @param None
  * @retval None
  */
static void MX_SPI1_Init(void)
{
 800119c:	b580      	push	{r7, lr}
 800119e:	af00      	add	r7, sp, #0

  /* USER CODE BEGIN SPI1_Init 1 */

  /* USER CODE END SPI1_Init 1 */
  /* SPI1 parameter configuration*/
  hspi1.Instance = SPI1;
 80011a0:	4b17      	ldr	r3, [pc, #92]	; (8001200 <MX_SPI1_Init+0x64>)
 80011a2:	4a18      	ldr	r2, [pc, #96]	; (8001204 <MX_SPI1_Init+0x68>)
 80011a4:	601a      	str	r2, [r3, #0]
  hspi1.Init.Mode = SPI_MODE_MASTER;
 80011a6:	4b16      	ldr	r3, [pc, #88]	; (8001200 <MX_SPI1_Init+0x64>)
 80011a8:	f44f 7282 	mov.w	r2, #260	; 0x104
 80011ac:	605a      	str	r2, [r3, #4]
  hspi1.Init.Direction = SPI_DIRECTION_2LINES;
 80011ae:	4b14      	ldr	r3, [pc, #80]	; (8001200 <MX_SPI1_Init+0x64>)
 80011b0:	2200      	movs	r2, #0
 80011b2:	609a      	str	r2, [r3, #8]
  hspi1.Init.DataSize = SPI_DATASIZE_8BIT;
 80011b4:	4b12      	ldr	r3, [pc, #72]	; (8001200 <MX_SPI1_Init+0x64>)
 80011b6:	2200      	movs	r2, #0
 80011b8:	60da      	str	r2, [r3, #12]
  hspi1.Init.CLKPolarity = SPI_POLARITY_LOW;
 80011ba:	4b11      	ldr	r3, [pc, #68]	; (8001200 <MX_SPI1_Init+0x64>)
 80011bc:	2200      	movs	r2, #0
 80011be:	611a      	str	r2, [r3, #16]
  hspi1.Init.CLKPhase = SPI_PHASE_1EDGE;
 80011c0:	4b0f      	ldr	r3, [pc, #60]	; (8001200 <MX_SPI1_Init+0x64>)
 80011c2:	2200      	movs	r2, #0
 80011c4:	615a      	str	r2, [r3, #20]
  hspi1.Init.NSS = SPI_NSS_SOFT;
 80011c6:	4b0e      	ldr	r3, [pc, #56]	; (8001200 <MX_SPI1_Init+0x64>)
 80011c8:	f44f 7200 	mov.w	r2, #512	; 0x200
 80011cc:	619a      	str	r2, [r3, #24]
  hspi1.Init.BaudRatePrescaler = SPI_BAUDRATEPRESCALER_2;
 80011ce:	4b0c      	ldr	r3, [pc, #48]	; (8001200 <MX_SPI1_Init+0x64>)
 80011d0:	2200      	movs	r2, #0
 80011d2:	61da      	str	r2, [r3, #28]
  hspi1.Init.FirstBit = SPI_FIRSTBIT_MSB;
 80011d4:	4b0a      	ldr	r3, [pc, #40]	; (8001200 <MX_SPI1_Init+0x64>)
 80011d6:	2200      	movs	r2, #0
 80011d8:	621a      	str	r2, [r3, #32]
  hspi1.Init.TIMode = SPI_TIMODE_DISABLE;
 80011da:	4b09      	ldr	r3, [pc, #36]	; (8001200 <MX_SPI1_Init+0x64>)
 80011dc:	2200      	movs	r2, #0
 80011de:	625a      	str	r2, [r3, #36]	; 0x24
  hspi1.Init.CRCCalculation = SPI_CRCCALCULATION_DISABLE;
 80011e0:	4b07      	ldr	r3, [pc, #28]	; (8001200 <MX_SPI1_Init+0x64>)
 80011e2:	2200      	movs	r2, #0
 80011e4:	629a      	str	r2, [r3, #40]	; 0x28
  hspi1.Init.CRCPolynomial = 10;
 80011e6:	4b06      	ldr	r3, [pc, #24]	; (8001200 <MX_SPI1_Init+0x64>)
 80011e8:	220a      	movs	r2, #10
 80011ea:	62da      	str	r2, [r3, #44]	; 0x2c
  if (HAL_SPI_Init(&hspi1) != HAL_OK)
 80011ec:	4804      	ldr	r0, [pc, #16]	; (8001200 <MX_SPI1_Init+0x64>)
 80011ee:	f005 fdbf 	bl	8006d70 <HAL_SPI_Init>
 80011f2:	4603      	mov	r3, r0
 80011f4:	2b00      	cmp	r3, #0
 80011f6:	d001      	beq.n	80011fc <MX_SPI1_Init+0x60>
  {
    Error_Handler();
 80011f8:	f000 fd6c 	bl	8001cd4 <Error_Handler>
  }
  /* USER CODE BEGIN SPI1_Init 2 */

  /* USER CODE END SPI1_Init 2 */

}
 80011fc:	bf00      	nop
 80011fe:	bd80      	pop	{r7, pc}
 8001200:	20000138 	.word	0x20000138
 8001204:	40013000 	.word	0x40013000

08001208 <MX_SPI2_Init>:
  * @brief SPI2 Initialization Function
  * @param None
  * @retval None
  */
static void MX_SPI2_Init(void)
{
 8001208:	b580      	push	{r7, lr}
 800120a:	af00      	add	r7, sp, #0

  /* USER CODE BEGIN SPI2_Init 1 */

  /* USER CODE END SPI2_Init 1 */
  /* SPI2 parameter configuration*/
  hspi2.Instance = SPI2;
 800120c:	4b17      	ldr	r3, [pc, #92]	; (800126c <MX_SPI2_Init+0x64>)
 800120e:	4a18      	ldr	r2, [pc, #96]	; (8001270 <MX_SPI2_Init+0x68>)
 8001210:	601a      	str	r2, [r3, #0]
  hspi2.Init.Mode = SPI_MODE_MASTER;
 8001212:	4b16      	ldr	r3, [pc, #88]	; (800126c <MX_SPI2_Init+0x64>)
 8001214:	f44f 7282 	mov.w	r2, #260	; 0x104
 8001218:	605a      	str	r2, [r3, #4]
  hspi2.Init.Direction = SPI_DIRECTION_2LINES;
 800121a:	4b14      	ldr	r3, [pc, #80]	; (800126c <MX_SPI2_Init+0x64>)
 800121c:	2200      	movs	r2, #0
 800121e:	609a      	str	r2, [r3, #8]
  hspi2.Init.DataSize = SPI_DATASIZE_8BIT;
 8001220:	4b12      	ldr	r3, [pc, #72]	; (800126c <MX_SPI2_Init+0x64>)
 8001222:	2200      	movs	r2, #0
 8001224:	60da      	str	r2, [r3, #12]
  hspi2.Init.CLKPolarity = SPI_POLARITY_LOW;
 8001226:	4b11      	ldr	r3, [pc, #68]	; (800126c <MX_SPI2_Init+0x64>)
 8001228:	2200      	movs	r2, #0
 800122a:	611a      	str	r2, [r3, #16]
  hspi2.Init.CLKPhase = SPI_PHASE_1EDGE;
 800122c:	4b0f      	ldr	r3, [pc, #60]	; (800126c <MX_SPI2_Init+0x64>)
 800122e:	2200      	movs	r2, #0
 8001230:	615a      	str	r2, [r3, #20]
  hspi2.Init.NSS = SPI_NSS_SOFT;
 8001232:	4b0e      	ldr	r3, [pc, #56]	; (800126c <MX_SPI2_Init+0x64>)
 8001234:	f44f 7200 	mov.w	r2, #512	; 0x200
 8001238:	619a      	str	r2, [r3, #24]
  hspi2.Init.BaudRatePrescaler = SPI_BAUDRATEPRESCALER_2;
 800123a:	4b0c      	ldr	r3, [pc, #48]	; (800126c <MX_SPI2_Init+0x64>)
 800123c:	2200      	movs	r2, #0
 800123e:	61da      	str	r2, [r3, #28]
  hspi2.Init.FirstBit = SPI_FIRSTBIT_MSB;
 8001240:	4b0a      	ldr	r3, [pc, #40]	; (800126c <MX_SPI2_Init+0x64>)
 8001242:	2200      	movs	r2, #0
 8001244:	621a      	str	r2, [r3, #32]
  hspi2.Init.TIMode = SPI_TIMODE_DISABLE;
 8001246:	4b09      	ldr	r3, [pc, #36]	; (800126c <MX_SPI2_Init+0x64>)
 8001248:	2200      	movs	r2, #0
 800124a:	625a      	str	r2, [r3, #36]	; 0x24
  hspi2.Init.CRCCalculation = SPI_CRCCALCULATION_DISABLE;
 800124c:	4b07      	ldr	r3, [pc, #28]	; (800126c <MX_SPI2_Init+0x64>)
 800124e:	2200      	movs	r2, #0
 8001250:	629a      	str	r2, [r3, #40]	; 0x28
  hspi2.Init.CRCPolynomial = 10;
 8001252:	4b06      	ldr	r3, [pc, #24]	; (800126c <MX_SPI2_Init+0x64>)
 8001254:	220a      	movs	r2, #10
 8001256:	62da      	str	r2, [r3, #44]	; 0x2c
  if (HAL_SPI_Init(&hspi2) != HAL_OK)
 8001258:	4804      	ldr	r0, [pc, #16]	; (800126c <MX_SPI2_Init+0x64>)
 800125a:	f005 fd89 	bl	8006d70 <HAL_SPI_Init>
 800125e:	4603      	mov	r3, r0
 8001260:	2b00      	cmp	r3, #0
 8001262:	d001      	beq.n	8001268 <MX_SPI2_Init+0x60>
  {
    Error_Handler();
 8001264:	f000 fd36 	bl	8001cd4 <Error_Handler>
  }
  /* USER CODE BEGIN SPI2_Init 2 */

  /* USER CODE END SPI2_Init 2 */

}
 8001268:	bf00      	nop
 800126a:	bd80      	pop	{r7, pc}
 800126c:	20000190 	.word	0x20000190
 8001270:	40003800 	.word	0x40003800

08001274 <MX_TIM6_Init>:
  * @brief TIM6 Initialization Function
  * @param None
  * @retval None
  */
static void MX_TIM6_Init(void)
{
 8001274:	b580      	push	{r7, lr}
 8001276:	b082      	sub	sp, #8
 8001278:	af00      	add	r7, sp, #0

  /* USER CODE BEGIN TIM6_Init 0 */

  /* USER CODE END TIM6_Init 0 */

  TIM_MasterConfigTypeDef sMasterConfig = {0};
 800127a:	463b      	mov	r3, r7
 800127c:	2200      	movs	r2, #0
 800127e:	601a      	str	r2, [r3, #0]
 8001280:	605a      	str	r2, [r3, #4]

  /* USER CODE BEGIN TIM6_Init 1 */

  /* USER CODE END TIM6_Init 1 */
  htim6.Instance = TIM6;
 8001282:	4b15      	ldr	r3, [pc, #84]	; (80012d8 <MX_TIM6_Init+0x64>)
 8001284:	4a15      	ldr	r2, [pc, #84]	; (80012dc <MX_TIM6_Init+0x68>)
 8001286:	601a      	str	r2, [r3, #0]
  htim6.Init.Prescaler = 20999;
 8001288:	4b13      	ldr	r3, [pc, #76]	; (80012d8 <MX_TIM6_Init+0x64>)
 800128a:	f245 2207 	movw	r2, #20999	; 0x5207
 800128e:	605a      	str	r2, [r3, #4]
  htim6.Init.CounterMode = TIM_COUNTERMODE_UP;
 8001290:	4b11      	ldr	r3, [pc, #68]	; (80012d8 <MX_TIM6_Init+0x64>)
 8001292:	2200      	movs	r2, #0
 8001294:	609a      	str	r2, [r3, #8]
  htim6.Init.Period = 80;
 8001296:	4b10      	ldr	r3, [pc, #64]	; (80012d8 <MX_TIM6_Init+0x64>)
 8001298:	2250      	movs	r2, #80	; 0x50
 800129a:	60da      	str	r2, [r3, #12]
  htim6.Init.AutoReloadPreload = TIM_AUTORELOAD_PRELOAD_DISABLE;
 800129c:	4b0e      	ldr	r3, [pc, #56]	; (80012d8 <MX_TIM6_Init+0x64>)
 800129e:	2200      	movs	r2, #0
 80012a0:	619a      	str	r2, [r3, #24]
  if (HAL_TIM_Base_Init(&htim6) != HAL_OK)
 80012a2:	480d      	ldr	r0, [pc, #52]	; (80012d8 <MX_TIM6_Init+0x64>)
 80012a4:	f006 fc82 	bl	8007bac <HAL_TIM_Base_Init>
 80012a8:	4603      	mov	r3, r0
 80012aa:	2b00      	cmp	r3, #0
 80012ac:	d001      	beq.n	80012b2 <MX_TIM6_Init+0x3e>
  {
    Error_Handler();
 80012ae:	f000 fd11 	bl	8001cd4 <Error_Handler>
  }
  sMasterConfig.MasterOutputTrigger = TIM_TRGO_RESET;
 80012b2:	2300      	movs	r3, #0
 80012b4:	603b      	str	r3, [r7, #0]
  sMasterConfig.MasterSlaveMode = TIM_MASTERSLAVEMODE_DISABLE;
 80012b6:	2300      	movs	r3, #0
 80012b8:	607b      	str	r3, [r7, #4]
  if (HAL_TIMEx_MasterConfigSynchronization(&htim6, &sMasterConfig) != HAL_OK)
 80012ba:	463b      	mov	r3, r7
 80012bc:	4619      	mov	r1, r3
 80012be:	4806      	ldr	r0, [pc, #24]	; (80012d8 <MX_TIM6_Init+0x64>)
 80012c0:	f006 ff02 	bl	80080c8 <HAL_TIMEx_MasterConfigSynchronization>
 80012c4:	4603      	mov	r3, r0
 80012c6:	2b00      	cmp	r3, #0
 80012c8:	d001      	beq.n	80012ce <MX_TIM6_Init+0x5a>
  {
    Error_Handler();
 80012ca:	f000 fd03 	bl	8001cd4 <Error_Handler>
  }
  /* USER CODE BEGIN TIM6_Init 2 */

  /* USER CODE END TIM6_Init 2 */

}
 80012ce:	bf00      	nop
 80012d0:	3708      	adds	r7, #8
 80012d2:	46bd      	mov	sp, r7
 80012d4:	bd80      	pop	{r7, pc}
 80012d6:	bf00      	nop
 80012d8:	200002a8 	.word	0x200002a8
 80012dc:	40001000 	.word	0x40001000

080012e0 <MX_TIM7_Init>:
  * @brief TIM7 Initialization Function
  * @param None
  * @retval None
  */
static void MX_TIM7_Init(void)
{
 80012e0:	b580      	push	{r7, lr}
 80012e2:	b082      	sub	sp, #8
 80012e4:	af00      	add	r7, sp, #0

  /* USER CODE BEGIN TIM7_Init 0 */

  /* USER CODE END TIM7_Init 0 */

  TIM_MasterConfigTypeDef sMasterConfig = {0};
 80012e6:	463b      	mov	r3, r7
 80012e8:	2200      	movs	r2, #0
 80012ea:	601a      	str	r2, [r3, #0]
 80012ec:	605a      	str	r2, [r3, #4]

  /* USER CODE BEGIN TIM7_Init 1 */

  /* USER CODE END TIM7_Init 1 */
  htim7.Instance = TIM7;
 80012ee:	4b15      	ldr	r3, [pc, #84]	; (8001344 <MX_TIM7_Init+0x64>)
 80012f0:	4a15      	ldr	r2, [pc, #84]	; (8001348 <MX_TIM7_Init+0x68>)
 80012f2:	601a      	str	r2, [r3, #0]
  htim7.Init.Prescaler = 20999;
 80012f4:	4b13      	ldr	r3, [pc, #76]	; (8001344 <MX_TIM7_Init+0x64>)
 80012f6:	f245 2207 	movw	r2, #20999	; 0x5207
 80012fa:	605a      	str	r2, [r3, #4]
  htim7.Init.CounterMode = TIM_COUNTERMODE_UP;
 80012fc:	4b11      	ldr	r3, [pc, #68]	; (8001344 <MX_TIM7_Init+0x64>)
 80012fe:	2200      	movs	r2, #0
 8001300:	609a      	str	r2, [r3, #8]
  htim7.Init.Period = 4000;
 8001302:	4b10      	ldr	r3, [pc, #64]	; (8001344 <MX_TIM7_Init+0x64>)
 8001304:	f44f 627a 	mov.w	r2, #4000	; 0xfa0
 8001308:	60da      	str	r2, [r3, #12]
  htim7.Init.AutoReloadPreload = TIM_AUTORELOAD_PRELOAD_DISABLE;
 800130a:	4b0e      	ldr	r3, [pc, #56]	; (8001344 <MX_TIM7_Init+0x64>)
 800130c:	2200      	movs	r2, #0
 800130e:	619a      	str	r2, [r3, #24]
  if (HAL_TIM_Base_Init(&htim7) != HAL_OK)
 8001310:	480c      	ldr	r0, [pc, #48]	; (8001344 <MX_TIM7_Init+0x64>)
 8001312:	f006 fc4b 	bl	8007bac <HAL_TIM_Base_Init>
 8001316:	4603      	mov	r3, r0
 8001318:	2b00      	cmp	r3, #0
 800131a:	d001      	beq.n	8001320 <MX_TIM7_Init+0x40>
  {
    Error_Handler();
 800131c:	f000 fcda 	bl	8001cd4 <Error_Handler>
  }
  sMasterConfig.MasterOutputTrigger = TIM_TRGO_RESET;
 8001320:	2300      	movs	r3, #0
 8001322:	603b      	str	r3, [r7, #0]
  sMasterConfig.MasterSlaveMode = TIM_MASTERSLAVEMODE_DISABLE;
 8001324:	2300      	movs	r3, #0
 8001326:	607b      	str	r3, [r7, #4]
  if (HAL_TIMEx_MasterConfigSynchronization(&htim7, &sMasterConfig) != HAL_OK)
 8001328:	463b      	mov	r3, r7
 800132a:	4619      	mov	r1, r3
 800132c:	4805      	ldr	r0, [pc, #20]	; (8001344 <MX_TIM7_Init+0x64>)
 800132e:	f006 fecb 	bl	80080c8 <HAL_TIMEx_MasterConfigSynchronization>
 8001332:	4603      	mov	r3, r0
 8001334:	2b00      	cmp	r3, #0
 8001336:	d001      	beq.n	800133c <MX_TIM7_Init+0x5c>
  {
    Error_Handler();
 8001338:	f000 fccc 	bl	8001cd4 <Error_Handler>
  }
  /* USER CODE BEGIN TIM7_Init 2 */

  /* USER CODE END TIM7_Init 2 */

}
 800133c:	bf00      	nop
 800133e:	3708      	adds	r7, #8
 8001340:	46bd      	mov	sp, r7
 8001342:	bd80      	pop	{r7, pc}
 8001344:	200002f0 	.word	0x200002f0
 8001348:	40001400 	.word	0x40001400

0800134c <MX_USART2_UART_Init>:
  * @brief USART2 Initialization Function
  * @param None
  * @retval None
  */
static void MX_USART2_UART_Init(void)
{
 800134c:	b580      	push	{r7, lr}
 800134e:	af00      	add	r7, sp, #0
  /* USER CODE END USART2_Init 0 */

  /* USER CODE BEGIN USART2_Init 1 */

  /* USER CODE END USART2_Init 1 */
  huart2.Instance = USART2;
 8001350:	4b11      	ldr	r3, [pc, #68]	; (8001398 <MX_USART2_UART_Init+0x4c>)
 8001352:	4a12      	ldr	r2, [pc, #72]	; (800139c <MX_USART2_UART_Init+0x50>)
 8001354:	601a      	str	r2, [r3, #0]
  huart2.Init.BaudRate = 9600;
 8001356:	4b10      	ldr	r3, [pc, #64]	; (8001398 <MX_USART2_UART_Init+0x4c>)
 8001358:	f44f 5216 	mov.w	r2, #9600	; 0x2580
 800135c:	605a      	str	r2, [r3, #4]
  huart2.Init.WordLength = UART_WORDLENGTH_8B;
 800135e:	4b0e      	ldr	r3, [pc, #56]	; (8001398 <MX_USART2_UART_Init+0x4c>)
 8001360:	2200      	movs	r2, #0
 8001362:	609a      	str	r2, [r3, #8]
  huart2.Init.StopBits = UART_STOPBITS_1;
 8001364:	4b0c      	ldr	r3, [pc, #48]	; (8001398 <MX_USART2_UART_Init+0x4c>)
 8001366:	2200      	movs	r2, #0
 8001368:	60da      	str	r2, [r3, #12]
  huart2.Init.Parity = UART_PARITY_NONE;
 800136a:	4b0b      	ldr	r3, [pc, #44]	; (8001398 <MX_USART2_UART_Init+0x4c>)
 800136c:	2200      	movs	r2, #0
 800136e:	611a      	str	r2, [r3, #16]
  huart2.Init.Mode = UART_MODE_TX_RX;
 8001370:	4b09      	ldr	r3, [pc, #36]	; (8001398 <MX_USART2_UART_Init+0x4c>)
 8001372:	220c      	movs	r2, #12
 8001374:	615a      	str	r2, [r3, #20]
  huart2.Init.HwFlowCtl = UART_HWCONTROL_NONE;
 8001376:	4b08      	ldr	r3, [pc, #32]	; (8001398 <MX_USART2_UART_Init+0x4c>)
 8001378:	2200      	movs	r2, #0
 800137a:	619a      	str	r2, [r3, #24]
  huart2.Init.OverSampling = UART_OVERSAMPLING_16;
 800137c:	4b06      	ldr	r3, [pc, #24]	; (8001398 <MX_USART2_UART_Init+0x4c>)
 800137e:	2200      	movs	r2, #0
 8001380:	61da      	str	r2, [r3, #28]
  if (HAL_UART_Init(&huart2) != HAL_OK)
 8001382:	4805      	ldr	r0, [pc, #20]	; (8001398 <MX_USART2_UART_Init+0x4c>)
 8001384:	f006 ff30 	bl	80081e8 <HAL_UART_Init>
 8001388:	4603      	mov	r3, r0
 800138a:	2b00      	cmp	r3, #0
 800138c:	d001      	beq.n	8001392 <MX_USART2_UART_Init+0x46>
  {
    Error_Handler();
 800138e:	f000 fca1 	bl	8001cd4 <Error_Handler>
  }
  /* USER CODE BEGIN USART2_Init 2 */

  /* USER CODE END USART2_Init 2 */

}
 8001392:	bf00      	nop
 8001394:	bd80      	pop	{r7, pc}
 8001396:	bf00      	nop
 8001398:	20000338 	.word	0x20000338
 800139c:	40004400 	.word	0x40004400

080013a0 <MX_DMA_Init>:

/**
  * Enable DMA controller clock
  */
static void MX_DMA_Init(void)
{
 80013a0:	b580      	push	{r7, lr}
 80013a2:	b082      	sub	sp, #8
 80013a4:	af00      	add	r7, sp, #0

  /* DMA controller clock enable */
  __HAL_RCC_DMA2_CLK_ENABLE();
 80013a6:	2300      	movs	r3, #0
 80013a8:	607b      	str	r3, [r7, #4]
 80013aa:	4b17      	ldr	r3, [pc, #92]	; (8001408 <MX_DMA_Init+0x68>)
 80013ac:	6b1b      	ldr	r3, [r3, #48]	; 0x30
 80013ae:	4a16      	ldr	r2, [pc, #88]	; (8001408 <MX_DMA_Init+0x68>)
 80013b0:	f443 0380 	orr.w	r3, r3, #4194304	; 0x400000
 80013b4:	6313      	str	r3, [r2, #48]	; 0x30
 80013b6:	4b14      	ldr	r3, [pc, #80]	; (8001408 <MX_DMA_Init+0x68>)
 80013b8:	6b1b      	ldr	r3, [r3, #48]	; 0x30
 80013ba:	f403 0380 	and.w	r3, r3, #4194304	; 0x400000
 80013be:	607b      	str	r3, [r7, #4]
 80013c0:	687b      	ldr	r3, [r7, #4]
  __HAL_RCC_DMA1_CLK_ENABLE();
 80013c2:	2300      	movs	r3, #0
 80013c4:	603b      	str	r3, [r7, #0]
 80013c6:	4b10      	ldr	r3, [pc, #64]	; (8001408 <MX_DMA_Init+0x68>)
 80013c8:	6b1b      	ldr	r3, [r3, #48]	; 0x30
 80013ca:	4a0f      	ldr	r2, [pc, #60]	; (8001408 <MX_DMA_Init+0x68>)
 80013cc:	f443 1300 	orr.w	r3, r3, #2097152	; 0x200000
 80013d0:	6313      	str	r3, [r2, #48]	; 0x30
 80013d2:	4b0d      	ldr	r3, [pc, #52]	; (8001408 <MX_DMA_Init+0x68>)
 80013d4:	6b1b      	ldr	r3, [r3, #48]	; 0x30
 80013d6:	f403 1300 	and.w	r3, r3, #2097152	; 0x200000
 80013da:	603b      	str	r3, [r7, #0]
 80013dc:	683b      	ldr	r3, [r7, #0]

  /* DMA interrupt init */
  /* DMA1_Stream4_IRQn interrupt configuration */
  HAL_NVIC_SetPriority(DMA1_Stream4_IRQn, 0, 0);
 80013de:	2200      	movs	r2, #0
 80013e0:	2100      	movs	r1, #0
 80013e2:	200f      	movs	r0, #15
 80013e4:	f002 fcf9 	bl	8003dda <HAL_NVIC_SetPriority>
  HAL_NVIC_EnableIRQ(DMA1_Stream4_IRQn);
 80013e8:	200f      	movs	r0, #15
 80013ea:	f002 fd12 	bl	8003e12 <HAL_NVIC_EnableIRQ>
  /* DMA2_Stream3_IRQn interrupt configuration */
  HAL_NVIC_SetPriority(DMA2_Stream3_IRQn, 0, 0);
 80013ee:	2200      	movs	r2, #0
 80013f0:	2100      	movs	r1, #0
 80013f2:	203b      	movs	r0, #59	; 0x3b
 80013f4:	f002 fcf1 	bl	8003dda <HAL_NVIC_SetPriority>
  HAL_NVIC_EnableIRQ(DMA2_Stream3_IRQn);
 80013f8:	203b      	movs	r0, #59	; 0x3b
 80013fa:	f002 fd0a 	bl	8003e12 <HAL_NVIC_EnableIRQ>

}
 80013fe:	bf00      	nop
 8001400:	3708      	adds	r7, #8
 8001402:	46bd      	mov	sp, r7
 8001404:	bd80      	pop	{r7, pc}
 8001406:	bf00      	nop
 8001408:	40023800 	.word	0x40023800

0800140c <MX_GPIO_Init>:
  * @brief GPIO Initialization Function
  * @param None
  * @retval None
  */
static void MX_GPIO_Init(void)
{
 800140c:	b580      	push	{r7, lr}
 800140e:	b08a      	sub	sp, #40	; 0x28
 8001410:	af00      	add	r7, sp, #0
  GPIO_InitTypeDef GPIO_InitStruct = {0};
 8001412:	f107 0314 	add.w	r3, r7, #20
 8001416:	2200      	movs	r2, #0
 8001418:	601a      	str	r2, [r3, #0]
 800141a:	605a      	str	r2, [r3, #4]
 800141c:	609a      	str	r2, [r3, #8]
 800141e:	60da      	str	r2, [r3, #12]
 8001420:	611a      	str	r2, [r3, #16]
/* USER CODE BEGIN MX_GPIO_Init_1 */
/* USER CODE END MX_GPIO_Init_1 */

  /* GPIO Ports Clock Enable */
  __HAL_RCC_GPIOC_CLK_ENABLE();
 8001422:	2300      	movs	r3, #0
 8001424:	613b      	str	r3, [r7, #16]
 8001426:	4b57      	ldr	r3, [pc, #348]	; (8001584 <MX_GPIO_Init+0x178>)
 8001428:	6b1b      	ldr	r3, [r3, #48]	; 0x30
 800142a:	4a56      	ldr	r2, [pc, #344]	; (8001584 <MX_GPIO_Init+0x178>)
 800142c:	f043 0304 	orr.w	r3, r3, #4
 8001430:	6313      	str	r3, [r2, #48]	; 0x30
 8001432:	4b54      	ldr	r3, [pc, #336]	; (8001584 <MX_GPIO_Init+0x178>)
 8001434:	6b1b      	ldr	r3, [r3, #48]	; 0x30
 8001436:	f003 0304 	and.w	r3, r3, #4
 800143a:	613b      	str	r3, [r7, #16]
 800143c:	693b      	ldr	r3, [r7, #16]
  __HAL_RCC_GPIOH_CLK_ENABLE();
 800143e:	2300      	movs	r3, #0
 8001440:	60fb      	str	r3, [r7, #12]
 8001442:	4b50      	ldr	r3, [pc, #320]	; (8001584 <MX_GPIO_Init+0x178>)
 8001444:	6b1b      	ldr	r3, [r3, #48]	; 0x30
 8001446:	4a4f      	ldr	r2, [pc, #316]	; (8001584 <MX_GPIO_Init+0x178>)
 8001448:	f043 0380 	orr.w	r3, r3, #128	; 0x80
 800144c:	6313      	str	r3, [r2, #48]	; 0x30
 800144e:	4b4d      	ldr	r3, [pc, #308]	; (8001584 <MX_GPIO_Init+0x178>)
 8001450:	6b1b      	ldr	r3, [r3, #48]	; 0x30
 8001452:	f003 0380 	and.w	r3, r3, #128	; 0x80
 8001456:	60fb      	str	r3, [r7, #12]
 8001458:	68fb      	ldr	r3, [r7, #12]
  __HAL_RCC_GPIOA_CLK_ENABLE();
 800145a:	2300      	movs	r3, #0
 800145c:	60bb      	str	r3, [r7, #8]
 800145e:	4b49      	ldr	r3, [pc, #292]	; (8001584 <MX_GPIO_Init+0x178>)
 8001460:	6b1b      	ldr	r3, [r3, #48]	; 0x30
 8001462:	4a48      	ldr	r2, [pc, #288]	; (8001584 <MX_GPIO_Init+0x178>)
 8001464:	f043 0301 	orr.w	r3, r3, #1
 8001468:	6313      	str	r3, [r2, #48]	; 0x30
 800146a:	4b46      	ldr	r3, [pc, #280]	; (8001584 <MX_GPIO_Init+0x178>)
 800146c:	6b1b      	ldr	r3, [r3, #48]	; 0x30
 800146e:	f003 0301 	and.w	r3, r3, #1
 8001472:	60bb      	str	r3, [r7, #8]
 8001474:	68bb      	ldr	r3, [r7, #8]
  __HAL_RCC_GPIOB_CLK_ENABLE();
 8001476:	2300      	movs	r3, #0
 8001478:	607b      	str	r3, [r7, #4]
 800147a:	4b42      	ldr	r3, [pc, #264]	; (8001584 <MX_GPIO_Init+0x178>)
 800147c:	6b1b      	ldr	r3, [r3, #48]	; 0x30
 800147e:	4a41      	ldr	r2, [pc, #260]	; (8001584 <MX_GPIO_Init+0x178>)
 8001480:	f043 0302 	orr.w	r3, r3, #2
 8001484:	6313      	str	r3, [r2, #48]	; 0x30
 8001486:	4b3f      	ldr	r3, [pc, #252]	; (8001584 <MX_GPIO_Init+0x178>)
 8001488:	6b1b      	ldr	r3, [r3, #48]	; 0x30
 800148a:	f003 0302 	and.w	r3, r3, #2
 800148e:	607b      	str	r3, [r7, #4]
 8001490:	687b      	ldr	r3, [r7, #4]
  __HAL_RCC_GPIOD_CLK_ENABLE();
 8001492:	2300      	movs	r3, #0
 8001494:	603b      	str	r3, [r7, #0]
 8001496:	4b3b      	ldr	r3, [pc, #236]	; (8001584 <MX_GPIO_Init+0x178>)
 8001498:	6b1b      	ldr	r3, [r3, #48]	; 0x30
 800149a:	4a3a      	ldr	r2, [pc, #232]	; (8001584 <MX_GPIO_Init+0x178>)
 800149c:	f043 0308 	orr.w	r3, r3, #8
 80014a0:	6313      	str	r3, [r2, #48]	; 0x30
 80014a2:	4b38      	ldr	r3, [pc, #224]	; (8001584 <MX_GPIO_Init+0x178>)
 80014a4:	6b1b      	ldr	r3, [r3, #48]	; 0x30
 80014a6:	f003 0308 	and.w	r3, r3, #8
 80014aa:	603b      	str	r3, [r7, #0]
 80014ac:	683b      	ldr	r3, [r7, #0]

  /*Configure GPIO pin Output Level */
  HAL_GPIO_WritePin(GPIOC, SPI2_WP_Pin|SPI2_CS_Pin|SPI1_CS_Pin, GPIO_PIN_RESET);
 80014ae:	2200      	movs	r2, #0
 80014b0:	2113      	movs	r1, #19
 80014b2:	4835      	ldr	r0, [pc, #212]	; (8001588 <MX_GPIO_Init+0x17c>)
 80014b4:	f003 fa8e 	bl	80049d4 <HAL_GPIO_WritePin>

  /*Configure GPIO pin Output Level */
  HAL_GPIO_WritePin(SPI1_WP_GPIO_Port, SPI1_WP_Pin, GPIO_PIN_RESET);
 80014b8:	2200      	movs	r2, #0
 80014ba:	2110      	movs	r1, #16
 80014bc:	4833      	ldr	r0, [pc, #204]	; (800158c <MX_GPIO_Init+0x180>)
 80014be:	f003 fa89 	bl	80049d4 <HAL_GPIO_WritePin>

  /*Configure GPIO pin Output Level */
  HAL_GPIO_WritePin(GPIOB, LED3_Pin|LED2_Pin, GPIO_PIN_RESET);
 80014c2:	2200      	movs	r2, #0
 80014c4:	f44f 4181 	mov.w	r1, #16512	; 0x4080
 80014c8:	4831      	ldr	r0, [pc, #196]	; (8001590 <MX_GPIO_Init+0x184>)
 80014ca:	f003 fa83 	bl	80049d4 <HAL_GPIO_WritePin>

  /*Configure GPIO pin : SPI2_WP_Pin */
  GPIO_InitStruct.Pin = SPI2_WP_Pin;
 80014ce:	2301      	movs	r3, #1
 80014d0:	617b      	str	r3, [r7, #20]
  GPIO_InitStruct.Mode = GPIO_MODE_OUTPUT_PP;
 80014d2:	2301      	movs	r3, #1
 80014d4:	61bb      	str	r3, [r7, #24]
  GPIO_InitStruct.Pull = GPIO_PULLUP;
 80014d6:	2301      	movs	r3, #1
 80014d8:	61fb      	str	r3, [r7, #28]
  GPIO_InitStruct.Speed = GPIO_SPEED_FREQ_LOW;
 80014da:	2300      	movs	r3, #0
 80014dc:	623b      	str	r3, [r7, #32]
  HAL_GPIO_Init(SPI2_WP_GPIO_Port, &GPIO_InitStruct);
 80014de:	f107 0314 	add.w	r3, r7, #20
 80014e2:	4619      	mov	r1, r3
 80014e4:	4828      	ldr	r0, [pc, #160]	; (8001588 <MX_GPIO_Init+0x17c>)
 80014e6:	f003 f8b1 	bl	800464c <HAL_GPIO_Init>

  /*Configure GPIO pins : SPI2_CS_Pin SPI1_CS_Pin */
  GPIO_InitStruct.Pin = SPI2_CS_Pin|SPI1_CS_Pin;
 80014ea:	2312      	movs	r3, #18
 80014ec:	617b      	str	r3, [r7, #20]
  GPIO_InitStruct.Mode = GPIO_MODE_OUTPUT_PP;
 80014ee:	2301      	movs	r3, #1
 80014f0:	61bb      	str	r3, [r7, #24]
  GPIO_InitStruct.Pull = GPIO_NOPULL;
 80014f2:	2300      	movs	r3, #0
 80014f4:	61fb      	str	r3, [r7, #28]
  GPIO_InitStruct.Speed = GPIO_SPEED_FREQ_LOW;
 80014f6:	2300      	movs	r3, #0
 80014f8:	623b      	str	r3, [r7, #32]
  HAL_GPIO_Init(GPIOC, &GPIO_InitStruct);
 80014fa:	f107 0314 	add.w	r3, r7, #20
 80014fe:	4619      	mov	r1, r3
 8001500:	4821      	ldr	r0, [pc, #132]	; (8001588 <MX_GPIO_Init+0x17c>)
 8001502:	f003 f8a3 	bl	800464c <HAL_GPIO_Init>

  /*Configure GPIO pin : SPI1_WP_Pin */
  GPIO_InitStruct.Pin = SPI1_WP_Pin;
 8001506:	2310      	movs	r3, #16
 8001508:	617b      	str	r3, [r7, #20]
  GPIO_InitStruct.Mode = GPIO_MODE_OUTPUT_PP;
 800150a:	2301      	movs	r3, #1
 800150c:	61bb      	str	r3, [r7, #24]
  GPIO_InitStruct.Pull = GPIO_PULLUP;
 800150e:	2301      	movs	r3, #1
 8001510:	61fb      	str	r3, [r7, #28]
  GPIO_InitStruct.Speed = GPIO_SPEED_FREQ_LOW;
 8001512:	2300      	movs	r3, #0
 8001514:	623b      	str	r3, [r7, #32]
  HAL_GPIO_Init(SPI1_WP_GPIO_Port, &GPIO_InitStruct);
 8001516:	f107 0314 	add.w	r3, r7, #20
 800151a:	4619      	mov	r1, r3
 800151c:	481b      	ldr	r0, [pc, #108]	; (800158c <MX_GPIO_Init+0x180>)
 800151e:	f003 f895 	bl	800464c <HAL_GPIO_Init>

  /*Configure GPIO pin : JMP_Flight_Pin */
  GPIO_InitStruct.Pin = JMP_Flight_Pin;
 8001522:	2302      	movs	r3, #2
 8001524:	617b      	str	r3, [r7, #20]
  GPIO_InitStruct.Mode = GPIO_MODE_INPUT;
 8001526:	2300      	movs	r3, #0
 8001528:	61bb      	str	r3, [r7, #24]
  GPIO_InitStruct.Pull = GPIO_NOPULL;
 800152a:	2300      	movs	r3, #0
 800152c:	61fb      	str	r3, [r7, #28]
  HAL_GPIO_Init(JMP_Flight_GPIO_Port, &GPIO_InitStruct);
 800152e:	f107 0314 	add.w	r3, r7, #20
 8001532:	4619      	mov	r1, r3
 8001534:	4816      	ldr	r0, [pc, #88]	; (8001590 <MX_GPIO_Init+0x184>)
 8001536:	f003 f889 	bl	800464c <HAL_GPIO_Init>

  /*Configure GPIO pins : LED3_Pin LED2_Pin */
  GPIO_InitStruct.Pin = LED3_Pin|LED2_Pin;
 800153a:	f44f 4381 	mov.w	r3, #16512	; 0x4080
 800153e:	617b      	str	r3, [r7, #20]
  GPIO_InitStruct.Mode = GPIO_MODE_OUTPUT_PP;
 8001540:	2301      	movs	r3, #1
 8001542:	61bb      	str	r3, [r7, #24]
  GPIO_InitStruct.Pull = GPIO_PULLDOWN;
 8001544:	2302      	movs	r3, #2
 8001546:	61fb      	str	r3, [r7, #28]
  GPIO_InitStruct.Speed = GPIO_SPEED_FREQ_LOW;
 8001548:	2300      	movs	r3, #0
 800154a:	623b      	str	r3, [r7, #32]
  HAL_GPIO_Init(GPIOB, &GPIO_InitStruct);
 800154c:	f107 0314 	add.w	r3, r7, #20
 8001550:	4619      	mov	r1, r3
 8001552:	480f      	ldr	r0, [pc, #60]	; (8001590 <MX_GPIO_Init+0x184>)
 8001554:	f003 f87a 	bl	800464c <HAL_GPIO_Init>

  /*Configure GPIO pins : PA11 PA12 */
  GPIO_InitStruct.Pin = GPIO_PIN_11|GPIO_PIN_12;
 8001558:	f44f 53c0 	mov.w	r3, #6144	; 0x1800
 800155c:	617b      	str	r3, [r7, #20]
  GPIO_InitStruct.Mode = GPIO_MODE_AF_PP;
 800155e:	2302      	movs	r3, #2
 8001560:	61bb      	str	r3, [r7, #24]
  GPIO_InitStruct.Pull = GPIO_NOPULL;
 8001562:	2300      	movs	r3, #0
 8001564:	61fb      	str	r3, [r7, #28]
  GPIO_InitStruct.Speed = GPIO_SPEED_FREQ_VERY_HIGH;
 8001566:	2303      	movs	r3, #3
 8001568:	623b      	str	r3, [r7, #32]
  GPIO_InitStruct.Alternate = GPIO_AF9_CAN1;
 800156a:	2309      	movs	r3, #9
 800156c:	627b      	str	r3, [r7, #36]	; 0x24
  HAL_GPIO_Init(GPIOA, &GPIO_InitStruct);
 800156e:	f107 0314 	add.w	r3, r7, #20
 8001572:	4619      	mov	r1, r3
 8001574:	4805      	ldr	r0, [pc, #20]	; (800158c <MX_GPIO_Init+0x180>)
 8001576:	f003 f869 	bl	800464c <HAL_GPIO_Init>

/* USER CODE BEGIN MX_GPIO_Init_2 */
/* USER CODE END MX_GPIO_Init_2 */
}
 800157a:	bf00      	nop
 800157c:	3728      	adds	r7, #40	; 0x28
 800157e:	46bd      	mov	sp, r7
 8001580:	bd80      	pop	{r7, pc}
 8001582:	bf00      	nop
 8001584:	40023800 	.word	0x40023800
 8001588:	40020800 	.word	0x40020800
 800158c:	40020000 	.word	0x40020000
 8001590:	40020400 	.word	0x40020400

08001594 <clean_data_buffer>:

/* USER CODE BEGIN 4 */
void clean_data_buffer(uint16_t array_size, uint8_t data_array[array_size]) {
 8001594:	b480      	push	{r7}
 8001596:	b085      	sub	sp, #20
 8001598:	af00      	add	r7, sp, #0
 800159a:	4603      	mov	r3, r0
 800159c:	6039      	str	r1, [r7, #0]
 800159e:	80fb      	strh	r3, [r7, #6]
    for (int i = 0; i < array_size; ++i) {
 80015a0:	2300      	movs	r3, #0
 80015a2:	60fb      	str	r3, [r7, #12]
 80015a4:	e007      	b.n	80015b6 <clean_data_buffer+0x22>
    	data_array[i] = 0xFF;  // Initialize each element to 0xFF
 80015a6:	68fb      	ldr	r3, [r7, #12]
 80015a8:	683a      	ldr	r2, [r7, #0]
 80015aa:	4413      	add	r3, r2
 80015ac:	22ff      	movs	r2, #255	; 0xff
 80015ae:	701a      	strb	r2, [r3, #0]
    for (int i = 0; i < array_size; ++i) {
 80015b0:	68fb      	ldr	r3, [r7, #12]
 80015b2:	3301      	adds	r3, #1
 80015b4:	60fb      	str	r3, [r7, #12]
 80015b6:	88fb      	ldrh	r3, [r7, #6]
 80015b8:	68fa      	ldr	r2, [r7, #12]
 80015ba:	429a      	cmp	r2, r3
 80015bc:	dbf3      	blt.n	80015a6 <clean_data_buffer+0x12>
    }
}
 80015be:	bf00      	nop
 80015c0:	bf00      	nop
 80015c2:	3714      	adds	r7, #20
 80015c4:	46bd      	mov	sp, r7
 80015c6:	f85d 7b04 	ldr.w	r7, [sp], #4
 80015ca:	4770      	bx	lr

080015cc <systemInit>:

void systemInit() {
 80015cc:	b580      	push	{r7, lr}
 80015ce:	b084      	sub	sp, #16
 80015d0:	af00      	add	r7, sp, #0
	i2c_accel = &hi2c2;
 80015d2:	4b60      	ldr	r3, [pc, #384]	; (8001754 <systemInit+0x188>)
 80015d4:	4a60      	ldr	r2, [pc, #384]	; (8001758 <systemInit+0x18c>)
 80015d6:	601a      	str	r2, [r3, #0]
	i2c_bme280 = &hi2c1;
 80015d8:	4b60      	ldr	r3, [pc, #384]	; (800175c <systemInit+0x190>)
 80015da:	4a61      	ldr	r2, [pc, #388]	; (8001760 <systemInit+0x194>)
 80015dc:	601a      	str	r2, [r3, #0]

	configureCAN();
 80015de:	f000 fb55 	bl	8001c8c <configureCAN>
	CAN_TxMailbox = 0;
 80015e2:	4b60      	ldr	r3, [pc, #384]	; (8001764 <systemInit+0x198>)
 80015e4:	2200      	movs	r2, #0
 80015e6:	601a      	str	r2, [r3, #0]
	clean_data_buffer(8, CAN_RxData);
 80015e8:	495f      	ldr	r1, [pc, #380]	; (8001768 <systemInit+0x19c>)
 80015ea:	2008      	movs	r0, #8
 80015ec:	f7ff ffd2 	bl	8001594 <clean_data_buffer>

	gpio_set_config();
 80015f0:	f000 f8f0 	bl	80017d4 <gpio_set_config>
	HAL_GPIO_WritePin(led_orange.GPIOx, led_orange.GPIO_Pin, GPIO_PIN_RESET);	// Turn LED off
 80015f4:	4b5d      	ldr	r3, [pc, #372]	; (800176c <systemInit+0x1a0>)
 80015f6:	681b      	ldr	r3, [r3, #0]
 80015f8:	4a5c      	ldr	r2, [pc, #368]	; (800176c <systemInit+0x1a0>)
 80015fa:	8891      	ldrh	r1, [r2, #4]
 80015fc:	2200      	movs	r2, #0
 80015fe:	4618      	mov	r0, r3
 8001600:	f003 f9e8 	bl	80049d4 <HAL_GPIO_WritePin>
	HAL_GPIO_WritePin(cs_spi1.GPIOx, cs_spi1.GPIO_Pin, GPIO_PIN_SET);		// SET SPI CS High to disable bus 1
 8001604:	4b5a      	ldr	r3, [pc, #360]	; (8001770 <systemInit+0x1a4>)
 8001606:	681b      	ldr	r3, [r3, #0]
 8001608:	4a59      	ldr	r2, [pc, #356]	; (8001770 <systemInit+0x1a4>)
 800160a:	8891      	ldrh	r1, [r2, #4]
 800160c:	2201      	movs	r2, #1
 800160e:	4618      	mov	r0, r3
 8001610:	f003 f9e0 	bl	80049d4 <HAL_GPIO_WritePin>
	HAL_GPIO_WritePin(cs_spi2.GPIOx, cs_spi2.GPIO_Pin, GPIO_PIN_SET);		// SET SPI CS High to disable bus 2
 8001614:	4b57      	ldr	r3, [pc, #348]	; (8001774 <systemInit+0x1a8>)
 8001616:	681b      	ldr	r3, [r3, #0]
 8001618:	4a56      	ldr	r2, [pc, #344]	; (8001774 <systemInit+0x1a8>)
 800161a:	8891      	ldrh	r1, [r2, #4]
 800161c:	2201      	movs	r2, #1
 800161e:	4618      	mov	r0, r3
 8001620:	f003 f9d8 	bl	80049d4 <HAL_GPIO_WritePin>

	// Clean the data buffer and set all values to 0xFF
	clean_data_buffer(PAGE_SIZE, data_buffer_tx[0]);
 8001624:	4954      	ldr	r1, [pc, #336]	; (8001778 <systemInit+0x1ac>)
 8001626:	f44f 7080 	mov.w	r0, #256	; 0x100
 800162a:	f7ff ffb3 	bl	8001594 <clean_data_buffer>
	clean_data_buffer(PAGE_SIZE, data_buffer_tx[1]);
 800162e:	4953      	ldr	r1, [pc, #332]	; (800177c <systemInit+0x1b0>)
 8001630:	f44f 7080 	mov.w	r0, #256	; 0x100
 8001634:	f7ff ffae 	bl	8001594 <clean_data_buffer>

	for (uint8_t i = 0; i < 6; i++) {
 8001638:	2300      	movs	r3, #0
 800163a:	73fb      	strb	r3, [r7, #15]
 800163c:	e00e      	b.n	800165c <systemInit+0x90>
		accel_data[i] = 0x00;
 800163e:	7bfb      	ldrb	r3, [r7, #15]
 8001640:	4a4f      	ldr	r2, [pc, #316]	; (8001780 <systemInit+0x1b4>)
 8001642:	2100      	movs	r1, #0
 8001644:	54d1      	strb	r1, [r2, r3]
		bme280_data_0[i] = 0x00;
 8001646:	7bfb      	ldrb	r3, [r7, #15]
 8001648:	4a4e      	ldr	r2, [pc, #312]	; (8001784 <systemInit+0x1b8>)
 800164a:	2100      	movs	r1, #0
 800164c:	54d1      	strb	r1, [r2, r3]
		bme280_data_1[i] = 0x00;
 800164e:	7bfb      	ldrb	r3, [r7, #15]
 8001650:	4a4d      	ldr	r2, [pc, #308]	; (8001788 <systemInit+0x1bc>)
 8001652:	2100      	movs	r1, #0
 8001654:	54d1      	strb	r1, [r2, r3]
	for (uint8_t i = 0; i < 6; i++) {
 8001656:	7bfb      	ldrb	r3, [r7, #15]
 8001658:	3301      	adds	r3, #1
 800165a:	73fb      	strb	r3, [r7, #15]
 800165c:	7bfb      	ldrb	r3, [r7, #15]
 800165e:	2b05      	cmp	r3, #5
 8001660:	d9ed      	bls.n	800163e <systemInit+0x72>
	}

	// Initialise the peripherals
	init_accel(i2c_accel);
 8001662:	4b3c      	ldr	r3, [pc, #240]	; (8001754 <systemInit+0x188>)
 8001664:	681b      	ldr	r3, [r3, #0]
 8001666:	4618      	mov	r0, r3
 8001668:	f7fe ff46 	bl	80004f8 <init_accel>
	init_bme280(i2c_bme280, 0);
 800166c:	4b3b      	ldr	r3, [pc, #236]	; (800175c <systemInit+0x190>)
 800166e:	681b      	ldr	r3, [r3, #0]
 8001670:	2100      	movs	r1, #0
 8001672:	4618      	mov	r0, r3
 8001674:	f7fe ffb4 	bl	80005e0 <init_bme280>
	init_bme280(i2c_bme280, 1);
 8001678:	4b38      	ldr	r3, [pc, #224]	; (800175c <systemInit+0x190>)
 800167a:	681b      	ldr	r3, [r3, #0]
 800167c:	2101      	movs	r1, #1
 800167e:	4618      	mov	r0, r3
 8001680:	f7fe ffae 	bl	80005e0 <init_bme280>
	software_reset(&hspi1, cs_spi1);
 8001684:	4b3a      	ldr	r3, [pc, #232]	; (8001770 <systemInit+0x1a4>)
 8001686:	e893 0006 	ldmia.w	r3, {r1, r2}
 800168a:	4840      	ldr	r0, [pc, #256]	; (800178c <systemInit+0x1c0>)
 800168c:	f7ff f97e 	bl	800098c <software_reset>
	software_reset(&hspi2, cs_spi2);
 8001690:	4b38      	ldr	r3, [pc, #224]	; (8001774 <systemInit+0x1a8>)
 8001692:	e893 0006 	ldmia.w	r3, {r1, r2}
 8001696:	483e      	ldr	r0, [pc, #248]	; (8001790 <systemInit+0x1c4>)
 8001698:	f7ff f978 	bl	800098c <software_reset>

	int next_blank_page0 = find_next_blank_page(&hspi1, &end_of_flash, cs_spi1);
 800169c:	4b34      	ldr	r3, [pc, #208]	; (8001770 <systemInit+0x1a4>)
 800169e:	cb0c      	ldmia	r3, {r2, r3}
 80016a0:	493c      	ldr	r1, [pc, #240]	; (8001794 <systemInit+0x1c8>)
 80016a2:	483a      	ldr	r0, [pc, #232]	; (800178c <systemInit+0x1c0>)
 80016a4:	f7ff f9c4 	bl	8000a30 <find_next_blank_page>
 80016a8:	4603      	mov	r3, r0
 80016aa:	60bb      	str	r3, [r7, #8]
	int next_blank_page1 = find_next_blank_page(&hspi2, &end_of_flash, cs_spi2);
 80016ac:	4b31      	ldr	r3, [pc, #196]	; (8001774 <systemInit+0x1a8>)
 80016ae:	cb0c      	ldmia	r3, {r2, r3}
 80016b0:	4938      	ldr	r1, [pc, #224]	; (8001794 <systemInit+0x1c8>)
 80016b2:	4837      	ldr	r0, [pc, #220]	; (8001790 <systemInit+0x1c4>)
 80016b4:	f7ff f9bc 	bl	8000a30 <find_next_blank_page>
 80016b8:	4603      	mov	r3, r0
 80016ba:	607b      	str	r3, [r7, #4]

	// Assign the value of next_blank_page to the larger of next_blank_page0 and next_blank_page1
	next_blank_page = (next_blank_page0 > next_blank_page1) ? next_blank_page0 : next_blank_page1;
 80016bc:	687a      	ldr	r2, [r7, #4]
 80016be:	68bb      	ldr	r3, [r7, #8]
 80016c0:	4293      	cmp	r3, r2
 80016c2:	bfb8      	it	lt
 80016c4:	4613      	movlt	r3, r2
 80016c6:	461a      	mov	r2, r3
 80016c8:	4b33      	ldr	r3, [pc, #204]	; (8001798 <systemInit+0x1cc>)
 80016ca:	601a      	str	r2, [r3, #0]

	buffer_ref = 0;
 80016cc:	4b33      	ldr	r3, [pc, #204]	; (800179c <systemInit+0x1d0>)
 80016ce:	2200      	movs	r2, #0
 80016d0:	701a      	strb	r2, [r3, #0]
	byte_tracker = 0;
 80016d2:	4b33      	ldr	r3, [pc, #204]	; (80017a0 <systemInit+0x1d4>)
 80016d4:	2200      	movs	r2, #0
 80016d6:	801a      	strh	r2, [r3, #0]
	end_of_flash = FLAG_RESET;
 80016d8:	4b2e      	ldr	r3, [pc, #184]	; (8001794 <systemInit+0x1c8>)
 80016da:	2200      	movs	r2, #0
 80016dc:	701a      	strb	r2, [r3, #0]
	uart2_rec_flag = FLAG_RESET;
 80016de:	4b31      	ldr	r3, [pc, #196]	; (80017a4 <systemInit+0x1d8>)
 80016e0:	2200      	movs	r2, #0
 80016e2:	701a      	strb	r2, [r3, #0]
	CAN_RX_Flag = FLAG_RESET;
 80016e4:	4b30      	ldr	r3, [pc, #192]	; (80017a8 <systemInit+0x1dc>)
 80016e6:	2200      	movs	r2, #0
 80016e8:	701a      	strb	r2, [r3, #0]
	tim6_overflow_flag = FLAG_RESET;
 80016ea:	4b30      	ldr	r3, [pc, #192]	; (80017ac <systemInit+0x1e0>)
 80016ec:	2200      	movs	r2, #0
 80016ee:	701a      	strb	r2, [r3, #0]
	tim7_overflow_flag = FLAG_RESET;
 80016f0:	4b2f      	ldr	r3, [pc, #188]	; (80017b0 <systemInit+0x1e4>)
 80016f2:	2200      	movs	r2, #0
 80016f4:	701a      	strb	r2, [r3, #0]
	flight_state = GROUND;
 80016f6:	4b2f      	ldr	r3, [pc, #188]	; (80017b4 <systemInit+0x1e8>)
 80016f8:	2200      	movs	r2, #0
 80016fa:	701a      	strb	r2, [r3, #0]

	sysStatus = systemStatus(&hspi1, &hspi2, i2c_bme280, i2c_accel);
 80016fc:	4b17      	ldr	r3, [pc, #92]	; (800175c <systemInit+0x190>)
 80016fe:	681a      	ldr	r2, [r3, #0]
 8001700:	4b14      	ldr	r3, [pc, #80]	; (8001754 <systemInit+0x188>)
 8001702:	681b      	ldr	r3, [r3, #0]
 8001704:	4922      	ldr	r1, [pc, #136]	; (8001790 <systemInit+0x1c4>)
 8001706:	4821      	ldr	r0, [pc, #132]	; (800178c <systemInit+0x1c0>)
 8001708:	f000 faea 	bl	8001ce0 <systemStatus>
 800170c:	4603      	mov	r3, r0
 800170e:	461a      	mov	r2, r3
 8001710:	4b29      	ldr	r3, [pc, #164]	; (80017b8 <systemInit+0x1ec>)
 8001712:	701a      	strb	r2, [r3, #0]

	send_uart_hex(&huart2, sysStatus);
 8001714:	4b28      	ldr	r3, [pc, #160]	; (80017b8 <systemInit+0x1ec>)
 8001716:	781b      	ldrb	r3, [r3, #0]
 8001718:	4619      	mov	r1, r3
 800171a:	4828      	ldr	r0, [pc, #160]	; (80017bc <systemInit+0x1f0>)
 800171c:	f001 fb45 	bl	8002daa <send_uart_hex>

	// Initiate clocks, interrupts, CAN and DMA
	HAL_UART_Receive_IT(&huart2, UARTRxData, 2);
 8001720:	2202      	movs	r2, #2
 8001722:	4927      	ldr	r1, [pc, #156]	; (80017c0 <systemInit+0x1f4>)
 8001724:	4825      	ldr	r0, [pc, #148]	; (80017bc <systemInit+0x1f0>)
 8001726:	f006 fe3a 	bl	800839e <HAL_UART_Receive_IT>
	HAL_CAN_Start(&hcan2);
 800172a:	4826      	ldr	r0, [pc, #152]	; (80017c4 <systemInit+0x1f8>)
 800172c:	f001 fdee 	bl	800330c <HAL_CAN_Start>
	HAL_CAN_ActivateNotification(&hcan2, CAN_IT_RX_FIFO0_MSG_PENDING);
 8001730:	2102      	movs	r1, #2
 8001732:	4824      	ldr	r0, [pc, #144]	; (80017c4 <systemInit+0x1f8>)
 8001734:	f002 f820 	bl	8003778 <HAL_CAN_ActivateNotification>
	initialise_rtc_default(&hrtc);
 8001738:	4823      	ldr	r0, [pc, #140]	; (80017c8 <systemInit+0x1fc>)
 800173a:	f000 fe1d 	bl	8002378 <initialise_rtc_default>
	HAL_TIM_Base_Start_IT(&htim6);
 800173e:	4823      	ldr	r0, [pc, #140]	; (80017cc <systemInit+0x200>)
 8001740:	f006 fa84 	bl	8007c4c <HAL_TIM_Base_Start_IT>
	HAL_TIM_Base_Start_IT(&htim7);
 8001744:	4822      	ldr	r0, [pc, #136]	; (80017d0 <systemInit+0x204>)
 8001746:	f006 fa81 	bl	8007c4c <HAL_TIM_Base_Start_IT>
}
 800174a:	bf00      	nop
 800174c:	3710      	adds	r7, #16
 800174e:	46bd      	mov	sp, r7
 8001750:	bd80      	pop	{r7, pc}
 8001752:	bf00      	nop
 8001754:	20000380 	.word	0x20000380
 8001758:	200000c4 	.word	0x200000c4
 800175c:	20000384 	.word	0x20000384
 8001760:	20000070 	.word	0x20000070
 8001764:	2000038c 	.word	0x2000038c
 8001768:	200003ac 	.word	0x200003ac
 800176c:	200005dc 	.word	0x200005dc
 8001770:	200005ec 	.word	0x200005ec
 8001774:	200005fc 	.word	0x200005fc
 8001778:	200003b8 	.word	0x200003b8
 800177c:	200004b8 	.word	0x200004b8
 8001780:	200005bc 	.word	0x200005bc
 8001784:	200005c4 	.word	0x200005c4
 8001788:	200005cc 	.word	0x200005cc
 800178c:	20000138 	.word	0x20000138
 8001790:	20000190 	.word	0x20000190
 8001794:	200005da 	.word	0x200005da
 8001798:	200005d4 	.word	0x200005d4
 800179c:	200005d2 	.word	0x200005d2
 80017a0:	200005d8 	.word	0x200005d8
 80017a4:	2000038a 	.word	0x2000038a
 80017a8:	200003b4 	.word	0x200003b4
 80017ac:	200003b5 	.word	0x200003b5
 80017b0:	200003b6 	.word	0x200003b6
 80017b4:	20000615 	.word	0x20000615
 80017b8:	20000614 	.word	0x20000614
 80017bc:	20000338 	.word	0x20000338
 80017c0:	20000388 	.word	0x20000388
 80017c4:	20000048 	.word	0x20000048
 80017c8:	20000118 	.word	0x20000118
 80017cc:	200002a8 	.word	0x200002a8
 80017d0:	200002f0 	.word	0x200002f0

080017d4 <gpio_set_config>:

void gpio_set_config() {
 80017d4:	b590      	push	{r4, r7, lr}
 80017d6:	b083      	sub	sp, #12
 80017d8:	af00      	add	r7, sp, #0
	// Set LED gpio
	led_orange = create_GPIO_Config(GPIOB, GPIO_PIN_14);	// Orange LED (Heartbeat LED)
 80017da:	4c30      	ldr	r4, [pc, #192]	; (800189c <gpio_set_config+0xc8>)
 80017dc:	463b      	mov	r3, r7
 80017de:	f44f 4280 	mov.w	r2, #16384	; 0x4000
 80017e2:	492f      	ldr	r1, [pc, #188]	; (80018a0 <gpio_set_config+0xcc>)
 80017e4:	4618      	mov	r0, r3
 80017e6:	f7ff fa03 	bl	8000bf0 <create_GPIO_Config>
 80017ea:	4622      	mov	r2, r4
 80017ec:	463b      	mov	r3, r7
 80017ee:	e893 0003 	ldmia.w	r3, {r0, r1}
 80017f2:	e882 0003 	stmia.w	r2, {r0, r1}
	led_green = create_GPIO_Config(GPIOB, GPIO_PIN_7);		// Green LED (Hard Drive LED)
 80017f6:	4c2b      	ldr	r4, [pc, #172]	; (80018a4 <gpio_set_config+0xd0>)
 80017f8:	463b      	mov	r3, r7
 80017fa:	2280      	movs	r2, #128	; 0x80
 80017fc:	4928      	ldr	r1, [pc, #160]	; (80018a0 <gpio_set_config+0xcc>)
 80017fe:	4618      	mov	r0, r3
 8001800:	f7ff f9f6 	bl	8000bf0 <create_GPIO_Config>
 8001804:	4622      	mov	r2, r4
 8001806:	463b      	mov	r3, r7
 8001808:	e893 0003 	ldmia.w	r3, {r0, r1}
 800180c:	e882 0003 	stmia.w	r2, {r0, r1}

	// SPI Flash 0 CS and WP
	cs_spi1 = create_GPIO_Config(GPIOC, GPIO_PIN_4);		// Change for SRAD
 8001810:	4c25      	ldr	r4, [pc, #148]	; (80018a8 <gpio_set_config+0xd4>)
 8001812:	463b      	mov	r3, r7
 8001814:	2210      	movs	r2, #16
 8001816:	4925      	ldr	r1, [pc, #148]	; (80018ac <gpio_set_config+0xd8>)
 8001818:	4618      	mov	r0, r3
 800181a:	f7ff f9e9 	bl	8000bf0 <create_GPIO_Config>
 800181e:	4622      	mov	r2, r4
 8001820:	463b      	mov	r3, r7
 8001822:	e893 0003 	ldmia.w	r3, {r0, r1}
 8001826:	e882 0003 	stmia.w	r2, {r0, r1}
	wp_spi1 = create_GPIO_Config(GPIOA, GPIO_PIN_4);
 800182a:	4c21      	ldr	r4, [pc, #132]	; (80018b0 <gpio_set_config+0xdc>)
 800182c:	463b      	mov	r3, r7
 800182e:	2210      	movs	r2, #16
 8001830:	4920      	ldr	r1, [pc, #128]	; (80018b4 <gpio_set_config+0xe0>)
 8001832:	4618      	mov	r0, r3
 8001834:	f7ff f9dc 	bl	8000bf0 <create_GPIO_Config>
 8001838:	4622      	mov	r2, r4
 800183a:	463b      	mov	r3, r7
 800183c:	e893 0003 	ldmia.w	r3, {r0, r1}
 8001840:	e882 0003 	stmia.w	r2, {r0, r1}

	// SPI Flash 1 CS and WP
	cs_spi2 = create_GPIO_Config(GPIOC, GPIO_PIN_1);		// Change for SRAD
 8001844:	4c1c      	ldr	r4, [pc, #112]	; (80018b8 <gpio_set_config+0xe4>)
 8001846:	463b      	mov	r3, r7
 8001848:	2202      	movs	r2, #2
 800184a:	4918      	ldr	r1, [pc, #96]	; (80018ac <gpio_set_config+0xd8>)
 800184c:	4618      	mov	r0, r3
 800184e:	f7ff f9cf 	bl	8000bf0 <create_GPIO_Config>
 8001852:	4622      	mov	r2, r4
 8001854:	463b      	mov	r3, r7
 8001856:	e893 0003 	ldmia.w	r3, {r0, r1}
 800185a:	e882 0003 	stmia.w	r2, {r0, r1}
	wp_spi2 = create_GPIO_Config(GPIOC, GPIO_PIN_0);
 800185e:	4c17      	ldr	r4, [pc, #92]	; (80018bc <gpio_set_config+0xe8>)
 8001860:	463b      	mov	r3, r7
 8001862:	2201      	movs	r2, #1
 8001864:	4911      	ldr	r1, [pc, #68]	; (80018ac <gpio_set_config+0xd8>)
 8001866:	4618      	mov	r0, r3
 8001868:	f7ff f9c2 	bl	8000bf0 <create_GPIO_Config>
 800186c:	4622      	mov	r2, r4
 800186e:	463b      	mov	r3, r7
 8001870:	e893 0003 	ldmia.w	r3, {r0, r1}
 8001874:	e882 0003 	stmia.w	r2, {r0, r1}

	// Flight Jumper GPIO Input
	jmp_flight = create_GPIO_Config(GPIOB, GPIO_PIN_1);
 8001878:	4c11      	ldr	r4, [pc, #68]	; (80018c0 <gpio_set_config+0xec>)
 800187a:	463b      	mov	r3, r7
 800187c:	2202      	movs	r2, #2
 800187e:	4908      	ldr	r1, [pc, #32]	; (80018a0 <gpio_set_config+0xcc>)
 8001880:	4618      	mov	r0, r3
 8001882:	f7ff f9b5 	bl	8000bf0 <create_GPIO_Config>
 8001886:	4622      	mov	r2, r4
 8001888:	463b      	mov	r3, r7
 800188a:	e893 0003 	ldmia.w	r3, {r0, r1}
 800188e:	e882 0003 	stmia.w	r2, {r0, r1}
}
 8001892:	bf00      	nop
 8001894:	370c      	adds	r7, #12
 8001896:	46bd      	mov	sp, r7
 8001898:	bd90      	pop	{r4, r7, pc}
 800189a:	bf00      	nop
 800189c:	200005dc 	.word	0x200005dc
 80018a0:	40020400 	.word	0x40020400
 80018a4:	200005e4 	.word	0x200005e4
 80018a8:	200005ec 	.word	0x200005ec
 80018ac:	40020800 	.word	0x40020800
 80018b0:	200005f4 	.word	0x200005f4
 80018b4:	40020000 	.word	0x40020000
 80018b8:	200005fc 	.word	0x200005fc
 80018bc:	20000604 	.word	0x20000604
 80018c0:	2000060c 	.word	0x2000060c

080018c4 <handleCAN>:

void handleCAN() {
 80018c4:	b580      	push	{r7, lr}
 80018c6:	b084      	sub	sp, #16
 80018c8:	af02      	add	r7, sp, #8
	// Process "clock-sync". Change flight-state to "rocket_loaded"
	if(CAN_RxHeader.StdId == CLK_SYNC_ID) {
 80018ca:	4b2a      	ldr	r3, [pc, #168]	; (8001974 <handleCAN+0xb0>)
 80018cc:	681b      	ldr	r3, [r3, #0]
 80018ce:	f240 72ff 	movw	r2, #2047	; 0x7ff
 80018d2:	4293      	cmp	r3, r2
 80018d4:	d10e      	bne.n	80018f4 <handleCAN+0x30>
		flight_state = LOADED;
 80018d6:	4b28      	ldr	r3, [pc, #160]	; (8001978 <handleCAN+0xb4>)
 80018d8:	2201      	movs	r2, #1
 80018da:	701a      	strb	r2, [r3, #0]
		uint8_t TxData[1] = {0x00};
 80018dc:	2300      	movs	r3, #0
 80018de:	713b      	strb	r3, [r7, #4]
		sendCAN_TxMessage(&hcan2, 1, TxData, &CAN_TxMailbox, CLK_SYNC_ID);
 80018e0:	1d3a      	adds	r2, r7, #4
 80018e2:	f240 73ff 	movw	r3, #2047	; 0x7ff
 80018e6:	9300      	str	r3, [sp, #0]
 80018e8:	4b24      	ldr	r3, [pc, #144]	; (800197c <handleCAN+0xb8>)
 80018ea:	2101      	movs	r1, #1
 80018ec:	4824      	ldr	r0, [pc, #144]	; (8001980 <handleCAN+0xbc>)
 80018ee:	f7fe ff8d 	bl	800080c <sendCAN_TxMessage>

	// Transmit values from accelerometer
	else if(CAN_RxHeader.StdId == DUMMY_ID) {
		send_uart_hex(&huart2, sysStatus);
	}
}
 80018f2:	e03a      	b.n	800196a <handleCAN+0xa6>
	else if(CAN_RxHeader.StdId == TX_BME280_0) {
 80018f4:	4b1f      	ldr	r3, [pc, #124]	; (8001974 <handleCAN+0xb0>)
 80018f6:	681b      	ldr	r3, [r3, #0]
 80018f8:	f240 5201 	movw	r2, #1281	; 0x501
 80018fc:	4293      	cmp	r3, r2
 80018fe:	d109      	bne.n	8001914 <handleCAN+0x50>
		sendCAN_TxMessage(&hcan2, 6, bme280_data_0, &CAN_TxMailbox, TX_BME280_0);
 8001900:	f240 5301 	movw	r3, #1281	; 0x501
 8001904:	9300      	str	r3, [sp, #0]
 8001906:	4b1d      	ldr	r3, [pc, #116]	; (800197c <handleCAN+0xb8>)
 8001908:	4a1e      	ldr	r2, [pc, #120]	; (8001984 <handleCAN+0xc0>)
 800190a:	2106      	movs	r1, #6
 800190c:	481c      	ldr	r0, [pc, #112]	; (8001980 <handleCAN+0xbc>)
 800190e:	f7fe ff7d 	bl	800080c <sendCAN_TxMessage>
}
 8001912:	e02a      	b.n	800196a <handleCAN+0xa6>
	else if(CAN_RxHeader.StdId == TX_BME280_1) {
 8001914:	4b17      	ldr	r3, [pc, #92]	; (8001974 <handleCAN+0xb0>)
 8001916:	681b      	ldr	r3, [r3, #0]
 8001918:	f240 5202 	movw	r2, #1282	; 0x502
 800191c:	4293      	cmp	r3, r2
 800191e:	d109      	bne.n	8001934 <handleCAN+0x70>
		sendCAN_TxMessage(&hcan2, 6, bme280_data_1, &CAN_TxMailbox, TX_BME280_1);
 8001920:	f240 5302 	movw	r3, #1282	; 0x502
 8001924:	9300      	str	r3, [sp, #0]
 8001926:	4b15      	ldr	r3, [pc, #84]	; (800197c <handleCAN+0xb8>)
 8001928:	4a17      	ldr	r2, [pc, #92]	; (8001988 <handleCAN+0xc4>)
 800192a:	2106      	movs	r1, #6
 800192c:	4814      	ldr	r0, [pc, #80]	; (8001980 <handleCAN+0xbc>)
 800192e:	f7fe ff6d 	bl	800080c <sendCAN_TxMessage>
}
 8001932:	e01a      	b.n	800196a <handleCAN+0xa6>
	else if(CAN_RxHeader.StdId == TX_ACCEL) {
 8001934:	4b0f      	ldr	r3, [pc, #60]	; (8001974 <handleCAN+0xb0>)
 8001936:	681b      	ldr	r3, [r3, #0]
 8001938:	f240 5203 	movw	r2, #1283	; 0x503
 800193c:	4293      	cmp	r3, r2
 800193e:	d109      	bne.n	8001954 <handleCAN+0x90>
		sendCAN_TxMessage(&hcan2, 6, accel_data, &CAN_TxMailbox, TX_ACCEL);
 8001940:	f240 5303 	movw	r3, #1283	; 0x503
 8001944:	9300      	str	r3, [sp, #0]
 8001946:	4b0d      	ldr	r3, [pc, #52]	; (800197c <handleCAN+0xb8>)
 8001948:	4a10      	ldr	r2, [pc, #64]	; (800198c <handleCAN+0xc8>)
 800194a:	2106      	movs	r1, #6
 800194c:	480c      	ldr	r0, [pc, #48]	; (8001980 <handleCAN+0xbc>)
 800194e:	f7fe ff5d 	bl	800080c <sendCAN_TxMessage>
}
 8001952:	e00a      	b.n	800196a <handleCAN+0xa6>
	else if(CAN_RxHeader.StdId == DUMMY_ID) {
 8001954:	4b07      	ldr	r3, [pc, #28]	; (8001974 <handleCAN+0xb0>)
 8001956:	681b      	ldr	r3, [r3, #0]
 8001958:	f5b3 6fe0 	cmp.w	r3, #1792	; 0x700
 800195c:	d105      	bne.n	800196a <handleCAN+0xa6>
		send_uart_hex(&huart2, sysStatus);
 800195e:	4b0c      	ldr	r3, [pc, #48]	; (8001990 <handleCAN+0xcc>)
 8001960:	781b      	ldrb	r3, [r3, #0]
 8001962:	4619      	mov	r1, r3
 8001964:	480b      	ldr	r0, [pc, #44]	; (8001994 <handleCAN+0xd0>)
 8001966:	f001 fa20 	bl	8002daa <send_uart_hex>
}
 800196a:	bf00      	nop
 800196c:	3708      	adds	r7, #8
 800196e:	46bd      	mov	sp, r7
 8001970:	bd80      	pop	{r7, pc}
 8001972:	bf00      	nop
 8001974:	20000390 	.word	0x20000390
 8001978:	20000615 	.word	0x20000615
 800197c:	2000038c 	.word	0x2000038c
 8001980:	20000048 	.word	0x20000048
 8001984:	200005c4 	.word	0x200005c4
 8001988:	200005cc 	.word	0x200005cc
 800198c:	200005bc 	.word	0x200005bc
 8001990:	20000614 	.word	0x20000614
 8001994:	20000338 	.word	0x20000338

08001998 <handleUART>:

void handleUART() {
 8001998:	b590      	push	{r4, r7, lr}
 800199a:	b085      	sub	sp, #20
 800199c:	af02      	add	r7, sp, #8
	UART_HandleTypeDef *huart = &huart2;
 800199e:	4b8e      	ldr	r3, [pc, #568]	; (8001bd8 <handleUART+0x240>)
 80019a0:	607b      	str	r3, [r7, #4]

	// Send Heartbeat to UART (data_rx[0] = "h")
	if (UARTRxData[0] == 0x68) {
 80019a2:	4b8e      	ldr	r3, [pc, #568]	; (8001bdc <handleUART+0x244>)
 80019a4:	781b      	ldrb	r3, [r3, #0]
 80019a6:	2b68      	cmp	r3, #104	; 0x68
 80019a8:	d109      	bne.n	80019be <handleUART+0x26>
		heartbeatUART(huart);
 80019aa:	6878      	ldr	r0, [r7, #4]
 80019ac:	f000 f9ea 	bl	8001d84 <heartbeatUART>
		send_uart_hex(huart, sysStatus);
 80019b0:	4b8b      	ldr	r3, [pc, #556]	; (8001be0 <handleUART+0x248>)
 80019b2:	781b      	ldrb	r3, [r3, #0]
 80019b4:	4619      	mov	r1, r3
 80019b6:	6878      	ldr	r0, [r7, #4]
 80019b8:	f001 f9f7 	bl	8002daa <send_uart_hex>
 80019bc:	e102      	b.n	8001bc4 <handleUART+0x22c>
	}

/***************************** SPI Flash ************************************************/
	// Erase specified flash chip (data_rx[0]  = "e")
	else if (UARTRxData[0] == 0x65) {
 80019be:	4b87      	ldr	r3, [pc, #540]	; (8001bdc <handleUART+0x244>)
 80019c0:	781b      	ldrb	r3, [r3, #0]
 80019c2:	2b65      	cmp	r3, #101	; 0x65
 80019c4:	d11e      	bne.n	8001a04 <handleUART+0x6c>
		if(decodeASCII(UARTRxData[1]) == 0) {
 80019c6:	4b85      	ldr	r3, [pc, #532]	; (8001bdc <handleUART+0x244>)
 80019c8:	785b      	ldrb	r3, [r3, #1]
 80019ca:	4618      	mov	r0, r3
 80019cc:	f000 f91a 	bl	8001c04 <decodeASCII>
 80019d0:	4603      	mov	r3, r0
 80019d2:	2b00      	cmp	r3, #0
 80019d4:	d106      	bne.n	80019e4 <handleUART+0x4c>
			eraseFlashSPI(&hspi1, huart, cs_spi1);
 80019d6:	4b83      	ldr	r3, [pc, #524]	; (8001be4 <handleUART+0x24c>)
 80019d8:	cb0c      	ldmia	r3, {r2, r3}
 80019da:	6879      	ldr	r1, [r7, #4]
 80019dc:	4882      	ldr	r0, [pc, #520]	; (8001be8 <handleUART+0x250>)
 80019de:	f000 f9dd 	bl	8001d9c <eraseFlashSPI>
 80019e2:	e0ef      	b.n	8001bc4 <handleUART+0x22c>
		} else if (decodeASCII(UARTRxData[1]) == 1) {
 80019e4:	4b7d      	ldr	r3, [pc, #500]	; (8001bdc <handleUART+0x244>)
 80019e6:	785b      	ldrb	r3, [r3, #1]
 80019e8:	4618      	mov	r0, r3
 80019ea:	f000 f90b 	bl	8001c04 <decodeASCII>
 80019ee:	4603      	mov	r3, r0
 80019f0:	2b01      	cmp	r3, #1
 80019f2:	f040 80e7 	bne.w	8001bc4 <handleUART+0x22c>
			eraseFlashSPI(&hspi2, huart, cs_spi2);
 80019f6:	4b7d      	ldr	r3, [pc, #500]	; (8001bec <handleUART+0x254>)
 80019f8:	cb0c      	ldmia	r3, {r2, r3}
 80019fa:	6879      	ldr	r1, [r7, #4]
 80019fc:	487c      	ldr	r0, [pc, #496]	; (8001bf0 <handleUART+0x258>)
 80019fe:	f000 f9cd 	bl	8001d9c <eraseFlashSPI>
 8001a02:	e0df      	b.n	8001bc4 <handleUART+0x22c>
		}
	}

	// Read data from specified flash chip (data_rx[0] = "r")
	else if (UARTRxData[0] == 0x72) {
 8001a04:	4b75      	ldr	r3, [pc, #468]	; (8001bdc <handleUART+0x244>)
 8001a06:	781b      	ldrb	r3, [r3, #0]
 8001a08:	2b72      	cmp	r3, #114	; 0x72
 8001a0a:	d11e      	bne.n	8001a4a <handleUART+0xb2>
		if(decodeASCII(UARTRxData[1]) == 0) {
 8001a0c:	4b73      	ldr	r3, [pc, #460]	; (8001bdc <handleUART+0x244>)
 8001a0e:	785b      	ldrb	r3, [r3, #1]
 8001a10:	4618      	mov	r0, r3
 8001a12:	f000 f8f7 	bl	8001c04 <decodeASCII>
 8001a16:	4603      	mov	r3, r0
 8001a18:	2b00      	cmp	r3, #0
 8001a1a:	d106      	bne.n	8001a2a <handleUART+0x92>
			readFlashToUART(&hspi1, huart, cs_spi1);
 8001a1c:	4b71      	ldr	r3, [pc, #452]	; (8001be4 <handleUART+0x24c>)
 8001a1e:	cb0c      	ldmia	r3, {r2, r3}
 8001a20:	6879      	ldr	r1, [r7, #4]
 8001a22:	4871      	ldr	r0, [pc, #452]	; (8001be8 <handleUART+0x250>)
 8001a24:	f000 f9f6 	bl	8001e14 <readFlashToUART>
 8001a28:	e0cc      	b.n	8001bc4 <handleUART+0x22c>
		} else if (decodeASCII(UARTRxData[1]) == 1) {
 8001a2a:	4b6c      	ldr	r3, [pc, #432]	; (8001bdc <handleUART+0x244>)
 8001a2c:	785b      	ldrb	r3, [r3, #1]
 8001a2e:	4618      	mov	r0, r3
 8001a30:	f000 f8e8 	bl	8001c04 <decodeASCII>
 8001a34:	4603      	mov	r3, r0
 8001a36:	2b01      	cmp	r3, #1
 8001a38:	f040 80c4 	bne.w	8001bc4 <handleUART+0x22c>
			readFlashToUART(&hspi2, huart, cs_spi2);
 8001a3c:	4b6b      	ldr	r3, [pc, #428]	; (8001bec <handleUART+0x254>)
 8001a3e:	cb0c      	ldmia	r3, {r2, r3}
 8001a40:	6879      	ldr	r1, [r7, #4]
 8001a42:	486b      	ldr	r0, [pc, #428]	; (8001bf0 <handleUART+0x258>)
 8001a44:	f000 f9e6 	bl	8001e14 <readFlashToUART>
 8001a48:	e0bc      	b.n	8001bc4 <handleUART+0x22c>
		}
	}

	// Read Manufacturer over SPI (data_rx[0] = "m")
	else if (UARTRxData[0] == 0x6d) {
 8001a4a:	4b64      	ldr	r3, [pc, #400]	; (8001bdc <handleUART+0x244>)
 8001a4c:	781b      	ldrb	r3, [r3, #0]
 8001a4e:	2b6d      	cmp	r3, #109	; 0x6d
 8001a50:	d11e      	bne.n	8001a90 <handleUART+0xf8>
		if(decodeASCII(UARTRxData[1]) == 0) {
 8001a52:	4b62      	ldr	r3, [pc, #392]	; (8001bdc <handleUART+0x244>)
 8001a54:	785b      	ldrb	r3, [r3, #1]
 8001a56:	4618      	mov	r0, r3
 8001a58:	f000 f8d4 	bl	8001c04 <decodeASCII>
 8001a5c:	4603      	mov	r3, r0
 8001a5e:	2b00      	cmp	r3, #0
 8001a60:	d106      	bne.n	8001a70 <handleUART+0xd8>
			readFlashManuSPI(&hspi1, huart, cs_spi1);
 8001a62:	4b60      	ldr	r3, [pc, #384]	; (8001be4 <handleUART+0x24c>)
 8001a64:	cb0c      	ldmia	r3, {r2, r3}
 8001a66:	6879      	ldr	r1, [r7, #4]
 8001a68:	485f      	ldr	r0, [pc, #380]	; (8001be8 <handleUART+0x250>)
 8001a6a:	f000 fa3f 	bl	8001eec <readFlashManuSPI>
 8001a6e:	e0a9      	b.n	8001bc4 <handleUART+0x22c>
		} else if (decodeASCII(UARTRxData[1]) == 1) {
 8001a70:	4b5a      	ldr	r3, [pc, #360]	; (8001bdc <handleUART+0x244>)
 8001a72:	785b      	ldrb	r3, [r3, #1]
 8001a74:	4618      	mov	r0, r3
 8001a76:	f000 f8c5 	bl	8001c04 <decodeASCII>
 8001a7a:	4603      	mov	r3, r0
 8001a7c:	2b01      	cmp	r3, #1
 8001a7e:	f040 80a1 	bne.w	8001bc4 <handleUART+0x22c>
			readFlashManuSPI(&hspi2, huart, cs_spi2);
 8001a82:	4b5a      	ldr	r3, [pc, #360]	; (8001bec <handleUART+0x254>)
 8001a84:	cb0c      	ldmia	r3, {r2, r3}
 8001a86:	6879      	ldr	r1, [r7, #4]
 8001a88:	4859      	ldr	r0, [pc, #356]	; (8001bf0 <handleUART+0x258>)
 8001a8a:	f000 fa2f 	bl	8001eec <readFlashManuSPI>
 8001a8e:	e099      	b.n	8001bc4 <handleUART+0x22c>
		}
	}

	// Write a page over SPI (data_rx[0] = "w")
	else if (UARTRxData[0] == 0x77) {
 8001a90:	4b52      	ldr	r3, [pc, #328]	; (8001bdc <handleUART+0x244>)
 8001a92:	781b      	ldrb	r3, [r3, #0]
 8001a94:	2b77      	cmp	r3, #119	; 0x77
 8001a96:	d11d      	bne.n	8001ad4 <handleUART+0x13c>
		if(decodeASCII(UARTRxData[1]) == 0) {
 8001a98:	4b50      	ldr	r3, [pc, #320]	; (8001bdc <handleUART+0x244>)
 8001a9a:	785b      	ldrb	r3, [r3, #1]
 8001a9c:	4618      	mov	r0, r3
 8001a9e:	f000 f8b1 	bl	8001c04 <decodeASCII>
 8001aa2:	4603      	mov	r3, r0
 8001aa4:	2b00      	cmp	r3, #0
 8001aa6:	d106      	bne.n	8001ab6 <handleUART+0x11e>
			writePageSPI_W(&hspi1, huart, cs_spi1);
 8001aa8:	4b4e      	ldr	r3, [pc, #312]	; (8001be4 <handleUART+0x24c>)
 8001aaa:	cb0c      	ldmia	r3, {r2, r3}
 8001aac:	6879      	ldr	r1, [r7, #4]
 8001aae:	484e      	ldr	r0, [pc, #312]	; (8001be8 <handleUART+0x250>)
 8001ab0:	f000 fa3c 	bl	8001f2c <writePageSPI_W>
 8001ab4:	e086      	b.n	8001bc4 <handleUART+0x22c>
		} else if (decodeASCII(UARTRxData[1]) == 1) {
 8001ab6:	4b49      	ldr	r3, [pc, #292]	; (8001bdc <handleUART+0x244>)
 8001ab8:	785b      	ldrb	r3, [r3, #1]
 8001aba:	4618      	mov	r0, r3
 8001abc:	f000 f8a2 	bl	8001c04 <decodeASCII>
 8001ac0:	4603      	mov	r3, r0
 8001ac2:	2b01      	cmp	r3, #1
 8001ac4:	d17e      	bne.n	8001bc4 <handleUART+0x22c>
			writePageSPI_W(&hspi2, huart, cs_spi2);
 8001ac6:	4b49      	ldr	r3, [pc, #292]	; (8001bec <handleUART+0x254>)
 8001ac8:	cb0c      	ldmia	r3, {r2, r3}
 8001aca:	6879      	ldr	r1, [r7, #4]
 8001acc:	4848      	ldr	r0, [pc, #288]	; (8001bf0 <handleUART+0x258>)
 8001ace:	f000 fa2d 	bl	8001f2c <writePageSPI_W>
 8001ad2:	e077      	b.n	8001bc4 <handleUART+0x22c>
		}
	}

	// Software reset flash chip over SPI (data_rx[0] = "x")
	else if (UARTRxData[0] == 0x78) {
 8001ad4:	4b41      	ldr	r3, [pc, #260]	; (8001bdc <handleUART+0x244>)
 8001ad6:	781b      	ldrb	r3, [r3, #0]
 8001ad8:	2b78      	cmp	r3, #120	; 0x78
 8001ada:	d11d      	bne.n	8001b18 <handleUART+0x180>
		if(decodeASCII(UARTRxData[1]) == 0) {
 8001adc:	4b3f      	ldr	r3, [pc, #252]	; (8001bdc <handleUART+0x244>)
 8001ade:	785b      	ldrb	r3, [r3, #1]
 8001ae0:	4618      	mov	r0, r3
 8001ae2:	f000 f88f 	bl	8001c04 <decodeASCII>
 8001ae6:	4603      	mov	r3, r0
 8001ae8:	2b00      	cmp	r3, #0
 8001aea:	d106      	bne.n	8001afa <handleUART+0x162>
			resetSPIFlash(&hspi1, huart, cs_spi1);
 8001aec:	4b3d      	ldr	r3, [pc, #244]	; (8001be4 <handleUART+0x24c>)
 8001aee:	cb0c      	ldmia	r3, {r2, r3}
 8001af0:	6879      	ldr	r1, [r7, #4]
 8001af2:	483d      	ldr	r0, [pc, #244]	; (8001be8 <handleUART+0x250>)
 8001af4:	f000 fa6e 	bl	8001fd4 <resetSPIFlash>
 8001af8:	e064      	b.n	8001bc4 <handleUART+0x22c>
		} else if (decodeASCII(UARTRxData[1]) == 1) {
 8001afa:	4b38      	ldr	r3, [pc, #224]	; (8001bdc <handleUART+0x244>)
 8001afc:	785b      	ldrb	r3, [r3, #1]
 8001afe:	4618      	mov	r0, r3
 8001b00:	f000 f880 	bl	8001c04 <decodeASCII>
 8001b04:	4603      	mov	r3, r0
 8001b06:	2b01      	cmp	r3, #1
 8001b08:	d15c      	bne.n	8001bc4 <handleUART+0x22c>
			resetSPIFlash(&hspi2, huart, cs_spi2);
 8001b0a:	4b38      	ldr	r3, [pc, #224]	; (8001bec <handleUART+0x254>)
 8001b0c:	cb0c      	ldmia	r3, {r2, r3}
 8001b0e:	6879      	ldr	r1, [r7, #4]
 8001b10:	4837      	ldr	r0, [pc, #220]	; (8001bf0 <handleUART+0x258>)
 8001b12:	f000 fa5f 	bl	8001fd4 <resetSPIFlash>
 8001b16:	e055      	b.n	8001bc4 <handleUART+0x22c>
		}
	}

/*********************************** I2C Accelerometer ***********************************/
	// Read Accelerometer WhoAmI (data_rx[0] = "c")
	else if (UARTRxData[0] == 0x63) {
 8001b18:	4b30      	ldr	r3, [pc, #192]	; (8001bdc <handleUART+0x244>)
 8001b1a:	781b      	ldrb	r3, [r3, #0]
 8001b1c:	2b63      	cmp	r3, #99	; 0x63
 8001b1e:	d106      	bne.n	8001b2e <handleUART+0x196>
		checkAccelWhoAmI(i2c_accel, huart);
 8001b20:	4b34      	ldr	r3, [pc, #208]	; (8001bf4 <handleUART+0x25c>)
 8001b22:	681b      	ldr	r3, [r3, #0]
 8001b24:	6879      	ldr	r1, [r7, #4]
 8001b26:	4618      	mov	r0, r3
 8001b28:	f000 fa6c 	bl	8002004 <checkAccelWhoAmI>
 8001b2c:	e04a      	b.n	8001bc4 <handleUART+0x22c>
	}

	// Read the accelerometer and print to the UART[0] (data_rx [0] = "a")
	else if (UARTRxData[0] == 0x61) {
 8001b2e:	4b2b      	ldr	r3, [pc, #172]	; (8001bdc <handleUART+0x244>)
 8001b30:	781b      	ldrb	r3, [r3, #0]
 8001b32:	2b61      	cmp	r3, #97	; 0x61
 8001b34:	d103      	bne.n	8001b3e <handleUART+0x1a6>
		accelToUART(huart);
 8001b36:	6878      	ldr	r0, [r7, #4]
 8001b38:	f000 fa78 	bl	800202c <accelToUART>
 8001b3c:	e042      	b.n	8001bc4 <handleUART+0x22c>
	}

/********************************** I2C BME280 *******************************************/
	// Read the temp sensor ID and print to the UART[0] (data_rx [0]= "b")
	else if (UARTRxData[0] == 0x62) {
 8001b3e:	4b27      	ldr	r3, [pc, #156]	; (8001bdc <handleUART+0x244>)
 8001b40:	781b      	ldrb	r3, [r3, #0]
 8001b42:	2b62      	cmp	r3, #98	; 0x62
 8001b44:	d10d      	bne.n	8001b62 <handleUART+0x1ca>
		readTempSensorID(i2c_bme280, huart, decodeASCII(UARTRxData[1]));
 8001b46:	4b2c      	ldr	r3, [pc, #176]	; (8001bf8 <handleUART+0x260>)
 8001b48:	681c      	ldr	r4, [r3, #0]
 8001b4a:	4b24      	ldr	r3, [pc, #144]	; (8001bdc <handleUART+0x244>)
 8001b4c:	785b      	ldrb	r3, [r3, #1]
 8001b4e:	4618      	mov	r0, r3
 8001b50:	f000 f858 	bl	8001c04 <decodeASCII>
 8001b54:	4603      	mov	r3, r0
 8001b56:	461a      	mov	r2, r3
 8001b58:	6879      	ldr	r1, [r7, #4]
 8001b5a:	4620      	mov	r0, r4
 8001b5c:	f000 fa82 	bl	8002064 <readTempSensorID>
 8001b60:	e030      	b.n	8001bc4 <handleUART+0x22c>
	}

	// Read the temp sensor calibration registers and print to the UART (data_rx[0] = "p")
	else if (UARTRxData[0] == 0x70) {
 8001b62:	4b1e      	ldr	r3, [pc, #120]	; (8001bdc <handleUART+0x244>)
 8001b64:	781b      	ldrb	r3, [r3, #0]
 8001b66:	2b70      	cmp	r3, #112	; 0x70
 8001b68:	d10d      	bne.n	8001b86 <handleUART+0x1ee>
		readTempCalibration(i2c_bme280, huart, decodeASCII(UARTRxData[1]));
 8001b6a:	4b23      	ldr	r3, [pc, #140]	; (8001bf8 <handleUART+0x260>)
 8001b6c:	681c      	ldr	r4, [r3, #0]
 8001b6e:	4b1b      	ldr	r3, [pc, #108]	; (8001bdc <handleUART+0x244>)
 8001b70:	785b      	ldrb	r3, [r3, #1]
 8001b72:	4618      	mov	r0, r3
 8001b74:	f000 f846 	bl	8001c04 <decodeASCII>
 8001b78:	4603      	mov	r3, r0
 8001b7a:	461a      	mov	r2, r3
 8001b7c:	6879      	ldr	r1, [r7, #4]
 8001b7e:	4620      	mov	r0, r4
 8001b80:	f000 fa85 	bl	800208e <readTempCalibration>
 8001b84:	e01e      	b.n	8001bc4 <handleUART+0x22c>
	}

	// Read the temp sensor and print to the UART[0] (data_rx [0]= "t")
	else if (UARTRxData[0] == 0x74) {
 8001b86:	4b15      	ldr	r3, [pc, #84]	; (8001bdc <handleUART+0x244>)
 8001b88:	781b      	ldrb	r3, [r3, #0]
 8001b8a:	2b74      	cmp	r3, #116	; 0x74
 8001b8c:	d10a      	bne.n	8001ba4 <handleUART+0x20c>
		readTempSensor(huart, decodeASCII(UARTRxData[1]));
 8001b8e:	4b13      	ldr	r3, [pc, #76]	; (8001bdc <handleUART+0x244>)
 8001b90:	785b      	ldrb	r3, [r3, #1]
 8001b92:	4618      	mov	r0, r3
 8001b94:	f000 f836 	bl	8001c04 <decodeASCII>
 8001b98:	4603      	mov	r3, r0
 8001b9a:	4619      	mov	r1, r3
 8001b9c:	6878      	ldr	r0, [r7, #4]
 8001b9e:	f000 facd 	bl	800213c <readTempSensor>
 8001ba2:	e00f      	b.n	8001bc4 <handleUART+0x22c>
	}

	/********************************** CAN Bus *******************************************/
	// Send the second byte received over the CAN bus as a payload with id 0x700 (data_rx [0]= "n")
	else if (UARTRxData[0] == 0x6E) {
 8001ba4:	4b0d      	ldr	r3, [pc, #52]	; (8001bdc <handleUART+0x244>)
 8001ba6:	781b      	ldrb	r3, [r3, #0]
 8001ba8:	2b6e      	cmp	r3, #110	; 0x6e
 8001baa:	d10b      	bne.n	8001bc4 <handleUART+0x22c>
		uint8_t TxData[1] = {UARTRxData[1]};
 8001bac:	4b0b      	ldr	r3, [pc, #44]	; (8001bdc <handleUART+0x244>)
 8001bae:	785b      	ldrb	r3, [r3, #1]
 8001bb0:	703b      	strb	r3, [r7, #0]
		sendCAN_TxMessage(&hcan2, 1, TxData, &CAN_TxMailbox, DUMMY_ID);
 8001bb2:	463a      	mov	r2, r7
 8001bb4:	f44f 63e0 	mov.w	r3, #1792	; 0x700
 8001bb8:	9300      	str	r3, [sp, #0]
 8001bba:	4b10      	ldr	r3, [pc, #64]	; (8001bfc <handleUART+0x264>)
 8001bbc:	2101      	movs	r1, #1
 8001bbe:	4810      	ldr	r0, [pc, #64]	; (8001c00 <handleUART+0x268>)
 8001bc0:	f7fe fe24 	bl	800080c <sendCAN_TxMessage>
	}

	UARTRxData[0] = 0x00;
 8001bc4:	4b05      	ldr	r3, [pc, #20]	; (8001bdc <handleUART+0x244>)
 8001bc6:	2200      	movs	r2, #0
 8001bc8:	701a      	strb	r2, [r3, #0]
	UARTRxData[1] = 0x00;
 8001bca:	4b04      	ldr	r3, [pc, #16]	; (8001bdc <handleUART+0x244>)
 8001bcc:	2200      	movs	r2, #0
 8001bce:	705a      	strb	r2, [r3, #1]
}
 8001bd0:	bf00      	nop
 8001bd2:	370c      	adds	r7, #12
 8001bd4:	46bd      	mov	sp, r7
 8001bd6:	bd90      	pop	{r4, r7, pc}
 8001bd8:	20000338 	.word	0x20000338
 8001bdc:	20000388 	.word	0x20000388
 8001be0:	20000614 	.word	0x20000614
 8001be4:	200005ec 	.word	0x200005ec
 8001be8:	20000138 	.word	0x20000138
 8001bec:	200005fc 	.word	0x200005fc
 8001bf0:	20000190 	.word	0x20000190
 8001bf4:	20000380 	.word	0x20000380
 8001bf8:	20000384 	.word	0x20000384
 8001bfc:	2000038c 	.word	0x2000038c
 8001c00:	20000048 	.word	0x20000048

08001c04 <decodeASCII>:

uint8_t decodeASCII(uint8_t asciiVal) {
 8001c04:	b480      	push	{r7}
 8001c06:	b085      	sub	sp, #20
 8001c08:	af00      	add	r7, sp, #0
 8001c0a:	4603      	mov	r3, r0
 8001c0c:	71fb      	strb	r3, [r7, #7]
	int returnVal = -1;
 8001c0e:	f04f 33ff 	mov.w	r3, #4294967295	; 0xffffffff
 8001c12:	60fb      	str	r3, [r7, #12]
	if ((asciiVal >= 48) && (asciiVal <= 57)) {
 8001c14:	79fb      	ldrb	r3, [r7, #7]
 8001c16:	2b2f      	cmp	r3, #47	; 0x2f
 8001c18:	d905      	bls.n	8001c26 <decodeASCII+0x22>
 8001c1a:	79fb      	ldrb	r3, [r7, #7]
 8001c1c:	2b39      	cmp	r3, #57	; 0x39
 8001c1e:	d802      	bhi.n	8001c26 <decodeASCII+0x22>
		returnVal = asciiVal - 48;
 8001c20:	79fb      	ldrb	r3, [r7, #7]
 8001c22:	3b30      	subs	r3, #48	; 0x30
 8001c24:	60fb      	str	r3, [r7, #12]
	}
	return returnVal;
 8001c26:	68fb      	ldr	r3, [r7, #12]
 8001c28:	b2db      	uxtb	r3, r3
}
 8001c2a:	4618      	mov	r0, r3
 8001c2c:	3714      	adds	r7, #20
 8001c2e:	46bd      	mov	sp, r7
 8001c30:	f85d 7b04 	ldr.w	r7, [sp], #4
 8001c34:	4770      	bx	lr
	...

08001c38 <combine_system_status>:

uint8_t combine_system_status() {
 8001c38:	b480      	push	{r7}
 8001c3a:	b083      	sub	sp, #12
 8001c3c:	af00      	add	r7, sp, #0
    // Mask status to use only bits 4:0
    uint8_t masked_status = sysStatus & 0x1F; // 00011111b
 8001c3e:	4b10      	ldr	r3, [pc, #64]	; (8001c80 <combine_system_status+0x48>)
 8001c40:	781b      	ldrb	r3, [r3, #0]
 8001c42:	f003 031f 	and.w	r3, r3, #31
 8001c46:	71fb      	strb	r3, [r7, #7]

    // Mask flight_state to use only bits 1:0
    uint8_t masked_flight_state = flight_state & 0x03; // 00000011b
 8001c48:	4b0e      	ldr	r3, [pc, #56]	; (8001c84 <combine_system_status+0x4c>)
 8001c4a:	781b      	ldrb	r3, [r3, #0]
 8001c4c:	f003 0303 	and.w	r3, r3, #3
 8001c50:	71bb      	strb	r3, [r7, #6]

    // Shift flight_state to the correct position (bits 6:5)
    uint8_t shifted_flight_state = masked_flight_state << 5;
 8001c52:	79bb      	ldrb	r3, [r7, #6]
 8001c54:	015b      	lsls	r3, r3, #5
 8001c56:	717b      	strb	r3, [r7, #5]

    // Combine the masked_status and shifted_flight_state
    uint8_t combined_value = masked_status | shifted_flight_state;
 8001c58:	79fa      	ldrb	r2, [r7, #7]
 8001c5a:	797b      	ldrb	r3, [r7, #5]
 8001c5c:	4313      	orrs	r3, r2
 8001c5e:	713b      	strb	r3, [r7, #4]

    // Mask end_of_flash to get the last bit and shift it to bit 7
    uint8_t end_of_flash_bit = (end_of_flash & 0x01) << 7;
 8001c60:	4b09      	ldr	r3, [pc, #36]	; (8001c88 <combine_system_status+0x50>)
 8001c62:	781b      	ldrb	r3, [r3, #0]
 8001c64:	01db      	lsls	r3, r3, #7
 8001c66:	70fb      	strb	r3, [r7, #3]

    // Combine with end_of_flash_bit
    combined_value |= end_of_flash_bit;
 8001c68:	793a      	ldrb	r2, [r7, #4]
 8001c6a:	78fb      	ldrb	r3, [r7, #3]
 8001c6c:	4313      	orrs	r3, r2
 8001c6e:	713b      	strb	r3, [r7, #4]

    return combined_value;
 8001c70:	793b      	ldrb	r3, [r7, #4]
}
 8001c72:	4618      	mov	r0, r3
 8001c74:	370c      	adds	r7, #12
 8001c76:	46bd      	mov	sp, r7
 8001c78:	f85d 7b04 	ldr.w	r7, [sp], #4
 8001c7c:	4770      	bx	lr
 8001c7e:	bf00      	nop
 8001c80:	20000614 	.word	0x20000614
 8001c84:	20000615 	.word	0x20000615
 8001c88:	200005da 	.word	0x200005da

08001c8c <configureCAN>:

void configureCAN() {
 8001c8c:	b580      	push	{r7, lr}
 8001c8e:	b08a      	sub	sp, #40	; 0x28
 8001c90:	af00      	add	r7, sp, #0
	CAN_FilterTypeDef canFilterConfig;

	canFilterConfig.FilterActivation = CAN_FILTER_ENABLE;
 8001c92:	2301      	movs	r3, #1
 8001c94:	623b      	str	r3, [r7, #32]
	canFilterConfig.FilterBank = 10;
 8001c96:	230a      	movs	r3, #10
 8001c98:	617b      	str	r3, [r7, #20]
	canFilterConfig.FilterFIFOAssignment = CAN_RX_FIFO0;
 8001c9a:	2300      	movs	r3, #0
 8001c9c:	613b      	str	r3, [r7, #16]
	canFilterConfig.FilterIdHigh = 0x500 << 5;				// Filter only messages with ID 1X1XXXXXXXXb
 8001c9e:	f44f 4320 	mov.w	r3, #40960	; 0xa000
 8001ca2:	603b      	str	r3, [r7, #0]
	canFilterConfig.FilterIdLow = 0x0000;
 8001ca4:	2300      	movs	r3, #0
 8001ca6:	607b      	str	r3, [r7, #4]
	canFilterConfig.FilterMaskIdHigh = 0x500 << 5;
 8001ca8:	f44f 4320 	mov.w	r3, #40960	; 0xa000
 8001cac:	60bb      	str	r3, [r7, #8]
	canFilterConfig.FilterMaskIdLow = 0x0000;
 8001cae:	2300      	movs	r3, #0
 8001cb0:	60fb      	str	r3, [r7, #12]
	canFilterConfig.FilterMode = CAN_FILTERMODE_IDMASK;
 8001cb2:	2300      	movs	r3, #0
 8001cb4:	61bb      	str	r3, [r7, #24]
	canFilterConfig.FilterScale = CAN_FILTERSCALE_32BIT;
 8001cb6:	2301      	movs	r3, #1
 8001cb8:	61fb      	str	r3, [r7, #28]
	canFilterConfig.SlaveStartFilterBank = 0;
 8001cba:	2300      	movs	r3, #0
 8001cbc:	627b      	str	r3, [r7, #36]	; 0x24

	HAL_CAN_ConfigFilter(&hcan2, &canFilterConfig);
 8001cbe:	463b      	mov	r3, r7
 8001cc0:	4619      	mov	r1, r3
 8001cc2:	4803      	ldr	r0, [pc, #12]	; (8001cd0 <configureCAN+0x44>)
 8001cc4:	f001 fa42 	bl	800314c <HAL_CAN_ConfigFilter>
}
 8001cc8:	bf00      	nop
 8001cca:	3728      	adds	r7, #40	; 0x28
 8001ccc:	46bd      	mov	sp, r7
 8001cce:	bd80      	pop	{r7, pc}
 8001cd0:	20000048 	.word	0x20000048

08001cd4 <Error_Handler>:
/**
  * @brief  This function is executed in case of error occurrence.
  * @retval None
  */
void Error_Handler(void)
{
 8001cd4:	b480      	push	{r7}
 8001cd6:	af00      	add	r7, sp, #0
  \details Disables IRQ interrupts by setting special-purpose register PRIMASK.
           Can only be executed in Privileged modes.
 */
__STATIC_FORCEINLINE void __disable_irq(void)
{
  __ASM volatile ("cpsid i" : : : "memory");
 8001cd8:	b672      	cpsid	i
}
 8001cda:	bf00      	nop
  /* USER CODE BEGIN Error_Handler_Debug */
  /* User can add his own implementation to report the HAL error return state */
  __disable_irq();
  while (1)
 8001cdc:	e7fe      	b.n	8001cdc <Error_Handler+0x8>
	...

08001ce0 <systemStatus>:

#include "peripheral_driver.h"
/***************************************************************************************************************
 * Generic Functions
 */
uint8_t systemStatus(SPI_HandleTypeDef *hspi1, SPI_HandleTypeDef *hspi2, I2C_HandleTypeDef* hi2c1, I2C_HandleTypeDef* hi2c2) {
 8001ce0:	b580      	push	{r7, lr}
 8001ce2:	b086      	sub	sp, #24
 8001ce4:	af00      	add	r7, sp, #0
 8001ce6:	60f8      	str	r0, [r7, #12]
 8001ce8:	60b9      	str	r1, [r7, #8]
 8001cea:	607a      	str	r2, [r7, #4]
 8001cec:	603b      	str	r3, [r7, #0]
	uint8_t retVal = 0x00;
 8001cee:	2300      	movs	r3, #0
 8001cf0:	75fb      	strb	r3, [r7, #23]

	// Check BME280_1
	if(readBME280_id_reg(hi2c1, 1) != 0x60) {			// Expected 0x60
 8001cf2:	2101      	movs	r1, #1
 8001cf4:	6878      	ldr	r0, [r7, #4]
 8001cf6:	f7fe fd19 	bl	800072c <readBME280_id_reg>
 8001cfa:	4603      	mov	r3, r0
 8001cfc:	2b60      	cmp	r3, #96	; 0x60
 8001cfe:	d003      	beq.n	8001d08 <systemStatus+0x28>
		retVal  = retVal | 0x10;
 8001d00:	7dfb      	ldrb	r3, [r7, #23]
 8001d02:	f043 0310 	orr.w	r3, r3, #16
 8001d06:	75fb      	strb	r3, [r7, #23]
	}

	// Check BME280_0
	if(readBME280_id_reg(hi2c1, 0) != 0x60) {			// Expected 0x60
 8001d08:	2100      	movs	r1, #0
 8001d0a:	6878      	ldr	r0, [r7, #4]
 8001d0c:	f7fe fd0e 	bl	800072c <readBME280_id_reg>
 8001d10:	4603      	mov	r3, r0
 8001d12:	2b60      	cmp	r3, #96	; 0x60
 8001d14:	d003      	beq.n	8001d1e <systemStatus+0x3e>
		retVal  = retVal | 0x08;
 8001d16:	7dfb      	ldrb	r3, [r7, #23]
 8001d18:	f043 0308 	orr.w	r3, r3, #8
 8001d1c:	75fb      	strb	r3, [r7, #23]
	}

	// Check Accelerometer
	if(readAccel_whoami(hi2c2) != 0xE5) {				// Expected 0xE5
 8001d1e:	6838      	ldr	r0, [r7, #0]
 8001d20:	f7fe fc46 	bl	80005b0 <readAccel_whoami>
 8001d24:	4603      	mov	r3, r0
 8001d26:	2be5      	cmp	r3, #229	; 0xe5
 8001d28:	d003      	beq.n	8001d32 <systemStatus+0x52>
		retVal  = retVal | 0x04;
 8001d2a:	7dfb      	ldrb	r3, [r7, #23]
 8001d2c:	f043 0304 	orr.w	r3, r3, #4
 8001d30:	75fb      	strb	r3, [r7, #23]
	}

	// Check SPIFlash_1
	uint8_t manu[2] = {0, 0};
 8001d32:	2300      	movs	r3, #0
 8001d34:	82bb      	strh	r3, [r7, #20]
	read_manufacturer_id(manu, hspi2, cs_spi2);
 8001d36:	4b11      	ldr	r3, [pc, #68]	; (8001d7c <systemStatus+0x9c>)
 8001d38:	f107 0014 	add.w	r0, r7, #20
 8001d3c:	cb0c      	ldmia	r3, {r2, r3}
 8001d3e:	68b9      	ldr	r1, [r7, #8]
 8001d40:	f7fe ff34 	bl	8000bac <read_manufacturer_id>
	if(manu[0] != 0xEF) {								// Expected 0xEF
 8001d44:	7d3b      	ldrb	r3, [r7, #20]
 8001d46:	2bef      	cmp	r3, #239	; 0xef
 8001d48:	d003      	beq.n	8001d52 <systemStatus+0x72>
		retVal  = retVal | 0x02;
 8001d4a:	7dfb      	ldrb	r3, [r7, #23]
 8001d4c:	f043 0302 	orr.w	r3, r3, #2
 8001d50:	75fb      	strb	r3, [r7, #23]
	}

	// Check SPIFlash_0
	uint8_t manu0[2] = {0, 0};
 8001d52:	2300      	movs	r3, #0
 8001d54:	823b      	strh	r3, [r7, #16]
	read_manufacturer_id(manu0, hspi1, cs_spi1);
 8001d56:	4b0a      	ldr	r3, [pc, #40]	; (8001d80 <systemStatus+0xa0>)
 8001d58:	f107 0010 	add.w	r0, r7, #16
 8001d5c:	cb0c      	ldmia	r3, {r2, r3}
 8001d5e:	68f9      	ldr	r1, [r7, #12]
 8001d60:	f7fe ff24 	bl	8000bac <read_manufacturer_id>
	if(manu0[0] != 0xEF) {								// Expected 0xEF
 8001d64:	7c3b      	ldrb	r3, [r7, #16]
 8001d66:	2bef      	cmp	r3, #239	; 0xef
 8001d68:	d003      	beq.n	8001d72 <systemStatus+0x92>
		retVal  = retVal | 0x01;
 8001d6a:	7dfb      	ldrb	r3, [r7, #23]
 8001d6c:	f043 0301 	orr.w	r3, r3, #1
 8001d70:	75fb      	strb	r3, [r7, #23]
	}
	return retVal;
 8001d72:	7dfb      	ldrb	r3, [r7, #23]
}
 8001d74:	4618      	mov	r0, r3
 8001d76:	3718      	adds	r7, #24
 8001d78:	46bd      	mov	sp, r7
 8001d7a:	bd80      	pop	{r7, pc}
 8001d7c:	200005fc 	.word	0x200005fc
 8001d80:	200005ec 	.word	0x200005ec

08001d84 <heartbeatUART>:

void heartbeatUART(UART_HandleTypeDef *huart) {
 8001d84:	b580      	push	{r7, lr}
 8001d86:	b082      	sub	sp, #8
 8001d88:	af00      	add	r7, sp, #0
 8001d8a:	6078      	str	r0, [r7, #4]
	send_uart_hex(huart, 0x51);			// Transmit the heartbeat as device ID (0x51 = Q)
 8001d8c:	2151      	movs	r1, #81	; 0x51
 8001d8e:	6878      	ldr	r0, [r7, #4]
 8001d90:	f001 f80b 	bl	8002daa <send_uart_hex>
}
 8001d94:	bf00      	nop
 8001d96:	3708      	adds	r7, #8
 8001d98:	46bd      	mov	sp, r7
 8001d9a:	bd80      	pop	{r7, pc}

08001d9c <eraseFlashSPI>:

/***************************************************************************************************************
 * SPI Flash Functions
 */
void eraseFlashSPI(SPI_HandleTypeDef *hspi, UART_HandleTypeDef *huart, GPIO_Config config) {
 8001d9c:	b580      	push	{r7, lr}
 8001d9e:	b084      	sub	sp, #16
 8001da0:	af00      	add	r7, sp, #0
 8001da2:	60f8      	str	r0, [r7, #12]
 8001da4:	60b9      	str	r1, [r7, #8]
 8001da6:	4639      	mov	r1, r7
 8001da8:	e881 000c 	stmia.w	r1, {r2, r3}
	HAL_GPIO_WritePin(GPIOB, GPIO_PIN_7, GPIO_PIN_SET);		// Activate the "write out" LED
 8001dac:	2201      	movs	r2, #1
 8001dae:	2180      	movs	r1, #128	; 0x80
 8001db0:	4813      	ldr	r0, [pc, #76]	; (8001e00 <eraseFlashSPI+0x64>)
 8001db2:	f002 fe0f 	bl	80049d4 <HAL_GPIO_WritePin>
	if (erase_chip_spi(hspi, config) == HAL_OK) {
 8001db6:	463b      	mov	r3, r7
 8001db8:	e893 0006 	ldmia.w	r3, {r1, r2}
 8001dbc:	68f8      	ldr	r0, [r7, #12]
 8001dbe:	f7fe fda9 	bl	8000914 <erase_chip_spi>
 8001dc2:	4603      	mov	r3, r0
 8001dc4:	2b00      	cmp	r3, #0
 8001dc6:	d10d      	bne.n	8001de4 <eraseFlashSPI+0x48>
		send_uart_string(huart, "Successful Chip Erase\r\n");
 8001dc8:	490e      	ldr	r1, [pc, #56]	; (8001e04 <eraseFlashSPI+0x68>)
 8001dca:	68b8      	ldr	r0, [r7, #8]
 8001dcc:	f000 ffd9 	bl	8002d82 <send_uart_string>
		next_blank_page = find_next_blank_page(hspi, &end_of_flash, config);
 8001dd0:	463b      	mov	r3, r7
 8001dd2:	cb0c      	ldmia	r3, {r2, r3}
 8001dd4:	490c      	ldr	r1, [pc, #48]	; (8001e08 <eraseFlashSPI+0x6c>)
 8001dd6:	68f8      	ldr	r0, [r7, #12]
 8001dd8:	f7fe fe2a 	bl	8000a30 <find_next_blank_page>
 8001ddc:	4603      	mov	r3, r0
 8001dde:	4a0b      	ldr	r2, [pc, #44]	; (8001e0c <eraseFlashSPI+0x70>)
 8001de0:	6013      	str	r3, [r2, #0]
 8001de2:	e003      	b.n	8001dec <eraseFlashSPI+0x50>
	} else {
		send_uart_string(huart, "Error during chip erase. Please check the connection and try again.\r\n");
 8001de4:	490a      	ldr	r1, [pc, #40]	; (8001e10 <eraseFlashSPI+0x74>)
 8001de6:	68b8      	ldr	r0, [r7, #8]
 8001de8:	f000 ffcb 	bl	8002d82 <send_uart_string>
	}
	HAL_GPIO_WritePin(GPIOB, GPIO_PIN_7,GPIO_PIN_RESET);	// Deactivate the "write out" LED
 8001dec:	2200      	movs	r2, #0
 8001dee:	2180      	movs	r1, #128	; 0x80
 8001df0:	4803      	ldr	r0, [pc, #12]	; (8001e00 <eraseFlashSPI+0x64>)
 8001df2:	f002 fdef 	bl	80049d4 <HAL_GPIO_WritePin>
}
 8001df6:	bf00      	nop
 8001df8:	3710      	adds	r7, #16
 8001dfa:	46bd      	mov	sp, r7
 8001dfc:	bd80      	pop	{r7, pc}
 8001dfe:	bf00      	nop
 8001e00:	40020400 	.word	0x40020400
 8001e04:	0800930c 	.word	0x0800930c
 8001e08:	200005da 	.word	0x200005da
 8001e0c:	200005d4 	.word	0x200005d4
 8001e10:	08009324 	.word	0x08009324

08001e14 <readFlashToUART>:

void readFlashToUART(SPI_HandleTypeDef *hspi, UART_HandleTypeDef *huart, GPIO_Config config) {
 8001e14:	b590      	push	{r4, r7, lr}
 8001e16:	b0cb      	sub	sp, #300	; 0x12c
 8001e18:	af02      	add	r7, sp, #8
 8001e1a:	f507 7490 	add.w	r4, r7, #288	; 0x120
 8001e1e:	f5a4 748a 	sub.w	r4, r4, #276	; 0x114
 8001e22:	6020      	str	r0, [r4, #0]
 8001e24:	f507 7090 	add.w	r0, r7, #288	; 0x120
 8001e28:	f5a0 708c 	sub.w	r0, r0, #280	; 0x118
 8001e2c:	6001      	str	r1, [r0, #0]
 8001e2e:	f507 7190 	add.w	r1, r7, #288	; 0x120
 8001e32:	f5a1 7190 	sub.w	r1, r1, #288	; 0x120
 8001e36:	e881 000c 	stmia.w	r1, {r2, r3}
	uint32_t num_of_pages = next_blank_page;
 8001e3a:	4b2a      	ldr	r3, [pc, #168]	; (8001ee4 <readFlashToUART+0xd0>)
 8001e3c:	681b      	ldr	r3, [r3, #0]
 8001e3e:	f8c7 311c 	str.w	r3, [r7, #284]	; 0x11c
	if(num_of_pages == 0) {
 8001e42:	f8d7 311c 	ldr.w	r3, [r7, #284]	; 0x11c
 8001e46:	2b00      	cmp	r3, #0
 8001e48:	d103      	bne.n	8001e52 <readFlashToUART+0x3e>
		num_of_pages = PAGE_SIZE;
 8001e4a:	f44f 7380 	mov.w	r3, #256	; 0x100
 8001e4e:	f8c7 311c 	str.w	r3, [r7, #284]	; 0x11c
	}
	num_of_pages = num_of_pages/PAGE_SIZE;
 8001e52:	f8d7 311c 	ldr.w	r3, [r7, #284]	; 0x11c
 8001e56:	0a1b      	lsrs	r3, r3, #8
 8001e58:	f8c7 311c 	str.w	r3, [r7, #284]	; 0x11c
	uint32_t address = 0;
 8001e5c:	2300      	movs	r3, #0
 8001e5e:	f8c7 3118 	str.w	r3, [r7, #280]	; 0x118
	HAL_GPIO_WritePin(GPIOB, GPIO_PIN_7,GPIO_PIN_SET);		// Activate the "write out" LED
 8001e62:	2201      	movs	r2, #1
 8001e64:	2180      	movs	r1, #128	; 0x80
 8001e66:	4820      	ldr	r0, [pc, #128]	; (8001ee8 <readFlashToUART+0xd4>)
 8001e68:	f002 fdb4 	bl	80049d4 <HAL_GPIO_WritePin>

	for (int i = 0; i < (num_of_pages); i++) {
 8001e6c:	2300      	movs	r3, #0
 8001e6e:	f8c7 3114 	str.w	r3, [r7, #276]	; 0x114
 8001e72:	e026      	b.n	8001ec2 <readFlashToUART+0xae>
		uint8_t page[PAGE_SIZE];
		read_page_spi(page, hspi, address, config);
 8001e74:	f507 7390 	add.w	r3, r7, #288	; 0x120
 8001e78:	f5a3 7390 	sub.w	r3, r3, #288	; 0x120
 8001e7c:	f507 7290 	add.w	r2, r7, #288	; 0x120
 8001e80:	f5a2 718a 	sub.w	r1, r2, #276	; 0x114
 8001e84:	f107 0014 	add.w	r0, r7, #20
 8001e88:	685a      	ldr	r2, [r3, #4]
 8001e8a:	9200      	str	r2, [sp, #0]
 8001e8c:	681b      	ldr	r3, [r3, #0]
 8001e8e:	f8d7 2118 	ldr.w	r2, [r7, #280]	; 0x118
 8001e92:	6809      	ldr	r1, [r1, #0]
 8001e94:	f7fe fe64 	bl	8000b60 <read_page_spi>
		uart_transmit_page(huart, page);						// Transmit the data//
 8001e98:	f107 0214 	add.w	r2, r7, #20
 8001e9c:	f507 7390 	add.w	r3, r7, #288	; 0x120
 8001ea0:	f5a3 738c 	sub.w	r3, r3, #280	; 0x118
 8001ea4:	4611      	mov	r1, r2
 8001ea6:	6818      	ldr	r0, [r3, #0]
 8001ea8:	f000 ff5a 	bl	8002d60 <uart_transmit_page>
		address += PAGE_SIZE;
 8001eac:	f8d7 3118 	ldr.w	r3, [r7, #280]	; 0x118
 8001eb0:	f503 7380 	add.w	r3, r3, #256	; 0x100
 8001eb4:	f8c7 3118 	str.w	r3, [r7, #280]	; 0x118
	for (int i = 0; i < (num_of_pages); i++) {
 8001eb8:	f8d7 3114 	ldr.w	r3, [r7, #276]	; 0x114
 8001ebc:	3301      	adds	r3, #1
 8001ebe:	f8c7 3114 	str.w	r3, [r7, #276]	; 0x114
 8001ec2:	f8d7 3114 	ldr.w	r3, [r7, #276]	; 0x114
 8001ec6:	f8d7 211c 	ldr.w	r2, [r7, #284]	; 0x11c
 8001eca:	429a      	cmp	r2, r3
 8001ecc:	d8d2      	bhi.n	8001e74 <readFlashToUART+0x60>
	}

	HAL_GPIO_WritePin(GPIOB, GPIO_PIN_7,GPIO_PIN_RESET);	// Deactivate the "write out" LED
 8001ece:	2200      	movs	r2, #0
 8001ed0:	2180      	movs	r1, #128	; 0x80
 8001ed2:	4805      	ldr	r0, [pc, #20]	; (8001ee8 <readFlashToUART+0xd4>)
 8001ed4:	f002 fd7e 	bl	80049d4 <HAL_GPIO_WritePin>
}
 8001ed8:	bf00      	nop
 8001eda:	f507 7792 	add.w	r7, r7, #292	; 0x124
 8001ede:	46bd      	mov	sp, r7
 8001ee0:	bd90      	pop	{r4, r7, pc}
 8001ee2:	bf00      	nop
 8001ee4:	200005d4 	.word	0x200005d4
 8001ee8:	40020400 	.word	0x40020400

08001eec <readFlashManuSPI>:

void readFlashManuSPI(SPI_HandleTypeDef *hspi, UART_HandleTypeDef *huart, GPIO_Config config) {
 8001eec:	b580      	push	{r7, lr}
 8001eee:	b086      	sub	sp, #24
 8001ef0:	af00      	add	r7, sp, #0
 8001ef2:	60f8      	str	r0, [r7, #12]
 8001ef4:	60b9      	str	r1, [r7, #8]
 8001ef6:	4639      	mov	r1, r7
 8001ef8:	e881 000c 	stmia.w	r1, {r2, r3}
	uint8_t manu[2] = {0, 0};
 8001efc:	2300      	movs	r3, #0
 8001efe:	82bb      	strh	r3, [r7, #20]
	read_manufacturer_id(manu, hspi, config);
 8001f00:	f107 0014 	add.w	r0, r7, #20
 8001f04:	463b      	mov	r3, r7
 8001f06:	cb0c      	ldmia	r3, {r2, r3}
 8001f08:	68f9      	ldr	r1, [r7, #12]
 8001f0a:	f7fe fe4f 	bl	8000bac <read_manufacturer_id>
	send_uart_hex(huart, manu[0]);
 8001f0e:	7d3b      	ldrb	r3, [r7, #20]
 8001f10:	4619      	mov	r1, r3
 8001f12:	68b8      	ldr	r0, [r7, #8]
 8001f14:	f000 ff49 	bl	8002daa <send_uart_hex>
	send_uart_hex(huart, manu[1]);
 8001f18:	7d7b      	ldrb	r3, [r7, #21]
 8001f1a:	4619      	mov	r1, r3
 8001f1c:	68b8      	ldr	r0, [r7, #8]
 8001f1e:	f000 ff44 	bl	8002daa <send_uart_hex>
}
 8001f22:	bf00      	nop
 8001f24:	3718      	adds	r7, #24
 8001f26:	46bd      	mov	sp, r7
 8001f28:	bd80      	pop	{r7, pc}
	...

08001f2c <writePageSPI_W>:

void writePageSPI_W(SPI_HandleTypeDef *hspi, UART_HandleTypeDef *huart, GPIO_Config config) {
 8001f2c:	b590      	push	{r4, r7, lr}
 8001f2e:	b0c9      	sub	sp, #292	; 0x124
 8001f30:	af02      	add	r7, sp, #8
 8001f32:	f507 748c 	add.w	r4, r7, #280	; 0x118
 8001f36:	f5a4 7486 	sub.w	r4, r4, #268	; 0x10c
 8001f3a:	6020      	str	r0, [r4, #0]
 8001f3c:	f507 708c 	add.w	r0, r7, #280	; 0x118
 8001f40:	f5a0 7088 	sub.w	r0, r0, #272	; 0x110
 8001f44:	6001      	str	r1, [r0, #0]
 8001f46:	f507 718c 	add.w	r1, r7, #280	; 0x118
 8001f4a:	f5a1 718c 	sub.w	r1, r1, #280	; 0x118
 8001f4e:	e881 000c 	stmia.w	r1, {r2, r3}
	uint8_t data_out[PAGE_SIZE];
	for (int i = 0; i < PAGE_SIZE; i++) {
 8001f52:	2300      	movs	r3, #0
 8001f54:	f8c7 3114 	str.w	r3, [r7, #276]	; 0x114
 8001f58:	e00d      	b.n	8001f76 <writePageSPI_W+0x4a>
		data_out[i] = 0x77;		// Make all data in the page 'w'
 8001f5a:	f507 738c 	add.w	r3, r7, #280	; 0x118
 8001f5e:	f5a3 7282 	sub.w	r2, r3, #260	; 0x104
 8001f62:	f8d7 3114 	ldr.w	r3, [r7, #276]	; 0x114
 8001f66:	4413      	add	r3, r2
 8001f68:	2277      	movs	r2, #119	; 0x77
 8001f6a:	701a      	strb	r2, [r3, #0]
	for (int i = 0; i < PAGE_SIZE; i++) {
 8001f6c:	f8d7 3114 	ldr.w	r3, [r7, #276]	; 0x114
 8001f70:	3301      	adds	r3, #1
 8001f72:	f8c7 3114 	str.w	r3, [r7, #276]	; 0x114
 8001f76:	f8d7 3114 	ldr.w	r3, [r7, #276]	; 0x114
 8001f7a:	2bff      	cmp	r3, #255	; 0xff
 8001f7c:	dded      	ble.n	8001f5a <writePageSPI_W+0x2e>
	}
	write_data_spi_dma(data_out, hspi, next_blank_page, config);
 8001f7e:	4b13      	ldr	r3, [pc, #76]	; (8001fcc <writePageSPI_W+0xa0>)
 8001f80:	681c      	ldr	r4, [r3, #0]
 8001f82:	f507 738c 	add.w	r3, r7, #280	; 0x118
 8001f86:	f5a3 738c 	sub.w	r3, r3, #280	; 0x118
 8001f8a:	f507 728c 	add.w	r2, r7, #280	; 0x118
 8001f8e:	f5a2 7186 	sub.w	r1, r2, #268	; 0x10c
 8001f92:	f107 0014 	add.w	r0, r7, #20
 8001f96:	685a      	ldr	r2, [r3, #4]
 8001f98:	9200      	str	r2, [sp, #0]
 8001f9a:	681b      	ldr	r3, [r3, #0]
 8001f9c:	4622      	mov	r2, r4
 8001f9e:	6809      	ldr	r1, [r1, #0]
 8001fa0:	f7fe fd18 	bl	80009d4 <write_data_spi_dma>
	next_blank_page += PAGE_SIZE;
 8001fa4:	4b09      	ldr	r3, [pc, #36]	; (8001fcc <writePageSPI_W+0xa0>)
 8001fa6:	681b      	ldr	r3, [r3, #0]
 8001fa8:	f503 7380 	add.w	r3, r3, #256	; 0x100
 8001fac:	4a07      	ldr	r2, [pc, #28]	; (8001fcc <writePageSPI_W+0xa0>)
 8001fae:	6013      	str	r3, [r2, #0]

	send_uart_string(huart, "Successful Page Written\r\n");
 8001fb0:	f507 738c 	add.w	r3, r7, #280	; 0x118
 8001fb4:	f5a3 7388 	sub.w	r3, r3, #272	; 0x110
 8001fb8:	4905      	ldr	r1, [pc, #20]	; (8001fd0 <writePageSPI_W+0xa4>)
 8001fba:	6818      	ldr	r0, [r3, #0]
 8001fbc:	f000 fee1 	bl	8002d82 <send_uart_string>
}
 8001fc0:	bf00      	nop
 8001fc2:	f507 778e 	add.w	r7, r7, #284	; 0x11c
 8001fc6:	46bd      	mov	sp, r7
 8001fc8:	bd90      	pop	{r4, r7, pc}
 8001fca:	bf00      	nop
 8001fcc:	200005d4 	.word	0x200005d4
 8001fd0:	0800936c 	.word	0x0800936c

08001fd4 <resetSPIFlash>:

void resetSPIFlash(SPI_HandleTypeDef *hspi, UART_HandleTypeDef *huart, GPIO_Config config) {
 8001fd4:	b580      	push	{r7, lr}
 8001fd6:	b084      	sub	sp, #16
 8001fd8:	af00      	add	r7, sp, #0
 8001fda:	60f8      	str	r0, [r7, #12]
 8001fdc:	60b9      	str	r1, [r7, #8]
 8001fde:	4639      	mov	r1, r7
 8001fe0:	e881 000c 	stmia.w	r1, {r2, r3}
	software_reset(hspi, config);
 8001fe4:	463b      	mov	r3, r7
 8001fe6:	e893 0006 	ldmia.w	r3, {r1, r2}
 8001fea:	68f8      	ldr	r0, [r7, #12]
 8001fec:	f7fe fcce 	bl	800098c <software_reset>
	send_uart_string(huart, "Flash Chip Reset\r\n");
 8001ff0:	4903      	ldr	r1, [pc, #12]	; (8002000 <resetSPIFlash+0x2c>)
 8001ff2:	68b8      	ldr	r0, [r7, #8]
 8001ff4:	f000 fec5 	bl	8002d82 <send_uart_string>
}
 8001ff8:	bf00      	nop
 8001ffa:	3710      	adds	r7, #16
 8001ffc:	46bd      	mov	sp, r7
 8001ffe:	bd80      	pop	{r7, pc}
 8002000:	08009388 	.word	0x08009388

08002004 <checkAccelWhoAmI>:
/***************************************************************************************************************
 * I2C Accelerometer Functions
 */
void checkAccelWhoAmI(I2C_HandleTypeDef* hi2c, UART_HandleTypeDef *huart) {
 8002004:	b580      	push	{r7, lr}
 8002006:	b084      	sub	sp, #16
 8002008:	af00      	add	r7, sp, #0
 800200a:	6078      	str	r0, [r7, #4]
 800200c:	6039      	str	r1, [r7, #0]
	uint8_t whoami = readAccel_whoami(hi2c);
 800200e:	6878      	ldr	r0, [r7, #4]
 8002010:	f7fe face 	bl	80005b0 <readAccel_whoami>
 8002014:	4603      	mov	r3, r0
 8002016:	73fb      	strb	r3, [r7, #15]
	send_uart_hex(huart, whoami);
 8002018:	7bfb      	ldrb	r3, [r7, #15]
 800201a:	4619      	mov	r1, r3
 800201c:	6838      	ldr	r0, [r7, #0]
 800201e:	f000 fec4 	bl	8002daa <send_uart_hex>
}
 8002022:	bf00      	nop
 8002024:	3710      	adds	r7, #16
 8002026:	46bd      	mov	sp, r7
 8002028:	bd80      	pop	{r7, pc}
	...

0800202c <accelToUART>:

void accelToUART(UART_HandleTypeDef *huart) {
 800202c:	b580      	push	{r7, lr}
 800202e:	b084      	sub	sp, #16
 8002030:	af00      	add	r7, sp, #0
 8002032:	6078      	str	r0, [r7, #4]
	for (int i = 0; i < 6; i++) {
 8002034:	2300      	movs	r3, #0
 8002036:	60fb      	str	r3, [r7, #12]
 8002038:	e00a      	b.n	8002050 <accelToUART+0x24>
		send_uart_hex(huart, accel_data[i]);
 800203a:	4a09      	ldr	r2, [pc, #36]	; (8002060 <accelToUART+0x34>)
 800203c:	68fb      	ldr	r3, [r7, #12]
 800203e:	4413      	add	r3, r2
 8002040:	781b      	ldrb	r3, [r3, #0]
 8002042:	4619      	mov	r1, r3
 8002044:	6878      	ldr	r0, [r7, #4]
 8002046:	f000 feb0 	bl	8002daa <send_uart_hex>
	for (int i = 0; i < 6; i++) {
 800204a:	68fb      	ldr	r3, [r7, #12]
 800204c:	3301      	adds	r3, #1
 800204e:	60fb      	str	r3, [r7, #12]
 8002050:	68fb      	ldr	r3, [r7, #12]
 8002052:	2b05      	cmp	r3, #5
 8002054:	ddf1      	ble.n	800203a <accelToUART+0xe>
	}
}
 8002056:	bf00      	nop
 8002058:	bf00      	nop
 800205a:	3710      	adds	r7, #16
 800205c:	46bd      	mov	sp, r7
 800205e:	bd80      	pop	{r7, pc}
 8002060:	200005bc 	.word	0x200005bc

08002064 <readTempSensorID>:

/***************************************************************************************************************
 * I2C BME280 Sensor Functions
 */
void readTempSensorID(I2C_HandleTypeDef* hi2c, UART_HandleTypeDef *huart, uint8_t tempNo) {
 8002064:	b580      	push	{r7, lr}
 8002066:	b084      	sub	sp, #16
 8002068:	af00      	add	r7, sp, #0
 800206a:	60f8      	str	r0, [r7, #12]
 800206c:	60b9      	str	r1, [r7, #8]
 800206e:	4613      	mov	r3, r2
 8002070:	71fb      	strb	r3, [r7, #7]
	send_uart_hex(huart, readBME280_id_reg(hi2c, tempNo));
 8002072:	79fb      	ldrb	r3, [r7, #7]
 8002074:	4619      	mov	r1, r3
 8002076:	68f8      	ldr	r0, [r7, #12]
 8002078:	f7fe fb58 	bl	800072c <readBME280_id_reg>
 800207c:	4603      	mov	r3, r0
 800207e:	4619      	mov	r1, r3
 8002080:	68b8      	ldr	r0, [r7, #8]
 8002082:	f000 fe92 	bl	8002daa <send_uart_hex>
}
 8002086:	bf00      	nop
 8002088:	3710      	adds	r7, #16
 800208a:	46bd      	mov	sp, r7
 800208c:	bd80      	pop	{r7, pc}

0800208e <readTempCalibration>:

void readTempCalibration(I2C_HandleTypeDef* hi2c, UART_HandleTypeDef *huart, uint8_t tempNo) {
 800208e:	b580      	push	{r7, lr}
 8002090:	b090      	sub	sp, #64	; 0x40
 8002092:	af00      	add	r7, sp, #0
 8002094:	60f8      	str	r0, [r7, #12]
 8002096:	60b9      	str	r1, [r7, #8]
 8002098:	4613      	mov	r3, r2
 800209a:	71fb      	strb	r3, [r7, #7]
	uint8_t calibration1[25];
	uint8_t calibration2[7];

	for (uint8_t i = 0; i < CALIB_CNT_1; i++) {
 800209c:	2300      	movs	r3, #0
 800209e:	f887 303f 	strb.w	r3, [r7, #63]	; 0x3f
 80020a2:	e016      	b.n	80020d2 <readTempCalibration+0x44>
		calibration1[i] = 0x00;
 80020a4:	f897 303f 	ldrb.w	r3, [r7, #63]	; 0x3f
 80020a8:	3340      	adds	r3, #64	; 0x40
 80020aa:	443b      	add	r3, r7
 80020ac:	2200      	movs	r2, #0
 80020ae:	f803 2c28 	strb.w	r2, [r3, #-40]
		if (i < CALIB_CNT_2) {
 80020b2:	f897 303f 	ldrb.w	r3, [r7, #63]	; 0x3f
 80020b6:	2b06      	cmp	r3, #6
 80020b8:	d806      	bhi.n	80020c8 <readTempCalibration+0x3a>
			calibration2[i] = 0x00;
 80020ba:	f897 303f 	ldrb.w	r3, [r7, #63]	; 0x3f
 80020be:	3340      	adds	r3, #64	; 0x40
 80020c0:	443b      	add	r3, r7
 80020c2:	2200      	movs	r2, #0
 80020c4:	f803 2c30 	strb.w	r2, [r3, #-48]
	for (uint8_t i = 0; i < CALIB_CNT_1; i++) {
 80020c8:	f897 303f 	ldrb.w	r3, [r7, #63]	; 0x3f
 80020cc:	3301      	adds	r3, #1
 80020ce:	f887 303f 	strb.w	r3, [r7, #63]	; 0x3f
 80020d2:	f897 303f 	ldrb.w	r3, [r7, #63]	; 0x3f
 80020d6:	2b18      	cmp	r3, #24
 80020d8:	d9e4      	bls.n	80020a4 <readTempCalibration+0x16>
		}
	}

	readBME280_calib(hi2c, tempNo, calibration1, calibration2);
 80020da:	f107 0310 	add.w	r3, r7, #16
 80020de:	f107 0218 	add.w	r2, r7, #24
 80020e2:	79f9      	ldrb	r1, [r7, #7]
 80020e4:	68f8      	ldr	r0, [r7, #12]
 80020e6:	f7fe fb3d 	bl	8000764 <readBME280_calib>

	for (int i = 0; i < 25; i++) {
 80020ea:	2300      	movs	r3, #0
 80020ec:	63bb      	str	r3, [r7, #56]	; 0x38
 80020ee:	e00b      	b.n	8002108 <readTempCalibration+0x7a>
	  send_uart_hex(huart, calibration1[i]);
 80020f0:	f107 0218 	add.w	r2, r7, #24
 80020f4:	6bbb      	ldr	r3, [r7, #56]	; 0x38
 80020f6:	4413      	add	r3, r2
 80020f8:	781b      	ldrb	r3, [r3, #0]
 80020fa:	4619      	mov	r1, r3
 80020fc:	68b8      	ldr	r0, [r7, #8]
 80020fe:	f000 fe54 	bl	8002daa <send_uart_hex>
	for (int i = 0; i < 25; i++) {
 8002102:	6bbb      	ldr	r3, [r7, #56]	; 0x38
 8002104:	3301      	adds	r3, #1
 8002106:	63bb      	str	r3, [r7, #56]	; 0x38
 8002108:	6bbb      	ldr	r3, [r7, #56]	; 0x38
 800210a:	2b18      	cmp	r3, #24
 800210c:	ddf0      	ble.n	80020f0 <readTempCalibration+0x62>
	}

	for (int i = 0; i < 7; i++) {
 800210e:	2300      	movs	r3, #0
 8002110:	637b      	str	r3, [r7, #52]	; 0x34
 8002112:	e00b      	b.n	800212c <readTempCalibration+0x9e>
	  send_uart_hex(huart, calibration2[i]);
 8002114:	f107 0210 	add.w	r2, r7, #16
 8002118:	6b7b      	ldr	r3, [r7, #52]	; 0x34
 800211a:	4413      	add	r3, r2
 800211c:	781b      	ldrb	r3, [r3, #0]
 800211e:	4619      	mov	r1, r3
 8002120:	68b8      	ldr	r0, [r7, #8]
 8002122:	f000 fe42 	bl	8002daa <send_uart_hex>
	for (int i = 0; i < 7; i++) {
 8002126:	6b7b      	ldr	r3, [r7, #52]	; 0x34
 8002128:	3301      	adds	r3, #1
 800212a:	637b      	str	r3, [r7, #52]	; 0x34
 800212c:	6b7b      	ldr	r3, [r7, #52]	; 0x34
 800212e:	2b06      	cmp	r3, #6
 8002130:	ddf0      	ble.n	8002114 <readTempCalibration+0x86>
	}
}
 8002132:	bf00      	nop
 8002134:	bf00      	nop
 8002136:	3740      	adds	r7, #64	; 0x40
 8002138:	46bd      	mov	sp, r7
 800213a:	bd80      	pop	{r7, pc}

0800213c <readTempSensor>:

void readTempSensor(UART_HandleTypeDef *huart, uint8_t tempNo) {
 800213c:	b580      	push	{r7, lr}
 800213e:	b084      	sub	sp, #16
 8002140:	af00      	add	r7, sp, #0
 8002142:	6078      	str	r0, [r7, #4]
 8002144:	460b      	mov	r3, r1
 8002146:	70fb      	strb	r3, [r7, #3]
	if (tempNo == 0) {
 8002148:	78fb      	ldrb	r3, [r7, #3]
 800214a:	2b00      	cmp	r3, #0
 800214c:	d111      	bne.n	8002172 <readTempSensor+0x36>
		for (int i = 0; i < 6; i++) {
 800214e:	2300      	movs	r3, #0
 8002150:	60fb      	str	r3, [r7, #12]
 8002152:	e00a      	b.n	800216a <readTempSensor+0x2e>
			send_uart_hex(huart, bme280_data_0[i]);
 8002154:	4a13      	ldr	r2, [pc, #76]	; (80021a4 <readTempSensor+0x68>)
 8002156:	68fb      	ldr	r3, [r7, #12]
 8002158:	4413      	add	r3, r2
 800215a:	781b      	ldrb	r3, [r3, #0]
 800215c:	4619      	mov	r1, r3
 800215e:	6878      	ldr	r0, [r7, #4]
 8002160:	f000 fe23 	bl	8002daa <send_uart_hex>
		for (int i = 0; i < 6; i++) {
 8002164:	68fb      	ldr	r3, [r7, #12]
 8002166:	3301      	adds	r3, #1
 8002168:	60fb      	str	r3, [r7, #12]
 800216a:	68fb      	ldr	r3, [r7, #12]
 800216c:	2b05      	cmp	r3, #5
 800216e:	ddf1      	ble.n	8002154 <readTempSensor+0x18>
	} else if (tempNo == 1) {
		for (int i = 0; i < 6; i++) {
			send_uart_hex(huart, bme280_data_1[i]);
		}
	}
}
 8002170:	e013      	b.n	800219a <readTempSensor+0x5e>
	} else if (tempNo == 1) {
 8002172:	78fb      	ldrb	r3, [r7, #3]
 8002174:	2b01      	cmp	r3, #1
 8002176:	d110      	bne.n	800219a <readTempSensor+0x5e>
		for (int i = 0; i < 6; i++) {
 8002178:	2300      	movs	r3, #0
 800217a:	60bb      	str	r3, [r7, #8]
 800217c:	e00a      	b.n	8002194 <readTempSensor+0x58>
			send_uart_hex(huart, bme280_data_1[i]);
 800217e:	4a0a      	ldr	r2, [pc, #40]	; (80021a8 <readTempSensor+0x6c>)
 8002180:	68bb      	ldr	r3, [r7, #8]
 8002182:	4413      	add	r3, r2
 8002184:	781b      	ldrb	r3, [r3, #0]
 8002186:	4619      	mov	r1, r3
 8002188:	6878      	ldr	r0, [r7, #4]
 800218a:	f000 fe0e 	bl	8002daa <send_uart_hex>
		for (int i = 0; i < 6; i++) {
 800218e:	68bb      	ldr	r3, [r7, #8]
 8002190:	3301      	adds	r3, #1
 8002192:	60bb      	str	r3, [r7, #8]
 8002194:	68bb      	ldr	r3, [r7, #8]
 8002196:	2b05      	cmp	r3, #5
 8002198:	ddf1      	ble.n	800217e <readTempSensor+0x42>
}
 800219a:	bf00      	nop
 800219c:	3710      	adds	r7, #16
 800219e:	46bd      	mov	sp, r7
 80021a0:	bd80      	pop	{r7, pc}
 80021a2:	bf00      	nop
 80021a4:	200005c4 	.word	0x200005c4
 80021a8:	200005cc 	.word	0x200005cc

080021ac <readAllSensors>:

/***************************************************************************************************************
 * Process All Sensors
 */
void readAllSensors(I2C_HandleTypeDef* hi2c_accel, I2C_HandleTypeDef* hi2c_temp, RTC_HandleTypeDef* hrtc) {
 80021ac:	b5b0      	push	{r4, r5, r7, lr}
 80021ae:	b08a      	sub	sp, #40	; 0x28
 80021b0:	af00      	add	r7, sp, #0
 80021b2:	60f8      	str	r0, [r7, #12]
 80021b4:	60b9      	str	r1, [r7, #8]
 80021b6:	607a      	str	r2, [r7, #4]
	// Read Accelerometer Data
	readAccelerometer(accel_data, hi2c_accel);
 80021b8:	68f9      	ldr	r1, [r7, #12]
 80021ba:	4869      	ldr	r0, [pc, #420]	; (8002360 <readAllSensors+0x1b4>)
 80021bc:	f7fe f9d2 	bl	8000564 <readAccelerometer>

	// Read BME280 Data
	readTempHumPres(bme280_data_0, hi2c_temp, 0);
 80021c0:	2200      	movs	r2, #0
 80021c2:	68b9      	ldr	r1, [r7, #8]
 80021c4:	4867      	ldr	r0, [pc, #412]	; (8002364 <readAllSensors+0x1b8>)
 80021c6:	f7fe fa57 	bl	8000678 <readTempHumPres>
	readTempHumPres(bme280_data_1, hi2c_temp, 1);
 80021ca:	2201      	movs	r2, #1
 80021cc:	68b9      	ldr	r1, [r7, #8]
 80021ce:	4866      	ldr	r0, [pc, #408]	; (8002368 <readAllSensors+0x1bc>)
 80021d0:	f7fe fa52 	bl	8000678 <readTempHumPres>

	uint16_t time = getTimestampMilliseconds(hrtc);
 80021d4:	6878      	ldr	r0, [r7, #4]
 80021d6:	f000 f8e9 	bl	80023ac <getTimestampMilliseconds>
 80021da:	4603      	mov	r3, r0
 80021dc:	82fb      	strh	r3, [r7, #22]
	uint8_t array_ptr = 0;
 80021de:	2300      	movs	r3, #0
 80021e0:	f887 3027 	strb.w	r3, [r7, #39]	; 0x27

	// Store the new read in the buffer if there is space
	if (byte_tracker < (PAGE_SIZE - READ_SIZE)) {
 80021e4:	4b61      	ldr	r3, [pc, #388]	; (800236c <readAllSensors+0x1c0>)
 80021e6:	881b      	ldrh	r3, [r3, #0]
 80021e8:	2bea      	cmp	r3, #234	; 0xea
 80021ea:	f200 80b4 	bhi.w	8002356 <readAllSensors+0x1aa>
		// Store the timestamp in the buffer (Big Endian)
		data_buffer_tx[buffer_tracker][byte_tracker + array_ptr] = (uint8_t) (time & 0xFF); 		// Least significant byte (LSB)
 80021ee:	4b60      	ldr	r3, [pc, #384]	; (8002370 <readAllSensors+0x1c4>)
 80021f0:	781b      	ldrb	r3, [r3, #0]
 80021f2:	461a      	mov	r2, r3
 80021f4:	4b5d      	ldr	r3, [pc, #372]	; (800236c <readAllSensors+0x1c0>)
 80021f6:	881b      	ldrh	r3, [r3, #0]
 80021f8:	4619      	mov	r1, r3
 80021fa:	f897 3027 	ldrb.w	r3, [r7, #39]	; 0x27
 80021fe:	440b      	add	r3, r1
 8002200:	8af9      	ldrh	r1, [r7, #22]
 8002202:	b2c8      	uxtb	r0, r1
 8002204:	495b      	ldr	r1, [pc, #364]	; (8002374 <readAllSensors+0x1c8>)
 8002206:	0212      	lsls	r2, r2, #8
 8002208:	440a      	add	r2, r1
 800220a:	4413      	add	r3, r2
 800220c:	4602      	mov	r2, r0
 800220e:	701a      	strb	r2, [r3, #0]
		array_ptr += 1;
 8002210:	f897 3027 	ldrb.w	r3, [r7, #39]	; 0x27
 8002214:	3301      	adds	r3, #1
 8002216:	f887 3027 	strb.w	r3, [r7, #39]	; 0x27
		data_buffer_tx[buffer_tracker][byte_tracker + array_ptr] = (uint8_t) ((time >> 8) & 0xFF); // Most significant byte (MSB)
 800221a:	8afb      	ldrh	r3, [r7, #22]
 800221c:	0a1b      	lsrs	r3, r3, #8
 800221e:	b299      	uxth	r1, r3
 8002220:	4b53      	ldr	r3, [pc, #332]	; (8002370 <readAllSensors+0x1c4>)
 8002222:	781b      	ldrb	r3, [r3, #0]
 8002224:	461a      	mov	r2, r3
 8002226:	4b51      	ldr	r3, [pc, #324]	; (800236c <readAllSensors+0x1c0>)
 8002228:	881b      	ldrh	r3, [r3, #0]
 800222a:	4618      	mov	r0, r3
 800222c:	f897 3027 	ldrb.w	r3, [r7, #39]	; 0x27
 8002230:	4403      	add	r3, r0
 8002232:	b2c8      	uxtb	r0, r1
 8002234:	494f      	ldr	r1, [pc, #316]	; (8002374 <readAllSensors+0x1c8>)
 8002236:	0212      	lsls	r2, r2, #8
 8002238:	440a      	add	r2, r1
 800223a:	4413      	add	r3, r2
 800223c:	4602      	mov	r2, r0
 800223e:	701a      	strb	r2, [r3, #0]
		array_ptr += 1;
 8002240:	f897 3027 	ldrb.w	r3, [r7, #39]	; 0x27
 8002244:	3301      	adds	r3, #1
 8002246:	f887 3027 	strb.w	r3, [r7, #39]	; 0x27

		// Store the accelerometer data
		for (int i = 0; i < 6; i++) {
 800224a:	2300      	movs	r3, #0
 800224c:	623b      	str	r3, [r7, #32]
 800224e:	e01a      	b.n	8002286 <readAllSensors+0xda>
		  data_buffer_tx[buffer_tracker][byte_tracker + array_ptr] = accel_data[i];
 8002250:	4b47      	ldr	r3, [pc, #284]	; (8002370 <readAllSensors+0x1c4>)
 8002252:	781b      	ldrb	r3, [r3, #0]
 8002254:	461c      	mov	r4, r3
 8002256:	4b45      	ldr	r3, [pc, #276]	; (800236c <readAllSensors+0x1c0>)
 8002258:	881b      	ldrh	r3, [r3, #0]
 800225a:	461a      	mov	r2, r3
 800225c:	f897 3027 	ldrb.w	r3, [r7, #39]	; 0x27
 8002260:	4413      	add	r3, r2
 8002262:	493f      	ldr	r1, [pc, #252]	; (8002360 <readAllSensors+0x1b4>)
 8002264:	6a3a      	ldr	r2, [r7, #32]
 8002266:	440a      	add	r2, r1
 8002268:	7810      	ldrb	r0, [r2, #0]
 800226a:	4942      	ldr	r1, [pc, #264]	; (8002374 <readAllSensors+0x1c8>)
 800226c:	0222      	lsls	r2, r4, #8
 800226e:	440a      	add	r2, r1
 8002270:	4413      	add	r3, r2
 8002272:	4602      	mov	r2, r0
 8002274:	701a      	strb	r2, [r3, #0]
		  array_ptr += 1;
 8002276:	f897 3027 	ldrb.w	r3, [r7, #39]	; 0x27
 800227a:	3301      	adds	r3, #1
 800227c:	f887 3027 	strb.w	r3, [r7, #39]	; 0x27
		for (int i = 0; i < 6; i++) {
 8002280:	6a3b      	ldr	r3, [r7, #32]
 8002282:	3301      	adds	r3, #1
 8002284:	623b      	str	r3, [r7, #32]
 8002286:	6a3b      	ldr	r3, [r7, #32]
 8002288:	2b05      	cmp	r3, #5
 800228a:	dde1      	ble.n	8002250 <readAllSensors+0xa4>
		}

		// Store the BME280_0 Data
		for (int i = 0; i < 6; i++) {
 800228c:	2300      	movs	r3, #0
 800228e:	61fb      	str	r3, [r7, #28]
 8002290:	e01a      	b.n	80022c8 <readAllSensors+0x11c>
		  data_buffer_tx[buffer_tracker][byte_tracker + array_ptr] = bme280_data_0[i];
 8002292:	4b37      	ldr	r3, [pc, #220]	; (8002370 <readAllSensors+0x1c4>)
 8002294:	781b      	ldrb	r3, [r3, #0]
 8002296:	461c      	mov	r4, r3
 8002298:	4b34      	ldr	r3, [pc, #208]	; (800236c <readAllSensors+0x1c0>)
 800229a:	881b      	ldrh	r3, [r3, #0]
 800229c:	461a      	mov	r2, r3
 800229e:	f897 3027 	ldrb.w	r3, [r7, #39]	; 0x27
 80022a2:	4413      	add	r3, r2
 80022a4:	492f      	ldr	r1, [pc, #188]	; (8002364 <readAllSensors+0x1b8>)
 80022a6:	69fa      	ldr	r2, [r7, #28]
 80022a8:	440a      	add	r2, r1
 80022aa:	7810      	ldrb	r0, [r2, #0]
 80022ac:	4931      	ldr	r1, [pc, #196]	; (8002374 <readAllSensors+0x1c8>)
 80022ae:	0222      	lsls	r2, r4, #8
 80022b0:	440a      	add	r2, r1
 80022b2:	4413      	add	r3, r2
 80022b4:	4602      	mov	r2, r0
 80022b6:	701a      	strb	r2, [r3, #0]
		  array_ptr += 1;
 80022b8:	f897 3027 	ldrb.w	r3, [r7, #39]	; 0x27
 80022bc:	3301      	adds	r3, #1
 80022be:	f887 3027 	strb.w	r3, [r7, #39]	; 0x27
		for (int i = 0; i < 6; i++) {
 80022c2:	69fb      	ldr	r3, [r7, #28]
 80022c4:	3301      	adds	r3, #1
 80022c6:	61fb      	str	r3, [r7, #28]
 80022c8:	69fb      	ldr	r3, [r7, #28]
 80022ca:	2b05      	cmp	r3, #5
 80022cc:	dde1      	ble.n	8002292 <readAllSensors+0xe6>
		}

		// Store the BME280_1 Data
		for (int i = 0; i < 6; i++) {
 80022ce:	2300      	movs	r3, #0
 80022d0:	61bb      	str	r3, [r7, #24]
 80022d2:	e01a      	b.n	800230a <readAllSensors+0x15e>
		  data_buffer_tx[buffer_tracker][byte_tracker + array_ptr] = bme280_data_1[i];
 80022d4:	4b26      	ldr	r3, [pc, #152]	; (8002370 <readAllSensors+0x1c4>)
 80022d6:	781b      	ldrb	r3, [r3, #0]
 80022d8:	461c      	mov	r4, r3
 80022da:	4b24      	ldr	r3, [pc, #144]	; (800236c <readAllSensors+0x1c0>)
 80022dc:	881b      	ldrh	r3, [r3, #0]
 80022de:	461a      	mov	r2, r3
 80022e0:	f897 3027 	ldrb.w	r3, [r7, #39]	; 0x27
 80022e4:	4413      	add	r3, r2
 80022e6:	4920      	ldr	r1, [pc, #128]	; (8002368 <readAllSensors+0x1bc>)
 80022e8:	69ba      	ldr	r2, [r7, #24]
 80022ea:	440a      	add	r2, r1
 80022ec:	7810      	ldrb	r0, [r2, #0]
 80022ee:	4921      	ldr	r1, [pc, #132]	; (8002374 <readAllSensors+0x1c8>)
 80022f0:	0222      	lsls	r2, r4, #8
 80022f2:	440a      	add	r2, r1
 80022f4:	4413      	add	r3, r2
 80022f6:	4602      	mov	r2, r0
 80022f8:	701a      	strb	r2, [r3, #0]
		  array_ptr += 1;
 80022fa:	f897 3027 	ldrb.w	r3, [r7, #39]	; 0x27
 80022fe:	3301      	adds	r3, #1
 8002300:	f887 3027 	strb.w	r3, [r7, #39]	; 0x27
		for (int i = 0; i < 6; i++) {
 8002304:	69bb      	ldr	r3, [r7, #24]
 8002306:	3301      	adds	r3, #1
 8002308:	61bb      	str	r3, [r7, #24]
 800230a:	69bb      	ldr	r3, [r7, #24]
 800230c:	2b05      	cmp	r3, #5
 800230e:	dde1      	ble.n	80022d4 <readAllSensors+0x128>
		}

		// Store the flight state and peripheral status in the final byte
		data_buffer_tx[buffer_tracker][byte_tracker + array_ptr] = combine_system_status();
 8002310:	4b17      	ldr	r3, [pc, #92]	; (8002370 <readAllSensors+0x1c4>)
 8002312:	781b      	ldrb	r3, [r3, #0]
 8002314:	461d      	mov	r5, r3
 8002316:	4b15      	ldr	r3, [pc, #84]	; (800236c <readAllSensors+0x1c0>)
 8002318:	881b      	ldrh	r3, [r3, #0]
 800231a:	461a      	mov	r2, r3
 800231c:	f897 3027 	ldrb.w	r3, [r7, #39]	; 0x27
 8002320:	18d4      	adds	r4, r2, r3
 8002322:	f7ff fc89 	bl	8001c38 <combine_system_status>
 8002326:	4603      	mov	r3, r0
 8002328:	4619      	mov	r1, r3
 800232a:	4a12      	ldr	r2, [pc, #72]	; (8002374 <readAllSensors+0x1c8>)
 800232c:	022b      	lsls	r3, r5, #8
 800232e:	4413      	add	r3, r2
 8002330:	4423      	add	r3, r4
 8002332:	460a      	mov	r2, r1
 8002334:	701a      	strb	r2, [r3, #0]
		array_ptr += 1;
 8002336:	f897 3027 	ldrb.w	r3, [r7, #39]	; 0x27
 800233a:	3301      	adds	r3, #1
 800233c:	f887 3027 	strb.w	r3, [r7, #39]	; 0x27

		byte_tracker = byte_tracker + (array_ptr - 1);
 8002340:	f897 3027 	ldrb.w	r3, [r7, #39]	; 0x27
 8002344:	b29a      	uxth	r2, r3
 8002346:	4b09      	ldr	r3, [pc, #36]	; (800236c <readAllSensors+0x1c0>)
 8002348:	881b      	ldrh	r3, [r3, #0]
 800234a:	4413      	add	r3, r2
 800234c:	b29b      	uxth	r3, r3
 800234e:	3b01      	subs	r3, #1
 8002350:	b29a      	uxth	r2, r3
 8002352:	4b06      	ldr	r3, [pc, #24]	; (800236c <readAllSensors+0x1c0>)
 8002354:	801a      	strh	r2, [r3, #0]
	}
}
 8002356:	bf00      	nop
 8002358:	3728      	adds	r7, #40	; 0x28
 800235a:	46bd      	mov	sp, r7
 800235c:	bdb0      	pop	{r4, r5, r7, pc}
 800235e:	bf00      	nop
 8002360:	200005bc 	.word	0x200005bc
 8002364:	200005c4 	.word	0x200005c4
 8002368:	200005cc 	.word	0x200005cc
 800236c:	200005d8 	.word	0x200005d8
 8002370:	200005b8 	.word	0x200005b8
 8002374:	200003b8 	.word	0x200003b8

08002378 <initialise_rtc_default>:
    .Month = RTC_MONTH_JANUARY, // Set default month (e.g., January)
    .Date = 1, // Set default day of the month
    .Year = 24 // Set default year (e.g., 2021)
};

void initialise_rtc_default(RTC_HandleTypeDef* hrtc) {
 8002378:	b580      	push	{r7, lr}
 800237a:	b082      	sub	sp, #8
 800237c:	af00      	add	r7, sp, #0
 800237e:	6078      	str	r0, [r7, #4]
	// Reset RTC on boot
	HAL_RTC_MspInit(hrtc); // Initialize RTC hardware
 8002380:	6878      	ldr	r0, [r7, #4]
 8002382:	f000 fa39 	bl	80027f8 <HAL_RTC_MspInit>
	HAL_RTC_SetTime(hrtc, &defaultTime, RTC_FORMAT_BIN); // Set default time
 8002386:	2200      	movs	r2, #0
 8002388:	4906      	ldr	r1, [pc, #24]	; (80023a4 <initialise_rtc_default+0x2c>)
 800238a:	6878      	ldr	r0, [r7, #4]
 800238c:	f004 fa67 	bl	800685e <HAL_RTC_SetTime>
	HAL_RTC_SetDate(hrtc, &defaultDate, RTC_FORMAT_BIN); // Set default date
 8002390:	2200      	movs	r2, #0
 8002392:	4905      	ldr	r1, [pc, #20]	; (80023a8 <initialise_rtc_default+0x30>)
 8002394:	6878      	ldr	r0, [r7, #4]
 8002396:	f004 fb5a 	bl	8006a4e <HAL_RTC_SetDate>
}
 800239a:	bf00      	nop
 800239c:	3708      	adds	r7, #8
 800239e:	46bd      	mov	sp, r7
 80023a0:	bd80      	pop	{r7, pc}
 80023a2:	bf00      	nop
 80023a4:	20000618 	.word	0x20000618
 80023a8:	20000018 	.word	0x20000018

080023ac <getTimestampMilliseconds>:

uint32_t getTimestampMilliseconds(RTC_HandleTypeDef* hrtc) {
 80023ac:	b580      	push	{r7, lr}
 80023ae:	b08c      	sub	sp, #48	; 0x30
 80023b0:	af00      	add	r7, sp, #0
 80023b2:	6078      	str	r0, [r7, #4]
    RTC_TimeTypeDef rtcTime;
    RTC_DateTypeDef rtcDate;

    // Read RTC time and date
    HAL_RTC_GetTime(hrtc, &rtcTime, RTC_FORMAT_BIN);
 80023b4:	f107 0310 	add.w	r3, r7, #16
 80023b8:	2200      	movs	r2, #0
 80023ba:	4619      	mov	r1, r3
 80023bc:	6878      	ldr	r0, [r7, #4]
 80023be:	f004 fae8 	bl	8006992 <HAL_RTC_GetTime>
    HAL_RTC_GetDate(hrtc, &rtcDate, RTC_FORMAT_BIN);
 80023c2:	f107 030c 	add.w	r3, r7, #12
 80023c6:	2200      	movs	r2, #0
 80023c8:	4619      	mov	r1, r3
 80023ca:	6878      	ldr	r0, [r7, #4]
 80023cc:	f004 fbc3 	bl	8006b56 <HAL_RTC_GetDate>

    // Calculate timestamp in milliseconds
    uint32_t timestampSeconds = rtcTime.Seconds + rtcTime.Minutes * 60 + rtcTime.Hours * 3600;
 80023d0:	7cbb      	ldrb	r3, [r7, #18]
 80023d2:	4619      	mov	r1, r3
 80023d4:	7c7b      	ldrb	r3, [r7, #17]
 80023d6:	461a      	mov	r2, r3
 80023d8:	4613      	mov	r3, r2
 80023da:	011b      	lsls	r3, r3, #4
 80023dc:	1a9b      	subs	r3, r3, r2
 80023de:	009b      	lsls	r3, r3, #2
 80023e0:	18ca      	adds	r2, r1, r3
 80023e2:	7c3b      	ldrb	r3, [r7, #16]
 80023e4:	4619      	mov	r1, r3
 80023e6:	f44f 6361 	mov.w	r3, #3600	; 0xe10
 80023ea:	fb01 f303 	mul.w	r3, r1, r3
 80023ee:	4413      	add	r3, r2
 80023f0:	62fb      	str	r3, [r7, #44]	; 0x2c
    uint32_t timestampMilliseconds = timestampSeconds * 1000;
 80023f2:	6afb      	ldr	r3, [r7, #44]	; 0x2c
 80023f4:	f44f 727a 	mov.w	r2, #1000	; 0x3e8
 80023f8:	fb02 f303 	mul.w	r3, r2, r3
 80023fc:	62bb      	str	r3, [r7, #40]	; 0x28
    float subsecondsFraction = (float)(rtcTime.SecondFraction - rtcTime.SubSeconds) / (rtcTime.SecondFraction + 1);
 80023fe:	69ba      	ldr	r2, [r7, #24]
 8002400:	697b      	ldr	r3, [r7, #20]
 8002402:	1ad3      	subs	r3, r2, r3
 8002404:	ee07 3a90 	vmov	s15, r3
 8002408:	eef8 6a67 	vcvt.f32.u32	s13, s15
 800240c:	69bb      	ldr	r3, [r7, #24]
 800240e:	3301      	adds	r3, #1
 8002410:	ee07 3a90 	vmov	s15, r3
 8002414:	eeb8 7a67 	vcvt.f32.u32	s14, s15
 8002418:	eec6 7a87 	vdiv.f32	s15, s13, s14
 800241c:	edc7 7a09 	vstr	s15, [r7, #36]	; 0x24
    timestampMilliseconds += subsecondsFraction * 1000;
 8002420:	6abb      	ldr	r3, [r7, #40]	; 0x28
 8002422:	ee07 3a90 	vmov	s15, r3
 8002426:	eeb8 7a67 	vcvt.f32.u32	s14, s15
 800242a:	edd7 7a09 	vldr	s15, [r7, #36]	; 0x24
 800242e:	eddf 6a08 	vldr	s13, [pc, #32]	; 8002450 <getTimestampMilliseconds+0xa4>
 8002432:	ee67 7aa6 	vmul.f32	s15, s15, s13
 8002436:	ee77 7a27 	vadd.f32	s15, s14, s15
 800243a:	eefc 7ae7 	vcvt.u32.f32	s15, s15
 800243e:	ee17 3a90 	vmov	r3, s15
 8002442:	62bb      	str	r3, [r7, #40]	; 0x28

    return timestampMilliseconds;
 8002444:	6abb      	ldr	r3, [r7, #40]	; 0x28
}
 8002446:	4618      	mov	r0, r3
 8002448:	3730      	adds	r7, #48	; 0x30
 800244a:	46bd      	mov	sp, r7
 800244c:	bd80      	pop	{r7, pc}
 800244e:	bf00      	nop
 8002450:	447a0000 	.word	0x447a0000

08002454 <spi_sendOp_readByte>:
#ifndef SRC_SPI_DRIVER_C_
#define SRC_SPI_DRIVER_C_

#include "spi_driver.h"

HAL_StatusTypeDef spi_sendOp_readByte(uint8_t* opcode, SPI_HandleTypeDef *hspi, uint8_t* data_ptr, GPIO_TypeDef* GPIOx, uint16_t GPIO_Pin_CS) {
 8002454:	b580      	push	{r7, lr}
 8002456:	b086      	sub	sp, #24
 8002458:	af00      	add	r7, sp, #0
 800245a:	60f8      	str	r0, [r7, #12]
 800245c:	60b9      	str	r1, [r7, #8]
 800245e:	607a      	str	r2, [r7, #4]
 8002460:	603b      	str	r3, [r7, #0]
	HAL_StatusTypeDef status;
	HAL_GPIO_WritePin(GPIOx, GPIO_Pin_CS, GPIO_PIN_RESET);	// Set the chip select pin to low to initiate SPI comms
 8002462:	8c3b      	ldrh	r3, [r7, #32]
 8002464:	2200      	movs	r2, #0
 8002466:	4619      	mov	r1, r3
 8002468:	6838      	ldr	r0, [r7, #0]
 800246a:	f002 fab3 	bl	80049d4 <HAL_GPIO_WritePin>
	HAL_SPI_Transmit(hspi, opcode, 1, TIMEOUT_SML);			// Write the write enable value to the Flash to initial reading
 800246e:	2302      	movs	r3, #2
 8002470:	2201      	movs	r2, #1
 8002472:	68f9      	ldr	r1, [r7, #12]
 8002474:	68b8      	ldr	r0, [r7, #8]
 8002476:	f004 fd04 	bl	8006e82 <HAL_SPI_Transmit>
	status = HAL_SPI_Receive(hspi, data_ptr, 1, TIMEOUT_SML);
 800247a:	2302      	movs	r3, #2
 800247c:	2201      	movs	r2, #1
 800247e:	6879      	ldr	r1, [r7, #4]
 8002480:	68b8      	ldr	r0, [r7, #8]
 8002482:	f004 fe41 	bl	8007108 <HAL_SPI_Receive>
 8002486:	4603      	mov	r3, r0
 8002488:	75fb      	strb	r3, [r7, #23]
	HAL_GPIO_WritePin(GPIOx, GPIO_Pin_CS, GPIO_PIN_SET);
 800248a:	8c3b      	ldrh	r3, [r7, #32]
 800248c:	2201      	movs	r2, #1
 800248e:	4619      	mov	r1, r3
 8002490:	6838      	ldr	r0, [r7, #0]
 8002492:	f002 fa9f 	bl	80049d4 <HAL_GPIO_WritePin>
	return status;
 8002496:	7dfb      	ldrb	r3, [r7, #23]
}
 8002498:	4618      	mov	r0, r3
 800249a:	3718      	adds	r7, #24
 800249c:	46bd      	mov	sp, r7
 800249e:	bd80      	pop	{r7, pc}

080024a0 <perform_operation>:

HAL_StatusTypeDef perform_operation(uint8_t* opcode, SPI_HandleTypeDef *hspi, GPIO_TypeDef* GPIOx, uint16_t GPIO_Pin_CS) {
 80024a0:	b580      	push	{r7, lr}
 80024a2:	b086      	sub	sp, #24
 80024a4:	af00      	add	r7, sp, #0
 80024a6:	60f8      	str	r0, [r7, #12]
 80024a8:	60b9      	str	r1, [r7, #8]
 80024aa:	607a      	str	r2, [r7, #4]
 80024ac:	807b      	strh	r3, [r7, #2]
	HAL_StatusTypeDef status;
	HAL_GPIO_WritePin(GPIOx, GPIO_Pin_CS, GPIO_PIN_RESET);				// Set the chip select pin to low to initiate SPI comms
 80024ae:	887b      	ldrh	r3, [r7, #2]
 80024b0:	2200      	movs	r2, #0
 80024b2:	4619      	mov	r1, r3
 80024b4:	6878      	ldr	r0, [r7, #4]
 80024b6:	f002 fa8d 	bl	80049d4 <HAL_GPIO_WritePin>
	status = HAL_SPI_Transmit(hspi, opcode, 1, TIMEOUT_SML);				// Write the opcode value
 80024ba:	2302      	movs	r3, #2
 80024bc:	2201      	movs	r2, #1
 80024be:	68f9      	ldr	r1, [r7, #12]
 80024c0:	68b8      	ldr	r0, [r7, #8]
 80024c2:	f004 fcde 	bl	8006e82 <HAL_SPI_Transmit>
 80024c6:	4603      	mov	r3, r0
 80024c8:	75fb      	strb	r3, [r7, #23]
	HAL_GPIO_WritePin(GPIOx, GPIO_Pin_CS, GPIO_PIN_SET);
 80024ca:	887b      	ldrh	r3, [r7, #2]
 80024cc:	2201      	movs	r2, #1
 80024ce:	4619      	mov	r1, r3
 80024d0:	6878      	ldr	r0, [r7, #4]
 80024d2:	f002 fa7f 	bl	80049d4 <HAL_GPIO_WritePin>

	return status;
 80024d6:	7dfb      	ldrb	r3, [r7, #23]
}
 80024d8:	4618      	mov	r0, r3
 80024da:	3718      	adds	r7, #24
 80024dc:	46bd      	mov	sp, r7
 80024de:	bd80      	pop	{r7, pc}

080024e0 <spi_read_data>:

HAL_StatusTypeDef spi_read_data(uint8_t* opcode, uint16_t data_size, uint8_t data_read[data_size], SPI_HandleTypeDef *hspi, uint32_t addr, GPIO_TypeDef* GPIOx, uint16_t GPIO_Pin_CS) {
 80024e0:	b580      	push	{r7, lr}
 80024e2:	b086      	sub	sp, #24
 80024e4:	af00      	add	r7, sp, #0
 80024e6:	60f8      	str	r0, [r7, #12]
 80024e8:	607a      	str	r2, [r7, #4]
 80024ea:	603b      	str	r3, [r7, #0]
 80024ec:	460b      	mov	r3, r1
 80024ee:	817b      	strh	r3, [r7, #10]
	HAL_StatusTypeDef status;

	// Split the 24 bit address into three 8 bit ints
	uint8_t addrL = addr & 0xFF;  // Get the low byte
 80024f0:	6a3b      	ldr	r3, [r7, #32]
 80024f2:	b2db      	uxtb	r3, r3
 80024f4:	75bb      	strb	r3, [r7, #22]
	uint8_t addrM = (addr >> 8) & 0xFF;  // Get the middle byte
 80024f6:	6a3b      	ldr	r3, [r7, #32]
 80024f8:	0a1b      	lsrs	r3, r3, #8
 80024fa:	b2db      	uxtb	r3, r3
 80024fc:	757b      	strb	r3, [r7, #21]
	uint8_t addrH = (addr >> 16) & 0xFF;  // Get the high byte
 80024fe:	6a3b      	ldr	r3, [r7, #32]
 8002500:	0c1b      	lsrs	r3, r3, #16
 8002502:	b2db      	uxtb	r3, r3
 8002504:	753b      	strb	r3, [r7, #20]

	// Read the data denoted by the given address
	HAL_GPIO_WritePin(GPIOx, GPIO_Pin_CS, GPIO_PIN_RESET);
 8002506:	8d3b      	ldrh	r3, [r7, #40]	; 0x28
 8002508:	2200      	movs	r2, #0
 800250a:	4619      	mov	r1, r3
 800250c:	6a78      	ldr	r0, [r7, #36]	; 0x24
 800250e:	f002 fa61 	bl	80049d4 <HAL_GPIO_WritePin>
	HAL_SPI_Transmit(hspi, opcode, 1, TIMEOUT_SML);	// Write the read enable value
 8002512:	2302      	movs	r3, #2
 8002514:	2201      	movs	r2, #1
 8002516:	68f9      	ldr	r1, [r7, #12]
 8002518:	6838      	ldr	r0, [r7, #0]
 800251a:	f004 fcb2 	bl	8006e82 <HAL_SPI_Transmit>

	// Transmit the 24 bit address of the page to initialise read from
	HAL_SPI_Transmit(hspi, &addrH, 1, TIMEOUT_SML);
 800251e:	f107 0114 	add.w	r1, r7, #20
 8002522:	2302      	movs	r3, #2
 8002524:	2201      	movs	r2, #1
 8002526:	6838      	ldr	r0, [r7, #0]
 8002528:	f004 fcab 	bl	8006e82 <HAL_SPI_Transmit>
	HAL_SPI_Transmit(hspi, &addrM, 1, TIMEOUT_SML);
 800252c:	f107 0115 	add.w	r1, r7, #21
 8002530:	2302      	movs	r3, #2
 8002532:	2201      	movs	r2, #1
 8002534:	6838      	ldr	r0, [r7, #0]
 8002536:	f004 fca4 	bl	8006e82 <HAL_SPI_Transmit>
	HAL_SPI_Transmit(hspi, &addrL, 1, TIMEOUT_SML);
 800253a:	f107 0116 	add.w	r1, r7, #22
 800253e:	2302      	movs	r3, #2
 8002540:	2201      	movs	r2, #1
 8002542:	6838      	ldr	r0, [r7, #0]
 8002544:	f004 fc9d 	bl	8006e82 <HAL_SPI_Transmit>

	status = HAL_SPI_Receive(hspi, data_read, data_size, TIMEOUT_LRG);
 8002548:	897a      	ldrh	r2, [r7, #10]
 800254a:	2364      	movs	r3, #100	; 0x64
 800254c:	6879      	ldr	r1, [r7, #4]
 800254e:	6838      	ldr	r0, [r7, #0]
 8002550:	f004 fdda 	bl	8007108 <HAL_SPI_Receive>
 8002554:	4603      	mov	r3, r0
 8002556:	75fb      	strb	r3, [r7, #23]
	HAL_GPIO_WritePin(GPIOx, GPIO_Pin_CS, GPIO_PIN_SET);
 8002558:	8d3b      	ldrh	r3, [r7, #40]	; 0x28
 800255a:	2201      	movs	r2, #1
 800255c:	4619      	mov	r1, r3
 800255e:	6a78      	ldr	r0, [r7, #36]	; 0x24
 8002560:	f002 fa38 	bl	80049d4 <HAL_GPIO_WritePin>

	return status;
 8002564:	7dfb      	ldrb	r3, [r7, #23]
}
 8002566:	4618      	mov	r0, r3
 8002568:	3718      	adds	r7, #24
 800256a:	46bd      	mov	sp, r7
 800256c:	bd80      	pop	{r7, pc}

0800256e <spi_write_data_dma>:
	HAL_GPIO_WritePin(GPIOx, GPIO_Pin_CS, GPIO_PIN_SET);	// Set the chip select pin to high to remove the Flash from the SPI bus

	return status;
}

HAL_StatusTypeDef spi_write_data_dma(uint8_t* opcode, uint16_t data_size, uint8_t data_write[data_size], SPI_HandleTypeDef *hspi, uint32_t addr, GPIO_TypeDef* GPIOx, uint16_t GPIO_Pin_CS) {
 800256e:	b580      	push	{r7, lr}
 8002570:	b086      	sub	sp, #24
 8002572:	af00      	add	r7, sp, #0
 8002574:	60f8      	str	r0, [r7, #12]
 8002576:	607a      	str	r2, [r7, #4]
 8002578:	603b      	str	r3, [r7, #0]
 800257a:	460b      	mov	r3, r1
 800257c:	817b      	strh	r3, [r7, #10]
    HAL_StatusTypeDef status;

    // Split the 24 bit address into three 8 bit ints
    uint8_t addrL = addr & 0xFF;  			// Get the low byte
 800257e:	6a3b      	ldr	r3, [r7, #32]
 8002580:	b2db      	uxtb	r3, r3
 8002582:	75bb      	strb	r3, [r7, #22]
    uint8_t addrM = (addr >> 8) & 0xFF;  	// Get the middle byte
 8002584:	6a3b      	ldr	r3, [r7, #32]
 8002586:	0a1b      	lsrs	r3, r3, #8
 8002588:	b2db      	uxtb	r3, r3
 800258a:	757b      	strb	r3, [r7, #21]
    uint8_t addrH = (addr >> 16) & 0xFF;  	// Get the high byte
 800258c:	6a3b      	ldr	r3, [r7, #32]
 800258e:	0c1b      	lsrs	r3, r3, #16
 8002590:	b2db      	uxtb	r3, r3
 8002592:	753b      	strb	r3, [r7, #20]

    // Send the PageWrite command
    HAL_GPIO_WritePin(GPIOx, GPIO_Pin_CS, GPIO_PIN_RESET);	// Set the chip select pin to low to initiate SPI comms
 8002594:	8d3b      	ldrh	r3, [r7, #40]	; 0x28
 8002596:	2200      	movs	r2, #0
 8002598:	4619      	mov	r1, r3
 800259a:	6a78      	ldr	r0, [r7, #36]	; 0x24
 800259c:	f002 fa1a 	bl	80049d4 <HAL_GPIO_WritePin>
    HAL_SPI_Transmit(hspi, opcode, 1, TIMEOUT_SML);					// Write the write enable value to the Flash to initial writing
 80025a0:	2302      	movs	r3, #2
 80025a2:	2201      	movs	r2, #1
 80025a4:	68f9      	ldr	r1, [r7, #12]
 80025a6:	6838      	ldr	r0, [r7, #0]
 80025a8:	f004 fc6b 	bl	8006e82 <HAL_SPI_Transmit>

    // Transmit the 24 bit address of the page to write to
    HAL_SPI_Transmit(hspi, &addrH, 1, TIMEOUT_SML);
 80025ac:	f107 0114 	add.w	r1, r7, #20
 80025b0:	2302      	movs	r3, #2
 80025b2:	2201      	movs	r2, #1
 80025b4:	6838      	ldr	r0, [r7, #0]
 80025b6:	f004 fc64 	bl	8006e82 <HAL_SPI_Transmit>
    HAL_SPI_Transmit(hspi, &addrM, 1, TIMEOUT_SML);
 80025ba:	f107 0115 	add.w	r1, r7, #21
 80025be:	2302      	movs	r3, #2
 80025c0:	2201      	movs	r2, #1
 80025c2:	6838      	ldr	r0, [r7, #0]
 80025c4:	f004 fc5d 	bl	8006e82 <HAL_SPI_Transmit>
    HAL_SPI_Transmit(hspi, &addrL, 1, TIMEOUT_SML);
 80025c8:	f107 0116 	add.w	r1, r7, #22
 80025cc:	2302      	movs	r3, #2
 80025ce:	2201      	movs	r2, #1
 80025d0:	6838      	ldr	r0, [r7, #0]
 80025d2:	f004 fc56 	bl	8006e82 <HAL_SPI_Transmit>

    // Start the DMA transfer
    status = HAL_SPI_Transmit_DMA(hspi, data_write, data_size);
 80025d6:	897b      	ldrh	r3, [r7, #10]
 80025d8:	461a      	mov	r2, r3
 80025da:	6879      	ldr	r1, [r7, #4]
 80025dc:	6838      	ldr	r0, [r7, #0]
 80025de:	f005 f85b 	bl	8007698 <HAL_SPI_Transmit_DMA>
 80025e2:	4603      	mov	r3, r0
 80025e4:	75fb      	strb	r3, [r7, #23]

    return status;
 80025e6:	7dfb      	ldrb	r3, [r7, #23]
}
 80025e8:	4618      	mov	r0, r3
 80025ea:	3718      	adds	r7, #24
 80025ec:	46bd      	mov	sp, r7
 80025ee:	bd80      	pop	{r7, pc}

080025f0 <HAL_MspInit>:
/* USER CODE END 0 */
/**
  * Initializes the Global MSP.
  */
void HAL_MspInit(void)
{
 80025f0:	b480      	push	{r7}
 80025f2:	b083      	sub	sp, #12
 80025f4:	af00      	add	r7, sp, #0
  /* USER CODE BEGIN MspInit 0 */

  /* USER CODE END MspInit 0 */

  __HAL_RCC_SYSCFG_CLK_ENABLE();
 80025f6:	2300      	movs	r3, #0
 80025f8:	607b      	str	r3, [r7, #4]
 80025fa:	4b10      	ldr	r3, [pc, #64]	; (800263c <HAL_MspInit+0x4c>)
 80025fc:	6c5b      	ldr	r3, [r3, #68]	; 0x44
 80025fe:	4a0f      	ldr	r2, [pc, #60]	; (800263c <HAL_MspInit+0x4c>)
 8002600:	f443 4380 	orr.w	r3, r3, #16384	; 0x4000
 8002604:	6453      	str	r3, [r2, #68]	; 0x44
 8002606:	4b0d      	ldr	r3, [pc, #52]	; (800263c <HAL_MspInit+0x4c>)
 8002608:	6c5b      	ldr	r3, [r3, #68]	; 0x44
 800260a:	f403 4380 	and.w	r3, r3, #16384	; 0x4000
 800260e:	607b      	str	r3, [r7, #4]
 8002610:	687b      	ldr	r3, [r7, #4]
  __HAL_RCC_PWR_CLK_ENABLE();
 8002612:	2300      	movs	r3, #0
 8002614:	603b      	str	r3, [r7, #0]
 8002616:	4b09      	ldr	r3, [pc, #36]	; (800263c <HAL_MspInit+0x4c>)
 8002618:	6c1b      	ldr	r3, [r3, #64]	; 0x40
 800261a:	4a08      	ldr	r2, [pc, #32]	; (800263c <HAL_MspInit+0x4c>)
 800261c:	f043 5380 	orr.w	r3, r3, #268435456	; 0x10000000
 8002620:	6413      	str	r3, [r2, #64]	; 0x40
 8002622:	4b06      	ldr	r3, [pc, #24]	; (800263c <HAL_MspInit+0x4c>)
 8002624:	6c1b      	ldr	r3, [r3, #64]	; 0x40
 8002626:	f003 5380 	and.w	r3, r3, #268435456	; 0x10000000
 800262a:	603b      	str	r3, [r7, #0]
 800262c:	683b      	ldr	r3, [r7, #0]
  /* System interrupt init*/

  /* USER CODE BEGIN MspInit 1 */

  /* USER CODE END MspInit 1 */
}
 800262e:	bf00      	nop
 8002630:	370c      	adds	r7, #12
 8002632:	46bd      	mov	sp, r7
 8002634:	f85d 7b04 	ldr.w	r7, [sp], #4
 8002638:	4770      	bx	lr
 800263a:	bf00      	nop
 800263c:	40023800 	.word	0x40023800

08002640 <HAL_CAN_MspInit>:
* This function configures the hardware resources used in this example
* @param hcan: CAN handle pointer
* @retval None
*/
void HAL_CAN_MspInit(CAN_HandleTypeDef* hcan)
{
 8002640:	b580      	push	{r7, lr}
 8002642:	b08a      	sub	sp, #40	; 0x28
 8002644:	af00      	add	r7, sp, #0
 8002646:	6078      	str	r0, [r7, #4]
  GPIO_InitTypeDef GPIO_InitStruct = {0};
 8002648:	f107 0314 	add.w	r3, r7, #20
 800264c:	2200      	movs	r2, #0
 800264e:	601a      	str	r2, [r3, #0]
 8002650:	605a      	str	r2, [r3, #4]
 8002652:	609a      	str	r2, [r3, #8]
 8002654:	60da      	str	r2, [r3, #12]
 8002656:	611a      	str	r2, [r3, #16]
  if(hcan->Instance==CAN2)
 8002658:	687b      	ldr	r3, [r7, #4]
 800265a:	681b      	ldr	r3, [r3, #0]
 800265c:	4a24      	ldr	r2, [pc, #144]	; (80026f0 <HAL_CAN_MspInit+0xb0>)
 800265e:	4293      	cmp	r3, r2
 8002660:	d141      	bne.n	80026e6 <HAL_CAN_MspInit+0xa6>
  {
  /* USER CODE BEGIN CAN2_MspInit 0 */

  /* USER CODE END CAN2_MspInit 0 */
    /* Peripheral clock enable */
    __HAL_RCC_CAN2_CLK_ENABLE();
 8002662:	2300      	movs	r3, #0
 8002664:	613b      	str	r3, [r7, #16]
 8002666:	4b23      	ldr	r3, [pc, #140]	; (80026f4 <HAL_CAN_MspInit+0xb4>)
 8002668:	6c1b      	ldr	r3, [r3, #64]	; 0x40
 800266a:	4a22      	ldr	r2, [pc, #136]	; (80026f4 <HAL_CAN_MspInit+0xb4>)
 800266c:	f043 6380 	orr.w	r3, r3, #67108864	; 0x4000000
 8002670:	6413      	str	r3, [r2, #64]	; 0x40
 8002672:	4b20      	ldr	r3, [pc, #128]	; (80026f4 <HAL_CAN_MspInit+0xb4>)
 8002674:	6c1b      	ldr	r3, [r3, #64]	; 0x40
 8002676:	f003 6380 	and.w	r3, r3, #67108864	; 0x4000000
 800267a:	613b      	str	r3, [r7, #16]
 800267c:	693b      	ldr	r3, [r7, #16]
    __HAL_RCC_CAN1_CLK_ENABLE();
 800267e:	2300      	movs	r3, #0
 8002680:	60fb      	str	r3, [r7, #12]
 8002682:	4b1c      	ldr	r3, [pc, #112]	; (80026f4 <HAL_CAN_MspInit+0xb4>)
 8002684:	6c1b      	ldr	r3, [r3, #64]	; 0x40
 8002686:	4a1b      	ldr	r2, [pc, #108]	; (80026f4 <HAL_CAN_MspInit+0xb4>)
 8002688:	f043 7300 	orr.w	r3, r3, #33554432	; 0x2000000
 800268c:	6413      	str	r3, [r2, #64]	; 0x40
 800268e:	4b19      	ldr	r3, [pc, #100]	; (80026f4 <HAL_CAN_MspInit+0xb4>)
 8002690:	6c1b      	ldr	r3, [r3, #64]	; 0x40
 8002692:	f003 7300 	and.w	r3, r3, #33554432	; 0x2000000
 8002696:	60fb      	str	r3, [r7, #12]
 8002698:	68fb      	ldr	r3, [r7, #12]

    __HAL_RCC_GPIOB_CLK_ENABLE();
 800269a:	2300      	movs	r3, #0
 800269c:	60bb      	str	r3, [r7, #8]
 800269e:	4b15      	ldr	r3, [pc, #84]	; (80026f4 <HAL_CAN_MspInit+0xb4>)
 80026a0:	6b1b      	ldr	r3, [r3, #48]	; 0x30
 80026a2:	4a14      	ldr	r2, [pc, #80]	; (80026f4 <HAL_CAN_MspInit+0xb4>)
 80026a4:	f043 0302 	orr.w	r3, r3, #2
 80026a8:	6313      	str	r3, [r2, #48]	; 0x30
 80026aa:	4b12      	ldr	r3, [pc, #72]	; (80026f4 <HAL_CAN_MspInit+0xb4>)
 80026ac:	6b1b      	ldr	r3, [r3, #48]	; 0x30
 80026ae:	f003 0302 	and.w	r3, r3, #2
 80026b2:	60bb      	str	r3, [r7, #8]
 80026b4:	68bb      	ldr	r3, [r7, #8]
    /**CAN2 GPIO Configuration
    PB5     ------> CAN2_RX
    PB6     ------> CAN2_TX
    */
    GPIO_InitStruct.Pin = GPIO_PIN_5|GPIO_PIN_6;
 80026b6:	2360      	movs	r3, #96	; 0x60
 80026b8:	617b      	str	r3, [r7, #20]
    GPIO_InitStruct.Mode = GPIO_MODE_AF_PP;
 80026ba:	2302      	movs	r3, #2
 80026bc:	61bb      	str	r3, [r7, #24]
    GPIO_InitStruct.Pull = GPIO_NOPULL;
 80026be:	2300      	movs	r3, #0
 80026c0:	61fb      	str	r3, [r7, #28]
    GPIO_InitStruct.Speed = GPIO_SPEED_FREQ_VERY_HIGH;
 80026c2:	2303      	movs	r3, #3
 80026c4:	623b      	str	r3, [r7, #32]
    GPIO_InitStruct.Alternate = GPIO_AF9_CAN2;
 80026c6:	2309      	movs	r3, #9
 80026c8:	627b      	str	r3, [r7, #36]	; 0x24
    HAL_GPIO_Init(GPIOB, &GPIO_InitStruct);
 80026ca:	f107 0314 	add.w	r3, r7, #20
 80026ce:	4619      	mov	r1, r3
 80026d0:	4809      	ldr	r0, [pc, #36]	; (80026f8 <HAL_CAN_MspInit+0xb8>)
 80026d2:	f001 ffbb 	bl	800464c <HAL_GPIO_Init>

    /* CAN2 interrupt Init */
    HAL_NVIC_SetPriority(CAN2_RX0_IRQn, 0, 0);
 80026d6:	2200      	movs	r2, #0
 80026d8:	2100      	movs	r1, #0
 80026da:	2040      	movs	r0, #64	; 0x40
 80026dc:	f001 fb7d 	bl	8003dda <HAL_NVIC_SetPriority>
    HAL_NVIC_EnableIRQ(CAN2_RX0_IRQn);
 80026e0:	2040      	movs	r0, #64	; 0x40
 80026e2:	f001 fb96 	bl	8003e12 <HAL_NVIC_EnableIRQ>
  /* USER CODE BEGIN CAN2_MspInit 1 */

  /* USER CODE END CAN2_MspInit 1 */
  }

}
 80026e6:	bf00      	nop
 80026e8:	3728      	adds	r7, #40	; 0x28
 80026ea:	46bd      	mov	sp, r7
 80026ec:	bd80      	pop	{r7, pc}
 80026ee:	bf00      	nop
 80026f0:	40006800 	.word	0x40006800
 80026f4:	40023800 	.word	0x40023800
 80026f8:	40020400 	.word	0x40020400

080026fc <HAL_I2C_MspInit>:
* This function configures the hardware resources used in this example
* @param hi2c: I2C handle pointer
* @retval None
*/
void HAL_I2C_MspInit(I2C_HandleTypeDef* hi2c)
{
 80026fc:	b580      	push	{r7, lr}
 80026fe:	b08c      	sub	sp, #48	; 0x30
 8002700:	af00      	add	r7, sp, #0
 8002702:	6078      	str	r0, [r7, #4]
  GPIO_InitTypeDef GPIO_InitStruct = {0};
 8002704:	f107 031c 	add.w	r3, r7, #28
 8002708:	2200      	movs	r2, #0
 800270a:	601a      	str	r2, [r3, #0]
 800270c:	605a      	str	r2, [r3, #4]
 800270e:	609a      	str	r2, [r3, #8]
 8002710:	60da      	str	r2, [r3, #12]
 8002712:	611a      	str	r2, [r3, #16]
  if(hi2c->Instance==I2C1)
 8002714:	687b      	ldr	r3, [r7, #4]
 8002716:	681b      	ldr	r3, [r3, #0]
 8002718:	4a33      	ldr	r2, [pc, #204]	; (80027e8 <HAL_I2C_MspInit+0xec>)
 800271a:	4293      	cmp	r3, r2
 800271c:	d12d      	bne.n	800277a <HAL_I2C_MspInit+0x7e>
  {
  /* USER CODE BEGIN I2C1_MspInit 0 */

  /* USER CODE END I2C1_MspInit 0 */

    __HAL_RCC_GPIOB_CLK_ENABLE();
 800271e:	2300      	movs	r3, #0
 8002720:	61bb      	str	r3, [r7, #24]
 8002722:	4b32      	ldr	r3, [pc, #200]	; (80027ec <HAL_I2C_MspInit+0xf0>)
 8002724:	6b1b      	ldr	r3, [r3, #48]	; 0x30
 8002726:	4a31      	ldr	r2, [pc, #196]	; (80027ec <HAL_I2C_MspInit+0xf0>)
 8002728:	f043 0302 	orr.w	r3, r3, #2
 800272c:	6313      	str	r3, [r2, #48]	; 0x30
 800272e:	4b2f      	ldr	r3, [pc, #188]	; (80027ec <HAL_I2C_MspInit+0xf0>)
 8002730:	6b1b      	ldr	r3, [r3, #48]	; 0x30
 8002732:	f003 0302 	and.w	r3, r3, #2
 8002736:	61bb      	str	r3, [r7, #24]
 8002738:	69bb      	ldr	r3, [r7, #24]
    /**I2C1 GPIO Configuration
    PB8     ------> I2C1_SCL
    PB9     ------> I2C1_SDA
    */
    GPIO_InitStruct.Pin = GPIO_PIN_8|GPIO_PIN_9;
 800273a:	f44f 7340 	mov.w	r3, #768	; 0x300
 800273e:	61fb      	str	r3, [r7, #28]
    GPIO_InitStruct.Mode = GPIO_MODE_AF_OD;
 8002740:	2312      	movs	r3, #18
 8002742:	623b      	str	r3, [r7, #32]
    GPIO_InitStruct.Pull = GPIO_NOPULL;
 8002744:	2300      	movs	r3, #0
 8002746:	627b      	str	r3, [r7, #36]	; 0x24
    GPIO_InitStruct.Speed = GPIO_SPEED_FREQ_VERY_HIGH;
 8002748:	2303      	movs	r3, #3
 800274a:	62bb      	str	r3, [r7, #40]	; 0x28
    GPIO_InitStruct.Alternate = GPIO_AF4_I2C1;
 800274c:	2304      	movs	r3, #4
 800274e:	62fb      	str	r3, [r7, #44]	; 0x2c
    HAL_GPIO_Init(GPIOB, &GPIO_InitStruct);
 8002750:	f107 031c 	add.w	r3, r7, #28
 8002754:	4619      	mov	r1, r3
 8002756:	4826      	ldr	r0, [pc, #152]	; (80027f0 <HAL_I2C_MspInit+0xf4>)
 8002758:	f001 ff78 	bl	800464c <HAL_GPIO_Init>

    /* Peripheral clock enable */
    __HAL_RCC_I2C1_CLK_ENABLE();
 800275c:	2300      	movs	r3, #0
 800275e:	617b      	str	r3, [r7, #20]
 8002760:	4b22      	ldr	r3, [pc, #136]	; (80027ec <HAL_I2C_MspInit+0xf0>)
 8002762:	6c1b      	ldr	r3, [r3, #64]	; 0x40
 8002764:	4a21      	ldr	r2, [pc, #132]	; (80027ec <HAL_I2C_MspInit+0xf0>)
 8002766:	f443 1300 	orr.w	r3, r3, #2097152	; 0x200000
 800276a:	6413      	str	r3, [r2, #64]	; 0x40
 800276c:	4b1f      	ldr	r3, [pc, #124]	; (80027ec <HAL_I2C_MspInit+0xf0>)
 800276e:	6c1b      	ldr	r3, [r3, #64]	; 0x40
 8002770:	f403 1300 	and.w	r3, r3, #2097152	; 0x200000
 8002774:	617b      	str	r3, [r7, #20]
 8002776:	697b      	ldr	r3, [r7, #20]
  /* USER CODE BEGIN I2C2_MspInit 1 */

  /* USER CODE END I2C2_MspInit 1 */
  }

}
 8002778:	e031      	b.n	80027de <HAL_I2C_MspInit+0xe2>
  else if(hi2c->Instance==I2C2)
 800277a:	687b      	ldr	r3, [r7, #4]
 800277c:	681b      	ldr	r3, [r3, #0]
 800277e:	4a1d      	ldr	r2, [pc, #116]	; (80027f4 <HAL_I2C_MspInit+0xf8>)
 8002780:	4293      	cmp	r3, r2
 8002782:	d12c      	bne.n	80027de <HAL_I2C_MspInit+0xe2>
    __HAL_RCC_GPIOB_CLK_ENABLE();
 8002784:	2300      	movs	r3, #0
 8002786:	613b      	str	r3, [r7, #16]
 8002788:	4b18      	ldr	r3, [pc, #96]	; (80027ec <HAL_I2C_MspInit+0xf0>)
 800278a:	6b1b      	ldr	r3, [r3, #48]	; 0x30
 800278c:	4a17      	ldr	r2, [pc, #92]	; (80027ec <HAL_I2C_MspInit+0xf0>)
 800278e:	f043 0302 	orr.w	r3, r3, #2
 8002792:	6313      	str	r3, [r2, #48]	; 0x30
 8002794:	4b15      	ldr	r3, [pc, #84]	; (80027ec <HAL_I2C_MspInit+0xf0>)
 8002796:	6b1b      	ldr	r3, [r3, #48]	; 0x30
 8002798:	f003 0302 	and.w	r3, r3, #2
 800279c:	613b      	str	r3, [r7, #16]
 800279e:	693b      	ldr	r3, [r7, #16]
    GPIO_InitStruct.Pin = GPIO_PIN_10|GPIO_PIN_11;
 80027a0:	f44f 6340 	mov.w	r3, #3072	; 0xc00
 80027a4:	61fb      	str	r3, [r7, #28]
    GPIO_InitStruct.Mode = GPIO_MODE_AF_OD;
 80027a6:	2312      	movs	r3, #18
 80027a8:	623b      	str	r3, [r7, #32]
    GPIO_InitStruct.Pull = GPIO_NOPULL;
 80027aa:	2300      	movs	r3, #0
 80027ac:	627b      	str	r3, [r7, #36]	; 0x24
    GPIO_InitStruct.Speed = GPIO_SPEED_FREQ_VERY_HIGH;
 80027ae:	2303      	movs	r3, #3
 80027b0:	62bb      	str	r3, [r7, #40]	; 0x28
    GPIO_InitStruct.Alternate = GPIO_AF4_I2C2;
 80027b2:	2304      	movs	r3, #4
 80027b4:	62fb      	str	r3, [r7, #44]	; 0x2c
    HAL_GPIO_Init(GPIOB, &GPIO_InitStruct);
 80027b6:	f107 031c 	add.w	r3, r7, #28
 80027ba:	4619      	mov	r1, r3
 80027bc:	480c      	ldr	r0, [pc, #48]	; (80027f0 <HAL_I2C_MspInit+0xf4>)
 80027be:	f001 ff45 	bl	800464c <HAL_GPIO_Init>
    __HAL_RCC_I2C2_CLK_ENABLE();
 80027c2:	2300      	movs	r3, #0
 80027c4:	60fb      	str	r3, [r7, #12]
 80027c6:	4b09      	ldr	r3, [pc, #36]	; (80027ec <HAL_I2C_MspInit+0xf0>)
 80027c8:	6c1b      	ldr	r3, [r3, #64]	; 0x40
 80027ca:	4a08      	ldr	r2, [pc, #32]	; (80027ec <HAL_I2C_MspInit+0xf0>)
 80027cc:	f443 0380 	orr.w	r3, r3, #4194304	; 0x400000
 80027d0:	6413      	str	r3, [r2, #64]	; 0x40
 80027d2:	4b06      	ldr	r3, [pc, #24]	; (80027ec <HAL_I2C_MspInit+0xf0>)
 80027d4:	6c1b      	ldr	r3, [r3, #64]	; 0x40
 80027d6:	f403 0380 	and.w	r3, r3, #4194304	; 0x400000
 80027da:	60fb      	str	r3, [r7, #12]
 80027dc:	68fb      	ldr	r3, [r7, #12]
}
 80027de:	bf00      	nop
 80027e0:	3730      	adds	r7, #48	; 0x30
 80027e2:	46bd      	mov	sp, r7
 80027e4:	bd80      	pop	{r7, pc}
 80027e6:	bf00      	nop
 80027e8:	40005400 	.word	0x40005400
 80027ec:	40023800 	.word	0x40023800
 80027f0:	40020400 	.word	0x40020400
 80027f4:	40005800 	.word	0x40005800

080027f8 <HAL_RTC_MspInit>:
* This function configures the hardware resources used in this example
* @param hrtc: RTC handle pointer
* @retval None
*/
void HAL_RTC_MspInit(RTC_HandleTypeDef* hrtc)
{
 80027f8:	b580      	push	{r7, lr}
 80027fa:	b08e      	sub	sp, #56	; 0x38
 80027fc:	af00      	add	r7, sp, #0
 80027fe:	6078      	str	r0, [r7, #4]
  RCC_PeriphCLKInitTypeDef PeriphClkInitStruct = {0};
 8002800:	f107 0308 	add.w	r3, r7, #8
 8002804:	2230      	movs	r2, #48	; 0x30
 8002806:	2100      	movs	r1, #0
 8002808:	4618      	mov	r0, r3
 800280a:	f006 fd43 	bl	8009294 <memset>
  if(hrtc->Instance==RTC)
 800280e:	687b      	ldr	r3, [r7, #4]
 8002810:	681b      	ldr	r3, [r3, #0]
 8002812:	4a0c      	ldr	r2, [pc, #48]	; (8002844 <HAL_RTC_MspInit+0x4c>)
 8002814:	4293      	cmp	r3, r2
 8002816:	d111      	bne.n	800283c <HAL_RTC_MspInit+0x44>

  /* USER CODE END RTC_MspInit 0 */

  /** Initializes the peripherals clock
  */
    PeriphClkInitStruct.PeriphClockSelection = RCC_PERIPHCLK_RTC;
 8002818:	2320      	movs	r3, #32
 800281a:	60bb      	str	r3, [r7, #8]
    PeriphClkInitStruct.RTCClockSelection = RCC_RTCCLKSOURCE_LSI;
 800281c:	f44f 7300 	mov.w	r3, #512	; 0x200
 8002820:	633b      	str	r3, [r7, #48]	; 0x30
    if (HAL_RCCEx_PeriphCLKConfig(&PeriphClkInitStruct) != HAL_OK)
 8002822:	f107 0308 	add.w	r3, r7, #8
 8002826:	4618      	mov	r0, r3
 8002828:	f003 fdd6 	bl	80063d8 <HAL_RCCEx_PeriphCLKConfig>
 800282c:	4603      	mov	r3, r0
 800282e:	2b00      	cmp	r3, #0
 8002830:	d001      	beq.n	8002836 <HAL_RTC_MspInit+0x3e>
    {
      Error_Handler();
 8002832:	f7ff fa4f 	bl	8001cd4 <Error_Handler>
    }

    /* Peripheral clock enable */
    __HAL_RCC_RTC_ENABLE();
 8002836:	4b04      	ldr	r3, [pc, #16]	; (8002848 <HAL_RTC_MspInit+0x50>)
 8002838:	2201      	movs	r2, #1
 800283a:	601a      	str	r2, [r3, #0]
  /* USER CODE BEGIN RTC_MspInit 1 */

  /* USER CODE END RTC_MspInit 1 */
  }

}
 800283c:	bf00      	nop
 800283e:	3738      	adds	r7, #56	; 0x38
 8002840:	46bd      	mov	sp, r7
 8002842:	bd80      	pop	{r7, pc}
 8002844:	40002800 	.word	0x40002800
 8002848:	42470e3c 	.word	0x42470e3c

0800284c <HAL_SPI_MspInit>:
* This function configures the hardware resources used in this example
* @param hspi: SPI handle pointer
* @retval None
*/
void HAL_SPI_MspInit(SPI_HandleTypeDef* hspi)
{
 800284c:	b580      	push	{r7, lr}
 800284e:	b08c      	sub	sp, #48	; 0x30
 8002850:	af00      	add	r7, sp, #0
 8002852:	6078      	str	r0, [r7, #4]
  GPIO_InitTypeDef GPIO_InitStruct = {0};
 8002854:	f107 031c 	add.w	r3, r7, #28
 8002858:	2200      	movs	r2, #0
 800285a:	601a      	str	r2, [r3, #0]
 800285c:	605a      	str	r2, [r3, #4]
 800285e:	609a      	str	r2, [r3, #8]
 8002860:	60da      	str	r2, [r3, #12]
 8002862:	611a      	str	r2, [r3, #16]
  if(hspi->Instance==SPI1)
 8002864:	687b      	ldr	r3, [r7, #4]
 8002866:	681b      	ldr	r3, [r3, #0]
 8002868:	4a6f      	ldr	r2, [pc, #444]	; (8002a28 <HAL_SPI_MspInit+0x1dc>)
 800286a:	4293      	cmp	r3, r2
 800286c:	d15b      	bne.n	8002926 <HAL_SPI_MspInit+0xda>
  {
  /* USER CODE BEGIN SPI1_MspInit 0 */

  /* USER CODE END SPI1_MspInit 0 */
    /* Peripheral clock enable */
    __HAL_RCC_SPI1_CLK_ENABLE();
 800286e:	2300      	movs	r3, #0
 8002870:	61bb      	str	r3, [r7, #24]
 8002872:	4b6e      	ldr	r3, [pc, #440]	; (8002a2c <HAL_SPI_MspInit+0x1e0>)
 8002874:	6c5b      	ldr	r3, [r3, #68]	; 0x44
 8002876:	4a6d      	ldr	r2, [pc, #436]	; (8002a2c <HAL_SPI_MspInit+0x1e0>)
 8002878:	f443 5380 	orr.w	r3, r3, #4096	; 0x1000
 800287c:	6453      	str	r3, [r2, #68]	; 0x44
 800287e:	4b6b      	ldr	r3, [pc, #428]	; (8002a2c <HAL_SPI_MspInit+0x1e0>)
 8002880:	6c5b      	ldr	r3, [r3, #68]	; 0x44
 8002882:	f403 5380 	and.w	r3, r3, #4096	; 0x1000
 8002886:	61bb      	str	r3, [r7, #24]
 8002888:	69bb      	ldr	r3, [r7, #24]

    __HAL_RCC_GPIOA_CLK_ENABLE();
 800288a:	2300      	movs	r3, #0
 800288c:	617b      	str	r3, [r7, #20]
 800288e:	4b67      	ldr	r3, [pc, #412]	; (8002a2c <HAL_SPI_MspInit+0x1e0>)
 8002890:	6b1b      	ldr	r3, [r3, #48]	; 0x30
 8002892:	4a66      	ldr	r2, [pc, #408]	; (8002a2c <HAL_SPI_MspInit+0x1e0>)
 8002894:	f043 0301 	orr.w	r3, r3, #1
 8002898:	6313      	str	r3, [r2, #48]	; 0x30
 800289a:	4b64      	ldr	r3, [pc, #400]	; (8002a2c <HAL_SPI_MspInit+0x1e0>)
 800289c:	6b1b      	ldr	r3, [r3, #48]	; 0x30
 800289e:	f003 0301 	and.w	r3, r3, #1
 80028a2:	617b      	str	r3, [r7, #20]
 80028a4:	697b      	ldr	r3, [r7, #20]
    /**SPI1 GPIO Configuration
    PA5     ------> SPI1_SCK
    PA6     ------> SPI1_MISO
    PA7     ------> SPI1_MOSI
    */
    GPIO_InitStruct.Pin = GPIO_PIN_5|GPIO_PIN_6|GPIO_PIN_7;
 80028a6:	23e0      	movs	r3, #224	; 0xe0
 80028a8:	61fb      	str	r3, [r7, #28]
    GPIO_InitStruct.Mode = GPIO_MODE_AF_PP;
 80028aa:	2302      	movs	r3, #2
 80028ac:	623b      	str	r3, [r7, #32]
    GPIO_InitStruct.Pull = GPIO_NOPULL;
 80028ae:	2300      	movs	r3, #0
 80028b0:	627b      	str	r3, [r7, #36]	; 0x24
    GPIO_InitStruct.Speed = GPIO_SPEED_FREQ_VERY_HIGH;
 80028b2:	2303      	movs	r3, #3
 80028b4:	62bb      	str	r3, [r7, #40]	; 0x28
    GPIO_InitStruct.Alternate = GPIO_AF5_SPI1;
 80028b6:	2305      	movs	r3, #5
 80028b8:	62fb      	str	r3, [r7, #44]	; 0x2c
    HAL_GPIO_Init(GPIOA, &GPIO_InitStruct);
 80028ba:	f107 031c 	add.w	r3, r7, #28
 80028be:	4619      	mov	r1, r3
 80028c0:	485b      	ldr	r0, [pc, #364]	; (8002a30 <HAL_SPI_MspInit+0x1e4>)
 80028c2:	f001 fec3 	bl	800464c <HAL_GPIO_Init>

    /* SPI1 DMA Init */
    /* SPI1_TX Init */
    hdma_spi1_tx.Instance = DMA2_Stream3;
 80028c6:	4b5b      	ldr	r3, [pc, #364]	; (8002a34 <HAL_SPI_MspInit+0x1e8>)
 80028c8:	4a5b      	ldr	r2, [pc, #364]	; (8002a38 <HAL_SPI_MspInit+0x1ec>)
 80028ca:	601a      	str	r2, [r3, #0]
    hdma_spi1_tx.Init.Channel = DMA_CHANNEL_3;
 80028cc:	4b59      	ldr	r3, [pc, #356]	; (8002a34 <HAL_SPI_MspInit+0x1e8>)
 80028ce:	f04f 62c0 	mov.w	r2, #100663296	; 0x6000000
 80028d2:	605a      	str	r2, [r3, #4]
    hdma_spi1_tx.Init.Direction = DMA_MEMORY_TO_PERIPH;
 80028d4:	4b57      	ldr	r3, [pc, #348]	; (8002a34 <HAL_SPI_MspInit+0x1e8>)
 80028d6:	2240      	movs	r2, #64	; 0x40
 80028d8:	609a      	str	r2, [r3, #8]
    hdma_spi1_tx.Init.PeriphInc = DMA_PINC_DISABLE;
 80028da:	4b56      	ldr	r3, [pc, #344]	; (8002a34 <HAL_SPI_MspInit+0x1e8>)
 80028dc:	2200      	movs	r2, #0
 80028de:	60da      	str	r2, [r3, #12]
    hdma_spi1_tx.Init.MemInc = DMA_MINC_ENABLE;
 80028e0:	4b54      	ldr	r3, [pc, #336]	; (8002a34 <HAL_SPI_MspInit+0x1e8>)
 80028e2:	f44f 6280 	mov.w	r2, #1024	; 0x400
 80028e6:	611a      	str	r2, [r3, #16]
    hdma_spi1_tx.Init.PeriphDataAlignment = DMA_PDATAALIGN_BYTE;
 80028e8:	4b52      	ldr	r3, [pc, #328]	; (8002a34 <HAL_SPI_MspInit+0x1e8>)
 80028ea:	2200      	movs	r2, #0
 80028ec:	615a      	str	r2, [r3, #20]
    hdma_spi1_tx.Init.MemDataAlignment = DMA_MDATAALIGN_BYTE;
 80028ee:	4b51      	ldr	r3, [pc, #324]	; (8002a34 <HAL_SPI_MspInit+0x1e8>)
 80028f0:	2200      	movs	r2, #0
 80028f2:	619a      	str	r2, [r3, #24]
    hdma_spi1_tx.Init.Mode = DMA_NORMAL;
 80028f4:	4b4f      	ldr	r3, [pc, #316]	; (8002a34 <HAL_SPI_MspInit+0x1e8>)
 80028f6:	2200      	movs	r2, #0
 80028f8:	61da      	str	r2, [r3, #28]
    hdma_spi1_tx.Init.Priority = DMA_PRIORITY_MEDIUM;
 80028fa:	4b4e      	ldr	r3, [pc, #312]	; (8002a34 <HAL_SPI_MspInit+0x1e8>)
 80028fc:	f44f 3280 	mov.w	r2, #65536	; 0x10000
 8002900:	621a      	str	r2, [r3, #32]
    hdma_spi1_tx.Init.FIFOMode = DMA_FIFOMODE_DISABLE;
 8002902:	4b4c      	ldr	r3, [pc, #304]	; (8002a34 <HAL_SPI_MspInit+0x1e8>)
 8002904:	2200      	movs	r2, #0
 8002906:	625a      	str	r2, [r3, #36]	; 0x24
    if (HAL_DMA_Init(&hdma_spi1_tx) != HAL_OK)
 8002908:	484a      	ldr	r0, [pc, #296]	; (8002a34 <HAL_SPI_MspInit+0x1e8>)
 800290a:	f001 fa9d 	bl	8003e48 <HAL_DMA_Init>
 800290e:	4603      	mov	r3, r0
 8002910:	2b00      	cmp	r3, #0
 8002912:	d001      	beq.n	8002918 <HAL_SPI_MspInit+0xcc>
    {
      Error_Handler();
 8002914:	f7ff f9de 	bl	8001cd4 <Error_Handler>
    }

    __HAL_LINKDMA(hspi,hdmatx,hdma_spi1_tx);
 8002918:	687b      	ldr	r3, [r7, #4]
 800291a:	4a46      	ldr	r2, [pc, #280]	; (8002a34 <HAL_SPI_MspInit+0x1e8>)
 800291c:	649a      	str	r2, [r3, #72]	; 0x48
 800291e:	4a45      	ldr	r2, [pc, #276]	; (8002a34 <HAL_SPI_MspInit+0x1e8>)
 8002920:	687b      	ldr	r3, [r7, #4]
 8002922:	6393      	str	r3, [r2, #56]	; 0x38
  /* USER CODE BEGIN SPI2_MspInit 1 */

  /* USER CODE END SPI2_MspInit 1 */
  }

}
 8002924:	e07b      	b.n	8002a1e <HAL_SPI_MspInit+0x1d2>
  else if(hspi->Instance==SPI2)
 8002926:	687b      	ldr	r3, [r7, #4]
 8002928:	681b      	ldr	r3, [r3, #0]
 800292a:	4a44      	ldr	r2, [pc, #272]	; (8002a3c <HAL_SPI_MspInit+0x1f0>)
 800292c:	4293      	cmp	r3, r2
 800292e:	d176      	bne.n	8002a1e <HAL_SPI_MspInit+0x1d2>
    __HAL_RCC_SPI2_CLK_ENABLE();
 8002930:	2300      	movs	r3, #0
 8002932:	613b      	str	r3, [r7, #16]
 8002934:	4b3d      	ldr	r3, [pc, #244]	; (8002a2c <HAL_SPI_MspInit+0x1e0>)
 8002936:	6c1b      	ldr	r3, [r3, #64]	; 0x40
 8002938:	4a3c      	ldr	r2, [pc, #240]	; (8002a2c <HAL_SPI_MspInit+0x1e0>)
 800293a:	f443 4380 	orr.w	r3, r3, #16384	; 0x4000
 800293e:	6413      	str	r3, [r2, #64]	; 0x40
 8002940:	4b3a      	ldr	r3, [pc, #232]	; (8002a2c <HAL_SPI_MspInit+0x1e0>)
 8002942:	6c1b      	ldr	r3, [r3, #64]	; 0x40
 8002944:	f403 4380 	and.w	r3, r3, #16384	; 0x4000
 8002948:	613b      	str	r3, [r7, #16]
 800294a:	693b      	ldr	r3, [r7, #16]
    __HAL_RCC_GPIOC_CLK_ENABLE();
 800294c:	2300      	movs	r3, #0
 800294e:	60fb      	str	r3, [r7, #12]
 8002950:	4b36      	ldr	r3, [pc, #216]	; (8002a2c <HAL_SPI_MspInit+0x1e0>)
 8002952:	6b1b      	ldr	r3, [r3, #48]	; 0x30
 8002954:	4a35      	ldr	r2, [pc, #212]	; (8002a2c <HAL_SPI_MspInit+0x1e0>)
 8002956:	f043 0304 	orr.w	r3, r3, #4
 800295a:	6313      	str	r3, [r2, #48]	; 0x30
 800295c:	4b33      	ldr	r3, [pc, #204]	; (8002a2c <HAL_SPI_MspInit+0x1e0>)
 800295e:	6b1b      	ldr	r3, [r3, #48]	; 0x30
 8002960:	f003 0304 	and.w	r3, r3, #4
 8002964:	60fb      	str	r3, [r7, #12]
 8002966:	68fb      	ldr	r3, [r7, #12]
    __HAL_RCC_GPIOD_CLK_ENABLE();
 8002968:	2300      	movs	r3, #0
 800296a:	60bb      	str	r3, [r7, #8]
 800296c:	4b2f      	ldr	r3, [pc, #188]	; (8002a2c <HAL_SPI_MspInit+0x1e0>)
 800296e:	6b1b      	ldr	r3, [r3, #48]	; 0x30
 8002970:	4a2e      	ldr	r2, [pc, #184]	; (8002a2c <HAL_SPI_MspInit+0x1e0>)
 8002972:	f043 0308 	orr.w	r3, r3, #8
 8002976:	6313      	str	r3, [r2, #48]	; 0x30
 8002978:	4b2c      	ldr	r3, [pc, #176]	; (8002a2c <HAL_SPI_MspInit+0x1e0>)
 800297a:	6b1b      	ldr	r3, [r3, #48]	; 0x30
 800297c:	f003 0308 	and.w	r3, r3, #8
 8002980:	60bb      	str	r3, [r7, #8]
 8002982:	68bb      	ldr	r3, [r7, #8]
    GPIO_InitStruct.Pin = GPIO_PIN_2|GPIO_PIN_3;
 8002984:	230c      	movs	r3, #12
 8002986:	61fb      	str	r3, [r7, #28]
    GPIO_InitStruct.Mode = GPIO_MODE_AF_PP;
 8002988:	2302      	movs	r3, #2
 800298a:	623b      	str	r3, [r7, #32]
    GPIO_InitStruct.Pull = GPIO_NOPULL;
 800298c:	2300      	movs	r3, #0
 800298e:	627b      	str	r3, [r7, #36]	; 0x24
    GPIO_InitStruct.Speed = GPIO_SPEED_FREQ_VERY_HIGH;
 8002990:	2303      	movs	r3, #3
 8002992:	62bb      	str	r3, [r7, #40]	; 0x28
    GPIO_InitStruct.Alternate = GPIO_AF5_SPI2;
 8002994:	2305      	movs	r3, #5
 8002996:	62fb      	str	r3, [r7, #44]	; 0x2c
    HAL_GPIO_Init(GPIOC, &GPIO_InitStruct);
 8002998:	f107 031c 	add.w	r3, r7, #28
 800299c:	4619      	mov	r1, r3
 800299e:	4828      	ldr	r0, [pc, #160]	; (8002a40 <HAL_SPI_MspInit+0x1f4>)
 80029a0:	f001 fe54 	bl	800464c <HAL_GPIO_Init>
    GPIO_InitStruct.Pin = GPIO_PIN_3;
 80029a4:	2308      	movs	r3, #8
 80029a6:	61fb      	str	r3, [r7, #28]
    GPIO_InitStruct.Mode = GPIO_MODE_AF_PP;
 80029a8:	2302      	movs	r3, #2
 80029aa:	623b      	str	r3, [r7, #32]
    GPIO_InitStruct.Pull = GPIO_NOPULL;
 80029ac:	2300      	movs	r3, #0
 80029ae:	627b      	str	r3, [r7, #36]	; 0x24
    GPIO_InitStruct.Speed = GPIO_SPEED_FREQ_VERY_HIGH;
 80029b0:	2303      	movs	r3, #3
 80029b2:	62bb      	str	r3, [r7, #40]	; 0x28
    GPIO_InitStruct.Alternate = GPIO_AF5_SPI2;
 80029b4:	2305      	movs	r3, #5
 80029b6:	62fb      	str	r3, [r7, #44]	; 0x2c
    HAL_GPIO_Init(GPIOD, &GPIO_InitStruct);
 80029b8:	f107 031c 	add.w	r3, r7, #28
 80029bc:	4619      	mov	r1, r3
 80029be:	4821      	ldr	r0, [pc, #132]	; (8002a44 <HAL_SPI_MspInit+0x1f8>)
 80029c0:	f001 fe44 	bl	800464c <HAL_GPIO_Init>
    hdma_spi2_tx.Instance = DMA1_Stream4;
 80029c4:	4b20      	ldr	r3, [pc, #128]	; (8002a48 <HAL_SPI_MspInit+0x1fc>)
 80029c6:	4a21      	ldr	r2, [pc, #132]	; (8002a4c <HAL_SPI_MspInit+0x200>)
 80029c8:	601a      	str	r2, [r3, #0]
    hdma_spi2_tx.Init.Channel = DMA_CHANNEL_0;
 80029ca:	4b1f      	ldr	r3, [pc, #124]	; (8002a48 <HAL_SPI_MspInit+0x1fc>)
 80029cc:	2200      	movs	r2, #0
 80029ce:	605a      	str	r2, [r3, #4]
    hdma_spi2_tx.Init.Direction = DMA_MEMORY_TO_PERIPH;
 80029d0:	4b1d      	ldr	r3, [pc, #116]	; (8002a48 <HAL_SPI_MspInit+0x1fc>)
 80029d2:	2240      	movs	r2, #64	; 0x40
 80029d4:	609a      	str	r2, [r3, #8]
    hdma_spi2_tx.Init.PeriphInc = DMA_PINC_DISABLE;
 80029d6:	4b1c      	ldr	r3, [pc, #112]	; (8002a48 <HAL_SPI_MspInit+0x1fc>)
 80029d8:	2200      	movs	r2, #0
 80029da:	60da      	str	r2, [r3, #12]
    hdma_spi2_tx.Init.MemInc = DMA_MINC_ENABLE;
 80029dc:	4b1a      	ldr	r3, [pc, #104]	; (8002a48 <HAL_SPI_MspInit+0x1fc>)
 80029de:	f44f 6280 	mov.w	r2, #1024	; 0x400
 80029e2:	611a      	str	r2, [r3, #16]
    hdma_spi2_tx.Init.PeriphDataAlignment = DMA_PDATAALIGN_BYTE;
 80029e4:	4b18      	ldr	r3, [pc, #96]	; (8002a48 <HAL_SPI_MspInit+0x1fc>)
 80029e6:	2200      	movs	r2, #0
 80029e8:	615a      	str	r2, [r3, #20]
    hdma_spi2_tx.Init.MemDataAlignment = DMA_MDATAALIGN_BYTE;
 80029ea:	4b17      	ldr	r3, [pc, #92]	; (8002a48 <HAL_SPI_MspInit+0x1fc>)
 80029ec:	2200      	movs	r2, #0
 80029ee:	619a      	str	r2, [r3, #24]
    hdma_spi2_tx.Init.Mode = DMA_NORMAL;
 80029f0:	4b15      	ldr	r3, [pc, #84]	; (8002a48 <HAL_SPI_MspInit+0x1fc>)
 80029f2:	2200      	movs	r2, #0
 80029f4:	61da      	str	r2, [r3, #28]
    hdma_spi2_tx.Init.Priority = DMA_PRIORITY_LOW;
 80029f6:	4b14      	ldr	r3, [pc, #80]	; (8002a48 <HAL_SPI_MspInit+0x1fc>)
 80029f8:	2200      	movs	r2, #0
 80029fa:	621a      	str	r2, [r3, #32]
    hdma_spi2_tx.Init.FIFOMode = DMA_FIFOMODE_DISABLE;
 80029fc:	4b12      	ldr	r3, [pc, #72]	; (8002a48 <HAL_SPI_MspInit+0x1fc>)
 80029fe:	2200      	movs	r2, #0
 8002a00:	625a      	str	r2, [r3, #36]	; 0x24
    if (HAL_DMA_Init(&hdma_spi2_tx) != HAL_OK)
 8002a02:	4811      	ldr	r0, [pc, #68]	; (8002a48 <HAL_SPI_MspInit+0x1fc>)
 8002a04:	f001 fa20 	bl	8003e48 <HAL_DMA_Init>
 8002a08:	4603      	mov	r3, r0
 8002a0a:	2b00      	cmp	r3, #0
 8002a0c:	d001      	beq.n	8002a12 <HAL_SPI_MspInit+0x1c6>
      Error_Handler();
 8002a0e:	f7ff f961 	bl	8001cd4 <Error_Handler>
    __HAL_LINKDMA(hspi,hdmatx,hdma_spi2_tx);
 8002a12:	687b      	ldr	r3, [r7, #4]
 8002a14:	4a0c      	ldr	r2, [pc, #48]	; (8002a48 <HAL_SPI_MspInit+0x1fc>)
 8002a16:	649a      	str	r2, [r3, #72]	; 0x48
 8002a18:	4a0b      	ldr	r2, [pc, #44]	; (8002a48 <HAL_SPI_MspInit+0x1fc>)
 8002a1a:	687b      	ldr	r3, [r7, #4]
 8002a1c:	6393      	str	r3, [r2, #56]	; 0x38
}
 8002a1e:	bf00      	nop
 8002a20:	3730      	adds	r7, #48	; 0x30
 8002a22:	46bd      	mov	sp, r7
 8002a24:	bd80      	pop	{r7, pc}
 8002a26:	bf00      	nop
 8002a28:	40013000 	.word	0x40013000
 8002a2c:	40023800 	.word	0x40023800
 8002a30:	40020000 	.word	0x40020000
 8002a34:	200001e8 	.word	0x200001e8
 8002a38:	40026458 	.word	0x40026458
 8002a3c:	40003800 	.word	0x40003800
 8002a40:	40020800 	.word	0x40020800
 8002a44:	40020c00 	.word	0x40020c00
 8002a48:	20000248 	.word	0x20000248
 8002a4c:	40026070 	.word	0x40026070

08002a50 <HAL_TIM_Base_MspInit>:
* This function configures the hardware resources used in this example
* @param htim_base: TIM_Base handle pointer
* @retval None
*/
void HAL_TIM_Base_MspInit(TIM_HandleTypeDef* htim_base)
{
 8002a50:	b580      	push	{r7, lr}
 8002a52:	b084      	sub	sp, #16
 8002a54:	af00      	add	r7, sp, #0
 8002a56:	6078      	str	r0, [r7, #4]
  if(htim_base->Instance==TIM6)
 8002a58:	687b      	ldr	r3, [r7, #4]
 8002a5a:	681b      	ldr	r3, [r3, #0]
 8002a5c:	4a1c      	ldr	r2, [pc, #112]	; (8002ad0 <HAL_TIM_Base_MspInit+0x80>)
 8002a5e:	4293      	cmp	r3, r2
 8002a60:	d116      	bne.n	8002a90 <HAL_TIM_Base_MspInit+0x40>
  {
  /* USER CODE BEGIN TIM6_MspInit 0 */

  /* USER CODE END TIM6_MspInit 0 */
    /* Peripheral clock enable */
    __HAL_RCC_TIM6_CLK_ENABLE();
 8002a62:	2300      	movs	r3, #0
 8002a64:	60fb      	str	r3, [r7, #12]
 8002a66:	4b1b      	ldr	r3, [pc, #108]	; (8002ad4 <HAL_TIM_Base_MspInit+0x84>)
 8002a68:	6c1b      	ldr	r3, [r3, #64]	; 0x40
 8002a6a:	4a1a      	ldr	r2, [pc, #104]	; (8002ad4 <HAL_TIM_Base_MspInit+0x84>)
 8002a6c:	f043 0310 	orr.w	r3, r3, #16
 8002a70:	6413      	str	r3, [r2, #64]	; 0x40
 8002a72:	4b18      	ldr	r3, [pc, #96]	; (8002ad4 <HAL_TIM_Base_MspInit+0x84>)
 8002a74:	6c1b      	ldr	r3, [r3, #64]	; 0x40
 8002a76:	f003 0310 	and.w	r3, r3, #16
 8002a7a:	60fb      	str	r3, [r7, #12]
 8002a7c:	68fb      	ldr	r3, [r7, #12]
    /* TIM6 interrupt Init */
    HAL_NVIC_SetPriority(TIM6_DAC_IRQn, 0, 0);
 8002a7e:	2200      	movs	r2, #0
 8002a80:	2100      	movs	r1, #0
 8002a82:	2036      	movs	r0, #54	; 0x36
 8002a84:	f001 f9a9 	bl	8003dda <HAL_NVIC_SetPriority>
    HAL_NVIC_EnableIRQ(TIM6_DAC_IRQn);
 8002a88:	2036      	movs	r0, #54	; 0x36
 8002a8a:	f001 f9c2 	bl	8003e12 <HAL_NVIC_EnableIRQ>
  /* USER CODE BEGIN TIM7_MspInit 1 */

  /* USER CODE END TIM7_MspInit 1 */
  }

}
 8002a8e:	e01a      	b.n	8002ac6 <HAL_TIM_Base_MspInit+0x76>
  else if(htim_base->Instance==TIM7)
 8002a90:	687b      	ldr	r3, [r7, #4]
 8002a92:	681b      	ldr	r3, [r3, #0]
 8002a94:	4a10      	ldr	r2, [pc, #64]	; (8002ad8 <HAL_TIM_Base_MspInit+0x88>)
 8002a96:	4293      	cmp	r3, r2
 8002a98:	d115      	bne.n	8002ac6 <HAL_TIM_Base_MspInit+0x76>
    __HAL_RCC_TIM7_CLK_ENABLE();
 8002a9a:	2300      	movs	r3, #0
 8002a9c:	60bb      	str	r3, [r7, #8]
 8002a9e:	4b0d      	ldr	r3, [pc, #52]	; (8002ad4 <HAL_TIM_Base_MspInit+0x84>)
 8002aa0:	6c1b      	ldr	r3, [r3, #64]	; 0x40
 8002aa2:	4a0c      	ldr	r2, [pc, #48]	; (8002ad4 <HAL_TIM_Base_MspInit+0x84>)
 8002aa4:	f043 0320 	orr.w	r3, r3, #32
 8002aa8:	6413      	str	r3, [r2, #64]	; 0x40
 8002aaa:	4b0a      	ldr	r3, [pc, #40]	; (8002ad4 <HAL_TIM_Base_MspInit+0x84>)
 8002aac:	6c1b      	ldr	r3, [r3, #64]	; 0x40
 8002aae:	f003 0320 	and.w	r3, r3, #32
 8002ab2:	60bb      	str	r3, [r7, #8]
 8002ab4:	68bb      	ldr	r3, [r7, #8]
    HAL_NVIC_SetPriority(TIM7_IRQn, 0, 0);
 8002ab6:	2200      	movs	r2, #0
 8002ab8:	2100      	movs	r1, #0
 8002aba:	2037      	movs	r0, #55	; 0x37
 8002abc:	f001 f98d 	bl	8003dda <HAL_NVIC_SetPriority>
    HAL_NVIC_EnableIRQ(TIM7_IRQn);
 8002ac0:	2037      	movs	r0, #55	; 0x37
 8002ac2:	f001 f9a6 	bl	8003e12 <HAL_NVIC_EnableIRQ>
}
 8002ac6:	bf00      	nop
 8002ac8:	3710      	adds	r7, #16
 8002aca:	46bd      	mov	sp, r7
 8002acc:	bd80      	pop	{r7, pc}
 8002ace:	bf00      	nop
 8002ad0:	40001000 	.word	0x40001000
 8002ad4:	40023800 	.word	0x40023800
 8002ad8:	40001400 	.word	0x40001400

08002adc <HAL_UART_MspInit>:
* This function configures the hardware resources used in this example
* @param huart: UART handle pointer
* @retval None
*/
void HAL_UART_MspInit(UART_HandleTypeDef* huart)
{
 8002adc:	b580      	push	{r7, lr}
 8002ade:	b08a      	sub	sp, #40	; 0x28
 8002ae0:	af00      	add	r7, sp, #0
 8002ae2:	6078      	str	r0, [r7, #4]
  GPIO_InitTypeDef GPIO_InitStruct = {0};
 8002ae4:	f107 0314 	add.w	r3, r7, #20
 8002ae8:	2200      	movs	r2, #0
 8002aea:	601a      	str	r2, [r3, #0]
 8002aec:	605a      	str	r2, [r3, #4]
 8002aee:	609a      	str	r2, [r3, #8]
 8002af0:	60da      	str	r2, [r3, #12]
 8002af2:	611a      	str	r2, [r3, #16]
  if(huart->Instance==USART2)
 8002af4:	687b      	ldr	r3, [r7, #4]
 8002af6:	681b      	ldr	r3, [r3, #0]
 8002af8:	4a1d      	ldr	r2, [pc, #116]	; (8002b70 <HAL_UART_MspInit+0x94>)
 8002afa:	4293      	cmp	r3, r2
 8002afc:	d133      	bne.n	8002b66 <HAL_UART_MspInit+0x8a>
  {
  /* USER CODE BEGIN USART2_MspInit 0 */

  /* USER CODE END USART2_MspInit 0 */
    /* Peripheral clock enable */
    __HAL_RCC_USART2_CLK_ENABLE();
 8002afe:	2300      	movs	r3, #0
 8002b00:	613b      	str	r3, [r7, #16]
 8002b02:	4b1c      	ldr	r3, [pc, #112]	; (8002b74 <HAL_UART_MspInit+0x98>)
 8002b04:	6c1b      	ldr	r3, [r3, #64]	; 0x40
 8002b06:	4a1b      	ldr	r2, [pc, #108]	; (8002b74 <HAL_UART_MspInit+0x98>)
 8002b08:	f443 3300 	orr.w	r3, r3, #131072	; 0x20000
 8002b0c:	6413      	str	r3, [r2, #64]	; 0x40
 8002b0e:	4b19      	ldr	r3, [pc, #100]	; (8002b74 <HAL_UART_MspInit+0x98>)
 8002b10:	6c1b      	ldr	r3, [r3, #64]	; 0x40
 8002b12:	f403 3300 	and.w	r3, r3, #131072	; 0x20000
 8002b16:	613b      	str	r3, [r7, #16]
 8002b18:	693b      	ldr	r3, [r7, #16]

    __HAL_RCC_GPIOD_CLK_ENABLE();
 8002b1a:	2300      	movs	r3, #0
 8002b1c:	60fb      	str	r3, [r7, #12]
 8002b1e:	4b15      	ldr	r3, [pc, #84]	; (8002b74 <HAL_UART_MspInit+0x98>)
 8002b20:	6b1b      	ldr	r3, [r3, #48]	; 0x30
 8002b22:	4a14      	ldr	r2, [pc, #80]	; (8002b74 <HAL_UART_MspInit+0x98>)
 8002b24:	f043 0308 	orr.w	r3, r3, #8
 8002b28:	6313      	str	r3, [r2, #48]	; 0x30
 8002b2a:	4b12      	ldr	r3, [pc, #72]	; (8002b74 <HAL_UART_MspInit+0x98>)
 8002b2c:	6b1b      	ldr	r3, [r3, #48]	; 0x30
 8002b2e:	f003 0308 	and.w	r3, r3, #8
 8002b32:	60fb      	str	r3, [r7, #12]
 8002b34:	68fb      	ldr	r3, [r7, #12]
    /**USART2 GPIO Configuration
    PD5     ------> USART2_TX
    PD6     ------> USART2_RX
    */
    GPIO_InitStruct.Pin = GPIO_PIN_5|GPIO_PIN_6;
 8002b36:	2360      	movs	r3, #96	; 0x60
 8002b38:	617b      	str	r3, [r7, #20]
    GPIO_InitStruct.Mode = GPIO_MODE_AF_PP;
 8002b3a:	2302      	movs	r3, #2
 8002b3c:	61bb      	str	r3, [r7, #24]
    GPIO_InitStruct.Pull = GPIO_NOPULL;
 8002b3e:	2300      	movs	r3, #0
 8002b40:	61fb      	str	r3, [r7, #28]
    GPIO_InitStruct.Speed = GPIO_SPEED_FREQ_VERY_HIGH;
 8002b42:	2303      	movs	r3, #3
 8002b44:	623b      	str	r3, [r7, #32]
    GPIO_InitStruct.Alternate = GPIO_AF7_USART2;
 8002b46:	2307      	movs	r3, #7
 8002b48:	627b      	str	r3, [r7, #36]	; 0x24
    HAL_GPIO_Init(GPIOD, &GPIO_InitStruct);
 8002b4a:	f107 0314 	add.w	r3, r7, #20
 8002b4e:	4619      	mov	r1, r3
 8002b50:	4809      	ldr	r0, [pc, #36]	; (8002b78 <HAL_UART_MspInit+0x9c>)
 8002b52:	f001 fd7b 	bl	800464c <HAL_GPIO_Init>

    /* USART2 interrupt Init */
    HAL_NVIC_SetPriority(USART2_IRQn, 0, 0);
 8002b56:	2200      	movs	r2, #0
 8002b58:	2100      	movs	r1, #0
 8002b5a:	2026      	movs	r0, #38	; 0x26
 8002b5c:	f001 f93d 	bl	8003dda <HAL_NVIC_SetPriority>
    HAL_NVIC_EnableIRQ(USART2_IRQn);
 8002b60:	2026      	movs	r0, #38	; 0x26
 8002b62:	f001 f956 	bl	8003e12 <HAL_NVIC_EnableIRQ>
  /* USER CODE BEGIN USART2_MspInit 1 */

  /* USER CODE END USART2_MspInit 1 */
  }

}
 8002b66:	bf00      	nop
 8002b68:	3728      	adds	r7, #40	; 0x28
 8002b6a:	46bd      	mov	sp, r7
 8002b6c:	bd80      	pop	{r7, pc}
 8002b6e:	bf00      	nop
 8002b70:	40004400 	.word	0x40004400
 8002b74:	40023800 	.word	0x40023800
 8002b78:	40020c00 	.word	0x40020c00

08002b7c <NMI_Handler>:
/******************************************************************************/
/**
  * @brief This function handles Non maskable interrupt.
  */
void NMI_Handler(void)
{
 8002b7c:	b480      	push	{r7}
 8002b7e:	af00      	add	r7, sp, #0
  /* USER CODE BEGIN NonMaskableInt_IRQn 0 */

  /* USER CODE END NonMaskableInt_IRQn 0 */
  /* USER CODE BEGIN NonMaskableInt_IRQn 1 */
  while (1)
 8002b80:	e7fe      	b.n	8002b80 <NMI_Handler+0x4>

08002b82 <HardFault_Handler>:

/**
  * @brief This function handles Hard fault interrupt.
  */
void HardFault_Handler(void)
{
 8002b82:	b480      	push	{r7}
 8002b84:	af00      	add	r7, sp, #0
  /* USER CODE BEGIN HardFault_IRQn 0 */

  /* USER CODE END HardFault_IRQn 0 */
  while (1)
 8002b86:	e7fe      	b.n	8002b86 <HardFault_Handler+0x4>

08002b88 <MemManage_Handler>:

/**
  * @brief This function handles Memory management fault.
  */
void MemManage_Handler(void)
{
 8002b88:	b480      	push	{r7}
 8002b8a:	af00      	add	r7, sp, #0
  /* USER CODE BEGIN MemoryManagement_IRQn 0 */

  /* USER CODE END MemoryManagement_IRQn 0 */
  while (1)
 8002b8c:	e7fe      	b.n	8002b8c <MemManage_Handler+0x4>

08002b8e <BusFault_Handler>:

/**
  * @brief This function handles Pre-fetch fault, memory access fault.
  */
void BusFault_Handler(void)
{
 8002b8e:	b480      	push	{r7}
 8002b90:	af00      	add	r7, sp, #0
  /* USER CODE BEGIN BusFault_IRQn 0 */

  /* USER CODE END BusFault_IRQn 0 */
  while (1)
 8002b92:	e7fe      	b.n	8002b92 <BusFault_Handler+0x4>

08002b94 <UsageFault_Handler>:

/**
  * @brief This function handles Undefined instruction or illegal state.
  */
void UsageFault_Handler(void)
{
 8002b94:	b480      	push	{r7}
 8002b96:	af00      	add	r7, sp, #0
  /* USER CODE BEGIN UsageFault_IRQn 0 */

  /* USER CODE END UsageFault_IRQn 0 */
  while (1)
 8002b98:	e7fe      	b.n	8002b98 <UsageFault_Handler+0x4>

08002b9a <SVC_Handler>:

/**
  * @brief This function handles System service call via SWI instruction.
  */
void SVC_Handler(void)
{
 8002b9a:	b480      	push	{r7}
 8002b9c:	af00      	add	r7, sp, #0

  /* USER CODE END SVCall_IRQn 0 */
  /* USER CODE BEGIN SVCall_IRQn 1 */

  /* USER CODE END SVCall_IRQn 1 */
}
 8002b9e:	bf00      	nop
 8002ba0:	46bd      	mov	sp, r7
 8002ba2:	f85d 7b04 	ldr.w	r7, [sp], #4
 8002ba6:	4770      	bx	lr

08002ba8 <DebugMon_Handler>:

/**
  * @brief This function handles Debug monitor.
  */
void DebugMon_Handler(void)
{
 8002ba8:	b480      	push	{r7}
 8002baa:	af00      	add	r7, sp, #0

  /* USER CODE END DebugMonitor_IRQn 0 */
  /* USER CODE BEGIN DebugMonitor_IRQn 1 */

  /* USER CODE END DebugMonitor_IRQn 1 */
}
 8002bac:	bf00      	nop
 8002bae:	46bd      	mov	sp, r7
 8002bb0:	f85d 7b04 	ldr.w	r7, [sp], #4
 8002bb4:	4770      	bx	lr

08002bb6 <PendSV_Handler>:

/**
  * @brief This function handles Pendable request for system service.
  */
void PendSV_Handler(void)
{
 8002bb6:	b480      	push	{r7}
 8002bb8:	af00      	add	r7, sp, #0

  /* USER CODE END PendSV_IRQn 0 */
  /* USER CODE BEGIN PendSV_IRQn 1 */

  /* USER CODE END PendSV_IRQn 1 */
}
 8002bba:	bf00      	nop
 8002bbc:	46bd      	mov	sp, r7
 8002bbe:	f85d 7b04 	ldr.w	r7, [sp], #4
 8002bc2:	4770      	bx	lr

08002bc4 <SysTick_Handler>:

/**
  * @brief This function handles System tick timer.
  */
void SysTick_Handler(void)
{
 8002bc4:	b580      	push	{r7, lr}
 8002bc6:	af00      	add	r7, sp, #0
  /* USER CODE BEGIN SysTick_IRQn 0 */

  /* USER CODE END SysTick_IRQn 0 */
  HAL_IncTick();
 8002bc8:	f000 f980 	bl	8002ecc <HAL_IncTick>
  /* USER CODE BEGIN SysTick_IRQn 1 */

  /* USER CODE END SysTick_IRQn 1 */
}
 8002bcc:	bf00      	nop
 8002bce:	bd80      	pop	{r7, pc}

08002bd0 <DMA1_Stream4_IRQHandler>:

/**
  * @brief This function handles DMA1 stream4 global interrupt.
  */
void DMA1_Stream4_IRQHandler(void)
{
 8002bd0:	b580      	push	{r7, lr}
 8002bd2:	af00      	add	r7, sp, #0
  /* USER CODE BEGIN DMA1_Stream4_IRQn 0 */

  /* USER CODE END DMA1_Stream4_IRQn 0 */
  HAL_DMA_IRQHandler(&hdma_spi2_tx);
 8002bd4:	4802      	ldr	r0, [pc, #8]	; (8002be0 <DMA1_Stream4_IRQHandler+0x10>)
 8002bd6:	f001 facf 	bl	8004178 <HAL_DMA_IRQHandler>
  /* USER CODE BEGIN DMA1_Stream4_IRQn 1 */

  /* USER CODE END DMA1_Stream4_IRQn 1 */
}
 8002bda:	bf00      	nop
 8002bdc:	bd80      	pop	{r7, pc}
 8002bde:	bf00      	nop
 8002be0:	20000248 	.word	0x20000248

08002be4 <USART2_IRQHandler>:

/**
  * @brief This function handles USART2 global interrupt.
  */
void USART2_IRQHandler(void)
{
 8002be4:	b580      	push	{r7, lr}
 8002be6:	af00      	add	r7, sp, #0
  /* USER CODE BEGIN USART2_IRQn 0 */

  /* USER CODE END USART2_IRQn 0 */
  HAL_UART_IRQHandler(&huart2);
 8002be8:	4802      	ldr	r0, [pc, #8]	; (8002bf4 <USART2_IRQHandler+0x10>)
 8002bea:	f005 fbfd 	bl	80083e8 <HAL_UART_IRQHandler>
  /* USER CODE BEGIN USART2_IRQn 1 */

  /* USER CODE END USART2_IRQn 1 */
}
 8002bee:	bf00      	nop
 8002bf0:	bd80      	pop	{r7, pc}
 8002bf2:	bf00      	nop
 8002bf4:	20000338 	.word	0x20000338

08002bf8 <TIM6_DAC_IRQHandler>:

/**
  * @brief This function handles TIM6 global interrupt, DAC1 and DAC2 underrun error interrupts.
  */
void TIM6_DAC_IRQHandler(void)
{
 8002bf8:	b580      	push	{r7, lr}
 8002bfa:	af00      	add	r7, sp, #0
  /* USER CODE BEGIN TIM6_DAC_IRQn 0 */

  /* USER CODE END TIM6_DAC_IRQn 0 */
  HAL_TIM_IRQHandler(&htim6);
 8002bfc:	4803      	ldr	r0, [pc, #12]	; (8002c0c <TIM6_DAC_IRQHandler+0x14>)
 8002bfe:	f005 f895 	bl	8007d2c <HAL_TIM_IRQHandler>
  /* USER CODE BEGIN TIM6_DAC_IRQn 1 */
  tim6_overflow_flag = FLAG_SET;
 8002c02:	4b03      	ldr	r3, [pc, #12]	; (8002c10 <TIM6_DAC_IRQHandler+0x18>)
 8002c04:	2201      	movs	r2, #1
 8002c06:	701a      	strb	r2, [r3, #0]
  /* USER CODE END TIM6_DAC_IRQn 1 */
}
 8002c08:	bf00      	nop
 8002c0a:	bd80      	pop	{r7, pc}
 8002c0c:	200002a8 	.word	0x200002a8
 8002c10:	200003b5 	.word	0x200003b5

08002c14 <TIM7_IRQHandler>:

/**
  * @brief This function handles TIM7 global interrupt.
  */
void TIM7_IRQHandler(void)
{
 8002c14:	b580      	push	{r7, lr}
 8002c16:	af00      	add	r7, sp, #0
  /* USER CODE BEGIN TIM7_IRQn 0 */

  /* USER CODE END TIM7_IRQn 0 */
  HAL_TIM_IRQHandler(&htim7);
 8002c18:	4803      	ldr	r0, [pc, #12]	; (8002c28 <TIM7_IRQHandler+0x14>)
 8002c1a:	f005 f887 	bl	8007d2c <HAL_TIM_IRQHandler>
  /* USER CODE BEGIN TIM7_IRQn 1 */
  tim7_overflow_flag = FLAG_SET;
 8002c1e:	4b03      	ldr	r3, [pc, #12]	; (8002c2c <TIM7_IRQHandler+0x18>)
 8002c20:	2201      	movs	r2, #1
 8002c22:	701a      	strb	r2, [r3, #0]
  /* USER CODE END TIM7_IRQn 1 */
}
 8002c24:	bf00      	nop
 8002c26:	bd80      	pop	{r7, pc}
 8002c28:	200002f0 	.word	0x200002f0
 8002c2c:	200003b6 	.word	0x200003b6

08002c30 <DMA2_Stream3_IRQHandler>:

/**
  * @brief This function handles DMA2 stream3 global interrupt.
  */
void DMA2_Stream3_IRQHandler(void)
{
 8002c30:	b580      	push	{r7, lr}
 8002c32:	af00      	add	r7, sp, #0
  /* USER CODE BEGIN DMA2_Stream3_IRQn 0 */

  /* USER CODE END DMA2_Stream3_IRQn 0 */
  HAL_DMA_IRQHandler(&hdma_spi1_tx);
 8002c34:	4802      	ldr	r0, [pc, #8]	; (8002c40 <DMA2_Stream3_IRQHandler+0x10>)
 8002c36:	f001 fa9f 	bl	8004178 <HAL_DMA_IRQHandler>
  /* USER CODE BEGIN DMA2_Stream3_IRQn 1 */

  /* USER CODE END DMA2_Stream3_IRQn 1 */
}
 8002c3a:	bf00      	nop
 8002c3c:	bd80      	pop	{r7, pc}
 8002c3e:	bf00      	nop
 8002c40:	200001e8 	.word	0x200001e8

08002c44 <CAN2_RX0_IRQHandler>:

/**
  * @brief This function handles CAN2 RX0 interrupts.
  */
void CAN2_RX0_IRQHandler(void)
{
 8002c44:	b580      	push	{r7, lr}
 8002c46:	af00      	add	r7, sp, #0
  /* USER CODE BEGIN CAN2_RX0_IRQn 0 */

  /* USER CODE END CAN2_RX0_IRQn 0 */
  HAL_CAN_IRQHandler(&hcan2);
 8002c48:	4802      	ldr	r0, [pc, #8]	; (8002c54 <CAN2_RX0_IRQHandler+0x10>)
 8002c4a:	f000 fdbb 	bl	80037c4 <HAL_CAN_IRQHandler>
  /* USER CODE BEGIN CAN2_RX0_IRQn 1 */

  /* USER CODE END CAN2_RX0_IRQn 1 */
}
 8002c4e:	bf00      	nop
 8002c50:	bd80      	pop	{r7, pc}
 8002c52:	bf00      	nop
 8002c54:	20000048 	.word	0x20000048

08002c58 <HAL_CAN_RxFifo0MsgPendingCallback>:

/* USER CODE BEGIN 1 */
void HAL_CAN_RxFifo0MsgPendingCallback(CAN_HandleTypeDef *hcan) {
 8002c58:	b580      	push	{r7, lr}
 8002c5a:	b082      	sub	sp, #8
 8002c5c:	af00      	add	r7, sp, #0
 8002c5e:	6078      	str	r0, [r7, #4]
	HAL_CAN_GetRxMessage(hcan, CAN_RX_FIFO0, &CAN_RxHeader, CAN_RxData);
 8002c60:	4b06      	ldr	r3, [pc, #24]	; (8002c7c <HAL_CAN_RxFifo0MsgPendingCallback+0x24>)
 8002c62:	4a07      	ldr	r2, [pc, #28]	; (8002c80 <HAL_CAN_RxFifo0MsgPendingCallback+0x28>)
 8002c64:	2100      	movs	r1, #0
 8002c66:	6878      	ldr	r0, [r7, #4]
 8002c68:	f000 fc64 	bl	8003534 <HAL_CAN_GetRxMessage>
	CAN_RX_Flag = FLAG_SET;
 8002c6c:	4b05      	ldr	r3, [pc, #20]	; (8002c84 <HAL_CAN_RxFifo0MsgPendingCallback+0x2c>)
 8002c6e:	2201      	movs	r2, #1
 8002c70:	701a      	strb	r2, [r3, #0]
}
 8002c72:	bf00      	nop
 8002c74:	3708      	adds	r7, #8
 8002c76:	46bd      	mov	sp, r7
 8002c78:	bd80      	pop	{r7, pc}
 8002c7a:	bf00      	nop
 8002c7c:	200003ac 	.word	0x200003ac
 8002c80:	20000390 	.word	0x20000390
 8002c84:	200003b4 	.word	0x200003b4

08002c88 <HAL_SPI_TxCpltCallback>:


void HAL_SPI_TxCpltCallback(SPI_HandleTypeDef *hspi) {
 8002c88:	b580      	push	{r7, lr}
 8002c8a:	b082      	sub	sp, #8
 8002c8c:	af00      	add	r7, sp, #0
 8002c8e:	6078      	str	r0, [r7, #4]
	// Pull CS pin high to deselect the device
    if (hspi->Instance == SPI1) {
 8002c90:	687b      	ldr	r3, [r7, #4]
 8002c92:	681b      	ldr	r3, [r3, #0]
 8002c94:	4a18      	ldr	r2, [pc, #96]	; (8002cf8 <HAL_SPI_TxCpltCallback+0x70>)
 8002c96:	4293      	cmp	r3, r2
 8002c98:	d108      	bne.n	8002cac <HAL_SPI_TxCpltCallback+0x24>
        // Pull CS pin high for SPI1 to deselect the device
    	HAL_GPIO_WritePin(cs_spi1.GPIOx, cs_spi1.GPIO_Pin, GPIO_PIN_SET);
 8002c9a:	4b18      	ldr	r3, [pc, #96]	; (8002cfc <HAL_SPI_TxCpltCallback+0x74>)
 8002c9c:	681b      	ldr	r3, [r3, #0]
 8002c9e:	4a17      	ldr	r2, [pc, #92]	; (8002cfc <HAL_SPI_TxCpltCallback+0x74>)
 8002ca0:	8891      	ldrh	r1, [r2, #4]
 8002ca2:	2201      	movs	r2, #1
 8002ca4:	4618      	mov	r0, r3
 8002ca6:	f001 fe95 	bl	80049d4 <HAL_GPIO_WritePin>
 8002caa:	e00c      	b.n	8002cc6 <HAL_SPI_TxCpltCallback+0x3e>
    } else if (hspi->Instance == SPI2) {
 8002cac:	687b      	ldr	r3, [r7, #4]
 8002cae:	681b      	ldr	r3, [r3, #0]
 8002cb0:	4a13      	ldr	r2, [pc, #76]	; (8002d00 <HAL_SPI_TxCpltCallback+0x78>)
 8002cb2:	4293      	cmp	r3, r2
 8002cb4:	d107      	bne.n	8002cc6 <HAL_SPI_TxCpltCallback+0x3e>
        // Pull CS pin high for SPI2 to deselect the device
    	HAL_GPIO_WritePin(cs_spi2.GPIOx, cs_spi2.GPIO_Pin, GPIO_PIN_SET);
 8002cb6:	4b13      	ldr	r3, [pc, #76]	; (8002d04 <HAL_SPI_TxCpltCallback+0x7c>)
 8002cb8:	681b      	ldr	r3, [r3, #0]
 8002cba:	4a12      	ldr	r2, [pc, #72]	; (8002d04 <HAL_SPI_TxCpltCallback+0x7c>)
 8002cbc:	8891      	ldrh	r1, [r2, #4]
 8002cbe:	2201      	movs	r2, #1
 8002cc0:	4618      	mov	r0, r3
 8002cc2:	f001 fe87 	bl	80049d4 <HAL_GPIO_WritePin>
    }

    CLEAR_BIT(hspi->Instance->CR2, SPI_CR2_TXDMAEN);
 8002cc6:	687b      	ldr	r3, [r7, #4]
 8002cc8:	681b      	ldr	r3, [r3, #0]
 8002cca:	685a      	ldr	r2, [r3, #4]
 8002ccc:	687b      	ldr	r3, [r7, #4]
 8002cce:	681b      	ldr	r3, [r3, #0]
 8002cd0:	f022 0202 	bic.w	r2, r2, #2
 8002cd4:	605a      	str	r2, [r3, #4]
    clean_data_buffer(PAGE_SIZE, data_buffer_tx[buffer_tracker ^ 0x01]);
 8002cd6:	4b0c      	ldr	r3, [pc, #48]	; (8002d08 <HAL_SPI_TxCpltCallback+0x80>)
 8002cd8:	781b      	ldrb	r3, [r3, #0]
 8002cda:	f083 0301 	eor.w	r3, r3, #1
 8002cde:	b2db      	uxtb	r3, r3
 8002ce0:	021b      	lsls	r3, r3, #8
 8002ce2:	4a0a      	ldr	r2, [pc, #40]	; (8002d0c <HAL_SPI_TxCpltCallback+0x84>)
 8002ce4:	4413      	add	r3, r2
 8002ce6:	4619      	mov	r1, r3
 8002ce8:	f44f 7080 	mov.w	r0, #256	; 0x100
 8002cec:	f7fe fc52 	bl	8001594 <clean_data_buffer>
}
 8002cf0:	bf00      	nop
 8002cf2:	3708      	adds	r7, #8
 8002cf4:	46bd      	mov	sp, r7
 8002cf6:	bd80      	pop	{r7, pc}
 8002cf8:	40013000 	.word	0x40013000
 8002cfc:	200005ec 	.word	0x200005ec
 8002d00:	40003800 	.word	0x40003800
 8002d04:	200005fc 	.word	0x200005fc
 8002d08:	200005b8 	.word	0x200005b8
 8002d0c:	200003b8 	.word	0x200003b8

08002d10 <HAL_UART_RxCpltCallback>:

void HAL_UART_RxCpltCallback(UART_HandleTypeDef *huart) {
 8002d10:	b580      	push	{r7, lr}
 8002d12:	b082      	sub	sp, #8
 8002d14:	af00      	add	r7, sp, #0
 8002d16:	6078      	str	r0, [r7, #4]
	uart2_rec_flag = FLAG_SET;
 8002d18:	4b05      	ldr	r3, [pc, #20]	; (8002d30 <HAL_UART_RxCpltCallback+0x20>)
 8002d1a:	2201      	movs	r2, #1
 8002d1c:	701a      	strb	r2, [r3, #0]
	HAL_UART_Receive_IT(&huart2, UARTRxData, 2);
 8002d1e:	2202      	movs	r2, #2
 8002d20:	4904      	ldr	r1, [pc, #16]	; (8002d34 <HAL_UART_RxCpltCallback+0x24>)
 8002d22:	4805      	ldr	r0, [pc, #20]	; (8002d38 <HAL_UART_RxCpltCallback+0x28>)
 8002d24:	f005 fb3b 	bl	800839e <HAL_UART_Receive_IT>
}
 8002d28:	bf00      	nop
 8002d2a:	3708      	adds	r7, #8
 8002d2c:	46bd      	mov	sp, r7
 8002d2e:	bd80      	pop	{r7, pc}
 8002d30:	2000038a 	.word	0x2000038a
 8002d34:	20000388 	.word	0x20000388
 8002d38:	20000338 	.word	0x20000338

08002d3c <SystemInit>:
  *         configuration.
  * @param  None
  * @retval None
  */
void SystemInit(void)
{
 8002d3c:	b480      	push	{r7}
 8002d3e:	af00      	add	r7, sp, #0
  /* FPU settings ------------------------------------------------------------*/
  #if (__FPU_PRESENT == 1) && (__FPU_USED == 1)
    SCB->CPACR |= ((3UL << 10*2)|(3UL << 11*2));  /* set CP10 and CP11 Full Access */
 8002d40:	4b06      	ldr	r3, [pc, #24]	; (8002d5c <SystemInit+0x20>)
 8002d42:	f8d3 3088 	ldr.w	r3, [r3, #136]	; 0x88
 8002d46:	4a05      	ldr	r2, [pc, #20]	; (8002d5c <SystemInit+0x20>)
 8002d48:	f443 0370 	orr.w	r3, r3, #15728640	; 0xf00000
 8002d4c:	f8c2 3088 	str.w	r3, [r2, #136]	; 0x88

  /* Configure the Vector Table location -------------------------------------*/
#if defined(USER_VECT_TAB_ADDRESS)
  SCB->VTOR = VECT_TAB_BASE_ADDRESS | VECT_TAB_OFFSET; /* Vector Table Relocation in Internal SRAM */
#endif /* USER_VECT_TAB_ADDRESS */
}
 8002d50:	bf00      	nop
 8002d52:	46bd      	mov	sp, r7
 8002d54:	f85d 7b04 	ldr.w	r7, [sp], #4
 8002d58:	4770      	bx	lr
 8002d5a:	bf00      	nop
 8002d5c:	e000ed00 	.word	0xe000ed00

08002d60 <uart_transmit_page>:

#include "uart_transmit.h"
/**
 * Transmit one single page over the UART interface
 */
void uart_transmit_page(UART_HandleTypeDef *huart, uint8_t page[PAGE_SIZE]) {
 8002d60:	b580      	push	{r7, lr}
 8002d62:	b082      	sub	sp, #8
 8002d64:	af00      	add	r7, sp, #0
 8002d66:	6078      	str	r0, [r7, #4]
 8002d68:	6039      	str	r1, [r7, #0]
	HAL_UART_Transmit(huart, page, PAGE_SIZE, HAL_MAX_DELAY);
 8002d6a:	f04f 33ff 	mov.w	r3, #4294967295	; 0xffffffff
 8002d6e:	f44f 7280 	mov.w	r2, #256	; 0x100
 8002d72:	6839      	ldr	r1, [r7, #0]
 8002d74:	6878      	ldr	r0, [r7, #4]
 8002d76:	f005 fa87 	bl	8008288 <HAL_UART_Transmit>
}
 8002d7a:	bf00      	nop
 8002d7c:	3708      	adds	r7, #8
 8002d7e:	46bd      	mov	sp, r7
 8002d80:	bd80      	pop	{r7, pc}

08002d82 <send_uart_string>:

void send_uart_string(UART_HandleTypeDef *huart, const char *str) {
 8002d82:	b580      	push	{r7, lr}
 8002d84:	b082      	sub	sp, #8
 8002d86:	af00      	add	r7, sp, #0
 8002d88:	6078      	str	r0, [r7, #4]
 8002d8a:	6039      	str	r1, [r7, #0]
    HAL_UART_Transmit(huart, (uint8_t *)str, strlen(str), HAL_MAX_DELAY);
 8002d8c:	6838      	ldr	r0, [r7, #0]
 8002d8e:	f7fd fa2d 	bl	80001ec <strlen>
 8002d92:	4603      	mov	r3, r0
 8002d94:	b29a      	uxth	r2, r3
 8002d96:	f04f 33ff 	mov.w	r3, #4294967295	; 0xffffffff
 8002d9a:	6839      	ldr	r1, [r7, #0]
 8002d9c:	6878      	ldr	r0, [r7, #4]
 8002d9e:	f005 fa73 	bl	8008288 <HAL_UART_Transmit>
}
 8002da2:	bf00      	nop
 8002da4:	3708      	adds	r7, #8
 8002da6:	46bd      	mov	sp, r7
 8002da8:	bd80      	pop	{r7, pc}

08002daa <send_uart_hex>:
	// Call the send_uart_string function to send the value to UART
	send_uart_string(huart, value_str);
	send_uart_string(huart, "\r\n");
}

void send_uart_hex(UART_HandleTypeDef *huart, uint8_t value) {
 8002daa:	b580      	push	{r7, lr}
 8002dac:	b084      	sub	sp, #16
 8002dae:	af00      	add	r7, sp, #0
 8002db0:	6078      	str	r0, [r7, #4]
 8002db2:	460b      	mov	r3, r1
 8002db4:	70fb      	strb	r3, [r7, #3]
	uint8_t buffer[1];
	buffer[0] = value;
 8002db6:	78fb      	ldrb	r3, [r7, #3]
 8002db8:	733b      	strb	r3, [r7, #12]
	HAL_UART_Transmit(huart, buffer, 1, HAL_MAX_DELAY);
 8002dba:	f107 010c 	add.w	r1, r7, #12
 8002dbe:	f04f 33ff 	mov.w	r3, #4294967295	; 0xffffffff
 8002dc2:	2201      	movs	r2, #1
 8002dc4:	6878      	ldr	r0, [r7, #4]
 8002dc6:	f005 fa5f 	bl	8008288 <HAL_UART_Transmit>
}
 8002dca:	bf00      	nop
 8002dcc:	3710      	adds	r7, #16
 8002dce:	46bd      	mov	sp, r7
 8002dd0:	bd80      	pop	{r7, pc}
	...

08002dd4 <Reset_Handler>:

    .section  .text.Reset_Handler
  .weak  Reset_Handler
  .type  Reset_Handler, %function
Reset_Handler:  
  ldr   sp, =_estack     /* set stack pointer */
 8002dd4:	f8df d034 	ldr.w	sp, [pc, #52]	; 8002e0c <LoopFillZerobss+0xe>
  
/* Call the clock system initialization function.*/
  bl  SystemInit  
 8002dd8:	f7ff ffb0 	bl	8002d3c <SystemInit>

/* Copy the data segment initializers from flash to SRAM */  
  ldr r0, =_sdata
 8002ddc:	480c      	ldr	r0, [pc, #48]	; (8002e10 <LoopFillZerobss+0x12>)
  ldr r1, =_edata
 8002dde:	490d      	ldr	r1, [pc, #52]	; (8002e14 <LoopFillZerobss+0x16>)
  ldr r2, =_sidata
 8002de0:	4a0d      	ldr	r2, [pc, #52]	; (8002e18 <LoopFillZerobss+0x1a>)
  movs r3, #0
 8002de2:	2300      	movs	r3, #0
  b LoopCopyDataInit
 8002de4:	e002      	b.n	8002dec <LoopCopyDataInit>

08002de6 <CopyDataInit>:

CopyDataInit:
  ldr r4, [r2, r3]
 8002de6:	58d4      	ldr	r4, [r2, r3]
  str r4, [r0, r3]
 8002de8:	50c4      	str	r4, [r0, r3]
  adds r3, r3, #4
 8002dea:	3304      	adds	r3, #4

08002dec <LoopCopyDataInit>:

LoopCopyDataInit:
  adds r4, r0, r3
 8002dec:	18c4      	adds	r4, r0, r3
  cmp r4, r1
 8002dee:	428c      	cmp	r4, r1
  bcc CopyDataInit
 8002df0:	d3f9      	bcc.n	8002de6 <CopyDataInit>
  
/* Zero fill the bss segment. */
  ldr r2, =_sbss
 8002df2:	4a0a      	ldr	r2, [pc, #40]	; (8002e1c <LoopFillZerobss+0x1e>)
  ldr r4, =_ebss
 8002df4:	4c0a      	ldr	r4, [pc, #40]	; (8002e20 <LoopFillZerobss+0x22>)
  movs r3, #0
 8002df6:	2300      	movs	r3, #0
  b LoopFillZerobss
 8002df8:	e001      	b.n	8002dfe <LoopFillZerobss>

08002dfa <FillZerobss>:

FillZerobss:
  str  r3, [r2]
 8002dfa:	6013      	str	r3, [r2, #0]
  adds r2, r2, #4
 8002dfc:	3204      	adds	r2, #4

08002dfe <LoopFillZerobss>:

LoopFillZerobss:
  cmp r2, r4
 8002dfe:	42a2      	cmp	r2, r4
  bcc FillZerobss
 8002e00:	d3fb      	bcc.n	8002dfa <FillZerobss>

/* Call static constructors */
    bl __libc_init_array
 8002e02:	f006 fa4f 	bl	80092a4 <__libc_init_array>
/* Call the application's entry point.*/
  bl  main
 8002e06:	f7fd ff8d 	bl	8000d24 <main>
  bx  lr    
 8002e0a:	4770      	bx	lr
  ldr   sp, =_estack     /* set stack pointer */
 8002e0c:	20030000 	.word	0x20030000
  ldr r0, =_sdata
 8002e10:	20000000 	.word	0x20000000
  ldr r1, =_edata
 8002e14:	20000028 	.word	0x20000028
  ldr r2, =_sidata
 8002e18:	080093cc 	.word	0x080093cc
  ldr r2, =_sbss
 8002e1c:	20000028 	.word	0x20000028
  ldr r4, =_ebss
 8002e20:	20000630 	.word	0x20000630

08002e24 <ADC_IRQHandler>:
 * @retval None       
*/
    .section  .text.Default_Handler,"ax",%progbits
Default_Handler:
Infinite_Loop:
  b  Infinite_Loop
 8002e24:	e7fe      	b.n	8002e24 <ADC_IRQHandler>
	...

08002e28 <HAL_Init>:
  *         need to ensure that the SysTick time base is always set to 1 millisecond
  *         to have correct HAL operation.
  * @retval HAL status
  */
HAL_StatusTypeDef HAL_Init(void)
{
 8002e28:	b580      	push	{r7, lr}
 8002e2a:	af00      	add	r7, sp, #0
  /* Configure Flash prefetch, Instruction cache, Data cache */ 
#if (INSTRUCTION_CACHE_ENABLE != 0U)
  __HAL_FLASH_INSTRUCTION_CACHE_ENABLE();
 8002e2c:	4b0e      	ldr	r3, [pc, #56]	; (8002e68 <HAL_Init+0x40>)
 8002e2e:	681b      	ldr	r3, [r3, #0]
 8002e30:	4a0d      	ldr	r2, [pc, #52]	; (8002e68 <HAL_Init+0x40>)
 8002e32:	f443 7300 	orr.w	r3, r3, #512	; 0x200
 8002e36:	6013      	str	r3, [r2, #0]
#endif /* INSTRUCTION_CACHE_ENABLE */

#if (DATA_CACHE_ENABLE != 0U)
  __HAL_FLASH_DATA_CACHE_ENABLE();
 8002e38:	4b0b      	ldr	r3, [pc, #44]	; (8002e68 <HAL_Init+0x40>)
 8002e3a:	681b      	ldr	r3, [r3, #0]
 8002e3c:	4a0a      	ldr	r2, [pc, #40]	; (8002e68 <HAL_Init+0x40>)
 8002e3e:	f443 6380 	orr.w	r3, r3, #1024	; 0x400
 8002e42:	6013      	str	r3, [r2, #0]
#endif /* DATA_CACHE_ENABLE */

#if (PREFETCH_ENABLE != 0U)
  __HAL_FLASH_PREFETCH_BUFFER_ENABLE();
 8002e44:	4b08      	ldr	r3, [pc, #32]	; (8002e68 <HAL_Init+0x40>)
 8002e46:	681b      	ldr	r3, [r3, #0]
 8002e48:	4a07      	ldr	r2, [pc, #28]	; (8002e68 <HAL_Init+0x40>)
 8002e4a:	f443 7380 	orr.w	r3, r3, #256	; 0x100
 8002e4e:	6013      	str	r3, [r2, #0]
#endif /* PREFETCH_ENABLE */

  /* Set Interrupt Group Priority */
  HAL_NVIC_SetPriorityGrouping(NVIC_PRIORITYGROUP_4);
 8002e50:	2003      	movs	r0, #3
 8002e52:	f000 ffb7 	bl	8003dc4 <HAL_NVIC_SetPriorityGrouping>

  /* Use systick as time base source and configure 1ms tick (default clock after Reset is HSI) */
  HAL_InitTick(TICK_INT_PRIORITY);
 8002e56:	200f      	movs	r0, #15
 8002e58:	f000 f808 	bl	8002e6c <HAL_InitTick>

  /* Init the low level hardware */
  HAL_MspInit();
 8002e5c:	f7ff fbc8 	bl	80025f0 <HAL_MspInit>

  /* Return function status */
  return HAL_OK;
 8002e60:	2300      	movs	r3, #0
}
 8002e62:	4618      	mov	r0, r3
 8002e64:	bd80      	pop	{r7, pc}
 8002e66:	bf00      	nop
 8002e68:	40023c00 	.word	0x40023c00

08002e6c <HAL_InitTick>:
  *       implementation  in user file.
  * @param TickPriority Tick interrupt priority.
  * @retval HAL status
  */
__weak HAL_StatusTypeDef HAL_InitTick(uint32_t TickPriority)
{
 8002e6c:	b580      	push	{r7, lr}
 8002e6e:	b082      	sub	sp, #8
 8002e70:	af00      	add	r7, sp, #0
 8002e72:	6078      	str	r0, [r7, #4]
  /* Configure the SysTick to have interrupt in 1ms time basis*/
  if (HAL_SYSTICK_Config(SystemCoreClock / (1000U / uwTickFreq)) > 0U)
 8002e74:	4b12      	ldr	r3, [pc, #72]	; (8002ec0 <HAL_InitTick+0x54>)
 8002e76:	681a      	ldr	r2, [r3, #0]
 8002e78:	4b12      	ldr	r3, [pc, #72]	; (8002ec4 <HAL_InitTick+0x58>)
 8002e7a:	781b      	ldrb	r3, [r3, #0]
 8002e7c:	4619      	mov	r1, r3
 8002e7e:	f44f 737a 	mov.w	r3, #1000	; 0x3e8
 8002e82:	fbb3 f3f1 	udiv	r3, r3, r1
 8002e86:	fbb2 f3f3 	udiv	r3, r2, r3
 8002e8a:	4618      	mov	r0, r3
 8002e8c:	f000 ffcf 	bl	8003e2e <HAL_SYSTICK_Config>
 8002e90:	4603      	mov	r3, r0
 8002e92:	2b00      	cmp	r3, #0
 8002e94:	d001      	beq.n	8002e9a <HAL_InitTick+0x2e>
  {
    return HAL_ERROR;
 8002e96:	2301      	movs	r3, #1
 8002e98:	e00e      	b.n	8002eb8 <HAL_InitTick+0x4c>
  }

  /* Configure the SysTick IRQ priority */
  if (TickPriority < (1UL << __NVIC_PRIO_BITS))
 8002e9a:	687b      	ldr	r3, [r7, #4]
 8002e9c:	2b0f      	cmp	r3, #15
 8002e9e:	d80a      	bhi.n	8002eb6 <HAL_InitTick+0x4a>
  {
    HAL_NVIC_SetPriority(SysTick_IRQn, TickPriority, 0U);
 8002ea0:	2200      	movs	r2, #0
 8002ea2:	6879      	ldr	r1, [r7, #4]
 8002ea4:	f04f 30ff 	mov.w	r0, #4294967295	; 0xffffffff
 8002ea8:	f000 ff97 	bl	8003dda <HAL_NVIC_SetPriority>
    uwTickPrio = TickPriority;
 8002eac:	4a06      	ldr	r2, [pc, #24]	; (8002ec8 <HAL_InitTick+0x5c>)
 8002eae:	687b      	ldr	r3, [r7, #4]
 8002eb0:	6013      	str	r3, [r2, #0]
  {
    return HAL_ERROR;
  }

  /* Return function status */
  return HAL_OK;
 8002eb2:	2300      	movs	r3, #0
 8002eb4:	e000      	b.n	8002eb8 <HAL_InitTick+0x4c>
    return HAL_ERROR;
 8002eb6:	2301      	movs	r3, #1
}
 8002eb8:	4618      	mov	r0, r3
 8002eba:	3708      	adds	r7, #8
 8002ebc:	46bd      	mov	sp, r7
 8002ebe:	bd80      	pop	{r7, pc}
 8002ec0:	2000001c 	.word	0x2000001c
 8002ec4:	20000024 	.word	0x20000024
 8002ec8:	20000020 	.word	0x20000020

08002ecc <HAL_IncTick>:
 * @note This function is declared as __weak to be overwritten in case of other 
  *      implementations in user file.
  * @retval None
  */
__weak void HAL_IncTick(void)
{
 8002ecc:	b480      	push	{r7}
 8002ece:	af00      	add	r7, sp, #0
  uwTick += uwTickFreq;
 8002ed0:	4b06      	ldr	r3, [pc, #24]	; (8002eec <HAL_IncTick+0x20>)
 8002ed2:	781b      	ldrb	r3, [r3, #0]
 8002ed4:	461a      	mov	r2, r3
 8002ed6:	4b06      	ldr	r3, [pc, #24]	; (8002ef0 <HAL_IncTick+0x24>)
 8002ed8:	681b      	ldr	r3, [r3, #0]
 8002eda:	4413      	add	r3, r2
 8002edc:	4a04      	ldr	r2, [pc, #16]	; (8002ef0 <HAL_IncTick+0x24>)
 8002ede:	6013      	str	r3, [r2, #0]
}
 8002ee0:	bf00      	nop
 8002ee2:	46bd      	mov	sp, r7
 8002ee4:	f85d 7b04 	ldr.w	r7, [sp], #4
 8002ee8:	4770      	bx	lr
 8002eea:	bf00      	nop
 8002eec:	20000024 	.word	0x20000024
 8002ef0:	2000062c 	.word	0x2000062c

08002ef4 <HAL_GetTick>:
  * @note This function is declared as __weak to be overwritten in case of other 
  *       implementations in user file.
  * @retval tick value
  */
__weak uint32_t HAL_GetTick(void)
{
 8002ef4:	b480      	push	{r7}
 8002ef6:	af00      	add	r7, sp, #0
  return uwTick;
 8002ef8:	4b03      	ldr	r3, [pc, #12]	; (8002f08 <HAL_GetTick+0x14>)
 8002efa:	681b      	ldr	r3, [r3, #0]
}
 8002efc:	4618      	mov	r0, r3
 8002efe:	46bd      	mov	sp, r7
 8002f00:	f85d 7b04 	ldr.w	r7, [sp], #4
 8002f04:	4770      	bx	lr
 8002f06:	bf00      	nop
 8002f08:	2000062c 	.word	0x2000062c

08002f0c <HAL_Delay>:
  *       implementations in user file.
  * @param Delay specifies the delay time length, in milliseconds.
  * @retval None
  */
__weak void HAL_Delay(uint32_t Delay)
{
 8002f0c:	b580      	push	{r7, lr}
 8002f0e:	b084      	sub	sp, #16
 8002f10:	af00      	add	r7, sp, #0
 8002f12:	6078      	str	r0, [r7, #4]
  uint32_t tickstart = HAL_GetTick();
 8002f14:	f7ff ffee 	bl	8002ef4 <HAL_GetTick>
 8002f18:	60b8      	str	r0, [r7, #8]
  uint32_t wait = Delay;
 8002f1a:	687b      	ldr	r3, [r7, #4]
 8002f1c:	60fb      	str	r3, [r7, #12]

  /* Add a freq to guarantee minimum wait */
  if (wait < HAL_MAX_DELAY)
 8002f1e:	68fb      	ldr	r3, [r7, #12]
 8002f20:	f1b3 3fff 	cmp.w	r3, #4294967295	; 0xffffffff
 8002f24:	d005      	beq.n	8002f32 <HAL_Delay+0x26>
  {
    wait += (uint32_t)(uwTickFreq);
 8002f26:	4b0a      	ldr	r3, [pc, #40]	; (8002f50 <HAL_Delay+0x44>)
 8002f28:	781b      	ldrb	r3, [r3, #0]
 8002f2a:	461a      	mov	r2, r3
 8002f2c:	68fb      	ldr	r3, [r7, #12]
 8002f2e:	4413      	add	r3, r2
 8002f30:	60fb      	str	r3, [r7, #12]
  }

  while((HAL_GetTick() - tickstart) < wait)
 8002f32:	bf00      	nop
 8002f34:	f7ff ffde 	bl	8002ef4 <HAL_GetTick>
 8002f38:	4602      	mov	r2, r0
 8002f3a:	68bb      	ldr	r3, [r7, #8]
 8002f3c:	1ad3      	subs	r3, r2, r3
 8002f3e:	68fa      	ldr	r2, [r7, #12]
 8002f40:	429a      	cmp	r2, r3
 8002f42:	d8f7      	bhi.n	8002f34 <HAL_Delay+0x28>
  {
  }
}
 8002f44:	bf00      	nop
 8002f46:	bf00      	nop
 8002f48:	3710      	adds	r7, #16
 8002f4a:	46bd      	mov	sp, r7
 8002f4c:	bd80      	pop	{r7, pc}
 8002f4e:	bf00      	nop
 8002f50:	20000024 	.word	0x20000024

08002f54 <HAL_CAN_Init>:
  * @param  hcan pointer to a CAN_HandleTypeDef structure that contains
  *         the configuration information for the specified CAN.
  * @retval HAL status
  */
HAL_StatusTypeDef HAL_CAN_Init(CAN_HandleTypeDef *hcan)
{
 8002f54:	b580      	push	{r7, lr}
 8002f56:	b084      	sub	sp, #16
 8002f58:	af00      	add	r7, sp, #0
 8002f5a:	6078      	str	r0, [r7, #4]
  uint32_t tickstart;

  /* Check CAN handle */
  if (hcan == NULL)
 8002f5c:	687b      	ldr	r3, [r7, #4]
 8002f5e:	2b00      	cmp	r3, #0
 8002f60:	d101      	bne.n	8002f66 <HAL_CAN_Init+0x12>
  {
    return HAL_ERROR;
 8002f62:	2301      	movs	r3, #1
 8002f64:	e0ed      	b.n	8003142 <HAL_CAN_Init+0x1ee>
    /* Init the low level hardware: CLOCK, NVIC */
    hcan->MspInitCallback(hcan);
  }

#else
  if (hcan->State == HAL_CAN_STATE_RESET)
 8002f66:	687b      	ldr	r3, [r7, #4]
 8002f68:	f893 3020 	ldrb.w	r3, [r3, #32]
 8002f6c:	b2db      	uxtb	r3, r3
 8002f6e:	2b00      	cmp	r3, #0
 8002f70:	d102      	bne.n	8002f78 <HAL_CAN_Init+0x24>
  {
    /* Init the low level hardware: CLOCK, NVIC */
    HAL_CAN_MspInit(hcan);
 8002f72:	6878      	ldr	r0, [r7, #4]
 8002f74:	f7ff fb64 	bl	8002640 <HAL_CAN_MspInit>
  }
#endif /* USE_HAL_CAN_REGISTER_CALLBACKS */

  /* Request initialisation */
  SET_BIT(hcan->Instance->MCR, CAN_MCR_INRQ);
 8002f78:	687b      	ldr	r3, [r7, #4]
 8002f7a:	681b      	ldr	r3, [r3, #0]
 8002f7c:	681a      	ldr	r2, [r3, #0]
 8002f7e:	687b      	ldr	r3, [r7, #4]
 8002f80:	681b      	ldr	r3, [r3, #0]
 8002f82:	f042 0201 	orr.w	r2, r2, #1
 8002f86:	601a      	str	r2, [r3, #0]

  /* Get tick */
  tickstart = HAL_GetTick();
 8002f88:	f7ff ffb4 	bl	8002ef4 <HAL_GetTick>
 8002f8c:	60f8      	str	r0, [r7, #12]

  /* Wait initialisation acknowledge */
  while ((hcan->Instance->MSR & CAN_MSR_INAK) == 0U)
 8002f8e:	e012      	b.n	8002fb6 <HAL_CAN_Init+0x62>
  {
    if ((HAL_GetTick() - tickstart) > CAN_TIMEOUT_VALUE)
 8002f90:	f7ff ffb0 	bl	8002ef4 <HAL_GetTick>
 8002f94:	4602      	mov	r2, r0
 8002f96:	68fb      	ldr	r3, [r7, #12]
 8002f98:	1ad3      	subs	r3, r2, r3
 8002f9a:	2b0a      	cmp	r3, #10
 8002f9c:	d90b      	bls.n	8002fb6 <HAL_CAN_Init+0x62>
    {
      /* Update error code */
      hcan->ErrorCode |= HAL_CAN_ERROR_TIMEOUT;
 8002f9e:	687b      	ldr	r3, [r7, #4]
 8002fa0:	6a5b      	ldr	r3, [r3, #36]	; 0x24
 8002fa2:	f443 3200 	orr.w	r2, r3, #131072	; 0x20000
 8002fa6:	687b      	ldr	r3, [r7, #4]
 8002fa8:	625a      	str	r2, [r3, #36]	; 0x24

      /* Change CAN state */
      hcan->State = HAL_CAN_STATE_ERROR;
 8002faa:	687b      	ldr	r3, [r7, #4]
 8002fac:	2205      	movs	r2, #5
 8002fae:	f883 2020 	strb.w	r2, [r3, #32]

      return HAL_ERROR;
 8002fb2:	2301      	movs	r3, #1
 8002fb4:	e0c5      	b.n	8003142 <HAL_CAN_Init+0x1ee>
  while ((hcan->Instance->MSR & CAN_MSR_INAK) == 0U)
 8002fb6:	687b      	ldr	r3, [r7, #4]
 8002fb8:	681b      	ldr	r3, [r3, #0]
 8002fba:	685b      	ldr	r3, [r3, #4]
 8002fbc:	f003 0301 	and.w	r3, r3, #1
 8002fc0:	2b00      	cmp	r3, #0
 8002fc2:	d0e5      	beq.n	8002f90 <HAL_CAN_Init+0x3c>
    }
  }

  /* Exit from sleep mode */
  CLEAR_BIT(hcan->Instance->MCR, CAN_MCR_SLEEP);
 8002fc4:	687b      	ldr	r3, [r7, #4]
 8002fc6:	681b      	ldr	r3, [r3, #0]
 8002fc8:	681a      	ldr	r2, [r3, #0]
 8002fca:	687b      	ldr	r3, [r7, #4]
 8002fcc:	681b      	ldr	r3, [r3, #0]
 8002fce:	f022 0202 	bic.w	r2, r2, #2
 8002fd2:	601a      	str	r2, [r3, #0]

  /* Get tick */
  tickstart = HAL_GetTick();
 8002fd4:	f7ff ff8e 	bl	8002ef4 <HAL_GetTick>
 8002fd8:	60f8      	str	r0, [r7, #12]

  /* Check Sleep mode leave acknowledge */
  while ((hcan->Instance->MSR & CAN_MSR_SLAK) != 0U)
 8002fda:	e012      	b.n	8003002 <HAL_CAN_Init+0xae>
  {
    if ((HAL_GetTick() - tickstart) > CAN_TIMEOUT_VALUE)
 8002fdc:	f7ff ff8a 	bl	8002ef4 <HAL_GetTick>
 8002fe0:	4602      	mov	r2, r0
 8002fe2:	68fb      	ldr	r3, [r7, #12]
 8002fe4:	1ad3      	subs	r3, r2, r3
 8002fe6:	2b0a      	cmp	r3, #10
 8002fe8:	d90b      	bls.n	8003002 <HAL_CAN_Init+0xae>
    {
      /* Update error code */
      hcan->ErrorCode |= HAL_CAN_ERROR_TIMEOUT;
 8002fea:	687b      	ldr	r3, [r7, #4]
 8002fec:	6a5b      	ldr	r3, [r3, #36]	; 0x24
 8002fee:	f443 3200 	orr.w	r2, r3, #131072	; 0x20000
 8002ff2:	687b      	ldr	r3, [r7, #4]
 8002ff4:	625a      	str	r2, [r3, #36]	; 0x24

      /* Change CAN state */
      hcan->State = HAL_CAN_STATE_ERROR;
 8002ff6:	687b      	ldr	r3, [r7, #4]
 8002ff8:	2205      	movs	r2, #5
 8002ffa:	f883 2020 	strb.w	r2, [r3, #32]

      return HAL_ERROR;
 8002ffe:	2301      	movs	r3, #1
 8003000:	e09f      	b.n	8003142 <HAL_CAN_Init+0x1ee>
  while ((hcan->Instance->MSR & CAN_MSR_SLAK) != 0U)
 8003002:	687b      	ldr	r3, [r7, #4]
 8003004:	681b      	ldr	r3, [r3, #0]
 8003006:	685b      	ldr	r3, [r3, #4]
 8003008:	f003 0302 	and.w	r3, r3, #2
 800300c:	2b00      	cmp	r3, #0
 800300e:	d1e5      	bne.n	8002fdc <HAL_CAN_Init+0x88>
    }
  }

  /* Set the time triggered communication mode */
  if (hcan->Init.TimeTriggeredMode == ENABLE)
 8003010:	687b      	ldr	r3, [r7, #4]
 8003012:	7e1b      	ldrb	r3, [r3, #24]
 8003014:	2b01      	cmp	r3, #1
 8003016:	d108      	bne.n	800302a <HAL_CAN_Init+0xd6>
  {
    SET_BIT(hcan->Instance->MCR, CAN_MCR_TTCM);
 8003018:	687b      	ldr	r3, [r7, #4]
 800301a:	681b      	ldr	r3, [r3, #0]
 800301c:	681a      	ldr	r2, [r3, #0]
 800301e:	687b      	ldr	r3, [r7, #4]
 8003020:	681b      	ldr	r3, [r3, #0]
 8003022:	f042 0280 	orr.w	r2, r2, #128	; 0x80
 8003026:	601a      	str	r2, [r3, #0]
 8003028:	e007      	b.n	800303a <HAL_CAN_Init+0xe6>
  }
  else
  {
    CLEAR_BIT(hcan->Instance->MCR, CAN_MCR_TTCM);
 800302a:	687b      	ldr	r3, [r7, #4]
 800302c:	681b      	ldr	r3, [r3, #0]
 800302e:	681a      	ldr	r2, [r3, #0]
 8003030:	687b      	ldr	r3, [r7, #4]
 8003032:	681b      	ldr	r3, [r3, #0]
 8003034:	f022 0280 	bic.w	r2, r2, #128	; 0x80
 8003038:	601a      	str	r2, [r3, #0]
  }

  /* Set the automatic bus-off management */
  if (hcan->Init.AutoBusOff == ENABLE)
 800303a:	687b      	ldr	r3, [r7, #4]
 800303c:	7e5b      	ldrb	r3, [r3, #25]
 800303e:	2b01      	cmp	r3, #1
 8003040:	d108      	bne.n	8003054 <HAL_CAN_Init+0x100>
  {
    SET_BIT(hcan->Instance->MCR, CAN_MCR_ABOM);
 8003042:	687b      	ldr	r3, [r7, #4]
 8003044:	681b      	ldr	r3, [r3, #0]
 8003046:	681a      	ldr	r2, [r3, #0]
 8003048:	687b      	ldr	r3, [r7, #4]
 800304a:	681b      	ldr	r3, [r3, #0]
 800304c:	f042 0240 	orr.w	r2, r2, #64	; 0x40
 8003050:	601a      	str	r2, [r3, #0]
 8003052:	e007      	b.n	8003064 <HAL_CAN_Init+0x110>
  }
  else
  {
    CLEAR_BIT(hcan->Instance->MCR, CAN_MCR_ABOM);
 8003054:	687b      	ldr	r3, [r7, #4]
 8003056:	681b      	ldr	r3, [r3, #0]
 8003058:	681a      	ldr	r2, [r3, #0]
 800305a:	687b      	ldr	r3, [r7, #4]
 800305c:	681b      	ldr	r3, [r3, #0]
 800305e:	f022 0240 	bic.w	r2, r2, #64	; 0x40
 8003062:	601a      	str	r2, [r3, #0]
  }

  /* Set the automatic wake-up mode */
  if (hcan->Init.AutoWakeUp == ENABLE)
 8003064:	687b      	ldr	r3, [r7, #4]
 8003066:	7e9b      	ldrb	r3, [r3, #26]
 8003068:	2b01      	cmp	r3, #1
 800306a:	d108      	bne.n	800307e <HAL_CAN_Init+0x12a>
  {
    SET_BIT(hcan->Instance->MCR, CAN_MCR_AWUM);
 800306c:	687b      	ldr	r3, [r7, #4]
 800306e:	681b      	ldr	r3, [r3, #0]
 8003070:	681a      	ldr	r2, [r3, #0]
 8003072:	687b      	ldr	r3, [r7, #4]
 8003074:	681b      	ldr	r3, [r3, #0]
 8003076:	f042 0220 	orr.w	r2, r2, #32
 800307a:	601a      	str	r2, [r3, #0]
 800307c:	e007      	b.n	800308e <HAL_CAN_Init+0x13a>
  }
  else
  {
    CLEAR_BIT(hcan->Instance->MCR, CAN_MCR_AWUM);
 800307e:	687b      	ldr	r3, [r7, #4]
 8003080:	681b      	ldr	r3, [r3, #0]
 8003082:	681a      	ldr	r2, [r3, #0]
 8003084:	687b      	ldr	r3, [r7, #4]
 8003086:	681b      	ldr	r3, [r3, #0]
 8003088:	f022 0220 	bic.w	r2, r2, #32
 800308c:	601a      	str	r2, [r3, #0]
  }

  /* Set the automatic retransmission */
  if (hcan->Init.AutoRetransmission == ENABLE)
 800308e:	687b      	ldr	r3, [r7, #4]
 8003090:	7edb      	ldrb	r3, [r3, #27]
 8003092:	2b01      	cmp	r3, #1
 8003094:	d108      	bne.n	80030a8 <HAL_CAN_Init+0x154>
  {
    CLEAR_BIT(hcan->Instance->MCR, CAN_MCR_NART);
 8003096:	687b      	ldr	r3, [r7, #4]
 8003098:	681b      	ldr	r3, [r3, #0]
 800309a:	681a      	ldr	r2, [r3, #0]
 800309c:	687b      	ldr	r3, [r7, #4]
 800309e:	681b      	ldr	r3, [r3, #0]
 80030a0:	f022 0210 	bic.w	r2, r2, #16
 80030a4:	601a      	str	r2, [r3, #0]
 80030a6:	e007      	b.n	80030b8 <HAL_CAN_Init+0x164>
  }
  else
  {
    SET_BIT(hcan->Instance->MCR, CAN_MCR_NART);
 80030a8:	687b      	ldr	r3, [r7, #4]
 80030aa:	681b      	ldr	r3, [r3, #0]
 80030ac:	681a      	ldr	r2, [r3, #0]
 80030ae:	687b      	ldr	r3, [r7, #4]
 80030b0:	681b      	ldr	r3, [r3, #0]
 80030b2:	f042 0210 	orr.w	r2, r2, #16
 80030b6:	601a      	str	r2, [r3, #0]
  }

  /* Set the receive FIFO locked mode */
  if (hcan->Init.ReceiveFifoLocked == ENABLE)
 80030b8:	687b      	ldr	r3, [r7, #4]
 80030ba:	7f1b      	ldrb	r3, [r3, #28]
 80030bc:	2b01      	cmp	r3, #1
 80030be:	d108      	bne.n	80030d2 <HAL_CAN_Init+0x17e>
  {
    SET_BIT(hcan->Instance->MCR, CAN_MCR_RFLM);
 80030c0:	687b      	ldr	r3, [r7, #4]
 80030c2:	681b      	ldr	r3, [r3, #0]
 80030c4:	681a      	ldr	r2, [r3, #0]
 80030c6:	687b      	ldr	r3, [r7, #4]
 80030c8:	681b      	ldr	r3, [r3, #0]
 80030ca:	f042 0208 	orr.w	r2, r2, #8
 80030ce:	601a      	str	r2, [r3, #0]
 80030d0:	e007      	b.n	80030e2 <HAL_CAN_Init+0x18e>
  }
  else
  {
    CLEAR_BIT(hcan->Instance->MCR, CAN_MCR_RFLM);
 80030d2:	687b      	ldr	r3, [r7, #4]
 80030d4:	681b      	ldr	r3, [r3, #0]
 80030d6:	681a      	ldr	r2, [r3, #0]
 80030d8:	687b      	ldr	r3, [r7, #4]
 80030da:	681b      	ldr	r3, [r3, #0]
 80030dc:	f022 0208 	bic.w	r2, r2, #8
 80030e0:	601a      	str	r2, [r3, #0]
  }

  /* Set the transmit FIFO priority */
  if (hcan->Init.TransmitFifoPriority == ENABLE)
 80030e2:	687b      	ldr	r3, [r7, #4]
 80030e4:	7f5b      	ldrb	r3, [r3, #29]
 80030e6:	2b01      	cmp	r3, #1
 80030e8:	d108      	bne.n	80030fc <HAL_CAN_Init+0x1a8>
  {
    SET_BIT(hcan->Instance->MCR, CAN_MCR_TXFP);
 80030ea:	687b      	ldr	r3, [r7, #4]
 80030ec:	681b      	ldr	r3, [r3, #0]
 80030ee:	681a      	ldr	r2, [r3, #0]
 80030f0:	687b      	ldr	r3, [r7, #4]
 80030f2:	681b      	ldr	r3, [r3, #0]
 80030f4:	f042 0204 	orr.w	r2, r2, #4
 80030f8:	601a      	str	r2, [r3, #0]
 80030fa:	e007      	b.n	800310c <HAL_CAN_Init+0x1b8>
  }
  else
  {
    CLEAR_BIT(hcan->Instance->MCR, CAN_MCR_TXFP);
 80030fc:	687b      	ldr	r3, [r7, #4]
 80030fe:	681b      	ldr	r3, [r3, #0]
 8003100:	681a      	ldr	r2, [r3, #0]
 8003102:	687b      	ldr	r3, [r7, #4]
 8003104:	681b      	ldr	r3, [r3, #0]
 8003106:	f022 0204 	bic.w	r2, r2, #4
 800310a:	601a      	str	r2, [r3, #0]
  }

  /* Set the bit timing register */
  WRITE_REG(hcan->Instance->BTR, (uint32_t)(hcan->Init.Mode           |
 800310c:	687b      	ldr	r3, [r7, #4]
 800310e:	689a      	ldr	r2, [r3, #8]
 8003110:	687b      	ldr	r3, [r7, #4]
 8003112:	68db      	ldr	r3, [r3, #12]
 8003114:	431a      	orrs	r2, r3
 8003116:	687b      	ldr	r3, [r7, #4]
 8003118:	691b      	ldr	r3, [r3, #16]
 800311a:	431a      	orrs	r2, r3
 800311c:	687b      	ldr	r3, [r7, #4]
 800311e:	695b      	ldr	r3, [r3, #20]
 8003120:	ea42 0103 	orr.w	r1, r2, r3
 8003124:	687b      	ldr	r3, [r7, #4]
 8003126:	685b      	ldr	r3, [r3, #4]
 8003128:	1e5a      	subs	r2, r3, #1
 800312a:	687b      	ldr	r3, [r7, #4]
 800312c:	681b      	ldr	r3, [r3, #0]
 800312e:	430a      	orrs	r2, r1
 8003130:	61da      	str	r2, [r3, #28]
                                            hcan->Init.TimeSeg1       |
                                            hcan->Init.TimeSeg2       |
                                            (hcan->Init.Prescaler - 1U)));

  /* Initialize the error code */
  hcan->ErrorCode = HAL_CAN_ERROR_NONE;
 8003132:	687b      	ldr	r3, [r7, #4]
 8003134:	2200      	movs	r2, #0
 8003136:	625a      	str	r2, [r3, #36]	; 0x24

  /* Initialize the CAN state */
  hcan->State = HAL_CAN_STATE_READY;
 8003138:	687b      	ldr	r3, [r7, #4]
 800313a:	2201      	movs	r2, #1
 800313c:	f883 2020 	strb.w	r2, [r3, #32]

  /* Return function status */
  return HAL_OK;
 8003140:	2300      	movs	r3, #0
}
 8003142:	4618      	mov	r0, r3
 8003144:	3710      	adds	r7, #16
 8003146:	46bd      	mov	sp, r7
 8003148:	bd80      	pop	{r7, pc}
	...

0800314c <HAL_CAN_ConfigFilter>:
  * @param  sFilterConfig pointer to a CAN_FilterTypeDef structure that
  *         contains the filter configuration information.
  * @retval None
  */
HAL_StatusTypeDef HAL_CAN_ConfigFilter(CAN_HandleTypeDef *hcan, const CAN_FilterTypeDef *sFilterConfig)
{
 800314c:	b480      	push	{r7}
 800314e:	b087      	sub	sp, #28
 8003150:	af00      	add	r7, sp, #0
 8003152:	6078      	str	r0, [r7, #4]
 8003154:	6039      	str	r1, [r7, #0]
  uint32_t filternbrbitpos;
  CAN_TypeDef *can_ip = hcan->Instance;
 8003156:	687b      	ldr	r3, [r7, #4]
 8003158:	681b      	ldr	r3, [r3, #0]
 800315a:	617b      	str	r3, [r7, #20]
  HAL_CAN_StateTypeDef state = hcan->State;
 800315c:	687b      	ldr	r3, [r7, #4]
 800315e:	f893 3020 	ldrb.w	r3, [r3, #32]
 8003162:	74fb      	strb	r3, [r7, #19]

  if ((state == HAL_CAN_STATE_READY) ||
 8003164:	7cfb      	ldrb	r3, [r7, #19]
 8003166:	2b01      	cmp	r3, #1
 8003168:	d003      	beq.n	8003172 <HAL_CAN_ConfigFilter+0x26>
 800316a:	7cfb      	ldrb	r3, [r7, #19]
 800316c:	2b02      	cmp	r3, #2
 800316e:	f040 80be 	bne.w	80032ee <HAL_CAN_ConfigFilter+0x1a2>
      assert_param(IS_CAN_FILTER_BANK_DUAL(sFilterConfig->SlaveStartFilterBank));
    }
#elif defined(CAN2)
    /* CAN1 and CAN2 are dual instances with 28 common filters banks */
    /* Select master instance to access the filter banks */
    can_ip = CAN1;
 8003172:	4b65      	ldr	r3, [pc, #404]	; (8003308 <HAL_CAN_ConfigFilter+0x1bc>)
 8003174:	617b      	str	r3, [r7, #20]
    /* Check the parameters */
    assert_param(IS_CAN_FILTER_BANK_SINGLE(sFilterConfig->FilterBank));
#endif /* CAN3 */

    /* Initialisation mode for the filter */
    SET_BIT(can_ip->FMR, CAN_FMR_FINIT);
 8003176:	697b      	ldr	r3, [r7, #20]
 8003178:	f8d3 3200 	ldr.w	r3, [r3, #512]	; 0x200
 800317c:	f043 0201 	orr.w	r2, r3, #1
 8003180:	697b      	ldr	r3, [r7, #20]
 8003182:	f8c3 2200 	str.w	r2, [r3, #512]	; 0x200
      SET_BIT(can_ip->FMR, sFilterConfig->SlaveStartFilterBank << CAN_FMR_CAN2SB_Pos);
    }

#elif defined(CAN2)
    /* Select the start filter number of CAN2 slave instance */
    CLEAR_BIT(can_ip->FMR, CAN_FMR_CAN2SB);
 8003186:	697b      	ldr	r3, [r7, #20]
 8003188:	f8d3 3200 	ldr.w	r3, [r3, #512]	; 0x200
 800318c:	f423 527c 	bic.w	r2, r3, #16128	; 0x3f00
 8003190:	697b      	ldr	r3, [r7, #20]
 8003192:	f8c3 2200 	str.w	r2, [r3, #512]	; 0x200
    SET_BIT(can_ip->FMR, sFilterConfig->SlaveStartFilterBank << CAN_FMR_CAN2SB_Pos);
 8003196:	697b      	ldr	r3, [r7, #20]
 8003198:	f8d3 2200 	ldr.w	r2, [r3, #512]	; 0x200
 800319c:	683b      	ldr	r3, [r7, #0]
 800319e:	6a5b      	ldr	r3, [r3, #36]	; 0x24
 80031a0:	021b      	lsls	r3, r3, #8
 80031a2:	431a      	orrs	r2, r3
 80031a4:	697b      	ldr	r3, [r7, #20]
 80031a6:	f8c3 2200 	str.w	r2, [r3, #512]	; 0x200

#endif /* CAN3 */
    /* Convert filter number into bit position */
    filternbrbitpos = (uint32_t)1 << (sFilterConfig->FilterBank & 0x1FU);
 80031aa:	683b      	ldr	r3, [r7, #0]
 80031ac:	695b      	ldr	r3, [r3, #20]
 80031ae:	f003 031f 	and.w	r3, r3, #31
 80031b2:	2201      	movs	r2, #1
 80031b4:	fa02 f303 	lsl.w	r3, r2, r3
 80031b8:	60fb      	str	r3, [r7, #12]

    /* Filter Deactivation */
    CLEAR_BIT(can_ip->FA1R, filternbrbitpos);
 80031ba:	697b      	ldr	r3, [r7, #20]
 80031bc:	f8d3 221c 	ldr.w	r2, [r3, #540]	; 0x21c
 80031c0:	68fb      	ldr	r3, [r7, #12]
 80031c2:	43db      	mvns	r3, r3
 80031c4:	401a      	ands	r2, r3
 80031c6:	697b      	ldr	r3, [r7, #20]
 80031c8:	f8c3 221c 	str.w	r2, [r3, #540]	; 0x21c

    /* Filter Scale */
    if (sFilterConfig->FilterScale == CAN_FILTERSCALE_16BIT)
 80031cc:	683b      	ldr	r3, [r7, #0]
 80031ce:	69db      	ldr	r3, [r3, #28]
 80031d0:	2b00      	cmp	r3, #0
 80031d2:	d123      	bne.n	800321c <HAL_CAN_ConfigFilter+0xd0>
    {
      /* 16-bit scale for the filter */
      CLEAR_BIT(can_ip->FS1R, filternbrbitpos);
 80031d4:	697b      	ldr	r3, [r7, #20]
 80031d6:	f8d3 220c 	ldr.w	r2, [r3, #524]	; 0x20c
 80031da:	68fb      	ldr	r3, [r7, #12]
 80031dc:	43db      	mvns	r3, r3
 80031de:	401a      	ands	r2, r3
 80031e0:	697b      	ldr	r3, [r7, #20]
 80031e2:	f8c3 220c 	str.w	r2, [r3, #524]	; 0x20c

      /* First 16-bit identifier and First 16-bit mask */
      /* Or First 16-bit identifier and Second 16-bit identifier */
      can_ip->sFilterRegister[sFilterConfig->FilterBank].FR1 =
        ((0x0000FFFFU & (uint32_t)sFilterConfig->FilterMaskIdLow) << 16U) |
 80031e6:	683b      	ldr	r3, [r7, #0]
 80031e8:	68db      	ldr	r3, [r3, #12]
 80031ea:	0419      	lsls	r1, r3, #16
        (0x0000FFFFU & (uint32_t)sFilterConfig->FilterIdLow);
 80031ec:	683b      	ldr	r3, [r7, #0]
 80031ee:	685b      	ldr	r3, [r3, #4]
 80031f0:	b29b      	uxth	r3, r3
      can_ip->sFilterRegister[sFilterConfig->FilterBank].FR1 =
 80031f2:	683a      	ldr	r2, [r7, #0]
 80031f4:	6952      	ldr	r2, [r2, #20]
        ((0x0000FFFFU & (uint32_t)sFilterConfig->FilterMaskIdLow) << 16U) |
 80031f6:	4319      	orrs	r1, r3
      can_ip->sFilterRegister[sFilterConfig->FilterBank].FR1 =
 80031f8:	697b      	ldr	r3, [r7, #20]
 80031fa:	3248      	adds	r2, #72	; 0x48
 80031fc:	f843 1032 	str.w	r1, [r3, r2, lsl #3]

      /* Second 16-bit identifier and Second 16-bit mask */
      /* Or Third 16-bit identifier and Fourth 16-bit identifier */
      can_ip->sFilterRegister[sFilterConfig->FilterBank].FR2 =
        ((0x0000FFFFU & (uint32_t)sFilterConfig->FilterMaskIdHigh) << 16U) |
 8003200:	683b      	ldr	r3, [r7, #0]
 8003202:	689b      	ldr	r3, [r3, #8]
 8003204:	0419      	lsls	r1, r3, #16
        (0x0000FFFFU & (uint32_t)sFilterConfig->FilterIdHigh);
 8003206:	683b      	ldr	r3, [r7, #0]
 8003208:	681b      	ldr	r3, [r3, #0]
 800320a:	b29a      	uxth	r2, r3
      can_ip->sFilterRegister[sFilterConfig->FilterBank].FR2 =
 800320c:	683b      	ldr	r3, [r7, #0]
 800320e:	695b      	ldr	r3, [r3, #20]
        ((0x0000FFFFU & (uint32_t)sFilterConfig->FilterMaskIdHigh) << 16U) |
 8003210:	430a      	orrs	r2, r1
      can_ip->sFilterRegister[sFilterConfig->FilterBank].FR2 =
 8003212:	6979      	ldr	r1, [r7, #20]
 8003214:	3348      	adds	r3, #72	; 0x48
 8003216:	00db      	lsls	r3, r3, #3
 8003218:	440b      	add	r3, r1
 800321a:	605a      	str	r2, [r3, #4]
    }

    if (sFilterConfig->FilterScale == CAN_FILTERSCALE_32BIT)
 800321c:	683b      	ldr	r3, [r7, #0]
 800321e:	69db      	ldr	r3, [r3, #28]
 8003220:	2b01      	cmp	r3, #1
 8003222:	d122      	bne.n	800326a <HAL_CAN_ConfigFilter+0x11e>
    {
      /* 32-bit scale for the filter */
      SET_BIT(can_ip->FS1R, filternbrbitpos);
 8003224:	697b      	ldr	r3, [r7, #20]
 8003226:	f8d3 220c 	ldr.w	r2, [r3, #524]	; 0x20c
 800322a:	68fb      	ldr	r3, [r7, #12]
 800322c:	431a      	orrs	r2, r3
 800322e:	697b      	ldr	r3, [r7, #20]
 8003230:	f8c3 220c 	str.w	r2, [r3, #524]	; 0x20c

      /* 32-bit identifier or First 32-bit identifier */
      can_ip->sFilterRegister[sFilterConfig->FilterBank].FR1 =
        ((0x0000FFFFU & (uint32_t)sFilterConfig->FilterIdHigh) << 16U) |
 8003234:	683b      	ldr	r3, [r7, #0]
 8003236:	681b      	ldr	r3, [r3, #0]
 8003238:	0419      	lsls	r1, r3, #16
        (0x0000FFFFU & (uint32_t)sFilterConfig->FilterIdLow);
 800323a:	683b      	ldr	r3, [r7, #0]
 800323c:	685b      	ldr	r3, [r3, #4]
 800323e:	b29b      	uxth	r3, r3
      can_ip->sFilterRegister[sFilterConfig->FilterBank].FR1 =
 8003240:	683a      	ldr	r2, [r7, #0]
 8003242:	6952      	ldr	r2, [r2, #20]
        ((0x0000FFFFU & (uint32_t)sFilterConfig->FilterIdHigh) << 16U) |
 8003244:	4319      	orrs	r1, r3
      can_ip->sFilterRegister[sFilterConfig->FilterBank].FR1 =
 8003246:	697b      	ldr	r3, [r7, #20]
 8003248:	3248      	adds	r2, #72	; 0x48
 800324a:	f843 1032 	str.w	r1, [r3, r2, lsl #3]

      /* 32-bit mask or Second 32-bit identifier */
      can_ip->sFilterRegister[sFilterConfig->FilterBank].FR2 =
        ((0x0000FFFFU & (uint32_t)sFilterConfig->FilterMaskIdHigh) << 16U) |
 800324e:	683b      	ldr	r3, [r7, #0]
 8003250:	689b      	ldr	r3, [r3, #8]
 8003252:	0419      	lsls	r1, r3, #16
        (0x0000FFFFU & (uint32_t)sFilterConfig->FilterMaskIdLow);
 8003254:	683b      	ldr	r3, [r7, #0]
 8003256:	68db      	ldr	r3, [r3, #12]
 8003258:	b29a      	uxth	r2, r3
      can_ip->sFilterRegister[sFilterConfig->FilterBank].FR2 =
 800325a:	683b      	ldr	r3, [r7, #0]
 800325c:	695b      	ldr	r3, [r3, #20]
        ((0x0000FFFFU & (uint32_t)sFilterConfig->FilterMaskIdHigh) << 16U) |
 800325e:	430a      	orrs	r2, r1
      can_ip->sFilterRegister[sFilterConfig->FilterBank].FR2 =
 8003260:	6979      	ldr	r1, [r7, #20]
 8003262:	3348      	adds	r3, #72	; 0x48
 8003264:	00db      	lsls	r3, r3, #3
 8003266:	440b      	add	r3, r1
 8003268:	605a      	str	r2, [r3, #4]
    }

    /* Filter Mode */
    if (sFilterConfig->FilterMode == CAN_FILTERMODE_IDMASK)
 800326a:	683b      	ldr	r3, [r7, #0]
 800326c:	699b      	ldr	r3, [r3, #24]
 800326e:	2b00      	cmp	r3, #0
 8003270:	d109      	bne.n	8003286 <HAL_CAN_ConfigFilter+0x13a>
    {
      /* Id/Mask mode for the filter*/
      CLEAR_BIT(can_ip->FM1R, filternbrbitpos);
 8003272:	697b      	ldr	r3, [r7, #20]
 8003274:	f8d3 2204 	ldr.w	r2, [r3, #516]	; 0x204
 8003278:	68fb      	ldr	r3, [r7, #12]
 800327a:	43db      	mvns	r3, r3
 800327c:	401a      	ands	r2, r3
 800327e:	697b      	ldr	r3, [r7, #20]
 8003280:	f8c3 2204 	str.w	r2, [r3, #516]	; 0x204
 8003284:	e007      	b.n	8003296 <HAL_CAN_ConfigFilter+0x14a>
    }
    else /* CAN_FilterInitStruct->CAN_FilterMode == CAN_FilterMode_IdList */
    {
      /* Identifier list mode for the filter*/
      SET_BIT(can_ip->FM1R, filternbrbitpos);
 8003286:	697b      	ldr	r3, [r7, #20]
 8003288:	f8d3 2204 	ldr.w	r2, [r3, #516]	; 0x204
 800328c:	68fb      	ldr	r3, [r7, #12]
 800328e:	431a      	orrs	r2, r3
 8003290:	697b      	ldr	r3, [r7, #20]
 8003292:	f8c3 2204 	str.w	r2, [r3, #516]	; 0x204
    }

    /* Filter FIFO assignment */
    if (sFilterConfig->FilterFIFOAssignment == CAN_FILTER_FIFO0)
 8003296:	683b      	ldr	r3, [r7, #0]
 8003298:	691b      	ldr	r3, [r3, #16]
 800329a:	2b00      	cmp	r3, #0
 800329c:	d109      	bne.n	80032b2 <HAL_CAN_ConfigFilter+0x166>
    {
      /* FIFO 0 assignation for the filter */
      CLEAR_BIT(can_ip->FFA1R, filternbrbitpos);
 800329e:	697b      	ldr	r3, [r7, #20]
 80032a0:	f8d3 2214 	ldr.w	r2, [r3, #532]	; 0x214
 80032a4:	68fb      	ldr	r3, [r7, #12]
 80032a6:	43db      	mvns	r3, r3
 80032a8:	401a      	ands	r2, r3
 80032aa:	697b      	ldr	r3, [r7, #20]
 80032ac:	f8c3 2214 	str.w	r2, [r3, #532]	; 0x214
 80032b0:	e007      	b.n	80032c2 <HAL_CAN_ConfigFilter+0x176>
    }
    else
    {
      /* FIFO 1 assignation for the filter */
      SET_BIT(can_ip->FFA1R, filternbrbitpos);
 80032b2:	697b      	ldr	r3, [r7, #20]
 80032b4:	f8d3 2214 	ldr.w	r2, [r3, #532]	; 0x214
 80032b8:	68fb      	ldr	r3, [r7, #12]
 80032ba:	431a      	orrs	r2, r3
 80032bc:	697b      	ldr	r3, [r7, #20]
 80032be:	f8c3 2214 	str.w	r2, [r3, #532]	; 0x214
    }

    /* Filter activation */
    if (sFilterConfig->FilterActivation == CAN_FILTER_ENABLE)
 80032c2:	683b      	ldr	r3, [r7, #0]
 80032c4:	6a1b      	ldr	r3, [r3, #32]
 80032c6:	2b01      	cmp	r3, #1
 80032c8:	d107      	bne.n	80032da <HAL_CAN_ConfigFilter+0x18e>
    {
      SET_BIT(can_ip->FA1R, filternbrbitpos);
 80032ca:	697b      	ldr	r3, [r7, #20]
 80032cc:	f8d3 221c 	ldr.w	r2, [r3, #540]	; 0x21c
 80032d0:	68fb      	ldr	r3, [r7, #12]
 80032d2:	431a      	orrs	r2, r3
 80032d4:	697b      	ldr	r3, [r7, #20]
 80032d6:	f8c3 221c 	str.w	r2, [r3, #540]	; 0x21c
    }

    /* Leave the initialisation mode for the filter */
    CLEAR_BIT(can_ip->FMR, CAN_FMR_FINIT);
 80032da:	697b      	ldr	r3, [r7, #20]
 80032dc:	f8d3 3200 	ldr.w	r3, [r3, #512]	; 0x200
 80032e0:	f023 0201 	bic.w	r2, r3, #1
 80032e4:	697b      	ldr	r3, [r7, #20]
 80032e6:	f8c3 2200 	str.w	r2, [r3, #512]	; 0x200

    /* Return function status */
    return HAL_OK;
 80032ea:	2300      	movs	r3, #0
 80032ec:	e006      	b.n	80032fc <HAL_CAN_ConfigFilter+0x1b0>
  }
  else
  {
    /* Update error code */
    hcan->ErrorCode |= HAL_CAN_ERROR_NOT_INITIALIZED;
 80032ee:	687b      	ldr	r3, [r7, #4]
 80032f0:	6a5b      	ldr	r3, [r3, #36]	; 0x24
 80032f2:	f443 2280 	orr.w	r2, r3, #262144	; 0x40000
 80032f6:	687b      	ldr	r3, [r7, #4]
 80032f8:	625a      	str	r2, [r3, #36]	; 0x24

    return HAL_ERROR;
 80032fa:	2301      	movs	r3, #1
  }
}
 80032fc:	4618      	mov	r0, r3
 80032fe:	371c      	adds	r7, #28
 8003300:	46bd      	mov	sp, r7
 8003302:	f85d 7b04 	ldr.w	r7, [sp], #4
 8003306:	4770      	bx	lr
 8003308:	40006400 	.word	0x40006400

0800330c <HAL_CAN_Start>:
  * @param  hcan pointer to an CAN_HandleTypeDef structure that contains
  *         the configuration information for the specified CAN.
  * @retval HAL status
  */
HAL_StatusTypeDef HAL_CAN_Start(CAN_HandleTypeDef *hcan)
{
 800330c:	b580      	push	{r7, lr}
 800330e:	b084      	sub	sp, #16
 8003310:	af00      	add	r7, sp, #0
 8003312:	6078      	str	r0, [r7, #4]
  uint32_t tickstart;

  if (hcan->State == HAL_CAN_STATE_READY)
 8003314:	687b      	ldr	r3, [r7, #4]
 8003316:	f893 3020 	ldrb.w	r3, [r3, #32]
 800331a:	b2db      	uxtb	r3, r3
 800331c:	2b01      	cmp	r3, #1
 800331e:	d12e      	bne.n	800337e <HAL_CAN_Start+0x72>
  {
    /* Change CAN peripheral state */
    hcan->State = HAL_CAN_STATE_LISTENING;
 8003320:	687b      	ldr	r3, [r7, #4]
 8003322:	2202      	movs	r2, #2
 8003324:	f883 2020 	strb.w	r2, [r3, #32]

    /* Request leave initialisation */
    CLEAR_BIT(hcan->Instance->MCR, CAN_MCR_INRQ);
 8003328:	687b      	ldr	r3, [r7, #4]
 800332a:	681b      	ldr	r3, [r3, #0]
 800332c:	681a      	ldr	r2, [r3, #0]
 800332e:	687b      	ldr	r3, [r7, #4]
 8003330:	681b      	ldr	r3, [r3, #0]
 8003332:	f022 0201 	bic.w	r2, r2, #1
 8003336:	601a      	str	r2, [r3, #0]

    /* Get tick */
    tickstart = HAL_GetTick();
 8003338:	f7ff fddc 	bl	8002ef4 <HAL_GetTick>
 800333c:	60f8      	str	r0, [r7, #12]

    /* Wait the acknowledge */
    while ((hcan->Instance->MSR & CAN_MSR_INAK) != 0U)
 800333e:	e012      	b.n	8003366 <HAL_CAN_Start+0x5a>
    {
      /* Check for the Timeout */
      if ((HAL_GetTick() - tickstart) > CAN_TIMEOUT_VALUE)
 8003340:	f7ff fdd8 	bl	8002ef4 <HAL_GetTick>
 8003344:	4602      	mov	r2, r0
 8003346:	68fb      	ldr	r3, [r7, #12]
 8003348:	1ad3      	subs	r3, r2, r3
 800334a:	2b0a      	cmp	r3, #10
 800334c:	d90b      	bls.n	8003366 <HAL_CAN_Start+0x5a>
      {
        /* Update error code */
        hcan->ErrorCode |= HAL_CAN_ERROR_TIMEOUT;
 800334e:	687b      	ldr	r3, [r7, #4]
 8003350:	6a5b      	ldr	r3, [r3, #36]	; 0x24
 8003352:	f443 3200 	orr.w	r2, r3, #131072	; 0x20000
 8003356:	687b      	ldr	r3, [r7, #4]
 8003358:	625a      	str	r2, [r3, #36]	; 0x24

        /* Change CAN state */
        hcan->State = HAL_CAN_STATE_ERROR;
 800335a:	687b      	ldr	r3, [r7, #4]
 800335c:	2205      	movs	r2, #5
 800335e:	f883 2020 	strb.w	r2, [r3, #32]

        return HAL_ERROR;
 8003362:	2301      	movs	r3, #1
 8003364:	e012      	b.n	800338c <HAL_CAN_Start+0x80>
    while ((hcan->Instance->MSR & CAN_MSR_INAK) != 0U)
 8003366:	687b      	ldr	r3, [r7, #4]
 8003368:	681b      	ldr	r3, [r3, #0]
 800336a:	685b      	ldr	r3, [r3, #4]
 800336c:	f003 0301 	and.w	r3, r3, #1
 8003370:	2b00      	cmp	r3, #0
 8003372:	d1e5      	bne.n	8003340 <HAL_CAN_Start+0x34>
      }
    }

    /* Reset the CAN ErrorCode */
    hcan->ErrorCode = HAL_CAN_ERROR_NONE;
 8003374:	687b      	ldr	r3, [r7, #4]
 8003376:	2200      	movs	r2, #0
 8003378:	625a      	str	r2, [r3, #36]	; 0x24

    /* Return function status */
    return HAL_OK;
 800337a:	2300      	movs	r3, #0
 800337c:	e006      	b.n	800338c <HAL_CAN_Start+0x80>
  }
  else
  {
    /* Update error code */
    hcan->ErrorCode |= HAL_CAN_ERROR_NOT_READY;
 800337e:	687b      	ldr	r3, [r7, #4]
 8003380:	6a5b      	ldr	r3, [r3, #36]	; 0x24
 8003382:	f443 2200 	orr.w	r2, r3, #524288	; 0x80000
 8003386:	687b      	ldr	r3, [r7, #4]
 8003388:	625a      	str	r2, [r3, #36]	; 0x24

    return HAL_ERROR;
 800338a:	2301      	movs	r3, #1
  }
}
 800338c:	4618      	mov	r0, r3
 800338e:	3710      	adds	r7, #16
 8003390:	46bd      	mov	sp, r7
 8003392:	bd80      	pop	{r7, pc}

08003394 <HAL_CAN_AddTxMessage>:
  *         This parameter can be a value of @arg CAN_Tx_Mailboxes.
  * @retval HAL status
  */
HAL_StatusTypeDef HAL_CAN_AddTxMessage(CAN_HandleTypeDef *hcan, const CAN_TxHeaderTypeDef *pHeader,
                                       const uint8_t aData[], uint32_t *pTxMailbox)
{
 8003394:	b480      	push	{r7}
 8003396:	b089      	sub	sp, #36	; 0x24
 8003398:	af00      	add	r7, sp, #0
 800339a:	60f8      	str	r0, [r7, #12]
 800339c:	60b9      	str	r1, [r7, #8]
 800339e:	607a      	str	r2, [r7, #4]
 80033a0:	603b      	str	r3, [r7, #0]
  uint32_t transmitmailbox;
  HAL_CAN_StateTypeDef state = hcan->State;
 80033a2:	68fb      	ldr	r3, [r7, #12]
 80033a4:	f893 3020 	ldrb.w	r3, [r3, #32]
 80033a8:	77fb      	strb	r3, [r7, #31]
  uint32_t tsr = READ_REG(hcan->Instance->TSR);
 80033aa:	68fb      	ldr	r3, [r7, #12]
 80033ac:	681b      	ldr	r3, [r3, #0]
 80033ae:	689b      	ldr	r3, [r3, #8]
 80033b0:	61bb      	str	r3, [r7, #24]
  {
    assert_param(IS_CAN_EXTID(pHeader->ExtId));
  }
  assert_param(IS_FUNCTIONAL_STATE(pHeader->TransmitGlobalTime));

  if ((state == HAL_CAN_STATE_READY) ||
 80033b2:	7ffb      	ldrb	r3, [r7, #31]
 80033b4:	2b01      	cmp	r3, #1
 80033b6:	d003      	beq.n	80033c0 <HAL_CAN_AddTxMessage+0x2c>
 80033b8:	7ffb      	ldrb	r3, [r7, #31]
 80033ba:	2b02      	cmp	r3, #2
 80033bc:	f040 80ad 	bne.w	800351a <HAL_CAN_AddTxMessage+0x186>
      (state == HAL_CAN_STATE_LISTENING))
  {
    /* Check that all the Tx mailboxes are not full */
    if (((tsr & CAN_TSR_TME0) != 0U) ||
 80033c0:	69bb      	ldr	r3, [r7, #24]
 80033c2:	f003 6380 	and.w	r3, r3, #67108864	; 0x4000000
 80033c6:	2b00      	cmp	r3, #0
 80033c8:	d10a      	bne.n	80033e0 <HAL_CAN_AddTxMessage+0x4c>
        ((tsr & CAN_TSR_TME1) != 0U) ||
 80033ca:	69bb      	ldr	r3, [r7, #24]
 80033cc:	f003 6300 	and.w	r3, r3, #134217728	; 0x8000000
    if (((tsr & CAN_TSR_TME0) != 0U) ||
 80033d0:	2b00      	cmp	r3, #0
 80033d2:	d105      	bne.n	80033e0 <HAL_CAN_AddTxMessage+0x4c>
        ((tsr & CAN_TSR_TME2) != 0U))
 80033d4:	69bb      	ldr	r3, [r7, #24]
 80033d6:	f003 5380 	and.w	r3, r3, #268435456	; 0x10000000
        ((tsr & CAN_TSR_TME1) != 0U) ||
 80033da:	2b00      	cmp	r3, #0
 80033dc:	f000 8095 	beq.w	800350a <HAL_CAN_AddTxMessage+0x176>
    {
      /* Select an empty transmit mailbox */
      transmitmailbox = (tsr & CAN_TSR_CODE) >> CAN_TSR_CODE_Pos;
 80033e0:	69bb      	ldr	r3, [r7, #24]
 80033e2:	0e1b      	lsrs	r3, r3, #24
 80033e4:	f003 0303 	and.w	r3, r3, #3
 80033e8:	617b      	str	r3, [r7, #20]

      /* Store the Tx mailbox */
      *pTxMailbox = (uint32_t)1 << transmitmailbox;
 80033ea:	2201      	movs	r2, #1
 80033ec:	697b      	ldr	r3, [r7, #20]
 80033ee:	409a      	lsls	r2, r3
 80033f0:	683b      	ldr	r3, [r7, #0]
 80033f2:	601a      	str	r2, [r3, #0]

      /* Set up the Id */
      if (pHeader->IDE == CAN_ID_STD)
 80033f4:	68bb      	ldr	r3, [r7, #8]
 80033f6:	689b      	ldr	r3, [r3, #8]
 80033f8:	2b00      	cmp	r3, #0
 80033fa:	d10d      	bne.n	8003418 <HAL_CAN_AddTxMessage+0x84>
      {
        hcan->Instance->sTxMailBox[transmitmailbox].TIR = ((pHeader->StdId << CAN_TI0R_STID_Pos) |
 80033fc:	68bb      	ldr	r3, [r7, #8]
 80033fe:	681b      	ldr	r3, [r3, #0]
 8003400:	055a      	lsls	r2, r3, #21
                                                           pHeader->RTR);
 8003402:	68bb      	ldr	r3, [r7, #8]
 8003404:	68db      	ldr	r3, [r3, #12]
        hcan->Instance->sTxMailBox[transmitmailbox].TIR = ((pHeader->StdId << CAN_TI0R_STID_Pos) |
 8003406:	68f9      	ldr	r1, [r7, #12]
 8003408:	6809      	ldr	r1, [r1, #0]
 800340a:	431a      	orrs	r2, r3
 800340c:	697b      	ldr	r3, [r7, #20]
 800340e:	3318      	adds	r3, #24
 8003410:	011b      	lsls	r3, r3, #4
 8003412:	440b      	add	r3, r1
 8003414:	601a      	str	r2, [r3, #0]
 8003416:	e00f      	b.n	8003438 <HAL_CAN_AddTxMessage+0xa4>
      }
      else
      {
        hcan->Instance->sTxMailBox[transmitmailbox].TIR = ((pHeader->ExtId << CAN_TI0R_EXID_Pos) |
 8003418:	68bb      	ldr	r3, [r7, #8]
 800341a:	685b      	ldr	r3, [r3, #4]
 800341c:	00da      	lsls	r2, r3, #3
                                                           pHeader->IDE |
 800341e:	68bb      	ldr	r3, [r7, #8]
 8003420:	689b      	ldr	r3, [r3, #8]
        hcan->Instance->sTxMailBox[transmitmailbox].TIR = ((pHeader->ExtId << CAN_TI0R_EXID_Pos) |
 8003422:	431a      	orrs	r2, r3
                                                           pHeader->RTR);
 8003424:	68bb      	ldr	r3, [r7, #8]
 8003426:	68db      	ldr	r3, [r3, #12]
        hcan->Instance->sTxMailBox[transmitmailbox].TIR = ((pHeader->ExtId << CAN_TI0R_EXID_Pos) |
 8003428:	68f9      	ldr	r1, [r7, #12]
 800342a:	6809      	ldr	r1, [r1, #0]
                                                           pHeader->IDE |
 800342c:	431a      	orrs	r2, r3
        hcan->Instance->sTxMailBox[transmitmailbox].TIR = ((pHeader->ExtId << CAN_TI0R_EXID_Pos) |
 800342e:	697b      	ldr	r3, [r7, #20]
 8003430:	3318      	adds	r3, #24
 8003432:	011b      	lsls	r3, r3, #4
 8003434:	440b      	add	r3, r1
 8003436:	601a      	str	r2, [r3, #0]
      }

      /* Set up the DLC */
      hcan->Instance->sTxMailBox[transmitmailbox].TDTR = (pHeader->DLC);
 8003438:	68fb      	ldr	r3, [r7, #12]
 800343a:	6819      	ldr	r1, [r3, #0]
 800343c:	68bb      	ldr	r3, [r7, #8]
 800343e:	691a      	ldr	r2, [r3, #16]
 8003440:	697b      	ldr	r3, [r7, #20]
 8003442:	3318      	adds	r3, #24
 8003444:	011b      	lsls	r3, r3, #4
 8003446:	440b      	add	r3, r1
 8003448:	3304      	adds	r3, #4
 800344a:	601a      	str	r2, [r3, #0]

      /* Set up the Transmit Global Time mode */
      if (pHeader->TransmitGlobalTime == ENABLE)
 800344c:	68bb      	ldr	r3, [r7, #8]
 800344e:	7d1b      	ldrb	r3, [r3, #20]
 8003450:	2b01      	cmp	r3, #1
 8003452:	d111      	bne.n	8003478 <HAL_CAN_AddTxMessage+0xe4>
      {
        SET_BIT(hcan->Instance->sTxMailBox[transmitmailbox].TDTR, CAN_TDT0R_TGT);
 8003454:	68fb      	ldr	r3, [r7, #12]
 8003456:	681a      	ldr	r2, [r3, #0]
 8003458:	697b      	ldr	r3, [r7, #20]
 800345a:	3318      	adds	r3, #24
 800345c:	011b      	lsls	r3, r3, #4
 800345e:	4413      	add	r3, r2
 8003460:	3304      	adds	r3, #4
 8003462:	681b      	ldr	r3, [r3, #0]
 8003464:	68fa      	ldr	r2, [r7, #12]
 8003466:	6811      	ldr	r1, [r2, #0]
 8003468:	f443 7280 	orr.w	r2, r3, #256	; 0x100
 800346c:	697b      	ldr	r3, [r7, #20]
 800346e:	3318      	adds	r3, #24
 8003470:	011b      	lsls	r3, r3, #4
 8003472:	440b      	add	r3, r1
 8003474:	3304      	adds	r3, #4
 8003476:	601a      	str	r2, [r3, #0]
      }

      /* Set up the data field */
      WRITE_REG(hcan->Instance->sTxMailBox[transmitmailbox].TDHR,
 8003478:	687b      	ldr	r3, [r7, #4]
 800347a:	3307      	adds	r3, #7
 800347c:	781b      	ldrb	r3, [r3, #0]
 800347e:	061a      	lsls	r2, r3, #24
 8003480:	687b      	ldr	r3, [r7, #4]
 8003482:	3306      	adds	r3, #6
 8003484:	781b      	ldrb	r3, [r3, #0]
 8003486:	041b      	lsls	r3, r3, #16
 8003488:	431a      	orrs	r2, r3
 800348a:	687b      	ldr	r3, [r7, #4]
 800348c:	3305      	adds	r3, #5
 800348e:	781b      	ldrb	r3, [r3, #0]
 8003490:	021b      	lsls	r3, r3, #8
 8003492:	4313      	orrs	r3, r2
 8003494:	687a      	ldr	r2, [r7, #4]
 8003496:	3204      	adds	r2, #4
 8003498:	7812      	ldrb	r2, [r2, #0]
 800349a:	4610      	mov	r0, r2
 800349c:	68fa      	ldr	r2, [r7, #12]
 800349e:	6811      	ldr	r1, [r2, #0]
 80034a0:	ea43 0200 	orr.w	r2, r3, r0
 80034a4:	697b      	ldr	r3, [r7, #20]
 80034a6:	011b      	lsls	r3, r3, #4
 80034a8:	440b      	add	r3, r1
 80034aa:	f503 73c6 	add.w	r3, r3, #396	; 0x18c
 80034ae:	601a      	str	r2, [r3, #0]
                ((uint32_t)aData[7] << CAN_TDH0R_DATA7_Pos) |
                ((uint32_t)aData[6] << CAN_TDH0R_DATA6_Pos) |
                ((uint32_t)aData[5] << CAN_TDH0R_DATA5_Pos) |
                ((uint32_t)aData[4] << CAN_TDH0R_DATA4_Pos));
      WRITE_REG(hcan->Instance->sTxMailBox[transmitmailbox].TDLR,
 80034b0:	687b      	ldr	r3, [r7, #4]
 80034b2:	3303      	adds	r3, #3
 80034b4:	781b      	ldrb	r3, [r3, #0]
 80034b6:	061a      	lsls	r2, r3, #24
 80034b8:	687b      	ldr	r3, [r7, #4]
 80034ba:	3302      	adds	r3, #2
 80034bc:	781b      	ldrb	r3, [r3, #0]
 80034be:	041b      	lsls	r3, r3, #16
 80034c0:	431a      	orrs	r2, r3
 80034c2:	687b      	ldr	r3, [r7, #4]
 80034c4:	3301      	adds	r3, #1
 80034c6:	781b      	ldrb	r3, [r3, #0]
 80034c8:	021b      	lsls	r3, r3, #8
 80034ca:	4313      	orrs	r3, r2
 80034cc:	687a      	ldr	r2, [r7, #4]
 80034ce:	7812      	ldrb	r2, [r2, #0]
 80034d0:	4610      	mov	r0, r2
 80034d2:	68fa      	ldr	r2, [r7, #12]
 80034d4:	6811      	ldr	r1, [r2, #0]
 80034d6:	ea43 0200 	orr.w	r2, r3, r0
 80034da:	697b      	ldr	r3, [r7, #20]
 80034dc:	011b      	lsls	r3, r3, #4
 80034de:	440b      	add	r3, r1
 80034e0:	f503 73c4 	add.w	r3, r3, #392	; 0x188
 80034e4:	601a      	str	r2, [r3, #0]
                ((uint32_t)aData[2] << CAN_TDL0R_DATA2_Pos) |
                ((uint32_t)aData[1] << CAN_TDL0R_DATA1_Pos) |
                ((uint32_t)aData[0] << CAN_TDL0R_DATA0_Pos));

      /* Request transmission */
      SET_BIT(hcan->Instance->sTxMailBox[transmitmailbox].TIR, CAN_TI0R_TXRQ);
 80034e6:	68fb      	ldr	r3, [r7, #12]
 80034e8:	681a      	ldr	r2, [r3, #0]
 80034ea:	697b      	ldr	r3, [r7, #20]
 80034ec:	3318      	adds	r3, #24
 80034ee:	011b      	lsls	r3, r3, #4
 80034f0:	4413      	add	r3, r2
 80034f2:	681b      	ldr	r3, [r3, #0]
 80034f4:	68fa      	ldr	r2, [r7, #12]
 80034f6:	6811      	ldr	r1, [r2, #0]
 80034f8:	f043 0201 	orr.w	r2, r3, #1
 80034fc:	697b      	ldr	r3, [r7, #20]
 80034fe:	3318      	adds	r3, #24
 8003500:	011b      	lsls	r3, r3, #4
 8003502:	440b      	add	r3, r1
 8003504:	601a      	str	r2, [r3, #0]

      /* Return function status */
      return HAL_OK;
 8003506:	2300      	movs	r3, #0
 8003508:	e00e      	b.n	8003528 <HAL_CAN_AddTxMessage+0x194>
    }
    else
    {
      /* Update error code */
      hcan->ErrorCode |= HAL_CAN_ERROR_PARAM;
 800350a:	68fb      	ldr	r3, [r7, #12]
 800350c:	6a5b      	ldr	r3, [r3, #36]	; 0x24
 800350e:	f443 1200 	orr.w	r2, r3, #2097152	; 0x200000
 8003512:	68fb      	ldr	r3, [r7, #12]
 8003514:	625a      	str	r2, [r3, #36]	; 0x24

      return HAL_ERROR;
 8003516:	2301      	movs	r3, #1
 8003518:	e006      	b.n	8003528 <HAL_CAN_AddTxMessage+0x194>
    }
  }
  else
  {
    /* Update error code */
    hcan->ErrorCode |= HAL_CAN_ERROR_NOT_INITIALIZED;
 800351a:	68fb      	ldr	r3, [r7, #12]
 800351c:	6a5b      	ldr	r3, [r3, #36]	; 0x24
 800351e:	f443 2280 	orr.w	r2, r3, #262144	; 0x40000
 8003522:	68fb      	ldr	r3, [r7, #12]
 8003524:	625a      	str	r2, [r3, #36]	; 0x24

    return HAL_ERROR;
 8003526:	2301      	movs	r3, #1
  }
}
 8003528:	4618      	mov	r0, r3
 800352a:	3724      	adds	r7, #36	; 0x24
 800352c:	46bd      	mov	sp, r7
 800352e:	f85d 7b04 	ldr.w	r7, [sp], #4
 8003532:	4770      	bx	lr

08003534 <HAL_CAN_GetRxMessage>:
  * @param  aData array where the payload of the Rx frame will be stored.
  * @retval HAL status
  */
HAL_StatusTypeDef HAL_CAN_GetRxMessage(CAN_HandleTypeDef *hcan, uint32_t RxFifo,
                                       CAN_RxHeaderTypeDef *pHeader, uint8_t aData[])
{
 8003534:	b480      	push	{r7}
 8003536:	b087      	sub	sp, #28
 8003538:	af00      	add	r7, sp, #0
 800353a:	60f8      	str	r0, [r7, #12]
 800353c:	60b9      	str	r1, [r7, #8]
 800353e:	607a      	str	r2, [r7, #4]
 8003540:	603b      	str	r3, [r7, #0]
  HAL_CAN_StateTypeDef state = hcan->State;
 8003542:	68fb      	ldr	r3, [r7, #12]
 8003544:	f893 3020 	ldrb.w	r3, [r3, #32]
 8003548:	75fb      	strb	r3, [r7, #23]

  assert_param(IS_CAN_RX_FIFO(RxFifo));

  if ((state == HAL_CAN_STATE_READY) ||
 800354a:	7dfb      	ldrb	r3, [r7, #23]
 800354c:	2b01      	cmp	r3, #1
 800354e:	d003      	beq.n	8003558 <HAL_CAN_GetRxMessage+0x24>
 8003550:	7dfb      	ldrb	r3, [r7, #23]
 8003552:	2b02      	cmp	r3, #2
 8003554:	f040 8103 	bne.w	800375e <HAL_CAN_GetRxMessage+0x22a>
      (state == HAL_CAN_STATE_LISTENING))
  {
    /* Check the Rx FIFO */
    if (RxFifo == CAN_RX_FIFO0) /* Rx element is assigned to Rx FIFO 0 */
 8003558:	68bb      	ldr	r3, [r7, #8]
 800355a:	2b00      	cmp	r3, #0
 800355c:	d10e      	bne.n	800357c <HAL_CAN_GetRxMessage+0x48>
    {
      /* Check that the Rx FIFO 0 is not empty */
      if ((hcan->Instance->RF0R & CAN_RF0R_FMP0) == 0U)
 800355e:	68fb      	ldr	r3, [r7, #12]
 8003560:	681b      	ldr	r3, [r3, #0]
 8003562:	68db      	ldr	r3, [r3, #12]
 8003564:	f003 0303 	and.w	r3, r3, #3
 8003568:	2b00      	cmp	r3, #0
 800356a:	d116      	bne.n	800359a <HAL_CAN_GetRxMessage+0x66>
      {
        /* Update error code */
        hcan->ErrorCode |= HAL_CAN_ERROR_PARAM;
 800356c:	68fb      	ldr	r3, [r7, #12]
 800356e:	6a5b      	ldr	r3, [r3, #36]	; 0x24
 8003570:	f443 1200 	orr.w	r2, r3, #2097152	; 0x200000
 8003574:	68fb      	ldr	r3, [r7, #12]
 8003576:	625a      	str	r2, [r3, #36]	; 0x24

        return HAL_ERROR;
 8003578:	2301      	movs	r3, #1
 800357a:	e0f7      	b.n	800376c <HAL_CAN_GetRxMessage+0x238>
      }
    }
    else /* Rx element is assigned to Rx FIFO 1 */
    {
      /* Check that the Rx FIFO 1 is not empty */
      if ((hcan->Instance->RF1R & CAN_RF1R_FMP1) == 0U)
 800357c:	68fb      	ldr	r3, [r7, #12]
 800357e:	681b      	ldr	r3, [r3, #0]
 8003580:	691b      	ldr	r3, [r3, #16]
 8003582:	f003 0303 	and.w	r3, r3, #3
 8003586:	2b00      	cmp	r3, #0
 8003588:	d107      	bne.n	800359a <HAL_CAN_GetRxMessage+0x66>
      {
        /* Update error code */
        hcan->ErrorCode |= HAL_CAN_ERROR_PARAM;
 800358a:	68fb      	ldr	r3, [r7, #12]
 800358c:	6a5b      	ldr	r3, [r3, #36]	; 0x24
 800358e:	f443 1200 	orr.w	r2, r3, #2097152	; 0x200000
 8003592:	68fb      	ldr	r3, [r7, #12]
 8003594:	625a      	str	r2, [r3, #36]	; 0x24

        return HAL_ERROR;
 8003596:	2301      	movs	r3, #1
 8003598:	e0e8      	b.n	800376c <HAL_CAN_GetRxMessage+0x238>
      }
    }

    /* Get the header */
    pHeader->IDE = CAN_RI0R_IDE & hcan->Instance->sFIFOMailBox[RxFifo].RIR;
 800359a:	68fb      	ldr	r3, [r7, #12]
 800359c:	681a      	ldr	r2, [r3, #0]
 800359e:	68bb      	ldr	r3, [r7, #8]
 80035a0:	331b      	adds	r3, #27
 80035a2:	011b      	lsls	r3, r3, #4
 80035a4:	4413      	add	r3, r2
 80035a6:	681b      	ldr	r3, [r3, #0]
 80035a8:	f003 0204 	and.w	r2, r3, #4
 80035ac:	687b      	ldr	r3, [r7, #4]
 80035ae:	609a      	str	r2, [r3, #8]
    if (pHeader->IDE == CAN_ID_STD)
 80035b0:	687b      	ldr	r3, [r7, #4]
 80035b2:	689b      	ldr	r3, [r3, #8]
 80035b4:	2b00      	cmp	r3, #0
 80035b6:	d10c      	bne.n	80035d2 <HAL_CAN_GetRxMessage+0x9e>
    {
      pHeader->StdId = (CAN_RI0R_STID & hcan->Instance->sFIFOMailBox[RxFifo].RIR) >> CAN_TI0R_STID_Pos;
 80035b8:	68fb      	ldr	r3, [r7, #12]
 80035ba:	681a      	ldr	r2, [r3, #0]
 80035bc:	68bb      	ldr	r3, [r7, #8]
 80035be:	331b      	adds	r3, #27
 80035c0:	011b      	lsls	r3, r3, #4
 80035c2:	4413      	add	r3, r2
 80035c4:	681b      	ldr	r3, [r3, #0]
 80035c6:	0d5b      	lsrs	r3, r3, #21
 80035c8:	f3c3 020a 	ubfx	r2, r3, #0, #11
 80035cc:	687b      	ldr	r3, [r7, #4]
 80035ce:	601a      	str	r2, [r3, #0]
 80035d0:	e00b      	b.n	80035ea <HAL_CAN_GetRxMessage+0xb6>
    }
    else
    {
      pHeader->ExtId = ((CAN_RI0R_EXID | CAN_RI0R_STID) &
                        hcan->Instance->sFIFOMailBox[RxFifo].RIR) >> CAN_RI0R_EXID_Pos;
 80035d2:	68fb      	ldr	r3, [r7, #12]
 80035d4:	681a      	ldr	r2, [r3, #0]
 80035d6:	68bb      	ldr	r3, [r7, #8]
 80035d8:	331b      	adds	r3, #27
 80035da:	011b      	lsls	r3, r3, #4
 80035dc:	4413      	add	r3, r2
 80035de:	681b      	ldr	r3, [r3, #0]
 80035e0:	08db      	lsrs	r3, r3, #3
 80035e2:	f023 4260 	bic.w	r2, r3, #3758096384	; 0xe0000000
      pHeader->ExtId = ((CAN_RI0R_EXID | CAN_RI0R_STID) &
 80035e6:	687b      	ldr	r3, [r7, #4]
 80035e8:	605a      	str	r2, [r3, #4]
    }
    pHeader->RTR = (CAN_RI0R_RTR & hcan->Instance->sFIFOMailBox[RxFifo].RIR);
 80035ea:	68fb      	ldr	r3, [r7, #12]
 80035ec:	681a      	ldr	r2, [r3, #0]
 80035ee:	68bb      	ldr	r3, [r7, #8]
 80035f0:	331b      	adds	r3, #27
 80035f2:	011b      	lsls	r3, r3, #4
 80035f4:	4413      	add	r3, r2
 80035f6:	681b      	ldr	r3, [r3, #0]
 80035f8:	f003 0202 	and.w	r2, r3, #2
 80035fc:	687b      	ldr	r3, [r7, #4]
 80035fe:	60da      	str	r2, [r3, #12]
    if (((CAN_RDT0R_DLC & hcan->Instance->sFIFOMailBox[RxFifo].RDTR) >> CAN_RDT0R_DLC_Pos) >= 8U)
 8003600:	68fb      	ldr	r3, [r7, #12]
 8003602:	681a      	ldr	r2, [r3, #0]
 8003604:	68bb      	ldr	r3, [r7, #8]
 8003606:	331b      	adds	r3, #27
 8003608:	011b      	lsls	r3, r3, #4
 800360a:	4413      	add	r3, r2
 800360c:	3304      	adds	r3, #4
 800360e:	681b      	ldr	r3, [r3, #0]
 8003610:	f003 0308 	and.w	r3, r3, #8
 8003614:	2b00      	cmp	r3, #0
 8003616:	d003      	beq.n	8003620 <HAL_CAN_GetRxMessage+0xec>
    {
      /* Truncate DLC to 8 if received field is over range */
      pHeader->DLC = 8U;
 8003618:	687b      	ldr	r3, [r7, #4]
 800361a:	2208      	movs	r2, #8
 800361c:	611a      	str	r2, [r3, #16]
 800361e:	e00b      	b.n	8003638 <HAL_CAN_GetRxMessage+0x104>
    }
    else
    {
      pHeader->DLC = (CAN_RDT0R_DLC & hcan->Instance->sFIFOMailBox[RxFifo].RDTR) >> CAN_RDT0R_DLC_Pos;
 8003620:	68fb      	ldr	r3, [r7, #12]
 8003622:	681a      	ldr	r2, [r3, #0]
 8003624:	68bb      	ldr	r3, [r7, #8]
 8003626:	331b      	adds	r3, #27
 8003628:	011b      	lsls	r3, r3, #4
 800362a:	4413      	add	r3, r2
 800362c:	3304      	adds	r3, #4
 800362e:	681b      	ldr	r3, [r3, #0]
 8003630:	f003 020f 	and.w	r2, r3, #15
 8003634:	687b      	ldr	r3, [r7, #4]
 8003636:	611a      	str	r2, [r3, #16]
    }
    pHeader->FilterMatchIndex = (CAN_RDT0R_FMI & hcan->Instance->sFIFOMailBox[RxFifo].RDTR) >> CAN_RDT0R_FMI_Pos;
 8003638:	68fb      	ldr	r3, [r7, #12]
 800363a:	681a      	ldr	r2, [r3, #0]
 800363c:	68bb      	ldr	r3, [r7, #8]
 800363e:	331b      	adds	r3, #27
 8003640:	011b      	lsls	r3, r3, #4
 8003642:	4413      	add	r3, r2
 8003644:	3304      	adds	r3, #4
 8003646:	681b      	ldr	r3, [r3, #0]
 8003648:	0a1b      	lsrs	r3, r3, #8
 800364a:	b2da      	uxtb	r2, r3
 800364c:	687b      	ldr	r3, [r7, #4]
 800364e:	619a      	str	r2, [r3, #24]
    pHeader->Timestamp = (CAN_RDT0R_TIME & hcan->Instance->sFIFOMailBox[RxFifo].RDTR) >> CAN_RDT0R_TIME_Pos;
 8003650:	68fb      	ldr	r3, [r7, #12]
 8003652:	681a      	ldr	r2, [r3, #0]
 8003654:	68bb      	ldr	r3, [r7, #8]
 8003656:	331b      	adds	r3, #27
 8003658:	011b      	lsls	r3, r3, #4
 800365a:	4413      	add	r3, r2
 800365c:	3304      	adds	r3, #4
 800365e:	681b      	ldr	r3, [r3, #0]
 8003660:	0c1b      	lsrs	r3, r3, #16
 8003662:	b29a      	uxth	r2, r3
 8003664:	687b      	ldr	r3, [r7, #4]
 8003666:	615a      	str	r2, [r3, #20]

    /* Get the data */
    aData[0] = (uint8_t)((CAN_RDL0R_DATA0 & hcan->Instance->sFIFOMailBox[RxFifo].RDLR) >> CAN_RDL0R_DATA0_Pos);
 8003668:	68fb      	ldr	r3, [r7, #12]
 800366a:	681a      	ldr	r2, [r3, #0]
 800366c:	68bb      	ldr	r3, [r7, #8]
 800366e:	011b      	lsls	r3, r3, #4
 8003670:	4413      	add	r3, r2
 8003672:	f503 73dc 	add.w	r3, r3, #440	; 0x1b8
 8003676:	681b      	ldr	r3, [r3, #0]
 8003678:	b2da      	uxtb	r2, r3
 800367a:	683b      	ldr	r3, [r7, #0]
 800367c:	701a      	strb	r2, [r3, #0]
    aData[1] = (uint8_t)((CAN_RDL0R_DATA1 & hcan->Instance->sFIFOMailBox[RxFifo].RDLR) >> CAN_RDL0R_DATA1_Pos);
 800367e:	68fb      	ldr	r3, [r7, #12]
 8003680:	681a      	ldr	r2, [r3, #0]
 8003682:	68bb      	ldr	r3, [r7, #8]
 8003684:	011b      	lsls	r3, r3, #4
 8003686:	4413      	add	r3, r2
 8003688:	f503 73dc 	add.w	r3, r3, #440	; 0x1b8
 800368c:	681b      	ldr	r3, [r3, #0]
 800368e:	0a1a      	lsrs	r2, r3, #8
 8003690:	683b      	ldr	r3, [r7, #0]
 8003692:	3301      	adds	r3, #1
 8003694:	b2d2      	uxtb	r2, r2
 8003696:	701a      	strb	r2, [r3, #0]
    aData[2] = (uint8_t)((CAN_RDL0R_DATA2 & hcan->Instance->sFIFOMailBox[RxFifo].RDLR) >> CAN_RDL0R_DATA2_Pos);
 8003698:	68fb      	ldr	r3, [r7, #12]
 800369a:	681a      	ldr	r2, [r3, #0]
 800369c:	68bb      	ldr	r3, [r7, #8]
 800369e:	011b      	lsls	r3, r3, #4
 80036a0:	4413      	add	r3, r2
 80036a2:	f503 73dc 	add.w	r3, r3, #440	; 0x1b8
 80036a6:	681b      	ldr	r3, [r3, #0]
 80036a8:	0c1a      	lsrs	r2, r3, #16
 80036aa:	683b      	ldr	r3, [r7, #0]
 80036ac:	3302      	adds	r3, #2
 80036ae:	b2d2      	uxtb	r2, r2
 80036b0:	701a      	strb	r2, [r3, #0]
    aData[3] = (uint8_t)((CAN_RDL0R_DATA3 & hcan->Instance->sFIFOMailBox[RxFifo].RDLR) >> CAN_RDL0R_DATA3_Pos);
 80036b2:	68fb      	ldr	r3, [r7, #12]
 80036b4:	681a      	ldr	r2, [r3, #0]
 80036b6:	68bb      	ldr	r3, [r7, #8]
 80036b8:	011b      	lsls	r3, r3, #4
 80036ba:	4413      	add	r3, r2
 80036bc:	f503 73dc 	add.w	r3, r3, #440	; 0x1b8
 80036c0:	681b      	ldr	r3, [r3, #0]
 80036c2:	0e1a      	lsrs	r2, r3, #24
 80036c4:	683b      	ldr	r3, [r7, #0]
 80036c6:	3303      	adds	r3, #3
 80036c8:	b2d2      	uxtb	r2, r2
 80036ca:	701a      	strb	r2, [r3, #0]
    aData[4] = (uint8_t)((CAN_RDH0R_DATA4 & hcan->Instance->sFIFOMailBox[RxFifo].RDHR) >> CAN_RDH0R_DATA4_Pos);
 80036cc:	68fb      	ldr	r3, [r7, #12]
 80036ce:	681a      	ldr	r2, [r3, #0]
 80036d0:	68bb      	ldr	r3, [r7, #8]
 80036d2:	011b      	lsls	r3, r3, #4
 80036d4:	4413      	add	r3, r2
 80036d6:	f503 73de 	add.w	r3, r3, #444	; 0x1bc
 80036da:	681a      	ldr	r2, [r3, #0]
 80036dc:	683b      	ldr	r3, [r7, #0]
 80036de:	3304      	adds	r3, #4
 80036e0:	b2d2      	uxtb	r2, r2
 80036e2:	701a      	strb	r2, [r3, #0]
    aData[5] = (uint8_t)((CAN_RDH0R_DATA5 & hcan->Instance->sFIFOMailBox[RxFifo].RDHR) >> CAN_RDH0R_DATA5_Pos);
 80036e4:	68fb      	ldr	r3, [r7, #12]
 80036e6:	681a      	ldr	r2, [r3, #0]
 80036e8:	68bb      	ldr	r3, [r7, #8]
 80036ea:	011b      	lsls	r3, r3, #4
 80036ec:	4413      	add	r3, r2
 80036ee:	f503 73de 	add.w	r3, r3, #444	; 0x1bc
 80036f2:	681b      	ldr	r3, [r3, #0]
 80036f4:	0a1a      	lsrs	r2, r3, #8
 80036f6:	683b      	ldr	r3, [r7, #0]
 80036f8:	3305      	adds	r3, #5
 80036fa:	b2d2      	uxtb	r2, r2
 80036fc:	701a      	strb	r2, [r3, #0]
    aData[6] = (uint8_t)((CAN_RDH0R_DATA6 & hcan->Instance->sFIFOMailBox[RxFifo].RDHR) >> CAN_RDH0R_DATA6_Pos);
 80036fe:	68fb      	ldr	r3, [r7, #12]
 8003700:	681a      	ldr	r2, [r3, #0]
 8003702:	68bb      	ldr	r3, [r7, #8]
 8003704:	011b      	lsls	r3, r3, #4
 8003706:	4413      	add	r3, r2
 8003708:	f503 73de 	add.w	r3, r3, #444	; 0x1bc
 800370c:	681b      	ldr	r3, [r3, #0]
 800370e:	0c1a      	lsrs	r2, r3, #16
 8003710:	683b      	ldr	r3, [r7, #0]
 8003712:	3306      	adds	r3, #6
 8003714:	b2d2      	uxtb	r2, r2
 8003716:	701a      	strb	r2, [r3, #0]
    aData[7] = (uint8_t)((CAN_RDH0R_DATA7 & hcan->Instance->sFIFOMailBox[RxFifo].RDHR) >> CAN_RDH0R_DATA7_Pos);
 8003718:	68fb      	ldr	r3, [r7, #12]
 800371a:	681a      	ldr	r2, [r3, #0]
 800371c:	68bb      	ldr	r3, [r7, #8]
 800371e:	011b      	lsls	r3, r3, #4
 8003720:	4413      	add	r3, r2
 8003722:	f503 73de 	add.w	r3, r3, #444	; 0x1bc
 8003726:	681b      	ldr	r3, [r3, #0]
 8003728:	0e1a      	lsrs	r2, r3, #24
 800372a:	683b      	ldr	r3, [r7, #0]
 800372c:	3307      	adds	r3, #7
 800372e:	b2d2      	uxtb	r2, r2
 8003730:	701a      	strb	r2, [r3, #0]

    /* Release the FIFO */
    if (RxFifo == CAN_RX_FIFO0) /* Rx element is assigned to Rx FIFO 0 */
 8003732:	68bb      	ldr	r3, [r7, #8]
 8003734:	2b00      	cmp	r3, #0
 8003736:	d108      	bne.n	800374a <HAL_CAN_GetRxMessage+0x216>
    {
      /* Release RX FIFO 0 */
      SET_BIT(hcan->Instance->RF0R, CAN_RF0R_RFOM0);
 8003738:	68fb      	ldr	r3, [r7, #12]
 800373a:	681b      	ldr	r3, [r3, #0]
 800373c:	68da      	ldr	r2, [r3, #12]
 800373e:	68fb      	ldr	r3, [r7, #12]
 8003740:	681b      	ldr	r3, [r3, #0]
 8003742:	f042 0220 	orr.w	r2, r2, #32
 8003746:	60da      	str	r2, [r3, #12]
 8003748:	e007      	b.n	800375a <HAL_CAN_GetRxMessage+0x226>
    }
    else /* Rx element is assigned to Rx FIFO 1 */
    {
      /* Release RX FIFO 1 */
      SET_BIT(hcan->Instance->RF1R, CAN_RF1R_RFOM1);
 800374a:	68fb      	ldr	r3, [r7, #12]
 800374c:	681b      	ldr	r3, [r3, #0]
 800374e:	691a      	ldr	r2, [r3, #16]
 8003750:	68fb      	ldr	r3, [r7, #12]
 8003752:	681b      	ldr	r3, [r3, #0]
 8003754:	f042 0220 	orr.w	r2, r2, #32
 8003758:	611a      	str	r2, [r3, #16]
    }

    /* Return function status */
    return HAL_OK;
 800375a:	2300      	movs	r3, #0
 800375c:	e006      	b.n	800376c <HAL_CAN_GetRxMessage+0x238>
  }
  else
  {
    /* Update error code */
    hcan->ErrorCode |= HAL_CAN_ERROR_NOT_INITIALIZED;
 800375e:	68fb      	ldr	r3, [r7, #12]
 8003760:	6a5b      	ldr	r3, [r3, #36]	; 0x24
 8003762:	f443 2280 	orr.w	r2, r3, #262144	; 0x40000
 8003766:	68fb      	ldr	r3, [r7, #12]
 8003768:	625a      	str	r2, [r3, #36]	; 0x24

    return HAL_ERROR;
 800376a:	2301      	movs	r3, #1
  }
}
 800376c:	4618      	mov	r0, r3
 800376e:	371c      	adds	r7, #28
 8003770:	46bd      	mov	sp, r7
 8003772:	f85d 7b04 	ldr.w	r7, [sp], #4
 8003776:	4770      	bx	lr

08003778 <HAL_CAN_ActivateNotification>:
  * @param  ActiveITs indicates which interrupts will be enabled.
  *         This parameter can be any combination of @arg CAN_Interrupts.
  * @retval HAL status
  */
HAL_StatusTypeDef HAL_CAN_ActivateNotification(CAN_HandleTypeDef *hcan, uint32_t ActiveITs)
{
 8003778:	b480      	push	{r7}
 800377a:	b085      	sub	sp, #20
 800377c:	af00      	add	r7, sp, #0
 800377e:	6078      	str	r0, [r7, #4]
 8003780:	6039      	str	r1, [r7, #0]
  HAL_CAN_StateTypeDef state = hcan->State;
 8003782:	687b      	ldr	r3, [r7, #4]
 8003784:	f893 3020 	ldrb.w	r3, [r3, #32]
 8003788:	73fb      	strb	r3, [r7, #15]

  /* Check function parameters */
  assert_param(IS_CAN_IT(ActiveITs));

  if ((state == HAL_CAN_STATE_READY) ||
 800378a:	7bfb      	ldrb	r3, [r7, #15]
 800378c:	2b01      	cmp	r3, #1
 800378e:	d002      	beq.n	8003796 <HAL_CAN_ActivateNotification+0x1e>
 8003790:	7bfb      	ldrb	r3, [r7, #15]
 8003792:	2b02      	cmp	r3, #2
 8003794:	d109      	bne.n	80037aa <HAL_CAN_ActivateNotification+0x32>
      (state == HAL_CAN_STATE_LISTENING))
  {
    /* Enable the selected interrupts */
    __HAL_CAN_ENABLE_IT(hcan, ActiveITs);
 8003796:	687b      	ldr	r3, [r7, #4]
 8003798:	681b      	ldr	r3, [r3, #0]
 800379a:	6959      	ldr	r1, [r3, #20]
 800379c:	687b      	ldr	r3, [r7, #4]
 800379e:	681b      	ldr	r3, [r3, #0]
 80037a0:	683a      	ldr	r2, [r7, #0]
 80037a2:	430a      	orrs	r2, r1
 80037a4:	615a      	str	r2, [r3, #20]

    /* Return function status */
    return HAL_OK;
 80037a6:	2300      	movs	r3, #0
 80037a8:	e006      	b.n	80037b8 <HAL_CAN_ActivateNotification+0x40>
  }
  else
  {
    /* Update error code */
    hcan->ErrorCode |= HAL_CAN_ERROR_NOT_INITIALIZED;
 80037aa:	687b      	ldr	r3, [r7, #4]
 80037ac:	6a5b      	ldr	r3, [r3, #36]	; 0x24
 80037ae:	f443 2280 	orr.w	r2, r3, #262144	; 0x40000
 80037b2:	687b      	ldr	r3, [r7, #4]
 80037b4:	625a      	str	r2, [r3, #36]	; 0x24

    return HAL_ERROR;
 80037b6:	2301      	movs	r3, #1
  }
}
 80037b8:	4618      	mov	r0, r3
 80037ba:	3714      	adds	r7, #20
 80037bc:	46bd      	mov	sp, r7
 80037be:	f85d 7b04 	ldr.w	r7, [sp], #4
 80037c2:	4770      	bx	lr

080037c4 <HAL_CAN_IRQHandler>:
  * @param  hcan pointer to a CAN_HandleTypeDef structure that contains
  *         the configuration information for the specified CAN.
  * @retval None
  */
void HAL_CAN_IRQHandler(CAN_HandleTypeDef *hcan)
{
 80037c4:	b580      	push	{r7, lr}
 80037c6:	b08a      	sub	sp, #40	; 0x28
 80037c8:	af00      	add	r7, sp, #0
 80037ca:	6078      	str	r0, [r7, #4]
  uint32_t errorcode = HAL_CAN_ERROR_NONE;
 80037cc:	2300      	movs	r3, #0
 80037ce:	627b      	str	r3, [r7, #36]	; 0x24
  uint32_t interrupts = READ_REG(hcan->Instance->IER);
 80037d0:	687b      	ldr	r3, [r7, #4]
 80037d2:	681b      	ldr	r3, [r3, #0]
 80037d4:	695b      	ldr	r3, [r3, #20]
 80037d6:	623b      	str	r3, [r7, #32]
  uint32_t msrflags = READ_REG(hcan->Instance->MSR);
 80037d8:	687b      	ldr	r3, [r7, #4]
 80037da:	681b      	ldr	r3, [r3, #0]
 80037dc:	685b      	ldr	r3, [r3, #4]
 80037de:	61fb      	str	r3, [r7, #28]
  uint32_t tsrflags = READ_REG(hcan->Instance->TSR);
 80037e0:	687b      	ldr	r3, [r7, #4]
 80037e2:	681b      	ldr	r3, [r3, #0]
 80037e4:	689b      	ldr	r3, [r3, #8]
 80037e6:	61bb      	str	r3, [r7, #24]
  uint32_t rf0rflags = READ_REG(hcan->Instance->RF0R);
 80037e8:	687b      	ldr	r3, [r7, #4]
 80037ea:	681b      	ldr	r3, [r3, #0]
 80037ec:	68db      	ldr	r3, [r3, #12]
 80037ee:	617b      	str	r3, [r7, #20]
  uint32_t rf1rflags = READ_REG(hcan->Instance->RF1R);
 80037f0:	687b      	ldr	r3, [r7, #4]
 80037f2:	681b      	ldr	r3, [r3, #0]
 80037f4:	691b      	ldr	r3, [r3, #16]
 80037f6:	613b      	str	r3, [r7, #16]
  uint32_t esrflags = READ_REG(hcan->Instance->ESR);
 80037f8:	687b      	ldr	r3, [r7, #4]
 80037fa:	681b      	ldr	r3, [r3, #0]
 80037fc:	699b      	ldr	r3, [r3, #24]
 80037fe:	60fb      	str	r3, [r7, #12]

  /* Transmit Mailbox empty interrupt management *****************************/
  if ((interrupts & CAN_IT_TX_MAILBOX_EMPTY) != 0U)
 8003800:	6a3b      	ldr	r3, [r7, #32]
 8003802:	f003 0301 	and.w	r3, r3, #1
 8003806:	2b00      	cmp	r3, #0
 8003808:	d07c      	beq.n	8003904 <HAL_CAN_IRQHandler+0x140>
  {
    /* Transmit Mailbox 0 management *****************************************/
    if ((tsrflags & CAN_TSR_RQCP0) != 0U)
 800380a:	69bb      	ldr	r3, [r7, #24]
 800380c:	f003 0301 	and.w	r3, r3, #1
 8003810:	2b00      	cmp	r3, #0
 8003812:	d023      	beq.n	800385c <HAL_CAN_IRQHandler+0x98>
    {
      /* Clear the Transmission Complete flag (and TXOK0,ALST0,TERR0 bits) */
      __HAL_CAN_CLEAR_FLAG(hcan, CAN_FLAG_RQCP0);
 8003814:	687b      	ldr	r3, [r7, #4]
 8003816:	681b      	ldr	r3, [r3, #0]
 8003818:	2201      	movs	r2, #1
 800381a:	609a      	str	r2, [r3, #8]

      if ((tsrflags & CAN_TSR_TXOK0) != 0U)
 800381c:	69bb      	ldr	r3, [r7, #24]
 800381e:	f003 0302 	and.w	r3, r3, #2
 8003822:	2b00      	cmp	r3, #0
 8003824:	d003      	beq.n	800382e <HAL_CAN_IRQHandler+0x6a>
#if USE_HAL_CAN_REGISTER_CALLBACKS == 1
        /* Call registered callback*/
        hcan->TxMailbox0CompleteCallback(hcan);
#else
        /* Call weak (surcharged) callback */
        HAL_CAN_TxMailbox0CompleteCallback(hcan);
 8003826:	6878      	ldr	r0, [r7, #4]
 8003828:	f000 f983 	bl	8003b32 <HAL_CAN_TxMailbox0CompleteCallback>
 800382c:	e016      	b.n	800385c <HAL_CAN_IRQHandler+0x98>
#endif /* USE_HAL_CAN_REGISTER_CALLBACKS */
      }
      else
      {
        if ((tsrflags & CAN_TSR_ALST0) != 0U)
 800382e:	69bb      	ldr	r3, [r7, #24]
 8003830:	f003 0304 	and.w	r3, r3, #4
 8003834:	2b00      	cmp	r3, #0
 8003836:	d004      	beq.n	8003842 <HAL_CAN_IRQHandler+0x7e>
        {
          /* Update error code */
          errorcode |= HAL_CAN_ERROR_TX_ALST0;
 8003838:	6a7b      	ldr	r3, [r7, #36]	; 0x24
 800383a:	f443 6300 	orr.w	r3, r3, #2048	; 0x800
 800383e:	627b      	str	r3, [r7, #36]	; 0x24
 8003840:	e00c      	b.n	800385c <HAL_CAN_IRQHandler+0x98>
        }
        else if ((tsrflags & CAN_TSR_TERR0) != 0U)
 8003842:	69bb      	ldr	r3, [r7, #24]
 8003844:	f003 0308 	and.w	r3, r3, #8
 8003848:	2b00      	cmp	r3, #0
 800384a:	d004      	beq.n	8003856 <HAL_CAN_IRQHandler+0x92>
        {
          /* Update error code */
          errorcode |= HAL_CAN_ERROR_TX_TERR0;
 800384c:	6a7b      	ldr	r3, [r7, #36]	; 0x24
 800384e:	f443 5380 	orr.w	r3, r3, #4096	; 0x1000
 8003852:	627b      	str	r3, [r7, #36]	; 0x24
 8003854:	e002      	b.n	800385c <HAL_CAN_IRQHandler+0x98>
#if USE_HAL_CAN_REGISTER_CALLBACKS == 1
          /* Call registered callback*/
          hcan->TxMailbox0AbortCallback(hcan);
#else
          /* Call weak (surcharged) callback */
          HAL_CAN_TxMailbox0AbortCallback(hcan);
 8003856:	6878      	ldr	r0, [r7, #4]
 8003858:	f000 f989 	bl	8003b6e <HAL_CAN_TxMailbox0AbortCallback>
        }
      }
    }

    /* Transmit Mailbox 1 management *****************************************/
    if ((tsrflags & CAN_TSR_RQCP1) != 0U)
 800385c:	69bb      	ldr	r3, [r7, #24]
 800385e:	f403 7380 	and.w	r3, r3, #256	; 0x100
 8003862:	2b00      	cmp	r3, #0
 8003864:	d024      	beq.n	80038b0 <HAL_CAN_IRQHandler+0xec>
    {
      /* Clear the Transmission Complete flag (and TXOK1,ALST1,TERR1 bits) */
      __HAL_CAN_CLEAR_FLAG(hcan, CAN_FLAG_RQCP1);
 8003866:	687b      	ldr	r3, [r7, #4]
 8003868:	681b      	ldr	r3, [r3, #0]
 800386a:	f44f 7280 	mov.w	r2, #256	; 0x100
 800386e:	609a      	str	r2, [r3, #8]

      if ((tsrflags & CAN_TSR_TXOK1) != 0U)
 8003870:	69bb      	ldr	r3, [r7, #24]
 8003872:	f403 7300 	and.w	r3, r3, #512	; 0x200
 8003876:	2b00      	cmp	r3, #0
 8003878:	d003      	beq.n	8003882 <HAL_CAN_IRQHandler+0xbe>
#if USE_HAL_CAN_REGISTER_CALLBACKS == 1
        /* Call registered callback*/
        hcan->TxMailbox1CompleteCallback(hcan);
#else
        /* Call weak (surcharged) callback */
        HAL_CAN_TxMailbox1CompleteCallback(hcan);
 800387a:	6878      	ldr	r0, [r7, #4]
 800387c:	f000 f963 	bl	8003b46 <HAL_CAN_TxMailbox1CompleteCallback>
 8003880:	e016      	b.n	80038b0 <HAL_CAN_IRQHandler+0xec>
#endif /* USE_HAL_CAN_REGISTER_CALLBACKS */
      }
      else
      {
        if ((tsrflags & CAN_TSR_ALST1) != 0U)
 8003882:	69bb      	ldr	r3, [r7, #24]
 8003884:	f403 6380 	and.w	r3, r3, #1024	; 0x400
 8003888:	2b00      	cmp	r3, #0
 800388a:	d004      	beq.n	8003896 <HAL_CAN_IRQHandler+0xd2>
        {
          /* Update error code */
          errorcode |= HAL_CAN_ERROR_TX_ALST1;
 800388c:	6a7b      	ldr	r3, [r7, #36]	; 0x24
 800388e:	f443 5300 	orr.w	r3, r3, #8192	; 0x2000
 8003892:	627b      	str	r3, [r7, #36]	; 0x24
 8003894:	e00c      	b.n	80038b0 <HAL_CAN_IRQHandler+0xec>
        }
        else if ((tsrflags & CAN_TSR_TERR1) != 0U)
 8003896:	69bb      	ldr	r3, [r7, #24]
 8003898:	f403 6300 	and.w	r3, r3, #2048	; 0x800
 800389c:	2b00      	cmp	r3, #0
 800389e:	d004      	beq.n	80038aa <HAL_CAN_IRQHandler+0xe6>
        {
          /* Update error code */
          errorcode |= HAL_CAN_ERROR_TX_TERR1;
 80038a0:	6a7b      	ldr	r3, [r7, #36]	; 0x24
 80038a2:	f443 4380 	orr.w	r3, r3, #16384	; 0x4000
 80038a6:	627b      	str	r3, [r7, #36]	; 0x24
 80038a8:	e002      	b.n	80038b0 <HAL_CAN_IRQHandler+0xec>
#if USE_HAL_CAN_REGISTER_CALLBACKS == 1
          /* Call registered callback*/
          hcan->TxMailbox1AbortCallback(hcan);
#else
          /* Call weak (surcharged) callback */
          HAL_CAN_TxMailbox1AbortCallback(hcan);
 80038aa:	6878      	ldr	r0, [r7, #4]
 80038ac:	f000 f969 	bl	8003b82 <HAL_CAN_TxMailbox1AbortCallback>
        }
      }
    }

    /* Transmit Mailbox 2 management *****************************************/
    if ((tsrflags & CAN_TSR_RQCP2) != 0U)
 80038b0:	69bb      	ldr	r3, [r7, #24]
 80038b2:	f403 3380 	and.w	r3, r3, #65536	; 0x10000
 80038b6:	2b00      	cmp	r3, #0
 80038b8:	d024      	beq.n	8003904 <HAL_CAN_IRQHandler+0x140>
    {
      /* Clear the Transmission Complete flag (and TXOK2,ALST2,TERR2 bits) */
      __HAL_CAN_CLEAR_FLAG(hcan, CAN_FLAG_RQCP2);
 80038ba:	687b      	ldr	r3, [r7, #4]
 80038bc:	681b      	ldr	r3, [r3, #0]
 80038be:	f44f 3280 	mov.w	r2, #65536	; 0x10000
 80038c2:	609a      	str	r2, [r3, #8]

      if ((tsrflags & CAN_TSR_TXOK2) != 0U)
 80038c4:	69bb      	ldr	r3, [r7, #24]
 80038c6:	f403 3300 	and.w	r3, r3, #131072	; 0x20000
 80038ca:	2b00      	cmp	r3, #0
 80038cc:	d003      	beq.n	80038d6 <HAL_CAN_IRQHandler+0x112>
#if USE_HAL_CAN_REGISTER_CALLBACKS == 1
        /* Call registered callback*/
        hcan->TxMailbox2CompleteCallback(hcan);
#else
        /* Call weak (surcharged) callback */
        HAL_CAN_TxMailbox2CompleteCallback(hcan);
 80038ce:	6878      	ldr	r0, [r7, #4]
 80038d0:	f000 f943 	bl	8003b5a <HAL_CAN_TxMailbox2CompleteCallback>
 80038d4:	e016      	b.n	8003904 <HAL_CAN_IRQHandler+0x140>
#endif /* USE_HAL_CAN_REGISTER_CALLBACKS */
      }
      else
      {
        if ((tsrflags & CAN_TSR_ALST2) != 0U)
 80038d6:	69bb      	ldr	r3, [r7, #24]
 80038d8:	f403 2380 	and.w	r3, r3, #262144	; 0x40000
 80038dc:	2b00      	cmp	r3, #0
 80038de:	d004      	beq.n	80038ea <HAL_CAN_IRQHandler+0x126>
        {
          /* Update error code */
          errorcode |= HAL_CAN_ERROR_TX_ALST2;
 80038e0:	6a7b      	ldr	r3, [r7, #36]	; 0x24
 80038e2:	f443 4300 	orr.w	r3, r3, #32768	; 0x8000
 80038e6:	627b      	str	r3, [r7, #36]	; 0x24
 80038e8:	e00c      	b.n	8003904 <HAL_CAN_IRQHandler+0x140>
        }
        else if ((tsrflags & CAN_TSR_TERR2) != 0U)
 80038ea:	69bb      	ldr	r3, [r7, #24]
 80038ec:	f403 2300 	and.w	r3, r3, #524288	; 0x80000
 80038f0:	2b00      	cmp	r3, #0
 80038f2:	d004      	beq.n	80038fe <HAL_CAN_IRQHandler+0x13a>
        {
          /* Update error code */
          errorcode |= HAL_CAN_ERROR_TX_TERR2;
 80038f4:	6a7b      	ldr	r3, [r7, #36]	; 0x24
 80038f6:	f443 3380 	orr.w	r3, r3, #65536	; 0x10000
 80038fa:	627b      	str	r3, [r7, #36]	; 0x24
 80038fc:	e002      	b.n	8003904 <HAL_CAN_IRQHandler+0x140>
#if USE_HAL_CAN_REGISTER_CALLBACKS == 1
          /* Call registered callback*/
          hcan->TxMailbox2AbortCallback(hcan);
#else
          /* Call weak (surcharged) callback */
          HAL_CAN_TxMailbox2AbortCallback(hcan);
 80038fe:	6878      	ldr	r0, [r7, #4]
 8003900:	f000 f949 	bl	8003b96 <HAL_CAN_TxMailbox2AbortCallback>
      }
    }
  }

  /* Receive FIFO 0 overrun interrupt management *****************************/
  if ((interrupts & CAN_IT_RX_FIFO0_OVERRUN) != 0U)
 8003904:	6a3b      	ldr	r3, [r7, #32]
 8003906:	f003 0308 	and.w	r3, r3, #8
 800390a:	2b00      	cmp	r3, #0
 800390c:	d00c      	beq.n	8003928 <HAL_CAN_IRQHandler+0x164>
  {
    if ((rf0rflags & CAN_RF0R_FOVR0) != 0U)
 800390e:	697b      	ldr	r3, [r7, #20]
 8003910:	f003 0310 	and.w	r3, r3, #16
 8003914:	2b00      	cmp	r3, #0
 8003916:	d007      	beq.n	8003928 <HAL_CAN_IRQHandler+0x164>
    {
      /* Set CAN error code to Rx Fifo 0 overrun error */
      errorcode |= HAL_CAN_ERROR_RX_FOV0;
 8003918:	6a7b      	ldr	r3, [r7, #36]	; 0x24
 800391a:	f443 7300 	orr.w	r3, r3, #512	; 0x200
 800391e:	627b      	str	r3, [r7, #36]	; 0x24

      /* Clear FIFO0 Overrun Flag */
      __HAL_CAN_CLEAR_FLAG(hcan, CAN_FLAG_FOV0);
 8003920:	687b      	ldr	r3, [r7, #4]
 8003922:	681b      	ldr	r3, [r3, #0]
 8003924:	2210      	movs	r2, #16
 8003926:	60da      	str	r2, [r3, #12]
    }
  }

  /* Receive FIFO 0 full interrupt management ********************************/
  if ((interrupts & CAN_IT_RX_FIFO0_FULL) != 0U)
 8003928:	6a3b      	ldr	r3, [r7, #32]
 800392a:	f003 0304 	and.w	r3, r3, #4
 800392e:	2b00      	cmp	r3, #0
 8003930:	d00b      	beq.n	800394a <HAL_CAN_IRQHandler+0x186>
  {
    if ((rf0rflags & CAN_RF0R_FULL0) != 0U)
 8003932:	697b      	ldr	r3, [r7, #20]
 8003934:	f003 0308 	and.w	r3, r3, #8
 8003938:	2b00      	cmp	r3, #0
 800393a:	d006      	beq.n	800394a <HAL_CAN_IRQHandler+0x186>
    {
      /* Clear FIFO 0 full Flag */
      __HAL_CAN_CLEAR_FLAG(hcan, CAN_FLAG_FF0);
 800393c:	687b      	ldr	r3, [r7, #4]
 800393e:	681b      	ldr	r3, [r3, #0]
 8003940:	2208      	movs	r2, #8
 8003942:	60da      	str	r2, [r3, #12]
#if USE_HAL_CAN_REGISTER_CALLBACKS == 1
      /* Call registered callback*/
      hcan->RxFifo0FullCallback(hcan);
#else
      /* Call weak (surcharged) callback */
      HAL_CAN_RxFifo0FullCallback(hcan);
 8003944:	6878      	ldr	r0, [r7, #4]
 8003946:	f000 f930 	bl	8003baa <HAL_CAN_RxFifo0FullCallback>
#endif /* USE_HAL_CAN_REGISTER_CALLBACKS */
    }
  }

  /* Receive FIFO 0 message pending interrupt management *********************/
  if ((interrupts & CAN_IT_RX_FIFO0_MSG_PENDING) != 0U)
 800394a:	6a3b      	ldr	r3, [r7, #32]
 800394c:	f003 0302 	and.w	r3, r3, #2
 8003950:	2b00      	cmp	r3, #0
 8003952:	d009      	beq.n	8003968 <HAL_CAN_IRQHandler+0x1a4>
  {
    /* Check if message is still pending */
    if ((hcan->Instance->RF0R & CAN_RF0R_FMP0) != 0U)
 8003954:	687b      	ldr	r3, [r7, #4]
 8003956:	681b      	ldr	r3, [r3, #0]
 8003958:	68db      	ldr	r3, [r3, #12]
 800395a:	f003 0303 	and.w	r3, r3, #3
 800395e:	2b00      	cmp	r3, #0
 8003960:	d002      	beq.n	8003968 <HAL_CAN_IRQHandler+0x1a4>
#if USE_HAL_CAN_REGISTER_CALLBACKS == 1
      /* Call registered callback*/
      hcan->RxFifo0MsgPendingCallback(hcan);
#else
      /* Call weak (surcharged) callback */
      HAL_CAN_RxFifo0MsgPendingCallback(hcan);
 8003962:	6878      	ldr	r0, [r7, #4]
 8003964:	f7ff f978 	bl	8002c58 <HAL_CAN_RxFifo0MsgPendingCallback>
#endif /* USE_HAL_CAN_REGISTER_CALLBACKS */
    }
  }

  /* Receive FIFO 1 overrun interrupt management *****************************/
  if ((interrupts & CAN_IT_RX_FIFO1_OVERRUN) != 0U)
 8003968:	6a3b      	ldr	r3, [r7, #32]
 800396a:	f003 0340 	and.w	r3, r3, #64	; 0x40
 800396e:	2b00      	cmp	r3, #0
 8003970:	d00c      	beq.n	800398c <HAL_CAN_IRQHandler+0x1c8>
  {
    if ((rf1rflags & CAN_RF1R_FOVR1) != 0U)
 8003972:	693b      	ldr	r3, [r7, #16]
 8003974:	f003 0310 	and.w	r3, r3, #16
 8003978:	2b00      	cmp	r3, #0
 800397a:	d007      	beq.n	800398c <HAL_CAN_IRQHandler+0x1c8>
    {
      /* Set CAN error code to Rx Fifo 1 overrun error */
      errorcode |= HAL_CAN_ERROR_RX_FOV1;
 800397c:	6a7b      	ldr	r3, [r7, #36]	; 0x24
 800397e:	f443 6380 	orr.w	r3, r3, #1024	; 0x400
 8003982:	627b      	str	r3, [r7, #36]	; 0x24

      /* Clear FIFO1 Overrun Flag */
      __HAL_CAN_CLEAR_FLAG(hcan, CAN_FLAG_FOV1);
 8003984:	687b      	ldr	r3, [r7, #4]
 8003986:	681b      	ldr	r3, [r3, #0]
 8003988:	2210      	movs	r2, #16
 800398a:	611a      	str	r2, [r3, #16]
    }
  }

  /* Receive FIFO 1 full interrupt management ********************************/
  if ((interrupts & CAN_IT_RX_FIFO1_FULL) != 0U)
 800398c:	6a3b      	ldr	r3, [r7, #32]
 800398e:	f003 0320 	and.w	r3, r3, #32
 8003992:	2b00      	cmp	r3, #0
 8003994:	d00b      	beq.n	80039ae <HAL_CAN_IRQHandler+0x1ea>
  {
    if ((rf1rflags & CAN_RF1R_FULL1) != 0U)
 8003996:	693b      	ldr	r3, [r7, #16]
 8003998:	f003 0308 	and.w	r3, r3, #8
 800399c:	2b00      	cmp	r3, #0
 800399e:	d006      	beq.n	80039ae <HAL_CAN_IRQHandler+0x1ea>
    {
      /* Clear FIFO 1 full Flag */
      __HAL_CAN_CLEAR_FLAG(hcan, CAN_FLAG_FF1);
 80039a0:	687b      	ldr	r3, [r7, #4]
 80039a2:	681b      	ldr	r3, [r3, #0]
 80039a4:	2208      	movs	r2, #8
 80039a6:	611a      	str	r2, [r3, #16]
#if USE_HAL_CAN_REGISTER_CALLBACKS == 1
      /* Call registered callback*/
      hcan->RxFifo1FullCallback(hcan);
#else
      /* Call weak (surcharged) callback */
      HAL_CAN_RxFifo1FullCallback(hcan);
 80039a8:	6878      	ldr	r0, [r7, #4]
 80039aa:	f000 f912 	bl	8003bd2 <HAL_CAN_RxFifo1FullCallback>
#endif /* USE_HAL_CAN_REGISTER_CALLBACKS */
    }
  }

  /* Receive FIFO 1 message pending interrupt management *********************/
  if ((interrupts & CAN_IT_RX_FIFO1_MSG_PENDING) != 0U)
 80039ae:	6a3b      	ldr	r3, [r7, #32]
 80039b0:	f003 0310 	and.w	r3, r3, #16
 80039b4:	2b00      	cmp	r3, #0
 80039b6:	d009      	beq.n	80039cc <HAL_CAN_IRQHandler+0x208>
  {
    /* Check if message is still pending */
    if ((hcan->Instance->RF1R & CAN_RF1R_FMP1) != 0U)
 80039b8:	687b      	ldr	r3, [r7, #4]
 80039ba:	681b      	ldr	r3, [r3, #0]
 80039bc:	691b      	ldr	r3, [r3, #16]
 80039be:	f003 0303 	and.w	r3, r3, #3
 80039c2:	2b00      	cmp	r3, #0
 80039c4:	d002      	beq.n	80039cc <HAL_CAN_IRQHandler+0x208>
#if USE_HAL_CAN_REGISTER_CALLBACKS == 1
      /* Call registered callback*/
      hcan->RxFifo1MsgPendingCallback(hcan);
#else
      /* Call weak (surcharged) callback */
      HAL_CAN_RxFifo1MsgPendingCallback(hcan);
 80039c6:	6878      	ldr	r0, [r7, #4]
 80039c8:	f000 f8f9 	bl	8003bbe <HAL_CAN_RxFifo1MsgPendingCallback>
#endif /* USE_HAL_CAN_REGISTER_CALLBACKS */
    }
  }

  /* Sleep interrupt management *********************************************/
  if ((interrupts & CAN_IT_SLEEP_ACK) != 0U)
 80039cc:	6a3b      	ldr	r3, [r7, #32]
 80039ce:	f403 3300 	and.w	r3, r3, #131072	; 0x20000
 80039d2:	2b00      	cmp	r3, #0
 80039d4:	d00b      	beq.n	80039ee <HAL_CAN_IRQHandler+0x22a>
  {
    if ((msrflags & CAN_MSR_SLAKI) != 0U)
 80039d6:	69fb      	ldr	r3, [r7, #28]
 80039d8:	f003 0310 	and.w	r3, r3, #16
 80039dc:	2b00      	cmp	r3, #0
 80039de:	d006      	beq.n	80039ee <HAL_CAN_IRQHandler+0x22a>
    {
      /* Clear Sleep interrupt Flag */
      __HAL_CAN_CLEAR_FLAG(hcan, CAN_FLAG_SLAKI);
 80039e0:	687b      	ldr	r3, [r7, #4]
 80039e2:	681b      	ldr	r3, [r3, #0]
 80039e4:	2210      	movs	r2, #16
 80039e6:	605a      	str	r2, [r3, #4]
#if USE_HAL_CAN_REGISTER_CALLBACKS == 1
      /* Call registered callback*/
      hcan->SleepCallback(hcan);
#else
      /* Call weak (surcharged) callback */
      HAL_CAN_SleepCallback(hcan);
 80039e8:	6878      	ldr	r0, [r7, #4]
 80039ea:	f000 f8fc 	bl	8003be6 <HAL_CAN_SleepCallback>
#endif /* USE_HAL_CAN_REGISTER_CALLBACKS */
    }
  }

  /* WakeUp interrupt management *********************************************/
  if ((interrupts & CAN_IT_WAKEUP) != 0U)
 80039ee:	6a3b      	ldr	r3, [r7, #32]
 80039f0:	f403 3380 	and.w	r3, r3, #65536	; 0x10000
 80039f4:	2b00      	cmp	r3, #0
 80039f6:	d00b      	beq.n	8003a10 <HAL_CAN_IRQHandler+0x24c>
  {
    if ((msrflags & CAN_MSR_WKUI) != 0U)
 80039f8:	69fb      	ldr	r3, [r7, #28]
 80039fa:	f003 0308 	and.w	r3, r3, #8
 80039fe:	2b00      	cmp	r3, #0
 8003a00:	d006      	beq.n	8003a10 <HAL_CAN_IRQHandler+0x24c>
    {
      /* Clear WakeUp Flag */
      __HAL_CAN_CLEAR_FLAG(hcan, CAN_FLAG_WKU);
 8003a02:	687b      	ldr	r3, [r7, #4]
 8003a04:	681b      	ldr	r3, [r3, #0]
 8003a06:	2208      	movs	r2, #8
 8003a08:	605a      	str	r2, [r3, #4]
#if USE_HAL_CAN_REGISTER_CALLBACKS == 1
      /* Call registered callback*/
      hcan->WakeUpFromRxMsgCallback(hcan);
#else
      /* Call weak (surcharged) callback */
      HAL_CAN_WakeUpFromRxMsgCallback(hcan);
 8003a0a:	6878      	ldr	r0, [r7, #4]
 8003a0c:	f000 f8f5 	bl	8003bfa <HAL_CAN_WakeUpFromRxMsgCallback>
#endif /* USE_HAL_CAN_REGISTER_CALLBACKS */
    }
  }

  /* Error interrupts management *********************************************/
  if ((interrupts & CAN_IT_ERROR) != 0U)
 8003a10:	6a3b      	ldr	r3, [r7, #32]
 8003a12:	f403 4300 	and.w	r3, r3, #32768	; 0x8000
 8003a16:	2b00      	cmp	r3, #0
 8003a18:	d07b      	beq.n	8003b12 <HAL_CAN_IRQHandler+0x34e>
  {
    if ((msrflags & CAN_MSR_ERRI) != 0U)
 8003a1a:	69fb      	ldr	r3, [r7, #28]
 8003a1c:	f003 0304 	and.w	r3, r3, #4
 8003a20:	2b00      	cmp	r3, #0
 8003a22:	d072      	beq.n	8003b0a <HAL_CAN_IRQHandler+0x346>
    {
      /* Check Error Warning Flag */
      if (((interrupts & CAN_IT_ERROR_WARNING) != 0U) &&
 8003a24:	6a3b      	ldr	r3, [r7, #32]
 8003a26:	f403 7380 	and.w	r3, r3, #256	; 0x100
 8003a2a:	2b00      	cmp	r3, #0
 8003a2c:	d008      	beq.n	8003a40 <HAL_CAN_IRQHandler+0x27c>
          ((esrflags & CAN_ESR_EWGF) != 0U))
 8003a2e:	68fb      	ldr	r3, [r7, #12]
 8003a30:	f003 0301 	and.w	r3, r3, #1
      if (((interrupts & CAN_IT_ERROR_WARNING) != 0U) &&
 8003a34:	2b00      	cmp	r3, #0
 8003a36:	d003      	beq.n	8003a40 <HAL_CAN_IRQHandler+0x27c>
      {
        /* Set CAN error code to Error Warning */
        errorcode |= HAL_CAN_ERROR_EWG;
 8003a38:	6a7b      	ldr	r3, [r7, #36]	; 0x24
 8003a3a:	f043 0301 	orr.w	r3, r3, #1
 8003a3e:	627b      	str	r3, [r7, #36]	; 0x24

        /* No need for clear of Error Warning Flag as read-only */
      }

      /* Check Error Passive Flag */
      if (((interrupts & CAN_IT_ERROR_PASSIVE) != 0U) &&
 8003a40:	6a3b      	ldr	r3, [r7, #32]
 8003a42:	f403 7300 	and.w	r3, r3, #512	; 0x200
 8003a46:	2b00      	cmp	r3, #0
 8003a48:	d008      	beq.n	8003a5c <HAL_CAN_IRQHandler+0x298>
          ((esrflags & CAN_ESR_EPVF) != 0U))
 8003a4a:	68fb      	ldr	r3, [r7, #12]
 8003a4c:	f003 0302 	and.w	r3, r3, #2
      if (((interrupts & CAN_IT_ERROR_PASSIVE) != 0U) &&
 8003a50:	2b00      	cmp	r3, #0
 8003a52:	d003      	beq.n	8003a5c <HAL_CAN_IRQHandler+0x298>
      {
        /* Set CAN error code to Error Passive */
        errorcode |= HAL_CAN_ERROR_EPV;
 8003a54:	6a7b      	ldr	r3, [r7, #36]	; 0x24
 8003a56:	f043 0302 	orr.w	r3, r3, #2
 8003a5a:	627b      	str	r3, [r7, #36]	; 0x24

        /* No need for clear of Error Passive Flag as read-only */
      }

      /* Check Bus-off Flag */
      if (((interrupts & CAN_IT_BUSOFF) != 0U) &&
 8003a5c:	6a3b      	ldr	r3, [r7, #32]
 8003a5e:	f403 6380 	and.w	r3, r3, #1024	; 0x400
 8003a62:	2b00      	cmp	r3, #0
 8003a64:	d008      	beq.n	8003a78 <HAL_CAN_IRQHandler+0x2b4>
          ((esrflags & CAN_ESR_BOFF) != 0U))
 8003a66:	68fb      	ldr	r3, [r7, #12]
 8003a68:	f003 0304 	and.w	r3, r3, #4
      if (((interrupts & CAN_IT_BUSOFF) != 0U) &&
 8003a6c:	2b00      	cmp	r3, #0
 8003a6e:	d003      	beq.n	8003a78 <HAL_CAN_IRQHandler+0x2b4>
      {
        /* Set CAN error code to Bus-Off */
        errorcode |= HAL_CAN_ERROR_BOF;
 8003a70:	6a7b      	ldr	r3, [r7, #36]	; 0x24
 8003a72:	f043 0304 	orr.w	r3, r3, #4
 8003a76:	627b      	str	r3, [r7, #36]	; 0x24

        /* No need for clear of Error Bus-Off as read-only */
      }

      /* Check Last Error Code Flag */
      if (((interrupts & CAN_IT_LAST_ERROR_CODE) != 0U) &&
 8003a78:	6a3b      	ldr	r3, [r7, #32]
 8003a7a:	f403 6300 	and.w	r3, r3, #2048	; 0x800
 8003a7e:	2b00      	cmp	r3, #0
 8003a80:	d043      	beq.n	8003b0a <HAL_CAN_IRQHandler+0x346>
          ((esrflags & CAN_ESR_LEC) != 0U))
 8003a82:	68fb      	ldr	r3, [r7, #12]
 8003a84:	f003 0370 	and.w	r3, r3, #112	; 0x70
      if (((interrupts & CAN_IT_LAST_ERROR_CODE) != 0U) &&
 8003a88:	2b00      	cmp	r3, #0
 8003a8a:	d03e      	beq.n	8003b0a <HAL_CAN_IRQHandler+0x346>
      {
        switch (esrflags & CAN_ESR_LEC)
 8003a8c:	68fb      	ldr	r3, [r7, #12]
 8003a8e:	f003 0370 	and.w	r3, r3, #112	; 0x70
 8003a92:	2b60      	cmp	r3, #96	; 0x60
 8003a94:	d02b      	beq.n	8003aee <HAL_CAN_IRQHandler+0x32a>
 8003a96:	2b60      	cmp	r3, #96	; 0x60
 8003a98:	d82e      	bhi.n	8003af8 <HAL_CAN_IRQHandler+0x334>
 8003a9a:	2b50      	cmp	r3, #80	; 0x50
 8003a9c:	d022      	beq.n	8003ae4 <HAL_CAN_IRQHandler+0x320>
 8003a9e:	2b50      	cmp	r3, #80	; 0x50
 8003aa0:	d82a      	bhi.n	8003af8 <HAL_CAN_IRQHandler+0x334>
 8003aa2:	2b40      	cmp	r3, #64	; 0x40
 8003aa4:	d019      	beq.n	8003ada <HAL_CAN_IRQHandler+0x316>
 8003aa6:	2b40      	cmp	r3, #64	; 0x40
 8003aa8:	d826      	bhi.n	8003af8 <HAL_CAN_IRQHandler+0x334>
 8003aaa:	2b30      	cmp	r3, #48	; 0x30
 8003aac:	d010      	beq.n	8003ad0 <HAL_CAN_IRQHandler+0x30c>
 8003aae:	2b30      	cmp	r3, #48	; 0x30
 8003ab0:	d822      	bhi.n	8003af8 <HAL_CAN_IRQHandler+0x334>
 8003ab2:	2b10      	cmp	r3, #16
 8003ab4:	d002      	beq.n	8003abc <HAL_CAN_IRQHandler+0x2f8>
 8003ab6:	2b20      	cmp	r3, #32
 8003ab8:	d005      	beq.n	8003ac6 <HAL_CAN_IRQHandler+0x302>
          case (CAN_ESR_LEC_2 | CAN_ESR_LEC_1):
            /* Set CAN error code to CRC error */
            errorcode |= HAL_CAN_ERROR_CRC;
            break;
          default:
            break;
 8003aba:	e01d      	b.n	8003af8 <HAL_CAN_IRQHandler+0x334>
            errorcode |= HAL_CAN_ERROR_STF;
 8003abc:	6a7b      	ldr	r3, [r7, #36]	; 0x24
 8003abe:	f043 0308 	orr.w	r3, r3, #8
 8003ac2:	627b      	str	r3, [r7, #36]	; 0x24
            break;
 8003ac4:	e019      	b.n	8003afa <HAL_CAN_IRQHandler+0x336>
            errorcode |= HAL_CAN_ERROR_FOR;
 8003ac6:	6a7b      	ldr	r3, [r7, #36]	; 0x24
 8003ac8:	f043 0310 	orr.w	r3, r3, #16
 8003acc:	627b      	str	r3, [r7, #36]	; 0x24
            break;
 8003ace:	e014      	b.n	8003afa <HAL_CAN_IRQHandler+0x336>
            errorcode |= HAL_CAN_ERROR_ACK;
 8003ad0:	6a7b      	ldr	r3, [r7, #36]	; 0x24
 8003ad2:	f043 0320 	orr.w	r3, r3, #32
 8003ad6:	627b      	str	r3, [r7, #36]	; 0x24
            break;
 8003ad8:	e00f      	b.n	8003afa <HAL_CAN_IRQHandler+0x336>
            errorcode |= HAL_CAN_ERROR_BR;
 8003ada:	6a7b      	ldr	r3, [r7, #36]	; 0x24
 8003adc:	f043 0340 	orr.w	r3, r3, #64	; 0x40
 8003ae0:	627b      	str	r3, [r7, #36]	; 0x24
            break;
 8003ae2:	e00a      	b.n	8003afa <HAL_CAN_IRQHandler+0x336>
            errorcode |= HAL_CAN_ERROR_BD;
 8003ae4:	6a7b      	ldr	r3, [r7, #36]	; 0x24
 8003ae6:	f043 0380 	orr.w	r3, r3, #128	; 0x80
 8003aea:	627b      	str	r3, [r7, #36]	; 0x24
            break;
 8003aec:	e005      	b.n	8003afa <HAL_CAN_IRQHandler+0x336>
            errorcode |= HAL_CAN_ERROR_CRC;
 8003aee:	6a7b      	ldr	r3, [r7, #36]	; 0x24
 8003af0:	f443 7380 	orr.w	r3, r3, #256	; 0x100
 8003af4:	627b      	str	r3, [r7, #36]	; 0x24
            break;
 8003af6:	e000      	b.n	8003afa <HAL_CAN_IRQHandler+0x336>
            break;
 8003af8:	bf00      	nop
        }

        /* Clear Last error code Flag */
        CLEAR_BIT(hcan->Instance->ESR, CAN_ESR_LEC);
 8003afa:	687b      	ldr	r3, [r7, #4]
 8003afc:	681b      	ldr	r3, [r3, #0]
 8003afe:	699a      	ldr	r2, [r3, #24]
 8003b00:	687b      	ldr	r3, [r7, #4]
 8003b02:	681b      	ldr	r3, [r3, #0]
 8003b04:	f022 0270 	bic.w	r2, r2, #112	; 0x70
 8003b08:	619a      	str	r2, [r3, #24]
      }
    }

    /* Clear ERRI Flag */
    __HAL_CAN_CLEAR_FLAG(hcan, CAN_FLAG_ERRI);
 8003b0a:	687b      	ldr	r3, [r7, #4]
 8003b0c:	681b      	ldr	r3, [r3, #0]
 8003b0e:	2204      	movs	r2, #4
 8003b10:	605a      	str	r2, [r3, #4]
  }

  /* Call the Error call Back in case of Errors */
  if (errorcode != HAL_CAN_ERROR_NONE)
 8003b12:	6a7b      	ldr	r3, [r7, #36]	; 0x24
 8003b14:	2b00      	cmp	r3, #0
 8003b16:	d008      	beq.n	8003b2a <HAL_CAN_IRQHandler+0x366>
  {
    /* Update error code in handle */
    hcan->ErrorCode |= errorcode;
 8003b18:	687b      	ldr	r3, [r7, #4]
 8003b1a:	6a5a      	ldr	r2, [r3, #36]	; 0x24
 8003b1c:	6a7b      	ldr	r3, [r7, #36]	; 0x24
 8003b1e:	431a      	orrs	r2, r3
 8003b20:	687b      	ldr	r3, [r7, #4]
 8003b22:	625a      	str	r2, [r3, #36]	; 0x24
#if USE_HAL_CAN_REGISTER_CALLBACKS == 1
    /* Call registered callback*/
    hcan->ErrorCallback(hcan);
#else
    /* Call weak (surcharged) callback */
    HAL_CAN_ErrorCallback(hcan);
 8003b24:	6878      	ldr	r0, [r7, #4]
 8003b26:	f000 f872 	bl	8003c0e <HAL_CAN_ErrorCallback>
#endif /* USE_HAL_CAN_REGISTER_CALLBACKS */
  }
}
 8003b2a:	bf00      	nop
 8003b2c:	3728      	adds	r7, #40	; 0x28
 8003b2e:	46bd      	mov	sp, r7
 8003b30:	bd80      	pop	{r7, pc}

08003b32 <HAL_CAN_TxMailbox0CompleteCallback>:
  * @param  hcan pointer to a CAN_HandleTypeDef structure that contains
  *         the configuration information for the specified CAN.
  * @retval None
  */
__weak void HAL_CAN_TxMailbox0CompleteCallback(CAN_HandleTypeDef *hcan)
{
 8003b32:	b480      	push	{r7}
 8003b34:	b083      	sub	sp, #12
 8003b36:	af00      	add	r7, sp, #0
 8003b38:	6078      	str	r0, [r7, #4]

  /* NOTE : This function Should not be modified, when the callback is needed,
            the HAL_CAN_TxMailbox0CompleteCallback could be implemented in the
            user file
   */
}
 8003b3a:	bf00      	nop
 8003b3c:	370c      	adds	r7, #12
 8003b3e:	46bd      	mov	sp, r7
 8003b40:	f85d 7b04 	ldr.w	r7, [sp], #4
 8003b44:	4770      	bx	lr

08003b46 <HAL_CAN_TxMailbox1CompleteCallback>:
  * @param  hcan pointer to a CAN_HandleTypeDef structure that contains
  *         the configuration information for the specified CAN.
  * @retval None
  */
__weak void HAL_CAN_TxMailbox1CompleteCallback(CAN_HandleTypeDef *hcan)
{
 8003b46:	b480      	push	{r7}
 8003b48:	b083      	sub	sp, #12
 8003b4a:	af00      	add	r7, sp, #0
 8003b4c:	6078      	str	r0, [r7, #4]

  /* NOTE : This function Should not be modified, when the callback is needed,
            the HAL_CAN_TxMailbox1CompleteCallback could be implemented in the
            user file
   */
}
 8003b4e:	bf00      	nop
 8003b50:	370c      	adds	r7, #12
 8003b52:	46bd      	mov	sp, r7
 8003b54:	f85d 7b04 	ldr.w	r7, [sp], #4
 8003b58:	4770      	bx	lr

08003b5a <HAL_CAN_TxMailbox2CompleteCallback>:
  * @param  hcan pointer to a CAN_HandleTypeDef structure that contains
  *         the configuration information for the specified CAN.
  * @retval None
  */
__weak void HAL_CAN_TxMailbox2CompleteCallback(CAN_HandleTypeDef *hcan)
{
 8003b5a:	b480      	push	{r7}
 8003b5c:	b083      	sub	sp, #12
 8003b5e:	af00      	add	r7, sp, #0
 8003b60:	6078      	str	r0, [r7, #4]

  /* NOTE : This function Should not be modified, when the callback is needed,
            the HAL_CAN_TxMailbox2CompleteCallback could be implemented in the
            user file
   */
}
 8003b62:	bf00      	nop
 8003b64:	370c      	adds	r7, #12
 8003b66:	46bd      	mov	sp, r7
 8003b68:	f85d 7b04 	ldr.w	r7, [sp], #4
 8003b6c:	4770      	bx	lr

08003b6e <HAL_CAN_TxMailbox0AbortCallback>:
  * @param  hcan pointer to an CAN_HandleTypeDef structure that contains
  *         the configuration information for the specified CAN.
  * @retval None
  */
__weak void HAL_CAN_TxMailbox0AbortCallback(CAN_HandleTypeDef *hcan)
{
 8003b6e:	b480      	push	{r7}
 8003b70:	b083      	sub	sp, #12
 8003b72:	af00      	add	r7, sp, #0
 8003b74:	6078      	str	r0, [r7, #4]

  /* NOTE : This function Should not be modified, when the callback is needed,
            the HAL_CAN_TxMailbox0AbortCallback could be implemented in the
            user file
   */
}
 8003b76:	bf00      	nop
 8003b78:	370c      	adds	r7, #12
 8003b7a:	46bd      	mov	sp, r7
 8003b7c:	f85d 7b04 	ldr.w	r7, [sp], #4
 8003b80:	4770      	bx	lr

08003b82 <HAL_CAN_TxMailbox1AbortCallback>:
  * @param  hcan pointer to an CAN_HandleTypeDef structure that contains
  *         the configuration information for the specified CAN.
  * @retval None
  */
__weak void HAL_CAN_TxMailbox1AbortCallback(CAN_HandleTypeDef *hcan)
{
 8003b82:	b480      	push	{r7}
 8003b84:	b083      	sub	sp, #12
 8003b86:	af00      	add	r7, sp, #0
 8003b88:	6078      	str	r0, [r7, #4]

  /* NOTE : This function Should not be modified, when the callback is needed,
            the HAL_CAN_TxMailbox1AbortCallback could be implemented in the
            user file
   */
}
 8003b8a:	bf00      	nop
 8003b8c:	370c      	adds	r7, #12
 8003b8e:	46bd      	mov	sp, r7
 8003b90:	f85d 7b04 	ldr.w	r7, [sp], #4
 8003b94:	4770      	bx	lr

08003b96 <HAL_CAN_TxMailbox2AbortCallback>:
  * @param  hcan pointer to an CAN_HandleTypeDef structure that contains
  *         the configuration information for the specified CAN.
  * @retval None
  */
__weak void HAL_CAN_TxMailbox2AbortCallback(CAN_HandleTypeDef *hcan)
{
 8003b96:	b480      	push	{r7}
 8003b98:	b083      	sub	sp, #12
 8003b9a:	af00      	add	r7, sp, #0
 8003b9c:	6078      	str	r0, [r7, #4]

  /* NOTE : This function Should not be modified, when the callback is needed,
            the HAL_CAN_TxMailbox2AbortCallback could be implemented in the
            user file
   */
}
 8003b9e:	bf00      	nop
 8003ba0:	370c      	adds	r7, #12
 8003ba2:	46bd      	mov	sp, r7
 8003ba4:	f85d 7b04 	ldr.w	r7, [sp], #4
 8003ba8:	4770      	bx	lr

08003baa <HAL_CAN_RxFifo0FullCallback>:
  * @param  hcan pointer to a CAN_HandleTypeDef structure that contains
  *         the configuration information for the specified CAN.
  * @retval None
  */
__weak void HAL_CAN_RxFifo0FullCallback(CAN_HandleTypeDef *hcan)
{
 8003baa:	b480      	push	{r7}
 8003bac:	b083      	sub	sp, #12
 8003bae:	af00      	add	r7, sp, #0
 8003bb0:	6078      	str	r0, [r7, #4]

  /* NOTE : This function Should not be modified, when the callback is needed,
            the HAL_CAN_RxFifo0FullCallback could be implemented in the user
            file
   */
}
 8003bb2:	bf00      	nop
 8003bb4:	370c      	adds	r7, #12
 8003bb6:	46bd      	mov	sp, r7
 8003bb8:	f85d 7b04 	ldr.w	r7, [sp], #4
 8003bbc:	4770      	bx	lr

08003bbe <HAL_CAN_RxFifo1MsgPendingCallback>:
  * @param  hcan pointer to a CAN_HandleTypeDef structure that contains
  *         the configuration information for the specified CAN.
  * @retval None
  */
__weak void HAL_CAN_RxFifo1MsgPendingCallback(CAN_HandleTypeDef *hcan)
{
 8003bbe:	b480      	push	{r7}
 8003bc0:	b083      	sub	sp, #12
 8003bc2:	af00      	add	r7, sp, #0
 8003bc4:	6078      	str	r0, [r7, #4]

  /* NOTE : This function Should not be modified, when the callback is needed,
            the HAL_CAN_RxFifo1MsgPendingCallback could be implemented in the
            user file
   */
}
 8003bc6:	bf00      	nop
 8003bc8:	370c      	adds	r7, #12
 8003bca:	46bd      	mov	sp, r7
 8003bcc:	f85d 7b04 	ldr.w	r7, [sp], #4
 8003bd0:	4770      	bx	lr

08003bd2 <HAL_CAN_RxFifo1FullCallback>:
  * @param  hcan pointer to a CAN_HandleTypeDef structure that contains
  *         the configuration information for the specified CAN.
  * @retval None
  */
__weak void HAL_CAN_RxFifo1FullCallback(CAN_HandleTypeDef *hcan)
{
 8003bd2:	b480      	push	{r7}
 8003bd4:	b083      	sub	sp, #12
 8003bd6:	af00      	add	r7, sp, #0
 8003bd8:	6078      	str	r0, [r7, #4]

  /* NOTE : This function Should not be modified, when the callback is needed,
            the HAL_CAN_RxFifo1FullCallback could be implemented in the user
            file
   */
}
 8003bda:	bf00      	nop
 8003bdc:	370c      	adds	r7, #12
 8003bde:	46bd      	mov	sp, r7
 8003be0:	f85d 7b04 	ldr.w	r7, [sp], #4
 8003be4:	4770      	bx	lr

08003be6 <HAL_CAN_SleepCallback>:
  * @param  hcan pointer to a CAN_HandleTypeDef structure that contains
  *         the configuration information for the specified CAN.
  * @retval None
  */
__weak void HAL_CAN_SleepCallback(CAN_HandleTypeDef *hcan)
{
 8003be6:	b480      	push	{r7}
 8003be8:	b083      	sub	sp, #12
 8003bea:	af00      	add	r7, sp, #0
 8003bec:	6078      	str	r0, [r7, #4]
  UNUSED(hcan);

  /* NOTE : This function Should not be modified, when the callback is needed,
            the HAL_CAN_SleepCallback could be implemented in the user file
   */
}
 8003bee:	bf00      	nop
 8003bf0:	370c      	adds	r7, #12
 8003bf2:	46bd      	mov	sp, r7
 8003bf4:	f85d 7b04 	ldr.w	r7, [sp], #4
 8003bf8:	4770      	bx	lr

08003bfa <HAL_CAN_WakeUpFromRxMsgCallback>:
  * @param  hcan pointer to a CAN_HandleTypeDef structure that contains
  *         the configuration information for the specified CAN.
  * @retval None
  */
__weak void HAL_CAN_WakeUpFromRxMsgCallback(CAN_HandleTypeDef *hcan)
{
 8003bfa:	b480      	push	{r7}
 8003bfc:	b083      	sub	sp, #12
 8003bfe:	af00      	add	r7, sp, #0
 8003c00:	6078      	str	r0, [r7, #4]

  /* NOTE : This function Should not be modified, when the callback is needed,
            the HAL_CAN_WakeUpFromRxMsgCallback could be implemented in the
            user file
   */
}
 8003c02:	bf00      	nop
 8003c04:	370c      	adds	r7, #12
 8003c06:	46bd      	mov	sp, r7
 8003c08:	f85d 7b04 	ldr.w	r7, [sp], #4
 8003c0c:	4770      	bx	lr

08003c0e <HAL_CAN_ErrorCallback>:
  * @param  hcan pointer to a CAN_HandleTypeDef structure that contains
  *         the configuration information for the specified CAN.
  * @retval None
  */
__weak void HAL_CAN_ErrorCallback(CAN_HandleTypeDef *hcan)
{
 8003c0e:	b480      	push	{r7}
 8003c10:	b083      	sub	sp, #12
 8003c12:	af00      	add	r7, sp, #0
 8003c14:	6078      	str	r0, [r7, #4]
  UNUSED(hcan);

  /* NOTE : This function Should not be modified, when the callback is needed,
            the HAL_CAN_ErrorCallback could be implemented in the user file
   */
}
 8003c16:	bf00      	nop
 8003c18:	370c      	adds	r7, #12
 8003c1a:	46bd      	mov	sp, r7
 8003c1c:	f85d 7b04 	ldr.w	r7, [sp], #4
 8003c20:	4770      	bx	lr
	...

08003c24 <__NVIC_SetPriorityGrouping>:
           In case of a conflict between priority grouping and available
           priority bits (__NVIC_PRIO_BITS), the smallest possible priority group is set.
  \param [in]      PriorityGroup  Priority grouping field.
 */
__STATIC_INLINE void __NVIC_SetPriorityGrouping(uint32_t PriorityGroup)
{
 8003c24:	b480      	push	{r7}
 8003c26:	b085      	sub	sp, #20
 8003c28:	af00      	add	r7, sp, #0
 8003c2a:	6078      	str	r0, [r7, #4]
  uint32_t reg_value;
  uint32_t PriorityGroupTmp = (PriorityGroup & (uint32_t)0x07UL);             /* only values 0..7 are used          */
 8003c2c:	687b      	ldr	r3, [r7, #4]
 8003c2e:	f003 0307 	and.w	r3, r3, #7
 8003c32:	60fb      	str	r3, [r7, #12]

  reg_value  =  SCB->AIRCR;                                                   /* read old register configuration    */
 8003c34:	4b0c      	ldr	r3, [pc, #48]	; (8003c68 <__NVIC_SetPriorityGrouping+0x44>)
 8003c36:	68db      	ldr	r3, [r3, #12]
 8003c38:	60bb      	str	r3, [r7, #8]
  reg_value &= ~((uint32_t)(SCB_AIRCR_VECTKEY_Msk | SCB_AIRCR_PRIGROUP_Msk)); /* clear bits to change               */
 8003c3a:	68ba      	ldr	r2, [r7, #8]
 8003c3c:	f64f 03ff 	movw	r3, #63743	; 0xf8ff
 8003c40:	4013      	ands	r3, r2
 8003c42:	60bb      	str	r3, [r7, #8]
  reg_value  =  (reg_value                                   |
                ((uint32_t)0x5FAUL << SCB_AIRCR_VECTKEY_Pos) |
                (PriorityGroupTmp << SCB_AIRCR_PRIGROUP_Pos)  );              /* Insert write key and priority group */
 8003c44:	68fb      	ldr	r3, [r7, #12]
 8003c46:	021a      	lsls	r2, r3, #8
                ((uint32_t)0x5FAUL << SCB_AIRCR_VECTKEY_Pos) |
 8003c48:	68bb      	ldr	r3, [r7, #8]
 8003c4a:	4313      	orrs	r3, r2
  reg_value  =  (reg_value                                   |
 8003c4c:	f043 63bf 	orr.w	r3, r3, #100139008	; 0x5f80000
 8003c50:	f443 3300 	orr.w	r3, r3, #131072	; 0x20000
 8003c54:	60bb      	str	r3, [r7, #8]
  SCB->AIRCR =  reg_value;
 8003c56:	4a04      	ldr	r2, [pc, #16]	; (8003c68 <__NVIC_SetPriorityGrouping+0x44>)
 8003c58:	68bb      	ldr	r3, [r7, #8]
 8003c5a:	60d3      	str	r3, [r2, #12]
}
 8003c5c:	bf00      	nop
 8003c5e:	3714      	adds	r7, #20
 8003c60:	46bd      	mov	sp, r7
 8003c62:	f85d 7b04 	ldr.w	r7, [sp], #4
 8003c66:	4770      	bx	lr
 8003c68:	e000ed00 	.word	0xe000ed00

08003c6c <__NVIC_GetPriorityGrouping>:
  \brief   Get Priority Grouping
  \details Reads the priority grouping field from the NVIC Interrupt Controller.
  \return                Priority grouping field (SCB->AIRCR [10:8] PRIGROUP field).
 */
__STATIC_INLINE uint32_t __NVIC_GetPriorityGrouping(void)
{
 8003c6c:	b480      	push	{r7}
 8003c6e:	af00      	add	r7, sp, #0
  return ((uint32_t)((SCB->AIRCR & SCB_AIRCR_PRIGROUP_Msk) >> SCB_AIRCR_PRIGROUP_Pos));
 8003c70:	4b04      	ldr	r3, [pc, #16]	; (8003c84 <__NVIC_GetPriorityGrouping+0x18>)
 8003c72:	68db      	ldr	r3, [r3, #12]
 8003c74:	0a1b      	lsrs	r3, r3, #8
 8003c76:	f003 0307 	and.w	r3, r3, #7
}
 8003c7a:	4618      	mov	r0, r3
 8003c7c:	46bd      	mov	sp, r7
 8003c7e:	f85d 7b04 	ldr.w	r7, [sp], #4
 8003c82:	4770      	bx	lr
 8003c84:	e000ed00 	.word	0xe000ed00

08003c88 <__NVIC_EnableIRQ>:
  \details Enables a device specific interrupt in the NVIC interrupt controller.
  \param [in]      IRQn  Device specific interrupt number.
  \note    IRQn must not be negative.
 */
__STATIC_INLINE void __NVIC_EnableIRQ(IRQn_Type IRQn)
{
 8003c88:	b480      	push	{r7}
 8003c8a:	b083      	sub	sp, #12
 8003c8c:	af00      	add	r7, sp, #0
 8003c8e:	4603      	mov	r3, r0
 8003c90:	71fb      	strb	r3, [r7, #7]
  if ((int32_t)(IRQn) >= 0)
 8003c92:	f997 3007 	ldrsb.w	r3, [r7, #7]
 8003c96:	2b00      	cmp	r3, #0
 8003c98:	db0b      	blt.n	8003cb2 <__NVIC_EnableIRQ+0x2a>
  {
    __COMPILER_BARRIER();
    NVIC->ISER[(((uint32_t)IRQn) >> 5UL)] = (uint32_t)(1UL << (((uint32_t)IRQn) & 0x1FUL));
 8003c9a:	79fb      	ldrb	r3, [r7, #7]
 8003c9c:	f003 021f 	and.w	r2, r3, #31
 8003ca0:	4907      	ldr	r1, [pc, #28]	; (8003cc0 <__NVIC_EnableIRQ+0x38>)
 8003ca2:	f997 3007 	ldrsb.w	r3, [r7, #7]
 8003ca6:	095b      	lsrs	r3, r3, #5
 8003ca8:	2001      	movs	r0, #1
 8003caa:	fa00 f202 	lsl.w	r2, r0, r2
 8003cae:	f841 2023 	str.w	r2, [r1, r3, lsl #2]
    __COMPILER_BARRIER();
  }
}
 8003cb2:	bf00      	nop
 8003cb4:	370c      	adds	r7, #12
 8003cb6:	46bd      	mov	sp, r7
 8003cb8:	f85d 7b04 	ldr.w	r7, [sp], #4
 8003cbc:	4770      	bx	lr
 8003cbe:	bf00      	nop
 8003cc0:	e000e100 	.word	0xe000e100

08003cc4 <__NVIC_SetPriority>:
  \param [in]      IRQn  Interrupt number.
  \param [in]  priority  Priority to set.
  \note    The priority cannot be set for every processor exception.
 */
__STATIC_INLINE void __NVIC_SetPriority(IRQn_Type IRQn, uint32_t priority)
{
 8003cc4:	b480      	push	{r7}
 8003cc6:	b083      	sub	sp, #12
 8003cc8:	af00      	add	r7, sp, #0
 8003cca:	4603      	mov	r3, r0
 8003ccc:	6039      	str	r1, [r7, #0]
 8003cce:	71fb      	strb	r3, [r7, #7]
  if ((int32_t)(IRQn) >= 0)
 8003cd0:	f997 3007 	ldrsb.w	r3, [r7, #7]
 8003cd4:	2b00      	cmp	r3, #0
 8003cd6:	db0a      	blt.n	8003cee <__NVIC_SetPriority+0x2a>
  {
    NVIC->IP[((uint32_t)IRQn)]               = (uint8_t)((priority << (8U - __NVIC_PRIO_BITS)) & (uint32_t)0xFFUL);
 8003cd8:	683b      	ldr	r3, [r7, #0]
 8003cda:	b2da      	uxtb	r2, r3
 8003cdc:	490c      	ldr	r1, [pc, #48]	; (8003d10 <__NVIC_SetPriority+0x4c>)
 8003cde:	f997 3007 	ldrsb.w	r3, [r7, #7]
 8003ce2:	0112      	lsls	r2, r2, #4
 8003ce4:	b2d2      	uxtb	r2, r2
 8003ce6:	440b      	add	r3, r1
 8003ce8:	f883 2300 	strb.w	r2, [r3, #768]	; 0x300
  }
  else
  {
    SCB->SHP[(((uint32_t)IRQn) & 0xFUL)-4UL] = (uint8_t)((priority << (8U - __NVIC_PRIO_BITS)) & (uint32_t)0xFFUL);
  }
}
 8003cec:	e00a      	b.n	8003d04 <__NVIC_SetPriority+0x40>
    SCB->SHP[(((uint32_t)IRQn) & 0xFUL)-4UL] = (uint8_t)((priority << (8U - __NVIC_PRIO_BITS)) & (uint32_t)0xFFUL);
 8003cee:	683b      	ldr	r3, [r7, #0]
 8003cf0:	b2da      	uxtb	r2, r3
 8003cf2:	4908      	ldr	r1, [pc, #32]	; (8003d14 <__NVIC_SetPriority+0x50>)
 8003cf4:	79fb      	ldrb	r3, [r7, #7]
 8003cf6:	f003 030f 	and.w	r3, r3, #15
 8003cfa:	3b04      	subs	r3, #4
 8003cfc:	0112      	lsls	r2, r2, #4
 8003cfe:	b2d2      	uxtb	r2, r2
 8003d00:	440b      	add	r3, r1
 8003d02:	761a      	strb	r2, [r3, #24]
}
 8003d04:	bf00      	nop
 8003d06:	370c      	adds	r7, #12
 8003d08:	46bd      	mov	sp, r7
 8003d0a:	f85d 7b04 	ldr.w	r7, [sp], #4
 8003d0e:	4770      	bx	lr
 8003d10:	e000e100 	.word	0xe000e100
 8003d14:	e000ed00 	.word	0xe000ed00

08003d18 <NVIC_EncodePriority>:
  \param [in]   PreemptPriority  Preemptive priority value (starting from 0).
  \param [in]       SubPriority  Subpriority value (starting from 0).
  \return                        Encoded priority. Value can be used in the function \ref NVIC_SetPriority().
 */
__STATIC_INLINE uint32_t NVIC_EncodePriority (uint32_t PriorityGroup, uint32_t PreemptPriority, uint32_t SubPriority)
{
 8003d18:	b480      	push	{r7}
 8003d1a:	b089      	sub	sp, #36	; 0x24
 8003d1c:	af00      	add	r7, sp, #0
 8003d1e:	60f8      	str	r0, [r7, #12]
 8003d20:	60b9      	str	r1, [r7, #8]
 8003d22:	607a      	str	r2, [r7, #4]
  uint32_t PriorityGroupTmp = (PriorityGroup & (uint32_t)0x07UL);   /* only values 0..7 are used          */
 8003d24:	68fb      	ldr	r3, [r7, #12]
 8003d26:	f003 0307 	and.w	r3, r3, #7
 8003d2a:	61fb      	str	r3, [r7, #28]
  uint32_t PreemptPriorityBits;
  uint32_t SubPriorityBits;

  PreemptPriorityBits = ((7UL - PriorityGroupTmp) > (uint32_t)(__NVIC_PRIO_BITS)) ? (uint32_t)(__NVIC_PRIO_BITS) : (uint32_t)(7UL - PriorityGroupTmp);
 8003d2c:	69fb      	ldr	r3, [r7, #28]
 8003d2e:	f1c3 0307 	rsb	r3, r3, #7
 8003d32:	2b04      	cmp	r3, #4
 8003d34:	bf28      	it	cs
 8003d36:	2304      	movcs	r3, #4
 8003d38:	61bb      	str	r3, [r7, #24]
  SubPriorityBits     = ((PriorityGroupTmp + (uint32_t)(__NVIC_PRIO_BITS)) < (uint32_t)7UL) ? (uint32_t)0UL : (uint32_t)((PriorityGroupTmp - 7UL) + (uint32_t)(__NVIC_PRIO_BITS));
 8003d3a:	69fb      	ldr	r3, [r7, #28]
 8003d3c:	3304      	adds	r3, #4
 8003d3e:	2b06      	cmp	r3, #6
 8003d40:	d902      	bls.n	8003d48 <NVIC_EncodePriority+0x30>
 8003d42:	69fb      	ldr	r3, [r7, #28]
 8003d44:	3b03      	subs	r3, #3
 8003d46:	e000      	b.n	8003d4a <NVIC_EncodePriority+0x32>
 8003d48:	2300      	movs	r3, #0
 8003d4a:	617b      	str	r3, [r7, #20]

  return (
           ((PreemptPriority & (uint32_t)((1UL << (PreemptPriorityBits)) - 1UL)) << SubPriorityBits) |
 8003d4c:	f04f 32ff 	mov.w	r2, #4294967295	; 0xffffffff
 8003d50:	69bb      	ldr	r3, [r7, #24]
 8003d52:	fa02 f303 	lsl.w	r3, r2, r3
 8003d56:	43da      	mvns	r2, r3
 8003d58:	68bb      	ldr	r3, [r7, #8]
 8003d5a:	401a      	ands	r2, r3
 8003d5c:	697b      	ldr	r3, [r7, #20]
 8003d5e:	409a      	lsls	r2, r3
           ((SubPriority     & (uint32_t)((1UL << (SubPriorityBits    )) - 1UL)))
 8003d60:	f04f 31ff 	mov.w	r1, #4294967295	; 0xffffffff
 8003d64:	697b      	ldr	r3, [r7, #20]
 8003d66:	fa01 f303 	lsl.w	r3, r1, r3
 8003d6a:	43d9      	mvns	r1, r3
 8003d6c:	687b      	ldr	r3, [r7, #4]
 8003d6e:	400b      	ands	r3, r1
           ((PreemptPriority & (uint32_t)((1UL << (PreemptPriorityBits)) - 1UL)) << SubPriorityBits) |
 8003d70:	4313      	orrs	r3, r2
         );
}
 8003d72:	4618      	mov	r0, r3
 8003d74:	3724      	adds	r7, #36	; 0x24
 8003d76:	46bd      	mov	sp, r7
 8003d78:	f85d 7b04 	ldr.w	r7, [sp], #4
 8003d7c:	4770      	bx	lr
	...

08003d80 <SysTick_Config>:
  \note    When the variable <b>__Vendor_SysTickConfig</b> is set to 1, then the
           function <b>SysTick_Config</b> is not included. In this case, the file <b><i>device</i>.h</b>
           must contain a vendor-specific implementation of this function.
 */
__STATIC_INLINE uint32_t SysTick_Config(uint32_t ticks)
{
 8003d80:	b580      	push	{r7, lr}
 8003d82:	b082      	sub	sp, #8
 8003d84:	af00      	add	r7, sp, #0
 8003d86:	6078      	str	r0, [r7, #4]
  if ((ticks - 1UL) > SysTick_LOAD_RELOAD_Msk)
 8003d88:	687b      	ldr	r3, [r7, #4]
 8003d8a:	3b01      	subs	r3, #1
 8003d8c:	f1b3 7f80 	cmp.w	r3, #16777216	; 0x1000000
 8003d90:	d301      	bcc.n	8003d96 <SysTick_Config+0x16>
  {
    return (1UL);                                                   /* Reload value impossible */
 8003d92:	2301      	movs	r3, #1
 8003d94:	e00f      	b.n	8003db6 <SysTick_Config+0x36>
  }

  SysTick->LOAD  = (uint32_t)(ticks - 1UL);                         /* set reload register */
 8003d96:	4a0a      	ldr	r2, [pc, #40]	; (8003dc0 <SysTick_Config+0x40>)
 8003d98:	687b      	ldr	r3, [r7, #4]
 8003d9a:	3b01      	subs	r3, #1
 8003d9c:	6053      	str	r3, [r2, #4]
  NVIC_SetPriority (SysTick_IRQn, (1UL << __NVIC_PRIO_BITS) - 1UL); /* set Priority for Systick Interrupt */
 8003d9e:	210f      	movs	r1, #15
 8003da0:	f04f 30ff 	mov.w	r0, #4294967295	; 0xffffffff
 8003da4:	f7ff ff8e 	bl	8003cc4 <__NVIC_SetPriority>
  SysTick->VAL   = 0UL;                                             /* Load the SysTick Counter Value */
 8003da8:	4b05      	ldr	r3, [pc, #20]	; (8003dc0 <SysTick_Config+0x40>)
 8003daa:	2200      	movs	r2, #0
 8003dac:	609a      	str	r2, [r3, #8]
  SysTick->CTRL  = SysTick_CTRL_CLKSOURCE_Msk |
 8003dae:	4b04      	ldr	r3, [pc, #16]	; (8003dc0 <SysTick_Config+0x40>)
 8003db0:	2207      	movs	r2, #7
 8003db2:	601a      	str	r2, [r3, #0]
                   SysTick_CTRL_TICKINT_Msk   |
                   SysTick_CTRL_ENABLE_Msk;                         /* Enable SysTick IRQ and SysTick Timer */
  return (0UL);                                                     /* Function successful */
 8003db4:	2300      	movs	r3, #0
}
 8003db6:	4618      	mov	r0, r3
 8003db8:	3708      	adds	r7, #8
 8003dba:	46bd      	mov	sp, r7
 8003dbc:	bd80      	pop	{r7, pc}
 8003dbe:	bf00      	nop
 8003dc0:	e000e010 	.word	0xe000e010

08003dc4 <HAL_NVIC_SetPriorityGrouping>:
  * @note   When the NVIC_PriorityGroup_0 is selected, IRQ preemption is no more possible. 
  *         The pending IRQ priority will be managed only by the subpriority. 
  * @retval None
  */
void HAL_NVIC_SetPriorityGrouping(uint32_t PriorityGroup)
{
 8003dc4:	b580      	push	{r7, lr}
 8003dc6:	b082      	sub	sp, #8
 8003dc8:	af00      	add	r7, sp, #0
 8003dca:	6078      	str	r0, [r7, #4]
  /* Check the parameters */
  assert_param(IS_NVIC_PRIORITY_GROUP(PriorityGroup));
  
  /* Set the PRIGROUP[10:8] bits according to the PriorityGroup parameter value */
  NVIC_SetPriorityGrouping(PriorityGroup);
 8003dcc:	6878      	ldr	r0, [r7, #4]
 8003dce:	f7ff ff29 	bl	8003c24 <__NVIC_SetPriorityGrouping>
}
 8003dd2:	bf00      	nop
 8003dd4:	3708      	adds	r7, #8
 8003dd6:	46bd      	mov	sp, r7
 8003dd8:	bd80      	pop	{r7, pc}

08003dda <HAL_NVIC_SetPriority>:
  *         This parameter can be a value between 0 and 15
  *         A lower priority value indicates a higher priority.          
  * @retval None
  */
void HAL_NVIC_SetPriority(IRQn_Type IRQn, uint32_t PreemptPriority, uint32_t SubPriority)
{ 
 8003dda:	b580      	push	{r7, lr}
 8003ddc:	b086      	sub	sp, #24
 8003dde:	af00      	add	r7, sp, #0
 8003de0:	4603      	mov	r3, r0
 8003de2:	60b9      	str	r1, [r7, #8]
 8003de4:	607a      	str	r2, [r7, #4]
 8003de6:	73fb      	strb	r3, [r7, #15]
  uint32_t prioritygroup = 0x00U;
 8003de8:	2300      	movs	r3, #0
 8003dea:	617b      	str	r3, [r7, #20]
  
  /* Check the parameters */
  assert_param(IS_NVIC_SUB_PRIORITY(SubPriority));
  assert_param(IS_NVIC_PREEMPTION_PRIORITY(PreemptPriority));
  
  prioritygroup = NVIC_GetPriorityGrouping();
 8003dec:	f7ff ff3e 	bl	8003c6c <__NVIC_GetPriorityGrouping>
 8003df0:	6178      	str	r0, [r7, #20]
  
  NVIC_SetPriority(IRQn, NVIC_EncodePriority(prioritygroup, PreemptPriority, SubPriority));
 8003df2:	687a      	ldr	r2, [r7, #4]
 8003df4:	68b9      	ldr	r1, [r7, #8]
 8003df6:	6978      	ldr	r0, [r7, #20]
 8003df8:	f7ff ff8e 	bl	8003d18 <NVIC_EncodePriority>
 8003dfc:	4602      	mov	r2, r0
 8003dfe:	f997 300f 	ldrsb.w	r3, [r7, #15]
 8003e02:	4611      	mov	r1, r2
 8003e04:	4618      	mov	r0, r3
 8003e06:	f7ff ff5d 	bl	8003cc4 <__NVIC_SetPriority>
}
 8003e0a:	bf00      	nop
 8003e0c:	3718      	adds	r7, #24
 8003e0e:	46bd      	mov	sp, r7
 8003e10:	bd80      	pop	{r7, pc}

08003e12 <HAL_NVIC_EnableIRQ>:
  *         This parameter can be an enumerator of IRQn_Type enumeration
  *         (For the complete STM32 Devices IRQ Channels list, please refer to the appropriate CMSIS device file (stm32f4xxxx.h))
  * @retval None
  */
void HAL_NVIC_EnableIRQ(IRQn_Type IRQn)
{
 8003e12:	b580      	push	{r7, lr}
 8003e14:	b082      	sub	sp, #8
 8003e16:	af00      	add	r7, sp, #0
 8003e18:	4603      	mov	r3, r0
 8003e1a:	71fb      	strb	r3, [r7, #7]
  /* Check the parameters */
  assert_param(IS_NVIC_DEVICE_IRQ(IRQn));
  
  /* Enable interrupt */
  NVIC_EnableIRQ(IRQn);
 8003e1c:	f997 3007 	ldrsb.w	r3, [r7, #7]
 8003e20:	4618      	mov	r0, r3
 8003e22:	f7ff ff31 	bl	8003c88 <__NVIC_EnableIRQ>
}
 8003e26:	bf00      	nop
 8003e28:	3708      	adds	r7, #8
 8003e2a:	46bd      	mov	sp, r7
 8003e2c:	bd80      	pop	{r7, pc}

08003e2e <HAL_SYSTICK_Config>:
  * @param  TicksNumb Specifies the ticks Number of ticks between two interrupts.
  * @retval status:  - 0  Function succeeded.
  *                  - 1  Function failed.
  */
uint32_t HAL_SYSTICK_Config(uint32_t TicksNumb)
{
 8003e2e:	b580      	push	{r7, lr}
 8003e30:	b082      	sub	sp, #8
 8003e32:	af00      	add	r7, sp, #0
 8003e34:	6078      	str	r0, [r7, #4]
   return SysTick_Config(TicksNumb);
 8003e36:	6878      	ldr	r0, [r7, #4]
 8003e38:	f7ff ffa2 	bl	8003d80 <SysTick_Config>
 8003e3c:	4603      	mov	r3, r0
}
 8003e3e:	4618      	mov	r0, r3
 8003e40:	3708      	adds	r7, #8
 8003e42:	46bd      	mov	sp, r7
 8003e44:	bd80      	pop	{r7, pc}
	...

08003e48 <HAL_DMA_Init>:
  * @param  hdma Pointer to a DMA_HandleTypeDef structure that contains
  *               the configuration information for the specified DMA Stream.  
  * @retval HAL status
  */
HAL_StatusTypeDef HAL_DMA_Init(DMA_HandleTypeDef *hdma)
{
 8003e48:	b580      	push	{r7, lr}
 8003e4a:	b086      	sub	sp, #24
 8003e4c:	af00      	add	r7, sp, #0
 8003e4e:	6078      	str	r0, [r7, #4]
  uint32_t tmp = 0U;
 8003e50:	2300      	movs	r3, #0
 8003e52:	617b      	str	r3, [r7, #20]
  uint32_t tickstart = HAL_GetTick();
 8003e54:	f7ff f84e 	bl	8002ef4 <HAL_GetTick>
 8003e58:	6138      	str	r0, [r7, #16]
  DMA_Base_Registers *regs;

  /* Check the DMA peripheral state */
  if(hdma == NULL)
 8003e5a:	687b      	ldr	r3, [r7, #4]
 8003e5c:	2b00      	cmp	r3, #0
 8003e5e:	d101      	bne.n	8003e64 <HAL_DMA_Init+0x1c>
  {
    return HAL_ERROR;
 8003e60:	2301      	movs	r3, #1
 8003e62:	e099      	b.n	8003f98 <HAL_DMA_Init+0x150>
    assert_param(IS_DMA_MEMORY_BURST(hdma->Init.MemBurst));
    assert_param(IS_DMA_PERIPHERAL_BURST(hdma->Init.PeriphBurst));
  }

  /* Change DMA peripheral state */
  hdma->State = HAL_DMA_STATE_BUSY;
 8003e64:	687b      	ldr	r3, [r7, #4]
 8003e66:	2202      	movs	r2, #2
 8003e68:	f883 2035 	strb.w	r2, [r3, #53]	; 0x35

  /* Allocate lock resource */
  __HAL_UNLOCK(hdma);
 8003e6c:	687b      	ldr	r3, [r7, #4]
 8003e6e:	2200      	movs	r2, #0
 8003e70:	f883 2034 	strb.w	r2, [r3, #52]	; 0x34
  
  /* Disable the peripheral */
  __HAL_DMA_DISABLE(hdma);
 8003e74:	687b      	ldr	r3, [r7, #4]
 8003e76:	681b      	ldr	r3, [r3, #0]
 8003e78:	681a      	ldr	r2, [r3, #0]
 8003e7a:	687b      	ldr	r3, [r7, #4]
 8003e7c:	681b      	ldr	r3, [r3, #0]
 8003e7e:	f022 0201 	bic.w	r2, r2, #1
 8003e82:	601a      	str	r2, [r3, #0]
  
  /* Check if the DMA Stream is effectively disabled */
  while((hdma->Instance->CR & DMA_SxCR_EN) != RESET)
 8003e84:	e00f      	b.n	8003ea6 <HAL_DMA_Init+0x5e>
  {
    /* Check for the Timeout */
    if((HAL_GetTick() - tickstart ) > HAL_TIMEOUT_DMA_ABORT)
 8003e86:	f7ff f835 	bl	8002ef4 <HAL_GetTick>
 8003e8a:	4602      	mov	r2, r0
 8003e8c:	693b      	ldr	r3, [r7, #16]
 8003e8e:	1ad3      	subs	r3, r2, r3
 8003e90:	2b05      	cmp	r3, #5
 8003e92:	d908      	bls.n	8003ea6 <HAL_DMA_Init+0x5e>
    {
      /* Update error code */
      hdma->ErrorCode = HAL_DMA_ERROR_TIMEOUT;
 8003e94:	687b      	ldr	r3, [r7, #4]
 8003e96:	2220      	movs	r2, #32
 8003e98:	655a      	str	r2, [r3, #84]	; 0x54
      
      /* Change the DMA state */
      hdma->State = HAL_DMA_STATE_TIMEOUT;
 8003e9a:	687b      	ldr	r3, [r7, #4]
 8003e9c:	2203      	movs	r2, #3
 8003e9e:	f883 2035 	strb.w	r2, [r3, #53]	; 0x35
      
      return HAL_TIMEOUT;
 8003ea2:	2303      	movs	r3, #3
 8003ea4:	e078      	b.n	8003f98 <HAL_DMA_Init+0x150>
  while((hdma->Instance->CR & DMA_SxCR_EN) != RESET)
 8003ea6:	687b      	ldr	r3, [r7, #4]
 8003ea8:	681b      	ldr	r3, [r3, #0]
 8003eaa:	681b      	ldr	r3, [r3, #0]
 8003eac:	f003 0301 	and.w	r3, r3, #1
 8003eb0:	2b00      	cmp	r3, #0
 8003eb2:	d1e8      	bne.n	8003e86 <HAL_DMA_Init+0x3e>
    }
  }
  
  /* Get the CR register value */
  tmp = hdma->Instance->CR;
 8003eb4:	687b      	ldr	r3, [r7, #4]
 8003eb6:	681b      	ldr	r3, [r3, #0]
 8003eb8:	681b      	ldr	r3, [r3, #0]
 8003eba:	617b      	str	r3, [r7, #20]

  /* Clear CHSEL, MBURST, PBURST, PL, MSIZE, PSIZE, MINC, PINC, CIRC, DIR, CT and DBM bits */
  tmp &= ((uint32_t)~(DMA_SxCR_CHSEL | DMA_SxCR_MBURST | DMA_SxCR_PBURST | \
 8003ebc:	697a      	ldr	r2, [r7, #20]
 8003ebe:	4b38      	ldr	r3, [pc, #224]	; (8003fa0 <HAL_DMA_Init+0x158>)
 8003ec0:	4013      	ands	r3, r2
 8003ec2:	617b      	str	r3, [r7, #20]
                      DMA_SxCR_PL    | DMA_SxCR_MSIZE  | DMA_SxCR_PSIZE  | \
                      DMA_SxCR_MINC  | DMA_SxCR_PINC   | DMA_SxCR_CIRC   | \
                      DMA_SxCR_DIR   | DMA_SxCR_CT     | DMA_SxCR_DBM));

  /* Prepare the DMA Stream configuration */
  tmp |=  hdma->Init.Channel             | hdma->Init.Direction        |
 8003ec4:	687b      	ldr	r3, [r7, #4]
 8003ec6:	685a      	ldr	r2, [r3, #4]
 8003ec8:	687b      	ldr	r3, [r7, #4]
 8003eca:	689b      	ldr	r3, [r3, #8]
 8003ecc:	431a      	orrs	r2, r3
          hdma->Init.PeriphInc           | hdma->Init.MemInc           |
 8003ece:	687b      	ldr	r3, [r7, #4]
 8003ed0:	68db      	ldr	r3, [r3, #12]
  tmp |=  hdma->Init.Channel             | hdma->Init.Direction        |
 8003ed2:	431a      	orrs	r2, r3
          hdma->Init.PeriphInc           | hdma->Init.MemInc           |
 8003ed4:	687b      	ldr	r3, [r7, #4]
 8003ed6:	691b      	ldr	r3, [r3, #16]
 8003ed8:	431a      	orrs	r2, r3
          hdma->Init.PeriphDataAlignment | hdma->Init.MemDataAlignment |
 8003eda:	687b      	ldr	r3, [r7, #4]
 8003edc:	695b      	ldr	r3, [r3, #20]
          hdma->Init.PeriphInc           | hdma->Init.MemInc           |
 8003ede:	431a      	orrs	r2, r3
          hdma->Init.PeriphDataAlignment | hdma->Init.MemDataAlignment |
 8003ee0:	687b      	ldr	r3, [r7, #4]
 8003ee2:	699b      	ldr	r3, [r3, #24]
 8003ee4:	431a      	orrs	r2, r3
          hdma->Init.Mode                | hdma->Init.Priority;
 8003ee6:	687b      	ldr	r3, [r7, #4]
 8003ee8:	69db      	ldr	r3, [r3, #28]
          hdma->Init.PeriphDataAlignment | hdma->Init.MemDataAlignment |
 8003eea:	431a      	orrs	r2, r3
          hdma->Init.Mode                | hdma->Init.Priority;
 8003eec:	687b      	ldr	r3, [r7, #4]
 8003eee:	6a1b      	ldr	r3, [r3, #32]
 8003ef0:	4313      	orrs	r3, r2
  tmp |=  hdma->Init.Channel             | hdma->Init.Direction        |
 8003ef2:	697a      	ldr	r2, [r7, #20]
 8003ef4:	4313      	orrs	r3, r2
 8003ef6:	617b      	str	r3, [r7, #20]

  /* the Memory burst and peripheral burst are not used when the FIFO is disabled */
  if(hdma->Init.FIFOMode == DMA_FIFOMODE_ENABLE)
 8003ef8:	687b      	ldr	r3, [r7, #4]
 8003efa:	6a5b      	ldr	r3, [r3, #36]	; 0x24
 8003efc:	2b04      	cmp	r3, #4
 8003efe:	d107      	bne.n	8003f10 <HAL_DMA_Init+0xc8>
  {
    /* Get memory burst and peripheral burst */
    tmp |=  hdma->Init.MemBurst | hdma->Init.PeriphBurst;
 8003f00:	687b      	ldr	r3, [r7, #4]
 8003f02:	6ada      	ldr	r2, [r3, #44]	; 0x2c
 8003f04:	687b      	ldr	r3, [r7, #4]
 8003f06:	6b1b      	ldr	r3, [r3, #48]	; 0x30
 8003f08:	4313      	orrs	r3, r2
 8003f0a:	697a      	ldr	r2, [r7, #20]
 8003f0c:	4313      	orrs	r3, r2
 8003f0e:	617b      	str	r3, [r7, #20]
  }
  
  /* Write to DMA Stream CR register */
  hdma->Instance->CR = tmp;  
 8003f10:	687b      	ldr	r3, [r7, #4]
 8003f12:	681b      	ldr	r3, [r3, #0]
 8003f14:	697a      	ldr	r2, [r7, #20]
 8003f16:	601a      	str	r2, [r3, #0]

  /* Get the FCR register value */
  tmp = hdma->Instance->FCR;
 8003f18:	687b      	ldr	r3, [r7, #4]
 8003f1a:	681b      	ldr	r3, [r3, #0]
 8003f1c:	695b      	ldr	r3, [r3, #20]
 8003f1e:	617b      	str	r3, [r7, #20]

  /* Clear Direct mode and FIFO threshold bits */
  tmp &= (uint32_t)~(DMA_SxFCR_DMDIS | DMA_SxFCR_FTH);
 8003f20:	697b      	ldr	r3, [r7, #20]
 8003f22:	f023 0307 	bic.w	r3, r3, #7
 8003f26:	617b      	str	r3, [r7, #20]

  /* Prepare the DMA Stream FIFO configuration */
  tmp |= hdma->Init.FIFOMode;
 8003f28:	687b      	ldr	r3, [r7, #4]
 8003f2a:	6a5b      	ldr	r3, [r3, #36]	; 0x24
 8003f2c:	697a      	ldr	r2, [r7, #20]
 8003f2e:	4313      	orrs	r3, r2
 8003f30:	617b      	str	r3, [r7, #20]

  /* The FIFO threshold is not used when the FIFO mode is disabled */
  if(hdma->Init.FIFOMode == DMA_FIFOMODE_ENABLE)
 8003f32:	687b      	ldr	r3, [r7, #4]
 8003f34:	6a5b      	ldr	r3, [r3, #36]	; 0x24
 8003f36:	2b04      	cmp	r3, #4
 8003f38:	d117      	bne.n	8003f6a <HAL_DMA_Init+0x122>
  {
    /* Get the FIFO threshold */
    tmp |= hdma->Init.FIFOThreshold;
 8003f3a:	687b      	ldr	r3, [r7, #4]
 8003f3c:	6a9b      	ldr	r3, [r3, #40]	; 0x28
 8003f3e:	697a      	ldr	r2, [r7, #20]
 8003f40:	4313      	orrs	r3, r2
 8003f42:	617b      	str	r3, [r7, #20]
    
    /* Check compatibility between FIFO threshold level and size of the memory burst */
    /* for INCR4, INCR8, INCR16 bursts */
    if (hdma->Init.MemBurst != DMA_MBURST_SINGLE)
 8003f44:	687b      	ldr	r3, [r7, #4]
 8003f46:	6adb      	ldr	r3, [r3, #44]	; 0x2c
 8003f48:	2b00      	cmp	r3, #0
 8003f4a:	d00e      	beq.n	8003f6a <HAL_DMA_Init+0x122>
    {
      if (DMA_CheckFifoParam(hdma) != HAL_OK)
 8003f4c:	6878      	ldr	r0, [r7, #4]
 8003f4e:	f000 fb01 	bl	8004554 <DMA_CheckFifoParam>
 8003f52:	4603      	mov	r3, r0
 8003f54:	2b00      	cmp	r3, #0
 8003f56:	d008      	beq.n	8003f6a <HAL_DMA_Init+0x122>
      {
        /* Update error code */
        hdma->ErrorCode = HAL_DMA_ERROR_PARAM;
 8003f58:	687b      	ldr	r3, [r7, #4]
 8003f5a:	2240      	movs	r2, #64	; 0x40
 8003f5c:	655a      	str	r2, [r3, #84]	; 0x54
        
        /* Change the DMA state */
        hdma->State = HAL_DMA_STATE_READY;
 8003f5e:	687b      	ldr	r3, [r7, #4]
 8003f60:	2201      	movs	r2, #1
 8003f62:	f883 2035 	strb.w	r2, [r3, #53]	; 0x35
        
        return HAL_ERROR; 
 8003f66:	2301      	movs	r3, #1
 8003f68:	e016      	b.n	8003f98 <HAL_DMA_Init+0x150>
      }
    }
  }
  
  /* Write to DMA Stream FCR */
  hdma->Instance->FCR = tmp;
 8003f6a:	687b      	ldr	r3, [r7, #4]
 8003f6c:	681b      	ldr	r3, [r3, #0]
 8003f6e:	697a      	ldr	r2, [r7, #20]
 8003f70:	615a      	str	r2, [r3, #20]

  /* Initialize StreamBaseAddress and StreamIndex parameters to be used to calculate
     DMA steam Base Address needed by HAL_DMA_IRQHandler() and HAL_DMA_PollForTransfer() */
  regs = (DMA_Base_Registers *)DMA_CalcBaseAndBitshift(hdma);
 8003f72:	6878      	ldr	r0, [r7, #4]
 8003f74:	f000 fab8 	bl	80044e8 <DMA_CalcBaseAndBitshift>
 8003f78:	4603      	mov	r3, r0
 8003f7a:	60fb      	str	r3, [r7, #12]
  
  /* Clear all interrupt flags */
  regs->IFCR = 0x3FU << hdma->StreamIndex;
 8003f7c:	687b      	ldr	r3, [r7, #4]
 8003f7e:	6ddb      	ldr	r3, [r3, #92]	; 0x5c
 8003f80:	223f      	movs	r2, #63	; 0x3f
 8003f82:	409a      	lsls	r2, r3
 8003f84:	68fb      	ldr	r3, [r7, #12]
 8003f86:	609a      	str	r2, [r3, #8]

  /* Initialize the error code */
  hdma->ErrorCode = HAL_DMA_ERROR_NONE;
 8003f88:	687b      	ldr	r3, [r7, #4]
 8003f8a:	2200      	movs	r2, #0
 8003f8c:	655a      	str	r2, [r3, #84]	; 0x54
                                                                                     
  /* Initialize the DMA state */
  hdma->State = HAL_DMA_STATE_READY;
 8003f8e:	687b      	ldr	r3, [r7, #4]
 8003f90:	2201      	movs	r2, #1
 8003f92:	f883 2035 	strb.w	r2, [r3, #53]	; 0x35

  return HAL_OK;
 8003f96:	2300      	movs	r3, #0
}
 8003f98:	4618      	mov	r0, r3
 8003f9a:	3718      	adds	r7, #24
 8003f9c:	46bd      	mov	sp, r7
 8003f9e:	bd80      	pop	{r7, pc}
 8003fa0:	f010803f 	.word	0xf010803f

08003fa4 <HAL_DMA_Start_IT>:
  * @param  DstAddress The destination memory Buffer address
  * @param  DataLength The length of data to be transferred from source to destination
  * @retval HAL status
  */
HAL_StatusTypeDef HAL_DMA_Start_IT(DMA_HandleTypeDef *hdma, uint32_t SrcAddress, uint32_t DstAddress, uint32_t DataLength)
{
 8003fa4:	b580      	push	{r7, lr}
 8003fa6:	b086      	sub	sp, #24
 8003fa8:	af00      	add	r7, sp, #0
 8003faa:	60f8      	str	r0, [r7, #12]
 8003fac:	60b9      	str	r1, [r7, #8]
 8003fae:	607a      	str	r2, [r7, #4]
 8003fb0:	603b      	str	r3, [r7, #0]
  HAL_StatusTypeDef status = HAL_OK;
 8003fb2:	2300      	movs	r3, #0
 8003fb4:	75fb      	strb	r3, [r7, #23]

  /* calculate DMA base and stream number */
  DMA_Base_Registers *regs = (DMA_Base_Registers *)hdma->StreamBaseAddress;
 8003fb6:	68fb      	ldr	r3, [r7, #12]
 8003fb8:	6d9b      	ldr	r3, [r3, #88]	; 0x58
 8003fba:	613b      	str	r3, [r7, #16]
  
  /* Check the parameters */
  assert_param(IS_DMA_BUFFER_SIZE(DataLength));
 
  /* Process locked */
  __HAL_LOCK(hdma);
 8003fbc:	68fb      	ldr	r3, [r7, #12]
 8003fbe:	f893 3034 	ldrb.w	r3, [r3, #52]	; 0x34
 8003fc2:	2b01      	cmp	r3, #1
 8003fc4:	d101      	bne.n	8003fca <HAL_DMA_Start_IT+0x26>
 8003fc6:	2302      	movs	r3, #2
 8003fc8:	e040      	b.n	800404c <HAL_DMA_Start_IT+0xa8>
 8003fca:	68fb      	ldr	r3, [r7, #12]
 8003fcc:	2201      	movs	r2, #1
 8003fce:	f883 2034 	strb.w	r2, [r3, #52]	; 0x34
  
  if(HAL_DMA_STATE_READY == hdma->State)
 8003fd2:	68fb      	ldr	r3, [r7, #12]
 8003fd4:	f893 3035 	ldrb.w	r3, [r3, #53]	; 0x35
 8003fd8:	b2db      	uxtb	r3, r3
 8003fda:	2b01      	cmp	r3, #1
 8003fdc:	d12f      	bne.n	800403e <HAL_DMA_Start_IT+0x9a>
  {
    /* Change DMA peripheral state */
    hdma->State = HAL_DMA_STATE_BUSY;
 8003fde:	68fb      	ldr	r3, [r7, #12]
 8003fe0:	2202      	movs	r2, #2
 8003fe2:	f883 2035 	strb.w	r2, [r3, #53]	; 0x35
    
    /* Initialize the error code */
    hdma->ErrorCode = HAL_DMA_ERROR_NONE;
 8003fe6:	68fb      	ldr	r3, [r7, #12]
 8003fe8:	2200      	movs	r2, #0
 8003fea:	655a      	str	r2, [r3, #84]	; 0x54
    
    /* Configure the source, destination address and the data length */
    DMA_SetConfig(hdma, SrcAddress, DstAddress, DataLength);
 8003fec:	683b      	ldr	r3, [r7, #0]
 8003fee:	687a      	ldr	r2, [r7, #4]
 8003ff0:	68b9      	ldr	r1, [r7, #8]
 8003ff2:	68f8      	ldr	r0, [r7, #12]
 8003ff4:	f000 fa4a 	bl	800448c <DMA_SetConfig>
    
    /* Clear all interrupt flags at correct offset within the register */
    regs->IFCR = 0x3FU << hdma->StreamIndex;
 8003ff8:	68fb      	ldr	r3, [r7, #12]
 8003ffa:	6ddb      	ldr	r3, [r3, #92]	; 0x5c
 8003ffc:	223f      	movs	r2, #63	; 0x3f
 8003ffe:	409a      	lsls	r2, r3
 8004000:	693b      	ldr	r3, [r7, #16]
 8004002:	609a      	str	r2, [r3, #8]
    
    /* Enable Common interrupts*/
    hdma->Instance->CR  |= DMA_IT_TC | DMA_IT_TE | DMA_IT_DME;
 8004004:	68fb      	ldr	r3, [r7, #12]
 8004006:	681b      	ldr	r3, [r3, #0]
 8004008:	681a      	ldr	r2, [r3, #0]
 800400a:	68fb      	ldr	r3, [r7, #12]
 800400c:	681b      	ldr	r3, [r3, #0]
 800400e:	f042 0216 	orr.w	r2, r2, #22
 8004012:	601a      	str	r2, [r3, #0]
    
    if(hdma->XferHalfCpltCallback != NULL)
 8004014:	68fb      	ldr	r3, [r7, #12]
 8004016:	6c1b      	ldr	r3, [r3, #64]	; 0x40
 8004018:	2b00      	cmp	r3, #0
 800401a:	d007      	beq.n	800402c <HAL_DMA_Start_IT+0x88>
    {
      hdma->Instance->CR  |= DMA_IT_HT;
 800401c:	68fb      	ldr	r3, [r7, #12]
 800401e:	681b      	ldr	r3, [r3, #0]
 8004020:	681a      	ldr	r2, [r3, #0]
 8004022:	68fb      	ldr	r3, [r7, #12]
 8004024:	681b      	ldr	r3, [r3, #0]
 8004026:	f042 0208 	orr.w	r2, r2, #8
 800402a:	601a      	str	r2, [r3, #0]
    }
    
    /* Enable the Peripheral */
    __HAL_DMA_ENABLE(hdma);
 800402c:	68fb      	ldr	r3, [r7, #12]
 800402e:	681b      	ldr	r3, [r3, #0]
 8004030:	681a      	ldr	r2, [r3, #0]
 8004032:	68fb      	ldr	r3, [r7, #12]
 8004034:	681b      	ldr	r3, [r3, #0]
 8004036:	f042 0201 	orr.w	r2, r2, #1
 800403a:	601a      	str	r2, [r3, #0]
 800403c:	e005      	b.n	800404a <HAL_DMA_Start_IT+0xa6>
  }
  else
  {
    /* Process unlocked */
    __HAL_UNLOCK(hdma);	  
 800403e:	68fb      	ldr	r3, [r7, #12]
 8004040:	2200      	movs	r2, #0
 8004042:	f883 2034 	strb.w	r2, [r3, #52]	; 0x34
    
    /* Return error status */
    status = HAL_BUSY;
 8004046:	2302      	movs	r3, #2
 8004048:	75fb      	strb	r3, [r7, #23]
  }
  
  return status;
 800404a:	7dfb      	ldrb	r3, [r7, #23]
}
 800404c:	4618      	mov	r0, r3
 800404e:	3718      	adds	r7, #24
 8004050:	46bd      	mov	sp, r7
 8004052:	bd80      	pop	{r7, pc}

08004054 <HAL_DMA_Abort>:
  *        and the Stream will be effectively disabled only after the transfer of
  *        this single data is finished.  
  * @retval HAL status
  */
HAL_StatusTypeDef HAL_DMA_Abort(DMA_HandleTypeDef *hdma)
{
 8004054:	b580      	push	{r7, lr}
 8004056:	b084      	sub	sp, #16
 8004058:	af00      	add	r7, sp, #0
 800405a:	6078      	str	r0, [r7, #4]
  /* calculate DMA base and stream number */
  DMA_Base_Registers *regs = (DMA_Base_Registers *)hdma->StreamBaseAddress;
 800405c:	687b      	ldr	r3, [r7, #4]
 800405e:	6d9b      	ldr	r3, [r3, #88]	; 0x58
 8004060:	60fb      	str	r3, [r7, #12]
  
  uint32_t tickstart = HAL_GetTick();
 8004062:	f7fe ff47 	bl	8002ef4 <HAL_GetTick>
 8004066:	60b8      	str	r0, [r7, #8]
  
  if(hdma->State != HAL_DMA_STATE_BUSY)
 8004068:	687b      	ldr	r3, [r7, #4]
 800406a:	f893 3035 	ldrb.w	r3, [r3, #53]	; 0x35
 800406e:	b2db      	uxtb	r3, r3
 8004070:	2b02      	cmp	r3, #2
 8004072:	d008      	beq.n	8004086 <HAL_DMA_Abort+0x32>
  {
    hdma->ErrorCode = HAL_DMA_ERROR_NO_XFER;
 8004074:	687b      	ldr	r3, [r7, #4]
 8004076:	2280      	movs	r2, #128	; 0x80
 8004078:	655a      	str	r2, [r3, #84]	; 0x54
    
    /* Process Unlocked */
    __HAL_UNLOCK(hdma);
 800407a:	687b      	ldr	r3, [r7, #4]
 800407c:	2200      	movs	r2, #0
 800407e:	f883 2034 	strb.w	r2, [r3, #52]	; 0x34
    
    return HAL_ERROR;
 8004082:	2301      	movs	r3, #1
 8004084:	e052      	b.n	800412c <HAL_DMA_Abort+0xd8>
  }
  else
  {
    /* Disable all the transfer interrupts */
    hdma->Instance->CR  &= ~(DMA_IT_TC | DMA_IT_TE | DMA_IT_DME);
 8004086:	687b      	ldr	r3, [r7, #4]
 8004088:	681b      	ldr	r3, [r3, #0]
 800408a:	681a      	ldr	r2, [r3, #0]
 800408c:	687b      	ldr	r3, [r7, #4]
 800408e:	681b      	ldr	r3, [r3, #0]
 8004090:	f022 0216 	bic.w	r2, r2, #22
 8004094:	601a      	str	r2, [r3, #0]
    hdma->Instance->FCR &= ~(DMA_IT_FE);
 8004096:	687b      	ldr	r3, [r7, #4]
 8004098:	681b      	ldr	r3, [r3, #0]
 800409a:	695a      	ldr	r2, [r3, #20]
 800409c:	687b      	ldr	r3, [r7, #4]
 800409e:	681b      	ldr	r3, [r3, #0]
 80040a0:	f022 0280 	bic.w	r2, r2, #128	; 0x80
 80040a4:	615a      	str	r2, [r3, #20]
    
    if((hdma->XferHalfCpltCallback != NULL) || (hdma->XferM1HalfCpltCallback != NULL))
 80040a6:	687b      	ldr	r3, [r7, #4]
 80040a8:	6c1b      	ldr	r3, [r3, #64]	; 0x40
 80040aa:	2b00      	cmp	r3, #0
 80040ac:	d103      	bne.n	80040b6 <HAL_DMA_Abort+0x62>
 80040ae:	687b      	ldr	r3, [r7, #4]
 80040b0:	6c9b      	ldr	r3, [r3, #72]	; 0x48
 80040b2:	2b00      	cmp	r3, #0
 80040b4:	d007      	beq.n	80040c6 <HAL_DMA_Abort+0x72>
    {
      hdma->Instance->CR  &= ~(DMA_IT_HT);
 80040b6:	687b      	ldr	r3, [r7, #4]
 80040b8:	681b      	ldr	r3, [r3, #0]
 80040ba:	681a      	ldr	r2, [r3, #0]
 80040bc:	687b      	ldr	r3, [r7, #4]
 80040be:	681b      	ldr	r3, [r3, #0]
 80040c0:	f022 0208 	bic.w	r2, r2, #8
 80040c4:	601a      	str	r2, [r3, #0]
    }
    
    /* Disable the stream */
    __HAL_DMA_DISABLE(hdma);
 80040c6:	687b      	ldr	r3, [r7, #4]
 80040c8:	681b      	ldr	r3, [r3, #0]
 80040ca:	681a      	ldr	r2, [r3, #0]
 80040cc:	687b      	ldr	r3, [r7, #4]
 80040ce:	681b      	ldr	r3, [r3, #0]
 80040d0:	f022 0201 	bic.w	r2, r2, #1
 80040d4:	601a      	str	r2, [r3, #0]
    
    /* Check if the DMA Stream is effectively disabled */
    while((hdma->Instance->CR & DMA_SxCR_EN) != RESET)
 80040d6:	e013      	b.n	8004100 <HAL_DMA_Abort+0xac>
    {
      /* Check for the Timeout */
      if((HAL_GetTick() - tickstart ) > HAL_TIMEOUT_DMA_ABORT)
 80040d8:	f7fe ff0c 	bl	8002ef4 <HAL_GetTick>
 80040dc:	4602      	mov	r2, r0
 80040de:	68bb      	ldr	r3, [r7, #8]
 80040e0:	1ad3      	subs	r3, r2, r3
 80040e2:	2b05      	cmp	r3, #5
 80040e4:	d90c      	bls.n	8004100 <HAL_DMA_Abort+0xac>
      {
        /* Update error code */
        hdma->ErrorCode = HAL_DMA_ERROR_TIMEOUT;
 80040e6:	687b      	ldr	r3, [r7, #4]
 80040e8:	2220      	movs	r2, #32
 80040ea:	655a      	str	r2, [r3, #84]	; 0x54
        
        /* Change the DMA state */
        hdma->State = HAL_DMA_STATE_TIMEOUT;
 80040ec:	687b      	ldr	r3, [r7, #4]
 80040ee:	2203      	movs	r2, #3
 80040f0:	f883 2035 	strb.w	r2, [r3, #53]	; 0x35
        
        /* Process Unlocked */
        __HAL_UNLOCK(hdma);
 80040f4:	687b      	ldr	r3, [r7, #4]
 80040f6:	2200      	movs	r2, #0
 80040f8:	f883 2034 	strb.w	r2, [r3, #52]	; 0x34
        
        return HAL_TIMEOUT;
 80040fc:	2303      	movs	r3, #3
 80040fe:	e015      	b.n	800412c <HAL_DMA_Abort+0xd8>
    while((hdma->Instance->CR & DMA_SxCR_EN) != RESET)
 8004100:	687b      	ldr	r3, [r7, #4]
 8004102:	681b      	ldr	r3, [r3, #0]
 8004104:	681b      	ldr	r3, [r3, #0]
 8004106:	f003 0301 	and.w	r3, r3, #1
 800410a:	2b00      	cmp	r3, #0
 800410c:	d1e4      	bne.n	80040d8 <HAL_DMA_Abort+0x84>
      }
    }
    
    /* Clear all interrupt flags at correct offset within the register */
    regs->IFCR = 0x3FU << hdma->StreamIndex;
 800410e:	687b      	ldr	r3, [r7, #4]
 8004110:	6ddb      	ldr	r3, [r3, #92]	; 0x5c
 8004112:	223f      	movs	r2, #63	; 0x3f
 8004114:	409a      	lsls	r2, r3
 8004116:	68fb      	ldr	r3, [r7, #12]
 8004118:	609a      	str	r2, [r3, #8]
    
    /* Change the DMA state*/
    hdma->State = HAL_DMA_STATE_READY;
 800411a:	687b      	ldr	r3, [r7, #4]
 800411c:	2201      	movs	r2, #1
 800411e:	f883 2035 	strb.w	r2, [r3, #53]	; 0x35
    
    /* Process Unlocked */
    __HAL_UNLOCK(hdma);
 8004122:	687b      	ldr	r3, [r7, #4]
 8004124:	2200      	movs	r2, #0
 8004126:	f883 2034 	strb.w	r2, [r3, #52]	; 0x34
  }
  return HAL_OK;
 800412a:	2300      	movs	r3, #0
}
 800412c:	4618      	mov	r0, r3
 800412e:	3710      	adds	r7, #16
 8004130:	46bd      	mov	sp, r7
 8004132:	bd80      	pop	{r7, pc}

08004134 <HAL_DMA_Abort_IT>:
  * @param  hdma   pointer to a DMA_HandleTypeDef structure that contains
  *                 the configuration information for the specified DMA Stream.
  * @retval HAL status
  */
HAL_StatusTypeDef HAL_DMA_Abort_IT(DMA_HandleTypeDef *hdma)
{
 8004134:	b480      	push	{r7}
 8004136:	b083      	sub	sp, #12
 8004138:	af00      	add	r7, sp, #0
 800413a:	6078      	str	r0, [r7, #4]
  if(hdma->State != HAL_DMA_STATE_BUSY)
 800413c:	687b      	ldr	r3, [r7, #4]
 800413e:	f893 3035 	ldrb.w	r3, [r3, #53]	; 0x35
 8004142:	b2db      	uxtb	r3, r3
 8004144:	2b02      	cmp	r3, #2
 8004146:	d004      	beq.n	8004152 <HAL_DMA_Abort_IT+0x1e>
  {
    hdma->ErrorCode = HAL_DMA_ERROR_NO_XFER;
 8004148:	687b      	ldr	r3, [r7, #4]
 800414a:	2280      	movs	r2, #128	; 0x80
 800414c:	655a      	str	r2, [r3, #84]	; 0x54
    return HAL_ERROR;
 800414e:	2301      	movs	r3, #1
 8004150:	e00c      	b.n	800416c <HAL_DMA_Abort_IT+0x38>
  }
  else
  {
    /* Set Abort State  */
    hdma->State = HAL_DMA_STATE_ABORT;
 8004152:	687b      	ldr	r3, [r7, #4]
 8004154:	2205      	movs	r2, #5
 8004156:	f883 2035 	strb.w	r2, [r3, #53]	; 0x35
    
    /* Disable the stream */
    __HAL_DMA_DISABLE(hdma);
 800415a:	687b      	ldr	r3, [r7, #4]
 800415c:	681b      	ldr	r3, [r3, #0]
 800415e:	681a      	ldr	r2, [r3, #0]
 8004160:	687b      	ldr	r3, [r7, #4]
 8004162:	681b      	ldr	r3, [r3, #0]
 8004164:	f022 0201 	bic.w	r2, r2, #1
 8004168:	601a      	str	r2, [r3, #0]
  }

  return HAL_OK;
 800416a:	2300      	movs	r3, #0
}
 800416c:	4618      	mov	r0, r3
 800416e:	370c      	adds	r7, #12
 8004170:	46bd      	mov	sp, r7
 8004172:	f85d 7b04 	ldr.w	r7, [sp], #4
 8004176:	4770      	bx	lr

08004178 <HAL_DMA_IRQHandler>:
  * @param  hdma pointer to a DMA_HandleTypeDef structure that contains
  *               the configuration information for the specified DMA Stream.  
  * @retval None
  */
void HAL_DMA_IRQHandler(DMA_HandleTypeDef *hdma)
{
 8004178:	b580      	push	{r7, lr}
 800417a:	b086      	sub	sp, #24
 800417c:	af00      	add	r7, sp, #0
 800417e:	6078      	str	r0, [r7, #4]
  uint32_t tmpisr;
  __IO uint32_t count = 0U;
 8004180:	2300      	movs	r3, #0
 8004182:	60bb      	str	r3, [r7, #8]
  uint32_t timeout = SystemCoreClock / 9600U;
 8004184:	4b8e      	ldr	r3, [pc, #568]	; (80043c0 <HAL_DMA_IRQHandler+0x248>)
 8004186:	681b      	ldr	r3, [r3, #0]
 8004188:	4a8e      	ldr	r2, [pc, #568]	; (80043c4 <HAL_DMA_IRQHandler+0x24c>)
 800418a:	fba2 2303 	umull	r2, r3, r2, r3
 800418e:	0a9b      	lsrs	r3, r3, #10
 8004190:	617b      	str	r3, [r7, #20]

  /* calculate DMA base and stream number */
  DMA_Base_Registers *regs = (DMA_Base_Registers *)hdma->StreamBaseAddress;
 8004192:	687b      	ldr	r3, [r7, #4]
 8004194:	6d9b      	ldr	r3, [r3, #88]	; 0x58
 8004196:	613b      	str	r3, [r7, #16]

  tmpisr = regs->ISR;
 8004198:	693b      	ldr	r3, [r7, #16]
 800419a:	681b      	ldr	r3, [r3, #0]
 800419c:	60fb      	str	r3, [r7, #12]

  /* Transfer Error Interrupt management ***************************************/
  if ((tmpisr & (DMA_FLAG_TEIF0_4 << hdma->StreamIndex)) != RESET)
 800419e:	687b      	ldr	r3, [r7, #4]
 80041a0:	6ddb      	ldr	r3, [r3, #92]	; 0x5c
 80041a2:	2208      	movs	r2, #8
 80041a4:	409a      	lsls	r2, r3
 80041a6:	68fb      	ldr	r3, [r7, #12]
 80041a8:	4013      	ands	r3, r2
 80041aa:	2b00      	cmp	r3, #0
 80041ac:	d01a      	beq.n	80041e4 <HAL_DMA_IRQHandler+0x6c>
  {
    if(__HAL_DMA_GET_IT_SOURCE(hdma, DMA_IT_TE) != RESET)
 80041ae:	687b      	ldr	r3, [r7, #4]
 80041b0:	681b      	ldr	r3, [r3, #0]
 80041b2:	681b      	ldr	r3, [r3, #0]
 80041b4:	f003 0304 	and.w	r3, r3, #4
 80041b8:	2b00      	cmp	r3, #0
 80041ba:	d013      	beq.n	80041e4 <HAL_DMA_IRQHandler+0x6c>
    {
      /* Disable the transfer error interrupt */
      hdma->Instance->CR  &= ~(DMA_IT_TE);
 80041bc:	687b      	ldr	r3, [r7, #4]
 80041be:	681b      	ldr	r3, [r3, #0]
 80041c0:	681a      	ldr	r2, [r3, #0]
 80041c2:	687b      	ldr	r3, [r7, #4]
 80041c4:	681b      	ldr	r3, [r3, #0]
 80041c6:	f022 0204 	bic.w	r2, r2, #4
 80041ca:	601a      	str	r2, [r3, #0]
      
      /* Clear the transfer error flag */
      regs->IFCR = DMA_FLAG_TEIF0_4 << hdma->StreamIndex;
 80041cc:	687b      	ldr	r3, [r7, #4]
 80041ce:	6ddb      	ldr	r3, [r3, #92]	; 0x5c
 80041d0:	2208      	movs	r2, #8
 80041d2:	409a      	lsls	r2, r3
 80041d4:	693b      	ldr	r3, [r7, #16]
 80041d6:	609a      	str	r2, [r3, #8]
      
      /* Update error code */
      hdma->ErrorCode |= HAL_DMA_ERROR_TE;
 80041d8:	687b      	ldr	r3, [r7, #4]
 80041da:	6d5b      	ldr	r3, [r3, #84]	; 0x54
 80041dc:	f043 0201 	orr.w	r2, r3, #1
 80041e0:	687b      	ldr	r3, [r7, #4]
 80041e2:	655a      	str	r2, [r3, #84]	; 0x54
    }
  }
  /* FIFO Error Interrupt management ******************************************/
  if ((tmpisr & (DMA_FLAG_FEIF0_4 << hdma->StreamIndex)) != RESET)
 80041e4:	687b      	ldr	r3, [r7, #4]
 80041e6:	6ddb      	ldr	r3, [r3, #92]	; 0x5c
 80041e8:	2201      	movs	r2, #1
 80041ea:	409a      	lsls	r2, r3
 80041ec:	68fb      	ldr	r3, [r7, #12]
 80041ee:	4013      	ands	r3, r2
 80041f0:	2b00      	cmp	r3, #0
 80041f2:	d012      	beq.n	800421a <HAL_DMA_IRQHandler+0xa2>
  {
    if(__HAL_DMA_GET_IT_SOURCE(hdma, DMA_IT_FE) != RESET)
 80041f4:	687b      	ldr	r3, [r7, #4]
 80041f6:	681b      	ldr	r3, [r3, #0]
 80041f8:	695b      	ldr	r3, [r3, #20]
 80041fa:	f003 0380 	and.w	r3, r3, #128	; 0x80
 80041fe:	2b00      	cmp	r3, #0
 8004200:	d00b      	beq.n	800421a <HAL_DMA_IRQHandler+0xa2>
    {
      /* Clear the FIFO error flag */
      regs->IFCR = DMA_FLAG_FEIF0_4 << hdma->StreamIndex;
 8004202:	687b      	ldr	r3, [r7, #4]
 8004204:	6ddb      	ldr	r3, [r3, #92]	; 0x5c
 8004206:	2201      	movs	r2, #1
 8004208:	409a      	lsls	r2, r3
 800420a:	693b      	ldr	r3, [r7, #16]
 800420c:	609a      	str	r2, [r3, #8]

      /* Update error code */
      hdma->ErrorCode |= HAL_DMA_ERROR_FE;
 800420e:	687b      	ldr	r3, [r7, #4]
 8004210:	6d5b      	ldr	r3, [r3, #84]	; 0x54
 8004212:	f043 0202 	orr.w	r2, r3, #2
 8004216:	687b      	ldr	r3, [r7, #4]
 8004218:	655a      	str	r2, [r3, #84]	; 0x54
    }
  }
  /* Direct Mode Error Interrupt management ***********************************/
  if ((tmpisr & (DMA_FLAG_DMEIF0_4 << hdma->StreamIndex)) != RESET)
 800421a:	687b      	ldr	r3, [r7, #4]
 800421c:	6ddb      	ldr	r3, [r3, #92]	; 0x5c
 800421e:	2204      	movs	r2, #4
 8004220:	409a      	lsls	r2, r3
 8004222:	68fb      	ldr	r3, [r7, #12]
 8004224:	4013      	ands	r3, r2
 8004226:	2b00      	cmp	r3, #0
 8004228:	d012      	beq.n	8004250 <HAL_DMA_IRQHandler+0xd8>
  {
    if(__HAL_DMA_GET_IT_SOURCE(hdma, DMA_IT_DME) != RESET)
 800422a:	687b      	ldr	r3, [r7, #4]
 800422c:	681b      	ldr	r3, [r3, #0]
 800422e:	681b      	ldr	r3, [r3, #0]
 8004230:	f003 0302 	and.w	r3, r3, #2
 8004234:	2b00      	cmp	r3, #0
 8004236:	d00b      	beq.n	8004250 <HAL_DMA_IRQHandler+0xd8>
    {
      /* Clear the direct mode error flag */
      regs->IFCR = DMA_FLAG_DMEIF0_4 << hdma->StreamIndex;
 8004238:	687b      	ldr	r3, [r7, #4]
 800423a:	6ddb      	ldr	r3, [r3, #92]	; 0x5c
 800423c:	2204      	movs	r2, #4
 800423e:	409a      	lsls	r2, r3
 8004240:	693b      	ldr	r3, [r7, #16]
 8004242:	609a      	str	r2, [r3, #8]

      /* Update error code */
      hdma->ErrorCode |= HAL_DMA_ERROR_DME;
 8004244:	687b      	ldr	r3, [r7, #4]
 8004246:	6d5b      	ldr	r3, [r3, #84]	; 0x54
 8004248:	f043 0204 	orr.w	r2, r3, #4
 800424c:	687b      	ldr	r3, [r7, #4]
 800424e:	655a      	str	r2, [r3, #84]	; 0x54
    }
  }
  /* Half Transfer Complete Interrupt management ******************************/
  if ((tmpisr & (DMA_FLAG_HTIF0_4 << hdma->StreamIndex)) != RESET)
 8004250:	687b      	ldr	r3, [r7, #4]
 8004252:	6ddb      	ldr	r3, [r3, #92]	; 0x5c
 8004254:	2210      	movs	r2, #16
 8004256:	409a      	lsls	r2, r3
 8004258:	68fb      	ldr	r3, [r7, #12]
 800425a:	4013      	ands	r3, r2
 800425c:	2b00      	cmp	r3, #0
 800425e:	d043      	beq.n	80042e8 <HAL_DMA_IRQHandler+0x170>
  {
    if(__HAL_DMA_GET_IT_SOURCE(hdma, DMA_IT_HT) != RESET)
 8004260:	687b      	ldr	r3, [r7, #4]
 8004262:	681b      	ldr	r3, [r3, #0]
 8004264:	681b      	ldr	r3, [r3, #0]
 8004266:	f003 0308 	and.w	r3, r3, #8
 800426a:	2b00      	cmp	r3, #0
 800426c:	d03c      	beq.n	80042e8 <HAL_DMA_IRQHandler+0x170>
    {
      /* Clear the half transfer complete flag */
      regs->IFCR = DMA_FLAG_HTIF0_4 << hdma->StreamIndex;
 800426e:	687b      	ldr	r3, [r7, #4]
 8004270:	6ddb      	ldr	r3, [r3, #92]	; 0x5c
 8004272:	2210      	movs	r2, #16
 8004274:	409a      	lsls	r2, r3
 8004276:	693b      	ldr	r3, [r7, #16]
 8004278:	609a      	str	r2, [r3, #8]
      
      /* Multi_Buffering mode enabled */
      if(((hdma->Instance->CR) & (uint32_t)(DMA_SxCR_DBM)) != RESET)
 800427a:	687b      	ldr	r3, [r7, #4]
 800427c:	681b      	ldr	r3, [r3, #0]
 800427e:	681b      	ldr	r3, [r3, #0]
 8004280:	f403 2380 	and.w	r3, r3, #262144	; 0x40000
 8004284:	2b00      	cmp	r3, #0
 8004286:	d018      	beq.n	80042ba <HAL_DMA_IRQHandler+0x142>
      {
        /* Current memory buffer used is Memory 0 */
        if((hdma->Instance->CR & DMA_SxCR_CT) == RESET)
 8004288:	687b      	ldr	r3, [r7, #4]
 800428a:	681b      	ldr	r3, [r3, #0]
 800428c:	681b      	ldr	r3, [r3, #0]
 800428e:	f403 2300 	and.w	r3, r3, #524288	; 0x80000
 8004292:	2b00      	cmp	r3, #0
 8004294:	d108      	bne.n	80042a8 <HAL_DMA_IRQHandler+0x130>
        {
          if(hdma->XferHalfCpltCallback != NULL)
 8004296:	687b      	ldr	r3, [r7, #4]
 8004298:	6c1b      	ldr	r3, [r3, #64]	; 0x40
 800429a:	2b00      	cmp	r3, #0
 800429c:	d024      	beq.n	80042e8 <HAL_DMA_IRQHandler+0x170>
          {
            /* Half transfer callback */
            hdma->XferHalfCpltCallback(hdma);
 800429e:	687b      	ldr	r3, [r7, #4]
 80042a0:	6c1b      	ldr	r3, [r3, #64]	; 0x40
 80042a2:	6878      	ldr	r0, [r7, #4]
 80042a4:	4798      	blx	r3
 80042a6:	e01f      	b.n	80042e8 <HAL_DMA_IRQHandler+0x170>
          }
        }
        /* Current memory buffer used is Memory 1 */
        else
        {
          if(hdma->XferM1HalfCpltCallback != NULL)
 80042a8:	687b      	ldr	r3, [r7, #4]
 80042aa:	6c9b      	ldr	r3, [r3, #72]	; 0x48
 80042ac:	2b00      	cmp	r3, #0
 80042ae:	d01b      	beq.n	80042e8 <HAL_DMA_IRQHandler+0x170>
          {
            /* Half transfer callback */
            hdma->XferM1HalfCpltCallback(hdma);
 80042b0:	687b      	ldr	r3, [r7, #4]
 80042b2:	6c9b      	ldr	r3, [r3, #72]	; 0x48
 80042b4:	6878      	ldr	r0, [r7, #4]
 80042b6:	4798      	blx	r3
 80042b8:	e016      	b.n	80042e8 <HAL_DMA_IRQHandler+0x170>
        }
      }
      else
      {
        /* Disable the half transfer interrupt if the DMA mode is not CIRCULAR */
        if((hdma->Instance->CR & DMA_SxCR_CIRC) == RESET)
 80042ba:	687b      	ldr	r3, [r7, #4]
 80042bc:	681b      	ldr	r3, [r3, #0]
 80042be:	681b      	ldr	r3, [r3, #0]
 80042c0:	f403 7380 	and.w	r3, r3, #256	; 0x100
 80042c4:	2b00      	cmp	r3, #0
 80042c6:	d107      	bne.n	80042d8 <HAL_DMA_IRQHandler+0x160>
        {
          /* Disable the half transfer interrupt */
          hdma->Instance->CR  &= ~(DMA_IT_HT);
 80042c8:	687b      	ldr	r3, [r7, #4]
 80042ca:	681b      	ldr	r3, [r3, #0]
 80042cc:	681a      	ldr	r2, [r3, #0]
 80042ce:	687b      	ldr	r3, [r7, #4]
 80042d0:	681b      	ldr	r3, [r3, #0]
 80042d2:	f022 0208 	bic.w	r2, r2, #8
 80042d6:	601a      	str	r2, [r3, #0]
        }
        
        if(hdma->XferHalfCpltCallback != NULL)
 80042d8:	687b      	ldr	r3, [r7, #4]
 80042da:	6c1b      	ldr	r3, [r3, #64]	; 0x40
 80042dc:	2b00      	cmp	r3, #0
 80042de:	d003      	beq.n	80042e8 <HAL_DMA_IRQHandler+0x170>
        {
          /* Half transfer callback */
          hdma->XferHalfCpltCallback(hdma);
 80042e0:	687b      	ldr	r3, [r7, #4]
 80042e2:	6c1b      	ldr	r3, [r3, #64]	; 0x40
 80042e4:	6878      	ldr	r0, [r7, #4]
 80042e6:	4798      	blx	r3
        }
      }
    }
  }
  /* Transfer Complete Interrupt management ***********************************/
  if ((tmpisr & (DMA_FLAG_TCIF0_4 << hdma->StreamIndex)) != RESET)
 80042e8:	687b      	ldr	r3, [r7, #4]
 80042ea:	6ddb      	ldr	r3, [r3, #92]	; 0x5c
 80042ec:	2220      	movs	r2, #32
 80042ee:	409a      	lsls	r2, r3
 80042f0:	68fb      	ldr	r3, [r7, #12]
 80042f2:	4013      	ands	r3, r2
 80042f4:	2b00      	cmp	r3, #0
 80042f6:	f000 808f 	beq.w	8004418 <HAL_DMA_IRQHandler+0x2a0>
  {
    if(__HAL_DMA_GET_IT_SOURCE(hdma, DMA_IT_TC) != RESET)
 80042fa:	687b      	ldr	r3, [r7, #4]
 80042fc:	681b      	ldr	r3, [r3, #0]
 80042fe:	681b      	ldr	r3, [r3, #0]
 8004300:	f003 0310 	and.w	r3, r3, #16
 8004304:	2b00      	cmp	r3, #0
 8004306:	f000 8087 	beq.w	8004418 <HAL_DMA_IRQHandler+0x2a0>
    {
      /* Clear the transfer complete flag */
      regs->IFCR = DMA_FLAG_TCIF0_4 << hdma->StreamIndex;
 800430a:	687b      	ldr	r3, [r7, #4]
 800430c:	6ddb      	ldr	r3, [r3, #92]	; 0x5c
 800430e:	2220      	movs	r2, #32
 8004310:	409a      	lsls	r2, r3
 8004312:	693b      	ldr	r3, [r7, #16]
 8004314:	609a      	str	r2, [r3, #8]
      
      if(HAL_DMA_STATE_ABORT == hdma->State)
 8004316:	687b      	ldr	r3, [r7, #4]
 8004318:	f893 3035 	ldrb.w	r3, [r3, #53]	; 0x35
 800431c:	b2db      	uxtb	r3, r3
 800431e:	2b05      	cmp	r3, #5
 8004320:	d136      	bne.n	8004390 <HAL_DMA_IRQHandler+0x218>
      {
        /* Disable all the transfer interrupts */
        hdma->Instance->CR  &= ~(DMA_IT_TC | DMA_IT_TE | DMA_IT_DME);
 8004322:	687b      	ldr	r3, [r7, #4]
 8004324:	681b      	ldr	r3, [r3, #0]
 8004326:	681a      	ldr	r2, [r3, #0]
 8004328:	687b      	ldr	r3, [r7, #4]
 800432a:	681b      	ldr	r3, [r3, #0]
 800432c:	f022 0216 	bic.w	r2, r2, #22
 8004330:	601a      	str	r2, [r3, #0]
        hdma->Instance->FCR &= ~(DMA_IT_FE);
 8004332:	687b      	ldr	r3, [r7, #4]
 8004334:	681b      	ldr	r3, [r3, #0]
 8004336:	695a      	ldr	r2, [r3, #20]
 8004338:	687b      	ldr	r3, [r7, #4]
 800433a:	681b      	ldr	r3, [r3, #0]
 800433c:	f022 0280 	bic.w	r2, r2, #128	; 0x80
 8004340:	615a      	str	r2, [r3, #20]
        
        if((hdma->XferHalfCpltCallback != NULL) || (hdma->XferM1HalfCpltCallback != NULL))
 8004342:	687b      	ldr	r3, [r7, #4]
 8004344:	6c1b      	ldr	r3, [r3, #64]	; 0x40
 8004346:	2b00      	cmp	r3, #0
 8004348:	d103      	bne.n	8004352 <HAL_DMA_IRQHandler+0x1da>
 800434a:	687b      	ldr	r3, [r7, #4]
 800434c:	6c9b      	ldr	r3, [r3, #72]	; 0x48
 800434e:	2b00      	cmp	r3, #0
 8004350:	d007      	beq.n	8004362 <HAL_DMA_IRQHandler+0x1ea>
        {
          hdma->Instance->CR  &= ~(DMA_IT_HT);
 8004352:	687b      	ldr	r3, [r7, #4]
 8004354:	681b      	ldr	r3, [r3, #0]
 8004356:	681a      	ldr	r2, [r3, #0]
 8004358:	687b      	ldr	r3, [r7, #4]
 800435a:	681b      	ldr	r3, [r3, #0]
 800435c:	f022 0208 	bic.w	r2, r2, #8
 8004360:	601a      	str	r2, [r3, #0]
        }

        /* Clear all interrupt flags at correct offset within the register */
        regs->IFCR = 0x3FU << hdma->StreamIndex;
 8004362:	687b      	ldr	r3, [r7, #4]
 8004364:	6ddb      	ldr	r3, [r3, #92]	; 0x5c
 8004366:	223f      	movs	r2, #63	; 0x3f
 8004368:	409a      	lsls	r2, r3
 800436a:	693b      	ldr	r3, [r7, #16]
 800436c:	609a      	str	r2, [r3, #8]

        /* Change the DMA state */
        hdma->State = HAL_DMA_STATE_READY;
 800436e:	687b      	ldr	r3, [r7, #4]
 8004370:	2201      	movs	r2, #1
 8004372:	f883 2035 	strb.w	r2, [r3, #53]	; 0x35

        /* Process Unlocked */
        __HAL_UNLOCK(hdma);
 8004376:	687b      	ldr	r3, [r7, #4]
 8004378:	2200      	movs	r2, #0
 800437a:	f883 2034 	strb.w	r2, [r3, #52]	; 0x34

        if(hdma->XferAbortCallback != NULL)
 800437e:	687b      	ldr	r3, [r7, #4]
 8004380:	6d1b      	ldr	r3, [r3, #80]	; 0x50
 8004382:	2b00      	cmp	r3, #0
 8004384:	d07e      	beq.n	8004484 <HAL_DMA_IRQHandler+0x30c>
        {
          hdma->XferAbortCallback(hdma);
 8004386:	687b      	ldr	r3, [r7, #4]
 8004388:	6d1b      	ldr	r3, [r3, #80]	; 0x50
 800438a:	6878      	ldr	r0, [r7, #4]
 800438c:	4798      	blx	r3
        }
        return;
 800438e:	e079      	b.n	8004484 <HAL_DMA_IRQHandler+0x30c>
      }

      if(((hdma->Instance->CR) & (uint32_t)(DMA_SxCR_DBM)) != RESET)
 8004390:	687b      	ldr	r3, [r7, #4]
 8004392:	681b      	ldr	r3, [r3, #0]
 8004394:	681b      	ldr	r3, [r3, #0]
 8004396:	f403 2380 	and.w	r3, r3, #262144	; 0x40000
 800439a:	2b00      	cmp	r3, #0
 800439c:	d01d      	beq.n	80043da <HAL_DMA_IRQHandler+0x262>
      {
        /* Current memory buffer used is Memory 0 */
        if((hdma->Instance->CR & DMA_SxCR_CT) == RESET)
 800439e:	687b      	ldr	r3, [r7, #4]
 80043a0:	681b      	ldr	r3, [r3, #0]
 80043a2:	681b      	ldr	r3, [r3, #0]
 80043a4:	f403 2300 	and.w	r3, r3, #524288	; 0x80000
 80043a8:	2b00      	cmp	r3, #0
 80043aa:	d10d      	bne.n	80043c8 <HAL_DMA_IRQHandler+0x250>
        {
          if(hdma->XferM1CpltCallback != NULL)
 80043ac:	687b      	ldr	r3, [r7, #4]
 80043ae:	6c5b      	ldr	r3, [r3, #68]	; 0x44
 80043b0:	2b00      	cmp	r3, #0
 80043b2:	d031      	beq.n	8004418 <HAL_DMA_IRQHandler+0x2a0>
          {
            /* Transfer complete Callback for memory1 */
            hdma->XferM1CpltCallback(hdma);
 80043b4:	687b      	ldr	r3, [r7, #4]
 80043b6:	6c5b      	ldr	r3, [r3, #68]	; 0x44
 80043b8:	6878      	ldr	r0, [r7, #4]
 80043ba:	4798      	blx	r3
 80043bc:	e02c      	b.n	8004418 <HAL_DMA_IRQHandler+0x2a0>
 80043be:	bf00      	nop
 80043c0:	2000001c 	.word	0x2000001c
 80043c4:	1b4e81b5 	.word	0x1b4e81b5
          }
        }
        /* Current memory buffer used is Memory 1 */
        else
        {
          if(hdma->XferCpltCallback != NULL)
 80043c8:	687b      	ldr	r3, [r7, #4]
 80043ca:	6bdb      	ldr	r3, [r3, #60]	; 0x3c
 80043cc:	2b00      	cmp	r3, #0
 80043ce:	d023      	beq.n	8004418 <HAL_DMA_IRQHandler+0x2a0>
          {
            /* Transfer complete Callback for memory0 */
            hdma->XferCpltCallback(hdma);
 80043d0:	687b      	ldr	r3, [r7, #4]
 80043d2:	6bdb      	ldr	r3, [r3, #60]	; 0x3c
 80043d4:	6878      	ldr	r0, [r7, #4]
 80043d6:	4798      	blx	r3
 80043d8:	e01e      	b.n	8004418 <HAL_DMA_IRQHandler+0x2a0>
        }
      }
      /* Disable the transfer complete interrupt if the DMA mode is not CIRCULAR */
      else
      {
        if((hdma->Instance->CR & DMA_SxCR_CIRC) == RESET)
 80043da:	687b      	ldr	r3, [r7, #4]
 80043dc:	681b      	ldr	r3, [r3, #0]
 80043de:	681b      	ldr	r3, [r3, #0]
 80043e0:	f403 7380 	and.w	r3, r3, #256	; 0x100
 80043e4:	2b00      	cmp	r3, #0
 80043e6:	d10f      	bne.n	8004408 <HAL_DMA_IRQHandler+0x290>
        {
          /* Disable the transfer complete interrupt */
          hdma->Instance->CR  &= ~(DMA_IT_TC);
 80043e8:	687b      	ldr	r3, [r7, #4]
 80043ea:	681b      	ldr	r3, [r3, #0]
 80043ec:	681a      	ldr	r2, [r3, #0]
 80043ee:	687b      	ldr	r3, [r7, #4]
 80043f0:	681b      	ldr	r3, [r3, #0]
 80043f2:	f022 0210 	bic.w	r2, r2, #16
 80043f6:	601a      	str	r2, [r3, #0]

          /* Change the DMA state */
          hdma->State = HAL_DMA_STATE_READY;
 80043f8:	687b      	ldr	r3, [r7, #4]
 80043fa:	2201      	movs	r2, #1
 80043fc:	f883 2035 	strb.w	r2, [r3, #53]	; 0x35

          /* Process Unlocked */
          __HAL_UNLOCK(hdma);
 8004400:	687b      	ldr	r3, [r7, #4]
 8004402:	2200      	movs	r2, #0
 8004404:	f883 2034 	strb.w	r2, [r3, #52]	; 0x34
        }

        if(hdma->XferCpltCallback != NULL)
 8004408:	687b      	ldr	r3, [r7, #4]
 800440a:	6bdb      	ldr	r3, [r3, #60]	; 0x3c
 800440c:	2b00      	cmp	r3, #0
 800440e:	d003      	beq.n	8004418 <HAL_DMA_IRQHandler+0x2a0>
        {
          /* Transfer complete callback */
          hdma->XferCpltCallback(hdma);
 8004410:	687b      	ldr	r3, [r7, #4]
 8004412:	6bdb      	ldr	r3, [r3, #60]	; 0x3c
 8004414:	6878      	ldr	r0, [r7, #4]
 8004416:	4798      	blx	r3
      }
    }
  }
  
  /* manage error case */
  if(hdma->ErrorCode != HAL_DMA_ERROR_NONE)
 8004418:	687b      	ldr	r3, [r7, #4]
 800441a:	6d5b      	ldr	r3, [r3, #84]	; 0x54
 800441c:	2b00      	cmp	r3, #0
 800441e:	d032      	beq.n	8004486 <HAL_DMA_IRQHandler+0x30e>
  {
    if((hdma->ErrorCode & HAL_DMA_ERROR_TE) != RESET)
 8004420:	687b      	ldr	r3, [r7, #4]
 8004422:	6d5b      	ldr	r3, [r3, #84]	; 0x54
 8004424:	f003 0301 	and.w	r3, r3, #1
 8004428:	2b00      	cmp	r3, #0
 800442a:	d022      	beq.n	8004472 <HAL_DMA_IRQHandler+0x2fa>
    {
      hdma->State = HAL_DMA_STATE_ABORT;
 800442c:	687b      	ldr	r3, [r7, #4]
 800442e:	2205      	movs	r2, #5
 8004430:	f883 2035 	strb.w	r2, [r3, #53]	; 0x35

      /* Disable the stream */
      __HAL_DMA_DISABLE(hdma);
 8004434:	687b      	ldr	r3, [r7, #4]
 8004436:	681b      	ldr	r3, [r3, #0]
 8004438:	681a      	ldr	r2, [r3, #0]
 800443a:	687b      	ldr	r3, [r7, #4]
 800443c:	681b      	ldr	r3, [r3, #0]
 800443e:	f022 0201 	bic.w	r2, r2, #1
 8004442:	601a      	str	r2, [r3, #0]

      do
      {
        if (++count > timeout)
 8004444:	68bb      	ldr	r3, [r7, #8]
 8004446:	3301      	adds	r3, #1
 8004448:	60bb      	str	r3, [r7, #8]
 800444a:	697a      	ldr	r2, [r7, #20]
 800444c:	429a      	cmp	r2, r3
 800444e:	d307      	bcc.n	8004460 <HAL_DMA_IRQHandler+0x2e8>
        {
          break;
        }
      }
      while((hdma->Instance->CR & DMA_SxCR_EN) != RESET);
 8004450:	687b      	ldr	r3, [r7, #4]
 8004452:	681b      	ldr	r3, [r3, #0]
 8004454:	681b      	ldr	r3, [r3, #0]
 8004456:	f003 0301 	and.w	r3, r3, #1
 800445a:	2b00      	cmp	r3, #0
 800445c:	d1f2      	bne.n	8004444 <HAL_DMA_IRQHandler+0x2cc>
 800445e:	e000      	b.n	8004462 <HAL_DMA_IRQHandler+0x2ea>
          break;
 8004460:	bf00      	nop

      /* Change the DMA state */
      hdma->State = HAL_DMA_STATE_READY;
 8004462:	687b      	ldr	r3, [r7, #4]
 8004464:	2201      	movs	r2, #1
 8004466:	f883 2035 	strb.w	r2, [r3, #53]	; 0x35

      /* Process Unlocked */
      __HAL_UNLOCK(hdma);
 800446a:	687b      	ldr	r3, [r7, #4]
 800446c:	2200      	movs	r2, #0
 800446e:	f883 2034 	strb.w	r2, [r3, #52]	; 0x34
    }

    if(hdma->XferErrorCallback != NULL)
 8004472:	687b      	ldr	r3, [r7, #4]
 8004474:	6cdb      	ldr	r3, [r3, #76]	; 0x4c
 8004476:	2b00      	cmp	r3, #0
 8004478:	d005      	beq.n	8004486 <HAL_DMA_IRQHandler+0x30e>
    {
      /* Transfer error callback */
      hdma->XferErrorCallback(hdma);
 800447a:	687b      	ldr	r3, [r7, #4]
 800447c:	6cdb      	ldr	r3, [r3, #76]	; 0x4c
 800447e:	6878      	ldr	r0, [r7, #4]
 8004480:	4798      	blx	r3
 8004482:	e000      	b.n	8004486 <HAL_DMA_IRQHandler+0x30e>
        return;
 8004484:	bf00      	nop
    }
  }
}
 8004486:	3718      	adds	r7, #24
 8004488:	46bd      	mov	sp, r7
 800448a:	bd80      	pop	{r7, pc}

0800448c <DMA_SetConfig>:
  * @param  DstAddress The destination memory Buffer address
  * @param  DataLength The length of data to be transferred from source to destination
  * @retval HAL status
  */
static void DMA_SetConfig(DMA_HandleTypeDef *hdma, uint32_t SrcAddress, uint32_t DstAddress, uint32_t DataLength)
{
 800448c:	b480      	push	{r7}
 800448e:	b085      	sub	sp, #20
 8004490:	af00      	add	r7, sp, #0
 8004492:	60f8      	str	r0, [r7, #12]
 8004494:	60b9      	str	r1, [r7, #8]
 8004496:	607a      	str	r2, [r7, #4]
 8004498:	603b      	str	r3, [r7, #0]
  /* Clear DBM bit */
  hdma->Instance->CR &= (uint32_t)(~DMA_SxCR_DBM);
 800449a:	68fb      	ldr	r3, [r7, #12]
 800449c:	681b      	ldr	r3, [r3, #0]
 800449e:	681a      	ldr	r2, [r3, #0]
 80044a0:	68fb      	ldr	r3, [r7, #12]
 80044a2:	681b      	ldr	r3, [r3, #0]
 80044a4:	f422 2280 	bic.w	r2, r2, #262144	; 0x40000
 80044a8:	601a      	str	r2, [r3, #0]

  /* Configure DMA Stream data length */
  hdma->Instance->NDTR = DataLength;
 80044aa:	68fb      	ldr	r3, [r7, #12]
 80044ac:	681b      	ldr	r3, [r3, #0]
 80044ae:	683a      	ldr	r2, [r7, #0]
 80044b0:	605a      	str	r2, [r3, #4]

  /* Memory to Peripheral */
  if((hdma->Init.Direction) == DMA_MEMORY_TO_PERIPH)
 80044b2:	68fb      	ldr	r3, [r7, #12]
 80044b4:	689b      	ldr	r3, [r3, #8]
 80044b6:	2b40      	cmp	r3, #64	; 0x40
 80044b8:	d108      	bne.n	80044cc <DMA_SetConfig+0x40>
  {
    /* Configure DMA Stream destination address */
    hdma->Instance->PAR = DstAddress;
 80044ba:	68fb      	ldr	r3, [r7, #12]
 80044bc:	681b      	ldr	r3, [r3, #0]
 80044be:	687a      	ldr	r2, [r7, #4]
 80044c0:	609a      	str	r2, [r3, #8]

    /* Configure DMA Stream source address */
    hdma->Instance->M0AR = SrcAddress;
 80044c2:	68fb      	ldr	r3, [r7, #12]
 80044c4:	681b      	ldr	r3, [r3, #0]
 80044c6:	68ba      	ldr	r2, [r7, #8]
 80044c8:	60da      	str	r2, [r3, #12]
    hdma->Instance->PAR = SrcAddress;

    /* Configure DMA Stream destination address */
    hdma->Instance->M0AR = DstAddress;
  }
}
 80044ca:	e007      	b.n	80044dc <DMA_SetConfig+0x50>
    hdma->Instance->PAR = SrcAddress;
 80044cc:	68fb      	ldr	r3, [r7, #12]
 80044ce:	681b      	ldr	r3, [r3, #0]
 80044d0:	68ba      	ldr	r2, [r7, #8]
 80044d2:	609a      	str	r2, [r3, #8]
    hdma->Instance->M0AR = DstAddress;
 80044d4:	68fb      	ldr	r3, [r7, #12]
 80044d6:	681b      	ldr	r3, [r3, #0]
 80044d8:	687a      	ldr	r2, [r7, #4]
 80044da:	60da      	str	r2, [r3, #12]
}
 80044dc:	bf00      	nop
 80044de:	3714      	adds	r7, #20
 80044e0:	46bd      	mov	sp, r7
 80044e2:	f85d 7b04 	ldr.w	r7, [sp], #4
 80044e6:	4770      	bx	lr

080044e8 <DMA_CalcBaseAndBitshift>:
  * @param  hdma       pointer to a DMA_HandleTypeDef structure that contains
  *                     the configuration information for the specified DMA Stream. 
  * @retval Stream base address
  */
static uint32_t DMA_CalcBaseAndBitshift(DMA_HandleTypeDef *hdma)
{
 80044e8:	b480      	push	{r7}
 80044ea:	b085      	sub	sp, #20
 80044ec:	af00      	add	r7, sp, #0
 80044ee:	6078      	str	r0, [r7, #4]
  uint32_t stream_number = (((uint32_t)hdma->Instance & 0xFFU) - 16U) / 24U;
 80044f0:	687b      	ldr	r3, [r7, #4]
 80044f2:	681b      	ldr	r3, [r3, #0]
 80044f4:	b2db      	uxtb	r3, r3
 80044f6:	3b10      	subs	r3, #16
 80044f8:	4a14      	ldr	r2, [pc, #80]	; (800454c <DMA_CalcBaseAndBitshift+0x64>)
 80044fa:	fba2 2303 	umull	r2, r3, r2, r3
 80044fe:	091b      	lsrs	r3, r3, #4
 8004500:	60fb      	str	r3, [r7, #12]
  
  /* lookup table for necessary bitshift of flags within status registers */
  static const uint8_t flagBitshiftOffset[8U] = {0U, 6U, 16U, 22U, 0U, 6U, 16U, 22U};
  hdma->StreamIndex = flagBitshiftOffset[stream_number];
 8004502:	4a13      	ldr	r2, [pc, #76]	; (8004550 <DMA_CalcBaseAndBitshift+0x68>)
 8004504:	68fb      	ldr	r3, [r7, #12]
 8004506:	4413      	add	r3, r2
 8004508:	781b      	ldrb	r3, [r3, #0]
 800450a:	461a      	mov	r2, r3
 800450c:	687b      	ldr	r3, [r7, #4]
 800450e:	65da      	str	r2, [r3, #92]	; 0x5c
  
  if (stream_number > 3U)
 8004510:	68fb      	ldr	r3, [r7, #12]
 8004512:	2b03      	cmp	r3, #3
 8004514:	d909      	bls.n	800452a <DMA_CalcBaseAndBitshift+0x42>
  {
    /* return pointer to HISR and HIFCR */
    hdma->StreamBaseAddress = (((uint32_t)hdma->Instance & (uint32_t)(~0x3FFU)) + 4U);
 8004516:	687b      	ldr	r3, [r7, #4]
 8004518:	681b      	ldr	r3, [r3, #0]
 800451a:	f423 737f 	bic.w	r3, r3, #1020	; 0x3fc
 800451e:	f023 0303 	bic.w	r3, r3, #3
 8004522:	1d1a      	adds	r2, r3, #4
 8004524:	687b      	ldr	r3, [r7, #4]
 8004526:	659a      	str	r2, [r3, #88]	; 0x58
 8004528:	e007      	b.n	800453a <DMA_CalcBaseAndBitshift+0x52>
  }
  else
  {
    /* return pointer to LISR and LIFCR */
    hdma->StreamBaseAddress = ((uint32_t)hdma->Instance & (uint32_t)(~0x3FFU));
 800452a:	687b      	ldr	r3, [r7, #4]
 800452c:	681b      	ldr	r3, [r3, #0]
 800452e:	f423 737f 	bic.w	r3, r3, #1020	; 0x3fc
 8004532:	f023 0303 	bic.w	r3, r3, #3
 8004536:	687a      	ldr	r2, [r7, #4]
 8004538:	6593      	str	r3, [r2, #88]	; 0x58
  }
  
  return hdma->StreamBaseAddress;
 800453a:	687b      	ldr	r3, [r7, #4]
 800453c:	6d9b      	ldr	r3, [r3, #88]	; 0x58
}
 800453e:	4618      	mov	r0, r3
 8004540:	3714      	adds	r7, #20
 8004542:	46bd      	mov	sp, r7
 8004544:	f85d 7b04 	ldr.w	r7, [sp], #4
 8004548:	4770      	bx	lr
 800454a:	bf00      	nop
 800454c:	aaaaaaab 	.word	0xaaaaaaab
 8004550:	080093b4 	.word	0x080093b4

08004554 <DMA_CheckFifoParam>:
  * @param  hdma       pointer to a DMA_HandleTypeDef structure that contains
  *                     the configuration information for the specified DMA Stream. 
  * @retval HAL status
  */
static HAL_StatusTypeDef DMA_CheckFifoParam(DMA_HandleTypeDef *hdma)
{
 8004554:	b480      	push	{r7}
 8004556:	b085      	sub	sp, #20
 8004558:	af00      	add	r7, sp, #0
 800455a:	6078      	str	r0, [r7, #4]
  HAL_StatusTypeDef status = HAL_OK;
 800455c:	2300      	movs	r3, #0
 800455e:	73fb      	strb	r3, [r7, #15]
  uint32_t tmp = hdma->Init.FIFOThreshold;
 8004560:	687b      	ldr	r3, [r7, #4]
 8004562:	6a9b      	ldr	r3, [r3, #40]	; 0x28
 8004564:	60bb      	str	r3, [r7, #8]
  
  /* Memory Data size equal to Byte */
  if(hdma->Init.MemDataAlignment == DMA_MDATAALIGN_BYTE)
 8004566:	687b      	ldr	r3, [r7, #4]
 8004568:	699b      	ldr	r3, [r3, #24]
 800456a:	2b00      	cmp	r3, #0
 800456c:	d11f      	bne.n	80045ae <DMA_CheckFifoParam+0x5a>
  {
    switch (tmp)
 800456e:	68bb      	ldr	r3, [r7, #8]
 8004570:	2b03      	cmp	r3, #3
 8004572:	d856      	bhi.n	8004622 <DMA_CheckFifoParam+0xce>
 8004574:	a201      	add	r2, pc, #4	; (adr r2, 800457c <DMA_CheckFifoParam+0x28>)
 8004576:	f852 f023 	ldr.w	pc, [r2, r3, lsl #2]
 800457a:	bf00      	nop
 800457c:	0800458d 	.word	0x0800458d
 8004580:	0800459f 	.word	0x0800459f
 8004584:	0800458d 	.word	0x0800458d
 8004588:	08004623 	.word	0x08004623
    {
    case DMA_FIFO_THRESHOLD_1QUARTERFULL:
    case DMA_FIFO_THRESHOLD_3QUARTERSFULL:
      if ((hdma->Init.MemBurst & DMA_SxCR_MBURST_1) == DMA_SxCR_MBURST_1)
 800458c:	687b      	ldr	r3, [r7, #4]
 800458e:	6adb      	ldr	r3, [r3, #44]	; 0x2c
 8004590:	f003 7380 	and.w	r3, r3, #16777216	; 0x1000000
 8004594:	2b00      	cmp	r3, #0
 8004596:	d046      	beq.n	8004626 <DMA_CheckFifoParam+0xd2>
      {
        status = HAL_ERROR;
 8004598:	2301      	movs	r3, #1
 800459a:	73fb      	strb	r3, [r7, #15]
      }
      break;
 800459c:	e043      	b.n	8004626 <DMA_CheckFifoParam+0xd2>
    case DMA_FIFO_THRESHOLD_HALFFULL:
      if (hdma->Init.MemBurst == DMA_MBURST_INC16)
 800459e:	687b      	ldr	r3, [r7, #4]
 80045a0:	6adb      	ldr	r3, [r3, #44]	; 0x2c
 80045a2:	f1b3 7fc0 	cmp.w	r3, #25165824	; 0x1800000
 80045a6:	d140      	bne.n	800462a <DMA_CheckFifoParam+0xd6>
      {
        status = HAL_ERROR;
 80045a8:	2301      	movs	r3, #1
 80045aa:	73fb      	strb	r3, [r7, #15]
      }
      break;
 80045ac:	e03d      	b.n	800462a <DMA_CheckFifoParam+0xd6>
      break;
    }
  }
  
  /* Memory Data size equal to Half-Word */
  else if (hdma->Init.MemDataAlignment == DMA_MDATAALIGN_HALFWORD)
 80045ae:	687b      	ldr	r3, [r7, #4]
 80045b0:	699b      	ldr	r3, [r3, #24]
 80045b2:	f5b3 5f00 	cmp.w	r3, #8192	; 0x2000
 80045b6:	d121      	bne.n	80045fc <DMA_CheckFifoParam+0xa8>
  {
    switch (tmp)
 80045b8:	68bb      	ldr	r3, [r7, #8]
 80045ba:	2b03      	cmp	r3, #3
 80045bc:	d837      	bhi.n	800462e <DMA_CheckFifoParam+0xda>
 80045be:	a201      	add	r2, pc, #4	; (adr r2, 80045c4 <DMA_CheckFifoParam+0x70>)
 80045c0:	f852 f023 	ldr.w	pc, [r2, r3, lsl #2]
 80045c4:	080045d5 	.word	0x080045d5
 80045c8:	080045db 	.word	0x080045db
 80045cc:	080045d5 	.word	0x080045d5
 80045d0:	080045ed 	.word	0x080045ed
    {
    case DMA_FIFO_THRESHOLD_1QUARTERFULL:
    case DMA_FIFO_THRESHOLD_3QUARTERSFULL:
      status = HAL_ERROR;
 80045d4:	2301      	movs	r3, #1
 80045d6:	73fb      	strb	r3, [r7, #15]
      break;
 80045d8:	e030      	b.n	800463c <DMA_CheckFifoParam+0xe8>
    case DMA_FIFO_THRESHOLD_HALFFULL:
      if ((hdma->Init.MemBurst & DMA_SxCR_MBURST_1) == DMA_SxCR_MBURST_1)
 80045da:	687b      	ldr	r3, [r7, #4]
 80045dc:	6adb      	ldr	r3, [r3, #44]	; 0x2c
 80045de:	f003 7380 	and.w	r3, r3, #16777216	; 0x1000000
 80045e2:	2b00      	cmp	r3, #0
 80045e4:	d025      	beq.n	8004632 <DMA_CheckFifoParam+0xde>
      {
        status = HAL_ERROR;
 80045e6:	2301      	movs	r3, #1
 80045e8:	73fb      	strb	r3, [r7, #15]
      }
      break;
 80045ea:	e022      	b.n	8004632 <DMA_CheckFifoParam+0xde>
    case DMA_FIFO_THRESHOLD_FULL:
      if (hdma->Init.MemBurst == DMA_MBURST_INC16)
 80045ec:	687b      	ldr	r3, [r7, #4]
 80045ee:	6adb      	ldr	r3, [r3, #44]	; 0x2c
 80045f0:	f1b3 7fc0 	cmp.w	r3, #25165824	; 0x1800000
 80045f4:	d11f      	bne.n	8004636 <DMA_CheckFifoParam+0xe2>
      {
        status = HAL_ERROR;
 80045f6:	2301      	movs	r3, #1
 80045f8:	73fb      	strb	r3, [r7, #15]
      }
      break;   
 80045fa:	e01c      	b.n	8004636 <DMA_CheckFifoParam+0xe2>
  }
  
  /* Memory Data size equal to Word */
  else
  {
    switch (tmp)
 80045fc:	68bb      	ldr	r3, [r7, #8]
 80045fe:	2b02      	cmp	r3, #2
 8004600:	d903      	bls.n	800460a <DMA_CheckFifoParam+0xb6>
 8004602:	68bb      	ldr	r3, [r7, #8]
 8004604:	2b03      	cmp	r3, #3
 8004606:	d003      	beq.n	8004610 <DMA_CheckFifoParam+0xbc>
      {
        status = HAL_ERROR;
      }
      break;
    default:
      break;
 8004608:	e018      	b.n	800463c <DMA_CheckFifoParam+0xe8>
      status = HAL_ERROR;
 800460a:	2301      	movs	r3, #1
 800460c:	73fb      	strb	r3, [r7, #15]
      break;
 800460e:	e015      	b.n	800463c <DMA_CheckFifoParam+0xe8>
      if ((hdma->Init.MemBurst & DMA_SxCR_MBURST_1) == DMA_SxCR_MBURST_1)
 8004610:	687b      	ldr	r3, [r7, #4]
 8004612:	6adb      	ldr	r3, [r3, #44]	; 0x2c
 8004614:	f003 7380 	and.w	r3, r3, #16777216	; 0x1000000
 8004618:	2b00      	cmp	r3, #0
 800461a:	d00e      	beq.n	800463a <DMA_CheckFifoParam+0xe6>
        status = HAL_ERROR;
 800461c:	2301      	movs	r3, #1
 800461e:	73fb      	strb	r3, [r7, #15]
      break;
 8004620:	e00b      	b.n	800463a <DMA_CheckFifoParam+0xe6>
      break;
 8004622:	bf00      	nop
 8004624:	e00a      	b.n	800463c <DMA_CheckFifoParam+0xe8>
      break;
 8004626:	bf00      	nop
 8004628:	e008      	b.n	800463c <DMA_CheckFifoParam+0xe8>
      break;
 800462a:	bf00      	nop
 800462c:	e006      	b.n	800463c <DMA_CheckFifoParam+0xe8>
      break;
 800462e:	bf00      	nop
 8004630:	e004      	b.n	800463c <DMA_CheckFifoParam+0xe8>
      break;
 8004632:	bf00      	nop
 8004634:	e002      	b.n	800463c <DMA_CheckFifoParam+0xe8>
      break;   
 8004636:	bf00      	nop
 8004638:	e000      	b.n	800463c <DMA_CheckFifoParam+0xe8>
      break;
 800463a:	bf00      	nop
    }
  } 
  
  return status; 
 800463c:	7bfb      	ldrb	r3, [r7, #15]
}
 800463e:	4618      	mov	r0, r3
 8004640:	3714      	adds	r7, #20
 8004642:	46bd      	mov	sp, r7
 8004644:	f85d 7b04 	ldr.w	r7, [sp], #4
 8004648:	4770      	bx	lr
 800464a:	bf00      	nop

0800464c <HAL_GPIO_Init>:
  * @param  GPIO_Init pointer to a GPIO_InitTypeDef structure that contains
  *         the configuration information for the specified GPIO peripheral.
  * @retval None
  */
void HAL_GPIO_Init(GPIO_TypeDef  *GPIOx, GPIO_InitTypeDef *GPIO_Init)
{
 800464c:	b480      	push	{r7}
 800464e:	b089      	sub	sp, #36	; 0x24
 8004650:	af00      	add	r7, sp, #0
 8004652:	6078      	str	r0, [r7, #4]
 8004654:	6039      	str	r1, [r7, #0]
  uint32_t position;
  uint32_t ioposition = 0x00U;
 8004656:	2300      	movs	r3, #0
 8004658:	617b      	str	r3, [r7, #20]
  uint32_t iocurrent = 0x00U;
 800465a:	2300      	movs	r3, #0
 800465c:	613b      	str	r3, [r7, #16]
  uint32_t temp = 0x00U;
 800465e:	2300      	movs	r3, #0
 8004660:	61bb      	str	r3, [r7, #24]
  assert_param(IS_GPIO_ALL_INSTANCE(GPIOx));
  assert_param(IS_GPIO_PIN(GPIO_Init->Pin));
  assert_param(IS_GPIO_MODE(GPIO_Init->Mode));

  /* Configure the port pins */
  for(position = 0U; position < GPIO_NUMBER; position++)
 8004662:	2300      	movs	r3, #0
 8004664:	61fb      	str	r3, [r7, #28]
 8004666:	e177      	b.n	8004958 <HAL_GPIO_Init+0x30c>
  {
    /* Get the IO position */
    ioposition = 0x01U << position;
 8004668:	2201      	movs	r2, #1
 800466a:	69fb      	ldr	r3, [r7, #28]
 800466c:	fa02 f303 	lsl.w	r3, r2, r3
 8004670:	617b      	str	r3, [r7, #20]
    /* Get the current IO position */
    iocurrent = (uint32_t)(GPIO_Init->Pin) & ioposition;
 8004672:	683b      	ldr	r3, [r7, #0]
 8004674:	681b      	ldr	r3, [r3, #0]
 8004676:	697a      	ldr	r2, [r7, #20]
 8004678:	4013      	ands	r3, r2
 800467a:	613b      	str	r3, [r7, #16]

    if(iocurrent == ioposition)
 800467c:	693a      	ldr	r2, [r7, #16]
 800467e:	697b      	ldr	r3, [r7, #20]
 8004680:	429a      	cmp	r2, r3
 8004682:	f040 8166 	bne.w	8004952 <HAL_GPIO_Init+0x306>
    {
      /*--------------------- GPIO Mode Configuration ------------------------*/
      /* In case of Output or Alternate function mode selection */
      if(((GPIO_Init->Mode & GPIO_MODE) == MODE_OUTPUT) || \
 8004686:	683b      	ldr	r3, [r7, #0]
 8004688:	685b      	ldr	r3, [r3, #4]
 800468a:	f003 0303 	and.w	r3, r3, #3
 800468e:	2b01      	cmp	r3, #1
 8004690:	d005      	beq.n	800469e <HAL_GPIO_Init+0x52>
          (GPIO_Init->Mode & GPIO_MODE) == MODE_AF)
 8004692:	683b      	ldr	r3, [r7, #0]
 8004694:	685b      	ldr	r3, [r3, #4]
 8004696:	f003 0303 	and.w	r3, r3, #3
      if(((GPIO_Init->Mode & GPIO_MODE) == MODE_OUTPUT) || \
 800469a:	2b02      	cmp	r3, #2
 800469c:	d130      	bne.n	8004700 <HAL_GPIO_Init+0xb4>
      {
        /* Check the Speed parameter */
        assert_param(IS_GPIO_SPEED(GPIO_Init->Speed));
        /* Configure the IO Speed */
        temp = GPIOx->OSPEEDR; 
 800469e:	687b      	ldr	r3, [r7, #4]
 80046a0:	689b      	ldr	r3, [r3, #8]
 80046a2:	61bb      	str	r3, [r7, #24]
        temp &= ~(GPIO_OSPEEDER_OSPEEDR0 << (position * 2U));
 80046a4:	69fb      	ldr	r3, [r7, #28]
 80046a6:	005b      	lsls	r3, r3, #1
 80046a8:	2203      	movs	r2, #3
 80046aa:	fa02 f303 	lsl.w	r3, r2, r3
 80046ae:	43db      	mvns	r3, r3
 80046b0:	69ba      	ldr	r2, [r7, #24]
 80046b2:	4013      	ands	r3, r2
 80046b4:	61bb      	str	r3, [r7, #24]
        temp |= (GPIO_Init->Speed << (position * 2U));
 80046b6:	683b      	ldr	r3, [r7, #0]
 80046b8:	68da      	ldr	r2, [r3, #12]
 80046ba:	69fb      	ldr	r3, [r7, #28]
 80046bc:	005b      	lsls	r3, r3, #1
 80046be:	fa02 f303 	lsl.w	r3, r2, r3
 80046c2:	69ba      	ldr	r2, [r7, #24]
 80046c4:	4313      	orrs	r3, r2
 80046c6:	61bb      	str	r3, [r7, #24]
        GPIOx->OSPEEDR = temp;
 80046c8:	687b      	ldr	r3, [r7, #4]
 80046ca:	69ba      	ldr	r2, [r7, #24]
 80046cc:	609a      	str	r2, [r3, #8]

        /* Configure the IO Output Type */
        temp = GPIOx->OTYPER;
 80046ce:	687b      	ldr	r3, [r7, #4]
 80046d0:	685b      	ldr	r3, [r3, #4]
 80046d2:	61bb      	str	r3, [r7, #24]
        temp &= ~(GPIO_OTYPER_OT_0 << position) ;
 80046d4:	2201      	movs	r2, #1
 80046d6:	69fb      	ldr	r3, [r7, #28]
 80046d8:	fa02 f303 	lsl.w	r3, r2, r3
 80046dc:	43db      	mvns	r3, r3
 80046de:	69ba      	ldr	r2, [r7, #24]
 80046e0:	4013      	ands	r3, r2
 80046e2:	61bb      	str	r3, [r7, #24]
        temp |= (((GPIO_Init->Mode & OUTPUT_TYPE) >> OUTPUT_TYPE_Pos) << position);
 80046e4:	683b      	ldr	r3, [r7, #0]
 80046e6:	685b      	ldr	r3, [r3, #4]
 80046e8:	091b      	lsrs	r3, r3, #4
 80046ea:	f003 0201 	and.w	r2, r3, #1
 80046ee:	69fb      	ldr	r3, [r7, #28]
 80046f0:	fa02 f303 	lsl.w	r3, r2, r3
 80046f4:	69ba      	ldr	r2, [r7, #24]
 80046f6:	4313      	orrs	r3, r2
 80046f8:	61bb      	str	r3, [r7, #24]
        GPIOx->OTYPER = temp;
 80046fa:	687b      	ldr	r3, [r7, #4]
 80046fc:	69ba      	ldr	r2, [r7, #24]
 80046fe:	605a      	str	r2, [r3, #4]
       }

      if((GPIO_Init->Mode & GPIO_MODE) != MODE_ANALOG)
 8004700:	683b      	ldr	r3, [r7, #0]
 8004702:	685b      	ldr	r3, [r3, #4]
 8004704:	f003 0303 	and.w	r3, r3, #3
 8004708:	2b03      	cmp	r3, #3
 800470a:	d017      	beq.n	800473c <HAL_GPIO_Init+0xf0>
      {
        /* Check the parameters */
        assert_param(IS_GPIO_PULL(GPIO_Init->Pull));
        
        /* Activate the Pull-up or Pull down resistor for the current IO */
        temp = GPIOx->PUPDR;
 800470c:	687b      	ldr	r3, [r7, #4]
 800470e:	68db      	ldr	r3, [r3, #12]
 8004710:	61bb      	str	r3, [r7, #24]
        temp &= ~(GPIO_PUPDR_PUPDR0 << (position * 2U));
 8004712:	69fb      	ldr	r3, [r7, #28]
 8004714:	005b      	lsls	r3, r3, #1
 8004716:	2203      	movs	r2, #3
 8004718:	fa02 f303 	lsl.w	r3, r2, r3
 800471c:	43db      	mvns	r3, r3
 800471e:	69ba      	ldr	r2, [r7, #24]
 8004720:	4013      	ands	r3, r2
 8004722:	61bb      	str	r3, [r7, #24]
        temp |= ((GPIO_Init->Pull) << (position * 2U));
 8004724:	683b      	ldr	r3, [r7, #0]
 8004726:	689a      	ldr	r2, [r3, #8]
 8004728:	69fb      	ldr	r3, [r7, #28]
 800472a:	005b      	lsls	r3, r3, #1
 800472c:	fa02 f303 	lsl.w	r3, r2, r3
 8004730:	69ba      	ldr	r2, [r7, #24]
 8004732:	4313      	orrs	r3, r2
 8004734:	61bb      	str	r3, [r7, #24]
        GPIOx->PUPDR = temp;
 8004736:	687b      	ldr	r3, [r7, #4]
 8004738:	69ba      	ldr	r2, [r7, #24]
 800473a:	60da      	str	r2, [r3, #12]
      }

      /* In case of Alternate function mode selection */
      if((GPIO_Init->Mode & GPIO_MODE) == MODE_AF)
 800473c:	683b      	ldr	r3, [r7, #0]
 800473e:	685b      	ldr	r3, [r3, #4]
 8004740:	f003 0303 	and.w	r3, r3, #3
 8004744:	2b02      	cmp	r3, #2
 8004746:	d123      	bne.n	8004790 <HAL_GPIO_Init+0x144>
      {
        /* Check the Alternate function parameter */
        assert_param(IS_GPIO_AF(GPIO_Init->Alternate));
        /* Configure Alternate function mapped with the current IO */
        temp = GPIOx->AFR[position >> 3U];
 8004748:	69fb      	ldr	r3, [r7, #28]
 800474a:	08da      	lsrs	r2, r3, #3
 800474c:	687b      	ldr	r3, [r7, #4]
 800474e:	3208      	adds	r2, #8
 8004750:	f853 3022 	ldr.w	r3, [r3, r2, lsl #2]
 8004754:	61bb      	str	r3, [r7, #24]
        temp &= ~(0xFU << ((uint32_t)(position & 0x07U) * 4U)) ;
 8004756:	69fb      	ldr	r3, [r7, #28]
 8004758:	f003 0307 	and.w	r3, r3, #7
 800475c:	009b      	lsls	r3, r3, #2
 800475e:	220f      	movs	r2, #15
 8004760:	fa02 f303 	lsl.w	r3, r2, r3
 8004764:	43db      	mvns	r3, r3
 8004766:	69ba      	ldr	r2, [r7, #24]
 8004768:	4013      	ands	r3, r2
 800476a:	61bb      	str	r3, [r7, #24]
        temp |= ((uint32_t)(GPIO_Init->Alternate) << (((uint32_t)position & 0x07U) * 4U));
 800476c:	683b      	ldr	r3, [r7, #0]
 800476e:	691a      	ldr	r2, [r3, #16]
 8004770:	69fb      	ldr	r3, [r7, #28]
 8004772:	f003 0307 	and.w	r3, r3, #7
 8004776:	009b      	lsls	r3, r3, #2
 8004778:	fa02 f303 	lsl.w	r3, r2, r3
 800477c:	69ba      	ldr	r2, [r7, #24]
 800477e:	4313      	orrs	r3, r2
 8004780:	61bb      	str	r3, [r7, #24]
        GPIOx->AFR[position >> 3U] = temp;
 8004782:	69fb      	ldr	r3, [r7, #28]
 8004784:	08da      	lsrs	r2, r3, #3
 8004786:	687b      	ldr	r3, [r7, #4]
 8004788:	3208      	adds	r2, #8
 800478a:	69b9      	ldr	r1, [r7, #24]
 800478c:	f843 1022 	str.w	r1, [r3, r2, lsl #2]
      }

      /* Configure IO Direction mode (Input, Output, Alternate or Analog) */
      temp = GPIOx->MODER;
 8004790:	687b      	ldr	r3, [r7, #4]
 8004792:	681b      	ldr	r3, [r3, #0]
 8004794:	61bb      	str	r3, [r7, #24]
      temp &= ~(GPIO_MODER_MODER0 << (position * 2U));
 8004796:	69fb      	ldr	r3, [r7, #28]
 8004798:	005b      	lsls	r3, r3, #1
 800479a:	2203      	movs	r2, #3
 800479c:	fa02 f303 	lsl.w	r3, r2, r3
 80047a0:	43db      	mvns	r3, r3
 80047a2:	69ba      	ldr	r2, [r7, #24]
 80047a4:	4013      	ands	r3, r2
 80047a6:	61bb      	str	r3, [r7, #24]
      temp |= ((GPIO_Init->Mode & GPIO_MODE) << (position * 2U));
 80047a8:	683b      	ldr	r3, [r7, #0]
 80047aa:	685b      	ldr	r3, [r3, #4]
 80047ac:	f003 0203 	and.w	r2, r3, #3
 80047b0:	69fb      	ldr	r3, [r7, #28]
 80047b2:	005b      	lsls	r3, r3, #1
 80047b4:	fa02 f303 	lsl.w	r3, r2, r3
 80047b8:	69ba      	ldr	r2, [r7, #24]
 80047ba:	4313      	orrs	r3, r2
 80047bc:	61bb      	str	r3, [r7, #24]
      GPIOx->MODER = temp;
 80047be:	687b      	ldr	r3, [r7, #4]
 80047c0:	69ba      	ldr	r2, [r7, #24]
 80047c2:	601a      	str	r2, [r3, #0]

      /*--------------------- EXTI Mode Configuration ------------------------*/
      /* Configure the External Interrupt or event for the current IO */
      if((GPIO_Init->Mode & EXTI_MODE) != 0x00U)
 80047c4:	683b      	ldr	r3, [r7, #0]
 80047c6:	685b      	ldr	r3, [r3, #4]
 80047c8:	f403 3340 	and.w	r3, r3, #196608	; 0x30000
 80047cc:	2b00      	cmp	r3, #0
 80047ce:	f000 80c0 	beq.w	8004952 <HAL_GPIO_Init+0x306>
      {
        /* Enable SYSCFG Clock */
        __HAL_RCC_SYSCFG_CLK_ENABLE();
 80047d2:	2300      	movs	r3, #0
 80047d4:	60fb      	str	r3, [r7, #12]
 80047d6:	4b66      	ldr	r3, [pc, #408]	; (8004970 <HAL_GPIO_Init+0x324>)
 80047d8:	6c5b      	ldr	r3, [r3, #68]	; 0x44
 80047da:	4a65      	ldr	r2, [pc, #404]	; (8004970 <HAL_GPIO_Init+0x324>)
 80047dc:	f443 4380 	orr.w	r3, r3, #16384	; 0x4000
 80047e0:	6453      	str	r3, [r2, #68]	; 0x44
 80047e2:	4b63      	ldr	r3, [pc, #396]	; (8004970 <HAL_GPIO_Init+0x324>)
 80047e4:	6c5b      	ldr	r3, [r3, #68]	; 0x44
 80047e6:	f403 4380 	and.w	r3, r3, #16384	; 0x4000
 80047ea:	60fb      	str	r3, [r7, #12]
 80047ec:	68fb      	ldr	r3, [r7, #12]

        temp = SYSCFG->EXTICR[position >> 2U];
 80047ee:	4a61      	ldr	r2, [pc, #388]	; (8004974 <HAL_GPIO_Init+0x328>)
 80047f0:	69fb      	ldr	r3, [r7, #28]
 80047f2:	089b      	lsrs	r3, r3, #2
 80047f4:	3302      	adds	r3, #2
 80047f6:	f852 3023 	ldr.w	r3, [r2, r3, lsl #2]
 80047fa:	61bb      	str	r3, [r7, #24]
        temp &= ~(0x0FU << (4U * (position & 0x03U)));
 80047fc:	69fb      	ldr	r3, [r7, #28]
 80047fe:	f003 0303 	and.w	r3, r3, #3
 8004802:	009b      	lsls	r3, r3, #2
 8004804:	220f      	movs	r2, #15
 8004806:	fa02 f303 	lsl.w	r3, r2, r3
 800480a:	43db      	mvns	r3, r3
 800480c:	69ba      	ldr	r2, [r7, #24]
 800480e:	4013      	ands	r3, r2
 8004810:	61bb      	str	r3, [r7, #24]
        temp |= ((uint32_t)(GPIO_GET_INDEX(GPIOx)) << (4U * (position & 0x03U)));
 8004812:	687b      	ldr	r3, [r7, #4]
 8004814:	4a58      	ldr	r2, [pc, #352]	; (8004978 <HAL_GPIO_Init+0x32c>)
 8004816:	4293      	cmp	r3, r2
 8004818:	d037      	beq.n	800488a <HAL_GPIO_Init+0x23e>
 800481a:	687b      	ldr	r3, [r7, #4]
 800481c:	4a57      	ldr	r2, [pc, #348]	; (800497c <HAL_GPIO_Init+0x330>)
 800481e:	4293      	cmp	r3, r2
 8004820:	d031      	beq.n	8004886 <HAL_GPIO_Init+0x23a>
 8004822:	687b      	ldr	r3, [r7, #4]
 8004824:	4a56      	ldr	r2, [pc, #344]	; (8004980 <HAL_GPIO_Init+0x334>)
 8004826:	4293      	cmp	r3, r2
 8004828:	d02b      	beq.n	8004882 <HAL_GPIO_Init+0x236>
 800482a:	687b      	ldr	r3, [r7, #4]
 800482c:	4a55      	ldr	r2, [pc, #340]	; (8004984 <HAL_GPIO_Init+0x338>)
 800482e:	4293      	cmp	r3, r2
 8004830:	d025      	beq.n	800487e <HAL_GPIO_Init+0x232>
 8004832:	687b      	ldr	r3, [r7, #4]
 8004834:	4a54      	ldr	r2, [pc, #336]	; (8004988 <HAL_GPIO_Init+0x33c>)
 8004836:	4293      	cmp	r3, r2
 8004838:	d01f      	beq.n	800487a <HAL_GPIO_Init+0x22e>
 800483a:	687b      	ldr	r3, [r7, #4]
 800483c:	4a53      	ldr	r2, [pc, #332]	; (800498c <HAL_GPIO_Init+0x340>)
 800483e:	4293      	cmp	r3, r2
 8004840:	d019      	beq.n	8004876 <HAL_GPIO_Init+0x22a>
 8004842:	687b      	ldr	r3, [r7, #4]
 8004844:	4a52      	ldr	r2, [pc, #328]	; (8004990 <HAL_GPIO_Init+0x344>)
 8004846:	4293      	cmp	r3, r2
 8004848:	d013      	beq.n	8004872 <HAL_GPIO_Init+0x226>
 800484a:	687b      	ldr	r3, [r7, #4]
 800484c:	4a51      	ldr	r2, [pc, #324]	; (8004994 <HAL_GPIO_Init+0x348>)
 800484e:	4293      	cmp	r3, r2
 8004850:	d00d      	beq.n	800486e <HAL_GPIO_Init+0x222>
 8004852:	687b      	ldr	r3, [r7, #4]
 8004854:	4a50      	ldr	r2, [pc, #320]	; (8004998 <HAL_GPIO_Init+0x34c>)
 8004856:	4293      	cmp	r3, r2
 8004858:	d007      	beq.n	800486a <HAL_GPIO_Init+0x21e>
 800485a:	687b      	ldr	r3, [r7, #4]
 800485c:	4a4f      	ldr	r2, [pc, #316]	; (800499c <HAL_GPIO_Init+0x350>)
 800485e:	4293      	cmp	r3, r2
 8004860:	d101      	bne.n	8004866 <HAL_GPIO_Init+0x21a>
 8004862:	2309      	movs	r3, #9
 8004864:	e012      	b.n	800488c <HAL_GPIO_Init+0x240>
 8004866:	230a      	movs	r3, #10
 8004868:	e010      	b.n	800488c <HAL_GPIO_Init+0x240>
 800486a:	2308      	movs	r3, #8
 800486c:	e00e      	b.n	800488c <HAL_GPIO_Init+0x240>
 800486e:	2307      	movs	r3, #7
 8004870:	e00c      	b.n	800488c <HAL_GPIO_Init+0x240>
 8004872:	2306      	movs	r3, #6
 8004874:	e00a      	b.n	800488c <HAL_GPIO_Init+0x240>
 8004876:	2305      	movs	r3, #5
 8004878:	e008      	b.n	800488c <HAL_GPIO_Init+0x240>
 800487a:	2304      	movs	r3, #4
 800487c:	e006      	b.n	800488c <HAL_GPIO_Init+0x240>
 800487e:	2303      	movs	r3, #3
 8004880:	e004      	b.n	800488c <HAL_GPIO_Init+0x240>
 8004882:	2302      	movs	r3, #2
 8004884:	e002      	b.n	800488c <HAL_GPIO_Init+0x240>
 8004886:	2301      	movs	r3, #1
 8004888:	e000      	b.n	800488c <HAL_GPIO_Init+0x240>
 800488a:	2300      	movs	r3, #0
 800488c:	69fa      	ldr	r2, [r7, #28]
 800488e:	f002 0203 	and.w	r2, r2, #3
 8004892:	0092      	lsls	r2, r2, #2
 8004894:	4093      	lsls	r3, r2
 8004896:	69ba      	ldr	r2, [r7, #24]
 8004898:	4313      	orrs	r3, r2
 800489a:	61bb      	str	r3, [r7, #24]
        SYSCFG->EXTICR[position >> 2U] = temp;
 800489c:	4935      	ldr	r1, [pc, #212]	; (8004974 <HAL_GPIO_Init+0x328>)
 800489e:	69fb      	ldr	r3, [r7, #28]
 80048a0:	089b      	lsrs	r3, r3, #2
 80048a2:	3302      	adds	r3, #2
 80048a4:	69ba      	ldr	r2, [r7, #24]
 80048a6:	f841 2023 	str.w	r2, [r1, r3, lsl #2]

        /* Clear Rising Falling edge configuration */
        temp = EXTI->RTSR;
 80048aa:	4b3d      	ldr	r3, [pc, #244]	; (80049a0 <HAL_GPIO_Init+0x354>)
 80048ac:	689b      	ldr	r3, [r3, #8]
 80048ae:	61bb      	str	r3, [r7, #24]
        temp &= ~((uint32_t)iocurrent);
 80048b0:	693b      	ldr	r3, [r7, #16]
 80048b2:	43db      	mvns	r3, r3
 80048b4:	69ba      	ldr	r2, [r7, #24]
 80048b6:	4013      	ands	r3, r2
 80048b8:	61bb      	str	r3, [r7, #24]
        if((GPIO_Init->Mode & TRIGGER_RISING) != 0x00U)
 80048ba:	683b      	ldr	r3, [r7, #0]
 80048bc:	685b      	ldr	r3, [r3, #4]
 80048be:	f403 1380 	and.w	r3, r3, #1048576	; 0x100000
 80048c2:	2b00      	cmp	r3, #0
 80048c4:	d003      	beq.n	80048ce <HAL_GPIO_Init+0x282>
        {
          temp |= iocurrent;
 80048c6:	69ba      	ldr	r2, [r7, #24]
 80048c8:	693b      	ldr	r3, [r7, #16]
 80048ca:	4313      	orrs	r3, r2
 80048cc:	61bb      	str	r3, [r7, #24]
        }
        EXTI->RTSR = temp;
 80048ce:	4a34      	ldr	r2, [pc, #208]	; (80049a0 <HAL_GPIO_Init+0x354>)
 80048d0:	69bb      	ldr	r3, [r7, #24]
 80048d2:	6093      	str	r3, [r2, #8]

        temp = EXTI->FTSR;
 80048d4:	4b32      	ldr	r3, [pc, #200]	; (80049a0 <HAL_GPIO_Init+0x354>)
 80048d6:	68db      	ldr	r3, [r3, #12]
 80048d8:	61bb      	str	r3, [r7, #24]
        temp &= ~((uint32_t)iocurrent);
 80048da:	693b      	ldr	r3, [r7, #16]
 80048dc:	43db      	mvns	r3, r3
 80048de:	69ba      	ldr	r2, [r7, #24]
 80048e0:	4013      	ands	r3, r2
 80048e2:	61bb      	str	r3, [r7, #24]
        if((GPIO_Init->Mode & TRIGGER_FALLING) != 0x00U)
 80048e4:	683b      	ldr	r3, [r7, #0]
 80048e6:	685b      	ldr	r3, [r3, #4]
 80048e8:	f403 1300 	and.w	r3, r3, #2097152	; 0x200000
 80048ec:	2b00      	cmp	r3, #0
 80048ee:	d003      	beq.n	80048f8 <HAL_GPIO_Init+0x2ac>
        {
          temp |= iocurrent;
 80048f0:	69ba      	ldr	r2, [r7, #24]
 80048f2:	693b      	ldr	r3, [r7, #16]
 80048f4:	4313      	orrs	r3, r2
 80048f6:	61bb      	str	r3, [r7, #24]
        }
        EXTI->FTSR = temp;
 80048f8:	4a29      	ldr	r2, [pc, #164]	; (80049a0 <HAL_GPIO_Init+0x354>)
 80048fa:	69bb      	ldr	r3, [r7, #24]
 80048fc:	60d3      	str	r3, [r2, #12]

        temp = EXTI->EMR;
 80048fe:	4b28      	ldr	r3, [pc, #160]	; (80049a0 <HAL_GPIO_Init+0x354>)
 8004900:	685b      	ldr	r3, [r3, #4]
 8004902:	61bb      	str	r3, [r7, #24]
        temp &= ~((uint32_t)iocurrent);
 8004904:	693b      	ldr	r3, [r7, #16]
 8004906:	43db      	mvns	r3, r3
 8004908:	69ba      	ldr	r2, [r7, #24]
 800490a:	4013      	ands	r3, r2
 800490c:	61bb      	str	r3, [r7, #24]
        if((GPIO_Init->Mode & EXTI_EVT) != 0x00U)
 800490e:	683b      	ldr	r3, [r7, #0]
 8004910:	685b      	ldr	r3, [r3, #4]
 8004912:	f403 3300 	and.w	r3, r3, #131072	; 0x20000
 8004916:	2b00      	cmp	r3, #0
 8004918:	d003      	beq.n	8004922 <HAL_GPIO_Init+0x2d6>
        {
          temp |= iocurrent;
 800491a:	69ba      	ldr	r2, [r7, #24]
 800491c:	693b      	ldr	r3, [r7, #16]
 800491e:	4313      	orrs	r3, r2
 8004920:	61bb      	str	r3, [r7, #24]
        }
        EXTI->EMR = temp;
 8004922:	4a1f      	ldr	r2, [pc, #124]	; (80049a0 <HAL_GPIO_Init+0x354>)
 8004924:	69bb      	ldr	r3, [r7, #24]
 8004926:	6053      	str	r3, [r2, #4]

        /* Clear EXTI line configuration */
        temp = EXTI->IMR;
 8004928:	4b1d      	ldr	r3, [pc, #116]	; (80049a0 <HAL_GPIO_Init+0x354>)
 800492a:	681b      	ldr	r3, [r3, #0]
 800492c:	61bb      	str	r3, [r7, #24]
        temp &= ~((uint32_t)iocurrent);
 800492e:	693b      	ldr	r3, [r7, #16]
 8004930:	43db      	mvns	r3, r3
 8004932:	69ba      	ldr	r2, [r7, #24]
 8004934:	4013      	ands	r3, r2
 8004936:	61bb      	str	r3, [r7, #24]
        if((GPIO_Init->Mode & EXTI_IT) != 0x00U)
 8004938:	683b      	ldr	r3, [r7, #0]
 800493a:	685b      	ldr	r3, [r3, #4]
 800493c:	f403 3380 	and.w	r3, r3, #65536	; 0x10000
 8004940:	2b00      	cmp	r3, #0
 8004942:	d003      	beq.n	800494c <HAL_GPIO_Init+0x300>
        {
          temp |= iocurrent;
 8004944:	69ba      	ldr	r2, [r7, #24]
 8004946:	693b      	ldr	r3, [r7, #16]
 8004948:	4313      	orrs	r3, r2
 800494a:	61bb      	str	r3, [r7, #24]
        }
        EXTI->IMR = temp;
 800494c:	4a14      	ldr	r2, [pc, #80]	; (80049a0 <HAL_GPIO_Init+0x354>)
 800494e:	69bb      	ldr	r3, [r7, #24]
 8004950:	6013      	str	r3, [r2, #0]
  for(position = 0U; position < GPIO_NUMBER; position++)
 8004952:	69fb      	ldr	r3, [r7, #28]
 8004954:	3301      	adds	r3, #1
 8004956:	61fb      	str	r3, [r7, #28]
 8004958:	69fb      	ldr	r3, [r7, #28]
 800495a:	2b0f      	cmp	r3, #15
 800495c:	f67f ae84 	bls.w	8004668 <HAL_GPIO_Init+0x1c>
      }
    }
  }
}
 8004960:	bf00      	nop
 8004962:	bf00      	nop
 8004964:	3724      	adds	r7, #36	; 0x24
 8004966:	46bd      	mov	sp, r7
 8004968:	f85d 7b04 	ldr.w	r7, [sp], #4
 800496c:	4770      	bx	lr
 800496e:	bf00      	nop
 8004970:	40023800 	.word	0x40023800
 8004974:	40013800 	.word	0x40013800
 8004978:	40020000 	.word	0x40020000
 800497c:	40020400 	.word	0x40020400
 8004980:	40020800 	.word	0x40020800
 8004984:	40020c00 	.word	0x40020c00
 8004988:	40021000 	.word	0x40021000
 800498c:	40021400 	.word	0x40021400
 8004990:	40021800 	.word	0x40021800
 8004994:	40021c00 	.word	0x40021c00
 8004998:	40022000 	.word	0x40022000
 800499c:	40022400 	.word	0x40022400
 80049a0:	40013c00 	.word	0x40013c00

080049a4 <HAL_GPIO_ReadPin>:
  * @param  GPIO_Pin specifies the port bit to read.
  *         This parameter can be GPIO_PIN_x where x can be (0..15).
  * @retval The input port pin value.
  */
GPIO_PinState HAL_GPIO_ReadPin(GPIO_TypeDef* GPIOx, uint16_t GPIO_Pin)
{
 80049a4:	b480      	push	{r7}
 80049a6:	b085      	sub	sp, #20
 80049a8:	af00      	add	r7, sp, #0
 80049aa:	6078      	str	r0, [r7, #4]
 80049ac:	460b      	mov	r3, r1
 80049ae:	807b      	strh	r3, [r7, #2]
  GPIO_PinState bitstatus;

  /* Check the parameters */
  assert_param(IS_GPIO_PIN(GPIO_Pin));

  if((GPIOx->IDR & GPIO_Pin) != (uint32_t)GPIO_PIN_RESET)
 80049b0:	687b      	ldr	r3, [r7, #4]
 80049b2:	691a      	ldr	r2, [r3, #16]
 80049b4:	887b      	ldrh	r3, [r7, #2]
 80049b6:	4013      	ands	r3, r2
 80049b8:	2b00      	cmp	r3, #0
 80049ba:	d002      	beq.n	80049c2 <HAL_GPIO_ReadPin+0x1e>
  {
    bitstatus = GPIO_PIN_SET;
 80049bc:	2301      	movs	r3, #1
 80049be:	73fb      	strb	r3, [r7, #15]
 80049c0:	e001      	b.n	80049c6 <HAL_GPIO_ReadPin+0x22>
  }
  else
  {
    bitstatus = GPIO_PIN_RESET;
 80049c2:	2300      	movs	r3, #0
 80049c4:	73fb      	strb	r3, [r7, #15]
  }
  return bitstatus;
 80049c6:	7bfb      	ldrb	r3, [r7, #15]
}
 80049c8:	4618      	mov	r0, r3
 80049ca:	3714      	adds	r7, #20
 80049cc:	46bd      	mov	sp, r7
 80049ce:	f85d 7b04 	ldr.w	r7, [sp], #4
 80049d2:	4770      	bx	lr

080049d4 <HAL_GPIO_WritePin>:
  *            @arg GPIO_PIN_RESET: to clear the port pin
  *            @arg GPIO_PIN_SET: to set the port pin
  * @retval None
  */
void HAL_GPIO_WritePin(GPIO_TypeDef* GPIOx, uint16_t GPIO_Pin, GPIO_PinState PinState)
{
 80049d4:	b480      	push	{r7}
 80049d6:	b083      	sub	sp, #12
 80049d8:	af00      	add	r7, sp, #0
 80049da:	6078      	str	r0, [r7, #4]
 80049dc:	460b      	mov	r3, r1
 80049de:	807b      	strh	r3, [r7, #2]
 80049e0:	4613      	mov	r3, r2
 80049e2:	707b      	strb	r3, [r7, #1]
  /* Check the parameters */
  assert_param(IS_GPIO_PIN(GPIO_Pin));
  assert_param(IS_GPIO_PIN_ACTION(PinState));

  if(PinState != GPIO_PIN_RESET)
 80049e4:	787b      	ldrb	r3, [r7, #1]
 80049e6:	2b00      	cmp	r3, #0
 80049e8:	d003      	beq.n	80049f2 <HAL_GPIO_WritePin+0x1e>
  {
    GPIOx->BSRR = GPIO_Pin;
 80049ea:	887a      	ldrh	r2, [r7, #2]
 80049ec:	687b      	ldr	r3, [r7, #4]
 80049ee:	619a      	str	r2, [r3, #24]
  }
  else
  {
    GPIOx->BSRR = (uint32_t)GPIO_Pin << 16U;
  }
}
 80049f0:	e003      	b.n	80049fa <HAL_GPIO_WritePin+0x26>
    GPIOx->BSRR = (uint32_t)GPIO_Pin << 16U;
 80049f2:	887b      	ldrh	r3, [r7, #2]
 80049f4:	041a      	lsls	r2, r3, #16
 80049f6:	687b      	ldr	r3, [r7, #4]
 80049f8:	619a      	str	r2, [r3, #24]
}
 80049fa:	bf00      	nop
 80049fc:	370c      	adds	r7, #12
 80049fe:	46bd      	mov	sp, r7
 8004a00:	f85d 7b04 	ldr.w	r7, [sp], #4
 8004a04:	4770      	bx	lr

08004a06 <HAL_GPIO_TogglePin>:
  *                      x can be (A..I) to select the GPIO peripheral for STM32F40XX and STM32F427X devices.
  * @param  GPIO_Pin Specifies the pins to be toggled.
  * @retval None
  */
void HAL_GPIO_TogglePin(GPIO_TypeDef* GPIOx, uint16_t GPIO_Pin)
{
 8004a06:	b480      	push	{r7}
 8004a08:	b085      	sub	sp, #20
 8004a0a:	af00      	add	r7, sp, #0
 8004a0c:	6078      	str	r0, [r7, #4]
 8004a0e:	460b      	mov	r3, r1
 8004a10:	807b      	strh	r3, [r7, #2]

  /* Check the parameters */
  assert_param(IS_GPIO_PIN(GPIO_Pin));

  /* get current Output Data Register value */
  odr = GPIOx->ODR;
 8004a12:	687b      	ldr	r3, [r7, #4]
 8004a14:	695b      	ldr	r3, [r3, #20]
 8004a16:	60fb      	str	r3, [r7, #12]

  /* Set selected pins that were at low level, and reset ones that were high */
  GPIOx->BSRR = ((odr & GPIO_Pin) << GPIO_NUMBER) | (~odr & GPIO_Pin);
 8004a18:	887a      	ldrh	r2, [r7, #2]
 8004a1a:	68fb      	ldr	r3, [r7, #12]
 8004a1c:	4013      	ands	r3, r2
 8004a1e:	041a      	lsls	r2, r3, #16
 8004a20:	68fb      	ldr	r3, [r7, #12]
 8004a22:	43d9      	mvns	r1, r3
 8004a24:	887b      	ldrh	r3, [r7, #2]
 8004a26:	400b      	ands	r3, r1
 8004a28:	431a      	orrs	r2, r3
 8004a2a:	687b      	ldr	r3, [r7, #4]
 8004a2c:	619a      	str	r2, [r3, #24]
}
 8004a2e:	bf00      	nop
 8004a30:	3714      	adds	r7, #20
 8004a32:	46bd      	mov	sp, r7
 8004a34:	f85d 7b04 	ldr.w	r7, [sp], #4
 8004a38:	4770      	bx	lr
	...

08004a3c <HAL_I2C_Init>:
  * @param  hi2c Pointer to a I2C_HandleTypeDef structure that contains
  *                the configuration information for the specified I2C.
  * @retval HAL status
  */
HAL_StatusTypeDef HAL_I2C_Init(I2C_HandleTypeDef *hi2c)
{
 8004a3c:	b580      	push	{r7, lr}
 8004a3e:	b084      	sub	sp, #16
 8004a40:	af00      	add	r7, sp, #0
 8004a42:	6078      	str	r0, [r7, #4]
  uint32_t freqrange;
  uint32_t pclk1;

  /* Check the I2C handle allocation */
  if (hi2c == NULL)
 8004a44:	687b      	ldr	r3, [r7, #4]
 8004a46:	2b00      	cmp	r3, #0
 8004a48:	d101      	bne.n	8004a4e <HAL_I2C_Init+0x12>
  {
    return HAL_ERROR;
 8004a4a:	2301      	movs	r3, #1
 8004a4c:	e12b      	b.n	8004ca6 <HAL_I2C_Init+0x26a>
  assert_param(IS_I2C_DUAL_ADDRESS(hi2c->Init.DualAddressMode));
  assert_param(IS_I2C_OWN_ADDRESS2(hi2c->Init.OwnAddress2));
  assert_param(IS_I2C_GENERAL_CALL(hi2c->Init.GeneralCallMode));
  assert_param(IS_I2C_NO_STRETCH(hi2c->Init.NoStretchMode));

  if (hi2c->State == HAL_I2C_STATE_RESET)
 8004a4e:	687b      	ldr	r3, [r7, #4]
 8004a50:	f893 303d 	ldrb.w	r3, [r3, #61]	; 0x3d
 8004a54:	b2db      	uxtb	r3, r3
 8004a56:	2b00      	cmp	r3, #0
 8004a58:	d106      	bne.n	8004a68 <HAL_I2C_Init+0x2c>
  {
    /* Allocate lock resource and initialize it */
    hi2c->Lock = HAL_UNLOCKED;
 8004a5a:	687b      	ldr	r3, [r7, #4]
 8004a5c:	2200      	movs	r2, #0
 8004a5e:	f883 203c 	strb.w	r2, [r3, #60]	; 0x3c

    /* Init the low level hardware : GPIO, CLOCK, NVIC */
    hi2c->MspInitCallback(hi2c);
#else
    /* Init the low level hardware : GPIO, CLOCK, NVIC */
    HAL_I2C_MspInit(hi2c);
 8004a62:	6878      	ldr	r0, [r7, #4]
 8004a64:	f7fd fe4a 	bl	80026fc <HAL_I2C_MspInit>
#endif /* USE_HAL_I2C_REGISTER_CALLBACKS */
  }

  hi2c->State = HAL_I2C_STATE_BUSY;
 8004a68:	687b      	ldr	r3, [r7, #4]
 8004a6a:	2224      	movs	r2, #36	; 0x24
 8004a6c:	f883 203d 	strb.w	r2, [r3, #61]	; 0x3d

  /* Disable the selected I2C peripheral */
  __HAL_I2C_DISABLE(hi2c);
 8004a70:	687b      	ldr	r3, [r7, #4]
 8004a72:	681b      	ldr	r3, [r3, #0]
 8004a74:	681a      	ldr	r2, [r3, #0]
 8004a76:	687b      	ldr	r3, [r7, #4]
 8004a78:	681b      	ldr	r3, [r3, #0]
 8004a7a:	f022 0201 	bic.w	r2, r2, #1
 8004a7e:	601a      	str	r2, [r3, #0]

  /*Reset I2C*/
  hi2c->Instance->CR1 |= I2C_CR1_SWRST;
 8004a80:	687b      	ldr	r3, [r7, #4]
 8004a82:	681b      	ldr	r3, [r3, #0]
 8004a84:	681a      	ldr	r2, [r3, #0]
 8004a86:	687b      	ldr	r3, [r7, #4]
 8004a88:	681b      	ldr	r3, [r3, #0]
 8004a8a:	f442 4200 	orr.w	r2, r2, #32768	; 0x8000
 8004a8e:	601a      	str	r2, [r3, #0]
  hi2c->Instance->CR1 &= ~I2C_CR1_SWRST;
 8004a90:	687b      	ldr	r3, [r7, #4]
 8004a92:	681b      	ldr	r3, [r3, #0]
 8004a94:	681a      	ldr	r2, [r3, #0]
 8004a96:	687b      	ldr	r3, [r7, #4]
 8004a98:	681b      	ldr	r3, [r3, #0]
 8004a9a:	f422 4200 	bic.w	r2, r2, #32768	; 0x8000
 8004a9e:	601a      	str	r2, [r3, #0]

  /* Get PCLK1 frequency */
  pclk1 = HAL_RCC_GetPCLK1Freq();
 8004aa0:	f001 fc72 	bl	8006388 <HAL_RCC_GetPCLK1Freq>
 8004aa4:	60f8      	str	r0, [r7, #12]

  /* Check the minimum allowed PCLK1 frequency */
  if (I2C_MIN_PCLK_FREQ(pclk1, hi2c->Init.ClockSpeed) == 1U)
 8004aa6:	687b      	ldr	r3, [r7, #4]
 8004aa8:	685b      	ldr	r3, [r3, #4]
 8004aaa:	4a81      	ldr	r2, [pc, #516]	; (8004cb0 <HAL_I2C_Init+0x274>)
 8004aac:	4293      	cmp	r3, r2
 8004aae:	d807      	bhi.n	8004ac0 <HAL_I2C_Init+0x84>
 8004ab0:	68fb      	ldr	r3, [r7, #12]
 8004ab2:	4a80      	ldr	r2, [pc, #512]	; (8004cb4 <HAL_I2C_Init+0x278>)
 8004ab4:	4293      	cmp	r3, r2
 8004ab6:	bf94      	ite	ls
 8004ab8:	2301      	movls	r3, #1
 8004aba:	2300      	movhi	r3, #0
 8004abc:	b2db      	uxtb	r3, r3
 8004abe:	e006      	b.n	8004ace <HAL_I2C_Init+0x92>
 8004ac0:	68fb      	ldr	r3, [r7, #12]
 8004ac2:	4a7d      	ldr	r2, [pc, #500]	; (8004cb8 <HAL_I2C_Init+0x27c>)
 8004ac4:	4293      	cmp	r3, r2
 8004ac6:	bf94      	ite	ls
 8004ac8:	2301      	movls	r3, #1
 8004aca:	2300      	movhi	r3, #0
 8004acc:	b2db      	uxtb	r3, r3
 8004ace:	2b00      	cmp	r3, #0
 8004ad0:	d001      	beq.n	8004ad6 <HAL_I2C_Init+0x9a>
  {
    return HAL_ERROR;
 8004ad2:	2301      	movs	r3, #1
 8004ad4:	e0e7      	b.n	8004ca6 <HAL_I2C_Init+0x26a>
  }

  /* Calculate frequency range */
  freqrange = I2C_FREQRANGE(pclk1);
 8004ad6:	68fb      	ldr	r3, [r7, #12]
 8004ad8:	4a78      	ldr	r2, [pc, #480]	; (8004cbc <HAL_I2C_Init+0x280>)
 8004ada:	fba2 2303 	umull	r2, r3, r2, r3
 8004ade:	0c9b      	lsrs	r3, r3, #18
 8004ae0:	60bb      	str	r3, [r7, #8]

  /*---------------------------- I2Cx CR2 Configuration ----------------------*/
  /* Configure I2Cx: Frequency range */
  MODIFY_REG(hi2c->Instance->CR2, I2C_CR2_FREQ, freqrange);
 8004ae2:	687b      	ldr	r3, [r7, #4]
 8004ae4:	681b      	ldr	r3, [r3, #0]
 8004ae6:	685b      	ldr	r3, [r3, #4]
 8004ae8:	f023 013f 	bic.w	r1, r3, #63	; 0x3f
 8004aec:	687b      	ldr	r3, [r7, #4]
 8004aee:	681b      	ldr	r3, [r3, #0]
 8004af0:	68ba      	ldr	r2, [r7, #8]
 8004af2:	430a      	orrs	r2, r1
 8004af4:	605a      	str	r2, [r3, #4]

  /*---------------------------- I2Cx TRISE Configuration --------------------*/
  /* Configure I2Cx: Rise Time */
  MODIFY_REG(hi2c->Instance->TRISE, I2C_TRISE_TRISE, I2C_RISE_TIME(freqrange, hi2c->Init.ClockSpeed));
 8004af6:	687b      	ldr	r3, [r7, #4]
 8004af8:	681b      	ldr	r3, [r3, #0]
 8004afa:	6a1b      	ldr	r3, [r3, #32]
 8004afc:	f023 013f 	bic.w	r1, r3, #63	; 0x3f
 8004b00:	687b      	ldr	r3, [r7, #4]
 8004b02:	685b      	ldr	r3, [r3, #4]
 8004b04:	4a6a      	ldr	r2, [pc, #424]	; (8004cb0 <HAL_I2C_Init+0x274>)
 8004b06:	4293      	cmp	r3, r2
 8004b08:	d802      	bhi.n	8004b10 <HAL_I2C_Init+0xd4>
 8004b0a:	68bb      	ldr	r3, [r7, #8]
 8004b0c:	3301      	adds	r3, #1
 8004b0e:	e009      	b.n	8004b24 <HAL_I2C_Init+0xe8>
 8004b10:	68bb      	ldr	r3, [r7, #8]
 8004b12:	f44f 7296 	mov.w	r2, #300	; 0x12c
 8004b16:	fb02 f303 	mul.w	r3, r2, r3
 8004b1a:	4a69      	ldr	r2, [pc, #420]	; (8004cc0 <HAL_I2C_Init+0x284>)
 8004b1c:	fba2 2303 	umull	r2, r3, r2, r3
 8004b20:	099b      	lsrs	r3, r3, #6
 8004b22:	3301      	adds	r3, #1
 8004b24:	687a      	ldr	r2, [r7, #4]
 8004b26:	6812      	ldr	r2, [r2, #0]
 8004b28:	430b      	orrs	r3, r1
 8004b2a:	6213      	str	r3, [r2, #32]

  /*---------------------------- I2Cx CCR Configuration ----------------------*/
  /* Configure I2Cx: Speed */
  MODIFY_REG(hi2c->Instance->CCR, (I2C_CCR_FS | I2C_CCR_DUTY | I2C_CCR_CCR), I2C_SPEED(pclk1, hi2c->Init.ClockSpeed, hi2c->Init.DutyCycle));
 8004b2c:	687b      	ldr	r3, [r7, #4]
 8004b2e:	681b      	ldr	r3, [r3, #0]
 8004b30:	69db      	ldr	r3, [r3, #28]
 8004b32:	f423 424f 	bic.w	r2, r3, #52992	; 0xcf00
 8004b36:	f022 02ff 	bic.w	r2, r2, #255	; 0xff
 8004b3a:	687b      	ldr	r3, [r7, #4]
 8004b3c:	685b      	ldr	r3, [r3, #4]
 8004b3e:	495c      	ldr	r1, [pc, #368]	; (8004cb0 <HAL_I2C_Init+0x274>)
 8004b40:	428b      	cmp	r3, r1
 8004b42:	d819      	bhi.n	8004b78 <HAL_I2C_Init+0x13c>
 8004b44:	68fb      	ldr	r3, [r7, #12]
 8004b46:	1e59      	subs	r1, r3, #1
 8004b48:	687b      	ldr	r3, [r7, #4]
 8004b4a:	685b      	ldr	r3, [r3, #4]
 8004b4c:	005b      	lsls	r3, r3, #1
 8004b4e:	fbb1 f3f3 	udiv	r3, r1, r3
 8004b52:	1c59      	adds	r1, r3, #1
 8004b54:	f640 73fc 	movw	r3, #4092	; 0xffc
 8004b58:	400b      	ands	r3, r1
 8004b5a:	2b00      	cmp	r3, #0
 8004b5c:	d00a      	beq.n	8004b74 <HAL_I2C_Init+0x138>
 8004b5e:	68fb      	ldr	r3, [r7, #12]
 8004b60:	1e59      	subs	r1, r3, #1
 8004b62:	687b      	ldr	r3, [r7, #4]
 8004b64:	685b      	ldr	r3, [r3, #4]
 8004b66:	005b      	lsls	r3, r3, #1
 8004b68:	fbb1 f3f3 	udiv	r3, r1, r3
 8004b6c:	3301      	adds	r3, #1
 8004b6e:	f3c3 030b 	ubfx	r3, r3, #0, #12
 8004b72:	e051      	b.n	8004c18 <HAL_I2C_Init+0x1dc>
 8004b74:	2304      	movs	r3, #4
 8004b76:	e04f      	b.n	8004c18 <HAL_I2C_Init+0x1dc>
 8004b78:	687b      	ldr	r3, [r7, #4]
 8004b7a:	689b      	ldr	r3, [r3, #8]
 8004b7c:	2b00      	cmp	r3, #0
 8004b7e:	d111      	bne.n	8004ba4 <HAL_I2C_Init+0x168>
 8004b80:	68fb      	ldr	r3, [r7, #12]
 8004b82:	1e58      	subs	r0, r3, #1
 8004b84:	687b      	ldr	r3, [r7, #4]
 8004b86:	6859      	ldr	r1, [r3, #4]
 8004b88:	460b      	mov	r3, r1
 8004b8a:	005b      	lsls	r3, r3, #1
 8004b8c:	440b      	add	r3, r1
 8004b8e:	fbb0 f3f3 	udiv	r3, r0, r3
 8004b92:	3301      	adds	r3, #1
 8004b94:	f3c3 030b 	ubfx	r3, r3, #0, #12
 8004b98:	2b00      	cmp	r3, #0
 8004b9a:	bf0c      	ite	eq
 8004b9c:	2301      	moveq	r3, #1
 8004b9e:	2300      	movne	r3, #0
 8004ba0:	b2db      	uxtb	r3, r3
 8004ba2:	e012      	b.n	8004bca <HAL_I2C_Init+0x18e>
 8004ba4:	68fb      	ldr	r3, [r7, #12]
 8004ba6:	1e58      	subs	r0, r3, #1
 8004ba8:	687b      	ldr	r3, [r7, #4]
 8004baa:	6859      	ldr	r1, [r3, #4]
 8004bac:	460b      	mov	r3, r1
 8004bae:	009b      	lsls	r3, r3, #2
 8004bb0:	440b      	add	r3, r1
 8004bb2:	0099      	lsls	r1, r3, #2
 8004bb4:	440b      	add	r3, r1
 8004bb6:	fbb0 f3f3 	udiv	r3, r0, r3
 8004bba:	3301      	adds	r3, #1
 8004bbc:	f3c3 030b 	ubfx	r3, r3, #0, #12
 8004bc0:	2b00      	cmp	r3, #0
 8004bc2:	bf0c      	ite	eq
 8004bc4:	2301      	moveq	r3, #1
 8004bc6:	2300      	movne	r3, #0
 8004bc8:	b2db      	uxtb	r3, r3
 8004bca:	2b00      	cmp	r3, #0
 8004bcc:	d001      	beq.n	8004bd2 <HAL_I2C_Init+0x196>
 8004bce:	2301      	movs	r3, #1
 8004bd0:	e022      	b.n	8004c18 <HAL_I2C_Init+0x1dc>
 8004bd2:	687b      	ldr	r3, [r7, #4]
 8004bd4:	689b      	ldr	r3, [r3, #8]
 8004bd6:	2b00      	cmp	r3, #0
 8004bd8:	d10e      	bne.n	8004bf8 <HAL_I2C_Init+0x1bc>
 8004bda:	68fb      	ldr	r3, [r7, #12]
 8004bdc:	1e58      	subs	r0, r3, #1
 8004bde:	687b      	ldr	r3, [r7, #4]
 8004be0:	6859      	ldr	r1, [r3, #4]
 8004be2:	460b      	mov	r3, r1
 8004be4:	005b      	lsls	r3, r3, #1
 8004be6:	440b      	add	r3, r1
 8004be8:	fbb0 f3f3 	udiv	r3, r0, r3
 8004bec:	3301      	adds	r3, #1
 8004bee:	f3c3 030b 	ubfx	r3, r3, #0, #12
 8004bf2:	f443 4300 	orr.w	r3, r3, #32768	; 0x8000
 8004bf6:	e00f      	b.n	8004c18 <HAL_I2C_Init+0x1dc>
 8004bf8:	68fb      	ldr	r3, [r7, #12]
 8004bfa:	1e58      	subs	r0, r3, #1
 8004bfc:	687b      	ldr	r3, [r7, #4]
 8004bfe:	6859      	ldr	r1, [r3, #4]
 8004c00:	460b      	mov	r3, r1
 8004c02:	009b      	lsls	r3, r3, #2
 8004c04:	440b      	add	r3, r1
 8004c06:	0099      	lsls	r1, r3, #2
 8004c08:	440b      	add	r3, r1
 8004c0a:	fbb0 f3f3 	udiv	r3, r0, r3
 8004c0e:	3301      	adds	r3, #1
 8004c10:	f3c3 030b 	ubfx	r3, r3, #0, #12
 8004c14:	f443 4340 	orr.w	r3, r3, #49152	; 0xc000
 8004c18:	6879      	ldr	r1, [r7, #4]
 8004c1a:	6809      	ldr	r1, [r1, #0]
 8004c1c:	4313      	orrs	r3, r2
 8004c1e:	61cb      	str	r3, [r1, #28]

  /*---------------------------- I2Cx CR1 Configuration ----------------------*/
  /* Configure I2Cx: Generalcall and NoStretch mode */
  MODIFY_REG(hi2c->Instance->CR1, (I2C_CR1_ENGC | I2C_CR1_NOSTRETCH), (hi2c->Init.GeneralCallMode | hi2c->Init.NoStretchMode));
 8004c20:	687b      	ldr	r3, [r7, #4]
 8004c22:	681b      	ldr	r3, [r3, #0]
 8004c24:	681b      	ldr	r3, [r3, #0]
 8004c26:	f023 01c0 	bic.w	r1, r3, #192	; 0xc0
 8004c2a:	687b      	ldr	r3, [r7, #4]
 8004c2c:	69da      	ldr	r2, [r3, #28]
 8004c2e:	687b      	ldr	r3, [r7, #4]
 8004c30:	6a1b      	ldr	r3, [r3, #32]
 8004c32:	431a      	orrs	r2, r3
 8004c34:	687b      	ldr	r3, [r7, #4]
 8004c36:	681b      	ldr	r3, [r3, #0]
 8004c38:	430a      	orrs	r2, r1
 8004c3a:	601a      	str	r2, [r3, #0]

  /*---------------------------- I2Cx OAR1 Configuration ---------------------*/
  /* Configure I2Cx: Own Address1 and addressing mode */
  MODIFY_REG(hi2c->Instance->OAR1, (I2C_OAR1_ADDMODE | I2C_OAR1_ADD8_9 | I2C_OAR1_ADD1_7 | I2C_OAR1_ADD0), (hi2c->Init.AddressingMode | hi2c->Init.OwnAddress1));
 8004c3c:	687b      	ldr	r3, [r7, #4]
 8004c3e:	681b      	ldr	r3, [r3, #0]
 8004c40:	689b      	ldr	r3, [r3, #8]
 8004c42:	f423 4303 	bic.w	r3, r3, #33536	; 0x8300
 8004c46:	f023 03ff 	bic.w	r3, r3, #255	; 0xff
 8004c4a:	687a      	ldr	r2, [r7, #4]
 8004c4c:	6911      	ldr	r1, [r2, #16]
 8004c4e:	687a      	ldr	r2, [r7, #4]
 8004c50:	68d2      	ldr	r2, [r2, #12]
 8004c52:	4311      	orrs	r1, r2
 8004c54:	687a      	ldr	r2, [r7, #4]
 8004c56:	6812      	ldr	r2, [r2, #0]
 8004c58:	430b      	orrs	r3, r1
 8004c5a:	6093      	str	r3, [r2, #8]

  /*---------------------------- I2Cx OAR2 Configuration ---------------------*/
  /* Configure I2Cx: Dual mode and Own Address2 */
  MODIFY_REG(hi2c->Instance->OAR2, (I2C_OAR2_ENDUAL | I2C_OAR2_ADD2), (hi2c->Init.DualAddressMode | hi2c->Init.OwnAddress2));
 8004c5c:	687b      	ldr	r3, [r7, #4]
 8004c5e:	681b      	ldr	r3, [r3, #0]
 8004c60:	68db      	ldr	r3, [r3, #12]
 8004c62:	f023 01ff 	bic.w	r1, r3, #255	; 0xff
 8004c66:	687b      	ldr	r3, [r7, #4]
 8004c68:	695a      	ldr	r2, [r3, #20]
 8004c6a:	687b      	ldr	r3, [r7, #4]
 8004c6c:	699b      	ldr	r3, [r3, #24]
 8004c6e:	431a      	orrs	r2, r3
 8004c70:	687b      	ldr	r3, [r7, #4]
 8004c72:	681b      	ldr	r3, [r3, #0]
 8004c74:	430a      	orrs	r2, r1
 8004c76:	60da      	str	r2, [r3, #12]

  /* Enable the selected I2C peripheral */
  __HAL_I2C_ENABLE(hi2c);
 8004c78:	687b      	ldr	r3, [r7, #4]
 8004c7a:	681b      	ldr	r3, [r3, #0]
 8004c7c:	681a      	ldr	r2, [r3, #0]
 8004c7e:	687b      	ldr	r3, [r7, #4]
 8004c80:	681b      	ldr	r3, [r3, #0]
 8004c82:	f042 0201 	orr.w	r2, r2, #1
 8004c86:	601a      	str	r2, [r3, #0]

  hi2c->ErrorCode = HAL_I2C_ERROR_NONE;
 8004c88:	687b      	ldr	r3, [r7, #4]
 8004c8a:	2200      	movs	r2, #0
 8004c8c:	641a      	str	r2, [r3, #64]	; 0x40
  hi2c->State = HAL_I2C_STATE_READY;
 8004c8e:	687b      	ldr	r3, [r7, #4]
 8004c90:	2220      	movs	r2, #32
 8004c92:	f883 203d 	strb.w	r2, [r3, #61]	; 0x3d
  hi2c->PreviousState = I2C_STATE_NONE;
 8004c96:	687b      	ldr	r3, [r7, #4]
 8004c98:	2200      	movs	r2, #0
 8004c9a:	631a      	str	r2, [r3, #48]	; 0x30
  hi2c->Mode = HAL_I2C_MODE_NONE;
 8004c9c:	687b      	ldr	r3, [r7, #4]
 8004c9e:	2200      	movs	r2, #0
 8004ca0:	f883 203e 	strb.w	r2, [r3, #62]	; 0x3e

  return HAL_OK;
 8004ca4:	2300      	movs	r3, #0
}
 8004ca6:	4618      	mov	r0, r3
 8004ca8:	3710      	adds	r7, #16
 8004caa:	46bd      	mov	sp, r7
 8004cac:	bd80      	pop	{r7, pc}
 8004cae:	bf00      	nop
 8004cb0:	000186a0 	.word	0x000186a0
 8004cb4:	001e847f 	.word	0x001e847f
 8004cb8:	003d08ff 	.word	0x003d08ff
 8004cbc:	431bde83 	.word	0x431bde83
 8004cc0:	10624dd3 	.word	0x10624dd3

08004cc4 <HAL_I2C_Master_Transmit>:
  * @param  Size Amount of data to be sent
  * @param  Timeout Timeout duration
  * @retval HAL status
  */
HAL_StatusTypeDef HAL_I2C_Master_Transmit(I2C_HandleTypeDef *hi2c, uint16_t DevAddress, uint8_t *pData, uint16_t Size, uint32_t Timeout)
{
 8004cc4:	b580      	push	{r7, lr}
 8004cc6:	b088      	sub	sp, #32
 8004cc8:	af02      	add	r7, sp, #8
 8004cca:	60f8      	str	r0, [r7, #12]
 8004ccc:	607a      	str	r2, [r7, #4]
 8004cce:	461a      	mov	r2, r3
 8004cd0:	460b      	mov	r3, r1
 8004cd2:	817b      	strh	r3, [r7, #10]
 8004cd4:	4613      	mov	r3, r2
 8004cd6:	813b      	strh	r3, [r7, #8]
  /* Init tickstart for timeout management*/
  uint32_t tickstart = HAL_GetTick();
 8004cd8:	f7fe f90c 	bl	8002ef4 <HAL_GetTick>
 8004cdc:	6178      	str	r0, [r7, #20]

  if (hi2c->State == HAL_I2C_STATE_READY)
 8004cde:	68fb      	ldr	r3, [r7, #12]
 8004ce0:	f893 303d 	ldrb.w	r3, [r3, #61]	; 0x3d
 8004ce4:	b2db      	uxtb	r3, r3
 8004ce6:	2b20      	cmp	r3, #32
 8004ce8:	f040 80e0 	bne.w	8004eac <HAL_I2C_Master_Transmit+0x1e8>
  {
    /* Wait until BUSY flag is reset */
    if (I2C_WaitOnFlagUntilTimeout(hi2c, I2C_FLAG_BUSY, SET, I2C_TIMEOUT_BUSY_FLAG, tickstart) != HAL_OK)
 8004cec:	697b      	ldr	r3, [r7, #20]
 8004cee:	9300      	str	r3, [sp, #0]
 8004cf0:	2319      	movs	r3, #25
 8004cf2:	2201      	movs	r2, #1
 8004cf4:	4970      	ldr	r1, [pc, #448]	; (8004eb8 <HAL_I2C_Master_Transmit+0x1f4>)
 8004cf6:	68f8      	ldr	r0, [r7, #12]
 8004cf8:	f000 fc64 	bl	80055c4 <I2C_WaitOnFlagUntilTimeout>
 8004cfc:	4603      	mov	r3, r0
 8004cfe:	2b00      	cmp	r3, #0
 8004d00:	d001      	beq.n	8004d06 <HAL_I2C_Master_Transmit+0x42>
    {
      return HAL_BUSY;
 8004d02:	2302      	movs	r3, #2
 8004d04:	e0d3      	b.n	8004eae <HAL_I2C_Master_Transmit+0x1ea>
    }

    /* Process Locked */
    __HAL_LOCK(hi2c);
 8004d06:	68fb      	ldr	r3, [r7, #12]
 8004d08:	f893 303c 	ldrb.w	r3, [r3, #60]	; 0x3c
 8004d0c:	2b01      	cmp	r3, #1
 8004d0e:	d101      	bne.n	8004d14 <HAL_I2C_Master_Transmit+0x50>
 8004d10:	2302      	movs	r3, #2
 8004d12:	e0cc      	b.n	8004eae <HAL_I2C_Master_Transmit+0x1ea>
 8004d14:	68fb      	ldr	r3, [r7, #12]
 8004d16:	2201      	movs	r2, #1
 8004d18:	f883 203c 	strb.w	r2, [r3, #60]	; 0x3c

    /* Check if the I2C is already enabled */
    if ((hi2c->Instance->CR1 & I2C_CR1_PE) != I2C_CR1_PE)
 8004d1c:	68fb      	ldr	r3, [r7, #12]
 8004d1e:	681b      	ldr	r3, [r3, #0]
 8004d20:	681b      	ldr	r3, [r3, #0]
 8004d22:	f003 0301 	and.w	r3, r3, #1
 8004d26:	2b01      	cmp	r3, #1
 8004d28:	d007      	beq.n	8004d3a <HAL_I2C_Master_Transmit+0x76>
    {
      /* Enable I2C peripheral */
      __HAL_I2C_ENABLE(hi2c);
 8004d2a:	68fb      	ldr	r3, [r7, #12]
 8004d2c:	681b      	ldr	r3, [r3, #0]
 8004d2e:	681a      	ldr	r2, [r3, #0]
 8004d30:	68fb      	ldr	r3, [r7, #12]
 8004d32:	681b      	ldr	r3, [r3, #0]
 8004d34:	f042 0201 	orr.w	r2, r2, #1
 8004d38:	601a      	str	r2, [r3, #0]
    }

    /* Disable Pos */
    CLEAR_BIT(hi2c->Instance->CR1, I2C_CR1_POS);
 8004d3a:	68fb      	ldr	r3, [r7, #12]
 8004d3c:	681b      	ldr	r3, [r3, #0]
 8004d3e:	681a      	ldr	r2, [r3, #0]
 8004d40:	68fb      	ldr	r3, [r7, #12]
 8004d42:	681b      	ldr	r3, [r3, #0]
 8004d44:	f422 6200 	bic.w	r2, r2, #2048	; 0x800
 8004d48:	601a      	str	r2, [r3, #0]

    hi2c->State       = HAL_I2C_STATE_BUSY_TX;
 8004d4a:	68fb      	ldr	r3, [r7, #12]
 8004d4c:	2221      	movs	r2, #33	; 0x21
 8004d4e:	f883 203d 	strb.w	r2, [r3, #61]	; 0x3d
    hi2c->Mode        = HAL_I2C_MODE_MASTER;
 8004d52:	68fb      	ldr	r3, [r7, #12]
 8004d54:	2210      	movs	r2, #16
 8004d56:	f883 203e 	strb.w	r2, [r3, #62]	; 0x3e
    hi2c->ErrorCode   = HAL_I2C_ERROR_NONE;
 8004d5a:	68fb      	ldr	r3, [r7, #12]
 8004d5c:	2200      	movs	r2, #0
 8004d5e:	641a      	str	r2, [r3, #64]	; 0x40

    /* Prepare transfer parameters */
    hi2c->pBuffPtr    = pData;
 8004d60:	68fb      	ldr	r3, [r7, #12]
 8004d62:	687a      	ldr	r2, [r7, #4]
 8004d64:	625a      	str	r2, [r3, #36]	; 0x24
    hi2c->XferCount   = Size;
 8004d66:	68fb      	ldr	r3, [r7, #12]
 8004d68:	893a      	ldrh	r2, [r7, #8]
 8004d6a:	855a      	strh	r2, [r3, #42]	; 0x2a
    hi2c->XferSize    = hi2c->XferCount;
 8004d6c:	68fb      	ldr	r3, [r7, #12]
 8004d6e:	8d5b      	ldrh	r3, [r3, #42]	; 0x2a
 8004d70:	b29a      	uxth	r2, r3
 8004d72:	68fb      	ldr	r3, [r7, #12]
 8004d74:	851a      	strh	r2, [r3, #40]	; 0x28
    hi2c->XferOptions = I2C_NO_OPTION_FRAME;
 8004d76:	68fb      	ldr	r3, [r7, #12]
 8004d78:	4a50      	ldr	r2, [pc, #320]	; (8004ebc <HAL_I2C_Master_Transmit+0x1f8>)
 8004d7a:	62da      	str	r2, [r3, #44]	; 0x2c

    /* Send Slave Address */
    if (I2C_MasterRequestWrite(hi2c, DevAddress, Timeout, tickstart) != HAL_OK)
 8004d7c:	8979      	ldrh	r1, [r7, #10]
 8004d7e:	697b      	ldr	r3, [r7, #20]
 8004d80:	6a3a      	ldr	r2, [r7, #32]
 8004d82:	68f8      	ldr	r0, [r7, #12]
 8004d84:	f000 face 	bl	8005324 <I2C_MasterRequestWrite>
 8004d88:	4603      	mov	r3, r0
 8004d8a:	2b00      	cmp	r3, #0
 8004d8c:	d001      	beq.n	8004d92 <HAL_I2C_Master_Transmit+0xce>
    {
      return HAL_ERROR;
 8004d8e:	2301      	movs	r3, #1
 8004d90:	e08d      	b.n	8004eae <HAL_I2C_Master_Transmit+0x1ea>
    }

    /* Clear ADDR flag */
    __HAL_I2C_CLEAR_ADDRFLAG(hi2c);
 8004d92:	2300      	movs	r3, #0
 8004d94:	613b      	str	r3, [r7, #16]
 8004d96:	68fb      	ldr	r3, [r7, #12]
 8004d98:	681b      	ldr	r3, [r3, #0]
 8004d9a:	695b      	ldr	r3, [r3, #20]
 8004d9c:	613b      	str	r3, [r7, #16]
 8004d9e:	68fb      	ldr	r3, [r7, #12]
 8004da0:	681b      	ldr	r3, [r3, #0]
 8004da2:	699b      	ldr	r3, [r3, #24]
 8004da4:	613b      	str	r3, [r7, #16]
 8004da6:	693b      	ldr	r3, [r7, #16]

    while (hi2c->XferSize > 0U)
 8004da8:	e066      	b.n	8004e78 <HAL_I2C_Master_Transmit+0x1b4>
    {
      /* Wait until TXE flag is set */
      if (I2C_WaitOnTXEFlagUntilTimeout(hi2c, Timeout, tickstart) != HAL_OK)
 8004daa:	697a      	ldr	r2, [r7, #20]
 8004dac:	6a39      	ldr	r1, [r7, #32]
 8004dae:	68f8      	ldr	r0, [r7, #12]
 8004db0:	f000 fd22 	bl	80057f8 <I2C_WaitOnTXEFlagUntilTimeout>
 8004db4:	4603      	mov	r3, r0
 8004db6:	2b00      	cmp	r3, #0
 8004db8:	d00d      	beq.n	8004dd6 <HAL_I2C_Master_Transmit+0x112>
      {
        if (hi2c->ErrorCode == HAL_I2C_ERROR_AF)
 8004dba:	68fb      	ldr	r3, [r7, #12]
 8004dbc:	6c1b      	ldr	r3, [r3, #64]	; 0x40
 8004dbe:	2b04      	cmp	r3, #4
 8004dc0:	d107      	bne.n	8004dd2 <HAL_I2C_Master_Transmit+0x10e>
        {
          /* Generate Stop */
          SET_BIT(hi2c->Instance->CR1, I2C_CR1_STOP);
 8004dc2:	68fb      	ldr	r3, [r7, #12]
 8004dc4:	681b      	ldr	r3, [r3, #0]
 8004dc6:	681a      	ldr	r2, [r3, #0]
 8004dc8:	68fb      	ldr	r3, [r7, #12]
 8004dca:	681b      	ldr	r3, [r3, #0]
 8004dcc:	f442 7200 	orr.w	r2, r2, #512	; 0x200
 8004dd0:	601a      	str	r2, [r3, #0]
        }
        return HAL_ERROR;
 8004dd2:	2301      	movs	r3, #1
 8004dd4:	e06b      	b.n	8004eae <HAL_I2C_Master_Transmit+0x1ea>
      }

      /* Write data to DR */
      hi2c->Instance->DR = *hi2c->pBuffPtr;
 8004dd6:	68fb      	ldr	r3, [r7, #12]
 8004dd8:	6a5b      	ldr	r3, [r3, #36]	; 0x24
 8004dda:	781a      	ldrb	r2, [r3, #0]
 8004ddc:	68fb      	ldr	r3, [r7, #12]
 8004dde:	681b      	ldr	r3, [r3, #0]
 8004de0:	611a      	str	r2, [r3, #16]

      /* Increment Buffer pointer */
      hi2c->pBuffPtr++;
 8004de2:	68fb      	ldr	r3, [r7, #12]
 8004de4:	6a5b      	ldr	r3, [r3, #36]	; 0x24
 8004de6:	1c5a      	adds	r2, r3, #1
 8004de8:	68fb      	ldr	r3, [r7, #12]
 8004dea:	625a      	str	r2, [r3, #36]	; 0x24

      /* Update counter */
      hi2c->XferCount--;
 8004dec:	68fb      	ldr	r3, [r7, #12]
 8004dee:	8d5b      	ldrh	r3, [r3, #42]	; 0x2a
 8004df0:	b29b      	uxth	r3, r3
 8004df2:	3b01      	subs	r3, #1
 8004df4:	b29a      	uxth	r2, r3
 8004df6:	68fb      	ldr	r3, [r7, #12]
 8004df8:	855a      	strh	r2, [r3, #42]	; 0x2a
      hi2c->XferSize--;
 8004dfa:	68fb      	ldr	r3, [r7, #12]
 8004dfc:	8d1b      	ldrh	r3, [r3, #40]	; 0x28
 8004dfe:	3b01      	subs	r3, #1
 8004e00:	b29a      	uxth	r2, r3
 8004e02:	68fb      	ldr	r3, [r7, #12]
 8004e04:	851a      	strh	r2, [r3, #40]	; 0x28

      if ((__HAL_I2C_GET_FLAG(hi2c, I2C_FLAG_BTF) == SET) && (hi2c->XferSize != 0U))
 8004e06:	68fb      	ldr	r3, [r7, #12]
 8004e08:	681b      	ldr	r3, [r3, #0]
 8004e0a:	695b      	ldr	r3, [r3, #20]
 8004e0c:	f003 0304 	and.w	r3, r3, #4
 8004e10:	2b04      	cmp	r3, #4
 8004e12:	d11b      	bne.n	8004e4c <HAL_I2C_Master_Transmit+0x188>
 8004e14:	68fb      	ldr	r3, [r7, #12]
 8004e16:	8d1b      	ldrh	r3, [r3, #40]	; 0x28
 8004e18:	2b00      	cmp	r3, #0
 8004e1a:	d017      	beq.n	8004e4c <HAL_I2C_Master_Transmit+0x188>
      {
        /* Write data to DR */
        hi2c->Instance->DR = *hi2c->pBuffPtr;
 8004e1c:	68fb      	ldr	r3, [r7, #12]
 8004e1e:	6a5b      	ldr	r3, [r3, #36]	; 0x24
 8004e20:	781a      	ldrb	r2, [r3, #0]
 8004e22:	68fb      	ldr	r3, [r7, #12]
 8004e24:	681b      	ldr	r3, [r3, #0]
 8004e26:	611a      	str	r2, [r3, #16]

        /* Increment Buffer pointer */
        hi2c->pBuffPtr++;
 8004e28:	68fb      	ldr	r3, [r7, #12]
 8004e2a:	6a5b      	ldr	r3, [r3, #36]	; 0x24
 8004e2c:	1c5a      	adds	r2, r3, #1
 8004e2e:	68fb      	ldr	r3, [r7, #12]
 8004e30:	625a      	str	r2, [r3, #36]	; 0x24

        /* Update counter */
        hi2c->XferCount--;
 8004e32:	68fb      	ldr	r3, [r7, #12]
 8004e34:	8d5b      	ldrh	r3, [r3, #42]	; 0x2a
 8004e36:	b29b      	uxth	r3, r3
 8004e38:	3b01      	subs	r3, #1
 8004e3a:	b29a      	uxth	r2, r3
 8004e3c:	68fb      	ldr	r3, [r7, #12]
 8004e3e:	855a      	strh	r2, [r3, #42]	; 0x2a
        hi2c->XferSize--;
 8004e40:	68fb      	ldr	r3, [r7, #12]
 8004e42:	8d1b      	ldrh	r3, [r3, #40]	; 0x28
 8004e44:	3b01      	subs	r3, #1
 8004e46:	b29a      	uxth	r2, r3
 8004e48:	68fb      	ldr	r3, [r7, #12]
 8004e4a:	851a      	strh	r2, [r3, #40]	; 0x28
      }

      /* Wait until BTF flag is set */
      if (I2C_WaitOnBTFFlagUntilTimeout(hi2c, Timeout, tickstart) != HAL_OK)
 8004e4c:	697a      	ldr	r2, [r7, #20]
 8004e4e:	6a39      	ldr	r1, [r7, #32]
 8004e50:	68f8      	ldr	r0, [r7, #12]
 8004e52:	f000 fd19 	bl	8005888 <I2C_WaitOnBTFFlagUntilTimeout>
 8004e56:	4603      	mov	r3, r0
 8004e58:	2b00      	cmp	r3, #0
 8004e5a:	d00d      	beq.n	8004e78 <HAL_I2C_Master_Transmit+0x1b4>
      {
        if (hi2c->ErrorCode == HAL_I2C_ERROR_AF)
 8004e5c:	68fb      	ldr	r3, [r7, #12]
 8004e5e:	6c1b      	ldr	r3, [r3, #64]	; 0x40
 8004e60:	2b04      	cmp	r3, #4
 8004e62:	d107      	bne.n	8004e74 <HAL_I2C_Master_Transmit+0x1b0>
        {
          /* Generate Stop */
          SET_BIT(hi2c->Instance->CR1, I2C_CR1_STOP);
 8004e64:	68fb      	ldr	r3, [r7, #12]
 8004e66:	681b      	ldr	r3, [r3, #0]
 8004e68:	681a      	ldr	r2, [r3, #0]
 8004e6a:	68fb      	ldr	r3, [r7, #12]
 8004e6c:	681b      	ldr	r3, [r3, #0]
 8004e6e:	f442 7200 	orr.w	r2, r2, #512	; 0x200
 8004e72:	601a      	str	r2, [r3, #0]
        }
        return HAL_ERROR;
 8004e74:	2301      	movs	r3, #1
 8004e76:	e01a      	b.n	8004eae <HAL_I2C_Master_Transmit+0x1ea>
    while (hi2c->XferSize > 0U)
 8004e78:	68fb      	ldr	r3, [r7, #12]
 8004e7a:	8d1b      	ldrh	r3, [r3, #40]	; 0x28
 8004e7c:	2b00      	cmp	r3, #0
 8004e7e:	d194      	bne.n	8004daa <HAL_I2C_Master_Transmit+0xe6>
      }
    }

    /* Generate Stop */
    SET_BIT(hi2c->Instance->CR1, I2C_CR1_STOP);
 8004e80:	68fb      	ldr	r3, [r7, #12]
 8004e82:	681b      	ldr	r3, [r3, #0]
 8004e84:	681a      	ldr	r2, [r3, #0]
 8004e86:	68fb      	ldr	r3, [r7, #12]
 8004e88:	681b      	ldr	r3, [r3, #0]
 8004e8a:	f442 7200 	orr.w	r2, r2, #512	; 0x200
 8004e8e:	601a      	str	r2, [r3, #0]

    hi2c->State = HAL_I2C_STATE_READY;
 8004e90:	68fb      	ldr	r3, [r7, #12]
 8004e92:	2220      	movs	r2, #32
 8004e94:	f883 203d 	strb.w	r2, [r3, #61]	; 0x3d
    hi2c->Mode = HAL_I2C_MODE_NONE;
 8004e98:	68fb      	ldr	r3, [r7, #12]
 8004e9a:	2200      	movs	r2, #0
 8004e9c:	f883 203e 	strb.w	r2, [r3, #62]	; 0x3e

    /* Process Unlocked */
    __HAL_UNLOCK(hi2c);
 8004ea0:	68fb      	ldr	r3, [r7, #12]
 8004ea2:	2200      	movs	r2, #0
 8004ea4:	f883 203c 	strb.w	r2, [r3, #60]	; 0x3c

    return HAL_OK;
 8004ea8:	2300      	movs	r3, #0
 8004eaa:	e000      	b.n	8004eae <HAL_I2C_Master_Transmit+0x1ea>
  }
  else
  {
    return HAL_BUSY;
 8004eac:	2302      	movs	r3, #2
  }
}
 8004eae:	4618      	mov	r0, r3
 8004eb0:	3718      	adds	r7, #24
 8004eb2:	46bd      	mov	sp, r7
 8004eb4:	bd80      	pop	{r7, pc}
 8004eb6:	bf00      	nop
 8004eb8:	00100002 	.word	0x00100002
 8004ebc:	ffff0000 	.word	0xffff0000

08004ec0 <HAL_I2C_Master_Receive>:
  * @param  Size Amount of data to be sent
  * @param  Timeout Timeout duration
  * @retval HAL status
  */
HAL_StatusTypeDef HAL_I2C_Master_Receive(I2C_HandleTypeDef *hi2c, uint16_t DevAddress, uint8_t *pData, uint16_t Size, uint32_t Timeout)
{
 8004ec0:	b580      	push	{r7, lr}
 8004ec2:	b08c      	sub	sp, #48	; 0x30
 8004ec4:	af02      	add	r7, sp, #8
 8004ec6:	60f8      	str	r0, [r7, #12]
 8004ec8:	607a      	str	r2, [r7, #4]
 8004eca:	461a      	mov	r2, r3
 8004ecc:	460b      	mov	r3, r1
 8004ece:	817b      	strh	r3, [r7, #10]
 8004ed0:	4613      	mov	r3, r2
 8004ed2:	813b      	strh	r3, [r7, #8]
  /* Init tickstart for timeout management*/
  uint32_t tickstart = HAL_GetTick();
 8004ed4:	f7fe f80e 	bl	8002ef4 <HAL_GetTick>
 8004ed8:	6278      	str	r0, [r7, #36]	; 0x24

  if (hi2c->State == HAL_I2C_STATE_READY)
 8004eda:	68fb      	ldr	r3, [r7, #12]
 8004edc:	f893 303d 	ldrb.w	r3, [r3, #61]	; 0x3d
 8004ee0:	b2db      	uxtb	r3, r3
 8004ee2:	2b20      	cmp	r3, #32
 8004ee4:	f040 8217 	bne.w	8005316 <HAL_I2C_Master_Receive+0x456>
  {
    /* Wait until BUSY flag is reset */
    if (I2C_WaitOnFlagUntilTimeout(hi2c, I2C_FLAG_BUSY, SET, I2C_TIMEOUT_BUSY_FLAG, tickstart) != HAL_OK)
 8004ee8:	6a7b      	ldr	r3, [r7, #36]	; 0x24
 8004eea:	9300      	str	r3, [sp, #0]
 8004eec:	2319      	movs	r3, #25
 8004eee:	2201      	movs	r2, #1
 8004ef0:	497c      	ldr	r1, [pc, #496]	; (80050e4 <HAL_I2C_Master_Receive+0x224>)
 8004ef2:	68f8      	ldr	r0, [r7, #12]
 8004ef4:	f000 fb66 	bl	80055c4 <I2C_WaitOnFlagUntilTimeout>
 8004ef8:	4603      	mov	r3, r0
 8004efa:	2b00      	cmp	r3, #0
 8004efc:	d001      	beq.n	8004f02 <HAL_I2C_Master_Receive+0x42>
    {
      return HAL_BUSY;
 8004efe:	2302      	movs	r3, #2
 8004f00:	e20a      	b.n	8005318 <HAL_I2C_Master_Receive+0x458>
    }

    /* Process Locked */
    __HAL_LOCK(hi2c);
 8004f02:	68fb      	ldr	r3, [r7, #12]
 8004f04:	f893 303c 	ldrb.w	r3, [r3, #60]	; 0x3c
 8004f08:	2b01      	cmp	r3, #1
 8004f0a:	d101      	bne.n	8004f10 <HAL_I2C_Master_Receive+0x50>
 8004f0c:	2302      	movs	r3, #2
 8004f0e:	e203      	b.n	8005318 <HAL_I2C_Master_Receive+0x458>
 8004f10:	68fb      	ldr	r3, [r7, #12]
 8004f12:	2201      	movs	r2, #1
 8004f14:	f883 203c 	strb.w	r2, [r3, #60]	; 0x3c

    /* Check if the I2C is already enabled */
    if ((hi2c->Instance->CR1 & I2C_CR1_PE) != I2C_CR1_PE)
 8004f18:	68fb      	ldr	r3, [r7, #12]
 8004f1a:	681b      	ldr	r3, [r3, #0]
 8004f1c:	681b      	ldr	r3, [r3, #0]
 8004f1e:	f003 0301 	and.w	r3, r3, #1
 8004f22:	2b01      	cmp	r3, #1
 8004f24:	d007      	beq.n	8004f36 <HAL_I2C_Master_Receive+0x76>
    {
      /* Enable I2C peripheral */
      __HAL_I2C_ENABLE(hi2c);
 8004f26:	68fb      	ldr	r3, [r7, #12]
 8004f28:	681b      	ldr	r3, [r3, #0]
 8004f2a:	681a      	ldr	r2, [r3, #0]
 8004f2c:	68fb      	ldr	r3, [r7, #12]
 8004f2e:	681b      	ldr	r3, [r3, #0]
 8004f30:	f042 0201 	orr.w	r2, r2, #1
 8004f34:	601a      	str	r2, [r3, #0]
    }

    /* Disable Pos */
    CLEAR_BIT(hi2c->Instance->CR1, I2C_CR1_POS);
 8004f36:	68fb      	ldr	r3, [r7, #12]
 8004f38:	681b      	ldr	r3, [r3, #0]
 8004f3a:	681a      	ldr	r2, [r3, #0]
 8004f3c:	68fb      	ldr	r3, [r7, #12]
 8004f3e:	681b      	ldr	r3, [r3, #0]
 8004f40:	f422 6200 	bic.w	r2, r2, #2048	; 0x800
 8004f44:	601a      	str	r2, [r3, #0]

    hi2c->State       = HAL_I2C_STATE_BUSY_RX;
 8004f46:	68fb      	ldr	r3, [r7, #12]
 8004f48:	2222      	movs	r2, #34	; 0x22
 8004f4a:	f883 203d 	strb.w	r2, [r3, #61]	; 0x3d
    hi2c->Mode        = HAL_I2C_MODE_MASTER;
 8004f4e:	68fb      	ldr	r3, [r7, #12]
 8004f50:	2210      	movs	r2, #16
 8004f52:	f883 203e 	strb.w	r2, [r3, #62]	; 0x3e
    hi2c->ErrorCode   = HAL_I2C_ERROR_NONE;
 8004f56:	68fb      	ldr	r3, [r7, #12]
 8004f58:	2200      	movs	r2, #0
 8004f5a:	641a      	str	r2, [r3, #64]	; 0x40

    /* Prepare transfer parameters */
    hi2c->pBuffPtr    = pData;
 8004f5c:	68fb      	ldr	r3, [r7, #12]
 8004f5e:	687a      	ldr	r2, [r7, #4]
 8004f60:	625a      	str	r2, [r3, #36]	; 0x24
    hi2c->XferCount   = Size;
 8004f62:	68fb      	ldr	r3, [r7, #12]
 8004f64:	893a      	ldrh	r2, [r7, #8]
 8004f66:	855a      	strh	r2, [r3, #42]	; 0x2a
    hi2c->XferSize    = hi2c->XferCount;
 8004f68:	68fb      	ldr	r3, [r7, #12]
 8004f6a:	8d5b      	ldrh	r3, [r3, #42]	; 0x2a
 8004f6c:	b29a      	uxth	r2, r3
 8004f6e:	68fb      	ldr	r3, [r7, #12]
 8004f70:	851a      	strh	r2, [r3, #40]	; 0x28
    hi2c->XferOptions = I2C_NO_OPTION_FRAME;
 8004f72:	68fb      	ldr	r3, [r7, #12]
 8004f74:	4a5c      	ldr	r2, [pc, #368]	; (80050e8 <HAL_I2C_Master_Receive+0x228>)
 8004f76:	62da      	str	r2, [r3, #44]	; 0x2c

    /* Send Slave Address */
    if (I2C_MasterRequestRead(hi2c, DevAddress, Timeout, tickstart) != HAL_OK)
 8004f78:	8979      	ldrh	r1, [r7, #10]
 8004f7a:	6a7b      	ldr	r3, [r7, #36]	; 0x24
 8004f7c:	6b3a      	ldr	r2, [r7, #48]	; 0x30
 8004f7e:	68f8      	ldr	r0, [r7, #12]
 8004f80:	f000 fa52 	bl	8005428 <I2C_MasterRequestRead>
 8004f84:	4603      	mov	r3, r0
 8004f86:	2b00      	cmp	r3, #0
 8004f88:	d001      	beq.n	8004f8e <HAL_I2C_Master_Receive+0xce>
    {
      return HAL_ERROR;
 8004f8a:	2301      	movs	r3, #1
 8004f8c:	e1c4      	b.n	8005318 <HAL_I2C_Master_Receive+0x458>
    }

    if (hi2c->XferSize == 0U)
 8004f8e:	68fb      	ldr	r3, [r7, #12]
 8004f90:	8d1b      	ldrh	r3, [r3, #40]	; 0x28
 8004f92:	2b00      	cmp	r3, #0
 8004f94:	d113      	bne.n	8004fbe <HAL_I2C_Master_Receive+0xfe>
    {
      /* Clear ADDR flag */
      __HAL_I2C_CLEAR_ADDRFLAG(hi2c);
 8004f96:	2300      	movs	r3, #0
 8004f98:	623b      	str	r3, [r7, #32]
 8004f9a:	68fb      	ldr	r3, [r7, #12]
 8004f9c:	681b      	ldr	r3, [r3, #0]
 8004f9e:	695b      	ldr	r3, [r3, #20]
 8004fa0:	623b      	str	r3, [r7, #32]
 8004fa2:	68fb      	ldr	r3, [r7, #12]
 8004fa4:	681b      	ldr	r3, [r3, #0]
 8004fa6:	699b      	ldr	r3, [r3, #24]
 8004fa8:	623b      	str	r3, [r7, #32]
 8004faa:	6a3b      	ldr	r3, [r7, #32]

      /* Generate Stop */
      SET_BIT(hi2c->Instance->CR1, I2C_CR1_STOP);
 8004fac:	68fb      	ldr	r3, [r7, #12]
 8004fae:	681b      	ldr	r3, [r3, #0]
 8004fb0:	681a      	ldr	r2, [r3, #0]
 8004fb2:	68fb      	ldr	r3, [r7, #12]
 8004fb4:	681b      	ldr	r3, [r3, #0]
 8004fb6:	f442 7200 	orr.w	r2, r2, #512	; 0x200
 8004fba:	601a      	str	r2, [r3, #0]
 8004fbc:	e198      	b.n	80052f0 <HAL_I2C_Master_Receive+0x430>
    }
    else if (hi2c->XferSize == 1U)
 8004fbe:	68fb      	ldr	r3, [r7, #12]
 8004fc0:	8d1b      	ldrh	r3, [r3, #40]	; 0x28
 8004fc2:	2b01      	cmp	r3, #1
 8004fc4:	d11b      	bne.n	8004ffe <HAL_I2C_Master_Receive+0x13e>
    {
      /* Disable Acknowledge */
      CLEAR_BIT(hi2c->Instance->CR1, I2C_CR1_ACK);
 8004fc6:	68fb      	ldr	r3, [r7, #12]
 8004fc8:	681b      	ldr	r3, [r3, #0]
 8004fca:	681a      	ldr	r2, [r3, #0]
 8004fcc:	68fb      	ldr	r3, [r7, #12]
 8004fce:	681b      	ldr	r3, [r3, #0]
 8004fd0:	f422 6280 	bic.w	r2, r2, #1024	; 0x400
 8004fd4:	601a      	str	r2, [r3, #0]

      /* Clear ADDR flag */
      __HAL_I2C_CLEAR_ADDRFLAG(hi2c);
 8004fd6:	2300      	movs	r3, #0
 8004fd8:	61fb      	str	r3, [r7, #28]
 8004fda:	68fb      	ldr	r3, [r7, #12]
 8004fdc:	681b      	ldr	r3, [r3, #0]
 8004fde:	695b      	ldr	r3, [r3, #20]
 8004fe0:	61fb      	str	r3, [r7, #28]
 8004fe2:	68fb      	ldr	r3, [r7, #12]
 8004fe4:	681b      	ldr	r3, [r3, #0]
 8004fe6:	699b      	ldr	r3, [r3, #24]
 8004fe8:	61fb      	str	r3, [r7, #28]
 8004fea:	69fb      	ldr	r3, [r7, #28]

      /* Generate Stop */
      SET_BIT(hi2c->Instance->CR1, I2C_CR1_STOP);
 8004fec:	68fb      	ldr	r3, [r7, #12]
 8004fee:	681b      	ldr	r3, [r3, #0]
 8004ff0:	681a      	ldr	r2, [r3, #0]
 8004ff2:	68fb      	ldr	r3, [r7, #12]
 8004ff4:	681b      	ldr	r3, [r3, #0]
 8004ff6:	f442 7200 	orr.w	r2, r2, #512	; 0x200
 8004ffa:	601a      	str	r2, [r3, #0]
 8004ffc:	e178      	b.n	80052f0 <HAL_I2C_Master_Receive+0x430>
    }
    else if (hi2c->XferSize == 2U)
 8004ffe:	68fb      	ldr	r3, [r7, #12]
 8005000:	8d1b      	ldrh	r3, [r3, #40]	; 0x28
 8005002:	2b02      	cmp	r3, #2
 8005004:	d11b      	bne.n	800503e <HAL_I2C_Master_Receive+0x17e>
    {
      /* Disable Acknowledge */
      CLEAR_BIT(hi2c->Instance->CR1, I2C_CR1_ACK);
 8005006:	68fb      	ldr	r3, [r7, #12]
 8005008:	681b      	ldr	r3, [r3, #0]
 800500a:	681a      	ldr	r2, [r3, #0]
 800500c:	68fb      	ldr	r3, [r7, #12]
 800500e:	681b      	ldr	r3, [r3, #0]
 8005010:	f422 6280 	bic.w	r2, r2, #1024	; 0x400
 8005014:	601a      	str	r2, [r3, #0]

      /* Enable Pos */
      SET_BIT(hi2c->Instance->CR1, I2C_CR1_POS);
 8005016:	68fb      	ldr	r3, [r7, #12]
 8005018:	681b      	ldr	r3, [r3, #0]
 800501a:	681a      	ldr	r2, [r3, #0]
 800501c:	68fb      	ldr	r3, [r7, #12]
 800501e:	681b      	ldr	r3, [r3, #0]
 8005020:	f442 6200 	orr.w	r2, r2, #2048	; 0x800
 8005024:	601a      	str	r2, [r3, #0]

      /* Clear ADDR flag */
      __HAL_I2C_CLEAR_ADDRFLAG(hi2c);
 8005026:	2300      	movs	r3, #0
 8005028:	61bb      	str	r3, [r7, #24]
 800502a:	68fb      	ldr	r3, [r7, #12]
 800502c:	681b      	ldr	r3, [r3, #0]
 800502e:	695b      	ldr	r3, [r3, #20]
 8005030:	61bb      	str	r3, [r7, #24]
 8005032:	68fb      	ldr	r3, [r7, #12]
 8005034:	681b      	ldr	r3, [r3, #0]
 8005036:	699b      	ldr	r3, [r3, #24]
 8005038:	61bb      	str	r3, [r7, #24]
 800503a:	69bb      	ldr	r3, [r7, #24]
 800503c:	e158      	b.n	80052f0 <HAL_I2C_Master_Receive+0x430>
    }
    else
    {
      /* Enable Acknowledge */
      SET_BIT(hi2c->Instance->CR1, I2C_CR1_ACK);
 800503e:	68fb      	ldr	r3, [r7, #12]
 8005040:	681b      	ldr	r3, [r3, #0]
 8005042:	681a      	ldr	r2, [r3, #0]
 8005044:	68fb      	ldr	r3, [r7, #12]
 8005046:	681b      	ldr	r3, [r3, #0]
 8005048:	f442 6280 	orr.w	r2, r2, #1024	; 0x400
 800504c:	601a      	str	r2, [r3, #0]

      /* Clear ADDR flag */
      __HAL_I2C_CLEAR_ADDRFLAG(hi2c);
 800504e:	2300      	movs	r3, #0
 8005050:	617b      	str	r3, [r7, #20]
 8005052:	68fb      	ldr	r3, [r7, #12]
 8005054:	681b      	ldr	r3, [r3, #0]
 8005056:	695b      	ldr	r3, [r3, #20]
 8005058:	617b      	str	r3, [r7, #20]
 800505a:	68fb      	ldr	r3, [r7, #12]
 800505c:	681b      	ldr	r3, [r3, #0]
 800505e:	699b      	ldr	r3, [r3, #24]
 8005060:	617b      	str	r3, [r7, #20]
 8005062:	697b      	ldr	r3, [r7, #20]
    }

    while (hi2c->XferSize > 0U)
 8005064:	e144      	b.n	80052f0 <HAL_I2C_Master_Receive+0x430>
    {
      if (hi2c->XferSize <= 3U)
 8005066:	68fb      	ldr	r3, [r7, #12]
 8005068:	8d1b      	ldrh	r3, [r3, #40]	; 0x28
 800506a:	2b03      	cmp	r3, #3
 800506c:	f200 80f1 	bhi.w	8005252 <HAL_I2C_Master_Receive+0x392>
      {
        /* One byte */
        if (hi2c->XferSize == 1U)
 8005070:	68fb      	ldr	r3, [r7, #12]
 8005072:	8d1b      	ldrh	r3, [r3, #40]	; 0x28
 8005074:	2b01      	cmp	r3, #1
 8005076:	d123      	bne.n	80050c0 <HAL_I2C_Master_Receive+0x200>
        {
          /* Wait until RXNE flag is set */
          if (I2C_WaitOnRXNEFlagUntilTimeout(hi2c, Timeout, tickstart) != HAL_OK)
 8005078:	6a7a      	ldr	r2, [r7, #36]	; 0x24
 800507a:	6b39      	ldr	r1, [r7, #48]	; 0x30
 800507c:	68f8      	ldr	r0, [r7, #12]
 800507e:	f000 fc4b 	bl	8005918 <I2C_WaitOnRXNEFlagUntilTimeout>
 8005082:	4603      	mov	r3, r0
 8005084:	2b00      	cmp	r3, #0
 8005086:	d001      	beq.n	800508c <HAL_I2C_Master_Receive+0x1cc>
          {
            return HAL_ERROR;
 8005088:	2301      	movs	r3, #1
 800508a:	e145      	b.n	8005318 <HAL_I2C_Master_Receive+0x458>
          }

          /* Read data from DR */
          *hi2c->pBuffPtr = (uint8_t)hi2c->Instance->DR;
 800508c:	68fb      	ldr	r3, [r7, #12]
 800508e:	681b      	ldr	r3, [r3, #0]
 8005090:	691a      	ldr	r2, [r3, #16]
 8005092:	68fb      	ldr	r3, [r7, #12]
 8005094:	6a5b      	ldr	r3, [r3, #36]	; 0x24
 8005096:	b2d2      	uxtb	r2, r2
 8005098:	701a      	strb	r2, [r3, #0]

          /* Increment Buffer pointer */
          hi2c->pBuffPtr++;
 800509a:	68fb      	ldr	r3, [r7, #12]
 800509c:	6a5b      	ldr	r3, [r3, #36]	; 0x24
 800509e:	1c5a      	adds	r2, r3, #1
 80050a0:	68fb      	ldr	r3, [r7, #12]
 80050a2:	625a      	str	r2, [r3, #36]	; 0x24

          /* Update counter */
          hi2c->XferSize--;
 80050a4:	68fb      	ldr	r3, [r7, #12]
 80050a6:	8d1b      	ldrh	r3, [r3, #40]	; 0x28
 80050a8:	3b01      	subs	r3, #1
 80050aa:	b29a      	uxth	r2, r3
 80050ac:	68fb      	ldr	r3, [r7, #12]
 80050ae:	851a      	strh	r2, [r3, #40]	; 0x28
          hi2c->XferCount--;
 80050b0:	68fb      	ldr	r3, [r7, #12]
 80050b2:	8d5b      	ldrh	r3, [r3, #42]	; 0x2a
 80050b4:	b29b      	uxth	r3, r3
 80050b6:	3b01      	subs	r3, #1
 80050b8:	b29a      	uxth	r2, r3
 80050ba:	68fb      	ldr	r3, [r7, #12]
 80050bc:	855a      	strh	r2, [r3, #42]	; 0x2a
 80050be:	e117      	b.n	80052f0 <HAL_I2C_Master_Receive+0x430>
        }
        /* Two bytes */
        else if (hi2c->XferSize == 2U)
 80050c0:	68fb      	ldr	r3, [r7, #12]
 80050c2:	8d1b      	ldrh	r3, [r3, #40]	; 0x28
 80050c4:	2b02      	cmp	r3, #2
 80050c6:	d14e      	bne.n	8005166 <HAL_I2C_Master_Receive+0x2a6>
        {
          /* Wait until BTF flag is set */
          if (I2C_WaitOnFlagUntilTimeout(hi2c, I2C_FLAG_BTF, RESET, Timeout, tickstart) != HAL_OK)
 80050c8:	6a7b      	ldr	r3, [r7, #36]	; 0x24
 80050ca:	9300      	str	r3, [sp, #0]
 80050cc:	6b3b      	ldr	r3, [r7, #48]	; 0x30
 80050ce:	2200      	movs	r2, #0
 80050d0:	4906      	ldr	r1, [pc, #24]	; (80050ec <HAL_I2C_Master_Receive+0x22c>)
 80050d2:	68f8      	ldr	r0, [r7, #12]
 80050d4:	f000 fa76 	bl	80055c4 <I2C_WaitOnFlagUntilTimeout>
 80050d8:	4603      	mov	r3, r0
 80050da:	2b00      	cmp	r3, #0
 80050dc:	d008      	beq.n	80050f0 <HAL_I2C_Master_Receive+0x230>
          {
            return HAL_ERROR;
 80050de:	2301      	movs	r3, #1
 80050e0:	e11a      	b.n	8005318 <HAL_I2C_Master_Receive+0x458>
 80050e2:	bf00      	nop
 80050e4:	00100002 	.word	0x00100002
 80050e8:	ffff0000 	.word	0xffff0000
 80050ec:	00010004 	.word	0x00010004
          }

          /* Generate Stop */
          SET_BIT(hi2c->Instance->CR1, I2C_CR1_STOP);
 80050f0:	68fb      	ldr	r3, [r7, #12]
 80050f2:	681b      	ldr	r3, [r3, #0]
 80050f4:	681a      	ldr	r2, [r3, #0]
 80050f6:	68fb      	ldr	r3, [r7, #12]
 80050f8:	681b      	ldr	r3, [r3, #0]
 80050fa:	f442 7200 	orr.w	r2, r2, #512	; 0x200
 80050fe:	601a      	str	r2, [r3, #0]

          /* Read data from DR */
          *hi2c->pBuffPtr = (uint8_t)hi2c->Instance->DR;
 8005100:	68fb      	ldr	r3, [r7, #12]
 8005102:	681b      	ldr	r3, [r3, #0]
 8005104:	691a      	ldr	r2, [r3, #16]
 8005106:	68fb      	ldr	r3, [r7, #12]
 8005108:	6a5b      	ldr	r3, [r3, #36]	; 0x24
 800510a:	b2d2      	uxtb	r2, r2
 800510c:	701a      	strb	r2, [r3, #0]

          /* Increment Buffer pointer */
          hi2c->pBuffPtr++;
 800510e:	68fb      	ldr	r3, [r7, #12]
 8005110:	6a5b      	ldr	r3, [r3, #36]	; 0x24
 8005112:	1c5a      	adds	r2, r3, #1
 8005114:	68fb      	ldr	r3, [r7, #12]
 8005116:	625a      	str	r2, [r3, #36]	; 0x24

          /* Update counter */
          hi2c->XferSize--;
 8005118:	68fb      	ldr	r3, [r7, #12]
 800511a:	8d1b      	ldrh	r3, [r3, #40]	; 0x28
 800511c:	3b01      	subs	r3, #1
 800511e:	b29a      	uxth	r2, r3
 8005120:	68fb      	ldr	r3, [r7, #12]
 8005122:	851a      	strh	r2, [r3, #40]	; 0x28
          hi2c->XferCount--;
 8005124:	68fb      	ldr	r3, [r7, #12]
 8005126:	8d5b      	ldrh	r3, [r3, #42]	; 0x2a
 8005128:	b29b      	uxth	r3, r3
 800512a:	3b01      	subs	r3, #1
 800512c:	b29a      	uxth	r2, r3
 800512e:	68fb      	ldr	r3, [r7, #12]
 8005130:	855a      	strh	r2, [r3, #42]	; 0x2a

          /* Read data from DR */
          *hi2c->pBuffPtr = (uint8_t)hi2c->Instance->DR;
 8005132:	68fb      	ldr	r3, [r7, #12]
 8005134:	681b      	ldr	r3, [r3, #0]
 8005136:	691a      	ldr	r2, [r3, #16]
 8005138:	68fb      	ldr	r3, [r7, #12]
 800513a:	6a5b      	ldr	r3, [r3, #36]	; 0x24
 800513c:	b2d2      	uxtb	r2, r2
 800513e:	701a      	strb	r2, [r3, #0]

          /* Increment Buffer pointer */
          hi2c->pBuffPtr++;
 8005140:	68fb      	ldr	r3, [r7, #12]
 8005142:	6a5b      	ldr	r3, [r3, #36]	; 0x24
 8005144:	1c5a      	adds	r2, r3, #1
 8005146:	68fb      	ldr	r3, [r7, #12]
 8005148:	625a      	str	r2, [r3, #36]	; 0x24

          /* Update counter */
          hi2c->XferSize--;
 800514a:	68fb      	ldr	r3, [r7, #12]
 800514c:	8d1b      	ldrh	r3, [r3, #40]	; 0x28
 800514e:	3b01      	subs	r3, #1
 8005150:	b29a      	uxth	r2, r3
 8005152:	68fb      	ldr	r3, [r7, #12]
 8005154:	851a      	strh	r2, [r3, #40]	; 0x28
          hi2c->XferCount--;
 8005156:	68fb      	ldr	r3, [r7, #12]
 8005158:	8d5b      	ldrh	r3, [r3, #42]	; 0x2a
 800515a:	b29b      	uxth	r3, r3
 800515c:	3b01      	subs	r3, #1
 800515e:	b29a      	uxth	r2, r3
 8005160:	68fb      	ldr	r3, [r7, #12]
 8005162:	855a      	strh	r2, [r3, #42]	; 0x2a
 8005164:	e0c4      	b.n	80052f0 <HAL_I2C_Master_Receive+0x430>
        }
        /* 3 Last bytes */
        else
        {
          /* Wait until BTF flag is set */
          if (I2C_WaitOnFlagUntilTimeout(hi2c, I2C_FLAG_BTF, RESET, Timeout, tickstart) != HAL_OK)
 8005166:	6a7b      	ldr	r3, [r7, #36]	; 0x24
 8005168:	9300      	str	r3, [sp, #0]
 800516a:	6b3b      	ldr	r3, [r7, #48]	; 0x30
 800516c:	2200      	movs	r2, #0
 800516e:	496c      	ldr	r1, [pc, #432]	; (8005320 <HAL_I2C_Master_Receive+0x460>)
 8005170:	68f8      	ldr	r0, [r7, #12]
 8005172:	f000 fa27 	bl	80055c4 <I2C_WaitOnFlagUntilTimeout>
 8005176:	4603      	mov	r3, r0
 8005178:	2b00      	cmp	r3, #0
 800517a:	d001      	beq.n	8005180 <HAL_I2C_Master_Receive+0x2c0>
          {
            return HAL_ERROR;
 800517c:	2301      	movs	r3, #1
 800517e:	e0cb      	b.n	8005318 <HAL_I2C_Master_Receive+0x458>
          }

          /* Disable Acknowledge */
          CLEAR_BIT(hi2c->Instance->CR1, I2C_CR1_ACK);
 8005180:	68fb      	ldr	r3, [r7, #12]
 8005182:	681b      	ldr	r3, [r3, #0]
 8005184:	681a      	ldr	r2, [r3, #0]
 8005186:	68fb      	ldr	r3, [r7, #12]
 8005188:	681b      	ldr	r3, [r3, #0]
 800518a:	f422 6280 	bic.w	r2, r2, #1024	; 0x400
 800518e:	601a      	str	r2, [r3, #0]

          /* Read data from DR */
          *hi2c->pBuffPtr = (uint8_t)hi2c->Instance->DR;
 8005190:	68fb      	ldr	r3, [r7, #12]
 8005192:	681b      	ldr	r3, [r3, #0]
 8005194:	691a      	ldr	r2, [r3, #16]
 8005196:	68fb      	ldr	r3, [r7, #12]
 8005198:	6a5b      	ldr	r3, [r3, #36]	; 0x24
 800519a:	b2d2      	uxtb	r2, r2
 800519c:	701a      	strb	r2, [r3, #0]

          /* Increment Buffer pointer */
          hi2c->pBuffPtr++;
 800519e:	68fb      	ldr	r3, [r7, #12]
 80051a0:	6a5b      	ldr	r3, [r3, #36]	; 0x24
 80051a2:	1c5a      	adds	r2, r3, #1
 80051a4:	68fb      	ldr	r3, [r7, #12]
 80051a6:	625a      	str	r2, [r3, #36]	; 0x24

          /* Update counter */
          hi2c->XferSize--;
 80051a8:	68fb      	ldr	r3, [r7, #12]
 80051aa:	8d1b      	ldrh	r3, [r3, #40]	; 0x28
 80051ac:	3b01      	subs	r3, #1
 80051ae:	b29a      	uxth	r2, r3
 80051b0:	68fb      	ldr	r3, [r7, #12]
 80051b2:	851a      	strh	r2, [r3, #40]	; 0x28
          hi2c->XferCount--;
 80051b4:	68fb      	ldr	r3, [r7, #12]
 80051b6:	8d5b      	ldrh	r3, [r3, #42]	; 0x2a
 80051b8:	b29b      	uxth	r3, r3
 80051ba:	3b01      	subs	r3, #1
 80051bc:	b29a      	uxth	r2, r3
 80051be:	68fb      	ldr	r3, [r7, #12]
 80051c0:	855a      	strh	r2, [r3, #42]	; 0x2a

          /* Wait until BTF flag is set */
          if (I2C_WaitOnFlagUntilTimeout(hi2c, I2C_FLAG_BTF, RESET, Timeout, tickstart) != HAL_OK)
 80051c2:	6a7b      	ldr	r3, [r7, #36]	; 0x24
 80051c4:	9300      	str	r3, [sp, #0]
 80051c6:	6b3b      	ldr	r3, [r7, #48]	; 0x30
 80051c8:	2200      	movs	r2, #0
 80051ca:	4955      	ldr	r1, [pc, #340]	; (8005320 <HAL_I2C_Master_Receive+0x460>)
 80051cc:	68f8      	ldr	r0, [r7, #12]
 80051ce:	f000 f9f9 	bl	80055c4 <I2C_WaitOnFlagUntilTimeout>
 80051d2:	4603      	mov	r3, r0
 80051d4:	2b00      	cmp	r3, #0
 80051d6:	d001      	beq.n	80051dc <HAL_I2C_Master_Receive+0x31c>
          {
            return HAL_ERROR;
 80051d8:	2301      	movs	r3, #1
 80051da:	e09d      	b.n	8005318 <HAL_I2C_Master_Receive+0x458>
          }

          /* Generate Stop */
          SET_BIT(hi2c->Instance->CR1, I2C_CR1_STOP);
 80051dc:	68fb      	ldr	r3, [r7, #12]
 80051de:	681b      	ldr	r3, [r3, #0]
 80051e0:	681a      	ldr	r2, [r3, #0]
 80051e2:	68fb      	ldr	r3, [r7, #12]
 80051e4:	681b      	ldr	r3, [r3, #0]
 80051e6:	f442 7200 	orr.w	r2, r2, #512	; 0x200
 80051ea:	601a      	str	r2, [r3, #0]

          /* Read data from DR */
          *hi2c->pBuffPtr = (uint8_t)hi2c->Instance->DR;
 80051ec:	68fb      	ldr	r3, [r7, #12]
 80051ee:	681b      	ldr	r3, [r3, #0]
 80051f0:	691a      	ldr	r2, [r3, #16]
 80051f2:	68fb      	ldr	r3, [r7, #12]
 80051f4:	6a5b      	ldr	r3, [r3, #36]	; 0x24
 80051f6:	b2d2      	uxtb	r2, r2
 80051f8:	701a      	strb	r2, [r3, #0]

          /* Increment Buffer pointer */
          hi2c->pBuffPtr++;
 80051fa:	68fb      	ldr	r3, [r7, #12]
 80051fc:	6a5b      	ldr	r3, [r3, #36]	; 0x24
 80051fe:	1c5a      	adds	r2, r3, #1
 8005200:	68fb      	ldr	r3, [r7, #12]
 8005202:	625a      	str	r2, [r3, #36]	; 0x24

          /* Update counter */
          hi2c->XferSize--;
 8005204:	68fb      	ldr	r3, [r7, #12]
 8005206:	8d1b      	ldrh	r3, [r3, #40]	; 0x28
 8005208:	3b01      	subs	r3, #1
 800520a:	b29a      	uxth	r2, r3
 800520c:	68fb      	ldr	r3, [r7, #12]
 800520e:	851a      	strh	r2, [r3, #40]	; 0x28
          hi2c->XferCount--;
 8005210:	68fb      	ldr	r3, [r7, #12]
 8005212:	8d5b      	ldrh	r3, [r3, #42]	; 0x2a
 8005214:	b29b      	uxth	r3, r3
 8005216:	3b01      	subs	r3, #1
 8005218:	b29a      	uxth	r2, r3
 800521a:	68fb      	ldr	r3, [r7, #12]
 800521c:	855a      	strh	r2, [r3, #42]	; 0x2a

          /* Read data from DR */
          *hi2c->pBuffPtr = (uint8_t)hi2c->Instance->DR;
 800521e:	68fb      	ldr	r3, [r7, #12]
 8005220:	681b      	ldr	r3, [r3, #0]
 8005222:	691a      	ldr	r2, [r3, #16]
 8005224:	68fb      	ldr	r3, [r7, #12]
 8005226:	6a5b      	ldr	r3, [r3, #36]	; 0x24
 8005228:	b2d2      	uxtb	r2, r2
 800522a:	701a      	strb	r2, [r3, #0]

          /* Increment Buffer pointer */
          hi2c->pBuffPtr++;
 800522c:	68fb      	ldr	r3, [r7, #12]
 800522e:	6a5b      	ldr	r3, [r3, #36]	; 0x24
 8005230:	1c5a      	adds	r2, r3, #1
 8005232:	68fb      	ldr	r3, [r7, #12]
 8005234:	625a      	str	r2, [r3, #36]	; 0x24

          /* Update counter */
          hi2c->XferSize--;
 8005236:	68fb      	ldr	r3, [r7, #12]
 8005238:	8d1b      	ldrh	r3, [r3, #40]	; 0x28
 800523a:	3b01      	subs	r3, #1
 800523c:	b29a      	uxth	r2, r3
 800523e:	68fb      	ldr	r3, [r7, #12]
 8005240:	851a      	strh	r2, [r3, #40]	; 0x28
          hi2c->XferCount--;
 8005242:	68fb      	ldr	r3, [r7, #12]
 8005244:	8d5b      	ldrh	r3, [r3, #42]	; 0x2a
 8005246:	b29b      	uxth	r3, r3
 8005248:	3b01      	subs	r3, #1
 800524a:	b29a      	uxth	r2, r3
 800524c:	68fb      	ldr	r3, [r7, #12]
 800524e:	855a      	strh	r2, [r3, #42]	; 0x2a
 8005250:	e04e      	b.n	80052f0 <HAL_I2C_Master_Receive+0x430>
        }
      }
      else
      {
        /* Wait until RXNE flag is set */
        if (I2C_WaitOnRXNEFlagUntilTimeout(hi2c, Timeout, tickstart) != HAL_OK)
 8005252:	6a7a      	ldr	r2, [r7, #36]	; 0x24
 8005254:	6b39      	ldr	r1, [r7, #48]	; 0x30
 8005256:	68f8      	ldr	r0, [r7, #12]
 8005258:	f000 fb5e 	bl	8005918 <I2C_WaitOnRXNEFlagUntilTimeout>
 800525c:	4603      	mov	r3, r0
 800525e:	2b00      	cmp	r3, #0
 8005260:	d001      	beq.n	8005266 <HAL_I2C_Master_Receive+0x3a6>
        {
          return HAL_ERROR;
 8005262:	2301      	movs	r3, #1
 8005264:	e058      	b.n	8005318 <HAL_I2C_Master_Receive+0x458>
        }

        /* Read data from DR */
        *hi2c->pBuffPtr = (uint8_t)hi2c->Instance->DR;
 8005266:	68fb      	ldr	r3, [r7, #12]
 8005268:	681b      	ldr	r3, [r3, #0]
 800526a:	691a      	ldr	r2, [r3, #16]
 800526c:	68fb      	ldr	r3, [r7, #12]
 800526e:	6a5b      	ldr	r3, [r3, #36]	; 0x24
 8005270:	b2d2      	uxtb	r2, r2
 8005272:	701a      	strb	r2, [r3, #0]

        /* Increment Buffer pointer */
        hi2c->pBuffPtr++;
 8005274:	68fb      	ldr	r3, [r7, #12]
 8005276:	6a5b      	ldr	r3, [r3, #36]	; 0x24
 8005278:	1c5a      	adds	r2, r3, #1
 800527a:	68fb      	ldr	r3, [r7, #12]
 800527c:	625a      	str	r2, [r3, #36]	; 0x24

        /* Update counter */
        hi2c->XferSize--;
 800527e:	68fb      	ldr	r3, [r7, #12]
 8005280:	8d1b      	ldrh	r3, [r3, #40]	; 0x28
 8005282:	3b01      	subs	r3, #1
 8005284:	b29a      	uxth	r2, r3
 8005286:	68fb      	ldr	r3, [r7, #12]
 8005288:	851a      	strh	r2, [r3, #40]	; 0x28
        hi2c->XferCount--;
 800528a:	68fb      	ldr	r3, [r7, #12]
 800528c:	8d5b      	ldrh	r3, [r3, #42]	; 0x2a
 800528e:	b29b      	uxth	r3, r3
 8005290:	3b01      	subs	r3, #1
 8005292:	b29a      	uxth	r2, r3
 8005294:	68fb      	ldr	r3, [r7, #12]
 8005296:	855a      	strh	r2, [r3, #42]	; 0x2a

        if (__HAL_I2C_GET_FLAG(hi2c, I2C_FLAG_BTF) == SET)
 8005298:	68fb      	ldr	r3, [r7, #12]
 800529a:	681b      	ldr	r3, [r3, #0]
 800529c:	695b      	ldr	r3, [r3, #20]
 800529e:	f003 0304 	and.w	r3, r3, #4
 80052a2:	2b04      	cmp	r3, #4
 80052a4:	d124      	bne.n	80052f0 <HAL_I2C_Master_Receive+0x430>
        {

          if (hi2c->XferSize == 3U)
 80052a6:	68fb      	ldr	r3, [r7, #12]
 80052a8:	8d1b      	ldrh	r3, [r3, #40]	; 0x28
 80052aa:	2b03      	cmp	r3, #3
 80052ac:	d107      	bne.n	80052be <HAL_I2C_Master_Receive+0x3fe>
          {
            /* Disable Acknowledge */
            CLEAR_BIT(hi2c->Instance->CR1, I2C_CR1_ACK);
 80052ae:	68fb      	ldr	r3, [r7, #12]
 80052b0:	681b      	ldr	r3, [r3, #0]
 80052b2:	681a      	ldr	r2, [r3, #0]
 80052b4:	68fb      	ldr	r3, [r7, #12]
 80052b6:	681b      	ldr	r3, [r3, #0]
 80052b8:	f422 6280 	bic.w	r2, r2, #1024	; 0x400
 80052bc:	601a      	str	r2, [r3, #0]
          }

          /* Read data from DR */
          *hi2c->pBuffPtr = (uint8_t)hi2c->Instance->DR;
 80052be:	68fb      	ldr	r3, [r7, #12]
 80052c0:	681b      	ldr	r3, [r3, #0]
 80052c2:	691a      	ldr	r2, [r3, #16]
 80052c4:	68fb      	ldr	r3, [r7, #12]
 80052c6:	6a5b      	ldr	r3, [r3, #36]	; 0x24
 80052c8:	b2d2      	uxtb	r2, r2
 80052ca:	701a      	strb	r2, [r3, #0]

          /* Increment Buffer pointer */
          hi2c->pBuffPtr++;
 80052cc:	68fb      	ldr	r3, [r7, #12]
 80052ce:	6a5b      	ldr	r3, [r3, #36]	; 0x24
 80052d0:	1c5a      	adds	r2, r3, #1
 80052d2:	68fb      	ldr	r3, [r7, #12]
 80052d4:	625a      	str	r2, [r3, #36]	; 0x24

          /* Update counter */
          hi2c->XferSize--;
 80052d6:	68fb      	ldr	r3, [r7, #12]
 80052d8:	8d1b      	ldrh	r3, [r3, #40]	; 0x28
 80052da:	3b01      	subs	r3, #1
 80052dc:	b29a      	uxth	r2, r3
 80052de:	68fb      	ldr	r3, [r7, #12]
 80052e0:	851a      	strh	r2, [r3, #40]	; 0x28
          hi2c->XferCount--;
 80052e2:	68fb      	ldr	r3, [r7, #12]
 80052e4:	8d5b      	ldrh	r3, [r3, #42]	; 0x2a
 80052e6:	b29b      	uxth	r3, r3
 80052e8:	3b01      	subs	r3, #1
 80052ea:	b29a      	uxth	r2, r3
 80052ec:	68fb      	ldr	r3, [r7, #12]
 80052ee:	855a      	strh	r2, [r3, #42]	; 0x2a
    while (hi2c->XferSize > 0U)
 80052f0:	68fb      	ldr	r3, [r7, #12]
 80052f2:	8d1b      	ldrh	r3, [r3, #40]	; 0x28
 80052f4:	2b00      	cmp	r3, #0
 80052f6:	f47f aeb6 	bne.w	8005066 <HAL_I2C_Master_Receive+0x1a6>
        }
      }
    }

    hi2c->State = HAL_I2C_STATE_READY;
 80052fa:	68fb      	ldr	r3, [r7, #12]
 80052fc:	2220      	movs	r2, #32
 80052fe:	f883 203d 	strb.w	r2, [r3, #61]	; 0x3d
    hi2c->Mode = HAL_I2C_MODE_NONE;
 8005302:	68fb      	ldr	r3, [r7, #12]
 8005304:	2200      	movs	r2, #0
 8005306:	f883 203e 	strb.w	r2, [r3, #62]	; 0x3e

    /* Process Unlocked */
    __HAL_UNLOCK(hi2c);
 800530a:	68fb      	ldr	r3, [r7, #12]
 800530c:	2200      	movs	r2, #0
 800530e:	f883 203c 	strb.w	r2, [r3, #60]	; 0x3c

    return HAL_OK;
 8005312:	2300      	movs	r3, #0
 8005314:	e000      	b.n	8005318 <HAL_I2C_Master_Receive+0x458>
  }
  else
  {
    return HAL_BUSY;
 8005316:	2302      	movs	r3, #2
  }
}
 8005318:	4618      	mov	r0, r3
 800531a:	3728      	adds	r7, #40	; 0x28
 800531c:	46bd      	mov	sp, r7
 800531e:	bd80      	pop	{r7, pc}
 8005320:	00010004 	.word	0x00010004

08005324 <I2C_MasterRequestWrite>:
  * @param  Timeout Timeout duration
  * @param  Tickstart Tick start value
  * @retval HAL status
  */
static HAL_StatusTypeDef I2C_MasterRequestWrite(I2C_HandleTypeDef *hi2c, uint16_t DevAddress, uint32_t Timeout, uint32_t Tickstart)
{
 8005324:	b580      	push	{r7, lr}
 8005326:	b088      	sub	sp, #32
 8005328:	af02      	add	r7, sp, #8
 800532a:	60f8      	str	r0, [r7, #12]
 800532c:	607a      	str	r2, [r7, #4]
 800532e:	603b      	str	r3, [r7, #0]
 8005330:	460b      	mov	r3, r1
 8005332:	817b      	strh	r3, [r7, #10]
  /* Declaration of temporary variable to prevent undefined behavior of volatile usage */
  uint32_t CurrentXferOptions = hi2c->XferOptions;
 8005334:	68fb      	ldr	r3, [r7, #12]
 8005336:	6adb      	ldr	r3, [r3, #44]	; 0x2c
 8005338:	617b      	str	r3, [r7, #20]

  /* Generate Start condition if first transfer */
  if ((CurrentXferOptions == I2C_FIRST_AND_LAST_FRAME) || (CurrentXferOptions == I2C_FIRST_FRAME) || (CurrentXferOptions == I2C_NO_OPTION_FRAME))
 800533a:	697b      	ldr	r3, [r7, #20]
 800533c:	2b08      	cmp	r3, #8
 800533e:	d006      	beq.n	800534e <I2C_MasterRequestWrite+0x2a>
 8005340:	697b      	ldr	r3, [r7, #20]
 8005342:	2b01      	cmp	r3, #1
 8005344:	d003      	beq.n	800534e <I2C_MasterRequestWrite+0x2a>
 8005346:	697b      	ldr	r3, [r7, #20]
 8005348:	f513 3f80 	cmn.w	r3, #65536	; 0x10000
 800534c:	d108      	bne.n	8005360 <I2C_MasterRequestWrite+0x3c>
  {
    /* Generate Start */
    SET_BIT(hi2c->Instance->CR1, I2C_CR1_START);
 800534e:	68fb      	ldr	r3, [r7, #12]
 8005350:	681b      	ldr	r3, [r3, #0]
 8005352:	681a      	ldr	r2, [r3, #0]
 8005354:	68fb      	ldr	r3, [r7, #12]
 8005356:	681b      	ldr	r3, [r3, #0]
 8005358:	f442 7280 	orr.w	r2, r2, #256	; 0x100
 800535c:	601a      	str	r2, [r3, #0]
 800535e:	e00b      	b.n	8005378 <I2C_MasterRequestWrite+0x54>
  }
  else if (hi2c->PreviousState == I2C_STATE_MASTER_BUSY_RX)
 8005360:	68fb      	ldr	r3, [r7, #12]
 8005362:	6b1b      	ldr	r3, [r3, #48]	; 0x30
 8005364:	2b12      	cmp	r3, #18
 8005366:	d107      	bne.n	8005378 <I2C_MasterRequestWrite+0x54>
  {
    /* Generate ReStart */
    SET_BIT(hi2c->Instance->CR1, I2C_CR1_START);
 8005368:	68fb      	ldr	r3, [r7, #12]
 800536a:	681b      	ldr	r3, [r3, #0]
 800536c:	681a      	ldr	r2, [r3, #0]
 800536e:	68fb      	ldr	r3, [r7, #12]
 8005370:	681b      	ldr	r3, [r3, #0]
 8005372:	f442 7280 	orr.w	r2, r2, #256	; 0x100
 8005376:	601a      	str	r2, [r3, #0]
  {
    /* Do nothing */
  }

  /* Wait until SB flag is set */
  if (I2C_WaitOnFlagUntilTimeout(hi2c, I2C_FLAG_SB, RESET, Timeout, Tickstart) != HAL_OK)
 8005378:	683b      	ldr	r3, [r7, #0]
 800537a:	9300      	str	r3, [sp, #0]
 800537c:	687b      	ldr	r3, [r7, #4]
 800537e:	2200      	movs	r2, #0
 8005380:	f04f 1101 	mov.w	r1, #65537	; 0x10001
 8005384:	68f8      	ldr	r0, [r7, #12]
 8005386:	f000 f91d 	bl	80055c4 <I2C_WaitOnFlagUntilTimeout>
 800538a:	4603      	mov	r3, r0
 800538c:	2b00      	cmp	r3, #0
 800538e:	d00d      	beq.n	80053ac <I2C_MasterRequestWrite+0x88>
  {
    if (READ_BIT(hi2c->Instance->CR1, I2C_CR1_START) == I2C_CR1_START)
 8005390:	68fb      	ldr	r3, [r7, #12]
 8005392:	681b      	ldr	r3, [r3, #0]
 8005394:	681b      	ldr	r3, [r3, #0]
 8005396:	f403 7380 	and.w	r3, r3, #256	; 0x100
 800539a:	f5b3 7f80 	cmp.w	r3, #256	; 0x100
 800539e:	d103      	bne.n	80053a8 <I2C_MasterRequestWrite+0x84>
    {
      hi2c->ErrorCode = HAL_I2C_WRONG_START;
 80053a0:	68fb      	ldr	r3, [r7, #12]
 80053a2:	f44f 7200 	mov.w	r2, #512	; 0x200
 80053a6:	641a      	str	r2, [r3, #64]	; 0x40
    }
    return HAL_TIMEOUT;
 80053a8:	2303      	movs	r3, #3
 80053aa:	e035      	b.n	8005418 <I2C_MasterRequestWrite+0xf4>
  }

  if (hi2c->Init.AddressingMode == I2C_ADDRESSINGMODE_7BIT)
 80053ac:	68fb      	ldr	r3, [r7, #12]
 80053ae:	691b      	ldr	r3, [r3, #16]
 80053b0:	f5b3 4f80 	cmp.w	r3, #16384	; 0x4000
 80053b4:	d108      	bne.n	80053c8 <I2C_MasterRequestWrite+0xa4>
  {
    /* Send slave address */
    hi2c->Instance->DR = I2C_7BIT_ADD_WRITE(DevAddress);
 80053b6:	897b      	ldrh	r3, [r7, #10]
 80053b8:	b2db      	uxtb	r3, r3
 80053ba:	461a      	mov	r2, r3
 80053bc:	68fb      	ldr	r3, [r7, #12]
 80053be:	681b      	ldr	r3, [r3, #0]
 80053c0:	f002 02fe 	and.w	r2, r2, #254	; 0xfe
 80053c4:	611a      	str	r2, [r3, #16]
 80053c6:	e01b      	b.n	8005400 <I2C_MasterRequestWrite+0xdc>
  }
  else
  {
    /* Send header of slave address */
    hi2c->Instance->DR = I2C_10BIT_HEADER_WRITE(DevAddress);
 80053c8:	897b      	ldrh	r3, [r7, #10]
 80053ca:	11db      	asrs	r3, r3, #7
 80053cc:	b2db      	uxtb	r3, r3
 80053ce:	f003 0306 	and.w	r3, r3, #6
 80053d2:	b2db      	uxtb	r3, r3
 80053d4:	f063 030f 	orn	r3, r3, #15
 80053d8:	b2da      	uxtb	r2, r3
 80053da:	68fb      	ldr	r3, [r7, #12]
 80053dc:	681b      	ldr	r3, [r3, #0]
 80053de:	611a      	str	r2, [r3, #16]

    /* Wait until ADD10 flag is set */
    if (I2C_WaitOnMasterAddressFlagUntilTimeout(hi2c, I2C_FLAG_ADD10, Timeout, Tickstart) != HAL_OK)
 80053e0:	683b      	ldr	r3, [r7, #0]
 80053e2:	687a      	ldr	r2, [r7, #4]
 80053e4:	490e      	ldr	r1, [pc, #56]	; (8005420 <I2C_MasterRequestWrite+0xfc>)
 80053e6:	68f8      	ldr	r0, [r7, #12]
 80053e8:	f000 f966 	bl	80056b8 <I2C_WaitOnMasterAddressFlagUntilTimeout>
 80053ec:	4603      	mov	r3, r0
 80053ee:	2b00      	cmp	r3, #0
 80053f0:	d001      	beq.n	80053f6 <I2C_MasterRequestWrite+0xd2>
    {
      return HAL_ERROR;
 80053f2:	2301      	movs	r3, #1
 80053f4:	e010      	b.n	8005418 <I2C_MasterRequestWrite+0xf4>
    }

    /* Send slave address */
    hi2c->Instance->DR = I2C_10BIT_ADDRESS(DevAddress);
 80053f6:	897b      	ldrh	r3, [r7, #10]
 80053f8:	b2da      	uxtb	r2, r3
 80053fa:	68fb      	ldr	r3, [r7, #12]
 80053fc:	681b      	ldr	r3, [r3, #0]
 80053fe:	611a      	str	r2, [r3, #16]
  }

  /* Wait until ADDR flag is set */
  if (I2C_WaitOnMasterAddressFlagUntilTimeout(hi2c, I2C_FLAG_ADDR, Timeout, Tickstart) != HAL_OK)
 8005400:	683b      	ldr	r3, [r7, #0]
 8005402:	687a      	ldr	r2, [r7, #4]
 8005404:	4907      	ldr	r1, [pc, #28]	; (8005424 <I2C_MasterRequestWrite+0x100>)
 8005406:	68f8      	ldr	r0, [r7, #12]
 8005408:	f000 f956 	bl	80056b8 <I2C_WaitOnMasterAddressFlagUntilTimeout>
 800540c:	4603      	mov	r3, r0
 800540e:	2b00      	cmp	r3, #0
 8005410:	d001      	beq.n	8005416 <I2C_MasterRequestWrite+0xf2>
  {
    return HAL_ERROR;
 8005412:	2301      	movs	r3, #1
 8005414:	e000      	b.n	8005418 <I2C_MasterRequestWrite+0xf4>
  }

  return HAL_OK;
 8005416:	2300      	movs	r3, #0
}
 8005418:	4618      	mov	r0, r3
 800541a:	3718      	adds	r7, #24
 800541c:	46bd      	mov	sp, r7
 800541e:	bd80      	pop	{r7, pc}
 8005420:	00010008 	.word	0x00010008
 8005424:	00010002 	.word	0x00010002

08005428 <I2C_MasterRequestRead>:
  * @param  Timeout Timeout duration
  * @param  Tickstart Tick start value
  * @retval HAL status
  */
static HAL_StatusTypeDef I2C_MasterRequestRead(I2C_HandleTypeDef *hi2c, uint16_t DevAddress, uint32_t Timeout, uint32_t Tickstart)
{
 8005428:	b580      	push	{r7, lr}
 800542a:	b088      	sub	sp, #32
 800542c:	af02      	add	r7, sp, #8
 800542e:	60f8      	str	r0, [r7, #12]
 8005430:	607a      	str	r2, [r7, #4]
 8005432:	603b      	str	r3, [r7, #0]
 8005434:	460b      	mov	r3, r1
 8005436:	817b      	strh	r3, [r7, #10]
  /* Declaration of temporary variable to prevent undefined behavior of volatile usage */
  uint32_t CurrentXferOptions = hi2c->XferOptions;
 8005438:	68fb      	ldr	r3, [r7, #12]
 800543a:	6adb      	ldr	r3, [r3, #44]	; 0x2c
 800543c:	617b      	str	r3, [r7, #20]

  /* Enable Acknowledge */
  SET_BIT(hi2c->Instance->CR1, I2C_CR1_ACK);
 800543e:	68fb      	ldr	r3, [r7, #12]
 8005440:	681b      	ldr	r3, [r3, #0]
 8005442:	681a      	ldr	r2, [r3, #0]
 8005444:	68fb      	ldr	r3, [r7, #12]
 8005446:	681b      	ldr	r3, [r3, #0]
 8005448:	f442 6280 	orr.w	r2, r2, #1024	; 0x400
 800544c:	601a      	str	r2, [r3, #0]

  /* Generate Start condition if first transfer */
  if ((CurrentXferOptions == I2C_FIRST_AND_LAST_FRAME) || (CurrentXferOptions == I2C_FIRST_FRAME)  || (CurrentXferOptions == I2C_NO_OPTION_FRAME))
 800544e:	697b      	ldr	r3, [r7, #20]
 8005450:	2b08      	cmp	r3, #8
 8005452:	d006      	beq.n	8005462 <I2C_MasterRequestRead+0x3a>
 8005454:	697b      	ldr	r3, [r7, #20]
 8005456:	2b01      	cmp	r3, #1
 8005458:	d003      	beq.n	8005462 <I2C_MasterRequestRead+0x3a>
 800545a:	697b      	ldr	r3, [r7, #20]
 800545c:	f513 3f80 	cmn.w	r3, #65536	; 0x10000
 8005460:	d108      	bne.n	8005474 <I2C_MasterRequestRead+0x4c>
  {
    /* Generate Start */
    SET_BIT(hi2c->Instance->CR1, I2C_CR1_START);
 8005462:	68fb      	ldr	r3, [r7, #12]
 8005464:	681b      	ldr	r3, [r3, #0]
 8005466:	681a      	ldr	r2, [r3, #0]
 8005468:	68fb      	ldr	r3, [r7, #12]
 800546a:	681b      	ldr	r3, [r3, #0]
 800546c:	f442 7280 	orr.w	r2, r2, #256	; 0x100
 8005470:	601a      	str	r2, [r3, #0]
 8005472:	e00b      	b.n	800548c <I2C_MasterRequestRead+0x64>
  }
  else if (hi2c->PreviousState == I2C_STATE_MASTER_BUSY_TX)
 8005474:	68fb      	ldr	r3, [r7, #12]
 8005476:	6b1b      	ldr	r3, [r3, #48]	; 0x30
 8005478:	2b11      	cmp	r3, #17
 800547a:	d107      	bne.n	800548c <I2C_MasterRequestRead+0x64>
  {
    /* Generate ReStart */
    SET_BIT(hi2c->Instance->CR1, I2C_CR1_START);
 800547c:	68fb      	ldr	r3, [r7, #12]
 800547e:	681b      	ldr	r3, [r3, #0]
 8005480:	681a      	ldr	r2, [r3, #0]
 8005482:	68fb      	ldr	r3, [r7, #12]
 8005484:	681b      	ldr	r3, [r3, #0]
 8005486:	f442 7280 	orr.w	r2, r2, #256	; 0x100
 800548a:	601a      	str	r2, [r3, #0]
  {
    /* Do nothing */
  }

  /* Wait until SB flag is set */
  if (I2C_WaitOnFlagUntilTimeout(hi2c, I2C_FLAG_SB, RESET, Timeout, Tickstart) != HAL_OK)
 800548c:	683b      	ldr	r3, [r7, #0]
 800548e:	9300      	str	r3, [sp, #0]
 8005490:	687b      	ldr	r3, [r7, #4]
 8005492:	2200      	movs	r2, #0
 8005494:	f04f 1101 	mov.w	r1, #65537	; 0x10001
 8005498:	68f8      	ldr	r0, [r7, #12]
 800549a:	f000 f893 	bl	80055c4 <I2C_WaitOnFlagUntilTimeout>
 800549e:	4603      	mov	r3, r0
 80054a0:	2b00      	cmp	r3, #0
 80054a2:	d00d      	beq.n	80054c0 <I2C_MasterRequestRead+0x98>
  {
    if (READ_BIT(hi2c->Instance->CR1, I2C_CR1_START) == I2C_CR1_START)
 80054a4:	68fb      	ldr	r3, [r7, #12]
 80054a6:	681b      	ldr	r3, [r3, #0]
 80054a8:	681b      	ldr	r3, [r3, #0]
 80054aa:	f403 7380 	and.w	r3, r3, #256	; 0x100
 80054ae:	f5b3 7f80 	cmp.w	r3, #256	; 0x100
 80054b2:	d103      	bne.n	80054bc <I2C_MasterRequestRead+0x94>
    {
      hi2c->ErrorCode = HAL_I2C_WRONG_START;
 80054b4:	68fb      	ldr	r3, [r7, #12]
 80054b6:	f44f 7200 	mov.w	r2, #512	; 0x200
 80054ba:	641a      	str	r2, [r3, #64]	; 0x40
    }
    return HAL_TIMEOUT;
 80054bc:	2303      	movs	r3, #3
 80054be:	e079      	b.n	80055b4 <I2C_MasterRequestRead+0x18c>
  }

  if (hi2c->Init.AddressingMode == I2C_ADDRESSINGMODE_7BIT)
 80054c0:	68fb      	ldr	r3, [r7, #12]
 80054c2:	691b      	ldr	r3, [r3, #16]
 80054c4:	f5b3 4f80 	cmp.w	r3, #16384	; 0x4000
 80054c8:	d108      	bne.n	80054dc <I2C_MasterRequestRead+0xb4>
  {
    /* Send slave address */
    hi2c->Instance->DR = I2C_7BIT_ADD_READ(DevAddress);
 80054ca:	897b      	ldrh	r3, [r7, #10]
 80054cc:	b2db      	uxtb	r3, r3
 80054ce:	f043 0301 	orr.w	r3, r3, #1
 80054d2:	b2da      	uxtb	r2, r3
 80054d4:	68fb      	ldr	r3, [r7, #12]
 80054d6:	681b      	ldr	r3, [r3, #0]
 80054d8:	611a      	str	r2, [r3, #16]
 80054da:	e05f      	b.n	800559c <I2C_MasterRequestRead+0x174>
  }
  else
  {
    /* Send header of slave address */
    hi2c->Instance->DR = I2C_10BIT_HEADER_WRITE(DevAddress);
 80054dc:	897b      	ldrh	r3, [r7, #10]
 80054de:	11db      	asrs	r3, r3, #7
 80054e0:	b2db      	uxtb	r3, r3
 80054e2:	f003 0306 	and.w	r3, r3, #6
 80054e6:	b2db      	uxtb	r3, r3
 80054e8:	f063 030f 	orn	r3, r3, #15
 80054ec:	b2da      	uxtb	r2, r3
 80054ee:	68fb      	ldr	r3, [r7, #12]
 80054f0:	681b      	ldr	r3, [r3, #0]
 80054f2:	611a      	str	r2, [r3, #16]

    /* Wait until ADD10 flag is set */
    if (I2C_WaitOnMasterAddressFlagUntilTimeout(hi2c, I2C_FLAG_ADD10, Timeout, Tickstart) != HAL_OK)
 80054f4:	683b      	ldr	r3, [r7, #0]
 80054f6:	687a      	ldr	r2, [r7, #4]
 80054f8:	4930      	ldr	r1, [pc, #192]	; (80055bc <I2C_MasterRequestRead+0x194>)
 80054fa:	68f8      	ldr	r0, [r7, #12]
 80054fc:	f000 f8dc 	bl	80056b8 <I2C_WaitOnMasterAddressFlagUntilTimeout>
 8005500:	4603      	mov	r3, r0
 8005502:	2b00      	cmp	r3, #0
 8005504:	d001      	beq.n	800550a <I2C_MasterRequestRead+0xe2>
    {
      return HAL_ERROR;
 8005506:	2301      	movs	r3, #1
 8005508:	e054      	b.n	80055b4 <I2C_MasterRequestRead+0x18c>
    }

    /* Send slave address */
    hi2c->Instance->DR = I2C_10BIT_ADDRESS(DevAddress);
 800550a:	897b      	ldrh	r3, [r7, #10]
 800550c:	b2da      	uxtb	r2, r3
 800550e:	68fb      	ldr	r3, [r7, #12]
 8005510:	681b      	ldr	r3, [r3, #0]
 8005512:	611a      	str	r2, [r3, #16]

    /* Wait until ADDR flag is set */
    if (I2C_WaitOnMasterAddressFlagUntilTimeout(hi2c, I2C_FLAG_ADDR, Timeout, Tickstart) != HAL_OK)
 8005514:	683b      	ldr	r3, [r7, #0]
 8005516:	687a      	ldr	r2, [r7, #4]
 8005518:	4929      	ldr	r1, [pc, #164]	; (80055c0 <I2C_MasterRequestRead+0x198>)
 800551a:	68f8      	ldr	r0, [r7, #12]
 800551c:	f000 f8cc 	bl	80056b8 <I2C_WaitOnMasterAddressFlagUntilTimeout>
 8005520:	4603      	mov	r3, r0
 8005522:	2b00      	cmp	r3, #0
 8005524:	d001      	beq.n	800552a <I2C_MasterRequestRead+0x102>
    {
      return HAL_ERROR;
 8005526:	2301      	movs	r3, #1
 8005528:	e044      	b.n	80055b4 <I2C_MasterRequestRead+0x18c>
    }

    /* Clear ADDR flag */
    __HAL_I2C_CLEAR_ADDRFLAG(hi2c);
 800552a:	2300      	movs	r3, #0
 800552c:	613b      	str	r3, [r7, #16]
 800552e:	68fb      	ldr	r3, [r7, #12]
 8005530:	681b      	ldr	r3, [r3, #0]
 8005532:	695b      	ldr	r3, [r3, #20]
 8005534:	613b      	str	r3, [r7, #16]
 8005536:	68fb      	ldr	r3, [r7, #12]
 8005538:	681b      	ldr	r3, [r3, #0]
 800553a:	699b      	ldr	r3, [r3, #24]
 800553c:	613b      	str	r3, [r7, #16]
 800553e:	693b      	ldr	r3, [r7, #16]

    /* Generate Restart */
    SET_BIT(hi2c->Instance->CR1, I2C_CR1_START);
 8005540:	68fb      	ldr	r3, [r7, #12]
 8005542:	681b      	ldr	r3, [r3, #0]
 8005544:	681a      	ldr	r2, [r3, #0]
 8005546:	68fb      	ldr	r3, [r7, #12]
 8005548:	681b      	ldr	r3, [r3, #0]
 800554a:	f442 7280 	orr.w	r2, r2, #256	; 0x100
 800554e:	601a      	str	r2, [r3, #0]

    /* Wait until SB flag is set */
    if (I2C_WaitOnFlagUntilTimeout(hi2c, I2C_FLAG_SB, RESET, Timeout, Tickstart) != HAL_OK)
 8005550:	683b      	ldr	r3, [r7, #0]
 8005552:	9300      	str	r3, [sp, #0]
 8005554:	687b      	ldr	r3, [r7, #4]
 8005556:	2200      	movs	r2, #0
 8005558:	f04f 1101 	mov.w	r1, #65537	; 0x10001
 800555c:	68f8      	ldr	r0, [r7, #12]
 800555e:	f000 f831 	bl	80055c4 <I2C_WaitOnFlagUntilTimeout>
 8005562:	4603      	mov	r3, r0
 8005564:	2b00      	cmp	r3, #0
 8005566:	d00d      	beq.n	8005584 <I2C_MasterRequestRead+0x15c>
    {
      if (READ_BIT(hi2c->Instance->CR1, I2C_CR1_START) == I2C_CR1_START)
 8005568:	68fb      	ldr	r3, [r7, #12]
 800556a:	681b      	ldr	r3, [r3, #0]
 800556c:	681b      	ldr	r3, [r3, #0]
 800556e:	f403 7380 	and.w	r3, r3, #256	; 0x100
 8005572:	f5b3 7f80 	cmp.w	r3, #256	; 0x100
 8005576:	d103      	bne.n	8005580 <I2C_MasterRequestRead+0x158>
      {
        hi2c->ErrorCode = HAL_I2C_WRONG_START;
 8005578:	68fb      	ldr	r3, [r7, #12]
 800557a:	f44f 7200 	mov.w	r2, #512	; 0x200
 800557e:	641a      	str	r2, [r3, #64]	; 0x40
      }
      return HAL_TIMEOUT;
 8005580:	2303      	movs	r3, #3
 8005582:	e017      	b.n	80055b4 <I2C_MasterRequestRead+0x18c>
    }

    /* Send header of slave address */
    hi2c->Instance->DR = I2C_10BIT_HEADER_READ(DevAddress);
 8005584:	897b      	ldrh	r3, [r7, #10]
 8005586:	11db      	asrs	r3, r3, #7
 8005588:	b2db      	uxtb	r3, r3
 800558a:	f003 0306 	and.w	r3, r3, #6
 800558e:	b2db      	uxtb	r3, r3
 8005590:	f063 030e 	orn	r3, r3, #14
 8005594:	b2da      	uxtb	r2, r3
 8005596:	68fb      	ldr	r3, [r7, #12]
 8005598:	681b      	ldr	r3, [r3, #0]
 800559a:	611a      	str	r2, [r3, #16]
  }

  /* Wait until ADDR flag is set */
  if (I2C_WaitOnMasterAddressFlagUntilTimeout(hi2c, I2C_FLAG_ADDR, Timeout, Tickstart) != HAL_OK)
 800559c:	683b      	ldr	r3, [r7, #0]
 800559e:	687a      	ldr	r2, [r7, #4]
 80055a0:	4907      	ldr	r1, [pc, #28]	; (80055c0 <I2C_MasterRequestRead+0x198>)
 80055a2:	68f8      	ldr	r0, [r7, #12]
 80055a4:	f000 f888 	bl	80056b8 <I2C_WaitOnMasterAddressFlagUntilTimeout>
 80055a8:	4603      	mov	r3, r0
 80055aa:	2b00      	cmp	r3, #0
 80055ac:	d001      	beq.n	80055b2 <I2C_MasterRequestRead+0x18a>
  {
    return HAL_ERROR;
 80055ae:	2301      	movs	r3, #1
 80055b0:	e000      	b.n	80055b4 <I2C_MasterRequestRead+0x18c>
  }

  return HAL_OK;
 80055b2:	2300      	movs	r3, #0
}
 80055b4:	4618      	mov	r0, r3
 80055b6:	3718      	adds	r7, #24
 80055b8:	46bd      	mov	sp, r7
 80055ba:	bd80      	pop	{r7, pc}
 80055bc:	00010008 	.word	0x00010008
 80055c0:	00010002 	.word	0x00010002

080055c4 <I2C_WaitOnFlagUntilTimeout>:
  * @param  Timeout Timeout duration
  * @param  Tickstart Tick start value
  * @retval HAL status
  */
static HAL_StatusTypeDef I2C_WaitOnFlagUntilTimeout(I2C_HandleTypeDef *hi2c, uint32_t Flag, FlagStatus Status, uint32_t Timeout, uint32_t Tickstart)
{
 80055c4:	b580      	push	{r7, lr}
 80055c6:	b084      	sub	sp, #16
 80055c8:	af00      	add	r7, sp, #0
 80055ca:	60f8      	str	r0, [r7, #12]
 80055cc:	60b9      	str	r1, [r7, #8]
 80055ce:	603b      	str	r3, [r7, #0]
 80055d0:	4613      	mov	r3, r2
 80055d2:	71fb      	strb	r3, [r7, #7]
  /* Wait until flag is set */
  while (__HAL_I2C_GET_FLAG(hi2c, Flag) == Status)
 80055d4:	e048      	b.n	8005668 <I2C_WaitOnFlagUntilTimeout+0xa4>
  {
    /* Check for the Timeout */
    if (Timeout != HAL_MAX_DELAY)
 80055d6:	683b      	ldr	r3, [r7, #0]
 80055d8:	f1b3 3fff 	cmp.w	r3, #4294967295	; 0xffffffff
 80055dc:	d044      	beq.n	8005668 <I2C_WaitOnFlagUntilTimeout+0xa4>
    {
      if (((HAL_GetTick() - Tickstart) > Timeout) || (Timeout == 0U))
 80055de:	f7fd fc89 	bl	8002ef4 <HAL_GetTick>
 80055e2:	4602      	mov	r2, r0
 80055e4:	69bb      	ldr	r3, [r7, #24]
 80055e6:	1ad3      	subs	r3, r2, r3
 80055e8:	683a      	ldr	r2, [r7, #0]
 80055ea:	429a      	cmp	r2, r3
 80055ec:	d302      	bcc.n	80055f4 <I2C_WaitOnFlagUntilTimeout+0x30>
 80055ee:	683b      	ldr	r3, [r7, #0]
 80055f0:	2b00      	cmp	r3, #0
 80055f2:	d139      	bne.n	8005668 <I2C_WaitOnFlagUntilTimeout+0xa4>
      {
        if ((__HAL_I2C_GET_FLAG(hi2c, Flag) == Status))
 80055f4:	68bb      	ldr	r3, [r7, #8]
 80055f6:	0c1b      	lsrs	r3, r3, #16
 80055f8:	b2db      	uxtb	r3, r3
 80055fa:	2b01      	cmp	r3, #1
 80055fc:	d10d      	bne.n	800561a <I2C_WaitOnFlagUntilTimeout+0x56>
 80055fe:	68fb      	ldr	r3, [r7, #12]
 8005600:	681b      	ldr	r3, [r3, #0]
 8005602:	695b      	ldr	r3, [r3, #20]
 8005604:	43da      	mvns	r2, r3
 8005606:	68bb      	ldr	r3, [r7, #8]
 8005608:	4013      	ands	r3, r2
 800560a:	b29b      	uxth	r3, r3
 800560c:	2b00      	cmp	r3, #0
 800560e:	bf0c      	ite	eq
 8005610:	2301      	moveq	r3, #1
 8005612:	2300      	movne	r3, #0
 8005614:	b2db      	uxtb	r3, r3
 8005616:	461a      	mov	r2, r3
 8005618:	e00c      	b.n	8005634 <I2C_WaitOnFlagUntilTimeout+0x70>
 800561a:	68fb      	ldr	r3, [r7, #12]
 800561c:	681b      	ldr	r3, [r3, #0]
 800561e:	699b      	ldr	r3, [r3, #24]
 8005620:	43da      	mvns	r2, r3
 8005622:	68bb      	ldr	r3, [r7, #8]
 8005624:	4013      	ands	r3, r2
 8005626:	b29b      	uxth	r3, r3
 8005628:	2b00      	cmp	r3, #0
 800562a:	bf0c      	ite	eq
 800562c:	2301      	moveq	r3, #1
 800562e:	2300      	movne	r3, #0
 8005630:	b2db      	uxtb	r3, r3
 8005632:	461a      	mov	r2, r3
 8005634:	79fb      	ldrb	r3, [r7, #7]
 8005636:	429a      	cmp	r2, r3
 8005638:	d116      	bne.n	8005668 <I2C_WaitOnFlagUntilTimeout+0xa4>
        {
          hi2c->PreviousState     = I2C_STATE_NONE;
 800563a:	68fb      	ldr	r3, [r7, #12]
 800563c:	2200      	movs	r2, #0
 800563e:	631a      	str	r2, [r3, #48]	; 0x30
          hi2c->State             = HAL_I2C_STATE_READY;
 8005640:	68fb      	ldr	r3, [r7, #12]
 8005642:	2220      	movs	r2, #32
 8005644:	f883 203d 	strb.w	r2, [r3, #61]	; 0x3d
          hi2c->Mode              = HAL_I2C_MODE_NONE;
 8005648:	68fb      	ldr	r3, [r7, #12]
 800564a:	2200      	movs	r2, #0
 800564c:	f883 203e 	strb.w	r2, [r3, #62]	; 0x3e
          hi2c->ErrorCode         |= HAL_I2C_ERROR_TIMEOUT;
 8005650:	68fb      	ldr	r3, [r7, #12]
 8005652:	6c1b      	ldr	r3, [r3, #64]	; 0x40
 8005654:	f043 0220 	orr.w	r2, r3, #32
 8005658:	68fb      	ldr	r3, [r7, #12]
 800565a:	641a      	str	r2, [r3, #64]	; 0x40

          /* Process Unlocked */
          __HAL_UNLOCK(hi2c);
 800565c:	68fb      	ldr	r3, [r7, #12]
 800565e:	2200      	movs	r2, #0
 8005660:	f883 203c 	strb.w	r2, [r3, #60]	; 0x3c

          return HAL_ERROR;
 8005664:	2301      	movs	r3, #1
 8005666:	e023      	b.n	80056b0 <I2C_WaitOnFlagUntilTimeout+0xec>
  while (__HAL_I2C_GET_FLAG(hi2c, Flag) == Status)
 8005668:	68bb      	ldr	r3, [r7, #8]
 800566a:	0c1b      	lsrs	r3, r3, #16
 800566c:	b2db      	uxtb	r3, r3
 800566e:	2b01      	cmp	r3, #1
 8005670:	d10d      	bne.n	800568e <I2C_WaitOnFlagUntilTimeout+0xca>
 8005672:	68fb      	ldr	r3, [r7, #12]
 8005674:	681b      	ldr	r3, [r3, #0]
 8005676:	695b      	ldr	r3, [r3, #20]
 8005678:	43da      	mvns	r2, r3
 800567a:	68bb      	ldr	r3, [r7, #8]
 800567c:	4013      	ands	r3, r2
 800567e:	b29b      	uxth	r3, r3
 8005680:	2b00      	cmp	r3, #0
 8005682:	bf0c      	ite	eq
 8005684:	2301      	moveq	r3, #1
 8005686:	2300      	movne	r3, #0
 8005688:	b2db      	uxtb	r3, r3
 800568a:	461a      	mov	r2, r3
 800568c:	e00c      	b.n	80056a8 <I2C_WaitOnFlagUntilTimeout+0xe4>
 800568e:	68fb      	ldr	r3, [r7, #12]
 8005690:	681b      	ldr	r3, [r3, #0]
 8005692:	699b      	ldr	r3, [r3, #24]
 8005694:	43da      	mvns	r2, r3
 8005696:	68bb      	ldr	r3, [r7, #8]
 8005698:	4013      	ands	r3, r2
 800569a:	b29b      	uxth	r3, r3
 800569c:	2b00      	cmp	r3, #0
 800569e:	bf0c      	ite	eq
 80056a0:	2301      	moveq	r3, #1
 80056a2:	2300      	movne	r3, #0
 80056a4:	b2db      	uxtb	r3, r3
 80056a6:	461a      	mov	r2, r3
 80056a8:	79fb      	ldrb	r3, [r7, #7]
 80056aa:	429a      	cmp	r2, r3
 80056ac:	d093      	beq.n	80055d6 <I2C_WaitOnFlagUntilTimeout+0x12>
        }
      }
    }
  }
  return HAL_OK;
 80056ae:	2300      	movs	r3, #0
}
 80056b0:	4618      	mov	r0, r3
 80056b2:	3710      	adds	r7, #16
 80056b4:	46bd      	mov	sp, r7
 80056b6:	bd80      	pop	{r7, pc}

080056b8 <I2C_WaitOnMasterAddressFlagUntilTimeout>:
  * @param  Timeout Timeout duration
  * @param  Tickstart Tick start value
  * @retval HAL status
  */
static HAL_StatusTypeDef I2C_WaitOnMasterAddressFlagUntilTimeout(I2C_HandleTypeDef *hi2c, uint32_t Flag, uint32_t Timeout, uint32_t Tickstart)
{
 80056b8:	b580      	push	{r7, lr}
 80056ba:	b084      	sub	sp, #16
 80056bc:	af00      	add	r7, sp, #0
 80056be:	60f8      	str	r0, [r7, #12]
 80056c0:	60b9      	str	r1, [r7, #8]
 80056c2:	607a      	str	r2, [r7, #4]
 80056c4:	603b      	str	r3, [r7, #0]
  while (__HAL_I2C_GET_FLAG(hi2c, Flag) == RESET)
 80056c6:	e071      	b.n	80057ac <I2C_WaitOnMasterAddressFlagUntilTimeout+0xf4>
  {
    if (__HAL_I2C_GET_FLAG(hi2c, I2C_FLAG_AF) == SET)
 80056c8:	68fb      	ldr	r3, [r7, #12]
 80056ca:	681b      	ldr	r3, [r3, #0]
 80056cc:	695b      	ldr	r3, [r3, #20]
 80056ce:	f403 6380 	and.w	r3, r3, #1024	; 0x400
 80056d2:	f5b3 6f80 	cmp.w	r3, #1024	; 0x400
 80056d6:	d123      	bne.n	8005720 <I2C_WaitOnMasterAddressFlagUntilTimeout+0x68>
    {
      /* Generate Stop */
      SET_BIT(hi2c->Instance->CR1, I2C_CR1_STOP);
 80056d8:	68fb      	ldr	r3, [r7, #12]
 80056da:	681b      	ldr	r3, [r3, #0]
 80056dc:	681a      	ldr	r2, [r3, #0]
 80056de:	68fb      	ldr	r3, [r7, #12]
 80056e0:	681b      	ldr	r3, [r3, #0]
 80056e2:	f442 7200 	orr.w	r2, r2, #512	; 0x200
 80056e6:	601a      	str	r2, [r3, #0]

      /* Clear AF Flag */
      __HAL_I2C_CLEAR_FLAG(hi2c, I2C_FLAG_AF);
 80056e8:	68fb      	ldr	r3, [r7, #12]
 80056ea:	681b      	ldr	r3, [r3, #0]
 80056ec:	f46f 6280 	mvn.w	r2, #1024	; 0x400
 80056f0:	615a      	str	r2, [r3, #20]

      hi2c->PreviousState       = I2C_STATE_NONE;
 80056f2:	68fb      	ldr	r3, [r7, #12]
 80056f4:	2200      	movs	r2, #0
 80056f6:	631a      	str	r2, [r3, #48]	; 0x30
      hi2c->State               = HAL_I2C_STATE_READY;
 80056f8:	68fb      	ldr	r3, [r7, #12]
 80056fa:	2220      	movs	r2, #32
 80056fc:	f883 203d 	strb.w	r2, [r3, #61]	; 0x3d
      hi2c->Mode                = HAL_I2C_MODE_NONE;
 8005700:	68fb      	ldr	r3, [r7, #12]
 8005702:	2200      	movs	r2, #0
 8005704:	f883 203e 	strb.w	r2, [r3, #62]	; 0x3e
      hi2c->ErrorCode           |= HAL_I2C_ERROR_AF;
 8005708:	68fb      	ldr	r3, [r7, #12]
 800570a:	6c1b      	ldr	r3, [r3, #64]	; 0x40
 800570c:	f043 0204 	orr.w	r2, r3, #4
 8005710:	68fb      	ldr	r3, [r7, #12]
 8005712:	641a      	str	r2, [r3, #64]	; 0x40

      /* Process Unlocked */
      __HAL_UNLOCK(hi2c);
 8005714:	68fb      	ldr	r3, [r7, #12]
 8005716:	2200      	movs	r2, #0
 8005718:	f883 203c 	strb.w	r2, [r3, #60]	; 0x3c

      return HAL_ERROR;
 800571c:	2301      	movs	r3, #1
 800571e:	e067      	b.n	80057f0 <I2C_WaitOnMasterAddressFlagUntilTimeout+0x138>
    }

    /* Check for the Timeout */
    if (Timeout != HAL_MAX_DELAY)
 8005720:	687b      	ldr	r3, [r7, #4]
 8005722:	f1b3 3fff 	cmp.w	r3, #4294967295	; 0xffffffff
 8005726:	d041      	beq.n	80057ac <I2C_WaitOnMasterAddressFlagUntilTimeout+0xf4>
    {
      if (((HAL_GetTick() - Tickstart) > Timeout) || (Timeout == 0U))
 8005728:	f7fd fbe4 	bl	8002ef4 <HAL_GetTick>
 800572c:	4602      	mov	r2, r0
 800572e:	683b      	ldr	r3, [r7, #0]
 8005730:	1ad3      	subs	r3, r2, r3
 8005732:	687a      	ldr	r2, [r7, #4]
 8005734:	429a      	cmp	r2, r3
 8005736:	d302      	bcc.n	800573e <I2C_WaitOnMasterAddressFlagUntilTimeout+0x86>
 8005738:	687b      	ldr	r3, [r7, #4]
 800573a:	2b00      	cmp	r3, #0
 800573c:	d136      	bne.n	80057ac <I2C_WaitOnMasterAddressFlagUntilTimeout+0xf4>
      {
        if ((__HAL_I2C_GET_FLAG(hi2c, Flag) == RESET))
 800573e:	68bb      	ldr	r3, [r7, #8]
 8005740:	0c1b      	lsrs	r3, r3, #16
 8005742:	b2db      	uxtb	r3, r3
 8005744:	2b01      	cmp	r3, #1
 8005746:	d10c      	bne.n	8005762 <I2C_WaitOnMasterAddressFlagUntilTimeout+0xaa>
 8005748:	68fb      	ldr	r3, [r7, #12]
 800574a:	681b      	ldr	r3, [r3, #0]
 800574c:	695b      	ldr	r3, [r3, #20]
 800574e:	43da      	mvns	r2, r3
 8005750:	68bb      	ldr	r3, [r7, #8]
 8005752:	4013      	ands	r3, r2
 8005754:	b29b      	uxth	r3, r3
 8005756:	2b00      	cmp	r3, #0
 8005758:	bf14      	ite	ne
 800575a:	2301      	movne	r3, #1
 800575c:	2300      	moveq	r3, #0
 800575e:	b2db      	uxtb	r3, r3
 8005760:	e00b      	b.n	800577a <I2C_WaitOnMasterAddressFlagUntilTimeout+0xc2>
 8005762:	68fb      	ldr	r3, [r7, #12]
 8005764:	681b      	ldr	r3, [r3, #0]
 8005766:	699b      	ldr	r3, [r3, #24]
 8005768:	43da      	mvns	r2, r3
 800576a:	68bb      	ldr	r3, [r7, #8]
 800576c:	4013      	ands	r3, r2
 800576e:	b29b      	uxth	r3, r3
 8005770:	2b00      	cmp	r3, #0
 8005772:	bf14      	ite	ne
 8005774:	2301      	movne	r3, #1
 8005776:	2300      	moveq	r3, #0
 8005778:	b2db      	uxtb	r3, r3
 800577a:	2b00      	cmp	r3, #0
 800577c:	d016      	beq.n	80057ac <I2C_WaitOnMasterAddressFlagUntilTimeout+0xf4>
        {
          hi2c->PreviousState       = I2C_STATE_NONE;
 800577e:	68fb      	ldr	r3, [r7, #12]
 8005780:	2200      	movs	r2, #0
 8005782:	631a      	str	r2, [r3, #48]	; 0x30
          hi2c->State               = HAL_I2C_STATE_READY;
 8005784:	68fb      	ldr	r3, [r7, #12]
 8005786:	2220      	movs	r2, #32
 8005788:	f883 203d 	strb.w	r2, [r3, #61]	; 0x3d
          hi2c->Mode                = HAL_I2C_MODE_NONE;
 800578c:	68fb      	ldr	r3, [r7, #12]
 800578e:	2200      	movs	r2, #0
 8005790:	f883 203e 	strb.w	r2, [r3, #62]	; 0x3e
          hi2c->ErrorCode           |= HAL_I2C_ERROR_TIMEOUT;
 8005794:	68fb      	ldr	r3, [r7, #12]
 8005796:	6c1b      	ldr	r3, [r3, #64]	; 0x40
 8005798:	f043 0220 	orr.w	r2, r3, #32
 800579c:	68fb      	ldr	r3, [r7, #12]
 800579e:	641a      	str	r2, [r3, #64]	; 0x40

          /* Process Unlocked */
          __HAL_UNLOCK(hi2c);
 80057a0:	68fb      	ldr	r3, [r7, #12]
 80057a2:	2200      	movs	r2, #0
 80057a4:	f883 203c 	strb.w	r2, [r3, #60]	; 0x3c

          return HAL_ERROR;
 80057a8:	2301      	movs	r3, #1
 80057aa:	e021      	b.n	80057f0 <I2C_WaitOnMasterAddressFlagUntilTimeout+0x138>
  while (__HAL_I2C_GET_FLAG(hi2c, Flag) == RESET)
 80057ac:	68bb      	ldr	r3, [r7, #8]
 80057ae:	0c1b      	lsrs	r3, r3, #16
 80057b0:	b2db      	uxtb	r3, r3
 80057b2:	2b01      	cmp	r3, #1
 80057b4:	d10c      	bne.n	80057d0 <I2C_WaitOnMasterAddressFlagUntilTimeout+0x118>
 80057b6:	68fb      	ldr	r3, [r7, #12]
 80057b8:	681b      	ldr	r3, [r3, #0]
 80057ba:	695b      	ldr	r3, [r3, #20]
 80057bc:	43da      	mvns	r2, r3
 80057be:	68bb      	ldr	r3, [r7, #8]
 80057c0:	4013      	ands	r3, r2
 80057c2:	b29b      	uxth	r3, r3
 80057c4:	2b00      	cmp	r3, #0
 80057c6:	bf14      	ite	ne
 80057c8:	2301      	movne	r3, #1
 80057ca:	2300      	moveq	r3, #0
 80057cc:	b2db      	uxtb	r3, r3
 80057ce:	e00b      	b.n	80057e8 <I2C_WaitOnMasterAddressFlagUntilTimeout+0x130>
 80057d0:	68fb      	ldr	r3, [r7, #12]
 80057d2:	681b      	ldr	r3, [r3, #0]
 80057d4:	699b      	ldr	r3, [r3, #24]
 80057d6:	43da      	mvns	r2, r3
 80057d8:	68bb      	ldr	r3, [r7, #8]
 80057da:	4013      	ands	r3, r2
 80057dc:	b29b      	uxth	r3, r3
 80057de:	2b00      	cmp	r3, #0
 80057e0:	bf14      	ite	ne
 80057e2:	2301      	movne	r3, #1
 80057e4:	2300      	moveq	r3, #0
 80057e6:	b2db      	uxtb	r3, r3
 80057e8:	2b00      	cmp	r3, #0
 80057ea:	f47f af6d 	bne.w	80056c8 <I2C_WaitOnMasterAddressFlagUntilTimeout+0x10>
        }
      }
    }
  }
  return HAL_OK;
 80057ee:	2300      	movs	r3, #0
}
 80057f0:	4618      	mov	r0, r3
 80057f2:	3710      	adds	r7, #16
 80057f4:	46bd      	mov	sp, r7
 80057f6:	bd80      	pop	{r7, pc}

080057f8 <I2C_WaitOnTXEFlagUntilTimeout>:
  * @param  Timeout Timeout duration
  * @param  Tickstart Tick start value
  * @retval HAL status
  */
static HAL_StatusTypeDef I2C_WaitOnTXEFlagUntilTimeout(I2C_HandleTypeDef *hi2c, uint32_t Timeout, uint32_t Tickstart)
{
 80057f8:	b580      	push	{r7, lr}
 80057fa:	b084      	sub	sp, #16
 80057fc:	af00      	add	r7, sp, #0
 80057fe:	60f8      	str	r0, [r7, #12]
 8005800:	60b9      	str	r1, [r7, #8]
 8005802:	607a      	str	r2, [r7, #4]
  while (__HAL_I2C_GET_FLAG(hi2c, I2C_FLAG_TXE) == RESET)
 8005804:	e034      	b.n	8005870 <I2C_WaitOnTXEFlagUntilTimeout+0x78>
  {
    /* Check if a NACK is detected */
    if (I2C_IsAcknowledgeFailed(hi2c) != HAL_OK)
 8005806:	68f8      	ldr	r0, [r7, #12]
 8005808:	f000 f8e3 	bl	80059d2 <I2C_IsAcknowledgeFailed>
 800580c:	4603      	mov	r3, r0
 800580e:	2b00      	cmp	r3, #0
 8005810:	d001      	beq.n	8005816 <I2C_WaitOnTXEFlagUntilTimeout+0x1e>
    {
      return HAL_ERROR;
 8005812:	2301      	movs	r3, #1
 8005814:	e034      	b.n	8005880 <I2C_WaitOnTXEFlagUntilTimeout+0x88>
    }

    /* Check for the Timeout */
    if (Timeout != HAL_MAX_DELAY)
 8005816:	68bb      	ldr	r3, [r7, #8]
 8005818:	f1b3 3fff 	cmp.w	r3, #4294967295	; 0xffffffff
 800581c:	d028      	beq.n	8005870 <I2C_WaitOnTXEFlagUntilTimeout+0x78>
    {
      if (((HAL_GetTick() - Tickstart) > Timeout) || (Timeout == 0U))
 800581e:	f7fd fb69 	bl	8002ef4 <HAL_GetTick>
 8005822:	4602      	mov	r2, r0
 8005824:	687b      	ldr	r3, [r7, #4]
 8005826:	1ad3      	subs	r3, r2, r3
 8005828:	68ba      	ldr	r2, [r7, #8]
 800582a:	429a      	cmp	r2, r3
 800582c:	d302      	bcc.n	8005834 <I2C_WaitOnTXEFlagUntilTimeout+0x3c>
 800582e:	68bb      	ldr	r3, [r7, #8]
 8005830:	2b00      	cmp	r3, #0
 8005832:	d11d      	bne.n	8005870 <I2C_WaitOnTXEFlagUntilTimeout+0x78>
      {
        if ((__HAL_I2C_GET_FLAG(hi2c, I2C_FLAG_TXE) == RESET))
 8005834:	68fb      	ldr	r3, [r7, #12]
 8005836:	681b      	ldr	r3, [r3, #0]
 8005838:	695b      	ldr	r3, [r3, #20]
 800583a:	f003 0380 	and.w	r3, r3, #128	; 0x80
 800583e:	2b80      	cmp	r3, #128	; 0x80
 8005840:	d016      	beq.n	8005870 <I2C_WaitOnTXEFlagUntilTimeout+0x78>
        {
          hi2c->PreviousState       = I2C_STATE_NONE;
 8005842:	68fb      	ldr	r3, [r7, #12]
 8005844:	2200      	movs	r2, #0
 8005846:	631a      	str	r2, [r3, #48]	; 0x30
          hi2c->State               = HAL_I2C_STATE_READY;
 8005848:	68fb      	ldr	r3, [r7, #12]
 800584a:	2220      	movs	r2, #32
 800584c:	f883 203d 	strb.w	r2, [r3, #61]	; 0x3d
          hi2c->Mode                = HAL_I2C_MODE_NONE;
 8005850:	68fb      	ldr	r3, [r7, #12]
 8005852:	2200      	movs	r2, #0
 8005854:	f883 203e 	strb.w	r2, [r3, #62]	; 0x3e
          hi2c->ErrorCode           |= HAL_I2C_ERROR_TIMEOUT;
 8005858:	68fb      	ldr	r3, [r7, #12]
 800585a:	6c1b      	ldr	r3, [r3, #64]	; 0x40
 800585c:	f043 0220 	orr.w	r2, r3, #32
 8005860:	68fb      	ldr	r3, [r7, #12]
 8005862:	641a      	str	r2, [r3, #64]	; 0x40

          /* Process Unlocked */
          __HAL_UNLOCK(hi2c);
 8005864:	68fb      	ldr	r3, [r7, #12]
 8005866:	2200      	movs	r2, #0
 8005868:	f883 203c 	strb.w	r2, [r3, #60]	; 0x3c

          return HAL_ERROR;
 800586c:	2301      	movs	r3, #1
 800586e:	e007      	b.n	8005880 <I2C_WaitOnTXEFlagUntilTimeout+0x88>
  while (__HAL_I2C_GET_FLAG(hi2c, I2C_FLAG_TXE) == RESET)
 8005870:	68fb      	ldr	r3, [r7, #12]
 8005872:	681b      	ldr	r3, [r3, #0]
 8005874:	695b      	ldr	r3, [r3, #20]
 8005876:	f003 0380 	and.w	r3, r3, #128	; 0x80
 800587a:	2b80      	cmp	r3, #128	; 0x80
 800587c:	d1c3      	bne.n	8005806 <I2C_WaitOnTXEFlagUntilTimeout+0xe>
        }
      }
    }
  }
  return HAL_OK;
 800587e:	2300      	movs	r3, #0
}
 8005880:	4618      	mov	r0, r3
 8005882:	3710      	adds	r7, #16
 8005884:	46bd      	mov	sp, r7
 8005886:	bd80      	pop	{r7, pc}

08005888 <I2C_WaitOnBTFFlagUntilTimeout>:
  * @param  Timeout Timeout duration
  * @param  Tickstart Tick start value
  * @retval HAL status
  */
static HAL_StatusTypeDef I2C_WaitOnBTFFlagUntilTimeout(I2C_HandleTypeDef *hi2c, uint32_t Timeout, uint32_t Tickstart)
{
 8005888:	b580      	push	{r7, lr}
 800588a:	b084      	sub	sp, #16
 800588c:	af00      	add	r7, sp, #0
 800588e:	60f8      	str	r0, [r7, #12]
 8005890:	60b9      	str	r1, [r7, #8]
 8005892:	607a      	str	r2, [r7, #4]
  while (__HAL_I2C_GET_FLAG(hi2c, I2C_FLAG_BTF) == RESET)
 8005894:	e034      	b.n	8005900 <I2C_WaitOnBTFFlagUntilTimeout+0x78>
  {
    /* Check if a NACK is detected */
    if (I2C_IsAcknowledgeFailed(hi2c) != HAL_OK)
 8005896:	68f8      	ldr	r0, [r7, #12]
 8005898:	f000 f89b 	bl	80059d2 <I2C_IsAcknowledgeFailed>
 800589c:	4603      	mov	r3, r0
 800589e:	2b00      	cmp	r3, #0
 80058a0:	d001      	beq.n	80058a6 <I2C_WaitOnBTFFlagUntilTimeout+0x1e>
    {
      return HAL_ERROR;
 80058a2:	2301      	movs	r3, #1
 80058a4:	e034      	b.n	8005910 <I2C_WaitOnBTFFlagUntilTimeout+0x88>
    }

    /* Check for the Timeout */
    if (Timeout != HAL_MAX_DELAY)
 80058a6:	68bb      	ldr	r3, [r7, #8]
 80058a8:	f1b3 3fff 	cmp.w	r3, #4294967295	; 0xffffffff
 80058ac:	d028      	beq.n	8005900 <I2C_WaitOnBTFFlagUntilTimeout+0x78>
    {
      if (((HAL_GetTick() - Tickstart) > Timeout) || (Timeout == 0U))
 80058ae:	f7fd fb21 	bl	8002ef4 <HAL_GetTick>
 80058b2:	4602      	mov	r2, r0
 80058b4:	687b      	ldr	r3, [r7, #4]
 80058b6:	1ad3      	subs	r3, r2, r3
 80058b8:	68ba      	ldr	r2, [r7, #8]
 80058ba:	429a      	cmp	r2, r3
 80058bc:	d302      	bcc.n	80058c4 <I2C_WaitOnBTFFlagUntilTimeout+0x3c>
 80058be:	68bb      	ldr	r3, [r7, #8]
 80058c0:	2b00      	cmp	r3, #0
 80058c2:	d11d      	bne.n	8005900 <I2C_WaitOnBTFFlagUntilTimeout+0x78>
      {
        if ((__HAL_I2C_GET_FLAG(hi2c, I2C_FLAG_BTF) == RESET))
 80058c4:	68fb      	ldr	r3, [r7, #12]
 80058c6:	681b      	ldr	r3, [r3, #0]
 80058c8:	695b      	ldr	r3, [r3, #20]
 80058ca:	f003 0304 	and.w	r3, r3, #4
 80058ce:	2b04      	cmp	r3, #4
 80058d0:	d016      	beq.n	8005900 <I2C_WaitOnBTFFlagUntilTimeout+0x78>
        {
          hi2c->PreviousState       = I2C_STATE_NONE;
 80058d2:	68fb      	ldr	r3, [r7, #12]
 80058d4:	2200      	movs	r2, #0
 80058d6:	631a      	str	r2, [r3, #48]	; 0x30
          hi2c->State               = HAL_I2C_STATE_READY;
 80058d8:	68fb      	ldr	r3, [r7, #12]
 80058da:	2220      	movs	r2, #32
 80058dc:	f883 203d 	strb.w	r2, [r3, #61]	; 0x3d
          hi2c->Mode                = HAL_I2C_MODE_NONE;
 80058e0:	68fb      	ldr	r3, [r7, #12]
 80058e2:	2200      	movs	r2, #0
 80058e4:	f883 203e 	strb.w	r2, [r3, #62]	; 0x3e
          hi2c->ErrorCode           |= HAL_I2C_ERROR_TIMEOUT;
 80058e8:	68fb      	ldr	r3, [r7, #12]
 80058ea:	6c1b      	ldr	r3, [r3, #64]	; 0x40
 80058ec:	f043 0220 	orr.w	r2, r3, #32
 80058f0:	68fb      	ldr	r3, [r7, #12]
 80058f2:	641a      	str	r2, [r3, #64]	; 0x40

          /* Process Unlocked */
          __HAL_UNLOCK(hi2c);
 80058f4:	68fb      	ldr	r3, [r7, #12]
 80058f6:	2200      	movs	r2, #0
 80058f8:	f883 203c 	strb.w	r2, [r3, #60]	; 0x3c

          return HAL_ERROR;
 80058fc:	2301      	movs	r3, #1
 80058fe:	e007      	b.n	8005910 <I2C_WaitOnBTFFlagUntilTimeout+0x88>
  while (__HAL_I2C_GET_FLAG(hi2c, I2C_FLAG_BTF) == RESET)
 8005900:	68fb      	ldr	r3, [r7, #12]
 8005902:	681b      	ldr	r3, [r3, #0]
 8005904:	695b      	ldr	r3, [r3, #20]
 8005906:	f003 0304 	and.w	r3, r3, #4
 800590a:	2b04      	cmp	r3, #4
 800590c:	d1c3      	bne.n	8005896 <I2C_WaitOnBTFFlagUntilTimeout+0xe>
        }
      }
    }
  }
  return HAL_OK;
 800590e:	2300      	movs	r3, #0
}
 8005910:	4618      	mov	r0, r3
 8005912:	3710      	adds	r7, #16
 8005914:	46bd      	mov	sp, r7
 8005916:	bd80      	pop	{r7, pc}

08005918 <I2C_WaitOnRXNEFlagUntilTimeout>:
  * @param  Timeout Timeout duration
  * @param  Tickstart Tick start value
  * @retval HAL status
  */
static HAL_StatusTypeDef I2C_WaitOnRXNEFlagUntilTimeout(I2C_HandleTypeDef *hi2c, uint32_t Timeout, uint32_t Tickstart)
{
 8005918:	b580      	push	{r7, lr}
 800591a:	b084      	sub	sp, #16
 800591c:	af00      	add	r7, sp, #0
 800591e:	60f8      	str	r0, [r7, #12]
 8005920:	60b9      	str	r1, [r7, #8]
 8005922:	607a      	str	r2, [r7, #4]

  while (__HAL_I2C_GET_FLAG(hi2c, I2C_FLAG_RXNE) == RESET)
 8005924:	e049      	b.n	80059ba <I2C_WaitOnRXNEFlagUntilTimeout+0xa2>
  {
    /* Check if a STOPF is detected */
    if (__HAL_I2C_GET_FLAG(hi2c, I2C_FLAG_STOPF) == SET)
 8005926:	68fb      	ldr	r3, [r7, #12]
 8005928:	681b      	ldr	r3, [r3, #0]
 800592a:	695b      	ldr	r3, [r3, #20]
 800592c:	f003 0310 	and.w	r3, r3, #16
 8005930:	2b10      	cmp	r3, #16
 8005932:	d119      	bne.n	8005968 <I2C_WaitOnRXNEFlagUntilTimeout+0x50>
    {
      /* Clear STOP Flag */
      __HAL_I2C_CLEAR_FLAG(hi2c, I2C_FLAG_STOPF);
 8005934:	68fb      	ldr	r3, [r7, #12]
 8005936:	681b      	ldr	r3, [r3, #0]
 8005938:	f06f 0210 	mvn.w	r2, #16
 800593c:	615a      	str	r2, [r3, #20]

      hi2c->PreviousState       = I2C_STATE_NONE;
 800593e:	68fb      	ldr	r3, [r7, #12]
 8005940:	2200      	movs	r2, #0
 8005942:	631a      	str	r2, [r3, #48]	; 0x30
      hi2c->State               = HAL_I2C_STATE_READY;
 8005944:	68fb      	ldr	r3, [r7, #12]
 8005946:	2220      	movs	r2, #32
 8005948:	f883 203d 	strb.w	r2, [r3, #61]	; 0x3d
      hi2c->Mode                = HAL_I2C_MODE_NONE;
 800594c:	68fb      	ldr	r3, [r7, #12]
 800594e:	2200      	movs	r2, #0
 8005950:	f883 203e 	strb.w	r2, [r3, #62]	; 0x3e
      hi2c->ErrorCode           |= HAL_I2C_ERROR_NONE;
 8005954:	68fb      	ldr	r3, [r7, #12]
 8005956:	6c1a      	ldr	r2, [r3, #64]	; 0x40
 8005958:	68fb      	ldr	r3, [r7, #12]
 800595a:	641a      	str	r2, [r3, #64]	; 0x40

      /* Process Unlocked */
      __HAL_UNLOCK(hi2c);
 800595c:	68fb      	ldr	r3, [r7, #12]
 800595e:	2200      	movs	r2, #0
 8005960:	f883 203c 	strb.w	r2, [r3, #60]	; 0x3c

      return HAL_ERROR;
 8005964:	2301      	movs	r3, #1
 8005966:	e030      	b.n	80059ca <I2C_WaitOnRXNEFlagUntilTimeout+0xb2>
    }

    /* Check for the Timeout */
    if (((HAL_GetTick() - Tickstart) > Timeout) || (Timeout == 0U))
 8005968:	f7fd fac4 	bl	8002ef4 <HAL_GetTick>
 800596c:	4602      	mov	r2, r0
 800596e:	687b      	ldr	r3, [r7, #4]
 8005970:	1ad3      	subs	r3, r2, r3
 8005972:	68ba      	ldr	r2, [r7, #8]
 8005974:	429a      	cmp	r2, r3
 8005976:	d302      	bcc.n	800597e <I2C_WaitOnRXNEFlagUntilTimeout+0x66>
 8005978:	68bb      	ldr	r3, [r7, #8]
 800597a:	2b00      	cmp	r3, #0
 800597c:	d11d      	bne.n	80059ba <I2C_WaitOnRXNEFlagUntilTimeout+0xa2>
    {
      if ((__HAL_I2C_GET_FLAG(hi2c, I2C_FLAG_RXNE) == RESET))
 800597e:	68fb      	ldr	r3, [r7, #12]
 8005980:	681b      	ldr	r3, [r3, #0]
 8005982:	695b      	ldr	r3, [r3, #20]
 8005984:	f003 0340 	and.w	r3, r3, #64	; 0x40
 8005988:	2b40      	cmp	r3, #64	; 0x40
 800598a:	d016      	beq.n	80059ba <I2C_WaitOnRXNEFlagUntilTimeout+0xa2>
      {
        hi2c->PreviousState       = I2C_STATE_NONE;
 800598c:	68fb      	ldr	r3, [r7, #12]
 800598e:	2200      	movs	r2, #0
 8005990:	631a      	str	r2, [r3, #48]	; 0x30
        hi2c->State               = HAL_I2C_STATE_READY;
 8005992:	68fb      	ldr	r3, [r7, #12]
 8005994:	2220      	movs	r2, #32
 8005996:	f883 203d 	strb.w	r2, [r3, #61]	; 0x3d
        hi2c->Mode                = HAL_I2C_MODE_NONE;
 800599a:	68fb      	ldr	r3, [r7, #12]
 800599c:	2200      	movs	r2, #0
 800599e:	f883 203e 	strb.w	r2, [r3, #62]	; 0x3e
        hi2c->ErrorCode           |= HAL_I2C_ERROR_TIMEOUT;
 80059a2:	68fb      	ldr	r3, [r7, #12]
 80059a4:	6c1b      	ldr	r3, [r3, #64]	; 0x40
 80059a6:	f043 0220 	orr.w	r2, r3, #32
 80059aa:	68fb      	ldr	r3, [r7, #12]
 80059ac:	641a      	str	r2, [r3, #64]	; 0x40

        /* Process Unlocked */
        __HAL_UNLOCK(hi2c);
 80059ae:	68fb      	ldr	r3, [r7, #12]
 80059b0:	2200      	movs	r2, #0
 80059b2:	f883 203c 	strb.w	r2, [r3, #60]	; 0x3c

        return HAL_ERROR;
 80059b6:	2301      	movs	r3, #1
 80059b8:	e007      	b.n	80059ca <I2C_WaitOnRXNEFlagUntilTimeout+0xb2>
  while (__HAL_I2C_GET_FLAG(hi2c, I2C_FLAG_RXNE) == RESET)
 80059ba:	68fb      	ldr	r3, [r7, #12]
 80059bc:	681b      	ldr	r3, [r3, #0]
 80059be:	695b      	ldr	r3, [r3, #20]
 80059c0:	f003 0340 	and.w	r3, r3, #64	; 0x40
 80059c4:	2b40      	cmp	r3, #64	; 0x40
 80059c6:	d1ae      	bne.n	8005926 <I2C_WaitOnRXNEFlagUntilTimeout+0xe>
      }
    }
  }
  return HAL_OK;
 80059c8:	2300      	movs	r3, #0
}
 80059ca:	4618      	mov	r0, r3
 80059cc:	3710      	adds	r7, #16
 80059ce:	46bd      	mov	sp, r7
 80059d0:	bd80      	pop	{r7, pc}

080059d2 <I2C_IsAcknowledgeFailed>:
  * @param  hi2c Pointer to a I2C_HandleTypeDef structure that contains
  *                the configuration information for the specified I2C.
  * @retval HAL status
  */
static HAL_StatusTypeDef I2C_IsAcknowledgeFailed(I2C_HandleTypeDef *hi2c)
{
 80059d2:	b480      	push	{r7}
 80059d4:	b083      	sub	sp, #12
 80059d6:	af00      	add	r7, sp, #0
 80059d8:	6078      	str	r0, [r7, #4]
  if (__HAL_I2C_GET_FLAG(hi2c, I2C_FLAG_AF) == SET)
 80059da:	687b      	ldr	r3, [r7, #4]
 80059dc:	681b      	ldr	r3, [r3, #0]
 80059de:	695b      	ldr	r3, [r3, #20]
 80059e0:	f403 6380 	and.w	r3, r3, #1024	; 0x400
 80059e4:	f5b3 6f80 	cmp.w	r3, #1024	; 0x400
 80059e8:	d11b      	bne.n	8005a22 <I2C_IsAcknowledgeFailed+0x50>
  {
    /* Clear NACKF Flag */
    __HAL_I2C_CLEAR_FLAG(hi2c, I2C_FLAG_AF);
 80059ea:	687b      	ldr	r3, [r7, #4]
 80059ec:	681b      	ldr	r3, [r3, #0]
 80059ee:	f46f 6280 	mvn.w	r2, #1024	; 0x400
 80059f2:	615a      	str	r2, [r3, #20]

    hi2c->PreviousState       = I2C_STATE_NONE;
 80059f4:	687b      	ldr	r3, [r7, #4]
 80059f6:	2200      	movs	r2, #0
 80059f8:	631a      	str	r2, [r3, #48]	; 0x30
    hi2c->State               = HAL_I2C_STATE_READY;
 80059fa:	687b      	ldr	r3, [r7, #4]
 80059fc:	2220      	movs	r2, #32
 80059fe:	f883 203d 	strb.w	r2, [r3, #61]	; 0x3d
    hi2c->Mode                = HAL_I2C_MODE_NONE;
 8005a02:	687b      	ldr	r3, [r7, #4]
 8005a04:	2200      	movs	r2, #0
 8005a06:	f883 203e 	strb.w	r2, [r3, #62]	; 0x3e
    hi2c->ErrorCode           |= HAL_I2C_ERROR_AF;
 8005a0a:	687b      	ldr	r3, [r7, #4]
 8005a0c:	6c1b      	ldr	r3, [r3, #64]	; 0x40
 8005a0e:	f043 0204 	orr.w	r2, r3, #4
 8005a12:	687b      	ldr	r3, [r7, #4]
 8005a14:	641a      	str	r2, [r3, #64]	; 0x40

    /* Process Unlocked */
    __HAL_UNLOCK(hi2c);
 8005a16:	687b      	ldr	r3, [r7, #4]
 8005a18:	2200      	movs	r2, #0
 8005a1a:	f883 203c 	strb.w	r2, [r3, #60]	; 0x3c

    return HAL_ERROR;
 8005a1e:	2301      	movs	r3, #1
 8005a20:	e000      	b.n	8005a24 <I2C_IsAcknowledgeFailed+0x52>
  }
  return HAL_OK;
 8005a22:	2300      	movs	r3, #0
}
 8005a24:	4618      	mov	r0, r3
 8005a26:	370c      	adds	r7, #12
 8005a28:	46bd      	mov	sp, r7
 8005a2a:	f85d 7b04 	ldr.w	r7, [sp], #4
 8005a2e:	4770      	bx	lr

08005a30 <HAL_I2CEx_ConfigAnalogFilter>:
  *                the configuration information for the specified I2Cx peripheral.
  * @param  AnalogFilter new state of the Analog filter.
  * @retval HAL status
  */
HAL_StatusTypeDef HAL_I2CEx_ConfigAnalogFilter(I2C_HandleTypeDef *hi2c, uint32_t AnalogFilter)
{
 8005a30:	b480      	push	{r7}
 8005a32:	b083      	sub	sp, #12
 8005a34:	af00      	add	r7, sp, #0
 8005a36:	6078      	str	r0, [r7, #4]
 8005a38:	6039      	str	r1, [r7, #0]
  /* Check the parameters */
  assert_param(IS_I2C_ALL_INSTANCE(hi2c->Instance));
  assert_param(IS_I2C_ANALOG_FILTER(AnalogFilter));

  if (hi2c->State == HAL_I2C_STATE_READY)
 8005a3a:	687b      	ldr	r3, [r7, #4]
 8005a3c:	f893 303d 	ldrb.w	r3, [r3, #61]	; 0x3d
 8005a40:	b2db      	uxtb	r3, r3
 8005a42:	2b20      	cmp	r3, #32
 8005a44:	d129      	bne.n	8005a9a <HAL_I2CEx_ConfigAnalogFilter+0x6a>
  {
    hi2c->State = HAL_I2C_STATE_BUSY;
 8005a46:	687b      	ldr	r3, [r7, #4]
 8005a48:	2224      	movs	r2, #36	; 0x24
 8005a4a:	f883 203d 	strb.w	r2, [r3, #61]	; 0x3d

    /* Disable the selected I2C peripheral */
    __HAL_I2C_DISABLE(hi2c);
 8005a4e:	687b      	ldr	r3, [r7, #4]
 8005a50:	681b      	ldr	r3, [r3, #0]
 8005a52:	681a      	ldr	r2, [r3, #0]
 8005a54:	687b      	ldr	r3, [r7, #4]
 8005a56:	681b      	ldr	r3, [r3, #0]
 8005a58:	f022 0201 	bic.w	r2, r2, #1
 8005a5c:	601a      	str	r2, [r3, #0]

    /* Reset I2Cx ANOFF bit */
    hi2c->Instance->FLTR &= ~(I2C_FLTR_ANOFF);
 8005a5e:	687b      	ldr	r3, [r7, #4]
 8005a60:	681b      	ldr	r3, [r3, #0]
 8005a62:	6a5a      	ldr	r2, [r3, #36]	; 0x24
 8005a64:	687b      	ldr	r3, [r7, #4]
 8005a66:	681b      	ldr	r3, [r3, #0]
 8005a68:	f022 0210 	bic.w	r2, r2, #16
 8005a6c:	625a      	str	r2, [r3, #36]	; 0x24

    /* Disable the analog filter */
    hi2c->Instance->FLTR |= AnalogFilter;
 8005a6e:	687b      	ldr	r3, [r7, #4]
 8005a70:	681b      	ldr	r3, [r3, #0]
 8005a72:	6a59      	ldr	r1, [r3, #36]	; 0x24
 8005a74:	687b      	ldr	r3, [r7, #4]
 8005a76:	681b      	ldr	r3, [r3, #0]
 8005a78:	683a      	ldr	r2, [r7, #0]
 8005a7a:	430a      	orrs	r2, r1
 8005a7c:	625a      	str	r2, [r3, #36]	; 0x24

    __HAL_I2C_ENABLE(hi2c);
 8005a7e:	687b      	ldr	r3, [r7, #4]
 8005a80:	681b      	ldr	r3, [r3, #0]
 8005a82:	681a      	ldr	r2, [r3, #0]
 8005a84:	687b      	ldr	r3, [r7, #4]
 8005a86:	681b      	ldr	r3, [r3, #0]
 8005a88:	f042 0201 	orr.w	r2, r2, #1
 8005a8c:	601a      	str	r2, [r3, #0]

    hi2c->State = HAL_I2C_STATE_READY;
 8005a8e:	687b      	ldr	r3, [r7, #4]
 8005a90:	2220      	movs	r2, #32
 8005a92:	f883 203d 	strb.w	r2, [r3, #61]	; 0x3d

    return HAL_OK;
 8005a96:	2300      	movs	r3, #0
 8005a98:	e000      	b.n	8005a9c <HAL_I2CEx_ConfigAnalogFilter+0x6c>
  }
  else
  {
    return HAL_BUSY;
 8005a9a:	2302      	movs	r3, #2
  }
}
 8005a9c:	4618      	mov	r0, r3
 8005a9e:	370c      	adds	r7, #12
 8005aa0:	46bd      	mov	sp, r7
 8005aa2:	f85d 7b04 	ldr.w	r7, [sp], #4
 8005aa6:	4770      	bx	lr

08005aa8 <HAL_I2CEx_ConfigDigitalFilter>:
  *                the configuration information for the specified I2Cx peripheral.
  * @param  DigitalFilter Coefficient of digital noise filter between 0x00 and 0x0F.
  * @retval HAL status
  */
HAL_StatusTypeDef HAL_I2CEx_ConfigDigitalFilter(I2C_HandleTypeDef *hi2c, uint32_t DigitalFilter)
{
 8005aa8:	b480      	push	{r7}
 8005aaa:	b085      	sub	sp, #20
 8005aac:	af00      	add	r7, sp, #0
 8005aae:	6078      	str	r0, [r7, #4]
 8005ab0:	6039      	str	r1, [r7, #0]
  uint16_t tmpreg = 0;
 8005ab2:	2300      	movs	r3, #0
 8005ab4:	81fb      	strh	r3, [r7, #14]

  /* Check the parameters */
  assert_param(IS_I2C_ALL_INSTANCE(hi2c->Instance));
  assert_param(IS_I2C_DIGITAL_FILTER(DigitalFilter));

  if (hi2c->State == HAL_I2C_STATE_READY)
 8005ab6:	687b      	ldr	r3, [r7, #4]
 8005ab8:	f893 303d 	ldrb.w	r3, [r3, #61]	; 0x3d
 8005abc:	b2db      	uxtb	r3, r3
 8005abe:	2b20      	cmp	r3, #32
 8005ac0:	d12a      	bne.n	8005b18 <HAL_I2CEx_ConfigDigitalFilter+0x70>
  {
    hi2c->State = HAL_I2C_STATE_BUSY;
 8005ac2:	687b      	ldr	r3, [r7, #4]
 8005ac4:	2224      	movs	r2, #36	; 0x24
 8005ac6:	f883 203d 	strb.w	r2, [r3, #61]	; 0x3d

    /* Disable the selected I2C peripheral */
    __HAL_I2C_DISABLE(hi2c);
 8005aca:	687b      	ldr	r3, [r7, #4]
 8005acc:	681b      	ldr	r3, [r3, #0]
 8005ace:	681a      	ldr	r2, [r3, #0]
 8005ad0:	687b      	ldr	r3, [r7, #4]
 8005ad2:	681b      	ldr	r3, [r3, #0]
 8005ad4:	f022 0201 	bic.w	r2, r2, #1
 8005ad8:	601a      	str	r2, [r3, #0]

    /* Get the old register value */
    tmpreg = hi2c->Instance->FLTR;
 8005ada:	687b      	ldr	r3, [r7, #4]
 8005adc:	681b      	ldr	r3, [r3, #0]
 8005ade:	6a5b      	ldr	r3, [r3, #36]	; 0x24
 8005ae0:	81fb      	strh	r3, [r7, #14]

    /* Reset I2Cx DNF bit [3:0] */
    tmpreg &= ~(I2C_FLTR_DNF);
 8005ae2:	89fb      	ldrh	r3, [r7, #14]
 8005ae4:	f023 030f 	bic.w	r3, r3, #15
 8005ae8:	81fb      	strh	r3, [r7, #14]

    /* Set I2Cx DNF coefficient */
    tmpreg |= DigitalFilter;
 8005aea:	683b      	ldr	r3, [r7, #0]
 8005aec:	b29a      	uxth	r2, r3
 8005aee:	89fb      	ldrh	r3, [r7, #14]
 8005af0:	4313      	orrs	r3, r2
 8005af2:	81fb      	strh	r3, [r7, #14]

    /* Store the new register value */
    hi2c->Instance->FLTR = tmpreg;
 8005af4:	687b      	ldr	r3, [r7, #4]
 8005af6:	681b      	ldr	r3, [r3, #0]
 8005af8:	89fa      	ldrh	r2, [r7, #14]
 8005afa:	625a      	str	r2, [r3, #36]	; 0x24

    __HAL_I2C_ENABLE(hi2c);
 8005afc:	687b      	ldr	r3, [r7, #4]
 8005afe:	681b      	ldr	r3, [r3, #0]
 8005b00:	681a      	ldr	r2, [r3, #0]
 8005b02:	687b      	ldr	r3, [r7, #4]
 8005b04:	681b      	ldr	r3, [r3, #0]
 8005b06:	f042 0201 	orr.w	r2, r2, #1
 8005b0a:	601a      	str	r2, [r3, #0]

    hi2c->State = HAL_I2C_STATE_READY;
 8005b0c:	687b      	ldr	r3, [r7, #4]
 8005b0e:	2220      	movs	r2, #32
 8005b10:	f883 203d 	strb.w	r2, [r3, #61]	; 0x3d

    return HAL_OK;
 8005b14:	2300      	movs	r3, #0
 8005b16:	e000      	b.n	8005b1a <HAL_I2CEx_ConfigDigitalFilter+0x72>
  }
  else
  {
    return HAL_BUSY;
 8005b18:	2302      	movs	r3, #2
  }
}
 8005b1a:	4618      	mov	r0, r3
 8005b1c:	3714      	adds	r7, #20
 8005b1e:	46bd      	mov	sp, r7
 8005b20:	f85d 7b04 	ldr.w	r7, [sp], #4
 8005b24:	4770      	bx	lr
	...

08005b28 <HAL_RCC_OscConfig>:
  *         supported by this API. User should request a transition to HSE Off
  *         first and then HSE On or HSE Bypass.
  * @retval HAL status
  */
__weak HAL_StatusTypeDef HAL_RCC_OscConfig(RCC_OscInitTypeDef  *RCC_OscInitStruct)
{
 8005b28:	b580      	push	{r7, lr}
 8005b2a:	b086      	sub	sp, #24
 8005b2c:	af00      	add	r7, sp, #0
 8005b2e:	6078      	str	r0, [r7, #4]
  uint32_t tickstart, pll_config;

  /* Check Null pointer */
  if(RCC_OscInitStruct == NULL)
 8005b30:	687b      	ldr	r3, [r7, #4]
 8005b32:	2b00      	cmp	r3, #0
 8005b34:	d101      	bne.n	8005b3a <HAL_RCC_OscConfig+0x12>
  {
    return HAL_ERROR;
 8005b36:	2301      	movs	r3, #1
 8005b38:	e267      	b.n	800600a <HAL_RCC_OscConfig+0x4e2>
  }

  /* Check the parameters */
  assert_param(IS_RCC_OSCILLATORTYPE(RCC_OscInitStruct->OscillatorType));
  /*------------------------------- HSE Configuration ------------------------*/
  if(((RCC_OscInitStruct->OscillatorType) & RCC_OSCILLATORTYPE_HSE) == RCC_OSCILLATORTYPE_HSE)
 8005b3a:	687b      	ldr	r3, [r7, #4]
 8005b3c:	681b      	ldr	r3, [r3, #0]
 8005b3e:	f003 0301 	and.w	r3, r3, #1
 8005b42:	2b00      	cmp	r3, #0
 8005b44:	d075      	beq.n	8005c32 <HAL_RCC_OscConfig+0x10a>
  {
    /* Check the parameters */
    assert_param(IS_RCC_HSE(RCC_OscInitStruct->HSEState));
    /* When the HSE is used as system clock or clock source for PLL in these cases HSE will not disabled */
    if((__HAL_RCC_GET_SYSCLK_SOURCE() == RCC_CFGR_SWS_HSE) ||\
 8005b46:	4b88      	ldr	r3, [pc, #544]	; (8005d68 <HAL_RCC_OscConfig+0x240>)
 8005b48:	689b      	ldr	r3, [r3, #8]
 8005b4a:	f003 030c 	and.w	r3, r3, #12
 8005b4e:	2b04      	cmp	r3, #4
 8005b50:	d00c      	beq.n	8005b6c <HAL_RCC_OscConfig+0x44>
      ((__HAL_RCC_GET_SYSCLK_SOURCE() == RCC_CFGR_SWS_PLL) && ((RCC->PLLCFGR & RCC_PLLCFGR_PLLSRC) == RCC_PLLCFGR_PLLSRC_HSE)))
 8005b52:	4b85      	ldr	r3, [pc, #532]	; (8005d68 <HAL_RCC_OscConfig+0x240>)
 8005b54:	689b      	ldr	r3, [r3, #8]
 8005b56:	f003 030c 	and.w	r3, r3, #12
    if((__HAL_RCC_GET_SYSCLK_SOURCE() == RCC_CFGR_SWS_HSE) ||\
 8005b5a:	2b08      	cmp	r3, #8
 8005b5c:	d112      	bne.n	8005b84 <HAL_RCC_OscConfig+0x5c>
      ((__HAL_RCC_GET_SYSCLK_SOURCE() == RCC_CFGR_SWS_PLL) && ((RCC->PLLCFGR & RCC_PLLCFGR_PLLSRC) == RCC_PLLCFGR_PLLSRC_HSE)))
 8005b5e:	4b82      	ldr	r3, [pc, #520]	; (8005d68 <HAL_RCC_OscConfig+0x240>)
 8005b60:	685b      	ldr	r3, [r3, #4]
 8005b62:	f403 0380 	and.w	r3, r3, #4194304	; 0x400000
 8005b66:	f5b3 0f80 	cmp.w	r3, #4194304	; 0x400000
 8005b6a:	d10b      	bne.n	8005b84 <HAL_RCC_OscConfig+0x5c>
    {
      if((__HAL_RCC_GET_FLAG(RCC_FLAG_HSERDY) != RESET) && (RCC_OscInitStruct->HSEState == RCC_HSE_OFF))
 8005b6c:	4b7e      	ldr	r3, [pc, #504]	; (8005d68 <HAL_RCC_OscConfig+0x240>)
 8005b6e:	681b      	ldr	r3, [r3, #0]
 8005b70:	f403 3300 	and.w	r3, r3, #131072	; 0x20000
 8005b74:	2b00      	cmp	r3, #0
 8005b76:	d05b      	beq.n	8005c30 <HAL_RCC_OscConfig+0x108>
 8005b78:	687b      	ldr	r3, [r7, #4]
 8005b7a:	685b      	ldr	r3, [r3, #4]
 8005b7c:	2b00      	cmp	r3, #0
 8005b7e:	d157      	bne.n	8005c30 <HAL_RCC_OscConfig+0x108>
      {
        return HAL_ERROR;
 8005b80:	2301      	movs	r3, #1
 8005b82:	e242      	b.n	800600a <HAL_RCC_OscConfig+0x4e2>
      }
    }
    else
    {
      /* Set the new HSE configuration ---------------------------------------*/
      __HAL_RCC_HSE_CONFIG(RCC_OscInitStruct->HSEState);
 8005b84:	687b      	ldr	r3, [r7, #4]
 8005b86:	685b      	ldr	r3, [r3, #4]
 8005b88:	f5b3 3f80 	cmp.w	r3, #65536	; 0x10000
 8005b8c:	d106      	bne.n	8005b9c <HAL_RCC_OscConfig+0x74>
 8005b8e:	4b76      	ldr	r3, [pc, #472]	; (8005d68 <HAL_RCC_OscConfig+0x240>)
 8005b90:	681b      	ldr	r3, [r3, #0]
 8005b92:	4a75      	ldr	r2, [pc, #468]	; (8005d68 <HAL_RCC_OscConfig+0x240>)
 8005b94:	f443 3380 	orr.w	r3, r3, #65536	; 0x10000
 8005b98:	6013      	str	r3, [r2, #0]
 8005b9a:	e01d      	b.n	8005bd8 <HAL_RCC_OscConfig+0xb0>
 8005b9c:	687b      	ldr	r3, [r7, #4]
 8005b9e:	685b      	ldr	r3, [r3, #4]
 8005ba0:	f5b3 2fa0 	cmp.w	r3, #327680	; 0x50000
 8005ba4:	d10c      	bne.n	8005bc0 <HAL_RCC_OscConfig+0x98>
 8005ba6:	4b70      	ldr	r3, [pc, #448]	; (8005d68 <HAL_RCC_OscConfig+0x240>)
 8005ba8:	681b      	ldr	r3, [r3, #0]
 8005baa:	4a6f      	ldr	r2, [pc, #444]	; (8005d68 <HAL_RCC_OscConfig+0x240>)
 8005bac:	f443 2380 	orr.w	r3, r3, #262144	; 0x40000
 8005bb0:	6013      	str	r3, [r2, #0]
 8005bb2:	4b6d      	ldr	r3, [pc, #436]	; (8005d68 <HAL_RCC_OscConfig+0x240>)
 8005bb4:	681b      	ldr	r3, [r3, #0]
 8005bb6:	4a6c      	ldr	r2, [pc, #432]	; (8005d68 <HAL_RCC_OscConfig+0x240>)
 8005bb8:	f443 3380 	orr.w	r3, r3, #65536	; 0x10000
 8005bbc:	6013      	str	r3, [r2, #0]
 8005bbe:	e00b      	b.n	8005bd8 <HAL_RCC_OscConfig+0xb0>
 8005bc0:	4b69      	ldr	r3, [pc, #420]	; (8005d68 <HAL_RCC_OscConfig+0x240>)
 8005bc2:	681b      	ldr	r3, [r3, #0]
 8005bc4:	4a68      	ldr	r2, [pc, #416]	; (8005d68 <HAL_RCC_OscConfig+0x240>)
 8005bc6:	f423 3380 	bic.w	r3, r3, #65536	; 0x10000
 8005bca:	6013      	str	r3, [r2, #0]
 8005bcc:	4b66      	ldr	r3, [pc, #408]	; (8005d68 <HAL_RCC_OscConfig+0x240>)
 8005bce:	681b      	ldr	r3, [r3, #0]
 8005bd0:	4a65      	ldr	r2, [pc, #404]	; (8005d68 <HAL_RCC_OscConfig+0x240>)
 8005bd2:	f423 2380 	bic.w	r3, r3, #262144	; 0x40000
 8005bd6:	6013      	str	r3, [r2, #0]

      /* Check the HSE State */
      if((RCC_OscInitStruct->HSEState) != RCC_HSE_OFF)
 8005bd8:	687b      	ldr	r3, [r7, #4]
 8005bda:	685b      	ldr	r3, [r3, #4]
 8005bdc:	2b00      	cmp	r3, #0
 8005bde:	d013      	beq.n	8005c08 <HAL_RCC_OscConfig+0xe0>
      {
        /* Get Start Tick */
        tickstart = HAL_GetTick();
 8005be0:	f7fd f988 	bl	8002ef4 <HAL_GetTick>
 8005be4:	6138      	str	r0, [r7, #16]

        /* Wait till HSE is ready */
        while(__HAL_RCC_GET_FLAG(RCC_FLAG_HSERDY) == RESET)
 8005be6:	e008      	b.n	8005bfa <HAL_RCC_OscConfig+0xd2>
        {
          if((HAL_GetTick() - tickstart ) > HSE_TIMEOUT_VALUE)
 8005be8:	f7fd f984 	bl	8002ef4 <HAL_GetTick>
 8005bec:	4602      	mov	r2, r0
 8005bee:	693b      	ldr	r3, [r7, #16]
 8005bf0:	1ad3      	subs	r3, r2, r3
 8005bf2:	2b64      	cmp	r3, #100	; 0x64
 8005bf4:	d901      	bls.n	8005bfa <HAL_RCC_OscConfig+0xd2>
          {
            return HAL_TIMEOUT;
 8005bf6:	2303      	movs	r3, #3
 8005bf8:	e207      	b.n	800600a <HAL_RCC_OscConfig+0x4e2>
        while(__HAL_RCC_GET_FLAG(RCC_FLAG_HSERDY) == RESET)
 8005bfa:	4b5b      	ldr	r3, [pc, #364]	; (8005d68 <HAL_RCC_OscConfig+0x240>)
 8005bfc:	681b      	ldr	r3, [r3, #0]
 8005bfe:	f403 3300 	and.w	r3, r3, #131072	; 0x20000
 8005c02:	2b00      	cmp	r3, #0
 8005c04:	d0f0      	beq.n	8005be8 <HAL_RCC_OscConfig+0xc0>
 8005c06:	e014      	b.n	8005c32 <HAL_RCC_OscConfig+0x10a>
        }
      }
      else
      {
        /* Get Start Tick */
        tickstart = HAL_GetTick();
 8005c08:	f7fd f974 	bl	8002ef4 <HAL_GetTick>
 8005c0c:	6138      	str	r0, [r7, #16]

        /* Wait till HSE is bypassed or disabled */
        while(__HAL_RCC_GET_FLAG(RCC_FLAG_HSERDY) != RESET)
 8005c0e:	e008      	b.n	8005c22 <HAL_RCC_OscConfig+0xfa>
        {
          if((HAL_GetTick() - tickstart ) > HSE_TIMEOUT_VALUE)
 8005c10:	f7fd f970 	bl	8002ef4 <HAL_GetTick>
 8005c14:	4602      	mov	r2, r0
 8005c16:	693b      	ldr	r3, [r7, #16]
 8005c18:	1ad3      	subs	r3, r2, r3
 8005c1a:	2b64      	cmp	r3, #100	; 0x64
 8005c1c:	d901      	bls.n	8005c22 <HAL_RCC_OscConfig+0xfa>
          {
            return HAL_TIMEOUT;
 8005c1e:	2303      	movs	r3, #3
 8005c20:	e1f3      	b.n	800600a <HAL_RCC_OscConfig+0x4e2>
        while(__HAL_RCC_GET_FLAG(RCC_FLAG_HSERDY) != RESET)
 8005c22:	4b51      	ldr	r3, [pc, #324]	; (8005d68 <HAL_RCC_OscConfig+0x240>)
 8005c24:	681b      	ldr	r3, [r3, #0]
 8005c26:	f403 3300 	and.w	r3, r3, #131072	; 0x20000
 8005c2a:	2b00      	cmp	r3, #0
 8005c2c:	d1f0      	bne.n	8005c10 <HAL_RCC_OscConfig+0xe8>
 8005c2e:	e000      	b.n	8005c32 <HAL_RCC_OscConfig+0x10a>
      if((__HAL_RCC_GET_FLAG(RCC_FLAG_HSERDY) != RESET) && (RCC_OscInitStruct->HSEState == RCC_HSE_OFF))
 8005c30:	bf00      	nop
        }
      }
    }
  }
  /*----------------------------- HSI Configuration --------------------------*/
  if(((RCC_OscInitStruct->OscillatorType) & RCC_OSCILLATORTYPE_HSI) == RCC_OSCILLATORTYPE_HSI)
 8005c32:	687b      	ldr	r3, [r7, #4]
 8005c34:	681b      	ldr	r3, [r3, #0]
 8005c36:	f003 0302 	and.w	r3, r3, #2
 8005c3a:	2b00      	cmp	r3, #0
 8005c3c:	d063      	beq.n	8005d06 <HAL_RCC_OscConfig+0x1de>
    /* Check the parameters */
    assert_param(IS_RCC_HSI(RCC_OscInitStruct->HSIState));
    assert_param(IS_RCC_CALIBRATION_VALUE(RCC_OscInitStruct->HSICalibrationValue));

    /* Check if HSI is used as system clock or as PLL source when PLL is selected as system clock */
    if((__HAL_RCC_GET_SYSCLK_SOURCE() == RCC_CFGR_SWS_HSI) ||\
 8005c3e:	4b4a      	ldr	r3, [pc, #296]	; (8005d68 <HAL_RCC_OscConfig+0x240>)
 8005c40:	689b      	ldr	r3, [r3, #8]
 8005c42:	f003 030c 	and.w	r3, r3, #12
 8005c46:	2b00      	cmp	r3, #0
 8005c48:	d00b      	beq.n	8005c62 <HAL_RCC_OscConfig+0x13a>
      ((__HAL_RCC_GET_SYSCLK_SOURCE() == RCC_CFGR_SWS_PLL) && ((RCC->PLLCFGR & RCC_PLLCFGR_PLLSRC) == RCC_PLLCFGR_PLLSRC_HSI)))
 8005c4a:	4b47      	ldr	r3, [pc, #284]	; (8005d68 <HAL_RCC_OscConfig+0x240>)
 8005c4c:	689b      	ldr	r3, [r3, #8]
 8005c4e:	f003 030c 	and.w	r3, r3, #12
    if((__HAL_RCC_GET_SYSCLK_SOURCE() == RCC_CFGR_SWS_HSI) ||\
 8005c52:	2b08      	cmp	r3, #8
 8005c54:	d11c      	bne.n	8005c90 <HAL_RCC_OscConfig+0x168>
      ((__HAL_RCC_GET_SYSCLK_SOURCE() == RCC_CFGR_SWS_PLL) && ((RCC->PLLCFGR & RCC_PLLCFGR_PLLSRC) == RCC_PLLCFGR_PLLSRC_HSI)))
 8005c56:	4b44      	ldr	r3, [pc, #272]	; (8005d68 <HAL_RCC_OscConfig+0x240>)
 8005c58:	685b      	ldr	r3, [r3, #4]
 8005c5a:	f403 0380 	and.w	r3, r3, #4194304	; 0x400000
 8005c5e:	2b00      	cmp	r3, #0
 8005c60:	d116      	bne.n	8005c90 <HAL_RCC_OscConfig+0x168>
    {
      /* When HSI is used as system clock it will not disabled */
      if((__HAL_RCC_GET_FLAG(RCC_FLAG_HSIRDY) != RESET) && (RCC_OscInitStruct->HSIState != RCC_HSI_ON))
 8005c62:	4b41      	ldr	r3, [pc, #260]	; (8005d68 <HAL_RCC_OscConfig+0x240>)
 8005c64:	681b      	ldr	r3, [r3, #0]
 8005c66:	f003 0302 	and.w	r3, r3, #2
 8005c6a:	2b00      	cmp	r3, #0
 8005c6c:	d005      	beq.n	8005c7a <HAL_RCC_OscConfig+0x152>
 8005c6e:	687b      	ldr	r3, [r7, #4]
 8005c70:	68db      	ldr	r3, [r3, #12]
 8005c72:	2b01      	cmp	r3, #1
 8005c74:	d001      	beq.n	8005c7a <HAL_RCC_OscConfig+0x152>
      {
        return HAL_ERROR;
 8005c76:	2301      	movs	r3, #1
 8005c78:	e1c7      	b.n	800600a <HAL_RCC_OscConfig+0x4e2>
      }
      /* Otherwise, just the calibration is allowed */
      else
      {
        /* Adjusts the Internal High Speed oscillator (HSI) calibration value.*/
        __HAL_RCC_HSI_CALIBRATIONVALUE_ADJUST(RCC_OscInitStruct->HSICalibrationValue);
 8005c7a:	4b3b      	ldr	r3, [pc, #236]	; (8005d68 <HAL_RCC_OscConfig+0x240>)
 8005c7c:	681b      	ldr	r3, [r3, #0]
 8005c7e:	f023 02f8 	bic.w	r2, r3, #248	; 0xf8
 8005c82:	687b      	ldr	r3, [r7, #4]
 8005c84:	691b      	ldr	r3, [r3, #16]
 8005c86:	00db      	lsls	r3, r3, #3
 8005c88:	4937      	ldr	r1, [pc, #220]	; (8005d68 <HAL_RCC_OscConfig+0x240>)
 8005c8a:	4313      	orrs	r3, r2
 8005c8c:	600b      	str	r3, [r1, #0]
      if((__HAL_RCC_GET_FLAG(RCC_FLAG_HSIRDY) != RESET) && (RCC_OscInitStruct->HSIState != RCC_HSI_ON))
 8005c8e:	e03a      	b.n	8005d06 <HAL_RCC_OscConfig+0x1de>
      }
    }
    else
    {
      /* Check the HSI State */
      if((RCC_OscInitStruct->HSIState)!= RCC_HSI_OFF)
 8005c90:	687b      	ldr	r3, [r7, #4]
 8005c92:	68db      	ldr	r3, [r3, #12]
 8005c94:	2b00      	cmp	r3, #0
 8005c96:	d020      	beq.n	8005cda <HAL_RCC_OscConfig+0x1b2>
      {
        /* Enable the Internal High Speed oscillator (HSI). */
        __HAL_RCC_HSI_ENABLE();
 8005c98:	4b34      	ldr	r3, [pc, #208]	; (8005d6c <HAL_RCC_OscConfig+0x244>)
 8005c9a:	2201      	movs	r2, #1
 8005c9c:	601a      	str	r2, [r3, #0]

        /* Get Start Tick*/
        tickstart = HAL_GetTick();
 8005c9e:	f7fd f929 	bl	8002ef4 <HAL_GetTick>
 8005ca2:	6138      	str	r0, [r7, #16]

        /* Wait till HSI is ready */
        while(__HAL_RCC_GET_FLAG(RCC_FLAG_HSIRDY) == RESET)
 8005ca4:	e008      	b.n	8005cb8 <HAL_RCC_OscConfig+0x190>
        {
          if((HAL_GetTick() - tickstart ) > HSI_TIMEOUT_VALUE)
 8005ca6:	f7fd f925 	bl	8002ef4 <HAL_GetTick>
 8005caa:	4602      	mov	r2, r0
 8005cac:	693b      	ldr	r3, [r7, #16]
 8005cae:	1ad3      	subs	r3, r2, r3
 8005cb0:	2b02      	cmp	r3, #2
 8005cb2:	d901      	bls.n	8005cb8 <HAL_RCC_OscConfig+0x190>
          {
            return HAL_TIMEOUT;
 8005cb4:	2303      	movs	r3, #3
 8005cb6:	e1a8      	b.n	800600a <HAL_RCC_OscConfig+0x4e2>
        while(__HAL_RCC_GET_FLAG(RCC_FLAG_HSIRDY) == RESET)
 8005cb8:	4b2b      	ldr	r3, [pc, #172]	; (8005d68 <HAL_RCC_OscConfig+0x240>)
 8005cba:	681b      	ldr	r3, [r3, #0]
 8005cbc:	f003 0302 	and.w	r3, r3, #2
 8005cc0:	2b00      	cmp	r3, #0
 8005cc2:	d0f0      	beq.n	8005ca6 <HAL_RCC_OscConfig+0x17e>
          }
        }

        /* Adjusts the Internal High Speed oscillator (HSI) calibration value. */
        __HAL_RCC_HSI_CALIBRATIONVALUE_ADJUST(RCC_OscInitStruct->HSICalibrationValue);
 8005cc4:	4b28      	ldr	r3, [pc, #160]	; (8005d68 <HAL_RCC_OscConfig+0x240>)
 8005cc6:	681b      	ldr	r3, [r3, #0]
 8005cc8:	f023 02f8 	bic.w	r2, r3, #248	; 0xf8
 8005ccc:	687b      	ldr	r3, [r7, #4]
 8005cce:	691b      	ldr	r3, [r3, #16]
 8005cd0:	00db      	lsls	r3, r3, #3
 8005cd2:	4925      	ldr	r1, [pc, #148]	; (8005d68 <HAL_RCC_OscConfig+0x240>)
 8005cd4:	4313      	orrs	r3, r2
 8005cd6:	600b      	str	r3, [r1, #0]
 8005cd8:	e015      	b.n	8005d06 <HAL_RCC_OscConfig+0x1de>
      }
      else
      {
        /* Disable the Internal High Speed oscillator (HSI). */
        __HAL_RCC_HSI_DISABLE();
 8005cda:	4b24      	ldr	r3, [pc, #144]	; (8005d6c <HAL_RCC_OscConfig+0x244>)
 8005cdc:	2200      	movs	r2, #0
 8005cde:	601a      	str	r2, [r3, #0]

        /* Get Start Tick*/
        tickstart = HAL_GetTick();
 8005ce0:	f7fd f908 	bl	8002ef4 <HAL_GetTick>
 8005ce4:	6138      	str	r0, [r7, #16]

        /* Wait till HSI is ready */
        while(__HAL_RCC_GET_FLAG(RCC_FLAG_HSIRDY) != RESET)
 8005ce6:	e008      	b.n	8005cfa <HAL_RCC_OscConfig+0x1d2>
        {
          if((HAL_GetTick() - tickstart ) > HSI_TIMEOUT_VALUE)
 8005ce8:	f7fd f904 	bl	8002ef4 <HAL_GetTick>
 8005cec:	4602      	mov	r2, r0
 8005cee:	693b      	ldr	r3, [r7, #16]
 8005cf0:	1ad3      	subs	r3, r2, r3
 8005cf2:	2b02      	cmp	r3, #2
 8005cf4:	d901      	bls.n	8005cfa <HAL_RCC_OscConfig+0x1d2>
          {
            return HAL_TIMEOUT;
 8005cf6:	2303      	movs	r3, #3
 8005cf8:	e187      	b.n	800600a <HAL_RCC_OscConfig+0x4e2>
        while(__HAL_RCC_GET_FLAG(RCC_FLAG_HSIRDY) != RESET)
 8005cfa:	4b1b      	ldr	r3, [pc, #108]	; (8005d68 <HAL_RCC_OscConfig+0x240>)
 8005cfc:	681b      	ldr	r3, [r3, #0]
 8005cfe:	f003 0302 	and.w	r3, r3, #2
 8005d02:	2b00      	cmp	r3, #0
 8005d04:	d1f0      	bne.n	8005ce8 <HAL_RCC_OscConfig+0x1c0>
        }
      }
    }
  }
  /*------------------------------ LSI Configuration -------------------------*/
  if(((RCC_OscInitStruct->OscillatorType) & RCC_OSCILLATORTYPE_LSI) == RCC_OSCILLATORTYPE_LSI)
 8005d06:	687b      	ldr	r3, [r7, #4]
 8005d08:	681b      	ldr	r3, [r3, #0]
 8005d0a:	f003 0308 	and.w	r3, r3, #8
 8005d0e:	2b00      	cmp	r3, #0
 8005d10:	d036      	beq.n	8005d80 <HAL_RCC_OscConfig+0x258>
  {
    /* Check the parameters */
    assert_param(IS_RCC_LSI(RCC_OscInitStruct->LSIState));

    /* Check the LSI State */
    if((RCC_OscInitStruct->LSIState)!= RCC_LSI_OFF)
 8005d12:	687b      	ldr	r3, [r7, #4]
 8005d14:	695b      	ldr	r3, [r3, #20]
 8005d16:	2b00      	cmp	r3, #0
 8005d18:	d016      	beq.n	8005d48 <HAL_RCC_OscConfig+0x220>
    {
      /* Enable the Internal Low Speed oscillator (LSI). */
      __HAL_RCC_LSI_ENABLE();
 8005d1a:	4b15      	ldr	r3, [pc, #84]	; (8005d70 <HAL_RCC_OscConfig+0x248>)
 8005d1c:	2201      	movs	r2, #1
 8005d1e:	601a      	str	r2, [r3, #0]

      /* Get Start Tick*/
      tickstart = HAL_GetTick();
 8005d20:	f7fd f8e8 	bl	8002ef4 <HAL_GetTick>
 8005d24:	6138      	str	r0, [r7, #16]

      /* Wait till LSI is ready */
      while(__HAL_RCC_GET_FLAG(RCC_FLAG_LSIRDY) == RESET)
 8005d26:	e008      	b.n	8005d3a <HAL_RCC_OscConfig+0x212>
      {
        if((HAL_GetTick() - tickstart ) > LSI_TIMEOUT_VALUE)
 8005d28:	f7fd f8e4 	bl	8002ef4 <HAL_GetTick>
 8005d2c:	4602      	mov	r2, r0
 8005d2e:	693b      	ldr	r3, [r7, #16]
 8005d30:	1ad3      	subs	r3, r2, r3
 8005d32:	2b02      	cmp	r3, #2
 8005d34:	d901      	bls.n	8005d3a <HAL_RCC_OscConfig+0x212>
        {
          return HAL_TIMEOUT;
 8005d36:	2303      	movs	r3, #3
 8005d38:	e167      	b.n	800600a <HAL_RCC_OscConfig+0x4e2>
      while(__HAL_RCC_GET_FLAG(RCC_FLAG_LSIRDY) == RESET)
 8005d3a:	4b0b      	ldr	r3, [pc, #44]	; (8005d68 <HAL_RCC_OscConfig+0x240>)
 8005d3c:	6f5b      	ldr	r3, [r3, #116]	; 0x74
 8005d3e:	f003 0302 	and.w	r3, r3, #2
 8005d42:	2b00      	cmp	r3, #0
 8005d44:	d0f0      	beq.n	8005d28 <HAL_RCC_OscConfig+0x200>
 8005d46:	e01b      	b.n	8005d80 <HAL_RCC_OscConfig+0x258>
      }
    }
    else
    {
      /* Disable the Internal Low Speed oscillator (LSI). */
      __HAL_RCC_LSI_DISABLE();
 8005d48:	4b09      	ldr	r3, [pc, #36]	; (8005d70 <HAL_RCC_OscConfig+0x248>)
 8005d4a:	2200      	movs	r2, #0
 8005d4c:	601a      	str	r2, [r3, #0]

      /* Get Start Tick */
      tickstart = HAL_GetTick();
 8005d4e:	f7fd f8d1 	bl	8002ef4 <HAL_GetTick>
 8005d52:	6138      	str	r0, [r7, #16]

      /* Wait till LSI is ready */
      while(__HAL_RCC_GET_FLAG(RCC_FLAG_LSIRDY) != RESET)
 8005d54:	e00e      	b.n	8005d74 <HAL_RCC_OscConfig+0x24c>
      {
        if((HAL_GetTick() - tickstart ) > LSI_TIMEOUT_VALUE)
 8005d56:	f7fd f8cd 	bl	8002ef4 <HAL_GetTick>
 8005d5a:	4602      	mov	r2, r0
 8005d5c:	693b      	ldr	r3, [r7, #16]
 8005d5e:	1ad3      	subs	r3, r2, r3
 8005d60:	2b02      	cmp	r3, #2
 8005d62:	d907      	bls.n	8005d74 <HAL_RCC_OscConfig+0x24c>
        {
          return HAL_TIMEOUT;
 8005d64:	2303      	movs	r3, #3
 8005d66:	e150      	b.n	800600a <HAL_RCC_OscConfig+0x4e2>
 8005d68:	40023800 	.word	0x40023800
 8005d6c:	42470000 	.word	0x42470000
 8005d70:	42470e80 	.word	0x42470e80
      while(__HAL_RCC_GET_FLAG(RCC_FLAG_LSIRDY) != RESET)
 8005d74:	4b88      	ldr	r3, [pc, #544]	; (8005f98 <HAL_RCC_OscConfig+0x470>)
 8005d76:	6f5b      	ldr	r3, [r3, #116]	; 0x74
 8005d78:	f003 0302 	and.w	r3, r3, #2
 8005d7c:	2b00      	cmp	r3, #0
 8005d7e:	d1ea      	bne.n	8005d56 <HAL_RCC_OscConfig+0x22e>
        }
      }
    }
  }
  /*------------------------------ LSE Configuration -------------------------*/
  if(((RCC_OscInitStruct->OscillatorType) & RCC_OSCILLATORTYPE_LSE) == RCC_OSCILLATORTYPE_LSE)
 8005d80:	687b      	ldr	r3, [r7, #4]
 8005d82:	681b      	ldr	r3, [r3, #0]
 8005d84:	f003 0304 	and.w	r3, r3, #4
 8005d88:	2b00      	cmp	r3, #0
 8005d8a:	f000 8097 	beq.w	8005ebc <HAL_RCC_OscConfig+0x394>
  {
    FlagStatus       pwrclkchanged = RESET;
 8005d8e:	2300      	movs	r3, #0
 8005d90:	75fb      	strb	r3, [r7, #23]
    /* Check the parameters */
    assert_param(IS_RCC_LSE(RCC_OscInitStruct->LSEState));

    /* Update LSE configuration in Backup Domain control register    */
    /* Requires to enable write access to Backup Domain of necessary */
    if(__HAL_RCC_PWR_IS_CLK_DISABLED())
 8005d92:	4b81      	ldr	r3, [pc, #516]	; (8005f98 <HAL_RCC_OscConfig+0x470>)
 8005d94:	6c1b      	ldr	r3, [r3, #64]	; 0x40
 8005d96:	f003 5380 	and.w	r3, r3, #268435456	; 0x10000000
 8005d9a:	2b00      	cmp	r3, #0
 8005d9c:	d10f      	bne.n	8005dbe <HAL_RCC_OscConfig+0x296>
    {
      __HAL_RCC_PWR_CLK_ENABLE();
 8005d9e:	2300      	movs	r3, #0
 8005da0:	60bb      	str	r3, [r7, #8]
 8005da2:	4b7d      	ldr	r3, [pc, #500]	; (8005f98 <HAL_RCC_OscConfig+0x470>)
 8005da4:	6c1b      	ldr	r3, [r3, #64]	; 0x40
 8005da6:	4a7c      	ldr	r2, [pc, #496]	; (8005f98 <HAL_RCC_OscConfig+0x470>)
 8005da8:	f043 5380 	orr.w	r3, r3, #268435456	; 0x10000000
 8005dac:	6413      	str	r3, [r2, #64]	; 0x40
 8005dae:	4b7a      	ldr	r3, [pc, #488]	; (8005f98 <HAL_RCC_OscConfig+0x470>)
 8005db0:	6c1b      	ldr	r3, [r3, #64]	; 0x40
 8005db2:	f003 5380 	and.w	r3, r3, #268435456	; 0x10000000
 8005db6:	60bb      	str	r3, [r7, #8]
 8005db8:	68bb      	ldr	r3, [r7, #8]
      pwrclkchanged = SET;
 8005dba:	2301      	movs	r3, #1
 8005dbc:	75fb      	strb	r3, [r7, #23]
    }

    if(HAL_IS_BIT_CLR(PWR->CR, PWR_CR_DBP))
 8005dbe:	4b77      	ldr	r3, [pc, #476]	; (8005f9c <HAL_RCC_OscConfig+0x474>)
 8005dc0:	681b      	ldr	r3, [r3, #0]
 8005dc2:	f403 7380 	and.w	r3, r3, #256	; 0x100
 8005dc6:	2b00      	cmp	r3, #0
 8005dc8:	d118      	bne.n	8005dfc <HAL_RCC_OscConfig+0x2d4>
    {
      /* Enable write access to Backup domain */
      SET_BIT(PWR->CR, PWR_CR_DBP);
 8005dca:	4b74      	ldr	r3, [pc, #464]	; (8005f9c <HAL_RCC_OscConfig+0x474>)
 8005dcc:	681b      	ldr	r3, [r3, #0]
 8005dce:	4a73      	ldr	r2, [pc, #460]	; (8005f9c <HAL_RCC_OscConfig+0x474>)
 8005dd0:	f443 7380 	orr.w	r3, r3, #256	; 0x100
 8005dd4:	6013      	str	r3, [r2, #0]

      /* Wait for Backup domain Write protection disable */
      tickstart = HAL_GetTick();
 8005dd6:	f7fd f88d 	bl	8002ef4 <HAL_GetTick>
 8005dda:	6138      	str	r0, [r7, #16]

      while(HAL_IS_BIT_CLR(PWR->CR, PWR_CR_DBP))
 8005ddc:	e008      	b.n	8005df0 <HAL_RCC_OscConfig+0x2c8>
      {
        if((HAL_GetTick() - tickstart) > RCC_DBP_TIMEOUT_VALUE)
 8005dde:	f7fd f889 	bl	8002ef4 <HAL_GetTick>
 8005de2:	4602      	mov	r2, r0
 8005de4:	693b      	ldr	r3, [r7, #16]
 8005de6:	1ad3      	subs	r3, r2, r3
 8005de8:	2b02      	cmp	r3, #2
 8005dea:	d901      	bls.n	8005df0 <HAL_RCC_OscConfig+0x2c8>
        {
          return HAL_TIMEOUT;
 8005dec:	2303      	movs	r3, #3
 8005dee:	e10c      	b.n	800600a <HAL_RCC_OscConfig+0x4e2>
      while(HAL_IS_BIT_CLR(PWR->CR, PWR_CR_DBP))
 8005df0:	4b6a      	ldr	r3, [pc, #424]	; (8005f9c <HAL_RCC_OscConfig+0x474>)
 8005df2:	681b      	ldr	r3, [r3, #0]
 8005df4:	f403 7380 	and.w	r3, r3, #256	; 0x100
 8005df8:	2b00      	cmp	r3, #0
 8005dfa:	d0f0      	beq.n	8005dde <HAL_RCC_OscConfig+0x2b6>
        }
      }
    }

    /* Set the new LSE configuration -----------------------------------------*/
    __HAL_RCC_LSE_CONFIG(RCC_OscInitStruct->LSEState);
 8005dfc:	687b      	ldr	r3, [r7, #4]
 8005dfe:	689b      	ldr	r3, [r3, #8]
 8005e00:	2b01      	cmp	r3, #1
 8005e02:	d106      	bne.n	8005e12 <HAL_RCC_OscConfig+0x2ea>
 8005e04:	4b64      	ldr	r3, [pc, #400]	; (8005f98 <HAL_RCC_OscConfig+0x470>)
 8005e06:	6f1b      	ldr	r3, [r3, #112]	; 0x70
 8005e08:	4a63      	ldr	r2, [pc, #396]	; (8005f98 <HAL_RCC_OscConfig+0x470>)
 8005e0a:	f043 0301 	orr.w	r3, r3, #1
 8005e0e:	6713      	str	r3, [r2, #112]	; 0x70
 8005e10:	e01c      	b.n	8005e4c <HAL_RCC_OscConfig+0x324>
 8005e12:	687b      	ldr	r3, [r7, #4]
 8005e14:	689b      	ldr	r3, [r3, #8]
 8005e16:	2b05      	cmp	r3, #5
 8005e18:	d10c      	bne.n	8005e34 <HAL_RCC_OscConfig+0x30c>
 8005e1a:	4b5f      	ldr	r3, [pc, #380]	; (8005f98 <HAL_RCC_OscConfig+0x470>)
 8005e1c:	6f1b      	ldr	r3, [r3, #112]	; 0x70
 8005e1e:	4a5e      	ldr	r2, [pc, #376]	; (8005f98 <HAL_RCC_OscConfig+0x470>)
 8005e20:	f043 0304 	orr.w	r3, r3, #4
 8005e24:	6713      	str	r3, [r2, #112]	; 0x70
 8005e26:	4b5c      	ldr	r3, [pc, #368]	; (8005f98 <HAL_RCC_OscConfig+0x470>)
 8005e28:	6f1b      	ldr	r3, [r3, #112]	; 0x70
 8005e2a:	4a5b      	ldr	r2, [pc, #364]	; (8005f98 <HAL_RCC_OscConfig+0x470>)
 8005e2c:	f043 0301 	orr.w	r3, r3, #1
 8005e30:	6713      	str	r3, [r2, #112]	; 0x70
 8005e32:	e00b      	b.n	8005e4c <HAL_RCC_OscConfig+0x324>
 8005e34:	4b58      	ldr	r3, [pc, #352]	; (8005f98 <HAL_RCC_OscConfig+0x470>)
 8005e36:	6f1b      	ldr	r3, [r3, #112]	; 0x70
 8005e38:	4a57      	ldr	r2, [pc, #348]	; (8005f98 <HAL_RCC_OscConfig+0x470>)
 8005e3a:	f023 0301 	bic.w	r3, r3, #1
 8005e3e:	6713      	str	r3, [r2, #112]	; 0x70
 8005e40:	4b55      	ldr	r3, [pc, #340]	; (8005f98 <HAL_RCC_OscConfig+0x470>)
 8005e42:	6f1b      	ldr	r3, [r3, #112]	; 0x70
 8005e44:	4a54      	ldr	r2, [pc, #336]	; (8005f98 <HAL_RCC_OscConfig+0x470>)
 8005e46:	f023 0304 	bic.w	r3, r3, #4
 8005e4a:	6713      	str	r3, [r2, #112]	; 0x70
    /* Check the LSE State */
    if((RCC_OscInitStruct->LSEState) != RCC_LSE_OFF)
 8005e4c:	687b      	ldr	r3, [r7, #4]
 8005e4e:	689b      	ldr	r3, [r3, #8]
 8005e50:	2b00      	cmp	r3, #0
 8005e52:	d015      	beq.n	8005e80 <HAL_RCC_OscConfig+0x358>
    {
      /* Get Start Tick*/
      tickstart = HAL_GetTick();
 8005e54:	f7fd f84e 	bl	8002ef4 <HAL_GetTick>
 8005e58:	6138      	str	r0, [r7, #16]

      /* Wait till LSE is ready */
      while(__HAL_RCC_GET_FLAG(RCC_FLAG_LSERDY) == RESET)
 8005e5a:	e00a      	b.n	8005e72 <HAL_RCC_OscConfig+0x34a>
      {
        if((HAL_GetTick() - tickstart ) > RCC_LSE_TIMEOUT_VALUE)
 8005e5c:	f7fd f84a 	bl	8002ef4 <HAL_GetTick>
 8005e60:	4602      	mov	r2, r0
 8005e62:	693b      	ldr	r3, [r7, #16]
 8005e64:	1ad3      	subs	r3, r2, r3
 8005e66:	f241 3288 	movw	r2, #5000	; 0x1388
 8005e6a:	4293      	cmp	r3, r2
 8005e6c:	d901      	bls.n	8005e72 <HAL_RCC_OscConfig+0x34a>
        {
          return HAL_TIMEOUT;
 8005e6e:	2303      	movs	r3, #3
 8005e70:	e0cb      	b.n	800600a <HAL_RCC_OscConfig+0x4e2>
      while(__HAL_RCC_GET_FLAG(RCC_FLAG_LSERDY) == RESET)
 8005e72:	4b49      	ldr	r3, [pc, #292]	; (8005f98 <HAL_RCC_OscConfig+0x470>)
 8005e74:	6f1b      	ldr	r3, [r3, #112]	; 0x70
 8005e76:	f003 0302 	and.w	r3, r3, #2
 8005e7a:	2b00      	cmp	r3, #0
 8005e7c:	d0ee      	beq.n	8005e5c <HAL_RCC_OscConfig+0x334>
 8005e7e:	e014      	b.n	8005eaa <HAL_RCC_OscConfig+0x382>
      }
    }
    else
    {
      /* Get Start Tick */
      tickstart = HAL_GetTick();
 8005e80:	f7fd f838 	bl	8002ef4 <HAL_GetTick>
 8005e84:	6138      	str	r0, [r7, #16]

      /* Wait till LSE is ready */
      while(__HAL_RCC_GET_FLAG(RCC_FLAG_LSERDY) != RESET)
 8005e86:	e00a      	b.n	8005e9e <HAL_RCC_OscConfig+0x376>
      {
        if((HAL_GetTick() - tickstart ) > RCC_LSE_TIMEOUT_VALUE)
 8005e88:	f7fd f834 	bl	8002ef4 <HAL_GetTick>
 8005e8c:	4602      	mov	r2, r0
 8005e8e:	693b      	ldr	r3, [r7, #16]
 8005e90:	1ad3      	subs	r3, r2, r3
 8005e92:	f241 3288 	movw	r2, #5000	; 0x1388
 8005e96:	4293      	cmp	r3, r2
 8005e98:	d901      	bls.n	8005e9e <HAL_RCC_OscConfig+0x376>
        {
          return HAL_TIMEOUT;
 8005e9a:	2303      	movs	r3, #3
 8005e9c:	e0b5      	b.n	800600a <HAL_RCC_OscConfig+0x4e2>
      while(__HAL_RCC_GET_FLAG(RCC_FLAG_LSERDY) != RESET)
 8005e9e:	4b3e      	ldr	r3, [pc, #248]	; (8005f98 <HAL_RCC_OscConfig+0x470>)
 8005ea0:	6f1b      	ldr	r3, [r3, #112]	; 0x70
 8005ea2:	f003 0302 	and.w	r3, r3, #2
 8005ea6:	2b00      	cmp	r3, #0
 8005ea8:	d1ee      	bne.n	8005e88 <HAL_RCC_OscConfig+0x360>
        }
      }
    }

    /* Restore clock configuration if changed */
    if(pwrclkchanged == SET)
 8005eaa:	7dfb      	ldrb	r3, [r7, #23]
 8005eac:	2b01      	cmp	r3, #1
 8005eae:	d105      	bne.n	8005ebc <HAL_RCC_OscConfig+0x394>
    {
      __HAL_RCC_PWR_CLK_DISABLE();
 8005eb0:	4b39      	ldr	r3, [pc, #228]	; (8005f98 <HAL_RCC_OscConfig+0x470>)
 8005eb2:	6c1b      	ldr	r3, [r3, #64]	; 0x40
 8005eb4:	4a38      	ldr	r2, [pc, #224]	; (8005f98 <HAL_RCC_OscConfig+0x470>)
 8005eb6:	f023 5380 	bic.w	r3, r3, #268435456	; 0x10000000
 8005eba:	6413      	str	r3, [r2, #64]	; 0x40
    }
  }
  /*-------------------------------- PLL Configuration -----------------------*/
  /* Check the parameters */
  assert_param(IS_RCC_PLL(RCC_OscInitStruct->PLL.PLLState));
  if ((RCC_OscInitStruct->PLL.PLLState) != RCC_PLL_NONE)
 8005ebc:	687b      	ldr	r3, [r7, #4]
 8005ebe:	699b      	ldr	r3, [r3, #24]
 8005ec0:	2b00      	cmp	r3, #0
 8005ec2:	f000 80a1 	beq.w	8006008 <HAL_RCC_OscConfig+0x4e0>
  {
    /* Check if the PLL is used as system clock or not */
    if(__HAL_RCC_GET_SYSCLK_SOURCE() != RCC_CFGR_SWS_PLL)
 8005ec6:	4b34      	ldr	r3, [pc, #208]	; (8005f98 <HAL_RCC_OscConfig+0x470>)
 8005ec8:	689b      	ldr	r3, [r3, #8]
 8005eca:	f003 030c 	and.w	r3, r3, #12
 8005ece:	2b08      	cmp	r3, #8
 8005ed0:	d05c      	beq.n	8005f8c <HAL_RCC_OscConfig+0x464>
    {
      if((RCC_OscInitStruct->PLL.PLLState) == RCC_PLL_ON)
 8005ed2:	687b      	ldr	r3, [r7, #4]
 8005ed4:	699b      	ldr	r3, [r3, #24]
 8005ed6:	2b02      	cmp	r3, #2
 8005ed8:	d141      	bne.n	8005f5e <HAL_RCC_OscConfig+0x436>
        assert_param(IS_RCC_PLLN_VALUE(RCC_OscInitStruct->PLL.PLLN));
        assert_param(IS_RCC_PLLP_VALUE(RCC_OscInitStruct->PLL.PLLP));
        assert_param(IS_RCC_PLLQ_VALUE(RCC_OscInitStruct->PLL.PLLQ));

        /* Disable the main PLL. */
        __HAL_RCC_PLL_DISABLE();
 8005eda:	4b31      	ldr	r3, [pc, #196]	; (8005fa0 <HAL_RCC_OscConfig+0x478>)
 8005edc:	2200      	movs	r2, #0
 8005ede:	601a      	str	r2, [r3, #0]

        /* Get Start Tick */
        tickstart = HAL_GetTick();
 8005ee0:	f7fd f808 	bl	8002ef4 <HAL_GetTick>
 8005ee4:	6138      	str	r0, [r7, #16]

        /* Wait till PLL is disabled */
        while(__HAL_RCC_GET_FLAG(RCC_FLAG_PLLRDY) != RESET)
 8005ee6:	e008      	b.n	8005efa <HAL_RCC_OscConfig+0x3d2>
        {
          if((HAL_GetTick() - tickstart ) > PLL_TIMEOUT_VALUE)
 8005ee8:	f7fd f804 	bl	8002ef4 <HAL_GetTick>
 8005eec:	4602      	mov	r2, r0
 8005eee:	693b      	ldr	r3, [r7, #16]
 8005ef0:	1ad3      	subs	r3, r2, r3
 8005ef2:	2b02      	cmp	r3, #2
 8005ef4:	d901      	bls.n	8005efa <HAL_RCC_OscConfig+0x3d2>
          {
            return HAL_TIMEOUT;
 8005ef6:	2303      	movs	r3, #3
 8005ef8:	e087      	b.n	800600a <HAL_RCC_OscConfig+0x4e2>
        while(__HAL_RCC_GET_FLAG(RCC_FLAG_PLLRDY) != RESET)
 8005efa:	4b27      	ldr	r3, [pc, #156]	; (8005f98 <HAL_RCC_OscConfig+0x470>)
 8005efc:	681b      	ldr	r3, [r3, #0]
 8005efe:	f003 7300 	and.w	r3, r3, #33554432	; 0x2000000
 8005f02:	2b00      	cmp	r3, #0
 8005f04:	d1f0      	bne.n	8005ee8 <HAL_RCC_OscConfig+0x3c0>
          }
        }

        /* Configure the main PLL clock source, multiplication and division factors. */
        WRITE_REG(RCC->PLLCFGR, (RCC_OscInitStruct->PLL.PLLSource                                            | \
 8005f06:	687b      	ldr	r3, [r7, #4]
 8005f08:	69da      	ldr	r2, [r3, #28]
 8005f0a:	687b      	ldr	r3, [r7, #4]
 8005f0c:	6a1b      	ldr	r3, [r3, #32]
 8005f0e:	431a      	orrs	r2, r3
 8005f10:	687b      	ldr	r3, [r7, #4]
 8005f12:	6a5b      	ldr	r3, [r3, #36]	; 0x24
 8005f14:	019b      	lsls	r3, r3, #6
 8005f16:	431a      	orrs	r2, r3
 8005f18:	687b      	ldr	r3, [r7, #4]
 8005f1a:	6a9b      	ldr	r3, [r3, #40]	; 0x28
 8005f1c:	085b      	lsrs	r3, r3, #1
 8005f1e:	3b01      	subs	r3, #1
 8005f20:	041b      	lsls	r3, r3, #16
 8005f22:	431a      	orrs	r2, r3
 8005f24:	687b      	ldr	r3, [r7, #4]
 8005f26:	6adb      	ldr	r3, [r3, #44]	; 0x2c
 8005f28:	061b      	lsls	r3, r3, #24
 8005f2a:	491b      	ldr	r1, [pc, #108]	; (8005f98 <HAL_RCC_OscConfig+0x470>)
 8005f2c:	4313      	orrs	r3, r2
 8005f2e:	604b      	str	r3, [r1, #4]
                                 RCC_OscInitStruct->PLL.PLLM                                                 | \
                                 (RCC_OscInitStruct->PLL.PLLN << RCC_PLLCFGR_PLLN_Pos)             | \
                                 (((RCC_OscInitStruct->PLL.PLLP >> 1U) - 1U) << RCC_PLLCFGR_PLLP_Pos) | \
                                 (RCC_OscInitStruct->PLL.PLLQ << RCC_PLLCFGR_PLLQ_Pos)));
        /* Enable the main PLL. */
        __HAL_RCC_PLL_ENABLE();
 8005f30:	4b1b      	ldr	r3, [pc, #108]	; (8005fa0 <HAL_RCC_OscConfig+0x478>)
 8005f32:	2201      	movs	r2, #1
 8005f34:	601a      	str	r2, [r3, #0]

        /* Get Start Tick */
        tickstart = HAL_GetTick();
 8005f36:	f7fc ffdd 	bl	8002ef4 <HAL_GetTick>
 8005f3a:	6138      	str	r0, [r7, #16]

        /* Wait till PLL is ready */
        while(__HAL_RCC_GET_FLAG(RCC_FLAG_PLLRDY) == RESET)
 8005f3c:	e008      	b.n	8005f50 <HAL_RCC_OscConfig+0x428>
        {
          if((HAL_GetTick() - tickstart ) > PLL_TIMEOUT_VALUE)
 8005f3e:	f7fc ffd9 	bl	8002ef4 <HAL_GetTick>
 8005f42:	4602      	mov	r2, r0
 8005f44:	693b      	ldr	r3, [r7, #16]
 8005f46:	1ad3      	subs	r3, r2, r3
 8005f48:	2b02      	cmp	r3, #2
 8005f4a:	d901      	bls.n	8005f50 <HAL_RCC_OscConfig+0x428>
          {
            return HAL_TIMEOUT;
 8005f4c:	2303      	movs	r3, #3
 8005f4e:	e05c      	b.n	800600a <HAL_RCC_OscConfig+0x4e2>
        while(__HAL_RCC_GET_FLAG(RCC_FLAG_PLLRDY) == RESET)
 8005f50:	4b11      	ldr	r3, [pc, #68]	; (8005f98 <HAL_RCC_OscConfig+0x470>)
 8005f52:	681b      	ldr	r3, [r3, #0]
 8005f54:	f003 7300 	and.w	r3, r3, #33554432	; 0x2000000
 8005f58:	2b00      	cmp	r3, #0
 8005f5a:	d0f0      	beq.n	8005f3e <HAL_RCC_OscConfig+0x416>
 8005f5c:	e054      	b.n	8006008 <HAL_RCC_OscConfig+0x4e0>
        }
      }
      else
      {
        /* Disable the main PLL. */
        __HAL_RCC_PLL_DISABLE();
 8005f5e:	4b10      	ldr	r3, [pc, #64]	; (8005fa0 <HAL_RCC_OscConfig+0x478>)
 8005f60:	2200      	movs	r2, #0
 8005f62:	601a      	str	r2, [r3, #0]

        /* Get Start Tick */
        tickstart = HAL_GetTick();
 8005f64:	f7fc ffc6 	bl	8002ef4 <HAL_GetTick>
 8005f68:	6138      	str	r0, [r7, #16]

        /* Wait till PLL is disabled */
        while(__HAL_RCC_GET_FLAG(RCC_FLAG_PLLRDY) != RESET)
 8005f6a:	e008      	b.n	8005f7e <HAL_RCC_OscConfig+0x456>
        {
          if((HAL_GetTick() - tickstart ) > PLL_TIMEOUT_VALUE)
 8005f6c:	f7fc ffc2 	bl	8002ef4 <HAL_GetTick>
 8005f70:	4602      	mov	r2, r0
 8005f72:	693b      	ldr	r3, [r7, #16]
 8005f74:	1ad3      	subs	r3, r2, r3
 8005f76:	2b02      	cmp	r3, #2
 8005f78:	d901      	bls.n	8005f7e <HAL_RCC_OscConfig+0x456>
          {
            return HAL_TIMEOUT;
 8005f7a:	2303      	movs	r3, #3
 8005f7c:	e045      	b.n	800600a <HAL_RCC_OscConfig+0x4e2>
        while(__HAL_RCC_GET_FLAG(RCC_FLAG_PLLRDY) != RESET)
 8005f7e:	4b06      	ldr	r3, [pc, #24]	; (8005f98 <HAL_RCC_OscConfig+0x470>)
 8005f80:	681b      	ldr	r3, [r3, #0]
 8005f82:	f003 7300 	and.w	r3, r3, #33554432	; 0x2000000
 8005f86:	2b00      	cmp	r3, #0
 8005f88:	d1f0      	bne.n	8005f6c <HAL_RCC_OscConfig+0x444>
 8005f8a:	e03d      	b.n	8006008 <HAL_RCC_OscConfig+0x4e0>
      }
    }
    else
    {
      /* Check if there is a request to disable the PLL used as System clock source */
      if((RCC_OscInitStruct->PLL.PLLState) == RCC_PLL_OFF)
 8005f8c:	687b      	ldr	r3, [r7, #4]
 8005f8e:	699b      	ldr	r3, [r3, #24]
 8005f90:	2b01      	cmp	r3, #1
 8005f92:	d107      	bne.n	8005fa4 <HAL_RCC_OscConfig+0x47c>
      {
        return HAL_ERROR;
 8005f94:	2301      	movs	r3, #1
 8005f96:	e038      	b.n	800600a <HAL_RCC_OscConfig+0x4e2>
 8005f98:	40023800 	.word	0x40023800
 8005f9c:	40007000 	.word	0x40007000
 8005fa0:	42470060 	.word	0x42470060
      }
      else
      {
        /* Do not return HAL_ERROR if request repeats the current configuration */
        pll_config = RCC->PLLCFGR;
 8005fa4:	4b1b      	ldr	r3, [pc, #108]	; (8006014 <HAL_RCC_OscConfig+0x4ec>)
 8005fa6:	685b      	ldr	r3, [r3, #4]
 8005fa8:	60fb      	str	r3, [r7, #12]
            (READ_BIT(pll_config, RCC_PLLCFGR_PLLN) != (RCC_OscInitStruct->PLL.PLLN) << RCC_PLLCFGR_PLLN_Pos) ||
            (READ_BIT(pll_config, RCC_PLLCFGR_PLLP) != (((RCC_OscInitStruct->PLL.PLLP >> 1U) - 1U)) << RCC_PLLCFGR_PLLP_Pos) ||
            (READ_BIT(pll_config, RCC_PLLCFGR_PLLQ) != (RCC_OscInitStruct->PLL.PLLQ << RCC_PLLCFGR_PLLQ_Pos)) ||
            (READ_BIT(pll_config, RCC_PLLCFGR_PLLR) != (RCC_OscInitStruct->PLL.PLLR << RCC_PLLCFGR_PLLR_Pos)))
#else
        if (((RCC_OscInitStruct->PLL.PLLState) == RCC_PLL_OFF) ||
 8005faa:	687b      	ldr	r3, [r7, #4]
 8005fac:	699b      	ldr	r3, [r3, #24]
 8005fae:	2b01      	cmp	r3, #1
 8005fb0:	d028      	beq.n	8006004 <HAL_RCC_OscConfig+0x4dc>
            (READ_BIT(pll_config, RCC_PLLCFGR_PLLSRC) != RCC_OscInitStruct->PLL.PLLSource) ||
 8005fb2:	68fb      	ldr	r3, [r7, #12]
 8005fb4:	f403 0280 	and.w	r2, r3, #4194304	; 0x400000
 8005fb8:	687b      	ldr	r3, [r7, #4]
 8005fba:	69db      	ldr	r3, [r3, #28]
        if (((RCC_OscInitStruct->PLL.PLLState) == RCC_PLL_OFF) ||
 8005fbc:	429a      	cmp	r2, r3
 8005fbe:	d121      	bne.n	8006004 <HAL_RCC_OscConfig+0x4dc>
            (READ_BIT(pll_config, RCC_PLLCFGR_PLLM) != (RCC_OscInitStruct->PLL.PLLM) << RCC_PLLCFGR_PLLM_Pos) ||
 8005fc0:	68fb      	ldr	r3, [r7, #12]
 8005fc2:	f003 023f 	and.w	r2, r3, #63	; 0x3f
 8005fc6:	687b      	ldr	r3, [r7, #4]
 8005fc8:	6a1b      	ldr	r3, [r3, #32]
            (READ_BIT(pll_config, RCC_PLLCFGR_PLLSRC) != RCC_OscInitStruct->PLL.PLLSource) ||
 8005fca:	429a      	cmp	r2, r3
 8005fcc:	d11a      	bne.n	8006004 <HAL_RCC_OscConfig+0x4dc>
            (READ_BIT(pll_config, RCC_PLLCFGR_PLLN) != (RCC_OscInitStruct->PLL.PLLN) << RCC_PLLCFGR_PLLN_Pos) ||
 8005fce:	68fa      	ldr	r2, [r7, #12]
 8005fd0:	f647 73c0 	movw	r3, #32704	; 0x7fc0
 8005fd4:	4013      	ands	r3, r2
 8005fd6:	687a      	ldr	r2, [r7, #4]
 8005fd8:	6a52      	ldr	r2, [r2, #36]	; 0x24
 8005fda:	0192      	lsls	r2, r2, #6
            (READ_BIT(pll_config, RCC_PLLCFGR_PLLM) != (RCC_OscInitStruct->PLL.PLLM) << RCC_PLLCFGR_PLLM_Pos) ||
 8005fdc:	4293      	cmp	r3, r2
 8005fde:	d111      	bne.n	8006004 <HAL_RCC_OscConfig+0x4dc>
            (READ_BIT(pll_config, RCC_PLLCFGR_PLLP) != (((RCC_OscInitStruct->PLL.PLLP >> 1U) - 1U)) << RCC_PLLCFGR_PLLP_Pos) ||
 8005fe0:	68fb      	ldr	r3, [r7, #12]
 8005fe2:	f403 3240 	and.w	r2, r3, #196608	; 0x30000
 8005fe6:	687b      	ldr	r3, [r7, #4]
 8005fe8:	6a9b      	ldr	r3, [r3, #40]	; 0x28
 8005fea:	085b      	lsrs	r3, r3, #1
 8005fec:	3b01      	subs	r3, #1
 8005fee:	041b      	lsls	r3, r3, #16
            (READ_BIT(pll_config, RCC_PLLCFGR_PLLN) != (RCC_OscInitStruct->PLL.PLLN) << RCC_PLLCFGR_PLLN_Pos) ||
 8005ff0:	429a      	cmp	r2, r3
 8005ff2:	d107      	bne.n	8006004 <HAL_RCC_OscConfig+0x4dc>
            (READ_BIT(pll_config, RCC_PLLCFGR_PLLQ) != (RCC_OscInitStruct->PLL.PLLQ << RCC_PLLCFGR_PLLQ_Pos)))
 8005ff4:	68fb      	ldr	r3, [r7, #12]
 8005ff6:	f003 6270 	and.w	r2, r3, #251658240	; 0xf000000
 8005ffa:	687b      	ldr	r3, [r7, #4]
 8005ffc:	6adb      	ldr	r3, [r3, #44]	; 0x2c
 8005ffe:	061b      	lsls	r3, r3, #24
            (READ_BIT(pll_config, RCC_PLLCFGR_PLLP) != (((RCC_OscInitStruct->PLL.PLLP >> 1U) - 1U)) << RCC_PLLCFGR_PLLP_Pos) ||
 8006000:	429a      	cmp	r2, r3
 8006002:	d001      	beq.n	8006008 <HAL_RCC_OscConfig+0x4e0>
#endif
        {
          return HAL_ERROR;
 8006004:	2301      	movs	r3, #1
 8006006:	e000      	b.n	800600a <HAL_RCC_OscConfig+0x4e2>
        }
      }
    }
  }
  return HAL_OK;
 8006008:	2300      	movs	r3, #0
}
 800600a:	4618      	mov	r0, r3
 800600c:	3718      	adds	r7, #24
 800600e:	46bd      	mov	sp, r7
 8006010:	bd80      	pop	{r7, pc}
 8006012:	bf00      	nop
 8006014:	40023800 	.word	0x40023800

08006018 <HAL_RCC_ClockConfig>:
  *         HPRE[3:0] bits to ensure that HCLK not exceed the maximum allowed frequency
  *         (for more details refer to section above "Initialization/de-initialization functions")
  * @retval None
  */
HAL_StatusTypeDef HAL_RCC_ClockConfig(RCC_ClkInitTypeDef  *RCC_ClkInitStruct, uint32_t FLatency)
{
 8006018:	b580      	push	{r7, lr}
 800601a:	b084      	sub	sp, #16
 800601c:	af00      	add	r7, sp, #0
 800601e:	6078      	str	r0, [r7, #4]
 8006020:	6039      	str	r1, [r7, #0]
  uint32_t tickstart;

  /* Check Null pointer */
  if(RCC_ClkInitStruct == NULL)
 8006022:	687b      	ldr	r3, [r7, #4]
 8006024:	2b00      	cmp	r3, #0
 8006026:	d101      	bne.n	800602c <HAL_RCC_ClockConfig+0x14>
  {
    return HAL_ERROR;
 8006028:	2301      	movs	r3, #1
 800602a:	e0cc      	b.n	80061c6 <HAL_RCC_ClockConfig+0x1ae>
  /* To correctly read data from FLASH memory, the number of wait states (LATENCY)
    must be correctly programmed according to the frequency of the CPU clock
    (HCLK) and the supply voltage of the device. */

  /* Increasing the number of wait states because of higher CPU frequency */
  if(FLatency > __HAL_FLASH_GET_LATENCY())
 800602c:	4b68      	ldr	r3, [pc, #416]	; (80061d0 <HAL_RCC_ClockConfig+0x1b8>)
 800602e:	681b      	ldr	r3, [r3, #0]
 8006030:	f003 030f 	and.w	r3, r3, #15
 8006034:	683a      	ldr	r2, [r7, #0]
 8006036:	429a      	cmp	r2, r3
 8006038:	d90c      	bls.n	8006054 <HAL_RCC_ClockConfig+0x3c>
  {
    /* Program the new number of wait states to the LATENCY bits in the FLASH_ACR register */
    __HAL_FLASH_SET_LATENCY(FLatency);
 800603a:	4b65      	ldr	r3, [pc, #404]	; (80061d0 <HAL_RCC_ClockConfig+0x1b8>)
 800603c:	683a      	ldr	r2, [r7, #0]
 800603e:	b2d2      	uxtb	r2, r2
 8006040:	701a      	strb	r2, [r3, #0]

    /* Check that the new number of wait states is taken into account to access the Flash
    memory by reading the FLASH_ACR register */
    if(__HAL_FLASH_GET_LATENCY() != FLatency)
 8006042:	4b63      	ldr	r3, [pc, #396]	; (80061d0 <HAL_RCC_ClockConfig+0x1b8>)
 8006044:	681b      	ldr	r3, [r3, #0]
 8006046:	f003 030f 	and.w	r3, r3, #15
 800604a:	683a      	ldr	r2, [r7, #0]
 800604c:	429a      	cmp	r2, r3
 800604e:	d001      	beq.n	8006054 <HAL_RCC_ClockConfig+0x3c>
    {
      return HAL_ERROR;
 8006050:	2301      	movs	r3, #1
 8006052:	e0b8      	b.n	80061c6 <HAL_RCC_ClockConfig+0x1ae>
    }
  }

  /*-------------------------- HCLK Configuration --------------------------*/
  if(((RCC_ClkInitStruct->ClockType) & RCC_CLOCKTYPE_HCLK) == RCC_CLOCKTYPE_HCLK)
 8006054:	687b      	ldr	r3, [r7, #4]
 8006056:	681b      	ldr	r3, [r3, #0]
 8006058:	f003 0302 	and.w	r3, r3, #2
 800605c:	2b00      	cmp	r3, #0
 800605e:	d020      	beq.n	80060a2 <HAL_RCC_ClockConfig+0x8a>
  {
    /* Set the highest APBx dividers in order to ensure that we do not go through
       a non-spec phase whatever we decrease or increase HCLK. */
    if(((RCC_ClkInitStruct->ClockType) & RCC_CLOCKTYPE_PCLK1) == RCC_CLOCKTYPE_PCLK1)
 8006060:	687b      	ldr	r3, [r7, #4]
 8006062:	681b      	ldr	r3, [r3, #0]
 8006064:	f003 0304 	and.w	r3, r3, #4
 8006068:	2b00      	cmp	r3, #0
 800606a:	d005      	beq.n	8006078 <HAL_RCC_ClockConfig+0x60>
    {
      MODIFY_REG(RCC->CFGR, RCC_CFGR_PPRE1, RCC_HCLK_DIV16);
 800606c:	4b59      	ldr	r3, [pc, #356]	; (80061d4 <HAL_RCC_ClockConfig+0x1bc>)
 800606e:	689b      	ldr	r3, [r3, #8]
 8006070:	4a58      	ldr	r2, [pc, #352]	; (80061d4 <HAL_RCC_ClockConfig+0x1bc>)
 8006072:	f443 53e0 	orr.w	r3, r3, #7168	; 0x1c00
 8006076:	6093      	str	r3, [r2, #8]
    }

    if(((RCC_ClkInitStruct->ClockType) & RCC_CLOCKTYPE_PCLK2) == RCC_CLOCKTYPE_PCLK2)
 8006078:	687b      	ldr	r3, [r7, #4]
 800607a:	681b      	ldr	r3, [r3, #0]
 800607c:	f003 0308 	and.w	r3, r3, #8
 8006080:	2b00      	cmp	r3, #0
 8006082:	d005      	beq.n	8006090 <HAL_RCC_ClockConfig+0x78>
    {
      MODIFY_REG(RCC->CFGR, RCC_CFGR_PPRE2, (RCC_HCLK_DIV16 << 3));
 8006084:	4b53      	ldr	r3, [pc, #332]	; (80061d4 <HAL_RCC_ClockConfig+0x1bc>)
 8006086:	689b      	ldr	r3, [r3, #8]
 8006088:	4a52      	ldr	r2, [pc, #328]	; (80061d4 <HAL_RCC_ClockConfig+0x1bc>)
 800608a:	f443 4360 	orr.w	r3, r3, #57344	; 0xe000
 800608e:	6093      	str	r3, [r2, #8]
    }

    assert_param(IS_RCC_HCLK(RCC_ClkInitStruct->AHBCLKDivider));
    MODIFY_REG(RCC->CFGR, RCC_CFGR_HPRE, RCC_ClkInitStruct->AHBCLKDivider);
 8006090:	4b50      	ldr	r3, [pc, #320]	; (80061d4 <HAL_RCC_ClockConfig+0x1bc>)
 8006092:	689b      	ldr	r3, [r3, #8]
 8006094:	f023 02f0 	bic.w	r2, r3, #240	; 0xf0
 8006098:	687b      	ldr	r3, [r7, #4]
 800609a:	689b      	ldr	r3, [r3, #8]
 800609c:	494d      	ldr	r1, [pc, #308]	; (80061d4 <HAL_RCC_ClockConfig+0x1bc>)
 800609e:	4313      	orrs	r3, r2
 80060a0:	608b      	str	r3, [r1, #8]
  }

  /*------------------------- SYSCLK Configuration ---------------------------*/
  if(((RCC_ClkInitStruct->ClockType) & RCC_CLOCKTYPE_SYSCLK) == RCC_CLOCKTYPE_SYSCLK)
 80060a2:	687b      	ldr	r3, [r7, #4]
 80060a4:	681b      	ldr	r3, [r3, #0]
 80060a6:	f003 0301 	and.w	r3, r3, #1
 80060aa:	2b00      	cmp	r3, #0
 80060ac:	d044      	beq.n	8006138 <HAL_RCC_ClockConfig+0x120>
  {
    assert_param(IS_RCC_SYSCLKSOURCE(RCC_ClkInitStruct->SYSCLKSource));

    /* HSE is selected as System Clock Source */
    if(RCC_ClkInitStruct->SYSCLKSource == RCC_SYSCLKSOURCE_HSE)
 80060ae:	687b      	ldr	r3, [r7, #4]
 80060b0:	685b      	ldr	r3, [r3, #4]
 80060b2:	2b01      	cmp	r3, #1
 80060b4:	d107      	bne.n	80060c6 <HAL_RCC_ClockConfig+0xae>
    {
      /* Check the HSE ready flag */
      if(__HAL_RCC_GET_FLAG(RCC_FLAG_HSERDY) == RESET)
 80060b6:	4b47      	ldr	r3, [pc, #284]	; (80061d4 <HAL_RCC_ClockConfig+0x1bc>)
 80060b8:	681b      	ldr	r3, [r3, #0]
 80060ba:	f403 3300 	and.w	r3, r3, #131072	; 0x20000
 80060be:	2b00      	cmp	r3, #0
 80060c0:	d119      	bne.n	80060f6 <HAL_RCC_ClockConfig+0xde>
      {
        return HAL_ERROR;
 80060c2:	2301      	movs	r3, #1
 80060c4:	e07f      	b.n	80061c6 <HAL_RCC_ClockConfig+0x1ae>
      }
    }
    /* PLL is selected as System Clock Source */
    else if((RCC_ClkInitStruct->SYSCLKSource == RCC_SYSCLKSOURCE_PLLCLK)   ||
 80060c6:	687b      	ldr	r3, [r7, #4]
 80060c8:	685b      	ldr	r3, [r3, #4]
 80060ca:	2b02      	cmp	r3, #2
 80060cc:	d003      	beq.n	80060d6 <HAL_RCC_ClockConfig+0xbe>
            (RCC_ClkInitStruct->SYSCLKSource == RCC_SYSCLKSOURCE_PLLRCLK))
 80060ce:	687b      	ldr	r3, [r7, #4]
 80060d0:	685b      	ldr	r3, [r3, #4]
    else if((RCC_ClkInitStruct->SYSCLKSource == RCC_SYSCLKSOURCE_PLLCLK)   ||
 80060d2:	2b03      	cmp	r3, #3
 80060d4:	d107      	bne.n	80060e6 <HAL_RCC_ClockConfig+0xce>
    {
      /* Check the PLL ready flag */
      if(__HAL_RCC_GET_FLAG(RCC_FLAG_PLLRDY) == RESET)
 80060d6:	4b3f      	ldr	r3, [pc, #252]	; (80061d4 <HAL_RCC_ClockConfig+0x1bc>)
 80060d8:	681b      	ldr	r3, [r3, #0]
 80060da:	f003 7300 	and.w	r3, r3, #33554432	; 0x2000000
 80060de:	2b00      	cmp	r3, #0
 80060e0:	d109      	bne.n	80060f6 <HAL_RCC_ClockConfig+0xde>
      {
        return HAL_ERROR;
 80060e2:	2301      	movs	r3, #1
 80060e4:	e06f      	b.n	80061c6 <HAL_RCC_ClockConfig+0x1ae>
    }
    /* HSI is selected as System Clock Source */
    else
    {
      /* Check the HSI ready flag */
      if(__HAL_RCC_GET_FLAG(RCC_FLAG_HSIRDY) == RESET)
 80060e6:	4b3b      	ldr	r3, [pc, #236]	; (80061d4 <HAL_RCC_ClockConfig+0x1bc>)
 80060e8:	681b      	ldr	r3, [r3, #0]
 80060ea:	f003 0302 	and.w	r3, r3, #2
 80060ee:	2b00      	cmp	r3, #0
 80060f0:	d101      	bne.n	80060f6 <HAL_RCC_ClockConfig+0xde>
      {
        return HAL_ERROR;
 80060f2:	2301      	movs	r3, #1
 80060f4:	e067      	b.n	80061c6 <HAL_RCC_ClockConfig+0x1ae>
      }
    }

    __HAL_RCC_SYSCLK_CONFIG(RCC_ClkInitStruct->SYSCLKSource);
 80060f6:	4b37      	ldr	r3, [pc, #220]	; (80061d4 <HAL_RCC_ClockConfig+0x1bc>)
 80060f8:	689b      	ldr	r3, [r3, #8]
 80060fa:	f023 0203 	bic.w	r2, r3, #3
 80060fe:	687b      	ldr	r3, [r7, #4]
 8006100:	685b      	ldr	r3, [r3, #4]
 8006102:	4934      	ldr	r1, [pc, #208]	; (80061d4 <HAL_RCC_ClockConfig+0x1bc>)
 8006104:	4313      	orrs	r3, r2
 8006106:	608b      	str	r3, [r1, #8]

    /* Get Start Tick */
    tickstart = HAL_GetTick();
 8006108:	f7fc fef4 	bl	8002ef4 <HAL_GetTick>
 800610c:	60f8      	str	r0, [r7, #12]

    while (__HAL_RCC_GET_SYSCLK_SOURCE() != (RCC_ClkInitStruct->SYSCLKSource << RCC_CFGR_SWS_Pos))
 800610e:	e00a      	b.n	8006126 <HAL_RCC_ClockConfig+0x10e>
    {
      if ((HAL_GetTick() - tickstart) > CLOCKSWITCH_TIMEOUT_VALUE)
 8006110:	f7fc fef0 	bl	8002ef4 <HAL_GetTick>
 8006114:	4602      	mov	r2, r0
 8006116:	68fb      	ldr	r3, [r7, #12]
 8006118:	1ad3      	subs	r3, r2, r3
 800611a:	f241 3288 	movw	r2, #5000	; 0x1388
 800611e:	4293      	cmp	r3, r2
 8006120:	d901      	bls.n	8006126 <HAL_RCC_ClockConfig+0x10e>
      {
        return HAL_TIMEOUT;
 8006122:	2303      	movs	r3, #3
 8006124:	e04f      	b.n	80061c6 <HAL_RCC_ClockConfig+0x1ae>
    while (__HAL_RCC_GET_SYSCLK_SOURCE() != (RCC_ClkInitStruct->SYSCLKSource << RCC_CFGR_SWS_Pos))
 8006126:	4b2b      	ldr	r3, [pc, #172]	; (80061d4 <HAL_RCC_ClockConfig+0x1bc>)
 8006128:	689b      	ldr	r3, [r3, #8]
 800612a:	f003 020c 	and.w	r2, r3, #12
 800612e:	687b      	ldr	r3, [r7, #4]
 8006130:	685b      	ldr	r3, [r3, #4]
 8006132:	009b      	lsls	r3, r3, #2
 8006134:	429a      	cmp	r2, r3
 8006136:	d1eb      	bne.n	8006110 <HAL_RCC_ClockConfig+0xf8>
      }
    }
  }

  /* Decreasing the number of wait states because of lower CPU frequency */
  if(FLatency < __HAL_FLASH_GET_LATENCY())
 8006138:	4b25      	ldr	r3, [pc, #148]	; (80061d0 <HAL_RCC_ClockConfig+0x1b8>)
 800613a:	681b      	ldr	r3, [r3, #0]
 800613c:	f003 030f 	and.w	r3, r3, #15
 8006140:	683a      	ldr	r2, [r7, #0]
 8006142:	429a      	cmp	r2, r3
 8006144:	d20c      	bcs.n	8006160 <HAL_RCC_ClockConfig+0x148>
  {
     /* Program the new number of wait states to the LATENCY bits in the FLASH_ACR register */
    __HAL_FLASH_SET_LATENCY(FLatency);
 8006146:	4b22      	ldr	r3, [pc, #136]	; (80061d0 <HAL_RCC_ClockConfig+0x1b8>)
 8006148:	683a      	ldr	r2, [r7, #0]
 800614a:	b2d2      	uxtb	r2, r2
 800614c:	701a      	strb	r2, [r3, #0]

    /* Check that the new number of wait states is taken into account to access the Flash
    memory by reading the FLASH_ACR register */
    if(__HAL_FLASH_GET_LATENCY() != FLatency)
 800614e:	4b20      	ldr	r3, [pc, #128]	; (80061d0 <HAL_RCC_ClockConfig+0x1b8>)
 8006150:	681b      	ldr	r3, [r3, #0]
 8006152:	f003 030f 	and.w	r3, r3, #15
 8006156:	683a      	ldr	r2, [r7, #0]
 8006158:	429a      	cmp	r2, r3
 800615a:	d001      	beq.n	8006160 <HAL_RCC_ClockConfig+0x148>
    {
      return HAL_ERROR;
 800615c:	2301      	movs	r3, #1
 800615e:	e032      	b.n	80061c6 <HAL_RCC_ClockConfig+0x1ae>
    }
  }

  /*-------------------------- PCLK1 Configuration ---------------------------*/
  if(((RCC_ClkInitStruct->ClockType) & RCC_CLOCKTYPE_PCLK1) == RCC_CLOCKTYPE_PCLK1)
 8006160:	687b      	ldr	r3, [r7, #4]
 8006162:	681b      	ldr	r3, [r3, #0]
 8006164:	f003 0304 	and.w	r3, r3, #4
 8006168:	2b00      	cmp	r3, #0
 800616a:	d008      	beq.n	800617e <HAL_RCC_ClockConfig+0x166>
  {
    assert_param(IS_RCC_PCLK(RCC_ClkInitStruct->APB1CLKDivider));
    MODIFY_REG(RCC->CFGR, RCC_CFGR_PPRE1, RCC_ClkInitStruct->APB1CLKDivider);
 800616c:	4b19      	ldr	r3, [pc, #100]	; (80061d4 <HAL_RCC_ClockConfig+0x1bc>)
 800616e:	689b      	ldr	r3, [r3, #8]
 8006170:	f423 52e0 	bic.w	r2, r3, #7168	; 0x1c00
 8006174:	687b      	ldr	r3, [r7, #4]
 8006176:	68db      	ldr	r3, [r3, #12]
 8006178:	4916      	ldr	r1, [pc, #88]	; (80061d4 <HAL_RCC_ClockConfig+0x1bc>)
 800617a:	4313      	orrs	r3, r2
 800617c:	608b      	str	r3, [r1, #8]
  }

  /*-------------------------- PCLK2 Configuration ---------------------------*/
  if(((RCC_ClkInitStruct->ClockType) & RCC_CLOCKTYPE_PCLK2) == RCC_CLOCKTYPE_PCLK2)
 800617e:	687b      	ldr	r3, [r7, #4]
 8006180:	681b      	ldr	r3, [r3, #0]
 8006182:	f003 0308 	and.w	r3, r3, #8
 8006186:	2b00      	cmp	r3, #0
 8006188:	d009      	beq.n	800619e <HAL_RCC_ClockConfig+0x186>
  {
    assert_param(IS_RCC_PCLK(RCC_ClkInitStruct->APB2CLKDivider));
    MODIFY_REG(RCC->CFGR, RCC_CFGR_PPRE2, ((RCC_ClkInitStruct->APB2CLKDivider) << 3U));
 800618a:	4b12      	ldr	r3, [pc, #72]	; (80061d4 <HAL_RCC_ClockConfig+0x1bc>)
 800618c:	689b      	ldr	r3, [r3, #8]
 800618e:	f423 4260 	bic.w	r2, r3, #57344	; 0xe000
 8006192:	687b      	ldr	r3, [r7, #4]
 8006194:	691b      	ldr	r3, [r3, #16]
 8006196:	00db      	lsls	r3, r3, #3
 8006198:	490e      	ldr	r1, [pc, #56]	; (80061d4 <HAL_RCC_ClockConfig+0x1bc>)
 800619a:	4313      	orrs	r3, r2
 800619c:	608b      	str	r3, [r1, #8]
  }

  /* Update the SystemCoreClock global variable */
  SystemCoreClock = HAL_RCC_GetSysClockFreq() >> AHBPrescTable[(RCC->CFGR & RCC_CFGR_HPRE)>> RCC_CFGR_HPRE_Pos];
 800619e:	f000 f821 	bl	80061e4 <HAL_RCC_GetSysClockFreq>
 80061a2:	4602      	mov	r2, r0
 80061a4:	4b0b      	ldr	r3, [pc, #44]	; (80061d4 <HAL_RCC_ClockConfig+0x1bc>)
 80061a6:	689b      	ldr	r3, [r3, #8]
 80061a8:	091b      	lsrs	r3, r3, #4
 80061aa:	f003 030f 	and.w	r3, r3, #15
 80061ae:	490a      	ldr	r1, [pc, #40]	; (80061d8 <HAL_RCC_ClockConfig+0x1c0>)
 80061b0:	5ccb      	ldrb	r3, [r1, r3]
 80061b2:	fa22 f303 	lsr.w	r3, r2, r3
 80061b6:	4a09      	ldr	r2, [pc, #36]	; (80061dc <HAL_RCC_ClockConfig+0x1c4>)
 80061b8:	6013      	str	r3, [r2, #0]

  /* Configure the source of time base considering new system clocks settings */
  HAL_InitTick (uwTickPrio);
 80061ba:	4b09      	ldr	r3, [pc, #36]	; (80061e0 <HAL_RCC_ClockConfig+0x1c8>)
 80061bc:	681b      	ldr	r3, [r3, #0]
 80061be:	4618      	mov	r0, r3
 80061c0:	f7fc fe54 	bl	8002e6c <HAL_InitTick>

  return HAL_OK;
 80061c4:	2300      	movs	r3, #0
}
 80061c6:	4618      	mov	r0, r3
 80061c8:	3710      	adds	r7, #16
 80061ca:	46bd      	mov	sp, r7
 80061cc:	bd80      	pop	{r7, pc}
 80061ce:	bf00      	nop
 80061d0:	40023c00 	.word	0x40023c00
 80061d4:	40023800 	.word	0x40023800
 80061d8:	0800939c 	.word	0x0800939c
 80061dc:	2000001c 	.word	0x2000001c
 80061e0:	20000020 	.word	0x20000020

080061e4 <HAL_RCC_GetSysClockFreq>:
  *
  *
  * @retval SYSCLK frequency
  */
__weak uint32_t HAL_RCC_GetSysClockFreq(void)
{
 80061e4:	e92d 4fb0 	stmdb	sp!, {r4, r5, r7, r8, r9, sl, fp, lr}
 80061e8:	b090      	sub	sp, #64	; 0x40
 80061ea:	af00      	add	r7, sp, #0
  uint32_t pllm = 0U, pllvco = 0U, pllp = 0U;
 80061ec:	2300      	movs	r3, #0
 80061ee:	637b      	str	r3, [r7, #52]	; 0x34
 80061f0:	2300      	movs	r3, #0
 80061f2:	63fb      	str	r3, [r7, #60]	; 0x3c
 80061f4:	2300      	movs	r3, #0
 80061f6:	633b      	str	r3, [r7, #48]	; 0x30
  uint32_t sysclockfreq = 0U;
 80061f8:	2300      	movs	r3, #0
 80061fa:	63bb      	str	r3, [r7, #56]	; 0x38

  /* Get SYSCLK source -------------------------------------------------------*/
  switch (RCC->CFGR & RCC_CFGR_SWS)
 80061fc:	4b59      	ldr	r3, [pc, #356]	; (8006364 <HAL_RCC_GetSysClockFreq+0x180>)
 80061fe:	689b      	ldr	r3, [r3, #8]
 8006200:	f003 030c 	and.w	r3, r3, #12
 8006204:	2b08      	cmp	r3, #8
 8006206:	d00d      	beq.n	8006224 <HAL_RCC_GetSysClockFreq+0x40>
 8006208:	2b08      	cmp	r3, #8
 800620a:	f200 80a1 	bhi.w	8006350 <HAL_RCC_GetSysClockFreq+0x16c>
 800620e:	2b00      	cmp	r3, #0
 8006210:	d002      	beq.n	8006218 <HAL_RCC_GetSysClockFreq+0x34>
 8006212:	2b04      	cmp	r3, #4
 8006214:	d003      	beq.n	800621e <HAL_RCC_GetSysClockFreq+0x3a>
 8006216:	e09b      	b.n	8006350 <HAL_RCC_GetSysClockFreq+0x16c>
  {
    case RCC_CFGR_SWS_HSI:  /* HSI used as system clock source */
    {
      sysclockfreq = HSI_VALUE;
 8006218:	4b53      	ldr	r3, [pc, #332]	; (8006368 <HAL_RCC_GetSysClockFreq+0x184>)
 800621a:	63bb      	str	r3, [r7, #56]	; 0x38
       break;
 800621c:	e09b      	b.n	8006356 <HAL_RCC_GetSysClockFreq+0x172>
    }
    case RCC_CFGR_SWS_HSE:  /* HSE used as system clock  source */
    {
      sysclockfreq = HSE_VALUE;
 800621e:	4b53      	ldr	r3, [pc, #332]	; (800636c <HAL_RCC_GetSysClockFreq+0x188>)
 8006220:	63bb      	str	r3, [r7, #56]	; 0x38
      break;
 8006222:	e098      	b.n	8006356 <HAL_RCC_GetSysClockFreq+0x172>
    }
    case RCC_CFGR_SWS_PLL:  /* PLL used as system clock  source */
    {
      /* PLL_VCO = (HSE_VALUE or HSI_VALUE / PLLM) * PLLN
      SYSCLK = PLL_VCO / PLLP */
      pllm = RCC->PLLCFGR & RCC_PLLCFGR_PLLM;
 8006224:	4b4f      	ldr	r3, [pc, #316]	; (8006364 <HAL_RCC_GetSysClockFreq+0x180>)
 8006226:	685b      	ldr	r3, [r3, #4]
 8006228:	f003 033f 	and.w	r3, r3, #63	; 0x3f
 800622c:	637b      	str	r3, [r7, #52]	; 0x34
      if(__HAL_RCC_GET_PLL_OSCSOURCE() != RCC_PLLSOURCE_HSI)
 800622e:	4b4d      	ldr	r3, [pc, #308]	; (8006364 <HAL_RCC_GetSysClockFreq+0x180>)
 8006230:	685b      	ldr	r3, [r3, #4]
 8006232:	f403 0380 	and.w	r3, r3, #4194304	; 0x400000
 8006236:	2b00      	cmp	r3, #0
 8006238:	d028      	beq.n	800628c <HAL_RCC_GetSysClockFreq+0xa8>
      {
        /* HSE used as PLL clock source */
        pllvco = (uint32_t) ((((uint64_t) HSE_VALUE * ((uint64_t) ((RCC->PLLCFGR & RCC_PLLCFGR_PLLN) >> RCC_PLLCFGR_PLLN_Pos)))) / (uint64_t)pllm);
 800623a:	4b4a      	ldr	r3, [pc, #296]	; (8006364 <HAL_RCC_GetSysClockFreq+0x180>)
 800623c:	685b      	ldr	r3, [r3, #4]
 800623e:	099b      	lsrs	r3, r3, #6
 8006240:	2200      	movs	r2, #0
 8006242:	623b      	str	r3, [r7, #32]
 8006244:	627a      	str	r2, [r7, #36]	; 0x24
 8006246:	6a3b      	ldr	r3, [r7, #32]
 8006248:	f3c3 0008 	ubfx	r0, r3, #0, #9
 800624c:	2100      	movs	r1, #0
 800624e:	4b47      	ldr	r3, [pc, #284]	; (800636c <HAL_RCC_GetSysClockFreq+0x188>)
 8006250:	fb03 f201 	mul.w	r2, r3, r1
 8006254:	2300      	movs	r3, #0
 8006256:	fb00 f303 	mul.w	r3, r0, r3
 800625a:	4413      	add	r3, r2
 800625c:	4a43      	ldr	r2, [pc, #268]	; (800636c <HAL_RCC_GetSysClockFreq+0x188>)
 800625e:	fba0 1202 	umull	r1, r2, r0, r2
 8006262:	62fa      	str	r2, [r7, #44]	; 0x2c
 8006264:	460a      	mov	r2, r1
 8006266:	62ba      	str	r2, [r7, #40]	; 0x28
 8006268:	6afa      	ldr	r2, [r7, #44]	; 0x2c
 800626a:	4413      	add	r3, r2
 800626c:	62fb      	str	r3, [r7, #44]	; 0x2c
 800626e:	6b7b      	ldr	r3, [r7, #52]	; 0x34
 8006270:	2200      	movs	r2, #0
 8006272:	61bb      	str	r3, [r7, #24]
 8006274:	61fa      	str	r2, [r7, #28]
 8006276:	e9d7 2306 	ldrd	r2, r3, [r7, #24]
 800627a:	e9d7 010a 	ldrd	r0, r1, [r7, #40]	; 0x28
 800627e:	f7f9 ffbd 	bl	80001fc <__aeabi_uldivmod>
 8006282:	4602      	mov	r2, r0
 8006284:	460b      	mov	r3, r1
 8006286:	4613      	mov	r3, r2
 8006288:	63fb      	str	r3, [r7, #60]	; 0x3c
 800628a:	e053      	b.n	8006334 <HAL_RCC_GetSysClockFreq+0x150>
      }
      else
      {
        /* HSI used as PLL clock source */
        pllvco = (uint32_t) ((((uint64_t) HSI_VALUE * ((uint64_t) ((RCC->PLLCFGR & RCC_PLLCFGR_PLLN) >> RCC_PLLCFGR_PLLN_Pos)))) / (uint64_t)pllm);
 800628c:	4b35      	ldr	r3, [pc, #212]	; (8006364 <HAL_RCC_GetSysClockFreq+0x180>)
 800628e:	685b      	ldr	r3, [r3, #4]
 8006290:	099b      	lsrs	r3, r3, #6
 8006292:	2200      	movs	r2, #0
 8006294:	613b      	str	r3, [r7, #16]
 8006296:	617a      	str	r2, [r7, #20]
 8006298:	693b      	ldr	r3, [r7, #16]
 800629a:	f3c3 0a08 	ubfx	sl, r3, #0, #9
 800629e:	f04f 0b00 	mov.w	fp, #0
 80062a2:	4652      	mov	r2, sl
 80062a4:	465b      	mov	r3, fp
 80062a6:	f04f 0000 	mov.w	r0, #0
 80062aa:	f04f 0100 	mov.w	r1, #0
 80062ae:	0159      	lsls	r1, r3, #5
 80062b0:	ea41 61d2 	orr.w	r1, r1, r2, lsr #27
 80062b4:	0150      	lsls	r0, r2, #5
 80062b6:	4602      	mov	r2, r0
 80062b8:	460b      	mov	r3, r1
 80062ba:	ebb2 080a 	subs.w	r8, r2, sl
 80062be:	eb63 090b 	sbc.w	r9, r3, fp
 80062c2:	f04f 0200 	mov.w	r2, #0
 80062c6:	f04f 0300 	mov.w	r3, #0
 80062ca:	ea4f 1389 	mov.w	r3, r9, lsl #6
 80062ce:	ea43 6398 	orr.w	r3, r3, r8, lsr #26
 80062d2:	ea4f 1288 	mov.w	r2, r8, lsl #6
 80062d6:	ebb2 0408 	subs.w	r4, r2, r8
 80062da:	eb63 0509 	sbc.w	r5, r3, r9
 80062de:	f04f 0200 	mov.w	r2, #0
 80062e2:	f04f 0300 	mov.w	r3, #0
 80062e6:	00eb      	lsls	r3, r5, #3
 80062e8:	ea43 7354 	orr.w	r3, r3, r4, lsr #29
 80062ec:	00e2      	lsls	r2, r4, #3
 80062ee:	4614      	mov	r4, r2
 80062f0:	461d      	mov	r5, r3
 80062f2:	eb14 030a 	adds.w	r3, r4, sl
 80062f6:	603b      	str	r3, [r7, #0]
 80062f8:	eb45 030b 	adc.w	r3, r5, fp
 80062fc:	607b      	str	r3, [r7, #4]
 80062fe:	f04f 0200 	mov.w	r2, #0
 8006302:	f04f 0300 	mov.w	r3, #0
 8006306:	e9d7 4500 	ldrd	r4, r5, [r7]
 800630a:	4629      	mov	r1, r5
 800630c:	028b      	lsls	r3, r1, #10
 800630e:	4621      	mov	r1, r4
 8006310:	ea43 5391 	orr.w	r3, r3, r1, lsr #22
 8006314:	4621      	mov	r1, r4
 8006316:	028a      	lsls	r2, r1, #10
 8006318:	4610      	mov	r0, r2
 800631a:	4619      	mov	r1, r3
 800631c:	6b7b      	ldr	r3, [r7, #52]	; 0x34
 800631e:	2200      	movs	r2, #0
 8006320:	60bb      	str	r3, [r7, #8]
 8006322:	60fa      	str	r2, [r7, #12]
 8006324:	e9d7 2302 	ldrd	r2, r3, [r7, #8]
 8006328:	f7f9 ff68 	bl	80001fc <__aeabi_uldivmod>
 800632c:	4602      	mov	r2, r0
 800632e:	460b      	mov	r3, r1
 8006330:	4613      	mov	r3, r2
 8006332:	63fb      	str	r3, [r7, #60]	; 0x3c
      }
      pllp = ((((RCC->PLLCFGR & RCC_PLLCFGR_PLLP) >> RCC_PLLCFGR_PLLP_Pos) + 1U) *2U);
 8006334:	4b0b      	ldr	r3, [pc, #44]	; (8006364 <HAL_RCC_GetSysClockFreq+0x180>)
 8006336:	685b      	ldr	r3, [r3, #4]
 8006338:	0c1b      	lsrs	r3, r3, #16
 800633a:	f003 0303 	and.w	r3, r3, #3
 800633e:	3301      	adds	r3, #1
 8006340:	005b      	lsls	r3, r3, #1
 8006342:	633b      	str	r3, [r7, #48]	; 0x30

      sysclockfreq = pllvco/pllp;
 8006344:	6bfa      	ldr	r2, [r7, #60]	; 0x3c
 8006346:	6b3b      	ldr	r3, [r7, #48]	; 0x30
 8006348:	fbb2 f3f3 	udiv	r3, r2, r3
 800634c:	63bb      	str	r3, [r7, #56]	; 0x38
      break;
 800634e:	e002      	b.n	8006356 <HAL_RCC_GetSysClockFreq+0x172>
    }
    default:
    {
      sysclockfreq = HSI_VALUE;
 8006350:	4b05      	ldr	r3, [pc, #20]	; (8006368 <HAL_RCC_GetSysClockFreq+0x184>)
 8006352:	63bb      	str	r3, [r7, #56]	; 0x38
      break;
 8006354:	bf00      	nop
    }
  }
  return sysclockfreq;
 8006356:	6bbb      	ldr	r3, [r7, #56]	; 0x38
}
 8006358:	4618      	mov	r0, r3
 800635a:	3740      	adds	r7, #64	; 0x40
 800635c:	46bd      	mov	sp, r7
 800635e:	e8bd 8fb0 	ldmia.w	sp!, {r4, r5, r7, r8, r9, sl, fp, pc}
 8006362:	bf00      	nop
 8006364:	40023800 	.word	0x40023800
 8006368:	00f42400 	.word	0x00f42400
 800636c:	017d7840 	.word	0x017d7840

08006370 <HAL_RCC_GetHCLKFreq>:
  * @note   The SystemCoreClock CMSIS variable is used to store System Clock Frequency
  *         and updated within this function
  * @retval HCLK frequency
  */
uint32_t HAL_RCC_GetHCLKFreq(void)
{
 8006370:	b480      	push	{r7}
 8006372:	af00      	add	r7, sp, #0
  return SystemCoreClock;
 8006374:	4b03      	ldr	r3, [pc, #12]	; (8006384 <HAL_RCC_GetHCLKFreq+0x14>)
 8006376:	681b      	ldr	r3, [r3, #0]
}
 8006378:	4618      	mov	r0, r3
 800637a:	46bd      	mov	sp, r7
 800637c:	f85d 7b04 	ldr.w	r7, [sp], #4
 8006380:	4770      	bx	lr
 8006382:	bf00      	nop
 8006384:	2000001c 	.word	0x2000001c

08006388 <HAL_RCC_GetPCLK1Freq>:
  * @note   Each time PCLK1 changes, this function must be called to update the
  *         right PCLK1 value. Otherwise, any configuration based on this function will be incorrect.
  * @retval PCLK1 frequency
  */
uint32_t HAL_RCC_GetPCLK1Freq(void)
{
 8006388:	b580      	push	{r7, lr}
 800638a:	af00      	add	r7, sp, #0
  /* Get HCLK source and Compute PCLK1 frequency ---------------------------*/
  return (HAL_RCC_GetHCLKFreq() >> APBPrescTable[(RCC->CFGR & RCC_CFGR_PPRE1)>> RCC_CFGR_PPRE1_Pos]);
 800638c:	f7ff fff0 	bl	8006370 <HAL_RCC_GetHCLKFreq>
 8006390:	4602      	mov	r2, r0
 8006392:	4b05      	ldr	r3, [pc, #20]	; (80063a8 <HAL_RCC_GetPCLK1Freq+0x20>)
 8006394:	689b      	ldr	r3, [r3, #8]
 8006396:	0a9b      	lsrs	r3, r3, #10
 8006398:	f003 0307 	and.w	r3, r3, #7
 800639c:	4903      	ldr	r1, [pc, #12]	; (80063ac <HAL_RCC_GetPCLK1Freq+0x24>)
 800639e:	5ccb      	ldrb	r3, [r1, r3]
 80063a0:	fa22 f303 	lsr.w	r3, r2, r3
}
 80063a4:	4618      	mov	r0, r3
 80063a6:	bd80      	pop	{r7, pc}
 80063a8:	40023800 	.word	0x40023800
 80063ac:	080093ac 	.word	0x080093ac

080063b0 <HAL_RCC_GetPCLK2Freq>:
  * @note   Each time PCLK2 changes, this function must be called to update the
  *         right PCLK2 value. Otherwise, any configuration based on this function will be incorrect.
  * @retval PCLK2 frequency
  */
uint32_t HAL_RCC_GetPCLK2Freq(void)
{
 80063b0:	b580      	push	{r7, lr}
 80063b2:	af00      	add	r7, sp, #0
  /* Get HCLK source and Compute PCLK2 frequency ---------------------------*/
  return (HAL_RCC_GetHCLKFreq()>> APBPrescTable[(RCC->CFGR & RCC_CFGR_PPRE2)>> RCC_CFGR_PPRE2_Pos]);
 80063b4:	f7ff ffdc 	bl	8006370 <HAL_RCC_GetHCLKFreq>
 80063b8:	4602      	mov	r2, r0
 80063ba:	4b05      	ldr	r3, [pc, #20]	; (80063d0 <HAL_RCC_GetPCLK2Freq+0x20>)
 80063bc:	689b      	ldr	r3, [r3, #8]
 80063be:	0b5b      	lsrs	r3, r3, #13
 80063c0:	f003 0307 	and.w	r3, r3, #7
 80063c4:	4903      	ldr	r1, [pc, #12]	; (80063d4 <HAL_RCC_GetPCLK2Freq+0x24>)
 80063c6:	5ccb      	ldrb	r3, [r1, r3]
 80063c8:	fa22 f303 	lsr.w	r3, r2, r3
}
 80063cc:	4618      	mov	r0, r3
 80063ce:	bd80      	pop	{r7, pc}
 80063d0:	40023800 	.word	0x40023800
 80063d4:	080093ac 	.word	0x080093ac

080063d8 <HAL_RCCEx_PeriphCLKConfig>:
  *         the backup registers) and RCC_BDCR register are set to their reset values.
  *
  * @retval HAL status
  */
HAL_StatusTypeDef HAL_RCCEx_PeriphCLKConfig(RCC_PeriphCLKInitTypeDef  *PeriphClkInit)
{
 80063d8:	b580      	push	{r7, lr}
 80063da:	b086      	sub	sp, #24
 80063dc:	af00      	add	r7, sp, #0
 80063de:	6078      	str	r0, [r7, #4]
  uint32_t tickstart = 0U;
 80063e0:	2300      	movs	r3, #0
 80063e2:	617b      	str	r3, [r7, #20]
  uint32_t tmpreg1 = 0U;
 80063e4:	2300      	movs	r3, #0
 80063e6:	613b      	str	r3, [r7, #16]

  /*----------------------- SAI/I2S Configuration (PLLI2S) -------------------*/
  /*----------------------- Common configuration SAI/I2S ---------------------*/
  /* In Case of SAI or I2S Clock Configuration through PLLI2S, PLLI2SN division
     factor is common parameters for both peripherals */
  if((((PeriphClkInit->PeriphClockSelection) & RCC_PERIPHCLK_I2S) == RCC_PERIPHCLK_I2S) ||
 80063e8:	687b      	ldr	r3, [r7, #4]
 80063ea:	681b      	ldr	r3, [r3, #0]
 80063ec:	f003 0301 	and.w	r3, r3, #1
 80063f0:	2b00      	cmp	r3, #0
 80063f2:	d10b      	bne.n	800640c <HAL_RCCEx_PeriphCLKConfig+0x34>
     (((PeriphClkInit->PeriphClockSelection) & RCC_PERIPHCLK_SAI_PLLI2S) == RCC_PERIPHCLK_SAI_PLLI2S) ||
 80063f4:	687b      	ldr	r3, [r7, #4]
 80063f6:	681b      	ldr	r3, [r3, #0]
 80063f8:	f003 0302 	and.w	r3, r3, #2
  if((((PeriphClkInit->PeriphClockSelection) & RCC_PERIPHCLK_I2S) == RCC_PERIPHCLK_I2S) ||
 80063fc:	2b00      	cmp	r3, #0
 80063fe:	d105      	bne.n	800640c <HAL_RCCEx_PeriphCLKConfig+0x34>
     (((PeriphClkInit->PeriphClockSelection) & RCC_PERIPHCLK_PLLI2S) == RCC_PERIPHCLK_PLLI2S))
 8006400:	687b      	ldr	r3, [r7, #4]
 8006402:	681b      	ldr	r3, [r3, #0]
 8006404:	f003 0340 	and.w	r3, r3, #64	; 0x40
     (((PeriphClkInit->PeriphClockSelection) & RCC_PERIPHCLK_SAI_PLLI2S) == RCC_PERIPHCLK_SAI_PLLI2S) ||
 8006408:	2b00      	cmp	r3, #0
 800640a:	d075      	beq.n	80064f8 <HAL_RCCEx_PeriphCLKConfig+0x120>
  {
    /* check for Parameters */
    assert_param(IS_RCC_PLLI2SN_VALUE(PeriphClkInit->PLLI2S.PLLI2SN));

    /* Disable the PLLI2S */
    __HAL_RCC_PLLI2S_DISABLE();
 800640c:	4b91      	ldr	r3, [pc, #580]	; (8006654 <HAL_RCCEx_PeriphCLKConfig+0x27c>)
 800640e:	2200      	movs	r2, #0
 8006410:	601a      	str	r2, [r3, #0]
    /* Get tick */
    tickstart = HAL_GetTick();
 8006412:	f7fc fd6f 	bl	8002ef4 <HAL_GetTick>
 8006416:	6178      	str	r0, [r7, #20]
    /* Wait till PLLI2S is disabled */
    while(__HAL_RCC_GET_FLAG(RCC_FLAG_PLLI2SRDY)  != RESET)
 8006418:	e008      	b.n	800642c <HAL_RCCEx_PeriphCLKConfig+0x54>
    {
      if((HAL_GetTick() - tickstart ) > PLLI2S_TIMEOUT_VALUE)
 800641a:	f7fc fd6b 	bl	8002ef4 <HAL_GetTick>
 800641e:	4602      	mov	r2, r0
 8006420:	697b      	ldr	r3, [r7, #20]
 8006422:	1ad3      	subs	r3, r2, r3
 8006424:	2b02      	cmp	r3, #2
 8006426:	d901      	bls.n	800642c <HAL_RCCEx_PeriphCLKConfig+0x54>
      {
        /* return in case of Timeout detected */
        return HAL_TIMEOUT;
 8006428:	2303      	movs	r3, #3
 800642a:	e189      	b.n	8006740 <HAL_RCCEx_PeriphCLKConfig+0x368>
    while(__HAL_RCC_GET_FLAG(RCC_FLAG_PLLI2SRDY)  != RESET)
 800642c:	4b8a      	ldr	r3, [pc, #552]	; (8006658 <HAL_RCCEx_PeriphCLKConfig+0x280>)
 800642e:	681b      	ldr	r3, [r3, #0]
 8006430:	f003 6300 	and.w	r3, r3, #134217728	; 0x8000000
 8006434:	2b00      	cmp	r3, #0
 8006436:	d1f0      	bne.n	800641a <HAL_RCCEx_PeriphCLKConfig+0x42>
    }

    /*---------------------------- I2S configuration -------------------------*/
    /* In Case of I2S Clock Configuration through PLLI2S, PLLI2SR must be added
      only for I2S configuration */
    if(((PeriphClkInit->PeriphClockSelection) & RCC_PERIPHCLK_I2S) == (RCC_PERIPHCLK_I2S))
 8006438:	687b      	ldr	r3, [r7, #4]
 800643a:	681b      	ldr	r3, [r3, #0]
 800643c:	f003 0301 	and.w	r3, r3, #1
 8006440:	2b00      	cmp	r3, #0
 8006442:	d009      	beq.n	8006458 <HAL_RCCEx_PeriphCLKConfig+0x80>
      /* check for Parameters */
      assert_param(IS_RCC_PLLI2SR_VALUE(PeriphClkInit->PLLI2S.PLLI2SR));
      /* Configure the PLLI2S division factors */
      /* PLLI2S_VCO = f(VCO clock) = f(PLLI2S clock input) * (PLLI2SN/PLLM) */
      /* I2SCLK = f(PLLI2S clock output) = f(VCO clock) / PLLI2SR */
      __HAL_RCC_PLLI2S_CONFIG(PeriphClkInit->PLLI2S.PLLI2SN , PeriphClkInit->PLLI2S.PLLI2SR);
 8006444:	687b      	ldr	r3, [r7, #4]
 8006446:	685b      	ldr	r3, [r3, #4]
 8006448:	019a      	lsls	r2, r3, #6
 800644a:	687b      	ldr	r3, [r7, #4]
 800644c:	689b      	ldr	r3, [r3, #8]
 800644e:	071b      	lsls	r3, r3, #28
 8006450:	4981      	ldr	r1, [pc, #516]	; (8006658 <HAL_RCCEx_PeriphCLKConfig+0x280>)
 8006452:	4313      	orrs	r3, r2
 8006454:	f8c1 3084 	str.w	r3, [r1, #132]	; 0x84
    }

    /*---------------------------- SAI configuration -------------------------*/
    /* In Case of SAI Clock Configuration through PLLI2S, PLLI2SQ and PLLI2S_DIVQ must
       be added only for SAI configuration */
    if(((PeriphClkInit->PeriphClockSelection) & RCC_PERIPHCLK_SAI_PLLI2S) == (RCC_PERIPHCLK_SAI_PLLI2S))
 8006458:	687b      	ldr	r3, [r7, #4]
 800645a:	681b      	ldr	r3, [r3, #0]
 800645c:	f003 0302 	and.w	r3, r3, #2
 8006460:	2b00      	cmp	r3, #0
 8006462:	d01f      	beq.n	80064a4 <HAL_RCCEx_PeriphCLKConfig+0xcc>
      /* Check the PLLI2S division factors */
      assert_param(IS_RCC_PLLI2SQ_VALUE(PeriphClkInit->PLLI2S.PLLI2SQ));
      assert_param(IS_RCC_PLLI2S_DIVQ_VALUE(PeriphClkInit->PLLI2SDivQ));

      /* Read PLLI2SR value from PLLI2SCFGR register (this value is not need for SAI configuration) */
      tmpreg1 = ((RCC->PLLI2SCFGR & RCC_PLLI2SCFGR_PLLI2SR) >> RCC_PLLI2SCFGR_PLLI2SR_Pos);
 8006464:	4b7c      	ldr	r3, [pc, #496]	; (8006658 <HAL_RCCEx_PeriphCLKConfig+0x280>)
 8006466:	f8d3 3084 	ldr.w	r3, [r3, #132]	; 0x84
 800646a:	0f1b      	lsrs	r3, r3, #28
 800646c:	f003 0307 	and.w	r3, r3, #7
 8006470:	613b      	str	r3, [r7, #16]
      /* Configure the PLLI2S division factors */
      /* PLLI2S_VCO Input  = PLL_SOURCE/PLLM */
      /* PLLI2S_VCO Output = PLLI2S_VCO Input * PLLI2SN */
      /* SAI_CLK(first level) = PLLI2S_VCO Output/PLLI2SQ */
      __HAL_RCC_PLLI2S_SAICLK_CONFIG(PeriphClkInit->PLLI2S.PLLI2SN , PeriphClkInit->PLLI2S.PLLI2SQ , tmpreg1);
 8006472:	687b      	ldr	r3, [r7, #4]
 8006474:	685b      	ldr	r3, [r3, #4]
 8006476:	019a      	lsls	r2, r3, #6
 8006478:	687b      	ldr	r3, [r7, #4]
 800647a:	68db      	ldr	r3, [r3, #12]
 800647c:	061b      	lsls	r3, r3, #24
 800647e:	431a      	orrs	r2, r3
 8006480:	693b      	ldr	r3, [r7, #16]
 8006482:	071b      	lsls	r3, r3, #28
 8006484:	4974      	ldr	r1, [pc, #464]	; (8006658 <HAL_RCCEx_PeriphCLKConfig+0x280>)
 8006486:	4313      	orrs	r3, r2
 8006488:	f8c1 3084 	str.w	r3, [r1, #132]	; 0x84
      /* SAI_CLK_x = SAI_CLK(first level)/PLLI2SDIVQ */
      __HAL_RCC_PLLI2S_PLLSAICLKDIVQ_CONFIG(PeriphClkInit->PLLI2SDivQ);
 800648c:	4b72      	ldr	r3, [pc, #456]	; (8006658 <HAL_RCCEx_PeriphCLKConfig+0x280>)
 800648e:	f8d3 308c 	ldr.w	r3, [r3, #140]	; 0x8c
 8006492:	f023 021f 	bic.w	r2, r3, #31
 8006496:	687b      	ldr	r3, [r7, #4]
 8006498:	69db      	ldr	r3, [r3, #28]
 800649a:	3b01      	subs	r3, #1
 800649c:	496e      	ldr	r1, [pc, #440]	; (8006658 <HAL_RCCEx_PeriphCLKConfig+0x280>)
 800649e:	4313      	orrs	r3, r2
 80064a0:	f8c1 308c 	str.w	r3, [r1, #140]	; 0x8c
    }

    /*----------------- In Case of PLLI2S is just selected  -----------------*/
    if((PeriphClkInit->PeriphClockSelection & RCC_PERIPHCLK_PLLI2S) == RCC_PERIPHCLK_PLLI2S)
 80064a4:	687b      	ldr	r3, [r7, #4]
 80064a6:	681b      	ldr	r3, [r3, #0]
 80064a8:	f003 0340 	and.w	r3, r3, #64	; 0x40
 80064ac:	2b00      	cmp	r3, #0
 80064ae:	d00d      	beq.n	80064cc <HAL_RCCEx_PeriphCLKConfig+0xf4>
      /* Check for Parameters */
      assert_param(IS_RCC_PLLI2SQ_VALUE(PeriphClkInit->PLLI2S.PLLI2SQ));
      assert_param(IS_RCC_PLLI2SR_VALUE(PeriphClkInit->PLLI2S.PLLI2SR));

      /* Configure the PLLI2S multiplication and division factors */
      __HAL_RCC_PLLI2S_SAICLK_CONFIG(PeriphClkInit->PLLI2S.PLLI2SN, PeriphClkInit->PLLI2S.PLLI2SQ, PeriphClkInit->PLLI2S.PLLI2SR);
 80064b0:	687b      	ldr	r3, [r7, #4]
 80064b2:	685b      	ldr	r3, [r3, #4]
 80064b4:	019a      	lsls	r2, r3, #6
 80064b6:	687b      	ldr	r3, [r7, #4]
 80064b8:	68db      	ldr	r3, [r3, #12]
 80064ba:	061b      	lsls	r3, r3, #24
 80064bc:	431a      	orrs	r2, r3
 80064be:	687b      	ldr	r3, [r7, #4]
 80064c0:	689b      	ldr	r3, [r3, #8]
 80064c2:	071b      	lsls	r3, r3, #28
 80064c4:	4964      	ldr	r1, [pc, #400]	; (8006658 <HAL_RCCEx_PeriphCLKConfig+0x280>)
 80064c6:	4313      	orrs	r3, r2
 80064c8:	f8c1 3084 	str.w	r3, [r1, #132]	; 0x84
    }

    /* Enable the PLLI2S */
    __HAL_RCC_PLLI2S_ENABLE();
 80064cc:	4b61      	ldr	r3, [pc, #388]	; (8006654 <HAL_RCCEx_PeriphCLKConfig+0x27c>)
 80064ce:	2201      	movs	r2, #1
 80064d0:	601a      	str	r2, [r3, #0]
    /* Get tick */
    tickstart = HAL_GetTick();
 80064d2:	f7fc fd0f 	bl	8002ef4 <HAL_GetTick>
 80064d6:	6178      	str	r0, [r7, #20]
    /* Wait till PLLI2S is ready */
    while(__HAL_RCC_GET_FLAG(RCC_FLAG_PLLI2SRDY)  == RESET)
 80064d8:	e008      	b.n	80064ec <HAL_RCCEx_PeriphCLKConfig+0x114>
    {
      if((HAL_GetTick() - tickstart ) > PLLI2S_TIMEOUT_VALUE)
 80064da:	f7fc fd0b 	bl	8002ef4 <HAL_GetTick>
 80064de:	4602      	mov	r2, r0
 80064e0:	697b      	ldr	r3, [r7, #20]
 80064e2:	1ad3      	subs	r3, r2, r3
 80064e4:	2b02      	cmp	r3, #2
 80064e6:	d901      	bls.n	80064ec <HAL_RCCEx_PeriphCLKConfig+0x114>
      {
        /* return in case of Timeout detected */
        return HAL_TIMEOUT;
 80064e8:	2303      	movs	r3, #3
 80064ea:	e129      	b.n	8006740 <HAL_RCCEx_PeriphCLKConfig+0x368>
    while(__HAL_RCC_GET_FLAG(RCC_FLAG_PLLI2SRDY)  == RESET)
 80064ec:	4b5a      	ldr	r3, [pc, #360]	; (8006658 <HAL_RCCEx_PeriphCLKConfig+0x280>)
 80064ee:	681b      	ldr	r3, [r3, #0]
 80064f0:	f003 6300 	and.w	r3, r3, #134217728	; 0x8000000
 80064f4:	2b00      	cmp	r3, #0
 80064f6:	d0f0      	beq.n	80064da <HAL_RCCEx_PeriphCLKConfig+0x102>

  /*----------------------- SAI/LTDC Configuration (PLLSAI) ------------------*/
  /*----------------------- Common configuration SAI/LTDC --------------------*/
  /* In Case of SAI or LTDC Clock Configuration through PLLSAI, PLLSAIN division
     factor is common parameters for both peripherals */
  if((((PeriphClkInit->PeriphClockSelection) & RCC_PERIPHCLK_SAI_PLLSAI) == RCC_PERIPHCLK_SAI_PLLSAI) ||
 80064f8:	687b      	ldr	r3, [r7, #4]
 80064fa:	681b      	ldr	r3, [r3, #0]
 80064fc:	f003 0304 	and.w	r3, r3, #4
 8006500:	2b00      	cmp	r3, #0
 8006502:	d105      	bne.n	8006510 <HAL_RCCEx_PeriphCLKConfig+0x138>
     (((PeriphClkInit->PeriphClockSelection) & RCC_PERIPHCLK_LTDC) == RCC_PERIPHCLK_LTDC))
 8006504:	687b      	ldr	r3, [r7, #4]
 8006506:	681b      	ldr	r3, [r3, #0]
 8006508:	f003 0308 	and.w	r3, r3, #8
  if((((PeriphClkInit->PeriphClockSelection) & RCC_PERIPHCLK_SAI_PLLSAI) == RCC_PERIPHCLK_SAI_PLLSAI) ||
 800650c:	2b00      	cmp	r3, #0
 800650e:	d079      	beq.n	8006604 <HAL_RCCEx_PeriphCLKConfig+0x22c>
  {
    /* Check the PLLSAI division factors */
    assert_param(IS_RCC_PLLSAIN_VALUE(PeriphClkInit->PLLSAI.PLLSAIN));

    /* Disable PLLSAI Clock */
    __HAL_RCC_PLLSAI_DISABLE();
 8006510:	4b52      	ldr	r3, [pc, #328]	; (800665c <HAL_RCCEx_PeriphCLKConfig+0x284>)
 8006512:	2200      	movs	r2, #0
 8006514:	601a      	str	r2, [r3, #0]
    /* Get tick */
    tickstart = HAL_GetTick();
 8006516:	f7fc fced 	bl	8002ef4 <HAL_GetTick>
 800651a:	6178      	str	r0, [r7, #20]
    /* Wait till PLLSAI is disabled */
    while(__HAL_RCC_PLLSAI_GET_FLAG() != RESET)
 800651c:	e008      	b.n	8006530 <HAL_RCCEx_PeriphCLKConfig+0x158>
    {
      if((HAL_GetTick() - tickstart ) > PLLSAI_TIMEOUT_VALUE)
 800651e:	f7fc fce9 	bl	8002ef4 <HAL_GetTick>
 8006522:	4602      	mov	r2, r0
 8006524:	697b      	ldr	r3, [r7, #20]
 8006526:	1ad3      	subs	r3, r2, r3
 8006528:	2b02      	cmp	r3, #2
 800652a:	d901      	bls.n	8006530 <HAL_RCCEx_PeriphCLKConfig+0x158>
      {
        /* return in case of Timeout detected */
        return HAL_TIMEOUT;
 800652c:	2303      	movs	r3, #3
 800652e:	e107      	b.n	8006740 <HAL_RCCEx_PeriphCLKConfig+0x368>
    while(__HAL_RCC_PLLSAI_GET_FLAG() != RESET)
 8006530:	4b49      	ldr	r3, [pc, #292]	; (8006658 <HAL_RCCEx_PeriphCLKConfig+0x280>)
 8006532:	681b      	ldr	r3, [r3, #0]
 8006534:	f003 5300 	and.w	r3, r3, #536870912	; 0x20000000
 8006538:	f1b3 5f00 	cmp.w	r3, #536870912	; 0x20000000
 800653c:	d0ef      	beq.n	800651e <HAL_RCCEx_PeriphCLKConfig+0x146>
    }

    /*---------------------------- SAI configuration -------------------------*/
    /* In Case of SAI Clock Configuration through PLLSAI, PLLSAIQ and PLLSAI_DIVQ must
       be added only for SAI configuration */
    if(((PeriphClkInit->PeriphClockSelection) & RCC_PERIPHCLK_SAI_PLLSAI) == (RCC_PERIPHCLK_SAI_PLLSAI))
 800653e:	687b      	ldr	r3, [r7, #4]
 8006540:	681b      	ldr	r3, [r3, #0]
 8006542:	f003 0304 	and.w	r3, r3, #4
 8006546:	2b00      	cmp	r3, #0
 8006548:	d020      	beq.n	800658c <HAL_RCCEx_PeriphCLKConfig+0x1b4>
    {
      assert_param(IS_RCC_PLLSAIQ_VALUE(PeriphClkInit->PLLSAI.PLLSAIQ));
      assert_param(IS_RCC_PLLSAI_DIVQ_VALUE(PeriphClkInit->PLLSAIDivQ));

      /* Read PLLSAIR value from PLLSAICFGR register (this value is not need for SAI configuration) */
      tmpreg1 = ((RCC->PLLSAICFGR & RCC_PLLSAICFGR_PLLSAIR) >> RCC_PLLSAICFGR_PLLSAIR_Pos);
 800654a:	4b43      	ldr	r3, [pc, #268]	; (8006658 <HAL_RCCEx_PeriphCLKConfig+0x280>)
 800654c:	f8d3 3088 	ldr.w	r3, [r3, #136]	; 0x88
 8006550:	0f1b      	lsrs	r3, r3, #28
 8006552:	f003 0307 	and.w	r3, r3, #7
 8006556:	613b      	str	r3, [r7, #16]
      /* PLLSAI_VCO Input  = PLL_SOURCE/PLLM */
      /* PLLSAI_VCO Output = PLLSAI_VCO Input * PLLSAIN */
      /* SAI_CLK(first level) = PLLSAI_VCO Output/PLLSAIQ */
      __HAL_RCC_PLLSAI_CONFIG(PeriphClkInit->PLLSAI.PLLSAIN , PeriphClkInit->PLLSAI.PLLSAIQ, tmpreg1);
 8006558:	687b      	ldr	r3, [r7, #4]
 800655a:	691b      	ldr	r3, [r3, #16]
 800655c:	019a      	lsls	r2, r3, #6
 800655e:	687b      	ldr	r3, [r7, #4]
 8006560:	695b      	ldr	r3, [r3, #20]
 8006562:	061b      	lsls	r3, r3, #24
 8006564:	431a      	orrs	r2, r3
 8006566:	693b      	ldr	r3, [r7, #16]
 8006568:	071b      	lsls	r3, r3, #28
 800656a:	493b      	ldr	r1, [pc, #236]	; (8006658 <HAL_RCCEx_PeriphCLKConfig+0x280>)
 800656c:	4313      	orrs	r3, r2
 800656e:	f8c1 3088 	str.w	r3, [r1, #136]	; 0x88
      /* SAI_CLK_x = SAI_CLK(first level)/PLLSAIDIVQ */
      __HAL_RCC_PLLSAI_PLLSAICLKDIVQ_CONFIG(PeriphClkInit->PLLSAIDivQ);
 8006572:	4b39      	ldr	r3, [pc, #228]	; (8006658 <HAL_RCCEx_PeriphCLKConfig+0x280>)
 8006574:	f8d3 308c 	ldr.w	r3, [r3, #140]	; 0x8c
 8006578:	f423 52f8 	bic.w	r2, r3, #7936	; 0x1f00
 800657c:	687b      	ldr	r3, [r7, #4]
 800657e:	6a1b      	ldr	r3, [r3, #32]
 8006580:	3b01      	subs	r3, #1
 8006582:	021b      	lsls	r3, r3, #8
 8006584:	4934      	ldr	r1, [pc, #208]	; (8006658 <HAL_RCCEx_PeriphCLKConfig+0x280>)
 8006586:	4313      	orrs	r3, r2
 8006588:	f8c1 308c 	str.w	r3, [r1, #140]	; 0x8c
    }

    /*---------------------------- LTDC configuration ------------------------*/
    if(((PeriphClkInit->PeriphClockSelection) & RCC_PERIPHCLK_LTDC) == (RCC_PERIPHCLK_LTDC))
 800658c:	687b      	ldr	r3, [r7, #4]
 800658e:	681b      	ldr	r3, [r3, #0]
 8006590:	f003 0308 	and.w	r3, r3, #8
 8006594:	2b00      	cmp	r3, #0
 8006596:	d01e      	beq.n	80065d6 <HAL_RCCEx_PeriphCLKConfig+0x1fe>
    {
      assert_param(IS_RCC_PLLSAIR_VALUE(PeriphClkInit->PLLSAI.PLLSAIR));
      assert_param(IS_RCC_PLLSAI_DIVR_VALUE(PeriphClkInit->PLLSAIDivR));

      /* Read PLLSAIR value from PLLSAICFGR register (this value is not need for SAI configuration) */
      tmpreg1 = ((RCC->PLLSAICFGR & RCC_PLLSAICFGR_PLLSAIQ) >> RCC_PLLSAICFGR_PLLSAIQ_Pos);
 8006598:	4b2f      	ldr	r3, [pc, #188]	; (8006658 <HAL_RCCEx_PeriphCLKConfig+0x280>)
 800659a:	f8d3 3088 	ldr.w	r3, [r3, #136]	; 0x88
 800659e:	0e1b      	lsrs	r3, r3, #24
 80065a0:	f003 030f 	and.w	r3, r3, #15
 80065a4:	613b      	str	r3, [r7, #16]
      /* PLLSAI_VCO Input  = PLL_SOURCE/PLLM */
      /* PLLSAI_VCO Output = PLLSAI_VCO Input * PLLSAIN */
      /* LTDC_CLK(first level) = PLLSAI_VCO Output/PLLSAIR */
      __HAL_RCC_PLLSAI_CONFIG(PeriphClkInit->PLLSAI.PLLSAIN , tmpreg1, PeriphClkInit->PLLSAI.PLLSAIR);
 80065a6:	687b      	ldr	r3, [r7, #4]
 80065a8:	691b      	ldr	r3, [r3, #16]
 80065aa:	019a      	lsls	r2, r3, #6
 80065ac:	693b      	ldr	r3, [r7, #16]
 80065ae:	061b      	lsls	r3, r3, #24
 80065b0:	431a      	orrs	r2, r3
 80065b2:	687b      	ldr	r3, [r7, #4]
 80065b4:	699b      	ldr	r3, [r3, #24]
 80065b6:	071b      	lsls	r3, r3, #28
 80065b8:	4927      	ldr	r1, [pc, #156]	; (8006658 <HAL_RCCEx_PeriphCLKConfig+0x280>)
 80065ba:	4313      	orrs	r3, r2
 80065bc:	f8c1 3088 	str.w	r3, [r1, #136]	; 0x88
      /* LTDC_CLK = LTDC_CLK(first level)/PLLSAIDIVR */
      __HAL_RCC_PLLSAI_PLLSAICLKDIVR_CONFIG(PeriphClkInit->PLLSAIDivR);
 80065c0:	4b25      	ldr	r3, [pc, #148]	; (8006658 <HAL_RCCEx_PeriphCLKConfig+0x280>)
 80065c2:	f8d3 308c 	ldr.w	r3, [r3, #140]	; 0x8c
 80065c6:	f423 3240 	bic.w	r2, r3, #196608	; 0x30000
 80065ca:	687b      	ldr	r3, [r7, #4]
 80065cc:	6a5b      	ldr	r3, [r3, #36]	; 0x24
 80065ce:	4922      	ldr	r1, [pc, #136]	; (8006658 <HAL_RCCEx_PeriphCLKConfig+0x280>)
 80065d0:	4313      	orrs	r3, r2
 80065d2:	f8c1 308c 	str.w	r3, [r1, #140]	; 0x8c
    }
    /* Enable PLLSAI Clock */
    __HAL_RCC_PLLSAI_ENABLE();
 80065d6:	4b21      	ldr	r3, [pc, #132]	; (800665c <HAL_RCCEx_PeriphCLKConfig+0x284>)
 80065d8:	2201      	movs	r2, #1
 80065da:	601a      	str	r2, [r3, #0]
    /* Get tick */
    tickstart = HAL_GetTick();
 80065dc:	f7fc fc8a 	bl	8002ef4 <HAL_GetTick>
 80065e0:	6178      	str	r0, [r7, #20]
    /* Wait till PLLSAI is ready */
    while(__HAL_RCC_PLLSAI_GET_FLAG() == RESET)
 80065e2:	e008      	b.n	80065f6 <HAL_RCCEx_PeriphCLKConfig+0x21e>
    {
      if((HAL_GetTick() - tickstart ) > PLLSAI_TIMEOUT_VALUE)
 80065e4:	f7fc fc86 	bl	8002ef4 <HAL_GetTick>
 80065e8:	4602      	mov	r2, r0
 80065ea:	697b      	ldr	r3, [r7, #20]
 80065ec:	1ad3      	subs	r3, r2, r3
 80065ee:	2b02      	cmp	r3, #2
 80065f0:	d901      	bls.n	80065f6 <HAL_RCCEx_PeriphCLKConfig+0x21e>
      {
        /* return in case of Timeout detected */
        return HAL_TIMEOUT;
 80065f2:	2303      	movs	r3, #3
 80065f4:	e0a4      	b.n	8006740 <HAL_RCCEx_PeriphCLKConfig+0x368>
    while(__HAL_RCC_PLLSAI_GET_FLAG() == RESET)
 80065f6:	4b18      	ldr	r3, [pc, #96]	; (8006658 <HAL_RCCEx_PeriphCLKConfig+0x280>)
 80065f8:	681b      	ldr	r3, [r3, #0]
 80065fa:	f003 5300 	and.w	r3, r3, #536870912	; 0x20000000
 80065fe:	f1b3 5f00 	cmp.w	r3, #536870912	; 0x20000000
 8006602:	d1ef      	bne.n	80065e4 <HAL_RCCEx_PeriphCLKConfig+0x20c>
    }
  }
  /*--------------------------------------------------------------------------*/

  /*---------------------------- RTC configuration ---------------------------*/
  if(((PeriphClkInit->PeriphClockSelection) & RCC_PERIPHCLK_RTC) == (RCC_PERIPHCLK_RTC))
 8006604:	687b      	ldr	r3, [r7, #4]
 8006606:	681b      	ldr	r3, [r3, #0]
 8006608:	f003 0320 	and.w	r3, r3, #32
 800660c:	2b00      	cmp	r3, #0
 800660e:	f000 808b 	beq.w	8006728 <HAL_RCCEx_PeriphCLKConfig+0x350>
  {
    /* Check for RTC Parameters used to output RTCCLK */
    assert_param(IS_RCC_RTCCLKSOURCE(PeriphClkInit->RTCClockSelection));

    /* Enable Power Clock*/
    __HAL_RCC_PWR_CLK_ENABLE();
 8006612:	2300      	movs	r3, #0
 8006614:	60fb      	str	r3, [r7, #12]
 8006616:	4b10      	ldr	r3, [pc, #64]	; (8006658 <HAL_RCCEx_PeriphCLKConfig+0x280>)
 8006618:	6c1b      	ldr	r3, [r3, #64]	; 0x40
 800661a:	4a0f      	ldr	r2, [pc, #60]	; (8006658 <HAL_RCCEx_PeriphCLKConfig+0x280>)
 800661c:	f043 5380 	orr.w	r3, r3, #268435456	; 0x10000000
 8006620:	6413      	str	r3, [r2, #64]	; 0x40
 8006622:	4b0d      	ldr	r3, [pc, #52]	; (8006658 <HAL_RCCEx_PeriphCLKConfig+0x280>)
 8006624:	6c1b      	ldr	r3, [r3, #64]	; 0x40
 8006626:	f003 5380 	and.w	r3, r3, #268435456	; 0x10000000
 800662a:	60fb      	str	r3, [r7, #12]
 800662c:	68fb      	ldr	r3, [r7, #12]

    /* Enable write access to Backup domain */
    PWR->CR |= PWR_CR_DBP;
 800662e:	4b0c      	ldr	r3, [pc, #48]	; (8006660 <HAL_RCCEx_PeriphCLKConfig+0x288>)
 8006630:	681b      	ldr	r3, [r3, #0]
 8006632:	4a0b      	ldr	r2, [pc, #44]	; (8006660 <HAL_RCCEx_PeriphCLKConfig+0x288>)
 8006634:	f443 7380 	orr.w	r3, r3, #256	; 0x100
 8006638:	6013      	str	r3, [r2, #0]

    /* Get tick */
    tickstart = HAL_GetTick();
 800663a:	f7fc fc5b 	bl	8002ef4 <HAL_GetTick>
 800663e:	6178      	str	r0, [r7, #20]

    while((PWR->CR & PWR_CR_DBP) == RESET)
 8006640:	e010      	b.n	8006664 <HAL_RCCEx_PeriphCLKConfig+0x28c>
    {
      if((HAL_GetTick() - tickstart ) > RCC_DBP_TIMEOUT_VALUE)
 8006642:	f7fc fc57 	bl	8002ef4 <HAL_GetTick>
 8006646:	4602      	mov	r2, r0
 8006648:	697b      	ldr	r3, [r7, #20]
 800664a:	1ad3      	subs	r3, r2, r3
 800664c:	2b02      	cmp	r3, #2
 800664e:	d909      	bls.n	8006664 <HAL_RCCEx_PeriphCLKConfig+0x28c>
      {
        return HAL_TIMEOUT;
 8006650:	2303      	movs	r3, #3
 8006652:	e075      	b.n	8006740 <HAL_RCCEx_PeriphCLKConfig+0x368>
 8006654:	42470068 	.word	0x42470068
 8006658:	40023800 	.word	0x40023800
 800665c:	42470070 	.word	0x42470070
 8006660:	40007000 	.word	0x40007000
    while((PWR->CR & PWR_CR_DBP) == RESET)
 8006664:	4b38      	ldr	r3, [pc, #224]	; (8006748 <HAL_RCCEx_PeriphCLKConfig+0x370>)
 8006666:	681b      	ldr	r3, [r3, #0]
 8006668:	f403 7380 	and.w	r3, r3, #256	; 0x100
 800666c:	2b00      	cmp	r3, #0
 800666e:	d0e8      	beq.n	8006642 <HAL_RCCEx_PeriphCLKConfig+0x26a>
      }
    }
    /* Reset the Backup domain only if the RTC Clock source selection is modified from reset value */
    tmpreg1 = (RCC->BDCR & RCC_BDCR_RTCSEL);
 8006670:	4b36      	ldr	r3, [pc, #216]	; (800674c <HAL_RCCEx_PeriphCLKConfig+0x374>)
 8006672:	6f1b      	ldr	r3, [r3, #112]	; 0x70
 8006674:	f403 7340 	and.w	r3, r3, #768	; 0x300
 8006678:	613b      	str	r3, [r7, #16]
    if((tmpreg1 != 0x00000000U) && ((tmpreg1) != (PeriphClkInit->RTCClockSelection & RCC_BDCR_RTCSEL)))
 800667a:	693b      	ldr	r3, [r7, #16]
 800667c:	2b00      	cmp	r3, #0
 800667e:	d02f      	beq.n	80066e0 <HAL_RCCEx_PeriphCLKConfig+0x308>
 8006680:	687b      	ldr	r3, [r7, #4]
 8006682:	6a9b      	ldr	r3, [r3, #40]	; 0x28
 8006684:	f403 7340 	and.w	r3, r3, #768	; 0x300
 8006688:	693a      	ldr	r2, [r7, #16]
 800668a:	429a      	cmp	r2, r3
 800668c:	d028      	beq.n	80066e0 <HAL_RCCEx_PeriphCLKConfig+0x308>
    {
      /* Store the content of BDCR register before the reset of Backup Domain */
      tmpreg1 = (RCC->BDCR & ~(RCC_BDCR_RTCSEL));
 800668e:	4b2f      	ldr	r3, [pc, #188]	; (800674c <HAL_RCCEx_PeriphCLKConfig+0x374>)
 8006690:	6f1b      	ldr	r3, [r3, #112]	; 0x70
 8006692:	f423 7340 	bic.w	r3, r3, #768	; 0x300
 8006696:	613b      	str	r3, [r7, #16]
      /* RTC Clock selection can be changed only if the Backup Domain is reset */
      __HAL_RCC_BACKUPRESET_FORCE();
 8006698:	4b2d      	ldr	r3, [pc, #180]	; (8006750 <HAL_RCCEx_PeriphCLKConfig+0x378>)
 800669a:	2201      	movs	r2, #1
 800669c:	601a      	str	r2, [r3, #0]
      __HAL_RCC_BACKUPRESET_RELEASE();
 800669e:	4b2c      	ldr	r3, [pc, #176]	; (8006750 <HAL_RCCEx_PeriphCLKConfig+0x378>)
 80066a0:	2200      	movs	r2, #0
 80066a2:	601a      	str	r2, [r3, #0]
      /* Restore the Content of BDCR register */
      RCC->BDCR = tmpreg1;
 80066a4:	4a29      	ldr	r2, [pc, #164]	; (800674c <HAL_RCCEx_PeriphCLKConfig+0x374>)
 80066a6:	693b      	ldr	r3, [r7, #16]
 80066a8:	6713      	str	r3, [r2, #112]	; 0x70

      /* Wait for LSE reactivation if LSE was enable prior to Backup Domain reset */
      if(HAL_IS_BIT_SET(RCC->BDCR, RCC_BDCR_LSEON))
 80066aa:	4b28      	ldr	r3, [pc, #160]	; (800674c <HAL_RCCEx_PeriphCLKConfig+0x374>)
 80066ac:	6f1b      	ldr	r3, [r3, #112]	; 0x70
 80066ae:	f003 0301 	and.w	r3, r3, #1
 80066b2:	2b01      	cmp	r3, #1
 80066b4:	d114      	bne.n	80066e0 <HAL_RCCEx_PeriphCLKConfig+0x308>
      {
        /* Get tick */
        tickstart = HAL_GetTick();
 80066b6:	f7fc fc1d 	bl	8002ef4 <HAL_GetTick>
 80066ba:	6178      	str	r0, [r7, #20]

        /* Wait till LSE is ready */
        while(__HAL_RCC_GET_FLAG(RCC_FLAG_LSERDY) == RESET)
 80066bc:	e00a      	b.n	80066d4 <HAL_RCCEx_PeriphCLKConfig+0x2fc>
        {
          if((HAL_GetTick() - tickstart ) > RCC_LSE_TIMEOUT_VALUE)
 80066be:	f7fc fc19 	bl	8002ef4 <HAL_GetTick>
 80066c2:	4602      	mov	r2, r0
 80066c4:	697b      	ldr	r3, [r7, #20]
 80066c6:	1ad3      	subs	r3, r2, r3
 80066c8:	f241 3288 	movw	r2, #5000	; 0x1388
 80066cc:	4293      	cmp	r3, r2
 80066ce:	d901      	bls.n	80066d4 <HAL_RCCEx_PeriphCLKConfig+0x2fc>
          {
            return HAL_TIMEOUT;
 80066d0:	2303      	movs	r3, #3
 80066d2:	e035      	b.n	8006740 <HAL_RCCEx_PeriphCLKConfig+0x368>
        while(__HAL_RCC_GET_FLAG(RCC_FLAG_LSERDY) == RESET)
 80066d4:	4b1d      	ldr	r3, [pc, #116]	; (800674c <HAL_RCCEx_PeriphCLKConfig+0x374>)
 80066d6:	6f1b      	ldr	r3, [r3, #112]	; 0x70
 80066d8:	f003 0302 	and.w	r3, r3, #2
 80066dc:	2b00      	cmp	r3, #0
 80066de:	d0ee      	beq.n	80066be <HAL_RCCEx_PeriphCLKConfig+0x2e6>
          }
        }
      }
    }
    __HAL_RCC_RTC_CONFIG(PeriphClkInit->RTCClockSelection);
 80066e0:	687b      	ldr	r3, [r7, #4]
 80066e2:	6a9b      	ldr	r3, [r3, #40]	; 0x28
 80066e4:	f403 7340 	and.w	r3, r3, #768	; 0x300
 80066e8:	f5b3 7f40 	cmp.w	r3, #768	; 0x300
 80066ec:	d10d      	bne.n	800670a <HAL_RCCEx_PeriphCLKConfig+0x332>
 80066ee:	4b17      	ldr	r3, [pc, #92]	; (800674c <HAL_RCCEx_PeriphCLKConfig+0x374>)
 80066f0:	689b      	ldr	r3, [r3, #8]
 80066f2:	f423 12f8 	bic.w	r2, r3, #2031616	; 0x1f0000
 80066f6:	687b      	ldr	r3, [r7, #4]
 80066f8:	6a9b      	ldr	r3, [r3, #40]	; 0x28
 80066fa:	f023 4370 	bic.w	r3, r3, #4026531840	; 0xf0000000
 80066fe:	f423 7340 	bic.w	r3, r3, #768	; 0x300
 8006702:	4912      	ldr	r1, [pc, #72]	; (800674c <HAL_RCCEx_PeriphCLKConfig+0x374>)
 8006704:	4313      	orrs	r3, r2
 8006706:	608b      	str	r3, [r1, #8]
 8006708:	e005      	b.n	8006716 <HAL_RCCEx_PeriphCLKConfig+0x33e>
 800670a:	4b10      	ldr	r3, [pc, #64]	; (800674c <HAL_RCCEx_PeriphCLKConfig+0x374>)
 800670c:	689b      	ldr	r3, [r3, #8]
 800670e:	4a0f      	ldr	r2, [pc, #60]	; (800674c <HAL_RCCEx_PeriphCLKConfig+0x374>)
 8006710:	f423 13f8 	bic.w	r3, r3, #2031616	; 0x1f0000
 8006714:	6093      	str	r3, [r2, #8]
 8006716:	4b0d      	ldr	r3, [pc, #52]	; (800674c <HAL_RCCEx_PeriphCLKConfig+0x374>)
 8006718:	6f1a      	ldr	r2, [r3, #112]	; 0x70
 800671a:	687b      	ldr	r3, [r7, #4]
 800671c:	6a9b      	ldr	r3, [r3, #40]	; 0x28
 800671e:	f3c3 030b 	ubfx	r3, r3, #0, #12
 8006722:	490a      	ldr	r1, [pc, #40]	; (800674c <HAL_RCCEx_PeriphCLKConfig+0x374>)
 8006724:	4313      	orrs	r3, r2
 8006726:	670b      	str	r3, [r1, #112]	; 0x70
  }
  /*--------------------------------------------------------------------------*/

  /*---------------------------- TIM configuration ---------------------------*/
  if(((PeriphClkInit->PeriphClockSelection) & RCC_PERIPHCLK_TIM) == (RCC_PERIPHCLK_TIM))
 8006728:	687b      	ldr	r3, [r7, #4]
 800672a:	681b      	ldr	r3, [r3, #0]
 800672c:	f003 0310 	and.w	r3, r3, #16
 8006730:	2b00      	cmp	r3, #0
 8006732:	d004      	beq.n	800673e <HAL_RCCEx_PeriphCLKConfig+0x366>
  {
    __HAL_RCC_TIMCLKPRESCALER(PeriphClkInit->TIMPresSelection);
 8006734:	687b      	ldr	r3, [r7, #4]
 8006736:	f893 202c 	ldrb.w	r2, [r3, #44]	; 0x2c
 800673a:	4b06      	ldr	r3, [pc, #24]	; (8006754 <HAL_RCCEx_PeriphCLKConfig+0x37c>)
 800673c:	601a      	str	r2, [r3, #0]
  }
  return HAL_OK;
 800673e:	2300      	movs	r3, #0
}
 8006740:	4618      	mov	r0, r3
 8006742:	3718      	adds	r7, #24
 8006744:	46bd      	mov	sp, r7
 8006746:	bd80      	pop	{r7, pc}
 8006748:	40007000 	.word	0x40007000
 800674c:	40023800 	.word	0x40023800
 8006750:	42470e40 	.word	0x42470e40
 8006754:	424711e0 	.word	0x424711e0

08006758 <HAL_RTC_Init>:
  * @param  hrtc pointer to a RTC_HandleTypeDef structure that contains
  *                the configuration information for RTC.
  * @retval HAL status
  */
HAL_StatusTypeDef HAL_RTC_Init(RTC_HandleTypeDef *hrtc)
{
 8006758:	b580      	push	{r7, lr}
 800675a:	b084      	sub	sp, #16
 800675c:	af00      	add	r7, sp, #0
 800675e:	6078      	str	r0, [r7, #4]
  HAL_StatusTypeDef status = HAL_ERROR;
 8006760:	2301      	movs	r3, #1
 8006762:	73fb      	strb	r3, [r7, #15]

  /* Check RTC handler validity */
  if (hrtc == NULL)
 8006764:	687b      	ldr	r3, [r7, #4]
 8006766:	2b00      	cmp	r3, #0
 8006768:	d101      	bne.n	800676e <HAL_RTC_Init+0x16>
  {
    return HAL_ERROR;
 800676a:	2301      	movs	r3, #1
 800676c:	e073      	b.n	8006856 <HAL_RTC_Init+0xfe>
    {
      hrtc->MspDeInitCallback = HAL_RTC_MspDeInit;
    }
  }
#else /* USE_HAL_RTC_REGISTER_CALLBACKS */
  if (hrtc->State == HAL_RTC_STATE_RESET)
 800676e:	687b      	ldr	r3, [r7, #4]
 8006770:	7f5b      	ldrb	r3, [r3, #29]
 8006772:	b2db      	uxtb	r3, r3
 8006774:	2b00      	cmp	r3, #0
 8006776:	d105      	bne.n	8006784 <HAL_RTC_Init+0x2c>
  {
    /* Allocate lock resource and initialize it */
    hrtc->Lock = HAL_UNLOCKED;
 8006778:	687b      	ldr	r3, [r7, #4]
 800677a:	2200      	movs	r2, #0
 800677c:	771a      	strb	r2, [r3, #28]

    /* Initialize RTC MSP */
    HAL_RTC_MspInit(hrtc);
 800677e:	6878      	ldr	r0, [r7, #4]
 8006780:	f7fc f83a 	bl	80027f8 <HAL_RTC_MspInit>
  }
#endif /* USE_HAL_RTC_REGISTER_CALLBACKS */

  /* Set RTC state */
  hrtc->State = HAL_RTC_STATE_BUSY;
 8006784:	687b      	ldr	r3, [r7, #4]
 8006786:	2202      	movs	r2, #2
 8006788:	775a      	strb	r2, [r3, #29]

  /* Check whether the calendar needs to be initialized */
  if (__HAL_RTC_IS_CALENDAR_INITIALIZED(hrtc) == 0U)
 800678a:	687b      	ldr	r3, [r7, #4]
 800678c:	681b      	ldr	r3, [r3, #0]
 800678e:	68db      	ldr	r3, [r3, #12]
 8006790:	f003 0310 	and.w	r3, r3, #16
 8006794:	2b10      	cmp	r3, #16
 8006796:	d055      	beq.n	8006844 <HAL_RTC_Init+0xec>
  {
    /* Disable the write protection for RTC registers */
    __HAL_RTC_WRITEPROTECTION_DISABLE(hrtc);
 8006798:	687b      	ldr	r3, [r7, #4]
 800679a:	681b      	ldr	r3, [r3, #0]
 800679c:	22ca      	movs	r2, #202	; 0xca
 800679e:	625a      	str	r2, [r3, #36]	; 0x24
 80067a0:	687b      	ldr	r3, [r7, #4]
 80067a2:	681b      	ldr	r3, [r3, #0]
 80067a4:	2253      	movs	r2, #83	; 0x53
 80067a6:	625a      	str	r2, [r3, #36]	; 0x24

    /* Enter Initialization mode */
    status = RTC_EnterInitMode(hrtc);
 80067a8:	6878      	ldr	r0, [r7, #4]
 80067aa:	f000 fa49 	bl	8006c40 <RTC_EnterInitMode>
 80067ae:	4603      	mov	r3, r0
 80067b0:	73fb      	strb	r3, [r7, #15]

    if (status == HAL_OK)
 80067b2:	7bfb      	ldrb	r3, [r7, #15]
 80067b4:	2b00      	cmp	r3, #0
 80067b6:	d12c      	bne.n	8006812 <HAL_RTC_Init+0xba>
    {
      /* Clear RTC_CR FMT, OSEL and POL Bits */
      hrtc->Instance->CR &= ((uint32_t)~(RTC_CR_FMT | RTC_CR_OSEL | RTC_CR_POL));
 80067b8:	687b      	ldr	r3, [r7, #4]
 80067ba:	681b      	ldr	r3, [r3, #0]
 80067bc:	689b      	ldr	r3, [r3, #8]
 80067be:	687a      	ldr	r2, [r7, #4]
 80067c0:	6812      	ldr	r2, [r2, #0]
 80067c2:	f423 03e0 	bic.w	r3, r3, #7340032	; 0x700000
 80067c6:	f023 0340 	bic.w	r3, r3, #64	; 0x40
 80067ca:	6093      	str	r3, [r2, #8]
      /* Set RTC_CR register */
      hrtc->Instance->CR |= (uint32_t)(hrtc->Init.HourFormat | hrtc->Init.OutPut | hrtc->Init.OutPutPolarity);
 80067cc:	687b      	ldr	r3, [r7, #4]
 80067ce:	681b      	ldr	r3, [r3, #0]
 80067d0:	6899      	ldr	r1, [r3, #8]
 80067d2:	687b      	ldr	r3, [r7, #4]
 80067d4:	685a      	ldr	r2, [r3, #4]
 80067d6:	687b      	ldr	r3, [r7, #4]
 80067d8:	691b      	ldr	r3, [r3, #16]
 80067da:	431a      	orrs	r2, r3
 80067dc:	687b      	ldr	r3, [r7, #4]
 80067de:	695b      	ldr	r3, [r3, #20]
 80067e0:	431a      	orrs	r2, r3
 80067e2:	687b      	ldr	r3, [r7, #4]
 80067e4:	681b      	ldr	r3, [r3, #0]
 80067e6:	430a      	orrs	r2, r1
 80067e8:	609a      	str	r2, [r3, #8]

      /* Configure the RTC PRER */
      hrtc->Instance->PRER = (uint32_t)(hrtc->Init.SynchPrediv);
 80067ea:	687b      	ldr	r3, [r7, #4]
 80067ec:	681b      	ldr	r3, [r3, #0]
 80067ee:	687a      	ldr	r2, [r7, #4]
 80067f0:	68d2      	ldr	r2, [r2, #12]
 80067f2:	611a      	str	r2, [r3, #16]
      hrtc->Instance->PRER |= (uint32_t)(hrtc->Init.AsynchPrediv << RTC_PRER_PREDIV_A_Pos);
 80067f4:	687b      	ldr	r3, [r7, #4]
 80067f6:	681b      	ldr	r3, [r3, #0]
 80067f8:	6919      	ldr	r1, [r3, #16]
 80067fa:	687b      	ldr	r3, [r7, #4]
 80067fc:	689b      	ldr	r3, [r3, #8]
 80067fe:	041a      	lsls	r2, r3, #16
 8006800:	687b      	ldr	r3, [r7, #4]
 8006802:	681b      	ldr	r3, [r3, #0]
 8006804:	430a      	orrs	r2, r1
 8006806:	611a      	str	r2, [r3, #16]

      /* Exit Initialization mode */
      status = RTC_ExitInitMode(hrtc);
 8006808:	6878      	ldr	r0, [r7, #4]
 800680a:	f000 fa50 	bl	8006cae <RTC_ExitInitMode>
 800680e:	4603      	mov	r3, r0
 8006810:	73fb      	strb	r3, [r7, #15]
    }

    if (status == HAL_OK)
 8006812:	7bfb      	ldrb	r3, [r7, #15]
 8006814:	2b00      	cmp	r3, #0
 8006816:	d110      	bne.n	800683a <HAL_RTC_Init+0xe2>
    {
      hrtc->Instance->TAFCR &= (uint32_t)~RTC_OUTPUT_TYPE_PUSHPULL;
 8006818:	687b      	ldr	r3, [r7, #4]
 800681a:	681b      	ldr	r3, [r3, #0]
 800681c:	6c1a      	ldr	r2, [r3, #64]	; 0x40
 800681e:	687b      	ldr	r3, [r7, #4]
 8006820:	681b      	ldr	r3, [r3, #0]
 8006822:	f422 2280 	bic.w	r2, r2, #262144	; 0x40000
 8006826:	641a      	str	r2, [r3, #64]	; 0x40
      hrtc->Instance->TAFCR |= (uint32_t)(hrtc->Init.OutPutType);
 8006828:	687b      	ldr	r3, [r7, #4]
 800682a:	681b      	ldr	r3, [r3, #0]
 800682c:	6c19      	ldr	r1, [r3, #64]	; 0x40
 800682e:	687b      	ldr	r3, [r7, #4]
 8006830:	699a      	ldr	r2, [r3, #24]
 8006832:	687b      	ldr	r3, [r7, #4]
 8006834:	681b      	ldr	r3, [r3, #0]
 8006836:	430a      	orrs	r2, r1
 8006838:	641a      	str	r2, [r3, #64]	; 0x40
    }

    /* Enable the write protection for RTC registers */
    __HAL_RTC_WRITEPROTECTION_ENABLE(hrtc);
 800683a:	687b      	ldr	r3, [r7, #4]
 800683c:	681b      	ldr	r3, [r3, #0]
 800683e:	22ff      	movs	r2, #255	; 0xff
 8006840:	625a      	str	r2, [r3, #36]	; 0x24
 8006842:	e001      	b.n	8006848 <HAL_RTC_Init+0xf0>
  }
  else
  {
    /* The calendar is already initialized */
    status = HAL_OK;
 8006844:	2300      	movs	r3, #0
 8006846:	73fb      	strb	r3, [r7, #15]
  }

  if (status == HAL_OK)
 8006848:	7bfb      	ldrb	r3, [r7, #15]
 800684a:	2b00      	cmp	r3, #0
 800684c:	d102      	bne.n	8006854 <HAL_RTC_Init+0xfc>
  {
    hrtc->State = HAL_RTC_STATE_READY;
 800684e:	687b      	ldr	r3, [r7, #4]
 8006850:	2201      	movs	r2, #1
 8006852:	775a      	strb	r2, [r3, #29]
  }

  return status;
 8006854:	7bfb      	ldrb	r3, [r7, #15]
}
 8006856:	4618      	mov	r0, r3
 8006858:	3710      	adds	r7, #16
 800685a:	46bd      	mov	sp, r7
 800685c:	bd80      	pop	{r7, pc}

0800685e <HAL_RTC_SetTime>:
  *            @arg RTC_FORMAT_BIN: Binary data format
  *            @arg RTC_FORMAT_BCD: BCD data format
  * @retval HAL status
  */
HAL_StatusTypeDef HAL_RTC_SetTime(RTC_HandleTypeDef *hrtc, RTC_TimeTypeDef *sTime, uint32_t Format)
{
 800685e:	b590      	push	{r4, r7, lr}
 8006860:	b087      	sub	sp, #28
 8006862:	af00      	add	r7, sp, #0
 8006864:	60f8      	str	r0, [r7, #12]
 8006866:	60b9      	str	r1, [r7, #8]
 8006868:	607a      	str	r2, [r7, #4]
  uint32_t tmpreg = 0U;
 800686a:	2300      	movs	r3, #0
 800686c:	617b      	str	r3, [r7, #20]
  assert_param(IS_RTC_FORMAT(Format));
  assert_param(IS_RTC_DAYLIGHT_SAVING(sTime->DayLightSaving));
  assert_param(IS_RTC_STORE_OPERATION(sTime->StoreOperation));

  /* Process Locked */
  __HAL_LOCK(hrtc);
 800686e:	68fb      	ldr	r3, [r7, #12]
 8006870:	7f1b      	ldrb	r3, [r3, #28]
 8006872:	2b01      	cmp	r3, #1
 8006874:	d101      	bne.n	800687a <HAL_RTC_SetTime+0x1c>
 8006876:	2302      	movs	r3, #2
 8006878:	e087      	b.n	800698a <HAL_RTC_SetTime+0x12c>
 800687a:	68fb      	ldr	r3, [r7, #12]
 800687c:	2201      	movs	r2, #1
 800687e:	771a      	strb	r2, [r3, #28]

  hrtc->State = HAL_RTC_STATE_BUSY;
 8006880:	68fb      	ldr	r3, [r7, #12]
 8006882:	2202      	movs	r2, #2
 8006884:	775a      	strb	r2, [r3, #29]

  if (Format == RTC_FORMAT_BIN)
 8006886:	687b      	ldr	r3, [r7, #4]
 8006888:	2b00      	cmp	r3, #0
 800688a:	d126      	bne.n	80068da <HAL_RTC_SetTime+0x7c>
  {
    if ((hrtc->Instance->CR & RTC_CR_FMT) != 0U)
 800688c:	68fb      	ldr	r3, [r7, #12]
 800688e:	681b      	ldr	r3, [r3, #0]
 8006890:	689b      	ldr	r3, [r3, #8]
 8006892:	f003 0340 	and.w	r3, r3, #64	; 0x40
 8006896:	2b00      	cmp	r3, #0
 8006898:	d102      	bne.n	80068a0 <HAL_RTC_SetTime+0x42>
      assert_param(IS_RTC_HOUR12(sTime->Hours));
      assert_param(IS_RTC_HOURFORMAT12(sTime->TimeFormat));
    }
    else
    {
      sTime->TimeFormat = 0x00U;
 800689a:	68bb      	ldr	r3, [r7, #8]
 800689c:	2200      	movs	r2, #0
 800689e:	70da      	strb	r2, [r3, #3]
      assert_param(IS_RTC_HOUR24(sTime->Hours));
    }
    assert_param(IS_RTC_MINUTES(sTime->Minutes));
    assert_param(IS_RTC_SECONDS(sTime->Seconds));

    tmpreg = (uint32_t)(( (uint32_t)RTC_ByteToBcd2(sTime->Hours)   << RTC_TR_HU_Pos)  | \
 80068a0:	68bb      	ldr	r3, [r7, #8]
 80068a2:	781b      	ldrb	r3, [r3, #0]
 80068a4:	4618      	mov	r0, r3
 80068a6:	f000 fa27 	bl	8006cf8 <RTC_ByteToBcd2>
 80068aa:	4603      	mov	r3, r0
 80068ac:	041c      	lsls	r4, r3, #16
                        ( (uint32_t)RTC_ByteToBcd2(sTime->Minutes) << RTC_TR_MNU_Pos) | \
 80068ae:	68bb      	ldr	r3, [r7, #8]
 80068b0:	785b      	ldrb	r3, [r3, #1]
 80068b2:	4618      	mov	r0, r3
 80068b4:	f000 fa20 	bl	8006cf8 <RTC_ByteToBcd2>
 80068b8:	4603      	mov	r3, r0
 80068ba:	021b      	lsls	r3, r3, #8
    tmpreg = (uint32_t)(( (uint32_t)RTC_ByteToBcd2(sTime->Hours)   << RTC_TR_HU_Pos)  | \
 80068bc:	431c      	orrs	r4, r3
                        ( (uint32_t)RTC_ByteToBcd2(sTime->Seconds))                   | \
 80068be:	68bb      	ldr	r3, [r7, #8]
 80068c0:	789b      	ldrb	r3, [r3, #2]
 80068c2:	4618      	mov	r0, r3
 80068c4:	f000 fa18 	bl	8006cf8 <RTC_ByteToBcd2>
 80068c8:	4603      	mov	r3, r0
                        ( (uint32_t)RTC_ByteToBcd2(sTime->Minutes) << RTC_TR_MNU_Pos) | \
 80068ca:	ea44 0203 	orr.w	r2, r4, r3
                        (((uint32_t)sTime->TimeFormat)             << RTC_TR_PM_Pos));
 80068ce:	68bb      	ldr	r3, [r7, #8]
 80068d0:	78db      	ldrb	r3, [r3, #3]
 80068d2:	059b      	lsls	r3, r3, #22
    tmpreg = (uint32_t)(( (uint32_t)RTC_ByteToBcd2(sTime->Hours)   << RTC_TR_HU_Pos)  | \
 80068d4:	4313      	orrs	r3, r2
 80068d6:	617b      	str	r3, [r7, #20]
 80068d8:	e018      	b.n	800690c <HAL_RTC_SetTime+0xae>
  }
  else
  {
    if ((hrtc->Instance->CR & RTC_CR_FMT) != 0U)
 80068da:	68fb      	ldr	r3, [r7, #12]
 80068dc:	681b      	ldr	r3, [r3, #0]
 80068de:	689b      	ldr	r3, [r3, #8]
 80068e0:	f003 0340 	and.w	r3, r3, #64	; 0x40
 80068e4:	2b00      	cmp	r3, #0
 80068e6:	d102      	bne.n	80068ee <HAL_RTC_SetTime+0x90>
      assert_param(IS_RTC_HOUR12(RTC_Bcd2ToByte(sTime->Hours)));
      assert_param(IS_RTC_HOURFORMAT12(sTime->TimeFormat));
    }
    else
    {
      sTime->TimeFormat = 0x00U;
 80068e8:	68bb      	ldr	r3, [r7, #8]
 80068ea:	2200      	movs	r2, #0
 80068ec:	70da      	strb	r2, [r3, #3]
      assert_param(IS_RTC_HOUR24(RTC_Bcd2ToByte(sTime->Hours)));
    }
    assert_param(IS_RTC_MINUTES(RTC_Bcd2ToByte(sTime->Minutes)));
    assert_param(IS_RTC_SECONDS(RTC_Bcd2ToByte(sTime->Seconds)));
    tmpreg = (((uint32_t)(sTime->Hours)      << RTC_TR_HU_Pos)  | \
 80068ee:	68bb      	ldr	r3, [r7, #8]
 80068f0:	781b      	ldrb	r3, [r3, #0]
 80068f2:	041a      	lsls	r2, r3, #16
              ((uint32_t)(sTime->Minutes)    << RTC_TR_MNU_Pos) | \
 80068f4:	68bb      	ldr	r3, [r7, #8]
 80068f6:	785b      	ldrb	r3, [r3, #1]
 80068f8:	021b      	lsls	r3, r3, #8
    tmpreg = (((uint32_t)(sTime->Hours)      << RTC_TR_HU_Pos)  | \
 80068fa:	4313      	orrs	r3, r2
              ((uint32_t) sTime->Seconds)                       | \
 80068fc:	68ba      	ldr	r2, [r7, #8]
 80068fe:	7892      	ldrb	r2, [r2, #2]
              ((uint32_t)(sTime->Minutes)    << RTC_TR_MNU_Pos) | \
 8006900:	431a      	orrs	r2, r3
              ((uint32_t)(sTime->TimeFormat) << RTC_TR_PM_Pos));
 8006902:	68bb      	ldr	r3, [r7, #8]
 8006904:	78db      	ldrb	r3, [r3, #3]
 8006906:	059b      	lsls	r3, r3, #22
    tmpreg = (((uint32_t)(sTime->Hours)      << RTC_TR_HU_Pos)  | \
 8006908:	4313      	orrs	r3, r2
 800690a:	617b      	str	r3, [r7, #20]
  }

  /* Disable the write protection for RTC registers */
  __HAL_RTC_WRITEPROTECTION_DISABLE(hrtc);
 800690c:	68fb      	ldr	r3, [r7, #12]
 800690e:	681b      	ldr	r3, [r3, #0]
 8006910:	22ca      	movs	r2, #202	; 0xca
 8006912:	625a      	str	r2, [r3, #36]	; 0x24
 8006914:	68fb      	ldr	r3, [r7, #12]
 8006916:	681b      	ldr	r3, [r3, #0]
 8006918:	2253      	movs	r2, #83	; 0x53
 800691a:	625a      	str	r2, [r3, #36]	; 0x24

  /* Enter Initialization mode */
  status = RTC_EnterInitMode(hrtc);
 800691c:	68f8      	ldr	r0, [r7, #12]
 800691e:	f000 f98f 	bl	8006c40 <RTC_EnterInitMode>
 8006922:	4603      	mov	r3, r0
 8006924:	74fb      	strb	r3, [r7, #19]

  if (status == HAL_OK)
 8006926:	7cfb      	ldrb	r3, [r7, #19]
 8006928:	2b00      	cmp	r3, #0
 800692a:	d120      	bne.n	800696e <HAL_RTC_SetTime+0x110>
  {
    /* Set the RTC_TR register */
    hrtc->Instance->TR = (uint32_t)(tmpreg & RTC_TR_RESERVED_MASK);
 800692c:	68fb      	ldr	r3, [r7, #12]
 800692e:	681a      	ldr	r2, [r3, #0]
 8006930:	697b      	ldr	r3, [r7, #20]
 8006932:	f003 337f 	and.w	r3, r3, #2139062143	; 0x7f7f7f7f
 8006936:	f023 43fe 	bic.w	r3, r3, #2130706432	; 0x7f000000
 800693a:	6013      	str	r3, [r2, #0]

    /* Clear the bits to be configured (Deprecated. Use HAL_RTC_DST_xxx functions instead) */
    hrtc->Instance->CR &= (uint32_t)~RTC_CR_BKP;
 800693c:	68fb      	ldr	r3, [r7, #12]
 800693e:	681b      	ldr	r3, [r3, #0]
 8006940:	689a      	ldr	r2, [r3, #8]
 8006942:	68fb      	ldr	r3, [r7, #12]
 8006944:	681b      	ldr	r3, [r3, #0]
 8006946:	f422 2280 	bic.w	r2, r2, #262144	; 0x40000
 800694a:	609a      	str	r2, [r3, #8]

    /* Configure the RTC_CR register (Deprecated. Use HAL_RTC_DST_xxx functions instead) */
    hrtc->Instance->CR |= (uint32_t)(sTime->DayLightSaving | sTime->StoreOperation);
 800694c:	68fb      	ldr	r3, [r7, #12]
 800694e:	681b      	ldr	r3, [r3, #0]
 8006950:	6899      	ldr	r1, [r3, #8]
 8006952:	68bb      	ldr	r3, [r7, #8]
 8006954:	68da      	ldr	r2, [r3, #12]
 8006956:	68bb      	ldr	r3, [r7, #8]
 8006958:	691b      	ldr	r3, [r3, #16]
 800695a:	431a      	orrs	r2, r3
 800695c:	68fb      	ldr	r3, [r7, #12]
 800695e:	681b      	ldr	r3, [r3, #0]
 8006960:	430a      	orrs	r2, r1
 8006962:	609a      	str	r2, [r3, #8]

    /* Exit Initialization mode */
    status = RTC_ExitInitMode(hrtc);
 8006964:	68f8      	ldr	r0, [r7, #12]
 8006966:	f000 f9a2 	bl	8006cae <RTC_ExitInitMode>
 800696a:	4603      	mov	r3, r0
 800696c:	74fb      	strb	r3, [r7, #19]
  }

  if (status == HAL_OK)
 800696e:	7cfb      	ldrb	r3, [r7, #19]
 8006970:	2b00      	cmp	r3, #0
 8006972:	d102      	bne.n	800697a <HAL_RTC_SetTime+0x11c>
  {
    hrtc->State = HAL_RTC_STATE_READY;
 8006974:	68fb      	ldr	r3, [r7, #12]
 8006976:	2201      	movs	r2, #1
 8006978:	775a      	strb	r2, [r3, #29]
  }

  /* Enable the write protection for RTC registers */
  __HAL_RTC_WRITEPROTECTION_ENABLE(hrtc);
 800697a:	68fb      	ldr	r3, [r7, #12]
 800697c:	681b      	ldr	r3, [r3, #0]
 800697e:	22ff      	movs	r2, #255	; 0xff
 8006980:	625a      	str	r2, [r3, #36]	; 0x24

  /* Process Unlocked */
  __HAL_UNLOCK(hrtc);
 8006982:	68fb      	ldr	r3, [r7, #12]
 8006984:	2200      	movs	r2, #0
 8006986:	771a      	strb	r2, [r3, #28]

  return status;
 8006988:	7cfb      	ldrb	r3, [r7, #19]
}
 800698a:	4618      	mov	r0, r3
 800698c:	371c      	adds	r7, #28
 800698e:	46bd      	mov	sp, r7
 8006990:	bd90      	pop	{r4, r7, pc}

08006992 <HAL_RTC_GetTime>:
  *        until current date is read to ensure consistency between the time and
  *        date values.
  * @retval HAL status
  */
HAL_StatusTypeDef HAL_RTC_GetTime(RTC_HandleTypeDef *hrtc, RTC_TimeTypeDef *sTime, uint32_t Format)
{
 8006992:	b580      	push	{r7, lr}
 8006994:	b086      	sub	sp, #24
 8006996:	af00      	add	r7, sp, #0
 8006998:	60f8      	str	r0, [r7, #12]
 800699a:	60b9      	str	r1, [r7, #8]
 800699c:	607a      	str	r2, [r7, #4]
  uint32_t tmpreg = 0U;
 800699e:	2300      	movs	r3, #0
 80069a0:	617b      	str	r3, [r7, #20]

  /* Check the parameters */
  assert_param(IS_RTC_FORMAT(Format));

  /* Get subseconds value from the corresponding register */
  sTime->SubSeconds = (uint32_t)(hrtc->Instance->SSR);
 80069a2:	68fb      	ldr	r3, [r7, #12]
 80069a4:	681b      	ldr	r3, [r3, #0]
 80069a6:	6a9a      	ldr	r2, [r3, #40]	; 0x28
 80069a8:	68bb      	ldr	r3, [r7, #8]
 80069aa:	605a      	str	r2, [r3, #4]

  /* Get SecondFraction structure field from the corresponding register field*/
  sTime->SecondFraction = (uint32_t)(hrtc->Instance->PRER & RTC_PRER_PREDIV_S);
 80069ac:	68fb      	ldr	r3, [r7, #12]
 80069ae:	681b      	ldr	r3, [r3, #0]
 80069b0:	691b      	ldr	r3, [r3, #16]
 80069b2:	f3c3 020e 	ubfx	r2, r3, #0, #15
 80069b6:	68bb      	ldr	r3, [r7, #8]
 80069b8:	609a      	str	r2, [r3, #8]

  /* Get the TR register */
  tmpreg = (uint32_t)(hrtc->Instance->TR & RTC_TR_RESERVED_MASK);
 80069ba:	68fb      	ldr	r3, [r7, #12]
 80069bc:	681b      	ldr	r3, [r3, #0]
 80069be:	681b      	ldr	r3, [r3, #0]
 80069c0:	f003 337f 	and.w	r3, r3, #2139062143	; 0x7f7f7f7f
 80069c4:	f023 43fe 	bic.w	r3, r3, #2130706432	; 0x7f000000
 80069c8:	617b      	str	r3, [r7, #20]

  /* Fill the structure fields with the read parameters */
  sTime->Hours      = (uint8_t)((tmpreg & (RTC_TR_HT  | RTC_TR_HU))  >> RTC_TR_HU_Pos);
 80069ca:	697b      	ldr	r3, [r7, #20]
 80069cc:	0c1b      	lsrs	r3, r3, #16
 80069ce:	b2db      	uxtb	r3, r3
 80069d0:	f003 033f 	and.w	r3, r3, #63	; 0x3f
 80069d4:	b2da      	uxtb	r2, r3
 80069d6:	68bb      	ldr	r3, [r7, #8]
 80069d8:	701a      	strb	r2, [r3, #0]
  sTime->Minutes    = (uint8_t)((tmpreg & (RTC_TR_MNT | RTC_TR_MNU)) >> RTC_TR_MNU_Pos);
 80069da:	697b      	ldr	r3, [r7, #20]
 80069dc:	0a1b      	lsrs	r3, r3, #8
 80069de:	b2db      	uxtb	r3, r3
 80069e0:	f003 037f 	and.w	r3, r3, #127	; 0x7f
 80069e4:	b2da      	uxtb	r2, r3
 80069e6:	68bb      	ldr	r3, [r7, #8]
 80069e8:	705a      	strb	r2, [r3, #1]
  sTime->Seconds    = (uint8_t)( tmpreg & (RTC_TR_ST  | RTC_TR_SU));
 80069ea:	697b      	ldr	r3, [r7, #20]
 80069ec:	b2db      	uxtb	r3, r3
 80069ee:	f003 037f 	and.w	r3, r3, #127	; 0x7f
 80069f2:	b2da      	uxtb	r2, r3
 80069f4:	68bb      	ldr	r3, [r7, #8]
 80069f6:	709a      	strb	r2, [r3, #2]
  sTime->TimeFormat = (uint8_t)((tmpreg & (RTC_TR_PM))               >> RTC_TR_PM_Pos);
 80069f8:	697b      	ldr	r3, [r7, #20]
 80069fa:	0d9b      	lsrs	r3, r3, #22
 80069fc:	b2db      	uxtb	r3, r3
 80069fe:	f003 0301 	and.w	r3, r3, #1
 8006a02:	b2da      	uxtb	r2, r3
 8006a04:	68bb      	ldr	r3, [r7, #8]
 8006a06:	70da      	strb	r2, [r3, #3]

  /* Check the input parameters format */
  if (Format == RTC_FORMAT_BIN)
 8006a08:	687b      	ldr	r3, [r7, #4]
 8006a0a:	2b00      	cmp	r3, #0
 8006a0c:	d11a      	bne.n	8006a44 <HAL_RTC_GetTime+0xb2>
  {
    /* Convert the time structure parameters to Binary format */
    sTime->Hours = (uint8_t)RTC_Bcd2ToByte(sTime->Hours);
 8006a0e:	68bb      	ldr	r3, [r7, #8]
 8006a10:	781b      	ldrb	r3, [r3, #0]
 8006a12:	4618      	mov	r0, r3
 8006a14:	f000 f98e 	bl	8006d34 <RTC_Bcd2ToByte>
 8006a18:	4603      	mov	r3, r0
 8006a1a:	461a      	mov	r2, r3
 8006a1c:	68bb      	ldr	r3, [r7, #8]
 8006a1e:	701a      	strb	r2, [r3, #0]
    sTime->Minutes = (uint8_t)RTC_Bcd2ToByte(sTime->Minutes);
 8006a20:	68bb      	ldr	r3, [r7, #8]
 8006a22:	785b      	ldrb	r3, [r3, #1]
 8006a24:	4618      	mov	r0, r3
 8006a26:	f000 f985 	bl	8006d34 <RTC_Bcd2ToByte>
 8006a2a:	4603      	mov	r3, r0
 8006a2c:	461a      	mov	r2, r3
 8006a2e:	68bb      	ldr	r3, [r7, #8]
 8006a30:	705a      	strb	r2, [r3, #1]
    sTime->Seconds = (uint8_t)RTC_Bcd2ToByte(sTime->Seconds);
 8006a32:	68bb      	ldr	r3, [r7, #8]
 8006a34:	789b      	ldrb	r3, [r3, #2]
 8006a36:	4618      	mov	r0, r3
 8006a38:	f000 f97c 	bl	8006d34 <RTC_Bcd2ToByte>
 8006a3c:	4603      	mov	r3, r0
 8006a3e:	461a      	mov	r2, r3
 8006a40:	68bb      	ldr	r3, [r7, #8]
 8006a42:	709a      	strb	r2, [r3, #2]
  }

  return HAL_OK;
 8006a44:	2300      	movs	r3, #0
}
 8006a46:	4618      	mov	r0, r3
 8006a48:	3718      	adds	r7, #24
 8006a4a:	46bd      	mov	sp, r7
 8006a4c:	bd80      	pop	{r7, pc}

08006a4e <HAL_RTC_SetDate>:
  *            @arg RTC_FORMAT_BIN: Binary data format
  *            @arg RTC_FORMAT_BCD: BCD data format
  * @retval HAL status
  */
HAL_StatusTypeDef HAL_RTC_SetDate(RTC_HandleTypeDef *hrtc, RTC_DateTypeDef *sDate, uint32_t Format)
{
 8006a4e:	b590      	push	{r4, r7, lr}
 8006a50:	b087      	sub	sp, #28
 8006a52:	af00      	add	r7, sp, #0
 8006a54:	60f8      	str	r0, [r7, #12]
 8006a56:	60b9      	str	r1, [r7, #8]
 8006a58:	607a      	str	r2, [r7, #4]
  uint32_t datetmpreg = 0U;
 8006a5a:	2300      	movs	r3, #0
 8006a5c:	617b      	str	r3, [r7, #20]

  /* Check the parameters */
  assert_param(IS_RTC_FORMAT(Format));

  /* Process Locked */
  __HAL_LOCK(hrtc);
 8006a5e:	68fb      	ldr	r3, [r7, #12]
 8006a60:	7f1b      	ldrb	r3, [r3, #28]
 8006a62:	2b01      	cmp	r3, #1
 8006a64:	d101      	bne.n	8006a6a <HAL_RTC_SetDate+0x1c>
 8006a66:	2302      	movs	r3, #2
 8006a68:	e071      	b.n	8006b4e <HAL_RTC_SetDate+0x100>
 8006a6a:	68fb      	ldr	r3, [r7, #12]
 8006a6c:	2201      	movs	r2, #1
 8006a6e:	771a      	strb	r2, [r3, #28]

  hrtc->State = HAL_RTC_STATE_BUSY;
 8006a70:	68fb      	ldr	r3, [r7, #12]
 8006a72:	2202      	movs	r2, #2
 8006a74:	775a      	strb	r2, [r3, #29]

  if ((Format == RTC_FORMAT_BIN) && ((sDate->Month & 0x10U) == 0x10U))
 8006a76:	687b      	ldr	r3, [r7, #4]
 8006a78:	2b00      	cmp	r3, #0
 8006a7a:	d10e      	bne.n	8006a9a <HAL_RTC_SetDate+0x4c>
 8006a7c:	68bb      	ldr	r3, [r7, #8]
 8006a7e:	785b      	ldrb	r3, [r3, #1]
 8006a80:	f003 0310 	and.w	r3, r3, #16
 8006a84:	2b00      	cmp	r3, #0
 8006a86:	d008      	beq.n	8006a9a <HAL_RTC_SetDate+0x4c>
  {
    sDate->Month = (uint8_t)((sDate->Month & (uint8_t)~(0x10U)) + (uint8_t)0x0AU);
 8006a88:	68bb      	ldr	r3, [r7, #8]
 8006a8a:	785b      	ldrb	r3, [r3, #1]
 8006a8c:	f023 0310 	bic.w	r3, r3, #16
 8006a90:	b2db      	uxtb	r3, r3
 8006a92:	330a      	adds	r3, #10
 8006a94:	b2da      	uxtb	r2, r3
 8006a96:	68bb      	ldr	r3, [r7, #8]
 8006a98:	705a      	strb	r2, [r3, #1]
  }

  assert_param(IS_RTC_WEEKDAY(sDate->WeekDay));

  if (Format == RTC_FORMAT_BIN)
 8006a9a:	687b      	ldr	r3, [r7, #4]
 8006a9c:	2b00      	cmp	r3, #0
 8006a9e:	d11c      	bne.n	8006ada <HAL_RTC_SetDate+0x8c>
  {
    assert_param(IS_RTC_YEAR(sDate->Year));
    assert_param(IS_RTC_MONTH(sDate->Month));
    assert_param(IS_RTC_DATE(sDate->Date));

    datetmpreg = (((uint32_t)RTC_ByteToBcd2(sDate->Year)  << RTC_DR_YU_Pos) | \
 8006aa0:	68bb      	ldr	r3, [r7, #8]
 8006aa2:	78db      	ldrb	r3, [r3, #3]
 8006aa4:	4618      	mov	r0, r3
 8006aa6:	f000 f927 	bl	8006cf8 <RTC_ByteToBcd2>
 8006aaa:	4603      	mov	r3, r0
 8006aac:	041c      	lsls	r4, r3, #16
                  ((uint32_t)RTC_ByteToBcd2(sDate->Month) << RTC_DR_MU_Pos) | \
 8006aae:	68bb      	ldr	r3, [r7, #8]
 8006ab0:	785b      	ldrb	r3, [r3, #1]
 8006ab2:	4618      	mov	r0, r3
 8006ab4:	f000 f920 	bl	8006cf8 <RTC_ByteToBcd2>
 8006ab8:	4603      	mov	r3, r0
 8006aba:	021b      	lsls	r3, r3, #8
    datetmpreg = (((uint32_t)RTC_ByteToBcd2(sDate->Year)  << RTC_DR_YU_Pos) | \
 8006abc:	431c      	orrs	r4, r3
                  ((uint32_t)RTC_ByteToBcd2(sDate->Date))                   | \
 8006abe:	68bb      	ldr	r3, [r7, #8]
 8006ac0:	789b      	ldrb	r3, [r3, #2]
 8006ac2:	4618      	mov	r0, r3
 8006ac4:	f000 f918 	bl	8006cf8 <RTC_ByteToBcd2>
 8006ac8:	4603      	mov	r3, r0
                  ((uint32_t)RTC_ByteToBcd2(sDate->Month) << RTC_DR_MU_Pos) | \
 8006aca:	ea44 0203 	orr.w	r2, r4, r3
                  ((uint32_t)sDate->WeekDay               << RTC_DR_WDU_Pos));
 8006ace:	68bb      	ldr	r3, [r7, #8]
 8006ad0:	781b      	ldrb	r3, [r3, #0]
 8006ad2:	035b      	lsls	r3, r3, #13
    datetmpreg = (((uint32_t)RTC_ByteToBcd2(sDate->Year)  << RTC_DR_YU_Pos) | \
 8006ad4:	4313      	orrs	r3, r2
 8006ad6:	617b      	str	r3, [r7, #20]
 8006ad8:	e00e      	b.n	8006af8 <HAL_RTC_SetDate+0xaa>
  {
    assert_param(IS_RTC_YEAR(RTC_Bcd2ToByte(sDate->Year)));
    assert_param(IS_RTC_MONTH(RTC_Bcd2ToByte(sDate->Month)));
    assert_param(IS_RTC_DATE(RTC_Bcd2ToByte(sDate->Date)));

    datetmpreg = ((((uint32_t)sDate->Year)    << RTC_DR_YU_Pos) | \
 8006ada:	68bb      	ldr	r3, [r7, #8]
 8006adc:	78db      	ldrb	r3, [r3, #3]
 8006ade:	041a      	lsls	r2, r3, #16
                  (((uint32_t)sDate->Month)   << RTC_DR_MU_Pos) | \
 8006ae0:	68bb      	ldr	r3, [r7, #8]
 8006ae2:	785b      	ldrb	r3, [r3, #1]
 8006ae4:	021b      	lsls	r3, r3, #8
    datetmpreg = ((((uint32_t)sDate->Year)    << RTC_DR_YU_Pos) | \
 8006ae6:	4313      	orrs	r3, r2
                  ((uint32_t) sDate->Date)                      | \
 8006ae8:	68ba      	ldr	r2, [r7, #8]
 8006aea:	7892      	ldrb	r2, [r2, #2]
                  (((uint32_t)sDate->Month)   << RTC_DR_MU_Pos) | \
 8006aec:	431a      	orrs	r2, r3
                  (((uint32_t)sDate->WeekDay) << RTC_DR_WDU_Pos));
 8006aee:	68bb      	ldr	r3, [r7, #8]
 8006af0:	781b      	ldrb	r3, [r3, #0]
 8006af2:	035b      	lsls	r3, r3, #13
    datetmpreg = ((((uint32_t)sDate->Year)    << RTC_DR_YU_Pos) | \
 8006af4:	4313      	orrs	r3, r2
 8006af6:	617b      	str	r3, [r7, #20]
  }

  /* Disable the write protection for RTC registers */
  __HAL_RTC_WRITEPROTECTION_DISABLE(hrtc);
 8006af8:	68fb      	ldr	r3, [r7, #12]
 8006afa:	681b      	ldr	r3, [r3, #0]
 8006afc:	22ca      	movs	r2, #202	; 0xca
 8006afe:	625a      	str	r2, [r3, #36]	; 0x24
 8006b00:	68fb      	ldr	r3, [r7, #12]
 8006b02:	681b      	ldr	r3, [r3, #0]
 8006b04:	2253      	movs	r2, #83	; 0x53
 8006b06:	625a      	str	r2, [r3, #36]	; 0x24

  /* Enter Initialization mode */
  status = RTC_EnterInitMode(hrtc);
 8006b08:	68f8      	ldr	r0, [r7, #12]
 8006b0a:	f000 f899 	bl	8006c40 <RTC_EnterInitMode>
 8006b0e:	4603      	mov	r3, r0
 8006b10:	74fb      	strb	r3, [r7, #19]

  if (status == HAL_OK)
 8006b12:	7cfb      	ldrb	r3, [r7, #19]
 8006b14:	2b00      	cmp	r3, #0
 8006b16:	d10c      	bne.n	8006b32 <HAL_RTC_SetDate+0xe4>
  {
    /* Set the RTC_DR register */
    hrtc->Instance->DR = (uint32_t)(datetmpreg & RTC_DR_RESERVED_MASK);
 8006b18:	68fb      	ldr	r3, [r7, #12]
 8006b1a:	681a      	ldr	r2, [r3, #0]
 8006b1c:	697b      	ldr	r3, [r7, #20]
 8006b1e:	f023 437f 	bic.w	r3, r3, #4278190080	; 0xff000000
 8006b22:	f023 03c0 	bic.w	r3, r3, #192	; 0xc0
 8006b26:	6053      	str	r3, [r2, #4]

    /* Exit Initialization mode */
    status = RTC_ExitInitMode(hrtc);
 8006b28:	68f8      	ldr	r0, [r7, #12]
 8006b2a:	f000 f8c0 	bl	8006cae <RTC_ExitInitMode>
 8006b2e:	4603      	mov	r3, r0
 8006b30:	74fb      	strb	r3, [r7, #19]
  }

  if (status == HAL_OK)
 8006b32:	7cfb      	ldrb	r3, [r7, #19]
 8006b34:	2b00      	cmp	r3, #0
 8006b36:	d102      	bne.n	8006b3e <HAL_RTC_SetDate+0xf0>
  {
    hrtc->State = HAL_RTC_STATE_READY;
 8006b38:	68fb      	ldr	r3, [r7, #12]
 8006b3a:	2201      	movs	r2, #1
 8006b3c:	775a      	strb	r2, [r3, #29]
  }

  /* Enable the write protection for RTC registers */
  __HAL_RTC_WRITEPROTECTION_ENABLE(hrtc);
 8006b3e:	68fb      	ldr	r3, [r7, #12]
 8006b40:	681b      	ldr	r3, [r3, #0]
 8006b42:	22ff      	movs	r2, #255	; 0xff
 8006b44:	625a      	str	r2, [r3, #36]	; 0x24

  /* Process Unlocked */
  __HAL_UNLOCK(hrtc);
 8006b46:	68fb      	ldr	r3, [r7, #12]
 8006b48:	2200      	movs	r2, #0
 8006b4a:	771a      	strb	r2, [r3, #28]

  return status;
 8006b4c:	7cfb      	ldrb	r3, [r7, #19]
}
 8006b4e:	4618      	mov	r0, r3
 8006b50:	371c      	adds	r7, #28
 8006b52:	46bd      	mov	sp, r7
 8006b54:	bd90      	pop	{r4, r7, pc}

08006b56 <HAL_RTC_GetDate>:
  *        until current date is read to ensure consistency between the time and
  *        date values.
  * @retval HAL status
  */
HAL_StatusTypeDef HAL_RTC_GetDate(RTC_HandleTypeDef *hrtc, RTC_DateTypeDef *sDate, uint32_t Format)
{
 8006b56:	b580      	push	{r7, lr}
 8006b58:	b086      	sub	sp, #24
 8006b5a:	af00      	add	r7, sp, #0
 8006b5c:	60f8      	str	r0, [r7, #12]
 8006b5e:	60b9      	str	r1, [r7, #8]
 8006b60:	607a      	str	r2, [r7, #4]
  uint32_t datetmpreg = 0U;
 8006b62:	2300      	movs	r3, #0
 8006b64:	617b      	str	r3, [r7, #20]

  /* Check the parameters */
  assert_param(IS_RTC_FORMAT(Format));

  /* Get the DR register */
  datetmpreg = (uint32_t)(hrtc->Instance->DR & RTC_DR_RESERVED_MASK);
 8006b66:	68fb      	ldr	r3, [r7, #12]
 8006b68:	681b      	ldr	r3, [r3, #0]
 8006b6a:	685b      	ldr	r3, [r3, #4]
 8006b6c:	f023 437f 	bic.w	r3, r3, #4278190080	; 0xff000000
 8006b70:	f023 03c0 	bic.w	r3, r3, #192	; 0xc0
 8006b74:	617b      	str	r3, [r7, #20]

  /* Fill the structure fields with the read parameters */
  sDate->Year    = (uint8_t)((datetmpreg & (RTC_DR_YT | RTC_DR_YU)) >> RTC_DR_YU_Pos);
 8006b76:	697b      	ldr	r3, [r7, #20]
 8006b78:	0c1b      	lsrs	r3, r3, #16
 8006b7a:	b2da      	uxtb	r2, r3
 8006b7c:	68bb      	ldr	r3, [r7, #8]
 8006b7e:	70da      	strb	r2, [r3, #3]
  sDate->Month   = (uint8_t)((datetmpreg & (RTC_DR_MT | RTC_DR_MU)) >> RTC_DR_MU_Pos);
 8006b80:	697b      	ldr	r3, [r7, #20]
 8006b82:	0a1b      	lsrs	r3, r3, #8
 8006b84:	b2db      	uxtb	r3, r3
 8006b86:	f003 031f 	and.w	r3, r3, #31
 8006b8a:	b2da      	uxtb	r2, r3
 8006b8c:	68bb      	ldr	r3, [r7, #8]
 8006b8e:	705a      	strb	r2, [r3, #1]
  sDate->Date    = (uint8_t) (datetmpreg & (RTC_DR_DT | RTC_DR_DU));
 8006b90:	697b      	ldr	r3, [r7, #20]
 8006b92:	b2db      	uxtb	r3, r3
 8006b94:	f003 033f 	and.w	r3, r3, #63	; 0x3f
 8006b98:	b2da      	uxtb	r2, r3
 8006b9a:	68bb      	ldr	r3, [r7, #8]
 8006b9c:	709a      	strb	r2, [r3, #2]
  sDate->WeekDay = (uint8_t)((datetmpreg & (RTC_DR_WDU))            >> RTC_DR_WDU_Pos);
 8006b9e:	697b      	ldr	r3, [r7, #20]
 8006ba0:	0b5b      	lsrs	r3, r3, #13
 8006ba2:	b2db      	uxtb	r3, r3
 8006ba4:	f003 0307 	and.w	r3, r3, #7
 8006ba8:	b2da      	uxtb	r2, r3
 8006baa:	68bb      	ldr	r3, [r7, #8]
 8006bac:	701a      	strb	r2, [r3, #0]

  /* Check the input parameters format */
  if (Format == RTC_FORMAT_BIN)
 8006bae:	687b      	ldr	r3, [r7, #4]
 8006bb0:	2b00      	cmp	r3, #0
 8006bb2:	d11a      	bne.n	8006bea <HAL_RTC_GetDate+0x94>
  {
    /* Convert the date structure parameters to Binary format */
    sDate->Year  = (uint8_t)RTC_Bcd2ToByte(sDate->Year);
 8006bb4:	68bb      	ldr	r3, [r7, #8]
 8006bb6:	78db      	ldrb	r3, [r3, #3]
 8006bb8:	4618      	mov	r0, r3
 8006bba:	f000 f8bb 	bl	8006d34 <RTC_Bcd2ToByte>
 8006bbe:	4603      	mov	r3, r0
 8006bc0:	461a      	mov	r2, r3
 8006bc2:	68bb      	ldr	r3, [r7, #8]
 8006bc4:	70da      	strb	r2, [r3, #3]
    sDate->Month = (uint8_t)RTC_Bcd2ToByte(sDate->Month);
 8006bc6:	68bb      	ldr	r3, [r7, #8]
 8006bc8:	785b      	ldrb	r3, [r3, #1]
 8006bca:	4618      	mov	r0, r3
 8006bcc:	f000 f8b2 	bl	8006d34 <RTC_Bcd2ToByte>
 8006bd0:	4603      	mov	r3, r0
 8006bd2:	461a      	mov	r2, r3
 8006bd4:	68bb      	ldr	r3, [r7, #8]
 8006bd6:	705a      	strb	r2, [r3, #1]
    sDate->Date  = (uint8_t)RTC_Bcd2ToByte(sDate->Date);
 8006bd8:	68bb      	ldr	r3, [r7, #8]
 8006bda:	789b      	ldrb	r3, [r3, #2]
 8006bdc:	4618      	mov	r0, r3
 8006bde:	f000 f8a9 	bl	8006d34 <RTC_Bcd2ToByte>
 8006be2:	4603      	mov	r3, r0
 8006be4:	461a      	mov	r2, r3
 8006be6:	68bb      	ldr	r3, [r7, #8]
 8006be8:	709a      	strb	r2, [r3, #2]
  }
  return HAL_OK;
 8006bea:	2300      	movs	r3, #0
}
 8006bec:	4618      	mov	r0, r3
 8006bee:	3718      	adds	r7, #24
 8006bf0:	46bd      	mov	sp, r7
 8006bf2:	bd80      	pop	{r7, pc}

08006bf4 <HAL_RTC_WaitForSynchro>:
  * @param  hrtc pointer to a RTC_HandleTypeDef structure that contains
  *                the configuration information for RTC.
  * @retval HAL status
  */
HAL_StatusTypeDef HAL_RTC_WaitForSynchro(RTC_HandleTypeDef *hrtc)
{
 8006bf4:	b580      	push	{r7, lr}
 8006bf6:	b084      	sub	sp, #16
 8006bf8:	af00      	add	r7, sp, #0
 8006bfa:	6078      	str	r0, [r7, #4]
  uint32_t tickstart = 0U;
 8006bfc:	2300      	movs	r3, #0
 8006bfe:	60fb      	str	r3, [r7, #12]

  /* Clear RSF flag, keep reserved bits at reset values (setting other flags has no effect) */
  hrtc->Instance->ISR = ((uint32_t)(RTC_RSF_MASK & RTC_ISR_RESERVED_MASK));
 8006c00:	687b      	ldr	r3, [r7, #4]
 8006c02:	681b      	ldr	r3, [r3, #0]
 8006c04:	4a0d      	ldr	r2, [pc, #52]	; (8006c3c <HAL_RTC_WaitForSynchro+0x48>)
 8006c06:	60da      	str	r2, [r3, #12]

  /* Get tick */
  tickstart = HAL_GetTick();
 8006c08:	f7fc f974 	bl	8002ef4 <HAL_GetTick>
 8006c0c:	60f8      	str	r0, [r7, #12]

  /* Wait the registers to be synchronised */
  while ((hrtc->Instance->ISR & RTC_ISR_RSF) == 0U)
 8006c0e:	e009      	b.n	8006c24 <HAL_RTC_WaitForSynchro+0x30>
  {
    if ((HAL_GetTick() - tickstart) > RTC_TIMEOUT_VALUE)
 8006c10:	f7fc f970 	bl	8002ef4 <HAL_GetTick>
 8006c14:	4602      	mov	r2, r0
 8006c16:	68fb      	ldr	r3, [r7, #12]
 8006c18:	1ad3      	subs	r3, r2, r3
 8006c1a:	f5b3 7f7a 	cmp.w	r3, #1000	; 0x3e8
 8006c1e:	d901      	bls.n	8006c24 <HAL_RTC_WaitForSynchro+0x30>
    {
      return HAL_TIMEOUT;
 8006c20:	2303      	movs	r3, #3
 8006c22:	e007      	b.n	8006c34 <HAL_RTC_WaitForSynchro+0x40>
  while ((hrtc->Instance->ISR & RTC_ISR_RSF) == 0U)
 8006c24:	687b      	ldr	r3, [r7, #4]
 8006c26:	681b      	ldr	r3, [r3, #0]
 8006c28:	68db      	ldr	r3, [r3, #12]
 8006c2a:	f003 0320 	and.w	r3, r3, #32
 8006c2e:	2b00      	cmp	r3, #0
 8006c30:	d0ee      	beq.n	8006c10 <HAL_RTC_WaitForSynchro+0x1c>
    }
  }

  return HAL_OK;
 8006c32:	2300      	movs	r3, #0
}
 8006c34:	4618      	mov	r0, r3
 8006c36:	3710      	adds	r7, #16
 8006c38:	46bd      	mov	sp, r7
 8006c3a:	bd80      	pop	{r7, pc}
 8006c3c:	00017f5f 	.word	0x00017f5f

08006c40 <RTC_EnterInitMode>:
  * @param  hrtc pointer to a RTC_HandleTypeDef structure that contains
  *                the configuration information for RTC.
  * @retval HAL status
  */
HAL_StatusTypeDef RTC_EnterInitMode(RTC_HandleTypeDef *hrtc)
{
 8006c40:	b580      	push	{r7, lr}
 8006c42:	b084      	sub	sp, #16
 8006c44:	af00      	add	r7, sp, #0
 8006c46:	6078      	str	r0, [r7, #4]
  uint32_t tickstart = 0U;
 8006c48:	2300      	movs	r3, #0
 8006c4a:	60bb      	str	r3, [r7, #8]
  HAL_StatusTypeDef status = HAL_OK;
 8006c4c:	2300      	movs	r3, #0
 8006c4e:	73fb      	strb	r3, [r7, #15]

  /* Check that Initialization mode is not already set */
  if (READ_BIT(hrtc->Instance->ISR, RTC_ISR_INITF) == 0U)
 8006c50:	687b      	ldr	r3, [r7, #4]
 8006c52:	681b      	ldr	r3, [r3, #0]
 8006c54:	68db      	ldr	r3, [r3, #12]
 8006c56:	f003 0340 	and.w	r3, r3, #64	; 0x40
 8006c5a:	2b00      	cmp	r3, #0
 8006c5c:	d122      	bne.n	8006ca4 <RTC_EnterInitMode+0x64>
  {
    /* Set INIT bit to enter Initialization mode */
    SET_BIT(hrtc->Instance->ISR, RTC_ISR_INIT);
 8006c5e:	687b      	ldr	r3, [r7, #4]
 8006c60:	681b      	ldr	r3, [r3, #0]
 8006c62:	68da      	ldr	r2, [r3, #12]
 8006c64:	687b      	ldr	r3, [r7, #4]
 8006c66:	681b      	ldr	r3, [r3, #0]
 8006c68:	f042 0280 	orr.w	r2, r2, #128	; 0x80
 8006c6c:	60da      	str	r2, [r3, #12]

    /* Get tick */
    tickstart = HAL_GetTick();
 8006c6e:	f7fc f941 	bl	8002ef4 <HAL_GetTick>
 8006c72:	60b8      	str	r0, [r7, #8]

    /* Wait till RTC is in INIT state and if timeout is reached exit */
    while ((READ_BIT(hrtc->Instance->ISR, RTC_ISR_INITF) == 0U) && (status != HAL_ERROR))
 8006c74:	e00c      	b.n	8006c90 <RTC_EnterInitMode+0x50>
    {
      if ((HAL_GetTick() - tickstart) > RTC_TIMEOUT_VALUE)
 8006c76:	f7fc f93d 	bl	8002ef4 <HAL_GetTick>
 8006c7a:	4602      	mov	r2, r0
 8006c7c:	68bb      	ldr	r3, [r7, #8]
 8006c7e:	1ad3      	subs	r3, r2, r3
 8006c80:	f5b3 7f7a 	cmp.w	r3, #1000	; 0x3e8
 8006c84:	d904      	bls.n	8006c90 <RTC_EnterInitMode+0x50>
      {
        /* Set RTC state */
        hrtc->State = HAL_RTC_STATE_ERROR;
 8006c86:	687b      	ldr	r3, [r7, #4]
 8006c88:	2204      	movs	r2, #4
 8006c8a:	775a      	strb	r2, [r3, #29]
        status = HAL_ERROR;
 8006c8c:	2301      	movs	r3, #1
 8006c8e:	73fb      	strb	r3, [r7, #15]
    while ((READ_BIT(hrtc->Instance->ISR, RTC_ISR_INITF) == 0U) && (status != HAL_ERROR))
 8006c90:	687b      	ldr	r3, [r7, #4]
 8006c92:	681b      	ldr	r3, [r3, #0]
 8006c94:	68db      	ldr	r3, [r3, #12]
 8006c96:	f003 0340 	and.w	r3, r3, #64	; 0x40
 8006c9a:	2b00      	cmp	r3, #0
 8006c9c:	d102      	bne.n	8006ca4 <RTC_EnterInitMode+0x64>
 8006c9e:	7bfb      	ldrb	r3, [r7, #15]
 8006ca0:	2b01      	cmp	r3, #1
 8006ca2:	d1e8      	bne.n	8006c76 <RTC_EnterInitMode+0x36>
      }
    }
  }

  return status;
 8006ca4:	7bfb      	ldrb	r3, [r7, #15]
}
 8006ca6:	4618      	mov	r0, r3
 8006ca8:	3710      	adds	r7, #16
 8006caa:	46bd      	mov	sp, r7
 8006cac:	bd80      	pop	{r7, pc}

08006cae <RTC_ExitInitMode>:
  * @param  hrtc pointer to a RTC_HandleTypeDef structure that contains
  *                the configuration information for RTC.
  * @retval HAL status
  */
HAL_StatusTypeDef RTC_ExitInitMode(RTC_HandleTypeDef *hrtc)
{
 8006cae:	b580      	push	{r7, lr}
 8006cb0:	b084      	sub	sp, #16
 8006cb2:	af00      	add	r7, sp, #0
 8006cb4:	6078      	str	r0, [r7, #4]
  HAL_StatusTypeDef status = HAL_OK;
 8006cb6:	2300      	movs	r3, #0
 8006cb8:	73fb      	strb	r3, [r7, #15]

  /* Clear INIT bit to exit Initialization mode */
  CLEAR_BIT(hrtc->Instance->ISR, RTC_ISR_INIT);
 8006cba:	687b      	ldr	r3, [r7, #4]
 8006cbc:	681b      	ldr	r3, [r3, #0]
 8006cbe:	68da      	ldr	r2, [r3, #12]
 8006cc0:	687b      	ldr	r3, [r7, #4]
 8006cc2:	681b      	ldr	r3, [r3, #0]
 8006cc4:	f022 0280 	bic.w	r2, r2, #128	; 0x80
 8006cc8:	60da      	str	r2, [r3, #12]

  /* If CR_BYPSHAD bit = 0, wait for synchro */
  if (READ_BIT(hrtc->Instance->CR, RTC_CR_BYPSHAD) == 0U)
 8006cca:	687b      	ldr	r3, [r7, #4]
 8006ccc:	681b      	ldr	r3, [r3, #0]
 8006cce:	689b      	ldr	r3, [r3, #8]
 8006cd0:	f003 0320 	and.w	r3, r3, #32
 8006cd4:	2b00      	cmp	r3, #0
 8006cd6:	d10a      	bne.n	8006cee <RTC_ExitInitMode+0x40>
  {
    if (HAL_RTC_WaitForSynchro(hrtc) != HAL_OK)
 8006cd8:	6878      	ldr	r0, [r7, #4]
 8006cda:	f7ff ff8b 	bl	8006bf4 <HAL_RTC_WaitForSynchro>
 8006cde:	4603      	mov	r3, r0
 8006ce0:	2b00      	cmp	r3, #0
 8006ce2:	d004      	beq.n	8006cee <RTC_ExitInitMode+0x40>
    {
      /* Set RTC state */
      hrtc->State = HAL_RTC_STATE_ERROR;
 8006ce4:	687b      	ldr	r3, [r7, #4]
 8006ce6:	2204      	movs	r2, #4
 8006ce8:	775a      	strb	r2, [r3, #29]
      status = HAL_ERROR;
 8006cea:	2301      	movs	r3, #1
 8006cec:	73fb      	strb	r3, [r7, #15]
    }
  }

  return status;
 8006cee:	7bfb      	ldrb	r3, [r7, #15]
}
 8006cf0:	4618      	mov	r0, r3
 8006cf2:	3710      	adds	r7, #16
 8006cf4:	46bd      	mov	sp, r7
 8006cf6:	bd80      	pop	{r7, pc}

08006cf8 <RTC_ByteToBcd2>:
  * @brief  Converts a 2-digit number from decimal to BCD format.
  * @param  number decimal-formatted number (from 0 to 99) to be converted
  * @retval Converted byte
  */
uint8_t RTC_ByteToBcd2(uint8_t number)
{
 8006cf8:	b480      	push	{r7}
 8006cfa:	b085      	sub	sp, #20
 8006cfc:	af00      	add	r7, sp, #0
 8006cfe:	4603      	mov	r3, r0
 8006d00:	71fb      	strb	r3, [r7, #7]
  uint32_t bcdhigh = 0U;
 8006d02:	2300      	movs	r3, #0
 8006d04:	60fb      	str	r3, [r7, #12]

  while (number >= 10U)
 8006d06:	e005      	b.n	8006d14 <RTC_ByteToBcd2+0x1c>
  {
    bcdhigh++;
 8006d08:	68fb      	ldr	r3, [r7, #12]
 8006d0a:	3301      	adds	r3, #1
 8006d0c:	60fb      	str	r3, [r7, #12]
    number -= 10U;
 8006d0e:	79fb      	ldrb	r3, [r7, #7]
 8006d10:	3b0a      	subs	r3, #10
 8006d12:	71fb      	strb	r3, [r7, #7]
  while (number >= 10U)
 8006d14:	79fb      	ldrb	r3, [r7, #7]
 8006d16:	2b09      	cmp	r3, #9
 8006d18:	d8f6      	bhi.n	8006d08 <RTC_ByteToBcd2+0x10>
  }

  return ((uint8_t)(bcdhigh << 4U) | number);
 8006d1a:	68fb      	ldr	r3, [r7, #12]
 8006d1c:	b2db      	uxtb	r3, r3
 8006d1e:	011b      	lsls	r3, r3, #4
 8006d20:	b2da      	uxtb	r2, r3
 8006d22:	79fb      	ldrb	r3, [r7, #7]
 8006d24:	4313      	orrs	r3, r2
 8006d26:	b2db      	uxtb	r3, r3
}
 8006d28:	4618      	mov	r0, r3
 8006d2a:	3714      	adds	r7, #20
 8006d2c:	46bd      	mov	sp, r7
 8006d2e:	f85d 7b04 	ldr.w	r7, [sp], #4
 8006d32:	4770      	bx	lr

08006d34 <RTC_Bcd2ToByte>:
  * @brief  Converts a 2-digit number from BCD to decimal format.
  * @param  number BCD-formatted number (from 00 to 99) to be converted
  * @retval Converted word
  */
uint8_t RTC_Bcd2ToByte(uint8_t number)
{
 8006d34:	b480      	push	{r7}
 8006d36:	b085      	sub	sp, #20
 8006d38:	af00      	add	r7, sp, #0
 8006d3a:	4603      	mov	r3, r0
 8006d3c:	71fb      	strb	r3, [r7, #7]
  uint32_t tens = 0U;
 8006d3e:	2300      	movs	r3, #0
 8006d40:	60fb      	str	r3, [r7, #12]
  tens = (((uint32_t)number & 0xF0U) >> 4U) * 10U;
 8006d42:	79fb      	ldrb	r3, [r7, #7]
 8006d44:	091b      	lsrs	r3, r3, #4
 8006d46:	b2db      	uxtb	r3, r3
 8006d48:	461a      	mov	r2, r3
 8006d4a:	4613      	mov	r3, r2
 8006d4c:	009b      	lsls	r3, r3, #2
 8006d4e:	4413      	add	r3, r2
 8006d50:	005b      	lsls	r3, r3, #1
 8006d52:	60fb      	str	r3, [r7, #12]
  return (uint8_t)(tens + ((uint32_t)number & 0x0FU));
 8006d54:	68fb      	ldr	r3, [r7, #12]
 8006d56:	b2da      	uxtb	r2, r3
 8006d58:	79fb      	ldrb	r3, [r7, #7]
 8006d5a:	f003 030f 	and.w	r3, r3, #15
 8006d5e:	b2db      	uxtb	r3, r3
 8006d60:	4413      	add	r3, r2
 8006d62:	b2db      	uxtb	r3, r3
}
 8006d64:	4618      	mov	r0, r3
 8006d66:	3714      	adds	r7, #20
 8006d68:	46bd      	mov	sp, r7
 8006d6a:	f85d 7b04 	ldr.w	r7, [sp], #4
 8006d6e:	4770      	bx	lr

08006d70 <HAL_SPI_Init>:
  * @param  hspi pointer to a SPI_HandleTypeDef structure that contains
  *               the configuration information for SPI module.
  * @retval HAL status
  */
HAL_StatusTypeDef HAL_SPI_Init(SPI_HandleTypeDef *hspi)
{
 8006d70:	b580      	push	{r7, lr}
 8006d72:	b082      	sub	sp, #8
 8006d74:	af00      	add	r7, sp, #0
 8006d76:	6078      	str	r0, [r7, #4]
  /* Check the SPI handle allocation */
  if (hspi == NULL)
 8006d78:	687b      	ldr	r3, [r7, #4]
 8006d7a:	2b00      	cmp	r3, #0
 8006d7c:	d101      	bne.n	8006d82 <HAL_SPI_Init+0x12>
  {
    return HAL_ERROR;
 8006d7e:	2301      	movs	r3, #1
 8006d80:	e07b      	b.n	8006e7a <HAL_SPI_Init+0x10a>
  assert_param(IS_SPI_DATASIZE(hspi->Init.DataSize));
  assert_param(IS_SPI_NSS(hspi->Init.NSS));
  assert_param(IS_SPI_BAUDRATE_PRESCALER(hspi->Init.BaudRatePrescaler));
  assert_param(IS_SPI_FIRST_BIT(hspi->Init.FirstBit));
  assert_param(IS_SPI_TIMODE(hspi->Init.TIMode));
  if (hspi->Init.TIMode == SPI_TIMODE_DISABLE)
 8006d82:	687b      	ldr	r3, [r7, #4]
 8006d84:	6a5b      	ldr	r3, [r3, #36]	; 0x24
 8006d86:	2b00      	cmp	r3, #0
 8006d88:	d108      	bne.n	8006d9c <HAL_SPI_Init+0x2c>
  {
    assert_param(IS_SPI_CPOL(hspi->Init.CLKPolarity));
    assert_param(IS_SPI_CPHA(hspi->Init.CLKPhase));

    if (hspi->Init.Mode == SPI_MODE_MASTER)
 8006d8a:	687b      	ldr	r3, [r7, #4]
 8006d8c:	685b      	ldr	r3, [r3, #4]
 8006d8e:	f5b3 7f82 	cmp.w	r3, #260	; 0x104
 8006d92:	d009      	beq.n	8006da8 <HAL_SPI_Init+0x38>
      assert_param(IS_SPI_BAUDRATE_PRESCALER(hspi->Init.BaudRatePrescaler));
    }
    else
    {
      /* Baudrate prescaler not use in Motoraola Slave mode. force to default value */
      hspi->Init.BaudRatePrescaler = SPI_BAUDRATEPRESCALER_2;
 8006d94:	687b      	ldr	r3, [r7, #4]
 8006d96:	2200      	movs	r2, #0
 8006d98:	61da      	str	r2, [r3, #28]
 8006d9a:	e005      	b.n	8006da8 <HAL_SPI_Init+0x38>
  else
  {
    assert_param(IS_SPI_BAUDRATE_PRESCALER(hspi->Init.BaudRatePrescaler));

    /* Force polarity and phase to TI protocaol requirements */
    hspi->Init.CLKPolarity = SPI_POLARITY_LOW;
 8006d9c:	687b      	ldr	r3, [r7, #4]
 8006d9e:	2200      	movs	r2, #0
 8006da0:	611a      	str	r2, [r3, #16]
    hspi->Init.CLKPhase    = SPI_PHASE_1EDGE;
 8006da2:	687b      	ldr	r3, [r7, #4]
 8006da4:	2200      	movs	r2, #0
 8006da6:	615a      	str	r2, [r3, #20]
  if (hspi->Init.CRCCalculation == SPI_CRCCALCULATION_ENABLE)
  {
    assert_param(IS_SPI_CRC_POLYNOMIAL(hspi->Init.CRCPolynomial));
  }
#else
  hspi->Init.CRCCalculation = SPI_CRCCALCULATION_DISABLE;
 8006da8:	687b      	ldr	r3, [r7, #4]
 8006daa:	2200      	movs	r2, #0
 8006dac:	629a      	str	r2, [r3, #40]	; 0x28
#endif /* USE_SPI_CRC */

  if (hspi->State == HAL_SPI_STATE_RESET)
 8006dae:	687b      	ldr	r3, [r7, #4]
 8006db0:	f893 3051 	ldrb.w	r3, [r3, #81]	; 0x51
 8006db4:	b2db      	uxtb	r3, r3
 8006db6:	2b00      	cmp	r3, #0
 8006db8:	d106      	bne.n	8006dc8 <HAL_SPI_Init+0x58>
  {
    /* Allocate lock resource and initialize it */
    hspi->Lock = HAL_UNLOCKED;
 8006dba:	687b      	ldr	r3, [r7, #4]
 8006dbc:	2200      	movs	r2, #0
 8006dbe:	f883 2050 	strb.w	r2, [r3, #80]	; 0x50

    /* Init the low level hardware : GPIO, CLOCK, NVIC... */
    hspi->MspInitCallback(hspi);
#else
    /* Init the low level hardware : GPIO, CLOCK, NVIC... */
    HAL_SPI_MspInit(hspi);
 8006dc2:	6878      	ldr	r0, [r7, #4]
 8006dc4:	f7fb fd42 	bl	800284c <HAL_SPI_MspInit>
#endif /* USE_HAL_SPI_REGISTER_CALLBACKS */
  }

  hspi->State = HAL_SPI_STATE_BUSY;
 8006dc8:	687b      	ldr	r3, [r7, #4]
 8006dca:	2202      	movs	r2, #2
 8006dcc:	f883 2051 	strb.w	r2, [r3, #81]	; 0x51

  /* Disable the selected SPI peripheral */
  __HAL_SPI_DISABLE(hspi);
 8006dd0:	687b      	ldr	r3, [r7, #4]
 8006dd2:	681b      	ldr	r3, [r3, #0]
 8006dd4:	681a      	ldr	r2, [r3, #0]
 8006dd6:	687b      	ldr	r3, [r7, #4]
 8006dd8:	681b      	ldr	r3, [r3, #0]
 8006dda:	f022 0240 	bic.w	r2, r2, #64	; 0x40
 8006dde:	601a      	str	r2, [r3, #0]

  /*----------------------- SPIx CR1 & CR2 Configuration ---------------------*/
  /* Configure : SPI Mode, Communication Mode, Data size, Clock polarity and phase, NSS management,
  Communication speed, First bit and CRC calculation state */
  WRITE_REG(hspi->Instance->CR1, ((hspi->Init.Mode & (SPI_CR1_MSTR | SPI_CR1_SSI)) |
 8006de0:	687b      	ldr	r3, [r7, #4]
 8006de2:	685b      	ldr	r3, [r3, #4]
 8006de4:	f403 7282 	and.w	r2, r3, #260	; 0x104
 8006de8:	687b      	ldr	r3, [r7, #4]
 8006dea:	689b      	ldr	r3, [r3, #8]
 8006dec:	f403 4304 	and.w	r3, r3, #33792	; 0x8400
 8006df0:	431a      	orrs	r2, r3
 8006df2:	687b      	ldr	r3, [r7, #4]
 8006df4:	68db      	ldr	r3, [r3, #12]
 8006df6:	f403 6300 	and.w	r3, r3, #2048	; 0x800
 8006dfa:	431a      	orrs	r2, r3
 8006dfc:	687b      	ldr	r3, [r7, #4]
 8006dfe:	691b      	ldr	r3, [r3, #16]
 8006e00:	f003 0302 	and.w	r3, r3, #2
 8006e04:	431a      	orrs	r2, r3
 8006e06:	687b      	ldr	r3, [r7, #4]
 8006e08:	695b      	ldr	r3, [r3, #20]
 8006e0a:	f003 0301 	and.w	r3, r3, #1
 8006e0e:	431a      	orrs	r2, r3
 8006e10:	687b      	ldr	r3, [r7, #4]
 8006e12:	699b      	ldr	r3, [r3, #24]
 8006e14:	f403 7300 	and.w	r3, r3, #512	; 0x200
 8006e18:	431a      	orrs	r2, r3
 8006e1a:	687b      	ldr	r3, [r7, #4]
 8006e1c:	69db      	ldr	r3, [r3, #28]
 8006e1e:	f003 0338 	and.w	r3, r3, #56	; 0x38
 8006e22:	431a      	orrs	r2, r3
 8006e24:	687b      	ldr	r3, [r7, #4]
 8006e26:	6a1b      	ldr	r3, [r3, #32]
 8006e28:	f003 0380 	and.w	r3, r3, #128	; 0x80
 8006e2c:	ea42 0103 	orr.w	r1, r2, r3
 8006e30:	687b      	ldr	r3, [r7, #4]
 8006e32:	6a9b      	ldr	r3, [r3, #40]	; 0x28
 8006e34:	f403 5200 	and.w	r2, r3, #8192	; 0x2000
 8006e38:	687b      	ldr	r3, [r7, #4]
 8006e3a:	681b      	ldr	r3, [r3, #0]
 8006e3c:	430a      	orrs	r2, r1
 8006e3e:	601a      	str	r2, [r3, #0]
                                  (hspi->Init.BaudRatePrescaler & SPI_CR1_BR_Msk) |
                                  (hspi->Init.FirstBit  & SPI_CR1_LSBFIRST) |
                                  (hspi->Init.CRCCalculation & SPI_CR1_CRCEN)));

  /* Configure : NSS management, TI Mode */
  WRITE_REG(hspi->Instance->CR2, (((hspi->Init.NSS >> 16U) & SPI_CR2_SSOE) | (hspi->Init.TIMode & SPI_CR2_FRF)));
 8006e40:	687b      	ldr	r3, [r7, #4]
 8006e42:	699b      	ldr	r3, [r3, #24]
 8006e44:	0c1b      	lsrs	r3, r3, #16
 8006e46:	f003 0104 	and.w	r1, r3, #4
 8006e4a:	687b      	ldr	r3, [r7, #4]
 8006e4c:	6a5b      	ldr	r3, [r3, #36]	; 0x24
 8006e4e:	f003 0210 	and.w	r2, r3, #16
 8006e52:	687b      	ldr	r3, [r7, #4]
 8006e54:	681b      	ldr	r3, [r3, #0]
 8006e56:	430a      	orrs	r2, r1
 8006e58:	605a      	str	r2, [r3, #4]
  }
#endif /* USE_SPI_CRC */

#if defined(SPI_I2SCFGR_I2SMOD)
  /* Activate the SPI mode (Make sure that I2SMOD bit in I2SCFGR register is reset) */
  CLEAR_BIT(hspi->Instance->I2SCFGR, SPI_I2SCFGR_I2SMOD);
 8006e5a:	687b      	ldr	r3, [r7, #4]
 8006e5c:	681b      	ldr	r3, [r3, #0]
 8006e5e:	69da      	ldr	r2, [r3, #28]
 8006e60:	687b      	ldr	r3, [r7, #4]
 8006e62:	681b      	ldr	r3, [r3, #0]
 8006e64:	f422 6200 	bic.w	r2, r2, #2048	; 0x800
 8006e68:	61da      	str	r2, [r3, #28]
#endif /* SPI_I2SCFGR_I2SMOD */

  hspi->ErrorCode = HAL_SPI_ERROR_NONE;
 8006e6a:	687b      	ldr	r3, [r7, #4]
 8006e6c:	2200      	movs	r2, #0
 8006e6e:	655a      	str	r2, [r3, #84]	; 0x54
  hspi->State     = HAL_SPI_STATE_READY;
 8006e70:	687b      	ldr	r3, [r7, #4]
 8006e72:	2201      	movs	r2, #1
 8006e74:	f883 2051 	strb.w	r2, [r3, #81]	; 0x51

  return HAL_OK;
 8006e78:	2300      	movs	r3, #0
}
 8006e7a:	4618      	mov	r0, r3
 8006e7c:	3708      	adds	r7, #8
 8006e7e:	46bd      	mov	sp, r7
 8006e80:	bd80      	pop	{r7, pc}

08006e82 <HAL_SPI_Transmit>:
  * @param  Size amount of data to be sent
  * @param  Timeout Timeout duration
  * @retval HAL status
  */
HAL_StatusTypeDef HAL_SPI_Transmit(SPI_HandleTypeDef *hspi, uint8_t *pData, uint16_t Size, uint32_t Timeout)
{
 8006e82:	b580      	push	{r7, lr}
 8006e84:	b088      	sub	sp, #32
 8006e86:	af00      	add	r7, sp, #0
 8006e88:	60f8      	str	r0, [r7, #12]
 8006e8a:	60b9      	str	r1, [r7, #8]
 8006e8c:	603b      	str	r3, [r7, #0]
 8006e8e:	4613      	mov	r3, r2
 8006e90:	80fb      	strh	r3, [r7, #6]
  uint32_t tickstart;
  HAL_StatusTypeDef errorcode = HAL_OK;
 8006e92:	2300      	movs	r3, #0
 8006e94:	77fb      	strb	r3, [r7, #31]

  /* Check Direction parameter */
  assert_param(IS_SPI_DIRECTION_2LINES_OR_1LINE(hspi->Init.Direction));

  /* Process Locked */
  __HAL_LOCK(hspi);
 8006e96:	68fb      	ldr	r3, [r7, #12]
 8006e98:	f893 3050 	ldrb.w	r3, [r3, #80]	; 0x50
 8006e9c:	2b01      	cmp	r3, #1
 8006e9e:	d101      	bne.n	8006ea4 <HAL_SPI_Transmit+0x22>
 8006ea0:	2302      	movs	r3, #2
 8006ea2:	e12d      	b.n	8007100 <HAL_SPI_Transmit+0x27e>
 8006ea4:	68fb      	ldr	r3, [r7, #12]
 8006ea6:	2201      	movs	r2, #1
 8006ea8:	f883 2050 	strb.w	r2, [r3, #80]	; 0x50

  /* Init tickstart for timeout management*/
  tickstart = HAL_GetTick();
 8006eac:	f7fc f822 	bl	8002ef4 <HAL_GetTick>
 8006eb0:	61b8      	str	r0, [r7, #24]
  initial_TxXferCount = Size;
 8006eb2:	88fb      	ldrh	r3, [r7, #6]
 8006eb4:	82fb      	strh	r3, [r7, #22]

  if (hspi->State != HAL_SPI_STATE_READY)
 8006eb6:	68fb      	ldr	r3, [r7, #12]
 8006eb8:	f893 3051 	ldrb.w	r3, [r3, #81]	; 0x51
 8006ebc:	b2db      	uxtb	r3, r3
 8006ebe:	2b01      	cmp	r3, #1
 8006ec0:	d002      	beq.n	8006ec8 <HAL_SPI_Transmit+0x46>
  {
    errorcode = HAL_BUSY;
 8006ec2:	2302      	movs	r3, #2
 8006ec4:	77fb      	strb	r3, [r7, #31]
    goto error;
 8006ec6:	e116      	b.n	80070f6 <HAL_SPI_Transmit+0x274>
  }

  if ((pData == NULL) || (Size == 0U))
 8006ec8:	68bb      	ldr	r3, [r7, #8]
 8006eca:	2b00      	cmp	r3, #0
 8006ecc:	d002      	beq.n	8006ed4 <HAL_SPI_Transmit+0x52>
 8006ece:	88fb      	ldrh	r3, [r7, #6]
 8006ed0:	2b00      	cmp	r3, #0
 8006ed2:	d102      	bne.n	8006eda <HAL_SPI_Transmit+0x58>
  {
    errorcode = HAL_ERROR;
 8006ed4:	2301      	movs	r3, #1
 8006ed6:	77fb      	strb	r3, [r7, #31]
    goto error;
 8006ed8:	e10d      	b.n	80070f6 <HAL_SPI_Transmit+0x274>
  }

  /* Set the transaction information */
  hspi->State       = HAL_SPI_STATE_BUSY_TX;
 8006eda:	68fb      	ldr	r3, [r7, #12]
 8006edc:	2203      	movs	r2, #3
 8006ede:	f883 2051 	strb.w	r2, [r3, #81]	; 0x51
  hspi->ErrorCode   = HAL_SPI_ERROR_NONE;
 8006ee2:	68fb      	ldr	r3, [r7, #12]
 8006ee4:	2200      	movs	r2, #0
 8006ee6:	655a      	str	r2, [r3, #84]	; 0x54
  hspi->pTxBuffPtr  = (uint8_t *)pData;
 8006ee8:	68fb      	ldr	r3, [r7, #12]
 8006eea:	68ba      	ldr	r2, [r7, #8]
 8006eec:	631a      	str	r2, [r3, #48]	; 0x30
  hspi->TxXferSize  = Size;
 8006eee:	68fb      	ldr	r3, [r7, #12]
 8006ef0:	88fa      	ldrh	r2, [r7, #6]
 8006ef2:	869a      	strh	r2, [r3, #52]	; 0x34
  hspi->TxXferCount = Size;
 8006ef4:	68fb      	ldr	r3, [r7, #12]
 8006ef6:	88fa      	ldrh	r2, [r7, #6]
 8006ef8:	86da      	strh	r2, [r3, #54]	; 0x36

  /*Init field not used in handle to zero */
  hspi->pRxBuffPtr  = (uint8_t *)NULL;
 8006efa:	68fb      	ldr	r3, [r7, #12]
 8006efc:	2200      	movs	r2, #0
 8006efe:	639a      	str	r2, [r3, #56]	; 0x38
  hspi->RxXferSize  = 0U;
 8006f00:	68fb      	ldr	r3, [r7, #12]
 8006f02:	2200      	movs	r2, #0
 8006f04:	879a      	strh	r2, [r3, #60]	; 0x3c
  hspi->RxXferCount = 0U;
 8006f06:	68fb      	ldr	r3, [r7, #12]
 8006f08:	2200      	movs	r2, #0
 8006f0a:	87da      	strh	r2, [r3, #62]	; 0x3e
  hspi->TxISR       = NULL;
 8006f0c:	68fb      	ldr	r3, [r7, #12]
 8006f0e:	2200      	movs	r2, #0
 8006f10:	645a      	str	r2, [r3, #68]	; 0x44
  hspi->RxISR       = NULL;
 8006f12:	68fb      	ldr	r3, [r7, #12]
 8006f14:	2200      	movs	r2, #0
 8006f16:	641a      	str	r2, [r3, #64]	; 0x40

  /* Configure communication direction : 1Line */
  if (hspi->Init.Direction == SPI_DIRECTION_1LINE)
 8006f18:	68fb      	ldr	r3, [r7, #12]
 8006f1a:	689b      	ldr	r3, [r3, #8]
 8006f1c:	f5b3 4f00 	cmp.w	r3, #32768	; 0x8000
 8006f20:	d10f      	bne.n	8006f42 <HAL_SPI_Transmit+0xc0>
  {
    /* Disable SPI Peripheral before set 1Line direction (BIDIOE bit) */
    __HAL_SPI_DISABLE(hspi);
 8006f22:	68fb      	ldr	r3, [r7, #12]
 8006f24:	681b      	ldr	r3, [r3, #0]
 8006f26:	681a      	ldr	r2, [r3, #0]
 8006f28:	68fb      	ldr	r3, [r7, #12]
 8006f2a:	681b      	ldr	r3, [r3, #0]
 8006f2c:	f022 0240 	bic.w	r2, r2, #64	; 0x40
 8006f30:	601a      	str	r2, [r3, #0]
    SPI_1LINE_TX(hspi);
 8006f32:	68fb      	ldr	r3, [r7, #12]
 8006f34:	681b      	ldr	r3, [r3, #0]
 8006f36:	681a      	ldr	r2, [r3, #0]
 8006f38:	68fb      	ldr	r3, [r7, #12]
 8006f3a:	681b      	ldr	r3, [r3, #0]
 8006f3c:	f442 4280 	orr.w	r2, r2, #16384	; 0x4000
 8006f40:	601a      	str	r2, [r3, #0]
    SPI_RESET_CRC(hspi);
  }
#endif /* USE_SPI_CRC */

  /* Check if the SPI is already enabled */
  if ((hspi->Instance->CR1 & SPI_CR1_SPE) != SPI_CR1_SPE)
 8006f42:	68fb      	ldr	r3, [r7, #12]
 8006f44:	681b      	ldr	r3, [r3, #0]
 8006f46:	681b      	ldr	r3, [r3, #0]
 8006f48:	f003 0340 	and.w	r3, r3, #64	; 0x40
 8006f4c:	2b40      	cmp	r3, #64	; 0x40
 8006f4e:	d007      	beq.n	8006f60 <HAL_SPI_Transmit+0xde>
  {
    /* Enable SPI peripheral */
    __HAL_SPI_ENABLE(hspi);
 8006f50:	68fb      	ldr	r3, [r7, #12]
 8006f52:	681b      	ldr	r3, [r3, #0]
 8006f54:	681a      	ldr	r2, [r3, #0]
 8006f56:	68fb      	ldr	r3, [r7, #12]
 8006f58:	681b      	ldr	r3, [r3, #0]
 8006f5a:	f042 0240 	orr.w	r2, r2, #64	; 0x40
 8006f5e:	601a      	str	r2, [r3, #0]
  }

  /* Transmit data in 16 Bit mode */
  if (hspi->Init.DataSize == SPI_DATASIZE_16BIT)
 8006f60:	68fb      	ldr	r3, [r7, #12]
 8006f62:	68db      	ldr	r3, [r3, #12]
 8006f64:	f5b3 6f00 	cmp.w	r3, #2048	; 0x800
 8006f68:	d14f      	bne.n	800700a <HAL_SPI_Transmit+0x188>
  {
    if ((hspi->Init.Mode == SPI_MODE_SLAVE) || (initial_TxXferCount == 0x01U))
 8006f6a:	68fb      	ldr	r3, [r7, #12]
 8006f6c:	685b      	ldr	r3, [r3, #4]
 8006f6e:	2b00      	cmp	r3, #0
 8006f70:	d002      	beq.n	8006f78 <HAL_SPI_Transmit+0xf6>
 8006f72:	8afb      	ldrh	r3, [r7, #22]
 8006f74:	2b01      	cmp	r3, #1
 8006f76:	d142      	bne.n	8006ffe <HAL_SPI_Transmit+0x17c>
    {
      hspi->Instance->DR = *((uint16_t *)hspi->pTxBuffPtr);
 8006f78:	68fb      	ldr	r3, [r7, #12]
 8006f7a:	6b1b      	ldr	r3, [r3, #48]	; 0x30
 8006f7c:	881a      	ldrh	r2, [r3, #0]
 8006f7e:	68fb      	ldr	r3, [r7, #12]
 8006f80:	681b      	ldr	r3, [r3, #0]
 8006f82:	60da      	str	r2, [r3, #12]
      hspi->pTxBuffPtr += sizeof(uint16_t);
 8006f84:	68fb      	ldr	r3, [r7, #12]
 8006f86:	6b1b      	ldr	r3, [r3, #48]	; 0x30
 8006f88:	1c9a      	adds	r2, r3, #2
 8006f8a:	68fb      	ldr	r3, [r7, #12]
 8006f8c:	631a      	str	r2, [r3, #48]	; 0x30
      hspi->TxXferCount--;
 8006f8e:	68fb      	ldr	r3, [r7, #12]
 8006f90:	8edb      	ldrh	r3, [r3, #54]	; 0x36
 8006f92:	b29b      	uxth	r3, r3
 8006f94:	3b01      	subs	r3, #1
 8006f96:	b29a      	uxth	r2, r3
 8006f98:	68fb      	ldr	r3, [r7, #12]
 8006f9a:	86da      	strh	r2, [r3, #54]	; 0x36
    }
    /* Transmit data in 16 Bit mode */
    while (hspi->TxXferCount > 0U)
 8006f9c:	e02f      	b.n	8006ffe <HAL_SPI_Transmit+0x17c>
    {
      /* Wait until TXE flag is set to send data */
      if (__HAL_SPI_GET_FLAG(hspi, SPI_FLAG_TXE))
 8006f9e:	68fb      	ldr	r3, [r7, #12]
 8006fa0:	681b      	ldr	r3, [r3, #0]
 8006fa2:	689b      	ldr	r3, [r3, #8]
 8006fa4:	f003 0302 	and.w	r3, r3, #2
 8006fa8:	2b02      	cmp	r3, #2
 8006faa:	d112      	bne.n	8006fd2 <HAL_SPI_Transmit+0x150>
      {
        hspi->Instance->DR = *((uint16_t *)hspi->pTxBuffPtr);
 8006fac:	68fb      	ldr	r3, [r7, #12]
 8006fae:	6b1b      	ldr	r3, [r3, #48]	; 0x30
 8006fb0:	881a      	ldrh	r2, [r3, #0]
 8006fb2:	68fb      	ldr	r3, [r7, #12]
 8006fb4:	681b      	ldr	r3, [r3, #0]
 8006fb6:	60da      	str	r2, [r3, #12]
        hspi->pTxBuffPtr += sizeof(uint16_t);
 8006fb8:	68fb      	ldr	r3, [r7, #12]
 8006fba:	6b1b      	ldr	r3, [r3, #48]	; 0x30
 8006fbc:	1c9a      	adds	r2, r3, #2
 8006fbe:	68fb      	ldr	r3, [r7, #12]
 8006fc0:	631a      	str	r2, [r3, #48]	; 0x30
        hspi->TxXferCount--;
 8006fc2:	68fb      	ldr	r3, [r7, #12]
 8006fc4:	8edb      	ldrh	r3, [r3, #54]	; 0x36
 8006fc6:	b29b      	uxth	r3, r3
 8006fc8:	3b01      	subs	r3, #1
 8006fca:	b29a      	uxth	r2, r3
 8006fcc:	68fb      	ldr	r3, [r7, #12]
 8006fce:	86da      	strh	r2, [r3, #54]	; 0x36
 8006fd0:	e015      	b.n	8006ffe <HAL_SPI_Transmit+0x17c>
      }
      else
      {
        /* Timeout management */
        if ((((HAL_GetTick() - tickstart) >=  Timeout) && (Timeout != HAL_MAX_DELAY)) || (Timeout == 0U))
 8006fd2:	f7fb ff8f 	bl	8002ef4 <HAL_GetTick>
 8006fd6:	4602      	mov	r2, r0
 8006fd8:	69bb      	ldr	r3, [r7, #24]
 8006fda:	1ad3      	subs	r3, r2, r3
 8006fdc:	683a      	ldr	r2, [r7, #0]
 8006fde:	429a      	cmp	r2, r3
 8006fe0:	d803      	bhi.n	8006fea <HAL_SPI_Transmit+0x168>
 8006fe2:	683b      	ldr	r3, [r7, #0]
 8006fe4:	f1b3 3fff 	cmp.w	r3, #4294967295	; 0xffffffff
 8006fe8:	d102      	bne.n	8006ff0 <HAL_SPI_Transmit+0x16e>
 8006fea:	683b      	ldr	r3, [r7, #0]
 8006fec:	2b00      	cmp	r3, #0
 8006fee:	d106      	bne.n	8006ffe <HAL_SPI_Transmit+0x17c>
        {
          errorcode = HAL_TIMEOUT;
 8006ff0:	2303      	movs	r3, #3
 8006ff2:	77fb      	strb	r3, [r7, #31]
          hspi->State = HAL_SPI_STATE_READY;
 8006ff4:	68fb      	ldr	r3, [r7, #12]
 8006ff6:	2201      	movs	r2, #1
 8006ff8:	f883 2051 	strb.w	r2, [r3, #81]	; 0x51
          goto error;
 8006ffc:	e07b      	b.n	80070f6 <HAL_SPI_Transmit+0x274>
    while (hspi->TxXferCount > 0U)
 8006ffe:	68fb      	ldr	r3, [r7, #12]
 8007000:	8edb      	ldrh	r3, [r3, #54]	; 0x36
 8007002:	b29b      	uxth	r3, r3
 8007004:	2b00      	cmp	r3, #0
 8007006:	d1ca      	bne.n	8006f9e <HAL_SPI_Transmit+0x11c>
 8007008:	e050      	b.n	80070ac <HAL_SPI_Transmit+0x22a>
    }
  }
  /* Transmit data in 8 Bit mode */
  else
  {
    if ((hspi->Init.Mode == SPI_MODE_SLAVE) || (initial_TxXferCount == 0x01U))
 800700a:	68fb      	ldr	r3, [r7, #12]
 800700c:	685b      	ldr	r3, [r3, #4]
 800700e:	2b00      	cmp	r3, #0
 8007010:	d002      	beq.n	8007018 <HAL_SPI_Transmit+0x196>
 8007012:	8afb      	ldrh	r3, [r7, #22]
 8007014:	2b01      	cmp	r3, #1
 8007016:	d144      	bne.n	80070a2 <HAL_SPI_Transmit+0x220>
    {
      *((__IO uint8_t *)&hspi->Instance->DR) = (*hspi->pTxBuffPtr);
 8007018:	68fb      	ldr	r3, [r7, #12]
 800701a:	6b1a      	ldr	r2, [r3, #48]	; 0x30
 800701c:	68fb      	ldr	r3, [r7, #12]
 800701e:	681b      	ldr	r3, [r3, #0]
 8007020:	330c      	adds	r3, #12
 8007022:	7812      	ldrb	r2, [r2, #0]
 8007024:	701a      	strb	r2, [r3, #0]
      hspi->pTxBuffPtr += sizeof(uint8_t);
 8007026:	68fb      	ldr	r3, [r7, #12]
 8007028:	6b1b      	ldr	r3, [r3, #48]	; 0x30
 800702a:	1c5a      	adds	r2, r3, #1
 800702c:	68fb      	ldr	r3, [r7, #12]
 800702e:	631a      	str	r2, [r3, #48]	; 0x30
      hspi->TxXferCount--;
 8007030:	68fb      	ldr	r3, [r7, #12]
 8007032:	8edb      	ldrh	r3, [r3, #54]	; 0x36
 8007034:	b29b      	uxth	r3, r3
 8007036:	3b01      	subs	r3, #1
 8007038:	b29a      	uxth	r2, r3
 800703a:	68fb      	ldr	r3, [r7, #12]
 800703c:	86da      	strh	r2, [r3, #54]	; 0x36
    }
    while (hspi->TxXferCount > 0U)
 800703e:	e030      	b.n	80070a2 <HAL_SPI_Transmit+0x220>
    {
      /* Wait until TXE flag is set to send data */
      if (__HAL_SPI_GET_FLAG(hspi, SPI_FLAG_TXE))
 8007040:	68fb      	ldr	r3, [r7, #12]
 8007042:	681b      	ldr	r3, [r3, #0]
 8007044:	689b      	ldr	r3, [r3, #8]
 8007046:	f003 0302 	and.w	r3, r3, #2
 800704a:	2b02      	cmp	r3, #2
 800704c:	d113      	bne.n	8007076 <HAL_SPI_Transmit+0x1f4>
      {
        *((__IO uint8_t *)&hspi->Instance->DR) = (*hspi->pTxBuffPtr);
 800704e:	68fb      	ldr	r3, [r7, #12]
 8007050:	6b1a      	ldr	r2, [r3, #48]	; 0x30
 8007052:	68fb      	ldr	r3, [r7, #12]
 8007054:	681b      	ldr	r3, [r3, #0]
 8007056:	330c      	adds	r3, #12
 8007058:	7812      	ldrb	r2, [r2, #0]
 800705a:	701a      	strb	r2, [r3, #0]
        hspi->pTxBuffPtr += sizeof(uint8_t);
 800705c:	68fb      	ldr	r3, [r7, #12]
 800705e:	6b1b      	ldr	r3, [r3, #48]	; 0x30
 8007060:	1c5a      	adds	r2, r3, #1
 8007062:	68fb      	ldr	r3, [r7, #12]
 8007064:	631a      	str	r2, [r3, #48]	; 0x30
        hspi->TxXferCount--;
 8007066:	68fb      	ldr	r3, [r7, #12]
 8007068:	8edb      	ldrh	r3, [r3, #54]	; 0x36
 800706a:	b29b      	uxth	r3, r3
 800706c:	3b01      	subs	r3, #1
 800706e:	b29a      	uxth	r2, r3
 8007070:	68fb      	ldr	r3, [r7, #12]
 8007072:	86da      	strh	r2, [r3, #54]	; 0x36
 8007074:	e015      	b.n	80070a2 <HAL_SPI_Transmit+0x220>
      }
      else
      {
        /* Timeout management */
        if ((((HAL_GetTick() - tickstart) >=  Timeout) && (Timeout != HAL_MAX_DELAY)) || (Timeout == 0U))
 8007076:	f7fb ff3d 	bl	8002ef4 <HAL_GetTick>
 800707a:	4602      	mov	r2, r0
 800707c:	69bb      	ldr	r3, [r7, #24]
 800707e:	1ad3      	subs	r3, r2, r3
 8007080:	683a      	ldr	r2, [r7, #0]
 8007082:	429a      	cmp	r2, r3
 8007084:	d803      	bhi.n	800708e <HAL_SPI_Transmit+0x20c>
 8007086:	683b      	ldr	r3, [r7, #0]
 8007088:	f1b3 3fff 	cmp.w	r3, #4294967295	; 0xffffffff
 800708c:	d102      	bne.n	8007094 <HAL_SPI_Transmit+0x212>
 800708e:	683b      	ldr	r3, [r7, #0]
 8007090:	2b00      	cmp	r3, #0
 8007092:	d106      	bne.n	80070a2 <HAL_SPI_Transmit+0x220>
        {
          errorcode = HAL_TIMEOUT;
 8007094:	2303      	movs	r3, #3
 8007096:	77fb      	strb	r3, [r7, #31]
          hspi->State = HAL_SPI_STATE_READY;
 8007098:	68fb      	ldr	r3, [r7, #12]
 800709a:	2201      	movs	r2, #1
 800709c:	f883 2051 	strb.w	r2, [r3, #81]	; 0x51
          goto error;
 80070a0:	e029      	b.n	80070f6 <HAL_SPI_Transmit+0x274>
    while (hspi->TxXferCount > 0U)
 80070a2:	68fb      	ldr	r3, [r7, #12]
 80070a4:	8edb      	ldrh	r3, [r3, #54]	; 0x36
 80070a6:	b29b      	uxth	r3, r3
 80070a8:	2b00      	cmp	r3, #0
 80070aa:	d1c9      	bne.n	8007040 <HAL_SPI_Transmit+0x1be>
    SET_BIT(hspi->Instance->CR1, SPI_CR1_CRCNEXT);
  }
#endif /* USE_SPI_CRC */

  /* Check the end of the transaction */
  if (SPI_EndRxTxTransaction(hspi, Timeout, tickstart) != HAL_OK)
 80070ac:	69ba      	ldr	r2, [r7, #24]
 80070ae:	6839      	ldr	r1, [r7, #0]
 80070b0:	68f8      	ldr	r0, [r7, #12]
 80070b2:	f000 fd27 	bl	8007b04 <SPI_EndRxTxTransaction>
 80070b6:	4603      	mov	r3, r0
 80070b8:	2b00      	cmp	r3, #0
 80070ba:	d002      	beq.n	80070c2 <HAL_SPI_Transmit+0x240>
  {
    hspi->ErrorCode = HAL_SPI_ERROR_FLAG;
 80070bc:	68fb      	ldr	r3, [r7, #12]
 80070be:	2220      	movs	r2, #32
 80070c0:	655a      	str	r2, [r3, #84]	; 0x54
  }

  /* Clear overrun flag in 2 Lines communication mode because received is not read */
  if (hspi->Init.Direction == SPI_DIRECTION_2LINES)
 80070c2:	68fb      	ldr	r3, [r7, #12]
 80070c4:	689b      	ldr	r3, [r3, #8]
 80070c6:	2b00      	cmp	r3, #0
 80070c8:	d10a      	bne.n	80070e0 <HAL_SPI_Transmit+0x25e>
  {
    __HAL_SPI_CLEAR_OVRFLAG(hspi);
 80070ca:	2300      	movs	r3, #0
 80070cc:	613b      	str	r3, [r7, #16]
 80070ce:	68fb      	ldr	r3, [r7, #12]
 80070d0:	681b      	ldr	r3, [r3, #0]
 80070d2:	68db      	ldr	r3, [r3, #12]
 80070d4:	613b      	str	r3, [r7, #16]
 80070d6:	68fb      	ldr	r3, [r7, #12]
 80070d8:	681b      	ldr	r3, [r3, #0]
 80070da:	689b      	ldr	r3, [r3, #8]
 80070dc:	613b      	str	r3, [r7, #16]
 80070de:	693b      	ldr	r3, [r7, #16]
  }

  if (hspi->ErrorCode != HAL_SPI_ERROR_NONE)
 80070e0:	68fb      	ldr	r3, [r7, #12]
 80070e2:	6d5b      	ldr	r3, [r3, #84]	; 0x54
 80070e4:	2b00      	cmp	r3, #0
 80070e6:	d002      	beq.n	80070ee <HAL_SPI_Transmit+0x26c>
  {
    errorcode = HAL_ERROR;
 80070e8:	2301      	movs	r3, #1
 80070ea:	77fb      	strb	r3, [r7, #31]
 80070ec:	e003      	b.n	80070f6 <HAL_SPI_Transmit+0x274>
  }
  else
  {
    hspi->State = HAL_SPI_STATE_READY;
 80070ee:	68fb      	ldr	r3, [r7, #12]
 80070f0:	2201      	movs	r2, #1
 80070f2:	f883 2051 	strb.w	r2, [r3, #81]	; 0x51
  }

error:
  /* Process Unlocked */
  __HAL_UNLOCK(hspi);
 80070f6:	68fb      	ldr	r3, [r7, #12]
 80070f8:	2200      	movs	r2, #0
 80070fa:	f883 2050 	strb.w	r2, [r3, #80]	; 0x50
  return errorcode;
 80070fe:	7ffb      	ldrb	r3, [r7, #31]
}
 8007100:	4618      	mov	r0, r3
 8007102:	3720      	adds	r7, #32
 8007104:	46bd      	mov	sp, r7
 8007106:	bd80      	pop	{r7, pc}

08007108 <HAL_SPI_Receive>:
  * @param  Size amount of data to be received
  * @param  Timeout Timeout duration
  * @retval HAL status
  */
HAL_StatusTypeDef HAL_SPI_Receive(SPI_HandleTypeDef *hspi, uint8_t *pData, uint16_t Size, uint32_t Timeout)
{
 8007108:	b580      	push	{r7, lr}
 800710a:	b088      	sub	sp, #32
 800710c:	af02      	add	r7, sp, #8
 800710e:	60f8      	str	r0, [r7, #12]
 8007110:	60b9      	str	r1, [r7, #8]
 8007112:	603b      	str	r3, [r7, #0]
 8007114:	4613      	mov	r3, r2
 8007116:	80fb      	strh	r3, [r7, #6]
#if (USE_SPI_CRC != 0U)
  __IO uint32_t tmpreg = 0U;
#endif /* USE_SPI_CRC */
  uint32_t tickstart;
  HAL_StatusTypeDef errorcode = HAL_OK;
 8007118:	2300      	movs	r3, #0
 800711a:	75fb      	strb	r3, [r7, #23]

  if (hspi->State != HAL_SPI_STATE_READY)
 800711c:	68fb      	ldr	r3, [r7, #12]
 800711e:	f893 3051 	ldrb.w	r3, [r3, #81]	; 0x51
 8007122:	b2db      	uxtb	r3, r3
 8007124:	2b01      	cmp	r3, #1
 8007126:	d002      	beq.n	800712e <HAL_SPI_Receive+0x26>
  {
    errorcode = HAL_BUSY;
 8007128:	2302      	movs	r3, #2
 800712a:	75fb      	strb	r3, [r7, #23]
    goto error;
 800712c:	e0fb      	b.n	8007326 <HAL_SPI_Receive+0x21e>
  }

  if ((hspi->Init.Mode == SPI_MODE_MASTER) && (hspi->Init.Direction == SPI_DIRECTION_2LINES))
 800712e:	68fb      	ldr	r3, [r7, #12]
 8007130:	685b      	ldr	r3, [r3, #4]
 8007132:	f5b3 7f82 	cmp.w	r3, #260	; 0x104
 8007136:	d112      	bne.n	800715e <HAL_SPI_Receive+0x56>
 8007138:	68fb      	ldr	r3, [r7, #12]
 800713a:	689b      	ldr	r3, [r3, #8]
 800713c:	2b00      	cmp	r3, #0
 800713e:	d10e      	bne.n	800715e <HAL_SPI_Receive+0x56>
  {
    hspi->State = HAL_SPI_STATE_BUSY_RX;
 8007140:	68fb      	ldr	r3, [r7, #12]
 8007142:	2204      	movs	r2, #4
 8007144:	f883 2051 	strb.w	r2, [r3, #81]	; 0x51
    /* Call transmit-receive function to send Dummy data on Tx line and generate clock on CLK line */
    return HAL_SPI_TransmitReceive(hspi, pData, pData, Size, Timeout);
 8007148:	88fa      	ldrh	r2, [r7, #6]
 800714a:	683b      	ldr	r3, [r7, #0]
 800714c:	9300      	str	r3, [sp, #0]
 800714e:	4613      	mov	r3, r2
 8007150:	68ba      	ldr	r2, [r7, #8]
 8007152:	68b9      	ldr	r1, [r7, #8]
 8007154:	68f8      	ldr	r0, [r7, #12]
 8007156:	f000 f8ef 	bl	8007338 <HAL_SPI_TransmitReceive>
 800715a:	4603      	mov	r3, r0
 800715c:	e0e8      	b.n	8007330 <HAL_SPI_Receive+0x228>
  }

  /* Process Locked */
  __HAL_LOCK(hspi);
 800715e:	68fb      	ldr	r3, [r7, #12]
 8007160:	f893 3050 	ldrb.w	r3, [r3, #80]	; 0x50
 8007164:	2b01      	cmp	r3, #1
 8007166:	d101      	bne.n	800716c <HAL_SPI_Receive+0x64>
 8007168:	2302      	movs	r3, #2
 800716a:	e0e1      	b.n	8007330 <HAL_SPI_Receive+0x228>
 800716c:	68fb      	ldr	r3, [r7, #12]
 800716e:	2201      	movs	r2, #1
 8007170:	f883 2050 	strb.w	r2, [r3, #80]	; 0x50

  /* Init tickstart for timeout management*/
  tickstart = HAL_GetTick();
 8007174:	f7fb febe 	bl	8002ef4 <HAL_GetTick>
 8007178:	6138      	str	r0, [r7, #16]

  if ((pData == NULL) || (Size == 0U))
 800717a:	68bb      	ldr	r3, [r7, #8]
 800717c:	2b00      	cmp	r3, #0
 800717e:	d002      	beq.n	8007186 <HAL_SPI_Receive+0x7e>
 8007180:	88fb      	ldrh	r3, [r7, #6]
 8007182:	2b00      	cmp	r3, #0
 8007184:	d102      	bne.n	800718c <HAL_SPI_Receive+0x84>
  {
    errorcode = HAL_ERROR;
 8007186:	2301      	movs	r3, #1
 8007188:	75fb      	strb	r3, [r7, #23]
    goto error;
 800718a:	e0cc      	b.n	8007326 <HAL_SPI_Receive+0x21e>
  }

  /* Set the transaction information */
  hspi->State       = HAL_SPI_STATE_BUSY_RX;
 800718c:	68fb      	ldr	r3, [r7, #12]
 800718e:	2204      	movs	r2, #4
 8007190:	f883 2051 	strb.w	r2, [r3, #81]	; 0x51
  hspi->ErrorCode   = HAL_SPI_ERROR_NONE;
 8007194:	68fb      	ldr	r3, [r7, #12]
 8007196:	2200      	movs	r2, #0
 8007198:	655a      	str	r2, [r3, #84]	; 0x54
  hspi->pRxBuffPtr  = (uint8_t *)pData;
 800719a:	68fb      	ldr	r3, [r7, #12]
 800719c:	68ba      	ldr	r2, [r7, #8]
 800719e:	639a      	str	r2, [r3, #56]	; 0x38
  hspi->RxXferSize  = Size;
 80071a0:	68fb      	ldr	r3, [r7, #12]
 80071a2:	88fa      	ldrh	r2, [r7, #6]
 80071a4:	879a      	strh	r2, [r3, #60]	; 0x3c
  hspi->RxXferCount = Size;
 80071a6:	68fb      	ldr	r3, [r7, #12]
 80071a8:	88fa      	ldrh	r2, [r7, #6]
 80071aa:	87da      	strh	r2, [r3, #62]	; 0x3e

  /*Init field not used in handle to zero */
  hspi->pTxBuffPtr  = (uint8_t *)NULL;
 80071ac:	68fb      	ldr	r3, [r7, #12]
 80071ae:	2200      	movs	r2, #0
 80071b0:	631a      	str	r2, [r3, #48]	; 0x30
  hspi->TxXferSize  = 0U;
 80071b2:	68fb      	ldr	r3, [r7, #12]
 80071b4:	2200      	movs	r2, #0
 80071b6:	869a      	strh	r2, [r3, #52]	; 0x34
  hspi->TxXferCount = 0U;
 80071b8:	68fb      	ldr	r3, [r7, #12]
 80071ba:	2200      	movs	r2, #0
 80071bc:	86da      	strh	r2, [r3, #54]	; 0x36
  hspi->RxISR       = NULL;
 80071be:	68fb      	ldr	r3, [r7, #12]
 80071c0:	2200      	movs	r2, #0
 80071c2:	641a      	str	r2, [r3, #64]	; 0x40
  hspi->TxISR       = NULL;
 80071c4:	68fb      	ldr	r3, [r7, #12]
 80071c6:	2200      	movs	r2, #0
 80071c8:	645a      	str	r2, [r3, #68]	; 0x44
    hspi->RxXferCount--;
  }
#endif /* USE_SPI_CRC */

  /* Configure communication direction: 1Line */
  if (hspi->Init.Direction == SPI_DIRECTION_1LINE)
 80071ca:	68fb      	ldr	r3, [r7, #12]
 80071cc:	689b      	ldr	r3, [r3, #8]
 80071ce:	f5b3 4f00 	cmp.w	r3, #32768	; 0x8000
 80071d2:	d10f      	bne.n	80071f4 <HAL_SPI_Receive+0xec>
  {
    /* Disable SPI Peripheral before set 1Line direction (BIDIOE bit) */
    __HAL_SPI_DISABLE(hspi);
 80071d4:	68fb      	ldr	r3, [r7, #12]
 80071d6:	681b      	ldr	r3, [r3, #0]
 80071d8:	681a      	ldr	r2, [r3, #0]
 80071da:	68fb      	ldr	r3, [r7, #12]
 80071dc:	681b      	ldr	r3, [r3, #0]
 80071de:	f022 0240 	bic.w	r2, r2, #64	; 0x40
 80071e2:	601a      	str	r2, [r3, #0]
    SPI_1LINE_RX(hspi);
 80071e4:	68fb      	ldr	r3, [r7, #12]
 80071e6:	681b      	ldr	r3, [r3, #0]
 80071e8:	681a      	ldr	r2, [r3, #0]
 80071ea:	68fb      	ldr	r3, [r7, #12]
 80071ec:	681b      	ldr	r3, [r3, #0]
 80071ee:	f422 4280 	bic.w	r2, r2, #16384	; 0x4000
 80071f2:	601a      	str	r2, [r3, #0]
  }

  /* Check if the SPI is already enabled */
  if ((hspi->Instance->CR1 & SPI_CR1_SPE) != SPI_CR1_SPE)
 80071f4:	68fb      	ldr	r3, [r7, #12]
 80071f6:	681b      	ldr	r3, [r3, #0]
 80071f8:	681b      	ldr	r3, [r3, #0]
 80071fa:	f003 0340 	and.w	r3, r3, #64	; 0x40
 80071fe:	2b40      	cmp	r3, #64	; 0x40
 8007200:	d007      	beq.n	8007212 <HAL_SPI_Receive+0x10a>
  {
    /* Enable SPI peripheral */
    __HAL_SPI_ENABLE(hspi);
 8007202:	68fb      	ldr	r3, [r7, #12]
 8007204:	681b      	ldr	r3, [r3, #0]
 8007206:	681a      	ldr	r2, [r3, #0]
 8007208:	68fb      	ldr	r3, [r7, #12]
 800720a:	681b      	ldr	r3, [r3, #0]
 800720c:	f042 0240 	orr.w	r2, r2, #64	; 0x40
 8007210:	601a      	str	r2, [r3, #0]
  }

  /* Receive data in 8 Bit mode */
  if (hspi->Init.DataSize == SPI_DATASIZE_8BIT)
 8007212:	68fb      	ldr	r3, [r7, #12]
 8007214:	68db      	ldr	r3, [r3, #12]
 8007216:	2b00      	cmp	r3, #0
 8007218:	d16a      	bne.n	80072f0 <HAL_SPI_Receive+0x1e8>
  {
    /* Transfer loop */
    while (hspi->RxXferCount > 0U)
 800721a:	e032      	b.n	8007282 <HAL_SPI_Receive+0x17a>
    {
      /* Check the RXNE flag */
      if (__HAL_SPI_GET_FLAG(hspi, SPI_FLAG_RXNE))
 800721c:	68fb      	ldr	r3, [r7, #12]
 800721e:	681b      	ldr	r3, [r3, #0]
 8007220:	689b      	ldr	r3, [r3, #8]
 8007222:	f003 0301 	and.w	r3, r3, #1
 8007226:	2b01      	cmp	r3, #1
 8007228:	d115      	bne.n	8007256 <HAL_SPI_Receive+0x14e>
      {
        /* read the received data */
        (* (uint8_t *)hspi->pRxBuffPtr) = *(__IO uint8_t *)&hspi->Instance->DR;
 800722a:	68fb      	ldr	r3, [r7, #12]
 800722c:	681b      	ldr	r3, [r3, #0]
 800722e:	f103 020c 	add.w	r2, r3, #12
 8007232:	68fb      	ldr	r3, [r7, #12]
 8007234:	6b9b      	ldr	r3, [r3, #56]	; 0x38
 8007236:	7812      	ldrb	r2, [r2, #0]
 8007238:	b2d2      	uxtb	r2, r2
 800723a:	701a      	strb	r2, [r3, #0]
        hspi->pRxBuffPtr += sizeof(uint8_t);
 800723c:	68fb      	ldr	r3, [r7, #12]
 800723e:	6b9b      	ldr	r3, [r3, #56]	; 0x38
 8007240:	1c5a      	adds	r2, r3, #1
 8007242:	68fb      	ldr	r3, [r7, #12]
 8007244:	639a      	str	r2, [r3, #56]	; 0x38
        hspi->RxXferCount--;
 8007246:	68fb      	ldr	r3, [r7, #12]
 8007248:	8fdb      	ldrh	r3, [r3, #62]	; 0x3e
 800724a:	b29b      	uxth	r3, r3
 800724c:	3b01      	subs	r3, #1
 800724e:	b29a      	uxth	r2, r3
 8007250:	68fb      	ldr	r3, [r7, #12]
 8007252:	87da      	strh	r2, [r3, #62]	; 0x3e
 8007254:	e015      	b.n	8007282 <HAL_SPI_Receive+0x17a>
      }
      else
      {
        /* Timeout management */
        if ((((HAL_GetTick() - tickstart) >=  Timeout) && (Timeout != HAL_MAX_DELAY)) || (Timeout == 0U))
 8007256:	f7fb fe4d 	bl	8002ef4 <HAL_GetTick>
 800725a:	4602      	mov	r2, r0
 800725c:	693b      	ldr	r3, [r7, #16]
 800725e:	1ad3      	subs	r3, r2, r3
 8007260:	683a      	ldr	r2, [r7, #0]
 8007262:	429a      	cmp	r2, r3
 8007264:	d803      	bhi.n	800726e <HAL_SPI_Receive+0x166>
 8007266:	683b      	ldr	r3, [r7, #0]
 8007268:	f1b3 3fff 	cmp.w	r3, #4294967295	; 0xffffffff
 800726c:	d102      	bne.n	8007274 <HAL_SPI_Receive+0x16c>
 800726e:	683b      	ldr	r3, [r7, #0]
 8007270:	2b00      	cmp	r3, #0
 8007272:	d106      	bne.n	8007282 <HAL_SPI_Receive+0x17a>
        {
          errorcode = HAL_TIMEOUT;
 8007274:	2303      	movs	r3, #3
 8007276:	75fb      	strb	r3, [r7, #23]
          hspi->State = HAL_SPI_STATE_READY;
 8007278:	68fb      	ldr	r3, [r7, #12]
 800727a:	2201      	movs	r2, #1
 800727c:	f883 2051 	strb.w	r2, [r3, #81]	; 0x51
          goto error;
 8007280:	e051      	b.n	8007326 <HAL_SPI_Receive+0x21e>
    while (hspi->RxXferCount > 0U)
 8007282:	68fb      	ldr	r3, [r7, #12]
 8007284:	8fdb      	ldrh	r3, [r3, #62]	; 0x3e
 8007286:	b29b      	uxth	r3, r3
 8007288:	2b00      	cmp	r3, #0
 800728a:	d1c7      	bne.n	800721c <HAL_SPI_Receive+0x114>
 800728c:	e035      	b.n	80072fa <HAL_SPI_Receive+0x1f2>
  {
    /* Transfer loop */
    while (hspi->RxXferCount > 0U)
    {
      /* Check the RXNE flag */
      if (__HAL_SPI_GET_FLAG(hspi, SPI_FLAG_RXNE))
 800728e:	68fb      	ldr	r3, [r7, #12]
 8007290:	681b      	ldr	r3, [r3, #0]
 8007292:	689b      	ldr	r3, [r3, #8]
 8007294:	f003 0301 	and.w	r3, r3, #1
 8007298:	2b01      	cmp	r3, #1
 800729a:	d113      	bne.n	80072c4 <HAL_SPI_Receive+0x1bc>
      {
        *((uint16_t *)hspi->pRxBuffPtr) = (uint16_t)hspi->Instance->DR;
 800729c:	68fb      	ldr	r3, [r7, #12]
 800729e:	681b      	ldr	r3, [r3, #0]
 80072a0:	68da      	ldr	r2, [r3, #12]
 80072a2:	68fb      	ldr	r3, [r7, #12]
 80072a4:	6b9b      	ldr	r3, [r3, #56]	; 0x38
 80072a6:	b292      	uxth	r2, r2
 80072a8:	801a      	strh	r2, [r3, #0]
        hspi->pRxBuffPtr += sizeof(uint16_t);
 80072aa:	68fb      	ldr	r3, [r7, #12]
 80072ac:	6b9b      	ldr	r3, [r3, #56]	; 0x38
 80072ae:	1c9a      	adds	r2, r3, #2
 80072b0:	68fb      	ldr	r3, [r7, #12]
 80072b2:	639a      	str	r2, [r3, #56]	; 0x38
        hspi->RxXferCount--;
 80072b4:	68fb      	ldr	r3, [r7, #12]
 80072b6:	8fdb      	ldrh	r3, [r3, #62]	; 0x3e
 80072b8:	b29b      	uxth	r3, r3
 80072ba:	3b01      	subs	r3, #1
 80072bc:	b29a      	uxth	r2, r3
 80072be:	68fb      	ldr	r3, [r7, #12]
 80072c0:	87da      	strh	r2, [r3, #62]	; 0x3e
 80072c2:	e015      	b.n	80072f0 <HAL_SPI_Receive+0x1e8>
      }
      else
      {
        /* Timeout management */
        if ((((HAL_GetTick() - tickstart) >=  Timeout) && (Timeout != HAL_MAX_DELAY)) || (Timeout == 0U))
 80072c4:	f7fb fe16 	bl	8002ef4 <HAL_GetTick>
 80072c8:	4602      	mov	r2, r0
 80072ca:	693b      	ldr	r3, [r7, #16]
 80072cc:	1ad3      	subs	r3, r2, r3
 80072ce:	683a      	ldr	r2, [r7, #0]
 80072d0:	429a      	cmp	r2, r3
 80072d2:	d803      	bhi.n	80072dc <HAL_SPI_Receive+0x1d4>
 80072d4:	683b      	ldr	r3, [r7, #0]
 80072d6:	f1b3 3fff 	cmp.w	r3, #4294967295	; 0xffffffff
 80072da:	d102      	bne.n	80072e2 <HAL_SPI_Receive+0x1da>
 80072dc:	683b      	ldr	r3, [r7, #0]
 80072de:	2b00      	cmp	r3, #0
 80072e0:	d106      	bne.n	80072f0 <HAL_SPI_Receive+0x1e8>
        {
          errorcode = HAL_TIMEOUT;
 80072e2:	2303      	movs	r3, #3
 80072e4:	75fb      	strb	r3, [r7, #23]
          hspi->State = HAL_SPI_STATE_READY;
 80072e6:	68fb      	ldr	r3, [r7, #12]
 80072e8:	2201      	movs	r2, #1
 80072ea:	f883 2051 	strb.w	r2, [r3, #81]	; 0x51
          goto error;
 80072ee:	e01a      	b.n	8007326 <HAL_SPI_Receive+0x21e>
    while (hspi->RxXferCount > 0U)
 80072f0:	68fb      	ldr	r3, [r7, #12]
 80072f2:	8fdb      	ldrh	r3, [r3, #62]	; 0x3e
 80072f4:	b29b      	uxth	r3, r3
 80072f6:	2b00      	cmp	r3, #0
 80072f8:	d1c9      	bne.n	800728e <HAL_SPI_Receive+0x186>
    UNUSED(tmpreg);
  }
#endif /* USE_SPI_CRC */

  /* Check the end of the transaction */
  if (SPI_EndRxTransaction(hspi, Timeout, tickstart) != HAL_OK)
 80072fa:	693a      	ldr	r2, [r7, #16]
 80072fc:	6839      	ldr	r1, [r7, #0]
 80072fe:	68f8      	ldr	r0, [r7, #12]
 8007300:	f000 fb9a 	bl	8007a38 <SPI_EndRxTransaction>
 8007304:	4603      	mov	r3, r0
 8007306:	2b00      	cmp	r3, #0
 8007308:	d002      	beq.n	8007310 <HAL_SPI_Receive+0x208>
  {
    hspi->ErrorCode = HAL_SPI_ERROR_FLAG;
 800730a:	68fb      	ldr	r3, [r7, #12]
 800730c:	2220      	movs	r2, #32
 800730e:	655a      	str	r2, [r3, #84]	; 0x54
    SET_BIT(hspi->ErrorCode, HAL_SPI_ERROR_CRC);
    __HAL_SPI_CLEAR_CRCERRFLAG(hspi);
  }
#endif /* USE_SPI_CRC */

  if (hspi->ErrorCode != HAL_SPI_ERROR_NONE)
 8007310:	68fb      	ldr	r3, [r7, #12]
 8007312:	6d5b      	ldr	r3, [r3, #84]	; 0x54
 8007314:	2b00      	cmp	r3, #0
 8007316:	d002      	beq.n	800731e <HAL_SPI_Receive+0x216>
  {
    errorcode = HAL_ERROR;
 8007318:	2301      	movs	r3, #1
 800731a:	75fb      	strb	r3, [r7, #23]
 800731c:	e003      	b.n	8007326 <HAL_SPI_Receive+0x21e>
  }
  else
  {
    hspi->State = HAL_SPI_STATE_READY;
 800731e:	68fb      	ldr	r3, [r7, #12]
 8007320:	2201      	movs	r2, #1
 8007322:	f883 2051 	strb.w	r2, [r3, #81]	; 0x51
  }

error :
  __HAL_UNLOCK(hspi);
 8007326:	68fb      	ldr	r3, [r7, #12]
 8007328:	2200      	movs	r2, #0
 800732a:	f883 2050 	strb.w	r2, [r3, #80]	; 0x50
  return errorcode;
 800732e:	7dfb      	ldrb	r3, [r7, #23]
}
 8007330:	4618      	mov	r0, r3
 8007332:	3718      	adds	r7, #24
 8007334:	46bd      	mov	sp, r7
 8007336:	bd80      	pop	{r7, pc}

08007338 <HAL_SPI_TransmitReceive>:
  * @param  Timeout Timeout duration
  * @retval HAL status
  */
HAL_StatusTypeDef HAL_SPI_TransmitReceive(SPI_HandleTypeDef *hspi, uint8_t *pTxData, uint8_t *pRxData, uint16_t Size,
                                          uint32_t Timeout)
{
 8007338:	b580      	push	{r7, lr}
 800733a:	b08c      	sub	sp, #48	; 0x30
 800733c:	af00      	add	r7, sp, #0
 800733e:	60f8      	str	r0, [r7, #12]
 8007340:	60b9      	str	r1, [r7, #8]
 8007342:	607a      	str	r2, [r7, #4]
 8007344:	807b      	strh	r3, [r7, #2]
#if (USE_SPI_CRC != 0U)
  __IO uint32_t tmpreg = 0U;
#endif /* USE_SPI_CRC */

  /* Variable used to alternate Rx and Tx during transfer */
  uint32_t             txallowed = 1U;
 8007346:	2301      	movs	r3, #1
 8007348:	62fb      	str	r3, [r7, #44]	; 0x2c
  HAL_StatusTypeDef    errorcode = HAL_OK;
 800734a:	2300      	movs	r3, #0
 800734c:	f887 302b 	strb.w	r3, [r7, #43]	; 0x2b

  /* Check Direction parameter */
  assert_param(IS_SPI_DIRECTION_2LINES(hspi->Init.Direction));

  /* Process Locked */
  __HAL_LOCK(hspi);
 8007350:	68fb      	ldr	r3, [r7, #12]
 8007352:	f893 3050 	ldrb.w	r3, [r3, #80]	; 0x50
 8007356:	2b01      	cmp	r3, #1
 8007358:	d101      	bne.n	800735e <HAL_SPI_TransmitReceive+0x26>
 800735a:	2302      	movs	r3, #2
 800735c:	e198      	b.n	8007690 <HAL_SPI_TransmitReceive+0x358>
 800735e:	68fb      	ldr	r3, [r7, #12]
 8007360:	2201      	movs	r2, #1
 8007362:	f883 2050 	strb.w	r2, [r3, #80]	; 0x50

  /* Init tickstart for timeout management*/
  tickstart = HAL_GetTick();
 8007366:	f7fb fdc5 	bl	8002ef4 <HAL_GetTick>
 800736a:	6278      	str	r0, [r7, #36]	; 0x24

  /* Init temporary variables */
  tmp_state           = hspi->State;
 800736c:	68fb      	ldr	r3, [r7, #12]
 800736e:	f893 3051 	ldrb.w	r3, [r3, #81]	; 0x51
 8007372:	f887 3023 	strb.w	r3, [r7, #35]	; 0x23
  tmp_mode            = hspi->Init.Mode;
 8007376:	68fb      	ldr	r3, [r7, #12]
 8007378:	685b      	ldr	r3, [r3, #4]
 800737a:	61fb      	str	r3, [r7, #28]
  initial_TxXferCount = Size;
 800737c:	887b      	ldrh	r3, [r7, #2]
 800737e:	837b      	strh	r3, [r7, #26]

  if (!((tmp_state == HAL_SPI_STATE_READY) || \
 8007380:	f897 3023 	ldrb.w	r3, [r7, #35]	; 0x23
 8007384:	2b01      	cmp	r3, #1
 8007386:	d00f      	beq.n	80073a8 <HAL_SPI_TransmitReceive+0x70>
 8007388:	69fb      	ldr	r3, [r7, #28]
 800738a:	f5b3 7f82 	cmp.w	r3, #260	; 0x104
 800738e:	d107      	bne.n	80073a0 <HAL_SPI_TransmitReceive+0x68>
        ((tmp_mode == SPI_MODE_MASTER) && (hspi->Init.Direction == SPI_DIRECTION_2LINES) && (tmp_state == HAL_SPI_STATE_BUSY_RX))))
 8007390:	68fb      	ldr	r3, [r7, #12]
 8007392:	689b      	ldr	r3, [r3, #8]
 8007394:	2b00      	cmp	r3, #0
 8007396:	d103      	bne.n	80073a0 <HAL_SPI_TransmitReceive+0x68>
 8007398:	f897 3023 	ldrb.w	r3, [r7, #35]	; 0x23
 800739c:	2b04      	cmp	r3, #4
 800739e:	d003      	beq.n	80073a8 <HAL_SPI_TransmitReceive+0x70>
  {
    errorcode = HAL_BUSY;
 80073a0:	2302      	movs	r3, #2
 80073a2:	f887 302b 	strb.w	r3, [r7, #43]	; 0x2b
    goto error;
 80073a6:	e16d      	b.n	8007684 <HAL_SPI_TransmitReceive+0x34c>
  }

  if ((pTxData == NULL) || (pRxData == NULL) || (Size == 0U))
 80073a8:	68bb      	ldr	r3, [r7, #8]
 80073aa:	2b00      	cmp	r3, #0
 80073ac:	d005      	beq.n	80073ba <HAL_SPI_TransmitReceive+0x82>
 80073ae:	687b      	ldr	r3, [r7, #4]
 80073b0:	2b00      	cmp	r3, #0
 80073b2:	d002      	beq.n	80073ba <HAL_SPI_TransmitReceive+0x82>
 80073b4:	887b      	ldrh	r3, [r7, #2]
 80073b6:	2b00      	cmp	r3, #0
 80073b8:	d103      	bne.n	80073c2 <HAL_SPI_TransmitReceive+0x8a>
  {
    errorcode = HAL_ERROR;
 80073ba:	2301      	movs	r3, #1
 80073bc:	f887 302b 	strb.w	r3, [r7, #43]	; 0x2b
    goto error;
 80073c0:	e160      	b.n	8007684 <HAL_SPI_TransmitReceive+0x34c>
  }

  /* Don't overwrite in case of HAL_SPI_STATE_BUSY_RX */
  if (hspi->State != HAL_SPI_STATE_BUSY_RX)
 80073c2:	68fb      	ldr	r3, [r7, #12]
 80073c4:	f893 3051 	ldrb.w	r3, [r3, #81]	; 0x51
 80073c8:	b2db      	uxtb	r3, r3
 80073ca:	2b04      	cmp	r3, #4
 80073cc:	d003      	beq.n	80073d6 <HAL_SPI_TransmitReceive+0x9e>
  {
    hspi->State = HAL_SPI_STATE_BUSY_TX_RX;
 80073ce:	68fb      	ldr	r3, [r7, #12]
 80073d0:	2205      	movs	r2, #5
 80073d2:	f883 2051 	strb.w	r2, [r3, #81]	; 0x51
  }

  /* Set the transaction information */
  hspi->ErrorCode   = HAL_SPI_ERROR_NONE;
 80073d6:	68fb      	ldr	r3, [r7, #12]
 80073d8:	2200      	movs	r2, #0
 80073da:	655a      	str	r2, [r3, #84]	; 0x54
  hspi->pRxBuffPtr  = (uint8_t *)pRxData;
 80073dc:	68fb      	ldr	r3, [r7, #12]
 80073de:	687a      	ldr	r2, [r7, #4]
 80073e0:	639a      	str	r2, [r3, #56]	; 0x38
  hspi->RxXferCount = Size;
 80073e2:	68fb      	ldr	r3, [r7, #12]
 80073e4:	887a      	ldrh	r2, [r7, #2]
 80073e6:	87da      	strh	r2, [r3, #62]	; 0x3e
  hspi->RxXferSize  = Size;
 80073e8:	68fb      	ldr	r3, [r7, #12]
 80073ea:	887a      	ldrh	r2, [r7, #2]
 80073ec:	879a      	strh	r2, [r3, #60]	; 0x3c
  hspi->pTxBuffPtr  = (uint8_t *)pTxData;
 80073ee:	68fb      	ldr	r3, [r7, #12]
 80073f0:	68ba      	ldr	r2, [r7, #8]
 80073f2:	631a      	str	r2, [r3, #48]	; 0x30
  hspi->TxXferCount = Size;
 80073f4:	68fb      	ldr	r3, [r7, #12]
 80073f6:	887a      	ldrh	r2, [r7, #2]
 80073f8:	86da      	strh	r2, [r3, #54]	; 0x36
  hspi->TxXferSize  = Size;
 80073fa:	68fb      	ldr	r3, [r7, #12]
 80073fc:	887a      	ldrh	r2, [r7, #2]
 80073fe:	869a      	strh	r2, [r3, #52]	; 0x34

  /*Init field not used in handle to zero */
  hspi->RxISR       = NULL;
 8007400:	68fb      	ldr	r3, [r7, #12]
 8007402:	2200      	movs	r2, #0
 8007404:	641a      	str	r2, [r3, #64]	; 0x40
  hspi->TxISR       = NULL;
 8007406:	68fb      	ldr	r3, [r7, #12]
 8007408:	2200      	movs	r2, #0
 800740a:	645a      	str	r2, [r3, #68]	; 0x44
    SPI_RESET_CRC(hspi);
  }
#endif /* USE_SPI_CRC */

  /* Check if the SPI is already enabled */
  if ((hspi->Instance->CR1 & SPI_CR1_SPE) != SPI_CR1_SPE)
 800740c:	68fb      	ldr	r3, [r7, #12]
 800740e:	681b      	ldr	r3, [r3, #0]
 8007410:	681b      	ldr	r3, [r3, #0]
 8007412:	f003 0340 	and.w	r3, r3, #64	; 0x40
 8007416:	2b40      	cmp	r3, #64	; 0x40
 8007418:	d007      	beq.n	800742a <HAL_SPI_TransmitReceive+0xf2>
  {
    /* Enable SPI peripheral */
    __HAL_SPI_ENABLE(hspi);
 800741a:	68fb      	ldr	r3, [r7, #12]
 800741c:	681b      	ldr	r3, [r3, #0]
 800741e:	681a      	ldr	r2, [r3, #0]
 8007420:	68fb      	ldr	r3, [r7, #12]
 8007422:	681b      	ldr	r3, [r3, #0]
 8007424:	f042 0240 	orr.w	r2, r2, #64	; 0x40
 8007428:	601a      	str	r2, [r3, #0]
  }

  /* Transmit and Receive data in 16 Bit mode */
  if (hspi->Init.DataSize == SPI_DATASIZE_16BIT)
 800742a:	68fb      	ldr	r3, [r7, #12]
 800742c:	68db      	ldr	r3, [r3, #12]
 800742e:	f5b3 6f00 	cmp.w	r3, #2048	; 0x800
 8007432:	d17c      	bne.n	800752e <HAL_SPI_TransmitReceive+0x1f6>
  {
    if ((hspi->Init.Mode == SPI_MODE_SLAVE) || (initial_TxXferCount == 0x01U))
 8007434:	68fb      	ldr	r3, [r7, #12]
 8007436:	685b      	ldr	r3, [r3, #4]
 8007438:	2b00      	cmp	r3, #0
 800743a:	d002      	beq.n	8007442 <HAL_SPI_TransmitReceive+0x10a>
 800743c:	8b7b      	ldrh	r3, [r7, #26]
 800743e:	2b01      	cmp	r3, #1
 8007440:	d16a      	bne.n	8007518 <HAL_SPI_TransmitReceive+0x1e0>
    {
      hspi->Instance->DR = *((uint16_t *)hspi->pTxBuffPtr);
 8007442:	68fb      	ldr	r3, [r7, #12]
 8007444:	6b1b      	ldr	r3, [r3, #48]	; 0x30
 8007446:	881a      	ldrh	r2, [r3, #0]
 8007448:	68fb      	ldr	r3, [r7, #12]
 800744a:	681b      	ldr	r3, [r3, #0]
 800744c:	60da      	str	r2, [r3, #12]
      hspi->pTxBuffPtr += sizeof(uint16_t);
 800744e:	68fb      	ldr	r3, [r7, #12]
 8007450:	6b1b      	ldr	r3, [r3, #48]	; 0x30
 8007452:	1c9a      	adds	r2, r3, #2
 8007454:	68fb      	ldr	r3, [r7, #12]
 8007456:	631a      	str	r2, [r3, #48]	; 0x30
      hspi->TxXferCount--;
 8007458:	68fb      	ldr	r3, [r7, #12]
 800745a:	8edb      	ldrh	r3, [r3, #54]	; 0x36
 800745c:	b29b      	uxth	r3, r3
 800745e:	3b01      	subs	r3, #1
 8007460:	b29a      	uxth	r2, r3
 8007462:	68fb      	ldr	r3, [r7, #12]
 8007464:	86da      	strh	r2, [r3, #54]	; 0x36
        SET_BIT(hspi->Instance->CR1, SPI_CR1_CRCNEXT);
      }
#endif /* USE_SPI_CRC */

    }
    while ((hspi->TxXferCount > 0U) || (hspi->RxXferCount > 0U))
 8007466:	e057      	b.n	8007518 <HAL_SPI_TransmitReceive+0x1e0>
    {
      /* Check TXE flag */
      if ((__HAL_SPI_GET_FLAG(hspi, SPI_FLAG_TXE)) && (hspi->TxXferCount > 0U) && (txallowed == 1U))
 8007468:	68fb      	ldr	r3, [r7, #12]
 800746a:	681b      	ldr	r3, [r3, #0]
 800746c:	689b      	ldr	r3, [r3, #8]
 800746e:	f003 0302 	and.w	r3, r3, #2
 8007472:	2b02      	cmp	r3, #2
 8007474:	d11b      	bne.n	80074ae <HAL_SPI_TransmitReceive+0x176>
 8007476:	68fb      	ldr	r3, [r7, #12]
 8007478:	8edb      	ldrh	r3, [r3, #54]	; 0x36
 800747a:	b29b      	uxth	r3, r3
 800747c:	2b00      	cmp	r3, #0
 800747e:	d016      	beq.n	80074ae <HAL_SPI_TransmitReceive+0x176>
 8007480:	6afb      	ldr	r3, [r7, #44]	; 0x2c
 8007482:	2b01      	cmp	r3, #1
 8007484:	d113      	bne.n	80074ae <HAL_SPI_TransmitReceive+0x176>
      {
        hspi->Instance->DR = *((uint16_t *)hspi->pTxBuffPtr);
 8007486:	68fb      	ldr	r3, [r7, #12]
 8007488:	6b1b      	ldr	r3, [r3, #48]	; 0x30
 800748a:	881a      	ldrh	r2, [r3, #0]
 800748c:	68fb      	ldr	r3, [r7, #12]
 800748e:	681b      	ldr	r3, [r3, #0]
 8007490:	60da      	str	r2, [r3, #12]
        hspi->pTxBuffPtr += sizeof(uint16_t);
 8007492:	68fb      	ldr	r3, [r7, #12]
 8007494:	6b1b      	ldr	r3, [r3, #48]	; 0x30
 8007496:	1c9a      	adds	r2, r3, #2
 8007498:	68fb      	ldr	r3, [r7, #12]
 800749a:	631a      	str	r2, [r3, #48]	; 0x30
        hspi->TxXferCount--;
 800749c:	68fb      	ldr	r3, [r7, #12]
 800749e:	8edb      	ldrh	r3, [r3, #54]	; 0x36
 80074a0:	b29b      	uxth	r3, r3
 80074a2:	3b01      	subs	r3, #1
 80074a4:	b29a      	uxth	r2, r3
 80074a6:	68fb      	ldr	r3, [r7, #12]
 80074a8:	86da      	strh	r2, [r3, #54]	; 0x36
        /* Next Data is a reception (Rx). Tx not allowed */
        txallowed = 0U;
 80074aa:	2300      	movs	r3, #0
 80074ac:	62fb      	str	r3, [r7, #44]	; 0x2c
        }
#endif /* USE_SPI_CRC */
      }

      /* Check RXNE flag */
      if ((__HAL_SPI_GET_FLAG(hspi, SPI_FLAG_RXNE)) && (hspi->RxXferCount > 0U))
 80074ae:	68fb      	ldr	r3, [r7, #12]
 80074b0:	681b      	ldr	r3, [r3, #0]
 80074b2:	689b      	ldr	r3, [r3, #8]
 80074b4:	f003 0301 	and.w	r3, r3, #1
 80074b8:	2b01      	cmp	r3, #1
 80074ba:	d119      	bne.n	80074f0 <HAL_SPI_TransmitReceive+0x1b8>
 80074bc:	68fb      	ldr	r3, [r7, #12]
 80074be:	8fdb      	ldrh	r3, [r3, #62]	; 0x3e
 80074c0:	b29b      	uxth	r3, r3
 80074c2:	2b00      	cmp	r3, #0
 80074c4:	d014      	beq.n	80074f0 <HAL_SPI_TransmitReceive+0x1b8>
      {
        *((uint16_t *)hspi->pRxBuffPtr) = (uint16_t)hspi->Instance->DR;
 80074c6:	68fb      	ldr	r3, [r7, #12]
 80074c8:	681b      	ldr	r3, [r3, #0]
 80074ca:	68da      	ldr	r2, [r3, #12]
 80074cc:	68fb      	ldr	r3, [r7, #12]
 80074ce:	6b9b      	ldr	r3, [r3, #56]	; 0x38
 80074d0:	b292      	uxth	r2, r2
 80074d2:	801a      	strh	r2, [r3, #0]
        hspi->pRxBuffPtr += sizeof(uint16_t);
 80074d4:	68fb      	ldr	r3, [r7, #12]
 80074d6:	6b9b      	ldr	r3, [r3, #56]	; 0x38
 80074d8:	1c9a      	adds	r2, r3, #2
 80074da:	68fb      	ldr	r3, [r7, #12]
 80074dc:	639a      	str	r2, [r3, #56]	; 0x38
        hspi->RxXferCount--;
 80074de:	68fb      	ldr	r3, [r7, #12]
 80074e0:	8fdb      	ldrh	r3, [r3, #62]	; 0x3e
 80074e2:	b29b      	uxth	r3, r3
 80074e4:	3b01      	subs	r3, #1
 80074e6:	b29a      	uxth	r2, r3
 80074e8:	68fb      	ldr	r3, [r7, #12]
 80074ea:	87da      	strh	r2, [r3, #62]	; 0x3e
        /* Next Data is a Transmission (Tx). Tx is allowed */
        txallowed = 1U;
 80074ec:	2301      	movs	r3, #1
 80074ee:	62fb      	str	r3, [r7, #44]	; 0x2c
      }
      if (((HAL_GetTick() - tickstart) >=  Timeout) && (Timeout != HAL_MAX_DELAY))
 80074f0:	f7fb fd00 	bl	8002ef4 <HAL_GetTick>
 80074f4:	4602      	mov	r2, r0
 80074f6:	6a7b      	ldr	r3, [r7, #36]	; 0x24
 80074f8:	1ad3      	subs	r3, r2, r3
 80074fa:	6bba      	ldr	r2, [r7, #56]	; 0x38
 80074fc:	429a      	cmp	r2, r3
 80074fe:	d80b      	bhi.n	8007518 <HAL_SPI_TransmitReceive+0x1e0>
 8007500:	6bbb      	ldr	r3, [r7, #56]	; 0x38
 8007502:	f1b3 3fff 	cmp.w	r3, #4294967295	; 0xffffffff
 8007506:	d007      	beq.n	8007518 <HAL_SPI_TransmitReceive+0x1e0>
      {
        errorcode = HAL_TIMEOUT;
 8007508:	2303      	movs	r3, #3
 800750a:	f887 302b 	strb.w	r3, [r7, #43]	; 0x2b
        hspi->State = HAL_SPI_STATE_READY;
 800750e:	68fb      	ldr	r3, [r7, #12]
 8007510:	2201      	movs	r2, #1
 8007512:	f883 2051 	strb.w	r2, [r3, #81]	; 0x51
        goto error;
 8007516:	e0b5      	b.n	8007684 <HAL_SPI_TransmitReceive+0x34c>
    while ((hspi->TxXferCount > 0U) || (hspi->RxXferCount > 0U))
 8007518:	68fb      	ldr	r3, [r7, #12]
 800751a:	8edb      	ldrh	r3, [r3, #54]	; 0x36
 800751c:	b29b      	uxth	r3, r3
 800751e:	2b00      	cmp	r3, #0
 8007520:	d1a2      	bne.n	8007468 <HAL_SPI_TransmitReceive+0x130>
 8007522:	68fb      	ldr	r3, [r7, #12]
 8007524:	8fdb      	ldrh	r3, [r3, #62]	; 0x3e
 8007526:	b29b      	uxth	r3, r3
 8007528:	2b00      	cmp	r3, #0
 800752a:	d19d      	bne.n	8007468 <HAL_SPI_TransmitReceive+0x130>
 800752c:	e080      	b.n	8007630 <HAL_SPI_TransmitReceive+0x2f8>
    }
  }
  /* Transmit and Receive data in 8 Bit mode */
  else
  {
    if ((hspi->Init.Mode == SPI_MODE_SLAVE) || (initial_TxXferCount == 0x01U))
 800752e:	68fb      	ldr	r3, [r7, #12]
 8007530:	685b      	ldr	r3, [r3, #4]
 8007532:	2b00      	cmp	r3, #0
 8007534:	d002      	beq.n	800753c <HAL_SPI_TransmitReceive+0x204>
 8007536:	8b7b      	ldrh	r3, [r7, #26]
 8007538:	2b01      	cmp	r3, #1
 800753a:	d16f      	bne.n	800761c <HAL_SPI_TransmitReceive+0x2e4>
    {
      *((__IO uint8_t *)&hspi->Instance->DR) = (*hspi->pTxBuffPtr);
 800753c:	68fb      	ldr	r3, [r7, #12]
 800753e:	6b1a      	ldr	r2, [r3, #48]	; 0x30
 8007540:	68fb      	ldr	r3, [r7, #12]
 8007542:	681b      	ldr	r3, [r3, #0]
 8007544:	330c      	adds	r3, #12
 8007546:	7812      	ldrb	r2, [r2, #0]
 8007548:	701a      	strb	r2, [r3, #0]
      hspi->pTxBuffPtr += sizeof(uint8_t);
 800754a:	68fb      	ldr	r3, [r7, #12]
 800754c:	6b1b      	ldr	r3, [r3, #48]	; 0x30
 800754e:	1c5a      	adds	r2, r3, #1
 8007550:	68fb      	ldr	r3, [r7, #12]
 8007552:	631a      	str	r2, [r3, #48]	; 0x30
      hspi->TxXferCount--;
 8007554:	68fb      	ldr	r3, [r7, #12]
 8007556:	8edb      	ldrh	r3, [r3, #54]	; 0x36
 8007558:	b29b      	uxth	r3, r3
 800755a:	3b01      	subs	r3, #1
 800755c:	b29a      	uxth	r2, r3
 800755e:	68fb      	ldr	r3, [r7, #12]
 8007560:	86da      	strh	r2, [r3, #54]	; 0x36
      {
        SET_BIT(hspi->Instance->CR1, SPI_CR1_CRCNEXT);
      }
#endif /* USE_SPI_CRC */
    }
    while ((hspi->TxXferCount > 0U) || (hspi->RxXferCount > 0U))
 8007562:	e05b      	b.n	800761c <HAL_SPI_TransmitReceive+0x2e4>
    {
      /* Check TXE flag */
      if ((__HAL_SPI_GET_FLAG(hspi, SPI_FLAG_TXE)) && (hspi->TxXferCount > 0U) && (txallowed == 1U))
 8007564:	68fb      	ldr	r3, [r7, #12]
 8007566:	681b      	ldr	r3, [r3, #0]
 8007568:	689b      	ldr	r3, [r3, #8]
 800756a:	f003 0302 	and.w	r3, r3, #2
 800756e:	2b02      	cmp	r3, #2
 8007570:	d11c      	bne.n	80075ac <HAL_SPI_TransmitReceive+0x274>
 8007572:	68fb      	ldr	r3, [r7, #12]
 8007574:	8edb      	ldrh	r3, [r3, #54]	; 0x36
 8007576:	b29b      	uxth	r3, r3
 8007578:	2b00      	cmp	r3, #0
 800757a:	d017      	beq.n	80075ac <HAL_SPI_TransmitReceive+0x274>
 800757c:	6afb      	ldr	r3, [r7, #44]	; 0x2c
 800757e:	2b01      	cmp	r3, #1
 8007580:	d114      	bne.n	80075ac <HAL_SPI_TransmitReceive+0x274>
      {
        *(__IO uint8_t *)&hspi->Instance->DR = (*hspi->pTxBuffPtr);
 8007582:	68fb      	ldr	r3, [r7, #12]
 8007584:	6b1a      	ldr	r2, [r3, #48]	; 0x30
 8007586:	68fb      	ldr	r3, [r7, #12]
 8007588:	681b      	ldr	r3, [r3, #0]
 800758a:	330c      	adds	r3, #12
 800758c:	7812      	ldrb	r2, [r2, #0]
 800758e:	701a      	strb	r2, [r3, #0]
        hspi->pTxBuffPtr++;
 8007590:	68fb      	ldr	r3, [r7, #12]
 8007592:	6b1b      	ldr	r3, [r3, #48]	; 0x30
 8007594:	1c5a      	adds	r2, r3, #1
 8007596:	68fb      	ldr	r3, [r7, #12]
 8007598:	631a      	str	r2, [r3, #48]	; 0x30
        hspi->TxXferCount--;
 800759a:	68fb      	ldr	r3, [r7, #12]
 800759c:	8edb      	ldrh	r3, [r3, #54]	; 0x36
 800759e:	b29b      	uxth	r3, r3
 80075a0:	3b01      	subs	r3, #1
 80075a2:	b29a      	uxth	r2, r3
 80075a4:	68fb      	ldr	r3, [r7, #12]
 80075a6:	86da      	strh	r2, [r3, #54]	; 0x36
        /* Next Data is a reception (Rx). Tx not allowed */
        txallowed = 0U;
 80075a8:	2300      	movs	r3, #0
 80075aa:	62fb      	str	r3, [r7, #44]	; 0x2c
        }
#endif /* USE_SPI_CRC */
      }

      /* Wait until RXNE flag is reset */
      if ((__HAL_SPI_GET_FLAG(hspi, SPI_FLAG_RXNE)) && (hspi->RxXferCount > 0U))
 80075ac:	68fb      	ldr	r3, [r7, #12]
 80075ae:	681b      	ldr	r3, [r3, #0]
 80075b0:	689b      	ldr	r3, [r3, #8]
 80075b2:	f003 0301 	and.w	r3, r3, #1
 80075b6:	2b01      	cmp	r3, #1
 80075b8:	d119      	bne.n	80075ee <HAL_SPI_TransmitReceive+0x2b6>
 80075ba:	68fb      	ldr	r3, [r7, #12]
 80075bc:	8fdb      	ldrh	r3, [r3, #62]	; 0x3e
 80075be:	b29b      	uxth	r3, r3
 80075c0:	2b00      	cmp	r3, #0
 80075c2:	d014      	beq.n	80075ee <HAL_SPI_TransmitReceive+0x2b6>
      {
        (*(uint8_t *)hspi->pRxBuffPtr) = hspi->Instance->DR;
 80075c4:	68fb      	ldr	r3, [r7, #12]
 80075c6:	681b      	ldr	r3, [r3, #0]
 80075c8:	68da      	ldr	r2, [r3, #12]
 80075ca:	68fb      	ldr	r3, [r7, #12]
 80075cc:	6b9b      	ldr	r3, [r3, #56]	; 0x38
 80075ce:	b2d2      	uxtb	r2, r2
 80075d0:	701a      	strb	r2, [r3, #0]
        hspi->pRxBuffPtr++;
 80075d2:	68fb      	ldr	r3, [r7, #12]
 80075d4:	6b9b      	ldr	r3, [r3, #56]	; 0x38
 80075d6:	1c5a      	adds	r2, r3, #1
 80075d8:	68fb      	ldr	r3, [r7, #12]
 80075da:	639a      	str	r2, [r3, #56]	; 0x38
        hspi->RxXferCount--;
 80075dc:	68fb      	ldr	r3, [r7, #12]
 80075de:	8fdb      	ldrh	r3, [r3, #62]	; 0x3e
 80075e0:	b29b      	uxth	r3, r3
 80075e2:	3b01      	subs	r3, #1
 80075e4:	b29a      	uxth	r2, r3
 80075e6:	68fb      	ldr	r3, [r7, #12]
 80075e8:	87da      	strh	r2, [r3, #62]	; 0x3e
        /* Next Data is a Transmission (Tx). Tx is allowed */
        txallowed = 1U;
 80075ea:	2301      	movs	r3, #1
 80075ec:	62fb      	str	r3, [r7, #44]	; 0x2c
      }
      if ((((HAL_GetTick() - tickstart) >=  Timeout) && ((Timeout != HAL_MAX_DELAY))) || (Timeout == 0U))
 80075ee:	f7fb fc81 	bl	8002ef4 <HAL_GetTick>
 80075f2:	4602      	mov	r2, r0
 80075f4:	6a7b      	ldr	r3, [r7, #36]	; 0x24
 80075f6:	1ad3      	subs	r3, r2, r3
 80075f8:	6bba      	ldr	r2, [r7, #56]	; 0x38
 80075fa:	429a      	cmp	r2, r3
 80075fc:	d803      	bhi.n	8007606 <HAL_SPI_TransmitReceive+0x2ce>
 80075fe:	6bbb      	ldr	r3, [r7, #56]	; 0x38
 8007600:	f1b3 3fff 	cmp.w	r3, #4294967295	; 0xffffffff
 8007604:	d102      	bne.n	800760c <HAL_SPI_TransmitReceive+0x2d4>
 8007606:	6bbb      	ldr	r3, [r7, #56]	; 0x38
 8007608:	2b00      	cmp	r3, #0
 800760a:	d107      	bne.n	800761c <HAL_SPI_TransmitReceive+0x2e4>
      {
        errorcode = HAL_TIMEOUT;
 800760c:	2303      	movs	r3, #3
 800760e:	f887 302b 	strb.w	r3, [r7, #43]	; 0x2b
        hspi->State = HAL_SPI_STATE_READY;
 8007612:	68fb      	ldr	r3, [r7, #12]
 8007614:	2201      	movs	r2, #1
 8007616:	f883 2051 	strb.w	r2, [r3, #81]	; 0x51
        goto error;
 800761a:	e033      	b.n	8007684 <HAL_SPI_TransmitReceive+0x34c>
    while ((hspi->TxXferCount > 0U) || (hspi->RxXferCount > 0U))
 800761c:	68fb      	ldr	r3, [r7, #12]
 800761e:	8edb      	ldrh	r3, [r3, #54]	; 0x36
 8007620:	b29b      	uxth	r3, r3
 8007622:	2b00      	cmp	r3, #0
 8007624:	d19e      	bne.n	8007564 <HAL_SPI_TransmitReceive+0x22c>
 8007626:	68fb      	ldr	r3, [r7, #12]
 8007628:	8fdb      	ldrh	r3, [r3, #62]	; 0x3e
 800762a:	b29b      	uxth	r3, r3
 800762c:	2b00      	cmp	r3, #0
 800762e:	d199      	bne.n	8007564 <HAL_SPI_TransmitReceive+0x22c>
    errorcode = HAL_ERROR;
  }
#endif /* USE_SPI_CRC */

  /* Check the end of the transaction */
  if (SPI_EndRxTxTransaction(hspi, Timeout, tickstart) != HAL_OK)
 8007630:	6a7a      	ldr	r2, [r7, #36]	; 0x24
 8007632:	6bb9      	ldr	r1, [r7, #56]	; 0x38
 8007634:	68f8      	ldr	r0, [r7, #12]
 8007636:	f000 fa65 	bl	8007b04 <SPI_EndRxTxTransaction>
 800763a:	4603      	mov	r3, r0
 800763c:	2b00      	cmp	r3, #0
 800763e:	d006      	beq.n	800764e <HAL_SPI_TransmitReceive+0x316>
  {
    errorcode = HAL_ERROR;
 8007640:	2301      	movs	r3, #1
 8007642:	f887 302b 	strb.w	r3, [r7, #43]	; 0x2b
    hspi->ErrorCode = HAL_SPI_ERROR_FLAG;
 8007646:	68fb      	ldr	r3, [r7, #12]
 8007648:	2220      	movs	r2, #32
 800764a:	655a      	str	r2, [r3, #84]	; 0x54
    goto error;
 800764c:	e01a      	b.n	8007684 <HAL_SPI_TransmitReceive+0x34c>
  }

  /* Clear overrun flag in 2 Lines communication mode because received is not read */
  if (hspi->Init.Direction == SPI_DIRECTION_2LINES)
 800764e:	68fb      	ldr	r3, [r7, #12]
 8007650:	689b      	ldr	r3, [r3, #8]
 8007652:	2b00      	cmp	r3, #0
 8007654:	d10a      	bne.n	800766c <HAL_SPI_TransmitReceive+0x334>
  {
    __HAL_SPI_CLEAR_OVRFLAG(hspi);
 8007656:	2300      	movs	r3, #0
 8007658:	617b      	str	r3, [r7, #20]
 800765a:	68fb      	ldr	r3, [r7, #12]
 800765c:	681b      	ldr	r3, [r3, #0]
 800765e:	68db      	ldr	r3, [r3, #12]
 8007660:	617b      	str	r3, [r7, #20]
 8007662:	68fb      	ldr	r3, [r7, #12]
 8007664:	681b      	ldr	r3, [r3, #0]
 8007666:	689b      	ldr	r3, [r3, #8]
 8007668:	617b      	str	r3, [r7, #20]
 800766a:	697b      	ldr	r3, [r7, #20]
  }

  if (hspi->ErrorCode != HAL_SPI_ERROR_NONE)
 800766c:	68fb      	ldr	r3, [r7, #12]
 800766e:	6d5b      	ldr	r3, [r3, #84]	; 0x54
 8007670:	2b00      	cmp	r3, #0
 8007672:	d003      	beq.n	800767c <HAL_SPI_TransmitReceive+0x344>
  {
    errorcode = HAL_ERROR;
 8007674:	2301      	movs	r3, #1
 8007676:	f887 302b 	strb.w	r3, [r7, #43]	; 0x2b
 800767a:	e003      	b.n	8007684 <HAL_SPI_TransmitReceive+0x34c>
  }
  else
  {
    hspi->State = HAL_SPI_STATE_READY;
 800767c:	68fb      	ldr	r3, [r7, #12]
 800767e:	2201      	movs	r2, #1
 8007680:	f883 2051 	strb.w	r2, [r3, #81]	; 0x51
  }
  
error :
  __HAL_UNLOCK(hspi);
 8007684:	68fb      	ldr	r3, [r7, #12]
 8007686:	2200      	movs	r2, #0
 8007688:	f883 2050 	strb.w	r2, [r3, #80]	; 0x50
  return errorcode;
 800768c:	f897 302b 	ldrb.w	r3, [r7, #43]	; 0x2b
}
 8007690:	4618      	mov	r0, r3
 8007692:	3730      	adds	r7, #48	; 0x30
 8007694:	46bd      	mov	sp, r7
 8007696:	bd80      	pop	{r7, pc}

08007698 <HAL_SPI_Transmit_DMA>:
  * @param  pData pointer to data buffer
  * @param  Size amount of data to be sent
  * @retval HAL status
  */
HAL_StatusTypeDef HAL_SPI_Transmit_DMA(SPI_HandleTypeDef *hspi, uint8_t *pData, uint16_t Size)
{
 8007698:	b580      	push	{r7, lr}
 800769a:	b086      	sub	sp, #24
 800769c:	af00      	add	r7, sp, #0
 800769e:	60f8      	str	r0, [r7, #12]
 80076a0:	60b9      	str	r1, [r7, #8]
 80076a2:	4613      	mov	r3, r2
 80076a4:	80fb      	strh	r3, [r7, #6]
  HAL_StatusTypeDef errorcode = HAL_OK;
 80076a6:	2300      	movs	r3, #0
 80076a8:	75fb      	strb	r3, [r7, #23]

  /* Check Direction parameter */
  assert_param(IS_SPI_DIRECTION_2LINES_OR_1LINE(hspi->Init.Direction));

  /* Process Locked */
  __HAL_LOCK(hspi);
 80076aa:	68fb      	ldr	r3, [r7, #12]
 80076ac:	f893 3050 	ldrb.w	r3, [r3, #80]	; 0x50
 80076b0:	2b01      	cmp	r3, #1
 80076b2:	d101      	bne.n	80076b8 <HAL_SPI_Transmit_DMA+0x20>
 80076b4:	2302      	movs	r3, #2
 80076b6:	e097      	b.n	80077e8 <HAL_SPI_Transmit_DMA+0x150>
 80076b8:	68fb      	ldr	r3, [r7, #12]
 80076ba:	2201      	movs	r2, #1
 80076bc:	f883 2050 	strb.w	r2, [r3, #80]	; 0x50

  if (hspi->State != HAL_SPI_STATE_READY)
 80076c0:	68fb      	ldr	r3, [r7, #12]
 80076c2:	f893 3051 	ldrb.w	r3, [r3, #81]	; 0x51
 80076c6:	b2db      	uxtb	r3, r3
 80076c8:	2b01      	cmp	r3, #1
 80076ca:	d002      	beq.n	80076d2 <HAL_SPI_Transmit_DMA+0x3a>
  {
    errorcode = HAL_BUSY;
 80076cc:	2302      	movs	r3, #2
 80076ce:	75fb      	strb	r3, [r7, #23]
    goto error;
 80076d0:	e085      	b.n	80077de <HAL_SPI_Transmit_DMA+0x146>
  }

  if ((pData == NULL) || (Size == 0U))
 80076d2:	68bb      	ldr	r3, [r7, #8]
 80076d4:	2b00      	cmp	r3, #0
 80076d6:	d002      	beq.n	80076de <HAL_SPI_Transmit_DMA+0x46>
 80076d8:	88fb      	ldrh	r3, [r7, #6]
 80076da:	2b00      	cmp	r3, #0
 80076dc:	d102      	bne.n	80076e4 <HAL_SPI_Transmit_DMA+0x4c>
  {
    errorcode = HAL_ERROR;
 80076de:	2301      	movs	r3, #1
 80076e0:	75fb      	strb	r3, [r7, #23]
    goto error;
 80076e2:	e07c      	b.n	80077de <HAL_SPI_Transmit_DMA+0x146>
  }

  /* Set the transaction information */
  hspi->State       = HAL_SPI_STATE_BUSY_TX;
 80076e4:	68fb      	ldr	r3, [r7, #12]
 80076e6:	2203      	movs	r2, #3
 80076e8:	f883 2051 	strb.w	r2, [r3, #81]	; 0x51
  hspi->ErrorCode   = HAL_SPI_ERROR_NONE;
 80076ec:	68fb      	ldr	r3, [r7, #12]
 80076ee:	2200      	movs	r2, #0
 80076f0:	655a      	str	r2, [r3, #84]	; 0x54
  hspi->pTxBuffPtr  = (uint8_t *)pData;
 80076f2:	68fb      	ldr	r3, [r7, #12]
 80076f4:	68ba      	ldr	r2, [r7, #8]
 80076f6:	631a      	str	r2, [r3, #48]	; 0x30
  hspi->TxXferSize  = Size;
 80076f8:	68fb      	ldr	r3, [r7, #12]
 80076fa:	88fa      	ldrh	r2, [r7, #6]
 80076fc:	869a      	strh	r2, [r3, #52]	; 0x34
  hspi->TxXferCount = Size;
 80076fe:	68fb      	ldr	r3, [r7, #12]
 8007700:	88fa      	ldrh	r2, [r7, #6]
 8007702:	86da      	strh	r2, [r3, #54]	; 0x36

  /* Init field not used in handle to zero */
  hspi->pRxBuffPtr  = (uint8_t *)NULL;
 8007704:	68fb      	ldr	r3, [r7, #12]
 8007706:	2200      	movs	r2, #0
 8007708:	639a      	str	r2, [r3, #56]	; 0x38
  hspi->TxISR       = NULL;
 800770a:	68fb      	ldr	r3, [r7, #12]
 800770c:	2200      	movs	r2, #0
 800770e:	645a      	str	r2, [r3, #68]	; 0x44
  hspi->RxISR       = NULL;
 8007710:	68fb      	ldr	r3, [r7, #12]
 8007712:	2200      	movs	r2, #0
 8007714:	641a      	str	r2, [r3, #64]	; 0x40
  hspi->RxXferSize  = 0U;
 8007716:	68fb      	ldr	r3, [r7, #12]
 8007718:	2200      	movs	r2, #0
 800771a:	879a      	strh	r2, [r3, #60]	; 0x3c
  hspi->RxXferCount = 0U;
 800771c:	68fb      	ldr	r3, [r7, #12]
 800771e:	2200      	movs	r2, #0
 8007720:	87da      	strh	r2, [r3, #62]	; 0x3e

  /* Configure communication direction : 1Line */
  if (hspi->Init.Direction == SPI_DIRECTION_1LINE)
 8007722:	68fb      	ldr	r3, [r7, #12]
 8007724:	689b      	ldr	r3, [r3, #8]
 8007726:	f5b3 4f00 	cmp.w	r3, #32768	; 0x8000
 800772a:	d10f      	bne.n	800774c <HAL_SPI_Transmit_DMA+0xb4>
  {
    /* Disable SPI Peripheral before set 1Line direction (BIDIOE bit) */
    __HAL_SPI_DISABLE(hspi);
 800772c:	68fb      	ldr	r3, [r7, #12]
 800772e:	681b      	ldr	r3, [r3, #0]
 8007730:	681a      	ldr	r2, [r3, #0]
 8007732:	68fb      	ldr	r3, [r7, #12]
 8007734:	681b      	ldr	r3, [r3, #0]
 8007736:	f022 0240 	bic.w	r2, r2, #64	; 0x40
 800773a:	601a      	str	r2, [r3, #0]
    SPI_1LINE_TX(hspi);
 800773c:	68fb      	ldr	r3, [r7, #12]
 800773e:	681b      	ldr	r3, [r3, #0]
 8007740:	681a      	ldr	r2, [r3, #0]
 8007742:	68fb      	ldr	r3, [r7, #12]
 8007744:	681b      	ldr	r3, [r3, #0]
 8007746:	f442 4280 	orr.w	r2, r2, #16384	; 0x4000
 800774a:	601a      	str	r2, [r3, #0]
    SPI_RESET_CRC(hspi);
  }
#endif /* USE_SPI_CRC */

  /* Set the SPI TxDMA Half transfer complete callback */
  hspi->hdmatx->XferHalfCpltCallback = SPI_DMAHalfTransmitCplt;
 800774c:	68fb      	ldr	r3, [r7, #12]
 800774e:	6c9b      	ldr	r3, [r3, #72]	; 0x48
 8007750:	4a27      	ldr	r2, [pc, #156]	; (80077f0 <HAL_SPI_Transmit_DMA+0x158>)
 8007752:	641a      	str	r2, [r3, #64]	; 0x40

  /* Set the SPI TxDMA transfer complete callback */
  hspi->hdmatx->XferCpltCallback = SPI_DMATransmitCplt;
 8007754:	68fb      	ldr	r3, [r7, #12]
 8007756:	6c9b      	ldr	r3, [r3, #72]	; 0x48
 8007758:	4a26      	ldr	r2, [pc, #152]	; (80077f4 <HAL_SPI_Transmit_DMA+0x15c>)
 800775a:	63da      	str	r2, [r3, #60]	; 0x3c

  /* Set the DMA error callback */
  hspi->hdmatx->XferErrorCallback = SPI_DMAError;
 800775c:	68fb      	ldr	r3, [r7, #12]
 800775e:	6c9b      	ldr	r3, [r3, #72]	; 0x48
 8007760:	4a25      	ldr	r2, [pc, #148]	; (80077f8 <HAL_SPI_Transmit_DMA+0x160>)
 8007762:	64da      	str	r2, [r3, #76]	; 0x4c

  /* Set the DMA AbortCpltCallback */
  hspi->hdmatx->XferAbortCallback = NULL;
 8007764:	68fb      	ldr	r3, [r7, #12]
 8007766:	6c9b      	ldr	r3, [r3, #72]	; 0x48
 8007768:	2200      	movs	r2, #0
 800776a:	651a      	str	r2, [r3, #80]	; 0x50

  /* Enable the Tx DMA Stream/Channel */
  if (HAL_OK != HAL_DMA_Start_IT(hspi->hdmatx, (uint32_t)hspi->pTxBuffPtr, (uint32_t)&hspi->Instance->DR,
 800776c:	68fb      	ldr	r3, [r7, #12]
 800776e:	6c98      	ldr	r0, [r3, #72]	; 0x48
 8007770:	68fb      	ldr	r3, [r7, #12]
 8007772:	6b1b      	ldr	r3, [r3, #48]	; 0x30
 8007774:	4619      	mov	r1, r3
 8007776:	68fb      	ldr	r3, [r7, #12]
 8007778:	681b      	ldr	r3, [r3, #0]
 800777a:	330c      	adds	r3, #12
 800777c:	461a      	mov	r2, r3
                                 hspi->TxXferCount))
 800777e:	68fb      	ldr	r3, [r7, #12]
 8007780:	8edb      	ldrh	r3, [r3, #54]	; 0x36
 8007782:	b29b      	uxth	r3, r3
  if (HAL_OK != HAL_DMA_Start_IT(hspi->hdmatx, (uint32_t)hspi->pTxBuffPtr, (uint32_t)&hspi->Instance->DR,
 8007784:	f7fc fc0e 	bl	8003fa4 <HAL_DMA_Start_IT>
 8007788:	4603      	mov	r3, r0
 800778a:	2b00      	cmp	r3, #0
 800778c:	d008      	beq.n	80077a0 <HAL_SPI_Transmit_DMA+0x108>
  {
    /* Update SPI error code */
    SET_BIT(hspi->ErrorCode, HAL_SPI_ERROR_DMA);
 800778e:	68fb      	ldr	r3, [r7, #12]
 8007790:	6d5b      	ldr	r3, [r3, #84]	; 0x54
 8007792:	f043 0210 	orr.w	r2, r3, #16
 8007796:	68fb      	ldr	r3, [r7, #12]
 8007798:	655a      	str	r2, [r3, #84]	; 0x54
    errorcode = HAL_ERROR;
 800779a:	2301      	movs	r3, #1
 800779c:	75fb      	strb	r3, [r7, #23]

    goto error;
 800779e:	e01e      	b.n	80077de <HAL_SPI_Transmit_DMA+0x146>
  }

  /* Check if the SPI is already enabled */
  if ((hspi->Instance->CR1 & SPI_CR1_SPE) != SPI_CR1_SPE)
 80077a0:	68fb      	ldr	r3, [r7, #12]
 80077a2:	681b      	ldr	r3, [r3, #0]
 80077a4:	681b      	ldr	r3, [r3, #0]
 80077a6:	f003 0340 	and.w	r3, r3, #64	; 0x40
 80077aa:	2b40      	cmp	r3, #64	; 0x40
 80077ac:	d007      	beq.n	80077be <HAL_SPI_Transmit_DMA+0x126>
  {
    /* Enable SPI peripheral */
    __HAL_SPI_ENABLE(hspi);
 80077ae:	68fb      	ldr	r3, [r7, #12]
 80077b0:	681b      	ldr	r3, [r3, #0]
 80077b2:	681a      	ldr	r2, [r3, #0]
 80077b4:	68fb      	ldr	r3, [r7, #12]
 80077b6:	681b      	ldr	r3, [r3, #0]
 80077b8:	f042 0240 	orr.w	r2, r2, #64	; 0x40
 80077bc:	601a      	str	r2, [r3, #0]
  }

  /* Enable the SPI Error Interrupt Bit */
  __HAL_SPI_ENABLE_IT(hspi, (SPI_IT_ERR));
 80077be:	68fb      	ldr	r3, [r7, #12]
 80077c0:	681b      	ldr	r3, [r3, #0]
 80077c2:	685a      	ldr	r2, [r3, #4]
 80077c4:	68fb      	ldr	r3, [r7, #12]
 80077c6:	681b      	ldr	r3, [r3, #0]
 80077c8:	f042 0220 	orr.w	r2, r2, #32
 80077cc:	605a      	str	r2, [r3, #4]

  /* Enable Tx DMA Request */
  SET_BIT(hspi->Instance->CR2, SPI_CR2_TXDMAEN);
 80077ce:	68fb      	ldr	r3, [r7, #12]
 80077d0:	681b      	ldr	r3, [r3, #0]
 80077d2:	685a      	ldr	r2, [r3, #4]
 80077d4:	68fb      	ldr	r3, [r7, #12]
 80077d6:	681b      	ldr	r3, [r3, #0]
 80077d8:	f042 0202 	orr.w	r2, r2, #2
 80077dc:	605a      	str	r2, [r3, #4]

error :
  /* Process Unlocked */
  __HAL_UNLOCK(hspi);
 80077de:	68fb      	ldr	r3, [r7, #12]
 80077e0:	2200      	movs	r2, #0
 80077e2:	f883 2050 	strb.w	r2, [r3, #80]	; 0x50
  return errorcode;
 80077e6:	7dfb      	ldrb	r3, [r7, #23]
}
 80077e8:	4618      	mov	r0, r3
 80077ea:	3718      	adds	r7, #24
 80077ec:	46bd      	mov	sp, r7
 80077ee:	bd80      	pop	{r7, pc}
 80077f0:	080078cd 	.word	0x080078cd
 80077f4:	08007825 	.word	0x08007825
 80077f8:	080078e9 	.word	0x080078e9

080077fc <HAL_SPI_TxHalfCpltCallback>:
  * @param  hspi pointer to a SPI_HandleTypeDef structure that contains
  *               the configuration information for SPI module.
  * @retval None
  */
__weak void HAL_SPI_TxHalfCpltCallback(SPI_HandleTypeDef *hspi)
{
 80077fc:	b480      	push	{r7}
 80077fe:	b083      	sub	sp, #12
 8007800:	af00      	add	r7, sp, #0
 8007802:	6078      	str	r0, [r7, #4]
  UNUSED(hspi);

  /* NOTE : This function should not be modified, when the callback is needed,
            the HAL_SPI_TxHalfCpltCallback should be implemented in the user file
   */
}
 8007804:	bf00      	nop
 8007806:	370c      	adds	r7, #12
 8007808:	46bd      	mov	sp, r7
 800780a:	f85d 7b04 	ldr.w	r7, [sp], #4
 800780e:	4770      	bx	lr

08007810 <HAL_SPI_ErrorCallback>:
  * @param  hspi pointer to a SPI_HandleTypeDef structure that contains
  *               the configuration information for SPI module.
  * @retval None
  */
__weak void HAL_SPI_ErrorCallback(SPI_HandleTypeDef *hspi)
{
 8007810:	b480      	push	{r7}
 8007812:	b083      	sub	sp, #12
 8007814:	af00      	add	r7, sp, #0
 8007816:	6078      	str	r0, [r7, #4]
            the HAL_SPI_ErrorCallback should be implemented in the user file
   */
  /* NOTE : The ErrorCode parameter in the hspi handle is updated by the SPI processes
            and user can use HAL_SPI_GetError() API to check the latest error occurred
   */
}
 8007818:	bf00      	nop
 800781a:	370c      	adds	r7, #12
 800781c:	46bd      	mov	sp, r7
 800781e:	f85d 7b04 	ldr.w	r7, [sp], #4
 8007822:	4770      	bx	lr

08007824 <SPI_DMATransmitCplt>:
  * @param  hdma pointer to a DMA_HandleTypeDef structure that contains
  *               the configuration information for the specified DMA module.
  * @retval None
  */
static void SPI_DMATransmitCplt(DMA_HandleTypeDef *hdma)
{
 8007824:	b580      	push	{r7, lr}
 8007826:	b086      	sub	sp, #24
 8007828:	af00      	add	r7, sp, #0
 800782a:	6078      	str	r0, [r7, #4]
  SPI_HandleTypeDef *hspi = (SPI_HandleTypeDef *)(((DMA_HandleTypeDef *)hdma)->Parent); /* Derogation MISRAC2012-Rule-11.5 */
 800782c:	687b      	ldr	r3, [r7, #4]
 800782e:	6b9b      	ldr	r3, [r3, #56]	; 0x38
 8007830:	617b      	str	r3, [r7, #20]
  uint32_t tickstart;

  /* Init tickstart for timeout management*/
  tickstart = HAL_GetTick();
 8007832:	f7fb fb5f 	bl	8002ef4 <HAL_GetTick>
 8007836:	6138      	str	r0, [r7, #16]

  /* DMA Normal Mode */
  if ((hdma->Instance->CR & DMA_SxCR_CIRC) != DMA_SxCR_CIRC)
 8007838:	687b      	ldr	r3, [r7, #4]
 800783a:	681b      	ldr	r3, [r3, #0]
 800783c:	681b      	ldr	r3, [r3, #0]
 800783e:	f403 7380 	and.w	r3, r3, #256	; 0x100
 8007842:	f5b3 7f80 	cmp.w	r3, #256	; 0x100
 8007846:	d03b      	beq.n	80078c0 <SPI_DMATransmitCplt+0x9c>
  {
    /* Disable ERR interrupt */
    __HAL_SPI_DISABLE_IT(hspi, SPI_IT_ERR);
 8007848:	697b      	ldr	r3, [r7, #20]
 800784a:	681b      	ldr	r3, [r3, #0]
 800784c:	685a      	ldr	r2, [r3, #4]
 800784e:	697b      	ldr	r3, [r7, #20]
 8007850:	681b      	ldr	r3, [r3, #0]
 8007852:	f022 0220 	bic.w	r2, r2, #32
 8007856:	605a      	str	r2, [r3, #4]

    /* Disable Tx DMA Request */
    CLEAR_BIT(hspi->Instance->CR2, SPI_CR2_TXDMAEN);
 8007858:	697b      	ldr	r3, [r7, #20]
 800785a:	681b      	ldr	r3, [r3, #0]
 800785c:	685a      	ldr	r2, [r3, #4]
 800785e:	697b      	ldr	r3, [r7, #20]
 8007860:	681b      	ldr	r3, [r3, #0]
 8007862:	f022 0202 	bic.w	r2, r2, #2
 8007866:	605a      	str	r2, [r3, #4]

    /* Check the end of the transaction */
    if (SPI_EndRxTxTransaction(hspi, SPI_DEFAULT_TIMEOUT, tickstart) != HAL_OK)
 8007868:	693a      	ldr	r2, [r7, #16]
 800786a:	2164      	movs	r1, #100	; 0x64
 800786c:	6978      	ldr	r0, [r7, #20]
 800786e:	f000 f949 	bl	8007b04 <SPI_EndRxTxTransaction>
 8007872:	4603      	mov	r3, r0
 8007874:	2b00      	cmp	r3, #0
 8007876:	d005      	beq.n	8007884 <SPI_DMATransmitCplt+0x60>
    {
      SET_BIT(hspi->ErrorCode, HAL_SPI_ERROR_FLAG);
 8007878:	697b      	ldr	r3, [r7, #20]
 800787a:	6d5b      	ldr	r3, [r3, #84]	; 0x54
 800787c:	f043 0220 	orr.w	r2, r3, #32
 8007880:	697b      	ldr	r3, [r7, #20]
 8007882:	655a      	str	r2, [r3, #84]	; 0x54
    }

    /* Clear overrun flag in 2 Lines communication mode because received data is not read */
    if (hspi->Init.Direction == SPI_DIRECTION_2LINES)
 8007884:	697b      	ldr	r3, [r7, #20]
 8007886:	689b      	ldr	r3, [r3, #8]
 8007888:	2b00      	cmp	r3, #0
 800788a:	d10a      	bne.n	80078a2 <SPI_DMATransmitCplt+0x7e>
    {
      __HAL_SPI_CLEAR_OVRFLAG(hspi);
 800788c:	2300      	movs	r3, #0
 800788e:	60fb      	str	r3, [r7, #12]
 8007890:	697b      	ldr	r3, [r7, #20]
 8007892:	681b      	ldr	r3, [r3, #0]
 8007894:	68db      	ldr	r3, [r3, #12]
 8007896:	60fb      	str	r3, [r7, #12]
 8007898:	697b      	ldr	r3, [r7, #20]
 800789a:	681b      	ldr	r3, [r3, #0]
 800789c:	689b      	ldr	r3, [r3, #8]
 800789e:	60fb      	str	r3, [r7, #12]
 80078a0:	68fb      	ldr	r3, [r7, #12]
    }

    hspi->TxXferCount = 0U;
 80078a2:	697b      	ldr	r3, [r7, #20]
 80078a4:	2200      	movs	r2, #0
 80078a6:	86da      	strh	r2, [r3, #54]	; 0x36
    hspi->State = HAL_SPI_STATE_READY;
 80078a8:	697b      	ldr	r3, [r7, #20]
 80078aa:	2201      	movs	r2, #1
 80078ac:	f883 2051 	strb.w	r2, [r3, #81]	; 0x51

    if (hspi->ErrorCode != HAL_SPI_ERROR_NONE)
 80078b0:	697b      	ldr	r3, [r7, #20]
 80078b2:	6d5b      	ldr	r3, [r3, #84]	; 0x54
 80078b4:	2b00      	cmp	r3, #0
 80078b6:	d003      	beq.n	80078c0 <SPI_DMATransmitCplt+0x9c>
    {
      /* Call user error callback */
#if (USE_HAL_SPI_REGISTER_CALLBACKS == 1U)
      hspi->ErrorCallback(hspi);
#else
      HAL_SPI_ErrorCallback(hspi);
 80078b8:	6978      	ldr	r0, [r7, #20]
 80078ba:	f7ff ffa9 	bl	8007810 <HAL_SPI_ErrorCallback>
#endif /* USE_HAL_SPI_REGISTER_CALLBACKS */
      return;
 80078be:	e002      	b.n	80078c6 <SPI_DMATransmitCplt+0xa2>
  }
  /* Call user Tx complete callback */
#if (USE_HAL_SPI_REGISTER_CALLBACKS == 1U)
  hspi->TxCpltCallback(hspi);
#else
  HAL_SPI_TxCpltCallback(hspi);
 80078c0:	6978      	ldr	r0, [r7, #20]
 80078c2:	f7fb f9e1 	bl	8002c88 <HAL_SPI_TxCpltCallback>
#endif /* USE_HAL_SPI_REGISTER_CALLBACKS */
}
 80078c6:	3718      	adds	r7, #24
 80078c8:	46bd      	mov	sp, r7
 80078ca:	bd80      	pop	{r7, pc}

080078cc <SPI_DMAHalfTransmitCplt>:
  * @param  hdma pointer to a DMA_HandleTypeDef structure that contains
  *               the configuration information for the specified DMA module.
  * @retval None
  */
static void SPI_DMAHalfTransmitCplt(DMA_HandleTypeDef *hdma)
{
 80078cc:	b580      	push	{r7, lr}
 80078ce:	b084      	sub	sp, #16
 80078d0:	af00      	add	r7, sp, #0
 80078d2:	6078      	str	r0, [r7, #4]
  SPI_HandleTypeDef *hspi = (SPI_HandleTypeDef *)(((DMA_HandleTypeDef *)hdma)->Parent); /* Derogation MISRAC2012-Rule-11.5 */
 80078d4:	687b      	ldr	r3, [r7, #4]
 80078d6:	6b9b      	ldr	r3, [r3, #56]	; 0x38
 80078d8:	60fb      	str	r3, [r7, #12]

  /* Call user Tx half complete callback */
#if (USE_HAL_SPI_REGISTER_CALLBACKS == 1U)
  hspi->TxHalfCpltCallback(hspi);
#else
  HAL_SPI_TxHalfCpltCallback(hspi);
 80078da:	68f8      	ldr	r0, [r7, #12]
 80078dc:	f7ff ff8e 	bl	80077fc <HAL_SPI_TxHalfCpltCallback>
#endif /* USE_HAL_SPI_REGISTER_CALLBACKS */
}
 80078e0:	bf00      	nop
 80078e2:	3710      	adds	r7, #16
 80078e4:	46bd      	mov	sp, r7
 80078e6:	bd80      	pop	{r7, pc}

080078e8 <SPI_DMAError>:
  * @param  hdma pointer to a DMA_HandleTypeDef structure that contains
  *               the configuration information for the specified DMA module.
  * @retval None
  */
static void SPI_DMAError(DMA_HandleTypeDef *hdma)
{
 80078e8:	b580      	push	{r7, lr}
 80078ea:	b084      	sub	sp, #16
 80078ec:	af00      	add	r7, sp, #0
 80078ee:	6078      	str	r0, [r7, #4]
  SPI_HandleTypeDef *hspi = (SPI_HandleTypeDef *)(((DMA_HandleTypeDef *)hdma)->Parent); /* Derogation MISRAC2012-Rule-11.5 */
 80078f0:	687b      	ldr	r3, [r7, #4]
 80078f2:	6b9b      	ldr	r3, [r3, #56]	; 0x38
 80078f4:	60fb      	str	r3, [r7, #12]

  /* Stop the disable DMA transfer on SPI side */
  CLEAR_BIT(hspi->Instance->CR2, SPI_CR2_TXDMAEN | SPI_CR2_RXDMAEN);
 80078f6:	68fb      	ldr	r3, [r7, #12]
 80078f8:	681b      	ldr	r3, [r3, #0]
 80078fa:	685a      	ldr	r2, [r3, #4]
 80078fc:	68fb      	ldr	r3, [r7, #12]
 80078fe:	681b      	ldr	r3, [r3, #0]
 8007900:	f022 0203 	bic.w	r2, r2, #3
 8007904:	605a      	str	r2, [r3, #4]

  SET_BIT(hspi->ErrorCode, HAL_SPI_ERROR_DMA);
 8007906:	68fb      	ldr	r3, [r7, #12]
 8007908:	6d5b      	ldr	r3, [r3, #84]	; 0x54
 800790a:	f043 0210 	orr.w	r2, r3, #16
 800790e:	68fb      	ldr	r3, [r7, #12]
 8007910:	655a      	str	r2, [r3, #84]	; 0x54
  hspi->State = HAL_SPI_STATE_READY;
 8007912:	68fb      	ldr	r3, [r7, #12]
 8007914:	2201      	movs	r2, #1
 8007916:	f883 2051 	strb.w	r2, [r3, #81]	; 0x51
  /* Call user error callback */
#if (USE_HAL_SPI_REGISTER_CALLBACKS == 1U)
  hspi->ErrorCallback(hspi);
#else
  HAL_SPI_ErrorCallback(hspi);
 800791a:	68f8      	ldr	r0, [r7, #12]
 800791c:	f7ff ff78 	bl	8007810 <HAL_SPI_ErrorCallback>
#endif /* USE_HAL_SPI_REGISTER_CALLBACKS */
}
 8007920:	bf00      	nop
 8007922:	3710      	adds	r7, #16
 8007924:	46bd      	mov	sp, r7
 8007926:	bd80      	pop	{r7, pc}

08007928 <SPI_WaitFlagStateUntilTimeout>:
  * @param  Tickstart tick start value
  * @retval HAL status
  */
static HAL_StatusTypeDef SPI_WaitFlagStateUntilTimeout(SPI_HandleTypeDef *hspi, uint32_t Flag, FlagStatus State,
                                                       uint32_t Timeout, uint32_t Tickstart)
{
 8007928:	b580      	push	{r7, lr}
 800792a:	b088      	sub	sp, #32
 800792c:	af00      	add	r7, sp, #0
 800792e:	60f8      	str	r0, [r7, #12]
 8007930:	60b9      	str	r1, [r7, #8]
 8007932:	603b      	str	r3, [r7, #0]
 8007934:	4613      	mov	r3, r2
 8007936:	71fb      	strb	r3, [r7, #7]
  __IO uint32_t count;
  uint32_t tmp_timeout;
  uint32_t tmp_tickstart;

  /* Adjust Timeout value  in case of end of transfer */
  tmp_timeout   = Timeout - (HAL_GetTick() - Tickstart);
 8007938:	f7fb fadc 	bl	8002ef4 <HAL_GetTick>
 800793c:	4602      	mov	r2, r0
 800793e:	6abb      	ldr	r3, [r7, #40]	; 0x28
 8007940:	1a9b      	subs	r3, r3, r2
 8007942:	683a      	ldr	r2, [r7, #0]
 8007944:	4413      	add	r3, r2
 8007946:	61fb      	str	r3, [r7, #28]
  tmp_tickstart = HAL_GetTick();
 8007948:	f7fb fad4 	bl	8002ef4 <HAL_GetTick>
 800794c:	61b8      	str	r0, [r7, #24]

  /* Calculate Timeout based on a software loop to avoid blocking issue if Systick is disabled */
  count = tmp_timeout * ((SystemCoreClock * 32U) >> 20U);
 800794e:	4b39      	ldr	r3, [pc, #228]	; (8007a34 <SPI_WaitFlagStateUntilTimeout+0x10c>)
 8007950:	681b      	ldr	r3, [r3, #0]
 8007952:	015b      	lsls	r3, r3, #5
 8007954:	0d1b      	lsrs	r3, r3, #20
 8007956:	69fa      	ldr	r2, [r7, #28]
 8007958:	fb02 f303 	mul.w	r3, r2, r3
 800795c:	617b      	str	r3, [r7, #20]

  while ((__HAL_SPI_GET_FLAG(hspi, Flag) ? SET : RESET) != State)
 800795e:	e054      	b.n	8007a0a <SPI_WaitFlagStateUntilTimeout+0xe2>
  {
    if (Timeout != HAL_MAX_DELAY)
 8007960:	683b      	ldr	r3, [r7, #0]
 8007962:	f1b3 3fff 	cmp.w	r3, #4294967295	; 0xffffffff
 8007966:	d050      	beq.n	8007a0a <SPI_WaitFlagStateUntilTimeout+0xe2>
    {
      if (((HAL_GetTick() - tmp_tickstart) >= tmp_timeout) || (tmp_timeout == 0U))
 8007968:	f7fb fac4 	bl	8002ef4 <HAL_GetTick>
 800796c:	4602      	mov	r2, r0
 800796e:	69bb      	ldr	r3, [r7, #24]
 8007970:	1ad3      	subs	r3, r2, r3
 8007972:	69fa      	ldr	r2, [r7, #28]
 8007974:	429a      	cmp	r2, r3
 8007976:	d902      	bls.n	800797e <SPI_WaitFlagStateUntilTimeout+0x56>
 8007978:	69fb      	ldr	r3, [r7, #28]
 800797a:	2b00      	cmp	r3, #0
 800797c:	d13d      	bne.n	80079fa <SPI_WaitFlagStateUntilTimeout+0xd2>
        /* Disable the SPI and reset the CRC: the CRC value should be cleared
           on both master and slave sides in order to resynchronize the master
           and slave for their respective CRC calculation */

        /* Disable TXE, RXNE and ERR interrupts for the interrupt process */
        __HAL_SPI_DISABLE_IT(hspi, (SPI_IT_TXE | SPI_IT_RXNE | SPI_IT_ERR));
 800797e:	68fb      	ldr	r3, [r7, #12]
 8007980:	681b      	ldr	r3, [r3, #0]
 8007982:	685a      	ldr	r2, [r3, #4]
 8007984:	68fb      	ldr	r3, [r7, #12]
 8007986:	681b      	ldr	r3, [r3, #0]
 8007988:	f022 02e0 	bic.w	r2, r2, #224	; 0xe0
 800798c:	605a      	str	r2, [r3, #4]

        if ((hspi->Init.Mode == SPI_MODE_MASTER) && ((hspi->Init.Direction == SPI_DIRECTION_1LINE)
 800798e:	68fb      	ldr	r3, [r7, #12]
 8007990:	685b      	ldr	r3, [r3, #4]
 8007992:	f5b3 7f82 	cmp.w	r3, #260	; 0x104
 8007996:	d111      	bne.n	80079bc <SPI_WaitFlagStateUntilTimeout+0x94>
 8007998:	68fb      	ldr	r3, [r7, #12]
 800799a:	689b      	ldr	r3, [r3, #8]
 800799c:	f5b3 4f00 	cmp.w	r3, #32768	; 0x8000
 80079a0:	d004      	beq.n	80079ac <SPI_WaitFlagStateUntilTimeout+0x84>
                                                     || (hspi->Init.Direction == SPI_DIRECTION_2LINES_RXONLY)))
 80079a2:	68fb      	ldr	r3, [r7, #12]
 80079a4:	689b      	ldr	r3, [r3, #8]
 80079a6:	f5b3 6f80 	cmp.w	r3, #1024	; 0x400
 80079aa:	d107      	bne.n	80079bc <SPI_WaitFlagStateUntilTimeout+0x94>
        {
          /* Disable SPI peripheral */
          __HAL_SPI_DISABLE(hspi);
 80079ac:	68fb      	ldr	r3, [r7, #12]
 80079ae:	681b      	ldr	r3, [r3, #0]
 80079b0:	681a      	ldr	r2, [r3, #0]
 80079b2:	68fb      	ldr	r3, [r7, #12]
 80079b4:	681b      	ldr	r3, [r3, #0]
 80079b6:	f022 0240 	bic.w	r2, r2, #64	; 0x40
 80079ba:	601a      	str	r2, [r3, #0]
        }

        /* Reset CRC Calculation */
        if (hspi->Init.CRCCalculation == SPI_CRCCALCULATION_ENABLE)
 80079bc:	68fb      	ldr	r3, [r7, #12]
 80079be:	6a9b      	ldr	r3, [r3, #40]	; 0x28
 80079c0:	f5b3 5f00 	cmp.w	r3, #8192	; 0x2000
 80079c4:	d10f      	bne.n	80079e6 <SPI_WaitFlagStateUntilTimeout+0xbe>
        {
          SPI_RESET_CRC(hspi);
 80079c6:	68fb      	ldr	r3, [r7, #12]
 80079c8:	681b      	ldr	r3, [r3, #0]
 80079ca:	681a      	ldr	r2, [r3, #0]
 80079cc:	68fb      	ldr	r3, [r7, #12]
 80079ce:	681b      	ldr	r3, [r3, #0]
 80079d0:	f422 5200 	bic.w	r2, r2, #8192	; 0x2000
 80079d4:	601a      	str	r2, [r3, #0]
 80079d6:	68fb      	ldr	r3, [r7, #12]
 80079d8:	681b      	ldr	r3, [r3, #0]
 80079da:	681a      	ldr	r2, [r3, #0]
 80079dc:	68fb      	ldr	r3, [r7, #12]
 80079de:	681b      	ldr	r3, [r3, #0]
 80079e0:	f442 5200 	orr.w	r2, r2, #8192	; 0x2000
 80079e4:	601a      	str	r2, [r3, #0]
        }

        hspi->State = HAL_SPI_STATE_READY;
 80079e6:	68fb      	ldr	r3, [r7, #12]
 80079e8:	2201      	movs	r2, #1
 80079ea:	f883 2051 	strb.w	r2, [r3, #81]	; 0x51

        /* Process Unlocked */
        __HAL_UNLOCK(hspi);
 80079ee:	68fb      	ldr	r3, [r7, #12]
 80079f0:	2200      	movs	r2, #0
 80079f2:	f883 2050 	strb.w	r2, [r3, #80]	; 0x50

        return HAL_TIMEOUT;
 80079f6:	2303      	movs	r3, #3
 80079f8:	e017      	b.n	8007a2a <SPI_WaitFlagStateUntilTimeout+0x102>
      }
      /* If Systick is disabled or not incremented, deactivate timeout to go in disable loop procedure */
      if (count == 0U)
 80079fa:	697b      	ldr	r3, [r7, #20]
 80079fc:	2b00      	cmp	r3, #0
 80079fe:	d101      	bne.n	8007a04 <SPI_WaitFlagStateUntilTimeout+0xdc>
      {
        tmp_timeout = 0U;
 8007a00:	2300      	movs	r3, #0
 8007a02:	61fb      	str	r3, [r7, #28]
      }
      count--;
 8007a04:	697b      	ldr	r3, [r7, #20]
 8007a06:	3b01      	subs	r3, #1
 8007a08:	617b      	str	r3, [r7, #20]
  while ((__HAL_SPI_GET_FLAG(hspi, Flag) ? SET : RESET) != State)
 8007a0a:	68fb      	ldr	r3, [r7, #12]
 8007a0c:	681b      	ldr	r3, [r3, #0]
 8007a0e:	689a      	ldr	r2, [r3, #8]
 8007a10:	68bb      	ldr	r3, [r7, #8]
 8007a12:	4013      	ands	r3, r2
 8007a14:	68ba      	ldr	r2, [r7, #8]
 8007a16:	429a      	cmp	r2, r3
 8007a18:	bf0c      	ite	eq
 8007a1a:	2301      	moveq	r3, #1
 8007a1c:	2300      	movne	r3, #0
 8007a1e:	b2db      	uxtb	r3, r3
 8007a20:	461a      	mov	r2, r3
 8007a22:	79fb      	ldrb	r3, [r7, #7]
 8007a24:	429a      	cmp	r2, r3
 8007a26:	d19b      	bne.n	8007960 <SPI_WaitFlagStateUntilTimeout+0x38>
    }
  }

  return HAL_OK;
 8007a28:	2300      	movs	r3, #0
}
 8007a2a:	4618      	mov	r0, r3
 8007a2c:	3720      	adds	r7, #32
 8007a2e:	46bd      	mov	sp, r7
 8007a30:	bd80      	pop	{r7, pc}
 8007a32:	bf00      	nop
 8007a34:	2000001c 	.word	0x2000001c

08007a38 <SPI_EndRxTransaction>:
  * @param  Timeout Timeout duration
  * @param  Tickstart tick start value
  * @retval HAL status
  */
static HAL_StatusTypeDef SPI_EndRxTransaction(SPI_HandleTypeDef *hspi,  uint32_t Timeout, uint32_t Tickstart)
{
 8007a38:	b580      	push	{r7, lr}
 8007a3a:	b086      	sub	sp, #24
 8007a3c:	af02      	add	r7, sp, #8
 8007a3e:	60f8      	str	r0, [r7, #12]
 8007a40:	60b9      	str	r1, [r7, #8]
 8007a42:	607a      	str	r2, [r7, #4]
  if ((hspi->Init.Mode == SPI_MODE_MASTER) && ((hspi->Init.Direction == SPI_DIRECTION_1LINE)
 8007a44:	68fb      	ldr	r3, [r7, #12]
 8007a46:	685b      	ldr	r3, [r3, #4]
 8007a48:	f5b3 7f82 	cmp.w	r3, #260	; 0x104
 8007a4c:	d111      	bne.n	8007a72 <SPI_EndRxTransaction+0x3a>
 8007a4e:	68fb      	ldr	r3, [r7, #12]
 8007a50:	689b      	ldr	r3, [r3, #8]
 8007a52:	f5b3 4f00 	cmp.w	r3, #32768	; 0x8000
 8007a56:	d004      	beq.n	8007a62 <SPI_EndRxTransaction+0x2a>
                                               || (hspi->Init.Direction == SPI_DIRECTION_2LINES_RXONLY)))
 8007a58:	68fb      	ldr	r3, [r7, #12]
 8007a5a:	689b      	ldr	r3, [r3, #8]
 8007a5c:	f5b3 6f80 	cmp.w	r3, #1024	; 0x400
 8007a60:	d107      	bne.n	8007a72 <SPI_EndRxTransaction+0x3a>
  {
    /* Disable SPI peripheral */
    __HAL_SPI_DISABLE(hspi);
 8007a62:	68fb      	ldr	r3, [r7, #12]
 8007a64:	681b      	ldr	r3, [r3, #0]
 8007a66:	681a      	ldr	r2, [r3, #0]
 8007a68:	68fb      	ldr	r3, [r7, #12]
 8007a6a:	681b      	ldr	r3, [r3, #0]
 8007a6c:	f022 0240 	bic.w	r2, r2, #64	; 0x40
 8007a70:	601a      	str	r2, [r3, #0]
  }

  /* Erratasheet: BSY bit may stay high at the end of a data transfer in Slave mode */
  if (hspi->Init.Mode == SPI_MODE_MASTER)
 8007a72:	68fb      	ldr	r3, [r7, #12]
 8007a74:	685b      	ldr	r3, [r3, #4]
 8007a76:	f5b3 7f82 	cmp.w	r3, #260	; 0x104
 8007a7a:	d12a      	bne.n	8007ad2 <SPI_EndRxTransaction+0x9a>
  {
    if (hspi->Init.Direction != SPI_DIRECTION_2LINES_RXONLY)
 8007a7c:	68fb      	ldr	r3, [r7, #12]
 8007a7e:	689b      	ldr	r3, [r3, #8]
 8007a80:	f5b3 6f80 	cmp.w	r3, #1024	; 0x400
 8007a84:	d012      	beq.n	8007aac <SPI_EndRxTransaction+0x74>
    {
      /* Control the BSY flag */
      if (SPI_WaitFlagStateUntilTimeout(hspi, SPI_FLAG_BSY, RESET, Timeout, Tickstart) != HAL_OK)
 8007a86:	687b      	ldr	r3, [r7, #4]
 8007a88:	9300      	str	r3, [sp, #0]
 8007a8a:	68bb      	ldr	r3, [r7, #8]
 8007a8c:	2200      	movs	r2, #0
 8007a8e:	2180      	movs	r1, #128	; 0x80
 8007a90:	68f8      	ldr	r0, [r7, #12]
 8007a92:	f7ff ff49 	bl	8007928 <SPI_WaitFlagStateUntilTimeout>
 8007a96:	4603      	mov	r3, r0
 8007a98:	2b00      	cmp	r3, #0
 8007a9a:	d02d      	beq.n	8007af8 <SPI_EndRxTransaction+0xc0>
      {
        SET_BIT(hspi->ErrorCode, HAL_SPI_ERROR_FLAG);
 8007a9c:	68fb      	ldr	r3, [r7, #12]
 8007a9e:	6d5b      	ldr	r3, [r3, #84]	; 0x54
 8007aa0:	f043 0220 	orr.w	r2, r3, #32
 8007aa4:	68fb      	ldr	r3, [r7, #12]
 8007aa6:	655a      	str	r2, [r3, #84]	; 0x54
        return HAL_TIMEOUT;
 8007aa8:	2303      	movs	r3, #3
 8007aaa:	e026      	b.n	8007afa <SPI_EndRxTransaction+0xc2>
      }
    }
    else
    {
      /* Wait the RXNE reset */
      if (SPI_WaitFlagStateUntilTimeout(hspi, SPI_FLAG_RXNE, RESET, Timeout, Tickstart) != HAL_OK)
 8007aac:	687b      	ldr	r3, [r7, #4]
 8007aae:	9300      	str	r3, [sp, #0]
 8007ab0:	68bb      	ldr	r3, [r7, #8]
 8007ab2:	2200      	movs	r2, #0
 8007ab4:	2101      	movs	r1, #1
 8007ab6:	68f8      	ldr	r0, [r7, #12]
 8007ab8:	f7ff ff36 	bl	8007928 <SPI_WaitFlagStateUntilTimeout>
 8007abc:	4603      	mov	r3, r0
 8007abe:	2b00      	cmp	r3, #0
 8007ac0:	d01a      	beq.n	8007af8 <SPI_EndRxTransaction+0xc0>
      {
        SET_BIT(hspi->ErrorCode, HAL_SPI_ERROR_FLAG);
 8007ac2:	68fb      	ldr	r3, [r7, #12]
 8007ac4:	6d5b      	ldr	r3, [r3, #84]	; 0x54
 8007ac6:	f043 0220 	orr.w	r2, r3, #32
 8007aca:	68fb      	ldr	r3, [r7, #12]
 8007acc:	655a      	str	r2, [r3, #84]	; 0x54
        return HAL_TIMEOUT;
 8007ace:	2303      	movs	r3, #3
 8007ad0:	e013      	b.n	8007afa <SPI_EndRxTransaction+0xc2>
    }
  }
  else
  {
    /* Wait the RXNE reset */
    if (SPI_WaitFlagStateUntilTimeout(hspi, SPI_FLAG_RXNE, RESET, Timeout, Tickstart) != HAL_OK)
 8007ad2:	687b      	ldr	r3, [r7, #4]
 8007ad4:	9300      	str	r3, [sp, #0]
 8007ad6:	68bb      	ldr	r3, [r7, #8]
 8007ad8:	2200      	movs	r2, #0
 8007ada:	2101      	movs	r1, #1
 8007adc:	68f8      	ldr	r0, [r7, #12]
 8007ade:	f7ff ff23 	bl	8007928 <SPI_WaitFlagStateUntilTimeout>
 8007ae2:	4603      	mov	r3, r0
 8007ae4:	2b00      	cmp	r3, #0
 8007ae6:	d007      	beq.n	8007af8 <SPI_EndRxTransaction+0xc0>
    {
      SET_BIT(hspi->ErrorCode, HAL_SPI_ERROR_FLAG);
 8007ae8:	68fb      	ldr	r3, [r7, #12]
 8007aea:	6d5b      	ldr	r3, [r3, #84]	; 0x54
 8007aec:	f043 0220 	orr.w	r2, r3, #32
 8007af0:	68fb      	ldr	r3, [r7, #12]
 8007af2:	655a      	str	r2, [r3, #84]	; 0x54
      return HAL_TIMEOUT;
 8007af4:	2303      	movs	r3, #3
 8007af6:	e000      	b.n	8007afa <SPI_EndRxTransaction+0xc2>
    }
  }
  return HAL_OK;
 8007af8:	2300      	movs	r3, #0
}
 8007afa:	4618      	mov	r0, r3
 8007afc:	3710      	adds	r7, #16
 8007afe:	46bd      	mov	sp, r7
 8007b00:	bd80      	pop	{r7, pc}
	...

08007b04 <SPI_EndRxTxTransaction>:
  * @param  Timeout Timeout duration
  * @param  Tickstart tick start value
  * @retval HAL status
  */
static HAL_StatusTypeDef SPI_EndRxTxTransaction(SPI_HandleTypeDef *hspi, uint32_t Timeout, uint32_t Tickstart)
{
 8007b04:	b580      	push	{r7, lr}
 8007b06:	b088      	sub	sp, #32
 8007b08:	af02      	add	r7, sp, #8
 8007b0a:	60f8      	str	r0, [r7, #12]
 8007b0c:	60b9      	str	r1, [r7, #8]
 8007b0e:	607a      	str	r2, [r7, #4]
  /* Wait until TXE flag */
  if(SPI_WaitFlagStateUntilTimeout(hspi, SPI_FLAG_TXE, SET, Timeout, Tickstart) != HAL_OK)
 8007b10:	687b      	ldr	r3, [r7, #4]
 8007b12:	9300      	str	r3, [sp, #0]
 8007b14:	68bb      	ldr	r3, [r7, #8]
 8007b16:	2201      	movs	r2, #1
 8007b18:	2102      	movs	r1, #2
 8007b1a:	68f8      	ldr	r0, [r7, #12]
 8007b1c:	f7ff ff04 	bl	8007928 <SPI_WaitFlagStateUntilTimeout>
 8007b20:	4603      	mov	r3, r0
 8007b22:	2b00      	cmp	r3, #0
 8007b24:	d007      	beq.n	8007b36 <SPI_EndRxTxTransaction+0x32>
  {
    SET_BIT(hspi->ErrorCode, HAL_SPI_ERROR_FLAG);
 8007b26:	68fb      	ldr	r3, [r7, #12]
 8007b28:	6d5b      	ldr	r3, [r3, #84]	; 0x54
 8007b2a:	f043 0220 	orr.w	r2, r3, #32
 8007b2e:	68fb      	ldr	r3, [r7, #12]
 8007b30:	655a      	str	r2, [r3, #84]	; 0x54
    return HAL_TIMEOUT;
 8007b32:	2303      	movs	r3, #3
 8007b34:	e032      	b.n	8007b9c <SPI_EndRxTxTransaction+0x98>
  }

  /* Timeout in s */
  __IO uint32_t count = SPI_BSY_FLAG_WORKAROUND_TIMEOUT * (SystemCoreClock / 24U / 1000000U);
 8007b36:	4b1b      	ldr	r3, [pc, #108]	; (8007ba4 <SPI_EndRxTxTransaction+0xa0>)
 8007b38:	681b      	ldr	r3, [r3, #0]
 8007b3a:	4a1b      	ldr	r2, [pc, #108]	; (8007ba8 <SPI_EndRxTxTransaction+0xa4>)
 8007b3c:	fba2 2303 	umull	r2, r3, r2, r3
 8007b40:	0d5b      	lsrs	r3, r3, #21
 8007b42:	f44f 727a 	mov.w	r2, #1000	; 0x3e8
 8007b46:	fb02 f303 	mul.w	r3, r2, r3
 8007b4a:	617b      	str	r3, [r7, #20]
  /* Erratasheet: BSY bit may stay high at the end of a data transfer in Slave mode */
  if (hspi->Init.Mode == SPI_MODE_MASTER)
 8007b4c:	68fb      	ldr	r3, [r7, #12]
 8007b4e:	685b      	ldr	r3, [r3, #4]
 8007b50:	f5b3 7f82 	cmp.w	r3, #260	; 0x104
 8007b54:	d112      	bne.n	8007b7c <SPI_EndRxTxTransaction+0x78>
  {
    /* Control the BSY flag */
    if (SPI_WaitFlagStateUntilTimeout(hspi, SPI_FLAG_BSY, RESET, Timeout, Tickstart) != HAL_OK)
 8007b56:	687b      	ldr	r3, [r7, #4]
 8007b58:	9300      	str	r3, [sp, #0]
 8007b5a:	68bb      	ldr	r3, [r7, #8]
 8007b5c:	2200      	movs	r2, #0
 8007b5e:	2180      	movs	r1, #128	; 0x80
 8007b60:	68f8      	ldr	r0, [r7, #12]
 8007b62:	f7ff fee1 	bl	8007928 <SPI_WaitFlagStateUntilTimeout>
 8007b66:	4603      	mov	r3, r0
 8007b68:	2b00      	cmp	r3, #0
 8007b6a:	d016      	beq.n	8007b9a <SPI_EndRxTxTransaction+0x96>
    {
      SET_BIT(hspi->ErrorCode, HAL_SPI_ERROR_FLAG);
 8007b6c:	68fb      	ldr	r3, [r7, #12]
 8007b6e:	6d5b      	ldr	r3, [r3, #84]	; 0x54
 8007b70:	f043 0220 	orr.w	r2, r3, #32
 8007b74:	68fb      	ldr	r3, [r7, #12]
 8007b76:	655a      	str	r2, [r3, #84]	; 0x54
      return HAL_TIMEOUT;
 8007b78:	2303      	movs	r3, #3
 8007b7a:	e00f      	b.n	8007b9c <SPI_EndRxTxTransaction+0x98>
    * User have to calculate the timeout value to fit with the time of 1 byte transfer.
    * This time is directly link with the SPI clock from Master device.
    */
    do
    {
      if (count == 0U)
 8007b7c:	697b      	ldr	r3, [r7, #20]
 8007b7e:	2b00      	cmp	r3, #0
 8007b80:	d00a      	beq.n	8007b98 <SPI_EndRxTxTransaction+0x94>
      {
        break;
      }
      count--;
 8007b82:	697b      	ldr	r3, [r7, #20]
 8007b84:	3b01      	subs	r3, #1
 8007b86:	617b      	str	r3, [r7, #20]
    } while (__HAL_SPI_GET_FLAG(hspi, SPI_FLAG_BSY) != RESET);
 8007b88:	68fb      	ldr	r3, [r7, #12]
 8007b8a:	681b      	ldr	r3, [r3, #0]
 8007b8c:	689b      	ldr	r3, [r3, #8]
 8007b8e:	f003 0380 	and.w	r3, r3, #128	; 0x80
 8007b92:	2b80      	cmp	r3, #128	; 0x80
 8007b94:	d0f2      	beq.n	8007b7c <SPI_EndRxTxTransaction+0x78>
 8007b96:	e000      	b.n	8007b9a <SPI_EndRxTxTransaction+0x96>
        break;
 8007b98:	bf00      	nop
  }

  return HAL_OK;
 8007b9a:	2300      	movs	r3, #0
}
 8007b9c:	4618      	mov	r0, r3
 8007b9e:	3718      	adds	r7, #24
 8007ba0:	46bd      	mov	sp, r7
 8007ba2:	bd80      	pop	{r7, pc}
 8007ba4:	2000001c 	.word	0x2000001c
 8007ba8:	165e9f81 	.word	0x165e9f81

08007bac <HAL_TIM_Base_Init>:
  *         Ex: call @ref HAL_TIM_Base_DeInit() before HAL_TIM_Base_Init()
  * @param  htim TIM Base handle
  * @retval HAL status
  */
HAL_StatusTypeDef HAL_TIM_Base_Init(TIM_HandleTypeDef *htim)
{
 8007bac:	b580      	push	{r7, lr}
 8007bae:	b082      	sub	sp, #8
 8007bb0:	af00      	add	r7, sp, #0
 8007bb2:	6078      	str	r0, [r7, #4]
  /* Check the TIM handle allocation */
  if (htim == NULL)
 8007bb4:	687b      	ldr	r3, [r7, #4]
 8007bb6:	2b00      	cmp	r3, #0
 8007bb8:	d101      	bne.n	8007bbe <HAL_TIM_Base_Init+0x12>
  {
    return HAL_ERROR;
 8007bba:	2301      	movs	r3, #1
 8007bbc:	e041      	b.n	8007c42 <HAL_TIM_Base_Init+0x96>
  assert_param(IS_TIM_COUNTER_MODE(htim->Init.CounterMode));
  assert_param(IS_TIM_CLOCKDIVISION_DIV(htim->Init.ClockDivision));
  assert_param(IS_TIM_PERIOD(htim, htim->Init.Period));
  assert_param(IS_TIM_AUTORELOAD_PRELOAD(htim->Init.AutoReloadPreload));

  if (htim->State == HAL_TIM_STATE_RESET)
 8007bbe:	687b      	ldr	r3, [r7, #4]
 8007bc0:	f893 303d 	ldrb.w	r3, [r3, #61]	; 0x3d
 8007bc4:	b2db      	uxtb	r3, r3
 8007bc6:	2b00      	cmp	r3, #0
 8007bc8:	d106      	bne.n	8007bd8 <HAL_TIM_Base_Init+0x2c>
  {
    /* Allocate lock resource and initialize it */
    htim->Lock = HAL_UNLOCKED;
 8007bca:	687b      	ldr	r3, [r7, #4]
 8007bcc:	2200      	movs	r2, #0
 8007bce:	f883 203c 	strb.w	r2, [r3, #60]	; 0x3c
    }
    /* Init the low level hardware : GPIO, CLOCK, NVIC */
    htim->Base_MspInitCallback(htim);
#else
    /* Init the low level hardware : GPIO, CLOCK, NVIC */
    HAL_TIM_Base_MspInit(htim);
 8007bd2:	6878      	ldr	r0, [r7, #4]
 8007bd4:	f7fa ff3c 	bl	8002a50 <HAL_TIM_Base_MspInit>
#endif /* USE_HAL_TIM_REGISTER_CALLBACKS */
  }

  /* Set the TIM state */
  htim->State = HAL_TIM_STATE_BUSY;
 8007bd8:	687b      	ldr	r3, [r7, #4]
 8007bda:	2202      	movs	r2, #2
 8007bdc:	f883 203d 	strb.w	r2, [r3, #61]	; 0x3d

  /* Set the Time Base configuration */
  TIM_Base_SetConfig(htim->Instance, &htim->Init);
 8007be0:	687b      	ldr	r3, [r7, #4]
 8007be2:	681a      	ldr	r2, [r3, #0]
 8007be4:	687b      	ldr	r3, [r7, #4]
 8007be6:	3304      	adds	r3, #4
 8007be8:	4619      	mov	r1, r3
 8007bea:	4610      	mov	r0, r2
 8007bec:	f000 f9c0 	bl	8007f70 <TIM_Base_SetConfig>

  /* Initialize the DMA burst operation state */
  htim->DMABurstState = HAL_DMA_BURST_STATE_READY;
 8007bf0:	687b      	ldr	r3, [r7, #4]
 8007bf2:	2201      	movs	r2, #1
 8007bf4:	f883 2046 	strb.w	r2, [r3, #70]	; 0x46

  /* Initialize the TIM channels state */
  TIM_CHANNEL_STATE_SET_ALL(htim, HAL_TIM_CHANNEL_STATE_READY);
 8007bf8:	687b      	ldr	r3, [r7, #4]
 8007bfa:	2201      	movs	r2, #1
 8007bfc:	f883 203e 	strb.w	r2, [r3, #62]	; 0x3e
 8007c00:	687b      	ldr	r3, [r7, #4]
 8007c02:	2201      	movs	r2, #1
 8007c04:	f883 203f 	strb.w	r2, [r3, #63]	; 0x3f
 8007c08:	687b      	ldr	r3, [r7, #4]
 8007c0a:	2201      	movs	r2, #1
 8007c0c:	f883 2040 	strb.w	r2, [r3, #64]	; 0x40
 8007c10:	687b      	ldr	r3, [r7, #4]
 8007c12:	2201      	movs	r2, #1
 8007c14:	f883 2041 	strb.w	r2, [r3, #65]	; 0x41
  TIM_CHANNEL_N_STATE_SET_ALL(htim, HAL_TIM_CHANNEL_STATE_READY);
 8007c18:	687b      	ldr	r3, [r7, #4]
 8007c1a:	2201      	movs	r2, #1
 8007c1c:	f883 2042 	strb.w	r2, [r3, #66]	; 0x42
 8007c20:	687b      	ldr	r3, [r7, #4]
 8007c22:	2201      	movs	r2, #1
 8007c24:	f883 2043 	strb.w	r2, [r3, #67]	; 0x43
 8007c28:	687b      	ldr	r3, [r7, #4]
 8007c2a:	2201      	movs	r2, #1
 8007c2c:	f883 2044 	strb.w	r2, [r3, #68]	; 0x44
 8007c30:	687b      	ldr	r3, [r7, #4]
 8007c32:	2201      	movs	r2, #1
 8007c34:	f883 2045 	strb.w	r2, [r3, #69]	; 0x45

  /* Initialize the TIM state*/
  htim->State = HAL_TIM_STATE_READY;
 8007c38:	687b      	ldr	r3, [r7, #4]
 8007c3a:	2201      	movs	r2, #1
 8007c3c:	f883 203d 	strb.w	r2, [r3, #61]	; 0x3d

  return HAL_OK;
 8007c40:	2300      	movs	r3, #0
}
 8007c42:	4618      	mov	r0, r3
 8007c44:	3708      	adds	r7, #8
 8007c46:	46bd      	mov	sp, r7
 8007c48:	bd80      	pop	{r7, pc}
	...

08007c4c <HAL_TIM_Base_Start_IT>:
  * @brief  Starts the TIM Base generation in interrupt mode.
  * @param  htim TIM Base handle
  * @retval HAL status
  */
HAL_StatusTypeDef HAL_TIM_Base_Start_IT(TIM_HandleTypeDef *htim)
{
 8007c4c:	b480      	push	{r7}
 8007c4e:	b085      	sub	sp, #20
 8007c50:	af00      	add	r7, sp, #0
 8007c52:	6078      	str	r0, [r7, #4]

  /* Check the parameters */
  assert_param(IS_TIM_INSTANCE(htim->Instance));

  /* Check the TIM state */
  if (htim->State != HAL_TIM_STATE_READY)
 8007c54:	687b      	ldr	r3, [r7, #4]
 8007c56:	f893 303d 	ldrb.w	r3, [r3, #61]	; 0x3d
 8007c5a:	b2db      	uxtb	r3, r3
 8007c5c:	2b01      	cmp	r3, #1
 8007c5e:	d001      	beq.n	8007c64 <HAL_TIM_Base_Start_IT+0x18>
  {
    return HAL_ERROR;
 8007c60:	2301      	movs	r3, #1
 8007c62:	e04e      	b.n	8007d02 <HAL_TIM_Base_Start_IT+0xb6>
  }

  /* Set the TIM state */
  htim->State = HAL_TIM_STATE_BUSY;
 8007c64:	687b      	ldr	r3, [r7, #4]
 8007c66:	2202      	movs	r2, #2
 8007c68:	f883 203d 	strb.w	r2, [r3, #61]	; 0x3d

  /* Enable the TIM Update interrupt */
  __HAL_TIM_ENABLE_IT(htim, TIM_IT_UPDATE);
 8007c6c:	687b      	ldr	r3, [r7, #4]
 8007c6e:	681b      	ldr	r3, [r3, #0]
 8007c70:	68da      	ldr	r2, [r3, #12]
 8007c72:	687b      	ldr	r3, [r7, #4]
 8007c74:	681b      	ldr	r3, [r3, #0]
 8007c76:	f042 0201 	orr.w	r2, r2, #1
 8007c7a:	60da      	str	r2, [r3, #12]

  /* Enable the Peripheral, except in trigger mode where enable is automatically done with trigger */
  if (IS_TIM_SLAVE_INSTANCE(htim->Instance))
 8007c7c:	687b      	ldr	r3, [r7, #4]
 8007c7e:	681b      	ldr	r3, [r3, #0]
 8007c80:	4a23      	ldr	r2, [pc, #140]	; (8007d10 <HAL_TIM_Base_Start_IT+0xc4>)
 8007c82:	4293      	cmp	r3, r2
 8007c84:	d022      	beq.n	8007ccc <HAL_TIM_Base_Start_IT+0x80>
 8007c86:	687b      	ldr	r3, [r7, #4]
 8007c88:	681b      	ldr	r3, [r3, #0]
 8007c8a:	f1b3 4f80 	cmp.w	r3, #1073741824	; 0x40000000
 8007c8e:	d01d      	beq.n	8007ccc <HAL_TIM_Base_Start_IT+0x80>
 8007c90:	687b      	ldr	r3, [r7, #4]
 8007c92:	681b      	ldr	r3, [r3, #0]
 8007c94:	4a1f      	ldr	r2, [pc, #124]	; (8007d14 <HAL_TIM_Base_Start_IT+0xc8>)
 8007c96:	4293      	cmp	r3, r2
 8007c98:	d018      	beq.n	8007ccc <HAL_TIM_Base_Start_IT+0x80>
 8007c9a:	687b      	ldr	r3, [r7, #4]
 8007c9c:	681b      	ldr	r3, [r3, #0]
 8007c9e:	4a1e      	ldr	r2, [pc, #120]	; (8007d18 <HAL_TIM_Base_Start_IT+0xcc>)
 8007ca0:	4293      	cmp	r3, r2
 8007ca2:	d013      	beq.n	8007ccc <HAL_TIM_Base_Start_IT+0x80>
 8007ca4:	687b      	ldr	r3, [r7, #4]
 8007ca6:	681b      	ldr	r3, [r3, #0]
 8007ca8:	4a1c      	ldr	r2, [pc, #112]	; (8007d1c <HAL_TIM_Base_Start_IT+0xd0>)
 8007caa:	4293      	cmp	r3, r2
 8007cac:	d00e      	beq.n	8007ccc <HAL_TIM_Base_Start_IT+0x80>
 8007cae:	687b      	ldr	r3, [r7, #4]
 8007cb0:	681b      	ldr	r3, [r3, #0]
 8007cb2:	4a1b      	ldr	r2, [pc, #108]	; (8007d20 <HAL_TIM_Base_Start_IT+0xd4>)
 8007cb4:	4293      	cmp	r3, r2
 8007cb6:	d009      	beq.n	8007ccc <HAL_TIM_Base_Start_IT+0x80>
 8007cb8:	687b      	ldr	r3, [r7, #4]
 8007cba:	681b      	ldr	r3, [r3, #0]
 8007cbc:	4a19      	ldr	r2, [pc, #100]	; (8007d24 <HAL_TIM_Base_Start_IT+0xd8>)
 8007cbe:	4293      	cmp	r3, r2
 8007cc0:	d004      	beq.n	8007ccc <HAL_TIM_Base_Start_IT+0x80>
 8007cc2:	687b      	ldr	r3, [r7, #4]
 8007cc4:	681b      	ldr	r3, [r3, #0]
 8007cc6:	4a18      	ldr	r2, [pc, #96]	; (8007d28 <HAL_TIM_Base_Start_IT+0xdc>)
 8007cc8:	4293      	cmp	r3, r2
 8007cca:	d111      	bne.n	8007cf0 <HAL_TIM_Base_Start_IT+0xa4>
  {
    tmpsmcr = htim->Instance->SMCR & TIM_SMCR_SMS;
 8007ccc:	687b      	ldr	r3, [r7, #4]
 8007cce:	681b      	ldr	r3, [r3, #0]
 8007cd0:	689b      	ldr	r3, [r3, #8]
 8007cd2:	f003 0307 	and.w	r3, r3, #7
 8007cd6:	60fb      	str	r3, [r7, #12]
    if (!IS_TIM_SLAVEMODE_TRIGGER_ENABLED(tmpsmcr))
 8007cd8:	68fb      	ldr	r3, [r7, #12]
 8007cda:	2b06      	cmp	r3, #6
 8007cdc:	d010      	beq.n	8007d00 <HAL_TIM_Base_Start_IT+0xb4>
    {
      __HAL_TIM_ENABLE(htim);
 8007cde:	687b      	ldr	r3, [r7, #4]
 8007ce0:	681b      	ldr	r3, [r3, #0]
 8007ce2:	681a      	ldr	r2, [r3, #0]
 8007ce4:	687b      	ldr	r3, [r7, #4]
 8007ce6:	681b      	ldr	r3, [r3, #0]
 8007ce8:	f042 0201 	orr.w	r2, r2, #1
 8007cec:	601a      	str	r2, [r3, #0]
    if (!IS_TIM_SLAVEMODE_TRIGGER_ENABLED(tmpsmcr))
 8007cee:	e007      	b.n	8007d00 <HAL_TIM_Base_Start_IT+0xb4>
    }
  }
  else
  {
    __HAL_TIM_ENABLE(htim);
 8007cf0:	687b      	ldr	r3, [r7, #4]
 8007cf2:	681b      	ldr	r3, [r3, #0]
 8007cf4:	681a      	ldr	r2, [r3, #0]
 8007cf6:	687b      	ldr	r3, [r7, #4]
 8007cf8:	681b      	ldr	r3, [r3, #0]
 8007cfa:	f042 0201 	orr.w	r2, r2, #1
 8007cfe:	601a      	str	r2, [r3, #0]
  }

  /* Return function status */
  return HAL_OK;
 8007d00:	2300      	movs	r3, #0
}
 8007d02:	4618      	mov	r0, r3
 8007d04:	3714      	adds	r7, #20
 8007d06:	46bd      	mov	sp, r7
 8007d08:	f85d 7b04 	ldr.w	r7, [sp], #4
 8007d0c:	4770      	bx	lr
 8007d0e:	bf00      	nop
 8007d10:	40010000 	.word	0x40010000
 8007d14:	40000400 	.word	0x40000400
 8007d18:	40000800 	.word	0x40000800
 8007d1c:	40000c00 	.word	0x40000c00
 8007d20:	40010400 	.word	0x40010400
 8007d24:	40014000 	.word	0x40014000
 8007d28:	40001800 	.word	0x40001800

08007d2c <HAL_TIM_IRQHandler>:
  * @brief  This function handles TIM interrupts requests.
  * @param  htim TIM  handle
  * @retval None
  */
void HAL_TIM_IRQHandler(TIM_HandleTypeDef *htim)
{
 8007d2c:	b580      	push	{r7, lr}
 8007d2e:	b084      	sub	sp, #16
 8007d30:	af00      	add	r7, sp, #0
 8007d32:	6078      	str	r0, [r7, #4]
  uint32_t itsource = htim->Instance->DIER;
 8007d34:	687b      	ldr	r3, [r7, #4]
 8007d36:	681b      	ldr	r3, [r3, #0]
 8007d38:	68db      	ldr	r3, [r3, #12]
 8007d3a:	60fb      	str	r3, [r7, #12]
  uint32_t itflag   = htim->Instance->SR;
 8007d3c:	687b      	ldr	r3, [r7, #4]
 8007d3e:	681b      	ldr	r3, [r3, #0]
 8007d40:	691b      	ldr	r3, [r3, #16]
 8007d42:	60bb      	str	r3, [r7, #8]

  /* Capture compare 1 event */
  if ((itflag & (TIM_FLAG_CC1)) == (TIM_FLAG_CC1))
 8007d44:	68bb      	ldr	r3, [r7, #8]
 8007d46:	f003 0302 	and.w	r3, r3, #2
 8007d4a:	2b00      	cmp	r3, #0
 8007d4c:	d020      	beq.n	8007d90 <HAL_TIM_IRQHandler+0x64>
  {
    if ((itsource & (TIM_IT_CC1)) == (TIM_IT_CC1))
 8007d4e:	68fb      	ldr	r3, [r7, #12]
 8007d50:	f003 0302 	and.w	r3, r3, #2
 8007d54:	2b00      	cmp	r3, #0
 8007d56:	d01b      	beq.n	8007d90 <HAL_TIM_IRQHandler+0x64>
    {
      {
        __HAL_TIM_CLEAR_FLAG(htim, TIM_FLAG_CC1);
 8007d58:	687b      	ldr	r3, [r7, #4]
 8007d5a:	681b      	ldr	r3, [r3, #0]
 8007d5c:	f06f 0202 	mvn.w	r2, #2
 8007d60:	611a      	str	r2, [r3, #16]
        htim->Channel = HAL_TIM_ACTIVE_CHANNEL_1;
 8007d62:	687b      	ldr	r3, [r7, #4]
 8007d64:	2201      	movs	r2, #1
 8007d66:	771a      	strb	r2, [r3, #28]

        /* Input capture event */
        if ((htim->Instance->CCMR1 & TIM_CCMR1_CC1S) != 0x00U)
 8007d68:	687b      	ldr	r3, [r7, #4]
 8007d6a:	681b      	ldr	r3, [r3, #0]
 8007d6c:	699b      	ldr	r3, [r3, #24]
 8007d6e:	f003 0303 	and.w	r3, r3, #3
 8007d72:	2b00      	cmp	r3, #0
 8007d74:	d003      	beq.n	8007d7e <HAL_TIM_IRQHandler+0x52>
        {
#if (USE_HAL_TIM_REGISTER_CALLBACKS == 1)
          htim->IC_CaptureCallback(htim);
#else
          HAL_TIM_IC_CaptureCallback(htim);
 8007d76:	6878      	ldr	r0, [r7, #4]
 8007d78:	f000 f8dc 	bl	8007f34 <HAL_TIM_IC_CaptureCallback>
 8007d7c:	e005      	b.n	8007d8a <HAL_TIM_IRQHandler+0x5e>
        {
#if (USE_HAL_TIM_REGISTER_CALLBACKS == 1)
          htim->OC_DelayElapsedCallback(htim);
          htim->PWM_PulseFinishedCallback(htim);
#else
          HAL_TIM_OC_DelayElapsedCallback(htim);
 8007d7e:	6878      	ldr	r0, [r7, #4]
 8007d80:	f000 f8ce 	bl	8007f20 <HAL_TIM_OC_DelayElapsedCallback>
          HAL_TIM_PWM_PulseFinishedCallback(htim);
 8007d84:	6878      	ldr	r0, [r7, #4]
 8007d86:	f000 f8df 	bl	8007f48 <HAL_TIM_PWM_PulseFinishedCallback>
#endif /* USE_HAL_TIM_REGISTER_CALLBACKS */
        }
        htim->Channel = HAL_TIM_ACTIVE_CHANNEL_CLEARED;
 8007d8a:	687b      	ldr	r3, [r7, #4]
 8007d8c:	2200      	movs	r2, #0
 8007d8e:	771a      	strb	r2, [r3, #28]
      }
    }
  }
  /* Capture compare 2 event */
  if ((itflag & (TIM_FLAG_CC2)) == (TIM_FLAG_CC2))
 8007d90:	68bb      	ldr	r3, [r7, #8]
 8007d92:	f003 0304 	and.w	r3, r3, #4
 8007d96:	2b00      	cmp	r3, #0
 8007d98:	d020      	beq.n	8007ddc <HAL_TIM_IRQHandler+0xb0>
  {
    if ((itsource & (TIM_IT_CC2)) == (TIM_IT_CC2))
 8007d9a:	68fb      	ldr	r3, [r7, #12]
 8007d9c:	f003 0304 	and.w	r3, r3, #4
 8007da0:	2b00      	cmp	r3, #0
 8007da2:	d01b      	beq.n	8007ddc <HAL_TIM_IRQHandler+0xb0>
    {
      __HAL_TIM_CLEAR_FLAG(htim, TIM_FLAG_CC2);
 8007da4:	687b      	ldr	r3, [r7, #4]
 8007da6:	681b      	ldr	r3, [r3, #0]
 8007da8:	f06f 0204 	mvn.w	r2, #4
 8007dac:	611a      	str	r2, [r3, #16]
      htim->Channel = HAL_TIM_ACTIVE_CHANNEL_2;
 8007dae:	687b      	ldr	r3, [r7, #4]
 8007db0:	2202      	movs	r2, #2
 8007db2:	771a      	strb	r2, [r3, #28]
      /* Input capture event */
      if ((htim->Instance->CCMR1 & TIM_CCMR1_CC2S) != 0x00U)
 8007db4:	687b      	ldr	r3, [r7, #4]
 8007db6:	681b      	ldr	r3, [r3, #0]
 8007db8:	699b      	ldr	r3, [r3, #24]
 8007dba:	f403 7340 	and.w	r3, r3, #768	; 0x300
 8007dbe:	2b00      	cmp	r3, #0
 8007dc0:	d003      	beq.n	8007dca <HAL_TIM_IRQHandler+0x9e>
      {
#if (USE_HAL_TIM_REGISTER_CALLBACKS == 1)
        htim->IC_CaptureCallback(htim);
#else
        HAL_TIM_IC_CaptureCallback(htim);
 8007dc2:	6878      	ldr	r0, [r7, #4]
 8007dc4:	f000 f8b6 	bl	8007f34 <HAL_TIM_IC_CaptureCallback>
 8007dc8:	e005      	b.n	8007dd6 <HAL_TIM_IRQHandler+0xaa>
      {
#if (USE_HAL_TIM_REGISTER_CALLBACKS == 1)
        htim->OC_DelayElapsedCallback(htim);
        htim->PWM_PulseFinishedCallback(htim);
#else
        HAL_TIM_OC_DelayElapsedCallback(htim);
 8007dca:	6878      	ldr	r0, [r7, #4]
 8007dcc:	f000 f8a8 	bl	8007f20 <HAL_TIM_OC_DelayElapsedCallback>
        HAL_TIM_PWM_PulseFinishedCallback(htim);
 8007dd0:	6878      	ldr	r0, [r7, #4]
 8007dd2:	f000 f8b9 	bl	8007f48 <HAL_TIM_PWM_PulseFinishedCallback>
#endif /* USE_HAL_TIM_REGISTER_CALLBACKS */
      }
      htim->Channel = HAL_TIM_ACTIVE_CHANNEL_CLEARED;
 8007dd6:	687b      	ldr	r3, [r7, #4]
 8007dd8:	2200      	movs	r2, #0
 8007dda:	771a      	strb	r2, [r3, #28]
    }
  }
  /* Capture compare 3 event */
  if ((itflag & (TIM_FLAG_CC3)) == (TIM_FLAG_CC3))
 8007ddc:	68bb      	ldr	r3, [r7, #8]
 8007dde:	f003 0308 	and.w	r3, r3, #8
 8007de2:	2b00      	cmp	r3, #0
 8007de4:	d020      	beq.n	8007e28 <HAL_TIM_IRQHandler+0xfc>
  {
    if ((itsource & (TIM_IT_CC3)) == (TIM_IT_CC3))
 8007de6:	68fb      	ldr	r3, [r7, #12]
 8007de8:	f003 0308 	and.w	r3, r3, #8
 8007dec:	2b00      	cmp	r3, #0
 8007dee:	d01b      	beq.n	8007e28 <HAL_TIM_IRQHandler+0xfc>
    {
      __HAL_TIM_CLEAR_FLAG(htim, TIM_FLAG_CC3);
 8007df0:	687b      	ldr	r3, [r7, #4]
 8007df2:	681b      	ldr	r3, [r3, #0]
 8007df4:	f06f 0208 	mvn.w	r2, #8
 8007df8:	611a      	str	r2, [r3, #16]
      htim->Channel = HAL_TIM_ACTIVE_CHANNEL_3;
 8007dfa:	687b      	ldr	r3, [r7, #4]
 8007dfc:	2204      	movs	r2, #4
 8007dfe:	771a      	strb	r2, [r3, #28]
      /* Input capture event */
      if ((htim->Instance->CCMR2 & TIM_CCMR2_CC3S) != 0x00U)
 8007e00:	687b      	ldr	r3, [r7, #4]
 8007e02:	681b      	ldr	r3, [r3, #0]
 8007e04:	69db      	ldr	r3, [r3, #28]
 8007e06:	f003 0303 	and.w	r3, r3, #3
 8007e0a:	2b00      	cmp	r3, #0
 8007e0c:	d003      	beq.n	8007e16 <HAL_TIM_IRQHandler+0xea>
      {
#if (USE_HAL_TIM_REGISTER_CALLBACKS == 1)
        htim->IC_CaptureCallback(htim);
#else
        HAL_TIM_IC_CaptureCallback(htim);
 8007e0e:	6878      	ldr	r0, [r7, #4]
 8007e10:	f000 f890 	bl	8007f34 <HAL_TIM_IC_CaptureCallback>
 8007e14:	e005      	b.n	8007e22 <HAL_TIM_IRQHandler+0xf6>
      {
#if (USE_HAL_TIM_REGISTER_CALLBACKS == 1)
        htim->OC_DelayElapsedCallback(htim);
        htim->PWM_PulseFinishedCallback(htim);
#else
        HAL_TIM_OC_DelayElapsedCallback(htim);
 8007e16:	6878      	ldr	r0, [r7, #4]
 8007e18:	f000 f882 	bl	8007f20 <HAL_TIM_OC_DelayElapsedCallback>
        HAL_TIM_PWM_PulseFinishedCallback(htim);
 8007e1c:	6878      	ldr	r0, [r7, #4]
 8007e1e:	f000 f893 	bl	8007f48 <HAL_TIM_PWM_PulseFinishedCallback>
#endif /* USE_HAL_TIM_REGISTER_CALLBACKS */
      }
      htim->Channel = HAL_TIM_ACTIVE_CHANNEL_CLEARED;
 8007e22:	687b      	ldr	r3, [r7, #4]
 8007e24:	2200      	movs	r2, #0
 8007e26:	771a      	strb	r2, [r3, #28]
    }
  }
  /* Capture compare 4 event */
  if ((itflag & (TIM_FLAG_CC4)) == (TIM_FLAG_CC4))
 8007e28:	68bb      	ldr	r3, [r7, #8]
 8007e2a:	f003 0310 	and.w	r3, r3, #16
 8007e2e:	2b00      	cmp	r3, #0
 8007e30:	d020      	beq.n	8007e74 <HAL_TIM_IRQHandler+0x148>
  {
    if ((itsource & (TIM_IT_CC4)) == (TIM_IT_CC4))
 8007e32:	68fb      	ldr	r3, [r7, #12]
 8007e34:	f003 0310 	and.w	r3, r3, #16
 8007e38:	2b00      	cmp	r3, #0
 8007e3a:	d01b      	beq.n	8007e74 <HAL_TIM_IRQHandler+0x148>
    {
      __HAL_TIM_CLEAR_FLAG(htim, TIM_FLAG_CC4);
 8007e3c:	687b      	ldr	r3, [r7, #4]
 8007e3e:	681b      	ldr	r3, [r3, #0]
 8007e40:	f06f 0210 	mvn.w	r2, #16
 8007e44:	611a      	str	r2, [r3, #16]
      htim->Channel = HAL_TIM_ACTIVE_CHANNEL_4;
 8007e46:	687b      	ldr	r3, [r7, #4]
 8007e48:	2208      	movs	r2, #8
 8007e4a:	771a      	strb	r2, [r3, #28]
      /* Input capture event */
      if ((htim->Instance->CCMR2 & TIM_CCMR2_CC4S) != 0x00U)
 8007e4c:	687b      	ldr	r3, [r7, #4]
 8007e4e:	681b      	ldr	r3, [r3, #0]
 8007e50:	69db      	ldr	r3, [r3, #28]
 8007e52:	f403 7340 	and.w	r3, r3, #768	; 0x300
 8007e56:	2b00      	cmp	r3, #0
 8007e58:	d003      	beq.n	8007e62 <HAL_TIM_IRQHandler+0x136>
      {
#if (USE_HAL_TIM_REGISTER_CALLBACKS == 1)
        htim->IC_CaptureCallback(htim);
#else
        HAL_TIM_IC_CaptureCallback(htim);
 8007e5a:	6878      	ldr	r0, [r7, #4]
 8007e5c:	f000 f86a 	bl	8007f34 <HAL_TIM_IC_CaptureCallback>
 8007e60:	e005      	b.n	8007e6e <HAL_TIM_IRQHandler+0x142>
      {
#if (USE_HAL_TIM_REGISTER_CALLBACKS == 1)
        htim->OC_DelayElapsedCallback(htim);
        htim->PWM_PulseFinishedCallback(htim);
#else
        HAL_TIM_OC_DelayElapsedCallback(htim);
 8007e62:	6878      	ldr	r0, [r7, #4]
 8007e64:	f000 f85c 	bl	8007f20 <HAL_TIM_OC_DelayElapsedCallback>
        HAL_TIM_PWM_PulseFinishedCallback(htim);
 8007e68:	6878      	ldr	r0, [r7, #4]
 8007e6a:	f000 f86d 	bl	8007f48 <HAL_TIM_PWM_PulseFinishedCallback>
#endif /* USE_HAL_TIM_REGISTER_CALLBACKS */
      }
      htim->Channel = HAL_TIM_ACTIVE_CHANNEL_CLEARED;
 8007e6e:	687b      	ldr	r3, [r7, #4]
 8007e70:	2200      	movs	r2, #0
 8007e72:	771a      	strb	r2, [r3, #28]
    }
  }
  /* TIM Update event */
  if ((itflag & (TIM_FLAG_UPDATE)) == (TIM_FLAG_UPDATE))
 8007e74:	68bb      	ldr	r3, [r7, #8]
 8007e76:	f003 0301 	and.w	r3, r3, #1
 8007e7a:	2b00      	cmp	r3, #0
 8007e7c:	d00c      	beq.n	8007e98 <HAL_TIM_IRQHandler+0x16c>
  {
    if ((itsource & (TIM_IT_UPDATE)) == (TIM_IT_UPDATE))
 8007e7e:	68fb      	ldr	r3, [r7, #12]
 8007e80:	f003 0301 	and.w	r3, r3, #1
 8007e84:	2b00      	cmp	r3, #0
 8007e86:	d007      	beq.n	8007e98 <HAL_TIM_IRQHandler+0x16c>
    {
      __HAL_TIM_CLEAR_FLAG(htim, TIM_FLAG_UPDATE);
 8007e88:	687b      	ldr	r3, [r7, #4]
 8007e8a:	681b      	ldr	r3, [r3, #0]
 8007e8c:	f06f 0201 	mvn.w	r2, #1
 8007e90:	611a      	str	r2, [r3, #16]
#if (USE_HAL_TIM_REGISTER_CALLBACKS == 1)
      htim->PeriodElapsedCallback(htim);
#else
      HAL_TIM_PeriodElapsedCallback(htim);
 8007e92:	6878      	ldr	r0, [r7, #4]
 8007e94:	f000 f83a 	bl	8007f0c <HAL_TIM_PeriodElapsedCallback>
#endif /* USE_HAL_TIM_REGISTER_CALLBACKS */
    }
  }
  /* TIM Break input event */
  if ((itflag & (TIM_FLAG_BREAK)) == (TIM_FLAG_BREAK))
 8007e98:	68bb      	ldr	r3, [r7, #8]
 8007e9a:	f003 0380 	and.w	r3, r3, #128	; 0x80
 8007e9e:	2b00      	cmp	r3, #0
 8007ea0:	d00c      	beq.n	8007ebc <HAL_TIM_IRQHandler+0x190>
  {
    if ((itsource & (TIM_IT_BREAK)) == (TIM_IT_BREAK))
 8007ea2:	68fb      	ldr	r3, [r7, #12]
 8007ea4:	f003 0380 	and.w	r3, r3, #128	; 0x80
 8007ea8:	2b00      	cmp	r3, #0
 8007eaa:	d007      	beq.n	8007ebc <HAL_TIM_IRQHandler+0x190>
    {
      __HAL_TIM_CLEAR_FLAG(htim, TIM_FLAG_BREAK);
 8007eac:	687b      	ldr	r3, [r7, #4]
 8007eae:	681b      	ldr	r3, [r3, #0]
 8007eb0:	f06f 0280 	mvn.w	r2, #128	; 0x80
 8007eb4:	611a      	str	r2, [r3, #16]
#if (USE_HAL_TIM_REGISTER_CALLBACKS == 1)
      htim->BreakCallback(htim);
#else
      HAL_TIMEx_BreakCallback(htim);
 8007eb6:	6878      	ldr	r0, [r7, #4]
 8007eb8:	f000 f98c 	bl	80081d4 <HAL_TIMEx_BreakCallback>
#endif /* USE_HAL_TIM_REGISTER_CALLBACKS */
    }
  }
  /* TIM Trigger detection event */
  if ((itflag & (TIM_FLAG_TRIGGER)) == (TIM_FLAG_TRIGGER))
 8007ebc:	68bb      	ldr	r3, [r7, #8]
 8007ebe:	f003 0340 	and.w	r3, r3, #64	; 0x40
 8007ec2:	2b00      	cmp	r3, #0
 8007ec4:	d00c      	beq.n	8007ee0 <HAL_TIM_IRQHandler+0x1b4>
  {
    if ((itsource & (TIM_IT_TRIGGER)) == (TIM_IT_TRIGGER))
 8007ec6:	68fb      	ldr	r3, [r7, #12]
 8007ec8:	f003 0340 	and.w	r3, r3, #64	; 0x40
 8007ecc:	2b00      	cmp	r3, #0
 8007ece:	d007      	beq.n	8007ee0 <HAL_TIM_IRQHandler+0x1b4>
    {
      __HAL_TIM_CLEAR_FLAG(htim, TIM_FLAG_TRIGGER);
 8007ed0:	687b      	ldr	r3, [r7, #4]
 8007ed2:	681b      	ldr	r3, [r3, #0]
 8007ed4:	f06f 0240 	mvn.w	r2, #64	; 0x40
 8007ed8:	611a      	str	r2, [r3, #16]
#if (USE_HAL_TIM_REGISTER_CALLBACKS == 1)
      htim->TriggerCallback(htim);
#else
      HAL_TIM_TriggerCallback(htim);
 8007eda:	6878      	ldr	r0, [r7, #4]
 8007edc:	f000 f83e 	bl	8007f5c <HAL_TIM_TriggerCallback>
#endif /* USE_HAL_TIM_REGISTER_CALLBACKS */
    }
  }
  /* TIM commutation event */
  if ((itflag & (TIM_FLAG_COM)) == (TIM_FLAG_COM))
 8007ee0:	68bb      	ldr	r3, [r7, #8]
 8007ee2:	f003 0320 	and.w	r3, r3, #32
 8007ee6:	2b00      	cmp	r3, #0
 8007ee8:	d00c      	beq.n	8007f04 <HAL_TIM_IRQHandler+0x1d8>
  {
    if ((itsource & (TIM_IT_COM)) == (TIM_IT_COM))
 8007eea:	68fb      	ldr	r3, [r7, #12]
 8007eec:	f003 0320 	and.w	r3, r3, #32
 8007ef0:	2b00      	cmp	r3, #0
 8007ef2:	d007      	beq.n	8007f04 <HAL_TIM_IRQHandler+0x1d8>
    {
      __HAL_TIM_CLEAR_FLAG(htim, TIM_FLAG_COM);
 8007ef4:	687b      	ldr	r3, [r7, #4]
 8007ef6:	681b      	ldr	r3, [r3, #0]
 8007ef8:	f06f 0220 	mvn.w	r2, #32
 8007efc:	611a      	str	r2, [r3, #16]
#if (USE_HAL_TIM_REGISTER_CALLBACKS == 1)
      htim->CommutationCallback(htim);
#else
      HAL_TIMEx_CommutCallback(htim);
 8007efe:	6878      	ldr	r0, [r7, #4]
 8007f00:	f000 f95e 	bl	80081c0 <HAL_TIMEx_CommutCallback>
#endif /* USE_HAL_TIM_REGISTER_CALLBACKS */
    }
  }
}
 8007f04:	bf00      	nop
 8007f06:	3710      	adds	r7, #16
 8007f08:	46bd      	mov	sp, r7
 8007f0a:	bd80      	pop	{r7, pc}

08007f0c <HAL_TIM_PeriodElapsedCallback>:
  * @brief  Period elapsed callback in non-blocking mode
  * @param  htim TIM handle
  * @retval None
  */
__weak void HAL_TIM_PeriodElapsedCallback(TIM_HandleTypeDef *htim)
{
 8007f0c:	b480      	push	{r7}
 8007f0e:	b083      	sub	sp, #12
 8007f10:	af00      	add	r7, sp, #0
 8007f12:	6078      	str	r0, [r7, #4]
  UNUSED(htim);

  /* NOTE : This function should not be modified, when the callback is needed,
            the HAL_TIM_PeriodElapsedCallback could be implemented in the user file
   */
}
 8007f14:	bf00      	nop
 8007f16:	370c      	adds	r7, #12
 8007f18:	46bd      	mov	sp, r7
 8007f1a:	f85d 7b04 	ldr.w	r7, [sp], #4
 8007f1e:	4770      	bx	lr

08007f20 <HAL_TIM_OC_DelayElapsedCallback>:
  * @brief  Output Compare callback in non-blocking mode
  * @param  htim TIM OC handle
  * @retval None
  */
__weak void HAL_TIM_OC_DelayElapsedCallback(TIM_HandleTypeDef *htim)
{
 8007f20:	b480      	push	{r7}
 8007f22:	b083      	sub	sp, #12
 8007f24:	af00      	add	r7, sp, #0
 8007f26:	6078      	str	r0, [r7, #4]
  UNUSED(htim);

  /* NOTE : This function should not be modified, when the callback is needed,
            the HAL_TIM_OC_DelayElapsedCallback could be implemented in the user file
   */
}
 8007f28:	bf00      	nop
 8007f2a:	370c      	adds	r7, #12
 8007f2c:	46bd      	mov	sp, r7
 8007f2e:	f85d 7b04 	ldr.w	r7, [sp], #4
 8007f32:	4770      	bx	lr

08007f34 <HAL_TIM_IC_CaptureCallback>:
  * @brief  Input Capture callback in non-blocking mode
  * @param  htim TIM IC handle
  * @retval None
  */
__weak void HAL_TIM_IC_CaptureCallback(TIM_HandleTypeDef *htim)
{
 8007f34:	b480      	push	{r7}
 8007f36:	b083      	sub	sp, #12
 8007f38:	af00      	add	r7, sp, #0
 8007f3a:	6078      	str	r0, [r7, #4]
  UNUSED(htim);

  /* NOTE : This function should not be modified, when the callback is needed,
            the HAL_TIM_IC_CaptureCallback could be implemented in the user file
   */
}
 8007f3c:	bf00      	nop
 8007f3e:	370c      	adds	r7, #12
 8007f40:	46bd      	mov	sp, r7
 8007f42:	f85d 7b04 	ldr.w	r7, [sp], #4
 8007f46:	4770      	bx	lr

08007f48 <HAL_TIM_PWM_PulseFinishedCallback>:
  * @brief  PWM Pulse finished callback in non-blocking mode
  * @param  htim TIM handle
  * @retval None
  */
__weak void HAL_TIM_PWM_PulseFinishedCallback(TIM_HandleTypeDef *htim)
{
 8007f48:	b480      	push	{r7}
 8007f4a:	b083      	sub	sp, #12
 8007f4c:	af00      	add	r7, sp, #0
 8007f4e:	6078      	str	r0, [r7, #4]
  UNUSED(htim);

  /* NOTE : This function should not be modified, when the callback is needed,
            the HAL_TIM_PWM_PulseFinishedCallback could be implemented in the user file
   */
}
 8007f50:	bf00      	nop
 8007f52:	370c      	adds	r7, #12
 8007f54:	46bd      	mov	sp, r7
 8007f56:	f85d 7b04 	ldr.w	r7, [sp], #4
 8007f5a:	4770      	bx	lr

08007f5c <HAL_TIM_TriggerCallback>:
  * @brief  Hall Trigger detection callback in non-blocking mode
  * @param  htim TIM handle
  * @retval None
  */
__weak void HAL_TIM_TriggerCallback(TIM_HandleTypeDef *htim)
{
 8007f5c:	b480      	push	{r7}
 8007f5e:	b083      	sub	sp, #12
 8007f60:	af00      	add	r7, sp, #0
 8007f62:	6078      	str	r0, [r7, #4]
  UNUSED(htim);

  /* NOTE : This function should not be modified, when the callback is needed,
            the HAL_TIM_TriggerCallback could be implemented in the user file
   */
}
 8007f64:	bf00      	nop
 8007f66:	370c      	adds	r7, #12
 8007f68:	46bd      	mov	sp, r7
 8007f6a:	f85d 7b04 	ldr.w	r7, [sp], #4
 8007f6e:	4770      	bx	lr

08007f70 <TIM_Base_SetConfig>:
  * @param  TIMx TIM peripheral
  * @param  Structure TIM Base configuration structure
  * @retval None
  */
void TIM_Base_SetConfig(TIM_TypeDef *TIMx, const TIM_Base_InitTypeDef *Structure)
{
 8007f70:	b480      	push	{r7}
 8007f72:	b085      	sub	sp, #20
 8007f74:	af00      	add	r7, sp, #0
 8007f76:	6078      	str	r0, [r7, #4]
 8007f78:	6039      	str	r1, [r7, #0]
  uint32_t tmpcr1;
  tmpcr1 = TIMx->CR1;
 8007f7a:	687b      	ldr	r3, [r7, #4]
 8007f7c:	681b      	ldr	r3, [r3, #0]
 8007f7e:	60fb      	str	r3, [r7, #12]

  /* Set TIM Time Base Unit parameters ---------------------------------------*/
  if (IS_TIM_COUNTER_MODE_SELECT_INSTANCE(TIMx))
 8007f80:	687b      	ldr	r3, [r7, #4]
 8007f82:	4a46      	ldr	r2, [pc, #280]	; (800809c <TIM_Base_SetConfig+0x12c>)
 8007f84:	4293      	cmp	r3, r2
 8007f86:	d013      	beq.n	8007fb0 <TIM_Base_SetConfig+0x40>
 8007f88:	687b      	ldr	r3, [r7, #4]
 8007f8a:	f1b3 4f80 	cmp.w	r3, #1073741824	; 0x40000000
 8007f8e:	d00f      	beq.n	8007fb0 <TIM_Base_SetConfig+0x40>
 8007f90:	687b      	ldr	r3, [r7, #4]
 8007f92:	4a43      	ldr	r2, [pc, #268]	; (80080a0 <TIM_Base_SetConfig+0x130>)
 8007f94:	4293      	cmp	r3, r2
 8007f96:	d00b      	beq.n	8007fb0 <TIM_Base_SetConfig+0x40>
 8007f98:	687b      	ldr	r3, [r7, #4]
 8007f9a:	4a42      	ldr	r2, [pc, #264]	; (80080a4 <TIM_Base_SetConfig+0x134>)
 8007f9c:	4293      	cmp	r3, r2
 8007f9e:	d007      	beq.n	8007fb0 <TIM_Base_SetConfig+0x40>
 8007fa0:	687b      	ldr	r3, [r7, #4]
 8007fa2:	4a41      	ldr	r2, [pc, #260]	; (80080a8 <TIM_Base_SetConfig+0x138>)
 8007fa4:	4293      	cmp	r3, r2
 8007fa6:	d003      	beq.n	8007fb0 <TIM_Base_SetConfig+0x40>
 8007fa8:	687b      	ldr	r3, [r7, #4]
 8007faa:	4a40      	ldr	r2, [pc, #256]	; (80080ac <TIM_Base_SetConfig+0x13c>)
 8007fac:	4293      	cmp	r3, r2
 8007fae:	d108      	bne.n	8007fc2 <TIM_Base_SetConfig+0x52>
  {
    /* Select the Counter Mode */
    tmpcr1 &= ~(TIM_CR1_DIR | TIM_CR1_CMS);
 8007fb0:	68fb      	ldr	r3, [r7, #12]
 8007fb2:	f023 0370 	bic.w	r3, r3, #112	; 0x70
 8007fb6:	60fb      	str	r3, [r7, #12]
    tmpcr1 |= Structure->CounterMode;
 8007fb8:	683b      	ldr	r3, [r7, #0]
 8007fba:	685b      	ldr	r3, [r3, #4]
 8007fbc:	68fa      	ldr	r2, [r7, #12]
 8007fbe:	4313      	orrs	r3, r2
 8007fc0:	60fb      	str	r3, [r7, #12]
  }

  if (IS_TIM_CLOCK_DIVISION_INSTANCE(TIMx))
 8007fc2:	687b      	ldr	r3, [r7, #4]
 8007fc4:	4a35      	ldr	r2, [pc, #212]	; (800809c <TIM_Base_SetConfig+0x12c>)
 8007fc6:	4293      	cmp	r3, r2
 8007fc8:	d02b      	beq.n	8008022 <TIM_Base_SetConfig+0xb2>
 8007fca:	687b      	ldr	r3, [r7, #4]
 8007fcc:	f1b3 4f80 	cmp.w	r3, #1073741824	; 0x40000000
 8007fd0:	d027      	beq.n	8008022 <TIM_Base_SetConfig+0xb2>
 8007fd2:	687b      	ldr	r3, [r7, #4]
 8007fd4:	4a32      	ldr	r2, [pc, #200]	; (80080a0 <TIM_Base_SetConfig+0x130>)
 8007fd6:	4293      	cmp	r3, r2
 8007fd8:	d023      	beq.n	8008022 <TIM_Base_SetConfig+0xb2>
 8007fda:	687b      	ldr	r3, [r7, #4]
 8007fdc:	4a31      	ldr	r2, [pc, #196]	; (80080a4 <TIM_Base_SetConfig+0x134>)
 8007fde:	4293      	cmp	r3, r2
 8007fe0:	d01f      	beq.n	8008022 <TIM_Base_SetConfig+0xb2>
 8007fe2:	687b      	ldr	r3, [r7, #4]
 8007fe4:	4a30      	ldr	r2, [pc, #192]	; (80080a8 <TIM_Base_SetConfig+0x138>)
 8007fe6:	4293      	cmp	r3, r2
 8007fe8:	d01b      	beq.n	8008022 <TIM_Base_SetConfig+0xb2>
 8007fea:	687b      	ldr	r3, [r7, #4]
 8007fec:	4a2f      	ldr	r2, [pc, #188]	; (80080ac <TIM_Base_SetConfig+0x13c>)
 8007fee:	4293      	cmp	r3, r2
 8007ff0:	d017      	beq.n	8008022 <TIM_Base_SetConfig+0xb2>
 8007ff2:	687b      	ldr	r3, [r7, #4]
 8007ff4:	4a2e      	ldr	r2, [pc, #184]	; (80080b0 <TIM_Base_SetConfig+0x140>)
 8007ff6:	4293      	cmp	r3, r2
 8007ff8:	d013      	beq.n	8008022 <TIM_Base_SetConfig+0xb2>
 8007ffa:	687b      	ldr	r3, [r7, #4]
 8007ffc:	4a2d      	ldr	r2, [pc, #180]	; (80080b4 <TIM_Base_SetConfig+0x144>)
 8007ffe:	4293      	cmp	r3, r2
 8008000:	d00f      	beq.n	8008022 <TIM_Base_SetConfig+0xb2>
 8008002:	687b      	ldr	r3, [r7, #4]
 8008004:	4a2c      	ldr	r2, [pc, #176]	; (80080b8 <TIM_Base_SetConfig+0x148>)
 8008006:	4293      	cmp	r3, r2
 8008008:	d00b      	beq.n	8008022 <TIM_Base_SetConfig+0xb2>
 800800a:	687b      	ldr	r3, [r7, #4]
 800800c:	4a2b      	ldr	r2, [pc, #172]	; (80080bc <TIM_Base_SetConfig+0x14c>)
 800800e:	4293      	cmp	r3, r2
 8008010:	d007      	beq.n	8008022 <TIM_Base_SetConfig+0xb2>
 8008012:	687b      	ldr	r3, [r7, #4]
 8008014:	4a2a      	ldr	r2, [pc, #168]	; (80080c0 <TIM_Base_SetConfig+0x150>)
 8008016:	4293      	cmp	r3, r2
 8008018:	d003      	beq.n	8008022 <TIM_Base_SetConfig+0xb2>
 800801a:	687b      	ldr	r3, [r7, #4]
 800801c:	4a29      	ldr	r2, [pc, #164]	; (80080c4 <TIM_Base_SetConfig+0x154>)
 800801e:	4293      	cmp	r3, r2
 8008020:	d108      	bne.n	8008034 <TIM_Base_SetConfig+0xc4>
  {
    /* Set the clock division */
    tmpcr1 &= ~TIM_CR1_CKD;
 8008022:	68fb      	ldr	r3, [r7, #12]
 8008024:	f423 7340 	bic.w	r3, r3, #768	; 0x300
 8008028:	60fb      	str	r3, [r7, #12]
    tmpcr1 |= (uint32_t)Structure->ClockDivision;
 800802a:	683b      	ldr	r3, [r7, #0]
 800802c:	68db      	ldr	r3, [r3, #12]
 800802e:	68fa      	ldr	r2, [r7, #12]
 8008030:	4313      	orrs	r3, r2
 8008032:	60fb      	str	r3, [r7, #12]
  }

  /* Set the auto-reload preload */
  MODIFY_REG(tmpcr1, TIM_CR1_ARPE, Structure->AutoReloadPreload);
 8008034:	68fb      	ldr	r3, [r7, #12]
 8008036:	f023 0280 	bic.w	r2, r3, #128	; 0x80
 800803a:	683b      	ldr	r3, [r7, #0]
 800803c:	695b      	ldr	r3, [r3, #20]
 800803e:	4313      	orrs	r3, r2
 8008040:	60fb      	str	r3, [r7, #12]

  TIMx->CR1 = tmpcr1;
 8008042:	687b      	ldr	r3, [r7, #4]
 8008044:	68fa      	ldr	r2, [r7, #12]
 8008046:	601a      	str	r2, [r3, #0]

  /* Set the Autoreload value */
  TIMx->ARR = (uint32_t)Structure->Period ;
 8008048:	683b      	ldr	r3, [r7, #0]
 800804a:	689a      	ldr	r2, [r3, #8]
 800804c:	687b      	ldr	r3, [r7, #4]
 800804e:	62da      	str	r2, [r3, #44]	; 0x2c

  /* Set the Prescaler value */
  TIMx->PSC = Structure->Prescaler;
 8008050:	683b      	ldr	r3, [r7, #0]
 8008052:	681a      	ldr	r2, [r3, #0]
 8008054:	687b      	ldr	r3, [r7, #4]
 8008056:	629a      	str	r2, [r3, #40]	; 0x28

  if (IS_TIM_REPETITION_COUNTER_INSTANCE(TIMx))
 8008058:	687b      	ldr	r3, [r7, #4]
 800805a:	4a10      	ldr	r2, [pc, #64]	; (800809c <TIM_Base_SetConfig+0x12c>)
 800805c:	4293      	cmp	r3, r2
 800805e:	d003      	beq.n	8008068 <TIM_Base_SetConfig+0xf8>
 8008060:	687b      	ldr	r3, [r7, #4]
 8008062:	4a12      	ldr	r2, [pc, #72]	; (80080ac <TIM_Base_SetConfig+0x13c>)
 8008064:	4293      	cmp	r3, r2
 8008066:	d103      	bne.n	8008070 <TIM_Base_SetConfig+0x100>
  {
    /* Set the Repetition Counter value */
    TIMx->RCR = Structure->RepetitionCounter;
 8008068:	683b      	ldr	r3, [r7, #0]
 800806a:	691a      	ldr	r2, [r3, #16]
 800806c:	687b      	ldr	r3, [r7, #4]
 800806e:	631a      	str	r2, [r3, #48]	; 0x30
  }

  /* Generate an update event to reload the Prescaler
     and the repetition counter (only for advanced timer) value immediately */
  TIMx->EGR = TIM_EGR_UG;
 8008070:	687b      	ldr	r3, [r7, #4]
 8008072:	2201      	movs	r2, #1
 8008074:	615a      	str	r2, [r3, #20]

  /* Check if the update flag is set after the Update Generation, if so clear the UIF flag */
  if (HAL_IS_BIT_SET(TIMx->SR, TIM_FLAG_UPDATE))
 8008076:	687b      	ldr	r3, [r7, #4]
 8008078:	691b      	ldr	r3, [r3, #16]
 800807a:	f003 0301 	and.w	r3, r3, #1
 800807e:	2b01      	cmp	r3, #1
 8008080:	d105      	bne.n	800808e <TIM_Base_SetConfig+0x11e>
  {
    /* Clear the update flag */
    CLEAR_BIT(TIMx->SR, TIM_FLAG_UPDATE);
 8008082:	687b      	ldr	r3, [r7, #4]
 8008084:	691b      	ldr	r3, [r3, #16]
 8008086:	f023 0201 	bic.w	r2, r3, #1
 800808a:	687b      	ldr	r3, [r7, #4]
 800808c:	611a      	str	r2, [r3, #16]
  }
}
 800808e:	bf00      	nop
 8008090:	3714      	adds	r7, #20
 8008092:	46bd      	mov	sp, r7
 8008094:	f85d 7b04 	ldr.w	r7, [sp], #4
 8008098:	4770      	bx	lr
 800809a:	bf00      	nop
 800809c:	40010000 	.word	0x40010000
 80080a0:	40000400 	.word	0x40000400
 80080a4:	40000800 	.word	0x40000800
 80080a8:	40000c00 	.word	0x40000c00
 80080ac:	40010400 	.word	0x40010400
 80080b0:	40014000 	.word	0x40014000
 80080b4:	40014400 	.word	0x40014400
 80080b8:	40014800 	.word	0x40014800
 80080bc:	40001800 	.word	0x40001800
 80080c0:	40001c00 	.word	0x40001c00
 80080c4:	40002000 	.word	0x40002000

080080c8 <HAL_TIMEx_MasterConfigSynchronization>:
  *         mode.
  * @retval HAL status
  */
HAL_StatusTypeDef HAL_TIMEx_MasterConfigSynchronization(TIM_HandleTypeDef *htim,
                                                        const TIM_MasterConfigTypeDef *sMasterConfig)
{
 80080c8:	b480      	push	{r7}
 80080ca:	b085      	sub	sp, #20
 80080cc:	af00      	add	r7, sp, #0
 80080ce:	6078      	str	r0, [r7, #4]
 80080d0:	6039      	str	r1, [r7, #0]
  assert_param(IS_TIM_MASTER_INSTANCE(htim->Instance));
  assert_param(IS_TIM_TRGO_SOURCE(sMasterConfig->MasterOutputTrigger));
  assert_param(IS_TIM_MSM_STATE(sMasterConfig->MasterSlaveMode));

  /* Check input state */
  __HAL_LOCK(htim);
 80080d2:	687b      	ldr	r3, [r7, #4]
 80080d4:	f893 303c 	ldrb.w	r3, [r3, #60]	; 0x3c
 80080d8:	2b01      	cmp	r3, #1
 80080da:	d101      	bne.n	80080e0 <HAL_TIMEx_MasterConfigSynchronization+0x18>
 80080dc:	2302      	movs	r3, #2
 80080de:	e05a      	b.n	8008196 <HAL_TIMEx_MasterConfigSynchronization+0xce>
 80080e0:	687b      	ldr	r3, [r7, #4]
 80080e2:	2201      	movs	r2, #1
 80080e4:	f883 203c 	strb.w	r2, [r3, #60]	; 0x3c

  /* Change the handler state */
  htim->State = HAL_TIM_STATE_BUSY;
 80080e8:	687b      	ldr	r3, [r7, #4]
 80080ea:	2202      	movs	r2, #2
 80080ec:	f883 203d 	strb.w	r2, [r3, #61]	; 0x3d

  /* Get the TIMx CR2 register value */
  tmpcr2 = htim->Instance->CR2;
 80080f0:	687b      	ldr	r3, [r7, #4]
 80080f2:	681b      	ldr	r3, [r3, #0]
 80080f4:	685b      	ldr	r3, [r3, #4]
 80080f6:	60fb      	str	r3, [r7, #12]

  /* Get the TIMx SMCR register value */
  tmpsmcr = htim->Instance->SMCR;
 80080f8:	687b      	ldr	r3, [r7, #4]
 80080fa:	681b      	ldr	r3, [r3, #0]
 80080fc:	689b      	ldr	r3, [r3, #8]
 80080fe:	60bb      	str	r3, [r7, #8]

  /* Reset the MMS Bits */
  tmpcr2 &= ~TIM_CR2_MMS;
 8008100:	68fb      	ldr	r3, [r7, #12]
 8008102:	f023 0370 	bic.w	r3, r3, #112	; 0x70
 8008106:	60fb      	str	r3, [r7, #12]
  /* Select the TRGO source */
  tmpcr2 |=  sMasterConfig->MasterOutputTrigger;
 8008108:	683b      	ldr	r3, [r7, #0]
 800810a:	681b      	ldr	r3, [r3, #0]
 800810c:	68fa      	ldr	r2, [r7, #12]
 800810e:	4313      	orrs	r3, r2
 8008110:	60fb      	str	r3, [r7, #12]

  /* Update TIMx CR2 */
  htim->Instance->CR2 = tmpcr2;
 8008112:	687b      	ldr	r3, [r7, #4]
 8008114:	681b      	ldr	r3, [r3, #0]
 8008116:	68fa      	ldr	r2, [r7, #12]
 8008118:	605a      	str	r2, [r3, #4]

  if (IS_TIM_SLAVE_INSTANCE(htim->Instance))
 800811a:	687b      	ldr	r3, [r7, #4]
 800811c:	681b      	ldr	r3, [r3, #0]
 800811e:	4a21      	ldr	r2, [pc, #132]	; (80081a4 <HAL_TIMEx_MasterConfigSynchronization+0xdc>)
 8008120:	4293      	cmp	r3, r2
 8008122:	d022      	beq.n	800816a <HAL_TIMEx_MasterConfigSynchronization+0xa2>
 8008124:	687b      	ldr	r3, [r7, #4]
 8008126:	681b      	ldr	r3, [r3, #0]
 8008128:	f1b3 4f80 	cmp.w	r3, #1073741824	; 0x40000000
 800812c:	d01d      	beq.n	800816a <HAL_TIMEx_MasterConfigSynchronization+0xa2>
 800812e:	687b      	ldr	r3, [r7, #4]
 8008130:	681b      	ldr	r3, [r3, #0]
 8008132:	4a1d      	ldr	r2, [pc, #116]	; (80081a8 <HAL_TIMEx_MasterConfigSynchronization+0xe0>)
 8008134:	4293      	cmp	r3, r2
 8008136:	d018      	beq.n	800816a <HAL_TIMEx_MasterConfigSynchronization+0xa2>
 8008138:	687b      	ldr	r3, [r7, #4]
 800813a:	681b      	ldr	r3, [r3, #0]
 800813c:	4a1b      	ldr	r2, [pc, #108]	; (80081ac <HAL_TIMEx_MasterConfigSynchronization+0xe4>)
 800813e:	4293      	cmp	r3, r2
 8008140:	d013      	beq.n	800816a <HAL_TIMEx_MasterConfigSynchronization+0xa2>
 8008142:	687b      	ldr	r3, [r7, #4]
 8008144:	681b      	ldr	r3, [r3, #0]
 8008146:	4a1a      	ldr	r2, [pc, #104]	; (80081b0 <HAL_TIMEx_MasterConfigSynchronization+0xe8>)
 8008148:	4293      	cmp	r3, r2
 800814a:	d00e      	beq.n	800816a <HAL_TIMEx_MasterConfigSynchronization+0xa2>
 800814c:	687b      	ldr	r3, [r7, #4]
 800814e:	681b      	ldr	r3, [r3, #0]
 8008150:	4a18      	ldr	r2, [pc, #96]	; (80081b4 <HAL_TIMEx_MasterConfigSynchronization+0xec>)
 8008152:	4293      	cmp	r3, r2
 8008154:	d009      	beq.n	800816a <HAL_TIMEx_MasterConfigSynchronization+0xa2>
 8008156:	687b      	ldr	r3, [r7, #4]
 8008158:	681b      	ldr	r3, [r3, #0]
 800815a:	4a17      	ldr	r2, [pc, #92]	; (80081b8 <HAL_TIMEx_MasterConfigSynchronization+0xf0>)
 800815c:	4293      	cmp	r3, r2
 800815e:	d004      	beq.n	800816a <HAL_TIMEx_MasterConfigSynchronization+0xa2>
 8008160:	687b      	ldr	r3, [r7, #4]
 8008162:	681b      	ldr	r3, [r3, #0]
 8008164:	4a15      	ldr	r2, [pc, #84]	; (80081bc <HAL_TIMEx_MasterConfigSynchronization+0xf4>)
 8008166:	4293      	cmp	r3, r2
 8008168:	d10c      	bne.n	8008184 <HAL_TIMEx_MasterConfigSynchronization+0xbc>
  {
    /* Reset the MSM Bit */
    tmpsmcr &= ~TIM_SMCR_MSM;
 800816a:	68bb      	ldr	r3, [r7, #8]
 800816c:	f023 0380 	bic.w	r3, r3, #128	; 0x80
 8008170:	60bb      	str	r3, [r7, #8]
    /* Set master mode */
    tmpsmcr |= sMasterConfig->MasterSlaveMode;
 8008172:	683b      	ldr	r3, [r7, #0]
 8008174:	685b      	ldr	r3, [r3, #4]
 8008176:	68ba      	ldr	r2, [r7, #8]
 8008178:	4313      	orrs	r3, r2
 800817a:	60bb      	str	r3, [r7, #8]

    /* Update TIMx SMCR */
    htim->Instance->SMCR = tmpsmcr;
 800817c:	687b      	ldr	r3, [r7, #4]
 800817e:	681b      	ldr	r3, [r3, #0]
 8008180:	68ba      	ldr	r2, [r7, #8]
 8008182:	609a      	str	r2, [r3, #8]
  }

  /* Change the htim state */
  htim->State = HAL_TIM_STATE_READY;
 8008184:	687b      	ldr	r3, [r7, #4]
 8008186:	2201      	movs	r2, #1
 8008188:	f883 203d 	strb.w	r2, [r3, #61]	; 0x3d

  __HAL_UNLOCK(htim);
 800818c:	687b      	ldr	r3, [r7, #4]
 800818e:	2200      	movs	r2, #0
 8008190:	f883 203c 	strb.w	r2, [r3, #60]	; 0x3c

  return HAL_OK;
 8008194:	2300      	movs	r3, #0
}
 8008196:	4618      	mov	r0, r3
 8008198:	3714      	adds	r7, #20
 800819a:	46bd      	mov	sp, r7
 800819c:	f85d 7b04 	ldr.w	r7, [sp], #4
 80081a0:	4770      	bx	lr
 80081a2:	bf00      	nop
 80081a4:	40010000 	.word	0x40010000
 80081a8:	40000400 	.word	0x40000400
 80081ac:	40000800 	.word	0x40000800
 80081b0:	40000c00 	.word	0x40000c00
 80081b4:	40010400 	.word	0x40010400
 80081b8:	40014000 	.word	0x40014000
 80081bc:	40001800 	.word	0x40001800

080081c0 <HAL_TIMEx_CommutCallback>:
  * @brief  Commutation callback in non-blocking mode
  * @param  htim TIM handle
  * @retval None
  */
__weak void HAL_TIMEx_CommutCallback(TIM_HandleTypeDef *htim)
{
 80081c0:	b480      	push	{r7}
 80081c2:	b083      	sub	sp, #12
 80081c4:	af00      	add	r7, sp, #0
 80081c6:	6078      	str	r0, [r7, #4]
  UNUSED(htim);

  /* NOTE : This function should not be modified, when the callback is needed,
            the HAL_TIMEx_CommutCallback could be implemented in the user file
   */
}
 80081c8:	bf00      	nop
 80081ca:	370c      	adds	r7, #12
 80081cc:	46bd      	mov	sp, r7
 80081ce:	f85d 7b04 	ldr.w	r7, [sp], #4
 80081d2:	4770      	bx	lr

080081d4 <HAL_TIMEx_BreakCallback>:
  * @brief  Break detection callback in non-blocking mode
  * @param  htim TIM handle
  * @retval None
  */
__weak void HAL_TIMEx_BreakCallback(TIM_HandleTypeDef *htim)
{
 80081d4:	b480      	push	{r7}
 80081d6:	b083      	sub	sp, #12
 80081d8:	af00      	add	r7, sp, #0
 80081da:	6078      	str	r0, [r7, #4]
  UNUSED(htim);

  /* NOTE : This function should not be modified, when the callback is needed,
            the HAL_TIMEx_BreakCallback could be implemented in the user file
   */
}
 80081dc:	bf00      	nop
 80081de:	370c      	adds	r7, #12
 80081e0:	46bd      	mov	sp, r7
 80081e2:	f85d 7b04 	ldr.w	r7, [sp], #4
 80081e6:	4770      	bx	lr

080081e8 <HAL_UART_Init>:
  * @param  huart  Pointer to a UART_HandleTypeDef structure that contains
  *                the configuration information for the specified UART module.
  * @retval HAL status
  */
HAL_StatusTypeDef HAL_UART_Init(UART_HandleTypeDef *huart)
{
 80081e8:	b580      	push	{r7, lr}
 80081ea:	b082      	sub	sp, #8
 80081ec:	af00      	add	r7, sp, #0
 80081ee:	6078      	str	r0, [r7, #4]
  /* Check the UART handle allocation */
  if (huart == NULL)
 80081f0:	687b      	ldr	r3, [r7, #4]
 80081f2:	2b00      	cmp	r3, #0
 80081f4:	d101      	bne.n	80081fa <HAL_UART_Init+0x12>
  {
    return HAL_ERROR;
 80081f6:	2301      	movs	r3, #1
 80081f8:	e042      	b.n	8008280 <HAL_UART_Init+0x98>
    assert_param(IS_UART_INSTANCE(huart->Instance));
  }
  assert_param(IS_UART_WORD_LENGTH(huart->Init.WordLength));
  assert_param(IS_UART_OVERSAMPLING(huart->Init.OverSampling));

  if (huart->gState == HAL_UART_STATE_RESET)
 80081fa:	687b      	ldr	r3, [r7, #4]
 80081fc:	f893 3041 	ldrb.w	r3, [r3, #65]	; 0x41
 8008200:	b2db      	uxtb	r3, r3
 8008202:	2b00      	cmp	r3, #0
 8008204:	d106      	bne.n	8008214 <HAL_UART_Init+0x2c>
  {
    /* Allocate lock resource and initialize it */
    huart->Lock = HAL_UNLOCKED;
 8008206:	687b      	ldr	r3, [r7, #4]
 8008208:	2200      	movs	r2, #0
 800820a:	f883 2040 	strb.w	r2, [r3, #64]	; 0x40

    /* Init the low level hardware */
    huart->MspInitCallback(huart);
#else
    /* Init the low level hardware : GPIO, CLOCK */
    HAL_UART_MspInit(huart);
 800820e:	6878      	ldr	r0, [r7, #4]
 8008210:	f7fa fc64 	bl	8002adc <HAL_UART_MspInit>
#endif /* (USE_HAL_UART_REGISTER_CALLBACKS) */
  }

  huart->gState = HAL_UART_STATE_BUSY;
 8008214:	687b      	ldr	r3, [r7, #4]
 8008216:	2224      	movs	r2, #36	; 0x24
 8008218:	f883 2041 	strb.w	r2, [r3, #65]	; 0x41

  /* Disable the peripheral */
  __HAL_UART_DISABLE(huart);
 800821c:	687b      	ldr	r3, [r7, #4]
 800821e:	681b      	ldr	r3, [r3, #0]
 8008220:	68da      	ldr	r2, [r3, #12]
 8008222:	687b      	ldr	r3, [r7, #4]
 8008224:	681b      	ldr	r3, [r3, #0]
 8008226:	f422 5200 	bic.w	r2, r2, #8192	; 0x2000
 800822a:	60da      	str	r2, [r3, #12]

  /* Set the UART Communication parameters */
  UART_SetConfig(huart);
 800822c:	6878      	ldr	r0, [r7, #4]
 800822e:	f000 fdbd 	bl	8008dac <UART_SetConfig>

  /* In asynchronous mode, the following bits must be kept cleared:
     - LINEN and CLKEN bits in the USART_CR2 register,
     - SCEN, HDSEL and IREN  bits in the USART_CR3 register.*/
  CLEAR_BIT(huart->Instance->CR2, (USART_CR2_LINEN | USART_CR2_CLKEN));
 8008232:	687b      	ldr	r3, [r7, #4]
 8008234:	681b      	ldr	r3, [r3, #0]
 8008236:	691a      	ldr	r2, [r3, #16]
 8008238:	687b      	ldr	r3, [r7, #4]
 800823a:	681b      	ldr	r3, [r3, #0]
 800823c:	f422 4290 	bic.w	r2, r2, #18432	; 0x4800
 8008240:	611a      	str	r2, [r3, #16]
  CLEAR_BIT(huart->Instance->CR3, (USART_CR3_SCEN | USART_CR3_HDSEL | USART_CR3_IREN));
 8008242:	687b      	ldr	r3, [r7, #4]
 8008244:	681b      	ldr	r3, [r3, #0]
 8008246:	695a      	ldr	r2, [r3, #20]
 8008248:	687b      	ldr	r3, [r7, #4]
 800824a:	681b      	ldr	r3, [r3, #0]
 800824c:	f022 022a 	bic.w	r2, r2, #42	; 0x2a
 8008250:	615a      	str	r2, [r3, #20]

  /* Enable the peripheral */
  __HAL_UART_ENABLE(huart);
 8008252:	687b      	ldr	r3, [r7, #4]
 8008254:	681b      	ldr	r3, [r3, #0]
 8008256:	68da      	ldr	r2, [r3, #12]
 8008258:	687b      	ldr	r3, [r7, #4]
 800825a:	681b      	ldr	r3, [r3, #0]
 800825c:	f442 5200 	orr.w	r2, r2, #8192	; 0x2000
 8008260:	60da      	str	r2, [r3, #12]

  /* Initialize the UART state */
  huart->ErrorCode = HAL_UART_ERROR_NONE;
 8008262:	687b      	ldr	r3, [r7, #4]
 8008264:	2200      	movs	r2, #0
 8008266:	645a      	str	r2, [r3, #68]	; 0x44
  huart->gState = HAL_UART_STATE_READY;
 8008268:	687b      	ldr	r3, [r7, #4]
 800826a:	2220      	movs	r2, #32
 800826c:	f883 2041 	strb.w	r2, [r3, #65]	; 0x41
  huart->RxState = HAL_UART_STATE_READY;
 8008270:	687b      	ldr	r3, [r7, #4]
 8008272:	2220      	movs	r2, #32
 8008274:	f883 2042 	strb.w	r2, [r3, #66]	; 0x42
  huart->RxEventType = HAL_UART_RXEVENT_TC;
 8008278:	687b      	ldr	r3, [r7, #4]
 800827a:	2200      	movs	r2, #0
 800827c:	635a      	str	r2, [r3, #52]	; 0x34

  return HAL_OK;
 800827e:	2300      	movs	r3, #0
}
 8008280:	4618      	mov	r0, r3
 8008282:	3708      	adds	r7, #8
 8008284:	46bd      	mov	sp, r7
 8008286:	bd80      	pop	{r7, pc}

08008288 <HAL_UART_Transmit>:
  * @param  Size  Amount of data elements (u8 or u16) to be sent
  * @param  Timeout Timeout duration
  * @retval HAL status
  */
HAL_StatusTypeDef HAL_UART_Transmit(UART_HandleTypeDef *huart, const uint8_t *pData, uint16_t Size, uint32_t Timeout)
{
 8008288:	b580      	push	{r7, lr}
 800828a:	b08a      	sub	sp, #40	; 0x28
 800828c:	af02      	add	r7, sp, #8
 800828e:	60f8      	str	r0, [r7, #12]
 8008290:	60b9      	str	r1, [r7, #8]
 8008292:	603b      	str	r3, [r7, #0]
 8008294:	4613      	mov	r3, r2
 8008296:	80fb      	strh	r3, [r7, #6]
  const uint8_t  *pdata8bits;
  const uint16_t *pdata16bits;
  uint32_t tickstart = 0U;
 8008298:	2300      	movs	r3, #0
 800829a:	617b      	str	r3, [r7, #20]

  /* Check that a Tx process is not already ongoing */
  if (huart->gState == HAL_UART_STATE_READY)
 800829c:	68fb      	ldr	r3, [r7, #12]
 800829e:	f893 3041 	ldrb.w	r3, [r3, #65]	; 0x41
 80082a2:	b2db      	uxtb	r3, r3
 80082a4:	2b20      	cmp	r3, #32
 80082a6:	d175      	bne.n	8008394 <HAL_UART_Transmit+0x10c>
  {
    if ((pData == NULL) || (Size == 0U))
 80082a8:	68bb      	ldr	r3, [r7, #8]
 80082aa:	2b00      	cmp	r3, #0
 80082ac:	d002      	beq.n	80082b4 <HAL_UART_Transmit+0x2c>
 80082ae:	88fb      	ldrh	r3, [r7, #6]
 80082b0:	2b00      	cmp	r3, #0
 80082b2:	d101      	bne.n	80082b8 <HAL_UART_Transmit+0x30>
    {
      return  HAL_ERROR;
 80082b4:	2301      	movs	r3, #1
 80082b6:	e06e      	b.n	8008396 <HAL_UART_Transmit+0x10e>
    }

    huart->ErrorCode = HAL_UART_ERROR_NONE;
 80082b8:	68fb      	ldr	r3, [r7, #12]
 80082ba:	2200      	movs	r2, #0
 80082bc:	645a      	str	r2, [r3, #68]	; 0x44
    huart->gState = HAL_UART_STATE_BUSY_TX;
 80082be:	68fb      	ldr	r3, [r7, #12]
 80082c0:	2221      	movs	r2, #33	; 0x21
 80082c2:	f883 2041 	strb.w	r2, [r3, #65]	; 0x41

    /* Init tickstart for timeout management */
    tickstart = HAL_GetTick();
 80082c6:	f7fa fe15 	bl	8002ef4 <HAL_GetTick>
 80082ca:	6178      	str	r0, [r7, #20]

    huart->TxXferSize = Size;
 80082cc:	68fb      	ldr	r3, [r7, #12]
 80082ce:	88fa      	ldrh	r2, [r7, #6]
 80082d0:	849a      	strh	r2, [r3, #36]	; 0x24
    huart->TxXferCount = Size;
 80082d2:	68fb      	ldr	r3, [r7, #12]
 80082d4:	88fa      	ldrh	r2, [r7, #6]
 80082d6:	84da      	strh	r2, [r3, #38]	; 0x26

    /* In case of 9bits/No Parity transfer, pData needs to be handled as a uint16_t pointer */
    if ((huart->Init.WordLength == UART_WORDLENGTH_9B) && (huart->Init.Parity == UART_PARITY_NONE))
 80082d8:	68fb      	ldr	r3, [r7, #12]
 80082da:	689b      	ldr	r3, [r3, #8]
 80082dc:	f5b3 5f80 	cmp.w	r3, #4096	; 0x1000
 80082e0:	d108      	bne.n	80082f4 <HAL_UART_Transmit+0x6c>
 80082e2:	68fb      	ldr	r3, [r7, #12]
 80082e4:	691b      	ldr	r3, [r3, #16]
 80082e6:	2b00      	cmp	r3, #0
 80082e8:	d104      	bne.n	80082f4 <HAL_UART_Transmit+0x6c>
    {
      pdata8bits  = NULL;
 80082ea:	2300      	movs	r3, #0
 80082ec:	61fb      	str	r3, [r7, #28]
      pdata16bits = (const uint16_t *) pData;
 80082ee:	68bb      	ldr	r3, [r7, #8]
 80082f0:	61bb      	str	r3, [r7, #24]
 80082f2:	e003      	b.n	80082fc <HAL_UART_Transmit+0x74>
    }
    else
    {
      pdata8bits  = pData;
 80082f4:	68bb      	ldr	r3, [r7, #8]
 80082f6:	61fb      	str	r3, [r7, #28]
      pdata16bits = NULL;
 80082f8:	2300      	movs	r3, #0
 80082fa:	61bb      	str	r3, [r7, #24]
    }

    while (huart->TxXferCount > 0U)
 80082fc:	e02e      	b.n	800835c <HAL_UART_Transmit+0xd4>
    {
      if (UART_WaitOnFlagUntilTimeout(huart, UART_FLAG_TXE, RESET, tickstart, Timeout) != HAL_OK)
 80082fe:	683b      	ldr	r3, [r7, #0]
 8008300:	9300      	str	r3, [sp, #0]
 8008302:	697b      	ldr	r3, [r7, #20]
 8008304:	2200      	movs	r2, #0
 8008306:	2180      	movs	r1, #128	; 0x80
 8008308:	68f8      	ldr	r0, [r7, #12]
 800830a:	f000 fb1f 	bl	800894c <UART_WaitOnFlagUntilTimeout>
 800830e:	4603      	mov	r3, r0
 8008310:	2b00      	cmp	r3, #0
 8008312:	d005      	beq.n	8008320 <HAL_UART_Transmit+0x98>
      {
        huart->gState = HAL_UART_STATE_READY;
 8008314:	68fb      	ldr	r3, [r7, #12]
 8008316:	2220      	movs	r2, #32
 8008318:	f883 2041 	strb.w	r2, [r3, #65]	; 0x41

        return HAL_TIMEOUT;
 800831c:	2303      	movs	r3, #3
 800831e:	e03a      	b.n	8008396 <HAL_UART_Transmit+0x10e>
      }
      if (pdata8bits == NULL)
 8008320:	69fb      	ldr	r3, [r7, #28]
 8008322:	2b00      	cmp	r3, #0
 8008324:	d10b      	bne.n	800833e <HAL_UART_Transmit+0xb6>
      {
        huart->Instance->DR = (uint16_t)(*pdata16bits & 0x01FFU);
 8008326:	69bb      	ldr	r3, [r7, #24]
 8008328:	881b      	ldrh	r3, [r3, #0]
 800832a:	461a      	mov	r2, r3
 800832c:	68fb      	ldr	r3, [r7, #12]
 800832e:	681b      	ldr	r3, [r3, #0]
 8008330:	f3c2 0208 	ubfx	r2, r2, #0, #9
 8008334:	605a      	str	r2, [r3, #4]
        pdata16bits++;
 8008336:	69bb      	ldr	r3, [r7, #24]
 8008338:	3302      	adds	r3, #2
 800833a:	61bb      	str	r3, [r7, #24]
 800833c:	e007      	b.n	800834e <HAL_UART_Transmit+0xc6>
      }
      else
      {
        huart->Instance->DR = (uint8_t)(*pdata8bits & 0xFFU);
 800833e:	69fb      	ldr	r3, [r7, #28]
 8008340:	781a      	ldrb	r2, [r3, #0]
 8008342:	68fb      	ldr	r3, [r7, #12]
 8008344:	681b      	ldr	r3, [r3, #0]
 8008346:	605a      	str	r2, [r3, #4]
        pdata8bits++;
 8008348:	69fb      	ldr	r3, [r7, #28]
 800834a:	3301      	adds	r3, #1
 800834c:	61fb      	str	r3, [r7, #28]
      }
      huart->TxXferCount--;
 800834e:	68fb      	ldr	r3, [r7, #12]
 8008350:	8cdb      	ldrh	r3, [r3, #38]	; 0x26
 8008352:	b29b      	uxth	r3, r3
 8008354:	3b01      	subs	r3, #1
 8008356:	b29a      	uxth	r2, r3
 8008358:	68fb      	ldr	r3, [r7, #12]
 800835a:	84da      	strh	r2, [r3, #38]	; 0x26
    while (huart->TxXferCount > 0U)
 800835c:	68fb      	ldr	r3, [r7, #12]
 800835e:	8cdb      	ldrh	r3, [r3, #38]	; 0x26
 8008360:	b29b      	uxth	r3, r3
 8008362:	2b00      	cmp	r3, #0
 8008364:	d1cb      	bne.n	80082fe <HAL_UART_Transmit+0x76>
    }

    if (UART_WaitOnFlagUntilTimeout(huart, UART_FLAG_TC, RESET, tickstart, Timeout) != HAL_OK)
 8008366:	683b      	ldr	r3, [r7, #0]
 8008368:	9300      	str	r3, [sp, #0]
 800836a:	697b      	ldr	r3, [r7, #20]
 800836c:	2200      	movs	r2, #0
 800836e:	2140      	movs	r1, #64	; 0x40
 8008370:	68f8      	ldr	r0, [r7, #12]
 8008372:	f000 faeb 	bl	800894c <UART_WaitOnFlagUntilTimeout>
 8008376:	4603      	mov	r3, r0
 8008378:	2b00      	cmp	r3, #0
 800837a:	d005      	beq.n	8008388 <HAL_UART_Transmit+0x100>
    {
      huart->gState = HAL_UART_STATE_READY;
 800837c:	68fb      	ldr	r3, [r7, #12]
 800837e:	2220      	movs	r2, #32
 8008380:	f883 2041 	strb.w	r2, [r3, #65]	; 0x41

      return HAL_TIMEOUT;
 8008384:	2303      	movs	r3, #3
 8008386:	e006      	b.n	8008396 <HAL_UART_Transmit+0x10e>
    }

    /* At end of Tx process, restore huart->gState to Ready */
    huart->gState = HAL_UART_STATE_READY;
 8008388:	68fb      	ldr	r3, [r7, #12]
 800838a:	2220      	movs	r2, #32
 800838c:	f883 2041 	strb.w	r2, [r3, #65]	; 0x41

    return HAL_OK;
 8008390:	2300      	movs	r3, #0
 8008392:	e000      	b.n	8008396 <HAL_UART_Transmit+0x10e>
  }
  else
  {
    return HAL_BUSY;
 8008394:	2302      	movs	r3, #2
  }
}
 8008396:	4618      	mov	r0, r3
 8008398:	3720      	adds	r7, #32
 800839a:	46bd      	mov	sp, r7
 800839c:	bd80      	pop	{r7, pc}

0800839e <HAL_UART_Receive_IT>:
  * @param  pData Pointer to data buffer (u8 or u16 data elements).
  * @param  Size  Amount of data elements (u8 or u16) to be received.
  * @retval HAL status
  */
HAL_StatusTypeDef HAL_UART_Receive_IT(UART_HandleTypeDef *huart, uint8_t *pData, uint16_t Size)
{
 800839e:	b580      	push	{r7, lr}
 80083a0:	b084      	sub	sp, #16
 80083a2:	af00      	add	r7, sp, #0
 80083a4:	60f8      	str	r0, [r7, #12]
 80083a6:	60b9      	str	r1, [r7, #8]
 80083a8:	4613      	mov	r3, r2
 80083aa:	80fb      	strh	r3, [r7, #6]
  /* Check that a Rx process is not already ongoing */
  if (huart->RxState == HAL_UART_STATE_READY)
 80083ac:	68fb      	ldr	r3, [r7, #12]
 80083ae:	f893 3042 	ldrb.w	r3, [r3, #66]	; 0x42
 80083b2:	b2db      	uxtb	r3, r3
 80083b4:	2b20      	cmp	r3, #32
 80083b6:	d112      	bne.n	80083de <HAL_UART_Receive_IT+0x40>
  {
    if ((pData == NULL) || (Size == 0U))
 80083b8:	68bb      	ldr	r3, [r7, #8]
 80083ba:	2b00      	cmp	r3, #0
 80083bc:	d002      	beq.n	80083c4 <HAL_UART_Receive_IT+0x26>
 80083be:	88fb      	ldrh	r3, [r7, #6]
 80083c0:	2b00      	cmp	r3, #0
 80083c2:	d101      	bne.n	80083c8 <HAL_UART_Receive_IT+0x2a>
    {
      return HAL_ERROR;
 80083c4:	2301      	movs	r3, #1
 80083c6:	e00b      	b.n	80083e0 <HAL_UART_Receive_IT+0x42>
    }

    /* Set Reception type to Standard reception */
    huart->ReceptionType = HAL_UART_RECEPTION_STANDARD;
 80083c8:	68fb      	ldr	r3, [r7, #12]
 80083ca:	2200      	movs	r2, #0
 80083cc:	631a      	str	r2, [r3, #48]	; 0x30

    return (UART_Start_Receive_IT(huart, pData, Size));
 80083ce:	88fb      	ldrh	r3, [r7, #6]
 80083d0:	461a      	mov	r2, r3
 80083d2:	68b9      	ldr	r1, [r7, #8]
 80083d4:	68f8      	ldr	r0, [r7, #12]
 80083d6:	f000 fb12 	bl	80089fe <UART_Start_Receive_IT>
 80083da:	4603      	mov	r3, r0
 80083dc:	e000      	b.n	80083e0 <HAL_UART_Receive_IT+0x42>
  }
  else
  {
    return HAL_BUSY;
 80083de:	2302      	movs	r3, #2
  }
}
 80083e0:	4618      	mov	r0, r3
 80083e2:	3710      	adds	r7, #16
 80083e4:	46bd      	mov	sp, r7
 80083e6:	bd80      	pop	{r7, pc}

080083e8 <HAL_UART_IRQHandler>:
  * @param  huart  Pointer to a UART_HandleTypeDef structure that contains
  *                the configuration information for the specified UART module.
  * @retval None
  */
void HAL_UART_IRQHandler(UART_HandleTypeDef *huart)
{
 80083e8:	b580      	push	{r7, lr}
 80083ea:	b0ba      	sub	sp, #232	; 0xe8
 80083ec:	af00      	add	r7, sp, #0
 80083ee:	6078      	str	r0, [r7, #4]
  uint32_t isrflags   = READ_REG(huart->Instance->SR);
 80083f0:	687b      	ldr	r3, [r7, #4]
 80083f2:	681b      	ldr	r3, [r3, #0]
 80083f4:	681b      	ldr	r3, [r3, #0]
 80083f6:	f8c7 30e4 	str.w	r3, [r7, #228]	; 0xe4
  uint32_t cr1its     = READ_REG(huart->Instance->CR1);
 80083fa:	687b      	ldr	r3, [r7, #4]
 80083fc:	681b      	ldr	r3, [r3, #0]
 80083fe:	68db      	ldr	r3, [r3, #12]
 8008400:	f8c7 30e0 	str.w	r3, [r7, #224]	; 0xe0
  uint32_t cr3its     = READ_REG(huart->Instance->CR3);
 8008404:	687b      	ldr	r3, [r7, #4]
 8008406:	681b      	ldr	r3, [r3, #0]
 8008408:	695b      	ldr	r3, [r3, #20]
 800840a:	f8c7 30dc 	str.w	r3, [r7, #220]	; 0xdc
  uint32_t errorflags = 0x00U;
 800840e:	2300      	movs	r3, #0
 8008410:	f8c7 30d8 	str.w	r3, [r7, #216]	; 0xd8
  uint32_t dmarequest = 0x00U;
 8008414:	2300      	movs	r3, #0
 8008416:	f8c7 30d4 	str.w	r3, [r7, #212]	; 0xd4

  /* If no error occurs */
  errorflags = (isrflags & (uint32_t)(USART_SR_PE | USART_SR_FE | USART_SR_ORE | USART_SR_NE));
 800841a:	f8d7 30e4 	ldr.w	r3, [r7, #228]	; 0xe4
 800841e:	f003 030f 	and.w	r3, r3, #15
 8008422:	f8c7 30d8 	str.w	r3, [r7, #216]	; 0xd8
  if (errorflags == RESET)
 8008426:	f8d7 30d8 	ldr.w	r3, [r7, #216]	; 0xd8
 800842a:	2b00      	cmp	r3, #0
 800842c:	d10f      	bne.n	800844e <HAL_UART_IRQHandler+0x66>
  {
    /* UART in mode Receiver -------------------------------------------------*/
    if (((isrflags & USART_SR_RXNE) != RESET) && ((cr1its & USART_CR1_RXNEIE) != RESET))
 800842e:	f8d7 30e4 	ldr.w	r3, [r7, #228]	; 0xe4
 8008432:	f003 0320 	and.w	r3, r3, #32
 8008436:	2b00      	cmp	r3, #0
 8008438:	d009      	beq.n	800844e <HAL_UART_IRQHandler+0x66>
 800843a:	f8d7 30e0 	ldr.w	r3, [r7, #224]	; 0xe0
 800843e:	f003 0320 	and.w	r3, r3, #32
 8008442:	2b00      	cmp	r3, #0
 8008444:	d003      	beq.n	800844e <HAL_UART_IRQHandler+0x66>
    {
      UART_Receive_IT(huart);
 8008446:	6878      	ldr	r0, [r7, #4]
 8008448:	f000 fbf2 	bl	8008c30 <UART_Receive_IT>
      return;
 800844c:	e25b      	b.n	8008906 <HAL_UART_IRQHandler+0x51e>
    }
  }

  /* If some errors occur */
  if ((errorflags != RESET) && (((cr3its & USART_CR3_EIE) != RESET)
 800844e:	f8d7 30d8 	ldr.w	r3, [r7, #216]	; 0xd8
 8008452:	2b00      	cmp	r3, #0
 8008454:	f000 80de 	beq.w	8008614 <HAL_UART_IRQHandler+0x22c>
 8008458:	f8d7 30dc 	ldr.w	r3, [r7, #220]	; 0xdc
 800845c:	f003 0301 	and.w	r3, r3, #1
 8008460:	2b00      	cmp	r3, #0
 8008462:	d106      	bne.n	8008472 <HAL_UART_IRQHandler+0x8a>
                                || ((cr1its & (USART_CR1_RXNEIE | USART_CR1_PEIE)) != RESET)))
 8008464:	f8d7 30e0 	ldr.w	r3, [r7, #224]	; 0xe0
 8008468:	f403 7390 	and.w	r3, r3, #288	; 0x120
 800846c:	2b00      	cmp	r3, #0
 800846e:	f000 80d1 	beq.w	8008614 <HAL_UART_IRQHandler+0x22c>
  {
    /* UART parity error interrupt occurred ----------------------------------*/
    if (((isrflags & USART_SR_PE) != RESET) && ((cr1its & USART_CR1_PEIE) != RESET))
 8008472:	f8d7 30e4 	ldr.w	r3, [r7, #228]	; 0xe4
 8008476:	f003 0301 	and.w	r3, r3, #1
 800847a:	2b00      	cmp	r3, #0
 800847c:	d00b      	beq.n	8008496 <HAL_UART_IRQHandler+0xae>
 800847e:	f8d7 30e0 	ldr.w	r3, [r7, #224]	; 0xe0
 8008482:	f403 7380 	and.w	r3, r3, #256	; 0x100
 8008486:	2b00      	cmp	r3, #0
 8008488:	d005      	beq.n	8008496 <HAL_UART_IRQHandler+0xae>
    {
      huart->ErrorCode |= HAL_UART_ERROR_PE;
 800848a:	687b      	ldr	r3, [r7, #4]
 800848c:	6c5b      	ldr	r3, [r3, #68]	; 0x44
 800848e:	f043 0201 	orr.w	r2, r3, #1
 8008492:	687b      	ldr	r3, [r7, #4]
 8008494:	645a      	str	r2, [r3, #68]	; 0x44
    }

    /* UART noise error interrupt occurred -----------------------------------*/
    if (((isrflags & USART_SR_NE) != RESET) && ((cr3its & USART_CR3_EIE) != RESET))
 8008496:	f8d7 30e4 	ldr.w	r3, [r7, #228]	; 0xe4
 800849a:	f003 0304 	and.w	r3, r3, #4
 800849e:	2b00      	cmp	r3, #0
 80084a0:	d00b      	beq.n	80084ba <HAL_UART_IRQHandler+0xd2>
 80084a2:	f8d7 30dc 	ldr.w	r3, [r7, #220]	; 0xdc
 80084a6:	f003 0301 	and.w	r3, r3, #1
 80084aa:	2b00      	cmp	r3, #0
 80084ac:	d005      	beq.n	80084ba <HAL_UART_IRQHandler+0xd2>
    {
      huart->ErrorCode |= HAL_UART_ERROR_NE;
 80084ae:	687b      	ldr	r3, [r7, #4]
 80084b0:	6c5b      	ldr	r3, [r3, #68]	; 0x44
 80084b2:	f043 0202 	orr.w	r2, r3, #2
 80084b6:	687b      	ldr	r3, [r7, #4]
 80084b8:	645a      	str	r2, [r3, #68]	; 0x44
    }

    /* UART frame error interrupt occurred -----------------------------------*/
    if (((isrflags & USART_SR_FE) != RESET) && ((cr3its & USART_CR3_EIE) != RESET))
 80084ba:	f8d7 30e4 	ldr.w	r3, [r7, #228]	; 0xe4
 80084be:	f003 0302 	and.w	r3, r3, #2
 80084c2:	2b00      	cmp	r3, #0
 80084c4:	d00b      	beq.n	80084de <HAL_UART_IRQHandler+0xf6>
 80084c6:	f8d7 30dc 	ldr.w	r3, [r7, #220]	; 0xdc
 80084ca:	f003 0301 	and.w	r3, r3, #1
 80084ce:	2b00      	cmp	r3, #0
 80084d0:	d005      	beq.n	80084de <HAL_UART_IRQHandler+0xf6>
    {
      huart->ErrorCode |= HAL_UART_ERROR_FE;
 80084d2:	687b      	ldr	r3, [r7, #4]
 80084d4:	6c5b      	ldr	r3, [r3, #68]	; 0x44
 80084d6:	f043 0204 	orr.w	r2, r3, #4
 80084da:	687b      	ldr	r3, [r7, #4]
 80084dc:	645a      	str	r2, [r3, #68]	; 0x44
    }

    /* UART Over-Run interrupt occurred --------------------------------------*/
    if (((isrflags & USART_SR_ORE) != RESET) && (((cr1its & USART_CR1_RXNEIE) != RESET)
 80084de:	f8d7 30e4 	ldr.w	r3, [r7, #228]	; 0xe4
 80084e2:	f003 0308 	and.w	r3, r3, #8
 80084e6:	2b00      	cmp	r3, #0
 80084e8:	d011      	beq.n	800850e <HAL_UART_IRQHandler+0x126>
 80084ea:	f8d7 30e0 	ldr.w	r3, [r7, #224]	; 0xe0
 80084ee:	f003 0320 	and.w	r3, r3, #32
 80084f2:	2b00      	cmp	r3, #0
 80084f4:	d105      	bne.n	8008502 <HAL_UART_IRQHandler+0x11a>
                                                 || ((cr3its & USART_CR3_EIE) != RESET)))
 80084f6:	f8d7 30dc 	ldr.w	r3, [r7, #220]	; 0xdc
 80084fa:	f003 0301 	and.w	r3, r3, #1
 80084fe:	2b00      	cmp	r3, #0
 8008500:	d005      	beq.n	800850e <HAL_UART_IRQHandler+0x126>
    {
      huart->ErrorCode |= HAL_UART_ERROR_ORE;
 8008502:	687b      	ldr	r3, [r7, #4]
 8008504:	6c5b      	ldr	r3, [r3, #68]	; 0x44
 8008506:	f043 0208 	orr.w	r2, r3, #8
 800850a:	687b      	ldr	r3, [r7, #4]
 800850c:	645a      	str	r2, [r3, #68]	; 0x44
    }

    /* Call UART Error Call back function if need be --------------------------*/
    if (huart->ErrorCode != HAL_UART_ERROR_NONE)
 800850e:	687b      	ldr	r3, [r7, #4]
 8008510:	6c5b      	ldr	r3, [r3, #68]	; 0x44
 8008512:	2b00      	cmp	r3, #0
 8008514:	f000 81f2 	beq.w	80088fc <HAL_UART_IRQHandler+0x514>
    {
      /* UART in mode Receiver -----------------------------------------------*/
      if (((isrflags & USART_SR_RXNE) != RESET) && ((cr1its & USART_CR1_RXNEIE) != RESET))
 8008518:	f8d7 30e4 	ldr.w	r3, [r7, #228]	; 0xe4
 800851c:	f003 0320 	and.w	r3, r3, #32
 8008520:	2b00      	cmp	r3, #0
 8008522:	d008      	beq.n	8008536 <HAL_UART_IRQHandler+0x14e>
 8008524:	f8d7 30e0 	ldr.w	r3, [r7, #224]	; 0xe0
 8008528:	f003 0320 	and.w	r3, r3, #32
 800852c:	2b00      	cmp	r3, #0
 800852e:	d002      	beq.n	8008536 <HAL_UART_IRQHandler+0x14e>
      {
        UART_Receive_IT(huart);
 8008530:	6878      	ldr	r0, [r7, #4]
 8008532:	f000 fb7d 	bl	8008c30 <UART_Receive_IT>
      }

      /* If Overrun error occurs, or if any error occurs in DMA mode reception,
         consider error as blocking */
      dmarequest = HAL_IS_BIT_SET(huart->Instance->CR3, USART_CR3_DMAR);
 8008536:	687b      	ldr	r3, [r7, #4]
 8008538:	681b      	ldr	r3, [r3, #0]
 800853a:	695b      	ldr	r3, [r3, #20]
 800853c:	f003 0340 	and.w	r3, r3, #64	; 0x40
 8008540:	2b40      	cmp	r3, #64	; 0x40
 8008542:	bf0c      	ite	eq
 8008544:	2301      	moveq	r3, #1
 8008546:	2300      	movne	r3, #0
 8008548:	b2db      	uxtb	r3, r3
 800854a:	f8c7 30d4 	str.w	r3, [r7, #212]	; 0xd4
      if (((huart->ErrorCode & HAL_UART_ERROR_ORE) != RESET) || dmarequest)
 800854e:	687b      	ldr	r3, [r7, #4]
 8008550:	6c5b      	ldr	r3, [r3, #68]	; 0x44
 8008552:	f003 0308 	and.w	r3, r3, #8
 8008556:	2b00      	cmp	r3, #0
 8008558:	d103      	bne.n	8008562 <HAL_UART_IRQHandler+0x17a>
 800855a:	f8d7 30d4 	ldr.w	r3, [r7, #212]	; 0xd4
 800855e:	2b00      	cmp	r3, #0
 8008560:	d04f      	beq.n	8008602 <HAL_UART_IRQHandler+0x21a>
      {
        /* Blocking error : transfer is aborted
           Set the UART state ready to be able to start again the process,
           Disable Rx Interrupts, and disable Rx DMA request, if ongoing */
        UART_EndRxTransfer(huart);
 8008562:	6878      	ldr	r0, [r7, #4]
 8008564:	f000 fa85 	bl	8008a72 <UART_EndRxTransfer>

        /* Disable the UART DMA Rx request if enabled */
        if (HAL_IS_BIT_SET(huart->Instance->CR3, USART_CR3_DMAR))
 8008568:	687b      	ldr	r3, [r7, #4]
 800856a:	681b      	ldr	r3, [r3, #0]
 800856c:	695b      	ldr	r3, [r3, #20]
 800856e:	f003 0340 	and.w	r3, r3, #64	; 0x40
 8008572:	2b40      	cmp	r3, #64	; 0x40
 8008574:	d141      	bne.n	80085fa <HAL_UART_IRQHandler+0x212>
        {
          ATOMIC_CLEAR_BIT(huart->Instance->CR3, USART_CR3_DMAR);
 8008576:	687b      	ldr	r3, [r7, #4]
 8008578:	681b      	ldr	r3, [r3, #0]
 800857a:	3314      	adds	r3, #20
 800857c:	f8c7 309c 	str.w	r3, [r7, #156]	; 0x9c
   __ASM volatile ("ldrex %0, %1" : "=r" (result) : "Q" (*addr) );
 8008580:	f8d7 309c 	ldr.w	r3, [r7, #156]	; 0x9c
 8008584:	e853 3f00 	ldrex	r3, [r3]
 8008588:	f8c7 3098 	str.w	r3, [r7, #152]	; 0x98
   return(result);
 800858c:	f8d7 3098 	ldr.w	r3, [r7, #152]	; 0x98
 8008590:	f023 0340 	bic.w	r3, r3, #64	; 0x40
 8008594:	f8c7 30d0 	str.w	r3, [r7, #208]	; 0xd0
 8008598:	687b      	ldr	r3, [r7, #4]
 800859a:	681b      	ldr	r3, [r3, #0]
 800859c:	3314      	adds	r3, #20
 800859e:	f8d7 20d0 	ldr.w	r2, [r7, #208]	; 0xd0
 80085a2:	f8c7 20a8 	str.w	r2, [r7, #168]	; 0xa8
 80085a6:	f8c7 30a4 	str.w	r3, [r7, #164]	; 0xa4
   __ASM volatile ("strex %0, %2, %1" : "=&r" (result), "=Q" (*addr) : "r" (value) );
 80085aa:	f8d7 10a4 	ldr.w	r1, [r7, #164]	; 0xa4
 80085ae:	f8d7 20a8 	ldr.w	r2, [r7, #168]	; 0xa8
 80085b2:	e841 2300 	strex	r3, r2, [r1]
 80085b6:	f8c7 30a0 	str.w	r3, [r7, #160]	; 0xa0
   return(result);
 80085ba:	f8d7 30a0 	ldr.w	r3, [r7, #160]	; 0xa0
 80085be:	2b00      	cmp	r3, #0
 80085c0:	d1d9      	bne.n	8008576 <HAL_UART_IRQHandler+0x18e>

          /* Abort the UART DMA Rx stream */
          if (huart->hdmarx != NULL)
 80085c2:	687b      	ldr	r3, [r7, #4]
 80085c4:	6bdb      	ldr	r3, [r3, #60]	; 0x3c
 80085c6:	2b00      	cmp	r3, #0
 80085c8:	d013      	beq.n	80085f2 <HAL_UART_IRQHandler+0x20a>
          {
            /* Set the UART DMA Abort callback :
               will lead to call HAL_UART_ErrorCallback() at end of DMA abort procedure */
            huart->hdmarx->XferAbortCallback = UART_DMAAbortOnError;
 80085ca:	687b      	ldr	r3, [r7, #4]
 80085cc:	6bdb      	ldr	r3, [r3, #60]	; 0x3c
 80085ce:	4a7e      	ldr	r2, [pc, #504]	; (80087c8 <HAL_UART_IRQHandler+0x3e0>)
 80085d0:	651a      	str	r2, [r3, #80]	; 0x50
            if (HAL_DMA_Abort_IT(huart->hdmarx) != HAL_OK)
 80085d2:	687b      	ldr	r3, [r7, #4]
 80085d4:	6bdb      	ldr	r3, [r3, #60]	; 0x3c
 80085d6:	4618      	mov	r0, r3
 80085d8:	f7fb fdac 	bl	8004134 <HAL_DMA_Abort_IT>
 80085dc:	4603      	mov	r3, r0
 80085de:	2b00      	cmp	r3, #0
 80085e0:	d016      	beq.n	8008610 <HAL_UART_IRQHandler+0x228>
            {
              /* Call Directly XferAbortCallback function in case of error */
              huart->hdmarx->XferAbortCallback(huart->hdmarx);
 80085e2:	687b      	ldr	r3, [r7, #4]
 80085e4:	6bdb      	ldr	r3, [r3, #60]	; 0x3c
 80085e6:	6d1b      	ldr	r3, [r3, #80]	; 0x50
 80085e8:	687a      	ldr	r2, [r7, #4]
 80085ea:	6bd2      	ldr	r2, [r2, #60]	; 0x3c
 80085ec:	4610      	mov	r0, r2
 80085ee:	4798      	blx	r3
        if (HAL_IS_BIT_SET(huart->Instance->CR3, USART_CR3_DMAR))
 80085f0:	e00e      	b.n	8008610 <HAL_UART_IRQHandler+0x228>
#if (USE_HAL_UART_REGISTER_CALLBACKS == 1)
            /*Call registered error callback*/
            huart->ErrorCallback(huart);
#else
            /*Call legacy weak error callback*/
            HAL_UART_ErrorCallback(huart);
 80085f2:	6878      	ldr	r0, [r7, #4]
 80085f4:	f000 f994 	bl	8008920 <HAL_UART_ErrorCallback>
        if (HAL_IS_BIT_SET(huart->Instance->CR3, USART_CR3_DMAR))
 80085f8:	e00a      	b.n	8008610 <HAL_UART_IRQHandler+0x228>
#if (USE_HAL_UART_REGISTER_CALLBACKS == 1)
          /*Call registered error callback*/
          huart->ErrorCallback(huart);
#else
          /*Call legacy weak error callback*/
          HAL_UART_ErrorCallback(huart);
 80085fa:	6878      	ldr	r0, [r7, #4]
 80085fc:	f000 f990 	bl	8008920 <HAL_UART_ErrorCallback>
        if (HAL_IS_BIT_SET(huart->Instance->CR3, USART_CR3_DMAR))
 8008600:	e006      	b.n	8008610 <HAL_UART_IRQHandler+0x228>
#if (USE_HAL_UART_REGISTER_CALLBACKS == 1)
        /*Call registered error callback*/
        huart->ErrorCallback(huart);
#else
        /*Call legacy weak error callback*/
        HAL_UART_ErrorCallback(huart);
 8008602:	6878      	ldr	r0, [r7, #4]
 8008604:	f000 f98c 	bl	8008920 <HAL_UART_ErrorCallback>
#endif /* USE_HAL_UART_REGISTER_CALLBACKS */

        huart->ErrorCode = HAL_UART_ERROR_NONE;
 8008608:	687b      	ldr	r3, [r7, #4]
 800860a:	2200      	movs	r2, #0
 800860c:	645a      	str	r2, [r3, #68]	; 0x44
      }
    }
    return;
 800860e:	e175      	b.n	80088fc <HAL_UART_IRQHandler+0x514>
        if (HAL_IS_BIT_SET(huart->Instance->CR3, USART_CR3_DMAR))
 8008610:	bf00      	nop
    return;
 8008612:	e173      	b.n	80088fc <HAL_UART_IRQHandler+0x514>
  } /* End if some error occurs */

  /* Check current reception Mode :
     If Reception till IDLE event has been selected : */
  if ((huart->ReceptionType == HAL_UART_RECEPTION_TOIDLE)
 8008614:	687b      	ldr	r3, [r7, #4]
 8008616:	6b1b      	ldr	r3, [r3, #48]	; 0x30
 8008618:	2b01      	cmp	r3, #1
 800861a:	f040 814f 	bne.w	80088bc <HAL_UART_IRQHandler+0x4d4>
      && ((isrflags & USART_SR_IDLE) != 0U)
 800861e:	f8d7 30e4 	ldr.w	r3, [r7, #228]	; 0xe4
 8008622:	f003 0310 	and.w	r3, r3, #16
 8008626:	2b00      	cmp	r3, #0
 8008628:	f000 8148 	beq.w	80088bc <HAL_UART_IRQHandler+0x4d4>
      && ((cr1its & USART_SR_IDLE) != 0U))
 800862c:	f8d7 30e0 	ldr.w	r3, [r7, #224]	; 0xe0
 8008630:	f003 0310 	and.w	r3, r3, #16
 8008634:	2b00      	cmp	r3, #0
 8008636:	f000 8141 	beq.w	80088bc <HAL_UART_IRQHandler+0x4d4>
  {
    __HAL_UART_CLEAR_IDLEFLAG(huart);
 800863a:	2300      	movs	r3, #0
 800863c:	60bb      	str	r3, [r7, #8]
 800863e:	687b      	ldr	r3, [r7, #4]
 8008640:	681b      	ldr	r3, [r3, #0]
 8008642:	681b      	ldr	r3, [r3, #0]
 8008644:	60bb      	str	r3, [r7, #8]
 8008646:	687b      	ldr	r3, [r7, #4]
 8008648:	681b      	ldr	r3, [r3, #0]
 800864a:	685b      	ldr	r3, [r3, #4]
 800864c:	60bb      	str	r3, [r7, #8]
 800864e:	68bb      	ldr	r3, [r7, #8]

    /* Check if DMA mode is enabled in UART */
    if (HAL_IS_BIT_SET(huart->Instance->CR3, USART_CR3_DMAR))
 8008650:	687b      	ldr	r3, [r7, #4]
 8008652:	681b      	ldr	r3, [r3, #0]
 8008654:	695b      	ldr	r3, [r3, #20]
 8008656:	f003 0340 	and.w	r3, r3, #64	; 0x40
 800865a:	2b40      	cmp	r3, #64	; 0x40
 800865c:	f040 80b6 	bne.w	80087cc <HAL_UART_IRQHandler+0x3e4>
    {
      /* DMA mode enabled */
      /* Check received length : If all expected data are received, do nothing,
         (DMA cplt callback will be called).
         Otherwise, if at least one data has already been received, IDLE event is to be notified to user */
      uint16_t nb_remaining_rx_data = (uint16_t) __HAL_DMA_GET_COUNTER(huart->hdmarx);
 8008660:	687b      	ldr	r3, [r7, #4]
 8008662:	6bdb      	ldr	r3, [r3, #60]	; 0x3c
 8008664:	681b      	ldr	r3, [r3, #0]
 8008666:	685b      	ldr	r3, [r3, #4]
 8008668:	f8a7 30be 	strh.w	r3, [r7, #190]	; 0xbe
      if ((nb_remaining_rx_data > 0U)
 800866c:	f8b7 30be 	ldrh.w	r3, [r7, #190]	; 0xbe
 8008670:	2b00      	cmp	r3, #0
 8008672:	f000 8145 	beq.w	8008900 <HAL_UART_IRQHandler+0x518>
          && (nb_remaining_rx_data < huart->RxXferSize))
 8008676:	687b      	ldr	r3, [r7, #4]
 8008678:	8d9b      	ldrh	r3, [r3, #44]	; 0x2c
 800867a:	f8b7 20be 	ldrh.w	r2, [r7, #190]	; 0xbe
 800867e:	429a      	cmp	r2, r3
 8008680:	f080 813e 	bcs.w	8008900 <HAL_UART_IRQHandler+0x518>
      {
        /* Reception is not complete */
        huart->RxXferCount = nb_remaining_rx_data;
 8008684:	687b      	ldr	r3, [r7, #4]
 8008686:	f8b7 20be 	ldrh.w	r2, [r7, #190]	; 0xbe
 800868a:	85da      	strh	r2, [r3, #46]	; 0x2e

        /* In Normal mode, end DMA xfer and HAL UART Rx process*/
        if (huart->hdmarx->Init.Mode != DMA_CIRCULAR)
 800868c:	687b      	ldr	r3, [r7, #4]
 800868e:	6bdb      	ldr	r3, [r3, #60]	; 0x3c
 8008690:	69db      	ldr	r3, [r3, #28]
 8008692:	f5b3 7f80 	cmp.w	r3, #256	; 0x100
 8008696:	f000 8088 	beq.w	80087aa <HAL_UART_IRQHandler+0x3c2>
        {
          /* Disable PE and ERR (Frame error, noise error, overrun error) interrupts */
          ATOMIC_CLEAR_BIT(huart->Instance->CR1, USART_CR1_PEIE);
 800869a:	687b      	ldr	r3, [r7, #4]
 800869c:	681b      	ldr	r3, [r3, #0]
 800869e:	330c      	adds	r3, #12
 80086a0:	f8c7 3088 	str.w	r3, [r7, #136]	; 0x88
   __ASM volatile ("ldrex %0, %1" : "=r" (result) : "Q" (*addr) );
 80086a4:	f8d7 3088 	ldr.w	r3, [r7, #136]	; 0x88
 80086a8:	e853 3f00 	ldrex	r3, [r3]
 80086ac:	f8c7 3084 	str.w	r3, [r7, #132]	; 0x84
   return(result);
 80086b0:	f8d7 3084 	ldr.w	r3, [r7, #132]	; 0x84
 80086b4:	f423 7380 	bic.w	r3, r3, #256	; 0x100
 80086b8:	f8c7 30b8 	str.w	r3, [r7, #184]	; 0xb8
 80086bc:	687b      	ldr	r3, [r7, #4]
 80086be:	681b      	ldr	r3, [r3, #0]
 80086c0:	330c      	adds	r3, #12
 80086c2:	f8d7 20b8 	ldr.w	r2, [r7, #184]	; 0xb8
 80086c6:	f8c7 2094 	str.w	r2, [r7, #148]	; 0x94
 80086ca:	f8c7 3090 	str.w	r3, [r7, #144]	; 0x90
   __ASM volatile ("strex %0, %2, %1" : "=&r" (result), "=Q" (*addr) : "r" (value) );
 80086ce:	f8d7 1090 	ldr.w	r1, [r7, #144]	; 0x90
 80086d2:	f8d7 2094 	ldr.w	r2, [r7, #148]	; 0x94
 80086d6:	e841 2300 	strex	r3, r2, [r1]
 80086da:	f8c7 308c 	str.w	r3, [r7, #140]	; 0x8c
   return(result);
 80086de:	f8d7 308c 	ldr.w	r3, [r7, #140]	; 0x8c
 80086e2:	2b00      	cmp	r3, #0
 80086e4:	d1d9      	bne.n	800869a <HAL_UART_IRQHandler+0x2b2>
          ATOMIC_CLEAR_BIT(huart->Instance->CR3, USART_CR3_EIE);
 80086e6:	687b      	ldr	r3, [r7, #4]
 80086e8:	681b      	ldr	r3, [r3, #0]
 80086ea:	3314      	adds	r3, #20
 80086ec:	677b      	str	r3, [r7, #116]	; 0x74
   __ASM volatile ("ldrex %0, %1" : "=r" (result) : "Q" (*addr) );
 80086ee:	6f7b      	ldr	r3, [r7, #116]	; 0x74
 80086f0:	e853 3f00 	ldrex	r3, [r3]
 80086f4:	673b      	str	r3, [r7, #112]	; 0x70
   return(result);
 80086f6:	6f3b      	ldr	r3, [r7, #112]	; 0x70
 80086f8:	f023 0301 	bic.w	r3, r3, #1
 80086fc:	f8c7 30b4 	str.w	r3, [r7, #180]	; 0xb4
 8008700:	687b      	ldr	r3, [r7, #4]
 8008702:	681b      	ldr	r3, [r3, #0]
 8008704:	3314      	adds	r3, #20
 8008706:	f8d7 20b4 	ldr.w	r2, [r7, #180]	; 0xb4
 800870a:	f8c7 2080 	str.w	r2, [r7, #128]	; 0x80
 800870e:	67fb      	str	r3, [r7, #124]	; 0x7c
   __ASM volatile ("strex %0, %2, %1" : "=&r" (result), "=Q" (*addr) : "r" (value) );
 8008710:	6ff9      	ldr	r1, [r7, #124]	; 0x7c
 8008712:	f8d7 2080 	ldr.w	r2, [r7, #128]	; 0x80
 8008716:	e841 2300 	strex	r3, r2, [r1]
 800871a:	67bb      	str	r3, [r7, #120]	; 0x78
   return(result);
 800871c:	6fbb      	ldr	r3, [r7, #120]	; 0x78
 800871e:	2b00      	cmp	r3, #0
 8008720:	d1e1      	bne.n	80086e6 <HAL_UART_IRQHandler+0x2fe>

          /* Disable the DMA transfer for the receiver request by resetting the DMAR bit
             in the UART CR3 register */
          ATOMIC_CLEAR_BIT(huart->Instance->CR3, USART_CR3_DMAR);
 8008722:	687b      	ldr	r3, [r7, #4]
 8008724:	681b      	ldr	r3, [r3, #0]
 8008726:	3314      	adds	r3, #20
 8008728:	663b      	str	r3, [r7, #96]	; 0x60
   __ASM volatile ("ldrex %0, %1" : "=r" (result) : "Q" (*addr) );
 800872a:	6e3b      	ldr	r3, [r7, #96]	; 0x60
 800872c:	e853 3f00 	ldrex	r3, [r3]
 8008730:	65fb      	str	r3, [r7, #92]	; 0x5c
   return(result);
 8008732:	6dfb      	ldr	r3, [r7, #92]	; 0x5c
 8008734:	f023 0340 	bic.w	r3, r3, #64	; 0x40
 8008738:	f8c7 30b0 	str.w	r3, [r7, #176]	; 0xb0
 800873c:	687b      	ldr	r3, [r7, #4]
 800873e:	681b      	ldr	r3, [r3, #0]
 8008740:	3314      	adds	r3, #20
 8008742:	f8d7 20b0 	ldr.w	r2, [r7, #176]	; 0xb0
 8008746:	66fa      	str	r2, [r7, #108]	; 0x6c
 8008748:	66bb      	str	r3, [r7, #104]	; 0x68
   __ASM volatile ("strex %0, %2, %1" : "=&r" (result), "=Q" (*addr) : "r" (value) );
 800874a:	6eb9      	ldr	r1, [r7, #104]	; 0x68
 800874c:	6efa      	ldr	r2, [r7, #108]	; 0x6c
 800874e:	e841 2300 	strex	r3, r2, [r1]
 8008752:	667b      	str	r3, [r7, #100]	; 0x64
   return(result);
 8008754:	6e7b      	ldr	r3, [r7, #100]	; 0x64
 8008756:	2b00      	cmp	r3, #0
 8008758:	d1e3      	bne.n	8008722 <HAL_UART_IRQHandler+0x33a>

          /* At end of Rx process, restore huart->RxState to Ready */
          huart->RxState = HAL_UART_STATE_READY;
 800875a:	687b      	ldr	r3, [r7, #4]
 800875c:	2220      	movs	r2, #32
 800875e:	f883 2042 	strb.w	r2, [r3, #66]	; 0x42
          huart->ReceptionType = HAL_UART_RECEPTION_STANDARD;
 8008762:	687b      	ldr	r3, [r7, #4]
 8008764:	2200      	movs	r2, #0
 8008766:	631a      	str	r2, [r3, #48]	; 0x30

          ATOMIC_CLEAR_BIT(huart->Instance->CR1, USART_CR1_IDLEIE);
 8008768:	687b      	ldr	r3, [r7, #4]
 800876a:	681b      	ldr	r3, [r3, #0]
 800876c:	330c      	adds	r3, #12
 800876e:	64fb      	str	r3, [r7, #76]	; 0x4c
   __ASM volatile ("ldrex %0, %1" : "=r" (result) : "Q" (*addr) );
 8008770:	6cfb      	ldr	r3, [r7, #76]	; 0x4c
 8008772:	e853 3f00 	ldrex	r3, [r3]
 8008776:	64bb      	str	r3, [r7, #72]	; 0x48
   return(result);
 8008778:	6cbb      	ldr	r3, [r7, #72]	; 0x48
 800877a:	f023 0310 	bic.w	r3, r3, #16
 800877e:	f8c7 30ac 	str.w	r3, [r7, #172]	; 0xac
 8008782:	687b      	ldr	r3, [r7, #4]
 8008784:	681b      	ldr	r3, [r3, #0]
 8008786:	330c      	adds	r3, #12
 8008788:	f8d7 20ac 	ldr.w	r2, [r7, #172]	; 0xac
 800878c:	65ba      	str	r2, [r7, #88]	; 0x58
 800878e:	657b      	str	r3, [r7, #84]	; 0x54
   __ASM volatile ("strex %0, %2, %1" : "=&r" (result), "=Q" (*addr) : "r" (value) );
 8008790:	6d79      	ldr	r1, [r7, #84]	; 0x54
 8008792:	6dba      	ldr	r2, [r7, #88]	; 0x58
 8008794:	e841 2300 	strex	r3, r2, [r1]
 8008798:	653b      	str	r3, [r7, #80]	; 0x50
   return(result);
 800879a:	6d3b      	ldr	r3, [r7, #80]	; 0x50
 800879c:	2b00      	cmp	r3, #0
 800879e:	d1e3      	bne.n	8008768 <HAL_UART_IRQHandler+0x380>

          /* Last bytes received, so no need as the abort is immediate */
          (void)HAL_DMA_Abort(huart->hdmarx);
 80087a0:	687b      	ldr	r3, [r7, #4]
 80087a2:	6bdb      	ldr	r3, [r3, #60]	; 0x3c
 80087a4:	4618      	mov	r0, r3
 80087a6:	f7fb fc55 	bl	8004054 <HAL_DMA_Abort>
        }

        /* Initialize type of RxEvent that correspond to RxEvent callback execution;
        In this case, Rx Event type is Idle Event */
        huart->RxEventType = HAL_UART_RXEVENT_IDLE;
 80087aa:	687b      	ldr	r3, [r7, #4]
 80087ac:	2202      	movs	r2, #2
 80087ae:	635a      	str	r2, [r3, #52]	; 0x34
#if (USE_HAL_UART_REGISTER_CALLBACKS == 1)
        /*Call registered Rx Event callback*/
        huart->RxEventCallback(huart, (huart->RxXferSize - huart->RxXferCount));
#else
        /*Call legacy weak Rx Event callback*/
        HAL_UARTEx_RxEventCallback(huart, (huart->RxXferSize - huart->RxXferCount));
 80087b0:	687b      	ldr	r3, [r7, #4]
 80087b2:	8d9a      	ldrh	r2, [r3, #44]	; 0x2c
 80087b4:	687b      	ldr	r3, [r7, #4]
 80087b6:	8ddb      	ldrh	r3, [r3, #46]	; 0x2e
 80087b8:	b29b      	uxth	r3, r3
 80087ba:	1ad3      	subs	r3, r2, r3
 80087bc:	b29b      	uxth	r3, r3
 80087be:	4619      	mov	r1, r3
 80087c0:	6878      	ldr	r0, [r7, #4]
 80087c2:	f000 f8b7 	bl	8008934 <HAL_UARTEx_RxEventCallback>
#endif /* USE_HAL_UART_REGISTER_CALLBACKS */
      }
      return;
 80087c6:	e09b      	b.n	8008900 <HAL_UART_IRQHandler+0x518>
 80087c8:	08008b39 	.word	0x08008b39
    else
    {
      /* DMA mode not enabled */
      /* Check received length : If all expected data are received, do nothing.
         Otherwise, if at least one data has already been received, IDLE event is to be notified to user */
      uint16_t nb_rx_data = huart->RxXferSize - huart->RxXferCount;
 80087cc:	687b      	ldr	r3, [r7, #4]
 80087ce:	8d9a      	ldrh	r2, [r3, #44]	; 0x2c
 80087d0:	687b      	ldr	r3, [r7, #4]
 80087d2:	8ddb      	ldrh	r3, [r3, #46]	; 0x2e
 80087d4:	b29b      	uxth	r3, r3
 80087d6:	1ad3      	subs	r3, r2, r3
 80087d8:	f8a7 30ce 	strh.w	r3, [r7, #206]	; 0xce
      if ((huart->RxXferCount > 0U)
 80087dc:	687b      	ldr	r3, [r7, #4]
 80087de:	8ddb      	ldrh	r3, [r3, #46]	; 0x2e
 80087e0:	b29b      	uxth	r3, r3
 80087e2:	2b00      	cmp	r3, #0
 80087e4:	f000 808e 	beq.w	8008904 <HAL_UART_IRQHandler+0x51c>
          && (nb_rx_data > 0U))
 80087e8:	f8b7 30ce 	ldrh.w	r3, [r7, #206]	; 0xce
 80087ec:	2b00      	cmp	r3, #0
 80087ee:	f000 8089 	beq.w	8008904 <HAL_UART_IRQHandler+0x51c>
      {
        /* Disable the UART Parity Error Interrupt and RXNE interrupts */
        ATOMIC_CLEAR_BIT(huart->Instance->CR1, (USART_CR1_RXNEIE | USART_CR1_PEIE));
 80087f2:	687b      	ldr	r3, [r7, #4]
 80087f4:	681b      	ldr	r3, [r3, #0]
 80087f6:	330c      	adds	r3, #12
 80087f8:	63bb      	str	r3, [r7, #56]	; 0x38
   __ASM volatile ("ldrex %0, %1" : "=r" (result) : "Q" (*addr) );
 80087fa:	6bbb      	ldr	r3, [r7, #56]	; 0x38
 80087fc:	e853 3f00 	ldrex	r3, [r3]
 8008800:	637b      	str	r3, [r7, #52]	; 0x34
   return(result);
 8008802:	6b7b      	ldr	r3, [r7, #52]	; 0x34
 8008804:	f423 7390 	bic.w	r3, r3, #288	; 0x120
 8008808:	f8c7 30c8 	str.w	r3, [r7, #200]	; 0xc8
 800880c:	687b      	ldr	r3, [r7, #4]
 800880e:	681b      	ldr	r3, [r3, #0]
 8008810:	330c      	adds	r3, #12
 8008812:	f8d7 20c8 	ldr.w	r2, [r7, #200]	; 0xc8
 8008816:	647a      	str	r2, [r7, #68]	; 0x44
 8008818:	643b      	str	r3, [r7, #64]	; 0x40
   __ASM volatile ("strex %0, %2, %1" : "=&r" (result), "=Q" (*addr) : "r" (value) );
 800881a:	6c39      	ldr	r1, [r7, #64]	; 0x40
 800881c:	6c7a      	ldr	r2, [r7, #68]	; 0x44
 800881e:	e841 2300 	strex	r3, r2, [r1]
 8008822:	63fb      	str	r3, [r7, #60]	; 0x3c
   return(result);
 8008824:	6bfb      	ldr	r3, [r7, #60]	; 0x3c
 8008826:	2b00      	cmp	r3, #0
 8008828:	d1e3      	bne.n	80087f2 <HAL_UART_IRQHandler+0x40a>

        /* Disable the UART Error Interrupt: (Frame error, noise error, overrun error) */
        ATOMIC_CLEAR_BIT(huart->Instance->CR3, USART_CR3_EIE);
 800882a:	687b      	ldr	r3, [r7, #4]
 800882c:	681b      	ldr	r3, [r3, #0]
 800882e:	3314      	adds	r3, #20
 8008830:	627b      	str	r3, [r7, #36]	; 0x24
   __ASM volatile ("ldrex %0, %1" : "=r" (result) : "Q" (*addr) );
 8008832:	6a7b      	ldr	r3, [r7, #36]	; 0x24
 8008834:	e853 3f00 	ldrex	r3, [r3]
 8008838:	623b      	str	r3, [r7, #32]
   return(result);
 800883a:	6a3b      	ldr	r3, [r7, #32]
 800883c:	f023 0301 	bic.w	r3, r3, #1
 8008840:	f8c7 30c4 	str.w	r3, [r7, #196]	; 0xc4
 8008844:	687b      	ldr	r3, [r7, #4]
 8008846:	681b      	ldr	r3, [r3, #0]
 8008848:	3314      	adds	r3, #20
 800884a:	f8d7 20c4 	ldr.w	r2, [r7, #196]	; 0xc4
 800884e:	633a      	str	r2, [r7, #48]	; 0x30
 8008850:	62fb      	str	r3, [r7, #44]	; 0x2c
   __ASM volatile ("strex %0, %2, %1" : "=&r" (result), "=Q" (*addr) : "r" (value) );
 8008852:	6af9      	ldr	r1, [r7, #44]	; 0x2c
 8008854:	6b3a      	ldr	r2, [r7, #48]	; 0x30
 8008856:	e841 2300 	strex	r3, r2, [r1]
 800885a:	62bb      	str	r3, [r7, #40]	; 0x28
   return(result);
 800885c:	6abb      	ldr	r3, [r7, #40]	; 0x28
 800885e:	2b00      	cmp	r3, #0
 8008860:	d1e3      	bne.n	800882a <HAL_UART_IRQHandler+0x442>

        /* Rx process is completed, restore huart->RxState to Ready */
        huart->RxState = HAL_UART_STATE_READY;
 8008862:	687b      	ldr	r3, [r7, #4]
 8008864:	2220      	movs	r2, #32
 8008866:	f883 2042 	strb.w	r2, [r3, #66]	; 0x42
        huart->ReceptionType = HAL_UART_RECEPTION_STANDARD;
 800886a:	687b      	ldr	r3, [r7, #4]
 800886c:	2200      	movs	r2, #0
 800886e:	631a      	str	r2, [r3, #48]	; 0x30

        ATOMIC_CLEAR_BIT(huart->Instance->CR1, USART_CR1_IDLEIE);
 8008870:	687b      	ldr	r3, [r7, #4]
 8008872:	681b      	ldr	r3, [r3, #0]
 8008874:	330c      	adds	r3, #12
 8008876:	613b      	str	r3, [r7, #16]
   __ASM volatile ("ldrex %0, %1" : "=r" (result) : "Q" (*addr) );
 8008878:	693b      	ldr	r3, [r7, #16]
 800887a:	e853 3f00 	ldrex	r3, [r3]
 800887e:	60fb      	str	r3, [r7, #12]
   return(result);
 8008880:	68fb      	ldr	r3, [r7, #12]
 8008882:	f023 0310 	bic.w	r3, r3, #16
 8008886:	f8c7 30c0 	str.w	r3, [r7, #192]	; 0xc0
 800888a:	687b      	ldr	r3, [r7, #4]
 800888c:	681b      	ldr	r3, [r3, #0]
 800888e:	330c      	adds	r3, #12
 8008890:	f8d7 20c0 	ldr.w	r2, [r7, #192]	; 0xc0
 8008894:	61fa      	str	r2, [r7, #28]
 8008896:	61bb      	str	r3, [r7, #24]
   __ASM volatile ("strex %0, %2, %1" : "=&r" (result), "=Q" (*addr) : "r" (value) );
 8008898:	69b9      	ldr	r1, [r7, #24]
 800889a:	69fa      	ldr	r2, [r7, #28]
 800889c:	e841 2300 	strex	r3, r2, [r1]
 80088a0:	617b      	str	r3, [r7, #20]
   return(result);
 80088a2:	697b      	ldr	r3, [r7, #20]
 80088a4:	2b00      	cmp	r3, #0
 80088a6:	d1e3      	bne.n	8008870 <HAL_UART_IRQHandler+0x488>

        /* Initialize type of RxEvent that correspond to RxEvent callback execution;
           In this case, Rx Event type is Idle Event */
        huart->RxEventType = HAL_UART_RXEVENT_IDLE;
 80088a8:	687b      	ldr	r3, [r7, #4]
 80088aa:	2202      	movs	r2, #2
 80088ac:	635a      	str	r2, [r3, #52]	; 0x34
#if (USE_HAL_UART_REGISTER_CALLBACKS == 1)
        /*Call registered Rx complete callback*/
        huart->RxEventCallback(huart, nb_rx_data);
#else
        /*Call legacy weak Rx Event callback*/
        HAL_UARTEx_RxEventCallback(huart, nb_rx_data);
 80088ae:	f8b7 30ce 	ldrh.w	r3, [r7, #206]	; 0xce
 80088b2:	4619      	mov	r1, r3
 80088b4:	6878      	ldr	r0, [r7, #4]
 80088b6:	f000 f83d 	bl	8008934 <HAL_UARTEx_RxEventCallback>
#endif /* USE_HAL_UART_REGISTER_CALLBACKS */
      }
      return;
 80088ba:	e023      	b.n	8008904 <HAL_UART_IRQHandler+0x51c>
    }
  }

  /* UART in mode Transmitter ------------------------------------------------*/
  if (((isrflags & USART_SR_TXE) != RESET) && ((cr1its & USART_CR1_TXEIE) != RESET))
 80088bc:	f8d7 30e4 	ldr.w	r3, [r7, #228]	; 0xe4
 80088c0:	f003 0380 	and.w	r3, r3, #128	; 0x80
 80088c4:	2b00      	cmp	r3, #0
 80088c6:	d009      	beq.n	80088dc <HAL_UART_IRQHandler+0x4f4>
 80088c8:	f8d7 30e0 	ldr.w	r3, [r7, #224]	; 0xe0
 80088cc:	f003 0380 	and.w	r3, r3, #128	; 0x80
 80088d0:	2b00      	cmp	r3, #0
 80088d2:	d003      	beq.n	80088dc <HAL_UART_IRQHandler+0x4f4>
  {
    UART_Transmit_IT(huart);
 80088d4:	6878      	ldr	r0, [r7, #4]
 80088d6:	f000 f943 	bl	8008b60 <UART_Transmit_IT>
    return;
 80088da:	e014      	b.n	8008906 <HAL_UART_IRQHandler+0x51e>
  }

  /* UART in mode Transmitter end --------------------------------------------*/
  if (((isrflags & USART_SR_TC) != RESET) && ((cr1its & USART_CR1_TCIE) != RESET))
 80088dc:	f8d7 30e4 	ldr.w	r3, [r7, #228]	; 0xe4
 80088e0:	f003 0340 	and.w	r3, r3, #64	; 0x40
 80088e4:	2b00      	cmp	r3, #0
 80088e6:	d00e      	beq.n	8008906 <HAL_UART_IRQHandler+0x51e>
 80088e8:	f8d7 30e0 	ldr.w	r3, [r7, #224]	; 0xe0
 80088ec:	f003 0340 	and.w	r3, r3, #64	; 0x40
 80088f0:	2b00      	cmp	r3, #0
 80088f2:	d008      	beq.n	8008906 <HAL_UART_IRQHandler+0x51e>
  {
    UART_EndTransmit_IT(huart);
 80088f4:	6878      	ldr	r0, [r7, #4]
 80088f6:	f000 f983 	bl	8008c00 <UART_EndTransmit_IT>
    return;
 80088fa:	e004      	b.n	8008906 <HAL_UART_IRQHandler+0x51e>
    return;
 80088fc:	bf00      	nop
 80088fe:	e002      	b.n	8008906 <HAL_UART_IRQHandler+0x51e>
      return;
 8008900:	bf00      	nop
 8008902:	e000      	b.n	8008906 <HAL_UART_IRQHandler+0x51e>
      return;
 8008904:	bf00      	nop
  }
}
 8008906:	37e8      	adds	r7, #232	; 0xe8
 8008908:	46bd      	mov	sp, r7
 800890a:	bd80      	pop	{r7, pc}

0800890c <HAL_UART_TxCpltCallback>:
  * @param  huart  Pointer to a UART_HandleTypeDef structure that contains
  *                the configuration information for the specified UART module.
  * @retval None
  */
__weak void HAL_UART_TxCpltCallback(UART_HandleTypeDef *huart)
{
 800890c:	b480      	push	{r7}
 800890e:	b083      	sub	sp, #12
 8008910:	af00      	add	r7, sp, #0
 8008912:	6078      	str	r0, [r7, #4]
  /* Prevent unused argument(s) compilation warning */
  UNUSED(huart);
  /* NOTE: This function should not be modified, when the callback is needed,
           the HAL_UART_TxCpltCallback could be implemented in the user file
   */
}
 8008914:	bf00      	nop
 8008916:	370c      	adds	r7, #12
 8008918:	46bd      	mov	sp, r7
 800891a:	f85d 7b04 	ldr.w	r7, [sp], #4
 800891e:	4770      	bx	lr

08008920 <HAL_UART_ErrorCallback>:
  * @param  huart  Pointer to a UART_HandleTypeDef structure that contains
  *                the configuration information for the specified UART module.
  * @retval None
  */
__weak void HAL_UART_ErrorCallback(UART_HandleTypeDef *huart)
{
 8008920:	b480      	push	{r7}
 8008922:	b083      	sub	sp, #12
 8008924:	af00      	add	r7, sp, #0
 8008926:	6078      	str	r0, [r7, #4]
  /* Prevent unused argument(s) compilation warning */
  UNUSED(huart);
  /* NOTE: This function should not be modified, when the callback is needed,
           the HAL_UART_ErrorCallback could be implemented in the user file
   */
}
 8008928:	bf00      	nop
 800892a:	370c      	adds	r7, #12
 800892c:	46bd      	mov	sp, r7
 800892e:	f85d 7b04 	ldr.w	r7, [sp], #4
 8008932:	4770      	bx	lr

08008934 <HAL_UARTEx_RxEventCallback>:
  * @param  Size  Number of data available in application reception buffer (indicates a position in
  *               reception buffer until which, data are available)
  * @retval None
  */
__weak void HAL_UARTEx_RxEventCallback(UART_HandleTypeDef *huart, uint16_t Size)
{
 8008934:	b480      	push	{r7}
 8008936:	b083      	sub	sp, #12
 8008938:	af00      	add	r7, sp, #0
 800893a:	6078      	str	r0, [r7, #4]
 800893c:	460b      	mov	r3, r1
 800893e:	807b      	strh	r3, [r7, #2]
  UNUSED(Size);

  /* NOTE : This function should not be modified, when the callback is needed,
            the HAL_UARTEx_RxEventCallback can be implemented in the user file.
   */
}
 8008940:	bf00      	nop
 8008942:	370c      	adds	r7, #12
 8008944:	46bd      	mov	sp, r7
 8008946:	f85d 7b04 	ldr.w	r7, [sp], #4
 800894a:	4770      	bx	lr

0800894c <UART_WaitOnFlagUntilTimeout>:
  * @param  Timeout Timeout duration
  * @retval HAL status
  */
static HAL_StatusTypeDef UART_WaitOnFlagUntilTimeout(UART_HandleTypeDef *huart, uint32_t Flag, FlagStatus Status,
                                                     uint32_t Tickstart, uint32_t Timeout)
{
 800894c:	b580      	push	{r7, lr}
 800894e:	b086      	sub	sp, #24
 8008950:	af00      	add	r7, sp, #0
 8008952:	60f8      	str	r0, [r7, #12]
 8008954:	60b9      	str	r1, [r7, #8]
 8008956:	603b      	str	r3, [r7, #0]
 8008958:	4613      	mov	r3, r2
 800895a:	71fb      	strb	r3, [r7, #7]
  /* Wait until flag is set */
  while ((__HAL_UART_GET_FLAG(huart, Flag) ? SET : RESET) == Status)
 800895c:	e03b      	b.n	80089d6 <UART_WaitOnFlagUntilTimeout+0x8a>
  {
    /* Check for the Timeout */
    if (Timeout != HAL_MAX_DELAY)
 800895e:	6a3b      	ldr	r3, [r7, #32]
 8008960:	f1b3 3fff 	cmp.w	r3, #4294967295	; 0xffffffff
 8008964:	d037      	beq.n	80089d6 <UART_WaitOnFlagUntilTimeout+0x8a>
    {
      if (((HAL_GetTick() - Tickstart) > Timeout) || (Timeout == 0U))
 8008966:	f7fa fac5 	bl	8002ef4 <HAL_GetTick>
 800896a:	4602      	mov	r2, r0
 800896c:	683b      	ldr	r3, [r7, #0]
 800896e:	1ad3      	subs	r3, r2, r3
 8008970:	6a3a      	ldr	r2, [r7, #32]
 8008972:	429a      	cmp	r2, r3
 8008974:	d302      	bcc.n	800897c <UART_WaitOnFlagUntilTimeout+0x30>
 8008976:	6a3b      	ldr	r3, [r7, #32]
 8008978:	2b00      	cmp	r3, #0
 800897a:	d101      	bne.n	8008980 <UART_WaitOnFlagUntilTimeout+0x34>
      {

        return HAL_TIMEOUT;
 800897c:	2303      	movs	r3, #3
 800897e:	e03a      	b.n	80089f6 <UART_WaitOnFlagUntilTimeout+0xaa>
      }

      if ((READ_BIT(huart->Instance->CR1, USART_CR1_RE) != 0U) && (Flag != UART_FLAG_TXE) && (Flag != UART_FLAG_TC))
 8008980:	68fb      	ldr	r3, [r7, #12]
 8008982:	681b      	ldr	r3, [r3, #0]
 8008984:	68db      	ldr	r3, [r3, #12]
 8008986:	f003 0304 	and.w	r3, r3, #4
 800898a:	2b00      	cmp	r3, #0
 800898c:	d023      	beq.n	80089d6 <UART_WaitOnFlagUntilTimeout+0x8a>
 800898e:	68bb      	ldr	r3, [r7, #8]
 8008990:	2b80      	cmp	r3, #128	; 0x80
 8008992:	d020      	beq.n	80089d6 <UART_WaitOnFlagUntilTimeout+0x8a>
 8008994:	68bb      	ldr	r3, [r7, #8]
 8008996:	2b40      	cmp	r3, #64	; 0x40
 8008998:	d01d      	beq.n	80089d6 <UART_WaitOnFlagUntilTimeout+0x8a>
      {
        if (__HAL_UART_GET_FLAG(huart, UART_FLAG_ORE) == SET)
 800899a:	68fb      	ldr	r3, [r7, #12]
 800899c:	681b      	ldr	r3, [r3, #0]
 800899e:	681b      	ldr	r3, [r3, #0]
 80089a0:	f003 0308 	and.w	r3, r3, #8
 80089a4:	2b08      	cmp	r3, #8
 80089a6:	d116      	bne.n	80089d6 <UART_WaitOnFlagUntilTimeout+0x8a>
        {
          /* Clear Overrun Error flag*/
          __HAL_UART_CLEAR_OREFLAG(huart);
 80089a8:	2300      	movs	r3, #0
 80089aa:	617b      	str	r3, [r7, #20]
 80089ac:	68fb      	ldr	r3, [r7, #12]
 80089ae:	681b      	ldr	r3, [r3, #0]
 80089b0:	681b      	ldr	r3, [r3, #0]
 80089b2:	617b      	str	r3, [r7, #20]
 80089b4:	68fb      	ldr	r3, [r7, #12]
 80089b6:	681b      	ldr	r3, [r3, #0]
 80089b8:	685b      	ldr	r3, [r3, #4]
 80089ba:	617b      	str	r3, [r7, #20]
 80089bc:	697b      	ldr	r3, [r7, #20]

          /* Blocking error : transfer is aborted
          Set the UART state ready to be able to start again the process,
          Disable Rx Interrupts if ongoing */
          UART_EndRxTransfer(huart);
 80089be:	68f8      	ldr	r0, [r7, #12]
 80089c0:	f000 f857 	bl	8008a72 <UART_EndRxTransfer>

          huart->ErrorCode = HAL_UART_ERROR_ORE;
 80089c4:	68fb      	ldr	r3, [r7, #12]
 80089c6:	2208      	movs	r2, #8
 80089c8:	645a      	str	r2, [r3, #68]	; 0x44

          /* Process Unlocked */
          __HAL_UNLOCK(huart);
 80089ca:	68fb      	ldr	r3, [r7, #12]
 80089cc:	2200      	movs	r2, #0
 80089ce:	f883 2040 	strb.w	r2, [r3, #64]	; 0x40

          return HAL_ERROR;
 80089d2:	2301      	movs	r3, #1
 80089d4:	e00f      	b.n	80089f6 <UART_WaitOnFlagUntilTimeout+0xaa>
  while ((__HAL_UART_GET_FLAG(huart, Flag) ? SET : RESET) == Status)
 80089d6:	68fb      	ldr	r3, [r7, #12]
 80089d8:	681b      	ldr	r3, [r3, #0]
 80089da:	681a      	ldr	r2, [r3, #0]
 80089dc:	68bb      	ldr	r3, [r7, #8]
 80089de:	4013      	ands	r3, r2
 80089e0:	68ba      	ldr	r2, [r7, #8]
 80089e2:	429a      	cmp	r2, r3
 80089e4:	bf0c      	ite	eq
 80089e6:	2301      	moveq	r3, #1
 80089e8:	2300      	movne	r3, #0
 80089ea:	b2db      	uxtb	r3, r3
 80089ec:	461a      	mov	r2, r3
 80089ee:	79fb      	ldrb	r3, [r7, #7]
 80089f0:	429a      	cmp	r2, r3
 80089f2:	d0b4      	beq.n	800895e <UART_WaitOnFlagUntilTimeout+0x12>
        }
      }
    }
  }
  return HAL_OK;
 80089f4:	2300      	movs	r3, #0
}
 80089f6:	4618      	mov	r0, r3
 80089f8:	3718      	adds	r7, #24
 80089fa:	46bd      	mov	sp, r7
 80089fc:	bd80      	pop	{r7, pc}

080089fe <UART_Start_Receive_IT>:
  * @param  pData Pointer to data buffer (u8 or u16 data elements).
  * @param  Size  Amount of data elements (u8 or u16) to be received.
  * @retval HAL status
  */
HAL_StatusTypeDef UART_Start_Receive_IT(UART_HandleTypeDef *huart, uint8_t *pData, uint16_t Size)
{
 80089fe:	b480      	push	{r7}
 8008a00:	b085      	sub	sp, #20
 8008a02:	af00      	add	r7, sp, #0
 8008a04:	60f8      	str	r0, [r7, #12]
 8008a06:	60b9      	str	r1, [r7, #8]
 8008a08:	4613      	mov	r3, r2
 8008a0a:	80fb      	strh	r3, [r7, #6]
  huart->pRxBuffPtr = pData;
 8008a0c:	68fb      	ldr	r3, [r7, #12]
 8008a0e:	68ba      	ldr	r2, [r7, #8]
 8008a10:	629a      	str	r2, [r3, #40]	; 0x28
  huart->RxXferSize = Size;
 8008a12:	68fb      	ldr	r3, [r7, #12]
 8008a14:	88fa      	ldrh	r2, [r7, #6]
 8008a16:	859a      	strh	r2, [r3, #44]	; 0x2c
  huart->RxXferCount = Size;
 8008a18:	68fb      	ldr	r3, [r7, #12]
 8008a1a:	88fa      	ldrh	r2, [r7, #6]
 8008a1c:	85da      	strh	r2, [r3, #46]	; 0x2e

  huart->ErrorCode = HAL_UART_ERROR_NONE;
 8008a1e:	68fb      	ldr	r3, [r7, #12]
 8008a20:	2200      	movs	r2, #0
 8008a22:	645a      	str	r2, [r3, #68]	; 0x44
  huart->RxState = HAL_UART_STATE_BUSY_RX;
 8008a24:	68fb      	ldr	r3, [r7, #12]
 8008a26:	2222      	movs	r2, #34	; 0x22
 8008a28:	f883 2042 	strb.w	r2, [r3, #66]	; 0x42

  if (huart->Init.Parity != UART_PARITY_NONE)
 8008a2c:	68fb      	ldr	r3, [r7, #12]
 8008a2e:	691b      	ldr	r3, [r3, #16]
 8008a30:	2b00      	cmp	r3, #0
 8008a32:	d007      	beq.n	8008a44 <UART_Start_Receive_IT+0x46>
  {
    /* Enable the UART Parity Error Interrupt */
    __HAL_UART_ENABLE_IT(huart, UART_IT_PE);
 8008a34:	68fb      	ldr	r3, [r7, #12]
 8008a36:	681b      	ldr	r3, [r3, #0]
 8008a38:	68da      	ldr	r2, [r3, #12]
 8008a3a:	68fb      	ldr	r3, [r7, #12]
 8008a3c:	681b      	ldr	r3, [r3, #0]
 8008a3e:	f442 7280 	orr.w	r2, r2, #256	; 0x100
 8008a42:	60da      	str	r2, [r3, #12]
  }

  /* Enable the UART Error Interrupt: (Frame error, noise error, overrun error) */
  __HAL_UART_ENABLE_IT(huart, UART_IT_ERR);
 8008a44:	68fb      	ldr	r3, [r7, #12]
 8008a46:	681b      	ldr	r3, [r3, #0]
 8008a48:	695a      	ldr	r2, [r3, #20]
 8008a4a:	68fb      	ldr	r3, [r7, #12]
 8008a4c:	681b      	ldr	r3, [r3, #0]
 8008a4e:	f042 0201 	orr.w	r2, r2, #1
 8008a52:	615a      	str	r2, [r3, #20]

  /* Enable the UART Data Register not empty Interrupt */
  __HAL_UART_ENABLE_IT(huart, UART_IT_RXNE);
 8008a54:	68fb      	ldr	r3, [r7, #12]
 8008a56:	681b      	ldr	r3, [r3, #0]
 8008a58:	68da      	ldr	r2, [r3, #12]
 8008a5a:	68fb      	ldr	r3, [r7, #12]
 8008a5c:	681b      	ldr	r3, [r3, #0]
 8008a5e:	f042 0220 	orr.w	r2, r2, #32
 8008a62:	60da      	str	r2, [r3, #12]

  return HAL_OK;
 8008a64:	2300      	movs	r3, #0
}
 8008a66:	4618      	mov	r0, r3
 8008a68:	3714      	adds	r7, #20
 8008a6a:	46bd      	mov	sp, r7
 8008a6c:	f85d 7b04 	ldr.w	r7, [sp], #4
 8008a70:	4770      	bx	lr

08008a72 <UART_EndRxTransfer>:
  * @brief  End ongoing Rx transfer on UART peripheral (following error detection or Reception completion).
  * @param  huart UART handle.
  * @retval None
  */
static void UART_EndRxTransfer(UART_HandleTypeDef *huart)
{
 8008a72:	b480      	push	{r7}
 8008a74:	b095      	sub	sp, #84	; 0x54
 8008a76:	af00      	add	r7, sp, #0
 8008a78:	6078      	str	r0, [r7, #4]
  /* Disable RXNE, PE and ERR (Frame error, noise error, overrun error) interrupts */
  ATOMIC_CLEAR_BIT(huart->Instance->CR1, (USART_CR1_RXNEIE | USART_CR1_PEIE));
 8008a7a:	687b      	ldr	r3, [r7, #4]
 8008a7c:	681b      	ldr	r3, [r3, #0]
 8008a7e:	330c      	adds	r3, #12
 8008a80:	637b      	str	r3, [r7, #52]	; 0x34
   __ASM volatile ("ldrex %0, %1" : "=r" (result) : "Q" (*addr) );
 8008a82:	6b7b      	ldr	r3, [r7, #52]	; 0x34
 8008a84:	e853 3f00 	ldrex	r3, [r3]
 8008a88:	633b      	str	r3, [r7, #48]	; 0x30
   return(result);
 8008a8a:	6b3b      	ldr	r3, [r7, #48]	; 0x30
 8008a8c:	f423 7390 	bic.w	r3, r3, #288	; 0x120
 8008a90:	64fb      	str	r3, [r7, #76]	; 0x4c
 8008a92:	687b      	ldr	r3, [r7, #4]
 8008a94:	681b      	ldr	r3, [r3, #0]
 8008a96:	330c      	adds	r3, #12
 8008a98:	6cfa      	ldr	r2, [r7, #76]	; 0x4c
 8008a9a:	643a      	str	r2, [r7, #64]	; 0x40
 8008a9c:	63fb      	str	r3, [r7, #60]	; 0x3c
   __ASM volatile ("strex %0, %2, %1" : "=&r" (result), "=Q" (*addr) : "r" (value) );
 8008a9e:	6bf9      	ldr	r1, [r7, #60]	; 0x3c
 8008aa0:	6c3a      	ldr	r2, [r7, #64]	; 0x40
 8008aa2:	e841 2300 	strex	r3, r2, [r1]
 8008aa6:	63bb      	str	r3, [r7, #56]	; 0x38
   return(result);
 8008aa8:	6bbb      	ldr	r3, [r7, #56]	; 0x38
 8008aaa:	2b00      	cmp	r3, #0
 8008aac:	d1e5      	bne.n	8008a7a <UART_EndRxTransfer+0x8>
  ATOMIC_CLEAR_BIT(huart->Instance->CR3, USART_CR3_EIE);
 8008aae:	687b      	ldr	r3, [r7, #4]
 8008ab0:	681b      	ldr	r3, [r3, #0]
 8008ab2:	3314      	adds	r3, #20
 8008ab4:	623b      	str	r3, [r7, #32]
   __ASM volatile ("ldrex %0, %1" : "=r" (result) : "Q" (*addr) );
 8008ab6:	6a3b      	ldr	r3, [r7, #32]
 8008ab8:	e853 3f00 	ldrex	r3, [r3]
 8008abc:	61fb      	str	r3, [r7, #28]
   return(result);
 8008abe:	69fb      	ldr	r3, [r7, #28]
 8008ac0:	f023 0301 	bic.w	r3, r3, #1
 8008ac4:	64bb      	str	r3, [r7, #72]	; 0x48
 8008ac6:	687b      	ldr	r3, [r7, #4]
 8008ac8:	681b      	ldr	r3, [r3, #0]
 8008aca:	3314      	adds	r3, #20
 8008acc:	6cba      	ldr	r2, [r7, #72]	; 0x48
 8008ace:	62fa      	str	r2, [r7, #44]	; 0x2c
 8008ad0:	62bb      	str	r3, [r7, #40]	; 0x28
   __ASM volatile ("strex %0, %2, %1" : "=&r" (result), "=Q" (*addr) : "r" (value) );
 8008ad2:	6ab9      	ldr	r1, [r7, #40]	; 0x28
 8008ad4:	6afa      	ldr	r2, [r7, #44]	; 0x2c
 8008ad6:	e841 2300 	strex	r3, r2, [r1]
 8008ada:	627b      	str	r3, [r7, #36]	; 0x24
   return(result);
 8008adc:	6a7b      	ldr	r3, [r7, #36]	; 0x24
 8008ade:	2b00      	cmp	r3, #0
 8008ae0:	d1e5      	bne.n	8008aae <UART_EndRxTransfer+0x3c>

  /* In case of reception waiting for IDLE event, disable also the IDLE IE interrupt source */
  if (huart->ReceptionType == HAL_UART_RECEPTION_TOIDLE)
 8008ae2:	687b      	ldr	r3, [r7, #4]
 8008ae4:	6b1b      	ldr	r3, [r3, #48]	; 0x30
 8008ae6:	2b01      	cmp	r3, #1
 8008ae8:	d119      	bne.n	8008b1e <UART_EndRxTransfer+0xac>
  {
    ATOMIC_CLEAR_BIT(huart->Instance->CR1, USART_CR1_IDLEIE);
 8008aea:	687b      	ldr	r3, [r7, #4]
 8008aec:	681b      	ldr	r3, [r3, #0]
 8008aee:	330c      	adds	r3, #12
 8008af0:	60fb      	str	r3, [r7, #12]
   __ASM volatile ("ldrex %0, %1" : "=r" (result) : "Q" (*addr) );
 8008af2:	68fb      	ldr	r3, [r7, #12]
 8008af4:	e853 3f00 	ldrex	r3, [r3]
 8008af8:	60bb      	str	r3, [r7, #8]
   return(result);
 8008afa:	68bb      	ldr	r3, [r7, #8]
 8008afc:	f023 0310 	bic.w	r3, r3, #16
 8008b00:	647b      	str	r3, [r7, #68]	; 0x44
 8008b02:	687b      	ldr	r3, [r7, #4]
 8008b04:	681b      	ldr	r3, [r3, #0]
 8008b06:	330c      	adds	r3, #12
 8008b08:	6c7a      	ldr	r2, [r7, #68]	; 0x44
 8008b0a:	61ba      	str	r2, [r7, #24]
 8008b0c:	617b      	str	r3, [r7, #20]
   __ASM volatile ("strex %0, %2, %1" : "=&r" (result), "=Q" (*addr) : "r" (value) );
 8008b0e:	6979      	ldr	r1, [r7, #20]
 8008b10:	69ba      	ldr	r2, [r7, #24]
 8008b12:	e841 2300 	strex	r3, r2, [r1]
 8008b16:	613b      	str	r3, [r7, #16]
   return(result);
 8008b18:	693b      	ldr	r3, [r7, #16]
 8008b1a:	2b00      	cmp	r3, #0
 8008b1c:	d1e5      	bne.n	8008aea <UART_EndRxTransfer+0x78>
  }

  /* At end of Rx process, restore huart->RxState to Ready */
  huart->RxState = HAL_UART_STATE_READY;
 8008b1e:	687b      	ldr	r3, [r7, #4]
 8008b20:	2220      	movs	r2, #32
 8008b22:	f883 2042 	strb.w	r2, [r3, #66]	; 0x42
  huart->ReceptionType = HAL_UART_RECEPTION_STANDARD;
 8008b26:	687b      	ldr	r3, [r7, #4]
 8008b28:	2200      	movs	r2, #0
 8008b2a:	631a      	str	r2, [r3, #48]	; 0x30
}
 8008b2c:	bf00      	nop
 8008b2e:	3754      	adds	r7, #84	; 0x54
 8008b30:	46bd      	mov	sp, r7
 8008b32:	f85d 7b04 	ldr.w	r7, [sp], #4
 8008b36:	4770      	bx	lr

08008b38 <UART_DMAAbortOnError>:
  * @param  hdma  Pointer to a DMA_HandleTypeDef structure that contains
  *               the configuration information for the specified DMA module.
  * @retval None
  */
static void UART_DMAAbortOnError(DMA_HandleTypeDef *hdma)
{
 8008b38:	b580      	push	{r7, lr}
 8008b3a:	b084      	sub	sp, #16
 8008b3c:	af00      	add	r7, sp, #0
 8008b3e:	6078      	str	r0, [r7, #4]
  UART_HandleTypeDef *huart = (UART_HandleTypeDef *)((DMA_HandleTypeDef *)hdma)->Parent;
 8008b40:	687b      	ldr	r3, [r7, #4]
 8008b42:	6b9b      	ldr	r3, [r3, #56]	; 0x38
 8008b44:	60fb      	str	r3, [r7, #12]
  huart->RxXferCount = 0x00U;
 8008b46:	68fb      	ldr	r3, [r7, #12]
 8008b48:	2200      	movs	r2, #0
 8008b4a:	85da      	strh	r2, [r3, #46]	; 0x2e
  huart->TxXferCount = 0x00U;
 8008b4c:	68fb      	ldr	r3, [r7, #12]
 8008b4e:	2200      	movs	r2, #0
 8008b50:	84da      	strh	r2, [r3, #38]	; 0x26
#if (USE_HAL_UART_REGISTER_CALLBACKS == 1)
  /*Call registered error callback*/
  huart->ErrorCallback(huart);
#else
  /*Call legacy weak error callback*/
  HAL_UART_ErrorCallback(huart);
 8008b52:	68f8      	ldr	r0, [r7, #12]
 8008b54:	f7ff fee4 	bl	8008920 <HAL_UART_ErrorCallback>
#endif /* USE_HAL_UART_REGISTER_CALLBACKS */
}
 8008b58:	bf00      	nop
 8008b5a:	3710      	adds	r7, #16
 8008b5c:	46bd      	mov	sp, r7
 8008b5e:	bd80      	pop	{r7, pc}

08008b60 <UART_Transmit_IT>:
  * @param  huart  Pointer to a UART_HandleTypeDef structure that contains
  *                the configuration information for the specified UART module.
  * @retval HAL status
  */
static HAL_StatusTypeDef UART_Transmit_IT(UART_HandleTypeDef *huart)
{
 8008b60:	b480      	push	{r7}
 8008b62:	b085      	sub	sp, #20
 8008b64:	af00      	add	r7, sp, #0
 8008b66:	6078      	str	r0, [r7, #4]
  const uint16_t *tmp;

  /* Check that a Tx process is ongoing */
  if (huart->gState == HAL_UART_STATE_BUSY_TX)
 8008b68:	687b      	ldr	r3, [r7, #4]
 8008b6a:	f893 3041 	ldrb.w	r3, [r3, #65]	; 0x41
 8008b6e:	b2db      	uxtb	r3, r3
 8008b70:	2b21      	cmp	r3, #33	; 0x21
 8008b72:	d13e      	bne.n	8008bf2 <UART_Transmit_IT+0x92>
  {
    if ((huart->Init.WordLength == UART_WORDLENGTH_9B) && (huart->Init.Parity == UART_PARITY_NONE))
 8008b74:	687b      	ldr	r3, [r7, #4]
 8008b76:	689b      	ldr	r3, [r3, #8]
 8008b78:	f5b3 5f80 	cmp.w	r3, #4096	; 0x1000
 8008b7c:	d114      	bne.n	8008ba8 <UART_Transmit_IT+0x48>
 8008b7e:	687b      	ldr	r3, [r7, #4]
 8008b80:	691b      	ldr	r3, [r3, #16]
 8008b82:	2b00      	cmp	r3, #0
 8008b84:	d110      	bne.n	8008ba8 <UART_Transmit_IT+0x48>
    {
      tmp = (const uint16_t *) huart->pTxBuffPtr;
 8008b86:	687b      	ldr	r3, [r7, #4]
 8008b88:	6a1b      	ldr	r3, [r3, #32]
 8008b8a:	60fb      	str	r3, [r7, #12]
      huart->Instance->DR = (uint16_t)(*tmp & (uint16_t)0x01FF);
 8008b8c:	68fb      	ldr	r3, [r7, #12]
 8008b8e:	881b      	ldrh	r3, [r3, #0]
 8008b90:	461a      	mov	r2, r3
 8008b92:	687b      	ldr	r3, [r7, #4]
 8008b94:	681b      	ldr	r3, [r3, #0]
 8008b96:	f3c2 0208 	ubfx	r2, r2, #0, #9
 8008b9a:	605a      	str	r2, [r3, #4]
      huart->pTxBuffPtr += 2U;
 8008b9c:	687b      	ldr	r3, [r7, #4]
 8008b9e:	6a1b      	ldr	r3, [r3, #32]
 8008ba0:	1c9a      	adds	r2, r3, #2
 8008ba2:	687b      	ldr	r3, [r7, #4]
 8008ba4:	621a      	str	r2, [r3, #32]
 8008ba6:	e008      	b.n	8008bba <UART_Transmit_IT+0x5a>
    }
    else
    {
      huart->Instance->DR = (uint8_t)(*huart->pTxBuffPtr++ & (uint8_t)0x00FF);
 8008ba8:	687b      	ldr	r3, [r7, #4]
 8008baa:	6a1b      	ldr	r3, [r3, #32]
 8008bac:	1c59      	adds	r1, r3, #1
 8008bae:	687a      	ldr	r2, [r7, #4]
 8008bb0:	6211      	str	r1, [r2, #32]
 8008bb2:	781a      	ldrb	r2, [r3, #0]
 8008bb4:	687b      	ldr	r3, [r7, #4]
 8008bb6:	681b      	ldr	r3, [r3, #0]
 8008bb8:	605a      	str	r2, [r3, #4]
    }

    if (--huart->TxXferCount == 0U)
 8008bba:	687b      	ldr	r3, [r7, #4]
 8008bbc:	8cdb      	ldrh	r3, [r3, #38]	; 0x26
 8008bbe:	b29b      	uxth	r3, r3
 8008bc0:	3b01      	subs	r3, #1
 8008bc2:	b29b      	uxth	r3, r3
 8008bc4:	687a      	ldr	r2, [r7, #4]
 8008bc6:	4619      	mov	r1, r3
 8008bc8:	84d1      	strh	r1, [r2, #38]	; 0x26
 8008bca:	2b00      	cmp	r3, #0
 8008bcc:	d10f      	bne.n	8008bee <UART_Transmit_IT+0x8e>
    {
      /* Disable the UART Transmit Data Register Empty Interrupt */
      __HAL_UART_DISABLE_IT(huart, UART_IT_TXE);
 8008bce:	687b      	ldr	r3, [r7, #4]
 8008bd0:	681b      	ldr	r3, [r3, #0]
 8008bd2:	68da      	ldr	r2, [r3, #12]
 8008bd4:	687b      	ldr	r3, [r7, #4]
 8008bd6:	681b      	ldr	r3, [r3, #0]
 8008bd8:	f022 0280 	bic.w	r2, r2, #128	; 0x80
 8008bdc:	60da      	str	r2, [r3, #12]

      /* Enable the UART Transmit Complete Interrupt */
      __HAL_UART_ENABLE_IT(huart, UART_IT_TC);
 8008bde:	687b      	ldr	r3, [r7, #4]
 8008be0:	681b      	ldr	r3, [r3, #0]
 8008be2:	68da      	ldr	r2, [r3, #12]
 8008be4:	687b      	ldr	r3, [r7, #4]
 8008be6:	681b      	ldr	r3, [r3, #0]
 8008be8:	f042 0240 	orr.w	r2, r2, #64	; 0x40
 8008bec:	60da      	str	r2, [r3, #12]
    }
    return HAL_OK;
 8008bee:	2300      	movs	r3, #0
 8008bf0:	e000      	b.n	8008bf4 <UART_Transmit_IT+0x94>
  }
  else
  {
    return HAL_BUSY;
 8008bf2:	2302      	movs	r3, #2
  }
}
 8008bf4:	4618      	mov	r0, r3
 8008bf6:	3714      	adds	r7, #20
 8008bf8:	46bd      	mov	sp, r7
 8008bfa:	f85d 7b04 	ldr.w	r7, [sp], #4
 8008bfe:	4770      	bx	lr

08008c00 <UART_EndTransmit_IT>:
  * @param  huart  Pointer to a UART_HandleTypeDef structure that contains
  *                the configuration information for the specified UART module.
  * @retval HAL status
  */
static HAL_StatusTypeDef UART_EndTransmit_IT(UART_HandleTypeDef *huart)
{
 8008c00:	b580      	push	{r7, lr}
 8008c02:	b082      	sub	sp, #8
 8008c04:	af00      	add	r7, sp, #0
 8008c06:	6078      	str	r0, [r7, #4]
  /* Disable the UART Transmit Complete Interrupt */
  __HAL_UART_DISABLE_IT(huart, UART_IT_TC);
 8008c08:	687b      	ldr	r3, [r7, #4]
 8008c0a:	681b      	ldr	r3, [r3, #0]
 8008c0c:	68da      	ldr	r2, [r3, #12]
 8008c0e:	687b      	ldr	r3, [r7, #4]
 8008c10:	681b      	ldr	r3, [r3, #0]
 8008c12:	f022 0240 	bic.w	r2, r2, #64	; 0x40
 8008c16:	60da      	str	r2, [r3, #12]

  /* Tx process is ended, restore huart->gState to Ready */
  huart->gState = HAL_UART_STATE_READY;
 8008c18:	687b      	ldr	r3, [r7, #4]
 8008c1a:	2220      	movs	r2, #32
 8008c1c:	f883 2041 	strb.w	r2, [r3, #65]	; 0x41
#if (USE_HAL_UART_REGISTER_CALLBACKS == 1)
  /*Call registered Tx complete callback*/
  huart->TxCpltCallback(huart);
#else
  /*Call legacy weak Tx complete callback*/
  HAL_UART_TxCpltCallback(huart);
 8008c20:	6878      	ldr	r0, [r7, #4]
 8008c22:	f7ff fe73 	bl	800890c <HAL_UART_TxCpltCallback>
#endif /* USE_HAL_UART_REGISTER_CALLBACKS */

  return HAL_OK;
 8008c26:	2300      	movs	r3, #0
}
 8008c28:	4618      	mov	r0, r3
 8008c2a:	3708      	adds	r7, #8
 8008c2c:	46bd      	mov	sp, r7
 8008c2e:	bd80      	pop	{r7, pc}

08008c30 <UART_Receive_IT>:
  * @param  huart  Pointer to a UART_HandleTypeDef structure that contains
  *                the configuration information for the specified UART module.
  * @retval HAL status
  */
static HAL_StatusTypeDef UART_Receive_IT(UART_HandleTypeDef *huart)
{
 8008c30:	b580      	push	{r7, lr}
 8008c32:	b08c      	sub	sp, #48	; 0x30
 8008c34:	af00      	add	r7, sp, #0
 8008c36:	6078      	str	r0, [r7, #4]
  uint8_t  *pdata8bits;
  uint16_t *pdata16bits;

  /* Check that a Rx process is ongoing */
  if (huart->RxState == HAL_UART_STATE_BUSY_RX)
 8008c38:	687b      	ldr	r3, [r7, #4]
 8008c3a:	f893 3042 	ldrb.w	r3, [r3, #66]	; 0x42
 8008c3e:	b2db      	uxtb	r3, r3
 8008c40:	2b22      	cmp	r3, #34	; 0x22
 8008c42:	f040 80ae 	bne.w	8008da2 <UART_Receive_IT+0x172>
  {
    if ((huart->Init.WordLength == UART_WORDLENGTH_9B) && (huart->Init.Parity == UART_PARITY_NONE))
 8008c46:	687b      	ldr	r3, [r7, #4]
 8008c48:	689b      	ldr	r3, [r3, #8]
 8008c4a:	f5b3 5f80 	cmp.w	r3, #4096	; 0x1000
 8008c4e:	d117      	bne.n	8008c80 <UART_Receive_IT+0x50>
 8008c50:	687b      	ldr	r3, [r7, #4]
 8008c52:	691b      	ldr	r3, [r3, #16]
 8008c54:	2b00      	cmp	r3, #0
 8008c56:	d113      	bne.n	8008c80 <UART_Receive_IT+0x50>
    {
      pdata8bits  = NULL;
 8008c58:	2300      	movs	r3, #0
 8008c5a:	62fb      	str	r3, [r7, #44]	; 0x2c
      pdata16bits = (uint16_t *) huart->pRxBuffPtr;
 8008c5c:	687b      	ldr	r3, [r7, #4]
 8008c5e:	6a9b      	ldr	r3, [r3, #40]	; 0x28
 8008c60:	62bb      	str	r3, [r7, #40]	; 0x28
      *pdata16bits = (uint16_t)(huart->Instance->DR & (uint16_t)0x01FF);
 8008c62:	687b      	ldr	r3, [r7, #4]
 8008c64:	681b      	ldr	r3, [r3, #0]
 8008c66:	685b      	ldr	r3, [r3, #4]
 8008c68:	b29b      	uxth	r3, r3
 8008c6a:	f3c3 0308 	ubfx	r3, r3, #0, #9
 8008c6e:	b29a      	uxth	r2, r3
 8008c70:	6abb      	ldr	r3, [r7, #40]	; 0x28
 8008c72:	801a      	strh	r2, [r3, #0]
      huart->pRxBuffPtr += 2U;
 8008c74:	687b      	ldr	r3, [r7, #4]
 8008c76:	6a9b      	ldr	r3, [r3, #40]	; 0x28
 8008c78:	1c9a      	adds	r2, r3, #2
 8008c7a:	687b      	ldr	r3, [r7, #4]
 8008c7c:	629a      	str	r2, [r3, #40]	; 0x28
 8008c7e:	e026      	b.n	8008cce <UART_Receive_IT+0x9e>
    }
    else
    {
      pdata8bits = (uint8_t *) huart->pRxBuffPtr;
 8008c80:	687b      	ldr	r3, [r7, #4]
 8008c82:	6a9b      	ldr	r3, [r3, #40]	; 0x28
 8008c84:	62fb      	str	r3, [r7, #44]	; 0x2c
      pdata16bits  = NULL;
 8008c86:	2300      	movs	r3, #0
 8008c88:	62bb      	str	r3, [r7, #40]	; 0x28

      if ((huart->Init.WordLength == UART_WORDLENGTH_9B) || ((huart->Init.WordLength == UART_WORDLENGTH_8B) && (huart->Init.Parity == UART_PARITY_NONE)))
 8008c8a:	687b      	ldr	r3, [r7, #4]
 8008c8c:	689b      	ldr	r3, [r3, #8]
 8008c8e:	f5b3 5f80 	cmp.w	r3, #4096	; 0x1000
 8008c92:	d007      	beq.n	8008ca4 <UART_Receive_IT+0x74>
 8008c94:	687b      	ldr	r3, [r7, #4]
 8008c96:	689b      	ldr	r3, [r3, #8]
 8008c98:	2b00      	cmp	r3, #0
 8008c9a:	d10a      	bne.n	8008cb2 <UART_Receive_IT+0x82>
 8008c9c:	687b      	ldr	r3, [r7, #4]
 8008c9e:	691b      	ldr	r3, [r3, #16]
 8008ca0:	2b00      	cmp	r3, #0
 8008ca2:	d106      	bne.n	8008cb2 <UART_Receive_IT+0x82>
      {
        *pdata8bits = (uint8_t)(huart->Instance->DR & (uint8_t)0x00FF);
 8008ca4:	687b      	ldr	r3, [r7, #4]
 8008ca6:	681b      	ldr	r3, [r3, #0]
 8008ca8:	685b      	ldr	r3, [r3, #4]
 8008caa:	b2da      	uxtb	r2, r3
 8008cac:	6afb      	ldr	r3, [r7, #44]	; 0x2c
 8008cae:	701a      	strb	r2, [r3, #0]
 8008cb0:	e008      	b.n	8008cc4 <UART_Receive_IT+0x94>
      }
      else
      {
        *pdata8bits = (uint8_t)(huart->Instance->DR & (uint8_t)0x007F);
 8008cb2:	687b      	ldr	r3, [r7, #4]
 8008cb4:	681b      	ldr	r3, [r3, #0]
 8008cb6:	685b      	ldr	r3, [r3, #4]
 8008cb8:	b2db      	uxtb	r3, r3
 8008cba:	f003 037f 	and.w	r3, r3, #127	; 0x7f
 8008cbe:	b2da      	uxtb	r2, r3
 8008cc0:	6afb      	ldr	r3, [r7, #44]	; 0x2c
 8008cc2:	701a      	strb	r2, [r3, #0]
      }
      huart->pRxBuffPtr += 1U;
 8008cc4:	687b      	ldr	r3, [r7, #4]
 8008cc6:	6a9b      	ldr	r3, [r3, #40]	; 0x28
 8008cc8:	1c5a      	adds	r2, r3, #1
 8008cca:	687b      	ldr	r3, [r7, #4]
 8008ccc:	629a      	str	r2, [r3, #40]	; 0x28
    }

    if (--huart->RxXferCount == 0U)
 8008cce:	687b      	ldr	r3, [r7, #4]
 8008cd0:	8ddb      	ldrh	r3, [r3, #46]	; 0x2e
 8008cd2:	b29b      	uxth	r3, r3
 8008cd4:	3b01      	subs	r3, #1
 8008cd6:	b29b      	uxth	r3, r3
 8008cd8:	687a      	ldr	r2, [r7, #4]
 8008cda:	4619      	mov	r1, r3
 8008cdc:	85d1      	strh	r1, [r2, #46]	; 0x2e
 8008cde:	2b00      	cmp	r3, #0
 8008ce0:	d15d      	bne.n	8008d9e <UART_Receive_IT+0x16e>
    {
      /* Disable the UART Data Register not empty Interrupt */
      __HAL_UART_DISABLE_IT(huart, UART_IT_RXNE);
 8008ce2:	687b      	ldr	r3, [r7, #4]
 8008ce4:	681b      	ldr	r3, [r3, #0]
 8008ce6:	68da      	ldr	r2, [r3, #12]
 8008ce8:	687b      	ldr	r3, [r7, #4]
 8008cea:	681b      	ldr	r3, [r3, #0]
 8008cec:	f022 0220 	bic.w	r2, r2, #32
 8008cf0:	60da      	str	r2, [r3, #12]

      /* Disable the UART Parity Error Interrupt */
      __HAL_UART_DISABLE_IT(huart, UART_IT_PE);
 8008cf2:	687b      	ldr	r3, [r7, #4]
 8008cf4:	681b      	ldr	r3, [r3, #0]
 8008cf6:	68da      	ldr	r2, [r3, #12]
 8008cf8:	687b      	ldr	r3, [r7, #4]
 8008cfa:	681b      	ldr	r3, [r3, #0]
 8008cfc:	f422 7280 	bic.w	r2, r2, #256	; 0x100
 8008d00:	60da      	str	r2, [r3, #12]

      /* Disable the UART Error Interrupt: (Frame error, noise error, overrun error) */
      __HAL_UART_DISABLE_IT(huart, UART_IT_ERR);
 8008d02:	687b      	ldr	r3, [r7, #4]
 8008d04:	681b      	ldr	r3, [r3, #0]
 8008d06:	695a      	ldr	r2, [r3, #20]
 8008d08:	687b      	ldr	r3, [r7, #4]
 8008d0a:	681b      	ldr	r3, [r3, #0]
 8008d0c:	f022 0201 	bic.w	r2, r2, #1
 8008d10:	615a      	str	r2, [r3, #20]

      /* Rx process is completed, restore huart->RxState to Ready */
      huart->RxState = HAL_UART_STATE_READY;
 8008d12:	687b      	ldr	r3, [r7, #4]
 8008d14:	2220      	movs	r2, #32
 8008d16:	f883 2042 	strb.w	r2, [r3, #66]	; 0x42

      /* Initialize type of RxEvent to Transfer Complete */
      huart->RxEventType = HAL_UART_RXEVENT_TC;
 8008d1a:	687b      	ldr	r3, [r7, #4]
 8008d1c:	2200      	movs	r2, #0
 8008d1e:	635a      	str	r2, [r3, #52]	; 0x34

      /* Check current reception Mode :
         If Reception till IDLE event has been selected : */
      if (huart->ReceptionType == HAL_UART_RECEPTION_TOIDLE)
 8008d20:	687b      	ldr	r3, [r7, #4]
 8008d22:	6b1b      	ldr	r3, [r3, #48]	; 0x30
 8008d24:	2b01      	cmp	r3, #1
 8008d26:	d135      	bne.n	8008d94 <UART_Receive_IT+0x164>
      {
        /* Set reception type to Standard */
        huart->ReceptionType = HAL_UART_RECEPTION_STANDARD;
 8008d28:	687b      	ldr	r3, [r7, #4]
 8008d2a:	2200      	movs	r2, #0
 8008d2c:	631a      	str	r2, [r3, #48]	; 0x30

        /* Disable IDLE interrupt */
        ATOMIC_CLEAR_BIT(huart->Instance->CR1, USART_CR1_IDLEIE);
 8008d2e:	687b      	ldr	r3, [r7, #4]
 8008d30:	681b      	ldr	r3, [r3, #0]
 8008d32:	330c      	adds	r3, #12
 8008d34:	617b      	str	r3, [r7, #20]
   __ASM volatile ("ldrex %0, %1" : "=r" (result) : "Q" (*addr) );
 8008d36:	697b      	ldr	r3, [r7, #20]
 8008d38:	e853 3f00 	ldrex	r3, [r3]
 8008d3c:	613b      	str	r3, [r7, #16]
   return(result);
 8008d3e:	693b      	ldr	r3, [r7, #16]
 8008d40:	f023 0310 	bic.w	r3, r3, #16
 8008d44:	627b      	str	r3, [r7, #36]	; 0x24
 8008d46:	687b      	ldr	r3, [r7, #4]
 8008d48:	681b      	ldr	r3, [r3, #0]
 8008d4a:	330c      	adds	r3, #12
 8008d4c:	6a7a      	ldr	r2, [r7, #36]	; 0x24
 8008d4e:	623a      	str	r2, [r7, #32]
 8008d50:	61fb      	str	r3, [r7, #28]
   __ASM volatile ("strex %0, %2, %1" : "=&r" (result), "=Q" (*addr) : "r" (value) );
 8008d52:	69f9      	ldr	r1, [r7, #28]
 8008d54:	6a3a      	ldr	r2, [r7, #32]
 8008d56:	e841 2300 	strex	r3, r2, [r1]
 8008d5a:	61bb      	str	r3, [r7, #24]
   return(result);
 8008d5c:	69bb      	ldr	r3, [r7, #24]
 8008d5e:	2b00      	cmp	r3, #0
 8008d60:	d1e5      	bne.n	8008d2e <UART_Receive_IT+0xfe>

        /* Check if IDLE flag is set */
        if (__HAL_UART_GET_FLAG(huart, UART_FLAG_IDLE))
 8008d62:	687b      	ldr	r3, [r7, #4]
 8008d64:	681b      	ldr	r3, [r3, #0]
 8008d66:	681b      	ldr	r3, [r3, #0]
 8008d68:	f003 0310 	and.w	r3, r3, #16
 8008d6c:	2b10      	cmp	r3, #16
 8008d6e:	d10a      	bne.n	8008d86 <UART_Receive_IT+0x156>
        {
          /* Clear IDLE flag in ISR */
          __HAL_UART_CLEAR_IDLEFLAG(huart);
 8008d70:	2300      	movs	r3, #0
 8008d72:	60fb      	str	r3, [r7, #12]
 8008d74:	687b      	ldr	r3, [r7, #4]
 8008d76:	681b      	ldr	r3, [r3, #0]
 8008d78:	681b      	ldr	r3, [r3, #0]
 8008d7a:	60fb      	str	r3, [r7, #12]
 8008d7c:	687b      	ldr	r3, [r7, #4]
 8008d7e:	681b      	ldr	r3, [r3, #0]
 8008d80:	685b      	ldr	r3, [r3, #4]
 8008d82:	60fb      	str	r3, [r7, #12]
 8008d84:	68fb      	ldr	r3, [r7, #12]
#if (USE_HAL_UART_REGISTER_CALLBACKS == 1)
        /*Call registered Rx Event callback*/
        huart->RxEventCallback(huart, huart->RxXferSize);
#else
        /*Call legacy weak Rx Event callback*/
        HAL_UARTEx_RxEventCallback(huart, huart->RxXferSize);
 8008d86:	687b      	ldr	r3, [r7, #4]
 8008d88:	8d9b      	ldrh	r3, [r3, #44]	; 0x2c
 8008d8a:	4619      	mov	r1, r3
 8008d8c:	6878      	ldr	r0, [r7, #4]
 8008d8e:	f7ff fdd1 	bl	8008934 <HAL_UARTEx_RxEventCallback>
 8008d92:	e002      	b.n	8008d9a <UART_Receive_IT+0x16a>
#if (USE_HAL_UART_REGISTER_CALLBACKS == 1)
        /*Call registered Rx complete callback*/
        huart->RxCpltCallback(huart);
#else
        /*Call legacy weak Rx complete callback*/
        HAL_UART_RxCpltCallback(huart);
 8008d94:	6878      	ldr	r0, [r7, #4]
 8008d96:	f7f9 ffbb 	bl	8002d10 <HAL_UART_RxCpltCallback>
#endif /* USE_HAL_UART_REGISTER_CALLBACKS */
      }

      return HAL_OK;
 8008d9a:	2300      	movs	r3, #0
 8008d9c:	e002      	b.n	8008da4 <UART_Receive_IT+0x174>
    }
    return HAL_OK;
 8008d9e:	2300      	movs	r3, #0
 8008da0:	e000      	b.n	8008da4 <UART_Receive_IT+0x174>
  }
  else
  {
    return HAL_BUSY;
 8008da2:	2302      	movs	r3, #2
  }
}
 8008da4:	4618      	mov	r0, r3
 8008da6:	3730      	adds	r7, #48	; 0x30
 8008da8:	46bd      	mov	sp, r7
 8008daa:	bd80      	pop	{r7, pc}

08008dac <UART_SetConfig>:
  * @param  huart  Pointer to a UART_HandleTypeDef structure that contains
  *                the configuration information for the specified UART module.
  * @retval None
  */
static void UART_SetConfig(UART_HandleTypeDef *huart)
{
 8008dac:	e92d 4fb0 	stmdb	sp!, {r4, r5, r7, r8, r9, sl, fp, lr}
 8008db0:	b0c0      	sub	sp, #256	; 0x100
 8008db2:	af00      	add	r7, sp, #0
 8008db4:	f8c7 00f4 	str.w	r0, [r7, #244]	; 0xf4
  assert_param(IS_UART_MODE(huart->Init.Mode));

  /*-------------------------- USART CR2 Configuration -----------------------*/
  /* Configure the UART Stop Bits: Set STOP[13:12] bits
     according to huart->Init.StopBits value */
  MODIFY_REG(huart->Instance->CR2, USART_CR2_STOP, huart->Init.StopBits);
 8008db8:	f8d7 30f4 	ldr.w	r3, [r7, #244]	; 0xf4
 8008dbc:	681b      	ldr	r3, [r3, #0]
 8008dbe:	691b      	ldr	r3, [r3, #16]
 8008dc0:	f423 5040 	bic.w	r0, r3, #12288	; 0x3000
 8008dc4:	f8d7 30f4 	ldr.w	r3, [r7, #244]	; 0xf4
 8008dc8:	68d9      	ldr	r1, [r3, #12]
 8008dca:	f8d7 30f4 	ldr.w	r3, [r7, #244]	; 0xf4
 8008dce:	681a      	ldr	r2, [r3, #0]
 8008dd0:	ea40 0301 	orr.w	r3, r0, r1
 8008dd4:	6113      	str	r3, [r2, #16]
     Set the M bits according to huart->Init.WordLength value
     Set PCE and PS bits according to huart->Init.Parity value
     Set TE and RE bits according to huart->Init.Mode value
     Set OVER8 bit according to huart->Init.OverSampling value */

  tmpreg = (uint32_t)huart->Init.WordLength | huart->Init.Parity | huart->Init.Mode | huart->Init.OverSampling;
 8008dd6:	f8d7 30f4 	ldr.w	r3, [r7, #244]	; 0xf4
 8008dda:	689a      	ldr	r2, [r3, #8]
 8008ddc:	f8d7 30f4 	ldr.w	r3, [r7, #244]	; 0xf4
 8008de0:	691b      	ldr	r3, [r3, #16]
 8008de2:	431a      	orrs	r2, r3
 8008de4:	f8d7 30f4 	ldr.w	r3, [r7, #244]	; 0xf4
 8008de8:	695b      	ldr	r3, [r3, #20]
 8008dea:	431a      	orrs	r2, r3
 8008dec:	f8d7 30f4 	ldr.w	r3, [r7, #244]	; 0xf4
 8008df0:	69db      	ldr	r3, [r3, #28]
 8008df2:	4313      	orrs	r3, r2
 8008df4:	f8c7 30f8 	str.w	r3, [r7, #248]	; 0xf8
  MODIFY_REG(huart->Instance->CR1,
 8008df8:	f8d7 30f4 	ldr.w	r3, [r7, #244]	; 0xf4
 8008dfc:	681b      	ldr	r3, [r3, #0]
 8008dfe:	68db      	ldr	r3, [r3, #12]
 8008e00:	f423 4116 	bic.w	r1, r3, #38400	; 0x9600
 8008e04:	f021 010c 	bic.w	r1, r1, #12
 8008e08:	f8d7 30f4 	ldr.w	r3, [r7, #244]	; 0xf4
 8008e0c:	681a      	ldr	r2, [r3, #0]
 8008e0e:	f8d7 30f8 	ldr.w	r3, [r7, #248]	; 0xf8
 8008e12:	430b      	orrs	r3, r1
 8008e14:	60d3      	str	r3, [r2, #12]
             (uint32_t)(USART_CR1_M | USART_CR1_PCE | USART_CR1_PS | USART_CR1_TE | USART_CR1_RE | USART_CR1_OVER8),
             tmpreg);

  /*-------------------------- USART CR3 Configuration -----------------------*/
  /* Configure the UART HFC: Set CTSE and RTSE bits according to huart->Init.HwFlowCtl value */
  MODIFY_REG(huart->Instance->CR3, (USART_CR3_RTSE | USART_CR3_CTSE), huart->Init.HwFlowCtl);
 8008e16:	f8d7 30f4 	ldr.w	r3, [r7, #244]	; 0xf4
 8008e1a:	681b      	ldr	r3, [r3, #0]
 8008e1c:	695b      	ldr	r3, [r3, #20]
 8008e1e:	f423 7040 	bic.w	r0, r3, #768	; 0x300
 8008e22:	f8d7 30f4 	ldr.w	r3, [r7, #244]	; 0xf4
 8008e26:	6999      	ldr	r1, [r3, #24]
 8008e28:	f8d7 30f4 	ldr.w	r3, [r7, #244]	; 0xf4
 8008e2c:	681a      	ldr	r2, [r3, #0]
 8008e2e:	ea40 0301 	orr.w	r3, r0, r1
 8008e32:	6153      	str	r3, [r2, #20]
    if ((huart->Instance == USART1) || (huart->Instance == USART6) || (huart->Instance == UART9) || (huart->Instance == UART10))
    {
      pclk = HAL_RCC_GetPCLK2Freq();
    }
#elif defined(USART6)
    if ((huart->Instance == USART1) || (huart->Instance == USART6))
 8008e34:	f8d7 30f4 	ldr.w	r3, [r7, #244]	; 0xf4
 8008e38:	681a      	ldr	r2, [r3, #0]
 8008e3a:	4b8f      	ldr	r3, [pc, #572]	; (8009078 <UART_SetConfig+0x2cc>)
 8008e3c:	429a      	cmp	r2, r3
 8008e3e:	d005      	beq.n	8008e4c <UART_SetConfig+0xa0>
 8008e40:	f8d7 30f4 	ldr.w	r3, [r7, #244]	; 0xf4
 8008e44:	681a      	ldr	r2, [r3, #0]
 8008e46:	4b8d      	ldr	r3, [pc, #564]	; (800907c <UART_SetConfig+0x2d0>)
 8008e48:	429a      	cmp	r2, r3
 8008e4a:	d104      	bne.n	8008e56 <UART_SetConfig+0xaa>
    {
      pclk = HAL_RCC_GetPCLK2Freq();
 8008e4c:	f7fd fab0 	bl	80063b0 <HAL_RCC_GetPCLK2Freq>
 8008e50:	f8c7 00fc 	str.w	r0, [r7, #252]	; 0xfc
 8008e54:	e003      	b.n	8008e5e <UART_SetConfig+0xb2>
      pclk = HAL_RCC_GetPCLK2Freq();
    }
#endif /* USART6 */
    else
    {
      pclk = HAL_RCC_GetPCLK1Freq();
 8008e56:	f7fd fa97 	bl	8006388 <HAL_RCC_GetPCLK1Freq>
 8008e5a:	f8c7 00fc 	str.w	r0, [r7, #252]	; 0xfc
    }
  /*-------------------------- USART BRR Configuration ---------------------*/
  if (huart->Init.OverSampling == UART_OVERSAMPLING_8)
 8008e5e:	f8d7 30f4 	ldr.w	r3, [r7, #244]	; 0xf4
 8008e62:	69db      	ldr	r3, [r3, #28]
 8008e64:	f5b3 4f00 	cmp.w	r3, #32768	; 0x8000
 8008e68:	f040 810c 	bne.w	8009084 <UART_SetConfig+0x2d8>
  {
    huart->Instance->BRR = UART_BRR_SAMPLING8(pclk, huart->Init.BaudRate);
 8008e6c:	f8d7 30fc 	ldr.w	r3, [r7, #252]	; 0xfc
 8008e70:	2200      	movs	r2, #0
 8008e72:	f8c7 30e8 	str.w	r3, [r7, #232]	; 0xe8
 8008e76:	f8c7 20ec 	str.w	r2, [r7, #236]	; 0xec
 8008e7a:	e9d7 453a 	ldrd	r4, r5, [r7, #232]	; 0xe8
 8008e7e:	4622      	mov	r2, r4
 8008e80:	462b      	mov	r3, r5
 8008e82:	1891      	adds	r1, r2, r2
 8008e84:	65b9      	str	r1, [r7, #88]	; 0x58
 8008e86:	415b      	adcs	r3, r3
 8008e88:	65fb      	str	r3, [r7, #92]	; 0x5c
 8008e8a:	e9d7 2316 	ldrd	r2, r3, [r7, #88]	; 0x58
 8008e8e:	4621      	mov	r1, r4
 8008e90:	eb12 0801 	adds.w	r8, r2, r1
 8008e94:	4629      	mov	r1, r5
 8008e96:	eb43 0901 	adc.w	r9, r3, r1
 8008e9a:	f04f 0200 	mov.w	r2, #0
 8008e9e:	f04f 0300 	mov.w	r3, #0
 8008ea2:	ea4f 03c9 	mov.w	r3, r9, lsl #3
 8008ea6:	ea43 7358 	orr.w	r3, r3, r8, lsr #29
 8008eaa:	ea4f 02c8 	mov.w	r2, r8, lsl #3
 8008eae:	4690      	mov	r8, r2
 8008eb0:	4699      	mov	r9, r3
 8008eb2:	4623      	mov	r3, r4
 8008eb4:	eb18 0303 	adds.w	r3, r8, r3
 8008eb8:	f8c7 30e0 	str.w	r3, [r7, #224]	; 0xe0
 8008ebc:	462b      	mov	r3, r5
 8008ebe:	eb49 0303 	adc.w	r3, r9, r3
 8008ec2:	f8c7 30e4 	str.w	r3, [r7, #228]	; 0xe4
 8008ec6:	f8d7 30f4 	ldr.w	r3, [r7, #244]	; 0xf4
 8008eca:	685b      	ldr	r3, [r3, #4]
 8008ecc:	2200      	movs	r2, #0
 8008ece:	f8c7 30d8 	str.w	r3, [r7, #216]	; 0xd8
 8008ed2:	f8c7 20dc 	str.w	r2, [r7, #220]	; 0xdc
 8008ed6:	e9d7 1236 	ldrd	r1, r2, [r7, #216]	; 0xd8
 8008eda:	460b      	mov	r3, r1
 8008edc:	18db      	adds	r3, r3, r3
 8008ede:	653b      	str	r3, [r7, #80]	; 0x50
 8008ee0:	4613      	mov	r3, r2
 8008ee2:	eb42 0303 	adc.w	r3, r2, r3
 8008ee6:	657b      	str	r3, [r7, #84]	; 0x54
 8008ee8:	e9d7 2314 	ldrd	r2, r3, [r7, #80]	; 0x50
 8008eec:	e9d7 0138 	ldrd	r0, r1, [r7, #224]	; 0xe0
 8008ef0:	f7f7 f984 	bl	80001fc <__aeabi_uldivmod>
 8008ef4:	4602      	mov	r2, r0
 8008ef6:	460b      	mov	r3, r1
 8008ef8:	4b61      	ldr	r3, [pc, #388]	; (8009080 <UART_SetConfig+0x2d4>)
 8008efa:	fba3 2302 	umull	r2, r3, r3, r2
 8008efe:	095b      	lsrs	r3, r3, #5
 8008f00:	011c      	lsls	r4, r3, #4
 8008f02:	f8d7 30fc 	ldr.w	r3, [r7, #252]	; 0xfc
 8008f06:	2200      	movs	r2, #0
 8008f08:	f8c7 30d0 	str.w	r3, [r7, #208]	; 0xd0
 8008f0c:	f8c7 20d4 	str.w	r2, [r7, #212]	; 0xd4
 8008f10:	e9d7 8934 	ldrd	r8, r9, [r7, #208]	; 0xd0
 8008f14:	4642      	mov	r2, r8
 8008f16:	464b      	mov	r3, r9
 8008f18:	1891      	adds	r1, r2, r2
 8008f1a:	64b9      	str	r1, [r7, #72]	; 0x48
 8008f1c:	415b      	adcs	r3, r3
 8008f1e:	64fb      	str	r3, [r7, #76]	; 0x4c
 8008f20:	e9d7 2312 	ldrd	r2, r3, [r7, #72]	; 0x48
 8008f24:	4641      	mov	r1, r8
 8008f26:	eb12 0a01 	adds.w	sl, r2, r1
 8008f2a:	4649      	mov	r1, r9
 8008f2c:	eb43 0b01 	adc.w	fp, r3, r1
 8008f30:	f04f 0200 	mov.w	r2, #0
 8008f34:	f04f 0300 	mov.w	r3, #0
 8008f38:	ea4f 03cb 	mov.w	r3, fp, lsl #3
 8008f3c:	ea43 735a 	orr.w	r3, r3, sl, lsr #29
 8008f40:	ea4f 02ca 	mov.w	r2, sl, lsl #3
 8008f44:	4692      	mov	sl, r2
 8008f46:	469b      	mov	fp, r3
 8008f48:	4643      	mov	r3, r8
 8008f4a:	eb1a 0303 	adds.w	r3, sl, r3
 8008f4e:	f8c7 30c8 	str.w	r3, [r7, #200]	; 0xc8
 8008f52:	464b      	mov	r3, r9
 8008f54:	eb4b 0303 	adc.w	r3, fp, r3
 8008f58:	f8c7 30cc 	str.w	r3, [r7, #204]	; 0xcc
 8008f5c:	f8d7 30f4 	ldr.w	r3, [r7, #244]	; 0xf4
 8008f60:	685b      	ldr	r3, [r3, #4]
 8008f62:	2200      	movs	r2, #0
 8008f64:	f8c7 30c0 	str.w	r3, [r7, #192]	; 0xc0
 8008f68:	f8c7 20c4 	str.w	r2, [r7, #196]	; 0xc4
 8008f6c:	e9d7 1230 	ldrd	r1, r2, [r7, #192]	; 0xc0
 8008f70:	460b      	mov	r3, r1
 8008f72:	18db      	adds	r3, r3, r3
 8008f74:	643b      	str	r3, [r7, #64]	; 0x40
 8008f76:	4613      	mov	r3, r2
 8008f78:	eb42 0303 	adc.w	r3, r2, r3
 8008f7c:	647b      	str	r3, [r7, #68]	; 0x44
 8008f7e:	e9d7 2310 	ldrd	r2, r3, [r7, #64]	; 0x40
 8008f82:	e9d7 0132 	ldrd	r0, r1, [r7, #200]	; 0xc8
 8008f86:	f7f7 f939 	bl	80001fc <__aeabi_uldivmod>
 8008f8a:	4602      	mov	r2, r0
 8008f8c:	460b      	mov	r3, r1
 8008f8e:	4611      	mov	r1, r2
 8008f90:	4b3b      	ldr	r3, [pc, #236]	; (8009080 <UART_SetConfig+0x2d4>)
 8008f92:	fba3 2301 	umull	r2, r3, r3, r1
 8008f96:	095b      	lsrs	r3, r3, #5
 8008f98:	2264      	movs	r2, #100	; 0x64
 8008f9a:	fb02 f303 	mul.w	r3, r2, r3
 8008f9e:	1acb      	subs	r3, r1, r3
 8008fa0:	00db      	lsls	r3, r3, #3
 8008fa2:	f103 0232 	add.w	r2, r3, #50	; 0x32
 8008fa6:	4b36      	ldr	r3, [pc, #216]	; (8009080 <UART_SetConfig+0x2d4>)
 8008fa8:	fba3 2302 	umull	r2, r3, r3, r2
 8008fac:	095b      	lsrs	r3, r3, #5
 8008fae:	005b      	lsls	r3, r3, #1
 8008fb0:	f403 73f8 	and.w	r3, r3, #496	; 0x1f0
 8008fb4:	441c      	add	r4, r3
 8008fb6:	f8d7 30fc 	ldr.w	r3, [r7, #252]	; 0xfc
 8008fba:	2200      	movs	r2, #0
 8008fbc:	f8c7 30b8 	str.w	r3, [r7, #184]	; 0xb8
 8008fc0:	f8c7 20bc 	str.w	r2, [r7, #188]	; 0xbc
 8008fc4:	e9d7 892e 	ldrd	r8, r9, [r7, #184]	; 0xb8
 8008fc8:	4642      	mov	r2, r8
 8008fca:	464b      	mov	r3, r9
 8008fcc:	1891      	adds	r1, r2, r2
 8008fce:	63b9      	str	r1, [r7, #56]	; 0x38
 8008fd0:	415b      	adcs	r3, r3
 8008fd2:	63fb      	str	r3, [r7, #60]	; 0x3c
 8008fd4:	e9d7 230e 	ldrd	r2, r3, [r7, #56]	; 0x38
 8008fd8:	4641      	mov	r1, r8
 8008fda:	1851      	adds	r1, r2, r1
 8008fdc:	6339      	str	r1, [r7, #48]	; 0x30
 8008fde:	4649      	mov	r1, r9
 8008fe0:	414b      	adcs	r3, r1
 8008fe2:	637b      	str	r3, [r7, #52]	; 0x34
 8008fe4:	f04f 0200 	mov.w	r2, #0
 8008fe8:	f04f 0300 	mov.w	r3, #0
 8008fec:	e9d7 ab0c 	ldrd	sl, fp, [r7, #48]	; 0x30
 8008ff0:	4659      	mov	r1, fp
 8008ff2:	00cb      	lsls	r3, r1, #3
 8008ff4:	4651      	mov	r1, sl
 8008ff6:	ea43 7351 	orr.w	r3, r3, r1, lsr #29
 8008ffa:	4651      	mov	r1, sl
 8008ffc:	00ca      	lsls	r2, r1, #3
 8008ffe:	4610      	mov	r0, r2
 8009000:	4619      	mov	r1, r3
 8009002:	4603      	mov	r3, r0
 8009004:	4642      	mov	r2, r8
 8009006:	189b      	adds	r3, r3, r2
 8009008:	f8c7 30b0 	str.w	r3, [r7, #176]	; 0xb0
 800900c:	464b      	mov	r3, r9
 800900e:	460a      	mov	r2, r1
 8009010:	eb42 0303 	adc.w	r3, r2, r3
 8009014:	f8c7 30b4 	str.w	r3, [r7, #180]	; 0xb4
 8009018:	f8d7 30f4 	ldr.w	r3, [r7, #244]	; 0xf4
 800901c:	685b      	ldr	r3, [r3, #4]
 800901e:	2200      	movs	r2, #0
 8009020:	f8c7 30a8 	str.w	r3, [r7, #168]	; 0xa8
 8009024:	f8c7 20ac 	str.w	r2, [r7, #172]	; 0xac
 8009028:	e9d7 122a 	ldrd	r1, r2, [r7, #168]	; 0xa8
 800902c:	460b      	mov	r3, r1
 800902e:	18db      	adds	r3, r3, r3
 8009030:	62bb      	str	r3, [r7, #40]	; 0x28
 8009032:	4613      	mov	r3, r2
 8009034:	eb42 0303 	adc.w	r3, r2, r3
 8009038:	62fb      	str	r3, [r7, #44]	; 0x2c
 800903a:	e9d7 230a 	ldrd	r2, r3, [r7, #40]	; 0x28
 800903e:	e9d7 012c 	ldrd	r0, r1, [r7, #176]	; 0xb0
 8009042:	f7f7 f8db 	bl	80001fc <__aeabi_uldivmod>
 8009046:	4602      	mov	r2, r0
 8009048:	460b      	mov	r3, r1
 800904a:	4b0d      	ldr	r3, [pc, #52]	; (8009080 <UART_SetConfig+0x2d4>)
 800904c:	fba3 1302 	umull	r1, r3, r3, r2
 8009050:	095b      	lsrs	r3, r3, #5
 8009052:	2164      	movs	r1, #100	; 0x64
 8009054:	fb01 f303 	mul.w	r3, r1, r3
 8009058:	1ad3      	subs	r3, r2, r3
 800905a:	00db      	lsls	r3, r3, #3
 800905c:	3332      	adds	r3, #50	; 0x32
 800905e:	4a08      	ldr	r2, [pc, #32]	; (8009080 <UART_SetConfig+0x2d4>)
 8009060:	fba2 2303 	umull	r2, r3, r2, r3
 8009064:	095b      	lsrs	r3, r3, #5
 8009066:	f003 0207 	and.w	r2, r3, #7
 800906a:	f8d7 30f4 	ldr.w	r3, [r7, #244]	; 0xf4
 800906e:	681b      	ldr	r3, [r3, #0]
 8009070:	4422      	add	r2, r4
 8009072:	609a      	str	r2, [r3, #8]
  }
  else
  {
    huart->Instance->BRR = UART_BRR_SAMPLING16(pclk, huart->Init.BaudRate);
  }
}
 8009074:	e106      	b.n	8009284 <UART_SetConfig+0x4d8>
 8009076:	bf00      	nop
 8009078:	40011000 	.word	0x40011000
 800907c:	40011400 	.word	0x40011400
 8009080:	51eb851f 	.word	0x51eb851f
    huart->Instance->BRR = UART_BRR_SAMPLING16(pclk, huart->Init.BaudRate);
 8009084:	f8d7 30fc 	ldr.w	r3, [r7, #252]	; 0xfc
 8009088:	2200      	movs	r2, #0
 800908a:	f8c7 30a0 	str.w	r3, [r7, #160]	; 0xa0
 800908e:	f8c7 20a4 	str.w	r2, [r7, #164]	; 0xa4
 8009092:	e9d7 8928 	ldrd	r8, r9, [r7, #160]	; 0xa0
 8009096:	4642      	mov	r2, r8
 8009098:	464b      	mov	r3, r9
 800909a:	1891      	adds	r1, r2, r2
 800909c:	6239      	str	r1, [r7, #32]
 800909e:	415b      	adcs	r3, r3
 80090a0:	627b      	str	r3, [r7, #36]	; 0x24
 80090a2:	e9d7 2308 	ldrd	r2, r3, [r7, #32]
 80090a6:	4641      	mov	r1, r8
 80090a8:	1854      	adds	r4, r2, r1
 80090aa:	4649      	mov	r1, r9
 80090ac:	eb43 0501 	adc.w	r5, r3, r1
 80090b0:	f04f 0200 	mov.w	r2, #0
 80090b4:	f04f 0300 	mov.w	r3, #0
 80090b8:	00eb      	lsls	r3, r5, #3
 80090ba:	ea43 7354 	orr.w	r3, r3, r4, lsr #29
 80090be:	00e2      	lsls	r2, r4, #3
 80090c0:	4614      	mov	r4, r2
 80090c2:	461d      	mov	r5, r3
 80090c4:	4643      	mov	r3, r8
 80090c6:	18e3      	adds	r3, r4, r3
 80090c8:	f8c7 3098 	str.w	r3, [r7, #152]	; 0x98
 80090cc:	464b      	mov	r3, r9
 80090ce:	eb45 0303 	adc.w	r3, r5, r3
 80090d2:	f8c7 309c 	str.w	r3, [r7, #156]	; 0x9c
 80090d6:	f8d7 30f4 	ldr.w	r3, [r7, #244]	; 0xf4
 80090da:	685b      	ldr	r3, [r3, #4]
 80090dc:	2200      	movs	r2, #0
 80090de:	f8c7 3090 	str.w	r3, [r7, #144]	; 0x90
 80090e2:	f8c7 2094 	str.w	r2, [r7, #148]	; 0x94
 80090e6:	f04f 0200 	mov.w	r2, #0
 80090ea:	f04f 0300 	mov.w	r3, #0
 80090ee:	e9d7 4524 	ldrd	r4, r5, [r7, #144]	; 0x90
 80090f2:	4629      	mov	r1, r5
 80090f4:	008b      	lsls	r3, r1, #2
 80090f6:	4621      	mov	r1, r4
 80090f8:	ea43 7391 	orr.w	r3, r3, r1, lsr #30
 80090fc:	4621      	mov	r1, r4
 80090fe:	008a      	lsls	r2, r1, #2
 8009100:	e9d7 0126 	ldrd	r0, r1, [r7, #152]	; 0x98
 8009104:	f7f7 f87a 	bl	80001fc <__aeabi_uldivmod>
 8009108:	4602      	mov	r2, r0
 800910a:	460b      	mov	r3, r1
 800910c:	4b60      	ldr	r3, [pc, #384]	; (8009290 <UART_SetConfig+0x4e4>)
 800910e:	fba3 2302 	umull	r2, r3, r3, r2
 8009112:	095b      	lsrs	r3, r3, #5
 8009114:	011c      	lsls	r4, r3, #4
 8009116:	f8d7 30fc 	ldr.w	r3, [r7, #252]	; 0xfc
 800911a:	2200      	movs	r2, #0
 800911c:	f8c7 3088 	str.w	r3, [r7, #136]	; 0x88
 8009120:	f8c7 208c 	str.w	r2, [r7, #140]	; 0x8c
 8009124:	e9d7 8922 	ldrd	r8, r9, [r7, #136]	; 0x88
 8009128:	4642      	mov	r2, r8
 800912a:	464b      	mov	r3, r9
 800912c:	1891      	adds	r1, r2, r2
 800912e:	61b9      	str	r1, [r7, #24]
 8009130:	415b      	adcs	r3, r3
 8009132:	61fb      	str	r3, [r7, #28]
 8009134:	e9d7 2306 	ldrd	r2, r3, [r7, #24]
 8009138:	4641      	mov	r1, r8
 800913a:	1851      	adds	r1, r2, r1
 800913c:	6139      	str	r1, [r7, #16]
 800913e:	4649      	mov	r1, r9
 8009140:	414b      	adcs	r3, r1
 8009142:	617b      	str	r3, [r7, #20]
 8009144:	f04f 0200 	mov.w	r2, #0
 8009148:	f04f 0300 	mov.w	r3, #0
 800914c:	e9d7 ab04 	ldrd	sl, fp, [r7, #16]
 8009150:	4659      	mov	r1, fp
 8009152:	00cb      	lsls	r3, r1, #3
 8009154:	4651      	mov	r1, sl
 8009156:	ea43 7351 	orr.w	r3, r3, r1, lsr #29
 800915a:	4651      	mov	r1, sl
 800915c:	00ca      	lsls	r2, r1, #3
 800915e:	4610      	mov	r0, r2
 8009160:	4619      	mov	r1, r3
 8009162:	4603      	mov	r3, r0
 8009164:	4642      	mov	r2, r8
 8009166:	189b      	adds	r3, r3, r2
 8009168:	f8c7 3080 	str.w	r3, [r7, #128]	; 0x80
 800916c:	464b      	mov	r3, r9
 800916e:	460a      	mov	r2, r1
 8009170:	eb42 0303 	adc.w	r3, r2, r3
 8009174:	f8c7 3084 	str.w	r3, [r7, #132]	; 0x84
 8009178:	f8d7 30f4 	ldr.w	r3, [r7, #244]	; 0xf4
 800917c:	685b      	ldr	r3, [r3, #4]
 800917e:	2200      	movs	r2, #0
 8009180:	67bb      	str	r3, [r7, #120]	; 0x78
 8009182:	67fa      	str	r2, [r7, #124]	; 0x7c
 8009184:	f04f 0200 	mov.w	r2, #0
 8009188:	f04f 0300 	mov.w	r3, #0
 800918c:	e9d7 891e 	ldrd	r8, r9, [r7, #120]	; 0x78
 8009190:	4649      	mov	r1, r9
 8009192:	008b      	lsls	r3, r1, #2
 8009194:	4641      	mov	r1, r8
 8009196:	ea43 7391 	orr.w	r3, r3, r1, lsr #30
 800919a:	4641      	mov	r1, r8
 800919c:	008a      	lsls	r2, r1, #2
 800919e:	e9d7 0120 	ldrd	r0, r1, [r7, #128]	; 0x80
 80091a2:	f7f7 f82b 	bl	80001fc <__aeabi_uldivmod>
 80091a6:	4602      	mov	r2, r0
 80091a8:	460b      	mov	r3, r1
 80091aa:	4611      	mov	r1, r2
 80091ac:	4b38      	ldr	r3, [pc, #224]	; (8009290 <UART_SetConfig+0x4e4>)
 80091ae:	fba3 2301 	umull	r2, r3, r3, r1
 80091b2:	095b      	lsrs	r3, r3, #5
 80091b4:	2264      	movs	r2, #100	; 0x64
 80091b6:	fb02 f303 	mul.w	r3, r2, r3
 80091ba:	1acb      	subs	r3, r1, r3
 80091bc:	011b      	lsls	r3, r3, #4
 80091be:	3332      	adds	r3, #50	; 0x32
 80091c0:	4a33      	ldr	r2, [pc, #204]	; (8009290 <UART_SetConfig+0x4e4>)
 80091c2:	fba2 2303 	umull	r2, r3, r2, r3
 80091c6:	095b      	lsrs	r3, r3, #5
 80091c8:	f003 03f0 	and.w	r3, r3, #240	; 0xf0
 80091cc:	441c      	add	r4, r3
 80091ce:	f8d7 30fc 	ldr.w	r3, [r7, #252]	; 0xfc
 80091d2:	2200      	movs	r2, #0
 80091d4:	673b      	str	r3, [r7, #112]	; 0x70
 80091d6:	677a      	str	r2, [r7, #116]	; 0x74
 80091d8:	e9d7 891c 	ldrd	r8, r9, [r7, #112]	; 0x70
 80091dc:	4642      	mov	r2, r8
 80091de:	464b      	mov	r3, r9
 80091e0:	1891      	adds	r1, r2, r2
 80091e2:	60b9      	str	r1, [r7, #8]
 80091e4:	415b      	adcs	r3, r3
 80091e6:	60fb      	str	r3, [r7, #12]
 80091e8:	e9d7 2302 	ldrd	r2, r3, [r7, #8]
 80091ec:	4641      	mov	r1, r8
 80091ee:	1851      	adds	r1, r2, r1
 80091f0:	6039      	str	r1, [r7, #0]
 80091f2:	4649      	mov	r1, r9
 80091f4:	414b      	adcs	r3, r1
 80091f6:	607b      	str	r3, [r7, #4]
 80091f8:	f04f 0200 	mov.w	r2, #0
 80091fc:	f04f 0300 	mov.w	r3, #0
 8009200:	e9d7 ab00 	ldrd	sl, fp, [r7]
 8009204:	4659      	mov	r1, fp
 8009206:	00cb      	lsls	r3, r1, #3
 8009208:	4651      	mov	r1, sl
 800920a:	ea43 7351 	orr.w	r3, r3, r1, lsr #29
 800920e:	4651      	mov	r1, sl
 8009210:	00ca      	lsls	r2, r1, #3
 8009212:	4610      	mov	r0, r2
 8009214:	4619      	mov	r1, r3
 8009216:	4603      	mov	r3, r0
 8009218:	4642      	mov	r2, r8
 800921a:	189b      	adds	r3, r3, r2
 800921c:	66bb      	str	r3, [r7, #104]	; 0x68
 800921e:	464b      	mov	r3, r9
 8009220:	460a      	mov	r2, r1
 8009222:	eb42 0303 	adc.w	r3, r2, r3
 8009226:	66fb      	str	r3, [r7, #108]	; 0x6c
 8009228:	f8d7 30f4 	ldr.w	r3, [r7, #244]	; 0xf4
 800922c:	685b      	ldr	r3, [r3, #4]
 800922e:	2200      	movs	r2, #0
 8009230:	663b      	str	r3, [r7, #96]	; 0x60
 8009232:	667a      	str	r2, [r7, #100]	; 0x64
 8009234:	f04f 0200 	mov.w	r2, #0
 8009238:	f04f 0300 	mov.w	r3, #0
 800923c:	e9d7 8918 	ldrd	r8, r9, [r7, #96]	; 0x60
 8009240:	4649      	mov	r1, r9
 8009242:	008b      	lsls	r3, r1, #2
 8009244:	4641      	mov	r1, r8
 8009246:	ea43 7391 	orr.w	r3, r3, r1, lsr #30
 800924a:	4641      	mov	r1, r8
 800924c:	008a      	lsls	r2, r1, #2
 800924e:	e9d7 011a 	ldrd	r0, r1, [r7, #104]	; 0x68
 8009252:	f7f6 ffd3 	bl	80001fc <__aeabi_uldivmod>
 8009256:	4602      	mov	r2, r0
 8009258:	460b      	mov	r3, r1
 800925a:	4b0d      	ldr	r3, [pc, #52]	; (8009290 <UART_SetConfig+0x4e4>)
 800925c:	fba3 1302 	umull	r1, r3, r3, r2
 8009260:	095b      	lsrs	r3, r3, #5
 8009262:	2164      	movs	r1, #100	; 0x64
 8009264:	fb01 f303 	mul.w	r3, r1, r3
 8009268:	1ad3      	subs	r3, r2, r3
 800926a:	011b      	lsls	r3, r3, #4
 800926c:	3332      	adds	r3, #50	; 0x32
 800926e:	4a08      	ldr	r2, [pc, #32]	; (8009290 <UART_SetConfig+0x4e4>)
 8009270:	fba2 2303 	umull	r2, r3, r2, r3
 8009274:	095b      	lsrs	r3, r3, #5
 8009276:	f003 020f 	and.w	r2, r3, #15
 800927a:	f8d7 30f4 	ldr.w	r3, [r7, #244]	; 0xf4
 800927e:	681b      	ldr	r3, [r3, #0]
 8009280:	4422      	add	r2, r4
 8009282:	609a      	str	r2, [r3, #8]
}
 8009284:	bf00      	nop
 8009286:	f507 7780 	add.w	r7, r7, #256	; 0x100
 800928a:	46bd      	mov	sp, r7
 800928c:	e8bd 8fb0 	ldmia.w	sp!, {r4, r5, r7, r8, r9, sl, fp, pc}
 8009290:	51eb851f 	.word	0x51eb851f

08009294 <memset>:
 8009294:	4402      	add	r2, r0
 8009296:	4603      	mov	r3, r0
 8009298:	4293      	cmp	r3, r2
 800929a:	d100      	bne.n	800929e <memset+0xa>
 800929c:	4770      	bx	lr
 800929e:	f803 1b01 	strb.w	r1, [r3], #1
 80092a2:	e7f9      	b.n	8009298 <memset+0x4>

080092a4 <__libc_init_array>:
 80092a4:	b570      	push	{r4, r5, r6, lr}
 80092a6:	4d0d      	ldr	r5, [pc, #52]	; (80092dc <__libc_init_array+0x38>)
 80092a8:	4c0d      	ldr	r4, [pc, #52]	; (80092e0 <__libc_init_array+0x3c>)
 80092aa:	1b64      	subs	r4, r4, r5
 80092ac:	10a4      	asrs	r4, r4, #2
 80092ae:	2600      	movs	r6, #0
 80092b0:	42a6      	cmp	r6, r4
 80092b2:	d109      	bne.n	80092c8 <__libc_init_array+0x24>
 80092b4:	4d0b      	ldr	r5, [pc, #44]	; (80092e4 <__libc_init_array+0x40>)
 80092b6:	4c0c      	ldr	r4, [pc, #48]	; (80092e8 <__libc_init_array+0x44>)
 80092b8:	f000 f818 	bl	80092ec <_init>
 80092bc:	1b64      	subs	r4, r4, r5
 80092be:	10a4      	asrs	r4, r4, #2
 80092c0:	2600      	movs	r6, #0
 80092c2:	42a6      	cmp	r6, r4
 80092c4:	d105      	bne.n	80092d2 <__libc_init_array+0x2e>
 80092c6:	bd70      	pop	{r4, r5, r6, pc}
 80092c8:	f855 3b04 	ldr.w	r3, [r5], #4
 80092cc:	4798      	blx	r3
 80092ce:	3601      	adds	r6, #1
 80092d0:	e7ee      	b.n	80092b0 <__libc_init_array+0xc>
 80092d2:	f855 3b04 	ldr.w	r3, [r5], #4
 80092d6:	4798      	blx	r3
 80092d8:	3601      	adds	r6, #1
 80092da:	e7f2      	b.n	80092c2 <__libc_init_array+0x1e>
 80092dc:	080093c4 	.word	0x080093c4
 80092e0:	080093c4 	.word	0x080093c4
 80092e4:	080093c4 	.word	0x080093c4
 80092e8:	080093c8 	.word	0x080093c8

080092ec <_init>:
 80092ec:	b5f8      	push	{r3, r4, r5, r6, r7, lr}
 80092ee:	bf00      	nop
 80092f0:	bcf8      	pop	{r3, r4, r5, r6, r7}
 80092f2:	bc08      	pop	{r3}
 80092f4:	469e      	mov	lr, r3
 80092f6:	4770      	bx	lr

080092f8 <_fini>:
 80092f8:	b5f8      	push	{r3, r4, r5, r6, r7, lr}
 80092fa:	bf00      	nop
 80092fc:	bcf8      	pop	{r3, r4, r5, r6, r7}
 80092fe:	bc08      	pop	{r3}
 8009300:	469e      	mov	lr, r3
 8009302:	4770      	bx	lr
