
AuroraV_Payload_F439.elf:     file format elf32-littlearm

Sections:
Idx Name          Size      VMA       LMA       File off  Algn
  0 .isr_vector   000001ac  08000000  08000000  00010000  2**0
                  CONTENTS, ALLOC, LOAD, READONLY, DATA
  1 .text         00009140  080001ac  080001ac  000101ac  2**2
                  CONTENTS, ALLOC, LOAD, READONLY, CODE
  2 .rodata       000000b8  080092ec  080092ec  000192ec  2**2
                  CONTENTS, ALLOC, LOAD, READONLY, DATA
  3 .ARM.extab    00000000  080093a4  080093a4  00020028  2**0
                  CONTENTS
  4 .ARM          00000008  080093a4  080093a4  000193a4  2**2
                  CONTENTS, ALLOC, LOAD, READONLY, DATA
  5 .preinit_array 00000000  080093ac  080093ac  00020028  2**0
                  CONTENTS, ALLOC, LOAD, DATA
  6 .init_array   00000004  080093ac  080093ac  000193ac  2**2
                  CONTENTS, ALLOC, LOAD, DATA
  7 .fini_array   00000004  080093b0  080093b0  000193b0  2**2
                  CONTENTS, ALLOC, LOAD, DATA
  8 .data         00000028  20000000  080093b4  00020000  2**2
                  CONTENTS, ALLOC, LOAD, DATA
  9 .ccmram       00000000  10000000  10000000  00020028  2**0
                  CONTENTS
 10 .bss          00000608  20000028  20000028  00020028  2**2
                  ALLOC
 11 ._user_heap_stack 00000600  20000630  20000630  00020028  2**0
                  ALLOC
 12 .ARM.attributes 00000030  00000000  00000000  00020028  2**0
                  CONTENTS, READONLY
 13 .comment      00000043  00000000  00000000  00020058  2**0
                  CONTENTS, READONLY
 14 .debug_info   0001cccd  00000000  00000000  0002009b  2**0
                  CONTENTS, READONLY, DEBUGGING, OCTETS
 15 .debug_abbrev 00003ef1  00000000  00000000  0003cd68  2**0
                  CONTENTS, READONLY, DEBUGGING, OCTETS
 16 .debug_aranges 000016f0  00000000  00000000  00040c60  2**3
                  CONTENTS, READONLY, DEBUGGING, OCTETS
 17 .debug_rnglists 000011d6  00000000  00000000  00042350  2**0
                  CONTENTS, READONLY, DEBUGGING, OCTETS
 18 .debug_macro  00027dd7  00000000  00000000  00043526  2**0
                  CONTENTS, READONLY, DEBUGGING, OCTETS
 19 .debug_line   0001d986  00000000  00000000  0006b2fd  2**0
                  CONTENTS, READONLY, DEBUGGING, OCTETS
 20 .debug_str    000e9eab  00000000  00000000  00088c83  2**0
                  CONTENTS, READONLY, DEBUGGING, OCTETS
 21 .debug_frame  00005fb4  00000000  00000000  00172b30  2**2
                  CONTENTS, READONLY, DEBUGGING, OCTETS
 22 .debug_line_str 00000060  00000000  00000000  00178ae4  2**0
                  CONTENTS, READONLY, DEBUGGING, OCTETS

Disassembly of section .text:

080001ac <__do_global_dtors_aux>:
 80001ac:	b510      	push	{r4, lr}
 80001ae:	4c05      	ldr	r4, [pc, #20]	; (80001c4 <__do_global_dtors_aux+0x18>)
 80001b0:	7823      	ldrb	r3, [r4, #0]
 80001b2:	b933      	cbnz	r3, 80001c2 <__do_global_dtors_aux+0x16>
 80001b4:	4b04      	ldr	r3, [pc, #16]	; (80001c8 <__do_global_dtors_aux+0x1c>)
 80001b6:	b113      	cbz	r3, 80001be <__do_global_dtors_aux+0x12>
 80001b8:	4804      	ldr	r0, [pc, #16]	; (80001cc <__do_global_dtors_aux+0x20>)
 80001ba:	f3af 8000 	nop.w
 80001be:	2301      	movs	r3, #1
 80001c0:	7023      	strb	r3, [r4, #0]
 80001c2:	bd10      	pop	{r4, pc}
 80001c4:	20000028 	.word	0x20000028
 80001c8:	00000000 	.word	0x00000000
 80001cc:	080092d4 	.word	0x080092d4

080001d0 <frame_dummy>:
 80001d0:	b508      	push	{r3, lr}
 80001d2:	4b03      	ldr	r3, [pc, #12]	; (80001e0 <frame_dummy+0x10>)
 80001d4:	b11b      	cbz	r3, 80001de <frame_dummy+0xe>
 80001d6:	4903      	ldr	r1, [pc, #12]	; (80001e4 <frame_dummy+0x14>)
 80001d8:	4803      	ldr	r0, [pc, #12]	; (80001e8 <frame_dummy+0x18>)
 80001da:	f3af 8000 	nop.w
 80001de:	bd08      	pop	{r3, pc}
 80001e0:	00000000 	.word	0x00000000
 80001e4:	2000002c 	.word	0x2000002c
 80001e8:	080092d4 	.word	0x080092d4

080001ec <strlen>:
 80001ec:	4603      	mov	r3, r0
 80001ee:	f813 2b01 	ldrb.w	r2, [r3], #1
 80001f2:	2a00      	cmp	r2, #0
 80001f4:	d1fb      	bne.n	80001ee <strlen+0x2>
 80001f6:	1a18      	subs	r0, r3, r0
 80001f8:	3801      	subs	r0, #1
 80001fa:	4770      	bx	lr

080001fc <__aeabi_uldivmod>:
 80001fc:	b953      	cbnz	r3, 8000214 <__aeabi_uldivmod+0x18>
 80001fe:	b94a      	cbnz	r2, 8000214 <__aeabi_uldivmod+0x18>
 8000200:	2900      	cmp	r1, #0
 8000202:	bf08      	it	eq
 8000204:	2800      	cmpeq	r0, #0
 8000206:	bf1c      	itt	ne
 8000208:	f04f 31ff 	movne.w	r1, #4294967295	; 0xffffffff
 800020c:	f04f 30ff 	movne.w	r0, #4294967295	; 0xffffffff
 8000210:	f000 b970 	b.w	80004f4 <__aeabi_idiv0>
 8000214:	f1ad 0c08 	sub.w	ip, sp, #8
 8000218:	e96d ce04 	strd	ip, lr, [sp, #-16]!
 800021c:	f000 f806 	bl	800022c <__udivmoddi4>
 8000220:	f8dd e004 	ldr.w	lr, [sp, #4]
 8000224:	e9dd 2302 	ldrd	r2, r3, [sp, #8]
 8000228:	b004      	add	sp, #16
 800022a:	4770      	bx	lr

0800022c <__udivmoddi4>:
 800022c:	e92d 47f0 	stmdb	sp!, {r4, r5, r6, r7, r8, r9, sl, lr}
 8000230:	9e08      	ldr	r6, [sp, #32]
 8000232:	460d      	mov	r5, r1
 8000234:	4604      	mov	r4, r0
 8000236:	460f      	mov	r7, r1
 8000238:	2b00      	cmp	r3, #0
 800023a:	d14a      	bne.n	80002d2 <__udivmoddi4+0xa6>
 800023c:	428a      	cmp	r2, r1
 800023e:	4694      	mov	ip, r2
 8000240:	d965      	bls.n	800030e <__udivmoddi4+0xe2>
 8000242:	fab2 f382 	clz	r3, r2
 8000246:	b143      	cbz	r3, 800025a <__udivmoddi4+0x2e>
 8000248:	fa02 fc03 	lsl.w	ip, r2, r3
 800024c:	f1c3 0220 	rsb	r2, r3, #32
 8000250:	409f      	lsls	r7, r3
 8000252:	fa20 f202 	lsr.w	r2, r0, r2
 8000256:	4317      	orrs	r7, r2
 8000258:	409c      	lsls	r4, r3
 800025a:	ea4f 4e1c 	mov.w	lr, ip, lsr #16
 800025e:	fa1f f58c 	uxth.w	r5, ip
 8000262:	fbb7 f1fe 	udiv	r1, r7, lr
 8000266:	0c22      	lsrs	r2, r4, #16
 8000268:	fb0e 7711 	mls	r7, lr, r1, r7
 800026c:	ea42 4207 	orr.w	r2, r2, r7, lsl #16
 8000270:	fb01 f005 	mul.w	r0, r1, r5
 8000274:	4290      	cmp	r0, r2
 8000276:	d90a      	bls.n	800028e <__udivmoddi4+0x62>
 8000278:	eb1c 0202 	adds.w	r2, ip, r2
 800027c:	f101 37ff 	add.w	r7, r1, #4294967295	; 0xffffffff
 8000280:	f080 811c 	bcs.w	80004bc <__udivmoddi4+0x290>
 8000284:	4290      	cmp	r0, r2
 8000286:	f240 8119 	bls.w	80004bc <__udivmoddi4+0x290>
 800028a:	3902      	subs	r1, #2
 800028c:	4462      	add	r2, ip
 800028e:	1a12      	subs	r2, r2, r0
 8000290:	b2a4      	uxth	r4, r4
 8000292:	fbb2 f0fe 	udiv	r0, r2, lr
 8000296:	fb0e 2210 	mls	r2, lr, r0, r2
 800029a:	ea44 4402 	orr.w	r4, r4, r2, lsl #16
 800029e:	fb00 f505 	mul.w	r5, r0, r5
 80002a2:	42a5      	cmp	r5, r4
 80002a4:	d90a      	bls.n	80002bc <__udivmoddi4+0x90>
 80002a6:	eb1c 0404 	adds.w	r4, ip, r4
 80002aa:	f100 32ff 	add.w	r2, r0, #4294967295	; 0xffffffff
 80002ae:	f080 8107 	bcs.w	80004c0 <__udivmoddi4+0x294>
 80002b2:	42a5      	cmp	r5, r4
 80002b4:	f240 8104 	bls.w	80004c0 <__udivmoddi4+0x294>
 80002b8:	4464      	add	r4, ip
 80002ba:	3802      	subs	r0, #2
 80002bc:	ea40 4001 	orr.w	r0, r0, r1, lsl #16
 80002c0:	1b64      	subs	r4, r4, r5
 80002c2:	2100      	movs	r1, #0
 80002c4:	b11e      	cbz	r6, 80002ce <__udivmoddi4+0xa2>
 80002c6:	40dc      	lsrs	r4, r3
 80002c8:	2300      	movs	r3, #0
 80002ca:	e9c6 4300 	strd	r4, r3, [r6]
 80002ce:	e8bd 87f0 	ldmia.w	sp!, {r4, r5, r6, r7, r8, r9, sl, pc}
 80002d2:	428b      	cmp	r3, r1
 80002d4:	d908      	bls.n	80002e8 <__udivmoddi4+0xbc>
 80002d6:	2e00      	cmp	r6, #0
 80002d8:	f000 80ed 	beq.w	80004b6 <__udivmoddi4+0x28a>
 80002dc:	2100      	movs	r1, #0
 80002de:	e9c6 0500 	strd	r0, r5, [r6]
 80002e2:	4608      	mov	r0, r1
 80002e4:	e8bd 87f0 	ldmia.w	sp!, {r4, r5, r6, r7, r8, r9, sl, pc}
 80002e8:	fab3 f183 	clz	r1, r3
 80002ec:	2900      	cmp	r1, #0
 80002ee:	d149      	bne.n	8000384 <__udivmoddi4+0x158>
 80002f0:	42ab      	cmp	r3, r5
 80002f2:	d302      	bcc.n	80002fa <__udivmoddi4+0xce>
 80002f4:	4282      	cmp	r2, r0
 80002f6:	f200 80f8 	bhi.w	80004ea <__udivmoddi4+0x2be>
 80002fa:	1a84      	subs	r4, r0, r2
 80002fc:	eb65 0203 	sbc.w	r2, r5, r3
 8000300:	2001      	movs	r0, #1
 8000302:	4617      	mov	r7, r2
 8000304:	2e00      	cmp	r6, #0
 8000306:	d0e2      	beq.n	80002ce <__udivmoddi4+0xa2>
 8000308:	e9c6 4700 	strd	r4, r7, [r6]
 800030c:	e7df      	b.n	80002ce <__udivmoddi4+0xa2>
 800030e:	b902      	cbnz	r2, 8000312 <__udivmoddi4+0xe6>
 8000310:	deff      	udf	#255	; 0xff
 8000312:	fab2 f382 	clz	r3, r2
 8000316:	2b00      	cmp	r3, #0
 8000318:	f040 8090 	bne.w	800043c <__udivmoddi4+0x210>
 800031c:	1a8a      	subs	r2, r1, r2
 800031e:	ea4f 471c 	mov.w	r7, ip, lsr #16
 8000322:	fa1f fe8c 	uxth.w	lr, ip
 8000326:	2101      	movs	r1, #1
 8000328:	fbb2 f5f7 	udiv	r5, r2, r7
 800032c:	fb07 2015 	mls	r0, r7, r5, r2
 8000330:	0c22      	lsrs	r2, r4, #16
 8000332:	ea42 4200 	orr.w	r2, r2, r0, lsl #16
 8000336:	fb0e f005 	mul.w	r0, lr, r5
 800033a:	4290      	cmp	r0, r2
 800033c:	d908      	bls.n	8000350 <__udivmoddi4+0x124>
 800033e:	eb1c 0202 	adds.w	r2, ip, r2
 8000342:	f105 38ff 	add.w	r8, r5, #4294967295	; 0xffffffff
 8000346:	d202      	bcs.n	800034e <__udivmoddi4+0x122>
 8000348:	4290      	cmp	r0, r2
 800034a:	f200 80cb 	bhi.w	80004e4 <__udivmoddi4+0x2b8>
 800034e:	4645      	mov	r5, r8
 8000350:	1a12      	subs	r2, r2, r0
 8000352:	b2a4      	uxth	r4, r4
 8000354:	fbb2 f0f7 	udiv	r0, r2, r7
 8000358:	fb07 2210 	mls	r2, r7, r0, r2
 800035c:	ea44 4402 	orr.w	r4, r4, r2, lsl #16
 8000360:	fb0e fe00 	mul.w	lr, lr, r0
 8000364:	45a6      	cmp	lr, r4
 8000366:	d908      	bls.n	800037a <__udivmoddi4+0x14e>
 8000368:	eb1c 0404 	adds.w	r4, ip, r4
 800036c:	f100 32ff 	add.w	r2, r0, #4294967295	; 0xffffffff
 8000370:	d202      	bcs.n	8000378 <__udivmoddi4+0x14c>
 8000372:	45a6      	cmp	lr, r4
 8000374:	f200 80bb 	bhi.w	80004ee <__udivmoddi4+0x2c2>
 8000378:	4610      	mov	r0, r2
 800037a:	eba4 040e 	sub.w	r4, r4, lr
 800037e:	ea40 4005 	orr.w	r0, r0, r5, lsl #16
 8000382:	e79f      	b.n	80002c4 <__udivmoddi4+0x98>
 8000384:	f1c1 0720 	rsb	r7, r1, #32
 8000388:	408b      	lsls	r3, r1
 800038a:	fa22 fc07 	lsr.w	ip, r2, r7
 800038e:	ea4c 0c03 	orr.w	ip, ip, r3
 8000392:	fa05 f401 	lsl.w	r4, r5, r1
 8000396:	fa20 f307 	lsr.w	r3, r0, r7
 800039a:	40fd      	lsrs	r5, r7
 800039c:	ea4f 491c 	mov.w	r9, ip, lsr #16
 80003a0:	4323      	orrs	r3, r4
 80003a2:	fbb5 f8f9 	udiv	r8, r5, r9
 80003a6:	fa1f fe8c 	uxth.w	lr, ip
 80003aa:	fb09 5518 	mls	r5, r9, r8, r5
 80003ae:	0c1c      	lsrs	r4, r3, #16
 80003b0:	ea44 4405 	orr.w	r4, r4, r5, lsl #16
 80003b4:	fb08 f50e 	mul.w	r5, r8, lr
 80003b8:	42a5      	cmp	r5, r4
 80003ba:	fa02 f201 	lsl.w	r2, r2, r1
 80003be:	fa00 f001 	lsl.w	r0, r0, r1
 80003c2:	d90b      	bls.n	80003dc <__udivmoddi4+0x1b0>
 80003c4:	eb1c 0404 	adds.w	r4, ip, r4
 80003c8:	f108 3aff 	add.w	sl, r8, #4294967295	; 0xffffffff
 80003cc:	f080 8088 	bcs.w	80004e0 <__udivmoddi4+0x2b4>
 80003d0:	42a5      	cmp	r5, r4
 80003d2:	f240 8085 	bls.w	80004e0 <__udivmoddi4+0x2b4>
 80003d6:	f1a8 0802 	sub.w	r8, r8, #2
 80003da:	4464      	add	r4, ip
 80003dc:	1b64      	subs	r4, r4, r5
 80003de:	b29d      	uxth	r5, r3
 80003e0:	fbb4 f3f9 	udiv	r3, r4, r9
 80003e4:	fb09 4413 	mls	r4, r9, r3, r4
 80003e8:	ea45 4404 	orr.w	r4, r5, r4, lsl #16
 80003ec:	fb03 fe0e 	mul.w	lr, r3, lr
 80003f0:	45a6      	cmp	lr, r4
 80003f2:	d908      	bls.n	8000406 <__udivmoddi4+0x1da>
 80003f4:	eb1c 0404 	adds.w	r4, ip, r4
 80003f8:	f103 35ff 	add.w	r5, r3, #4294967295	; 0xffffffff
 80003fc:	d26c      	bcs.n	80004d8 <__udivmoddi4+0x2ac>
 80003fe:	45a6      	cmp	lr, r4
 8000400:	d96a      	bls.n	80004d8 <__udivmoddi4+0x2ac>
 8000402:	3b02      	subs	r3, #2
 8000404:	4464      	add	r4, ip
 8000406:	ea43 4308 	orr.w	r3, r3, r8, lsl #16
 800040a:	fba3 9502 	umull	r9, r5, r3, r2
 800040e:	eba4 040e 	sub.w	r4, r4, lr
 8000412:	42ac      	cmp	r4, r5
 8000414:	46c8      	mov	r8, r9
 8000416:	46ae      	mov	lr, r5
 8000418:	d356      	bcc.n	80004c8 <__udivmoddi4+0x29c>
 800041a:	d053      	beq.n	80004c4 <__udivmoddi4+0x298>
 800041c:	b156      	cbz	r6, 8000434 <__udivmoddi4+0x208>
 800041e:	ebb0 0208 	subs.w	r2, r0, r8
 8000422:	eb64 040e 	sbc.w	r4, r4, lr
 8000426:	fa04 f707 	lsl.w	r7, r4, r7
 800042a:	40ca      	lsrs	r2, r1
 800042c:	40cc      	lsrs	r4, r1
 800042e:	4317      	orrs	r7, r2
 8000430:	e9c6 7400 	strd	r7, r4, [r6]
 8000434:	4618      	mov	r0, r3
 8000436:	2100      	movs	r1, #0
 8000438:	e8bd 87f0 	ldmia.w	sp!, {r4, r5, r6, r7, r8, r9, sl, pc}
 800043c:	f1c3 0120 	rsb	r1, r3, #32
 8000440:	fa02 fc03 	lsl.w	ip, r2, r3
 8000444:	fa20 f201 	lsr.w	r2, r0, r1
 8000448:	fa25 f101 	lsr.w	r1, r5, r1
 800044c:	409d      	lsls	r5, r3
 800044e:	432a      	orrs	r2, r5
 8000450:	ea4f 471c 	mov.w	r7, ip, lsr #16
 8000454:	fa1f fe8c 	uxth.w	lr, ip
 8000458:	fbb1 f0f7 	udiv	r0, r1, r7
 800045c:	fb07 1510 	mls	r5, r7, r0, r1
 8000460:	0c11      	lsrs	r1, r2, #16
 8000462:	ea41 4105 	orr.w	r1, r1, r5, lsl #16
 8000466:	fb00 f50e 	mul.w	r5, r0, lr
 800046a:	428d      	cmp	r5, r1
 800046c:	fa04 f403 	lsl.w	r4, r4, r3
 8000470:	d908      	bls.n	8000484 <__udivmoddi4+0x258>
 8000472:	eb1c 0101 	adds.w	r1, ip, r1
 8000476:	f100 38ff 	add.w	r8, r0, #4294967295	; 0xffffffff
 800047a:	d22f      	bcs.n	80004dc <__udivmoddi4+0x2b0>
 800047c:	428d      	cmp	r5, r1
 800047e:	d92d      	bls.n	80004dc <__udivmoddi4+0x2b0>
 8000480:	3802      	subs	r0, #2
 8000482:	4461      	add	r1, ip
 8000484:	1b49      	subs	r1, r1, r5
 8000486:	b292      	uxth	r2, r2
 8000488:	fbb1 f5f7 	udiv	r5, r1, r7
 800048c:	fb07 1115 	mls	r1, r7, r5, r1
 8000490:	ea42 4201 	orr.w	r2, r2, r1, lsl #16
 8000494:	fb05 f10e 	mul.w	r1, r5, lr
 8000498:	4291      	cmp	r1, r2
 800049a:	d908      	bls.n	80004ae <__udivmoddi4+0x282>
 800049c:	eb1c 0202 	adds.w	r2, ip, r2
 80004a0:	f105 38ff 	add.w	r8, r5, #4294967295	; 0xffffffff
 80004a4:	d216      	bcs.n	80004d4 <__udivmoddi4+0x2a8>
 80004a6:	4291      	cmp	r1, r2
 80004a8:	d914      	bls.n	80004d4 <__udivmoddi4+0x2a8>
 80004aa:	3d02      	subs	r5, #2
 80004ac:	4462      	add	r2, ip
 80004ae:	1a52      	subs	r2, r2, r1
 80004b0:	ea45 4100 	orr.w	r1, r5, r0, lsl #16
 80004b4:	e738      	b.n	8000328 <__udivmoddi4+0xfc>
 80004b6:	4631      	mov	r1, r6
 80004b8:	4630      	mov	r0, r6
 80004ba:	e708      	b.n	80002ce <__udivmoddi4+0xa2>
 80004bc:	4639      	mov	r1, r7
 80004be:	e6e6      	b.n	800028e <__udivmoddi4+0x62>
 80004c0:	4610      	mov	r0, r2
 80004c2:	e6fb      	b.n	80002bc <__udivmoddi4+0x90>
 80004c4:	4548      	cmp	r0, r9
 80004c6:	d2a9      	bcs.n	800041c <__udivmoddi4+0x1f0>
 80004c8:	ebb9 0802 	subs.w	r8, r9, r2
 80004cc:	eb65 0e0c 	sbc.w	lr, r5, ip
 80004d0:	3b01      	subs	r3, #1
 80004d2:	e7a3      	b.n	800041c <__udivmoddi4+0x1f0>
 80004d4:	4645      	mov	r5, r8
 80004d6:	e7ea      	b.n	80004ae <__udivmoddi4+0x282>
 80004d8:	462b      	mov	r3, r5
 80004da:	e794      	b.n	8000406 <__udivmoddi4+0x1da>
 80004dc:	4640      	mov	r0, r8
 80004de:	e7d1      	b.n	8000484 <__udivmoddi4+0x258>
 80004e0:	46d0      	mov	r8, sl
 80004e2:	e77b      	b.n	80003dc <__udivmoddi4+0x1b0>
 80004e4:	3d02      	subs	r5, #2
 80004e6:	4462      	add	r2, ip
 80004e8:	e732      	b.n	8000350 <__udivmoddi4+0x124>
 80004ea:	4608      	mov	r0, r1
 80004ec:	e70a      	b.n	8000304 <__udivmoddi4+0xd8>
 80004ee:	4464      	add	r4, ip
 80004f0:	3802      	subs	r0, #2
 80004f2:	e742      	b.n	800037a <__udivmoddi4+0x14e>

080004f4 <__aeabi_idiv0>:
 80004f4:	4770      	bx	lr
 80004f6:	bf00      	nop

080004f8 <init_accel>:
uint8_t OUT_Y_L 				= 0x34;
uint8_t OUT_Y_H 				= 0x35;
uint8_t OUT_Z_L 				= 0x36;
uint8_t OUT_Z_H 				= 0x37;

HAL_StatusTypeDef init_accel(I2C_HandleTypeDef* hi2c) {
 80004f8:	b580      	push	{r7, lr}
 80004fa:	b084      	sub	sp, #16
 80004fc:	af00      	add	r7, sp, #0
 80004fe:	6078      	str	r0, [r7, #4]
	HAL_StatusTypeDef ret;

	// Set standby mode
	ret = i2c_write_reg(hi2c, ADXL314_ADDR, &POWER_CTL_REG, 0x00);
 8000500:	4b14      	ldr	r3, [pc, #80]	; (8000554 <init_accel+0x5c>)
 8000502:	7819      	ldrb	r1, [r3, #0]
 8000504:	2300      	movs	r3, #0
 8000506:	4a14      	ldr	r2, [pc, #80]	; (8000558 <init_accel+0x60>)
 8000508:	6878      	ldr	r0, [r7, #4]
 800050a:	f000 fbe8 	bl	8000cde <i2c_write_reg>
 800050e:	4603      	mov	r3, r0
 8000510:	73fb      	strb	r3, [r7, #15]

	// Set to 200G right justified
	ret = i2c_write_reg(hi2c, ADXL314_ADDR, &DATA_FORMAT_REG, RIGHT_JUST);
 8000512:	4b10      	ldr	r3, [pc, #64]	; (8000554 <init_accel+0x5c>)
 8000514:	7819      	ldrb	r1, [r3, #0]
 8000516:	230b      	movs	r3, #11
 8000518:	4a10      	ldr	r2, [pc, #64]	; (800055c <init_accel+0x64>)
 800051a:	6878      	ldr	r0, [r7, #4]
 800051c:	f000 fbdf 	bl	8000cde <i2c_write_reg>
 8000520:	4603      	mov	r3, r0
 8000522:	73fb      	strb	r3, [r7, #15]

	// Set to 1kHz ODR
	ret = i2c_write_reg(hi2c, ADXL314_ADDR, &BW_RATE_REG, MASK_1kHz);
 8000524:	4b0b      	ldr	r3, [pc, #44]	; (8000554 <init_accel+0x5c>)
 8000526:	7819      	ldrb	r1, [r3, #0]
 8000528:	230a      	movs	r3, #10
 800052a:	4a0d      	ldr	r2, [pc, #52]	; (8000560 <init_accel+0x68>)
 800052c:	6878      	ldr	r0, [r7, #4]
 800052e:	f000 fbd6 	bl	8000cde <i2c_write_reg>
 8000532:	4603      	mov	r3, r0
 8000534:	73fb      	strb	r3, [r7, #15]

	// Write the offset registers
//	ret = writeOffset(hi2c);

	// Start measuring
	ret = i2c_write_reg(hi2c, ADXL314_ADDR, &POWER_CTL_REG, START_MEAS);
 8000536:	4b07      	ldr	r3, [pc, #28]	; (8000554 <init_accel+0x5c>)
 8000538:	7819      	ldrb	r1, [r3, #0]
 800053a:	2308      	movs	r3, #8
 800053c:	4a06      	ldr	r2, [pc, #24]	; (8000558 <init_accel+0x60>)
 800053e:	6878      	ldr	r0, [r7, #4]
 8000540:	f000 fbcd 	bl	8000cde <i2c_write_reg>
 8000544:	4603      	mov	r3, r0
 8000546:	73fb      	strb	r3, [r7, #15]

	return ret;
 8000548:	7bfb      	ldrb	r3, [r7, #15]
}
 800054a:	4618      	mov	r0, r3
 800054c:	3710      	adds	r7, #16
 800054e:	46bd      	mov	sp, r7
 8000550:	bd80      	pop	{r7, pc}
 8000552:	bf00      	nop
 8000554:	20000000 	.word	0x20000000
 8000558:	20000002 	.word	0x20000002
 800055c:	20000003 	.word	0x20000003
 8000560:	20000001 	.word	0x20000001

08000564 <readAccelerometer>:
void readAccelerometer(uint8_t values[6], I2C_HandleTypeDef* hi2c) {
 8000564:	b580      	push	{r7, lr}
 8000566:	b086      	sub	sp, #24
 8000568:	af02      	add	r7, sp, #8
 800056a:	6078      	str	r0, [r7, #4]
 800056c:	6039      	str	r1, [r7, #0]
	for (uint8_t i = 0; i < 6; i++) {
 800056e:	2300      	movs	r3, #0
 8000570:	73fb      	strb	r3, [r7, #15]
 8000572:	e007      	b.n	8000584 <readAccelerometer+0x20>
		values[i] = 0x00;
 8000574:	7bfb      	ldrb	r3, [r7, #15]
 8000576:	687a      	ldr	r2, [r7, #4]
 8000578:	4413      	add	r3, r2
 800057a:	2200      	movs	r2, #0
 800057c:	701a      	strb	r2, [r3, #0]
	for (uint8_t i = 0; i < 6; i++) {
 800057e:	7bfb      	ldrb	r3, [r7, #15]
 8000580:	3301      	adds	r3, #1
 8000582:	73fb      	strb	r3, [r7, #15]
 8000584:	7bfb      	ldrb	r3, [r7, #15]
 8000586:	2b05      	cmp	r3, #5
 8000588:	d9f4      	bls.n	8000574 <readAccelerometer+0x10>
	}

	i2c_burst_read(hi2c, ADXL314_ADDR, OUT_X_L, 6, values);
 800058a:	4b07      	ldr	r3, [pc, #28]	; (80005a8 <readAccelerometer+0x44>)
 800058c:	7819      	ldrb	r1, [r3, #0]
 800058e:	4b07      	ldr	r3, [pc, #28]	; (80005ac <readAccelerometer+0x48>)
 8000590:	781a      	ldrb	r2, [r3, #0]
 8000592:	687b      	ldr	r3, [r7, #4]
 8000594:	9300      	str	r3, [sp, #0]
 8000596:	2306      	movs	r3, #6
 8000598:	6838      	ldr	r0, [r7, #0]
 800059a:	f000 fb6b 	bl	8000c74 <i2c_burst_read>
}
 800059e:	bf00      	nop
 80005a0:	3710      	adds	r7, #16
 80005a2:	46bd      	mov	sp, r7
 80005a4:	bd80      	pop	{r7, pc}
 80005a6:	bf00      	nop
 80005a8:	20000000 	.word	0x20000000
 80005ac:	20000004 	.word	0x20000004

080005b0 <readAccel_whoami>:

uint8_t readAccel_whoami(I2C_HandleTypeDef* hi2c) {
 80005b0:	b580      	push	{r7, lr}
 80005b2:	b084      	sub	sp, #16
 80005b4:	af00      	add	r7, sp, #0
 80005b6:	6078      	str	r0, [r7, #4]
	uint8_t data = 0x00;
 80005b8:	2300      	movs	r3, #0
 80005ba:	73fb      	strb	r3, [r7, #15]
	i2c_read_reg(hi2c, &data, ADXL314_ADDR, &WHOAMI);
 80005bc:	4b06      	ldr	r3, [pc, #24]	; (80005d8 <readAccel_whoami+0x28>)
 80005be:	781a      	ldrb	r2, [r3, #0]
 80005c0:	f107 010f 	add.w	r1, r7, #15
 80005c4:	4b05      	ldr	r3, [pc, #20]	; (80005dc <readAccel_whoami+0x2c>)
 80005c6:	6878      	ldr	r0, [r7, #4]
 80005c8:	f000 fb2b 	bl	8000c22 <i2c_read_reg>

	return data;
 80005cc:	7bfb      	ldrb	r3, [r7, #15]
}
 80005ce:	4618      	mov	r0, r3
 80005d0:	3710      	adds	r7, #16
 80005d2:	46bd      	mov	sp, r7
 80005d4:	bd80      	pop	{r7, pc}
 80005d6:	bf00      	nop
 80005d8:	20000000 	.word	0x20000000
 80005dc:	20000044 	.word	0x20000044

080005e0 <init_bme280>:
uint8_t OUT_HUM_H 			= 0xFD;
uint8_t CALIB_ST_1			= 0x88;
uint8_t CALIB_ST_2			= 0xE1;


HAL_StatusTypeDef init_bme280(I2C_HandleTypeDef* hi2c, uint8_t bme) {
 80005e0:	b580      	push	{r7, lr}
 80005e2:	b084      	sub	sp, #16
 80005e4:	af00      	add	r7, sp, #0
 80005e6:	6078      	str	r0, [r7, #4]
 80005e8:	460b      	mov	r3, r1
 80005ea:	70fb      	strb	r3, [r7, #3]
	uint8_t bme_addr = getBME280Config(bme).bme_addr;
 80005ec:	78fb      	ldrb	r3, [r7, #3]
 80005ee:	4618      	mov	r0, r3
 80005f0:	f000 f8e0 	bl	80007b4 <getBME280Config>
 80005f4:	4603      	mov	r3, r0
 80005f6:	73fb      	strb	r3, [r7, #15]
	HAL_StatusTypeDef ret;
	uint8_t control_reg = 0x00;
 80005f8:	2300      	movs	r3, #0
 80005fa:	737b      	strb	r3, [r7, #13]

	// Reset the sensor
	ret =  i2c_write_reg(hi2c, bme_addr, &RST_REG, RST);
 80005fc:	7bf9      	ldrb	r1, [r7, #15]
 80005fe:	23b6      	movs	r3, #182	; 0xb6
 8000600:	4a19      	ldr	r2, [pc, #100]	; (8000668 <init_bme280+0x88>)
 8000602:	6878      	ldr	r0, [r7, #4]
 8000604:	f000 fb6b 	bl	8000cde <i2c_write_reg>
 8000608:	4603      	mov	r3, r0
 800060a:	73bb      	strb	r3, [r7, #14]

	// Set humidity control register
	i2c_read_reg(hi2c, &control_reg, bme_addr, &CTRL_HUM_REG);
 800060c:	7bfa      	ldrb	r2, [r7, #15]
 800060e:	f107 010d 	add.w	r1, r7, #13
 8000612:	4b16      	ldr	r3, [pc, #88]	; (800066c <init_bme280+0x8c>)
 8000614:	6878      	ldr	r0, [r7, #4]
 8000616:	f000 fb04 	bl	8000c22 <i2c_read_reg>
	control_reg = control_reg & 0xF8;
 800061a:	7b7b      	ldrb	r3, [r7, #13]
 800061c:	f023 0307 	bic.w	r3, r3, #7
 8000620:	b2db      	uxtb	r3, r3
 8000622:	737b      	strb	r3, [r7, #13]
	control_reg = control_reg | CTRL_HUM_MSK;
 8000624:	7b7b      	ldrb	r3, [r7, #13]
 8000626:	f043 0301 	orr.w	r3, r3, #1
 800062a:	b2db      	uxtb	r3, r3
 800062c:	737b      	strb	r3, [r7, #13]
	ret = i2c_write_reg(hi2c, bme_addr, &CTRL_HUM_REG, control_reg);
 800062e:	7b7b      	ldrb	r3, [r7, #13]
 8000630:	7bf9      	ldrb	r1, [r7, #15]
 8000632:	4a0e      	ldr	r2, [pc, #56]	; (800066c <init_bme280+0x8c>)
 8000634:	6878      	ldr	r0, [r7, #4]
 8000636:	f000 fb52 	bl	8000cde <i2c_write_reg>
 800063a:	4603      	mov	r3, r0
 800063c:	73bb      	strb	r3, [r7, #14]

	// Set measure control register
	ret = i2c_write_reg(hi2c, bme_addr, &CTRL_MEAS_REG, CTRL_MEAS_MSK);
 800063e:	7bf9      	ldrb	r1, [r7, #15]
 8000640:	2327      	movs	r3, #39	; 0x27
 8000642:	4a0b      	ldr	r2, [pc, #44]	; (8000670 <init_bme280+0x90>)
 8000644:	6878      	ldr	r0, [r7, #4]
 8000646:	f000 fb4a 	bl	8000cde <i2c_write_reg>
 800064a:	4603      	mov	r3, r0
 800064c:	73bb      	strb	r3, [r7, #14]

	// Set the config register
	ret = i2c_write_reg(hi2c, bme_addr, &CONF_REG, CONF_MSK);
 800064e:	7bf9      	ldrb	r1, [r7, #15]
 8000650:	2300      	movs	r3, #0
 8000652:	4a08      	ldr	r2, [pc, #32]	; (8000674 <init_bme280+0x94>)
 8000654:	6878      	ldr	r0, [r7, #4]
 8000656:	f000 fb42 	bl	8000cde <i2c_write_reg>
 800065a:	4603      	mov	r3, r0
 800065c:	73bb      	strb	r3, [r7, #14]

	return ret;
 800065e:	7bbb      	ldrb	r3, [r7, #14]
}
 8000660:	4618      	mov	r0, r3
 8000662:	3710      	adds	r7, #16
 8000664:	46bd      	mov	sp, r7
 8000666:	bd80      	pop	{r7, pc}
 8000668:	20000006 	.word	0x20000006
 800066c:	20000007 	.word	0x20000007
 8000670:	20000008 	.word	0x20000008
 8000674:	20000009 	.word	0x20000009

08000678 <readTempHumPres>:

void readTempHumPres(uint8_t values[6], I2C_HandleTypeDef* hi2c, uint8_t bme) {
 8000678:	b580      	push	{r7, lr}
 800067a:	b08a      	sub	sp, #40	; 0x28
 800067c:	af02      	add	r7, sp, #8
 800067e:	60f8      	str	r0, [r7, #12]
 8000680:	60b9      	str	r1, [r7, #8]
 8000682:	4613      	mov	r3, r2
 8000684:	71fb      	strb	r3, [r7, #7]
	uint8_t readings[8] = {0, 0, 0, 0, 0, 0, 0, 0};
 8000686:	4a27      	ldr	r2, [pc, #156]	; (8000724 <readTempHumPres+0xac>)
 8000688:	f107 0314 	add.w	r3, r7, #20
 800068c:	e892 0003 	ldmia.w	r2, {r0, r1}
 8000690:	e883 0003 	stmia.w	r3, {r0, r1}
	uint8_t bme_addr = getBME280Config(bme).bme_addr;
 8000694:	79fb      	ldrb	r3, [r7, #7]
 8000696:	4618      	mov	r0, r3
 8000698:	f000 f88c 	bl	80007b4 <getBME280Config>
 800069c:	4603      	mov	r3, r0
 800069e:	777b      	strb	r3, [r7, #29]
	i2c_burst_read(hi2c, bme_addr, OUT_PRESS_H, 8, readings);
 80006a0:	4b21      	ldr	r3, [pc, #132]	; (8000728 <readTempHumPres+0xb0>)
 80006a2:	781a      	ldrb	r2, [r3, #0]
 80006a4:	7f79      	ldrb	r1, [r7, #29]
 80006a6:	f107 0314 	add.w	r3, r7, #20
 80006aa:	9300      	str	r3, [sp, #0]
 80006ac:	2308      	movs	r3, #8
 80006ae:	68b8      	ldr	r0, [r7, #8]
 80006b0:	f000 fae0 	bl	8000c74 <i2c_burst_read>

	// Clear the 0 values on the xlsb registers
	uint8_t j = 0;
 80006b4:	2300      	movs	r3, #0
 80006b6:	77fb      	strb	r3, [r7, #31]
    for(uint8_t i = 0; i < 8; i++) {
 80006b8:	2300      	movs	r3, #0
 80006ba:	77bb      	strb	r3, [r7, #30]
 80006bc:	e014      	b.n	80006e8 <readTempHumPres+0x70>
        if(i != 2 && i != 5) {  // if the index is not 2 or 5
 80006be:	7fbb      	ldrb	r3, [r7, #30]
 80006c0:	2b02      	cmp	r3, #2
 80006c2:	d00e      	beq.n	80006e2 <readTempHumPres+0x6a>
 80006c4:	7fbb      	ldrb	r3, [r7, #30]
 80006c6:	2b05      	cmp	r3, #5
 80006c8:	d00b      	beq.n	80006e2 <readTempHumPres+0x6a>
        	values[j] = readings[i];
 80006ca:	7fba      	ldrb	r2, [r7, #30]
 80006cc:	7ffb      	ldrb	r3, [r7, #31]
 80006ce:	68f9      	ldr	r1, [r7, #12]
 80006d0:	440b      	add	r3, r1
 80006d2:	3220      	adds	r2, #32
 80006d4:	443a      	add	r2, r7
 80006d6:	f812 2c0c 	ldrb.w	r2, [r2, #-12]
 80006da:	701a      	strb	r2, [r3, #0]
            j++;
 80006dc:	7ffb      	ldrb	r3, [r7, #31]
 80006de:	3301      	adds	r3, #1
 80006e0:	77fb      	strb	r3, [r7, #31]
    for(uint8_t i = 0; i < 8; i++) {
 80006e2:	7fbb      	ldrb	r3, [r7, #30]
 80006e4:	3301      	adds	r3, #1
 80006e6:	77bb      	strb	r3, [r7, #30]
 80006e8:	7fbb      	ldrb	r3, [r7, #30]
 80006ea:	2b07      	cmp	r3, #7
 80006ec:	d9e7      	bls.n	80006be <readTempHumPres+0x46>
        }
    }

    // Swap elements to make the array little endian
    swap(&values[0], &values[1]);
 80006ee:	68fb      	ldr	r3, [r7, #12]
 80006f0:	3301      	adds	r3, #1
 80006f2:	4619      	mov	r1, r3
 80006f4:	68f8      	ldr	r0, [r7, #12]
 80006f6:	f000 f874 	bl	80007e2 <swap>
    swap(&values[2], &values[3]);
 80006fa:	68fb      	ldr	r3, [r7, #12]
 80006fc:	1c9a      	adds	r2, r3, #2
 80006fe:	68fb      	ldr	r3, [r7, #12]
 8000700:	3303      	adds	r3, #3
 8000702:	4619      	mov	r1, r3
 8000704:	4610      	mov	r0, r2
 8000706:	f000 f86c 	bl	80007e2 <swap>
    swap(&values[4], &values[5]);
 800070a:	68fb      	ldr	r3, [r7, #12]
 800070c:	1d1a      	adds	r2, r3, #4
 800070e:	68fb      	ldr	r3, [r7, #12]
 8000710:	3305      	adds	r3, #5
 8000712:	4619      	mov	r1, r3
 8000714:	4610      	mov	r0, r2
 8000716:	f000 f864 	bl	80007e2 <swap>
}
 800071a:	bf00      	nop
 800071c:	3720      	adds	r7, #32
 800071e:	46bd      	mov	sp, r7
 8000720:	bd80      	pop	{r7, pc}
 8000722:	bf00      	nop
 8000724:	080092ec 	.word	0x080092ec
 8000728:	2000000a 	.word	0x2000000a

0800072c <readBME280_id_reg>:

uint8_t readBME280_id_reg(I2C_HandleTypeDef* hi2c, uint8_t bme) {
 800072c:	b580      	push	{r7, lr}
 800072e:	b084      	sub	sp, #16
 8000730:	af00      	add	r7, sp, #0
 8000732:	6078      	str	r0, [r7, #4]
 8000734:	460b      	mov	r3, r1
 8000736:	70fb      	strb	r3, [r7, #3]
	uint8_t bme_addr = getBME280Config(bme).bme_addr;
 8000738:	78fb      	ldrb	r3, [r7, #3]
 800073a:	4618      	mov	r0, r3
 800073c:	f000 f83a 	bl	80007b4 <getBME280Config>
 8000740:	4603      	mov	r3, r0
 8000742:	73fb      	strb	r3, [r7, #15]
	uint8_t data = 0x00;
 8000744:	2300      	movs	r3, #0
 8000746:	73bb      	strb	r3, [r7, #14]
	i2c_read_reg(hi2c, &data, bme_addr, &ID_REG);
 8000748:	7bfa      	ldrb	r2, [r7, #15]
 800074a:	f107 010e 	add.w	r1, r7, #14
 800074e:	4b04      	ldr	r3, [pc, #16]	; (8000760 <readBME280_id_reg+0x34>)
 8000750:	6878      	ldr	r0, [r7, #4]
 8000752:	f000 fa66 	bl	8000c22 <i2c_read_reg>

	return data;
 8000756:	7bbb      	ldrb	r3, [r7, #14]
}
 8000758:	4618      	mov	r0, r3
 800075a:	3710      	adds	r7, #16
 800075c:	46bd      	mov	sp, r7
 800075e:	bd80      	pop	{r7, pc}
 8000760:	20000005 	.word	0x20000005

08000764 <readBME280_calib>:

void readBME280_calib(I2C_HandleTypeDef* hi2c, uint8_t bme, uint8_t calibration1[CALIB_CNT_1], uint8_t calibration2[CALIB_CNT_2]) {
 8000764:	b580      	push	{r7, lr}
 8000766:	b088      	sub	sp, #32
 8000768:	af02      	add	r7, sp, #8
 800076a:	60f8      	str	r0, [r7, #12]
 800076c:	607a      	str	r2, [r7, #4]
 800076e:	603b      	str	r3, [r7, #0]
 8000770:	460b      	mov	r3, r1
 8000772:	72fb      	strb	r3, [r7, #11]
	uint8_t bme_addr = getBME280Config(bme).bme_addr;
 8000774:	7afb      	ldrb	r3, [r7, #11]
 8000776:	4618      	mov	r0, r3
 8000778:	f000 f81c 	bl	80007b4 <getBME280Config>
 800077c:	4603      	mov	r3, r0
 800077e:	75fb      	strb	r3, [r7, #23]
	i2c_burst_read(hi2c, bme_addr, CALIB_ST_1, CALIB_CNT_1, calibration1);
 8000780:	4b0a      	ldr	r3, [pc, #40]	; (80007ac <readBME280_calib+0x48>)
 8000782:	781a      	ldrb	r2, [r3, #0]
 8000784:	7df9      	ldrb	r1, [r7, #23]
 8000786:	687b      	ldr	r3, [r7, #4]
 8000788:	9300      	str	r3, [sp, #0]
 800078a:	2319      	movs	r3, #25
 800078c:	68f8      	ldr	r0, [r7, #12]
 800078e:	f000 fa71 	bl	8000c74 <i2c_burst_read>
	i2c_burst_read(hi2c, bme_addr, CALIB_ST_2, CALIB_CNT_2, calibration2);
 8000792:	4b07      	ldr	r3, [pc, #28]	; (80007b0 <readBME280_calib+0x4c>)
 8000794:	781a      	ldrb	r2, [r3, #0]
 8000796:	7df9      	ldrb	r1, [r7, #23]
 8000798:	683b      	ldr	r3, [r7, #0]
 800079a:	9300      	str	r3, [sp, #0]
 800079c:	2307      	movs	r3, #7
 800079e:	68f8      	ldr	r0, [r7, #12]
 80007a0:	f000 fa68 	bl	8000c74 <i2c_burst_read>
}
 80007a4:	bf00      	nop
 80007a6:	3718      	adds	r7, #24
 80007a8:	46bd      	mov	sp, r7
 80007aa:	bd80      	pop	{r7, pc}
 80007ac:	2000000b 	.word	0x2000000b
 80007b0:	2000000c 	.word	0x2000000c

080007b4 <getBME280Config>:

BME280_Config getBME280Config(uint8_t bme) {
 80007b4:	b480      	push	{r7}
 80007b6:	b085      	sub	sp, #20
 80007b8:	af00      	add	r7, sp, #0
 80007ba:	4603      	mov	r3, r0
 80007bc:	71fb      	strb	r3, [r7, #7]
	BME280_Config config;
	if (bme == 0) {
 80007be:	79fb      	ldrb	r3, [r7, #7]
 80007c0:	2b00      	cmp	r3, #0
 80007c2:	d102      	bne.n	80007ca <getBME280Config+0x16>
		config.bme_addr = BME280_ADDR_0;
 80007c4:	2376      	movs	r3, #118	; 0x76
 80007c6:	733b      	strb	r3, [r7, #12]
 80007c8:	e004      	b.n	80007d4 <getBME280Config+0x20>
	} else if (bme == 1) {
 80007ca:	79fb      	ldrb	r3, [r7, #7]
 80007cc:	2b01      	cmp	r3, #1
 80007ce:	d101      	bne.n	80007d4 <getBME280Config+0x20>
		config.bme_addr = BME280_ADDR_1;
 80007d0:	2377      	movs	r3, #119	; 0x77
 80007d2:	733b      	strb	r3, [r7, #12]
	}
    return config;
 80007d4:	7b3b      	ldrb	r3, [r7, #12]
}
 80007d6:	4618      	mov	r0, r3
 80007d8:	3714      	adds	r7, #20
 80007da:	46bd      	mov	sp, r7
 80007dc:	f85d 7b04 	ldr.w	r7, [sp], #4
 80007e0:	4770      	bx	lr

080007e2 <swap>:

void swap(uint8_t* a, uint8_t* b) {
 80007e2:	b480      	push	{r7}
 80007e4:	b085      	sub	sp, #20
 80007e6:	af00      	add	r7, sp, #0
 80007e8:	6078      	str	r0, [r7, #4]
 80007ea:	6039      	str	r1, [r7, #0]
    uint8_t temp = *a;
 80007ec:	687b      	ldr	r3, [r7, #4]
 80007ee:	781b      	ldrb	r3, [r3, #0]
 80007f0:	73fb      	strb	r3, [r7, #15]
    *a = *b;
 80007f2:	683b      	ldr	r3, [r7, #0]
 80007f4:	781a      	ldrb	r2, [r3, #0]
 80007f6:	687b      	ldr	r3, [r7, #4]
 80007f8:	701a      	strb	r2, [r3, #0]
    *b = temp;
 80007fa:	683b      	ldr	r3, [r7, #0]
 80007fc:	7bfa      	ldrb	r2, [r7, #15]
 80007fe:	701a      	strb	r2, [r3, #0]
}
 8000800:	bf00      	nop
 8000802:	3714      	adds	r7, #20
 8000804:	46bd      	mov	sp, r7
 8000806:	f85d 7b04 	ldr.w	r7, [sp], #4
 800080a:	4770      	bx	lr

0800080c <sendCAN_TxMessage>:
 */

#include "can_driver.h"


void sendCAN_TxMessage(CAN_HandleTypeDef *hcan, uint8_t dataSize, uint8_t TxData[dataSize], uint32_t *CAN_TxMailbox, uint16_t payload_id) {
 800080c:	b580      	push	{r7, lr}
 800080e:	b08a      	sub	sp, #40	; 0x28
 8000810:	af00      	add	r7, sp, #0
 8000812:	60f8      	str	r0, [r7, #12]
 8000814:	607a      	str	r2, [r7, #4]
 8000816:	603b      	str	r3, [r7, #0]
 8000818:	460b      	mov	r3, r1
 800081a:	72fb      	strb	r3, [r7, #11]
	CAN_TxHeaderTypeDef TxHeader = configureTxHeader(payload_id, dataSize);
 800081c:	f107 0310 	add.w	r3, r7, #16
 8000820:	7afa      	ldrb	r2, [r7, #11]
 8000822:	8e39      	ldrh	r1, [r7, #48]	; 0x30
 8000824:	4618      	mov	r0, r3
 8000826:	f000 f80b 	bl	8000840 <configureTxHeader>
	HAL_CAN_AddTxMessage(hcan, &TxHeader, TxData, CAN_TxMailbox);
 800082a:	f107 0110 	add.w	r1, r7, #16
 800082e:	683b      	ldr	r3, [r7, #0]
 8000830:	687a      	ldr	r2, [r7, #4]
 8000832:	68f8      	ldr	r0, [r7, #12]
 8000834:	f002 fda2 	bl	800337c <HAL_CAN_AddTxMessage>
}
 8000838:	bf00      	nop
 800083a:	3728      	adds	r7, #40	; 0x28
 800083c:	46bd      	mov	sp, r7
 800083e:	bd80      	pop	{r7, pc}

08000840 <configureTxHeader>:

CAN_TxHeaderTypeDef configureTxHeader(uint16_t payload_id, uint8_t dataSize) {
 8000840:	b4b0      	push	{r4, r5, r7}
 8000842:	b089      	sub	sp, #36	; 0x24
 8000844:	af00      	add	r7, sp, #0
 8000846:	6078      	str	r0, [r7, #4]
 8000848:	460b      	mov	r3, r1
 800084a:	807b      	strh	r3, [r7, #2]
 800084c:	4613      	mov	r3, r2
 800084e:	707b      	strb	r3, [r7, #1]
	CAN_TxHeaderTypeDef TxHeader;
	TxHeader.DLC = dataSize;
 8000850:	787b      	ldrb	r3, [r7, #1]
 8000852:	61bb      	str	r3, [r7, #24]
	TxHeader.IDE = CAN_ID_STD;
 8000854:	2300      	movs	r3, #0
 8000856:	613b      	str	r3, [r7, #16]
	TxHeader.RTR = CAN_RTR_DATA;
 8000858:	2300      	movs	r3, #0
 800085a:	617b      	str	r3, [r7, #20]
	TxHeader.StdId = payload_id;
 800085c:	887b      	ldrh	r3, [r7, #2]
 800085e:	60bb      	str	r3, [r7, #8]
	TxHeader.TransmitGlobalTime = DISABLE;
 8000860:	2300      	movs	r3, #0
 8000862:	773b      	strb	r3, [r7, #28]
	return TxHeader;
 8000864:	687b      	ldr	r3, [r7, #4]
 8000866:	461d      	mov	r5, r3
 8000868:	f107 0408 	add.w	r4, r7, #8
 800086c:	cc0f      	ldmia	r4!, {r0, r1, r2, r3}
 800086e:	c50f      	stmia	r5!, {r0, r1, r2, r3}
 8000870:	e894 0003 	ldmia.w	r4, {r0, r1}
 8000874:	e885 0003 	stmia.w	r5, {r0, r1}
}
 8000878:	6878      	ldr	r0, [r7, #4]
 800087a:	3724      	adds	r7, #36	; 0x24
 800087c:	46bd      	mov	sp, r7
 800087e:	bcb0      	pop	{r4, r5, r7}
 8000880:	4770      	bx	lr

08000882 <check_busy>:
uint8_t FLASH_32K_ERS	= 0x52;			// Erase all memory within a 32K-byte block
uint8_t FLASH_ERASE		= 0xC7;			// Erase the entire chip
uint8_t RST_EN			= 0x66;			// Reset enable
uint8_t DEV_RST			= 0x99;			// Reset device

uint8_t check_busy(SPI_HandleTypeDef *hspi, GPIO_Config config, int timeout) {
 8000882:	b580      	push	{r7, lr}
 8000884:	b088      	sub	sp, #32
 8000886:	af00      	add	r7, sp, #0
 8000888:	60f8      	str	r0, [r7, #12]
 800088a:	1d38      	adds	r0, r7, #4
 800088c:	e880 0006 	stmia.w	r0, {r1, r2}
 8000890:	603b      	str	r3, [r7, #0]
	uint8_t ret_val = 0x00;
 8000892:	2300      	movs	r3, #0
 8000894:	77fb      	strb	r3, [r7, #31]

    // Get the current time
	uint32_t startTick = HAL_GetTick();
 8000896:	f002 fb21 	bl	8002edc <HAL_GetTick>
 800089a:	61b8      	str	r0, [r7, #24]

	// Read the status register to ensure no write is currently in progress
	uint8_t busy = 0x01;
 800089c:	2301      	movs	r3, #1
 800089e:	77bb      	strb	r3, [r7, #30]
	while(busy) {
 80008a0:	e015      	b.n	80008ce <check_busy+0x4c>
		// Check if there is a write in progress
		busy = (check_status_register(hspi, config) & 0x01);
 80008a2:	1d3b      	adds	r3, r7, #4
 80008a4:	e893 0006 	ldmia.w	r3, {r1, r2}
 80008a8:	68f8      	ldr	r0, [r7, #12]
 80008aa:	f000 f819 	bl	80008e0 <check_status_register>
 80008ae:	4603      	mov	r3, r0
 80008b0:	f003 0301 	and.w	r3, r3, #1
 80008b4:	77bb      	strb	r3, [r7, #30]

		uint32_t currTick = HAL_GetTick();
 80008b6:	f002 fb11 	bl	8002edc <HAL_GetTick>
 80008ba:	6178      	str	r0, [r7, #20]

        // Check if the timeout has been reached
		if ((currTick - startTick) >= timeout) {
 80008bc:	697a      	ldr	r2, [r7, #20]
 80008be:	69bb      	ldr	r3, [r7, #24]
 80008c0:	1ad2      	subs	r2, r2, r3
 80008c2:	683b      	ldr	r3, [r7, #0]
 80008c4:	429a      	cmp	r2, r3
 80008c6:	d302      	bcc.n	80008ce <check_busy+0x4c>
        	ret_val = 0x01;
 80008c8:	2301      	movs	r3, #1
 80008ca:	77fb      	strb	r3, [r7, #31]
            break;
 80008cc:	e002      	b.n	80008d4 <check_busy+0x52>
	while(busy) {
 80008ce:	7fbb      	ldrb	r3, [r7, #30]
 80008d0:	2b00      	cmp	r3, #0
 80008d2:	d1e6      	bne.n	80008a2 <check_busy+0x20>
        }
	}

	return ret_val;
 80008d4:	7ffb      	ldrb	r3, [r7, #31]
}
 80008d6:	4618      	mov	r0, r3
 80008d8:	3720      	adds	r7, #32
 80008da:	46bd      	mov	sp, r7
 80008dc:	bd80      	pop	{r7, pc}
	...

080008e0 <check_status_register>:

uint8_t check_status_register(SPI_HandleTypeDef *hspi, GPIO_Config config) {
 80008e0:	b580      	push	{r7, lr}
 80008e2:	b088      	sub	sp, #32
 80008e4:	af02      	add	r7, sp, #8
 80008e6:	60f8      	str	r0, [r7, #12]
 80008e8:	1d3b      	adds	r3, r7, #4
 80008ea:	e883 0006 	stmia.w	r3, {r1, r2}
	uint8_t status_reg = 0x00;
 80008ee:	2300      	movs	r3, #0
 80008f0:	75fb      	strb	r3, [r7, #23]
	spi_sendOp_readByte(&FLASH_READSR1, hspi, &status_reg, config.GPIOx, config.GPIO_Pin);
 80008f2:	6879      	ldr	r1, [r7, #4]
 80008f4:	893b      	ldrh	r3, [r7, #8]
 80008f6:	f107 0217 	add.w	r2, r7, #23
 80008fa:	9300      	str	r3, [sp, #0]
 80008fc:	460b      	mov	r3, r1
 80008fe:	68f9      	ldr	r1, [r7, #12]
 8000900:	4803      	ldr	r0, [pc, #12]	; (8000910 <check_status_register+0x30>)
 8000902:	f001 fd9b 	bl	800243c <spi_sendOp_readByte>
	return status_reg;
 8000906:	7dfb      	ldrb	r3, [r7, #23]
}
 8000908:	4618      	mov	r0, r3
 800090a:	3718      	adds	r7, #24
 800090c:	46bd      	mov	sp, r7
 800090e:	bd80      	pop	{r7, pc}
 8000910:	2000000f 	.word	0x2000000f

08000914 <erase_chip_spi>:
 *      Author: aidencontini
 */

#include "data_output_spi.h"

HAL_StatusTypeDef erase_chip_spi(SPI_HandleTypeDef *hspi, GPIO_Config config) {
 8000914:	b580      	push	{r7, lr}
 8000916:	b084      	sub	sp, #16
 8000918:	af00      	add	r7, sp, #0
 800091a:	60f8      	str	r0, [r7, #12]
 800091c:	1d3b      	adds	r3, r7, #4
 800091e:	e883 0006 	stmia.w	r3, {r1, r2}
	check_busy(hspi, config, BSY_TIMEOUT_MS);
 8000922:	2305      	movs	r3, #5
 8000924:	1d3a      	adds	r2, r7, #4
 8000926:	ca06      	ldmia	r2, {r1, r2}
 8000928:	68f8      	ldr	r0, [r7, #12]
 800092a:	f7ff ffaa 	bl	8000882 <check_busy>

	write_enable_spi(hspi, config);
 800092e:	1d3b      	adds	r3, r7, #4
 8000930:	e893 0006 	ldmia.w	r3, {r1, r2}
 8000934:	68f8      	ldr	r0, [r7, #12]
 8000936:	f000 f815 	bl	8000964 <write_enable_spi>
	perform_operation(&FLASH_ERASE, hspi, config.GPIOx, config.GPIO_Pin);
 800093a:	687a      	ldr	r2, [r7, #4]
 800093c:	893b      	ldrh	r3, [r7, #8]
 800093e:	68f9      	ldr	r1, [r7, #12]
 8000940:	4806      	ldr	r0, [pc, #24]	; (800095c <erase_chip_spi+0x48>)
 8000942:	f001 fda1 	bl	8002488 <perform_operation>

	check_busy(hspi, config, CHIP_ERASE_TO);
 8000946:	4b06      	ldr	r3, [pc, #24]	; (8000960 <erase_chip_spi+0x4c>)
 8000948:	1d3a      	adds	r2, r7, #4
 800094a:	ca06      	ldmia	r2, {r1, r2}
 800094c:	68f8      	ldr	r0, [r7, #12]
 800094e:	f7ff ff98 	bl	8000882 <check_busy>

	return HAL_OK;
 8000952:	2300      	movs	r3, #0
}
 8000954:	4618      	mov	r0, r3
 8000956:	3710      	adds	r7, #16
 8000958:	46bd      	mov	sp, r7
 800095a:	bd80      	pop	{r7, pc}
 800095c:	20000012 	.word	0x20000012
 8000960:	00030d40 	.word	0x00030d40

08000964 <write_enable_spi>:
	check_busy(hspi, config, BLK_ERS_32K_TO);

	return HAL_OK;
}

void write_enable_spi(SPI_HandleTypeDef *hspi, GPIO_Config config) {
 8000964:	b580      	push	{r7, lr}
 8000966:	b084      	sub	sp, #16
 8000968:	af00      	add	r7, sp, #0
 800096a:	60f8      	str	r0, [r7, #12]
 800096c:	1d3b      	adds	r3, r7, #4
 800096e:	e883 0006 	stmia.w	r3, {r1, r2}
	perform_operation(&FLASH_WREN, hspi, config.GPIOx, config.GPIO_Pin);
 8000972:	687a      	ldr	r2, [r7, #4]
 8000974:	893b      	ldrh	r3, [r7, #8]
 8000976:	68f9      	ldr	r1, [r7, #12]
 8000978:	4803      	ldr	r0, [pc, #12]	; (8000988 <write_enable_spi+0x24>)
 800097a:	f001 fd85 	bl	8002488 <perform_operation>
}
 800097e:	bf00      	nop
 8000980:	3710      	adds	r7, #16
 8000982:	46bd      	mov	sp, r7
 8000984:	bd80      	pop	{r7, pc}
 8000986:	bf00      	nop
 8000988:	2000000d 	.word	0x2000000d

0800098c <software_reset>:

void write_disable_spi(SPI_HandleTypeDef *hspi, GPIO_Config config) {
	perform_operation(&FLASH_WRDIS, hspi, config.GPIOx, config.GPIO_Pin);
}

void software_reset(SPI_HandleTypeDef *hspi, GPIO_Config config) {
 800098c:	b580      	push	{r7, lr}
 800098e:	b084      	sub	sp, #16
 8000990:	af00      	add	r7, sp, #0
 8000992:	60f8      	str	r0, [r7, #12]
 8000994:	1d3b      	adds	r3, r7, #4
 8000996:	e883 0006 	stmia.w	r3, {r1, r2}

	check_busy(hspi, config, BSY_TIMEOUT_MS);
 800099a:	2305      	movs	r3, #5
 800099c:	1d3a      	adds	r2, r7, #4
 800099e:	ca06      	ldmia	r2, {r1, r2}
 80009a0:	68f8      	ldr	r0, [r7, #12]
 80009a2:	f7ff ff6e 	bl	8000882 <check_busy>

	perform_operation(&RST_EN, hspi, config.GPIOx, config.GPIO_Pin);
 80009a6:	687a      	ldr	r2, [r7, #4]
 80009a8:	893b      	ldrh	r3, [r7, #8]
 80009aa:	68f9      	ldr	r1, [r7, #12]
 80009ac:	4807      	ldr	r0, [pc, #28]	; (80009cc <software_reset+0x40>)
 80009ae:	f001 fd6b 	bl	8002488 <perform_operation>
	perform_operation(&DEV_RST, hspi, config.GPIOx, config.GPIO_Pin);
 80009b2:	687a      	ldr	r2, [r7, #4]
 80009b4:	893b      	ldrh	r3, [r7, #8]
 80009b6:	68f9      	ldr	r1, [r7, #12]
 80009b8:	4805      	ldr	r0, [pc, #20]	; (80009d0 <software_reset+0x44>)
 80009ba:	f001 fd65 	bl	8002488 <perform_operation>

	HAL_Delay(5);
 80009be:	2005      	movs	r0, #5
 80009c0:	f002 fa98 	bl	8002ef4 <HAL_Delay>
}
 80009c4:	bf00      	nop
 80009c6:	3710      	adds	r7, #16
 80009c8:	46bd      	mov	sp, r7
 80009ca:	bd80      	pop	{r7, pc}
 80009cc:	20000013 	.word	0x20000013
 80009d0:	20000014 	.word	0x20000014

080009d4 <write_data_spi_dma>:
	spi_write_data(&FLASH_PGWR, PAGE_SIZE, page, hspi, addr, config.GPIOx, config.GPIO_Pin);

	return 0;
}

uint8_t write_data_spi_dma(uint8_t page[PAGE_SIZE], SPI_HandleTypeDef *hspi, uint32_t addr, GPIO_Config config) {
 80009d4:	b082      	sub	sp, #8
 80009d6:	b580      	push	{r7, lr}
 80009d8:	b088      	sub	sp, #32
 80009da:	af04      	add	r7, sp, #16
 80009dc:	60f8      	str	r0, [r7, #12]
 80009de:	60b9      	str	r1, [r7, #8]
 80009e0:	607a      	str	r2, [r7, #4]
 80009e2:	61fb      	str	r3, [r7, #28]
	check_busy(hspi, config, BSY_TIMEOUT_MS);
 80009e4:	2305      	movs	r3, #5
 80009e6:	f107 021c 	add.w	r2, r7, #28
 80009ea:	ca06      	ldmia	r2, {r1, r2}
 80009ec:	68b8      	ldr	r0, [r7, #8]
 80009ee:	f7ff ff48 	bl	8000882 <check_busy>

	// Send the write enable signal
	write_enable_spi(hspi, config);
 80009f2:	f107 031c 	add.w	r3, r7, #28
 80009f6:	e893 0006 	ldmia.w	r3, {r1, r2}
 80009fa:	68b8      	ldr	r0, [r7, #8]
 80009fc:	f7ff ffb2 	bl	8000964 <write_enable_spi>
	spi_write_data_dma(&FLASH_PGWR, PAGE_SIZE, page, hspi, addr, config.GPIOx, config.GPIO_Pin);
 8000a00:	69fb      	ldr	r3, [r7, #28]
 8000a02:	8c3a      	ldrh	r2, [r7, #32]
 8000a04:	9202      	str	r2, [sp, #8]
 8000a06:	9301      	str	r3, [sp, #4]
 8000a08:	687b      	ldr	r3, [r7, #4]
 8000a0a:	9300      	str	r3, [sp, #0]
 8000a0c:	68bb      	ldr	r3, [r7, #8]
 8000a0e:	68fa      	ldr	r2, [r7, #12]
 8000a10:	f44f 7180 	mov.w	r1, #256	; 0x100
 8000a14:	4805      	ldr	r0, [pc, #20]	; (8000a2c <write_data_spi_dma+0x58>)
 8000a16:	f001 fd9e 	bl	8002556 <spi_write_data_dma>

	return 0;
 8000a1a:	2300      	movs	r3, #0
}
 8000a1c:	4618      	mov	r0, r3
 8000a1e:	3710      	adds	r7, #16
 8000a20:	46bd      	mov	sp, r7
 8000a22:	e8bd 4080 	ldmia.w	sp!, {r7, lr}
 8000a26:	b002      	add	sp, #8
 8000a28:	4770      	bx	lr
 8000a2a:	bf00      	nop
 8000a2c:	2000000e 	.word	0x2000000e

08000a30 <find_next_blank_page>:
 *      Author: aidencontini
 */

#include "data_read_spi.h"

uint32_t find_next_blank_page(SPI_HandleTypeDef *hspi, GPIO_PinState *end_of_flash_ptr, GPIO_Config config) {
 8000a30:	e92d 43f0 	stmdb	sp!, {r4, r5, r6, r7, r8, r9, lr}
 8000a34:	b091      	sub	sp, #68	; 0x44
 8000a36:	af04      	add	r7, sp, #16
 8000a38:	60f8      	str	r0, [r7, #12]
 8000a3a:	60b9      	str	r1, [r7, #8]
 8000a3c:	4639      	mov	r1, r7
 8000a3e:	e881 000c 	stmia.w	r1, {r2, r3}
 8000a42:	466b      	mov	r3, sp
 8000a44:	461e      	mov	r6, r3
	uint8_t firstBytes = 4;
 8000a46:	2304      	movs	r3, #4
 8000a48:	77fb      	strb	r3, [r7, #31]

	uint8_t page_start[firstBytes];
 8000a4a:	7ff9      	ldrb	r1, [r7, #31]
 8000a4c:	460b      	mov	r3, r1
 8000a4e:	3b01      	subs	r3, #1
 8000a50:	61bb      	str	r3, [r7, #24]
 8000a52:	b2cb      	uxtb	r3, r1
 8000a54:	2200      	movs	r2, #0
 8000a56:	4698      	mov	r8, r3
 8000a58:	4691      	mov	r9, r2
 8000a5a:	f04f 0200 	mov.w	r2, #0
 8000a5e:	f04f 0300 	mov.w	r3, #0
 8000a62:	ea4f 03c9 	mov.w	r3, r9, lsl #3
 8000a66:	ea43 7358 	orr.w	r3, r3, r8, lsr #29
 8000a6a:	ea4f 02c8 	mov.w	r2, r8, lsl #3
 8000a6e:	b2cb      	uxtb	r3, r1
 8000a70:	2200      	movs	r2, #0
 8000a72:	461c      	mov	r4, r3
 8000a74:	4615      	mov	r5, r2
 8000a76:	f04f 0200 	mov.w	r2, #0
 8000a7a:	f04f 0300 	mov.w	r3, #0
 8000a7e:	00eb      	lsls	r3, r5, #3
 8000a80:	ea43 7354 	orr.w	r3, r3, r4, lsr #29
 8000a84:	00e2      	lsls	r2, r4, #3
 8000a86:	460b      	mov	r3, r1
 8000a88:	3307      	adds	r3, #7
 8000a8a:	08db      	lsrs	r3, r3, #3
 8000a8c:	00db      	lsls	r3, r3, #3
 8000a8e:	ebad 0d03 	sub.w	sp, sp, r3
 8000a92:	ab04      	add	r3, sp, #16
 8000a94:	3300      	adds	r3, #0
 8000a96:	617b      	str	r3, [r7, #20]
	for (int i = 0; i < firstBytes; i++) {
 8000a98:	2300      	movs	r3, #0
 8000a9a:	62fb      	str	r3, [r7, #44]	; 0x2c
 8000a9c:	e007      	b.n	8000aae <find_next_blank_page+0x7e>
		page_start[i] = 0;
 8000a9e:	697a      	ldr	r2, [r7, #20]
 8000aa0:	6afb      	ldr	r3, [r7, #44]	; 0x2c
 8000aa2:	4413      	add	r3, r2
 8000aa4:	2200      	movs	r2, #0
 8000aa6:	701a      	strb	r2, [r3, #0]
	for (int i = 0; i < firstBytes; i++) {
 8000aa8:	6afb      	ldr	r3, [r7, #44]	; 0x2c
 8000aaa:	3301      	adds	r3, #1
 8000aac:	62fb      	str	r3, [r7, #44]	; 0x2c
 8000aae:	7ffb      	ldrb	r3, [r7, #31]
 8000ab0:	6afa      	ldr	r2, [r7, #44]	; 0x2c
 8000ab2:	429a      	cmp	r2, r3
 8000ab4:	dbf3      	blt.n	8000a9e <find_next_blank_page+0x6e>
	}

	uint32_t page_start_concat = (page_start[0] << 24) | (page_start[1] << 16) | (page_start[2] << 8) | page_start[3];
 8000ab6:	697b      	ldr	r3, [r7, #20]
 8000ab8:	781b      	ldrb	r3, [r3, #0]
 8000aba:	061a      	lsls	r2, r3, #24
 8000abc:	697b      	ldr	r3, [r7, #20]
 8000abe:	785b      	ldrb	r3, [r3, #1]
 8000ac0:	041b      	lsls	r3, r3, #16
 8000ac2:	431a      	orrs	r2, r3
 8000ac4:	697b      	ldr	r3, [r7, #20]
 8000ac6:	789b      	ldrb	r3, [r3, #2]
 8000ac8:	021b      	lsls	r3, r3, #8
 8000aca:	4313      	orrs	r3, r2
 8000acc:	697a      	ldr	r2, [r7, #20]
 8000ace:	78d2      	ldrb	r2, [r2, #3]
 8000ad0:	4313      	orrs	r3, r2
 8000ad2:	62bb      	str	r3, [r7, #40]	; 0x28
	uint32_t temp = 0;
 8000ad4:	2300      	movs	r3, #0
 8000ad6:	627b      	str	r3, [r7, #36]	; 0x24
	uint32_t page_address = temp;
 8000ad8:	6a7b      	ldr	r3, [r7, #36]	; 0x24
 8000ada:	623b      	str	r3, [r7, #32]

	while ((page_start_concat != 0xFFFFFFFF) || (temp == NUM_OF_PAGES)) {
 8000adc:	e027      	b.n	8000b2e <find_next_blank_page+0xfe>
		page_address = temp;
 8000ade:	6a7b      	ldr	r3, [r7, #36]	; 0x24
 8000ae0:	623b      	str	r3, [r7, #32]

		check_busy(hspi, config, BSY_TIMEOUT_MS);
 8000ae2:	2305      	movs	r3, #5
 8000ae4:	463a      	mov	r2, r7
 8000ae6:	ca06      	ldmia	r2, {r1, r2}
 8000ae8:	68f8      	ldr	r0, [r7, #12]
 8000aea:	f7ff feca 	bl	8000882 <check_busy>

		spi_read_data(&FLASH_READEN, firstBytes, page_start, hspi, page_address, config.GPIOx, config.GPIO_Pin);
 8000aee:	7ffb      	ldrb	r3, [r7, #31]
 8000af0:	b299      	uxth	r1, r3
 8000af2:	683b      	ldr	r3, [r7, #0]
 8000af4:	88ba      	ldrh	r2, [r7, #4]
 8000af6:	9202      	str	r2, [sp, #8]
 8000af8:	9301      	str	r3, [sp, #4]
 8000afa:	6a3b      	ldr	r3, [r7, #32]
 8000afc:	9300      	str	r3, [sp, #0]
 8000afe:	68fb      	ldr	r3, [r7, #12]
 8000b00:	697a      	ldr	r2, [r7, #20]
 8000b02:	4816      	ldr	r0, [pc, #88]	; (8000b5c <find_next_blank_page+0x12c>)
 8000b04:	f001 fce0 	bl	80024c8 <spi_read_data>

		page_start_concat = (page_start[0] << 24) | (page_start[1] << 16) | (page_start[2] << 8) | page_start[3];
 8000b08:	697b      	ldr	r3, [r7, #20]
 8000b0a:	781b      	ldrb	r3, [r3, #0]
 8000b0c:	061a      	lsls	r2, r3, #24
 8000b0e:	697b      	ldr	r3, [r7, #20]
 8000b10:	785b      	ldrb	r3, [r3, #1]
 8000b12:	041b      	lsls	r3, r3, #16
 8000b14:	431a      	orrs	r2, r3
 8000b16:	697b      	ldr	r3, [r7, #20]
 8000b18:	789b      	ldrb	r3, [r3, #2]
 8000b1a:	021b      	lsls	r3, r3, #8
 8000b1c:	4313      	orrs	r3, r2
 8000b1e:	697a      	ldr	r2, [r7, #20]
 8000b20:	78d2      	ldrb	r2, [r2, #3]
 8000b22:	4313      	orrs	r3, r2
 8000b24:	62bb      	str	r3, [r7, #40]	; 0x28
		temp += PAGE_SIZE;
 8000b26:	6a7b      	ldr	r3, [r7, #36]	; 0x24
 8000b28:	f503 7380 	add.w	r3, r3, #256	; 0x100
 8000b2c:	627b      	str	r3, [r7, #36]	; 0x24
	while ((page_start_concat != 0xFFFFFFFF) || (temp == NUM_OF_PAGES)) {
 8000b2e:	6abb      	ldr	r3, [r7, #40]	; 0x28
 8000b30:	f1b3 3fff 	cmp.w	r3, #4294967295	; 0xffffffff
 8000b34:	d1d3      	bne.n	8000ade <find_next_blank_page+0xae>
 8000b36:	6a7b      	ldr	r3, [r7, #36]	; 0x24
 8000b38:	f5b3 3f80 	cmp.w	r3, #65536	; 0x10000
 8000b3c:	d0cf      	beq.n	8000ade <find_next_blank_page+0xae>
	}

	if (page_address == (NUM_OF_PAGES * PAGE_SIZE)) {
 8000b3e:	6a3b      	ldr	r3, [r7, #32]
 8000b40:	f1b3 7f80 	cmp.w	r3, #16777216	; 0x1000000
 8000b44:	d102      	bne.n	8000b4c <find_next_blank_page+0x11c>
		*end_of_flash_ptr = GPIO_PIN_RESET;
 8000b46:	68bb      	ldr	r3, [r7, #8]
 8000b48:	2200      	movs	r2, #0
 8000b4a:	701a      	strb	r2, [r3, #0]
	}
	return page_address;
 8000b4c:	6a3b      	ldr	r3, [r7, #32]
 8000b4e:	46b5      	mov	sp, r6
}
 8000b50:	4618      	mov	r0, r3
 8000b52:	3734      	adds	r7, #52	; 0x34
 8000b54:	46bd      	mov	sp, r7
 8000b56:	e8bd 83f0 	ldmia.w	sp!, {r4, r5, r6, r7, r8, r9, pc}
 8000b5a:	bf00      	nop
 8000b5c:	20000010 	.word	0x20000010

08000b60 <read_page_spi>:

void read_page_spi(uint8_t data_read[PAGE_SIZE], SPI_HandleTypeDef *hspi, uint32_t addr, GPIO_Config config) {
 8000b60:	b082      	sub	sp, #8
 8000b62:	b580      	push	{r7, lr}
 8000b64:	b088      	sub	sp, #32
 8000b66:	af04      	add	r7, sp, #16
 8000b68:	60f8      	str	r0, [r7, #12]
 8000b6a:	60b9      	str	r1, [r7, #8]
 8000b6c:	607a      	str	r2, [r7, #4]
 8000b6e:	61fb      	str	r3, [r7, #28]

	// Read the status register to ensure no write is currently in progress
	check_busy(hspi, config, BSY_TIMEOUT_MS);
 8000b70:	2305      	movs	r3, #5
 8000b72:	f107 021c 	add.w	r2, r7, #28
 8000b76:	ca06      	ldmia	r2, {r1, r2}
 8000b78:	68b8      	ldr	r0, [r7, #8]
 8000b7a:	f7ff fe82 	bl	8000882 <check_busy>
	spi_read_data(&FLASH_READEN, PAGE_SIZE, data_read, hspi, addr, config.GPIOx, config.GPIO_Pin);
 8000b7e:	69fb      	ldr	r3, [r7, #28]
 8000b80:	8c3a      	ldrh	r2, [r7, #32]
 8000b82:	9202      	str	r2, [sp, #8]
 8000b84:	9301      	str	r3, [sp, #4]
 8000b86:	687b      	ldr	r3, [r7, #4]
 8000b88:	9300      	str	r3, [sp, #0]
 8000b8a:	68bb      	ldr	r3, [r7, #8]
 8000b8c:	68fa      	ldr	r2, [r7, #12]
 8000b8e:	f44f 7180 	mov.w	r1, #256	; 0x100
 8000b92:	4805      	ldr	r0, [pc, #20]	; (8000ba8 <read_page_spi+0x48>)
 8000b94:	f001 fc98 	bl	80024c8 <spi_read_data>
}
 8000b98:	bf00      	nop
 8000b9a:	3710      	adds	r7, #16
 8000b9c:	46bd      	mov	sp, r7
 8000b9e:	e8bd 4080 	ldmia.w	sp!, {r7, lr}
 8000ba2:	b002      	add	sp, #8
 8000ba4:	4770      	bx	lr
 8000ba6:	bf00      	nop
 8000ba8:	20000010 	.word	0x20000010

08000bac <read_manufacturer_id>:

void read_manufacturer_id(uint8_t manu[2], SPI_HandleTypeDef *hspi, GPIO_Config config) {
 8000bac:	b580      	push	{r7, lr}
 8000bae:	b08a      	sub	sp, #40	; 0x28
 8000bb0:	af04      	add	r7, sp, #16
 8000bb2:	60f8      	str	r0, [r7, #12]
 8000bb4:	60b9      	str	r1, [r7, #8]
 8000bb6:	4639      	mov	r1, r7
 8000bb8:	e881 000c 	stmia.w	r1, {r2, r3}

	// Read the status register to ensure no write is currently in progress
	check_busy(hspi, config, BSY_TIMEOUT_MS);
 8000bbc:	2305      	movs	r3, #5
 8000bbe:	463a      	mov	r2, r7
 8000bc0:	ca06      	ldmia	r2, {r1, r2}
 8000bc2:	68b8      	ldr	r0, [r7, #8]
 8000bc4:	f7ff fe5d 	bl	8000882 <check_busy>

	// Read the entire contents of a page starting from the given address
	uint8_t addr = 0x00;
 8000bc8:	2300      	movs	r3, #0
 8000bca:	75fb      	strb	r3, [r7, #23]
	spi_read_data(&FLASH_READ_MANU, 2, manu, hspi, addr, config.GPIOx, config.GPIO_Pin);
 8000bcc:	7dfb      	ldrb	r3, [r7, #23]
 8000bce:	683a      	ldr	r2, [r7, #0]
 8000bd0:	88b9      	ldrh	r1, [r7, #4]
 8000bd2:	9102      	str	r1, [sp, #8]
 8000bd4:	9201      	str	r2, [sp, #4]
 8000bd6:	9300      	str	r3, [sp, #0]
 8000bd8:	68bb      	ldr	r3, [r7, #8]
 8000bda:	68fa      	ldr	r2, [r7, #12]
 8000bdc:	2102      	movs	r1, #2
 8000bde:	4803      	ldr	r0, [pc, #12]	; (8000bec <read_manufacturer_id+0x40>)
 8000be0:	f001 fc72 	bl	80024c8 <spi_read_data>
}
 8000be4:	bf00      	nop
 8000be6:	3718      	adds	r7, #24
 8000be8:	46bd      	mov	sp, r7
 8000bea:	bd80      	pop	{r7, pc}
 8000bec:	20000011 	.word	0x20000011

08000bf0 <create_GPIO_Config>:
 */

#include "gpio_struct.h"

// Function to initialize the GPIO_Config struct
GPIO_Config create_GPIO_Config(GPIO_TypeDef* GPIOx, uint16_t GPIO_Pin) {
 8000bf0:	b480      	push	{r7}
 8000bf2:	b087      	sub	sp, #28
 8000bf4:	af00      	add	r7, sp, #0
 8000bf6:	60f8      	str	r0, [r7, #12]
 8000bf8:	60b9      	str	r1, [r7, #8]
 8000bfa:	4613      	mov	r3, r2
 8000bfc:	80fb      	strh	r3, [r7, #6]
    GPIO_Config new_config;
    new_config.GPIOx = GPIOx;
 8000bfe:	68bb      	ldr	r3, [r7, #8]
 8000c00:	613b      	str	r3, [r7, #16]
    new_config.GPIO_Pin = GPIO_Pin;
 8000c02:	88fb      	ldrh	r3, [r7, #6]
 8000c04:	82bb      	strh	r3, [r7, #20]
    return new_config;
 8000c06:	68fb      	ldr	r3, [r7, #12]
 8000c08:	461a      	mov	r2, r3
 8000c0a:	f107 0310 	add.w	r3, r7, #16
 8000c0e:	e893 0003 	ldmia.w	r3, {r0, r1}
 8000c12:	e882 0003 	stmia.w	r2, {r0, r1}
}
 8000c16:	68f8      	ldr	r0, [r7, #12]
 8000c18:	371c      	adds	r7, #28
 8000c1a:	46bd      	mov	sp, r7
 8000c1c:	f85d 7b04 	ldr.w	r7, [sp], #4
 8000c20:	4770      	bx	lr

08000c22 <i2c_read_reg>:
 *      Author: aidencontini
 */

#include "i2c_driver.h"

HAL_StatusTypeDef i2c_read_reg(I2C_HandleTypeDef* hi2c, uint8_t* data_ptr, uint8_t dev_addr, uint8_t* register_addr) {
 8000c22:	b580      	push	{r7, lr}
 8000c24:	b088      	sub	sp, #32
 8000c26:	af02      	add	r7, sp, #8
 8000c28:	60f8      	str	r0, [r7, #12]
 8000c2a:	60b9      	str	r1, [r7, #8]
 8000c2c:	603b      	str	r3, [r7, #0]
 8000c2e:	4613      	mov	r3, r2
 8000c30:	71fb      	strb	r3, [r7, #7]
	HAL_I2C_Master_Transmit(hi2c, (dev_addr << 1) & 0xFE, register_addr, 1, I2C_TIMEOUT_SML);
 8000c32:	79fb      	ldrb	r3, [r7, #7]
 8000c34:	005b      	lsls	r3, r3, #1
 8000c36:	b29b      	uxth	r3, r3
 8000c38:	b2db      	uxtb	r3, r3
 8000c3a:	b299      	uxth	r1, r3
 8000c3c:	2301      	movs	r3, #1
 8000c3e:	9300      	str	r3, [sp, #0]
 8000c40:	2301      	movs	r3, #1
 8000c42:	683a      	ldr	r2, [r7, #0]
 8000c44:	68f8      	ldr	r0, [r7, #12]
 8000c46:	f004 f831 	bl	8004cac <HAL_I2C_Master_Transmit>
	HAL_StatusTypeDef hal_status = HAL_I2C_Master_Receive(hi2c, (dev_addr << 1) | 0x01, data_ptr, 1, I2C_TIMEOUT_SML);
 8000c4a:	79fb      	ldrb	r3, [r7, #7]
 8000c4c:	005b      	lsls	r3, r3, #1
 8000c4e:	b21b      	sxth	r3, r3
 8000c50:	f043 0301 	orr.w	r3, r3, #1
 8000c54:	b21b      	sxth	r3, r3
 8000c56:	b299      	uxth	r1, r3
 8000c58:	2301      	movs	r3, #1
 8000c5a:	9300      	str	r3, [sp, #0]
 8000c5c:	2301      	movs	r3, #1
 8000c5e:	68ba      	ldr	r2, [r7, #8]
 8000c60:	68f8      	ldr	r0, [r7, #12]
 8000c62:	f004 f921 	bl	8004ea8 <HAL_I2C_Master_Receive>
 8000c66:	4603      	mov	r3, r0
 8000c68:	75fb      	strb	r3, [r7, #23]
	return hal_status;
 8000c6a:	7dfb      	ldrb	r3, [r7, #23]
}
 8000c6c:	4618      	mov	r0, r3
 8000c6e:	3718      	adds	r7, #24
 8000c70:	46bd      	mov	sp, r7
 8000c72:	bd80      	pop	{r7, pc}

08000c74 <i2c_burst_read>:

HAL_StatusTypeDef i2c_burst_read(I2C_HandleTypeDef* hi2c, uint8_t dev_addr, uint8_t register_addr, uint8_t size, uint8_t data_buffer[size]) {
 8000c74:	b580      	push	{r7, lr}
 8000c76:	b086      	sub	sp, #24
 8000c78:	af02      	add	r7, sp, #8
 8000c7a:	6078      	str	r0, [r7, #4]
 8000c7c:	4608      	mov	r0, r1
 8000c7e:	4611      	mov	r1, r2
 8000c80:	461a      	mov	r2, r3
 8000c82:	4603      	mov	r3, r0
 8000c84:	70fb      	strb	r3, [r7, #3]
 8000c86:	460b      	mov	r3, r1
 8000c88:	70bb      	strb	r3, [r7, #2]
 8000c8a:	4613      	mov	r3, r2
 8000c8c:	707b      	strb	r3, [r7, #1]
	// In order to read multiple bytes, it is necessary to assert the most significant bit of the sub-address field.
	uint8_t addr = register_addr | 0x80;
 8000c8e:	78bb      	ldrb	r3, [r7, #2]
 8000c90:	f063 037f 	orn	r3, r3, #127	; 0x7f
 8000c94:	b2db      	uxtb	r3, r3
 8000c96:	73bb      	strb	r3, [r7, #14]
	HAL_I2C_Master_Transmit(hi2c, (dev_addr << 1) & 0xFE, &addr, 1, I2C_TIMEOUT_SML);
 8000c98:	78fb      	ldrb	r3, [r7, #3]
 8000c9a:	005b      	lsls	r3, r3, #1
 8000c9c:	b29b      	uxth	r3, r3
 8000c9e:	b2db      	uxtb	r3, r3
 8000ca0:	b299      	uxth	r1, r3
 8000ca2:	f107 020e 	add.w	r2, r7, #14
 8000ca6:	2301      	movs	r3, #1
 8000ca8:	9300      	str	r3, [sp, #0]
 8000caa:	2301      	movs	r3, #1
 8000cac:	6878      	ldr	r0, [r7, #4]
 8000cae:	f003 fffd 	bl	8004cac <HAL_I2C_Master_Transmit>
	HAL_StatusTypeDef hal_status =  HAL_I2C_Master_Receive(hi2c, (dev_addr << 1) | 0x01, data_buffer, size, I2C_TIMEOUT_LRG);
 8000cb2:	78fb      	ldrb	r3, [r7, #3]
 8000cb4:	005b      	lsls	r3, r3, #1
 8000cb6:	b21b      	sxth	r3, r3
 8000cb8:	f043 0301 	orr.w	r3, r3, #1
 8000cbc:	b21b      	sxth	r3, r3
 8000cbe:	b299      	uxth	r1, r3
 8000cc0:	787b      	ldrb	r3, [r7, #1]
 8000cc2:	b29b      	uxth	r3, r3
 8000cc4:	220a      	movs	r2, #10
 8000cc6:	9200      	str	r2, [sp, #0]
 8000cc8:	69ba      	ldr	r2, [r7, #24]
 8000cca:	6878      	ldr	r0, [r7, #4]
 8000ccc:	f004 f8ec 	bl	8004ea8 <HAL_I2C_Master_Receive>
 8000cd0:	4603      	mov	r3, r0
 8000cd2:	73fb      	strb	r3, [r7, #15]
	return hal_status;
 8000cd4:	7bfb      	ldrb	r3, [r7, #15]
}
 8000cd6:	4618      	mov	r0, r3
 8000cd8:	3710      	adds	r7, #16
 8000cda:	46bd      	mov	sp, r7
 8000cdc:	bd80      	pop	{r7, pc}

08000cde <i2c_write_reg>:
	HAL_I2C_Master_Transmit(hi2c, (dev_addr << 1) & 0xFE, &addr, 1, I2C_TIMEOUT_SML);
	HAL_StatusTypeDef hal_status =  HAL_I2C_Master_Receive(hi2c, (dev_addr << 1) | 0x01, data_buffer, size, I2C_TIMEOUT_LRG);
	return hal_status;
}

HAL_StatusTypeDef i2c_write_reg(I2C_HandleTypeDef* hi2c, uint8_t dev_addr, uint8_t* register_addr, uint8_t data) {
 8000cde:	b580      	push	{r7, lr}
 8000ce0:	b088      	sub	sp, #32
 8000ce2:	af02      	add	r7, sp, #8
 8000ce4:	60f8      	str	r0, [r7, #12]
 8000ce6:	607a      	str	r2, [r7, #4]
 8000ce8:	461a      	mov	r2, r3
 8000cea:	460b      	mov	r3, r1
 8000cec:	72fb      	strb	r3, [r7, #11]
 8000cee:	4613      	mov	r3, r2
 8000cf0:	72bb      	strb	r3, [r7, #10]
	uint8_t data_tx[2] = {*register_addr, data};
 8000cf2:	687b      	ldr	r3, [r7, #4]
 8000cf4:	781b      	ldrb	r3, [r3, #0]
 8000cf6:	753b      	strb	r3, [r7, #20]
 8000cf8:	7abb      	ldrb	r3, [r7, #10]
 8000cfa:	757b      	strb	r3, [r7, #21]
	HAL_StatusTypeDef hal_status = HAL_I2C_Master_Transmit(hi2c, (dev_addr << 1) & 0xFE, data_tx, 2, I2C_TIMEOUT_SML);
 8000cfc:	7afb      	ldrb	r3, [r7, #11]
 8000cfe:	005b      	lsls	r3, r3, #1
 8000d00:	b29b      	uxth	r3, r3
 8000d02:	b2db      	uxtb	r3, r3
 8000d04:	b299      	uxth	r1, r3
 8000d06:	f107 0214 	add.w	r2, r7, #20
 8000d0a:	2301      	movs	r3, #1
 8000d0c:	9300      	str	r3, [sp, #0]
 8000d0e:	2302      	movs	r3, #2
 8000d10:	68f8      	ldr	r0, [r7, #12]
 8000d12:	f003 ffcb 	bl	8004cac <HAL_I2C_Master_Transmit>
 8000d16:	4603      	mov	r3, r0
 8000d18:	75fb      	strb	r3, [r7, #23]
	return hal_status;
 8000d1a:	7dfb      	ldrb	r3, [r7, #23]
}
 8000d1c:	4618      	mov	r0, r3
 8000d1e:	3718      	adds	r7, #24
 8000d20:	46bd      	mov	sp, r7
 8000d22:	bd80      	pop	{r7, pc}

08000d24 <main>:
/**
  * @brief  The application entry point.
  * @retval int
  */
int main(void)
{
 8000d24:	b580      	push	{r7, lr}
 8000d26:	b084      	sub	sp, #16
 8000d28:	af02      	add	r7, sp, #8
  /* USER CODE END 1 */

  /* MCU Configuration--------------------------------------------------------*/

  /* Reset of all peripherals, Initializes the Flash interface and the Systick. */
  HAL_Init();
 8000d2a:	f002 f871 	bl	8002e10 <HAL_Init>
  /* USER CODE BEGIN Init */

  /* USER CODE END Init */

  /* Configure the system clock */
  SystemClock_Config();
 8000d2e:	f000 f8eb 	bl	8000f08 <SystemClock_Config>
  /* USER CODE BEGIN SysInit */

  /* USER CODE END SysInit */

  /* Initialize all configured peripherals */
  MX_GPIO_Init();
 8000d32:	f000 fb6b 	bl	800140c <MX_GPIO_Init>
  MX_DMA_Init();
 8000d36:	f000 fb33 	bl	80013a0 <MX_DMA_Init>
  MX_I2C1_Init();
 8000d3a:	f000 f989 	bl	8001050 <MX_I2C1_Init>
  MX_RTC_Init();
 8000d3e:	f000 fa07 	bl	8001150 <MX_RTC_Init>
  MX_SPI1_Init();
 8000d42:	f000 fa2b 	bl	800119c <MX_SPI1_Init>
  MX_TIM6_Init();
 8000d46:	f000 fa95 	bl	8001274 <MX_TIM6_Init>
  MX_USART2_UART_Init();
 8000d4a:	f000 faff 	bl	800134c <MX_USART2_UART_Init>
  MX_I2C2_Init();
 8000d4e:	f000 f9bf 	bl	80010d0 <MX_I2C2_Init>
  MX_SPI2_Init();
 8000d52:	f000 fa59 	bl	8001208 <MX_SPI2_Init>
  MX_CAN2_Init();
 8000d56:	f000 f943 	bl	8000fe0 <MX_CAN2_Init>
  MX_TIM7_Init();
 8000d5a:	f000 fac1 	bl	80012e0 <MX_TIM7_Init>
  /* USER CODE BEGIN 2 */
  systemInit();
 8000d5e:	f000 fc35 	bl	80015cc <systemInit>
  {
    /* USER CODE END WHILE */

    /* USER CODE BEGIN 3 */
	  // Handle UART receive flag
	  if(uart2_rec_flag == FLAG_SET) {
 8000d62:	4b55      	ldr	r3, [pc, #340]	; (8000eb8 <main+0x194>)
 8000d64:	781b      	ldrb	r3, [r3, #0]
 8000d66:	2b01      	cmp	r3, #1
 8000d68:	d104      	bne.n	8000d74 <main+0x50>
		  handleUART();
 8000d6a:	f000 fe15 	bl	8001998 <handleUART>
		  uart2_rec_flag = FLAG_RESET;
 8000d6e:	4b52      	ldr	r3, [pc, #328]	; (8000eb8 <main+0x194>)
 8000d70:	2200      	movs	r2, #0
 8000d72:	701a      	strb	r2, [r3, #0]
	  }

	  // Handle CAN receive flag
	  if(CAN_RX_Flag == FLAG_SET) {
 8000d74:	4b51      	ldr	r3, [pc, #324]	; (8000ebc <main+0x198>)
 8000d76:	781b      	ldrb	r3, [r3, #0]
 8000d78:	2b01      	cmp	r3, #1
 8000d7a:	d10c      	bne.n	8000d96 <main+0x72>
		  handleCAN();
 8000d7c:	f000 fda2 	bl	80018c4 <handleCAN>
		  HAL_GPIO_TogglePin(led_green.GPIOx, led_green.GPIO_Pin);
 8000d80:	4b4f      	ldr	r3, [pc, #316]	; (8000ec0 <main+0x19c>)
 8000d82:	681b      	ldr	r3, [r3, #0]
 8000d84:	4a4e      	ldr	r2, [pc, #312]	; (8000ec0 <main+0x19c>)
 8000d86:	8892      	ldrh	r2, [r2, #4]
 8000d88:	4611      	mov	r1, r2
 8000d8a:	4618      	mov	r0, r3
 8000d8c:	f003 fe2f 	bl	80049ee <HAL_GPIO_TogglePin>
		  CAN_RX_Flag = FLAG_RESET;
 8000d90:	4b4a      	ldr	r3, [pc, #296]	; (8000ebc <main+0x198>)
 8000d92:	2200      	movs	r2, #0
 8000d94:	701a      	strb	r2, [r3, #0]
	  }

	  if (tim7_overflow_flag == FLAG_SET) {
 8000d96:	4b4b      	ldr	r3, [pc, #300]	; (8000ec4 <main+0x1a0>)
 8000d98:	781b      	ldrb	r3, [r3, #0]
 8000d9a:	2b01      	cmp	r3, #1
 8000d9c:	d116      	bne.n	8000dcc <main+0xa8>
		  HAL_GPIO_TogglePin(led_orange.GPIOx, led_orange.GPIO_Pin);		// Toggle LED
 8000d9e:	4b4a      	ldr	r3, [pc, #296]	; (8000ec8 <main+0x1a4>)
 8000da0:	681b      	ldr	r3, [r3, #0]
 8000da2:	4a49      	ldr	r2, [pc, #292]	; (8000ec8 <main+0x1a4>)
 8000da4:	8892      	ldrh	r2, [r2, #4]
 8000da6:	4611      	mov	r1, r2
 8000da8:	4618      	mov	r0, r3
 8000daa:	f003 fe20 	bl	80049ee <HAL_GPIO_TogglePin>
		  sysStatus = systemStatus(&hspi1, &hspi2, i2c_bme280, i2c_accel);
 8000dae:	4b47      	ldr	r3, [pc, #284]	; (8000ecc <main+0x1a8>)
 8000db0:	681a      	ldr	r2, [r3, #0]
 8000db2:	4b47      	ldr	r3, [pc, #284]	; (8000ed0 <main+0x1ac>)
 8000db4:	681b      	ldr	r3, [r3, #0]
 8000db6:	4947      	ldr	r1, [pc, #284]	; (8000ed4 <main+0x1b0>)
 8000db8:	4847      	ldr	r0, [pc, #284]	; (8000ed8 <main+0x1b4>)
 8000dba:	f000 ff87 	bl	8001ccc <systemStatus>
 8000dbe:	4603      	mov	r3, r0
 8000dc0:	461a      	mov	r2, r3
 8000dc2:	4b46      	ldr	r3, [pc, #280]	; (8000edc <main+0x1b8>)
 8000dc4:	701a      	strb	r2, [r3, #0]
		  tim7_overflow_flag = FLAG_RESET;
 8000dc6:	4b3f      	ldr	r3, [pc, #252]	; (8000ec4 <main+0x1a0>)
 8000dc8:	2200      	movs	r2, #0
 8000dca:	701a      	strb	r2, [r3, #0]
	  }

	  // Handle Timer 6 overflow flag
	  if(tim6_overflow_flag == FLAG_SET) {
 8000dcc:	4b44      	ldr	r3, [pc, #272]	; (8000ee0 <main+0x1bc>)
 8000dce:	781b      	ldrb	r3, [r3, #0]
 8000dd0:	2b01      	cmp	r3, #1
 8000dd2:	d10a      	bne.n	8000dea <main+0xc6>
		  readAllSensors(i2c_accel, i2c_bme280, &hrtc);
 8000dd4:	4b3e      	ldr	r3, [pc, #248]	; (8000ed0 <main+0x1ac>)
 8000dd6:	681b      	ldr	r3, [r3, #0]
 8000dd8:	4a3c      	ldr	r2, [pc, #240]	; (8000ecc <main+0x1a8>)
 8000dda:	6811      	ldr	r1, [r2, #0]
 8000ddc:	4a41      	ldr	r2, [pc, #260]	; (8000ee4 <main+0x1c0>)
 8000dde:	4618      	mov	r0, r3
 8000de0:	f001 f9da 	bl	8002198 <readAllSensors>
		  tim6_overflow_flag = FLAG_RESET;
 8000de4:	4b3e      	ldr	r3, [pc, #248]	; (8000ee0 <main+0x1bc>)
 8000de6:	2200      	movs	r2, #0
 8000de8:	701a      	strb	r2, [r3, #0]
	  }

	  // Write data to flash when buffer is full
	  if(byte_tracker > (PAGE_SIZE - READ_SIZE)) {
 8000dea:	4b3f      	ldr	r3, [pc, #252]	; (8000ee8 <main+0x1c4>)
 8000dec:	881b      	ldrh	r3, [r3, #0]
 8000dee:	2beb      	cmp	r3, #235	; 0xeb
 8000df0:	d952      	bls.n	8000e98 <main+0x174>
		  GPIO_PinState flight_mode = HAL_GPIO_ReadPin(jmp_flight.GPIOx, jmp_flight.GPIO_Pin);
 8000df2:	4b3e      	ldr	r3, [pc, #248]	; (8000eec <main+0x1c8>)
 8000df4:	681b      	ldr	r3, [r3, #0]
 8000df6:	4a3d      	ldr	r2, [pc, #244]	; (8000eec <main+0x1c8>)
 8000df8:	8892      	ldrh	r2, [r2, #4]
 8000dfa:	4611      	mov	r1, r2
 8000dfc:	4618      	mov	r0, r3
 8000dfe:	f003 fdc5 	bl	800498c <HAL_GPIO_ReadPin>
 8000e02:	4603      	mov	r3, r0
 8000e04:	71fb      	strb	r3, [r7, #7]
		  if((flight_mode & !(end_of_flash)) == FLAG_SET) {
 8000e06:	79fb      	ldrb	r3, [r7, #7]
 8000e08:	4a39      	ldr	r2, [pc, #228]	; (8000ef0 <main+0x1cc>)
 8000e0a:	7812      	ldrb	r2, [r2, #0]
 8000e0c:	2a00      	cmp	r2, #0
 8000e0e:	bf0c      	ite	eq
 8000e10:	2201      	moveq	r2, #1
 8000e12:	2200      	movne	r2, #0
 8000e14:	b2d2      	uxtb	r2, r2
 8000e16:	4013      	ands	r3, r2
 8000e18:	2b01      	cmp	r3, #1
 8000e1a:	d133      	bne.n	8000e84 <main+0x160>
			  HAL_GPIO_WritePin(led_green.GPIOx, led_green.GPIO_Pin, GPIO_PIN_SET);		// Toggle LED when writing data
 8000e1c:	4b28      	ldr	r3, [pc, #160]	; (8000ec0 <main+0x19c>)
 8000e1e:	681b      	ldr	r3, [r3, #0]
 8000e20:	4a27      	ldr	r2, [pc, #156]	; (8000ec0 <main+0x19c>)
 8000e22:	8891      	ldrh	r1, [r2, #4]
 8000e24:	2201      	movs	r2, #1
 8000e26:	4618      	mov	r0, r3
 8000e28:	f003 fdc8 	bl	80049bc <HAL_GPIO_WritePin>

			  write_data_spi_dma(data_buffer_tx[buffer_tracker], &hspi1, next_blank_page, cs_spi1);
 8000e2c:	4b31      	ldr	r3, [pc, #196]	; (8000ef4 <main+0x1d0>)
 8000e2e:	781b      	ldrb	r3, [r3, #0]
 8000e30:	021b      	lsls	r3, r3, #8
 8000e32:	4a31      	ldr	r2, [pc, #196]	; (8000ef8 <main+0x1d4>)
 8000e34:	1898      	adds	r0, r3, r2
 8000e36:	4b31      	ldr	r3, [pc, #196]	; (8000efc <main+0x1d8>)
 8000e38:	6819      	ldr	r1, [r3, #0]
 8000e3a:	4b31      	ldr	r3, [pc, #196]	; (8000f00 <main+0x1dc>)
 8000e3c:	685a      	ldr	r2, [r3, #4]
 8000e3e:	9200      	str	r2, [sp, #0]
 8000e40:	681b      	ldr	r3, [r3, #0]
 8000e42:	460a      	mov	r2, r1
 8000e44:	4924      	ldr	r1, [pc, #144]	; (8000ed8 <main+0x1b4>)
 8000e46:	f7ff fdc5 	bl	80009d4 <write_data_spi_dma>
			  write_data_spi_dma(data_buffer_tx[buffer_tracker], &hspi2, next_blank_page, cs_spi2);
 8000e4a:	4b2a      	ldr	r3, [pc, #168]	; (8000ef4 <main+0x1d0>)
 8000e4c:	781b      	ldrb	r3, [r3, #0]
 8000e4e:	021b      	lsls	r3, r3, #8
 8000e50:	4a29      	ldr	r2, [pc, #164]	; (8000ef8 <main+0x1d4>)
 8000e52:	1898      	adds	r0, r3, r2
 8000e54:	4b29      	ldr	r3, [pc, #164]	; (8000efc <main+0x1d8>)
 8000e56:	6819      	ldr	r1, [r3, #0]
 8000e58:	4b2a      	ldr	r3, [pc, #168]	; (8000f04 <main+0x1e0>)
 8000e5a:	685a      	ldr	r2, [r3, #4]
 8000e5c:	9200      	str	r2, [sp, #0]
 8000e5e:	681b      	ldr	r3, [r3, #0]
 8000e60:	460a      	mov	r2, r1
 8000e62:	491c      	ldr	r1, [pc, #112]	; (8000ed4 <main+0x1b0>)
 8000e64:	f7ff fdb6 	bl	80009d4 <write_data_spi_dma>
			  next_blank_page += PAGE_SIZE;
 8000e68:	4b24      	ldr	r3, [pc, #144]	; (8000efc <main+0x1d8>)
 8000e6a:	681b      	ldr	r3, [r3, #0]
 8000e6c:	f503 7380 	add.w	r3, r3, #256	; 0x100
 8000e70:	4a22      	ldr	r2, [pc, #136]	; (8000efc <main+0x1d8>)
 8000e72:	6013      	str	r3, [r2, #0]

			  HAL_GPIO_WritePin(led_green.GPIOx, led_green.GPIO_Pin, GPIO_PIN_RESET);		// Toggle LED when writing data
 8000e74:	4b12      	ldr	r3, [pc, #72]	; (8000ec0 <main+0x19c>)
 8000e76:	681b      	ldr	r3, [r3, #0]
 8000e78:	4a11      	ldr	r2, [pc, #68]	; (8000ec0 <main+0x19c>)
 8000e7a:	8891      	ldrh	r1, [r2, #4]
 8000e7c:	2200      	movs	r2, #0
 8000e7e:	4618      	mov	r0, r3
 8000e80:	f003 fd9c 	bl	80049bc <HAL_GPIO_WritePin>
		  }

		// Reset the buffer trackers
		buffer_tracker = buffer_tracker ^ 0x01;
 8000e84:	4b1b      	ldr	r3, [pc, #108]	; (8000ef4 <main+0x1d0>)
 8000e86:	781b      	ldrb	r3, [r3, #0]
 8000e88:	f083 0301 	eor.w	r3, r3, #1
 8000e8c:	b2da      	uxtb	r2, r3
 8000e8e:	4b19      	ldr	r3, [pc, #100]	; (8000ef4 <main+0x1d0>)
 8000e90:	701a      	strb	r2, [r3, #0]
		byte_tracker = 0;
 8000e92:	4b15      	ldr	r3, [pc, #84]	; (8000ee8 <main+0x1c4>)
 8000e94:	2200      	movs	r2, #0
 8000e96:	801a      	strh	r2, [r3, #0]
	  }

	  if(next_blank_page == (NUM_OF_PAGES*PAGE_SIZE)) {
 8000e98:	4b18      	ldr	r3, [pc, #96]	; (8000efc <main+0x1d8>)
 8000e9a:	681b      	ldr	r3, [r3, #0]
 8000e9c:	f1b3 7f80 	cmp.w	r3, #16777216	; 0x1000000
 8000ea0:	f47f af5f 	bne.w	8000d62 <main+0x3e>
		  next_blank_page = find_next_blank_page(&hspi1, &end_of_flash, cs_spi1);
 8000ea4:	4b16      	ldr	r3, [pc, #88]	; (8000f00 <main+0x1dc>)
 8000ea6:	cb0c      	ldmia	r3, {r2, r3}
 8000ea8:	4911      	ldr	r1, [pc, #68]	; (8000ef0 <main+0x1cc>)
 8000eaa:	480b      	ldr	r0, [pc, #44]	; (8000ed8 <main+0x1b4>)
 8000eac:	f7ff fdc0 	bl	8000a30 <find_next_blank_page>
 8000eb0:	4603      	mov	r3, r0
 8000eb2:	4a12      	ldr	r2, [pc, #72]	; (8000efc <main+0x1d8>)
 8000eb4:	6013      	str	r3, [r2, #0]
	  if(uart2_rec_flag == FLAG_SET) {
 8000eb6:	e754      	b.n	8000d62 <main+0x3e>
 8000eb8:	2000038a 	.word	0x2000038a
 8000ebc:	200003b4 	.word	0x200003b4
 8000ec0:	200005e4 	.word	0x200005e4
 8000ec4:	200003b6 	.word	0x200003b6
 8000ec8:	200005dc 	.word	0x200005dc
 8000ecc:	20000384 	.word	0x20000384
 8000ed0:	20000380 	.word	0x20000380
 8000ed4:	20000190 	.word	0x20000190
 8000ed8:	20000138 	.word	0x20000138
 8000edc:	20000614 	.word	0x20000614
 8000ee0:	200003b5 	.word	0x200003b5
 8000ee4:	20000118 	.word	0x20000118
 8000ee8:	200005d8 	.word	0x200005d8
 8000eec:	2000060c 	.word	0x2000060c
 8000ef0:	200005da 	.word	0x200005da
 8000ef4:	200005b8 	.word	0x200005b8
 8000ef8:	200003b8 	.word	0x200003b8
 8000efc:	200005d4 	.word	0x200005d4
 8000f00:	200005ec 	.word	0x200005ec
 8000f04:	200005fc 	.word	0x200005fc

08000f08 <SystemClock_Config>:
/**
  * @brief System Clock Configuration
  * @retval None
  */
void SystemClock_Config(void)
{
 8000f08:	b580      	push	{r7, lr}
 8000f0a:	b094      	sub	sp, #80	; 0x50
 8000f0c:	af00      	add	r7, sp, #0
  RCC_OscInitTypeDef RCC_OscInitStruct = {0};
 8000f0e:	f107 0320 	add.w	r3, r7, #32
 8000f12:	2230      	movs	r2, #48	; 0x30
 8000f14:	2100      	movs	r1, #0
 8000f16:	4618      	mov	r0, r3
 8000f18:	f008 f9b0 	bl	800927c <memset>
  RCC_ClkInitTypeDef RCC_ClkInitStruct = {0};
 8000f1c:	f107 030c 	add.w	r3, r7, #12
 8000f20:	2200      	movs	r2, #0
 8000f22:	601a      	str	r2, [r3, #0]
 8000f24:	605a      	str	r2, [r3, #4]
 8000f26:	609a      	str	r2, [r3, #8]
 8000f28:	60da      	str	r2, [r3, #12]
 8000f2a:	611a      	str	r2, [r3, #16]

  /** Configure the main internal regulator output voltage
  */
  __HAL_RCC_PWR_CLK_ENABLE();
 8000f2c:	2300      	movs	r3, #0
 8000f2e:	60bb      	str	r3, [r7, #8]
 8000f30:	4b29      	ldr	r3, [pc, #164]	; (8000fd8 <SystemClock_Config+0xd0>)
 8000f32:	6c1b      	ldr	r3, [r3, #64]	; 0x40
 8000f34:	4a28      	ldr	r2, [pc, #160]	; (8000fd8 <SystemClock_Config+0xd0>)
 8000f36:	f043 5380 	orr.w	r3, r3, #268435456	; 0x10000000
 8000f3a:	6413      	str	r3, [r2, #64]	; 0x40
 8000f3c:	4b26      	ldr	r3, [pc, #152]	; (8000fd8 <SystemClock_Config+0xd0>)
 8000f3e:	6c1b      	ldr	r3, [r3, #64]	; 0x40
 8000f40:	f003 5380 	and.w	r3, r3, #268435456	; 0x10000000
 8000f44:	60bb      	str	r3, [r7, #8]
 8000f46:	68bb      	ldr	r3, [r7, #8]
  __HAL_PWR_VOLTAGESCALING_CONFIG(PWR_REGULATOR_VOLTAGE_SCALE1);
 8000f48:	2300      	movs	r3, #0
 8000f4a:	607b      	str	r3, [r7, #4]
 8000f4c:	4b23      	ldr	r3, [pc, #140]	; (8000fdc <SystemClock_Config+0xd4>)
 8000f4e:	681b      	ldr	r3, [r3, #0]
 8000f50:	4a22      	ldr	r2, [pc, #136]	; (8000fdc <SystemClock_Config+0xd4>)
 8000f52:	f443 4340 	orr.w	r3, r3, #49152	; 0xc000
 8000f56:	6013      	str	r3, [r2, #0]
 8000f58:	4b20      	ldr	r3, [pc, #128]	; (8000fdc <SystemClock_Config+0xd4>)
 8000f5a:	681b      	ldr	r3, [r3, #0]
 8000f5c:	f403 4340 	and.w	r3, r3, #49152	; 0xc000
 8000f60:	607b      	str	r3, [r7, #4]
 8000f62:	687b      	ldr	r3, [r7, #4]

  /** Initializes the RCC Oscillators according to the specified parameters
  * in the RCC_OscInitTypeDef structure.
  */
  RCC_OscInitStruct.OscillatorType = RCC_OSCILLATORTYPE_LSI|RCC_OSCILLATORTYPE_HSE;
 8000f64:	2309      	movs	r3, #9
 8000f66:	623b      	str	r3, [r7, #32]
  RCC_OscInitStruct.HSEState = RCC_HSE_ON;
 8000f68:	f44f 3380 	mov.w	r3, #65536	; 0x10000
 8000f6c:	627b      	str	r3, [r7, #36]	; 0x24
  RCC_OscInitStruct.LSIState = RCC_LSI_ON;
 8000f6e:	2301      	movs	r3, #1
 8000f70:	637b      	str	r3, [r7, #52]	; 0x34
  RCC_OscInitStruct.PLL.PLLState = RCC_PLL_ON;
 8000f72:	2302      	movs	r3, #2
 8000f74:	63bb      	str	r3, [r7, #56]	; 0x38
  RCC_OscInitStruct.PLL.PLLSource = RCC_PLLSOURCE_HSE;
 8000f76:	f44f 0380 	mov.w	r3, #4194304	; 0x400000
 8000f7a:	63fb      	str	r3, [r7, #60]	; 0x3c
  RCC_OscInitStruct.PLL.PLLM = 25;
 8000f7c:	2319      	movs	r3, #25
 8000f7e:	643b      	str	r3, [r7, #64]	; 0x40
  RCC_OscInitStruct.PLL.PLLN = 336;
 8000f80:	f44f 73a8 	mov.w	r3, #336	; 0x150
 8000f84:	647b      	str	r3, [r7, #68]	; 0x44
  RCC_OscInitStruct.PLL.PLLP = RCC_PLLP_DIV2;
 8000f86:	2302      	movs	r3, #2
 8000f88:	64bb      	str	r3, [r7, #72]	; 0x48
  RCC_OscInitStruct.PLL.PLLQ = 4;
 8000f8a:	2304      	movs	r3, #4
 8000f8c:	64fb      	str	r3, [r7, #76]	; 0x4c
  if (HAL_RCC_OscConfig(&RCC_OscInitStruct) != HAL_OK)
 8000f8e:	f107 0320 	add.w	r3, r7, #32
 8000f92:	4618      	mov	r0, r3
 8000f94:	f004 fdbc 	bl	8005b10 <HAL_RCC_OscConfig>
 8000f98:	4603      	mov	r3, r0
 8000f9a:	2b00      	cmp	r3, #0
 8000f9c:	d001      	beq.n	8000fa2 <SystemClock_Config+0x9a>
  {
    Error_Handler();
 8000f9e:	f000 fe8f 	bl	8001cc0 <Error_Handler>
  }

  /** Initializes the CPU, AHB and APB buses clocks
  */
  RCC_ClkInitStruct.ClockType = RCC_CLOCKTYPE_HCLK|RCC_CLOCKTYPE_SYSCLK
 8000fa2:	230f      	movs	r3, #15
 8000fa4:	60fb      	str	r3, [r7, #12]
                              |RCC_CLOCKTYPE_PCLK1|RCC_CLOCKTYPE_PCLK2;
  RCC_ClkInitStruct.SYSCLKSource = RCC_SYSCLKSOURCE_PLLCLK;
 8000fa6:	2302      	movs	r3, #2
 8000fa8:	613b      	str	r3, [r7, #16]
  RCC_ClkInitStruct.AHBCLKDivider = RCC_SYSCLK_DIV1;
 8000faa:	2300      	movs	r3, #0
 8000fac:	617b      	str	r3, [r7, #20]
  RCC_ClkInitStruct.APB1CLKDivider = RCC_HCLK_DIV4;
 8000fae:	f44f 53a0 	mov.w	r3, #5120	; 0x1400
 8000fb2:	61bb      	str	r3, [r7, #24]
  RCC_ClkInitStruct.APB2CLKDivider = RCC_HCLK_DIV2;
 8000fb4:	f44f 5380 	mov.w	r3, #4096	; 0x1000
 8000fb8:	61fb      	str	r3, [r7, #28]

  if (HAL_RCC_ClockConfig(&RCC_ClkInitStruct, FLASH_LATENCY_5) != HAL_OK)
 8000fba:	f107 030c 	add.w	r3, r7, #12
 8000fbe:	2105      	movs	r1, #5
 8000fc0:	4618      	mov	r0, r3
 8000fc2:	f005 f81d 	bl	8006000 <HAL_RCC_ClockConfig>
 8000fc6:	4603      	mov	r3, r0
 8000fc8:	2b00      	cmp	r3, #0
 8000fca:	d001      	beq.n	8000fd0 <SystemClock_Config+0xc8>
  {
    Error_Handler();
 8000fcc:	f000 fe78 	bl	8001cc0 <Error_Handler>
  }
}
 8000fd0:	bf00      	nop
 8000fd2:	3750      	adds	r7, #80	; 0x50
 8000fd4:	46bd      	mov	sp, r7
 8000fd6:	bd80      	pop	{r7, pc}
 8000fd8:	40023800 	.word	0x40023800
 8000fdc:	40007000 	.word	0x40007000

08000fe0 <MX_CAN2_Init>:
  * @brief CAN2 Initialization Function
  * @param None
  * @retval None
  */
static void MX_CAN2_Init(void)
{
 8000fe0:	b580      	push	{r7, lr}
 8000fe2:	af00      	add	r7, sp, #0
  /* USER CODE END CAN2_Init 0 */

  /* USER CODE BEGIN CAN2_Init 1 */

  /* USER CODE END CAN2_Init 1 */
  hcan2.Instance = CAN2;
 8000fe4:	4b18      	ldr	r3, [pc, #96]	; (8001048 <MX_CAN2_Init+0x68>)
 8000fe6:	4a19      	ldr	r2, [pc, #100]	; (800104c <MX_CAN2_Init+0x6c>)
 8000fe8:	601a      	str	r2, [r3, #0]
  hcan2.Init.Prescaler = 24;
 8000fea:	4b17      	ldr	r3, [pc, #92]	; (8001048 <MX_CAN2_Init+0x68>)
 8000fec:	2218      	movs	r2, #24
 8000fee:	605a      	str	r2, [r3, #4]
  hcan2.Init.Mode = CAN_MODE_NORMAL;
 8000ff0:	4b15      	ldr	r3, [pc, #84]	; (8001048 <MX_CAN2_Init+0x68>)
 8000ff2:	2200      	movs	r2, #0
 8000ff4:	609a      	str	r2, [r3, #8]
  hcan2.Init.SyncJumpWidth = CAN_SJW_2TQ;
 8000ff6:	4b14      	ldr	r3, [pc, #80]	; (8001048 <MX_CAN2_Init+0x68>)
 8000ff8:	f04f 7280 	mov.w	r2, #16777216	; 0x1000000
 8000ffc:	60da      	str	r2, [r3, #12]
  hcan2.Init.TimeSeg1 = CAN_BS1_11TQ;
 8000ffe:	4b12      	ldr	r3, [pc, #72]	; (8001048 <MX_CAN2_Init+0x68>)
 8001000:	f44f 2220 	mov.w	r2, #655360	; 0xa0000
 8001004:	611a      	str	r2, [r3, #16]
  hcan2.Init.TimeSeg2 = CAN_BS2_2TQ;
 8001006:	4b10      	ldr	r3, [pc, #64]	; (8001048 <MX_CAN2_Init+0x68>)
 8001008:	f44f 1280 	mov.w	r2, #1048576	; 0x100000
 800100c:	615a      	str	r2, [r3, #20]
  hcan2.Init.TimeTriggeredMode = DISABLE;
 800100e:	4b0e      	ldr	r3, [pc, #56]	; (8001048 <MX_CAN2_Init+0x68>)
 8001010:	2200      	movs	r2, #0
 8001012:	761a      	strb	r2, [r3, #24]
  hcan2.Init.AutoBusOff = DISABLE;
 8001014:	4b0c      	ldr	r3, [pc, #48]	; (8001048 <MX_CAN2_Init+0x68>)
 8001016:	2200      	movs	r2, #0
 8001018:	765a      	strb	r2, [r3, #25]
  hcan2.Init.AutoWakeUp = DISABLE;
 800101a:	4b0b      	ldr	r3, [pc, #44]	; (8001048 <MX_CAN2_Init+0x68>)
 800101c:	2200      	movs	r2, #0
 800101e:	769a      	strb	r2, [r3, #26]
  hcan2.Init.AutoRetransmission = DISABLE;
 8001020:	4b09      	ldr	r3, [pc, #36]	; (8001048 <MX_CAN2_Init+0x68>)
 8001022:	2200      	movs	r2, #0
 8001024:	76da      	strb	r2, [r3, #27]
  hcan2.Init.ReceiveFifoLocked = DISABLE;
 8001026:	4b08      	ldr	r3, [pc, #32]	; (8001048 <MX_CAN2_Init+0x68>)
 8001028:	2200      	movs	r2, #0
 800102a:	771a      	strb	r2, [r3, #28]
  hcan2.Init.TransmitFifoPriority = DISABLE;
 800102c:	4b06      	ldr	r3, [pc, #24]	; (8001048 <MX_CAN2_Init+0x68>)
 800102e:	2200      	movs	r2, #0
 8001030:	775a      	strb	r2, [r3, #29]
  if (HAL_CAN_Init(&hcan2) != HAL_OK)
 8001032:	4805      	ldr	r0, [pc, #20]	; (8001048 <MX_CAN2_Init+0x68>)
 8001034:	f001 ff82 	bl	8002f3c <HAL_CAN_Init>
 8001038:	4603      	mov	r3, r0
 800103a:	2b00      	cmp	r3, #0
 800103c:	d001      	beq.n	8001042 <MX_CAN2_Init+0x62>
  {
    Error_Handler();
 800103e:	f000 fe3f 	bl	8001cc0 <Error_Handler>
  }
  /* USER CODE BEGIN CAN2_Init 2 */

  /* USER CODE END CAN2_Init 2 */

}
 8001042:	bf00      	nop
 8001044:	bd80      	pop	{r7, pc}
 8001046:	bf00      	nop
 8001048:	20000048 	.word	0x20000048
 800104c:	40006800 	.word	0x40006800

08001050 <MX_I2C1_Init>:
  * @brief I2C1 Initialization Function
  * @param None
  * @retval None
  */
static void MX_I2C1_Init(void)
{
 8001050:	b580      	push	{r7, lr}
 8001052:	af00      	add	r7, sp, #0
  /* USER CODE END I2C1_Init 0 */

  /* USER CODE BEGIN I2C1_Init 1 */

  /* USER CODE END I2C1_Init 1 */
  hi2c1.Instance = I2C1;
 8001054:	4b1b      	ldr	r3, [pc, #108]	; (80010c4 <MX_I2C1_Init+0x74>)
 8001056:	4a1c      	ldr	r2, [pc, #112]	; (80010c8 <MX_I2C1_Init+0x78>)
 8001058:	601a      	str	r2, [r3, #0]
  hi2c1.Init.ClockSpeed = 100000;
 800105a:	4b1a      	ldr	r3, [pc, #104]	; (80010c4 <MX_I2C1_Init+0x74>)
 800105c:	4a1b      	ldr	r2, [pc, #108]	; (80010cc <MX_I2C1_Init+0x7c>)
 800105e:	605a      	str	r2, [r3, #4]
  hi2c1.Init.DutyCycle = I2C_DUTYCYCLE_2;
 8001060:	4b18      	ldr	r3, [pc, #96]	; (80010c4 <MX_I2C1_Init+0x74>)
 8001062:	2200      	movs	r2, #0
 8001064:	609a      	str	r2, [r3, #8]
  hi2c1.Init.OwnAddress1 = 0;
 8001066:	4b17      	ldr	r3, [pc, #92]	; (80010c4 <MX_I2C1_Init+0x74>)
 8001068:	2200      	movs	r2, #0
 800106a:	60da      	str	r2, [r3, #12]
  hi2c1.Init.AddressingMode = I2C_ADDRESSINGMODE_7BIT;
 800106c:	4b15      	ldr	r3, [pc, #84]	; (80010c4 <MX_I2C1_Init+0x74>)
 800106e:	f44f 4280 	mov.w	r2, #16384	; 0x4000
 8001072:	611a      	str	r2, [r3, #16]
  hi2c1.Init.DualAddressMode = I2C_DUALADDRESS_DISABLE;
 8001074:	4b13      	ldr	r3, [pc, #76]	; (80010c4 <MX_I2C1_Init+0x74>)
 8001076:	2200      	movs	r2, #0
 8001078:	615a      	str	r2, [r3, #20]
  hi2c1.Init.OwnAddress2 = 0;
 800107a:	4b12      	ldr	r3, [pc, #72]	; (80010c4 <MX_I2C1_Init+0x74>)
 800107c:	2200      	movs	r2, #0
 800107e:	619a      	str	r2, [r3, #24]
  hi2c1.Init.GeneralCallMode = I2C_GENERALCALL_DISABLE;
 8001080:	4b10      	ldr	r3, [pc, #64]	; (80010c4 <MX_I2C1_Init+0x74>)
 8001082:	2200      	movs	r2, #0
 8001084:	61da      	str	r2, [r3, #28]
  hi2c1.Init.NoStretchMode = I2C_NOSTRETCH_DISABLE;
 8001086:	4b0f      	ldr	r3, [pc, #60]	; (80010c4 <MX_I2C1_Init+0x74>)
 8001088:	2200      	movs	r2, #0
 800108a:	621a      	str	r2, [r3, #32]
  if (HAL_I2C_Init(&hi2c1) != HAL_OK)
 800108c:	480d      	ldr	r0, [pc, #52]	; (80010c4 <MX_I2C1_Init+0x74>)
 800108e:	f003 fcc9 	bl	8004a24 <HAL_I2C_Init>
 8001092:	4603      	mov	r3, r0
 8001094:	2b00      	cmp	r3, #0
 8001096:	d001      	beq.n	800109c <MX_I2C1_Init+0x4c>
  {
    Error_Handler();
 8001098:	f000 fe12 	bl	8001cc0 <Error_Handler>
  }

  /** Configure Analogue filter
  */
  if (HAL_I2CEx_ConfigAnalogFilter(&hi2c1, I2C_ANALOGFILTER_ENABLE) != HAL_OK)
 800109c:	2100      	movs	r1, #0
 800109e:	4809      	ldr	r0, [pc, #36]	; (80010c4 <MX_I2C1_Init+0x74>)
 80010a0:	f004 fcba 	bl	8005a18 <HAL_I2CEx_ConfigAnalogFilter>
 80010a4:	4603      	mov	r3, r0
 80010a6:	2b00      	cmp	r3, #0
 80010a8:	d001      	beq.n	80010ae <MX_I2C1_Init+0x5e>
  {
    Error_Handler();
 80010aa:	f000 fe09 	bl	8001cc0 <Error_Handler>
  }

  /** Configure Digital filter
  */
  if (HAL_I2CEx_ConfigDigitalFilter(&hi2c1, 0) != HAL_OK)
 80010ae:	2100      	movs	r1, #0
 80010b0:	4804      	ldr	r0, [pc, #16]	; (80010c4 <MX_I2C1_Init+0x74>)
 80010b2:	f004 fced 	bl	8005a90 <HAL_I2CEx_ConfigDigitalFilter>
 80010b6:	4603      	mov	r3, r0
 80010b8:	2b00      	cmp	r3, #0
 80010ba:	d001      	beq.n	80010c0 <MX_I2C1_Init+0x70>
  {
    Error_Handler();
 80010bc:	f000 fe00 	bl	8001cc0 <Error_Handler>
  }
  /* USER CODE BEGIN I2C1_Init 2 */

  /* USER CODE END I2C1_Init 2 */

}
 80010c0:	bf00      	nop
 80010c2:	bd80      	pop	{r7, pc}
 80010c4:	20000070 	.word	0x20000070
 80010c8:	40005400 	.word	0x40005400
 80010cc:	000186a0 	.word	0x000186a0

080010d0 <MX_I2C2_Init>:
  * @brief I2C2 Initialization Function
  * @param None
  * @retval None
  */
static void MX_I2C2_Init(void)
{
 80010d0:	b580      	push	{r7, lr}
 80010d2:	af00      	add	r7, sp, #0
  /* USER CODE END I2C2_Init 0 */

  /* USER CODE BEGIN I2C2_Init 1 */

  /* USER CODE END I2C2_Init 1 */
  hi2c2.Instance = I2C2;
 80010d4:	4b1b      	ldr	r3, [pc, #108]	; (8001144 <MX_I2C2_Init+0x74>)
 80010d6:	4a1c      	ldr	r2, [pc, #112]	; (8001148 <MX_I2C2_Init+0x78>)
 80010d8:	601a      	str	r2, [r3, #0]
  hi2c2.Init.ClockSpeed = 100000;
 80010da:	4b1a      	ldr	r3, [pc, #104]	; (8001144 <MX_I2C2_Init+0x74>)
 80010dc:	4a1b      	ldr	r2, [pc, #108]	; (800114c <MX_I2C2_Init+0x7c>)
 80010de:	605a      	str	r2, [r3, #4]
  hi2c2.Init.DutyCycle = I2C_DUTYCYCLE_2;
 80010e0:	4b18      	ldr	r3, [pc, #96]	; (8001144 <MX_I2C2_Init+0x74>)
 80010e2:	2200      	movs	r2, #0
 80010e4:	609a      	str	r2, [r3, #8]
  hi2c2.Init.OwnAddress1 = 0;
 80010e6:	4b17      	ldr	r3, [pc, #92]	; (8001144 <MX_I2C2_Init+0x74>)
 80010e8:	2200      	movs	r2, #0
 80010ea:	60da      	str	r2, [r3, #12]
  hi2c2.Init.AddressingMode = I2C_ADDRESSINGMODE_7BIT;
 80010ec:	4b15      	ldr	r3, [pc, #84]	; (8001144 <MX_I2C2_Init+0x74>)
 80010ee:	f44f 4280 	mov.w	r2, #16384	; 0x4000
 80010f2:	611a      	str	r2, [r3, #16]
  hi2c2.Init.DualAddressMode = I2C_DUALADDRESS_DISABLE;
 80010f4:	4b13      	ldr	r3, [pc, #76]	; (8001144 <MX_I2C2_Init+0x74>)
 80010f6:	2200      	movs	r2, #0
 80010f8:	615a      	str	r2, [r3, #20]
  hi2c2.Init.OwnAddress2 = 0;
 80010fa:	4b12      	ldr	r3, [pc, #72]	; (8001144 <MX_I2C2_Init+0x74>)
 80010fc:	2200      	movs	r2, #0
 80010fe:	619a      	str	r2, [r3, #24]
  hi2c2.Init.GeneralCallMode = I2C_GENERALCALL_DISABLE;
 8001100:	4b10      	ldr	r3, [pc, #64]	; (8001144 <MX_I2C2_Init+0x74>)
 8001102:	2200      	movs	r2, #0
 8001104:	61da      	str	r2, [r3, #28]
  hi2c2.Init.NoStretchMode = I2C_NOSTRETCH_DISABLE;
 8001106:	4b0f      	ldr	r3, [pc, #60]	; (8001144 <MX_I2C2_Init+0x74>)
 8001108:	2200      	movs	r2, #0
 800110a:	621a      	str	r2, [r3, #32]
  if (HAL_I2C_Init(&hi2c2) != HAL_OK)
 800110c:	480d      	ldr	r0, [pc, #52]	; (8001144 <MX_I2C2_Init+0x74>)
 800110e:	f003 fc89 	bl	8004a24 <HAL_I2C_Init>
 8001112:	4603      	mov	r3, r0
 8001114:	2b00      	cmp	r3, #0
 8001116:	d001      	beq.n	800111c <MX_I2C2_Init+0x4c>
  {
    Error_Handler();
 8001118:	f000 fdd2 	bl	8001cc0 <Error_Handler>
  }

  /** Configure Analogue filter
  */
  if (HAL_I2CEx_ConfigAnalogFilter(&hi2c2, I2C_ANALOGFILTER_ENABLE) != HAL_OK)
 800111c:	2100      	movs	r1, #0
 800111e:	4809      	ldr	r0, [pc, #36]	; (8001144 <MX_I2C2_Init+0x74>)
 8001120:	f004 fc7a 	bl	8005a18 <HAL_I2CEx_ConfigAnalogFilter>
 8001124:	4603      	mov	r3, r0
 8001126:	2b00      	cmp	r3, #0
 8001128:	d001      	beq.n	800112e <MX_I2C2_Init+0x5e>
  {
    Error_Handler();
 800112a:	f000 fdc9 	bl	8001cc0 <Error_Handler>
  }

  /** Configure Digital filter
  */
  if (HAL_I2CEx_ConfigDigitalFilter(&hi2c2, 0) != HAL_OK)
 800112e:	2100      	movs	r1, #0
 8001130:	4804      	ldr	r0, [pc, #16]	; (8001144 <MX_I2C2_Init+0x74>)
 8001132:	f004 fcad 	bl	8005a90 <HAL_I2CEx_ConfigDigitalFilter>
 8001136:	4603      	mov	r3, r0
 8001138:	2b00      	cmp	r3, #0
 800113a:	d001      	beq.n	8001140 <MX_I2C2_Init+0x70>
  {
    Error_Handler();
 800113c:	f000 fdc0 	bl	8001cc0 <Error_Handler>
  }
  /* USER CODE BEGIN I2C2_Init 2 */

  /* USER CODE END I2C2_Init 2 */

}
 8001140:	bf00      	nop
 8001142:	bd80      	pop	{r7, pc}
 8001144:	200000c4 	.word	0x200000c4
 8001148:	40005800 	.word	0x40005800
 800114c:	000186a0 	.word	0x000186a0

08001150 <MX_RTC_Init>:
  * @brief RTC Initialization Function
  * @param None
  * @retval None
  */
static void MX_RTC_Init(void)
{
 8001150:	b580      	push	{r7, lr}
 8001152:	af00      	add	r7, sp, #0

  /* USER CODE END RTC_Init 1 */

  /** Initialize RTC Only
  */
  hrtc.Instance = RTC;
 8001154:	4b0f      	ldr	r3, [pc, #60]	; (8001194 <MX_RTC_Init+0x44>)
 8001156:	4a10      	ldr	r2, [pc, #64]	; (8001198 <MX_RTC_Init+0x48>)
 8001158:	601a      	str	r2, [r3, #0]
  hrtc.Init.HourFormat = RTC_HOURFORMAT_24;
 800115a:	4b0e      	ldr	r3, [pc, #56]	; (8001194 <MX_RTC_Init+0x44>)
 800115c:	2200      	movs	r2, #0
 800115e:	605a      	str	r2, [r3, #4]
  hrtc.Init.AsynchPrediv = 127;
 8001160:	4b0c      	ldr	r3, [pc, #48]	; (8001194 <MX_RTC_Init+0x44>)
 8001162:	227f      	movs	r2, #127	; 0x7f
 8001164:	609a      	str	r2, [r3, #8]
  hrtc.Init.SynchPrediv = 255;
 8001166:	4b0b      	ldr	r3, [pc, #44]	; (8001194 <MX_RTC_Init+0x44>)
 8001168:	22ff      	movs	r2, #255	; 0xff
 800116a:	60da      	str	r2, [r3, #12]
  hrtc.Init.OutPut = RTC_OUTPUT_DISABLE;
 800116c:	4b09      	ldr	r3, [pc, #36]	; (8001194 <MX_RTC_Init+0x44>)
 800116e:	2200      	movs	r2, #0
 8001170:	611a      	str	r2, [r3, #16]
  hrtc.Init.OutPutPolarity = RTC_OUTPUT_POLARITY_HIGH;
 8001172:	4b08      	ldr	r3, [pc, #32]	; (8001194 <MX_RTC_Init+0x44>)
 8001174:	2200      	movs	r2, #0
 8001176:	615a      	str	r2, [r3, #20]
  hrtc.Init.OutPutType = RTC_OUTPUT_TYPE_OPENDRAIN;
 8001178:	4b06      	ldr	r3, [pc, #24]	; (8001194 <MX_RTC_Init+0x44>)
 800117a:	2200      	movs	r2, #0
 800117c:	619a      	str	r2, [r3, #24]
  if (HAL_RTC_Init(&hrtc) != HAL_OK)
 800117e:	4805      	ldr	r0, [pc, #20]	; (8001194 <MX_RTC_Init+0x44>)
 8001180:	f005 fade 	bl	8006740 <HAL_RTC_Init>
 8001184:	4603      	mov	r3, r0
 8001186:	2b00      	cmp	r3, #0
 8001188:	d001      	beq.n	800118e <MX_RTC_Init+0x3e>
  {
    Error_Handler();
 800118a:	f000 fd99 	bl	8001cc0 <Error_Handler>
  }
  /* USER CODE BEGIN RTC_Init 2 */

  /* USER CODE END RTC_Init 2 */

}
 800118e:	bf00      	nop
 8001190:	bd80      	pop	{r7, pc}
 8001192:	bf00      	nop
 8001194:	20000118 	.word	0x20000118
 8001198:	40002800 	.word	0x40002800

0800119c <MX_SPI1_Init>:
  * @brief SPI1 Initialization Function
  * @param None
  * @retval None
  */
static void MX_SPI1_Init(void)
{
 800119c:	b580      	push	{r7, lr}
 800119e:	af00      	add	r7, sp, #0

  /* USER CODE BEGIN SPI1_Init 1 */

  /* USER CODE END SPI1_Init 1 */
  /* SPI1 parameter configuration*/
  hspi1.Instance = SPI1;
 80011a0:	4b17      	ldr	r3, [pc, #92]	; (8001200 <MX_SPI1_Init+0x64>)
 80011a2:	4a18      	ldr	r2, [pc, #96]	; (8001204 <MX_SPI1_Init+0x68>)
 80011a4:	601a      	str	r2, [r3, #0]
  hspi1.Init.Mode = SPI_MODE_MASTER;
 80011a6:	4b16      	ldr	r3, [pc, #88]	; (8001200 <MX_SPI1_Init+0x64>)
 80011a8:	f44f 7282 	mov.w	r2, #260	; 0x104
 80011ac:	605a      	str	r2, [r3, #4]
  hspi1.Init.Direction = SPI_DIRECTION_2LINES;
 80011ae:	4b14      	ldr	r3, [pc, #80]	; (8001200 <MX_SPI1_Init+0x64>)
 80011b0:	2200      	movs	r2, #0
 80011b2:	609a      	str	r2, [r3, #8]
  hspi1.Init.DataSize = SPI_DATASIZE_8BIT;
 80011b4:	4b12      	ldr	r3, [pc, #72]	; (8001200 <MX_SPI1_Init+0x64>)
 80011b6:	2200      	movs	r2, #0
 80011b8:	60da      	str	r2, [r3, #12]
  hspi1.Init.CLKPolarity = SPI_POLARITY_LOW;
 80011ba:	4b11      	ldr	r3, [pc, #68]	; (8001200 <MX_SPI1_Init+0x64>)
 80011bc:	2200      	movs	r2, #0
 80011be:	611a      	str	r2, [r3, #16]
  hspi1.Init.CLKPhase = SPI_PHASE_1EDGE;
 80011c0:	4b0f      	ldr	r3, [pc, #60]	; (8001200 <MX_SPI1_Init+0x64>)
 80011c2:	2200      	movs	r2, #0
 80011c4:	615a      	str	r2, [r3, #20]
  hspi1.Init.NSS = SPI_NSS_SOFT;
 80011c6:	4b0e      	ldr	r3, [pc, #56]	; (8001200 <MX_SPI1_Init+0x64>)
 80011c8:	f44f 7200 	mov.w	r2, #512	; 0x200
 80011cc:	619a      	str	r2, [r3, #24]
  hspi1.Init.BaudRatePrescaler = SPI_BAUDRATEPRESCALER_2;
 80011ce:	4b0c      	ldr	r3, [pc, #48]	; (8001200 <MX_SPI1_Init+0x64>)
 80011d0:	2200      	movs	r2, #0
 80011d2:	61da      	str	r2, [r3, #28]
  hspi1.Init.FirstBit = SPI_FIRSTBIT_MSB;
 80011d4:	4b0a      	ldr	r3, [pc, #40]	; (8001200 <MX_SPI1_Init+0x64>)
 80011d6:	2200      	movs	r2, #0
 80011d8:	621a      	str	r2, [r3, #32]
  hspi1.Init.TIMode = SPI_TIMODE_DISABLE;
 80011da:	4b09      	ldr	r3, [pc, #36]	; (8001200 <MX_SPI1_Init+0x64>)
 80011dc:	2200      	movs	r2, #0
 80011de:	625a      	str	r2, [r3, #36]	; 0x24
  hspi1.Init.CRCCalculation = SPI_CRCCALCULATION_DISABLE;
 80011e0:	4b07      	ldr	r3, [pc, #28]	; (8001200 <MX_SPI1_Init+0x64>)
 80011e2:	2200      	movs	r2, #0
 80011e4:	629a      	str	r2, [r3, #40]	; 0x28
  hspi1.Init.CRCPolynomial = 10;
 80011e6:	4b06      	ldr	r3, [pc, #24]	; (8001200 <MX_SPI1_Init+0x64>)
 80011e8:	220a      	movs	r2, #10
 80011ea:	62da      	str	r2, [r3, #44]	; 0x2c
  if (HAL_SPI_Init(&hspi1) != HAL_OK)
 80011ec:	4804      	ldr	r0, [pc, #16]	; (8001200 <MX_SPI1_Init+0x64>)
 80011ee:	f005 fdb3 	bl	8006d58 <HAL_SPI_Init>
 80011f2:	4603      	mov	r3, r0
 80011f4:	2b00      	cmp	r3, #0
 80011f6:	d001      	beq.n	80011fc <MX_SPI1_Init+0x60>
  {
    Error_Handler();
 80011f8:	f000 fd62 	bl	8001cc0 <Error_Handler>
  }
  /* USER CODE BEGIN SPI1_Init 2 */

  /* USER CODE END SPI1_Init 2 */

}
 80011fc:	bf00      	nop
 80011fe:	bd80      	pop	{r7, pc}
 8001200:	20000138 	.word	0x20000138
 8001204:	40013000 	.word	0x40013000

08001208 <MX_SPI2_Init>:
  * @brief SPI2 Initialization Function
  * @param None
  * @retval None
  */
static void MX_SPI2_Init(void)
{
 8001208:	b580      	push	{r7, lr}
 800120a:	af00      	add	r7, sp, #0

  /* USER CODE BEGIN SPI2_Init 1 */

  /* USER CODE END SPI2_Init 1 */
  /* SPI2 parameter configuration*/
  hspi2.Instance = SPI2;
 800120c:	4b17      	ldr	r3, [pc, #92]	; (800126c <MX_SPI2_Init+0x64>)
 800120e:	4a18      	ldr	r2, [pc, #96]	; (8001270 <MX_SPI2_Init+0x68>)
 8001210:	601a      	str	r2, [r3, #0]
  hspi2.Init.Mode = SPI_MODE_MASTER;
 8001212:	4b16      	ldr	r3, [pc, #88]	; (800126c <MX_SPI2_Init+0x64>)
 8001214:	f44f 7282 	mov.w	r2, #260	; 0x104
 8001218:	605a      	str	r2, [r3, #4]
  hspi2.Init.Direction = SPI_DIRECTION_2LINES;
 800121a:	4b14      	ldr	r3, [pc, #80]	; (800126c <MX_SPI2_Init+0x64>)
 800121c:	2200      	movs	r2, #0
 800121e:	609a      	str	r2, [r3, #8]
  hspi2.Init.DataSize = SPI_DATASIZE_8BIT;
 8001220:	4b12      	ldr	r3, [pc, #72]	; (800126c <MX_SPI2_Init+0x64>)
 8001222:	2200      	movs	r2, #0
 8001224:	60da      	str	r2, [r3, #12]
  hspi2.Init.CLKPolarity = SPI_POLARITY_LOW;
 8001226:	4b11      	ldr	r3, [pc, #68]	; (800126c <MX_SPI2_Init+0x64>)
 8001228:	2200      	movs	r2, #0
 800122a:	611a      	str	r2, [r3, #16]
  hspi2.Init.CLKPhase = SPI_PHASE_1EDGE;
 800122c:	4b0f      	ldr	r3, [pc, #60]	; (800126c <MX_SPI2_Init+0x64>)
 800122e:	2200      	movs	r2, #0
 8001230:	615a      	str	r2, [r3, #20]
  hspi2.Init.NSS = SPI_NSS_SOFT;
 8001232:	4b0e      	ldr	r3, [pc, #56]	; (800126c <MX_SPI2_Init+0x64>)
 8001234:	f44f 7200 	mov.w	r2, #512	; 0x200
 8001238:	619a      	str	r2, [r3, #24]
  hspi2.Init.BaudRatePrescaler = SPI_BAUDRATEPRESCALER_2;
 800123a:	4b0c      	ldr	r3, [pc, #48]	; (800126c <MX_SPI2_Init+0x64>)
 800123c:	2200      	movs	r2, #0
 800123e:	61da      	str	r2, [r3, #28]
  hspi2.Init.FirstBit = SPI_FIRSTBIT_MSB;
 8001240:	4b0a      	ldr	r3, [pc, #40]	; (800126c <MX_SPI2_Init+0x64>)
 8001242:	2200      	movs	r2, #0
 8001244:	621a      	str	r2, [r3, #32]
  hspi2.Init.TIMode = SPI_TIMODE_DISABLE;
 8001246:	4b09      	ldr	r3, [pc, #36]	; (800126c <MX_SPI2_Init+0x64>)
 8001248:	2200      	movs	r2, #0
 800124a:	625a      	str	r2, [r3, #36]	; 0x24
  hspi2.Init.CRCCalculation = SPI_CRCCALCULATION_DISABLE;
 800124c:	4b07      	ldr	r3, [pc, #28]	; (800126c <MX_SPI2_Init+0x64>)
 800124e:	2200      	movs	r2, #0
 8001250:	629a      	str	r2, [r3, #40]	; 0x28
  hspi2.Init.CRCPolynomial = 10;
 8001252:	4b06      	ldr	r3, [pc, #24]	; (800126c <MX_SPI2_Init+0x64>)
 8001254:	220a      	movs	r2, #10
 8001256:	62da      	str	r2, [r3, #44]	; 0x2c
  if (HAL_SPI_Init(&hspi2) != HAL_OK)
 8001258:	4804      	ldr	r0, [pc, #16]	; (800126c <MX_SPI2_Init+0x64>)
 800125a:	f005 fd7d 	bl	8006d58 <HAL_SPI_Init>
 800125e:	4603      	mov	r3, r0
 8001260:	2b00      	cmp	r3, #0
 8001262:	d001      	beq.n	8001268 <MX_SPI2_Init+0x60>
  {
    Error_Handler();
 8001264:	f000 fd2c 	bl	8001cc0 <Error_Handler>
  }
  /* USER CODE BEGIN SPI2_Init 2 */

  /* USER CODE END SPI2_Init 2 */

}
 8001268:	bf00      	nop
 800126a:	bd80      	pop	{r7, pc}
 800126c:	20000190 	.word	0x20000190
 8001270:	40003800 	.word	0x40003800

08001274 <MX_TIM6_Init>:
  * @brief TIM6 Initialization Function
  * @param None
  * @retval None
  */
static void MX_TIM6_Init(void)
{
 8001274:	b580      	push	{r7, lr}
 8001276:	b082      	sub	sp, #8
 8001278:	af00      	add	r7, sp, #0

  /* USER CODE BEGIN TIM6_Init 0 */

  /* USER CODE END TIM6_Init 0 */

  TIM_MasterConfigTypeDef sMasterConfig = {0};
 800127a:	463b      	mov	r3, r7
 800127c:	2200      	movs	r2, #0
 800127e:	601a      	str	r2, [r3, #0]
 8001280:	605a      	str	r2, [r3, #4]

  /* USER CODE BEGIN TIM6_Init 1 */

  /* USER CODE END TIM6_Init 1 */
  htim6.Instance = TIM6;
 8001282:	4b15      	ldr	r3, [pc, #84]	; (80012d8 <MX_TIM6_Init+0x64>)
 8001284:	4a15      	ldr	r2, [pc, #84]	; (80012dc <MX_TIM6_Init+0x68>)
 8001286:	601a      	str	r2, [r3, #0]
  htim6.Init.Prescaler = 20999;
 8001288:	4b13      	ldr	r3, [pc, #76]	; (80012d8 <MX_TIM6_Init+0x64>)
 800128a:	f245 2207 	movw	r2, #20999	; 0x5207
 800128e:	605a      	str	r2, [r3, #4]
  htim6.Init.CounterMode = TIM_COUNTERMODE_UP;
 8001290:	4b11      	ldr	r3, [pc, #68]	; (80012d8 <MX_TIM6_Init+0x64>)
 8001292:	2200      	movs	r2, #0
 8001294:	609a      	str	r2, [r3, #8]
  htim6.Init.Period = 80;
 8001296:	4b10      	ldr	r3, [pc, #64]	; (80012d8 <MX_TIM6_Init+0x64>)
 8001298:	2250      	movs	r2, #80	; 0x50
 800129a:	60da      	str	r2, [r3, #12]
  htim6.Init.AutoReloadPreload = TIM_AUTORELOAD_PRELOAD_DISABLE;
 800129c:	4b0e      	ldr	r3, [pc, #56]	; (80012d8 <MX_TIM6_Init+0x64>)
 800129e:	2200      	movs	r2, #0
 80012a0:	619a      	str	r2, [r3, #24]
  if (HAL_TIM_Base_Init(&htim6) != HAL_OK)
 80012a2:	480d      	ldr	r0, [pc, #52]	; (80012d8 <MX_TIM6_Init+0x64>)
 80012a4:	f006 fc76 	bl	8007b94 <HAL_TIM_Base_Init>
 80012a8:	4603      	mov	r3, r0
 80012aa:	2b00      	cmp	r3, #0
 80012ac:	d001      	beq.n	80012b2 <MX_TIM6_Init+0x3e>
  {
    Error_Handler();
 80012ae:	f000 fd07 	bl	8001cc0 <Error_Handler>
  }
  sMasterConfig.MasterOutputTrigger = TIM_TRGO_RESET;
 80012b2:	2300      	movs	r3, #0
 80012b4:	603b      	str	r3, [r7, #0]
  sMasterConfig.MasterSlaveMode = TIM_MASTERSLAVEMODE_DISABLE;
 80012b6:	2300      	movs	r3, #0
 80012b8:	607b      	str	r3, [r7, #4]
  if (HAL_TIMEx_MasterConfigSynchronization(&htim6, &sMasterConfig) != HAL_OK)
 80012ba:	463b      	mov	r3, r7
 80012bc:	4619      	mov	r1, r3
 80012be:	4806      	ldr	r0, [pc, #24]	; (80012d8 <MX_TIM6_Init+0x64>)
 80012c0:	f006 fef6 	bl	80080b0 <HAL_TIMEx_MasterConfigSynchronization>
 80012c4:	4603      	mov	r3, r0
 80012c6:	2b00      	cmp	r3, #0
 80012c8:	d001      	beq.n	80012ce <MX_TIM6_Init+0x5a>
  {
    Error_Handler();
 80012ca:	f000 fcf9 	bl	8001cc0 <Error_Handler>
  }
  /* USER CODE BEGIN TIM6_Init 2 */

  /* USER CODE END TIM6_Init 2 */

}
 80012ce:	bf00      	nop
 80012d0:	3708      	adds	r7, #8
 80012d2:	46bd      	mov	sp, r7
 80012d4:	bd80      	pop	{r7, pc}
 80012d6:	bf00      	nop
 80012d8:	200002a8 	.word	0x200002a8
 80012dc:	40001000 	.word	0x40001000

080012e0 <MX_TIM7_Init>:
  * @brief TIM7 Initialization Function
  * @param None
  * @retval None
  */
static void MX_TIM7_Init(void)
{
 80012e0:	b580      	push	{r7, lr}
 80012e2:	b082      	sub	sp, #8
 80012e4:	af00      	add	r7, sp, #0

  /* USER CODE BEGIN TIM7_Init 0 */

  /* USER CODE END TIM7_Init 0 */

  TIM_MasterConfigTypeDef sMasterConfig = {0};
 80012e6:	463b      	mov	r3, r7
 80012e8:	2200      	movs	r2, #0
 80012ea:	601a      	str	r2, [r3, #0]
 80012ec:	605a      	str	r2, [r3, #4]

  /* USER CODE BEGIN TIM7_Init 1 */

  /* USER CODE END TIM7_Init 1 */
  htim7.Instance = TIM7;
 80012ee:	4b15      	ldr	r3, [pc, #84]	; (8001344 <MX_TIM7_Init+0x64>)
 80012f0:	4a15      	ldr	r2, [pc, #84]	; (8001348 <MX_TIM7_Init+0x68>)
 80012f2:	601a      	str	r2, [r3, #0]
  htim7.Init.Prescaler = 20999;
 80012f4:	4b13      	ldr	r3, [pc, #76]	; (8001344 <MX_TIM7_Init+0x64>)
 80012f6:	f245 2207 	movw	r2, #20999	; 0x5207
 80012fa:	605a      	str	r2, [r3, #4]
  htim7.Init.CounterMode = TIM_COUNTERMODE_UP;
 80012fc:	4b11      	ldr	r3, [pc, #68]	; (8001344 <MX_TIM7_Init+0x64>)
 80012fe:	2200      	movs	r2, #0
 8001300:	609a      	str	r2, [r3, #8]
  htim7.Init.Period = 4000;
 8001302:	4b10      	ldr	r3, [pc, #64]	; (8001344 <MX_TIM7_Init+0x64>)
 8001304:	f44f 627a 	mov.w	r2, #4000	; 0xfa0
 8001308:	60da      	str	r2, [r3, #12]
  htim7.Init.AutoReloadPreload = TIM_AUTORELOAD_PRELOAD_DISABLE;
 800130a:	4b0e      	ldr	r3, [pc, #56]	; (8001344 <MX_TIM7_Init+0x64>)
 800130c:	2200      	movs	r2, #0
 800130e:	619a      	str	r2, [r3, #24]
  if (HAL_TIM_Base_Init(&htim7) != HAL_OK)
 8001310:	480c      	ldr	r0, [pc, #48]	; (8001344 <MX_TIM7_Init+0x64>)
 8001312:	f006 fc3f 	bl	8007b94 <HAL_TIM_Base_Init>
 8001316:	4603      	mov	r3, r0
 8001318:	2b00      	cmp	r3, #0
 800131a:	d001      	beq.n	8001320 <MX_TIM7_Init+0x40>
  {
    Error_Handler();
 800131c:	f000 fcd0 	bl	8001cc0 <Error_Handler>
  }
  sMasterConfig.MasterOutputTrigger = TIM_TRGO_RESET;
 8001320:	2300      	movs	r3, #0
 8001322:	603b      	str	r3, [r7, #0]
  sMasterConfig.MasterSlaveMode = TIM_MASTERSLAVEMODE_DISABLE;
 8001324:	2300      	movs	r3, #0
 8001326:	607b      	str	r3, [r7, #4]
  if (HAL_TIMEx_MasterConfigSynchronization(&htim7, &sMasterConfig) != HAL_OK)
 8001328:	463b      	mov	r3, r7
 800132a:	4619      	mov	r1, r3
 800132c:	4805      	ldr	r0, [pc, #20]	; (8001344 <MX_TIM7_Init+0x64>)
 800132e:	f006 febf 	bl	80080b0 <HAL_TIMEx_MasterConfigSynchronization>
 8001332:	4603      	mov	r3, r0
 8001334:	2b00      	cmp	r3, #0
 8001336:	d001      	beq.n	800133c <MX_TIM7_Init+0x5c>
  {
    Error_Handler();
 8001338:	f000 fcc2 	bl	8001cc0 <Error_Handler>
  }
  /* USER CODE BEGIN TIM7_Init 2 */

  /* USER CODE END TIM7_Init 2 */

}
 800133c:	bf00      	nop
 800133e:	3708      	adds	r7, #8
 8001340:	46bd      	mov	sp, r7
 8001342:	bd80      	pop	{r7, pc}
 8001344:	200002f0 	.word	0x200002f0
 8001348:	40001400 	.word	0x40001400

0800134c <MX_USART2_UART_Init>:
  * @brief USART2 Initialization Function
  * @param None
  * @retval None
  */
static void MX_USART2_UART_Init(void)
{
 800134c:	b580      	push	{r7, lr}
 800134e:	af00      	add	r7, sp, #0
  /* USER CODE END USART2_Init 0 */

  /* USER CODE BEGIN USART2_Init 1 */

  /* USER CODE END USART2_Init 1 */
  huart2.Instance = USART2;
 8001350:	4b11      	ldr	r3, [pc, #68]	; (8001398 <MX_USART2_UART_Init+0x4c>)
 8001352:	4a12      	ldr	r2, [pc, #72]	; (800139c <MX_USART2_UART_Init+0x50>)
 8001354:	601a      	str	r2, [r3, #0]
  huart2.Init.BaudRate = 115200;
 8001356:	4b10      	ldr	r3, [pc, #64]	; (8001398 <MX_USART2_UART_Init+0x4c>)
 8001358:	f44f 32e1 	mov.w	r2, #115200	; 0x1c200
 800135c:	605a      	str	r2, [r3, #4]
  huart2.Init.WordLength = UART_WORDLENGTH_8B;
 800135e:	4b0e      	ldr	r3, [pc, #56]	; (8001398 <MX_USART2_UART_Init+0x4c>)
 8001360:	2200      	movs	r2, #0
 8001362:	609a      	str	r2, [r3, #8]
  huart2.Init.StopBits = UART_STOPBITS_1;
 8001364:	4b0c      	ldr	r3, [pc, #48]	; (8001398 <MX_USART2_UART_Init+0x4c>)
 8001366:	2200      	movs	r2, #0
 8001368:	60da      	str	r2, [r3, #12]
  huart2.Init.Parity = UART_PARITY_NONE;
 800136a:	4b0b      	ldr	r3, [pc, #44]	; (8001398 <MX_USART2_UART_Init+0x4c>)
 800136c:	2200      	movs	r2, #0
 800136e:	611a      	str	r2, [r3, #16]
  huart2.Init.Mode = UART_MODE_TX_RX;
 8001370:	4b09      	ldr	r3, [pc, #36]	; (8001398 <MX_USART2_UART_Init+0x4c>)
 8001372:	220c      	movs	r2, #12
 8001374:	615a      	str	r2, [r3, #20]
  huart2.Init.HwFlowCtl = UART_HWCONTROL_NONE;
 8001376:	4b08      	ldr	r3, [pc, #32]	; (8001398 <MX_USART2_UART_Init+0x4c>)
 8001378:	2200      	movs	r2, #0
 800137a:	619a      	str	r2, [r3, #24]
  huart2.Init.OverSampling = UART_OVERSAMPLING_16;
 800137c:	4b06      	ldr	r3, [pc, #24]	; (8001398 <MX_USART2_UART_Init+0x4c>)
 800137e:	2200      	movs	r2, #0
 8001380:	61da      	str	r2, [r3, #28]
  if (HAL_UART_Init(&huart2) != HAL_OK)
 8001382:	4805      	ldr	r0, [pc, #20]	; (8001398 <MX_USART2_UART_Init+0x4c>)
 8001384:	f006 ff24 	bl	80081d0 <HAL_UART_Init>
 8001388:	4603      	mov	r3, r0
 800138a:	2b00      	cmp	r3, #0
 800138c:	d001      	beq.n	8001392 <MX_USART2_UART_Init+0x46>
  {
    Error_Handler();
 800138e:	f000 fc97 	bl	8001cc0 <Error_Handler>
  }
  /* USER CODE BEGIN USART2_Init 2 */

  /* USER CODE END USART2_Init 2 */

}
 8001392:	bf00      	nop
 8001394:	bd80      	pop	{r7, pc}
 8001396:	bf00      	nop
 8001398:	20000338 	.word	0x20000338
 800139c:	40004400 	.word	0x40004400

080013a0 <MX_DMA_Init>:

/**
  * Enable DMA controller clock
  */
static void MX_DMA_Init(void)
{
 80013a0:	b580      	push	{r7, lr}
 80013a2:	b082      	sub	sp, #8
 80013a4:	af00      	add	r7, sp, #0

  /* DMA controller clock enable */
  __HAL_RCC_DMA2_CLK_ENABLE();
 80013a6:	2300      	movs	r3, #0
 80013a8:	607b      	str	r3, [r7, #4]
 80013aa:	4b17      	ldr	r3, [pc, #92]	; (8001408 <MX_DMA_Init+0x68>)
 80013ac:	6b1b      	ldr	r3, [r3, #48]	; 0x30
 80013ae:	4a16      	ldr	r2, [pc, #88]	; (8001408 <MX_DMA_Init+0x68>)
 80013b0:	f443 0380 	orr.w	r3, r3, #4194304	; 0x400000
 80013b4:	6313      	str	r3, [r2, #48]	; 0x30
 80013b6:	4b14      	ldr	r3, [pc, #80]	; (8001408 <MX_DMA_Init+0x68>)
 80013b8:	6b1b      	ldr	r3, [r3, #48]	; 0x30
 80013ba:	f403 0380 	and.w	r3, r3, #4194304	; 0x400000
 80013be:	607b      	str	r3, [r7, #4]
 80013c0:	687b      	ldr	r3, [r7, #4]
  __HAL_RCC_DMA1_CLK_ENABLE();
 80013c2:	2300      	movs	r3, #0
 80013c4:	603b      	str	r3, [r7, #0]
 80013c6:	4b10      	ldr	r3, [pc, #64]	; (8001408 <MX_DMA_Init+0x68>)
 80013c8:	6b1b      	ldr	r3, [r3, #48]	; 0x30
 80013ca:	4a0f      	ldr	r2, [pc, #60]	; (8001408 <MX_DMA_Init+0x68>)
 80013cc:	f443 1300 	orr.w	r3, r3, #2097152	; 0x200000
 80013d0:	6313      	str	r3, [r2, #48]	; 0x30
 80013d2:	4b0d      	ldr	r3, [pc, #52]	; (8001408 <MX_DMA_Init+0x68>)
 80013d4:	6b1b      	ldr	r3, [r3, #48]	; 0x30
 80013d6:	f403 1300 	and.w	r3, r3, #2097152	; 0x200000
 80013da:	603b      	str	r3, [r7, #0]
 80013dc:	683b      	ldr	r3, [r7, #0]

  /* DMA interrupt init */
  /* DMA1_Stream4_IRQn interrupt configuration */
  HAL_NVIC_SetPriority(DMA1_Stream4_IRQn, 0, 0);
 80013de:	2200      	movs	r2, #0
 80013e0:	2100      	movs	r1, #0
 80013e2:	200f      	movs	r0, #15
 80013e4:	f002 fced 	bl	8003dc2 <HAL_NVIC_SetPriority>
  HAL_NVIC_EnableIRQ(DMA1_Stream4_IRQn);
 80013e8:	200f      	movs	r0, #15
 80013ea:	f002 fd06 	bl	8003dfa <HAL_NVIC_EnableIRQ>
  /* DMA2_Stream3_IRQn interrupt configuration */
  HAL_NVIC_SetPriority(DMA2_Stream3_IRQn, 0, 0);
 80013ee:	2200      	movs	r2, #0
 80013f0:	2100      	movs	r1, #0
 80013f2:	203b      	movs	r0, #59	; 0x3b
 80013f4:	f002 fce5 	bl	8003dc2 <HAL_NVIC_SetPriority>
  HAL_NVIC_EnableIRQ(DMA2_Stream3_IRQn);
 80013f8:	203b      	movs	r0, #59	; 0x3b
 80013fa:	f002 fcfe 	bl	8003dfa <HAL_NVIC_EnableIRQ>

}
 80013fe:	bf00      	nop
 8001400:	3708      	adds	r7, #8
 8001402:	46bd      	mov	sp, r7
 8001404:	bd80      	pop	{r7, pc}
 8001406:	bf00      	nop
 8001408:	40023800 	.word	0x40023800

0800140c <MX_GPIO_Init>:
  * @brief GPIO Initialization Function
  * @param None
  * @retval None
  */
static void MX_GPIO_Init(void)
{
 800140c:	b580      	push	{r7, lr}
 800140e:	b08a      	sub	sp, #40	; 0x28
 8001410:	af00      	add	r7, sp, #0
  GPIO_InitTypeDef GPIO_InitStruct = {0};
 8001412:	f107 0314 	add.w	r3, r7, #20
 8001416:	2200      	movs	r2, #0
 8001418:	601a      	str	r2, [r3, #0]
 800141a:	605a      	str	r2, [r3, #4]
 800141c:	609a      	str	r2, [r3, #8]
 800141e:	60da      	str	r2, [r3, #12]
 8001420:	611a      	str	r2, [r3, #16]
/* USER CODE BEGIN MX_GPIO_Init_1 */
/* USER CODE END MX_GPIO_Init_1 */

  /* GPIO Ports Clock Enable */
  __HAL_RCC_GPIOC_CLK_ENABLE();
 8001422:	2300      	movs	r3, #0
 8001424:	613b      	str	r3, [r7, #16]
 8001426:	4b57      	ldr	r3, [pc, #348]	; (8001584 <MX_GPIO_Init+0x178>)
 8001428:	6b1b      	ldr	r3, [r3, #48]	; 0x30
 800142a:	4a56      	ldr	r2, [pc, #344]	; (8001584 <MX_GPIO_Init+0x178>)
 800142c:	f043 0304 	orr.w	r3, r3, #4
 8001430:	6313      	str	r3, [r2, #48]	; 0x30
 8001432:	4b54      	ldr	r3, [pc, #336]	; (8001584 <MX_GPIO_Init+0x178>)
 8001434:	6b1b      	ldr	r3, [r3, #48]	; 0x30
 8001436:	f003 0304 	and.w	r3, r3, #4
 800143a:	613b      	str	r3, [r7, #16]
 800143c:	693b      	ldr	r3, [r7, #16]
  __HAL_RCC_GPIOH_CLK_ENABLE();
 800143e:	2300      	movs	r3, #0
 8001440:	60fb      	str	r3, [r7, #12]
 8001442:	4b50      	ldr	r3, [pc, #320]	; (8001584 <MX_GPIO_Init+0x178>)
 8001444:	6b1b      	ldr	r3, [r3, #48]	; 0x30
 8001446:	4a4f      	ldr	r2, [pc, #316]	; (8001584 <MX_GPIO_Init+0x178>)
 8001448:	f043 0380 	orr.w	r3, r3, #128	; 0x80
 800144c:	6313      	str	r3, [r2, #48]	; 0x30
 800144e:	4b4d      	ldr	r3, [pc, #308]	; (8001584 <MX_GPIO_Init+0x178>)
 8001450:	6b1b      	ldr	r3, [r3, #48]	; 0x30
 8001452:	f003 0380 	and.w	r3, r3, #128	; 0x80
 8001456:	60fb      	str	r3, [r7, #12]
 8001458:	68fb      	ldr	r3, [r7, #12]
  __HAL_RCC_GPIOA_CLK_ENABLE();
 800145a:	2300      	movs	r3, #0
 800145c:	60bb      	str	r3, [r7, #8]
 800145e:	4b49      	ldr	r3, [pc, #292]	; (8001584 <MX_GPIO_Init+0x178>)
 8001460:	6b1b      	ldr	r3, [r3, #48]	; 0x30
 8001462:	4a48      	ldr	r2, [pc, #288]	; (8001584 <MX_GPIO_Init+0x178>)
 8001464:	f043 0301 	orr.w	r3, r3, #1
 8001468:	6313      	str	r3, [r2, #48]	; 0x30
 800146a:	4b46      	ldr	r3, [pc, #280]	; (8001584 <MX_GPIO_Init+0x178>)
 800146c:	6b1b      	ldr	r3, [r3, #48]	; 0x30
 800146e:	f003 0301 	and.w	r3, r3, #1
 8001472:	60bb      	str	r3, [r7, #8]
 8001474:	68bb      	ldr	r3, [r7, #8]
  __HAL_RCC_GPIOB_CLK_ENABLE();
 8001476:	2300      	movs	r3, #0
 8001478:	607b      	str	r3, [r7, #4]
 800147a:	4b42      	ldr	r3, [pc, #264]	; (8001584 <MX_GPIO_Init+0x178>)
 800147c:	6b1b      	ldr	r3, [r3, #48]	; 0x30
 800147e:	4a41      	ldr	r2, [pc, #260]	; (8001584 <MX_GPIO_Init+0x178>)
 8001480:	f043 0302 	orr.w	r3, r3, #2
 8001484:	6313      	str	r3, [r2, #48]	; 0x30
 8001486:	4b3f      	ldr	r3, [pc, #252]	; (8001584 <MX_GPIO_Init+0x178>)
 8001488:	6b1b      	ldr	r3, [r3, #48]	; 0x30
 800148a:	f003 0302 	and.w	r3, r3, #2
 800148e:	607b      	str	r3, [r7, #4]
 8001490:	687b      	ldr	r3, [r7, #4]
  __HAL_RCC_GPIOD_CLK_ENABLE();
 8001492:	2300      	movs	r3, #0
 8001494:	603b      	str	r3, [r7, #0]
 8001496:	4b3b      	ldr	r3, [pc, #236]	; (8001584 <MX_GPIO_Init+0x178>)
 8001498:	6b1b      	ldr	r3, [r3, #48]	; 0x30
 800149a:	4a3a      	ldr	r2, [pc, #232]	; (8001584 <MX_GPIO_Init+0x178>)
 800149c:	f043 0308 	orr.w	r3, r3, #8
 80014a0:	6313      	str	r3, [r2, #48]	; 0x30
 80014a2:	4b38      	ldr	r3, [pc, #224]	; (8001584 <MX_GPIO_Init+0x178>)
 80014a4:	6b1b      	ldr	r3, [r3, #48]	; 0x30
 80014a6:	f003 0308 	and.w	r3, r3, #8
 80014aa:	603b      	str	r3, [r7, #0]
 80014ac:	683b      	ldr	r3, [r7, #0]

  /*Configure GPIO pin Output Level */
  HAL_GPIO_WritePin(GPIOC, SPI2_WP_Pin|SPI2_CS_Pin|SPI1_CS_Pin, GPIO_PIN_RESET);
 80014ae:	2200      	movs	r2, #0
 80014b0:	2113      	movs	r1, #19
 80014b2:	4835      	ldr	r0, [pc, #212]	; (8001588 <MX_GPIO_Init+0x17c>)
 80014b4:	f003 fa82 	bl	80049bc <HAL_GPIO_WritePin>

  /*Configure GPIO pin Output Level */
  HAL_GPIO_WritePin(SPI1_WP_GPIO_Port, SPI1_WP_Pin, GPIO_PIN_RESET);
 80014b8:	2200      	movs	r2, #0
 80014ba:	2110      	movs	r1, #16
 80014bc:	4833      	ldr	r0, [pc, #204]	; (800158c <MX_GPIO_Init+0x180>)
 80014be:	f003 fa7d 	bl	80049bc <HAL_GPIO_WritePin>

  /*Configure GPIO pin Output Level */
  HAL_GPIO_WritePin(GPIOB, LED3_Pin|LED2_Pin, GPIO_PIN_RESET);
 80014c2:	2200      	movs	r2, #0
 80014c4:	f44f 4181 	mov.w	r1, #16512	; 0x4080
 80014c8:	4831      	ldr	r0, [pc, #196]	; (8001590 <MX_GPIO_Init+0x184>)
 80014ca:	f003 fa77 	bl	80049bc <HAL_GPIO_WritePin>

  /*Configure GPIO pin : SPI2_WP_Pin */
  GPIO_InitStruct.Pin = SPI2_WP_Pin;
 80014ce:	2301      	movs	r3, #1
 80014d0:	617b      	str	r3, [r7, #20]
  GPIO_InitStruct.Mode = GPIO_MODE_OUTPUT_PP;
 80014d2:	2301      	movs	r3, #1
 80014d4:	61bb      	str	r3, [r7, #24]
  GPIO_InitStruct.Pull = GPIO_PULLUP;
 80014d6:	2301      	movs	r3, #1
 80014d8:	61fb      	str	r3, [r7, #28]
  GPIO_InitStruct.Speed = GPIO_SPEED_FREQ_LOW;
 80014da:	2300      	movs	r3, #0
 80014dc:	623b      	str	r3, [r7, #32]
  HAL_GPIO_Init(SPI2_WP_GPIO_Port, &GPIO_InitStruct);
 80014de:	f107 0314 	add.w	r3, r7, #20
 80014e2:	4619      	mov	r1, r3
 80014e4:	4828      	ldr	r0, [pc, #160]	; (8001588 <MX_GPIO_Init+0x17c>)
 80014e6:	f003 f8a5 	bl	8004634 <HAL_GPIO_Init>

  /*Configure GPIO pins : SPI2_CS_Pin SPI1_CS_Pin */
  GPIO_InitStruct.Pin = SPI2_CS_Pin|SPI1_CS_Pin;
 80014ea:	2312      	movs	r3, #18
 80014ec:	617b      	str	r3, [r7, #20]
  GPIO_InitStruct.Mode = GPIO_MODE_OUTPUT_PP;
 80014ee:	2301      	movs	r3, #1
 80014f0:	61bb      	str	r3, [r7, #24]
  GPIO_InitStruct.Pull = GPIO_NOPULL;
 80014f2:	2300      	movs	r3, #0
 80014f4:	61fb      	str	r3, [r7, #28]
  GPIO_InitStruct.Speed = GPIO_SPEED_FREQ_LOW;
 80014f6:	2300      	movs	r3, #0
 80014f8:	623b      	str	r3, [r7, #32]
  HAL_GPIO_Init(GPIOC, &GPIO_InitStruct);
 80014fa:	f107 0314 	add.w	r3, r7, #20
 80014fe:	4619      	mov	r1, r3
 8001500:	4821      	ldr	r0, [pc, #132]	; (8001588 <MX_GPIO_Init+0x17c>)
 8001502:	f003 f897 	bl	8004634 <HAL_GPIO_Init>

  /*Configure GPIO pin : SPI1_WP_Pin */
  GPIO_InitStruct.Pin = SPI1_WP_Pin;
 8001506:	2310      	movs	r3, #16
 8001508:	617b      	str	r3, [r7, #20]
  GPIO_InitStruct.Mode = GPIO_MODE_OUTPUT_PP;
 800150a:	2301      	movs	r3, #1
 800150c:	61bb      	str	r3, [r7, #24]
  GPIO_InitStruct.Pull = GPIO_PULLUP;
 800150e:	2301      	movs	r3, #1
 8001510:	61fb      	str	r3, [r7, #28]
  GPIO_InitStruct.Speed = GPIO_SPEED_FREQ_LOW;
 8001512:	2300      	movs	r3, #0
 8001514:	623b      	str	r3, [r7, #32]
  HAL_GPIO_Init(SPI1_WP_GPIO_Port, &GPIO_InitStruct);
 8001516:	f107 0314 	add.w	r3, r7, #20
 800151a:	4619      	mov	r1, r3
 800151c:	481b      	ldr	r0, [pc, #108]	; (800158c <MX_GPIO_Init+0x180>)
 800151e:	f003 f889 	bl	8004634 <HAL_GPIO_Init>

  /*Configure GPIO pin : JMP_Flight_Pin */
  GPIO_InitStruct.Pin = JMP_Flight_Pin;
 8001522:	2302      	movs	r3, #2
 8001524:	617b      	str	r3, [r7, #20]
  GPIO_InitStruct.Mode = GPIO_MODE_INPUT;
 8001526:	2300      	movs	r3, #0
 8001528:	61bb      	str	r3, [r7, #24]
  GPIO_InitStruct.Pull = GPIO_NOPULL;
 800152a:	2300      	movs	r3, #0
 800152c:	61fb      	str	r3, [r7, #28]
  HAL_GPIO_Init(JMP_Flight_GPIO_Port, &GPIO_InitStruct);
 800152e:	f107 0314 	add.w	r3, r7, #20
 8001532:	4619      	mov	r1, r3
 8001534:	4816      	ldr	r0, [pc, #88]	; (8001590 <MX_GPIO_Init+0x184>)
 8001536:	f003 f87d 	bl	8004634 <HAL_GPIO_Init>

  /*Configure GPIO pins : LED3_Pin LED2_Pin */
  GPIO_InitStruct.Pin = LED3_Pin|LED2_Pin;
 800153a:	f44f 4381 	mov.w	r3, #16512	; 0x4080
 800153e:	617b      	str	r3, [r7, #20]
  GPIO_InitStruct.Mode = GPIO_MODE_OUTPUT_PP;
 8001540:	2301      	movs	r3, #1
 8001542:	61bb      	str	r3, [r7, #24]
  GPIO_InitStruct.Pull = GPIO_PULLDOWN;
 8001544:	2302      	movs	r3, #2
 8001546:	61fb      	str	r3, [r7, #28]
  GPIO_InitStruct.Speed = GPIO_SPEED_FREQ_LOW;
 8001548:	2300      	movs	r3, #0
 800154a:	623b      	str	r3, [r7, #32]
  HAL_GPIO_Init(GPIOB, &GPIO_InitStruct);
 800154c:	f107 0314 	add.w	r3, r7, #20
 8001550:	4619      	mov	r1, r3
 8001552:	480f      	ldr	r0, [pc, #60]	; (8001590 <MX_GPIO_Init+0x184>)
 8001554:	f003 f86e 	bl	8004634 <HAL_GPIO_Init>

  /*Configure GPIO pins : PA11 PA12 */
  GPIO_InitStruct.Pin = GPIO_PIN_11|GPIO_PIN_12;
 8001558:	f44f 53c0 	mov.w	r3, #6144	; 0x1800
 800155c:	617b      	str	r3, [r7, #20]
  GPIO_InitStruct.Mode = GPIO_MODE_AF_PP;
 800155e:	2302      	movs	r3, #2
 8001560:	61bb      	str	r3, [r7, #24]
  GPIO_InitStruct.Pull = GPIO_NOPULL;
 8001562:	2300      	movs	r3, #0
 8001564:	61fb      	str	r3, [r7, #28]
  GPIO_InitStruct.Speed = GPIO_SPEED_FREQ_VERY_HIGH;
 8001566:	2303      	movs	r3, #3
 8001568:	623b      	str	r3, [r7, #32]
  GPIO_InitStruct.Alternate = GPIO_AF9_CAN1;
 800156a:	2309      	movs	r3, #9
 800156c:	627b      	str	r3, [r7, #36]	; 0x24
  HAL_GPIO_Init(GPIOA, &GPIO_InitStruct);
 800156e:	f107 0314 	add.w	r3, r7, #20
 8001572:	4619      	mov	r1, r3
 8001574:	4805      	ldr	r0, [pc, #20]	; (800158c <MX_GPIO_Init+0x180>)
 8001576:	f003 f85d 	bl	8004634 <HAL_GPIO_Init>

/* USER CODE BEGIN MX_GPIO_Init_2 */
/* USER CODE END MX_GPIO_Init_2 */
}
 800157a:	bf00      	nop
 800157c:	3728      	adds	r7, #40	; 0x28
 800157e:	46bd      	mov	sp, r7
 8001580:	bd80      	pop	{r7, pc}
 8001582:	bf00      	nop
 8001584:	40023800 	.word	0x40023800
 8001588:	40020800 	.word	0x40020800
 800158c:	40020000 	.word	0x40020000
 8001590:	40020400 	.word	0x40020400

08001594 <clean_data_buffer>:

/* USER CODE BEGIN 4 */
void clean_data_buffer(uint16_t array_size, uint8_t data_array[array_size]) {
 8001594:	b480      	push	{r7}
 8001596:	b085      	sub	sp, #20
 8001598:	af00      	add	r7, sp, #0
 800159a:	4603      	mov	r3, r0
 800159c:	6039      	str	r1, [r7, #0]
 800159e:	80fb      	strh	r3, [r7, #6]
    for (int i = 0; i < array_size; ++i) {
 80015a0:	2300      	movs	r3, #0
 80015a2:	60fb      	str	r3, [r7, #12]
 80015a4:	e007      	b.n	80015b6 <clean_data_buffer+0x22>
    	data_array[i] = 0xFF;  // Initialize each element to 0xFF
 80015a6:	68fb      	ldr	r3, [r7, #12]
 80015a8:	683a      	ldr	r2, [r7, #0]
 80015aa:	4413      	add	r3, r2
 80015ac:	22ff      	movs	r2, #255	; 0xff
 80015ae:	701a      	strb	r2, [r3, #0]
    for (int i = 0; i < array_size; ++i) {
 80015b0:	68fb      	ldr	r3, [r7, #12]
 80015b2:	3301      	adds	r3, #1
 80015b4:	60fb      	str	r3, [r7, #12]
 80015b6:	88fb      	ldrh	r3, [r7, #6]
 80015b8:	68fa      	ldr	r2, [r7, #12]
 80015ba:	429a      	cmp	r2, r3
 80015bc:	dbf3      	blt.n	80015a6 <clean_data_buffer+0x12>
    }
}
 80015be:	bf00      	nop
 80015c0:	bf00      	nop
 80015c2:	3714      	adds	r7, #20
 80015c4:	46bd      	mov	sp, r7
 80015c6:	f85d 7b04 	ldr.w	r7, [sp], #4
 80015ca:	4770      	bx	lr

080015cc <systemInit>:

void systemInit() {
 80015cc:	b580      	push	{r7, lr}
 80015ce:	b084      	sub	sp, #16
 80015d0:	af00      	add	r7, sp, #0
	i2c_accel = &hi2c2;
 80015d2:	4b60      	ldr	r3, [pc, #384]	; (8001754 <systemInit+0x188>)
 80015d4:	4a60      	ldr	r2, [pc, #384]	; (8001758 <systemInit+0x18c>)
 80015d6:	601a      	str	r2, [r3, #0]
	i2c_bme280 = &hi2c1;
 80015d8:	4b60      	ldr	r3, [pc, #384]	; (800175c <systemInit+0x190>)
 80015da:	4a61      	ldr	r2, [pc, #388]	; (8001760 <systemInit+0x194>)
 80015dc:	601a      	str	r2, [r3, #0]

	configureCAN();
 80015de:	f000 fb4b 	bl	8001c78 <configureCAN>
	CAN_TxMailbox = 0;
 80015e2:	4b60      	ldr	r3, [pc, #384]	; (8001764 <systemInit+0x198>)
 80015e4:	2200      	movs	r2, #0
 80015e6:	601a      	str	r2, [r3, #0]
	clean_data_buffer(8, CAN_RxData);
 80015e8:	495f      	ldr	r1, [pc, #380]	; (8001768 <systemInit+0x19c>)
 80015ea:	2008      	movs	r0, #8
 80015ec:	f7ff ffd2 	bl	8001594 <clean_data_buffer>

	gpio_set_config();
 80015f0:	f000 f8f0 	bl	80017d4 <gpio_set_config>
	HAL_GPIO_WritePin(led_orange.GPIOx, led_orange.GPIO_Pin, GPIO_PIN_RESET);	// Turn LED off
 80015f4:	4b5d      	ldr	r3, [pc, #372]	; (800176c <systemInit+0x1a0>)
 80015f6:	681b      	ldr	r3, [r3, #0]
 80015f8:	4a5c      	ldr	r2, [pc, #368]	; (800176c <systemInit+0x1a0>)
 80015fa:	8891      	ldrh	r1, [r2, #4]
 80015fc:	2200      	movs	r2, #0
 80015fe:	4618      	mov	r0, r3
 8001600:	f003 f9dc 	bl	80049bc <HAL_GPIO_WritePin>
	HAL_GPIO_WritePin(cs_spi1.GPIOx, cs_spi1.GPIO_Pin, GPIO_PIN_SET);		// SET SPI CS High to disable bus 1
 8001604:	4b5a      	ldr	r3, [pc, #360]	; (8001770 <systemInit+0x1a4>)
 8001606:	681b      	ldr	r3, [r3, #0]
 8001608:	4a59      	ldr	r2, [pc, #356]	; (8001770 <systemInit+0x1a4>)
 800160a:	8891      	ldrh	r1, [r2, #4]
 800160c:	2201      	movs	r2, #1
 800160e:	4618      	mov	r0, r3
 8001610:	f003 f9d4 	bl	80049bc <HAL_GPIO_WritePin>
	HAL_GPIO_WritePin(cs_spi2.GPIOx, cs_spi2.GPIO_Pin, GPIO_PIN_SET);		// SET SPI CS High to disable bus 2
 8001614:	4b57      	ldr	r3, [pc, #348]	; (8001774 <systemInit+0x1a8>)
 8001616:	681b      	ldr	r3, [r3, #0]
 8001618:	4a56      	ldr	r2, [pc, #344]	; (8001774 <systemInit+0x1a8>)
 800161a:	8891      	ldrh	r1, [r2, #4]
 800161c:	2201      	movs	r2, #1
 800161e:	4618      	mov	r0, r3
 8001620:	f003 f9cc 	bl	80049bc <HAL_GPIO_WritePin>

	// Clean the data buffer and set all values to 0xFF
	clean_data_buffer(PAGE_SIZE, data_buffer_tx[0]);
 8001624:	4954      	ldr	r1, [pc, #336]	; (8001778 <systemInit+0x1ac>)
 8001626:	f44f 7080 	mov.w	r0, #256	; 0x100
 800162a:	f7ff ffb3 	bl	8001594 <clean_data_buffer>
	clean_data_buffer(PAGE_SIZE, data_buffer_tx[1]);
 800162e:	4953      	ldr	r1, [pc, #332]	; (800177c <systemInit+0x1b0>)
 8001630:	f44f 7080 	mov.w	r0, #256	; 0x100
 8001634:	f7ff ffae 	bl	8001594 <clean_data_buffer>

	for (uint8_t i = 0; i < 6; i++) {
 8001638:	2300      	movs	r3, #0
 800163a:	73fb      	strb	r3, [r7, #15]
 800163c:	e00e      	b.n	800165c <systemInit+0x90>
		accel_data[i] = 0x00;
 800163e:	7bfb      	ldrb	r3, [r7, #15]
 8001640:	4a4f      	ldr	r2, [pc, #316]	; (8001780 <systemInit+0x1b4>)
 8001642:	2100      	movs	r1, #0
 8001644:	54d1      	strb	r1, [r2, r3]
		bme280_data_0[i] = 0x00;
 8001646:	7bfb      	ldrb	r3, [r7, #15]
 8001648:	4a4e      	ldr	r2, [pc, #312]	; (8001784 <systemInit+0x1b8>)
 800164a:	2100      	movs	r1, #0
 800164c:	54d1      	strb	r1, [r2, r3]
		bme280_data_1[i] = 0x00;
 800164e:	7bfb      	ldrb	r3, [r7, #15]
 8001650:	4a4d      	ldr	r2, [pc, #308]	; (8001788 <systemInit+0x1bc>)
 8001652:	2100      	movs	r1, #0
 8001654:	54d1      	strb	r1, [r2, r3]
	for (uint8_t i = 0; i < 6; i++) {
 8001656:	7bfb      	ldrb	r3, [r7, #15]
 8001658:	3301      	adds	r3, #1
 800165a:	73fb      	strb	r3, [r7, #15]
 800165c:	7bfb      	ldrb	r3, [r7, #15]
 800165e:	2b05      	cmp	r3, #5
 8001660:	d9ed      	bls.n	800163e <systemInit+0x72>
	}

	// Initialise the peripherals
	init_accel(i2c_accel);
 8001662:	4b3c      	ldr	r3, [pc, #240]	; (8001754 <systemInit+0x188>)
 8001664:	681b      	ldr	r3, [r3, #0]
 8001666:	4618      	mov	r0, r3
 8001668:	f7fe ff46 	bl	80004f8 <init_accel>
	init_bme280(i2c_bme280, 0);
 800166c:	4b3b      	ldr	r3, [pc, #236]	; (800175c <systemInit+0x190>)
 800166e:	681b      	ldr	r3, [r3, #0]
 8001670:	2100      	movs	r1, #0
 8001672:	4618      	mov	r0, r3
 8001674:	f7fe ffb4 	bl	80005e0 <init_bme280>
	init_bme280(i2c_bme280, 1);
 8001678:	4b38      	ldr	r3, [pc, #224]	; (800175c <systemInit+0x190>)
 800167a:	681b      	ldr	r3, [r3, #0]
 800167c:	2101      	movs	r1, #1
 800167e:	4618      	mov	r0, r3
 8001680:	f7fe ffae 	bl	80005e0 <init_bme280>
	software_reset(&hspi1, cs_spi1);
 8001684:	4b3a      	ldr	r3, [pc, #232]	; (8001770 <systemInit+0x1a4>)
 8001686:	e893 0006 	ldmia.w	r3, {r1, r2}
 800168a:	4840      	ldr	r0, [pc, #256]	; (800178c <systemInit+0x1c0>)
 800168c:	f7ff f97e 	bl	800098c <software_reset>
	software_reset(&hspi2, cs_spi2);
 8001690:	4b38      	ldr	r3, [pc, #224]	; (8001774 <systemInit+0x1a8>)
 8001692:	e893 0006 	ldmia.w	r3, {r1, r2}
 8001696:	483e      	ldr	r0, [pc, #248]	; (8001790 <systemInit+0x1c4>)
 8001698:	f7ff f978 	bl	800098c <software_reset>

	int next_blank_page0 = find_next_blank_page(&hspi1, &end_of_flash, cs_spi1);
 800169c:	4b34      	ldr	r3, [pc, #208]	; (8001770 <systemInit+0x1a4>)
 800169e:	cb0c      	ldmia	r3, {r2, r3}
 80016a0:	493c      	ldr	r1, [pc, #240]	; (8001794 <systemInit+0x1c8>)
 80016a2:	483a      	ldr	r0, [pc, #232]	; (800178c <systemInit+0x1c0>)
 80016a4:	f7ff f9c4 	bl	8000a30 <find_next_blank_page>
 80016a8:	4603      	mov	r3, r0
 80016aa:	60bb      	str	r3, [r7, #8]
	int next_blank_page1 = find_next_blank_page(&hspi2, &end_of_flash, cs_spi2);
 80016ac:	4b31      	ldr	r3, [pc, #196]	; (8001774 <systemInit+0x1a8>)
 80016ae:	cb0c      	ldmia	r3, {r2, r3}
 80016b0:	4938      	ldr	r1, [pc, #224]	; (8001794 <systemInit+0x1c8>)
 80016b2:	4837      	ldr	r0, [pc, #220]	; (8001790 <systemInit+0x1c4>)
 80016b4:	f7ff f9bc 	bl	8000a30 <find_next_blank_page>
 80016b8:	4603      	mov	r3, r0
 80016ba:	607b      	str	r3, [r7, #4]

	// Assign the value of next_blank_page to the larger of next_blank_page0 and next_blank_page1
	next_blank_page = (next_blank_page0 > next_blank_page1) ? next_blank_page0 : next_blank_page1;
 80016bc:	687a      	ldr	r2, [r7, #4]
 80016be:	68bb      	ldr	r3, [r7, #8]
 80016c0:	4293      	cmp	r3, r2
 80016c2:	bfb8      	it	lt
 80016c4:	4613      	movlt	r3, r2
 80016c6:	461a      	mov	r2, r3
 80016c8:	4b33      	ldr	r3, [pc, #204]	; (8001798 <systemInit+0x1cc>)
 80016ca:	601a      	str	r2, [r3, #0]

	buffer_ref = 0;
 80016cc:	4b33      	ldr	r3, [pc, #204]	; (800179c <systemInit+0x1d0>)
 80016ce:	2200      	movs	r2, #0
 80016d0:	701a      	strb	r2, [r3, #0]
	byte_tracker = 0;
 80016d2:	4b33      	ldr	r3, [pc, #204]	; (80017a0 <systemInit+0x1d4>)
 80016d4:	2200      	movs	r2, #0
 80016d6:	801a      	strh	r2, [r3, #0]
	end_of_flash = FLAG_RESET;
 80016d8:	4b2e      	ldr	r3, [pc, #184]	; (8001794 <systemInit+0x1c8>)
 80016da:	2200      	movs	r2, #0
 80016dc:	701a      	strb	r2, [r3, #0]
	uart2_rec_flag = FLAG_RESET;
 80016de:	4b31      	ldr	r3, [pc, #196]	; (80017a4 <systemInit+0x1d8>)
 80016e0:	2200      	movs	r2, #0
 80016e2:	701a      	strb	r2, [r3, #0]
	CAN_RX_Flag = FLAG_RESET;
 80016e4:	4b30      	ldr	r3, [pc, #192]	; (80017a8 <systemInit+0x1dc>)
 80016e6:	2200      	movs	r2, #0
 80016e8:	701a      	strb	r2, [r3, #0]
	tim6_overflow_flag = FLAG_RESET;
 80016ea:	4b30      	ldr	r3, [pc, #192]	; (80017ac <systemInit+0x1e0>)
 80016ec:	2200      	movs	r2, #0
 80016ee:	701a      	strb	r2, [r3, #0]
	tim7_overflow_flag = FLAG_RESET;
 80016f0:	4b2f      	ldr	r3, [pc, #188]	; (80017b0 <systemInit+0x1e4>)
 80016f2:	2200      	movs	r2, #0
 80016f4:	701a      	strb	r2, [r3, #0]
	flight_state = GROUND;
 80016f6:	4b2f      	ldr	r3, [pc, #188]	; (80017b4 <systemInit+0x1e8>)
 80016f8:	2200      	movs	r2, #0
 80016fa:	701a      	strb	r2, [r3, #0]

	sysStatus = systemStatus(&hspi1, &hspi2, i2c_bme280, i2c_accel);
 80016fc:	4b17      	ldr	r3, [pc, #92]	; (800175c <systemInit+0x190>)
 80016fe:	681a      	ldr	r2, [r3, #0]
 8001700:	4b14      	ldr	r3, [pc, #80]	; (8001754 <systemInit+0x188>)
 8001702:	681b      	ldr	r3, [r3, #0]
 8001704:	4922      	ldr	r1, [pc, #136]	; (8001790 <systemInit+0x1c4>)
 8001706:	4821      	ldr	r0, [pc, #132]	; (800178c <systemInit+0x1c0>)
 8001708:	f000 fae0 	bl	8001ccc <systemStatus>
 800170c:	4603      	mov	r3, r0
 800170e:	461a      	mov	r2, r3
 8001710:	4b29      	ldr	r3, [pc, #164]	; (80017b8 <systemInit+0x1ec>)
 8001712:	701a      	strb	r2, [r3, #0]

	send_uart_hex(&huart2, sysStatus);
 8001714:	4b28      	ldr	r3, [pc, #160]	; (80017b8 <systemInit+0x1ec>)
 8001716:	781b      	ldrb	r3, [r3, #0]
 8001718:	4619      	mov	r1, r3
 800171a:	4828      	ldr	r0, [pc, #160]	; (80017bc <systemInit+0x1f0>)
 800171c:	f001 fb39 	bl	8002d92 <send_uart_hex>

	// Initiate clocks, interrupts, CAN and DMA
	HAL_UART_Receive_IT(&huart2, UARTRxData, 2);
 8001720:	2202      	movs	r2, #2
 8001722:	4927      	ldr	r1, [pc, #156]	; (80017c0 <systemInit+0x1f4>)
 8001724:	4825      	ldr	r0, [pc, #148]	; (80017bc <systemInit+0x1f0>)
 8001726:	f006 fe2e 	bl	8008386 <HAL_UART_Receive_IT>
	HAL_CAN_Start(&hcan2);
 800172a:	4826      	ldr	r0, [pc, #152]	; (80017c4 <systemInit+0x1f8>)
 800172c:	f001 fde2 	bl	80032f4 <HAL_CAN_Start>
	HAL_CAN_ActivateNotification(&hcan2, CAN_IT_RX_FIFO0_MSG_PENDING);
 8001730:	2102      	movs	r1, #2
 8001732:	4824      	ldr	r0, [pc, #144]	; (80017c4 <systemInit+0x1f8>)
 8001734:	f002 f814 	bl	8003760 <HAL_CAN_ActivateNotification>
	initialise_rtc_default(&hrtc);
 8001738:	4823      	ldr	r0, [pc, #140]	; (80017c8 <systemInit+0x1fc>)
 800173a:	f000 fe11 	bl	8002360 <initialise_rtc_default>
	HAL_TIM_Base_Start_IT(&htim6);
 800173e:	4823      	ldr	r0, [pc, #140]	; (80017cc <systemInit+0x200>)
 8001740:	f006 fa78 	bl	8007c34 <HAL_TIM_Base_Start_IT>
	HAL_TIM_Base_Start_IT(&htim7);
 8001744:	4822      	ldr	r0, [pc, #136]	; (80017d0 <systemInit+0x204>)
 8001746:	f006 fa75 	bl	8007c34 <HAL_TIM_Base_Start_IT>
}
 800174a:	bf00      	nop
 800174c:	3710      	adds	r7, #16
 800174e:	46bd      	mov	sp, r7
 8001750:	bd80      	pop	{r7, pc}
 8001752:	bf00      	nop
 8001754:	20000380 	.word	0x20000380
 8001758:	200000c4 	.word	0x200000c4
 800175c:	20000384 	.word	0x20000384
 8001760:	20000070 	.word	0x20000070
 8001764:	2000038c 	.word	0x2000038c
 8001768:	200003ac 	.word	0x200003ac
 800176c:	200005dc 	.word	0x200005dc
 8001770:	200005ec 	.word	0x200005ec
 8001774:	200005fc 	.word	0x200005fc
 8001778:	200003b8 	.word	0x200003b8
 800177c:	200004b8 	.word	0x200004b8
 8001780:	200005bc 	.word	0x200005bc
 8001784:	200005c4 	.word	0x200005c4
 8001788:	200005cc 	.word	0x200005cc
 800178c:	20000138 	.word	0x20000138
 8001790:	20000190 	.word	0x20000190
 8001794:	200005da 	.word	0x200005da
 8001798:	200005d4 	.word	0x200005d4
 800179c:	200005d2 	.word	0x200005d2
 80017a0:	200005d8 	.word	0x200005d8
 80017a4:	2000038a 	.word	0x2000038a
 80017a8:	200003b4 	.word	0x200003b4
 80017ac:	200003b5 	.word	0x200003b5
 80017b0:	200003b6 	.word	0x200003b6
 80017b4:	20000615 	.word	0x20000615
 80017b8:	20000614 	.word	0x20000614
 80017bc:	20000338 	.word	0x20000338
 80017c0:	20000388 	.word	0x20000388
 80017c4:	20000048 	.word	0x20000048
 80017c8:	20000118 	.word	0x20000118
 80017cc:	200002a8 	.word	0x200002a8
 80017d0:	200002f0 	.word	0x200002f0

080017d4 <gpio_set_config>:

void gpio_set_config() {
 80017d4:	b590      	push	{r4, r7, lr}
 80017d6:	b083      	sub	sp, #12
 80017d8:	af00      	add	r7, sp, #0
	// Set LED gpio
	led_orange = create_GPIO_Config(GPIOB, GPIO_PIN_14);	// Orange LED (Heartbeat LED)
 80017da:	4c30      	ldr	r4, [pc, #192]	; (800189c <gpio_set_config+0xc8>)
 80017dc:	463b      	mov	r3, r7
 80017de:	f44f 4280 	mov.w	r2, #16384	; 0x4000
 80017e2:	492f      	ldr	r1, [pc, #188]	; (80018a0 <gpio_set_config+0xcc>)
 80017e4:	4618      	mov	r0, r3
 80017e6:	f7ff fa03 	bl	8000bf0 <create_GPIO_Config>
 80017ea:	4622      	mov	r2, r4
 80017ec:	463b      	mov	r3, r7
 80017ee:	e893 0003 	ldmia.w	r3, {r0, r1}
 80017f2:	e882 0003 	stmia.w	r2, {r0, r1}
	led_green = create_GPIO_Config(GPIOB, GPIO_PIN_7);		// Green LED (Hard Drive LED)
 80017f6:	4c2b      	ldr	r4, [pc, #172]	; (80018a4 <gpio_set_config+0xd0>)
 80017f8:	463b      	mov	r3, r7
 80017fa:	2280      	movs	r2, #128	; 0x80
 80017fc:	4928      	ldr	r1, [pc, #160]	; (80018a0 <gpio_set_config+0xcc>)
 80017fe:	4618      	mov	r0, r3
 8001800:	f7ff f9f6 	bl	8000bf0 <create_GPIO_Config>
 8001804:	4622      	mov	r2, r4
 8001806:	463b      	mov	r3, r7
 8001808:	e893 0003 	ldmia.w	r3, {r0, r1}
 800180c:	e882 0003 	stmia.w	r2, {r0, r1}

	// SPI Flash 0 CS and WP
	cs_spi1 = create_GPIO_Config(GPIOC, GPIO_PIN_4);		// Change for SRAD
 8001810:	4c25      	ldr	r4, [pc, #148]	; (80018a8 <gpio_set_config+0xd4>)
 8001812:	463b      	mov	r3, r7
 8001814:	2210      	movs	r2, #16
 8001816:	4925      	ldr	r1, [pc, #148]	; (80018ac <gpio_set_config+0xd8>)
 8001818:	4618      	mov	r0, r3
 800181a:	f7ff f9e9 	bl	8000bf0 <create_GPIO_Config>
 800181e:	4622      	mov	r2, r4
 8001820:	463b      	mov	r3, r7
 8001822:	e893 0003 	ldmia.w	r3, {r0, r1}
 8001826:	e882 0003 	stmia.w	r2, {r0, r1}
	wp_spi1 = create_GPIO_Config(GPIOA, GPIO_PIN_4);
 800182a:	4c21      	ldr	r4, [pc, #132]	; (80018b0 <gpio_set_config+0xdc>)
 800182c:	463b      	mov	r3, r7
 800182e:	2210      	movs	r2, #16
 8001830:	4920      	ldr	r1, [pc, #128]	; (80018b4 <gpio_set_config+0xe0>)
 8001832:	4618      	mov	r0, r3
 8001834:	f7ff f9dc 	bl	8000bf0 <create_GPIO_Config>
 8001838:	4622      	mov	r2, r4
 800183a:	463b      	mov	r3, r7
 800183c:	e893 0003 	ldmia.w	r3, {r0, r1}
 8001840:	e882 0003 	stmia.w	r2, {r0, r1}

	// SPI Flash 1 CS and WP
	cs_spi2 = create_GPIO_Config(GPIOC, GPIO_PIN_1);		// Change for SRAD
 8001844:	4c1c      	ldr	r4, [pc, #112]	; (80018b8 <gpio_set_config+0xe4>)
 8001846:	463b      	mov	r3, r7
 8001848:	2202      	movs	r2, #2
 800184a:	4918      	ldr	r1, [pc, #96]	; (80018ac <gpio_set_config+0xd8>)
 800184c:	4618      	mov	r0, r3
 800184e:	f7ff f9cf 	bl	8000bf0 <create_GPIO_Config>
 8001852:	4622      	mov	r2, r4
 8001854:	463b      	mov	r3, r7
 8001856:	e893 0003 	ldmia.w	r3, {r0, r1}
 800185a:	e882 0003 	stmia.w	r2, {r0, r1}
	wp_spi2 = create_GPIO_Config(GPIOC, GPIO_PIN_0);
 800185e:	4c17      	ldr	r4, [pc, #92]	; (80018bc <gpio_set_config+0xe8>)
 8001860:	463b      	mov	r3, r7
 8001862:	2201      	movs	r2, #1
 8001864:	4911      	ldr	r1, [pc, #68]	; (80018ac <gpio_set_config+0xd8>)
 8001866:	4618      	mov	r0, r3
 8001868:	f7ff f9c2 	bl	8000bf0 <create_GPIO_Config>
 800186c:	4622      	mov	r2, r4
 800186e:	463b      	mov	r3, r7
 8001870:	e893 0003 	ldmia.w	r3, {r0, r1}
 8001874:	e882 0003 	stmia.w	r2, {r0, r1}

	// Flight Jumper GPIO Input
	jmp_flight = create_GPIO_Config(GPIOB, GPIO_PIN_1);
 8001878:	4c11      	ldr	r4, [pc, #68]	; (80018c0 <gpio_set_config+0xec>)
 800187a:	463b      	mov	r3, r7
 800187c:	2202      	movs	r2, #2
 800187e:	4908      	ldr	r1, [pc, #32]	; (80018a0 <gpio_set_config+0xcc>)
 8001880:	4618      	mov	r0, r3
 8001882:	f7ff f9b5 	bl	8000bf0 <create_GPIO_Config>
 8001886:	4622      	mov	r2, r4
 8001888:	463b      	mov	r3, r7
 800188a:	e893 0003 	ldmia.w	r3, {r0, r1}
 800188e:	e882 0003 	stmia.w	r2, {r0, r1}
}
 8001892:	bf00      	nop
 8001894:	370c      	adds	r7, #12
 8001896:	46bd      	mov	sp, r7
 8001898:	bd90      	pop	{r4, r7, pc}
 800189a:	bf00      	nop
 800189c:	200005dc 	.word	0x200005dc
 80018a0:	40020400 	.word	0x40020400
 80018a4:	200005e4 	.word	0x200005e4
 80018a8:	200005ec 	.word	0x200005ec
 80018ac:	40020800 	.word	0x40020800
 80018b0:	200005f4 	.word	0x200005f4
 80018b4:	40020000 	.word	0x40020000
 80018b8:	200005fc 	.word	0x200005fc
 80018bc:	20000604 	.word	0x20000604
 80018c0:	2000060c 	.word	0x2000060c

080018c4 <handleCAN>:

void handleCAN() {
 80018c4:	b580      	push	{r7, lr}
 80018c6:	b084      	sub	sp, #16
 80018c8:	af02      	add	r7, sp, #8
	// Process "clock-sync". Change flight-state to "rocket_loaded"
	if(CAN_RxHeader.StdId == CLK_SYNC_ID) {
 80018ca:	4b2a      	ldr	r3, [pc, #168]	; (8001974 <handleCAN+0xb0>)
 80018cc:	681b      	ldr	r3, [r3, #0]
 80018ce:	f240 72ff 	movw	r2, #2047	; 0x7ff
 80018d2:	4293      	cmp	r3, r2
 80018d4:	d10e      	bne.n	80018f4 <handleCAN+0x30>
		flight_state = LOADED;
 80018d6:	4b28      	ldr	r3, [pc, #160]	; (8001978 <handleCAN+0xb4>)
 80018d8:	2201      	movs	r2, #1
 80018da:	701a      	strb	r2, [r3, #0]
		uint8_t TxData[1] = {0x00};
 80018dc:	2300      	movs	r3, #0
 80018de:	713b      	strb	r3, [r7, #4]
		sendCAN_TxMessage(&hcan2, 1, TxData, &CAN_TxMailbox, CLK_SYNC_ID);
 80018e0:	1d3a      	adds	r2, r7, #4
 80018e2:	f240 73ff 	movw	r3, #2047	; 0x7ff
 80018e6:	9300      	str	r3, [sp, #0]
 80018e8:	4b24      	ldr	r3, [pc, #144]	; (800197c <handleCAN+0xb8>)
 80018ea:	2101      	movs	r1, #1
 80018ec:	4824      	ldr	r0, [pc, #144]	; (8001980 <handleCAN+0xbc>)
 80018ee:	f7fe ff8d 	bl	800080c <sendCAN_TxMessage>

	// Transmit values from accelerometer
	else if(CAN_RxHeader.StdId == DUMMY_ID) {
		send_uart_hex(&huart2, sysStatus);
	}
}
 80018f2:	e03a      	b.n	800196a <handleCAN+0xa6>
	else if(CAN_RxHeader.StdId == TX_BME280_0) {
 80018f4:	4b1f      	ldr	r3, [pc, #124]	; (8001974 <handleCAN+0xb0>)
 80018f6:	681b      	ldr	r3, [r3, #0]
 80018f8:	f240 5201 	movw	r2, #1281	; 0x501
 80018fc:	4293      	cmp	r3, r2
 80018fe:	d109      	bne.n	8001914 <handleCAN+0x50>
		sendCAN_TxMessage(&hcan2, 6, bme280_data_0, &CAN_TxMailbox, TX_BME280_0);
 8001900:	f240 5301 	movw	r3, #1281	; 0x501
 8001904:	9300      	str	r3, [sp, #0]
 8001906:	4b1d      	ldr	r3, [pc, #116]	; (800197c <handleCAN+0xb8>)
 8001908:	4a1e      	ldr	r2, [pc, #120]	; (8001984 <handleCAN+0xc0>)
 800190a:	2106      	movs	r1, #6
 800190c:	481c      	ldr	r0, [pc, #112]	; (8001980 <handleCAN+0xbc>)
 800190e:	f7fe ff7d 	bl	800080c <sendCAN_TxMessage>
}
 8001912:	e02a      	b.n	800196a <handleCAN+0xa6>
	else if(CAN_RxHeader.StdId == TX_BME280_1) {
 8001914:	4b17      	ldr	r3, [pc, #92]	; (8001974 <handleCAN+0xb0>)
 8001916:	681b      	ldr	r3, [r3, #0]
 8001918:	f240 5202 	movw	r2, #1282	; 0x502
 800191c:	4293      	cmp	r3, r2
 800191e:	d109      	bne.n	8001934 <handleCAN+0x70>
		sendCAN_TxMessage(&hcan2, 6, bme280_data_1, &CAN_TxMailbox, TX_BME280_1);
 8001920:	f240 5302 	movw	r3, #1282	; 0x502
 8001924:	9300      	str	r3, [sp, #0]
 8001926:	4b15      	ldr	r3, [pc, #84]	; (800197c <handleCAN+0xb8>)
 8001928:	4a17      	ldr	r2, [pc, #92]	; (8001988 <handleCAN+0xc4>)
 800192a:	2106      	movs	r1, #6
 800192c:	4814      	ldr	r0, [pc, #80]	; (8001980 <handleCAN+0xbc>)
 800192e:	f7fe ff6d 	bl	800080c <sendCAN_TxMessage>
}
 8001932:	e01a      	b.n	800196a <handleCAN+0xa6>
	else if(CAN_RxHeader.StdId == TX_ACCEL) {
 8001934:	4b0f      	ldr	r3, [pc, #60]	; (8001974 <handleCAN+0xb0>)
 8001936:	681b      	ldr	r3, [r3, #0]
 8001938:	f240 5203 	movw	r2, #1283	; 0x503
 800193c:	4293      	cmp	r3, r2
 800193e:	d109      	bne.n	8001954 <handleCAN+0x90>
		sendCAN_TxMessage(&hcan2, 6, accel_data, &CAN_TxMailbox, TX_ACCEL);
 8001940:	f240 5303 	movw	r3, #1283	; 0x503
 8001944:	9300      	str	r3, [sp, #0]
 8001946:	4b0d      	ldr	r3, [pc, #52]	; (800197c <handleCAN+0xb8>)
 8001948:	4a10      	ldr	r2, [pc, #64]	; (800198c <handleCAN+0xc8>)
 800194a:	2106      	movs	r1, #6
 800194c:	480c      	ldr	r0, [pc, #48]	; (8001980 <handleCAN+0xbc>)
 800194e:	f7fe ff5d 	bl	800080c <sendCAN_TxMessage>
}
 8001952:	e00a      	b.n	800196a <handleCAN+0xa6>
	else if(CAN_RxHeader.StdId == DUMMY_ID) {
 8001954:	4b07      	ldr	r3, [pc, #28]	; (8001974 <handleCAN+0xb0>)
 8001956:	681b      	ldr	r3, [r3, #0]
 8001958:	f5b3 6fe0 	cmp.w	r3, #1792	; 0x700
 800195c:	d105      	bne.n	800196a <handleCAN+0xa6>
		send_uart_hex(&huart2, sysStatus);
 800195e:	4b0c      	ldr	r3, [pc, #48]	; (8001990 <handleCAN+0xcc>)
 8001960:	781b      	ldrb	r3, [r3, #0]
 8001962:	4619      	mov	r1, r3
 8001964:	480b      	ldr	r0, [pc, #44]	; (8001994 <handleCAN+0xd0>)
 8001966:	f001 fa14 	bl	8002d92 <send_uart_hex>
}
 800196a:	bf00      	nop
 800196c:	3708      	adds	r7, #8
 800196e:	46bd      	mov	sp, r7
 8001970:	bd80      	pop	{r7, pc}
 8001972:	bf00      	nop
 8001974:	20000390 	.word	0x20000390
 8001978:	20000615 	.word	0x20000615
 800197c:	2000038c 	.word	0x2000038c
 8001980:	20000048 	.word	0x20000048
 8001984:	200005c4 	.word	0x200005c4
 8001988:	200005cc 	.word	0x200005cc
 800198c:	200005bc 	.word	0x200005bc
 8001990:	20000614 	.word	0x20000614
 8001994:	20000338 	.word	0x20000338

08001998 <handleUART>:

void handleUART() {
 8001998:	b590      	push	{r4, r7, lr}
 800199a:	b085      	sub	sp, #20
 800199c:	af02      	add	r7, sp, #8
	UART_HandleTypeDef *huart = &huart2;
 800199e:	4b8e      	ldr	r3, [pc, #568]	; (8001bd8 <handleUART+0x240>)
 80019a0:	607b      	str	r3, [r7, #4]

	// Send Heartbeat to UART (data_rx[0] = "h")
	if (UARTRxData[0] == 0x68) {
 80019a2:	4b8e      	ldr	r3, [pc, #568]	; (8001bdc <handleUART+0x244>)
 80019a4:	781b      	ldrb	r3, [r3, #0]
 80019a6:	2b68      	cmp	r3, #104	; 0x68
 80019a8:	d109      	bne.n	80019be <handleUART+0x26>
		heartbeatUART(huart);
 80019aa:	6878      	ldr	r0, [r7, #4]
 80019ac:	f000 f9e0 	bl	8001d70 <heartbeatUART>
		send_uart_hex(huart, sysStatus);
 80019b0:	4b8b      	ldr	r3, [pc, #556]	; (8001be0 <handleUART+0x248>)
 80019b2:	781b      	ldrb	r3, [r3, #0]
 80019b4:	4619      	mov	r1, r3
 80019b6:	6878      	ldr	r0, [r7, #4]
 80019b8:	f001 f9eb 	bl	8002d92 <send_uart_hex>
 80019bc:	e102      	b.n	8001bc4 <handleUART+0x22c>
	}

/***************************** SPI Flash ************************************************/
	// Erase specified flash chip (data_rx[0]  = "e")
	else if (UARTRxData[0] == 0x65) {
 80019be:	4b87      	ldr	r3, [pc, #540]	; (8001bdc <handleUART+0x244>)
 80019c0:	781b      	ldrb	r3, [r3, #0]
 80019c2:	2b65      	cmp	r3, #101	; 0x65
 80019c4:	d11e      	bne.n	8001a04 <handleUART+0x6c>
		if(decodeASCII(UARTRxData[1]) == 0) {
 80019c6:	4b85      	ldr	r3, [pc, #532]	; (8001bdc <handleUART+0x244>)
 80019c8:	785b      	ldrb	r3, [r3, #1]
 80019ca:	4618      	mov	r0, r3
 80019cc:	f000 f91a 	bl	8001c04 <decodeASCII>
 80019d0:	4603      	mov	r3, r0
 80019d2:	2b00      	cmp	r3, #0
 80019d4:	d106      	bne.n	80019e4 <handleUART+0x4c>
			eraseFlashSPI(&hspi1, huart, cs_spi1);
 80019d6:	4b83      	ldr	r3, [pc, #524]	; (8001be4 <handleUART+0x24c>)
 80019d8:	cb0c      	ldmia	r3, {r2, r3}
 80019da:	6879      	ldr	r1, [r7, #4]
 80019dc:	4882      	ldr	r0, [pc, #520]	; (8001be8 <handleUART+0x250>)
 80019de:	f000 f9d3 	bl	8001d88 <eraseFlashSPI>
 80019e2:	e0ef      	b.n	8001bc4 <handleUART+0x22c>
		} else if (decodeASCII(UARTRxData[1]) == 1) {
 80019e4:	4b7d      	ldr	r3, [pc, #500]	; (8001bdc <handleUART+0x244>)
 80019e6:	785b      	ldrb	r3, [r3, #1]
 80019e8:	4618      	mov	r0, r3
 80019ea:	f000 f90b 	bl	8001c04 <decodeASCII>
 80019ee:	4603      	mov	r3, r0
 80019f0:	2b01      	cmp	r3, #1
 80019f2:	f040 80e7 	bne.w	8001bc4 <handleUART+0x22c>
			eraseFlashSPI(&hspi2, huart, cs_spi2);
 80019f6:	4b7d      	ldr	r3, [pc, #500]	; (8001bec <handleUART+0x254>)
 80019f8:	cb0c      	ldmia	r3, {r2, r3}
 80019fa:	6879      	ldr	r1, [r7, #4]
 80019fc:	487c      	ldr	r0, [pc, #496]	; (8001bf0 <handleUART+0x258>)
 80019fe:	f000 f9c3 	bl	8001d88 <eraseFlashSPI>
 8001a02:	e0df      	b.n	8001bc4 <handleUART+0x22c>
		}
	}

	// Read data from specified flash chip (data_rx[0] = "r")
	else if (UARTRxData[0] == 0x72) {
 8001a04:	4b75      	ldr	r3, [pc, #468]	; (8001bdc <handleUART+0x244>)
 8001a06:	781b      	ldrb	r3, [r3, #0]
 8001a08:	2b72      	cmp	r3, #114	; 0x72
 8001a0a:	d11e      	bne.n	8001a4a <handleUART+0xb2>
		if(decodeASCII(UARTRxData[1]) == 0) {
 8001a0c:	4b73      	ldr	r3, [pc, #460]	; (8001bdc <handleUART+0x244>)
 8001a0e:	785b      	ldrb	r3, [r3, #1]
 8001a10:	4618      	mov	r0, r3
 8001a12:	f000 f8f7 	bl	8001c04 <decodeASCII>
 8001a16:	4603      	mov	r3, r0
 8001a18:	2b00      	cmp	r3, #0
 8001a1a:	d106      	bne.n	8001a2a <handleUART+0x92>
			readFlashToUART(&hspi1, huart, cs_spi1);
 8001a1c:	4b71      	ldr	r3, [pc, #452]	; (8001be4 <handleUART+0x24c>)
 8001a1e:	cb0c      	ldmia	r3, {r2, r3}
 8001a20:	6879      	ldr	r1, [r7, #4]
 8001a22:	4871      	ldr	r0, [pc, #452]	; (8001be8 <handleUART+0x250>)
 8001a24:	f000 f9ec 	bl	8001e00 <readFlashToUART>
 8001a28:	e0cc      	b.n	8001bc4 <handleUART+0x22c>
		} else if (decodeASCII(UARTRxData[1]) == 1) {
 8001a2a:	4b6c      	ldr	r3, [pc, #432]	; (8001bdc <handleUART+0x244>)
 8001a2c:	785b      	ldrb	r3, [r3, #1]
 8001a2e:	4618      	mov	r0, r3
 8001a30:	f000 f8e8 	bl	8001c04 <decodeASCII>
 8001a34:	4603      	mov	r3, r0
 8001a36:	2b01      	cmp	r3, #1
 8001a38:	f040 80c4 	bne.w	8001bc4 <handleUART+0x22c>
			readFlashToUART(&hspi2, huart, cs_spi2);
 8001a3c:	4b6b      	ldr	r3, [pc, #428]	; (8001bec <handleUART+0x254>)
 8001a3e:	cb0c      	ldmia	r3, {r2, r3}
 8001a40:	6879      	ldr	r1, [r7, #4]
 8001a42:	486b      	ldr	r0, [pc, #428]	; (8001bf0 <handleUART+0x258>)
 8001a44:	f000 f9dc 	bl	8001e00 <readFlashToUART>
 8001a48:	e0bc      	b.n	8001bc4 <handleUART+0x22c>
		}
	}

	// Read Manufacturer over SPI (data_rx[0] = "m")
	else if (UARTRxData[0] == 0x6d) {
 8001a4a:	4b64      	ldr	r3, [pc, #400]	; (8001bdc <handleUART+0x244>)
 8001a4c:	781b      	ldrb	r3, [r3, #0]
 8001a4e:	2b6d      	cmp	r3, #109	; 0x6d
 8001a50:	d11e      	bne.n	8001a90 <handleUART+0xf8>
		if(decodeASCII(UARTRxData[1]) == 0) {
 8001a52:	4b62      	ldr	r3, [pc, #392]	; (8001bdc <handleUART+0x244>)
 8001a54:	785b      	ldrb	r3, [r3, #1]
 8001a56:	4618      	mov	r0, r3
 8001a58:	f000 f8d4 	bl	8001c04 <decodeASCII>
 8001a5c:	4603      	mov	r3, r0
 8001a5e:	2b00      	cmp	r3, #0
 8001a60:	d106      	bne.n	8001a70 <handleUART+0xd8>
			readFlashManuSPI(&hspi1, huart, cs_spi1);
 8001a62:	4b60      	ldr	r3, [pc, #384]	; (8001be4 <handleUART+0x24c>)
 8001a64:	cb0c      	ldmia	r3, {r2, r3}
 8001a66:	6879      	ldr	r1, [r7, #4]
 8001a68:	485f      	ldr	r0, [pc, #380]	; (8001be8 <handleUART+0x250>)
 8001a6a:	f000 fa35 	bl	8001ed8 <readFlashManuSPI>
 8001a6e:	e0a9      	b.n	8001bc4 <handleUART+0x22c>
		} else if (decodeASCII(UARTRxData[1]) == 1) {
 8001a70:	4b5a      	ldr	r3, [pc, #360]	; (8001bdc <handleUART+0x244>)
 8001a72:	785b      	ldrb	r3, [r3, #1]
 8001a74:	4618      	mov	r0, r3
 8001a76:	f000 f8c5 	bl	8001c04 <decodeASCII>
 8001a7a:	4603      	mov	r3, r0
 8001a7c:	2b01      	cmp	r3, #1
 8001a7e:	f040 80a1 	bne.w	8001bc4 <handleUART+0x22c>
			readFlashManuSPI(&hspi2, huart, cs_spi2);
 8001a82:	4b5a      	ldr	r3, [pc, #360]	; (8001bec <handleUART+0x254>)
 8001a84:	cb0c      	ldmia	r3, {r2, r3}
 8001a86:	6879      	ldr	r1, [r7, #4]
 8001a88:	4859      	ldr	r0, [pc, #356]	; (8001bf0 <handleUART+0x258>)
 8001a8a:	f000 fa25 	bl	8001ed8 <readFlashManuSPI>
 8001a8e:	e099      	b.n	8001bc4 <handleUART+0x22c>
		}
	}

	// Write a page over SPI (data_rx[0] = "w")
	else if (UARTRxData[0] == 0x77) {
 8001a90:	4b52      	ldr	r3, [pc, #328]	; (8001bdc <handleUART+0x244>)
 8001a92:	781b      	ldrb	r3, [r3, #0]
 8001a94:	2b77      	cmp	r3, #119	; 0x77
 8001a96:	d11d      	bne.n	8001ad4 <handleUART+0x13c>
		if(decodeASCII(UARTRxData[1]) == 0) {
 8001a98:	4b50      	ldr	r3, [pc, #320]	; (8001bdc <handleUART+0x244>)
 8001a9a:	785b      	ldrb	r3, [r3, #1]
 8001a9c:	4618      	mov	r0, r3
 8001a9e:	f000 f8b1 	bl	8001c04 <decodeASCII>
 8001aa2:	4603      	mov	r3, r0
 8001aa4:	2b00      	cmp	r3, #0
 8001aa6:	d106      	bne.n	8001ab6 <handleUART+0x11e>
			writePageSPI_W(&hspi1, huart, cs_spi1);
 8001aa8:	4b4e      	ldr	r3, [pc, #312]	; (8001be4 <handleUART+0x24c>)
 8001aaa:	cb0c      	ldmia	r3, {r2, r3}
 8001aac:	6879      	ldr	r1, [r7, #4]
 8001aae:	484e      	ldr	r0, [pc, #312]	; (8001be8 <handleUART+0x250>)
 8001ab0:	f000 fa32 	bl	8001f18 <writePageSPI_W>
 8001ab4:	e086      	b.n	8001bc4 <handleUART+0x22c>
		} else if (decodeASCII(UARTRxData[1]) == 1) {
 8001ab6:	4b49      	ldr	r3, [pc, #292]	; (8001bdc <handleUART+0x244>)
 8001ab8:	785b      	ldrb	r3, [r3, #1]
 8001aba:	4618      	mov	r0, r3
 8001abc:	f000 f8a2 	bl	8001c04 <decodeASCII>
 8001ac0:	4603      	mov	r3, r0
 8001ac2:	2b01      	cmp	r3, #1
 8001ac4:	d17e      	bne.n	8001bc4 <handleUART+0x22c>
			writePageSPI_W(&hspi2, huart, cs_spi2);
 8001ac6:	4b49      	ldr	r3, [pc, #292]	; (8001bec <handleUART+0x254>)
 8001ac8:	cb0c      	ldmia	r3, {r2, r3}
 8001aca:	6879      	ldr	r1, [r7, #4]
 8001acc:	4848      	ldr	r0, [pc, #288]	; (8001bf0 <handleUART+0x258>)
 8001ace:	f000 fa23 	bl	8001f18 <writePageSPI_W>
 8001ad2:	e077      	b.n	8001bc4 <handleUART+0x22c>
		}
	}

	// Software reset flash chip over SPI (data_rx[0] = "x")
	else if (UARTRxData[0] == 0x78) {
 8001ad4:	4b41      	ldr	r3, [pc, #260]	; (8001bdc <handleUART+0x244>)
 8001ad6:	781b      	ldrb	r3, [r3, #0]
 8001ad8:	2b78      	cmp	r3, #120	; 0x78
 8001ada:	d11d      	bne.n	8001b18 <handleUART+0x180>
		if(decodeASCII(UARTRxData[1]) == 0) {
 8001adc:	4b3f      	ldr	r3, [pc, #252]	; (8001bdc <handleUART+0x244>)
 8001ade:	785b      	ldrb	r3, [r3, #1]
 8001ae0:	4618      	mov	r0, r3
 8001ae2:	f000 f88f 	bl	8001c04 <decodeASCII>
 8001ae6:	4603      	mov	r3, r0
 8001ae8:	2b00      	cmp	r3, #0
 8001aea:	d106      	bne.n	8001afa <handleUART+0x162>
			resetSPIFlash(&hspi1, huart, cs_spi1);
 8001aec:	4b3d      	ldr	r3, [pc, #244]	; (8001be4 <handleUART+0x24c>)
 8001aee:	cb0c      	ldmia	r3, {r2, r3}
 8001af0:	6879      	ldr	r1, [r7, #4]
 8001af2:	483d      	ldr	r0, [pc, #244]	; (8001be8 <handleUART+0x250>)
 8001af4:	f000 fa64 	bl	8001fc0 <resetSPIFlash>
 8001af8:	e064      	b.n	8001bc4 <handleUART+0x22c>
		} else if (decodeASCII(UARTRxData[1]) == 1) {
 8001afa:	4b38      	ldr	r3, [pc, #224]	; (8001bdc <handleUART+0x244>)
 8001afc:	785b      	ldrb	r3, [r3, #1]
 8001afe:	4618      	mov	r0, r3
 8001b00:	f000 f880 	bl	8001c04 <decodeASCII>
 8001b04:	4603      	mov	r3, r0
 8001b06:	2b01      	cmp	r3, #1
 8001b08:	d15c      	bne.n	8001bc4 <handleUART+0x22c>
			resetSPIFlash(&hspi2, huart, cs_spi2);
 8001b0a:	4b38      	ldr	r3, [pc, #224]	; (8001bec <handleUART+0x254>)
 8001b0c:	cb0c      	ldmia	r3, {r2, r3}
 8001b0e:	6879      	ldr	r1, [r7, #4]
 8001b10:	4837      	ldr	r0, [pc, #220]	; (8001bf0 <handleUART+0x258>)
 8001b12:	f000 fa55 	bl	8001fc0 <resetSPIFlash>
 8001b16:	e055      	b.n	8001bc4 <handleUART+0x22c>
		}
	}

/*********************************** I2C Accelerometer ***********************************/
	// Read Accelerometer WhoAmI (data_rx[0] = "c")
	else if (UARTRxData[0] == 0x63) {
 8001b18:	4b30      	ldr	r3, [pc, #192]	; (8001bdc <handleUART+0x244>)
 8001b1a:	781b      	ldrb	r3, [r3, #0]
 8001b1c:	2b63      	cmp	r3, #99	; 0x63
 8001b1e:	d106      	bne.n	8001b2e <handleUART+0x196>
		checkAccelWhoAmI(i2c_accel, huart);
 8001b20:	4b34      	ldr	r3, [pc, #208]	; (8001bf4 <handleUART+0x25c>)
 8001b22:	681b      	ldr	r3, [r3, #0]
 8001b24:	6879      	ldr	r1, [r7, #4]
 8001b26:	4618      	mov	r0, r3
 8001b28:	f000 fa62 	bl	8001ff0 <checkAccelWhoAmI>
 8001b2c:	e04a      	b.n	8001bc4 <handleUART+0x22c>
	}

	// Read the accelerometer and print to the UART[0] (data_rx [0] = "a")
	else if (UARTRxData[0] == 0x61) {
 8001b2e:	4b2b      	ldr	r3, [pc, #172]	; (8001bdc <handleUART+0x244>)
 8001b30:	781b      	ldrb	r3, [r3, #0]
 8001b32:	2b61      	cmp	r3, #97	; 0x61
 8001b34:	d103      	bne.n	8001b3e <handleUART+0x1a6>
		accelToUART(huart);
 8001b36:	6878      	ldr	r0, [r7, #4]
 8001b38:	f000 fa6e 	bl	8002018 <accelToUART>
 8001b3c:	e042      	b.n	8001bc4 <handleUART+0x22c>
	}

/********************************** I2C BME280 *******************************************/
	// Read the temp sensor ID and print to the UART[0] (data_rx [0]= "b")
	else if (UARTRxData[0] == 0x62) {
 8001b3e:	4b27      	ldr	r3, [pc, #156]	; (8001bdc <handleUART+0x244>)
 8001b40:	781b      	ldrb	r3, [r3, #0]
 8001b42:	2b62      	cmp	r3, #98	; 0x62
 8001b44:	d10d      	bne.n	8001b62 <handleUART+0x1ca>
		readTempSensorID(i2c_bme280, huart, decodeASCII(UARTRxData[1]));
 8001b46:	4b2c      	ldr	r3, [pc, #176]	; (8001bf8 <handleUART+0x260>)
 8001b48:	681c      	ldr	r4, [r3, #0]
 8001b4a:	4b24      	ldr	r3, [pc, #144]	; (8001bdc <handleUART+0x244>)
 8001b4c:	785b      	ldrb	r3, [r3, #1]
 8001b4e:	4618      	mov	r0, r3
 8001b50:	f000 f858 	bl	8001c04 <decodeASCII>
 8001b54:	4603      	mov	r3, r0
 8001b56:	461a      	mov	r2, r3
 8001b58:	6879      	ldr	r1, [r7, #4]
 8001b5a:	4620      	mov	r0, r4
 8001b5c:	f000 fa78 	bl	8002050 <readTempSensorID>
 8001b60:	e030      	b.n	8001bc4 <handleUART+0x22c>
	}

	// Read the temp sensor calibration registers and print to the UART (data_rx[0] = "p")
	else if (UARTRxData[0] == 0x70) {
 8001b62:	4b1e      	ldr	r3, [pc, #120]	; (8001bdc <handleUART+0x244>)
 8001b64:	781b      	ldrb	r3, [r3, #0]
 8001b66:	2b70      	cmp	r3, #112	; 0x70
 8001b68:	d10d      	bne.n	8001b86 <handleUART+0x1ee>
		readTempCalibration(i2c_bme280, huart, decodeASCII(UARTRxData[1]));
 8001b6a:	4b23      	ldr	r3, [pc, #140]	; (8001bf8 <handleUART+0x260>)
 8001b6c:	681c      	ldr	r4, [r3, #0]
 8001b6e:	4b1b      	ldr	r3, [pc, #108]	; (8001bdc <handleUART+0x244>)
 8001b70:	785b      	ldrb	r3, [r3, #1]
 8001b72:	4618      	mov	r0, r3
 8001b74:	f000 f846 	bl	8001c04 <decodeASCII>
 8001b78:	4603      	mov	r3, r0
 8001b7a:	461a      	mov	r2, r3
 8001b7c:	6879      	ldr	r1, [r7, #4]
 8001b7e:	4620      	mov	r0, r4
 8001b80:	f000 fa7b 	bl	800207a <readTempCalibration>
 8001b84:	e01e      	b.n	8001bc4 <handleUART+0x22c>
	}

	// Read the temp sensor and print to the UART[0] (data_rx [0]= "t")
	else if (UARTRxData[0] == 0x74) {
 8001b86:	4b15      	ldr	r3, [pc, #84]	; (8001bdc <handleUART+0x244>)
 8001b88:	781b      	ldrb	r3, [r3, #0]
 8001b8a:	2b74      	cmp	r3, #116	; 0x74
 8001b8c:	d10a      	bne.n	8001ba4 <handleUART+0x20c>
		readTempSensor(huart, decodeASCII(UARTRxData[1]));
 8001b8e:	4b13      	ldr	r3, [pc, #76]	; (8001bdc <handleUART+0x244>)
 8001b90:	785b      	ldrb	r3, [r3, #1]
 8001b92:	4618      	mov	r0, r3
 8001b94:	f000 f836 	bl	8001c04 <decodeASCII>
 8001b98:	4603      	mov	r3, r0
 8001b9a:	4619      	mov	r1, r3
 8001b9c:	6878      	ldr	r0, [r7, #4]
 8001b9e:	f000 fac3 	bl	8002128 <readTempSensor>
 8001ba2:	e00f      	b.n	8001bc4 <handleUART+0x22c>
	}

	/********************************** CAN Bus *******************************************/
	// Send the second byte received over the CAN bus as a payload with id 0x700 (data_rx [0]= "n")
	else if (UARTRxData[0] == 0x6E) {
 8001ba4:	4b0d      	ldr	r3, [pc, #52]	; (8001bdc <handleUART+0x244>)
 8001ba6:	781b      	ldrb	r3, [r3, #0]
 8001ba8:	2b6e      	cmp	r3, #110	; 0x6e
 8001baa:	d10b      	bne.n	8001bc4 <handleUART+0x22c>
		uint8_t TxData[1] = {UARTRxData[1]};
 8001bac:	4b0b      	ldr	r3, [pc, #44]	; (8001bdc <handleUART+0x244>)
 8001bae:	785b      	ldrb	r3, [r3, #1]
 8001bb0:	703b      	strb	r3, [r7, #0]
		sendCAN_TxMessage(&hcan2, 1, TxData, &CAN_TxMailbox, DUMMY_ID);
 8001bb2:	463a      	mov	r2, r7
 8001bb4:	f44f 63e0 	mov.w	r3, #1792	; 0x700
 8001bb8:	9300      	str	r3, [sp, #0]
 8001bba:	4b10      	ldr	r3, [pc, #64]	; (8001bfc <handleUART+0x264>)
 8001bbc:	2101      	movs	r1, #1
 8001bbe:	4810      	ldr	r0, [pc, #64]	; (8001c00 <handleUART+0x268>)
 8001bc0:	f7fe fe24 	bl	800080c <sendCAN_TxMessage>
	}

	UARTRxData[0] = 0x00;
 8001bc4:	4b05      	ldr	r3, [pc, #20]	; (8001bdc <handleUART+0x244>)
 8001bc6:	2200      	movs	r2, #0
 8001bc8:	701a      	strb	r2, [r3, #0]
	UARTRxData[1] = 0x00;
 8001bca:	4b04      	ldr	r3, [pc, #16]	; (8001bdc <handleUART+0x244>)
 8001bcc:	2200      	movs	r2, #0
 8001bce:	705a      	strb	r2, [r3, #1]
}
 8001bd0:	bf00      	nop
 8001bd2:	370c      	adds	r7, #12
 8001bd4:	46bd      	mov	sp, r7
 8001bd6:	bd90      	pop	{r4, r7, pc}
 8001bd8:	20000338 	.word	0x20000338
 8001bdc:	20000388 	.word	0x20000388
 8001be0:	20000614 	.word	0x20000614
 8001be4:	200005ec 	.word	0x200005ec
 8001be8:	20000138 	.word	0x20000138
 8001bec:	200005fc 	.word	0x200005fc
 8001bf0:	20000190 	.word	0x20000190
 8001bf4:	20000380 	.word	0x20000380
 8001bf8:	20000384 	.word	0x20000384
 8001bfc:	2000038c 	.word	0x2000038c
 8001c00:	20000048 	.word	0x20000048

08001c04 <decodeASCII>:

uint8_t decodeASCII(uint8_t asciiVal) {
 8001c04:	b480      	push	{r7}
 8001c06:	b085      	sub	sp, #20
 8001c08:	af00      	add	r7, sp, #0
 8001c0a:	4603      	mov	r3, r0
 8001c0c:	71fb      	strb	r3, [r7, #7]
	int returnVal = -1;
 8001c0e:	f04f 33ff 	mov.w	r3, #4294967295	; 0xffffffff
 8001c12:	60fb      	str	r3, [r7, #12]
	if ((asciiVal >= 48) && (asciiVal <= 57)) {
 8001c14:	79fb      	ldrb	r3, [r7, #7]
 8001c16:	2b2f      	cmp	r3, #47	; 0x2f
 8001c18:	d905      	bls.n	8001c26 <decodeASCII+0x22>
 8001c1a:	79fb      	ldrb	r3, [r7, #7]
 8001c1c:	2b39      	cmp	r3, #57	; 0x39
 8001c1e:	d802      	bhi.n	8001c26 <decodeASCII+0x22>
		returnVal = asciiVal - 48;
 8001c20:	79fb      	ldrb	r3, [r7, #7]
 8001c22:	3b30      	subs	r3, #48	; 0x30
 8001c24:	60fb      	str	r3, [r7, #12]
	}
	return returnVal;
 8001c26:	68fb      	ldr	r3, [r7, #12]
 8001c28:	b2db      	uxtb	r3, r3
}
 8001c2a:	4618      	mov	r0, r3
 8001c2c:	3714      	adds	r7, #20
 8001c2e:	46bd      	mov	sp, r7
 8001c30:	f85d 7b04 	ldr.w	r7, [sp], #4
 8001c34:	4770      	bx	lr
	...

08001c38 <combine_system_status>:

uint8_t combine_system_status() {
 8001c38:	b480      	push	{r7}
 8001c3a:	b083      	sub	sp, #12
 8001c3c:	af00      	add	r7, sp, #0
    // Mask status to use only bits 4:0
    uint8_t masked_status = sysStatus & 0x1F; 			// 0001 1111b
 8001c3e:	4b0c      	ldr	r3, [pc, #48]	; (8001c70 <combine_system_status+0x38>)
 8001c40:	781b      	ldrb	r3, [r3, #0]
 8001c42:	f003 031f 	and.w	r3, r3, #31
 8001c46:	71fb      	strb	r3, [r7, #7]

    // Mask flight_state to use only bits 2:0
    uint8_t masked_flight_state = flight_state & 0x07; 	// 0000 0111b
 8001c48:	4b0a      	ldr	r3, [pc, #40]	; (8001c74 <combine_system_status+0x3c>)
 8001c4a:	781b      	ldrb	r3, [r3, #0]
 8001c4c:	f003 0307 	and.w	r3, r3, #7
 8001c50:	71bb      	strb	r3, [r7, #6]
    // Shift flight_state to the correct position (bits 7:5)
    uint8_t shifted_flight_state = masked_flight_state << 5;
 8001c52:	79bb      	ldrb	r3, [r7, #6]
 8001c54:	015b      	lsls	r3, r3, #5
 8001c56:	717b      	strb	r3, [r7, #5]

    // Combine the masked_status and shifted_flight_state
    uint8_t combined_value = masked_status | shifted_flight_state;
 8001c58:	79fa      	ldrb	r2, [r7, #7]
 8001c5a:	797b      	ldrb	r3, [r7, #5]
 8001c5c:	4313      	orrs	r3, r2
 8001c5e:	713b      	strb	r3, [r7, #4]

    return combined_value;
 8001c60:	793b      	ldrb	r3, [r7, #4]
}
 8001c62:	4618      	mov	r0, r3
 8001c64:	370c      	adds	r7, #12
 8001c66:	46bd      	mov	sp, r7
 8001c68:	f85d 7b04 	ldr.w	r7, [sp], #4
 8001c6c:	4770      	bx	lr
 8001c6e:	bf00      	nop
 8001c70:	20000614 	.word	0x20000614
 8001c74:	20000615 	.word	0x20000615

08001c78 <configureCAN>:

void configureCAN() {
 8001c78:	b580      	push	{r7, lr}
 8001c7a:	b08a      	sub	sp, #40	; 0x28
 8001c7c:	af00      	add	r7, sp, #0
	CAN_FilterTypeDef canFilterConfig;

	canFilterConfig.FilterActivation = CAN_FILTER_ENABLE;
 8001c7e:	2301      	movs	r3, #1
 8001c80:	623b      	str	r3, [r7, #32]
	canFilterConfig.FilterBank = 10;
 8001c82:	230a      	movs	r3, #10
 8001c84:	617b      	str	r3, [r7, #20]
	canFilterConfig.FilterFIFOAssignment = CAN_RX_FIFO0;
 8001c86:	2300      	movs	r3, #0
 8001c88:	613b      	str	r3, [r7, #16]
	canFilterConfig.FilterIdHigh = 0x500 << 5;				// Filter only messages with ID 1X1XXXXXXXXb
 8001c8a:	f44f 4320 	mov.w	r3, #40960	; 0xa000
 8001c8e:	603b      	str	r3, [r7, #0]
	canFilterConfig.FilterIdLow = 0x0000;
 8001c90:	2300      	movs	r3, #0
 8001c92:	607b      	str	r3, [r7, #4]
	canFilterConfig.FilterMaskIdHigh = 0x500 << 5;
 8001c94:	f44f 4320 	mov.w	r3, #40960	; 0xa000
 8001c98:	60bb      	str	r3, [r7, #8]
	canFilterConfig.FilterMaskIdLow = 0x0000;
 8001c9a:	2300      	movs	r3, #0
 8001c9c:	60fb      	str	r3, [r7, #12]
	canFilterConfig.FilterMode = CAN_FILTERMODE_IDMASK;
 8001c9e:	2300      	movs	r3, #0
 8001ca0:	61bb      	str	r3, [r7, #24]
	canFilterConfig.FilterScale = CAN_FILTERSCALE_32BIT;
 8001ca2:	2301      	movs	r3, #1
 8001ca4:	61fb      	str	r3, [r7, #28]
	canFilterConfig.SlaveStartFilterBank = 0;
 8001ca6:	2300      	movs	r3, #0
 8001ca8:	627b      	str	r3, [r7, #36]	; 0x24

	HAL_CAN_ConfigFilter(&hcan2, &canFilterConfig);
 8001caa:	463b      	mov	r3, r7
 8001cac:	4619      	mov	r1, r3
 8001cae:	4803      	ldr	r0, [pc, #12]	; (8001cbc <configureCAN+0x44>)
 8001cb0:	f001 fa40 	bl	8003134 <HAL_CAN_ConfigFilter>
}
 8001cb4:	bf00      	nop
 8001cb6:	3728      	adds	r7, #40	; 0x28
 8001cb8:	46bd      	mov	sp, r7
 8001cba:	bd80      	pop	{r7, pc}
 8001cbc:	20000048 	.word	0x20000048

08001cc0 <Error_Handler>:
/**
  * @brief  This function is executed in case of error occurrence.
  * @retval None
  */
void Error_Handler(void)
{
 8001cc0:	b480      	push	{r7}
 8001cc2:	af00      	add	r7, sp, #0
  \details Disables IRQ interrupts by setting special-purpose register PRIMASK.
           Can only be executed in Privileged modes.
 */
__STATIC_FORCEINLINE void __disable_irq(void)
{
  __ASM volatile ("cpsid i" : : : "memory");
 8001cc4:	b672      	cpsid	i
}
 8001cc6:	bf00      	nop
  /* USER CODE BEGIN Error_Handler_Debug */
  /* User can add his own implementation to report the HAL error return state */
  __disable_irq();
  while (1)
 8001cc8:	e7fe      	b.n	8001cc8 <Error_Handler+0x8>
	...

08001ccc <systemStatus>:

#include "peripheral_driver.h"
/***************************************************************************************************************
 * Generic Functions
 */
uint8_t systemStatus(SPI_HandleTypeDef *hspi1, SPI_HandleTypeDef *hspi2, I2C_HandleTypeDef* hi2c1, I2C_HandleTypeDef* hi2c2) {
 8001ccc:	b580      	push	{r7, lr}
 8001cce:	b086      	sub	sp, #24
 8001cd0:	af00      	add	r7, sp, #0
 8001cd2:	60f8      	str	r0, [r7, #12]
 8001cd4:	60b9      	str	r1, [r7, #8]
 8001cd6:	607a      	str	r2, [r7, #4]
 8001cd8:	603b      	str	r3, [r7, #0]
	uint8_t retVal = 0x00;
 8001cda:	2300      	movs	r3, #0
 8001cdc:	75fb      	strb	r3, [r7, #23]

	// Check BME280_1
	if(readBME280_id_reg(hi2c1, 1) != 0x60) {			// Expected 0x60
 8001cde:	2101      	movs	r1, #1
 8001ce0:	6878      	ldr	r0, [r7, #4]
 8001ce2:	f7fe fd23 	bl	800072c <readBME280_id_reg>
 8001ce6:	4603      	mov	r3, r0
 8001ce8:	2b60      	cmp	r3, #96	; 0x60
 8001cea:	d003      	beq.n	8001cf4 <systemStatus+0x28>
		retVal  = retVal | 0x10;
 8001cec:	7dfb      	ldrb	r3, [r7, #23]
 8001cee:	f043 0310 	orr.w	r3, r3, #16
 8001cf2:	75fb      	strb	r3, [r7, #23]
	}

	// Check BME280_0
	if(readBME280_id_reg(hi2c1, 0) != 0x60) {			// Expected 0x60
 8001cf4:	2100      	movs	r1, #0
 8001cf6:	6878      	ldr	r0, [r7, #4]
 8001cf8:	f7fe fd18 	bl	800072c <readBME280_id_reg>
 8001cfc:	4603      	mov	r3, r0
 8001cfe:	2b60      	cmp	r3, #96	; 0x60
 8001d00:	d003      	beq.n	8001d0a <systemStatus+0x3e>
		retVal  = retVal | 0x08;
 8001d02:	7dfb      	ldrb	r3, [r7, #23]
 8001d04:	f043 0308 	orr.w	r3, r3, #8
 8001d08:	75fb      	strb	r3, [r7, #23]
	}

	// Check Accelerometer
	if(readAccel_whoami(hi2c2) != 0xE5) {				// Expected 0xE5
 8001d0a:	6838      	ldr	r0, [r7, #0]
 8001d0c:	f7fe fc50 	bl	80005b0 <readAccel_whoami>
 8001d10:	4603      	mov	r3, r0
 8001d12:	2be5      	cmp	r3, #229	; 0xe5
 8001d14:	d003      	beq.n	8001d1e <systemStatus+0x52>
		retVal  = retVal | 0x04;
 8001d16:	7dfb      	ldrb	r3, [r7, #23]
 8001d18:	f043 0304 	orr.w	r3, r3, #4
 8001d1c:	75fb      	strb	r3, [r7, #23]
	}

	// Check SPIFlash_1
	uint8_t manu[2] = {0, 0};
 8001d1e:	2300      	movs	r3, #0
 8001d20:	82bb      	strh	r3, [r7, #20]
	read_manufacturer_id(manu, hspi2, cs_spi2);
 8001d22:	4b11      	ldr	r3, [pc, #68]	; (8001d68 <systemStatus+0x9c>)
 8001d24:	f107 0014 	add.w	r0, r7, #20
 8001d28:	cb0c      	ldmia	r3, {r2, r3}
 8001d2a:	68b9      	ldr	r1, [r7, #8]
 8001d2c:	f7fe ff3e 	bl	8000bac <read_manufacturer_id>
	if(manu[0] != 0xEF) {								// Expected 0xEF
 8001d30:	7d3b      	ldrb	r3, [r7, #20]
 8001d32:	2bef      	cmp	r3, #239	; 0xef
 8001d34:	d003      	beq.n	8001d3e <systemStatus+0x72>
		retVal  = retVal | 0x02;
 8001d36:	7dfb      	ldrb	r3, [r7, #23]
 8001d38:	f043 0302 	orr.w	r3, r3, #2
 8001d3c:	75fb      	strb	r3, [r7, #23]
	}

	// Check SPIFlash_0
	uint8_t manu0[2] = {0, 0};
 8001d3e:	2300      	movs	r3, #0
 8001d40:	823b      	strh	r3, [r7, #16]
	read_manufacturer_id(manu0, hspi1, cs_spi1);
 8001d42:	4b0a      	ldr	r3, [pc, #40]	; (8001d6c <systemStatus+0xa0>)
 8001d44:	f107 0010 	add.w	r0, r7, #16
 8001d48:	cb0c      	ldmia	r3, {r2, r3}
 8001d4a:	68f9      	ldr	r1, [r7, #12]
 8001d4c:	f7fe ff2e 	bl	8000bac <read_manufacturer_id>
	if(manu0[0] != 0xEF) {								// Expected 0xEF
 8001d50:	7c3b      	ldrb	r3, [r7, #16]
 8001d52:	2bef      	cmp	r3, #239	; 0xef
 8001d54:	d003      	beq.n	8001d5e <systemStatus+0x92>
		retVal  = retVal | 0x01;
 8001d56:	7dfb      	ldrb	r3, [r7, #23]
 8001d58:	f043 0301 	orr.w	r3, r3, #1
 8001d5c:	75fb      	strb	r3, [r7, #23]
	}
	return retVal;
 8001d5e:	7dfb      	ldrb	r3, [r7, #23]
}
 8001d60:	4618      	mov	r0, r3
 8001d62:	3718      	adds	r7, #24
 8001d64:	46bd      	mov	sp, r7
 8001d66:	bd80      	pop	{r7, pc}
 8001d68:	200005fc 	.word	0x200005fc
 8001d6c:	200005ec 	.word	0x200005ec

08001d70 <heartbeatUART>:

void heartbeatUART(UART_HandleTypeDef *huart) {
 8001d70:	b580      	push	{r7, lr}
 8001d72:	b082      	sub	sp, #8
 8001d74:	af00      	add	r7, sp, #0
 8001d76:	6078      	str	r0, [r7, #4]
	send_uart_hex(huart, 0x51);			// Transmit the heartbeat as device ID (0x51 = Q)
 8001d78:	2151      	movs	r1, #81	; 0x51
 8001d7a:	6878      	ldr	r0, [r7, #4]
 8001d7c:	f001 f809 	bl	8002d92 <send_uart_hex>
}
 8001d80:	bf00      	nop
 8001d82:	3708      	adds	r7, #8
 8001d84:	46bd      	mov	sp, r7
 8001d86:	bd80      	pop	{r7, pc}

08001d88 <eraseFlashSPI>:

/***************************************************************************************************************
 * SPI Flash Functions
 */
void eraseFlashSPI(SPI_HandleTypeDef *hspi, UART_HandleTypeDef *huart, GPIO_Config config) {
 8001d88:	b580      	push	{r7, lr}
 8001d8a:	b084      	sub	sp, #16
 8001d8c:	af00      	add	r7, sp, #0
 8001d8e:	60f8      	str	r0, [r7, #12]
 8001d90:	60b9      	str	r1, [r7, #8]
 8001d92:	4639      	mov	r1, r7
 8001d94:	e881 000c 	stmia.w	r1, {r2, r3}
	HAL_GPIO_WritePin(GPIOB, GPIO_PIN_7, GPIO_PIN_SET);		// Activate the "write out" LED
 8001d98:	2201      	movs	r2, #1
 8001d9a:	2180      	movs	r1, #128	; 0x80
 8001d9c:	4813      	ldr	r0, [pc, #76]	; (8001dec <eraseFlashSPI+0x64>)
 8001d9e:	f002 fe0d 	bl	80049bc <HAL_GPIO_WritePin>
	if (erase_chip_spi(hspi, config) == HAL_OK) {
 8001da2:	463b      	mov	r3, r7
 8001da4:	e893 0006 	ldmia.w	r3, {r1, r2}
 8001da8:	68f8      	ldr	r0, [r7, #12]
 8001daa:	f7fe fdb3 	bl	8000914 <erase_chip_spi>
 8001dae:	4603      	mov	r3, r0
 8001db0:	2b00      	cmp	r3, #0
 8001db2:	d10d      	bne.n	8001dd0 <eraseFlashSPI+0x48>
		send_uart_string(huart, "Successful Chip Erase\r\n");
 8001db4:	490e      	ldr	r1, [pc, #56]	; (8001df0 <eraseFlashSPI+0x68>)
 8001db6:	68b8      	ldr	r0, [r7, #8]
 8001db8:	f000 ffd7 	bl	8002d6a <send_uart_string>
		next_blank_page = find_next_blank_page(hspi, &end_of_flash, config);
 8001dbc:	463b      	mov	r3, r7
 8001dbe:	cb0c      	ldmia	r3, {r2, r3}
 8001dc0:	490c      	ldr	r1, [pc, #48]	; (8001df4 <eraseFlashSPI+0x6c>)
 8001dc2:	68f8      	ldr	r0, [r7, #12]
 8001dc4:	f7fe fe34 	bl	8000a30 <find_next_blank_page>
 8001dc8:	4603      	mov	r3, r0
 8001dca:	4a0b      	ldr	r2, [pc, #44]	; (8001df8 <eraseFlashSPI+0x70>)
 8001dcc:	6013      	str	r3, [r2, #0]
 8001dce:	e003      	b.n	8001dd8 <eraseFlashSPI+0x50>
	} else {
		send_uart_string(huart, "Error during chip erase. Please check the connection and try again.\r\n");
 8001dd0:	490a      	ldr	r1, [pc, #40]	; (8001dfc <eraseFlashSPI+0x74>)
 8001dd2:	68b8      	ldr	r0, [r7, #8]
 8001dd4:	f000 ffc9 	bl	8002d6a <send_uart_string>
	}
	HAL_GPIO_WritePin(GPIOB, GPIO_PIN_7,GPIO_PIN_RESET);	// Deactivate the "write out" LED
 8001dd8:	2200      	movs	r2, #0
 8001dda:	2180      	movs	r1, #128	; 0x80
 8001ddc:	4803      	ldr	r0, [pc, #12]	; (8001dec <eraseFlashSPI+0x64>)
 8001dde:	f002 fded 	bl	80049bc <HAL_GPIO_WritePin>
}
 8001de2:	bf00      	nop
 8001de4:	3710      	adds	r7, #16
 8001de6:	46bd      	mov	sp, r7
 8001de8:	bd80      	pop	{r7, pc}
 8001dea:	bf00      	nop
 8001dec:	40020400 	.word	0x40020400
 8001df0:	080092f4 	.word	0x080092f4
 8001df4:	200005da 	.word	0x200005da
 8001df8:	200005d4 	.word	0x200005d4
 8001dfc:	0800930c 	.word	0x0800930c

08001e00 <readFlashToUART>:

void readFlashToUART(SPI_HandleTypeDef *hspi, UART_HandleTypeDef *huart, GPIO_Config config) {
 8001e00:	b590      	push	{r4, r7, lr}
 8001e02:	b0cb      	sub	sp, #300	; 0x12c
 8001e04:	af02      	add	r7, sp, #8
 8001e06:	f507 7490 	add.w	r4, r7, #288	; 0x120
 8001e0a:	f5a4 748a 	sub.w	r4, r4, #276	; 0x114
 8001e0e:	6020      	str	r0, [r4, #0]
 8001e10:	f507 7090 	add.w	r0, r7, #288	; 0x120
 8001e14:	f5a0 708c 	sub.w	r0, r0, #280	; 0x118
 8001e18:	6001      	str	r1, [r0, #0]
 8001e1a:	f507 7190 	add.w	r1, r7, #288	; 0x120
 8001e1e:	f5a1 7190 	sub.w	r1, r1, #288	; 0x120
 8001e22:	e881 000c 	stmia.w	r1, {r2, r3}
	uint32_t num_of_pages = next_blank_page;
 8001e26:	4b2a      	ldr	r3, [pc, #168]	; (8001ed0 <readFlashToUART+0xd0>)
 8001e28:	681b      	ldr	r3, [r3, #0]
 8001e2a:	f8c7 311c 	str.w	r3, [r7, #284]	; 0x11c
	if(num_of_pages == 0) {
 8001e2e:	f8d7 311c 	ldr.w	r3, [r7, #284]	; 0x11c
 8001e32:	2b00      	cmp	r3, #0
 8001e34:	d103      	bne.n	8001e3e <readFlashToUART+0x3e>
		num_of_pages = PAGE_SIZE;
 8001e36:	f44f 7380 	mov.w	r3, #256	; 0x100
 8001e3a:	f8c7 311c 	str.w	r3, [r7, #284]	; 0x11c
	}
	num_of_pages = num_of_pages/PAGE_SIZE;
 8001e3e:	f8d7 311c 	ldr.w	r3, [r7, #284]	; 0x11c
 8001e42:	0a1b      	lsrs	r3, r3, #8
 8001e44:	f8c7 311c 	str.w	r3, [r7, #284]	; 0x11c
	uint32_t address = 0;
 8001e48:	2300      	movs	r3, #0
 8001e4a:	f8c7 3118 	str.w	r3, [r7, #280]	; 0x118
	HAL_GPIO_WritePin(GPIOB, GPIO_PIN_7,GPIO_PIN_SET);		// Activate the "write out" LED
 8001e4e:	2201      	movs	r2, #1
 8001e50:	2180      	movs	r1, #128	; 0x80
 8001e52:	4820      	ldr	r0, [pc, #128]	; (8001ed4 <readFlashToUART+0xd4>)
 8001e54:	f002 fdb2 	bl	80049bc <HAL_GPIO_WritePin>

	for (int i = 0; i < (num_of_pages); i++) {
 8001e58:	2300      	movs	r3, #0
 8001e5a:	f8c7 3114 	str.w	r3, [r7, #276]	; 0x114
 8001e5e:	e026      	b.n	8001eae <readFlashToUART+0xae>
		uint8_t page[PAGE_SIZE];
		read_page_spi(page, hspi, address, config);
 8001e60:	f507 7390 	add.w	r3, r7, #288	; 0x120
 8001e64:	f5a3 7390 	sub.w	r3, r3, #288	; 0x120
 8001e68:	f507 7290 	add.w	r2, r7, #288	; 0x120
 8001e6c:	f5a2 718a 	sub.w	r1, r2, #276	; 0x114
 8001e70:	f107 0014 	add.w	r0, r7, #20
 8001e74:	685a      	ldr	r2, [r3, #4]
 8001e76:	9200      	str	r2, [sp, #0]
 8001e78:	681b      	ldr	r3, [r3, #0]
 8001e7a:	f8d7 2118 	ldr.w	r2, [r7, #280]	; 0x118
 8001e7e:	6809      	ldr	r1, [r1, #0]
 8001e80:	f7fe fe6e 	bl	8000b60 <read_page_spi>
		uart_transmit_page(huart, page);						// Transmit the data//
 8001e84:	f107 0214 	add.w	r2, r7, #20
 8001e88:	f507 7390 	add.w	r3, r7, #288	; 0x120
 8001e8c:	f5a3 738c 	sub.w	r3, r3, #280	; 0x118
 8001e90:	4611      	mov	r1, r2
 8001e92:	6818      	ldr	r0, [r3, #0]
 8001e94:	f000 ff58 	bl	8002d48 <uart_transmit_page>
		address += PAGE_SIZE;
 8001e98:	f8d7 3118 	ldr.w	r3, [r7, #280]	; 0x118
 8001e9c:	f503 7380 	add.w	r3, r3, #256	; 0x100
 8001ea0:	f8c7 3118 	str.w	r3, [r7, #280]	; 0x118
	for (int i = 0; i < (num_of_pages); i++) {
 8001ea4:	f8d7 3114 	ldr.w	r3, [r7, #276]	; 0x114
 8001ea8:	3301      	adds	r3, #1
 8001eaa:	f8c7 3114 	str.w	r3, [r7, #276]	; 0x114
 8001eae:	f8d7 3114 	ldr.w	r3, [r7, #276]	; 0x114
 8001eb2:	f8d7 211c 	ldr.w	r2, [r7, #284]	; 0x11c
 8001eb6:	429a      	cmp	r2, r3
 8001eb8:	d8d2      	bhi.n	8001e60 <readFlashToUART+0x60>
	}

	HAL_GPIO_WritePin(GPIOB, GPIO_PIN_7,GPIO_PIN_RESET);	// Deactivate the "write out" LED
 8001eba:	2200      	movs	r2, #0
 8001ebc:	2180      	movs	r1, #128	; 0x80
 8001ebe:	4805      	ldr	r0, [pc, #20]	; (8001ed4 <readFlashToUART+0xd4>)
 8001ec0:	f002 fd7c 	bl	80049bc <HAL_GPIO_WritePin>
}
 8001ec4:	bf00      	nop
 8001ec6:	f507 7792 	add.w	r7, r7, #292	; 0x124
 8001eca:	46bd      	mov	sp, r7
 8001ecc:	bd90      	pop	{r4, r7, pc}
 8001ece:	bf00      	nop
 8001ed0:	200005d4 	.word	0x200005d4
 8001ed4:	40020400 	.word	0x40020400

08001ed8 <readFlashManuSPI>:

void readFlashManuSPI(SPI_HandleTypeDef *hspi, UART_HandleTypeDef *huart, GPIO_Config config) {
 8001ed8:	b580      	push	{r7, lr}
 8001eda:	b086      	sub	sp, #24
 8001edc:	af00      	add	r7, sp, #0
 8001ede:	60f8      	str	r0, [r7, #12]
 8001ee0:	60b9      	str	r1, [r7, #8]
 8001ee2:	4639      	mov	r1, r7
 8001ee4:	e881 000c 	stmia.w	r1, {r2, r3}
	uint8_t manu[2] = {0, 0};
 8001ee8:	2300      	movs	r3, #0
 8001eea:	82bb      	strh	r3, [r7, #20]
	read_manufacturer_id(manu, hspi, config);
 8001eec:	f107 0014 	add.w	r0, r7, #20
 8001ef0:	463b      	mov	r3, r7
 8001ef2:	cb0c      	ldmia	r3, {r2, r3}
 8001ef4:	68f9      	ldr	r1, [r7, #12]
 8001ef6:	f7fe fe59 	bl	8000bac <read_manufacturer_id>
	send_uart_hex(huart, manu[0]);
 8001efa:	7d3b      	ldrb	r3, [r7, #20]
 8001efc:	4619      	mov	r1, r3
 8001efe:	68b8      	ldr	r0, [r7, #8]
 8001f00:	f000 ff47 	bl	8002d92 <send_uart_hex>
	send_uart_hex(huart, manu[1]);
 8001f04:	7d7b      	ldrb	r3, [r7, #21]
 8001f06:	4619      	mov	r1, r3
 8001f08:	68b8      	ldr	r0, [r7, #8]
 8001f0a:	f000 ff42 	bl	8002d92 <send_uart_hex>
}
 8001f0e:	bf00      	nop
 8001f10:	3718      	adds	r7, #24
 8001f12:	46bd      	mov	sp, r7
 8001f14:	bd80      	pop	{r7, pc}
	...

08001f18 <writePageSPI_W>:

void writePageSPI_W(SPI_HandleTypeDef *hspi, UART_HandleTypeDef *huart, GPIO_Config config) {
 8001f18:	b590      	push	{r4, r7, lr}
 8001f1a:	b0c9      	sub	sp, #292	; 0x124
 8001f1c:	af02      	add	r7, sp, #8
 8001f1e:	f507 748c 	add.w	r4, r7, #280	; 0x118
 8001f22:	f5a4 7486 	sub.w	r4, r4, #268	; 0x10c
 8001f26:	6020      	str	r0, [r4, #0]
 8001f28:	f507 708c 	add.w	r0, r7, #280	; 0x118
 8001f2c:	f5a0 7088 	sub.w	r0, r0, #272	; 0x110
 8001f30:	6001      	str	r1, [r0, #0]
 8001f32:	f507 718c 	add.w	r1, r7, #280	; 0x118
 8001f36:	f5a1 718c 	sub.w	r1, r1, #280	; 0x118
 8001f3a:	e881 000c 	stmia.w	r1, {r2, r3}
	uint8_t data_out[PAGE_SIZE];
	for (int i = 0; i < PAGE_SIZE; i++) {
 8001f3e:	2300      	movs	r3, #0
 8001f40:	f8c7 3114 	str.w	r3, [r7, #276]	; 0x114
 8001f44:	e00d      	b.n	8001f62 <writePageSPI_W+0x4a>
		data_out[i] = 0x77;		// Make all data in the page 'w'
 8001f46:	f507 738c 	add.w	r3, r7, #280	; 0x118
 8001f4a:	f5a3 7282 	sub.w	r2, r3, #260	; 0x104
 8001f4e:	f8d7 3114 	ldr.w	r3, [r7, #276]	; 0x114
 8001f52:	4413      	add	r3, r2
 8001f54:	2277      	movs	r2, #119	; 0x77
 8001f56:	701a      	strb	r2, [r3, #0]
	for (int i = 0; i < PAGE_SIZE; i++) {
 8001f58:	f8d7 3114 	ldr.w	r3, [r7, #276]	; 0x114
 8001f5c:	3301      	adds	r3, #1
 8001f5e:	f8c7 3114 	str.w	r3, [r7, #276]	; 0x114
 8001f62:	f8d7 3114 	ldr.w	r3, [r7, #276]	; 0x114
 8001f66:	2bff      	cmp	r3, #255	; 0xff
 8001f68:	dded      	ble.n	8001f46 <writePageSPI_W+0x2e>
	}
	write_data_spi_dma(data_out, hspi, next_blank_page, config);
 8001f6a:	4b13      	ldr	r3, [pc, #76]	; (8001fb8 <writePageSPI_W+0xa0>)
 8001f6c:	681c      	ldr	r4, [r3, #0]
 8001f6e:	f507 738c 	add.w	r3, r7, #280	; 0x118
 8001f72:	f5a3 738c 	sub.w	r3, r3, #280	; 0x118
 8001f76:	f507 728c 	add.w	r2, r7, #280	; 0x118
 8001f7a:	f5a2 7186 	sub.w	r1, r2, #268	; 0x10c
 8001f7e:	f107 0014 	add.w	r0, r7, #20
 8001f82:	685a      	ldr	r2, [r3, #4]
 8001f84:	9200      	str	r2, [sp, #0]
 8001f86:	681b      	ldr	r3, [r3, #0]
 8001f88:	4622      	mov	r2, r4
 8001f8a:	6809      	ldr	r1, [r1, #0]
 8001f8c:	f7fe fd22 	bl	80009d4 <write_data_spi_dma>
	next_blank_page += PAGE_SIZE;
 8001f90:	4b09      	ldr	r3, [pc, #36]	; (8001fb8 <writePageSPI_W+0xa0>)
 8001f92:	681b      	ldr	r3, [r3, #0]
 8001f94:	f503 7380 	add.w	r3, r3, #256	; 0x100
 8001f98:	4a07      	ldr	r2, [pc, #28]	; (8001fb8 <writePageSPI_W+0xa0>)
 8001f9a:	6013      	str	r3, [r2, #0]

	send_uart_string(huart, "Successful Page Written\r\n");
 8001f9c:	f507 738c 	add.w	r3, r7, #280	; 0x118
 8001fa0:	f5a3 7388 	sub.w	r3, r3, #272	; 0x110
 8001fa4:	4905      	ldr	r1, [pc, #20]	; (8001fbc <writePageSPI_W+0xa4>)
 8001fa6:	6818      	ldr	r0, [r3, #0]
 8001fa8:	f000 fedf 	bl	8002d6a <send_uart_string>
}
 8001fac:	bf00      	nop
 8001fae:	f507 778e 	add.w	r7, r7, #284	; 0x11c
 8001fb2:	46bd      	mov	sp, r7
 8001fb4:	bd90      	pop	{r4, r7, pc}
 8001fb6:	bf00      	nop
 8001fb8:	200005d4 	.word	0x200005d4
 8001fbc:	08009354 	.word	0x08009354

08001fc0 <resetSPIFlash>:

void resetSPIFlash(SPI_HandleTypeDef *hspi, UART_HandleTypeDef *huart, GPIO_Config config) {
 8001fc0:	b580      	push	{r7, lr}
 8001fc2:	b084      	sub	sp, #16
 8001fc4:	af00      	add	r7, sp, #0
 8001fc6:	60f8      	str	r0, [r7, #12]
 8001fc8:	60b9      	str	r1, [r7, #8]
 8001fca:	4639      	mov	r1, r7
 8001fcc:	e881 000c 	stmia.w	r1, {r2, r3}
	software_reset(hspi, config);
 8001fd0:	463b      	mov	r3, r7
 8001fd2:	e893 0006 	ldmia.w	r3, {r1, r2}
 8001fd6:	68f8      	ldr	r0, [r7, #12]
 8001fd8:	f7fe fcd8 	bl	800098c <software_reset>
	send_uart_string(huart, "Flash Chip Reset\r\n");
 8001fdc:	4903      	ldr	r1, [pc, #12]	; (8001fec <resetSPIFlash+0x2c>)
 8001fde:	68b8      	ldr	r0, [r7, #8]
 8001fe0:	f000 fec3 	bl	8002d6a <send_uart_string>
}
 8001fe4:	bf00      	nop
 8001fe6:	3710      	adds	r7, #16
 8001fe8:	46bd      	mov	sp, r7
 8001fea:	bd80      	pop	{r7, pc}
 8001fec:	08009370 	.word	0x08009370

08001ff0 <checkAccelWhoAmI>:
/***************************************************************************************************************
 * I2C Accelerometer Functions
 */
void checkAccelWhoAmI(I2C_HandleTypeDef* hi2c, UART_HandleTypeDef *huart) {
 8001ff0:	b580      	push	{r7, lr}
 8001ff2:	b084      	sub	sp, #16
 8001ff4:	af00      	add	r7, sp, #0
 8001ff6:	6078      	str	r0, [r7, #4]
 8001ff8:	6039      	str	r1, [r7, #0]
	uint8_t whoami = readAccel_whoami(hi2c);
 8001ffa:	6878      	ldr	r0, [r7, #4]
 8001ffc:	f7fe fad8 	bl	80005b0 <readAccel_whoami>
 8002000:	4603      	mov	r3, r0
 8002002:	73fb      	strb	r3, [r7, #15]
	send_uart_hex(huart, whoami);
 8002004:	7bfb      	ldrb	r3, [r7, #15]
 8002006:	4619      	mov	r1, r3
 8002008:	6838      	ldr	r0, [r7, #0]
 800200a:	f000 fec2 	bl	8002d92 <send_uart_hex>
}
 800200e:	bf00      	nop
 8002010:	3710      	adds	r7, #16
 8002012:	46bd      	mov	sp, r7
 8002014:	bd80      	pop	{r7, pc}
	...

08002018 <accelToUART>:

void accelToUART(UART_HandleTypeDef *huart) {
 8002018:	b580      	push	{r7, lr}
 800201a:	b084      	sub	sp, #16
 800201c:	af00      	add	r7, sp, #0
 800201e:	6078      	str	r0, [r7, #4]
	for (int i = 0; i < 6; i++) {
 8002020:	2300      	movs	r3, #0
 8002022:	60fb      	str	r3, [r7, #12]
 8002024:	e00a      	b.n	800203c <accelToUART+0x24>
		send_uart_hex(huart, accel_data[i]);
 8002026:	4a09      	ldr	r2, [pc, #36]	; (800204c <accelToUART+0x34>)
 8002028:	68fb      	ldr	r3, [r7, #12]
 800202a:	4413      	add	r3, r2
 800202c:	781b      	ldrb	r3, [r3, #0]
 800202e:	4619      	mov	r1, r3
 8002030:	6878      	ldr	r0, [r7, #4]
 8002032:	f000 feae 	bl	8002d92 <send_uart_hex>
	for (int i = 0; i < 6; i++) {
 8002036:	68fb      	ldr	r3, [r7, #12]
 8002038:	3301      	adds	r3, #1
 800203a:	60fb      	str	r3, [r7, #12]
 800203c:	68fb      	ldr	r3, [r7, #12]
 800203e:	2b05      	cmp	r3, #5
 8002040:	ddf1      	ble.n	8002026 <accelToUART+0xe>
	}
}
 8002042:	bf00      	nop
 8002044:	bf00      	nop
 8002046:	3710      	adds	r7, #16
 8002048:	46bd      	mov	sp, r7
 800204a:	bd80      	pop	{r7, pc}
 800204c:	200005bc 	.word	0x200005bc

08002050 <readTempSensorID>:

/***************************************************************************************************************
 * I2C BME280 Sensor Functions
 */
void readTempSensorID(I2C_HandleTypeDef* hi2c, UART_HandleTypeDef *huart, uint8_t tempNo) {
 8002050:	b580      	push	{r7, lr}
 8002052:	b084      	sub	sp, #16
 8002054:	af00      	add	r7, sp, #0
 8002056:	60f8      	str	r0, [r7, #12]
 8002058:	60b9      	str	r1, [r7, #8]
 800205a:	4613      	mov	r3, r2
 800205c:	71fb      	strb	r3, [r7, #7]
	send_uart_hex(huart, readBME280_id_reg(hi2c, tempNo));
 800205e:	79fb      	ldrb	r3, [r7, #7]
 8002060:	4619      	mov	r1, r3
 8002062:	68f8      	ldr	r0, [r7, #12]
 8002064:	f7fe fb62 	bl	800072c <readBME280_id_reg>
 8002068:	4603      	mov	r3, r0
 800206a:	4619      	mov	r1, r3
 800206c:	68b8      	ldr	r0, [r7, #8]
 800206e:	f000 fe90 	bl	8002d92 <send_uart_hex>
}
 8002072:	bf00      	nop
 8002074:	3710      	adds	r7, #16
 8002076:	46bd      	mov	sp, r7
 8002078:	bd80      	pop	{r7, pc}

0800207a <readTempCalibration>:

void readTempCalibration(I2C_HandleTypeDef* hi2c, UART_HandleTypeDef *huart, uint8_t tempNo) {
 800207a:	b580      	push	{r7, lr}
 800207c:	b090      	sub	sp, #64	; 0x40
 800207e:	af00      	add	r7, sp, #0
 8002080:	60f8      	str	r0, [r7, #12]
 8002082:	60b9      	str	r1, [r7, #8]
 8002084:	4613      	mov	r3, r2
 8002086:	71fb      	strb	r3, [r7, #7]
	uint8_t calibration1[25];
	uint8_t calibration2[7];

	for (uint8_t i = 0; i < CALIB_CNT_1; i++) {
 8002088:	2300      	movs	r3, #0
 800208a:	f887 303f 	strb.w	r3, [r7, #63]	; 0x3f
 800208e:	e016      	b.n	80020be <readTempCalibration+0x44>
		calibration1[i] = 0x00;
 8002090:	f897 303f 	ldrb.w	r3, [r7, #63]	; 0x3f
 8002094:	3340      	adds	r3, #64	; 0x40
 8002096:	443b      	add	r3, r7
 8002098:	2200      	movs	r2, #0
 800209a:	f803 2c28 	strb.w	r2, [r3, #-40]
		if (i < CALIB_CNT_2) {
 800209e:	f897 303f 	ldrb.w	r3, [r7, #63]	; 0x3f
 80020a2:	2b06      	cmp	r3, #6
 80020a4:	d806      	bhi.n	80020b4 <readTempCalibration+0x3a>
			calibration2[i] = 0x00;
 80020a6:	f897 303f 	ldrb.w	r3, [r7, #63]	; 0x3f
 80020aa:	3340      	adds	r3, #64	; 0x40
 80020ac:	443b      	add	r3, r7
 80020ae:	2200      	movs	r2, #0
 80020b0:	f803 2c30 	strb.w	r2, [r3, #-48]
	for (uint8_t i = 0; i < CALIB_CNT_1; i++) {
 80020b4:	f897 303f 	ldrb.w	r3, [r7, #63]	; 0x3f
 80020b8:	3301      	adds	r3, #1
 80020ba:	f887 303f 	strb.w	r3, [r7, #63]	; 0x3f
 80020be:	f897 303f 	ldrb.w	r3, [r7, #63]	; 0x3f
 80020c2:	2b18      	cmp	r3, #24
 80020c4:	d9e4      	bls.n	8002090 <readTempCalibration+0x16>
		}
	}

	readBME280_calib(hi2c, tempNo, calibration1, calibration2);
 80020c6:	f107 0310 	add.w	r3, r7, #16
 80020ca:	f107 0218 	add.w	r2, r7, #24
 80020ce:	79f9      	ldrb	r1, [r7, #7]
 80020d0:	68f8      	ldr	r0, [r7, #12]
 80020d2:	f7fe fb47 	bl	8000764 <readBME280_calib>

	for (int i = 0; i < 25; i++) {
 80020d6:	2300      	movs	r3, #0
 80020d8:	63bb      	str	r3, [r7, #56]	; 0x38
 80020da:	e00b      	b.n	80020f4 <readTempCalibration+0x7a>
	  send_uart_hex(huart, calibration1[i]);
 80020dc:	f107 0218 	add.w	r2, r7, #24
 80020e0:	6bbb      	ldr	r3, [r7, #56]	; 0x38
 80020e2:	4413      	add	r3, r2
 80020e4:	781b      	ldrb	r3, [r3, #0]
 80020e6:	4619      	mov	r1, r3
 80020e8:	68b8      	ldr	r0, [r7, #8]
 80020ea:	f000 fe52 	bl	8002d92 <send_uart_hex>
	for (int i = 0; i < 25; i++) {
 80020ee:	6bbb      	ldr	r3, [r7, #56]	; 0x38
 80020f0:	3301      	adds	r3, #1
 80020f2:	63bb      	str	r3, [r7, #56]	; 0x38
 80020f4:	6bbb      	ldr	r3, [r7, #56]	; 0x38
 80020f6:	2b18      	cmp	r3, #24
 80020f8:	ddf0      	ble.n	80020dc <readTempCalibration+0x62>
	}

	for (int i = 0; i < 7; i++) {
 80020fa:	2300      	movs	r3, #0
 80020fc:	637b      	str	r3, [r7, #52]	; 0x34
 80020fe:	e00b      	b.n	8002118 <readTempCalibration+0x9e>
	  send_uart_hex(huart, calibration2[i]);
 8002100:	f107 0210 	add.w	r2, r7, #16
 8002104:	6b7b      	ldr	r3, [r7, #52]	; 0x34
 8002106:	4413      	add	r3, r2
 8002108:	781b      	ldrb	r3, [r3, #0]
 800210a:	4619      	mov	r1, r3
 800210c:	68b8      	ldr	r0, [r7, #8]
 800210e:	f000 fe40 	bl	8002d92 <send_uart_hex>
	for (int i = 0; i < 7; i++) {
 8002112:	6b7b      	ldr	r3, [r7, #52]	; 0x34
 8002114:	3301      	adds	r3, #1
 8002116:	637b      	str	r3, [r7, #52]	; 0x34
 8002118:	6b7b      	ldr	r3, [r7, #52]	; 0x34
 800211a:	2b06      	cmp	r3, #6
 800211c:	ddf0      	ble.n	8002100 <readTempCalibration+0x86>
	}
}
 800211e:	bf00      	nop
 8002120:	bf00      	nop
 8002122:	3740      	adds	r7, #64	; 0x40
 8002124:	46bd      	mov	sp, r7
 8002126:	bd80      	pop	{r7, pc}

08002128 <readTempSensor>:

void readTempSensor(UART_HandleTypeDef *huart, uint8_t tempNo) {
 8002128:	b580      	push	{r7, lr}
 800212a:	b084      	sub	sp, #16
 800212c:	af00      	add	r7, sp, #0
 800212e:	6078      	str	r0, [r7, #4]
 8002130:	460b      	mov	r3, r1
 8002132:	70fb      	strb	r3, [r7, #3]
	if (tempNo == 0) {
 8002134:	78fb      	ldrb	r3, [r7, #3]
 8002136:	2b00      	cmp	r3, #0
 8002138:	d111      	bne.n	800215e <readTempSensor+0x36>
		for (int i = 0; i < 6; i++) {
 800213a:	2300      	movs	r3, #0
 800213c:	60fb      	str	r3, [r7, #12]
 800213e:	e00a      	b.n	8002156 <readTempSensor+0x2e>
			send_uart_hex(huart, bme280_data_0[i]);
 8002140:	4a13      	ldr	r2, [pc, #76]	; (8002190 <readTempSensor+0x68>)
 8002142:	68fb      	ldr	r3, [r7, #12]
 8002144:	4413      	add	r3, r2
 8002146:	781b      	ldrb	r3, [r3, #0]
 8002148:	4619      	mov	r1, r3
 800214a:	6878      	ldr	r0, [r7, #4]
 800214c:	f000 fe21 	bl	8002d92 <send_uart_hex>
		for (int i = 0; i < 6; i++) {
 8002150:	68fb      	ldr	r3, [r7, #12]
 8002152:	3301      	adds	r3, #1
 8002154:	60fb      	str	r3, [r7, #12]
 8002156:	68fb      	ldr	r3, [r7, #12]
 8002158:	2b05      	cmp	r3, #5
 800215a:	ddf1      	ble.n	8002140 <readTempSensor+0x18>
	} else if (tempNo == 1) {
		for (int i = 0; i < 6; i++) {
			send_uart_hex(huart, bme280_data_1[i]);
		}
	}
}
 800215c:	e013      	b.n	8002186 <readTempSensor+0x5e>
	} else if (tempNo == 1) {
 800215e:	78fb      	ldrb	r3, [r7, #3]
 8002160:	2b01      	cmp	r3, #1
 8002162:	d110      	bne.n	8002186 <readTempSensor+0x5e>
		for (int i = 0; i < 6; i++) {
 8002164:	2300      	movs	r3, #0
 8002166:	60bb      	str	r3, [r7, #8]
 8002168:	e00a      	b.n	8002180 <readTempSensor+0x58>
			send_uart_hex(huart, bme280_data_1[i]);
 800216a:	4a0a      	ldr	r2, [pc, #40]	; (8002194 <readTempSensor+0x6c>)
 800216c:	68bb      	ldr	r3, [r7, #8]
 800216e:	4413      	add	r3, r2
 8002170:	781b      	ldrb	r3, [r3, #0]
 8002172:	4619      	mov	r1, r3
 8002174:	6878      	ldr	r0, [r7, #4]
 8002176:	f000 fe0c 	bl	8002d92 <send_uart_hex>
		for (int i = 0; i < 6; i++) {
 800217a:	68bb      	ldr	r3, [r7, #8]
 800217c:	3301      	adds	r3, #1
 800217e:	60bb      	str	r3, [r7, #8]
 8002180:	68bb      	ldr	r3, [r7, #8]
 8002182:	2b05      	cmp	r3, #5
 8002184:	ddf1      	ble.n	800216a <readTempSensor+0x42>
}
 8002186:	bf00      	nop
 8002188:	3710      	adds	r7, #16
 800218a:	46bd      	mov	sp, r7
 800218c:	bd80      	pop	{r7, pc}
 800218e:	bf00      	nop
 8002190:	200005c4 	.word	0x200005c4
 8002194:	200005cc 	.word	0x200005cc

08002198 <readAllSensors>:

/***************************************************************************************************************
 * Process All Sensors
 */
void readAllSensors(I2C_HandleTypeDef* hi2c_accel, I2C_HandleTypeDef* hi2c_temp, RTC_HandleTypeDef* hrtc) {
 8002198:	b5b0      	push	{r4, r5, r7, lr}
 800219a:	b08a      	sub	sp, #40	; 0x28
 800219c:	af00      	add	r7, sp, #0
 800219e:	60f8      	str	r0, [r7, #12]
 80021a0:	60b9      	str	r1, [r7, #8]
 80021a2:	607a      	str	r2, [r7, #4]
	// Read Accelerometer Data
	readAccelerometer(accel_data, hi2c_accel);
 80021a4:	68f9      	ldr	r1, [r7, #12]
 80021a6:	4868      	ldr	r0, [pc, #416]	; (8002348 <readAllSensors+0x1b0>)
 80021a8:	f7fe f9dc 	bl	8000564 <readAccelerometer>

	// Read BME280 Data
	readTempHumPres(bme280_data_0, hi2c_temp, 0);
 80021ac:	2200      	movs	r2, #0
 80021ae:	68b9      	ldr	r1, [r7, #8]
 80021b0:	4866      	ldr	r0, [pc, #408]	; (800234c <readAllSensors+0x1b4>)
 80021b2:	f7fe fa61 	bl	8000678 <readTempHumPres>
	readTempHumPres(bme280_data_1, hi2c_temp, 1);
 80021b6:	2201      	movs	r2, #1
 80021b8:	68b9      	ldr	r1, [r7, #8]
 80021ba:	4865      	ldr	r0, [pc, #404]	; (8002350 <readAllSensors+0x1b8>)
 80021bc:	f7fe fa5c 	bl	8000678 <readTempHumPres>

	uint16_t time = getTimestampMilliseconds(hrtc);
 80021c0:	6878      	ldr	r0, [r7, #4]
 80021c2:	f000 f8e7 	bl	8002394 <getTimestampMilliseconds>
 80021c6:	4603      	mov	r3, r0
 80021c8:	82fb      	strh	r3, [r7, #22]
	uint8_t array_ptr = 0;
 80021ca:	2300      	movs	r3, #0
 80021cc:	f887 3027 	strb.w	r3, [r7, #39]	; 0x27

	// Store the new read in the buffer if there is space
	if (byte_tracker < (PAGE_SIZE - READ_SIZE)) {
 80021d0:	4b60      	ldr	r3, [pc, #384]	; (8002354 <readAllSensors+0x1bc>)
 80021d2:	881b      	ldrh	r3, [r3, #0]
 80021d4:	2bea      	cmp	r3, #234	; 0xea
 80021d6:	f200 80b2 	bhi.w	800233e <readAllSensors+0x1a6>
		// Store the timestamp in the buffer (Little Endian)
		data_buffer_tx[buffer_tracker][byte_tracker + array_ptr] = (uint8_t) (time & 0xFF); 		// Least significant byte (LSB)
 80021da:	4b5f      	ldr	r3, [pc, #380]	; (8002358 <readAllSensors+0x1c0>)
 80021dc:	781b      	ldrb	r3, [r3, #0]
 80021de:	461a      	mov	r2, r3
 80021e0:	4b5c      	ldr	r3, [pc, #368]	; (8002354 <readAllSensors+0x1bc>)
 80021e2:	881b      	ldrh	r3, [r3, #0]
 80021e4:	4619      	mov	r1, r3
 80021e6:	f897 3027 	ldrb.w	r3, [r7, #39]	; 0x27
 80021ea:	440b      	add	r3, r1
 80021ec:	8af9      	ldrh	r1, [r7, #22]
 80021ee:	b2c8      	uxtb	r0, r1
 80021f0:	495a      	ldr	r1, [pc, #360]	; (800235c <readAllSensors+0x1c4>)
 80021f2:	0212      	lsls	r2, r2, #8
 80021f4:	440a      	add	r2, r1
 80021f6:	4413      	add	r3, r2
 80021f8:	4602      	mov	r2, r0
 80021fa:	701a      	strb	r2, [r3, #0]
		array_ptr += 1;
 80021fc:	f897 3027 	ldrb.w	r3, [r7, #39]	; 0x27
 8002200:	3301      	adds	r3, #1
 8002202:	f887 3027 	strb.w	r3, [r7, #39]	; 0x27
		data_buffer_tx[buffer_tracker][byte_tracker + array_ptr] = (uint8_t) ((time >> 8) & 0xFF); // Most significant byte (MSB)
 8002206:	8afb      	ldrh	r3, [r7, #22]
 8002208:	0a1b      	lsrs	r3, r3, #8
 800220a:	b299      	uxth	r1, r3
 800220c:	4b52      	ldr	r3, [pc, #328]	; (8002358 <readAllSensors+0x1c0>)
 800220e:	781b      	ldrb	r3, [r3, #0]
 8002210:	461a      	mov	r2, r3
 8002212:	4b50      	ldr	r3, [pc, #320]	; (8002354 <readAllSensors+0x1bc>)
 8002214:	881b      	ldrh	r3, [r3, #0]
 8002216:	4618      	mov	r0, r3
 8002218:	f897 3027 	ldrb.w	r3, [r7, #39]	; 0x27
 800221c:	4403      	add	r3, r0
 800221e:	b2c8      	uxtb	r0, r1
 8002220:	494e      	ldr	r1, [pc, #312]	; (800235c <readAllSensors+0x1c4>)
 8002222:	0212      	lsls	r2, r2, #8
 8002224:	440a      	add	r2, r1
 8002226:	4413      	add	r3, r2
 8002228:	4602      	mov	r2, r0
 800222a:	701a      	strb	r2, [r3, #0]
		array_ptr += 1;
 800222c:	f897 3027 	ldrb.w	r3, [r7, #39]	; 0x27
 8002230:	3301      	adds	r3, #1
 8002232:	f887 3027 	strb.w	r3, [r7, #39]	; 0x27

		// Store the accelerometer data
		for (int i = 0; i < 6; i++) {
 8002236:	2300      	movs	r3, #0
 8002238:	623b      	str	r3, [r7, #32]
 800223a:	e01a      	b.n	8002272 <readAllSensors+0xda>
		  data_buffer_tx[buffer_tracker][byte_tracker + array_ptr] = accel_data[i];
 800223c:	4b46      	ldr	r3, [pc, #280]	; (8002358 <readAllSensors+0x1c0>)
 800223e:	781b      	ldrb	r3, [r3, #0]
 8002240:	461c      	mov	r4, r3
 8002242:	4b44      	ldr	r3, [pc, #272]	; (8002354 <readAllSensors+0x1bc>)
 8002244:	881b      	ldrh	r3, [r3, #0]
 8002246:	461a      	mov	r2, r3
 8002248:	f897 3027 	ldrb.w	r3, [r7, #39]	; 0x27
 800224c:	4413      	add	r3, r2
 800224e:	493e      	ldr	r1, [pc, #248]	; (8002348 <readAllSensors+0x1b0>)
 8002250:	6a3a      	ldr	r2, [r7, #32]
 8002252:	440a      	add	r2, r1
 8002254:	7810      	ldrb	r0, [r2, #0]
 8002256:	4941      	ldr	r1, [pc, #260]	; (800235c <readAllSensors+0x1c4>)
 8002258:	0222      	lsls	r2, r4, #8
 800225a:	440a      	add	r2, r1
 800225c:	4413      	add	r3, r2
 800225e:	4602      	mov	r2, r0
 8002260:	701a      	strb	r2, [r3, #0]
		  array_ptr += 1;
 8002262:	f897 3027 	ldrb.w	r3, [r7, #39]	; 0x27
 8002266:	3301      	adds	r3, #1
 8002268:	f887 3027 	strb.w	r3, [r7, #39]	; 0x27
		for (int i = 0; i < 6; i++) {
 800226c:	6a3b      	ldr	r3, [r7, #32]
 800226e:	3301      	adds	r3, #1
 8002270:	623b      	str	r3, [r7, #32]
 8002272:	6a3b      	ldr	r3, [r7, #32]
 8002274:	2b05      	cmp	r3, #5
 8002276:	dde1      	ble.n	800223c <readAllSensors+0xa4>
		}

		// Store the BME280_0 Data
		for (int i = 0; i < 6; i++) {
 8002278:	2300      	movs	r3, #0
 800227a:	61fb      	str	r3, [r7, #28]
 800227c:	e01a      	b.n	80022b4 <readAllSensors+0x11c>
		  data_buffer_tx[buffer_tracker][byte_tracker + array_ptr] = bme280_data_0[i];
 800227e:	4b36      	ldr	r3, [pc, #216]	; (8002358 <readAllSensors+0x1c0>)
 8002280:	781b      	ldrb	r3, [r3, #0]
 8002282:	461c      	mov	r4, r3
 8002284:	4b33      	ldr	r3, [pc, #204]	; (8002354 <readAllSensors+0x1bc>)
 8002286:	881b      	ldrh	r3, [r3, #0]
 8002288:	461a      	mov	r2, r3
 800228a:	f897 3027 	ldrb.w	r3, [r7, #39]	; 0x27
 800228e:	4413      	add	r3, r2
 8002290:	492e      	ldr	r1, [pc, #184]	; (800234c <readAllSensors+0x1b4>)
 8002292:	69fa      	ldr	r2, [r7, #28]
 8002294:	440a      	add	r2, r1
 8002296:	7810      	ldrb	r0, [r2, #0]
 8002298:	4930      	ldr	r1, [pc, #192]	; (800235c <readAllSensors+0x1c4>)
 800229a:	0222      	lsls	r2, r4, #8
 800229c:	440a      	add	r2, r1
 800229e:	4413      	add	r3, r2
 80022a0:	4602      	mov	r2, r0
 80022a2:	701a      	strb	r2, [r3, #0]
		  array_ptr += 1;
 80022a4:	f897 3027 	ldrb.w	r3, [r7, #39]	; 0x27
 80022a8:	3301      	adds	r3, #1
 80022aa:	f887 3027 	strb.w	r3, [r7, #39]	; 0x27
		for (int i = 0; i < 6; i++) {
 80022ae:	69fb      	ldr	r3, [r7, #28]
 80022b0:	3301      	adds	r3, #1
 80022b2:	61fb      	str	r3, [r7, #28]
 80022b4:	69fb      	ldr	r3, [r7, #28]
 80022b6:	2b05      	cmp	r3, #5
 80022b8:	dde1      	ble.n	800227e <readAllSensors+0xe6>
		}

		// Store the BME280_1 Data
		for (int i = 0; i < 6; i++) {
 80022ba:	2300      	movs	r3, #0
 80022bc:	61bb      	str	r3, [r7, #24]
 80022be:	e01a      	b.n	80022f6 <readAllSensors+0x15e>
		  data_buffer_tx[buffer_tracker][byte_tracker + array_ptr] = bme280_data_1[i];
 80022c0:	4b25      	ldr	r3, [pc, #148]	; (8002358 <readAllSensors+0x1c0>)
 80022c2:	781b      	ldrb	r3, [r3, #0]
 80022c4:	461c      	mov	r4, r3
 80022c6:	4b23      	ldr	r3, [pc, #140]	; (8002354 <readAllSensors+0x1bc>)
 80022c8:	881b      	ldrh	r3, [r3, #0]
 80022ca:	461a      	mov	r2, r3
 80022cc:	f897 3027 	ldrb.w	r3, [r7, #39]	; 0x27
 80022d0:	4413      	add	r3, r2
 80022d2:	491f      	ldr	r1, [pc, #124]	; (8002350 <readAllSensors+0x1b8>)
 80022d4:	69ba      	ldr	r2, [r7, #24]
 80022d6:	440a      	add	r2, r1
 80022d8:	7810      	ldrb	r0, [r2, #0]
 80022da:	4920      	ldr	r1, [pc, #128]	; (800235c <readAllSensors+0x1c4>)
 80022dc:	0222      	lsls	r2, r4, #8
 80022de:	440a      	add	r2, r1
 80022e0:	4413      	add	r3, r2
 80022e2:	4602      	mov	r2, r0
 80022e4:	701a      	strb	r2, [r3, #0]
		  array_ptr += 1;
 80022e6:	f897 3027 	ldrb.w	r3, [r7, #39]	; 0x27
 80022ea:	3301      	adds	r3, #1
 80022ec:	f887 3027 	strb.w	r3, [r7, #39]	; 0x27
		for (int i = 0; i < 6; i++) {
 80022f0:	69bb      	ldr	r3, [r7, #24]
 80022f2:	3301      	adds	r3, #1
 80022f4:	61bb      	str	r3, [r7, #24]
 80022f6:	69bb      	ldr	r3, [r7, #24]
 80022f8:	2b05      	cmp	r3, #5
 80022fa:	dde1      	ble.n	80022c0 <readAllSensors+0x128>
		}

		// Store the flight state and peripheral status in the final byte
		data_buffer_tx[buffer_tracker][byte_tracker + array_ptr] = combine_system_status();
 80022fc:	4b16      	ldr	r3, [pc, #88]	; (8002358 <readAllSensors+0x1c0>)
 80022fe:	781b      	ldrb	r3, [r3, #0]
 8002300:	461d      	mov	r5, r3
 8002302:	4b14      	ldr	r3, [pc, #80]	; (8002354 <readAllSensors+0x1bc>)
 8002304:	881b      	ldrh	r3, [r3, #0]
 8002306:	461a      	mov	r2, r3
 8002308:	f897 3027 	ldrb.w	r3, [r7, #39]	; 0x27
 800230c:	18d4      	adds	r4, r2, r3
 800230e:	f7ff fc93 	bl	8001c38 <combine_system_status>
 8002312:	4603      	mov	r3, r0
 8002314:	4619      	mov	r1, r3
 8002316:	4a11      	ldr	r2, [pc, #68]	; (800235c <readAllSensors+0x1c4>)
 8002318:	022b      	lsls	r3, r5, #8
 800231a:	4413      	add	r3, r2
 800231c:	4423      	add	r3, r4
 800231e:	460a      	mov	r2, r1
 8002320:	701a      	strb	r2, [r3, #0]
		array_ptr += 1;
 8002322:	f897 3027 	ldrb.w	r3, [r7, #39]	; 0x27
 8002326:	3301      	adds	r3, #1
 8002328:	f887 3027 	strb.w	r3, [r7, #39]	; 0x27

		byte_tracker = byte_tracker + (array_ptr);
 800232c:	f897 3027 	ldrb.w	r3, [r7, #39]	; 0x27
 8002330:	b29a      	uxth	r2, r3
 8002332:	4b08      	ldr	r3, [pc, #32]	; (8002354 <readAllSensors+0x1bc>)
 8002334:	881b      	ldrh	r3, [r3, #0]
 8002336:	4413      	add	r3, r2
 8002338:	b29a      	uxth	r2, r3
 800233a:	4b06      	ldr	r3, [pc, #24]	; (8002354 <readAllSensors+0x1bc>)
 800233c:	801a      	strh	r2, [r3, #0]
	}
}
 800233e:	bf00      	nop
 8002340:	3728      	adds	r7, #40	; 0x28
 8002342:	46bd      	mov	sp, r7
 8002344:	bdb0      	pop	{r4, r5, r7, pc}
 8002346:	bf00      	nop
 8002348:	200005bc 	.word	0x200005bc
 800234c:	200005c4 	.word	0x200005c4
 8002350:	200005cc 	.word	0x200005cc
 8002354:	200005d8 	.word	0x200005d8
 8002358:	200005b8 	.word	0x200005b8
 800235c:	200003b8 	.word	0x200003b8

08002360 <initialise_rtc_default>:
    .Month = RTC_MONTH_JANUARY, // Set default month (e.g., January)
    .Date = 1, // Set default day of the month
    .Year = 24 // Set default year (e.g., 2021)
};

void initialise_rtc_default(RTC_HandleTypeDef* hrtc) {
 8002360:	b580      	push	{r7, lr}
 8002362:	b082      	sub	sp, #8
 8002364:	af00      	add	r7, sp, #0
 8002366:	6078      	str	r0, [r7, #4]
	// Reset RTC on boot
	HAL_RTC_MspInit(hrtc); // Initialize RTC hardware
 8002368:	6878      	ldr	r0, [r7, #4]
 800236a:	f000 fa39 	bl	80027e0 <HAL_RTC_MspInit>
	HAL_RTC_SetTime(hrtc, &defaultTime, RTC_FORMAT_BIN); // Set default time
 800236e:	2200      	movs	r2, #0
 8002370:	4906      	ldr	r1, [pc, #24]	; (800238c <initialise_rtc_default+0x2c>)
 8002372:	6878      	ldr	r0, [r7, #4]
 8002374:	f004 fa67 	bl	8006846 <HAL_RTC_SetTime>
	HAL_RTC_SetDate(hrtc, &defaultDate, RTC_FORMAT_BIN); // Set default date
 8002378:	2200      	movs	r2, #0
 800237a:	4905      	ldr	r1, [pc, #20]	; (8002390 <initialise_rtc_default+0x30>)
 800237c:	6878      	ldr	r0, [r7, #4]
 800237e:	f004 fb5a 	bl	8006a36 <HAL_RTC_SetDate>
}
 8002382:	bf00      	nop
 8002384:	3708      	adds	r7, #8
 8002386:	46bd      	mov	sp, r7
 8002388:	bd80      	pop	{r7, pc}
 800238a:	bf00      	nop
 800238c:	20000618 	.word	0x20000618
 8002390:	20000018 	.word	0x20000018

08002394 <getTimestampMilliseconds>:

uint32_t getTimestampMilliseconds(RTC_HandleTypeDef* hrtc) {
 8002394:	b580      	push	{r7, lr}
 8002396:	b08c      	sub	sp, #48	; 0x30
 8002398:	af00      	add	r7, sp, #0
 800239a:	6078      	str	r0, [r7, #4]
    RTC_TimeTypeDef rtcTime;
    RTC_DateTypeDef rtcDate;

    // Read RTC time and date
    HAL_RTC_GetTime(hrtc, &rtcTime, RTC_FORMAT_BIN);
 800239c:	f107 0310 	add.w	r3, r7, #16
 80023a0:	2200      	movs	r2, #0
 80023a2:	4619      	mov	r1, r3
 80023a4:	6878      	ldr	r0, [r7, #4]
 80023a6:	f004 fae8 	bl	800697a <HAL_RTC_GetTime>
    HAL_RTC_GetDate(hrtc, &rtcDate, RTC_FORMAT_BIN);
 80023aa:	f107 030c 	add.w	r3, r7, #12
 80023ae:	2200      	movs	r2, #0
 80023b0:	4619      	mov	r1, r3
 80023b2:	6878      	ldr	r0, [r7, #4]
 80023b4:	f004 fbc3 	bl	8006b3e <HAL_RTC_GetDate>

    // Calculate timestamp in milliseconds
    uint32_t timestampSeconds = rtcTime.Seconds + rtcTime.Minutes * 60 + rtcTime.Hours * 3600;
 80023b8:	7cbb      	ldrb	r3, [r7, #18]
 80023ba:	4619      	mov	r1, r3
 80023bc:	7c7b      	ldrb	r3, [r7, #17]
 80023be:	461a      	mov	r2, r3
 80023c0:	4613      	mov	r3, r2
 80023c2:	011b      	lsls	r3, r3, #4
 80023c4:	1a9b      	subs	r3, r3, r2
 80023c6:	009b      	lsls	r3, r3, #2
 80023c8:	18ca      	adds	r2, r1, r3
 80023ca:	7c3b      	ldrb	r3, [r7, #16]
 80023cc:	4619      	mov	r1, r3
 80023ce:	f44f 6361 	mov.w	r3, #3600	; 0xe10
 80023d2:	fb01 f303 	mul.w	r3, r1, r3
 80023d6:	4413      	add	r3, r2
 80023d8:	62fb      	str	r3, [r7, #44]	; 0x2c
    uint32_t timestampMilliseconds = timestampSeconds * 1000;
 80023da:	6afb      	ldr	r3, [r7, #44]	; 0x2c
 80023dc:	f44f 727a 	mov.w	r2, #1000	; 0x3e8
 80023e0:	fb02 f303 	mul.w	r3, r2, r3
 80023e4:	62bb      	str	r3, [r7, #40]	; 0x28
    float subsecondsFraction = (float)(rtcTime.SecondFraction - rtcTime.SubSeconds) / (rtcTime.SecondFraction + 1);
 80023e6:	69ba      	ldr	r2, [r7, #24]
 80023e8:	697b      	ldr	r3, [r7, #20]
 80023ea:	1ad3      	subs	r3, r2, r3
 80023ec:	ee07 3a90 	vmov	s15, r3
 80023f0:	eef8 6a67 	vcvt.f32.u32	s13, s15
 80023f4:	69bb      	ldr	r3, [r7, #24]
 80023f6:	3301      	adds	r3, #1
 80023f8:	ee07 3a90 	vmov	s15, r3
 80023fc:	eeb8 7a67 	vcvt.f32.u32	s14, s15
 8002400:	eec6 7a87 	vdiv.f32	s15, s13, s14
 8002404:	edc7 7a09 	vstr	s15, [r7, #36]	; 0x24
    timestampMilliseconds += subsecondsFraction * 1000;
 8002408:	6abb      	ldr	r3, [r7, #40]	; 0x28
 800240a:	ee07 3a90 	vmov	s15, r3
 800240e:	eeb8 7a67 	vcvt.f32.u32	s14, s15
 8002412:	edd7 7a09 	vldr	s15, [r7, #36]	; 0x24
 8002416:	eddf 6a08 	vldr	s13, [pc, #32]	; 8002438 <getTimestampMilliseconds+0xa4>
 800241a:	ee67 7aa6 	vmul.f32	s15, s15, s13
 800241e:	ee77 7a27 	vadd.f32	s15, s14, s15
 8002422:	eefc 7ae7 	vcvt.u32.f32	s15, s15
 8002426:	ee17 3a90 	vmov	r3, s15
 800242a:	62bb      	str	r3, [r7, #40]	; 0x28

    return timestampMilliseconds;
 800242c:	6abb      	ldr	r3, [r7, #40]	; 0x28
}
 800242e:	4618      	mov	r0, r3
 8002430:	3730      	adds	r7, #48	; 0x30
 8002432:	46bd      	mov	sp, r7
 8002434:	bd80      	pop	{r7, pc}
 8002436:	bf00      	nop
 8002438:	447a0000 	.word	0x447a0000

0800243c <spi_sendOp_readByte>:
#ifndef SRC_SPI_DRIVER_C_
#define SRC_SPI_DRIVER_C_

#include "spi_driver.h"

HAL_StatusTypeDef spi_sendOp_readByte(uint8_t* opcode, SPI_HandleTypeDef *hspi, uint8_t* data_ptr, GPIO_TypeDef* GPIOx, uint16_t GPIO_Pin_CS) {
 800243c:	b580      	push	{r7, lr}
 800243e:	b086      	sub	sp, #24
 8002440:	af00      	add	r7, sp, #0
 8002442:	60f8      	str	r0, [r7, #12]
 8002444:	60b9      	str	r1, [r7, #8]
 8002446:	607a      	str	r2, [r7, #4]
 8002448:	603b      	str	r3, [r7, #0]
	HAL_StatusTypeDef status;
	HAL_GPIO_WritePin(GPIOx, GPIO_Pin_CS, GPIO_PIN_RESET);	// Set the chip select pin to low to initiate SPI comms
 800244a:	8c3b      	ldrh	r3, [r7, #32]
 800244c:	2200      	movs	r2, #0
 800244e:	4619      	mov	r1, r3
 8002450:	6838      	ldr	r0, [r7, #0]
 8002452:	f002 fab3 	bl	80049bc <HAL_GPIO_WritePin>
	HAL_SPI_Transmit(hspi, opcode, 1, TIMEOUT_SML);			// Write the write enable value to the Flash to initial reading
 8002456:	2302      	movs	r3, #2
 8002458:	2201      	movs	r2, #1
 800245a:	68f9      	ldr	r1, [r7, #12]
 800245c:	68b8      	ldr	r0, [r7, #8]
 800245e:	f004 fd04 	bl	8006e6a <HAL_SPI_Transmit>
	status = HAL_SPI_Receive(hspi, data_ptr, 1, TIMEOUT_SML);
 8002462:	2302      	movs	r3, #2
 8002464:	2201      	movs	r2, #1
 8002466:	6879      	ldr	r1, [r7, #4]
 8002468:	68b8      	ldr	r0, [r7, #8]
 800246a:	f004 fe41 	bl	80070f0 <HAL_SPI_Receive>
 800246e:	4603      	mov	r3, r0
 8002470:	75fb      	strb	r3, [r7, #23]
	HAL_GPIO_WritePin(GPIOx, GPIO_Pin_CS, GPIO_PIN_SET);
 8002472:	8c3b      	ldrh	r3, [r7, #32]
 8002474:	2201      	movs	r2, #1
 8002476:	4619      	mov	r1, r3
 8002478:	6838      	ldr	r0, [r7, #0]
 800247a:	f002 fa9f 	bl	80049bc <HAL_GPIO_WritePin>
	return status;
 800247e:	7dfb      	ldrb	r3, [r7, #23]
}
 8002480:	4618      	mov	r0, r3
 8002482:	3718      	adds	r7, #24
 8002484:	46bd      	mov	sp, r7
 8002486:	bd80      	pop	{r7, pc}

08002488 <perform_operation>:

HAL_StatusTypeDef perform_operation(uint8_t* opcode, SPI_HandleTypeDef *hspi, GPIO_TypeDef* GPIOx, uint16_t GPIO_Pin_CS) {
 8002488:	b580      	push	{r7, lr}
 800248a:	b086      	sub	sp, #24
 800248c:	af00      	add	r7, sp, #0
 800248e:	60f8      	str	r0, [r7, #12]
 8002490:	60b9      	str	r1, [r7, #8]
 8002492:	607a      	str	r2, [r7, #4]
 8002494:	807b      	strh	r3, [r7, #2]
	HAL_StatusTypeDef status;
	HAL_GPIO_WritePin(GPIOx, GPIO_Pin_CS, GPIO_PIN_RESET);				// Set the chip select pin to low to initiate SPI comms
 8002496:	887b      	ldrh	r3, [r7, #2]
 8002498:	2200      	movs	r2, #0
 800249a:	4619      	mov	r1, r3
 800249c:	6878      	ldr	r0, [r7, #4]
 800249e:	f002 fa8d 	bl	80049bc <HAL_GPIO_WritePin>
	status = HAL_SPI_Transmit(hspi, opcode, 1, TIMEOUT_SML);				// Write the opcode value
 80024a2:	2302      	movs	r3, #2
 80024a4:	2201      	movs	r2, #1
 80024a6:	68f9      	ldr	r1, [r7, #12]
 80024a8:	68b8      	ldr	r0, [r7, #8]
 80024aa:	f004 fcde 	bl	8006e6a <HAL_SPI_Transmit>
 80024ae:	4603      	mov	r3, r0
 80024b0:	75fb      	strb	r3, [r7, #23]
	HAL_GPIO_WritePin(GPIOx, GPIO_Pin_CS, GPIO_PIN_SET);
 80024b2:	887b      	ldrh	r3, [r7, #2]
 80024b4:	2201      	movs	r2, #1
 80024b6:	4619      	mov	r1, r3
 80024b8:	6878      	ldr	r0, [r7, #4]
 80024ba:	f002 fa7f 	bl	80049bc <HAL_GPIO_WritePin>

	return status;
 80024be:	7dfb      	ldrb	r3, [r7, #23]
}
 80024c0:	4618      	mov	r0, r3
 80024c2:	3718      	adds	r7, #24
 80024c4:	46bd      	mov	sp, r7
 80024c6:	bd80      	pop	{r7, pc}

080024c8 <spi_read_data>:

HAL_StatusTypeDef spi_read_data(uint8_t* opcode, uint16_t data_size, uint8_t data_read[data_size], SPI_HandleTypeDef *hspi, uint32_t addr, GPIO_TypeDef* GPIOx, uint16_t GPIO_Pin_CS) {
 80024c8:	b580      	push	{r7, lr}
 80024ca:	b086      	sub	sp, #24
 80024cc:	af00      	add	r7, sp, #0
 80024ce:	60f8      	str	r0, [r7, #12]
 80024d0:	607a      	str	r2, [r7, #4]
 80024d2:	603b      	str	r3, [r7, #0]
 80024d4:	460b      	mov	r3, r1
 80024d6:	817b      	strh	r3, [r7, #10]
	HAL_StatusTypeDef status;

	// Split the 24 bit address into three 8 bit ints
	uint8_t addrL = addr & 0xFF;  // Get the low byte
 80024d8:	6a3b      	ldr	r3, [r7, #32]
 80024da:	b2db      	uxtb	r3, r3
 80024dc:	75bb      	strb	r3, [r7, #22]
	uint8_t addrM = (addr >> 8) & 0xFF;  // Get the middle byte
 80024de:	6a3b      	ldr	r3, [r7, #32]
 80024e0:	0a1b      	lsrs	r3, r3, #8
 80024e2:	b2db      	uxtb	r3, r3
 80024e4:	757b      	strb	r3, [r7, #21]
	uint8_t addrH = (addr >> 16) & 0xFF;  // Get the high byte
 80024e6:	6a3b      	ldr	r3, [r7, #32]
 80024e8:	0c1b      	lsrs	r3, r3, #16
 80024ea:	b2db      	uxtb	r3, r3
 80024ec:	753b      	strb	r3, [r7, #20]

	// Read the data denoted by the given address
	HAL_GPIO_WritePin(GPIOx, GPIO_Pin_CS, GPIO_PIN_RESET);
 80024ee:	8d3b      	ldrh	r3, [r7, #40]	; 0x28
 80024f0:	2200      	movs	r2, #0
 80024f2:	4619      	mov	r1, r3
 80024f4:	6a78      	ldr	r0, [r7, #36]	; 0x24
 80024f6:	f002 fa61 	bl	80049bc <HAL_GPIO_WritePin>
	HAL_SPI_Transmit(hspi, opcode, 1, TIMEOUT_SML);	// Write the read enable value
 80024fa:	2302      	movs	r3, #2
 80024fc:	2201      	movs	r2, #1
 80024fe:	68f9      	ldr	r1, [r7, #12]
 8002500:	6838      	ldr	r0, [r7, #0]
 8002502:	f004 fcb2 	bl	8006e6a <HAL_SPI_Transmit>

	// Transmit the 24 bit address of the page to initialise read from
	HAL_SPI_Transmit(hspi, &addrH, 1, TIMEOUT_SML);
 8002506:	f107 0114 	add.w	r1, r7, #20
 800250a:	2302      	movs	r3, #2
 800250c:	2201      	movs	r2, #1
 800250e:	6838      	ldr	r0, [r7, #0]
 8002510:	f004 fcab 	bl	8006e6a <HAL_SPI_Transmit>
	HAL_SPI_Transmit(hspi, &addrM, 1, TIMEOUT_SML);
 8002514:	f107 0115 	add.w	r1, r7, #21
 8002518:	2302      	movs	r3, #2
 800251a:	2201      	movs	r2, #1
 800251c:	6838      	ldr	r0, [r7, #0]
 800251e:	f004 fca4 	bl	8006e6a <HAL_SPI_Transmit>
	HAL_SPI_Transmit(hspi, &addrL, 1, TIMEOUT_SML);
 8002522:	f107 0116 	add.w	r1, r7, #22
 8002526:	2302      	movs	r3, #2
 8002528:	2201      	movs	r2, #1
 800252a:	6838      	ldr	r0, [r7, #0]
 800252c:	f004 fc9d 	bl	8006e6a <HAL_SPI_Transmit>

	status = HAL_SPI_Receive(hspi, data_read, data_size, TIMEOUT_LRG);
 8002530:	897a      	ldrh	r2, [r7, #10]
 8002532:	2364      	movs	r3, #100	; 0x64
 8002534:	6879      	ldr	r1, [r7, #4]
 8002536:	6838      	ldr	r0, [r7, #0]
 8002538:	f004 fdda 	bl	80070f0 <HAL_SPI_Receive>
 800253c:	4603      	mov	r3, r0
 800253e:	75fb      	strb	r3, [r7, #23]
	HAL_GPIO_WritePin(GPIOx, GPIO_Pin_CS, GPIO_PIN_SET);
 8002540:	8d3b      	ldrh	r3, [r7, #40]	; 0x28
 8002542:	2201      	movs	r2, #1
 8002544:	4619      	mov	r1, r3
 8002546:	6a78      	ldr	r0, [r7, #36]	; 0x24
 8002548:	f002 fa38 	bl	80049bc <HAL_GPIO_WritePin>

	return status;
 800254c:	7dfb      	ldrb	r3, [r7, #23]
}
 800254e:	4618      	mov	r0, r3
 8002550:	3718      	adds	r7, #24
 8002552:	46bd      	mov	sp, r7
 8002554:	bd80      	pop	{r7, pc}

08002556 <spi_write_data_dma>:
	HAL_GPIO_WritePin(GPIOx, GPIO_Pin_CS, GPIO_PIN_SET);	// Set the chip select pin to high to remove the Flash from the SPI bus

	return status;
}

HAL_StatusTypeDef spi_write_data_dma(uint8_t* opcode, uint16_t data_size, uint8_t data_write[data_size], SPI_HandleTypeDef *hspi, uint32_t addr, GPIO_TypeDef* GPIOx, uint16_t GPIO_Pin_CS) {
 8002556:	b580      	push	{r7, lr}
 8002558:	b086      	sub	sp, #24
 800255a:	af00      	add	r7, sp, #0
 800255c:	60f8      	str	r0, [r7, #12]
 800255e:	607a      	str	r2, [r7, #4]
 8002560:	603b      	str	r3, [r7, #0]
 8002562:	460b      	mov	r3, r1
 8002564:	817b      	strh	r3, [r7, #10]
    HAL_StatusTypeDef status;

    // Split the 24 bit address into three 8 bit ints
    uint8_t addrL = addr & 0xFF;  			// Get the low byte
 8002566:	6a3b      	ldr	r3, [r7, #32]
 8002568:	b2db      	uxtb	r3, r3
 800256a:	75bb      	strb	r3, [r7, #22]
    uint8_t addrM = (addr >> 8) & 0xFF;  	// Get the middle byte
 800256c:	6a3b      	ldr	r3, [r7, #32]
 800256e:	0a1b      	lsrs	r3, r3, #8
 8002570:	b2db      	uxtb	r3, r3
 8002572:	757b      	strb	r3, [r7, #21]
    uint8_t addrH = (addr >> 16) & 0xFF;  	// Get the high byte
 8002574:	6a3b      	ldr	r3, [r7, #32]
 8002576:	0c1b      	lsrs	r3, r3, #16
 8002578:	b2db      	uxtb	r3, r3
 800257a:	753b      	strb	r3, [r7, #20]

    // Send the PageWrite command
    HAL_GPIO_WritePin(GPIOx, GPIO_Pin_CS, GPIO_PIN_RESET);	// Set the chip select pin to low to initiate SPI comms
 800257c:	8d3b      	ldrh	r3, [r7, #40]	; 0x28
 800257e:	2200      	movs	r2, #0
 8002580:	4619      	mov	r1, r3
 8002582:	6a78      	ldr	r0, [r7, #36]	; 0x24
 8002584:	f002 fa1a 	bl	80049bc <HAL_GPIO_WritePin>
    HAL_SPI_Transmit(hspi, opcode, 1, TIMEOUT_SML);					// Write the write enable value to the Flash to initial writing
 8002588:	2302      	movs	r3, #2
 800258a:	2201      	movs	r2, #1
 800258c:	68f9      	ldr	r1, [r7, #12]
 800258e:	6838      	ldr	r0, [r7, #0]
 8002590:	f004 fc6b 	bl	8006e6a <HAL_SPI_Transmit>

    // Transmit the 24 bit address of the page to write to
    HAL_SPI_Transmit(hspi, &addrH, 1, TIMEOUT_SML);
 8002594:	f107 0114 	add.w	r1, r7, #20
 8002598:	2302      	movs	r3, #2
 800259a:	2201      	movs	r2, #1
 800259c:	6838      	ldr	r0, [r7, #0]
 800259e:	f004 fc64 	bl	8006e6a <HAL_SPI_Transmit>
    HAL_SPI_Transmit(hspi, &addrM, 1, TIMEOUT_SML);
 80025a2:	f107 0115 	add.w	r1, r7, #21
 80025a6:	2302      	movs	r3, #2
 80025a8:	2201      	movs	r2, #1
 80025aa:	6838      	ldr	r0, [r7, #0]
 80025ac:	f004 fc5d 	bl	8006e6a <HAL_SPI_Transmit>
    HAL_SPI_Transmit(hspi, &addrL, 1, TIMEOUT_SML);
 80025b0:	f107 0116 	add.w	r1, r7, #22
 80025b4:	2302      	movs	r3, #2
 80025b6:	2201      	movs	r2, #1
 80025b8:	6838      	ldr	r0, [r7, #0]
 80025ba:	f004 fc56 	bl	8006e6a <HAL_SPI_Transmit>

    // Start the DMA transfer
    status = HAL_SPI_Transmit_DMA(hspi, data_write, data_size);
 80025be:	897b      	ldrh	r3, [r7, #10]
 80025c0:	461a      	mov	r2, r3
 80025c2:	6879      	ldr	r1, [r7, #4]
 80025c4:	6838      	ldr	r0, [r7, #0]
 80025c6:	f005 f85b 	bl	8007680 <HAL_SPI_Transmit_DMA>
 80025ca:	4603      	mov	r3, r0
 80025cc:	75fb      	strb	r3, [r7, #23]

    return status;
 80025ce:	7dfb      	ldrb	r3, [r7, #23]
}
 80025d0:	4618      	mov	r0, r3
 80025d2:	3718      	adds	r7, #24
 80025d4:	46bd      	mov	sp, r7
 80025d6:	bd80      	pop	{r7, pc}

080025d8 <HAL_MspInit>:
/* USER CODE END 0 */
/**
  * Initializes the Global MSP.
  */
void HAL_MspInit(void)
{
 80025d8:	b480      	push	{r7}
 80025da:	b083      	sub	sp, #12
 80025dc:	af00      	add	r7, sp, #0
  /* USER CODE BEGIN MspInit 0 */

  /* USER CODE END MspInit 0 */

  __HAL_RCC_SYSCFG_CLK_ENABLE();
 80025de:	2300      	movs	r3, #0
 80025e0:	607b      	str	r3, [r7, #4]
 80025e2:	4b10      	ldr	r3, [pc, #64]	; (8002624 <HAL_MspInit+0x4c>)
 80025e4:	6c5b      	ldr	r3, [r3, #68]	; 0x44
 80025e6:	4a0f      	ldr	r2, [pc, #60]	; (8002624 <HAL_MspInit+0x4c>)
 80025e8:	f443 4380 	orr.w	r3, r3, #16384	; 0x4000
 80025ec:	6453      	str	r3, [r2, #68]	; 0x44
 80025ee:	4b0d      	ldr	r3, [pc, #52]	; (8002624 <HAL_MspInit+0x4c>)
 80025f0:	6c5b      	ldr	r3, [r3, #68]	; 0x44
 80025f2:	f403 4380 	and.w	r3, r3, #16384	; 0x4000
 80025f6:	607b      	str	r3, [r7, #4]
 80025f8:	687b      	ldr	r3, [r7, #4]
  __HAL_RCC_PWR_CLK_ENABLE();
 80025fa:	2300      	movs	r3, #0
 80025fc:	603b      	str	r3, [r7, #0]
 80025fe:	4b09      	ldr	r3, [pc, #36]	; (8002624 <HAL_MspInit+0x4c>)
 8002600:	6c1b      	ldr	r3, [r3, #64]	; 0x40
 8002602:	4a08      	ldr	r2, [pc, #32]	; (8002624 <HAL_MspInit+0x4c>)
 8002604:	f043 5380 	orr.w	r3, r3, #268435456	; 0x10000000
 8002608:	6413      	str	r3, [r2, #64]	; 0x40
 800260a:	4b06      	ldr	r3, [pc, #24]	; (8002624 <HAL_MspInit+0x4c>)
 800260c:	6c1b      	ldr	r3, [r3, #64]	; 0x40
 800260e:	f003 5380 	and.w	r3, r3, #268435456	; 0x10000000
 8002612:	603b      	str	r3, [r7, #0]
 8002614:	683b      	ldr	r3, [r7, #0]
  /* System interrupt init*/

  /* USER CODE BEGIN MspInit 1 */

  /* USER CODE END MspInit 1 */
}
 8002616:	bf00      	nop
 8002618:	370c      	adds	r7, #12
 800261a:	46bd      	mov	sp, r7
 800261c:	f85d 7b04 	ldr.w	r7, [sp], #4
 8002620:	4770      	bx	lr
 8002622:	bf00      	nop
 8002624:	40023800 	.word	0x40023800

08002628 <HAL_CAN_MspInit>:
* This function configures the hardware resources used in this example
* @param hcan: CAN handle pointer
* @retval None
*/
void HAL_CAN_MspInit(CAN_HandleTypeDef* hcan)
{
 8002628:	b580      	push	{r7, lr}
 800262a:	b08a      	sub	sp, #40	; 0x28
 800262c:	af00      	add	r7, sp, #0
 800262e:	6078      	str	r0, [r7, #4]
  GPIO_InitTypeDef GPIO_InitStruct = {0};
 8002630:	f107 0314 	add.w	r3, r7, #20
 8002634:	2200      	movs	r2, #0
 8002636:	601a      	str	r2, [r3, #0]
 8002638:	605a      	str	r2, [r3, #4]
 800263a:	609a      	str	r2, [r3, #8]
 800263c:	60da      	str	r2, [r3, #12]
 800263e:	611a      	str	r2, [r3, #16]
  if(hcan->Instance==CAN2)
 8002640:	687b      	ldr	r3, [r7, #4]
 8002642:	681b      	ldr	r3, [r3, #0]
 8002644:	4a24      	ldr	r2, [pc, #144]	; (80026d8 <HAL_CAN_MspInit+0xb0>)
 8002646:	4293      	cmp	r3, r2
 8002648:	d141      	bne.n	80026ce <HAL_CAN_MspInit+0xa6>
  {
  /* USER CODE BEGIN CAN2_MspInit 0 */

  /* USER CODE END CAN2_MspInit 0 */
    /* Peripheral clock enable */
    __HAL_RCC_CAN2_CLK_ENABLE();
 800264a:	2300      	movs	r3, #0
 800264c:	613b      	str	r3, [r7, #16]
 800264e:	4b23      	ldr	r3, [pc, #140]	; (80026dc <HAL_CAN_MspInit+0xb4>)
 8002650:	6c1b      	ldr	r3, [r3, #64]	; 0x40
 8002652:	4a22      	ldr	r2, [pc, #136]	; (80026dc <HAL_CAN_MspInit+0xb4>)
 8002654:	f043 6380 	orr.w	r3, r3, #67108864	; 0x4000000
 8002658:	6413      	str	r3, [r2, #64]	; 0x40
 800265a:	4b20      	ldr	r3, [pc, #128]	; (80026dc <HAL_CAN_MspInit+0xb4>)
 800265c:	6c1b      	ldr	r3, [r3, #64]	; 0x40
 800265e:	f003 6380 	and.w	r3, r3, #67108864	; 0x4000000
 8002662:	613b      	str	r3, [r7, #16]
 8002664:	693b      	ldr	r3, [r7, #16]
    __HAL_RCC_CAN1_CLK_ENABLE();
 8002666:	2300      	movs	r3, #0
 8002668:	60fb      	str	r3, [r7, #12]
 800266a:	4b1c      	ldr	r3, [pc, #112]	; (80026dc <HAL_CAN_MspInit+0xb4>)
 800266c:	6c1b      	ldr	r3, [r3, #64]	; 0x40
 800266e:	4a1b      	ldr	r2, [pc, #108]	; (80026dc <HAL_CAN_MspInit+0xb4>)
 8002670:	f043 7300 	orr.w	r3, r3, #33554432	; 0x2000000
 8002674:	6413      	str	r3, [r2, #64]	; 0x40
 8002676:	4b19      	ldr	r3, [pc, #100]	; (80026dc <HAL_CAN_MspInit+0xb4>)
 8002678:	6c1b      	ldr	r3, [r3, #64]	; 0x40
 800267a:	f003 7300 	and.w	r3, r3, #33554432	; 0x2000000
 800267e:	60fb      	str	r3, [r7, #12]
 8002680:	68fb      	ldr	r3, [r7, #12]

    __HAL_RCC_GPIOB_CLK_ENABLE();
 8002682:	2300      	movs	r3, #0
 8002684:	60bb      	str	r3, [r7, #8]
 8002686:	4b15      	ldr	r3, [pc, #84]	; (80026dc <HAL_CAN_MspInit+0xb4>)
 8002688:	6b1b      	ldr	r3, [r3, #48]	; 0x30
 800268a:	4a14      	ldr	r2, [pc, #80]	; (80026dc <HAL_CAN_MspInit+0xb4>)
 800268c:	f043 0302 	orr.w	r3, r3, #2
 8002690:	6313      	str	r3, [r2, #48]	; 0x30
 8002692:	4b12      	ldr	r3, [pc, #72]	; (80026dc <HAL_CAN_MspInit+0xb4>)
 8002694:	6b1b      	ldr	r3, [r3, #48]	; 0x30
 8002696:	f003 0302 	and.w	r3, r3, #2
 800269a:	60bb      	str	r3, [r7, #8]
 800269c:	68bb      	ldr	r3, [r7, #8]
    /**CAN2 GPIO Configuration
    PB5     ------> CAN2_RX
    PB6     ------> CAN2_TX
    */
    GPIO_InitStruct.Pin = GPIO_PIN_5|GPIO_PIN_6;
 800269e:	2360      	movs	r3, #96	; 0x60
 80026a0:	617b      	str	r3, [r7, #20]
    GPIO_InitStruct.Mode = GPIO_MODE_AF_PP;
 80026a2:	2302      	movs	r3, #2
 80026a4:	61bb      	str	r3, [r7, #24]
    GPIO_InitStruct.Pull = GPIO_NOPULL;
 80026a6:	2300      	movs	r3, #0
 80026a8:	61fb      	str	r3, [r7, #28]
    GPIO_InitStruct.Speed = GPIO_SPEED_FREQ_VERY_HIGH;
 80026aa:	2303      	movs	r3, #3
 80026ac:	623b      	str	r3, [r7, #32]
    GPIO_InitStruct.Alternate = GPIO_AF9_CAN2;
 80026ae:	2309      	movs	r3, #9
 80026b0:	627b      	str	r3, [r7, #36]	; 0x24
    HAL_GPIO_Init(GPIOB, &GPIO_InitStruct);
 80026b2:	f107 0314 	add.w	r3, r7, #20
 80026b6:	4619      	mov	r1, r3
 80026b8:	4809      	ldr	r0, [pc, #36]	; (80026e0 <HAL_CAN_MspInit+0xb8>)
 80026ba:	f001 ffbb 	bl	8004634 <HAL_GPIO_Init>

    /* CAN2 interrupt Init */
    HAL_NVIC_SetPriority(CAN2_RX0_IRQn, 0, 0);
 80026be:	2200      	movs	r2, #0
 80026c0:	2100      	movs	r1, #0
 80026c2:	2040      	movs	r0, #64	; 0x40
 80026c4:	f001 fb7d 	bl	8003dc2 <HAL_NVIC_SetPriority>
    HAL_NVIC_EnableIRQ(CAN2_RX0_IRQn);
 80026c8:	2040      	movs	r0, #64	; 0x40
 80026ca:	f001 fb96 	bl	8003dfa <HAL_NVIC_EnableIRQ>
  /* USER CODE BEGIN CAN2_MspInit 1 */

  /* USER CODE END CAN2_MspInit 1 */
  }

}
 80026ce:	bf00      	nop
 80026d0:	3728      	adds	r7, #40	; 0x28
 80026d2:	46bd      	mov	sp, r7
 80026d4:	bd80      	pop	{r7, pc}
 80026d6:	bf00      	nop
 80026d8:	40006800 	.word	0x40006800
 80026dc:	40023800 	.word	0x40023800
 80026e0:	40020400 	.word	0x40020400

080026e4 <HAL_I2C_MspInit>:
* This function configures the hardware resources used in this example
* @param hi2c: I2C handle pointer
* @retval None
*/
void HAL_I2C_MspInit(I2C_HandleTypeDef* hi2c)
{
 80026e4:	b580      	push	{r7, lr}
 80026e6:	b08c      	sub	sp, #48	; 0x30
 80026e8:	af00      	add	r7, sp, #0
 80026ea:	6078      	str	r0, [r7, #4]
  GPIO_InitTypeDef GPIO_InitStruct = {0};
 80026ec:	f107 031c 	add.w	r3, r7, #28
 80026f0:	2200      	movs	r2, #0
 80026f2:	601a      	str	r2, [r3, #0]
 80026f4:	605a      	str	r2, [r3, #4]
 80026f6:	609a      	str	r2, [r3, #8]
 80026f8:	60da      	str	r2, [r3, #12]
 80026fa:	611a      	str	r2, [r3, #16]
  if(hi2c->Instance==I2C1)
 80026fc:	687b      	ldr	r3, [r7, #4]
 80026fe:	681b      	ldr	r3, [r3, #0]
 8002700:	4a33      	ldr	r2, [pc, #204]	; (80027d0 <HAL_I2C_MspInit+0xec>)
 8002702:	4293      	cmp	r3, r2
 8002704:	d12d      	bne.n	8002762 <HAL_I2C_MspInit+0x7e>
  {
  /* USER CODE BEGIN I2C1_MspInit 0 */

  /* USER CODE END I2C1_MspInit 0 */

    __HAL_RCC_GPIOB_CLK_ENABLE();
 8002706:	2300      	movs	r3, #0
 8002708:	61bb      	str	r3, [r7, #24]
 800270a:	4b32      	ldr	r3, [pc, #200]	; (80027d4 <HAL_I2C_MspInit+0xf0>)
 800270c:	6b1b      	ldr	r3, [r3, #48]	; 0x30
 800270e:	4a31      	ldr	r2, [pc, #196]	; (80027d4 <HAL_I2C_MspInit+0xf0>)
 8002710:	f043 0302 	orr.w	r3, r3, #2
 8002714:	6313      	str	r3, [r2, #48]	; 0x30
 8002716:	4b2f      	ldr	r3, [pc, #188]	; (80027d4 <HAL_I2C_MspInit+0xf0>)
 8002718:	6b1b      	ldr	r3, [r3, #48]	; 0x30
 800271a:	f003 0302 	and.w	r3, r3, #2
 800271e:	61bb      	str	r3, [r7, #24]
 8002720:	69bb      	ldr	r3, [r7, #24]
    /**I2C1 GPIO Configuration
    PB8     ------> I2C1_SCL
    PB9     ------> I2C1_SDA
    */
    GPIO_InitStruct.Pin = GPIO_PIN_8|GPIO_PIN_9;
 8002722:	f44f 7340 	mov.w	r3, #768	; 0x300
 8002726:	61fb      	str	r3, [r7, #28]
    GPIO_InitStruct.Mode = GPIO_MODE_AF_OD;
 8002728:	2312      	movs	r3, #18
 800272a:	623b      	str	r3, [r7, #32]
    GPIO_InitStruct.Pull = GPIO_NOPULL;
 800272c:	2300      	movs	r3, #0
 800272e:	627b      	str	r3, [r7, #36]	; 0x24
    GPIO_InitStruct.Speed = GPIO_SPEED_FREQ_VERY_HIGH;
 8002730:	2303      	movs	r3, #3
 8002732:	62bb      	str	r3, [r7, #40]	; 0x28
    GPIO_InitStruct.Alternate = GPIO_AF4_I2C1;
 8002734:	2304      	movs	r3, #4
 8002736:	62fb      	str	r3, [r7, #44]	; 0x2c
    HAL_GPIO_Init(GPIOB, &GPIO_InitStruct);
 8002738:	f107 031c 	add.w	r3, r7, #28
 800273c:	4619      	mov	r1, r3
 800273e:	4826      	ldr	r0, [pc, #152]	; (80027d8 <HAL_I2C_MspInit+0xf4>)
 8002740:	f001 ff78 	bl	8004634 <HAL_GPIO_Init>

    /* Peripheral clock enable */
    __HAL_RCC_I2C1_CLK_ENABLE();
 8002744:	2300      	movs	r3, #0
 8002746:	617b      	str	r3, [r7, #20]
 8002748:	4b22      	ldr	r3, [pc, #136]	; (80027d4 <HAL_I2C_MspInit+0xf0>)
 800274a:	6c1b      	ldr	r3, [r3, #64]	; 0x40
 800274c:	4a21      	ldr	r2, [pc, #132]	; (80027d4 <HAL_I2C_MspInit+0xf0>)
 800274e:	f443 1300 	orr.w	r3, r3, #2097152	; 0x200000
 8002752:	6413      	str	r3, [r2, #64]	; 0x40
 8002754:	4b1f      	ldr	r3, [pc, #124]	; (80027d4 <HAL_I2C_MspInit+0xf0>)
 8002756:	6c1b      	ldr	r3, [r3, #64]	; 0x40
 8002758:	f403 1300 	and.w	r3, r3, #2097152	; 0x200000
 800275c:	617b      	str	r3, [r7, #20]
 800275e:	697b      	ldr	r3, [r7, #20]
  /* USER CODE BEGIN I2C2_MspInit 1 */

  /* USER CODE END I2C2_MspInit 1 */
  }

}
 8002760:	e031      	b.n	80027c6 <HAL_I2C_MspInit+0xe2>
  else if(hi2c->Instance==I2C2)
 8002762:	687b      	ldr	r3, [r7, #4]
 8002764:	681b      	ldr	r3, [r3, #0]
 8002766:	4a1d      	ldr	r2, [pc, #116]	; (80027dc <HAL_I2C_MspInit+0xf8>)
 8002768:	4293      	cmp	r3, r2
 800276a:	d12c      	bne.n	80027c6 <HAL_I2C_MspInit+0xe2>
    __HAL_RCC_GPIOB_CLK_ENABLE();
 800276c:	2300      	movs	r3, #0
 800276e:	613b      	str	r3, [r7, #16]
 8002770:	4b18      	ldr	r3, [pc, #96]	; (80027d4 <HAL_I2C_MspInit+0xf0>)
 8002772:	6b1b      	ldr	r3, [r3, #48]	; 0x30
 8002774:	4a17      	ldr	r2, [pc, #92]	; (80027d4 <HAL_I2C_MspInit+0xf0>)
 8002776:	f043 0302 	orr.w	r3, r3, #2
 800277a:	6313      	str	r3, [r2, #48]	; 0x30
 800277c:	4b15      	ldr	r3, [pc, #84]	; (80027d4 <HAL_I2C_MspInit+0xf0>)
 800277e:	6b1b      	ldr	r3, [r3, #48]	; 0x30
 8002780:	f003 0302 	and.w	r3, r3, #2
 8002784:	613b      	str	r3, [r7, #16]
 8002786:	693b      	ldr	r3, [r7, #16]
    GPIO_InitStruct.Pin = GPIO_PIN_10|GPIO_PIN_11;
 8002788:	f44f 6340 	mov.w	r3, #3072	; 0xc00
 800278c:	61fb      	str	r3, [r7, #28]
    GPIO_InitStruct.Mode = GPIO_MODE_AF_OD;
 800278e:	2312      	movs	r3, #18
 8002790:	623b      	str	r3, [r7, #32]
    GPIO_InitStruct.Pull = GPIO_NOPULL;
 8002792:	2300      	movs	r3, #0
 8002794:	627b      	str	r3, [r7, #36]	; 0x24
    GPIO_InitStruct.Speed = GPIO_SPEED_FREQ_VERY_HIGH;
 8002796:	2303      	movs	r3, #3
 8002798:	62bb      	str	r3, [r7, #40]	; 0x28
    GPIO_InitStruct.Alternate = GPIO_AF4_I2C2;
 800279a:	2304      	movs	r3, #4
 800279c:	62fb      	str	r3, [r7, #44]	; 0x2c
    HAL_GPIO_Init(GPIOB, &GPIO_InitStruct);
 800279e:	f107 031c 	add.w	r3, r7, #28
 80027a2:	4619      	mov	r1, r3
 80027a4:	480c      	ldr	r0, [pc, #48]	; (80027d8 <HAL_I2C_MspInit+0xf4>)
 80027a6:	f001 ff45 	bl	8004634 <HAL_GPIO_Init>
    __HAL_RCC_I2C2_CLK_ENABLE();
 80027aa:	2300      	movs	r3, #0
 80027ac:	60fb      	str	r3, [r7, #12]
 80027ae:	4b09      	ldr	r3, [pc, #36]	; (80027d4 <HAL_I2C_MspInit+0xf0>)
 80027b0:	6c1b      	ldr	r3, [r3, #64]	; 0x40
 80027b2:	4a08      	ldr	r2, [pc, #32]	; (80027d4 <HAL_I2C_MspInit+0xf0>)
 80027b4:	f443 0380 	orr.w	r3, r3, #4194304	; 0x400000
 80027b8:	6413      	str	r3, [r2, #64]	; 0x40
 80027ba:	4b06      	ldr	r3, [pc, #24]	; (80027d4 <HAL_I2C_MspInit+0xf0>)
 80027bc:	6c1b      	ldr	r3, [r3, #64]	; 0x40
 80027be:	f403 0380 	and.w	r3, r3, #4194304	; 0x400000
 80027c2:	60fb      	str	r3, [r7, #12]
 80027c4:	68fb      	ldr	r3, [r7, #12]
}
 80027c6:	bf00      	nop
 80027c8:	3730      	adds	r7, #48	; 0x30
 80027ca:	46bd      	mov	sp, r7
 80027cc:	bd80      	pop	{r7, pc}
 80027ce:	bf00      	nop
 80027d0:	40005400 	.word	0x40005400
 80027d4:	40023800 	.word	0x40023800
 80027d8:	40020400 	.word	0x40020400
 80027dc:	40005800 	.word	0x40005800

080027e0 <HAL_RTC_MspInit>:
* This function configures the hardware resources used in this example
* @param hrtc: RTC handle pointer
* @retval None
*/
void HAL_RTC_MspInit(RTC_HandleTypeDef* hrtc)
{
 80027e0:	b580      	push	{r7, lr}
 80027e2:	b08e      	sub	sp, #56	; 0x38
 80027e4:	af00      	add	r7, sp, #0
 80027e6:	6078      	str	r0, [r7, #4]
  RCC_PeriphCLKInitTypeDef PeriphClkInitStruct = {0};
 80027e8:	f107 0308 	add.w	r3, r7, #8
 80027ec:	2230      	movs	r2, #48	; 0x30
 80027ee:	2100      	movs	r1, #0
 80027f0:	4618      	mov	r0, r3
 80027f2:	f006 fd43 	bl	800927c <memset>
  if(hrtc->Instance==RTC)
 80027f6:	687b      	ldr	r3, [r7, #4]
 80027f8:	681b      	ldr	r3, [r3, #0]
 80027fa:	4a0c      	ldr	r2, [pc, #48]	; (800282c <HAL_RTC_MspInit+0x4c>)
 80027fc:	4293      	cmp	r3, r2
 80027fe:	d111      	bne.n	8002824 <HAL_RTC_MspInit+0x44>

  /* USER CODE END RTC_MspInit 0 */

  /** Initializes the peripherals clock
  */
    PeriphClkInitStruct.PeriphClockSelection = RCC_PERIPHCLK_RTC;
 8002800:	2320      	movs	r3, #32
 8002802:	60bb      	str	r3, [r7, #8]
    PeriphClkInitStruct.RTCClockSelection = RCC_RTCCLKSOURCE_LSI;
 8002804:	f44f 7300 	mov.w	r3, #512	; 0x200
 8002808:	633b      	str	r3, [r7, #48]	; 0x30
    if (HAL_RCCEx_PeriphCLKConfig(&PeriphClkInitStruct) != HAL_OK)
 800280a:	f107 0308 	add.w	r3, r7, #8
 800280e:	4618      	mov	r0, r3
 8002810:	f003 fdd6 	bl	80063c0 <HAL_RCCEx_PeriphCLKConfig>
 8002814:	4603      	mov	r3, r0
 8002816:	2b00      	cmp	r3, #0
 8002818:	d001      	beq.n	800281e <HAL_RTC_MspInit+0x3e>
    {
      Error_Handler();
 800281a:	f7ff fa51 	bl	8001cc0 <Error_Handler>
    }

    /* Peripheral clock enable */
    __HAL_RCC_RTC_ENABLE();
 800281e:	4b04      	ldr	r3, [pc, #16]	; (8002830 <HAL_RTC_MspInit+0x50>)
 8002820:	2201      	movs	r2, #1
 8002822:	601a      	str	r2, [r3, #0]
  /* USER CODE BEGIN RTC_MspInit 1 */

  /* USER CODE END RTC_MspInit 1 */
  }

}
 8002824:	bf00      	nop
 8002826:	3738      	adds	r7, #56	; 0x38
 8002828:	46bd      	mov	sp, r7
 800282a:	bd80      	pop	{r7, pc}
 800282c:	40002800 	.word	0x40002800
 8002830:	42470e3c 	.word	0x42470e3c

08002834 <HAL_SPI_MspInit>:
* This function configures the hardware resources used in this example
* @param hspi: SPI handle pointer
* @retval None
*/
void HAL_SPI_MspInit(SPI_HandleTypeDef* hspi)
{
 8002834:	b580      	push	{r7, lr}
 8002836:	b08c      	sub	sp, #48	; 0x30
 8002838:	af00      	add	r7, sp, #0
 800283a:	6078      	str	r0, [r7, #4]
  GPIO_InitTypeDef GPIO_InitStruct = {0};
 800283c:	f107 031c 	add.w	r3, r7, #28
 8002840:	2200      	movs	r2, #0
 8002842:	601a      	str	r2, [r3, #0]
 8002844:	605a      	str	r2, [r3, #4]
 8002846:	609a      	str	r2, [r3, #8]
 8002848:	60da      	str	r2, [r3, #12]
 800284a:	611a      	str	r2, [r3, #16]
  if(hspi->Instance==SPI1)
 800284c:	687b      	ldr	r3, [r7, #4]
 800284e:	681b      	ldr	r3, [r3, #0]
 8002850:	4a6f      	ldr	r2, [pc, #444]	; (8002a10 <HAL_SPI_MspInit+0x1dc>)
 8002852:	4293      	cmp	r3, r2
 8002854:	d15b      	bne.n	800290e <HAL_SPI_MspInit+0xda>
  {
  /* USER CODE BEGIN SPI1_MspInit 0 */

  /* USER CODE END SPI1_MspInit 0 */
    /* Peripheral clock enable */
    __HAL_RCC_SPI1_CLK_ENABLE();
 8002856:	2300      	movs	r3, #0
 8002858:	61bb      	str	r3, [r7, #24]
 800285a:	4b6e      	ldr	r3, [pc, #440]	; (8002a14 <HAL_SPI_MspInit+0x1e0>)
 800285c:	6c5b      	ldr	r3, [r3, #68]	; 0x44
 800285e:	4a6d      	ldr	r2, [pc, #436]	; (8002a14 <HAL_SPI_MspInit+0x1e0>)
 8002860:	f443 5380 	orr.w	r3, r3, #4096	; 0x1000
 8002864:	6453      	str	r3, [r2, #68]	; 0x44
 8002866:	4b6b      	ldr	r3, [pc, #428]	; (8002a14 <HAL_SPI_MspInit+0x1e0>)
 8002868:	6c5b      	ldr	r3, [r3, #68]	; 0x44
 800286a:	f403 5380 	and.w	r3, r3, #4096	; 0x1000
 800286e:	61bb      	str	r3, [r7, #24]
 8002870:	69bb      	ldr	r3, [r7, #24]

    __HAL_RCC_GPIOA_CLK_ENABLE();
 8002872:	2300      	movs	r3, #0
 8002874:	617b      	str	r3, [r7, #20]
 8002876:	4b67      	ldr	r3, [pc, #412]	; (8002a14 <HAL_SPI_MspInit+0x1e0>)
 8002878:	6b1b      	ldr	r3, [r3, #48]	; 0x30
 800287a:	4a66      	ldr	r2, [pc, #408]	; (8002a14 <HAL_SPI_MspInit+0x1e0>)
 800287c:	f043 0301 	orr.w	r3, r3, #1
 8002880:	6313      	str	r3, [r2, #48]	; 0x30
 8002882:	4b64      	ldr	r3, [pc, #400]	; (8002a14 <HAL_SPI_MspInit+0x1e0>)
 8002884:	6b1b      	ldr	r3, [r3, #48]	; 0x30
 8002886:	f003 0301 	and.w	r3, r3, #1
 800288a:	617b      	str	r3, [r7, #20]
 800288c:	697b      	ldr	r3, [r7, #20]
    /**SPI1 GPIO Configuration
    PA5     ------> SPI1_SCK
    PA6     ------> SPI1_MISO
    PA7     ------> SPI1_MOSI
    */
    GPIO_InitStruct.Pin = GPIO_PIN_5|GPIO_PIN_6|GPIO_PIN_7;
 800288e:	23e0      	movs	r3, #224	; 0xe0
 8002890:	61fb      	str	r3, [r7, #28]
    GPIO_InitStruct.Mode = GPIO_MODE_AF_PP;
 8002892:	2302      	movs	r3, #2
 8002894:	623b      	str	r3, [r7, #32]
    GPIO_InitStruct.Pull = GPIO_NOPULL;
 8002896:	2300      	movs	r3, #0
 8002898:	627b      	str	r3, [r7, #36]	; 0x24
    GPIO_InitStruct.Speed = GPIO_SPEED_FREQ_VERY_HIGH;
 800289a:	2303      	movs	r3, #3
 800289c:	62bb      	str	r3, [r7, #40]	; 0x28
    GPIO_InitStruct.Alternate = GPIO_AF5_SPI1;
 800289e:	2305      	movs	r3, #5
 80028a0:	62fb      	str	r3, [r7, #44]	; 0x2c
    HAL_GPIO_Init(GPIOA, &GPIO_InitStruct);
 80028a2:	f107 031c 	add.w	r3, r7, #28
 80028a6:	4619      	mov	r1, r3
 80028a8:	485b      	ldr	r0, [pc, #364]	; (8002a18 <HAL_SPI_MspInit+0x1e4>)
 80028aa:	f001 fec3 	bl	8004634 <HAL_GPIO_Init>

    /* SPI1 DMA Init */
    /* SPI1_TX Init */
    hdma_spi1_tx.Instance = DMA2_Stream3;
 80028ae:	4b5b      	ldr	r3, [pc, #364]	; (8002a1c <HAL_SPI_MspInit+0x1e8>)
 80028b0:	4a5b      	ldr	r2, [pc, #364]	; (8002a20 <HAL_SPI_MspInit+0x1ec>)
 80028b2:	601a      	str	r2, [r3, #0]
    hdma_spi1_tx.Init.Channel = DMA_CHANNEL_3;
 80028b4:	4b59      	ldr	r3, [pc, #356]	; (8002a1c <HAL_SPI_MspInit+0x1e8>)
 80028b6:	f04f 62c0 	mov.w	r2, #100663296	; 0x6000000
 80028ba:	605a      	str	r2, [r3, #4]
    hdma_spi1_tx.Init.Direction = DMA_MEMORY_TO_PERIPH;
 80028bc:	4b57      	ldr	r3, [pc, #348]	; (8002a1c <HAL_SPI_MspInit+0x1e8>)
 80028be:	2240      	movs	r2, #64	; 0x40
 80028c0:	609a      	str	r2, [r3, #8]
    hdma_spi1_tx.Init.PeriphInc = DMA_PINC_DISABLE;
 80028c2:	4b56      	ldr	r3, [pc, #344]	; (8002a1c <HAL_SPI_MspInit+0x1e8>)
 80028c4:	2200      	movs	r2, #0
 80028c6:	60da      	str	r2, [r3, #12]
    hdma_spi1_tx.Init.MemInc = DMA_MINC_ENABLE;
 80028c8:	4b54      	ldr	r3, [pc, #336]	; (8002a1c <HAL_SPI_MspInit+0x1e8>)
 80028ca:	f44f 6280 	mov.w	r2, #1024	; 0x400
 80028ce:	611a      	str	r2, [r3, #16]
    hdma_spi1_tx.Init.PeriphDataAlignment = DMA_PDATAALIGN_BYTE;
 80028d0:	4b52      	ldr	r3, [pc, #328]	; (8002a1c <HAL_SPI_MspInit+0x1e8>)
 80028d2:	2200      	movs	r2, #0
 80028d4:	615a      	str	r2, [r3, #20]
    hdma_spi1_tx.Init.MemDataAlignment = DMA_MDATAALIGN_BYTE;
 80028d6:	4b51      	ldr	r3, [pc, #324]	; (8002a1c <HAL_SPI_MspInit+0x1e8>)
 80028d8:	2200      	movs	r2, #0
 80028da:	619a      	str	r2, [r3, #24]
    hdma_spi1_tx.Init.Mode = DMA_NORMAL;
 80028dc:	4b4f      	ldr	r3, [pc, #316]	; (8002a1c <HAL_SPI_MspInit+0x1e8>)
 80028de:	2200      	movs	r2, #0
 80028e0:	61da      	str	r2, [r3, #28]
    hdma_spi1_tx.Init.Priority = DMA_PRIORITY_MEDIUM;
 80028e2:	4b4e      	ldr	r3, [pc, #312]	; (8002a1c <HAL_SPI_MspInit+0x1e8>)
 80028e4:	f44f 3280 	mov.w	r2, #65536	; 0x10000
 80028e8:	621a      	str	r2, [r3, #32]
    hdma_spi1_tx.Init.FIFOMode = DMA_FIFOMODE_DISABLE;
 80028ea:	4b4c      	ldr	r3, [pc, #304]	; (8002a1c <HAL_SPI_MspInit+0x1e8>)
 80028ec:	2200      	movs	r2, #0
 80028ee:	625a      	str	r2, [r3, #36]	; 0x24
    if (HAL_DMA_Init(&hdma_spi1_tx) != HAL_OK)
 80028f0:	484a      	ldr	r0, [pc, #296]	; (8002a1c <HAL_SPI_MspInit+0x1e8>)
 80028f2:	f001 fa9d 	bl	8003e30 <HAL_DMA_Init>
 80028f6:	4603      	mov	r3, r0
 80028f8:	2b00      	cmp	r3, #0
 80028fa:	d001      	beq.n	8002900 <HAL_SPI_MspInit+0xcc>
    {
      Error_Handler();
 80028fc:	f7ff f9e0 	bl	8001cc0 <Error_Handler>
    }

    __HAL_LINKDMA(hspi,hdmatx,hdma_spi1_tx);
 8002900:	687b      	ldr	r3, [r7, #4]
 8002902:	4a46      	ldr	r2, [pc, #280]	; (8002a1c <HAL_SPI_MspInit+0x1e8>)
 8002904:	649a      	str	r2, [r3, #72]	; 0x48
 8002906:	4a45      	ldr	r2, [pc, #276]	; (8002a1c <HAL_SPI_MspInit+0x1e8>)
 8002908:	687b      	ldr	r3, [r7, #4]
 800290a:	6393      	str	r3, [r2, #56]	; 0x38
  /* USER CODE BEGIN SPI2_MspInit 1 */

  /* USER CODE END SPI2_MspInit 1 */
  }

}
 800290c:	e07b      	b.n	8002a06 <HAL_SPI_MspInit+0x1d2>
  else if(hspi->Instance==SPI2)
 800290e:	687b      	ldr	r3, [r7, #4]
 8002910:	681b      	ldr	r3, [r3, #0]
 8002912:	4a44      	ldr	r2, [pc, #272]	; (8002a24 <HAL_SPI_MspInit+0x1f0>)
 8002914:	4293      	cmp	r3, r2
 8002916:	d176      	bne.n	8002a06 <HAL_SPI_MspInit+0x1d2>
    __HAL_RCC_SPI2_CLK_ENABLE();
 8002918:	2300      	movs	r3, #0
 800291a:	613b      	str	r3, [r7, #16]
 800291c:	4b3d      	ldr	r3, [pc, #244]	; (8002a14 <HAL_SPI_MspInit+0x1e0>)
 800291e:	6c1b      	ldr	r3, [r3, #64]	; 0x40
 8002920:	4a3c      	ldr	r2, [pc, #240]	; (8002a14 <HAL_SPI_MspInit+0x1e0>)
 8002922:	f443 4380 	orr.w	r3, r3, #16384	; 0x4000
 8002926:	6413      	str	r3, [r2, #64]	; 0x40
 8002928:	4b3a      	ldr	r3, [pc, #232]	; (8002a14 <HAL_SPI_MspInit+0x1e0>)
 800292a:	6c1b      	ldr	r3, [r3, #64]	; 0x40
 800292c:	f403 4380 	and.w	r3, r3, #16384	; 0x4000
 8002930:	613b      	str	r3, [r7, #16]
 8002932:	693b      	ldr	r3, [r7, #16]
    __HAL_RCC_GPIOC_CLK_ENABLE();
 8002934:	2300      	movs	r3, #0
 8002936:	60fb      	str	r3, [r7, #12]
 8002938:	4b36      	ldr	r3, [pc, #216]	; (8002a14 <HAL_SPI_MspInit+0x1e0>)
 800293a:	6b1b      	ldr	r3, [r3, #48]	; 0x30
 800293c:	4a35      	ldr	r2, [pc, #212]	; (8002a14 <HAL_SPI_MspInit+0x1e0>)
 800293e:	f043 0304 	orr.w	r3, r3, #4
 8002942:	6313      	str	r3, [r2, #48]	; 0x30
 8002944:	4b33      	ldr	r3, [pc, #204]	; (8002a14 <HAL_SPI_MspInit+0x1e0>)
 8002946:	6b1b      	ldr	r3, [r3, #48]	; 0x30
 8002948:	f003 0304 	and.w	r3, r3, #4
 800294c:	60fb      	str	r3, [r7, #12]
 800294e:	68fb      	ldr	r3, [r7, #12]
    __HAL_RCC_GPIOD_CLK_ENABLE();
 8002950:	2300      	movs	r3, #0
 8002952:	60bb      	str	r3, [r7, #8]
 8002954:	4b2f      	ldr	r3, [pc, #188]	; (8002a14 <HAL_SPI_MspInit+0x1e0>)
 8002956:	6b1b      	ldr	r3, [r3, #48]	; 0x30
 8002958:	4a2e      	ldr	r2, [pc, #184]	; (8002a14 <HAL_SPI_MspInit+0x1e0>)
 800295a:	f043 0308 	orr.w	r3, r3, #8
 800295e:	6313      	str	r3, [r2, #48]	; 0x30
 8002960:	4b2c      	ldr	r3, [pc, #176]	; (8002a14 <HAL_SPI_MspInit+0x1e0>)
 8002962:	6b1b      	ldr	r3, [r3, #48]	; 0x30
 8002964:	f003 0308 	and.w	r3, r3, #8
 8002968:	60bb      	str	r3, [r7, #8]
 800296a:	68bb      	ldr	r3, [r7, #8]
    GPIO_InitStruct.Pin = GPIO_PIN_2|GPIO_PIN_3;
 800296c:	230c      	movs	r3, #12
 800296e:	61fb      	str	r3, [r7, #28]
    GPIO_InitStruct.Mode = GPIO_MODE_AF_PP;
 8002970:	2302      	movs	r3, #2
 8002972:	623b      	str	r3, [r7, #32]
    GPIO_InitStruct.Pull = GPIO_NOPULL;
 8002974:	2300      	movs	r3, #0
 8002976:	627b      	str	r3, [r7, #36]	; 0x24
    GPIO_InitStruct.Speed = GPIO_SPEED_FREQ_VERY_HIGH;
 8002978:	2303      	movs	r3, #3
 800297a:	62bb      	str	r3, [r7, #40]	; 0x28
    GPIO_InitStruct.Alternate = GPIO_AF5_SPI2;
 800297c:	2305      	movs	r3, #5
 800297e:	62fb      	str	r3, [r7, #44]	; 0x2c
    HAL_GPIO_Init(GPIOC, &GPIO_InitStruct);
 8002980:	f107 031c 	add.w	r3, r7, #28
 8002984:	4619      	mov	r1, r3
 8002986:	4828      	ldr	r0, [pc, #160]	; (8002a28 <HAL_SPI_MspInit+0x1f4>)
 8002988:	f001 fe54 	bl	8004634 <HAL_GPIO_Init>
    GPIO_InitStruct.Pin = GPIO_PIN_3;
 800298c:	2308      	movs	r3, #8
 800298e:	61fb      	str	r3, [r7, #28]
    GPIO_InitStruct.Mode = GPIO_MODE_AF_PP;
 8002990:	2302      	movs	r3, #2
 8002992:	623b      	str	r3, [r7, #32]
    GPIO_InitStruct.Pull = GPIO_NOPULL;
 8002994:	2300      	movs	r3, #0
 8002996:	627b      	str	r3, [r7, #36]	; 0x24
    GPIO_InitStruct.Speed = GPIO_SPEED_FREQ_VERY_HIGH;
 8002998:	2303      	movs	r3, #3
 800299a:	62bb      	str	r3, [r7, #40]	; 0x28
    GPIO_InitStruct.Alternate = GPIO_AF5_SPI2;
 800299c:	2305      	movs	r3, #5
 800299e:	62fb      	str	r3, [r7, #44]	; 0x2c
    HAL_GPIO_Init(GPIOD, &GPIO_InitStruct);
 80029a0:	f107 031c 	add.w	r3, r7, #28
 80029a4:	4619      	mov	r1, r3
 80029a6:	4821      	ldr	r0, [pc, #132]	; (8002a2c <HAL_SPI_MspInit+0x1f8>)
 80029a8:	f001 fe44 	bl	8004634 <HAL_GPIO_Init>
    hdma_spi2_tx.Instance = DMA1_Stream4;
 80029ac:	4b20      	ldr	r3, [pc, #128]	; (8002a30 <HAL_SPI_MspInit+0x1fc>)
 80029ae:	4a21      	ldr	r2, [pc, #132]	; (8002a34 <HAL_SPI_MspInit+0x200>)
 80029b0:	601a      	str	r2, [r3, #0]
    hdma_spi2_tx.Init.Channel = DMA_CHANNEL_0;
 80029b2:	4b1f      	ldr	r3, [pc, #124]	; (8002a30 <HAL_SPI_MspInit+0x1fc>)
 80029b4:	2200      	movs	r2, #0
 80029b6:	605a      	str	r2, [r3, #4]
    hdma_spi2_tx.Init.Direction = DMA_MEMORY_TO_PERIPH;
 80029b8:	4b1d      	ldr	r3, [pc, #116]	; (8002a30 <HAL_SPI_MspInit+0x1fc>)
 80029ba:	2240      	movs	r2, #64	; 0x40
 80029bc:	609a      	str	r2, [r3, #8]
    hdma_spi2_tx.Init.PeriphInc = DMA_PINC_DISABLE;
 80029be:	4b1c      	ldr	r3, [pc, #112]	; (8002a30 <HAL_SPI_MspInit+0x1fc>)
 80029c0:	2200      	movs	r2, #0
 80029c2:	60da      	str	r2, [r3, #12]
    hdma_spi2_tx.Init.MemInc = DMA_MINC_ENABLE;
 80029c4:	4b1a      	ldr	r3, [pc, #104]	; (8002a30 <HAL_SPI_MspInit+0x1fc>)
 80029c6:	f44f 6280 	mov.w	r2, #1024	; 0x400
 80029ca:	611a      	str	r2, [r3, #16]
    hdma_spi2_tx.Init.PeriphDataAlignment = DMA_PDATAALIGN_BYTE;
 80029cc:	4b18      	ldr	r3, [pc, #96]	; (8002a30 <HAL_SPI_MspInit+0x1fc>)
 80029ce:	2200      	movs	r2, #0
 80029d0:	615a      	str	r2, [r3, #20]
    hdma_spi2_tx.Init.MemDataAlignment = DMA_MDATAALIGN_BYTE;
 80029d2:	4b17      	ldr	r3, [pc, #92]	; (8002a30 <HAL_SPI_MspInit+0x1fc>)
 80029d4:	2200      	movs	r2, #0
 80029d6:	619a      	str	r2, [r3, #24]
    hdma_spi2_tx.Init.Mode = DMA_NORMAL;
 80029d8:	4b15      	ldr	r3, [pc, #84]	; (8002a30 <HAL_SPI_MspInit+0x1fc>)
 80029da:	2200      	movs	r2, #0
 80029dc:	61da      	str	r2, [r3, #28]
    hdma_spi2_tx.Init.Priority = DMA_PRIORITY_LOW;
 80029de:	4b14      	ldr	r3, [pc, #80]	; (8002a30 <HAL_SPI_MspInit+0x1fc>)
 80029e0:	2200      	movs	r2, #0
 80029e2:	621a      	str	r2, [r3, #32]
    hdma_spi2_tx.Init.FIFOMode = DMA_FIFOMODE_DISABLE;
 80029e4:	4b12      	ldr	r3, [pc, #72]	; (8002a30 <HAL_SPI_MspInit+0x1fc>)
 80029e6:	2200      	movs	r2, #0
 80029e8:	625a      	str	r2, [r3, #36]	; 0x24
    if (HAL_DMA_Init(&hdma_spi2_tx) != HAL_OK)
 80029ea:	4811      	ldr	r0, [pc, #68]	; (8002a30 <HAL_SPI_MspInit+0x1fc>)
 80029ec:	f001 fa20 	bl	8003e30 <HAL_DMA_Init>
 80029f0:	4603      	mov	r3, r0
 80029f2:	2b00      	cmp	r3, #0
 80029f4:	d001      	beq.n	80029fa <HAL_SPI_MspInit+0x1c6>
      Error_Handler();
 80029f6:	f7ff f963 	bl	8001cc0 <Error_Handler>
    __HAL_LINKDMA(hspi,hdmatx,hdma_spi2_tx);
 80029fa:	687b      	ldr	r3, [r7, #4]
 80029fc:	4a0c      	ldr	r2, [pc, #48]	; (8002a30 <HAL_SPI_MspInit+0x1fc>)
 80029fe:	649a      	str	r2, [r3, #72]	; 0x48
 8002a00:	4a0b      	ldr	r2, [pc, #44]	; (8002a30 <HAL_SPI_MspInit+0x1fc>)
 8002a02:	687b      	ldr	r3, [r7, #4]
 8002a04:	6393      	str	r3, [r2, #56]	; 0x38
}
 8002a06:	bf00      	nop
 8002a08:	3730      	adds	r7, #48	; 0x30
 8002a0a:	46bd      	mov	sp, r7
 8002a0c:	bd80      	pop	{r7, pc}
 8002a0e:	bf00      	nop
 8002a10:	40013000 	.word	0x40013000
 8002a14:	40023800 	.word	0x40023800
 8002a18:	40020000 	.word	0x40020000
 8002a1c:	200001e8 	.word	0x200001e8
 8002a20:	40026458 	.word	0x40026458
 8002a24:	40003800 	.word	0x40003800
 8002a28:	40020800 	.word	0x40020800
 8002a2c:	40020c00 	.word	0x40020c00
 8002a30:	20000248 	.word	0x20000248
 8002a34:	40026070 	.word	0x40026070

08002a38 <HAL_TIM_Base_MspInit>:
* This function configures the hardware resources used in this example
* @param htim_base: TIM_Base handle pointer
* @retval None
*/
void HAL_TIM_Base_MspInit(TIM_HandleTypeDef* htim_base)
{
 8002a38:	b580      	push	{r7, lr}
 8002a3a:	b084      	sub	sp, #16
 8002a3c:	af00      	add	r7, sp, #0
 8002a3e:	6078      	str	r0, [r7, #4]
  if(htim_base->Instance==TIM6)
 8002a40:	687b      	ldr	r3, [r7, #4]
 8002a42:	681b      	ldr	r3, [r3, #0]
 8002a44:	4a1c      	ldr	r2, [pc, #112]	; (8002ab8 <HAL_TIM_Base_MspInit+0x80>)
 8002a46:	4293      	cmp	r3, r2
 8002a48:	d116      	bne.n	8002a78 <HAL_TIM_Base_MspInit+0x40>
  {
  /* USER CODE BEGIN TIM6_MspInit 0 */

  /* USER CODE END TIM6_MspInit 0 */
    /* Peripheral clock enable */
    __HAL_RCC_TIM6_CLK_ENABLE();
 8002a4a:	2300      	movs	r3, #0
 8002a4c:	60fb      	str	r3, [r7, #12]
 8002a4e:	4b1b      	ldr	r3, [pc, #108]	; (8002abc <HAL_TIM_Base_MspInit+0x84>)
 8002a50:	6c1b      	ldr	r3, [r3, #64]	; 0x40
 8002a52:	4a1a      	ldr	r2, [pc, #104]	; (8002abc <HAL_TIM_Base_MspInit+0x84>)
 8002a54:	f043 0310 	orr.w	r3, r3, #16
 8002a58:	6413      	str	r3, [r2, #64]	; 0x40
 8002a5a:	4b18      	ldr	r3, [pc, #96]	; (8002abc <HAL_TIM_Base_MspInit+0x84>)
 8002a5c:	6c1b      	ldr	r3, [r3, #64]	; 0x40
 8002a5e:	f003 0310 	and.w	r3, r3, #16
 8002a62:	60fb      	str	r3, [r7, #12]
 8002a64:	68fb      	ldr	r3, [r7, #12]
    /* TIM6 interrupt Init */
    HAL_NVIC_SetPriority(TIM6_DAC_IRQn, 0, 0);
 8002a66:	2200      	movs	r2, #0
 8002a68:	2100      	movs	r1, #0
 8002a6a:	2036      	movs	r0, #54	; 0x36
 8002a6c:	f001 f9a9 	bl	8003dc2 <HAL_NVIC_SetPriority>
    HAL_NVIC_EnableIRQ(TIM6_DAC_IRQn);
 8002a70:	2036      	movs	r0, #54	; 0x36
 8002a72:	f001 f9c2 	bl	8003dfa <HAL_NVIC_EnableIRQ>
  /* USER CODE BEGIN TIM7_MspInit 1 */

  /* USER CODE END TIM7_MspInit 1 */
  }

}
 8002a76:	e01a      	b.n	8002aae <HAL_TIM_Base_MspInit+0x76>
  else if(htim_base->Instance==TIM7)
 8002a78:	687b      	ldr	r3, [r7, #4]
 8002a7a:	681b      	ldr	r3, [r3, #0]
 8002a7c:	4a10      	ldr	r2, [pc, #64]	; (8002ac0 <HAL_TIM_Base_MspInit+0x88>)
 8002a7e:	4293      	cmp	r3, r2
 8002a80:	d115      	bne.n	8002aae <HAL_TIM_Base_MspInit+0x76>
    __HAL_RCC_TIM7_CLK_ENABLE();
 8002a82:	2300      	movs	r3, #0
 8002a84:	60bb      	str	r3, [r7, #8]
 8002a86:	4b0d      	ldr	r3, [pc, #52]	; (8002abc <HAL_TIM_Base_MspInit+0x84>)
 8002a88:	6c1b      	ldr	r3, [r3, #64]	; 0x40
 8002a8a:	4a0c      	ldr	r2, [pc, #48]	; (8002abc <HAL_TIM_Base_MspInit+0x84>)
 8002a8c:	f043 0320 	orr.w	r3, r3, #32
 8002a90:	6413      	str	r3, [r2, #64]	; 0x40
 8002a92:	4b0a      	ldr	r3, [pc, #40]	; (8002abc <HAL_TIM_Base_MspInit+0x84>)
 8002a94:	6c1b      	ldr	r3, [r3, #64]	; 0x40
 8002a96:	f003 0320 	and.w	r3, r3, #32
 8002a9a:	60bb      	str	r3, [r7, #8]
 8002a9c:	68bb      	ldr	r3, [r7, #8]
    HAL_NVIC_SetPriority(TIM7_IRQn, 0, 0);
 8002a9e:	2200      	movs	r2, #0
 8002aa0:	2100      	movs	r1, #0
 8002aa2:	2037      	movs	r0, #55	; 0x37
 8002aa4:	f001 f98d 	bl	8003dc2 <HAL_NVIC_SetPriority>
    HAL_NVIC_EnableIRQ(TIM7_IRQn);
 8002aa8:	2037      	movs	r0, #55	; 0x37
 8002aaa:	f001 f9a6 	bl	8003dfa <HAL_NVIC_EnableIRQ>
}
 8002aae:	bf00      	nop
 8002ab0:	3710      	adds	r7, #16
 8002ab2:	46bd      	mov	sp, r7
 8002ab4:	bd80      	pop	{r7, pc}
 8002ab6:	bf00      	nop
 8002ab8:	40001000 	.word	0x40001000
 8002abc:	40023800 	.word	0x40023800
 8002ac0:	40001400 	.word	0x40001400

08002ac4 <HAL_UART_MspInit>:
* This function configures the hardware resources used in this example
* @param huart: UART handle pointer
* @retval None
*/
void HAL_UART_MspInit(UART_HandleTypeDef* huart)
{
 8002ac4:	b580      	push	{r7, lr}
 8002ac6:	b08a      	sub	sp, #40	; 0x28
 8002ac8:	af00      	add	r7, sp, #0
 8002aca:	6078      	str	r0, [r7, #4]
  GPIO_InitTypeDef GPIO_InitStruct = {0};
 8002acc:	f107 0314 	add.w	r3, r7, #20
 8002ad0:	2200      	movs	r2, #0
 8002ad2:	601a      	str	r2, [r3, #0]
 8002ad4:	605a      	str	r2, [r3, #4]
 8002ad6:	609a      	str	r2, [r3, #8]
 8002ad8:	60da      	str	r2, [r3, #12]
 8002ada:	611a      	str	r2, [r3, #16]
  if(huart->Instance==USART2)
 8002adc:	687b      	ldr	r3, [r7, #4]
 8002ade:	681b      	ldr	r3, [r3, #0]
 8002ae0:	4a1d      	ldr	r2, [pc, #116]	; (8002b58 <HAL_UART_MspInit+0x94>)
 8002ae2:	4293      	cmp	r3, r2
 8002ae4:	d133      	bne.n	8002b4e <HAL_UART_MspInit+0x8a>
  {
  /* USER CODE BEGIN USART2_MspInit 0 */

  /* USER CODE END USART2_MspInit 0 */
    /* Peripheral clock enable */
    __HAL_RCC_USART2_CLK_ENABLE();
 8002ae6:	2300      	movs	r3, #0
 8002ae8:	613b      	str	r3, [r7, #16]
 8002aea:	4b1c      	ldr	r3, [pc, #112]	; (8002b5c <HAL_UART_MspInit+0x98>)
 8002aec:	6c1b      	ldr	r3, [r3, #64]	; 0x40
 8002aee:	4a1b      	ldr	r2, [pc, #108]	; (8002b5c <HAL_UART_MspInit+0x98>)
 8002af0:	f443 3300 	orr.w	r3, r3, #131072	; 0x20000
 8002af4:	6413      	str	r3, [r2, #64]	; 0x40
 8002af6:	4b19      	ldr	r3, [pc, #100]	; (8002b5c <HAL_UART_MspInit+0x98>)
 8002af8:	6c1b      	ldr	r3, [r3, #64]	; 0x40
 8002afa:	f403 3300 	and.w	r3, r3, #131072	; 0x20000
 8002afe:	613b      	str	r3, [r7, #16]
 8002b00:	693b      	ldr	r3, [r7, #16]

    __HAL_RCC_GPIOD_CLK_ENABLE();
 8002b02:	2300      	movs	r3, #0
 8002b04:	60fb      	str	r3, [r7, #12]
 8002b06:	4b15      	ldr	r3, [pc, #84]	; (8002b5c <HAL_UART_MspInit+0x98>)
 8002b08:	6b1b      	ldr	r3, [r3, #48]	; 0x30
 8002b0a:	4a14      	ldr	r2, [pc, #80]	; (8002b5c <HAL_UART_MspInit+0x98>)
 8002b0c:	f043 0308 	orr.w	r3, r3, #8
 8002b10:	6313      	str	r3, [r2, #48]	; 0x30
 8002b12:	4b12      	ldr	r3, [pc, #72]	; (8002b5c <HAL_UART_MspInit+0x98>)
 8002b14:	6b1b      	ldr	r3, [r3, #48]	; 0x30
 8002b16:	f003 0308 	and.w	r3, r3, #8
 8002b1a:	60fb      	str	r3, [r7, #12]
 8002b1c:	68fb      	ldr	r3, [r7, #12]
    /**USART2 GPIO Configuration
    PD5     ------> USART2_TX
    PD6     ------> USART2_RX
    */
    GPIO_InitStruct.Pin = GPIO_PIN_5|GPIO_PIN_6;
 8002b1e:	2360      	movs	r3, #96	; 0x60
 8002b20:	617b      	str	r3, [r7, #20]
    GPIO_InitStruct.Mode = GPIO_MODE_AF_PP;
 8002b22:	2302      	movs	r3, #2
 8002b24:	61bb      	str	r3, [r7, #24]
    GPIO_InitStruct.Pull = GPIO_NOPULL;
 8002b26:	2300      	movs	r3, #0
 8002b28:	61fb      	str	r3, [r7, #28]
    GPIO_InitStruct.Speed = GPIO_SPEED_FREQ_VERY_HIGH;
 8002b2a:	2303      	movs	r3, #3
 8002b2c:	623b      	str	r3, [r7, #32]
    GPIO_InitStruct.Alternate = GPIO_AF7_USART2;
 8002b2e:	2307      	movs	r3, #7
 8002b30:	627b      	str	r3, [r7, #36]	; 0x24
    HAL_GPIO_Init(GPIOD, &GPIO_InitStruct);
 8002b32:	f107 0314 	add.w	r3, r7, #20
 8002b36:	4619      	mov	r1, r3
 8002b38:	4809      	ldr	r0, [pc, #36]	; (8002b60 <HAL_UART_MspInit+0x9c>)
 8002b3a:	f001 fd7b 	bl	8004634 <HAL_GPIO_Init>

    /* USART2 interrupt Init */
    HAL_NVIC_SetPriority(USART2_IRQn, 0, 0);
 8002b3e:	2200      	movs	r2, #0
 8002b40:	2100      	movs	r1, #0
 8002b42:	2026      	movs	r0, #38	; 0x26
 8002b44:	f001 f93d 	bl	8003dc2 <HAL_NVIC_SetPriority>
    HAL_NVIC_EnableIRQ(USART2_IRQn);
 8002b48:	2026      	movs	r0, #38	; 0x26
 8002b4a:	f001 f956 	bl	8003dfa <HAL_NVIC_EnableIRQ>
  /* USER CODE BEGIN USART2_MspInit 1 */

  /* USER CODE END USART2_MspInit 1 */
  }

}
 8002b4e:	bf00      	nop
 8002b50:	3728      	adds	r7, #40	; 0x28
 8002b52:	46bd      	mov	sp, r7
 8002b54:	bd80      	pop	{r7, pc}
 8002b56:	bf00      	nop
 8002b58:	40004400 	.word	0x40004400
 8002b5c:	40023800 	.word	0x40023800
 8002b60:	40020c00 	.word	0x40020c00

08002b64 <NMI_Handler>:
/******************************************************************************/
/**
  * @brief This function handles Non maskable interrupt.
  */
void NMI_Handler(void)
{
 8002b64:	b480      	push	{r7}
 8002b66:	af00      	add	r7, sp, #0
  /* USER CODE BEGIN NonMaskableInt_IRQn 0 */

  /* USER CODE END NonMaskableInt_IRQn 0 */
  /* USER CODE BEGIN NonMaskableInt_IRQn 1 */
  while (1)
 8002b68:	e7fe      	b.n	8002b68 <NMI_Handler+0x4>

08002b6a <HardFault_Handler>:

/**
  * @brief This function handles Hard fault interrupt.
  */
void HardFault_Handler(void)
{
 8002b6a:	b480      	push	{r7}
 8002b6c:	af00      	add	r7, sp, #0
  /* USER CODE BEGIN HardFault_IRQn 0 */

  /* USER CODE END HardFault_IRQn 0 */
  while (1)
 8002b6e:	e7fe      	b.n	8002b6e <HardFault_Handler+0x4>

08002b70 <MemManage_Handler>:

/**
  * @brief This function handles Memory management fault.
  */
void MemManage_Handler(void)
{
 8002b70:	b480      	push	{r7}
 8002b72:	af00      	add	r7, sp, #0
  /* USER CODE BEGIN MemoryManagement_IRQn 0 */

  /* USER CODE END MemoryManagement_IRQn 0 */
  while (1)
 8002b74:	e7fe      	b.n	8002b74 <MemManage_Handler+0x4>

08002b76 <BusFault_Handler>:

/**
  * @brief This function handles Pre-fetch fault, memory access fault.
  */
void BusFault_Handler(void)
{
 8002b76:	b480      	push	{r7}
 8002b78:	af00      	add	r7, sp, #0
  /* USER CODE BEGIN BusFault_IRQn 0 */

  /* USER CODE END BusFault_IRQn 0 */
  while (1)
 8002b7a:	e7fe      	b.n	8002b7a <BusFault_Handler+0x4>

08002b7c <UsageFault_Handler>:

/**
  * @brief This function handles Undefined instruction or illegal state.
  */
void UsageFault_Handler(void)
{
 8002b7c:	b480      	push	{r7}
 8002b7e:	af00      	add	r7, sp, #0
  /* USER CODE BEGIN UsageFault_IRQn 0 */

  /* USER CODE END UsageFault_IRQn 0 */
  while (1)
 8002b80:	e7fe      	b.n	8002b80 <UsageFault_Handler+0x4>

08002b82 <SVC_Handler>:

/**
  * @brief This function handles System service call via SWI instruction.
  */
void SVC_Handler(void)
{
 8002b82:	b480      	push	{r7}
 8002b84:	af00      	add	r7, sp, #0

  /* USER CODE END SVCall_IRQn 0 */
  /* USER CODE BEGIN SVCall_IRQn 1 */

  /* USER CODE END SVCall_IRQn 1 */
}
 8002b86:	bf00      	nop
 8002b88:	46bd      	mov	sp, r7
 8002b8a:	f85d 7b04 	ldr.w	r7, [sp], #4
 8002b8e:	4770      	bx	lr

08002b90 <DebugMon_Handler>:

/**
  * @brief This function handles Debug monitor.
  */
void DebugMon_Handler(void)
{
 8002b90:	b480      	push	{r7}
 8002b92:	af00      	add	r7, sp, #0

  /* USER CODE END DebugMonitor_IRQn 0 */
  /* USER CODE BEGIN DebugMonitor_IRQn 1 */

  /* USER CODE END DebugMonitor_IRQn 1 */
}
 8002b94:	bf00      	nop
 8002b96:	46bd      	mov	sp, r7
 8002b98:	f85d 7b04 	ldr.w	r7, [sp], #4
 8002b9c:	4770      	bx	lr

08002b9e <PendSV_Handler>:

/**
  * @brief This function handles Pendable request for system service.
  */
void PendSV_Handler(void)
{
 8002b9e:	b480      	push	{r7}
 8002ba0:	af00      	add	r7, sp, #0

  /* USER CODE END PendSV_IRQn 0 */
  /* USER CODE BEGIN PendSV_IRQn 1 */

  /* USER CODE END PendSV_IRQn 1 */
}
 8002ba2:	bf00      	nop
 8002ba4:	46bd      	mov	sp, r7
 8002ba6:	f85d 7b04 	ldr.w	r7, [sp], #4
 8002baa:	4770      	bx	lr

08002bac <SysTick_Handler>:

/**
  * @brief This function handles System tick timer.
  */
void SysTick_Handler(void)
{
 8002bac:	b580      	push	{r7, lr}
 8002bae:	af00      	add	r7, sp, #0
  /* USER CODE BEGIN SysTick_IRQn 0 */

  /* USER CODE END SysTick_IRQn 0 */
  HAL_IncTick();
 8002bb0:	f000 f980 	bl	8002eb4 <HAL_IncTick>
  /* USER CODE BEGIN SysTick_IRQn 1 */

  /* USER CODE END SysTick_IRQn 1 */
}
 8002bb4:	bf00      	nop
 8002bb6:	bd80      	pop	{r7, pc}

08002bb8 <DMA1_Stream4_IRQHandler>:

/**
  * @brief This function handles DMA1 stream4 global interrupt.
  */
void DMA1_Stream4_IRQHandler(void)
{
 8002bb8:	b580      	push	{r7, lr}
 8002bba:	af00      	add	r7, sp, #0
  /* USER CODE BEGIN DMA1_Stream4_IRQn 0 */

  /* USER CODE END DMA1_Stream4_IRQn 0 */
  HAL_DMA_IRQHandler(&hdma_spi2_tx);
 8002bbc:	4802      	ldr	r0, [pc, #8]	; (8002bc8 <DMA1_Stream4_IRQHandler+0x10>)
 8002bbe:	f001 facf 	bl	8004160 <HAL_DMA_IRQHandler>
  /* USER CODE BEGIN DMA1_Stream4_IRQn 1 */

  /* USER CODE END DMA1_Stream4_IRQn 1 */
}
 8002bc2:	bf00      	nop
 8002bc4:	bd80      	pop	{r7, pc}
 8002bc6:	bf00      	nop
 8002bc8:	20000248 	.word	0x20000248

08002bcc <USART2_IRQHandler>:

/**
  * @brief This function handles USART2 global interrupt.
  */
void USART2_IRQHandler(void)
{
 8002bcc:	b580      	push	{r7, lr}
 8002bce:	af00      	add	r7, sp, #0
  /* USER CODE BEGIN USART2_IRQn 0 */

  /* USER CODE END USART2_IRQn 0 */
  HAL_UART_IRQHandler(&huart2);
 8002bd0:	4802      	ldr	r0, [pc, #8]	; (8002bdc <USART2_IRQHandler+0x10>)
 8002bd2:	f005 fbfd 	bl	80083d0 <HAL_UART_IRQHandler>
  /* USER CODE BEGIN USART2_IRQn 1 */

  /* USER CODE END USART2_IRQn 1 */
}
 8002bd6:	bf00      	nop
 8002bd8:	bd80      	pop	{r7, pc}
 8002bda:	bf00      	nop
 8002bdc:	20000338 	.word	0x20000338

08002be0 <TIM6_DAC_IRQHandler>:

/**
  * @brief This function handles TIM6 global interrupt, DAC1 and DAC2 underrun error interrupts.
  */
void TIM6_DAC_IRQHandler(void)
{
 8002be0:	b580      	push	{r7, lr}
 8002be2:	af00      	add	r7, sp, #0
  /* USER CODE BEGIN TIM6_DAC_IRQn 0 */

  /* USER CODE END TIM6_DAC_IRQn 0 */
  HAL_TIM_IRQHandler(&htim6);
 8002be4:	4803      	ldr	r0, [pc, #12]	; (8002bf4 <TIM6_DAC_IRQHandler+0x14>)
 8002be6:	f005 f895 	bl	8007d14 <HAL_TIM_IRQHandler>
  /* USER CODE BEGIN TIM6_DAC_IRQn 1 */
  tim6_overflow_flag = FLAG_SET;
 8002bea:	4b03      	ldr	r3, [pc, #12]	; (8002bf8 <TIM6_DAC_IRQHandler+0x18>)
 8002bec:	2201      	movs	r2, #1
 8002bee:	701a      	strb	r2, [r3, #0]
  /* USER CODE END TIM6_DAC_IRQn 1 */
}
 8002bf0:	bf00      	nop
 8002bf2:	bd80      	pop	{r7, pc}
 8002bf4:	200002a8 	.word	0x200002a8
 8002bf8:	200003b5 	.word	0x200003b5

08002bfc <TIM7_IRQHandler>:

/**
  * @brief This function handles TIM7 global interrupt.
  */
void TIM7_IRQHandler(void)
{
 8002bfc:	b580      	push	{r7, lr}
 8002bfe:	af00      	add	r7, sp, #0
  /* USER CODE BEGIN TIM7_IRQn 0 */

  /* USER CODE END TIM7_IRQn 0 */
  HAL_TIM_IRQHandler(&htim7);
 8002c00:	4803      	ldr	r0, [pc, #12]	; (8002c10 <TIM7_IRQHandler+0x14>)
 8002c02:	f005 f887 	bl	8007d14 <HAL_TIM_IRQHandler>
  /* USER CODE BEGIN TIM7_IRQn 1 */
  tim7_overflow_flag = FLAG_SET;
 8002c06:	4b03      	ldr	r3, [pc, #12]	; (8002c14 <TIM7_IRQHandler+0x18>)
 8002c08:	2201      	movs	r2, #1
 8002c0a:	701a      	strb	r2, [r3, #0]
  /* USER CODE END TIM7_IRQn 1 */
}
 8002c0c:	bf00      	nop
 8002c0e:	bd80      	pop	{r7, pc}
 8002c10:	200002f0 	.word	0x200002f0
 8002c14:	200003b6 	.word	0x200003b6

08002c18 <DMA2_Stream3_IRQHandler>:

/**
  * @brief This function handles DMA2 stream3 global interrupt.
  */
void DMA2_Stream3_IRQHandler(void)
{
 8002c18:	b580      	push	{r7, lr}
 8002c1a:	af00      	add	r7, sp, #0
  /* USER CODE BEGIN DMA2_Stream3_IRQn 0 */

  /* USER CODE END DMA2_Stream3_IRQn 0 */
  HAL_DMA_IRQHandler(&hdma_spi1_tx);
 8002c1c:	4802      	ldr	r0, [pc, #8]	; (8002c28 <DMA2_Stream3_IRQHandler+0x10>)
 8002c1e:	f001 fa9f 	bl	8004160 <HAL_DMA_IRQHandler>
  /* USER CODE BEGIN DMA2_Stream3_IRQn 1 */

  /* USER CODE END DMA2_Stream3_IRQn 1 */
}
 8002c22:	bf00      	nop
 8002c24:	bd80      	pop	{r7, pc}
 8002c26:	bf00      	nop
 8002c28:	200001e8 	.word	0x200001e8

08002c2c <CAN2_RX0_IRQHandler>:

/**
  * @brief This function handles CAN2 RX0 interrupts.
  */
void CAN2_RX0_IRQHandler(void)
{
 8002c2c:	b580      	push	{r7, lr}
 8002c2e:	af00      	add	r7, sp, #0
  /* USER CODE BEGIN CAN2_RX0_IRQn 0 */

  /* USER CODE END CAN2_RX0_IRQn 0 */
  HAL_CAN_IRQHandler(&hcan2);
 8002c30:	4802      	ldr	r0, [pc, #8]	; (8002c3c <CAN2_RX0_IRQHandler+0x10>)
 8002c32:	f000 fdbb 	bl	80037ac <HAL_CAN_IRQHandler>
  /* USER CODE BEGIN CAN2_RX0_IRQn 1 */

  /* USER CODE END CAN2_RX0_IRQn 1 */
}
 8002c36:	bf00      	nop
 8002c38:	bd80      	pop	{r7, pc}
 8002c3a:	bf00      	nop
 8002c3c:	20000048 	.word	0x20000048

08002c40 <HAL_CAN_RxFifo0MsgPendingCallback>:

/* USER CODE BEGIN 1 */
void HAL_CAN_RxFifo0MsgPendingCallback(CAN_HandleTypeDef *hcan) {
 8002c40:	b580      	push	{r7, lr}
 8002c42:	b082      	sub	sp, #8
 8002c44:	af00      	add	r7, sp, #0
 8002c46:	6078      	str	r0, [r7, #4]
	HAL_CAN_GetRxMessage(hcan, CAN_RX_FIFO0, &CAN_RxHeader, CAN_RxData);
 8002c48:	4b06      	ldr	r3, [pc, #24]	; (8002c64 <HAL_CAN_RxFifo0MsgPendingCallback+0x24>)
 8002c4a:	4a07      	ldr	r2, [pc, #28]	; (8002c68 <HAL_CAN_RxFifo0MsgPendingCallback+0x28>)
 8002c4c:	2100      	movs	r1, #0
 8002c4e:	6878      	ldr	r0, [r7, #4]
 8002c50:	f000 fc64 	bl	800351c <HAL_CAN_GetRxMessage>
	CAN_RX_Flag = FLAG_SET;
 8002c54:	4b05      	ldr	r3, [pc, #20]	; (8002c6c <HAL_CAN_RxFifo0MsgPendingCallback+0x2c>)
 8002c56:	2201      	movs	r2, #1
 8002c58:	701a      	strb	r2, [r3, #0]
}
 8002c5a:	bf00      	nop
 8002c5c:	3708      	adds	r7, #8
 8002c5e:	46bd      	mov	sp, r7
 8002c60:	bd80      	pop	{r7, pc}
 8002c62:	bf00      	nop
 8002c64:	200003ac 	.word	0x200003ac
 8002c68:	20000390 	.word	0x20000390
 8002c6c:	200003b4 	.word	0x200003b4

08002c70 <HAL_SPI_TxCpltCallback>:


void HAL_SPI_TxCpltCallback(SPI_HandleTypeDef *hspi) {
 8002c70:	b580      	push	{r7, lr}
 8002c72:	b082      	sub	sp, #8
 8002c74:	af00      	add	r7, sp, #0
 8002c76:	6078      	str	r0, [r7, #4]
	// Pull CS pin high to deselect the device
    if (hspi->Instance == SPI1) {
 8002c78:	687b      	ldr	r3, [r7, #4]
 8002c7a:	681b      	ldr	r3, [r3, #0]
 8002c7c:	4a18      	ldr	r2, [pc, #96]	; (8002ce0 <HAL_SPI_TxCpltCallback+0x70>)
 8002c7e:	4293      	cmp	r3, r2
 8002c80:	d108      	bne.n	8002c94 <HAL_SPI_TxCpltCallback+0x24>
        // Pull CS pin high for SPI1 to deselect the device
    	HAL_GPIO_WritePin(cs_spi1.GPIOx, cs_spi1.GPIO_Pin, GPIO_PIN_SET);
 8002c82:	4b18      	ldr	r3, [pc, #96]	; (8002ce4 <HAL_SPI_TxCpltCallback+0x74>)
 8002c84:	681b      	ldr	r3, [r3, #0]
 8002c86:	4a17      	ldr	r2, [pc, #92]	; (8002ce4 <HAL_SPI_TxCpltCallback+0x74>)
 8002c88:	8891      	ldrh	r1, [r2, #4]
 8002c8a:	2201      	movs	r2, #1
 8002c8c:	4618      	mov	r0, r3
 8002c8e:	f001 fe95 	bl	80049bc <HAL_GPIO_WritePin>
 8002c92:	e00c      	b.n	8002cae <HAL_SPI_TxCpltCallback+0x3e>
    } else if (hspi->Instance == SPI2) {
 8002c94:	687b      	ldr	r3, [r7, #4]
 8002c96:	681b      	ldr	r3, [r3, #0]
 8002c98:	4a13      	ldr	r2, [pc, #76]	; (8002ce8 <HAL_SPI_TxCpltCallback+0x78>)
 8002c9a:	4293      	cmp	r3, r2
 8002c9c:	d107      	bne.n	8002cae <HAL_SPI_TxCpltCallback+0x3e>
        // Pull CS pin high for SPI2 to deselect the device
    	HAL_GPIO_WritePin(cs_spi2.GPIOx, cs_spi2.GPIO_Pin, GPIO_PIN_SET);
 8002c9e:	4b13      	ldr	r3, [pc, #76]	; (8002cec <HAL_SPI_TxCpltCallback+0x7c>)
 8002ca0:	681b      	ldr	r3, [r3, #0]
 8002ca2:	4a12      	ldr	r2, [pc, #72]	; (8002cec <HAL_SPI_TxCpltCallback+0x7c>)
 8002ca4:	8891      	ldrh	r1, [r2, #4]
 8002ca6:	2201      	movs	r2, #1
 8002ca8:	4618      	mov	r0, r3
 8002caa:	f001 fe87 	bl	80049bc <HAL_GPIO_WritePin>
    }

    CLEAR_BIT(hspi->Instance->CR2, SPI_CR2_TXDMAEN);
 8002cae:	687b      	ldr	r3, [r7, #4]
 8002cb0:	681b      	ldr	r3, [r3, #0]
 8002cb2:	685a      	ldr	r2, [r3, #4]
 8002cb4:	687b      	ldr	r3, [r7, #4]
 8002cb6:	681b      	ldr	r3, [r3, #0]
 8002cb8:	f022 0202 	bic.w	r2, r2, #2
 8002cbc:	605a      	str	r2, [r3, #4]
    clean_data_buffer(PAGE_SIZE, data_buffer_tx[buffer_tracker ^ 0x01]);
 8002cbe:	4b0c      	ldr	r3, [pc, #48]	; (8002cf0 <HAL_SPI_TxCpltCallback+0x80>)
 8002cc0:	781b      	ldrb	r3, [r3, #0]
 8002cc2:	f083 0301 	eor.w	r3, r3, #1
 8002cc6:	b2db      	uxtb	r3, r3
 8002cc8:	021b      	lsls	r3, r3, #8
 8002cca:	4a0a      	ldr	r2, [pc, #40]	; (8002cf4 <HAL_SPI_TxCpltCallback+0x84>)
 8002ccc:	4413      	add	r3, r2
 8002cce:	4619      	mov	r1, r3
 8002cd0:	f44f 7080 	mov.w	r0, #256	; 0x100
 8002cd4:	f7fe fc5e 	bl	8001594 <clean_data_buffer>
}
 8002cd8:	bf00      	nop
 8002cda:	3708      	adds	r7, #8
 8002cdc:	46bd      	mov	sp, r7
 8002cde:	bd80      	pop	{r7, pc}
 8002ce0:	40013000 	.word	0x40013000
 8002ce4:	200005ec 	.word	0x200005ec
 8002ce8:	40003800 	.word	0x40003800
 8002cec:	200005fc 	.word	0x200005fc
 8002cf0:	200005b8 	.word	0x200005b8
 8002cf4:	200003b8 	.word	0x200003b8

08002cf8 <HAL_UART_RxCpltCallback>:

void HAL_UART_RxCpltCallback(UART_HandleTypeDef *huart) {
 8002cf8:	b580      	push	{r7, lr}
 8002cfa:	b082      	sub	sp, #8
 8002cfc:	af00      	add	r7, sp, #0
 8002cfe:	6078      	str	r0, [r7, #4]
	uart2_rec_flag = FLAG_SET;
 8002d00:	4b05      	ldr	r3, [pc, #20]	; (8002d18 <HAL_UART_RxCpltCallback+0x20>)
 8002d02:	2201      	movs	r2, #1
 8002d04:	701a      	strb	r2, [r3, #0]
	HAL_UART_Receive_IT(&huart2, UARTRxData, 2);
 8002d06:	2202      	movs	r2, #2
 8002d08:	4904      	ldr	r1, [pc, #16]	; (8002d1c <HAL_UART_RxCpltCallback+0x24>)
 8002d0a:	4805      	ldr	r0, [pc, #20]	; (8002d20 <HAL_UART_RxCpltCallback+0x28>)
 8002d0c:	f005 fb3b 	bl	8008386 <HAL_UART_Receive_IT>
}
 8002d10:	bf00      	nop
 8002d12:	3708      	adds	r7, #8
 8002d14:	46bd      	mov	sp, r7
 8002d16:	bd80      	pop	{r7, pc}
 8002d18:	2000038a 	.word	0x2000038a
 8002d1c:	20000388 	.word	0x20000388
 8002d20:	20000338 	.word	0x20000338

08002d24 <SystemInit>:
  *         configuration.
  * @param  None
  * @retval None
  */
void SystemInit(void)
{
 8002d24:	b480      	push	{r7}
 8002d26:	af00      	add	r7, sp, #0
  /* FPU settings ------------------------------------------------------------*/
  #if (__FPU_PRESENT == 1) && (__FPU_USED == 1)
    SCB->CPACR |= ((3UL << 10*2)|(3UL << 11*2));  /* set CP10 and CP11 Full Access */
 8002d28:	4b06      	ldr	r3, [pc, #24]	; (8002d44 <SystemInit+0x20>)
 8002d2a:	f8d3 3088 	ldr.w	r3, [r3, #136]	; 0x88
 8002d2e:	4a05      	ldr	r2, [pc, #20]	; (8002d44 <SystemInit+0x20>)
 8002d30:	f443 0370 	orr.w	r3, r3, #15728640	; 0xf00000
 8002d34:	f8c2 3088 	str.w	r3, [r2, #136]	; 0x88

  /* Configure the Vector Table location -------------------------------------*/
#if defined(USER_VECT_TAB_ADDRESS)
  SCB->VTOR = VECT_TAB_BASE_ADDRESS | VECT_TAB_OFFSET; /* Vector Table Relocation in Internal SRAM */
#endif /* USER_VECT_TAB_ADDRESS */
}
 8002d38:	bf00      	nop
 8002d3a:	46bd      	mov	sp, r7
 8002d3c:	f85d 7b04 	ldr.w	r7, [sp], #4
 8002d40:	4770      	bx	lr
 8002d42:	bf00      	nop
 8002d44:	e000ed00 	.word	0xe000ed00

08002d48 <uart_transmit_page>:

#include "uart_transmit.h"
/**
 * Transmit one single page over the UART interface
 */
void uart_transmit_page(UART_HandleTypeDef *huart, uint8_t page[PAGE_SIZE]) {
 8002d48:	b580      	push	{r7, lr}
 8002d4a:	b082      	sub	sp, #8
 8002d4c:	af00      	add	r7, sp, #0
 8002d4e:	6078      	str	r0, [r7, #4]
 8002d50:	6039      	str	r1, [r7, #0]
	HAL_UART_Transmit(huart, page, PAGE_SIZE, HAL_MAX_DELAY);
 8002d52:	f04f 33ff 	mov.w	r3, #4294967295	; 0xffffffff
 8002d56:	f44f 7280 	mov.w	r2, #256	; 0x100
 8002d5a:	6839      	ldr	r1, [r7, #0]
 8002d5c:	6878      	ldr	r0, [r7, #4]
 8002d5e:	f005 fa87 	bl	8008270 <HAL_UART_Transmit>
}
 8002d62:	bf00      	nop
 8002d64:	3708      	adds	r7, #8
 8002d66:	46bd      	mov	sp, r7
 8002d68:	bd80      	pop	{r7, pc}

08002d6a <send_uart_string>:

void send_uart_string(UART_HandleTypeDef *huart, const char *str) {
 8002d6a:	b580      	push	{r7, lr}
 8002d6c:	b082      	sub	sp, #8
 8002d6e:	af00      	add	r7, sp, #0
 8002d70:	6078      	str	r0, [r7, #4]
 8002d72:	6039      	str	r1, [r7, #0]
    HAL_UART_Transmit(huart, (uint8_t *)str, strlen(str), HAL_MAX_DELAY);
 8002d74:	6838      	ldr	r0, [r7, #0]
 8002d76:	f7fd fa39 	bl	80001ec <strlen>
 8002d7a:	4603      	mov	r3, r0
 8002d7c:	b29a      	uxth	r2, r3
 8002d7e:	f04f 33ff 	mov.w	r3, #4294967295	; 0xffffffff
 8002d82:	6839      	ldr	r1, [r7, #0]
 8002d84:	6878      	ldr	r0, [r7, #4]
 8002d86:	f005 fa73 	bl	8008270 <HAL_UART_Transmit>
}
 8002d8a:	bf00      	nop
 8002d8c:	3708      	adds	r7, #8
 8002d8e:	46bd      	mov	sp, r7
 8002d90:	bd80      	pop	{r7, pc}

08002d92 <send_uart_hex>:
	// Call the send_uart_string function to send the value to UART
	send_uart_string(huart, value_str);
	send_uart_string(huart, "\r\n");
}

void send_uart_hex(UART_HandleTypeDef *huart, uint8_t value) {
 8002d92:	b580      	push	{r7, lr}
 8002d94:	b084      	sub	sp, #16
 8002d96:	af00      	add	r7, sp, #0
 8002d98:	6078      	str	r0, [r7, #4]
 8002d9a:	460b      	mov	r3, r1
 8002d9c:	70fb      	strb	r3, [r7, #3]
	uint8_t buffer[1];
	buffer[0] = value;
 8002d9e:	78fb      	ldrb	r3, [r7, #3]
 8002da0:	733b      	strb	r3, [r7, #12]
	HAL_UART_Transmit(huart, buffer, 1, HAL_MAX_DELAY);
 8002da2:	f107 010c 	add.w	r1, r7, #12
 8002da6:	f04f 33ff 	mov.w	r3, #4294967295	; 0xffffffff
 8002daa:	2201      	movs	r2, #1
 8002dac:	6878      	ldr	r0, [r7, #4]
 8002dae:	f005 fa5f 	bl	8008270 <HAL_UART_Transmit>
}
 8002db2:	bf00      	nop
 8002db4:	3710      	adds	r7, #16
 8002db6:	46bd      	mov	sp, r7
 8002db8:	bd80      	pop	{r7, pc}
	...

08002dbc <Reset_Handler>:

    .section  .text.Reset_Handler
  .weak  Reset_Handler
  .type  Reset_Handler, %function
Reset_Handler:  
  ldr   sp, =_estack     /* set stack pointer */
 8002dbc:	f8df d034 	ldr.w	sp, [pc, #52]	; 8002df4 <LoopFillZerobss+0xe>
  
/* Call the clock system initialization function.*/
  bl  SystemInit  
 8002dc0:	f7ff ffb0 	bl	8002d24 <SystemInit>

/* Copy the data segment initializers from flash to SRAM */  
  ldr r0, =_sdata
 8002dc4:	480c      	ldr	r0, [pc, #48]	; (8002df8 <LoopFillZerobss+0x12>)
  ldr r1, =_edata
 8002dc6:	490d      	ldr	r1, [pc, #52]	; (8002dfc <LoopFillZerobss+0x16>)
  ldr r2, =_sidata
 8002dc8:	4a0d      	ldr	r2, [pc, #52]	; (8002e00 <LoopFillZerobss+0x1a>)
  movs r3, #0
 8002dca:	2300      	movs	r3, #0
  b LoopCopyDataInit
 8002dcc:	e002      	b.n	8002dd4 <LoopCopyDataInit>

08002dce <CopyDataInit>:

CopyDataInit:
  ldr r4, [r2, r3]
 8002dce:	58d4      	ldr	r4, [r2, r3]
  str r4, [r0, r3]
 8002dd0:	50c4      	str	r4, [r0, r3]
  adds r3, r3, #4
 8002dd2:	3304      	adds	r3, #4

08002dd4 <LoopCopyDataInit>:

LoopCopyDataInit:
  adds r4, r0, r3
 8002dd4:	18c4      	adds	r4, r0, r3
  cmp r4, r1
 8002dd6:	428c      	cmp	r4, r1
  bcc CopyDataInit
 8002dd8:	d3f9      	bcc.n	8002dce <CopyDataInit>
  
/* Zero fill the bss segment. */
  ldr r2, =_sbss
 8002dda:	4a0a      	ldr	r2, [pc, #40]	; (8002e04 <LoopFillZerobss+0x1e>)
  ldr r4, =_ebss
 8002ddc:	4c0a      	ldr	r4, [pc, #40]	; (8002e08 <LoopFillZerobss+0x22>)
  movs r3, #0
 8002dde:	2300      	movs	r3, #0
  b LoopFillZerobss
 8002de0:	e001      	b.n	8002de6 <LoopFillZerobss>

08002de2 <FillZerobss>:

FillZerobss:
  str  r3, [r2]
 8002de2:	6013      	str	r3, [r2, #0]
  adds r2, r2, #4
 8002de4:	3204      	adds	r2, #4

08002de6 <LoopFillZerobss>:

LoopFillZerobss:
  cmp r2, r4
 8002de6:	42a2      	cmp	r2, r4
  bcc FillZerobss
 8002de8:	d3fb      	bcc.n	8002de2 <FillZerobss>

/* Call static constructors */
    bl __libc_init_array
 8002dea:	f006 fa4f 	bl	800928c <__libc_init_array>
/* Call the application's entry point.*/
  bl  main
 8002dee:	f7fd ff99 	bl	8000d24 <main>
  bx  lr    
 8002df2:	4770      	bx	lr
  ldr   sp, =_estack     /* set stack pointer */
 8002df4:	20030000 	.word	0x20030000
  ldr r0, =_sdata
 8002df8:	20000000 	.word	0x20000000
  ldr r1, =_edata
 8002dfc:	20000028 	.word	0x20000028
  ldr r2, =_sidata
 8002e00:	080093b4 	.word	0x080093b4
  ldr r2, =_sbss
 8002e04:	20000028 	.word	0x20000028
  ldr r4, =_ebss
 8002e08:	20000630 	.word	0x20000630

08002e0c <ADC_IRQHandler>:
 * @retval None       
*/
    .section  .text.Default_Handler,"ax",%progbits
Default_Handler:
Infinite_Loop:
  b  Infinite_Loop
 8002e0c:	e7fe      	b.n	8002e0c <ADC_IRQHandler>
	...

08002e10 <HAL_Init>:
  *         need to ensure that the SysTick time base is always set to 1 millisecond
  *         to have correct HAL operation.
  * @retval HAL status
  */
HAL_StatusTypeDef HAL_Init(void)
{
 8002e10:	b580      	push	{r7, lr}
 8002e12:	af00      	add	r7, sp, #0
  /* Configure Flash prefetch, Instruction cache, Data cache */ 
#if (INSTRUCTION_CACHE_ENABLE != 0U)
  __HAL_FLASH_INSTRUCTION_CACHE_ENABLE();
 8002e14:	4b0e      	ldr	r3, [pc, #56]	; (8002e50 <HAL_Init+0x40>)
 8002e16:	681b      	ldr	r3, [r3, #0]
 8002e18:	4a0d      	ldr	r2, [pc, #52]	; (8002e50 <HAL_Init+0x40>)
 8002e1a:	f443 7300 	orr.w	r3, r3, #512	; 0x200
 8002e1e:	6013      	str	r3, [r2, #0]
#endif /* INSTRUCTION_CACHE_ENABLE */

#if (DATA_CACHE_ENABLE != 0U)
  __HAL_FLASH_DATA_CACHE_ENABLE();
 8002e20:	4b0b      	ldr	r3, [pc, #44]	; (8002e50 <HAL_Init+0x40>)
 8002e22:	681b      	ldr	r3, [r3, #0]
 8002e24:	4a0a      	ldr	r2, [pc, #40]	; (8002e50 <HAL_Init+0x40>)
 8002e26:	f443 6380 	orr.w	r3, r3, #1024	; 0x400
 8002e2a:	6013      	str	r3, [r2, #0]
#endif /* DATA_CACHE_ENABLE */

#if (PREFETCH_ENABLE != 0U)
  __HAL_FLASH_PREFETCH_BUFFER_ENABLE();
 8002e2c:	4b08      	ldr	r3, [pc, #32]	; (8002e50 <HAL_Init+0x40>)
 8002e2e:	681b      	ldr	r3, [r3, #0]
 8002e30:	4a07      	ldr	r2, [pc, #28]	; (8002e50 <HAL_Init+0x40>)
 8002e32:	f443 7380 	orr.w	r3, r3, #256	; 0x100
 8002e36:	6013      	str	r3, [r2, #0]
#endif /* PREFETCH_ENABLE */

  /* Set Interrupt Group Priority */
  HAL_NVIC_SetPriorityGrouping(NVIC_PRIORITYGROUP_4);
 8002e38:	2003      	movs	r0, #3
 8002e3a:	f000 ffb7 	bl	8003dac <HAL_NVIC_SetPriorityGrouping>

  /* Use systick as time base source and configure 1ms tick (default clock after Reset is HSI) */
  HAL_InitTick(TICK_INT_PRIORITY);
 8002e3e:	200f      	movs	r0, #15
 8002e40:	f000 f808 	bl	8002e54 <HAL_InitTick>

  /* Init the low level hardware */
  HAL_MspInit();
 8002e44:	f7ff fbc8 	bl	80025d8 <HAL_MspInit>

  /* Return function status */
  return HAL_OK;
 8002e48:	2300      	movs	r3, #0
}
 8002e4a:	4618      	mov	r0, r3
 8002e4c:	bd80      	pop	{r7, pc}
 8002e4e:	bf00      	nop
 8002e50:	40023c00 	.word	0x40023c00

08002e54 <HAL_InitTick>:
  *       implementation  in user file.
  * @param TickPriority Tick interrupt priority.
  * @retval HAL status
  */
__weak HAL_StatusTypeDef HAL_InitTick(uint32_t TickPriority)
{
 8002e54:	b580      	push	{r7, lr}
 8002e56:	b082      	sub	sp, #8
 8002e58:	af00      	add	r7, sp, #0
 8002e5a:	6078      	str	r0, [r7, #4]
  /* Configure the SysTick to have interrupt in 1ms time basis*/
  if (HAL_SYSTICK_Config(SystemCoreClock / (1000U / uwTickFreq)) > 0U)
 8002e5c:	4b12      	ldr	r3, [pc, #72]	; (8002ea8 <HAL_InitTick+0x54>)
 8002e5e:	681a      	ldr	r2, [r3, #0]
 8002e60:	4b12      	ldr	r3, [pc, #72]	; (8002eac <HAL_InitTick+0x58>)
 8002e62:	781b      	ldrb	r3, [r3, #0]
 8002e64:	4619      	mov	r1, r3
 8002e66:	f44f 737a 	mov.w	r3, #1000	; 0x3e8
 8002e6a:	fbb3 f3f1 	udiv	r3, r3, r1
 8002e6e:	fbb2 f3f3 	udiv	r3, r2, r3
 8002e72:	4618      	mov	r0, r3
 8002e74:	f000 ffcf 	bl	8003e16 <HAL_SYSTICK_Config>
 8002e78:	4603      	mov	r3, r0
 8002e7a:	2b00      	cmp	r3, #0
 8002e7c:	d001      	beq.n	8002e82 <HAL_InitTick+0x2e>
  {
    return HAL_ERROR;
 8002e7e:	2301      	movs	r3, #1
 8002e80:	e00e      	b.n	8002ea0 <HAL_InitTick+0x4c>
  }

  /* Configure the SysTick IRQ priority */
  if (TickPriority < (1UL << __NVIC_PRIO_BITS))
 8002e82:	687b      	ldr	r3, [r7, #4]
 8002e84:	2b0f      	cmp	r3, #15
 8002e86:	d80a      	bhi.n	8002e9e <HAL_InitTick+0x4a>
  {
    HAL_NVIC_SetPriority(SysTick_IRQn, TickPriority, 0U);
 8002e88:	2200      	movs	r2, #0
 8002e8a:	6879      	ldr	r1, [r7, #4]
 8002e8c:	f04f 30ff 	mov.w	r0, #4294967295	; 0xffffffff
 8002e90:	f000 ff97 	bl	8003dc2 <HAL_NVIC_SetPriority>
    uwTickPrio = TickPriority;
 8002e94:	4a06      	ldr	r2, [pc, #24]	; (8002eb0 <HAL_InitTick+0x5c>)
 8002e96:	687b      	ldr	r3, [r7, #4]
 8002e98:	6013      	str	r3, [r2, #0]
  {
    return HAL_ERROR;
  }

  /* Return function status */
  return HAL_OK;
 8002e9a:	2300      	movs	r3, #0
 8002e9c:	e000      	b.n	8002ea0 <HAL_InitTick+0x4c>
    return HAL_ERROR;
 8002e9e:	2301      	movs	r3, #1
}
 8002ea0:	4618      	mov	r0, r3
 8002ea2:	3708      	adds	r7, #8
 8002ea4:	46bd      	mov	sp, r7
 8002ea6:	bd80      	pop	{r7, pc}
 8002ea8:	2000001c 	.word	0x2000001c
 8002eac:	20000024 	.word	0x20000024
 8002eb0:	20000020 	.word	0x20000020

08002eb4 <HAL_IncTick>:
 * @note This function is declared as __weak to be overwritten in case of other 
  *      implementations in user file.
  * @retval None
  */
__weak void HAL_IncTick(void)
{
 8002eb4:	b480      	push	{r7}
 8002eb6:	af00      	add	r7, sp, #0
  uwTick += uwTickFreq;
 8002eb8:	4b06      	ldr	r3, [pc, #24]	; (8002ed4 <HAL_IncTick+0x20>)
 8002eba:	781b      	ldrb	r3, [r3, #0]
 8002ebc:	461a      	mov	r2, r3
 8002ebe:	4b06      	ldr	r3, [pc, #24]	; (8002ed8 <HAL_IncTick+0x24>)
 8002ec0:	681b      	ldr	r3, [r3, #0]
 8002ec2:	4413      	add	r3, r2
 8002ec4:	4a04      	ldr	r2, [pc, #16]	; (8002ed8 <HAL_IncTick+0x24>)
 8002ec6:	6013      	str	r3, [r2, #0]
}
 8002ec8:	bf00      	nop
 8002eca:	46bd      	mov	sp, r7
 8002ecc:	f85d 7b04 	ldr.w	r7, [sp], #4
 8002ed0:	4770      	bx	lr
 8002ed2:	bf00      	nop
 8002ed4:	20000024 	.word	0x20000024
 8002ed8:	2000062c 	.word	0x2000062c

08002edc <HAL_GetTick>:
  * @note This function is declared as __weak to be overwritten in case of other 
  *       implementations in user file.
  * @retval tick value
  */
__weak uint32_t HAL_GetTick(void)
{
 8002edc:	b480      	push	{r7}
 8002ede:	af00      	add	r7, sp, #0
  return uwTick;
 8002ee0:	4b03      	ldr	r3, [pc, #12]	; (8002ef0 <HAL_GetTick+0x14>)
 8002ee2:	681b      	ldr	r3, [r3, #0]
}
 8002ee4:	4618      	mov	r0, r3
 8002ee6:	46bd      	mov	sp, r7
 8002ee8:	f85d 7b04 	ldr.w	r7, [sp], #4
 8002eec:	4770      	bx	lr
 8002eee:	bf00      	nop
 8002ef0:	2000062c 	.word	0x2000062c

08002ef4 <HAL_Delay>:
  *       implementations in user file.
  * @param Delay specifies the delay time length, in milliseconds.
  * @retval None
  */
__weak void HAL_Delay(uint32_t Delay)
{
 8002ef4:	b580      	push	{r7, lr}
 8002ef6:	b084      	sub	sp, #16
 8002ef8:	af00      	add	r7, sp, #0
 8002efa:	6078      	str	r0, [r7, #4]
  uint32_t tickstart = HAL_GetTick();
 8002efc:	f7ff ffee 	bl	8002edc <HAL_GetTick>
 8002f00:	60b8      	str	r0, [r7, #8]
  uint32_t wait = Delay;
 8002f02:	687b      	ldr	r3, [r7, #4]
 8002f04:	60fb      	str	r3, [r7, #12]

  /* Add a freq to guarantee minimum wait */
  if (wait < HAL_MAX_DELAY)
 8002f06:	68fb      	ldr	r3, [r7, #12]
 8002f08:	f1b3 3fff 	cmp.w	r3, #4294967295	; 0xffffffff
 8002f0c:	d005      	beq.n	8002f1a <HAL_Delay+0x26>
  {
    wait += (uint32_t)(uwTickFreq);
 8002f0e:	4b0a      	ldr	r3, [pc, #40]	; (8002f38 <HAL_Delay+0x44>)
 8002f10:	781b      	ldrb	r3, [r3, #0]
 8002f12:	461a      	mov	r2, r3
 8002f14:	68fb      	ldr	r3, [r7, #12]
 8002f16:	4413      	add	r3, r2
 8002f18:	60fb      	str	r3, [r7, #12]
  }

  while((HAL_GetTick() - tickstart) < wait)
 8002f1a:	bf00      	nop
 8002f1c:	f7ff ffde 	bl	8002edc <HAL_GetTick>
 8002f20:	4602      	mov	r2, r0
 8002f22:	68bb      	ldr	r3, [r7, #8]
 8002f24:	1ad3      	subs	r3, r2, r3
 8002f26:	68fa      	ldr	r2, [r7, #12]
 8002f28:	429a      	cmp	r2, r3
 8002f2a:	d8f7      	bhi.n	8002f1c <HAL_Delay+0x28>
  {
  }
}
 8002f2c:	bf00      	nop
 8002f2e:	bf00      	nop
 8002f30:	3710      	adds	r7, #16
 8002f32:	46bd      	mov	sp, r7
 8002f34:	bd80      	pop	{r7, pc}
 8002f36:	bf00      	nop
 8002f38:	20000024 	.word	0x20000024

08002f3c <HAL_CAN_Init>:
  * @param  hcan pointer to a CAN_HandleTypeDef structure that contains
  *         the configuration information for the specified CAN.
  * @retval HAL status
  */
HAL_StatusTypeDef HAL_CAN_Init(CAN_HandleTypeDef *hcan)
{
 8002f3c:	b580      	push	{r7, lr}
 8002f3e:	b084      	sub	sp, #16
 8002f40:	af00      	add	r7, sp, #0
 8002f42:	6078      	str	r0, [r7, #4]
  uint32_t tickstart;

  /* Check CAN handle */
  if (hcan == NULL)
 8002f44:	687b      	ldr	r3, [r7, #4]
 8002f46:	2b00      	cmp	r3, #0
 8002f48:	d101      	bne.n	8002f4e <HAL_CAN_Init+0x12>
  {
    return HAL_ERROR;
 8002f4a:	2301      	movs	r3, #1
 8002f4c:	e0ed      	b.n	800312a <HAL_CAN_Init+0x1ee>
    /* Init the low level hardware: CLOCK, NVIC */
    hcan->MspInitCallback(hcan);
  }

#else
  if (hcan->State == HAL_CAN_STATE_RESET)
 8002f4e:	687b      	ldr	r3, [r7, #4]
 8002f50:	f893 3020 	ldrb.w	r3, [r3, #32]
 8002f54:	b2db      	uxtb	r3, r3
 8002f56:	2b00      	cmp	r3, #0
 8002f58:	d102      	bne.n	8002f60 <HAL_CAN_Init+0x24>
  {
    /* Init the low level hardware: CLOCK, NVIC */
    HAL_CAN_MspInit(hcan);
 8002f5a:	6878      	ldr	r0, [r7, #4]
 8002f5c:	f7ff fb64 	bl	8002628 <HAL_CAN_MspInit>
  }
#endif /* USE_HAL_CAN_REGISTER_CALLBACKS */

  /* Request initialisation */
  SET_BIT(hcan->Instance->MCR, CAN_MCR_INRQ);
 8002f60:	687b      	ldr	r3, [r7, #4]
 8002f62:	681b      	ldr	r3, [r3, #0]
 8002f64:	681a      	ldr	r2, [r3, #0]
 8002f66:	687b      	ldr	r3, [r7, #4]
 8002f68:	681b      	ldr	r3, [r3, #0]
 8002f6a:	f042 0201 	orr.w	r2, r2, #1
 8002f6e:	601a      	str	r2, [r3, #0]

  /* Get tick */
  tickstart = HAL_GetTick();
 8002f70:	f7ff ffb4 	bl	8002edc <HAL_GetTick>
 8002f74:	60f8      	str	r0, [r7, #12]

  /* Wait initialisation acknowledge */
  while ((hcan->Instance->MSR & CAN_MSR_INAK) == 0U)
 8002f76:	e012      	b.n	8002f9e <HAL_CAN_Init+0x62>
  {
    if ((HAL_GetTick() - tickstart) > CAN_TIMEOUT_VALUE)
 8002f78:	f7ff ffb0 	bl	8002edc <HAL_GetTick>
 8002f7c:	4602      	mov	r2, r0
 8002f7e:	68fb      	ldr	r3, [r7, #12]
 8002f80:	1ad3      	subs	r3, r2, r3
 8002f82:	2b0a      	cmp	r3, #10
 8002f84:	d90b      	bls.n	8002f9e <HAL_CAN_Init+0x62>
    {
      /* Update error code */
      hcan->ErrorCode |= HAL_CAN_ERROR_TIMEOUT;
 8002f86:	687b      	ldr	r3, [r7, #4]
 8002f88:	6a5b      	ldr	r3, [r3, #36]	; 0x24
 8002f8a:	f443 3200 	orr.w	r2, r3, #131072	; 0x20000
 8002f8e:	687b      	ldr	r3, [r7, #4]
 8002f90:	625a      	str	r2, [r3, #36]	; 0x24

      /* Change CAN state */
      hcan->State = HAL_CAN_STATE_ERROR;
 8002f92:	687b      	ldr	r3, [r7, #4]
 8002f94:	2205      	movs	r2, #5
 8002f96:	f883 2020 	strb.w	r2, [r3, #32]

      return HAL_ERROR;
 8002f9a:	2301      	movs	r3, #1
 8002f9c:	e0c5      	b.n	800312a <HAL_CAN_Init+0x1ee>
  while ((hcan->Instance->MSR & CAN_MSR_INAK) == 0U)
 8002f9e:	687b      	ldr	r3, [r7, #4]
 8002fa0:	681b      	ldr	r3, [r3, #0]
 8002fa2:	685b      	ldr	r3, [r3, #4]
 8002fa4:	f003 0301 	and.w	r3, r3, #1
 8002fa8:	2b00      	cmp	r3, #0
 8002faa:	d0e5      	beq.n	8002f78 <HAL_CAN_Init+0x3c>
    }
  }

  /* Exit from sleep mode */
  CLEAR_BIT(hcan->Instance->MCR, CAN_MCR_SLEEP);
 8002fac:	687b      	ldr	r3, [r7, #4]
 8002fae:	681b      	ldr	r3, [r3, #0]
 8002fb0:	681a      	ldr	r2, [r3, #0]
 8002fb2:	687b      	ldr	r3, [r7, #4]
 8002fb4:	681b      	ldr	r3, [r3, #0]
 8002fb6:	f022 0202 	bic.w	r2, r2, #2
 8002fba:	601a      	str	r2, [r3, #0]

  /* Get tick */
  tickstart = HAL_GetTick();
 8002fbc:	f7ff ff8e 	bl	8002edc <HAL_GetTick>
 8002fc0:	60f8      	str	r0, [r7, #12]

  /* Check Sleep mode leave acknowledge */
  while ((hcan->Instance->MSR & CAN_MSR_SLAK) != 0U)
 8002fc2:	e012      	b.n	8002fea <HAL_CAN_Init+0xae>
  {
    if ((HAL_GetTick() - tickstart) > CAN_TIMEOUT_VALUE)
 8002fc4:	f7ff ff8a 	bl	8002edc <HAL_GetTick>
 8002fc8:	4602      	mov	r2, r0
 8002fca:	68fb      	ldr	r3, [r7, #12]
 8002fcc:	1ad3      	subs	r3, r2, r3
 8002fce:	2b0a      	cmp	r3, #10
 8002fd0:	d90b      	bls.n	8002fea <HAL_CAN_Init+0xae>
    {
      /* Update error code */
      hcan->ErrorCode |= HAL_CAN_ERROR_TIMEOUT;
 8002fd2:	687b      	ldr	r3, [r7, #4]
 8002fd4:	6a5b      	ldr	r3, [r3, #36]	; 0x24
 8002fd6:	f443 3200 	orr.w	r2, r3, #131072	; 0x20000
 8002fda:	687b      	ldr	r3, [r7, #4]
 8002fdc:	625a      	str	r2, [r3, #36]	; 0x24

      /* Change CAN state */
      hcan->State = HAL_CAN_STATE_ERROR;
 8002fde:	687b      	ldr	r3, [r7, #4]
 8002fe0:	2205      	movs	r2, #5
 8002fe2:	f883 2020 	strb.w	r2, [r3, #32]

      return HAL_ERROR;
 8002fe6:	2301      	movs	r3, #1
 8002fe8:	e09f      	b.n	800312a <HAL_CAN_Init+0x1ee>
  while ((hcan->Instance->MSR & CAN_MSR_SLAK) != 0U)
 8002fea:	687b      	ldr	r3, [r7, #4]
 8002fec:	681b      	ldr	r3, [r3, #0]
 8002fee:	685b      	ldr	r3, [r3, #4]
 8002ff0:	f003 0302 	and.w	r3, r3, #2
 8002ff4:	2b00      	cmp	r3, #0
 8002ff6:	d1e5      	bne.n	8002fc4 <HAL_CAN_Init+0x88>
    }
  }

  /* Set the time triggered communication mode */
  if (hcan->Init.TimeTriggeredMode == ENABLE)
 8002ff8:	687b      	ldr	r3, [r7, #4]
 8002ffa:	7e1b      	ldrb	r3, [r3, #24]
 8002ffc:	2b01      	cmp	r3, #1
 8002ffe:	d108      	bne.n	8003012 <HAL_CAN_Init+0xd6>
  {
    SET_BIT(hcan->Instance->MCR, CAN_MCR_TTCM);
 8003000:	687b      	ldr	r3, [r7, #4]
 8003002:	681b      	ldr	r3, [r3, #0]
 8003004:	681a      	ldr	r2, [r3, #0]
 8003006:	687b      	ldr	r3, [r7, #4]
 8003008:	681b      	ldr	r3, [r3, #0]
 800300a:	f042 0280 	orr.w	r2, r2, #128	; 0x80
 800300e:	601a      	str	r2, [r3, #0]
 8003010:	e007      	b.n	8003022 <HAL_CAN_Init+0xe6>
  }
  else
  {
    CLEAR_BIT(hcan->Instance->MCR, CAN_MCR_TTCM);
 8003012:	687b      	ldr	r3, [r7, #4]
 8003014:	681b      	ldr	r3, [r3, #0]
 8003016:	681a      	ldr	r2, [r3, #0]
 8003018:	687b      	ldr	r3, [r7, #4]
 800301a:	681b      	ldr	r3, [r3, #0]
 800301c:	f022 0280 	bic.w	r2, r2, #128	; 0x80
 8003020:	601a      	str	r2, [r3, #0]
  }

  /* Set the automatic bus-off management */
  if (hcan->Init.AutoBusOff == ENABLE)
 8003022:	687b      	ldr	r3, [r7, #4]
 8003024:	7e5b      	ldrb	r3, [r3, #25]
 8003026:	2b01      	cmp	r3, #1
 8003028:	d108      	bne.n	800303c <HAL_CAN_Init+0x100>
  {
    SET_BIT(hcan->Instance->MCR, CAN_MCR_ABOM);
 800302a:	687b      	ldr	r3, [r7, #4]
 800302c:	681b      	ldr	r3, [r3, #0]
 800302e:	681a      	ldr	r2, [r3, #0]
 8003030:	687b      	ldr	r3, [r7, #4]
 8003032:	681b      	ldr	r3, [r3, #0]
 8003034:	f042 0240 	orr.w	r2, r2, #64	; 0x40
 8003038:	601a      	str	r2, [r3, #0]
 800303a:	e007      	b.n	800304c <HAL_CAN_Init+0x110>
  }
  else
  {
    CLEAR_BIT(hcan->Instance->MCR, CAN_MCR_ABOM);
 800303c:	687b      	ldr	r3, [r7, #4]
 800303e:	681b      	ldr	r3, [r3, #0]
 8003040:	681a      	ldr	r2, [r3, #0]
 8003042:	687b      	ldr	r3, [r7, #4]
 8003044:	681b      	ldr	r3, [r3, #0]
 8003046:	f022 0240 	bic.w	r2, r2, #64	; 0x40
 800304a:	601a      	str	r2, [r3, #0]
  }

  /* Set the automatic wake-up mode */
  if (hcan->Init.AutoWakeUp == ENABLE)
 800304c:	687b      	ldr	r3, [r7, #4]
 800304e:	7e9b      	ldrb	r3, [r3, #26]
 8003050:	2b01      	cmp	r3, #1
 8003052:	d108      	bne.n	8003066 <HAL_CAN_Init+0x12a>
  {
    SET_BIT(hcan->Instance->MCR, CAN_MCR_AWUM);
 8003054:	687b      	ldr	r3, [r7, #4]
 8003056:	681b      	ldr	r3, [r3, #0]
 8003058:	681a      	ldr	r2, [r3, #0]
 800305a:	687b      	ldr	r3, [r7, #4]
 800305c:	681b      	ldr	r3, [r3, #0]
 800305e:	f042 0220 	orr.w	r2, r2, #32
 8003062:	601a      	str	r2, [r3, #0]
 8003064:	e007      	b.n	8003076 <HAL_CAN_Init+0x13a>
  }
  else
  {
    CLEAR_BIT(hcan->Instance->MCR, CAN_MCR_AWUM);
 8003066:	687b      	ldr	r3, [r7, #4]
 8003068:	681b      	ldr	r3, [r3, #0]
 800306a:	681a      	ldr	r2, [r3, #0]
 800306c:	687b      	ldr	r3, [r7, #4]
 800306e:	681b      	ldr	r3, [r3, #0]
 8003070:	f022 0220 	bic.w	r2, r2, #32
 8003074:	601a      	str	r2, [r3, #0]
  }

  /* Set the automatic retransmission */
  if (hcan->Init.AutoRetransmission == ENABLE)
 8003076:	687b      	ldr	r3, [r7, #4]
 8003078:	7edb      	ldrb	r3, [r3, #27]
 800307a:	2b01      	cmp	r3, #1
 800307c:	d108      	bne.n	8003090 <HAL_CAN_Init+0x154>
  {
    CLEAR_BIT(hcan->Instance->MCR, CAN_MCR_NART);
 800307e:	687b      	ldr	r3, [r7, #4]
 8003080:	681b      	ldr	r3, [r3, #0]
 8003082:	681a      	ldr	r2, [r3, #0]
 8003084:	687b      	ldr	r3, [r7, #4]
 8003086:	681b      	ldr	r3, [r3, #0]
 8003088:	f022 0210 	bic.w	r2, r2, #16
 800308c:	601a      	str	r2, [r3, #0]
 800308e:	e007      	b.n	80030a0 <HAL_CAN_Init+0x164>
  }
  else
  {
    SET_BIT(hcan->Instance->MCR, CAN_MCR_NART);
 8003090:	687b      	ldr	r3, [r7, #4]
 8003092:	681b      	ldr	r3, [r3, #0]
 8003094:	681a      	ldr	r2, [r3, #0]
 8003096:	687b      	ldr	r3, [r7, #4]
 8003098:	681b      	ldr	r3, [r3, #0]
 800309a:	f042 0210 	orr.w	r2, r2, #16
 800309e:	601a      	str	r2, [r3, #0]
  }

  /* Set the receive FIFO locked mode */
  if (hcan->Init.ReceiveFifoLocked == ENABLE)
 80030a0:	687b      	ldr	r3, [r7, #4]
 80030a2:	7f1b      	ldrb	r3, [r3, #28]
 80030a4:	2b01      	cmp	r3, #1
 80030a6:	d108      	bne.n	80030ba <HAL_CAN_Init+0x17e>
  {
    SET_BIT(hcan->Instance->MCR, CAN_MCR_RFLM);
 80030a8:	687b      	ldr	r3, [r7, #4]
 80030aa:	681b      	ldr	r3, [r3, #0]
 80030ac:	681a      	ldr	r2, [r3, #0]
 80030ae:	687b      	ldr	r3, [r7, #4]
 80030b0:	681b      	ldr	r3, [r3, #0]
 80030b2:	f042 0208 	orr.w	r2, r2, #8
 80030b6:	601a      	str	r2, [r3, #0]
 80030b8:	e007      	b.n	80030ca <HAL_CAN_Init+0x18e>
  }
  else
  {
    CLEAR_BIT(hcan->Instance->MCR, CAN_MCR_RFLM);
 80030ba:	687b      	ldr	r3, [r7, #4]
 80030bc:	681b      	ldr	r3, [r3, #0]
 80030be:	681a      	ldr	r2, [r3, #0]
 80030c0:	687b      	ldr	r3, [r7, #4]
 80030c2:	681b      	ldr	r3, [r3, #0]
 80030c4:	f022 0208 	bic.w	r2, r2, #8
 80030c8:	601a      	str	r2, [r3, #0]
  }

  /* Set the transmit FIFO priority */
  if (hcan->Init.TransmitFifoPriority == ENABLE)
 80030ca:	687b      	ldr	r3, [r7, #4]
 80030cc:	7f5b      	ldrb	r3, [r3, #29]
 80030ce:	2b01      	cmp	r3, #1
 80030d0:	d108      	bne.n	80030e4 <HAL_CAN_Init+0x1a8>
  {
    SET_BIT(hcan->Instance->MCR, CAN_MCR_TXFP);
 80030d2:	687b      	ldr	r3, [r7, #4]
 80030d4:	681b      	ldr	r3, [r3, #0]
 80030d6:	681a      	ldr	r2, [r3, #0]
 80030d8:	687b      	ldr	r3, [r7, #4]
 80030da:	681b      	ldr	r3, [r3, #0]
 80030dc:	f042 0204 	orr.w	r2, r2, #4
 80030e0:	601a      	str	r2, [r3, #0]
 80030e2:	e007      	b.n	80030f4 <HAL_CAN_Init+0x1b8>
  }
  else
  {
    CLEAR_BIT(hcan->Instance->MCR, CAN_MCR_TXFP);
 80030e4:	687b      	ldr	r3, [r7, #4]
 80030e6:	681b      	ldr	r3, [r3, #0]
 80030e8:	681a      	ldr	r2, [r3, #0]
 80030ea:	687b      	ldr	r3, [r7, #4]
 80030ec:	681b      	ldr	r3, [r3, #0]
 80030ee:	f022 0204 	bic.w	r2, r2, #4
 80030f2:	601a      	str	r2, [r3, #0]
  }

  /* Set the bit timing register */
  WRITE_REG(hcan->Instance->BTR, (uint32_t)(hcan->Init.Mode           |
 80030f4:	687b      	ldr	r3, [r7, #4]
 80030f6:	689a      	ldr	r2, [r3, #8]
 80030f8:	687b      	ldr	r3, [r7, #4]
 80030fa:	68db      	ldr	r3, [r3, #12]
 80030fc:	431a      	orrs	r2, r3
 80030fe:	687b      	ldr	r3, [r7, #4]
 8003100:	691b      	ldr	r3, [r3, #16]
 8003102:	431a      	orrs	r2, r3
 8003104:	687b      	ldr	r3, [r7, #4]
 8003106:	695b      	ldr	r3, [r3, #20]
 8003108:	ea42 0103 	orr.w	r1, r2, r3
 800310c:	687b      	ldr	r3, [r7, #4]
 800310e:	685b      	ldr	r3, [r3, #4]
 8003110:	1e5a      	subs	r2, r3, #1
 8003112:	687b      	ldr	r3, [r7, #4]
 8003114:	681b      	ldr	r3, [r3, #0]
 8003116:	430a      	orrs	r2, r1
 8003118:	61da      	str	r2, [r3, #28]
                                            hcan->Init.TimeSeg1       |
                                            hcan->Init.TimeSeg2       |
                                            (hcan->Init.Prescaler - 1U)));

  /* Initialize the error code */
  hcan->ErrorCode = HAL_CAN_ERROR_NONE;
 800311a:	687b      	ldr	r3, [r7, #4]
 800311c:	2200      	movs	r2, #0
 800311e:	625a      	str	r2, [r3, #36]	; 0x24

  /* Initialize the CAN state */
  hcan->State = HAL_CAN_STATE_READY;
 8003120:	687b      	ldr	r3, [r7, #4]
 8003122:	2201      	movs	r2, #1
 8003124:	f883 2020 	strb.w	r2, [r3, #32]

  /* Return function status */
  return HAL_OK;
 8003128:	2300      	movs	r3, #0
}
 800312a:	4618      	mov	r0, r3
 800312c:	3710      	adds	r7, #16
 800312e:	46bd      	mov	sp, r7
 8003130:	bd80      	pop	{r7, pc}
	...

08003134 <HAL_CAN_ConfigFilter>:
  * @param  sFilterConfig pointer to a CAN_FilterTypeDef structure that
  *         contains the filter configuration information.
  * @retval None
  */
HAL_StatusTypeDef HAL_CAN_ConfigFilter(CAN_HandleTypeDef *hcan, const CAN_FilterTypeDef *sFilterConfig)
{
 8003134:	b480      	push	{r7}
 8003136:	b087      	sub	sp, #28
 8003138:	af00      	add	r7, sp, #0
 800313a:	6078      	str	r0, [r7, #4]
 800313c:	6039      	str	r1, [r7, #0]
  uint32_t filternbrbitpos;
  CAN_TypeDef *can_ip = hcan->Instance;
 800313e:	687b      	ldr	r3, [r7, #4]
 8003140:	681b      	ldr	r3, [r3, #0]
 8003142:	617b      	str	r3, [r7, #20]
  HAL_CAN_StateTypeDef state = hcan->State;
 8003144:	687b      	ldr	r3, [r7, #4]
 8003146:	f893 3020 	ldrb.w	r3, [r3, #32]
 800314a:	74fb      	strb	r3, [r7, #19]

  if ((state == HAL_CAN_STATE_READY) ||
 800314c:	7cfb      	ldrb	r3, [r7, #19]
 800314e:	2b01      	cmp	r3, #1
 8003150:	d003      	beq.n	800315a <HAL_CAN_ConfigFilter+0x26>
 8003152:	7cfb      	ldrb	r3, [r7, #19]
 8003154:	2b02      	cmp	r3, #2
 8003156:	f040 80be 	bne.w	80032d6 <HAL_CAN_ConfigFilter+0x1a2>
      assert_param(IS_CAN_FILTER_BANK_DUAL(sFilterConfig->SlaveStartFilterBank));
    }
#elif defined(CAN2)
    /* CAN1 and CAN2 are dual instances with 28 common filters banks */
    /* Select master instance to access the filter banks */
    can_ip = CAN1;
 800315a:	4b65      	ldr	r3, [pc, #404]	; (80032f0 <HAL_CAN_ConfigFilter+0x1bc>)
 800315c:	617b      	str	r3, [r7, #20]
    /* Check the parameters */
    assert_param(IS_CAN_FILTER_BANK_SINGLE(sFilterConfig->FilterBank));
#endif /* CAN3 */

    /* Initialisation mode for the filter */
    SET_BIT(can_ip->FMR, CAN_FMR_FINIT);
 800315e:	697b      	ldr	r3, [r7, #20]
 8003160:	f8d3 3200 	ldr.w	r3, [r3, #512]	; 0x200
 8003164:	f043 0201 	orr.w	r2, r3, #1
 8003168:	697b      	ldr	r3, [r7, #20]
 800316a:	f8c3 2200 	str.w	r2, [r3, #512]	; 0x200
      SET_BIT(can_ip->FMR, sFilterConfig->SlaveStartFilterBank << CAN_FMR_CAN2SB_Pos);
    }

#elif defined(CAN2)
    /* Select the start filter number of CAN2 slave instance */
    CLEAR_BIT(can_ip->FMR, CAN_FMR_CAN2SB);
 800316e:	697b      	ldr	r3, [r7, #20]
 8003170:	f8d3 3200 	ldr.w	r3, [r3, #512]	; 0x200
 8003174:	f423 527c 	bic.w	r2, r3, #16128	; 0x3f00
 8003178:	697b      	ldr	r3, [r7, #20]
 800317a:	f8c3 2200 	str.w	r2, [r3, #512]	; 0x200
    SET_BIT(can_ip->FMR, sFilterConfig->SlaveStartFilterBank << CAN_FMR_CAN2SB_Pos);
 800317e:	697b      	ldr	r3, [r7, #20]
 8003180:	f8d3 2200 	ldr.w	r2, [r3, #512]	; 0x200
 8003184:	683b      	ldr	r3, [r7, #0]
 8003186:	6a5b      	ldr	r3, [r3, #36]	; 0x24
 8003188:	021b      	lsls	r3, r3, #8
 800318a:	431a      	orrs	r2, r3
 800318c:	697b      	ldr	r3, [r7, #20]
 800318e:	f8c3 2200 	str.w	r2, [r3, #512]	; 0x200

#endif /* CAN3 */
    /* Convert filter number into bit position */
    filternbrbitpos = (uint32_t)1 << (sFilterConfig->FilterBank & 0x1FU);
 8003192:	683b      	ldr	r3, [r7, #0]
 8003194:	695b      	ldr	r3, [r3, #20]
 8003196:	f003 031f 	and.w	r3, r3, #31
 800319a:	2201      	movs	r2, #1
 800319c:	fa02 f303 	lsl.w	r3, r2, r3
 80031a0:	60fb      	str	r3, [r7, #12]

    /* Filter Deactivation */
    CLEAR_BIT(can_ip->FA1R, filternbrbitpos);
 80031a2:	697b      	ldr	r3, [r7, #20]
 80031a4:	f8d3 221c 	ldr.w	r2, [r3, #540]	; 0x21c
 80031a8:	68fb      	ldr	r3, [r7, #12]
 80031aa:	43db      	mvns	r3, r3
 80031ac:	401a      	ands	r2, r3
 80031ae:	697b      	ldr	r3, [r7, #20]
 80031b0:	f8c3 221c 	str.w	r2, [r3, #540]	; 0x21c

    /* Filter Scale */
    if (sFilterConfig->FilterScale == CAN_FILTERSCALE_16BIT)
 80031b4:	683b      	ldr	r3, [r7, #0]
 80031b6:	69db      	ldr	r3, [r3, #28]
 80031b8:	2b00      	cmp	r3, #0
 80031ba:	d123      	bne.n	8003204 <HAL_CAN_ConfigFilter+0xd0>
    {
      /* 16-bit scale for the filter */
      CLEAR_BIT(can_ip->FS1R, filternbrbitpos);
 80031bc:	697b      	ldr	r3, [r7, #20]
 80031be:	f8d3 220c 	ldr.w	r2, [r3, #524]	; 0x20c
 80031c2:	68fb      	ldr	r3, [r7, #12]
 80031c4:	43db      	mvns	r3, r3
 80031c6:	401a      	ands	r2, r3
 80031c8:	697b      	ldr	r3, [r7, #20]
 80031ca:	f8c3 220c 	str.w	r2, [r3, #524]	; 0x20c

      /* First 16-bit identifier and First 16-bit mask */
      /* Or First 16-bit identifier and Second 16-bit identifier */
      can_ip->sFilterRegister[sFilterConfig->FilterBank].FR1 =
        ((0x0000FFFFU & (uint32_t)sFilterConfig->FilterMaskIdLow) << 16U) |
 80031ce:	683b      	ldr	r3, [r7, #0]
 80031d0:	68db      	ldr	r3, [r3, #12]
 80031d2:	0419      	lsls	r1, r3, #16
        (0x0000FFFFU & (uint32_t)sFilterConfig->FilterIdLow);
 80031d4:	683b      	ldr	r3, [r7, #0]
 80031d6:	685b      	ldr	r3, [r3, #4]
 80031d8:	b29b      	uxth	r3, r3
      can_ip->sFilterRegister[sFilterConfig->FilterBank].FR1 =
 80031da:	683a      	ldr	r2, [r7, #0]
 80031dc:	6952      	ldr	r2, [r2, #20]
        ((0x0000FFFFU & (uint32_t)sFilterConfig->FilterMaskIdLow) << 16U) |
 80031de:	4319      	orrs	r1, r3
      can_ip->sFilterRegister[sFilterConfig->FilterBank].FR1 =
 80031e0:	697b      	ldr	r3, [r7, #20]
 80031e2:	3248      	adds	r2, #72	; 0x48
 80031e4:	f843 1032 	str.w	r1, [r3, r2, lsl #3]

      /* Second 16-bit identifier and Second 16-bit mask */
      /* Or Third 16-bit identifier and Fourth 16-bit identifier */
      can_ip->sFilterRegister[sFilterConfig->FilterBank].FR2 =
        ((0x0000FFFFU & (uint32_t)sFilterConfig->FilterMaskIdHigh) << 16U) |
 80031e8:	683b      	ldr	r3, [r7, #0]
 80031ea:	689b      	ldr	r3, [r3, #8]
 80031ec:	0419      	lsls	r1, r3, #16
        (0x0000FFFFU & (uint32_t)sFilterConfig->FilterIdHigh);
 80031ee:	683b      	ldr	r3, [r7, #0]
 80031f0:	681b      	ldr	r3, [r3, #0]
 80031f2:	b29a      	uxth	r2, r3
      can_ip->sFilterRegister[sFilterConfig->FilterBank].FR2 =
 80031f4:	683b      	ldr	r3, [r7, #0]
 80031f6:	695b      	ldr	r3, [r3, #20]
        ((0x0000FFFFU & (uint32_t)sFilterConfig->FilterMaskIdHigh) << 16U) |
 80031f8:	430a      	orrs	r2, r1
      can_ip->sFilterRegister[sFilterConfig->FilterBank].FR2 =
 80031fa:	6979      	ldr	r1, [r7, #20]
 80031fc:	3348      	adds	r3, #72	; 0x48
 80031fe:	00db      	lsls	r3, r3, #3
 8003200:	440b      	add	r3, r1
 8003202:	605a      	str	r2, [r3, #4]
    }

    if (sFilterConfig->FilterScale == CAN_FILTERSCALE_32BIT)
 8003204:	683b      	ldr	r3, [r7, #0]
 8003206:	69db      	ldr	r3, [r3, #28]
 8003208:	2b01      	cmp	r3, #1
 800320a:	d122      	bne.n	8003252 <HAL_CAN_ConfigFilter+0x11e>
    {
      /* 32-bit scale for the filter */
      SET_BIT(can_ip->FS1R, filternbrbitpos);
 800320c:	697b      	ldr	r3, [r7, #20]
 800320e:	f8d3 220c 	ldr.w	r2, [r3, #524]	; 0x20c
 8003212:	68fb      	ldr	r3, [r7, #12]
 8003214:	431a      	orrs	r2, r3
 8003216:	697b      	ldr	r3, [r7, #20]
 8003218:	f8c3 220c 	str.w	r2, [r3, #524]	; 0x20c

      /* 32-bit identifier or First 32-bit identifier */
      can_ip->sFilterRegister[sFilterConfig->FilterBank].FR1 =
        ((0x0000FFFFU & (uint32_t)sFilterConfig->FilterIdHigh) << 16U) |
 800321c:	683b      	ldr	r3, [r7, #0]
 800321e:	681b      	ldr	r3, [r3, #0]
 8003220:	0419      	lsls	r1, r3, #16
        (0x0000FFFFU & (uint32_t)sFilterConfig->FilterIdLow);
 8003222:	683b      	ldr	r3, [r7, #0]
 8003224:	685b      	ldr	r3, [r3, #4]
 8003226:	b29b      	uxth	r3, r3
      can_ip->sFilterRegister[sFilterConfig->FilterBank].FR1 =
 8003228:	683a      	ldr	r2, [r7, #0]
 800322a:	6952      	ldr	r2, [r2, #20]
        ((0x0000FFFFU & (uint32_t)sFilterConfig->FilterIdHigh) << 16U) |
 800322c:	4319      	orrs	r1, r3
      can_ip->sFilterRegister[sFilterConfig->FilterBank].FR1 =
 800322e:	697b      	ldr	r3, [r7, #20]
 8003230:	3248      	adds	r2, #72	; 0x48
 8003232:	f843 1032 	str.w	r1, [r3, r2, lsl #3]

      /* 32-bit mask or Second 32-bit identifier */
      can_ip->sFilterRegister[sFilterConfig->FilterBank].FR2 =
        ((0x0000FFFFU & (uint32_t)sFilterConfig->FilterMaskIdHigh) << 16U) |
 8003236:	683b      	ldr	r3, [r7, #0]
 8003238:	689b      	ldr	r3, [r3, #8]
 800323a:	0419      	lsls	r1, r3, #16
        (0x0000FFFFU & (uint32_t)sFilterConfig->FilterMaskIdLow);
 800323c:	683b      	ldr	r3, [r7, #0]
 800323e:	68db      	ldr	r3, [r3, #12]
 8003240:	b29a      	uxth	r2, r3
      can_ip->sFilterRegister[sFilterConfig->FilterBank].FR2 =
 8003242:	683b      	ldr	r3, [r7, #0]
 8003244:	695b      	ldr	r3, [r3, #20]
        ((0x0000FFFFU & (uint32_t)sFilterConfig->FilterMaskIdHigh) << 16U) |
 8003246:	430a      	orrs	r2, r1
      can_ip->sFilterRegister[sFilterConfig->FilterBank].FR2 =
 8003248:	6979      	ldr	r1, [r7, #20]
 800324a:	3348      	adds	r3, #72	; 0x48
 800324c:	00db      	lsls	r3, r3, #3
 800324e:	440b      	add	r3, r1
 8003250:	605a      	str	r2, [r3, #4]
    }

    /* Filter Mode */
    if (sFilterConfig->FilterMode == CAN_FILTERMODE_IDMASK)
 8003252:	683b      	ldr	r3, [r7, #0]
 8003254:	699b      	ldr	r3, [r3, #24]
 8003256:	2b00      	cmp	r3, #0
 8003258:	d109      	bne.n	800326e <HAL_CAN_ConfigFilter+0x13a>
    {
      /* Id/Mask mode for the filter*/
      CLEAR_BIT(can_ip->FM1R, filternbrbitpos);
 800325a:	697b      	ldr	r3, [r7, #20]
 800325c:	f8d3 2204 	ldr.w	r2, [r3, #516]	; 0x204
 8003260:	68fb      	ldr	r3, [r7, #12]
 8003262:	43db      	mvns	r3, r3
 8003264:	401a      	ands	r2, r3
 8003266:	697b      	ldr	r3, [r7, #20]
 8003268:	f8c3 2204 	str.w	r2, [r3, #516]	; 0x204
 800326c:	e007      	b.n	800327e <HAL_CAN_ConfigFilter+0x14a>
    }
    else /* CAN_FilterInitStruct->CAN_FilterMode == CAN_FilterMode_IdList */
    {
      /* Identifier list mode for the filter*/
      SET_BIT(can_ip->FM1R, filternbrbitpos);
 800326e:	697b      	ldr	r3, [r7, #20]
 8003270:	f8d3 2204 	ldr.w	r2, [r3, #516]	; 0x204
 8003274:	68fb      	ldr	r3, [r7, #12]
 8003276:	431a      	orrs	r2, r3
 8003278:	697b      	ldr	r3, [r7, #20]
 800327a:	f8c3 2204 	str.w	r2, [r3, #516]	; 0x204
    }

    /* Filter FIFO assignment */
    if (sFilterConfig->FilterFIFOAssignment == CAN_FILTER_FIFO0)
 800327e:	683b      	ldr	r3, [r7, #0]
 8003280:	691b      	ldr	r3, [r3, #16]
 8003282:	2b00      	cmp	r3, #0
 8003284:	d109      	bne.n	800329a <HAL_CAN_ConfigFilter+0x166>
    {
      /* FIFO 0 assignation for the filter */
      CLEAR_BIT(can_ip->FFA1R, filternbrbitpos);
 8003286:	697b      	ldr	r3, [r7, #20]
 8003288:	f8d3 2214 	ldr.w	r2, [r3, #532]	; 0x214
 800328c:	68fb      	ldr	r3, [r7, #12]
 800328e:	43db      	mvns	r3, r3
 8003290:	401a      	ands	r2, r3
 8003292:	697b      	ldr	r3, [r7, #20]
 8003294:	f8c3 2214 	str.w	r2, [r3, #532]	; 0x214
 8003298:	e007      	b.n	80032aa <HAL_CAN_ConfigFilter+0x176>
    }
    else
    {
      /* FIFO 1 assignation for the filter */
      SET_BIT(can_ip->FFA1R, filternbrbitpos);
 800329a:	697b      	ldr	r3, [r7, #20]
 800329c:	f8d3 2214 	ldr.w	r2, [r3, #532]	; 0x214
 80032a0:	68fb      	ldr	r3, [r7, #12]
 80032a2:	431a      	orrs	r2, r3
 80032a4:	697b      	ldr	r3, [r7, #20]
 80032a6:	f8c3 2214 	str.w	r2, [r3, #532]	; 0x214
    }

    /* Filter activation */
    if (sFilterConfig->FilterActivation == CAN_FILTER_ENABLE)
 80032aa:	683b      	ldr	r3, [r7, #0]
 80032ac:	6a1b      	ldr	r3, [r3, #32]
 80032ae:	2b01      	cmp	r3, #1
 80032b0:	d107      	bne.n	80032c2 <HAL_CAN_ConfigFilter+0x18e>
    {
      SET_BIT(can_ip->FA1R, filternbrbitpos);
 80032b2:	697b      	ldr	r3, [r7, #20]
 80032b4:	f8d3 221c 	ldr.w	r2, [r3, #540]	; 0x21c
 80032b8:	68fb      	ldr	r3, [r7, #12]
 80032ba:	431a      	orrs	r2, r3
 80032bc:	697b      	ldr	r3, [r7, #20]
 80032be:	f8c3 221c 	str.w	r2, [r3, #540]	; 0x21c
    }

    /* Leave the initialisation mode for the filter */
    CLEAR_BIT(can_ip->FMR, CAN_FMR_FINIT);
 80032c2:	697b      	ldr	r3, [r7, #20]
 80032c4:	f8d3 3200 	ldr.w	r3, [r3, #512]	; 0x200
 80032c8:	f023 0201 	bic.w	r2, r3, #1
 80032cc:	697b      	ldr	r3, [r7, #20]
 80032ce:	f8c3 2200 	str.w	r2, [r3, #512]	; 0x200

    /* Return function status */
    return HAL_OK;
 80032d2:	2300      	movs	r3, #0
 80032d4:	e006      	b.n	80032e4 <HAL_CAN_ConfigFilter+0x1b0>
  }
  else
  {
    /* Update error code */
    hcan->ErrorCode |= HAL_CAN_ERROR_NOT_INITIALIZED;
 80032d6:	687b      	ldr	r3, [r7, #4]
 80032d8:	6a5b      	ldr	r3, [r3, #36]	; 0x24
 80032da:	f443 2280 	orr.w	r2, r3, #262144	; 0x40000
 80032de:	687b      	ldr	r3, [r7, #4]
 80032e0:	625a      	str	r2, [r3, #36]	; 0x24

    return HAL_ERROR;
 80032e2:	2301      	movs	r3, #1
  }
}
 80032e4:	4618      	mov	r0, r3
 80032e6:	371c      	adds	r7, #28
 80032e8:	46bd      	mov	sp, r7
 80032ea:	f85d 7b04 	ldr.w	r7, [sp], #4
 80032ee:	4770      	bx	lr
 80032f0:	40006400 	.word	0x40006400

080032f4 <HAL_CAN_Start>:
  * @param  hcan pointer to an CAN_HandleTypeDef structure that contains
  *         the configuration information for the specified CAN.
  * @retval HAL status
  */
HAL_StatusTypeDef HAL_CAN_Start(CAN_HandleTypeDef *hcan)
{
 80032f4:	b580      	push	{r7, lr}
 80032f6:	b084      	sub	sp, #16
 80032f8:	af00      	add	r7, sp, #0
 80032fa:	6078      	str	r0, [r7, #4]
  uint32_t tickstart;

  if (hcan->State == HAL_CAN_STATE_READY)
 80032fc:	687b      	ldr	r3, [r7, #4]
 80032fe:	f893 3020 	ldrb.w	r3, [r3, #32]
 8003302:	b2db      	uxtb	r3, r3
 8003304:	2b01      	cmp	r3, #1
 8003306:	d12e      	bne.n	8003366 <HAL_CAN_Start+0x72>
  {
    /* Change CAN peripheral state */
    hcan->State = HAL_CAN_STATE_LISTENING;
 8003308:	687b      	ldr	r3, [r7, #4]
 800330a:	2202      	movs	r2, #2
 800330c:	f883 2020 	strb.w	r2, [r3, #32]

    /* Request leave initialisation */
    CLEAR_BIT(hcan->Instance->MCR, CAN_MCR_INRQ);
 8003310:	687b      	ldr	r3, [r7, #4]
 8003312:	681b      	ldr	r3, [r3, #0]
 8003314:	681a      	ldr	r2, [r3, #0]
 8003316:	687b      	ldr	r3, [r7, #4]
 8003318:	681b      	ldr	r3, [r3, #0]
 800331a:	f022 0201 	bic.w	r2, r2, #1
 800331e:	601a      	str	r2, [r3, #0]

    /* Get tick */
    tickstart = HAL_GetTick();
 8003320:	f7ff fddc 	bl	8002edc <HAL_GetTick>
 8003324:	60f8      	str	r0, [r7, #12]

    /* Wait the acknowledge */
    while ((hcan->Instance->MSR & CAN_MSR_INAK) != 0U)
 8003326:	e012      	b.n	800334e <HAL_CAN_Start+0x5a>
    {
      /* Check for the Timeout */
      if ((HAL_GetTick() - tickstart) > CAN_TIMEOUT_VALUE)
 8003328:	f7ff fdd8 	bl	8002edc <HAL_GetTick>
 800332c:	4602      	mov	r2, r0
 800332e:	68fb      	ldr	r3, [r7, #12]
 8003330:	1ad3      	subs	r3, r2, r3
 8003332:	2b0a      	cmp	r3, #10
 8003334:	d90b      	bls.n	800334e <HAL_CAN_Start+0x5a>
      {
        /* Update error code */
        hcan->ErrorCode |= HAL_CAN_ERROR_TIMEOUT;
 8003336:	687b      	ldr	r3, [r7, #4]
 8003338:	6a5b      	ldr	r3, [r3, #36]	; 0x24
 800333a:	f443 3200 	orr.w	r2, r3, #131072	; 0x20000
 800333e:	687b      	ldr	r3, [r7, #4]
 8003340:	625a      	str	r2, [r3, #36]	; 0x24

        /* Change CAN state */
        hcan->State = HAL_CAN_STATE_ERROR;
 8003342:	687b      	ldr	r3, [r7, #4]
 8003344:	2205      	movs	r2, #5
 8003346:	f883 2020 	strb.w	r2, [r3, #32]

        return HAL_ERROR;
 800334a:	2301      	movs	r3, #1
 800334c:	e012      	b.n	8003374 <HAL_CAN_Start+0x80>
    while ((hcan->Instance->MSR & CAN_MSR_INAK) != 0U)
 800334e:	687b      	ldr	r3, [r7, #4]
 8003350:	681b      	ldr	r3, [r3, #0]
 8003352:	685b      	ldr	r3, [r3, #4]
 8003354:	f003 0301 	and.w	r3, r3, #1
 8003358:	2b00      	cmp	r3, #0
 800335a:	d1e5      	bne.n	8003328 <HAL_CAN_Start+0x34>
      }
    }

    /* Reset the CAN ErrorCode */
    hcan->ErrorCode = HAL_CAN_ERROR_NONE;
 800335c:	687b      	ldr	r3, [r7, #4]
 800335e:	2200      	movs	r2, #0
 8003360:	625a      	str	r2, [r3, #36]	; 0x24

    /* Return function status */
    return HAL_OK;
 8003362:	2300      	movs	r3, #0
 8003364:	e006      	b.n	8003374 <HAL_CAN_Start+0x80>
  }
  else
  {
    /* Update error code */
    hcan->ErrorCode |= HAL_CAN_ERROR_NOT_READY;
 8003366:	687b      	ldr	r3, [r7, #4]
 8003368:	6a5b      	ldr	r3, [r3, #36]	; 0x24
 800336a:	f443 2200 	orr.w	r2, r3, #524288	; 0x80000
 800336e:	687b      	ldr	r3, [r7, #4]
 8003370:	625a      	str	r2, [r3, #36]	; 0x24

    return HAL_ERROR;
 8003372:	2301      	movs	r3, #1
  }
}
 8003374:	4618      	mov	r0, r3
 8003376:	3710      	adds	r7, #16
 8003378:	46bd      	mov	sp, r7
 800337a:	bd80      	pop	{r7, pc}

0800337c <HAL_CAN_AddTxMessage>:
  *         This parameter can be a value of @arg CAN_Tx_Mailboxes.
  * @retval HAL status
  */
HAL_StatusTypeDef HAL_CAN_AddTxMessage(CAN_HandleTypeDef *hcan, const CAN_TxHeaderTypeDef *pHeader,
                                       const uint8_t aData[], uint32_t *pTxMailbox)
{
 800337c:	b480      	push	{r7}
 800337e:	b089      	sub	sp, #36	; 0x24
 8003380:	af00      	add	r7, sp, #0
 8003382:	60f8      	str	r0, [r7, #12]
 8003384:	60b9      	str	r1, [r7, #8]
 8003386:	607a      	str	r2, [r7, #4]
 8003388:	603b      	str	r3, [r7, #0]
  uint32_t transmitmailbox;
  HAL_CAN_StateTypeDef state = hcan->State;
 800338a:	68fb      	ldr	r3, [r7, #12]
 800338c:	f893 3020 	ldrb.w	r3, [r3, #32]
 8003390:	77fb      	strb	r3, [r7, #31]
  uint32_t tsr = READ_REG(hcan->Instance->TSR);
 8003392:	68fb      	ldr	r3, [r7, #12]
 8003394:	681b      	ldr	r3, [r3, #0]
 8003396:	689b      	ldr	r3, [r3, #8]
 8003398:	61bb      	str	r3, [r7, #24]
  {
    assert_param(IS_CAN_EXTID(pHeader->ExtId));
  }
  assert_param(IS_FUNCTIONAL_STATE(pHeader->TransmitGlobalTime));

  if ((state == HAL_CAN_STATE_READY) ||
 800339a:	7ffb      	ldrb	r3, [r7, #31]
 800339c:	2b01      	cmp	r3, #1
 800339e:	d003      	beq.n	80033a8 <HAL_CAN_AddTxMessage+0x2c>
 80033a0:	7ffb      	ldrb	r3, [r7, #31]
 80033a2:	2b02      	cmp	r3, #2
 80033a4:	f040 80ad 	bne.w	8003502 <HAL_CAN_AddTxMessage+0x186>
      (state == HAL_CAN_STATE_LISTENING))
  {
    /* Check that all the Tx mailboxes are not full */
    if (((tsr & CAN_TSR_TME0) != 0U) ||
 80033a8:	69bb      	ldr	r3, [r7, #24]
 80033aa:	f003 6380 	and.w	r3, r3, #67108864	; 0x4000000
 80033ae:	2b00      	cmp	r3, #0
 80033b0:	d10a      	bne.n	80033c8 <HAL_CAN_AddTxMessage+0x4c>
        ((tsr & CAN_TSR_TME1) != 0U) ||
 80033b2:	69bb      	ldr	r3, [r7, #24]
 80033b4:	f003 6300 	and.w	r3, r3, #134217728	; 0x8000000
    if (((tsr & CAN_TSR_TME0) != 0U) ||
 80033b8:	2b00      	cmp	r3, #0
 80033ba:	d105      	bne.n	80033c8 <HAL_CAN_AddTxMessage+0x4c>
        ((tsr & CAN_TSR_TME2) != 0U))
 80033bc:	69bb      	ldr	r3, [r7, #24]
 80033be:	f003 5380 	and.w	r3, r3, #268435456	; 0x10000000
        ((tsr & CAN_TSR_TME1) != 0U) ||
 80033c2:	2b00      	cmp	r3, #0
 80033c4:	f000 8095 	beq.w	80034f2 <HAL_CAN_AddTxMessage+0x176>
    {
      /* Select an empty transmit mailbox */
      transmitmailbox = (tsr & CAN_TSR_CODE) >> CAN_TSR_CODE_Pos;
 80033c8:	69bb      	ldr	r3, [r7, #24]
 80033ca:	0e1b      	lsrs	r3, r3, #24
 80033cc:	f003 0303 	and.w	r3, r3, #3
 80033d0:	617b      	str	r3, [r7, #20]

      /* Store the Tx mailbox */
      *pTxMailbox = (uint32_t)1 << transmitmailbox;
 80033d2:	2201      	movs	r2, #1
 80033d4:	697b      	ldr	r3, [r7, #20]
 80033d6:	409a      	lsls	r2, r3
 80033d8:	683b      	ldr	r3, [r7, #0]
 80033da:	601a      	str	r2, [r3, #0]

      /* Set up the Id */
      if (pHeader->IDE == CAN_ID_STD)
 80033dc:	68bb      	ldr	r3, [r7, #8]
 80033de:	689b      	ldr	r3, [r3, #8]
 80033e0:	2b00      	cmp	r3, #0
 80033e2:	d10d      	bne.n	8003400 <HAL_CAN_AddTxMessage+0x84>
      {
        hcan->Instance->sTxMailBox[transmitmailbox].TIR = ((pHeader->StdId << CAN_TI0R_STID_Pos) |
 80033e4:	68bb      	ldr	r3, [r7, #8]
 80033e6:	681b      	ldr	r3, [r3, #0]
 80033e8:	055a      	lsls	r2, r3, #21
                                                           pHeader->RTR);
 80033ea:	68bb      	ldr	r3, [r7, #8]
 80033ec:	68db      	ldr	r3, [r3, #12]
        hcan->Instance->sTxMailBox[transmitmailbox].TIR = ((pHeader->StdId << CAN_TI0R_STID_Pos) |
 80033ee:	68f9      	ldr	r1, [r7, #12]
 80033f0:	6809      	ldr	r1, [r1, #0]
 80033f2:	431a      	orrs	r2, r3
 80033f4:	697b      	ldr	r3, [r7, #20]
 80033f6:	3318      	adds	r3, #24
 80033f8:	011b      	lsls	r3, r3, #4
 80033fa:	440b      	add	r3, r1
 80033fc:	601a      	str	r2, [r3, #0]
 80033fe:	e00f      	b.n	8003420 <HAL_CAN_AddTxMessage+0xa4>
      }
      else
      {
        hcan->Instance->sTxMailBox[transmitmailbox].TIR = ((pHeader->ExtId << CAN_TI0R_EXID_Pos) |
 8003400:	68bb      	ldr	r3, [r7, #8]
 8003402:	685b      	ldr	r3, [r3, #4]
 8003404:	00da      	lsls	r2, r3, #3
                                                           pHeader->IDE |
 8003406:	68bb      	ldr	r3, [r7, #8]
 8003408:	689b      	ldr	r3, [r3, #8]
        hcan->Instance->sTxMailBox[transmitmailbox].TIR = ((pHeader->ExtId << CAN_TI0R_EXID_Pos) |
 800340a:	431a      	orrs	r2, r3
                                                           pHeader->RTR);
 800340c:	68bb      	ldr	r3, [r7, #8]
 800340e:	68db      	ldr	r3, [r3, #12]
        hcan->Instance->sTxMailBox[transmitmailbox].TIR = ((pHeader->ExtId << CAN_TI0R_EXID_Pos) |
 8003410:	68f9      	ldr	r1, [r7, #12]
 8003412:	6809      	ldr	r1, [r1, #0]
                                                           pHeader->IDE |
 8003414:	431a      	orrs	r2, r3
        hcan->Instance->sTxMailBox[transmitmailbox].TIR = ((pHeader->ExtId << CAN_TI0R_EXID_Pos) |
 8003416:	697b      	ldr	r3, [r7, #20]
 8003418:	3318      	adds	r3, #24
 800341a:	011b      	lsls	r3, r3, #4
 800341c:	440b      	add	r3, r1
 800341e:	601a      	str	r2, [r3, #0]
      }

      /* Set up the DLC */
      hcan->Instance->sTxMailBox[transmitmailbox].TDTR = (pHeader->DLC);
 8003420:	68fb      	ldr	r3, [r7, #12]
 8003422:	6819      	ldr	r1, [r3, #0]
 8003424:	68bb      	ldr	r3, [r7, #8]
 8003426:	691a      	ldr	r2, [r3, #16]
 8003428:	697b      	ldr	r3, [r7, #20]
 800342a:	3318      	adds	r3, #24
 800342c:	011b      	lsls	r3, r3, #4
 800342e:	440b      	add	r3, r1
 8003430:	3304      	adds	r3, #4
 8003432:	601a      	str	r2, [r3, #0]

      /* Set up the Transmit Global Time mode */
      if (pHeader->TransmitGlobalTime == ENABLE)
 8003434:	68bb      	ldr	r3, [r7, #8]
 8003436:	7d1b      	ldrb	r3, [r3, #20]
 8003438:	2b01      	cmp	r3, #1
 800343a:	d111      	bne.n	8003460 <HAL_CAN_AddTxMessage+0xe4>
      {
        SET_BIT(hcan->Instance->sTxMailBox[transmitmailbox].TDTR, CAN_TDT0R_TGT);
 800343c:	68fb      	ldr	r3, [r7, #12]
 800343e:	681a      	ldr	r2, [r3, #0]
 8003440:	697b      	ldr	r3, [r7, #20]
 8003442:	3318      	adds	r3, #24
 8003444:	011b      	lsls	r3, r3, #4
 8003446:	4413      	add	r3, r2
 8003448:	3304      	adds	r3, #4
 800344a:	681b      	ldr	r3, [r3, #0]
 800344c:	68fa      	ldr	r2, [r7, #12]
 800344e:	6811      	ldr	r1, [r2, #0]
 8003450:	f443 7280 	orr.w	r2, r3, #256	; 0x100
 8003454:	697b      	ldr	r3, [r7, #20]
 8003456:	3318      	adds	r3, #24
 8003458:	011b      	lsls	r3, r3, #4
 800345a:	440b      	add	r3, r1
 800345c:	3304      	adds	r3, #4
 800345e:	601a      	str	r2, [r3, #0]
      }

      /* Set up the data field */
      WRITE_REG(hcan->Instance->sTxMailBox[transmitmailbox].TDHR,
 8003460:	687b      	ldr	r3, [r7, #4]
 8003462:	3307      	adds	r3, #7
 8003464:	781b      	ldrb	r3, [r3, #0]
 8003466:	061a      	lsls	r2, r3, #24
 8003468:	687b      	ldr	r3, [r7, #4]
 800346a:	3306      	adds	r3, #6
 800346c:	781b      	ldrb	r3, [r3, #0]
 800346e:	041b      	lsls	r3, r3, #16
 8003470:	431a      	orrs	r2, r3
 8003472:	687b      	ldr	r3, [r7, #4]
 8003474:	3305      	adds	r3, #5
 8003476:	781b      	ldrb	r3, [r3, #0]
 8003478:	021b      	lsls	r3, r3, #8
 800347a:	4313      	orrs	r3, r2
 800347c:	687a      	ldr	r2, [r7, #4]
 800347e:	3204      	adds	r2, #4
 8003480:	7812      	ldrb	r2, [r2, #0]
 8003482:	4610      	mov	r0, r2
 8003484:	68fa      	ldr	r2, [r7, #12]
 8003486:	6811      	ldr	r1, [r2, #0]
 8003488:	ea43 0200 	orr.w	r2, r3, r0
 800348c:	697b      	ldr	r3, [r7, #20]
 800348e:	011b      	lsls	r3, r3, #4
 8003490:	440b      	add	r3, r1
 8003492:	f503 73c6 	add.w	r3, r3, #396	; 0x18c
 8003496:	601a      	str	r2, [r3, #0]
                ((uint32_t)aData[7] << CAN_TDH0R_DATA7_Pos) |
                ((uint32_t)aData[6] << CAN_TDH0R_DATA6_Pos) |
                ((uint32_t)aData[5] << CAN_TDH0R_DATA5_Pos) |
                ((uint32_t)aData[4] << CAN_TDH0R_DATA4_Pos));
      WRITE_REG(hcan->Instance->sTxMailBox[transmitmailbox].TDLR,
 8003498:	687b      	ldr	r3, [r7, #4]
 800349a:	3303      	adds	r3, #3
 800349c:	781b      	ldrb	r3, [r3, #0]
 800349e:	061a      	lsls	r2, r3, #24
 80034a0:	687b      	ldr	r3, [r7, #4]
 80034a2:	3302      	adds	r3, #2
 80034a4:	781b      	ldrb	r3, [r3, #0]
 80034a6:	041b      	lsls	r3, r3, #16
 80034a8:	431a      	orrs	r2, r3
 80034aa:	687b      	ldr	r3, [r7, #4]
 80034ac:	3301      	adds	r3, #1
 80034ae:	781b      	ldrb	r3, [r3, #0]
 80034b0:	021b      	lsls	r3, r3, #8
 80034b2:	4313      	orrs	r3, r2
 80034b4:	687a      	ldr	r2, [r7, #4]
 80034b6:	7812      	ldrb	r2, [r2, #0]
 80034b8:	4610      	mov	r0, r2
 80034ba:	68fa      	ldr	r2, [r7, #12]
 80034bc:	6811      	ldr	r1, [r2, #0]
 80034be:	ea43 0200 	orr.w	r2, r3, r0
 80034c2:	697b      	ldr	r3, [r7, #20]
 80034c4:	011b      	lsls	r3, r3, #4
 80034c6:	440b      	add	r3, r1
 80034c8:	f503 73c4 	add.w	r3, r3, #392	; 0x188
 80034cc:	601a      	str	r2, [r3, #0]
                ((uint32_t)aData[2] << CAN_TDL0R_DATA2_Pos) |
                ((uint32_t)aData[1] << CAN_TDL0R_DATA1_Pos) |
                ((uint32_t)aData[0] << CAN_TDL0R_DATA0_Pos));

      /* Request transmission */
      SET_BIT(hcan->Instance->sTxMailBox[transmitmailbox].TIR, CAN_TI0R_TXRQ);
 80034ce:	68fb      	ldr	r3, [r7, #12]
 80034d0:	681a      	ldr	r2, [r3, #0]
 80034d2:	697b      	ldr	r3, [r7, #20]
 80034d4:	3318      	adds	r3, #24
 80034d6:	011b      	lsls	r3, r3, #4
 80034d8:	4413      	add	r3, r2
 80034da:	681b      	ldr	r3, [r3, #0]
 80034dc:	68fa      	ldr	r2, [r7, #12]
 80034de:	6811      	ldr	r1, [r2, #0]
 80034e0:	f043 0201 	orr.w	r2, r3, #1
 80034e4:	697b      	ldr	r3, [r7, #20]
 80034e6:	3318      	adds	r3, #24
 80034e8:	011b      	lsls	r3, r3, #4
 80034ea:	440b      	add	r3, r1
 80034ec:	601a      	str	r2, [r3, #0]

      /* Return function status */
      return HAL_OK;
 80034ee:	2300      	movs	r3, #0
 80034f0:	e00e      	b.n	8003510 <HAL_CAN_AddTxMessage+0x194>
    }
    else
    {
      /* Update error code */
      hcan->ErrorCode |= HAL_CAN_ERROR_PARAM;
 80034f2:	68fb      	ldr	r3, [r7, #12]
 80034f4:	6a5b      	ldr	r3, [r3, #36]	; 0x24
 80034f6:	f443 1200 	orr.w	r2, r3, #2097152	; 0x200000
 80034fa:	68fb      	ldr	r3, [r7, #12]
 80034fc:	625a      	str	r2, [r3, #36]	; 0x24

      return HAL_ERROR;
 80034fe:	2301      	movs	r3, #1
 8003500:	e006      	b.n	8003510 <HAL_CAN_AddTxMessage+0x194>
    }
  }
  else
  {
    /* Update error code */
    hcan->ErrorCode |= HAL_CAN_ERROR_NOT_INITIALIZED;
 8003502:	68fb      	ldr	r3, [r7, #12]
 8003504:	6a5b      	ldr	r3, [r3, #36]	; 0x24
 8003506:	f443 2280 	orr.w	r2, r3, #262144	; 0x40000
 800350a:	68fb      	ldr	r3, [r7, #12]
 800350c:	625a      	str	r2, [r3, #36]	; 0x24

    return HAL_ERROR;
 800350e:	2301      	movs	r3, #1
  }
}
 8003510:	4618      	mov	r0, r3
 8003512:	3724      	adds	r7, #36	; 0x24
 8003514:	46bd      	mov	sp, r7
 8003516:	f85d 7b04 	ldr.w	r7, [sp], #4
 800351a:	4770      	bx	lr

0800351c <HAL_CAN_GetRxMessage>:
  * @param  aData array where the payload of the Rx frame will be stored.
  * @retval HAL status
  */
HAL_StatusTypeDef HAL_CAN_GetRxMessage(CAN_HandleTypeDef *hcan, uint32_t RxFifo,
                                       CAN_RxHeaderTypeDef *pHeader, uint8_t aData[])
{
 800351c:	b480      	push	{r7}
 800351e:	b087      	sub	sp, #28
 8003520:	af00      	add	r7, sp, #0
 8003522:	60f8      	str	r0, [r7, #12]
 8003524:	60b9      	str	r1, [r7, #8]
 8003526:	607a      	str	r2, [r7, #4]
 8003528:	603b      	str	r3, [r7, #0]
  HAL_CAN_StateTypeDef state = hcan->State;
 800352a:	68fb      	ldr	r3, [r7, #12]
 800352c:	f893 3020 	ldrb.w	r3, [r3, #32]
 8003530:	75fb      	strb	r3, [r7, #23]

  assert_param(IS_CAN_RX_FIFO(RxFifo));

  if ((state == HAL_CAN_STATE_READY) ||
 8003532:	7dfb      	ldrb	r3, [r7, #23]
 8003534:	2b01      	cmp	r3, #1
 8003536:	d003      	beq.n	8003540 <HAL_CAN_GetRxMessage+0x24>
 8003538:	7dfb      	ldrb	r3, [r7, #23]
 800353a:	2b02      	cmp	r3, #2
 800353c:	f040 8103 	bne.w	8003746 <HAL_CAN_GetRxMessage+0x22a>
      (state == HAL_CAN_STATE_LISTENING))
  {
    /* Check the Rx FIFO */
    if (RxFifo == CAN_RX_FIFO0) /* Rx element is assigned to Rx FIFO 0 */
 8003540:	68bb      	ldr	r3, [r7, #8]
 8003542:	2b00      	cmp	r3, #0
 8003544:	d10e      	bne.n	8003564 <HAL_CAN_GetRxMessage+0x48>
    {
      /* Check that the Rx FIFO 0 is not empty */
      if ((hcan->Instance->RF0R & CAN_RF0R_FMP0) == 0U)
 8003546:	68fb      	ldr	r3, [r7, #12]
 8003548:	681b      	ldr	r3, [r3, #0]
 800354a:	68db      	ldr	r3, [r3, #12]
 800354c:	f003 0303 	and.w	r3, r3, #3
 8003550:	2b00      	cmp	r3, #0
 8003552:	d116      	bne.n	8003582 <HAL_CAN_GetRxMessage+0x66>
      {
        /* Update error code */
        hcan->ErrorCode |= HAL_CAN_ERROR_PARAM;
 8003554:	68fb      	ldr	r3, [r7, #12]
 8003556:	6a5b      	ldr	r3, [r3, #36]	; 0x24
 8003558:	f443 1200 	orr.w	r2, r3, #2097152	; 0x200000
 800355c:	68fb      	ldr	r3, [r7, #12]
 800355e:	625a      	str	r2, [r3, #36]	; 0x24

        return HAL_ERROR;
 8003560:	2301      	movs	r3, #1
 8003562:	e0f7      	b.n	8003754 <HAL_CAN_GetRxMessage+0x238>
      }
    }
    else /* Rx element is assigned to Rx FIFO 1 */
    {
      /* Check that the Rx FIFO 1 is not empty */
      if ((hcan->Instance->RF1R & CAN_RF1R_FMP1) == 0U)
 8003564:	68fb      	ldr	r3, [r7, #12]
 8003566:	681b      	ldr	r3, [r3, #0]
 8003568:	691b      	ldr	r3, [r3, #16]
 800356a:	f003 0303 	and.w	r3, r3, #3
 800356e:	2b00      	cmp	r3, #0
 8003570:	d107      	bne.n	8003582 <HAL_CAN_GetRxMessage+0x66>
      {
        /* Update error code */
        hcan->ErrorCode |= HAL_CAN_ERROR_PARAM;
 8003572:	68fb      	ldr	r3, [r7, #12]
 8003574:	6a5b      	ldr	r3, [r3, #36]	; 0x24
 8003576:	f443 1200 	orr.w	r2, r3, #2097152	; 0x200000
 800357a:	68fb      	ldr	r3, [r7, #12]
 800357c:	625a      	str	r2, [r3, #36]	; 0x24

        return HAL_ERROR;
 800357e:	2301      	movs	r3, #1
 8003580:	e0e8      	b.n	8003754 <HAL_CAN_GetRxMessage+0x238>
      }
    }

    /* Get the header */
    pHeader->IDE = CAN_RI0R_IDE & hcan->Instance->sFIFOMailBox[RxFifo].RIR;
 8003582:	68fb      	ldr	r3, [r7, #12]
 8003584:	681a      	ldr	r2, [r3, #0]
 8003586:	68bb      	ldr	r3, [r7, #8]
 8003588:	331b      	adds	r3, #27
 800358a:	011b      	lsls	r3, r3, #4
 800358c:	4413      	add	r3, r2
 800358e:	681b      	ldr	r3, [r3, #0]
 8003590:	f003 0204 	and.w	r2, r3, #4
 8003594:	687b      	ldr	r3, [r7, #4]
 8003596:	609a      	str	r2, [r3, #8]
    if (pHeader->IDE == CAN_ID_STD)
 8003598:	687b      	ldr	r3, [r7, #4]
 800359a:	689b      	ldr	r3, [r3, #8]
 800359c:	2b00      	cmp	r3, #0
 800359e:	d10c      	bne.n	80035ba <HAL_CAN_GetRxMessage+0x9e>
    {
      pHeader->StdId = (CAN_RI0R_STID & hcan->Instance->sFIFOMailBox[RxFifo].RIR) >> CAN_TI0R_STID_Pos;
 80035a0:	68fb      	ldr	r3, [r7, #12]
 80035a2:	681a      	ldr	r2, [r3, #0]
 80035a4:	68bb      	ldr	r3, [r7, #8]
 80035a6:	331b      	adds	r3, #27
 80035a8:	011b      	lsls	r3, r3, #4
 80035aa:	4413      	add	r3, r2
 80035ac:	681b      	ldr	r3, [r3, #0]
 80035ae:	0d5b      	lsrs	r3, r3, #21
 80035b0:	f3c3 020a 	ubfx	r2, r3, #0, #11
 80035b4:	687b      	ldr	r3, [r7, #4]
 80035b6:	601a      	str	r2, [r3, #0]
 80035b8:	e00b      	b.n	80035d2 <HAL_CAN_GetRxMessage+0xb6>
    }
    else
    {
      pHeader->ExtId = ((CAN_RI0R_EXID | CAN_RI0R_STID) &
                        hcan->Instance->sFIFOMailBox[RxFifo].RIR) >> CAN_RI0R_EXID_Pos;
 80035ba:	68fb      	ldr	r3, [r7, #12]
 80035bc:	681a      	ldr	r2, [r3, #0]
 80035be:	68bb      	ldr	r3, [r7, #8]
 80035c0:	331b      	adds	r3, #27
 80035c2:	011b      	lsls	r3, r3, #4
 80035c4:	4413      	add	r3, r2
 80035c6:	681b      	ldr	r3, [r3, #0]
 80035c8:	08db      	lsrs	r3, r3, #3
 80035ca:	f023 4260 	bic.w	r2, r3, #3758096384	; 0xe0000000
      pHeader->ExtId = ((CAN_RI0R_EXID | CAN_RI0R_STID) &
 80035ce:	687b      	ldr	r3, [r7, #4]
 80035d0:	605a      	str	r2, [r3, #4]
    }
    pHeader->RTR = (CAN_RI0R_RTR & hcan->Instance->sFIFOMailBox[RxFifo].RIR);
 80035d2:	68fb      	ldr	r3, [r7, #12]
 80035d4:	681a      	ldr	r2, [r3, #0]
 80035d6:	68bb      	ldr	r3, [r7, #8]
 80035d8:	331b      	adds	r3, #27
 80035da:	011b      	lsls	r3, r3, #4
 80035dc:	4413      	add	r3, r2
 80035de:	681b      	ldr	r3, [r3, #0]
 80035e0:	f003 0202 	and.w	r2, r3, #2
 80035e4:	687b      	ldr	r3, [r7, #4]
 80035e6:	60da      	str	r2, [r3, #12]
    if (((CAN_RDT0R_DLC & hcan->Instance->sFIFOMailBox[RxFifo].RDTR) >> CAN_RDT0R_DLC_Pos) >= 8U)
 80035e8:	68fb      	ldr	r3, [r7, #12]
 80035ea:	681a      	ldr	r2, [r3, #0]
 80035ec:	68bb      	ldr	r3, [r7, #8]
 80035ee:	331b      	adds	r3, #27
 80035f0:	011b      	lsls	r3, r3, #4
 80035f2:	4413      	add	r3, r2
 80035f4:	3304      	adds	r3, #4
 80035f6:	681b      	ldr	r3, [r3, #0]
 80035f8:	f003 0308 	and.w	r3, r3, #8
 80035fc:	2b00      	cmp	r3, #0
 80035fe:	d003      	beq.n	8003608 <HAL_CAN_GetRxMessage+0xec>
    {
      /* Truncate DLC to 8 if received field is over range */
      pHeader->DLC = 8U;
 8003600:	687b      	ldr	r3, [r7, #4]
 8003602:	2208      	movs	r2, #8
 8003604:	611a      	str	r2, [r3, #16]
 8003606:	e00b      	b.n	8003620 <HAL_CAN_GetRxMessage+0x104>
    }
    else
    {
      pHeader->DLC = (CAN_RDT0R_DLC & hcan->Instance->sFIFOMailBox[RxFifo].RDTR) >> CAN_RDT0R_DLC_Pos;
 8003608:	68fb      	ldr	r3, [r7, #12]
 800360a:	681a      	ldr	r2, [r3, #0]
 800360c:	68bb      	ldr	r3, [r7, #8]
 800360e:	331b      	adds	r3, #27
 8003610:	011b      	lsls	r3, r3, #4
 8003612:	4413      	add	r3, r2
 8003614:	3304      	adds	r3, #4
 8003616:	681b      	ldr	r3, [r3, #0]
 8003618:	f003 020f 	and.w	r2, r3, #15
 800361c:	687b      	ldr	r3, [r7, #4]
 800361e:	611a      	str	r2, [r3, #16]
    }
    pHeader->FilterMatchIndex = (CAN_RDT0R_FMI & hcan->Instance->sFIFOMailBox[RxFifo].RDTR) >> CAN_RDT0R_FMI_Pos;
 8003620:	68fb      	ldr	r3, [r7, #12]
 8003622:	681a      	ldr	r2, [r3, #0]
 8003624:	68bb      	ldr	r3, [r7, #8]
 8003626:	331b      	adds	r3, #27
 8003628:	011b      	lsls	r3, r3, #4
 800362a:	4413      	add	r3, r2
 800362c:	3304      	adds	r3, #4
 800362e:	681b      	ldr	r3, [r3, #0]
 8003630:	0a1b      	lsrs	r3, r3, #8
 8003632:	b2da      	uxtb	r2, r3
 8003634:	687b      	ldr	r3, [r7, #4]
 8003636:	619a      	str	r2, [r3, #24]
    pHeader->Timestamp = (CAN_RDT0R_TIME & hcan->Instance->sFIFOMailBox[RxFifo].RDTR) >> CAN_RDT0R_TIME_Pos;
 8003638:	68fb      	ldr	r3, [r7, #12]
 800363a:	681a      	ldr	r2, [r3, #0]
 800363c:	68bb      	ldr	r3, [r7, #8]
 800363e:	331b      	adds	r3, #27
 8003640:	011b      	lsls	r3, r3, #4
 8003642:	4413      	add	r3, r2
 8003644:	3304      	adds	r3, #4
 8003646:	681b      	ldr	r3, [r3, #0]
 8003648:	0c1b      	lsrs	r3, r3, #16
 800364a:	b29a      	uxth	r2, r3
 800364c:	687b      	ldr	r3, [r7, #4]
 800364e:	615a      	str	r2, [r3, #20]

    /* Get the data */
    aData[0] = (uint8_t)((CAN_RDL0R_DATA0 & hcan->Instance->sFIFOMailBox[RxFifo].RDLR) >> CAN_RDL0R_DATA0_Pos);
 8003650:	68fb      	ldr	r3, [r7, #12]
 8003652:	681a      	ldr	r2, [r3, #0]
 8003654:	68bb      	ldr	r3, [r7, #8]
 8003656:	011b      	lsls	r3, r3, #4
 8003658:	4413      	add	r3, r2
 800365a:	f503 73dc 	add.w	r3, r3, #440	; 0x1b8
 800365e:	681b      	ldr	r3, [r3, #0]
 8003660:	b2da      	uxtb	r2, r3
 8003662:	683b      	ldr	r3, [r7, #0]
 8003664:	701a      	strb	r2, [r3, #0]
    aData[1] = (uint8_t)((CAN_RDL0R_DATA1 & hcan->Instance->sFIFOMailBox[RxFifo].RDLR) >> CAN_RDL0R_DATA1_Pos);
 8003666:	68fb      	ldr	r3, [r7, #12]
 8003668:	681a      	ldr	r2, [r3, #0]
 800366a:	68bb      	ldr	r3, [r7, #8]
 800366c:	011b      	lsls	r3, r3, #4
 800366e:	4413      	add	r3, r2
 8003670:	f503 73dc 	add.w	r3, r3, #440	; 0x1b8
 8003674:	681b      	ldr	r3, [r3, #0]
 8003676:	0a1a      	lsrs	r2, r3, #8
 8003678:	683b      	ldr	r3, [r7, #0]
 800367a:	3301      	adds	r3, #1
 800367c:	b2d2      	uxtb	r2, r2
 800367e:	701a      	strb	r2, [r3, #0]
    aData[2] = (uint8_t)((CAN_RDL0R_DATA2 & hcan->Instance->sFIFOMailBox[RxFifo].RDLR) >> CAN_RDL0R_DATA2_Pos);
 8003680:	68fb      	ldr	r3, [r7, #12]
 8003682:	681a      	ldr	r2, [r3, #0]
 8003684:	68bb      	ldr	r3, [r7, #8]
 8003686:	011b      	lsls	r3, r3, #4
 8003688:	4413      	add	r3, r2
 800368a:	f503 73dc 	add.w	r3, r3, #440	; 0x1b8
 800368e:	681b      	ldr	r3, [r3, #0]
 8003690:	0c1a      	lsrs	r2, r3, #16
 8003692:	683b      	ldr	r3, [r7, #0]
 8003694:	3302      	adds	r3, #2
 8003696:	b2d2      	uxtb	r2, r2
 8003698:	701a      	strb	r2, [r3, #0]
    aData[3] = (uint8_t)((CAN_RDL0R_DATA3 & hcan->Instance->sFIFOMailBox[RxFifo].RDLR) >> CAN_RDL0R_DATA3_Pos);
 800369a:	68fb      	ldr	r3, [r7, #12]
 800369c:	681a      	ldr	r2, [r3, #0]
 800369e:	68bb      	ldr	r3, [r7, #8]
 80036a0:	011b      	lsls	r3, r3, #4
 80036a2:	4413      	add	r3, r2
 80036a4:	f503 73dc 	add.w	r3, r3, #440	; 0x1b8
 80036a8:	681b      	ldr	r3, [r3, #0]
 80036aa:	0e1a      	lsrs	r2, r3, #24
 80036ac:	683b      	ldr	r3, [r7, #0]
 80036ae:	3303      	adds	r3, #3
 80036b0:	b2d2      	uxtb	r2, r2
 80036b2:	701a      	strb	r2, [r3, #0]
    aData[4] = (uint8_t)((CAN_RDH0R_DATA4 & hcan->Instance->sFIFOMailBox[RxFifo].RDHR) >> CAN_RDH0R_DATA4_Pos);
 80036b4:	68fb      	ldr	r3, [r7, #12]
 80036b6:	681a      	ldr	r2, [r3, #0]
 80036b8:	68bb      	ldr	r3, [r7, #8]
 80036ba:	011b      	lsls	r3, r3, #4
 80036bc:	4413      	add	r3, r2
 80036be:	f503 73de 	add.w	r3, r3, #444	; 0x1bc
 80036c2:	681a      	ldr	r2, [r3, #0]
 80036c4:	683b      	ldr	r3, [r7, #0]
 80036c6:	3304      	adds	r3, #4
 80036c8:	b2d2      	uxtb	r2, r2
 80036ca:	701a      	strb	r2, [r3, #0]
    aData[5] = (uint8_t)((CAN_RDH0R_DATA5 & hcan->Instance->sFIFOMailBox[RxFifo].RDHR) >> CAN_RDH0R_DATA5_Pos);
 80036cc:	68fb      	ldr	r3, [r7, #12]
 80036ce:	681a      	ldr	r2, [r3, #0]
 80036d0:	68bb      	ldr	r3, [r7, #8]
 80036d2:	011b      	lsls	r3, r3, #4
 80036d4:	4413      	add	r3, r2
 80036d6:	f503 73de 	add.w	r3, r3, #444	; 0x1bc
 80036da:	681b      	ldr	r3, [r3, #0]
 80036dc:	0a1a      	lsrs	r2, r3, #8
 80036de:	683b      	ldr	r3, [r7, #0]
 80036e0:	3305      	adds	r3, #5
 80036e2:	b2d2      	uxtb	r2, r2
 80036e4:	701a      	strb	r2, [r3, #0]
    aData[6] = (uint8_t)((CAN_RDH0R_DATA6 & hcan->Instance->sFIFOMailBox[RxFifo].RDHR) >> CAN_RDH0R_DATA6_Pos);
 80036e6:	68fb      	ldr	r3, [r7, #12]
 80036e8:	681a      	ldr	r2, [r3, #0]
 80036ea:	68bb      	ldr	r3, [r7, #8]
 80036ec:	011b      	lsls	r3, r3, #4
 80036ee:	4413      	add	r3, r2
 80036f0:	f503 73de 	add.w	r3, r3, #444	; 0x1bc
 80036f4:	681b      	ldr	r3, [r3, #0]
 80036f6:	0c1a      	lsrs	r2, r3, #16
 80036f8:	683b      	ldr	r3, [r7, #0]
 80036fa:	3306      	adds	r3, #6
 80036fc:	b2d2      	uxtb	r2, r2
 80036fe:	701a      	strb	r2, [r3, #0]
    aData[7] = (uint8_t)((CAN_RDH0R_DATA7 & hcan->Instance->sFIFOMailBox[RxFifo].RDHR) >> CAN_RDH0R_DATA7_Pos);
 8003700:	68fb      	ldr	r3, [r7, #12]
 8003702:	681a      	ldr	r2, [r3, #0]
 8003704:	68bb      	ldr	r3, [r7, #8]
 8003706:	011b      	lsls	r3, r3, #4
 8003708:	4413      	add	r3, r2
 800370a:	f503 73de 	add.w	r3, r3, #444	; 0x1bc
 800370e:	681b      	ldr	r3, [r3, #0]
 8003710:	0e1a      	lsrs	r2, r3, #24
 8003712:	683b      	ldr	r3, [r7, #0]
 8003714:	3307      	adds	r3, #7
 8003716:	b2d2      	uxtb	r2, r2
 8003718:	701a      	strb	r2, [r3, #0]

    /* Release the FIFO */
    if (RxFifo == CAN_RX_FIFO0) /* Rx element is assigned to Rx FIFO 0 */
 800371a:	68bb      	ldr	r3, [r7, #8]
 800371c:	2b00      	cmp	r3, #0
 800371e:	d108      	bne.n	8003732 <HAL_CAN_GetRxMessage+0x216>
    {
      /* Release RX FIFO 0 */
      SET_BIT(hcan->Instance->RF0R, CAN_RF0R_RFOM0);
 8003720:	68fb      	ldr	r3, [r7, #12]
 8003722:	681b      	ldr	r3, [r3, #0]
 8003724:	68da      	ldr	r2, [r3, #12]
 8003726:	68fb      	ldr	r3, [r7, #12]
 8003728:	681b      	ldr	r3, [r3, #0]
 800372a:	f042 0220 	orr.w	r2, r2, #32
 800372e:	60da      	str	r2, [r3, #12]
 8003730:	e007      	b.n	8003742 <HAL_CAN_GetRxMessage+0x226>
    }
    else /* Rx element is assigned to Rx FIFO 1 */
    {
      /* Release RX FIFO 1 */
      SET_BIT(hcan->Instance->RF1R, CAN_RF1R_RFOM1);
 8003732:	68fb      	ldr	r3, [r7, #12]
 8003734:	681b      	ldr	r3, [r3, #0]
 8003736:	691a      	ldr	r2, [r3, #16]
 8003738:	68fb      	ldr	r3, [r7, #12]
 800373a:	681b      	ldr	r3, [r3, #0]
 800373c:	f042 0220 	orr.w	r2, r2, #32
 8003740:	611a      	str	r2, [r3, #16]
    }

    /* Return function status */
    return HAL_OK;
 8003742:	2300      	movs	r3, #0
 8003744:	e006      	b.n	8003754 <HAL_CAN_GetRxMessage+0x238>
  }
  else
  {
    /* Update error code */
    hcan->ErrorCode |= HAL_CAN_ERROR_NOT_INITIALIZED;
 8003746:	68fb      	ldr	r3, [r7, #12]
 8003748:	6a5b      	ldr	r3, [r3, #36]	; 0x24
 800374a:	f443 2280 	orr.w	r2, r3, #262144	; 0x40000
 800374e:	68fb      	ldr	r3, [r7, #12]
 8003750:	625a      	str	r2, [r3, #36]	; 0x24

    return HAL_ERROR;
 8003752:	2301      	movs	r3, #1
  }
}
 8003754:	4618      	mov	r0, r3
 8003756:	371c      	adds	r7, #28
 8003758:	46bd      	mov	sp, r7
 800375a:	f85d 7b04 	ldr.w	r7, [sp], #4
 800375e:	4770      	bx	lr

08003760 <HAL_CAN_ActivateNotification>:
  * @param  ActiveITs indicates which interrupts will be enabled.
  *         This parameter can be any combination of @arg CAN_Interrupts.
  * @retval HAL status
  */
HAL_StatusTypeDef HAL_CAN_ActivateNotification(CAN_HandleTypeDef *hcan, uint32_t ActiveITs)
{
 8003760:	b480      	push	{r7}
 8003762:	b085      	sub	sp, #20
 8003764:	af00      	add	r7, sp, #0
 8003766:	6078      	str	r0, [r7, #4]
 8003768:	6039      	str	r1, [r7, #0]
  HAL_CAN_StateTypeDef state = hcan->State;
 800376a:	687b      	ldr	r3, [r7, #4]
 800376c:	f893 3020 	ldrb.w	r3, [r3, #32]
 8003770:	73fb      	strb	r3, [r7, #15]

  /* Check function parameters */
  assert_param(IS_CAN_IT(ActiveITs));

  if ((state == HAL_CAN_STATE_READY) ||
 8003772:	7bfb      	ldrb	r3, [r7, #15]
 8003774:	2b01      	cmp	r3, #1
 8003776:	d002      	beq.n	800377e <HAL_CAN_ActivateNotification+0x1e>
 8003778:	7bfb      	ldrb	r3, [r7, #15]
 800377a:	2b02      	cmp	r3, #2
 800377c:	d109      	bne.n	8003792 <HAL_CAN_ActivateNotification+0x32>
      (state == HAL_CAN_STATE_LISTENING))
  {
    /* Enable the selected interrupts */
    __HAL_CAN_ENABLE_IT(hcan, ActiveITs);
 800377e:	687b      	ldr	r3, [r7, #4]
 8003780:	681b      	ldr	r3, [r3, #0]
 8003782:	6959      	ldr	r1, [r3, #20]
 8003784:	687b      	ldr	r3, [r7, #4]
 8003786:	681b      	ldr	r3, [r3, #0]
 8003788:	683a      	ldr	r2, [r7, #0]
 800378a:	430a      	orrs	r2, r1
 800378c:	615a      	str	r2, [r3, #20]

    /* Return function status */
    return HAL_OK;
 800378e:	2300      	movs	r3, #0
 8003790:	e006      	b.n	80037a0 <HAL_CAN_ActivateNotification+0x40>
  }
  else
  {
    /* Update error code */
    hcan->ErrorCode |= HAL_CAN_ERROR_NOT_INITIALIZED;
 8003792:	687b      	ldr	r3, [r7, #4]
 8003794:	6a5b      	ldr	r3, [r3, #36]	; 0x24
 8003796:	f443 2280 	orr.w	r2, r3, #262144	; 0x40000
 800379a:	687b      	ldr	r3, [r7, #4]
 800379c:	625a      	str	r2, [r3, #36]	; 0x24

    return HAL_ERROR;
 800379e:	2301      	movs	r3, #1
  }
}
 80037a0:	4618      	mov	r0, r3
 80037a2:	3714      	adds	r7, #20
 80037a4:	46bd      	mov	sp, r7
 80037a6:	f85d 7b04 	ldr.w	r7, [sp], #4
 80037aa:	4770      	bx	lr

080037ac <HAL_CAN_IRQHandler>:
  * @param  hcan pointer to a CAN_HandleTypeDef structure that contains
  *         the configuration information for the specified CAN.
  * @retval None
  */
void HAL_CAN_IRQHandler(CAN_HandleTypeDef *hcan)
{
 80037ac:	b580      	push	{r7, lr}
 80037ae:	b08a      	sub	sp, #40	; 0x28
 80037b0:	af00      	add	r7, sp, #0
 80037b2:	6078      	str	r0, [r7, #4]
  uint32_t errorcode = HAL_CAN_ERROR_NONE;
 80037b4:	2300      	movs	r3, #0
 80037b6:	627b      	str	r3, [r7, #36]	; 0x24
  uint32_t interrupts = READ_REG(hcan->Instance->IER);
 80037b8:	687b      	ldr	r3, [r7, #4]
 80037ba:	681b      	ldr	r3, [r3, #0]
 80037bc:	695b      	ldr	r3, [r3, #20]
 80037be:	623b      	str	r3, [r7, #32]
  uint32_t msrflags = READ_REG(hcan->Instance->MSR);
 80037c0:	687b      	ldr	r3, [r7, #4]
 80037c2:	681b      	ldr	r3, [r3, #0]
 80037c4:	685b      	ldr	r3, [r3, #4]
 80037c6:	61fb      	str	r3, [r7, #28]
  uint32_t tsrflags = READ_REG(hcan->Instance->TSR);
 80037c8:	687b      	ldr	r3, [r7, #4]
 80037ca:	681b      	ldr	r3, [r3, #0]
 80037cc:	689b      	ldr	r3, [r3, #8]
 80037ce:	61bb      	str	r3, [r7, #24]
  uint32_t rf0rflags = READ_REG(hcan->Instance->RF0R);
 80037d0:	687b      	ldr	r3, [r7, #4]
 80037d2:	681b      	ldr	r3, [r3, #0]
 80037d4:	68db      	ldr	r3, [r3, #12]
 80037d6:	617b      	str	r3, [r7, #20]
  uint32_t rf1rflags = READ_REG(hcan->Instance->RF1R);
 80037d8:	687b      	ldr	r3, [r7, #4]
 80037da:	681b      	ldr	r3, [r3, #0]
 80037dc:	691b      	ldr	r3, [r3, #16]
 80037de:	613b      	str	r3, [r7, #16]
  uint32_t esrflags = READ_REG(hcan->Instance->ESR);
 80037e0:	687b      	ldr	r3, [r7, #4]
 80037e2:	681b      	ldr	r3, [r3, #0]
 80037e4:	699b      	ldr	r3, [r3, #24]
 80037e6:	60fb      	str	r3, [r7, #12]

  /* Transmit Mailbox empty interrupt management *****************************/
  if ((interrupts & CAN_IT_TX_MAILBOX_EMPTY) != 0U)
 80037e8:	6a3b      	ldr	r3, [r7, #32]
 80037ea:	f003 0301 	and.w	r3, r3, #1
 80037ee:	2b00      	cmp	r3, #0
 80037f0:	d07c      	beq.n	80038ec <HAL_CAN_IRQHandler+0x140>
  {
    /* Transmit Mailbox 0 management *****************************************/
    if ((tsrflags & CAN_TSR_RQCP0) != 0U)
 80037f2:	69bb      	ldr	r3, [r7, #24]
 80037f4:	f003 0301 	and.w	r3, r3, #1
 80037f8:	2b00      	cmp	r3, #0
 80037fa:	d023      	beq.n	8003844 <HAL_CAN_IRQHandler+0x98>
    {
      /* Clear the Transmission Complete flag (and TXOK0,ALST0,TERR0 bits) */
      __HAL_CAN_CLEAR_FLAG(hcan, CAN_FLAG_RQCP0);
 80037fc:	687b      	ldr	r3, [r7, #4]
 80037fe:	681b      	ldr	r3, [r3, #0]
 8003800:	2201      	movs	r2, #1
 8003802:	609a      	str	r2, [r3, #8]

      if ((tsrflags & CAN_TSR_TXOK0) != 0U)
 8003804:	69bb      	ldr	r3, [r7, #24]
 8003806:	f003 0302 	and.w	r3, r3, #2
 800380a:	2b00      	cmp	r3, #0
 800380c:	d003      	beq.n	8003816 <HAL_CAN_IRQHandler+0x6a>
#if USE_HAL_CAN_REGISTER_CALLBACKS == 1
        /* Call registered callback*/
        hcan->TxMailbox0CompleteCallback(hcan);
#else
        /* Call weak (surcharged) callback */
        HAL_CAN_TxMailbox0CompleteCallback(hcan);
 800380e:	6878      	ldr	r0, [r7, #4]
 8003810:	f000 f983 	bl	8003b1a <HAL_CAN_TxMailbox0CompleteCallback>
 8003814:	e016      	b.n	8003844 <HAL_CAN_IRQHandler+0x98>
#endif /* USE_HAL_CAN_REGISTER_CALLBACKS */
      }
      else
      {
        if ((tsrflags & CAN_TSR_ALST0) != 0U)
 8003816:	69bb      	ldr	r3, [r7, #24]
 8003818:	f003 0304 	and.w	r3, r3, #4
 800381c:	2b00      	cmp	r3, #0
 800381e:	d004      	beq.n	800382a <HAL_CAN_IRQHandler+0x7e>
        {
          /* Update error code */
          errorcode |= HAL_CAN_ERROR_TX_ALST0;
 8003820:	6a7b      	ldr	r3, [r7, #36]	; 0x24
 8003822:	f443 6300 	orr.w	r3, r3, #2048	; 0x800
 8003826:	627b      	str	r3, [r7, #36]	; 0x24
 8003828:	e00c      	b.n	8003844 <HAL_CAN_IRQHandler+0x98>
        }
        else if ((tsrflags & CAN_TSR_TERR0) != 0U)
 800382a:	69bb      	ldr	r3, [r7, #24]
 800382c:	f003 0308 	and.w	r3, r3, #8
 8003830:	2b00      	cmp	r3, #0
 8003832:	d004      	beq.n	800383e <HAL_CAN_IRQHandler+0x92>
        {
          /* Update error code */
          errorcode |= HAL_CAN_ERROR_TX_TERR0;
 8003834:	6a7b      	ldr	r3, [r7, #36]	; 0x24
 8003836:	f443 5380 	orr.w	r3, r3, #4096	; 0x1000
 800383a:	627b      	str	r3, [r7, #36]	; 0x24
 800383c:	e002      	b.n	8003844 <HAL_CAN_IRQHandler+0x98>
#if USE_HAL_CAN_REGISTER_CALLBACKS == 1
          /* Call registered callback*/
          hcan->TxMailbox0AbortCallback(hcan);
#else
          /* Call weak (surcharged) callback */
          HAL_CAN_TxMailbox0AbortCallback(hcan);
 800383e:	6878      	ldr	r0, [r7, #4]
 8003840:	f000 f989 	bl	8003b56 <HAL_CAN_TxMailbox0AbortCallback>
        }
      }
    }

    /* Transmit Mailbox 1 management *****************************************/
    if ((tsrflags & CAN_TSR_RQCP1) != 0U)
 8003844:	69bb      	ldr	r3, [r7, #24]
 8003846:	f403 7380 	and.w	r3, r3, #256	; 0x100
 800384a:	2b00      	cmp	r3, #0
 800384c:	d024      	beq.n	8003898 <HAL_CAN_IRQHandler+0xec>
    {
      /* Clear the Transmission Complete flag (and TXOK1,ALST1,TERR1 bits) */
      __HAL_CAN_CLEAR_FLAG(hcan, CAN_FLAG_RQCP1);
 800384e:	687b      	ldr	r3, [r7, #4]
 8003850:	681b      	ldr	r3, [r3, #0]
 8003852:	f44f 7280 	mov.w	r2, #256	; 0x100
 8003856:	609a      	str	r2, [r3, #8]

      if ((tsrflags & CAN_TSR_TXOK1) != 0U)
 8003858:	69bb      	ldr	r3, [r7, #24]
 800385a:	f403 7300 	and.w	r3, r3, #512	; 0x200
 800385e:	2b00      	cmp	r3, #0
 8003860:	d003      	beq.n	800386a <HAL_CAN_IRQHandler+0xbe>
#if USE_HAL_CAN_REGISTER_CALLBACKS == 1
        /* Call registered callback*/
        hcan->TxMailbox1CompleteCallback(hcan);
#else
        /* Call weak (surcharged) callback */
        HAL_CAN_TxMailbox1CompleteCallback(hcan);
 8003862:	6878      	ldr	r0, [r7, #4]
 8003864:	f000 f963 	bl	8003b2e <HAL_CAN_TxMailbox1CompleteCallback>
 8003868:	e016      	b.n	8003898 <HAL_CAN_IRQHandler+0xec>
#endif /* USE_HAL_CAN_REGISTER_CALLBACKS */
      }
      else
      {
        if ((tsrflags & CAN_TSR_ALST1) != 0U)
 800386a:	69bb      	ldr	r3, [r7, #24]
 800386c:	f403 6380 	and.w	r3, r3, #1024	; 0x400
 8003870:	2b00      	cmp	r3, #0
 8003872:	d004      	beq.n	800387e <HAL_CAN_IRQHandler+0xd2>
        {
          /* Update error code */
          errorcode |= HAL_CAN_ERROR_TX_ALST1;
 8003874:	6a7b      	ldr	r3, [r7, #36]	; 0x24
 8003876:	f443 5300 	orr.w	r3, r3, #8192	; 0x2000
 800387a:	627b      	str	r3, [r7, #36]	; 0x24
 800387c:	e00c      	b.n	8003898 <HAL_CAN_IRQHandler+0xec>
        }
        else if ((tsrflags & CAN_TSR_TERR1) != 0U)
 800387e:	69bb      	ldr	r3, [r7, #24]
 8003880:	f403 6300 	and.w	r3, r3, #2048	; 0x800
 8003884:	2b00      	cmp	r3, #0
 8003886:	d004      	beq.n	8003892 <HAL_CAN_IRQHandler+0xe6>
        {
          /* Update error code */
          errorcode |= HAL_CAN_ERROR_TX_TERR1;
 8003888:	6a7b      	ldr	r3, [r7, #36]	; 0x24
 800388a:	f443 4380 	orr.w	r3, r3, #16384	; 0x4000
 800388e:	627b      	str	r3, [r7, #36]	; 0x24
 8003890:	e002      	b.n	8003898 <HAL_CAN_IRQHandler+0xec>
#if USE_HAL_CAN_REGISTER_CALLBACKS == 1
          /* Call registered callback*/
          hcan->TxMailbox1AbortCallback(hcan);
#else
          /* Call weak (surcharged) callback */
          HAL_CAN_TxMailbox1AbortCallback(hcan);
 8003892:	6878      	ldr	r0, [r7, #4]
 8003894:	f000 f969 	bl	8003b6a <HAL_CAN_TxMailbox1AbortCallback>
        }
      }
    }

    /* Transmit Mailbox 2 management *****************************************/
    if ((tsrflags & CAN_TSR_RQCP2) != 0U)
 8003898:	69bb      	ldr	r3, [r7, #24]
 800389a:	f403 3380 	and.w	r3, r3, #65536	; 0x10000
 800389e:	2b00      	cmp	r3, #0
 80038a0:	d024      	beq.n	80038ec <HAL_CAN_IRQHandler+0x140>
    {
      /* Clear the Transmission Complete flag (and TXOK2,ALST2,TERR2 bits) */
      __HAL_CAN_CLEAR_FLAG(hcan, CAN_FLAG_RQCP2);
 80038a2:	687b      	ldr	r3, [r7, #4]
 80038a4:	681b      	ldr	r3, [r3, #0]
 80038a6:	f44f 3280 	mov.w	r2, #65536	; 0x10000
 80038aa:	609a      	str	r2, [r3, #8]

      if ((tsrflags & CAN_TSR_TXOK2) != 0U)
 80038ac:	69bb      	ldr	r3, [r7, #24]
 80038ae:	f403 3300 	and.w	r3, r3, #131072	; 0x20000
 80038b2:	2b00      	cmp	r3, #0
 80038b4:	d003      	beq.n	80038be <HAL_CAN_IRQHandler+0x112>
#if USE_HAL_CAN_REGISTER_CALLBACKS == 1
        /* Call registered callback*/
        hcan->TxMailbox2CompleteCallback(hcan);
#else
        /* Call weak (surcharged) callback */
        HAL_CAN_TxMailbox2CompleteCallback(hcan);
 80038b6:	6878      	ldr	r0, [r7, #4]
 80038b8:	f000 f943 	bl	8003b42 <HAL_CAN_TxMailbox2CompleteCallback>
 80038bc:	e016      	b.n	80038ec <HAL_CAN_IRQHandler+0x140>
#endif /* USE_HAL_CAN_REGISTER_CALLBACKS */
      }
      else
      {
        if ((tsrflags & CAN_TSR_ALST2) != 0U)
 80038be:	69bb      	ldr	r3, [r7, #24]
 80038c0:	f403 2380 	and.w	r3, r3, #262144	; 0x40000
 80038c4:	2b00      	cmp	r3, #0
 80038c6:	d004      	beq.n	80038d2 <HAL_CAN_IRQHandler+0x126>
        {
          /* Update error code */
          errorcode |= HAL_CAN_ERROR_TX_ALST2;
 80038c8:	6a7b      	ldr	r3, [r7, #36]	; 0x24
 80038ca:	f443 4300 	orr.w	r3, r3, #32768	; 0x8000
 80038ce:	627b      	str	r3, [r7, #36]	; 0x24
 80038d0:	e00c      	b.n	80038ec <HAL_CAN_IRQHandler+0x140>
        }
        else if ((tsrflags & CAN_TSR_TERR2) != 0U)
 80038d2:	69bb      	ldr	r3, [r7, #24]
 80038d4:	f403 2300 	and.w	r3, r3, #524288	; 0x80000
 80038d8:	2b00      	cmp	r3, #0
 80038da:	d004      	beq.n	80038e6 <HAL_CAN_IRQHandler+0x13a>
        {
          /* Update error code */
          errorcode |= HAL_CAN_ERROR_TX_TERR2;
 80038dc:	6a7b      	ldr	r3, [r7, #36]	; 0x24
 80038de:	f443 3380 	orr.w	r3, r3, #65536	; 0x10000
 80038e2:	627b      	str	r3, [r7, #36]	; 0x24
 80038e4:	e002      	b.n	80038ec <HAL_CAN_IRQHandler+0x140>
#if USE_HAL_CAN_REGISTER_CALLBACKS == 1
          /* Call registered callback*/
          hcan->TxMailbox2AbortCallback(hcan);
#else
          /* Call weak (surcharged) callback */
          HAL_CAN_TxMailbox2AbortCallback(hcan);
 80038e6:	6878      	ldr	r0, [r7, #4]
 80038e8:	f000 f949 	bl	8003b7e <HAL_CAN_TxMailbox2AbortCallback>
      }
    }
  }

  /* Receive FIFO 0 overrun interrupt management *****************************/
  if ((interrupts & CAN_IT_RX_FIFO0_OVERRUN) != 0U)
 80038ec:	6a3b      	ldr	r3, [r7, #32]
 80038ee:	f003 0308 	and.w	r3, r3, #8
 80038f2:	2b00      	cmp	r3, #0
 80038f4:	d00c      	beq.n	8003910 <HAL_CAN_IRQHandler+0x164>
  {
    if ((rf0rflags & CAN_RF0R_FOVR0) != 0U)
 80038f6:	697b      	ldr	r3, [r7, #20]
 80038f8:	f003 0310 	and.w	r3, r3, #16
 80038fc:	2b00      	cmp	r3, #0
 80038fe:	d007      	beq.n	8003910 <HAL_CAN_IRQHandler+0x164>
    {
      /* Set CAN error code to Rx Fifo 0 overrun error */
      errorcode |= HAL_CAN_ERROR_RX_FOV0;
 8003900:	6a7b      	ldr	r3, [r7, #36]	; 0x24
 8003902:	f443 7300 	orr.w	r3, r3, #512	; 0x200
 8003906:	627b      	str	r3, [r7, #36]	; 0x24

      /* Clear FIFO0 Overrun Flag */
      __HAL_CAN_CLEAR_FLAG(hcan, CAN_FLAG_FOV0);
 8003908:	687b      	ldr	r3, [r7, #4]
 800390a:	681b      	ldr	r3, [r3, #0]
 800390c:	2210      	movs	r2, #16
 800390e:	60da      	str	r2, [r3, #12]
    }
  }

  /* Receive FIFO 0 full interrupt management ********************************/
  if ((interrupts & CAN_IT_RX_FIFO0_FULL) != 0U)
 8003910:	6a3b      	ldr	r3, [r7, #32]
 8003912:	f003 0304 	and.w	r3, r3, #4
 8003916:	2b00      	cmp	r3, #0
 8003918:	d00b      	beq.n	8003932 <HAL_CAN_IRQHandler+0x186>
  {
    if ((rf0rflags & CAN_RF0R_FULL0) != 0U)
 800391a:	697b      	ldr	r3, [r7, #20]
 800391c:	f003 0308 	and.w	r3, r3, #8
 8003920:	2b00      	cmp	r3, #0
 8003922:	d006      	beq.n	8003932 <HAL_CAN_IRQHandler+0x186>
    {
      /* Clear FIFO 0 full Flag */
      __HAL_CAN_CLEAR_FLAG(hcan, CAN_FLAG_FF0);
 8003924:	687b      	ldr	r3, [r7, #4]
 8003926:	681b      	ldr	r3, [r3, #0]
 8003928:	2208      	movs	r2, #8
 800392a:	60da      	str	r2, [r3, #12]
#if USE_HAL_CAN_REGISTER_CALLBACKS == 1
      /* Call registered callback*/
      hcan->RxFifo0FullCallback(hcan);
#else
      /* Call weak (surcharged) callback */
      HAL_CAN_RxFifo0FullCallback(hcan);
 800392c:	6878      	ldr	r0, [r7, #4]
 800392e:	f000 f930 	bl	8003b92 <HAL_CAN_RxFifo0FullCallback>
#endif /* USE_HAL_CAN_REGISTER_CALLBACKS */
    }
  }

  /* Receive FIFO 0 message pending interrupt management *********************/
  if ((interrupts & CAN_IT_RX_FIFO0_MSG_PENDING) != 0U)
 8003932:	6a3b      	ldr	r3, [r7, #32]
 8003934:	f003 0302 	and.w	r3, r3, #2
 8003938:	2b00      	cmp	r3, #0
 800393a:	d009      	beq.n	8003950 <HAL_CAN_IRQHandler+0x1a4>
  {
    /* Check if message is still pending */
    if ((hcan->Instance->RF0R & CAN_RF0R_FMP0) != 0U)
 800393c:	687b      	ldr	r3, [r7, #4]
 800393e:	681b      	ldr	r3, [r3, #0]
 8003940:	68db      	ldr	r3, [r3, #12]
 8003942:	f003 0303 	and.w	r3, r3, #3
 8003946:	2b00      	cmp	r3, #0
 8003948:	d002      	beq.n	8003950 <HAL_CAN_IRQHandler+0x1a4>
#if USE_HAL_CAN_REGISTER_CALLBACKS == 1
      /* Call registered callback*/
      hcan->RxFifo0MsgPendingCallback(hcan);
#else
      /* Call weak (surcharged) callback */
      HAL_CAN_RxFifo0MsgPendingCallback(hcan);
 800394a:	6878      	ldr	r0, [r7, #4]
 800394c:	f7ff f978 	bl	8002c40 <HAL_CAN_RxFifo0MsgPendingCallback>
#endif /* USE_HAL_CAN_REGISTER_CALLBACKS */
    }
  }

  /* Receive FIFO 1 overrun interrupt management *****************************/
  if ((interrupts & CAN_IT_RX_FIFO1_OVERRUN) != 0U)
 8003950:	6a3b      	ldr	r3, [r7, #32]
 8003952:	f003 0340 	and.w	r3, r3, #64	; 0x40
 8003956:	2b00      	cmp	r3, #0
 8003958:	d00c      	beq.n	8003974 <HAL_CAN_IRQHandler+0x1c8>
  {
    if ((rf1rflags & CAN_RF1R_FOVR1) != 0U)
 800395a:	693b      	ldr	r3, [r7, #16]
 800395c:	f003 0310 	and.w	r3, r3, #16
 8003960:	2b00      	cmp	r3, #0
 8003962:	d007      	beq.n	8003974 <HAL_CAN_IRQHandler+0x1c8>
    {
      /* Set CAN error code to Rx Fifo 1 overrun error */
      errorcode |= HAL_CAN_ERROR_RX_FOV1;
 8003964:	6a7b      	ldr	r3, [r7, #36]	; 0x24
 8003966:	f443 6380 	orr.w	r3, r3, #1024	; 0x400
 800396a:	627b      	str	r3, [r7, #36]	; 0x24

      /* Clear FIFO1 Overrun Flag */
      __HAL_CAN_CLEAR_FLAG(hcan, CAN_FLAG_FOV1);
 800396c:	687b      	ldr	r3, [r7, #4]
 800396e:	681b      	ldr	r3, [r3, #0]
 8003970:	2210      	movs	r2, #16
 8003972:	611a      	str	r2, [r3, #16]
    }
  }

  /* Receive FIFO 1 full interrupt management ********************************/
  if ((interrupts & CAN_IT_RX_FIFO1_FULL) != 0U)
 8003974:	6a3b      	ldr	r3, [r7, #32]
 8003976:	f003 0320 	and.w	r3, r3, #32
 800397a:	2b00      	cmp	r3, #0
 800397c:	d00b      	beq.n	8003996 <HAL_CAN_IRQHandler+0x1ea>
  {
    if ((rf1rflags & CAN_RF1R_FULL1) != 0U)
 800397e:	693b      	ldr	r3, [r7, #16]
 8003980:	f003 0308 	and.w	r3, r3, #8
 8003984:	2b00      	cmp	r3, #0
 8003986:	d006      	beq.n	8003996 <HAL_CAN_IRQHandler+0x1ea>
    {
      /* Clear FIFO 1 full Flag */
      __HAL_CAN_CLEAR_FLAG(hcan, CAN_FLAG_FF1);
 8003988:	687b      	ldr	r3, [r7, #4]
 800398a:	681b      	ldr	r3, [r3, #0]
 800398c:	2208      	movs	r2, #8
 800398e:	611a      	str	r2, [r3, #16]
#if USE_HAL_CAN_REGISTER_CALLBACKS == 1
      /* Call registered callback*/
      hcan->RxFifo1FullCallback(hcan);
#else
      /* Call weak (surcharged) callback */
      HAL_CAN_RxFifo1FullCallback(hcan);
 8003990:	6878      	ldr	r0, [r7, #4]
 8003992:	f000 f912 	bl	8003bba <HAL_CAN_RxFifo1FullCallback>
#endif /* USE_HAL_CAN_REGISTER_CALLBACKS */
    }
  }

  /* Receive FIFO 1 message pending interrupt management *********************/
  if ((interrupts & CAN_IT_RX_FIFO1_MSG_PENDING) != 0U)
 8003996:	6a3b      	ldr	r3, [r7, #32]
 8003998:	f003 0310 	and.w	r3, r3, #16
 800399c:	2b00      	cmp	r3, #0
 800399e:	d009      	beq.n	80039b4 <HAL_CAN_IRQHandler+0x208>
  {
    /* Check if message is still pending */
    if ((hcan->Instance->RF1R & CAN_RF1R_FMP1) != 0U)
 80039a0:	687b      	ldr	r3, [r7, #4]
 80039a2:	681b      	ldr	r3, [r3, #0]
 80039a4:	691b      	ldr	r3, [r3, #16]
 80039a6:	f003 0303 	and.w	r3, r3, #3
 80039aa:	2b00      	cmp	r3, #0
 80039ac:	d002      	beq.n	80039b4 <HAL_CAN_IRQHandler+0x208>
#if USE_HAL_CAN_REGISTER_CALLBACKS == 1
      /* Call registered callback*/
      hcan->RxFifo1MsgPendingCallback(hcan);
#else
      /* Call weak (surcharged) callback */
      HAL_CAN_RxFifo1MsgPendingCallback(hcan);
 80039ae:	6878      	ldr	r0, [r7, #4]
 80039b0:	f000 f8f9 	bl	8003ba6 <HAL_CAN_RxFifo1MsgPendingCallback>
#endif /* USE_HAL_CAN_REGISTER_CALLBACKS */
    }
  }

  /* Sleep interrupt management *********************************************/
  if ((interrupts & CAN_IT_SLEEP_ACK) != 0U)
 80039b4:	6a3b      	ldr	r3, [r7, #32]
 80039b6:	f403 3300 	and.w	r3, r3, #131072	; 0x20000
 80039ba:	2b00      	cmp	r3, #0
 80039bc:	d00b      	beq.n	80039d6 <HAL_CAN_IRQHandler+0x22a>
  {
    if ((msrflags & CAN_MSR_SLAKI) != 0U)
 80039be:	69fb      	ldr	r3, [r7, #28]
 80039c0:	f003 0310 	and.w	r3, r3, #16
 80039c4:	2b00      	cmp	r3, #0
 80039c6:	d006      	beq.n	80039d6 <HAL_CAN_IRQHandler+0x22a>
    {
      /* Clear Sleep interrupt Flag */
      __HAL_CAN_CLEAR_FLAG(hcan, CAN_FLAG_SLAKI);
 80039c8:	687b      	ldr	r3, [r7, #4]
 80039ca:	681b      	ldr	r3, [r3, #0]
 80039cc:	2210      	movs	r2, #16
 80039ce:	605a      	str	r2, [r3, #4]
#if USE_HAL_CAN_REGISTER_CALLBACKS == 1
      /* Call registered callback*/
      hcan->SleepCallback(hcan);
#else
      /* Call weak (surcharged) callback */
      HAL_CAN_SleepCallback(hcan);
 80039d0:	6878      	ldr	r0, [r7, #4]
 80039d2:	f000 f8fc 	bl	8003bce <HAL_CAN_SleepCallback>
#endif /* USE_HAL_CAN_REGISTER_CALLBACKS */
    }
  }

  /* WakeUp interrupt management *********************************************/
  if ((interrupts & CAN_IT_WAKEUP) != 0U)
 80039d6:	6a3b      	ldr	r3, [r7, #32]
 80039d8:	f403 3380 	and.w	r3, r3, #65536	; 0x10000
 80039dc:	2b00      	cmp	r3, #0
 80039de:	d00b      	beq.n	80039f8 <HAL_CAN_IRQHandler+0x24c>
  {
    if ((msrflags & CAN_MSR_WKUI) != 0U)
 80039e0:	69fb      	ldr	r3, [r7, #28]
 80039e2:	f003 0308 	and.w	r3, r3, #8
 80039e6:	2b00      	cmp	r3, #0
 80039e8:	d006      	beq.n	80039f8 <HAL_CAN_IRQHandler+0x24c>
    {
      /* Clear WakeUp Flag */
      __HAL_CAN_CLEAR_FLAG(hcan, CAN_FLAG_WKU);
 80039ea:	687b      	ldr	r3, [r7, #4]
 80039ec:	681b      	ldr	r3, [r3, #0]
 80039ee:	2208      	movs	r2, #8
 80039f0:	605a      	str	r2, [r3, #4]
#if USE_HAL_CAN_REGISTER_CALLBACKS == 1
      /* Call registered callback*/
      hcan->WakeUpFromRxMsgCallback(hcan);
#else
      /* Call weak (surcharged) callback */
      HAL_CAN_WakeUpFromRxMsgCallback(hcan);
 80039f2:	6878      	ldr	r0, [r7, #4]
 80039f4:	f000 f8f5 	bl	8003be2 <HAL_CAN_WakeUpFromRxMsgCallback>
#endif /* USE_HAL_CAN_REGISTER_CALLBACKS */
    }
  }

  /* Error interrupts management *********************************************/
  if ((interrupts & CAN_IT_ERROR) != 0U)
 80039f8:	6a3b      	ldr	r3, [r7, #32]
 80039fa:	f403 4300 	and.w	r3, r3, #32768	; 0x8000
 80039fe:	2b00      	cmp	r3, #0
 8003a00:	d07b      	beq.n	8003afa <HAL_CAN_IRQHandler+0x34e>
  {
    if ((msrflags & CAN_MSR_ERRI) != 0U)
 8003a02:	69fb      	ldr	r3, [r7, #28]
 8003a04:	f003 0304 	and.w	r3, r3, #4
 8003a08:	2b00      	cmp	r3, #0
 8003a0a:	d072      	beq.n	8003af2 <HAL_CAN_IRQHandler+0x346>
    {
      /* Check Error Warning Flag */
      if (((interrupts & CAN_IT_ERROR_WARNING) != 0U) &&
 8003a0c:	6a3b      	ldr	r3, [r7, #32]
 8003a0e:	f403 7380 	and.w	r3, r3, #256	; 0x100
 8003a12:	2b00      	cmp	r3, #0
 8003a14:	d008      	beq.n	8003a28 <HAL_CAN_IRQHandler+0x27c>
          ((esrflags & CAN_ESR_EWGF) != 0U))
 8003a16:	68fb      	ldr	r3, [r7, #12]
 8003a18:	f003 0301 	and.w	r3, r3, #1
      if (((interrupts & CAN_IT_ERROR_WARNING) != 0U) &&
 8003a1c:	2b00      	cmp	r3, #0
 8003a1e:	d003      	beq.n	8003a28 <HAL_CAN_IRQHandler+0x27c>
      {
        /* Set CAN error code to Error Warning */
        errorcode |= HAL_CAN_ERROR_EWG;
 8003a20:	6a7b      	ldr	r3, [r7, #36]	; 0x24
 8003a22:	f043 0301 	orr.w	r3, r3, #1
 8003a26:	627b      	str	r3, [r7, #36]	; 0x24

        /* No need for clear of Error Warning Flag as read-only */
      }

      /* Check Error Passive Flag */
      if (((interrupts & CAN_IT_ERROR_PASSIVE) != 0U) &&
 8003a28:	6a3b      	ldr	r3, [r7, #32]
 8003a2a:	f403 7300 	and.w	r3, r3, #512	; 0x200
 8003a2e:	2b00      	cmp	r3, #0
 8003a30:	d008      	beq.n	8003a44 <HAL_CAN_IRQHandler+0x298>
          ((esrflags & CAN_ESR_EPVF) != 0U))
 8003a32:	68fb      	ldr	r3, [r7, #12]
 8003a34:	f003 0302 	and.w	r3, r3, #2
      if (((interrupts & CAN_IT_ERROR_PASSIVE) != 0U) &&
 8003a38:	2b00      	cmp	r3, #0
 8003a3a:	d003      	beq.n	8003a44 <HAL_CAN_IRQHandler+0x298>
      {
        /* Set CAN error code to Error Passive */
        errorcode |= HAL_CAN_ERROR_EPV;
 8003a3c:	6a7b      	ldr	r3, [r7, #36]	; 0x24
 8003a3e:	f043 0302 	orr.w	r3, r3, #2
 8003a42:	627b      	str	r3, [r7, #36]	; 0x24

        /* No need for clear of Error Passive Flag as read-only */
      }

      /* Check Bus-off Flag */
      if (((interrupts & CAN_IT_BUSOFF) != 0U) &&
 8003a44:	6a3b      	ldr	r3, [r7, #32]
 8003a46:	f403 6380 	and.w	r3, r3, #1024	; 0x400
 8003a4a:	2b00      	cmp	r3, #0
 8003a4c:	d008      	beq.n	8003a60 <HAL_CAN_IRQHandler+0x2b4>
          ((esrflags & CAN_ESR_BOFF) != 0U))
 8003a4e:	68fb      	ldr	r3, [r7, #12]
 8003a50:	f003 0304 	and.w	r3, r3, #4
      if (((interrupts & CAN_IT_BUSOFF) != 0U) &&
 8003a54:	2b00      	cmp	r3, #0
 8003a56:	d003      	beq.n	8003a60 <HAL_CAN_IRQHandler+0x2b4>
      {
        /* Set CAN error code to Bus-Off */
        errorcode |= HAL_CAN_ERROR_BOF;
 8003a58:	6a7b      	ldr	r3, [r7, #36]	; 0x24
 8003a5a:	f043 0304 	orr.w	r3, r3, #4
 8003a5e:	627b      	str	r3, [r7, #36]	; 0x24

        /* No need for clear of Error Bus-Off as read-only */
      }

      /* Check Last Error Code Flag */
      if (((interrupts & CAN_IT_LAST_ERROR_CODE) != 0U) &&
 8003a60:	6a3b      	ldr	r3, [r7, #32]
 8003a62:	f403 6300 	and.w	r3, r3, #2048	; 0x800
 8003a66:	2b00      	cmp	r3, #0
 8003a68:	d043      	beq.n	8003af2 <HAL_CAN_IRQHandler+0x346>
          ((esrflags & CAN_ESR_LEC) != 0U))
 8003a6a:	68fb      	ldr	r3, [r7, #12]
 8003a6c:	f003 0370 	and.w	r3, r3, #112	; 0x70
      if (((interrupts & CAN_IT_LAST_ERROR_CODE) != 0U) &&
 8003a70:	2b00      	cmp	r3, #0
 8003a72:	d03e      	beq.n	8003af2 <HAL_CAN_IRQHandler+0x346>
      {
        switch (esrflags & CAN_ESR_LEC)
 8003a74:	68fb      	ldr	r3, [r7, #12]
 8003a76:	f003 0370 	and.w	r3, r3, #112	; 0x70
 8003a7a:	2b60      	cmp	r3, #96	; 0x60
 8003a7c:	d02b      	beq.n	8003ad6 <HAL_CAN_IRQHandler+0x32a>
 8003a7e:	2b60      	cmp	r3, #96	; 0x60
 8003a80:	d82e      	bhi.n	8003ae0 <HAL_CAN_IRQHandler+0x334>
 8003a82:	2b50      	cmp	r3, #80	; 0x50
 8003a84:	d022      	beq.n	8003acc <HAL_CAN_IRQHandler+0x320>
 8003a86:	2b50      	cmp	r3, #80	; 0x50
 8003a88:	d82a      	bhi.n	8003ae0 <HAL_CAN_IRQHandler+0x334>
 8003a8a:	2b40      	cmp	r3, #64	; 0x40
 8003a8c:	d019      	beq.n	8003ac2 <HAL_CAN_IRQHandler+0x316>
 8003a8e:	2b40      	cmp	r3, #64	; 0x40
 8003a90:	d826      	bhi.n	8003ae0 <HAL_CAN_IRQHandler+0x334>
 8003a92:	2b30      	cmp	r3, #48	; 0x30
 8003a94:	d010      	beq.n	8003ab8 <HAL_CAN_IRQHandler+0x30c>
 8003a96:	2b30      	cmp	r3, #48	; 0x30
 8003a98:	d822      	bhi.n	8003ae0 <HAL_CAN_IRQHandler+0x334>
 8003a9a:	2b10      	cmp	r3, #16
 8003a9c:	d002      	beq.n	8003aa4 <HAL_CAN_IRQHandler+0x2f8>
 8003a9e:	2b20      	cmp	r3, #32
 8003aa0:	d005      	beq.n	8003aae <HAL_CAN_IRQHandler+0x302>
          case (CAN_ESR_LEC_2 | CAN_ESR_LEC_1):
            /* Set CAN error code to CRC error */
            errorcode |= HAL_CAN_ERROR_CRC;
            break;
          default:
            break;
 8003aa2:	e01d      	b.n	8003ae0 <HAL_CAN_IRQHandler+0x334>
            errorcode |= HAL_CAN_ERROR_STF;
 8003aa4:	6a7b      	ldr	r3, [r7, #36]	; 0x24
 8003aa6:	f043 0308 	orr.w	r3, r3, #8
 8003aaa:	627b      	str	r3, [r7, #36]	; 0x24
            break;
 8003aac:	e019      	b.n	8003ae2 <HAL_CAN_IRQHandler+0x336>
            errorcode |= HAL_CAN_ERROR_FOR;
 8003aae:	6a7b      	ldr	r3, [r7, #36]	; 0x24
 8003ab0:	f043 0310 	orr.w	r3, r3, #16
 8003ab4:	627b      	str	r3, [r7, #36]	; 0x24
            break;
 8003ab6:	e014      	b.n	8003ae2 <HAL_CAN_IRQHandler+0x336>
            errorcode |= HAL_CAN_ERROR_ACK;
 8003ab8:	6a7b      	ldr	r3, [r7, #36]	; 0x24
 8003aba:	f043 0320 	orr.w	r3, r3, #32
 8003abe:	627b      	str	r3, [r7, #36]	; 0x24
            break;
 8003ac0:	e00f      	b.n	8003ae2 <HAL_CAN_IRQHandler+0x336>
            errorcode |= HAL_CAN_ERROR_BR;
 8003ac2:	6a7b      	ldr	r3, [r7, #36]	; 0x24
 8003ac4:	f043 0340 	orr.w	r3, r3, #64	; 0x40
 8003ac8:	627b      	str	r3, [r7, #36]	; 0x24
            break;
 8003aca:	e00a      	b.n	8003ae2 <HAL_CAN_IRQHandler+0x336>
            errorcode |= HAL_CAN_ERROR_BD;
 8003acc:	6a7b      	ldr	r3, [r7, #36]	; 0x24
 8003ace:	f043 0380 	orr.w	r3, r3, #128	; 0x80
 8003ad2:	627b      	str	r3, [r7, #36]	; 0x24
            break;
 8003ad4:	e005      	b.n	8003ae2 <HAL_CAN_IRQHandler+0x336>
            errorcode |= HAL_CAN_ERROR_CRC;
 8003ad6:	6a7b      	ldr	r3, [r7, #36]	; 0x24
 8003ad8:	f443 7380 	orr.w	r3, r3, #256	; 0x100
 8003adc:	627b      	str	r3, [r7, #36]	; 0x24
            break;
 8003ade:	e000      	b.n	8003ae2 <HAL_CAN_IRQHandler+0x336>
            break;
 8003ae0:	bf00      	nop
        }

        /* Clear Last error code Flag */
        CLEAR_BIT(hcan->Instance->ESR, CAN_ESR_LEC);
 8003ae2:	687b      	ldr	r3, [r7, #4]
 8003ae4:	681b      	ldr	r3, [r3, #0]
 8003ae6:	699a      	ldr	r2, [r3, #24]
 8003ae8:	687b      	ldr	r3, [r7, #4]
 8003aea:	681b      	ldr	r3, [r3, #0]
 8003aec:	f022 0270 	bic.w	r2, r2, #112	; 0x70
 8003af0:	619a      	str	r2, [r3, #24]
      }
    }

    /* Clear ERRI Flag */
    __HAL_CAN_CLEAR_FLAG(hcan, CAN_FLAG_ERRI);
 8003af2:	687b      	ldr	r3, [r7, #4]
 8003af4:	681b      	ldr	r3, [r3, #0]
 8003af6:	2204      	movs	r2, #4
 8003af8:	605a      	str	r2, [r3, #4]
  }

  /* Call the Error call Back in case of Errors */
  if (errorcode != HAL_CAN_ERROR_NONE)
 8003afa:	6a7b      	ldr	r3, [r7, #36]	; 0x24
 8003afc:	2b00      	cmp	r3, #0
 8003afe:	d008      	beq.n	8003b12 <HAL_CAN_IRQHandler+0x366>
  {
    /* Update error code in handle */
    hcan->ErrorCode |= errorcode;
 8003b00:	687b      	ldr	r3, [r7, #4]
 8003b02:	6a5a      	ldr	r2, [r3, #36]	; 0x24
 8003b04:	6a7b      	ldr	r3, [r7, #36]	; 0x24
 8003b06:	431a      	orrs	r2, r3
 8003b08:	687b      	ldr	r3, [r7, #4]
 8003b0a:	625a      	str	r2, [r3, #36]	; 0x24
#if USE_HAL_CAN_REGISTER_CALLBACKS == 1
    /* Call registered callback*/
    hcan->ErrorCallback(hcan);
#else
    /* Call weak (surcharged) callback */
    HAL_CAN_ErrorCallback(hcan);
 8003b0c:	6878      	ldr	r0, [r7, #4]
 8003b0e:	f000 f872 	bl	8003bf6 <HAL_CAN_ErrorCallback>
#endif /* USE_HAL_CAN_REGISTER_CALLBACKS */
  }
}
 8003b12:	bf00      	nop
 8003b14:	3728      	adds	r7, #40	; 0x28
 8003b16:	46bd      	mov	sp, r7
 8003b18:	bd80      	pop	{r7, pc}

08003b1a <HAL_CAN_TxMailbox0CompleteCallback>:
  * @param  hcan pointer to a CAN_HandleTypeDef structure that contains
  *         the configuration information for the specified CAN.
  * @retval None
  */
__weak void HAL_CAN_TxMailbox0CompleteCallback(CAN_HandleTypeDef *hcan)
{
 8003b1a:	b480      	push	{r7}
 8003b1c:	b083      	sub	sp, #12
 8003b1e:	af00      	add	r7, sp, #0
 8003b20:	6078      	str	r0, [r7, #4]

  /* NOTE : This function Should not be modified, when the callback is needed,
            the HAL_CAN_TxMailbox0CompleteCallback could be implemented in the
            user file
   */
}
 8003b22:	bf00      	nop
 8003b24:	370c      	adds	r7, #12
 8003b26:	46bd      	mov	sp, r7
 8003b28:	f85d 7b04 	ldr.w	r7, [sp], #4
 8003b2c:	4770      	bx	lr

08003b2e <HAL_CAN_TxMailbox1CompleteCallback>:
  * @param  hcan pointer to a CAN_HandleTypeDef structure that contains
  *         the configuration information for the specified CAN.
  * @retval None
  */
__weak void HAL_CAN_TxMailbox1CompleteCallback(CAN_HandleTypeDef *hcan)
{
 8003b2e:	b480      	push	{r7}
 8003b30:	b083      	sub	sp, #12
 8003b32:	af00      	add	r7, sp, #0
 8003b34:	6078      	str	r0, [r7, #4]

  /* NOTE : This function Should not be modified, when the callback is needed,
            the HAL_CAN_TxMailbox1CompleteCallback could be implemented in the
            user file
   */
}
 8003b36:	bf00      	nop
 8003b38:	370c      	adds	r7, #12
 8003b3a:	46bd      	mov	sp, r7
 8003b3c:	f85d 7b04 	ldr.w	r7, [sp], #4
 8003b40:	4770      	bx	lr

08003b42 <HAL_CAN_TxMailbox2CompleteCallback>:
  * @param  hcan pointer to a CAN_HandleTypeDef structure that contains
  *         the configuration information for the specified CAN.
  * @retval None
  */
__weak void HAL_CAN_TxMailbox2CompleteCallback(CAN_HandleTypeDef *hcan)
{
 8003b42:	b480      	push	{r7}
 8003b44:	b083      	sub	sp, #12
 8003b46:	af00      	add	r7, sp, #0
 8003b48:	6078      	str	r0, [r7, #4]

  /* NOTE : This function Should not be modified, when the callback is needed,
            the HAL_CAN_TxMailbox2CompleteCallback could be implemented in the
            user file
   */
}
 8003b4a:	bf00      	nop
 8003b4c:	370c      	adds	r7, #12
 8003b4e:	46bd      	mov	sp, r7
 8003b50:	f85d 7b04 	ldr.w	r7, [sp], #4
 8003b54:	4770      	bx	lr

08003b56 <HAL_CAN_TxMailbox0AbortCallback>:
  * @param  hcan pointer to an CAN_HandleTypeDef structure that contains
  *         the configuration information for the specified CAN.
  * @retval None
  */
__weak void HAL_CAN_TxMailbox0AbortCallback(CAN_HandleTypeDef *hcan)
{
 8003b56:	b480      	push	{r7}
 8003b58:	b083      	sub	sp, #12
 8003b5a:	af00      	add	r7, sp, #0
 8003b5c:	6078      	str	r0, [r7, #4]

  /* NOTE : This function Should not be modified, when the callback is needed,
            the HAL_CAN_TxMailbox0AbortCallback could be implemented in the
            user file
   */
}
 8003b5e:	bf00      	nop
 8003b60:	370c      	adds	r7, #12
 8003b62:	46bd      	mov	sp, r7
 8003b64:	f85d 7b04 	ldr.w	r7, [sp], #4
 8003b68:	4770      	bx	lr

08003b6a <HAL_CAN_TxMailbox1AbortCallback>:
  * @param  hcan pointer to an CAN_HandleTypeDef structure that contains
  *         the configuration information for the specified CAN.
  * @retval None
  */
__weak void HAL_CAN_TxMailbox1AbortCallback(CAN_HandleTypeDef *hcan)
{
 8003b6a:	b480      	push	{r7}
 8003b6c:	b083      	sub	sp, #12
 8003b6e:	af00      	add	r7, sp, #0
 8003b70:	6078      	str	r0, [r7, #4]

  /* NOTE : This function Should not be modified, when the callback is needed,
            the HAL_CAN_TxMailbox1AbortCallback could be implemented in the
            user file
   */
}
 8003b72:	bf00      	nop
 8003b74:	370c      	adds	r7, #12
 8003b76:	46bd      	mov	sp, r7
 8003b78:	f85d 7b04 	ldr.w	r7, [sp], #4
 8003b7c:	4770      	bx	lr

08003b7e <HAL_CAN_TxMailbox2AbortCallback>:
  * @param  hcan pointer to an CAN_HandleTypeDef structure that contains
  *         the configuration information for the specified CAN.
  * @retval None
  */
__weak void HAL_CAN_TxMailbox2AbortCallback(CAN_HandleTypeDef *hcan)
{
 8003b7e:	b480      	push	{r7}
 8003b80:	b083      	sub	sp, #12
 8003b82:	af00      	add	r7, sp, #0
 8003b84:	6078      	str	r0, [r7, #4]

  /* NOTE : This function Should not be modified, when the callback is needed,
            the HAL_CAN_TxMailbox2AbortCallback could be implemented in the
            user file
   */
}
 8003b86:	bf00      	nop
 8003b88:	370c      	adds	r7, #12
 8003b8a:	46bd      	mov	sp, r7
 8003b8c:	f85d 7b04 	ldr.w	r7, [sp], #4
 8003b90:	4770      	bx	lr

08003b92 <HAL_CAN_RxFifo0FullCallback>:
  * @param  hcan pointer to a CAN_HandleTypeDef structure that contains
  *         the configuration information for the specified CAN.
  * @retval None
  */
__weak void HAL_CAN_RxFifo0FullCallback(CAN_HandleTypeDef *hcan)
{
 8003b92:	b480      	push	{r7}
 8003b94:	b083      	sub	sp, #12
 8003b96:	af00      	add	r7, sp, #0
 8003b98:	6078      	str	r0, [r7, #4]

  /* NOTE : This function Should not be modified, when the callback is needed,
            the HAL_CAN_RxFifo0FullCallback could be implemented in the user
            file
   */
}
 8003b9a:	bf00      	nop
 8003b9c:	370c      	adds	r7, #12
 8003b9e:	46bd      	mov	sp, r7
 8003ba0:	f85d 7b04 	ldr.w	r7, [sp], #4
 8003ba4:	4770      	bx	lr

08003ba6 <HAL_CAN_RxFifo1MsgPendingCallback>:
  * @param  hcan pointer to a CAN_HandleTypeDef structure that contains
  *         the configuration information for the specified CAN.
  * @retval None
  */
__weak void HAL_CAN_RxFifo1MsgPendingCallback(CAN_HandleTypeDef *hcan)
{
 8003ba6:	b480      	push	{r7}
 8003ba8:	b083      	sub	sp, #12
 8003baa:	af00      	add	r7, sp, #0
 8003bac:	6078      	str	r0, [r7, #4]

  /* NOTE : This function Should not be modified, when the callback is needed,
            the HAL_CAN_RxFifo1MsgPendingCallback could be implemented in the
            user file
   */
}
 8003bae:	bf00      	nop
 8003bb0:	370c      	adds	r7, #12
 8003bb2:	46bd      	mov	sp, r7
 8003bb4:	f85d 7b04 	ldr.w	r7, [sp], #4
 8003bb8:	4770      	bx	lr

08003bba <HAL_CAN_RxFifo1FullCallback>:
  * @param  hcan pointer to a CAN_HandleTypeDef structure that contains
  *         the configuration information for the specified CAN.
  * @retval None
  */
__weak void HAL_CAN_RxFifo1FullCallback(CAN_HandleTypeDef *hcan)
{
 8003bba:	b480      	push	{r7}
 8003bbc:	b083      	sub	sp, #12
 8003bbe:	af00      	add	r7, sp, #0
 8003bc0:	6078      	str	r0, [r7, #4]

  /* NOTE : This function Should not be modified, when the callback is needed,
            the HAL_CAN_RxFifo1FullCallback could be implemented in the user
            file
   */
}
 8003bc2:	bf00      	nop
 8003bc4:	370c      	adds	r7, #12
 8003bc6:	46bd      	mov	sp, r7
 8003bc8:	f85d 7b04 	ldr.w	r7, [sp], #4
 8003bcc:	4770      	bx	lr

08003bce <HAL_CAN_SleepCallback>:
  * @param  hcan pointer to a CAN_HandleTypeDef structure that contains
  *         the configuration information for the specified CAN.
  * @retval None
  */
__weak void HAL_CAN_SleepCallback(CAN_HandleTypeDef *hcan)
{
 8003bce:	b480      	push	{r7}
 8003bd0:	b083      	sub	sp, #12
 8003bd2:	af00      	add	r7, sp, #0
 8003bd4:	6078      	str	r0, [r7, #4]
  UNUSED(hcan);

  /* NOTE : This function Should not be modified, when the callback is needed,
            the HAL_CAN_SleepCallback could be implemented in the user file
   */
}
 8003bd6:	bf00      	nop
 8003bd8:	370c      	adds	r7, #12
 8003bda:	46bd      	mov	sp, r7
 8003bdc:	f85d 7b04 	ldr.w	r7, [sp], #4
 8003be0:	4770      	bx	lr

08003be2 <HAL_CAN_WakeUpFromRxMsgCallback>:
  * @param  hcan pointer to a CAN_HandleTypeDef structure that contains
  *         the configuration information for the specified CAN.
  * @retval None
  */
__weak void HAL_CAN_WakeUpFromRxMsgCallback(CAN_HandleTypeDef *hcan)
{
 8003be2:	b480      	push	{r7}
 8003be4:	b083      	sub	sp, #12
 8003be6:	af00      	add	r7, sp, #0
 8003be8:	6078      	str	r0, [r7, #4]

  /* NOTE : This function Should not be modified, when the callback is needed,
            the HAL_CAN_WakeUpFromRxMsgCallback could be implemented in the
            user file
   */
}
 8003bea:	bf00      	nop
 8003bec:	370c      	adds	r7, #12
 8003bee:	46bd      	mov	sp, r7
 8003bf0:	f85d 7b04 	ldr.w	r7, [sp], #4
 8003bf4:	4770      	bx	lr

08003bf6 <HAL_CAN_ErrorCallback>:
  * @param  hcan pointer to a CAN_HandleTypeDef structure that contains
  *         the configuration information for the specified CAN.
  * @retval None
  */
__weak void HAL_CAN_ErrorCallback(CAN_HandleTypeDef *hcan)
{
 8003bf6:	b480      	push	{r7}
 8003bf8:	b083      	sub	sp, #12
 8003bfa:	af00      	add	r7, sp, #0
 8003bfc:	6078      	str	r0, [r7, #4]
  UNUSED(hcan);

  /* NOTE : This function Should not be modified, when the callback is needed,
            the HAL_CAN_ErrorCallback could be implemented in the user file
   */
}
 8003bfe:	bf00      	nop
 8003c00:	370c      	adds	r7, #12
 8003c02:	46bd      	mov	sp, r7
 8003c04:	f85d 7b04 	ldr.w	r7, [sp], #4
 8003c08:	4770      	bx	lr
	...

08003c0c <__NVIC_SetPriorityGrouping>:
           In case of a conflict between priority grouping and available
           priority bits (__NVIC_PRIO_BITS), the smallest possible priority group is set.
  \param [in]      PriorityGroup  Priority grouping field.
 */
__STATIC_INLINE void __NVIC_SetPriorityGrouping(uint32_t PriorityGroup)
{
 8003c0c:	b480      	push	{r7}
 8003c0e:	b085      	sub	sp, #20
 8003c10:	af00      	add	r7, sp, #0
 8003c12:	6078      	str	r0, [r7, #4]
  uint32_t reg_value;
  uint32_t PriorityGroupTmp = (PriorityGroup & (uint32_t)0x07UL);             /* only values 0..7 are used          */
 8003c14:	687b      	ldr	r3, [r7, #4]
 8003c16:	f003 0307 	and.w	r3, r3, #7
 8003c1a:	60fb      	str	r3, [r7, #12]

  reg_value  =  SCB->AIRCR;                                                   /* read old register configuration    */
 8003c1c:	4b0c      	ldr	r3, [pc, #48]	; (8003c50 <__NVIC_SetPriorityGrouping+0x44>)
 8003c1e:	68db      	ldr	r3, [r3, #12]
 8003c20:	60bb      	str	r3, [r7, #8]
  reg_value &= ~((uint32_t)(SCB_AIRCR_VECTKEY_Msk | SCB_AIRCR_PRIGROUP_Msk)); /* clear bits to change               */
 8003c22:	68ba      	ldr	r2, [r7, #8]
 8003c24:	f64f 03ff 	movw	r3, #63743	; 0xf8ff
 8003c28:	4013      	ands	r3, r2
 8003c2a:	60bb      	str	r3, [r7, #8]
  reg_value  =  (reg_value                                   |
                ((uint32_t)0x5FAUL << SCB_AIRCR_VECTKEY_Pos) |
                (PriorityGroupTmp << SCB_AIRCR_PRIGROUP_Pos)  );              /* Insert write key and priority group */
 8003c2c:	68fb      	ldr	r3, [r7, #12]
 8003c2e:	021a      	lsls	r2, r3, #8
                ((uint32_t)0x5FAUL << SCB_AIRCR_VECTKEY_Pos) |
 8003c30:	68bb      	ldr	r3, [r7, #8]
 8003c32:	4313      	orrs	r3, r2
  reg_value  =  (reg_value                                   |
 8003c34:	f043 63bf 	orr.w	r3, r3, #100139008	; 0x5f80000
 8003c38:	f443 3300 	orr.w	r3, r3, #131072	; 0x20000
 8003c3c:	60bb      	str	r3, [r7, #8]
  SCB->AIRCR =  reg_value;
 8003c3e:	4a04      	ldr	r2, [pc, #16]	; (8003c50 <__NVIC_SetPriorityGrouping+0x44>)
 8003c40:	68bb      	ldr	r3, [r7, #8]
 8003c42:	60d3      	str	r3, [r2, #12]
}
 8003c44:	bf00      	nop
 8003c46:	3714      	adds	r7, #20
 8003c48:	46bd      	mov	sp, r7
 8003c4a:	f85d 7b04 	ldr.w	r7, [sp], #4
 8003c4e:	4770      	bx	lr
 8003c50:	e000ed00 	.word	0xe000ed00

08003c54 <__NVIC_GetPriorityGrouping>:
  \brief   Get Priority Grouping
  \details Reads the priority grouping field from the NVIC Interrupt Controller.
  \return                Priority grouping field (SCB->AIRCR [10:8] PRIGROUP field).
 */
__STATIC_INLINE uint32_t __NVIC_GetPriorityGrouping(void)
{
 8003c54:	b480      	push	{r7}
 8003c56:	af00      	add	r7, sp, #0
  return ((uint32_t)((SCB->AIRCR & SCB_AIRCR_PRIGROUP_Msk) >> SCB_AIRCR_PRIGROUP_Pos));
 8003c58:	4b04      	ldr	r3, [pc, #16]	; (8003c6c <__NVIC_GetPriorityGrouping+0x18>)
 8003c5a:	68db      	ldr	r3, [r3, #12]
 8003c5c:	0a1b      	lsrs	r3, r3, #8
 8003c5e:	f003 0307 	and.w	r3, r3, #7
}
 8003c62:	4618      	mov	r0, r3
 8003c64:	46bd      	mov	sp, r7
 8003c66:	f85d 7b04 	ldr.w	r7, [sp], #4
 8003c6a:	4770      	bx	lr
 8003c6c:	e000ed00 	.word	0xe000ed00

08003c70 <__NVIC_EnableIRQ>:
  \details Enables a device specific interrupt in the NVIC interrupt controller.
  \param [in]      IRQn  Device specific interrupt number.
  \note    IRQn must not be negative.
 */
__STATIC_INLINE void __NVIC_EnableIRQ(IRQn_Type IRQn)
{
 8003c70:	b480      	push	{r7}
 8003c72:	b083      	sub	sp, #12
 8003c74:	af00      	add	r7, sp, #0
 8003c76:	4603      	mov	r3, r0
 8003c78:	71fb      	strb	r3, [r7, #7]
  if ((int32_t)(IRQn) >= 0)
 8003c7a:	f997 3007 	ldrsb.w	r3, [r7, #7]
 8003c7e:	2b00      	cmp	r3, #0
 8003c80:	db0b      	blt.n	8003c9a <__NVIC_EnableIRQ+0x2a>
  {
    __COMPILER_BARRIER();
    NVIC->ISER[(((uint32_t)IRQn) >> 5UL)] = (uint32_t)(1UL << (((uint32_t)IRQn) & 0x1FUL));
 8003c82:	79fb      	ldrb	r3, [r7, #7]
 8003c84:	f003 021f 	and.w	r2, r3, #31
 8003c88:	4907      	ldr	r1, [pc, #28]	; (8003ca8 <__NVIC_EnableIRQ+0x38>)
 8003c8a:	f997 3007 	ldrsb.w	r3, [r7, #7]
 8003c8e:	095b      	lsrs	r3, r3, #5
 8003c90:	2001      	movs	r0, #1
 8003c92:	fa00 f202 	lsl.w	r2, r0, r2
 8003c96:	f841 2023 	str.w	r2, [r1, r3, lsl #2]
    __COMPILER_BARRIER();
  }
}
 8003c9a:	bf00      	nop
 8003c9c:	370c      	adds	r7, #12
 8003c9e:	46bd      	mov	sp, r7
 8003ca0:	f85d 7b04 	ldr.w	r7, [sp], #4
 8003ca4:	4770      	bx	lr
 8003ca6:	bf00      	nop
 8003ca8:	e000e100 	.word	0xe000e100

08003cac <__NVIC_SetPriority>:
  \param [in]      IRQn  Interrupt number.
  \param [in]  priority  Priority to set.
  \note    The priority cannot be set for every processor exception.
 */
__STATIC_INLINE void __NVIC_SetPriority(IRQn_Type IRQn, uint32_t priority)
{
 8003cac:	b480      	push	{r7}
 8003cae:	b083      	sub	sp, #12
 8003cb0:	af00      	add	r7, sp, #0
 8003cb2:	4603      	mov	r3, r0
 8003cb4:	6039      	str	r1, [r7, #0]
 8003cb6:	71fb      	strb	r3, [r7, #7]
  if ((int32_t)(IRQn) >= 0)
 8003cb8:	f997 3007 	ldrsb.w	r3, [r7, #7]
 8003cbc:	2b00      	cmp	r3, #0
 8003cbe:	db0a      	blt.n	8003cd6 <__NVIC_SetPriority+0x2a>
  {
    NVIC->IP[((uint32_t)IRQn)]               = (uint8_t)((priority << (8U - __NVIC_PRIO_BITS)) & (uint32_t)0xFFUL);
 8003cc0:	683b      	ldr	r3, [r7, #0]
 8003cc2:	b2da      	uxtb	r2, r3
 8003cc4:	490c      	ldr	r1, [pc, #48]	; (8003cf8 <__NVIC_SetPriority+0x4c>)
 8003cc6:	f997 3007 	ldrsb.w	r3, [r7, #7]
 8003cca:	0112      	lsls	r2, r2, #4
 8003ccc:	b2d2      	uxtb	r2, r2
 8003cce:	440b      	add	r3, r1
 8003cd0:	f883 2300 	strb.w	r2, [r3, #768]	; 0x300
  }
  else
  {
    SCB->SHP[(((uint32_t)IRQn) & 0xFUL)-4UL] = (uint8_t)((priority << (8U - __NVIC_PRIO_BITS)) & (uint32_t)0xFFUL);
  }
}
 8003cd4:	e00a      	b.n	8003cec <__NVIC_SetPriority+0x40>
    SCB->SHP[(((uint32_t)IRQn) & 0xFUL)-4UL] = (uint8_t)((priority << (8U - __NVIC_PRIO_BITS)) & (uint32_t)0xFFUL);
 8003cd6:	683b      	ldr	r3, [r7, #0]
 8003cd8:	b2da      	uxtb	r2, r3
 8003cda:	4908      	ldr	r1, [pc, #32]	; (8003cfc <__NVIC_SetPriority+0x50>)
 8003cdc:	79fb      	ldrb	r3, [r7, #7]
 8003cde:	f003 030f 	and.w	r3, r3, #15
 8003ce2:	3b04      	subs	r3, #4
 8003ce4:	0112      	lsls	r2, r2, #4
 8003ce6:	b2d2      	uxtb	r2, r2
 8003ce8:	440b      	add	r3, r1
 8003cea:	761a      	strb	r2, [r3, #24]
}
 8003cec:	bf00      	nop
 8003cee:	370c      	adds	r7, #12
 8003cf0:	46bd      	mov	sp, r7
 8003cf2:	f85d 7b04 	ldr.w	r7, [sp], #4
 8003cf6:	4770      	bx	lr
 8003cf8:	e000e100 	.word	0xe000e100
 8003cfc:	e000ed00 	.word	0xe000ed00

08003d00 <NVIC_EncodePriority>:
  \param [in]   PreemptPriority  Preemptive priority value (starting from 0).
  \param [in]       SubPriority  Subpriority value (starting from 0).
  \return                        Encoded priority. Value can be used in the function \ref NVIC_SetPriority().
 */
__STATIC_INLINE uint32_t NVIC_EncodePriority (uint32_t PriorityGroup, uint32_t PreemptPriority, uint32_t SubPriority)
{
 8003d00:	b480      	push	{r7}
 8003d02:	b089      	sub	sp, #36	; 0x24
 8003d04:	af00      	add	r7, sp, #0
 8003d06:	60f8      	str	r0, [r7, #12]
 8003d08:	60b9      	str	r1, [r7, #8]
 8003d0a:	607a      	str	r2, [r7, #4]
  uint32_t PriorityGroupTmp = (PriorityGroup & (uint32_t)0x07UL);   /* only values 0..7 are used          */
 8003d0c:	68fb      	ldr	r3, [r7, #12]
 8003d0e:	f003 0307 	and.w	r3, r3, #7
 8003d12:	61fb      	str	r3, [r7, #28]
  uint32_t PreemptPriorityBits;
  uint32_t SubPriorityBits;

  PreemptPriorityBits = ((7UL - PriorityGroupTmp) > (uint32_t)(__NVIC_PRIO_BITS)) ? (uint32_t)(__NVIC_PRIO_BITS) : (uint32_t)(7UL - PriorityGroupTmp);
 8003d14:	69fb      	ldr	r3, [r7, #28]
 8003d16:	f1c3 0307 	rsb	r3, r3, #7
 8003d1a:	2b04      	cmp	r3, #4
 8003d1c:	bf28      	it	cs
 8003d1e:	2304      	movcs	r3, #4
 8003d20:	61bb      	str	r3, [r7, #24]
  SubPriorityBits     = ((PriorityGroupTmp + (uint32_t)(__NVIC_PRIO_BITS)) < (uint32_t)7UL) ? (uint32_t)0UL : (uint32_t)((PriorityGroupTmp - 7UL) + (uint32_t)(__NVIC_PRIO_BITS));
 8003d22:	69fb      	ldr	r3, [r7, #28]
 8003d24:	3304      	adds	r3, #4
 8003d26:	2b06      	cmp	r3, #6
 8003d28:	d902      	bls.n	8003d30 <NVIC_EncodePriority+0x30>
 8003d2a:	69fb      	ldr	r3, [r7, #28]
 8003d2c:	3b03      	subs	r3, #3
 8003d2e:	e000      	b.n	8003d32 <NVIC_EncodePriority+0x32>
 8003d30:	2300      	movs	r3, #0
 8003d32:	617b      	str	r3, [r7, #20]

  return (
           ((PreemptPriority & (uint32_t)((1UL << (PreemptPriorityBits)) - 1UL)) << SubPriorityBits) |
 8003d34:	f04f 32ff 	mov.w	r2, #4294967295	; 0xffffffff
 8003d38:	69bb      	ldr	r3, [r7, #24]
 8003d3a:	fa02 f303 	lsl.w	r3, r2, r3
 8003d3e:	43da      	mvns	r2, r3
 8003d40:	68bb      	ldr	r3, [r7, #8]
 8003d42:	401a      	ands	r2, r3
 8003d44:	697b      	ldr	r3, [r7, #20]
 8003d46:	409a      	lsls	r2, r3
           ((SubPriority     & (uint32_t)((1UL << (SubPriorityBits    )) - 1UL)))
 8003d48:	f04f 31ff 	mov.w	r1, #4294967295	; 0xffffffff
 8003d4c:	697b      	ldr	r3, [r7, #20]
 8003d4e:	fa01 f303 	lsl.w	r3, r1, r3
 8003d52:	43d9      	mvns	r1, r3
 8003d54:	687b      	ldr	r3, [r7, #4]
 8003d56:	400b      	ands	r3, r1
           ((PreemptPriority & (uint32_t)((1UL << (PreemptPriorityBits)) - 1UL)) << SubPriorityBits) |
 8003d58:	4313      	orrs	r3, r2
         );
}
 8003d5a:	4618      	mov	r0, r3
 8003d5c:	3724      	adds	r7, #36	; 0x24
 8003d5e:	46bd      	mov	sp, r7
 8003d60:	f85d 7b04 	ldr.w	r7, [sp], #4
 8003d64:	4770      	bx	lr
	...

08003d68 <SysTick_Config>:
  \note    When the variable <b>__Vendor_SysTickConfig</b> is set to 1, then the
           function <b>SysTick_Config</b> is not included. In this case, the file <b><i>device</i>.h</b>
           must contain a vendor-specific implementation of this function.
 */
__STATIC_INLINE uint32_t SysTick_Config(uint32_t ticks)
{
 8003d68:	b580      	push	{r7, lr}
 8003d6a:	b082      	sub	sp, #8
 8003d6c:	af00      	add	r7, sp, #0
 8003d6e:	6078      	str	r0, [r7, #4]
  if ((ticks - 1UL) > SysTick_LOAD_RELOAD_Msk)
 8003d70:	687b      	ldr	r3, [r7, #4]
 8003d72:	3b01      	subs	r3, #1
 8003d74:	f1b3 7f80 	cmp.w	r3, #16777216	; 0x1000000
 8003d78:	d301      	bcc.n	8003d7e <SysTick_Config+0x16>
  {
    return (1UL);                                                   /* Reload value impossible */
 8003d7a:	2301      	movs	r3, #1
 8003d7c:	e00f      	b.n	8003d9e <SysTick_Config+0x36>
  }

  SysTick->LOAD  = (uint32_t)(ticks - 1UL);                         /* set reload register */
 8003d7e:	4a0a      	ldr	r2, [pc, #40]	; (8003da8 <SysTick_Config+0x40>)
 8003d80:	687b      	ldr	r3, [r7, #4]
 8003d82:	3b01      	subs	r3, #1
 8003d84:	6053      	str	r3, [r2, #4]
  NVIC_SetPriority (SysTick_IRQn, (1UL << __NVIC_PRIO_BITS) - 1UL); /* set Priority for Systick Interrupt */
 8003d86:	210f      	movs	r1, #15
 8003d88:	f04f 30ff 	mov.w	r0, #4294967295	; 0xffffffff
 8003d8c:	f7ff ff8e 	bl	8003cac <__NVIC_SetPriority>
  SysTick->VAL   = 0UL;                                             /* Load the SysTick Counter Value */
 8003d90:	4b05      	ldr	r3, [pc, #20]	; (8003da8 <SysTick_Config+0x40>)
 8003d92:	2200      	movs	r2, #0
 8003d94:	609a      	str	r2, [r3, #8]
  SysTick->CTRL  = SysTick_CTRL_CLKSOURCE_Msk |
 8003d96:	4b04      	ldr	r3, [pc, #16]	; (8003da8 <SysTick_Config+0x40>)
 8003d98:	2207      	movs	r2, #7
 8003d9a:	601a      	str	r2, [r3, #0]
                   SysTick_CTRL_TICKINT_Msk   |
                   SysTick_CTRL_ENABLE_Msk;                         /* Enable SysTick IRQ and SysTick Timer */
  return (0UL);                                                     /* Function successful */
 8003d9c:	2300      	movs	r3, #0
}
 8003d9e:	4618      	mov	r0, r3
 8003da0:	3708      	adds	r7, #8
 8003da2:	46bd      	mov	sp, r7
 8003da4:	bd80      	pop	{r7, pc}
 8003da6:	bf00      	nop
 8003da8:	e000e010 	.word	0xe000e010

08003dac <HAL_NVIC_SetPriorityGrouping>:
  * @note   When the NVIC_PriorityGroup_0 is selected, IRQ preemption is no more possible. 
  *         The pending IRQ priority will be managed only by the subpriority. 
  * @retval None
  */
void HAL_NVIC_SetPriorityGrouping(uint32_t PriorityGroup)
{
 8003dac:	b580      	push	{r7, lr}
 8003dae:	b082      	sub	sp, #8
 8003db0:	af00      	add	r7, sp, #0
 8003db2:	6078      	str	r0, [r7, #4]
  /* Check the parameters */
  assert_param(IS_NVIC_PRIORITY_GROUP(PriorityGroup));
  
  /* Set the PRIGROUP[10:8] bits according to the PriorityGroup parameter value */
  NVIC_SetPriorityGrouping(PriorityGroup);
 8003db4:	6878      	ldr	r0, [r7, #4]
 8003db6:	f7ff ff29 	bl	8003c0c <__NVIC_SetPriorityGrouping>
}
 8003dba:	bf00      	nop
 8003dbc:	3708      	adds	r7, #8
 8003dbe:	46bd      	mov	sp, r7
 8003dc0:	bd80      	pop	{r7, pc}

08003dc2 <HAL_NVIC_SetPriority>:
  *         This parameter can be a value between 0 and 15
  *         A lower priority value indicates a higher priority.          
  * @retval None
  */
void HAL_NVIC_SetPriority(IRQn_Type IRQn, uint32_t PreemptPriority, uint32_t SubPriority)
{ 
 8003dc2:	b580      	push	{r7, lr}
 8003dc4:	b086      	sub	sp, #24
 8003dc6:	af00      	add	r7, sp, #0
 8003dc8:	4603      	mov	r3, r0
 8003dca:	60b9      	str	r1, [r7, #8]
 8003dcc:	607a      	str	r2, [r7, #4]
 8003dce:	73fb      	strb	r3, [r7, #15]
  uint32_t prioritygroup = 0x00U;
 8003dd0:	2300      	movs	r3, #0
 8003dd2:	617b      	str	r3, [r7, #20]
  
  /* Check the parameters */
  assert_param(IS_NVIC_SUB_PRIORITY(SubPriority));
  assert_param(IS_NVIC_PREEMPTION_PRIORITY(PreemptPriority));
  
  prioritygroup = NVIC_GetPriorityGrouping();
 8003dd4:	f7ff ff3e 	bl	8003c54 <__NVIC_GetPriorityGrouping>
 8003dd8:	6178      	str	r0, [r7, #20]
  
  NVIC_SetPriority(IRQn, NVIC_EncodePriority(prioritygroup, PreemptPriority, SubPriority));
 8003dda:	687a      	ldr	r2, [r7, #4]
 8003ddc:	68b9      	ldr	r1, [r7, #8]
 8003dde:	6978      	ldr	r0, [r7, #20]
 8003de0:	f7ff ff8e 	bl	8003d00 <NVIC_EncodePriority>
 8003de4:	4602      	mov	r2, r0
 8003de6:	f997 300f 	ldrsb.w	r3, [r7, #15]
 8003dea:	4611      	mov	r1, r2
 8003dec:	4618      	mov	r0, r3
 8003dee:	f7ff ff5d 	bl	8003cac <__NVIC_SetPriority>
}
 8003df2:	bf00      	nop
 8003df4:	3718      	adds	r7, #24
 8003df6:	46bd      	mov	sp, r7
 8003df8:	bd80      	pop	{r7, pc}

08003dfa <HAL_NVIC_EnableIRQ>:
  *         This parameter can be an enumerator of IRQn_Type enumeration
  *         (For the complete STM32 Devices IRQ Channels list, please refer to the appropriate CMSIS device file (stm32f4xxxx.h))
  * @retval None
  */
void HAL_NVIC_EnableIRQ(IRQn_Type IRQn)
{
 8003dfa:	b580      	push	{r7, lr}
 8003dfc:	b082      	sub	sp, #8
 8003dfe:	af00      	add	r7, sp, #0
 8003e00:	4603      	mov	r3, r0
 8003e02:	71fb      	strb	r3, [r7, #7]
  /* Check the parameters */
  assert_param(IS_NVIC_DEVICE_IRQ(IRQn));
  
  /* Enable interrupt */
  NVIC_EnableIRQ(IRQn);
 8003e04:	f997 3007 	ldrsb.w	r3, [r7, #7]
 8003e08:	4618      	mov	r0, r3
 8003e0a:	f7ff ff31 	bl	8003c70 <__NVIC_EnableIRQ>
}
 8003e0e:	bf00      	nop
 8003e10:	3708      	adds	r7, #8
 8003e12:	46bd      	mov	sp, r7
 8003e14:	bd80      	pop	{r7, pc}

08003e16 <HAL_SYSTICK_Config>:
  * @param  TicksNumb Specifies the ticks Number of ticks between two interrupts.
  * @retval status:  - 0  Function succeeded.
  *                  - 1  Function failed.
  */
uint32_t HAL_SYSTICK_Config(uint32_t TicksNumb)
{
 8003e16:	b580      	push	{r7, lr}
 8003e18:	b082      	sub	sp, #8
 8003e1a:	af00      	add	r7, sp, #0
 8003e1c:	6078      	str	r0, [r7, #4]
   return SysTick_Config(TicksNumb);
 8003e1e:	6878      	ldr	r0, [r7, #4]
 8003e20:	f7ff ffa2 	bl	8003d68 <SysTick_Config>
 8003e24:	4603      	mov	r3, r0
}
 8003e26:	4618      	mov	r0, r3
 8003e28:	3708      	adds	r7, #8
 8003e2a:	46bd      	mov	sp, r7
 8003e2c:	bd80      	pop	{r7, pc}
	...

08003e30 <HAL_DMA_Init>:
  * @param  hdma Pointer to a DMA_HandleTypeDef structure that contains
  *               the configuration information for the specified DMA Stream.  
  * @retval HAL status
  */
HAL_StatusTypeDef HAL_DMA_Init(DMA_HandleTypeDef *hdma)
{
 8003e30:	b580      	push	{r7, lr}
 8003e32:	b086      	sub	sp, #24
 8003e34:	af00      	add	r7, sp, #0
 8003e36:	6078      	str	r0, [r7, #4]
  uint32_t tmp = 0U;
 8003e38:	2300      	movs	r3, #0
 8003e3a:	617b      	str	r3, [r7, #20]
  uint32_t tickstart = HAL_GetTick();
 8003e3c:	f7ff f84e 	bl	8002edc <HAL_GetTick>
 8003e40:	6138      	str	r0, [r7, #16]
  DMA_Base_Registers *regs;

  /* Check the DMA peripheral state */
  if(hdma == NULL)
 8003e42:	687b      	ldr	r3, [r7, #4]
 8003e44:	2b00      	cmp	r3, #0
 8003e46:	d101      	bne.n	8003e4c <HAL_DMA_Init+0x1c>
  {
    return HAL_ERROR;
 8003e48:	2301      	movs	r3, #1
 8003e4a:	e099      	b.n	8003f80 <HAL_DMA_Init+0x150>
    assert_param(IS_DMA_MEMORY_BURST(hdma->Init.MemBurst));
    assert_param(IS_DMA_PERIPHERAL_BURST(hdma->Init.PeriphBurst));
  }

  /* Change DMA peripheral state */
  hdma->State = HAL_DMA_STATE_BUSY;
 8003e4c:	687b      	ldr	r3, [r7, #4]
 8003e4e:	2202      	movs	r2, #2
 8003e50:	f883 2035 	strb.w	r2, [r3, #53]	; 0x35

  /* Allocate lock resource */
  __HAL_UNLOCK(hdma);
 8003e54:	687b      	ldr	r3, [r7, #4]
 8003e56:	2200      	movs	r2, #0
 8003e58:	f883 2034 	strb.w	r2, [r3, #52]	; 0x34
  
  /* Disable the peripheral */
  __HAL_DMA_DISABLE(hdma);
 8003e5c:	687b      	ldr	r3, [r7, #4]
 8003e5e:	681b      	ldr	r3, [r3, #0]
 8003e60:	681a      	ldr	r2, [r3, #0]
 8003e62:	687b      	ldr	r3, [r7, #4]
 8003e64:	681b      	ldr	r3, [r3, #0]
 8003e66:	f022 0201 	bic.w	r2, r2, #1
 8003e6a:	601a      	str	r2, [r3, #0]
  
  /* Check if the DMA Stream is effectively disabled */
  while((hdma->Instance->CR & DMA_SxCR_EN) != RESET)
 8003e6c:	e00f      	b.n	8003e8e <HAL_DMA_Init+0x5e>
  {
    /* Check for the Timeout */
    if((HAL_GetTick() - tickstart ) > HAL_TIMEOUT_DMA_ABORT)
 8003e6e:	f7ff f835 	bl	8002edc <HAL_GetTick>
 8003e72:	4602      	mov	r2, r0
 8003e74:	693b      	ldr	r3, [r7, #16]
 8003e76:	1ad3      	subs	r3, r2, r3
 8003e78:	2b05      	cmp	r3, #5
 8003e7a:	d908      	bls.n	8003e8e <HAL_DMA_Init+0x5e>
    {
      /* Update error code */
      hdma->ErrorCode = HAL_DMA_ERROR_TIMEOUT;
 8003e7c:	687b      	ldr	r3, [r7, #4]
 8003e7e:	2220      	movs	r2, #32
 8003e80:	655a      	str	r2, [r3, #84]	; 0x54
      
      /* Change the DMA state */
      hdma->State = HAL_DMA_STATE_TIMEOUT;
 8003e82:	687b      	ldr	r3, [r7, #4]
 8003e84:	2203      	movs	r2, #3
 8003e86:	f883 2035 	strb.w	r2, [r3, #53]	; 0x35
      
      return HAL_TIMEOUT;
 8003e8a:	2303      	movs	r3, #3
 8003e8c:	e078      	b.n	8003f80 <HAL_DMA_Init+0x150>
  while((hdma->Instance->CR & DMA_SxCR_EN) != RESET)
 8003e8e:	687b      	ldr	r3, [r7, #4]
 8003e90:	681b      	ldr	r3, [r3, #0]
 8003e92:	681b      	ldr	r3, [r3, #0]
 8003e94:	f003 0301 	and.w	r3, r3, #1
 8003e98:	2b00      	cmp	r3, #0
 8003e9a:	d1e8      	bne.n	8003e6e <HAL_DMA_Init+0x3e>
    }
  }
  
  /* Get the CR register value */
  tmp = hdma->Instance->CR;
 8003e9c:	687b      	ldr	r3, [r7, #4]
 8003e9e:	681b      	ldr	r3, [r3, #0]
 8003ea0:	681b      	ldr	r3, [r3, #0]
 8003ea2:	617b      	str	r3, [r7, #20]

  /* Clear CHSEL, MBURST, PBURST, PL, MSIZE, PSIZE, MINC, PINC, CIRC, DIR, CT and DBM bits */
  tmp &= ((uint32_t)~(DMA_SxCR_CHSEL | DMA_SxCR_MBURST | DMA_SxCR_PBURST | \
 8003ea4:	697a      	ldr	r2, [r7, #20]
 8003ea6:	4b38      	ldr	r3, [pc, #224]	; (8003f88 <HAL_DMA_Init+0x158>)
 8003ea8:	4013      	ands	r3, r2
 8003eaa:	617b      	str	r3, [r7, #20]
                      DMA_SxCR_PL    | DMA_SxCR_MSIZE  | DMA_SxCR_PSIZE  | \
                      DMA_SxCR_MINC  | DMA_SxCR_PINC   | DMA_SxCR_CIRC   | \
                      DMA_SxCR_DIR   | DMA_SxCR_CT     | DMA_SxCR_DBM));

  /* Prepare the DMA Stream configuration */
  tmp |=  hdma->Init.Channel             | hdma->Init.Direction        |
 8003eac:	687b      	ldr	r3, [r7, #4]
 8003eae:	685a      	ldr	r2, [r3, #4]
 8003eb0:	687b      	ldr	r3, [r7, #4]
 8003eb2:	689b      	ldr	r3, [r3, #8]
 8003eb4:	431a      	orrs	r2, r3
          hdma->Init.PeriphInc           | hdma->Init.MemInc           |
 8003eb6:	687b      	ldr	r3, [r7, #4]
 8003eb8:	68db      	ldr	r3, [r3, #12]
  tmp |=  hdma->Init.Channel             | hdma->Init.Direction        |
 8003eba:	431a      	orrs	r2, r3
          hdma->Init.PeriphInc           | hdma->Init.MemInc           |
 8003ebc:	687b      	ldr	r3, [r7, #4]
 8003ebe:	691b      	ldr	r3, [r3, #16]
 8003ec0:	431a      	orrs	r2, r3
          hdma->Init.PeriphDataAlignment | hdma->Init.MemDataAlignment |
 8003ec2:	687b      	ldr	r3, [r7, #4]
 8003ec4:	695b      	ldr	r3, [r3, #20]
          hdma->Init.PeriphInc           | hdma->Init.MemInc           |
 8003ec6:	431a      	orrs	r2, r3
          hdma->Init.PeriphDataAlignment | hdma->Init.MemDataAlignment |
 8003ec8:	687b      	ldr	r3, [r7, #4]
 8003eca:	699b      	ldr	r3, [r3, #24]
 8003ecc:	431a      	orrs	r2, r3
          hdma->Init.Mode                | hdma->Init.Priority;
 8003ece:	687b      	ldr	r3, [r7, #4]
 8003ed0:	69db      	ldr	r3, [r3, #28]
          hdma->Init.PeriphDataAlignment | hdma->Init.MemDataAlignment |
 8003ed2:	431a      	orrs	r2, r3
          hdma->Init.Mode                | hdma->Init.Priority;
 8003ed4:	687b      	ldr	r3, [r7, #4]
 8003ed6:	6a1b      	ldr	r3, [r3, #32]
 8003ed8:	4313      	orrs	r3, r2
  tmp |=  hdma->Init.Channel             | hdma->Init.Direction        |
 8003eda:	697a      	ldr	r2, [r7, #20]
 8003edc:	4313      	orrs	r3, r2
 8003ede:	617b      	str	r3, [r7, #20]

  /* the Memory burst and peripheral burst are not used when the FIFO is disabled */
  if(hdma->Init.FIFOMode == DMA_FIFOMODE_ENABLE)
 8003ee0:	687b      	ldr	r3, [r7, #4]
 8003ee2:	6a5b      	ldr	r3, [r3, #36]	; 0x24
 8003ee4:	2b04      	cmp	r3, #4
 8003ee6:	d107      	bne.n	8003ef8 <HAL_DMA_Init+0xc8>
  {
    /* Get memory burst and peripheral burst */
    tmp |=  hdma->Init.MemBurst | hdma->Init.PeriphBurst;
 8003ee8:	687b      	ldr	r3, [r7, #4]
 8003eea:	6ada      	ldr	r2, [r3, #44]	; 0x2c
 8003eec:	687b      	ldr	r3, [r7, #4]
 8003eee:	6b1b      	ldr	r3, [r3, #48]	; 0x30
 8003ef0:	4313      	orrs	r3, r2
 8003ef2:	697a      	ldr	r2, [r7, #20]
 8003ef4:	4313      	orrs	r3, r2
 8003ef6:	617b      	str	r3, [r7, #20]
  }
  
  /* Write to DMA Stream CR register */
  hdma->Instance->CR = tmp;  
 8003ef8:	687b      	ldr	r3, [r7, #4]
 8003efa:	681b      	ldr	r3, [r3, #0]
 8003efc:	697a      	ldr	r2, [r7, #20]
 8003efe:	601a      	str	r2, [r3, #0]

  /* Get the FCR register value */
  tmp = hdma->Instance->FCR;
 8003f00:	687b      	ldr	r3, [r7, #4]
 8003f02:	681b      	ldr	r3, [r3, #0]
 8003f04:	695b      	ldr	r3, [r3, #20]
 8003f06:	617b      	str	r3, [r7, #20]

  /* Clear Direct mode and FIFO threshold bits */
  tmp &= (uint32_t)~(DMA_SxFCR_DMDIS | DMA_SxFCR_FTH);
 8003f08:	697b      	ldr	r3, [r7, #20]
 8003f0a:	f023 0307 	bic.w	r3, r3, #7
 8003f0e:	617b      	str	r3, [r7, #20]

  /* Prepare the DMA Stream FIFO configuration */
  tmp |= hdma->Init.FIFOMode;
 8003f10:	687b      	ldr	r3, [r7, #4]
 8003f12:	6a5b      	ldr	r3, [r3, #36]	; 0x24
 8003f14:	697a      	ldr	r2, [r7, #20]
 8003f16:	4313      	orrs	r3, r2
 8003f18:	617b      	str	r3, [r7, #20]

  /* The FIFO threshold is not used when the FIFO mode is disabled */
  if(hdma->Init.FIFOMode == DMA_FIFOMODE_ENABLE)
 8003f1a:	687b      	ldr	r3, [r7, #4]
 8003f1c:	6a5b      	ldr	r3, [r3, #36]	; 0x24
 8003f1e:	2b04      	cmp	r3, #4
 8003f20:	d117      	bne.n	8003f52 <HAL_DMA_Init+0x122>
  {
    /* Get the FIFO threshold */
    tmp |= hdma->Init.FIFOThreshold;
 8003f22:	687b      	ldr	r3, [r7, #4]
 8003f24:	6a9b      	ldr	r3, [r3, #40]	; 0x28
 8003f26:	697a      	ldr	r2, [r7, #20]
 8003f28:	4313      	orrs	r3, r2
 8003f2a:	617b      	str	r3, [r7, #20]
    
    /* Check compatibility between FIFO threshold level and size of the memory burst */
    /* for INCR4, INCR8, INCR16 bursts */
    if (hdma->Init.MemBurst != DMA_MBURST_SINGLE)
 8003f2c:	687b      	ldr	r3, [r7, #4]
 8003f2e:	6adb      	ldr	r3, [r3, #44]	; 0x2c
 8003f30:	2b00      	cmp	r3, #0
 8003f32:	d00e      	beq.n	8003f52 <HAL_DMA_Init+0x122>
    {
      if (DMA_CheckFifoParam(hdma) != HAL_OK)
 8003f34:	6878      	ldr	r0, [r7, #4]
 8003f36:	f000 fb01 	bl	800453c <DMA_CheckFifoParam>
 8003f3a:	4603      	mov	r3, r0
 8003f3c:	2b00      	cmp	r3, #0
 8003f3e:	d008      	beq.n	8003f52 <HAL_DMA_Init+0x122>
      {
        /* Update error code */
        hdma->ErrorCode = HAL_DMA_ERROR_PARAM;
 8003f40:	687b      	ldr	r3, [r7, #4]
 8003f42:	2240      	movs	r2, #64	; 0x40
 8003f44:	655a      	str	r2, [r3, #84]	; 0x54
        
        /* Change the DMA state */
        hdma->State = HAL_DMA_STATE_READY;
 8003f46:	687b      	ldr	r3, [r7, #4]
 8003f48:	2201      	movs	r2, #1
 8003f4a:	f883 2035 	strb.w	r2, [r3, #53]	; 0x35
        
        return HAL_ERROR; 
 8003f4e:	2301      	movs	r3, #1
 8003f50:	e016      	b.n	8003f80 <HAL_DMA_Init+0x150>
      }
    }
  }
  
  /* Write to DMA Stream FCR */
  hdma->Instance->FCR = tmp;
 8003f52:	687b      	ldr	r3, [r7, #4]
 8003f54:	681b      	ldr	r3, [r3, #0]
 8003f56:	697a      	ldr	r2, [r7, #20]
 8003f58:	615a      	str	r2, [r3, #20]

  /* Initialize StreamBaseAddress and StreamIndex parameters to be used to calculate
     DMA steam Base Address needed by HAL_DMA_IRQHandler() and HAL_DMA_PollForTransfer() */
  regs = (DMA_Base_Registers *)DMA_CalcBaseAndBitshift(hdma);
 8003f5a:	6878      	ldr	r0, [r7, #4]
 8003f5c:	f000 fab8 	bl	80044d0 <DMA_CalcBaseAndBitshift>
 8003f60:	4603      	mov	r3, r0
 8003f62:	60fb      	str	r3, [r7, #12]
  
  /* Clear all interrupt flags */
  regs->IFCR = 0x3FU << hdma->StreamIndex;
 8003f64:	687b      	ldr	r3, [r7, #4]
 8003f66:	6ddb      	ldr	r3, [r3, #92]	; 0x5c
 8003f68:	223f      	movs	r2, #63	; 0x3f
 8003f6a:	409a      	lsls	r2, r3
 8003f6c:	68fb      	ldr	r3, [r7, #12]
 8003f6e:	609a      	str	r2, [r3, #8]

  /* Initialize the error code */
  hdma->ErrorCode = HAL_DMA_ERROR_NONE;
 8003f70:	687b      	ldr	r3, [r7, #4]
 8003f72:	2200      	movs	r2, #0
 8003f74:	655a      	str	r2, [r3, #84]	; 0x54
                                                                                     
  /* Initialize the DMA state */
  hdma->State = HAL_DMA_STATE_READY;
 8003f76:	687b      	ldr	r3, [r7, #4]
 8003f78:	2201      	movs	r2, #1
 8003f7a:	f883 2035 	strb.w	r2, [r3, #53]	; 0x35

  return HAL_OK;
 8003f7e:	2300      	movs	r3, #0
}
 8003f80:	4618      	mov	r0, r3
 8003f82:	3718      	adds	r7, #24
 8003f84:	46bd      	mov	sp, r7
 8003f86:	bd80      	pop	{r7, pc}
 8003f88:	f010803f 	.word	0xf010803f

08003f8c <HAL_DMA_Start_IT>:
  * @param  DstAddress The destination memory Buffer address
  * @param  DataLength The length of data to be transferred from source to destination
  * @retval HAL status
  */
HAL_StatusTypeDef HAL_DMA_Start_IT(DMA_HandleTypeDef *hdma, uint32_t SrcAddress, uint32_t DstAddress, uint32_t DataLength)
{
 8003f8c:	b580      	push	{r7, lr}
 8003f8e:	b086      	sub	sp, #24
 8003f90:	af00      	add	r7, sp, #0
 8003f92:	60f8      	str	r0, [r7, #12]
 8003f94:	60b9      	str	r1, [r7, #8]
 8003f96:	607a      	str	r2, [r7, #4]
 8003f98:	603b      	str	r3, [r7, #0]
  HAL_StatusTypeDef status = HAL_OK;
 8003f9a:	2300      	movs	r3, #0
 8003f9c:	75fb      	strb	r3, [r7, #23]

  /* calculate DMA base and stream number */
  DMA_Base_Registers *regs = (DMA_Base_Registers *)hdma->StreamBaseAddress;
 8003f9e:	68fb      	ldr	r3, [r7, #12]
 8003fa0:	6d9b      	ldr	r3, [r3, #88]	; 0x58
 8003fa2:	613b      	str	r3, [r7, #16]
  
  /* Check the parameters */
  assert_param(IS_DMA_BUFFER_SIZE(DataLength));
 
  /* Process locked */
  __HAL_LOCK(hdma);
 8003fa4:	68fb      	ldr	r3, [r7, #12]
 8003fa6:	f893 3034 	ldrb.w	r3, [r3, #52]	; 0x34
 8003faa:	2b01      	cmp	r3, #1
 8003fac:	d101      	bne.n	8003fb2 <HAL_DMA_Start_IT+0x26>
 8003fae:	2302      	movs	r3, #2
 8003fb0:	e040      	b.n	8004034 <HAL_DMA_Start_IT+0xa8>
 8003fb2:	68fb      	ldr	r3, [r7, #12]
 8003fb4:	2201      	movs	r2, #1
 8003fb6:	f883 2034 	strb.w	r2, [r3, #52]	; 0x34
  
  if(HAL_DMA_STATE_READY == hdma->State)
 8003fba:	68fb      	ldr	r3, [r7, #12]
 8003fbc:	f893 3035 	ldrb.w	r3, [r3, #53]	; 0x35
 8003fc0:	b2db      	uxtb	r3, r3
 8003fc2:	2b01      	cmp	r3, #1
 8003fc4:	d12f      	bne.n	8004026 <HAL_DMA_Start_IT+0x9a>
  {
    /* Change DMA peripheral state */
    hdma->State = HAL_DMA_STATE_BUSY;
 8003fc6:	68fb      	ldr	r3, [r7, #12]
 8003fc8:	2202      	movs	r2, #2
 8003fca:	f883 2035 	strb.w	r2, [r3, #53]	; 0x35
    
    /* Initialize the error code */
    hdma->ErrorCode = HAL_DMA_ERROR_NONE;
 8003fce:	68fb      	ldr	r3, [r7, #12]
 8003fd0:	2200      	movs	r2, #0
 8003fd2:	655a      	str	r2, [r3, #84]	; 0x54
    
    /* Configure the source, destination address and the data length */
    DMA_SetConfig(hdma, SrcAddress, DstAddress, DataLength);
 8003fd4:	683b      	ldr	r3, [r7, #0]
 8003fd6:	687a      	ldr	r2, [r7, #4]
 8003fd8:	68b9      	ldr	r1, [r7, #8]
 8003fda:	68f8      	ldr	r0, [r7, #12]
 8003fdc:	f000 fa4a 	bl	8004474 <DMA_SetConfig>
    
    /* Clear all interrupt flags at correct offset within the register */
    regs->IFCR = 0x3FU << hdma->StreamIndex;
 8003fe0:	68fb      	ldr	r3, [r7, #12]
 8003fe2:	6ddb      	ldr	r3, [r3, #92]	; 0x5c
 8003fe4:	223f      	movs	r2, #63	; 0x3f
 8003fe6:	409a      	lsls	r2, r3
 8003fe8:	693b      	ldr	r3, [r7, #16]
 8003fea:	609a      	str	r2, [r3, #8]
    
    /* Enable Common interrupts*/
    hdma->Instance->CR  |= DMA_IT_TC | DMA_IT_TE | DMA_IT_DME;
 8003fec:	68fb      	ldr	r3, [r7, #12]
 8003fee:	681b      	ldr	r3, [r3, #0]
 8003ff0:	681a      	ldr	r2, [r3, #0]
 8003ff2:	68fb      	ldr	r3, [r7, #12]
 8003ff4:	681b      	ldr	r3, [r3, #0]
 8003ff6:	f042 0216 	orr.w	r2, r2, #22
 8003ffa:	601a      	str	r2, [r3, #0]
    
    if(hdma->XferHalfCpltCallback != NULL)
 8003ffc:	68fb      	ldr	r3, [r7, #12]
 8003ffe:	6c1b      	ldr	r3, [r3, #64]	; 0x40
 8004000:	2b00      	cmp	r3, #0
 8004002:	d007      	beq.n	8004014 <HAL_DMA_Start_IT+0x88>
    {
      hdma->Instance->CR  |= DMA_IT_HT;
 8004004:	68fb      	ldr	r3, [r7, #12]
 8004006:	681b      	ldr	r3, [r3, #0]
 8004008:	681a      	ldr	r2, [r3, #0]
 800400a:	68fb      	ldr	r3, [r7, #12]
 800400c:	681b      	ldr	r3, [r3, #0]
 800400e:	f042 0208 	orr.w	r2, r2, #8
 8004012:	601a      	str	r2, [r3, #0]
    }
    
    /* Enable the Peripheral */
    __HAL_DMA_ENABLE(hdma);
 8004014:	68fb      	ldr	r3, [r7, #12]
 8004016:	681b      	ldr	r3, [r3, #0]
 8004018:	681a      	ldr	r2, [r3, #0]
 800401a:	68fb      	ldr	r3, [r7, #12]
 800401c:	681b      	ldr	r3, [r3, #0]
 800401e:	f042 0201 	orr.w	r2, r2, #1
 8004022:	601a      	str	r2, [r3, #0]
 8004024:	e005      	b.n	8004032 <HAL_DMA_Start_IT+0xa6>
  }
  else
  {
    /* Process unlocked */
    __HAL_UNLOCK(hdma);	  
 8004026:	68fb      	ldr	r3, [r7, #12]
 8004028:	2200      	movs	r2, #0
 800402a:	f883 2034 	strb.w	r2, [r3, #52]	; 0x34
    
    /* Return error status */
    status = HAL_BUSY;
 800402e:	2302      	movs	r3, #2
 8004030:	75fb      	strb	r3, [r7, #23]
  }
  
  return status;
 8004032:	7dfb      	ldrb	r3, [r7, #23]
}
 8004034:	4618      	mov	r0, r3
 8004036:	3718      	adds	r7, #24
 8004038:	46bd      	mov	sp, r7
 800403a:	bd80      	pop	{r7, pc}

0800403c <HAL_DMA_Abort>:
  *        and the Stream will be effectively disabled only after the transfer of
  *        this single data is finished.  
  * @retval HAL status
  */
HAL_StatusTypeDef HAL_DMA_Abort(DMA_HandleTypeDef *hdma)
{
 800403c:	b580      	push	{r7, lr}
 800403e:	b084      	sub	sp, #16
 8004040:	af00      	add	r7, sp, #0
 8004042:	6078      	str	r0, [r7, #4]
  /* calculate DMA base and stream number */
  DMA_Base_Registers *regs = (DMA_Base_Registers *)hdma->StreamBaseAddress;
 8004044:	687b      	ldr	r3, [r7, #4]
 8004046:	6d9b      	ldr	r3, [r3, #88]	; 0x58
 8004048:	60fb      	str	r3, [r7, #12]
  
  uint32_t tickstart = HAL_GetTick();
 800404a:	f7fe ff47 	bl	8002edc <HAL_GetTick>
 800404e:	60b8      	str	r0, [r7, #8]
  
  if(hdma->State != HAL_DMA_STATE_BUSY)
 8004050:	687b      	ldr	r3, [r7, #4]
 8004052:	f893 3035 	ldrb.w	r3, [r3, #53]	; 0x35
 8004056:	b2db      	uxtb	r3, r3
 8004058:	2b02      	cmp	r3, #2
 800405a:	d008      	beq.n	800406e <HAL_DMA_Abort+0x32>
  {
    hdma->ErrorCode = HAL_DMA_ERROR_NO_XFER;
 800405c:	687b      	ldr	r3, [r7, #4]
 800405e:	2280      	movs	r2, #128	; 0x80
 8004060:	655a      	str	r2, [r3, #84]	; 0x54
    
    /* Process Unlocked */
    __HAL_UNLOCK(hdma);
 8004062:	687b      	ldr	r3, [r7, #4]
 8004064:	2200      	movs	r2, #0
 8004066:	f883 2034 	strb.w	r2, [r3, #52]	; 0x34
    
    return HAL_ERROR;
 800406a:	2301      	movs	r3, #1
 800406c:	e052      	b.n	8004114 <HAL_DMA_Abort+0xd8>
  }
  else
  {
    /* Disable all the transfer interrupts */
    hdma->Instance->CR  &= ~(DMA_IT_TC | DMA_IT_TE | DMA_IT_DME);
 800406e:	687b      	ldr	r3, [r7, #4]
 8004070:	681b      	ldr	r3, [r3, #0]
 8004072:	681a      	ldr	r2, [r3, #0]
 8004074:	687b      	ldr	r3, [r7, #4]
 8004076:	681b      	ldr	r3, [r3, #0]
 8004078:	f022 0216 	bic.w	r2, r2, #22
 800407c:	601a      	str	r2, [r3, #0]
    hdma->Instance->FCR &= ~(DMA_IT_FE);
 800407e:	687b      	ldr	r3, [r7, #4]
 8004080:	681b      	ldr	r3, [r3, #0]
 8004082:	695a      	ldr	r2, [r3, #20]
 8004084:	687b      	ldr	r3, [r7, #4]
 8004086:	681b      	ldr	r3, [r3, #0]
 8004088:	f022 0280 	bic.w	r2, r2, #128	; 0x80
 800408c:	615a      	str	r2, [r3, #20]
    
    if((hdma->XferHalfCpltCallback != NULL) || (hdma->XferM1HalfCpltCallback != NULL))
 800408e:	687b      	ldr	r3, [r7, #4]
 8004090:	6c1b      	ldr	r3, [r3, #64]	; 0x40
 8004092:	2b00      	cmp	r3, #0
 8004094:	d103      	bne.n	800409e <HAL_DMA_Abort+0x62>
 8004096:	687b      	ldr	r3, [r7, #4]
 8004098:	6c9b      	ldr	r3, [r3, #72]	; 0x48
 800409a:	2b00      	cmp	r3, #0
 800409c:	d007      	beq.n	80040ae <HAL_DMA_Abort+0x72>
    {
      hdma->Instance->CR  &= ~(DMA_IT_HT);
 800409e:	687b      	ldr	r3, [r7, #4]
 80040a0:	681b      	ldr	r3, [r3, #0]
 80040a2:	681a      	ldr	r2, [r3, #0]
 80040a4:	687b      	ldr	r3, [r7, #4]
 80040a6:	681b      	ldr	r3, [r3, #0]
 80040a8:	f022 0208 	bic.w	r2, r2, #8
 80040ac:	601a      	str	r2, [r3, #0]
    }
    
    /* Disable the stream */
    __HAL_DMA_DISABLE(hdma);
 80040ae:	687b      	ldr	r3, [r7, #4]
 80040b0:	681b      	ldr	r3, [r3, #0]
 80040b2:	681a      	ldr	r2, [r3, #0]
 80040b4:	687b      	ldr	r3, [r7, #4]
 80040b6:	681b      	ldr	r3, [r3, #0]
 80040b8:	f022 0201 	bic.w	r2, r2, #1
 80040bc:	601a      	str	r2, [r3, #0]
    
    /* Check if the DMA Stream is effectively disabled */
    while((hdma->Instance->CR & DMA_SxCR_EN) != RESET)
 80040be:	e013      	b.n	80040e8 <HAL_DMA_Abort+0xac>
    {
      /* Check for the Timeout */
      if((HAL_GetTick() - tickstart ) > HAL_TIMEOUT_DMA_ABORT)
 80040c0:	f7fe ff0c 	bl	8002edc <HAL_GetTick>
 80040c4:	4602      	mov	r2, r0
 80040c6:	68bb      	ldr	r3, [r7, #8]
 80040c8:	1ad3      	subs	r3, r2, r3
 80040ca:	2b05      	cmp	r3, #5
 80040cc:	d90c      	bls.n	80040e8 <HAL_DMA_Abort+0xac>
      {
        /* Update error code */
        hdma->ErrorCode = HAL_DMA_ERROR_TIMEOUT;
 80040ce:	687b      	ldr	r3, [r7, #4]
 80040d0:	2220      	movs	r2, #32
 80040d2:	655a      	str	r2, [r3, #84]	; 0x54
        
        /* Change the DMA state */
        hdma->State = HAL_DMA_STATE_TIMEOUT;
 80040d4:	687b      	ldr	r3, [r7, #4]
 80040d6:	2203      	movs	r2, #3
 80040d8:	f883 2035 	strb.w	r2, [r3, #53]	; 0x35
        
        /* Process Unlocked */
        __HAL_UNLOCK(hdma);
 80040dc:	687b      	ldr	r3, [r7, #4]
 80040de:	2200      	movs	r2, #0
 80040e0:	f883 2034 	strb.w	r2, [r3, #52]	; 0x34
        
        return HAL_TIMEOUT;
 80040e4:	2303      	movs	r3, #3
 80040e6:	e015      	b.n	8004114 <HAL_DMA_Abort+0xd8>
    while((hdma->Instance->CR & DMA_SxCR_EN) != RESET)
 80040e8:	687b      	ldr	r3, [r7, #4]
 80040ea:	681b      	ldr	r3, [r3, #0]
 80040ec:	681b      	ldr	r3, [r3, #0]
 80040ee:	f003 0301 	and.w	r3, r3, #1
 80040f2:	2b00      	cmp	r3, #0
 80040f4:	d1e4      	bne.n	80040c0 <HAL_DMA_Abort+0x84>
      }
    }
    
    /* Clear all interrupt flags at correct offset within the register */
    regs->IFCR = 0x3FU << hdma->StreamIndex;
 80040f6:	687b      	ldr	r3, [r7, #4]
 80040f8:	6ddb      	ldr	r3, [r3, #92]	; 0x5c
 80040fa:	223f      	movs	r2, #63	; 0x3f
 80040fc:	409a      	lsls	r2, r3
 80040fe:	68fb      	ldr	r3, [r7, #12]
 8004100:	609a      	str	r2, [r3, #8]
    
    /* Change the DMA state*/
    hdma->State = HAL_DMA_STATE_READY;
 8004102:	687b      	ldr	r3, [r7, #4]
 8004104:	2201      	movs	r2, #1
 8004106:	f883 2035 	strb.w	r2, [r3, #53]	; 0x35
    
    /* Process Unlocked */
    __HAL_UNLOCK(hdma);
 800410a:	687b      	ldr	r3, [r7, #4]
 800410c:	2200      	movs	r2, #0
 800410e:	f883 2034 	strb.w	r2, [r3, #52]	; 0x34
  }
  return HAL_OK;
 8004112:	2300      	movs	r3, #0
}
 8004114:	4618      	mov	r0, r3
 8004116:	3710      	adds	r7, #16
 8004118:	46bd      	mov	sp, r7
 800411a:	bd80      	pop	{r7, pc}

0800411c <HAL_DMA_Abort_IT>:
  * @param  hdma   pointer to a DMA_HandleTypeDef structure that contains
  *                 the configuration information for the specified DMA Stream.
  * @retval HAL status
  */
HAL_StatusTypeDef HAL_DMA_Abort_IT(DMA_HandleTypeDef *hdma)
{
 800411c:	b480      	push	{r7}
 800411e:	b083      	sub	sp, #12
 8004120:	af00      	add	r7, sp, #0
 8004122:	6078      	str	r0, [r7, #4]
  if(hdma->State != HAL_DMA_STATE_BUSY)
 8004124:	687b      	ldr	r3, [r7, #4]
 8004126:	f893 3035 	ldrb.w	r3, [r3, #53]	; 0x35
 800412a:	b2db      	uxtb	r3, r3
 800412c:	2b02      	cmp	r3, #2
 800412e:	d004      	beq.n	800413a <HAL_DMA_Abort_IT+0x1e>
  {
    hdma->ErrorCode = HAL_DMA_ERROR_NO_XFER;
 8004130:	687b      	ldr	r3, [r7, #4]
 8004132:	2280      	movs	r2, #128	; 0x80
 8004134:	655a      	str	r2, [r3, #84]	; 0x54
    return HAL_ERROR;
 8004136:	2301      	movs	r3, #1
 8004138:	e00c      	b.n	8004154 <HAL_DMA_Abort_IT+0x38>
  }
  else
  {
    /* Set Abort State  */
    hdma->State = HAL_DMA_STATE_ABORT;
 800413a:	687b      	ldr	r3, [r7, #4]
 800413c:	2205      	movs	r2, #5
 800413e:	f883 2035 	strb.w	r2, [r3, #53]	; 0x35
    
    /* Disable the stream */
    __HAL_DMA_DISABLE(hdma);
 8004142:	687b      	ldr	r3, [r7, #4]
 8004144:	681b      	ldr	r3, [r3, #0]
 8004146:	681a      	ldr	r2, [r3, #0]
 8004148:	687b      	ldr	r3, [r7, #4]
 800414a:	681b      	ldr	r3, [r3, #0]
 800414c:	f022 0201 	bic.w	r2, r2, #1
 8004150:	601a      	str	r2, [r3, #0]
  }

  return HAL_OK;
 8004152:	2300      	movs	r3, #0
}
 8004154:	4618      	mov	r0, r3
 8004156:	370c      	adds	r7, #12
 8004158:	46bd      	mov	sp, r7
 800415a:	f85d 7b04 	ldr.w	r7, [sp], #4
 800415e:	4770      	bx	lr

08004160 <HAL_DMA_IRQHandler>:
  * @param  hdma pointer to a DMA_HandleTypeDef structure that contains
  *               the configuration information for the specified DMA Stream.  
  * @retval None
  */
void HAL_DMA_IRQHandler(DMA_HandleTypeDef *hdma)
{
 8004160:	b580      	push	{r7, lr}
 8004162:	b086      	sub	sp, #24
 8004164:	af00      	add	r7, sp, #0
 8004166:	6078      	str	r0, [r7, #4]
  uint32_t tmpisr;
  __IO uint32_t count = 0U;
 8004168:	2300      	movs	r3, #0
 800416a:	60bb      	str	r3, [r7, #8]
  uint32_t timeout = SystemCoreClock / 9600U;
 800416c:	4b8e      	ldr	r3, [pc, #568]	; (80043a8 <HAL_DMA_IRQHandler+0x248>)
 800416e:	681b      	ldr	r3, [r3, #0]
 8004170:	4a8e      	ldr	r2, [pc, #568]	; (80043ac <HAL_DMA_IRQHandler+0x24c>)
 8004172:	fba2 2303 	umull	r2, r3, r2, r3
 8004176:	0a9b      	lsrs	r3, r3, #10
 8004178:	617b      	str	r3, [r7, #20]

  /* calculate DMA base and stream number */
  DMA_Base_Registers *regs = (DMA_Base_Registers *)hdma->StreamBaseAddress;
 800417a:	687b      	ldr	r3, [r7, #4]
 800417c:	6d9b      	ldr	r3, [r3, #88]	; 0x58
 800417e:	613b      	str	r3, [r7, #16]

  tmpisr = regs->ISR;
 8004180:	693b      	ldr	r3, [r7, #16]
 8004182:	681b      	ldr	r3, [r3, #0]
 8004184:	60fb      	str	r3, [r7, #12]

  /* Transfer Error Interrupt management ***************************************/
  if ((tmpisr & (DMA_FLAG_TEIF0_4 << hdma->StreamIndex)) != RESET)
 8004186:	687b      	ldr	r3, [r7, #4]
 8004188:	6ddb      	ldr	r3, [r3, #92]	; 0x5c
 800418a:	2208      	movs	r2, #8
 800418c:	409a      	lsls	r2, r3
 800418e:	68fb      	ldr	r3, [r7, #12]
 8004190:	4013      	ands	r3, r2
 8004192:	2b00      	cmp	r3, #0
 8004194:	d01a      	beq.n	80041cc <HAL_DMA_IRQHandler+0x6c>
  {
    if(__HAL_DMA_GET_IT_SOURCE(hdma, DMA_IT_TE) != RESET)
 8004196:	687b      	ldr	r3, [r7, #4]
 8004198:	681b      	ldr	r3, [r3, #0]
 800419a:	681b      	ldr	r3, [r3, #0]
 800419c:	f003 0304 	and.w	r3, r3, #4
 80041a0:	2b00      	cmp	r3, #0
 80041a2:	d013      	beq.n	80041cc <HAL_DMA_IRQHandler+0x6c>
    {
      /* Disable the transfer error interrupt */
      hdma->Instance->CR  &= ~(DMA_IT_TE);
 80041a4:	687b      	ldr	r3, [r7, #4]
 80041a6:	681b      	ldr	r3, [r3, #0]
 80041a8:	681a      	ldr	r2, [r3, #0]
 80041aa:	687b      	ldr	r3, [r7, #4]
 80041ac:	681b      	ldr	r3, [r3, #0]
 80041ae:	f022 0204 	bic.w	r2, r2, #4
 80041b2:	601a      	str	r2, [r3, #0]
      
      /* Clear the transfer error flag */
      regs->IFCR = DMA_FLAG_TEIF0_4 << hdma->StreamIndex;
 80041b4:	687b      	ldr	r3, [r7, #4]
 80041b6:	6ddb      	ldr	r3, [r3, #92]	; 0x5c
 80041b8:	2208      	movs	r2, #8
 80041ba:	409a      	lsls	r2, r3
 80041bc:	693b      	ldr	r3, [r7, #16]
 80041be:	609a      	str	r2, [r3, #8]
      
      /* Update error code */
      hdma->ErrorCode |= HAL_DMA_ERROR_TE;
 80041c0:	687b      	ldr	r3, [r7, #4]
 80041c2:	6d5b      	ldr	r3, [r3, #84]	; 0x54
 80041c4:	f043 0201 	orr.w	r2, r3, #1
 80041c8:	687b      	ldr	r3, [r7, #4]
 80041ca:	655a      	str	r2, [r3, #84]	; 0x54
    }
  }
  /* FIFO Error Interrupt management ******************************************/
  if ((tmpisr & (DMA_FLAG_FEIF0_4 << hdma->StreamIndex)) != RESET)
 80041cc:	687b      	ldr	r3, [r7, #4]
 80041ce:	6ddb      	ldr	r3, [r3, #92]	; 0x5c
 80041d0:	2201      	movs	r2, #1
 80041d2:	409a      	lsls	r2, r3
 80041d4:	68fb      	ldr	r3, [r7, #12]
 80041d6:	4013      	ands	r3, r2
 80041d8:	2b00      	cmp	r3, #0
 80041da:	d012      	beq.n	8004202 <HAL_DMA_IRQHandler+0xa2>
  {
    if(__HAL_DMA_GET_IT_SOURCE(hdma, DMA_IT_FE) != RESET)
 80041dc:	687b      	ldr	r3, [r7, #4]
 80041de:	681b      	ldr	r3, [r3, #0]
 80041e0:	695b      	ldr	r3, [r3, #20]
 80041e2:	f003 0380 	and.w	r3, r3, #128	; 0x80
 80041e6:	2b00      	cmp	r3, #0
 80041e8:	d00b      	beq.n	8004202 <HAL_DMA_IRQHandler+0xa2>
    {
      /* Clear the FIFO error flag */
      regs->IFCR = DMA_FLAG_FEIF0_4 << hdma->StreamIndex;
 80041ea:	687b      	ldr	r3, [r7, #4]
 80041ec:	6ddb      	ldr	r3, [r3, #92]	; 0x5c
 80041ee:	2201      	movs	r2, #1
 80041f0:	409a      	lsls	r2, r3
 80041f2:	693b      	ldr	r3, [r7, #16]
 80041f4:	609a      	str	r2, [r3, #8]

      /* Update error code */
      hdma->ErrorCode |= HAL_DMA_ERROR_FE;
 80041f6:	687b      	ldr	r3, [r7, #4]
 80041f8:	6d5b      	ldr	r3, [r3, #84]	; 0x54
 80041fa:	f043 0202 	orr.w	r2, r3, #2
 80041fe:	687b      	ldr	r3, [r7, #4]
 8004200:	655a      	str	r2, [r3, #84]	; 0x54
    }
  }
  /* Direct Mode Error Interrupt management ***********************************/
  if ((tmpisr & (DMA_FLAG_DMEIF0_4 << hdma->StreamIndex)) != RESET)
 8004202:	687b      	ldr	r3, [r7, #4]
 8004204:	6ddb      	ldr	r3, [r3, #92]	; 0x5c
 8004206:	2204      	movs	r2, #4
 8004208:	409a      	lsls	r2, r3
 800420a:	68fb      	ldr	r3, [r7, #12]
 800420c:	4013      	ands	r3, r2
 800420e:	2b00      	cmp	r3, #0
 8004210:	d012      	beq.n	8004238 <HAL_DMA_IRQHandler+0xd8>
  {
    if(__HAL_DMA_GET_IT_SOURCE(hdma, DMA_IT_DME) != RESET)
 8004212:	687b      	ldr	r3, [r7, #4]
 8004214:	681b      	ldr	r3, [r3, #0]
 8004216:	681b      	ldr	r3, [r3, #0]
 8004218:	f003 0302 	and.w	r3, r3, #2
 800421c:	2b00      	cmp	r3, #0
 800421e:	d00b      	beq.n	8004238 <HAL_DMA_IRQHandler+0xd8>
    {
      /* Clear the direct mode error flag */
      regs->IFCR = DMA_FLAG_DMEIF0_4 << hdma->StreamIndex;
 8004220:	687b      	ldr	r3, [r7, #4]
 8004222:	6ddb      	ldr	r3, [r3, #92]	; 0x5c
 8004224:	2204      	movs	r2, #4
 8004226:	409a      	lsls	r2, r3
 8004228:	693b      	ldr	r3, [r7, #16]
 800422a:	609a      	str	r2, [r3, #8]

      /* Update error code */
      hdma->ErrorCode |= HAL_DMA_ERROR_DME;
 800422c:	687b      	ldr	r3, [r7, #4]
 800422e:	6d5b      	ldr	r3, [r3, #84]	; 0x54
 8004230:	f043 0204 	orr.w	r2, r3, #4
 8004234:	687b      	ldr	r3, [r7, #4]
 8004236:	655a      	str	r2, [r3, #84]	; 0x54
    }
  }
  /* Half Transfer Complete Interrupt management ******************************/
  if ((tmpisr & (DMA_FLAG_HTIF0_4 << hdma->StreamIndex)) != RESET)
 8004238:	687b      	ldr	r3, [r7, #4]
 800423a:	6ddb      	ldr	r3, [r3, #92]	; 0x5c
 800423c:	2210      	movs	r2, #16
 800423e:	409a      	lsls	r2, r3
 8004240:	68fb      	ldr	r3, [r7, #12]
 8004242:	4013      	ands	r3, r2
 8004244:	2b00      	cmp	r3, #0
 8004246:	d043      	beq.n	80042d0 <HAL_DMA_IRQHandler+0x170>
  {
    if(__HAL_DMA_GET_IT_SOURCE(hdma, DMA_IT_HT) != RESET)
 8004248:	687b      	ldr	r3, [r7, #4]
 800424a:	681b      	ldr	r3, [r3, #0]
 800424c:	681b      	ldr	r3, [r3, #0]
 800424e:	f003 0308 	and.w	r3, r3, #8
 8004252:	2b00      	cmp	r3, #0
 8004254:	d03c      	beq.n	80042d0 <HAL_DMA_IRQHandler+0x170>
    {
      /* Clear the half transfer complete flag */
      regs->IFCR = DMA_FLAG_HTIF0_4 << hdma->StreamIndex;
 8004256:	687b      	ldr	r3, [r7, #4]
 8004258:	6ddb      	ldr	r3, [r3, #92]	; 0x5c
 800425a:	2210      	movs	r2, #16
 800425c:	409a      	lsls	r2, r3
 800425e:	693b      	ldr	r3, [r7, #16]
 8004260:	609a      	str	r2, [r3, #8]
      
      /* Multi_Buffering mode enabled */
      if(((hdma->Instance->CR) & (uint32_t)(DMA_SxCR_DBM)) != RESET)
 8004262:	687b      	ldr	r3, [r7, #4]
 8004264:	681b      	ldr	r3, [r3, #0]
 8004266:	681b      	ldr	r3, [r3, #0]
 8004268:	f403 2380 	and.w	r3, r3, #262144	; 0x40000
 800426c:	2b00      	cmp	r3, #0
 800426e:	d018      	beq.n	80042a2 <HAL_DMA_IRQHandler+0x142>
      {
        /* Current memory buffer used is Memory 0 */
        if((hdma->Instance->CR & DMA_SxCR_CT) == RESET)
 8004270:	687b      	ldr	r3, [r7, #4]
 8004272:	681b      	ldr	r3, [r3, #0]
 8004274:	681b      	ldr	r3, [r3, #0]
 8004276:	f403 2300 	and.w	r3, r3, #524288	; 0x80000
 800427a:	2b00      	cmp	r3, #0
 800427c:	d108      	bne.n	8004290 <HAL_DMA_IRQHandler+0x130>
        {
          if(hdma->XferHalfCpltCallback != NULL)
 800427e:	687b      	ldr	r3, [r7, #4]
 8004280:	6c1b      	ldr	r3, [r3, #64]	; 0x40
 8004282:	2b00      	cmp	r3, #0
 8004284:	d024      	beq.n	80042d0 <HAL_DMA_IRQHandler+0x170>
          {
            /* Half transfer callback */
            hdma->XferHalfCpltCallback(hdma);
 8004286:	687b      	ldr	r3, [r7, #4]
 8004288:	6c1b      	ldr	r3, [r3, #64]	; 0x40
 800428a:	6878      	ldr	r0, [r7, #4]
 800428c:	4798      	blx	r3
 800428e:	e01f      	b.n	80042d0 <HAL_DMA_IRQHandler+0x170>
          }
        }
        /* Current memory buffer used is Memory 1 */
        else
        {
          if(hdma->XferM1HalfCpltCallback != NULL)
 8004290:	687b      	ldr	r3, [r7, #4]
 8004292:	6c9b      	ldr	r3, [r3, #72]	; 0x48
 8004294:	2b00      	cmp	r3, #0
 8004296:	d01b      	beq.n	80042d0 <HAL_DMA_IRQHandler+0x170>
          {
            /* Half transfer callback */
            hdma->XferM1HalfCpltCallback(hdma);
 8004298:	687b      	ldr	r3, [r7, #4]
 800429a:	6c9b      	ldr	r3, [r3, #72]	; 0x48
 800429c:	6878      	ldr	r0, [r7, #4]
 800429e:	4798      	blx	r3
 80042a0:	e016      	b.n	80042d0 <HAL_DMA_IRQHandler+0x170>
        }
      }
      else
      {
        /* Disable the half transfer interrupt if the DMA mode is not CIRCULAR */
        if((hdma->Instance->CR & DMA_SxCR_CIRC) == RESET)
 80042a2:	687b      	ldr	r3, [r7, #4]
 80042a4:	681b      	ldr	r3, [r3, #0]
 80042a6:	681b      	ldr	r3, [r3, #0]
 80042a8:	f403 7380 	and.w	r3, r3, #256	; 0x100
 80042ac:	2b00      	cmp	r3, #0
 80042ae:	d107      	bne.n	80042c0 <HAL_DMA_IRQHandler+0x160>
        {
          /* Disable the half transfer interrupt */
          hdma->Instance->CR  &= ~(DMA_IT_HT);
 80042b0:	687b      	ldr	r3, [r7, #4]
 80042b2:	681b      	ldr	r3, [r3, #0]
 80042b4:	681a      	ldr	r2, [r3, #0]
 80042b6:	687b      	ldr	r3, [r7, #4]
 80042b8:	681b      	ldr	r3, [r3, #0]
 80042ba:	f022 0208 	bic.w	r2, r2, #8
 80042be:	601a      	str	r2, [r3, #0]
        }
        
        if(hdma->XferHalfCpltCallback != NULL)
 80042c0:	687b      	ldr	r3, [r7, #4]
 80042c2:	6c1b      	ldr	r3, [r3, #64]	; 0x40
 80042c4:	2b00      	cmp	r3, #0
 80042c6:	d003      	beq.n	80042d0 <HAL_DMA_IRQHandler+0x170>
        {
          /* Half transfer callback */
          hdma->XferHalfCpltCallback(hdma);
 80042c8:	687b      	ldr	r3, [r7, #4]
 80042ca:	6c1b      	ldr	r3, [r3, #64]	; 0x40
 80042cc:	6878      	ldr	r0, [r7, #4]
 80042ce:	4798      	blx	r3
        }
      }
    }
  }
  /* Transfer Complete Interrupt management ***********************************/
  if ((tmpisr & (DMA_FLAG_TCIF0_4 << hdma->StreamIndex)) != RESET)
 80042d0:	687b      	ldr	r3, [r7, #4]
 80042d2:	6ddb      	ldr	r3, [r3, #92]	; 0x5c
 80042d4:	2220      	movs	r2, #32
 80042d6:	409a      	lsls	r2, r3
 80042d8:	68fb      	ldr	r3, [r7, #12]
 80042da:	4013      	ands	r3, r2
 80042dc:	2b00      	cmp	r3, #0
 80042de:	f000 808f 	beq.w	8004400 <HAL_DMA_IRQHandler+0x2a0>
  {
    if(__HAL_DMA_GET_IT_SOURCE(hdma, DMA_IT_TC) != RESET)
 80042e2:	687b      	ldr	r3, [r7, #4]
 80042e4:	681b      	ldr	r3, [r3, #0]
 80042e6:	681b      	ldr	r3, [r3, #0]
 80042e8:	f003 0310 	and.w	r3, r3, #16
 80042ec:	2b00      	cmp	r3, #0
 80042ee:	f000 8087 	beq.w	8004400 <HAL_DMA_IRQHandler+0x2a0>
    {
      /* Clear the transfer complete flag */
      regs->IFCR = DMA_FLAG_TCIF0_4 << hdma->StreamIndex;
 80042f2:	687b      	ldr	r3, [r7, #4]
 80042f4:	6ddb      	ldr	r3, [r3, #92]	; 0x5c
 80042f6:	2220      	movs	r2, #32
 80042f8:	409a      	lsls	r2, r3
 80042fa:	693b      	ldr	r3, [r7, #16]
 80042fc:	609a      	str	r2, [r3, #8]
      
      if(HAL_DMA_STATE_ABORT == hdma->State)
 80042fe:	687b      	ldr	r3, [r7, #4]
 8004300:	f893 3035 	ldrb.w	r3, [r3, #53]	; 0x35
 8004304:	b2db      	uxtb	r3, r3
 8004306:	2b05      	cmp	r3, #5
 8004308:	d136      	bne.n	8004378 <HAL_DMA_IRQHandler+0x218>
      {
        /* Disable all the transfer interrupts */
        hdma->Instance->CR  &= ~(DMA_IT_TC | DMA_IT_TE | DMA_IT_DME);
 800430a:	687b      	ldr	r3, [r7, #4]
 800430c:	681b      	ldr	r3, [r3, #0]
 800430e:	681a      	ldr	r2, [r3, #0]
 8004310:	687b      	ldr	r3, [r7, #4]
 8004312:	681b      	ldr	r3, [r3, #0]
 8004314:	f022 0216 	bic.w	r2, r2, #22
 8004318:	601a      	str	r2, [r3, #0]
        hdma->Instance->FCR &= ~(DMA_IT_FE);
 800431a:	687b      	ldr	r3, [r7, #4]
 800431c:	681b      	ldr	r3, [r3, #0]
 800431e:	695a      	ldr	r2, [r3, #20]
 8004320:	687b      	ldr	r3, [r7, #4]
 8004322:	681b      	ldr	r3, [r3, #0]
 8004324:	f022 0280 	bic.w	r2, r2, #128	; 0x80
 8004328:	615a      	str	r2, [r3, #20]
        
        if((hdma->XferHalfCpltCallback != NULL) || (hdma->XferM1HalfCpltCallback != NULL))
 800432a:	687b      	ldr	r3, [r7, #4]
 800432c:	6c1b      	ldr	r3, [r3, #64]	; 0x40
 800432e:	2b00      	cmp	r3, #0
 8004330:	d103      	bne.n	800433a <HAL_DMA_IRQHandler+0x1da>
 8004332:	687b      	ldr	r3, [r7, #4]
 8004334:	6c9b      	ldr	r3, [r3, #72]	; 0x48
 8004336:	2b00      	cmp	r3, #0
 8004338:	d007      	beq.n	800434a <HAL_DMA_IRQHandler+0x1ea>
        {
          hdma->Instance->CR  &= ~(DMA_IT_HT);
 800433a:	687b      	ldr	r3, [r7, #4]
 800433c:	681b      	ldr	r3, [r3, #0]
 800433e:	681a      	ldr	r2, [r3, #0]
 8004340:	687b      	ldr	r3, [r7, #4]
 8004342:	681b      	ldr	r3, [r3, #0]
 8004344:	f022 0208 	bic.w	r2, r2, #8
 8004348:	601a      	str	r2, [r3, #0]
        }

        /* Clear all interrupt flags at correct offset within the register */
        regs->IFCR = 0x3FU << hdma->StreamIndex;
 800434a:	687b      	ldr	r3, [r7, #4]
 800434c:	6ddb      	ldr	r3, [r3, #92]	; 0x5c
 800434e:	223f      	movs	r2, #63	; 0x3f
 8004350:	409a      	lsls	r2, r3
 8004352:	693b      	ldr	r3, [r7, #16]
 8004354:	609a      	str	r2, [r3, #8]

        /* Change the DMA state */
        hdma->State = HAL_DMA_STATE_READY;
 8004356:	687b      	ldr	r3, [r7, #4]
 8004358:	2201      	movs	r2, #1
 800435a:	f883 2035 	strb.w	r2, [r3, #53]	; 0x35

        /* Process Unlocked */
        __HAL_UNLOCK(hdma);
 800435e:	687b      	ldr	r3, [r7, #4]
 8004360:	2200      	movs	r2, #0
 8004362:	f883 2034 	strb.w	r2, [r3, #52]	; 0x34

        if(hdma->XferAbortCallback != NULL)
 8004366:	687b      	ldr	r3, [r7, #4]
 8004368:	6d1b      	ldr	r3, [r3, #80]	; 0x50
 800436a:	2b00      	cmp	r3, #0
 800436c:	d07e      	beq.n	800446c <HAL_DMA_IRQHandler+0x30c>
        {
          hdma->XferAbortCallback(hdma);
 800436e:	687b      	ldr	r3, [r7, #4]
 8004370:	6d1b      	ldr	r3, [r3, #80]	; 0x50
 8004372:	6878      	ldr	r0, [r7, #4]
 8004374:	4798      	blx	r3
        }
        return;
 8004376:	e079      	b.n	800446c <HAL_DMA_IRQHandler+0x30c>
      }

      if(((hdma->Instance->CR) & (uint32_t)(DMA_SxCR_DBM)) != RESET)
 8004378:	687b      	ldr	r3, [r7, #4]
 800437a:	681b      	ldr	r3, [r3, #0]
 800437c:	681b      	ldr	r3, [r3, #0]
 800437e:	f403 2380 	and.w	r3, r3, #262144	; 0x40000
 8004382:	2b00      	cmp	r3, #0
 8004384:	d01d      	beq.n	80043c2 <HAL_DMA_IRQHandler+0x262>
      {
        /* Current memory buffer used is Memory 0 */
        if((hdma->Instance->CR & DMA_SxCR_CT) == RESET)
 8004386:	687b      	ldr	r3, [r7, #4]
 8004388:	681b      	ldr	r3, [r3, #0]
 800438a:	681b      	ldr	r3, [r3, #0]
 800438c:	f403 2300 	and.w	r3, r3, #524288	; 0x80000
 8004390:	2b00      	cmp	r3, #0
 8004392:	d10d      	bne.n	80043b0 <HAL_DMA_IRQHandler+0x250>
        {
          if(hdma->XferM1CpltCallback != NULL)
 8004394:	687b      	ldr	r3, [r7, #4]
 8004396:	6c5b      	ldr	r3, [r3, #68]	; 0x44
 8004398:	2b00      	cmp	r3, #0
 800439a:	d031      	beq.n	8004400 <HAL_DMA_IRQHandler+0x2a0>
          {
            /* Transfer complete Callback for memory1 */
            hdma->XferM1CpltCallback(hdma);
 800439c:	687b      	ldr	r3, [r7, #4]
 800439e:	6c5b      	ldr	r3, [r3, #68]	; 0x44
 80043a0:	6878      	ldr	r0, [r7, #4]
 80043a2:	4798      	blx	r3
 80043a4:	e02c      	b.n	8004400 <HAL_DMA_IRQHandler+0x2a0>
 80043a6:	bf00      	nop
 80043a8:	2000001c 	.word	0x2000001c
 80043ac:	1b4e81b5 	.word	0x1b4e81b5
          }
        }
        /* Current memory buffer used is Memory 1 */
        else
        {
          if(hdma->XferCpltCallback != NULL)
 80043b0:	687b      	ldr	r3, [r7, #4]
 80043b2:	6bdb      	ldr	r3, [r3, #60]	; 0x3c
 80043b4:	2b00      	cmp	r3, #0
 80043b6:	d023      	beq.n	8004400 <HAL_DMA_IRQHandler+0x2a0>
          {
            /* Transfer complete Callback for memory0 */
            hdma->XferCpltCallback(hdma);
 80043b8:	687b      	ldr	r3, [r7, #4]
 80043ba:	6bdb      	ldr	r3, [r3, #60]	; 0x3c
 80043bc:	6878      	ldr	r0, [r7, #4]
 80043be:	4798      	blx	r3
 80043c0:	e01e      	b.n	8004400 <HAL_DMA_IRQHandler+0x2a0>
        }
      }
      /* Disable the transfer complete interrupt if the DMA mode is not CIRCULAR */
      else
      {
        if((hdma->Instance->CR & DMA_SxCR_CIRC) == RESET)
 80043c2:	687b      	ldr	r3, [r7, #4]
 80043c4:	681b      	ldr	r3, [r3, #0]
 80043c6:	681b      	ldr	r3, [r3, #0]
 80043c8:	f403 7380 	and.w	r3, r3, #256	; 0x100
 80043cc:	2b00      	cmp	r3, #0
 80043ce:	d10f      	bne.n	80043f0 <HAL_DMA_IRQHandler+0x290>
        {
          /* Disable the transfer complete interrupt */
          hdma->Instance->CR  &= ~(DMA_IT_TC);
 80043d0:	687b      	ldr	r3, [r7, #4]
 80043d2:	681b      	ldr	r3, [r3, #0]
 80043d4:	681a      	ldr	r2, [r3, #0]
 80043d6:	687b      	ldr	r3, [r7, #4]
 80043d8:	681b      	ldr	r3, [r3, #0]
 80043da:	f022 0210 	bic.w	r2, r2, #16
 80043de:	601a      	str	r2, [r3, #0]

          /* Change the DMA state */
          hdma->State = HAL_DMA_STATE_READY;
 80043e0:	687b      	ldr	r3, [r7, #4]
 80043e2:	2201      	movs	r2, #1
 80043e4:	f883 2035 	strb.w	r2, [r3, #53]	; 0x35

          /* Process Unlocked */
          __HAL_UNLOCK(hdma);
 80043e8:	687b      	ldr	r3, [r7, #4]
 80043ea:	2200      	movs	r2, #0
 80043ec:	f883 2034 	strb.w	r2, [r3, #52]	; 0x34
        }

        if(hdma->XferCpltCallback != NULL)
 80043f0:	687b      	ldr	r3, [r7, #4]
 80043f2:	6bdb      	ldr	r3, [r3, #60]	; 0x3c
 80043f4:	2b00      	cmp	r3, #0
 80043f6:	d003      	beq.n	8004400 <HAL_DMA_IRQHandler+0x2a0>
        {
          /* Transfer complete callback */
          hdma->XferCpltCallback(hdma);
 80043f8:	687b      	ldr	r3, [r7, #4]
 80043fa:	6bdb      	ldr	r3, [r3, #60]	; 0x3c
 80043fc:	6878      	ldr	r0, [r7, #4]
 80043fe:	4798      	blx	r3
      }
    }
  }
  
  /* manage error case */
  if(hdma->ErrorCode != HAL_DMA_ERROR_NONE)
 8004400:	687b      	ldr	r3, [r7, #4]
 8004402:	6d5b      	ldr	r3, [r3, #84]	; 0x54
 8004404:	2b00      	cmp	r3, #0
 8004406:	d032      	beq.n	800446e <HAL_DMA_IRQHandler+0x30e>
  {
    if((hdma->ErrorCode & HAL_DMA_ERROR_TE) != RESET)
 8004408:	687b      	ldr	r3, [r7, #4]
 800440a:	6d5b      	ldr	r3, [r3, #84]	; 0x54
 800440c:	f003 0301 	and.w	r3, r3, #1
 8004410:	2b00      	cmp	r3, #0
 8004412:	d022      	beq.n	800445a <HAL_DMA_IRQHandler+0x2fa>
    {
      hdma->State = HAL_DMA_STATE_ABORT;
 8004414:	687b      	ldr	r3, [r7, #4]
 8004416:	2205      	movs	r2, #5
 8004418:	f883 2035 	strb.w	r2, [r3, #53]	; 0x35

      /* Disable the stream */
      __HAL_DMA_DISABLE(hdma);
 800441c:	687b      	ldr	r3, [r7, #4]
 800441e:	681b      	ldr	r3, [r3, #0]
 8004420:	681a      	ldr	r2, [r3, #0]
 8004422:	687b      	ldr	r3, [r7, #4]
 8004424:	681b      	ldr	r3, [r3, #0]
 8004426:	f022 0201 	bic.w	r2, r2, #1
 800442a:	601a      	str	r2, [r3, #0]

      do
      {
        if (++count > timeout)
 800442c:	68bb      	ldr	r3, [r7, #8]
 800442e:	3301      	adds	r3, #1
 8004430:	60bb      	str	r3, [r7, #8]
 8004432:	697a      	ldr	r2, [r7, #20]
 8004434:	429a      	cmp	r2, r3
 8004436:	d307      	bcc.n	8004448 <HAL_DMA_IRQHandler+0x2e8>
        {
          break;
        }
      }
      while((hdma->Instance->CR & DMA_SxCR_EN) != RESET);
 8004438:	687b      	ldr	r3, [r7, #4]
 800443a:	681b      	ldr	r3, [r3, #0]
 800443c:	681b      	ldr	r3, [r3, #0]
 800443e:	f003 0301 	and.w	r3, r3, #1
 8004442:	2b00      	cmp	r3, #0
 8004444:	d1f2      	bne.n	800442c <HAL_DMA_IRQHandler+0x2cc>
 8004446:	e000      	b.n	800444a <HAL_DMA_IRQHandler+0x2ea>
          break;
 8004448:	bf00      	nop

      /* Change the DMA state */
      hdma->State = HAL_DMA_STATE_READY;
 800444a:	687b      	ldr	r3, [r7, #4]
 800444c:	2201      	movs	r2, #1
 800444e:	f883 2035 	strb.w	r2, [r3, #53]	; 0x35

      /* Process Unlocked */
      __HAL_UNLOCK(hdma);
 8004452:	687b      	ldr	r3, [r7, #4]
 8004454:	2200      	movs	r2, #0
 8004456:	f883 2034 	strb.w	r2, [r3, #52]	; 0x34
    }

    if(hdma->XferErrorCallback != NULL)
 800445a:	687b      	ldr	r3, [r7, #4]
 800445c:	6cdb      	ldr	r3, [r3, #76]	; 0x4c
 800445e:	2b00      	cmp	r3, #0
 8004460:	d005      	beq.n	800446e <HAL_DMA_IRQHandler+0x30e>
    {
      /* Transfer error callback */
      hdma->XferErrorCallback(hdma);
 8004462:	687b      	ldr	r3, [r7, #4]
 8004464:	6cdb      	ldr	r3, [r3, #76]	; 0x4c
 8004466:	6878      	ldr	r0, [r7, #4]
 8004468:	4798      	blx	r3
 800446a:	e000      	b.n	800446e <HAL_DMA_IRQHandler+0x30e>
        return;
 800446c:	bf00      	nop
    }
  }
}
 800446e:	3718      	adds	r7, #24
 8004470:	46bd      	mov	sp, r7
 8004472:	bd80      	pop	{r7, pc}

08004474 <DMA_SetConfig>:
  * @param  DstAddress The destination memory Buffer address
  * @param  DataLength The length of data to be transferred from source to destination
  * @retval HAL status
  */
static void DMA_SetConfig(DMA_HandleTypeDef *hdma, uint32_t SrcAddress, uint32_t DstAddress, uint32_t DataLength)
{
 8004474:	b480      	push	{r7}
 8004476:	b085      	sub	sp, #20
 8004478:	af00      	add	r7, sp, #0
 800447a:	60f8      	str	r0, [r7, #12]
 800447c:	60b9      	str	r1, [r7, #8]
 800447e:	607a      	str	r2, [r7, #4]
 8004480:	603b      	str	r3, [r7, #0]
  /* Clear DBM bit */
  hdma->Instance->CR &= (uint32_t)(~DMA_SxCR_DBM);
 8004482:	68fb      	ldr	r3, [r7, #12]
 8004484:	681b      	ldr	r3, [r3, #0]
 8004486:	681a      	ldr	r2, [r3, #0]
 8004488:	68fb      	ldr	r3, [r7, #12]
 800448a:	681b      	ldr	r3, [r3, #0]
 800448c:	f422 2280 	bic.w	r2, r2, #262144	; 0x40000
 8004490:	601a      	str	r2, [r3, #0]

  /* Configure DMA Stream data length */
  hdma->Instance->NDTR = DataLength;
 8004492:	68fb      	ldr	r3, [r7, #12]
 8004494:	681b      	ldr	r3, [r3, #0]
 8004496:	683a      	ldr	r2, [r7, #0]
 8004498:	605a      	str	r2, [r3, #4]

  /* Memory to Peripheral */
  if((hdma->Init.Direction) == DMA_MEMORY_TO_PERIPH)
 800449a:	68fb      	ldr	r3, [r7, #12]
 800449c:	689b      	ldr	r3, [r3, #8]
 800449e:	2b40      	cmp	r3, #64	; 0x40
 80044a0:	d108      	bne.n	80044b4 <DMA_SetConfig+0x40>
  {
    /* Configure DMA Stream destination address */
    hdma->Instance->PAR = DstAddress;
 80044a2:	68fb      	ldr	r3, [r7, #12]
 80044a4:	681b      	ldr	r3, [r3, #0]
 80044a6:	687a      	ldr	r2, [r7, #4]
 80044a8:	609a      	str	r2, [r3, #8]

    /* Configure DMA Stream source address */
    hdma->Instance->M0AR = SrcAddress;
 80044aa:	68fb      	ldr	r3, [r7, #12]
 80044ac:	681b      	ldr	r3, [r3, #0]
 80044ae:	68ba      	ldr	r2, [r7, #8]
 80044b0:	60da      	str	r2, [r3, #12]
    hdma->Instance->PAR = SrcAddress;

    /* Configure DMA Stream destination address */
    hdma->Instance->M0AR = DstAddress;
  }
}
 80044b2:	e007      	b.n	80044c4 <DMA_SetConfig+0x50>
    hdma->Instance->PAR = SrcAddress;
 80044b4:	68fb      	ldr	r3, [r7, #12]
 80044b6:	681b      	ldr	r3, [r3, #0]
 80044b8:	68ba      	ldr	r2, [r7, #8]
 80044ba:	609a      	str	r2, [r3, #8]
    hdma->Instance->M0AR = DstAddress;
 80044bc:	68fb      	ldr	r3, [r7, #12]
 80044be:	681b      	ldr	r3, [r3, #0]
 80044c0:	687a      	ldr	r2, [r7, #4]
 80044c2:	60da      	str	r2, [r3, #12]
}
 80044c4:	bf00      	nop
 80044c6:	3714      	adds	r7, #20
 80044c8:	46bd      	mov	sp, r7
 80044ca:	f85d 7b04 	ldr.w	r7, [sp], #4
 80044ce:	4770      	bx	lr

080044d0 <DMA_CalcBaseAndBitshift>:
  * @param  hdma       pointer to a DMA_HandleTypeDef structure that contains
  *                     the configuration information for the specified DMA Stream. 
  * @retval Stream base address
  */
static uint32_t DMA_CalcBaseAndBitshift(DMA_HandleTypeDef *hdma)
{
 80044d0:	b480      	push	{r7}
 80044d2:	b085      	sub	sp, #20
 80044d4:	af00      	add	r7, sp, #0
 80044d6:	6078      	str	r0, [r7, #4]
  uint32_t stream_number = (((uint32_t)hdma->Instance & 0xFFU) - 16U) / 24U;
 80044d8:	687b      	ldr	r3, [r7, #4]
 80044da:	681b      	ldr	r3, [r3, #0]
 80044dc:	b2db      	uxtb	r3, r3
 80044de:	3b10      	subs	r3, #16
 80044e0:	4a14      	ldr	r2, [pc, #80]	; (8004534 <DMA_CalcBaseAndBitshift+0x64>)
 80044e2:	fba2 2303 	umull	r2, r3, r2, r3
 80044e6:	091b      	lsrs	r3, r3, #4
 80044e8:	60fb      	str	r3, [r7, #12]
  
  /* lookup table for necessary bitshift of flags within status registers */
  static const uint8_t flagBitshiftOffset[8U] = {0U, 6U, 16U, 22U, 0U, 6U, 16U, 22U};
  hdma->StreamIndex = flagBitshiftOffset[stream_number];
 80044ea:	4a13      	ldr	r2, [pc, #76]	; (8004538 <DMA_CalcBaseAndBitshift+0x68>)
 80044ec:	68fb      	ldr	r3, [r7, #12]
 80044ee:	4413      	add	r3, r2
 80044f0:	781b      	ldrb	r3, [r3, #0]
 80044f2:	461a      	mov	r2, r3
 80044f4:	687b      	ldr	r3, [r7, #4]
 80044f6:	65da      	str	r2, [r3, #92]	; 0x5c
  
  if (stream_number > 3U)
 80044f8:	68fb      	ldr	r3, [r7, #12]
 80044fa:	2b03      	cmp	r3, #3
 80044fc:	d909      	bls.n	8004512 <DMA_CalcBaseAndBitshift+0x42>
  {
    /* return pointer to HISR and HIFCR */
    hdma->StreamBaseAddress = (((uint32_t)hdma->Instance & (uint32_t)(~0x3FFU)) + 4U);
 80044fe:	687b      	ldr	r3, [r7, #4]
 8004500:	681b      	ldr	r3, [r3, #0]
 8004502:	f423 737f 	bic.w	r3, r3, #1020	; 0x3fc
 8004506:	f023 0303 	bic.w	r3, r3, #3
 800450a:	1d1a      	adds	r2, r3, #4
 800450c:	687b      	ldr	r3, [r7, #4]
 800450e:	659a      	str	r2, [r3, #88]	; 0x58
 8004510:	e007      	b.n	8004522 <DMA_CalcBaseAndBitshift+0x52>
  }
  else
  {
    /* return pointer to LISR and LIFCR */
    hdma->StreamBaseAddress = ((uint32_t)hdma->Instance & (uint32_t)(~0x3FFU));
 8004512:	687b      	ldr	r3, [r7, #4]
 8004514:	681b      	ldr	r3, [r3, #0]
 8004516:	f423 737f 	bic.w	r3, r3, #1020	; 0x3fc
 800451a:	f023 0303 	bic.w	r3, r3, #3
 800451e:	687a      	ldr	r2, [r7, #4]
 8004520:	6593      	str	r3, [r2, #88]	; 0x58
  }
  
  return hdma->StreamBaseAddress;
 8004522:	687b      	ldr	r3, [r7, #4]
 8004524:	6d9b      	ldr	r3, [r3, #88]	; 0x58
}
 8004526:	4618      	mov	r0, r3
 8004528:	3714      	adds	r7, #20
 800452a:	46bd      	mov	sp, r7
 800452c:	f85d 7b04 	ldr.w	r7, [sp], #4
 8004530:	4770      	bx	lr
 8004532:	bf00      	nop
 8004534:	aaaaaaab 	.word	0xaaaaaaab
 8004538:	0800939c 	.word	0x0800939c

0800453c <DMA_CheckFifoParam>:
  * @param  hdma       pointer to a DMA_HandleTypeDef structure that contains
  *                     the configuration information for the specified DMA Stream. 
  * @retval HAL status
  */
static HAL_StatusTypeDef DMA_CheckFifoParam(DMA_HandleTypeDef *hdma)
{
 800453c:	b480      	push	{r7}
 800453e:	b085      	sub	sp, #20
 8004540:	af00      	add	r7, sp, #0
 8004542:	6078      	str	r0, [r7, #4]
  HAL_StatusTypeDef status = HAL_OK;
 8004544:	2300      	movs	r3, #0
 8004546:	73fb      	strb	r3, [r7, #15]
  uint32_t tmp = hdma->Init.FIFOThreshold;
 8004548:	687b      	ldr	r3, [r7, #4]
 800454a:	6a9b      	ldr	r3, [r3, #40]	; 0x28
 800454c:	60bb      	str	r3, [r7, #8]
  
  /* Memory Data size equal to Byte */
  if(hdma->Init.MemDataAlignment == DMA_MDATAALIGN_BYTE)
 800454e:	687b      	ldr	r3, [r7, #4]
 8004550:	699b      	ldr	r3, [r3, #24]
 8004552:	2b00      	cmp	r3, #0
 8004554:	d11f      	bne.n	8004596 <DMA_CheckFifoParam+0x5a>
  {
    switch (tmp)
 8004556:	68bb      	ldr	r3, [r7, #8]
 8004558:	2b03      	cmp	r3, #3
 800455a:	d856      	bhi.n	800460a <DMA_CheckFifoParam+0xce>
 800455c:	a201      	add	r2, pc, #4	; (adr r2, 8004564 <DMA_CheckFifoParam+0x28>)
 800455e:	f852 f023 	ldr.w	pc, [r2, r3, lsl #2]
 8004562:	bf00      	nop
 8004564:	08004575 	.word	0x08004575
 8004568:	08004587 	.word	0x08004587
 800456c:	08004575 	.word	0x08004575
 8004570:	0800460b 	.word	0x0800460b
    {
    case DMA_FIFO_THRESHOLD_1QUARTERFULL:
    case DMA_FIFO_THRESHOLD_3QUARTERSFULL:
      if ((hdma->Init.MemBurst & DMA_SxCR_MBURST_1) == DMA_SxCR_MBURST_1)
 8004574:	687b      	ldr	r3, [r7, #4]
 8004576:	6adb      	ldr	r3, [r3, #44]	; 0x2c
 8004578:	f003 7380 	and.w	r3, r3, #16777216	; 0x1000000
 800457c:	2b00      	cmp	r3, #0
 800457e:	d046      	beq.n	800460e <DMA_CheckFifoParam+0xd2>
      {
        status = HAL_ERROR;
 8004580:	2301      	movs	r3, #1
 8004582:	73fb      	strb	r3, [r7, #15]
      }
      break;
 8004584:	e043      	b.n	800460e <DMA_CheckFifoParam+0xd2>
    case DMA_FIFO_THRESHOLD_HALFFULL:
      if (hdma->Init.MemBurst == DMA_MBURST_INC16)
 8004586:	687b      	ldr	r3, [r7, #4]
 8004588:	6adb      	ldr	r3, [r3, #44]	; 0x2c
 800458a:	f1b3 7fc0 	cmp.w	r3, #25165824	; 0x1800000
 800458e:	d140      	bne.n	8004612 <DMA_CheckFifoParam+0xd6>
      {
        status = HAL_ERROR;
 8004590:	2301      	movs	r3, #1
 8004592:	73fb      	strb	r3, [r7, #15]
      }
      break;
 8004594:	e03d      	b.n	8004612 <DMA_CheckFifoParam+0xd6>
      break;
    }
  }
  
  /* Memory Data size equal to Half-Word */
  else if (hdma->Init.MemDataAlignment == DMA_MDATAALIGN_HALFWORD)
 8004596:	687b      	ldr	r3, [r7, #4]
 8004598:	699b      	ldr	r3, [r3, #24]
 800459a:	f5b3 5f00 	cmp.w	r3, #8192	; 0x2000
 800459e:	d121      	bne.n	80045e4 <DMA_CheckFifoParam+0xa8>
  {
    switch (tmp)
 80045a0:	68bb      	ldr	r3, [r7, #8]
 80045a2:	2b03      	cmp	r3, #3
 80045a4:	d837      	bhi.n	8004616 <DMA_CheckFifoParam+0xda>
 80045a6:	a201      	add	r2, pc, #4	; (adr r2, 80045ac <DMA_CheckFifoParam+0x70>)
 80045a8:	f852 f023 	ldr.w	pc, [r2, r3, lsl #2]
 80045ac:	080045bd 	.word	0x080045bd
 80045b0:	080045c3 	.word	0x080045c3
 80045b4:	080045bd 	.word	0x080045bd
 80045b8:	080045d5 	.word	0x080045d5
    {
    case DMA_FIFO_THRESHOLD_1QUARTERFULL:
    case DMA_FIFO_THRESHOLD_3QUARTERSFULL:
      status = HAL_ERROR;
 80045bc:	2301      	movs	r3, #1
 80045be:	73fb      	strb	r3, [r7, #15]
      break;
 80045c0:	e030      	b.n	8004624 <DMA_CheckFifoParam+0xe8>
    case DMA_FIFO_THRESHOLD_HALFFULL:
      if ((hdma->Init.MemBurst & DMA_SxCR_MBURST_1) == DMA_SxCR_MBURST_1)
 80045c2:	687b      	ldr	r3, [r7, #4]
 80045c4:	6adb      	ldr	r3, [r3, #44]	; 0x2c
 80045c6:	f003 7380 	and.w	r3, r3, #16777216	; 0x1000000
 80045ca:	2b00      	cmp	r3, #0
 80045cc:	d025      	beq.n	800461a <DMA_CheckFifoParam+0xde>
      {
        status = HAL_ERROR;
 80045ce:	2301      	movs	r3, #1
 80045d0:	73fb      	strb	r3, [r7, #15]
      }
      break;
 80045d2:	e022      	b.n	800461a <DMA_CheckFifoParam+0xde>
    case DMA_FIFO_THRESHOLD_FULL:
      if (hdma->Init.MemBurst == DMA_MBURST_INC16)
 80045d4:	687b      	ldr	r3, [r7, #4]
 80045d6:	6adb      	ldr	r3, [r3, #44]	; 0x2c
 80045d8:	f1b3 7fc0 	cmp.w	r3, #25165824	; 0x1800000
 80045dc:	d11f      	bne.n	800461e <DMA_CheckFifoParam+0xe2>
      {
        status = HAL_ERROR;
 80045de:	2301      	movs	r3, #1
 80045e0:	73fb      	strb	r3, [r7, #15]
      }
      break;   
 80045e2:	e01c      	b.n	800461e <DMA_CheckFifoParam+0xe2>
  }
  
  /* Memory Data size equal to Word */
  else
  {
    switch (tmp)
 80045e4:	68bb      	ldr	r3, [r7, #8]
 80045e6:	2b02      	cmp	r3, #2
 80045e8:	d903      	bls.n	80045f2 <DMA_CheckFifoParam+0xb6>
 80045ea:	68bb      	ldr	r3, [r7, #8]
 80045ec:	2b03      	cmp	r3, #3
 80045ee:	d003      	beq.n	80045f8 <DMA_CheckFifoParam+0xbc>
      {
        status = HAL_ERROR;
      }
      break;
    default:
      break;
 80045f0:	e018      	b.n	8004624 <DMA_CheckFifoParam+0xe8>
      status = HAL_ERROR;
 80045f2:	2301      	movs	r3, #1
 80045f4:	73fb      	strb	r3, [r7, #15]
      break;
 80045f6:	e015      	b.n	8004624 <DMA_CheckFifoParam+0xe8>
      if ((hdma->Init.MemBurst & DMA_SxCR_MBURST_1) == DMA_SxCR_MBURST_1)
 80045f8:	687b      	ldr	r3, [r7, #4]
 80045fa:	6adb      	ldr	r3, [r3, #44]	; 0x2c
 80045fc:	f003 7380 	and.w	r3, r3, #16777216	; 0x1000000
 8004600:	2b00      	cmp	r3, #0
 8004602:	d00e      	beq.n	8004622 <DMA_CheckFifoParam+0xe6>
        status = HAL_ERROR;
 8004604:	2301      	movs	r3, #1
 8004606:	73fb      	strb	r3, [r7, #15]
      break;
 8004608:	e00b      	b.n	8004622 <DMA_CheckFifoParam+0xe6>
      break;
 800460a:	bf00      	nop
 800460c:	e00a      	b.n	8004624 <DMA_CheckFifoParam+0xe8>
      break;
 800460e:	bf00      	nop
 8004610:	e008      	b.n	8004624 <DMA_CheckFifoParam+0xe8>
      break;
 8004612:	bf00      	nop
 8004614:	e006      	b.n	8004624 <DMA_CheckFifoParam+0xe8>
      break;
 8004616:	bf00      	nop
 8004618:	e004      	b.n	8004624 <DMA_CheckFifoParam+0xe8>
      break;
 800461a:	bf00      	nop
 800461c:	e002      	b.n	8004624 <DMA_CheckFifoParam+0xe8>
      break;   
 800461e:	bf00      	nop
 8004620:	e000      	b.n	8004624 <DMA_CheckFifoParam+0xe8>
      break;
 8004622:	bf00      	nop
    }
  } 
  
  return status; 
 8004624:	7bfb      	ldrb	r3, [r7, #15]
}
 8004626:	4618      	mov	r0, r3
 8004628:	3714      	adds	r7, #20
 800462a:	46bd      	mov	sp, r7
 800462c:	f85d 7b04 	ldr.w	r7, [sp], #4
 8004630:	4770      	bx	lr
 8004632:	bf00      	nop

08004634 <HAL_GPIO_Init>:
  * @param  GPIO_Init pointer to a GPIO_InitTypeDef structure that contains
  *         the configuration information for the specified GPIO peripheral.
  * @retval None
  */
void HAL_GPIO_Init(GPIO_TypeDef  *GPIOx, GPIO_InitTypeDef *GPIO_Init)
{
 8004634:	b480      	push	{r7}
 8004636:	b089      	sub	sp, #36	; 0x24
 8004638:	af00      	add	r7, sp, #0
 800463a:	6078      	str	r0, [r7, #4]
 800463c:	6039      	str	r1, [r7, #0]
  uint32_t position;
  uint32_t ioposition = 0x00U;
 800463e:	2300      	movs	r3, #0
 8004640:	617b      	str	r3, [r7, #20]
  uint32_t iocurrent = 0x00U;
 8004642:	2300      	movs	r3, #0
 8004644:	613b      	str	r3, [r7, #16]
  uint32_t temp = 0x00U;
 8004646:	2300      	movs	r3, #0
 8004648:	61bb      	str	r3, [r7, #24]
  assert_param(IS_GPIO_ALL_INSTANCE(GPIOx));
  assert_param(IS_GPIO_PIN(GPIO_Init->Pin));
  assert_param(IS_GPIO_MODE(GPIO_Init->Mode));

  /* Configure the port pins */
  for(position = 0U; position < GPIO_NUMBER; position++)
 800464a:	2300      	movs	r3, #0
 800464c:	61fb      	str	r3, [r7, #28]
 800464e:	e177      	b.n	8004940 <HAL_GPIO_Init+0x30c>
  {
    /* Get the IO position */
    ioposition = 0x01U << position;
 8004650:	2201      	movs	r2, #1
 8004652:	69fb      	ldr	r3, [r7, #28]
 8004654:	fa02 f303 	lsl.w	r3, r2, r3
 8004658:	617b      	str	r3, [r7, #20]
    /* Get the current IO position */
    iocurrent = (uint32_t)(GPIO_Init->Pin) & ioposition;
 800465a:	683b      	ldr	r3, [r7, #0]
 800465c:	681b      	ldr	r3, [r3, #0]
 800465e:	697a      	ldr	r2, [r7, #20]
 8004660:	4013      	ands	r3, r2
 8004662:	613b      	str	r3, [r7, #16]

    if(iocurrent == ioposition)
 8004664:	693a      	ldr	r2, [r7, #16]
 8004666:	697b      	ldr	r3, [r7, #20]
 8004668:	429a      	cmp	r2, r3
 800466a:	f040 8166 	bne.w	800493a <HAL_GPIO_Init+0x306>
    {
      /*--------------------- GPIO Mode Configuration ------------------------*/
      /* In case of Output or Alternate function mode selection */
      if(((GPIO_Init->Mode & GPIO_MODE) == MODE_OUTPUT) || \
 800466e:	683b      	ldr	r3, [r7, #0]
 8004670:	685b      	ldr	r3, [r3, #4]
 8004672:	f003 0303 	and.w	r3, r3, #3
 8004676:	2b01      	cmp	r3, #1
 8004678:	d005      	beq.n	8004686 <HAL_GPIO_Init+0x52>
          (GPIO_Init->Mode & GPIO_MODE) == MODE_AF)
 800467a:	683b      	ldr	r3, [r7, #0]
 800467c:	685b      	ldr	r3, [r3, #4]
 800467e:	f003 0303 	and.w	r3, r3, #3
      if(((GPIO_Init->Mode & GPIO_MODE) == MODE_OUTPUT) || \
 8004682:	2b02      	cmp	r3, #2
 8004684:	d130      	bne.n	80046e8 <HAL_GPIO_Init+0xb4>
      {
        /* Check the Speed parameter */
        assert_param(IS_GPIO_SPEED(GPIO_Init->Speed));
        /* Configure the IO Speed */
        temp = GPIOx->OSPEEDR; 
 8004686:	687b      	ldr	r3, [r7, #4]
 8004688:	689b      	ldr	r3, [r3, #8]
 800468a:	61bb      	str	r3, [r7, #24]
        temp &= ~(GPIO_OSPEEDER_OSPEEDR0 << (position * 2U));
 800468c:	69fb      	ldr	r3, [r7, #28]
 800468e:	005b      	lsls	r3, r3, #1
 8004690:	2203      	movs	r2, #3
 8004692:	fa02 f303 	lsl.w	r3, r2, r3
 8004696:	43db      	mvns	r3, r3
 8004698:	69ba      	ldr	r2, [r7, #24]
 800469a:	4013      	ands	r3, r2
 800469c:	61bb      	str	r3, [r7, #24]
        temp |= (GPIO_Init->Speed << (position * 2U));
 800469e:	683b      	ldr	r3, [r7, #0]
 80046a0:	68da      	ldr	r2, [r3, #12]
 80046a2:	69fb      	ldr	r3, [r7, #28]
 80046a4:	005b      	lsls	r3, r3, #1
 80046a6:	fa02 f303 	lsl.w	r3, r2, r3
 80046aa:	69ba      	ldr	r2, [r7, #24]
 80046ac:	4313      	orrs	r3, r2
 80046ae:	61bb      	str	r3, [r7, #24]
        GPIOx->OSPEEDR = temp;
 80046b0:	687b      	ldr	r3, [r7, #4]
 80046b2:	69ba      	ldr	r2, [r7, #24]
 80046b4:	609a      	str	r2, [r3, #8]

        /* Configure the IO Output Type */
        temp = GPIOx->OTYPER;
 80046b6:	687b      	ldr	r3, [r7, #4]
 80046b8:	685b      	ldr	r3, [r3, #4]
 80046ba:	61bb      	str	r3, [r7, #24]
        temp &= ~(GPIO_OTYPER_OT_0 << position) ;
 80046bc:	2201      	movs	r2, #1
 80046be:	69fb      	ldr	r3, [r7, #28]
 80046c0:	fa02 f303 	lsl.w	r3, r2, r3
 80046c4:	43db      	mvns	r3, r3
 80046c6:	69ba      	ldr	r2, [r7, #24]
 80046c8:	4013      	ands	r3, r2
 80046ca:	61bb      	str	r3, [r7, #24]
        temp |= (((GPIO_Init->Mode & OUTPUT_TYPE) >> OUTPUT_TYPE_Pos) << position);
 80046cc:	683b      	ldr	r3, [r7, #0]
 80046ce:	685b      	ldr	r3, [r3, #4]
 80046d0:	091b      	lsrs	r3, r3, #4
 80046d2:	f003 0201 	and.w	r2, r3, #1
 80046d6:	69fb      	ldr	r3, [r7, #28]
 80046d8:	fa02 f303 	lsl.w	r3, r2, r3
 80046dc:	69ba      	ldr	r2, [r7, #24]
 80046de:	4313      	orrs	r3, r2
 80046e0:	61bb      	str	r3, [r7, #24]
        GPIOx->OTYPER = temp;
 80046e2:	687b      	ldr	r3, [r7, #4]
 80046e4:	69ba      	ldr	r2, [r7, #24]
 80046e6:	605a      	str	r2, [r3, #4]
       }

      if((GPIO_Init->Mode & GPIO_MODE) != MODE_ANALOG)
 80046e8:	683b      	ldr	r3, [r7, #0]
 80046ea:	685b      	ldr	r3, [r3, #4]
 80046ec:	f003 0303 	and.w	r3, r3, #3
 80046f0:	2b03      	cmp	r3, #3
 80046f2:	d017      	beq.n	8004724 <HAL_GPIO_Init+0xf0>
      {
        /* Check the parameters */
        assert_param(IS_GPIO_PULL(GPIO_Init->Pull));
        
        /* Activate the Pull-up or Pull down resistor for the current IO */
        temp = GPIOx->PUPDR;
 80046f4:	687b      	ldr	r3, [r7, #4]
 80046f6:	68db      	ldr	r3, [r3, #12]
 80046f8:	61bb      	str	r3, [r7, #24]
        temp &= ~(GPIO_PUPDR_PUPDR0 << (position * 2U));
 80046fa:	69fb      	ldr	r3, [r7, #28]
 80046fc:	005b      	lsls	r3, r3, #1
 80046fe:	2203      	movs	r2, #3
 8004700:	fa02 f303 	lsl.w	r3, r2, r3
 8004704:	43db      	mvns	r3, r3
 8004706:	69ba      	ldr	r2, [r7, #24]
 8004708:	4013      	ands	r3, r2
 800470a:	61bb      	str	r3, [r7, #24]
        temp |= ((GPIO_Init->Pull) << (position * 2U));
 800470c:	683b      	ldr	r3, [r7, #0]
 800470e:	689a      	ldr	r2, [r3, #8]
 8004710:	69fb      	ldr	r3, [r7, #28]
 8004712:	005b      	lsls	r3, r3, #1
 8004714:	fa02 f303 	lsl.w	r3, r2, r3
 8004718:	69ba      	ldr	r2, [r7, #24]
 800471a:	4313      	orrs	r3, r2
 800471c:	61bb      	str	r3, [r7, #24]
        GPIOx->PUPDR = temp;
 800471e:	687b      	ldr	r3, [r7, #4]
 8004720:	69ba      	ldr	r2, [r7, #24]
 8004722:	60da      	str	r2, [r3, #12]
      }

      /* In case of Alternate function mode selection */
      if((GPIO_Init->Mode & GPIO_MODE) == MODE_AF)
 8004724:	683b      	ldr	r3, [r7, #0]
 8004726:	685b      	ldr	r3, [r3, #4]
 8004728:	f003 0303 	and.w	r3, r3, #3
 800472c:	2b02      	cmp	r3, #2
 800472e:	d123      	bne.n	8004778 <HAL_GPIO_Init+0x144>
      {
        /* Check the Alternate function parameter */
        assert_param(IS_GPIO_AF(GPIO_Init->Alternate));
        /* Configure Alternate function mapped with the current IO */
        temp = GPIOx->AFR[position >> 3U];
 8004730:	69fb      	ldr	r3, [r7, #28]
 8004732:	08da      	lsrs	r2, r3, #3
 8004734:	687b      	ldr	r3, [r7, #4]
 8004736:	3208      	adds	r2, #8
 8004738:	f853 3022 	ldr.w	r3, [r3, r2, lsl #2]
 800473c:	61bb      	str	r3, [r7, #24]
        temp &= ~(0xFU << ((uint32_t)(position & 0x07U) * 4U)) ;
 800473e:	69fb      	ldr	r3, [r7, #28]
 8004740:	f003 0307 	and.w	r3, r3, #7
 8004744:	009b      	lsls	r3, r3, #2
 8004746:	220f      	movs	r2, #15
 8004748:	fa02 f303 	lsl.w	r3, r2, r3
 800474c:	43db      	mvns	r3, r3
 800474e:	69ba      	ldr	r2, [r7, #24]
 8004750:	4013      	ands	r3, r2
 8004752:	61bb      	str	r3, [r7, #24]
        temp |= ((uint32_t)(GPIO_Init->Alternate) << (((uint32_t)position & 0x07U) * 4U));
 8004754:	683b      	ldr	r3, [r7, #0]
 8004756:	691a      	ldr	r2, [r3, #16]
 8004758:	69fb      	ldr	r3, [r7, #28]
 800475a:	f003 0307 	and.w	r3, r3, #7
 800475e:	009b      	lsls	r3, r3, #2
 8004760:	fa02 f303 	lsl.w	r3, r2, r3
 8004764:	69ba      	ldr	r2, [r7, #24]
 8004766:	4313      	orrs	r3, r2
 8004768:	61bb      	str	r3, [r7, #24]
        GPIOx->AFR[position >> 3U] = temp;
 800476a:	69fb      	ldr	r3, [r7, #28]
 800476c:	08da      	lsrs	r2, r3, #3
 800476e:	687b      	ldr	r3, [r7, #4]
 8004770:	3208      	adds	r2, #8
 8004772:	69b9      	ldr	r1, [r7, #24]
 8004774:	f843 1022 	str.w	r1, [r3, r2, lsl #2]
      }

      /* Configure IO Direction mode (Input, Output, Alternate or Analog) */
      temp = GPIOx->MODER;
 8004778:	687b      	ldr	r3, [r7, #4]
 800477a:	681b      	ldr	r3, [r3, #0]
 800477c:	61bb      	str	r3, [r7, #24]
      temp &= ~(GPIO_MODER_MODER0 << (position * 2U));
 800477e:	69fb      	ldr	r3, [r7, #28]
 8004780:	005b      	lsls	r3, r3, #1
 8004782:	2203      	movs	r2, #3
 8004784:	fa02 f303 	lsl.w	r3, r2, r3
 8004788:	43db      	mvns	r3, r3
 800478a:	69ba      	ldr	r2, [r7, #24]
 800478c:	4013      	ands	r3, r2
 800478e:	61bb      	str	r3, [r7, #24]
      temp |= ((GPIO_Init->Mode & GPIO_MODE) << (position * 2U));
 8004790:	683b      	ldr	r3, [r7, #0]
 8004792:	685b      	ldr	r3, [r3, #4]
 8004794:	f003 0203 	and.w	r2, r3, #3
 8004798:	69fb      	ldr	r3, [r7, #28]
 800479a:	005b      	lsls	r3, r3, #1
 800479c:	fa02 f303 	lsl.w	r3, r2, r3
 80047a0:	69ba      	ldr	r2, [r7, #24]
 80047a2:	4313      	orrs	r3, r2
 80047a4:	61bb      	str	r3, [r7, #24]
      GPIOx->MODER = temp;
 80047a6:	687b      	ldr	r3, [r7, #4]
 80047a8:	69ba      	ldr	r2, [r7, #24]
 80047aa:	601a      	str	r2, [r3, #0]

      /*--------------------- EXTI Mode Configuration ------------------------*/
      /* Configure the External Interrupt or event for the current IO */
      if((GPIO_Init->Mode & EXTI_MODE) != 0x00U)
 80047ac:	683b      	ldr	r3, [r7, #0]
 80047ae:	685b      	ldr	r3, [r3, #4]
 80047b0:	f403 3340 	and.w	r3, r3, #196608	; 0x30000
 80047b4:	2b00      	cmp	r3, #0
 80047b6:	f000 80c0 	beq.w	800493a <HAL_GPIO_Init+0x306>
      {
        /* Enable SYSCFG Clock */
        __HAL_RCC_SYSCFG_CLK_ENABLE();
 80047ba:	2300      	movs	r3, #0
 80047bc:	60fb      	str	r3, [r7, #12]
 80047be:	4b66      	ldr	r3, [pc, #408]	; (8004958 <HAL_GPIO_Init+0x324>)
 80047c0:	6c5b      	ldr	r3, [r3, #68]	; 0x44
 80047c2:	4a65      	ldr	r2, [pc, #404]	; (8004958 <HAL_GPIO_Init+0x324>)
 80047c4:	f443 4380 	orr.w	r3, r3, #16384	; 0x4000
 80047c8:	6453      	str	r3, [r2, #68]	; 0x44
 80047ca:	4b63      	ldr	r3, [pc, #396]	; (8004958 <HAL_GPIO_Init+0x324>)
 80047cc:	6c5b      	ldr	r3, [r3, #68]	; 0x44
 80047ce:	f403 4380 	and.w	r3, r3, #16384	; 0x4000
 80047d2:	60fb      	str	r3, [r7, #12]
 80047d4:	68fb      	ldr	r3, [r7, #12]

        temp = SYSCFG->EXTICR[position >> 2U];
 80047d6:	4a61      	ldr	r2, [pc, #388]	; (800495c <HAL_GPIO_Init+0x328>)
 80047d8:	69fb      	ldr	r3, [r7, #28]
 80047da:	089b      	lsrs	r3, r3, #2
 80047dc:	3302      	adds	r3, #2
 80047de:	f852 3023 	ldr.w	r3, [r2, r3, lsl #2]
 80047e2:	61bb      	str	r3, [r7, #24]
        temp &= ~(0x0FU << (4U * (position & 0x03U)));
 80047e4:	69fb      	ldr	r3, [r7, #28]
 80047e6:	f003 0303 	and.w	r3, r3, #3
 80047ea:	009b      	lsls	r3, r3, #2
 80047ec:	220f      	movs	r2, #15
 80047ee:	fa02 f303 	lsl.w	r3, r2, r3
 80047f2:	43db      	mvns	r3, r3
 80047f4:	69ba      	ldr	r2, [r7, #24]
 80047f6:	4013      	ands	r3, r2
 80047f8:	61bb      	str	r3, [r7, #24]
        temp |= ((uint32_t)(GPIO_GET_INDEX(GPIOx)) << (4U * (position & 0x03U)));
 80047fa:	687b      	ldr	r3, [r7, #4]
 80047fc:	4a58      	ldr	r2, [pc, #352]	; (8004960 <HAL_GPIO_Init+0x32c>)
 80047fe:	4293      	cmp	r3, r2
 8004800:	d037      	beq.n	8004872 <HAL_GPIO_Init+0x23e>
 8004802:	687b      	ldr	r3, [r7, #4]
 8004804:	4a57      	ldr	r2, [pc, #348]	; (8004964 <HAL_GPIO_Init+0x330>)
 8004806:	4293      	cmp	r3, r2
 8004808:	d031      	beq.n	800486e <HAL_GPIO_Init+0x23a>
 800480a:	687b      	ldr	r3, [r7, #4]
 800480c:	4a56      	ldr	r2, [pc, #344]	; (8004968 <HAL_GPIO_Init+0x334>)
 800480e:	4293      	cmp	r3, r2
 8004810:	d02b      	beq.n	800486a <HAL_GPIO_Init+0x236>
 8004812:	687b      	ldr	r3, [r7, #4]
 8004814:	4a55      	ldr	r2, [pc, #340]	; (800496c <HAL_GPIO_Init+0x338>)
 8004816:	4293      	cmp	r3, r2
 8004818:	d025      	beq.n	8004866 <HAL_GPIO_Init+0x232>
 800481a:	687b      	ldr	r3, [r7, #4]
 800481c:	4a54      	ldr	r2, [pc, #336]	; (8004970 <HAL_GPIO_Init+0x33c>)
 800481e:	4293      	cmp	r3, r2
 8004820:	d01f      	beq.n	8004862 <HAL_GPIO_Init+0x22e>
 8004822:	687b      	ldr	r3, [r7, #4]
 8004824:	4a53      	ldr	r2, [pc, #332]	; (8004974 <HAL_GPIO_Init+0x340>)
 8004826:	4293      	cmp	r3, r2
 8004828:	d019      	beq.n	800485e <HAL_GPIO_Init+0x22a>
 800482a:	687b      	ldr	r3, [r7, #4]
 800482c:	4a52      	ldr	r2, [pc, #328]	; (8004978 <HAL_GPIO_Init+0x344>)
 800482e:	4293      	cmp	r3, r2
 8004830:	d013      	beq.n	800485a <HAL_GPIO_Init+0x226>
 8004832:	687b      	ldr	r3, [r7, #4]
 8004834:	4a51      	ldr	r2, [pc, #324]	; (800497c <HAL_GPIO_Init+0x348>)
 8004836:	4293      	cmp	r3, r2
 8004838:	d00d      	beq.n	8004856 <HAL_GPIO_Init+0x222>
 800483a:	687b      	ldr	r3, [r7, #4]
 800483c:	4a50      	ldr	r2, [pc, #320]	; (8004980 <HAL_GPIO_Init+0x34c>)
 800483e:	4293      	cmp	r3, r2
 8004840:	d007      	beq.n	8004852 <HAL_GPIO_Init+0x21e>
 8004842:	687b      	ldr	r3, [r7, #4]
 8004844:	4a4f      	ldr	r2, [pc, #316]	; (8004984 <HAL_GPIO_Init+0x350>)
 8004846:	4293      	cmp	r3, r2
 8004848:	d101      	bne.n	800484e <HAL_GPIO_Init+0x21a>
 800484a:	2309      	movs	r3, #9
 800484c:	e012      	b.n	8004874 <HAL_GPIO_Init+0x240>
 800484e:	230a      	movs	r3, #10
 8004850:	e010      	b.n	8004874 <HAL_GPIO_Init+0x240>
 8004852:	2308      	movs	r3, #8
 8004854:	e00e      	b.n	8004874 <HAL_GPIO_Init+0x240>
 8004856:	2307      	movs	r3, #7
 8004858:	e00c      	b.n	8004874 <HAL_GPIO_Init+0x240>
 800485a:	2306      	movs	r3, #6
 800485c:	e00a      	b.n	8004874 <HAL_GPIO_Init+0x240>
 800485e:	2305      	movs	r3, #5
 8004860:	e008      	b.n	8004874 <HAL_GPIO_Init+0x240>
 8004862:	2304      	movs	r3, #4
 8004864:	e006      	b.n	8004874 <HAL_GPIO_Init+0x240>
 8004866:	2303      	movs	r3, #3
 8004868:	e004      	b.n	8004874 <HAL_GPIO_Init+0x240>
 800486a:	2302      	movs	r3, #2
 800486c:	e002      	b.n	8004874 <HAL_GPIO_Init+0x240>
 800486e:	2301      	movs	r3, #1
 8004870:	e000      	b.n	8004874 <HAL_GPIO_Init+0x240>
 8004872:	2300      	movs	r3, #0
 8004874:	69fa      	ldr	r2, [r7, #28]
 8004876:	f002 0203 	and.w	r2, r2, #3
 800487a:	0092      	lsls	r2, r2, #2
 800487c:	4093      	lsls	r3, r2
 800487e:	69ba      	ldr	r2, [r7, #24]
 8004880:	4313      	orrs	r3, r2
 8004882:	61bb      	str	r3, [r7, #24]
        SYSCFG->EXTICR[position >> 2U] = temp;
 8004884:	4935      	ldr	r1, [pc, #212]	; (800495c <HAL_GPIO_Init+0x328>)
 8004886:	69fb      	ldr	r3, [r7, #28]
 8004888:	089b      	lsrs	r3, r3, #2
 800488a:	3302      	adds	r3, #2
 800488c:	69ba      	ldr	r2, [r7, #24]
 800488e:	f841 2023 	str.w	r2, [r1, r3, lsl #2]

        /* Clear Rising Falling edge configuration */
        temp = EXTI->RTSR;
 8004892:	4b3d      	ldr	r3, [pc, #244]	; (8004988 <HAL_GPIO_Init+0x354>)
 8004894:	689b      	ldr	r3, [r3, #8]
 8004896:	61bb      	str	r3, [r7, #24]
        temp &= ~((uint32_t)iocurrent);
 8004898:	693b      	ldr	r3, [r7, #16]
 800489a:	43db      	mvns	r3, r3
 800489c:	69ba      	ldr	r2, [r7, #24]
 800489e:	4013      	ands	r3, r2
 80048a0:	61bb      	str	r3, [r7, #24]
        if((GPIO_Init->Mode & TRIGGER_RISING) != 0x00U)
 80048a2:	683b      	ldr	r3, [r7, #0]
 80048a4:	685b      	ldr	r3, [r3, #4]
 80048a6:	f403 1380 	and.w	r3, r3, #1048576	; 0x100000
 80048aa:	2b00      	cmp	r3, #0
 80048ac:	d003      	beq.n	80048b6 <HAL_GPIO_Init+0x282>
        {
          temp |= iocurrent;
 80048ae:	69ba      	ldr	r2, [r7, #24]
 80048b0:	693b      	ldr	r3, [r7, #16]
 80048b2:	4313      	orrs	r3, r2
 80048b4:	61bb      	str	r3, [r7, #24]
        }
        EXTI->RTSR = temp;
 80048b6:	4a34      	ldr	r2, [pc, #208]	; (8004988 <HAL_GPIO_Init+0x354>)
 80048b8:	69bb      	ldr	r3, [r7, #24]
 80048ba:	6093      	str	r3, [r2, #8]

        temp = EXTI->FTSR;
 80048bc:	4b32      	ldr	r3, [pc, #200]	; (8004988 <HAL_GPIO_Init+0x354>)
 80048be:	68db      	ldr	r3, [r3, #12]
 80048c0:	61bb      	str	r3, [r7, #24]
        temp &= ~((uint32_t)iocurrent);
 80048c2:	693b      	ldr	r3, [r7, #16]
 80048c4:	43db      	mvns	r3, r3
 80048c6:	69ba      	ldr	r2, [r7, #24]
 80048c8:	4013      	ands	r3, r2
 80048ca:	61bb      	str	r3, [r7, #24]
        if((GPIO_Init->Mode & TRIGGER_FALLING) != 0x00U)
 80048cc:	683b      	ldr	r3, [r7, #0]
 80048ce:	685b      	ldr	r3, [r3, #4]
 80048d0:	f403 1300 	and.w	r3, r3, #2097152	; 0x200000
 80048d4:	2b00      	cmp	r3, #0
 80048d6:	d003      	beq.n	80048e0 <HAL_GPIO_Init+0x2ac>
        {
          temp |= iocurrent;
 80048d8:	69ba      	ldr	r2, [r7, #24]
 80048da:	693b      	ldr	r3, [r7, #16]
 80048dc:	4313      	orrs	r3, r2
 80048de:	61bb      	str	r3, [r7, #24]
        }
        EXTI->FTSR = temp;
 80048e0:	4a29      	ldr	r2, [pc, #164]	; (8004988 <HAL_GPIO_Init+0x354>)
 80048e2:	69bb      	ldr	r3, [r7, #24]
 80048e4:	60d3      	str	r3, [r2, #12]

        temp = EXTI->EMR;
 80048e6:	4b28      	ldr	r3, [pc, #160]	; (8004988 <HAL_GPIO_Init+0x354>)
 80048e8:	685b      	ldr	r3, [r3, #4]
 80048ea:	61bb      	str	r3, [r7, #24]
        temp &= ~((uint32_t)iocurrent);
 80048ec:	693b      	ldr	r3, [r7, #16]
 80048ee:	43db      	mvns	r3, r3
 80048f0:	69ba      	ldr	r2, [r7, #24]
 80048f2:	4013      	ands	r3, r2
 80048f4:	61bb      	str	r3, [r7, #24]
        if((GPIO_Init->Mode & EXTI_EVT) != 0x00U)
 80048f6:	683b      	ldr	r3, [r7, #0]
 80048f8:	685b      	ldr	r3, [r3, #4]
 80048fa:	f403 3300 	and.w	r3, r3, #131072	; 0x20000
 80048fe:	2b00      	cmp	r3, #0
 8004900:	d003      	beq.n	800490a <HAL_GPIO_Init+0x2d6>
        {
          temp |= iocurrent;
 8004902:	69ba      	ldr	r2, [r7, #24]
 8004904:	693b      	ldr	r3, [r7, #16]
 8004906:	4313      	orrs	r3, r2
 8004908:	61bb      	str	r3, [r7, #24]
        }
        EXTI->EMR = temp;
 800490a:	4a1f      	ldr	r2, [pc, #124]	; (8004988 <HAL_GPIO_Init+0x354>)
 800490c:	69bb      	ldr	r3, [r7, #24]
 800490e:	6053      	str	r3, [r2, #4]

        /* Clear EXTI line configuration */
        temp = EXTI->IMR;
 8004910:	4b1d      	ldr	r3, [pc, #116]	; (8004988 <HAL_GPIO_Init+0x354>)
 8004912:	681b      	ldr	r3, [r3, #0]
 8004914:	61bb      	str	r3, [r7, #24]
        temp &= ~((uint32_t)iocurrent);
 8004916:	693b      	ldr	r3, [r7, #16]
 8004918:	43db      	mvns	r3, r3
 800491a:	69ba      	ldr	r2, [r7, #24]
 800491c:	4013      	ands	r3, r2
 800491e:	61bb      	str	r3, [r7, #24]
        if((GPIO_Init->Mode & EXTI_IT) != 0x00U)
 8004920:	683b      	ldr	r3, [r7, #0]
 8004922:	685b      	ldr	r3, [r3, #4]
 8004924:	f403 3380 	and.w	r3, r3, #65536	; 0x10000
 8004928:	2b00      	cmp	r3, #0
 800492a:	d003      	beq.n	8004934 <HAL_GPIO_Init+0x300>
        {
          temp |= iocurrent;
 800492c:	69ba      	ldr	r2, [r7, #24]
 800492e:	693b      	ldr	r3, [r7, #16]
 8004930:	4313      	orrs	r3, r2
 8004932:	61bb      	str	r3, [r7, #24]
        }
        EXTI->IMR = temp;
 8004934:	4a14      	ldr	r2, [pc, #80]	; (8004988 <HAL_GPIO_Init+0x354>)
 8004936:	69bb      	ldr	r3, [r7, #24]
 8004938:	6013      	str	r3, [r2, #0]
  for(position = 0U; position < GPIO_NUMBER; position++)
 800493a:	69fb      	ldr	r3, [r7, #28]
 800493c:	3301      	adds	r3, #1
 800493e:	61fb      	str	r3, [r7, #28]
 8004940:	69fb      	ldr	r3, [r7, #28]
 8004942:	2b0f      	cmp	r3, #15
 8004944:	f67f ae84 	bls.w	8004650 <HAL_GPIO_Init+0x1c>
      }
    }
  }
}
 8004948:	bf00      	nop
 800494a:	bf00      	nop
 800494c:	3724      	adds	r7, #36	; 0x24
 800494e:	46bd      	mov	sp, r7
 8004950:	f85d 7b04 	ldr.w	r7, [sp], #4
 8004954:	4770      	bx	lr
 8004956:	bf00      	nop
 8004958:	40023800 	.word	0x40023800
 800495c:	40013800 	.word	0x40013800
 8004960:	40020000 	.word	0x40020000
 8004964:	40020400 	.word	0x40020400
 8004968:	40020800 	.word	0x40020800
 800496c:	40020c00 	.word	0x40020c00
 8004970:	40021000 	.word	0x40021000
 8004974:	40021400 	.word	0x40021400
 8004978:	40021800 	.word	0x40021800
 800497c:	40021c00 	.word	0x40021c00
 8004980:	40022000 	.word	0x40022000
 8004984:	40022400 	.word	0x40022400
 8004988:	40013c00 	.word	0x40013c00

0800498c <HAL_GPIO_ReadPin>:
  * @param  GPIO_Pin specifies the port bit to read.
  *         This parameter can be GPIO_PIN_x where x can be (0..15).
  * @retval The input port pin value.
  */
GPIO_PinState HAL_GPIO_ReadPin(GPIO_TypeDef* GPIOx, uint16_t GPIO_Pin)
{
 800498c:	b480      	push	{r7}
 800498e:	b085      	sub	sp, #20
 8004990:	af00      	add	r7, sp, #0
 8004992:	6078      	str	r0, [r7, #4]
 8004994:	460b      	mov	r3, r1
 8004996:	807b      	strh	r3, [r7, #2]
  GPIO_PinState bitstatus;

  /* Check the parameters */
  assert_param(IS_GPIO_PIN(GPIO_Pin));

  if((GPIOx->IDR & GPIO_Pin) != (uint32_t)GPIO_PIN_RESET)
 8004998:	687b      	ldr	r3, [r7, #4]
 800499a:	691a      	ldr	r2, [r3, #16]
 800499c:	887b      	ldrh	r3, [r7, #2]
 800499e:	4013      	ands	r3, r2
 80049a0:	2b00      	cmp	r3, #0
 80049a2:	d002      	beq.n	80049aa <HAL_GPIO_ReadPin+0x1e>
  {
    bitstatus = GPIO_PIN_SET;
 80049a4:	2301      	movs	r3, #1
 80049a6:	73fb      	strb	r3, [r7, #15]
 80049a8:	e001      	b.n	80049ae <HAL_GPIO_ReadPin+0x22>
  }
  else
  {
    bitstatus = GPIO_PIN_RESET;
 80049aa:	2300      	movs	r3, #0
 80049ac:	73fb      	strb	r3, [r7, #15]
  }
  return bitstatus;
 80049ae:	7bfb      	ldrb	r3, [r7, #15]
}
 80049b0:	4618      	mov	r0, r3
 80049b2:	3714      	adds	r7, #20
 80049b4:	46bd      	mov	sp, r7
 80049b6:	f85d 7b04 	ldr.w	r7, [sp], #4
 80049ba:	4770      	bx	lr

080049bc <HAL_GPIO_WritePin>:
  *            @arg GPIO_PIN_RESET: to clear the port pin
  *            @arg GPIO_PIN_SET: to set the port pin
  * @retval None
  */
void HAL_GPIO_WritePin(GPIO_TypeDef* GPIOx, uint16_t GPIO_Pin, GPIO_PinState PinState)
{
 80049bc:	b480      	push	{r7}
 80049be:	b083      	sub	sp, #12
 80049c0:	af00      	add	r7, sp, #0
 80049c2:	6078      	str	r0, [r7, #4]
 80049c4:	460b      	mov	r3, r1
 80049c6:	807b      	strh	r3, [r7, #2]
 80049c8:	4613      	mov	r3, r2
 80049ca:	707b      	strb	r3, [r7, #1]
  /* Check the parameters */
  assert_param(IS_GPIO_PIN(GPIO_Pin));
  assert_param(IS_GPIO_PIN_ACTION(PinState));

  if(PinState != GPIO_PIN_RESET)
 80049cc:	787b      	ldrb	r3, [r7, #1]
 80049ce:	2b00      	cmp	r3, #0
 80049d0:	d003      	beq.n	80049da <HAL_GPIO_WritePin+0x1e>
  {
    GPIOx->BSRR = GPIO_Pin;
 80049d2:	887a      	ldrh	r2, [r7, #2]
 80049d4:	687b      	ldr	r3, [r7, #4]
 80049d6:	619a      	str	r2, [r3, #24]
  }
  else
  {
    GPIOx->BSRR = (uint32_t)GPIO_Pin << 16U;
  }
}
 80049d8:	e003      	b.n	80049e2 <HAL_GPIO_WritePin+0x26>
    GPIOx->BSRR = (uint32_t)GPIO_Pin << 16U;
 80049da:	887b      	ldrh	r3, [r7, #2]
 80049dc:	041a      	lsls	r2, r3, #16
 80049de:	687b      	ldr	r3, [r7, #4]
 80049e0:	619a      	str	r2, [r3, #24]
}
 80049e2:	bf00      	nop
 80049e4:	370c      	adds	r7, #12
 80049e6:	46bd      	mov	sp, r7
 80049e8:	f85d 7b04 	ldr.w	r7, [sp], #4
 80049ec:	4770      	bx	lr

080049ee <HAL_GPIO_TogglePin>:
  *                      x can be (A..I) to select the GPIO peripheral for STM32F40XX and STM32F427X devices.
  * @param  GPIO_Pin Specifies the pins to be toggled.
  * @retval None
  */
void HAL_GPIO_TogglePin(GPIO_TypeDef* GPIOx, uint16_t GPIO_Pin)
{
 80049ee:	b480      	push	{r7}
 80049f0:	b085      	sub	sp, #20
 80049f2:	af00      	add	r7, sp, #0
 80049f4:	6078      	str	r0, [r7, #4]
 80049f6:	460b      	mov	r3, r1
 80049f8:	807b      	strh	r3, [r7, #2]

  /* Check the parameters */
  assert_param(IS_GPIO_PIN(GPIO_Pin));

  /* get current Output Data Register value */
  odr = GPIOx->ODR;
 80049fa:	687b      	ldr	r3, [r7, #4]
 80049fc:	695b      	ldr	r3, [r3, #20]
 80049fe:	60fb      	str	r3, [r7, #12]

  /* Set selected pins that were at low level, and reset ones that were high */
  GPIOx->BSRR = ((odr & GPIO_Pin) << GPIO_NUMBER) | (~odr & GPIO_Pin);
 8004a00:	887a      	ldrh	r2, [r7, #2]
 8004a02:	68fb      	ldr	r3, [r7, #12]
 8004a04:	4013      	ands	r3, r2
 8004a06:	041a      	lsls	r2, r3, #16
 8004a08:	68fb      	ldr	r3, [r7, #12]
 8004a0a:	43d9      	mvns	r1, r3
 8004a0c:	887b      	ldrh	r3, [r7, #2]
 8004a0e:	400b      	ands	r3, r1
 8004a10:	431a      	orrs	r2, r3
 8004a12:	687b      	ldr	r3, [r7, #4]
 8004a14:	619a      	str	r2, [r3, #24]
}
 8004a16:	bf00      	nop
 8004a18:	3714      	adds	r7, #20
 8004a1a:	46bd      	mov	sp, r7
 8004a1c:	f85d 7b04 	ldr.w	r7, [sp], #4
 8004a20:	4770      	bx	lr
	...

08004a24 <HAL_I2C_Init>:
  * @param  hi2c Pointer to a I2C_HandleTypeDef structure that contains
  *                the configuration information for the specified I2C.
  * @retval HAL status
  */
HAL_StatusTypeDef HAL_I2C_Init(I2C_HandleTypeDef *hi2c)
{
 8004a24:	b580      	push	{r7, lr}
 8004a26:	b084      	sub	sp, #16
 8004a28:	af00      	add	r7, sp, #0
 8004a2a:	6078      	str	r0, [r7, #4]
  uint32_t freqrange;
  uint32_t pclk1;

  /* Check the I2C handle allocation */
  if (hi2c == NULL)
 8004a2c:	687b      	ldr	r3, [r7, #4]
 8004a2e:	2b00      	cmp	r3, #0
 8004a30:	d101      	bne.n	8004a36 <HAL_I2C_Init+0x12>
  {
    return HAL_ERROR;
 8004a32:	2301      	movs	r3, #1
 8004a34:	e12b      	b.n	8004c8e <HAL_I2C_Init+0x26a>
  assert_param(IS_I2C_DUAL_ADDRESS(hi2c->Init.DualAddressMode));
  assert_param(IS_I2C_OWN_ADDRESS2(hi2c->Init.OwnAddress2));
  assert_param(IS_I2C_GENERAL_CALL(hi2c->Init.GeneralCallMode));
  assert_param(IS_I2C_NO_STRETCH(hi2c->Init.NoStretchMode));

  if (hi2c->State == HAL_I2C_STATE_RESET)
 8004a36:	687b      	ldr	r3, [r7, #4]
 8004a38:	f893 303d 	ldrb.w	r3, [r3, #61]	; 0x3d
 8004a3c:	b2db      	uxtb	r3, r3
 8004a3e:	2b00      	cmp	r3, #0
 8004a40:	d106      	bne.n	8004a50 <HAL_I2C_Init+0x2c>
  {
    /* Allocate lock resource and initialize it */
    hi2c->Lock = HAL_UNLOCKED;
 8004a42:	687b      	ldr	r3, [r7, #4]
 8004a44:	2200      	movs	r2, #0
 8004a46:	f883 203c 	strb.w	r2, [r3, #60]	; 0x3c

    /* Init the low level hardware : GPIO, CLOCK, NVIC */
    hi2c->MspInitCallback(hi2c);
#else
    /* Init the low level hardware : GPIO, CLOCK, NVIC */
    HAL_I2C_MspInit(hi2c);
 8004a4a:	6878      	ldr	r0, [r7, #4]
 8004a4c:	f7fd fe4a 	bl	80026e4 <HAL_I2C_MspInit>
#endif /* USE_HAL_I2C_REGISTER_CALLBACKS */
  }

  hi2c->State = HAL_I2C_STATE_BUSY;
 8004a50:	687b      	ldr	r3, [r7, #4]
 8004a52:	2224      	movs	r2, #36	; 0x24
 8004a54:	f883 203d 	strb.w	r2, [r3, #61]	; 0x3d

  /* Disable the selected I2C peripheral */
  __HAL_I2C_DISABLE(hi2c);
 8004a58:	687b      	ldr	r3, [r7, #4]
 8004a5a:	681b      	ldr	r3, [r3, #0]
 8004a5c:	681a      	ldr	r2, [r3, #0]
 8004a5e:	687b      	ldr	r3, [r7, #4]
 8004a60:	681b      	ldr	r3, [r3, #0]
 8004a62:	f022 0201 	bic.w	r2, r2, #1
 8004a66:	601a      	str	r2, [r3, #0]

  /*Reset I2C*/
  hi2c->Instance->CR1 |= I2C_CR1_SWRST;
 8004a68:	687b      	ldr	r3, [r7, #4]
 8004a6a:	681b      	ldr	r3, [r3, #0]
 8004a6c:	681a      	ldr	r2, [r3, #0]
 8004a6e:	687b      	ldr	r3, [r7, #4]
 8004a70:	681b      	ldr	r3, [r3, #0]
 8004a72:	f442 4200 	orr.w	r2, r2, #32768	; 0x8000
 8004a76:	601a      	str	r2, [r3, #0]
  hi2c->Instance->CR1 &= ~I2C_CR1_SWRST;
 8004a78:	687b      	ldr	r3, [r7, #4]
 8004a7a:	681b      	ldr	r3, [r3, #0]
 8004a7c:	681a      	ldr	r2, [r3, #0]
 8004a7e:	687b      	ldr	r3, [r7, #4]
 8004a80:	681b      	ldr	r3, [r3, #0]
 8004a82:	f422 4200 	bic.w	r2, r2, #32768	; 0x8000
 8004a86:	601a      	str	r2, [r3, #0]

  /* Get PCLK1 frequency */
  pclk1 = HAL_RCC_GetPCLK1Freq();
 8004a88:	f001 fc72 	bl	8006370 <HAL_RCC_GetPCLK1Freq>
 8004a8c:	60f8      	str	r0, [r7, #12]

  /* Check the minimum allowed PCLK1 frequency */
  if (I2C_MIN_PCLK_FREQ(pclk1, hi2c->Init.ClockSpeed) == 1U)
 8004a8e:	687b      	ldr	r3, [r7, #4]
 8004a90:	685b      	ldr	r3, [r3, #4]
 8004a92:	4a81      	ldr	r2, [pc, #516]	; (8004c98 <HAL_I2C_Init+0x274>)
 8004a94:	4293      	cmp	r3, r2
 8004a96:	d807      	bhi.n	8004aa8 <HAL_I2C_Init+0x84>
 8004a98:	68fb      	ldr	r3, [r7, #12]
 8004a9a:	4a80      	ldr	r2, [pc, #512]	; (8004c9c <HAL_I2C_Init+0x278>)
 8004a9c:	4293      	cmp	r3, r2
 8004a9e:	bf94      	ite	ls
 8004aa0:	2301      	movls	r3, #1
 8004aa2:	2300      	movhi	r3, #0
 8004aa4:	b2db      	uxtb	r3, r3
 8004aa6:	e006      	b.n	8004ab6 <HAL_I2C_Init+0x92>
 8004aa8:	68fb      	ldr	r3, [r7, #12]
 8004aaa:	4a7d      	ldr	r2, [pc, #500]	; (8004ca0 <HAL_I2C_Init+0x27c>)
 8004aac:	4293      	cmp	r3, r2
 8004aae:	bf94      	ite	ls
 8004ab0:	2301      	movls	r3, #1
 8004ab2:	2300      	movhi	r3, #0
 8004ab4:	b2db      	uxtb	r3, r3
 8004ab6:	2b00      	cmp	r3, #0
 8004ab8:	d001      	beq.n	8004abe <HAL_I2C_Init+0x9a>
  {
    return HAL_ERROR;
 8004aba:	2301      	movs	r3, #1
 8004abc:	e0e7      	b.n	8004c8e <HAL_I2C_Init+0x26a>
  }

  /* Calculate frequency range */
  freqrange = I2C_FREQRANGE(pclk1);
 8004abe:	68fb      	ldr	r3, [r7, #12]
 8004ac0:	4a78      	ldr	r2, [pc, #480]	; (8004ca4 <HAL_I2C_Init+0x280>)
 8004ac2:	fba2 2303 	umull	r2, r3, r2, r3
 8004ac6:	0c9b      	lsrs	r3, r3, #18
 8004ac8:	60bb      	str	r3, [r7, #8]

  /*---------------------------- I2Cx CR2 Configuration ----------------------*/
  /* Configure I2Cx: Frequency range */
  MODIFY_REG(hi2c->Instance->CR2, I2C_CR2_FREQ, freqrange);
 8004aca:	687b      	ldr	r3, [r7, #4]
 8004acc:	681b      	ldr	r3, [r3, #0]
 8004ace:	685b      	ldr	r3, [r3, #4]
 8004ad0:	f023 013f 	bic.w	r1, r3, #63	; 0x3f
 8004ad4:	687b      	ldr	r3, [r7, #4]
 8004ad6:	681b      	ldr	r3, [r3, #0]
 8004ad8:	68ba      	ldr	r2, [r7, #8]
 8004ada:	430a      	orrs	r2, r1
 8004adc:	605a      	str	r2, [r3, #4]

  /*---------------------------- I2Cx TRISE Configuration --------------------*/
  /* Configure I2Cx: Rise Time */
  MODIFY_REG(hi2c->Instance->TRISE, I2C_TRISE_TRISE, I2C_RISE_TIME(freqrange, hi2c->Init.ClockSpeed));
 8004ade:	687b      	ldr	r3, [r7, #4]
 8004ae0:	681b      	ldr	r3, [r3, #0]
 8004ae2:	6a1b      	ldr	r3, [r3, #32]
 8004ae4:	f023 013f 	bic.w	r1, r3, #63	; 0x3f
 8004ae8:	687b      	ldr	r3, [r7, #4]
 8004aea:	685b      	ldr	r3, [r3, #4]
 8004aec:	4a6a      	ldr	r2, [pc, #424]	; (8004c98 <HAL_I2C_Init+0x274>)
 8004aee:	4293      	cmp	r3, r2
 8004af0:	d802      	bhi.n	8004af8 <HAL_I2C_Init+0xd4>
 8004af2:	68bb      	ldr	r3, [r7, #8]
 8004af4:	3301      	adds	r3, #1
 8004af6:	e009      	b.n	8004b0c <HAL_I2C_Init+0xe8>
 8004af8:	68bb      	ldr	r3, [r7, #8]
 8004afa:	f44f 7296 	mov.w	r2, #300	; 0x12c
 8004afe:	fb02 f303 	mul.w	r3, r2, r3
 8004b02:	4a69      	ldr	r2, [pc, #420]	; (8004ca8 <HAL_I2C_Init+0x284>)
 8004b04:	fba2 2303 	umull	r2, r3, r2, r3
 8004b08:	099b      	lsrs	r3, r3, #6
 8004b0a:	3301      	adds	r3, #1
 8004b0c:	687a      	ldr	r2, [r7, #4]
 8004b0e:	6812      	ldr	r2, [r2, #0]
 8004b10:	430b      	orrs	r3, r1
 8004b12:	6213      	str	r3, [r2, #32]

  /*---------------------------- I2Cx CCR Configuration ----------------------*/
  /* Configure I2Cx: Speed */
  MODIFY_REG(hi2c->Instance->CCR, (I2C_CCR_FS | I2C_CCR_DUTY | I2C_CCR_CCR), I2C_SPEED(pclk1, hi2c->Init.ClockSpeed, hi2c->Init.DutyCycle));
 8004b14:	687b      	ldr	r3, [r7, #4]
 8004b16:	681b      	ldr	r3, [r3, #0]
 8004b18:	69db      	ldr	r3, [r3, #28]
 8004b1a:	f423 424f 	bic.w	r2, r3, #52992	; 0xcf00
 8004b1e:	f022 02ff 	bic.w	r2, r2, #255	; 0xff
 8004b22:	687b      	ldr	r3, [r7, #4]
 8004b24:	685b      	ldr	r3, [r3, #4]
 8004b26:	495c      	ldr	r1, [pc, #368]	; (8004c98 <HAL_I2C_Init+0x274>)
 8004b28:	428b      	cmp	r3, r1
 8004b2a:	d819      	bhi.n	8004b60 <HAL_I2C_Init+0x13c>
 8004b2c:	68fb      	ldr	r3, [r7, #12]
 8004b2e:	1e59      	subs	r1, r3, #1
 8004b30:	687b      	ldr	r3, [r7, #4]
 8004b32:	685b      	ldr	r3, [r3, #4]
 8004b34:	005b      	lsls	r3, r3, #1
 8004b36:	fbb1 f3f3 	udiv	r3, r1, r3
 8004b3a:	1c59      	adds	r1, r3, #1
 8004b3c:	f640 73fc 	movw	r3, #4092	; 0xffc
 8004b40:	400b      	ands	r3, r1
 8004b42:	2b00      	cmp	r3, #0
 8004b44:	d00a      	beq.n	8004b5c <HAL_I2C_Init+0x138>
 8004b46:	68fb      	ldr	r3, [r7, #12]
 8004b48:	1e59      	subs	r1, r3, #1
 8004b4a:	687b      	ldr	r3, [r7, #4]
 8004b4c:	685b      	ldr	r3, [r3, #4]
 8004b4e:	005b      	lsls	r3, r3, #1
 8004b50:	fbb1 f3f3 	udiv	r3, r1, r3
 8004b54:	3301      	adds	r3, #1
 8004b56:	f3c3 030b 	ubfx	r3, r3, #0, #12
 8004b5a:	e051      	b.n	8004c00 <HAL_I2C_Init+0x1dc>
 8004b5c:	2304      	movs	r3, #4
 8004b5e:	e04f      	b.n	8004c00 <HAL_I2C_Init+0x1dc>
 8004b60:	687b      	ldr	r3, [r7, #4]
 8004b62:	689b      	ldr	r3, [r3, #8]
 8004b64:	2b00      	cmp	r3, #0
 8004b66:	d111      	bne.n	8004b8c <HAL_I2C_Init+0x168>
 8004b68:	68fb      	ldr	r3, [r7, #12]
 8004b6a:	1e58      	subs	r0, r3, #1
 8004b6c:	687b      	ldr	r3, [r7, #4]
 8004b6e:	6859      	ldr	r1, [r3, #4]
 8004b70:	460b      	mov	r3, r1
 8004b72:	005b      	lsls	r3, r3, #1
 8004b74:	440b      	add	r3, r1
 8004b76:	fbb0 f3f3 	udiv	r3, r0, r3
 8004b7a:	3301      	adds	r3, #1
 8004b7c:	f3c3 030b 	ubfx	r3, r3, #0, #12
 8004b80:	2b00      	cmp	r3, #0
 8004b82:	bf0c      	ite	eq
 8004b84:	2301      	moveq	r3, #1
 8004b86:	2300      	movne	r3, #0
 8004b88:	b2db      	uxtb	r3, r3
 8004b8a:	e012      	b.n	8004bb2 <HAL_I2C_Init+0x18e>
 8004b8c:	68fb      	ldr	r3, [r7, #12]
 8004b8e:	1e58      	subs	r0, r3, #1
 8004b90:	687b      	ldr	r3, [r7, #4]
 8004b92:	6859      	ldr	r1, [r3, #4]
 8004b94:	460b      	mov	r3, r1
 8004b96:	009b      	lsls	r3, r3, #2
 8004b98:	440b      	add	r3, r1
 8004b9a:	0099      	lsls	r1, r3, #2
 8004b9c:	440b      	add	r3, r1
 8004b9e:	fbb0 f3f3 	udiv	r3, r0, r3
 8004ba2:	3301      	adds	r3, #1
 8004ba4:	f3c3 030b 	ubfx	r3, r3, #0, #12
 8004ba8:	2b00      	cmp	r3, #0
 8004baa:	bf0c      	ite	eq
 8004bac:	2301      	moveq	r3, #1
 8004bae:	2300      	movne	r3, #0
 8004bb0:	b2db      	uxtb	r3, r3
 8004bb2:	2b00      	cmp	r3, #0
 8004bb4:	d001      	beq.n	8004bba <HAL_I2C_Init+0x196>
 8004bb6:	2301      	movs	r3, #1
 8004bb8:	e022      	b.n	8004c00 <HAL_I2C_Init+0x1dc>
 8004bba:	687b      	ldr	r3, [r7, #4]
 8004bbc:	689b      	ldr	r3, [r3, #8]
 8004bbe:	2b00      	cmp	r3, #0
 8004bc0:	d10e      	bne.n	8004be0 <HAL_I2C_Init+0x1bc>
 8004bc2:	68fb      	ldr	r3, [r7, #12]
 8004bc4:	1e58      	subs	r0, r3, #1
 8004bc6:	687b      	ldr	r3, [r7, #4]
 8004bc8:	6859      	ldr	r1, [r3, #4]
 8004bca:	460b      	mov	r3, r1
 8004bcc:	005b      	lsls	r3, r3, #1
 8004bce:	440b      	add	r3, r1
 8004bd0:	fbb0 f3f3 	udiv	r3, r0, r3
 8004bd4:	3301      	adds	r3, #1
 8004bd6:	f3c3 030b 	ubfx	r3, r3, #0, #12
 8004bda:	f443 4300 	orr.w	r3, r3, #32768	; 0x8000
 8004bde:	e00f      	b.n	8004c00 <HAL_I2C_Init+0x1dc>
 8004be0:	68fb      	ldr	r3, [r7, #12]
 8004be2:	1e58      	subs	r0, r3, #1
 8004be4:	687b      	ldr	r3, [r7, #4]
 8004be6:	6859      	ldr	r1, [r3, #4]
 8004be8:	460b      	mov	r3, r1
 8004bea:	009b      	lsls	r3, r3, #2
 8004bec:	440b      	add	r3, r1
 8004bee:	0099      	lsls	r1, r3, #2
 8004bf0:	440b      	add	r3, r1
 8004bf2:	fbb0 f3f3 	udiv	r3, r0, r3
 8004bf6:	3301      	adds	r3, #1
 8004bf8:	f3c3 030b 	ubfx	r3, r3, #0, #12
 8004bfc:	f443 4340 	orr.w	r3, r3, #49152	; 0xc000
 8004c00:	6879      	ldr	r1, [r7, #4]
 8004c02:	6809      	ldr	r1, [r1, #0]
 8004c04:	4313      	orrs	r3, r2
 8004c06:	61cb      	str	r3, [r1, #28]

  /*---------------------------- I2Cx CR1 Configuration ----------------------*/
  /* Configure I2Cx: Generalcall and NoStretch mode */
  MODIFY_REG(hi2c->Instance->CR1, (I2C_CR1_ENGC | I2C_CR1_NOSTRETCH), (hi2c->Init.GeneralCallMode | hi2c->Init.NoStretchMode));
 8004c08:	687b      	ldr	r3, [r7, #4]
 8004c0a:	681b      	ldr	r3, [r3, #0]
 8004c0c:	681b      	ldr	r3, [r3, #0]
 8004c0e:	f023 01c0 	bic.w	r1, r3, #192	; 0xc0
 8004c12:	687b      	ldr	r3, [r7, #4]
 8004c14:	69da      	ldr	r2, [r3, #28]
 8004c16:	687b      	ldr	r3, [r7, #4]
 8004c18:	6a1b      	ldr	r3, [r3, #32]
 8004c1a:	431a      	orrs	r2, r3
 8004c1c:	687b      	ldr	r3, [r7, #4]
 8004c1e:	681b      	ldr	r3, [r3, #0]
 8004c20:	430a      	orrs	r2, r1
 8004c22:	601a      	str	r2, [r3, #0]

  /*---------------------------- I2Cx OAR1 Configuration ---------------------*/
  /* Configure I2Cx: Own Address1 and addressing mode */
  MODIFY_REG(hi2c->Instance->OAR1, (I2C_OAR1_ADDMODE | I2C_OAR1_ADD8_9 | I2C_OAR1_ADD1_7 | I2C_OAR1_ADD0), (hi2c->Init.AddressingMode | hi2c->Init.OwnAddress1));
 8004c24:	687b      	ldr	r3, [r7, #4]
 8004c26:	681b      	ldr	r3, [r3, #0]
 8004c28:	689b      	ldr	r3, [r3, #8]
 8004c2a:	f423 4303 	bic.w	r3, r3, #33536	; 0x8300
 8004c2e:	f023 03ff 	bic.w	r3, r3, #255	; 0xff
 8004c32:	687a      	ldr	r2, [r7, #4]
 8004c34:	6911      	ldr	r1, [r2, #16]
 8004c36:	687a      	ldr	r2, [r7, #4]
 8004c38:	68d2      	ldr	r2, [r2, #12]
 8004c3a:	4311      	orrs	r1, r2
 8004c3c:	687a      	ldr	r2, [r7, #4]
 8004c3e:	6812      	ldr	r2, [r2, #0]
 8004c40:	430b      	orrs	r3, r1
 8004c42:	6093      	str	r3, [r2, #8]

  /*---------------------------- I2Cx OAR2 Configuration ---------------------*/
  /* Configure I2Cx: Dual mode and Own Address2 */
  MODIFY_REG(hi2c->Instance->OAR2, (I2C_OAR2_ENDUAL | I2C_OAR2_ADD2), (hi2c->Init.DualAddressMode | hi2c->Init.OwnAddress2));
 8004c44:	687b      	ldr	r3, [r7, #4]
 8004c46:	681b      	ldr	r3, [r3, #0]
 8004c48:	68db      	ldr	r3, [r3, #12]
 8004c4a:	f023 01ff 	bic.w	r1, r3, #255	; 0xff
 8004c4e:	687b      	ldr	r3, [r7, #4]
 8004c50:	695a      	ldr	r2, [r3, #20]
 8004c52:	687b      	ldr	r3, [r7, #4]
 8004c54:	699b      	ldr	r3, [r3, #24]
 8004c56:	431a      	orrs	r2, r3
 8004c58:	687b      	ldr	r3, [r7, #4]
 8004c5a:	681b      	ldr	r3, [r3, #0]
 8004c5c:	430a      	orrs	r2, r1
 8004c5e:	60da      	str	r2, [r3, #12]

  /* Enable the selected I2C peripheral */
  __HAL_I2C_ENABLE(hi2c);
 8004c60:	687b      	ldr	r3, [r7, #4]
 8004c62:	681b      	ldr	r3, [r3, #0]
 8004c64:	681a      	ldr	r2, [r3, #0]
 8004c66:	687b      	ldr	r3, [r7, #4]
 8004c68:	681b      	ldr	r3, [r3, #0]
 8004c6a:	f042 0201 	orr.w	r2, r2, #1
 8004c6e:	601a      	str	r2, [r3, #0]

  hi2c->ErrorCode = HAL_I2C_ERROR_NONE;
 8004c70:	687b      	ldr	r3, [r7, #4]
 8004c72:	2200      	movs	r2, #0
 8004c74:	641a      	str	r2, [r3, #64]	; 0x40
  hi2c->State = HAL_I2C_STATE_READY;
 8004c76:	687b      	ldr	r3, [r7, #4]
 8004c78:	2220      	movs	r2, #32
 8004c7a:	f883 203d 	strb.w	r2, [r3, #61]	; 0x3d
  hi2c->PreviousState = I2C_STATE_NONE;
 8004c7e:	687b      	ldr	r3, [r7, #4]
 8004c80:	2200      	movs	r2, #0
 8004c82:	631a      	str	r2, [r3, #48]	; 0x30
  hi2c->Mode = HAL_I2C_MODE_NONE;
 8004c84:	687b      	ldr	r3, [r7, #4]
 8004c86:	2200      	movs	r2, #0
 8004c88:	f883 203e 	strb.w	r2, [r3, #62]	; 0x3e

  return HAL_OK;
 8004c8c:	2300      	movs	r3, #0
}
 8004c8e:	4618      	mov	r0, r3
 8004c90:	3710      	adds	r7, #16
 8004c92:	46bd      	mov	sp, r7
 8004c94:	bd80      	pop	{r7, pc}
 8004c96:	bf00      	nop
 8004c98:	000186a0 	.word	0x000186a0
 8004c9c:	001e847f 	.word	0x001e847f
 8004ca0:	003d08ff 	.word	0x003d08ff
 8004ca4:	431bde83 	.word	0x431bde83
 8004ca8:	10624dd3 	.word	0x10624dd3

08004cac <HAL_I2C_Master_Transmit>:
  * @param  Size Amount of data to be sent
  * @param  Timeout Timeout duration
  * @retval HAL status
  */
HAL_StatusTypeDef HAL_I2C_Master_Transmit(I2C_HandleTypeDef *hi2c, uint16_t DevAddress, uint8_t *pData, uint16_t Size, uint32_t Timeout)
{
 8004cac:	b580      	push	{r7, lr}
 8004cae:	b088      	sub	sp, #32
 8004cb0:	af02      	add	r7, sp, #8
 8004cb2:	60f8      	str	r0, [r7, #12]
 8004cb4:	607a      	str	r2, [r7, #4]
 8004cb6:	461a      	mov	r2, r3
 8004cb8:	460b      	mov	r3, r1
 8004cba:	817b      	strh	r3, [r7, #10]
 8004cbc:	4613      	mov	r3, r2
 8004cbe:	813b      	strh	r3, [r7, #8]
  /* Init tickstart for timeout management*/
  uint32_t tickstart = HAL_GetTick();
 8004cc0:	f7fe f90c 	bl	8002edc <HAL_GetTick>
 8004cc4:	6178      	str	r0, [r7, #20]

  if (hi2c->State == HAL_I2C_STATE_READY)
 8004cc6:	68fb      	ldr	r3, [r7, #12]
 8004cc8:	f893 303d 	ldrb.w	r3, [r3, #61]	; 0x3d
 8004ccc:	b2db      	uxtb	r3, r3
 8004cce:	2b20      	cmp	r3, #32
 8004cd0:	f040 80e0 	bne.w	8004e94 <HAL_I2C_Master_Transmit+0x1e8>
  {
    /* Wait until BUSY flag is reset */
    if (I2C_WaitOnFlagUntilTimeout(hi2c, I2C_FLAG_BUSY, SET, I2C_TIMEOUT_BUSY_FLAG, tickstart) != HAL_OK)
 8004cd4:	697b      	ldr	r3, [r7, #20]
 8004cd6:	9300      	str	r3, [sp, #0]
 8004cd8:	2319      	movs	r3, #25
 8004cda:	2201      	movs	r2, #1
 8004cdc:	4970      	ldr	r1, [pc, #448]	; (8004ea0 <HAL_I2C_Master_Transmit+0x1f4>)
 8004cde:	68f8      	ldr	r0, [r7, #12]
 8004ce0:	f000 fc64 	bl	80055ac <I2C_WaitOnFlagUntilTimeout>
 8004ce4:	4603      	mov	r3, r0
 8004ce6:	2b00      	cmp	r3, #0
 8004ce8:	d001      	beq.n	8004cee <HAL_I2C_Master_Transmit+0x42>
    {
      return HAL_BUSY;
 8004cea:	2302      	movs	r3, #2
 8004cec:	e0d3      	b.n	8004e96 <HAL_I2C_Master_Transmit+0x1ea>
    }

    /* Process Locked */
    __HAL_LOCK(hi2c);
 8004cee:	68fb      	ldr	r3, [r7, #12]
 8004cf0:	f893 303c 	ldrb.w	r3, [r3, #60]	; 0x3c
 8004cf4:	2b01      	cmp	r3, #1
 8004cf6:	d101      	bne.n	8004cfc <HAL_I2C_Master_Transmit+0x50>
 8004cf8:	2302      	movs	r3, #2
 8004cfa:	e0cc      	b.n	8004e96 <HAL_I2C_Master_Transmit+0x1ea>
 8004cfc:	68fb      	ldr	r3, [r7, #12]
 8004cfe:	2201      	movs	r2, #1
 8004d00:	f883 203c 	strb.w	r2, [r3, #60]	; 0x3c

    /* Check if the I2C is already enabled */
    if ((hi2c->Instance->CR1 & I2C_CR1_PE) != I2C_CR1_PE)
 8004d04:	68fb      	ldr	r3, [r7, #12]
 8004d06:	681b      	ldr	r3, [r3, #0]
 8004d08:	681b      	ldr	r3, [r3, #0]
 8004d0a:	f003 0301 	and.w	r3, r3, #1
 8004d0e:	2b01      	cmp	r3, #1
 8004d10:	d007      	beq.n	8004d22 <HAL_I2C_Master_Transmit+0x76>
    {
      /* Enable I2C peripheral */
      __HAL_I2C_ENABLE(hi2c);
 8004d12:	68fb      	ldr	r3, [r7, #12]
 8004d14:	681b      	ldr	r3, [r3, #0]
 8004d16:	681a      	ldr	r2, [r3, #0]
 8004d18:	68fb      	ldr	r3, [r7, #12]
 8004d1a:	681b      	ldr	r3, [r3, #0]
 8004d1c:	f042 0201 	orr.w	r2, r2, #1
 8004d20:	601a      	str	r2, [r3, #0]
    }

    /* Disable Pos */
    CLEAR_BIT(hi2c->Instance->CR1, I2C_CR1_POS);
 8004d22:	68fb      	ldr	r3, [r7, #12]
 8004d24:	681b      	ldr	r3, [r3, #0]
 8004d26:	681a      	ldr	r2, [r3, #0]
 8004d28:	68fb      	ldr	r3, [r7, #12]
 8004d2a:	681b      	ldr	r3, [r3, #0]
 8004d2c:	f422 6200 	bic.w	r2, r2, #2048	; 0x800
 8004d30:	601a      	str	r2, [r3, #0]

    hi2c->State       = HAL_I2C_STATE_BUSY_TX;
 8004d32:	68fb      	ldr	r3, [r7, #12]
 8004d34:	2221      	movs	r2, #33	; 0x21
 8004d36:	f883 203d 	strb.w	r2, [r3, #61]	; 0x3d
    hi2c->Mode        = HAL_I2C_MODE_MASTER;
 8004d3a:	68fb      	ldr	r3, [r7, #12]
 8004d3c:	2210      	movs	r2, #16
 8004d3e:	f883 203e 	strb.w	r2, [r3, #62]	; 0x3e
    hi2c->ErrorCode   = HAL_I2C_ERROR_NONE;
 8004d42:	68fb      	ldr	r3, [r7, #12]
 8004d44:	2200      	movs	r2, #0
 8004d46:	641a      	str	r2, [r3, #64]	; 0x40

    /* Prepare transfer parameters */
    hi2c->pBuffPtr    = pData;
 8004d48:	68fb      	ldr	r3, [r7, #12]
 8004d4a:	687a      	ldr	r2, [r7, #4]
 8004d4c:	625a      	str	r2, [r3, #36]	; 0x24
    hi2c->XferCount   = Size;
 8004d4e:	68fb      	ldr	r3, [r7, #12]
 8004d50:	893a      	ldrh	r2, [r7, #8]
 8004d52:	855a      	strh	r2, [r3, #42]	; 0x2a
    hi2c->XferSize    = hi2c->XferCount;
 8004d54:	68fb      	ldr	r3, [r7, #12]
 8004d56:	8d5b      	ldrh	r3, [r3, #42]	; 0x2a
 8004d58:	b29a      	uxth	r2, r3
 8004d5a:	68fb      	ldr	r3, [r7, #12]
 8004d5c:	851a      	strh	r2, [r3, #40]	; 0x28
    hi2c->XferOptions = I2C_NO_OPTION_FRAME;
 8004d5e:	68fb      	ldr	r3, [r7, #12]
 8004d60:	4a50      	ldr	r2, [pc, #320]	; (8004ea4 <HAL_I2C_Master_Transmit+0x1f8>)
 8004d62:	62da      	str	r2, [r3, #44]	; 0x2c

    /* Send Slave Address */
    if (I2C_MasterRequestWrite(hi2c, DevAddress, Timeout, tickstart) != HAL_OK)
 8004d64:	8979      	ldrh	r1, [r7, #10]
 8004d66:	697b      	ldr	r3, [r7, #20]
 8004d68:	6a3a      	ldr	r2, [r7, #32]
 8004d6a:	68f8      	ldr	r0, [r7, #12]
 8004d6c:	f000 face 	bl	800530c <I2C_MasterRequestWrite>
 8004d70:	4603      	mov	r3, r0
 8004d72:	2b00      	cmp	r3, #0
 8004d74:	d001      	beq.n	8004d7a <HAL_I2C_Master_Transmit+0xce>
    {
      return HAL_ERROR;
 8004d76:	2301      	movs	r3, #1
 8004d78:	e08d      	b.n	8004e96 <HAL_I2C_Master_Transmit+0x1ea>
    }

    /* Clear ADDR flag */
    __HAL_I2C_CLEAR_ADDRFLAG(hi2c);
 8004d7a:	2300      	movs	r3, #0
 8004d7c:	613b      	str	r3, [r7, #16]
 8004d7e:	68fb      	ldr	r3, [r7, #12]
 8004d80:	681b      	ldr	r3, [r3, #0]
 8004d82:	695b      	ldr	r3, [r3, #20]
 8004d84:	613b      	str	r3, [r7, #16]
 8004d86:	68fb      	ldr	r3, [r7, #12]
 8004d88:	681b      	ldr	r3, [r3, #0]
 8004d8a:	699b      	ldr	r3, [r3, #24]
 8004d8c:	613b      	str	r3, [r7, #16]
 8004d8e:	693b      	ldr	r3, [r7, #16]

    while (hi2c->XferSize > 0U)
 8004d90:	e066      	b.n	8004e60 <HAL_I2C_Master_Transmit+0x1b4>
    {
      /* Wait until TXE flag is set */
      if (I2C_WaitOnTXEFlagUntilTimeout(hi2c, Timeout, tickstart) != HAL_OK)
 8004d92:	697a      	ldr	r2, [r7, #20]
 8004d94:	6a39      	ldr	r1, [r7, #32]
 8004d96:	68f8      	ldr	r0, [r7, #12]
 8004d98:	f000 fd22 	bl	80057e0 <I2C_WaitOnTXEFlagUntilTimeout>
 8004d9c:	4603      	mov	r3, r0
 8004d9e:	2b00      	cmp	r3, #0
 8004da0:	d00d      	beq.n	8004dbe <HAL_I2C_Master_Transmit+0x112>
      {
        if (hi2c->ErrorCode == HAL_I2C_ERROR_AF)
 8004da2:	68fb      	ldr	r3, [r7, #12]
 8004da4:	6c1b      	ldr	r3, [r3, #64]	; 0x40
 8004da6:	2b04      	cmp	r3, #4
 8004da8:	d107      	bne.n	8004dba <HAL_I2C_Master_Transmit+0x10e>
        {
          /* Generate Stop */
          SET_BIT(hi2c->Instance->CR1, I2C_CR1_STOP);
 8004daa:	68fb      	ldr	r3, [r7, #12]
 8004dac:	681b      	ldr	r3, [r3, #0]
 8004dae:	681a      	ldr	r2, [r3, #0]
 8004db0:	68fb      	ldr	r3, [r7, #12]
 8004db2:	681b      	ldr	r3, [r3, #0]
 8004db4:	f442 7200 	orr.w	r2, r2, #512	; 0x200
 8004db8:	601a      	str	r2, [r3, #0]
        }
        return HAL_ERROR;
 8004dba:	2301      	movs	r3, #1
 8004dbc:	e06b      	b.n	8004e96 <HAL_I2C_Master_Transmit+0x1ea>
      }

      /* Write data to DR */
      hi2c->Instance->DR = *hi2c->pBuffPtr;
 8004dbe:	68fb      	ldr	r3, [r7, #12]
 8004dc0:	6a5b      	ldr	r3, [r3, #36]	; 0x24
 8004dc2:	781a      	ldrb	r2, [r3, #0]
 8004dc4:	68fb      	ldr	r3, [r7, #12]
 8004dc6:	681b      	ldr	r3, [r3, #0]
 8004dc8:	611a      	str	r2, [r3, #16]

      /* Increment Buffer pointer */
      hi2c->pBuffPtr++;
 8004dca:	68fb      	ldr	r3, [r7, #12]
 8004dcc:	6a5b      	ldr	r3, [r3, #36]	; 0x24
 8004dce:	1c5a      	adds	r2, r3, #1
 8004dd0:	68fb      	ldr	r3, [r7, #12]
 8004dd2:	625a      	str	r2, [r3, #36]	; 0x24

      /* Update counter */
      hi2c->XferCount--;
 8004dd4:	68fb      	ldr	r3, [r7, #12]
 8004dd6:	8d5b      	ldrh	r3, [r3, #42]	; 0x2a
 8004dd8:	b29b      	uxth	r3, r3
 8004dda:	3b01      	subs	r3, #1
 8004ddc:	b29a      	uxth	r2, r3
 8004dde:	68fb      	ldr	r3, [r7, #12]
 8004de0:	855a      	strh	r2, [r3, #42]	; 0x2a
      hi2c->XferSize--;
 8004de2:	68fb      	ldr	r3, [r7, #12]
 8004de4:	8d1b      	ldrh	r3, [r3, #40]	; 0x28
 8004de6:	3b01      	subs	r3, #1
 8004de8:	b29a      	uxth	r2, r3
 8004dea:	68fb      	ldr	r3, [r7, #12]
 8004dec:	851a      	strh	r2, [r3, #40]	; 0x28

      if ((__HAL_I2C_GET_FLAG(hi2c, I2C_FLAG_BTF) == SET) && (hi2c->XferSize != 0U))
 8004dee:	68fb      	ldr	r3, [r7, #12]
 8004df0:	681b      	ldr	r3, [r3, #0]
 8004df2:	695b      	ldr	r3, [r3, #20]
 8004df4:	f003 0304 	and.w	r3, r3, #4
 8004df8:	2b04      	cmp	r3, #4
 8004dfa:	d11b      	bne.n	8004e34 <HAL_I2C_Master_Transmit+0x188>
 8004dfc:	68fb      	ldr	r3, [r7, #12]
 8004dfe:	8d1b      	ldrh	r3, [r3, #40]	; 0x28
 8004e00:	2b00      	cmp	r3, #0
 8004e02:	d017      	beq.n	8004e34 <HAL_I2C_Master_Transmit+0x188>
      {
        /* Write data to DR */
        hi2c->Instance->DR = *hi2c->pBuffPtr;
 8004e04:	68fb      	ldr	r3, [r7, #12]
 8004e06:	6a5b      	ldr	r3, [r3, #36]	; 0x24
 8004e08:	781a      	ldrb	r2, [r3, #0]
 8004e0a:	68fb      	ldr	r3, [r7, #12]
 8004e0c:	681b      	ldr	r3, [r3, #0]
 8004e0e:	611a      	str	r2, [r3, #16]

        /* Increment Buffer pointer */
        hi2c->pBuffPtr++;
 8004e10:	68fb      	ldr	r3, [r7, #12]
 8004e12:	6a5b      	ldr	r3, [r3, #36]	; 0x24
 8004e14:	1c5a      	adds	r2, r3, #1
 8004e16:	68fb      	ldr	r3, [r7, #12]
 8004e18:	625a      	str	r2, [r3, #36]	; 0x24

        /* Update counter */
        hi2c->XferCount--;
 8004e1a:	68fb      	ldr	r3, [r7, #12]
 8004e1c:	8d5b      	ldrh	r3, [r3, #42]	; 0x2a
 8004e1e:	b29b      	uxth	r3, r3
 8004e20:	3b01      	subs	r3, #1
 8004e22:	b29a      	uxth	r2, r3
 8004e24:	68fb      	ldr	r3, [r7, #12]
 8004e26:	855a      	strh	r2, [r3, #42]	; 0x2a
        hi2c->XferSize--;
 8004e28:	68fb      	ldr	r3, [r7, #12]
 8004e2a:	8d1b      	ldrh	r3, [r3, #40]	; 0x28
 8004e2c:	3b01      	subs	r3, #1
 8004e2e:	b29a      	uxth	r2, r3
 8004e30:	68fb      	ldr	r3, [r7, #12]
 8004e32:	851a      	strh	r2, [r3, #40]	; 0x28
      }

      /* Wait until BTF flag is set */
      if (I2C_WaitOnBTFFlagUntilTimeout(hi2c, Timeout, tickstart) != HAL_OK)
 8004e34:	697a      	ldr	r2, [r7, #20]
 8004e36:	6a39      	ldr	r1, [r7, #32]
 8004e38:	68f8      	ldr	r0, [r7, #12]
 8004e3a:	f000 fd19 	bl	8005870 <I2C_WaitOnBTFFlagUntilTimeout>
 8004e3e:	4603      	mov	r3, r0
 8004e40:	2b00      	cmp	r3, #0
 8004e42:	d00d      	beq.n	8004e60 <HAL_I2C_Master_Transmit+0x1b4>
      {
        if (hi2c->ErrorCode == HAL_I2C_ERROR_AF)
 8004e44:	68fb      	ldr	r3, [r7, #12]
 8004e46:	6c1b      	ldr	r3, [r3, #64]	; 0x40
 8004e48:	2b04      	cmp	r3, #4
 8004e4a:	d107      	bne.n	8004e5c <HAL_I2C_Master_Transmit+0x1b0>
        {
          /* Generate Stop */
          SET_BIT(hi2c->Instance->CR1, I2C_CR1_STOP);
 8004e4c:	68fb      	ldr	r3, [r7, #12]
 8004e4e:	681b      	ldr	r3, [r3, #0]
 8004e50:	681a      	ldr	r2, [r3, #0]
 8004e52:	68fb      	ldr	r3, [r7, #12]
 8004e54:	681b      	ldr	r3, [r3, #0]
 8004e56:	f442 7200 	orr.w	r2, r2, #512	; 0x200
 8004e5a:	601a      	str	r2, [r3, #0]
        }
        return HAL_ERROR;
 8004e5c:	2301      	movs	r3, #1
 8004e5e:	e01a      	b.n	8004e96 <HAL_I2C_Master_Transmit+0x1ea>
    while (hi2c->XferSize > 0U)
 8004e60:	68fb      	ldr	r3, [r7, #12]
 8004e62:	8d1b      	ldrh	r3, [r3, #40]	; 0x28
 8004e64:	2b00      	cmp	r3, #0
 8004e66:	d194      	bne.n	8004d92 <HAL_I2C_Master_Transmit+0xe6>
      }
    }

    /* Generate Stop */
    SET_BIT(hi2c->Instance->CR1, I2C_CR1_STOP);
 8004e68:	68fb      	ldr	r3, [r7, #12]
 8004e6a:	681b      	ldr	r3, [r3, #0]
 8004e6c:	681a      	ldr	r2, [r3, #0]
 8004e6e:	68fb      	ldr	r3, [r7, #12]
 8004e70:	681b      	ldr	r3, [r3, #0]
 8004e72:	f442 7200 	orr.w	r2, r2, #512	; 0x200
 8004e76:	601a      	str	r2, [r3, #0]

    hi2c->State = HAL_I2C_STATE_READY;
 8004e78:	68fb      	ldr	r3, [r7, #12]
 8004e7a:	2220      	movs	r2, #32
 8004e7c:	f883 203d 	strb.w	r2, [r3, #61]	; 0x3d
    hi2c->Mode = HAL_I2C_MODE_NONE;
 8004e80:	68fb      	ldr	r3, [r7, #12]
 8004e82:	2200      	movs	r2, #0
 8004e84:	f883 203e 	strb.w	r2, [r3, #62]	; 0x3e

    /* Process Unlocked */
    __HAL_UNLOCK(hi2c);
 8004e88:	68fb      	ldr	r3, [r7, #12]
 8004e8a:	2200      	movs	r2, #0
 8004e8c:	f883 203c 	strb.w	r2, [r3, #60]	; 0x3c

    return HAL_OK;
 8004e90:	2300      	movs	r3, #0
 8004e92:	e000      	b.n	8004e96 <HAL_I2C_Master_Transmit+0x1ea>
  }
  else
  {
    return HAL_BUSY;
 8004e94:	2302      	movs	r3, #2
  }
}
 8004e96:	4618      	mov	r0, r3
 8004e98:	3718      	adds	r7, #24
 8004e9a:	46bd      	mov	sp, r7
 8004e9c:	bd80      	pop	{r7, pc}
 8004e9e:	bf00      	nop
 8004ea0:	00100002 	.word	0x00100002
 8004ea4:	ffff0000 	.word	0xffff0000

08004ea8 <HAL_I2C_Master_Receive>:
  * @param  Size Amount of data to be sent
  * @param  Timeout Timeout duration
  * @retval HAL status
  */
HAL_StatusTypeDef HAL_I2C_Master_Receive(I2C_HandleTypeDef *hi2c, uint16_t DevAddress, uint8_t *pData, uint16_t Size, uint32_t Timeout)
{
 8004ea8:	b580      	push	{r7, lr}
 8004eaa:	b08c      	sub	sp, #48	; 0x30
 8004eac:	af02      	add	r7, sp, #8
 8004eae:	60f8      	str	r0, [r7, #12]
 8004eb0:	607a      	str	r2, [r7, #4]
 8004eb2:	461a      	mov	r2, r3
 8004eb4:	460b      	mov	r3, r1
 8004eb6:	817b      	strh	r3, [r7, #10]
 8004eb8:	4613      	mov	r3, r2
 8004eba:	813b      	strh	r3, [r7, #8]
  /* Init tickstart for timeout management*/
  uint32_t tickstart = HAL_GetTick();
 8004ebc:	f7fe f80e 	bl	8002edc <HAL_GetTick>
 8004ec0:	6278      	str	r0, [r7, #36]	; 0x24

  if (hi2c->State == HAL_I2C_STATE_READY)
 8004ec2:	68fb      	ldr	r3, [r7, #12]
 8004ec4:	f893 303d 	ldrb.w	r3, [r3, #61]	; 0x3d
 8004ec8:	b2db      	uxtb	r3, r3
 8004eca:	2b20      	cmp	r3, #32
 8004ecc:	f040 8217 	bne.w	80052fe <HAL_I2C_Master_Receive+0x456>
  {
    /* Wait until BUSY flag is reset */
    if (I2C_WaitOnFlagUntilTimeout(hi2c, I2C_FLAG_BUSY, SET, I2C_TIMEOUT_BUSY_FLAG, tickstart) != HAL_OK)
 8004ed0:	6a7b      	ldr	r3, [r7, #36]	; 0x24
 8004ed2:	9300      	str	r3, [sp, #0]
 8004ed4:	2319      	movs	r3, #25
 8004ed6:	2201      	movs	r2, #1
 8004ed8:	497c      	ldr	r1, [pc, #496]	; (80050cc <HAL_I2C_Master_Receive+0x224>)
 8004eda:	68f8      	ldr	r0, [r7, #12]
 8004edc:	f000 fb66 	bl	80055ac <I2C_WaitOnFlagUntilTimeout>
 8004ee0:	4603      	mov	r3, r0
 8004ee2:	2b00      	cmp	r3, #0
 8004ee4:	d001      	beq.n	8004eea <HAL_I2C_Master_Receive+0x42>
    {
      return HAL_BUSY;
 8004ee6:	2302      	movs	r3, #2
 8004ee8:	e20a      	b.n	8005300 <HAL_I2C_Master_Receive+0x458>
    }

    /* Process Locked */
    __HAL_LOCK(hi2c);
 8004eea:	68fb      	ldr	r3, [r7, #12]
 8004eec:	f893 303c 	ldrb.w	r3, [r3, #60]	; 0x3c
 8004ef0:	2b01      	cmp	r3, #1
 8004ef2:	d101      	bne.n	8004ef8 <HAL_I2C_Master_Receive+0x50>
 8004ef4:	2302      	movs	r3, #2
 8004ef6:	e203      	b.n	8005300 <HAL_I2C_Master_Receive+0x458>
 8004ef8:	68fb      	ldr	r3, [r7, #12]
 8004efa:	2201      	movs	r2, #1
 8004efc:	f883 203c 	strb.w	r2, [r3, #60]	; 0x3c

    /* Check if the I2C is already enabled */
    if ((hi2c->Instance->CR1 & I2C_CR1_PE) != I2C_CR1_PE)
 8004f00:	68fb      	ldr	r3, [r7, #12]
 8004f02:	681b      	ldr	r3, [r3, #0]
 8004f04:	681b      	ldr	r3, [r3, #0]
 8004f06:	f003 0301 	and.w	r3, r3, #1
 8004f0a:	2b01      	cmp	r3, #1
 8004f0c:	d007      	beq.n	8004f1e <HAL_I2C_Master_Receive+0x76>
    {
      /* Enable I2C peripheral */
      __HAL_I2C_ENABLE(hi2c);
 8004f0e:	68fb      	ldr	r3, [r7, #12]
 8004f10:	681b      	ldr	r3, [r3, #0]
 8004f12:	681a      	ldr	r2, [r3, #0]
 8004f14:	68fb      	ldr	r3, [r7, #12]
 8004f16:	681b      	ldr	r3, [r3, #0]
 8004f18:	f042 0201 	orr.w	r2, r2, #1
 8004f1c:	601a      	str	r2, [r3, #0]
    }

    /* Disable Pos */
    CLEAR_BIT(hi2c->Instance->CR1, I2C_CR1_POS);
 8004f1e:	68fb      	ldr	r3, [r7, #12]
 8004f20:	681b      	ldr	r3, [r3, #0]
 8004f22:	681a      	ldr	r2, [r3, #0]
 8004f24:	68fb      	ldr	r3, [r7, #12]
 8004f26:	681b      	ldr	r3, [r3, #0]
 8004f28:	f422 6200 	bic.w	r2, r2, #2048	; 0x800
 8004f2c:	601a      	str	r2, [r3, #0]

    hi2c->State       = HAL_I2C_STATE_BUSY_RX;
 8004f2e:	68fb      	ldr	r3, [r7, #12]
 8004f30:	2222      	movs	r2, #34	; 0x22
 8004f32:	f883 203d 	strb.w	r2, [r3, #61]	; 0x3d
    hi2c->Mode        = HAL_I2C_MODE_MASTER;
 8004f36:	68fb      	ldr	r3, [r7, #12]
 8004f38:	2210      	movs	r2, #16
 8004f3a:	f883 203e 	strb.w	r2, [r3, #62]	; 0x3e
    hi2c->ErrorCode   = HAL_I2C_ERROR_NONE;
 8004f3e:	68fb      	ldr	r3, [r7, #12]
 8004f40:	2200      	movs	r2, #0
 8004f42:	641a      	str	r2, [r3, #64]	; 0x40

    /* Prepare transfer parameters */
    hi2c->pBuffPtr    = pData;
 8004f44:	68fb      	ldr	r3, [r7, #12]
 8004f46:	687a      	ldr	r2, [r7, #4]
 8004f48:	625a      	str	r2, [r3, #36]	; 0x24
    hi2c->XferCount   = Size;
 8004f4a:	68fb      	ldr	r3, [r7, #12]
 8004f4c:	893a      	ldrh	r2, [r7, #8]
 8004f4e:	855a      	strh	r2, [r3, #42]	; 0x2a
    hi2c->XferSize    = hi2c->XferCount;
 8004f50:	68fb      	ldr	r3, [r7, #12]
 8004f52:	8d5b      	ldrh	r3, [r3, #42]	; 0x2a
 8004f54:	b29a      	uxth	r2, r3
 8004f56:	68fb      	ldr	r3, [r7, #12]
 8004f58:	851a      	strh	r2, [r3, #40]	; 0x28
    hi2c->XferOptions = I2C_NO_OPTION_FRAME;
 8004f5a:	68fb      	ldr	r3, [r7, #12]
 8004f5c:	4a5c      	ldr	r2, [pc, #368]	; (80050d0 <HAL_I2C_Master_Receive+0x228>)
 8004f5e:	62da      	str	r2, [r3, #44]	; 0x2c

    /* Send Slave Address */
    if (I2C_MasterRequestRead(hi2c, DevAddress, Timeout, tickstart) != HAL_OK)
 8004f60:	8979      	ldrh	r1, [r7, #10]
 8004f62:	6a7b      	ldr	r3, [r7, #36]	; 0x24
 8004f64:	6b3a      	ldr	r2, [r7, #48]	; 0x30
 8004f66:	68f8      	ldr	r0, [r7, #12]
 8004f68:	f000 fa52 	bl	8005410 <I2C_MasterRequestRead>
 8004f6c:	4603      	mov	r3, r0
 8004f6e:	2b00      	cmp	r3, #0
 8004f70:	d001      	beq.n	8004f76 <HAL_I2C_Master_Receive+0xce>
    {
      return HAL_ERROR;
 8004f72:	2301      	movs	r3, #1
 8004f74:	e1c4      	b.n	8005300 <HAL_I2C_Master_Receive+0x458>
    }

    if (hi2c->XferSize == 0U)
 8004f76:	68fb      	ldr	r3, [r7, #12]
 8004f78:	8d1b      	ldrh	r3, [r3, #40]	; 0x28
 8004f7a:	2b00      	cmp	r3, #0
 8004f7c:	d113      	bne.n	8004fa6 <HAL_I2C_Master_Receive+0xfe>
    {
      /* Clear ADDR flag */
      __HAL_I2C_CLEAR_ADDRFLAG(hi2c);
 8004f7e:	2300      	movs	r3, #0
 8004f80:	623b      	str	r3, [r7, #32]
 8004f82:	68fb      	ldr	r3, [r7, #12]
 8004f84:	681b      	ldr	r3, [r3, #0]
 8004f86:	695b      	ldr	r3, [r3, #20]
 8004f88:	623b      	str	r3, [r7, #32]
 8004f8a:	68fb      	ldr	r3, [r7, #12]
 8004f8c:	681b      	ldr	r3, [r3, #0]
 8004f8e:	699b      	ldr	r3, [r3, #24]
 8004f90:	623b      	str	r3, [r7, #32]
 8004f92:	6a3b      	ldr	r3, [r7, #32]

      /* Generate Stop */
      SET_BIT(hi2c->Instance->CR1, I2C_CR1_STOP);
 8004f94:	68fb      	ldr	r3, [r7, #12]
 8004f96:	681b      	ldr	r3, [r3, #0]
 8004f98:	681a      	ldr	r2, [r3, #0]
 8004f9a:	68fb      	ldr	r3, [r7, #12]
 8004f9c:	681b      	ldr	r3, [r3, #0]
 8004f9e:	f442 7200 	orr.w	r2, r2, #512	; 0x200
 8004fa2:	601a      	str	r2, [r3, #0]
 8004fa4:	e198      	b.n	80052d8 <HAL_I2C_Master_Receive+0x430>
    }
    else if (hi2c->XferSize == 1U)
 8004fa6:	68fb      	ldr	r3, [r7, #12]
 8004fa8:	8d1b      	ldrh	r3, [r3, #40]	; 0x28
 8004faa:	2b01      	cmp	r3, #1
 8004fac:	d11b      	bne.n	8004fe6 <HAL_I2C_Master_Receive+0x13e>
    {
      /* Disable Acknowledge */
      CLEAR_BIT(hi2c->Instance->CR1, I2C_CR1_ACK);
 8004fae:	68fb      	ldr	r3, [r7, #12]
 8004fb0:	681b      	ldr	r3, [r3, #0]
 8004fb2:	681a      	ldr	r2, [r3, #0]
 8004fb4:	68fb      	ldr	r3, [r7, #12]
 8004fb6:	681b      	ldr	r3, [r3, #0]
 8004fb8:	f422 6280 	bic.w	r2, r2, #1024	; 0x400
 8004fbc:	601a      	str	r2, [r3, #0]

      /* Clear ADDR flag */
      __HAL_I2C_CLEAR_ADDRFLAG(hi2c);
 8004fbe:	2300      	movs	r3, #0
 8004fc0:	61fb      	str	r3, [r7, #28]
 8004fc2:	68fb      	ldr	r3, [r7, #12]
 8004fc4:	681b      	ldr	r3, [r3, #0]
 8004fc6:	695b      	ldr	r3, [r3, #20]
 8004fc8:	61fb      	str	r3, [r7, #28]
 8004fca:	68fb      	ldr	r3, [r7, #12]
 8004fcc:	681b      	ldr	r3, [r3, #0]
 8004fce:	699b      	ldr	r3, [r3, #24]
 8004fd0:	61fb      	str	r3, [r7, #28]
 8004fd2:	69fb      	ldr	r3, [r7, #28]

      /* Generate Stop */
      SET_BIT(hi2c->Instance->CR1, I2C_CR1_STOP);
 8004fd4:	68fb      	ldr	r3, [r7, #12]
 8004fd6:	681b      	ldr	r3, [r3, #0]
 8004fd8:	681a      	ldr	r2, [r3, #0]
 8004fda:	68fb      	ldr	r3, [r7, #12]
 8004fdc:	681b      	ldr	r3, [r3, #0]
 8004fde:	f442 7200 	orr.w	r2, r2, #512	; 0x200
 8004fe2:	601a      	str	r2, [r3, #0]
 8004fe4:	e178      	b.n	80052d8 <HAL_I2C_Master_Receive+0x430>
    }
    else if (hi2c->XferSize == 2U)
 8004fe6:	68fb      	ldr	r3, [r7, #12]
 8004fe8:	8d1b      	ldrh	r3, [r3, #40]	; 0x28
 8004fea:	2b02      	cmp	r3, #2
 8004fec:	d11b      	bne.n	8005026 <HAL_I2C_Master_Receive+0x17e>
    {
      /* Disable Acknowledge */
      CLEAR_BIT(hi2c->Instance->CR1, I2C_CR1_ACK);
 8004fee:	68fb      	ldr	r3, [r7, #12]
 8004ff0:	681b      	ldr	r3, [r3, #0]
 8004ff2:	681a      	ldr	r2, [r3, #0]
 8004ff4:	68fb      	ldr	r3, [r7, #12]
 8004ff6:	681b      	ldr	r3, [r3, #0]
 8004ff8:	f422 6280 	bic.w	r2, r2, #1024	; 0x400
 8004ffc:	601a      	str	r2, [r3, #0]

      /* Enable Pos */
      SET_BIT(hi2c->Instance->CR1, I2C_CR1_POS);
 8004ffe:	68fb      	ldr	r3, [r7, #12]
 8005000:	681b      	ldr	r3, [r3, #0]
 8005002:	681a      	ldr	r2, [r3, #0]
 8005004:	68fb      	ldr	r3, [r7, #12]
 8005006:	681b      	ldr	r3, [r3, #0]
 8005008:	f442 6200 	orr.w	r2, r2, #2048	; 0x800
 800500c:	601a      	str	r2, [r3, #0]

      /* Clear ADDR flag */
      __HAL_I2C_CLEAR_ADDRFLAG(hi2c);
 800500e:	2300      	movs	r3, #0
 8005010:	61bb      	str	r3, [r7, #24]
 8005012:	68fb      	ldr	r3, [r7, #12]
 8005014:	681b      	ldr	r3, [r3, #0]
 8005016:	695b      	ldr	r3, [r3, #20]
 8005018:	61bb      	str	r3, [r7, #24]
 800501a:	68fb      	ldr	r3, [r7, #12]
 800501c:	681b      	ldr	r3, [r3, #0]
 800501e:	699b      	ldr	r3, [r3, #24]
 8005020:	61bb      	str	r3, [r7, #24]
 8005022:	69bb      	ldr	r3, [r7, #24]
 8005024:	e158      	b.n	80052d8 <HAL_I2C_Master_Receive+0x430>
    }
    else
    {
      /* Enable Acknowledge */
      SET_BIT(hi2c->Instance->CR1, I2C_CR1_ACK);
 8005026:	68fb      	ldr	r3, [r7, #12]
 8005028:	681b      	ldr	r3, [r3, #0]
 800502a:	681a      	ldr	r2, [r3, #0]
 800502c:	68fb      	ldr	r3, [r7, #12]
 800502e:	681b      	ldr	r3, [r3, #0]
 8005030:	f442 6280 	orr.w	r2, r2, #1024	; 0x400
 8005034:	601a      	str	r2, [r3, #0]

      /* Clear ADDR flag */
      __HAL_I2C_CLEAR_ADDRFLAG(hi2c);
 8005036:	2300      	movs	r3, #0
 8005038:	617b      	str	r3, [r7, #20]
 800503a:	68fb      	ldr	r3, [r7, #12]
 800503c:	681b      	ldr	r3, [r3, #0]
 800503e:	695b      	ldr	r3, [r3, #20]
 8005040:	617b      	str	r3, [r7, #20]
 8005042:	68fb      	ldr	r3, [r7, #12]
 8005044:	681b      	ldr	r3, [r3, #0]
 8005046:	699b      	ldr	r3, [r3, #24]
 8005048:	617b      	str	r3, [r7, #20]
 800504a:	697b      	ldr	r3, [r7, #20]
    }

    while (hi2c->XferSize > 0U)
 800504c:	e144      	b.n	80052d8 <HAL_I2C_Master_Receive+0x430>
    {
      if (hi2c->XferSize <= 3U)
 800504e:	68fb      	ldr	r3, [r7, #12]
 8005050:	8d1b      	ldrh	r3, [r3, #40]	; 0x28
 8005052:	2b03      	cmp	r3, #3
 8005054:	f200 80f1 	bhi.w	800523a <HAL_I2C_Master_Receive+0x392>
      {
        /* One byte */
        if (hi2c->XferSize == 1U)
 8005058:	68fb      	ldr	r3, [r7, #12]
 800505a:	8d1b      	ldrh	r3, [r3, #40]	; 0x28
 800505c:	2b01      	cmp	r3, #1
 800505e:	d123      	bne.n	80050a8 <HAL_I2C_Master_Receive+0x200>
        {
          /* Wait until RXNE flag is set */
          if (I2C_WaitOnRXNEFlagUntilTimeout(hi2c, Timeout, tickstart) != HAL_OK)
 8005060:	6a7a      	ldr	r2, [r7, #36]	; 0x24
 8005062:	6b39      	ldr	r1, [r7, #48]	; 0x30
 8005064:	68f8      	ldr	r0, [r7, #12]
 8005066:	f000 fc4b 	bl	8005900 <I2C_WaitOnRXNEFlagUntilTimeout>
 800506a:	4603      	mov	r3, r0
 800506c:	2b00      	cmp	r3, #0
 800506e:	d001      	beq.n	8005074 <HAL_I2C_Master_Receive+0x1cc>
          {
            return HAL_ERROR;
 8005070:	2301      	movs	r3, #1
 8005072:	e145      	b.n	8005300 <HAL_I2C_Master_Receive+0x458>
          }

          /* Read data from DR */
          *hi2c->pBuffPtr = (uint8_t)hi2c->Instance->DR;
 8005074:	68fb      	ldr	r3, [r7, #12]
 8005076:	681b      	ldr	r3, [r3, #0]
 8005078:	691a      	ldr	r2, [r3, #16]
 800507a:	68fb      	ldr	r3, [r7, #12]
 800507c:	6a5b      	ldr	r3, [r3, #36]	; 0x24
 800507e:	b2d2      	uxtb	r2, r2
 8005080:	701a      	strb	r2, [r3, #0]

          /* Increment Buffer pointer */
          hi2c->pBuffPtr++;
 8005082:	68fb      	ldr	r3, [r7, #12]
 8005084:	6a5b      	ldr	r3, [r3, #36]	; 0x24
 8005086:	1c5a      	adds	r2, r3, #1
 8005088:	68fb      	ldr	r3, [r7, #12]
 800508a:	625a      	str	r2, [r3, #36]	; 0x24

          /* Update counter */
          hi2c->XferSize--;
 800508c:	68fb      	ldr	r3, [r7, #12]
 800508e:	8d1b      	ldrh	r3, [r3, #40]	; 0x28
 8005090:	3b01      	subs	r3, #1
 8005092:	b29a      	uxth	r2, r3
 8005094:	68fb      	ldr	r3, [r7, #12]
 8005096:	851a      	strh	r2, [r3, #40]	; 0x28
          hi2c->XferCount--;
 8005098:	68fb      	ldr	r3, [r7, #12]
 800509a:	8d5b      	ldrh	r3, [r3, #42]	; 0x2a
 800509c:	b29b      	uxth	r3, r3
 800509e:	3b01      	subs	r3, #1
 80050a0:	b29a      	uxth	r2, r3
 80050a2:	68fb      	ldr	r3, [r7, #12]
 80050a4:	855a      	strh	r2, [r3, #42]	; 0x2a
 80050a6:	e117      	b.n	80052d8 <HAL_I2C_Master_Receive+0x430>
        }
        /* Two bytes */
        else if (hi2c->XferSize == 2U)
 80050a8:	68fb      	ldr	r3, [r7, #12]
 80050aa:	8d1b      	ldrh	r3, [r3, #40]	; 0x28
 80050ac:	2b02      	cmp	r3, #2
 80050ae:	d14e      	bne.n	800514e <HAL_I2C_Master_Receive+0x2a6>
        {
          /* Wait until BTF flag is set */
          if (I2C_WaitOnFlagUntilTimeout(hi2c, I2C_FLAG_BTF, RESET, Timeout, tickstart) != HAL_OK)
 80050b0:	6a7b      	ldr	r3, [r7, #36]	; 0x24
 80050b2:	9300      	str	r3, [sp, #0]
 80050b4:	6b3b      	ldr	r3, [r7, #48]	; 0x30
 80050b6:	2200      	movs	r2, #0
 80050b8:	4906      	ldr	r1, [pc, #24]	; (80050d4 <HAL_I2C_Master_Receive+0x22c>)
 80050ba:	68f8      	ldr	r0, [r7, #12]
 80050bc:	f000 fa76 	bl	80055ac <I2C_WaitOnFlagUntilTimeout>
 80050c0:	4603      	mov	r3, r0
 80050c2:	2b00      	cmp	r3, #0
 80050c4:	d008      	beq.n	80050d8 <HAL_I2C_Master_Receive+0x230>
          {
            return HAL_ERROR;
 80050c6:	2301      	movs	r3, #1
 80050c8:	e11a      	b.n	8005300 <HAL_I2C_Master_Receive+0x458>
 80050ca:	bf00      	nop
 80050cc:	00100002 	.word	0x00100002
 80050d0:	ffff0000 	.word	0xffff0000
 80050d4:	00010004 	.word	0x00010004
          }

          /* Generate Stop */
          SET_BIT(hi2c->Instance->CR1, I2C_CR1_STOP);
 80050d8:	68fb      	ldr	r3, [r7, #12]
 80050da:	681b      	ldr	r3, [r3, #0]
 80050dc:	681a      	ldr	r2, [r3, #0]
 80050de:	68fb      	ldr	r3, [r7, #12]
 80050e0:	681b      	ldr	r3, [r3, #0]
 80050e2:	f442 7200 	orr.w	r2, r2, #512	; 0x200
 80050e6:	601a      	str	r2, [r3, #0]

          /* Read data from DR */
          *hi2c->pBuffPtr = (uint8_t)hi2c->Instance->DR;
 80050e8:	68fb      	ldr	r3, [r7, #12]
 80050ea:	681b      	ldr	r3, [r3, #0]
 80050ec:	691a      	ldr	r2, [r3, #16]
 80050ee:	68fb      	ldr	r3, [r7, #12]
 80050f0:	6a5b      	ldr	r3, [r3, #36]	; 0x24
 80050f2:	b2d2      	uxtb	r2, r2
 80050f4:	701a      	strb	r2, [r3, #0]

          /* Increment Buffer pointer */
          hi2c->pBuffPtr++;
 80050f6:	68fb      	ldr	r3, [r7, #12]
 80050f8:	6a5b      	ldr	r3, [r3, #36]	; 0x24
 80050fa:	1c5a      	adds	r2, r3, #1
 80050fc:	68fb      	ldr	r3, [r7, #12]
 80050fe:	625a      	str	r2, [r3, #36]	; 0x24

          /* Update counter */
          hi2c->XferSize--;
 8005100:	68fb      	ldr	r3, [r7, #12]
 8005102:	8d1b      	ldrh	r3, [r3, #40]	; 0x28
 8005104:	3b01      	subs	r3, #1
 8005106:	b29a      	uxth	r2, r3
 8005108:	68fb      	ldr	r3, [r7, #12]
 800510a:	851a      	strh	r2, [r3, #40]	; 0x28
          hi2c->XferCount--;
 800510c:	68fb      	ldr	r3, [r7, #12]
 800510e:	8d5b      	ldrh	r3, [r3, #42]	; 0x2a
 8005110:	b29b      	uxth	r3, r3
 8005112:	3b01      	subs	r3, #1
 8005114:	b29a      	uxth	r2, r3
 8005116:	68fb      	ldr	r3, [r7, #12]
 8005118:	855a      	strh	r2, [r3, #42]	; 0x2a

          /* Read data from DR */
          *hi2c->pBuffPtr = (uint8_t)hi2c->Instance->DR;
 800511a:	68fb      	ldr	r3, [r7, #12]
 800511c:	681b      	ldr	r3, [r3, #0]
 800511e:	691a      	ldr	r2, [r3, #16]
 8005120:	68fb      	ldr	r3, [r7, #12]
 8005122:	6a5b      	ldr	r3, [r3, #36]	; 0x24
 8005124:	b2d2      	uxtb	r2, r2
 8005126:	701a      	strb	r2, [r3, #0]

          /* Increment Buffer pointer */
          hi2c->pBuffPtr++;
 8005128:	68fb      	ldr	r3, [r7, #12]
 800512a:	6a5b      	ldr	r3, [r3, #36]	; 0x24
 800512c:	1c5a      	adds	r2, r3, #1
 800512e:	68fb      	ldr	r3, [r7, #12]
 8005130:	625a      	str	r2, [r3, #36]	; 0x24

          /* Update counter */
          hi2c->XferSize--;
 8005132:	68fb      	ldr	r3, [r7, #12]
 8005134:	8d1b      	ldrh	r3, [r3, #40]	; 0x28
 8005136:	3b01      	subs	r3, #1
 8005138:	b29a      	uxth	r2, r3
 800513a:	68fb      	ldr	r3, [r7, #12]
 800513c:	851a      	strh	r2, [r3, #40]	; 0x28
          hi2c->XferCount--;
 800513e:	68fb      	ldr	r3, [r7, #12]
 8005140:	8d5b      	ldrh	r3, [r3, #42]	; 0x2a
 8005142:	b29b      	uxth	r3, r3
 8005144:	3b01      	subs	r3, #1
 8005146:	b29a      	uxth	r2, r3
 8005148:	68fb      	ldr	r3, [r7, #12]
 800514a:	855a      	strh	r2, [r3, #42]	; 0x2a
 800514c:	e0c4      	b.n	80052d8 <HAL_I2C_Master_Receive+0x430>
        }
        /* 3 Last bytes */
        else
        {
          /* Wait until BTF flag is set */
          if (I2C_WaitOnFlagUntilTimeout(hi2c, I2C_FLAG_BTF, RESET, Timeout, tickstart) != HAL_OK)
 800514e:	6a7b      	ldr	r3, [r7, #36]	; 0x24
 8005150:	9300      	str	r3, [sp, #0]
 8005152:	6b3b      	ldr	r3, [r7, #48]	; 0x30
 8005154:	2200      	movs	r2, #0
 8005156:	496c      	ldr	r1, [pc, #432]	; (8005308 <HAL_I2C_Master_Receive+0x460>)
 8005158:	68f8      	ldr	r0, [r7, #12]
 800515a:	f000 fa27 	bl	80055ac <I2C_WaitOnFlagUntilTimeout>
 800515e:	4603      	mov	r3, r0
 8005160:	2b00      	cmp	r3, #0
 8005162:	d001      	beq.n	8005168 <HAL_I2C_Master_Receive+0x2c0>
          {
            return HAL_ERROR;
 8005164:	2301      	movs	r3, #1
 8005166:	e0cb      	b.n	8005300 <HAL_I2C_Master_Receive+0x458>
          }

          /* Disable Acknowledge */
          CLEAR_BIT(hi2c->Instance->CR1, I2C_CR1_ACK);
 8005168:	68fb      	ldr	r3, [r7, #12]
 800516a:	681b      	ldr	r3, [r3, #0]
 800516c:	681a      	ldr	r2, [r3, #0]
 800516e:	68fb      	ldr	r3, [r7, #12]
 8005170:	681b      	ldr	r3, [r3, #0]
 8005172:	f422 6280 	bic.w	r2, r2, #1024	; 0x400
 8005176:	601a      	str	r2, [r3, #0]

          /* Read data from DR */
          *hi2c->pBuffPtr = (uint8_t)hi2c->Instance->DR;
 8005178:	68fb      	ldr	r3, [r7, #12]
 800517a:	681b      	ldr	r3, [r3, #0]
 800517c:	691a      	ldr	r2, [r3, #16]
 800517e:	68fb      	ldr	r3, [r7, #12]
 8005180:	6a5b      	ldr	r3, [r3, #36]	; 0x24
 8005182:	b2d2      	uxtb	r2, r2
 8005184:	701a      	strb	r2, [r3, #0]

          /* Increment Buffer pointer */
          hi2c->pBuffPtr++;
 8005186:	68fb      	ldr	r3, [r7, #12]
 8005188:	6a5b      	ldr	r3, [r3, #36]	; 0x24
 800518a:	1c5a      	adds	r2, r3, #1
 800518c:	68fb      	ldr	r3, [r7, #12]
 800518e:	625a      	str	r2, [r3, #36]	; 0x24

          /* Update counter */
          hi2c->XferSize--;
 8005190:	68fb      	ldr	r3, [r7, #12]
 8005192:	8d1b      	ldrh	r3, [r3, #40]	; 0x28
 8005194:	3b01      	subs	r3, #1
 8005196:	b29a      	uxth	r2, r3
 8005198:	68fb      	ldr	r3, [r7, #12]
 800519a:	851a      	strh	r2, [r3, #40]	; 0x28
          hi2c->XferCount--;
 800519c:	68fb      	ldr	r3, [r7, #12]
 800519e:	8d5b      	ldrh	r3, [r3, #42]	; 0x2a
 80051a0:	b29b      	uxth	r3, r3
 80051a2:	3b01      	subs	r3, #1
 80051a4:	b29a      	uxth	r2, r3
 80051a6:	68fb      	ldr	r3, [r7, #12]
 80051a8:	855a      	strh	r2, [r3, #42]	; 0x2a

          /* Wait until BTF flag is set */
          if (I2C_WaitOnFlagUntilTimeout(hi2c, I2C_FLAG_BTF, RESET, Timeout, tickstart) != HAL_OK)
 80051aa:	6a7b      	ldr	r3, [r7, #36]	; 0x24
 80051ac:	9300      	str	r3, [sp, #0]
 80051ae:	6b3b      	ldr	r3, [r7, #48]	; 0x30
 80051b0:	2200      	movs	r2, #0
 80051b2:	4955      	ldr	r1, [pc, #340]	; (8005308 <HAL_I2C_Master_Receive+0x460>)
 80051b4:	68f8      	ldr	r0, [r7, #12]
 80051b6:	f000 f9f9 	bl	80055ac <I2C_WaitOnFlagUntilTimeout>
 80051ba:	4603      	mov	r3, r0
 80051bc:	2b00      	cmp	r3, #0
 80051be:	d001      	beq.n	80051c4 <HAL_I2C_Master_Receive+0x31c>
          {
            return HAL_ERROR;
 80051c0:	2301      	movs	r3, #1
 80051c2:	e09d      	b.n	8005300 <HAL_I2C_Master_Receive+0x458>
          }

          /* Generate Stop */
          SET_BIT(hi2c->Instance->CR1, I2C_CR1_STOP);
 80051c4:	68fb      	ldr	r3, [r7, #12]
 80051c6:	681b      	ldr	r3, [r3, #0]
 80051c8:	681a      	ldr	r2, [r3, #0]
 80051ca:	68fb      	ldr	r3, [r7, #12]
 80051cc:	681b      	ldr	r3, [r3, #0]
 80051ce:	f442 7200 	orr.w	r2, r2, #512	; 0x200
 80051d2:	601a      	str	r2, [r3, #0]

          /* Read data from DR */
          *hi2c->pBuffPtr = (uint8_t)hi2c->Instance->DR;
 80051d4:	68fb      	ldr	r3, [r7, #12]
 80051d6:	681b      	ldr	r3, [r3, #0]
 80051d8:	691a      	ldr	r2, [r3, #16]
 80051da:	68fb      	ldr	r3, [r7, #12]
 80051dc:	6a5b      	ldr	r3, [r3, #36]	; 0x24
 80051de:	b2d2      	uxtb	r2, r2
 80051e0:	701a      	strb	r2, [r3, #0]

          /* Increment Buffer pointer */
          hi2c->pBuffPtr++;
 80051e2:	68fb      	ldr	r3, [r7, #12]
 80051e4:	6a5b      	ldr	r3, [r3, #36]	; 0x24
 80051e6:	1c5a      	adds	r2, r3, #1
 80051e8:	68fb      	ldr	r3, [r7, #12]
 80051ea:	625a      	str	r2, [r3, #36]	; 0x24

          /* Update counter */
          hi2c->XferSize--;
 80051ec:	68fb      	ldr	r3, [r7, #12]
 80051ee:	8d1b      	ldrh	r3, [r3, #40]	; 0x28
 80051f0:	3b01      	subs	r3, #1
 80051f2:	b29a      	uxth	r2, r3
 80051f4:	68fb      	ldr	r3, [r7, #12]
 80051f6:	851a      	strh	r2, [r3, #40]	; 0x28
          hi2c->XferCount--;
 80051f8:	68fb      	ldr	r3, [r7, #12]
 80051fa:	8d5b      	ldrh	r3, [r3, #42]	; 0x2a
 80051fc:	b29b      	uxth	r3, r3
 80051fe:	3b01      	subs	r3, #1
 8005200:	b29a      	uxth	r2, r3
 8005202:	68fb      	ldr	r3, [r7, #12]
 8005204:	855a      	strh	r2, [r3, #42]	; 0x2a

          /* Read data from DR */
          *hi2c->pBuffPtr = (uint8_t)hi2c->Instance->DR;
 8005206:	68fb      	ldr	r3, [r7, #12]
 8005208:	681b      	ldr	r3, [r3, #0]
 800520a:	691a      	ldr	r2, [r3, #16]
 800520c:	68fb      	ldr	r3, [r7, #12]
 800520e:	6a5b      	ldr	r3, [r3, #36]	; 0x24
 8005210:	b2d2      	uxtb	r2, r2
 8005212:	701a      	strb	r2, [r3, #0]

          /* Increment Buffer pointer */
          hi2c->pBuffPtr++;
 8005214:	68fb      	ldr	r3, [r7, #12]
 8005216:	6a5b      	ldr	r3, [r3, #36]	; 0x24
 8005218:	1c5a      	adds	r2, r3, #1
 800521a:	68fb      	ldr	r3, [r7, #12]
 800521c:	625a      	str	r2, [r3, #36]	; 0x24

          /* Update counter */
          hi2c->XferSize--;
 800521e:	68fb      	ldr	r3, [r7, #12]
 8005220:	8d1b      	ldrh	r3, [r3, #40]	; 0x28
 8005222:	3b01      	subs	r3, #1
 8005224:	b29a      	uxth	r2, r3
 8005226:	68fb      	ldr	r3, [r7, #12]
 8005228:	851a      	strh	r2, [r3, #40]	; 0x28
          hi2c->XferCount--;
 800522a:	68fb      	ldr	r3, [r7, #12]
 800522c:	8d5b      	ldrh	r3, [r3, #42]	; 0x2a
 800522e:	b29b      	uxth	r3, r3
 8005230:	3b01      	subs	r3, #1
 8005232:	b29a      	uxth	r2, r3
 8005234:	68fb      	ldr	r3, [r7, #12]
 8005236:	855a      	strh	r2, [r3, #42]	; 0x2a
 8005238:	e04e      	b.n	80052d8 <HAL_I2C_Master_Receive+0x430>
        }
      }
      else
      {
        /* Wait until RXNE flag is set */
        if (I2C_WaitOnRXNEFlagUntilTimeout(hi2c, Timeout, tickstart) != HAL_OK)
 800523a:	6a7a      	ldr	r2, [r7, #36]	; 0x24
 800523c:	6b39      	ldr	r1, [r7, #48]	; 0x30
 800523e:	68f8      	ldr	r0, [r7, #12]
 8005240:	f000 fb5e 	bl	8005900 <I2C_WaitOnRXNEFlagUntilTimeout>
 8005244:	4603      	mov	r3, r0
 8005246:	2b00      	cmp	r3, #0
 8005248:	d001      	beq.n	800524e <HAL_I2C_Master_Receive+0x3a6>
        {
          return HAL_ERROR;
 800524a:	2301      	movs	r3, #1
 800524c:	e058      	b.n	8005300 <HAL_I2C_Master_Receive+0x458>
        }

        /* Read data from DR */
        *hi2c->pBuffPtr = (uint8_t)hi2c->Instance->DR;
 800524e:	68fb      	ldr	r3, [r7, #12]
 8005250:	681b      	ldr	r3, [r3, #0]
 8005252:	691a      	ldr	r2, [r3, #16]
 8005254:	68fb      	ldr	r3, [r7, #12]
 8005256:	6a5b      	ldr	r3, [r3, #36]	; 0x24
 8005258:	b2d2      	uxtb	r2, r2
 800525a:	701a      	strb	r2, [r3, #0]

        /* Increment Buffer pointer */
        hi2c->pBuffPtr++;
 800525c:	68fb      	ldr	r3, [r7, #12]
 800525e:	6a5b      	ldr	r3, [r3, #36]	; 0x24
 8005260:	1c5a      	adds	r2, r3, #1
 8005262:	68fb      	ldr	r3, [r7, #12]
 8005264:	625a      	str	r2, [r3, #36]	; 0x24

        /* Update counter */
        hi2c->XferSize--;
 8005266:	68fb      	ldr	r3, [r7, #12]
 8005268:	8d1b      	ldrh	r3, [r3, #40]	; 0x28
 800526a:	3b01      	subs	r3, #1
 800526c:	b29a      	uxth	r2, r3
 800526e:	68fb      	ldr	r3, [r7, #12]
 8005270:	851a      	strh	r2, [r3, #40]	; 0x28
        hi2c->XferCount--;
 8005272:	68fb      	ldr	r3, [r7, #12]
 8005274:	8d5b      	ldrh	r3, [r3, #42]	; 0x2a
 8005276:	b29b      	uxth	r3, r3
 8005278:	3b01      	subs	r3, #1
 800527a:	b29a      	uxth	r2, r3
 800527c:	68fb      	ldr	r3, [r7, #12]
 800527e:	855a      	strh	r2, [r3, #42]	; 0x2a

        if (__HAL_I2C_GET_FLAG(hi2c, I2C_FLAG_BTF) == SET)
 8005280:	68fb      	ldr	r3, [r7, #12]
 8005282:	681b      	ldr	r3, [r3, #0]
 8005284:	695b      	ldr	r3, [r3, #20]
 8005286:	f003 0304 	and.w	r3, r3, #4
 800528a:	2b04      	cmp	r3, #4
 800528c:	d124      	bne.n	80052d8 <HAL_I2C_Master_Receive+0x430>
        {

          if (hi2c->XferSize == 3U)
 800528e:	68fb      	ldr	r3, [r7, #12]
 8005290:	8d1b      	ldrh	r3, [r3, #40]	; 0x28
 8005292:	2b03      	cmp	r3, #3
 8005294:	d107      	bne.n	80052a6 <HAL_I2C_Master_Receive+0x3fe>
          {
            /* Disable Acknowledge */
            CLEAR_BIT(hi2c->Instance->CR1, I2C_CR1_ACK);
 8005296:	68fb      	ldr	r3, [r7, #12]
 8005298:	681b      	ldr	r3, [r3, #0]
 800529a:	681a      	ldr	r2, [r3, #0]
 800529c:	68fb      	ldr	r3, [r7, #12]
 800529e:	681b      	ldr	r3, [r3, #0]
 80052a0:	f422 6280 	bic.w	r2, r2, #1024	; 0x400
 80052a4:	601a      	str	r2, [r3, #0]
          }

          /* Read data from DR */
          *hi2c->pBuffPtr = (uint8_t)hi2c->Instance->DR;
 80052a6:	68fb      	ldr	r3, [r7, #12]
 80052a8:	681b      	ldr	r3, [r3, #0]
 80052aa:	691a      	ldr	r2, [r3, #16]
 80052ac:	68fb      	ldr	r3, [r7, #12]
 80052ae:	6a5b      	ldr	r3, [r3, #36]	; 0x24
 80052b0:	b2d2      	uxtb	r2, r2
 80052b2:	701a      	strb	r2, [r3, #0]

          /* Increment Buffer pointer */
          hi2c->pBuffPtr++;
 80052b4:	68fb      	ldr	r3, [r7, #12]
 80052b6:	6a5b      	ldr	r3, [r3, #36]	; 0x24
 80052b8:	1c5a      	adds	r2, r3, #1
 80052ba:	68fb      	ldr	r3, [r7, #12]
 80052bc:	625a      	str	r2, [r3, #36]	; 0x24

          /* Update counter */
          hi2c->XferSize--;
 80052be:	68fb      	ldr	r3, [r7, #12]
 80052c0:	8d1b      	ldrh	r3, [r3, #40]	; 0x28
 80052c2:	3b01      	subs	r3, #1
 80052c4:	b29a      	uxth	r2, r3
 80052c6:	68fb      	ldr	r3, [r7, #12]
 80052c8:	851a      	strh	r2, [r3, #40]	; 0x28
          hi2c->XferCount--;
 80052ca:	68fb      	ldr	r3, [r7, #12]
 80052cc:	8d5b      	ldrh	r3, [r3, #42]	; 0x2a
 80052ce:	b29b      	uxth	r3, r3
 80052d0:	3b01      	subs	r3, #1
 80052d2:	b29a      	uxth	r2, r3
 80052d4:	68fb      	ldr	r3, [r7, #12]
 80052d6:	855a      	strh	r2, [r3, #42]	; 0x2a
    while (hi2c->XferSize > 0U)
 80052d8:	68fb      	ldr	r3, [r7, #12]
 80052da:	8d1b      	ldrh	r3, [r3, #40]	; 0x28
 80052dc:	2b00      	cmp	r3, #0
 80052de:	f47f aeb6 	bne.w	800504e <HAL_I2C_Master_Receive+0x1a6>
        }
      }
    }

    hi2c->State = HAL_I2C_STATE_READY;
 80052e2:	68fb      	ldr	r3, [r7, #12]
 80052e4:	2220      	movs	r2, #32
 80052e6:	f883 203d 	strb.w	r2, [r3, #61]	; 0x3d
    hi2c->Mode = HAL_I2C_MODE_NONE;
 80052ea:	68fb      	ldr	r3, [r7, #12]
 80052ec:	2200      	movs	r2, #0
 80052ee:	f883 203e 	strb.w	r2, [r3, #62]	; 0x3e

    /* Process Unlocked */
    __HAL_UNLOCK(hi2c);
 80052f2:	68fb      	ldr	r3, [r7, #12]
 80052f4:	2200      	movs	r2, #0
 80052f6:	f883 203c 	strb.w	r2, [r3, #60]	; 0x3c

    return HAL_OK;
 80052fa:	2300      	movs	r3, #0
 80052fc:	e000      	b.n	8005300 <HAL_I2C_Master_Receive+0x458>
  }
  else
  {
    return HAL_BUSY;
 80052fe:	2302      	movs	r3, #2
  }
}
 8005300:	4618      	mov	r0, r3
 8005302:	3728      	adds	r7, #40	; 0x28
 8005304:	46bd      	mov	sp, r7
 8005306:	bd80      	pop	{r7, pc}
 8005308:	00010004 	.word	0x00010004

0800530c <I2C_MasterRequestWrite>:
  * @param  Timeout Timeout duration
  * @param  Tickstart Tick start value
  * @retval HAL status
  */
static HAL_StatusTypeDef I2C_MasterRequestWrite(I2C_HandleTypeDef *hi2c, uint16_t DevAddress, uint32_t Timeout, uint32_t Tickstart)
{
 800530c:	b580      	push	{r7, lr}
 800530e:	b088      	sub	sp, #32
 8005310:	af02      	add	r7, sp, #8
 8005312:	60f8      	str	r0, [r7, #12]
 8005314:	607a      	str	r2, [r7, #4]
 8005316:	603b      	str	r3, [r7, #0]
 8005318:	460b      	mov	r3, r1
 800531a:	817b      	strh	r3, [r7, #10]
  /* Declaration of temporary variable to prevent undefined behavior of volatile usage */
  uint32_t CurrentXferOptions = hi2c->XferOptions;
 800531c:	68fb      	ldr	r3, [r7, #12]
 800531e:	6adb      	ldr	r3, [r3, #44]	; 0x2c
 8005320:	617b      	str	r3, [r7, #20]

  /* Generate Start condition if first transfer */
  if ((CurrentXferOptions == I2C_FIRST_AND_LAST_FRAME) || (CurrentXferOptions == I2C_FIRST_FRAME) || (CurrentXferOptions == I2C_NO_OPTION_FRAME))
 8005322:	697b      	ldr	r3, [r7, #20]
 8005324:	2b08      	cmp	r3, #8
 8005326:	d006      	beq.n	8005336 <I2C_MasterRequestWrite+0x2a>
 8005328:	697b      	ldr	r3, [r7, #20]
 800532a:	2b01      	cmp	r3, #1
 800532c:	d003      	beq.n	8005336 <I2C_MasterRequestWrite+0x2a>
 800532e:	697b      	ldr	r3, [r7, #20]
 8005330:	f513 3f80 	cmn.w	r3, #65536	; 0x10000
 8005334:	d108      	bne.n	8005348 <I2C_MasterRequestWrite+0x3c>
  {
    /* Generate Start */
    SET_BIT(hi2c->Instance->CR1, I2C_CR1_START);
 8005336:	68fb      	ldr	r3, [r7, #12]
 8005338:	681b      	ldr	r3, [r3, #0]
 800533a:	681a      	ldr	r2, [r3, #0]
 800533c:	68fb      	ldr	r3, [r7, #12]
 800533e:	681b      	ldr	r3, [r3, #0]
 8005340:	f442 7280 	orr.w	r2, r2, #256	; 0x100
 8005344:	601a      	str	r2, [r3, #0]
 8005346:	e00b      	b.n	8005360 <I2C_MasterRequestWrite+0x54>
  }
  else if (hi2c->PreviousState == I2C_STATE_MASTER_BUSY_RX)
 8005348:	68fb      	ldr	r3, [r7, #12]
 800534a:	6b1b      	ldr	r3, [r3, #48]	; 0x30
 800534c:	2b12      	cmp	r3, #18
 800534e:	d107      	bne.n	8005360 <I2C_MasterRequestWrite+0x54>
  {
    /* Generate ReStart */
    SET_BIT(hi2c->Instance->CR1, I2C_CR1_START);
 8005350:	68fb      	ldr	r3, [r7, #12]
 8005352:	681b      	ldr	r3, [r3, #0]
 8005354:	681a      	ldr	r2, [r3, #0]
 8005356:	68fb      	ldr	r3, [r7, #12]
 8005358:	681b      	ldr	r3, [r3, #0]
 800535a:	f442 7280 	orr.w	r2, r2, #256	; 0x100
 800535e:	601a      	str	r2, [r3, #0]
  {
    /* Do nothing */
  }

  /* Wait until SB flag is set */
  if (I2C_WaitOnFlagUntilTimeout(hi2c, I2C_FLAG_SB, RESET, Timeout, Tickstart) != HAL_OK)
 8005360:	683b      	ldr	r3, [r7, #0]
 8005362:	9300      	str	r3, [sp, #0]
 8005364:	687b      	ldr	r3, [r7, #4]
 8005366:	2200      	movs	r2, #0
 8005368:	f04f 1101 	mov.w	r1, #65537	; 0x10001
 800536c:	68f8      	ldr	r0, [r7, #12]
 800536e:	f000 f91d 	bl	80055ac <I2C_WaitOnFlagUntilTimeout>
 8005372:	4603      	mov	r3, r0
 8005374:	2b00      	cmp	r3, #0
 8005376:	d00d      	beq.n	8005394 <I2C_MasterRequestWrite+0x88>
  {
    if (READ_BIT(hi2c->Instance->CR1, I2C_CR1_START) == I2C_CR1_START)
 8005378:	68fb      	ldr	r3, [r7, #12]
 800537a:	681b      	ldr	r3, [r3, #0]
 800537c:	681b      	ldr	r3, [r3, #0]
 800537e:	f403 7380 	and.w	r3, r3, #256	; 0x100
 8005382:	f5b3 7f80 	cmp.w	r3, #256	; 0x100
 8005386:	d103      	bne.n	8005390 <I2C_MasterRequestWrite+0x84>
    {
      hi2c->ErrorCode = HAL_I2C_WRONG_START;
 8005388:	68fb      	ldr	r3, [r7, #12]
 800538a:	f44f 7200 	mov.w	r2, #512	; 0x200
 800538e:	641a      	str	r2, [r3, #64]	; 0x40
    }
    return HAL_TIMEOUT;
 8005390:	2303      	movs	r3, #3
 8005392:	e035      	b.n	8005400 <I2C_MasterRequestWrite+0xf4>
  }

  if (hi2c->Init.AddressingMode == I2C_ADDRESSINGMODE_7BIT)
 8005394:	68fb      	ldr	r3, [r7, #12]
 8005396:	691b      	ldr	r3, [r3, #16]
 8005398:	f5b3 4f80 	cmp.w	r3, #16384	; 0x4000
 800539c:	d108      	bne.n	80053b0 <I2C_MasterRequestWrite+0xa4>
  {
    /* Send slave address */
    hi2c->Instance->DR = I2C_7BIT_ADD_WRITE(DevAddress);
 800539e:	897b      	ldrh	r3, [r7, #10]
 80053a0:	b2db      	uxtb	r3, r3
 80053a2:	461a      	mov	r2, r3
 80053a4:	68fb      	ldr	r3, [r7, #12]
 80053a6:	681b      	ldr	r3, [r3, #0]
 80053a8:	f002 02fe 	and.w	r2, r2, #254	; 0xfe
 80053ac:	611a      	str	r2, [r3, #16]
 80053ae:	e01b      	b.n	80053e8 <I2C_MasterRequestWrite+0xdc>
  }
  else
  {
    /* Send header of slave address */
    hi2c->Instance->DR = I2C_10BIT_HEADER_WRITE(DevAddress);
 80053b0:	897b      	ldrh	r3, [r7, #10]
 80053b2:	11db      	asrs	r3, r3, #7
 80053b4:	b2db      	uxtb	r3, r3
 80053b6:	f003 0306 	and.w	r3, r3, #6
 80053ba:	b2db      	uxtb	r3, r3
 80053bc:	f063 030f 	orn	r3, r3, #15
 80053c0:	b2da      	uxtb	r2, r3
 80053c2:	68fb      	ldr	r3, [r7, #12]
 80053c4:	681b      	ldr	r3, [r3, #0]
 80053c6:	611a      	str	r2, [r3, #16]

    /* Wait until ADD10 flag is set */
    if (I2C_WaitOnMasterAddressFlagUntilTimeout(hi2c, I2C_FLAG_ADD10, Timeout, Tickstart) != HAL_OK)
 80053c8:	683b      	ldr	r3, [r7, #0]
 80053ca:	687a      	ldr	r2, [r7, #4]
 80053cc:	490e      	ldr	r1, [pc, #56]	; (8005408 <I2C_MasterRequestWrite+0xfc>)
 80053ce:	68f8      	ldr	r0, [r7, #12]
 80053d0:	f000 f966 	bl	80056a0 <I2C_WaitOnMasterAddressFlagUntilTimeout>
 80053d4:	4603      	mov	r3, r0
 80053d6:	2b00      	cmp	r3, #0
 80053d8:	d001      	beq.n	80053de <I2C_MasterRequestWrite+0xd2>
    {
      return HAL_ERROR;
 80053da:	2301      	movs	r3, #1
 80053dc:	e010      	b.n	8005400 <I2C_MasterRequestWrite+0xf4>
    }

    /* Send slave address */
    hi2c->Instance->DR = I2C_10BIT_ADDRESS(DevAddress);
 80053de:	897b      	ldrh	r3, [r7, #10]
 80053e0:	b2da      	uxtb	r2, r3
 80053e2:	68fb      	ldr	r3, [r7, #12]
 80053e4:	681b      	ldr	r3, [r3, #0]
 80053e6:	611a      	str	r2, [r3, #16]
  }

  /* Wait until ADDR flag is set */
  if (I2C_WaitOnMasterAddressFlagUntilTimeout(hi2c, I2C_FLAG_ADDR, Timeout, Tickstart) != HAL_OK)
 80053e8:	683b      	ldr	r3, [r7, #0]
 80053ea:	687a      	ldr	r2, [r7, #4]
 80053ec:	4907      	ldr	r1, [pc, #28]	; (800540c <I2C_MasterRequestWrite+0x100>)
 80053ee:	68f8      	ldr	r0, [r7, #12]
 80053f0:	f000 f956 	bl	80056a0 <I2C_WaitOnMasterAddressFlagUntilTimeout>
 80053f4:	4603      	mov	r3, r0
 80053f6:	2b00      	cmp	r3, #0
 80053f8:	d001      	beq.n	80053fe <I2C_MasterRequestWrite+0xf2>
  {
    return HAL_ERROR;
 80053fa:	2301      	movs	r3, #1
 80053fc:	e000      	b.n	8005400 <I2C_MasterRequestWrite+0xf4>
  }

  return HAL_OK;
 80053fe:	2300      	movs	r3, #0
}
 8005400:	4618      	mov	r0, r3
 8005402:	3718      	adds	r7, #24
 8005404:	46bd      	mov	sp, r7
 8005406:	bd80      	pop	{r7, pc}
 8005408:	00010008 	.word	0x00010008
 800540c:	00010002 	.word	0x00010002

08005410 <I2C_MasterRequestRead>:
  * @param  Timeout Timeout duration
  * @param  Tickstart Tick start value
  * @retval HAL status
  */
static HAL_StatusTypeDef I2C_MasterRequestRead(I2C_HandleTypeDef *hi2c, uint16_t DevAddress, uint32_t Timeout, uint32_t Tickstart)
{
 8005410:	b580      	push	{r7, lr}
 8005412:	b088      	sub	sp, #32
 8005414:	af02      	add	r7, sp, #8
 8005416:	60f8      	str	r0, [r7, #12]
 8005418:	607a      	str	r2, [r7, #4]
 800541a:	603b      	str	r3, [r7, #0]
 800541c:	460b      	mov	r3, r1
 800541e:	817b      	strh	r3, [r7, #10]
  /* Declaration of temporary variable to prevent undefined behavior of volatile usage */
  uint32_t CurrentXferOptions = hi2c->XferOptions;
 8005420:	68fb      	ldr	r3, [r7, #12]
 8005422:	6adb      	ldr	r3, [r3, #44]	; 0x2c
 8005424:	617b      	str	r3, [r7, #20]

  /* Enable Acknowledge */
  SET_BIT(hi2c->Instance->CR1, I2C_CR1_ACK);
 8005426:	68fb      	ldr	r3, [r7, #12]
 8005428:	681b      	ldr	r3, [r3, #0]
 800542a:	681a      	ldr	r2, [r3, #0]
 800542c:	68fb      	ldr	r3, [r7, #12]
 800542e:	681b      	ldr	r3, [r3, #0]
 8005430:	f442 6280 	orr.w	r2, r2, #1024	; 0x400
 8005434:	601a      	str	r2, [r3, #0]

  /* Generate Start condition if first transfer */
  if ((CurrentXferOptions == I2C_FIRST_AND_LAST_FRAME) || (CurrentXferOptions == I2C_FIRST_FRAME)  || (CurrentXferOptions == I2C_NO_OPTION_FRAME))
 8005436:	697b      	ldr	r3, [r7, #20]
 8005438:	2b08      	cmp	r3, #8
 800543a:	d006      	beq.n	800544a <I2C_MasterRequestRead+0x3a>
 800543c:	697b      	ldr	r3, [r7, #20]
 800543e:	2b01      	cmp	r3, #1
 8005440:	d003      	beq.n	800544a <I2C_MasterRequestRead+0x3a>
 8005442:	697b      	ldr	r3, [r7, #20]
 8005444:	f513 3f80 	cmn.w	r3, #65536	; 0x10000
 8005448:	d108      	bne.n	800545c <I2C_MasterRequestRead+0x4c>
  {
    /* Generate Start */
    SET_BIT(hi2c->Instance->CR1, I2C_CR1_START);
 800544a:	68fb      	ldr	r3, [r7, #12]
 800544c:	681b      	ldr	r3, [r3, #0]
 800544e:	681a      	ldr	r2, [r3, #0]
 8005450:	68fb      	ldr	r3, [r7, #12]
 8005452:	681b      	ldr	r3, [r3, #0]
 8005454:	f442 7280 	orr.w	r2, r2, #256	; 0x100
 8005458:	601a      	str	r2, [r3, #0]
 800545a:	e00b      	b.n	8005474 <I2C_MasterRequestRead+0x64>
  }
  else if (hi2c->PreviousState == I2C_STATE_MASTER_BUSY_TX)
 800545c:	68fb      	ldr	r3, [r7, #12]
 800545e:	6b1b      	ldr	r3, [r3, #48]	; 0x30
 8005460:	2b11      	cmp	r3, #17
 8005462:	d107      	bne.n	8005474 <I2C_MasterRequestRead+0x64>
  {
    /* Generate ReStart */
    SET_BIT(hi2c->Instance->CR1, I2C_CR1_START);
 8005464:	68fb      	ldr	r3, [r7, #12]
 8005466:	681b      	ldr	r3, [r3, #0]
 8005468:	681a      	ldr	r2, [r3, #0]
 800546a:	68fb      	ldr	r3, [r7, #12]
 800546c:	681b      	ldr	r3, [r3, #0]
 800546e:	f442 7280 	orr.w	r2, r2, #256	; 0x100
 8005472:	601a      	str	r2, [r3, #0]
  {
    /* Do nothing */
  }

  /* Wait until SB flag is set */
  if (I2C_WaitOnFlagUntilTimeout(hi2c, I2C_FLAG_SB, RESET, Timeout, Tickstart) != HAL_OK)
 8005474:	683b      	ldr	r3, [r7, #0]
 8005476:	9300      	str	r3, [sp, #0]
 8005478:	687b      	ldr	r3, [r7, #4]
 800547a:	2200      	movs	r2, #0
 800547c:	f04f 1101 	mov.w	r1, #65537	; 0x10001
 8005480:	68f8      	ldr	r0, [r7, #12]
 8005482:	f000 f893 	bl	80055ac <I2C_WaitOnFlagUntilTimeout>
 8005486:	4603      	mov	r3, r0
 8005488:	2b00      	cmp	r3, #0
 800548a:	d00d      	beq.n	80054a8 <I2C_MasterRequestRead+0x98>
  {
    if (READ_BIT(hi2c->Instance->CR1, I2C_CR1_START) == I2C_CR1_START)
 800548c:	68fb      	ldr	r3, [r7, #12]
 800548e:	681b      	ldr	r3, [r3, #0]
 8005490:	681b      	ldr	r3, [r3, #0]
 8005492:	f403 7380 	and.w	r3, r3, #256	; 0x100
 8005496:	f5b3 7f80 	cmp.w	r3, #256	; 0x100
 800549a:	d103      	bne.n	80054a4 <I2C_MasterRequestRead+0x94>
    {
      hi2c->ErrorCode = HAL_I2C_WRONG_START;
 800549c:	68fb      	ldr	r3, [r7, #12]
 800549e:	f44f 7200 	mov.w	r2, #512	; 0x200
 80054a2:	641a      	str	r2, [r3, #64]	; 0x40
    }
    return HAL_TIMEOUT;
 80054a4:	2303      	movs	r3, #3
 80054a6:	e079      	b.n	800559c <I2C_MasterRequestRead+0x18c>
  }

  if (hi2c->Init.AddressingMode == I2C_ADDRESSINGMODE_7BIT)
 80054a8:	68fb      	ldr	r3, [r7, #12]
 80054aa:	691b      	ldr	r3, [r3, #16]
 80054ac:	f5b3 4f80 	cmp.w	r3, #16384	; 0x4000
 80054b0:	d108      	bne.n	80054c4 <I2C_MasterRequestRead+0xb4>
  {
    /* Send slave address */
    hi2c->Instance->DR = I2C_7BIT_ADD_READ(DevAddress);
 80054b2:	897b      	ldrh	r3, [r7, #10]
 80054b4:	b2db      	uxtb	r3, r3
 80054b6:	f043 0301 	orr.w	r3, r3, #1
 80054ba:	b2da      	uxtb	r2, r3
 80054bc:	68fb      	ldr	r3, [r7, #12]
 80054be:	681b      	ldr	r3, [r3, #0]
 80054c0:	611a      	str	r2, [r3, #16]
 80054c2:	e05f      	b.n	8005584 <I2C_MasterRequestRead+0x174>
  }
  else
  {
    /* Send header of slave address */
    hi2c->Instance->DR = I2C_10BIT_HEADER_WRITE(DevAddress);
 80054c4:	897b      	ldrh	r3, [r7, #10]
 80054c6:	11db      	asrs	r3, r3, #7
 80054c8:	b2db      	uxtb	r3, r3
 80054ca:	f003 0306 	and.w	r3, r3, #6
 80054ce:	b2db      	uxtb	r3, r3
 80054d0:	f063 030f 	orn	r3, r3, #15
 80054d4:	b2da      	uxtb	r2, r3
 80054d6:	68fb      	ldr	r3, [r7, #12]
 80054d8:	681b      	ldr	r3, [r3, #0]
 80054da:	611a      	str	r2, [r3, #16]

    /* Wait until ADD10 flag is set */
    if (I2C_WaitOnMasterAddressFlagUntilTimeout(hi2c, I2C_FLAG_ADD10, Timeout, Tickstart) != HAL_OK)
 80054dc:	683b      	ldr	r3, [r7, #0]
 80054de:	687a      	ldr	r2, [r7, #4]
 80054e0:	4930      	ldr	r1, [pc, #192]	; (80055a4 <I2C_MasterRequestRead+0x194>)
 80054e2:	68f8      	ldr	r0, [r7, #12]
 80054e4:	f000 f8dc 	bl	80056a0 <I2C_WaitOnMasterAddressFlagUntilTimeout>
 80054e8:	4603      	mov	r3, r0
 80054ea:	2b00      	cmp	r3, #0
 80054ec:	d001      	beq.n	80054f2 <I2C_MasterRequestRead+0xe2>
    {
      return HAL_ERROR;
 80054ee:	2301      	movs	r3, #1
 80054f0:	e054      	b.n	800559c <I2C_MasterRequestRead+0x18c>
    }

    /* Send slave address */
    hi2c->Instance->DR = I2C_10BIT_ADDRESS(DevAddress);
 80054f2:	897b      	ldrh	r3, [r7, #10]
 80054f4:	b2da      	uxtb	r2, r3
 80054f6:	68fb      	ldr	r3, [r7, #12]
 80054f8:	681b      	ldr	r3, [r3, #0]
 80054fa:	611a      	str	r2, [r3, #16]

    /* Wait until ADDR flag is set */
    if (I2C_WaitOnMasterAddressFlagUntilTimeout(hi2c, I2C_FLAG_ADDR, Timeout, Tickstart) != HAL_OK)
 80054fc:	683b      	ldr	r3, [r7, #0]
 80054fe:	687a      	ldr	r2, [r7, #4]
 8005500:	4929      	ldr	r1, [pc, #164]	; (80055a8 <I2C_MasterRequestRead+0x198>)
 8005502:	68f8      	ldr	r0, [r7, #12]
 8005504:	f000 f8cc 	bl	80056a0 <I2C_WaitOnMasterAddressFlagUntilTimeout>
 8005508:	4603      	mov	r3, r0
 800550a:	2b00      	cmp	r3, #0
 800550c:	d001      	beq.n	8005512 <I2C_MasterRequestRead+0x102>
    {
      return HAL_ERROR;
 800550e:	2301      	movs	r3, #1
 8005510:	e044      	b.n	800559c <I2C_MasterRequestRead+0x18c>
    }

    /* Clear ADDR flag */
    __HAL_I2C_CLEAR_ADDRFLAG(hi2c);
 8005512:	2300      	movs	r3, #0
 8005514:	613b      	str	r3, [r7, #16]
 8005516:	68fb      	ldr	r3, [r7, #12]
 8005518:	681b      	ldr	r3, [r3, #0]
 800551a:	695b      	ldr	r3, [r3, #20]
 800551c:	613b      	str	r3, [r7, #16]
 800551e:	68fb      	ldr	r3, [r7, #12]
 8005520:	681b      	ldr	r3, [r3, #0]
 8005522:	699b      	ldr	r3, [r3, #24]
 8005524:	613b      	str	r3, [r7, #16]
 8005526:	693b      	ldr	r3, [r7, #16]

    /* Generate Restart */
    SET_BIT(hi2c->Instance->CR1, I2C_CR1_START);
 8005528:	68fb      	ldr	r3, [r7, #12]
 800552a:	681b      	ldr	r3, [r3, #0]
 800552c:	681a      	ldr	r2, [r3, #0]
 800552e:	68fb      	ldr	r3, [r7, #12]
 8005530:	681b      	ldr	r3, [r3, #0]
 8005532:	f442 7280 	orr.w	r2, r2, #256	; 0x100
 8005536:	601a      	str	r2, [r3, #0]

    /* Wait until SB flag is set */
    if (I2C_WaitOnFlagUntilTimeout(hi2c, I2C_FLAG_SB, RESET, Timeout, Tickstart) != HAL_OK)
 8005538:	683b      	ldr	r3, [r7, #0]
 800553a:	9300      	str	r3, [sp, #0]
 800553c:	687b      	ldr	r3, [r7, #4]
 800553e:	2200      	movs	r2, #0
 8005540:	f04f 1101 	mov.w	r1, #65537	; 0x10001
 8005544:	68f8      	ldr	r0, [r7, #12]
 8005546:	f000 f831 	bl	80055ac <I2C_WaitOnFlagUntilTimeout>
 800554a:	4603      	mov	r3, r0
 800554c:	2b00      	cmp	r3, #0
 800554e:	d00d      	beq.n	800556c <I2C_MasterRequestRead+0x15c>
    {
      if (READ_BIT(hi2c->Instance->CR1, I2C_CR1_START) == I2C_CR1_START)
 8005550:	68fb      	ldr	r3, [r7, #12]
 8005552:	681b      	ldr	r3, [r3, #0]
 8005554:	681b      	ldr	r3, [r3, #0]
 8005556:	f403 7380 	and.w	r3, r3, #256	; 0x100
 800555a:	f5b3 7f80 	cmp.w	r3, #256	; 0x100
 800555e:	d103      	bne.n	8005568 <I2C_MasterRequestRead+0x158>
      {
        hi2c->ErrorCode = HAL_I2C_WRONG_START;
 8005560:	68fb      	ldr	r3, [r7, #12]
 8005562:	f44f 7200 	mov.w	r2, #512	; 0x200
 8005566:	641a      	str	r2, [r3, #64]	; 0x40
      }
      return HAL_TIMEOUT;
 8005568:	2303      	movs	r3, #3
 800556a:	e017      	b.n	800559c <I2C_MasterRequestRead+0x18c>
    }

    /* Send header of slave address */
    hi2c->Instance->DR = I2C_10BIT_HEADER_READ(DevAddress);
 800556c:	897b      	ldrh	r3, [r7, #10]
 800556e:	11db      	asrs	r3, r3, #7
 8005570:	b2db      	uxtb	r3, r3
 8005572:	f003 0306 	and.w	r3, r3, #6
 8005576:	b2db      	uxtb	r3, r3
 8005578:	f063 030e 	orn	r3, r3, #14
 800557c:	b2da      	uxtb	r2, r3
 800557e:	68fb      	ldr	r3, [r7, #12]
 8005580:	681b      	ldr	r3, [r3, #0]
 8005582:	611a      	str	r2, [r3, #16]
  }

  /* Wait until ADDR flag is set */
  if (I2C_WaitOnMasterAddressFlagUntilTimeout(hi2c, I2C_FLAG_ADDR, Timeout, Tickstart) != HAL_OK)
 8005584:	683b      	ldr	r3, [r7, #0]
 8005586:	687a      	ldr	r2, [r7, #4]
 8005588:	4907      	ldr	r1, [pc, #28]	; (80055a8 <I2C_MasterRequestRead+0x198>)
 800558a:	68f8      	ldr	r0, [r7, #12]
 800558c:	f000 f888 	bl	80056a0 <I2C_WaitOnMasterAddressFlagUntilTimeout>
 8005590:	4603      	mov	r3, r0
 8005592:	2b00      	cmp	r3, #0
 8005594:	d001      	beq.n	800559a <I2C_MasterRequestRead+0x18a>
  {
    return HAL_ERROR;
 8005596:	2301      	movs	r3, #1
 8005598:	e000      	b.n	800559c <I2C_MasterRequestRead+0x18c>
  }

  return HAL_OK;
 800559a:	2300      	movs	r3, #0
}
 800559c:	4618      	mov	r0, r3
 800559e:	3718      	adds	r7, #24
 80055a0:	46bd      	mov	sp, r7
 80055a2:	bd80      	pop	{r7, pc}
 80055a4:	00010008 	.word	0x00010008
 80055a8:	00010002 	.word	0x00010002

080055ac <I2C_WaitOnFlagUntilTimeout>:
  * @param  Timeout Timeout duration
  * @param  Tickstart Tick start value
  * @retval HAL status
  */
static HAL_StatusTypeDef I2C_WaitOnFlagUntilTimeout(I2C_HandleTypeDef *hi2c, uint32_t Flag, FlagStatus Status, uint32_t Timeout, uint32_t Tickstart)
{
 80055ac:	b580      	push	{r7, lr}
 80055ae:	b084      	sub	sp, #16
 80055b0:	af00      	add	r7, sp, #0
 80055b2:	60f8      	str	r0, [r7, #12]
 80055b4:	60b9      	str	r1, [r7, #8]
 80055b6:	603b      	str	r3, [r7, #0]
 80055b8:	4613      	mov	r3, r2
 80055ba:	71fb      	strb	r3, [r7, #7]
  /* Wait until flag is set */
  while (__HAL_I2C_GET_FLAG(hi2c, Flag) == Status)
 80055bc:	e048      	b.n	8005650 <I2C_WaitOnFlagUntilTimeout+0xa4>
  {
    /* Check for the Timeout */
    if (Timeout != HAL_MAX_DELAY)
 80055be:	683b      	ldr	r3, [r7, #0]
 80055c0:	f1b3 3fff 	cmp.w	r3, #4294967295	; 0xffffffff
 80055c4:	d044      	beq.n	8005650 <I2C_WaitOnFlagUntilTimeout+0xa4>
    {
      if (((HAL_GetTick() - Tickstart) > Timeout) || (Timeout == 0U))
 80055c6:	f7fd fc89 	bl	8002edc <HAL_GetTick>
 80055ca:	4602      	mov	r2, r0
 80055cc:	69bb      	ldr	r3, [r7, #24]
 80055ce:	1ad3      	subs	r3, r2, r3
 80055d0:	683a      	ldr	r2, [r7, #0]
 80055d2:	429a      	cmp	r2, r3
 80055d4:	d302      	bcc.n	80055dc <I2C_WaitOnFlagUntilTimeout+0x30>
 80055d6:	683b      	ldr	r3, [r7, #0]
 80055d8:	2b00      	cmp	r3, #0
 80055da:	d139      	bne.n	8005650 <I2C_WaitOnFlagUntilTimeout+0xa4>
      {
        if ((__HAL_I2C_GET_FLAG(hi2c, Flag) == Status))
 80055dc:	68bb      	ldr	r3, [r7, #8]
 80055de:	0c1b      	lsrs	r3, r3, #16
 80055e0:	b2db      	uxtb	r3, r3
 80055e2:	2b01      	cmp	r3, #1
 80055e4:	d10d      	bne.n	8005602 <I2C_WaitOnFlagUntilTimeout+0x56>
 80055e6:	68fb      	ldr	r3, [r7, #12]
 80055e8:	681b      	ldr	r3, [r3, #0]
 80055ea:	695b      	ldr	r3, [r3, #20]
 80055ec:	43da      	mvns	r2, r3
 80055ee:	68bb      	ldr	r3, [r7, #8]
 80055f0:	4013      	ands	r3, r2
 80055f2:	b29b      	uxth	r3, r3
 80055f4:	2b00      	cmp	r3, #0
 80055f6:	bf0c      	ite	eq
 80055f8:	2301      	moveq	r3, #1
 80055fa:	2300      	movne	r3, #0
 80055fc:	b2db      	uxtb	r3, r3
 80055fe:	461a      	mov	r2, r3
 8005600:	e00c      	b.n	800561c <I2C_WaitOnFlagUntilTimeout+0x70>
 8005602:	68fb      	ldr	r3, [r7, #12]
 8005604:	681b      	ldr	r3, [r3, #0]
 8005606:	699b      	ldr	r3, [r3, #24]
 8005608:	43da      	mvns	r2, r3
 800560a:	68bb      	ldr	r3, [r7, #8]
 800560c:	4013      	ands	r3, r2
 800560e:	b29b      	uxth	r3, r3
 8005610:	2b00      	cmp	r3, #0
 8005612:	bf0c      	ite	eq
 8005614:	2301      	moveq	r3, #1
 8005616:	2300      	movne	r3, #0
 8005618:	b2db      	uxtb	r3, r3
 800561a:	461a      	mov	r2, r3
 800561c:	79fb      	ldrb	r3, [r7, #7]
 800561e:	429a      	cmp	r2, r3
 8005620:	d116      	bne.n	8005650 <I2C_WaitOnFlagUntilTimeout+0xa4>
        {
          hi2c->PreviousState     = I2C_STATE_NONE;
 8005622:	68fb      	ldr	r3, [r7, #12]
 8005624:	2200      	movs	r2, #0
 8005626:	631a      	str	r2, [r3, #48]	; 0x30
          hi2c->State             = HAL_I2C_STATE_READY;
 8005628:	68fb      	ldr	r3, [r7, #12]
 800562a:	2220      	movs	r2, #32
 800562c:	f883 203d 	strb.w	r2, [r3, #61]	; 0x3d
          hi2c->Mode              = HAL_I2C_MODE_NONE;
 8005630:	68fb      	ldr	r3, [r7, #12]
 8005632:	2200      	movs	r2, #0
 8005634:	f883 203e 	strb.w	r2, [r3, #62]	; 0x3e
          hi2c->ErrorCode         |= HAL_I2C_ERROR_TIMEOUT;
 8005638:	68fb      	ldr	r3, [r7, #12]
 800563a:	6c1b      	ldr	r3, [r3, #64]	; 0x40
 800563c:	f043 0220 	orr.w	r2, r3, #32
 8005640:	68fb      	ldr	r3, [r7, #12]
 8005642:	641a      	str	r2, [r3, #64]	; 0x40

          /* Process Unlocked */
          __HAL_UNLOCK(hi2c);
 8005644:	68fb      	ldr	r3, [r7, #12]
 8005646:	2200      	movs	r2, #0
 8005648:	f883 203c 	strb.w	r2, [r3, #60]	; 0x3c

          return HAL_ERROR;
 800564c:	2301      	movs	r3, #1
 800564e:	e023      	b.n	8005698 <I2C_WaitOnFlagUntilTimeout+0xec>
  while (__HAL_I2C_GET_FLAG(hi2c, Flag) == Status)
 8005650:	68bb      	ldr	r3, [r7, #8]
 8005652:	0c1b      	lsrs	r3, r3, #16
 8005654:	b2db      	uxtb	r3, r3
 8005656:	2b01      	cmp	r3, #1
 8005658:	d10d      	bne.n	8005676 <I2C_WaitOnFlagUntilTimeout+0xca>
 800565a:	68fb      	ldr	r3, [r7, #12]
 800565c:	681b      	ldr	r3, [r3, #0]
 800565e:	695b      	ldr	r3, [r3, #20]
 8005660:	43da      	mvns	r2, r3
 8005662:	68bb      	ldr	r3, [r7, #8]
 8005664:	4013      	ands	r3, r2
 8005666:	b29b      	uxth	r3, r3
 8005668:	2b00      	cmp	r3, #0
 800566a:	bf0c      	ite	eq
 800566c:	2301      	moveq	r3, #1
 800566e:	2300      	movne	r3, #0
 8005670:	b2db      	uxtb	r3, r3
 8005672:	461a      	mov	r2, r3
 8005674:	e00c      	b.n	8005690 <I2C_WaitOnFlagUntilTimeout+0xe4>
 8005676:	68fb      	ldr	r3, [r7, #12]
 8005678:	681b      	ldr	r3, [r3, #0]
 800567a:	699b      	ldr	r3, [r3, #24]
 800567c:	43da      	mvns	r2, r3
 800567e:	68bb      	ldr	r3, [r7, #8]
 8005680:	4013      	ands	r3, r2
 8005682:	b29b      	uxth	r3, r3
 8005684:	2b00      	cmp	r3, #0
 8005686:	bf0c      	ite	eq
 8005688:	2301      	moveq	r3, #1
 800568a:	2300      	movne	r3, #0
 800568c:	b2db      	uxtb	r3, r3
 800568e:	461a      	mov	r2, r3
 8005690:	79fb      	ldrb	r3, [r7, #7]
 8005692:	429a      	cmp	r2, r3
 8005694:	d093      	beq.n	80055be <I2C_WaitOnFlagUntilTimeout+0x12>
        }
      }
    }
  }
  return HAL_OK;
 8005696:	2300      	movs	r3, #0
}
 8005698:	4618      	mov	r0, r3
 800569a:	3710      	adds	r7, #16
 800569c:	46bd      	mov	sp, r7
 800569e:	bd80      	pop	{r7, pc}

080056a0 <I2C_WaitOnMasterAddressFlagUntilTimeout>:
  * @param  Timeout Timeout duration
  * @param  Tickstart Tick start value
  * @retval HAL status
  */
static HAL_StatusTypeDef I2C_WaitOnMasterAddressFlagUntilTimeout(I2C_HandleTypeDef *hi2c, uint32_t Flag, uint32_t Timeout, uint32_t Tickstart)
{
 80056a0:	b580      	push	{r7, lr}
 80056a2:	b084      	sub	sp, #16
 80056a4:	af00      	add	r7, sp, #0
 80056a6:	60f8      	str	r0, [r7, #12]
 80056a8:	60b9      	str	r1, [r7, #8]
 80056aa:	607a      	str	r2, [r7, #4]
 80056ac:	603b      	str	r3, [r7, #0]
  while (__HAL_I2C_GET_FLAG(hi2c, Flag) == RESET)
 80056ae:	e071      	b.n	8005794 <I2C_WaitOnMasterAddressFlagUntilTimeout+0xf4>
  {
    if (__HAL_I2C_GET_FLAG(hi2c, I2C_FLAG_AF) == SET)
 80056b0:	68fb      	ldr	r3, [r7, #12]
 80056b2:	681b      	ldr	r3, [r3, #0]
 80056b4:	695b      	ldr	r3, [r3, #20]
 80056b6:	f403 6380 	and.w	r3, r3, #1024	; 0x400
 80056ba:	f5b3 6f80 	cmp.w	r3, #1024	; 0x400
 80056be:	d123      	bne.n	8005708 <I2C_WaitOnMasterAddressFlagUntilTimeout+0x68>
    {
      /* Generate Stop */
      SET_BIT(hi2c->Instance->CR1, I2C_CR1_STOP);
 80056c0:	68fb      	ldr	r3, [r7, #12]
 80056c2:	681b      	ldr	r3, [r3, #0]
 80056c4:	681a      	ldr	r2, [r3, #0]
 80056c6:	68fb      	ldr	r3, [r7, #12]
 80056c8:	681b      	ldr	r3, [r3, #0]
 80056ca:	f442 7200 	orr.w	r2, r2, #512	; 0x200
 80056ce:	601a      	str	r2, [r3, #0]

      /* Clear AF Flag */
      __HAL_I2C_CLEAR_FLAG(hi2c, I2C_FLAG_AF);
 80056d0:	68fb      	ldr	r3, [r7, #12]
 80056d2:	681b      	ldr	r3, [r3, #0]
 80056d4:	f46f 6280 	mvn.w	r2, #1024	; 0x400
 80056d8:	615a      	str	r2, [r3, #20]

      hi2c->PreviousState       = I2C_STATE_NONE;
 80056da:	68fb      	ldr	r3, [r7, #12]
 80056dc:	2200      	movs	r2, #0
 80056de:	631a      	str	r2, [r3, #48]	; 0x30
      hi2c->State               = HAL_I2C_STATE_READY;
 80056e0:	68fb      	ldr	r3, [r7, #12]
 80056e2:	2220      	movs	r2, #32
 80056e4:	f883 203d 	strb.w	r2, [r3, #61]	; 0x3d
      hi2c->Mode                = HAL_I2C_MODE_NONE;
 80056e8:	68fb      	ldr	r3, [r7, #12]
 80056ea:	2200      	movs	r2, #0
 80056ec:	f883 203e 	strb.w	r2, [r3, #62]	; 0x3e
      hi2c->ErrorCode           |= HAL_I2C_ERROR_AF;
 80056f0:	68fb      	ldr	r3, [r7, #12]
 80056f2:	6c1b      	ldr	r3, [r3, #64]	; 0x40
 80056f4:	f043 0204 	orr.w	r2, r3, #4
 80056f8:	68fb      	ldr	r3, [r7, #12]
 80056fa:	641a      	str	r2, [r3, #64]	; 0x40

      /* Process Unlocked */
      __HAL_UNLOCK(hi2c);
 80056fc:	68fb      	ldr	r3, [r7, #12]
 80056fe:	2200      	movs	r2, #0
 8005700:	f883 203c 	strb.w	r2, [r3, #60]	; 0x3c

      return HAL_ERROR;
 8005704:	2301      	movs	r3, #1
 8005706:	e067      	b.n	80057d8 <I2C_WaitOnMasterAddressFlagUntilTimeout+0x138>
    }

    /* Check for the Timeout */
    if (Timeout != HAL_MAX_DELAY)
 8005708:	687b      	ldr	r3, [r7, #4]
 800570a:	f1b3 3fff 	cmp.w	r3, #4294967295	; 0xffffffff
 800570e:	d041      	beq.n	8005794 <I2C_WaitOnMasterAddressFlagUntilTimeout+0xf4>
    {
      if (((HAL_GetTick() - Tickstart) > Timeout) || (Timeout == 0U))
 8005710:	f7fd fbe4 	bl	8002edc <HAL_GetTick>
 8005714:	4602      	mov	r2, r0
 8005716:	683b      	ldr	r3, [r7, #0]
 8005718:	1ad3      	subs	r3, r2, r3
 800571a:	687a      	ldr	r2, [r7, #4]
 800571c:	429a      	cmp	r2, r3
 800571e:	d302      	bcc.n	8005726 <I2C_WaitOnMasterAddressFlagUntilTimeout+0x86>
 8005720:	687b      	ldr	r3, [r7, #4]
 8005722:	2b00      	cmp	r3, #0
 8005724:	d136      	bne.n	8005794 <I2C_WaitOnMasterAddressFlagUntilTimeout+0xf4>
      {
        if ((__HAL_I2C_GET_FLAG(hi2c, Flag) == RESET))
 8005726:	68bb      	ldr	r3, [r7, #8]
 8005728:	0c1b      	lsrs	r3, r3, #16
 800572a:	b2db      	uxtb	r3, r3
 800572c:	2b01      	cmp	r3, #1
 800572e:	d10c      	bne.n	800574a <I2C_WaitOnMasterAddressFlagUntilTimeout+0xaa>
 8005730:	68fb      	ldr	r3, [r7, #12]
 8005732:	681b      	ldr	r3, [r3, #0]
 8005734:	695b      	ldr	r3, [r3, #20]
 8005736:	43da      	mvns	r2, r3
 8005738:	68bb      	ldr	r3, [r7, #8]
 800573a:	4013      	ands	r3, r2
 800573c:	b29b      	uxth	r3, r3
 800573e:	2b00      	cmp	r3, #0
 8005740:	bf14      	ite	ne
 8005742:	2301      	movne	r3, #1
 8005744:	2300      	moveq	r3, #0
 8005746:	b2db      	uxtb	r3, r3
 8005748:	e00b      	b.n	8005762 <I2C_WaitOnMasterAddressFlagUntilTimeout+0xc2>
 800574a:	68fb      	ldr	r3, [r7, #12]
 800574c:	681b      	ldr	r3, [r3, #0]
 800574e:	699b      	ldr	r3, [r3, #24]
 8005750:	43da      	mvns	r2, r3
 8005752:	68bb      	ldr	r3, [r7, #8]
 8005754:	4013      	ands	r3, r2
 8005756:	b29b      	uxth	r3, r3
 8005758:	2b00      	cmp	r3, #0
 800575a:	bf14      	ite	ne
 800575c:	2301      	movne	r3, #1
 800575e:	2300      	moveq	r3, #0
 8005760:	b2db      	uxtb	r3, r3
 8005762:	2b00      	cmp	r3, #0
 8005764:	d016      	beq.n	8005794 <I2C_WaitOnMasterAddressFlagUntilTimeout+0xf4>
        {
          hi2c->PreviousState       = I2C_STATE_NONE;
 8005766:	68fb      	ldr	r3, [r7, #12]
 8005768:	2200      	movs	r2, #0
 800576a:	631a      	str	r2, [r3, #48]	; 0x30
          hi2c->State               = HAL_I2C_STATE_READY;
 800576c:	68fb      	ldr	r3, [r7, #12]
 800576e:	2220      	movs	r2, #32
 8005770:	f883 203d 	strb.w	r2, [r3, #61]	; 0x3d
          hi2c->Mode                = HAL_I2C_MODE_NONE;
 8005774:	68fb      	ldr	r3, [r7, #12]
 8005776:	2200      	movs	r2, #0
 8005778:	f883 203e 	strb.w	r2, [r3, #62]	; 0x3e
          hi2c->ErrorCode           |= HAL_I2C_ERROR_TIMEOUT;
 800577c:	68fb      	ldr	r3, [r7, #12]
 800577e:	6c1b      	ldr	r3, [r3, #64]	; 0x40
 8005780:	f043 0220 	orr.w	r2, r3, #32
 8005784:	68fb      	ldr	r3, [r7, #12]
 8005786:	641a      	str	r2, [r3, #64]	; 0x40

          /* Process Unlocked */
          __HAL_UNLOCK(hi2c);
 8005788:	68fb      	ldr	r3, [r7, #12]
 800578a:	2200      	movs	r2, #0
 800578c:	f883 203c 	strb.w	r2, [r3, #60]	; 0x3c

          return HAL_ERROR;
 8005790:	2301      	movs	r3, #1
 8005792:	e021      	b.n	80057d8 <I2C_WaitOnMasterAddressFlagUntilTimeout+0x138>
  while (__HAL_I2C_GET_FLAG(hi2c, Flag) == RESET)
 8005794:	68bb      	ldr	r3, [r7, #8]
 8005796:	0c1b      	lsrs	r3, r3, #16
 8005798:	b2db      	uxtb	r3, r3
 800579a:	2b01      	cmp	r3, #1
 800579c:	d10c      	bne.n	80057b8 <I2C_WaitOnMasterAddressFlagUntilTimeout+0x118>
 800579e:	68fb      	ldr	r3, [r7, #12]
 80057a0:	681b      	ldr	r3, [r3, #0]
 80057a2:	695b      	ldr	r3, [r3, #20]
 80057a4:	43da      	mvns	r2, r3
 80057a6:	68bb      	ldr	r3, [r7, #8]
 80057a8:	4013      	ands	r3, r2
 80057aa:	b29b      	uxth	r3, r3
 80057ac:	2b00      	cmp	r3, #0
 80057ae:	bf14      	ite	ne
 80057b0:	2301      	movne	r3, #1
 80057b2:	2300      	moveq	r3, #0
 80057b4:	b2db      	uxtb	r3, r3
 80057b6:	e00b      	b.n	80057d0 <I2C_WaitOnMasterAddressFlagUntilTimeout+0x130>
 80057b8:	68fb      	ldr	r3, [r7, #12]
 80057ba:	681b      	ldr	r3, [r3, #0]
 80057bc:	699b      	ldr	r3, [r3, #24]
 80057be:	43da      	mvns	r2, r3
 80057c0:	68bb      	ldr	r3, [r7, #8]
 80057c2:	4013      	ands	r3, r2
 80057c4:	b29b      	uxth	r3, r3
 80057c6:	2b00      	cmp	r3, #0
 80057c8:	bf14      	ite	ne
 80057ca:	2301      	movne	r3, #1
 80057cc:	2300      	moveq	r3, #0
 80057ce:	b2db      	uxtb	r3, r3
 80057d0:	2b00      	cmp	r3, #0
 80057d2:	f47f af6d 	bne.w	80056b0 <I2C_WaitOnMasterAddressFlagUntilTimeout+0x10>
        }
      }
    }
  }
  return HAL_OK;
 80057d6:	2300      	movs	r3, #0
}
 80057d8:	4618      	mov	r0, r3
 80057da:	3710      	adds	r7, #16
 80057dc:	46bd      	mov	sp, r7
 80057de:	bd80      	pop	{r7, pc}

080057e0 <I2C_WaitOnTXEFlagUntilTimeout>:
  * @param  Timeout Timeout duration
  * @param  Tickstart Tick start value
  * @retval HAL status
  */
static HAL_StatusTypeDef I2C_WaitOnTXEFlagUntilTimeout(I2C_HandleTypeDef *hi2c, uint32_t Timeout, uint32_t Tickstart)
{
 80057e0:	b580      	push	{r7, lr}
 80057e2:	b084      	sub	sp, #16
 80057e4:	af00      	add	r7, sp, #0
 80057e6:	60f8      	str	r0, [r7, #12]
 80057e8:	60b9      	str	r1, [r7, #8]
 80057ea:	607a      	str	r2, [r7, #4]
  while (__HAL_I2C_GET_FLAG(hi2c, I2C_FLAG_TXE) == RESET)
 80057ec:	e034      	b.n	8005858 <I2C_WaitOnTXEFlagUntilTimeout+0x78>
  {
    /* Check if a NACK is detected */
    if (I2C_IsAcknowledgeFailed(hi2c) != HAL_OK)
 80057ee:	68f8      	ldr	r0, [r7, #12]
 80057f0:	f000 f8e3 	bl	80059ba <I2C_IsAcknowledgeFailed>
 80057f4:	4603      	mov	r3, r0
 80057f6:	2b00      	cmp	r3, #0
 80057f8:	d001      	beq.n	80057fe <I2C_WaitOnTXEFlagUntilTimeout+0x1e>
    {
      return HAL_ERROR;
 80057fa:	2301      	movs	r3, #1
 80057fc:	e034      	b.n	8005868 <I2C_WaitOnTXEFlagUntilTimeout+0x88>
    }

    /* Check for the Timeout */
    if (Timeout != HAL_MAX_DELAY)
 80057fe:	68bb      	ldr	r3, [r7, #8]
 8005800:	f1b3 3fff 	cmp.w	r3, #4294967295	; 0xffffffff
 8005804:	d028      	beq.n	8005858 <I2C_WaitOnTXEFlagUntilTimeout+0x78>
    {
      if (((HAL_GetTick() - Tickstart) > Timeout) || (Timeout == 0U))
 8005806:	f7fd fb69 	bl	8002edc <HAL_GetTick>
 800580a:	4602      	mov	r2, r0
 800580c:	687b      	ldr	r3, [r7, #4]
 800580e:	1ad3      	subs	r3, r2, r3
 8005810:	68ba      	ldr	r2, [r7, #8]
 8005812:	429a      	cmp	r2, r3
 8005814:	d302      	bcc.n	800581c <I2C_WaitOnTXEFlagUntilTimeout+0x3c>
 8005816:	68bb      	ldr	r3, [r7, #8]
 8005818:	2b00      	cmp	r3, #0
 800581a:	d11d      	bne.n	8005858 <I2C_WaitOnTXEFlagUntilTimeout+0x78>
      {
        if ((__HAL_I2C_GET_FLAG(hi2c, I2C_FLAG_TXE) == RESET))
 800581c:	68fb      	ldr	r3, [r7, #12]
 800581e:	681b      	ldr	r3, [r3, #0]
 8005820:	695b      	ldr	r3, [r3, #20]
 8005822:	f003 0380 	and.w	r3, r3, #128	; 0x80
 8005826:	2b80      	cmp	r3, #128	; 0x80
 8005828:	d016      	beq.n	8005858 <I2C_WaitOnTXEFlagUntilTimeout+0x78>
        {
          hi2c->PreviousState       = I2C_STATE_NONE;
 800582a:	68fb      	ldr	r3, [r7, #12]
 800582c:	2200      	movs	r2, #0
 800582e:	631a      	str	r2, [r3, #48]	; 0x30
          hi2c->State               = HAL_I2C_STATE_READY;
 8005830:	68fb      	ldr	r3, [r7, #12]
 8005832:	2220      	movs	r2, #32
 8005834:	f883 203d 	strb.w	r2, [r3, #61]	; 0x3d
          hi2c->Mode                = HAL_I2C_MODE_NONE;
 8005838:	68fb      	ldr	r3, [r7, #12]
 800583a:	2200      	movs	r2, #0
 800583c:	f883 203e 	strb.w	r2, [r3, #62]	; 0x3e
          hi2c->ErrorCode           |= HAL_I2C_ERROR_TIMEOUT;
 8005840:	68fb      	ldr	r3, [r7, #12]
 8005842:	6c1b      	ldr	r3, [r3, #64]	; 0x40
 8005844:	f043 0220 	orr.w	r2, r3, #32
 8005848:	68fb      	ldr	r3, [r7, #12]
 800584a:	641a      	str	r2, [r3, #64]	; 0x40

          /* Process Unlocked */
          __HAL_UNLOCK(hi2c);
 800584c:	68fb      	ldr	r3, [r7, #12]
 800584e:	2200      	movs	r2, #0
 8005850:	f883 203c 	strb.w	r2, [r3, #60]	; 0x3c

          return HAL_ERROR;
 8005854:	2301      	movs	r3, #1
 8005856:	e007      	b.n	8005868 <I2C_WaitOnTXEFlagUntilTimeout+0x88>
  while (__HAL_I2C_GET_FLAG(hi2c, I2C_FLAG_TXE) == RESET)
 8005858:	68fb      	ldr	r3, [r7, #12]
 800585a:	681b      	ldr	r3, [r3, #0]
 800585c:	695b      	ldr	r3, [r3, #20]
 800585e:	f003 0380 	and.w	r3, r3, #128	; 0x80
 8005862:	2b80      	cmp	r3, #128	; 0x80
 8005864:	d1c3      	bne.n	80057ee <I2C_WaitOnTXEFlagUntilTimeout+0xe>
        }
      }
    }
  }
  return HAL_OK;
 8005866:	2300      	movs	r3, #0
}
 8005868:	4618      	mov	r0, r3
 800586a:	3710      	adds	r7, #16
 800586c:	46bd      	mov	sp, r7
 800586e:	bd80      	pop	{r7, pc}

08005870 <I2C_WaitOnBTFFlagUntilTimeout>:
  * @param  Timeout Timeout duration
  * @param  Tickstart Tick start value
  * @retval HAL status
  */
static HAL_StatusTypeDef I2C_WaitOnBTFFlagUntilTimeout(I2C_HandleTypeDef *hi2c, uint32_t Timeout, uint32_t Tickstart)
{
 8005870:	b580      	push	{r7, lr}
 8005872:	b084      	sub	sp, #16
 8005874:	af00      	add	r7, sp, #0
 8005876:	60f8      	str	r0, [r7, #12]
 8005878:	60b9      	str	r1, [r7, #8]
 800587a:	607a      	str	r2, [r7, #4]
  while (__HAL_I2C_GET_FLAG(hi2c, I2C_FLAG_BTF) == RESET)
 800587c:	e034      	b.n	80058e8 <I2C_WaitOnBTFFlagUntilTimeout+0x78>
  {
    /* Check if a NACK is detected */
    if (I2C_IsAcknowledgeFailed(hi2c) != HAL_OK)
 800587e:	68f8      	ldr	r0, [r7, #12]
 8005880:	f000 f89b 	bl	80059ba <I2C_IsAcknowledgeFailed>
 8005884:	4603      	mov	r3, r0
 8005886:	2b00      	cmp	r3, #0
 8005888:	d001      	beq.n	800588e <I2C_WaitOnBTFFlagUntilTimeout+0x1e>
    {
      return HAL_ERROR;
 800588a:	2301      	movs	r3, #1
 800588c:	e034      	b.n	80058f8 <I2C_WaitOnBTFFlagUntilTimeout+0x88>
    }

    /* Check for the Timeout */
    if (Timeout != HAL_MAX_DELAY)
 800588e:	68bb      	ldr	r3, [r7, #8]
 8005890:	f1b3 3fff 	cmp.w	r3, #4294967295	; 0xffffffff
 8005894:	d028      	beq.n	80058e8 <I2C_WaitOnBTFFlagUntilTimeout+0x78>
    {
      if (((HAL_GetTick() - Tickstart) > Timeout) || (Timeout == 0U))
 8005896:	f7fd fb21 	bl	8002edc <HAL_GetTick>
 800589a:	4602      	mov	r2, r0
 800589c:	687b      	ldr	r3, [r7, #4]
 800589e:	1ad3      	subs	r3, r2, r3
 80058a0:	68ba      	ldr	r2, [r7, #8]
 80058a2:	429a      	cmp	r2, r3
 80058a4:	d302      	bcc.n	80058ac <I2C_WaitOnBTFFlagUntilTimeout+0x3c>
 80058a6:	68bb      	ldr	r3, [r7, #8]
 80058a8:	2b00      	cmp	r3, #0
 80058aa:	d11d      	bne.n	80058e8 <I2C_WaitOnBTFFlagUntilTimeout+0x78>
      {
        if ((__HAL_I2C_GET_FLAG(hi2c, I2C_FLAG_BTF) == RESET))
 80058ac:	68fb      	ldr	r3, [r7, #12]
 80058ae:	681b      	ldr	r3, [r3, #0]
 80058b0:	695b      	ldr	r3, [r3, #20]
 80058b2:	f003 0304 	and.w	r3, r3, #4
 80058b6:	2b04      	cmp	r3, #4
 80058b8:	d016      	beq.n	80058e8 <I2C_WaitOnBTFFlagUntilTimeout+0x78>
        {
          hi2c->PreviousState       = I2C_STATE_NONE;
 80058ba:	68fb      	ldr	r3, [r7, #12]
 80058bc:	2200      	movs	r2, #0
 80058be:	631a      	str	r2, [r3, #48]	; 0x30
          hi2c->State               = HAL_I2C_STATE_READY;
 80058c0:	68fb      	ldr	r3, [r7, #12]
 80058c2:	2220      	movs	r2, #32
 80058c4:	f883 203d 	strb.w	r2, [r3, #61]	; 0x3d
          hi2c->Mode                = HAL_I2C_MODE_NONE;
 80058c8:	68fb      	ldr	r3, [r7, #12]
 80058ca:	2200      	movs	r2, #0
 80058cc:	f883 203e 	strb.w	r2, [r3, #62]	; 0x3e
          hi2c->ErrorCode           |= HAL_I2C_ERROR_TIMEOUT;
 80058d0:	68fb      	ldr	r3, [r7, #12]
 80058d2:	6c1b      	ldr	r3, [r3, #64]	; 0x40
 80058d4:	f043 0220 	orr.w	r2, r3, #32
 80058d8:	68fb      	ldr	r3, [r7, #12]
 80058da:	641a      	str	r2, [r3, #64]	; 0x40

          /* Process Unlocked */
          __HAL_UNLOCK(hi2c);
 80058dc:	68fb      	ldr	r3, [r7, #12]
 80058de:	2200      	movs	r2, #0
 80058e0:	f883 203c 	strb.w	r2, [r3, #60]	; 0x3c

          return HAL_ERROR;
 80058e4:	2301      	movs	r3, #1
 80058e6:	e007      	b.n	80058f8 <I2C_WaitOnBTFFlagUntilTimeout+0x88>
  while (__HAL_I2C_GET_FLAG(hi2c, I2C_FLAG_BTF) == RESET)
 80058e8:	68fb      	ldr	r3, [r7, #12]
 80058ea:	681b      	ldr	r3, [r3, #0]
 80058ec:	695b      	ldr	r3, [r3, #20]
 80058ee:	f003 0304 	and.w	r3, r3, #4
 80058f2:	2b04      	cmp	r3, #4
 80058f4:	d1c3      	bne.n	800587e <I2C_WaitOnBTFFlagUntilTimeout+0xe>
        }
      }
    }
  }
  return HAL_OK;
 80058f6:	2300      	movs	r3, #0
}
 80058f8:	4618      	mov	r0, r3
 80058fa:	3710      	adds	r7, #16
 80058fc:	46bd      	mov	sp, r7
 80058fe:	bd80      	pop	{r7, pc}

08005900 <I2C_WaitOnRXNEFlagUntilTimeout>:
  * @param  Timeout Timeout duration
  * @param  Tickstart Tick start value
  * @retval HAL status
  */
static HAL_StatusTypeDef I2C_WaitOnRXNEFlagUntilTimeout(I2C_HandleTypeDef *hi2c, uint32_t Timeout, uint32_t Tickstart)
{
 8005900:	b580      	push	{r7, lr}
 8005902:	b084      	sub	sp, #16
 8005904:	af00      	add	r7, sp, #0
 8005906:	60f8      	str	r0, [r7, #12]
 8005908:	60b9      	str	r1, [r7, #8]
 800590a:	607a      	str	r2, [r7, #4]

  while (__HAL_I2C_GET_FLAG(hi2c, I2C_FLAG_RXNE) == RESET)
 800590c:	e049      	b.n	80059a2 <I2C_WaitOnRXNEFlagUntilTimeout+0xa2>
  {
    /* Check if a STOPF is detected */
    if (__HAL_I2C_GET_FLAG(hi2c, I2C_FLAG_STOPF) == SET)
 800590e:	68fb      	ldr	r3, [r7, #12]
 8005910:	681b      	ldr	r3, [r3, #0]
 8005912:	695b      	ldr	r3, [r3, #20]
 8005914:	f003 0310 	and.w	r3, r3, #16
 8005918:	2b10      	cmp	r3, #16
 800591a:	d119      	bne.n	8005950 <I2C_WaitOnRXNEFlagUntilTimeout+0x50>
    {
      /* Clear STOP Flag */
      __HAL_I2C_CLEAR_FLAG(hi2c, I2C_FLAG_STOPF);
 800591c:	68fb      	ldr	r3, [r7, #12]
 800591e:	681b      	ldr	r3, [r3, #0]
 8005920:	f06f 0210 	mvn.w	r2, #16
 8005924:	615a      	str	r2, [r3, #20]

      hi2c->PreviousState       = I2C_STATE_NONE;
 8005926:	68fb      	ldr	r3, [r7, #12]
 8005928:	2200      	movs	r2, #0
 800592a:	631a      	str	r2, [r3, #48]	; 0x30
      hi2c->State               = HAL_I2C_STATE_READY;
 800592c:	68fb      	ldr	r3, [r7, #12]
 800592e:	2220      	movs	r2, #32
 8005930:	f883 203d 	strb.w	r2, [r3, #61]	; 0x3d
      hi2c->Mode                = HAL_I2C_MODE_NONE;
 8005934:	68fb      	ldr	r3, [r7, #12]
 8005936:	2200      	movs	r2, #0
 8005938:	f883 203e 	strb.w	r2, [r3, #62]	; 0x3e
      hi2c->ErrorCode           |= HAL_I2C_ERROR_NONE;
 800593c:	68fb      	ldr	r3, [r7, #12]
 800593e:	6c1a      	ldr	r2, [r3, #64]	; 0x40
 8005940:	68fb      	ldr	r3, [r7, #12]
 8005942:	641a      	str	r2, [r3, #64]	; 0x40

      /* Process Unlocked */
      __HAL_UNLOCK(hi2c);
 8005944:	68fb      	ldr	r3, [r7, #12]
 8005946:	2200      	movs	r2, #0
 8005948:	f883 203c 	strb.w	r2, [r3, #60]	; 0x3c

      return HAL_ERROR;
 800594c:	2301      	movs	r3, #1
 800594e:	e030      	b.n	80059b2 <I2C_WaitOnRXNEFlagUntilTimeout+0xb2>
    }

    /* Check for the Timeout */
    if (((HAL_GetTick() - Tickstart) > Timeout) || (Timeout == 0U))
 8005950:	f7fd fac4 	bl	8002edc <HAL_GetTick>
 8005954:	4602      	mov	r2, r0
 8005956:	687b      	ldr	r3, [r7, #4]
 8005958:	1ad3      	subs	r3, r2, r3
 800595a:	68ba      	ldr	r2, [r7, #8]
 800595c:	429a      	cmp	r2, r3
 800595e:	d302      	bcc.n	8005966 <I2C_WaitOnRXNEFlagUntilTimeout+0x66>
 8005960:	68bb      	ldr	r3, [r7, #8]
 8005962:	2b00      	cmp	r3, #0
 8005964:	d11d      	bne.n	80059a2 <I2C_WaitOnRXNEFlagUntilTimeout+0xa2>
    {
      if ((__HAL_I2C_GET_FLAG(hi2c, I2C_FLAG_RXNE) == RESET))
 8005966:	68fb      	ldr	r3, [r7, #12]
 8005968:	681b      	ldr	r3, [r3, #0]
 800596a:	695b      	ldr	r3, [r3, #20]
 800596c:	f003 0340 	and.w	r3, r3, #64	; 0x40
 8005970:	2b40      	cmp	r3, #64	; 0x40
 8005972:	d016      	beq.n	80059a2 <I2C_WaitOnRXNEFlagUntilTimeout+0xa2>
      {
        hi2c->PreviousState       = I2C_STATE_NONE;
 8005974:	68fb      	ldr	r3, [r7, #12]
 8005976:	2200      	movs	r2, #0
 8005978:	631a      	str	r2, [r3, #48]	; 0x30
        hi2c->State               = HAL_I2C_STATE_READY;
 800597a:	68fb      	ldr	r3, [r7, #12]
 800597c:	2220      	movs	r2, #32
 800597e:	f883 203d 	strb.w	r2, [r3, #61]	; 0x3d
        hi2c->Mode                = HAL_I2C_MODE_NONE;
 8005982:	68fb      	ldr	r3, [r7, #12]
 8005984:	2200      	movs	r2, #0
 8005986:	f883 203e 	strb.w	r2, [r3, #62]	; 0x3e
        hi2c->ErrorCode           |= HAL_I2C_ERROR_TIMEOUT;
 800598a:	68fb      	ldr	r3, [r7, #12]
 800598c:	6c1b      	ldr	r3, [r3, #64]	; 0x40
 800598e:	f043 0220 	orr.w	r2, r3, #32
 8005992:	68fb      	ldr	r3, [r7, #12]
 8005994:	641a      	str	r2, [r3, #64]	; 0x40

        /* Process Unlocked */
        __HAL_UNLOCK(hi2c);
 8005996:	68fb      	ldr	r3, [r7, #12]
 8005998:	2200      	movs	r2, #0
 800599a:	f883 203c 	strb.w	r2, [r3, #60]	; 0x3c

        return HAL_ERROR;
 800599e:	2301      	movs	r3, #1
 80059a0:	e007      	b.n	80059b2 <I2C_WaitOnRXNEFlagUntilTimeout+0xb2>
  while (__HAL_I2C_GET_FLAG(hi2c, I2C_FLAG_RXNE) == RESET)
 80059a2:	68fb      	ldr	r3, [r7, #12]
 80059a4:	681b      	ldr	r3, [r3, #0]
 80059a6:	695b      	ldr	r3, [r3, #20]
 80059a8:	f003 0340 	and.w	r3, r3, #64	; 0x40
 80059ac:	2b40      	cmp	r3, #64	; 0x40
 80059ae:	d1ae      	bne.n	800590e <I2C_WaitOnRXNEFlagUntilTimeout+0xe>
      }
    }
  }
  return HAL_OK;
 80059b0:	2300      	movs	r3, #0
}
 80059b2:	4618      	mov	r0, r3
 80059b4:	3710      	adds	r7, #16
 80059b6:	46bd      	mov	sp, r7
 80059b8:	bd80      	pop	{r7, pc}

080059ba <I2C_IsAcknowledgeFailed>:
  * @param  hi2c Pointer to a I2C_HandleTypeDef structure that contains
  *                the configuration information for the specified I2C.
  * @retval HAL status
  */
static HAL_StatusTypeDef I2C_IsAcknowledgeFailed(I2C_HandleTypeDef *hi2c)
{
 80059ba:	b480      	push	{r7}
 80059bc:	b083      	sub	sp, #12
 80059be:	af00      	add	r7, sp, #0
 80059c0:	6078      	str	r0, [r7, #4]
  if (__HAL_I2C_GET_FLAG(hi2c, I2C_FLAG_AF) == SET)
 80059c2:	687b      	ldr	r3, [r7, #4]
 80059c4:	681b      	ldr	r3, [r3, #0]
 80059c6:	695b      	ldr	r3, [r3, #20]
 80059c8:	f403 6380 	and.w	r3, r3, #1024	; 0x400
 80059cc:	f5b3 6f80 	cmp.w	r3, #1024	; 0x400
 80059d0:	d11b      	bne.n	8005a0a <I2C_IsAcknowledgeFailed+0x50>
  {
    /* Clear NACKF Flag */
    __HAL_I2C_CLEAR_FLAG(hi2c, I2C_FLAG_AF);
 80059d2:	687b      	ldr	r3, [r7, #4]
 80059d4:	681b      	ldr	r3, [r3, #0]
 80059d6:	f46f 6280 	mvn.w	r2, #1024	; 0x400
 80059da:	615a      	str	r2, [r3, #20]

    hi2c->PreviousState       = I2C_STATE_NONE;
 80059dc:	687b      	ldr	r3, [r7, #4]
 80059de:	2200      	movs	r2, #0
 80059e0:	631a      	str	r2, [r3, #48]	; 0x30
    hi2c->State               = HAL_I2C_STATE_READY;
 80059e2:	687b      	ldr	r3, [r7, #4]
 80059e4:	2220      	movs	r2, #32
 80059e6:	f883 203d 	strb.w	r2, [r3, #61]	; 0x3d
    hi2c->Mode                = HAL_I2C_MODE_NONE;
 80059ea:	687b      	ldr	r3, [r7, #4]
 80059ec:	2200      	movs	r2, #0
 80059ee:	f883 203e 	strb.w	r2, [r3, #62]	; 0x3e
    hi2c->ErrorCode           |= HAL_I2C_ERROR_AF;
 80059f2:	687b      	ldr	r3, [r7, #4]
 80059f4:	6c1b      	ldr	r3, [r3, #64]	; 0x40
 80059f6:	f043 0204 	orr.w	r2, r3, #4
 80059fa:	687b      	ldr	r3, [r7, #4]
 80059fc:	641a      	str	r2, [r3, #64]	; 0x40

    /* Process Unlocked */
    __HAL_UNLOCK(hi2c);
 80059fe:	687b      	ldr	r3, [r7, #4]
 8005a00:	2200      	movs	r2, #0
 8005a02:	f883 203c 	strb.w	r2, [r3, #60]	; 0x3c

    return HAL_ERROR;
 8005a06:	2301      	movs	r3, #1
 8005a08:	e000      	b.n	8005a0c <I2C_IsAcknowledgeFailed+0x52>
  }
  return HAL_OK;
 8005a0a:	2300      	movs	r3, #0
}
 8005a0c:	4618      	mov	r0, r3
 8005a0e:	370c      	adds	r7, #12
 8005a10:	46bd      	mov	sp, r7
 8005a12:	f85d 7b04 	ldr.w	r7, [sp], #4
 8005a16:	4770      	bx	lr

08005a18 <HAL_I2CEx_ConfigAnalogFilter>:
  *                the configuration information for the specified I2Cx peripheral.
  * @param  AnalogFilter new state of the Analog filter.
  * @retval HAL status
  */
HAL_StatusTypeDef HAL_I2CEx_ConfigAnalogFilter(I2C_HandleTypeDef *hi2c, uint32_t AnalogFilter)
{
 8005a18:	b480      	push	{r7}
 8005a1a:	b083      	sub	sp, #12
 8005a1c:	af00      	add	r7, sp, #0
 8005a1e:	6078      	str	r0, [r7, #4]
 8005a20:	6039      	str	r1, [r7, #0]
  /* Check the parameters */
  assert_param(IS_I2C_ALL_INSTANCE(hi2c->Instance));
  assert_param(IS_I2C_ANALOG_FILTER(AnalogFilter));

  if (hi2c->State == HAL_I2C_STATE_READY)
 8005a22:	687b      	ldr	r3, [r7, #4]
 8005a24:	f893 303d 	ldrb.w	r3, [r3, #61]	; 0x3d
 8005a28:	b2db      	uxtb	r3, r3
 8005a2a:	2b20      	cmp	r3, #32
 8005a2c:	d129      	bne.n	8005a82 <HAL_I2CEx_ConfigAnalogFilter+0x6a>
  {
    hi2c->State = HAL_I2C_STATE_BUSY;
 8005a2e:	687b      	ldr	r3, [r7, #4]
 8005a30:	2224      	movs	r2, #36	; 0x24
 8005a32:	f883 203d 	strb.w	r2, [r3, #61]	; 0x3d

    /* Disable the selected I2C peripheral */
    __HAL_I2C_DISABLE(hi2c);
 8005a36:	687b      	ldr	r3, [r7, #4]
 8005a38:	681b      	ldr	r3, [r3, #0]
 8005a3a:	681a      	ldr	r2, [r3, #0]
 8005a3c:	687b      	ldr	r3, [r7, #4]
 8005a3e:	681b      	ldr	r3, [r3, #0]
 8005a40:	f022 0201 	bic.w	r2, r2, #1
 8005a44:	601a      	str	r2, [r3, #0]

    /* Reset I2Cx ANOFF bit */
    hi2c->Instance->FLTR &= ~(I2C_FLTR_ANOFF);
 8005a46:	687b      	ldr	r3, [r7, #4]
 8005a48:	681b      	ldr	r3, [r3, #0]
 8005a4a:	6a5a      	ldr	r2, [r3, #36]	; 0x24
 8005a4c:	687b      	ldr	r3, [r7, #4]
 8005a4e:	681b      	ldr	r3, [r3, #0]
 8005a50:	f022 0210 	bic.w	r2, r2, #16
 8005a54:	625a      	str	r2, [r3, #36]	; 0x24

    /* Disable the analog filter */
    hi2c->Instance->FLTR |= AnalogFilter;
 8005a56:	687b      	ldr	r3, [r7, #4]
 8005a58:	681b      	ldr	r3, [r3, #0]
 8005a5a:	6a59      	ldr	r1, [r3, #36]	; 0x24
 8005a5c:	687b      	ldr	r3, [r7, #4]
 8005a5e:	681b      	ldr	r3, [r3, #0]
 8005a60:	683a      	ldr	r2, [r7, #0]
 8005a62:	430a      	orrs	r2, r1
 8005a64:	625a      	str	r2, [r3, #36]	; 0x24

    __HAL_I2C_ENABLE(hi2c);
 8005a66:	687b      	ldr	r3, [r7, #4]
 8005a68:	681b      	ldr	r3, [r3, #0]
 8005a6a:	681a      	ldr	r2, [r3, #0]
 8005a6c:	687b      	ldr	r3, [r7, #4]
 8005a6e:	681b      	ldr	r3, [r3, #0]
 8005a70:	f042 0201 	orr.w	r2, r2, #1
 8005a74:	601a      	str	r2, [r3, #0]

    hi2c->State = HAL_I2C_STATE_READY;
 8005a76:	687b      	ldr	r3, [r7, #4]
 8005a78:	2220      	movs	r2, #32
 8005a7a:	f883 203d 	strb.w	r2, [r3, #61]	; 0x3d

    return HAL_OK;
 8005a7e:	2300      	movs	r3, #0
 8005a80:	e000      	b.n	8005a84 <HAL_I2CEx_ConfigAnalogFilter+0x6c>
  }
  else
  {
    return HAL_BUSY;
 8005a82:	2302      	movs	r3, #2
  }
}
 8005a84:	4618      	mov	r0, r3
 8005a86:	370c      	adds	r7, #12
 8005a88:	46bd      	mov	sp, r7
 8005a8a:	f85d 7b04 	ldr.w	r7, [sp], #4
 8005a8e:	4770      	bx	lr

08005a90 <HAL_I2CEx_ConfigDigitalFilter>:
  *                the configuration information for the specified I2Cx peripheral.
  * @param  DigitalFilter Coefficient of digital noise filter between 0x00 and 0x0F.
  * @retval HAL status
  */
HAL_StatusTypeDef HAL_I2CEx_ConfigDigitalFilter(I2C_HandleTypeDef *hi2c, uint32_t DigitalFilter)
{
 8005a90:	b480      	push	{r7}
 8005a92:	b085      	sub	sp, #20
 8005a94:	af00      	add	r7, sp, #0
 8005a96:	6078      	str	r0, [r7, #4]
 8005a98:	6039      	str	r1, [r7, #0]
  uint16_t tmpreg = 0;
 8005a9a:	2300      	movs	r3, #0
 8005a9c:	81fb      	strh	r3, [r7, #14]

  /* Check the parameters */
  assert_param(IS_I2C_ALL_INSTANCE(hi2c->Instance));
  assert_param(IS_I2C_DIGITAL_FILTER(DigitalFilter));

  if (hi2c->State == HAL_I2C_STATE_READY)
 8005a9e:	687b      	ldr	r3, [r7, #4]
 8005aa0:	f893 303d 	ldrb.w	r3, [r3, #61]	; 0x3d
 8005aa4:	b2db      	uxtb	r3, r3
 8005aa6:	2b20      	cmp	r3, #32
 8005aa8:	d12a      	bne.n	8005b00 <HAL_I2CEx_ConfigDigitalFilter+0x70>
  {
    hi2c->State = HAL_I2C_STATE_BUSY;
 8005aaa:	687b      	ldr	r3, [r7, #4]
 8005aac:	2224      	movs	r2, #36	; 0x24
 8005aae:	f883 203d 	strb.w	r2, [r3, #61]	; 0x3d

    /* Disable the selected I2C peripheral */
    __HAL_I2C_DISABLE(hi2c);
 8005ab2:	687b      	ldr	r3, [r7, #4]
 8005ab4:	681b      	ldr	r3, [r3, #0]
 8005ab6:	681a      	ldr	r2, [r3, #0]
 8005ab8:	687b      	ldr	r3, [r7, #4]
 8005aba:	681b      	ldr	r3, [r3, #0]
 8005abc:	f022 0201 	bic.w	r2, r2, #1
 8005ac0:	601a      	str	r2, [r3, #0]

    /* Get the old register value */
    tmpreg = hi2c->Instance->FLTR;
 8005ac2:	687b      	ldr	r3, [r7, #4]
 8005ac4:	681b      	ldr	r3, [r3, #0]
 8005ac6:	6a5b      	ldr	r3, [r3, #36]	; 0x24
 8005ac8:	81fb      	strh	r3, [r7, #14]

    /* Reset I2Cx DNF bit [3:0] */
    tmpreg &= ~(I2C_FLTR_DNF);
 8005aca:	89fb      	ldrh	r3, [r7, #14]
 8005acc:	f023 030f 	bic.w	r3, r3, #15
 8005ad0:	81fb      	strh	r3, [r7, #14]

    /* Set I2Cx DNF coefficient */
    tmpreg |= DigitalFilter;
 8005ad2:	683b      	ldr	r3, [r7, #0]
 8005ad4:	b29a      	uxth	r2, r3
 8005ad6:	89fb      	ldrh	r3, [r7, #14]
 8005ad8:	4313      	orrs	r3, r2
 8005ada:	81fb      	strh	r3, [r7, #14]

    /* Store the new register value */
    hi2c->Instance->FLTR = tmpreg;
 8005adc:	687b      	ldr	r3, [r7, #4]
 8005ade:	681b      	ldr	r3, [r3, #0]
 8005ae0:	89fa      	ldrh	r2, [r7, #14]
 8005ae2:	625a      	str	r2, [r3, #36]	; 0x24

    __HAL_I2C_ENABLE(hi2c);
 8005ae4:	687b      	ldr	r3, [r7, #4]
 8005ae6:	681b      	ldr	r3, [r3, #0]
 8005ae8:	681a      	ldr	r2, [r3, #0]
 8005aea:	687b      	ldr	r3, [r7, #4]
 8005aec:	681b      	ldr	r3, [r3, #0]
 8005aee:	f042 0201 	orr.w	r2, r2, #1
 8005af2:	601a      	str	r2, [r3, #0]

    hi2c->State = HAL_I2C_STATE_READY;
 8005af4:	687b      	ldr	r3, [r7, #4]
 8005af6:	2220      	movs	r2, #32
 8005af8:	f883 203d 	strb.w	r2, [r3, #61]	; 0x3d

    return HAL_OK;
 8005afc:	2300      	movs	r3, #0
 8005afe:	e000      	b.n	8005b02 <HAL_I2CEx_ConfigDigitalFilter+0x72>
  }
  else
  {
    return HAL_BUSY;
 8005b00:	2302      	movs	r3, #2
  }
}
 8005b02:	4618      	mov	r0, r3
 8005b04:	3714      	adds	r7, #20
 8005b06:	46bd      	mov	sp, r7
 8005b08:	f85d 7b04 	ldr.w	r7, [sp], #4
 8005b0c:	4770      	bx	lr
	...

08005b10 <HAL_RCC_OscConfig>:
  *         supported by this API. User should request a transition to HSE Off
  *         first and then HSE On or HSE Bypass.
  * @retval HAL status
  */
__weak HAL_StatusTypeDef HAL_RCC_OscConfig(RCC_OscInitTypeDef  *RCC_OscInitStruct)
{
 8005b10:	b580      	push	{r7, lr}
 8005b12:	b086      	sub	sp, #24
 8005b14:	af00      	add	r7, sp, #0
 8005b16:	6078      	str	r0, [r7, #4]
  uint32_t tickstart, pll_config;

  /* Check Null pointer */
  if(RCC_OscInitStruct == NULL)
 8005b18:	687b      	ldr	r3, [r7, #4]
 8005b1a:	2b00      	cmp	r3, #0
 8005b1c:	d101      	bne.n	8005b22 <HAL_RCC_OscConfig+0x12>
  {
    return HAL_ERROR;
 8005b1e:	2301      	movs	r3, #1
 8005b20:	e267      	b.n	8005ff2 <HAL_RCC_OscConfig+0x4e2>
  }

  /* Check the parameters */
  assert_param(IS_RCC_OSCILLATORTYPE(RCC_OscInitStruct->OscillatorType));
  /*------------------------------- HSE Configuration ------------------------*/
  if(((RCC_OscInitStruct->OscillatorType) & RCC_OSCILLATORTYPE_HSE) == RCC_OSCILLATORTYPE_HSE)
 8005b22:	687b      	ldr	r3, [r7, #4]
 8005b24:	681b      	ldr	r3, [r3, #0]
 8005b26:	f003 0301 	and.w	r3, r3, #1
 8005b2a:	2b00      	cmp	r3, #0
 8005b2c:	d075      	beq.n	8005c1a <HAL_RCC_OscConfig+0x10a>
  {
    /* Check the parameters */
    assert_param(IS_RCC_HSE(RCC_OscInitStruct->HSEState));
    /* When the HSE is used as system clock or clock source for PLL in these cases HSE will not disabled */
    if((__HAL_RCC_GET_SYSCLK_SOURCE() == RCC_CFGR_SWS_HSE) ||\
 8005b2e:	4b88      	ldr	r3, [pc, #544]	; (8005d50 <HAL_RCC_OscConfig+0x240>)
 8005b30:	689b      	ldr	r3, [r3, #8]
 8005b32:	f003 030c 	and.w	r3, r3, #12
 8005b36:	2b04      	cmp	r3, #4
 8005b38:	d00c      	beq.n	8005b54 <HAL_RCC_OscConfig+0x44>
      ((__HAL_RCC_GET_SYSCLK_SOURCE() == RCC_CFGR_SWS_PLL) && ((RCC->PLLCFGR & RCC_PLLCFGR_PLLSRC) == RCC_PLLCFGR_PLLSRC_HSE)))
 8005b3a:	4b85      	ldr	r3, [pc, #532]	; (8005d50 <HAL_RCC_OscConfig+0x240>)
 8005b3c:	689b      	ldr	r3, [r3, #8]
 8005b3e:	f003 030c 	and.w	r3, r3, #12
    if((__HAL_RCC_GET_SYSCLK_SOURCE() == RCC_CFGR_SWS_HSE) ||\
 8005b42:	2b08      	cmp	r3, #8
 8005b44:	d112      	bne.n	8005b6c <HAL_RCC_OscConfig+0x5c>
      ((__HAL_RCC_GET_SYSCLK_SOURCE() == RCC_CFGR_SWS_PLL) && ((RCC->PLLCFGR & RCC_PLLCFGR_PLLSRC) == RCC_PLLCFGR_PLLSRC_HSE)))
 8005b46:	4b82      	ldr	r3, [pc, #520]	; (8005d50 <HAL_RCC_OscConfig+0x240>)
 8005b48:	685b      	ldr	r3, [r3, #4]
 8005b4a:	f403 0380 	and.w	r3, r3, #4194304	; 0x400000
 8005b4e:	f5b3 0f80 	cmp.w	r3, #4194304	; 0x400000
 8005b52:	d10b      	bne.n	8005b6c <HAL_RCC_OscConfig+0x5c>
    {
      if((__HAL_RCC_GET_FLAG(RCC_FLAG_HSERDY) != RESET) && (RCC_OscInitStruct->HSEState == RCC_HSE_OFF))
 8005b54:	4b7e      	ldr	r3, [pc, #504]	; (8005d50 <HAL_RCC_OscConfig+0x240>)
 8005b56:	681b      	ldr	r3, [r3, #0]
 8005b58:	f403 3300 	and.w	r3, r3, #131072	; 0x20000
 8005b5c:	2b00      	cmp	r3, #0
 8005b5e:	d05b      	beq.n	8005c18 <HAL_RCC_OscConfig+0x108>
 8005b60:	687b      	ldr	r3, [r7, #4]
 8005b62:	685b      	ldr	r3, [r3, #4]
 8005b64:	2b00      	cmp	r3, #0
 8005b66:	d157      	bne.n	8005c18 <HAL_RCC_OscConfig+0x108>
      {
        return HAL_ERROR;
 8005b68:	2301      	movs	r3, #1
 8005b6a:	e242      	b.n	8005ff2 <HAL_RCC_OscConfig+0x4e2>
      }
    }
    else
    {
      /* Set the new HSE configuration ---------------------------------------*/
      __HAL_RCC_HSE_CONFIG(RCC_OscInitStruct->HSEState);
 8005b6c:	687b      	ldr	r3, [r7, #4]
 8005b6e:	685b      	ldr	r3, [r3, #4]
 8005b70:	f5b3 3f80 	cmp.w	r3, #65536	; 0x10000
 8005b74:	d106      	bne.n	8005b84 <HAL_RCC_OscConfig+0x74>
 8005b76:	4b76      	ldr	r3, [pc, #472]	; (8005d50 <HAL_RCC_OscConfig+0x240>)
 8005b78:	681b      	ldr	r3, [r3, #0]
 8005b7a:	4a75      	ldr	r2, [pc, #468]	; (8005d50 <HAL_RCC_OscConfig+0x240>)
 8005b7c:	f443 3380 	orr.w	r3, r3, #65536	; 0x10000
 8005b80:	6013      	str	r3, [r2, #0]
 8005b82:	e01d      	b.n	8005bc0 <HAL_RCC_OscConfig+0xb0>
 8005b84:	687b      	ldr	r3, [r7, #4]
 8005b86:	685b      	ldr	r3, [r3, #4]
 8005b88:	f5b3 2fa0 	cmp.w	r3, #327680	; 0x50000
 8005b8c:	d10c      	bne.n	8005ba8 <HAL_RCC_OscConfig+0x98>
 8005b8e:	4b70      	ldr	r3, [pc, #448]	; (8005d50 <HAL_RCC_OscConfig+0x240>)
 8005b90:	681b      	ldr	r3, [r3, #0]
 8005b92:	4a6f      	ldr	r2, [pc, #444]	; (8005d50 <HAL_RCC_OscConfig+0x240>)
 8005b94:	f443 2380 	orr.w	r3, r3, #262144	; 0x40000
 8005b98:	6013      	str	r3, [r2, #0]
 8005b9a:	4b6d      	ldr	r3, [pc, #436]	; (8005d50 <HAL_RCC_OscConfig+0x240>)
 8005b9c:	681b      	ldr	r3, [r3, #0]
 8005b9e:	4a6c      	ldr	r2, [pc, #432]	; (8005d50 <HAL_RCC_OscConfig+0x240>)
 8005ba0:	f443 3380 	orr.w	r3, r3, #65536	; 0x10000
 8005ba4:	6013      	str	r3, [r2, #0]
 8005ba6:	e00b      	b.n	8005bc0 <HAL_RCC_OscConfig+0xb0>
 8005ba8:	4b69      	ldr	r3, [pc, #420]	; (8005d50 <HAL_RCC_OscConfig+0x240>)
 8005baa:	681b      	ldr	r3, [r3, #0]
 8005bac:	4a68      	ldr	r2, [pc, #416]	; (8005d50 <HAL_RCC_OscConfig+0x240>)
 8005bae:	f423 3380 	bic.w	r3, r3, #65536	; 0x10000
 8005bb2:	6013      	str	r3, [r2, #0]
 8005bb4:	4b66      	ldr	r3, [pc, #408]	; (8005d50 <HAL_RCC_OscConfig+0x240>)
 8005bb6:	681b      	ldr	r3, [r3, #0]
 8005bb8:	4a65      	ldr	r2, [pc, #404]	; (8005d50 <HAL_RCC_OscConfig+0x240>)
 8005bba:	f423 2380 	bic.w	r3, r3, #262144	; 0x40000
 8005bbe:	6013      	str	r3, [r2, #0]

      /* Check the HSE State */
      if((RCC_OscInitStruct->HSEState) != RCC_HSE_OFF)
 8005bc0:	687b      	ldr	r3, [r7, #4]
 8005bc2:	685b      	ldr	r3, [r3, #4]
 8005bc4:	2b00      	cmp	r3, #0
 8005bc6:	d013      	beq.n	8005bf0 <HAL_RCC_OscConfig+0xe0>
      {
        /* Get Start Tick */
        tickstart = HAL_GetTick();
 8005bc8:	f7fd f988 	bl	8002edc <HAL_GetTick>
 8005bcc:	6138      	str	r0, [r7, #16]

        /* Wait till HSE is ready */
        while(__HAL_RCC_GET_FLAG(RCC_FLAG_HSERDY) == RESET)
 8005bce:	e008      	b.n	8005be2 <HAL_RCC_OscConfig+0xd2>
        {
          if((HAL_GetTick() - tickstart ) > HSE_TIMEOUT_VALUE)
 8005bd0:	f7fd f984 	bl	8002edc <HAL_GetTick>
 8005bd4:	4602      	mov	r2, r0
 8005bd6:	693b      	ldr	r3, [r7, #16]
 8005bd8:	1ad3      	subs	r3, r2, r3
 8005bda:	2b64      	cmp	r3, #100	; 0x64
 8005bdc:	d901      	bls.n	8005be2 <HAL_RCC_OscConfig+0xd2>
          {
            return HAL_TIMEOUT;
 8005bde:	2303      	movs	r3, #3
 8005be0:	e207      	b.n	8005ff2 <HAL_RCC_OscConfig+0x4e2>
        while(__HAL_RCC_GET_FLAG(RCC_FLAG_HSERDY) == RESET)
 8005be2:	4b5b      	ldr	r3, [pc, #364]	; (8005d50 <HAL_RCC_OscConfig+0x240>)
 8005be4:	681b      	ldr	r3, [r3, #0]
 8005be6:	f403 3300 	and.w	r3, r3, #131072	; 0x20000
 8005bea:	2b00      	cmp	r3, #0
 8005bec:	d0f0      	beq.n	8005bd0 <HAL_RCC_OscConfig+0xc0>
 8005bee:	e014      	b.n	8005c1a <HAL_RCC_OscConfig+0x10a>
        }
      }
      else
      {
        /* Get Start Tick */
        tickstart = HAL_GetTick();
 8005bf0:	f7fd f974 	bl	8002edc <HAL_GetTick>
 8005bf4:	6138      	str	r0, [r7, #16]

        /* Wait till HSE is bypassed or disabled */
        while(__HAL_RCC_GET_FLAG(RCC_FLAG_HSERDY) != RESET)
 8005bf6:	e008      	b.n	8005c0a <HAL_RCC_OscConfig+0xfa>
        {
          if((HAL_GetTick() - tickstart ) > HSE_TIMEOUT_VALUE)
 8005bf8:	f7fd f970 	bl	8002edc <HAL_GetTick>
 8005bfc:	4602      	mov	r2, r0
 8005bfe:	693b      	ldr	r3, [r7, #16]
 8005c00:	1ad3      	subs	r3, r2, r3
 8005c02:	2b64      	cmp	r3, #100	; 0x64
 8005c04:	d901      	bls.n	8005c0a <HAL_RCC_OscConfig+0xfa>
          {
            return HAL_TIMEOUT;
 8005c06:	2303      	movs	r3, #3
 8005c08:	e1f3      	b.n	8005ff2 <HAL_RCC_OscConfig+0x4e2>
        while(__HAL_RCC_GET_FLAG(RCC_FLAG_HSERDY) != RESET)
 8005c0a:	4b51      	ldr	r3, [pc, #324]	; (8005d50 <HAL_RCC_OscConfig+0x240>)
 8005c0c:	681b      	ldr	r3, [r3, #0]
 8005c0e:	f403 3300 	and.w	r3, r3, #131072	; 0x20000
 8005c12:	2b00      	cmp	r3, #0
 8005c14:	d1f0      	bne.n	8005bf8 <HAL_RCC_OscConfig+0xe8>
 8005c16:	e000      	b.n	8005c1a <HAL_RCC_OscConfig+0x10a>
      if((__HAL_RCC_GET_FLAG(RCC_FLAG_HSERDY) != RESET) && (RCC_OscInitStruct->HSEState == RCC_HSE_OFF))
 8005c18:	bf00      	nop
        }
      }
    }
  }
  /*----------------------------- HSI Configuration --------------------------*/
  if(((RCC_OscInitStruct->OscillatorType) & RCC_OSCILLATORTYPE_HSI) == RCC_OSCILLATORTYPE_HSI)
 8005c1a:	687b      	ldr	r3, [r7, #4]
 8005c1c:	681b      	ldr	r3, [r3, #0]
 8005c1e:	f003 0302 	and.w	r3, r3, #2
 8005c22:	2b00      	cmp	r3, #0
 8005c24:	d063      	beq.n	8005cee <HAL_RCC_OscConfig+0x1de>
    /* Check the parameters */
    assert_param(IS_RCC_HSI(RCC_OscInitStruct->HSIState));
    assert_param(IS_RCC_CALIBRATION_VALUE(RCC_OscInitStruct->HSICalibrationValue));

    /* Check if HSI is used as system clock or as PLL source when PLL is selected as system clock */
    if((__HAL_RCC_GET_SYSCLK_SOURCE() == RCC_CFGR_SWS_HSI) ||\
 8005c26:	4b4a      	ldr	r3, [pc, #296]	; (8005d50 <HAL_RCC_OscConfig+0x240>)
 8005c28:	689b      	ldr	r3, [r3, #8]
 8005c2a:	f003 030c 	and.w	r3, r3, #12
 8005c2e:	2b00      	cmp	r3, #0
 8005c30:	d00b      	beq.n	8005c4a <HAL_RCC_OscConfig+0x13a>
      ((__HAL_RCC_GET_SYSCLK_SOURCE() == RCC_CFGR_SWS_PLL) && ((RCC->PLLCFGR & RCC_PLLCFGR_PLLSRC) == RCC_PLLCFGR_PLLSRC_HSI)))
 8005c32:	4b47      	ldr	r3, [pc, #284]	; (8005d50 <HAL_RCC_OscConfig+0x240>)
 8005c34:	689b      	ldr	r3, [r3, #8]
 8005c36:	f003 030c 	and.w	r3, r3, #12
    if((__HAL_RCC_GET_SYSCLK_SOURCE() == RCC_CFGR_SWS_HSI) ||\
 8005c3a:	2b08      	cmp	r3, #8
 8005c3c:	d11c      	bne.n	8005c78 <HAL_RCC_OscConfig+0x168>
      ((__HAL_RCC_GET_SYSCLK_SOURCE() == RCC_CFGR_SWS_PLL) && ((RCC->PLLCFGR & RCC_PLLCFGR_PLLSRC) == RCC_PLLCFGR_PLLSRC_HSI)))
 8005c3e:	4b44      	ldr	r3, [pc, #272]	; (8005d50 <HAL_RCC_OscConfig+0x240>)
 8005c40:	685b      	ldr	r3, [r3, #4]
 8005c42:	f403 0380 	and.w	r3, r3, #4194304	; 0x400000
 8005c46:	2b00      	cmp	r3, #0
 8005c48:	d116      	bne.n	8005c78 <HAL_RCC_OscConfig+0x168>
    {
      /* When HSI is used as system clock it will not disabled */
      if((__HAL_RCC_GET_FLAG(RCC_FLAG_HSIRDY) != RESET) && (RCC_OscInitStruct->HSIState != RCC_HSI_ON))
 8005c4a:	4b41      	ldr	r3, [pc, #260]	; (8005d50 <HAL_RCC_OscConfig+0x240>)
 8005c4c:	681b      	ldr	r3, [r3, #0]
 8005c4e:	f003 0302 	and.w	r3, r3, #2
 8005c52:	2b00      	cmp	r3, #0
 8005c54:	d005      	beq.n	8005c62 <HAL_RCC_OscConfig+0x152>
 8005c56:	687b      	ldr	r3, [r7, #4]
 8005c58:	68db      	ldr	r3, [r3, #12]
 8005c5a:	2b01      	cmp	r3, #1
 8005c5c:	d001      	beq.n	8005c62 <HAL_RCC_OscConfig+0x152>
      {
        return HAL_ERROR;
 8005c5e:	2301      	movs	r3, #1
 8005c60:	e1c7      	b.n	8005ff2 <HAL_RCC_OscConfig+0x4e2>
      }
      /* Otherwise, just the calibration is allowed */
      else
      {
        /* Adjusts the Internal High Speed oscillator (HSI) calibration value.*/
        __HAL_RCC_HSI_CALIBRATIONVALUE_ADJUST(RCC_OscInitStruct->HSICalibrationValue);
 8005c62:	4b3b      	ldr	r3, [pc, #236]	; (8005d50 <HAL_RCC_OscConfig+0x240>)
 8005c64:	681b      	ldr	r3, [r3, #0]
 8005c66:	f023 02f8 	bic.w	r2, r3, #248	; 0xf8
 8005c6a:	687b      	ldr	r3, [r7, #4]
 8005c6c:	691b      	ldr	r3, [r3, #16]
 8005c6e:	00db      	lsls	r3, r3, #3
 8005c70:	4937      	ldr	r1, [pc, #220]	; (8005d50 <HAL_RCC_OscConfig+0x240>)
 8005c72:	4313      	orrs	r3, r2
 8005c74:	600b      	str	r3, [r1, #0]
      if((__HAL_RCC_GET_FLAG(RCC_FLAG_HSIRDY) != RESET) && (RCC_OscInitStruct->HSIState != RCC_HSI_ON))
 8005c76:	e03a      	b.n	8005cee <HAL_RCC_OscConfig+0x1de>
      }
    }
    else
    {
      /* Check the HSI State */
      if((RCC_OscInitStruct->HSIState)!= RCC_HSI_OFF)
 8005c78:	687b      	ldr	r3, [r7, #4]
 8005c7a:	68db      	ldr	r3, [r3, #12]
 8005c7c:	2b00      	cmp	r3, #0
 8005c7e:	d020      	beq.n	8005cc2 <HAL_RCC_OscConfig+0x1b2>
      {
        /* Enable the Internal High Speed oscillator (HSI). */
        __HAL_RCC_HSI_ENABLE();
 8005c80:	4b34      	ldr	r3, [pc, #208]	; (8005d54 <HAL_RCC_OscConfig+0x244>)
 8005c82:	2201      	movs	r2, #1
 8005c84:	601a      	str	r2, [r3, #0]

        /* Get Start Tick*/
        tickstart = HAL_GetTick();
 8005c86:	f7fd f929 	bl	8002edc <HAL_GetTick>
 8005c8a:	6138      	str	r0, [r7, #16]

        /* Wait till HSI is ready */
        while(__HAL_RCC_GET_FLAG(RCC_FLAG_HSIRDY) == RESET)
 8005c8c:	e008      	b.n	8005ca0 <HAL_RCC_OscConfig+0x190>
        {
          if((HAL_GetTick() - tickstart ) > HSI_TIMEOUT_VALUE)
 8005c8e:	f7fd f925 	bl	8002edc <HAL_GetTick>
 8005c92:	4602      	mov	r2, r0
 8005c94:	693b      	ldr	r3, [r7, #16]
 8005c96:	1ad3      	subs	r3, r2, r3
 8005c98:	2b02      	cmp	r3, #2
 8005c9a:	d901      	bls.n	8005ca0 <HAL_RCC_OscConfig+0x190>
          {
            return HAL_TIMEOUT;
 8005c9c:	2303      	movs	r3, #3
 8005c9e:	e1a8      	b.n	8005ff2 <HAL_RCC_OscConfig+0x4e2>
        while(__HAL_RCC_GET_FLAG(RCC_FLAG_HSIRDY) == RESET)
 8005ca0:	4b2b      	ldr	r3, [pc, #172]	; (8005d50 <HAL_RCC_OscConfig+0x240>)
 8005ca2:	681b      	ldr	r3, [r3, #0]
 8005ca4:	f003 0302 	and.w	r3, r3, #2
 8005ca8:	2b00      	cmp	r3, #0
 8005caa:	d0f0      	beq.n	8005c8e <HAL_RCC_OscConfig+0x17e>
          }
        }

        /* Adjusts the Internal High Speed oscillator (HSI) calibration value. */
        __HAL_RCC_HSI_CALIBRATIONVALUE_ADJUST(RCC_OscInitStruct->HSICalibrationValue);
 8005cac:	4b28      	ldr	r3, [pc, #160]	; (8005d50 <HAL_RCC_OscConfig+0x240>)
 8005cae:	681b      	ldr	r3, [r3, #0]
 8005cb0:	f023 02f8 	bic.w	r2, r3, #248	; 0xf8
 8005cb4:	687b      	ldr	r3, [r7, #4]
 8005cb6:	691b      	ldr	r3, [r3, #16]
 8005cb8:	00db      	lsls	r3, r3, #3
 8005cba:	4925      	ldr	r1, [pc, #148]	; (8005d50 <HAL_RCC_OscConfig+0x240>)
 8005cbc:	4313      	orrs	r3, r2
 8005cbe:	600b      	str	r3, [r1, #0]
 8005cc0:	e015      	b.n	8005cee <HAL_RCC_OscConfig+0x1de>
      }
      else
      {
        /* Disable the Internal High Speed oscillator (HSI). */
        __HAL_RCC_HSI_DISABLE();
 8005cc2:	4b24      	ldr	r3, [pc, #144]	; (8005d54 <HAL_RCC_OscConfig+0x244>)
 8005cc4:	2200      	movs	r2, #0
 8005cc6:	601a      	str	r2, [r3, #0]

        /* Get Start Tick*/
        tickstart = HAL_GetTick();
 8005cc8:	f7fd f908 	bl	8002edc <HAL_GetTick>
 8005ccc:	6138      	str	r0, [r7, #16]

        /* Wait till HSI is ready */
        while(__HAL_RCC_GET_FLAG(RCC_FLAG_HSIRDY) != RESET)
 8005cce:	e008      	b.n	8005ce2 <HAL_RCC_OscConfig+0x1d2>
        {
          if((HAL_GetTick() - tickstart ) > HSI_TIMEOUT_VALUE)
 8005cd0:	f7fd f904 	bl	8002edc <HAL_GetTick>
 8005cd4:	4602      	mov	r2, r0
 8005cd6:	693b      	ldr	r3, [r7, #16]
 8005cd8:	1ad3      	subs	r3, r2, r3
 8005cda:	2b02      	cmp	r3, #2
 8005cdc:	d901      	bls.n	8005ce2 <HAL_RCC_OscConfig+0x1d2>
          {
            return HAL_TIMEOUT;
 8005cde:	2303      	movs	r3, #3
 8005ce0:	e187      	b.n	8005ff2 <HAL_RCC_OscConfig+0x4e2>
        while(__HAL_RCC_GET_FLAG(RCC_FLAG_HSIRDY) != RESET)
 8005ce2:	4b1b      	ldr	r3, [pc, #108]	; (8005d50 <HAL_RCC_OscConfig+0x240>)
 8005ce4:	681b      	ldr	r3, [r3, #0]
 8005ce6:	f003 0302 	and.w	r3, r3, #2
 8005cea:	2b00      	cmp	r3, #0
 8005cec:	d1f0      	bne.n	8005cd0 <HAL_RCC_OscConfig+0x1c0>
        }
      }
    }
  }
  /*------------------------------ LSI Configuration -------------------------*/
  if(((RCC_OscInitStruct->OscillatorType) & RCC_OSCILLATORTYPE_LSI) == RCC_OSCILLATORTYPE_LSI)
 8005cee:	687b      	ldr	r3, [r7, #4]
 8005cf0:	681b      	ldr	r3, [r3, #0]
 8005cf2:	f003 0308 	and.w	r3, r3, #8
 8005cf6:	2b00      	cmp	r3, #0
 8005cf8:	d036      	beq.n	8005d68 <HAL_RCC_OscConfig+0x258>
  {
    /* Check the parameters */
    assert_param(IS_RCC_LSI(RCC_OscInitStruct->LSIState));

    /* Check the LSI State */
    if((RCC_OscInitStruct->LSIState)!= RCC_LSI_OFF)
 8005cfa:	687b      	ldr	r3, [r7, #4]
 8005cfc:	695b      	ldr	r3, [r3, #20]
 8005cfe:	2b00      	cmp	r3, #0
 8005d00:	d016      	beq.n	8005d30 <HAL_RCC_OscConfig+0x220>
    {
      /* Enable the Internal Low Speed oscillator (LSI). */
      __HAL_RCC_LSI_ENABLE();
 8005d02:	4b15      	ldr	r3, [pc, #84]	; (8005d58 <HAL_RCC_OscConfig+0x248>)
 8005d04:	2201      	movs	r2, #1
 8005d06:	601a      	str	r2, [r3, #0]

      /* Get Start Tick*/
      tickstart = HAL_GetTick();
 8005d08:	f7fd f8e8 	bl	8002edc <HAL_GetTick>
 8005d0c:	6138      	str	r0, [r7, #16]

      /* Wait till LSI is ready */
      while(__HAL_RCC_GET_FLAG(RCC_FLAG_LSIRDY) == RESET)
 8005d0e:	e008      	b.n	8005d22 <HAL_RCC_OscConfig+0x212>
      {
        if((HAL_GetTick() - tickstart ) > LSI_TIMEOUT_VALUE)
 8005d10:	f7fd f8e4 	bl	8002edc <HAL_GetTick>
 8005d14:	4602      	mov	r2, r0
 8005d16:	693b      	ldr	r3, [r7, #16]
 8005d18:	1ad3      	subs	r3, r2, r3
 8005d1a:	2b02      	cmp	r3, #2
 8005d1c:	d901      	bls.n	8005d22 <HAL_RCC_OscConfig+0x212>
        {
          return HAL_TIMEOUT;
 8005d1e:	2303      	movs	r3, #3
 8005d20:	e167      	b.n	8005ff2 <HAL_RCC_OscConfig+0x4e2>
      while(__HAL_RCC_GET_FLAG(RCC_FLAG_LSIRDY) == RESET)
 8005d22:	4b0b      	ldr	r3, [pc, #44]	; (8005d50 <HAL_RCC_OscConfig+0x240>)
 8005d24:	6f5b      	ldr	r3, [r3, #116]	; 0x74
 8005d26:	f003 0302 	and.w	r3, r3, #2
 8005d2a:	2b00      	cmp	r3, #0
 8005d2c:	d0f0      	beq.n	8005d10 <HAL_RCC_OscConfig+0x200>
 8005d2e:	e01b      	b.n	8005d68 <HAL_RCC_OscConfig+0x258>
      }
    }
    else
    {
      /* Disable the Internal Low Speed oscillator (LSI). */
      __HAL_RCC_LSI_DISABLE();
 8005d30:	4b09      	ldr	r3, [pc, #36]	; (8005d58 <HAL_RCC_OscConfig+0x248>)
 8005d32:	2200      	movs	r2, #0
 8005d34:	601a      	str	r2, [r3, #0]

      /* Get Start Tick */
      tickstart = HAL_GetTick();
 8005d36:	f7fd f8d1 	bl	8002edc <HAL_GetTick>
 8005d3a:	6138      	str	r0, [r7, #16]

      /* Wait till LSI is ready */
      while(__HAL_RCC_GET_FLAG(RCC_FLAG_LSIRDY) != RESET)
 8005d3c:	e00e      	b.n	8005d5c <HAL_RCC_OscConfig+0x24c>
      {
        if((HAL_GetTick() - tickstart ) > LSI_TIMEOUT_VALUE)
 8005d3e:	f7fd f8cd 	bl	8002edc <HAL_GetTick>
 8005d42:	4602      	mov	r2, r0
 8005d44:	693b      	ldr	r3, [r7, #16]
 8005d46:	1ad3      	subs	r3, r2, r3
 8005d48:	2b02      	cmp	r3, #2
 8005d4a:	d907      	bls.n	8005d5c <HAL_RCC_OscConfig+0x24c>
        {
          return HAL_TIMEOUT;
 8005d4c:	2303      	movs	r3, #3
 8005d4e:	e150      	b.n	8005ff2 <HAL_RCC_OscConfig+0x4e2>
 8005d50:	40023800 	.word	0x40023800
 8005d54:	42470000 	.word	0x42470000
 8005d58:	42470e80 	.word	0x42470e80
      while(__HAL_RCC_GET_FLAG(RCC_FLAG_LSIRDY) != RESET)
 8005d5c:	4b88      	ldr	r3, [pc, #544]	; (8005f80 <HAL_RCC_OscConfig+0x470>)
 8005d5e:	6f5b      	ldr	r3, [r3, #116]	; 0x74
 8005d60:	f003 0302 	and.w	r3, r3, #2
 8005d64:	2b00      	cmp	r3, #0
 8005d66:	d1ea      	bne.n	8005d3e <HAL_RCC_OscConfig+0x22e>
        }
      }
    }
  }
  /*------------------------------ LSE Configuration -------------------------*/
  if(((RCC_OscInitStruct->OscillatorType) & RCC_OSCILLATORTYPE_LSE) == RCC_OSCILLATORTYPE_LSE)
 8005d68:	687b      	ldr	r3, [r7, #4]
 8005d6a:	681b      	ldr	r3, [r3, #0]
 8005d6c:	f003 0304 	and.w	r3, r3, #4
 8005d70:	2b00      	cmp	r3, #0
 8005d72:	f000 8097 	beq.w	8005ea4 <HAL_RCC_OscConfig+0x394>
  {
    FlagStatus       pwrclkchanged = RESET;
 8005d76:	2300      	movs	r3, #0
 8005d78:	75fb      	strb	r3, [r7, #23]
    /* Check the parameters */
    assert_param(IS_RCC_LSE(RCC_OscInitStruct->LSEState));

    /* Update LSE configuration in Backup Domain control register    */
    /* Requires to enable write access to Backup Domain of necessary */
    if(__HAL_RCC_PWR_IS_CLK_DISABLED())
 8005d7a:	4b81      	ldr	r3, [pc, #516]	; (8005f80 <HAL_RCC_OscConfig+0x470>)
 8005d7c:	6c1b      	ldr	r3, [r3, #64]	; 0x40
 8005d7e:	f003 5380 	and.w	r3, r3, #268435456	; 0x10000000
 8005d82:	2b00      	cmp	r3, #0
 8005d84:	d10f      	bne.n	8005da6 <HAL_RCC_OscConfig+0x296>
    {
      __HAL_RCC_PWR_CLK_ENABLE();
 8005d86:	2300      	movs	r3, #0
 8005d88:	60bb      	str	r3, [r7, #8]
 8005d8a:	4b7d      	ldr	r3, [pc, #500]	; (8005f80 <HAL_RCC_OscConfig+0x470>)
 8005d8c:	6c1b      	ldr	r3, [r3, #64]	; 0x40
 8005d8e:	4a7c      	ldr	r2, [pc, #496]	; (8005f80 <HAL_RCC_OscConfig+0x470>)
 8005d90:	f043 5380 	orr.w	r3, r3, #268435456	; 0x10000000
 8005d94:	6413      	str	r3, [r2, #64]	; 0x40
 8005d96:	4b7a      	ldr	r3, [pc, #488]	; (8005f80 <HAL_RCC_OscConfig+0x470>)
 8005d98:	6c1b      	ldr	r3, [r3, #64]	; 0x40
 8005d9a:	f003 5380 	and.w	r3, r3, #268435456	; 0x10000000
 8005d9e:	60bb      	str	r3, [r7, #8]
 8005da0:	68bb      	ldr	r3, [r7, #8]
      pwrclkchanged = SET;
 8005da2:	2301      	movs	r3, #1
 8005da4:	75fb      	strb	r3, [r7, #23]
    }

    if(HAL_IS_BIT_CLR(PWR->CR, PWR_CR_DBP))
 8005da6:	4b77      	ldr	r3, [pc, #476]	; (8005f84 <HAL_RCC_OscConfig+0x474>)
 8005da8:	681b      	ldr	r3, [r3, #0]
 8005daa:	f403 7380 	and.w	r3, r3, #256	; 0x100
 8005dae:	2b00      	cmp	r3, #0
 8005db0:	d118      	bne.n	8005de4 <HAL_RCC_OscConfig+0x2d4>
    {
      /* Enable write access to Backup domain */
      SET_BIT(PWR->CR, PWR_CR_DBP);
 8005db2:	4b74      	ldr	r3, [pc, #464]	; (8005f84 <HAL_RCC_OscConfig+0x474>)
 8005db4:	681b      	ldr	r3, [r3, #0]
 8005db6:	4a73      	ldr	r2, [pc, #460]	; (8005f84 <HAL_RCC_OscConfig+0x474>)
 8005db8:	f443 7380 	orr.w	r3, r3, #256	; 0x100
 8005dbc:	6013      	str	r3, [r2, #0]

      /* Wait for Backup domain Write protection disable */
      tickstart = HAL_GetTick();
 8005dbe:	f7fd f88d 	bl	8002edc <HAL_GetTick>
 8005dc2:	6138      	str	r0, [r7, #16]

      while(HAL_IS_BIT_CLR(PWR->CR, PWR_CR_DBP))
 8005dc4:	e008      	b.n	8005dd8 <HAL_RCC_OscConfig+0x2c8>
      {
        if((HAL_GetTick() - tickstart) > RCC_DBP_TIMEOUT_VALUE)
 8005dc6:	f7fd f889 	bl	8002edc <HAL_GetTick>
 8005dca:	4602      	mov	r2, r0
 8005dcc:	693b      	ldr	r3, [r7, #16]
 8005dce:	1ad3      	subs	r3, r2, r3
 8005dd0:	2b02      	cmp	r3, #2
 8005dd2:	d901      	bls.n	8005dd8 <HAL_RCC_OscConfig+0x2c8>
        {
          return HAL_TIMEOUT;
 8005dd4:	2303      	movs	r3, #3
 8005dd6:	e10c      	b.n	8005ff2 <HAL_RCC_OscConfig+0x4e2>
      while(HAL_IS_BIT_CLR(PWR->CR, PWR_CR_DBP))
 8005dd8:	4b6a      	ldr	r3, [pc, #424]	; (8005f84 <HAL_RCC_OscConfig+0x474>)
 8005dda:	681b      	ldr	r3, [r3, #0]
 8005ddc:	f403 7380 	and.w	r3, r3, #256	; 0x100
 8005de0:	2b00      	cmp	r3, #0
 8005de2:	d0f0      	beq.n	8005dc6 <HAL_RCC_OscConfig+0x2b6>
        }
      }
    }

    /* Set the new LSE configuration -----------------------------------------*/
    __HAL_RCC_LSE_CONFIG(RCC_OscInitStruct->LSEState);
 8005de4:	687b      	ldr	r3, [r7, #4]
 8005de6:	689b      	ldr	r3, [r3, #8]
 8005de8:	2b01      	cmp	r3, #1
 8005dea:	d106      	bne.n	8005dfa <HAL_RCC_OscConfig+0x2ea>
 8005dec:	4b64      	ldr	r3, [pc, #400]	; (8005f80 <HAL_RCC_OscConfig+0x470>)
 8005dee:	6f1b      	ldr	r3, [r3, #112]	; 0x70
 8005df0:	4a63      	ldr	r2, [pc, #396]	; (8005f80 <HAL_RCC_OscConfig+0x470>)
 8005df2:	f043 0301 	orr.w	r3, r3, #1
 8005df6:	6713      	str	r3, [r2, #112]	; 0x70
 8005df8:	e01c      	b.n	8005e34 <HAL_RCC_OscConfig+0x324>
 8005dfa:	687b      	ldr	r3, [r7, #4]
 8005dfc:	689b      	ldr	r3, [r3, #8]
 8005dfe:	2b05      	cmp	r3, #5
 8005e00:	d10c      	bne.n	8005e1c <HAL_RCC_OscConfig+0x30c>
 8005e02:	4b5f      	ldr	r3, [pc, #380]	; (8005f80 <HAL_RCC_OscConfig+0x470>)
 8005e04:	6f1b      	ldr	r3, [r3, #112]	; 0x70
 8005e06:	4a5e      	ldr	r2, [pc, #376]	; (8005f80 <HAL_RCC_OscConfig+0x470>)
 8005e08:	f043 0304 	orr.w	r3, r3, #4
 8005e0c:	6713      	str	r3, [r2, #112]	; 0x70
 8005e0e:	4b5c      	ldr	r3, [pc, #368]	; (8005f80 <HAL_RCC_OscConfig+0x470>)
 8005e10:	6f1b      	ldr	r3, [r3, #112]	; 0x70
 8005e12:	4a5b      	ldr	r2, [pc, #364]	; (8005f80 <HAL_RCC_OscConfig+0x470>)
 8005e14:	f043 0301 	orr.w	r3, r3, #1
 8005e18:	6713      	str	r3, [r2, #112]	; 0x70
 8005e1a:	e00b      	b.n	8005e34 <HAL_RCC_OscConfig+0x324>
 8005e1c:	4b58      	ldr	r3, [pc, #352]	; (8005f80 <HAL_RCC_OscConfig+0x470>)
 8005e1e:	6f1b      	ldr	r3, [r3, #112]	; 0x70
 8005e20:	4a57      	ldr	r2, [pc, #348]	; (8005f80 <HAL_RCC_OscConfig+0x470>)
 8005e22:	f023 0301 	bic.w	r3, r3, #1
 8005e26:	6713      	str	r3, [r2, #112]	; 0x70
 8005e28:	4b55      	ldr	r3, [pc, #340]	; (8005f80 <HAL_RCC_OscConfig+0x470>)
 8005e2a:	6f1b      	ldr	r3, [r3, #112]	; 0x70
 8005e2c:	4a54      	ldr	r2, [pc, #336]	; (8005f80 <HAL_RCC_OscConfig+0x470>)
 8005e2e:	f023 0304 	bic.w	r3, r3, #4
 8005e32:	6713      	str	r3, [r2, #112]	; 0x70
    /* Check the LSE State */
    if((RCC_OscInitStruct->LSEState) != RCC_LSE_OFF)
 8005e34:	687b      	ldr	r3, [r7, #4]
 8005e36:	689b      	ldr	r3, [r3, #8]
 8005e38:	2b00      	cmp	r3, #0
 8005e3a:	d015      	beq.n	8005e68 <HAL_RCC_OscConfig+0x358>
    {
      /* Get Start Tick*/
      tickstart = HAL_GetTick();
 8005e3c:	f7fd f84e 	bl	8002edc <HAL_GetTick>
 8005e40:	6138      	str	r0, [r7, #16]

      /* Wait till LSE is ready */
      while(__HAL_RCC_GET_FLAG(RCC_FLAG_LSERDY) == RESET)
 8005e42:	e00a      	b.n	8005e5a <HAL_RCC_OscConfig+0x34a>
      {
        if((HAL_GetTick() - tickstart ) > RCC_LSE_TIMEOUT_VALUE)
 8005e44:	f7fd f84a 	bl	8002edc <HAL_GetTick>
 8005e48:	4602      	mov	r2, r0
 8005e4a:	693b      	ldr	r3, [r7, #16]
 8005e4c:	1ad3      	subs	r3, r2, r3
 8005e4e:	f241 3288 	movw	r2, #5000	; 0x1388
 8005e52:	4293      	cmp	r3, r2
 8005e54:	d901      	bls.n	8005e5a <HAL_RCC_OscConfig+0x34a>
        {
          return HAL_TIMEOUT;
 8005e56:	2303      	movs	r3, #3
 8005e58:	e0cb      	b.n	8005ff2 <HAL_RCC_OscConfig+0x4e2>
      while(__HAL_RCC_GET_FLAG(RCC_FLAG_LSERDY) == RESET)
 8005e5a:	4b49      	ldr	r3, [pc, #292]	; (8005f80 <HAL_RCC_OscConfig+0x470>)
 8005e5c:	6f1b      	ldr	r3, [r3, #112]	; 0x70
 8005e5e:	f003 0302 	and.w	r3, r3, #2
 8005e62:	2b00      	cmp	r3, #0
 8005e64:	d0ee      	beq.n	8005e44 <HAL_RCC_OscConfig+0x334>
 8005e66:	e014      	b.n	8005e92 <HAL_RCC_OscConfig+0x382>
      }
    }
    else
    {
      /* Get Start Tick */
      tickstart = HAL_GetTick();
 8005e68:	f7fd f838 	bl	8002edc <HAL_GetTick>
 8005e6c:	6138      	str	r0, [r7, #16]

      /* Wait till LSE is ready */
      while(__HAL_RCC_GET_FLAG(RCC_FLAG_LSERDY) != RESET)
 8005e6e:	e00a      	b.n	8005e86 <HAL_RCC_OscConfig+0x376>
      {
        if((HAL_GetTick() - tickstart ) > RCC_LSE_TIMEOUT_VALUE)
 8005e70:	f7fd f834 	bl	8002edc <HAL_GetTick>
 8005e74:	4602      	mov	r2, r0
 8005e76:	693b      	ldr	r3, [r7, #16]
 8005e78:	1ad3      	subs	r3, r2, r3
 8005e7a:	f241 3288 	movw	r2, #5000	; 0x1388
 8005e7e:	4293      	cmp	r3, r2
 8005e80:	d901      	bls.n	8005e86 <HAL_RCC_OscConfig+0x376>
        {
          return HAL_TIMEOUT;
 8005e82:	2303      	movs	r3, #3
 8005e84:	e0b5      	b.n	8005ff2 <HAL_RCC_OscConfig+0x4e2>
      while(__HAL_RCC_GET_FLAG(RCC_FLAG_LSERDY) != RESET)
 8005e86:	4b3e      	ldr	r3, [pc, #248]	; (8005f80 <HAL_RCC_OscConfig+0x470>)
 8005e88:	6f1b      	ldr	r3, [r3, #112]	; 0x70
 8005e8a:	f003 0302 	and.w	r3, r3, #2
 8005e8e:	2b00      	cmp	r3, #0
 8005e90:	d1ee      	bne.n	8005e70 <HAL_RCC_OscConfig+0x360>
        }
      }
    }

    /* Restore clock configuration if changed */
    if(pwrclkchanged == SET)
 8005e92:	7dfb      	ldrb	r3, [r7, #23]
 8005e94:	2b01      	cmp	r3, #1
 8005e96:	d105      	bne.n	8005ea4 <HAL_RCC_OscConfig+0x394>
    {
      __HAL_RCC_PWR_CLK_DISABLE();
 8005e98:	4b39      	ldr	r3, [pc, #228]	; (8005f80 <HAL_RCC_OscConfig+0x470>)
 8005e9a:	6c1b      	ldr	r3, [r3, #64]	; 0x40
 8005e9c:	4a38      	ldr	r2, [pc, #224]	; (8005f80 <HAL_RCC_OscConfig+0x470>)
 8005e9e:	f023 5380 	bic.w	r3, r3, #268435456	; 0x10000000
 8005ea2:	6413      	str	r3, [r2, #64]	; 0x40
    }
  }
  /*-------------------------------- PLL Configuration -----------------------*/
  /* Check the parameters */
  assert_param(IS_RCC_PLL(RCC_OscInitStruct->PLL.PLLState));
  if ((RCC_OscInitStruct->PLL.PLLState) != RCC_PLL_NONE)
 8005ea4:	687b      	ldr	r3, [r7, #4]
 8005ea6:	699b      	ldr	r3, [r3, #24]
 8005ea8:	2b00      	cmp	r3, #0
 8005eaa:	f000 80a1 	beq.w	8005ff0 <HAL_RCC_OscConfig+0x4e0>
  {
    /* Check if the PLL is used as system clock or not */
    if(__HAL_RCC_GET_SYSCLK_SOURCE() != RCC_CFGR_SWS_PLL)
 8005eae:	4b34      	ldr	r3, [pc, #208]	; (8005f80 <HAL_RCC_OscConfig+0x470>)
 8005eb0:	689b      	ldr	r3, [r3, #8]
 8005eb2:	f003 030c 	and.w	r3, r3, #12
 8005eb6:	2b08      	cmp	r3, #8
 8005eb8:	d05c      	beq.n	8005f74 <HAL_RCC_OscConfig+0x464>
    {
      if((RCC_OscInitStruct->PLL.PLLState) == RCC_PLL_ON)
 8005eba:	687b      	ldr	r3, [r7, #4]
 8005ebc:	699b      	ldr	r3, [r3, #24]
 8005ebe:	2b02      	cmp	r3, #2
 8005ec0:	d141      	bne.n	8005f46 <HAL_RCC_OscConfig+0x436>
        assert_param(IS_RCC_PLLN_VALUE(RCC_OscInitStruct->PLL.PLLN));
        assert_param(IS_RCC_PLLP_VALUE(RCC_OscInitStruct->PLL.PLLP));
        assert_param(IS_RCC_PLLQ_VALUE(RCC_OscInitStruct->PLL.PLLQ));

        /* Disable the main PLL. */
        __HAL_RCC_PLL_DISABLE();
 8005ec2:	4b31      	ldr	r3, [pc, #196]	; (8005f88 <HAL_RCC_OscConfig+0x478>)
 8005ec4:	2200      	movs	r2, #0
 8005ec6:	601a      	str	r2, [r3, #0]

        /* Get Start Tick */
        tickstart = HAL_GetTick();
 8005ec8:	f7fd f808 	bl	8002edc <HAL_GetTick>
 8005ecc:	6138      	str	r0, [r7, #16]

        /* Wait till PLL is disabled */
        while(__HAL_RCC_GET_FLAG(RCC_FLAG_PLLRDY) != RESET)
 8005ece:	e008      	b.n	8005ee2 <HAL_RCC_OscConfig+0x3d2>
        {
          if((HAL_GetTick() - tickstart ) > PLL_TIMEOUT_VALUE)
 8005ed0:	f7fd f804 	bl	8002edc <HAL_GetTick>
 8005ed4:	4602      	mov	r2, r0
 8005ed6:	693b      	ldr	r3, [r7, #16]
 8005ed8:	1ad3      	subs	r3, r2, r3
 8005eda:	2b02      	cmp	r3, #2
 8005edc:	d901      	bls.n	8005ee2 <HAL_RCC_OscConfig+0x3d2>
          {
            return HAL_TIMEOUT;
 8005ede:	2303      	movs	r3, #3
 8005ee0:	e087      	b.n	8005ff2 <HAL_RCC_OscConfig+0x4e2>
        while(__HAL_RCC_GET_FLAG(RCC_FLAG_PLLRDY) != RESET)
 8005ee2:	4b27      	ldr	r3, [pc, #156]	; (8005f80 <HAL_RCC_OscConfig+0x470>)
 8005ee4:	681b      	ldr	r3, [r3, #0]
 8005ee6:	f003 7300 	and.w	r3, r3, #33554432	; 0x2000000
 8005eea:	2b00      	cmp	r3, #0
 8005eec:	d1f0      	bne.n	8005ed0 <HAL_RCC_OscConfig+0x3c0>
          }
        }

        /* Configure the main PLL clock source, multiplication and division factors. */
        WRITE_REG(RCC->PLLCFGR, (RCC_OscInitStruct->PLL.PLLSource                                            | \
 8005eee:	687b      	ldr	r3, [r7, #4]
 8005ef0:	69da      	ldr	r2, [r3, #28]
 8005ef2:	687b      	ldr	r3, [r7, #4]
 8005ef4:	6a1b      	ldr	r3, [r3, #32]
 8005ef6:	431a      	orrs	r2, r3
 8005ef8:	687b      	ldr	r3, [r7, #4]
 8005efa:	6a5b      	ldr	r3, [r3, #36]	; 0x24
 8005efc:	019b      	lsls	r3, r3, #6
 8005efe:	431a      	orrs	r2, r3
 8005f00:	687b      	ldr	r3, [r7, #4]
 8005f02:	6a9b      	ldr	r3, [r3, #40]	; 0x28
 8005f04:	085b      	lsrs	r3, r3, #1
 8005f06:	3b01      	subs	r3, #1
 8005f08:	041b      	lsls	r3, r3, #16
 8005f0a:	431a      	orrs	r2, r3
 8005f0c:	687b      	ldr	r3, [r7, #4]
 8005f0e:	6adb      	ldr	r3, [r3, #44]	; 0x2c
 8005f10:	061b      	lsls	r3, r3, #24
 8005f12:	491b      	ldr	r1, [pc, #108]	; (8005f80 <HAL_RCC_OscConfig+0x470>)
 8005f14:	4313      	orrs	r3, r2
 8005f16:	604b      	str	r3, [r1, #4]
                                 RCC_OscInitStruct->PLL.PLLM                                                 | \
                                 (RCC_OscInitStruct->PLL.PLLN << RCC_PLLCFGR_PLLN_Pos)             | \
                                 (((RCC_OscInitStruct->PLL.PLLP >> 1U) - 1U) << RCC_PLLCFGR_PLLP_Pos) | \
                                 (RCC_OscInitStruct->PLL.PLLQ << RCC_PLLCFGR_PLLQ_Pos)));
        /* Enable the main PLL. */
        __HAL_RCC_PLL_ENABLE();
 8005f18:	4b1b      	ldr	r3, [pc, #108]	; (8005f88 <HAL_RCC_OscConfig+0x478>)
 8005f1a:	2201      	movs	r2, #1
 8005f1c:	601a      	str	r2, [r3, #0]

        /* Get Start Tick */
        tickstart = HAL_GetTick();
 8005f1e:	f7fc ffdd 	bl	8002edc <HAL_GetTick>
 8005f22:	6138      	str	r0, [r7, #16]

        /* Wait till PLL is ready */
        while(__HAL_RCC_GET_FLAG(RCC_FLAG_PLLRDY) == RESET)
 8005f24:	e008      	b.n	8005f38 <HAL_RCC_OscConfig+0x428>
        {
          if((HAL_GetTick() - tickstart ) > PLL_TIMEOUT_VALUE)
 8005f26:	f7fc ffd9 	bl	8002edc <HAL_GetTick>
 8005f2a:	4602      	mov	r2, r0
 8005f2c:	693b      	ldr	r3, [r7, #16]
 8005f2e:	1ad3      	subs	r3, r2, r3
 8005f30:	2b02      	cmp	r3, #2
 8005f32:	d901      	bls.n	8005f38 <HAL_RCC_OscConfig+0x428>
          {
            return HAL_TIMEOUT;
 8005f34:	2303      	movs	r3, #3
 8005f36:	e05c      	b.n	8005ff2 <HAL_RCC_OscConfig+0x4e2>
        while(__HAL_RCC_GET_FLAG(RCC_FLAG_PLLRDY) == RESET)
 8005f38:	4b11      	ldr	r3, [pc, #68]	; (8005f80 <HAL_RCC_OscConfig+0x470>)
 8005f3a:	681b      	ldr	r3, [r3, #0]
 8005f3c:	f003 7300 	and.w	r3, r3, #33554432	; 0x2000000
 8005f40:	2b00      	cmp	r3, #0
 8005f42:	d0f0      	beq.n	8005f26 <HAL_RCC_OscConfig+0x416>
 8005f44:	e054      	b.n	8005ff0 <HAL_RCC_OscConfig+0x4e0>
        }
      }
      else
      {
        /* Disable the main PLL. */
        __HAL_RCC_PLL_DISABLE();
 8005f46:	4b10      	ldr	r3, [pc, #64]	; (8005f88 <HAL_RCC_OscConfig+0x478>)
 8005f48:	2200      	movs	r2, #0
 8005f4a:	601a      	str	r2, [r3, #0]

        /* Get Start Tick */
        tickstart = HAL_GetTick();
 8005f4c:	f7fc ffc6 	bl	8002edc <HAL_GetTick>
 8005f50:	6138      	str	r0, [r7, #16]

        /* Wait till PLL is disabled */
        while(__HAL_RCC_GET_FLAG(RCC_FLAG_PLLRDY) != RESET)
 8005f52:	e008      	b.n	8005f66 <HAL_RCC_OscConfig+0x456>
        {
          if((HAL_GetTick() - tickstart ) > PLL_TIMEOUT_VALUE)
 8005f54:	f7fc ffc2 	bl	8002edc <HAL_GetTick>
 8005f58:	4602      	mov	r2, r0
 8005f5a:	693b      	ldr	r3, [r7, #16]
 8005f5c:	1ad3      	subs	r3, r2, r3
 8005f5e:	2b02      	cmp	r3, #2
 8005f60:	d901      	bls.n	8005f66 <HAL_RCC_OscConfig+0x456>
          {
            return HAL_TIMEOUT;
 8005f62:	2303      	movs	r3, #3
 8005f64:	e045      	b.n	8005ff2 <HAL_RCC_OscConfig+0x4e2>
        while(__HAL_RCC_GET_FLAG(RCC_FLAG_PLLRDY) != RESET)
 8005f66:	4b06      	ldr	r3, [pc, #24]	; (8005f80 <HAL_RCC_OscConfig+0x470>)
 8005f68:	681b      	ldr	r3, [r3, #0]
 8005f6a:	f003 7300 	and.w	r3, r3, #33554432	; 0x2000000
 8005f6e:	2b00      	cmp	r3, #0
 8005f70:	d1f0      	bne.n	8005f54 <HAL_RCC_OscConfig+0x444>
 8005f72:	e03d      	b.n	8005ff0 <HAL_RCC_OscConfig+0x4e0>
      }
    }
    else
    {
      /* Check if there is a request to disable the PLL used as System clock source */
      if((RCC_OscInitStruct->PLL.PLLState) == RCC_PLL_OFF)
 8005f74:	687b      	ldr	r3, [r7, #4]
 8005f76:	699b      	ldr	r3, [r3, #24]
 8005f78:	2b01      	cmp	r3, #1
 8005f7a:	d107      	bne.n	8005f8c <HAL_RCC_OscConfig+0x47c>
      {
        return HAL_ERROR;
 8005f7c:	2301      	movs	r3, #1
 8005f7e:	e038      	b.n	8005ff2 <HAL_RCC_OscConfig+0x4e2>
 8005f80:	40023800 	.word	0x40023800
 8005f84:	40007000 	.word	0x40007000
 8005f88:	42470060 	.word	0x42470060
      }
      else
      {
        /* Do not return HAL_ERROR if request repeats the current configuration */
        pll_config = RCC->PLLCFGR;
 8005f8c:	4b1b      	ldr	r3, [pc, #108]	; (8005ffc <HAL_RCC_OscConfig+0x4ec>)
 8005f8e:	685b      	ldr	r3, [r3, #4]
 8005f90:	60fb      	str	r3, [r7, #12]
            (READ_BIT(pll_config, RCC_PLLCFGR_PLLN) != (RCC_OscInitStruct->PLL.PLLN) << RCC_PLLCFGR_PLLN_Pos) ||
            (READ_BIT(pll_config, RCC_PLLCFGR_PLLP) != (((RCC_OscInitStruct->PLL.PLLP >> 1U) - 1U)) << RCC_PLLCFGR_PLLP_Pos) ||
            (READ_BIT(pll_config, RCC_PLLCFGR_PLLQ) != (RCC_OscInitStruct->PLL.PLLQ << RCC_PLLCFGR_PLLQ_Pos)) ||
            (READ_BIT(pll_config, RCC_PLLCFGR_PLLR) != (RCC_OscInitStruct->PLL.PLLR << RCC_PLLCFGR_PLLR_Pos)))
#else
        if (((RCC_OscInitStruct->PLL.PLLState) == RCC_PLL_OFF) ||
 8005f92:	687b      	ldr	r3, [r7, #4]
 8005f94:	699b      	ldr	r3, [r3, #24]
 8005f96:	2b01      	cmp	r3, #1
 8005f98:	d028      	beq.n	8005fec <HAL_RCC_OscConfig+0x4dc>
            (READ_BIT(pll_config, RCC_PLLCFGR_PLLSRC) != RCC_OscInitStruct->PLL.PLLSource) ||
 8005f9a:	68fb      	ldr	r3, [r7, #12]
 8005f9c:	f403 0280 	and.w	r2, r3, #4194304	; 0x400000
 8005fa0:	687b      	ldr	r3, [r7, #4]
 8005fa2:	69db      	ldr	r3, [r3, #28]
        if (((RCC_OscInitStruct->PLL.PLLState) == RCC_PLL_OFF) ||
 8005fa4:	429a      	cmp	r2, r3
 8005fa6:	d121      	bne.n	8005fec <HAL_RCC_OscConfig+0x4dc>
            (READ_BIT(pll_config, RCC_PLLCFGR_PLLM) != (RCC_OscInitStruct->PLL.PLLM) << RCC_PLLCFGR_PLLM_Pos) ||
 8005fa8:	68fb      	ldr	r3, [r7, #12]
 8005faa:	f003 023f 	and.w	r2, r3, #63	; 0x3f
 8005fae:	687b      	ldr	r3, [r7, #4]
 8005fb0:	6a1b      	ldr	r3, [r3, #32]
            (READ_BIT(pll_config, RCC_PLLCFGR_PLLSRC) != RCC_OscInitStruct->PLL.PLLSource) ||
 8005fb2:	429a      	cmp	r2, r3
 8005fb4:	d11a      	bne.n	8005fec <HAL_RCC_OscConfig+0x4dc>
            (READ_BIT(pll_config, RCC_PLLCFGR_PLLN) != (RCC_OscInitStruct->PLL.PLLN) << RCC_PLLCFGR_PLLN_Pos) ||
 8005fb6:	68fa      	ldr	r2, [r7, #12]
 8005fb8:	f647 73c0 	movw	r3, #32704	; 0x7fc0
 8005fbc:	4013      	ands	r3, r2
 8005fbe:	687a      	ldr	r2, [r7, #4]
 8005fc0:	6a52      	ldr	r2, [r2, #36]	; 0x24
 8005fc2:	0192      	lsls	r2, r2, #6
            (READ_BIT(pll_config, RCC_PLLCFGR_PLLM) != (RCC_OscInitStruct->PLL.PLLM) << RCC_PLLCFGR_PLLM_Pos) ||
 8005fc4:	4293      	cmp	r3, r2
 8005fc6:	d111      	bne.n	8005fec <HAL_RCC_OscConfig+0x4dc>
            (READ_BIT(pll_config, RCC_PLLCFGR_PLLP) != (((RCC_OscInitStruct->PLL.PLLP >> 1U) - 1U)) << RCC_PLLCFGR_PLLP_Pos) ||
 8005fc8:	68fb      	ldr	r3, [r7, #12]
 8005fca:	f403 3240 	and.w	r2, r3, #196608	; 0x30000
 8005fce:	687b      	ldr	r3, [r7, #4]
 8005fd0:	6a9b      	ldr	r3, [r3, #40]	; 0x28
 8005fd2:	085b      	lsrs	r3, r3, #1
 8005fd4:	3b01      	subs	r3, #1
 8005fd6:	041b      	lsls	r3, r3, #16
            (READ_BIT(pll_config, RCC_PLLCFGR_PLLN) != (RCC_OscInitStruct->PLL.PLLN) << RCC_PLLCFGR_PLLN_Pos) ||
 8005fd8:	429a      	cmp	r2, r3
 8005fda:	d107      	bne.n	8005fec <HAL_RCC_OscConfig+0x4dc>
            (READ_BIT(pll_config, RCC_PLLCFGR_PLLQ) != (RCC_OscInitStruct->PLL.PLLQ << RCC_PLLCFGR_PLLQ_Pos)))
 8005fdc:	68fb      	ldr	r3, [r7, #12]
 8005fde:	f003 6270 	and.w	r2, r3, #251658240	; 0xf000000
 8005fe2:	687b      	ldr	r3, [r7, #4]
 8005fe4:	6adb      	ldr	r3, [r3, #44]	; 0x2c
 8005fe6:	061b      	lsls	r3, r3, #24
            (READ_BIT(pll_config, RCC_PLLCFGR_PLLP) != (((RCC_OscInitStruct->PLL.PLLP >> 1U) - 1U)) << RCC_PLLCFGR_PLLP_Pos) ||
 8005fe8:	429a      	cmp	r2, r3
 8005fea:	d001      	beq.n	8005ff0 <HAL_RCC_OscConfig+0x4e0>
#endif
        {
          return HAL_ERROR;
 8005fec:	2301      	movs	r3, #1
 8005fee:	e000      	b.n	8005ff2 <HAL_RCC_OscConfig+0x4e2>
        }
      }
    }
  }
  return HAL_OK;
 8005ff0:	2300      	movs	r3, #0
}
 8005ff2:	4618      	mov	r0, r3
 8005ff4:	3718      	adds	r7, #24
 8005ff6:	46bd      	mov	sp, r7
 8005ff8:	bd80      	pop	{r7, pc}
 8005ffa:	bf00      	nop
 8005ffc:	40023800 	.word	0x40023800

08006000 <HAL_RCC_ClockConfig>:
  *         HPRE[3:0] bits to ensure that HCLK not exceed the maximum allowed frequency
  *         (for more details refer to section above "Initialization/de-initialization functions")
  * @retval None
  */
HAL_StatusTypeDef HAL_RCC_ClockConfig(RCC_ClkInitTypeDef  *RCC_ClkInitStruct, uint32_t FLatency)
{
 8006000:	b580      	push	{r7, lr}
 8006002:	b084      	sub	sp, #16
 8006004:	af00      	add	r7, sp, #0
 8006006:	6078      	str	r0, [r7, #4]
 8006008:	6039      	str	r1, [r7, #0]
  uint32_t tickstart;

  /* Check Null pointer */
  if(RCC_ClkInitStruct == NULL)
 800600a:	687b      	ldr	r3, [r7, #4]
 800600c:	2b00      	cmp	r3, #0
 800600e:	d101      	bne.n	8006014 <HAL_RCC_ClockConfig+0x14>
  {
    return HAL_ERROR;
 8006010:	2301      	movs	r3, #1
 8006012:	e0cc      	b.n	80061ae <HAL_RCC_ClockConfig+0x1ae>
  /* To correctly read data from FLASH memory, the number of wait states (LATENCY)
    must be correctly programmed according to the frequency of the CPU clock
    (HCLK) and the supply voltage of the device. */

  /* Increasing the number of wait states because of higher CPU frequency */
  if(FLatency > __HAL_FLASH_GET_LATENCY())
 8006014:	4b68      	ldr	r3, [pc, #416]	; (80061b8 <HAL_RCC_ClockConfig+0x1b8>)
 8006016:	681b      	ldr	r3, [r3, #0]
 8006018:	f003 030f 	and.w	r3, r3, #15
 800601c:	683a      	ldr	r2, [r7, #0]
 800601e:	429a      	cmp	r2, r3
 8006020:	d90c      	bls.n	800603c <HAL_RCC_ClockConfig+0x3c>
  {
    /* Program the new number of wait states to the LATENCY bits in the FLASH_ACR register */
    __HAL_FLASH_SET_LATENCY(FLatency);
 8006022:	4b65      	ldr	r3, [pc, #404]	; (80061b8 <HAL_RCC_ClockConfig+0x1b8>)
 8006024:	683a      	ldr	r2, [r7, #0]
 8006026:	b2d2      	uxtb	r2, r2
 8006028:	701a      	strb	r2, [r3, #0]

    /* Check that the new number of wait states is taken into account to access the Flash
    memory by reading the FLASH_ACR register */
    if(__HAL_FLASH_GET_LATENCY() != FLatency)
 800602a:	4b63      	ldr	r3, [pc, #396]	; (80061b8 <HAL_RCC_ClockConfig+0x1b8>)
 800602c:	681b      	ldr	r3, [r3, #0]
 800602e:	f003 030f 	and.w	r3, r3, #15
 8006032:	683a      	ldr	r2, [r7, #0]
 8006034:	429a      	cmp	r2, r3
 8006036:	d001      	beq.n	800603c <HAL_RCC_ClockConfig+0x3c>
    {
      return HAL_ERROR;
 8006038:	2301      	movs	r3, #1
 800603a:	e0b8      	b.n	80061ae <HAL_RCC_ClockConfig+0x1ae>
    }
  }

  /*-------------------------- HCLK Configuration --------------------------*/
  if(((RCC_ClkInitStruct->ClockType) & RCC_CLOCKTYPE_HCLK) == RCC_CLOCKTYPE_HCLK)
 800603c:	687b      	ldr	r3, [r7, #4]
 800603e:	681b      	ldr	r3, [r3, #0]
 8006040:	f003 0302 	and.w	r3, r3, #2
 8006044:	2b00      	cmp	r3, #0
 8006046:	d020      	beq.n	800608a <HAL_RCC_ClockConfig+0x8a>
  {
    /* Set the highest APBx dividers in order to ensure that we do not go through
       a non-spec phase whatever we decrease or increase HCLK. */
    if(((RCC_ClkInitStruct->ClockType) & RCC_CLOCKTYPE_PCLK1) == RCC_CLOCKTYPE_PCLK1)
 8006048:	687b      	ldr	r3, [r7, #4]
 800604a:	681b      	ldr	r3, [r3, #0]
 800604c:	f003 0304 	and.w	r3, r3, #4
 8006050:	2b00      	cmp	r3, #0
 8006052:	d005      	beq.n	8006060 <HAL_RCC_ClockConfig+0x60>
    {
      MODIFY_REG(RCC->CFGR, RCC_CFGR_PPRE1, RCC_HCLK_DIV16);
 8006054:	4b59      	ldr	r3, [pc, #356]	; (80061bc <HAL_RCC_ClockConfig+0x1bc>)
 8006056:	689b      	ldr	r3, [r3, #8]
 8006058:	4a58      	ldr	r2, [pc, #352]	; (80061bc <HAL_RCC_ClockConfig+0x1bc>)
 800605a:	f443 53e0 	orr.w	r3, r3, #7168	; 0x1c00
 800605e:	6093      	str	r3, [r2, #8]
    }

    if(((RCC_ClkInitStruct->ClockType) & RCC_CLOCKTYPE_PCLK2) == RCC_CLOCKTYPE_PCLK2)
 8006060:	687b      	ldr	r3, [r7, #4]
 8006062:	681b      	ldr	r3, [r3, #0]
 8006064:	f003 0308 	and.w	r3, r3, #8
 8006068:	2b00      	cmp	r3, #0
 800606a:	d005      	beq.n	8006078 <HAL_RCC_ClockConfig+0x78>
    {
      MODIFY_REG(RCC->CFGR, RCC_CFGR_PPRE2, (RCC_HCLK_DIV16 << 3));
 800606c:	4b53      	ldr	r3, [pc, #332]	; (80061bc <HAL_RCC_ClockConfig+0x1bc>)
 800606e:	689b      	ldr	r3, [r3, #8]
 8006070:	4a52      	ldr	r2, [pc, #328]	; (80061bc <HAL_RCC_ClockConfig+0x1bc>)
 8006072:	f443 4360 	orr.w	r3, r3, #57344	; 0xe000
 8006076:	6093      	str	r3, [r2, #8]
    }

    assert_param(IS_RCC_HCLK(RCC_ClkInitStruct->AHBCLKDivider));
    MODIFY_REG(RCC->CFGR, RCC_CFGR_HPRE, RCC_ClkInitStruct->AHBCLKDivider);
 8006078:	4b50      	ldr	r3, [pc, #320]	; (80061bc <HAL_RCC_ClockConfig+0x1bc>)
 800607a:	689b      	ldr	r3, [r3, #8]
 800607c:	f023 02f0 	bic.w	r2, r3, #240	; 0xf0
 8006080:	687b      	ldr	r3, [r7, #4]
 8006082:	689b      	ldr	r3, [r3, #8]
 8006084:	494d      	ldr	r1, [pc, #308]	; (80061bc <HAL_RCC_ClockConfig+0x1bc>)
 8006086:	4313      	orrs	r3, r2
 8006088:	608b      	str	r3, [r1, #8]
  }

  /*------------------------- SYSCLK Configuration ---------------------------*/
  if(((RCC_ClkInitStruct->ClockType) & RCC_CLOCKTYPE_SYSCLK) == RCC_CLOCKTYPE_SYSCLK)
 800608a:	687b      	ldr	r3, [r7, #4]
 800608c:	681b      	ldr	r3, [r3, #0]
 800608e:	f003 0301 	and.w	r3, r3, #1
 8006092:	2b00      	cmp	r3, #0
 8006094:	d044      	beq.n	8006120 <HAL_RCC_ClockConfig+0x120>
  {
    assert_param(IS_RCC_SYSCLKSOURCE(RCC_ClkInitStruct->SYSCLKSource));

    /* HSE is selected as System Clock Source */
    if(RCC_ClkInitStruct->SYSCLKSource == RCC_SYSCLKSOURCE_HSE)
 8006096:	687b      	ldr	r3, [r7, #4]
 8006098:	685b      	ldr	r3, [r3, #4]
 800609a:	2b01      	cmp	r3, #1
 800609c:	d107      	bne.n	80060ae <HAL_RCC_ClockConfig+0xae>
    {
      /* Check the HSE ready flag */
      if(__HAL_RCC_GET_FLAG(RCC_FLAG_HSERDY) == RESET)
 800609e:	4b47      	ldr	r3, [pc, #284]	; (80061bc <HAL_RCC_ClockConfig+0x1bc>)
 80060a0:	681b      	ldr	r3, [r3, #0]
 80060a2:	f403 3300 	and.w	r3, r3, #131072	; 0x20000
 80060a6:	2b00      	cmp	r3, #0
 80060a8:	d119      	bne.n	80060de <HAL_RCC_ClockConfig+0xde>
      {
        return HAL_ERROR;
 80060aa:	2301      	movs	r3, #1
 80060ac:	e07f      	b.n	80061ae <HAL_RCC_ClockConfig+0x1ae>
      }
    }
    /* PLL is selected as System Clock Source */
    else if((RCC_ClkInitStruct->SYSCLKSource == RCC_SYSCLKSOURCE_PLLCLK)   ||
 80060ae:	687b      	ldr	r3, [r7, #4]
 80060b0:	685b      	ldr	r3, [r3, #4]
 80060b2:	2b02      	cmp	r3, #2
 80060b4:	d003      	beq.n	80060be <HAL_RCC_ClockConfig+0xbe>
            (RCC_ClkInitStruct->SYSCLKSource == RCC_SYSCLKSOURCE_PLLRCLK))
 80060b6:	687b      	ldr	r3, [r7, #4]
 80060b8:	685b      	ldr	r3, [r3, #4]
    else if((RCC_ClkInitStruct->SYSCLKSource == RCC_SYSCLKSOURCE_PLLCLK)   ||
 80060ba:	2b03      	cmp	r3, #3
 80060bc:	d107      	bne.n	80060ce <HAL_RCC_ClockConfig+0xce>
    {
      /* Check the PLL ready flag */
      if(__HAL_RCC_GET_FLAG(RCC_FLAG_PLLRDY) == RESET)
 80060be:	4b3f      	ldr	r3, [pc, #252]	; (80061bc <HAL_RCC_ClockConfig+0x1bc>)
 80060c0:	681b      	ldr	r3, [r3, #0]
 80060c2:	f003 7300 	and.w	r3, r3, #33554432	; 0x2000000
 80060c6:	2b00      	cmp	r3, #0
 80060c8:	d109      	bne.n	80060de <HAL_RCC_ClockConfig+0xde>
      {
        return HAL_ERROR;
 80060ca:	2301      	movs	r3, #1
 80060cc:	e06f      	b.n	80061ae <HAL_RCC_ClockConfig+0x1ae>
    }
    /* HSI is selected as System Clock Source */
    else
    {
      /* Check the HSI ready flag */
      if(__HAL_RCC_GET_FLAG(RCC_FLAG_HSIRDY) == RESET)
 80060ce:	4b3b      	ldr	r3, [pc, #236]	; (80061bc <HAL_RCC_ClockConfig+0x1bc>)
 80060d0:	681b      	ldr	r3, [r3, #0]
 80060d2:	f003 0302 	and.w	r3, r3, #2
 80060d6:	2b00      	cmp	r3, #0
 80060d8:	d101      	bne.n	80060de <HAL_RCC_ClockConfig+0xde>
      {
        return HAL_ERROR;
 80060da:	2301      	movs	r3, #1
 80060dc:	e067      	b.n	80061ae <HAL_RCC_ClockConfig+0x1ae>
      }
    }

    __HAL_RCC_SYSCLK_CONFIG(RCC_ClkInitStruct->SYSCLKSource);
 80060de:	4b37      	ldr	r3, [pc, #220]	; (80061bc <HAL_RCC_ClockConfig+0x1bc>)
 80060e0:	689b      	ldr	r3, [r3, #8]
 80060e2:	f023 0203 	bic.w	r2, r3, #3
 80060e6:	687b      	ldr	r3, [r7, #4]
 80060e8:	685b      	ldr	r3, [r3, #4]
 80060ea:	4934      	ldr	r1, [pc, #208]	; (80061bc <HAL_RCC_ClockConfig+0x1bc>)
 80060ec:	4313      	orrs	r3, r2
 80060ee:	608b      	str	r3, [r1, #8]

    /* Get Start Tick */
    tickstart = HAL_GetTick();
 80060f0:	f7fc fef4 	bl	8002edc <HAL_GetTick>
 80060f4:	60f8      	str	r0, [r7, #12]

    while (__HAL_RCC_GET_SYSCLK_SOURCE() != (RCC_ClkInitStruct->SYSCLKSource << RCC_CFGR_SWS_Pos))
 80060f6:	e00a      	b.n	800610e <HAL_RCC_ClockConfig+0x10e>
    {
      if ((HAL_GetTick() - tickstart) > CLOCKSWITCH_TIMEOUT_VALUE)
 80060f8:	f7fc fef0 	bl	8002edc <HAL_GetTick>
 80060fc:	4602      	mov	r2, r0
 80060fe:	68fb      	ldr	r3, [r7, #12]
 8006100:	1ad3      	subs	r3, r2, r3
 8006102:	f241 3288 	movw	r2, #5000	; 0x1388
 8006106:	4293      	cmp	r3, r2
 8006108:	d901      	bls.n	800610e <HAL_RCC_ClockConfig+0x10e>
      {
        return HAL_TIMEOUT;
 800610a:	2303      	movs	r3, #3
 800610c:	e04f      	b.n	80061ae <HAL_RCC_ClockConfig+0x1ae>
    while (__HAL_RCC_GET_SYSCLK_SOURCE() != (RCC_ClkInitStruct->SYSCLKSource << RCC_CFGR_SWS_Pos))
 800610e:	4b2b      	ldr	r3, [pc, #172]	; (80061bc <HAL_RCC_ClockConfig+0x1bc>)
 8006110:	689b      	ldr	r3, [r3, #8]
 8006112:	f003 020c 	and.w	r2, r3, #12
 8006116:	687b      	ldr	r3, [r7, #4]
 8006118:	685b      	ldr	r3, [r3, #4]
 800611a:	009b      	lsls	r3, r3, #2
 800611c:	429a      	cmp	r2, r3
 800611e:	d1eb      	bne.n	80060f8 <HAL_RCC_ClockConfig+0xf8>
      }
    }
  }

  /* Decreasing the number of wait states because of lower CPU frequency */
  if(FLatency < __HAL_FLASH_GET_LATENCY())
 8006120:	4b25      	ldr	r3, [pc, #148]	; (80061b8 <HAL_RCC_ClockConfig+0x1b8>)
 8006122:	681b      	ldr	r3, [r3, #0]
 8006124:	f003 030f 	and.w	r3, r3, #15
 8006128:	683a      	ldr	r2, [r7, #0]
 800612a:	429a      	cmp	r2, r3
 800612c:	d20c      	bcs.n	8006148 <HAL_RCC_ClockConfig+0x148>
  {
     /* Program the new number of wait states to the LATENCY bits in the FLASH_ACR register */
    __HAL_FLASH_SET_LATENCY(FLatency);
 800612e:	4b22      	ldr	r3, [pc, #136]	; (80061b8 <HAL_RCC_ClockConfig+0x1b8>)
 8006130:	683a      	ldr	r2, [r7, #0]
 8006132:	b2d2      	uxtb	r2, r2
 8006134:	701a      	strb	r2, [r3, #0]

    /* Check that the new number of wait states is taken into account to access the Flash
    memory by reading the FLASH_ACR register */
    if(__HAL_FLASH_GET_LATENCY() != FLatency)
 8006136:	4b20      	ldr	r3, [pc, #128]	; (80061b8 <HAL_RCC_ClockConfig+0x1b8>)
 8006138:	681b      	ldr	r3, [r3, #0]
 800613a:	f003 030f 	and.w	r3, r3, #15
 800613e:	683a      	ldr	r2, [r7, #0]
 8006140:	429a      	cmp	r2, r3
 8006142:	d001      	beq.n	8006148 <HAL_RCC_ClockConfig+0x148>
    {
      return HAL_ERROR;
 8006144:	2301      	movs	r3, #1
 8006146:	e032      	b.n	80061ae <HAL_RCC_ClockConfig+0x1ae>
    }
  }

  /*-------------------------- PCLK1 Configuration ---------------------------*/
  if(((RCC_ClkInitStruct->ClockType) & RCC_CLOCKTYPE_PCLK1) == RCC_CLOCKTYPE_PCLK1)
 8006148:	687b      	ldr	r3, [r7, #4]
 800614a:	681b      	ldr	r3, [r3, #0]
 800614c:	f003 0304 	and.w	r3, r3, #4
 8006150:	2b00      	cmp	r3, #0
 8006152:	d008      	beq.n	8006166 <HAL_RCC_ClockConfig+0x166>
  {
    assert_param(IS_RCC_PCLK(RCC_ClkInitStruct->APB1CLKDivider));
    MODIFY_REG(RCC->CFGR, RCC_CFGR_PPRE1, RCC_ClkInitStruct->APB1CLKDivider);
 8006154:	4b19      	ldr	r3, [pc, #100]	; (80061bc <HAL_RCC_ClockConfig+0x1bc>)
 8006156:	689b      	ldr	r3, [r3, #8]
 8006158:	f423 52e0 	bic.w	r2, r3, #7168	; 0x1c00
 800615c:	687b      	ldr	r3, [r7, #4]
 800615e:	68db      	ldr	r3, [r3, #12]
 8006160:	4916      	ldr	r1, [pc, #88]	; (80061bc <HAL_RCC_ClockConfig+0x1bc>)
 8006162:	4313      	orrs	r3, r2
 8006164:	608b      	str	r3, [r1, #8]
  }

  /*-------------------------- PCLK2 Configuration ---------------------------*/
  if(((RCC_ClkInitStruct->ClockType) & RCC_CLOCKTYPE_PCLK2) == RCC_CLOCKTYPE_PCLK2)
 8006166:	687b      	ldr	r3, [r7, #4]
 8006168:	681b      	ldr	r3, [r3, #0]
 800616a:	f003 0308 	and.w	r3, r3, #8
 800616e:	2b00      	cmp	r3, #0
 8006170:	d009      	beq.n	8006186 <HAL_RCC_ClockConfig+0x186>
  {
    assert_param(IS_RCC_PCLK(RCC_ClkInitStruct->APB2CLKDivider));
    MODIFY_REG(RCC->CFGR, RCC_CFGR_PPRE2, ((RCC_ClkInitStruct->APB2CLKDivider) << 3U));
 8006172:	4b12      	ldr	r3, [pc, #72]	; (80061bc <HAL_RCC_ClockConfig+0x1bc>)
 8006174:	689b      	ldr	r3, [r3, #8]
 8006176:	f423 4260 	bic.w	r2, r3, #57344	; 0xe000
 800617a:	687b      	ldr	r3, [r7, #4]
 800617c:	691b      	ldr	r3, [r3, #16]
 800617e:	00db      	lsls	r3, r3, #3
 8006180:	490e      	ldr	r1, [pc, #56]	; (80061bc <HAL_RCC_ClockConfig+0x1bc>)
 8006182:	4313      	orrs	r3, r2
 8006184:	608b      	str	r3, [r1, #8]
  }

  /* Update the SystemCoreClock global variable */
  SystemCoreClock = HAL_RCC_GetSysClockFreq() >> AHBPrescTable[(RCC->CFGR & RCC_CFGR_HPRE)>> RCC_CFGR_HPRE_Pos];
 8006186:	f000 f821 	bl	80061cc <HAL_RCC_GetSysClockFreq>
 800618a:	4602      	mov	r2, r0
 800618c:	4b0b      	ldr	r3, [pc, #44]	; (80061bc <HAL_RCC_ClockConfig+0x1bc>)
 800618e:	689b      	ldr	r3, [r3, #8]
 8006190:	091b      	lsrs	r3, r3, #4
 8006192:	f003 030f 	and.w	r3, r3, #15
 8006196:	490a      	ldr	r1, [pc, #40]	; (80061c0 <HAL_RCC_ClockConfig+0x1c0>)
 8006198:	5ccb      	ldrb	r3, [r1, r3]
 800619a:	fa22 f303 	lsr.w	r3, r2, r3
 800619e:	4a09      	ldr	r2, [pc, #36]	; (80061c4 <HAL_RCC_ClockConfig+0x1c4>)
 80061a0:	6013      	str	r3, [r2, #0]

  /* Configure the source of time base considering new system clocks settings */
  HAL_InitTick (uwTickPrio);
 80061a2:	4b09      	ldr	r3, [pc, #36]	; (80061c8 <HAL_RCC_ClockConfig+0x1c8>)
 80061a4:	681b      	ldr	r3, [r3, #0]
 80061a6:	4618      	mov	r0, r3
 80061a8:	f7fc fe54 	bl	8002e54 <HAL_InitTick>

  return HAL_OK;
 80061ac:	2300      	movs	r3, #0
}
 80061ae:	4618      	mov	r0, r3
 80061b0:	3710      	adds	r7, #16
 80061b2:	46bd      	mov	sp, r7
 80061b4:	bd80      	pop	{r7, pc}
 80061b6:	bf00      	nop
 80061b8:	40023c00 	.word	0x40023c00
 80061bc:	40023800 	.word	0x40023800
 80061c0:	08009384 	.word	0x08009384
 80061c4:	2000001c 	.word	0x2000001c
 80061c8:	20000020 	.word	0x20000020

080061cc <HAL_RCC_GetSysClockFreq>:
  *
  *
  * @retval SYSCLK frequency
  */
__weak uint32_t HAL_RCC_GetSysClockFreq(void)
{
 80061cc:	e92d 4fb0 	stmdb	sp!, {r4, r5, r7, r8, r9, sl, fp, lr}
 80061d0:	b090      	sub	sp, #64	; 0x40
 80061d2:	af00      	add	r7, sp, #0
  uint32_t pllm = 0U, pllvco = 0U, pllp = 0U;
 80061d4:	2300      	movs	r3, #0
 80061d6:	637b      	str	r3, [r7, #52]	; 0x34
 80061d8:	2300      	movs	r3, #0
 80061da:	63fb      	str	r3, [r7, #60]	; 0x3c
 80061dc:	2300      	movs	r3, #0
 80061de:	633b      	str	r3, [r7, #48]	; 0x30
  uint32_t sysclockfreq = 0U;
 80061e0:	2300      	movs	r3, #0
 80061e2:	63bb      	str	r3, [r7, #56]	; 0x38

  /* Get SYSCLK source -------------------------------------------------------*/
  switch (RCC->CFGR & RCC_CFGR_SWS)
 80061e4:	4b59      	ldr	r3, [pc, #356]	; (800634c <HAL_RCC_GetSysClockFreq+0x180>)
 80061e6:	689b      	ldr	r3, [r3, #8]
 80061e8:	f003 030c 	and.w	r3, r3, #12
 80061ec:	2b08      	cmp	r3, #8
 80061ee:	d00d      	beq.n	800620c <HAL_RCC_GetSysClockFreq+0x40>
 80061f0:	2b08      	cmp	r3, #8
 80061f2:	f200 80a1 	bhi.w	8006338 <HAL_RCC_GetSysClockFreq+0x16c>
 80061f6:	2b00      	cmp	r3, #0
 80061f8:	d002      	beq.n	8006200 <HAL_RCC_GetSysClockFreq+0x34>
 80061fa:	2b04      	cmp	r3, #4
 80061fc:	d003      	beq.n	8006206 <HAL_RCC_GetSysClockFreq+0x3a>
 80061fe:	e09b      	b.n	8006338 <HAL_RCC_GetSysClockFreq+0x16c>
  {
    case RCC_CFGR_SWS_HSI:  /* HSI used as system clock source */
    {
      sysclockfreq = HSI_VALUE;
 8006200:	4b53      	ldr	r3, [pc, #332]	; (8006350 <HAL_RCC_GetSysClockFreq+0x184>)
 8006202:	63bb      	str	r3, [r7, #56]	; 0x38
       break;
 8006204:	e09b      	b.n	800633e <HAL_RCC_GetSysClockFreq+0x172>
    }
    case RCC_CFGR_SWS_HSE:  /* HSE used as system clock  source */
    {
      sysclockfreq = HSE_VALUE;
 8006206:	4b53      	ldr	r3, [pc, #332]	; (8006354 <HAL_RCC_GetSysClockFreq+0x188>)
 8006208:	63bb      	str	r3, [r7, #56]	; 0x38
      break;
 800620a:	e098      	b.n	800633e <HAL_RCC_GetSysClockFreq+0x172>
    }
    case RCC_CFGR_SWS_PLL:  /* PLL used as system clock  source */
    {
      /* PLL_VCO = (HSE_VALUE or HSI_VALUE / PLLM) * PLLN
      SYSCLK = PLL_VCO / PLLP */
      pllm = RCC->PLLCFGR & RCC_PLLCFGR_PLLM;
 800620c:	4b4f      	ldr	r3, [pc, #316]	; (800634c <HAL_RCC_GetSysClockFreq+0x180>)
 800620e:	685b      	ldr	r3, [r3, #4]
 8006210:	f003 033f 	and.w	r3, r3, #63	; 0x3f
 8006214:	637b      	str	r3, [r7, #52]	; 0x34
      if(__HAL_RCC_GET_PLL_OSCSOURCE() != RCC_PLLSOURCE_HSI)
 8006216:	4b4d      	ldr	r3, [pc, #308]	; (800634c <HAL_RCC_GetSysClockFreq+0x180>)
 8006218:	685b      	ldr	r3, [r3, #4]
 800621a:	f403 0380 	and.w	r3, r3, #4194304	; 0x400000
 800621e:	2b00      	cmp	r3, #0
 8006220:	d028      	beq.n	8006274 <HAL_RCC_GetSysClockFreq+0xa8>
      {
        /* HSE used as PLL clock source */
        pllvco = (uint32_t) ((((uint64_t) HSE_VALUE * ((uint64_t) ((RCC->PLLCFGR & RCC_PLLCFGR_PLLN) >> RCC_PLLCFGR_PLLN_Pos)))) / (uint64_t)pllm);
 8006222:	4b4a      	ldr	r3, [pc, #296]	; (800634c <HAL_RCC_GetSysClockFreq+0x180>)
 8006224:	685b      	ldr	r3, [r3, #4]
 8006226:	099b      	lsrs	r3, r3, #6
 8006228:	2200      	movs	r2, #0
 800622a:	623b      	str	r3, [r7, #32]
 800622c:	627a      	str	r2, [r7, #36]	; 0x24
 800622e:	6a3b      	ldr	r3, [r7, #32]
 8006230:	f3c3 0008 	ubfx	r0, r3, #0, #9
 8006234:	2100      	movs	r1, #0
 8006236:	4b47      	ldr	r3, [pc, #284]	; (8006354 <HAL_RCC_GetSysClockFreq+0x188>)
 8006238:	fb03 f201 	mul.w	r2, r3, r1
 800623c:	2300      	movs	r3, #0
 800623e:	fb00 f303 	mul.w	r3, r0, r3
 8006242:	4413      	add	r3, r2
 8006244:	4a43      	ldr	r2, [pc, #268]	; (8006354 <HAL_RCC_GetSysClockFreq+0x188>)
 8006246:	fba0 1202 	umull	r1, r2, r0, r2
 800624a:	62fa      	str	r2, [r7, #44]	; 0x2c
 800624c:	460a      	mov	r2, r1
 800624e:	62ba      	str	r2, [r7, #40]	; 0x28
 8006250:	6afa      	ldr	r2, [r7, #44]	; 0x2c
 8006252:	4413      	add	r3, r2
 8006254:	62fb      	str	r3, [r7, #44]	; 0x2c
 8006256:	6b7b      	ldr	r3, [r7, #52]	; 0x34
 8006258:	2200      	movs	r2, #0
 800625a:	61bb      	str	r3, [r7, #24]
 800625c:	61fa      	str	r2, [r7, #28]
 800625e:	e9d7 2306 	ldrd	r2, r3, [r7, #24]
 8006262:	e9d7 010a 	ldrd	r0, r1, [r7, #40]	; 0x28
 8006266:	f7f9 ffc9 	bl	80001fc <__aeabi_uldivmod>
 800626a:	4602      	mov	r2, r0
 800626c:	460b      	mov	r3, r1
 800626e:	4613      	mov	r3, r2
 8006270:	63fb      	str	r3, [r7, #60]	; 0x3c
 8006272:	e053      	b.n	800631c <HAL_RCC_GetSysClockFreq+0x150>
      }
      else
      {
        /* HSI used as PLL clock source */
        pllvco = (uint32_t) ((((uint64_t) HSI_VALUE * ((uint64_t) ((RCC->PLLCFGR & RCC_PLLCFGR_PLLN) >> RCC_PLLCFGR_PLLN_Pos)))) / (uint64_t)pllm);
 8006274:	4b35      	ldr	r3, [pc, #212]	; (800634c <HAL_RCC_GetSysClockFreq+0x180>)
 8006276:	685b      	ldr	r3, [r3, #4]
 8006278:	099b      	lsrs	r3, r3, #6
 800627a:	2200      	movs	r2, #0
 800627c:	613b      	str	r3, [r7, #16]
 800627e:	617a      	str	r2, [r7, #20]
 8006280:	693b      	ldr	r3, [r7, #16]
 8006282:	f3c3 0a08 	ubfx	sl, r3, #0, #9
 8006286:	f04f 0b00 	mov.w	fp, #0
 800628a:	4652      	mov	r2, sl
 800628c:	465b      	mov	r3, fp
 800628e:	f04f 0000 	mov.w	r0, #0
 8006292:	f04f 0100 	mov.w	r1, #0
 8006296:	0159      	lsls	r1, r3, #5
 8006298:	ea41 61d2 	orr.w	r1, r1, r2, lsr #27
 800629c:	0150      	lsls	r0, r2, #5
 800629e:	4602      	mov	r2, r0
 80062a0:	460b      	mov	r3, r1
 80062a2:	ebb2 080a 	subs.w	r8, r2, sl
 80062a6:	eb63 090b 	sbc.w	r9, r3, fp
 80062aa:	f04f 0200 	mov.w	r2, #0
 80062ae:	f04f 0300 	mov.w	r3, #0
 80062b2:	ea4f 1389 	mov.w	r3, r9, lsl #6
 80062b6:	ea43 6398 	orr.w	r3, r3, r8, lsr #26
 80062ba:	ea4f 1288 	mov.w	r2, r8, lsl #6
 80062be:	ebb2 0408 	subs.w	r4, r2, r8
 80062c2:	eb63 0509 	sbc.w	r5, r3, r9
 80062c6:	f04f 0200 	mov.w	r2, #0
 80062ca:	f04f 0300 	mov.w	r3, #0
 80062ce:	00eb      	lsls	r3, r5, #3
 80062d0:	ea43 7354 	orr.w	r3, r3, r4, lsr #29
 80062d4:	00e2      	lsls	r2, r4, #3
 80062d6:	4614      	mov	r4, r2
 80062d8:	461d      	mov	r5, r3
 80062da:	eb14 030a 	adds.w	r3, r4, sl
 80062de:	603b      	str	r3, [r7, #0]
 80062e0:	eb45 030b 	adc.w	r3, r5, fp
 80062e4:	607b      	str	r3, [r7, #4]
 80062e6:	f04f 0200 	mov.w	r2, #0
 80062ea:	f04f 0300 	mov.w	r3, #0
 80062ee:	e9d7 4500 	ldrd	r4, r5, [r7]
 80062f2:	4629      	mov	r1, r5
 80062f4:	028b      	lsls	r3, r1, #10
 80062f6:	4621      	mov	r1, r4
 80062f8:	ea43 5391 	orr.w	r3, r3, r1, lsr #22
 80062fc:	4621      	mov	r1, r4
 80062fe:	028a      	lsls	r2, r1, #10
 8006300:	4610      	mov	r0, r2
 8006302:	4619      	mov	r1, r3
 8006304:	6b7b      	ldr	r3, [r7, #52]	; 0x34
 8006306:	2200      	movs	r2, #0
 8006308:	60bb      	str	r3, [r7, #8]
 800630a:	60fa      	str	r2, [r7, #12]
 800630c:	e9d7 2302 	ldrd	r2, r3, [r7, #8]
 8006310:	f7f9 ff74 	bl	80001fc <__aeabi_uldivmod>
 8006314:	4602      	mov	r2, r0
 8006316:	460b      	mov	r3, r1
 8006318:	4613      	mov	r3, r2
 800631a:	63fb      	str	r3, [r7, #60]	; 0x3c
      }
      pllp = ((((RCC->PLLCFGR & RCC_PLLCFGR_PLLP) >> RCC_PLLCFGR_PLLP_Pos) + 1U) *2U);
 800631c:	4b0b      	ldr	r3, [pc, #44]	; (800634c <HAL_RCC_GetSysClockFreq+0x180>)
 800631e:	685b      	ldr	r3, [r3, #4]
 8006320:	0c1b      	lsrs	r3, r3, #16
 8006322:	f003 0303 	and.w	r3, r3, #3
 8006326:	3301      	adds	r3, #1
 8006328:	005b      	lsls	r3, r3, #1
 800632a:	633b      	str	r3, [r7, #48]	; 0x30

      sysclockfreq = pllvco/pllp;
 800632c:	6bfa      	ldr	r2, [r7, #60]	; 0x3c
 800632e:	6b3b      	ldr	r3, [r7, #48]	; 0x30
 8006330:	fbb2 f3f3 	udiv	r3, r2, r3
 8006334:	63bb      	str	r3, [r7, #56]	; 0x38
      break;
 8006336:	e002      	b.n	800633e <HAL_RCC_GetSysClockFreq+0x172>
    }
    default:
    {
      sysclockfreq = HSI_VALUE;
 8006338:	4b05      	ldr	r3, [pc, #20]	; (8006350 <HAL_RCC_GetSysClockFreq+0x184>)
 800633a:	63bb      	str	r3, [r7, #56]	; 0x38
      break;
 800633c:	bf00      	nop
    }
  }
  return sysclockfreq;
 800633e:	6bbb      	ldr	r3, [r7, #56]	; 0x38
}
 8006340:	4618      	mov	r0, r3
 8006342:	3740      	adds	r7, #64	; 0x40
 8006344:	46bd      	mov	sp, r7
 8006346:	e8bd 8fb0 	ldmia.w	sp!, {r4, r5, r7, r8, r9, sl, fp, pc}
 800634a:	bf00      	nop
 800634c:	40023800 	.word	0x40023800
 8006350:	00f42400 	.word	0x00f42400
 8006354:	017d7840 	.word	0x017d7840

08006358 <HAL_RCC_GetHCLKFreq>:
  * @note   The SystemCoreClock CMSIS variable is used to store System Clock Frequency
  *         and updated within this function
  * @retval HCLK frequency
  */
uint32_t HAL_RCC_GetHCLKFreq(void)
{
 8006358:	b480      	push	{r7}
 800635a:	af00      	add	r7, sp, #0
  return SystemCoreClock;
 800635c:	4b03      	ldr	r3, [pc, #12]	; (800636c <HAL_RCC_GetHCLKFreq+0x14>)
 800635e:	681b      	ldr	r3, [r3, #0]
}
 8006360:	4618      	mov	r0, r3
 8006362:	46bd      	mov	sp, r7
 8006364:	f85d 7b04 	ldr.w	r7, [sp], #4
 8006368:	4770      	bx	lr
 800636a:	bf00      	nop
 800636c:	2000001c 	.word	0x2000001c

08006370 <HAL_RCC_GetPCLK1Freq>:
  * @note   Each time PCLK1 changes, this function must be called to update the
  *         right PCLK1 value. Otherwise, any configuration based on this function will be incorrect.
  * @retval PCLK1 frequency
  */
uint32_t HAL_RCC_GetPCLK1Freq(void)
{
 8006370:	b580      	push	{r7, lr}
 8006372:	af00      	add	r7, sp, #0
  /* Get HCLK source and Compute PCLK1 frequency ---------------------------*/
  return (HAL_RCC_GetHCLKFreq() >> APBPrescTable[(RCC->CFGR & RCC_CFGR_PPRE1)>> RCC_CFGR_PPRE1_Pos]);
 8006374:	f7ff fff0 	bl	8006358 <HAL_RCC_GetHCLKFreq>
 8006378:	4602      	mov	r2, r0
 800637a:	4b05      	ldr	r3, [pc, #20]	; (8006390 <HAL_RCC_GetPCLK1Freq+0x20>)
 800637c:	689b      	ldr	r3, [r3, #8]
 800637e:	0a9b      	lsrs	r3, r3, #10
 8006380:	f003 0307 	and.w	r3, r3, #7
 8006384:	4903      	ldr	r1, [pc, #12]	; (8006394 <HAL_RCC_GetPCLK1Freq+0x24>)
 8006386:	5ccb      	ldrb	r3, [r1, r3]
 8006388:	fa22 f303 	lsr.w	r3, r2, r3
}
 800638c:	4618      	mov	r0, r3
 800638e:	bd80      	pop	{r7, pc}
 8006390:	40023800 	.word	0x40023800
 8006394:	08009394 	.word	0x08009394

08006398 <HAL_RCC_GetPCLK2Freq>:
  * @note   Each time PCLK2 changes, this function must be called to update the
  *         right PCLK2 value. Otherwise, any configuration based on this function will be incorrect.
  * @retval PCLK2 frequency
  */
uint32_t HAL_RCC_GetPCLK2Freq(void)
{
 8006398:	b580      	push	{r7, lr}
 800639a:	af00      	add	r7, sp, #0
  /* Get HCLK source and Compute PCLK2 frequency ---------------------------*/
  return (HAL_RCC_GetHCLKFreq()>> APBPrescTable[(RCC->CFGR & RCC_CFGR_PPRE2)>> RCC_CFGR_PPRE2_Pos]);
 800639c:	f7ff ffdc 	bl	8006358 <HAL_RCC_GetHCLKFreq>
 80063a0:	4602      	mov	r2, r0
 80063a2:	4b05      	ldr	r3, [pc, #20]	; (80063b8 <HAL_RCC_GetPCLK2Freq+0x20>)
 80063a4:	689b      	ldr	r3, [r3, #8]
 80063a6:	0b5b      	lsrs	r3, r3, #13
 80063a8:	f003 0307 	and.w	r3, r3, #7
 80063ac:	4903      	ldr	r1, [pc, #12]	; (80063bc <HAL_RCC_GetPCLK2Freq+0x24>)
 80063ae:	5ccb      	ldrb	r3, [r1, r3]
 80063b0:	fa22 f303 	lsr.w	r3, r2, r3
}
 80063b4:	4618      	mov	r0, r3
 80063b6:	bd80      	pop	{r7, pc}
 80063b8:	40023800 	.word	0x40023800
 80063bc:	08009394 	.word	0x08009394

080063c0 <HAL_RCCEx_PeriphCLKConfig>:
  *         the backup registers) and RCC_BDCR register are set to their reset values.
  *
  * @retval HAL status
  */
HAL_StatusTypeDef HAL_RCCEx_PeriphCLKConfig(RCC_PeriphCLKInitTypeDef  *PeriphClkInit)
{
 80063c0:	b580      	push	{r7, lr}
 80063c2:	b086      	sub	sp, #24
 80063c4:	af00      	add	r7, sp, #0
 80063c6:	6078      	str	r0, [r7, #4]
  uint32_t tickstart = 0U;
 80063c8:	2300      	movs	r3, #0
 80063ca:	617b      	str	r3, [r7, #20]
  uint32_t tmpreg1 = 0U;
 80063cc:	2300      	movs	r3, #0
 80063ce:	613b      	str	r3, [r7, #16]

  /*----------------------- SAI/I2S Configuration (PLLI2S) -------------------*/
  /*----------------------- Common configuration SAI/I2S ---------------------*/
  /* In Case of SAI or I2S Clock Configuration through PLLI2S, PLLI2SN division
     factor is common parameters for both peripherals */
  if((((PeriphClkInit->PeriphClockSelection) & RCC_PERIPHCLK_I2S) == RCC_PERIPHCLK_I2S) ||
 80063d0:	687b      	ldr	r3, [r7, #4]
 80063d2:	681b      	ldr	r3, [r3, #0]
 80063d4:	f003 0301 	and.w	r3, r3, #1
 80063d8:	2b00      	cmp	r3, #0
 80063da:	d10b      	bne.n	80063f4 <HAL_RCCEx_PeriphCLKConfig+0x34>
     (((PeriphClkInit->PeriphClockSelection) & RCC_PERIPHCLK_SAI_PLLI2S) == RCC_PERIPHCLK_SAI_PLLI2S) ||
 80063dc:	687b      	ldr	r3, [r7, #4]
 80063de:	681b      	ldr	r3, [r3, #0]
 80063e0:	f003 0302 	and.w	r3, r3, #2
  if((((PeriphClkInit->PeriphClockSelection) & RCC_PERIPHCLK_I2S) == RCC_PERIPHCLK_I2S) ||
 80063e4:	2b00      	cmp	r3, #0
 80063e6:	d105      	bne.n	80063f4 <HAL_RCCEx_PeriphCLKConfig+0x34>
     (((PeriphClkInit->PeriphClockSelection) & RCC_PERIPHCLK_PLLI2S) == RCC_PERIPHCLK_PLLI2S))
 80063e8:	687b      	ldr	r3, [r7, #4]
 80063ea:	681b      	ldr	r3, [r3, #0]
 80063ec:	f003 0340 	and.w	r3, r3, #64	; 0x40
     (((PeriphClkInit->PeriphClockSelection) & RCC_PERIPHCLK_SAI_PLLI2S) == RCC_PERIPHCLK_SAI_PLLI2S) ||
 80063f0:	2b00      	cmp	r3, #0
 80063f2:	d075      	beq.n	80064e0 <HAL_RCCEx_PeriphCLKConfig+0x120>
  {
    /* check for Parameters */
    assert_param(IS_RCC_PLLI2SN_VALUE(PeriphClkInit->PLLI2S.PLLI2SN));

    /* Disable the PLLI2S */
    __HAL_RCC_PLLI2S_DISABLE();
 80063f4:	4b91      	ldr	r3, [pc, #580]	; (800663c <HAL_RCCEx_PeriphCLKConfig+0x27c>)
 80063f6:	2200      	movs	r2, #0
 80063f8:	601a      	str	r2, [r3, #0]
    /* Get tick */
    tickstart = HAL_GetTick();
 80063fa:	f7fc fd6f 	bl	8002edc <HAL_GetTick>
 80063fe:	6178      	str	r0, [r7, #20]
    /* Wait till PLLI2S is disabled */
    while(__HAL_RCC_GET_FLAG(RCC_FLAG_PLLI2SRDY)  != RESET)
 8006400:	e008      	b.n	8006414 <HAL_RCCEx_PeriphCLKConfig+0x54>
    {
      if((HAL_GetTick() - tickstart ) > PLLI2S_TIMEOUT_VALUE)
 8006402:	f7fc fd6b 	bl	8002edc <HAL_GetTick>
 8006406:	4602      	mov	r2, r0
 8006408:	697b      	ldr	r3, [r7, #20]
 800640a:	1ad3      	subs	r3, r2, r3
 800640c:	2b02      	cmp	r3, #2
 800640e:	d901      	bls.n	8006414 <HAL_RCCEx_PeriphCLKConfig+0x54>
      {
        /* return in case of Timeout detected */
        return HAL_TIMEOUT;
 8006410:	2303      	movs	r3, #3
 8006412:	e189      	b.n	8006728 <HAL_RCCEx_PeriphCLKConfig+0x368>
    while(__HAL_RCC_GET_FLAG(RCC_FLAG_PLLI2SRDY)  != RESET)
 8006414:	4b8a      	ldr	r3, [pc, #552]	; (8006640 <HAL_RCCEx_PeriphCLKConfig+0x280>)
 8006416:	681b      	ldr	r3, [r3, #0]
 8006418:	f003 6300 	and.w	r3, r3, #134217728	; 0x8000000
 800641c:	2b00      	cmp	r3, #0
 800641e:	d1f0      	bne.n	8006402 <HAL_RCCEx_PeriphCLKConfig+0x42>
    }

    /*---------------------------- I2S configuration -------------------------*/
    /* In Case of I2S Clock Configuration through PLLI2S, PLLI2SR must be added
      only for I2S configuration */
    if(((PeriphClkInit->PeriphClockSelection) & RCC_PERIPHCLK_I2S) == (RCC_PERIPHCLK_I2S))
 8006420:	687b      	ldr	r3, [r7, #4]
 8006422:	681b      	ldr	r3, [r3, #0]
 8006424:	f003 0301 	and.w	r3, r3, #1
 8006428:	2b00      	cmp	r3, #0
 800642a:	d009      	beq.n	8006440 <HAL_RCCEx_PeriphCLKConfig+0x80>
      /* check for Parameters */
      assert_param(IS_RCC_PLLI2SR_VALUE(PeriphClkInit->PLLI2S.PLLI2SR));
      /* Configure the PLLI2S division factors */
      /* PLLI2S_VCO = f(VCO clock) = f(PLLI2S clock input) * (PLLI2SN/PLLM) */
      /* I2SCLK = f(PLLI2S clock output) = f(VCO clock) / PLLI2SR */
      __HAL_RCC_PLLI2S_CONFIG(PeriphClkInit->PLLI2S.PLLI2SN , PeriphClkInit->PLLI2S.PLLI2SR);
 800642c:	687b      	ldr	r3, [r7, #4]
 800642e:	685b      	ldr	r3, [r3, #4]
 8006430:	019a      	lsls	r2, r3, #6
 8006432:	687b      	ldr	r3, [r7, #4]
 8006434:	689b      	ldr	r3, [r3, #8]
 8006436:	071b      	lsls	r3, r3, #28
 8006438:	4981      	ldr	r1, [pc, #516]	; (8006640 <HAL_RCCEx_PeriphCLKConfig+0x280>)
 800643a:	4313      	orrs	r3, r2
 800643c:	f8c1 3084 	str.w	r3, [r1, #132]	; 0x84
    }

    /*---------------------------- SAI configuration -------------------------*/
    /* In Case of SAI Clock Configuration through PLLI2S, PLLI2SQ and PLLI2S_DIVQ must
       be added only for SAI configuration */
    if(((PeriphClkInit->PeriphClockSelection) & RCC_PERIPHCLK_SAI_PLLI2S) == (RCC_PERIPHCLK_SAI_PLLI2S))
 8006440:	687b      	ldr	r3, [r7, #4]
 8006442:	681b      	ldr	r3, [r3, #0]
 8006444:	f003 0302 	and.w	r3, r3, #2
 8006448:	2b00      	cmp	r3, #0
 800644a:	d01f      	beq.n	800648c <HAL_RCCEx_PeriphCLKConfig+0xcc>
      /* Check the PLLI2S division factors */
      assert_param(IS_RCC_PLLI2SQ_VALUE(PeriphClkInit->PLLI2S.PLLI2SQ));
      assert_param(IS_RCC_PLLI2S_DIVQ_VALUE(PeriphClkInit->PLLI2SDivQ));

      /* Read PLLI2SR value from PLLI2SCFGR register (this value is not need for SAI configuration) */
      tmpreg1 = ((RCC->PLLI2SCFGR & RCC_PLLI2SCFGR_PLLI2SR) >> RCC_PLLI2SCFGR_PLLI2SR_Pos);
 800644c:	4b7c      	ldr	r3, [pc, #496]	; (8006640 <HAL_RCCEx_PeriphCLKConfig+0x280>)
 800644e:	f8d3 3084 	ldr.w	r3, [r3, #132]	; 0x84
 8006452:	0f1b      	lsrs	r3, r3, #28
 8006454:	f003 0307 	and.w	r3, r3, #7
 8006458:	613b      	str	r3, [r7, #16]
      /* Configure the PLLI2S division factors */
      /* PLLI2S_VCO Input  = PLL_SOURCE/PLLM */
      /* PLLI2S_VCO Output = PLLI2S_VCO Input * PLLI2SN */
      /* SAI_CLK(first level) = PLLI2S_VCO Output/PLLI2SQ */
      __HAL_RCC_PLLI2S_SAICLK_CONFIG(PeriphClkInit->PLLI2S.PLLI2SN , PeriphClkInit->PLLI2S.PLLI2SQ , tmpreg1);
 800645a:	687b      	ldr	r3, [r7, #4]
 800645c:	685b      	ldr	r3, [r3, #4]
 800645e:	019a      	lsls	r2, r3, #6
 8006460:	687b      	ldr	r3, [r7, #4]
 8006462:	68db      	ldr	r3, [r3, #12]
 8006464:	061b      	lsls	r3, r3, #24
 8006466:	431a      	orrs	r2, r3
 8006468:	693b      	ldr	r3, [r7, #16]
 800646a:	071b      	lsls	r3, r3, #28
 800646c:	4974      	ldr	r1, [pc, #464]	; (8006640 <HAL_RCCEx_PeriphCLKConfig+0x280>)
 800646e:	4313      	orrs	r3, r2
 8006470:	f8c1 3084 	str.w	r3, [r1, #132]	; 0x84
      /* SAI_CLK_x = SAI_CLK(first level)/PLLI2SDIVQ */
      __HAL_RCC_PLLI2S_PLLSAICLKDIVQ_CONFIG(PeriphClkInit->PLLI2SDivQ);
 8006474:	4b72      	ldr	r3, [pc, #456]	; (8006640 <HAL_RCCEx_PeriphCLKConfig+0x280>)
 8006476:	f8d3 308c 	ldr.w	r3, [r3, #140]	; 0x8c
 800647a:	f023 021f 	bic.w	r2, r3, #31
 800647e:	687b      	ldr	r3, [r7, #4]
 8006480:	69db      	ldr	r3, [r3, #28]
 8006482:	3b01      	subs	r3, #1
 8006484:	496e      	ldr	r1, [pc, #440]	; (8006640 <HAL_RCCEx_PeriphCLKConfig+0x280>)
 8006486:	4313      	orrs	r3, r2
 8006488:	f8c1 308c 	str.w	r3, [r1, #140]	; 0x8c
    }

    /*----------------- In Case of PLLI2S is just selected  -----------------*/
    if((PeriphClkInit->PeriphClockSelection & RCC_PERIPHCLK_PLLI2S) == RCC_PERIPHCLK_PLLI2S)
 800648c:	687b      	ldr	r3, [r7, #4]
 800648e:	681b      	ldr	r3, [r3, #0]
 8006490:	f003 0340 	and.w	r3, r3, #64	; 0x40
 8006494:	2b00      	cmp	r3, #0
 8006496:	d00d      	beq.n	80064b4 <HAL_RCCEx_PeriphCLKConfig+0xf4>
      /* Check for Parameters */
      assert_param(IS_RCC_PLLI2SQ_VALUE(PeriphClkInit->PLLI2S.PLLI2SQ));
      assert_param(IS_RCC_PLLI2SR_VALUE(PeriphClkInit->PLLI2S.PLLI2SR));

      /* Configure the PLLI2S multiplication and division factors */
      __HAL_RCC_PLLI2S_SAICLK_CONFIG(PeriphClkInit->PLLI2S.PLLI2SN, PeriphClkInit->PLLI2S.PLLI2SQ, PeriphClkInit->PLLI2S.PLLI2SR);
 8006498:	687b      	ldr	r3, [r7, #4]
 800649a:	685b      	ldr	r3, [r3, #4]
 800649c:	019a      	lsls	r2, r3, #6
 800649e:	687b      	ldr	r3, [r7, #4]
 80064a0:	68db      	ldr	r3, [r3, #12]
 80064a2:	061b      	lsls	r3, r3, #24
 80064a4:	431a      	orrs	r2, r3
 80064a6:	687b      	ldr	r3, [r7, #4]
 80064a8:	689b      	ldr	r3, [r3, #8]
 80064aa:	071b      	lsls	r3, r3, #28
 80064ac:	4964      	ldr	r1, [pc, #400]	; (8006640 <HAL_RCCEx_PeriphCLKConfig+0x280>)
 80064ae:	4313      	orrs	r3, r2
 80064b0:	f8c1 3084 	str.w	r3, [r1, #132]	; 0x84
    }

    /* Enable the PLLI2S */
    __HAL_RCC_PLLI2S_ENABLE();
 80064b4:	4b61      	ldr	r3, [pc, #388]	; (800663c <HAL_RCCEx_PeriphCLKConfig+0x27c>)
 80064b6:	2201      	movs	r2, #1
 80064b8:	601a      	str	r2, [r3, #0]
    /* Get tick */
    tickstart = HAL_GetTick();
 80064ba:	f7fc fd0f 	bl	8002edc <HAL_GetTick>
 80064be:	6178      	str	r0, [r7, #20]
    /* Wait till PLLI2S is ready */
    while(__HAL_RCC_GET_FLAG(RCC_FLAG_PLLI2SRDY)  == RESET)
 80064c0:	e008      	b.n	80064d4 <HAL_RCCEx_PeriphCLKConfig+0x114>
    {
      if((HAL_GetTick() - tickstart ) > PLLI2S_TIMEOUT_VALUE)
 80064c2:	f7fc fd0b 	bl	8002edc <HAL_GetTick>
 80064c6:	4602      	mov	r2, r0
 80064c8:	697b      	ldr	r3, [r7, #20]
 80064ca:	1ad3      	subs	r3, r2, r3
 80064cc:	2b02      	cmp	r3, #2
 80064ce:	d901      	bls.n	80064d4 <HAL_RCCEx_PeriphCLKConfig+0x114>
      {
        /* return in case of Timeout detected */
        return HAL_TIMEOUT;
 80064d0:	2303      	movs	r3, #3
 80064d2:	e129      	b.n	8006728 <HAL_RCCEx_PeriphCLKConfig+0x368>
    while(__HAL_RCC_GET_FLAG(RCC_FLAG_PLLI2SRDY)  == RESET)
 80064d4:	4b5a      	ldr	r3, [pc, #360]	; (8006640 <HAL_RCCEx_PeriphCLKConfig+0x280>)
 80064d6:	681b      	ldr	r3, [r3, #0]
 80064d8:	f003 6300 	and.w	r3, r3, #134217728	; 0x8000000
 80064dc:	2b00      	cmp	r3, #0
 80064de:	d0f0      	beq.n	80064c2 <HAL_RCCEx_PeriphCLKConfig+0x102>

  /*----------------------- SAI/LTDC Configuration (PLLSAI) ------------------*/
  /*----------------------- Common configuration SAI/LTDC --------------------*/
  /* In Case of SAI or LTDC Clock Configuration through PLLSAI, PLLSAIN division
     factor is common parameters for both peripherals */
  if((((PeriphClkInit->PeriphClockSelection) & RCC_PERIPHCLK_SAI_PLLSAI) == RCC_PERIPHCLK_SAI_PLLSAI) ||
 80064e0:	687b      	ldr	r3, [r7, #4]
 80064e2:	681b      	ldr	r3, [r3, #0]
 80064e4:	f003 0304 	and.w	r3, r3, #4
 80064e8:	2b00      	cmp	r3, #0
 80064ea:	d105      	bne.n	80064f8 <HAL_RCCEx_PeriphCLKConfig+0x138>
     (((PeriphClkInit->PeriphClockSelection) & RCC_PERIPHCLK_LTDC) == RCC_PERIPHCLK_LTDC))
 80064ec:	687b      	ldr	r3, [r7, #4]
 80064ee:	681b      	ldr	r3, [r3, #0]
 80064f0:	f003 0308 	and.w	r3, r3, #8
  if((((PeriphClkInit->PeriphClockSelection) & RCC_PERIPHCLK_SAI_PLLSAI) == RCC_PERIPHCLK_SAI_PLLSAI) ||
 80064f4:	2b00      	cmp	r3, #0
 80064f6:	d079      	beq.n	80065ec <HAL_RCCEx_PeriphCLKConfig+0x22c>
  {
    /* Check the PLLSAI division factors */
    assert_param(IS_RCC_PLLSAIN_VALUE(PeriphClkInit->PLLSAI.PLLSAIN));

    /* Disable PLLSAI Clock */
    __HAL_RCC_PLLSAI_DISABLE();
 80064f8:	4b52      	ldr	r3, [pc, #328]	; (8006644 <HAL_RCCEx_PeriphCLKConfig+0x284>)
 80064fa:	2200      	movs	r2, #0
 80064fc:	601a      	str	r2, [r3, #0]
    /* Get tick */
    tickstart = HAL_GetTick();
 80064fe:	f7fc fced 	bl	8002edc <HAL_GetTick>
 8006502:	6178      	str	r0, [r7, #20]
    /* Wait till PLLSAI is disabled */
    while(__HAL_RCC_PLLSAI_GET_FLAG() != RESET)
 8006504:	e008      	b.n	8006518 <HAL_RCCEx_PeriphCLKConfig+0x158>
    {
      if((HAL_GetTick() - tickstart ) > PLLSAI_TIMEOUT_VALUE)
 8006506:	f7fc fce9 	bl	8002edc <HAL_GetTick>
 800650a:	4602      	mov	r2, r0
 800650c:	697b      	ldr	r3, [r7, #20]
 800650e:	1ad3      	subs	r3, r2, r3
 8006510:	2b02      	cmp	r3, #2
 8006512:	d901      	bls.n	8006518 <HAL_RCCEx_PeriphCLKConfig+0x158>
      {
        /* return in case of Timeout detected */
        return HAL_TIMEOUT;
 8006514:	2303      	movs	r3, #3
 8006516:	e107      	b.n	8006728 <HAL_RCCEx_PeriphCLKConfig+0x368>
    while(__HAL_RCC_PLLSAI_GET_FLAG() != RESET)
 8006518:	4b49      	ldr	r3, [pc, #292]	; (8006640 <HAL_RCCEx_PeriphCLKConfig+0x280>)
 800651a:	681b      	ldr	r3, [r3, #0]
 800651c:	f003 5300 	and.w	r3, r3, #536870912	; 0x20000000
 8006520:	f1b3 5f00 	cmp.w	r3, #536870912	; 0x20000000
 8006524:	d0ef      	beq.n	8006506 <HAL_RCCEx_PeriphCLKConfig+0x146>
    }

    /*---------------------------- SAI configuration -------------------------*/
    /* In Case of SAI Clock Configuration through PLLSAI, PLLSAIQ and PLLSAI_DIVQ must
       be added only for SAI configuration */
    if(((PeriphClkInit->PeriphClockSelection) & RCC_PERIPHCLK_SAI_PLLSAI) == (RCC_PERIPHCLK_SAI_PLLSAI))
 8006526:	687b      	ldr	r3, [r7, #4]
 8006528:	681b      	ldr	r3, [r3, #0]
 800652a:	f003 0304 	and.w	r3, r3, #4
 800652e:	2b00      	cmp	r3, #0
 8006530:	d020      	beq.n	8006574 <HAL_RCCEx_PeriphCLKConfig+0x1b4>
    {
      assert_param(IS_RCC_PLLSAIQ_VALUE(PeriphClkInit->PLLSAI.PLLSAIQ));
      assert_param(IS_RCC_PLLSAI_DIVQ_VALUE(PeriphClkInit->PLLSAIDivQ));

      /* Read PLLSAIR value from PLLSAICFGR register (this value is not need for SAI configuration) */
      tmpreg1 = ((RCC->PLLSAICFGR & RCC_PLLSAICFGR_PLLSAIR) >> RCC_PLLSAICFGR_PLLSAIR_Pos);
 8006532:	4b43      	ldr	r3, [pc, #268]	; (8006640 <HAL_RCCEx_PeriphCLKConfig+0x280>)
 8006534:	f8d3 3088 	ldr.w	r3, [r3, #136]	; 0x88
 8006538:	0f1b      	lsrs	r3, r3, #28
 800653a:	f003 0307 	and.w	r3, r3, #7
 800653e:	613b      	str	r3, [r7, #16]
      /* PLLSAI_VCO Input  = PLL_SOURCE/PLLM */
      /* PLLSAI_VCO Output = PLLSAI_VCO Input * PLLSAIN */
      /* SAI_CLK(first level) = PLLSAI_VCO Output/PLLSAIQ */
      __HAL_RCC_PLLSAI_CONFIG(PeriphClkInit->PLLSAI.PLLSAIN , PeriphClkInit->PLLSAI.PLLSAIQ, tmpreg1);
 8006540:	687b      	ldr	r3, [r7, #4]
 8006542:	691b      	ldr	r3, [r3, #16]
 8006544:	019a      	lsls	r2, r3, #6
 8006546:	687b      	ldr	r3, [r7, #4]
 8006548:	695b      	ldr	r3, [r3, #20]
 800654a:	061b      	lsls	r3, r3, #24
 800654c:	431a      	orrs	r2, r3
 800654e:	693b      	ldr	r3, [r7, #16]
 8006550:	071b      	lsls	r3, r3, #28
 8006552:	493b      	ldr	r1, [pc, #236]	; (8006640 <HAL_RCCEx_PeriphCLKConfig+0x280>)
 8006554:	4313      	orrs	r3, r2
 8006556:	f8c1 3088 	str.w	r3, [r1, #136]	; 0x88
      /* SAI_CLK_x = SAI_CLK(first level)/PLLSAIDIVQ */
      __HAL_RCC_PLLSAI_PLLSAICLKDIVQ_CONFIG(PeriphClkInit->PLLSAIDivQ);
 800655a:	4b39      	ldr	r3, [pc, #228]	; (8006640 <HAL_RCCEx_PeriphCLKConfig+0x280>)
 800655c:	f8d3 308c 	ldr.w	r3, [r3, #140]	; 0x8c
 8006560:	f423 52f8 	bic.w	r2, r3, #7936	; 0x1f00
 8006564:	687b      	ldr	r3, [r7, #4]
 8006566:	6a1b      	ldr	r3, [r3, #32]
 8006568:	3b01      	subs	r3, #1
 800656a:	021b      	lsls	r3, r3, #8
 800656c:	4934      	ldr	r1, [pc, #208]	; (8006640 <HAL_RCCEx_PeriphCLKConfig+0x280>)
 800656e:	4313      	orrs	r3, r2
 8006570:	f8c1 308c 	str.w	r3, [r1, #140]	; 0x8c
    }

    /*---------------------------- LTDC configuration ------------------------*/
    if(((PeriphClkInit->PeriphClockSelection) & RCC_PERIPHCLK_LTDC) == (RCC_PERIPHCLK_LTDC))
 8006574:	687b      	ldr	r3, [r7, #4]
 8006576:	681b      	ldr	r3, [r3, #0]
 8006578:	f003 0308 	and.w	r3, r3, #8
 800657c:	2b00      	cmp	r3, #0
 800657e:	d01e      	beq.n	80065be <HAL_RCCEx_PeriphCLKConfig+0x1fe>
    {
      assert_param(IS_RCC_PLLSAIR_VALUE(PeriphClkInit->PLLSAI.PLLSAIR));
      assert_param(IS_RCC_PLLSAI_DIVR_VALUE(PeriphClkInit->PLLSAIDivR));

      /* Read PLLSAIR value from PLLSAICFGR register (this value is not need for SAI configuration) */
      tmpreg1 = ((RCC->PLLSAICFGR & RCC_PLLSAICFGR_PLLSAIQ) >> RCC_PLLSAICFGR_PLLSAIQ_Pos);
 8006580:	4b2f      	ldr	r3, [pc, #188]	; (8006640 <HAL_RCCEx_PeriphCLKConfig+0x280>)
 8006582:	f8d3 3088 	ldr.w	r3, [r3, #136]	; 0x88
 8006586:	0e1b      	lsrs	r3, r3, #24
 8006588:	f003 030f 	and.w	r3, r3, #15
 800658c:	613b      	str	r3, [r7, #16]
      /* PLLSAI_VCO Input  = PLL_SOURCE/PLLM */
      /* PLLSAI_VCO Output = PLLSAI_VCO Input * PLLSAIN */
      /* LTDC_CLK(first level) = PLLSAI_VCO Output/PLLSAIR */
      __HAL_RCC_PLLSAI_CONFIG(PeriphClkInit->PLLSAI.PLLSAIN , tmpreg1, PeriphClkInit->PLLSAI.PLLSAIR);
 800658e:	687b      	ldr	r3, [r7, #4]
 8006590:	691b      	ldr	r3, [r3, #16]
 8006592:	019a      	lsls	r2, r3, #6
 8006594:	693b      	ldr	r3, [r7, #16]
 8006596:	061b      	lsls	r3, r3, #24
 8006598:	431a      	orrs	r2, r3
 800659a:	687b      	ldr	r3, [r7, #4]
 800659c:	699b      	ldr	r3, [r3, #24]
 800659e:	071b      	lsls	r3, r3, #28
 80065a0:	4927      	ldr	r1, [pc, #156]	; (8006640 <HAL_RCCEx_PeriphCLKConfig+0x280>)
 80065a2:	4313      	orrs	r3, r2
 80065a4:	f8c1 3088 	str.w	r3, [r1, #136]	; 0x88
      /* LTDC_CLK = LTDC_CLK(first level)/PLLSAIDIVR */
      __HAL_RCC_PLLSAI_PLLSAICLKDIVR_CONFIG(PeriphClkInit->PLLSAIDivR);
 80065a8:	4b25      	ldr	r3, [pc, #148]	; (8006640 <HAL_RCCEx_PeriphCLKConfig+0x280>)
 80065aa:	f8d3 308c 	ldr.w	r3, [r3, #140]	; 0x8c
 80065ae:	f423 3240 	bic.w	r2, r3, #196608	; 0x30000
 80065b2:	687b      	ldr	r3, [r7, #4]
 80065b4:	6a5b      	ldr	r3, [r3, #36]	; 0x24
 80065b6:	4922      	ldr	r1, [pc, #136]	; (8006640 <HAL_RCCEx_PeriphCLKConfig+0x280>)
 80065b8:	4313      	orrs	r3, r2
 80065ba:	f8c1 308c 	str.w	r3, [r1, #140]	; 0x8c
    }
    /* Enable PLLSAI Clock */
    __HAL_RCC_PLLSAI_ENABLE();
 80065be:	4b21      	ldr	r3, [pc, #132]	; (8006644 <HAL_RCCEx_PeriphCLKConfig+0x284>)
 80065c0:	2201      	movs	r2, #1
 80065c2:	601a      	str	r2, [r3, #0]
    /* Get tick */
    tickstart = HAL_GetTick();
 80065c4:	f7fc fc8a 	bl	8002edc <HAL_GetTick>
 80065c8:	6178      	str	r0, [r7, #20]
    /* Wait till PLLSAI is ready */
    while(__HAL_RCC_PLLSAI_GET_FLAG() == RESET)
 80065ca:	e008      	b.n	80065de <HAL_RCCEx_PeriphCLKConfig+0x21e>
    {
      if((HAL_GetTick() - tickstart ) > PLLSAI_TIMEOUT_VALUE)
 80065cc:	f7fc fc86 	bl	8002edc <HAL_GetTick>
 80065d0:	4602      	mov	r2, r0
 80065d2:	697b      	ldr	r3, [r7, #20]
 80065d4:	1ad3      	subs	r3, r2, r3
 80065d6:	2b02      	cmp	r3, #2
 80065d8:	d901      	bls.n	80065de <HAL_RCCEx_PeriphCLKConfig+0x21e>
      {
        /* return in case of Timeout detected */
        return HAL_TIMEOUT;
 80065da:	2303      	movs	r3, #3
 80065dc:	e0a4      	b.n	8006728 <HAL_RCCEx_PeriphCLKConfig+0x368>
    while(__HAL_RCC_PLLSAI_GET_FLAG() == RESET)
 80065de:	4b18      	ldr	r3, [pc, #96]	; (8006640 <HAL_RCCEx_PeriphCLKConfig+0x280>)
 80065e0:	681b      	ldr	r3, [r3, #0]
 80065e2:	f003 5300 	and.w	r3, r3, #536870912	; 0x20000000
 80065e6:	f1b3 5f00 	cmp.w	r3, #536870912	; 0x20000000
 80065ea:	d1ef      	bne.n	80065cc <HAL_RCCEx_PeriphCLKConfig+0x20c>
    }
  }
  /*--------------------------------------------------------------------------*/

  /*---------------------------- RTC configuration ---------------------------*/
  if(((PeriphClkInit->PeriphClockSelection) & RCC_PERIPHCLK_RTC) == (RCC_PERIPHCLK_RTC))
 80065ec:	687b      	ldr	r3, [r7, #4]
 80065ee:	681b      	ldr	r3, [r3, #0]
 80065f0:	f003 0320 	and.w	r3, r3, #32
 80065f4:	2b00      	cmp	r3, #0
 80065f6:	f000 808b 	beq.w	8006710 <HAL_RCCEx_PeriphCLKConfig+0x350>
  {
    /* Check for RTC Parameters used to output RTCCLK */
    assert_param(IS_RCC_RTCCLKSOURCE(PeriphClkInit->RTCClockSelection));

    /* Enable Power Clock*/
    __HAL_RCC_PWR_CLK_ENABLE();
 80065fa:	2300      	movs	r3, #0
 80065fc:	60fb      	str	r3, [r7, #12]
 80065fe:	4b10      	ldr	r3, [pc, #64]	; (8006640 <HAL_RCCEx_PeriphCLKConfig+0x280>)
 8006600:	6c1b      	ldr	r3, [r3, #64]	; 0x40
 8006602:	4a0f      	ldr	r2, [pc, #60]	; (8006640 <HAL_RCCEx_PeriphCLKConfig+0x280>)
 8006604:	f043 5380 	orr.w	r3, r3, #268435456	; 0x10000000
 8006608:	6413      	str	r3, [r2, #64]	; 0x40
 800660a:	4b0d      	ldr	r3, [pc, #52]	; (8006640 <HAL_RCCEx_PeriphCLKConfig+0x280>)
 800660c:	6c1b      	ldr	r3, [r3, #64]	; 0x40
 800660e:	f003 5380 	and.w	r3, r3, #268435456	; 0x10000000
 8006612:	60fb      	str	r3, [r7, #12]
 8006614:	68fb      	ldr	r3, [r7, #12]

    /* Enable write access to Backup domain */
    PWR->CR |= PWR_CR_DBP;
 8006616:	4b0c      	ldr	r3, [pc, #48]	; (8006648 <HAL_RCCEx_PeriphCLKConfig+0x288>)
 8006618:	681b      	ldr	r3, [r3, #0]
 800661a:	4a0b      	ldr	r2, [pc, #44]	; (8006648 <HAL_RCCEx_PeriphCLKConfig+0x288>)
 800661c:	f443 7380 	orr.w	r3, r3, #256	; 0x100
 8006620:	6013      	str	r3, [r2, #0]

    /* Get tick */
    tickstart = HAL_GetTick();
 8006622:	f7fc fc5b 	bl	8002edc <HAL_GetTick>
 8006626:	6178      	str	r0, [r7, #20]

    while((PWR->CR & PWR_CR_DBP) == RESET)
 8006628:	e010      	b.n	800664c <HAL_RCCEx_PeriphCLKConfig+0x28c>
    {
      if((HAL_GetTick() - tickstart ) > RCC_DBP_TIMEOUT_VALUE)
 800662a:	f7fc fc57 	bl	8002edc <HAL_GetTick>
 800662e:	4602      	mov	r2, r0
 8006630:	697b      	ldr	r3, [r7, #20]
 8006632:	1ad3      	subs	r3, r2, r3
 8006634:	2b02      	cmp	r3, #2
 8006636:	d909      	bls.n	800664c <HAL_RCCEx_PeriphCLKConfig+0x28c>
      {
        return HAL_TIMEOUT;
 8006638:	2303      	movs	r3, #3
 800663a:	e075      	b.n	8006728 <HAL_RCCEx_PeriphCLKConfig+0x368>
 800663c:	42470068 	.word	0x42470068
 8006640:	40023800 	.word	0x40023800
 8006644:	42470070 	.word	0x42470070
 8006648:	40007000 	.word	0x40007000
    while((PWR->CR & PWR_CR_DBP) == RESET)
 800664c:	4b38      	ldr	r3, [pc, #224]	; (8006730 <HAL_RCCEx_PeriphCLKConfig+0x370>)
 800664e:	681b      	ldr	r3, [r3, #0]
 8006650:	f403 7380 	and.w	r3, r3, #256	; 0x100
 8006654:	2b00      	cmp	r3, #0
 8006656:	d0e8      	beq.n	800662a <HAL_RCCEx_PeriphCLKConfig+0x26a>
      }
    }
    /* Reset the Backup domain only if the RTC Clock source selection is modified from reset value */
    tmpreg1 = (RCC->BDCR & RCC_BDCR_RTCSEL);
 8006658:	4b36      	ldr	r3, [pc, #216]	; (8006734 <HAL_RCCEx_PeriphCLKConfig+0x374>)
 800665a:	6f1b      	ldr	r3, [r3, #112]	; 0x70
 800665c:	f403 7340 	and.w	r3, r3, #768	; 0x300
 8006660:	613b      	str	r3, [r7, #16]
    if((tmpreg1 != 0x00000000U) && ((tmpreg1) != (PeriphClkInit->RTCClockSelection & RCC_BDCR_RTCSEL)))
 8006662:	693b      	ldr	r3, [r7, #16]
 8006664:	2b00      	cmp	r3, #0
 8006666:	d02f      	beq.n	80066c8 <HAL_RCCEx_PeriphCLKConfig+0x308>
 8006668:	687b      	ldr	r3, [r7, #4]
 800666a:	6a9b      	ldr	r3, [r3, #40]	; 0x28
 800666c:	f403 7340 	and.w	r3, r3, #768	; 0x300
 8006670:	693a      	ldr	r2, [r7, #16]
 8006672:	429a      	cmp	r2, r3
 8006674:	d028      	beq.n	80066c8 <HAL_RCCEx_PeriphCLKConfig+0x308>
    {
      /* Store the content of BDCR register before the reset of Backup Domain */
      tmpreg1 = (RCC->BDCR & ~(RCC_BDCR_RTCSEL));
 8006676:	4b2f      	ldr	r3, [pc, #188]	; (8006734 <HAL_RCCEx_PeriphCLKConfig+0x374>)
 8006678:	6f1b      	ldr	r3, [r3, #112]	; 0x70
 800667a:	f423 7340 	bic.w	r3, r3, #768	; 0x300
 800667e:	613b      	str	r3, [r7, #16]
      /* RTC Clock selection can be changed only if the Backup Domain is reset */
      __HAL_RCC_BACKUPRESET_FORCE();
 8006680:	4b2d      	ldr	r3, [pc, #180]	; (8006738 <HAL_RCCEx_PeriphCLKConfig+0x378>)
 8006682:	2201      	movs	r2, #1
 8006684:	601a      	str	r2, [r3, #0]
      __HAL_RCC_BACKUPRESET_RELEASE();
 8006686:	4b2c      	ldr	r3, [pc, #176]	; (8006738 <HAL_RCCEx_PeriphCLKConfig+0x378>)
 8006688:	2200      	movs	r2, #0
 800668a:	601a      	str	r2, [r3, #0]
      /* Restore the Content of BDCR register */
      RCC->BDCR = tmpreg1;
 800668c:	4a29      	ldr	r2, [pc, #164]	; (8006734 <HAL_RCCEx_PeriphCLKConfig+0x374>)
 800668e:	693b      	ldr	r3, [r7, #16]
 8006690:	6713      	str	r3, [r2, #112]	; 0x70

      /* Wait for LSE reactivation if LSE was enable prior to Backup Domain reset */
      if(HAL_IS_BIT_SET(RCC->BDCR, RCC_BDCR_LSEON))
 8006692:	4b28      	ldr	r3, [pc, #160]	; (8006734 <HAL_RCCEx_PeriphCLKConfig+0x374>)
 8006694:	6f1b      	ldr	r3, [r3, #112]	; 0x70
 8006696:	f003 0301 	and.w	r3, r3, #1
 800669a:	2b01      	cmp	r3, #1
 800669c:	d114      	bne.n	80066c8 <HAL_RCCEx_PeriphCLKConfig+0x308>
      {
        /* Get tick */
        tickstart = HAL_GetTick();
 800669e:	f7fc fc1d 	bl	8002edc <HAL_GetTick>
 80066a2:	6178      	str	r0, [r7, #20]

        /* Wait till LSE is ready */
        while(__HAL_RCC_GET_FLAG(RCC_FLAG_LSERDY) == RESET)
 80066a4:	e00a      	b.n	80066bc <HAL_RCCEx_PeriphCLKConfig+0x2fc>
        {
          if((HAL_GetTick() - tickstart ) > RCC_LSE_TIMEOUT_VALUE)
 80066a6:	f7fc fc19 	bl	8002edc <HAL_GetTick>
 80066aa:	4602      	mov	r2, r0
 80066ac:	697b      	ldr	r3, [r7, #20]
 80066ae:	1ad3      	subs	r3, r2, r3
 80066b0:	f241 3288 	movw	r2, #5000	; 0x1388
 80066b4:	4293      	cmp	r3, r2
 80066b6:	d901      	bls.n	80066bc <HAL_RCCEx_PeriphCLKConfig+0x2fc>
          {
            return HAL_TIMEOUT;
 80066b8:	2303      	movs	r3, #3
 80066ba:	e035      	b.n	8006728 <HAL_RCCEx_PeriphCLKConfig+0x368>
        while(__HAL_RCC_GET_FLAG(RCC_FLAG_LSERDY) == RESET)
 80066bc:	4b1d      	ldr	r3, [pc, #116]	; (8006734 <HAL_RCCEx_PeriphCLKConfig+0x374>)
 80066be:	6f1b      	ldr	r3, [r3, #112]	; 0x70
 80066c0:	f003 0302 	and.w	r3, r3, #2
 80066c4:	2b00      	cmp	r3, #0
 80066c6:	d0ee      	beq.n	80066a6 <HAL_RCCEx_PeriphCLKConfig+0x2e6>
          }
        }
      }
    }
    __HAL_RCC_RTC_CONFIG(PeriphClkInit->RTCClockSelection);
 80066c8:	687b      	ldr	r3, [r7, #4]
 80066ca:	6a9b      	ldr	r3, [r3, #40]	; 0x28
 80066cc:	f403 7340 	and.w	r3, r3, #768	; 0x300
 80066d0:	f5b3 7f40 	cmp.w	r3, #768	; 0x300
 80066d4:	d10d      	bne.n	80066f2 <HAL_RCCEx_PeriphCLKConfig+0x332>
 80066d6:	4b17      	ldr	r3, [pc, #92]	; (8006734 <HAL_RCCEx_PeriphCLKConfig+0x374>)
 80066d8:	689b      	ldr	r3, [r3, #8]
 80066da:	f423 12f8 	bic.w	r2, r3, #2031616	; 0x1f0000
 80066de:	687b      	ldr	r3, [r7, #4]
 80066e0:	6a9b      	ldr	r3, [r3, #40]	; 0x28
 80066e2:	f023 4370 	bic.w	r3, r3, #4026531840	; 0xf0000000
 80066e6:	f423 7340 	bic.w	r3, r3, #768	; 0x300
 80066ea:	4912      	ldr	r1, [pc, #72]	; (8006734 <HAL_RCCEx_PeriphCLKConfig+0x374>)
 80066ec:	4313      	orrs	r3, r2
 80066ee:	608b      	str	r3, [r1, #8]
 80066f0:	e005      	b.n	80066fe <HAL_RCCEx_PeriphCLKConfig+0x33e>
 80066f2:	4b10      	ldr	r3, [pc, #64]	; (8006734 <HAL_RCCEx_PeriphCLKConfig+0x374>)
 80066f4:	689b      	ldr	r3, [r3, #8]
 80066f6:	4a0f      	ldr	r2, [pc, #60]	; (8006734 <HAL_RCCEx_PeriphCLKConfig+0x374>)
 80066f8:	f423 13f8 	bic.w	r3, r3, #2031616	; 0x1f0000
 80066fc:	6093      	str	r3, [r2, #8]
 80066fe:	4b0d      	ldr	r3, [pc, #52]	; (8006734 <HAL_RCCEx_PeriphCLKConfig+0x374>)
 8006700:	6f1a      	ldr	r2, [r3, #112]	; 0x70
 8006702:	687b      	ldr	r3, [r7, #4]
 8006704:	6a9b      	ldr	r3, [r3, #40]	; 0x28
 8006706:	f3c3 030b 	ubfx	r3, r3, #0, #12
 800670a:	490a      	ldr	r1, [pc, #40]	; (8006734 <HAL_RCCEx_PeriphCLKConfig+0x374>)
 800670c:	4313      	orrs	r3, r2
 800670e:	670b      	str	r3, [r1, #112]	; 0x70
  }
  /*--------------------------------------------------------------------------*/

  /*---------------------------- TIM configuration ---------------------------*/
  if(((PeriphClkInit->PeriphClockSelection) & RCC_PERIPHCLK_TIM) == (RCC_PERIPHCLK_TIM))
 8006710:	687b      	ldr	r3, [r7, #4]
 8006712:	681b      	ldr	r3, [r3, #0]
 8006714:	f003 0310 	and.w	r3, r3, #16
 8006718:	2b00      	cmp	r3, #0
 800671a:	d004      	beq.n	8006726 <HAL_RCCEx_PeriphCLKConfig+0x366>
  {
    __HAL_RCC_TIMCLKPRESCALER(PeriphClkInit->TIMPresSelection);
 800671c:	687b      	ldr	r3, [r7, #4]
 800671e:	f893 202c 	ldrb.w	r2, [r3, #44]	; 0x2c
 8006722:	4b06      	ldr	r3, [pc, #24]	; (800673c <HAL_RCCEx_PeriphCLKConfig+0x37c>)
 8006724:	601a      	str	r2, [r3, #0]
  }
  return HAL_OK;
 8006726:	2300      	movs	r3, #0
}
 8006728:	4618      	mov	r0, r3
 800672a:	3718      	adds	r7, #24
 800672c:	46bd      	mov	sp, r7
 800672e:	bd80      	pop	{r7, pc}
 8006730:	40007000 	.word	0x40007000
 8006734:	40023800 	.word	0x40023800
 8006738:	42470e40 	.word	0x42470e40
 800673c:	424711e0 	.word	0x424711e0

08006740 <HAL_RTC_Init>:
  * @param  hrtc pointer to a RTC_HandleTypeDef structure that contains
  *                the configuration information for RTC.
  * @retval HAL status
  */
HAL_StatusTypeDef HAL_RTC_Init(RTC_HandleTypeDef *hrtc)
{
 8006740:	b580      	push	{r7, lr}
 8006742:	b084      	sub	sp, #16
 8006744:	af00      	add	r7, sp, #0
 8006746:	6078      	str	r0, [r7, #4]
  HAL_StatusTypeDef status = HAL_ERROR;
 8006748:	2301      	movs	r3, #1
 800674a:	73fb      	strb	r3, [r7, #15]

  /* Check RTC handler validity */
  if (hrtc == NULL)
 800674c:	687b      	ldr	r3, [r7, #4]
 800674e:	2b00      	cmp	r3, #0
 8006750:	d101      	bne.n	8006756 <HAL_RTC_Init+0x16>
  {
    return HAL_ERROR;
 8006752:	2301      	movs	r3, #1
 8006754:	e073      	b.n	800683e <HAL_RTC_Init+0xfe>
    {
      hrtc->MspDeInitCallback = HAL_RTC_MspDeInit;
    }
  }
#else /* USE_HAL_RTC_REGISTER_CALLBACKS */
  if (hrtc->State == HAL_RTC_STATE_RESET)
 8006756:	687b      	ldr	r3, [r7, #4]
 8006758:	7f5b      	ldrb	r3, [r3, #29]
 800675a:	b2db      	uxtb	r3, r3
 800675c:	2b00      	cmp	r3, #0
 800675e:	d105      	bne.n	800676c <HAL_RTC_Init+0x2c>
  {
    /* Allocate lock resource and initialize it */
    hrtc->Lock = HAL_UNLOCKED;
 8006760:	687b      	ldr	r3, [r7, #4]
 8006762:	2200      	movs	r2, #0
 8006764:	771a      	strb	r2, [r3, #28]

    /* Initialize RTC MSP */
    HAL_RTC_MspInit(hrtc);
 8006766:	6878      	ldr	r0, [r7, #4]
 8006768:	f7fc f83a 	bl	80027e0 <HAL_RTC_MspInit>
  }
#endif /* USE_HAL_RTC_REGISTER_CALLBACKS */

  /* Set RTC state */
  hrtc->State = HAL_RTC_STATE_BUSY;
 800676c:	687b      	ldr	r3, [r7, #4]
 800676e:	2202      	movs	r2, #2
 8006770:	775a      	strb	r2, [r3, #29]

  /* Check whether the calendar needs to be initialized */
  if (__HAL_RTC_IS_CALENDAR_INITIALIZED(hrtc) == 0U)
 8006772:	687b      	ldr	r3, [r7, #4]
 8006774:	681b      	ldr	r3, [r3, #0]
 8006776:	68db      	ldr	r3, [r3, #12]
 8006778:	f003 0310 	and.w	r3, r3, #16
 800677c:	2b10      	cmp	r3, #16
 800677e:	d055      	beq.n	800682c <HAL_RTC_Init+0xec>
  {
    /* Disable the write protection for RTC registers */
    __HAL_RTC_WRITEPROTECTION_DISABLE(hrtc);
 8006780:	687b      	ldr	r3, [r7, #4]
 8006782:	681b      	ldr	r3, [r3, #0]
 8006784:	22ca      	movs	r2, #202	; 0xca
 8006786:	625a      	str	r2, [r3, #36]	; 0x24
 8006788:	687b      	ldr	r3, [r7, #4]
 800678a:	681b      	ldr	r3, [r3, #0]
 800678c:	2253      	movs	r2, #83	; 0x53
 800678e:	625a      	str	r2, [r3, #36]	; 0x24

    /* Enter Initialization mode */
    status = RTC_EnterInitMode(hrtc);
 8006790:	6878      	ldr	r0, [r7, #4]
 8006792:	f000 fa49 	bl	8006c28 <RTC_EnterInitMode>
 8006796:	4603      	mov	r3, r0
 8006798:	73fb      	strb	r3, [r7, #15]

    if (status == HAL_OK)
 800679a:	7bfb      	ldrb	r3, [r7, #15]
 800679c:	2b00      	cmp	r3, #0
 800679e:	d12c      	bne.n	80067fa <HAL_RTC_Init+0xba>
    {
      /* Clear RTC_CR FMT, OSEL and POL Bits */
      hrtc->Instance->CR &= ((uint32_t)~(RTC_CR_FMT | RTC_CR_OSEL | RTC_CR_POL));
 80067a0:	687b      	ldr	r3, [r7, #4]
 80067a2:	681b      	ldr	r3, [r3, #0]
 80067a4:	689b      	ldr	r3, [r3, #8]
 80067a6:	687a      	ldr	r2, [r7, #4]
 80067a8:	6812      	ldr	r2, [r2, #0]
 80067aa:	f423 03e0 	bic.w	r3, r3, #7340032	; 0x700000
 80067ae:	f023 0340 	bic.w	r3, r3, #64	; 0x40
 80067b2:	6093      	str	r3, [r2, #8]
      /* Set RTC_CR register */
      hrtc->Instance->CR |= (uint32_t)(hrtc->Init.HourFormat | hrtc->Init.OutPut | hrtc->Init.OutPutPolarity);
 80067b4:	687b      	ldr	r3, [r7, #4]
 80067b6:	681b      	ldr	r3, [r3, #0]
 80067b8:	6899      	ldr	r1, [r3, #8]
 80067ba:	687b      	ldr	r3, [r7, #4]
 80067bc:	685a      	ldr	r2, [r3, #4]
 80067be:	687b      	ldr	r3, [r7, #4]
 80067c0:	691b      	ldr	r3, [r3, #16]
 80067c2:	431a      	orrs	r2, r3
 80067c4:	687b      	ldr	r3, [r7, #4]
 80067c6:	695b      	ldr	r3, [r3, #20]
 80067c8:	431a      	orrs	r2, r3
 80067ca:	687b      	ldr	r3, [r7, #4]
 80067cc:	681b      	ldr	r3, [r3, #0]
 80067ce:	430a      	orrs	r2, r1
 80067d0:	609a      	str	r2, [r3, #8]

      /* Configure the RTC PRER */
      hrtc->Instance->PRER = (uint32_t)(hrtc->Init.SynchPrediv);
 80067d2:	687b      	ldr	r3, [r7, #4]
 80067d4:	681b      	ldr	r3, [r3, #0]
 80067d6:	687a      	ldr	r2, [r7, #4]
 80067d8:	68d2      	ldr	r2, [r2, #12]
 80067da:	611a      	str	r2, [r3, #16]
      hrtc->Instance->PRER |= (uint32_t)(hrtc->Init.AsynchPrediv << RTC_PRER_PREDIV_A_Pos);
 80067dc:	687b      	ldr	r3, [r7, #4]
 80067de:	681b      	ldr	r3, [r3, #0]
 80067e0:	6919      	ldr	r1, [r3, #16]
 80067e2:	687b      	ldr	r3, [r7, #4]
 80067e4:	689b      	ldr	r3, [r3, #8]
 80067e6:	041a      	lsls	r2, r3, #16
 80067e8:	687b      	ldr	r3, [r7, #4]
 80067ea:	681b      	ldr	r3, [r3, #0]
 80067ec:	430a      	orrs	r2, r1
 80067ee:	611a      	str	r2, [r3, #16]

      /* Exit Initialization mode */
      status = RTC_ExitInitMode(hrtc);
 80067f0:	6878      	ldr	r0, [r7, #4]
 80067f2:	f000 fa50 	bl	8006c96 <RTC_ExitInitMode>
 80067f6:	4603      	mov	r3, r0
 80067f8:	73fb      	strb	r3, [r7, #15]
    }

    if (status == HAL_OK)
 80067fa:	7bfb      	ldrb	r3, [r7, #15]
 80067fc:	2b00      	cmp	r3, #0
 80067fe:	d110      	bne.n	8006822 <HAL_RTC_Init+0xe2>
    {
      hrtc->Instance->TAFCR &= (uint32_t)~RTC_OUTPUT_TYPE_PUSHPULL;
 8006800:	687b      	ldr	r3, [r7, #4]
 8006802:	681b      	ldr	r3, [r3, #0]
 8006804:	6c1a      	ldr	r2, [r3, #64]	; 0x40
 8006806:	687b      	ldr	r3, [r7, #4]
 8006808:	681b      	ldr	r3, [r3, #0]
 800680a:	f422 2280 	bic.w	r2, r2, #262144	; 0x40000
 800680e:	641a      	str	r2, [r3, #64]	; 0x40
      hrtc->Instance->TAFCR |= (uint32_t)(hrtc->Init.OutPutType);
 8006810:	687b      	ldr	r3, [r7, #4]
 8006812:	681b      	ldr	r3, [r3, #0]
 8006814:	6c19      	ldr	r1, [r3, #64]	; 0x40
 8006816:	687b      	ldr	r3, [r7, #4]
 8006818:	699a      	ldr	r2, [r3, #24]
 800681a:	687b      	ldr	r3, [r7, #4]
 800681c:	681b      	ldr	r3, [r3, #0]
 800681e:	430a      	orrs	r2, r1
 8006820:	641a      	str	r2, [r3, #64]	; 0x40
    }

    /* Enable the write protection for RTC registers */
    __HAL_RTC_WRITEPROTECTION_ENABLE(hrtc);
 8006822:	687b      	ldr	r3, [r7, #4]
 8006824:	681b      	ldr	r3, [r3, #0]
 8006826:	22ff      	movs	r2, #255	; 0xff
 8006828:	625a      	str	r2, [r3, #36]	; 0x24
 800682a:	e001      	b.n	8006830 <HAL_RTC_Init+0xf0>
  }
  else
  {
    /* The calendar is already initialized */
    status = HAL_OK;
 800682c:	2300      	movs	r3, #0
 800682e:	73fb      	strb	r3, [r7, #15]
  }

  if (status == HAL_OK)
 8006830:	7bfb      	ldrb	r3, [r7, #15]
 8006832:	2b00      	cmp	r3, #0
 8006834:	d102      	bne.n	800683c <HAL_RTC_Init+0xfc>
  {
    hrtc->State = HAL_RTC_STATE_READY;
 8006836:	687b      	ldr	r3, [r7, #4]
 8006838:	2201      	movs	r2, #1
 800683a:	775a      	strb	r2, [r3, #29]
  }

  return status;
 800683c:	7bfb      	ldrb	r3, [r7, #15]
}
 800683e:	4618      	mov	r0, r3
 8006840:	3710      	adds	r7, #16
 8006842:	46bd      	mov	sp, r7
 8006844:	bd80      	pop	{r7, pc}

08006846 <HAL_RTC_SetTime>:
  *            @arg RTC_FORMAT_BIN: Binary data format
  *            @arg RTC_FORMAT_BCD: BCD data format
  * @retval HAL status
  */
HAL_StatusTypeDef HAL_RTC_SetTime(RTC_HandleTypeDef *hrtc, RTC_TimeTypeDef *sTime, uint32_t Format)
{
 8006846:	b590      	push	{r4, r7, lr}
 8006848:	b087      	sub	sp, #28
 800684a:	af00      	add	r7, sp, #0
 800684c:	60f8      	str	r0, [r7, #12]
 800684e:	60b9      	str	r1, [r7, #8]
 8006850:	607a      	str	r2, [r7, #4]
  uint32_t tmpreg = 0U;
 8006852:	2300      	movs	r3, #0
 8006854:	617b      	str	r3, [r7, #20]
  assert_param(IS_RTC_FORMAT(Format));
  assert_param(IS_RTC_DAYLIGHT_SAVING(sTime->DayLightSaving));
  assert_param(IS_RTC_STORE_OPERATION(sTime->StoreOperation));

  /* Process Locked */
  __HAL_LOCK(hrtc);
 8006856:	68fb      	ldr	r3, [r7, #12]
 8006858:	7f1b      	ldrb	r3, [r3, #28]
 800685a:	2b01      	cmp	r3, #1
 800685c:	d101      	bne.n	8006862 <HAL_RTC_SetTime+0x1c>
 800685e:	2302      	movs	r3, #2
 8006860:	e087      	b.n	8006972 <HAL_RTC_SetTime+0x12c>
 8006862:	68fb      	ldr	r3, [r7, #12]
 8006864:	2201      	movs	r2, #1
 8006866:	771a      	strb	r2, [r3, #28]

  hrtc->State = HAL_RTC_STATE_BUSY;
 8006868:	68fb      	ldr	r3, [r7, #12]
 800686a:	2202      	movs	r2, #2
 800686c:	775a      	strb	r2, [r3, #29]

  if (Format == RTC_FORMAT_BIN)
 800686e:	687b      	ldr	r3, [r7, #4]
 8006870:	2b00      	cmp	r3, #0
 8006872:	d126      	bne.n	80068c2 <HAL_RTC_SetTime+0x7c>
  {
    if ((hrtc->Instance->CR & RTC_CR_FMT) != 0U)
 8006874:	68fb      	ldr	r3, [r7, #12]
 8006876:	681b      	ldr	r3, [r3, #0]
 8006878:	689b      	ldr	r3, [r3, #8]
 800687a:	f003 0340 	and.w	r3, r3, #64	; 0x40
 800687e:	2b00      	cmp	r3, #0
 8006880:	d102      	bne.n	8006888 <HAL_RTC_SetTime+0x42>
      assert_param(IS_RTC_HOUR12(sTime->Hours));
      assert_param(IS_RTC_HOURFORMAT12(sTime->TimeFormat));
    }
    else
    {
      sTime->TimeFormat = 0x00U;
 8006882:	68bb      	ldr	r3, [r7, #8]
 8006884:	2200      	movs	r2, #0
 8006886:	70da      	strb	r2, [r3, #3]
      assert_param(IS_RTC_HOUR24(sTime->Hours));
    }
    assert_param(IS_RTC_MINUTES(sTime->Minutes));
    assert_param(IS_RTC_SECONDS(sTime->Seconds));

    tmpreg = (uint32_t)(( (uint32_t)RTC_ByteToBcd2(sTime->Hours)   << RTC_TR_HU_Pos)  | \
 8006888:	68bb      	ldr	r3, [r7, #8]
 800688a:	781b      	ldrb	r3, [r3, #0]
 800688c:	4618      	mov	r0, r3
 800688e:	f000 fa27 	bl	8006ce0 <RTC_ByteToBcd2>
 8006892:	4603      	mov	r3, r0
 8006894:	041c      	lsls	r4, r3, #16
                        ( (uint32_t)RTC_ByteToBcd2(sTime->Minutes) << RTC_TR_MNU_Pos) | \
 8006896:	68bb      	ldr	r3, [r7, #8]
 8006898:	785b      	ldrb	r3, [r3, #1]
 800689a:	4618      	mov	r0, r3
 800689c:	f000 fa20 	bl	8006ce0 <RTC_ByteToBcd2>
 80068a0:	4603      	mov	r3, r0
 80068a2:	021b      	lsls	r3, r3, #8
    tmpreg = (uint32_t)(( (uint32_t)RTC_ByteToBcd2(sTime->Hours)   << RTC_TR_HU_Pos)  | \
 80068a4:	431c      	orrs	r4, r3
                        ( (uint32_t)RTC_ByteToBcd2(sTime->Seconds))                   | \
 80068a6:	68bb      	ldr	r3, [r7, #8]
 80068a8:	789b      	ldrb	r3, [r3, #2]
 80068aa:	4618      	mov	r0, r3
 80068ac:	f000 fa18 	bl	8006ce0 <RTC_ByteToBcd2>
 80068b0:	4603      	mov	r3, r0
                        ( (uint32_t)RTC_ByteToBcd2(sTime->Minutes) << RTC_TR_MNU_Pos) | \
 80068b2:	ea44 0203 	orr.w	r2, r4, r3
                        (((uint32_t)sTime->TimeFormat)             << RTC_TR_PM_Pos));
 80068b6:	68bb      	ldr	r3, [r7, #8]
 80068b8:	78db      	ldrb	r3, [r3, #3]
 80068ba:	059b      	lsls	r3, r3, #22
    tmpreg = (uint32_t)(( (uint32_t)RTC_ByteToBcd2(sTime->Hours)   << RTC_TR_HU_Pos)  | \
 80068bc:	4313      	orrs	r3, r2
 80068be:	617b      	str	r3, [r7, #20]
 80068c0:	e018      	b.n	80068f4 <HAL_RTC_SetTime+0xae>
  }
  else
  {
    if ((hrtc->Instance->CR & RTC_CR_FMT) != 0U)
 80068c2:	68fb      	ldr	r3, [r7, #12]
 80068c4:	681b      	ldr	r3, [r3, #0]
 80068c6:	689b      	ldr	r3, [r3, #8]
 80068c8:	f003 0340 	and.w	r3, r3, #64	; 0x40
 80068cc:	2b00      	cmp	r3, #0
 80068ce:	d102      	bne.n	80068d6 <HAL_RTC_SetTime+0x90>
      assert_param(IS_RTC_HOUR12(RTC_Bcd2ToByte(sTime->Hours)));
      assert_param(IS_RTC_HOURFORMAT12(sTime->TimeFormat));
    }
    else
    {
      sTime->TimeFormat = 0x00U;
 80068d0:	68bb      	ldr	r3, [r7, #8]
 80068d2:	2200      	movs	r2, #0
 80068d4:	70da      	strb	r2, [r3, #3]
      assert_param(IS_RTC_HOUR24(RTC_Bcd2ToByte(sTime->Hours)));
    }
    assert_param(IS_RTC_MINUTES(RTC_Bcd2ToByte(sTime->Minutes)));
    assert_param(IS_RTC_SECONDS(RTC_Bcd2ToByte(sTime->Seconds)));
    tmpreg = (((uint32_t)(sTime->Hours)      << RTC_TR_HU_Pos)  | \
 80068d6:	68bb      	ldr	r3, [r7, #8]
 80068d8:	781b      	ldrb	r3, [r3, #0]
 80068da:	041a      	lsls	r2, r3, #16
              ((uint32_t)(sTime->Minutes)    << RTC_TR_MNU_Pos) | \
 80068dc:	68bb      	ldr	r3, [r7, #8]
 80068de:	785b      	ldrb	r3, [r3, #1]
 80068e0:	021b      	lsls	r3, r3, #8
    tmpreg = (((uint32_t)(sTime->Hours)      << RTC_TR_HU_Pos)  | \
 80068e2:	4313      	orrs	r3, r2
              ((uint32_t) sTime->Seconds)                       | \
 80068e4:	68ba      	ldr	r2, [r7, #8]
 80068e6:	7892      	ldrb	r2, [r2, #2]
              ((uint32_t)(sTime->Minutes)    << RTC_TR_MNU_Pos) | \
 80068e8:	431a      	orrs	r2, r3
              ((uint32_t)(sTime->TimeFormat) << RTC_TR_PM_Pos));
 80068ea:	68bb      	ldr	r3, [r7, #8]
 80068ec:	78db      	ldrb	r3, [r3, #3]
 80068ee:	059b      	lsls	r3, r3, #22
    tmpreg = (((uint32_t)(sTime->Hours)      << RTC_TR_HU_Pos)  | \
 80068f0:	4313      	orrs	r3, r2
 80068f2:	617b      	str	r3, [r7, #20]
  }

  /* Disable the write protection for RTC registers */
  __HAL_RTC_WRITEPROTECTION_DISABLE(hrtc);
 80068f4:	68fb      	ldr	r3, [r7, #12]
 80068f6:	681b      	ldr	r3, [r3, #0]
 80068f8:	22ca      	movs	r2, #202	; 0xca
 80068fa:	625a      	str	r2, [r3, #36]	; 0x24
 80068fc:	68fb      	ldr	r3, [r7, #12]
 80068fe:	681b      	ldr	r3, [r3, #0]
 8006900:	2253      	movs	r2, #83	; 0x53
 8006902:	625a      	str	r2, [r3, #36]	; 0x24

  /* Enter Initialization mode */
  status = RTC_EnterInitMode(hrtc);
 8006904:	68f8      	ldr	r0, [r7, #12]
 8006906:	f000 f98f 	bl	8006c28 <RTC_EnterInitMode>
 800690a:	4603      	mov	r3, r0
 800690c:	74fb      	strb	r3, [r7, #19]

  if (status == HAL_OK)
 800690e:	7cfb      	ldrb	r3, [r7, #19]
 8006910:	2b00      	cmp	r3, #0
 8006912:	d120      	bne.n	8006956 <HAL_RTC_SetTime+0x110>
  {
    /* Set the RTC_TR register */
    hrtc->Instance->TR = (uint32_t)(tmpreg & RTC_TR_RESERVED_MASK);
 8006914:	68fb      	ldr	r3, [r7, #12]
 8006916:	681a      	ldr	r2, [r3, #0]
 8006918:	697b      	ldr	r3, [r7, #20]
 800691a:	f003 337f 	and.w	r3, r3, #2139062143	; 0x7f7f7f7f
 800691e:	f023 43fe 	bic.w	r3, r3, #2130706432	; 0x7f000000
 8006922:	6013      	str	r3, [r2, #0]

    /* Clear the bits to be configured (Deprecated. Use HAL_RTC_DST_xxx functions instead) */
    hrtc->Instance->CR &= (uint32_t)~RTC_CR_BKP;
 8006924:	68fb      	ldr	r3, [r7, #12]
 8006926:	681b      	ldr	r3, [r3, #0]
 8006928:	689a      	ldr	r2, [r3, #8]
 800692a:	68fb      	ldr	r3, [r7, #12]
 800692c:	681b      	ldr	r3, [r3, #0]
 800692e:	f422 2280 	bic.w	r2, r2, #262144	; 0x40000
 8006932:	609a      	str	r2, [r3, #8]

    /* Configure the RTC_CR register (Deprecated. Use HAL_RTC_DST_xxx functions instead) */
    hrtc->Instance->CR |= (uint32_t)(sTime->DayLightSaving | sTime->StoreOperation);
 8006934:	68fb      	ldr	r3, [r7, #12]
 8006936:	681b      	ldr	r3, [r3, #0]
 8006938:	6899      	ldr	r1, [r3, #8]
 800693a:	68bb      	ldr	r3, [r7, #8]
 800693c:	68da      	ldr	r2, [r3, #12]
 800693e:	68bb      	ldr	r3, [r7, #8]
 8006940:	691b      	ldr	r3, [r3, #16]
 8006942:	431a      	orrs	r2, r3
 8006944:	68fb      	ldr	r3, [r7, #12]
 8006946:	681b      	ldr	r3, [r3, #0]
 8006948:	430a      	orrs	r2, r1
 800694a:	609a      	str	r2, [r3, #8]

    /* Exit Initialization mode */
    status = RTC_ExitInitMode(hrtc);
 800694c:	68f8      	ldr	r0, [r7, #12]
 800694e:	f000 f9a2 	bl	8006c96 <RTC_ExitInitMode>
 8006952:	4603      	mov	r3, r0
 8006954:	74fb      	strb	r3, [r7, #19]
  }

  if (status == HAL_OK)
 8006956:	7cfb      	ldrb	r3, [r7, #19]
 8006958:	2b00      	cmp	r3, #0
 800695a:	d102      	bne.n	8006962 <HAL_RTC_SetTime+0x11c>
  {
    hrtc->State = HAL_RTC_STATE_READY;
 800695c:	68fb      	ldr	r3, [r7, #12]
 800695e:	2201      	movs	r2, #1
 8006960:	775a      	strb	r2, [r3, #29]
  }

  /* Enable the write protection for RTC registers */
  __HAL_RTC_WRITEPROTECTION_ENABLE(hrtc);
 8006962:	68fb      	ldr	r3, [r7, #12]
 8006964:	681b      	ldr	r3, [r3, #0]
 8006966:	22ff      	movs	r2, #255	; 0xff
 8006968:	625a      	str	r2, [r3, #36]	; 0x24

  /* Process Unlocked */
  __HAL_UNLOCK(hrtc);
 800696a:	68fb      	ldr	r3, [r7, #12]
 800696c:	2200      	movs	r2, #0
 800696e:	771a      	strb	r2, [r3, #28]

  return status;
 8006970:	7cfb      	ldrb	r3, [r7, #19]
}
 8006972:	4618      	mov	r0, r3
 8006974:	371c      	adds	r7, #28
 8006976:	46bd      	mov	sp, r7
 8006978:	bd90      	pop	{r4, r7, pc}

0800697a <HAL_RTC_GetTime>:
  *        until current date is read to ensure consistency between the time and
  *        date values.
  * @retval HAL status
  */
HAL_StatusTypeDef HAL_RTC_GetTime(RTC_HandleTypeDef *hrtc, RTC_TimeTypeDef *sTime, uint32_t Format)
{
 800697a:	b580      	push	{r7, lr}
 800697c:	b086      	sub	sp, #24
 800697e:	af00      	add	r7, sp, #0
 8006980:	60f8      	str	r0, [r7, #12]
 8006982:	60b9      	str	r1, [r7, #8]
 8006984:	607a      	str	r2, [r7, #4]
  uint32_t tmpreg = 0U;
 8006986:	2300      	movs	r3, #0
 8006988:	617b      	str	r3, [r7, #20]

  /* Check the parameters */
  assert_param(IS_RTC_FORMAT(Format));

  /* Get subseconds value from the corresponding register */
  sTime->SubSeconds = (uint32_t)(hrtc->Instance->SSR);
 800698a:	68fb      	ldr	r3, [r7, #12]
 800698c:	681b      	ldr	r3, [r3, #0]
 800698e:	6a9a      	ldr	r2, [r3, #40]	; 0x28
 8006990:	68bb      	ldr	r3, [r7, #8]
 8006992:	605a      	str	r2, [r3, #4]

  /* Get SecondFraction structure field from the corresponding register field*/
  sTime->SecondFraction = (uint32_t)(hrtc->Instance->PRER & RTC_PRER_PREDIV_S);
 8006994:	68fb      	ldr	r3, [r7, #12]
 8006996:	681b      	ldr	r3, [r3, #0]
 8006998:	691b      	ldr	r3, [r3, #16]
 800699a:	f3c3 020e 	ubfx	r2, r3, #0, #15
 800699e:	68bb      	ldr	r3, [r7, #8]
 80069a0:	609a      	str	r2, [r3, #8]

  /* Get the TR register */
  tmpreg = (uint32_t)(hrtc->Instance->TR & RTC_TR_RESERVED_MASK);
 80069a2:	68fb      	ldr	r3, [r7, #12]
 80069a4:	681b      	ldr	r3, [r3, #0]
 80069a6:	681b      	ldr	r3, [r3, #0]
 80069a8:	f003 337f 	and.w	r3, r3, #2139062143	; 0x7f7f7f7f
 80069ac:	f023 43fe 	bic.w	r3, r3, #2130706432	; 0x7f000000
 80069b0:	617b      	str	r3, [r7, #20]

  /* Fill the structure fields with the read parameters */
  sTime->Hours      = (uint8_t)((tmpreg & (RTC_TR_HT  | RTC_TR_HU))  >> RTC_TR_HU_Pos);
 80069b2:	697b      	ldr	r3, [r7, #20]
 80069b4:	0c1b      	lsrs	r3, r3, #16
 80069b6:	b2db      	uxtb	r3, r3
 80069b8:	f003 033f 	and.w	r3, r3, #63	; 0x3f
 80069bc:	b2da      	uxtb	r2, r3
 80069be:	68bb      	ldr	r3, [r7, #8]
 80069c0:	701a      	strb	r2, [r3, #0]
  sTime->Minutes    = (uint8_t)((tmpreg & (RTC_TR_MNT | RTC_TR_MNU)) >> RTC_TR_MNU_Pos);
 80069c2:	697b      	ldr	r3, [r7, #20]
 80069c4:	0a1b      	lsrs	r3, r3, #8
 80069c6:	b2db      	uxtb	r3, r3
 80069c8:	f003 037f 	and.w	r3, r3, #127	; 0x7f
 80069cc:	b2da      	uxtb	r2, r3
 80069ce:	68bb      	ldr	r3, [r7, #8]
 80069d0:	705a      	strb	r2, [r3, #1]
  sTime->Seconds    = (uint8_t)( tmpreg & (RTC_TR_ST  | RTC_TR_SU));
 80069d2:	697b      	ldr	r3, [r7, #20]
 80069d4:	b2db      	uxtb	r3, r3
 80069d6:	f003 037f 	and.w	r3, r3, #127	; 0x7f
 80069da:	b2da      	uxtb	r2, r3
 80069dc:	68bb      	ldr	r3, [r7, #8]
 80069de:	709a      	strb	r2, [r3, #2]
  sTime->TimeFormat = (uint8_t)((tmpreg & (RTC_TR_PM))               >> RTC_TR_PM_Pos);
 80069e0:	697b      	ldr	r3, [r7, #20]
 80069e2:	0d9b      	lsrs	r3, r3, #22
 80069e4:	b2db      	uxtb	r3, r3
 80069e6:	f003 0301 	and.w	r3, r3, #1
 80069ea:	b2da      	uxtb	r2, r3
 80069ec:	68bb      	ldr	r3, [r7, #8]
 80069ee:	70da      	strb	r2, [r3, #3]

  /* Check the input parameters format */
  if (Format == RTC_FORMAT_BIN)
 80069f0:	687b      	ldr	r3, [r7, #4]
 80069f2:	2b00      	cmp	r3, #0
 80069f4:	d11a      	bne.n	8006a2c <HAL_RTC_GetTime+0xb2>
  {
    /* Convert the time structure parameters to Binary format */
    sTime->Hours = (uint8_t)RTC_Bcd2ToByte(sTime->Hours);
 80069f6:	68bb      	ldr	r3, [r7, #8]
 80069f8:	781b      	ldrb	r3, [r3, #0]
 80069fa:	4618      	mov	r0, r3
 80069fc:	f000 f98e 	bl	8006d1c <RTC_Bcd2ToByte>
 8006a00:	4603      	mov	r3, r0
 8006a02:	461a      	mov	r2, r3
 8006a04:	68bb      	ldr	r3, [r7, #8]
 8006a06:	701a      	strb	r2, [r3, #0]
    sTime->Minutes = (uint8_t)RTC_Bcd2ToByte(sTime->Minutes);
 8006a08:	68bb      	ldr	r3, [r7, #8]
 8006a0a:	785b      	ldrb	r3, [r3, #1]
 8006a0c:	4618      	mov	r0, r3
 8006a0e:	f000 f985 	bl	8006d1c <RTC_Bcd2ToByte>
 8006a12:	4603      	mov	r3, r0
 8006a14:	461a      	mov	r2, r3
 8006a16:	68bb      	ldr	r3, [r7, #8]
 8006a18:	705a      	strb	r2, [r3, #1]
    sTime->Seconds = (uint8_t)RTC_Bcd2ToByte(sTime->Seconds);
 8006a1a:	68bb      	ldr	r3, [r7, #8]
 8006a1c:	789b      	ldrb	r3, [r3, #2]
 8006a1e:	4618      	mov	r0, r3
 8006a20:	f000 f97c 	bl	8006d1c <RTC_Bcd2ToByte>
 8006a24:	4603      	mov	r3, r0
 8006a26:	461a      	mov	r2, r3
 8006a28:	68bb      	ldr	r3, [r7, #8]
 8006a2a:	709a      	strb	r2, [r3, #2]
  }

  return HAL_OK;
 8006a2c:	2300      	movs	r3, #0
}
 8006a2e:	4618      	mov	r0, r3
 8006a30:	3718      	adds	r7, #24
 8006a32:	46bd      	mov	sp, r7
 8006a34:	bd80      	pop	{r7, pc}

08006a36 <HAL_RTC_SetDate>:
  *            @arg RTC_FORMAT_BIN: Binary data format
  *            @arg RTC_FORMAT_BCD: BCD data format
  * @retval HAL status
  */
HAL_StatusTypeDef HAL_RTC_SetDate(RTC_HandleTypeDef *hrtc, RTC_DateTypeDef *sDate, uint32_t Format)
{
 8006a36:	b590      	push	{r4, r7, lr}
 8006a38:	b087      	sub	sp, #28
 8006a3a:	af00      	add	r7, sp, #0
 8006a3c:	60f8      	str	r0, [r7, #12]
 8006a3e:	60b9      	str	r1, [r7, #8]
 8006a40:	607a      	str	r2, [r7, #4]
  uint32_t datetmpreg = 0U;
 8006a42:	2300      	movs	r3, #0
 8006a44:	617b      	str	r3, [r7, #20]

  /* Check the parameters */
  assert_param(IS_RTC_FORMAT(Format));

  /* Process Locked */
  __HAL_LOCK(hrtc);
 8006a46:	68fb      	ldr	r3, [r7, #12]
 8006a48:	7f1b      	ldrb	r3, [r3, #28]
 8006a4a:	2b01      	cmp	r3, #1
 8006a4c:	d101      	bne.n	8006a52 <HAL_RTC_SetDate+0x1c>
 8006a4e:	2302      	movs	r3, #2
 8006a50:	e071      	b.n	8006b36 <HAL_RTC_SetDate+0x100>
 8006a52:	68fb      	ldr	r3, [r7, #12]
 8006a54:	2201      	movs	r2, #1
 8006a56:	771a      	strb	r2, [r3, #28]

  hrtc->State = HAL_RTC_STATE_BUSY;
 8006a58:	68fb      	ldr	r3, [r7, #12]
 8006a5a:	2202      	movs	r2, #2
 8006a5c:	775a      	strb	r2, [r3, #29]

  if ((Format == RTC_FORMAT_BIN) && ((sDate->Month & 0x10U) == 0x10U))
 8006a5e:	687b      	ldr	r3, [r7, #4]
 8006a60:	2b00      	cmp	r3, #0
 8006a62:	d10e      	bne.n	8006a82 <HAL_RTC_SetDate+0x4c>
 8006a64:	68bb      	ldr	r3, [r7, #8]
 8006a66:	785b      	ldrb	r3, [r3, #1]
 8006a68:	f003 0310 	and.w	r3, r3, #16
 8006a6c:	2b00      	cmp	r3, #0
 8006a6e:	d008      	beq.n	8006a82 <HAL_RTC_SetDate+0x4c>
  {
    sDate->Month = (uint8_t)((sDate->Month & (uint8_t)~(0x10U)) + (uint8_t)0x0AU);
 8006a70:	68bb      	ldr	r3, [r7, #8]
 8006a72:	785b      	ldrb	r3, [r3, #1]
 8006a74:	f023 0310 	bic.w	r3, r3, #16
 8006a78:	b2db      	uxtb	r3, r3
 8006a7a:	330a      	adds	r3, #10
 8006a7c:	b2da      	uxtb	r2, r3
 8006a7e:	68bb      	ldr	r3, [r7, #8]
 8006a80:	705a      	strb	r2, [r3, #1]
  }

  assert_param(IS_RTC_WEEKDAY(sDate->WeekDay));

  if (Format == RTC_FORMAT_BIN)
 8006a82:	687b      	ldr	r3, [r7, #4]
 8006a84:	2b00      	cmp	r3, #0
 8006a86:	d11c      	bne.n	8006ac2 <HAL_RTC_SetDate+0x8c>
  {
    assert_param(IS_RTC_YEAR(sDate->Year));
    assert_param(IS_RTC_MONTH(sDate->Month));
    assert_param(IS_RTC_DATE(sDate->Date));

    datetmpreg = (((uint32_t)RTC_ByteToBcd2(sDate->Year)  << RTC_DR_YU_Pos) | \
 8006a88:	68bb      	ldr	r3, [r7, #8]
 8006a8a:	78db      	ldrb	r3, [r3, #3]
 8006a8c:	4618      	mov	r0, r3
 8006a8e:	f000 f927 	bl	8006ce0 <RTC_ByteToBcd2>
 8006a92:	4603      	mov	r3, r0
 8006a94:	041c      	lsls	r4, r3, #16
                  ((uint32_t)RTC_ByteToBcd2(sDate->Month) << RTC_DR_MU_Pos) | \
 8006a96:	68bb      	ldr	r3, [r7, #8]
 8006a98:	785b      	ldrb	r3, [r3, #1]
 8006a9a:	4618      	mov	r0, r3
 8006a9c:	f000 f920 	bl	8006ce0 <RTC_ByteToBcd2>
 8006aa0:	4603      	mov	r3, r0
 8006aa2:	021b      	lsls	r3, r3, #8
    datetmpreg = (((uint32_t)RTC_ByteToBcd2(sDate->Year)  << RTC_DR_YU_Pos) | \
 8006aa4:	431c      	orrs	r4, r3
                  ((uint32_t)RTC_ByteToBcd2(sDate->Date))                   | \
 8006aa6:	68bb      	ldr	r3, [r7, #8]
 8006aa8:	789b      	ldrb	r3, [r3, #2]
 8006aaa:	4618      	mov	r0, r3
 8006aac:	f000 f918 	bl	8006ce0 <RTC_ByteToBcd2>
 8006ab0:	4603      	mov	r3, r0
                  ((uint32_t)RTC_ByteToBcd2(sDate->Month) << RTC_DR_MU_Pos) | \
 8006ab2:	ea44 0203 	orr.w	r2, r4, r3
                  ((uint32_t)sDate->WeekDay               << RTC_DR_WDU_Pos));
 8006ab6:	68bb      	ldr	r3, [r7, #8]
 8006ab8:	781b      	ldrb	r3, [r3, #0]
 8006aba:	035b      	lsls	r3, r3, #13
    datetmpreg = (((uint32_t)RTC_ByteToBcd2(sDate->Year)  << RTC_DR_YU_Pos) | \
 8006abc:	4313      	orrs	r3, r2
 8006abe:	617b      	str	r3, [r7, #20]
 8006ac0:	e00e      	b.n	8006ae0 <HAL_RTC_SetDate+0xaa>
  {
    assert_param(IS_RTC_YEAR(RTC_Bcd2ToByte(sDate->Year)));
    assert_param(IS_RTC_MONTH(RTC_Bcd2ToByte(sDate->Month)));
    assert_param(IS_RTC_DATE(RTC_Bcd2ToByte(sDate->Date)));

    datetmpreg = ((((uint32_t)sDate->Year)    << RTC_DR_YU_Pos) | \
 8006ac2:	68bb      	ldr	r3, [r7, #8]
 8006ac4:	78db      	ldrb	r3, [r3, #3]
 8006ac6:	041a      	lsls	r2, r3, #16
                  (((uint32_t)sDate->Month)   << RTC_DR_MU_Pos) | \
 8006ac8:	68bb      	ldr	r3, [r7, #8]
 8006aca:	785b      	ldrb	r3, [r3, #1]
 8006acc:	021b      	lsls	r3, r3, #8
    datetmpreg = ((((uint32_t)sDate->Year)    << RTC_DR_YU_Pos) | \
 8006ace:	4313      	orrs	r3, r2
                  ((uint32_t) sDate->Date)                      | \
 8006ad0:	68ba      	ldr	r2, [r7, #8]
 8006ad2:	7892      	ldrb	r2, [r2, #2]
                  (((uint32_t)sDate->Month)   << RTC_DR_MU_Pos) | \
 8006ad4:	431a      	orrs	r2, r3
                  (((uint32_t)sDate->WeekDay) << RTC_DR_WDU_Pos));
 8006ad6:	68bb      	ldr	r3, [r7, #8]
 8006ad8:	781b      	ldrb	r3, [r3, #0]
 8006ada:	035b      	lsls	r3, r3, #13
    datetmpreg = ((((uint32_t)sDate->Year)    << RTC_DR_YU_Pos) | \
 8006adc:	4313      	orrs	r3, r2
 8006ade:	617b      	str	r3, [r7, #20]
  }

  /* Disable the write protection for RTC registers */
  __HAL_RTC_WRITEPROTECTION_DISABLE(hrtc);
 8006ae0:	68fb      	ldr	r3, [r7, #12]
 8006ae2:	681b      	ldr	r3, [r3, #0]
 8006ae4:	22ca      	movs	r2, #202	; 0xca
 8006ae6:	625a      	str	r2, [r3, #36]	; 0x24
 8006ae8:	68fb      	ldr	r3, [r7, #12]
 8006aea:	681b      	ldr	r3, [r3, #0]
 8006aec:	2253      	movs	r2, #83	; 0x53
 8006aee:	625a      	str	r2, [r3, #36]	; 0x24

  /* Enter Initialization mode */
  status = RTC_EnterInitMode(hrtc);
 8006af0:	68f8      	ldr	r0, [r7, #12]
 8006af2:	f000 f899 	bl	8006c28 <RTC_EnterInitMode>
 8006af6:	4603      	mov	r3, r0
 8006af8:	74fb      	strb	r3, [r7, #19]

  if (status == HAL_OK)
 8006afa:	7cfb      	ldrb	r3, [r7, #19]
 8006afc:	2b00      	cmp	r3, #0
 8006afe:	d10c      	bne.n	8006b1a <HAL_RTC_SetDate+0xe4>
  {
    /* Set the RTC_DR register */
    hrtc->Instance->DR = (uint32_t)(datetmpreg & RTC_DR_RESERVED_MASK);
 8006b00:	68fb      	ldr	r3, [r7, #12]
 8006b02:	681a      	ldr	r2, [r3, #0]
 8006b04:	697b      	ldr	r3, [r7, #20]
 8006b06:	f023 437f 	bic.w	r3, r3, #4278190080	; 0xff000000
 8006b0a:	f023 03c0 	bic.w	r3, r3, #192	; 0xc0
 8006b0e:	6053      	str	r3, [r2, #4]

    /* Exit Initialization mode */
    status = RTC_ExitInitMode(hrtc);
 8006b10:	68f8      	ldr	r0, [r7, #12]
 8006b12:	f000 f8c0 	bl	8006c96 <RTC_ExitInitMode>
 8006b16:	4603      	mov	r3, r0
 8006b18:	74fb      	strb	r3, [r7, #19]
  }

  if (status == HAL_OK)
 8006b1a:	7cfb      	ldrb	r3, [r7, #19]
 8006b1c:	2b00      	cmp	r3, #0
 8006b1e:	d102      	bne.n	8006b26 <HAL_RTC_SetDate+0xf0>
  {
    hrtc->State = HAL_RTC_STATE_READY;
 8006b20:	68fb      	ldr	r3, [r7, #12]
 8006b22:	2201      	movs	r2, #1
 8006b24:	775a      	strb	r2, [r3, #29]
  }

  /* Enable the write protection for RTC registers */
  __HAL_RTC_WRITEPROTECTION_ENABLE(hrtc);
 8006b26:	68fb      	ldr	r3, [r7, #12]
 8006b28:	681b      	ldr	r3, [r3, #0]
 8006b2a:	22ff      	movs	r2, #255	; 0xff
 8006b2c:	625a      	str	r2, [r3, #36]	; 0x24

  /* Process Unlocked */
  __HAL_UNLOCK(hrtc);
 8006b2e:	68fb      	ldr	r3, [r7, #12]
 8006b30:	2200      	movs	r2, #0
 8006b32:	771a      	strb	r2, [r3, #28]

  return status;
 8006b34:	7cfb      	ldrb	r3, [r7, #19]
}
 8006b36:	4618      	mov	r0, r3
 8006b38:	371c      	adds	r7, #28
 8006b3a:	46bd      	mov	sp, r7
 8006b3c:	bd90      	pop	{r4, r7, pc}

08006b3e <HAL_RTC_GetDate>:
  *        until current date is read to ensure consistency between the time and
  *        date values.
  * @retval HAL status
  */
HAL_StatusTypeDef HAL_RTC_GetDate(RTC_HandleTypeDef *hrtc, RTC_DateTypeDef *sDate, uint32_t Format)
{
 8006b3e:	b580      	push	{r7, lr}
 8006b40:	b086      	sub	sp, #24
 8006b42:	af00      	add	r7, sp, #0
 8006b44:	60f8      	str	r0, [r7, #12]
 8006b46:	60b9      	str	r1, [r7, #8]
 8006b48:	607a      	str	r2, [r7, #4]
  uint32_t datetmpreg = 0U;
 8006b4a:	2300      	movs	r3, #0
 8006b4c:	617b      	str	r3, [r7, #20]

  /* Check the parameters */
  assert_param(IS_RTC_FORMAT(Format));

  /* Get the DR register */
  datetmpreg = (uint32_t)(hrtc->Instance->DR & RTC_DR_RESERVED_MASK);
 8006b4e:	68fb      	ldr	r3, [r7, #12]
 8006b50:	681b      	ldr	r3, [r3, #0]
 8006b52:	685b      	ldr	r3, [r3, #4]
 8006b54:	f023 437f 	bic.w	r3, r3, #4278190080	; 0xff000000
 8006b58:	f023 03c0 	bic.w	r3, r3, #192	; 0xc0
 8006b5c:	617b      	str	r3, [r7, #20]

  /* Fill the structure fields with the read parameters */
  sDate->Year    = (uint8_t)((datetmpreg & (RTC_DR_YT | RTC_DR_YU)) >> RTC_DR_YU_Pos);
 8006b5e:	697b      	ldr	r3, [r7, #20]
 8006b60:	0c1b      	lsrs	r3, r3, #16
 8006b62:	b2da      	uxtb	r2, r3
 8006b64:	68bb      	ldr	r3, [r7, #8]
 8006b66:	70da      	strb	r2, [r3, #3]
  sDate->Month   = (uint8_t)((datetmpreg & (RTC_DR_MT | RTC_DR_MU)) >> RTC_DR_MU_Pos);
 8006b68:	697b      	ldr	r3, [r7, #20]
 8006b6a:	0a1b      	lsrs	r3, r3, #8
 8006b6c:	b2db      	uxtb	r3, r3
 8006b6e:	f003 031f 	and.w	r3, r3, #31
 8006b72:	b2da      	uxtb	r2, r3
 8006b74:	68bb      	ldr	r3, [r7, #8]
 8006b76:	705a      	strb	r2, [r3, #1]
  sDate->Date    = (uint8_t) (datetmpreg & (RTC_DR_DT | RTC_DR_DU));
 8006b78:	697b      	ldr	r3, [r7, #20]
 8006b7a:	b2db      	uxtb	r3, r3
 8006b7c:	f003 033f 	and.w	r3, r3, #63	; 0x3f
 8006b80:	b2da      	uxtb	r2, r3
 8006b82:	68bb      	ldr	r3, [r7, #8]
 8006b84:	709a      	strb	r2, [r3, #2]
  sDate->WeekDay = (uint8_t)((datetmpreg & (RTC_DR_WDU))            >> RTC_DR_WDU_Pos);
 8006b86:	697b      	ldr	r3, [r7, #20]
 8006b88:	0b5b      	lsrs	r3, r3, #13
 8006b8a:	b2db      	uxtb	r3, r3
 8006b8c:	f003 0307 	and.w	r3, r3, #7
 8006b90:	b2da      	uxtb	r2, r3
 8006b92:	68bb      	ldr	r3, [r7, #8]
 8006b94:	701a      	strb	r2, [r3, #0]

  /* Check the input parameters format */
  if (Format == RTC_FORMAT_BIN)
 8006b96:	687b      	ldr	r3, [r7, #4]
 8006b98:	2b00      	cmp	r3, #0
 8006b9a:	d11a      	bne.n	8006bd2 <HAL_RTC_GetDate+0x94>
  {
    /* Convert the date structure parameters to Binary format */
    sDate->Year  = (uint8_t)RTC_Bcd2ToByte(sDate->Year);
 8006b9c:	68bb      	ldr	r3, [r7, #8]
 8006b9e:	78db      	ldrb	r3, [r3, #3]
 8006ba0:	4618      	mov	r0, r3
 8006ba2:	f000 f8bb 	bl	8006d1c <RTC_Bcd2ToByte>
 8006ba6:	4603      	mov	r3, r0
 8006ba8:	461a      	mov	r2, r3
 8006baa:	68bb      	ldr	r3, [r7, #8]
 8006bac:	70da      	strb	r2, [r3, #3]
    sDate->Month = (uint8_t)RTC_Bcd2ToByte(sDate->Month);
 8006bae:	68bb      	ldr	r3, [r7, #8]
 8006bb0:	785b      	ldrb	r3, [r3, #1]
 8006bb2:	4618      	mov	r0, r3
 8006bb4:	f000 f8b2 	bl	8006d1c <RTC_Bcd2ToByte>
 8006bb8:	4603      	mov	r3, r0
 8006bba:	461a      	mov	r2, r3
 8006bbc:	68bb      	ldr	r3, [r7, #8]
 8006bbe:	705a      	strb	r2, [r3, #1]
    sDate->Date  = (uint8_t)RTC_Bcd2ToByte(sDate->Date);
 8006bc0:	68bb      	ldr	r3, [r7, #8]
 8006bc2:	789b      	ldrb	r3, [r3, #2]
 8006bc4:	4618      	mov	r0, r3
 8006bc6:	f000 f8a9 	bl	8006d1c <RTC_Bcd2ToByte>
 8006bca:	4603      	mov	r3, r0
 8006bcc:	461a      	mov	r2, r3
 8006bce:	68bb      	ldr	r3, [r7, #8]
 8006bd0:	709a      	strb	r2, [r3, #2]
  }
  return HAL_OK;
 8006bd2:	2300      	movs	r3, #0
}
 8006bd4:	4618      	mov	r0, r3
 8006bd6:	3718      	adds	r7, #24
 8006bd8:	46bd      	mov	sp, r7
 8006bda:	bd80      	pop	{r7, pc}

08006bdc <HAL_RTC_WaitForSynchro>:
  * @param  hrtc pointer to a RTC_HandleTypeDef structure that contains
  *                the configuration information for RTC.
  * @retval HAL status
  */
HAL_StatusTypeDef HAL_RTC_WaitForSynchro(RTC_HandleTypeDef *hrtc)
{
 8006bdc:	b580      	push	{r7, lr}
 8006bde:	b084      	sub	sp, #16
 8006be0:	af00      	add	r7, sp, #0
 8006be2:	6078      	str	r0, [r7, #4]
  uint32_t tickstart = 0U;
 8006be4:	2300      	movs	r3, #0
 8006be6:	60fb      	str	r3, [r7, #12]

  /* Clear RSF flag, keep reserved bits at reset values (setting other flags has no effect) */
  hrtc->Instance->ISR = ((uint32_t)(RTC_RSF_MASK & RTC_ISR_RESERVED_MASK));
 8006be8:	687b      	ldr	r3, [r7, #4]
 8006bea:	681b      	ldr	r3, [r3, #0]
 8006bec:	4a0d      	ldr	r2, [pc, #52]	; (8006c24 <HAL_RTC_WaitForSynchro+0x48>)
 8006bee:	60da      	str	r2, [r3, #12]

  /* Get tick */
  tickstart = HAL_GetTick();
 8006bf0:	f7fc f974 	bl	8002edc <HAL_GetTick>
 8006bf4:	60f8      	str	r0, [r7, #12]

  /* Wait the registers to be synchronised */
  while ((hrtc->Instance->ISR & RTC_ISR_RSF) == 0U)
 8006bf6:	e009      	b.n	8006c0c <HAL_RTC_WaitForSynchro+0x30>
  {
    if ((HAL_GetTick() - tickstart) > RTC_TIMEOUT_VALUE)
 8006bf8:	f7fc f970 	bl	8002edc <HAL_GetTick>
 8006bfc:	4602      	mov	r2, r0
 8006bfe:	68fb      	ldr	r3, [r7, #12]
 8006c00:	1ad3      	subs	r3, r2, r3
 8006c02:	f5b3 7f7a 	cmp.w	r3, #1000	; 0x3e8
 8006c06:	d901      	bls.n	8006c0c <HAL_RTC_WaitForSynchro+0x30>
    {
      return HAL_TIMEOUT;
 8006c08:	2303      	movs	r3, #3
 8006c0a:	e007      	b.n	8006c1c <HAL_RTC_WaitForSynchro+0x40>
  while ((hrtc->Instance->ISR & RTC_ISR_RSF) == 0U)
 8006c0c:	687b      	ldr	r3, [r7, #4]
 8006c0e:	681b      	ldr	r3, [r3, #0]
 8006c10:	68db      	ldr	r3, [r3, #12]
 8006c12:	f003 0320 	and.w	r3, r3, #32
 8006c16:	2b00      	cmp	r3, #0
 8006c18:	d0ee      	beq.n	8006bf8 <HAL_RTC_WaitForSynchro+0x1c>
    }
  }

  return HAL_OK;
 8006c1a:	2300      	movs	r3, #0
}
 8006c1c:	4618      	mov	r0, r3
 8006c1e:	3710      	adds	r7, #16
 8006c20:	46bd      	mov	sp, r7
 8006c22:	bd80      	pop	{r7, pc}
 8006c24:	00017f5f 	.word	0x00017f5f

08006c28 <RTC_EnterInitMode>:
  * @param  hrtc pointer to a RTC_HandleTypeDef structure that contains
  *                the configuration information for RTC.
  * @retval HAL status
  */
HAL_StatusTypeDef RTC_EnterInitMode(RTC_HandleTypeDef *hrtc)
{
 8006c28:	b580      	push	{r7, lr}
 8006c2a:	b084      	sub	sp, #16
 8006c2c:	af00      	add	r7, sp, #0
 8006c2e:	6078      	str	r0, [r7, #4]
  uint32_t tickstart = 0U;
 8006c30:	2300      	movs	r3, #0
 8006c32:	60bb      	str	r3, [r7, #8]
  HAL_StatusTypeDef status = HAL_OK;
 8006c34:	2300      	movs	r3, #0
 8006c36:	73fb      	strb	r3, [r7, #15]

  /* Check that Initialization mode is not already set */
  if (READ_BIT(hrtc->Instance->ISR, RTC_ISR_INITF) == 0U)
 8006c38:	687b      	ldr	r3, [r7, #4]
 8006c3a:	681b      	ldr	r3, [r3, #0]
 8006c3c:	68db      	ldr	r3, [r3, #12]
 8006c3e:	f003 0340 	and.w	r3, r3, #64	; 0x40
 8006c42:	2b00      	cmp	r3, #0
 8006c44:	d122      	bne.n	8006c8c <RTC_EnterInitMode+0x64>
  {
    /* Set INIT bit to enter Initialization mode */
    SET_BIT(hrtc->Instance->ISR, RTC_ISR_INIT);
 8006c46:	687b      	ldr	r3, [r7, #4]
 8006c48:	681b      	ldr	r3, [r3, #0]
 8006c4a:	68da      	ldr	r2, [r3, #12]
 8006c4c:	687b      	ldr	r3, [r7, #4]
 8006c4e:	681b      	ldr	r3, [r3, #0]
 8006c50:	f042 0280 	orr.w	r2, r2, #128	; 0x80
 8006c54:	60da      	str	r2, [r3, #12]

    /* Get tick */
    tickstart = HAL_GetTick();
 8006c56:	f7fc f941 	bl	8002edc <HAL_GetTick>
 8006c5a:	60b8      	str	r0, [r7, #8]

    /* Wait till RTC is in INIT state and if timeout is reached exit */
    while ((READ_BIT(hrtc->Instance->ISR, RTC_ISR_INITF) == 0U) && (status != HAL_ERROR))
 8006c5c:	e00c      	b.n	8006c78 <RTC_EnterInitMode+0x50>
    {
      if ((HAL_GetTick() - tickstart) > RTC_TIMEOUT_VALUE)
 8006c5e:	f7fc f93d 	bl	8002edc <HAL_GetTick>
 8006c62:	4602      	mov	r2, r0
 8006c64:	68bb      	ldr	r3, [r7, #8]
 8006c66:	1ad3      	subs	r3, r2, r3
 8006c68:	f5b3 7f7a 	cmp.w	r3, #1000	; 0x3e8
 8006c6c:	d904      	bls.n	8006c78 <RTC_EnterInitMode+0x50>
      {
        /* Set RTC state */
        hrtc->State = HAL_RTC_STATE_ERROR;
 8006c6e:	687b      	ldr	r3, [r7, #4]
 8006c70:	2204      	movs	r2, #4
 8006c72:	775a      	strb	r2, [r3, #29]
        status = HAL_ERROR;
 8006c74:	2301      	movs	r3, #1
 8006c76:	73fb      	strb	r3, [r7, #15]
    while ((READ_BIT(hrtc->Instance->ISR, RTC_ISR_INITF) == 0U) && (status != HAL_ERROR))
 8006c78:	687b      	ldr	r3, [r7, #4]
 8006c7a:	681b      	ldr	r3, [r3, #0]
 8006c7c:	68db      	ldr	r3, [r3, #12]
 8006c7e:	f003 0340 	and.w	r3, r3, #64	; 0x40
 8006c82:	2b00      	cmp	r3, #0
 8006c84:	d102      	bne.n	8006c8c <RTC_EnterInitMode+0x64>
 8006c86:	7bfb      	ldrb	r3, [r7, #15]
 8006c88:	2b01      	cmp	r3, #1
 8006c8a:	d1e8      	bne.n	8006c5e <RTC_EnterInitMode+0x36>
      }
    }
  }

  return status;
 8006c8c:	7bfb      	ldrb	r3, [r7, #15]
}
 8006c8e:	4618      	mov	r0, r3
 8006c90:	3710      	adds	r7, #16
 8006c92:	46bd      	mov	sp, r7
 8006c94:	bd80      	pop	{r7, pc}

08006c96 <RTC_ExitInitMode>:
  * @param  hrtc pointer to a RTC_HandleTypeDef structure that contains
  *                the configuration information for RTC.
  * @retval HAL status
  */
HAL_StatusTypeDef RTC_ExitInitMode(RTC_HandleTypeDef *hrtc)
{
 8006c96:	b580      	push	{r7, lr}
 8006c98:	b084      	sub	sp, #16
 8006c9a:	af00      	add	r7, sp, #0
 8006c9c:	6078      	str	r0, [r7, #4]
  HAL_StatusTypeDef status = HAL_OK;
 8006c9e:	2300      	movs	r3, #0
 8006ca0:	73fb      	strb	r3, [r7, #15]

  /* Clear INIT bit to exit Initialization mode */
  CLEAR_BIT(hrtc->Instance->ISR, RTC_ISR_INIT);
 8006ca2:	687b      	ldr	r3, [r7, #4]
 8006ca4:	681b      	ldr	r3, [r3, #0]
 8006ca6:	68da      	ldr	r2, [r3, #12]
 8006ca8:	687b      	ldr	r3, [r7, #4]
 8006caa:	681b      	ldr	r3, [r3, #0]
 8006cac:	f022 0280 	bic.w	r2, r2, #128	; 0x80
 8006cb0:	60da      	str	r2, [r3, #12]

  /* If CR_BYPSHAD bit = 0, wait for synchro */
  if (READ_BIT(hrtc->Instance->CR, RTC_CR_BYPSHAD) == 0U)
 8006cb2:	687b      	ldr	r3, [r7, #4]
 8006cb4:	681b      	ldr	r3, [r3, #0]
 8006cb6:	689b      	ldr	r3, [r3, #8]
 8006cb8:	f003 0320 	and.w	r3, r3, #32
 8006cbc:	2b00      	cmp	r3, #0
 8006cbe:	d10a      	bne.n	8006cd6 <RTC_ExitInitMode+0x40>
  {
    if (HAL_RTC_WaitForSynchro(hrtc) != HAL_OK)
 8006cc0:	6878      	ldr	r0, [r7, #4]
 8006cc2:	f7ff ff8b 	bl	8006bdc <HAL_RTC_WaitForSynchro>
 8006cc6:	4603      	mov	r3, r0
 8006cc8:	2b00      	cmp	r3, #0
 8006cca:	d004      	beq.n	8006cd6 <RTC_ExitInitMode+0x40>
    {
      /* Set RTC state */
      hrtc->State = HAL_RTC_STATE_ERROR;
 8006ccc:	687b      	ldr	r3, [r7, #4]
 8006cce:	2204      	movs	r2, #4
 8006cd0:	775a      	strb	r2, [r3, #29]
      status = HAL_ERROR;
 8006cd2:	2301      	movs	r3, #1
 8006cd4:	73fb      	strb	r3, [r7, #15]
    }
  }

  return status;
 8006cd6:	7bfb      	ldrb	r3, [r7, #15]
}
 8006cd8:	4618      	mov	r0, r3
 8006cda:	3710      	adds	r7, #16
 8006cdc:	46bd      	mov	sp, r7
 8006cde:	bd80      	pop	{r7, pc}

08006ce0 <RTC_ByteToBcd2>:
  * @brief  Converts a 2-digit number from decimal to BCD format.
  * @param  number decimal-formatted number (from 0 to 99) to be converted
  * @retval Converted byte
  */
uint8_t RTC_ByteToBcd2(uint8_t number)
{
 8006ce0:	b480      	push	{r7}
 8006ce2:	b085      	sub	sp, #20
 8006ce4:	af00      	add	r7, sp, #0
 8006ce6:	4603      	mov	r3, r0
 8006ce8:	71fb      	strb	r3, [r7, #7]
  uint32_t bcdhigh = 0U;
 8006cea:	2300      	movs	r3, #0
 8006cec:	60fb      	str	r3, [r7, #12]

  while (number >= 10U)
 8006cee:	e005      	b.n	8006cfc <RTC_ByteToBcd2+0x1c>
  {
    bcdhigh++;
 8006cf0:	68fb      	ldr	r3, [r7, #12]
 8006cf2:	3301      	adds	r3, #1
 8006cf4:	60fb      	str	r3, [r7, #12]
    number -= 10U;
 8006cf6:	79fb      	ldrb	r3, [r7, #7]
 8006cf8:	3b0a      	subs	r3, #10
 8006cfa:	71fb      	strb	r3, [r7, #7]
  while (number >= 10U)
 8006cfc:	79fb      	ldrb	r3, [r7, #7]
 8006cfe:	2b09      	cmp	r3, #9
 8006d00:	d8f6      	bhi.n	8006cf0 <RTC_ByteToBcd2+0x10>
  }

  return ((uint8_t)(bcdhigh << 4U) | number);
 8006d02:	68fb      	ldr	r3, [r7, #12]
 8006d04:	b2db      	uxtb	r3, r3
 8006d06:	011b      	lsls	r3, r3, #4
 8006d08:	b2da      	uxtb	r2, r3
 8006d0a:	79fb      	ldrb	r3, [r7, #7]
 8006d0c:	4313      	orrs	r3, r2
 8006d0e:	b2db      	uxtb	r3, r3
}
 8006d10:	4618      	mov	r0, r3
 8006d12:	3714      	adds	r7, #20
 8006d14:	46bd      	mov	sp, r7
 8006d16:	f85d 7b04 	ldr.w	r7, [sp], #4
 8006d1a:	4770      	bx	lr

08006d1c <RTC_Bcd2ToByte>:
  * @brief  Converts a 2-digit number from BCD to decimal format.
  * @param  number BCD-formatted number (from 00 to 99) to be converted
  * @retval Converted word
  */
uint8_t RTC_Bcd2ToByte(uint8_t number)
{
 8006d1c:	b480      	push	{r7}
 8006d1e:	b085      	sub	sp, #20
 8006d20:	af00      	add	r7, sp, #0
 8006d22:	4603      	mov	r3, r0
 8006d24:	71fb      	strb	r3, [r7, #7]
  uint32_t tens = 0U;
 8006d26:	2300      	movs	r3, #0
 8006d28:	60fb      	str	r3, [r7, #12]
  tens = (((uint32_t)number & 0xF0U) >> 4U) * 10U;
 8006d2a:	79fb      	ldrb	r3, [r7, #7]
 8006d2c:	091b      	lsrs	r3, r3, #4
 8006d2e:	b2db      	uxtb	r3, r3
 8006d30:	461a      	mov	r2, r3
 8006d32:	4613      	mov	r3, r2
 8006d34:	009b      	lsls	r3, r3, #2
 8006d36:	4413      	add	r3, r2
 8006d38:	005b      	lsls	r3, r3, #1
 8006d3a:	60fb      	str	r3, [r7, #12]
  return (uint8_t)(tens + ((uint32_t)number & 0x0FU));
 8006d3c:	68fb      	ldr	r3, [r7, #12]
 8006d3e:	b2da      	uxtb	r2, r3
 8006d40:	79fb      	ldrb	r3, [r7, #7]
 8006d42:	f003 030f 	and.w	r3, r3, #15
 8006d46:	b2db      	uxtb	r3, r3
 8006d48:	4413      	add	r3, r2
 8006d4a:	b2db      	uxtb	r3, r3
}
 8006d4c:	4618      	mov	r0, r3
 8006d4e:	3714      	adds	r7, #20
 8006d50:	46bd      	mov	sp, r7
 8006d52:	f85d 7b04 	ldr.w	r7, [sp], #4
 8006d56:	4770      	bx	lr

08006d58 <HAL_SPI_Init>:
  * @param  hspi pointer to a SPI_HandleTypeDef structure that contains
  *               the configuration information for SPI module.
  * @retval HAL status
  */
HAL_StatusTypeDef HAL_SPI_Init(SPI_HandleTypeDef *hspi)
{
 8006d58:	b580      	push	{r7, lr}
 8006d5a:	b082      	sub	sp, #8
 8006d5c:	af00      	add	r7, sp, #0
 8006d5e:	6078      	str	r0, [r7, #4]
  /* Check the SPI handle allocation */
  if (hspi == NULL)
 8006d60:	687b      	ldr	r3, [r7, #4]
 8006d62:	2b00      	cmp	r3, #0
 8006d64:	d101      	bne.n	8006d6a <HAL_SPI_Init+0x12>
  {
    return HAL_ERROR;
 8006d66:	2301      	movs	r3, #1
 8006d68:	e07b      	b.n	8006e62 <HAL_SPI_Init+0x10a>
  assert_param(IS_SPI_DATASIZE(hspi->Init.DataSize));
  assert_param(IS_SPI_NSS(hspi->Init.NSS));
  assert_param(IS_SPI_BAUDRATE_PRESCALER(hspi->Init.BaudRatePrescaler));
  assert_param(IS_SPI_FIRST_BIT(hspi->Init.FirstBit));
  assert_param(IS_SPI_TIMODE(hspi->Init.TIMode));
  if (hspi->Init.TIMode == SPI_TIMODE_DISABLE)
 8006d6a:	687b      	ldr	r3, [r7, #4]
 8006d6c:	6a5b      	ldr	r3, [r3, #36]	; 0x24
 8006d6e:	2b00      	cmp	r3, #0
 8006d70:	d108      	bne.n	8006d84 <HAL_SPI_Init+0x2c>
  {
    assert_param(IS_SPI_CPOL(hspi->Init.CLKPolarity));
    assert_param(IS_SPI_CPHA(hspi->Init.CLKPhase));

    if (hspi->Init.Mode == SPI_MODE_MASTER)
 8006d72:	687b      	ldr	r3, [r7, #4]
 8006d74:	685b      	ldr	r3, [r3, #4]
 8006d76:	f5b3 7f82 	cmp.w	r3, #260	; 0x104
 8006d7a:	d009      	beq.n	8006d90 <HAL_SPI_Init+0x38>
      assert_param(IS_SPI_BAUDRATE_PRESCALER(hspi->Init.BaudRatePrescaler));
    }
    else
    {
      /* Baudrate prescaler not use in Motoraola Slave mode. force to default value */
      hspi->Init.BaudRatePrescaler = SPI_BAUDRATEPRESCALER_2;
 8006d7c:	687b      	ldr	r3, [r7, #4]
 8006d7e:	2200      	movs	r2, #0
 8006d80:	61da      	str	r2, [r3, #28]
 8006d82:	e005      	b.n	8006d90 <HAL_SPI_Init+0x38>
  else
  {
    assert_param(IS_SPI_BAUDRATE_PRESCALER(hspi->Init.BaudRatePrescaler));

    /* Force polarity and phase to TI protocaol requirements */
    hspi->Init.CLKPolarity = SPI_POLARITY_LOW;
 8006d84:	687b      	ldr	r3, [r7, #4]
 8006d86:	2200      	movs	r2, #0
 8006d88:	611a      	str	r2, [r3, #16]
    hspi->Init.CLKPhase    = SPI_PHASE_1EDGE;
 8006d8a:	687b      	ldr	r3, [r7, #4]
 8006d8c:	2200      	movs	r2, #0
 8006d8e:	615a      	str	r2, [r3, #20]
  if (hspi->Init.CRCCalculation == SPI_CRCCALCULATION_ENABLE)
  {
    assert_param(IS_SPI_CRC_POLYNOMIAL(hspi->Init.CRCPolynomial));
  }
#else
  hspi->Init.CRCCalculation = SPI_CRCCALCULATION_DISABLE;
 8006d90:	687b      	ldr	r3, [r7, #4]
 8006d92:	2200      	movs	r2, #0
 8006d94:	629a      	str	r2, [r3, #40]	; 0x28
#endif /* USE_SPI_CRC */

  if (hspi->State == HAL_SPI_STATE_RESET)
 8006d96:	687b      	ldr	r3, [r7, #4]
 8006d98:	f893 3051 	ldrb.w	r3, [r3, #81]	; 0x51
 8006d9c:	b2db      	uxtb	r3, r3
 8006d9e:	2b00      	cmp	r3, #0
 8006da0:	d106      	bne.n	8006db0 <HAL_SPI_Init+0x58>
  {
    /* Allocate lock resource and initialize it */
    hspi->Lock = HAL_UNLOCKED;
 8006da2:	687b      	ldr	r3, [r7, #4]
 8006da4:	2200      	movs	r2, #0
 8006da6:	f883 2050 	strb.w	r2, [r3, #80]	; 0x50

    /* Init the low level hardware : GPIO, CLOCK, NVIC... */
    hspi->MspInitCallback(hspi);
#else
    /* Init the low level hardware : GPIO, CLOCK, NVIC... */
    HAL_SPI_MspInit(hspi);
 8006daa:	6878      	ldr	r0, [r7, #4]
 8006dac:	f7fb fd42 	bl	8002834 <HAL_SPI_MspInit>
#endif /* USE_HAL_SPI_REGISTER_CALLBACKS */
  }

  hspi->State = HAL_SPI_STATE_BUSY;
 8006db0:	687b      	ldr	r3, [r7, #4]
 8006db2:	2202      	movs	r2, #2
 8006db4:	f883 2051 	strb.w	r2, [r3, #81]	; 0x51

  /* Disable the selected SPI peripheral */
  __HAL_SPI_DISABLE(hspi);
 8006db8:	687b      	ldr	r3, [r7, #4]
 8006dba:	681b      	ldr	r3, [r3, #0]
 8006dbc:	681a      	ldr	r2, [r3, #0]
 8006dbe:	687b      	ldr	r3, [r7, #4]
 8006dc0:	681b      	ldr	r3, [r3, #0]
 8006dc2:	f022 0240 	bic.w	r2, r2, #64	; 0x40
 8006dc6:	601a      	str	r2, [r3, #0]

  /*----------------------- SPIx CR1 & CR2 Configuration ---------------------*/
  /* Configure : SPI Mode, Communication Mode, Data size, Clock polarity and phase, NSS management,
  Communication speed, First bit and CRC calculation state */
  WRITE_REG(hspi->Instance->CR1, ((hspi->Init.Mode & (SPI_CR1_MSTR | SPI_CR1_SSI)) |
 8006dc8:	687b      	ldr	r3, [r7, #4]
 8006dca:	685b      	ldr	r3, [r3, #4]
 8006dcc:	f403 7282 	and.w	r2, r3, #260	; 0x104
 8006dd0:	687b      	ldr	r3, [r7, #4]
 8006dd2:	689b      	ldr	r3, [r3, #8]
 8006dd4:	f403 4304 	and.w	r3, r3, #33792	; 0x8400
 8006dd8:	431a      	orrs	r2, r3
 8006dda:	687b      	ldr	r3, [r7, #4]
 8006ddc:	68db      	ldr	r3, [r3, #12]
 8006dde:	f403 6300 	and.w	r3, r3, #2048	; 0x800
 8006de2:	431a      	orrs	r2, r3
 8006de4:	687b      	ldr	r3, [r7, #4]
 8006de6:	691b      	ldr	r3, [r3, #16]
 8006de8:	f003 0302 	and.w	r3, r3, #2
 8006dec:	431a      	orrs	r2, r3
 8006dee:	687b      	ldr	r3, [r7, #4]
 8006df0:	695b      	ldr	r3, [r3, #20]
 8006df2:	f003 0301 	and.w	r3, r3, #1
 8006df6:	431a      	orrs	r2, r3
 8006df8:	687b      	ldr	r3, [r7, #4]
 8006dfa:	699b      	ldr	r3, [r3, #24]
 8006dfc:	f403 7300 	and.w	r3, r3, #512	; 0x200
 8006e00:	431a      	orrs	r2, r3
 8006e02:	687b      	ldr	r3, [r7, #4]
 8006e04:	69db      	ldr	r3, [r3, #28]
 8006e06:	f003 0338 	and.w	r3, r3, #56	; 0x38
 8006e0a:	431a      	orrs	r2, r3
 8006e0c:	687b      	ldr	r3, [r7, #4]
 8006e0e:	6a1b      	ldr	r3, [r3, #32]
 8006e10:	f003 0380 	and.w	r3, r3, #128	; 0x80
 8006e14:	ea42 0103 	orr.w	r1, r2, r3
 8006e18:	687b      	ldr	r3, [r7, #4]
 8006e1a:	6a9b      	ldr	r3, [r3, #40]	; 0x28
 8006e1c:	f403 5200 	and.w	r2, r3, #8192	; 0x2000
 8006e20:	687b      	ldr	r3, [r7, #4]
 8006e22:	681b      	ldr	r3, [r3, #0]
 8006e24:	430a      	orrs	r2, r1
 8006e26:	601a      	str	r2, [r3, #0]
                                  (hspi->Init.BaudRatePrescaler & SPI_CR1_BR_Msk) |
                                  (hspi->Init.FirstBit  & SPI_CR1_LSBFIRST) |
                                  (hspi->Init.CRCCalculation & SPI_CR1_CRCEN)));

  /* Configure : NSS management, TI Mode */
  WRITE_REG(hspi->Instance->CR2, (((hspi->Init.NSS >> 16U) & SPI_CR2_SSOE) | (hspi->Init.TIMode & SPI_CR2_FRF)));
 8006e28:	687b      	ldr	r3, [r7, #4]
 8006e2a:	699b      	ldr	r3, [r3, #24]
 8006e2c:	0c1b      	lsrs	r3, r3, #16
 8006e2e:	f003 0104 	and.w	r1, r3, #4
 8006e32:	687b      	ldr	r3, [r7, #4]
 8006e34:	6a5b      	ldr	r3, [r3, #36]	; 0x24
 8006e36:	f003 0210 	and.w	r2, r3, #16
 8006e3a:	687b      	ldr	r3, [r7, #4]
 8006e3c:	681b      	ldr	r3, [r3, #0]
 8006e3e:	430a      	orrs	r2, r1
 8006e40:	605a      	str	r2, [r3, #4]
  }
#endif /* USE_SPI_CRC */

#if defined(SPI_I2SCFGR_I2SMOD)
  /* Activate the SPI mode (Make sure that I2SMOD bit in I2SCFGR register is reset) */
  CLEAR_BIT(hspi->Instance->I2SCFGR, SPI_I2SCFGR_I2SMOD);
 8006e42:	687b      	ldr	r3, [r7, #4]
 8006e44:	681b      	ldr	r3, [r3, #0]
 8006e46:	69da      	ldr	r2, [r3, #28]
 8006e48:	687b      	ldr	r3, [r7, #4]
 8006e4a:	681b      	ldr	r3, [r3, #0]
 8006e4c:	f422 6200 	bic.w	r2, r2, #2048	; 0x800
 8006e50:	61da      	str	r2, [r3, #28]
#endif /* SPI_I2SCFGR_I2SMOD */

  hspi->ErrorCode = HAL_SPI_ERROR_NONE;
 8006e52:	687b      	ldr	r3, [r7, #4]
 8006e54:	2200      	movs	r2, #0
 8006e56:	655a      	str	r2, [r3, #84]	; 0x54
  hspi->State     = HAL_SPI_STATE_READY;
 8006e58:	687b      	ldr	r3, [r7, #4]
 8006e5a:	2201      	movs	r2, #1
 8006e5c:	f883 2051 	strb.w	r2, [r3, #81]	; 0x51

  return HAL_OK;
 8006e60:	2300      	movs	r3, #0
}
 8006e62:	4618      	mov	r0, r3
 8006e64:	3708      	adds	r7, #8
 8006e66:	46bd      	mov	sp, r7
 8006e68:	bd80      	pop	{r7, pc}

08006e6a <HAL_SPI_Transmit>:
  * @param  Size amount of data to be sent
  * @param  Timeout Timeout duration
  * @retval HAL status
  */
HAL_StatusTypeDef HAL_SPI_Transmit(SPI_HandleTypeDef *hspi, uint8_t *pData, uint16_t Size, uint32_t Timeout)
{
 8006e6a:	b580      	push	{r7, lr}
 8006e6c:	b088      	sub	sp, #32
 8006e6e:	af00      	add	r7, sp, #0
 8006e70:	60f8      	str	r0, [r7, #12]
 8006e72:	60b9      	str	r1, [r7, #8]
 8006e74:	603b      	str	r3, [r7, #0]
 8006e76:	4613      	mov	r3, r2
 8006e78:	80fb      	strh	r3, [r7, #6]
  uint32_t tickstart;
  HAL_StatusTypeDef errorcode = HAL_OK;
 8006e7a:	2300      	movs	r3, #0
 8006e7c:	77fb      	strb	r3, [r7, #31]

  /* Check Direction parameter */
  assert_param(IS_SPI_DIRECTION_2LINES_OR_1LINE(hspi->Init.Direction));

  /* Process Locked */
  __HAL_LOCK(hspi);
 8006e7e:	68fb      	ldr	r3, [r7, #12]
 8006e80:	f893 3050 	ldrb.w	r3, [r3, #80]	; 0x50
 8006e84:	2b01      	cmp	r3, #1
 8006e86:	d101      	bne.n	8006e8c <HAL_SPI_Transmit+0x22>
 8006e88:	2302      	movs	r3, #2
 8006e8a:	e12d      	b.n	80070e8 <HAL_SPI_Transmit+0x27e>
 8006e8c:	68fb      	ldr	r3, [r7, #12]
 8006e8e:	2201      	movs	r2, #1
 8006e90:	f883 2050 	strb.w	r2, [r3, #80]	; 0x50

  /* Init tickstart for timeout management*/
  tickstart = HAL_GetTick();
 8006e94:	f7fc f822 	bl	8002edc <HAL_GetTick>
 8006e98:	61b8      	str	r0, [r7, #24]
  initial_TxXferCount = Size;
 8006e9a:	88fb      	ldrh	r3, [r7, #6]
 8006e9c:	82fb      	strh	r3, [r7, #22]

  if (hspi->State != HAL_SPI_STATE_READY)
 8006e9e:	68fb      	ldr	r3, [r7, #12]
 8006ea0:	f893 3051 	ldrb.w	r3, [r3, #81]	; 0x51
 8006ea4:	b2db      	uxtb	r3, r3
 8006ea6:	2b01      	cmp	r3, #1
 8006ea8:	d002      	beq.n	8006eb0 <HAL_SPI_Transmit+0x46>
  {
    errorcode = HAL_BUSY;
 8006eaa:	2302      	movs	r3, #2
 8006eac:	77fb      	strb	r3, [r7, #31]
    goto error;
 8006eae:	e116      	b.n	80070de <HAL_SPI_Transmit+0x274>
  }

  if ((pData == NULL) || (Size == 0U))
 8006eb0:	68bb      	ldr	r3, [r7, #8]
 8006eb2:	2b00      	cmp	r3, #0
 8006eb4:	d002      	beq.n	8006ebc <HAL_SPI_Transmit+0x52>
 8006eb6:	88fb      	ldrh	r3, [r7, #6]
 8006eb8:	2b00      	cmp	r3, #0
 8006eba:	d102      	bne.n	8006ec2 <HAL_SPI_Transmit+0x58>
  {
    errorcode = HAL_ERROR;
 8006ebc:	2301      	movs	r3, #1
 8006ebe:	77fb      	strb	r3, [r7, #31]
    goto error;
 8006ec0:	e10d      	b.n	80070de <HAL_SPI_Transmit+0x274>
  }

  /* Set the transaction information */
  hspi->State       = HAL_SPI_STATE_BUSY_TX;
 8006ec2:	68fb      	ldr	r3, [r7, #12]
 8006ec4:	2203      	movs	r2, #3
 8006ec6:	f883 2051 	strb.w	r2, [r3, #81]	; 0x51
  hspi->ErrorCode   = HAL_SPI_ERROR_NONE;
 8006eca:	68fb      	ldr	r3, [r7, #12]
 8006ecc:	2200      	movs	r2, #0
 8006ece:	655a      	str	r2, [r3, #84]	; 0x54
  hspi->pTxBuffPtr  = (uint8_t *)pData;
 8006ed0:	68fb      	ldr	r3, [r7, #12]
 8006ed2:	68ba      	ldr	r2, [r7, #8]
 8006ed4:	631a      	str	r2, [r3, #48]	; 0x30
  hspi->TxXferSize  = Size;
 8006ed6:	68fb      	ldr	r3, [r7, #12]
 8006ed8:	88fa      	ldrh	r2, [r7, #6]
 8006eda:	869a      	strh	r2, [r3, #52]	; 0x34
  hspi->TxXferCount = Size;
 8006edc:	68fb      	ldr	r3, [r7, #12]
 8006ede:	88fa      	ldrh	r2, [r7, #6]
 8006ee0:	86da      	strh	r2, [r3, #54]	; 0x36

  /*Init field not used in handle to zero */
  hspi->pRxBuffPtr  = (uint8_t *)NULL;
 8006ee2:	68fb      	ldr	r3, [r7, #12]
 8006ee4:	2200      	movs	r2, #0
 8006ee6:	639a      	str	r2, [r3, #56]	; 0x38
  hspi->RxXferSize  = 0U;
 8006ee8:	68fb      	ldr	r3, [r7, #12]
 8006eea:	2200      	movs	r2, #0
 8006eec:	879a      	strh	r2, [r3, #60]	; 0x3c
  hspi->RxXferCount = 0U;
 8006eee:	68fb      	ldr	r3, [r7, #12]
 8006ef0:	2200      	movs	r2, #0
 8006ef2:	87da      	strh	r2, [r3, #62]	; 0x3e
  hspi->TxISR       = NULL;
 8006ef4:	68fb      	ldr	r3, [r7, #12]
 8006ef6:	2200      	movs	r2, #0
 8006ef8:	645a      	str	r2, [r3, #68]	; 0x44
  hspi->RxISR       = NULL;
 8006efa:	68fb      	ldr	r3, [r7, #12]
 8006efc:	2200      	movs	r2, #0
 8006efe:	641a      	str	r2, [r3, #64]	; 0x40

  /* Configure communication direction : 1Line */
  if (hspi->Init.Direction == SPI_DIRECTION_1LINE)
 8006f00:	68fb      	ldr	r3, [r7, #12]
 8006f02:	689b      	ldr	r3, [r3, #8]
 8006f04:	f5b3 4f00 	cmp.w	r3, #32768	; 0x8000
 8006f08:	d10f      	bne.n	8006f2a <HAL_SPI_Transmit+0xc0>
  {
    /* Disable SPI Peripheral before set 1Line direction (BIDIOE bit) */
    __HAL_SPI_DISABLE(hspi);
 8006f0a:	68fb      	ldr	r3, [r7, #12]
 8006f0c:	681b      	ldr	r3, [r3, #0]
 8006f0e:	681a      	ldr	r2, [r3, #0]
 8006f10:	68fb      	ldr	r3, [r7, #12]
 8006f12:	681b      	ldr	r3, [r3, #0]
 8006f14:	f022 0240 	bic.w	r2, r2, #64	; 0x40
 8006f18:	601a      	str	r2, [r3, #0]
    SPI_1LINE_TX(hspi);
 8006f1a:	68fb      	ldr	r3, [r7, #12]
 8006f1c:	681b      	ldr	r3, [r3, #0]
 8006f1e:	681a      	ldr	r2, [r3, #0]
 8006f20:	68fb      	ldr	r3, [r7, #12]
 8006f22:	681b      	ldr	r3, [r3, #0]
 8006f24:	f442 4280 	orr.w	r2, r2, #16384	; 0x4000
 8006f28:	601a      	str	r2, [r3, #0]
    SPI_RESET_CRC(hspi);
  }
#endif /* USE_SPI_CRC */

  /* Check if the SPI is already enabled */
  if ((hspi->Instance->CR1 & SPI_CR1_SPE) != SPI_CR1_SPE)
 8006f2a:	68fb      	ldr	r3, [r7, #12]
 8006f2c:	681b      	ldr	r3, [r3, #0]
 8006f2e:	681b      	ldr	r3, [r3, #0]
 8006f30:	f003 0340 	and.w	r3, r3, #64	; 0x40
 8006f34:	2b40      	cmp	r3, #64	; 0x40
 8006f36:	d007      	beq.n	8006f48 <HAL_SPI_Transmit+0xde>
  {
    /* Enable SPI peripheral */
    __HAL_SPI_ENABLE(hspi);
 8006f38:	68fb      	ldr	r3, [r7, #12]
 8006f3a:	681b      	ldr	r3, [r3, #0]
 8006f3c:	681a      	ldr	r2, [r3, #0]
 8006f3e:	68fb      	ldr	r3, [r7, #12]
 8006f40:	681b      	ldr	r3, [r3, #0]
 8006f42:	f042 0240 	orr.w	r2, r2, #64	; 0x40
 8006f46:	601a      	str	r2, [r3, #0]
  }

  /* Transmit data in 16 Bit mode */
  if (hspi->Init.DataSize == SPI_DATASIZE_16BIT)
 8006f48:	68fb      	ldr	r3, [r7, #12]
 8006f4a:	68db      	ldr	r3, [r3, #12]
 8006f4c:	f5b3 6f00 	cmp.w	r3, #2048	; 0x800
 8006f50:	d14f      	bne.n	8006ff2 <HAL_SPI_Transmit+0x188>
  {
    if ((hspi->Init.Mode == SPI_MODE_SLAVE) || (initial_TxXferCount == 0x01U))
 8006f52:	68fb      	ldr	r3, [r7, #12]
 8006f54:	685b      	ldr	r3, [r3, #4]
 8006f56:	2b00      	cmp	r3, #0
 8006f58:	d002      	beq.n	8006f60 <HAL_SPI_Transmit+0xf6>
 8006f5a:	8afb      	ldrh	r3, [r7, #22]
 8006f5c:	2b01      	cmp	r3, #1
 8006f5e:	d142      	bne.n	8006fe6 <HAL_SPI_Transmit+0x17c>
    {
      hspi->Instance->DR = *((uint16_t *)hspi->pTxBuffPtr);
 8006f60:	68fb      	ldr	r3, [r7, #12]
 8006f62:	6b1b      	ldr	r3, [r3, #48]	; 0x30
 8006f64:	881a      	ldrh	r2, [r3, #0]
 8006f66:	68fb      	ldr	r3, [r7, #12]
 8006f68:	681b      	ldr	r3, [r3, #0]
 8006f6a:	60da      	str	r2, [r3, #12]
      hspi->pTxBuffPtr += sizeof(uint16_t);
 8006f6c:	68fb      	ldr	r3, [r7, #12]
 8006f6e:	6b1b      	ldr	r3, [r3, #48]	; 0x30
 8006f70:	1c9a      	adds	r2, r3, #2
 8006f72:	68fb      	ldr	r3, [r7, #12]
 8006f74:	631a      	str	r2, [r3, #48]	; 0x30
      hspi->TxXferCount--;
 8006f76:	68fb      	ldr	r3, [r7, #12]
 8006f78:	8edb      	ldrh	r3, [r3, #54]	; 0x36
 8006f7a:	b29b      	uxth	r3, r3
 8006f7c:	3b01      	subs	r3, #1
 8006f7e:	b29a      	uxth	r2, r3
 8006f80:	68fb      	ldr	r3, [r7, #12]
 8006f82:	86da      	strh	r2, [r3, #54]	; 0x36
    }
    /* Transmit data in 16 Bit mode */
    while (hspi->TxXferCount > 0U)
 8006f84:	e02f      	b.n	8006fe6 <HAL_SPI_Transmit+0x17c>
    {
      /* Wait until TXE flag is set to send data */
      if (__HAL_SPI_GET_FLAG(hspi, SPI_FLAG_TXE))
 8006f86:	68fb      	ldr	r3, [r7, #12]
 8006f88:	681b      	ldr	r3, [r3, #0]
 8006f8a:	689b      	ldr	r3, [r3, #8]
 8006f8c:	f003 0302 	and.w	r3, r3, #2
 8006f90:	2b02      	cmp	r3, #2
 8006f92:	d112      	bne.n	8006fba <HAL_SPI_Transmit+0x150>
      {
        hspi->Instance->DR = *((uint16_t *)hspi->pTxBuffPtr);
 8006f94:	68fb      	ldr	r3, [r7, #12]
 8006f96:	6b1b      	ldr	r3, [r3, #48]	; 0x30
 8006f98:	881a      	ldrh	r2, [r3, #0]
 8006f9a:	68fb      	ldr	r3, [r7, #12]
 8006f9c:	681b      	ldr	r3, [r3, #0]
 8006f9e:	60da      	str	r2, [r3, #12]
        hspi->pTxBuffPtr += sizeof(uint16_t);
 8006fa0:	68fb      	ldr	r3, [r7, #12]
 8006fa2:	6b1b      	ldr	r3, [r3, #48]	; 0x30
 8006fa4:	1c9a      	adds	r2, r3, #2
 8006fa6:	68fb      	ldr	r3, [r7, #12]
 8006fa8:	631a      	str	r2, [r3, #48]	; 0x30
        hspi->TxXferCount--;
 8006faa:	68fb      	ldr	r3, [r7, #12]
 8006fac:	8edb      	ldrh	r3, [r3, #54]	; 0x36
 8006fae:	b29b      	uxth	r3, r3
 8006fb0:	3b01      	subs	r3, #1
 8006fb2:	b29a      	uxth	r2, r3
 8006fb4:	68fb      	ldr	r3, [r7, #12]
 8006fb6:	86da      	strh	r2, [r3, #54]	; 0x36
 8006fb8:	e015      	b.n	8006fe6 <HAL_SPI_Transmit+0x17c>
      }
      else
      {
        /* Timeout management */
        if ((((HAL_GetTick() - tickstart) >=  Timeout) && (Timeout != HAL_MAX_DELAY)) || (Timeout == 0U))
 8006fba:	f7fb ff8f 	bl	8002edc <HAL_GetTick>
 8006fbe:	4602      	mov	r2, r0
 8006fc0:	69bb      	ldr	r3, [r7, #24]
 8006fc2:	1ad3      	subs	r3, r2, r3
 8006fc4:	683a      	ldr	r2, [r7, #0]
 8006fc6:	429a      	cmp	r2, r3
 8006fc8:	d803      	bhi.n	8006fd2 <HAL_SPI_Transmit+0x168>
 8006fca:	683b      	ldr	r3, [r7, #0]
 8006fcc:	f1b3 3fff 	cmp.w	r3, #4294967295	; 0xffffffff
 8006fd0:	d102      	bne.n	8006fd8 <HAL_SPI_Transmit+0x16e>
 8006fd2:	683b      	ldr	r3, [r7, #0]
 8006fd4:	2b00      	cmp	r3, #0
 8006fd6:	d106      	bne.n	8006fe6 <HAL_SPI_Transmit+0x17c>
        {
          errorcode = HAL_TIMEOUT;
 8006fd8:	2303      	movs	r3, #3
 8006fda:	77fb      	strb	r3, [r7, #31]
          hspi->State = HAL_SPI_STATE_READY;
 8006fdc:	68fb      	ldr	r3, [r7, #12]
 8006fde:	2201      	movs	r2, #1
 8006fe0:	f883 2051 	strb.w	r2, [r3, #81]	; 0x51
          goto error;
 8006fe4:	e07b      	b.n	80070de <HAL_SPI_Transmit+0x274>
    while (hspi->TxXferCount > 0U)
 8006fe6:	68fb      	ldr	r3, [r7, #12]
 8006fe8:	8edb      	ldrh	r3, [r3, #54]	; 0x36
 8006fea:	b29b      	uxth	r3, r3
 8006fec:	2b00      	cmp	r3, #0
 8006fee:	d1ca      	bne.n	8006f86 <HAL_SPI_Transmit+0x11c>
 8006ff0:	e050      	b.n	8007094 <HAL_SPI_Transmit+0x22a>
    }
  }
  /* Transmit data in 8 Bit mode */
  else
  {
    if ((hspi->Init.Mode == SPI_MODE_SLAVE) || (initial_TxXferCount == 0x01U))
 8006ff2:	68fb      	ldr	r3, [r7, #12]
 8006ff4:	685b      	ldr	r3, [r3, #4]
 8006ff6:	2b00      	cmp	r3, #0
 8006ff8:	d002      	beq.n	8007000 <HAL_SPI_Transmit+0x196>
 8006ffa:	8afb      	ldrh	r3, [r7, #22]
 8006ffc:	2b01      	cmp	r3, #1
 8006ffe:	d144      	bne.n	800708a <HAL_SPI_Transmit+0x220>
    {
      *((__IO uint8_t *)&hspi->Instance->DR) = (*hspi->pTxBuffPtr);
 8007000:	68fb      	ldr	r3, [r7, #12]
 8007002:	6b1a      	ldr	r2, [r3, #48]	; 0x30
 8007004:	68fb      	ldr	r3, [r7, #12]
 8007006:	681b      	ldr	r3, [r3, #0]
 8007008:	330c      	adds	r3, #12
 800700a:	7812      	ldrb	r2, [r2, #0]
 800700c:	701a      	strb	r2, [r3, #0]
      hspi->pTxBuffPtr += sizeof(uint8_t);
 800700e:	68fb      	ldr	r3, [r7, #12]
 8007010:	6b1b      	ldr	r3, [r3, #48]	; 0x30
 8007012:	1c5a      	adds	r2, r3, #1
 8007014:	68fb      	ldr	r3, [r7, #12]
 8007016:	631a      	str	r2, [r3, #48]	; 0x30
      hspi->TxXferCount--;
 8007018:	68fb      	ldr	r3, [r7, #12]
 800701a:	8edb      	ldrh	r3, [r3, #54]	; 0x36
 800701c:	b29b      	uxth	r3, r3
 800701e:	3b01      	subs	r3, #1
 8007020:	b29a      	uxth	r2, r3
 8007022:	68fb      	ldr	r3, [r7, #12]
 8007024:	86da      	strh	r2, [r3, #54]	; 0x36
    }
    while (hspi->TxXferCount > 0U)
 8007026:	e030      	b.n	800708a <HAL_SPI_Transmit+0x220>
    {
      /* Wait until TXE flag is set to send data */
      if (__HAL_SPI_GET_FLAG(hspi, SPI_FLAG_TXE))
 8007028:	68fb      	ldr	r3, [r7, #12]
 800702a:	681b      	ldr	r3, [r3, #0]
 800702c:	689b      	ldr	r3, [r3, #8]
 800702e:	f003 0302 	and.w	r3, r3, #2
 8007032:	2b02      	cmp	r3, #2
 8007034:	d113      	bne.n	800705e <HAL_SPI_Transmit+0x1f4>
      {
        *((__IO uint8_t *)&hspi->Instance->DR) = (*hspi->pTxBuffPtr);
 8007036:	68fb      	ldr	r3, [r7, #12]
 8007038:	6b1a      	ldr	r2, [r3, #48]	; 0x30
 800703a:	68fb      	ldr	r3, [r7, #12]
 800703c:	681b      	ldr	r3, [r3, #0]
 800703e:	330c      	adds	r3, #12
 8007040:	7812      	ldrb	r2, [r2, #0]
 8007042:	701a      	strb	r2, [r3, #0]
        hspi->pTxBuffPtr += sizeof(uint8_t);
 8007044:	68fb      	ldr	r3, [r7, #12]
 8007046:	6b1b      	ldr	r3, [r3, #48]	; 0x30
 8007048:	1c5a      	adds	r2, r3, #1
 800704a:	68fb      	ldr	r3, [r7, #12]
 800704c:	631a      	str	r2, [r3, #48]	; 0x30
        hspi->TxXferCount--;
 800704e:	68fb      	ldr	r3, [r7, #12]
 8007050:	8edb      	ldrh	r3, [r3, #54]	; 0x36
 8007052:	b29b      	uxth	r3, r3
 8007054:	3b01      	subs	r3, #1
 8007056:	b29a      	uxth	r2, r3
 8007058:	68fb      	ldr	r3, [r7, #12]
 800705a:	86da      	strh	r2, [r3, #54]	; 0x36
 800705c:	e015      	b.n	800708a <HAL_SPI_Transmit+0x220>
      }
      else
      {
        /* Timeout management */
        if ((((HAL_GetTick() - tickstart) >=  Timeout) && (Timeout != HAL_MAX_DELAY)) || (Timeout == 0U))
 800705e:	f7fb ff3d 	bl	8002edc <HAL_GetTick>
 8007062:	4602      	mov	r2, r0
 8007064:	69bb      	ldr	r3, [r7, #24]
 8007066:	1ad3      	subs	r3, r2, r3
 8007068:	683a      	ldr	r2, [r7, #0]
 800706a:	429a      	cmp	r2, r3
 800706c:	d803      	bhi.n	8007076 <HAL_SPI_Transmit+0x20c>
 800706e:	683b      	ldr	r3, [r7, #0]
 8007070:	f1b3 3fff 	cmp.w	r3, #4294967295	; 0xffffffff
 8007074:	d102      	bne.n	800707c <HAL_SPI_Transmit+0x212>
 8007076:	683b      	ldr	r3, [r7, #0]
 8007078:	2b00      	cmp	r3, #0
 800707a:	d106      	bne.n	800708a <HAL_SPI_Transmit+0x220>
        {
          errorcode = HAL_TIMEOUT;
 800707c:	2303      	movs	r3, #3
 800707e:	77fb      	strb	r3, [r7, #31]
          hspi->State = HAL_SPI_STATE_READY;
 8007080:	68fb      	ldr	r3, [r7, #12]
 8007082:	2201      	movs	r2, #1
 8007084:	f883 2051 	strb.w	r2, [r3, #81]	; 0x51
          goto error;
 8007088:	e029      	b.n	80070de <HAL_SPI_Transmit+0x274>
    while (hspi->TxXferCount > 0U)
 800708a:	68fb      	ldr	r3, [r7, #12]
 800708c:	8edb      	ldrh	r3, [r3, #54]	; 0x36
 800708e:	b29b      	uxth	r3, r3
 8007090:	2b00      	cmp	r3, #0
 8007092:	d1c9      	bne.n	8007028 <HAL_SPI_Transmit+0x1be>
    SET_BIT(hspi->Instance->CR1, SPI_CR1_CRCNEXT);
  }
#endif /* USE_SPI_CRC */

  /* Check the end of the transaction */
  if (SPI_EndRxTxTransaction(hspi, Timeout, tickstart) != HAL_OK)
 8007094:	69ba      	ldr	r2, [r7, #24]
 8007096:	6839      	ldr	r1, [r7, #0]
 8007098:	68f8      	ldr	r0, [r7, #12]
 800709a:	f000 fd27 	bl	8007aec <SPI_EndRxTxTransaction>
 800709e:	4603      	mov	r3, r0
 80070a0:	2b00      	cmp	r3, #0
 80070a2:	d002      	beq.n	80070aa <HAL_SPI_Transmit+0x240>
  {
    hspi->ErrorCode = HAL_SPI_ERROR_FLAG;
 80070a4:	68fb      	ldr	r3, [r7, #12]
 80070a6:	2220      	movs	r2, #32
 80070a8:	655a      	str	r2, [r3, #84]	; 0x54
  }

  /* Clear overrun flag in 2 Lines communication mode because received is not read */
  if (hspi->Init.Direction == SPI_DIRECTION_2LINES)
 80070aa:	68fb      	ldr	r3, [r7, #12]
 80070ac:	689b      	ldr	r3, [r3, #8]
 80070ae:	2b00      	cmp	r3, #0
 80070b0:	d10a      	bne.n	80070c8 <HAL_SPI_Transmit+0x25e>
  {
    __HAL_SPI_CLEAR_OVRFLAG(hspi);
 80070b2:	2300      	movs	r3, #0
 80070b4:	613b      	str	r3, [r7, #16]
 80070b6:	68fb      	ldr	r3, [r7, #12]
 80070b8:	681b      	ldr	r3, [r3, #0]
 80070ba:	68db      	ldr	r3, [r3, #12]
 80070bc:	613b      	str	r3, [r7, #16]
 80070be:	68fb      	ldr	r3, [r7, #12]
 80070c0:	681b      	ldr	r3, [r3, #0]
 80070c2:	689b      	ldr	r3, [r3, #8]
 80070c4:	613b      	str	r3, [r7, #16]
 80070c6:	693b      	ldr	r3, [r7, #16]
  }

  if (hspi->ErrorCode != HAL_SPI_ERROR_NONE)
 80070c8:	68fb      	ldr	r3, [r7, #12]
 80070ca:	6d5b      	ldr	r3, [r3, #84]	; 0x54
 80070cc:	2b00      	cmp	r3, #0
 80070ce:	d002      	beq.n	80070d6 <HAL_SPI_Transmit+0x26c>
  {
    errorcode = HAL_ERROR;
 80070d0:	2301      	movs	r3, #1
 80070d2:	77fb      	strb	r3, [r7, #31]
 80070d4:	e003      	b.n	80070de <HAL_SPI_Transmit+0x274>
  }
  else
  {
    hspi->State = HAL_SPI_STATE_READY;
 80070d6:	68fb      	ldr	r3, [r7, #12]
 80070d8:	2201      	movs	r2, #1
 80070da:	f883 2051 	strb.w	r2, [r3, #81]	; 0x51
  }

error:
  /* Process Unlocked */
  __HAL_UNLOCK(hspi);
 80070de:	68fb      	ldr	r3, [r7, #12]
 80070e0:	2200      	movs	r2, #0
 80070e2:	f883 2050 	strb.w	r2, [r3, #80]	; 0x50
  return errorcode;
 80070e6:	7ffb      	ldrb	r3, [r7, #31]
}
 80070e8:	4618      	mov	r0, r3
 80070ea:	3720      	adds	r7, #32
 80070ec:	46bd      	mov	sp, r7
 80070ee:	bd80      	pop	{r7, pc}

080070f0 <HAL_SPI_Receive>:
  * @param  Size amount of data to be received
  * @param  Timeout Timeout duration
  * @retval HAL status
  */
HAL_StatusTypeDef HAL_SPI_Receive(SPI_HandleTypeDef *hspi, uint8_t *pData, uint16_t Size, uint32_t Timeout)
{
 80070f0:	b580      	push	{r7, lr}
 80070f2:	b088      	sub	sp, #32
 80070f4:	af02      	add	r7, sp, #8
 80070f6:	60f8      	str	r0, [r7, #12]
 80070f8:	60b9      	str	r1, [r7, #8]
 80070fa:	603b      	str	r3, [r7, #0]
 80070fc:	4613      	mov	r3, r2
 80070fe:	80fb      	strh	r3, [r7, #6]
#if (USE_SPI_CRC != 0U)
  __IO uint32_t tmpreg = 0U;
#endif /* USE_SPI_CRC */
  uint32_t tickstart;
  HAL_StatusTypeDef errorcode = HAL_OK;
 8007100:	2300      	movs	r3, #0
 8007102:	75fb      	strb	r3, [r7, #23]

  if (hspi->State != HAL_SPI_STATE_READY)
 8007104:	68fb      	ldr	r3, [r7, #12]
 8007106:	f893 3051 	ldrb.w	r3, [r3, #81]	; 0x51
 800710a:	b2db      	uxtb	r3, r3
 800710c:	2b01      	cmp	r3, #1
 800710e:	d002      	beq.n	8007116 <HAL_SPI_Receive+0x26>
  {
    errorcode = HAL_BUSY;
 8007110:	2302      	movs	r3, #2
 8007112:	75fb      	strb	r3, [r7, #23]
    goto error;
 8007114:	e0fb      	b.n	800730e <HAL_SPI_Receive+0x21e>
  }

  if ((hspi->Init.Mode == SPI_MODE_MASTER) && (hspi->Init.Direction == SPI_DIRECTION_2LINES))
 8007116:	68fb      	ldr	r3, [r7, #12]
 8007118:	685b      	ldr	r3, [r3, #4]
 800711a:	f5b3 7f82 	cmp.w	r3, #260	; 0x104
 800711e:	d112      	bne.n	8007146 <HAL_SPI_Receive+0x56>
 8007120:	68fb      	ldr	r3, [r7, #12]
 8007122:	689b      	ldr	r3, [r3, #8]
 8007124:	2b00      	cmp	r3, #0
 8007126:	d10e      	bne.n	8007146 <HAL_SPI_Receive+0x56>
  {
    hspi->State = HAL_SPI_STATE_BUSY_RX;
 8007128:	68fb      	ldr	r3, [r7, #12]
 800712a:	2204      	movs	r2, #4
 800712c:	f883 2051 	strb.w	r2, [r3, #81]	; 0x51
    /* Call transmit-receive function to send Dummy data on Tx line and generate clock on CLK line */
    return HAL_SPI_TransmitReceive(hspi, pData, pData, Size, Timeout);
 8007130:	88fa      	ldrh	r2, [r7, #6]
 8007132:	683b      	ldr	r3, [r7, #0]
 8007134:	9300      	str	r3, [sp, #0]
 8007136:	4613      	mov	r3, r2
 8007138:	68ba      	ldr	r2, [r7, #8]
 800713a:	68b9      	ldr	r1, [r7, #8]
 800713c:	68f8      	ldr	r0, [r7, #12]
 800713e:	f000 f8ef 	bl	8007320 <HAL_SPI_TransmitReceive>
 8007142:	4603      	mov	r3, r0
 8007144:	e0e8      	b.n	8007318 <HAL_SPI_Receive+0x228>
  }

  /* Process Locked */
  __HAL_LOCK(hspi);
 8007146:	68fb      	ldr	r3, [r7, #12]
 8007148:	f893 3050 	ldrb.w	r3, [r3, #80]	; 0x50
 800714c:	2b01      	cmp	r3, #1
 800714e:	d101      	bne.n	8007154 <HAL_SPI_Receive+0x64>
 8007150:	2302      	movs	r3, #2
 8007152:	e0e1      	b.n	8007318 <HAL_SPI_Receive+0x228>
 8007154:	68fb      	ldr	r3, [r7, #12]
 8007156:	2201      	movs	r2, #1
 8007158:	f883 2050 	strb.w	r2, [r3, #80]	; 0x50

  /* Init tickstart for timeout management*/
  tickstart = HAL_GetTick();
 800715c:	f7fb febe 	bl	8002edc <HAL_GetTick>
 8007160:	6138      	str	r0, [r7, #16]

  if ((pData == NULL) || (Size == 0U))
 8007162:	68bb      	ldr	r3, [r7, #8]
 8007164:	2b00      	cmp	r3, #0
 8007166:	d002      	beq.n	800716e <HAL_SPI_Receive+0x7e>
 8007168:	88fb      	ldrh	r3, [r7, #6]
 800716a:	2b00      	cmp	r3, #0
 800716c:	d102      	bne.n	8007174 <HAL_SPI_Receive+0x84>
  {
    errorcode = HAL_ERROR;
 800716e:	2301      	movs	r3, #1
 8007170:	75fb      	strb	r3, [r7, #23]
    goto error;
 8007172:	e0cc      	b.n	800730e <HAL_SPI_Receive+0x21e>
  }

  /* Set the transaction information */
  hspi->State       = HAL_SPI_STATE_BUSY_RX;
 8007174:	68fb      	ldr	r3, [r7, #12]
 8007176:	2204      	movs	r2, #4
 8007178:	f883 2051 	strb.w	r2, [r3, #81]	; 0x51
  hspi->ErrorCode   = HAL_SPI_ERROR_NONE;
 800717c:	68fb      	ldr	r3, [r7, #12]
 800717e:	2200      	movs	r2, #0
 8007180:	655a      	str	r2, [r3, #84]	; 0x54
  hspi->pRxBuffPtr  = (uint8_t *)pData;
 8007182:	68fb      	ldr	r3, [r7, #12]
 8007184:	68ba      	ldr	r2, [r7, #8]
 8007186:	639a      	str	r2, [r3, #56]	; 0x38
  hspi->RxXferSize  = Size;
 8007188:	68fb      	ldr	r3, [r7, #12]
 800718a:	88fa      	ldrh	r2, [r7, #6]
 800718c:	879a      	strh	r2, [r3, #60]	; 0x3c
  hspi->RxXferCount = Size;
 800718e:	68fb      	ldr	r3, [r7, #12]
 8007190:	88fa      	ldrh	r2, [r7, #6]
 8007192:	87da      	strh	r2, [r3, #62]	; 0x3e

  /*Init field not used in handle to zero */
  hspi->pTxBuffPtr  = (uint8_t *)NULL;
 8007194:	68fb      	ldr	r3, [r7, #12]
 8007196:	2200      	movs	r2, #0
 8007198:	631a      	str	r2, [r3, #48]	; 0x30
  hspi->TxXferSize  = 0U;
 800719a:	68fb      	ldr	r3, [r7, #12]
 800719c:	2200      	movs	r2, #0
 800719e:	869a      	strh	r2, [r3, #52]	; 0x34
  hspi->TxXferCount = 0U;
 80071a0:	68fb      	ldr	r3, [r7, #12]
 80071a2:	2200      	movs	r2, #0
 80071a4:	86da      	strh	r2, [r3, #54]	; 0x36
  hspi->RxISR       = NULL;
 80071a6:	68fb      	ldr	r3, [r7, #12]
 80071a8:	2200      	movs	r2, #0
 80071aa:	641a      	str	r2, [r3, #64]	; 0x40
  hspi->TxISR       = NULL;
 80071ac:	68fb      	ldr	r3, [r7, #12]
 80071ae:	2200      	movs	r2, #0
 80071b0:	645a      	str	r2, [r3, #68]	; 0x44
    hspi->RxXferCount--;
  }
#endif /* USE_SPI_CRC */

  /* Configure communication direction: 1Line */
  if (hspi->Init.Direction == SPI_DIRECTION_1LINE)
 80071b2:	68fb      	ldr	r3, [r7, #12]
 80071b4:	689b      	ldr	r3, [r3, #8]
 80071b6:	f5b3 4f00 	cmp.w	r3, #32768	; 0x8000
 80071ba:	d10f      	bne.n	80071dc <HAL_SPI_Receive+0xec>
  {
    /* Disable SPI Peripheral before set 1Line direction (BIDIOE bit) */
    __HAL_SPI_DISABLE(hspi);
 80071bc:	68fb      	ldr	r3, [r7, #12]
 80071be:	681b      	ldr	r3, [r3, #0]
 80071c0:	681a      	ldr	r2, [r3, #0]
 80071c2:	68fb      	ldr	r3, [r7, #12]
 80071c4:	681b      	ldr	r3, [r3, #0]
 80071c6:	f022 0240 	bic.w	r2, r2, #64	; 0x40
 80071ca:	601a      	str	r2, [r3, #0]
    SPI_1LINE_RX(hspi);
 80071cc:	68fb      	ldr	r3, [r7, #12]
 80071ce:	681b      	ldr	r3, [r3, #0]
 80071d0:	681a      	ldr	r2, [r3, #0]
 80071d2:	68fb      	ldr	r3, [r7, #12]
 80071d4:	681b      	ldr	r3, [r3, #0]
 80071d6:	f422 4280 	bic.w	r2, r2, #16384	; 0x4000
 80071da:	601a      	str	r2, [r3, #0]
  }

  /* Check if the SPI is already enabled */
  if ((hspi->Instance->CR1 & SPI_CR1_SPE) != SPI_CR1_SPE)
 80071dc:	68fb      	ldr	r3, [r7, #12]
 80071de:	681b      	ldr	r3, [r3, #0]
 80071e0:	681b      	ldr	r3, [r3, #0]
 80071e2:	f003 0340 	and.w	r3, r3, #64	; 0x40
 80071e6:	2b40      	cmp	r3, #64	; 0x40
 80071e8:	d007      	beq.n	80071fa <HAL_SPI_Receive+0x10a>
  {
    /* Enable SPI peripheral */
    __HAL_SPI_ENABLE(hspi);
 80071ea:	68fb      	ldr	r3, [r7, #12]
 80071ec:	681b      	ldr	r3, [r3, #0]
 80071ee:	681a      	ldr	r2, [r3, #0]
 80071f0:	68fb      	ldr	r3, [r7, #12]
 80071f2:	681b      	ldr	r3, [r3, #0]
 80071f4:	f042 0240 	orr.w	r2, r2, #64	; 0x40
 80071f8:	601a      	str	r2, [r3, #0]
  }

  /* Receive data in 8 Bit mode */
  if (hspi->Init.DataSize == SPI_DATASIZE_8BIT)
 80071fa:	68fb      	ldr	r3, [r7, #12]
 80071fc:	68db      	ldr	r3, [r3, #12]
 80071fe:	2b00      	cmp	r3, #0
 8007200:	d16a      	bne.n	80072d8 <HAL_SPI_Receive+0x1e8>
  {
    /* Transfer loop */
    while (hspi->RxXferCount > 0U)
 8007202:	e032      	b.n	800726a <HAL_SPI_Receive+0x17a>
    {
      /* Check the RXNE flag */
      if (__HAL_SPI_GET_FLAG(hspi, SPI_FLAG_RXNE))
 8007204:	68fb      	ldr	r3, [r7, #12]
 8007206:	681b      	ldr	r3, [r3, #0]
 8007208:	689b      	ldr	r3, [r3, #8]
 800720a:	f003 0301 	and.w	r3, r3, #1
 800720e:	2b01      	cmp	r3, #1
 8007210:	d115      	bne.n	800723e <HAL_SPI_Receive+0x14e>
      {
        /* read the received data */
        (* (uint8_t *)hspi->pRxBuffPtr) = *(__IO uint8_t *)&hspi->Instance->DR;
 8007212:	68fb      	ldr	r3, [r7, #12]
 8007214:	681b      	ldr	r3, [r3, #0]
 8007216:	f103 020c 	add.w	r2, r3, #12
 800721a:	68fb      	ldr	r3, [r7, #12]
 800721c:	6b9b      	ldr	r3, [r3, #56]	; 0x38
 800721e:	7812      	ldrb	r2, [r2, #0]
 8007220:	b2d2      	uxtb	r2, r2
 8007222:	701a      	strb	r2, [r3, #0]
        hspi->pRxBuffPtr += sizeof(uint8_t);
 8007224:	68fb      	ldr	r3, [r7, #12]
 8007226:	6b9b      	ldr	r3, [r3, #56]	; 0x38
 8007228:	1c5a      	adds	r2, r3, #1
 800722a:	68fb      	ldr	r3, [r7, #12]
 800722c:	639a      	str	r2, [r3, #56]	; 0x38
        hspi->RxXferCount--;
 800722e:	68fb      	ldr	r3, [r7, #12]
 8007230:	8fdb      	ldrh	r3, [r3, #62]	; 0x3e
 8007232:	b29b      	uxth	r3, r3
 8007234:	3b01      	subs	r3, #1
 8007236:	b29a      	uxth	r2, r3
 8007238:	68fb      	ldr	r3, [r7, #12]
 800723a:	87da      	strh	r2, [r3, #62]	; 0x3e
 800723c:	e015      	b.n	800726a <HAL_SPI_Receive+0x17a>
      }
      else
      {
        /* Timeout management */
        if ((((HAL_GetTick() - tickstart) >=  Timeout) && (Timeout != HAL_MAX_DELAY)) || (Timeout == 0U))
 800723e:	f7fb fe4d 	bl	8002edc <HAL_GetTick>
 8007242:	4602      	mov	r2, r0
 8007244:	693b      	ldr	r3, [r7, #16]
 8007246:	1ad3      	subs	r3, r2, r3
 8007248:	683a      	ldr	r2, [r7, #0]
 800724a:	429a      	cmp	r2, r3
 800724c:	d803      	bhi.n	8007256 <HAL_SPI_Receive+0x166>
 800724e:	683b      	ldr	r3, [r7, #0]
 8007250:	f1b3 3fff 	cmp.w	r3, #4294967295	; 0xffffffff
 8007254:	d102      	bne.n	800725c <HAL_SPI_Receive+0x16c>
 8007256:	683b      	ldr	r3, [r7, #0]
 8007258:	2b00      	cmp	r3, #0
 800725a:	d106      	bne.n	800726a <HAL_SPI_Receive+0x17a>
        {
          errorcode = HAL_TIMEOUT;
 800725c:	2303      	movs	r3, #3
 800725e:	75fb      	strb	r3, [r7, #23]
          hspi->State = HAL_SPI_STATE_READY;
 8007260:	68fb      	ldr	r3, [r7, #12]
 8007262:	2201      	movs	r2, #1
 8007264:	f883 2051 	strb.w	r2, [r3, #81]	; 0x51
          goto error;
 8007268:	e051      	b.n	800730e <HAL_SPI_Receive+0x21e>
    while (hspi->RxXferCount > 0U)
 800726a:	68fb      	ldr	r3, [r7, #12]
 800726c:	8fdb      	ldrh	r3, [r3, #62]	; 0x3e
 800726e:	b29b      	uxth	r3, r3
 8007270:	2b00      	cmp	r3, #0
 8007272:	d1c7      	bne.n	8007204 <HAL_SPI_Receive+0x114>
 8007274:	e035      	b.n	80072e2 <HAL_SPI_Receive+0x1f2>
  {
    /* Transfer loop */
    while (hspi->RxXferCount > 0U)
    {
      /* Check the RXNE flag */
      if (__HAL_SPI_GET_FLAG(hspi, SPI_FLAG_RXNE))
 8007276:	68fb      	ldr	r3, [r7, #12]
 8007278:	681b      	ldr	r3, [r3, #0]
 800727a:	689b      	ldr	r3, [r3, #8]
 800727c:	f003 0301 	and.w	r3, r3, #1
 8007280:	2b01      	cmp	r3, #1
 8007282:	d113      	bne.n	80072ac <HAL_SPI_Receive+0x1bc>
      {
        *((uint16_t *)hspi->pRxBuffPtr) = (uint16_t)hspi->Instance->DR;
 8007284:	68fb      	ldr	r3, [r7, #12]
 8007286:	681b      	ldr	r3, [r3, #0]
 8007288:	68da      	ldr	r2, [r3, #12]
 800728a:	68fb      	ldr	r3, [r7, #12]
 800728c:	6b9b      	ldr	r3, [r3, #56]	; 0x38
 800728e:	b292      	uxth	r2, r2
 8007290:	801a      	strh	r2, [r3, #0]
        hspi->pRxBuffPtr += sizeof(uint16_t);
 8007292:	68fb      	ldr	r3, [r7, #12]
 8007294:	6b9b      	ldr	r3, [r3, #56]	; 0x38
 8007296:	1c9a      	adds	r2, r3, #2
 8007298:	68fb      	ldr	r3, [r7, #12]
 800729a:	639a      	str	r2, [r3, #56]	; 0x38
        hspi->RxXferCount--;
 800729c:	68fb      	ldr	r3, [r7, #12]
 800729e:	8fdb      	ldrh	r3, [r3, #62]	; 0x3e
 80072a0:	b29b      	uxth	r3, r3
 80072a2:	3b01      	subs	r3, #1
 80072a4:	b29a      	uxth	r2, r3
 80072a6:	68fb      	ldr	r3, [r7, #12]
 80072a8:	87da      	strh	r2, [r3, #62]	; 0x3e
 80072aa:	e015      	b.n	80072d8 <HAL_SPI_Receive+0x1e8>
      }
      else
      {
        /* Timeout management */
        if ((((HAL_GetTick() - tickstart) >=  Timeout) && (Timeout != HAL_MAX_DELAY)) || (Timeout == 0U))
 80072ac:	f7fb fe16 	bl	8002edc <HAL_GetTick>
 80072b0:	4602      	mov	r2, r0
 80072b2:	693b      	ldr	r3, [r7, #16]
 80072b4:	1ad3      	subs	r3, r2, r3
 80072b6:	683a      	ldr	r2, [r7, #0]
 80072b8:	429a      	cmp	r2, r3
 80072ba:	d803      	bhi.n	80072c4 <HAL_SPI_Receive+0x1d4>
 80072bc:	683b      	ldr	r3, [r7, #0]
 80072be:	f1b3 3fff 	cmp.w	r3, #4294967295	; 0xffffffff
 80072c2:	d102      	bne.n	80072ca <HAL_SPI_Receive+0x1da>
 80072c4:	683b      	ldr	r3, [r7, #0]
 80072c6:	2b00      	cmp	r3, #0
 80072c8:	d106      	bne.n	80072d8 <HAL_SPI_Receive+0x1e8>
        {
          errorcode = HAL_TIMEOUT;
 80072ca:	2303      	movs	r3, #3
 80072cc:	75fb      	strb	r3, [r7, #23]
          hspi->State = HAL_SPI_STATE_READY;
 80072ce:	68fb      	ldr	r3, [r7, #12]
 80072d0:	2201      	movs	r2, #1
 80072d2:	f883 2051 	strb.w	r2, [r3, #81]	; 0x51
          goto error;
 80072d6:	e01a      	b.n	800730e <HAL_SPI_Receive+0x21e>
    while (hspi->RxXferCount > 0U)
 80072d8:	68fb      	ldr	r3, [r7, #12]
 80072da:	8fdb      	ldrh	r3, [r3, #62]	; 0x3e
 80072dc:	b29b      	uxth	r3, r3
 80072de:	2b00      	cmp	r3, #0
 80072e0:	d1c9      	bne.n	8007276 <HAL_SPI_Receive+0x186>
    UNUSED(tmpreg);
  }
#endif /* USE_SPI_CRC */

  /* Check the end of the transaction */
  if (SPI_EndRxTransaction(hspi, Timeout, tickstart) != HAL_OK)
 80072e2:	693a      	ldr	r2, [r7, #16]
 80072e4:	6839      	ldr	r1, [r7, #0]
 80072e6:	68f8      	ldr	r0, [r7, #12]
 80072e8:	f000 fb9a 	bl	8007a20 <SPI_EndRxTransaction>
 80072ec:	4603      	mov	r3, r0
 80072ee:	2b00      	cmp	r3, #0
 80072f0:	d002      	beq.n	80072f8 <HAL_SPI_Receive+0x208>
  {
    hspi->ErrorCode = HAL_SPI_ERROR_FLAG;
 80072f2:	68fb      	ldr	r3, [r7, #12]
 80072f4:	2220      	movs	r2, #32
 80072f6:	655a      	str	r2, [r3, #84]	; 0x54
    SET_BIT(hspi->ErrorCode, HAL_SPI_ERROR_CRC);
    __HAL_SPI_CLEAR_CRCERRFLAG(hspi);
  }
#endif /* USE_SPI_CRC */

  if (hspi->ErrorCode != HAL_SPI_ERROR_NONE)
 80072f8:	68fb      	ldr	r3, [r7, #12]
 80072fa:	6d5b      	ldr	r3, [r3, #84]	; 0x54
 80072fc:	2b00      	cmp	r3, #0
 80072fe:	d002      	beq.n	8007306 <HAL_SPI_Receive+0x216>
  {
    errorcode = HAL_ERROR;
 8007300:	2301      	movs	r3, #1
 8007302:	75fb      	strb	r3, [r7, #23]
 8007304:	e003      	b.n	800730e <HAL_SPI_Receive+0x21e>
  }
  else
  {
    hspi->State = HAL_SPI_STATE_READY;
 8007306:	68fb      	ldr	r3, [r7, #12]
 8007308:	2201      	movs	r2, #1
 800730a:	f883 2051 	strb.w	r2, [r3, #81]	; 0x51
  }

error :
  __HAL_UNLOCK(hspi);
 800730e:	68fb      	ldr	r3, [r7, #12]
 8007310:	2200      	movs	r2, #0
 8007312:	f883 2050 	strb.w	r2, [r3, #80]	; 0x50
  return errorcode;
 8007316:	7dfb      	ldrb	r3, [r7, #23]
}
 8007318:	4618      	mov	r0, r3
 800731a:	3718      	adds	r7, #24
 800731c:	46bd      	mov	sp, r7
 800731e:	bd80      	pop	{r7, pc}

08007320 <HAL_SPI_TransmitReceive>:
  * @param  Timeout Timeout duration
  * @retval HAL status
  */
HAL_StatusTypeDef HAL_SPI_TransmitReceive(SPI_HandleTypeDef *hspi, uint8_t *pTxData, uint8_t *pRxData, uint16_t Size,
                                          uint32_t Timeout)
{
 8007320:	b580      	push	{r7, lr}
 8007322:	b08c      	sub	sp, #48	; 0x30
 8007324:	af00      	add	r7, sp, #0
 8007326:	60f8      	str	r0, [r7, #12]
 8007328:	60b9      	str	r1, [r7, #8]
 800732a:	607a      	str	r2, [r7, #4]
 800732c:	807b      	strh	r3, [r7, #2]
#if (USE_SPI_CRC != 0U)
  __IO uint32_t tmpreg = 0U;
#endif /* USE_SPI_CRC */

  /* Variable used to alternate Rx and Tx during transfer */
  uint32_t             txallowed = 1U;
 800732e:	2301      	movs	r3, #1
 8007330:	62fb      	str	r3, [r7, #44]	; 0x2c
  HAL_StatusTypeDef    errorcode = HAL_OK;
 8007332:	2300      	movs	r3, #0
 8007334:	f887 302b 	strb.w	r3, [r7, #43]	; 0x2b

  /* Check Direction parameter */
  assert_param(IS_SPI_DIRECTION_2LINES(hspi->Init.Direction));

  /* Process Locked */
  __HAL_LOCK(hspi);
 8007338:	68fb      	ldr	r3, [r7, #12]
 800733a:	f893 3050 	ldrb.w	r3, [r3, #80]	; 0x50
 800733e:	2b01      	cmp	r3, #1
 8007340:	d101      	bne.n	8007346 <HAL_SPI_TransmitReceive+0x26>
 8007342:	2302      	movs	r3, #2
 8007344:	e198      	b.n	8007678 <HAL_SPI_TransmitReceive+0x358>
 8007346:	68fb      	ldr	r3, [r7, #12]
 8007348:	2201      	movs	r2, #1
 800734a:	f883 2050 	strb.w	r2, [r3, #80]	; 0x50

  /* Init tickstart for timeout management*/
  tickstart = HAL_GetTick();
 800734e:	f7fb fdc5 	bl	8002edc <HAL_GetTick>
 8007352:	6278      	str	r0, [r7, #36]	; 0x24

  /* Init temporary variables */
  tmp_state           = hspi->State;
 8007354:	68fb      	ldr	r3, [r7, #12]
 8007356:	f893 3051 	ldrb.w	r3, [r3, #81]	; 0x51
 800735a:	f887 3023 	strb.w	r3, [r7, #35]	; 0x23
  tmp_mode            = hspi->Init.Mode;
 800735e:	68fb      	ldr	r3, [r7, #12]
 8007360:	685b      	ldr	r3, [r3, #4]
 8007362:	61fb      	str	r3, [r7, #28]
  initial_TxXferCount = Size;
 8007364:	887b      	ldrh	r3, [r7, #2]
 8007366:	837b      	strh	r3, [r7, #26]

  if (!((tmp_state == HAL_SPI_STATE_READY) || \
 8007368:	f897 3023 	ldrb.w	r3, [r7, #35]	; 0x23
 800736c:	2b01      	cmp	r3, #1
 800736e:	d00f      	beq.n	8007390 <HAL_SPI_TransmitReceive+0x70>
 8007370:	69fb      	ldr	r3, [r7, #28]
 8007372:	f5b3 7f82 	cmp.w	r3, #260	; 0x104
 8007376:	d107      	bne.n	8007388 <HAL_SPI_TransmitReceive+0x68>
        ((tmp_mode == SPI_MODE_MASTER) && (hspi->Init.Direction == SPI_DIRECTION_2LINES) && (tmp_state == HAL_SPI_STATE_BUSY_RX))))
 8007378:	68fb      	ldr	r3, [r7, #12]
 800737a:	689b      	ldr	r3, [r3, #8]
 800737c:	2b00      	cmp	r3, #0
 800737e:	d103      	bne.n	8007388 <HAL_SPI_TransmitReceive+0x68>
 8007380:	f897 3023 	ldrb.w	r3, [r7, #35]	; 0x23
 8007384:	2b04      	cmp	r3, #4
 8007386:	d003      	beq.n	8007390 <HAL_SPI_TransmitReceive+0x70>
  {
    errorcode = HAL_BUSY;
 8007388:	2302      	movs	r3, #2
 800738a:	f887 302b 	strb.w	r3, [r7, #43]	; 0x2b
    goto error;
 800738e:	e16d      	b.n	800766c <HAL_SPI_TransmitReceive+0x34c>
  }

  if ((pTxData == NULL) || (pRxData == NULL) || (Size == 0U))
 8007390:	68bb      	ldr	r3, [r7, #8]
 8007392:	2b00      	cmp	r3, #0
 8007394:	d005      	beq.n	80073a2 <HAL_SPI_TransmitReceive+0x82>
 8007396:	687b      	ldr	r3, [r7, #4]
 8007398:	2b00      	cmp	r3, #0
 800739a:	d002      	beq.n	80073a2 <HAL_SPI_TransmitReceive+0x82>
 800739c:	887b      	ldrh	r3, [r7, #2]
 800739e:	2b00      	cmp	r3, #0
 80073a0:	d103      	bne.n	80073aa <HAL_SPI_TransmitReceive+0x8a>
  {
    errorcode = HAL_ERROR;
 80073a2:	2301      	movs	r3, #1
 80073a4:	f887 302b 	strb.w	r3, [r7, #43]	; 0x2b
    goto error;
 80073a8:	e160      	b.n	800766c <HAL_SPI_TransmitReceive+0x34c>
  }

  /* Don't overwrite in case of HAL_SPI_STATE_BUSY_RX */
  if (hspi->State != HAL_SPI_STATE_BUSY_RX)
 80073aa:	68fb      	ldr	r3, [r7, #12]
 80073ac:	f893 3051 	ldrb.w	r3, [r3, #81]	; 0x51
 80073b0:	b2db      	uxtb	r3, r3
 80073b2:	2b04      	cmp	r3, #4
 80073b4:	d003      	beq.n	80073be <HAL_SPI_TransmitReceive+0x9e>
  {
    hspi->State = HAL_SPI_STATE_BUSY_TX_RX;
 80073b6:	68fb      	ldr	r3, [r7, #12]
 80073b8:	2205      	movs	r2, #5
 80073ba:	f883 2051 	strb.w	r2, [r3, #81]	; 0x51
  }

  /* Set the transaction information */
  hspi->ErrorCode   = HAL_SPI_ERROR_NONE;
 80073be:	68fb      	ldr	r3, [r7, #12]
 80073c0:	2200      	movs	r2, #0
 80073c2:	655a      	str	r2, [r3, #84]	; 0x54
  hspi->pRxBuffPtr  = (uint8_t *)pRxData;
 80073c4:	68fb      	ldr	r3, [r7, #12]
 80073c6:	687a      	ldr	r2, [r7, #4]
 80073c8:	639a      	str	r2, [r3, #56]	; 0x38
  hspi->RxXferCount = Size;
 80073ca:	68fb      	ldr	r3, [r7, #12]
 80073cc:	887a      	ldrh	r2, [r7, #2]
 80073ce:	87da      	strh	r2, [r3, #62]	; 0x3e
  hspi->RxXferSize  = Size;
 80073d0:	68fb      	ldr	r3, [r7, #12]
 80073d2:	887a      	ldrh	r2, [r7, #2]
 80073d4:	879a      	strh	r2, [r3, #60]	; 0x3c
  hspi->pTxBuffPtr  = (uint8_t *)pTxData;
 80073d6:	68fb      	ldr	r3, [r7, #12]
 80073d8:	68ba      	ldr	r2, [r7, #8]
 80073da:	631a      	str	r2, [r3, #48]	; 0x30
  hspi->TxXferCount = Size;
 80073dc:	68fb      	ldr	r3, [r7, #12]
 80073de:	887a      	ldrh	r2, [r7, #2]
 80073e0:	86da      	strh	r2, [r3, #54]	; 0x36
  hspi->TxXferSize  = Size;
 80073e2:	68fb      	ldr	r3, [r7, #12]
 80073e4:	887a      	ldrh	r2, [r7, #2]
 80073e6:	869a      	strh	r2, [r3, #52]	; 0x34

  /*Init field not used in handle to zero */
  hspi->RxISR       = NULL;
 80073e8:	68fb      	ldr	r3, [r7, #12]
 80073ea:	2200      	movs	r2, #0
 80073ec:	641a      	str	r2, [r3, #64]	; 0x40
  hspi->TxISR       = NULL;
 80073ee:	68fb      	ldr	r3, [r7, #12]
 80073f0:	2200      	movs	r2, #0
 80073f2:	645a      	str	r2, [r3, #68]	; 0x44
    SPI_RESET_CRC(hspi);
  }
#endif /* USE_SPI_CRC */

  /* Check if the SPI is already enabled */
  if ((hspi->Instance->CR1 & SPI_CR1_SPE) != SPI_CR1_SPE)
 80073f4:	68fb      	ldr	r3, [r7, #12]
 80073f6:	681b      	ldr	r3, [r3, #0]
 80073f8:	681b      	ldr	r3, [r3, #0]
 80073fa:	f003 0340 	and.w	r3, r3, #64	; 0x40
 80073fe:	2b40      	cmp	r3, #64	; 0x40
 8007400:	d007      	beq.n	8007412 <HAL_SPI_TransmitReceive+0xf2>
  {
    /* Enable SPI peripheral */
    __HAL_SPI_ENABLE(hspi);
 8007402:	68fb      	ldr	r3, [r7, #12]
 8007404:	681b      	ldr	r3, [r3, #0]
 8007406:	681a      	ldr	r2, [r3, #0]
 8007408:	68fb      	ldr	r3, [r7, #12]
 800740a:	681b      	ldr	r3, [r3, #0]
 800740c:	f042 0240 	orr.w	r2, r2, #64	; 0x40
 8007410:	601a      	str	r2, [r3, #0]
  }

  /* Transmit and Receive data in 16 Bit mode */
  if (hspi->Init.DataSize == SPI_DATASIZE_16BIT)
 8007412:	68fb      	ldr	r3, [r7, #12]
 8007414:	68db      	ldr	r3, [r3, #12]
 8007416:	f5b3 6f00 	cmp.w	r3, #2048	; 0x800
 800741a:	d17c      	bne.n	8007516 <HAL_SPI_TransmitReceive+0x1f6>
  {
    if ((hspi->Init.Mode == SPI_MODE_SLAVE) || (initial_TxXferCount == 0x01U))
 800741c:	68fb      	ldr	r3, [r7, #12]
 800741e:	685b      	ldr	r3, [r3, #4]
 8007420:	2b00      	cmp	r3, #0
 8007422:	d002      	beq.n	800742a <HAL_SPI_TransmitReceive+0x10a>
 8007424:	8b7b      	ldrh	r3, [r7, #26]
 8007426:	2b01      	cmp	r3, #1
 8007428:	d16a      	bne.n	8007500 <HAL_SPI_TransmitReceive+0x1e0>
    {
      hspi->Instance->DR = *((uint16_t *)hspi->pTxBuffPtr);
 800742a:	68fb      	ldr	r3, [r7, #12]
 800742c:	6b1b      	ldr	r3, [r3, #48]	; 0x30
 800742e:	881a      	ldrh	r2, [r3, #0]
 8007430:	68fb      	ldr	r3, [r7, #12]
 8007432:	681b      	ldr	r3, [r3, #0]
 8007434:	60da      	str	r2, [r3, #12]
      hspi->pTxBuffPtr += sizeof(uint16_t);
 8007436:	68fb      	ldr	r3, [r7, #12]
 8007438:	6b1b      	ldr	r3, [r3, #48]	; 0x30
 800743a:	1c9a      	adds	r2, r3, #2
 800743c:	68fb      	ldr	r3, [r7, #12]
 800743e:	631a      	str	r2, [r3, #48]	; 0x30
      hspi->TxXferCount--;
 8007440:	68fb      	ldr	r3, [r7, #12]
 8007442:	8edb      	ldrh	r3, [r3, #54]	; 0x36
 8007444:	b29b      	uxth	r3, r3
 8007446:	3b01      	subs	r3, #1
 8007448:	b29a      	uxth	r2, r3
 800744a:	68fb      	ldr	r3, [r7, #12]
 800744c:	86da      	strh	r2, [r3, #54]	; 0x36
        SET_BIT(hspi->Instance->CR1, SPI_CR1_CRCNEXT);
      }
#endif /* USE_SPI_CRC */

    }
    while ((hspi->TxXferCount > 0U) || (hspi->RxXferCount > 0U))
 800744e:	e057      	b.n	8007500 <HAL_SPI_TransmitReceive+0x1e0>
    {
      /* Check TXE flag */
      if ((__HAL_SPI_GET_FLAG(hspi, SPI_FLAG_TXE)) && (hspi->TxXferCount > 0U) && (txallowed == 1U))
 8007450:	68fb      	ldr	r3, [r7, #12]
 8007452:	681b      	ldr	r3, [r3, #0]
 8007454:	689b      	ldr	r3, [r3, #8]
 8007456:	f003 0302 	and.w	r3, r3, #2
 800745a:	2b02      	cmp	r3, #2
 800745c:	d11b      	bne.n	8007496 <HAL_SPI_TransmitReceive+0x176>
 800745e:	68fb      	ldr	r3, [r7, #12]
 8007460:	8edb      	ldrh	r3, [r3, #54]	; 0x36
 8007462:	b29b      	uxth	r3, r3
 8007464:	2b00      	cmp	r3, #0
 8007466:	d016      	beq.n	8007496 <HAL_SPI_TransmitReceive+0x176>
 8007468:	6afb      	ldr	r3, [r7, #44]	; 0x2c
 800746a:	2b01      	cmp	r3, #1
 800746c:	d113      	bne.n	8007496 <HAL_SPI_TransmitReceive+0x176>
      {
        hspi->Instance->DR = *((uint16_t *)hspi->pTxBuffPtr);
 800746e:	68fb      	ldr	r3, [r7, #12]
 8007470:	6b1b      	ldr	r3, [r3, #48]	; 0x30
 8007472:	881a      	ldrh	r2, [r3, #0]
 8007474:	68fb      	ldr	r3, [r7, #12]
 8007476:	681b      	ldr	r3, [r3, #0]
 8007478:	60da      	str	r2, [r3, #12]
        hspi->pTxBuffPtr += sizeof(uint16_t);
 800747a:	68fb      	ldr	r3, [r7, #12]
 800747c:	6b1b      	ldr	r3, [r3, #48]	; 0x30
 800747e:	1c9a      	adds	r2, r3, #2
 8007480:	68fb      	ldr	r3, [r7, #12]
 8007482:	631a      	str	r2, [r3, #48]	; 0x30
        hspi->TxXferCount--;
 8007484:	68fb      	ldr	r3, [r7, #12]
 8007486:	8edb      	ldrh	r3, [r3, #54]	; 0x36
 8007488:	b29b      	uxth	r3, r3
 800748a:	3b01      	subs	r3, #1
 800748c:	b29a      	uxth	r2, r3
 800748e:	68fb      	ldr	r3, [r7, #12]
 8007490:	86da      	strh	r2, [r3, #54]	; 0x36
        /* Next Data is a reception (Rx). Tx not allowed */
        txallowed = 0U;
 8007492:	2300      	movs	r3, #0
 8007494:	62fb      	str	r3, [r7, #44]	; 0x2c
        }
#endif /* USE_SPI_CRC */
      }

      /* Check RXNE flag */
      if ((__HAL_SPI_GET_FLAG(hspi, SPI_FLAG_RXNE)) && (hspi->RxXferCount > 0U))
 8007496:	68fb      	ldr	r3, [r7, #12]
 8007498:	681b      	ldr	r3, [r3, #0]
 800749a:	689b      	ldr	r3, [r3, #8]
 800749c:	f003 0301 	and.w	r3, r3, #1
 80074a0:	2b01      	cmp	r3, #1
 80074a2:	d119      	bne.n	80074d8 <HAL_SPI_TransmitReceive+0x1b8>
 80074a4:	68fb      	ldr	r3, [r7, #12]
 80074a6:	8fdb      	ldrh	r3, [r3, #62]	; 0x3e
 80074a8:	b29b      	uxth	r3, r3
 80074aa:	2b00      	cmp	r3, #0
 80074ac:	d014      	beq.n	80074d8 <HAL_SPI_TransmitReceive+0x1b8>
      {
        *((uint16_t *)hspi->pRxBuffPtr) = (uint16_t)hspi->Instance->DR;
 80074ae:	68fb      	ldr	r3, [r7, #12]
 80074b0:	681b      	ldr	r3, [r3, #0]
 80074b2:	68da      	ldr	r2, [r3, #12]
 80074b4:	68fb      	ldr	r3, [r7, #12]
 80074b6:	6b9b      	ldr	r3, [r3, #56]	; 0x38
 80074b8:	b292      	uxth	r2, r2
 80074ba:	801a      	strh	r2, [r3, #0]
        hspi->pRxBuffPtr += sizeof(uint16_t);
 80074bc:	68fb      	ldr	r3, [r7, #12]
 80074be:	6b9b      	ldr	r3, [r3, #56]	; 0x38
 80074c0:	1c9a      	adds	r2, r3, #2
 80074c2:	68fb      	ldr	r3, [r7, #12]
 80074c4:	639a      	str	r2, [r3, #56]	; 0x38
        hspi->RxXferCount--;
 80074c6:	68fb      	ldr	r3, [r7, #12]
 80074c8:	8fdb      	ldrh	r3, [r3, #62]	; 0x3e
 80074ca:	b29b      	uxth	r3, r3
 80074cc:	3b01      	subs	r3, #1
 80074ce:	b29a      	uxth	r2, r3
 80074d0:	68fb      	ldr	r3, [r7, #12]
 80074d2:	87da      	strh	r2, [r3, #62]	; 0x3e
        /* Next Data is a Transmission (Tx). Tx is allowed */
        txallowed = 1U;
 80074d4:	2301      	movs	r3, #1
 80074d6:	62fb      	str	r3, [r7, #44]	; 0x2c
      }
      if (((HAL_GetTick() - tickstart) >=  Timeout) && (Timeout != HAL_MAX_DELAY))
 80074d8:	f7fb fd00 	bl	8002edc <HAL_GetTick>
 80074dc:	4602      	mov	r2, r0
 80074de:	6a7b      	ldr	r3, [r7, #36]	; 0x24
 80074e0:	1ad3      	subs	r3, r2, r3
 80074e2:	6bba      	ldr	r2, [r7, #56]	; 0x38
 80074e4:	429a      	cmp	r2, r3
 80074e6:	d80b      	bhi.n	8007500 <HAL_SPI_TransmitReceive+0x1e0>
 80074e8:	6bbb      	ldr	r3, [r7, #56]	; 0x38
 80074ea:	f1b3 3fff 	cmp.w	r3, #4294967295	; 0xffffffff
 80074ee:	d007      	beq.n	8007500 <HAL_SPI_TransmitReceive+0x1e0>
      {
        errorcode = HAL_TIMEOUT;
 80074f0:	2303      	movs	r3, #3
 80074f2:	f887 302b 	strb.w	r3, [r7, #43]	; 0x2b
        hspi->State = HAL_SPI_STATE_READY;
 80074f6:	68fb      	ldr	r3, [r7, #12]
 80074f8:	2201      	movs	r2, #1
 80074fa:	f883 2051 	strb.w	r2, [r3, #81]	; 0x51
        goto error;
 80074fe:	e0b5      	b.n	800766c <HAL_SPI_TransmitReceive+0x34c>
    while ((hspi->TxXferCount > 0U) || (hspi->RxXferCount > 0U))
 8007500:	68fb      	ldr	r3, [r7, #12]
 8007502:	8edb      	ldrh	r3, [r3, #54]	; 0x36
 8007504:	b29b      	uxth	r3, r3
 8007506:	2b00      	cmp	r3, #0
 8007508:	d1a2      	bne.n	8007450 <HAL_SPI_TransmitReceive+0x130>
 800750a:	68fb      	ldr	r3, [r7, #12]
 800750c:	8fdb      	ldrh	r3, [r3, #62]	; 0x3e
 800750e:	b29b      	uxth	r3, r3
 8007510:	2b00      	cmp	r3, #0
 8007512:	d19d      	bne.n	8007450 <HAL_SPI_TransmitReceive+0x130>
 8007514:	e080      	b.n	8007618 <HAL_SPI_TransmitReceive+0x2f8>
    }
  }
  /* Transmit and Receive data in 8 Bit mode */
  else
  {
    if ((hspi->Init.Mode == SPI_MODE_SLAVE) || (initial_TxXferCount == 0x01U))
 8007516:	68fb      	ldr	r3, [r7, #12]
 8007518:	685b      	ldr	r3, [r3, #4]
 800751a:	2b00      	cmp	r3, #0
 800751c:	d002      	beq.n	8007524 <HAL_SPI_TransmitReceive+0x204>
 800751e:	8b7b      	ldrh	r3, [r7, #26]
 8007520:	2b01      	cmp	r3, #1
 8007522:	d16f      	bne.n	8007604 <HAL_SPI_TransmitReceive+0x2e4>
    {
      *((__IO uint8_t *)&hspi->Instance->DR) = (*hspi->pTxBuffPtr);
 8007524:	68fb      	ldr	r3, [r7, #12]
 8007526:	6b1a      	ldr	r2, [r3, #48]	; 0x30
 8007528:	68fb      	ldr	r3, [r7, #12]
 800752a:	681b      	ldr	r3, [r3, #0]
 800752c:	330c      	adds	r3, #12
 800752e:	7812      	ldrb	r2, [r2, #0]
 8007530:	701a      	strb	r2, [r3, #0]
      hspi->pTxBuffPtr += sizeof(uint8_t);
 8007532:	68fb      	ldr	r3, [r7, #12]
 8007534:	6b1b      	ldr	r3, [r3, #48]	; 0x30
 8007536:	1c5a      	adds	r2, r3, #1
 8007538:	68fb      	ldr	r3, [r7, #12]
 800753a:	631a      	str	r2, [r3, #48]	; 0x30
      hspi->TxXferCount--;
 800753c:	68fb      	ldr	r3, [r7, #12]
 800753e:	8edb      	ldrh	r3, [r3, #54]	; 0x36
 8007540:	b29b      	uxth	r3, r3
 8007542:	3b01      	subs	r3, #1
 8007544:	b29a      	uxth	r2, r3
 8007546:	68fb      	ldr	r3, [r7, #12]
 8007548:	86da      	strh	r2, [r3, #54]	; 0x36
      {
        SET_BIT(hspi->Instance->CR1, SPI_CR1_CRCNEXT);
      }
#endif /* USE_SPI_CRC */
    }
    while ((hspi->TxXferCount > 0U) || (hspi->RxXferCount > 0U))
 800754a:	e05b      	b.n	8007604 <HAL_SPI_TransmitReceive+0x2e4>
    {
      /* Check TXE flag */
      if ((__HAL_SPI_GET_FLAG(hspi, SPI_FLAG_TXE)) && (hspi->TxXferCount > 0U) && (txallowed == 1U))
 800754c:	68fb      	ldr	r3, [r7, #12]
 800754e:	681b      	ldr	r3, [r3, #0]
 8007550:	689b      	ldr	r3, [r3, #8]
 8007552:	f003 0302 	and.w	r3, r3, #2
 8007556:	2b02      	cmp	r3, #2
 8007558:	d11c      	bne.n	8007594 <HAL_SPI_TransmitReceive+0x274>
 800755a:	68fb      	ldr	r3, [r7, #12]
 800755c:	8edb      	ldrh	r3, [r3, #54]	; 0x36
 800755e:	b29b      	uxth	r3, r3
 8007560:	2b00      	cmp	r3, #0
 8007562:	d017      	beq.n	8007594 <HAL_SPI_TransmitReceive+0x274>
 8007564:	6afb      	ldr	r3, [r7, #44]	; 0x2c
 8007566:	2b01      	cmp	r3, #1
 8007568:	d114      	bne.n	8007594 <HAL_SPI_TransmitReceive+0x274>
      {
        *(__IO uint8_t *)&hspi->Instance->DR = (*hspi->pTxBuffPtr);
 800756a:	68fb      	ldr	r3, [r7, #12]
 800756c:	6b1a      	ldr	r2, [r3, #48]	; 0x30
 800756e:	68fb      	ldr	r3, [r7, #12]
 8007570:	681b      	ldr	r3, [r3, #0]
 8007572:	330c      	adds	r3, #12
 8007574:	7812      	ldrb	r2, [r2, #0]
 8007576:	701a      	strb	r2, [r3, #0]
        hspi->pTxBuffPtr++;
 8007578:	68fb      	ldr	r3, [r7, #12]
 800757a:	6b1b      	ldr	r3, [r3, #48]	; 0x30
 800757c:	1c5a      	adds	r2, r3, #1
 800757e:	68fb      	ldr	r3, [r7, #12]
 8007580:	631a      	str	r2, [r3, #48]	; 0x30
        hspi->TxXferCount--;
 8007582:	68fb      	ldr	r3, [r7, #12]
 8007584:	8edb      	ldrh	r3, [r3, #54]	; 0x36
 8007586:	b29b      	uxth	r3, r3
 8007588:	3b01      	subs	r3, #1
 800758a:	b29a      	uxth	r2, r3
 800758c:	68fb      	ldr	r3, [r7, #12]
 800758e:	86da      	strh	r2, [r3, #54]	; 0x36
        /* Next Data is a reception (Rx). Tx not allowed */
        txallowed = 0U;
 8007590:	2300      	movs	r3, #0
 8007592:	62fb      	str	r3, [r7, #44]	; 0x2c
        }
#endif /* USE_SPI_CRC */
      }

      /* Wait until RXNE flag is reset */
      if ((__HAL_SPI_GET_FLAG(hspi, SPI_FLAG_RXNE)) && (hspi->RxXferCount > 0U))
 8007594:	68fb      	ldr	r3, [r7, #12]
 8007596:	681b      	ldr	r3, [r3, #0]
 8007598:	689b      	ldr	r3, [r3, #8]
 800759a:	f003 0301 	and.w	r3, r3, #1
 800759e:	2b01      	cmp	r3, #1
 80075a0:	d119      	bne.n	80075d6 <HAL_SPI_TransmitReceive+0x2b6>
 80075a2:	68fb      	ldr	r3, [r7, #12]
 80075a4:	8fdb      	ldrh	r3, [r3, #62]	; 0x3e
 80075a6:	b29b      	uxth	r3, r3
 80075a8:	2b00      	cmp	r3, #0
 80075aa:	d014      	beq.n	80075d6 <HAL_SPI_TransmitReceive+0x2b6>
      {
        (*(uint8_t *)hspi->pRxBuffPtr) = hspi->Instance->DR;
 80075ac:	68fb      	ldr	r3, [r7, #12]
 80075ae:	681b      	ldr	r3, [r3, #0]
 80075b0:	68da      	ldr	r2, [r3, #12]
 80075b2:	68fb      	ldr	r3, [r7, #12]
 80075b4:	6b9b      	ldr	r3, [r3, #56]	; 0x38
 80075b6:	b2d2      	uxtb	r2, r2
 80075b8:	701a      	strb	r2, [r3, #0]
        hspi->pRxBuffPtr++;
 80075ba:	68fb      	ldr	r3, [r7, #12]
 80075bc:	6b9b      	ldr	r3, [r3, #56]	; 0x38
 80075be:	1c5a      	adds	r2, r3, #1
 80075c0:	68fb      	ldr	r3, [r7, #12]
 80075c2:	639a      	str	r2, [r3, #56]	; 0x38
        hspi->RxXferCount--;
 80075c4:	68fb      	ldr	r3, [r7, #12]
 80075c6:	8fdb      	ldrh	r3, [r3, #62]	; 0x3e
 80075c8:	b29b      	uxth	r3, r3
 80075ca:	3b01      	subs	r3, #1
 80075cc:	b29a      	uxth	r2, r3
 80075ce:	68fb      	ldr	r3, [r7, #12]
 80075d0:	87da      	strh	r2, [r3, #62]	; 0x3e
        /* Next Data is a Transmission (Tx). Tx is allowed */
        txallowed = 1U;
 80075d2:	2301      	movs	r3, #1
 80075d4:	62fb      	str	r3, [r7, #44]	; 0x2c
      }
      if ((((HAL_GetTick() - tickstart) >=  Timeout) && ((Timeout != HAL_MAX_DELAY))) || (Timeout == 0U))
 80075d6:	f7fb fc81 	bl	8002edc <HAL_GetTick>
 80075da:	4602      	mov	r2, r0
 80075dc:	6a7b      	ldr	r3, [r7, #36]	; 0x24
 80075de:	1ad3      	subs	r3, r2, r3
 80075e0:	6bba      	ldr	r2, [r7, #56]	; 0x38
 80075e2:	429a      	cmp	r2, r3
 80075e4:	d803      	bhi.n	80075ee <HAL_SPI_TransmitReceive+0x2ce>
 80075e6:	6bbb      	ldr	r3, [r7, #56]	; 0x38
 80075e8:	f1b3 3fff 	cmp.w	r3, #4294967295	; 0xffffffff
 80075ec:	d102      	bne.n	80075f4 <HAL_SPI_TransmitReceive+0x2d4>
 80075ee:	6bbb      	ldr	r3, [r7, #56]	; 0x38
 80075f0:	2b00      	cmp	r3, #0
 80075f2:	d107      	bne.n	8007604 <HAL_SPI_TransmitReceive+0x2e4>
      {
        errorcode = HAL_TIMEOUT;
 80075f4:	2303      	movs	r3, #3
 80075f6:	f887 302b 	strb.w	r3, [r7, #43]	; 0x2b
        hspi->State = HAL_SPI_STATE_READY;
 80075fa:	68fb      	ldr	r3, [r7, #12]
 80075fc:	2201      	movs	r2, #1
 80075fe:	f883 2051 	strb.w	r2, [r3, #81]	; 0x51
        goto error;
 8007602:	e033      	b.n	800766c <HAL_SPI_TransmitReceive+0x34c>
    while ((hspi->TxXferCount > 0U) || (hspi->RxXferCount > 0U))
 8007604:	68fb      	ldr	r3, [r7, #12]
 8007606:	8edb      	ldrh	r3, [r3, #54]	; 0x36
 8007608:	b29b      	uxth	r3, r3
 800760a:	2b00      	cmp	r3, #0
 800760c:	d19e      	bne.n	800754c <HAL_SPI_TransmitReceive+0x22c>
 800760e:	68fb      	ldr	r3, [r7, #12]
 8007610:	8fdb      	ldrh	r3, [r3, #62]	; 0x3e
 8007612:	b29b      	uxth	r3, r3
 8007614:	2b00      	cmp	r3, #0
 8007616:	d199      	bne.n	800754c <HAL_SPI_TransmitReceive+0x22c>
    errorcode = HAL_ERROR;
  }
#endif /* USE_SPI_CRC */

  /* Check the end of the transaction */
  if (SPI_EndRxTxTransaction(hspi, Timeout, tickstart) != HAL_OK)
 8007618:	6a7a      	ldr	r2, [r7, #36]	; 0x24
 800761a:	6bb9      	ldr	r1, [r7, #56]	; 0x38
 800761c:	68f8      	ldr	r0, [r7, #12]
 800761e:	f000 fa65 	bl	8007aec <SPI_EndRxTxTransaction>
 8007622:	4603      	mov	r3, r0
 8007624:	2b00      	cmp	r3, #0
 8007626:	d006      	beq.n	8007636 <HAL_SPI_TransmitReceive+0x316>
  {
    errorcode = HAL_ERROR;
 8007628:	2301      	movs	r3, #1
 800762a:	f887 302b 	strb.w	r3, [r7, #43]	; 0x2b
    hspi->ErrorCode = HAL_SPI_ERROR_FLAG;
 800762e:	68fb      	ldr	r3, [r7, #12]
 8007630:	2220      	movs	r2, #32
 8007632:	655a      	str	r2, [r3, #84]	; 0x54
    goto error;
 8007634:	e01a      	b.n	800766c <HAL_SPI_TransmitReceive+0x34c>
  }

  /* Clear overrun flag in 2 Lines communication mode because received is not read */
  if (hspi->Init.Direction == SPI_DIRECTION_2LINES)
 8007636:	68fb      	ldr	r3, [r7, #12]
 8007638:	689b      	ldr	r3, [r3, #8]
 800763a:	2b00      	cmp	r3, #0
 800763c:	d10a      	bne.n	8007654 <HAL_SPI_TransmitReceive+0x334>
  {
    __HAL_SPI_CLEAR_OVRFLAG(hspi);
 800763e:	2300      	movs	r3, #0
 8007640:	617b      	str	r3, [r7, #20]
 8007642:	68fb      	ldr	r3, [r7, #12]
 8007644:	681b      	ldr	r3, [r3, #0]
 8007646:	68db      	ldr	r3, [r3, #12]
 8007648:	617b      	str	r3, [r7, #20]
 800764a:	68fb      	ldr	r3, [r7, #12]
 800764c:	681b      	ldr	r3, [r3, #0]
 800764e:	689b      	ldr	r3, [r3, #8]
 8007650:	617b      	str	r3, [r7, #20]
 8007652:	697b      	ldr	r3, [r7, #20]
  }

  if (hspi->ErrorCode != HAL_SPI_ERROR_NONE)
 8007654:	68fb      	ldr	r3, [r7, #12]
 8007656:	6d5b      	ldr	r3, [r3, #84]	; 0x54
 8007658:	2b00      	cmp	r3, #0
 800765a:	d003      	beq.n	8007664 <HAL_SPI_TransmitReceive+0x344>
  {
    errorcode = HAL_ERROR;
 800765c:	2301      	movs	r3, #1
 800765e:	f887 302b 	strb.w	r3, [r7, #43]	; 0x2b
 8007662:	e003      	b.n	800766c <HAL_SPI_TransmitReceive+0x34c>
  }
  else
  {
    hspi->State = HAL_SPI_STATE_READY;
 8007664:	68fb      	ldr	r3, [r7, #12]
 8007666:	2201      	movs	r2, #1
 8007668:	f883 2051 	strb.w	r2, [r3, #81]	; 0x51
  }
  
error :
  __HAL_UNLOCK(hspi);
 800766c:	68fb      	ldr	r3, [r7, #12]
 800766e:	2200      	movs	r2, #0
 8007670:	f883 2050 	strb.w	r2, [r3, #80]	; 0x50
  return errorcode;
 8007674:	f897 302b 	ldrb.w	r3, [r7, #43]	; 0x2b
}
 8007678:	4618      	mov	r0, r3
 800767a:	3730      	adds	r7, #48	; 0x30
 800767c:	46bd      	mov	sp, r7
 800767e:	bd80      	pop	{r7, pc}

08007680 <HAL_SPI_Transmit_DMA>:
  * @param  pData pointer to data buffer
  * @param  Size amount of data to be sent
  * @retval HAL status
  */
HAL_StatusTypeDef HAL_SPI_Transmit_DMA(SPI_HandleTypeDef *hspi, uint8_t *pData, uint16_t Size)
{
 8007680:	b580      	push	{r7, lr}
 8007682:	b086      	sub	sp, #24
 8007684:	af00      	add	r7, sp, #0
 8007686:	60f8      	str	r0, [r7, #12]
 8007688:	60b9      	str	r1, [r7, #8]
 800768a:	4613      	mov	r3, r2
 800768c:	80fb      	strh	r3, [r7, #6]
  HAL_StatusTypeDef errorcode = HAL_OK;
 800768e:	2300      	movs	r3, #0
 8007690:	75fb      	strb	r3, [r7, #23]

  /* Check Direction parameter */
  assert_param(IS_SPI_DIRECTION_2LINES_OR_1LINE(hspi->Init.Direction));

  /* Process Locked */
  __HAL_LOCK(hspi);
 8007692:	68fb      	ldr	r3, [r7, #12]
 8007694:	f893 3050 	ldrb.w	r3, [r3, #80]	; 0x50
 8007698:	2b01      	cmp	r3, #1
 800769a:	d101      	bne.n	80076a0 <HAL_SPI_Transmit_DMA+0x20>
 800769c:	2302      	movs	r3, #2
 800769e:	e097      	b.n	80077d0 <HAL_SPI_Transmit_DMA+0x150>
 80076a0:	68fb      	ldr	r3, [r7, #12]
 80076a2:	2201      	movs	r2, #1
 80076a4:	f883 2050 	strb.w	r2, [r3, #80]	; 0x50

  if (hspi->State != HAL_SPI_STATE_READY)
 80076a8:	68fb      	ldr	r3, [r7, #12]
 80076aa:	f893 3051 	ldrb.w	r3, [r3, #81]	; 0x51
 80076ae:	b2db      	uxtb	r3, r3
 80076b0:	2b01      	cmp	r3, #1
 80076b2:	d002      	beq.n	80076ba <HAL_SPI_Transmit_DMA+0x3a>
  {
    errorcode = HAL_BUSY;
 80076b4:	2302      	movs	r3, #2
 80076b6:	75fb      	strb	r3, [r7, #23]
    goto error;
 80076b8:	e085      	b.n	80077c6 <HAL_SPI_Transmit_DMA+0x146>
  }

  if ((pData == NULL) || (Size == 0U))
 80076ba:	68bb      	ldr	r3, [r7, #8]
 80076bc:	2b00      	cmp	r3, #0
 80076be:	d002      	beq.n	80076c6 <HAL_SPI_Transmit_DMA+0x46>
 80076c0:	88fb      	ldrh	r3, [r7, #6]
 80076c2:	2b00      	cmp	r3, #0
 80076c4:	d102      	bne.n	80076cc <HAL_SPI_Transmit_DMA+0x4c>
  {
    errorcode = HAL_ERROR;
 80076c6:	2301      	movs	r3, #1
 80076c8:	75fb      	strb	r3, [r7, #23]
    goto error;
 80076ca:	e07c      	b.n	80077c6 <HAL_SPI_Transmit_DMA+0x146>
  }

  /* Set the transaction information */
  hspi->State       = HAL_SPI_STATE_BUSY_TX;
 80076cc:	68fb      	ldr	r3, [r7, #12]
 80076ce:	2203      	movs	r2, #3
 80076d0:	f883 2051 	strb.w	r2, [r3, #81]	; 0x51
  hspi->ErrorCode   = HAL_SPI_ERROR_NONE;
 80076d4:	68fb      	ldr	r3, [r7, #12]
 80076d6:	2200      	movs	r2, #0
 80076d8:	655a      	str	r2, [r3, #84]	; 0x54
  hspi->pTxBuffPtr  = (uint8_t *)pData;
 80076da:	68fb      	ldr	r3, [r7, #12]
 80076dc:	68ba      	ldr	r2, [r7, #8]
 80076de:	631a      	str	r2, [r3, #48]	; 0x30
  hspi->TxXferSize  = Size;
 80076e0:	68fb      	ldr	r3, [r7, #12]
 80076e2:	88fa      	ldrh	r2, [r7, #6]
 80076e4:	869a      	strh	r2, [r3, #52]	; 0x34
  hspi->TxXferCount = Size;
 80076e6:	68fb      	ldr	r3, [r7, #12]
 80076e8:	88fa      	ldrh	r2, [r7, #6]
 80076ea:	86da      	strh	r2, [r3, #54]	; 0x36

  /* Init field not used in handle to zero */
  hspi->pRxBuffPtr  = (uint8_t *)NULL;
 80076ec:	68fb      	ldr	r3, [r7, #12]
 80076ee:	2200      	movs	r2, #0
 80076f0:	639a      	str	r2, [r3, #56]	; 0x38
  hspi->TxISR       = NULL;
 80076f2:	68fb      	ldr	r3, [r7, #12]
 80076f4:	2200      	movs	r2, #0
 80076f6:	645a      	str	r2, [r3, #68]	; 0x44
  hspi->RxISR       = NULL;
 80076f8:	68fb      	ldr	r3, [r7, #12]
 80076fa:	2200      	movs	r2, #0
 80076fc:	641a      	str	r2, [r3, #64]	; 0x40
  hspi->RxXferSize  = 0U;
 80076fe:	68fb      	ldr	r3, [r7, #12]
 8007700:	2200      	movs	r2, #0
 8007702:	879a      	strh	r2, [r3, #60]	; 0x3c
  hspi->RxXferCount = 0U;
 8007704:	68fb      	ldr	r3, [r7, #12]
 8007706:	2200      	movs	r2, #0
 8007708:	87da      	strh	r2, [r3, #62]	; 0x3e

  /* Configure communication direction : 1Line */
  if (hspi->Init.Direction == SPI_DIRECTION_1LINE)
 800770a:	68fb      	ldr	r3, [r7, #12]
 800770c:	689b      	ldr	r3, [r3, #8]
 800770e:	f5b3 4f00 	cmp.w	r3, #32768	; 0x8000
 8007712:	d10f      	bne.n	8007734 <HAL_SPI_Transmit_DMA+0xb4>
  {
    /* Disable SPI Peripheral before set 1Line direction (BIDIOE bit) */
    __HAL_SPI_DISABLE(hspi);
 8007714:	68fb      	ldr	r3, [r7, #12]
 8007716:	681b      	ldr	r3, [r3, #0]
 8007718:	681a      	ldr	r2, [r3, #0]
 800771a:	68fb      	ldr	r3, [r7, #12]
 800771c:	681b      	ldr	r3, [r3, #0]
 800771e:	f022 0240 	bic.w	r2, r2, #64	; 0x40
 8007722:	601a      	str	r2, [r3, #0]
    SPI_1LINE_TX(hspi);
 8007724:	68fb      	ldr	r3, [r7, #12]
 8007726:	681b      	ldr	r3, [r3, #0]
 8007728:	681a      	ldr	r2, [r3, #0]
 800772a:	68fb      	ldr	r3, [r7, #12]
 800772c:	681b      	ldr	r3, [r3, #0]
 800772e:	f442 4280 	orr.w	r2, r2, #16384	; 0x4000
 8007732:	601a      	str	r2, [r3, #0]
    SPI_RESET_CRC(hspi);
  }
#endif /* USE_SPI_CRC */

  /* Set the SPI TxDMA Half transfer complete callback */
  hspi->hdmatx->XferHalfCpltCallback = SPI_DMAHalfTransmitCplt;
 8007734:	68fb      	ldr	r3, [r7, #12]
 8007736:	6c9b      	ldr	r3, [r3, #72]	; 0x48
 8007738:	4a27      	ldr	r2, [pc, #156]	; (80077d8 <HAL_SPI_Transmit_DMA+0x158>)
 800773a:	641a      	str	r2, [r3, #64]	; 0x40

  /* Set the SPI TxDMA transfer complete callback */
  hspi->hdmatx->XferCpltCallback = SPI_DMATransmitCplt;
 800773c:	68fb      	ldr	r3, [r7, #12]
 800773e:	6c9b      	ldr	r3, [r3, #72]	; 0x48
 8007740:	4a26      	ldr	r2, [pc, #152]	; (80077dc <HAL_SPI_Transmit_DMA+0x15c>)
 8007742:	63da      	str	r2, [r3, #60]	; 0x3c

  /* Set the DMA error callback */
  hspi->hdmatx->XferErrorCallback = SPI_DMAError;
 8007744:	68fb      	ldr	r3, [r7, #12]
 8007746:	6c9b      	ldr	r3, [r3, #72]	; 0x48
 8007748:	4a25      	ldr	r2, [pc, #148]	; (80077e0 <HAL_SPI_Transmit_DMA+0x160>)
 800774a:	64da      	str	r2, [r3, #76]	; 0x4c

  /* Set the DMA AbortCpltCallback */
  hspi->hdmatx->XferAbortCallback = NULL;
 800774c:	68fb      	ldr	r3, [r7, #12]
 800774e:	6c9b      	ldr	r3, [r3, #72]	; 0x48
 8007750:	2200      	movs	r2, #0
 8007752:	651a      	str	r2, [r3, #80]	; 0x50

  /* Enable the Tx DMA Stream/Channel */
  if (HAL_OK != HAL_DMA_Start_IT(hspi->hdmatx, (uint32_t)hspi->pTxBuffPtr, (uint32_t)&hspi->Instance->DR,
 8007754:	68fb      	ldr	r3, [r7, #12]
 8007756:	6c98      	ldr	r0, [r3, #72]	; 0x48
 8007758:	68fb      	ldr	r3, [r7, #12]
 800775a:	6b1b      	ldr	r3, [r3, #48]	; 0x30
 800775c:	4619      	mov	r1, r3
 800775e:	68fb      	ldr	r3, [r7, #12]
 8007760:	681b      	ldr	r3, [r3, #0]
 8007762:	330c      	adds	r3, #12
 8007764:	461a      	mov	r2, r3
                                 hspi->TxXferCount))
 8007766:	68fb      	ldr	r3, [r7, #12]
 8007768:	8edb      	ldrh	r3, [r3, #54]	; 0x36
 800776a:	b29b      	uxth	r3, r3
  if (HAL_OK != HAL_DMA_Start_IT(hspi->hdmatx, (uint32_t)hspi->pTxBuffPtr, (uint32_t)&hspi->Instance->DR,
 800776c:	f7fc fc0e 	bl	8003f8c <HAL_DMA_Start_IT>
 8007770:	4603      	mov	r3, r0
 8007772:	2b00      	cmp	r3, #0
 8007774:	d008      	beq.n	8007788 <HAL_SPI_Transmit_DMA+0x108>
  {
    /* Update SPI error code */
    SET_BIT(hspi->ErrorCode, HAL_SPI_ERROR_DMA);
 8007776:	68fb      	ldr	r3, [r7, #12]
 8007778:	6d5b      	ldr	r3, [r3, #84]	; 0x54
 800777a:	f043 0210 	orr.w	r2, r3, #16
 800777e:	68fb      	ldr	r3, [r7, #12]
 8007780:	655a      	str	r2, [r3, #84]	; 0x54
    errorcode = HAL_ERROR;
 8007782:	2301      	movs	r3, #1
 8007784:	75fb      	strb	r3, [r7, #23]

    goto error;
 8007786:	e01e      	b.n	80077c6 <HAL_SPI_Transmit_DMA+0x146>
  }

  /* Check if the SPI is already enabled */
  if ((hspi->Instance->CR1 & SPI_CR1_SPE) != SPI_CR1_SPE)
 8007788:	68fb      	ldr	r3, [r7, #12]
 800778a:	681b      	ldr	r3, [r3, #0]
 800778c:	681b      	ldr	r3, [r3, #0]
 800778e:	f003 0340 	and.w	r3, r3, #64	; 0x40
 8007792:	2b40      	cmp	r3, #64	; 0x40
 8007794:	d007      	beq.n	80077a6 <HAL_SPI_Transmit_DMA+0x126>
  {
    /* Enable SPI peripheral */
    __HAL_SPI_ENABLE(hspi);
 8007796:	68fb      	ldr	r3, [r7, #12]
 8007798:	681b      	ldr	r3, [r3, #0]
 800779a:	681a      	ldr	r2, [r3, #0]
 800779c:	68fb      	ldr	r3, [r7, #12]
 800779e:	681b      	ldr	r3, [r3, #0]
 80077a0:	f042 0240 	orr.w	r2, r2, #64	; 0x40
 80077a4:	601a      	str	r2, [r3, #0]
  }

  /* Enable the SPI Error Interrupt Bit */
  __HAL_SPI_ENABLE_IT(hspi, (SPI_IT_ERR));
 80077a6:	68fb      	ldr	r3, [r7, #12]
 80077a8:	681b      	ldr	r3, [r3, #0]
 80077aa:	685a      	ldr	r2, [r3, #4]
 80077ac:	68fb      	ldr	r3, [r7, #12]
 80077ae:	681b      	ldr	r3, [r3, #0]
 80077b0:	f042 0220 	orr.w	r2, r2, #32
 80077b4:	605a      	str	r2, [r3, #4]

  /* Enable Tx DMA Request */
  SET_BIT(hspi->Instance->CR2, SPI_CR2_TXDMAEN);
 80077b6:	68fb      	ldr	r3, [r7, #12]
 80077b8:	681b      	ldr	r3, [r3, #0]
 80077ba:	685a      	ldr	r2, [r3, #4]
 80077bc:	68fb      	ldr	r3, [r7, #12]
 80077be:	681b      	ldr	r3, [r3, #0]
 80077c0:	f042 0202 	orr.w	r2, r2, #2
 80077c4:	605a      	str	r2, [r3, #4]

error :
  /* Process Unlocked */
  __HAL_UNLOCK(hspi);
 80077c6:	68fb      	ldr	r3, [r7, #12]
 80077c8:	2200      	movs	r2, #0
 80077ca:	f883 2050 	strb.w	r2, [r3, #80]	; 0x50
  return errorcode;
 80077ce:	7dfb      	ldrb	r3, [r7, #23]
}
 80077d0:	4618      	mov	r0, r3
 80077d2:	3718      	adds	r7, #24
 80077d4:	46bd      	mov	sp, r7
 80077d6:	bd80      	pop	{r7, pc}
 80077d8:	080078b5 	.word	0x080078b5
 80077dc:	0800780d 	.word	0x0800780d
 80077e0:	080078d1 	.word	0x080078d1

080077e4 <HAL_SPI_TxHalfCpltCallback>:
  * @param  hspi pointer to a SPI_HandleTypeDef structure that contains
  *               the configuration information for SPI module.
  * @retval None
  */
__weak void HAL_SPI_TxHalfCpltCallback(SPI_HandleTypeDef *hspi)
{
 80077e4:	b480      	push	{r7}
 80077e6:	b083      	sub	sp, #12
 80077e8:	af00      	add	r7, sp, #0
 80077ea:	6078      	str	r0, [r7, #4]
  UNUSED(hspi);

  /* NOTE : This function should not be modified, when the callback is needed,
            the HAL_SPI_TxHalfCpltCallback should be implemented in the user file
   */
}
 80077ec:	bf00      	nop
 80077ee:	370c      	adds	r7, #12
 80077f0:	46bd      	mov	sp, r7
 80077f2:	f85d 7b04 	ldr.w	r7, [sp], #4
 80077f6:	4770      	bx	lr

080077f8 <HAL_SPI_ErrorCallback>:
  * @param  hspi pointer to a SPI_HandleTypeDef structure that contains
  *               the configuration information for SPI module.
  * @retval None
  */
__weak void HAL_SPI_ErrorCallback(SPI_HandleTypeDef *hspi)
{
 80077f8:	b480      	push	{r7}
 80077fa:	b083      	sub	sp, #12
 80077fc:	af00      	add	r7, sp, #0
 80077fe:	6078      	str	r0, [r7, #4]
            the HAL_SPI_ErrorCallback should be implemented in the user file
   */
  /* NOTE : The ErrorCode parameter in the hspi handle is updated by the SPI processes
            and user can use HAL_SPI_GetError() API to check the latest error occurred
   */
}
 8007800:	bf00      	nop
 8007802:	370c      	adds	r7, #12
 8007804:	46bd      	mov	sp, r7
 8007806:	f85d 7b04 	ldr.w	r7, [sp], #4
 800780a:	4770      	bx	lr

0800780c <SPI_DMATransmitCplt>:
  * @param  hdma pointer to a DMA_HandleTypeDef structure that contains
  *               the configuration information for the specified DMA module.
  * @retval None
  */
static void SPI_DMATransmitCplt(DMA_HandleTypeDef *hdma)
{
 800780c:	b580      	push	{r7, lr}
 800780e:	b086      	sub	sp, #24
 8007810:	af00      	add	r7, sp, #0
 8007812:	6078      	str	r0, [r7, #4]
  SPI_HandleTypeDef *hspi = (SPI_HandleTypeDef *)(((DMA_HandleTypeDef *)hdma)->Parent); /* Derogation MISRAC2012-Rule-11.5 */
 8007814:	687b      	ldr	r3, [r7, #4]
 8007816:	6b9b      	ldr	r3, [r3, #56]	; 0x38
 8007818:	617b      	str	r3, [r7, #20]
  uint32_t tickstart;

  /* Init tickstart for timeout management*/
  tickstart = HAL_GetTick();
 800781a:	f7fb fb5f 	bl	8002edc <HAL_GetTick>
 800781e:	6138      	str	r0, [r7, #16]

  /* DMA Normal Mode */
  if ((hdma->Instance->CR & DMA_SxCR_CIRC) != DMA_SxCR_CIRC)
 8007820:	687b      	ldr	r3, [r7, #4]
 8007822:	681b      	ldr	r3, [r3, #0]
 8007824:	681b      	ldr	r3, [r3, #0]
 8007826:	f403 7380 	and.w	r3, r3, #256	; 0x100
 800782a:	f5b3 7f80 	cmp.w	r3, #256	; 0x100
 800782e:	d03b      	beq.n	80078a8 <SPI_DMATransmitCplt+0x9c>
  {
    /* Disable ERR interrupt */
    __HAL_SPI_DISABLE_IT(hspi, SPI_IT_ERR);
 8007830:	697b      	ldr	r3, [r7, #20]
 8007832:	681b      	ldr	r3, [r3, #0]
 8007834:	685a      	ldr	r2, [r3, #4]
 8007836:	697b      	ldr	r3, [r7, #20]
 8007838:	681b      	ldr	r3, [r3, #0]
 800783a:	f022 0220 	bic.w	r2, r2, #32
 800783e:	605a      	str	r2, [r3, #4]

    /* Disable Tx DMA Request */
    CLEAR_BIT(hspi->Instance->CR2, SPI_CR2_TXDMAEN);
 8007840:	697b      	ldr	r3, [r7, #20]
 8007842:	681b      	ldr	r3, [r3, #0]
 8007844:	685a      	ldr	r2, [r3, #4]
 8007846:	697b      	ldr	r3, [r7, #20]
 8007848:	681b      	ldr	r3, [r3, #0]
 800784a:	f022 0202 	bic.w	r2, r2, #2
 800784e:	605a      	str	r2, [r3, #4]

    /* Check the end of the transaction */
    if (SPI_EndRxTxTransaction(hspi, SPI_DEFAULT_TIMEOUT, tickstart) != HAL_OK)
 8007850:	693a      	ldr	r2, [r7, #16]
 8007852:	2164      	movs	r1, #100	; 0x64
 8007854:	6978      	ldr	r0, [r7, #20]
 8007856:	f000 f949 	bl	8007aec <SPI_EndRxTxTransaction>
 800785a:	4603      	mov	r3, r0
 800785c:	2b00      	cmp	r3, #0
 800785e:	d005      	beq.n	800786c <SPI_DMATransmitCplt+0x60>
    {
      SET_BIT(hspi->ErrorCode, HAL_SPI_ERROR_FLAG);
 8007860:	697b      	ldr	r3, [r7, #20]
 8007862:	6d5b      	ldr	r3, [r3, #84]	; 0x54
 8007864:	f043 0220 	orr.w	r2, r3, #32
 8007868:	697b      	ldr	r3, [r7, #20]
 800786a:	655a      	str	r2, [r3, #84]	; 0x54
    }

    /* Clear overrun flag in 2 Lines communication mode because received data is not read */
    if (hspi->Init.Direction == SPI_DIRECTION_2LINES)
 800786c:	697b      	ldr	r3, [r7, #20]
 800786e:	689b      	ldr	r3, [r3, #8]
 8007870:	2b00      	cmp	r3, #0
 8007872:	d10a      	bne.n	800788a <SPI_DMATransmitCplt+0x7e>
    {
      __HAL_SPI_CLEAR_OVRFLAG(hspi);
 8007874:	2300      	movs	r3, #0
 8007876:	60fb      	str	r3, [r7, #12]
 8007878:	697b      	ldr	r3, [r7, #20]
 800787a:	681b      	ldr	r3, [r3, #0]
 800787c:	68db      	ldr	r3, [r3, #12]
 800787e:	60fb      	str	r3, [r7, #12]
 8007880:	697b      	ldr	r3, [r7, #20]
 8007882:	681b      	ldr	r3, [r3, #0]
 8007884:	689b      	ldr	r3, [r3, #8]
 8007886:	60fb      	str	r3, [r7, #12]
 8007888:	68fb      	ldr	r3, [r7, #12]
    }

    hspi->TxXferCount = 0U;
 800788a:	697b      	ldr	r3, [r7, #20]
 800788c:	2200      	movs	r2, #0
 800788e:	86da      	strh	r2, [r3, #54]	; 0x36
    hspi->State = HAL_SPI_STATE_READY;
 8007890:	697b      	ldr	r3, [r7, #20]
 8007892:	2201      	movs	r2, #1
 8007894:	f883 2051 	strb.w	r2, [r3, #81]	; 0x51

    if (hspi->ErrorCode != HAL_SPI_ERROR_NONE)
 8007898:	697b      	ldr	r3, [r7, #20]
 800789a:	6d5b      	ldr	r3, [r3, #84]	; 0x54
 800789c:	2b00      	cmp	r3, #0
 800789e:	d003      	beq.n	80078a8 <SPI_DMATransmitCplt+0x9c>
    {
      /* Call user error callback */
#if (USE_HAL_SPI_REGISTER_CALLBACKS == 1U)
      hspi->ErrorCallback(hspi);
#else
      HAL_SPI_ErrorCallback(hspi);
 80078a0:	6978      	ldr	r0, [r7, #20]
 80078a2:	f7ff ffa9 	bl	80077f8 <HAL_SPI_ErrorCallback>
#endif /* USE_HAL_SPI_REGISTER_CALLBACKS */
      return;
 80078a6:	e002      	b.n	80078ae <SPI_DMATransmitCplt+0xa2>
  }
  /* Call user Tx complete callback */
#if (USE_HAL_SPI_REGISTER_CALLBACKS == 1U)
  hspi->TxCpltCallback(hspi);
#else
  HAL_SPI_TxCpltCallback(hspi);
 80078a8:	6978      	ldr	r0, [r7, #20]
 80078aa:	f7fb f9e1 	bl	8002c70 <HAL_SPI_TxCpltCallback>
#endif /* USE_HAL_SPI_REGISTER_CALLBACKS */
}
 80078ae:	3718      	adds	r7, #24
 80078b0:	46bd      	mov	sp, r7
 80078b2:	bd80      	pop	{r7, pc}

080078b4 <SPI_DMAHalfTransmitCplt>:
  * @param  hdma pointer to a DMA_HandleTypeDef structure that contains
  *               the configuration information for the specified DMA module.
  * @retval None
  */
static void SPI_DMAHalfTransmitCplt(DMA_HandleTypeDef *hdma)
{
 80078b4:	b580      	push	{r7, lr}
 80078b6:	b084      	sub	sp, #16
 80078b8:	af00      	add	r7, sp, #0
 80078ba:	6078      	str	r0, [r7, #4]
  SPI_HandleTypeDef *hspi = (SPI_HandleTypeDef *)(((DMA_HandleTypeDef *)hdma)->Parent); /* Derogation MISRAC2012-Rule-11.5 */
 80078bc:	687b      	ldr	r3, [r7, #4]
 80078be:	6b9b      	ldr	r3, [r3, #56]	; 0x38
 80078c0:	60fb      	str	r3, [r7, #12]

  /* Call user Tx half complete callback */
#if (USE_HAL_SPI_REGISTER_CALLBACKS == 1U)
  hspi->TxHalfCpltCallback(hspi);
#else
  HAL_SPI_TxHalfCpltCallback(hspi);
 80078c2:	68f8      	ldr	r0, [r7, #12]
 80078c4:	f7ff ff8e 	bl	80077e4 <HAL_SPI_TxHalfCpltCallback>
#endif /* USE_HAL_SPI_REGISTER_CALLBACKS */
}
 80078c8:	bf00      	nop
 80078ca:	3710      	adds	r7, #16
 80078cc:	46bd      	mov	sp, r7
 80078ce:	bd80      	pop	{r7, pc}

080078d0 <SPI_DMAError>:
  * @param  hdma pointer to a DMA_HandleTypeDef structure that contains
  *               the configuration information for the specified DMA module.
  * @retval None
  */
static void SPI_DMAError(DMA_HandleTypeDef *hdma)
{
 80078d0:	b580      	push	{r7, lr}
 80078d2:	b084      	sub	sp, #16
 80078d4:	af00      	add	r7, sp, #0
 80078d6:	6078      	str	r0, [r7, #4]
  SPI_HandleTypeDef *hspi = (SPI_HandleTypeDef *)(((DMA_HandleTypeDef *)hdma)->Parent); /* Derogation MISRAC2012-Rule-11.5 */
 80078d8:	687b      	ldr	r3, [r7, #4]
 80078da:	6b9b      	ldr	r3, [r3, #56]	; 0x38
 80078dc:	60fb      	str	r3, [r7, #12]

  /* Stop the disable DMA transfer on SPI side */
  CLEAR_BIT(hspi->Instance->CR2, SPI_CR2_TXDMAEN | SPI_CR2_RXDMAEN);
 80078de:	68fb      	ldr	r3, [r7, #12]
 80078e0:	681b      	ldr	r3, [r3, #0]
 80078e2:	685a      	ldr	r2, [r3, #4]
 80078e4:	68fb      	ldr	r3, [r7, #12]
 80078e6:	681b      	ldr	r3, [r3, #0]
 80078e8:	f022 0203 	bic.w	r2, r2, #3
 80078ec:	605a      	str	r2, [r3, #4]

  SET_BIT(hspi->ErrorCode, HAL_SPI_ERROR_DMA);
 80078ee:	68fb      	ldr	r3, [r7, #12]
 80078f0:	6d5b      	ldr	r3, [r3, #84]	; 0x54
 80078f2:	f043 0210 	orr.w	r2, r3, #16
 80078f6:	68fb      	ldr	r3, [r7, #12]
 80078f8:	655a      	str	r2, [r3, #84]	; 0x54
  hspi->State = HAL_SPI_STATE_READY;
 80078fa:	68fb      	ldr	r3, [r7, #12]
 80078fc:	2201      	movs	r2, #1
 80078fe:	f883 2051 	strb.w	r2, [r3, #81]	; 0x51
  /* Call user error callback */
#if (USE_HAL_SPI_REGISTER_CALLBACKS == 1U)
  hspi->ErrorCallback(hspi);
#else
  HAL_SPI_ErrorCallback(hspi);
 8007902:	68f8      	ldr	r0, [r7, #12]
 8007904:	f7ff ff78 	bl	80077f8 <HAL_SPI_ErrorCallback>
#endif /* USE_HAL_SPI_REGISTER_CALLBACKS */
}
 8007908:	bf00      	nop
 800790a:	3710      	adds	r7, #16
 800790c:	46bd      	mov	sp, r7
 800790e:	bd80      	pop	{r7, pc}

08007910 <SPI_WaitFlagStateUntilTimeout>:
  * @param  Tickstart tick start value
  * @retval HAL status
  */
static HAL_StatusTypeDef SPI_WaitFlagStateUntilTimeout(SPI_HandleTypeDef *hspi, uint32_t Flag, FlagStatus State,
                                                       uint32_t Timeout, uint32_t Tickstart)
{
 8007910:	b580      	push	{r7, lr}
 8007912:	b088      	sub	sp, #32
 8007914:	af00      	add	r7, sp, #0
 8007916:	60f8      	str	r0, [r7, #12]
 8007918:	60b9      	str	r1, [r7, #8]
 800791a:	603b      	str	r3, [r7, #0]
 800791c:	4613      	mov	r3, r2
 800791e:	71fb      	strb	r3, [r7, #7]
  __IO uint32_t count;
  uint32_t tmp_timeout;
  uint32_t tmp_tickstart;

  /* Adjust Timeout value  in case of end of transfer */
  tmp_timeout   = Timeout - (HAL_GetTick() - Tickstart);
 8007920:	f7fb fadc 	bl	8002edc <HAL_GetTick>
 8007924:	4602      	mov	r2, r0
 8007926:	6abb      	ldr	r3, [r7, #40]	; 0x28
 8007928:	1a9b      	subs	r3, r3, r2
 800792a:	683a      	ldr	r2, [r7, #0]
 800792c:	4413      	add	r3, r2
 800792e:	61fb      	str	r3, [r7, #28]
  tmp_tickstart = HAL_GetTick();
 8007930:	f7fb fad4 	bl	8002edc <HAL_GetTick>
 8007934:	61b8      	str	r0, [r7, #24]

  /* Calculate Timeout based on a software loop to avoid blocking issue if Systick is disabled */
  count = tmp_timeout * ((SystemCoreClock * 32U) >> 20U);
 8007936:	4b39      	ldr	r3, [pc, #228]	; (8007a1c <SPI_WaitFlagStateUntilTimeout+0x10c>)
 8007938:	681b      	ldr	r3, [r3, #0]
 800793a:	015b      	lsls	r3, r3, #5
 800793c:	0d1b      	lsrs	r3, r3, #20
 800793e:	69fa      	ldr	r2, [r7, #28]
 8007940:	fb02 f303 	mul.w	r3, r2, r3
 8007944:	617b      	str	r3, [r7, #20]

  while ((__HAL_SPI_GET_FLAG(hspi, Flag) ? SET : RESET) != State)
 8007946:	e054      	b.n	80079f2 <SPI_WaitFlagStateUntilTimeout+0xe2>
  {
    if (Timeout != HAL_MAX_DELAY)
 8007948:	683b      	ldr	r3, [r7, #0]
 800794a:	f1b3 3fff 	cmp.w	r3, #4294967295	; 0xffffffff
 800794e:	d050      	beq.n	80079f2 <SPI_WaitFlagStateUntilTimeout+0xe2>
    {
      if (((HAL_GetTick() - tmp_tickstart) >= tmp_timeout) || (tmp_timeout == 0U))
 8007950:	f7fb fac4 	bl	8002edc <HAL_GetTick>
 8007954:	4602      	mov	r2, r0
 8007956:	69bb      	ldr	r3, [r7, #24]
 8007958:	1ad3      	subs	r3, r2, r3
 800795a:	69fa      	ldr	r2, [r7, #28]
 800795c:	429a      	cmp	r2, r3
 800795e:	d902      	bls.n	8007966 <SPI_WaitFlagStateUntilTimeout+0x56>
 8007960:	69fb      	ldr	r3, [r7, #28]
 8007962:	2b00      	cmp	r3, #0
 8007964:	d13d      	bne.n	80079e2 <SPI_WaitFlagStateUntilTimeout+0xd2>
        /* Disable the SPI and reset the CRC: the CRC value should be cleared
           on both master and slave sides in order to resynchronize the master
           and slave for their respective CRC calculation */

        /* Disable TXE, RXNE and ERR interrupts for the interrupt process */
        __HAL_SPI_DISABLE_IT(hspi, (SPI_IT_TXE | SPI_IT_RXNE | SPI_IT_ERR));
 8007966:	68fb      	ldr	r3, [r7, #12]
 8007968:	681b      	ldr	r3, [r3, #0]
 800796a:	685a      	ldr	r2, [r3, #4]
 800796c:	68fb      	ldr	r3, [r7, #12]
 800796e:	681b      	ldr	r3, [r3, #0]
 8007970:	f022 02e0 	bic.w	r2, r2, #224	; 0xe0
 8007974:	605a      	str	r2, [r3, #4]

        if ((hspi->Init.Mode == SPI_MODE_MASTER) && ((hspi->Init.Direction == SPI_DIRECTION_1LINE)
 8007976:	68fb      	ldr	r3, [r7, #12]
 8007978:	685b      	ldr	r3, [r3, #4]
 800797a:	f5b3 7f82 	cmp.w	r3, #260	; 0x104
 800797e:	d111      	bne.n	80079a4 <SPI_WaitFlagStateUntilTimeout+0x94>
 8007980:	68fb      	ldr	r3, [r7, #12]
 8007982:	689b      	ldr	r3, [r3, #8]
 8007984:	f5b3 4f00 	cmp.w	r3, #32768	; 0x8000
 8007988:	d004      	beq.n	8007994 <SPI_WaitFlagStateUntilTimeout+0x84>
                                                     || (hspi->Init.Direction == SPI_DIRECTION_2LINES_RXONLY)))
 800798a:	68fb      	ldr	r3, [r7, #12]
 800798c:	689b      	ldr	r3, [r3, #8]
 800798e:	f5b3 6f80 	cmp.w	r3, #1024	; 0x400
 8007992:	d107      	bne.n	80079a4 <SPI_WaitFlagStateUntilTimeout+0x94>
        {
          /* Disable SPI peripheral */
          __HAL_SPI_DISABLE(hspi);
 8007994:	68fb      	ldr	r3, [r7, #12]
 8007996:	681b      	ldr	r3, [r3, #0]
 8007998:	681a      	ldr	r2, [r3, #0]
 800799a:	68fb      	ldr	r3, [r7, #12]
 800799c:	681b      	ldr	r3, [r3, #0]
 800799e:	f022 0240 	bic.w	r2, r2, #64	; 0x40
 80079a2:	601a      	str	r2, [r3, #0]
        }

        /* Reset CRC Calculation */
        if (hspi->Init.CRCCalculation == SPI_CRCCALCULATION_ENABLE)
 80079a4:	68fb      	ldr	r3, [r7, #12]
 80079a6:	6a9b      	ldr	r3, [r3, #40]	; 0x28
 80079a8:	f5b3 5f00 	cmp.w	r3, #8192	; 0x2000
 80079ac:	d10f      	bne.n	80079ce <SPI_WaitFlagStateUntilTimeout+0xbe>
        {
          SPI_RESET_CRC(hspi);
 80079ae:	68fb      	ldr	r3, [r7, #12]
 80079b0:	681b      	ldr	r3, [r3, #0]
 80079b2:	681a      	ldr	r2, [r3, #0]
 80079b4:	68fb      	ldr	r3, [r7, #12]
 80079b6:	681b      	ldr	r3, [r3, #0]
 80079b8:	f422 5200 	bic.w	r2, r2, #8192	; 0x2000
 80079bc:	601a      	str	r2, [r3, #0]
 80079be:	68fb      	ldr	r3, [r7, #12]
 80079c0:	681b      	ldr	r3, [r3, #0]
 80079c2:	681a      	ldr	r2, [r3, #0]
 80079c4:	68fb      	ldr	r3, [r7, #12]
 80079c6:	681b      	ldr	r3, [r3, #0]
 80079c8:	f442 5200 	orr.w	r2, r2, #8192	; 0x2000
 80079cc:	601a      	str	r2, [r3, #0]
        }

        hspi->State = HAL_SPI_STATE_READY;
 80079ce:	68fb      	ldr	r3, [r7, #12]
 80079d0:	2201      	movs	r2, #1
 80079d2:	f883 2051 	strb.w	r2, [r3, #81]	; 0x51

        /* Process Unlocked */
        __HAL_UNLOCK(hspi);
 80079d6:	68fb      	ldr	r3, [r7, #12]
 80079d8:	2200      	movs	r2, #0
 80079da:	f883 2050 	strb.w	r2, [r3, #80]	; 0x50

        return HAL_TIMEOUT;
 80079de:	2303      	movs	r3, #3
 80079e0:	e017      	b.n	8007a12 <SPI_WaitFlagStateUntilTimeout+0x102>
      }
      /* If Systick is disabled or not incremented, deactivate timeout to go in disable loop procedure */
      if (count == 0U)
 80079e2:	697b      	ldr	r3, [r7, #20]
 80079e4:	2b00      	cmp	r3, #0
 80079e6:	d101      	bne.n	80079ec <SPI_WaitFlagStateUntilTimeout+0xdc>
      {
        tmp_timeout = 0U;
 80079e8:	2300      	movs	r3, #0
 80079ea:	61fb      	str	r3, [r7, #28]
      }
      count--;
 80079ec:	697b      	ldr	r3, [r7, #20]
 80079ee:	3b01      	subs	r3, #1
 80079f0:	617b      	str	r3, [r7, #20]
  while ((__HAL_SPI_GET_FLAG(hspi, Flag) ? SET : RESET) != State)
 80079f2:	68fb      	ldr	r3, [r7, #12]
 80079f4:	681b      	ldr	r3, [r3, #0]
 80079f6:	689a      	ldr	r2, [r3, #8]
 80079f8:	68bb      	ldr	r3, [r7, #8]
 80079fa:	4013      	ands	r3, r2
 80079fc:	68ba      	ldr	r2, [r7, #8]
 80079fe:	429a      	cmp	r2, r3
 8007a00:	bf0c      	ite	eq
 8007a02:	2301      	moveq	r3, #1
 8007a04:	2300      	movne	r3, #0
 8007a06:	b2db      	uxtb	r3, r3
 8007a08:	461a      	mov	r2, r3
 8007a0a:	79fb      	ldrb	r3, [r7, #7]
 8007a0c:	429a      	cmp	r2, r3
 8007a0e:	d19b      	bne.n	8007948 <SPI_WaitFlagStateUntilTimeout+0x38>
    }
  }

  return HAL_OK;
 8007a10:	2300      	movs	r3, #0
}
 8007a12:	4618      	mov	r0, r3
 8007a14:	3720      	adds	r7, #32
 8007a16:	46bd      	mov	sp, r7
 8007a18:	bd80      	pop	{r7, pc}
 8007a1a:	bf00      	nop
 8007a1c:	2000001c 	.word	0x2000001c

08007a20 <SPI_EndRxTransaction>:
  * @param  Timeout Timeout duration
  * @param  Tickstart tick start value
  * @retval HAL status
  */
static HAL_StatusTypeDef SPI_EndRxTransaction(SPI_HandleTypeDef *hspi,  uint32_t Timeout, uint32_t Tickstart)
{
 8007a20:	b580      	push	{r7, lr}
 8007a22:	b086      	sub	sp, #24
 8007a24:	af02      	add	r7, sp, #8
 8007a26:	60f8      	str	r0, [r7, #12]
 8007a28:	60b9      	str	r1, [r7, #8]
 8007a2a:	607a      	str	r2, [r7, #4]
  if ((hspi->Init.Mode == SPI_MODE_MASTER) && ((hspi->Init.Direction == SPI_DIRECTION_1LINE)
 8007a2c:	68fb      	ldr	r3, [r7, #12]
 8007a2e:	685b      	ldr	r3, [r3, #4]
 8007a30:	f5b3 7f82 	cmp.w	r3, #260	; 0x104
 8007a34:	d111      	bne.n	8007a5a <SPI_EndRxTransaction+0x3a>
 8007a36:	68fb      	ldr	r3, [r7, #12]
 8007a38:	689b      	ldr	r3, [r3, #8]
 8007a3a:	f5b3 4f00 	cmp.w	r3, #32768	; 0x8000
 8007a3e:	d004      	beq.n	8007a4a <SPI_EndRxTransaction+0x2a>
                                               || (hspi->Init.Direction == SPI_DIRECTION_2LINES_RXONLY)))
 8007a40:	68fb      	ldr	r3, [r7, #12]
 8007a42:	689b      	ldr	r3, [r3, #8]
 8007a44:	f5b3 6f80 	cmp.w	r3, #1024	; 0x400
 8007a48:	d107      	bne.n	8007a5a <SPI_EndRxTransaction+0x3a>
  {
    /* Disable SPI peripheral */
    __HAL_SPI_DISABLE(hspi);
 8007a4a:	68fb      	ldr	r3, [r7, #12]
 8007a4c:	681b      	ldr	r3, [r3, #0]
 8007a4e:	681a      	ldr	r2, [r3, #0]
 8007a50:	68fb      	ldr	r3, [r7, #12]
 8007a52:	681b      	ldr	r3, [r3, #0]
 8007a54:	f022 0240 	bic.w	r2, r2, #64	; 0x40
 8007a58:	601a      	str	r2, [r3, #0]
  }

  /* Erratasheet: BSY bit may stay high at the end of a data transfer in Slave mode */
  if (hspi->Init.Mode == SPI_MODE_MASTER)
 8007a5a:	68fb      	ldr	r3, [r7, #12]
 8007a5c:	685b      	ldr	r3, [r3, #4]
 8007a5e:	f5b3 7f82 	cmp.w	r3, #260	; 0x104
 8007a62:	d12a      	bne.n	8007aba <SPI_EndRxTransaction+0x9a>
  {
    if (hspi->Init.Direction != SPI_DIRECTION_2LINES_RXONLY)
 8007a64:	68fb      	ldr	r3, [r7, #12]
 8007a66:	689b      	ldr	r3, [r3, #8]
 8007a68:	f5b3 6f80 	cmp.w	r3, #1024	; 0x400
 8007a6c:	d012      	beq.n	8007a94 <SPI_EndRxTransaction+0x74>
    {
      /* Control the BSY flag */
      if (SPI_WaitFlagStateUntilTimeout(hspi, SPI_FLAG_BSY, RESET, Timeout, Tickstart) != HAL_OK)
 8007a6e:	687b      	ldr	r3, [r7, #4]
 8007a70:	9300      	str	r3, [sp, #0]
 8007a72:	68bb      	ldr	r3, [r7, #8]
 8007a74:	2200      	movs	r2, #0
 8007a76:	2180      	movs	r1, #128	; 0x80
 8007a78:	68f8      	ldr	r0, [r7, #12]
 8007a7a:	f7ff ff49 	bl	8007910 <SPI_WaitFlagStateUntilTimeout>
 8007a7e:	4603      	mov	r3, r0
 8007a80:	2b00      	cmp	r3, #0
 8007a82:	d02d      	beq.n	8007ae0 <SPI_EndRxTransaction+0xc0>
      {
        SET_BIT(hspi->ErrorCode, HAL_SPI_ERROR_FLAG);
 8007a84:	68fb      	ldr	r3, [r7, #12]
 8007a86:	6d5b      	ldr	r3, [r3, #84]	; 0x54
 8007a88:	f043 0220 	orr.w	r2, r3, #32
 8007a8c:	68fb      	ldr	r3, [r7, #12]
 8007a8e:	655a      	str	r2, [r3, #84]	; 0x54
        return HAL_TIMEOUT;
 8007a90:	2303      	movs	r3, #3
 8007a92:	e026      	b.n	8007ae2 <SPI_EndRxTransaction+0xc2>
      }
    }
    else
    {
      /* Wait the RXNE reset */
      if (SPI_WaitFlagStateUntilTimeout(hspi, SPI_FLAG_RXNE, RESET, Timeout, Tickstart) != HAL_OK)
 8007a94:	687b      	ldr	r3, [r7, #4]
 8007a96:	9300      	str	r3, [sp, #0]
 8007a98:	68bb      	ldr	r3, [r7, #8]
 8007a9a:	2200      	movs	r2, #0
 8007a9c:	2101      	movs	r1, #1
 8007a9e:	68f8      	ldr	r0, [r7, #12]
 8007aa0:	f7ff ff36 	bl	8007910 <SPI_WaitFlagStateUntilTimeout>
 8007aa4:	4603      	mov	r3, r0
 8007aa6:	2b00      	cmp	r3, #0
 8007aa8:	d01a      	beq.n	8007ae0 <SPI_EndRxTransaction+0xc0>
      {
        SET_BIT(hspi->ErrorCode, HAL_SPI_ERROR_FLAG);
 8007aaa:	68fb      	ldr	r3, [r7, #12]
 8007aac:	6d5b      	ldr	r3, [r3, #84]	; 0x54
 8007aae:	f043 0220 	orr.w	r2, r3, #32
 8007ab2:	68fb      	ldr	r3, [r7, #12]
 8007ab4:	655a      	str	r2, [r3, #84]	; 0x54
        return HAL_TIMEOUT;
 8007ab6:	2303      	movs	r3, #3
 8007ab8:	e013      	b.n	8007ae2 <SPI_EndRxTransaction+0xc2>
    }
  }
  else
  {
    /* Wait the RXNE reset */
    if (SPI_WaitFlagStateUntilTimeout(hspi, SPI_FLAG_RXNE, RESET, Timeout, Tickstart) != HAL_OK)
 8007aba:	687b      	ldr	r3, [r7, #4]
 8007abc:	9300      	str	r3, [sp, #0]
 8007abe:	68bb      	ldr	r3, [r7, #8]
 8007ac0:	2200      	movs	r2, #0
 8007ac2:	2101      	movs	r1, #1
 8007ac4:	68f8      	ldr	r0, [r7, #12]
 8007ac6:	f7ff ff23 	bl	8007910 <SPI_WaitFlagStateUntilTimeout>
 8007aca:	4603      	mov	r3, r0
 8007acc:	2b00      	cmp	r3, #0
 8007ace:	d007      	beq.n	8007ae0 <SPI_EndRxTransaction+0xc0>
    {
      SET_BIT(hspi->ErrorCode, HAL_SPI_ERROR_FLAG);
 8007ad0:	68fb      	ldr	r3, [r7, #12]
 8007ad2:	6d5b      	ldr	r3, [r3, #84]	; 0x54
 8007ad4:	f043 0220 	orr.w	r2, r3, #32
 8007ad8:	68fb      	ldr	r3, [r7, #12]
 8007ada:	655a      	str	r2, [r3, #84]	; 0x54
      return HAL_TIMEOUT;
 8007adc:	2303      	movs	r3, #3
 8007ade:	e000      	b.n	8007ae2 <SPI_EndRxTransaction+0xc2>
    }
  }
  return HAL_OK;
 8007ae0:	2300      	movs	r3, #0
}
 8007ae2:	4618      	mov	r0, r3
 8007ae4:	3710      	adds	r7, #16
 8007ae6:	46bd      	mov	sp, r7
 8007ae8:	bd80      	pop	{r7, pc}
	...

08007aec <SPI_EndRxTxTransaction>:
  * @param  Timeout Timeout duration
  * @param  Tickstart tick start value
  * @retval HAL status
  */
static HAL_StatusTypeDef SPI_EndRxTxTransaction(SPI_HandleTypeDef *hspi, uint32_t Timeout, uint32_t Tickstart)
{
 8007aec:	b580      	push	{r7, lr}
 8007aee:	b088      	sub	sp, #32
 8007af0:	af02      	add	r7, sp, #8
 8007af2:	60f8      	str	r0, [r7, #12]
 8007af4:	60b9      	str	r1, [r7, #8]
 8007af6:	607a      	str	r2, [r7, #4]
  /* Wait until TXE flag */
  if(SPI_WaitFlagStateUntilTimeout(hspi, SPI_FLAG_TXE, SET, Timeout, Tickstart) != HAL_OK)
 8007af8:	687b      	ldr	r3, [r7, #4]
 8007afa:	9300      	str	r3, [sp, #0]
 8007afc:	68bb      	ldr	r3, [r7, #8]
 8007afe:	2201      	movs	r2, #1
 8007b00:	2102      	movs	r1, #2
 8007b02:	68f8      	ldr	r0, [r7, #12]
 8007b04:	f7ff ff04 	bl	8007910 <SPI_WaitFlagStateUntilTimeout>
 8007b08:	4603      	mov	r3, r0
 8007b0a:	2b00      	cmp	r3, #0
 8007b0c:	d007      	beq.n	8007b1e <SPI_EndRxTxTransaction+0x32>
  {
    SET_BIT(hspi->ErrorCode, HAL_SPI_ERROR_FLAG);
 8007b0e:	68fb      	ldr	r3, [r7, #12]
 8007b10:	6d5b      	ldr	r3, [r3, #84]	; 0x54
 8007b12:	f043 0220 	orr.w	r2, r3, #32
 8007b16:	68fb      	ldr	r3, [r7, #12]
 8007b18:	655a      	str	r2, [r3, #84]	; 0x54
    return HAL_TIMEOUT;
 8007b1a:	2303      	movs	r3, #3
 8007b1c:	e032      	b.n	8007b84 <SPI_EndRxTxTransaction+0x98>
  }

  /* Timeout in s */
  __IO uint32_t count = SPI_BSY_FLAG_WORKAROUND_TIMEOUT * (SystemCoreClock / 24U / 1000000U);
 8007b1e:	4b1b      	ldr	r3, [pc, #108]	; (8007b8c <SPI_EndRxTxTransaction+0xa0>)
 8007b20:	681b      	ldr	r3, [r3, #0]
 8007b22:	4a1b      	ldr	r2, [pc, #108]	; (8007b90 <SPI_EndRxTxTransaction+0xa4>)
 8007b24:	fba2 2303 	umull	r2, r3, r2, r3
 8007b28:	0d5b      	lsrs	r3, r3, #21
 8007b2a:	f44f 727a 	mov.w	r2, #1000	; 0x3e8
 8007b2e:	fb02 f303 	mul.w	r3, r2, r3
 8007b32:	617b      	str	r3, [r7, #20]
  /* Erratasheet: BSY bit may stay high at the end of a data transfer in Slave mode */
  if (hspi->Init.Mode == SPI_MODE_MASTER)
 8007b34:	68fb      	ldr	r3, [r7, #12]
 8007b36:	685b      	ldr	r3, [r3, #4]
 8007b38:	f5b3 7f82 	cmp.w	r3, #260	; 0x104
 8007b3c:	d112      	bne.n	8007b64 <SPI_EndRxTxTransaction+0x78>
  {
    /* Control the BSY flag */
    if (SPI_WaitFlagStateUntilTimeout(hspi, SPI_FLAG_BSY, RESET, Timeout, Tickstart) != HAL_OK)
 8007b3e:	687b      	ldr	r3, [r7, #4]
 8007b40:	9300      	str	r3, [sp, #0]
 8007b42:	68bb      	ldr	r3, [r7, #8]
 8007b44:	2200      	movs	r2, #0
 8007b46:	2180      	movs	r1, #128	; 0x80
 8007b48:	68f8      	ldr	r0, [r7, #12]
 8007b4a:	f7ff fee1 	bl	8007910 <SPI_WaitFlagStateUntilTimeout>
 8007b4e:	4603      	mov	r3, r0
 8007b50:	2b00      	cmp	r3, #0
 8007b52:	d016      	beq.n	8007b82 <SPI_EndRxTxTransaction+0x96>
    {
      SET_BIT(hspi->ErrorCode, HAL_SPI_ERROR_FLAG);
 8007b54:	68fb      	ldr	r3, [r7, #12]
 8007b56:	6d5b      	ldr	r3, [r3, #84]	; 0x54
 8007b58:	f043 0220 	orr.w	r2, r3, #32
 8007b5c:	68fb      	ldr	r3, [r7, #12]
 8007b5e:	655a      	str	r2, [r3, #84]	; 0x54
      return HAL_TIMEOUT;
 8007b60:	2303      	movs	r3, #3
 8007b62:	e00f      	b.n	8007b84 <SPI_EndRxTxTransaction+0x98>
    * User have to calculate the timeout value to fit with the time of 1 byte transfer.
    * This time is directly link with the SPI clock from Master device.
    */
    do
    {
      if (count == 0U)
 8007b64:	697b      	ldr	r3, [r7, #20]
 8007b66:	2b00      	cmp	r3, #0
 8007b68:	d00a      	beq.n	8007b80 <SPI_EndRxTxTransaction+0x94>
      {
        break;
      }
      count--;
 8007b6a:	697b      	ldr	r3, [r7, #20]
 8007b6c:	3b01      	subs	r3, #1
 8007b6e:	617b      	str	r3, [r7, #20]
    } while (__HAL_SPI_GET_FLAG(hspi, SPI_FLAG_BSY) != RESET);
 8007b70:	68fb      	ldr	r3, [r7, #12]
 8007b72:	681b      	ldr	r3, [r3, #0]
 8007b74:	689b      	ldr	r3, [r3, #8]
 8007b76:	f003 0380 	and.w	r3, r3, #128	; 0x80
 8007b7a:	2b80      	cmp	r3, #128	; 0x80
 8007b7c:	d0f2      	beq.n	8007b64 <SPI_EndRxTxTransaction+0x78>
 8007b7e:	e000      	b.n	8007b82 <SPI_EndRxTxTransaction+0x96>
        break;
 8007b80:	bf00      	nop
  }

  return HAL_OK;
 8007b82:	2300      	movs	r3, #0
}
 8007b84:	4618      	mov	r0, r3
 8007b86:	3718      	adds	r7, #24
 8007b88:	46bd      	mov	sp, r7
 8007b8a:	bd80      	pop	{r7, pc}
 8007b8c:	2000001c 	.word	0x2000001c
 8007b90:	165e9f81 	.word	0x165e9f81

08007b94 <HAL_TIM_Base_Init>:
  *         Ex: call @ref HAL_TIM_Base_DeInit() before HAL_TIM_Base_Init()
  * @param  htim TIM Base handle
  * @retval HAL status
  */
HAL_StatusTypeDef HAL_TIM_Base_Init(TIM_HandleTypeDef *htim)
{
 8007b94:	b580      	push	{r7, lr}
 8007b96:	b082      	sub	sp, #8
 8007b98:	af00      	add	r7, sp, #0
 8007b9a:	6078      	str	r0, [r7, #4]
  /* Check the TIM handle allocation */
  if (htim == NULL)
 8007b9c:	687b      	ldr	r3, [r7, #4]
 8007b9e:	2b00      	cmp	r3, #0
 8007ba0:	d101      	bne.n	8007ba6 <HAL_TIM_Base_Init+0x12>
  {
    return HAL_ERROR;
 8007ba2:	2301      	movs	r3, #1
 8007ba4:	e041      	b.n	8007c2a <HAL_TIM_Base_Init+0x96>
  assert_param(IS_TIM_COUNTER_MODE(htim->Init.CounterMode));
  assert_param(IS_TIM_CLOCKDIVISION_DIV(htim->Init.ClockDivision));
  assert_param(IS_TIM_PERIOD(htim, htim->Init.Period));
  assert_param(IS_TIM_AUTORELOAD_PRELOAD(htim->Init.AutoReloadPreload));

  if (htim->State == HAL_TIM_STATE_RESET)
 8007ba6:	687b      	ldr	r3, [r7, #4]
 8007ba8:	f893 303d 	ldrb.w	r3, [r3, #61]	; 0x3d
 8007bac:	b2db      	uxtb	r3, r3
 8007bae:	2b00      	cmp	r3, #0
 8007bb0:	d106      	bne.n	8007bc0 <HAL_TIM_Base_Init+0x2c>
  {
    /* Allocate lock resource and initialize it */
    htim->Lock = HAL_UNLOCKED;
 8007bb2:	687b      	ldr	r3, [r7, #4]
 8007bb4:	2200      	movs	r2, #0
 8007bb6:	f883 203c 	strb.w	r2, [r3, #60]	; 0x3c
    }
    /* Init the low level hardware : GPIO, CLOCK, NVIC */
    htim->Base_MspInitCallback(htim);
#else
    /* Init the low level hardware : GPIO, CLOCK, NVIC */
    HAL_TIM_Base_MspInit(htim);
 8007bba:	6878      	ldr	r0, [r7, #4]
 8007bbc:	f7fa ff3c 	bl	8002a38 <HAL_TIM_Base_MspInit>
#endif /* USE_HAL_TIM_REGISTER_CALLBACKS */
  }

  /* Set the TIM state */
  htim->State = HAL_TIM_STATE_BUSY;
 8007bc0:	687b      	ldr	r3, [r7, #4]
 8007bc2:	2202      	movs	r2, #2
 8007bc4:	f883 203d 	strb.w	r2, [r3, #61]	; 0x3d

  /* Set the Time Base configuration */
  TIM_Base_SetConfig(htim->Instance, &htim->Init);
 8007bc8:	687b      	ldr	r3, [r7, #4]
 8007bca:	681a      	ldr	r2, [r3, #0]
 8007bcc:	687b      	ldr	r3, [r7, #4]
 8007bce:	3304      	adds	r3, #4
 8007bd0:	4619      	mov	r1, r3
 8007bd2:	4610      	mov	r0, r2
 8007bd4:	f000 f9c0 	bl	8007f58 <TIM_Base_SetConfig>

  /* Initialize the DMA burst operation state */
  htim->DMABurstState = HAL_DMA_BURST_STATE_READY;
 8007bd8:	687b      	ldr	r3, [r7, #4]
 8007bda:	2201      	movs	r2, #1
 8007bdc:	f883 2046 	strb.w	r2, [r3, #70]	; 0x46

  /* Initialize the TIM channels state */
  TIM_CHANNEL_STATE_SET_ALL(htim, HAL_TIM_CHANNEL_STATE_READY);
 8007be0:	687b      	ldr	r3, [r7, #4]
 8007be2:	2201      	movs	r2, #1
 8007be4:	f883 203e 	strb.w	r2, [r3, #62]	; 0x3e
 8007be8:	687b      	ldr	r3, [r7, #4]
 8007bea:	2201      	movs	r2, #1
 8007bec:	f883 203f 	strb.w	r2, [r3, #63]	; 0x3f
 8007bf0:	687b      	ldr	r3, [r7, #4]
 8007bf2:	2201      	movs	r2, #1
 8007bf4:	f883 2040 	strb.w	r2, [r3, #64]	; 0x40
 8007bf8:	687b      	ldr	r3, [r7, #4]
 8007bfa:	2201      	movs	r2, #1
 8007bfc:	f883 2041 	strb.w	r2, [r3, #65]	; 0x41
  TIM_CHANNEL_N_STATE_SET_ALL(htim, HAL_TIM_CHANNEL_STATE_READY);
 8007c00:	687b      	ldr	r3, [r7, #4]
 8007c02:	2201      	movs	r2, #1
 8007c04:	f883 2042 	strb.w	r2, [r3, #66]	; 0x42
 8007c08:	687b      	ldr	r3, [r7, #4]
 8007c0a:	2201      	movs	r2, #1
 8007c0c:	f883 2043 	strb.w	r2, [r3, #67]	; 0x43
 8007c10:	687b      	ldr	r3, [r7, #4]
 8007c12:	2201      	movs	r2, #1
 8007c14:	f883 2044 	strb.w	r2, [r3, #68]	; 0x44
 8007c18:	687b      	ldr	r3, [r7, #4]
 8007c1a:	2201      	movs	r2, #1
 8007c1c:	f883 2045 	strb.w	r2, [r3, #69]	; 0x45

  /* Initialize the TIM state*/
  htim->State = HAL_TIM_STATE_READY;
 8007c20:	687b      	ldr	r3, [r7, #4]
 8007c22:	2201      	movs	r2, #1
 8007c24:	f883 203d 	strb.w	r2, [r3, #61]	; 0x3d

  return HAL_OK;
 8007c28:	2300      	movs	r3, #0
}
 8007c2a:	4618      	mov	r0, r3
 8007c2c:	3708      	adds	r7, #8
 8007c2e:	46bd      	mov	sp, r7
 8007c30:	bd80      	pop	{r7, pc}
	...

08007c34 <HAL_TIM_Base_Start_IT>:
  * @brief  Starts the TIM Base generation in interrupt mode.
  * @param  htim TIM Base handle
  * @retval HAL status
  */
HAL_StatusTypeDef HAL_TIM_Base_Start_IT(TIM_HandleTypeDef *htim)
{
 8007c34:	b480      	push	{r7}
 8007c36:	b085      	sub	sp, #20
 8007c38:	af00      	add	r7, sp, #0
 8007c3a:	6078      	str	r0, [r7, #4]

  /* Check the parameters */
  assert_param(IS_TIM_INSTANCE(htim->Instance));

  /* Check the TIM state */
  if (htim->State != HAL_TIM_STATE_READY)
 8007c3c:	687b      	ldr	r3, [r7, #4]
 8007c3e:	f893 303d 	ldrb.w	r3, [r3, #61]	; 0x3d
 8007c42:	b2db      	uxtb	r3, r3
 8007c44:	2b01      	cmp	r3, #1
 8007c46:	d001      	beq.n	8007c4c <HAL_TIM_Base_Start_IT+0x18>
  {
    return HAL_ERROR;
 8007c48:	2301      	movs	r3, #1
 8007c4a:	e04e      	b.n	8007cea <HAL_TIM_Base_Start_IT+0xb6>
  }

  /* Set the TIM state */
  htim->State = HAL_TIM_STATE_BUSY;
 8007c4c:	687b      	ldr	r3, [r7, #4]
 8007c4e:	2202      	movs	r2, #2
 8007c50:	f883 203d 	strb.w	r2, [r3, #61]	; 0x3d

  /* Enable the TIM Update interrupt */
  __HAL_TIM_ENABLE_IT(htim, TIM_IT_UPDATE);
 8007c54:	687b      	ldr	r3, [r7, #4]
 8007c56:	681b      	ldr	r3, [r3, #0]
 8007c58:	68da      	ldr	r2, [r3, #12]
 8007c5a:	687b      	ldr	r3, [r7, #4]
 8007c5c:	681b      	ldr	r3, [r3, #0]
 8007c5e:	f042 0201 	orr.w	r2, r2, #1
 8007c62:	60da      	str	r2, [r3, #12]

  /* Enable the Peripheral, except in trigger mode where enable is automatically done with trigger */
  if (IS_TIM_SLAVE_INSTANCE(htim->Instance))
 8007c64:	687b      	ldr	r3, [r7, #4]
 8007c66:	681b      	ldr	r3, [r3, #0]
 8007c68:	4a23      	ldr	r2, [pc, #140]	; (8007cf8 <HAL_TIM_Base_Start_IT+0xc4>)
 8007c6a:	4293      	cmp	r3, r2
 8007c6c:	d022      	beq.n	8007cb4 <HAL_TIM_Base_Start_IT+0x80>
 8007c6e:	687b      	ldr	r3, [r7, #4]
 8007c70:	681b      	ldr	r3, [r3, #0]
 8007c72:	f1b3 4f80 	cmp.w	r3, #1073741824	; 0x40000000
 8007c76:	d01d      	beq.n	8007cb4 <HAL_TIM_Base_Start_IT+0x80>
 8007c78:	687b      	ldr	r3, [r7, #4]
 8007c7a:	681b      	ldr	r3, [r3, #0]
 8007c7c:	4a1f      	ldr	r2, [pc, #124]	; (8007cfc <HAL_TIM_Base_Start_IT+0xc8>)
 8007c7e:	4293      	cmp	r3, r2
 8007c80:	d018      	beq.n	8007cb4 <HAL_TIM_Base_Start_IT+0x80>
 8007c82:	687b      	ldr	r3, [r7, #4]
 8007c84:	681b      	ldr	r3, [r3, #0]
 8007c86:	4a1e      	ldr	r2, [pc, #120]	; (8007d00 <HAL_TIM_Base_Start_IT+0xcc>)
 8007c88:	4293      	cmp	r3, r2
 8007c8a:	d013      	beq.n	8007cb4 <HAL_TIM_Base_Start_IT+0x80>
 8007c8c:	687b      	ldr	r3, [r7, #4]
 8007c8e:	681b      	ldr	r3, [r3, #0]
 8007c90:	4a1c      	ldr	r2, [pc, #112]	; (8007d04 <HAL_TIM_Base_Start_IT+0xd0>)
 8007c92:	4293      	cmp	r3, r2
 8007c94:	d00e      	beq.n	8007cb4 <HAL_TIM_Base_Start_IT+0x80>
 8007c96:	687b      	ldr	r3, [r7, #4]
 8007c98:	681b      	ldr	r3, [r3, #0]
 8007c9a:	4a1b      	ldr	r2, [pc, #108]	; (8007d08 <HAL_TIM_Base_Start_IT+0xd4>)
 8007c9c:	4293      	cmp	r3, r2
 8007c9e:	d009      	beq.n	8007cb4 <HAL_TIM_Base_Start_IT+0x80>
 8007ca0:	687b      	ldr	r3, [r7, #4]
 8007ca2:	681b      	ldr	r3, [r3, #0]
 8007ca4:	4a19      	ldr	r2, [pc, #100]	; (8007d0c <HAL_TIM_Base_Start_IT+0xd8>)
 8007ca6:	4293      	cmp	r3, r2
 8007ca8:	d004      	beq.n	8007cb4 <HAL_TIM_Base_Start_IT+0x80>
 8007caa:	687b      	ldr	r3, [r7, #4]
 8007cac:	681b      	ldr	r3, [r3, #0]
 8007cae:	4a18      	ldr	r2, [pc, #96]	; (8007d10 <HAL_TIM_Base_Start_IT+0xdc>)
 8007cb0:	4293      	cmp	r3, r2
 8007cb2:	d111      	bne.n	8007cd8 <HAL_TIM_Base_Start_IT+0xa4>
  {
    tmpsmcr = htim->Instance->SMCR & TIM_SMCR_SMS;
 8007cb4:	687b      	ldr	r3, [r7, #4]
 8007cb6:	681b      	ldr	r3, [r3, #0]
 8007cb8:	689b      	ldr	r3, [r3, #8]
 8007cba:	f003 0307 	and.w	r3, r3, #7
 8007cbe:	60fb      	str	r3, [r7, #12]
    if (!IS_TIM_SLAVEMODE_TRIGGER_ENABLED(tmpsmcr))
 8007cc0:	68fb      	ldr	r3, [r7, #12]
 8007cc2:	2b06      	cmp	r3, #6
 8007cc4:	d010      	beq.n	8007ce8 <HAL_TIM_Base_Start_IT+0xb4>
    {
      __HAL_TIM_ENABLE(htim);
 8007cc6:	687b      	ldr	r3, [r7, #4]
 8007cc8:	681b      	ldr	r3, [r3, #0]
 8007cca:	681a      	ldr	r2, [r3, #0]
 8007ccc:	687b      	ldr	r3, [r7, #4]
 8007cce:	681b      	ldr	r3, [r3, #0]
 8007cd0:	f042 0201 	orr.w	r2, r2, #1
 8007cd4:	601a      	str	r2, [r3, #0]
    if (!IS_TIM_SLAVEMODE_TRIGGER_ENABLED(tmpsmcr))
 8007cd6:	e007      	b.n	8007ce8 <HAL_TIM_Base_Start_IT+0xb4>
    }
  }
  else
  {
    __HAL_TIM_ENABLE(htim);
 8007cd8:	687b      	ldr	r3, [r7, #4]
 8007cda:	681b      	ldr	r3, [r3, #0]
 8007cdc:	681a      	ldr	r2, [r3, #0]
 8007cde:	687b      	ldr	r3, [r7, #4]
 8007ce0:	681b      	ldr	r3, [r3, #0]
 8007ce2:	f042 0201 	orr.w	r2, r2, #1
 8007ce6:	601a      	str	r2, [r3, #0]
  }

  /* Return function status */
  return HAL_OK;
 8007ce8:	2300      	movs	r3, #0
}
 8007cea:	4618      	mov	r0, r3
 8007cec:	3714      	adds	r7, #20
 8007cee:	46bd      	mov	sp, r7
 8007cf0:	f85d 7b04 	ldr.w	r7, [sp], #4
 8007cf4:	4770      	bx	lr
 8007cf6:	bf00      	nop
 8007cf8:	40010000 	.word	0x40010000
 8007cfc:	40000400 	.word	0x40000400
 8007d00:	40000800 	.word	0x40000800
 8007d04:	40000c00 	.word	0x40000c00
 8007d08:	40010400 	.word	0x40010400
 8007d0c:	40014000 	.word	0x40014000
 8007d10:	40001800 	.word	0x40001800

08007d14 <HAL_TIM_IRQHandler>:
  * @brief  This function handles TIM interrupts requests.
  * @param  htim TIM  handle
  * @retval None
  */
void HAL_TIM_IRQHandler(TIM_HandleTypeDef *htim)
{
 8007d14:	b580      	push	{r7, lr}
 8007d16:	b084      	sub	sp, #16
 8007d18:	af00      	add	r7, sp, #0
 8007d1a:	6078      	str	r0, [r7, #4]
  uint32_t itsource = htim->Instance->DIER;
 8007d1c:	687b      	ldr	r3, [r7, #4]
 8007d1e:	681b      	ldr	r3, [r3, #0]
 8007d20:	68db      	ldr	r3, [r3, #12]
 8007d22:	60fb      	str	r3, [r7, #12]
  uint32_t itflag   = htim->Instance->SR;
 8007d24:	687b      	ldr	r3, [r7, #4]
 8007d26:	681b      	ldr	r3, [r3, #0]
 8007d28:	691b      	ldr	r3, [r3, #16]
 8007d2a:	60bb      	str	r3, [r7, #8]

  /* Capture compare 1 event */
  if ((itflag & (TIM_FLAG_CC1)) == (TIM_FLAG_CC1))
 8007d2c:	68bb      	ldr	r3, [r7, #8]
 8007d2e:	f003 0302 	and.w	r3, r3, #2
 8007d32:	2b00      	cmp	r3, #0
 8007d34:	d020      	beq.n	8007d78 <HAL_TIM_IRQHandler+0x64>
  {
    if ((itsource & (TIM_IT_CC1)) == (TIM_IT_CC1))
 8007d36:	68fb      	ldr	r3, [r7, #12]
 8007d38:	f003 0302 	and.w	r3, r3, #2
 8007d3c:	2b00      	cmp	r3, #0
 8007d3e:	d01b      	beq.n	8007d78 <HAL_TIM_IRQHandler+0x64>
    {
      {
        __HAL_TIM_CLEAR_FLAG(htim, TIM_FLAG_CC1);
 8007d40:	687b      	ldr	r3, [r7, #4]
 8007d42:	681b      	ldr	r3, [r3, #0]
 8007d44:	f06f 0202 	mvn.w	r2, #2
 8007d48:	611a      	str	r2, [r3, #16]
        htim->Channel = HAL_TIM_ACTIVE_CHANNEL_1;
 8007d4a:	687b      	ldr	r3, [r7, #4]
 8007d4c:	2201      	movs	r2, #1
 8007d4e:	771a      	strb	r2, [r3, #28]

        /* Input capture event */
        if ((htim->Instance->CCMR1 & TIM_CCMR1_CC1S) != 0x00U)
 8007d50:	687b      	ldr	r3, [r7, #4]
 8007d52:	681b      	ldr	r3, [r3, #0]
 8007d54:	699b      	ldr	r3, [r3, #24]
 8007d56:	f003 0303 	and.w	r3, r3, #3
 8007d5a:	2b00      	cmp	r3, #0
 8007d5c:	d003      	beq.n	8007d66 <HAL_TIM_IRQHandler+0x52>
        {
#if (USE_HAL_TIM_REGISTER_CALLBACKS == 1)
          htim->IC_CaptureCallback(htim);
#else
          HAL_TIM_IC_CaptureCallback(htim);
 8007d5e:	6878      	ldr	r0, [r7, #4]
 8007d60:	f000 f8dc 	bl	8007f1c <HAL_TIM_IC_CaptureCallback>
 8007d64:	e005      	b.n	8007d72 <HAL_TIM_IRQHandler+0x5e>
        {
#if (USE_HAL_TIM_REGISTER_CALLBACKS == 1)
          htim->OC_DelayElapsedCallback(htim);
          htim->PWM_PulseFinishedCallback(htim);
#else
          HAL_TIM_OC_DelayElapsedCallback(htim);
 8007d66:	6878      	ldr	r0, [r7, #4]
 8007d68:	f000 f8ce 	bl	8007f08 <HAL_TIM_OC_DelayElapsedCallback>
          HAL_TIM_PWM_PulseFinishedCallback(htim);
 8007d6c:	6878      	ldr	r0, [r7, #4]
 8007d6e:	f000 f8df 	bl	8007f30 <HAL_TIM_PWM_PulseFinishedCallback>
#endif /* USE_HAL_TIM_REGISTER_CALLBACKS */
        }
        htim->Channel = HAL_TIM_ACTIVE_CHANNEL_CLEARED;
 8007d72:	687b      	ldr	r3, [r7, #4]
 8007d74:	2200      	movs	r2, #0
 8007d76:	771a      	strb	r2, [r3, #28]
      }
    }
  }
  /* Capture compare 2 event */
  if ((itflag & (TIM_FLAG_CC2)) == (TIM_FLAG_CC2))
 8007d78:	68bb      	ldr	r3, [r7, #8]
 8007d7a:	f003 0304 	and.w	r3, r3, #4
 8007d7e:	2b00      	cmp	r3, #0
 8007d80:	d020      	beq.n	8007dc4 <HAL_TIM_IRQHandler+0xb0>
  {
    if ((itsource & (TIM_IT_CC2)) == (TIM_IT_CC2))
 8007d82:	68fb      	ldr	r3, [r7, #12]
 8007d84:	f003 0304 	and.w	r3, r3, #4
 8007d88:	2b00      	cmp	r3, #0
 8007d8a:	d01b      	beq.n	8007dc4 <HAL_TIM_IRQHandler+0xb0>
    {
      __HAL_TIM_CLEAR_FLAG(htim, TIM_FLAG_CC2);
 8007d8c:	687b      	ldr	r3, [r7, #4]
 8007d8e:	681b      	ldr	r3, [r3, #0]
 8007d90:	f06f 0204 	mvn.w	r2, #4
 8007d94:	611a      	str	r2, [r3, #16]
      htim->Channel = HAL_TIM_ACTIVE_CHANNEL_2;
 8007d96:	687b      	ldr	r3, [r7, #4]
 8007d98:	2202      	movs	r2, #2
 8007d9a:	771a      	strb	r2, [r3, #28]
      /* Input capture event */
      if ((htim->Instance->CCMR1 & TIM_CCMR1_CC2S) != 0x00U)
 8007d9c:	687b      	ldr	r3, [r7, #4]
 8007d9e:	681b      	ldr	r3, [r3, #0]
 8007da0:	699b      	ldr	r3, [r3, #24]
 8007da2:	f403 7340 	and.w	r3, r3, #768	; 0x300
 8007da6:	2b00      	cmp	r3, #0
 8007da8:	d003      	beq.n	8007db2 <HAL_TIM_IRQHandler+0x9e>
      {
#if (USE_HAL_TIM_REGISTER_CALLBACKS == 1)
        htim->IC_CaptureCallback(htim);
#else
        HAL_TIM_IC_CaptureCallback(htim);
 8007daa:	6878      	ldr	r0, [r7, #4]
 8007dac:	f000 f8b6 	bl	8007f1c <HAL_TIM_IC_CaptureCallback>
 8007db0:	e005      	b.n	8007dbe <HAL_TIM_IRQHandler+0xaa>
      {
#if (USE_HAL_TIM_REGISTER_CALLBACKS == 1)
        htim->OC_DelayElapsedCallback(htim);
        htim->PWM_PulseFinishedCallback(htim);
#else
        HAL_TIM_OC_DelayElapsedCallback(htim);
 8007db2:	6878      	ldr	r0, [r7, #4]
 8007db4:	f000 f8a8 	bl	8007f08 <HAL_TIM_OC_DelayElapsedCallback>
        HAL_TIM_PWM_PulseFinishedCallback(htim);
 8007db8:	6878      	ldr	r0, [r7, #4]
 8007dba:	f000 f8b9 	bl	8007f30 <HAL_TIM_PWM_PulseFinishedCallback>
#endif /* USE_HAL_TIM_REGISTER_CALLBACKS */
      }
      htim->Channel = HAL_TIM_ACTIVE_CHANNEL_CLEARED;
 8007dbe:	687b      	ldr	r3, [r7, #4]
 8007dc0:	2200      	movs	r2, #0
 8007dc2:	771a      	strb	r2, [r3, #28]
    }
  }
  /* Capture compare 3 event */
  if ((itflag & (TIM_FLAG_CC3)) == (TIM_FLAG_CC3))
 8007dc4:	68bb      	ldr	r3, [r7, #8]
 8007dc6:	f003 0308 	and.w	r3, r3, #8
 8007dca:	2b00      	cmp	r3, #0
 8007dcc:	d020      	beq.n	8007e10 <HAL_TIM_IRQHandler+0xfc>
  {
    if ((itsource & (TIM_IT_CC3)) == (TIM_IT_CC3))
 8007dce:	68fb      	ldr	r3, [r7, #12]
 8007dd0:	f003 0308 	and.w	r3, r3, #8
 8007dd4:	2b00      	cmp	r3, #0
 8007dd6:	d01b      	beq.n	8007e10 <HAL_TIM_IRQHandler+0xfc>
    {
      __HAL_TIM_CLEAR_FLAG(htim, TIM_FLAG_CC3);
 8007dd8:	687b      	ldr	r3, [r7, #4]
 8007dda:	681b      	ldr	r3, [r3, #0]
 8007ddc:	f06f 0208 	mvn.w	r2, #8
 8007de0:	611a      	str	r2, [r3, #16]
      htim->Channel = HAL_TIM_ACTIVE_CHANNEL_3;
 8007de2:	687b      	ldr	r3, [r7, #4]
 8007de4:	2204      	movs	r2, #4
 8007de6:	771a      	strb	r2, [r3, #28]
      /* Input capture event */
      if ((htim->Instance->CCMR2 & TIM_CCMR2_CC3S) != 0x00U)
 8007de8:	687b      	ldr	r3, [r7, #4]
 8007dea:	681b      	ldr	r3, [r3, #0]
 8007dec:	69db      	ldr	r3, [r3, #28]
 8007dee:	f003 0303 	and.w	r3, r3, #3
 8007df2:	2b00      	cmp	r3, #0
 8007df4:	d003      	beq.n	8007dfe <HAL_TIM_IRQHandler+0xea>
      {
#if (USE_HAL_TIM_REGISTER_CALLBACKS == 1)
        htim->IC_CaptureCallback(htim);
#else
        HAL_TIM_IC_CaptureCallback(htim);
 8007df6:	6878      	ldr	r0, [r7, #4]
 8007df8:	f000 f890 	bl	8007f1c <HAL_TIM_IC_CaptureCallback>
 8007dfc:	e005      	b.n	8007e0a <HAL_TIM_IRQHandler+0xf6>
      {
#if (USE_HAL_TIM_REGISTER_CALLBACKS == 1)
        htim->OC_DelayElapsedCallback(htim);
        htim->PWM_PulseFinishedCallback(htim);
#else
        HAL_TIM_OC_DelayElapsedCallback(htim);
 8007dfe:	6878      	ldr	r0, [r7, #4]
 8007e00:	f000 f882 	bl	8007f08 <HAL_TIM_OC_DelayElapsedCallback>
        HAL_TIM_PWM_PulseFinishedCallback(htim);
 8007e04:	6878      	ldr	r0, [r7, #4]
 8007e06:	f000 f893 	bl	8007f30 <HAL_TIM_PWM_PulseFinishedCallback>
#endif /* USE_HAL_TIM_REGISTER_CALLBACKS */
      }
      htim->Channel = HAL_TIM_ACTIVE_CHANNEL_CLEARED;
 8007e0a:	687b      	ldr	r3, [r7, #4]
 8007e0c:	2200      	movs	r2, #0
 8007e0e:	771a      	strb	r2, [r3, #28]
    }
  }
  /* Capture compare 4 event */
  if ((itflag & (TIM_FLAG_CC4)) == (TIM_FLAG_CC4))
 8007e10:	68bb      	ldr	r3, [r7, #8]
 8007e12:	f003 0310 	and.w	r3, r3, #16
 8007e16:	2b00      	cmp	r3, #0
 8007e18:	d020      	beq.n	8007e5c <HAL_TIM_IRQHandler+0x148>
  {
    if ((itsource & (TIM_IT_CC4)) == (TIM_IT_CC4))
 8007e1a:	68fb      	ldr	r3, [r7, #12]
 8007e1c:	f003 0310 	and.w	r3, r3, #16
 8007e20:	2b00      	cmp	r3, #0
 8007e22:	d01b      	beq.n	8007e5c <HAL_TIM_IRQHandler+0x148>
    {
      __HAL_TIM_CLEAR_FLAG(htim, TIM_FLAG_CC4);
 8007e24:	687b      	ldr	r3, [r7, #4]
 8007e26:	681b      	ldr	r3, [r3, #0]
 8007e28:	f06f 0210 	mvn.w	r2, #16
 8007e2c:	611a      	str	r2, [r3, #16]
      htim->Channel = HAL_TIM_ACTIVE_CHANNEL_4;
 8007e2e:	687b      	ldr	r3, [r7, #4]
 8007e30:	2208      	movs	r2, #8
 8007e32:	771a      	strb	r2, [r3, #28]
      /* Input capture event */
      if ((htim->Instance->CCMR2 & TIM_CCMR2_CC4S) != 0x00U)
 8007e34:	687b      	ldr	r3, [r7, #4]
 8007e36:	681b      	ldr	r3, [r3, #0]
 8007e38:	69db      	ldr	r3, [r3, #28]
 8007e3a:	f403 7340 	and.w	r3, r3, #768	; 0x300
 8007e3e:	2b00      	cmp	r3, #0
 8007e40:	d003      	beq.n	8007e4a <HAL_TIM_IRQHandler+0x136>
      {
#if (USE_HAL_TIM_REGISTER_CALLBACKS == 1)
        htim->IC_CaptureCallback(htim);
#else
        HAL_TIM_IC_CaptureCallback(htim);
 8007e42:	6878      	ldr	r0, [r7, #4]
 8007e44:	f000 f86a 	bl	8007f1c <HAL_TIM_IC_CaptureCallback>
 8007e48:	e005      	b.n	8007e56 <HAL_TIM_IRQHandler+0x142>
      {
#if (USE_HAL_TIM_REGISTER_CALLBACKS == 1)
        htim->OC_DelayElapsedCallback(htim);
        htim->PWM_PulseFinishedCallback(htim);
#else
        HAL_TIM_OC_DelayElapsedCallback(htim);
 8007e4a:	6878      	ldr	r0, [r7, #4]
 8007e4c:	f000 f85c 	bl	8007f08 <HAL_TIM_OC_DelayElapsedCallback>
        HAL_TIM_PWM_PulseFinishedCallback(htim);
 8007e50:	6878      	ldr	r0, [r7, #4]
 8007e52:	f000 f86d 	bl	8007f30 <HAL_TIM_PWM_PulseFinishedCallback>
#endif /* USE_HAL_TIM_REGISTER_CALLBACKS */
      }
      htim->Channel = HAL_TIM_ACTIVE_CHANNEL_CLEARED;
 8007e56:	687b      	ldr	r3, [r7, #4]
 8007e58:	2200      	movs	r2, #0
 8007e5a:	771a      	strb	r2, [r3, #28]
    }
  }
  /* TIM Update event */
  if ((itflag & (TIM_FLAG_UPDATE)) == (TIM_FLAG_UPDATE))
 8007e5c:	68bb      	ldr	r3, [r7, #8]
 8007e5e:	f003 0301 	and.w	r3, r3, #1
 8007e62:	2b00      	cmp	r3, #0
 8007e64:	d00c      	beq.n	8007e80 <HAL_TIM_IRQHandler+0x16c>
  {
    if ((itsource & (TIM_IT_UPDATE)) == (TIM_IT_UPDATE))
 8007e66:	68fb      	ldr	r3, [r7, #12]
 8007e68:	f003 0301 	and.w	r3, r3, #1
 8007e6c:	2b00      	cmp	r3, #0
 8007e6e:	d007      	beq.n	8007e80 <HAL_TIM_IRQHandler+0x16c>
    {
      __HAL_TIM_CLEAR_FLAG(htim, TIM_FLAG_UPDATE);
 8007e70:	687b      	ldr	r3, [r7, #4]
 8007e72:	681b      	ldr	r3, [r3, #0]
 8007e74:	f06f 0201 	mvn.w	r2, #1
 8007e78:	611a      	str	r2, [r3, #16]
#if (USE_HAL_TIM_REGISTER_CALLBACKS == 1)
      htim->PeriodElapsedCallback(htim);
#else
      HAL_TIM_PeriodElapsedCallback(htim);
 8007e7a:	6878      	ldr	r0, [r7, #4]
 8007e7c:	f000 f83a 	bl	8007ef4 <HAL_TIM_PeriodElapsedCallback>
#endif /* USE_HAL_TIM_REGISTER_CALLBACKS */
    }
  }
  /* TIM Break input event */
  if ((itflag & (TIM_FLAG_BREAK)) == (TIM_FLAG_BREAK))
 8007e80:	68bb      	ldr	r3, [r7, #8]
 8007e82:	f003 0380 	and.w	r3, r3, #128	; 0x80
 8007e86:	2b00      	cmp	r3, #0
 8007e88:	d00c      	beq.n	8007ea4 <HAL_TIM_IRQHandler+0x190>
  {
    if ((itsource & (TIM_IT_BREAK)) == (TIM_IT_BREAK))
 8007e8a:	68fb      	ldr	r3, [r7, #12]
 8007e8c:	f003 0380 	and.w	r3, r3, #128	; 0x80
 8007e90:	2b00      	cmp	r3, #0
 8007e92:	d007      	beq.n	8007ea4 <HAL_TIM_IRQHandler+0x190>
    {
      __HAL_TIM_CLEAR_FLAG(htim, TIM_FLAG_BREAK);
 8007e94:	687b      	ldr	r3, [r7, #4]
 8007e96:	681b      	ldr	r3, [r3, #0]
 8007e98:	f06f 0280 	mvn.w	r2, #128	; 0x80
 8007e9c:	611a      	str	r2, [r3, #16]
#if (USE_HAL_TIM_REGISTER_CALLBACKS == 1)
      htim->BreakCallback(htim);
#else
      HAL_TIMEx_BreakCallback(htim);
 8007e9e:	6878      	ldr	r0, [r7, #4]
 8007ea0:	f000 f98c 	bl	80081bc <HAL_TIMEx_BreakCallback>
#endif /* USE_HAL_TIM_REGISTER_CALLBACKS */
    }
  }
  /* TIM Trigger detection event */
  if ((itflag & (TIM_FLAG_TRIGGER)) == (TIM_FLAG_TRIGGER))
 8007ea4:	68bb      	ldr	r3, [r7, #8]
 8007ea6:	f003 0340 	and.w	r3, r3, #64	; 0x40
 8007eaa:	2b00      	cmp	r3, #0
 8007eac:	d00c      	beq.n	8007ec8 <HAL_TIM_IRQHandler+0x1b4>
  {
    if ((itsource & (TIM_IT_TRIGGER)) == (TIM_IT_TRIGGER))
 8007eae:	68fb      	ldr	r3, [r7, #12]
 8007eb0:	f003 0340 	and.w	r3, r3, #64	; 0x40
 8007eb4:	2b00      	cmp	r3, #0
 8007eb6:	d007      	beq.n	8007ec8 <HAL_TIM_IRQHandler+0x1b4>
    {
      __HAL_TIM_CLEAR_FLAG(htim, TIM_FLAG_TRIGGER);
 8007eb8:	687b      	ldr	r3, [r7, #4]
 8007eba:	681b      	ldr	r3, [r3, #0]
 8007ebc:	f06f 0240 	mvn.w	r2, #64	; 0x40
 8007ec0:	611a      	str	r2, [r3, #16]
#if (USE_HAL_TIM_REGISTER_CALLBACKS == 1)
      htim->TriggerCallback(htim);
#else
      HAL_TIM_TriggerCallback(htim);
 8007ec2:	6878      	ldr	r0, [r7, #4]
 8007ec4:	f000 f83e 	bl	8007f44 <HAL_TIM_TriggerCallback>
#endif /* USE_HAL_TIM_REGISTER_CALLBACKS */
    }
  }
  /* TIM commutation event */
  if ((itflag & (TIM_FLAG_COM)) == (TIM_FLAG_COM))
 8007ec8:	68bb      	ldr	r3, [r7, #8]
 8007eca:	f003 0320 	and.w	r3, r3, #32
 8007ece:	2b00      	cmp	r3, #0
 8007ed0:	d00c      	beq.n	8007eec <HAL_TIM_IRQHandler+0x1d8>
  {
    if ((itsource & (TIM_IT_COM)) == (TIM_IT_COM))
 8007ed2:	68fb      	ldr	r3, [r7, #12]
 8007ed4:	f003 0320 	and.w	r3, r3, #32
 8007ed8:	2b00      	cmp	r3, #0
 8007eda:	d007      	beq.n	8007eec <HAL_TIM_IRQHandler+0x1d8>
    {
      __HAL_TIM_CLEAR_FLAG(htim, TIM_FLAG_COM);
 8007edc:	687b      	ldr	r3, [r7, #4]
 8007ede:	681b      	ldr	r3, [r3, #0]
 8007ee0:	f06f 0220 	mvn.w	r2, #32
 8007ee4:	611a      	str	r2, [r3, #16]
#if (USE_HAL_TIM_REGISTER_CALLBACKS == 1)
      htim->CommutationCallback(htim);
#else
      HAL_TIMEx_CommutCallback(htim);
 8007ee6:	6878      	ldr	r0, [r7, #4]
 8007ee8:	f000 f95e 	bl	80081a8 <HAL_TIMEx_CommutCallback>
#endif /* USE_HAL_TIM_REGISTER_CALLBACKS */
    }
  }
}
 8007eec:	bf00      	nop
 8007eee:	3710      	adds	r7, #16
 8007ef0:	46bd      	mov	sp, r7
 8007ef2:	bd80      	pop	{r7, pc}

08007ef4 <HAL_TIM_PeriodElapsedCallback>:
  * @brief  Period elapsed callback in non-blocking mode
  * @param  htim TIM handle
  * @retval None
  */
__weak void HAL_TIM_PeriodElapsedCallback(TIM_HandleTypeDef *htim)
{
 8007ef4:	b480      	push	{r7}
 8007ef6:	b083      	sub	sp, #12
 8007ef8:	af00      	add	r7, sp, #0
 8007efa:	6078      	str	r0, [r7, #4]
  UNUSED(htim);

  /* NOTE : This function should not be modified, when the callback is needed,
            the HAL_TIM_PeriodElapsedCallback could be implemented in the user file
   */
}
 8007efc:	bf00      	nop
 8007efe:	370c      	adds	r7, #12
 8007f00:	46bd      	mov	sp, r7
 8007f02:	f85d 7b04 	ldr.w	r7, [sp], #4
 8007f06:	4770      	bx	lr

08007f08 <HAL_TIM_OC_DelayElapsedCallback>:
  * @brief  Output Compare callback in non-blocking mode
  * @param  htim TIM OC handle
  * @retval None
  */
__weak void HAL_TIM_OC_DelayElapsedCallback(TIM_HandleTypeDef *htim)
{
 8007f08:	b480      	push	{r7}
 8007f0a:	b083      	sub	sp, #12
 8007f0c:	af00      	add	r7, sp, #0
 8007f0e:	6078      	str	r0, [r7, #4]
  UNUSED(htim);

  /* NOTE : This function should not be modified, when the callback is needed,
            the HAL_TIM_OC_DelayElapsedCallback could be implemented in the user file
   */
}
 8007f10:	bf00      	nop
 8007f12:	370c      	adds	r7, #12
 8007f14:	46bd      	mov	sp, r7
 8007f16:	f85d 7b04 	ldr.w	r7, [sp], #4
 8007f1a:	4770      	bx	lr

08007f1c <HAL_TIM_IC_CaptureCallback>:
  * @brief  Input Capture callback in non-blocking mode
  * @param  htim TIM IC handle
  * @retval None
  */
__weak void HAL_TIM_IC_CaptureCallback(TIM_HandleTypeDef *htim)
{
 8007f1c:	b480      	push	{r7}
 8007f1e:	b083      	sub	sp, #12
 8007f20:	af00      	add	r7, sp, #0
 8007f22:	6078      	str	r0, [r7, #4]
  UNUSED(htim);

  /* NOTE : This function should not be modified, when the callback is needed,
            the HAL_TIM_IC_CaptureCallback could be implemented in the user file
   */
}
 8007f24:	bf00      	nop
 8007f26:	370c      	adds	r7, #12
 8007f28:	46bd      	mov	sp, r7
 8007f2a:	f85d 7b04 	ldr.w	r7, [sp], #4
 8007f2e:	4770      	bx	lr

08007f30 <HAL_TIM_PWM_PulseFinishedCallback>:
  * @brief  PWM Pulse finished callback in non-blocking mode
  * @param  htim TIM handle
  * @retval None
  */
__weak void HAL_TIM_PWM_PulseFinishedCallback(TIM_HandleTypeDef *htim)
{
 8007f30:	b480      	push	{r7}
 8007f32:	b083      	sub	sp, #12
 8007f34:	af00      	add	r7, sp, #0
 8007f36:	6078      	str	r0, [r7, #4]
  UNUSED(htim);

  /* NOTE : This function should not be modified, when the callback is needed,
            the HAL_TIM_PWM_PulseFinishedCallback could be implemented in the user file
   */
}
 8007f38:	bf00      	nop
 8007f3a:	370c      	adds	r7, #12
 8007f3c:	46bd      	mov	sp, r7
 8007f3e:	f85d 7b04 	ldr.w	r7, [sp], #4
 8007f42:	4770      	bx	lr

08007f44 <HAL_TIM_TriggerCallback>:
  * @brief  Hall Trigger detection callback in non-blocking mode
  * @param  htim TIM handle
  * @retval None
  */
__weak void HAL_TIM_TriggerCallback(TIM_HandleTypeDef *htim)
{
 8007f44:	b480      	push	{r7}
 8007f46:	b083      	sub	sp, #12
 8007f48:	af00      	add	r7, sp, #0
 8007f4a:	6078      	str	r0, [r7, #4]
  UNUSED(htim);

  /* NOTE : This function should not be modified, when the callback is needed,
            the HAL_TIM_TriggerCallback could be implemented in the user file
   */
}
 8007f4c:	bf00      	nop
 8007f4e:	370c      	adds	r7, #12
 8007f50:	46bd      	mov	sp, r7
 8007f52:	f85d 7b04 	ldr.w	r7, [sp], #4
 8007f56:	4770      	bx	lr

08007f58 <TIM_Base_SetConfig>:
  * @param  TIMx TIM peripheral
  * @param  Structure TIM Base configuration structure
  * @retval None
  */
void TIM_Base_SetConfig(TIM_TypeDef *TIMx, const TIM_Base_InitTypeDef *Structure)
{
 8007f58:	b480      	push	{r7}
 8007f5a:	b085      	sub	sp, #20
 8007f5c:	af00      	add	r7, sp, #0
 8007f5e:	6078      	str	r0, [r7, #4]
 8007f60:	6039      	str	r1, [r7, #0]
  uint32_t tmpcr1;
  tmpcr1 = TIMx->CR1;
 8007f62:	687b      	ldr	r3, [r7, #4]
 8007f64:	681b      	ldr	r3, [r3, #0]
 8007f66:	60fb      	str	r3, [r7, #12]

  /* Set TIM Time Base Unit parameters ---------------------------------------*/
  if (IS_TIM_COUNTER_MODE_SELECT_INSTANCE(TIMx))
 8007f68:	687b      	ldr	r3, [r7, #4]
 8007f6a:	4a46      	ldr	r2, [pc, #280]	; (8008084 <TIM_Base_SetConfig+0x12c>)
 8007f6c:	4293      	cmp	r3, r2
 8007f6e:	d013      	beq.n	8007f98 <TIM_Base_SetConfig+0x40>
 8007f70:	687b      	ldr	r3, [r7, #4]
 8007f72:	f1b3 4f80 	cmp.w	r3, #1073741824	; 0x40000000
 8007f76:	d00f      	beq.n	8007f98 <TIM_Base_SetConfig+0x40>
 8007f78:	687b      	ldr	r3, [r7, #4]
 8007f7a:	4a43      	ldr	r2, [pc, #268]	; (8008088 <TIM_Base_SetConfig+0x130>)
 8007f7c:	4293      	cmp	r3, r2
 8007f7e:	d00b      	beq.n	8007f98 <TIM_Base_SetConfig+0x40>
 8007f80:	687b      	ldr	r3, [r7, #4]
 8007f82:	4a42      	ldr	r2, [pc, #264]	; (800808c <TIM_Base_SetConfig+0x134>)
 8007f84:	4293      	cmp	r3, r2
 8007f86:	d007      	beq.n	8007f98 <TIM_Base_SetConfig+0x40>
 8007f88:	687b      	ldr	r3, [r7, #4]
 8007f8a:	4a41      	ldr	r2, [pc, #260]	; (8008090 <TIM_Base_SetConfig+0x138>)
 8007f8c:	4293      	cmp	r3, r2
 8007f8e:	d003      	beq.n	8007f98 <TIM_Base_SetConfig+0x40>
 8007f90:	687b      	ldr	r3, [r7, #4]
 8007f92:	4a40      	ldr	r2, [pc, #256]	; (8008094 <TIM_Base_SetConfig+0x13c>)
 8007f94:	4293      	cmp	r3, r2
 8007f96:	d108      	bne.n	8007faa <TIM_Base_SetConfig+0x52>
  {
    /* Select the Counter Mode */
    tmpcr1 &= ~(TIM_CR1_DIR | TIM_CR1_CMS);
 8007f98:	68fb      	ldr	r3, [r7, #12]
 8007f9a:	f023 0370 	bic.w	r3, r3, #112	; 0x70
 8007f9e:	60fb      	str	r3, [r7, #12]
    tmpcr1 |= Structure->CounterMode;
 8007fa0:	683b      	ldr	r3, [r7, #0]
 8007fa2:	685b      	ldr	r3, [r3, #4]
 8007fa4:	68fa      	ldr	r2, [r7, #12]
 8007fa6:	4313      	orrs	r3, r2
 8007fa8:	60fb      	str	r3, [r7, #12]
  }

  if (IS_TIM_CLOCK_DIVISION_INSTANCE(TIMx))
 8007faa:	687b      	ldr	r3, [r7, #4]
 8007fac:	4a35      	ldr	r2, [pc, #212]	; (8008084 <TIM_Base_SetConfig+0x12c>)
 8007fae:	4293      	cmp	r3, r2
 8007fb0:	d02b      	beq.n	800800a <TIM_Base_SetConfig+0xb2>
 8007fb2:	687b      	ldr	r3, [r7, #4]
 8007fb4:	f1b3 4f80 	cmp.w	r3, #1073741824	; 0x40000000
 8007fb8:	d027      	beq.n	800800a <TIM_Base_SetConfig+0xb2>
 8007fba:	687b      	ldr	r3, [r7, #4]
 8007fbc:	4a32      	ldr	r2, [pc, #200]	; (8008088 <TIM_Base_SetConfig+0x130>)
 8007fbe:	4293      	cmp	r3, r2
 8007fc0:	d023      	beq.n	800800a <TIM_Base_SetConfig+0xb2>
 8007fc2:	687b      	ldr	r3, [r7, #4]
 8007fc4:	4a31      	ldr	r2, [pc, #196]	; (800808c <TIM_Base_SetConfig+0x134>)
 8007fc6:	4293      	cmp	r3, r2
 8007fc8:	d01f      	beq.n	800800a <TIM_Base_SetConfig+0xb2>
 8007fca:	687b      	ldr	r3, [r7, #4]
 8007fcc:	4a30      	ldr	r2, [pc, #192]	; (8008090 <TIM_Base_SetConfig+0x138>)
 8007fce:	4293      	cmp	r3, r2
 8007fd0:	d01b      	beq.n	800800a <TIM_Base_SetConfig+0xb2>
 8007fd2:	687b      	ldr	r3, [r7, #4]
 8007fd4:	4a2f      	ldr	r2, [pc, #188]	; (8008094 <TIM_Base_SetConfig+0x13c>)
 8007fd6:	4293      	cmp	r3, r2
 8007fd8:	d017      	beq.n	800800a <TIM_Base_SetConfig+0xb2>
 8007fda:	687b      	ldr	r3, [r7, #4]
 8007fdc:	4a2e      	ldr	r2, [pc, #184]	; (8008098 <TIM_Base_SetConfig+0x140>)
 8007fde:	4293      	cmp	r3, r2
 8007fe0:	d013      	beq.n	800800a <TIM_Base_SetConfig+0xb2>
 8007fe2:	687b      	ldr	r3, [r7, #4]
 8007fe4:	4a2d      	ldr	r2, [pc, #180]	; (800809c <TIM_Base_SetConfig+0x144>)
 8007fe6:	4293      	cmp	r3, r2
 8007fe8:	d00f      	beq.n	800800a <TIM_Base_SetConfig+0xb2>
 8007fea:	687b      	ldr	r3, [r7, #4]
 8007fec:	4a2c      	ldr	r2, [pc, #176]	; (80080a0 <TIM_Base_SetConfig+0x148>)
 8007fee:	4293      	cmp	r3, r2
 8007ff0:	d00b      	beq.n	800800a <TIM_Base_SetConfig+0xb2>
 8007ff2:	687b      	ldr	r3, [r7, #4]
 8007ff4:	4a2b      	ldr	r2, [pc, #172]	; (80080a4 <TIM_Base_SetConfig+0x14c>)
 8007ff6:	4293      	cmp	r3, r2
 8007ff8:	d007      	beq.n	800800a <TIM_Base_SetConfig+0xb2>
 8007ffa:	687b      	ldr	r3, [r7, #4]
 8007ffc:	4a2a      	ldr	r2, [pc, #168]	; (80080a8 <TIM_Base_SetConfig+0x150>)
 8007ffe:	4293      	cmp	r3, r2
 8008000:	d003      	beq.n	800800a <TIM_Base_SetConfig+0xb2>
 8008002:	687b      	ldr	r3, [r7, #4]
 8008004:	4a29      	ldr	r2, [pc, #164]	; (80080ac <TIM_Base_SetConfig+0x154>)
 8008006:	4293      	cmp	r3, r2
 8008008:	d108      	bne.n	800801c <TIM_Base_SetConfig+0xc4>
  {
    /* Set the clock division */
    tmpcr1 &= ~TIM_CR1_CKD;
 800800a:	68fb      	ldr	r3, [r7, #12]
 800800c:	f423 7340 	bic.w	r3, r3, #768	; 0x300
 8008010:	60fb      	str	r3, [r7, #12]
    tmpcr1 |= (uint32_t)Structure->ClockDivision;
 8008012:	683b      	ldr	r3, [r7, #0]
 8008014:	68db      	ldr	r3, [r3, #12]
 8008016:	68fa      	ldr	r2, [r7, #12]
 8008018:	4313      	orrs	r3, r2
 800801a:	60fb      	str	r3, [r7, #12]
  }

  /* Set the auto-reload preload */
  MODIFY_REG(tmpcr1, TIM_CR1_ARPE, Structure->AutoReloadPreload);
 800801c:	68fb      	ldr	r3, [r7, #12]
 800801e:	f023 0280 	bic.w	r2, r3, #128	; 0x80
 8008022:	683b      	ldr	r3, [r7, #0]
 8008024:	695b      	ldr	r3, [r3, #20]
 8008026:	4313      	orrs	r3, r2
 8008028:	60fb      	str	r3, [r7, #12]

  TIMx->CR1 = tmpcr1;
 800802a:	687b      	ldr	r3, [r7, #4]
 800802c:	68fa      	ldr	r2, [r7, #12]
 800802e:	601a      	str	r2, [r3, #0]

  /* Set the Autoreload value */
  TIMx->ARR = (uint32_t)Structure->Period ;
 8008030:	683b      	ldr	r3, [r7, #0]
 8008032:	689a      	ldr	r2, [r3, #8]
 8008034:	687b      	ldr	r3, [r7, #4]
 8008036:	62da      	str	r2, [r3, #44]	; 0x2c

  /* Set the Prescaler value */
  TIMx->PSC = Structure->Prescaler;
 8008038:	683b      	ldr	r3, [r7, #0]
 800803a:	681a      	ldr	r2, [r3, #0]
 800803c:	687b      	ldr	r3, [r7, #4]
 800803e:	629a      	str	r2, [r3, #40]	; 0x28

  if (IS_TIM_REPETITION_COUNTER_INSTANCE(TIMx))
 8008040:	687b      	ldr	r3, [r7, #4]
 8008042:	4a10      	ldr	r2, [pc, #64]	; (8008084 <TIM_Base_SetConfig+0x12c>)
 8008044:	4293      	cmp	r3, r2
 8008046:	d003      	beq.n	8008050 <TIM_Base_SetConfig+0xf8>
 8008048:	687b      	ldr	r3, [r7, #4]
 800804a:	4a12      	ldr	r2, [pc, #72]	; (8008094 <TIM_Base_SetConfig+0x13c>)
 800804c:	4293      	cmp	r3, r2
 800804e:	d103      	bne.n	8008058 <TIM_Base_SetConfig+0x100>
  {
    /* Set the Repetition Counter value */
    TIMx->RCR = Structure->RepetitionCounter;
 8008050:	683b      	ldr	r3, [r7, #0]
 8008052:	691a      	ldr	r2, [r3, #16]
 8008054:	687b      	ldr	r3, [r7, #4]
 8008056:	631a      	str	r2, [r3, #48]	; 0x30
  }

  /* Generate an update event to reload the Prescaler
     and the repetition counter (only for advanced timer) value immediately */
  TIMx->EGR = TIM_EGR_UG;
 8008058:	687b      	ldr	r3, [r7, #4]
 800805a:	2201      	movs	r2, #1
 800805c:	615a      	str	r2, [r3, #20]

  /* Check if the update flag is set after the Update Generation, if so clear the UIF flag */
  if (HAL_IS_BIT_SET(TIMx->SR, TIM_FLAG_UPDATE))
 800805e:	687b      	ldr	r3, [r7, #4]
 8008060:	691b      	ldr	r3, [r3, #16]
 8008062:	f003 0301 	and.w	r3, r3, #1
 8008066:	2b01      	cmp	r3, #1
 8008068:	d105      	bne.n	8008076 <TIM_Base_SetConfig+0x11e>
  {
    /* Clear the update flag */
    CLEAR_BIT(TIMx->SR, TIM_FLAG_UPDATE);
 800806a:	687b      	ldr	r3, [r7, #4]
 800806c:	691b      	ldr	r3, [r3, #16]
 800806e:	f023 0201 	bic.w	r2, r3, #1
 8008072:	687b      	ldr	r3, [r7, #4]
 8008074:	611a      	str	r2, [r3, #16]
  }
}
 8008076:	bf00      	nop
 8008078:	3714      	adds	r7, #20
 800807a:	46bd      	mov	sp, r7
 800807c:	f85d 7b04 	ldr.w	r7, [sp], #4
 8008080:	4770      	bx	lr
 8008082:	bf00      	nop
 8008084:	40010000 	.word	0x40010000
 8008088:	40000400 	.word	0x40000400
 800808c:	40000800 	.word	0x40000800
 8008090:	40000c00 	.word	0x40000c00
 8008094:	40010400 	.word	0x40010400
 8008098:	40014000 	.word	0x40014000
 800809c:	40014400 	.word	0x40014400
 80080a0:	40014800 	.word	0x40014800
 80080a4:	40001800 	.word	0x40001800
 80080a8:	40001c00 	.word	0x40001c00
 80080ac:	40002000 	.word	0x40002000

080080b0 <HAL_TIMEx_MasterConfigSynchronization>:
  *         mode.
  * @retval HAL status
  */
HAL_StatusTypeDef HAL_TIMEx_MasterConfigSynchronization(TIM_HandleTypeDef *htim,
                                                        const TIM_MasterConfigTypeDef *sMasterConfig)
{
 80080b0:	b480      	push	{r7}
 80080b2:	b085      	sub	sp, #20
 80080b4:	af00      	add	r7, sp, #0
 80080b6:	6078      	str	r0, [r7, #4]
 80080b8:	6039      	str	r1, [r7, #0]
  assert_param(IS_TIM_MASTER_INSTANCE(htim->Instance));
  assert_param(IS_TIM_TRGO_SOURCE(sMasterConfig->MasterOutputTrigger));
  assert_param(IS_TIM_MSM_STATE(sMasterConfig->MasterSlaveMode));

  /* Check input state */
  __HAL_LOCK(htim);
 80080ba:	687b      	ldr	r3, [r7, #4]
 80080bc:	f893 303c 	ldrb.w	r3, [r3, #60]	; 0x3c
 80080c0:	2b01      	cmp	r3, #1
 80080c2:	d101      	bne.n	80080c8 <HAL_TIMEx_MasterConfigSynchronization+0x18>
 80080c4:	2302      	movs	r3, #2
 80080c6:	e05a      	b.n	800817e <HAL_TIMEx_MasterConfigSynchronization+0xce>
 80080c8:	687b      	ldr	r3, [r7, #4]
 80080ca:	2201      	movs	r2, #1
 80080cc:	f883 203c 	strb.w	r2, [r3, #60]	; 0x3c

  /* Change the handler state */
  htim->State = HAL_TIM_STATE_BUSY;
 80080d0:	687b      	ldr	r3, [r7, #4]
 80080d2:	2202      	movs	r2, #2
 80080d4:	f883 203d 	strb.w	r2, [r3, #61]	; 0x3d

  /* Get the TIMx CR2 register value */
  tmpcr2 = htim->Instance->CR2;
 80080d8:	687b      	ldr	r3, [r7, #4]
 80080da:	681b      	ldr	r3, [r3, #0]
 80080dc:	685b      	ldr	r3, [r3, #4]
 80080de:	60fb      	str	r3, [r7, #12]

  /* Get the TIMx SMCR register value */
  tmpsmcr = htim->Instance->SMCR;
 80080e0:	687b      	ldr	r3, [r7, #4]
 80080e2:	681b      	ldr	r3, [r3, #0]
 80080e4:	689b      	ldr	r3, [r3, #8]
 80080e6:	60bb      	str	r3, [r7, #8]

  /* Reset the MMS Bits */
  tmpcr2 &= ~TIM_CR2_MMS;
 80080e8:	68fb      	ldr	r3, [r7, #12]
 80080ea:	f023 0370 	bic.w	r3, r3, #112	; 0x70
 80080ee:	60fb      	str	r3, [r7, #12]
  /* Select the TRGO source */
  tmpcr2 |=  sMasterConfig->MasterOutputTrigger;
 80080f0:	683b      	ldr	r3, [r7, #0]
 80080f2:	681b      	ldr	r3, [r3, #0]
 80080f4:	68fa      	ldr	r2, [r7, #12]
 80080f6:	4313      	orrs	r3, r2
 80080f8:	60fb      	str	r3, [r7, #12]

  /* Update TIMx CR2 */
  htim->Instance->CR2 = tmpcr2;
 80080fa:	687b      	ldr	r3, [r7, #4]
 80080fc:	681b      	ldr	r3, [r3, #0]
 80080fe:	68fa      	ldr	r2, [r7, #12]
 8008100:	605a      	str	r2, [r3, #4]

  if (IS_TIM_SLAVE_INSTANCE(htim->Instance))
 8008102:	687b      	ldr	r3, [r7, #4]
 8008104:	681b      	ldr	r3, [r3, #0]
 8008106:	4a21      	ldr	r2, [pc, #132]	; (800818c <HAL_TIMEx_MasterConfigSynchronization+0xdc>)
 8008108:	4293      	cmp	r3, r2
 800810a:	d022      	beq.n	8008152 <HAL_TIMEx_MasterConfigSynchronization+0xa2>
 800810c:	687b      	ldr	r3, [r7, #4]
 800810e:	681b      	ldr	r3, [r3, #0]
 8008110:	f1b3 4f80 	cmp.w	r3, #1073741824	; 0x40000000
 8008114:	d01d      	beq.n	8008152 <HAL_TIMEx_MasterConfigSynchronization+0xa2>
 8008116:	687b      	ldr	r3, [r7, #4]
 8008118:	681b      	ldr	r3, [r3, #0]
 800811a:	4a1d      	ldr	r2, [pc, #116]	; (8008190 <HAL_TIMEx_MasterConfigSynchronization+0xe0>)
 800811c:	4293      	cmp	r3, r2
 800811e:	d018      	beq.n	8008152 <HAL_TIMEx_MasterConfigSynchronization+0xa2>
 8008120:	687b      	ldr	r3, [r7, #4]
 8008122:	681b      	ldr	r3, [r3, #0]
 8008124:	4a1b      	ldr	r2, [pc, #108]	; (8008194 <HAL_TIMEx_MasterConfigSynchronization+0xe4>)
 8008126:	4293      	cmp	r3, r2
 8008128:	d013      	beq.n	8008152 <HAL_TIMEx_MasterConfigSynchronization+0xa2>
 800812a:	687b      	ldr	r3, [r7, #4]
 800812c:	681b      	ldr	r3, [r3, #0]
 800812e:	4a1a      	ldr	r2, [pc, #104]	; (8008198 <HAL_TIMEx_MasterConfigSynchronization+0xe8>)
 8008130:	4293      	cmp	r3, r2
 8008132:	d00e      	beq.n	8008152 <HAL_TIMEx_MasterConfigSynchronization+0xa2>
 8008134:	687b      	ldr	r3, [r7, #4]
 8008136:	681b      	ldr	r3, [r3, #0]
 8008138:	4a18      	ldr	r2, [pc, #96]	; (800819c <HAL_TIMEx_MasterConfigSynchronization+0xec>)
 800813a:	4293      	cmp	r3, r2
 800813c:	d009      	beq.n	8008152 <HAL_TIMEx_MasterConfigSynchronization+0xa2>
 800813e:	687b      	ldr	r3, [r7, #4]
 8008140:	681b      	ldr	r3, [r3, #0]
 8008142:	4a17      	ldr	r2, [pc, #92]	; (80081a0 <HAL_TIMEx_MasterConfigSynchronization+0xf0>)
 8008144:	4293      	cmp	r3, r2
 8008146:	d004      	beq.n	8008152 <HAL_TIMEx_MasterConfigSynchronization+0xa2>
 8008148:	687b      	ldr	r3, [r7, #4]
 800814a:	681b      	ldr	r3, [r3, #0]
 800814c:	4a15      	ldr	r2, [pc, #84]	; (80081a4 <HAL_TIMEx_MasterConfigSynchronization+0xf4>)
 800814e:	4293      	cmp	r3, r2
 8008150:	d10c      	bne.n	800816c <HAL_TIMEx_MasterConfigSynchronization+0xbc>
  {
    /* Reset the MSM Bit */
    tmpsmcr &= ~TIM_SMCR_MSM;
 8008152:	68bb      	ldr	r3, [r7, #8]
 8008154:	f023 0380 	bic.w	r3, r3, #128	; 0x80
 8008158:	60bb      	str	r3, [r7, #8]
    /* Set master mode */
    tmpsmcr |= sMasterConfig->MasterSlaveMode;
 800815a:	683b      	ldr	r3, [r7, #0]
 800815c:	685b      	ldr	r3, [r3, #4]
 800815e:	68ba      	ldr	r2, [r7, #8]
 8008160:	4313      	orrs	r3, r2
 8008162:	60bb      	str	r3, [r7, #8]

    /* Update TIMx SMCR */
    htim->Instance->SMCR = tmpsmcr;
 8008164:	687b      	ldr	r3, [r7, #4]
 8008166:	681b      	ldr	r3, [r3, #0]
 8008168:	68ba      	ldr	r2, [r7, #8]
 800816a:	609a      	str	r2, [r3, #8]
  }

  /* Change the htim state */
  htim->State = HAL_TIM_STATE_READY;
 800816c:	687b      	ldr	r3, [r7, #4]
 800816e:	2201      	movs	r2, #1
 8008170:	f883 203d 	strb.w	r2, [r3, #61]	; 0x3d

  __HAL_UNLOCK(htim);
 8008174:	687b      	ldr	r3, [r7, #4]
 8008176:	2200      	movs	r2, #0
 8008178:	f883 203c 	strb.w	r2, [r3, #60]	; 0x3c

  return HAL_OK;
 800817c:	2300      	movs	r3, #0
}
 800817e:	4618      	mov	r0, r3
 8008180:	3714      	adds	r7, #20
 8008182:	46bd      	mov	sp, r7
 8008184:	f85d 7b04 	ldr.w	r7, [sp], #4
 8008188:	4770      	bx	lr
 800818a:	bf00      	nop
 800818c:	40010000 	.word	0x40010000
 8008190:	40000400 	.word	0x40000400
 8008194:	40000800 	.word	0x40000800
 8008198:	40000c00 	.word	0x40000c00
 800819c:	40010400 	.word	0x40010400
 80081a0:	40014000 	.word	0x40014000
 80081a4:	40001800 	.word	0x40001800

080081a8 <HAL_TIMEx_CommutCallback>:
  * @brief  Commutation callback in non-blocking mode
  * @param  htim TIM handle
  * @retval None
  */
__weak void HAL_TIMEx_CommutCallback(TIM_HandleTypeDef *htim)
{
 80081a8:	b480      	push	{r7}
 80081aa:	b083      	sub	sp, #12
 80081ac:	af00      	add	r7, sp, #0
 80081ae:	6078      	str	r0, [r7, #4]
  UNUSED(htim);

  /* NOTE : This function should not be modified, when the callback is needed,
            the HAL_TIMEx_CommutCallback could be implemented in the user file
   */
}
 80081b0:	bf00      	nop
 80081b2:	370c      	adds	r7, #12
 80081b4:	46bd      	mov	sp, r7
 80081b6:	f85d 7b04 	ldr.w	r7, [sp], #4
 80081ba:	4770      	bx	lr

080081bc <HAL_TIMEx_BreakCallback>:
  * @brief  Break detection callback in non-blocking mode
  * @param  htim TIM handle
  * @retval None
  */
__weak void HAL_TIMEx_BreakCallback(TIM_HandleTypeDef *htim)
{
 80081bc:	b480      	push	{r7}
 80081be:	b083      	sub	sp, #12
 80081c0:	af00      	add	r7, sp, #0
 80081c2:	6078      	str	r0, [r7, #4]
  UNUSED(htim);

  /* NOTE : This function should not be modified, when the callback is needed,
            the HAL_TIMEx_BreakCallback could be implemented in the user file
   */
}
 80081c4:	bf00      	nop
 80081c6:	370c      	adds	r7, #12
 80081c8:	46bd      	mov	sp, r7
 80081ca:	f85d 7b04 	ldr.w	r7, [sp], #4
 80081ce:	4770      	bx	lr

080081d0 <HAL_UART_Init>:
  * @param  huart  Pointer to a UART_HandleTypeDef structure that contains
  *                the configuration information for the specified UART module.
  * @retval HAL status
  */
HAL_StatusTypeDef HAL_UART_Init(UART_HandleTypeDef *huart)
{
 80081d0:	b580      	push	{r7, lr}
 80081d2:	b082      	sub	sp, #8
 80081d4:	af00      	add	r7, sp, #0
 80081d6:	6078      	str	r0, [r7, #4]
  /* Check the UART handle allocation */
  if (huart == NULL)
 80081d8:	687b      	ldr	r3, [r7, #4]
 80081da:	2b00      	cmp	r3, #0
 80081dc:	d101      	bne.n	80081e2 <HAL_UART_Init+0x12>
  {
    return HAL_ERROR;
 80081de:	2301      	movs	r3, #1
 80081e0:	e042      	b.n	8008268 <HAL_UART_Init+0x98>
    assert_param(IS_UART_INSTANCE(huart->Instance));
  }
  assert_param(IS_UART_WORD_LENGTH(huart->Init.WordLength));
  assert_param(IS_UART_OVERSAMPLING(huart->Init.OverSampling));

  if (huart->gState == HAL_UART_STATE_RESET)
 80081e2:	687b      	ldr	r3, [r7, #4]
 80081e4:	f893 3041 	ldrb.w	r3, [r3, #65]	; 0x41
 80081e8:	b2db      	uxtb	r3, r3
 80081ea:	2b00      	cmp	r3, #0
 80081ec:	d106      	bne.n	80081fc <HAL_UART_Init+0x2c>
  {
    /* Allocate lock resource and initialize it */
    huart->Lock = HAL_UNLOCKED;
 80081ee:	687b      	ldr	r3, [r7, #4]
 80081f0:	2200      	movs	r2, #0
 80081f2:	f883 2040 	strb.w	r2, [r3, #64]	; 0x40

    /* Init the low level hardware */
    huart->MspInitCallback(huart);
#else
    /* Init the low level hardware : GPIO, CLOCK */
    HAL_UART_MspInit(huart);
 80081f6:	6878      	ldr	r0, [r7, #4]
 80081f8:	f7fa fc64 	bl	8002ac4 <HAL_UART_MspInit>
#endif /* (USE_HAL_UART_REGISTER_CALLBACKS) */
  }

  huart->gState = HAL_UART_STATE_BUSY;
 80081fc:	687b      	ldr	r3, [r7, #4]
 80081fe:	2224      	movs	r2, #36	; 0x24
 8008200:	f883 2041 	strb.w	r2, [r3, #65]	; 0x41

  /* Disable the peripheral */
  __HAL_UART_DISABLE(huart);
 8008204:	687b      	ldr	r3, [r7, #4]
 8008206:	681b      	ldr	r3, [r3, #0]
 8008208:	68da      	ldr	r2, [r3, #12]
 800820a:	687b      	ldr	r3, [r7, #4]
 800820c:	681b      	ldr	r3, [r3, #0]
 800820e:	f422 5200 	bic.w	r2, r2, #8192	; 0x2000
 8008212:	60da      	str	r2, [r3, #12]

  /* Set the UART Communication parameters */
  UART_SetConfig(huart);
 8008214:	6878      	ldr	r0, [r7, #4]
 8008216:	f000 fdbd 	bl	8008d94 <UART_SetConfig>

  /* In asynchronous mode, the following bits must be kept cleared:
     - LINEN and CLKEN bits in the USART_CR2 register,
     - SCEN, HDSEL and IREN  bits in the USART_CR3 register.*/
  CLEAR_BIT(huart->Instance->CR2, (USART_CR2_LINEN | USART_CR2_CLKEN));
 800821a:	687b      	ldr	r3, [r7, #4]
 800821c:	681b      	ldr	r3, [r3, #0]
 800821e:	691a      	ldr	r2, [r3, #16]
 8008220:	687b      	ldr	r3, [r7, #4]
 8008222:	681b      	ldr	r3, [r3, #0]
 8008224:	f422 4290 	bic.w	r2, r2, #18432	; 0x4800
 8008228:	611a      	str	r2, [r3, #16]
  CLEAR_BIT(huart->Instance->CR3, (USART_CR3_SCEN | USART_CR3_HDSEL | USART_CR3_IREN));
 800822a:	687b      	ldr	r3, [r7, #4]
 800822c:	681b      	ldr	r3, [r3, #0]
 800822e:	695a      	ldr	r2, [r3, #20]
 8008230:	687b      	ldr	r3, [r7, #4]
 8008232:	681b      	ldr	r3, [r3, #0]
 8008234:	f022 022a 	bic.w	r2, r2, #42	; 0x2a
 8008238:	615a      	str	r2, [r3, #20]

  /* Enable the peripheral */
  __HAL_UART_ENABLE(huart);
 800823a:	687b      	ldr	r3, [r7, #4]
 800823c:	681b      	ldr	r3, [r3, #0]
 800823e:	68da      	ldr	r2, [r3, #12]
 8008240:	687b      	ldr	r3, [r7, #4]
 8008242:	681b      	ldr	r3, [r3, #0]
 8008244:	f442 5200 	orr.w	r2, r2, #8192	; 0x2000
 8008248:	60da      	str	r2, [r3, #12]

  /* Initialize the UART state */
  huart->ErrorCode = HAL_UART_ERROR_NONE;
 800824a:	687b      	ldr	r3, [r7, #4]
 800824c:	2200      	movs	r2, #0
 800824e:	645a      	str	r2, [r3, #68]	; 0x44
  huart->gState = HAL_UART_STATE_READY;
 8008250:	687b      	ldr	r3, [r7, #4]
 8008252:	2220      	movs	r2, #32
 8008254:	f883 2041 	strb.w	r2, [r3, #65]	; 0x41
  huart->RxState = HAL_UART_STATE_READY;
 8008258:	687b      	ldr	r3, [r7, #4]
 800825a:	2220      	movs	r2, #32
 800825c:	f883 2042 	strb.w	r2, [r3, #66]	; 0x42
  huart->RxEventType = HAL_UART_RXEVENT_TC;
 8008260:	687b      	ldr	r3, [r7, #4]
 8008262:	2200      	movs	r2, #0
 8008264:	635a      	str	r2, [r3, #52]	; 0x34

  return HAL_OK;
 8008266:	2300      	movs	r3, #0
}
 8008268:	4618      	mov	r0, r3
 800826a:	3708      	adds	r7, #8
 800826c:	46bd      	mov	sp, r7
 800826e:	bd80      	pop	{r7, pc}

08008270 <HAL_UART_Transmit>:
  * @param  Size  Amount of data elements (u8 or u16) to be sent
  * @param  Timeout Timeout duration
  * @retval HAL status
  */
HAL_StatusTypeDef HAL_UART_Transmit(UART_HandleTypeDef *huart, const uint8_t *pData, uint16_t Size, uint32_t Timeout)
{
 8008270:	b580      	push	{r7, lr}
 8008272:	b08a      	sub	sp, #40	; 0x28
 8008274:	af02      	add	r7, sp, #8
 8008276:	60f8      	str	r0, [r7, #12]
 8008278:	60b9      	str	r1, [r7, #8]
 800827a:	603b      	str	r3, [r7, #0]
 800827c:	4613      	mov	r3, r2
 800827e:	80fb      	strh	r3, [r7, #6]
  const uint8_t  *pdata8bits;
  const uint16_t *pdata16bits;
  uint32_t tickstart = 0U;
 8008280:	2300      	movs	r3, #0
 8008282:	617b      	str	r3, [r7, #20]

  /* Check that a Tx process is not already ongoing */
  if (huart->gState == HAL_UART_STATE_READY)
 8008284:	68fb      	ldr	r3, [r7, #12]
 8008286:	f893 3041 	ldrb.w	r3, [r3, #65]	; 0x41
 800828a:	b2db      	uxtb	r3, r3
 800828c:	2b20      	cmp	r3, #32
 800828e:	d175      	bne.n	800837c <HAL_UART_Transmit+0x10c>
  {
    if ((pData == NULL) || (Size == 0U))
 8008290:	68bb      	ldr	r3, [r7, #8]
 8008292:	2b00      	cmp	r3, #0
 8008294:	d002      	beq.n	800829c <HAL_UART_Transmit+0x2c>
 8008296:	88fb      	ldrh	r3, [r7, #6]
 8008298:	2b00      	cmp	r3, #0
 800829a:	d101      	bne.n	80082a0 <HAL_UART_Transmit+0x30>
    {
      return  HAL_ERROR;
 800829c:	2301      	movs	r3, #1
 800829e:	e06e      	b.n	800837e <HAL_UART_Transmit+0x10e>
    }

    huart->ErrorCode = HAL_UART_ERROR_NONE;
 80082a0:	68fb      	ldr	r3, [r7, #12]
 80082a2:	2200      	movs	r2, #0
 80082a4:	645a      	str	r2, [r3, #68]	; 0x44
    huart->gState = HAL_UART_STATE_BUSY_TX;
 80082a6:	68fb      	ldr	r3, [r7, #12]
 80082a8:	2221      	movs	r2, #33	; 0x21
 80082aa:	f883 2041 	strb.w	r2, [r3, #65]	; 0x41

    /* Init tickstart for timeout management */
    tickstart = HAL_GetTick();
 80082ae:	f7fa fe15 	bl	8002edc <HAL_GetTick>
 80082b2:	6178      	str	r0, [r7, #20]

    huart->TxXferSize = Size;
 80082b4:	68fb      	ldr	r3, [r7, #12]
 80082b6:	88fa      	ldrh	r2, [r7, #6]
 80082b8:	849a      	strh	r2, [r3, #36]	; 0x24
    huart->TxXferCount = Size;
 80082ba:	68fb      	ldr	r3, [r7, #12]
 80082bc:	88fa      	ldrh	r2, [r7, #6]
 80082be:	84da      	strh	r2, [r3, #38]	; 0x26

    /* In case of 9bits/No Parity transfer, pData needs to be handled as a uint16_t pointer */
    if ((huart->Init.WordLength == UART_WORDLENGTH_9B) && (huart->Init.Parity == UART_PARITY_NONE))
 80082c0:	68fb      	ldr	r3, [r7, #12]
 80082c2:	689b      	ldr	r3, [r3, #8]
 80082c4:	f5b3 5f80 	cmp.w	r3, #4096	; 0x1000
 80082c8:	d108      	bne.n	80082dc <HAL_UART_Transmit+0x6c>
 80082ca:	68fb      	ldr	r3, [r7, #12]
 80082cc:	691b      	ldr	r3, [r3, #16]
 80082ce:	2b00      	cmp	r3, #0
 80082d0:	d104      	bne.n	80082dc <HAL_UART_Transmit+0x6c>
    {
      pdata8bits  = NULL;
 80082d2:	2300      	movs	r3, #0
 80082d4:	61fb      	str	r3, [r7, #28]
      pdata16bits = (const uint16_t *) pData;
 80082d6:	68bb      	ldr	r3, [r7, #8]
 80082d8:	61bb      	str	r3, [r7, #24]
 80082da:	e003      	b.n	80082e4 <HAL_UART_Transmit+0x74>
    }
    else
    {
      pdata8bits  = pData;
 80082dc:	68bb      	ldr	r3, [r7, #8]
 80082de:	61fb      	str	r3, [r7, #28]
      pdata16bits = NULL;
 80082e0:	2300      	movs	r3, #0
 80082e2:	61bb      	str	r3, [r7, #24]
    }

    while (huart->TxXferCount > 0U)
 80082e4:	e02e      	b.n	8008344 <HAL_UART_Transmit+0xd4>
    {
      if (UART_WaitOnFlagUntilTimeout(huart, UART_FLAG_TXE, RESET, tickstart, Timeout) != HAL_OK)
 80082e6:	683b      	ldr	r3, [r7, #0]
 80082e8:	9300      	str	r3, [sp, #0]
 80082ea:	697b      	ldr	r3, [r7, #20]
 80082ec:	2200      	movs	r2, #0
 80082ee:	2180      	movs	r1, #128	; 0x80
 80082f0:	68f8      	ldr	r0, [r7, #12]
 80082f2:	f000 fb1f 	bl	8008934 <UART_WaitOnFlagUntilTimeout>
 80082f6:	4603      	mov	r3, r0
 80082f8:	2b00      	cmp	r3, #0
 80082fa:	d005      	beq.n	8008308 <HAL_UART_Transmit+0x98>
      {
        huart->gState = HAL_UART_STATE_READY;
 80082fc:	68fb      	ldr	r3, [r7, #12]
 80082fe:	2220      	movs	r2, #32
 8008300:	f883 2041 	strb.w	r2, [r3, #65]	; 0x41

        return HAL_TIMEOUT;
 8008304:	2303      	movs	r3, #3
 8008306:	e03a      	b.n	800837e <HAL_UART_Transmit+0x10e>
      }
      if (pdata8bits == NULL)
 8008308:	69fb      	ldr	r3, [r7, #28]
 800830a:	2b00      	cmp	r3, #0
 800830c:	d10b      	bne.n	8008326 <HAL_UART_Transmit+0xb6>
      {
        huart->Instance->DR = (uint16_t)(*pdata16bits & 0x01FFU);
 800830e:	69bb      	ldr	r3, [r7, #24]
 8008310:	881b      	ldrh	r3, [r3, #0]
 8008312:	461a      	mov	r2, r3
 8008314:	68fb      	ldr	r3, [r7, #12]
 8008316:	681b      	ldr	r3, [r3, #0]
 8008318:	f3c2 0208 	ubfx	r2, r2, #0, #9
 800831c:	605a      	str	r2, [r3, #4]
        pdata16bits++;
 800831e:	69bb      	ldr	r3, [r7, #24]
 8008320:	3302      	adds	r3, #2
 8008322:	61bb      	str	r3, [r7, #24]
 8008324:	e007      	b.n	8008336 <HAL_UART_Transmit+0xc6>
      }
      else
      {
        huart->Instance->DR = (uint8_t)(*pdata8bits & 0xFFU);
 8008326:	69fb      	ldr	r3, [r7, #28]
 8008328:	781a      	ldrb	r2, [r3, #0]
 800832a:	68fb      	ldr	r3, [r7, #12]
 800832c:	681b      	ldr	r3, [r3, #0]
 800832e:	605a      	str	r2, [r3, #4]
        pdata8bits++;
 8008330:	69fb      	ldr	r3, [r7, #28]
 8008332:	3301      	adds	r3, #1
 8008334:	61fb      	str	r3, [r7, #28]
      }
      huart->TxXferCount--;
 8008336:	68fb      	ldr	r3, [r7, #12]
 8008338:	8cdb      	ldrh	r3, [r3, #38]	; 0x26
 800833a:	b29b      	uxth	r3, r3
 800833c:	3b01      	subs	r3, #1
 800833e:	b29a      	uxth	r2, r3
 8008340:	68fb      	ldr	r3, [r7, #12]
 8008342:	84da      	strh	r2, [r3, #38]	; 0x26
    while (huart->TxXferCount > 0U)
 8008344:	68fb      	ldr	r3, [r7, #12]
 8008346:	8cdb      	ldrh	r3, [r3, #38]	; 0x26
 8008348:	b29b      	uxth	r3, r3
 800834a:	2b00      	cmp	r3, #0
 800834c:	d1cb      	bne.n	80082e6 <HAL_UART_Transmit+0x76>
    }

    if (UART_WaitOnFlagUntilTimeout(huart, UART_FLAG_TC, RESET, tickstart, Timeout) != HAL_OK)
 800834e:	683b      	ldr	r3, [r7, #0]
 8008350:	9300      	str	r3, [sp, #0]
 8008352:	697b      	ldr	r3, [r7, #20]
 8008354:	2200      	movs	r2, #0
 8008356:	2140      	movs	r1, #64	; 0x40
 8008358:	68f8      	ldr	r0, [r7, #12]
 800835a:	f000 faeb 	bl	8008934 <UART_WaitOnFlagUntilTimeout>
 800835e:	4603      	mov	r3, r0
 8008360:	2b00      	cmp	r3, #0
 8008362:	d005      	beq.n	8008370 <HAL_UART_Transmit+0x100>
    {
      huart->gState = HAL_UART_STATE_READY;
 8008364:	68fb      	ldr	r3, [r7, #12]
 8008366:	2220      	movs	r2, #32
 8008368:	f883 2041 	strb.w	r2, [r3, #65]	; 0x41

      return HAL_TIMEOUT;
 800836c:	2303      	movs	r3, #3
 800836e:	e006      	b.n	800837e <HAL_UART_Transmit+0x10e>
    }

    /* At end of Tx process, restore huart->gState to Ready */
    huart->gState = HAL_UART_STATE_READY;
 8008370:	68fb      	ldr	r3, [r7, #12]
 8008372:	2220      	movs	r2, #32
 8008374:	f883 2041 	strb.w	r2, [r3, #65]	; 0x41

    return HAL_OK;
 8008378:	2300      	movs	r3, #0
 800837a:	e000      	b.n	800837e <HAL_UART_Transmit+0x10e>
  }
  else
  {
    return HAL_BUSY;
 800837c:	2302      	movs	r3, #2
  }
}
 800837e:	4618      	mov	r0, r3
 8008380:	3720      	adds	r7, #32
 8008382:	46bd      	mov	sp, r7
 8008384:	bd80      	pop	{r7, pc}

08008386 <HAL_UART_Receive_IT>:
  * @param  pData Pointer to data buffer (u8 or u16 data elements).
  * @param  Size  Amount of data elements (u8 or u16) to be received.
  * @retval HAL status
  */
HAL_StatusTypeDef HAL_UART_Receive_IT(UART_HandleTypeDef *huart, uint8_t *pData, uint16_t Size)
{
 8008386:	b580      	push	{r7, lr}
 8008388:	b084      	sub	sp, #16
 800838a:	af00      	add	r7, sp, #0
 800838c:	60f8      	str	r0, [r7, #12]
 800838e:	60b9      	str	r1, [r7, #8]
 8008390:	4613      	mov	r3, r2
 8008392:	80fb      	strh	r3, [r7, #6]
  /* Check that a Rx process is not already ongoing */
  if (huart->RxState == HAL_UART_STATE_READY)
 8008394:	68fb      	ldr	r3, [r7, #12]
 8008396:	f893 3042 	ldrb.w	r3, [r3, #66]	; 0x42
 800839a:	b2db      	uxtb	r3, r3
 800839c:	2b20      	cmp	r3, #32
 800839e:	d112      	bne.n	80083c6 <HAL_UART_Receive_IT+0x40>
  {
    if ((pData == NULL) || (Size == 0U))
 80083a0:	68bb      	ldr	r3, [r7, #8]
 80083a2:	2b00      	cmp	r3, #0
 80083a4:	d002      	beq.n	80083ac <HAL_UART_Receive_IT+0x26>
 80083a6:	88fb      	ldrh	r3, [r7, #6]
 80083a8:	2b00      	cmp	r3, #0
 80083aa:	d101      	bne.n	80083b0 <HAL_UART_Receive_IT+0x2a>
    {
      return HAL_ERROR;
 80083ac:	2301      	movs	r3, #1
 80083ae:	e00b      	b.n	80083c8 <HAL_UART_Receive_IT+0x42>
    }

    /* Set Reception type to Standard reception */
    huart->ReceptionType = HAL_UART_RECEPTION_STANDARD;
 80083b0:	68fb      	ldr	r3, [r7, #12]
 80083b2:	2200      	movs	r2, #0
 80083b4:	631a      	str	r2, [r3, #48]	; 0x30

    return (UART_Start_Receive_IT(huart, pData, Size));
 80083b6:	88fb      	ldrh	r3, [r7, #6]
 80083b8:	461a      	mov	r2, r3
 80083ba:	68b9      	ldr	r1, [r7, #8]
 80083bc:	68f8      	ldr	r0, [r7, #12]
 80083be:	f000 fb12 	bl	80089e6 <UART_Start_Receive_IT>
 80083c2:	4603      	mov	r3, r0
 80083c4:	e000      	b.n	80083c8 <HAL_UART_Receive_IT+0x42>
  }
  else
  {
    return HAL_BUSY;
 80083c6:	2302      	movs	r3, #2
  }
}
 80083c8:	4618      	mov	r0, r3
 80083ca:	3710      	adds	r7, #16
 80083cc:	46bd      	mov	sp, r7
 80083ce:	bd80      	pop	{r7, pc}

080083d0 <HAL_UART_IRQHandler>:
  * @param  huart  Pointer to a UART_HandleTypeDef structure that contains
  *                the configuration information for the specified UART module.
  * @retval None
  */
void HAL_UART_IRQHandler(UART_HandleTypeDef *huart)
{
 80083d0:	b580      	push	{r7, lr}
 80083d2:	b0ba      	sub	sp, #232	; 0xe8
 80083d4:	af00      	add	r7, sp, #0
 80083d6:	6078      	str	r0, [r7, #4]
  uint32_t isrflags   = READ_REG(huart->Instance->SR);
 80083d8:	687b      	ldr	r3, [r7, #4]
 80083da:	681b      	ldr	r3, [r3, #0]
 80083dc:	681b      	ldr	r3, [r3, #0]
 80083de:	f8c7 30e4 	str.w	r3, [r7, #228]	; 0xe4
  uint32_t cr1its     = READ_REG(huart->Instance->CR1);
 80083e2:	687b      	ldr	r3, [r7, #4]
 80083e4:	681b      	ldr	r3, [r3, #0]
 80083e6:	68db      	ldr	r3, [r3, #12]
 80083e8:	f8c7 30e0 	str.w	r3, [r7, #224]	; 0xe0
  uint32_t cr3its     = READ_REG(huart->Instance->CR3);
 80083ec:	687b      	ldr	r3, [r7, #4]
 80083ee:	681b      	ldr	r3, [r3, #0]
 80083f0:	695b      	ldr	r3, [r3, #20]
 80083f2:	f8c7 30dc 	str.w	r3, [r7, #220]	; 0xdc
  uint32_t errorflags = 0x00U;
 80083f6:	2300      	movs	r3, #0
 80083f8:	f8c7 30d8 	str.w	r3, [r7, #216]	; 0xd8
  uint32_t dmarequest = 0x00U;
 80083fc:	2300      	movs	r3, #0
 80083fe:	f8c7 30d4 	str.w	r3, [r7, #212]	; 0xd4

  /* If no error occurs */
  errorflags = (isrflags & (uint32_t)(USART_SR_PE | USART_SR_FE | USART_SR_ORE | USART_SR_NE));
 8008402:	f8d7 30e4 	ldr.w	r3, [r7, #228]	; 0xe4
 8008406:	f003 030f 	and.w	r3, r3, #15
 800840a:	f8c7 30d8 	str.w	r3, [r7, #216]	; 0xd8
  if (errorflags == RESET)
 800840e:	f8d7 30d8 	ldr.w	r3, [r7, #216]	; 0xd8
 8008412:	2b00      	cmp	r3, #0
 8008414:	d10f      	bne.n	8008436 <HAL_UART_IRQHandler+0x66>
  {
    /* UART in mode Receiver -------------------------------------------------*/
    if (((isrflags & USART_SR_RXNE) != RESET) && ((cr1its & USART_CR1_RXNEIE) != RESET))
 8008416:	f8d7 30e4 	ldr.w	r3, [r7, #228]	; 0xe4
 800841a:	f003 0320 	and.w	r3, r3, #32
 800841e:	2b00      	cmp	r3, #0
 8008420:	d009      	beq.n	8008436 <HAL_UART_IRQHandler+0x66>
 8008422:	f8d7 30e0 	ldr.w	r3, [r7, #224]	; 0xe0
 8008426:	f003 0320 	and.w	r3, r3, #32
 800842a:	2b00      	cmp	r3, #0
 800842c:	d003      	beq.n	8008436 <HAL_UART_IRQHandler+0x66>
    {
      UART_Receive_IT(huart);
 800842e:	6878      	ldr	r0, [r7, #4]
 8008430:	f000 fbf2 	bl	8008c18 <UART_Receive_IT>
      return;
 8008434:	e25b      	b.n	80088ee <HAL_UART_IRQHandler+0x51e>
    }
  }

  /* If some errors occur */
  if ((errorflags != RESET) && (((cr3its & USART_CR3_EIE) != RESET)
 8008436:	f8d7 30d8 	ldr.w	r3, [r7, #216]	; 0xd8
 800843a:	2b00      	cmp	r3, #0
 800843c:	f000 80de 	beq.w	80085fc <HAL_UART_IRQHandler+0x22c>
 8008440:	f8d7 30dc 	ldr.w	r3, [r7, #220]	; 0xdc
 8008444:	f003 0301 	and.w	r3, r3, #1
 8008448:	2b00      	cmp	r3, #0
 800844a:	d106      	bne.n	800845a <HAL_UART_IRQHandler+0x8a>
                                || ((cr1its & (USART_CR1_RXNEIE | USART_CR1_PEIE)) != RESET)))
 800844c:	f8d7 30e0 	ldr.w	r3, [r7, #224]	; 0xe0
 8008450:	f403 7390 	and.w	r3, r3, #288	; 0x120
 8008454:	2b00      	cmp	r3, #0
 8008456:	f000 80d1 	beq.w	80085fc <HAL_UART_IRQHandler+0x22c>
  {
    /* UART parity error interrupt occurred ----------------------------------*/
    if (((isrflags & USART_SR_PE) != RESET) && ((cr1its & USART_CR1_PEIE) != RESET))
 800845a:	f8d7 30e4 	ldr.w	r3, [r7, #228]	; 0xe4
 800845e:	f003 0301 	and.w	r3, r3, #1
 8008462:	2b00      	cmp	r3, #0
 8008464:	d00b      	beq.n	800847e <HAL_UART_IRQHandler+0xae>
 8008466:	f8d7 30e0 	ldr.w	r3, [r7, #224]	; 0xe0
 800846a:	f403 7380 	and.w	r3, r3, #256	; 0x100
 800846e:	2b00      	cmp	r3, #0
 8008470:	d005      	beq.n	800847e <HAL_UART_IRQHandler+0xae>
    {
      huart->ErrorCode |= HAL_UART_ERROR_PE;
 8008472:	687b      	ldr	r3, [r7, #4]
 8008474:	6c5b      	ldr	r3, [r3, #68]	; 0x44
 8008476:	f043 0201 	orr.w	r2, r3, #1
 800847a:	687b      	ldr	r3, [r7, #4]
 800847c:	645a      	str	r2, [r3, #68]	; 0x44
    }

    /* UART noise error interrupt occurred -----------------------------------*/
    if (((isrflags & USART_SR_NE) != RESET) && ((cr3its & USART_CR3_EIE) != RESET))
 800847e:	f8d7 30e4 	ldr.w	r3, [r7, #228]	; 0xe4
 8008482:	f003 0304 	and.w	r3, r3, #4
 8008486:	2b00      	cmp	r3, #0
 8008488:	d00b      	beq.n	80084a2 <HAL_UART_IRQHandler+0xd2>
 800848a:	f8d7 30dc 	ldr.w	r3, [r7, #220]	; 0xdc
 800848e:	f003 0301 	and.w	r3, r3, #1
 8008492:	2b00      	cmp	r3, #0
 8008494:	d005      	beq.n	80084a2 <HAL_UART_IRQHandler+0xd2>
    {
      huart->ErrorCode |= HAL_UART_ERROR_NE;
 8008496:	687b      	ldr	r3, [r7, #4]
 8008498:	6c5b      	ldr	r3, [r3, #68]	; 0x44
 800849a:	f043 0202 	orr.w	r2, r3, #2
 800849e:	687b      	ldr	r3, [r7, #4]
 80084a0:	645a      	str	r2, [r3, #68]	; 0x44
    }

    /* UART frame error interrupt occurred -----------------------------------*/
    if (((isrflags & USART_SR_FE) != RESET) && ((cr3its & USART_CR3_EIE) != RESET))
 80084a2:	f8d7 30e4 	ldr.w	r3, [r7, #228]	; 0xe4
 80084a6:	f003 0302 	and.w	r3, r3, #2
 80084aa:	2b00      	cmp	r3, #0
 80084ac:	d00b      	beq.n	80084c6 <HAL_UART_IRQHandler+0xf6>
 80084ae:	f8d7 30dc 	ldr.w	r3, [r7, #220]	; 0xdc
 80084b2:	f003 0301 	and.w	r3, r3, #1
 80084b6:	2b00      	cmp	r3, #0
 80084b8:	d005      	beq.n	80084c6 <HAL_UART_IRQHandler+0xf6>
    {
      huart->ErrorCode |= HAL_UART_ERROR_FE;
 80084ba:	687b      	ldr	r3, [r7, #4]
 80084bc:	6c5b      	ldr	r3, [r3, #68]	; 0x44
 80084be:	f043 0204 	orr.w	r2, r3, #4
 80084c2:	687b      	ldr	r3, [r7, #4]
 80084c4:	645a      	str	r2, [r3, #68]	; 0x44
    }

    /* UART Over-Run interrupt occurred --------------------------------------*/
    if (((isrflags & USART_SR_ORE) != RESET) && (((cr1its & USART_CR1_RXNEIE) != RESET)
 80084c6:	f8d7 30e4 	ldr.w	r3, [r7, #228]	; 0xe4
 80084ca:	f003 0308 	and.w	r3, r3, #8
 80084ce:	2b00      	cmp	r3, #0
 80084d0:	d011      	beq.n	80084f6 <HAL_UART_IRQHandler+0x126>
 80084d2:	f8d7 30e0 	ldr.w	r3, [r7, #224]	; 0xe0
 80084d6:	f003 0320 	and.w	r3, r3, #32
 80084da:	2b00      	cmp	r3, #0
 80084dc:	d105      	bne.n	80084ea <HAL_UART_IRQHandler+0x11a>
                                                 || ((cr3its & USART_CR3_EIE) != RESET)))
 80084de:	f8d7 30dc 	ldr.w	r3, [r7, #220]	; 0xdc
 80084e2:	f003 0301 	and.w	r3, r3, #1
 80084e6:	2b00      	cmp	r3, #0
 80084e8:	d005      	beq.n	80084f6 <HAL_UART_IRQHandler+0x126>
    {
      huart->ErrorCode |= HAL_UART_ERROR_ORE;
 80084ea:	687b      	ldr	r3, [r7, #4]
 80084ec:	6c5b      	ldr	r3, [r3, #68]	; 0x44
 80084ee:	f043 0208 	orr.w	r2, r3, #8
 80084f2:	687b      	ldr	r3, [r7, #4]
 80084f4:	645a      	str	r2, [r3, #68]	; 0x44
    }

    /* Call UART Error Call back function if need be --------------------------*/
    if (huart->ErrorCode != HAL_UART_ERROR_NONE)
 80084f6:	687b      	ldr	r3, [r7, #4]
 80084f8:	6c5b      	ldr	r3, [r3, #68]	; 0x44
 80084fa:	2b00      	cmp	r3, #0
 80084fc:	f000 81f2 	beq.w	80088e4 <HAL_UART_IRQHandler+0x514>
    {
      /* UART in mode Receiver -----------------------------------------------*/
      if (((isrflags & USART_SR_RXNE) != RESET) && ((cr1its & USART_CR1_RXNEIE) != RESET))
 8008500:	f8d7 30e4 	ldr.w	r3, [r7, #228]	; 0xe4
 8008504:	f003 0320 	and.w	r3, r3, #32
 8008508:	2b00      	cmp	r3, #0
 800850a:	d008      	beq.n	800851e <HAL_UART_IRQHandler+0x14e>
 800850c:	f8d7 30e0 	ldr.w	r3, [r7, #224]	; 0xe0
 8008510:	f003 0320 	and.w	r3, r3, #32
 8008514:	2b00      	cmp	r3, #0
 8008516:	d002      	beq.n	800851e <HAL_UART_IRQHandler+0x14e>
      {
        UART_Receive_IT(huart);
 8008518:	6878      	ldr	r0, [r7, #4]
 800851a:	f000 fb7d 	bl	8008c18 <UART_Receive_IT>
      }

      /* If Overrun error occurs, or if any error occurs in DMA mode reception,
         consider error as blocking */
      dmarequest = HAL_IS_BIT_SET(huart->Instance->CR3, USART_CR3_DMAR);
 800851e:	687b      	ldr	r3, [r7, #4]
 8008520:	681b      	ldr	r3, [r3, #0]
 8008522:	695b      	ldr	r3, [r3, #20]
 8008524:	f003 0340 	and.w	r3, r3, #64	; 0x40
 8008528:	2b40      	cmp	r3, #64	; 0x40
 800852a:	bf0c      	ite	eq
 800852c:	2301      	moveq	r3, #1
 800852e:	2300      	movne	r3, #0
 8008530:	b2db      	uxtb	r3, r3
 8008532:	f8c7 30d4 	str.w	r3, [r7, #212]	; 0xd4
      if (((huart->ErrorCode & HAL_UART_ERROR_ORE) != RESET) || dmarequest)
 8008536:	687b      	ldr	r3, [r7, #4]
 8008538:	6c5b      	ldr	r3, [r3, #68]	; 0x44
 800853a:	f003 0308 	and.w	r3, r3, #8
 800853e:	2b00      	cmp	r3, #0
 8008540:	d103      	bne.n	800854a <HAL_UART_IRQHandler+0x17a>
 8008542:	f8d7 30d4 	ldr.w	r3, [r7, #212]	; 0xd4
 8008546:	2b00      	cmp	r3, #0
 8008548:	d04f      	beq.n	80085ea <HAL_UART_IRQHandler+0x21a>
      {
        /* Blocking error : transfer is aborted
           Set the UART state ready to be able to start again the process,
           Disable Rx Interrupts, and disable Rx DMA request, if ongoing */
        UART_EndRxTransfer(huart);
 800854a:	6878      	ldr	r0, [r7, #4]
 800854c:	f000 fa85 	bl	8008a5a <UART_EndRxTransfer>

        /* Disable the UART DMA Rx request if enabled */
        if (HAL_IS_BIT_SET(huart->Instance->CR3, USART_CR3_DMAR))
 8008550:	687b      	ldr	r3, [r7, #4]
 8008552:	681b      	ldr	r3, [r3, #0]
 8008554:	695b      	ldr	r3, [r3, #20]
 8008556:	f003 0340 	and.w	r3, r3, #64	; 0x40
 800855a:	2b40      	cmp	r3, #64	; 0x40
 800855c:	d141      	bne.n	80085e2 <HAL_UART_IRQHandler+0x212>
        {
          ATOMIC_CLEAR_BIT(huart->Instance->CR3, USART_CR3_DMAR);
 800855e:	687b      	ldr	r3, [r7, #4]
 8008560:	681b      	ldr	r3, [r3, #0]
 8008562:	3314      	adds	r3, #20
 8008564:	f8c7 309c 	str.w	r3, [r7, #156]	; 0x9c
   __ASM volatile ("ldrex %0, %1" : "=r" (result) : "Q" (*addr) );
 8008568:	f8d7 309c 	ldr.w	r3, [r7, #156]	; 0x9c
 800856c:	e853 3f00 	ldrex	r3, [r3]
 8008570:	f8c7 3098 	str.w	r3, [r7, #152]	; 0x98
   return(result);
 8008574:	f8d7 3098 	ldr.w	r3, [r7, #152]	; 0x98
 8008578:	f023 0340 	bic.w	r3, r3, #64	; 0x40
 800857c:	f8c7 30d0 	str.w	r3, [r7, #208]	; 0xd0
 8008580:	687b      	ldr	r3, [r7, #4]
 8008582:	681b      	ldr	r3, [r3, #0]
 8008584:	3314      	adds	r3, #20
 8008586:	f8d7 20d0 	ldr.w	r2, [r7, #208]	; 0xd0
 800858a:	f8c7 20a8 	str.w	r2, [r7, #168]	; 0xa8
 800858e:	f8c7 30a4 	str.w	r3, [r7, #164]	; 0xa4
   __ASM volatile ("strex %0, %2, %1" : "=&r" (result), "=Q" (*addr) : "r" (value) );
 8008592:	f8d7 10a4 	ldr.w	r1, [r7, #164]	; 0xa4
 8008596:	f8d7 20a8 	ldr.w	r2, [r7, #168]	; 0xa8
 800859a:	e841 2300 	strex	r3, r2, [r1]
 800859e:	f8c7 30a0 	str.w	r3, [r7, #160]	; 0xa0
   return(result);
 80085a2:	f8d7 30a0 	ldr.w	r3, [r7, #160]	; 0xa0
 80085a6:	2b00      	cmp	r3, #0
 80085a8:	d1d9      	bne.n	800855e <HAL_UART_IRQHandler+0x18e>

          /* Abort the UART DMA Rx stream */
          if (huart->hdmarx != NULL)
 80085aa:	687b      	ldr	r3, [r7, #4]
 80085ac:	6bdb      	ldr	r3, [r3, #60]	; 0x3c
 80085ae:	2b00      	cmp	r3, #0
 80085b0:	d013      	beq.n	80085da <HAL_UART_IRQHandler+0x20a>
          {
            /* Set the UART DMA Abort callback :
               will lead to call HAL_UART_ErrorCallback() at end of DMA abort procedure */
            huart->hdmarx->XferAbortCallback = UART_DMAAbortOnError;
 80085b2:	687b      	ldr	r3, [r7, #4]
 80085b4:	6bdb      	ldr	r3, [r3, #60]	; 0x3c
 80085b6:	4a7e      	ldr	r2, [pc, #504]	; (80087b0 <HAL_UART_IRQHandler+0x3e0>)
 80085b8:	651a      	str	r2, [r3, #80]	; 0x50
            if (HAL_DMA_Abort_IT(huart->hdmarx) != HAL_OK)
 80085ba:	687b      	ldr	r3, [r7, #4]
 80085bc:	6bdb      	ldr	r3, [r3, #60]	; 0x3c
 80085be:	4618      	mov	r0, r3
 80085c0:	f7fb fdac 	bl	800411c <HAL_DMA_Abort_IT>
 80085c4:	4603      	mov	r3, r0
 80085c6:	2b00      	cmp	r3, #0
 80085c8:	d016      	beq.n	80085f8 <HAL_UART_IRQHandler+0x228>
            {
              /* Call Directly XferAbortCallback function in case of error */
              huart->hdmarx->XferAbortCallback(huart->hdmarx);
 80085ca:	687b      	ldr	r3, [r7, #4]
 80085cc:	6bdb      	ldr	r3, [r3, #60]	; 0x3c
 80085ce:	6d1b      	ldr	r3, [r3, #80]	; 0x50
 80085d0:	687a      	ldr	r2, [r7, #4]
 80085d2:	6bd2      	ldr	r2, [r2, #60]	; 0x3c
 80085d4:	4610      	mov	r0, r2
 80085d6:	4798      	blx	r3
        if (HAL_IS_BIT_SET(huart->Instance->CR3, USART_CR3_DMAR))
 80085d8:	e00e      	b.n	80085f8 <HAL_UART_IRQHandler+0x228>
#if (USE_HAL_UART_REGISTER_CALLBACKS == 1)
            /*Call registered error callback*/
            huart->ErrorCallback(huart);
#else
            /*Call legacy weak error callback*/
            HAL_UART_ErrorCallback(huart);
 80085da:	6878      	ldr	r0, [r7, #4]
 80085dc:	f000 f994 	bl	8008908 <HAL_UART_ErrorCallback>
        if (HAL_IS_BIT_SET(huart->Instance->CR3, USART_CR3_DMAR))
 80085e0:	e00a      	b.n	80085f8 <HAL_UART_IRQHandler+0x228>
#if (USE_HAL_UART_REGISTER_CALLBACKS == 1)
          /*Call registered error callback*/
          huart->ErrorCallback(huart);
#else
          /*Call legacy weak error callback*/
          HAL_UART_ErrorCallback(huart);
 80085e2:	6878      	ldr	r0, [r7, #4]
 80085e4:	f000 f990 	bl	8008908 <HAL_UART_ErrorCallback>
        if (HAL_IS_BIT_SET(huart->Instance->CR3, USART_CR3_DMAR))
 80085e8:	e006      	b.n	80085f8 <HAL_UART_IRQHandler+0x228>
#if (USE_HAL_UART_REGISTER_CALLBACKS == 1)
        /*Call registered error callback*/
        huart->ErrorCallback(huart);
#else
        /*Call legacy weak error callback*/
        HAL_UART_ErrorCallback(huart);
 80085ea:	6878      	ldr	r0, [r7, #4]
 80085ec:	f000 f98c 	bl	8008908 <HAL_UART_ErrorCallback>
#endif /* USE_HAL_UART_REGISTER_CALLBACKS */

        huart->ErrorCode = HAL_UART_ERROR_NONE;
 80085f0:	687b      	ldr	r3, [r7, #4]
 80085f2:	2200      	movs	r2, #0
 80085f4:	645a      	str	r2, [r3, #68]	; 0x44
      }
    }
    return;
 80085f6:	e175      	b.n	80088e4 <HAL_UART_IRQHandler+0x514>
        if (HAL_IS_BIT_SET(huart->Instance->CR3, USART_CR3_DMAR))
 80085f8:	bf00      	nop
    return;
 80085fa:	e173      	b.n	80088e4 <HAL_UART_IRQHandler+0x514>
  } /* End if some error occurs */

  /* Check current reception Mode :
     If Reception till IDLE event has been selected : */
  if ((huart->ReceptionType == HAL_UART_RECEPTION_TOIDLE)
 80085fc:	687b      	ldr	r3, [r7, #4]
 80085fe:	6b1b      	ldr	r3, [r3, #48]	; 0x30
 8008600:	2b01      	cmp	r3, #1
 8008602:	f040 814f 	bne.w	80088a4 <HAL_UART_IRQHandler+0x4d4>
      && ((isrflags & USART_SR_IDLE) != 0U)
 8008606:	f8d7 30e4 	ldr.w	r3, [r7, #228]	; 0xe4
 800860a:	f003 0310 	and.w	r3, r3, #16
 800860e:	2b00      	cmp	r3, #0
 8008610:	f000 8148 	beq.w	80088a4 <HAL_UART_IRQHandler+0x4d4>
      && ((cr1its & USART_SR_IDLE) != 0U))
 8008614:	f8d7 30e0 	ldr.w	r3, [r7, #224]	; 0xe0
 8008618:	f003 0310 	and.w	r3, r3, #16
 800861c:	2b00      	cmp	r3, #0
 800861e:	f000 8141 	beq.w	80088a4 <HAL_UART_IRQHandler+0x4d4>
  {
    __HAL_UART_CLEAR_IDLEFLAG(huart);
 8008622:	2300      	movs	r3, #0
 8008624:	60bb      	str	r3, [r7, #8]
 8008626:	687b      	ldr	r3, [r7, #4]
 8008628:	681b      	ldr	r3, [r3, #0]
 800862a:	681b      	ldr	r3, [r3, #0]
 800862c:	60bb      	str	r3, [r7, #8]
 800862e:	687b      	ldr	r3, [r7, #4]
 8008630:	681b      	ldr	r3, [r3, #0]
 8008632:	685b      	ldr	r3, [r3, #4]
 8008634:	60bb      	str	r3, [r7, #8]
 8008636:	68bb      	ldr	r3, [r7, #8]

    /* Check if DMA mode is enabled in UART */
    if (HAL_IS_BIT_SET(huart->Instance->CR3, USART_CR3_DMAR))
 8008638:	687b      	ldr	r3, [r7, #4]
 800863a:	681b      	ldr	r3, [r3, #0]
 800863c:	695b      	ldr	r3, [r3, #20]
 800863e:	f003 0340 	and.w	r3, r3, #64	; 0x40
 8008642:	2b40      	cmp	r3, #64	; 0x40
 8008644:	f040 80b6 	bne.w	80087b4 <HAL_UART_IRQHandler+0x3e4>
    {
      /* DMA mode enabled */
      /* Check received length : If all expected data are received, do nothing,
         (DMA cplt callback will be called).
         Otherwise, if at least one data has already been received, IDLE event is to be notified to user */
      uint16_t nb_remaining_rx_data = (uint16_t) __HAL_DMA_GET_COUNTER(huart->hdmarx);
 8008648:	687b      	ldr	r3, [r7, #4]
 800864a:	6bdb      	ldr	r3, [r3, #60]	; 0x3c
 800864c:	681b      	ldr	r3, [r3, #0]
 800864e:	685b      	ldr	r3, [r3, #4]
 8008650:	f8a7 30be 	strh.w	r3, [r7, #190]	; 0xbe
      if ((nb_remaining_rx_data > 0U)
 8008654:	f8b7 30be 	ldrh.w	r3, [r7, #190]	; 0xbe
 8008658:	2b00      	cmp	r3, #0
 800865a:	f000 8145 	beq.w	80088e8 <HAL_UART_IRQHandler+0x518>
          && (nb_remaining_rx_data < huart->RxXferSize))
 800865e:	687b      	ldr	r3, [r7, #4]
 8008660:	8d9b      	ldrh	r3, [r3, #44]	; 0x2c
 8008662:	f8b7 20be 	ldrh.w	r2, [r7, #190]	; 0xbe
 8008666:	429a      	cmp	r2, r3
 8008668:	f080 813e 	bcs.w	80088e8 <HAL_UART_IRQHandler+0x518>
      {
        /* Reception is not complete */
        huart->RxXferCount = nb_remaining_rx_data;
 800866c:	687b      	ldr	r3, [r7, #4]
 800866e:	f8b7 20be 	ldrh.w	r2, [r7, #190]	; 0xbe
 8008672:	85da      	strh	r2, [r3, #46]	; 0x2e

        /* In Normal mode, end DMA xfer and HAL UART Rx process*/
        if (huart->hdmarx->Init.Mode != DMA_CIRCULAR)
 8008674:	687b      	ldr	r3, [r7, #4]
 8008676:	6bdb      	ldr	r3, [r3, #60]	; 0x3c
 8008678:	69db      	ldr	r3, [r3, #28]
 800867a:	f5b3 7f80 	cmp.w	r3, #256	; 0x100
 800867e:	f000 8088 	beq.w	8008792 <HAL_UART_IRQHandler+0x3c2>
        {
          /* Disable PE and ERR (Frame error, noise error, overrun error) interrupts */
          ATOMIC_CLEAR_BIT(huart->Instance->CR1, USART_CR1_PEIE);
 8008682:	687b      	ldr	r3, [r7, #4]
 8008684:	681b      	ldr	r3, [r3, #0]
 8008686:	330c      	adds	r3, #12
 8008688:	f8c7 3088 	str.w	r3, [r7, #136]	; 0x88
   __ASM volatile ("ldrex %0, %1" : "=r" (result) : "Q" (*addr) );
 800868c:	f8d7 3088 	ldr.w	r3, [r7, #136]	; 0x88
 8008690:	e853 3f00 	ldrex	r3, [r3]
 8008694:	f8c7 3084 	str.w	r3, [r7, #132]	; 0x84
   return(result);
 8008698:	f8d7 3084 	ldr.w	r3, [r7, #132]	; 0x84
 800869c:	f423 7380 	bic.w	r3, r3, #256	; 0x100
 80086a0:	f8c7 30b8 	str.w	r3, [r7, #184]	; 0xb8
 80086a4:	687b      	ldr	r3, [r7, #4]
 80086a6:	681b      	ldr	r3, [r3, #0]
 80086a8:	330c      	adds	r3, #12
 80086aa:	f8d7 20b8 	ldr.w	r2, [r7, #184]	; 0xb8
 80086ae:	f8c7 2094 	str.w	r2, [r7, #148]	; 0x94
 80086b2:	f8c7 3090 	str.w	r3, [r7, #144]	; 0x90
   __ASM volatile ("strex %0, %2, %1" : "=&r" (result), "=Q" (*addr) : "r" (value) );
 80086b6:	f8d7 1090 	ldr.w	r1, [r7, #144]	; 0x90
 80086ba:	f8d7 2094 	ldr.w	r2, [r7, #148]	; 0x94
 80086be:	e841 2300 	strex	r3, r2, [r1]
 80086c2:	f8c7 308c 	str.w	r3, [r7, #140]	; 0x8c
   return(result);
 80086c6:	f8d7 308c 	ldr.w	r3, [r7, #140]	; 0x8c
 80086ca:	2b00      	cmp	r3, #0
 80086cc:	d1d9      	bne.n	8008682 <HAL_UART_IRQHandler+0x2b2>
          ATOMIC_CLEAR_BIT(huart->Instance->CR3, USART_CR3_EIE);
 80086ce:	687b      	ldr	r3, [r7, #4]
 80086d0:	681b      	ldr	r3, [r3, #0]
 80086d2:	3314      	adds	r3, #20
 80086d4:	677b      	str	r3, [r7, #116]	; 0x74
   __ASM volatile ("ldrex %0, %1" : "=r" (result) : "Q" (*addr) );
 80086d6:	6f7b      	ldr	r3, [r7, #116]	; 0x74
 80086d8:	e853 3f00 	ldrex	r3, [r3]
 80086dc:	673b      	str	r3, [r7, #112]	; 0x70
   return(result);
 80086de:	6f3b      	ldr	r3, [r7, #112]	; 0x70
 80086e0:	f023 0301 	bic.w	r3, r3, #1
 80086e4:	f8c7 30b4 	str.w	r3, [r7, #180]	; 0xb4
 80086e8:	687b      	ldr	r3, [r7, #4]
 80086ea:	681b      	ldr	r3, [r3, #0]
 80086ec:	3314      	adds	r3, #20
 80086ee:	f8d7 20b4 	ldr.w	r2, [r7, #180]	; 0xb4
 80086f2:	f8c7 2080 	str.w	r2, [r7, #128]	; 0x80
 80086f6:	67fb      	str	r3, [r7, #124]	; 0x7c
   __ASM volatile ("strex %0, %2, %1" : "=&r" (result), "=Q" (*addr) : "r" (value) );
 80086f8:	6ff9      	ldr	r1, [r7, #124]	; 0x7c
 80086fa:	f8d7 2080 	ldr.w	r2, [r7, #128]	; 0x80
 80086fe:	e841 2300 	strex	r3, r2, [r1]
 8008702:	67bb      	str	r3, [r7, #120]	; 0x78
   return(result);
 8008704:	6fbb      	ldr	r3, [r7, #120]	; 0x78
 8008706:	2b00      	cmp	r3, #0
 8008708:	d1e1      	bne.n	80086ce <HAL_UART_IRQHandler+0x2fe>

          /* Disable the DMA transfer for the receiver request by resetting the DMAR bit
             in the UART CR3 register */
          ATOMIC_CLEAR_BIT(huart->Instance->CR3, USART_CR3_DMAR);
 800870a:	687b      	ldr	r3, [r7, #4]
 800870c:	681b      	ldr	r3, [r3, #0]
 800870e:	3314      	adds	r3, #20
 8008710:	663b      	str	r3, [r7, #96]	; 0x60
   __ASM volatile ("ldrex %0, %1" : "=r" (result) : "Q" (*addr) );
 8008712:	6e3b      	ldr	r3, [r7, #96]	; 0x60
 8008714:	e853 3f00 	ldrex	r3, [r3]
 8008718:	65fb      	str	r3, [r7, #92]	; 0x5c
   return(result);
 800871a:	6dfb      	ldr	r3, [r7, #92]	; 0x5c
 800871c:	f023 0340 	bic.w	r3, r3, #64	; 0x40
 8008720:	f8c7 30b0 	str.w	r3, [r7, #176]	; 0xb0
 8008724:	687b      	ldr	r3, [r7, #4]
 8008726:	681b      	ldr	r3, [r3, #0]
 8008728:	3314      	adds	r3, #20
 800872a:	f8d7 20b0 	ldr.w	r2, [r7, #176]	; 0xb0
 800872e:	66fa      	str	r2, [r7, #108]	; 0x6c
 8008730:	66bb      	str	r3, [r7, #104]	; 0x68
   __ASM volatile ("strex %0, %2, %1" : "=&r" (result), "=Q" (*addr) : "r" (value) );
 8008732:	6eb9      	ldr	r1, [r7, #104]	; 0x68
 8008734:	6efa      	ldr	r2, [r7, #108]	; 0x6c
 8008736:	e841 2300 	strex	r3, r2, [r1]
 800873a:	667b      	str	r3, [r7, #100]	; 0x64
   return(result);
 800873c:	6e7b      	ldr	r3, [r7, #100]	; 0x64
 800873e:	2b00      	cmp	r3, #0
 8008740:	d1e3      	bne.n	800870a <HAL_UART_IRQHandler+0x33a>

          /* At end of Rx process, restore huart->RxState to Ready */
          huart->RxState = HAL_UART_STATE_READY;
 8008742:	687b      	ldr	r3, [r7, #4]
 8008744:	2220      	movs	r2, #32
 8008746:	f883 2042 	strb.w	r2, [r3, #66]	; 0x42
          huart->ReceptionType = HAL_UART_RECEPTION_STANDARD;
 800874a:	687b      	ldr	r3, [r7, #4]
 800874c:	2200      	movs	r2, #0
 800874e:	631a      	str	r2, [r3, #48]	; 0x30

          ATOMIC_CLEAR_BIT(huart->Instance->CR1, USART_CR1_IDLEIE);
 8008750:	687b      	ldr	r3, [r7, #4]
 8008752:	681b      	ldr	r3, [r3, #0]
 8008754:	330c      	adds	r3, #12
 8008756:	64fb      	str	r3, [r7, #76]	; 0x4c
   __ASM volatile ("ldrex %0, %1" : "=r" (result) : "Q" (*addr) );
 8008758:	6cfb      	ldr	r3, [r7, #76]	; 0x4c
 800875a:	e853 3f00 	ldrex	r3, [r3]
 800875e:	64bb      	str	r3, [r7, #72]	; 0x48
   return(result);
 8008760:	6cbb      	ldr	r3, [r7, #72]	; 0x48
 8008762:	f023 0310 	bic.w	r3, r3, #16
 8008766:	f8c7 30ac 	str.w	r3, [r7, #172]	; 0xac
 800876a:	687b      	ldr	r3, [r7, #4]
 800876c:	681b      	ldr	r3, [r3, #0]
 800876e:	330c      	adds	r3, #12
 8008770:	f8d7 20ac 	ldr.w	r2, [r7, #172]	; 0xac
 8008774:	65ba      	str	r2, [r7, #88]	; 0x58
 8008776:	657b      	str	r3, [r7, #84]	; 0x54
   __ASM volatile ("strex %0, %2, %1" : "=&r" (result), "=Q" (*addr) : "r" (value) );
 8008778:	6d79      	ldr	r1, [r7, #84]	; 0x54
 800877a:	6dba      	ldr	r2, [r7, #88]	; 0x58
 800877c:	e841 2300 	strex	r3, r2, [r1]
 8008780:	653b      	str	r3, [r7, #80]	; 0x50
   return(result);
 8008782:	6d3b      	ldr	r3, [r7, #80]	; 0x50
 8008784:	2b00      	cmp	r3, #0
 8008786:	d1e3      	bne.n	8008750 <HAL_UART_IRQHandler+0x380>

          /* Last bytes received, so no need as the abort is immediate */
          (void)HAL_DMA_Abort(huart->hdmarx);
 8008788:	687b      	ldr	r3, [r7, #4]
 800878a:	6bdb      	ldr	r3, [r3, #60]	; 0x3c
 800878c:	4618      	mov	r0, r3
 800878e:	f7fb fc55 	bl	800403c <HAL_DMA_Abort>
        }

        /* Initialize type of RxEvent that correspond to RxEvent callback execution;
        In this case, Rx Event type is Idle Event */
        huart->RxEventType = HAL_UART_RXEVENT_IDLE;
 8008792:	687b      	ldr	r3, [r7, #4]
 8008794:	2202      	movs	r2, #2
 8008796:	635a      	str	r2, [r3, #52]	; 0x34
#if (USE_HAL_UART_REGISTER_CALLBACKS == 1)
        /*Call registered Rx Event callback*/
        huart->RxEventCallback(huart, (huart->RxXferSize - huart->RxXferCount));
#else
        /*Call legacy weak Rx Event callback*/
        HAL_UARTEx_RxEventCallback(huart, (huart->RxXferSize - huart->RxXferCount));
 8008798:	687b      	ldr	r3, [r7, #4]
 800879a:	8d9a      	ldrh	r2, [r3, #44]	; 0x2c
 800879c:	687b      	ldr	r3, [r7, #4]
 800879e:	8ddb      	ldrh	r3, [r3, #46]	; 0x2e
 80087a0:	b29b      	uxth	r3, r3
 80087a2:	1ad3      	subs	r3, r2, r3
 80087a4:	b29b      	uxth	r3, r3
 80087a6:	4619      	mov	r1, r3
 80087a8:	6878      	ldr	r0, [r7, #4]
 80087aa:	f000 f8b7 	bl	800891c <HAL_UARTEx_RxEventCallback>
#endif /* USE_HAL_UART_REGISTER_CALLBACKS */
      }
      return;
 80087ae:	e09b      	b.n	80088e8 <HAL_UART_IRQHandler+0x518>
 80087b0:	08008b21 	.word	0x08008b21
    else
    {
      /* DMA mode not enabled */
      /* Check received length : If all expected data are received, do nothing.
         Otherwise, if at least one data has already been received, IDLE event is to be notified to user */
      uint16_t nb_rx_data = huart->RxXferSize - huart->RxXferCount;
 80087b4:	687b      	ldr	r3, [r7, #4]
 80087b6:	8d9a      	ldrh	r2, [r3, #44]	; 0x2c
 80087b8:	687b      	ldr	r3, [r7, #4]
 80087ba:	8ddb      	ldrh	r3, [r3, #46]	; 0x2e
 80087bc:	b29b      	uxth	r3, r3
 80087be:	1ad3      	subs	r3, r2, r3
 80087c0:	f8a7 30ce 	strh.w	r3, [r7, #206]	; 0xce
      if ((huart->RxXferCount > 0U)
 80087c4:	687b      	ldr	r3, [r7, #4]
 80087c6:	8ddb      	ldrh	r3, [r3, #46]	; 0x2e
 80087c8:	b29b      	uxth	r3, r3
 80087ca:	2b00      	cmp	r3, #0
 80087cc:	f000 808e 	beq.w	80088ec <HAL_UART_IRQHandler+0x51c>
          && (nb_rx_data > 0U))
 80087d0:	f8b7 30ce 	ldrh.w	r3, [r7, #206]	; 0xce
 80087d4:	2b00      	cmp	r3, #0
 80087d6:	f000 8089 	beq.w	80088ec <HAL_UART_IRQHandler+0x51c>
      {
        /* Disable the UART Parity Error Interrupt and RXNE interrupts */
        ATOMIC_CLEAR_BIT(huart->Instance->CR1, (USART_CR1_RXNEIE | USART_CR1_PEIE));
 80087da:	687b      	ldr	r3, [r7, #4]
 80087dc:	681b      	ldr	r3, [r3, #0]
 80087de:	330c      	adds	r3, #12
 80087e0:	63bb      	str	r3, [r7, #56]	; 0x38
   __ASM volatile ("ldrex %0, %1" : "=r" (result) : "Q" (*addr) );
 80087e2:	6bbb      	ldr	r3, [r7, #56]	; 0x38
 80087e4:	e853 3f00 	ldrex	r3, [r3]
 80087e8:	637b      	str	r3, [r7, #52]	; 0x34
   return(result);
 80087ea:	6b7b      	ldr	r3, [r7, #52]	; 0x34
 80087ec:	f423 7390 	bic.w	r3, r3, #288	; 0x120
 80087f0:	f8c7 30c8 	str.w	r3, [r7, #200]	; 0xc8
 80087f4:	687b      	ldr	r3, [r7, #4]
 80087f6:	681b      	ldr	r3, [r3, #0]
 80087f8:	330c      	adds	r3, #12
 80087fa:	f8d7 20c8 	ldr.w	r2, [r7, #200]	; 0xc8
 80087fe:	647a      	str	r2, [r7, #68]	; 0x44
 8008800:	643b      	str	r3, [r7, #64]	; 0x40
   __ASM volatile ("strex %0, %2, %1" : "=&r" (result), "=Q" (*addr) : "r" (value) );
 8008802:	6c39      	ldr	r1, [r7, #64]	; 0x40
 8008804:	6c7a      	ldr	r2, [r7, #68]	; 0x44
 8008806:	e841 2300 	strex	r3, r2, [r1]
 800880a:	63fb      	str	r3, [r7, #60]	; 0x3c
   return(result);
 800880c:	6bfb      	ldr	r3, [r7, #60]	; 0x3c
 800880e:	2b00      	cmp	r3, #0
 8008810:	d1e3      	bne.n	80087da <HAL_UART_IRQHandler+0x40a>

        /* Disable the UART Error Interrupt: (Frame error, noise error, overrun error) */
        ATOMIC_CLEAR_BIT(huart->Instance->CR3, USART_CR3_EIE);
 8008812:	687b      	ldr	r3, [r7, #4]
 8008814:	681b      	ldr	r3, [r3, #0]
 8008816:	3314      	adds	r3, #20
 8008818:	627b      	str	r3, [r7, #36]	; 0x24
   __ASM volatile ("ldrex %0, %1" : "=r" (result) : "Q" (*addr) );
 800881a:	6a7b      	ldr	r3, [r7, #36]	; 0x24
 800881c:	e853 3f00 	ldrex	r3, [r3]
 8008820:	623b      	str	r3, [r7, #32]
   return(result);
 8008822:	6a3b      	ldr	r3, [r7, #32]
 8008824:	f023 0301 	bic.w	r3, r3, #1
 8008828:	f8c7 30c4 	str.w	r3, [r7, #196]	; 0xc4
 800882c:	687b      	ldr	r3, [r7, #4]
 800882e:	681b      	ldr	r3, [r3, #0]
 8008830:	3314      	adds	r3, #20
 8008832:	f8d7 20c4 	ldr.w	r2, [r7, #196]	; 0xc4
 8008836:	633a      	str	r2, [r7, #48]	; 0x30
 8008838:	62fb      	str	r3, [r7, #44]	; 0x2c
   __ASM volatile ("strex %0, %2, %1" : "=&r" (result), "=Q" (*addr) : "r" (value) );
 800883a:	6af9      	ldr	r1, [r7, #44]	; 0x2c
 800883c:	6b3a      	ldr	r2, [r7, #48]	; 0x30
 800883e:	e841 2300 	strex	r3, r2, [r1]
 8008842:	62bb      	str	r3, [r7, #40]	; 0x28
   return(result);
 8008844:	6abb      	ldr	r3, [r7, #40]	; 0x28
 8008846:	2b00      	cmp	r3, #0
 8008848:	d1e3      	bne.n	8008812 <HAL_UART_IRQHandler+0x442>

        /* Rx process is completed, restore huart->RxState to Ready */
        huart->RxState = HAL_UART_STATE_READY;
 800884a:	687b      	ldr	r3, [r7, #4]
 800884c:	2220      	movs	r2, #32
 800884e:	f883 2042 	strb.w	r2, [r3, #66]	; 0x42
        huart->ReceptionType = HAL_UART_RECEPTION_STANDARD;
 8008852:	687b      	ldr	r3, [r7, #4]
 8008854:	2200      	movs	r2, #0
 8008856:	631a      	str	r2, [r3, #48]	; 0x30

        ATOMIC_CLEAR_BIT(huart->Instance->CR1, USART_CR1_IDLEIE);
 8008858:	687b      	ldr	r3, [r7, #4]
 800885a:	681b      	ldr	r3, [r3, #0]
 800885c:	330c      	adds	r3, #12
 800885e:	613b      	str	r3, [r7, #16]
   __ASM volatile ("ldrex %0, %1" : "=r" (result) : "Q" (*addr) );
 8008860:	693b      	ldr	r3, [r7, #16]
 8008862:	e853 3f00 	ldrex	r3, [r3]
 8008866:	60fb      	str	r3, [r7, #12]
   return(result);
 8008868:	68fb      	ldr	r3, [r7, #12]
 800886a:	f023 0310 	bic.w	r3, r3, #16
 800886e:	f8c7 30c0 	str.w	r3, [r7, #192]	; 0xc0
 8008872:	687b      	ldr	r3, [r7, #4]
 8008874:	681b      	ldr	r3, [r3, #0]
 8008876:	330c      	adds	r3, #12
 8008878:	f8d7 20c0 	ldr.w	r2, [r7, #192]	; 0xc0
 800887c:	61fa      	str	r2, [r7, #28]
 800887e:	61bb      	str	r3, [r7, #24]
   __ASM volatile ("strex %0, %2, %1" : "=&r" (result), "=Q" (*addr) : "r" (value) );
 8008880:	69b9      	ldr	r1, [r7, #24]
 8008882:	69fa      	ldr	r2, [r7, #28]
 8008884:	e841 2300 	strex	r3, r2, [r1]
 8008888:	617b      	str	r3, [r7, #20]
   return(result);
 800888a:	697b      	ldr	r3, [r7, #20]
 800888c:	2b00      	cmp	r3, #0
 800888e:	d1e3      	bne.n	8008858 <HAL_UART_IRQHandler+0x488>

        /* Initialize type of RxEvent that correspond to RxEvent callback execution;
           In this case, Rx Event type is Idle Event */
        huart->RxEventType = HAL_UART_RXEVENT_IDLE;
 8008890:	687b      	ldr	r3, [r7, #4]
 8008892:	2202      	movs	r2, #2
 8008894:	635a      	str	r2, [r3, #52]	; 0x34
#if (USE_HAL_UART_REGISTER_CALLBACKS == 1)
        /*Call registered Rx complete callback*/
        huart->RxEventCallback(huart, nb_rx_data);
#else
        /*Call legacy weak Rx Event callback*/
        HAL_UARTEx_RxEventCallback(huart, nb_rx_data);
 8008896:	f8b7 30ce 	ldrh.w	r3, [r7, #206]	; 0xce
 800889a:	4619      	mov	r1, r3
 800889c:	6878      	ldr	r0, [r7, #4]
 800889e:	f000 f83d 	bl	800891c <HAL_UARTEx_RxEventCallback>
#endif /* USE_HAL_UART_REGISTER_CALLBACKS */
      }
      return;
 80088a2:	e023      	b.n	80088ec <HAL_UART_IRQHandler+0x51c>
    }
  }

  /* UART in mode Transmitter ------------------------------------------------*/
  if (((isrflags & USART_SR_TXE) != RESET) && ((cr1its & USART_CR1_TXEIE) != RESET))
 80088a4:	f8d7 30e4 	ldr.w	r3, [r7, #228]	; 0xe4
 80088a8:	f003 0380 	and.w	r3, r3, #128	; 0x80
 80088ac:	2b00      	cmp	r3, #0
 80088ae:	d009      	beq.n	80088c4 <HAL_UART_IRQHandler+0x4f4>
 80088b0:	f8d7 30e0 	ldr.w	r3, [r7, #224]	; 0xe0
 80088b4:	f003 0380 	and.w	r3, r3, #128	; 0x80
 80088b8:	2b00      	cmp	r3, #0
 80088ba:	d003      	beq.n	80088c4 <HAL_UART_IRQHandler+0x4f4>
  {
    UART_Transmit_IT(huart);
 80088bc:	6878      	ldr	r0, [r7, #4]
 80088be:	f000 f943 	bl	8008b48 <UART_Transmit_IT>
    return;
 80088c2:	e014      	b.n	80088ee <HAL_UART_IRQHandler+0x51e>
  }

  /* UART in mode Transmitter end --------------------------------------------*/
  if (((isrflags & USART_SR_TC) != RESET) && ((cr1its & USART_CR1_TCIE) != RESET))
 80088c4:	f8d7 30e4 	ldr.w	r3, [r7, #228]	; 0xe4
 80088c8:	f003 0340 	and.w	r3, r3, #64	; 0x40
 80088cc:	2b00      	cmp	r3, #0
 80088ce:	d00e      	beq.n	80088ee <HAL_UART_IRQHandler+0x51e>
 80088d0:	f8d7 30e0 	ldr.w	r3, [r7, #224]	; 0xe0
 80088d4:	f003 0340 	and.w	r3, r3, #64	; 0x40
 80088d8:	2b00      	cmp	r3, #0
 80088da:	d008      	beq.n	80088ee <HAL_UART_IRQHandler+0x51e>
  {
    UART_EndTransmit_IT(huart);
 80088dc:	6878      	ldr	r0, [r7, #4]
 80088de:	f000 f983 	bl	8008be8 <UART_EndTransmit_IT>
    return;
 80088e2:	e004      	b.n	80088ee <HAL_UART_IRQHandler+0x51e>
    return;
 80088e4:	bf00      	nop
 80088e6:	e002      	b.n	80088ee <HAL_UART_IRQHandler+0x51e>
      return;
 80088e8:	bf00      	nop
 80088ea:	e000      	b.n	80088ee <HAL_UART_IRQHandler+0x51e>
      return;
 80088ec:	bf00      	nop
  }
}
 80088ee:	37e8      	adds	r7, #232	; 0xe8
 80088f0:	46bd      	mov	sp, r7
 80088f2:	bd80      	pop	{r7, pc}

080088f4 <HAL_UART_TxCpltCallback>:
  * @param  huart  Pointer to a UART_HandleTypeDef structure that contains
  *                the configuration information for the specified UART module.
  * @retval None
  */
__weak void HAL_UART_TxCpltCallback(UART_HandleTypeDef *huart)
{
 80088f4:	b480      	push	{r7}
 80088f6:	b083      	sub	sp, #12
 80088f8:	af00      	add	r7, sp, #0
 80088fa:	6078      	str	r0, [r7, #4]
  /* Prevent unused argument(s) compilation warning */
  UNUSED(huart);
  /* NOTE: This function should not be modified, when the callback is needed,
           the HAL_UART_TxCpltCallback could be implemented in the user file
   */
}
 80088fc:	bf00      	nop
 80088fe:	370c      	adds	r7, #12
 8008900:	46bd      	mov	sp, r7
 8008902:	f85d 7b04 	ldr.w	r7, [sp], #4
 8008906:	4770      	bx	lr

08008908 <HAL_UART_ErrorCallback>:
  * @param  huart  Pointer to a UART_HandleTypeDef structure that contains
  *                the configuration information for the specified UART module.
  * @retval None
  */
__weak void HAL_UART_ErrorCallback(UART_HandleTypeDef *huart)
{
 8008908:	b480      	push	{r7}
 800890a:	b083      	sub	sp, #12
 800890c:	af00      	add	r7, sp, #0
 800890e:	6078      	str	r0, [r7, #4]
  /* Prevent unused argument(s) compilation warning */
  UNUSED(huart);
  /* NOTE: This function should not be modified, when the callback is needed,
           the HAL_UART_ErrorCallback could be implemented in the user file
   */
}
 8008910:	bf00      	nop
 8008912:	370c      	adds	r7, #12
 8008914:	46bd      	mov	sp, r7
 8008916:	f85d 7b04 	ldr.w	r7, [sp], #4
 800891a:	4770      	bx	lr

0800891c <HAL_UARTEx_RxEventCallback>:
  * @param  Size  Number of data available in application reception buffer (indicates a position in
  *               reception buffer until which, data are available)
  * @retval None
  */
__weak void HAL_UARTEx_RxEventCallback(UART_HandleTypeDef *huart, uint16_t Size)
{
 800891c:	b480      	push	{r7}
 800891e:	b083      	sub	sp, #12
 8008920:	af00      	add	r7, sp, #0
 8008922:	6078      	str	r0, [r7, #4]
 8008924:	460b      	mov	r3, r1
 8008926:	807b      	strh	r3, [r7, #2]
  UNUSED(Size);

  /* NOTE : This function should not be modified, when the callback is needed,
            the HAL_UARTEx_RxEventCallback can be implemented in the user file.
   */
}
 8008928:	bf00      	nop
 800892a:	370c      	adds	r7, #12
 800892c:	46bd      	mov	sp, r7
 800892e:	f85d 7b04 	ldr.w	r7, [sp], #4
 8008932:	4770      	bx	lr

08008934 <UART_WaitOnFlagUntilTimeout>:
  * @param  Timeout Timeout duration
  * @retval HAL status
  */
static HAL_StatusTypeDef UART_WaitOnFlagUntilTimeout(UART_HandleTypeDef *huart, uint32_t Flag, FlagStatus Status,
                                                     uint32_t Tickstart, uint32_t Timeout)
{
 8008934:	b580      	push	{r7, lr}
 8008936:	b086      	sub	sp, #24
 8008938:	af00      	add	r7, sp, #0
 800893a:	60f8      	str	r0, [r7, #12]
 800893c:	60b9      	str	r1, [r7, #8]
 800893e:	603b      	str	r3, [r7, #0]
 8008940:	4613      	mov	r3, r2
 8008942:	71fb      	strb	r3, [r7, #7]
  /* Wait until flag is set */
  while ((__HAL_UART_GET_FLAG(huart, Flag) ? SET : RESET) == Status)
 8008944:	e03b      	b.n	80089be <UART_WaitOnFlagUntilTimeout+0x8a>
  {
    /* Check for the Timeout */
    if (Timeout != HAL_MAX_DELAY)
 8008946:	6a3b      	ldr	r3, [r7, #32]
 8008948:	f1b3 3fff 	cmp.w	r3, #4294967295	; 0xffffffff
 800894c:	d037      	beq.n	80089be <UART_WaitOnFlagUntilTimeout+0x8a>
    {
      if (((HAL_GetTick() - Tickstart) > Timeout) || (Timeout == 0U))
 800894e:	f7fa fac5 	bl	8002edc <HAL_GetTick>
 8008952:	4602      	mov	r2, r0
 8008954:	683b      	ldr	r3, [r7, #0]
 8008956:	1ad3      	subs	r3, r2, r3
 8008958:	6a3a      	ldr	r2, [r7, #32]
 800895a:	429a      	cmp	r2, r3
 800895c:	d302      	bcc.n	8008964 <UART_WaitOnFlagUntilTimeout+0x30>
 800895e:	6a3b      	ldr	r3, [r7, #32]
 8008960:	2b00      	cmp	r3, #0
 8008962:	d101      	bne.n	8008968 <UART_WaitOnFlagUntilTimeout+0x34>
      {

        return HAL_TIMEOUT;
 8008964:	2303      	movs	r3, #3
 8008966:	e03a      	b.n	80089de <UART_WaitOnFlagUntilTimeout+0xaa>
      }

      if ((READ_BIT(huart->Instance->CR1, USART_CR1_RE) != 0U) && (Flag != UART_FLAG_TXE) && (Flag != UART_FLAG_TC))
 8008968:	68fb      	ldr	r3, [r7, #12]
 800896a:	681b      	ldr	r3, [r3, #0]
 800896c:	68db      	ldr	r3, [r3, #12]
 800896e:	f003 0304 	and.w	r3, r3, #4
 8008972:	2b00      	cmp	r3, #0
 8008974:	d023      	beq.n	80089be <UART_WaitOnFlagUntilTimeout+0x8a>
 8008976:	68bb      	ldr	r3, [r7, #8]
 8008978:	2b80      	cmp	r3, #128	; 0x80
 800897a:	d020      	beq.n	80089be <UART_WaitOnFlagUntilTimeout+0x8a>
 800897c:	68bb      	ldr	r3, [r7, #8]
 800897e:	2b40      	cmp	r3, #64	; 0x40
 8008980:	d01d      	beq.n	80089be <UART_WaitOnFlagUntilTimeout+0x8a>
      {
        if (__HAL_UART_GET_FLAG(huart, UART_FLAG_ORE) == SET)
 8008982:	68fb      	ldr	r3, [r7, #12]
 8008984:	681b      	ldr	r3, [r3, #0]
 8008986:	681b      	ldr	r3, [r3, #0]
 8008988:	f003 0308 	and.w	r3, r3, #8
 800898c:	2b08      	cmp	r3, #8
 800898e:	d116      	bne.n	80089be <UART_WaitOnFlagUntilTimeout+0x8a>
        {
          /* Clear Overrun Error flag*/
          __HAL_UART_CLEAR_OREFLAG(huart);
 8008990:	2300      	movs	r3, #0
 8008992:	617b      	str	r3, [r7, #20]
 8008994:	68fb      	ldr	r3, [r7, #12]
 8008996:	681b      	ldr	r3, [r3, #0]
 8008998:	681b      	ldr	r3, [r3, #0]
 800899a:	617b      	str	r3, [r7, #20]
 800899c:	68fb      	ldr	r3, [r7, #12]
 800899e:	681b      	ldr	r3, [r3, #0]
 80089a0:	685b      	ldr	r3, [r3, #4]
 80089a2:	617b      	str	r3, [r7, #20]
 80089a4:	697b      	ldr	r3, [r7, #20]

          /* Blocking error : transfer is aborted
          Set the UART state ready to be able to start again the process,
          Disable Rx Interrupts if ongoing */
          UART_EndRxTransfer(huart);
 80089a6:	68f8      	ldr	r0, [r7, #12]
 80089a8:	f000 f857 	bl	8008a5a <UART_EndRxTransfer>

          huart->ErrorCode = HAL_UART_ERROR_ORE;
 80089ac:	68fb      	ldr	r3, [r7, #12]
 80089ae:	2208      	movs	r2, #8
 80089b0:	645a      	str	r2, [r3, #68]	; 0x44

          /* Process Unlocked */
          __HAL_UNLOCK(huart);
 80089b2:	68fb      	ldr	r3, [r7, #12]
 80089b4:	2200      	movs	r2, #0
 80089b6:	f883 2040 	strb.w	r2, [r3, #64]	; 0x40

          return HAL_ERROR;
 80089ba:	2301      	movs	r3, #1
 80089bc:	e00f      	b.n	80089de <UART_WaitOnFlagUntilTimeout+0xaa>
  while ((__HAL_UART_GET_FLAG(huart, Flag) ? SET : RESET) == Status)
 80089be:	68fb      	ldr	r3, [r7, #12]
 80089c0:	681b      	ldr	r3, [r3, #0]
 80089c2:	681a      	ldr	r2, [r3, #0]
 80089c4:	68bb      	ldr	r3, [r7, #8]
 80089c6:	4013      	ands	r3, r2
 80089c8:	68ba      	ldr	r2, [r7, #8]
 80089ca:	429a      	cmp	r2, r3
 80089cc:	bf0c      	ite	eq
 80089ce:	2301      	moveq	r3, #1
 80089d0:	2300      	movne	r3, #0
 80089d2:	b2db      	uxtb	r3, r3
 80089d4:	461a      	mov	r2, r3
 80089d6:	79fb      	ldrb	r3, [r7, #7]
 80089d8:	429a      	cmp	r2, r3
 80089da:	d0b4      	beq.n	8008946 <UART_WaitOnFlagUntilTimeout+0x12>
        }
      }
    }
  }
  return HAL_OK;
 80089dc:	2300      	movs	r3, #0
}
 80089de:	4618      	mov	r0, r3
 80089e0:	3718      	adds	r7, #24
 80089e2:	46bd      	mov	sp, r7
 80089e4:	bd80      	pop	{r7, pc}

080089e6 <UART_Start_Receive_IT>:
  * @param  pData Pointer to data buffer (u8 or u16 data elements).
  * @param  Size  Amount of data elements (u8 or u16) to be received.
  * @retval HAL status
  */
HAL_StatusTypeDef UART_Start_Receive_IT(UART_HandleTypeDef *huart, uint8_t *pData, uint16_t Size)
{
 80089e6:	b480      	push	{r7}
 80089e8:	b085      	sub	sp, #20
 80089ea:	af00      	add	r7, sp, #0
 80089ec:	60f8      	str	r0, [r7, #12]
 80089ee:	60b9      	str	r1, [r7, #8]
 80089f0:	4613      	mov	r3, r2
 80089f2:	80fb      	strh	r3, [r7, #6]
  huart->pRxBuffPtr = pData;
 80089f4:	68fb      	ldr	r3, [r7, #12]
 80089f6:	68ba      	ldr	r2, [r7, #8]
 80089f8:	629a      	str	r2, [r3, #40]	; 0x28
  huart->RxXferSize = Size;
 80089fa:	68fb      	ldr	r3, [r7, #12]
 80089fc:	88fa      	ldrh	r2, [r7, #6]
 80089fe:	859a      	strh	r2, [r3, #44]	; 0x2c
  huart->RxXferCount = Size;
 8008a00:	68fb      	ldr	r3, [r7, #12]
 8008a02:	88fa      	ldrh	r2, [r7, #6]
 8008a04:	85da      	strh	r2, [r3, #46]	; 0x2e

  huart->ErrorCode = HAL_UART_ERROR_NONE;
 8008a06:	68fb      	ldr	r3, [r7, #12]
 8008a08:	2200      	movs	r2, #0
 8008a0a:	645a      	str	r2, [r3, #68]	; 0x44
  huart->RxState = HAL_UART_STATE_BUSY_RX;
 8008a0c:	68fb      	ldr	r3, [r7, #12]
 8008a0e:	2222      	movs	r2, #34	; 0x22
 8008a10:	f883 2042 	strb.w	r2, [r3, #66]	; 0x42

  if (huart->Init.Parity != UART_PARITY_NONE)
 8008a14:	68fb      	ldr	r3, [r7, #12]
 8008a16:	691b      	ldr	r3, [r3, #16]
 8008a18:	2b00      	cmp	r3, #0
 8008a1a:	d007      	beq.n	8008a2c <UART_Start_Receive_IT+0x46>
  {
    /* Enable the UART Parity Error Interrupt */
    __HAL_UART_ENABLE_IT(huart, UART_IT_PE);
 8008a1c:	68fb      	ldr	r3, [r7, #12]
 8008a1e:	681b      	ldr	r3, [r3, #0]
 8008a20:	68da      	ldr	r2, [r3, #12]
 8008a22:	68fb      	ldr	r3, [r7, #12]
 8008a24:	681b      	ldr	r3, [r3, #0]
 8008a26:	f442 7280 	orr.w	r2, r2, #256	; 0x100
 8008a2a:	60da      	str	r2, [r3, #12]
  }

  /* Enable the UART Error Interrupt: (Frame error, noise error, overrun error) */
  __HAL_UART_ENABLE_IT(huart, UART_IT_ERR);
 8008a2c:	68fb      	ldr	r3, [r7, #12]
 8008a2e:	681b      	ldr	r3, [r3, #0]
 8008a30:	695a      	ldr	r2, [r3, #20]
 8008a32:	68fb      	ldr	r3, [r7, #12]
 8008a34:	681b      	ldr	r3, [r3, #0]
 8008a36:	f042 0201 	orr.w	r2, r2, #1
 8008a3a:	615a      	str	r2, [r3, #20]

  /* Enable the UART Data Register not empty Interrupt */
  __HAL_UART_ENABLE_IT(huart, UART_IT_RXNE);
 8008a3c:	68fb      	ldr	r3, [r7, #12]
 8008a3e:	681b      	ldr	r3, [r3, #0]
 8008a40:	68da      	ldr	r2, [r3, #12]
 8008a42:	68fb      	ldr	r3, [r7, #12]
 8008a44:	681b      	ldr	r3, [r3, #0]
 8008a46:	f042 0220 	orr.w	r2, r2, #32
 8008a4a:	60da      	str	r2, [r3, #12]

  return HAL_OK;
 8008a4c:	2300      	movs	r3, #0
}
 8008a4e:	4618      	mov	r0, r3
 8008a50:	3714      	adds	r7, #20
 8008a52:	46bd      	mov	sp, r7
 8008a54:	f85d 7b04 	ldr.w	r7, [sp], #4
 8008a58:	4770      	bx	lr

08008a5a <UART_EndRxTransfer>:
  * @brief  End ongoing Rx transfer on UART peripheral (following error detection or Reception completion).
  * @param  huart UART handle.
  * @retval None
  */
static void UART_EndRxTransfer(UART_HandleTypeDef *huart)
{
 8008a5a:	b480      	push	{r7}
 8008a5c:	b095      	sub	sp, #84	; 0x54
 8008a5e:	af00      	add	r7, sp, #0
 8008a60:	6078      	str	r0, [r7, #4]
  /* Disable RXNE, PE and ERR (Frame error, noise error, overrun error) interrupts */
  ATOMIC_CLEAR_BIT(huart->Instance->CR1, (USART_CR1_RXNEIE | USART_CR1_PEIE));
 8008a62:	687b      	ldr	r3, [r7, #4]
 8008a64:	681b      	ldr	r3, [r3, #0]
 8008a66:	330c      	adds	r3, #12
 8008a68:	637b      	str	r3, [r7, #52]	; 0x34
   __ASM volatile ("ldrex %0, %1" : "=r" (result) : "Q" (*addr) );
 8008a6a:	6b7b      	ldr	r3, [r7, #52]	; 0x34
 8008a6c:	e853 3f00 	ldrex	r3, [r3]
 8008a70:	633b      	str	r3, [r7, #48]	; 0x30
   return(result);
 8008a72:	6b3b      	ldr	r3, [r7, #48]	; 0x30
 8008a74:	f423 7390 	bic.w	r3, r3, #288	; 0x120
 8008a78:	64fb      	str	r3, [r7, #76]	; 0x4c
 8008a7a:	687b      	ldr	r3, [r7, #4]
 8008a7c:	681b      	ldr	r3, [r3, #0]
 8008a7e:	330c      	adds	r3, #12
 8008a80:	6cfa      	ldr	r2, [r7, #76]	; 0x4c
 8008a82:	643a      	str	r2, [r7, #64]	; 0x40
 8008a84:	63fb      	str	r3, [r7, #60]	; 0x3c
   __ASM volatile ("strex %0, %2, %1" : "=&r" (result), "=Q" (*addr) : "r" (value) );
 8008a86:	6bf9      	ldr	r1, [r7, #60]	; 0x3c
 8008a88:	6c3a      	ldr	r2, [r7, #64]	; 0x40
 8008a8a:	e841 2300 	strex	r3, r2, [r1]
 8008a8e:	63bb      	str	r3, [r7, #56]	; 0x38
   return(result);
 8008a90:	6bbb      	ldr	r3, [r7, #56]	; 0x38
 8008a92:	2b00      	cmp	r3, #0
 8008a94:	d1e5      	bne.n	8008a62 <UART_EndRxTransfer+0x8>
  ATOMIC_CLEAR_BIT(huart->Instance->CR3, USART_CR3_EIE);
 8008a96:	687b      	ldr	r3, [r7, #4]
 8008a98:	681b      	ldr	r3, [r3, #0]
 8008a9a:	3314      	adds	r3, #20
 8008a9c:	623b      	str	r3, [r7, #32]
   __ASM volatile ("ldrex %0, %1" : "=r" (result) : "Q" (*addr) );
 8008a9e:	6a3b      	ldr	r3, [r7, #32]
 8008aa0:	e853 3f00 	ldrex	r3, [r3]
 8008aa4:	61fb      	str	r3, [r7, #28]
   return(result);
 8008aa6:	69fb      	ldr	r3, [r7, #28]
 8008aa8:	f023 0301 	bic.w	r3, r3, #1
 8008aac:	64bb      	str	r3, [r7, #72]	; 0x48
 8008aae:	687b      	ldr	r3, [r7, #4]
 8008ab0:	681b      	ldr	r3, [r3, #0]
 8008ab2:	3314      	adds	r3, #20
 8008ab4:	6cba      	ldr	r2, [r7, #72]	; 0x48
 8008ab6:	62fa      	str	r2, [r7, #44]	; 0x2c
 8008ab8:	62bb      	str	r3, [r7, #40]	; 0x28
   __ASM volatile ("strex %0, %2, %1" : "=&r" (result), "=Q" (*addr) : "r" (value) );
 8008aba:	6ab9      	ldr	r1, [r7, #40]	; 0x28
 8008abc:	6afa      	ldr	r2, [r7, #44]	; 0x2c
 8008abe:	e841 2300 	strex	r3, r2, [r1]
 8008ac2:	627b      	str	r3, [r7, #36]	; 0x24
   return(result);
 8008ac4:	6a7b      	ldr	r3, [r7, #36]	; 0x24
 8008ac6:	2b00      	cmp	r3, #0
 8008ac8:	d1e5      	bne.n	8008a96 <UART_EndRxTransfer+0x3c>

  /* In case of reception waiting for IDLE event, disable also the IDLE IE interrupt source */
  if (huart->ReceptionType == HAL_UART_RECEPTION_TOIDLE)
 8008aca:	687b      	ldr	r3, [r7, #4]
 8008acc:	6b1b      	ldr	r3, [r3, #48]	; 0x30
 8008ace:	2b01      	cmp	r3, #1
 8008ad0:	d119      	bne.n	8008b06 <UART_EndRxTransfer+0xac>
  {
    ATOMIC_CLEAR_BIT(huart->Instance->CR1, USART_CR1_IDLEIE);
 8008ad2:	687b      	ldr	r3, [r7, #4]
 8008ad4:	681b      	ldr	r3, [r3, #0]
 8008ad6:	330c      	adds	r3, #12
 8008ad8:	60fb      	str	r3, [r7, #12]
   __ASM volatile ("ldrex %0, %1" : "=r" (result) : "Q" (*addr) );
 8008ada:	68fb      	ldr	r3, [r7, #12]
 8008adc:	e853 3f00 	ldrex	r3, [r3]
 8008ae0:	60bb      	str	r3, [r7, #8]
   return(result);
 8008ae2:	68bb      	ldr	r3, [r7, #8]
 8008ae4:	f023 0310 	bic.w	r3, r3, #16
 8008ae8:	647b      	str	r3, [r7, #68]	; 0x44
 8008aea:	687b      	ldr	r3, [r7, #4]
 8008aec:	681b      	ldr	r3, [r3, #0]
 8008aee:	330c      	adds	r3, #12
 8008af0:	6c7a      	ldr	r2, [r7, #68]	; 0x44
 8008af2:	61ba      	str	r2, [r7, #24]
 8008af4:	617b      	str	r3, [r7, #20]
   __ASM volatile ("strex %0, %2, %1" : "=&r" (result), "=Q" (*addr) : "r" (value) );
 8008af6:	6979      	ldr	r1, [r7, #20]
 8008af8:	69ba      	ldr	r2, [r7, #24]
 8008afa:	e841 2300 	strex	r3, r2, [r1]
 8008afe:	613b      	str	r3, [r7, #16]
   return(result);
 8008b00:	693b      	ldr	r3, [r7, #16]
 8008b02:	2b00      	cmp	r3, #0
 8008b04:	d1e5      	bne.n	8008ad2 <UART_EndRxTransfer+0x78>
  }

  /* At end of Rx process, restore huart->RxState to Ready */
  huart->RxState = HAL_UART_STATE_READY;
 8008b06:	687b      	ldr	r3, [r7, #4]
 8008b08:	2220      	movs	r2, #32
 8008b0a:	f883 2042 	strb.w	r2, [r3, #66]	; 0x42
  huart->ReceptionType = HAL_UART_RECEPTION_STANDARD;
 8008b0e:	687b      	ldr	r3, [r7, #4]
 8008b10:	2200      	movs	r2, #0
 8008b12:	631a      	str	r2, [r3, #48]	; 0x30
}
 8008b14:	bf00      	nop
 8008b16:	3754      	adds	r7, #84	; 0x54
 8008b18:	46bd      	mov	sp, r7
 8008b1a:	f85d 7b04 	ldr.w	r7, [sp], #4
 8008b1e:	4770      	bx	lr

08008b20 <UART_DMAAbortOnError>:
  * @param  hdma  Pointer to a DMA_HandleTypeDef structure that contains
  *               the configuration information for the specified DMA module.
  * @retval None
  */
static void UART_DMAAbortOnError(DMA_HandleTypeDef *hdma)
{
 8008b20:	b580      	push	{r7, lr}
 8008b22:	b084      	sub	sp, #16
 8008b24:	af00      	add	r7, sp, #0
 8008b26:	6078      	str	r0, [r7, #4]
  UART_HandleTypeDef *huart = (UART_HandleTypeDef *)((DMA_HandleTypeDef *)hdma)->Parent;
 8008b28:	687b      	ldr	r3, [r7, #4]
 8008b2a:	6b9b      	ldr	r3, [r3, #56]	; 0x38
 8008b2c:	60fb      	str	r3, [r7, #12]
  huart->RxXferCount = 0x00U;
 8008b2e:	68fb      	ldr	r3, [r7, #12]
 8008b30:	2200      	movs	r2, #0
 8008b32:	85da      	strh	r2, [r3, #46]	; 0x2e
  huart->TxXferCount = 0x00U;
 8008b34:	68fb      	ldr	r3, [r7, #12]
 8008b36:	2200      	movs	r2, #0
 8008b38:	84da      	strh	r2, [r3, #38]	; 0x26
#if (USE_HAL_UART_REGISTER_CALLBACKS == 1)
  /*Call registered error callback*/
  huart->ErrorCallback(huart);
#else
  /*Call legacy weak error callback*/
  HAL_UART_ErrorCallback(huart);
 8008b3a:	68f8      	ldr	r0, [r7, #12]
 8008b3c:	f7ff fee4 	bl	8008908 <HAL_UART_ErrorCallback>
#endif /* USE_HAL_UART_REGISTER_CALLBACKS */
}
 8008b40:	bf00      	nop
 8008b42:	3710      	adds	r7, #16
 8008b44:	46bd      	mov	sp, r7
 8008b46:	bd80      	pop	{r7, pc}

08008b48 <UART_Transmit_IT>:
  * @param  huart  Pointer to a UART_HandleTypeDef structure that contains
  *                the configuration information for the specified UART module.
  * @retval HAL status
  */
static HAL_StatusTypeDef UART_Transmit_IT(UART_HandleTypeDef *huart)
{
 8008b48:	b480      	push	{r7}
 8008b4a:	b085      	sub	sp, #20
 8008b4c:	af00      	add	r7, sp, #0
 8008b4e:	6078      	str	r0, [r7, #4]
  const uint16_t *tmp;

  /* Check that a Tx process is ongoing */
  if (huart->gState == HAL_UART_STATE_BUSY_TX)
 8008b50:	687b      	ldr	r3, [r7, #4]
 8008b52:	f893 3041 	ldrb.w	r3, [r3, #65]	; 0x41
 8008b56:	b2db      	uxtb	r3, r3
 8008b58:	2b21      	cmp	r3, #33	; 0x21
 8008b5a:	d13e      	bne.n	8008bda <UART_Transmit_IT+0x92>
  {
    if ((huart->Init.WordLength == UART_WORDLENGTH_9B) && (huart->Init.Parity == UART_PARITY_NONE))
 8008b5c:	687b      	ldr	r3, [r7, #4]
 8008b5e:	689b      	ldr	r3, [r3, #8]
 8008b60:	f5b3 5f80 	cmp.w	r3, #4096	; 0x1000
 8008b64:	d114      	bne.n	8008b90 <UART_Transmit_IT+0x48>
 8008b66:	687b      	ldr	r3, [r7, #4]
 8008b68:	691b      	ldr	r3, [r3, #16]
 8008b6a:	2b00      	cmp	r3, #0
 8008b6c:	d110      	bne.n	8008b90 <UART_Transmit_IT+0x48>
    {
      tmp = (const uint16_t *) huart->pTxBuffPtr;
 8008b6e:	687b      	ldr	r3, [r7, #4]
 8008b70:	6a1b      	ldr	r3, [r3, #32]
 8008b72:	60fb      	str	r3, [r7, #12]
      huart->Instance->DR = (uint16_t)(*tmp & (uint16_t)0x01FF);
 8008b74:	68fb      	ldr	r3, [r7, #12]
 8008b76:	881b      	ldrh	r3, [r3, #0]
 8008b78:	461a      	mov	r2, r3
 8008b7a:	687b      	ldr	r3, [r7, #4]
 8008b7c:	681b      	ldr	r3, [r3, #0]
 8008b7e:	f3c2 0208 	ubfx	r2, r2, #0, #9
 8008b82:	605a      	str	r2, [r3, #4]
      huart->pTxBuffPtr += 2U;
 8008b84:	687b      	ldr	r3, [r7, #4]
 8008b86:	6a1b      	ldr	r3, [r3, #32]
 8008b88:	1c9a      	adds	r2, r3, #2
 8008b8a:	687b      	ldr	r3, [r7, #4]
 8008b8c:	621a      	str	r2, [r3, #32]
 8008b8e:	e008      	b.n	8008ba2 <UART_Transmit_IT+0x5a>
    }
    else
    {
      huart->Instance->DR = (uint8_t)(*huart->pTxBuffPtr++ & (uint8_t)0x00FF);
 8008b90:	687b      	ldr	r3, [r7, #4]
 8008b92:	6a1b      	ldr	r3, [r3, #32]
 8008b94:	1c59      	adds	r1, r3, #1
 8008b96:	687a      	ldr	r2, [r7, #4]
 8008b98:	6211      	str	r1, [r2, #32]
 8008b9a:	781a      	ldrb	r2, [r3, #0]
 8008b9c:	687b      	ldr	r3, [r7, #4]
 8008b9e:	681b      	ldr	r3, [r3, #0]
 8008ba0:	605a      	str	r2, [r3, #4]
    }

    if (--huart->TxXferCount == 0U)
 8008ba2:	687b      	ldr	r3, [r7, #4]
 8008ba4:	8cdb      	ldrh	r3, [r3, #38]	; 0x26
 8008ba6:	b29b      	uxth	r3, r3
 8008ba8:	3b01      	subs	r3, #1
 8008baa:	b29b      	uxth	r3, r3
 8008bac:	687a      	ldr	r2, [r7, #4]
 8008bae:	4619      	mov	r1, r3
 8008bb0:	84d1      	strh	r1, [r2, #38]	; 0x26
 8008bb2:	2b00      	cmp	r3, #0
 8008bb4:	d10f      	bne.n	8008bd6 <UART_Transmit_IT+0x8e>
    {
      /* Disable the UART Transmit Data Register Empty Interrupt */
      __HAL_UART_DISABLE_IT(huart, UART_IT_TXE);
 8008bb6:	687b      	ldr	r3, [r7, #4]
 8008bb8:	681b      	ldr	r3, [r3, #0]
 8008bba:	68da      	ldr	r2, [r3, #12]
 8008bbc:	687b      	ldr	r3, [r7, #4]
 8008bbe:	681b      	ldr	r3, [r3, #0]
 8008bc0:	f022 0280 	bic.w	r2, r2, #128	; 0x80
 8008bc4:	60da      	str	r2, [r3, #12]

      /* Enable the UART Transmit Complete Interrupt */
      __HAL_UART_ENABLE_IT(huart, UART_IT_TC);
 8008bc6:	687b      	ldr	r3, [r7, #4]
 8008bc8:	681b      	ldr	r3, [r3, #0]
 8008bca:	68da      	ldr	r2, [r3, #12]
 8008bcc:	687b      	ldr	r3, [r7, #4]
 8008bce:	681b      	ldr	r3, [r3, #0]
 8008bd0:	f042 0240 	orr.w	r2, r2, #64	; 0x40
 8008bd4:	60da      	str	r2, [r3, #12]
    }
    return HAL_OK;
 8008bd6:	2300      	movs	r3, #0
 8008bd8:	e000      	b.n	8008bdc <UART_Transmit_IT+0x94>
  }
  else
  {
    return HAL_BUSY;
 8008bda:	2302      	movs	r3, #2
  }
}
 8008bdc:	4618      	mov	r0, r3
 8008bde:	3714      	adds	r7, #20
 8008be0:	46bd      	mov	sp, r7
 8008be2:	f85d 7b04 	ldr.w	r7, [sp], #4
 8008be6:	4770      	bx	lr

08008be8 <UART_EndTransmit_IT>:
  * @param  huart  Pointer to a UART_HandleTypeDef structure that contains
  *                the configuration information for the specified UART module.
  * @retval HAL status
  */
static HAL_StatusTypeDef UART_EndTransmit_IT(UART_HandleTypeDef *huart)
{
 8008be8:	b580      	push	{r7, lr}
 8008bea:	b082      	sub	sp, #8
 8008bec:	af00      	add	r7, sp, #0
 8008bee:	6078      	str	r0, [r7, #4]
  /* Disable the UART Transmit Complete Interrupt */
  __HAL_UART_DISABLE_IT(huart, UART_IT_TC);
 8008bf0:	687b      	ldr	r3, [r7, #4]
 8008bf2:	681b      	ldr	r3, [r3, #0]
 8008bf4:	68da      	ldr	r2, [r3, #12]
 8008bf6:	687b      	ldr	r3, [r7, #4]
 8008bf8:	681b      	ldr	r3, [r3, #0]
 8008bfa:	f022 0240 	bic.w	r2, r2, #64	; 0x40
 8008bfe:	60da      	str	r2, [r3, #12]

  /* Tx process is ended, restore huart->gState to Ready */
  huart->gState = HAL_UART_STATE_READY;
 8008c00:	687b      	ldr	r3, [r7, #4]
 8008c02:	2220      	movs	r2, #32
 8008c04:	f883 2041 	strb.w	r2, [r3, #65]	; 0x41
#if (USE_HAL_UART_REGISTER_CALLBACKS == 1)
  /*Call registered Tx complete callback*/
  huart->TxCpltCallback(huart);
#else
  /*Call legacy weak Tx complete callback*/
  HAL_UART_TxCpltCallback(huart);
 8008c08:	6878      	ldr	r0, [r7, #4]
 8008c0a:	f7ff fe73 	bl	80088f4 <HAL_UART_TxCpltCallback>
#endif /* USE_HAL_UART_REGISTER_CALLBACKS */

  return HAL_OK;
 8008c0e:	2300      	movs	r3, #0
}
 8008c10:	4618      	mov	r0, r3
 8008c12:	3708      	adds	r7, #8
 8008c14:	46bd      	mov	sp, r7
 8008c16:	bd80      	pop	{r7, pc}

08008c18 <UART_Receive_IT>:
  * @param  huart  Pointer to a UART_HandleTypeDef structure that contains
  *                the configuration information for the specified UART module.
  * @retval HAL status
  */
static HAL_StatusTypeDef UART_Receive_IT(UART_HandleTypeDef *huart)
{
 8008c18:	b580      	push	{r7, lr}
 8008c1a:	b08c      	sub	sp, #48	; 0x30
 8008c1c:	af00      	add	r7, sp, #0
 8008c1e:	6078      	str	r0, [r7, #4]
  uint8_t  *pdata8bits;
  uint16_t *pdata16bits;

  /* Check that a Rx process is ongoing */
  if (huart->RxState == HAL_UART_STATE_BUSY_RX)
 8008c20:	687b      	ldr	r3, [r7, #4]
 8008c22:	f893 3042 	ldrb.w	r3, [r3, #66]	; 0x42
 8008c26:	b2db      	uxtb	r3, r3
 8008c28:	2b22      	cmp	r3, #34	; 0x22
 8008c2a:	f040 80ae 	bne.w	8008d8a <UART_Receive_IT+0x172>
  {
    if ((huart->Init.WordLength == UART_WORDLENGTH_9B) && (huart->Init.Parity == UART_PARITY_NONE))
 8008c2e:	687b      	ldr	r3, [r7, #4]
 8008c30:	689b      	ldr	r3, [r3, #8]
 8008c32:	f5b3 5f80 	cmp.w	r3, #4096	; 0x1000
 8008c36:	d117      	bne.n	8008c68 <UART_Receive_IT+0x50>
 8008c38:	687b      	ldr	r3, [r7, #4]
 8008c3a:	691b      	ldr	r3, [r3, #16]
 8008c3c:	2b00      	cmp	r3, #0
 8008c3e:	d113      	bne.n	8008c68 <UART_Receive_IT+0x50>
    {
      pdata8bits  = NULL;
 8008c40:	2300      	movs	r3, #0
 8008c42:	62fb      	str	r3, [r7, #44]	; 0x2c
      pdata16bits = (uint16_t *) huart->pRxBuffPtr;
 8008c44:	687b      	ldr	r3, [r7, #4]
 8008c46:	6a9b      	ldr	r3, [r3, #40]	; 0x28
 8008c48:	62bb      	str	r3, [r7, #40]	; 0x28
      *pdata16bits = (uint16_t)(huart->Instance->DR & (uint16_t)0x01FF);
 8008c4a:	687b      	ldr	r3, [r7, #4]
 8008c4c:	681b      	ldr	r3, [r3, #0]
 8008c4e:	685b      	ldr	r3, [r3, #4]
 8008c50:	b29b      	uxth	r3, r3
 8008c52:	f3c3 0308 	ubfx	r3, r3, #0, #9
 8008c56:	b29a      	uxth	r2, r3
 8008c58:	6abb      	ldr	r3, [r7, #40]	; 0x28
 8008c5a:	801a      	strh	r2, [r3, #0]
      huart->pRxBuffPtr += 2U;
 8008c5c:	687b      	ldr	r3, [r7, #4]
 8008c5e:	6a9b      	ldr	r3, [r3, #40]	; 0x28
 8008c60:	1c9a      	adds	r2, r3, #2
 8008c62:	687b      	ldr	r3, [r7, #4]
 8008c64:	629a      	str	r2, [r3, #40]	; 0x28
 8008c66:	e026      	b.n	8008cb6 <UART_Receive_IT+0x9e>
    }
    else
    {
      pdata8bits = (uint8_t *) huart->pRxBuffPtr;
 8008c68:	687b      	ldr	r3, [r7, #4]
 8008c6a:	6a9b      	ldr	r3, [r3, #40]	; 0x28
 8008c6c:	62fb      	str	r3, [r7, #44]	; 0x2c
      pdata16bits  = NULL;
 8008c6e:	2300      	movs	r3, #0
 8008c70:	62bb      	str	r3, [r7, #40]	; 0x28

      if ((huart->Init.WordLength == UART_WORDLENGTH_9B) || ((huart->Init.WordLength == UART_WORDLENGTH_8B) && (huart->Init.Parity == UART_PARITY_NONE)))
 8008c72:	687b      	ldr	r3, [r7, #4]
 8008c74:	689b      	ldr	r3, [r3, #8]
 8008c76:	f5b3 5f80 	cmp.w	r3, #4096	; 0x1000
 8008c7a:	d007      	beq.n	8008c8c <UART_Receive_IT+0x74>
 8008c7c:	687b      	ldr	r3, [r7, #4]
 8008c7e:	689b      	ldr	r3, [r3, #8]
 8008c80:	2b00      	cmp	r3, #0
 8008c82:	d10a      	bne.n	8008c9a <UART_Receive_IT+0x82>
 8008c84:	687b      	ldr	r3, [r7, #4]
 8008c86:	691b      	ldr	r3, [r3, #16]
 8008c88:	2b00      	cmp	r3, #0
 8008c8a:	d106      	bne.n	8008c9a <UART_Receive_IT+0x82>
      {
        *pdata8bits = (uint8_t)(huart->Instance->DR & (uint8_t)0x00FF);
 8008c8c:	687b      	ldr	r3, [r7, #4]
 8008c8e:	681b      	ldr	r3, [r3, #0]
 8008c90:	685b      	ldr	r3, [r3, #4]
 8008c92:	b2da      	uxtb	r2, r3
 8008c94:	6afb      	ldr	r3, [r7, #44]	; 0x2c
 8008c96:	701a      	strb	r2, [r3, #0]
 8008c98:	e008      	b.n	8008cac <UART_Receive_IT+0x94>
      }
      else
      {
        *pdata8bits = (uint8_t)(huart->Instance->DR & (uint8_t)0x007F);
 8008c9a:	687b      	ldr	r3, [r7, #4]
 8008c9c:	681b      	ldr	r3, [r3, #0]
 8008c9e:	685b      	ldr	r3, [r3, #4]
 8008ca0:	b2db      	uxtb	r3, r3
 8008ca2:	f003 037f 	and.w	r3, r3, #127	; 0x7f
 8008ca6:	b2da      	uxtb	r2, r3
 8008ca8:	6afb      	ldr	r3, [r7, #44]	; 0x2c
 8008caa:	701a      	strb	r2, [r3, #0]
      }
      huart->pRxBuffPtr += 1U;
 8008cac:	687b      	ldr	r3, [r7, #4]
 8008cae:	6a9b      	ldr	r3, [r3, #40]	; 0x28
 8008cb0:	1c5a      	adds	r2, r3, #1
 8008cb2:	687b      	ldr	r3, [r7, #4]
 8008cb4:	629a      	str	r2, [r3, #40]	; 0x28
    }

    if (--huart->RxXferCount == 0U)
 8008cb6:	687b      	ldr	r3, [r7, #4]
 8008cb8:	8ddb      	ldrh	r3, [r3, #46]	; 0x2e
 8008cba:	b29b      	uxth	r3, r3
 8008cbc:	3b01      	subs	r3, #1
 8008cbe:	b29b      	uxth	r3, r3
 8008cc0:	687a      	ldr	r2, [r7, #4]
 8008cc2:	4619      	mov	r1, r3
 8008cc4:	85d1      	strh	r1, [r2, #46]	; 0x2e
 8008cc6:	2b00      	cmp	r3, #0
 8008cc8:	d15d      	bne.n	8008d86 <UART_Receive_IT+0x16e>
    {
      /* Disable the UART Data Register not empty Interrupt */
      __HAL_UART_DISABLE_IT(huart, UART_IT_RXNE);
 8008cca:	687b      	ldr	r3, [r7, #4]
 8008ccc:	681b      	ldr	r3, [r3, #0]
 8008cce:	68da      	ldr	r2, [r3, #12]
 8008cd0:	687b      	ldr	r3, [r7, #4]
 8008cd2:	681b      	ldr	r3, [r3, #0]
 8008cd4:	f022 0220 	bic.w	r2, r2, #32
 8008cd8:	60da      	str	r2, [r3, #12]

      /* Disable the UART Parity Error Interrupt */
      __HAL_UART_DISABLE_IT(huart, UART_IT_PE);
 8008cda:	687b      	ldr	r3, [r7, #4]
 8008cdc:	681b      	ldr	r3, [r3, #0]
 8008cde:	68da      	ldr	r2, [r3, #12]
 8008ce0:	687b      	ldr	r3, [r7, #4]
 8008ce2:	681b      	ldr	r3, [r3, #0]
 8008ce4:	f422 7280 	bic.w	r2, r2, #256	; 0x100
 8008ce8:	60da      	str	r2, [r3, #12]

      /* Disable the UART Error Interrupt: (Frame error, noise error, overrun error) */
      __HAL_UART_DISABLE_IT(huart, UART_IT_ERR);
 8008cea:	687b      	ldr	r3, [r7, #4]
 8008cec:	681b      	ldr	r3, [r3, #0]
 8008cee:	695a      	ldr	r2, [r3, #20]
 8008cf0:	687b      	ldr	r3, [r7, #4]
 8008cf2:	681b      	ldr	r3, [r3, #0]
 8008cf4:	f022 0201 	bic.w	r2, r2, #1
 8008cf8:	615a      	str	r2, [r3, #20]

      /* Rx process is completed, restore huart->RxState to Ready */
      huart->RxState = HAL_UART_STATE_READY;
 8008cfa:	687b      	ldr	r3, [r7, #4]
 8008cfc:	2220      	movs	r2, #32
 8008cfe:	f883 2042 	strb.w	r2, [r3, #66]	; 0x42

      /* Initialize type of RxEvent to Transfer Complete */
      huart->RxEventType = HAL_UART_RXEVENT_TC;
 8008d02:	687b      	ldr	r3, [r7, #4]
 8008d04:	2200      	movs	r2, #0
 8008d06:	635a      	str	r2, [r3, #52]	; 0x34

      /* Check current reception Mode :
         If Reception till IDLE event has been selected : */
      if (huart->ReceptionType == HAL_UART_RECEPTION_TOIDLE)
 8008d08:	687b      	ldr	r3, [r7, #4]
 8008d0a:	6b1b      	ldr	r3, [r3, #48]	; 0x30
 8008d0c:	2b01      	cmp	r3, #1
 8008d0e:	d135      	bne.n	8008d7c <UART_Receive_IT+0x164>
      {
        /* Set reception type to Standard */
        huart->ReceptionType = HAL_UART_RECEPTION_STANDARD;
 8008d10:	687b      	ldr	r3, [r7, #4]
 8008d12:	2200      	movs	r2, #0
 8008d14:	631a      	str	r2, [r3, #48]	; 0x30

        /* Disable IDLE interrupt */
        ATOMIC_CLEAR_BIT(huart->Instance->CR1, USART_CR1_IDLEIE);
 8008d16:	687b      	ldr	r3, [r7, #4]
 8008d18:	681b      	ldr	r3, [r3, #0]
 8008d1a:	330c      	adds	r3, #12
 8008d1c:	617b      	str	r3, [r7, #20]
   __ASM volatile ("ldrex %0, %1" : "=r" (result) : "Q" (*addr) );
 8008d1e:	697b      	ldr	r3, [r7, #20]
 8008d20:	e853 3f00 	ldrex	r3, [r3]
 8008d24:	613b      	str	r3, [r7, #16]
   return(result);
 8008d26:	693b      	ldr	r3, [r7, #16]
 8008d28:	f023 0310 	bic.w	r3, r3, #16
 8008d2c:	627b      	str	r3, [r7, #36]	; 0x24
 8008d2e:	687b      	ldr	r3, [r7, #4]
 8008d30:	681b      	ldr	r3, [r3, #0]
 8008d32:	330c      	adds	r3, #12
 8008d34:	6a7a      	ldr	r2, [r7, #36]	; 0x24
 8008d36:	623a      	str	r2, [r7, #32]
 8008d38:	61fb      	str	r3, [r7, #28]
   __ASM volatile ("strex %0, %2, %1" : "=&r" (result), "=Q" (*addr) : "r" (value) );
 8008d3a:	69f9      	ldr	r1, [r7, #28]
 8008d3c:	6a3a      	ldr	r2, [r7, #32]
 8008d3e:	e841 2300 	strex	r3, r2, [r1]
 8008d42:	61bb      	str	r3, [r7, #24]
   return(result);
 8008d44:	69bb      	ldr	r3, [r7, #24]
 8008d46:	2b00      	cmp	r3, #0
 8008d48:	d1e5      	bne.n	8008d16 <UART_Receive_IT+0xfe>

        /* Check if IDLE flag is set */
        if (__HAL_UART_GET_FLAG(huart, UART_FLAG_IDLE))
 8008d4a:	687b      	ldr	r3, [r7, #4]
 8008d4c:	681b      	ldr	r3, [r3, #0]
 8008d4e:	681b      	ldr	r3, [r3, #0]
 8008d50:	f003 0310 	and.w	r3, r3, #16
 8008d54:	2b10      	cmp	r3, #16
 8008d56:	d10a      	bne.n	8008d6e <UART_Receive_IT+0x156>
        {
          /* Clear IDLE flag in ISR */
          __HAL_UART_CLEAR_IDLEFLAG(huart);
 8008d58:	2300      	movs	r3, #0
 8008d5a:	60fb      	str	r3, [r7, #12]
 8008d5c:	687b      	ldr	r3, [r7, #4]
 8008d5e:	681b      	ldr	r3, [r3, #0]
 8008d60:	681b      	ldr	r3, [r3, #0]
 8008d62:	60fb      	str	r3, [r7, #12]
 8008d64:	687b      	ldr	r3, [r7, #4]
 8008d66:	681b      	ldr	r3, [r3, #0]
 8008d68:	685b      	ldr	r3, [r3, #4]
 8008d6a:	60fb      	str	r3, [r7, #12]
 8008d6c:	68fb      	ldr	r3, [r7, #12]
#if (USE_HAL_UART_REGISTER_CALLBACKS == 1)
        /*Call registered Rx Event callback*/
        huart->RxEventCallback(huart, huart->RxXferSize);
#else
        /*Call legacy weak Rx Event callback*/
        HAL_UARTEx_RxEventCallback(huart, huart->RxXferSize);
 8008d6e:	687b      	ldr	r3, [r7, #4]
 8008d70:	8d9b      	ldrh	r3, [r3, #44]	; 0x2c
 8008d72:	4619      	mov	r1, r3
 8008d74:	6878      	ldr	r0, [r7, #4]
 8008d76:	f7ff fdd1 	bl	800891c <HAL_UARTEx_RxEventCallback>
 8008d7a:	e002      	b.n	8008d82 <UART_Receive_IT+0x16a>
#if (USE_HAL_UART_REGISTER_CALLBACKS == 1)
        /*Call registered Rx complete callback*/
        huart->RxCpltCallback(huart);
#else
        /*Call legacy weak Rx complete callback*/
        HAL_UART_RxCpltCallback(huart);
 8008d7c:	6878      	ldr	r0, [r7, #4]
 8008d7e:	f7f9 ffbb 	bl	8002cf8 <HAL_UART_RxCpltCallback>
#endif /* USE_HAL_UART_REGISTER_CALLBACKS */
      }

      return HAL_OK;
 8008d82:	2300      	movs	r3, #0
 8008d84:	e002      	b.n	8008d8c <UART_Receive_IT+0x174>
    }
    return HAL_OK;
 8008d86:	2300      	movs	r3, #0
 8008d88:	e000      	b.n	8008d8c <UART_Receive_IT+0x174>
  }
  else
  {
    return HAL_BUSY;
 8008d8a:	2302      	movs	r3, #2
  }
}
 8008d8c:	4618      	mov	r0, r3
 8008d8e:	3730      	adds	r7, #48	; 0x30
 8008d90:	46bd      	mov	sp, r7
 8008d92:	bd80      	pop	{r7, pc}

08008d94 <UART_SetConfig>:
  * @param  huart  Pointer to a UART_HandleTypeDef structure that contains
  *                the configuration information for the specified UART module.
  * @retval None
  */
static void UART_SetConfig(UART_HandleTypeDef *huart)
{
 8008d94:	e92d 4fb0 	stmdb	sp!, {r4, r5, r7, r8, r9, sl, fp, lr}
 8008d98:	b0c0      	sub	sp, #256	; 0x100
 8008d9a:	af00      	add	r7, sp, #0
 8008d9c:	f8c7 00f4 	str.w	r0, [r7, #244]	; 0xf4
  assert_param(IS_UART_MODE(huart->Init.Mode));

  /*-------------------------- USART CR2 Configuration -----------------------*/
  /* Configure the UART Stop Bits: Set STOP[13:12] bits
     according to huart->Init.StopBits value */
  MODIFY_REG(huart->Instance->CR2, USART_CR2_STOP, huart->Init.StopBits);
 8008da0:	f8d7 30f4 	ldr.w	r3, [r7, #244]	; 0xf4
 8008da4:	681b      	ldr	r3, [r3, #0]
 8008da6:	691b      	ldr	r3, [r3, #16]
 8008da8:	f423 5040 	bic.w	r0, r3, #12288	; 0x3000
 8008dac:	f8d7 30f4 	ldr.w	r3, [r7, #244]	; 0xf4
 8008db0:	68d9      	ldr	r1, [r3, #12]
 8008db2:	f8d7 30f4 	ldr.w	r3, [r7, #244]	; 0xf4
 8008db6:	681a      	ldr	r2, [r3, #0]
 8008db8:	ea40 0301 	orr.w	r3, r0, r1
 8008dbc:	6113      	str	r3, [r2, #16]
     Set the M bits according to huart->Init.WordLength value
     Set PCE and PS bits according to huart->Init.Parity value
     Set TE and RE bits according to huart->Init.Mode value
     Set OVER8 bit according to huart->Init.OverSampling value */

  tmpreg = (uint32_t)huart->Init.WordLength | huart->Init.Parity | huart->Init.Mode | huart->Init.OverSampling;
 8008dbe:	f8d7 30f4 	ldr.w	r3, [r7, #244]	; 0xf4
 8008dc2:	689a      	ldr	r2, [r3, #8]
 8008dc4:	f8d7 30f4 	ldr.w	r3, [r7, #244]	; 0xf4
 8008dc8:	691b      	ldr	r3, [r3, #16]
 8008dca:	431a      	orrs	r2, r3
 8008dcc:	f8d7 30f4 	ldr.w	r3, [r7, #244]	; 0xf4
 8008dd0:	695b      	ldr	r3, [r3, #20]
 8008dd2:	431a      	orrs	r2, r3
 8008dd4:	f8d7 30f4 	ldr.w	r3, [r7, #244]	; 0xf4
 8008dd8:	69db      	ldr	r3, [r3, #28]
 8008dda:	4313      	orrs	r3, r2
 8008ddc:	f8c7 30f8 	str.w	r3, [r7, #248]	; 0xf8
  MODIFY_REG(huart->Instance->CR1,
 8008de0:	f8d7 30f4 	ldr.w	r3, [r7, #244]	; 0xf4
 8008de4:	681b      	ldr	r3, [r3, #0]
 8008de6:	68db      	ldr	r3, [r3, #12]
 8008de8:	f423 4116 	bic.w	r1, r3, #38400	; 0x9600
 8008dec:	f021 010c 	bic.w	r1, r1, #12
 8008df0:	f8d7 30f4 	ldr.w	r3, [r7, #244]	; 0xf4
 8008df4:	681a      	ldr	r2, [r3, #0]
 8008df6:	f8d7 30f8 	ldr.w	r3, [r7, #248]	; 0xf8
 8008dfa:	430b      	orrs	r3, r1
 8008dfc:	60d3      	str	r3, [r2, #12]
             (uint32_t)(USART_CR1_M | USART_CR1_PCE | USART_CR1_PS | USART_CR1_TE | USART_CR1_RE | USART_CR1_OVER8),
             tmpreg);

  /*-------------------------- USART CR3 Configuration -----------------------*/
  /* Configure the UART HFC: Set CTSE and RTSE bits according to huart->Init.HwFlowCtl value */
  MODIFY_REG(huart->Instance->CR3, (USART_CR3_RTSE | USART_CR3_CTSE), huart->Init.HwFlowCtl);
 8008dfe:	f8d7 30f4 	ldr.w	r3, [r7, #244]	; 0xf4
 8008e02:	681b      	ldr	r3, [r3, #0]
 8008e04:	695b      	ldr	r3, [r3, #20]
 8008e06:	f423 7040 	bic.w	r0, r3, #768	; 0x300
 8008e0a:	f8d7 30f4 	ldr.w	r3, [r7, #244]	; 0xf4
 8008e0e:	6999      	ldr	r1, [r3, #24]
 8008e10:	f8d7 30f4 	ldr.w	r3, [r7, #244]	; 0xf4
 8008e14:	681a      	ldr	r2, [r3, #0]
 8008e16:	ea40 0301 	orr.w	r3, r0, r1
 8008e1a:	6153      	str	r3, [r2, #20]
    if ((huart->Instance == USART1) || (huart->Instance == USART6) || (huart->Instance == UART9) || (huart->Instance == UART10))
    {
      pclk = HAL_RCC_GetPCLK2Freq();
    }
#elif defined(USART6)
    if ((huart->Instance == USART1) || (huart->Instance == USART6))
 8008e1c:	f8d7 30f4 	ldr.w	r3, [r7, #244]	; 0xf4
 8008e20:	681a      	ldr	r2, [r3, #0]
 8008e22:	4b8f      	ldr	r3, [pc, #572]	; (8009060 <UART_SetConfig+0x2cc>)
 8008e24:	429a      	cmp	r2, r3
 8008e26:	d005      	beq.n	8008e34 <UART_SetConfig+0xa0>
 8008e28:	f8d7 30f4 	ldr.w	r3, [r7, #244]	; 0xf4
 8008e2c:	681a      	ldr	r2, [r3, #0]
 8008e2e:	4b8d      	ldr	r3, [pc, #564]	; (8009064 <UART_SetConfig+0x2d0>)
 8008e30:	429a      	cmp	r2, r3
 8008e32:	d104      	bne.n	8008e3e <UART_SetConfig+0xaa>
    {
      pclk = HAL_RCC_GetPCLK2Freq();
 8008e34:	f7fd fab0 	bl	8006398 <HAL_RCC_GetPCLK2Freq>
 8008e38:	f8c7 00fc 	str.w	r0, [r7, #252]	; 0xfc
 8008e3c:	e003      	b.n	8008e46 <UART_SetConfig+0xb2>
      pclk = HAL_RCC_GetPCLK2Freq();
    }
#endif /* USART6 */
    else
    {
      pclk = HAL_RCC_GetPCLK1Freq();
 8008e3e:	f7fd fa97 	bl	8006370 <HAL_RCC_GetPCLK1Freq>
 8008e42:	f8c7 00fc 	str.w	r0, [r7, #252]	; 0xfc
    }
  /*-------------------------- USART BRR Configuration ---------------------*/
  if (huart->Init.OverSampling == UART_OVERSAMPLING_8)
 8008e46:	f8d7 30f4 	ldr.w	r3, [r7, #244]	; 0xf4
 8008e4a:	69db      	ldr	r3, [r3, #28]
 8008e4c:	f5b3 4f00 	cmp.w	r3, #32768	; 0x8000
 8008e50:	f040 810c 	bne.w	800906c <UART_SetConfig+0x2d8>
  {
    huart->Instance->BRR = UART_BRR_SAMPLING8(pclk, huart->Init.BaudRate);
 8008e54:	f8d7 30fc 	ldr.w	r3, [r7, #252]	; 0xfc
 8008e58:	2200      	movs	r2, #0
 8008e5a:	f8c7 30e8 	str.w	r3, [r7, #232]	; 0xe8
 8008e5e:	f8c7 20ec 	str.w	r2, [r7, #236]	; 0xec
 8008e62:	e9d7 453a 	ldrd	r4, r5, [r7, #232]	; 0xe8
 8008e66:	4622      	mov	r2, r4
 8008e68:	462b      	mov	r3, r5
 8008e6a:	1891      	adds	r1, r2, r2
 8008e6c:	65b9      	str	r1, [r7, #88]	; 0x58
 8008e6e:	415b      	adcs	r3, r3
 8008e70:	65fb      	str	r3, [r7, #92]	; 0x5c
 8008e72:	e9d7 2316 	ldrd	r2, r3, [r7, #88]	; 0x58
 8008e76:	4621      	mov	r1, r4
 8008e78:	eb12 0801 	adds.w	r8, r2, r1
 8008e7c:	4629      	mov	r1, r5
 8008e7e:	eb43 0901 	adc.w	r9, r3, r1
 8008e82:	f04f 0200 	mov.w	r2, #0
 8008e86:	f04f 0300 	mov.w	r3, #0
 8008e8a:	ea4f 03c9 	mov.w	r3, r9, lsl #3
 8008e8e:	ea43 7358 	orr.w	r3, r3, r8, lsr #29
 8008e92:	ea4f 02c8 	mov.w	r2, r8, lsl #3
 8008e96:	4690      	mov	r8, r2
 8008e98:	4699      	mov	r9, r3
 8008e9a:	4623      	mov	r3, r4
 8008e9c:	eb18 0303 	adds.w	r3, r8, r3
 8008ea0:	f8c7 30e0 	str.w	r3, [r7, #224]	; 0xe0
 8008ea4:	462b      	mov	r3, r5
 8008ea6:	eb49 0303 	adc.w	r3, r9, r3
 8008eaa:	f8c7 30e4 	str.w	r3, [r7, #228]	; 0xe4
 8008eae:	f8d7 30f4 	ldr.w	r3, [r7, #244]	; 0xf4
 8008eb2:	685b      	ldr	r3, [r3, #4]
 8008eb4:	2200      	movs	r2, #0
 8008eb6:	f8c7 30d8 	str.w	r3, [r7, #216]	; 0xd8
 8008eba:	f8c7 20dc 	str.w	r2, [r7, #220]	; 0xdc
 8008ebe:	e9d7 1236 	ldrd	r1, r2, [r7, #216]	; 0xd8
 8008ec2:	460b      	mov	r3, r1
 8008ec4:	18db      	adds	r3, r3, r3
 8008ec6:	653b      	str	r3, [r7, #80]	; 0x50
 8008ec8:	4613      	mov	r3, r2
 8008eca:	eb42 0303 	adc.w	r3, r2, r3
 8008ece:	657b      	str	r3, [r7, #84]	; 0x54
 8008ed0:	e9d7 2314 	ldrd	r2, r3, [r7, #80]	; 0x50
 8008ed4:	e9d7 0138 	ldrd	r0, r1, [r7, #224]	; 0xe0
 8008ed8:	f7f7 f990 	bl	80001fc <__aeabi_uldivmod>
 8008edc:	4602      	mov	r2, r0
 8008ede:	460b      	mov	r3, r1
 8008ee0:	4b61      	ldr	r3, [pc, #388]	; (8009068 <UART_SetConfig+0x2d4>)
 8008ee2:	fba3 2302 	umull	r2, r3, r3, r2
 8008ee6:	095b      	lsrs	r3, r3, #5
 8008ee8:	011c      	lsls	r4, r3, #4
 8008eea:	f8d7 30fc 	ldr.w	r3, [r7, #252]	; 0xfc
 8008eee:	2200      	movs	r2, #0
 8008ef0:	f8c7 30d0 	str.w	r3, [r7, #208]	; 0xd0
 8008ef4:	f8c7 20d4 	str.w	r2, [r7, #212]	; 0xd4
 8008ef8:	e9d7 8934 	ldrd	r8, r9, [r7, #208]	; 0xd0
 8008efc:	4642      	mov	r2, r8
 8008efe:	464b      	mov	r3, r9
 8008f00:	1891      	adds	r1, r2, r2
 8008f02:	64b9      	str	r1, [r7, #72]	; 0x48
 8008f04:	415b      	adcs	r3, r3
 8008f06:	64fb      	str	r3, [r7, #76]	; 0x4c
 8008f08:	e9d7 2312 	ldrd	r2, r3, [r7, #72]	; 0x48
 8008f0c:	4641      	mov	r1, r8
 8008f0e:	eb12 0a01 	adds.w	sl, r2, r1
 8008f12:	4649      	mov	r1, r9
 8008f14:	eb43 0b01 	adc.w	fp, r3, r1
 8008f18:	f04f 0200 	mov.w	r2, #0
 8008f1c:	f04f 0300 	mov.w	r3, #0
 8008f20:	ea4f 03cb 	mov.w	r3, fp, lsl #3
 8008f24:	ea43 735a 	orr.w	r3, r3, sl, lsr #29
 8008f28:	ea4f 02ca 	mov.w	r2, sl, lsl #3
 8008f2c:	4692      	mov	sl, r2
 8008f2e:	469b      	mov	fp, r3
 8008f30:	4643      	mov	r3, r8
 8008f32:	eb1a 0303 	adds.w	r3, sl, r3
 8008f36:	f8c7 30c8 	str.w	r3, [r7, #200]	; 0xc8
 8008f3a:	464b      	mov	r3, r9
 8008f3c:	eb4b 0303 	adc.w	r3, fp, r3
 8008f40:	f8c7 30cc 	str.w	r3, [r7, #204]	; 0xcc
 8008f44:	f8d7 30f4 	ldr.w	r3, [r7, #244]	; 0xf4
 8008f48:	685b      	ldr	r3, [r3, #4]
 8008f4a:	2200      	movs	r2, #0
 8008f4c:	f8c7 30c0 	str.w	r3, [r7, #192]	; 0xc0
 8008f50:	f8c7 20c4 	str.w	r2, [r7, #196]	; 0xc4
 8008f54:	e9d7 1230 	ldrd	r1, r2, [r7, #192]	; 0xc0
 8008f58:	460b      	mov	r3, r1
 8008f5a:	18db      	adds	r3, r3, r3
 8008f5c:	643b      	str	r3, [r7, #64]	; 0x40
 8008f5e:	4613      	mov	r3, r2
 8008f60:	eb42 0303 	adc.w	r3, r2, r3
 8008f64:	647b      	str	r3, [r7, #68]	; 0x44
 8008f66:	e9d7 2310 	ldrd	r2, r3, [r7, #64]	; 0x40
 8008f6a:	e9d7 0132 	ldrd	r0, r1, [r7, #200]	; 0xc8
 8008f6e:	f7f7 f945 	bl	80001fc <__aeabi_uldivmod>
 8008f72:	4602      	mov	r2, r0
 8008f74:	460b      	mov	r3, r1
 8008f76:	4611      	mov	r1, r2
 8008f78:	4b3b      	ldr	r3, [pc, #236]	; (8009068 <UART_SetConfig+0x2d4>)
 8008f7a:	fba3 2301 	umull	r2, r3, r3, r1
 8008f7e:	095b      	lsrs	r3, r3, #5
 8008f80:	2264      	movs	r2, #100	; 0x64
 8008f82:	fb02 f303 	mul.w	r3, r2, r3
 8008f86:	1acb      	subs	r3, r1, r3
 8008f88:	00db      	lsls	r3, r3, #3
 8008f8a:	f103 0232 	add.w	r2, r3, #50	; 0x32
 8008f8e:	4b36      	ldr	r3, [pc, #216]	; (8009068 <UART_SetConfig+0x2d4>)
 8008f90:	fba3 2302 	umull	r2, r3, r3, r2
 8008f94:	095b      	lsrs	r3, r3, #5
 8008f96:	005b      	lsls	r3, r3, #1
 8008f98:	f403 73f8 	and.w	r3, r3, #496	; 0x1f0
 8008f9c:	441c      	add	r4, r3
 8008f9e:	f8d7 30fc 	ldr.w	r3, [r7, #252]	; 0xfc
 8008fa2:	2200      	movs	r2, #0
 8008fa4:	f8c7 30b8 	str.w	r3, [r7, #184]	; 0xb8
 8008fa8:	f8c7 20bc 	str.w	r2, [r7, #188]	; 0xbc
 8008fac:	e9d7 892e 	ldrd	r8, r9, [r7, #184]	; 0xb8
 8008fb0:	4642      	mov	r2, r8
 8008fb2:	464b      	mov	r3, r9
 8008fb4:	1891      	adds	r1, r2, r2
 8008fb6:	63b9      	str	r1, [r7, #56]	; 0x38
 8008fb8:	415b      	adcs	r3, r3
 8008fba:	63fb      	str	r3, [r7, #60]	; 0x3c
 8008fbc:	e9d7 230e 	ldrd	r2, r3, [r7, #56]	; 0x38
 8008fc0:	4641      	mov	r1, r8
 8008fc2:	1851      	adds	r1, r2, r1
 8008fc4:	6339      	str	r1, [r7, #48]	; 0x30
 8008fc6:	4649      	mov	r1, r9
 8008fc8:	414b      	adcs	r3, r1
 8008fca:	637b      	str	r3, [r7, #52]	; 0x34
 8008fcc:	f04f 0200 	mov.w	r2, #0
 8008fd0:	f04f 0300 	mov.w	r3, #0
 8008fd4:	e9d7 ab0c 	ldrd	sl, fp, [r7, #48]	; 0x30
 8008fd8:	4659      	mov	r1, fp
 8008fda:	00cb      	lsls	r3, r1, #3
 8008fdc:	4651      	mov	r1, sl
 8008fde:	ea43 7351 	orr.w	r3, r3, r1, lsr #29
 8008fe2:	4651      	mov	r1, sl
 8008fe4:	00ca      	lsls	r2, r1, #3
 8008fe6:	4610      	mov	r0, r2
 8008fe8:	4619      	mov	r1, r3
 8008fea:	4603      	mov	r3, r0
 8008fec:	4642      	mov	r2, r8
 8008fee:	189b      	adds	r3, r3, r2
 8008ff0:	f8c7 30b0 	str.w	r3, [r7, #176]	; 0xb0
 8008ff4:	464b      	mov	r3, r9
 8008ff6:	460a      	mov	r2, r1
 8008ff8:	eb42 0303 	adc.w	r3, r2, r3
 8008ffc:	f8c7 30b4 	str.w	r3, [r7, #180]	; 0xb4
 8009000:	f8d7 30f4 	ldr.w	r3, [r7, #244]	; 0xf4
 8009004:	685b      	ldr	r3, [r3, #4]
 8009006:	2200      	movs	r2, #0
 8009008:	f8c7 30a8 	str.w	r3, [r7, #168]	; 0xa8
 800900c:	f8c7 20ac 	str.w	r2, [r7, #172]	; 0xac
 8009010:	e9d7 122a 	ldrd	r1, r2, [r7, #168]	; 0xa8
 8009014:	460b      	mov	r3, r1
 8009016:	18db      	adds	r3, r3, r3
 8009018:	62bb      	str	r3, [r7, #40]	; 0x28
 800901a:	4613      	mov	r3, r2
 800901c:	eb42 0303 	adc.w	r3, r2, r3
 8009020:	62fb      	str	r3, [r7, #44]	; 0x2c
 8009022:	e9d7 230a 	ldrd	r2, r3, [r7, #40]	; 0x28
 8009026:	e9d7 012c 	ldrd	r0, r1, [r7, #176]	; 0xb0
 800902a:	f7f7 f8e7 	bl	80001fc <__aeabi_uldivmod>
 800902e:	4602      	mov	r2, r0
 8009030:	460b      	mov	r3, r1
 8009032:	4b0d      	ldr	r3, [pc, #52]	; (8009068 <UART_SetConfig+0x2d4>)
 8009034:	fba3 1302 	umull	r1, r3, r3, r2
 8009038:	095b      	lsrs	r3, r3, #5
 800903a:	2164      	movs	r1, #100	; 0x64
 800903c:	fb01 f303 	mul.w	r3, r1, r3
 8009040:	1ad3      	subs	r3, r2, r3
 8009042:	00db      	lsls	r3, r3, #3
 8009044:	3332      	adds	r3, #50	; 0x32
 8009046:	4a08      	ldr	r2, [pc, #32]	; (8009068 <UART_SetConfig+0x2d4>)
 8009048:	fba2 2303 	umull	r2, r3, r2, r3
 800904c:	095b      	lsrs	r3, r3, #5
 800904e:	f003 0207 	and.w	r2, r3, #7
 8009052:	f8d7 30f4 	ldr.w	r3, [r7, #244]	; 0xf4
 8009056:	681b      	ldr	r3, [r3, #0]
 8009058:	4422      	add	r2, r4
 800905a:	609a      	str	r2, [r3, #8]
  }
  else
  {
    huart->Instance->BRR = UART_BRR_SAMPLING16(pclk, huart->Init.BaudRate);
  }
}
 800905c:	e106      	b.n	800926c <UART_SetConfig+0x4d8>
 800905e:	bf00      	nop
 8009060:	40011000 	.word	0x40011000
 8009064:	40011400 	.word	0x40011400
 8009068:	51eb851f 	.word	0x51eb851f
    huart->Instance->BRR = UART_BRR_SAMPLING16(pclk, huart->Init.BaudRate);
 800906c:	f8d7 30fc 	ldr.w	r3, [r7, #252]	; 0xfc
 8009070:	2200      	movs	r2, #0
 8009072:	f8c7 30a0 	str.w	r3, [r7, #160]	; 0xa0
 8009076:	f8c7 20a4 	str.w	r2, [r7, #164]	; 0xa4
 800907a:	e9d7 8928 	ldrd	r8, r9, [r7, #160]	; 0xa0
 800907e:	4642      	mov	r2, r8
 8009080:	464b      	mov	r3, r9
 8009082:	1891      	adds	r1, r2, r2
 8009084:	6239      	str	r1, [r7, #32]
 8009086:	415b      	adcs	r3, r3
 8009088:	627b      	str	r3, [r7, #36]	; 0x24
 800908a:	e9d7 2308 	ldrd	r2, r3, [r7, #32]
 800908e:	4641      	mov	r1, r8
 8009090:	1854      	adds	r4, r2, r1
 8009092:	4649      	mov	r1, r9
 8009094:	eb43 0501 	adc.w	r5, r3, r1
 8009098:	f04f 0200 	mov.w	r2, #0
 800909c:	f04f 0300 	mov.w	r3, #0
 80090a0:	00eb      	lsls	r3, r5, #3
 80090a2:	ea43 7354 	orr.w	r3, r3, r4, lsr #29
 80090a6:	00e2      	lsls	r2, r4, #3
 80090a8:	4614      	mov	r4, r2
 80090aa:	461d      	mov	r5, r3
 80090ac:	4643      	mov	r3, r8
 80090ae:	18e3      	adds	r3, r4, r3
 80090b0:	f8c7 3098 	str.w	r3, [r7, #152]	; 0x98
 80090b4:	464b      	mov	r3, r9
 80090b6:	eb45 0303 	adc.w	r3, r5, r3
 80090ba:	f8c7 309c 	str.w	r3, [r7, #156]	; 0x9c
 80090be:	f8d7 30f4 	ldr.w	r3, [r7, #244]	; 0xf4
 80090c2:	685b      	ldr	r3, [r3, #4]
 80090c4:	2200      	movs	r2, #0
 80090c6:	f8c7 3090 	str.w	r3, [r7, #144]	; 0x90
 80090ca:	f8c7 2094 	str.w	r2, [r7, #148]	; 0x94
 80090ce:	f04f 0200 	mov.w	r2, #0
 80090d2:	f04f 0300 	mov.w	r3, #0
 80090d6:	e9d7 4524 	ldrd	r4, r5, [r7, #144]	; 0x90
 80090da:	4629      	mov	r1, r5
 80090dc:	008b      	lsls	r3, r1, #2
 80090de:	4621      	mov	r1, r4
 80090e0:	ea43 7391 	orr.w	r3, r3, r1, lsr #30
 80090e4:	4621      	mov	r1, r4
 80090e6:	008a      	lsls	r2, r1, #2
 80090e8:	e9d7 0126 	ldrd	r0, r1, [r7, #152]	; 0x98
 80090ec:	f7f7 f886 	bl	80001fc <__aeabi_uldivmod>
 80090f0:	4602      	mov	r2, r0
 80090f2:	460b      	mov	r3, r1
 80090f4:	4b60      	ldr	r3, [pc, #384]	; (8009278 <UART_SetConfig+0x4e4>)
 80090f6:	fba3 2302 	umull	r2, r3, r3, r2
 80090fa:	095b      	lsrs	r3, r3, #5
 80090fc:	011c      	lsls	r4, r3, #4
 80090fe:	f8d7 30fc 	ldr.w	r3, [r7, #252]	; 0xfc
 8009102:	2200      	movs	r2, #0
 8009104:	f8c7 3088 	str.w	r3, [r7, #136]	; 0x88
 8009108:	f8c7 208c 	str.w	r2, [r7, #140]	; 0x8c
 800910c:	e9d7 8922 	ldrd	r8, r9, [r7, #136]	; 0x88
 8009110:	4642      	mov	r2, r8
 8009112:	464b      	mov	r3, r9
 8009114:	1891      	adds	r1, r2, r2
 8009116:	61b9      	str	r1, [r7, #24]
 8009118:	415b      	adcs	r3, r3
 800911a:	61fb      	str	r3, [r7, #28]
 800911c:	e9d7 2306 	ldrd	r2, r3, [r7, #24]
 8009120:	4641      	mov	r1, r8
 8009122:	1851      	adds	r1, r2, r1
 8009124:	6139      	str	r1, [r7, #16]
 8009126:	4649      	mov	r1, r9
 8009128:	414b      	adcs	r3, r1
 800912a:	617b      	str	r3, [r7, #20]
 800912c:	f04f 0200 	mov.w	r2, #0
 8009130:	f04f 0300 	mov.w	r3, #0
 8009134:	e9d7 ab04 	ldrd	sl, fp, [r7, #16]
 8009138:	4659      	mov	r1, fp
 800913a:	00cb      	lsls	r3, r1, #3
 800913c:	4651      	mov	r1, sl
 800913e:	ea43 7351 	orr.w	r3, r3, r1, lsr #29
 8009142:	4651      	mov	r1, sl
 8009144:	00ca      	lsls	r2, r1, #3
 8009146:	4610      	mov	r0, r2
 8009148:	4619      	mov	r1, r3
 800914a:	4603      	mov	r3, r0
 800914c:	4642      	mov	r2, r8
 800914e:	189b      	adds	r3, r3, r2
 8009150:	f8c7 3080 	str.w	r3, [r7, #128]	; 0x80
 8009154:	464b      	mov	r3, r9
 8009156:	460a      	mov	r2, r1
 8009158:	eb42 0303 	adc.w	r3, r2, r3
 800915c:	f8c7 3084 	str.w	r3, [r7, #132]	; 0x84
 8009160:	f8d7 30f4 	ldr.w	r3, [r7, #244]	; 0xf4
 8009164:	685b      	ldr	r3, [r3, #4]
 8009166:	2200      	movs	r2, #0
 8009168:	67bb      	str	r3, [r7, #120]	; 0x78
 800916a:	67fa      	str	r2, [r7, #124]	; 0x7c
 800916c:	f04f 0200 	mov.w	r2, #0
 8009170:	f04f 0300 	mov.w	r3, #0
 8009174:	e9d7 891e 	ldrd	r8, r9, [r7, #120]	; 0x78
 8009178:	4649      	mov	r1, r9
 800917a:	008b      	lsls	r3, r1, #2
 800917c:	4641      	mov	r1, r8
 800917e:	ea43 7391 	orr.w	r3, r3, r1, lsr #30
 8009182:	4641      	mov	r1, r8
 8009184:	008a      	lsls	r2, r1, #2
 8009186:	e9d7 0120 	ldrd	r0, r1, [r7, #128]	; 0x80
 800918a:	f7f7 f837 	bl	80001fc <__aeabi_uldivmod>
 800918e:	4602      	mov	r2, r0
 8009190:	460b      	mov	r3, r1
 8009192:	4611      	mov	r1, r2
 8009194:	4b38      	ldr	r3, [pc, #224]	; (8009278 <UART_SetConfig+0x4e4>)
 8009196:	fba3 2301 	umull	r2, r3, r3, r1
 800919a:	095b      	lsrs	r3, r3, #5
 800919c:	2264      	movs	r2, #100	; 0x64
 800919e:	fb02 f303 	mul.w	r3, r2, r3
 80091a2:	1acb      	subs	r3, r1, r3
 80091a4:	011b      	lsls	r3, r3, #4
 80091a6:	3332      	adds	r3, #50	; 0x32
 80091a8:	4a33      	ldr	r2, [pc, #204]	; (8009278 <UART_SetConfig+0x4e4>)
 80091aa:	fba2 2303 	umull	r2, r3, r2, r3
 80091ae:	095b      	lsrs	r3, r3, #5
 80091b0:	f003 03f0 	and.w	r3, r3, #240	; 0xf0
 80091b4:	441c      	add	r4, r3
 80091b6:	f8d7 30fc 	ldr.w	r3, [r7, #252]	; 0xfc
 80091ba:	2200      	movs	r2, #0
 80091bc:	673b      	str	r3, [r7, #112]	; 0x70
 80091be:	677a      	str	r2, [r7, #116]	; 0x74
 80091c0:	e9d7 891c 	ldrd	r8, r9, [r7, #112]	; 0x70
 80091c4:	4642      	mov	r2, r8
 80091c6:	464b      	mov	r3, r9
 80091c8:	1891      	adds	r1, r2, r2
 80091ca:	60b9      	str	r1, [r7, #8]
 80091cc:	415b      	adcs	r3, r3
 80091ce:	60fb      	str	r3, [r7, #12]
 80091d0:	e9d7 2302 	ldrd	r2, r3, [r7, #8]
 80091d4:	4641      	mov	r1, r8
 80091d6:	1851      	adds	r1, r2, r1
 80091d8:	6039      	str	r1, [r7, #0]
 80091da:	4649      	mov	r1, r9
 80091dc:	414b      	adcs	r3, r1
 80091de:	607b      	str	r3, [r7, #4]
 80091e0:	f04f 0200 	mov.w	r2, #0
 80091e4:	f04f 0300 	mov.w	r3, #0
 80091e8:	e9d7 ab00 	ldrd	sl, fp, [r7]
 80091ec:	4659      	mov	r1, fp
 80091ee:	00cb      	lsls	r3, r1, #3
 80091f0:	4651      	mov	r1, sl
 80091f2:	ea43 7351 	orr.w	r3, r3, r1, lsr #29
 80091f6:	4651      	mov	r1, sl
 80091f8:	00ca      	lsls	r2, r1, #3
 80091fa:	4610      	mov	r0, r2
 80091fc:	4619      	mov	r1, r3
 80091fe:	4603      	mov	r3, r0
 8009200:	4642      	mov	r2, r8
 8009202:	189b      	adds	r3, r3, r2
 8009204:	66bb      	str	r3, [r7, #104]	; 0x68
 8009206:	464b      	mov	r3, r9
 8009208:	460a      	mov	r2, r1
 800920a:	eb42 0303 	adc.w	r3, r2, r3
 800920e:	66fb      	str	r3, [r7, #108]	; 0x6c
 8009210:	f8d7 30f4 	ldr.w	r3, [r7, #244]	; 0xf4
 8009214:	685b      	ldr	r3, [r3, #4]
 8009216:	2200      	movs	r2, #0
 8009218:	663b      	str	r3, [r7, #96]	; 0x60
 800921a:	667a      	str	r2, [r7, #100]	; 0x64
 800921c:	f04f 0200 	mov.w	r2, #0
 8009220:	f04f 0300 	mov.w	r3, #0
 8009224:	e9d7 8918 	ldrd	r8, r9, [r7, #96]	; 0x60
 8009228:	4649      	mov	r1, r9
 800922a:	008b      	lsls	r3, r1, #2
 800922c:	4641      	mov	r1, r8
 800922e:	ea43 7391 	orr.w	r3, r3, r1, lsr #30
 8009232:	4641      	mov	r1, r8
 8009234:	008a      	lsls	r2, r1, #2
 8009236:	e9d7 011a 	ldrd	r0, r1, [r7, #104]	; 0x68
 800923a:	f7f6 ffdf 	bl	80001fc <__aeabi_uldivmod>
 800923e:	4602      	mov	r2, r0
 8009240:	460b      	mov	r3, r1
 8009242:	4b0d      	ldr	r3, [pc, #52]	; (8009278 <UART_SetConfig+0x4e4>)
 8009244:	fba3 1302 	umull	r1, r3, r3, r2
 8009248:	095b      	lsrs	r3, r3, #5
 800924a:	2164      	movs	r1, #100	; 0x64
 800924c:	fb01 f303 	mul.w	r3, r1, r3
 8009250:	1ad3      	subs	r3, r2, r3
 8009252:	011b      	lsls	r3, r3, #4
 8009254:	3332      	adds	r3, #50	; 0x32
 8009256:	4a08      	ldr	r2, [pc, #32]	; (8009278 <UART_SetConfig+0x4e4>)
 8009258:	fba2 2303 	umull	r2, r3, r2, r3
 800925c:	095b      	lsrs	r3, r3, #5
 800925e:	f003 020f 	and.w	r2, r3, #15
 8009262:	f8d7 30f4 	ldr.w	r3, [r7, #244]	; 0xf4
 8009266:	681b      	ldr	r3, [r3, #0]
 8009268:	4422      	add	r2, r4
 800926a:	609a      	str	r2, [r3, #8]
}
 800926c:	bf00      	nop
 800926e:	f507 7780 	add.w	r7, r7, #256	; 0x100
 8009272:	46bd      	mov	sp, r7
 8009274:	e8bd 8fb0 	ldmia.w	sp!, {r4, r5, r7, r8, r9, sl, fp, pc}
 8009278:	51eb851f 	.word	0x51eb851f

0800927c <memset>:
 800927c:	4402      	add	r2, r0
 800927e:	4603      	mov	r3, r0
 8009280:	4293      	cmp	r3, r2
 8009282:	d100      	bne.n	8009286 <memset+0xa>
 8009284:	4770      	bx	lr
 8009286:	f803 1b01 	strb.w	r1, [r3], #1
 800928a:	e7f9      	b.n	8009280 <memset+0x4>

0800928c <__libc_init_array>:
 800928c:	b570      	push	{r4, r5, r6, lr}
 800928e:	4d0d      	ldr	r5, [pc, #52]	; (80092c4 <__libc_init_array+0x38>)
 8009290:	4c0d      	ldr	r4, [pc, #52]	; (80092c8 <__libc_init_array+0x3c>)
 8009292:	1b64      	subs	r4, r4, r5
 8009294:	10a4      	asrs	r4, r4, #2
 8009296:	2600      	movs	r6, #0
 8009298:	42a6      	cmp	r6, r4
 800929a:	d109      	bne.n	80092b0 <__libc_init_array+0x24>
 800929c:	4d0b      	ldr	r5, [pc, #44]	; (80092cc <__libc_init_array+0x40>)
 800929e:	4c0c      	ldr	r4, [pc, #48]	; (80092d0 <__libc_init_array+0x44>)
 80092a0:	f000 f818 	bl	80092d4 <_init>
 80092a4:	1b64      	subs	r4, r4, r5
 80092a6:	10a4      	asrs	r4, r4, #2
 80092a8:	2600      	movs	r6, #0
 80092aa:	42a6      	cmp	r6, r4
 80092ac:	d105      	bne.n	80092ba <__libc_init_array+0x2e>
 80092ae:	bd70      	pop	{r4, r5, r6, pc}
 80092b0:	f855 3b04 	ldr.w	r3, [r5], #4
 80092b4:	4798      	blx	r3
 80092b6:	3601      	adds	r6, #1
 80092b8:	e7ee      	b.n	8009298 <__libc_init_array+0xc>
 80092ba:	f855 3b04 	ldr.w	r3, [r5], #4
 80092be:	4798      	blx	r3
 80092c0:	3601      	adds	r6, #1
 80092c2:	e7f2      	b.n	80092aa <__libc_init_array+0x1e>
 80092c4:	080093ac 	.word	0x080093ac
 80092c8:	080093ac 	.word	0x080093ac
 80092cc:	080093ac 	.word	0x080093ac
 80092d0:	080093b0 	.word	0x080093b0

080092d4 <_init>:
 80092d4:	b5f8      	push	{r3, r4, r5, r6, r7, lr}
 80092d6:	bf00      	nop
 80092d8:	bcf8      	pop	{r3, r4, r5, r6, r7}
 80092da:	bc08      	pop	{r3}
 80092dc:	469e      	mov	lr, r3
 80092de:	4770      	bx	lr

080092e0 <_fini>:
 80092e0:	b5f8      	push	{r3, r4, r5, r6, r7, lr}
 80092e2:	bf00      	nop
 80092e4:	bcf8      	pop	{r3, r4, r5, r6, r7}
 80092e6:	bc08      	pop	{r3}
 80092e8:	469e      	mov	lr, r3
 80092ea:	4770      	bx	lr
