
AuroraV_Payload_F439.elf:     file format elf32-littlearm

Sections:
Idx Name          Size      VMA       LMA       File off  Algn
  0 .isr_vector   000001ac  08000000  08000000  00001000  2**0
                  CONTENTS, ALLOC, LOAD, READONLY, DATA
  1 .text         00009774  080001ac  080001ac  000011ac  2**2
                  CONTENTS, ALLOC, LOAD, READONLY, CODE
  2 .rodata       000000b8  08009920  08009920  0000a920  2**2
                  CONTENTS, ALLOC, LOAD, READONLY, DATA
  3 .ARM.extab    00000000  080099d8  080099d8  0000b028  2**0
                  CONTENTS
  4 .ARM          00000008  080099d8  080099d8  0000a9d8  2**2
                  CONTENTS, ALLOC, LOAD, READONLY, DATA
  5 .preinit_array 00000000  080099e0  080099e0  0000b028  2**0
                  CONTENTS, ALLOC, LOAD, DATA
  6 .init_array   00000004  080099e0  080099e0  0000a9e0  2**2
                  CONTENTS, ALLOC, LOAD, DATA
  7 .fini_array   00000004  080099e4  080099e4  0000a9e4  2**2
                  CONTENTS, ALLOC, LOAD, DATA
  8 .data         00000028  20000000  080099e8  0000b000  2**2
                  CONTENTS, ALLOC, LOAD, DATA
  9 .ccmram       00000000  10000000  10000000  0000b028  2**0
                  CONTENTS
 10 .bss          00000610  20000028  20000028  0000b028  2**2
                  ALLOC
 11 ._user_heap_stack 00000600  20000638  20000638  0000b028  2**0
                  ALLOC
 12 .ARM.attributes 00000030  00000000  00000000  0000b028  2**0
                  CONTENTS, READONLY
 13 .debug_info   0001d6b0  00000000  00000000  0000b058  2**0
                  CONTENTS, READONLY, DEBUGGING, OCTETS
 14 .debug_abbrev 000040f9  00000000  00000000  00028708  2**0
                  CONTENTS, READONLY, DEBUGGING, OCTETS
 15 .debug_aranges 000017a8  00000000  00000000  0002c808  2**3
                  CONTENTS, READONLY, DEBUGGING, OCTETS
 16 .debug_rnglists 0000125d  00000000  00000000  0002dfb0  2**0
                  CONTENTS, READONLY, DEBUGGING, OCTETS
 17 .debug_macro  0002804e  00000000  00000000  0002f20d  2**0
                  CONTENTS, READONLY, DEBUGGING, OCTETS
 18 .debug_line   0001e57f  00000000  00000000  0005725b  2**0
                  CONTENTS, READONLY, DEBUGGING, OCTETS
 19 .debug_str    000ea24e  00000000  00000000  000757da  2**0
                  CONTENTS, READONLY, DEBUGGING, OCTETS
 20 .comment      00000043  00000000  00000000  0015fa28  2**0
                  CONTENTS, READONLY
 21 .debug_frame  00006280  00000000  00000000  0015fa6c  2**2
                  CONTENTS, READONLY, DEBUGGING, OCTETS
 22 .debug_line_str 00000060  00000000  00000000  00165cec  2**0
                  CONTENTS, READONLY, DEBUGGING, OCTETS

Disassembly of section .text:

080001ac <__do_global_dtors_aux>:
 80001ac:	b510      	push	{r4, lr}
 80001ae:	4c05      	ldr	r4, [pc, #20]	@ (80001c4 <__do_global_dtors_aux+0x18>)
 80001b0:	7823      	ldrb	r3, [r4, #0]
 80001b2:	b933      	cbnz	r3, 80001c2 <__do_global_dtors_aux+0x16>
 80001b4:	4b04      	ldr	r3, [pc, #16]	@ (80001c8 <__do_global_dtors_aux+0x1c>)
 80001b6:	b113      	cbz	r3, 80001be <__do_global_dtors_aux+0x12>
 80001b8:	4804      	ldr	r0, [pc, #16]	@ (80001cc <__do_global_dtors_aux+0x20>)
 80001ba:	f3af 8000 	nop.w
 80001be:	2301      	movs	r3, #1
 80001c0:	7023      	strb	r3, [r4, #0]
 80001c2:	bd10      	pop	{r4, pc}
 80001c4:	20000028 	.word	0x20000028
 80001c8:	00000000 	.word	0x00000000
 80001cc:	08009908 	.word	0x08009908

080001d0 <frame_dummy>:
 80001d0:	b508      	push	{r3, lr}
 80001d2:	4b03      	ldr	r3, [pc, #12]	@ (80001e0 <frame_dummy+0x10>)
 80001d4:	b11b      	cbz	r3, 80001de <frame_dummy+0xe>
 80001d6:	4903      	ldr	r1, [pc, #12]	@ (80001e4 <frame_dummy+0x14>)
 80001d8:	4803      	ldr	r0, [pc, #12]	@ (80001e8 <frame_dummy+0x18>)
 80001da:	f3af 8000 	nop.w
 80001de:	bd08      	pop	{r3, pc}
 80001e0:	00000000 	.word	0x00000000
 80001e4:	2000002c 	.word	0x2000002c
 80001e8:	08009908 	.word	0x08009908

080001ec <strlen>:
 80001ec:	4603      	mov	r3, r0
 80001ee:	f813 2b01 	ldrb.w	r2, [r3], #1
 80001f2:	2a00      	cmp	r2, #0
 80001f4:	d1fb      	bne.n	80001ee <strlen+0x2>
 80001f6:	1a18      	subs	r0, r3, r0
 80001f8:	3801      	subs	r0, #1
 80001fa:	4770      	bx	lr

080001fc <__aeabi_uldivmod>:
 80001fc:	b953      	cbnz	r3, 8000214 <__aeabi_uldivmod+0x18>
 80001fe:	b94a      	cbnz	r2, 8000214 <__aeabi_uldivmod+0x18>
 8000200:	2900      	cmp	r1, #0
 8000202:	bf08      	it	eq
 8000204:	2800      	cmpeq	r0, #0
 8000206:	bf1c      	itt	ne
 8000208:	f04f 31ff 	movne.w	r1, #4294967295	@ 0xffffffff
 800020c:	f04f 30ff 	movne.w	r0, #4294967295	@ 0xffffffff
 8000210:	f000 b96a 	b.w	80004e8 <__aeabi_idiv0>
 8000214:	f1ad 0c08 	sub.w	ip, sp, #8
 8000218:	e96d ce04 	strd	ip, lr, [sp, #-16]!
 800021c:	f000 f806 	bl	800022c <__udivmoddi4>
 8000220:	f8dd e004 	ldr.w	lr, [sp, #4]
 8000224:	e9dd 2302 	ldrd	r2, r3, [sp, #8]
 8000228:	b004      	add	sp, #16
 800022a:	4770      	bx	lr

0800022c <__udivmoddi4>:
 800022c:	e92d 47f0 	stmdb	sp!, {r4, r5, r6, r7, r8, r9, sl, lr}
 8000230:	9d08      	ldr	r5, [sp, #32]
 8000232:	460c      	mov	r4, r1
 8000234:	2b00      	cmp	r3, #0
 8000236:	d14e      	bne.n	80002d6 <__udivmoddi4+0xaa>
 8000238:	4694      	mov	ip, r2
 800023a:	458c      	cmp	ip, r1
 800023c:	4686      	mov	lr, r0
 800023e:	fab2 f282 	clz	r2, r2
 8000242:	d962      	bls.n	800030a <__udivmoddi4+0xde>
 8000244:	b14a      	cbz	r2, 800025a <__udivmoddi4+0x2e>
 8000246:	f1c2 0320 	rsb	r3, r2, #32
 800024a:	4091      	lsls	r1, r2
 800024c:	fa20 f303 	lsr.w	r3, r0, r3
 8000250:	fa0c fc02 	lsl.w	ip, ip, r2
 8000254:	4319      	orrs	r1, r3
 8000256:	fa00 fe02 	lsl.w	lr, r0, r2
 800025a:	ea4f 471c 	mov.w	r7, ip, lsr #16
 800025e:	fa1f f68c 	uxth.w	r6, ip
 8000262:	fbb1 f4f7 	udiv	r4, r1, r7
 8000266:	ea4f 431e 	mov.w	r3, lr, lsr #16
 800026a:	fb07 1114 	mls	r1, r7, r4, r1
 800026e:	ea43 4301 	orr.w	r3, r3, r1, lsl #16
 8000272:	fb04 f106 	mul.w	r1, r4, r6
 8000276:	4299      	cmp	r1, r3
 8000278:	d90a      	bls.n	8000290 <__udivmoddi4+0x64>
 800027a:	eb1c 0303 	adds.w	r3, ip, r3
 800027e:	f104 30ff 	add.w	r0, r4, #4294967295	@ 0xffffffff
 8000282:	f080 8112 	bcs.w	80004aa <__udivmoddi4+0x27e>
 8000286:	4299      	cmp	r1, r3
 8000288:	f240 810f 	bls.w	80004aa <__udivmoddi4+0x27e>
 800028c:	3c02      	subs	r4, #2
 800028e:	4463      	add	r3, ip
 8000290:	1a59      	subs	r1, r3, r1
 8000292:	fa1f f38e 	uxth.w	r3, lr
 8000296:	fbb1 f0f7 	udiv	r0, r1, r7
 800029a:	fb07 1110 	mls	r1, r7, r0, r1
 800029e:	ea43 4301 	orr.w	r3, r3, r1, lsl #16
 80002a2:	fb00 f606 	mul.w	r6, r0, r6
 80002a6:	429e      	cmp	r6, r3
 80002a8:	d90a      	bls.n	80002c0 <__udivmoddi4+0x94>
 80002aa:	eb1c 0303 	adds.w	r3, ip, r3
 80002ae:	f100 31ff 	add.w	r1, r0, #4294967295	@ 0xffffffff
 80002b2:	f080 80fc 	bcs.w	80004ae <__udivmoddi4+0x282>
 80002b6:	429e      	cmp	r6, r3
 80002b8:	f240 80f9 	bls.w	80004ae <__udivmoddi4+0x282>
 80002bc:	4463      	add	r3, ip
 80002be:	3802      	subs	r0, #2
 80002c0:	1b9b      	subs	r3, r3, r6
 80002c2:	ea40 4004 	orr.w	r0, r0, r4, lsl #16
 80002c6:	2100      	movs	r1, #0
 80002c8:	b11d      	cbz	r5, 80002d2 <__udivmoddi4+0xa6>
 80002ca:	40d3      	lsrs	r3, r2
 80002cc:	2200      	movs	r2, #0
 80002ce:	e9c5 3200 	strd	r3, r2, [r5]
 80002d2:	e8bd 87f0 	ldmia.w	sp!, {r4, r5, r6, r7, r8, r9, sl, pc}
 80002d6:	428b      	cmp	r3, r1
 80002d8:	d905      	bls.n	80002e6 <__udivmoddi4+0xba>
 80002da:	b10d      	cbz	r5, 80002e0 <__udivmoddi4+0xb4>
 80002dc:	e9c5 0100 	strd	r0, r1, [r5]
 80002e0:	2100      	movs	r1, #0
 80002e2:	4608      	mov	r0, r1
 80002e4:	e7f5      	b.n	80002d2 <__udivmoddi4+0xa6>
 80002e6:	fab3 f183 	clz	r1, r3
 80002ea:	2900      	cmp	r1, #0
 80002ec:	d146      	bne.n	800037c <__udivmoddi4+0x150>
 80002ee:	42a3      	cmp	r3, r4
 80002f0:	d302      	bcc.n	80002f8 <__udivmoddi4+0xcc>
 80002f2:	4290      	cmp	r0, r2
 80002f4:	f0c0 80f0 	bcc.w	80004d8 <__udivmoddi4+0x2ac>
 80002f8:	1a86      	subs	r6, r0, r2
 80002fa:	eb64 0303 	sbc.w	r3, r4, r3
 80002fe:	2001      	movs	r0, #1
 8000300:	2d00      	cmp	r5, #0
 8000302:	d0e6      	beq.n	80002d2 <__udivmoddi4+0xa6>
 8000304:	e9c5 6300 	strd	r6, r3, [r5]
 8000308:	e7e3      	b.n	80002d2 <__udivmoddi4+0xa6>
 800030a:	2a00      	cmp	r2, #0
 800030c:	f040 8090 	bne.w	8000430 <__udivmoddi4+0x204>
 8000310:	eba1 040c 	sub.w	r4, r1, ip
 8000314:	ea4f 481c 	mov.w	r8, ip, lsr #16
 8000318:	fa1f f78c 	uxth.w	r7, ip
 800031c:	2101      	movs	r1, #1
 800031e:	fbb4 f6f8 	udiv	r6, r4, r8
 8000322:	ea4f 431e 	mov.w	r3, lr, lsr #16
 8000326:	fb08 4416 	mls	r4, r8, r6, r4
 800032a:	ea43 4304 	orr.w	r3, r3, r4, lsl #16
 800032e:	fb07 f006 	mul.w	r0, r7, r6
 8000332:	4298      	cmp	r0, r3
 8000334:	d908      	bls.n	8000348 <__udivmoddi4+0x11c>
 8000336:	eb1c 0303 	adds.w	r3, ip, r3
 800033a:	f106 34ff 	add.w	r4, r6, #4294967295	@ 0xffffffff
 800033e:	d202      	bcs.n	8000346 <__udivmoddi4+0x11a>
 8000340:	4298      	cmp	r0, r3
 8000342:	f200 80cd 	bhi.w	80004e0 <__udivmoddi4+0x2b4>
 8000346:	4626      	mov	r6, r4
 8000348:	1a1c      	subs	r4, r3, r0
 800034a:	fa1f f38e 	uxth.w	r3, lr
 800034e:	fbb4 f0f8 	udiv	r0, r4, r8
 8000352:	fb08 4410 	mls	r4, r8, r0, r4
 8000356:	ea43 4304 	orr.w	r3, r3, r4, lsl #16
 800035a:	fb00 f707 	mul.w	r7, r0, r7
 800035e:	429f      	cmp	r7, r3
 8000360:	d908      	bls.n	8000374 <__udivmoddi4+0x148>
 8000362:	eb1c 0303 	adds.w	r3, ip, r3
 8000366:	f100 34ff 	add.w	r4, r0, #4294967295	@ 0xffffffff
 800036a:	d202      	bcs.n	8000372 <__udivmoddi4+0x146>
 800036c:	429f      	cmp	r7, r3
 800036e:	f200 80b0 	bhi.w	80004d2 <__udivmoddi4+0x2a6>
 8000372:	4620      	mov	r0, r4
 8000374:	1bdb      	subs	r3, r3, r7
 8000376:	ea40 4006 	orr.w	r0, r0, r6, lsl #16
 800037a:	e7a5      	b.n	80002c8 <__udivmoddi4+0x9c>
 800037c:	f1c1 0620 	rsb	r6, r1, #32
 8000380:	408b      	lsls	r3, r1
 8000382:	fa22 f706 	lsr.w	r7, r2, r6
 8000386:	431f      	orrs	r7, r3
 8000388:	fa20 fc06 	lsr.w	ip, r0, r6
 800038c:	fa04 f301 	lsl.w	r3, r4, r1
 8000390:	ea43 030c 	orr.w	r3, r3, ip
 8000394:	40f4      	lsrs	r4, r6
 8000396:	fa00 f801 	lsl.w	r8, r0, r1
 800039a:	0c38      	lsrs	r0, r7, #16
 800039c:	ea4f 4913 	mov.w	r9, r3, lsr #16
 80003a0:	fbb4 fef0 	udiv	lr, r4, r0
 80003a4:	fa1f fc87 	uxth.w	ip, r7
 80003a8:	fb00 441e 	mls	r4, r0, lr, r4
 80003ac:	ea49 4404 	orr.w	r4, r9, r4, lsl #16
 80003b0:	fb0e f90c 	mul.w	r9, lr, ip
 80003b4:	45a1      	cmp	r9, r4
 80003b6:	fa02 f201 	lsl.w	r2, r2, r1
 80003ba:	d90a      	bls.n	80003d2 <__udivmoddi4+0x1a6>
 80003bc:	193c      	adds	r4, r7, r4
 80003be:	f10e 3aff 	add.w	sl, lr, #4294967295	@ 0xffffffff
 80003c2:	f080 8084 	bcs.w	80004ce <__udivmoddi4+0x2a2>
 80003c6:	45a1      	cmp	r9, r4
 80003c8:	f240 8081 	bls.w	80004ce <__udivmoddi4+0x2a2>
 80003cc:	f1ae 0e02 	sub.w	lr, lr, #2
 80003d0:	443c      	add	r4, r7
 80003d2:	eba4 0409 	sub.w	r4, r4, r9
 80003d6:	fa1f f983 	uxth.w	r9, r3
 80003da:	fbb4 f3f0 	udiv	r3, r4, r0
 80003de:	fb00 4413 	mls	r4, r0, r3, r4
 80003e2:	ea49 4404 	orr.w	r4, r9, r4, lsl #16
 80003e6:	fb03 fc0c 	mul.w	ip, r3, ip
 80003ea:	45a4      	cmp	ip, r4
 80003ec:	d907      	bls.n	80003fe <__udivmoddi4+0x1d2>
 80003ee:	193c      	adds	r4, r7, r4
 80003f0:	f103 30ff 	add.w	r0, r3, #4294967295	@ 0xffffffff
 80003f4:	d267      	bcs.n	80004c6 <__udivmoddi4+0x29a>
 80003f6:	45a4      	cmp	ip, r4
 80003f8:	d965      	bls.n	80004c6 <__udivmoddi4+0x29a>
 80003fa:	3b02      	subs	r3, #2
 80003fc:	443c      	add	r4, r7
 80003fe:	ea43 400e 	orr.w	r0, r3, lr, lsl #16
 8000402:	fba0 9302 	umull	r9, r3, r0, r2
 8000406:	eba4 040c 	sub.w	r4, r4, ip
 800040a:	429c      	cmp	r4, r3
 800040c:	46ce      	mov	lr, r9
 800040e:	469c      	mov	ip, r3
 8000410:	d351      	bcc.n	80004b6 <__udivmoddi4+0x28a>
 8000412:	d04e      	beq.n	80004b2 <__udivmoddi4+0x286>
 8000414:	b155      	cbz	r5, 800042c <__udivmoddi4+0x200>
 8000416:	ebb8 030e 	subs.w	r3, r8, lr
 800041a:	eb64 040c 	sbc.w	r4, r4, ip
 800041e:	fa04 f606 	lsl.w	r6, r4, r6
 8000422:	40cb      	lsrs	r3, r1
 8000424:	431e      	orrs	r6, r3
 8000426:	40cc      	lsrs	r4, r1
 8000428:	e9c5 6400 	strd	r6, r4, [r5]
 800042c:	2100      	movs	r1, #0
 800042e:	e750      	b.n	80002d2 <__udivmoddi4+0xa6>
 8000430:	f1c2 0320 	rsb	r3, r2, #32
 8000434:	fa20 f103 	lsr.w	r1, r0, r3
 8000438:	fa0c fc02 	lsl.w	ip, ip, r2
 800043c:	fa24 f303 	lsr.w	r3, r4, r3
 8000440:	4094      	lsls	r4, r2
 8000442:	430c      	orrs	r4, r1
 8000444:	ea4f 481c 	mov.w	r8, ip, lsr #16
 8000448:	fa00 fe02 	lsl.w	lr, r0, r2
 800044c:	fa1f f78c 	uxth.w	r7, ip
 8000450:	fbb3 f0f8 	udiv	r0, r3, r8
 8000454:	fb08 3110 	mls	r1, r8, r0, r3
 8000458:	0c23      	lsrs	r3, r4, #16
 800045a:	ea43 4301 	orr.w	r3, r3, r1, lsl #16
 800045e:	fb00 f107 	mul.w	r1, r0, r7
 8000462:	4299      	cmp	r1, r3
 8000464:	d908      	bls.n	8000478 <__udivmoddi4+0x24c>
 8000466:	eb1c 0303 	adds.w	r3, ip, r3
 800046a:	f100 36ff 	add.w	r6, r0, #4294967295	@ 0xffffffff
 800046e:	d22c      	bcs.n	80004ca <__udivmoddi4+0x29e>
 8000470:	4299      	cmp	r1, r3
 8000472:	d92a      	bls.n	80004ca <__udivmoddi4+0x29e>
 8000474:	3802      	subs	r0, #2
 8000476:	4463      	add	r3, ip
 8000478:	1a5b      	subs	r3, r3, r1
 800047a:	b2a4      	uxth	r4, r4
 800047c:	fbb3 f1f8 	udiv	r1, r3, r8
 8000480:	fb08 3311 	mls	r3, r8, r1, r3
 8000484:	ea44 4403 	orr.w	r4, r4, r3, lsl #16
 8000488:	fb01 f307 	mul.w	r3, r1, r7
 800048c:	42a3      	cmp	r3, r4
 800048e:	d908      	bls.n	80004a2 <__udivmoddi4+0x276>
 8000490:	eb1c 0404 	adds.w	r4, ip, r4
 8000494:	f101 36ff 	add.w	r6, r1, #4294967295	@ 0xffffffff
 8000498:	d213      	bcs.n	80004c2 <__udivmoddi4+0x296>
 800049a:	42a3      	cmp	r3, r4
 800049c:	d911      	bls.n	80004c2 <__udivmoddi4+0x296>
 800049e:	3902      	subs	r1, #2
 80004a0:	4464      	add	r4, ip
 80004a2:	1ae4      	subs	r4, r4, r3
 80004a4:	ea41 4100 	orr.w	r1, r1, r0, lsl #16
 80004a8:	e739      	b.n	800031e <__udivmoddi4+0xf2>
 80004aa:	4604      	mov	r4, r0
 80004ac:	e6f0      	b.n	8000290 <__udivmoddi4+0x64>
 80004ae:	4608      	mov	r0, r1
 80004b0:	e706      	b.n	80002c0 <__udivmoddi4+0x94>
 80004b2:	45c8      	cmp	r8, r9
 80004b4:	d2ae      	bcs.n	8000414 <__udivmoddi4+0x1e8>
 80004b6:	ebb9 0e02 	subs.w	lr, r9, r2
 80004ba:	eb63 0c07 	sbc.w	ip, r3, r7
 80004be:	3801      	subs	r0, #1
 80004c0:	e7a8      	b.n	8000414 <__udivmoddi4+0x1e8>
 80004c2:	4631      	mov	r1, r6
 80004c4:	e7ed      	b.n	80004a2 <__udivmoddi4+0x276>
 80004c6:	4603      	mov	r3, r0
 80004c8:	e799      	b.n	80003fe <__udivmoddi4+0x1d2>
 80004ca:	4630      	mov	r0, r6
 80004cc:	e7d4      	b.n	8000478 <__udivmoddi4+0x24c>
 80004ce:	46d6      	mov	lr, sl
 80004d0:	e77f      	b.n	80003d2 <__udivmoddi4+0x1a6>
 80004d2:	4463      	add	r3, ip
 80004d4:	3802      	subs	r0, #2
 80004d6:	e74d      	b.n	8000374 <__udivmoddi4+0x148>
 80004d8:	4606      	mov	r6, r0
 80004da:	4623      	mov	r3, r4
 80004dc:	4608      	mov	r0, r1
 80004de:	e70f      	b.n	8000300 <__udivmoddi4+0xd4>
 80004e0:	3e02      	subs	r6, #2
 80004e2:	4463      	add	r3, ip
 80004e4:	e730      	b.n	8000348 <__udivmoddi4+0x11c>
 80004e6:	bf00      	nop

080004e8 <__aeabi_idiv0>:
 80004e8:	4770      	bx	lr
 80004ea:	bf00      	nop

080004ec <init_accel>:
uint8_t OUT_Y_L 				= 0x34;
uint8_t OUT_Y_H 				= 0x35;
uint8_t OUT_Z_L 				= 0x36;
uint8_t OUT_Z_H 				= 0x37;

HAL_StatusTypeDef init_accel(I2C_HandleTypeDef* hi2c) {
 80004ec:	b580      	push	{r7, lr}
 80004ee:	b084      	sub	sp, #16
 80004f0:	af00      	add	r7, sp, #0
 80004f2:	6078      	str	r0, [r7, #4]
	HAL_StatusTypeDef ret;

	// Set standby mode
	ret = i2c_write_reg(hi2c, ADXL314_ADDR, &POWER_CTL_REG, 0x00);
 80004f4:	4b16      	ldr	r3, [pc, #88]	@ (8000550 <init_accel+0x64>)
 80004f6:	7819      	ldrb	r1, [r3, #0]
 80004f8:	2300      	movs	r3, #0
 80004fa:	4a16      	ldr	r2, [pc, #88]	@ (8000554 <init_accel+0x68>)
 80004fc:	6878      	ldr	r0, [r7, #4]
 80004fe:	f000 fc1e 	bl	8000d3e <i2c_write_reg>
 8000502:	4603      	mov	r3, r0
 8000504:	73fb      	strb	r3, [r7, #15]

	// Set to 200G right justified
	ret = i2c_write_reg(hi2c, ADXL314_ADDR, &DATA_FORMAT_REG, RIGHT_JUST);
 8000506:	4b12      	ldr	r3, [pc, #72]	@ (8000550 <init_accel+0x64>)
 8000508:	7819      	ldrb	r1, [r3, #0]
 800050a:	230b      	movs	r3, #11
 800050c:	4a12      	ldr	r2, [pc, #72]	@ (8000558 <init_accel+0x6c>)
 800050e:	6878      	ldr	r0, [r7, #4]
 8000510:	f000 fc15 	bl	8000d3e <i2c_write_reg>
 8000514:	4603      	mov	r3, r0
 8000516:	73fb      	strb	r3, [r7, #15]

	// Set to 200Hz ODR
	ret = i2c_write_reg(hi2c, ADXL314_ADDR, &BW_RATE_REG, MASK_200Hz);
 8000518:	4b0d      	ldr	r3, [pc, #52]	@ (8000550 <init_accel+0x64>)
 800051a:	7819      	ldrb	r1, [r3, #0]
 800051c:	230b      	movs	r3, #11
 800051e:	4a0f      	ldr	r2, [pc, #60]	@ (800055c <init_accel+0x70>)
 8000520:	6878      	ldr	r0, [r7, #4]
 8000522:	f000 fc0c 	bl	8000d3e <i2c_write_reg>
 8000526:	4603      	mov	r3, r0
 8000528:	73fb      	strb	r3, [r7, #15]

	// Write the offset registers
	ret = writeOffset(hi2c);
 800052a:	6878      	ldr	r0, [r7, #4]
 800052c:	f000 f856 	bl	80005dc <writeOffset>
 8000530:	4603      	mov	r3, r0
 8000532:	73fb      	strb	r3, [r7, #15]

	// Start measuring
	ret = i2c_write_reg(hi2c, ADXL314_ADDR, &POWER_CTL_REG, START_MEAS);
 8000534:	4b06      	ldr	r3, [pc, #24]	@ (8000550 <init_accel+0x64>)
 8000536:	7819      	ldrb	r1, [r3, #0]
 8000538:	2308      	movs	r3, #8
 800053a:	4a06      	ldr	r2, [pc, #24]	@ (8000554 <init_accel+0x68>)
 800053c:	6878      	ldr	r0, [r7, #4]
 800053e:	f000 fbfe 	bl	8000d3e <i2c_write_reg>
 8000542:	4603      	mov	r3, r0
 8000544:	73fb      	strb	r3, [r7, #15]

	return ret;
 8000546:	7bfb      	ldrb	r3, [r7, #15]
}
 8000548:	4618      	mov	r0, r3
 800054a:	3710      	adds	r7, #16
 800054c:	46bd      	mov	sp, r7
 800054e:	bd80      	pop	{r7, pc}
 8000550:	20000000 	.word	0x20000000
 8000554:	20000002 	.word	0x20000002
 8000558:	20000003 	.word	0x20000003
 800055c:	20000001 	.word	0x20000001

08000560 <readAccelerometer>:
void readAccelerometer(uint8_t values[6], I2C_HandleTypeDef* hi2c) {
 8000560:	b580      	push	{r7, lr}
 8000562:	b086      	sub	sp, #24
 8000564:	af02      	add	r7, sp, #8
 8000566:	6078      	str	r0, [r7, #4]
 8000568:	6039      	str	r1, [r7, #0]
	for (uint8_t i = 0; i < 6; i++) {
 800056a:	2300      	movs	r3, #0
 800056c:	73fb      	strb	r3, [r7, #15]
 800056e:	e007      	b.n	8000580 <readAccelerometer+0x20>
		values[i] = 0x00;
 8000570:	7bfb      	ldrb	r3, [r7, #15]
 8000572:	687a      	ldr	r2, [r7, #4]
 8000574:	4413      	add	r3, r2
 8000576:	2200      	movs	r2, #0
 8000578:	701a      	strb	r2, [r3, #0]
	for (uint8_t i = 0; i < 6; i++) {
 800057a:	7bfb      	ldrb	r3, [r7, #15]
 800057c:	3301      	adds	r3, #1
 800057e:	73fb      	strb	r3, [r7, #15]
 8000580:	7bfb      	ldrb	r3, [r7, #15]
 8000582:	2b05      	cmp	r3, #5
 8000584:	d9f4      	bls.n	8000570 <readAccelerometer+0x10>
	}

	i2c_burst_read(hi2c, ADXL314_ADDR, OUT_X_L, 6, values);
 8000586:	4b07      	ldr	r3, [pc, #28]	@ (80005a4 <readAccelerometer+0x44>)
 8000588:	7819      	ldrb	r1, [r3, #0]
 800058a:	4b07      	ldr	r3, [pc, #28]	@ (80005a8 <readAccelerometer+0x48>)
 800058c:	781a      	ldrb	r2, [r3, #0]
 800058e:	687b      	ldr	r3, [r7, #4]
 8000590:	9300      	str	r3, [sp, #0]
 8000592:	2306      	movs	r3, #6
 8000594:	6838      	ldr	r0, [r7, #0]
 8000596:	f000 fb9d 	bl	8000cd4 <i2c_burst_read>
}
 800059a:	bf00      	nop
 800059c:	3710      	adds	r7, #16
 800059e:	46bd      	mov	sp, r7
 80005a0:	bd80      	pop	{r7, pc}
 80005a2:	bf00      	nop
 80005a4:	20000000 	.word	0x20000000
 80005a8:	20000007 	.word	0x20000007

080005ac <readAccel_whoami>:

uint8_t readAccel_whoami(I2C_HandleTypeDef* hi2c) {
 80005ac:	b580      	push	{r7, lr}
 80005ae:	b084      	sub	sp, #16
 80005b0:	af00      	add	r7, sp, #0
 80005b2:	6078      	str	r0, [r7, #4]
	uint8_t data = 0x00;
 80005b4:	2300      	movs	r3, #0
 80005b6:	73fb      	strb	r3, [r7, #15]
	i2c_read_reg(hi2c, &data, ADXL314_ADDR, &WHOAMI);
 80005b8:	4b06      	ldr	r3, [pc, #24]	@ (80005d4 <readAccel_whoami+0x28>)
 80005ba:	781a      	ldrb	r2, [r3, #0]
 80005bc:	f107 010f 	add.w	r1, r7, #15
 80005c0:	4b05      	ldr	r3, [pc, #20]	@ (80005d8 <readAccel_whoami+0x2c>)
 80005c2:	6878      	ldr	r0, [r7, #4]
 80005c4:	f000 fb5d 	bl	8000c82 <i2c_read_reg>

	return data;
 80005c8:	7bfb      	ldrb	r3, [r7, #15]
}
 80005ca:	4618      	mov	r0, r3
 80005cc:	3710      	adds	r7, #16
 80005ce:	46bd      	mov	sp, r7
 80005d0:	bd80      	pop	{r7, pc}
 80005d2:	bf00      	nop
 80005d4:	20000000 	.word	0x20000000
 80005d8:	20000044 	.word	0x20000044

080005dc <writeOffset>:

HAL_StatusTypeDef writeOffset(I2C_HandleTypeDef* hi2c) {
 80005dc:	b580      	push	{r7, lr}
 80005de:	b084      	sub	sp, #16
 80005e0:	af00      	add	r7, sp, #0
 80005e2:	6078      	str	r0, [r7, #4]
	HAL_StatusTypeDef ret;

	ret = i2c_write_reg(hi2c, ADXL314_ADDR, &OFFSET_REG_X, OFFSETX);
 80005e4:	4b0f      	ldr	r3, [pc, #60]	@ (8000624 <writeOffset+0x48>)
 80005e6:	7819      	ldrb	r1, [r3, #0]
 80005e8:	2302      	movs	r3, #2
 80005ea:	4a0f      	ldr	r2, [pc, #60]	@ (8000628 <writeOffset+0x4c>)
 80005ec:	6878      	ldr	r0, [r7, #4]
 80005ee:	f000 fba6 	bl	8000d3e <i2c_write_reg>
 80005f2:	4603      	mov	r3, r0
 80005f4:	73fb      	strb	r3, [r7, #15]
	ret = i2c_write_reg(hi2c, ADXL314_ADDR, &OFFSET_REG_Y, OFFSETY);
 80005f6:	4b0b      	ldr	r3, [pc, #44]	@ (8000624 <writeOffset+0x48>)
 80005f8:	7819      	ldrb	r1, [r3, #0]
 80005fa:	2301      	movs	r3, #1
 80005fc:	4a0b      	ldr	r2, [pc, #44]	@ (800062c <writeOffset+0x50>)
 80005fe:	6878      	ldr	r0, [r7, #4]
 8000600:	f000 fb9d 	bl	8000d3e <i2c_write_reg>
 8000604:	4603      	mov	r3, r0
 8000606:	73fb      	strb	r3, [r7, #15]
	ret = i2c_write_reg(hi2c, ADXL314_ADDR, &OFFSET_REG_Z, OFFSETZ);
 8000608:	4b06      	ldr	r3, [pc, #24]	@ (8000624 <writeOffset+0x48>)
 800060a:	7819      	ldrb	r1, [r3, #0]
 800060c:	2301      	movs	r3, #1
 800060e:	4a08      	ldr	r2, [pc, #32]	@ (8000630 <writeOffset+0x54>)
 8000610:	6878      	ldr	r0, [r7, #4]
 8000612:	f000 fb94 	bl	8000d3e <i2c_write_reg>
 8000616:	4603      	mov	r3, r0
 8000618:	73fb      	strb	r3, [r7, #15]

	return ret;
 800061a:	7bfb      	ldrb	r3, [r7, #15]
}
 800061c:	4618      	mov	r0, r3
 800061e:	3710      	adds	r7, #16
 8000620:	46bd      	mov	sp, r7
 8000622:	bd80      	pop	{r7, pc}
 8000624:	20000000 	.word	0x20000000
 8000628:	20000004 	.word	0x20000004
 800062c:	20000005 	.word	0x20000005
 8000630:	20000006 	.word	0x20000006

08000634 <init_bme280>:
uint8_t OUT_HUM_H 			= 0xFD;
uint8_t CALIB_ST_1			= 0x88;
uint8_t CALIB_ST_2			= 0xE1;


HAL_StatusTypeDef init_bme280(I2C_HandleTypeDef* hi2c, uint8_t bme) {
 8000634:	b580      	push	{r7, lr}
 8000636:	b084      	sub	sp, #16
 8000638:	af00      	add	r7, sp, #0
 800063a:	6078      	str	r0, [r7, #4]
 800063c:	460b      	mov	r3, r1
 800063e:	70fb      	strb	r3, [r7, #3]
	uint8_t bme_addr = getBME280Config(bme).bme_addr;
 8000640:	78fb      	ldrb	r3, [r7, #3]
 8000642:	4618      	mov	r0, r3
 8000644:	f000 f8e0 	bl	8000808 <getBME280Config>
 8000648:	4603      	mov	r3, r0
 800064a:	73fb      	strb	r3, [r7, #15]
	HAL_StatusTypeDef ret;
	uint8_t control_reg = 0x00;
 800064c:	2300      	movs	r3, #0
 800064e:	737b      	strb	r3, [r7, #13]

	// Reset the sensor
	ret =  i2c_write_reg(hi2c, bme_addr, &RST_REG, RST);
 8000650:	7bf9      	ldrb	r1, [r7, #15]
 8000652:	23b6      	movs	r3, #182	@ 0xb6
 8000654:	4a19      	ldr	r2, [pc, #100]	@ (80006bc <init_bme280+0x88>)
 8000656:	6878      	ldr	r0, [r7, #4]
 8000658:	f000 fb71 	bl	8000d3e <i2c_write_reg>
 800065c:	4603      	mov	r3, r0
 800065e:	73bb      	strb	r3, [r7, #14]

	// Set humidity control register
	i2c_read_reg(hi2c, &control_reg, bme_addr, &CTRL_HUM_REG);
 8000660:	7bfa      	ldrb	r2, [r7, #15]
 8000662:	f107 010d 	add.w	r1, r7, #13
 8000666:	4b16      	ldr	r3, [pc, #88]	@ (80006c0 <init_bme280+0x8c>)
 8000668:	6878      	ldr	r0, [r7, #4]
 800066a:	f000 fb0a 	bl	8000c82 <i2c_read_reg>
	control_reg = control_reg & 0xF8;
 800066e:	7b7b      	ldrb	r3, [r7, #13]
 8000670:	f023 0307 	bic.w	r3, r3, #7
 8000674:	b2db      	uxtb	r3, r3
 8000676:	737b      	strb	r3, [r7, #13]
	control_reg = control_reg | CTRL_HUM_MSK;
 8000678:	7b7b      	ldrb	r3, [r7, #13]
 800067a:	f043 0301 	orr.w	r3, r3, #1
 800067e:	b2db      	uxtb	r3, r3
 8000680:	737b      	strb	r3, [r7, #13]
	ret = i2c_write_reg(hi2c, bme_addr, &CTRL_HUM_REG, control_reg);
 8000682:	7b7b      	ldrb	r3, [r7, #13]
 8000684:	7bf9      	ldrb	r1, [r7, #15]
 8000686:	4a0e      	ldr	r2, [pc, #56]	@ (80006c0 <init_bme280+0x8c>)
 8000688:	6878      	ldr	r0, [r7, #4]
 800068a:	f000 fb58 	bl	8000d3e <i2c_write_reg>
 800068e:	4603      	mov	r3, r0
 8000690:	73bb      	strb	r3, [r7, #14]

	// Set measure control register
	ret = i2c_write_reg(hi2c, bme_addr, &CTRL_MEAS_REG, CTRL_MEAS_MSK);
 8000692:	7bf9      	ldrb	r1, [r7, #15]
 8000694:	2327      	movs	r3, #39	@ 0x27
 8000696:	4a0b      	ldr	r2, [pc, #44]	@ (80006c4 <init_bme280+0x90>)
 8000698:	6878      	ldr	r0, [r7, #4]
 800069a:	f000 fb50 	bl	8000d3e <i2c_write_reg>
 800069e:	4603      	mov	r3, r0
 80006a0:	73bb      	strb	r3, [r7, #14]

	// Set the config register
	ret = i2c_write_reg(hi2c, bme_addr, &CONF_REG, CONF_MSK);
 80006a2:	7bf9      	ldrb	r1, [r7, #15]
 80006a4:	2300      	movs	r3, #0
 80006a6:	4a08      	ldr	r2, [pc, #32]	@ (80006c8 <init_bme280+0x94>)
 80006a8:	6878      	ldr	r0, [r7, #4]
 80006aa:	f000 fb48 	bl	8000d3e <i2c_write_reg>
 80006ae:	4603      	mov	r3, r0
 80006b0:	73bb      	strb	r3, [r7, #14]

	return ret;
 80006b2:	7bbb      	ldrb	r3, [r7, #14]
}
 80006b4:	4618      	mov	r0, r3
 80006b6:	3710      	adds	r7, #16
 80006b8:	46bd      	mov	sp, r7
 80006ba:	bd80      	pop	{r7, pc}
 80006bc:	20000009 	.word	0x20000009
 80006c0:	2000000a 	.word	0x2000000a
 80006c4:	2000000b 	.word	0x2000000b
 80006c8:	2000000c 	.word	0x2000000c

080006cc <readTempHumPres>:

void readTempHumPres(uint8_t values[6], I2C_HandleTypeDef* hi2c, uint8_t bme) {
 80006cc:	b580      	push	{r7, lr}
 80006ce:	b08a      	sub	sp, #40	@ 0x28
 80006d0:	af02      	add	r7, sp, #8
 80006d2:	60f8      	str	r0, [r7, #12]
 80006d4:	60b9      	str	r1, [r7, #8]
 80006d6:	4613      	mov	r3, r2
 80006d8:	71fb      	strb	r3, [r7, #7]
	uint8_t readings[8] = {0, 0, 0, 0, 0, 0, 0, 0};
 80006da:	4a27      	ldr	r2, [pc, #156]	@ (8000778 <readTempHumPres+0xac>)
 80006dc:	f107 0314 	add.w	r3, r7, #20
 80006e0:	e892 0003 	ldmia.w	r2, {r0, r1}
 80006e4:	e883 0003 	stmia.w	r3, {r0, r1}
	uint8_t bme_addr = getBME280Config(bme).bme_addr;
 80006e8:	79fb      	ldrb	r3, [r7, #7]
 80006ea:	4618      	mov	r0, r3
 80006ec:	f000 f88c 	bl	8000808 <getBME280Config>
 80006f0:	4603      	mov	r3, r0
 80006f2:	777b      	strb	r3, [r7, #29]
	i2c_burst_read(hi2c, bme_addr, OUT_PRESS_H, 8, readings);
 80006f4:	4b21      	ldr	r3, [pc, #132]	@ (800077c <readTempHumPres+0xb0>)
 80006f6:	781a      	ldrb	r2, [r3, #0]
 80006f8:	7f79      	ldrb	r1, [r7, #29]
 80006fa:	f107 0314 	add.w	r3, r7, #20
 80006fe:	9300      	str	r3, [sp, #0]
 8000700:	2308      	movs	r3, #8
 8000702:	68b8      	ldr	r0, [r7, #8]
 8000704:	f000 fae6 	bl	8000cd4 <i2c_burst_read>

	// Clear the 0 values on the xlsb registers
	uint8_t j = 0;
 8000708:	2300      	movs	r3, #0
 800070a:	77fb      	strb	r3, [r7, #31]
    for(uint8_t i = 0; i < 8; i++) {
 800070c:	2300      	movs	r3, #0
 800070e:	77bb      	strb	r3, [r7, #30]
 8000710:	e014      	b.n	800073c <readTempHumPres+0x70>
        if(i != 2 && i != 5) {  // if the index is not 2 or 5
 8000712:	7fbb      	ldrb	r3, [r7, #30]
 8000714:	2b02      	cmp	r3, #2
 8000716:	d00e      	beq.n	8000736 <readTempHumPres+0x6a>
 8000718:	7fbb      	ldrb	r3, [r7, #30]
 800071a:	2b05      	cmp	r3, #5
 800071c:	d00b      	beq.n	8000736 <readTempHumPres+0x6a>
        	values[j] = readings[i];
 800071e:	7fba      	ldrb	r2, [r7, #30]
 8000720:	7ffb      	ldrb	r3, [r7, #31]
 8000722:	68f9      	ldr	r1, [r7, #12]
 8000724:	440b      	add	r3, r1
 8000726:	3220      	adds	r2, #32
 8000728:	443a      	add	r2, r7
 800072a:	f812 2c0c 	ldrb.w	r2, [r2, #-12]
 800072e:	701a      	strb	r2, [r3, #0]
            j++;
 8000730:	7ffb      	ldrb	r3, [r7, #31]
 8000732:	3301      	adds	r3, #1
 8000734:	77fb      	strb	r3, [r7, #31]
    for(uint8_t i = 0; i < 8; i++) {
 8000736:	7fbb      	ldrb	r3, [r7, #30]
 8000738:	3301      	adds	r3, #1
 800073a:	77bb      	strb	r3, [r7, #30]
 800073c:	7fbb      	ldrb	r3, [r7, #30]
 800073e:	2b07      	cmp	r3, #7
 8000740:	d9e7      	bls.n	8000712 <readTempHumPres+0x46>
        }
    }

    // Swap elements to make the array little endian
    swap(&values[0], &values[1]);
 8000742:	68fb      	ldr	r3, [r7, #12]
 8000744:	3301      	adds	r3, #1
 8000746:	4619      	mov	r1, r3
 8000748:	68f8      	ldr	r0, [r7, #12]
 800074a:	f000 f874 	bl	8000836 <swap>
    swap(&values[2], &values[3]);
 800074e:	68fb      	ldr	r3, [r7, #12]
 8000750:	1c9a      	adds	r2, r3, #2
 8000752:	68fb      	ldr	r3, [r7, #12]
 8000754:	3303      	adds	r3, #3
 8000756:	4619      	mov	r1, r3
 8000758:	4610      	mov	r0, r2
 800075a:	f000 f86c 	bl	8000836 <swap>
    swap(&values[4], &values[5]);
 800075e:	68fb      	ldr	r3, [r7, #12]
 8000760:	1d1a      	adds	r2, r3, #4
 8000762:	68fb      	ldr	r3, [r7, #12]
 8000764:	3305      	adds	r3, #5
 8000766:	4619      	mov	r1, r3
 8000768:	4610      	mov	r0, r2
 800076a:	f000 f864 	bl	8000836 <swap>
}
 800076e:	bf00      	nop
 8000770:	3720      	adds	r7, #32
 8000772:	46bd      	mov	sp, r7
 8000774:	bd80      	pop	{r7, pc}
 8000776:	bf00      	nop
 8000778:	08009920 	.word	0x08009920
 800077c:	2000000d 	.word	0x2000000d

08000780 <readBME280_id_reg>:

uint8_t readBME280_id_reg(I2C_HandleTypeDef* hi2c, uint8_t bme) {
 8000780:	b580      	push	{r7, lr}
 8000782:	b084      	sub	sp, #16
 8000784:	af00      	add	r7, sp, #0
 8000786:	6078      	str	r0, [r7, #4]
 8000788:	460b      	mov	r3, r1
 800078a:	70fb      	strb	r3, [r7, #3]
	uint8_t bme_addr = getBME280Config(bme).bme_addr;
 800078c:	78fb      	ldrb	r3, [r7, #3]
 800078e:	4618      	mov	r0, r3
 8000790:	f000 f83a 	bl	8000808 <getBME280Config>
 8000794:	4603      	mov	r3, r0
 8000796:	73fb      	strb	r3, [r7, #15]
	uint8_t data = 0x00;
 8000798:	2300      	movs	r3, #0
 800079a:	73bb      	strb	r3, [r7, #14]
	i2c_read_reg(hi2c, &data, bme_addr, &ID_REG);
 800079c:	7bfa      	ldrb	r2, [r7, #15]
 800079e:	f107 010e 	add.w	r1, r7, #14
 80007a2:	4b04      	ldr	r3, [pc, #16]	@ (80007b4 <readBME280_id_reg+0x34>)
 80007a4:	6878      	ldr	r0, [r7, #4]
 80007a6:	f000 fa6c 	bl	8000c82 <i2c_read_reg>

	return data;
 80007aa:	7bbb      	ldrb	r3, [r7, #14]
}
 80007ac:	4618      	mov	r0, r3
 80007ae:	3710      	adds	r7, #16
 80007b0:	46bd      	mov	sp, r7
 80007b2:	bd80      	pop	{r7, pc}
 80007b4:	20000008 	.word	0x20000008

080007b8 <readBME280_calib>:

void readBME280_calib(I2C_HandleTypeDef* hi2c, uint8_t bme, uint8_t calibration1[CALIB_CNT_1], uint8_t calibration2[CALIB_CNT_2]) {
 80007b8:	b580      	push	{r7, lr}
 80007ba:	b088      	sub	sp, #32
 80007bc:	af02      	add	r7, sp, #8
 80007be:	60f8      	str	r0, [r7, #12]
 80007c0:	607a      	str	r2, [r7, #4]
 80007c2:	603b      	str	r3, [r7, #0]
 80007c4:	460b      	mov	r3, r1
 80007c6:	72fb      	strb	r3, [r7, #11]
	uint8_t bme_addr = getBME280Config(bme).bme_addr;
 80007c8:	7afb      	ldrb	r3, [r7, #11]
 80007ca:	4618      	mov	r0, r3
 80007cc:	f000 f81c 	bl	8000808 <getBME280Config>
 80007d0:	4603      	mov	r3, r0
 80007d2:	75fb      	strb	r3, [r7, #23]
	i2c_burst_read(hi2c, bme_addr, CALIB_ST_1, CALIB_CNT_1, calibration1);
 80007d4:	4b0a      	ldr	r3, [pc, #40]	@ (8000800 <readBME280_calib+0x48>)
 80007d6:	781a      	ldrb	r2, [r3, #0]
 80007d8:	7df9      	ldrb	r1, [r7, #23]
 80007da:	687b      	ldr	r3, [r7, #4]
 80007dc:	9300      	str	r3, [sp, #0]
 80007de:	2319      	movs	r3, #25
 80007e0:	68f8      	ldr	r0, [r7, #12]
 80007e2:	f000 fa77 	bl	8000cd4 <i2c_burst_read>
	i2c_burst_read(hi2c, bme_addr, CALIB_ST_2, CALIB_CNT_2, calibration2);
 80007e6:	4b07      	ldr	r3, [pc, #28]	@ (8000804 <readBME280_calib+0x4c>)
 80007e8:	781a      	ldrb	r2, [r3, #0]
 80007ea:	7df9      	ldrb	r1, [r7, #23]
 80007ec:	683b      	ldr	r3, [r7, #0]
 80007ee:	9300      	str	r3, [sp, #0]
 80007f0:	2307      	movs	r3, #7
 80007f2:	68f8      	ldr	r0, [r7, #12]
 80007f4:	f000 fa6e 	bl	8000cd4 <i2c_burst_read>
}
 80007f8:	bf00      	nop
 80007fa:	3718      	adds	r7, #24
 80007fc:	46bd      	mov	sp, r7
 80007fe:	bd80      	pop	{r7, pc}
 8000800:	2000000e 	.word	0x2000000e
 8000804:	2000000f 	.word	0x2000000f

08000808 <getBME280Config>:

BME280_Config getBME280Config(uint8_t bme) {
 8000808:	b480      	push	{r7}
 800080a:	b085      	sub	sp, #20
 800080c:	af00      	add	r7, sp, #0
 800080e:	4603      	mov	r3, r0
 8000810:	71fb      	strb	r3, [r7, #7]
	BME280_Config config;
	if (bme == 0) {
 8000812:	79fb      	ldrb	r3, [r7, #7]
 8000814:	2b00      	cmp	r3, #0
 8000816:	d102      	bne.n	800081e <getBME280Config+0x16>
		config.bme_addr = BME280_ADDR_0;
 8000818:	2376      	movs	r3, #118	@ 0x76
 800081a:	733b      	strb	r3, [r7, #12]
 800081c:	e004      	b.n	8000828 <getBME280Config+0x20>
	} else if (bme == 1) {
 800081e:	79fb      	ldrb	r3, [r7, #7]
 8000820:	2b01      	cmp	r3, #1
 8000822:	d101      	bne.n	8000828 <getBME280Config+0x20>
		config.bme_addr = BME280_ADDR_1;
 8000824:	2377      	movs	r3, #119	@ 0x77
 8000826:	733b      	strb	r3, [r7, #12]
	}
    return config;
 8000828:	7b3b      	ldrb	r3, [r7, #12]
}
 800082a:	4618      	mov	r0, r3
 800082c:	3714      	adds	r7, #20
 800082e:	46bd      	mov	sp, r7
 8000830:	f85d 7b04 	ldr.w	r7, [sp], #4
 8000834:	4770      	bx	lr

08000836 <swap>:

void swap(uint8_t* a, uint8_t* b) {
 8000836:	b480      	push	{r7}
 8000838:	b085      	sub	sp, #20
 800083a:	af00      	add	r7, sp, #0
 800083c:	6078      	str	r0, [r7, #4]
 800083e:	6039      	str	r1, [r7, #0]
    uint8_t temp = *a;
 8000840:	687b      	ldr	r3, [r7, #4]
 8000842:	781b      	ldrb	r3, [r3, #0]
 8000844:	73fb      	strb	r3, [r7, #15]
    *a = *b;
 8000846:	683b      	ldr	r3, [r7, #0]
 8000848:	781a      	ldrb	r2, [r3, #0]
 800084a:	687b      	ldr	r3, [r7, #4]
 800084c:	701a      	strb	r2, [r3, #0]
    *b = temp;
 800084e:	683b      	ldr	r3, [r7, #0]
 8000850:	7bfa      	ldrb	r2, [r7, #15]
 8000852:	701a      	strb	r2, [r3, #0]
}
 8000854:	bf00      	nop
 8000856:	3714      	adds	r7, #20
 8000858:	46bd      	mov	sp, r7
 800085a:	f85d 7b04 	ldr.w	r7, [sp], #4
 800085e:	4770      	bx	lr

08000860 <sendCAN_TxMessage>:
 */

#include "can_driver.h"


void sendCAN_TxMessage(CAN_HandleTypeDef *hcan, uint8_t dataSize, uint8_t TxData[dataSize], uint32_t *CAN_TxMailbox, uint16_t payload_id) {
 8000860:	b580      	push	{r7, lr}
 8000862:	b08a      	sub	sp, #40	@ 0x28
 8000864:	af00      	add	r7, sp, #0
 8000866:	60f8      	str	r0, [r7, #12]
 8000868:	607a      	str	r2, [r7, #4]
 800086a:	603b      	str	r3, [r7, #0]
 800086c:	460b      	mov	r3, r1
 800086e:	72fb      	strb	r3, [r7, #11]
	CAN_TxHeaderTypeDef TxHeader = configureTxHeader(payload_id, dataSize);
 8000870:	f107 0310 	add.w	r3, r7, #16
 8000874:	7afa      	ldrb	r2, [r7, #11]
 8000876:	8e39      	ldrh	r1, [r7, #48]	@ 0x30
 8000878:	4618      	mov	r0, r3
 800087a:	f000 f80b 	bl	8000894 <configureTxHeader>
	HAL_CAN_AddTxMessage(hcan, &TxHeader, TxData, CAN_TxMailbox);
 800087e:	f107 0110 	add.w	r1, r7, #16
 8000882:	683b      	ldr	r3, [r7, #0]
 8000884:	687a      	ldr	r2, [r7, #4]
 8000886:	68f8      	ldr	r0, [r7, #12]
 8000888:	f002 ff16 	bl	80036b8 <HAL_CAN_AddTxMessage>
}
 800088c:	bf00      	nop
 800088e:	3728      	adds	r7, #40	@ 0x28
 8000890:	46bd      	mov	sp, r7
 8000892:	bd80      	pop	{r7, pc}

08000894 <configureTxHeader>:

CAN_TxHeaderTypeDef configureTxHeader(uint16_t payload_id, uint8_t dataSize) {
 8000894:	b4b0      	push	{r4, r5, r7}
 8000896:	b089      	sub	sp, #36	@ 0x24
 8000898:	af00      	add	r7, sp, #0
 800089a:	6078      	str	r0, [r7, #4]
 800089c:	460b      	mov	r3, r1
 800089e:	807b      	strh	r3, [r7, #2]
 80008a0:	4613      	mov	r3, r2
 80008a2:	707b      	strb	r3, [r7, #1]
	CAN_TxHeaderTypeDef TxHeader;
	TxHeader.DLC = dataSize;
 80008a4:	787b      	ldrb	r3, [r7, #1]
 80008a6:	61bb      	str	r3, [r7, #24]
	TxHeader.IDE = CAN_ID_STD;
 80008a8:	2300      	movs	r3, #0
 80008aa:	613b      	str	r3, [r7, #16]
	TxHeader.RTR = CAN_RTR_DATA;
 80008ac:	2300      	movs	r3, #0
 80008ae:	617b      	str	r3, [r7, #20]
	TxHeader.StdId = payload_id;
 80008b0:	887b      	ldrh	r3, [r7, #2]
 80008b2:	60bb      	str	r3, [r7, #8]
	TxHeader.TransmitGlobalTime = DISABLE;
 80008b4:	2300      	movs	r3, #0
 80008b6:	773b      	strb	r3, [r7, #28]
	return TxHeader;
 80008b8:	687b      	ldr	r3, [r7, #4]
 80008ba:	461d      	mov	r5, r3
 80008bc:	f107 0408 	add.w	r4, r7, #8
 80008c0:	cc0f      	ldmia	r4!, {r0, r1, r2, r3}
 80008c2:	c50f      	stmia	r5!, {r0, r1, r2, r3}
 80008c4:	e894 0003 	ldmia.w	r4, {r0, r1}
 80008c8:	e885 0003 	stmia.w	r5, {r0, r1}
}
 80008cc:	6878      	ldr	r0, [r7, #4]
 80008ce:	3724      	adds	r7, #36	@ 0x24
 80008d0:	46bd      	mov	sp, r7
 80008d2:	bcb0      	pop	{r4, r5, r7}
 80008d4:	4770      	bx	lr

080008d6 <check_busy>:
uint8_t FLASH_32K_ERS	= 0x52;			// Erase all memory within a 32K-byte block
uint8_t FLASH_ERASE		= 0xC7;			// Erase the entire chip
uint8_t RST_EN			= 0x66;			// Reset enable
uint8_t DEV_RST			= 0x99;			// Reset device

uint8_t check_busy(SPI_HandleTypeDef *hspi, GPIO_Config config, int timeout) {
 80008d6:	b580      	push	{r7, lr}
 80008d8:	b088      	sub	sp, #32
 80008da:	af00      	add	r7, sp, #0
 80008dc:	60f8      	str	r0, [r7, #12]
 80008de:	1d38      	adds	r0, r7, #4
 80008e0:	e880 0006 	stmia.w	r0, {r1, r2}
 80008e4:	603b      	str	r3, [r7, #0]
	uint8_t ret_val = 0x00;
 80008e6:	2300      	movs	r3, #0
 80008e8:	77fb      	strb	r3, [r7, #31]

    // Get the current time
	uint32_t startTick = HAL_GetTick();
 80008ea:	f002 fc95 	bl	8003218 <HAL_GetTick>
 80008ee:	61b8      	str	r0, [r7, #24]

	// Read the status register to ensure no write is currently in progress
	uint8_t busy = 0x01;
 80008f0:	2301      	movs	r3, #1
 80008f2:	77bb      	strb	r3, [r7, #30]
	while(busy) {
 80008f4:	e015      	b.n	8000922 <check_busy+0x4c>
		// Check if there is a write in progress
		busy = (check_status_register(hspi, config) & 0x01);
 80008f6:	1d3b      	adds	r3, r7, #4
 80008f8:	e893 0006 	ldmia.w	r3, {r1, r2}
 80008fc:	68f8      	ldr	r0, [r7, #12]
 80008fe:	f000 f819 	bl	8000934 <check_status_register>
 8000902:	4603      	mov	r3, r0
 8000904:	f003 0301 	and.w	r3, r3, #1
 8000908:	77bb      	strb	r3, [r7, #30]

		uint32_t currTick = HAL_GetTick();
 800090a:	f002 fc85 	bl	8003218 <HAL_GetTick>
 800090e:	6178      	str	r0, [r7, #20]

        // Check if the timeout has been reached
		if ((currTick - startTick) >= timeout) {
 8000910:	697a      	ldr	r2, [r7, #20]
 8000912:	69bb      	ldr	r3, [r7, #24]
 8000914:	1ad2      	subs	r2, r2, r3
 8000916:	683b      	ldr	r3, [r7, #0]
 8000918:	429a      	cmp	r2, r3
 800091a:	d302      	bcc.n	8000922 <check_busy+0x4c>
        	ret_val = 0x01;
 800091c:	2301      	movs	r3, #1
 800091e:	77fb      	strb	r3, [r7, #31]
            break;
 8000920:	e002      	b.n	8000928 <check_busy+0x52>
	while(busy) {
 8000922:	7fbb      	ldrb	r3, [r7, #30]
 8000924:	2b00      	cmp	r3, #0
 8000926:	d1e6      	bne.n	80008f6 <check_busy+0x20>
        }
	}

	return ret_val;
 8000928:	7ffb      	ldrb	r3, [r7, #31]
}
 800092a:	4618      	mov	r0, r3
 800092c:	3720      	adds	r7, #32
 800092e:	46bd      	mov	sp, r7
 8000930:	bd80      	pop	{r7, pc}
	...

08000934 <check_status_register>:

uint8_t check_status_register(SPI_HandleTypeDef *hspi, GPIO_Config config) {
 8000934:	b580      	push	{r7, lr}
 8000936:	b088      	sub	sp, #32
 8000938:	af02      	add	r7, sp, #8
 800093a:	60f8      	str	r0, [r7, #12]
 800093c:	1d3b      	adds	r3, r7, #4
 800093e:	e883 0006 	stmia.w	r3, {r1, r2}
	uint8_t status_reg = 0x00;
 8000942:	2300      	movs	r3, #0
 8000944:	75fb      	strb	r3, [r7, #23]
	spi_sendOp_readByte(&FLASH_READSR1, hspi, &status_reg, config.GPIOx, config.GPIO_Pin);
 8000946:	6879      	ldr	r1, [r7, #4]
 8000948:	893b      	ldrh	r3, [r7, #8]
 800094a:	f107 0217 	add.w	r2, r7, #23
 800094e:	9300      	str	r3, [sp, #0]
 8000950:	460b      	mov	r3, r1
 8000952:	68f9      	ldr	r1, [r7, #12]
 8000954:	4803      	ldr	r0, [pc, #12]	@ (8000964 <check_status_register+0x30>)
 8000956:	f001 fe81 	bl	800265c <spi_sendOp_readByte>
	return status_reg;
 800095a:	7dfb      	ldrb	r3, [r7, #23]
}
 800095c:	4618      	mov	r0, r3
 800095e:	3718      	adds	r7, #24
 8000960:	46bd      	mov	sp, r7
 8000962:	bd80      	pop	{r7, pc}
 8000964:	20000012 	.word	0x20000012

08000968 <erase_chip_spi>:
 *      Author: aidencontini
 */

#include "data_output_spi.h"

HAL_StatusTypeDef erase_chip_spi(SPI_HandleTypeDef *hspi, GPIO_Config config) {
 8000968:	b580      	push	{r7, lr}
 800096a:	b084      	sub	sp, #16
 800096c:	af00      	add	r7, sp, #0
 800096e:	60f8      	str	r0, [r7, #12]
 8000970:	1d3b      	adds	r3, r7, #4
 8000972:	e883 0006 	stmia.w	r3, {r1, r2}
	check_busy(hspi, config, BSY_TIMEOUT_MS);
 8000976:	2305      	movs	r3, #5
 8000978:	1d3a      	adds	r2, r7, #4
 800097a:	ca06      	ldmia	r2, {r1, r2}
 800097c:	68f8      	ldr	r0, [r7, #12]
 800097e:	f7ff ffaa 	bl	80008d6 <check_busy>

	write_enable_spi(hspi, config);
 8000982:	1d3b      	adds	r3, r7, #4
 8000984:	e893 0006 	ldmia.w	r3, {r1, r2}
 8000988:	68f8      	ldr	r0, [r7, #12]
 800098a:	f000 f815 	bl	80009b8 <write_enable_spi>
	perform_operation(&FLASH_ERASE, hspi, config.GPIOx, config.GPIO_Pin);
 800098e:	687a      	ldr	r2, [r7, #4]
 8000990:	893b      	ldrh	r3, [r7, #8]
 8000992:	68f9      	ldr	r1, [r7, #12]
 8000994:	4806      	ldr	r0, [pc, #24]	@ (80009b0 <erase_chip_spi+0x48>)
 8000996:	f001 fe87 	bl	80026a8 <perform_operation>

	check_busy(hspi, config, CHIP_ERASE_TO);
 800099a:	4b06      	ldr	r3, [pc, #24]	@ (80009b4 <erase_chip_spi+0x4c>)
 800099c:	1d3a      	adds	r2, r7, #4
 800099e:	ca06      	ldmia	r2, {r1, r2}
 80009a0:	68f8      	ldr	r0, [r7, #12]
 80009a2:	f7ff ff98 	bl	80008d6 <check_busy>

	return HAL_OK;
 80009a6:	2300      	movs	r3, #0
}
 80009a8:	4618      	mov	r0, r3
 80009aa:	3710      	adds	r7, #16
 80009ac:	46bd      	mov	sp, r7
 80009ae:	bd80      	pop	{r7, pc}
 80009b0:	20000015 	.word	0x20000015
 80009b4:	00030d40 	.word	0x00030d40

080009b8 <write_enable_spi>:
	check_busy(hspi, config, BLK_ERS_32K_TO);

	return HAL_OK;
}

void write_enable_spi(SPI_HandleTypeDef *hspi, GPIO_Config config) {
 80009b8:	b580      	push	{r7, lr}
 80009ba:	b084      	sub	sp, #16
 80009bc:	af00      	add	r7, sp, #0
 80009be:	60f8      	str	r0, [r7, #12]
 80009c0:	1d3b      	adds	r3, r7, #4
 80009c2:	e883 0006 	stmia.w	r3, {r1, r2}
	perform_operation(&FLASH_WREN, hspi, config.GPIOx, config.GPIO_Pin);
 80009c6:	687a      	ldr	r2, [r7, #4]
 80009c8:	893b      	ldrh	r3, [r7, #8]
 80009ca:	68f9      	ldr	r1, [r7, #12]
 80009cc:	4803      	ldr	r0, [pc, #12]	@ (80009dc <write_enable_spi+0x24>)
 80009ce:	f001 fe6b 	bl	80026a8 <perform_operation>
}
 80009d2:	bf00      	nop
 80009d4:	3710      	adds	r7, #16
 80009d6:	46bd      	mov	sp, r7
 80009d8:	bd80      	pop	{r7, pc}
 80009da:	bf00      	nop
 80009dc:	20000010 	.word	0x20000010

080009e0 <software_reset>:

void write_disable_spi(SPI_HandleTypeDef *hspi, GPIO_Config config) {
	perform_operation(&FLASH_WRDIS, hspi, config.GPIOx, config.GPIO_Pin);
}

void software_reset(SPI_HandleTypeDef *hspi, GPIO_Config config) {
 80009e0:	b580      	push	{r7, lr}
 80009e2:	b084      	sub	sp, #16
 80009e4:	af00      	add	r7, sp, #0
 80009e6:	60f8      	str	r0, [r7, #12]
 80009e8:	1d3b      	adds	r3, r7, #4
 80009ea:	e883 0006 	stmia.w	r3, {r1, r2}

	check_busy(hspi, config, BSY_TIMEOUT_MS);
 80009ee:	2305      	movs	r3, #5
 80009f0:	1d3a      	adds	r2, r7, #4
 80009f2:	ca06      	ldmia	r2, {r1, r2}
 80009f4:	68f8      	ldr	r0, [r7, #12]
 80009f6:	f7ff ff6e 	bl	80008d6 <check_busy>

	perform_operation(&RST_EN, hspi, config.GPIOx, config.GPIO_Pin);
 80009fa:	687a      	ldr	r2, [r7, #4]
 80009fc:	893b      	ldrh	r3, [r7, #8]
 80009fe:	68f9      	ldr	r1, [r7, #12]
 8000a00:	4807      	ldr	r0, [pc, #28]	@ (8000a20 <software_reset+0x40>)
 8000a02:	f001 fe51 	bl	80026a8 <perform_operation>
	perform_operation(&DEV_RST, hspi, config.GPIOx, config.GPIO_Pin);
 8000a06:	687a      	ldr	r2, [r7, #4]
 8000a08:	893b      	ldrh	r3, [r7, #8]
 8000a0a:	68f9      	ldr	r1, [r7, #12]
 8000a0c:	4805      	ldr	r0, [pc, #20]	@ (8000a24 <software_reset+0x44>)
 8000a0e:	f001 fe4b 	bl	80026a8 <perform_operation>

	HAL_Delay(5);
 8000a12:	2005      	movs	r0, #5
 8000a14:	f002 fc0c 	bl	8003230 <HAL_Delay>
}
 8000a18:	bf00      	nop
 8000a1a:	3710      	adds	r7, #16
 8000a1c:	46bd      	mov	sp, r7
 8000a1e:	bd80      	pop	{r7, pc}
 8000a20:	20000016 	.word	0x20000016
 8000a24:	20000017 	.word	0x20000017

08000a28 <write_data_spi_dma>:
	spi_write_data(&FLASH_PGWR, PAGE_SIZE, page, hspi, addr, config.GPIOx, config.GPIO_Pin);

	return 0;
}

uint8_t write_data_spi_dma(uint8_t page[PAGE_SIZE], SPI_HandleTypeDef *hspi, uint32_t addr, GPIO_Config config) {
 8000a28:	b082      	sub	sp, #8
 8000a2a:	b580      	push	{r7, lr}
 8000a2c:	b088      	sub	sp, #32
 8000a2e:	af04      	add	r7, sp, #16
 8000a30:	60f8      	str	r0, [r7, #12]
 8000a32:	60b9      	str	r1, [r7, #8]
 8000a34:	607a      	str	r2, [r7, #4]
 8000a36:	61fb      	str	r3, [r7, #28]
	check_busy(hspi, config, BSY_TIMEOUT_MS);
 8000a38:	2305      	movs	r3, #5
 8000a3a:	f107 021c 	add.w	r2, r7, #28
 8000a3e:	ca06      	ldmia	r2, {r1, r2}
 8000a40:	68b8      	ldr	r0, [r7, #8]
 8000a42:	f7ff ff48 	bl	80008d6 <check_busy>

	// Send the write enable signal
	write_enable_spi(hspi, config);
 8000a46:	f107 031c 	add.w	r3, r7, #28
 8000a4a:	e893 0006 	ldmia.w	r3, {r1, r2}
 8000a4e:	68b8      	ldr	r0, [r7, #8]
 8000a50:	f7ff ffb2 	bl	80009b8 <write_enable_spi>
	spi_write_data_dma(&FLASH_PGWR, PAGE_SIZE, page, hspi, addr, config.GPIOx, config.GPIO_Pin);
 8000a54:	69fb      	ldr	r3, [r7, #28]
 8000a56:	8c3a      	ldrh	r2, [r7, #32]
 8000a58:	9202      	str	r2, [sp, #8]
 8000a5a:	9301      	str	r3, [sp, #4]
 8000a5c:	687b      	ldr	r3, [r7, #4]
 8000a5e:	9300      	str	r3, [sp, #0]
 8000a60:	68bb      	ldr	r3, [r7, #8]
 8000a62:	68fa      	ldr	r2, [r7, #12]
 8000a64:	f44f 7180 	mov.w	r1, #256	@ 0x100
 8000a68:	4805      	ldr	r0, [pc, #20]	@ (8000a80 <write_data_spi_dma+0x58>)
 8000a6a:	f001 fe84 	bl	8002776 <spi_write_data_dma>

	return 0;
 8000a6e:	2300      	movs	r3, #0
}
 8000a70:	4618      	mov	r0, r3
 8000a72:	3710      	adds	r7, #16
 8000a74:	46bd      	mov	sp, r7
 8000a76:	e8bd 4080 	ldmia.w	sp!, {r7, lr}
 8000a7a:	b002      	add	sp, #8
 8000a7c:	4770      	bx	lr
 8000a7e:	bf00      	nop
 8000a80:	20000011 	.word	0x20000011

08000a84 <find_next_blank_page>:
 *      Author: aidencontini
 */

#include "data_read_spi.h"

uint32_t find_next_blank_page(SPI_HandleTypeDef *hspi, GPIO_PinState *end_of_flash_ptr, GPIO_Config config) {
 8000a84:	e92d 43f0 	stmdb	sp!, {r4, r5, r6, r7, r8, r9, lr}
 8000a88:	b091      	sub	sp, #68	@ 0x44
 8000a8a:	af04      	add	r7, sp, #16
 8000a8c:	60f8      	str	r0, [r7, #12]
 8000a8e:	60b9      	str	r1, [r7, #8]
 8000a90:	4639      	mov	r1, r7
 8000a92:	e881 000c 	stmia.w	r1, {r2, r3}
 8000a96:	466b      	mov	r3, sp
 8000a98:	461e      	mov	r6, r3
	uint8_t firstBytes = 4;
 8000a9a:	2304      	movs	r3, #4
 8000a9c:	77fb      	strb	r3, [r7, #31]

	uint8_t page_start[firstBytes];
 8000a9e:	7ff9      	ldrb	r1, [r7, #31]
 8000aa0:	460b      	mov	r3, r1
 8000aa2:	3b01      	subs	r3, #1
 8000aa4:	61bb      	str	r3, [r7, #24]
 8000aa6:	b2cb      	uxtb	r3, r1
 8000aa8:	2200      	movs	r2, #0
 8000aaa:	4698      	mov	r8, r3
 8000aac:	4691      	mov	r9, r2
 8000aae:	f04f 0200 	mov.w	r2, #0
 8000ab2:	f04f 0300 	mov.w	r3, #0
 8000ab6:	ea4f 03c9 	mov.w	r3, r9, lsl #3
 8000aba:	ea43 7358 	orr.w	r3, r3, r8, lsr #29
 8000abe:	ea4f 02c8 	mov.w	r2, r8, lsl #3
 8000ac2:	b2cb      	uxtb	r3, r1
 8000ac4:	2200      	movs	r2, #0
 8000ac6:	461c      	mov	r4, r3
 8000ac8:	4615      	mov	r5, r2
 8000aca:	f04f 0200 	mov.w	r2, #0
 8000ace:	f04f 0300 	mov.w	r3, #0
 8000ad2:	00eb      	lsls	r3, r5, #3
 8000ad4:	ea43 7354 	orr.w	r3, r3, r4, lsr #29
 8000ad8:	00e2      	lsls	r2, r4, #3
 8000ada:	460b      	mov	r3, r1
 8000adc:	3307      	adds	r3, #7
 8000ade:	08db      	lsrs	r3, r3, #3
 8000ae0:	00db      	lsls	r3, r3, #3
 8000ae2:	ebad 0d03 	sub.w	sp, sp, r3
 8000ae6:	ab04      	add	r3, sp, #16
 8000ae8:	3300      	adds	r3, #0
 8000aea:	617b      	str	r3, [r7, #20]
	for (int i = 0; i < firstBytes; i++) {
 8000aec:	2300      	movs	r3, #0
 8000aee:	62fb      	str	r3, [r7, #44]	@ 0x2c
 8000af0:	e007      	b.n	8000b02 <find_next_blank_page+0x7e>
		page_start[i] = 0;
 8000af2:	697a      	ldr	r2, [r7, #20]
 8000af4:	6afb      	ldr	r3, [r7, #44]	@ 0x2c
 8000af6:	4413      	add	r3, r2
 8000af8:	2200      	movs	r2, #0
 8000afa:	701a      	strb	r2, [r3, #0]
	for (int i = 0; i < firstBytes; i++) {
 8000afc:	6afb      	ldr	r3, [r7, #44]	@ 0x2c
 8000afe:	3301      	adds	r3, #1
 8000b00:	62fb      	str	r3, [r7, #44]	@ 0x2c
 8000b02:	7ffb      	ldrb	r3, [r7, #31]
 8000b04:	6afa      	ldr	r2, [r7, #44]	@ 0x2c
 8000b06:	429a      	cmp	r2, r3
 8000b08:	dbf3      	blt.n	8000af2 <find_next_blank_page+0x6e>
	}

	uint32_t page_start_concat = (page_start[0] << 24) | (page_start[1] << 16) | (page_start[2] << 8) | page_start[3];
 8000b0a:	697b      	ldr	r3, [r7, #20]
 8000b0c:	781b      	ldrb	r3, [r3, #0]
 8000b0e:	061a      	lsls	r2, r3, #24
 8000b10:	697b      	ldr	r3, [r7, #20]
 8000b12:	785b      	ldrb	r3, [r3, #1]
 8000b14:	041b      	lsls	r3, r3, #16
 8000b16:	431a      	orrs	r2, r3
 8000b18:	697b      	ldr	r3, [r7, #20]
 8000b1a:	789b      	ldrb	r3, [r3, #2]
 8000b1c:	021b      	lsls	r3, r3, #8
 8000b1e:	4313      	orrs	r3, r2
 8000b20:	697a      	ldr	r2, [r7, #20]
 8000b22:	78d2      	ldrb	r2, [r2, #3]
 8000b24:	4313      	orrs	r3, r2
 8000b26:	62bb      	str	r3, [r7, #40]	@ 0x28
	uint32_t temp = 0;
 8000b28:	2300      	movs	r3, #0
 8000b2a:	627b      	str	r3, [r7, #36]	@ 0x24
	uint32_t page_address = temp;
 8000b2c:	6a7b      	ldr	r3, [r7, #36]	@ 0x24
 8000b2e:	623b      	str	r3, [r7, #32]

	while ((page_start_concat != 0xFFFFFFFF) || (temp == NUM_OF_PAGES)) {
 8000b30:	e027      	b.n	8000b82 <find_next_blank_page+0xfe>
		page_address = temp;
 8000b32:	6a7b      	ldr	r3, [r7, #36]	@ 0x24
 8000b34:	623b      	str	r3, [r7, #32]

		check_busy(hspi, config, BSY_TIMEOUT_MS);
 8000b36:	2305      	movs	r3, #5
 8000b38:	463a      	mov	r2, r7
 8000b3a:	ca06      	ldmia	r2, {r1, r2}
 8000b3c:	68f8      	ldr	r0, [r7, #12]
 8000b3e:	f7ff feca 	bl	80008d6 <check_busy>

		spi_read_data(&FLASH_READEN, firstBytes, page_start, hspi, page_address, config.GPIOx, config.GPIO_Pin);
 8000b42:	7ffb      	ldrb	r3, [r7, #31]
 8000b44:	b299      	uxth	r1, r3
 8000b46:	683b      	ldr	r3, [r7, #0]
 8000b48:	88ba      	ldrh	r2, [r7, #4]
 8000b4a:	9202      	str	r2, [sp, #8]
 8000b4c:	9301      	str	r3, [sp, #4]
 8000b4e:	6a3b      	ldr	r3, [r7, #32]
 8000b50:	9300      	str	r3, [sp, #0]
 8000b52:	68fb      	ldr	r3, [r7, #12]
 8000b54:	697a      	ldr	r2, [r7, #20]
 8000b56:	4818      	ldr	r0, [pc, #96]	@ (8000bb8 <find_next_blank_page+0x134>)
 8000b58:	f001 fdc6 	bl	80026e8 <spi_read_data>

		page_start_concat = (page_start[0] << 24) | (page_start[1] << 16) | (page_start[2] << 8) | page_start[3];
 8000b5c:	697b      	ldr	r3, [r7, #20]
 8000b5e:	781b      	ldrb	r3, [r3, #0]
 8000b60:	061a      	lsls	r2, r3, #24
 8000b62:	697b      	ldr	r3, [r7, #20]
 8000b64:	785b      	ldrb	r3, [r3, #1]
 8000b66:	041b      	lsls	r3, r3, #16
 8000b68:	431a      	orrs	r2, r3
 8000b6a:	697b      	ldr	r3, [r7, #20]
 8000b6c:	789b      	ldrb	r3, [r3, #2]
 8000b6e:	021b      	lsls	r3, r3, #8
 8000b70:	4313      	orrs	r3, r2
 8000b72:	697a      	ldr	r2, [r7, #20]
 8000b74:	78d2      	ldrb	r2, [r2, #3]
 8000b76:	4313      	orrs	r3, r2
 8000b78:	62bb      	str	r3, [r7, #40]	@ 0x28
		temp += PAGE_SIZE;
 8000b7a:	6a7b      	ldr	r3, [r7, #36]	@ 0x24
 8000b7c:	f503 7380 	add.w	r3, r3, #256	@ 0x100
 8000b80:	627b      	str	r3, [r7, #36]	@ 0x24
	while ((page_start_concat != 0xFFFFFFFF) || (temp == NUM_OF_PAGES)) {
 8000b82:	6abb      	ldr	r3, [r7, #40]	@ 0x28
 8000b84:	f1b3 3fff 	cmp.w	r3, #4294967295	@ 0xffffffff
 8000b88:	d1d3      	bne.n	8000b32 <find_next_blank_page+0xae>
 8000b8a:	6a7b      	ldr	r3, [r7, #36]	@ 0x24
 8000b8c:	f64f 72ff 	movw	r2, #65535	@ 0xffff
 8000b90:	4293      	cmp	r3, r2
 8000b92:	d0ce      	beq.n	8000b32 <find_next_blank_page+0xae>
	}

	if (page_address == (NUM_OF_PAGES * PAGE_SIZE)) {
 8000b94:	6a3b      	ldr	r3, [r7, #32]
 8000b96:	4a09      	ldr	r2, [pc, #36]	@ (8000bbc <find_next_blank_page+0x138>)
 8000b98:	4293      	cmp	r3, r2
 8000b9a:	d106      	bne.n	8000baa <find_next_blank_page+0x126>
		if(*end_of_flash_ptr == GPIO_PIN_RESET) {
 8000b9c:	68bb      	ldr	r3, [r7, #8]
 8000b9e:	781b      	ldrb	r3, [r3, #0]
 8000ba0:	2b00      	cmp	r3, #0
 8000ba2:	d102      	bne.n	8000baa <find_next_blank_page+0x126>
			*end_of_flash_ptr = GPIO_PIN_SET;
 8000ba4:	68bb      	ldr	r3, [r7, #8]
 8000ba6:	2201      	movs	r2, #1
 8000ba8:	701a      	strb	r2, [r3, #0]
		}
	}
	return page_address;
 8000baa:	6a3b      	ldr	r3, [r7, #32]
 8000bac:	46b5      	mov	sp, r6
}
 8000bae:	4618      	mov	r0, r3
 8000bb0:	3734      	adds	r7, #52	@ 0x34
 8000bb2:	46bd      	mov	sp, r7
 8000bb4:	e8bd 83f0 	ldmia.w	sp!, {r4, r5, r6, r7, r8, r9, pc}
 8000bb8:	20000013 	.word	0x20000013
 8000bbc:	00ffff00 	.word	0x00ffff00

08000bc0 <read_page_spi>:

void read_page_spi(uint8_t data_read[PAGE_SIZE], SPI_HandleTypeDef *hspi, uint32_t addr, GPIO_Config config) {
 8000bc0:	b082      	sub	sp, #8
 8000bc2:	b580      	push	{r7, lr}
 8000bc4:	b088      	sub	sp, #32
 8000bc6:	af04      	add	r7, sp, #16
 8000bc8:	60f8      	str	r0, [r7, #12]
 8000bca:	60b9      	str	r1, [r7, #8]
 8000bcc:	607a      	str	r2, [r7, #4]
 8000bce:	61fb      	str	r3, [r7, #28]

	// Read the status register to ensure no write is currently in progress
	check_busy(hspi, config, BSY_TIMEOUT_MS);
 8000bd0:	2305      	movs	r3, #5
 8000bd2:	f107 021c 	add.w	r2, r7, #28
 8000bd6:	ca06      	ldmia	r2, {r1, r2}
 8000bd8:	68b8      	ldr	r0, [r7, #8]
 8000bda:	f7ff fe7c 	bl	80008d6 <check_busy>
	spi_read_data(&FLASH_READEN, PAGE_SIZE, data_read, hspi, addr, config.GPIOx, config.GPIO_Pin);
 8000bde:	69fb      	ldr	r3, [r7, #28]
 8000be0:	8c3a      	ldrh	r2, [r7, #32]
 8000be2:	9202      	str	r2, [sp, #8]
 8000be4:	9301      	str	r3, [sp, #4]
 8000be6:	687b      	ldr	r3, [r7, #4]
 8000be8:	9300      	str	r3, [sp, #0]
 8000bea:	68bb      	ldr	r3, [r7, #8]
 8000bec:	68fa      	ldr	r2, [r7, #12]
 8000bee:	f44f 7180 	mov.w	r1, #256	@ 0x100
 8000bf2:	4805      	ldr	r0, [pc, #20]	@ (8000c08 <read_page_spi+0x48>)
 8000bf4:	f001 fd78 	bl	80026e8 <spi_read_data>
}
 8000bf8:	bf00      	nop
 8000bfa:	3710      	adds	r7, #16
 8000bfc:	46bd      	mov	sp, r7
 8000bfe:	e8bd 4080 	ldmia.w	sp!, {r7, lr}
 8000c02:	b002      	add	sp, #8
 8000c04:	4770      	bx	lr
 8000c06:	bf00      	nop
 8000c08:	20000013 	.word	0x20000013

08000c0c <read_manufacturer_id>:

void read_manufacturer_id(uint8_t manu[2], SPI_HandleTypeDef *hspi, GPIO_Config config) {
 8000c0c:	b580      	push	{r7, lr}
 8000c0e:	b08a      	sub	sp, #40	@ 0x28
 8000c10:	af04      	add	r7, sp, #16
 8000c12:	60f8      	str	r0, [r7, #12]
 8000c14:	60b9      	str	r1, [r7, #8]
 8000c16:	4639      	mov	r1, r7
 8000c18:	e881 000c 	stmia.w	r1, {r2, r3}

	// Read the status register to ensure no write is currently in progress
	check_busy(hspi, config, BSY_TIMEOUT_MS);
 8000c1c:	2305      	movs	r3, #5
 8000c1e:	463a      	mov	r2, r7
 8000c20:	ca06      	ldmia	r2, {r1, r2}
 8000c22:	68b8      	ldr	r0, [r7, #8]
 8000c24:	f7ff fe57 	bl	80008d6 <check_busy>

	// Read the entire contents of a page starting from the given address
	uint8_t addr = 0x00;
 8000c28:	2300      	movs	r3, #0
 8000c2a:	75fb      	strb	r3, [r7, #23]
	spi_read_data(&FLASH_READ_MANU, 2, manu, hspi, addr, config.GPIOx, config.GPIO_Pin);
 8000c2c:	7dfb      	ldrb	r3, [r7, #23]
 8000c2e:	683a      	ldr	r2, [r7, #0]
 8000c30:	88b9      	ldrh	r1, [r7, #4]
 8000c32:	9102      	str	r1, [sp, #8]
 8000c34:	9201      	str	r2, [sp, #4]
 8000c36:	9300      	str	r3, [sp, #0]
 8000c38:	68bb      	ldr	r3, [r7, #8]
 8000c3a:	68fa      	ldr	r2, [r7, #12]
 8000c3c:	2102      	movs	r1, #2
 8000c3e:	4803      	ldr	r0, [pc, #12]	@ (8000c4c <read_manufacturer_id+0x40>)
 8000c40:	f001 fd52 	bl	80026e8 <spi_read_data>
}
 8000c44:	bf00      	nop
 8000c46:	3718      	adds	r7, #24
 8000c48:	46bd      	mov	sp, r7
 8000c4a:	bd80      	pop	{r7, pc}
 8000c4c:	20000014 	.word	0x20000014

08000c50 <create_GPIO_Config>:
 */

#include "gpio_struct.h"

// Function to initialize the GPIO_Config struct
GPIO_Config create_GPIO_Config(GPIO_TypeDef* GPIOx, uint16_t GPIO_Pin) {
 8000c50:	b480      	push	{r7}
 8000c52:	b087      	sub	sp, #28
 8000c54:	af00      	add	r7, sp, #0
 8000c56:	60f8      	str	r0, [r7, #12]
 8000c58:	60b9      	str	r1, [r7, #8]
 8000c5a:	4613      	mov	r3, r2
 8000c5c:	80fb      	strh	r3, [r7, #6]
    GPIO_Config new_config;
    new_config.GPIOx = GPIOx;
 8000c5e:	68bb      	ldr	r3, [r7, #8]
 8000c60:	613b      	str	r3, [r7, #16]
    new_config.GPIO_Pin = GPIO_Pin;
 8000c62:	88fb      	ldrh	r3, [r7, #6]
 8000c64:	82bb      	strh	r3, [r7, #20]
    return new_config;
 8000c66:	68fb      	ldr	r3, [r7, #12]
 8000c68:	461a      	mov	r2, r3
 8000c6a:	f107 0310 	add.w	r3, r7, #16
 8000c6e:	e893 0003 	ldmia.w	r3, {r0, r1}
 8000c72:	e882 0003 	stmia.w	r2, {r0, r1}
}
 8000c76:	68f8      	ldr	r0, [r7, #12]
 8000c78:	371c      	adds	r7, #28
 8000c7a:	46bd      	mov	sp, r7
 8000c7c:	f85d 7b04 	ldr.w	r7, [sp], #4
 8000c80:	4770      	bx	lr

08000c82 <i2c_read_reg>:
 *      Author: aidencontini
 */

#include "i2c_driver.h"

HAL_StatusTypeDef i2c_read_reg(I2C_HandleTypeDef* hi2c, uint8_t* data_ptr, uint8_t dev_addr, uint8_t* register_addr) {
 8000c82:	b580      	push	{r7, lr}
 8000c84:	b088      	sub	sp, #32
 8000c86:	af02      	add	r7, sp, #8
 8000c88:	60f8      	str	r0, [r7, #12]
 8000c8a:	60b9      	str	r1, [r7, #8]
 8000c8c:	603b      	str	r3, [r7, #0]
 8000c8e:	4613      	mov	r3, r2
 8000c90:	71fb      	strb	r3, [r7, #7]
	HAL_I2C_Master_Transmit(hi2c, (dev_addr << 1) & 0xFE, register_addr, 1, I2C_TIMEOUT_SML);
 8000c92:	79fb      	ldrb	r3, [r7, #7]
 8000c94:	005b      	lsls	r3, r3, #1
 8000c96:	b29b      	uxth	r3, r3
 8000c98:	b2db      	uxtb	r3, r3
 8000c9a:	b299      	uxth	r1, r3
 8000c9c:	2301      	movs	r3, #1
 8000c9e:	9300      	str	r3, [sp, #0]
 8000ca0:	2301      	movs	r3, #1
 8000ca2:	683a      	ldr	r2, [r7, #0]
 8000ca4:	68f8      	ldr	r0, [r7, #12]
 8000ca6:	f004 faf3 	bl	8005290 <HAL_I2C_Master_Transmit>
	HAL_StatusTypeDef hal_status = HAL_I2C_Master_Receive(hi2c, (dev_addr << 1) | 0x01, data_ptr, 1, I2C_TIMEOUT_SML);
 8000caa:	79fb      	ldrb	r3, [r7, #7]
 8000cac:	005b      	lsls	r3, r3, #1
 8000cae:	b21b      	sxth	r3, r3
 8000cb0:	f043 0301 	orr.w	r3, r3, #1
 8000cb4:	b21b      	sxth	r3, r3
 8000cb6:	b299      	uxth	r1, r3
 8000cb8:	2301      	movs	r3, #1
 8000cba:	9300      	str	r3, [sp, #0]
 8000cbc:	2301      	movs	r3, #1
 8000cbe:	68ba      	ldr	r2, [r7, #8]
 8000cc0:	68f8      	ldr	r0, [r7, #12]
 8000cc2:	f004 fbe3 	bl	800548c <HAL_I2C_Master_Receive>
 8000cc6:	4603      	mov	r3, r0
 8000cc8:	75fb      	strb	r3, [r7, #23]
	return hal_status;
 8000cca:	7dfb      	ldrb	r3, [r7, #23]
}
 8000ccc:	4618      	mov	r0, r3
 8000cce:	3718      	adds	r7, #24
 8000cd0:	46bd      	mov	sp, r7
 8000cd2:	bd80      	pop	{r7, pc}

08000cd4 <i2c_burst_read>:

HAL_StatusTypeDef i2c_burst_read(I2C_HandleTypeDef* hi2c, uint8_t dev_addr, uint8_t register_addr, uint8_t size, uint8_t data_buffer[size]) {
 8000cd4:	b580      	push	{r7, lr}
 8000cd6:	b086      	sub	sp, #24
 8000cd8:	af02      	add	r7, sp, #8
 8000cda:	6078      	str	r0, [r7, #4]
 8000cdc:	4608      	mov	r0, r1
 8000cde:	4611      	mov	r1, r2
 8000ce0:	461a      	mov	r2, r3
 8000ce2:	4603      	mov	r3, r0
 8000ce4:	70fb      	strb	r3, [r7, #3]
 8000ce6:	460b      	mov	r3, r1
 8000ce8:	70bb      	strb	r3, [r7, #2]
 8000cea:	4613      	mov	r3, r2
 8000cec:	707b      	strb	r3, [r7, #1]
	// In order to read multiple bytes, it is necessary to assert the most significant bit of the sub-address field.
	uint8_t addr = register_addr | 0x80;
 8000cee:	78bb      	ldrb	r3, [r7, #2]
 8000cf0:	f063 037f 	orn	r3, r3, #127	@ 0x7f
 8000cf4:	b2db      	uxtb	r3, r3
 8000cf6:	73bb      	strb	r3, [r7, #14]
	HAL_I2C_Master_Transmit(hi2c, (dev_addr << 1) & 0xFE, &addr, 1, I2C_TIMEOUT_SML);
 8000cf8:	78fb      	ldrb	r3, [r7, #3]
 8000cfa:	005b      	lsls	r3, r3, #1
 8000cfc:	b29b      	uxth	r3, r3
 8000cfe:	b2db      	uxtb	r3, r3
 8000d00:	b299      	uxth	r1, r3
 8000d02:	f107 020e 	add.w	r2, r7, #14
 8000d06:	2301      	movs	r3, #1
 8000d08:	9300      	str	r3, [sp, #0]
 8000d0a:	2301      	movs	r3, #1
 8000d0c:	6878      	ldr	r0, [r7, #4]
 8000d0e:	f004 fabf 	bl	8005290 <HAL_I2C_Master_Transmit>
	HAL_StatusTypeDef hal_status =  HAL_I2C_Master_Receive(hi2c, (dev_addr << 1) | 0x01, data_buffer, size, I2C_TIMEOUT_LRG);
 8000d12:	78fb      	ldrb	r3, [r7, #3]
 8000d14:	005b      	lsls	r3, r3, #1
 8000d16:	b21b      	sxth	r3, r3
 8000d18:	f043 0301 	orr.w	r3, r3, #1
 8000d1c:	b21b      	sxth	r3, r3
 8000d1e:	b299      	uxth	r1, r3
 8000d20:	787b      	ldrb	r3, [r7, #1]
 8000d22:	b29b      	uxth	r3, r3
 8000d24:	220a      	movs	r2, #10
 8000d26:	9200      	str	r2, [sp, #0]
 8000d28:	69ba      	ldr	r2, [r7, #24]
 8000d2a:	6878      	ldr	r0, [r7, #4]
 8000d2c:	f004 fbae 	bl	800548c <HAL_I2C_Master_Receive>
 8000d30:	4603      	mov	r3, r0
 8000d32:	73fb      	strb	r3, [r7, #15]
	return hal_status;
 8000d34:	7bfb      	ldrb	r3, [r7, #15]
}
 8000d36:	4618      	mov	r0, r3
 8000d38:	3710      	adds	r7, #16
 8000d3a:	46bd      	mov	sp, r7
 8000d3c:	bd80      	pop	{r7, pc}

08000d3e <i2c_write_reg>:
	HAL_I2C_Master_Transmit(hi2c, (dev_addr << 1) & 0xFE, &addr, 1, I2C_TIMEOUT_SML);
	HAL_StatusTypeDef hal_status =  HAL_I2C_Master_Receive(hi2c, (dev_addr << 1) | 0x01, data_buffer, size, I2C_TIMEOUT_LRG);
	return hal_status;
}

HAL_StatusTypeDef i2c_write_reg(I2C_HandleTypeDef* hi2c, uint8_t dev_addr, uint8_t* register_addr, uint8_t data) {
 8000d3e:	b580      	push	{r7, lr}
 8000d40:	b088      	sub	sp, #32
 8000d42:	af02      	add	r7, sp, #8
 8000d44:	60f8      	str	r0, [r7, #12]
 8000d46:	607a      	str	r2, [r7, #4]
 8000d48:	461a      	mov	r2, r3
 8000d4a:	460b      	mov	r3, r1
 8000d4c:	72fb      	strb	r3, [r7, #11]
 8000d4e:	4613      	mov	r3, r2
 8000d50:	72bb      	strb	r3, [r7, #10]
	uint8_t data_tx[2] = {*register_addr, data};
 8000d52:	687b      	ldr	r3, [r7, #4]
 8000d54:	781b      	ldrb	r3, [r3, #0]
 8000d56:	753b      	strb	r3, [r7, #20]
 8000d58:	7abb      	ldrb	r3, [r7, #10]
 8000d5a:	757b      	strb	r3, [r7, #21]
	HAL_StatusTypeDef hal_status = HAL_I2C_Master_Transmit(hi2c, (dev_addr << 1) & 0xFE, data_tx, 2, I2C_TIMEOUT_SML);
 8000d5c:	7afb      	ldrb	r3, [r7, #11]
 8000d5e:	005b      	lsls	r3, r3, #1
 8000d60:	b29b      	uxth	r3, r3
 8000d62:	b2db      	uxtb	r3, r3
 8000d64:	b299      	uxth	r1, r3
 8000d66:	f107 0214 	add.w	r2, r7, #20
 8000d6a:	2301      	movs	r3, #1
 8000d6c:	9300      	str	r3, [sp, #0]
 8000d6e:	2302      	movs	r3, #2
 8000d70:	68f8      	ldr	r0, [r7, #12]
 8000d72:	f004 fa8d 	bl	8005290 <HAL_I2C_Master_Transmit>
 8000d76:	4603      	mov	r3, r0
 8000d78:	75fb      	strb	r3, [r7, #23]
	return hal_status;
 8000d7a:	7dfb      	ldrb	r3, [r7, #23]
}
 8000d7c:	4618      	mov	r0, r3
 8000d7e:	3718      	adds	r7, #24
 8000d80:	46bd      	mov	sp, r7
 8000d82:	bd80      	pop	{r7, pc}

08000d84 <main>:
/**
  * @brief  The application entry point.
  * @retval int
  */
int main(void)
{
 8000d84:	b580      	push	{r7, lr}
 8000d86:	b084      	sub	sp, #16
 8000d88:	af02      	add	r7, sp, #8
  /* USER CODE END 1 */

  /* MCU Configuration--------------------------------------------------------*/

  /* Reset of all peripherals, Initializes the Flash interface and the Systick. */
  HAL_Init();
 8000d8a:	f002 f9df 	bl	800314c <HAL_Init>
  /* USER CODE BEGIN Init */

  /* USER CODE END Init */

  /* Configure the system clock */
  SystemClock_Config();
 8000d8e:	f000 f94b 	bl	8001028 <SystemClock_Config>
  /* USER CODE BEGIN SysInit */

  /* USER CODE END SysInit */

  /* Initialize all configured peripherals */
  MX_GPIO_Init();
 8000d92:	f000 fbcb 	bl	800152c <MX_GPIO_Init>
  MX_DMA_Init();
 8000d96:	f000 fb93 	bl	80014c0 <MX_DMA_Init>
  MX_I2C1_Init();
 8000d9a:	f000 f9e9 	bl	8001170 <MX_I2C1_Init>
  MX_RTC_Init();
 8000d9e:	f000 fa67 	bl	8001270 <MX_RTC_Init>
  MX_SPI1_Init();
 8000da2:	f000 fa8b 	bl	80012bc <MX_SPI1_Init>
  MX_TIM6_Init();
 8000da6:	f000 faf5 	bl	8001394 <MX_TIM6_Init>
  MX_USART2_UART_Init();
 8000daa:	f000 fb5f 	bl	800146c <MX_USART2_UART_Init>
  MX_SPI2_Init();
 8000dae:	f000 fabb 	bl	8001328 <MX_SPI2_Init>
  MX_CAN2_Init();
 8000db2:	f000 f9a5 	bl	8001100 <MX_CAN2_Init>
  MX_TIM7_Init();
 8000db6:	f000 fb23 	bl	8001400 <MX_TIM7_Init>
  MX_I2C3_Init();
 8000dba:	f000 fa19 	bl	80011f0 <MX_I2C3_Init>
  /* USER CODE BEGIN 2 */
  systemInit();
 8000dbe:	f000 fc9d 	bl	80016fc <systemInit>
    /* USER CODE END WHILE */

    /* USER CODE BEGIN 3 */

	  // If the flight jumper has been removed (GPIO rising edge), reset the time to 0.
	  if(rtc_reset == FLAG_SET) {
 8000dc2:	4b7f      	ldr	r3, [pc, #508]	@ (8000fc0 <main+0x23c>)
 8000dc4:	781b      	ldrb	r3, [r3, #0]
 8000dc6:	2b01      	cmp	r3, #1
 8000dc8:	d105      	bne.n	8000dd6 <main+0x52>
		  initialise_rtc_default(&hrtc);
 8000dca:	487e      	ldr	r0, [pc, #504]	@ (8000fc4 <main+0x240>)
 8000dcc:	f001 fbbc 	bl	8002548 <initialise_rtc_default>
		  rtc_reset = FLAG_RESET;
 8000dd0:	4b7b      	ldr	r3, [pc, #492]	@ (8000fc0 <main+0x23c>)
 8000dd2:	2200      	movs	r2, #0
 8000dd4:	701a      	strb	r2, [r3, #0]
	  }

	  // Handle UART receive flag
	  if(uart2_rec_flag == FLAG_SET) {
 8000dd6:	4b7c      	ldr	r3, [pc, #496]	@ (8000fc8 <main+0x244>)
 8000dd8:	781b      	ldrb	r3, [r3, #0]
 8000dda:	2b01      	cmp	r3, #1
 8000ddc:	d104      	bne.n	8000de8 <main+0x64>
		  handleUART();
 8000dde:	f000 fe9d 	bl	8001b1c <handleUART>
		  uart2_rec_flag = FLAG_RESET;
 8000de2:	4b79      	ldr	r3, [pc, #484]	@ (8000fc8 <main+0x244>)
 8000de4:	2200      	movs	r2, #0
 8000de6:	701a      	strb	r2, [r3, #0]
	  }

	  // Handle CAN receive flag
	  if(CAN_RX_Flag == FLAG_SET) {
 8000de8:	4b78      	ldr	r3, [pc, #480]	@ (8000fcc <main+0x248>)
 8000dea:	781b      	ldrb	r3, [r3, #0]
 8000dec:	2b01      	cmp	r3, #1
 8000dee:	d10f      	bne.n	8000e10 <main+0x8c>
		  if((CAN_First_Msg == FLAG_SET) && (flight_state == GROUND)) {
 8000df0:	4b77      	ldr	r3, [pc, #476]	@ (8000fd0 <main+0x24c>)
 8000df2:	781b      	ldrb	r3, [r3, #0]
 8000df4:	2b01      	cmp	r3, #1
 8000df6:	d106      	bne.n	8000e06 <main+0x82>
 8000df8:	4b76      	ldr	r3, [pc, #472]	@ (8000fd4 <main+0x250>)
 8000dfa:	781b      	ldrb	r3, [r3, #0]
 8000dfc:	2b00      	cmp	r3, #0
 8000dfe:	d102      	bne.n	8000e06 <main+0x82>
			  flight_state = LOADED;
 8000e00:	4b74      	ldr	r3, [pc, #464]	@ (8000fd4 <main+0x250>)
 8000e02:	2201      	movs	r2, #1
 8000e04:	701a      	strb	r2, [r3, #0]
		  }

		  handleCAN();
 8000e06:	f000 fe0b 	bl	8001a20 <handleCAN>
//		  HAL_GPIO_TogglePin(led_green.GPIOx, led_green.GPIO_Pin);
		  CAN_RX_Flag = FLAG_RESET;
 8000e0a:	4b70      	ldr	r3, [pc, #448]	@ (8000fcc <main+0x248>)
 8000e0c:	2200      	movs	r2, #0
 8000e0e:	701a      	strb	r2, [r3, #0]
	  }

	  if (tim7_overflow_flag == FLAG_SET) {
 8000e10:	4b71      	ldr	r3, [pc, #452]	@ (8000fd8 <main+0x254>)
 8000e12:	781b      	ldrb	r3, [r3, #0]
 8000e14:	2b01      	cmp	r3, #1
 8000e16:	d134      	bne.n	8000e82 <main+0xfe>
		  HAL_GPIO_TogglePin(led_orange.GPIOx, led_orange.GPIO_Pin);		// Toggle LED
 8000e18:	4b70      	ldr	r3, [pc, #448]	@ (8000fdc <main+0x258>)
 8000e1a:	681b      	ldr	r3, [r3, #0]
 8000e1c:	4a6f      	ldr	r2, [pc, #444]	@ (8000fdc <main+0x258>)
 8000e1e:	8892      	ldrh	r2, [r2, #4]
 8000e20:	4611      	mov	r1, r2
 8000e22:	4618      	mov	r0, r3
 8000e24:	f004 f88d 	bl	8004f42 <HAL_GPIO_TogglePin>
		  sysStatus = systemStatus(&hspi1, &hspi2, i2c_bme280, i2c_accel);
 8000e28:	4b6d      	ldr	r3, [pc, #436]	@ (8000fe0 <main+0x25c>)
 8000e2a:	681a      	ldr	r2, [r3, #0]
 8000e2c:	4b6d      	ldr	r3, [pc, #436]	@ (8000fe4 <main+0x260>)
 8000e2e:	681b      	ldr	r3, [r3, #0]
 8000e30:	496d      	ldr	r1, [pc, #436]	@ (8000fe8 <main+0x264>)
 8000e32:	486e      	ldr	r0, [pc, #440]	@ (8000fec <main+0x268>)
 8000e34:	f001 f864 	bl	8001f00 <systemStatus>
 8000e38:	4603      	mov	r3, r0
 8000e3a:	461a      	mov	r2, r3
 8000e3c:	4b6c      	ldr	r3, [pc, #432]	@ (8000ff0 <main+0x26c>)
 8000e3e:	701a      	strb	r2, [r3, #0]

		  if(sysStatus == 0x00) {
 8000e40:	4b6b      	ldr	r3, [pc, #428]	@ (8000ff0 <main+0x26c>)
 8000e42:	781b      	ldrb	r3, [r3, #0]
 8000e44:	2b00      	cmp	r3, #0
 8000e46:	d10b      	bne.n	8000e60 <main+0xdc>
			  HAL_GPIO_WritePin(status_led.GPIOx, status_led.GPIO_Pin, GPIO_PIN_SET);	// Turn LED off
 8000e48:	4b6a      	ldr	r3, [pc, #424]	@ (8000ff4 <main+0x270>)
 8000e4a:	681b      	ldr	r3, [r3, #0]
 8000e4c:	4a69      	ldr	r2, [pc, #420]	@ (8000ff4 <main+0x270>)
 8000e4e:	8891      	ldrh	r1, [r2, #4]
 8000e50:	2201      	movs	r2, #1
 8000e52:	4618      	mov	r0, r3
 8000e54:	f004 f85c 	bl	8004f10 <HAL_GPIO_WritePin>
			  i2c_offline_cnt = FLAG_RESET;
 8000e58:	4b67      	ldr	r3, [pc, #412]	@ (8000ff8 <main+0x274>)
 8000e5a:	2200      	movs	r2, #0
 8000e5c:	701a      	strb	r2, [r3, #0]
 8000e5e:	e00d      	b.n	8000e7c <main+0xf8>
		  } else {
			  HAL_GPIO_WritePin(status_led.GPIOx, status_led.GPIO_Pin, GPIO_PIN_RESET);
 8000e60:	4b64      	ldr	r3, [pc, #400]	@ (8000ff4 <main+0x270>)
 8000e62:	681b      	ldr	r3, [r3, #0]
 8000e64:	4a63      	ldr	r2, [pc, #396]	@ (8000ff4 <main+0x270>)
 8000e66:	8891      	ldrh	r1, [r2, #4]
 8000e68:	2200      	movs	r2, #0
 8000e6a:	4618      	mov	r0, r3
 8000e6c:	f004 f850 	bl	8004f10 <HAL_GPIO_WritePin>
			  i2c_offline_cnt = i2c_offline_cnt + 1;
 8000e70:	4b61      	ldr	r3, [pc, #388]	@ (8000ff8 <main+0x274>)
 8000e72:	781b      	ldrb	r3, [r3, #0]
 8000e74:	3301      	adds	r3, #1
 8000e76:	b2da      	uxtb	r2, r3
 8000e78:	4b5f      	ldr	r3, [pc, #380]	@ (8000ff8 <main+0x274>)
 8000e7a:	701a      	strb	r2, [r3, #0]
		  }

		  tim7_overflow_flag = FLAG_RESET;
 8000e7c:	4b56      	ldr	r3, [pc, #344]	@ (8000fd8 <main+0x254>)
 8000e7e:	2200      	movs	r2, #0
 8000e80:	701a      	strb	r2, [r3, #0]
	  }

	  // Attempt to reset the I2C bus to bring the sensors back online
	  if(i2c_offline_cnt > I2C_OFFLINE_THRESH) {
 8000e82:	4b5d      	ldr	r3, [pc, #372]	@ (8000ff8 <main+0x274>)
 8000e84:	781b      	ldrb	r3, [r3, #0]
 8000e86:	2b03      	cmp	r3, #3
 8000e88:	d922      	bls.n	8000ed0 <main+0x14c>
		  if((sysStatus & 0x04) == 0x04) {
 8000e8a:	4b59      	ldr	r3, [pc, #356]	@ (8000ff0 <main+0x26c>)
 8000e8c:	781b      	ldrb	r3, [r3, #0]
 8000e8e:	f003 0304 	and.w	r3, r3, #4
 8000e92:	2b00      	cmp	r3, #0
 8000e94:	d009      	beq.n	8000eaa <main+0x126>
			  HAL_I2C_DeInit(i2c_accel); // Deinitialize the I2C bus
 8000e96:	4b53      	ldr	r3, [pc, #332]	@ (8000fe4 <main+0x260>)
 8000e98:	681b      	ldr	r3, [r3, #0]
 8000e9a:	4618      	mov	r0, r3
 8000e9c:	f004 f9c8 	bl	8005230 <HAL_I2C_DeInit>
			  HAL_I2C_Init(i2c_accel);   // Reinitialize the I2C bus
 8000ea0:	4b50      	ldr	r3, [pc, #320]	@ (8000fe4 <main+0x260>)
 8000ea2:	681b      	ldr	r3, [r3, #0]
 8000ea4:	4618      	mov	r0, r3
 8000ea6:	f004 f87f 	bl	8004fa8 <HAL_I2C_Init>
		  }

		  if ((sysStatus >> 3) > 0) {
 8000eaa:	4b51      	ldr	r3, [pc, #324]	@ (8000ff0 <main+0x26c>)
 8000eac:	781b      	ldrb	r3, [r3, #0]
 8000eae:	08db      	lsrs	r3, r3, #3
 8000eb0:	b2db      	uxtb	r3, r3
 8000eb2:	2b00      	cmp	r3, #0
 8000eb4:	d009      	beq.n	8000eca <main+0x146>
			  HAL_I2C_DeInit(i2c_bme280); // Deinitialize the I2C bus
 8000eb6:	4b4a      	ldr	r3, [pc, #296]	@ (8000fe0 <main+0x25c>)
 8000eb8:	681b      	ldr	r3, [r3, #0]
 8000eba:	4618      	mov	r0, r3
 8000ebc:	f004 f9b8 	bl	8005230 <HAL_I2C_DeInit>
			  HAL_I2C_Init(i2c_bme280);   // Reinitialize the I2C bus
 8000ec0:	4b47      	ldr	r3, [pc, #284]	@ (8000fe0 <main+0x25c>)
 8000ec2:	681b      	ldr	r3, [r3, #0]
 8000ec4:	4618      	mov	r0, r3
 8000ec6:	f004 f86f 	bl	8004fa8 <HAL_I2C_Init>
		  }

		  i2c_offline_cnt = 0;
 8000eca:	4b4b      	ldr	r3, [pc, #300]	@ (8000ff8 <main+0x274>)
 8000ecc:	2200      	movs	r2, #0
 8000ece:	701a      	strb	r2, [r3, #0]
	  }

	  // Handle Timer 6 overflow flag
	  if(tim6_overflow_flag == FLAG_SET) {
 8000ed0:	4b4a      	ldr	r3, [pc, #296]	@ (8000ffc <main+0x278>)
 8000ed2:	781b      	ldrb	r3, [r3, #0]
 8000ed4:	2b01      	cmp	r3, #1
 8000ed6:	d10a      	bne.n	8000eee <main+0x16a>
		  readAllSensors(i2c_accel, i2c_bme280, &hrtc);
 8000ed8:	4b42      	ldr	r3, [pc, #264]	@ (8000fe4 <main+0x260>)
 8000eda:	681b      	ldr	r3, [r3, #0]
 8000edc:	4a40      	ldr	r2, [pc, #256]	@ (8000fe0 <main+0x25c>)
 8000ede:	6811      	ldr	r1, [r2, #0]
 8000ee0:	4a38      	ldr	r2, [pc, #224]	@ (8000fc4 <main+0x240>)
 8000ee2:	4618      	mov	r0, r3
 8000ee4:	f001 fa4c 	bl	8002380 <readAllSensors>
		  tim6_overflow_flag = FLAG_RESET;
 8000ee8:	4b44      	ldr	r3, [pc, #272]	@ (8000ffc <main+0x278>)
 8000eea:	2200      	movs	r2, #0
 8000eec:	701a      	strb	r2, [r3, #0]
	  }

	  // Write data to flash when buffer is full
	  if(byte_tracker > (PAGE_SIZE - READ_SIZE)) {
 8000eee:	4b44      	ldr	r3, [pc, #272]	@ (8001000 <main+0x27c>)
 8000ef0:	881b      	ldrh	r3, [r3, #0]
 8000ef2:	2beb      	cmp	r3, #235	@ 0xeb
 8000ef4:	d953      	bls.n	8000f9e <main+0x21a>
		  GPIO_PinState flight_mode = HAL_GPIO_ReadPin(jmp_flight.GPIOx, jmp_flight.GPIO_Pin);
 8000ef6:	4b43      	ldr	r3, [pc, #268]	@ (8001004 <main+0x280>)
 8000ef8:	681b      	ldr	r3, [r3, #0]
 8000efa:	4a42      	ldr	r2, [pc, #264]	@ (8001004 <main+0x280>)
 8000efc:	8892      	ldrh	r2, [r2, #4]
 8000efe:	b292      	uxth	r2, r2
 8000f00:	4611      	mov	r1, r2
 8000f02:	4618      	mov	r0, r3
 8000f04:	f003 ffec 	bl	8004ee0 <HAL_GPIO_ReadPin>
 8000f08:	4603      	mov	r3, r0
 8000f0a:	71fb      	strb	r3, [r7, #7]
		  if((flight_mode & !(end_of_flash)) == FLAG_SET) {
 8000f0c:	79fb      	ldrb	r3, [r7, #7]
 8000f0e:	4a3e      	ldr	r2, [pc, #248]	@ (8001008 <main+0x284>)
 8000f10:	7812      	ldrb	r2, [r2, #0]
 8000f12:	2a00      	cmp	r2, #0
 8000f14:	bf0c      	ite	eq
 8000f16:	2201      	moveq	r2, #1
 8000f18:	2200      	movne	r2, #0
 8000f1a:	b2d2      	uxtb	r2, r2
 8000f1c:	4013      	ands	r3, r2
 8000f1e:	2b01      	cmp	r3, #1
 8000f20:	d133      	bne.n	8000f8a <main+0x206>
			  HAL_GPIO_WritePin(led_green.GPIOx, led_green.GPIO_Pin, GPIO_PIN_SET);		// Toggle LED when writing data
 8000f22:	4b3a      	ldr	r3, [pc, #232]	@ (800100c <main+0x288>)
 8000f24:	681b      	ldr	r3, [r3, #0]
 8000f26:	4a39      	ldr	r2, [pc, #228]	@ (800100c <main+0x288>)
 8000f28:	8891      	ldrh	r1, [r2, #4]
 8000f2a:	2201      	movs	r2, #1
 8000f2c:	4618      	mov	r0, r3
 8000f2e:	f003 ffef 	bl	8004f10 <HAL_GPIO_WritePin>

			  write_data_spi_dma(data_buffer_tx[buffer_tracker], &hspi1, next_blank_page, cs_spi1);
 8000f32:	4b37      	ldr	r3, [pc, #220]	@ (8001010 <main+0x28c>)
 8000f34:	781b      	ldrb	r3, [r3, #0]
 8000f36:	021b      	lsls	r3, r3, #8
 8000f38:	4a36      	ldr	r2, [pc, #216]	@ (8001014 <main+0x290>)
 8000f3a:	1898      	adds	r0, r3, r2
 8000f3c:	4b36      	ldr	r3, [pc, #216]	@ (8001018 <main+0x294>)
 8000f3e:	6819      	ldr	r1, [r3, #0]
 8000f40:	4b36      	ldr	r3, [pc, #216]	@ (800101c <main+0x298>)
 8000f42:	685a      	ldr	r2, [r3, #4]
 8000f44:	9200      	str	r2, [sp, #0]
 8000f46:	681b      	ldr	r3, [r3, #0]
 8000f48:	460a      	mov	r2, r1
 8000f4a:	4928      	ldr	r1, [pc, #160]	@ (8000fec <main+0x268>)
 8000f4c:	f7ff fd6c 	bl	8000a28 <write_data_spi_dma>
			  write_data_spi_dma(data_buffer_tx[buffer_tracker], &hspi2, next_blank_page, cs_spi2);
 8000f50:	4b2f      	ldr	r3, [pc, #188]	@ (8001010 <main+0x28c>)
 8000f52:	781b      	ldrb	r3, [r3, #0]
 8000f54:	021b      	lsls	r3, r3, #8
 8000f56:	4a2f      	ldr	r2, [pc, #188]	@ (8001014 <main+0x290>)
 8000f58:	1898      	adds	r0, r3, r2
 8000f5a:	4b2f      	ldr	r3, [pc, #188]	@ (8001018 <main+0x294>)
 8000f5c:	6819      	ldr	r1, [r3, #0]
 8000f5e:	4b30      	ldr	r3, [pc, #192]	@ (8001020 <main+0x29c>)
 8000f60:	685a      	ldr	r2, [r3, #4]
 8000f62:	9200      	str	r2, [sp, #0]
 8000f64:	681b      	ldr	r3, [r3, #0]
 8000f66:	460a      	mov	r2, r1
 8000f68:	491f      	ldr	r1, [pc, #124]	@ (8000fe8 <main+0x264>)
 8000f6a:	f7ff fd5d 	bl	8000a28 <write_data_spi_dma>
			  next_blank_page += PAGE_SIZE;
 8000f6e:	4b2a      	ldr	r3, [pc, #168]	@ (8001018 <main+0x294>)
 8000f70:	681b      	ldr	r3, [r3, #0]
 8000f72:	f503 7380 	add.w	r3, r3, #256	@ 0x100
 8000f76:	4a28      	ldr	r2, [pc, #160]	@ (8001018 <main+0x294>)
 8000f78:	6013      	str	r3, [r2, #0]

			  HAL_GPIO_WritePin(led_green.GPIOx, led_green.GPIO_Pin, GPIO_PIN_RESET);		// Toggle LED when writing data
 8000f7a:	4b24      	ldr	r3, [pc, #144]	@ (800100c <main+0x288>)
 8000f7c:	681b      	ldr	r3, [r3, #0]
 8000f7e:	4a23      	ldr	r2, [pc, #140]	@ (800100c <main+0x288>)
 8000f80:	8891      	ldrh	r1, [r2, #4]
 8000f82:	2200      	movs	r2, #0
 8000f84:	4618      	mov	r0, r3
 8000f86:	f003 ffc3 	bl	8004f10 <HAL_GPIO_WritePin>
		  }

		// Reset the buffer trackers
		buffer_tracker = buffer_tracker ^ 0x01;
 8000f8a:	4b21      	ldr	r3, [pc, #132]	@ (8001010 <main+0x28c>)
 8000f8c:	781b      	ldrb	r3, [r3, #0]
 8000f8e:	f083 0301 	eor.w	r3, r3, #1
 8000f92:	b2da      	uxtb	r2, r3
 8000f94:	4b1e      	ldr	r3, [pc, #120]	@ (8001010 <main+0x28c>)
 8000f96:	701a      	strb	r2, [r3, #0]
		byte_tracker = 0;
 8000f98:	4b19      	ldr	r3, [pc, #100]	@ (8001000 <main+0x27c>)
 8000f9a:	2200      	movs	r2, #0
 8000f9c:	801a      	strh	r2, [r3, #0]
	  }

	  if(next_blank_page == (NUM_OF_PAGES*PAGE_SIZE)) {
 8000f9e:	4b1e      	ldr	r3, [pc, #120]	@ (8001018 <main+0x294>)
 8000fa0:	681b      	ldr	r3, [r3, #0]
 8000fa2:	4a20      	ldr	r2, [pc, #128]	@ (8001024 <main+0x2a0>)
 8000fa4:	4293      	cmp	r3, r2
 8000fa6:	f47f af0c 	bne.w	8000dc2 <main+0x3e>
		if(end_of_flash == GPIO_PIN_RESET) {
 8000faa:	4b17      	ldr	r3, [pc, #92]	@ (8001008 <main+0x284>)
 8000fac:	781b      	ldrb	r3, [r3, #0]
 8000fae:	2b00      	cmp	r3, #0
 8000fb0:	f47f af07 	bne.w	8000dc2 <main+0x3e>
		  // TODO - Error Handle if SPI1 not found
		  next_blank_page = find_next_blank_page_all();
 8000fb4:	f000 ff70 	bl	8001e98 <find_next_blank_page_all>
 8000fb8:	4603      	mov	r3, r0
 8000fba:	4a17      	ldr	r2, [pc, #92]	@ (8001018 <main+0x294>)
 8000fbc:	6013      	str	r3, [r2, #0]
	  if(rtc_reset == FLAG_SET) {
 8000fbe:	e700      	b.n	8000dc2 <main+0x3e>
 8000fc0:	2000061c 	.word	0x2000061c
 8000fc4:	20000118 	.word	0x20000118
 8000fc8:	2000038a 	.word	0x2000038a
 8000fcc:	200003b4 	.word	0x200003b4
 8000fd0:	200003b5 	.word	0x200003b5
 8000fd4:	2000061e 	.word	0x2000061e
 8000fd8:	200003b7 	.word	0x200003b7
 8000fdc:	200005dc 	.word	0x200005dc
 8000fe0:	20000384 	.word	0x20000384
 8000fe4:	20000380 	.word	0x20000380
 8000fe8:	20000190 	.word	0x20000190
 8000fec:	20000138 	.word	0x20000138
 8000ff0:	2000061d 	.word	0x2000061d
 8000ff4:	200005ec 	.word	0x200005ec
 8000ff8:	2000061f 	.word	0x2000061f
 8000ffc:	200003b6 	.word	0x200003b6
 8001000:	200005d8 	.word	0x200005d8
 8001004:	20000614 	.word	0x20000614
 8001008:	200005da 	.word	0x200005da
 800100c:	200005e4 	.word	0x200005e4
 8001010:	200005b8 	.word	0x200005b8
 8001014:	200003b8 	.word	0x200003b8
 8001018:	200005d4 	.word	0x200005d4
 800101c:	200005f4 	.word	0x200005f4
 8001020:	20000604 	.word	0x20000604
 8001024:	00ffff00 	.word	0x00ffff00

08001028 <SystemClock_Config>:
/**
  * @brief System Clock Configuration
  * @retval None
  */
void SystemClock_Config(void)
{
 8001028:	b580      	push	{r7, lr}
 800102a:	b094      	sub	sp, #80	@ 0x50
 800102c:	af00      	add	r7, sp, #0
  RCC_OscInitTypeDef RCC_OscInitStruct = {0};
 800102e:	f107 0320 	add.w	r3, r7, #32
 8001032:	2230      	movs	r2, #48	@ 0x30
 8001034:	2100      	movs	r1, #0
 8001036:	4618      	mov	r0, r3
 8001038:	f008 fc3a 	bl	80098b0 <memset>
  RCC_ClkInitTypeDef RCC_ClkInitStruct = {0};
 800103c:	f107 030c 	add.w	r3, r7, #12
 8001040:	2200      	movs	r2, #0
 8001042:	601a      	str	r2, [r3, #0]
 8001044:	605a      	str	r2, [r3, #4]
 8001046:	609a      	str	r2, [r3, #8]
 8001048:	60da      	str	r2, [r3, #12]
 800104a:	611a      	str	r2, [r3, #16]

  /** Configure the main internal regulator output voltage
  */
  __HAL_RCC_PWR_CLK_ENABLE();
 800104c:	2300      	movs	r3, #0
 800104e:	60bb      	str	r3, [r7, #8]
 8001050:	4b29      	ldr	r3, [pc, #164]	@ (80010f8 <SystemClock_Config+0xd0>)
 8001052:	6c1b      	ldr	r3, [r3, #64]	@ 0x40
 8001054:	4a28      	ldr	r2, [pc, #160]	@ (80010f8 <SystemClock_Config+0xd0>)
 8001056:	f043 5380 	orr.w	r3, r3, #268435456	@ 0x10000000
 800105a:	6413      	str	r3, [r2, #64]	@ 0x40
 800105c:	4b26      	ldr	r3, [pc, #152]	@ (80010f8 <SystemClock_Config+0xd0>)
 800105e:	6c1b      	ldr	r3, [r3, #64]	@ 0x40
 8001060:	f003 5380 	and.w	r3, r3, #268435456	@ 0x10000000
 8001064:	60bb      	str	r3, [r7, #8]
 8001066:	68bb      	ldr	r3, [r7, #8]
  __HAL_PWR_VOLTAGESCALING_CONFIG(PWR_REGULATOR_VOLTAGE_SCALE1);
 8001068:	2300      	movs	r3, #0
 800106a:	607b      	str	r3, [r7, #4]
 800106c:	4b23      	ldr	r3, [pc, #140]	@ (80010fc <SystemClock_Config+0xd4>)
 800106e:	681b      	ldr	r3, [r3, #0]
 8001070:	4a22      	ldr	r2, [pc, #136]	@ (80010fc <SystemClock_Config+0xd4>)
 8001072:	f443 4340 	orr.w	r3, r3, #49152	@ 0xc000
 8001076:	6013      	str	r3, [r2, #0]
 8001078:	4b20      	ldr	r3, [pc, #128]	@ (80010fc <SystemClock_Config+0xd4>)
 800107a:	681b      	ldr	r3, [r3, #0]
 800107c:	f403 4340 	and.w	r3, r3, #49152	@ 0xc000
 8001080:	607b      	str	r3, [r7, #4]
 8001082:	687b      	ldr	r3, [r7, #4]

  /** Initializes the RCC Oscillators according to the specified parameters
  * in the RCC_OscInitTypeDef structure.
  */
  RCC_OscInitStruct.OscillatorType = RCC_OSCILLATORTYPE_HSI|RCC_OSCILLATORTYPE_LSI;
 8001084:	230a      	movs	r3, #10
 8001086:	623b      	str	r3, [r7, #32]
  RCC_OscInitStruct.HSIState = RCC_HSI_ON;
 8001088:	2301      	movs	r3, #1
 800108a:	62fb      	str	r3, [r7, #44]	@ 0x2c
  RCC_OscInitStruct.HSICalibrationValue = RCC_HSICALIBRATION_DEFAULT;
 800108c:	2310      	movs	r3, #16
 800108e:	633b      	str	r3, [r7, #48]	@ 0x30
  RCC_OscInitStruct.LSIState = RCC_LSI_ON;
 8001090:	2301      	movs	r3, #1
 8001092:	637b      	str	r3, [r7, #52]	@ 0x34
  RCC_OscInitStruct.PLL.PLLState = RCC_PLL_ON;
 8001094:	2302      	movs	r3, #2
 8001096:	63bb      	str	r3, [r7, #56]	@ 0x38
  RCC_OscInitStruct.PLL.PLLSource = RCC_PLLSOURCE_HSI;
 8001098:	2300      	movs	r3, #0
 800109a:	63fb      	str	r3, [r7, #60]	@ 0x3c
  RCC_OscInitStruct.PLL.PLLM = 16;
 800109c:	2310      	movs	r3, #16
 800109e:	643b      	str	r3, [r7, #64]	@ 0x40
  RCC_OscInitStruct.PLL.PLLN = 336;
 80010a0:	f44f 73a8 	mov.w	r3, #336	@ 0x150
 80010a4:	647b      	str	r3, [r7, #68]	@ 0x44
  RCC_OscInitStruct.PLL.PLLP = RCC_PLLP_DIV2;
 80010a6:	2302      	movs	r3, #2
 80010a8:	64bb      	str	r3, [r7, #72]	@ 0x48
  RCC_OscInitStruct.PLL.PLLQ = 4;
 80010aa:	2304      	movs	r3, #4
 80010ac:	64fb      	str	r3, [r7, #76]	@ 0x4c
  if (HAL_RCC_OscConfig(&RCC_OscInitStruct) != HAL_OK)
 80010ae:	f107 0320 	add.w	r3, r7, #32
 80010b2:	4618      	mov	r0, r3
 80010b4:	f005 f846 	bl	8006144 <HAL_RCC_OscConfig>
 80010b8:	4603      	mov	r3, r0
 80010ba:	2b00      	cmp	r3, #0
 80010bc:	d001      	beq.n	80010c2 <SystemClock_Config+0x9a>
  {
    Error_Handler();
 80010be:	f000 ff19 	bl	8001ef4 <Error_Handler>
  }

  /** Initializes the CPU, AHB and APB buses clocks
  */
  RCC_ClkInitStruct.ClockType = RCC_CLOCKTYPE_HCLK|RCC_CLOCKTYPE_SYSCLK
 80010c2:	230f      	movs	r3, #15
 80010c4:	60fb      	str	r3, [r7, #12]
                              |RCC_CLOCKTYPE_PCLK1|RCC_CLOCKTYPE_PCLK2;
  RCC_ClkInitStruct.SYSCLKSource = RCC_SYSCLKSOURCE_PLLCLK;
 80010c6:	2302      	movs	r3, #2
 80010c8:	613b      	str	r3, [r7, #16]
  RCC_ClkInitStruct.AHBCLKDivider = RCC_SYSCLK_DIV1;
 80010ca:	2300      	movs	r3, #0
 80010cc:	617b      	str	r3, [r7, #20]
  RCC_ClkInitStruct.APB1CLKDivider = RCC_HCLK_DIV4;
 80010ce:	f44f 53a0 	mov.w	r3, #5120	@ 0x1400
 80010d2:	61bb      	str	r3, [r7, #24]
  RCC_ClkInitStruct.APB2CLKDivider = RCC_HCLK_DIV2;
 80010d4:	f44f 5380 	mov.w	r3, #4096	@ 0x1000
 80010d8:	61fb      	str	r3, [r7, #28]

  if (HAL_RCC_ClockConfig(&RCC_ClkInitStruct, FLASH_LATENCY_5) != HAL_OK)
 80010da:	f107 030c 	add.w	r3, r7, #12
 80010de:	2105      	movs	r1, #5
 80010e0:	4618      	mov	r0, r3
 80010e2:	f005 faa7 	bl	8006634 <HAL_RCC_ClockConfig>
 80010e6:	4603      	mov	r3, r0
 80010e8:	2b00      	cmp	r3, #0
 80010ea:	d001      	beq.n	80010f0 <SystemClock_Config+0xc8>
  {
    Error_Handler();
 80010ec:	f000 ff02 	bl	8001ef4 <Error_Handler>
  }
}
 80010f0:	bf00      	nop
 80010f2:	3750      	adds	r7, #80	@ 0x50
 80010f4:	46bd      	mov	sp, r7
 80010f6:	bd80      	pop	{r7, pc}
 80010f8:	40023800 	.word	0x40023800
 80010fc:	40007000 	.word	0x40007000

08001100 <MX_CAN2_Init>:
  * @brief CAN2 Initialization Function
  * @param None
  * @retval None
  */
static void MX_CAN2_Init(void)
{
 8001100:	b580      	push	{r7, lr}
 8001102:	af00      	add	r7, sp, #0
  /* USER CODE END CAN2_Init 0 */

  /* USER CODE BEGIN CAN2_Init 1 */

  /* USER CODE END CAN2_Init 1 */
  hcan2.Instance = CAN2;
 8001104:	4b18      	ldr	r3, [pc, #96]	@ (8001168 <MX_CAN2_Init+0x68>)
 8001106:	4a19      	ldr	r2, [pc, #100]	@ (800116c <MX_CAN2_Init+0x6c>)
 8001108:	601a      	str	r2, [r3, #0]
  hcan2.Init.Prescaler = 24;
 800110a:	4b17      	ldr	r3, [pc, #92]	@ (8001168 <MX_CAN2_Init+0x68>)
 800110c:	2218      	movs	r2, #24
 800110e:	605a      	str	r2, [r3, #4]
  hcan2.Init.Mode = CAN_MODE_NORMAL;
 8001110:	4b15      	ldr	r3, [pc, #84]	@ (8001168 <MX_CAN2_Init+0x68>)
 8001112:	2200      	movs	r2, #0
 8001114:	609a      	str	r2, [r3, #8]
  hcan2.Init.SyncJumpWidth = CAN_SJW_2TQ;
 8001116:	4b14      	ldr	r3, [pc, #80]	@ (8001168 <MX_CAN2_Init+0x68>)
 8001118:	f04f 7280 	mov.w	r2, #16777216	@ 0x1000000
 800111c:	60da      	str	r2, [r3, #12]
  hcan2.Init.TimeSeg1 = CAN_BS1_11TQ;
 800111e:	4b12      	ldr	r3, [pc, #72]	@ (8001168 <MX_CAN2_Init+0x68>)
 8001120:	f44f 2220 	mov.w	r2, #655360	@ 0xa0000
 8001124:	611a      	str	r2, [r3, #16]
  hcan2.Init.TimeSeg2 = CAN_BS2_2TQ;
 8001126:	4b10      	ldr	r3, [pc, #64]	@ (8001168 <MX_CAN2_Init+0x68>)
 8001128:	f44f 1280 	mov.w	r2, #1048576	@ 0x100000
 800112c:	615a      	str	r2, [r3, #20]
  hcan2.Init.TimeTriggeredMode = DISABLE;
 800112e:	4b0e      	ldr	r3, [pc, #56]	@ (8001168 <MX_CAN2_Init+0x68>)
 8001130:	2200      	movs	r2, #0
 8001132:	761a      	strb	r2, [r3, #24]
  hcan2.Init.AutoBusOff = DISABLE;
 8001134:	4b0c      	ldr	r3, [pc, #48]	@ (8001168 <MX_CAN2_Init+0x68>)
 8001136:	2200      	movs	r2, #0
 8001138:	765a      	strb	r2, [r3, #25]
  hcan2.Init.AutoWakeUp = DISABLE;
 800113a:	4b0b      	ldr	r3, [pc, #44]	@ (8001168 <MX_CAN2_Init+0x68>)
 800113c:	2200      	movs	r2, #0
 800113e:	769a      	strb	r2, [r3, #26]
  hcan2.Init.AutoRetransmission = DISABLE;
 8001140:	4b09      	ldr	r3, [pc, #36]	@ (8001168 <MX_CAN2_Init+0x68>)
 8001142:	2200      	movs	r2, #0
 8001144:	76da      	strb	r2, [r3, #27]
  hcan2.Init.ReceiveFifoLocked = DISABLE;
 8001146:	4b08      	ldr	r3, [pc, #32]	@ (8001168 <MX_CAN2_Init+0x68>)
 8001148:	2200      	movs	r2, #0
 800114a:	771a      	strb	r2, [r3, #28]
  hcan2.Init.TransmitFifoPriority = DISABLE;
 800114c:	4b06      	ldr	r3, [pc, #24]	@ (8001168 <MX_CAN2_Init+0x68>)
 800114e:	2200      	movs	r2, #0
 8001150:	775a      	strb	r2, [r3, #29]
  if (HAL_CAN_Init(&hcan2) != HAL_OK)
 8001152:	4805      	ldr	r0, [pc, #20]	@ (8001168 <MX_CAN2_Init+0x68>)
 8001154:	f002 f890 	bl	8003278 <HAL_CAN_Init>
 8001158:	4603      	mov	r3, r0
 800115a:	2b00      	cmp	r3, #0
 800115c:	d001      	beq.n	8001162 <MX_CAN2_Init+0x62>
  {
    Error_Handler();
 800115e:	f000 fec9 	bl	8001ef4 <Error_Handler>
  }
  /* USER CODE BEGIN CAN2_Init 2 */

  /* USER CODE END CAN2_Init 2 */

}
 8001162:	bf00      	nop
 8001164:	bd80      	pop	{r7, pc}
 8001166:	bf00      	nop
 8001168:	20000048 	.word	0x20000048
 800116c:	40006800 	.word	0x40006800

08001170 <MX_I2C1_Init>:
  * @brief I2C1 Initialization Function
  * @param None
  * @retval None
  */
static void MX_I2C1_Init(void)
{
 8001170:	b580      	push	{r7, lr}
 8001172:	af00      	add	r7, sp, #0
  /* USER CODE END I2C1_Init 0 */

  /* USER CODE BEGIN I2C1_Init 1 */

  /* USER CODE END I2C1_Init 1 */
  hi2c1.Instance = I2C1;
 8001174:	4b1b      	ldr	r3, [pc, #108]	@ (80011e4 <MX_I2C1_Init+0x74>)
 8001176:	4a1c      	ldr	r2, [pc, #112]	@ (80011e8 <MX_I2C1_Init+0x78>)
 8001178:	601a      	str	r2, [r3, #0]
  hi2c1.Init.ClockSpeed = 100000;
 800117a:	4b1a      	ldr	r3, [pc, #104]	@ (80011e4 <MX_I2C1_Init+0x74>)
 800117c:	4a1b      	ldr	r2, [pc, #108]	@ (80011ec <MX_I2C1_Init+0x7c>)
 800117e:	605a      	str	r2, [r3, #4]
  hi2c1.Init.DutyCycle = I2C_DUTYCYCLE_2;
 8001180:	4b18      	ldr	r3, [pc, #96]	@ (80011e4 <MX_I2C1_Init+0x74>)
 8001182:	2200      	movs	r2, #0
 8001184:	609a      	str	r2, [r3, #8]
  hi2c1.Init.OwnAddress1 = 0;
 8001186:	4b17      	ldr	r3, [pc, #92]	@ (80011e4 <MX_I2C1_Init+0x74>)
 8001188:	2200      	movs	r2, #0
 800118a:	60da      	str	r2, [r3, #12]
  hi2c1.Init.AddressingMode = I2C_ADDRESSINGMODE_7BIT;
 800118c:	4b15      	ldr	r3, [pc, #84]	@ (80011e4 <MX_I2C1_Init+0x74>)
 800118e:	f44f 4280 	mov.w	r2, #16384	@ 0x4000
 8001192:	611a      	str	r2, [r3, #16]
  hi2c1.Init.DualAddressMode = I2C_DUALADDRESS_DISABLE;
 8001194:	4b13      	ldr	r3, [pc, #76]	@ (80011e4 <MX_I2C1_Init+0x74>)
 8001196:	2200      	movs	r2, #0
 8001198:	615a      	str	r2, [r3, #20]
  hi2c1.Init.OwnAddress2 = 0;
 800119a:	4b12      	ldr	r3, [pc, #72]	@ (80011e4 <MX_I2C1_Init+0x74>)
 800119c:	2200      	movs	r2, #0
 800119e:	619a      	str	r2, [r3, #24]
  hi2c1.Init.GeneralCallMode = I2C_GENERALCALL_DISABLE;
 80011a0:	4b10      	ldr	r3, [pc, #64]	@ (80011e4 <MX_I2C1_Init+0x74>)
 80011a2:	2200      	movs	r2, #0
 80011a4:	61da      	str	r2, [r3, #28]
  hi2c1.Init.NoStretchMode = I2C_NOSTRETCH_DISABLE;
 80011a6:	4b0f      	ldr	r3, [pc, #60]	@ (80011e4 <MX_I2C1_Init+0x74>)
 80011a8:	2200      	movs	r2, #0
 80011aa:	621a      	str	r2, [r3, #32]
  if (HAL_I2C_Init(&hi2c1) != HAL_OK)
 80011ac:	480d      	ldr	r0, [pc, #52]	@ (80011e4 <MX_I2C1_Init+0x74>)
 80011ae:	f003 fefb 	bl	8004fa8 <HAL_I2C_Init>
 80011b2:	4603      	mov	r3, r0
 80011b4:	2b00      	cmp	r3, #0
 80011b6:	d001      	beq.n	80011bc <MX_I2C1_Init+0x4c>
  {
    Error_Handler();
 80011b8:	f000 fe9c 	bl	8001ef4 <Error_Handler>
  }

  /** Configure Analogue filter
  */
  if (HAL_I2CEx_ConfigAnalogFilter(&hi2c1, I2C_ANALOGFILTER_ENABLE) != HAL_OK)
 80011bc:	2100      	movs	r1, #0
 80011be:	4809      	ldr	r0, [pc, #36]	@ (80011e4 <MX_I2C1_Init+0x74>)
 80011c0:	f004 ff1c 	bl	8005ffc <HAL_I2CEx_ConfigAnalogFilter>
 80011c4:	4603      	mov	r3, r0
 80011c6:	2b00      	cmp	r3, #0
 80011c8:	d001      	beq.n	80011ce <MX_I2C1_Init+0x5e>
  {
    Error_Handler();
 80011ca:	f000 fe93 	bl	8001ef4 <Error_Handler>
  }

  /** Configure Digital filter
  */
  if (HAL_I2CEx_ConfigDigitalFilter(&hi2c1, 0) != HAL_OK)
 80011ce:	2100      	movs	r1, #0
 80011d0:	4804      	ldr	r0, [pc, #16]	@ (80011e4 <MX_I2C1_Init+0x74>)
 80011d2:	f004 ff4f 	bl	8006074 <HAL_I2CEx_ConfigDigitalFilter>
 80011d6:	4603      	mov	r3, r0
 80011d8:	2b00      	cmp	r3, #0
 80011da:	d001      	beq.n	80011e0 <MX_I2C1_Init+0x70>
  {
    Error_Handler();
 80011dc:	f000 fe8a 	bl	8001ef4 <Error_Handler>
  }
  /* USER CODE BEGIN I2C1_Init 2 */

  /* USER CODE END I2C1_Init 2 */

}
 80011e0:	bf00      	nop
 80011e2:	bd80      	pop	{r7, pc}
 80011e4:	20000070 	.word	0x20000070
 80011e8:	40005400 	.word	0x40005400
 80011ec:	000186a0 	.word	0x000186a0

080011f0 <MX_I2C3_Init>:
  * @brief I2C3 Initialization Function
  * @param None
  * @retval None
  */
static void MX_I2C3_Init(void)
{
 80011f0:	b580      	push	{r7, lr}
 80011f2:	af00      	add	r7, sp, #0
  /* USER CODE END I2C3_Init 0 */

  /* USER CODE BEGIN I2C3_Init 1 */

  /* USER CODE END I2C3_Init 1 */
  hi2c3.Instance = I2C3;
 80011f4:	4b1b      	ldr	r3, [pc, #108]	@ (8001264 <MX_I2C3_Init+0x74>)
 80011f6:	4a1c      	ldr	r2, [pc, #112]	@ (8001268 <MX_I2C3_Init+0x78>)
 80011f8:	601a      	str	r2, [r3, #0]
  hi2c3.Init.ClockSpeed = 100000;
 80011fa:	4b1a      	ldr	r3, [pc, #104]	@ (8001264 <MX_I2C3_Init+0x74>)
 80011fc:	4a1b      	ldr	r2, [pc, #108]	@ (800126c <MX_I2C3_Init+0x7c>)
 80011fe:	605a      	str	r2, [r3, #4]
  hi2c3.Init.DutyCycle = I2C_DUTYCYCLE_2;
 8001200:	4b18      	ldr	r3, [pc, #96]	@ (8001264 <MX_I2C3_Init+0x74>)
 8001202:	2200      	movs	r2, #0
 8001204:	609a      	str	r2, [r3, #8]
  hi2c3.Init.OwnAddress1 = 0;
 8001206:	4b17      	ldr	r3, [pc, #92]	@ (8001264 <MX_I2C3_Init+0x74>)
 8001208:	2200      	movs	r2, #0
 800120a:	60da      	str	r2, [r3, #12]
  hi2c3.Init.AddressingMode = I2C_ADDRESSINGMODE_7BIT;
 800120c:	4b15      	ldr	r3, [pc, #84]	@ (8001264 <MX_I2C3_Init+0x74>)
 800120e:	f44f 4280 	mov.w	r2, #16384	@ 0x4000
 8001212:	611a      	str	r2, [r3, #16]
  hi2c3.Init.DualAddressMode = I2C_DUALADDRESS_DISABLE;
 8001214:	4b13      	ldr	r3, [pc, #76]	@ (8001264 <MX_I2C3_Init+0x74>)
 8001216:	2200      	movs	r2, #0
 8001218:	615a      	str	r2, [r3, #20]
  hi2c3.Init.OwnAddress2 = 0;
 800121a:	4b12      	ldr	r3, [pc, #72]	@ (8001264 <MX_I2C3_Init+0x74>)
 800121c:	2200      	movs	r2, #0
 800121e:	619a      	str	r2, [r3, #24]
  hi2c3.Init.GeneralCallMode = I2C_GENERALCALL_DISABLE;
 8001220:	4b10      	ldr	r3, [pc, #64]	@ (8001264 <MX_I2C3_Init+0x74>)
 8001222:	2200      	movs	r2, #0
 8001224:	61da      	str	r2, [r3, #28]
  hi2c3.Init.NoStretchMode = I2C_NOSTRETCH_DISABLE;
 8001226:	4b0f      	ldr	r3, [pc, #60]	@ (8001264 <MX_I2C3_Init+0x74>)
 8001228:	2200      	movs	r2, #0
 800122a:	621a      	str	r2, [r3, #32]
  if (HAL_I2C_Init(&hi2c3) != HAL_OK)
 800122c:	480d      	ldr	r0, [pc, #52]	@ (8001264 <MX_I2C3_Init+0x74>)
 800122e:	f003 febb 	bl	8004fa8 <HAL_I2C_Init>
 8001232:	4603      	mov	r3, r0
 8001234:	2b00      	cmp	r3, #0
 8001236:	d001      	beq.n	800123c <MX_I2C3_Init+0x4c>
  {
    Error_Handler();
 8001238:	f000 fe5c 	bl	8001ef4 <Error_Handler>
  }

  /** Configure Analogue filter
  */
  if (HAL_I2CEx_ConfigAnalogFilter(&hi2c3, I2C_ANALOGFILTER_ENABLE) != HAL_OK)
 800123c:	2100      	movs	r1, #0
 800123e:	4809      	ldr	r0, [pc, #36]	@ (8001264 <MX_I2C3_Init+0x74>)
 8001240:	f004 fedc 	bl	8005ffc <HAL_I2CEx_ConfigAnalogFilter>
 8001244:	4603      	mov	r3, r0
 8001246:	2b00      	cmp	r3, #0
 8001248:	d001      	beq.n	800124e <MX_I2C3_Init+0x5e>
  {
    Error_Handler();
 800124a:	f000 fe53 	bl	8001ef4 <Error_Handler>
  }

  /** Configure Digital filter
  */
  if (HAL_I2CEx_ConfigDigitalFilter(&hi2c3, 0) != HAL_OK)
 800124e:	2100      	movs	r1, #0
 8001250:	4804      	ldr	r0, [pc, #16]	@ (8001264 <MX_I2C3_Init+0x74>)
 8001252:	f004 ff0f 	bl	8006074 <HAL_I2CEx_ConfigDigitalFilter>
 8001256:	4603      	mov	r3, r0
 8001258:	2b00      	cmp	r3, #0
 800125a:	d001      	beq.n	8001260 <MX_I2C3_Init+0x70>
  {
    Error_Handler();
 800125c:	f000 fe4a 	bl	8001ef4 <Error_Handler>
  }
  /* USER CODE BEGIN I2C3_Init 2 */

  /* USER CODE END I2C3_Init 2 */

}
 8001260:	bf00      	nop
 8001262:	bd80      	pop	{r7, pc}
 8001264:	200000c4 	.word	0x200000c4
 8001268:	40005c00 	.word	0x40005c00
 800126c:	000186a0 	.word	0x000186a0

08001270 <MX_RTC_Init>:
  * @brief RTC Initialization Function
  * @param None
  * @retval None
  */
static void MX_RTC_Init(void)
{
 8001270:	b580      	push	{r7, lr}
 8001272:	af00      	add	r7, sp, #0

  /* USER CODE END RTC_Init 1 */

  /** Initialize RTC Only
  */
  hrtc.Instance = RTC;
 8001274:	4b0f      	ldr	r3, [pc, #60]	@ (80012b4 <MX_RTC_Init+0x44>)
 8001276:	4a10      	ldr	r2, [pc, #64]	@ (80012b8 <MX_RTC_Init+0x48>)
 8001278:	601a      	str	r2, [r3, #0]
  hrtc.Init.HourFormat = RTC_HOURFORMAT_24;
 800127a:	4b0e      	ldr	r3, [pc, #56]	@ (80012b4 <MX_RTC_Init+0x44>)
 800127c:	2200      	movs	r2, #0
 800127e:	605a      	str	r2, [r3, #4]
  hrtc.Init.AsynchPrediv = 127;
 8001280:	4b0c      	ldr	r3, [pc, #48]	@ (80012b4 <MX_RTC_Init+0x44>)
 8001282:	227f      	movs	r2, #127	@ 0x7f
 8001284:	609a      	str	r2, [r3, #8]
  hrtc.Init.SynchPrediv = 255;
 8001286:	4b0b      	ldr	r3, [pc, #44]	@ (80012b4 <MX_RTC_Init+0x44>)
 8001288:	22ff      	movs	r2, #255	@ 0xff
 800128a:	60da      	str	r2, [r3, #12]
  hrtc.Init.OutPut = RTC_OUTPUT_DISABLE;
 800128c:	4b09      	ldr	r3, [pc, #36]	@ (80012b4 <MX_RTC_Init+0x44>)
 800128e:	2200      	movs	r2, #0
 8001290:	611a      	str	r2, [r3, #16]
  hrtc.Init.OutPutPolarity = RTC_OUTPUT_POLARITY_HIGH;
 8001292:	4b08      	ldr	r3, [pc, #32]	@ (80012b4 <MX_RTC_Init+0x44>)
 8001294:	2200      	movs	r2, #0
 8001296:	615a      	str	r2, [r3, #20]
  hrtc.Init.OutPutType = RTC_OUTPUT_TYPE_OPENDRAIN;
 8001298:	4b06      	ldr	r3, [pc, #24]	@ (80012b4 <MX_RTC_Init+0x44>)
 800129a:	2200      	movs	r2, #0
 800129c:	619a      	str	r2, [r3, #24]
  if (HAL_RTC_Init(&hrtc) != HAL_OK)
 800129e:	4805      	ldr	r0, [pc, #20]	@ (80012b4 <MX_RTC_Init+0x44>)
 80012a0:	f005 fd68 	bl	8006d74 <HAL_RTC_Init>
 80012a4:	4603      	mov	r3, r0
 80012a6:	2b00      	cmp	r3, #0
 80012a8:	d001      	beq.n	80012ae <MX_RTC_Init+0x3e>
  {
    Error_Handler();
 80012aa:	f000 fe23 	bl	8001ef4 <Error_Handler>
  }
  /* USER CODE BEGIN RTC_Init 2 */

  /* USER CODE END RTC_Init 2 */

}
 80012ae:	bf00      	nop
 80012b0:	bd80      	pop	{r7, pc}
 80012b2:	bf00      	nop
 80012b4:	20000118 	.word	0x20000118
 80012b8:	40002800 	.word	0x40002800

080012bc <MX_SPI1_Init>:
  * @brief SPI1 Initialization Function
  * @param None
  * @retval None
  */
static void MX_SPI1_Init(void)
{
 80012bc:	b580      	push	{r7, lr}
 80012be:	af00      	add	r7, sp, #0

  /* USER CODE BEGIN SPI1_Init 1 */

  /* USER CODE END SPI1_Init 1 */
  /* SPI1 parameter configuration*/
  hspi1.Instance = SPI1;
 80012c0:	4b17      	ldr	r3, [pc, #92]	@ (8001320 <MX_SPI1_Init+0x64>)
 80012c2:	4a18      	ldr	r2, [pc, #96]	@ (8001324 <MX_SPI1_Init+0x68>)
 80012c4:	601a      	str	r2, [r3, #0]
  hspi1.Init.Mode = SPI_MODE_MASTER;
 80012c6:	4b16      	ldr	r3, [pc, #88]	@ (8001320 <MX_SPI1_Init+0x64>)
 80012c8:	f44f 7282 	mov.w	r2, #260	@ 0x104
 80012cc:	605a      	str	r2, [r3, #4]
  hspi1.Init.Direction = SPI_DIRECTION_2LINES;
 80012ce:	4b14      	ldr	r3, [pc, #80]	@ (8001320 <MX_SPI1_Init+0x64>)
 80012d0:	2200      	movs	r2, #0
 80012d2:	609a      	str	r2, [r3, #8]
  hspi1.Init.DataSize = SPI_DATASIZE_8BIT;
 80012d4:	4b12      	ldr	r3, [pc, #72]	@ (8001320 <MX_SPI1_Init+0x64>)
 80012d6:	2200      	movs	r2, #0
 80012d8:	60da      	str	r2, [r3, #12]
  hspi1.Init.CLKPolarity = SPI_POLARITY_LOW;
 80012da:	4b11      	ldr	r3, [pc, #68]	@ (8001320 <MX_SPI1_Init+0x64>)
 80012dc:	2200      	movs	r2, #0
 80012de:	611a      	str	r2, [r3, #16]
  hspi1.Init.CLKPhase = SPI_PHASE_1EDGE;
 80012e0:	4b0f      	ldr	r3, [pc, #60]	@ (8001320 <MX_SPI1_Init+0x64>)
 80012e2:	2200      	movs	r2, #0
 80012e4:	615a      	str	r2, [r3, #20]
  hspi1.Init.NSS = SPI_NSS_SOFT;
 80012e6:	4b0e      	ldr	r3, [pc, #56]	@ (8001320 <MX_SPI1_Init+0x64>)
 80012e8:	f44f 7200 	mov.w	r2, #512	@ 0x200
 80012ec:	619a      	str	r2, [r3, #24]
  hspi1.Init.BaudRatePrescaler = SPI_BAUDRATEPRESCALER_4;
 80012ee:	4b0c      	ldr	r3, [pc, #48]	@ (8001320 <MX_SPI1_Init+0x64>)
 80012f0:	2208      	movs	r2, #8
 80012f2:	61da      	str	r2, [r3, #28]
  hspi1.Init.FirstBit = SPI_FIRSTBIT_MSB;
 80012f4:	4b0a      	ldr	r3, [pc, #40]	@ (8001320 <MX_SPI1_Init+0x64>)
 80012f6:	2200      	movs	r2, #0
 80012f8:	621a      	str	r2, [r3, #32]
  hspi1.Init.TIMode = SPI_TIMODE_DISABLE;
 80012fa:	4b09      	ldr	r3, [pc, #36]	@ (8001320 <MX_SPI1_Init+0x64>)
 80012fc:	2200      	movs	r2, #0
 80012fe:	625a      	str	r2, [r3, #36]	@ 0x24
  hspi1.Init.CRCCalculation = SPI_CRCCALCULATION_DISABLE;
 8001300:	4b07      	ldr	r3, [pc, #28]	@ (8001320 <MX_SPI1_Init+0x64>)
 8001302:	2200      	movs	r2, #0
 8001304:	629a      	str	r2, [r3, #40]	@ 0x28
  hspi1.Init.CRCPolynomial = 10;
 8001306:	4b06      	ldr	r3, [pc, #24]	@ (8001320 <MX_SPI1_Init+0x64>)
 8001308:	220a      	movs	r2, #10
 800130a:	62da      	str	r2, [r3, #44]	@ 0x2c
  if (HAL_SPI_Init(&hspi1) != HAL_OK)
 800130c:	4804      	ldr	r0, [pc, #16]	@ (8001320 <MX_SPI1_Init+0x64>)
 800130e:	f006 f83d 	bl	800738c <HAL_SPI_Init>
 8001312:	4603      	mov	r3, r0
 8001314:	2b00      	cmp	r3, #0
 8001316:	d001      	beq.n	800131c <MX_SPI1_Init+0x60>
  {
    Error_Handler();
 8001318:	f000 fdec 	bl	8001ef4 <Error_Handler>
  }
  /* USER CODE BEGIN SPI1_Init 2 */

  /* USER CODE END SPI1_Init 2 */

}
 800131c:	bf00      	nop
 800131e:	bd80      	pop	{r7, pc}
 8001320:	20000138 	.word	0x20000138
 8001324:	40013000 	.word	0x40013000

08001328 <MX_SPI2_Init>:
  * @brief SPI2 Initialization Function
  * @param None
  * @retval None
  */
static void MX_SPI2_Init(void)
{
 8001328:	b580      	push	{r7, lr}
 800132a:	af00      	add	r7, sp, #0

  /* USER CODE BEGIN SPI2_Init 1 */

  /* USER CODE END SPI2_Init 1 */
  /* SPI2 parameter configuration*/
  hspi2.Instance = SPI2;
 800132c:	4b17      	ldr	r3, [pc, #92]	@ (800138c <MX_SPI2_Init+0x64>)
 800132e:	4a18      	ldr	r2, [pc, #96]	@ (8001390 <MX_SPI2_Init+0x68>)
 8001330:	601a      	str	r2, [r3, #0]
  hspi2.Init.Mode = SPI_MODE_MASTER;
 8001332:	4b16      	ldr	r3, [pc, #88]	@ (800138c <MX_SPI2_Init+0x64>)
 8001334:	f44f 7282 	mov.w	r2, #260	@ 0x104
 8001338:	605a      	str	r2, [r3, #4]
  hspi2.Init.Direction = SPI_DIRECTION_2LINES;
 800133a:	4b14      	ldr	r3, [pc, #80]	@ (800138c <MX_SPI2_Init+0x64>)
 800133c:	2200      	movs	r2, #0
 800133e:	609a      	str	r2, [r3, #8]
  hspi2.Init.DataSize = SPI_DATASIZE_8BIT;
 8001340:	4b12      	ldr	r3, [pc, #72]	@ (800138c <MX_SPI2_Init+0x64>)
 8001342:	2200      	movs	r2, #0
 8001344:	60da      	str	r2, [r3, #12]
  hspi2.Init.CLKPolarity = SPI_POLARITY_LOW;
 8001346:	4b11      	ldr	r3, [pc, #68]	@ (800138c <MX_SPI2_Init+0x64>)
 8001348:	2200      	movs	r2, #0
 800134a:	611a      	str	r2, [r3, #16]
  hspi2.Init.CLKPhase = SPI_PHASE_1EDGE;
 800134c:	4b0f      	ldr	r3, [pc, #60]	@ (800138c <MX_SPI2_Init+0x64>)
 800134e:	2200      	movs	r2, #0
 8001350:	615a      	str	r2, [r3, #20]
  hspi2.Init.NSS = SPI_NSS_SOFT;
 8001352:	4b0e      	ldr	r3, [pc, #56]	@ (800138c <MX_SPI2_Init+0x64>)
 8001354:	f44f 7200 	mov.w	r2, #512	@ 0x200
 8001358:	619a      	str	r2, [r3, #24]
  hspi2.Init.BaudRatePrescaler = SPI_BAUDRATEPRESCALER_2;
 800135a:	4b0c      	ldr	r3, [pc, #48]	@ (800138c <MX_SPI2_Init+0x64>)
 800135c:	2200      	movs	r2, #0
 800135e:	61da      	str	r2, [r3, #28]
  hspi2.Init.FirstBit = SPI_FIRSTBIT_MSB;
 8001360:	4b0a      	ldr	r3, [pc, #40]	@ (800138c <MX_SPI2_Init+0x64>)
 8001362:	2200      	movs	r2, #0
 8001364:	621a      	str	r2, [r3, #32]
  hspi2.Init.TIMode = SPI_TIMODE_DISABLE;
 8001366:	4b09      	ldr	r3, [pc, #36]	@ (800138c <MX_SPI2_Init+0x64>)
 8001368:	2200      	movs	r2, #0
 800136a:	625a      	str	r2, [r3, #36]	@ 0x24
  hspi2.Init.CRCCalculation = SPI_CRCCALCULATION_DISABLE;
 800136c:	4b07      	ldr	r3, [pc, #28]	@ (800138c <MX_SPI2_Init+0x64>)
 800136e:	2200      	movs	r2, #0
 8001370:	629a      	str	r2, [r3, #40]	@ 0x28
  hspi2.Init.CRCPolynomial = 10;
 8001372:	4b06      	ldr	r3, [pc, #24]	@ (800138c <MX_SPI2_Init+0x64>)
 8001374:	220a      	movs	r2, #10
 8001376:	62da      	str	r2, [r3, #44]	@ 0x2c
  if (HAL_SPI_Init(&hspi2) != HAL_OK)
 8001378:	4804      	ldr	r0, [pc, #16]	@ (800138c <MX_SPI2_Init+0x64>)
 800137a:	f006 f807 	bl	800738c <HAL_SPI_Init>
 800137e:	4603      	mov	r3, r0
 8001380:	2b00      	cmp	r3, #0
 8001382:	d001      	beq.n	8001388 <MX_SPI2_Init+0x60>
  {
    Error_Handler();
 8001384:	f000 fdb6 	bl	8001ef4 <Error_Handler>
  }
  /* USER CODE BEGIN SPI2_Init 2 */

  /* USER CODE END SPI2_Init 2 */

}
 8001388:	bf00      	nop
 800138a:	bd80      	pop	{r7, pc}
 800138c:	20000190 	.word	0x20000190
 8001390:	40003800 	.word	0x40003800

08001394 <MX_TIM6_Init>:
  * @brief TIM6 Initialization Function
  * @param None
  * @retval None
  */
static void MX_TIM6_Init(void)
{
 8001394:	b580      	push	{r7, lr}
 8001396:	b082      	sub	sp, #8
 8001398:	af00      	add	r7, sp, #0

  /* USER CODE BEGIN TIM6_Init 0 */

  /* USER CODE END TIM6_Init 0 */

  TIM_MasterConfigTypeDef sMasterConfig = {0};
 800139a:	463b      	mov	r3, r7
 800139c:	2200      	movs	r2, #0
 800139e:	601a      	str	r2, [r3, #0]
 80013a0:	605a      	str	r2, [r3, #4]

  /* USER CODE BEGIN TIM6_Init 1 */

  /* USER CODE END TIM6_Init 1 */
  htim6.Instance = TIM6;
 80013a2:	4b15      	ldr	r3, [pc, #84]	@ (80013f8 <MX_TIM6_Init+0x64>)
 80013a4:	4a15      	ldr	r2, [pc, #84]	@ (80013fc <MX_TIM6_Init+0x68>)
 80013a6:	601a      	str	r2, [r3, #0]
  htim6.Init.Prescaler = 20999;
 80013a8:	4b13      	ldr	r3, [pc, #76]	@ (80013f8 <MX_TIM6_Init+0x64>)
 80013aa:	f245 2207 	movw	r2, #20999	@ 0x5207
 80013ae:	605a      	str	r2, [r3, #4]
  htim6.Init.CounterMode = TIM_COUNTERMODE_UP;
 80013b0:	4b11      	ldr	r3, [pc, #68]	@ (80013f8 <MX_TIM6_Init+0x64>)
 80013b2:	2200      	movs	r2, #0
 80013b4:	609a      	str	r2, [r3, #8]
  htim6.Init.Period = 40;
 80013b6:	4b10      	ldr	r3, [pc, #64]	@ (80013f8 <MX_TIM6_Init+0x64>)
 80013b8:	2228      	movs	r2, #40	@ 0x28
 80013ba:	60da      	str	r2, [r3, #12]
  htim6.Init.AutoReloadPreload = TIM_AUTORELOAD_PRELOAD_DISABLE;
 80013bc:	4b0e      	ldr	r3, [pc, #56]	@ (80013f8 <MX_TIM6_Init+0x64>)
 80013be:	2200      	movs	r2, #0
 80013c0:	619a      	str	r2, [r3, #24]
  if (HAL_TIM_Base_Init(&htim6) != HAL_OK)
 80013c2:	480d      	ldr	r0, [pc, #52]	@ (80013f8 <MX_TIM6_Init+0x64>)
 80013c4:	f006 ff00 	bl	80081c8 <HAL_TIM_Base_Init>
 80013c8:	4603      	mov	r3, r0
 80013ca:	2b00      	cmp	r3, #0
 80013cc:	d001      	beq.n	80013d2 <MX_TIM6_Init+0x3e>
  {
    Error_Handler();
 80013ce:	f000 fd91 	bl	8001ef4 <Error_Handler>
  }
  sMasterConfig.MasterOutputTrigger = TIM_TRGO_RESET;
 80013d2:	2300      	movs	r3, #0
 80013d4:	603b      	str	r3, [r7, #0]
  sMasterConfig.MasterSlaveMode = TIM_MASTERSLAVEMODE_DISABLE;
 80013d6:	2300      	movs	r3, #0
 80013d8:	607b      	str	r3, [r7, #4]
  if (HAL_TIMEx_MasterConfigSynchronization(&htim6, &sMasterConfig) != HAL_OK)
 80013da:	463b      	mov	r3, r7
 80013dc:	4619      	mov	r1, r3
 80013de:	4806      	ldr	r0, [pc, #24]	@ (80013f8 <MX_TIM6_Init+0x64>)
 80013e0:	f007 f980 	bl	80086e4 <HAL_TIMEx_MasterConfigSynchronization>
 80013e4:	4603      	mov	r3, r0
 80013e6:	2b00      	cmp	r3, #0
 80013e8:	d001      	beq.n	80013ee <MX_TIM6_Init+0x5a>
  {
    Error_Handler();
 80013ea:	f000 fd83 	bl	8001ef4 <Error_Handler>
  }
  /* USER CODE BEGIN TIM6_Init 2 */

  /* USER CODE END TIM6_Init 2 */

}
 80013ee:	bf00      	nop
 80013f0:	3708      	adds	r7, #8
 80013f2:	46bd      	mov	sp, r7
 80013f4:	bd80      	pop	{r7, pc}
 80013f6:	bf00      	nop
 80013f8:	200002a8 	.word	0x200002a8
 80013fc:	40001000 	.word	0x40001000

08001400 <MX_TIM7_Init>:
  * @brief TIM7 Initialization Function
  * @param None
  * @retval None
  */
static void MX_TIM7_Init(void)
{
 8001400:	b580      	push	{r7, lr}
 8001402:	b082      	sub	sp, #8
 8001404:	af00      	add	r7, sp, #0

  /* USER CODE BEGIN TIM7_Init 0 */

  /* USER CODE END TIM7_Init 0 */

  TIM_MasterConfigTypeDef sMasterConfig = {0};
 8001406:	463b      	mov	r3, r7
 8001408:	2200      	movs	r2, #0
 800140a:	601a      	str	r2, [r3, #0]
 800140c:	605a      	str	r2, [r3, #4]

  /* USER CODE BEGIN TIM7_Init 1 */

  /* USER CODE END TIM7_Init 1 */
  htim7.Instance = TIM7;
 800140e:	4b15      	ldr	r3, [pc, #84]	@ (8001464 <MX_TIM7_Init+0x64>)
 8001410:	4a15      	ldr	r2, [pc, #84]	@ (8001468 <MX_TIM7_Init+0x68>)
 8001412:	601a      	str	r2, [r3, #0]
  htim7.Init.Prescaler = 20999;
 8001414:	4b13      	ldr	r3, [pc, #76]	@ (8001464 <MX_TIM7_Init+0x64>)
 8001416:	f245 2207 	movw	r2, #20999	@ 0x5207
 800141a:	605a      	str	r2, [r3, #4]
  htim7.Init.CounterMode = TIM_COUNTERMODE_UP;
 800141c:	4b11      	ldr	r3, [pc, #68]	@ (8001464 <MX_TIM7_Init+0x64>)
 800141e:	2200      	movs	r2, #0
 8001420:	609a      	str	r2, [r3, #8]
  htim7.Init.Period = 2000;
 8001422:	4b10      	ldr	r3, [pc, #64]	@ (8001464 <MX_TIM7_Init+0x64>)
 8001424:	f44f 62fa 	mov.w	r2, #2000	@ 0x7d0
 8001428:	60da      	str	r2, [r3, #12]
  htim7.Init.AutoReloadPreload = TIM_AUTORELOAD_PRELOAD_DISABLE;
 800142a:	4b0e      	ldr	r3, [pc, #56]	@ (8001464 <MX_TIM7_Init+0x64>)
 800142c:	2200      	movs	r2, #0
 800142e:	619a      	str	r2, [r3, #24]
  if (HAL_TIM_Base_Init(&htim7) != HAL_OK)
 8001430:	480c      	ldr	r0, [pc, #48]	@ (8001464 <MX_TIM7_Init+0x64>)
 8001432:	f006 fec9 	bl	80081c8 <HAL_TIM_Base_Init>
 8001436:	4603      	mov	r3, r0
 8001438:	2b00      	cmp	r3, #0
 800143a:	d001      	beq.n	8001440 <MX_TIM7_Init+0x40>
  {
    Error_Handler();
 800143c:	f000 fd5a 	bl	8001ef4 <Error_Handler>
  }
  sMasterConfig.MasterOutputTrigger = TIM_TRGO_RESET;
 8001440:	2300      	movs	r3, #0
 8001442:	603b      	str	r3, [r7, #0]
  sMasterConfig.MasterSlaveMode = TIM_MASTERSLAVEMODE_DISABLE;
 8001444:	2300      	movs	r3, #0
 8001446:	607b      	str	r3, [r7, #4]
  if (HAL_TIMEx_MasterConfigSynchronization(&htim7, &sMasterConfig) != HAL_OK)
 8001448:	463b      	mov	r3, r7
 800144a:	4619      	mov	r1, r3
 800144c:	4805      	ldr	r0, [pc, #20]	@ (8001464 <MX_TIM7_Init+0x64>)
 800144e:	f007 f949 	bl	80086e4 <HAL_TIMEx_MasterConfigSynchronization>
 8001452:	4603      	mov	r3, r0
 8001454:	2b00      	cmp	r3, #0
 8001456:	d001      	beq.n	800145c <MX_TIM7_Init+0x5c>
  {
    Error_Handler();
 8001458:	f000 fd4c 	bl	8001ef4 <Error_Handler>
  }
  /* USER CODE BEGIN TIM7_Init 2 */

  /* USER CODE END TIM7_Init 2 */

}
 800145c:	bf00      	nop
 800145e:	3708      	adds	r7, #8
 8001460:	46bd      	mov	sp, r7
 8001462:	bd80      	pop	{r7, pc}
 8001464:	200002f0 	.word	0x200002f0
 8001468:	40001400 	.word	0x40001400

0800146c <MX_USART2_UART_Init>:
  * @brief USART2 Initialization Function
  * @param None
  * @retval None
  */
static void MX_USART2_UART_Init(void)
{
 800146c:	b580      	push	{r7, lr}
 800146e:	af00      	add	r7, sp, #0
  /* USER CODE END USART2_Init 0 */

  /* USER CODE BEGIN USART2_Init 1 */

  /* USER CODE END USART2_Init 1 */
  huart2.Instance = USART2;
 8001470:	4b11      	ldr	r3, [pc, #68]	@ (80014b8 <MX_USART2_UART_Init+0x4c>)
 8001472:	4a12      	ldr	r2, [pc, #72]	@ (80014bc <MX_USART2_UART_Init+0x50>)
 8001474:	601a      	str	r2, [r3, #0]
  huart2.Init.BaudRate = 921600;
 8001476:	4b10      	ldr	r3, [pc, #64]	@ (80014b8 <MX_USART2_UART_Init+0x4c>)
 8001478:	f44f 2261 	mov.w	r2, #921600	@ 0xe1000
 800147c:	605a      	str	r2, [r3, #4]
  huart2.Init.WordLength = UART_WORDLENGTH_8B;
 800147e:	4b0e      	ldr	r3, [pc, #56]	@ (80014b8 <MX_USART2_UART_Init+0x4c>)
 8001480:	2200      	movs	r2, #0
 8001482:	609a      	str	r2, [r3, #8]
  huart2.Init.StopBits = UART_STOPBITS_1;
 8001484:	4b0c      	ldr	r3, [pc, #48]	@ (80014b8 <MX_USART2_UART_Init+0x4c>)
 8001486:	2200      	movs	r2, #0
 8001488:	60da      	str	r2, [r3, #12]
  huart2.Init.Parity = UART_PARITY_NONE;
 800148a:	4b0b      	ldr	r3, [pc, #44]	@ (80014b8 <MX_USART2_UART_Init+0x4c>)
 800148c:	2200      	movs	r2, #0
 800148e:	611a      	str	r2, [r3, #16]
  huart2.Init.Mode = UART_MODE_TX_RX;
 8001490:	4b09      	ldr	r3, [pc, #36]	@ (80014b8 <MX_USART2_UART_Init+0x4c>)
 8001492:	220c      	movs	r2, #12
 8001494:	615a      	str	r2, [r3, #20]
  huart2.Init.HwFlowCtl = UART_HWCONTROL_NONE;
 8001496:	4b08      	ldr	r3, [pc, #32]	@ (80014b8 <MX_USART2_UART_Init+0x4c>)
 8001498:	2200      	movs	r2, #0
 800149a:	619a      	str	r2, [r3, #24]
  huart2.Init.OverSampling = UART_OVERSAMPLING_16;
 800149c:	4b06      	ldr	r3, [pc, #24]	@ (80014b8 <MX_USART2_UART_Init+0x4c>)
 800149e:	2200      	movs	r2, #0
 80014a0:	61da      	str	r2, [r3, #28]
  if (HAL_UART_Init(&huart2) != HAL_OK)
 80014a2:	4805      	ldr	r0, [pc, #20]	@ (80014b8 <MX_USART2_UART_Init+0x4c>)
 80014a4:	f007 f9ae 	bl	8008804 <HAL_UART_Init>
 80014a8:	4603      	mov	r3, r0
 80014aa:	2b00      	cmp	r3, #0
 80014ac:	d001      	beq.n	80014b2 <MX_USART2_UART_Init+0x46>
  {
    Error_Handler();
 80014ae:	f000 fd21 	bl	8001ef4 <Error_Handler>
  }
  /* USER CODE BEGIN USART2_Init 2 */

  /* USER CODE END USART2_Init 2 */

}
 80014b2:	bf00      	nop
 80014b4:	bd80      	pop	{r7, pc}
 80014b6:	bf00      	nop
 80014b8:	20000338 	.word	0x20000338
 80014bc:	40004400 	.word	0x40004400

080014c0 <MX_DMA_Init>:

/**
  * Enable DMA controller clock
  */
static void MX_DMA_Init(void)
{
 80014c0:	b580      	push	{r7, lr}
 80014c2:	b082      	sub	sp, #8
 80014c4:	af00      	add	r7, sp, #0

  /* DMA controller clock enable */
  __HAL_RCC_DMA2_CLK_ENABLE();
 80014c6:	2300      	movs	r3, #0
 80014c8:	607b      	str	r3, [r7, #4]
 80014ca:	4b17      	ldr	r3, [pc, #92]	@ (8001528 <MX_DMA_Init+0x68>)
 80014cc:	6b1b      	ldr	r3, [r3, #48]	@ 0x30
 80014ce:	4a16      	ldr	r2, [pc, #88]	@ (8001528 <MX_DMA_Init+0x68>)
 80014d0:	f443 0380 	orr.w	r3, r3, #4194304	@ 0x400000
 80014d4:	6313      	str	r3, [r2, #48]	@ 0x30
 80014d6:	4b14      	ldr	r3, [pc, #80]	@ (8001528 <MX_DMA_Init+0x68>)
 80014d8:	6b1b      	ldr	r3, [r3, #48]	@ 0x30
 80014da:	f403 0380 	and.w	r3, r3, #4194304	@ 0x400000
 80014de:	607b      	str	r3, [r7, #4]
 80014e0:	687b      	ldr	r3, [r7, #4]
  __HAL_RCC_DMA1_CLK_ENABLE();
 80014e2:	2300      	movs	r3, #0
 80014e4:	603b      	str	r3, [r7, #0]
 80014e6:	4b10      	ldr	r3, [pc, #64]	@ (8001528 <MX_DMA_Init+0x68>)
 80014e8:	6b1b      	ldr	r3, [r3, #48]	@ 0x30
 80014ea:	4a0f      	ldr	r2, [pc, #60]	@ (8001528 <MX_DMA_Init+0x68>)
 80014ec:	f443 1300 	orr.w	r3, r3, #2097152	@ 0x200000
 80014f0:	6313      	str	r3, [r2, #48]	@ 0x30
 80014f2:	4b0d      	ldr	r3, [pc, #52]	@ (8001528 <MX_DMA_Init+0x68>)
 80014f4:	6b1b      	ldr	r3, [r3, #48]	@ 0x30
 80014f6:	f403 1300 	and.w	r3, r3, #2097152	@ 0x200000
 80014fa:	603b      	str	r3, [r7, #0]
 80014fc:	683b      	ldr	r3, [r7, #0]

  /* DMA interrupt init */
  /* DMA1_Stream4_IRQn interrupt configuration */
  HAL_NVIC_SetPriority(DMA1_Stream4_IRQn, 0, 0);
 80014fe:	2200      	movs	r2, #0
 8001500:	2100      	movs	r1, #0
 8001502:	200f      	movs	r0, #15
 8001504:	f002 fdfb 	bl	80040fe <HAL_NVIC_SetPriority>
  HAL_NVIC_EnableIRQ(DMA1_Stream4_IRQn);
 8001508:	200f      	movs	r0, #15
 800150a:	f002 fe14 	bl	8004136 <HAL_NVIC_EnableIRQ>
  /* DMA2_Stream3_IRQn interrupt configuration */
  HAL_NVIC_SetPriority(DMA2_Stream3_IRQn, 0, 0);
 800150e:	2200      	movs	r2, #0
 8001510:	2100      	movs	r1, #0
 8001512:	203b      	movs	r0, #59	@ 0x3b
 8001514:	f002 fdf3 	bl	80040fe <HAL_NVIC_SetPriority>
  HAL_NVIC_EnableIRQ(DMA2_Stream3_IRQn);
 8001518:	203b      	movs	r0, #59	@ 0x3b
 800151a:	f002 fe0c 	bl	8004136 <HAL_NVIC_EnableIRQ>

}
 800151e:	bf00      	nop
 8001520:	3708      	adds	r7, #8
 8001522:	46bd      	mov	sp, r7
 8001524:	bd80      	pop	{r7, pc}
 8001526:	bf00      	nop
 8001528:	40023800 	.word	0x40023800

0800152c <MX_GPIO_Init>:
  * @brief GPIO Initialization Function
  * @param None
  * @retval None
  */
static void MX_GPIO_Init(void)
{
 800152c:	b580      	push	{r7, lr}
 800152e:	b08a      	sub	sp, #40	@ 0x28
 8001530:	af00      	add	r7, sp, #0
  GPIO_InitTypeDef GPIO_InitStruct = {0};
 8001532:	f107 0314 	add.w	r3, r7, #20
 8001536:	2200      	movs	r2, #0
 8001538:	601a      	str	r2, [r3, #0]
 800153a:	605a      	str	r2, [r3, #4]
 800153c:	609a      	str	r2, [r3, #8]
 800153e:	60da      	str	r2, [r3, #12]
 8001540:	611a      	str	r2, [r3, #16]
/* USER CODE BEGIN MX_GPIO_Init_1 */
/* USER CODE END MX_GPIO_Init_1 */

  /* GPIO Ports Clock Enable */
  __HAL_RCC_GPIOC_CLK_ENABLE();
 8001542:	2300      	movs	r3, #0
 8001544:	613b      	str	r3, [r7, #16]
 8001546:	4b5b      	ldr	r3, [pc, #364]	@ (80016b4 <MX_GPIO_Init+0x188>)
 8001548:	6b1b      	ldr	r3, [r3, #48]	@ 0x30
 800154a:	4a5a      	ldr	r2, [pc, #360]	@ (80016b4 <MX_GPIO_Init+0x188>)
 800154c:	f043 0304 	orr.w	r3, r3, #4
 8001550:	6313      	str	r3, [r2, #48]	@ 0x30
 8001552:	4b58      	ldr	r3, [pc, #352]	@ (80016b4 <MX_GPIO_Init+0x188>)
 8001554:	6b1b      	ldr	r3, [r3, #48]	@ 0x30
 8001556:	f003 0304 	and.w	r3, r3, #4
 800155a:	613b      	str	r3, [r7, #16]
 800155c:	693b      	ldr	r3, [r7, #16]
  __HAL_RCC_GPIOH_CLK_ENABLE();
 800155e:	2300      	movs	r3, #0
 8001560:	60fb      	str	r3, [r7, #12]
 8001562:	4b54      	ldr	r3, [pc, #336]	@ (80016b4 <MX_GPIO_Init+0x188>)
 8001564:	6b1b      	ldr	r3, [r3, #48]	@ 0x30
 8001566:	4a53      	ldr	r2, [pc, #332]	@ (80016b4 <MX_GPIO_Init+0x188>)
 8001568:	f043 0380 	orr.w	r3, r3, #128	@ 0x80
 800156c:	6313      	str	r3, [r2, #48]	@ 0x30
 800156e:	4b51      	ldr	r3, [pc, #324]	@ (80016b4 <MX_GPIO_Init+0x188>)
 8001570:	6b1b      	ldr	r3, [r3, #48]	@ 0x30
 8001572:	f003 0380 	and.w	r3, r3, #128	@ 0x80
 8001576:	60fb      	str	r3, [r7, #12]
 8001578:	68fb      	ldr	r3, [r7, #12]
  __HAL_RCC_GPIOA_CLK_ENABLE();
 800157a:	2300      	movs	r3, #0
 800157c:	60bb      	str	r3, [r7, #8]
 800157e:	4b4d      	ldr	r3, [pc, #308]	@ (80016b4 <MX_GPIO_Init+0x188>)
 8001580:	6b1b      	ldr	r3, [r3, #48]	@ 0x30
 8001582:	4a4c      	ldr	r2, [pc, #304]	@ (80016b4 <MX_GPIO_Init+0x188>)
 8001584:	f043 0301 	orr.w	r3, r3, #1
 8001588:	6313      	str	r3, [r2, #48]	@ 0x30
 800158a:	4b4a      	ldr	r3, [pc, #296]	@ (80016b4 <MX_GPIO_Init+0x188>)
 800158c:	6b1b      	ldr	r3, [r3, #48]	@ 0x30
 800158e:	f003 0301 	and.w	r3, r3, #1
 8001592:	60bb      	str	r3, [r7, #8]
 8001594:	68bb      	ldr	r3, [r7, #8]
  __HAL_RCC_GPIOB_CLK_ENABLE();
 8001596:	2300      	movs	r3, #0
 8001598:	607b      	str	r3, [r7, #4]
 800159a:	4b46      	ldr	r3, [pc, #280]	@ (80016b4 <MX_GPIO_Init+0x188>)
 800159c:	6b1b      	ldr	r3, [r3, #48]	@ 0x30
 800159e:	4a45      	ldr	r2, [pc, #276]	@ (80016b4 <MX_GPIO_Init+0x188>)
 80015a0:	f043 0302 	orr.w	r3, r3, #2
 80015a4:	6313      	str	r3, [r2, #48]	@ 0x30
 80015a6:	4b43      	ldr	r3, [pc, #268]	@ (80016b4 <MX_GPIO_Init+0x188>)
 80015a8:	6b1b      	ldr	r3, [r3, #48]	@ 0x30
 80015aa:	f003 0302 	and.w	r3, r3, #2
 80015ae:	607b      	str	r3, [r7, #4]
 80015b0:	687b      	ldr	r3, [r7, #4]
  __HAL_RCC_GPIOD_CLK_ENABLE();
 80015b2:	2300      	movs	r3, #0
 80015b4:	603b      	str	r3, [r7, #0]
 80015b6:	4b3f      	ldr	r3, [pc, #252]	@ (80016b4 <MX_GPIO_Init+0x188>)
 80015b8:	6b1b      	ldr	r3, [r3, #48]	@ 0x30
 80015ba:	4a3e      	ldr	r2, [pc, #248]	@ (80016b4 <MX_GPIO_Init+0x188>)
 80015bc:	f043 0308 	orr.w	r3, r3, #8
 80015c0:	6313      	str	r3, [r2, #48]	@ 0x30
 80015c2:	4b3c      	ldr	r3, [pc, #240]	@ (80016b4 <MX_GPIO_Init+0x188>)
 80015c4:	6b1b      	ldr	r3, [r3, #48]	@ 0x30
 80015c6:	f003 0308 	and.w	r3, r3, #8
 80015ca:	603b      	str	r3, [r7, #0]
 80015cc:	683b      	ldr	r3, [r7, #0]

  /*Configure GPIO pin Output Level */
  HAL_GPIO_WritePin(GPIOC, SPI2_WP_Pin|SPI2_CS_Pin|SPI1_CS_Pin, GPIO_PIN_RESET);
 80015ce:	2200      	movs	r2, #0
 80015d0:	2113      	movs	r1, #19
 80015d2:	4839      	ldr	r0, [pc, #228]	@ (80016b8 <MX_GPIO_Init+0x18c>)
 80015d4:	f003 fc9c 	bl	8004f10 <HAL_GPIO_WritePin>

  /*Configure GPIO pin Output Level */
  HAL_GPIO_WritePin(SPI1_WP_GPIO_Port, SPI1_WP_Pin, GPIO_PIN_RESET);
 80015d8:	2200      	movs	r2, #0
 80015da:	2110      	movs	r1, #16
 80015dc:	4837      	ldr	r0, [pc, #220]	@ (80016bc <MX_GPIO_Init+0x190>)
 80015de:	f003 fc97 	bl	8004f10 <HAL_GPIO_WritePin>

  /*Configure GPIO pin Output Level */
  HAL_GPIO_WritePin(GPIOB, LED3_Pin|LED1_Pin|LED2_Pin, GPIO_PIN_RESET);
 80015e2:	2200      	movs	r2, #0
 80015e4:	f44f 41e0 	mov.w	r1, #28672	@ 0x7000
 80015e8:	4835      	ldr	r0, [pc, #212]	@ (80016c0 <MX_GPIO_Init+0x194>)
 80015ea:	f003 fc91 	bl	8004f10 <HAL_GPIO_WritePin>

  /*Configure GPIO pin : SPI2_WP_Pin */
  GPIO_InitStruct.Pin = SPI2_WP_Pin;
 80015ee:	2301      	movs	r3, #1
 80015f0:	617b      	str	r3, [r7, #20]
  GPIO_InitStruct.Mode = GPIO_MODE_OUTPUT_PP;
 80015f2:	2301      	movs	r3, #1
 80015f4:	61bb      	str	r3, [r7, #24]
  GPIO_InitStruct.Pull = GPIO_PULLUP;
 80015f6:	2301      	movs	r3, #1
 80015f8:	61fb      	str	r3, [r7, #28]
  GPIO_InitStruct.Speed = GPIO_SPEED_FREQ_LOW;
 80015fa:	2300      	movs	r3, #0
 80015fc:	623b      	str	r3, [r7, #32]
  HAL_GPIO_Init(SPI2_WP_GPIO_Port, &GPIO_InitStruct);
 80015fe:	f107 0314 	add.w	r3, r7, #20
 8001602:	4619      	mov	r1, r3
 8001604:	482c      	ldr	r0, [pc, #176]	@ (80016b8 <MX_GPIO_Init+0x18c>)
 8001606:	f003 f9b3 	bl	8004970 <HAL_GPIO_Init>

  /*Configure GPIO pins : SPI2_CS_Pin SPI1_CS_Pin */
  GPIO_InitStruct.Pin = SPI2_CS_Pin|SPI1_CS_Pin;
 800160a:	2312      	movs	r3, #18
 800160c:	617b      	str	r3, [r7, #20]
  GPIO_InitStruct.Mode = GPIO_MODE_OUTPUT_PP;
 800160e:	2301      	movs	r3, #1
 8001610:	61bb      	str	r3, [r7, #24]
  GPIO_InitStruct.Pull = GPIO_NOPULL;
 8001612:	2300      	movs	r3, #0
 8001614:	61fb      	str	r3, [r7, #28]
  GPIO_InitStruct.Speed = GPIO_SPEED_FREQ_LOW;
 8001616:	2300      	movs	r3, #0
 8001618:	623b      	str	r3, [r7, #32]
  HAL_GPIO_Init(GPIOC, &GPIO_InitStruct);
 800161a:	f107 0314 	add.w	r3, r7, #20
 800161e:	4619      	mov	r1, r3
 8001620:	4825      	ldr	r0, [pc, #148]	@ (80016b8 <MX_GPIO_Init+0x18c>)
 8001622:	f003 f9a5 	bl	8004970 <HAL_GPIO_Init>

  /*Configure GPIO pin : SPI1_WP_Pin */
  GPIO_InitStruct.Pin = SPI1_WP_Pin;
 8001626:	2310      	movs	r3, #16
 8001628:	617b      	str	r3, [r7, #20]
  GPIO_InitStruct.Mode = GPIO_MODE_OUTPUT_PP;
 800162a:	2301      	movs	r3, #1
 800162c:	61bb      	str	r3, [r7, #24]
  GPIO_InitStruct.Pull = GPIO_PULLUP;
 800162e:	2301      	movs	r3, #1
 8001630:	61fb      	str	r3, [r7, #28]
  GPIO_InitStruct.Speed = GPIO_SPEED_FREQ_LOW;
 8001632:	2300      	movs	r3, #0
 8001634:	623b      	str	r3, [r7, #32]
  HAL_GPIO_Init(SPI1_WP_GPIO_Port, &GPIO_InitStruct);
 8001636:	f107 0314 	add.w	r3, r7, #20
 800163a:	4619      	mov	r1, r3
 800163c:	481f      	ldr	r0, [pc, #124]	@ (80016bc <MX_GPIO_Init+0x190>)
 800163e:	f003 f997 	bl	8004970 <HAL_GPIO_Init>

  /*Configure GPIO pin : Flight_JMP_Pin */
  GPIO_InitStruct.Pin = Flight_JMP_Pin;
 8001642:	2302      	movs	r3, #2
 8001644:	617b      	str	r3, [r7, #20]
  GPIO_InitStruct.Mode = GPIO_MODE_IT_RISING;
 8001646:	f44f 1388 	mov.w	r3, #1114112	@ 0x110000
 800164a:	61bb      	str	r3, [r7, #24]
  GPIO_InitStruct.Pull = GPIO_NOPULL;
 800164c:	2300      	movs	r3, #0
 800164e:	61fb      	str	r3, [r7, #28]
  HAL_GPIO_Init(Flight_JMP_GPIO_Port, &GPIO_InitStruct);
 8001650:	f107 0314 	add.w	r3, r7, #20
 8001654:	4619      	mov	r1, r3
 8001656:	481a      	ldr	r0, [pc, #104]	@ (80016c0 <MX_GPIO_Init+0x194>)
 8001658:	f003 f98a 	bl	8004970 <HAL_GPIO_Init>

  /*Configure GPIO pins : LED3_Pin LED1_Pin LED2_Pin */
  GPIO_InitStruct.Pin = LED3_Pin|LED1_Pin|LED2_Pin;
 800165c:	f44f 43e0 	mov.w	r3, #28672	@ 0x7000
 8001660:	617b      	str	r3, [r7, #20]
  GPIO_InitStruct.Mode = GPIO_MODE_OUTPUT_PP;
 8001662:	2301      	movs	r3, #1
 8001664:	61bb      	str	r3, [r7, #24]
  GPIO_InitStruct.Pull = GPIO_PULLDOWN;
 8001666:	2302      	movs	r3, #2
 8001668:	61fb      	str	r3, [r7, #28]
  GPIO_InitStruct.Speed = GPIO_SPEED_FREQ_LOW;
 800166a:	2300      	movs	r3, #0
 800166c:	623b      	str	r3, [r7, #32]
  HAL_GPIO_Init(GPIOB, &GPIO_InitStruct);
 800166e:	f107 0314 	add.w	r3, r7, #20
 8001672:	4619      	mov	r1, r3
 8001674:	4812      	ldr	r0, [pc, #72]	@ (80016c0 <MX_GPIO_Init+0x194>)
 8001676:	f003 f97b 	bl	8004970 <HAL_GPIO_Init>

  /*Configure GPIO pins : PA11 PA12 */
  GPIO_InitStruct.Pin = GPIO_PIN_11|GPIO_PIN_12;
 800167a:	f44f 53c0 	mov.w	r3, #6144	@ 0x1800
 800167e:	617b      	str	r3, [r7, #20]
  GPIO_InitStruct.Mode = GPIO_MODE_AF_PP;
 8001680:	2302      	movs	r3, #2
 8001682:	61bb      	str	r3, [r7, #24]
  GPIO_InitStruct.Pull = GPIO_NOPULL;
 8001684:	2300      	movs	r3, #0
 8001686:	61fb      	str	r3, [r7, #28]
  GPIO_InitStruct.Speed = GPIO_SPEED_FREQ_VERY_HIGH;
 8001688:	2303      	movs	r3, #3
 800168a:	623b      	str	r3, [r7, #32]
  GPIO_InitStruct.Alternate = GPIO_AF9_CAN1;
 800168c:	2309      	movs	r3, #9
 800168e:	627b      	str	r3, [r7, #36]	@ 0x24
  HAL_GPIO_Init(GPIOA, &GPIO_InitStruct);
 8001690:	f107 0314 	add.w	r3, r7, #20
 8001694:	4619      	mov	r1, r3
 8001696:	4809      	ldr	r0, [pc, #36]	@ (80016bc <MX_GPIO_Init+0x190>)
 8001698:	f003 f96a 	bl	8004970 <HAL_GPIO_Init>

  /* EXTI interrupt init*/
  HAL_NVIC_SetPriority(EXTI1_IRQn, 0, 0);
 800169c:	2200      	movs	r2, #0
 800169e:	2100      	movs	r1, #0
 80016a0:	2007      	movs	r0, #7
 80016a2:	f002 fd2c 	bl	80040fe <HAL_NVIC_SetPriority>
  HAL_NVIC_EnableIRQ(EXTI1_IRQn);
 80016a6:	2007      	movs	r0, #7
 80016a8:	f002 fd45 	bl	8004136 <HAL_NVIC_EnableIRQ>

/* USER CODE BEGIN MX_GPIO_Init_2 */
/* USER CODE END MX_GPIO_Init_2 */
}
 80016ac:	bf00      	nop
 80016ae:	3728      	adds	r7, #40	@ 0x28
 80016b0:	46bd      	mov	sp, r7
 80016b2:	bd80      	pop	{r7, pc}
 80016b4:	40023800 	.word	0x40023800
 80016b8:	40020800 	.word	0x40020800
 80016bc:	40020000 	.word	0x40020000
 80016c0:	40020400 	.word	0x40020400

080016c4 <clean_data_buffer>:

/* USER CODE BEGIN 4 */
void clean_data_buffer(uint16_t array_size, uint8_t data_array[array_size]) {
 80016c4:	b480      	push	{r7}
 80016c6:	b085      	sub	sp, #20
 80016c8:	af00      	add	r7, sp, #0
 80016ca:	4603      	mov	r3, r0
 80016cc:	6039      	str	r1, [r7, #0]
 80016ce:	80fb      	strh	r3, [r7, #6]
    for (int i = 0; i < array_size; ++i) {
 80016d0:	2300      	movs	r3, #0
 80016d2:	60fb      	str	r3, [r7, #12]
 80016d4:	e007      	b.n	80016e6 <clean_data_buffer+0x22>
    	data_array[i] = 0xFF;  // Initialize each element to 0xFF
 80016d6:	68fb      	ldr	r3, [r7, #12]
 80016d8:	683a      	ldr	r2, [r7, #0]
 80016da:	4413      	add	r3, r2
 80016dc:	22ff      	movs	r2, #255	@ 0xff
 80016de:	701a      	strb	r2, [r3, #0]
    for (int i = 0; i < array_size; ++i) {
 80016e0:	68fb      	ldr	r3, [r7, #12]
 80016e2:	3301      	adds	r3, #1
 80016e4:	60fb      	str	r3, [r7, #12]
 80016e6:	88fb      	ldrh	r3, [r7, #6]
 80016e8:	68fa      	ldr	r2, [r7, #12]
 80016ea:	429a      	cmp	r2, r3
 80016ec:	dbf3      	blt.n	80016d6 <clean_data_buffer+0x12>
    }
}
 80016ee:	bf00      	nop
 80016f0:	bf00      	nop
 80016f2:	3714      	adds	r7, #20
 80016f4:	46bd      	mov	sp, r7
 80016f6:	f85d 7b04 	ldr.w	r7, [sp], #4
 80016fa:	4770      	bx	lr

080016fc <systemInit>:


void systemInit() {
 80016fc:	b580      	push	{r7, lr}
 80016fe:	b082      	sub	sp, #8
 8001700:	af00      	add	r7, sp, #0
	i2c_accel = &hi2c3;
 8001702:	4b5f      	ldr	r3, [pc, #380]	@ (8001880 <systemInit+0x184>)
 8001704:	4a5f      	ldr	r2, [pc, #380]	@ (8001884 <systemInit+0x188>)
 8001706:	601a      	str	r2, [r3, #0]
	i2c_bme280 = &hi2c1;
 8001708:	4b5f      	ldr	r3, [pc, #380]	@ (8001888 <systemInit+0x18c>)
 800170a:	4a60      	ldr	r2, [pc, #384]	@ (800188c <systemInit+0x190>)
 800170c:	601a      	str	r2, [r3, #0]

	configureCAN();
 800170e:	f000 fb9f 	bl	8001e50 <configureCAN>
	CAN_TxMailbox = 0;
 8001712:	4b5f      	ldr	r3, [pc, #380]	@ (8001890 <systemInit+0x194>)
 8001714:	2200      	movs	r2, #0
 8001716:	601a      	str	r2, [r3, #0]
	CAN_First_Msg = FLAG_RESET;
 8001718:	4b5e      	ldr	r3, [pc, #376]	@ (8001894 <systemInit+0x198>)
 800171a:	2200      	movs	r2, #0
 800171c:	701a      	strb	r2, [r3, #0]
	clean_data_buffer(8, CAN_RxData);
 800171e:	495e      	ldr	r1, [pc, #376]	@ (8001898 <systemInit+0x19c>)
 8001720:	2008      	movs	r0, #8
 8001722:	f7ff ffcf 	bl	80016c4 <clean_data_buffer>

	gpio_set_config();
 8001726:	f000 f8f3 	bl	8001910 <gpio_set_config>
	HAL_GPIO_WritePin(led_orange.GPIOx, led_orange.GPIO_Pin, GPIO_PIN_RESET);	// Turn LED off
 800172a:	4b5c      	ldr	r3, [pc, #368]	@ (800189c <systemInit+0x1a0>)
 800172c:	681b      	ldr	r3, [r3, #0]
 800172e:	4a5b      	ldr	r2, [pc, #364]	@ (800189c <systemInit+0x1a0>)
 8001730:	8891      	ldrh	r1, [r2, #4]
 8001732:	2200      	movs	r2, #0
 8001734:	4618      	mov	r0, r3
 8001736:	f003 fbeb 	bl	8004f10 <HAL_GPIO_WritePin>
	HAL_GPIO_WritePin(status_led.GPIOx, status_led.GPIO_Pin, GPIO_PIN_RESET);	// Turn LED off
 800173a:	4b59      	ldr	r3, [pc, #356]	@ (80018a0 <systemInit+0x1a4>)
 800173c:	681b      	ldr	r3, [r3, #0]
 800173e:	4a58      	ldr	r2, [pc, #352]	@ (80018a0 <systemInit+0x1a4>)
 8001740:	8891      	ldrh	r1, [r2, #4]
 8001742:	2200      	movs	r2, #0
 8001744:	4618      	mov	r0, r3
 8001746:	f003 fbe3 	bl	8004f10 <HAL_GPIO_WritePin>
	HAL_GPIO_WritePin(cs_spi1.GPIOx, cs_spi1.GPIO_Pin, GPIO_PIN_SET);		// SET SPI CS High to disable bus 1
 800174a:	4b56      	ldr	r3, [pc, #344]	@ (80018a4 <systemInit+0x1a8>)
 800174c:	681b      	ldr	r3, [r3, #0]
 800174e:	4a55      	ldr	r2, [pc, #340]	@ (80018a4 <systemInit+0x1a8>)
 8001750:	8891      	ldrh	r1, [r2, #4]
 8001752:	2201      	movs	r2, #1
 8001754:	4618      	mov	r0, r3
 8001756:	f003 fbdb 	bl	8004f10 <HAL_GPIO_WritePin>
	HAL_GPIO_WritePin(cs_spi2.GPIOx, cs_spi2.GPIO_Pin, GPIO_PIN_SET);		// SET SPI CS High to disable bus 2
 800175a:	4b53      	ldr	r3, [pc, #332]	@ (80018a8 <systemInit+0x1ac>)
 800175c:	681b      	ldr	r3, [r3, #0]
 800175e:	4a52      	ldr	r2, [pc, #328]	@ (80018a8 <systemInit+0x1ac>)
 8001760:	8891      	ldrh	r1, [r2, #4]
 8001762:	2201      	movs	r2, #1
 8001764:	4618      	mov	r0, r3
 8001766:	f003 fbd3 	bl	8004f10 <HAL_GPIO_WritePin>

	// Clean the data buffer and set all values to 0xFF
	clean_data_buffer(PAGE_SIZE, data_buffer_tx[0]);
 800176a:	4950      	ldr	r1, [pc, #320]	@ (80018ac <systemInit+0x1b0>)
 800176c:	f44f 7080 	mov.w	r0, #256	@ 0x100
 8001770:	f7ff ffa8 	bl	80016c4 <clean_data_buffer>
	clean_data_buffer(PAGE_SIZE, data_buffer_tx[1]);
 8001774:	494e      	ldr	r1, [pc, #312]	@ (80018b0 <systemInit+0x1b4>)
 8001776:	f44f 7080 	mov.w	r0, #256	@ 0x100
 800177a:	f7ff ffa3 	bl	80016c4 <clean_data_buffer>

	for (uint8_t i = 0; i < 6; i++) {
 800177e:	2300      	movs	r3, #0
 8001780:	71fb      	strb	r3, [r7, #7]
 8001782:	e00e      	b.n	80017a2 <systemInit+0xa6>
		accel_data[i] = 0x00;
 8001784:	79fb      	ldrb	r3, [r7, #7]
 8001786:	4a4b      	ldr	r2, [pc, #300]	@ (80018b4 <systemInit+0x1b8>)
 8001788:	2100      	movs	r1, #0
 800178a:	54d1      	strb	r1, [r2, r3]
		bme280_data_0[i] = 0x00;
 800178c:	79fb      	ldrb	r3, [r7, #7]
 800178e:	4a4a      	ldr	r2, [pc, #296]	@ (80018b8 <systemInit+0x1bc>)
 8001790:	2100      	movs	r1, #0
 8001792:	54d1      	strb	r1, [r2, r3]
		bme280_data_1[i] = 0x00;
 8001794:	79fb      	ldrb	r3, [r7, #7]
 8001796:	4a49      	ldr	r2, [pc, #292]	@ (80018bc <systemInit+0x1c0>)
 8001798:	2100      	movs	r1, #0
 800179a:	54d1      	strb	r1, [r2, r3]
	for (uint8_t i = 0; i < 6; i++) {
 800179c:	79fb      	ldrb	r3, [r7, #7]
 800179e:	3301      	adds	r3, #1
 80017a0:	71fb      	strb	r3, [r7, #7]
 80017a2:	79fb      	ldrb	r3, [r7, #7]
 80017a4:	2b05      	cmp	r3, #5
 80017a6:	d9ed      	bls.n	8001784 <systemInit+0x88>
	}

	// Initialise the peripherals
	init_accel(i2c_accel);
 80017a8:	4b35      	ldr	r3, [pc, #212]	@ (8001880 <systemInit+0x184>)
 80017aa:	681b      	ldr	r3, [r3, #0]
 80017ac:	4618      	mov	r0, r3
 80017ae:	f7fe fe9d 	bl	80004ec <init_accel>
	init_bme280(i2c_bme280, 0);
 80017b2:	4b35      	ldr	r3, [pc, #212]	@ (8001888 <systemInit+0x18c>)
 80017b4:	681b      	ldr	r3, [r3, #0]
 80017b6:	2100      	movs	r1, #0
 80017b8:	4618      	mov	r0, r3
 80017ba:	f7fe ff3b 	bl	8000634 <init_bme280>
	init_bme280(i2c_bme280, 1);
 80017be:	4b32      	ldr	r3, [pc, #200]	@ (8001888 <systemInit+0x18c>)
 80017c0:	681b      	ldr	r3, [r3, #0]
 80017c2:	2101      	movs	r1, #1
 80017c4:	4618      	mov	r0, r3
 80017c6:	f7fe ff35 	bl	8000634 <init_bme280>
	software_reset(&hspi1, cs_spi1);
 80017ca:	4b36      	ldr	r3, [pc, #216]	@ (80018a4 <systemInit+0x1a8>)
 80017cc:	e893 0006 	ldmia.w	r3, {r1, r2}
 80017d0:	483b      	ldr	r0, [pc, #236]	@ (80018c0 <systemInit+0x1c4>)
 80017d2:	f7ff f905 	bl	80009e0 <software_reset>
	software_reset(&hspi2, cs_spi2);
 80017d6:	4b34      	ldr	r3, [pc, #208]	@ (80018a8 <systemInit+0x1ac>)
 80017d8:	e893 0006 	ldmia.w	r3, {r1, r2}
 80017dc:	4839      	ldr	r0, [pc, #228]	@ (80018c4 <systemInit+0x1c8>)
 80017de:	f7ff f8ff 	bl	80009e0 <software_reset>

	end_of_flash = GPIO_PIN_RESET;
 80017e2:	4b39      	ldr	r3, [pc, #228]	@ (80018c8 <systemInit+0x1cc>)
 80017e4:	2200      	movs	r2, #0
 80017e6:	701a      	strb	r2, [r3, #0]

	// Assign the value of next_blank_page to the larger of next_blank_page0 and next_blank_page1
	next_blank_page = find_next_blank_page_all();
 80017e8:	f000 fb56 	bl	8001e98 <find_next_blank_page_all>
 80017ec:	4603      	mov	r3, r0
 80017ee:	4a37      	ldr	r2, [pc, #220]	@ (80018cc <systemInit+0x1d0>)
 80017f0:	6013      	str	r3, [r2, #0]

	buffer_ref = 0;
 80017f2:	4b37      	ldr	r3, [pc, #220]	@ (80018d0 <systemInit+0x1d4>)
 80017f4:	2200      	movs	r2, #0
 80017f6:	701a      	strb	r2, [r3, #0]
	byte_tracker = 0;
 80017f8:	4b36      	ldr	r3, [pc, #216]	@ (80018d4 <systemInit+0x1d8>)
 80017fa:	2200      	movs	r2, #0
 80017fc:	801a      	strh	r2, [r3, #0]
	uart2_rec_flag = FLAG_RESET;
 80017fe:	4b36      	ldr	r3, [pc, #216]	@ (80018d8 <systemInit+0x1dc>)
 8001800:	2200      	movs	r2, #0
 8001802:	701a      	strb	r2, [r3, #0]
	CAN_RX_Flag = FLAG_RESET;
 8001804:	4b35      	ldr	r3, [pc, #212]	@ (80018dc <systemInit+0x1e0>)
 8001806:	2200      	movs	r2, #0
 8001808:	701a      	strb	r2, [r3, #0]
	tim6_overflow_flag = FLAG_RESET;
 800180a:	4b35      	ldr	r3, [pc, #212]	@ (80018e0 <systemInit+0x1e4>)
 800180c:	2200      	movs	r2, #0
 800180e:	701a      	strb	r2, [r3, #0]
	tim7_overflow_flag = FLAG_RESET;
 8001810:	4b34      	ldr	r3, [pc, #208]	@ (80018e4 <systemInit+0x1e8>)
 8001812:	2200      	movs	r2, #0
 8001814:	701a      	strb	r2, [r3, #0]
	flight_state = GROUND;
 8001816:	4b34      	ldr	r3, [pc, #208]	@ (80018e8 <systemInit+0x1ec>)
 8001818:	2200      	movs	r2, #0
 800181a:	701a      	strb	r2, [r3, #0]
	rtc_reset = FLAG_RESET;
 800181c:	4b33      	ldr	r3, [pc, #204]	@ (80018ec <systemInit+0x1f0>)
 800181e:	2200      	movs	r2, #0
 8001820:	701a      	strb	r2, [r3, #0]
	i2c_offline_cnt = FLAG_RESET;
 8001822:	4b33      	ldr	r3, [pc, #204]	@ (80018f0 <systemInit+0x1f4>)
 8001824:	2200      	movs	r2, #0
 8001826:	701a      	strb	r2, [r3, #0]

	sysStatus = systemStatus(&hspi1, &hspi2, i2c_bme280, i2c_accel);
 8001828:	4b17      	ldr	r3, [pc, #92]	@ (8001888 <systemInit+0x18c>)
 800182a:	681a      	ldr	r2, [r3, #0]
 800182c:	4b14      	ldr	r3, [pc, #80]	@ (8001880 <systemInit+0x184>)
 800182e:	681b      	ldr	r3, [r3, #0]
 8001830:	4924      	ldr	r1, [pc, #144]	@ (80018c4 <systemInit+0x1c8>)
 8001832:	4823      	ldr	r0, [pc, #140]	@ (80018c0 <systemInit+0x1c4>)
 8001834:	f000 fb64 	bl	8001f00 <systemStatus>
 8001838:	4603      	mov	r3, r0
 800183a:	461a      	mov	r2, r3
 800183c:	4b2d      	ldr	r3, [pc, #180]	@ (80018f4 <systemInit+0x1f8>)
 800183e:	701a      	strb	r2, [r3, #0]

	send_uart_hex(&huart2, sysStatus);
 8001840:	4b2c      	ldr	r3, [pc, #176]	@ (80018f4 <systemInit+0x1f8>)
 8001842:	781b      	ldrb	r3, [r3, #0]
 8001844:	4619      	mov	r1, r3
 8001846:	482c      	ldr	r0, [pc, #176]	@ (80018f8 <systemInit+0x1fc>)
 8001848:	f001 fc41 	bl	80030ce <send_uart_hex>

	// Initiate clocks, interrupts, CAN and DMA
	HAL_UART_Receive_IT(&huart2, UARTRxData, 2);
 800184c:	2202      	movs	r2, #2
 800184e:	492b      	ldr	r1, [pc, #172]	@ (80018fc <systemInit+0x200>)
 8001850:	4829      	ldr	r0, [pc, #164]	@ (80018f8 <systemInit+0x1fc>)
 8001852:	f007 f8b2 	bl	80089ba <HAL_UART_Receive_IT>
	HAL_CAN_Start(&hcan2);
 8001856:	482a      	ldr	r0, [pc, #168]	@ (8001900 <systemInit+0x204>)
 8001858:	f001 feea 	bl	8003630 <HAL_CAN_Start>
	HAL_CAN_ActivateNotification(&hcan2, CAN_IT_RX_FIFO0_MSG_PENDING);
 800185c:	2102      	movs	r1, #2
 800185e:	4828      	ldr	r0, [pc, #160]	@ (8001900 <systemInit+0x204>)
 8001860:	f002 f91c 	bl	8003a9c <HAL_CAN_ActivateNotification>
	initialise_rtc_default(&hrtc);
 8001864:	4827      	ldr	r0, [pc, #156]	@ (8001904 <systemInit+0x208>)
 8001866:	f000 fe6f 	bl	8002548 <initialise_rtc_default>
	HAL_TIM_Base_Start_IT(&htim6);
 800186a:	4827      	ldr	r0, [pc, #156]	@ (8001908 <systemInit+0x20c>)
 800186c:	f006 fcfc 	bl	8008268 <HAL_TIM_Base_Start_IT>
	HAL_TIM_Base_Start_IT(&htim7);
 8001870:	4826      	ldr	r0, [pc, #152]	@ (800190c <systemInit+0x210>)
 8001872:	f006 fcf9 	bl	8008268 <HAL_TIM_Base_Start_IT>
}
 8001876:	bf00      	nop
 8001878:	3708      	adds	r7, #8
 800187a:	46bd      	mov	sp, r7
 800187c:	bd80      	pop	{r7, pc}
 800187e:	bf00      	nop
 8001880:	20000380 	.word	0x20000380
 8001884:	200000c4 	.word	0x200000c4
 8001888:	20000384 	.word	0x20000384
 800188c:	20000070 	.word	0x20000070
 8001890:	2000038c 	.word	0x2000038c
 8001894:	200003b5 	.word	0x200003b5
 8001898:	200003ac 	.word	0x200003ac
 800189c:	200005dc 	.word	0x200005dc
 80018a0:	200005ec 	.word	0x200005ec
 80018a4:	200005f4 	.word	0x200005f4
 80018a8:	20000604 	.word	0x20000604
 80018ac:	200003b8 	.word	0x200003b8
 80018b0:	200004b8 	.word	0x200004b8
 80018b4:	200005bc 	.word	0x200005bc
 80018b8:	200005c4 	.word	0x200005c4
 80018bc:	200005cc 	.word	0x200005cc
 80018c0:	20000138 	.word	0x20000138
 80018c4:	20000190 	.word	0x20000190
 80018c8:	200005da 	.word	0x200005da
 80018cc:	200005d4 	.word	0x200005d4
 80018d0:	200005d2 	.word	0x200005d2
 80018d4:	200005d8 	.word	0x200005d8
 80018d8:	2000038a 	.word	0x2000038a
 80018dc:	200003b4 	.word	0x200003b4
 80018e0:	200003b6 	.word	0x200003b6
 80018e4:	200003b7 	.word	0x200003b7
 80018e8:	2000061e 	.word	0x2000061e
 80018ec:	2000061c 	.word	0x2000061c
 80018f0:	2000061f 	.word	0x2000061f
 80018f4:	2000061d 	.word	0x2000061d
 80018f8:	20000338 	.word	0x20000338
 80018fc:	20000388 	.word	0x20000388
 8001900:	20000048 	.word	0x20000048
 8001904:	20000118 	.word	0x20000118
 8001908:	200002a8 	.word	0x200002a8
 800190c:	200002f0 	.word	0x200002f0

08001910 <gpio_set_config>:

void gpio_set_config() {
 8001910:	b590      	push	{r4, r7, lr}
 8001912:	b083      	sub	sp, #12
 8001914:	af00      	add	r7, sp, #0
	// Set LED gpio
	led_orange = create_GPIO_Config(GPIOB, GPIO_PIN_14);	// Orange LED (Heartbeat LED)
 8001916:	4c37      	ldr	r4, [pc, #220]	@ (80019f4 <gpio_set_config+0xe4>)
 8001918:	463b      	mov	r3, r7
 800191a:	f44f 4280 	mov.w	r2, #16384	@ 0x4000
 800191e:	4936      	ldr	r1, [pc, #216]	@ (80019f8 <gpio_set_config+0xe8>)
 8001920:	4618      	mov	r0, r3
 8001922:	f7ff f995 	bl	8000c50 <create_GPIO_Config>
 8001926:	4622      	mov	r2, r4
 8001928:	463b      	mov	r3, r7
 800192a:	e893 0003 	ldmia.w	r3, {r0, r1}
 800192e:	e882 0003 	stmia.w	r2, {r0, r1}
	led_green = create_GPIO_Config(GPIOB, GPIO_PIN_13);		// Green LED (Hard Drive LED)
 8001932:	4c32      	ldr	r4, [pc, #200]	@ (80019fc <gpio_set_config+0xec>)
 8001934:	463b      	mov	r3, r7
 8001936:	f44f 5200 	mov.w	r2, #8192	@ 0x2000
 800193a:	492f      	ldr	r1, [pc, #188]	@ (80019f8 <gpio_set_config+0xe8>)
 800193c:	4618      	mov	r0, r3
 800193e:	f7ff f987 	bl	8000c50 <create_GPIO_Config>
 8001942:	4622      	mov	r2, r4
 8001944:	463b      	mov	r3, r7
 8001946:	e893 0003 	ldmia.w	r3, {r0, r1}
 800194a:	e882 0003 	stmia.w	r2, {r0, r1}
	status_led = create_GPIO_Config(GPIOB, GPIO_PIN_12);	// Status LED
 800194e:	4c2c      	ldr	r4, [pc, #176]	@ (8001a00 <gpio_set_config+0xf0>)
 8001950:	463b      	mov	r3, r7
 8001952:	f44f 5280 	mov.w	r2, #4096	@ 0x1000
 8001956:	4928      	ldr	r1, [pc, #160]	@ (80019f8 <gpio_set_config+0xe8>)
 8001958:	4618      	mov	r0, r3
 800195a:	f7ff f979 	bl	8000c50 <create_GPIO_Config>
 800195e:	4622      	mov	r2, r4
 8001960:	463b      	mov	r3, r7
 8001962:	e893 0003 	ldmia.w	r3, {r0, r1}
 8001966:	e882 0003 	stmia.w	r2, {r0, r1}

	// SPI Flash 0 CS and WP
	cs_spi1 = create_GPIO_Config(GPIOC, GPIO_PIN_4);		// Change for SRAD
 800196a:	4c26      	ldr	r4, [pc, #152]	@ (8001a04 <gpio_set_config+0xf4>)
 800196c:	463b      	mov	r3, r7
 800196e:	2210      	movs	r2, #16
 8001970:	4925      	ldr	r1, [pc, #148]	@ (8001a08 <gpio_set_config+0xf8>)
 8001972:	4618      	mov	r0, r3
 8001974:	f7ff f96c 	bl	8000c50 <create_GPIO_Config>
 8001978:	4622      	mov	r2, r4
 800197a:	463b      	mov	r3, r7
 800197c:	e893 0003 	ldmia.w	r3, {r0, r1}
 8001980:	e882 0003 	stmia.w	r2, {r0, r1}
	wp_spi1 = create_GPIO_Config(GPIOA, GPIO_PIN_4);
 8001984:	4c21      	ldr	r4, [pc, #132]	@ (8001a0c <gpio_set_config+0xfc>)
 8001986:	463b      	mov	r3, r7
 8001988:	2210      	movs	r2, #16
 800198a:	4921      	ldr	r1, [pc, #132]	@ (8001a10 <gpio_set_config+0x100>)
 800198c:	4618      	mov	r0, r3
 800198e:	f7ff f95f 	bl	8000c50 <create_GPIO_Config>
 8001992:	4622      	mov	r2, r4
 8001994:	463b      	mov	r3, r7
 8001996:	e893 0003 	ldmia.w	r3, {r0, r1}
 800199a:	e882 0003 	stmia.w	r2, {r0, r1}

	// SPI Flash 1 CS and WP
	cs_spi2 = create_GPIO_Config(GPIOC, GPIO_PIN_1);		// Change for SRAD
 800199e:	4c1d      	ldr	r4, [pc, #116]	@ (8001a14 <gpio_set_config+0x104>)
 80019a0:	463b      	mov	r3, r7
 80019a2:	2202      	movs	r2, #2
 80019a4:	4918      	ldr	r1, [pc, #96]	@ (8001a08 <gpio_set_config+0xf8>)
 80019a6:	4618      	mov	r0, r3
 80019a8:	f7ff f952 	bl	8000c50 <create_GPIO_Config>
 80019ac:	4622      	mov	r2, r4
 80019ae:	463b      	mov	r3, r7
 80019b0:	e893 0003 	ldmia.w	r3, {r0, r1}
 80019b4:	e882 0003 	stmia.w	r2, {r0, r1}
	wp_spi2 = create_GPIO_Config(GPIOC, GPIO_PIN_0);
 80019b8:	4c17      	ldr	r4, [pc, #92]	@ (8001a18 <gpio_set_config+0x108>)
 80019ba:	463b      	mov	r3, r7
 80019bc:	2201      	movs	r2, #1
 80019be:	4912      	ldr	r1, [pc, #72]	@ (8001a08 <gpio_set_config+0xf8>)
 80019c0:	4618      	mov	r0, r3
 80019c2:	f7ff f945 	bl	8000c50 <create_GPIO_Config>
 80019c6:	4622      	mov	r2, r4
 80019c8:	463b      	mov	r3, r7
 80019ca:	e893 0003 	ldmia.w	r3, {r0, r1}
 80019ce:	e882 0003 	stmia.w	r2, {r0, r1}

	// Flight Jumper GPIO Input
	jmp_flight = create_GPIO_Config(GPIOB, GPIO_PIN_1);
 80019d2:	4c12      	ldr	r4, [pc, #72]	@ (8001a1c <gpio_set_config+0x10c>)
 80019d4:	463b      	mov	r3, r7
 80019d6:	2202      	movs	r2, #2
 80019d8:	4907      	ldr	r1, [pc, #28]	@ (80019f8 <gpio_set_config+0xe8>)
 80019da:	4618      	mov	r0, r3
 80019dc:	f7ff f938 	bl	8000c50 <create_GPIO_Config>
 80019e0:	4622      	mov	r2, r4
 80019e2:	463b      	mov	r3, r7
 80019e4:	e893 0003 	ldmia.w	r3, {r0, r1}
 80019e8:	e882 0003 	stmia.w	r2, {r0, r1}
}
 80019ec:	bf00      	nop
 80019ee:	370c      	adds	r7, #12
 80019f0:	46bd      	mov	sp, r7
 80019f2:	bd90      	pop	{r4, r7, pc}
 80019f4:	200005dc 	.word	0x200005dc
 80019f8:	40020400 	.word	0x40020400
 80019fc:	200005e4 	.word	0x200005e4
 8001a00:	200005ec 	.word	0x200005ec
 8001a04:	200005f4 	.word	0x200005f4
 8001a08:	40020800 	.word	0x40020800
 8001a0c:	200005fc 	.word	0x200005fc
 8001a10:	40020000 	.word	0x40020000
 8001a14:	20000604 	.word	0x20000604
 8001a18:	2000060c 	.word	0x2000060c
 8001a1c:	20000614 	.word	0x20000614

08001a20 <handleCAN>:

void handleCAN() {
 8001a20:	b580      	push	{r7, lr}
 8001a22:	b084      	sub	sp, #16
 8001a24:	af02      	add	r7, sp, #8
	// Process "clock-sync". Change flight-state to "rocket_loaded"
	if(CAN_RxHeader.StdId == CLK_SYNC_ID) {
 8001a26:	4b34      	ldr	r3, [pc, #208]	@ (8001af8 <handleCAN+0xd8>)
 8001a28:	681b      	ldr	r3, [r3, #0]
 8001a2a:	f240 72ff 	movw	r2, #2047	@ 0x7ff
 8001a2e:	4293      	cmp	r3, r2
 8001a30:	d10e      	bne.n	8001a50 <handleCAN+0x30>
		flight_state = LOADED;
 8001a32:	4b32      	ldr	r3, [pc, #200]	@ (8001afc <handleCAN+0xdc>)
 8001a34:	2201      	movs	r2, #1
 8001a36:	701a      	strb	r2, [r3, #0]
		uint8_t TxData[1] = {0x00};
 8001a38:	2300      	movs	r3, #0
 8001a3a:	713b      	strb	r3, [r7, #4]
		sendCAN_TxMessage(&hcan2, 1, TxData, &CAN_TxMailbox, CLK_SYNC_ID);
 8001a3c:	1d3a      	adds	r2, r7, #4
 8001a3e:	f240 73ff 	movw	r3, #2047	@ 0x7ff
 8001a42:	9300      	str	r3, [sp, #0]
 8001a44:	4b2e      	ldr	r3, [pc, #184]	@ (8001b00 <handleCAN+0xe0>)
 8001a46:	2101      	movs	r1, #1
 8001a48:	482e      	ldr	r0, [pc, #184]	@ (8001b04 <handleCAN+0xe4>)
 8001a4a:	f7fe ff09 	bl	8000860 <sendCAN_TxMessage>

	// Transmit "confirmation" of dummy over UART
	else if(CAN_RxHeader.StdId == DUMMY_ID) {
		send_uart_hex(&huart2, sysStatus);
	}
}
 8001a4e:	e04e      	b.n	8001aee <handleCAN+0xce>
	else if(CAN_RxHeader.StdId == TX_BME280_0) {
 8001a50:	4b29      	ldr	r3, [pc, #164]	@ (8001af8 <handleCAN+0xd8>)
 8001a52:	681b      	ldr	r3, [r3, #0]
 8001a54:	f240 5201 	movw	r2, #1281	@ 0x501
 8001a58:	4293      	cmp	r3, r2
 8001a5a:	d109      	bne.n	8001a70 <handleCAN+0x50>
		sendCAN_TxMessage(&hcan2, 6, bme280_data_0, &CAN_TxMailbox, TX_BME280_0);
 8001a5c:	f240 5301 	movw	r3, #1281	@ 0x501
 8001a60:	9300      	str	r3, [sp, #0]
 8001a62:	4b27      	ldr	r3, [pc, #156]	@ (8001b00 <handleCAN+0xe0>)
 8001a64:	4a28      	ldr	r2, [pc, #160]	@ (8001b08 <handleCAN+0xe8>)
 8001a66:	2106      	movs	r1, #6
 8001a68:	4826      	ldr	r0, [pc, #152]	@ (8001b04 <handleCAN+0xe4>)
 8001a6a:	f7fe fef9 	bl	8000860 <sendCAN_TxMessage>
}
 8001a6e:	e03e      	b.n	8001aee <handleCAN+0xce>
	else if(CAN_RxHeader.StdId == TX_BME280_1) {
 8001a70:	4b21      	ldr	r3, [pc, #132]	@ (8001af8 <handleCAN+0xd8>)
 8001a72:	681b      	ldr	r3, [r3, #0]
 8001a74:	f240 5202 	movw	r2, #1282	@ 0x502
 8001a78:	4293      	cmp	r3, r2
 8001a7a:	d109      	bne.n	8001a90 <handleCAN+0x70>
		sendCAN_TxMessage(&hcan2, 6, bme280_data_1, &CAN_TxMailbox, TX_BME280_1);
 8001a7c:	f240 5302 	movw	r3, #1282	@ 0x502
 8001a80:	9300      	str	r3, [sp, #0]
 8001a82:	4b1f      	ldr	r3, [pc, #124]	@ (8001b00 <handleCAN+0xe0>)
 8001a84:	4a21      	ldr	r2, [pc, #132]	@ (8001b0c <handleCAN+0xec>)
 8001a86:	2106      	movs	r1, #6
 8001a88:	481e      	ldr	r0, [pc, #120]	@ (8001b04 <handleCAN+0xe4>)
 8001a8a:	f7fe fee9 	bl	8000860 <sendCAN_TxMessage>
}
 8001a8e:	e02e      	b.n	8001aee <handleCAN+0xce>
	else if(CAN_RxHeader.StdId == TX_ACCEL) {
 8001a90:	4b19      	ldr	r3, [pc, #100]	@ (8001af8 <handleCAN+0xd8>)
 8001a92:	681b      	ldr	r3, [r3, #0]
 8001a94:	f240 5203 	movw	r2, #1283	@ 0x503
 8001a98:	4293      	cmp	r3, r2
 8001a9a:	d109      	bne.n	8001ab0 <handleCAN+0x90>
		sendCAN_TxMessage(&hcan2, 6, accel_data, &CAN_TxMailbox, TX_ACCEL);
 8001a9c:	f240 5303 	movw	r3, #1283	@ 0x503
 8001aa0:	9300      	str	r3, [sp, #0]
 8001aa2:	4b17      	ldr	r3, [pc, #92]	@ (8001b00 <handleCAN+0xe0>)
 8001aa4:	4a1a      	ldr	r2, [pc, #104]	@ (8001b10 <handleCAN+0xf0>)
 8001aa6:	2106      	movs	r1, #6
 8001aa8:	4816      	ldr	r0, [pc, #88]	@ (8001b04 <handleCAN+0xe4>)
 8001aaa:	f7fe fed9 	bl	8000860 <sendCAN_TxMessage>
}
 8001aae:	e01e      	b.n	8001aee <handleCAN+0xce>
	else if(CAN_RxHeader.StdId == TX_STATUS) {
 8001ab0:	4b11      	ldr	r3, [pc, #68]	@ (8001af8 <handleCAN+0xd8>)
 8001ab2:	681b      	ldr	r3, [r3, #0]
 8001ab4:	f240 5204 	movw	r2, #1284	@ 0x504
 8001ab8:	4293      	cmp	r3, r2
 8001aba:	d10d      	bne.n	8001ad8 <handleCAN+0xb8>
		uint8_t combState = combine_system_status();
 8001abc:	f000 f9a8 	bl	8001e10 <combine_system_status>
 8001ac0:	4603      	mov	r3, r0
 8001ac2:	70fb      	strb	r3, [r7, #3]
		sendCAN_TxMessage(&hcan2, 1, &combState, &CAN_TxMailbox, TX_STATUS);
 8001ac4:	1cfa      	adds	r2, r7, #3
 8001ac6:	f240 5304 	movw	r3, #1284	@ 0x504
 8001aca:	9300      	str	r3, [sp, #0]
 8001acc:	4b0c      	ldr	r3, [pc, #48]	@ (8001b00 <handleCAN+0xe0>)
 8001ace:	2101      	movs	r1, #1
 8001ad0:	480c      	ldr	r0, [pc, #48]	@ (8001b04 <handleCAN+0xe4>)
 8001ad2:	f7fe fec5 	bl	8000860 <sendCAN_TxMessage>
}
 8001ad6:	e00a      	b.n	8001aee <handleCAN+0xce>
	else if(CAN_RxHeader.StdId == DUMMY_ID) {
 8001ad8:	4b07      	ldr	r3, [pc, #28]	@ (8001af8 <handleCAN+0xd8>)
 8001ada:	681b      	ldr	r3, [r3, #0]
 8001adc:	f5b3 6fe0 	cmp.w	r3, #1792	@ 0x700
 8001ae0:	d105      	bne.n	8001aee <handleCAN+0xce>
		send_uart_hex(&huart2, sysStatus);
 8001ae2:	4b0c      	ldr	r3, [pc, #48]	@ (8001b14 <handleCAN+0xf4>)
 8001ae4:	781b      	ldrb	r3, [r3, #0]
 8001ae6:	4619      	mov	r1, r3
 8001ae8:	480b      	ldr	r0, [pc, #44]	@ (8001b18 <handleCAN+0xf8>)
 8001aea:	f001 faf0 	bl	80030ce <send_uart_hex>
}
 8001aee:	bf00      	nop
 8001af0:	3708      	adds	r7, #8
 8001af2:	46bd      	mov	sp, r7
 8001af4:	bd80      	pop	{r7, pc}
 8001af6:	bf00      	nop
 8001af8:	20000390 	.word	0x20000390
 8001afc:	2000061e 	.word	0x2000061e
 8001b00:	2000038c 	.word	0x2000038c
 8001b04:	20000048 	.word	0x20000048
 8001b08:	200005c4 	.word	0x200005c4
 8001b0c:	200005cc 	.word	0x200005cc
 8001b10:	200005bc 	.word	0x200005bc
 8001b14:	2000061d 	.word	0x2000061d
 8001b18:	20000338 	.word	0x20000338

08001b1c <handleUART>:

void handleUART() {
 8001b1c:	b590      	push	{r4, r7, lr}
 8001b1e:	b085      	sub	sp, #20
 8001b20:	af02      	add	r7, sp, #8
	UART_HandleTypeDef *huart = &huart2;
 8001b22:	4b93      	ldr	r3, [pc, #588]	@ (8001d70 <handleUART+0x254>)
 8001b24:	607b      	str	r3, [r7, #4]

	// Send Heartbeat to UART (data_rx[0] = "h")
	if (UARTRxData[0] == 0x68) {
 8001b26:	4b93      	ldr	r3, [pc, #588]	@ (8001d74 <handleUART+0x258>)
 8001b28:	781b      	ldrb	r3, [r3, #0]
 8001b2a:	2b68      	cmp	r3, #104	@ 0x68
 8001b2c:	d109      	bne.n	8001b42 <handleUART+0x26>
		heartbeatUART(huart);
 8001b2e:	6878      	ldr	r0, [r7, #4]
 8001b30:	f000 fa38 	bl	8001fa4 <heartbeatUART>
		send_uart_hex(huart, sysStatus);
 8001b34:	4b90      	ldr	r3, [pc, #576]	@ (8001d78 <handleUART+0x25c>)
 8001b36:	781b      	ldrb	r3, [r3, #0]
 8001b38:	4619      	mov	r1, r3
 8001b3a:	6878      	ldr	r0, [r7, #4]
 8001b3c:	f001 fac7 	bl	80030ce <send_uart_hex>
 8001b40:	e13c      	b.n	8001dbc <handleUART+0x2a0>
	}

/***************************** SPI Flash ************************************************/
	// Erase specified flash chip (data_rx[0]  = "e")
	else if (UARTRxData[0] == 0x65) {
 8001b42:	4b8c      	ldr	r3, [pc, #560]	@ (8001d74 <handleUART+0x258>)
 8001b44:	781b      	ldrb	r3, [r3, #0]
 8001b46:	2b65      	cmp	r3, #101	@ 0x65
 8001b48:	d132      	bne.n	8001bb0 <handleUART+0x94>
		HAL_GPIO_WritePin(led_green.GPIOx, led_green.GPIO_Pin, GPIO_PIN_SET);		// Activate the "write out" LED
 8001b4a:	4b8c      	ldr	r3, [pc, #560]	@ (8001d7c <handleUART+0x260>)
 8001b4c:	681b      	ldr	r3, [r3, #0]
 8001b4e:	4a8b      	ldr	r2, [pc, #556]	@ (8001d7c <handleUART+0x260>)
 8001b50:	8891      	ldrh	r1, [r2, #4]
 8001b52:	2201      	movs	r2, #1
 8001b54:	4618      	mov	r0, r3
 8001b56:	f003 f9db 	bl	8004f10 <HAL_GPIO_WritePin>
		if(decodeASCII(UARTRxData[1]) == 0) {
 8001b5a:	4b86      	ldr	r3, [pc, #536]	@ (8001d74 <handleUART+0x258>)
 8001b5c:	785b      	ldrb	r3, [r3, #1]
 8001b5e:	4618      	mov	r0, r3
 8001b60:	f000 f93c 	bl	8001ddc <decodeASCII>
 8001b64:	4603      	mov	r3, r0
 8001b66:	2b00      	cmp	r3, #0
 8001b68:	d106      	bne.n	8001b78 <handleUART+0x5c>
			eraseFlashSPI(&hspi1, huart, cs_spi1);
 8001b6a:	4b85      	ldr	r3, [pc, #532]	@ (8001d80 <handleUART+0x264>)
 8001b6c:	cb0c      	ldmia	r3, {r2, r3}
 8001b6e:	6879      	ldr	r1, [r7, #4]
 8001b70:	4884      	ldr	r0, [pc, #528]	@ (8001d84 <handleUART+0x268>)
 8001b72:	f000 fa23 	bl	8001fbc <eraseFlashSPI>
 8001b76:	e00d      	b.n	8001b94 <handleUART+0x78>
		} else if (decodeASCII(UARTRxData[1]) == 1) {
 8001b78:	4b7e      	ldr	r3, [pc, #504]	@ (8001d74 <handleUART+0x258>)
 8001b7a:	785b      	ldrb	r3, [r3, #1]
 8001b7c:	4618      	mov	r0, r3
 8001b7e:	f000 f92d 	bl	8001ddc <decodeASCII>
 8001b82:	4603      	mov	r3, r0
 8001b84:	2b01      	cmp	r3, #1
 8001b86:	d105      	bne.n	8001b94 <handleUART+0x78>
			eraseFlashSPI(&hspi2, huart, cs_spi2);
 8001b88:	4b7f      	ldr	r3, [pc, #508]	@ (8001d88 <handleUART+0x26c>)
 8001b8a:	cb0c      	ldmia	r3, {r2, r3}
 8001b8c:	6879      	ldr	r1, [r7, #4]
 8001b8e:	487f      	ldr	r0, [pc, #508]	@ (8001d8c <handleUART+0x270>)
 8001b90:	f000 fa14 	bl	8001fbc <eraseFlashSPI>
		}

		// Assign the value of next_blank_page to the larger of next_blank_page0 and next_blank_page1
		next_blank_page = find_next_blank_page_all();
 8001b94:	f000 f980 	bl	8001e98 <find_next_blank_page_all>
 8001b98:	4603      	mov	r3, r0
 8001b9a:	4a7d      	ldr	r2, [pc, #500]	@ (8001d90 <handleUART+0x274>)
 8001b9c:	6013      	str	r3, [r2, #0]
		HAL_GPIO_WritePin(led_green.GPIOx, led_green.GPIO_Pin,GPIO_PIN_RESET);	// Deactivate the "write out" LED
 8001b9e:	4b77      	ldr	r3, [pc, #476]	@ (8001d7c <handleUART+0x260>)
 8001ba0:	681b      	ldr	r3, [r3, #0]
 8001ba2:	4a76      	ldr	r2, [pc, #472]	@ (8001d7c <handleUART+0x260>)
 8001ba4:	8891      	ldrh	r1, [r2, #4]
 8001ba6:	2200      	movs	r2, #0
 8001ba8:	4618      	mov	r0, r3
 8001baa:	f003 f9b1 	bl	8004f10 <HAL_GPIO_WritePin>
 8001bae:	e105      	b.n	8001dbc <handleUART+0x2a0>
	}

	// Read data from specified flash chip (data_rx[0] = "r")
	else if (UARTRxData[0] == 0x72) {
 8001bb0:	4b70      	ldr	r3, [pc, #448]	@ (8001d74 <handleUART+0x258>)
 8001bb2:	781b      	ldrb	r3, [r3, #0]
 8001bb4:	2b72      	cmp	r3, #114	@ 0x72
 8001bb6:	d12d      	bne.n	8001c14 <handleUART+0xf8>
		HAL_GPIO_WritePin(led_green.GPIOx, led_green.GPIO_Pin,GPIO_PIN_SET);
 8001bb8:	4b70      	ldr	r3, [pc, #448]	@ (8001d7c <handleUART+0x260>)
 8001bba:	681b      	ldr	r3, [r3, #0]
 8001bbc:	4a6f      	ldr	r2, [pc, #444]	@ (8001d7c <handleUART+0x260>)
 8001bbe:	8891      	ldrh	r1, [r2, #4]
 8001bc0:	2201      	movs	r2, #1
 8001bc2:	4618      	mov	r0, r3
 8001bc4:	f003 f9a4 	bl	8004f10 <HAL_GPIO_WritePin>
		if(decodeASCII(UARTRxData[1]) == 0) {
 8001bc8:	4b6a      	ldr	r3, [pc, #424]	@ (8001d74 <handleUART+0x258>)
 8001bca:	785b      	ldrb	r3, [r3, #1]
 8001bcc:	4618      	mov	r0, r3
 8001bce:	f000 f905 	bl	8001ddc <decodeASCII>
 8001bd2:	4603      	mov	r3, r0
 8001bd4:	2b00      	cmp	r3, #0
 8001bd6:	d106      	bne.n	8001be6 <handleUART+0xca>
			readFlashToUART(&hspi1, huart, cs_spi1);
 8001bd8:	4b69      	ldr	r3, [pc, #420]	@ (8001d80 <handleUART+0x264>)
 8001bda:	cb0c      	ldmia	r3, {r2, r3}
 8001bdc:	6879      	ldr	r1, [r7, #4]
 8001bde:	4869      	ldr	r0, [pc, #420]	@ (8001d84 <handleUART+0x268>)
 8001be0:	f000 fa0e 	bl	8002000 <readFlashToUART>
 8001be4:	e00d      	b.n	8001c02 <handleUART+0xe6>
		} else if (decodeASCII(UARTRxData[1]) == 1) {
 8001be6:	4b63      	ldr	r3, [pc, #396]	@ (8001d74 <handleUART+0x258>)
 8001be8:	785b      	ldrb	r3, [r3, #1]
 8001bea:	4618      	mov	r0, r3
 8001bec:	f000 f8f6 	bl	8001ddc <decodeASCII>
 8001bf0:	4603      	mov	r3, r0
 8001bf2:	2b01      	cmp	r3, #1
 8001bf4:	d105      	bne.n	8001c02 <handleUART+0xe6>
			readFlashToUART(&hspi2, huart, cs_spi2);
 8001bf6:	4b64      	ldr	r3, [pc, #400]	@ (8001d88 <handleUART+0x26c>)
 8001bf8:	cb0c      	ldmia	r3, {r2, r3}
 8001bfa:	6879      	ldr	r1, [r7, #4]
 8001bfc:	4863      	ldr	r0, [pc, #396]	@ (8001d8c <handleUART+0x270>)
 8001bfe:	f000 f9ff 	bl	8002000 <readFlashToUART>
		}
		HAL_GPIO_WritePin(led_green.GPIOx, led_green.GPIO_Pin,GPIO_PIN_RESET);
 8001c02:	4b5e      	ldr	r3, [pc, #376]	@ (8001d7c <handleUART+0x260>)
 8001c04:	681b      	ldr	r3, [r3, #0]
 8001c06:	4a5d      	ldr	r2, [pc, #372]	@ (8001d7c <handleUART+0x260>)
 8001c08:	8891      	ldrh	r1, [r2, #4]
 8001c0a:	2200      	movs	r2, #0
 8001c0c:	4618      	mov	r0, r3
 8001c0e:	f003 f97f 	bl	8004f10 <HAL_GPIO_WritePin>
 8001c12:	e0d3      	b.n	8001dbc <handleUART+0x2a0>
	}

	// Read Manufacturer over SPI (data_rx[0] = "m")
	else if (UARTRxData[0] == 0x6d) {
 8001c14:	4b57      	ldr	r3, [pc, #348]	@ (8001d74 <handleUART+0x258>)
 8001c16:	781b      	ldrb	r3, [r3, #0]
 8001c18:	2b6d      	cmp	r3, #109	@ 0x6d
 8001c1a:	d11e      	bne.n	8001c5a <handleUART+0x13e>
		if(decodeASCII(UARTRxData[1]) == 0) {
 8001c1c:	4b55      	ldr	r3, [pc, #340]	@ (8001d74 <handleUART+0x258>)
 8001c1e:	785b      	ldrb	r3, [r3, #1]
 8001c20:	4618      	mov	r0, r3
 8001c22:	f000 f8db 	bl	8001ddc <decodeASCII>
 8001c26:	4603      	mov	r3, r0
 8001c28:	2b00      	cmp	r3, #0
 8001c2a:	d106      	bne.n	8001c3a <handleUART+0x11e>
			readFlashManuSPI(&hspi1, huart, cs_spi1);
 8001c2c:	4b54      	ldr	r3, [pc, #336]	@ (8001d80 <handleUART+0x264>)
 8001c2e:	cb0c      	ldmia	r3, {r2, r3}
 8001c30:	6879      	ldr	r1, [r7, #4]
 8001c32:	4854      	ldr	r0, [pc, #336]	@ (8001d84 <handleUART+0x268>)
 8001c34:	f000 fa44 	bl	80020c0 <readFlashManuSPI>
 8001c38:	e0c0      	b.n	8001dbc <handleUART+0x2a0>
		} else if (decodeASCII(UARTRxData[1]) == 1) {
 8001c3a:	4b4e      	ldr	r3, [pc, #312]	@ (8001d74 <handleUART+0x258>)
 8001c3c:	785b      	ldrb	r3, [r3, #1]
 8001c3e:	4618      	mov	r0, r3
 8001c40:	f000 f8cc 	bl	8001ddc <decodeASCII>
 8001c44:	4603      	mov	r3, r0
 8001c46:	2b01      	cmp	r3, #1
 8001c48:	f040 80b8 	bne.w	8001dbc <handleUART+0x2a0>
			readFlashManuSPI(&hspi2, huart, cs_spi2);
 8001c4c:	4b4e      	ldr	r3, [pc, #312]	@ (8001d88 <handleUART+0x26c>)
 8001c4e:	cb0c      	ldmia	r3, {r2, r3}
 8001c50:	6879      	ldr	r1, [r7, #4]
 8001c52:	484e      	ldr	r0, [pc, #312]	@ (8001d8c <handleUART+0x270>)
 8001c54:	f000 fa34 	bl	80020c0 <readFlashManuSPI>
 8001c58:	e0b0      	b.n	8001dbc <handleUART+0x2a0>
		}
	}

	// Write a page over SPI (data_rx[0] = "w")
	else if (UARTRxData[0] == 0x77) {
 8001c5a:	4b46      	ldr	r3, [pc, #280]	@ (8001d74 <handleUART+0x258>)
 8001c5c:	781b      	ldrb	r3, [r3, #0]
 8001c5e:	2b77      	cmp	r3, #119	@ 0x77
 8001c60:	d11e      	bne.n	8001ca0 <handleUART+0x184>
		if(decodeASCII(UARTRxData[1]) == 0) {
 8001c62:	4b44      	ldr	r3, [pc, #272]	@ (8001d74 <handleUART+0x258>)
 8001c64:	785b      	ldrb	r3, [r3, #1]
 8001c66:	4618      	mov	r0, r3
 8001c68:	f000 f8b8 	bl	8001ddc <decodeASCII>
 8001c6c:	4603      	mov	r3, r0
 8001c6e:	2b00      	cmp	r3, #0
 8001c70:	d106      	bne.n	8001c80 <handleUART+0x164>
			writePageSPI_W(&hspi1, huart, cs_spi1);
 8001c72:	4b43      	ldr	r3, [pc, #268]	@ (8001d80 <handleUART+0x264>)
 8001c74:	cb0c      	ldmia	r3, {r2, r3}
 8001c76:	6879      	ldr	r1, [r7, #4]
 8001c78:	4842      	ldr	r0, [pc, #264]	@ (8001d84 <handleUART+0x268>)
 8001c7a:	f000 fa41 	bl	8002100 <writePageSPI_W>
 8001c7e:	e09d      	b.n	8001dbc <handleUART+0x2a0>
		} else if (decodeASCII(UARTRxData[1]) == 1) {
 8001c80:	4b3c      	ldr	r3, [pc, #240]	@ (8001d74 <handleUART+0x258>)
 8001c82:	785b      	ldrb	r3, [r3, #1]
 8001c84:	4618      	mov	r0, r3
 8001c86:	f000 f8a9 	bl	8001ddc <decodeASCII>
 8001c8a:	4603      	mov	r3, r0
 8001c8c:	2b01      	cmp	r3, #1
 8001c8e:	f040 8095 	bne.w	8001dbc <handleUART+0x2a0>
			writePageSPI_W(&hspi2, huart, cs_spi2);
 8001c92:	4b3d      	ldr	r3, [pc, #244]	@ (8001d88 <handleUART+0x26c>)
 8001c94:	cb0c      	ldmia	r3, {r2, r3}
 8001c96:	6879      	ldr	r1, [r7, #4]
 8001c98:	483c      	ldr	r0, [pc, #240]	@ (8001d8c <handleUART+0x270>)
 8001c9a:	f000 fa31 	bl	8002100 <writePageSPI_W>
 8001c9e:	e08d      	b.n	8001dbc <handleUART+0x2a0>
		}
	}

	// Software reset flash chip over SPI (data_rx[0] = "x")
	else if (UARTRxData[0] == 0x78) {
 8001ca0:	4b34      	ldr	r3, [pc, #208]	@ (8001d74 <handleUART+0x258>)
 8001ca2:	781b      	ldrb	r3, [r3, #0]
 8001ca4:	2b78      	cmp	r3, #120	@ 0x78
 8001ca6:	d11d      	bne.n	8001ce4 <handleUART+0x1c8>
		if(decodeASCII(UARTRxData[1]) == 0) {
 8001ca8:	4b32      	ldr	r3, [pc, #200]	@ (8001d74 <handleUART+0x258>)
 8001caa:	785b      	ldrb	r3, [r3, #1]
 8001cac:	4618      	mov	r0, r3
 8001cae:	f000 f895 	bl	8001ddc <decodeASCII>
 8001cb2:	4603      	mov	r3, r0
 8001cb4:	2b00      	cmp	r3, #0
 8001cb6:	d106      	bne.n	8001cc6 <handleUART+0x1aa>
			resetSPIFlash(&hspi1, huart, cs_spi1);
 8001cb8:	4b31      	ldr	r3, [pc, #196]	@ (8001d80 <handleUART+0x264>)
 8001cba:	cb0c      	ldmia	r3, {r2, r3}
 8001cbc:	6879      	ldr	r1, [r7, #4]
 8001cbe:	4831      	ldr	r0, [pc, #196]	@ (8001d84 <handleUART+0x268>)
 8001cc0:	f000 fa72 	bl	80021a8 <resetSPIFlash>
 8001cc4:	e07a      	b.n	8001dbc <handleUART+0x2a0>
		} else if (decodeASCII(UARTRxData[1]) == 1) {
 8001cc6:	4b2b      	ldr	r3, [pc, #172]	@ (8001d74 <handleUART+0x258>)
 8001cc8:	785b      	ldrb	r3, [r3, #1]
 8001cca:	4618      	mov	r0, r3
 8001ccc:	f000 f886 	bl	8001ddc <decodeASCII>
 8001cd0:	4603      	mov	r3, r0
 8001cd2:	2b01      	cmp	r3, #1
 8001cd4:	d172      	bne.n	8001dbc <handleUART+0x2a0>
			resetSPIFlash(&hspi2, huart, cs_spi2);
 8001cd6:	4b2c      	ldr	r3, [pc, #176]	@ (8001d88 <handleUART+0x26c>)
 8001cd8:	cb0c      	ldmia	r3, {r2, r3}
 8001cda:	6879      	ldr	r1, [r7, #4]
 8001cdc:	482b      	ldr	r0, [pc, #172]	@ (8001d8c <handleUART+0x270>)
 8001cde:	f000 fa63 	bl	80021a8 <resetSPIFlash>
 8001ce2:	e06b      	b.n	8001dbc <handleUART+0x2a0>
		}
	}

/*********************************** I2C Accelerometer ***********************************/
	// Read Accelerometer WhoAmI (data_rx[0] = "c")
	else if (UARTRxData[0] == 0x63) {
 8001ce4:	4b23      	ldr	r3, [pc, #140]	@ (8001d74 <handleUART+0x258>)
 8001ce6:	781b      	ldrb	r3, [r3, #0]
 8001ce8:	2b63      	cmp	r3, #99	@ 0x63
 8001cea:	d106      	bne.n	8001cfa <handleUART+0x1de>
		checkAccelWhoAmI(i2c_accel, huart);
 8001cec:	4b29      	ldr	r3, [pc, #164]	@ (8001d94 <handleUART+0x278>)
 8001cee:	681b      	ldr	r3, [r3, #0]
 8001cf0:	6879      	ldr	r1, [r7, #4]
 8001cf2:	4618      	mov	r0, r3
 8001cf4:	f000 fa70 	bl	80021d8 <checkAccelWhoAmI>
 8001cf8:	e060      	b.n	8001dbc <handleUART+0x2a0>
	}

	// Read the accelerometer and print to the UART[0] (data_rx [0] = "a")
	else if (UARTRxData[0] == 0x61) {
 8001cfa:	4b1e      	ldr	r3, [pc, #120]	@ (8001d74 <handleUART+0x258>)
 8001cfc:	781b      	ldrb	r3, [r3, #0]
 8001cfe:	2b61      	cmp	r3, #97	@ 0x61
 8001d00:	d103      	bne.n	8001d0a <handleUART+0x1ee>
		accelToUART(huart);
 8001d02:	6878      	ldr	r0, [r7, #4]
 8001d04:	f000 fa7c 	bl	8002200 <accelToUART>
 8001d08:	e058      	b.n	8001dbc <handleUART+0x2a0>
	}

/********************************** I2C BME280 *******************************************/
	// Read the temp sensor ID and print to the UART[0] (data_rx [0]= "b")
	else if (UARTRxData[0] == 0x62) {
 8001d0a:	4b1a      	ldr	r3, [pc, #104]	@ (8001d74 <handleUART+0x258>)
 8001d0c:	781b      	ldrb	r3, [r3, #0]
 8001d0e:	2b62      	cmp	r3, #98	@ 0x62
 8001d10:	d10d      	bne.n	8001d2e <handleUART+0x212>
		readTempSensorID(i2c_bme280, huart, decodeASCII(UARTRxData[1]));
 8001d12:	4b21      	ldr	r3, [pc, #132]	@ (8001d98 <handleUART+0x27c>)
 8001d14:	681c      	ldr	r4, [r3, #0]
 8001d16:	4b17      	ldr	r3, [pc, #92]	@ (8001d74 <handleUART+0x258>)
 8001d18:	785b      	ldrb	r3, [r3, #1]
 8001d1a:	4618      	mov	r0, r3
 8001d1c:	f000 f85e 	bl	8001ddc <decodeASCII>
 8001d20:	4603      	mov	r3, r0
 8001d22:	461a      	mov	r2, r3
 8001d24:	6879      	ldr	r1, [r7, #4]
 8001d26:	4620      	mov	r0, r4
 8001d28:	f000 fa86 	bl	8002238 <readTempSensorID>
 8001d2c:	e046      	b.n	8001dbc <handleUART+0x2a0>
	}

	// Read the temp sensor calibration registers and print to the UART (data_rx[0] = "p")
	else if (UARTRxData[0] == 0x70) {
 8001d2e:	4b11      	ldr	r3, [pc, #68]	@ (8001d74 <handleUART+0x258>)
 8001d30:	781b      	ldrb	r3, [r3, #0]
 8001d32:	2b70      	cmp	r3, #112	@ 0x70
 8001d34:	d10d      	bne.n	8001d52 <handleUART+0x236>
		readTempCalibration(i2c_bme280, huart, decodeASCII(UARTRxData[1]));
 8001d36:	4b18      	ldr	r3, [pc, #96]	@ (8001d98 <handleUART+0x27c>)
 8001d38:	681c      	ldr	r4, [r3, #0]
 8001d3a:	4b0e      	ldr	r3, [pc, #56]	@ (8001d74 <handleUART+0x258>)
 8001d3c:	785b      	ldrb	r3, [r3, #1]
 8001d3e:	4618      	mov	r0, r3
 8001d40:	f000 f84c 	bl	8001ddc <decodeASCII>
 8001d44:	4603      	mov	r3, r0
 8001d46:	461a      	mov	r2, r3
 8001d48:	6879      	ldr	r1, [r7, #4]
 8001d4a:	4620      	mov	r0, r4
 8001d4c:	f000 fa89 	bl	8002262 <readTempCalibration>
 8001d50:	e034      	b.n	8001dbc <handleUART+0x2a0>
	}

	// Read the temp sensor and print to the UART[0] (data_rx [0]= "t")
	else if (UARTRxData[0] == 0x74) {
 8001d52:	4b08      	ldr	r3, [pc, #32]	@ (8001d74 <handleUART+0x258>)
 8001d54:	781b      	ldrb	r3, [r3, #0]
 8001d56:	2b74      	cmp	r3, #116	@ 0x74
 8001d58:	d120      	bne.n	8001d9c <handleUART+0x280>
		readTempSensor(huart, decodeASCII(UARTRxData[1]));
 8001d5a:	4b06      	ldr	r3, [pc, #24]	@ (8001d74 <handleUART+0x258>)
 8001d5c:	785b      	ldrb	r3, [r3, #1]
 8001d5e:	4618      	mov	r0, r3
 8001d60:	f000 f83c 	bl	8001ddc <decodeASCII>
 8001d64:	4603      	mov	r3, r0
 8001d66:	4619      	mov	r1, r3
 8001d68:	6878      	ldr	r0, [r7, #4]
 8001d6a:	f000 fad1 	bl	8002310 <readTempSensor>
 8001d6e:	e025      	b.n	8001dbc <handleUART+0x2a0>
 8001d70:	20000338 	.word	0x20000338
 8001d74:	20000388 	.word	0x20000388
 8001d78:	2000061d 	.word	0x2000061d
 8001d7c:	200005e4 	.word	0x200005e4
 8001d80:	200005f4 	.word	0x200005f4
 8001d84:	20000138 	.word	0x20000138
 8001d88:	20000604 	.word	0x20000604
 8001d8c:	20000190 	.word	0x20000190
 8001d90:	200005d4 	.word	0x200005d4
 8001d94:	20000380 	.word	0x20000380
 8001d98:	20000384 	.word	0x20000384
	}

	/********************************** CAN Bus *******************************************/
	// Send the second byte received over the CAN bus as a payload with id 0x700 (data_rx [0]= "n")
	else if (UARTRxData[0] == 0x6E) {
 8001d9c:	4b0c      	ldr	r3, [pc, #48]	@ (8001dd0 <handleUART+0x2b4>)
 8001d9e:	781b      	ldrb	r3, [r3, #0]
 8001da0:	2b6e      	cmp	r3, #110	@ 0x6e
 8001da2:	d10b      	bne.n	8001dbc <handleUART+0x2a0>
		uint8_t TxData[1] = {UARTRxData[1]};
 8001da4:	4b0a      	ldr	r3, [pc, #40]	@ (8001dd0 <handleUART+0x2b4>)
 8001da6:	785b      	ldrb	r3, [r3, #1]
 8001da8:	703b      	strb	r3, [r7, #0]
		sendCAN_TxMessage(&hcan2, 1, TxData, &CAN_TxMailbox, DUMMY_ID);
 8001daa:	463a      	mov	r2, r7
 8001dac:	f44f 63e0 	mov.w	r3, #1792	@ 0x700
 8001db0:	9300      	str	r3, [sp, #0]
 8001db2:	4b08      	ldr	r3, [pc, #32]	@ (8001dd4 <handleUART+0x2b8>)
 8001db4:	2101      	movs	r1, #1
 8001db6:	4808      	ldr	r0, [pc, #32]	@ (8001dd8 <handleUART+0x2bc>)
 8001db8:	f7fe fd52 	bl	8000860 <sendCAN_TxMessage>
	}

	UARTRxData[0] = 0x00;
 8001dbc:	4b04      	ldr	r3, [pc, #16]	@ (8001dd0 <handleUART+0x2b4>)
 8001dbe:	2200      	movs	r2, #0
 8001dc0:	701a      	strb	r2, [r3, #0]
	UARTRxData[1] = 0x00;
 8001dc2:	4b03      	ldr	r3, [pc, #12]	@ (8001dd0 <handleUART+0x2b4>)
 8001dc4:	2200      	movs	r2, #0
 8001dc6:	705a      	strb	r2, [r3, #1]
}
 8001dc8:	bf00      	nop
 8001dca:	370c      	adds	r7, #12
 8001dcc:	46bd      	mov	sp, r7
 8001dce:	bd90      	pop	{r4, r7, pc}
 8001dd0:	20000388 	.word	0x20000388
 8001dd4:	2000038c 	.word	0x2000038c
 8001dd8:	20000048 	.word	0x20000048

08001ddc <decodeASCII>:

uint8_t decodeASCII(uint8_t asciiVal) {
 8001ddc:	b480      	push	{r7}
 8001dde:	b085      	sub	sp, #20
 8001de0:	af00      	add	r7, sp, #0
 8001de2:	4603      	mov	r3, r0
 8001de4:	71fb      	strb	r3, [r7, #7]
	int returnVal = -1;
 8001de6:	f04f 33ff 	mov.w	r3, #4294967295	@ 0xffffffff
 8001dea:	60fb      	str	r3, [r7, #12]
	if ((asciiVal >= 48) && (asciiVal <= 57)) {
 8001dec:	79fb      	ldrb	r3, [r7, #7]
 8001dee:	2b2f      	cmp	r3, #47	@ 0x2f
 8001df0:	d905      	bls.n	8001dfe <decodeASCII+0x22>
 8001df2:	79fb      	ldrb	r3, [r7, #7]
 8001df4:	2b39      	cmp	r3, #57	@ 0x39
 8001df6:	d802      	bhi.n	8001dfe <decodeASCII+0x22>
		returnVal = asciiVal - 48;
 8001df8:	79fb      	ldrb	r3, [r7, #7]
 8001dfa:	3b30      	subs	r3, #48	@ 0x30
 8001dfc:	60fb      	str	r3, [r7, #12]
	}
	return returnVal;
 8001dfe:	68fb      	ldr	r3, [r7, #12]
 8001e00:	b2db      	uxtb	r3, r3
}
 8001e02:	4618      	mov	r0, r3
 8001e04:	3714      	adds	r7, #20
 8001e06:	46bd      	mov	sp, r7
 8001e08:	f85d 7b04 	ldr.w	r7, [sp], #4
 8001e0c:	4770      	bx	lr
	...

08001e10 <combine_system_status>:

uint8_t combine_system_status() {
 8001e10:	b480      	push	{r7}
 8001e12:	b083      	sub	sp, #12
 8001e14:	af00      	add	r7, sp, #0
    // Mask status to use only bits 4:0
    uint8_t masked_status = sysStatus & 0x1F; 			// 0001 1111b
 8001e16:	4b0c      	ldr	r3, [pc, #48]	@ (8001e48 <combine_system_status+0x38>)
 8001e18:	781b      	ldrb	r3, [r3, #0]
 8001e1a:	f003 031f 	and.w	r3, r3, #31
 8001e1e:	71fb      	strb	r3, [r7, #7]

    // Mask flight_state to use only bits 2:0
    uint8_t masked_flight_state = flight_state & 0x07; 	// 0000 0111b
 8001e20:	4b0a      	ldr	r3, [pc, #40]	@ (8001e4c <combine_system_status+0x3c>)
 8001e22:	781b      	ldrb	r3, [r3, #0]
 8001e24:	f003 0307 	and.w	r3, r3, #7
 8001e28:	71bb      	strb	r3, [r7, #6]
    // Shift flight_state to the correct position (bits 7:5)
    uint8_t shifted_flight_state = masked_flight_state << 5;
 8001e2a:	79bb      	ldrb	r3, [r7, #6]
 8001e2c:	015b      	lsls	r3, r3, #5
 8001e2e:	717b      	strb	r3, [r7, #5]

    // Combine the masked_status and shifted_flight_state
    uint8_t combined_value = masked_status | shifted_flight_state;
 8001e30:	79fa      	ldrb	r2, [r7, #7]
 8001e32:	797b      	ldrb	r3, [r7, #5]
 8001e34:	4313      	orrs	r3, r2
 8001e36:	713b      	strb	r3, [r7, #4]

    return combined_value;
 8001e38:	793b      	ldrb	r3, [r7, #4]
}
 8001e3a:	4618      	mov	r0, r3
 8001e3c:	370c      	adds	r7, #12
 8001e3e:	46bd      	mov	sp, r7
 8001e40:	f85d 7b04 	ldr.w	r7, [sp], #4
 8001e44:	4770      	bx	lr
 8001e46:	bf00      	nop
 8001e48:	2000061d 	.word	0x2000061d
 8001e4c:	2000061e 	.word	0x2000061e

08001e50 <configureCAN>:

void configureCAN() {
 8001e50:	b580      	push	{r7, lr}
 8001e52:	b08a      	sub	sp, #40	@ 0x28
 8001e54:	af00      	add	r7, sp, #0
	CAN_FilterTypeDef canFilterConfig;

	canFilterConfig.FilterActivation = CAN_FILTER_ENABLE;
 8001e56:	2301      	movs	r3, #1
 8001e58:	623b      	str	r3, [r7, #32]
	canFilterConfig.FilterBank = 10;
 8001e5a:	230a      	movs	r3, #10
 8001e5c:	617b      	str	r3, [r7, #20]
	canFilterConfig.FilterFIFOAssignment = CAN_RX_FIFO0;
 8001e5e:	2300      	movs	r3, #0
 8001e60:	613b      	str	r3, [r7, #16]
	canFilterConfig.FilterIdHigh = 0x500 << 5;				// Filter only messages with ID 1X1XXXXXXXXb
 8001e62:	f44f 4320 	mov.w	r3, #40960	@ 0xa000
 8001e66:	603b      	str	r3, [r7, #0]
	canFilterConfig.FilterIdLow = 0x0000;
 8001e68:	2300      	movs	r3, #0
 8001e6a:	607b      	str	r3, [r7, #4]
	canFilterConfig.FilterMaskIdHigh = 0x500 << 5;
 8001e6c:	f44f 4320 	mov.w	r3, #40960	@ 0xa000
 8001e70:	60bb      	str	r3, [r7, #8]
	canFilterConfig.FilterMaskIdLow = 0x0000;
 8001e72:	2300      	movs	r3, #0
 8001e74:	60fb      	str	r3, [r7, #12]
	canFilterConfig.FilterMode = CAN_FILTERMODE_IDMASK;
 8001e76:	2300      	movs	r3, #0
 8001e78:	61bb      	str	r3, [r7, #24]
	canFilterConfig.FilterScale = CAN_FILTERSCALE_32BIT;
 8001e7a:	2301      	movs	r3, #1
 8001e7c:	61fb      	str	r3, [r7, #28]
	canFilterConfig.SlaveStartFilterBank = 0;
 8001e7e:	2300      	movs	r3, #0
 8001e80:	627b      	str	r3, [r7, #36]	@ 0x24

	HAL_CAN_ConfigFilter(&hcan2, &canFilterConfig);
 8001e82:	463b      	mov	r3, r7
 8001e84:	4619      	mov	r1, r3
 8001e86:	4803      	ldr	r0, [pc, #12]	@ (8001e94 <configureCAN+0x44>)
 8001e88:	f001 faf2 	bl	8003470 <HAL_CAN_ConfigFilter>
}
 8001e8c:	bf00      	nop
 8001e8e:	3728      	adds	r7, #40	@ 0x28
 8001e90:	46bd      	mov	sp, r7
 8001e92:	bd80      	pop	{r7, pc}
 8001e94:	20000048 	.word	0x20000048

08001e98 <find_next_blank_page_all>:

uint32_t find_next_blank_page_all() {
 8001e98:	b580      	push	{r7, lr}
 8001e9a:	b082      	sub	sp, #8
 8001e9c:	af00      	add	r7, sp, #0
	int next_blank_page0 = find_next_blank_page(&hspi1, &end_of_flash, cs_spi1);
 8001e9e:	4b0f      	ldr	r3, [pc, #60]	@ (8001edc <find_next_blank_page_all+0x44>)
 8001ea0:	cb0c      	ldmia	r3, {r2, r3}
 8001ea2:	490f      	ldr	r1, [pc, #60]	@ (8001ee0 <find_next_blank_page_all+0x48>)
 8001ea4:	480f      	ldr	r0, [pc, #60]	@ (8001ee4 <find_next_blank_page_all+0x4c>)
 8001ea6:	f7fe fded 	bl	8000a84 <find_next_blank_page>
 8001eaa:	4603      	mov	r3, r0
 8001eac:	607b      	str	r3, [r7, #4]
	int next_blank_page1 = find_next_blank_page(&hspi2, &end_of_flash, cs_spi2);
 8001eae:	4b0e      	ldr	r3, [pc, #56]	@ (8001ee8 <find_next_blank_page_all+0x50>)
 8001eb0:	cb0c      	ldmia	r3, {r2, r3}
 8001eb2:	490b      	ldr	r1, [pc, #44]	@ (8001ee0 <find_next_blank_page_all+0x48>)
 8001eb4:	480d      	ldr	r0, [pc, #52]	@ (8001eec <find_next_blank_page_all+0x54>)
 8001eb6:	f7fe fde5 	bl	8000a84 <find_next_blank_page>
 8001eba:	4603      	mov	r3, r0
 8001ebc:	603b      	str	r3, [r7, #0]
//	int next_blank_page1= 0;
	// Assign the value of next_blank_page to the larger of next_blank_page0 and next_blank_page1
	next_blank_page = (next_blank_page0 > next_blank_page1) ? next_blank_page0 : next_blank_page1;
 8001ebe:	683a      	ldr	r2, [r7, #0]
 8001ec0:	687b      	ldr	r3, [r7, #4]
 8001ec2:	4293      	cmp	r3, r2
 8001ec4:	bfb8      	it	lt
 8001ec6:	4613      	movlt	r3, r2
 8001ec8:	461a      	mov	r2, r3
 8001eca:	4b09      	ldr	r3, [pc, #36]	@ (8001ef0 <find_next_blank_page_all+0x58>)
 8001ecc:	601a      	str	r2, [r3, #0]

	return next_blank_page;
 8001ece:	4b08      	ldr	r3, [pc, #32]	@ (8001ef0 <find_next_blank_page_all+0x58>)
 8001ed0:	681b      	ldr	r3, [r3, #0]
}
 8001ed2:	4618      	mov	r0, r3
 8001ed4:	3708      	adds	r7, #8
 8001ed6:	46bd      	mov	sp, r7
 8001ed8:	bd80      	pop	{r7, pc}
 8001eda:	bf00      	nop
 8001edc:	200005f4 	.word	0x200005f4
 8001ee0:	200005da 	.word	0x200005da
 8001ee4:	20000138 	.word	0x20000138
 8001ee8:	20000604 	.word	0x20000604
 8001eec:	20000190 	.word	0x20000190
 8001ef0:	200005d4 	.word	0x200005d4

08001ef4 <Error_Handler>:
/**
  * @brief  This function is executed in case of error occurrence.
  * @retval None
  */
void Error_Handler(void)
{
 8001ef4:	b480      	push	{r7}
 8001ef6:	af00      	add	r7, sp, #0
  \details Disables IRQ interrupts by setting special-purpose register PRIMASK.
           Can only be executed in Privileged modes.
 */
__STATIC_FORCEINLINE void __disable_irq(void)
{
  __ASM volatile ("cpsid i" : : : "memory");
 8001ef8:	b672      	cpsid	i
}
 8001efa:	bf00      	nop
  /* USER CODE BEGIN Error_Handler_Debug */
  /* User can add his own implementation to report the HAL error return state */
  __disable_irq();
  while (1)
 8001efc:	bf00      	nop
 8001efe:	e7fd      	b.n	8001efc <Error_Handler+0x8>

08001f00 <systemStatus>:

#include "peripheral_driver.h"
/***************************************************************************************************************
 * Generic Functions
 */
uint8_t systemStatus(SPI_HandleTypeDef *hspi1, SPI_HandleTypeDef *hspi2, I2C_HandleTypeDef* hi2c1, I2C_HandleTypeDef* hi2c2) {
 8001f00:	b580      	push	{r7, lr}
 8001f02:	b086      	sub	sp, #24
 8001f04:	af00      	add	r7, sp, #0
 8001f06:	60f8      	str	r0, [r7, #12]
 8001f08:	60b9      	str	r1, [r7, #8]
 8001f0a:	607a      	str	r2, [r7, #4]
 8001f0c:	603b      	str	r3, [r7, #0]
	uint8_t retVal = 0x00;
 8001f0e:	2300      	movs	r3, #0
 8001f10:	75fb      	strb	r3, [r7, #23]

	// Check BME280_1
	if(readBME280_id_reg(hi2c1, 1) != 0x60) {			// Expected 0x60
 8001f12:	2101      	movs	r1, #1
 8001f14:	6878      	ldr	r0, [r7, #4]
 8001f16:	f7fe fc33 	bl	8000780 <readBME280_id_reg>
 8001f1a:	4603      	mov	r3, r0
 8001f1c:	2b60      	cmp	r3, #96	@ 0x60
 8001f1e:	d003      	beq.n	8001f28 <systemStatus+0x28>
		retVal  = retVal | 0x10;
 8001f20:	7dfb      	ldrb	r3, [r7, #23]
 8001f22:	f043 0310 	orr.w	r3, r3, #16
 8001f26:	75fb      	strb	r3, [r7, #23]
	}

	// Check BME280_0
	if(readBME280_id_reg(hi2c1, 0) != 0x60) {			// Expected 0x60
 8001f28:	2100      	movs	r1, #0
 8001f2a:	6878      	ldr	r0, [r7, #4]
 8001f2c:	f7fe fc28 	bl	8000780 <readBME280_id_reg>
 8001f30:	4603      	mov	r3, r0
 8001f32:	2b60      	cmp	r3, #96	@ 0x60
 8001f34:	d003      	beq.n	8001f3e <systemStatus+0x3e>
		retVal  = retVal | 0x08;
 8001f36:	7dfb      	ldrb	r3, [r7, #23]
 8001f38:	f043 0308 	orr.w	r3, r3, #8
 8001f3c:	75fb      	strb	r3, [r7, #23]
	}

	// Check Accelerometer
	if(readAccel_whoami(hi2c2) != 0xE5) {				// Expected 0xE5
 8001f3e:	6838      	ldr	r0, [r7, #0]
 8001f40:	f7fe fb34 	bl	80005ac <readAccel_whoami>
 8001f44:	4603      	mov	r3, r0
 8001f46:	2be5      	cmp	r3, #229	@ 0xe5
 8001f48:	d003      	beq.n	8001f52 <systemStatus+0x52>
		retVal  = retVal | 0x04;
 8001f4a:	7dfb      	ldrb	r3, [r7, #23]
 8001f4c:	f043 0304 	orr.w	r3, r3, #4
 8001f50:	75fb      	strb	r3, [r7, #23]
	}

	// Check SPIFlash_1
	uint8_t manu[2] = {0, 0};
 8001f52:	2300      	movs	r3, #0
 8001f54:	82bb      	strh	r3, [r7, #20]
	read_manufacturer_id(manu, hspi2, cs_spi2);
 8001f56:	4b11      	ldr	r3, [pc, #68]	@ (8001f9c <systemStatus+0x9c>)
 8001f58:	f107 0014 	add.w	r0, r7, #20
 8001f5c:	cb0c      	ldmia	r3, {r2, r3}
 8001f5e:	68b9      	ldr	r1, [r7, #8]
 8001f60:	f7fe fe54 	bl	8000c0c <read_manufacturer_id>
	if(manu[0] != 0xEF) {								// Expected 0xEF
 8001f64:	7d3b      	ldrb	r3, [r7, #20]
 8001f66:	2bef      	cmp	r3, #239	@ 0xef
 8001f68:	d003      	beq.n	8001f72 <systemStatus+0x72>
		retVal  = retVal | 0x02;
 8001f6a:	7dfb      	ldrb	r3, [r7, #23]
 8001f6c:	f043 0302 	orr.w	r3, r3, #2
 8001f70:	75fb      	strb	r3, [r7, #23]
	}

	// Check SPIFlash_0
	uint8_t manu0[2] = {0, 0};
 8001f72:	2300      	movs	r3, #0
 8001f74:	823b      	strh	r3, [r7, #16]
	read_manufacturer_id(manu0, hspi1, cs_spi1);
 8001f76:	4b0a      	ldr	r3, [pc, #40]	@ (8001fa0 <systemStatus+0xa0>)
 8001f78:	f107 0010 	add.w	r0, r7, #16
 8001f7c:	cb0c      	ldmia	r3, {r2, r3}
 8001f7e:	68f9      	ldr	r1, [r7, #12]
 8001f80:	f7fe fe44 	bl	8000c0c <read_manufacturer_id>
	if(manu0[0] != 0xEF) {								// Expected 0xEF
 8001f84:	7c3b      	ldrb	r3, [r7, #16]
 8001f86:	2bef      	cmp	r3, #239	@ 0xef
 8001f88:	d003      	beq.n	8001f92 <systemStatus+0x92>
		retVal  = retVal | 0x01;
 8001f8a:	7dfb      	ldrb	r3, [r7, #23]
 8001f8c:	f043 0301 	orr.w	r3, r3, #1
 8001f90:	75fb      	strb	r3, [r7, #23]
	}
	return retVal;
 8001f92:	7dfb      	ldrb	r3, [r7, #23]
}
 8001f94:	4618      	mov	r0, r3
 8001f96:	3718      	adds	r7, #24
 8001f98:	46bd      	mov	sp, r7
 8001f9a:	bd80      	pop	{r7, pc}
 8001f9c:	20000604 	.word	0x20000604
 8001fa0:	200005f4 	.word	0x200005f4

08001fa4 <heartbeatUART>:

void heartbeatUART(UART_HandleTypeDef *huart) {
 8001fa4:	b580      	push	{r7, lr}
 8001fa6:	b082      	sub	sp, #8
 8001fa8:	af00      	add	r7, sp, #0
 8001faa:	6078      	str	r0, [r7, #4]
	send_uart_hex(huart, 0x51);			// Transmit the heartbeat as device ID (0x51 = Q)
 8001fac:	2151      	movs	r1, #81	@ 0x51
 8001fae:	6878      	ldr	r0, [r7, #4]
 8001fb0:	f001 f88d 	bl	80030ce <send_uart_hex>
}
 8001fb4:	bf00      	nop
 8001fb6:	3708      	adds	r7, #8
 8001fb8:	46bd      	mov	sp, r7
 8001fba:	bd80      	pop	{r7, pc}

08001fbc <eraseFlashSPI>:

/***************************************************************************************************************
 * SPI Flash Functions
 */
void eraseFlashSPI(SPI_HandleTypeDef *hspi, UART_HandleTypeDef *huart, GPIO_Config chip_select) {
 8001fbc:	b580      	push	{r7, lr}
 8001fbe:	b084      	sub	sp, #16
 8001fc0:	af00      	add	r7, sp, #0
 8001fc2:	60f8      	str	r0, [r7, #12]
 8001fc4:	60b9      	str	r1, [r7, #8]
 8001fc6:	4639      	mov	r1, r7
 8001fc8:	e881 000c 	stmia.w	r1, {r2, r3}
	if (erase_chip_spi(hspi, chip_select) == HAL_OK) {
 8001fcc:	463b      	mov	r3, r7
 8001fce:	e893 0006 	ldmia.w	r3, {r1, r2}
 8001fd2:	68f8      	ldr	r0, [r7, #12]
 8001fd4:	f7fe fcc8 	bl	8000968 <erase_chip_spi>
 8001fd8:	4603      	mov	r3, r0
 8001fda:	2b00      	cmp	r3, #0
 8001fdc:	d104      	bne.n	8001fe8 <eraseFlashSPI+0x2c>
		send_uart_string(huart, "Successful Chip Erase\r\n");
 8001fde:	4906      	ldr	r1, [pc, #24]	@ (8001ff8 <eraseFlashSPI+0x3c>)
 8001fe0:	68b8      	ldr	r0, [r7, #8]
 8001fe2:	f001 f860 	bl	80030a6 <send_uart_string>
	} else {
		send_uart_string(huart, "Error during chip erase. Please check the connection and try again.\r\n");
	}
}
 8001fe6:	e003      	b.n	8001ff0 <eraseFlashSPI+0x34>
		send_uart_string(huart, "Error during chip erase. Please check the connection and try again.\r\n");
 8001fe8:	4904      	ldr	r1, [pc, #16]	@ (8001ffc <eraseFlashSPI+0x40>)
 8001fea:	68b8      	ldr	r0, [r7, #8]
 8001fec:	f001 f85b 	bl	80030a6 <send_uart_string>
}
 8001ff0:	bf00      	nop
 8001ff2:	3710      	adds	r7, #16
 8001ff4:	46bd      	mov	sp, r7
 8001ff6:	bd80      	pop	{r7, pc}
 8001ff8:	08009928 	.word	0x08009928
 8001ffc:	08009940 	.word	0x08009940

08002000 <readFlashToUART>:

void readFlashToUART(SPI_HandleTypeDef *hspi, UART_HandleTypeDef *huart, GPIO_Config chip_select) {
 8002000:	b590      	push	{r4, r7, lr}
 8002002:	b0cb      	sub	sp, #300	@ 0x12c
 8002004:	af02      	add	r7, sp, #8
 8002006:	f507 7490 	add.w	r4, r7, #288	@ 0x120
 800200a:	f5a4 748a 	sub.w	r4, r4, #276	@ 0x114
 800200e:	6020      	str	r0, [r4, #0]
 8002010:	f507 7090 	add.w	r0, r7, #288	@ 0x120
 8002014:	f5a0 708c 	sub.w	r0, r0, #280	@ 0x118
 8002018:	6001      	str	r1, [r0, #0]
 800201a:	f507 7190 	add.w	r1, r7, #288	@ 0x120
 800201e:	f5a1 7190 	sub.w	r1, r1, #288	@ 0x120
 8002022:	e881 000c 	stmia.w	r1, {r2, r3}
	uint32_t num_of_pages = next_blank_page;
 8002026:	4b25      	ldr	r3, [pc, #148]	@ (80020bc <readFlashToUART+0xbc>)
 8002028:	681b      	ldr	r3, [r3, #0]
 800202a:	f8c7 311c 	str.w	r3, [r7, #284]	@ 0x11c
	if(num_of_pages == 0) {
 800202e:	f8d7 311c 	ldr.w	r3, [r7, #284]	@ 0x11c
 8002032:	2b00      	cmp	r3, #0
 8002034:	d103      	bne.n	800203e <readFlashToUART+0x3e>
		num_of_pages = PAGE_SIZE;
 8002036:	f44f 7380 	mov.w	r3, #256	@ 0x100
 800203a:	f8c7 311c 	str.w	r3, [r7, #284]	@ 0x11c
	}
	num_of_pages = num_of_pages/PAGE_SIZE;
 800203e:	f8d7 311c 	ldr.w	r3, [r7, #284]	@ 0x11c
 8002042:	0a1b      	lsrs	r3, r3, #8
 8002044:	f8c7 311c 	str.w	r3, [r7, #284]	@ 0x11c
	uint32_t address = 0;
 8002048:	2300      	movs	r3, #0
 800204a:	f8c7 3118 	str.w	r3, [r7, #280]	@ 0x118

	for (int i = 0; i < (num_of_pages); i++) {
 800204e:	2300      	movs	r3, #0
 8002050:	f8c7 3114 	str.w	r3, [r7, #276]	@ 0x114
 8002054:	e026      	b.n	80020a4 <readFlashToUART+0xa4>
		uint8_t page[PAGE_SIZE];
		read_page_spi(page, hspi, address, chip_select);
 8002056:	f507 7390 	add.w	r3, r7, #288	@ 0x120
 800205a:	f5a3 7390 	sub.w	r3, r3, #288	@ 0x120
 800205e:	f507 7290 	add.w	r2, r7, #288	@ 0x120
 8002062:	f5a2 718a 	sub.w	r1, r2, #276	@ 0x114
 8002066:	f107 0014 	add.w	r0, r7, #20
 800206a:	685a      	ldr	r2, [r3, #4]
 800206c:	9200      	str	r2, [sp, #0]
 800206e:	681b      	ldr	r3, [r3, #0]
 8002070:	f8d7 2118 	ldr.w	r2, [r7, #280]	@ 0x118
 8002074:	6809      	ldr	r1, [r1, #0]
 8002076:	f7fe fda3 	bl	8000bc0 <read_page_spi>
		uart_transmit_page(huart, page);						// Transmit the data//
 800207a:	f107 0214 	add.w	r2, r7, #20
 800207e:	f507 7390 	add.w	r3, r7, #288	@ 0x120
 8002082:	f5a3 738c 	sub.w	r3, r3, #280	@ 0x118
 8002086:	4611      	mov	r1, r2
 8002088:	6818      	ldr	r0, [r3, #0]
 800208a:	f000 fffb 	bl	8003084 <uart_transmit_page>
		address += PAGE_SIZE;
 800208e:	f8d7 3118 	ldr.w	r3, [r7, #280]	@ 0x118
 8002092:	f503 7380 	add.w	r3, r3, #256	@ 0x100
 8002096:	f8c7 3118 	str.w	r3, [r7, #280]	@ 0x118
	for (int i = 0; i < (num_of_pages); i++) {
 800209a:	f8d7 3114 	ldr.w	r3, [r7, #276]	@ 0x114
 800209e:	3301      	adds	r3, #1
 80020a0:	f8c7 3114 	str.w	r3, [r7, #276]	@ 0x114
 80020a4:	f8d7 3114 	ldr.w	r3, [r7, #276]	@ 0x114
 80020a8:	f8d7 211c 	ldr.w	r2, [r7, #284]	@ 0x11c
 80020ac:	429a      	cmp	r2, r3
 80020ae:	d8d2      	bhi.n	8002056 <readFlashToUART+0x56>
	}
}
 80020b0:	bf00      	nop
 80020b2:	bf00      	nop
 80020b4:	f507 7792 	add.w	r7, r7, #292	@ 0x124
 80020b8:	46bd      	mov	sp, r7
 80020ba:	bd90      	pop	{r4, r7, pc}
 80020bc:	200005d4 	.word	0x200005d4

080020c0 <readFlashManuSPI>:

void readFlashManuSPI(SPI_HandleTypeDef *hspi, UART_HandleTypeDef *huart, GPIO_Config config) {
 80020c0:	b580      	push	{r7, lr}
 80020c2:	b086      	sub	sp, #24
 80020c4:	af00      	add	r7, sp, #0
 80020c6:	60f8      	str	r0, [r7, #12]
 80020c8:	60b9      	str	r1, [r7, #8]
 80020ca:	4639      	mov	r1, r7
 80020cc:	e881 000c 	stmia.w	r1, {r2, r3}
	uint8_t manu[2] = {0, 0};
 80020d0:	2300      	movs	r3, #0
 80020d2:	82bb      	strh	r3, [r7, #20]
	read_manufacturer_id(manu, hspi, config);
 80020d4:	f107 0014 	add.w	r0, r7, #20
 80020d8:	463b      	mov	r3, r7
 80020da:	cb0c      	ldmia	r3, {r2, r3}
 80020dc:	68f9      	ldr	r1, [r7, #12]
 80020de:	f7fe fd95 	bl	8000c0c <read_manufacturer_id>
	send_uart_hex(huart, manu[0]);
 80020e2:	7d3b      	ldrb	r3, [r7, #20]
 80020e4:	4619      	mov	r1, r3
 80020e6:	68b8      	ldr	r0, [r7, #8]
 80020e8:	f000 fff1 	bl	80030ce <send_uart_hex>
	send_uart_hex(huart, manu[1]);
 80020ec:	7d7b      	ldrb	r3, [r7, #21]
 80020ee:	4619      	mov	r1, r3
 80020f0:	68b8      	ldr	r0, [r7, #8]
 80020f2:	f000 ffec 	bl	80030ce <send_uart_hex>
}
 80020f6:	bf00      	nop
 80020f8:	3718      	adds	r7, #24
 80020fa:	46bd      	mov	sp, r7
 80020fc:	bd80      	pop	{r7, pc}
	...

08002100 <writePageSPI_W>:

void writePageSPI_W(SPI_HandleTypeDef *hspi, UART_HandleTypeDef *huart, GPIO_Config config) {
 8002100:	b590      	push	{r4, r7, lr}
 8002102:	b0c9      	sub	sp, #292	@ 0x124
 8002104:	af02      	add	r7, sp, #8
 8002106:	f507 748c 	add.w	r4, r7, #280	@ 0x118
 800210a:	f5a4 7486 	sub.w	r4, r4, #268	@ 0x10c
 800210e:	6020      	str	r0, [r4, #0]
 8002110:	f507 708c 	add.w	r0, r7, #280	@ 0x118
 8002114:	f5a0 7088 	sub.w	r0, r0, #272	@ 0x110
 8002118:	6001      	str	r1, [r0, #0]
 800211a:	f507 718c 	add.w	r1, r7, #280	@ 0x118
 800211e:	f5a1 718c 	sub.w	r1, r1, #280	@ 0x118
 8002122:	e881 000c 	stmia.w	r1, {r2, r3}
	uint8_t data_out[PAGE_SIZE];
	for (int i = 0; i < PAGE_SIZE; i++) {
 8002126:	2300      	movs	r3, #0
 8002128:	f8c7 3114 	str.w	r3, [r7, #276]	@ 0x114
 800212c:	e00d      	b.n	800214a <writePageSPI_W+0x4a>
		data_out[i] = 0x77;		// Make all data in the page 'w'
 800212e:	f507 738c 	add.w	r3, r7, #280	@ 0x118
 8002132:	f5a3 7282 	sub.w	r2, r3, #260	@ 0x104
 8002136:	f8d7 3114 	ldr.w	r3, [r7, #276]	@ 0x114
 800213a:	4413      	add	r3, r2
 800213c:	2277      	movs	r2, #119	@ 0x77
 800213e:	701a      	strb	r2, [r3, #0]
	for (int i = 0; i < PAGE_SIZE; i++) {
 8002140:	f8d7 3114 	ldr.w	r3, [r7, #276]	@ 0x114
 8002144:	3301      	adds	r3, #1
 8002146:	f8c7 3114 	str.w	r3, [r7, #276]	@ 0x114
 800214a:	f8d7 3114 	ldr.w	r3, [r7, #276]	@ 0x114
 800214e:	2bff      	cmp	r3, #255	@ 0xff
 8002150:	dded      	ble.n	800212e <writePageSPI_W+0x2e>
	}
	write_data_spi_dma(data_out, hspi, next_blank_page, config);
 8002152:	4b13      	ldr	r3, [pc, #76]	@ (80021a0 <writePageSPI_W+0xa0>)
 8002154:	681c      	ldr	r4, [r3, #0]
 8002156:	f507 738c 	add.w	r3, r7, #280	@ 0x118
 800215a:	f5a3 738c 	sub.w	r3, r3, #280	@ 0x118
 800215e:	f507 728c 	add.w	r2, r7, #280	@ 0x118
 8002162:	f5a2 7186 	sub.w	r1, r2, #268	@ 0x10c
 8002166:	f107 0014 	add.w	r0, r7, #20
 800216a:	685a      	ldr	r2, [r3, #4]
 800216c:	9200      	str	r2, [sp, #0]
 800216e:	681b      	ldr	r3, [r3, #0]
 8002170:	4622      	mov	r2, r4
 8002172:	6809      	ldr	r1, [r1, #0]
 8002174:	f7fe fc58 	bl	8000a28 <write_data_spi_dma>
	next_blank_page += PAGE_SIZE;
 8002178:	4b09      	ldr	r3, [pc, #36]	@ (80021a0 <writePageSPI_W+0xa0>)
 800217a:	681b      	ldr	r3, [r3, #0]
 800217c:	f503 7380 	add.w	r3, r3, #256	@ 0x100
 8002180:	4a07      	ldr	r2, [pc, #28]	@ (80021a0 <writePageSPI_W+0xa0>)
 8002182:	6013      	str	r3, [r2, #0]

	send_uart_string(huart, "Successful Page Written\r\n");
 8002184:	f507 738c 	add.w	r3, r7, #280	@ 0x118
 8002188:	f5a3 7388 	sub.w	r3, r3, #272	@ 0x110
 800218c:	4905      	ldr	r1, [pc, #20]	@ (80021a4 <writePageSPI_W+0xa4>)
 800218e:	6818      	ldr	r0, [r3, #0]
 8002190:	f000 ff89 	bl	80030a6 <send_uart_string>
}
 8002194:	bf00      	nop
 8002196:	f507 778e 	add.w	r7, r7, #284	@ 0x11c
 800219a:	46bd      	mov	sp, r7
 800219c:	bd90      	pop	{r4, r7, pc}
 800219e:	bf00      	nop
 80021a0:	200005d4 	.word	0x200005d4
 80021a4:	08009988 	.word	0x08009988

080021a8 <resetSPIFlash>:

void resetSPIFlash(SPI_HandleTypeDef *hspi, UART_HandleTypeDef *huart, GPIO_Config config) {
 80021a8:	b580      	push	{r7, lr}
 80021aa:	b084      	sub	sp, #16
 80021ac:	af00      	add	r7, sp, #0
 80021ae:	60f8      	str	r0, [r7, #12]
 80021b0:	60b9      	str	r1, [r7, #8]
 80021b2:	4639      	mov	r1, r7
 80021b4:	e881 000c 	stmia.w	r1, {r2, r3}
	software_reset(hspi, config);
 80021b8:	463b      	mov	r3, r7
 80021ba:	e893 0006 	ldmia.w	r3, {r1, r2}
 80021be:	68f8      	ldr	r0, [r7, #12]
 80021c0:	f7fe fc0e 	bl	80009e0 <software_reset>
	send_uart_string(huart, "Flash Chip Reset\r\n");
 80021c4:	4903      	ldr	r1, [pc, #12]	@ (80021d4 <resetSPIFlash+0x2c>)
 80021c6:	68b8      	ldr	r0, [r7, #8]
 80021c8:	f000 ff6d 	bl	80030a6 <send_uart_string>
}
 80021cc:	bf00      	nop
 80021ce:	3710      	adds	r7, #16
 80021d0:	46bd      	mov	sp, r7
 80021d2:	bd80      	pop	{r7, pc}
 80021d4:	080099a4 	.word	0x080099a4

080021d8 <checkAccelWhoAmI>:
/***************************************************************************************************************
 * I2C Accelerometer Functions
 */
void checkAccelWhoAmI(I2C_HandleTypeDef* hi2c, UART_HandleTypeDef *huart) {
 80021d8:	b580      	push	{r7, lr}
 80021da:	b084      	sub	sp, #16
 80021dc:	af00      	add	r7, sp, #0
 80021de:	6078      	str	r0, [r7, #4]
 80021e0:	6039      	str	r1, [r7, #0]
	uint8_t whoami = readAccel_whoami(hi2c);
 80021e2:	6878      	ldr	r0, [r7, #4]
 80021e4:	f7fe f9e2 	bl	80005ac <readAccel_whoami>
 80021e8:	4603      	mov	r3, r0
 80021ea:	73fb      	strb	r3, [r7, #15]
	send_uart_hex(huart, whoami);
 80021ec:	7bfb      	ldrb	r3, [r7, #15]
 80021ee:	4619      	mov	r1, r3
 80021f0:	6838      	ldr	r0, [r7, #0]
 80021f2:	f000 ff6c 	bl	80030ce <send_uart_hex>
}
 80021f6:	bf00      	nop
 80021f8:	3710      	adds	r7, #16
 80021fa:	46bd      	mov	sp, r7
 80021fc:	bd80      	pop	{r7, pc}
	...

08002200 <accelToUART>:

void accelToUART(UART_HandleTypeDef *huart) {
 8002200:	b580      	push	{r7, lr}
 8002202:	b084      	sub	sp, #16
 8002204:	af00      	add	r7, sp, #0
 8002206:	6078      	str	r0, [r7, #4]
	for (int i = 0; i < 6; i++) {
 8002208:	2300      	movs	r3, #0
 800220a:	60fb      	str	r3, [r7, #12]
 800220c:	e00a      	b.n	8002224 <accelToUART+0x24>
		send_uart_hex(huart, accel_data[i]);
 800220e:	4a09      	ldr	r2, [pc, #36]	@ (8002234 <accelToUART+0x34>)
 8002210:	68fb      	ldr	r3, [r7, #12]
 8002212:	4413      	add	r3, r2
 8002214:	781b      	ldrb	r3, [r3, #0]
 8002216:	4619      	mov	r1, r3
 8002218:	6878      	ldr	r0, [r7, #4]
 800221a:	f000 ff58 	bl	80030ce <send_uart_hex>
	for (int i = 0; i < 6; i++) {
 800221e:	68fb      	ldr	r3, [r7, #12]
 8002220:	3301      	adds	r3, #1
 8002222:	60fb      	str	r3, [r7, #12]
 8002224:	68fb      	ldr	r3, [r7, #12]
 8002226:	2b05      	cmp	r3, #5
 8002228:	ddf1      	ble.n	800220e <accelToUART+0xe>
	}
}
 800222a:	bf00      	nop
 800222c:	bf00      	nop
 800222e:	3710      	adds	r7, #16
 8002230:	46bd      	mov	sp, r7
 8002232:	bd80      	pop	{r7, pc}
 8002234:	200005bc 	.word	0x200005bc

08002238 <readTempSensorID>:

/***************************************************************************************************************
 * I2C BME280 Sensor Functions
 */
void readTempSensorID(I2C_HandleTypeDef* hi2c, UART_HandleTypeDef *huart, uint8_t tempNo) {
 8002238:	b580      	push	{r7, lr}
 800223a:	b084      	sub	sp, #16
 800223c:	af00      	add	r7, sp, #0
 800223e:	60f8      	str	r0, [r7, #12]
 8002240:	60b9      	str	r1, [r7, #8]
 8002242:	4613      	mov	r3, r2
 8002244:	71fb      	strb	r3, [r7, #7]
	send_uart_hex(huart, readBME280_id_reg(hi2c, tempNo));
 8002246:	79fb      	ldrb	r3, [r7, #7]
 8002248:	4619      	mov	r1, r3
 800224a:	68f8      	ldr	r0, [r7, #12]
 800224c:	f7fe fa98 	bl	8000780 <readBME280_id_reg>
 8002250:	4603      	mov	r3, r0
 8002252:	4619      	mov	r1, r3
 8002254:	68b8      	ldr	r0, [r7, #8]
 8002256:	f000 ff3a 	bl	80030ce <send_uart_hex>
}
 800225a:	bf00      	nop
 800225c:	3710      	adds	r7, #16
 800225e:	46bd      	mov	sp, r7
 8002260:	bd80      	pop	{r7, pc}

08002262 <readTempCalibration>:

void readTempCalibration(I2C_HandleTypeDef* hi2c, UART_HandleTypeDef *huart, uint8_t tempNo) {
 8002262:	b580      	push	{r7, lr}
 8002264:	b090      	sub	sp, #64	@ 0x40
 8002266:	af00      	add	r7, sp, #0
 8002268:	60f8      	str	r0, [r7, #12]
 800226a:	60b9      	str	r1, [r7, #8]
 800226c:	4613      	mov	r3, r2
 800226e:	71fb      	strb	r3, [r7, #7]
	uint8_t calibration1[25];
	uint8_t calibration2[7];

	for (uint8_t i = 0; i < CALIB_CNT_1; i++) {
 8002270:	2300      	movs	r3, #0
 8002272:	f887 303f 	strb.w	r3, [r7, #63]	@ 0x3f
 8002276:	e016      	b.n	80022a6 <readTempCalibration+0x44>
		calibration1[i] = 0x00;
 8002278:	f897 303f 	ldrb.w	r3, [r7, #63]	@ 0x3f
 800227c:	3340      	adds	r3, #64	@ 0x40
 800227e:	443b      	add	r3, r7
 8002280:	2200      	movs	r2, #0
 8002282:	f803 2c28 	strb.w	r2, [r3, #-40]
		if (i < CALIB_CNT_2) {
 8002286:	f897 303f 	ldrb.w	r3, [r7, #63]	@ 0x3f
 800228a:	2b06      	cmp	r3, #6
 800228c:	d806      	bhi.n	800229c <readTempCalibration+0x3a>
			calibration2[i] = 0x00;
 800228e:	f897 303f 	ldrb.w	r3, [r7, #63]	@ 0x3f
 8002292:	3340      	adds	r3, #64	@ 0x40
 8002294:	443b      	add	r3, r7
 8002296:	2200      	movs	r2, #0
 8002298:	f803 2c30 	strb.w	r2, [r3, #-48]
	for (uint8_t i = 0; i < CALIB_CNT_1; i++) {
 800229c:	f897 303f 	ldrb.w	r3, [r7, #63]	@ 0x3f
 80022a0:	3301      	adds	r3, #1
 80022a2:	f887 303f 	strb.w	r3, [r7, #63]	@ 0x3f
 80022a6:	f897 303f 	ldrb.w	r3, [r7, #63]	@ 0x3f
 80022aa:	2b18      	cmp	r3, #24
 80022ac:	d9e4      	bls.n	8002278 <readTempCalibration+0x16>
		}
	}

	readBME280_calib(hi2c, tempNo, calibration1, calibration2);
 80022ae:	f107 0310 	add.w	r3, r7, #16
 80022b2:	f107 0218 	add.w	r2, r7, #24
 80022b6:	79f9      	ldrb	r1, [r7, #7]
 80022b8:	68f8      	ldr	r0, [r7, #12]
 80022ba:	f7fe fa7d 	bl	80007b8 <readBME280_calib>

	for (int i = 0; i < 25; i++) {
 80022be:	2300      	movs	r3, #0
 80022c0:	63bb      	str	r3, [r7, #56]	@ 0x38
 80022c2:	e00b      	b.n	80022dc <readTempCalibration+0x7a>
	  send_uart_hex(huart, calibration1[i]);
 80022c4:	f107 0218 	add.w	r2, r7, #24
 80022c8:	6bbb      	ldr	r3, [r7, #56]	@ 0x38
 80022ca:	4413      	add	r3, r2
 80022cc:	781b      	ldrb	r3, [r3, #0]
 80022ce:	4619      	mov	r1, r3
 80022d0:	68b8      	ldr	r0, [r7, #8]
 80022d2:	f000 fefc 	bl	80030ce <send_uart_hex>
	for (int i = 0; i < 25; i++) {
 80022d6:	6bbb      	ldr	r3, [r7, #56]	@ 0x38
 80022d8:	3301      	adds	r3, #1
 80022da:	63bb      	str	r3, [r7, #56]	@ 0x38
 80022dc:	6bbb      	ldr	r3, [r7, #56]	@ 0x38
 80022de:	2b18      	cmp	r3, #24
 80022e0:	ddf0      	ble.n	80022c4 <readTempCalibration+0x62>
	}

	for (int i = 0; i < 7; i++) {
 80022e2:	2300      	movs	r3, #0
 80022e4:	637b      	str	r3, [r7, #52]	@ 0x34
 80022e6:	e00b      	b.n	8002300 <readTempCalibration+0x9e>
	  send_uart_hex(huart, calibration2[i]);
 80022e8:	f107 0210 	add.w	r2, r7, #16
 80022ec:	6b7b      	ldr	r3, [r7, #52]	@ 0x34
 80022ee:	4413      	add	r3, r2
 80022f0:	781b      	ldrb	r3, [r3, #0]
 80022f2:	4619      	mov	r1, r3
 80022f4:	68b8      	ldr	r0, [r7, #8]
 80022f6:	f000 feea 	bl	80030ce <send_uart_hex>
	for (int i = 0; i < 7; i++) {
 80022fa:	6b7b      	ldr	r3, [r7, #52]	@ 0x34
 80022fc:	3301      	adds	r3, #1
 80022fe:	637b      	str	r3, [r7, #52]	@ 0x34
 8002300:	6b7b      	ldr	r3, [r7, #52]	@ 0x34
 8002302:	2b06      	cmp	r3, #6
 8002304:	ddf0      	ble.n	80022e8 <readTempCalibration+0x86>
	}
}
 8002306:	bf00      	nop
 8002308:	bf00      	nop
 800230a:	3740      	adds	r7, #64	@ 0x40
 800230c:	46bd      	mov	sp, r7
 800230e:	bd80      	pop	{r7, pc}

08002310 <readTempSensor>:

void readTempSensor(UART_HandleTypeDef *huart, uint8_t tempNo) {
 8002310:	b580      	push	{r7, lr}
 8002312:	b084      	sub	sp, #16
 8002314:	af00      	add	r7, sp, #0
 8002316:	6078      	str	r0, [r7, #4]
 8002318:	460b      	mov	r3, r1
 800231a:	70fb      	strb	r3, [r7, #3]
	if (tempNo == 0) {
 800231c:	78fb      	ldrb	r3, [r7, #3]
 800231e:	2b00      	cmp	r3, #0
 8002320:	d111      	bne.n	8002346 <readTempSensor+0x36>
		for (int i = 0; i < 6; i++) {
 8002322:	2300      	movs	r3, #0
 8002324:	60fb      	str	r3, [r7, #12]
 8002326:	e00a      	b.n	800233e <readTempSensor+0x2e>
			send_uart_hex(huart, bme280_data_0[i]);
 8002328:	4a13      	ldr	r2, [pc, #76]	@ (8002378 <readTempSensor+0x68>)
 800232a:	68fb      	ldr	r3, [r7, #12]
 800232c:	4413      	add	r3, r2
 800232e:	781b      	ldrb	r3, [r3, #0]
 8002330:	4619      	mov	r1, r3
 8002332:	6878      	ldr	r0, [r7, #4]
 8002334:	f000 fecb 	bl	80030ce <send_uart_hex>
		for (int i = 0; i < 6; i++) {
 8002338:	68fb      	ldr	r3, [r7, #12]
 800233a:	3301      	adds	r3, #1
 800233c:	60fb      	str	r3, [r7, #12]
 800233e:	68fb      	ldr	r3, [r7, #12]
 8002340:	2b05      	cmp	r3, #5
 8002342:	ddf1      	ble.n	8002328 <readTempSensor+0x18>
	} else if (tempNo == 1) {
		for (int i = 0; i < 6; i++) {
			send_uart_hex(huart, bme280_data_1[i]);
		}
	}
}
 8002344:	e013      	b.n	800236e <readTempSensor+0x5e>
	} else if (tempNo == 1) {
 8002346:	78fb      	ldrb	r3, [r7, #3]
 8002348:	2b01      	cmp	r3, #1
 800234a:	d110      	bne.n	800236e <readTempSensor+0x5e>
		for (int i = 0; i < 6; i++) {
 800234c:	2300      	movs	r3, #0
 800234e:	60bb      	str	r3, [r7, #8]
 8002350:	e00a      	b.n	8002368 <readTempSensor+0x58>
			send_uart_hex(huart, bme280_data_1[i]);
 8002352:	4a0a      	ldr	r2, [pc, #40]	@ (800237c <readTempSensor+0x6c>)
 8002354:	68bb      	ldr	r3, [r7, #8]
 8002356:	4413      	add	r3, r2
 8002358:	781b      	ldrb	r3, [r3, #0]
 800235a:	4619      	mov	r1, r3
 800235c:	6878      	ldr	r0, [r7, #4]
 800235e:	f000 feb6 	bl	80030ce <send_uart_hex>
		for (int i = 0; i < 6; i++) {
 8002362:	68bb      	ldr	r3, [r7, #8]
 8002364:	3301      	adds	r3, #1
 8002366:	60bb      	str	r3, [r7, #8]
 8002368:	68bb      	ldr	r3, [r7, #8]
 800236a:	2b05      	cmp	r3, #5
 800236c:	ddf1      	ble.n	8002352 <readTempSensor+0x42>
}
 800236e:	bf00      	nop
 8002370:	3710      	adds	r7, #16
 8002372:	46bd      	mov	sp, r7
 8002374:	bd80      	pop	{r7, pc}
 8002376:	bf00      	nop
 8002378:	200005c4 	.word	0x200005c4
 800237c:	200005cc 	.word	0x200005cc

08002380 <readAllSensors>:

/***************************************************************************************************************
 * Process All Sensors
 */
void readAllSensors(I2C_HandleTypeDef* hi2c_accel, I2C_HandleTypeDef* hi2c_temp, RTC_HandleTypeDef* hrtc) {
 8002380:	b5b0      	push	{r4, r5, r7, lr}
 8002382:	b08a      	sub	sp, #40	@ 0x28
 8002384:	af00      	add	r7, sp, #0
 8002386:	60f8      	str	r0, [r7, #12]
 8002388:	60b9      	str	r1, [r7, #8]
 800238a:	607a      	str	r2, [r7, #4]
	// Read Accelerometer Data
	readAccelerometer(accel_data, hi2c_accel);
 800238c:	68f9      	ldr	r1, [r7, #12]
 800238e:	4868      	ldr	r0, [pc, #416]	@ (8002530 <readAllSensors+0x1b0>)
 8002390:	f7fe f8e6 	bl	8000560 <readAccelerometer>

	// Read BME280 Data
	readTempHumPres(bme280_data_0, hi2c_temp, 0);
 8002394:	2200      	movs	r2, #0
 8002396:	68b9      	ldr	r1, [r7, #8]
 8002398:	4866      	ldr	r0, [pc, #408]	@ (8002534 <readAllSensors+0x1b4>)
 800239a:	f7fe f997 	bl	80006cc <readTempHumPres>
	readTempHumPres(bme280_data_1, hi2c_temp, 1);
 800239e:	2201      	movs	r2, #1
 80023a0:	68b9      	ldr	r1, [r7, #8]
 80023a2:	4865      	ldr	r0, [pc, #404]	@ (8002538 <readAllSensors+0x1b8>)
 80023a4:	f7fe f992 	bl	80006cc <readTempHumPres>

	uint16_t time = getTimestampMilliseconds(hrtc);
 80023a8:	6878      	ldr	r0, [r7, #4]
 80023aa:	f000 f903 	bl	80025b4 <getTimestampMilliseconds>
 80023ae:	4603      	mov	r3, r0
 80023b0:	82fb      	strh	r3, [r7, #22]
	uint8_t array_ptr = 0;
 80023b2:	2300      	movs	r3, #0
 80023b4:	f887 3027 	strb.w	r3, [r7, #39]	@ 0x27

	// Store the new read in the buffer if there is space
	if (byte_tracker < (PAGE_SIZE - READ_SIZE)) {
 80023b8:	4b60      	ldr	r3, [pc, #384]	@ (800253c <readAllSensors+0x1bc>)
 80023ba:	881b      	ldrh	r3, [r3, #0]
 80023bc:	2bea      	cmp	r3, #234	@ 0xea
 80023be:	f200 80b2 	bhi.w	8002526 <readAllSensors+0x1a6>
		// Store the timestamp in the buffer (Little Endian)
		data_buffer_tx[buffer_tracker][byte_tracker + array_ptr] = (uint8_t) (time & 0xFF); 		// Least significant byte (LSB)
 80023c2:	4b5f      	ldr	r3, [pc, #380]	@ (8002540 <readAllSensors+0x1c0>)
 80023c4:	781b      	ldrb	r3, [r3, #0]
 80023c6:	461a      	mov	r2, r3
 80023c8:	4b5c      	ldr	r3, [pc, #368]	@ (800253c <readAllSensors+0x1bc>)
 80023ca:	881b      	ldrh	r3, [r3, #0]
 80023cc:	4619      	mov	r1, r3
 80023ce:	f897 3027 	ldrb.w	r3, [r7, #39]	@ 0x27
 80023d2:	440b      	add	r3, r1
 80023d4:	8af9      	ldrh	r1, [r7, #22]
 80023d6:	b2c8      	uxtb	r0, r1
 80023d8:	495a      	ldr	r1, [pc, #360]	@ (8002544 <readAllSensors+0x1c4>)
 80023da:	0212      	lsls	r2, r2, #8
 80023dc:	440a      	add	r2, r1
 80023de:	4413      	add	r3, r2
 80023e0:	4602      	mov	r2, r0
 80023e2:	701a      	strb	r2, [r3, #0]
		array_ptr += 1;
 80023e4:	f897 3027 	ldrb.w	r3, [r7, #39]	@ 0x27
 80023e8:	3301      	adds	r3, #1
 80023ea:	f887 3027 	strb.w	r3, [r7, #39]	@ 0x27
		data_buffer_tx[buffer_tracker][byte_tracker + array_ptr] = (uint8_t) ((time >> 8) & 0xFF); // Most significant byte (MSB)
 80023ee:	8afb      	ldrh	r3, [r7, #22]
 80023f0:	0a1b      	lsrs	r3, r3, #8
 80023f2:	b299      	uxth	r1, r3
 80023f4:	4b52      	ldr	r3, [pc, #328]	@ (8002540 <readAllSensors+0x1c0>)
 80023f6:	781b      	ldrb	r3, [r3, #0]
 80023f8:	461a      	mov	r2, r3
 80023fa:	4b50      	ldr	r3, [pc, #320]	@ (800253c <readAllSensors+0x1bc>)
 80023fc:	881b      	ldrh	r3, [r3, #0]
 80023fe:	4618      	mov	r0, r3
 8002400:	f897 3027 	ldrb.w	r3, [r7, #39]	@ 0x27
 8002404:	4403      	add	r3, r0
 8002406:	b2c8      	uxtb	r0, r1
 8002408:	494e      	ldr	r1, [pc, #312]	@ (8002544 <readAllSensors+0x1c4>)
 800240a:	0212      	lsls	r2, r2, #8
 800240c:	440a      	add	r2, r1
 800240e:	4413      	add	r3, r2
 8002410:	4602      	mov	r2, r0
 8002412:	701a      	strb	r2, [r3, #0]
		array_ptr += 1;
 8002414:	f897 3027 	ldrb.w	r3, [r7, #39]	@ 0x27
 8002418:	3301      	adds	r3, #1
 800241a:	f887 3027 	strb.w	r3, [r7, #39]	@ 0x27

		// Store the accelerometer data
		for (int i = 0; i < 6; i++) {
 800241e:	2300      	movs	r3, #0
 8002420:	623b      	str	r3, [r7, #32]
 8002422:	e01a      	b.n	800245a <readAllSensors+0xda>
		  data_buffer_tx[buffer_tracker][byte_tracker + array_ptr] = accel_data[i];
 8002424:	4b46      	ldr	r3, [pc, #280]	@ (8002540 <readAllSensors+0x1c0>)
 8002426:	781b      	ldrb	r3, [r3, #0]
 8002428:	461c      	mov	r4, r3
 800242a:	4b44      	ldr	r3, [pc, #272]	@ (800253c <readAllSensors+0x1bc>)
 800242c:	881b      	ldrh	r3, [r3, #0]
 800242e:	461a      	mov	r2, r3
 8002430:	f897 3027 	ldrb.w	r3, [r7, #39]	@ 0x27
 8002434:	4413      	add	r3, r2
 8002436:	493e      	ldr	r1, [pc, #248]	@ (8002530 <readAllSensors+0x1b0>)
 8002438:	6a3a      	ldr	r2, [r7, #32]
 800243a:	440a      	add	r2, r1
 800243c:	7810      	ldrb	r0, [r2, #0]
 800243e:	4941      	ldr	r1, [pc, #260]	@ (8002544 <readAllSensors+0x1c4>)
 8002440:	0222      	lsls	r2, r4, #8
 8002442:	440a      	add	r2, r1
 8002444:	4413      	add	r3, r2
 8002446:	4602      	mov	r2, r0
 8002448:	701a      	strb	r2, [r3, #0]
		  array_ptr += 1;
 800244a:	f897 3027 	ldrb.w	r3, [r7, #39]	@ 0x27
 800244e:	3301      	adds	r3, #1
 8002450:	f887 3027 	strb.w	r3, [r7, #39]	@ 0x27
		for (int i = 0; i < 6; i++) {
 8002454:	6a3b      	ldr	r3, [r7, #32]
 8002456:	3301      	adds	r3, #1
 8002458:	623b      	str	r3, [r7, #32]
 800245a:	6a3b      	ldr	r3, [r7, #32]
 800245c:	2b05      	cmp	r3, #5
 800245e:	dde1      	ble.n	8002424 <readAllSensors+0xa4>
		}

		// Store the BME280_0 Data
		for (int i = 0; i < 6; i++) {
 8002460:	2300      	movs	r3, #0
 8002462:	61fb      	str	r3, [r7, #28]
 8002464:	e01a      	b.n	800249c <readAllSensors+0x11c>
		  data_buffer_tx[buffer_tracker][byte_tracker + array_ptr] = bme280_data_0[i];
 8002466:	4b36      	ldr	r3, [pc, #216]	@ (8002540 <readAllSensors+0x1c0>)
 8002468:	781b      	ldrb	r3, [r3, #0]
 800246a:	461c      	mov	r4, r3
 800246c:	4b33      	ldr	r3, [pc, #204]	@ (800253c <readAllSensors+0x1bc>)
 800246e:	881b      	ldrh	r3, [r3, #0]
 8002470:	461a      	mov	r2, r3
 8002472:	f897 3027 	ldrb.w	r3, [r7, #39]	@ 0x27
 8002476:	4413      	add	r3, r2
 8002478:	492e      	ldr	r1, [pc, #184]	@ (8002534 <readAllSensors+0x1b4>)
 800247a:	69fa      	ldr	r2, [r7, #28]
 800247c:	440a      	add	r2, r1
 800247e:	7810      	ldrb	r0, [r2, #0]
 8002480:	4930      	ldr	r1, [pc, #192]	@ (8002544 <readAllSensors+0x1c4>)
 8002482:	0222      	lsls	r2, r4, #8
 8002484:	440a      	add	r2, r1
 8002486:	4413      	add	r3, r2
 8002488:	4602      	mov	r2, r0
 800248a:	701a      	strb	r2, [r3, #0]
		  array_ptr += 1;
 800248c:	f897 3027 	ldrb.w	r3, [r7, #39]	@ 0x27
 8002490:	3301      	adds	r3, #1
 8002492:	f887 3027 	strb.w	r3, [r7, #39]	@ 0x27
		for (int i = 0; i < 6; i++) {
 8002496:	69fb      	ldr	r3, [r7, #28]
 8002498:	3301      	adds	r3, #1
 800249a:	61fb      	str	r3, [r7, #28]
 800249c:	69fb      	ldr	r3, [r7, #28]
 800249e:	2b05      	cmp	r3, #5
 80024a0:	dde1      	ble.n	8002466 <readAllSensors+0xe6>
		}

		// Store the BME280_1 Data
		for (int i = 0; i < 6; i++) {
 80024a2:	2300      	movs	r3, #0
 80024a4:	61bb      	str	r3, [r7, #24]
 80024a6:	e01a      	b.n	80024de <readAllSensors+0x15e>
		  data_buffer_tx[buffer_tracker][byte_tracker + array_ptr] = bme280_data_1[i];
 80024a8:	4b25      	ldr	r3, [pc, #148]	@ (8002540 <readAllSensors+0x1c0>)
 80024aa:	781b      	ldrb	r3, [r3, #0]
 80024ac:	461c      	mov	r4, r3
 80024ae:	4b23      	ldr	r3, [pc, #140]	@ (800253c <readAllSensors+0x1bc>)
 80024b0:	881b      	ldrh	r3, [r3, #0]
 80024b2:	461a      	mov	r2, r3
 80024b4:	f897 3027 	ldrb.w	r3, [r7, #39]	@ 0x27
 80024b8:	4413      	add	r3, r2
 80024ba:	491f      	ldr	r1, [pc, #124]	@ (8002538 <readAllSensors+0x1b8>)
 80024bc:	69ba      	ldr	r2, [r7, #24]
 80024be:	440a      	add	r2, r1
 80024c0:	7810      	ldrb	r0, [r2, #0]
 80024c2:	4920      	ldr	r1, [pc, #128]	@ (8002544 <readAllSensors+0x1c4>)
 80024c4:	0222      	lsls	r2, r4, #8
 80024c6:	440a      	add	r2, r1
 80024c8:	4413      	add	r3, r2
 80024ca:	4602      	mov	r2, r0
 80024cc:	701a      	strb	r2, [r3, #0]
		  array_ptr += 1;
 80024ce:	f897 3027 	ldrb.w	r3, [r7, #39]	@ 0x27
 80024d2:	3301      	adds	r3, #1
 80024d4:	f887 3027 	strb.w	r3, [r7, #39]	@ 0x27
		for (int i = 0; i < 6; i++) {
 80024d8:	69bb      	ldr	r3, [r7, #24]
 80024da:	3301      	adds	r3, #1
 80024dc:	61bb      	str	r3, [r7, #24]
 80024de:	69bb      	ldr	r3, [r7, #24]
 80024e0:	2b05      	cmp	r3, #5
 80024e2:	dde1      	ble.n	80024a8 <readAllSensors+0x128>
		}

		// Store the flight state and peripheral status in the final byte
		data_buffer_tx[buffer_tracker][byte_tracker + array_ptr] = combine_system_status();
 80024e4:	4b16      	ldr	r3, [pc, #88]	@ (8002540 <readAllSensors+0x1c0>)
 80024e6:	781b      	ldrb	r3, [r3, #0]
 80024e8:	461d      	mov	r5, r3
 80024ea:	4b14      	ldr	r3, [pc, #80]	@ (800253c <readAllSensors+0x1bc>)
 80024ec:	881b      	ldrh	r3, [r3, #0]
 80024ee:	461a      	mov	r2, r3
 80024f0:	f897 3027 	ldrb.w	r3, [r7, #39]	@ 0x27
 80024f4:	18d4      	adds	r4, r2, r3
 80024f6:	f7ff fc8b 	bl	8001e10 <combine_system_status>
 80024fa:	4603      	mov	r3, r0
 80024fc:	4619      	mov	r1, r3
 80024fe:	4a11      	ldr	r2, [pc, #68]	@ (8002544 <readAllSensors+0x1c4>)
 8002500:	022b      	lsls	r3, r5, #8
 8002502:	4413      	add	r3, r2
 8002504:	4423      	add	r3, r4
 8002506:	460a      	mov	r2, r1
 8002508:	701a      	strb	r2, [r3, #0]
		array_ptr += 1;
 800250a:	f897 3027 	ldrb.w	r3, [r7, #39]	@ 0x27
 800250e:	3301      	adds	r3, #1
 8002510:	f887 3027 	strb.w	r3, [r7, #39]	@ 0x27

		byte_tracker = byte_tracker + (array_ptr);
 8002514:	f897 3027 	ldrb.w	r3, [r7, #39]	@ 0x27
 8002518:	b29a      	uxth	r2, r3
 800251a:	4b08      	ldr	r3, [pc, #32]	@ (800253c <readAllSensors+0x1bc>)
 800251c:	881b      	ldrh	r3, [r3, #0]
 800251e:	4413      	add	r3, r2
 8002520:	b29a      	uxth	r2, r3
 8002522:	4b06      	ldr	r3, [pc, #24]	@ (800253c <readAllSensors+0x1bc>)
 8002524:	801a      	strh	r2, [r3, #0]
	}
}
 8002526:	bf00      	nop
 8002528:	3728      	adds	r7, #40	@ 0x28
 800252a:	46bd      	mov	sp, r7
 800252c:	bdb0      	pop	{r4, r5, r7, pc}
 800252e:	bf00      	nop
 8002530:	200005bc 	.word	0x200005bc
 8002534:	200005c4 	.word	0x200005c4
 8002538:	200005cc 	.word	0x200005cc
 800253c:	200005d8 	.word	0x200005d8
 8002540:	200005b8 	.word	0x200005b8
 8002544:	200003b8 	.word	0x200003b8

08002548 <initialise_rtc_default>:
    .Month = RTC_MONTH_JANUARY, // Set default month (e.g., January)
    .Date = 1, // Set default day of the month
    .Year = 24 // Set default year (e.g., 2021)
};

void initialise_rtc_default(RTC_HandleTypeDef* hrtc) {
 8002548:	b580      	push	{r7, lr}
 800254a:	b084      	sub	sp, #16
 800254c:	af00      	add	r7, sp, #0
 800254e:	6078      	str	r0, [r7, #4]
    // Enable access to the backup domain
    __HAL_RCC_PWR_CLK_ENABLE();
 8002550:	2300      	movs	r3, #0
 8002552:	60fb      	str	r3, [r7, #12]
 8002554:	4b13      	ldr	r3, [pc, #76]	@ (80025a4 <initialise_rtc_default+0x5c>)
 8002556:	6c1b      	ldr	r3, [r3, #64]	@ 0x40
 8002558:	4a12      	ldr	r2, [pc, #72]	@ (80025a4 <initialise_rtc_default+0x5c>)
 800255a:	f043 5380 	orr.w	r3, r3, #268435456	@ 0x10000000
 800255e:	6413      	str	r3, [r2, #64]	@ 0x40
 8002560:	4b10      	ldr	r3, [pc, #64]	@ (80025a4 <initialise_rtc_default+0x5c>)
 8002562:	6c1b      	ldr	r3, [r3, #64]	@ 0x40
 8002564:	f003 5380 	and.w	r3, r3, #268435456	@ 0x10000000
 8002568:	60fb      	str	r3, [r7, #12]
 800256a:	68fb      	ldr	r3, [r7, #12]
    HAL_PWR_EnableBkUpAccess();
 800256c:	f003 fdc2 	bl	80060f4 <HAL_PWR_EnableBkUpAccess>

    // Reset the RTC
    __HAL_RCC_BACKUPRESET_FORCE();
 8002570:	4b0d      	ldr	r3, [pc, #52]	@ (80025a8 <initialise_rtc_default+0x60>)
 8002572:	2201      	movs	r2, #1
 8002574:	601a      	str	r2, [r3, #0]
    __HAL_RCC_BACKUPRESET_RELEASE();
 8002576:	4b0c      	ldr	r3, [pc, #48]	@ (80025a8 <initialise_rtc_default+0x60>)
 8002578:	2200      	movs	r2, #0
 800257a:	601a      	str	r2, [r3, #0]

    // Initialize RTC hardware
    HAL_RTC_MspInit(hrtc);
 800257c:	6878      	ldr	r0, [r7, #4]
 800257e:	f000 faa1 	bl	8002ac4 <HAL_RTC_MspInit>

    // Set default time and date
    HAL_RTC_SetTime(hrtc, &defaultTime, RTC_FORMAT_BIN);
 8002582:	2200      	movs	r2, #0
 8002584:	4909      	ldr	r1, [pc, #36]	@ (80025ac <initialise_rtc_default+0x64>)
 8002586:	6878      	ldr	r0, [r7, #4]
 8002588:	f004 fc77 	bl	8006e7a <HAL_RTC_SetTime>
    HAL_RTC_SetDate(hrtc, &defaultDate, RTC_FORMAT_BIN);
 800258c:	2200      	movs	r2, #0
 800258e:	4908      	ldr	r1, [pc, #32]	@ (80025b0 <initialise_rtc_default+0x68>)
 8002590:	6878      	ldr	r0, [r7, #4]
 8002592:	f004 fd6a 	bl	800706a <HAL_RTC_SetDate>

    // Disable access to the backup domain
    HAL_PWR_DisableBkUpAccess();
 8002596:	f003 fdc1 	bl	800611c <HAL_PWR_DisableBkUpAccess>
}
 800259a:	bf00      	nop
 800259c:	3710      	adds	r7, #16
 800259e:	46bd      	mov	sp, r7
 80025a0:	bd80      	pop	{r7, pc}
 80025a2:	bf00      	nop
 80025a4:	40023800 	.word	0x40023800
 80025a8:	42470e40 	.word	0x42470e40
 80025ac:	20000620 	.word	0x20000620
 80025b0:	20000018 	.word	0x20000018

080025b4 <getTimestampMilliseconds>:

uint32_t getTimestampMilliseconds(RTC_HandleTypeDef* hrtc) {
 80025b4:	b580      	push	{r7, lr}
 80025b6:	b08c      	sub	sp, #48	@ 0x30
 80025b8:	af00      	add	r7, sp, #0
 80025ba:	6078      	str	r0, [r7, #4]
    RTC_TimeTypeDef rtcTime;
    RTC_DateTypeDef rtcDate;

    // Read RTC time and date
    HAL_RTC_GetTime(hrtc, &rtcTime, RTC_FORMAT_BIN);
 80025bc:	f107 0310 	add.w	r3, r7, #16
 80025c0:	2200      	movs	r2, #0
 80025c2:	4619      	mov	r1, r3
 80025c4:	6878      	ldr	r0, [r7, #4]
 80025c6:	f004 fcf2 	bl	8006fae <HAL_RTC_GetTime>
    HAL_RTC_GetDate(hrtc, &rtcDate, RTC_FORMAT_BIN);
 80025ca:	f107 030c 	add.w	r3, r7, #12
 80025ce:	2200      	movs	r2, #0
 80025d0:	4619      	mov	r1, r3
 80025d2:	6878      	ldr	r0, [r7, #4]
 80025d4:	f004 fdcd 	bl	8007172 <HAL_RTC_GetDate>

    // Calculate timestamp in milliseconds
    uint32_t timestampSeconds = rtcTime.Seconds + rtcTime.Minutes * 60 + rtcTime.Hours * 3600;
 80025d8:	7cbb      	ldrb	r3, [r7, #18]
 80025da:	4619      	mov	r1, r3
 80025dc:	7c7b      	ldrb	r3, [r7, #17]
 80025de:	461a      	mov	r2, r3
 80025e0:	4613      	mov	r3, r2
 80025e2:	011b      	lsls	r3, r3, #4
 80025e4:	1a9b      	subs	r3, r3, r2
 80025e6:	009b      	lsls	r3, r3, #2
 80025e8:	18ca      	adds	r2, r1, r3
 80025ea:	7c3b      	ldrb	r3, [r7, #16]
 80025ec:	4619      	mov	r1, r3
 80025ee:	f44f 6361 	mov.w	r3, #3600	@ 0xe10
 80025f2:	fb01 f303 	mul.w	r3, r1, r3
 80025f6:	4413      	add	r3, r2
 80025f8:	62fb      	str	r3, [r7, #44]	@ 0x2c
    uint32_t timestampMilliseconds = timestampSeconds * 1000;
 80025fa:	6afb      	ldr	r3, [r7, #44]	@ 0x2c
 80025fc:	f44f 727a 	mov.w	r2, #1000	@ 0x3e8
 8002600:	fb02 f303 	mul.w	r3, r2, r3
 8002604:	62bb      	str	r3, [r7, #40]	@ 0x28
    float subsecondsFraction = (float)(rtcTime.SecondFraction - rtcTime.SubSeconds) / (rtcTime.SecondFraction + 1);
 8002606:	69ba      	ldr	r2, [r7, #24]
 8002608:	697b      	ldr	r3, [r7, #20]
 800260a:	1ad3      	subs	r3, r2, r3
 800260c:	ee07 3a90 	vmov	s15, r3
 8002610:	eef8 6a67 	vcvt.f32.u32	s13, s15
 8002614:	69bb      	ldr	r3, [r7, #24]
 8002616:	3301      	adds	r3, #1
 8002618:	ee07 3a90 	vmov	s15, r3
 800261c:	eeb8 7a67 	vcvt.f32.u32	s14, s15
 8002620:	eec6 7a87 	vdiv.f32	s15, s13, s14
 8002624:	edc7 7a09 	vstr	s15, [r7, #36]	@ 0x24
    timestampMilliseconds += subsecondsFraction * 1000;
 8002628:	6abb      	ldr	r3, [r7, #40]	@ 0x28
 800262a:	ee07 3a90 	vmov	s15, r3
 800262e:	eeb8 7a67 	vcvt.f32.u32	s14, s15
 8002632:	edd7 7a09 	vldr	s15, [r7, #36]	@ 0x24
 8002636:	eddf 6a08 	vldr	s13, [pc, #32]	@ 8002658 <getTimestampMilliseconds+0xa4>
 800263a:	ee67 7aa6 	vmul.f32	s15, s15, s13
 800263e:	ee77 7a27 	vadd.f32	s15, s14, s15
 8002642:	eefc 7ae7 	vcvt.u32.f32	s15, s15
 8002646:	ee17 3a90 	vmov	r3, s15
 800264a:	62bb      	str	r3, [r7, #40]	@ 0x28

    return timestampMilliseconds;
 800264c:	6abb      	ldr	r3, [r7, #40]	@ 0x28
}
 800264e:	4618      	mov	r0, r3
 8002650:	3730      	adds	r7, #48	@ 0x30
 8002652:	46bd      	mov	sp, r7
 8002654:	bd80      	pop	{r7, pc}
 8002656:	bf00      	nop
 8002658:	447a0000 	.word	0x447a0000

0800265c <spi_sendOp_readByte>:
#ifndef SRC_SPI_DRIVER_C_
#define SRC_SPI_DRIVER_C_

#include "spi_driver.h"

HAL_StatusTypeDef spi_sendOp_readByte(uint8_t* opcode, SPI_HandleTypeDef *hspi, uint8_t* data_ptr, GPIO_TypeDef* GPIOx, uint16_t GPIO_Pin_CS) {
 800265c:	b580      	push	{r7, lr}
 800265e:	b086      	sub	sp, #24
 8002660:	af00      	add	r7, sp, #0
 8002662:	60f8      	str	r0, [r7, #12]
 8002664:	60b9      	str	r1, [r7, #8]
 8002666:	607a      	str	r2, [r7, #4]
 8002668:	603b      	str	r3, [r7, #0]
	HAL_StatusTypeDef status;
	HAL_GPIO_WritePin(GPIOx, GPIO_Pin_CS, GPIO_PIN_RESET);	// Set the chip select pin to low to initiate SPI comms
 800266a:	8c3b      	ldrh	r3, [r7, #32]
 800266c:	2200      	movs	r2, #0
 800266e:	4619      	mov	r1, r3
 8002670:	6838      	ldr	r0, [r7, #0]
 8002672:	f002 fc4d 	bl	8004f10 <HAL_GPIO_WritePin>
	HAL_SPI_Transmit(hspi, opcode, 1, TIMEOUT_SML);			// Write the write enable value to the Flash to initial reading
 8002676:	2302      	movs	r3, #2
 8002678:	2201      	movs	r2, #1
 800267a:	68f9      	ldr	r1, [r7, #12]
 800267c:	68b8      	ldr	r0, [r7, #8]
 800267e:	f004 ff0e 	bl	800749e <HAL_SPI_Transmit>
	status = HAL_SPI_Receive(hspi, data_ptr, 1, TIMEOUT_SML);
 8002682:	2302      	movs	r3, #2
 8002684:	2201      	movs	r2, #1
 8002686:	6879      	ldr	r1, [r7, #4]
 8002688:	68b8      	ldr	r0, [r7, #8]
 800268a:	f005 f84b 	bl	8007724 <HAL_SPI_Receive>
 800268e:	4603      	mov	r3, r0
 8002690:	75fb      	strb	r3, [r7, #23]
	HAL_GPIO_WritePin(GPIOx, GPIO_Pin_CS, GPIO_PIN_SET);
 8002692:	8c3b      	ldrh	r3, [r7, #32]
 8002694:	2201      	movs	r2, #1
 8002696:	4619      	mov	r1, r3
 8002698:	6838      	ldr	r0, [r7, #0]
 800269a:	f002 fc39 	bl	8004f10 <HAL_GPIO_WritePin>
	return status;
 800269e:	7dfb      	ldrb	r3, [r7, #23]
}
 80026a0:	4618      	mov	r0, r3
 80026a2:	3718      	adds	r7, #24
 80026a4:	46bd      	mov	sp, r7
 80026a6:	bd80      	pop	{r7, pc}

080026a8 <perform_operation>:

HAL_StatusTypeDef perform_operation(uint8_t* opcode, SPI_HandleTypeDef *hspi, GPIO_TypeDef* GPIOx, uint16_t GPIO_Pin_CS) {
 80026a8:	b580      	push	{r7, lr}
 80026aa:	b086      	sub	sp, #24
 80026ac:	af00      	add	r7, sp, #0
 80026ae:	60f8      	str	r0, [r7, #12]
 80026b0:	60b9      	str	r1, [r7, #8]
 80026b2:	607a      	str	r2, [r7, #4]
 80026b4:	807b      	strh	r3, [r7, #2]
	HAL_StatusTypeDef status;
	HAL_GPIO_WritePin(GPIOx, GPIO_Pin_CS, GPIO_PIN_RESET);				// Set the chip select pin to low to initiate SPI comms
 80026b6:	887b      	ldrh	r3, [r7, #2]
 80026b8:	2200      	movs	r2, #0
 80026ba:	4619      	mov	r1, r3
 80026bc:	6878      	ldr	r0, [r7, #4]
 80026be:	f002 fc27 	bl	8004f10 <HAL_GPIO_WritePin>
	status = HAL_SPI_Transmit(hspi, opcode, 1, TIMEOUT_SML);				// Write the opcode value
 80026c2:	2302      	movs	r3, #2
 80026c4:	2201      	movs	r2, #1
 80026c6:	68f9      	ldr	r1, [r7, #12]
 80026c8:	68b8      	ldr	r0, [r7, #8]
 80026ca:	f004 fee8 	bl	800749e <HAL_SPI_Transmit>
 80026ce:	4603      	mov	r3, r0
 80026d0:	75fb      	strb	r3, [r7, #23]
	HAL_GPIO_WritePin(GPIOx, GPIO_Pin_CS, GPIO_PIN_SET);
 80026d2:	887b      	ldrh	r3, [r7, #2]
 80026d4:	2201      	movs	r2, #1
 80026d6:	4619      	mov	r1, r3
 80026d8:	6878      	ldr	r0, [r7, #4]
 80026da:	f002 fc19 	bl	8004f10 <HAL_GPIO_WritePin>

	return status;
 80026de:	7dfb      	ldrb	r3, [r7, #23]
}
 80026e0:	4618      	mov	r0, r3
 80026e2:	3718      	adds	r7, #24
 80026e4:	46bd      	mov	sp, r7
 80026e6:	bd80      	pop	{r7, pc}

080026e8 <spi_read_data>:

HAL_StatusTypeDef spi_read_data(uint8_t* opcode, uint16_t data_size, uint8_t data_read[data_size], SPI_HandleTypeDef *hspi, uint32_t addr, GPIO_TypeDef* GPIOx, uint16_t GPIO_Pin_CS) {
 80026e8:	b580      	push	{r7, lr}
 80026ea:	b086      	sub	sp, #24
 80026ec:	af00      	add	r7, sp, #0
 80026ee:	60f8      	str	r0, [r7, #12]
 80026f0:	607a      	str	r2, [r7, #4]
 80026f2:	603b      	str	r3, [r7, #0]
 80026f4:	460b      	mov	r3, r1
 80026f6:	817b      	strh	r3, [r7, #10]
	HAL_StatusTypeDef status;

	// Split the 24 bit address into three 8 bit ints
	uint8_t addrL = addr & 0xFF;  // Get the low byte
 80026f8:	6a3b      	ldr	r3, [r7, #32]
 80026fa:	b2db      	uxtb	r3, r3
 80026fc:	75bb      	strb	r3, [r7, #22]
	uint8_t addrM = (addr >> 8) & 0xFF;  // Get the middle byte
 80026fe:	6a3b      	ldr	r3, [r7, #32]
 8002700:	0a1b      	lsrs	r3, r3, #8
 8002702:	b2db      	uxtb	r3, r3
 8002704:	757b      	strb	r3, [r7, #21]
	uint8_t addrH = (addr >> 16) & 0xFF;  // Get the high byte
 8002706:	6a3b      	ldr	r3, [r7, #32]
 8002708:	0c1b      	lsrs	r3, r3, #16
 800270a:	b2db      	uxtb	r3, r3
 800270c:	753b      	strb	r3, [r7, #20]

	// Read the data denoted by the given address
	HAL_GPIO_WritePin(GPIOx, GPIO_Pin_CS, GPIO_PIN_RESET);
 800270e:	8d3b      	ldrh	r3, [r7, #40]	@ 0x28
 8002710:	2200      	movs	r2, #0
 8002712:	4619      	mov	r1, r3
 8002714:	6a78      	ldr	r0, [r7, #36]	@ 0x24
 8002716:	f002 fbfb 	bl	8004f10 <HAL_GPIO_WritePin>
	HAL_SPI_Transmit(hspi, opcode, 1, TIMEOUT_SML);	// Write the read enable value
 800271a:	2302      	movs	r3, #2
 800271c:	2201      	movs	r2, #1
 800271e:	68f9      	ldr	r1, [r7, #12]
 8002720:	6838      	ldr	r0, [r7, #0]
 8002722:	f004 febc 	bl	800749e <HAL_SPI_Transmit>

	// Transmit the 24 bit address of the page to initialise read from
	HAL_SPI_Transmit(hspi, &addrH, 1, TIMEOUT_SML);
 8002726:	f107 0114 	add.w	r1, r7, #20
 800272a:	2302      	movs	r3, #2
 800272c:	2201      	movs	r2, #1
 800272e:	6838      	ldr	r0, [r7, #0]
 8002730:	f004 feb5 	bl	800749e <HAL_SPI_Transmit>
	HAL_SPI_Transmit(hspi, &addrM, 1, TIMEOUT_SML);
 8002734:	f107 0115 	add.w	r1, r7, #21
 8002738:	2302      	movs	r3, #2
 800273a:	2201      	movs	r2, #1
 800273c:	6838      	ldr	r0, [r7, #0]
 800273e:	f004 feae 	bl	800749e <HAL_SPI_Transmit>
	HAL_SPI_Transmit(hspi, &addrL, 1, TIMEOUT_SML);
 8002742:	f107 0116 	add.w	r1, r7, #22
 8002746:	2302      	movs	r3, #2
 8002748:	2201      	movs	r2, #1
 800274a:	6838      	ldr	r0, [r7, #0]
 800274c:	f004 fea7 	bl	800749e <HAL_SPI_Transmit>

	status = HAL_SPI_Receive(hspi, data_read, data_size, TIMEOUT_LRG);
 8002750:	897a      	ldrh	r2, [r7, #10]
 8002752:	2364      	movs	r3, #100	@ 0x64
 8002754:	6879      	ldr	r1, [r7, #4]
 8002756:	6838      	ldr	r0, [r7, #0]
 8002758:	f004 ffe4 	bl	8007724 <HAL_SPI_Receive>
 800275c:	4603      	mov	r3, r0
 800275e:	75fb      	strb	r3, [r7, #23]
	HAL_GPIO_WritePin(GPIOx, GPIO_Pin_CS, GPIO_PIN_SET);
 8002760:	8d3b      	ldrh	r3, [r7, #40]	@ 0x28
 8002762:	2201      	movs	r2, #1
 8002764:	4619      	mov	r1, r3
 8002766:	6a78      	ldr	r0, [r7, #36]	@ 0x24
 8002768:	f002 fbd2 	bl	8004f10 <HAL_GPIO_WritePin>

	return status;
 800276c:	7dfb      	ldrb	r3, [r7, #23]
}
 800276e:	4618      	mov	r0, r3
 8002770:	3718      	adds	r7, #24
 8002772:	46bd      	mov	sp, r7
 8002774:	bd80      	pop	{r7, pc}

08002776 <spi_write_data_dma>:
	HAL_GPIO_WritePin(GPIOx, GPIO_Pin_CS, GPIO_PIN_SET);	// Set the chip select pin to high to remove the Flash from the SPI bus

	return status;
}

HAL_StatusTypeDef spi_write_data_dma(uint8_t* opcode, uint16_t data_size, uint8_t data_write[data_size], SPI_HandleTypeDef *hspi, uint32_t addr, GPIO_TypeDef* GPIOx, uint16_t GPIO_Pin_CS) {
 8002776:	b580      	push	{r7, lr}
 8002778:	b086      	sub	sp, #24
 800277a:	af00      	add	r7, sp, #0
 800277c:	60f8      	str	r0, [r7, #12]
 800277e:	607a      	str	r2, [r7, #4]
 8002780:	603b      	str	r3, [r7, #0]
 8002782:	460b      	mov	r3, r1
 8002784:	817b      	strh	r3, [r7, #10]
    HAL_StatusTypeDef status;

    // Split the 24 bit address into three 8 bit ints
    uint8_t addrL = addr & 0xFF;  			// Get the low byte
 8002786:	6a3b      	ldr	r3, [r7, #32]
 8002788:	b2db      	uxtb	r3, r3
 800278a:	75bb      	strb	r3, [r7, #22]
    uint8_t addrM = (addr >> 8) & 0xFF;  	// Get the middle byte
 800278c:	6a3b      	ldr	r3, [r7, #32]
 800278e:	0a1b      	lsrs	r3, r3, #8
 8002790:	b2db      	uxtb	r3, r3
 8002792:	757b      	strb	r3, [r7, #21]
    uint8_t addrH = (addr >> 16) & 0xFF;  	// Get the high byte
 8002794:	6a3b      	ldr	r3, [r7, #32]
 8002796:	0c1b      	lsrs	r3, r3, #16
 8002798:	b2db      	uxtb	r3, r3
 800279a:	753b      	strb	r3, [r7, #20]

    // Send the PageWrite command
    HAL_GPIO_WritePin(GPIOx, GPIO_Pin_CS, GPIO_PIN_RESET);	// Set the chip select pin to low to initiate SPI comms
 800279c:	8d3b      	ldrh	r3, [r7, #40]	@ 0x28
 800279e:	2200      	movs	r2, #0
 80027a0:	4619      	mov	r1, r3
 80027a2:	6a78      	ldr	r0, [r7, #36]	@ 0x24
 80027a4:	f002 fbb4 	bl	8004f10 <HAL_GPIO_WritePin>
    HAL_SPI_Transmit(hspi, opcode, 1, TIMEOUT_SML);					// Write the write enable value to the Flash to initial writing
 80027a8:	2302      	movs	r3, #2
 80027aa:	2201      	movs	r2, #1
 80027ac:	68f9      	ldr	r1, [r7, #12]
 80027ae:	6838      	ldr	r0, [r7, #0]
 80027b0:	f004 fe75 	bl	800749e <HAL_SPI_Transmit>

    // Transmit the 24 bit address of the page to write to
    HAL_SPI_Transmit(hspi, &addrH, 1, TIMEOUT_SML);
 80027b4:	f107 0114 	add.w	r1, r7, #20
 80027b8:	2302      	movs	r3, #2
 80027ba:	2201      	movs	r2, #1
 80027bc:	6838      	ldr	r0, [r7, #0]
 80027be:	f004 fe6e 	bl	800749e <HAL_SPI_Transmit>
    HAL_SPI_Transmit(hspi, &addrM, 1, TIMEOUT_SML);
 80027c2:	f107 0115 	add.w	r1, r7, #21
 80027c6:	2302      	movs	r3, #2
 80027c8:	2201      	movs	r2, #1
 80027ca:	6838      	ldr	r0, [r7, #0]
 80027cc:	f004 fe67 	bl	800749e <HAL_SPI_Transmit>
    HAL_SPI_Transmit(hspi, &addrL, 1, TIMEOUT_SML);
 80027d0:	f107 0116 	add.w	r1, r7, #22
 80027d4:	2302      	movs	r3, #2
 80027d6:	2201      	movs	r2, #1
 80027d8:	6838      	ldr	r0, [r7, #0]
 80027da:	f004 fe60 	bl	800749e <HAL_SPI_Transmit>

    // Start the DMA transfer
    status = HAL_SPI_Transmit_DMA(hspi, data_write, data_size);
 80027de:	897b      	ldrh	r3, [r7, #10]
 80027e0:	461a      	mov	r2, r3
 80027e2:	6879      	ldr	r1, [r7, #4]
 80027e4:	6838      	ldr	r0, [r7, #0]
 80027e6:	f005 fa65 	bl	8007cb4 <HAL_SPI_Transmit_DMA>
 80027ea:	4603      	mov	r3, r0
 80027ec:	75fb      	strb	r3, [r7, #23]

    return status;
 80027ee:	7dfb      	ldrb	r3, [r7, #23]
}
 80027f0:	4618      	mov	r0, r3
 80027f2:	3718      	adds	r7, #24
 80027f4:	46bd      	mov	sp, r7
 80027f6:	bd80      	pop	{r7, pc}

080027f8 <HAL_MspInit>:
/* USER CODE END 0 */
/**
  * Initializes the Global MSP.
  */
void HAL_MspInit(void)
{
 80027f8:	b480      	push	{r7}
 80027fa:	b083      	sub	sp, #12
 80027fc:	af00      	add	r7, sp, #0

  /* USER CODE BEGIN MspInit 0 */

  /* USER CODE END MspInit 0 */

  __HAL_RCC_SYSCFG_CLK_ENABLE();
 80027fe:	2300      	movs	r3, #0
 8002800:	607b      	str	r3, [r7, #4]
 8002802:	4b10      	ldr	r3, [pc, #64]	@ (8002844 <HAL_MspInit+0x4c>)
 8002804:	6c5b      	ldr	r3, [r3, #68]	@ 0x44
 8002806:	4a0f      	ldr	r2, [pc, #60]	@ (8002844 <HAL_MspInit+0x4c>)
 8002808:	f443 4380 	orr.w	r3, r3, #16384	@ 0x4000
 800280c:	6453      	str	r3, [r2, #68]	@ 0x44
 800280e:	4b0d      	ldr	r3, [pc, #52]	@ (8002844 <HAL_MspInit+0x4c>)
 8002810:	6c5b      	ldr	r3, [r3, #68]	@ 0x44
 8002812:	f403 4380 	and.w	r3, r3, #16384	@ 0x4000
 8002816:	607b      	str	r3, [r7, #4]
 8002818:	687b      	ldr	r3, [r7, #4]
  __HAL_RCC_PWR_CLK_ENABLE();
 800281a:	2300      	movs	r3, #0
 800281c:	603b      	str	r3, [r7, #0]
 800281e:	4b09      	ldr	r3, [pc, #36]	@ (8002844 <HAL_MspInit+0x4c>)
 8002820:	6c1b      	ldr	r3, [r3, #64]	@ 0x40
 8002822:	4a08      	ldr	r2, [pc, #32]	@ (8002844 <HAL_MspInit+0x4c>)
 8002824:	f043 5380 	orr.w	r3, r3, #268435456	@ 0x10000000
 8002828:	6413      	str	r3, [r2, #64]	@ 0x40
 800282a:	4b06      	ldr	r3, [pc, #24]	@ (8002844 <HAL_MspInit+0x4c>)
 800282c:	6c1b      	ldr	r3, [r3, #64]	@ 0x40
 800282e:	f003 5380 	and.w	r3, r3, #268435456	@ 0x10000000
 8002832:	603b      	str	r3, [r7, #0]
 8002834:	683b      	ldr	r3, [r7, #0]
  /* System interrupt init*/

  /* USER CODE BEGIN MspInit 1 */

  /* USER CODE END MspInit 1 */
}
 8002836:	bf00      	nop
 8002838:	370c      	adds	r7, #12
 800283a:	46bd      	mov	sp, r7
 800283c:	f85d 7b04 	ldr.w	r7, [sp], #4
 8002840:	4770      	bx	lr
 8002842:	bf00      	nop
 8002844:	40023800 	.word	0x40023800

08002848 <HAL_CAN_MspInit>:
* This function configures the hardware resources used in this example
* @param hcan: CAN handle pointer
* @retval None
*/
void HAL_CAN_MspInit(CAN_HandleTypeDef* hcan)
{
 8002848:	b580      	push	{r7, lr}
 800284a:	b08a      	sub	sp, #40	@ 0x28
 800284c:	af00      	add	r7, sp, #0
 800284e:	6078      	str	r0, [r7, #4]
  GPIO_InitTypeDef GPIO_InitStruct = {0};
 8002850:	f107 0314 	add.w	r3, r7, #20
 8002854:	2200      	movs	r2, #0
 8002856:	601a      	str	r2, [r3, #0]
 8002858:	605a      	str	r2, [r3, #4]
 800285a:	609a      	str	r2, [r3, #8]
 800285c:	60da      	str	r2, [r3, #12]
 800285e:	611a      	str	r2, [r3, #16]
  if(hcan->Instance==CAN2)
 8002860:	687b      	ldr	r3, [r7, #4]
 8002862:	681b      	ldr	r3, [r3, #0]
 8002864:	4a24      	ldr	r2, [pc, #144]	@ (80028f8 <HAL_CAN_MspInit+0xb0>)
 8002866:	4293      	cmp	r3, r2
 8002868:	d141      	bne.n	80028ee <HAL_CAN_MspInit+0xa6>
  {
  /* USER CODE BEGIN CAN2_MspInit 0 */

  /* USER CODE END CAN2_MspInit 0 */
    /* Peripheral clock enable */
    __HAL_RCC_CAN2_CLK_ENABLE();
 800286a:	2300      	movs	r3, #0
 800286c:	613b      	str	r3, [r7, #16]
 800286e:	4b23      	ldr	r3, [pc, #140]	@ (80028fc <HAL_CAN_MspInit+0xb4>)
 8002870:	6c1b      	ldr	r3, [r3, #64]	@ 0x40
 8002872:	4a22      	ldr	r2, [pc, #136]	@ (80028fc <HAL_CAN_MspInit+0xb4>)
 8002874:	f043 6380 	orr.w	r3, r3, #67108864	@ 0x4000000
 8002878:	6413      	str	r3, [r2, #64]	@ 0x40
 800287a:	4b20      	ldr	r3, [pc, #128]	@ (80028fc <HAL_CAN_MspInit+0xb4>)
 800287c:	6c1b      	ldr	r3, [r3, #64]	@ 0x40
 800287e:	f003 6380 	and.w	r3, r3, #67108864	@ 0x4000000
 8002882:	613b      	str	r3, [r7, #16]
 8002884:	693b      	ldr	r3, [r7, #16]
    __HAL_RCC_CAN1_CLK_ENABLE();
 8002886:	2300      	movs	r3, #0
 8002888:	60fb      	str	r3, [r7, #12]
 800288a:	4b1c      	ldr	r3, [pc, #112]	@ (80028fc <HAL_CAN_MspInit+0xb4>)
 800288c:	6c1b      	ldr	r3, [r3, #64]	@ 0x40
 800288e:	4a1b      	ldr	r2, [pc, #108]	@ (80028fc <HAL_CAN_MspInit+0xb4>)
 8002890:	f043 7300 	orr.w	r3, r3, #33554432	@ 0x2000000
 8002894:	6413      	str	r3, [r2, #64]	@ 0x40
 8002896:	4b19      	ldr	r3, [pc, #100]	@ (80028fc <HAL_CAN_MspInit+0xb4>)
 8002898:	6c1b      	ldr	r3, [r3, #64]	@ 0x40
 800289a:	f003 7300 	and.w	r3, r3, #33554432	@ 0x2000000
 800289e:	60fb      	str	r3, [r7, #12]
 80028a0:	68fb      	ldr	r3, [r7, #12]

    __HAL_RCC_GPIOB_CLK_ENABLE();
 80028a2:	2300      	movs	r3, #0
 80028a4:	60bb      	str	r3, [r7, #8]
 80028a6:	4b15      	ldr	r3, [pc, #84]	@ (80028fc <HAL_CAN_MspInit+0xb4>)
 80028a8:	6b1b      	ldr	r3, [r3, #48]	@ 0x30
 80028aa:	4a14      	ldr	r2, [pc, #80]	@ (80028fc <HAL_CAN_MspInit+0xb4>)
 80028ac:	f043 0302 	orr.w	r3, r3, #2
 80028b0:	6313      	str	r3, [r2, #48]	@ 0x30
 80028b2:	4b12      	ldr	r3, [pc, #72]	@ (80028fc <HAL_CAN_MspInit+0xb4>)
 80028b4:	6b1b      	ldr	r3, [r3, #48]	@ 0x30
 80028b6:	f003 0302 	and.w	r3, r3, #2
 80028ba:	60bb      	str	r3, [r7, #8]
 80028bc:	68bb      	ldr	r3, [r7, #8]
    /**CAN2 GPIO Configuration
    PB5     ------> CAN2_RX
    PB6     ------> CAN2_TX
    */
    GPIO_InitStruct.Pin = GPIO_PIN_5|GPIO_PIN_6;
 80028be:	2360      	movs	r3, #96	@ 0x60
 80028c0:	617b      	str	r3, [r7, #20]
    GPIO_InitStruct.Mode = GPIO_MODE_AF_PP;
 80028c2:	2302      	movs	r3, #2
 80028c4:	61bb      	str	r3, [r7, #24]
    GPIO_InitStruct.Pull = GPIO_NOPULL;
 80028c6:	2300      	movs	r3, #0
 80028c8:	61fb      	str	r3, [r7, #28]
    GPIO_InitStruct.Speed = GPIO_SPEED_FREQ_VERY_HIGH;
 80028ca:	2303      	movs	r3, #3
 80028cc:	623b      	str	r3, [r7, #32]
    GPIO_InitStruct.Alternate = GPIO_AF9_CAN2;
 80028ce:	2309      	movs	r3, #9
 80028d0:	627b      	str	r3, [r7, #36]	@ 0x24
    HAL_GPIO_Init(GPIOB, &GPIO_InitStruct);
 80028d2:	f107 0314 	add.w	r3, r7, #20
 80028d6:	4619      	mov	r1, r3
 80028d8:	4809      	ldr	r0, [pc, #36]	@ (8002900 <HAL_CAN_MspInit+0xb8>)
 80028da:	f002 f849 	bl	8004970 <HAL_GPIO_Init>

    /* CAN2 interrupt Init */
    HAL_NVIC_SetPriority(CAN2_RX0_IRQn, 0, 0);
 80028de:	2200      	movs	r2, #0
 80028e0:	2100      	movs	r1, #0
 80028e2:	2040      	movs	r0, #64	@ 0x40
 80028e4:	f001 fc0b 	bl	80040fe <HAL_NVIC_SetPriority>
    HAL_NVIC_EnableIRQ(CAN2_RX0_IRQn);
 80028e8:	2040      	movs	r0, #64	@ 0x40
 80028ea:	f001 fc24 	bl	8004136 <HAL_NVIC_EnableIRQ>

  /* USER CODE END CAN2_MspInit 1 */

  }

}
 80028ee:	bf00      	nop
 80028f0:	3728      	adds	r7, #40	@ 0x28
 80028f2:	46bd      	mov	sp, r7
 80028f4:	bd80      	pop	{r7, pc}
 80028f6:	bf00      	nop
 80028f8:	40006800 	.word	0x40006800
 80028fc:	40023800 	.word	0x40023800
 8002900:	40020400 	.word	0x40020400

08002904 <HAL_I2C_MspInit>:
* This function configures the hardware resources used in this example
* @param hi2c: I2C handle pointer
* @retval None
*/
void HAL_I2C_MspInit(I2C_HandleTypeDef* hi2c)
{
 8002904:	b580      	push	{r7, lr}
 8002906:	b08c      	sub	sp, #48	@ 0x30
 8002908:	af00      	add	r7, sp, #0
 800290a:	6078      	str	r0, [r7, #4]
  GPIO_InitTypeDef GPIO_InitStruct = {0};
 800290c:	f107 031c 	add.w	r3, r7, #28
 8002910:	2200      	movs	r2, #0
 8002912:	601a      	str	r2, [r3, #0]
 8002914:	605a      	str	r2, [r3, #4]
 8002916:	609a      	str	r2, [r3, #8]
 8002918:	60da      	str	r2, [r3, #12]
 800291a:	611a      	str	r2, [r3, #16]
  if(hi2c->Instance==I2C1)
 800291c:	687b      	ldr	r3, [r7, #4]
 800291e:	681b      	ldr	r3, [r3, #0]
 8002920:	4a42      	ldr	r2, [pc, #264]	@ (8002a2c <HAL_I2C_MspInit+0x128>)
 8002922:	4293      	cmp	r3, r2
 8002924:	d12d      	bne.n	8002982 <HAL_I2C_MspInit+0x7e>
  {
  /* USER CODE BEGIN I2C1_MspInit 0 */

  /* USER CODE END I2C1_MspInit 0 */

    __HAL_RCC_GPIOB_CLK_ENABLE();
 8002926:	2300      	movs	r3, #0
 8002928:	61bb      	str	r3, [r7, #24]
 800292a:	4b41      	ldr	r3, [pc, #260]	@ (8002a30 <HAL_I2C_MspInit+0x12c>)
 800292c:	6b1b      	ldr	r3, [r3, #48]	@ 0x30
 800292e:	4a40      	ldr	r2, [pc, #256]	@ (8002a30 <HAL_I2C_MspInit+0x12c>)
 8002930:	f043 0302 	orr.w	r3, r3, #2
 8002934:	6313      	str	r3, [r2, #48]	@ 0x30
 8002936:	4b3e      	ldr	r3, [pc, #248]	@ (8002a30 <HAL_I2C_MspInit+0x12c>)
 8002938:	6b1b      	ldr	r3, [r3, #48]	@ 0x30
 800293a:	f003 0302 	and.w	r3, r3, #2
 800293e:	61bb      	str	r3, [r7, #24]
 8002940:	69bb      	ldr	r3, [r7, #24]
    /**I2C1 GPIO Configuration
    PB8     ------> I2C1_SCL
    PB9     ------> I2C1_SDA
    */
    GPIO_InitStruct.Pin = GPIO_PIN_8|GPIO_PIN_9;
 8002942:	f44f 7340 	mov.w	r3, #768	@ 0x300
 8002946:	61fb      	str	r3, [r7, #28]
    GPIO_InitStruct.Mode = GPIO_MODE_AF_OD;
 8002948:	2312      	movs	r3, #18
 800294a:	623b      	str	r3, [r7, #32]
    GPIO_InitStruct.Pull = GPIO_NOPULL;
 800294c:	2300      	movs	r3, #0
 800294e:	627b      	str	r3, [r7, #36]	@ 0x24
    GPIO_InitStruct.Speed = GPIO_SPEED_FREQ_VERY_HIGH;
 8002950:	2303      	movs	r3, #3
 8002952:	62bb      	str	r3, [r7, #40]	@ 0x28
    GPIO_InitStruct.Alternate = GPIO_AF4_I2C1;
 8002954:	2304      	movs	r3, #4
 8002956:	62fb      	str	r3, [r7, #44]	@ 0x2c
    HAL_GPIO_Init(GPIOB, &GPIO_InitStruct);
 8002958:	f107 031c 	add.w	r3, r7, #28
 800295c:	4619      	mov	r1, r3
 800295e:	4835      	ldr	r0, [pc, #212]	@ (8002a34 <HAL_I2C_MspInit+0x130>)
 8002960:	f002 f806 	bl	8004970 <HAL_GPIO_Init>

    /* Peripheral clock enable */
    __HAL_RCC_I2C1_CLK_ENABLE();
 8002964:	2300      	movs	r3, #0
 8002966:	617b      	str	r3, [r7, #20]
 8002968:	4b31      	ldr	r3, [pc, #196]	@ (8002a30 <HAL_I2C_MspInit+0x12c>)
 800296a:	6c1b      	ldr	r3, [r3, #64]	@ 0x40
 800296c:	4a30      	ldr	r2, [pc, #192]	@ (8002a30 <HAL_I2C_MspInit+0x12c>)
 800296e:	f443 1300 	orr.w	r3, r3, #2097152	@ 0x200000
 8002972:	6413      	str	r3, [r2, #64]	@ 0x40
 8002974:	4b2e      	ldr	r3, [pc, #184]	@ (8002a30 <HAL_I2C_MspInit+0x12c>)
 8002976:	6c1b      	ldr	r3, [r3, #64]	@ 0x40
 8002978:	f403 1300 	and.w	r3, r3, #2097152	@ 0x200000
 800297c:	617b      	str	r3, [r7, #20]
 800297e:	697b      	ldr	r3, [r7, #20]
  /* USER CODE BEGIN I2C3_MspInit 1 */

  /* USER CODE END I2C3_MspInit 1 */
  }

}
 8002980:	e050      	b.n	8002a24 <HAL_I2C_MspInit+0x120>
  else if(hi2c->Instance==I2C3)
 8002982:	687b      	ldr	r3, [r7, #4]
 8002984:	681b      	ldr	r3, [r3, #0]
 8002986:	4a2c      	ldr	r2, [pc, #176]	@ (8002a38 <HAL_I2C_MspInit+0x134>)
 8002988:	4293      	cmp	r3, r2
 800298a:	d14b      	bne.n	8002a24 <HAL_I2C_MspInit+0x120>
    __HAL_RCC_GPIOC_CLK_ENABLE();
 800298c:	2300      	movs	r3, #0
 800298e:	613b      	str	r3, [r7, #16]
 8002990:	4b27      	ldr	r3, [pc, #156]	@ (8002a30 <HAL_I2C_MspInit+0x12c>)
 8002992:	6b1b      	ldr	r3, [r3, #48]	@ 0x30
 8002994:	4a26      	ldr	r2, [pc, #152]	@ (8002a30 <HAL_I2C_MspInit+0x12c>)
 8002996:	f043 0304 	orr.w	r3, r3, #4
 800299a:	6313      	str	r3, [r2, #48]	@ 0x30
 800299c:	4b24      	ldr	r3, [pc, #144]	@ (8002a30 <HAL_I2C_MspInit+0x12c>)
 800299e:	6b1b      	ldr	r3, [r3, #48]	@ 0x30
 80029a0:	f003 0304 	and.w	r3, r3, #4
 80029a4:	613b      	str	r3, [r7, #16]
 80029a6:	693b      	ldr	r3, [r7, #16]
    __HAL_RCC_GPIOA_CLK_ENABLE();
 80029a8:	2300      	movs	r3, #0
 80029aa:	60fb      	str	r3, [r7, #12]
 80029ac:	4b20      	ldr	r3, [pc, #128]	@ (8002a30 <HAL_I2C_MspInit+0x12c>)
 80029ae:	6b1b      	ldr	r3, [r3, #48]	@ 0x30
 80029b0:	4a1f      	ldr	r2, [pc, #124]	@ (8002a30 <HAL_I2C_MspInit+0x12c>)
 80029b2:	f043 0301 	orr.w	r3, r3, #1
 80029b6:	6313      	str	r3, [r2, #48]	@ 0x30
 80029b8:	4b1d      	ldr	r3, [pc, #116]	@ (8002a30 <HAL_I2C_MspInit+0x12c>)
 80029ba:	6b1b      	ldr	r3, [r3, #48]	@ 0x30
 80029bc:	f003 0301 	and.w	r3, r3, #1
 80029c0:	60fb      	str	r3, [r7, #12]
 80029c2:	68fb      	ldr	r3, [r7, #12]
    GPIO_InitStruct.Pin = GPIO_PIN_9;
 80029c4:	f44f 7300 	mov.w	r3, #512	@ 0x200
 80029c8:	61fb      	str	r3, [r7, #28]
    GPIO_InitStruct.Mode = GPIO_MODE_AF_OD;
 80029ca:	2312      	movs	r3, #18
 80029cc:	623b      	str	r3, [r7, #32]
    GPIO_InitStruct.Pull = GPIO_NOPULL;
 80029ce:	2300      	movs	r3, #0
 80029d0:	627b      	str	r3, [r7, #36]	@ 0x24
    GPIO_InitStruct.Speed = GPIO_SPEED_FREQ_VERY_HIGH;
 80029d2:	2303      	movs	r3, #3
 80029d4:	62bb      	str	r3, [r7, #40]	@ 0x28
    GPIO_InitStruct.Alternate = GPIO_AF4_I2C3;
 80029d6:	2304      	movs	r3, #4
 80029d8:	62fb      	str	r3, [r7, #44]	@ 0x2c
    HAL_GPIO_Init(GPIOC, &GPIO_InitStruct);
 80029da:	f107 031c 	add.w	r3, r7, #28
 80029de:	4619      	mov	r1, r3
 80029e0:	4816      	ldr	r0, [pc, #88]	@ (8002a3c <HAL_I2C_MspInit+0x138>)
 80029e2:	f001 ffc5 	bl	8004970 <HAL_GPIO_Init>
    GPIO_InitStruct.Pin = GPIO_PIN_8;
 80029e6:	f44f 7380 	mov.w	r3, #256	@ 0x100
 80029ea:	61fb      	str	r3, [r7, #28]
    GPIO_InitStruct.Mode = GPIO_MODE_AF_OD;
 80029ec:	2312      	movs	r3, #18
 80029ee:	623b      	str	r3, [r7, #32]
    GPIO_InitStruct.Pull = GPIO_NOPULL;
 80029f0:	2300      	movs	r3, #0
 80029f2:	627b      	str	r3, [r7, #36]	@ 0x24
    GPIO_InitStruct.Speed = GPIO_SPEED_FREQ_VERY_HIGH;
 80029f4:	2303      	movs	r3, #3
 80029f6:	62bb      	str	r3, [r7, #40]	@ 0x28
    GPIO_InitStruct.Alternate = GPIO_AF4_I2C3;
 80029f8:	2304      	movs	r3, #4
 80029fa:	62fb      	str	r3, [r7, #44]	@ 0x2c
    HAL_GPIO_Init(GPIOA, &GPIO_InitStruct);
 80029fc:	f107 031c 	add.w	r3, r7, #28
 8002a00:	4619      	mov	r1, r3
 8002a02:	480f      	ldr	r0, [pc, #60]	@ (8002a40 <HAL_I2C_MspInit+0x13c>)
 8002a04:	f001 ffb4 	bl	8004970 <HAL_GPIO_Init>
    __HAL_RCC_I2C3_CLK_ENABLE();
 8002a08:	2300      	movs	r3, #0
 8002a0a:	60bb      	str	r3, [r7, #8]
 8002a0c:	4b08      	ldr	r3, [pc, #32]	@ (8002a30 <HAL_I2C_MspInit+0x12c>)
 8002a0e:	6c1b      	ldr	r3, [r3, #64]	@ 0x40
 8002a10:	4a07      	ldr	r2, [pc, #28]	@ (8002a30 <HAL_I2C_MspInit+0x12c>)
 8002a12:	f443 0300 	orr.w	r3, r3, #8388608	@ 0x800000
 8002a16:	6413      	str	r3, [r2, #64]	@ 0x40
 8002a18:	4b05      	ldr	r3, [pc, #20]	@ (8002a30 <HAL_I2C_MspInit+0x12c>)
 8002a1a:	6c1b      	ldr	r3, [r3, #64]	@ 0x40
 8002a1c:	f403 0300 	and.w	r3, r3, #8388608	@ 0x800000
 8002a20:	60bb      	str	r3, [r7, #8]
 8002a22:	68bb      	ldr	r3, [r7, #8]
}
 8002a24:	bf00      	nop
 8002a26:	3730      	adds	r7, #48	@ 0x30
 8002a28:	46bd      	mov	sp, r7
 8002a2a:	bd80      	pop	{r7, pc}
 8002a2c:	40005400 	.word	0x40005400
 8002a30:	40023800 	.word	0x40023800
 8002a34:	40020400 	.word	0x40020400
 8002a38:	40005c00 	.word	0x40005c00
 8002a3c:	40020800 	.word	0x40020800
 8002a40:	40020000 	.word	0x40020000

08002a44 <HAL_I2C_MspDeInit>:
* This function freeze the hardware resources used in this example
* @param hi2c: I2C handle pointer
* @retval None
*/
void HAL_I2C_MspDeInit(I2C_HandleTypeDef* hi2c)
{
 8002a44:	b580      	push	{r7, lr}
 8002a46:	b082      	sub	sp, #8
 8002a48:	af00      	add	r7, sp, #0
 8002a4a:	6078      	str	r0, [r7, #4]
  if(hi2c->Instance==I2C1)
 8002a4c:	687b      	ldr	r3, [r7, #4]
 8002a4e:	681b      	ldr	r3, [r3, #0]
 8002a50:	4a16      	ldr	r2, [pc, #88]	@ (8002aac <HAL_I2C_MspDeInit+0x68>)
 8002a52:	4293      	cmp	r3, r2
 8002a54:	d110      	bne.n	8002a78 <HAL_I2C_MspDeInit+0x34>
  {
  /* USER CODE BEGIN I2C1_MspDeInit 0 */

  /* USER CODE END I2C1_MspDeInit 0 */
    /* Peripheral clock disable */
    __HAL_RCC_I2C1_CLK_DISABLE();
 8002a56:	4b16      	ldr	r3, [pc, #88]	@ (8002ab0 <HAL_I2C_MspDeInit+0x6c>)
 8002a58:	6c1b      	ldr	r3, [r3, #64]	@ 0x40
 8002a5a:	4a15      	ldr	r2, [pc, #84]	@ (8002ab0 <HAL_I2C_MspDeInit+0x6c>)
 8002a5c:	f423 1300 	bic.w	r3, r3, #2097152	@ 0x200000
 8002a60:	6413      	str	r3, [r2, #64]	@ 0x40

    /**I2C1 GPIO Configuration
    PB8     ------> I2C1_SCL
    PB9     ------> I2C1_SDA
    */
    HAL_GPIO_DeInit(GPIOB, GPIO_PIN_8);
 8002a62:	f44f 7180 	mov.w	r1, #256	@ 0x100
 8002a66:	4813      	ldr	r0, [pc, #76]	@ (8002ab4 <HAL_I2C_MspDeInit+0x70>)
 8002a68:	f002 f92e 	bl	8004cc8 <HAL_GPIO_DeInit>

    HAL_GPIO_DeInit(GPIOB, GPIO_PIN_9);
 8002a6c:	f44f 7100 	mov.w	r1, #512	@ 0x200
 8002a70:	4810      	ldr	r0, [pc, #64]	@ (8002ab4 <HAL_I2C_MspDeInit+0x70>)
 8002a72:	f002 f929 	bl	8004cc8 <HAL_GPIO_DeInit>
  /* USER CODE BEGIN I2C3_MspDeInit 1 */

  /* USER CODE END I2C3_MspDeInit 1 */
  }

}
 8002a76:	e014      	b.n	8002aa2 <HAL_I2C_MspDeInit+0x5e>
  else if(hi2c->Instance==I2C3)
 8002a78:	687b      	ldr	r3, [r7, #4]
 8002a7a:	681b      	ldr	r3, [r3, #0]
 8002a7c:	4a0e      	ldr	r2, [pc, #56]	@ (8002ab8 <HAL_I2C_MspDeInit+0x74>)
 8002a7e:	4293      	cmp	r3, r2
 8002a80:	d10f      	bne.n	8002aa2 <HAL_I2C_MspDeInit+0x5e>
    __HAL_RCC_I2C3_CLK_DISABLE();
 8002a82:	4b0b      	ldr	r3, [pc, #44]	@ (8002ab0 <HAL_I2C_MspDeInit+0x6c>)
 8002a84:	6c1b      	ldr	r3, [r3, #64]	@ 0x40
 8002a86:	4a0a      	ldr	r2, [pc, #40]	@ (8002ab0 <HAL_I2C_MspDeInit+0x6c>)
 8002a88:	f423 0300 	bic.w	r3, r3, #8388608	@ 0x800000
 8002a8c:	6413      	str	r3, [r2, #64]	@ 0x40
    HAL_GPIO_DeInit(GPIOC, GPIO_PIN_9);
 8002a8e:	f44f 7100 	mov.w	r1, #512	@ 0x200
 8002a92:	480a      	ldr	r0, [pc, #40]	@ (8002abc <HAL_I2C_MspDeInit+0x78>)
 8002a94:	f002 f918 	bl	8004cc8 <HAL_GPIO_DeInit>
    HAL_GPIO_DeInit(GPIOA, GPIO_PIN_8);
 8002a98:	f44f 7180 	mov.w	r1, #256	@ 0x100
 8002a9c:	4808      	ldr	r0, [pc, #32]	@ (8002ac0 <HAL_I2C_MspDeInit+0x7c>)
 8002a9e:	f002 f913 	bl	8004cc8 <HAL_GPIO_DeInit>
}
 8002aa2:	bf00      	nop
 8002aa4:	3708      	adds	r7, #8
 8002aa6:	46bd      	mov	sp, r7
 8002aa8:	bd80      	pop	{r7, pc}
 8002aaa:	bf00      	nop
 8002aac:	40005400 	.word	0x40005400
 8002ab0:	40023800 	.word	0x40023800
 8002ab4:	40020400 	.word	0x40020400
 8002ab8:	40005c00 	.word	0x40005c00
 8002abc:	40020800 	.word	0x40020800
 8002ac0:	40020000 	.word	0x40020000

08002ac4 <HAL_RTC_MspInit>:
* This function configures the hardware resources used in this example
* @param hrtc: RTC handle pointer
* @retval None
*/
void HAL_RTC_MspInit(RTC_HandleTypeDef* hrtc)
{
 8002ac4:	b580      	push	{r7, lr}
 8002ac6:	b08e      	sub	sp, #56	@ 0x38
 8002ac8:	af00      	add	r7, sp, #0
 8002aca:	6078      	str	r0, [r7, #4]
  RCC_PeriphCLKInitTypeDef PeriphClkInitStruct = {0};
 8002acc:	f107 0308 	add.w	r3, r7, #8
 8002ad0:	2230      	movs	r2, #48	@ 0x30
 8002ad2:	2100      	movs	r1, #0
 8002ad4:	4618      	mov	r0, r3
 8002ad6:	f006 feeb 	bl	80098b0 <memset>
  if(hrtc->Instance==RTC)
 8002ada:	687b      	ldr	r3, [r7, #4]
 8002adc:	681b      	ldr	r3, [r3, #0]
 8002ade:	4a0c      	ldr	r2, [pc, #48]	@ (8002b10 <HAL_RTC_MspInit+0x4c>)
 8002ae0:	4293      	cmp	r3, r2
 8002ae2:	d111      	bne.n	8002b08 <HAL_RTC_MspInit+0x44>

  /* USER CODE END RTC_MspInit 0 */

  /** Initializes the peripherals clock
  */
    PeriphClkInitStruct.PeriphClockSelection = RCC_PERIPHCLK_RTC;
 8002ae4:	2320      	movs	r3, #32
 8002ae6:	60bb      	str	r3, [r7, #8]
    PeriphClkInitStruct.RTCClockSelection = RCC_RTCCLKSOURCE_LSI;
 8002ae8:	f44f 7300 	mov.w	r3, #512	@ 0x200
 8002aec:	633b      	str	r3, [r7, #48]	@ 0x30
    if (HAL_RCCEx_PeriphCLKConfig(&PeriphClkInitStruct) != HAL_OK)
 8002aee:	f107 0308 	add.w	r3, r7, #8
 8002af2:	4618      	mov	r0, r3
 8002af4:	f003 ff7e 	bl	80069f4 <HAL_RCCEx_PeriphCLKConfig>
 8002af8:	4603      	mov	r3, r0
 8002afa:	2b00      	cmp	r3, #0
 8002afc:	d001      	beq.n	8002b02 <HAL_RTC_MspInit+0x3e>
    {
      Error_Handler();
 8002afe:	f7ff f9f9 	bl	8001ef4 <Error_Handler>
    }

    /* Peripheral clock enable */
    __HAL_RCC_RTC_ENABLE();
 8002b02:	4b04      	ldr	r3, [pc, #16]	@ (8002b14 <HAL_RTC_MspInit+0x50>)
 8002b04:	2201      	movs	r2, #1
 8002b06:	601a      	str	r2, [r3, #0]

  /* USER CODE END RTC_MspInit 1 */

  }

}
 8002b08:	bf00      	nop
 8002b0a:	3738      	adds	r7, #56	@ 0x38
 8002b0c:	46bd      	mov	sp, r7
 8002b0e:	bd80      	pop	{r7, pc}
 8002b10:	40002800 	.word	0x40002800
 8002b14:	42470e3c 	.word	0x42470e3c

08002b18 <HAL_SPI_MspInit>:
* This function configures the hardware resources used in this example
* @param hspi: SPI handle pointer
* @retval None
*/
void HAL_SPI_MspInit(SPI_HandleTypeDef* hspi)
{
 8002b18:	b580      	push	{r7, lr}
 8002b1a:	b08c      	sub	sp, #48	@ 0x30
 8002b1c:	af00      	add	r7, sp, #0
 8002b1e:	6078      	str	r0, [r7, #4]
  GPIO_InitTypeDef GPIO_InitStruct = {0};
 8002b20:	f107 031c 	add.w	r3, r7, #28
 8002b24:	2200      	movs	r2, #0
 8002b26:	601a      	str	r2, [r3, #0]
 8002b28:	605a      	str	r2, [r3, #4]
 8002b2a:	609a      	str	r2, [r3, #8]
 8002b2c:	60da      	str	r2, [r3, #12]
 8002b2e:	611a      	str	r2, [r3, #16]
  if(hspi->Instance==SPI1)
 8002b30:	687b      	ldr	r3, [r7, #4]
 8002b32:	681b      	ldr	r3, [r3, #0]
 8002b34:	4a6f      	ldr	r2, [pc, #444]	@ (8002cf4 <HAL_SPI_MspInit+0x1dc>)
 8002b36:	4293      	cmp	r3, r2
 8002b38:	d15b      	bne.n	8002bf2 <HAL_SPI_MspInit+0xda>
  {
  /* USER CODE BEGIN SPI1_MspInit 0 */

  /* USER CODE END SPI1_MspInit 0 */
    /* Peripheral clock enable */
    __HAL_RCC_SPI1_CLK_ENABLE();
 8002b3a:	2300      	movs	r3, #0
 8002b3c:	61bb      	str	r3, [r7, #24]
 8002b3e:	4b6e      	ldr	r3, [pc, #440]	@ (8002cf8 <HAL_SPI_MspInit+0x1e0>)
 8002b40:	6c5b      	ldr	r3, [r3, #68]	@ 0x44
 8002b42:	4a6d      	ldr	r2, [pc, #436]	@ (8002cf8 <HAL_SPI_MspInit+0x1e0>)
 8002b44:	f443 5380 	orr.w	r3, r3, #4096	@ 0x1000
 8002b48:	6453      	str	r3, [r2, #68]	@ 0x44
 8002b4a:	4b6b      	ldr	r3, [pc, #428]	@ (8002cf8 <HAL_SPI_MspInit+0x1e0>)
 8002b4c:	6c5b      	ldr	r3, [r3, #68]	@ 0x44
 8002b4e:	f403 5380 	and.w	r3, r3, #4096	@ 0x1000
 8002b52:	61bb      	str	r3, [r7, #24]
 8002b54:	69bb      	ldr	r3, [r7, #24]

    __HAL_RCC_GPIOA_CLK_ENABLE();
 8002b56:	2300      	movs	r3, #0
 8002b58:	617b      	str	r3, [r7, #20]
 8002b5a:	4b67      	ldr	r3, [pc, #412]	@ (8002cf8 <HAL_SPI_MspInit+0x1e0>)
 8002b5c:	6b1b      	ldr	r3, [r3, #48]	@ 0x30
 8002b5e:	4a66      	ldr	r2, [pc, #408]	@ (8002cf8 <HAL_SPI_MspInit+0x1e0>)
 8002b60:	f043 0301 	orr.w	r3, r3, #1
 8002b64:	6313      	str	r3, [r2, #48]	@ 0x30
 8002b66:	4b64      	ldr	r3, [pc, #400]	@ (8002cf8 <HAL_SPI_MspInit+0x1e0>)
 8002b68:	6b1b      	ldr	r3, [r3, #48]	@ 0x30
 8002b6a:	f003 0301 	and.w	r3, r3, #1
 8002b6e:	617b      	str	r3, [r7, #20]
 8002b70:	697b      	ldr	r3, [r7, #20]
    /**SPI1 GPIO Configuration
    PA5     ------> SPI1_SCK
    PA6     ------> SPI1_MISO
    PA7     ------> SPI1_MOSI
    */
    GPIO_InitStruct.Pin = GPIO_PIN_5|GPIO_PIN_6|GPIO_PIN_7;
 8002b72:	23e0      	movs	r3, #224	@ 0xe0
 8002b74:	61fb      	str	r3, [r7, #28]
    GPIO_InitStruct.Mode = GPIO_MODE_AF_PP;
 8002b76:	2302      	movs	r3, #2
 8002b78:	623b      	str	r3, [r7, #32]
    GPIO_InitStruct.Pull = GPIO_NOPULL;
 8002b7a:	2300      	movs	r3, #0
 8002b7c:	627b      	str	r3, [r7, #36]	@ 0x24
    GPIO_InitStruct.Speed = GPIO_SPEED_FREQ_VERY_HIGH;
 8002b7e:	2303      	movs	r3, #3
 8002b80:	62bb      	str	r3, [r7, #40]	@ 0x28
    GPIO_InitStruct.Alternate = GPIO_AF5_SPI1;
 8002b82:	2305      	movs	r3, #5
 8002b84:	62fb      	str	r3, [r7, #44]	@ 0x2c
    HAL_GPIO_Init(GPIOA, &GPIO_InitStruct);
 8002b86:	f107 031c 	add.w	r3, r7, #28
 8002b8a:	4619      	mov	r1, r3
 8002b8c:	485b      	ldr	r0, [pc, #364]	@ (8002cfc <HAL_SPI_MspInit+0x1e4>)
 8002b8e:	f001 feef 	bl	8004970 <HAL_GPIO_Init>

    /* SPI1 DMA Init */
    /* SPI1_TX Init */
    hdma_spi1_tx.Instance = DMA2_Stream3;
 8002b92:	4b5b      	ldr	r3, [pc, #364]	@ (8002d00 <HAL_SPI_MspInit+0x1e8>)
 8002b94:	4a5b      	ldr	r2, [pc, #364]	@ (8002d04 <HAL_SPI_MspInit+0x1ec>)
 8002b96:	601a      	str	r2, [r3, #0]
    hdma_spi1_tx.Init.Channel = DMA_CHANNEL_3;
 8002b98:	4b59      	ldr	r3, [pc, #356]	@ (8002d00 <HAL_SPI_MspInit+0x1e8>)
 8002b9a:	f04f 62c0 	mov.w	r2, #100663296	@ 0x6000000
 8002b9e:	605a      	str	r2, [r3, #4]
    hdma_spi1_tx.Init.Direction = DMA_MEMORY_TO_PERIPH;
 8002ba0:	4b57      	ldr	r3, [pc, #348]	@ (8002d00 <HAL_SPI_MspInit+0x1e8>)
 8002ba2:	2240      	movs	r2, #64	@ 0x40
 8002ba4:	609a      	str	r2, [r3, #8]
    hdma_spi1_tx.Init.PeriphInc = DMA_PINC_DISABLE;
 8002ba6:	4b56      	ldr	r3, [pc, #344]	@ (8002d00 <HAL_SPI_MspInit+0x1e8>)
 8002ba8:	2200      	movs	r2, #0
 8002baa:	60da      	str	r2, [r3, #12]
    hdma_spi1_tx.Init.MemInc = DMA_MINC_ENABLE;
 8002bac:	4b54      	ldr	r3, [pc, #336]	@ (8002d00 <HAL_SPI_MspInit+0x1e8>)
 8002bae:	f44f 6280 	mov.w	r2, #1024	@ 0x400
 8002bb2:	611a      	str	r2, [r3, #16]
    hdma_spi1_tx.Init.PeriphDataAlignment = DMA_PDATAALIGN_BYTE;
 8002bb4:	4b52      	ldr	r3, [pc, #328]	@ (8002d00 <HAL_SPI_MspInit+0x1e8>)
 8002bb6:	2200      	movs	r2, #0
 8002bb8:	615a      	str	r2, [r3, #20]
    hdma_spi1_tx.Init.MemDataAlignment = DMA_MDATAALIGN_BYTE;
 8002bba:	4b51      	ldr	r3, [pc, #324]	@ (8002d00 <HAL_SPI_MspInit+0x1e8>)
 8002bbc:	2200      	movs	r2, #0
 8002bbe:	619a      	str	r2, [r3, #24]
    hdma_spi1_tx.Init.Mode = DMA_NORMAL;
 8002bc0:	4b4f      	ldr	r3, [pc, #316]	@ (8002d00 <HAL_SPI_MspInit+0x1e8>)
 8002bc2:	2200      	movs	r2, #0
 8002bc4:	61da      	str	r2, [r3, #28]
    hdma_spi1_tx.Init.Priority = DMA_PRIORITY_MEDIUM;
 8002bc6:	4b4e      	ldr	r3, [pc, #312]	@ (8002d00 <HAL_SPI_MspInit+0x1e8>)
 8002bc8:	f44f 3280 	mov.w	r2, #65536	@ 0x10000
 8002bcc:	621a      	str	r2, [r3, #32]
    hdma_spi1_tx.Init.FIFOMode = DMA_FIFOMODE_DISABLE;
 8002bce:	4b4c      	ldr	r3, [pc, #304]	@ (8002d00 <HAL_SPI_MspInit+0x1e8>)
 8002bd0:	2200      	movs	r2, #0
 8002bd2:	625a      	str	r2, [r3, #36]	@ 0x24
    if (HAL_DMA_Init(&hdma_spi1_tx) != HAL_OK)
 8002bd4:	484a      	ldr	r0, [pc, #296]	@ (8002d00 <HAL_SPI_MspInit+0x1e8>)
 8002bd6:	f001 fac9 	bl	800416c <HAL_DMA_Init>
 8002bda:	4603      	mov	r3, r0
 8002bdc:	2b00      	cmp	r3, #0
 8002bde:	d001      	beq.n	8002be4 <HAL_SPI_MspInit+0xcc>
    {
      Error_Handler();
 8002be0:	f7ff f988 	bl	8001ef4 <Error_Handler>
    }

    __HAL_LINKDMA(hspi,hdmatx,hdma_spi1_tx);
 8002be4:	687b      	ldr	r3, [r7, #4]
 8002be6:	4a46      	ldr	r2, [pc, #280]	@ (8002d00 <HAL_SPI_MspInit+0x1e8>)
 8002be8:	649a      	str	r2, [r3, #72]	@ 0x48
 8002bea:	4a45      	ldr	r2, [pc, #276]	@ (8002d00 <HAL_SPI_MspInit+0x1e8>)
 8002bec:	687b      	ldr	r3, [r7, #4]
 8002bee:	6393      	str	r3, [r2, #56]	@ 0x38
  /* USER CODE BEGIN SPI2_MspInit 1 */

  /* USER CODE END SPI2_MspInit 1 */
  }

}
 8002bf0:	e07c      	b.n	8002cec <HAL_SPI_MspInit+0x1d4>
  else if(hspi->Instance==SPI2)
 8002bf2:	687b      	ldr	r3, [r7, #4]
 8002bf4:	681b      	ldr	r3, [r3, #0]
 8002bf6:	4a44      	ldr	r2, [pc, #272]	@ (8002d08 <HAL_SPI_MspInit+0x1f0>)
 8002bf8:	4293      	cmp	r3, r2
 8002bfa:	d177      	bne.n	8002cec <HAL_SPI_MspInit+0x1d4>
    __HAL_RCC_SPI2_CLK_ENABLE();
 8002bfc:	2300      	movs	r3, #0
 8002bfe:	613b      	str	r3, [r7, #16]
 8002c00:	4b3d      	ldr	r3, [pc, #244]	@ (8002cf8 <HAL_SPI_MspInit+0x1e0>)
 8002c02:	6c1b      	ldr	r3, [r3, #64]	@ 0x40
 8002c04:	4a3c      	ldr	r2, [pc, #240]	@ (8002cf8 <HAL_SPI_MspInit+0x1e0>)
 8002c06:	f443 4380 	orr.w	r3, r3, #16384	@ 0x4000
 8002c0a:	6413      	str	r3, [r2, #64]	@ 0x40
 8002c0c:	4b3a      	ldr	r3, [pc, #232]	@ (8002cf8 <HAL_SPI_MspInit+0x1e0>)
 8002c0e:	6c1b      	ldr	r3, [r3, #64]	@ 0x40
 8002c10:	f403 4380 	and.w	r3, r3, #16384	@ 0x4000
 8002c14:	613b      	str	r3, [r7, #16]
 8002c16:	693b      	ldr	r3, [r7, #16]
    __HAL_RCC_GPIOC_CLK_ENABLE();
 8002c18:	2300      	movs	r3, #0
 8002c1a:	60fb      	str	r3, [r7, #12]
 8002c1c:	4b36      	ldr	r3, [pc, #216]	@ (8002cf8 <HAL_SPI_MspInit+0x1e0>)
 8002c1e:	6b1b      	ldr	r3, [r3, #48]	@ 0x30
 8002c20:	4a35      	ldr	r2, [pc, #212]	@ (8002cf8 <HAL_SPI_MspInit+0x1e0>)
 8002c22:	f043 0304 	orr.w	r3, r3, #4
 8002c26:	6313      	str	r3, [r2, #48]	@ 0x30
 8002c28:	4b33      	ldr	r3, [pc, #204]	@ (8002cf8 <HAL_SPI_MspInit+0x1e0>)
 8002c2a:	6b1b      	ldr	r3, [r3, #48]	@ 0x30
 8002c2c:	f003 0304 	and.w	r3, r3, #4
 8002c30:	60fb      	str	r3, [r7, #12]
 8002c32:	68fb      	ldr	r3, [r7, #12]
    __HAL_RCC_GPIOD_CLK_ENABLE();
 8002c34:	2300      	movs	r3, #0
 8002c36:	60bb      	str	r3, [r7, #8]
 8002c38:	4b2f      	ldr	r3, [pc, #188]	@ (8002cf8 <HAL_SPI_MspInit+0x1e0>)
 8002c3a:	6b1b      	ldr	r3, [r3, #48]	@ 0x30
 8002c3c:	4a2e      	ldr	r2, [pc, #184]	@ (8002cf8 <HAL_SPI_MspInit+0x1e0>)
 8002c3e:	f043 0308 	orr.w	r3, r3, #8
 8002c42:	6313      	str	r3, [r2, #48]	@ 0x30
 8002c44:	4b2c      	ldr	r3, [pc, #176]	@ (8002cf8 <HAL_SPI_MspInit+0x1e0>)
 8002c46:	6b1b      	ldr	r3, [r3, #48]	@ 0x30
 8002c48:	f003 0308 	and.w	r3, r3, #8
 8002c4c:	60bb      	str	r3, [r7, #8]
 8002c4e:	68bb      	ldr	r3, [r7, #8]
    GPIO_InitStruct.Pin = GPIO_PIN_2|GPIO_PIN_3;
 8002c50:	230c      	movs	r3, #12
 8002c52:	61fb      	str	r3, [r7, #28]
    GPIO_InitStruct.Mode = GPIO_MODE_AF_PP;
 8002c54:	2302      	movs	r3, #2
 8002c56:	623b      	str	r3, [r7, #32]
    GPIO_InitStruct.Pull = GPIO_NOPULL;
 8002c58:	2300      	movs	r3, #0
 8002c5a:	627b      	str	r3, [r7, #36]	@ 0x24
    GPIO_InitStruct.Speed = GPIO_SPEED_FREQ_VERY_HIGH;
 8002c5c:	2303      	movs	r3, #3
 8002c5e:	62bb      	str	r3, [r7, #40]	@ 0x28
    GPIO_InitStruct.Alternate = GPIO_AF5_SPI2;
 8002c60:	2305      	movs	r3, #5
 8002c62:	62fb      	str	r3, [r7, #44]	@ 0x2c
    HAL_GPIO_Init(GPIOC, &GPIO_InitStruct);
 8002c64:	f107 031c 	add.w	r3, r7, #28
 8002c68:	4619      	mov	r1, r3
 8002c6a:	4828      	ldr	r0, [pc, #160]	@ (8002d0c <HAL_SPI_MspInit+0x1f4>)
 8002c6c:	f001 fe80 	bl	8004970 <HAL_GPIO_Init>
    GPIO_InitStruct.Pin = GPIO_PIN_3;
 8002c70:	2308      	movs	r3, #8
 8002c72:	61fb      	str	r3, [r7, #28]
    GPIO_InitStruct.Mode = GPIO_MODE_AF_PP;
 8002c74:	2302      	movs	r3, #2
 8002c76:	623b      	str	r3, [r7, #32]
    GPIO_InitStruct.Pull = GPIO_NOPULL;
 8002c78:	2300      	movs	r3, #0
 8002c7a:	627b      	str	r3, [r7, #36]	@ 0x24
    GPIO_InitStruct.Speed = GPIO_SPEED_FREQ_VERY_HIGH;
 8002c7c:	2303      	movs	r3, #3
 8002c7e:	62bb      	str	r3, [r7, #40]	@ 0x28
    GPIO_InitStruct.Alternate = GPIO_AF5_SPI2;
 8002c80:	2305      	movs	r3, #5
 8002c82:	62fb      	str	r3, [r7, #44]	@ 0x2c
    HAL_GPIO_Init(GPIOD, &GPIO_InitStruct);
 8002c84:	f107 031c 	add.w	r3, r7, #28
 8002c88:	4619      	mov	r1, r3
 8002c8a:	4821      	ldr	r0, [pc, #132]	@ (8002d10 <HAL_SPI_MspInit+0x1f8>)
 8002c8c:	f001 fe70 	bl	8004970 <HAL_GPIO_Init>
    hdma_spi2_tx.Instance = DMA1_Stream4;
 8002c90:	4b20      	ldr	r3, [pc, #128]	@ (8002d14 <HAL_SPI_MspInit+0x1fc>)
 8002c92:	4a21      	ldr	r2, [pc, #132]	@ (8002d18 <HAL_SPI_MspInit+0x200>)
 8002c94:	601a      	str	r2, [r3, #0]
    hdma_spi2_tx.Init.Channel = DMA_CHANNEL_0;
 8002c96:	4b1f      	ldr	r3, [pc, #124]	@ (8002d14 <HAL_SPI_MspInit+0x1fc>)
 8002c98:	2200      	movs	r2, #0
 8002c9a:	605a      	str	r2, [r3, #4]
    hdma_spi2_tx.Init.Direction = DMA_MEMORY_TO_PERIPH;
 8002c9c:	4b1d      	ldr	r3, [pc, #116]	@ (8002d14 <HAL_SPI_MspInit+0x1fc>)
 8002c9e:	2240      	movs	r2, #64	@ 0x40
 8002ca0:	609a      	str	r2, [r3, #8]
    hdma_spi2_tx.Init.PeriphInc = DMA_PINC_DISABLE;
 8002ca2:	4b1c      	ldr	r3, [pc, #112]	@ (8002d14 <HAL_SPI_MspInit+0x1fc>)
 8002ca4:	2200      	movs	r2, #0
 8002ca6:	60da      	str	r2, [r3, #12]
    hdma_spi2_tx.Init.MemInc = DMA_MINC_ENABLE;
 8002ca8:	4b1a      	ldr	r3, [pc, #104]	@ (8002d14 <HAL_SPI_MspInit+0x1fc>)
 8002caa:	f44f 6280 	mov.w	r2, #1024	@ 0x400
 8002cae:	611a      	str	r2, [r3, #16]
    hdma_spi2_tx.Init.PeriphDataAlignment = DMA_PDATAALIGN_BYTE;
 8002cb0:	4b18      	ldr	r3, [pc, #96]	@ (8002d14 <HAL_SPI_MspInit+0x1fc>)
 8002cb2:	2200      	movs	r2, #0
 8002cb4:	615a      	str	r2, [r3, #20]
    hdma_spi2_tx.Init.MemDataAlignment = DMA_MDATAALIGN_BYTE;
 8002cb6:	4b17      	ldr	r3, [pc, #92]	@ (8002d14 <HAL_SPI_MspInit+0x1fc>)
 8002cb8:	2200      	movs	r2, #0
 8002cba:	619a      	str	r2, [r3, #24]
    hdma_spi2_tx.Init.Mode = DMA_NORMAL;
 8002cbc:	4b15      	ldr	r3, [pc, #84]	@ (8002d14 <HAL_SPI_MspInit+0x1fc>)
 8002cbe:	2200      	movs	r2, #0
 8002cc0:	61da      	str	r2, [r3, #28]
    hdma_spi2_tx.Init.Priority = DMA_PRIORITY_MEDIUM;
 8002cc2:	4b14      	ldr	r3, [pc, #80]	@ (8002d14 <HAL_SPI_MspInit+0x1fc>)
 8002cc4:	f44f 3280 	mov.w	r2, #65536	@ 0x10000
 8002cc8:	621a      	str	r2, [r3, #32]
    hdma_spi2_tx.Init.FIFOMode = DMA_FIFOMODE_DISABLE;
 8002cca:	4b12      	ldr	r3, [pc, #72]	@ (8002d14 <HAL_SPI_MspInit+0x1fc>)
 8002ccc:	2200      	movs	r2, #0
 8002cce:	625a      	str	r2, [r3, #36]	@ 0x24
    if (HAL_DMA_Init(&hdma_spi2_tx) != HAL_OK)
 8002cd0:	4810      	ldr	r0, [pc, #64]	@ (8002d14 <HAL_SPI_MspInit+0x1fc>)
 8002cd2:	f001 fa4b 	bl	800416c <HAL_DMA_Init>
 8002cd6:	4603      	mov	r3, r0
 8002cd8:	2b00      	cmp	r3, #0
 8002cda:	d001      	beq.n	8002ce0 <HAL_SPI_MspInit+0x1c8>
      Error_Handler();
 8002cdc:	f7ff f90a 	bl	8001ef4 <Error_Handler>
    __HAL_LINKDMA(hspi,hdmatx,hdma_spi2_tx);
 8002ce0:	687b      	ldr	r3, [r7, #4]
 8002ce2:	4a0c      	ldr	r2, [pc, #48]	@ (8002d14 <HAL_SPI_MspInit+0x1fc>)
 8002ce4:	649a      	str	r2, [r3, #72]	@ 0x48
 8002ce6:	4a0b      	ldr	r2, [pc, #44]	@ (8002d14 <HAL_SPI_MspInit+0x1fc>)
 8002ce8:	687b      	ldr	r3, [r7, #4]
 8002cea:	6393      	str	r3, [r2, #56]	@ 0x38
}
 8002cec:	bf00      	nop
 8002cee:	3730      	adds	r7, #48	@ 0x30
 8002cf0:	46bd      	mov	sp, r7
 8002cf2:	bd80      	pop	{r7, pc}
 8002cf4:	40013000 	.word	0x40013000
 8002cf8:	40023800 	.word	0x40023800
 8002cfc:	40020000 	.word	0x40020000
 8002d00:	200001e8 	.word	0x200001e8
 8002d04:	40026458 	.word	0x40026458
 8002d08:	40003800 	.word	0x40003800
 8002d0c:	40020800 	.word	0x40020800
 8002d10:	40020c00 	.word	0x40020c00
 8002d14:	20000248 	.word	0x20000248
 8002d18:	40026070 	.word	0x40026070

08002d1c <HAL_TIM_Base_MspInit>:
* This function configures the hardware resources used in this example
* @param htim_base: TIM_Base handle pointer
* @retval None
*/
void HAL_TIM_Base_MspInit(TIM_HandleTypeDef* htim_base)
{
 8002d1c:	b580      	push	{r7, lr}
 8002d1e:	b084      	sub	sp, #16
 8002d20:	af00      	add	r7, sp, #0
 8002d22:	6078      	str	r0, [r7, #4]
  if(htim_base->Instance==TIM6)
 8002d24:	687b      	ldr	r3, [r7, #4]
 8002d26:	681b      	ldr	r3, [r3, #0]
 8002d28:	4a1c      	ldr	r2, [pc, #112]	@ (8002d9c <HAL_TIM_Base_MspInit+0x80>)
 8002d2a:	4293      	cmp	r3, r2
 8002d2c:	d116      	bne.n	8002d5c <HAL_TIM_Base_MspInit+0x40>
  {
  /* USER CODE BEGIN TIM6_MspInit 0 */

  /* USER CODE END TIM6_MspInit 0 */
    /* Peripheral clock enable */
    __HAL_RCC_TIM6_CLK_ENABLE();
 8002d2e:	2300      	movs	r3, #0
 8002d30:	60fb      	str	r3, [r7, #12]
 8002d32:	4b1b      	ldr	r3, [pc, #108]	@ (8002da0 <HAL_TIM_Base_MspInit+0x84>)
 8002d34:	6c1b      	ldr	r3, [r3, #64]	@ 0x40
 8002d36:	4a1a      	ldr	r2, [pc, #104]	@ (8002da0 <HAL_TIM_Base_MspInit+0x84>)
 8002d38:	f043 0310 	orr.w	r3, r3, #16
 8002d3c:	6413      	str	r3, [r2, #64]	@ 0x40
 8002d3e:	4b18      	ldr	r3, [pc, #96]	@ (8002da0 <HAL_TIM_Base_MspInit+0x84>)
 8002d40:	6c1b      	ldr	r3, [r3, #64]	@ 0x40
 8002d42:	f003 0310 	and.w	r3, r3, #16
 8002d46:	60fb      	str	r3, [r7, #12]
 8002d48:	68fb      	ldr	r3, [r7, #12]
    /* TIM6 interrupt Init */
    HAL_NVIC_SetPriority(TIM6_DAC_IRQn, 0, 0);
 8002d4a:	2200      	movs	r2, #0
 8002d4c:	2100      	movs	r1, #0
 8002d4e:	2036      	movs	r0, #54	@ 0x36
 8002d50:	f001 f9d5 	bl	80040fe <HAL_NVIC_SetPriority>
    HAL_NVIC_EnableIRQ(TIM6_DAC_IRQn);
 8002d54:	2036      	movs	r0, #54	@ 0x36
 8002d56:	f001 f9ee 	bl	8004136 <HAL_NVIC_EnableIRQ>
  /* USER CODE BEGIN TIM7_MspInit 1 */

  /* USER CODE END TIM7_MspInit 1 */
  }

}
 8002d5a:	e01a      	b.n	8002d92 <HAL_TIM_Base_MspInit+0x76>
  else if(htim_base->Instance==TIM7)
 8002d5c:	687b      	ldr	r3, [r7, #4]
 8002d5e:	681b      	ldr	r3, [r3, #0]
 8002d60:	4a10      	ldr	r2, [pc, #64]	@ (8002da4 <HAL_TIM_Base_MspInit+0x88>)
 8002d62:	4293      	cmp	r3, r2
 8002d64:	d115      	bne.n	8002d92 <HAL_TIM_Base_MspInit+0x76>
    __HAL_RCC_TIM7_CLK_ENABLE();
 8002d66:	2300      	movs	r3, #0
 8002d68:	60bb      	str	r3, [r7, #8]
 8002d6a:	4b0d      	ldr	r3, [pc, #52]	@ (8002da0 <HAL_TIM_Base_MspInit+0x84>)
 8002d6c:	6c1b      	ldr	r3, [r3, #64]	@ 0x40
 8002d6e:	4a0c      	ldr	r2, [pc, #48]	@ (8002da0 <HAL_TIM_Base_MspInit+0x84>)
 8002d70:	f043 0320 	orr.w	r3, r3, #32
 8002d74:	6413      	str	r3, [r2, #64]	@ 0x40
 8002d76:	4b0a      	ldr	r3, [pc, #40]	@ (8002da0 <HAL_TIM_Base_MspInit+0x84>)
 8002d78:	6c1b      	ldr	r3, [r3, #64]	@ 0x40
 8002d7a:	f003 0320 	and.w	r3, r3, #32
 8002d7e:	60bb      	str	r3, [r7, #8]
 8002d80:	68bb      	ldr	r3, [r7, #8]
    HAL_NVIC_SetPriority(TIM7_IRQn, 0, 0);
 8002d82:	2200      	movs	r2, #0
 8002d84:	2100      	movs	r1, #0
 8002d86:	2037      	movs	r0, #55	@ 0x37
 8002d88:	f001 f9b9 	bl	80040fe <HAL_NVIC_SetPriority>
    HAL_NVIC_EnableIRQ(TIM7_IRQn);
 8002d8c:	2037      	movs	r0, #55	@ 0x37
 8002d8e:	f001 f9d2 	bl	8004136 <HAL_NVIC_EnableIRQ>
}
 8002d92:	bf00      	nop
 8002d94:	3710      	adds	r7, #16
 8002d96:	46bd      	mov	sp, r7
 8002d98:	bd80      	pop	{r7, pc}
 8002d9a:	bf00      	nop
 8002d9c:	40001000 	.word	0x40001000
 8002da0:	40023800 	.word	0x40023800
 8002da4:	40001400 	.word	0x40001400

08002da8 <HAL_UART_MspInit>:
* This function configures the hardware resources used in this example
* @param huart: UART handle pointer
* @retval None
*/
void HAL_UART_MspInit(UART_HandleTypeDef* huart)
{
 8002da8:	b580      	push	{r7, lr}
 8002daa:	b08a      	sub	sp, #40	@ 0x28
 8002dac:	af00      	add	r7, sp, #0
 8002dae:	6078      	str	r0, [r7, #4]
  GPIO_InitTypeDef GPIO_InitStruct = {0};
 8002db0:	f107 0314 	add.w	r3, r7, #20
 8002db4:	2200      	movs	r2, #0
 8002db6:	601a      	str	r2, [r3, #0]
 8002db8:	605a      	str	r2, [r3, #4]
 8002dba:	609a      	str	r2, [r3, #8]
 8002dbc:	60da      	str	r2, [r3, #12]
 8002dbe:	611a      	str	r2, [r3, #16]
  if(huart->Instance==USART2)
 8002dc0:	687b      	ldr	r3, [r7, #4]
 8002dc2:	681b      	ldr	r3, [r3, #0]
 8002dc4:	4a1d      	ldr	r2, [pc, #116]	@ (8002e3c <HAL_UART_MspInit+0x94>)
 8002dc6:	4293      	cmp	r3, r2
 8002dc8:	d133      	bne.n	8002e32 <HAL_UART_MspInit+0x8a>
  {
  /* USER CODE BEGIN USART2_MspInit 0 */

  /* USER CODE END USART2_MspInit 0 */
    /* Peripheral clock enable */
    __HAL_RCC_USART2_CLK_ENABLE();
 8002dca:	2300      	movs	r3, #0
 8002dcc:	613b      	str	r3, [r7, #16]
 8002dce:	4b1c      	ldr	r3, [pc, #112]	@ (8002e40 <HAL_UART_MspInit+0x98>)
 8002dd0:	6c1b      	ldr	r3, [r3, #64]	@ 0x40
 8002dd2:	4a1b      	ldr	r2, [pc, #108]	@ (8002e40 <HAL_UART_MspInit+0x98>)
 8002dd4:	f443 3300 	orr.w	r3, r3, #131072	@ 0x20000
 8002dd8:	6413      	str	r3, [r2, #64]	@ 0x40
 8002dda:	4b19      	ldr	r3, [pc, #100]	@ (8002e40 <HAL_UART_MspInit+0x98>)
 8002ddc:	6c1b      	ldr	r3, [r3, #64]	@ 0x40
 8002dde:	f403 3300 	and.w	r3, r3, #131072	@ 0x20000
 8002de2:	613b      	str	r3, [r7, #16]
 8002de4:	693b      	ldr	r3, [r7, #16]

    __HAL_RCC_GPIOD_CLK_ENABLE();
 8002de6:	2300      	movs	r3, #0
 8002de8:	60fb      	str	r3, [r7, #12]
 8002dea:	4b15      	ldr	r3, [pc, #84]	@ (8002e40 <HAL_UART_MspInit+0x98>)
 8002dec:	6b1b      	ldr	r3, [r3, #48]	@ 0x30
 8002dee:	4a14      	ldr	r2, [pc, #80]	@ (8002e40 <HAL_UART_MspInit+0x98>)
 8002df0:	f043 0308 	orr.w	r3, r3, #8
 8002df4:	6313      	str	r3, [r2, #48]	@ 0x30
 8002df6:	4b12      	ldr	r3, [pc, #72]	@ (8002e40 <HAL_UART_MspInit+0x98>)
 8002df8:	6b1b      	ldr	r3, [r3, #48]	@ 0x30
 8002dfa:	f003 0308 	and.w	r3, r3, #8
 8002dfe:	60fb      	str	r3, [r7, #12]
 8002e00:	68fb      	ldr	r3, [r7, #12]
    /**USART2 GPIO Configuration
    PD5     ------> USART2_TX
    PD6     ------> USART2_RX
    */
    GPIO_InitStruct.Pin = GPIO_PIN_5|GPIO_PIN_6;
 8002e02:	2360      	movs	r3, #96	@ 0x60
 8002e04:	617b      	str	r3, [r7, #20]
    GPIO_InitStruct.Mode = GPIO_MODE_AF_PP;
 8002e06:	2302      	movs	r3, #2
 8002e08:	61bb      	str	r3, [r7, #24]
    GPIO_InitStruct.Pull = GPIO_NOPULL;
 8002e0a:	2300      	movs	r3, #0
 8002e0c:	61fb      	str	r3, [r7, #28]
    GPIO_InitStruct.Speed = GPIO_SPEED_FREQ_VERY_HIGH;
 8002e0e:	2303      	movs	r3, #3
 8002e10:	623b      	str	r3, [r7, #32]
    GPIO_InitStruct.Alternate = GPIO_AF7_USART2;
 8002e12:	2307      	movs	r3, #7
 8002e14:	627b      	str	r3, [r7, #36]	@ 0x24
    HAL_GPIO_Init(GPIOD, &GPIO_InitStruct);
 8002e16:	f107 0314 	add.w	r3, r7, #20
 8002e1a:	4619      	mov	r1, r3
 8002e1c:	4809      	ldr	r0, [pc, #36]	@ (8002e44 <HAL_UART_MspInit+0x9c>)
 8002e1e:	f001 fda7 	bl	8004970 <HAL_GPIO_Init>

    /* USART2 interrupt Init */
    HAL_NVIC_SetPriority(USART2_IRQn, 0, 0);
 8002e22:	2200      	movs	r2, #0
 8002e24:	2100      	movs	r1, #0
 8002e26:	2026      	movs	r0, #38	@ 0x26
 8002e28:	f001 f969 	bl	80040fe <HAL_NVIC_SetPriority>
    HAL_NVIC_EnableIRQ(USART2_IRQn);
 8002e2c:	2026      	movs	r0, #38	@ 0x26
 8002e2e:	f001 f982 	bl	8004136 <HAL_NVIC_EnableIRQ>

  /* USER CODE END USART2_MspInit 1 */

  }

}
 8002e32:	bf00      	nop
 8002e34:	3728      	adds	r7, #40	@ 0x28
 8002e36:	46bd      	mov	sp, r7
 8002e38:	bd80      	pop	{r7, pc}
 8002e3a:	bf00      	nop
 8002e3c:	40004400 	.word	0x40004400
 8002e40:	40023800 	.word	0x40023800
 8002e44:	40020c00 	.word	0x40020c00

08002e48 <NMI_Handler>:
/******************************************************************************/
/**
  * @brief This function handles Non maskable interrupt.
  */
void NMI_Handler(void)
{
 8002e48:	b480      	push	{r7}
 8002e4a:	af00      	add	r7, sp, #0
  /* USER CODE BEGIN NonMaskableInt_IRQn 0 */

  /* USER CODE END NonMaskableInt_IRQn 0 */
  /* USER CODE BEGIN NonMaskableInt_IRQn 1 */
  while (1)
 8002e4c:	bf00      	nop
 8002e4e:	e7fd      	b.n	8002e4c <NMI_Handler+0x4>

08002e50 <HardFault_Handler>:

/**
  * @brief This function handles Hard fault interrupt.
  */
void HardFault_Handler(void)
{
 8002e50:	b480      	push	{r7}
 8002e52:	af00      	add	r7, sp, #0
  /* USER CODE BEGIN HardFault_IRQn 0 */

  /* USER CODE END HardFault_IRQn 0 */
  while (1)
 8002e54:	bf00      	nop
 8002e56:	e7fd      	b.n	8002e54 <HardFault_Handler+0x4>

08002e58 <MemManage_Handler>:

/**
  * @brief This function handles Memory management fault.
  */
void MemManage_Handler(void)
{
 8002e58:	b480      	push	{r7}
 8002e5a:	af00      	add	r7, sp, #0
  /* USER CODE BEGIN MemoryManagement_IRQn 0 */

  /* USER CODE END MemoryManagement_IRQn 0 */
  while (1)
 8002e5c:	bf00      	nop
 8002e5e:	e7fd      	b.n	8002e5c <MemManage_Handler+0x4>

08002e60 <BusFault_Handler>:

/**
  * @brief This function handles Pre-fetch fault, memory access fault.
  */
void BusFault_Handler(void)
{
 8002e60:	b480      	push	{r7}
 8002e62:	af00      	add	r7, sp, #0
  /* USER CODE BEGIN BusFault_IRQn 0 */

  /* USER CODE END BusFault_IRQn 0 */
  while (1)
 8002e64:	bf00      	nop
 8002e66:	e7fd      	b.n	8002e64 <BusFault_Handler+0x4>

08002e68 <UsageFault_Handler>:

/**
  * @brief This function handles Undefined instruction or illegal state.
  */
void UsageFault_Handler(void)
{
 8002e68:	b480      	push	{r7}
 8002e6a:	af00      	add	r7, sp, #0
  /* USER CODE BEGIN UsageFault_IRQn 0 */

  /* USER CODE END UsageFault_IRQn 0 */
  while (1)
 8002e6c:	bf00      	nop
 8002e6e:	e7fd      	b.n	8002e6c <UsageFault_Handler+0x4>

08002e70 <SVC_Handler>:

/**
  * @brief This function handles System service call via SWI instruction.
  */
void SVC_Handler(void)
{
 8002e70:	b480      	push	{r7}
 8002e72:	af00      	add	r7, sp, #0

  /* USER CODE END SVCall_IRQn 0 */
  /* USER CODE BEGIN SVCall_IRQn 1 */

  /* USER CODE END SVCall_IRQn 1 */
}
 8002e74:	bf00      	nop
 8002e76:	46bd      	mov	sp, r7
 8002e78:	f85d 7b04 	ldr.w	r7, [sp], #4
 8002e7c:	4770      	bx	lr

08002e7e <DebugMon_Handler>:

/**
  * @brief This function handles Debug monitor.
  */
void DebugMon_Handler(void)
{
 8002e7e:	b480      	push	{r7}
 8002e80:	af00      	add	r7, sp, #0

  /* USER CODE END DebugMonitor_IRQn 0 */
  /* USER CODE BEGIN DebugMonitor_IRQn 1 */

  /* USER CODE END DebugMonitor_IRQn 1 */
}
 8002e82:	bf00      	nop
 8002e84:	46bd      	mov	sp, r7
 8002e86:	f85d 7b04 	ldr.w	r7, [sp], #4
 8002e8a:	4770      	bx	lr

08002e8c <PendSV_Handler>:

/**
  * @brief This function handles Pendable request for system service.
  */
void PendSV_Handler(void)
{
 8002e8c:	b480      	push	{r7}
 8002e8e:	af00      	add	r7, sp, #0

  /* USER CODE END PendSV_IRQn 0 */
  /* USER CODE BEGIN PendSV_IRQn 1 */

  /* USER CODE END PendSV_IRQn 1 */
}
 8002e90:	bf00      	nop
 8002e92:	46bd      	mov	sp, r7
 8002e94:	f85d 7b04 	ldr.w	r7, [sp], #4
 8002e98:	4770      	bx	lr

08002e9a <SysTick_Handler>:

/**
  * @brief This function handles System tick timer.
  */
void SysTick_Handler(void)
{
 8002e9a:	b580      	push	{r7, lr}
 8002e9c:	af00      	add	r7, sp, #0
  /* USER CODE BEGIN SysTick_IRQn 0 */

  /* USER CODE END SysTick_IRQn 0 */
  HAL_IncTick();
 8002e9e:	f000 f9a7 	bl	80031f0 <HAL_IncTick>
  /* USER CODE BEGIN SysTick_IRQn 1 */

  /* USER CODE END SysTick_IRQn 1 */
}
 8002ea2:	bf00      	nop
 8002ea4:	bd80      	pop	{r7, pc}

08002ea6 <EXTI1_IRQHandler>:

/**
  * @brief This function handles EXTI line1 interrupt.
  */
void EXTI1_IRQHandler(void)
{
 8002ea6:	b580      	push	{r7, lr}
 8002ea8:	af00      	add	r7, sp, #0
  /* USER CODE BEGIN EXTI1_IRQn 0 */

  /* USER CODE END EXTI1_IRQn 0 */
  HAL_GPIO_EXTI_IRQHandler(Flight_JMP_Pin);
 8002eaa:	2002      	movs	r0, #2
 8002eac:	f002 f864 	bl	8004f78 <HAL_GPIO_EXTI_IRQHandler>
  /* USER CODE BEGIN EXTI1_IRQn 1 */

  /* USER CODE END EXTI1_IRQn 1 */
}
 8002eb0:	bf00      	nop
 8002eb2:	bd80      	pop	{r7, pc}

08002eb4 <DMA1_Stream4_IRQHandler>:

/**
  * @brief This function handles DMA1 stream4 global interrupt.
  */
void DMA1_Stream4_IRQHandler(void)
{
 8002eb4:	b580      	push	{r7, lr}
 8002eb6:	af00      	add	r7, sp, #0
  /* USER CODE BEGIN DMA1_Stream4_IRQn 0 */

  /* USER CODE END DMA1_Stream4_IRQn 0 */
  HAL_DMA_IRQHandler(&hdma_spi2_tx);
 8002eb8:	4802      	ldr	r0, [pc, #8]	@ (8002ec4 <DMA1_Stream4_IRQHandler+0x10>)
 8002eba:	f001 faef 	bl	800449c <HAL_DMA_IRQHandler>
  /* USER CODE BEGIN DMA1_Stream4_IRQn 1 */

  /* USER CODE END DMA1_Stream4_IRQn 1 */
}
 8002ebe:	bf00      	nop
 8002ec0:	bd80      	pop	{r7, pc}
 8002ec2:	bf00      	nop
 8002ec4:	20000248 	.word	0x20000248

08002ec8 <USART2_IRQHandler>:

/**
  * @brief This function handles USART2 global interrupt.
  */
void USART2_IRQHandler(void)
{
 8002ec8:	b580      	push	{r7, lr}
 8002eca:	af00      	add	r7, sp, #0
  /* USER CODE BEGIN USART2_IRQn 0 */

  /* USER CODE END USART2_IRQn 0 */
  HAL_UART_IRQHandler(&huart2);
 8002ecc:	4802      	ldr	r0, [pc, #8]	@ (8002ed8 <USART2_IRQHandler+0x10>)
 8002ece:	f005 fd99 	bl	8008a04 <HAL_UART_IRQHandler>
  /* USER CODE BEGIN USART2_IRQn 1 */

  /* USER CODE END USART2_IRQn 1 */
}
 8002ed2:	bf00      	nop
 8002ed4:	bd80      	pop	{r7, pc}
 8002ed6:	bf00      	nop
 8002ed8:	20000338 	.word	0x20000338

08002edc <TIM6_DAC_IRQHandler>:

/**
  * @brief This function handles TIM6 global interrupt, DAC1 and DAC2 underrun error interrupts.
  */
void TIM6_DAC_IRQHandler(void)
{
 8002edc:	b580      	push	{r7, lr}
 8002ede:	af00      	add	r7, sp, #0
  /* USER CODE BEGIN TIM6_DAC_IRQn 0 */

  /* USER CODE END TIM6_DAC_IRQn 0 */
  HAL_TIM_IRQHandler(&htim6);
 8002ee0:	4803      	ldr	r0, [pc, #12]	@ (8002ef0 <TIM6_DAC_IRQHandler+0x14>)
 8002ee2:	f005 fa31 	bl	8008348 <HAL_TIM_IRQHandler>
  /* USER CODE BEGIN TIM6_DAC_IRQn 1 */
  tim6_overflow_flag = FLAG_SET;
 8002ee6:	4b03      	ldr	r3, [pc, #12]	@ (8002ef4 <TIM6_DAC_IRQHandler+0x18>)
 8002ee8:	2201      	movs	r2, #1
 8002eea:	701a      	strb	r2, [r3, #0]
  /* USER CODE END TIM6_DAC_IRQn 1 */
}
 8002eec:	bf00      	nop
 8002eee:	bd80      	pop	{r7, pc}
 8002ef0:	200002a8 	.word	0x200002a8
 8002ef4:	200003b6 	.word	0x200003b6

08002ef8 <TIM7_IRQHandler>:

/**
  * @brief This function handles TIM7 global interrupt.
  */
void TIM7_IRQHandler(void)
{
 8002ef8:	b580      	push	{r7, lr}
 8002efa:	af00      	add	r7, sp, #0
  /* USER CODE BEGIN TIM7_IRQn 0 */

  /* USER CODE END TIM7_IRQn 0 */
  HAL_TIM_IRQHandler(&htim7);
 8002efc:	4803      	ldr	r0, [pc, #12]	@ (8002f0c <TIM7_IRQHandler+0x14>)
 8002efe:	f005 fa23 	bl	8008348 <HAL_TIM_IRQHandler>
  /* USER CODE BEGIN TIM7_IRQn 1 */
  tim7_overflow_flag = FLAG_SET;
 8002f02:	4b03      	ldr	r3, [pc, #12]	@ (8002f10 <TIM7_IRQHandler+0x18>)
 8002f04:	2201      	movs	r2, #1
 8002f06:	701a      	strb	r2, [r3, #0]
  /* USER CODE END TIM7_IRQn 1 */
}
 8002f08:	bf00      	nop
 8002f0a:	bd80      	pop	{r7, pc}
 8002f0c:	200002f0 	.word	0x200002f0
 8002f10:	200003b7 	.word	0x200003b7

08002f14 <DMA2_Stream3_IRQHandler>:

/**
  * @brief This function handles DMA2 stream3 global interrupt.
  */
void DMA2_Stream3_IRQHandler(void)
{
 8002f14:	b580      	push	{r7, lr}
 8002f16:	af00      	add	r7, sp, #0
  /* USER CODE BEGIN DMA2_Stream3_IRQn 0 */

  /* USER CODE END DMA2_Stream3_IRQn 0 */
  HAL_DMA_IRQHandler(&hdma_spi1_tx);
 8002f18:	4802      	ldr	r0, [pc, #8]	@ (8002f24 <DMA2_Stream3_IRQHandler+0x10>)
 8002f1a:	f001 fabf 	bl	800449c <HAL_DMA_IRQHandler>
  /* USER CODE BEGIN DMA2_Stream3_IRQn 1 */

  /* USER CODE END DMA2_Stream3_IRQn 1 */
}
 8002f1e:	bf00      	nop
 8002f20:	bd80      	pop	{r7, pc}
 8002f22:	bf00      	nop
 8002f24:	200001e8 	.word	0x200001e8

08002f28 <CAN2_RX0_IRQHandler>:

/**
  * @brief This function handles CAN2 RX0 interrupts.
  */
void CAN2_RX0_IRQHandler(void)
{
 8002f28:	b580      	push	{r7, lr}
 8002f2a:	af00      	add	r7, sp, #0
  /* USER CODE BEGIN CAN2_RX0_IRQn 0 */

  /* USER CODE END CAN2_RX0_IRQn 0 */
  HAL_CAN_IRQHandler(&hcan2);
 8002f2c:	4802      	ldr	r0, [pc, #8]	@ (8002f38 <CAN2_RX0_IRQHandler+0x10>)
 8002f2e:	f000 fddb 	bl	8003ae8 <HAL_CAN_IRQHandler>
  /* USER CODE BEGIN CAN2_RX0_IRQn 1 */

  /* USER CODE END CAN2_RX0_IRQn 1 */
}
 8002f32:	bf00      	nop
 8002f34:	bd80      	pop	{r7, pc}
 8002f36:	bf00      	nop
 8002f38:	20000048 	.word	0x20000048

08002f3c <HAL_CAN_RxFifo0MsgPendingCallback>:

/* USER CODE BEGIN 1 */
void HAL_CAN_RxFifo0MsgPendingCallback(CAN_HandleTypeDef *hcan) {
 8002f3c:	b580      	push	{r7, lr}
 8002f3e:	b082      	sub	sp, #8
 8002f40:	af00      	add	r7, sp, #0
 8002f42:	6078      	str	r0, [r7, #4]
	HAL_CAN_GetRxMessage(hcan, CAN_RX_FIFO0, &CAN_RxHeader, CAN_RxData);
 8002f44:	4b09      	ldr	r3, [pc, #36]	@ (8002f6c <HAL_CAN_RxFifo0MsgPendingCallback+0x30>)
 8002f46:	4a0a      	ldr	r2, [pc, #40]	@ (8002f70 <HAL_CAN_RxFifo0MsgPendingCallback+0x34>)
 8002f48:	2100      	movs	r1, #0
 8002f4a:	6878      	ldr	r0, [r7, #4]
 8002f4c:	f000 fc84 	bl	8003858 <HAL_CAN_GetRxMessage>
	CAN_RX_Flag = FLAG_SET;
 8002f50:	4b08      	ldr	r3, [pc, #32]	@ (8002f74 <HAL_CAN_RxFifo0MsgPendingCallback+0x38>)
 8002f52:	2201      	movs	r2, #1
 8002f54:	701a      	strb	r2, [r3, #0]

	if(CAN_First_Msg == FLAG_RESET) {
 8002f56:	4b08      	ldr	r3, [pc, #32]	@ (8002f78 <HAL_CAN_RxFifo0MsgPendingCallback+0x3c>)
 8002f58:	781b      	ldrb	r3, [r3, #0]
 8002f5a:	2b00      	cmp	r3, #0
 8002f5c:	d102      	bne.n	8002f64 <HAL_CAN_RxFifo0MsgPendingCallback+0x28>
		CAN_First_Msg = FLAG_SET;
 8002f5e:	4b06      	ldr	r3, [pc, #24]	@ (8002f78 <HAL_CAN_RxFifo0MsgPendingCallback+0x3c>)
 8002f60:	2201      	movs	r2, #1
 8002f62:	701a      	strb	r2, [r3, #0]
	}
}
 8002f64:	bf00      	nop
 8002f66:	3708      	adds	r7, #8
 8002f68:	46bd      	mov	sp, r7
 8002f6a:	bd80      	pop	{r7, pc}
 8002f6c:	200003ac 	.word	0x200003ac
 8002f70:	20000390 	.word	0x20000390
 8002f74:	200003b4 	.word	0x200003b4
 8002f78:	200003b5 	.word	0x200003b5

08002f7c <HAL_GPIO_EXTI_Callback>:

// Set the reset RTC flag on the rising edge of the jumper flight input pin
void HAL_GPIO_EXTI_Callback(uint16_t GPIO_Pin) {
 8002f7c:	b480      	push	{r7}
 8002f7e:	b083      	sub	sp, #12
 8002f80:	af00      	add	r7, sp, #0
 8002f82:	4603      	mov	r3, r0
 8002f84:	80fb      	strh	r3, [r7, #6]
	if(GPIO_Pin == jmp_flight.GPIO_Pin) {
 8002f86:	4b07      	ldr	r3, [pc, #28]	@ (8002fa4 <HAL_GPIO_EXTI_Callback+0x28>)
 8002f88:	889b      	ldrh	r3, [r3, #4]
 8002f8a:	b29b      	uxth	r3, r3
 8002f8c:	88fa      	ldrh	r2, [r7, #6]
 8002f8e:	429a      	cmp	r2, r3
 8002f90:	d102      	bne.n	8002f98 <HAL_GPIO_EXTI_Callback+0x1c>
		rtc_reset = FLAG_SET;
 8002f92:	4b05      	ldr	r3, [pc, #20]	@ (8002fa8 <HAL_GPIO_EXTI_Callback+0x2c>)
 8002f94:	2201      	movs	r2, #1
 8002f96:	701a      	strb	r2, [r3, #0]
	}
}
 8002f98:	bf00      	nop
 8002f9a:	370c      	adds	r7, #12
 8002f9c:	46bd      	mov	sp, r7
 8002f9e:	f85d 7b04 	ldr.w	r7, [sp], #4
 8002fa2:	4770      	bx	lr
 8002fa4:	20000614 	.word	0x20000614
 8002fa8:	2000061c 	.word	0x2000061c

08002fac <HAL_SPI_TxCpltCallback>:


void HAL_SPI_TxCpltCallback(SPI_HandleTypeDef *hspi) {
 8002fac:	b580      	push	{r7, lr}
 8002fae:	b082      	sub	sp, #8
 8002fb0:	af00      	add	r7, sp, #0
 8002fb2:	6078      	str	r0, [r7, #4]
	// Pull CS pin high to deselect the device
    if (hspi->Instance == SPI1) {
 8002fb4:	687b      	ldr	r3, [r7, #4]
 8002fb6:	681b      	ldr	r3, [r3, #0]
 8002fb8:	4a18      	ldr	r2, [pc, #96]	@ (800301c <HAL_SPI_TxCpltCallback+0x70>)
 8002fba:	4293      	cmp	r3, r2
 8002fbc:	d108      	bne.n	8002fd0 <HAL_SPI_TxCpltCallback+0x24>
        // Pull CS pin high for SPI1 to deselect the device
    	HAL_GPIO_WritePin(cs_spi1.GPIOx, cs_spi1.GPIO_Pin, GPIO_PIN_SET);
 8002fbe:	4b18      	ldr	r3, [pc, #96]	@ (8003020 <HAL_SPI_TxCpltCallback+0x74>)
 8002fc0:	681b      	ldr	r3, [r3, #0]
 8002fc2:	4a17      	ldr	r2, [pc, #92]	@ (8003020 <HAL_SPI_TxCpltCallback+0x74>)
 8002fc4:	8891      	ldrh	r1, [r2, #4]
 8002fc6:	2201      	movs	r2, #1
 8002fc8:	4618      	mov	r0, r3
 8002fca:	f001 ffa1 	bl	8004f10 <HAL_GPIO_WritePin>
 8002fce:	e00c      	b.n	8002fea <HAL_SPI_TxCpltCallback+0x3e>
    } else if (hspi->Instance == SPI2) {
 8002fd0:	687b      	ldr	r3, [r7, #4]
 8002fd2:	681b      	ldr	r3, [r3, #0]
 8002fd4:	4a13      	ldr	r2, [pc, #76]	@ (8003024 <HAL_SPI_TxCpltCallback+0x78>)
 8002fd6:	4293      	cmp	r3, r2
 8002fd8:	d107      	bne.n	8002fea <HAL_SPI_TxCpltCallback+0x3e>
        // Pull CS pin high for SPI2 to deselect the device
    	HAL_GPIO_WritePin(cs_spi2.GPIOx, cs_spi2.GPIO_Pin, GPIO_PIN_SET);
 8002fda:	4b13      	ldr	r3, [pc, #76]	@ (8003028 <HAL_SPI_TxCpltCallback+0x7c>)
 8002fdc:	681b      	ldr	r3, [r3, #0]
 8002fde:	4a12      	ldr	r2, [pc, #72]	@ (8003028 <HAL_SPI_TxCpltCallback+0x7c>)
 8002fe0:	8891      	ldrh	r1, [r2, #4]
 8002fe2:	2201      	movs	r2, #1
 8002fe4:	4618      	mov	r0, r3
 8002fe6:	f001 ff93 	bl	8004f10 <HAL_GPIO_WritePin>
    }

    CLEAR_BIT(hspi->Instance->CR2, SPI_CR2_TXDMAEN);
 8002fea:	687b      	ldr	r3, [r7, #4]
 8002fec:	681b      	ldr	r3, [r3, #0]
 8002fee:	685a      	ldr	r2, [r3, #4]
 8002ff0:	687b      	ldr	r3, [r7, #4]
 8002ff2:	681b      	ldr	r3, [r3, #0]
 8002ff4:	f022 0202 	bic.w	r2, r2, #2
 8002ff8:	605a      	str	r2, [r3, #4]
    clean_data_buffer(PAGE_SIZE, data_buffer_tx[buffer_tracker ^ 0x01]);
 8002ffa:	4b0c      	ldr	r3, [pc, #48]	@ (800302c <HAL_SPI_TxCpltCallback+0x80>)
 8002ffc:	781b      	ldrb	r3, [r3, #0]
 8002ffe:	f083 0301 	eor.w	r3, r3, #1
 8003002:	b2db      	uxtb	r3, r3
 8003004:	021b      	lsls	r3, r3, #8
 8003006:	4a0a      	ldr	r2, [pc, #40]	@ (8003030 <HAL_SPI_TxCpltCallback+0x84>)
 8003008:	4413      	add	r3, r2
 800300a:	4619      	mov	r1, r3
 800300c:	f44f 7080 	mov.w	r0, #256	@ 0x100
 8003010:	f7fe fb58 	bl	80016c4 <clean_data_buffer>
}
 8003014:	bf00      	nop
 8003016:	3708      	adds	r7, #8
 8003018:	46bd      	mov	sp, r7
 800301a:	bd80      	pop	{r7, pc}
 800301c:	40013000 	.word	0x40013000
 8003020:	200005f4 	.word	0x200005f4
 8003024:	40003800 	.word	0x40003800
 8003028:	20000604 	.word	0x20000604
 800302c:	200005b8 	.word	0x200005b8
 8003030:	200003b8 	.word	0x200003b8

08003034 <HAL_UART_RxCpltCallback>:

void HAL_UART_RxCpltCallback(UART_HandleTypeDef *huart) {
 8003034:	b580      	push	{r7, lr}
 8003036:	b082      	sub	sp, #8
 8003038:	af00      	add	r7, sp, #0
 800303a:	6078      	str	r0, [r7, #4]
	uart2_rec_flag = FLAG_SET;
 800303c:	4b05      	ldr	r3, [pc, #20]	@ (8003054 <HAL_UART_RxCpltCallback+0x20>)
 800303e:	2201      	movs	r2, #1
 8003040:	701a      	strb	r2, [r3, #0]
	HAL_UART_Receive_IT(&huart2, UARTRxData, 2);
 8003042:	2202      	movs	r2, #2
 8003044:	4904      	ldr	r1, [pc, #16]	@ (8003058 <HAL_UART_RxCpltCallback+0x24>)
 8003046:	4805      	ldr	r0, [pc, #20]	@ (800305c <HAL_UART_RxCpltCallback+0x28>)
 8003048:	f005 fcb7 	bl	80089ba <HAL_UART_Receive_IT>
}
 800304c:	bf00      	nop
 800304e:	3708      	adds	r7, #8
 8003050:	46bd      	mov	sp, r7
 8003052:	bd80      	pop	{r7, pc}
 8003054:	2000038a 	.word	0x2000038a
 8003058:	20000388 	.word	0x20000388
 800305c:	20000338 	.word	0x20000338

08003060 <SystemInit>:
  *         configuration.
  * @param  None
  * @retval None
  */
void SystemInit(void)
{
 8003060:	b480      	push	{r7}
 8003062:	af00      	add	r7, sp, #0
  /* FPU settings ------------------------------------------------------------*/
  #if (__FPU_PRESENT == 1) && (__FPU_USED == 1)
    SCB->CPACR |= ((3UL << 10*2)|(3UL << 11*2));  /* set CP10 and CP11 Full Access */
 8003064:	4b06      	ldr	r3, [pc, #24]	@ (8003080 <SystemInit+0x20>)
 8003066:	f8d3 3088 	ldr.w	r3, [r3, #136]	@ 0x88
 800306a:	4a05      	ldr	r2, [pc, #20]	@ (8003080 <SystemInit+0x20>)
 800306c:	f443 0370 	orr.w	r3, r3, #15728640	@ 0xf00000
 8003070:	f8c2 3088 	str.w	r3, [r2, #136]	@ 0x88

  /* Configure the Vector Table location -------------------------------------*/
#if defined(USER_VECT_TAB_ADDRESS)
  SCB->VTOR = VECT_TAB_BASE_ADDRESS | VECT_TAB_OFFSET; /* Vector Table Relocation in Internal SRAM */
#endif /* USER_VECT_TAB_ADDRESS */
}
 8003074:	bf00      	nop
 8003076:	46bd      	mov	sp, r7
 8003078:	f85d 7b04 	ldr.w	r7, [sp], #4
 800307c:	4770      	bx	lr
 800307e:	bf00      	nop
 8003080:	e000ed00 	.word	0xe000ed00

08003084 <uart_transmit_page>:

#include "uart_transmit.h"
/**
 * Transmit one single page over the UART interface
 */
void uart_transmit_page(UART_HandleTypeDef *huart, uint8_t page[PAGE_SIZE]) {
 8003084:	b580      	push	{r7, lr}
 8003086:	b082      	sub	sp, #8
 8003088:	af00      	add	r7, sp, #0
 800308a:	6078      	str	r0, [r7, #4]
 800308c:	6039      	str	r1, [r7, #0]
	HAL_UART_Transmit(huart, page, PAGE_SIZE, HAL_MAX_DELAY);
 800308e:	f04f 33ff 	mov.w	r3, #4294967295	@ 0xffffffff
 8003092:	f44f 7280 	mov.w	r2, #256	@ 0x100
 8003096:	6839      	ldr	r1, [r7, #0]
 8003098:	6878      	ldr	r0, [r7, #4]
 800309a:	f005 fc03 	bl	80088a4 <HAL_UART_Transmit>
}
 800309e:	bf00      	nop
 80030a0:	3708      	adds	r7, #8
 80030a2:	46bd      	mov	sp, r7
 80030a4:	bd80      	pop	{r7, pc}

080030a6 <send_uart_string>:

void send_uart_string(UART_HandleTypeDef *huart, const char *str) {
 80030a6:	b580      	push	{r7, lr}
 80030a8:	b082      	sub	sp, #8
 80030aa:	af00      	add	r7, sp, #0
 80030ac:	6078      	str	r0, [r7, #4]
 80030ae:	6039      	str	r1, [r7, #0]
    HAL_UART_Transmit(huart, (uint8_t *)str, strlen(str), HAL_MAX_DELAY);
 80030b0:	6838      	ldr	r0, [r7, #0]
 80030b2:	f7fd f89b 	bl	80001ec <strlen>
 80030b6:	4603      	mov	r3, r0
 80030b8:	b29a      	uxth	r2, r3
 80030ba:	f04f 33ff 	mov.w	r3, #4294967295	@ 0xffffffff
 80030be:	6839      	ldr	r1, [r7, #0]
 80030c0:	6878      	ldr	r0, [r7, #4]
 80030c2:	f005 fbef 	bl	80088a4 <HAL_UART_Transmit>
}
 80030c6:	bf00      	nop
 80030c8:	3708      	adds	r7, #8
 80030ca:	46bd      	mov	sp, r7
 80030cc:	bd80      	pop	{r7, pc}

080030ce <send_uart_hex>:
	// Call the send_uart_string function to send the value to UART
	send_uart_string(huart, value_str);
	send_uart_string(huart, "\r\n");
}

void send_uart_hex(UART_HandleTypeDef *huart, uint8_t value) {
 80030ce:	b580      	push	{r7, lr}
 80030d0:	b084      	sub	sp, #16
 80030d2:	af00      	add	r7, sp, #0
 80030d4:	6078      	str	r0, [r7, #4]
 80030d6:	460b      	mov	r3, r1
 80030d8:	70fb      	strb	r3, [r7, #3]
	uint8_t buffer[1];
	buffer[0] = value;
 80030da:	78fb      	ldrb	r3, [r7, #3]
 80030dc:	733b      	strb	r3, [r7, #12]
	HAL_UART_Transmit(huart, buffer, 1, HAL_MAX_DELAY);
 80030de:	f107 010c 	add.w	r1, r7, #12
 80030e2:	f04f 33ff 	mov.w	r3, #4294967295	@ 0xffffffff
 80030e6:	2201      	movs	r2, #1
 80030e8:	6878      	ldr	r0, [r7, #4]
 80030ea:	f005 fbdb 	bl	80088a4 <HAL_UART_Transmit>
}
 80030ee:	bf00      	nop
 80030f0:	3710      	adds	r7, #16
 80030f2:	46bd      	mov	sp, r7
 80030f4:	bd80      	pop	{r7, pc}
	...

080030f8 <Reset_Handler>:

    .section  .text.Reset_Handler
  .weak  Reset_Handler
  .type  Reset_Handler, %function
Reset_Handler:  
  ldr   sp, =_estack     /* set stack pointer */
 80030f8:	f8df d034 	ldr.w	sp, [pc, #52]	@ 8003130 <LoopFillZerobss+0xe>
  
/* Call the clock system initialization function.*/
  bl  SystemInit  
 80030fc:	f7ff ffb0 	bl	8003060 <SystemInit>

/* Copy the data segment initializers from flash to SRAM */  
  ldr r0, =_sdata
 8003100:	480c      	ldr	r0, [pc, #48]	@ (8003134 <LoopFillZerobss+0x12>)
  ldr r1, =_edata
 8003102:	490d      	ldr	r1, [pc, #52]	@ (8003138 <LoopFillZerobss+0x16>)
  ldr r2, =_sidata
 8003104:	4a0d      	ldr	r2, [pc, #52]	@ (800313c <LoopFillZerobss+0x1a>)
  movs r3, #0
 8003106:	2300      	movs	r3, #0
  b LoopCopyDataInit
 8003108:	e002      	b.n	8003110 <LoopCopyDataInit>

0800310a <CopyDataInit>:

CopyDataInit:
  ldr r4, [r2, r3]
 800310a:	58d4      	ldr	r4, [r2, r3]
  str r4, [r0, r3]
 800310c:	50c4      	str	r4, [r0, r3]
  adds r3, r3, #4
 800310e:	3304      	adds	r3, #4

08003110 <LoopCopyDataInit>:

LoopCopyDataInit:
  adds r4, r0, r3
 8003110:	18c4      	adds	r4, r0, r3
  cmp r4, r1
 8003112:	428c      	cmp	r4, r1
  bcc CopyDataInit
 8003114:	d3f9      	bcc.n	800310a <CopyDataInit>
  
/* Zero fill the bss segment. */
  ldr r2, =_sbss
 8003116:	4a0a      	ldr	r2, [pc, #40]	@ (8003140 <LoopFillZerobss+0x1e>)
  ldr r4, =_ebss
 8003118:	4c0a      	ldr	r4, [pc, #40]	@ (8003144 <LoopFillZerobss+0x22>)
  movs r3, #0
 800311a:	2300      	movs	r3, #0
  b LoopFillZerobss
 800311c:	e001      	b.n	8003122 <LoopFillZerobss>

0800311e <FillZerobss>:

FillZerobss:
  str  r3, [r2]
 800311e:	6013      	str	r3, [r2, #0]
  adds r2, r2, #4
 8003120:	3204      	adds	r2, #4

08003122 <LoopFillZerobss>:

LoopFillZerobss:
  cmp r2, r4
 8003122:	42a2      	cmp	r2, r4
  bcc FillZerobss
 8003124:	d3fb      	bcc.n	800311e <FillZerobss>

/* Call static constructors */
    bl __libc_init_array
 8003126:	f006 fbcb 	bl	80098c0 <__libc_init_array>
/* Call the application's entry point.*/
  bl  main
 800312a:	f7fd fe2b 	bl	8000d84 <main>
  bx  lr    
 800312e:	4770      	bx	lr
  ldr   sp, =_estack     /* set stack pointer */
 8003130:	20030000 	.word	0x20030000
  ldr r0, =_sdata
 8003134:	20000000 	.word	0x20000000
  ldr r1, =_edata
 8003138:	20000028 	.word	0x20000028
  ldr r2, =_sidata
 800313c:	080099e8 	.word	0x080099e8
  ldr r2, =_sbss
 8003140:	20000028 	.word	0x20000028
  ldr r4, =_ebss
 8003144:	20000638 	.word	0x20000638

08003148 <ADC_IRQHandler>:
 * @retval None       
*/
    .section  .text.Default_Handler,"ax",%progbits
Default_Handler:
Infinite_Loop:
  b  Infinite_Loop
 8003148:	e7fe      	b.n	8003148 <ADC_IRQHandler>
	...

0800314c <HAL_Init>:
  *         need to ensure that the SysTick time base is always set to 1 millisecond
  *         to have correct HAL operation.
  * @retval HAL status
  */
HAL_StatusTypeDef HAL_Init(void)
{
 800314c:	b580      	push	{r7, lr}
 800314e:	af00      	add	r7, sp, #0
  /* Configure Flash prefetch, Instruction cache, Data cache */ 
#if (INSTRUCTION_CACHE_ENABLE != 0U)
  __HAL_FLASH_INSTRUCTION_CACHE_ENABLE();
 8003150:	4b0e      	ldr	r3, [pc, #56]	@ (800318c <HAL_Init+0x40>)
 8003152:	681b      	ldr	r3, [r3, #0]
 8003154:	4a0d      	ldr	r2, [pc, #52]	@ (800318c <HAL_Init+0x40>)
 8003156:	f443 7300 	orr.w	r3, r3, #512	@ 0x200
 800315a:	6013      	str	r3, [r2, #0]
#endif /* INSTRUCTION_CACHE_ENABLE */

#if (DATA_CACHE_ENABLE != 0U)
  __HAL_FLASH_DATA_CACHE_ENABLE();
 800315c:	4b0b      	ldr	r3, [pc, #44]	@ (800318c <HAL_Init+0x40>)
 800315e:	681b      	ldr	r3, [r3, #0]
 8003160:	4a0a      	ldr	r2, [pc, #40]	@ (800318c <HAL_Init+0x40>)
 8003162:	f443 6380 	orr.w	r3, r3, #1024	@ 0x400
 8003166:	6013      	str	r3, [r2, #0]
#endif /* DATA_CACHE_ENABLE */

#if (PREFETCH_ENABLE != 0U)
  __HAL_FLASH_PREFETCH_BUFFER_ENABLE();
 8003168:	4b08      	ldr	r3, [pc, #32]	@ (800318c <HAL_Init+0x40>)
 800316a:	681b      	ldr	r3, [r3, #0]
 800316c:	4a07      	ldr	r2, [pc, #28]	@ (800318c <HAL_Init+0x40>)
 800316e:	f443 7380 	orr.w	r3, r3, #256	@ 0x100
 8003172:	6013      	str	r3, [r2, #0]
#endif /* PREFETCH_ENABLE */

  /* Set Interrupt Group Priority */
  HAL_NVIC_SetPriorityGrouping(NVIC_PRIORITYGROUP_4);
 8003174:	2003      	movs	r0, #3
 8003176:	f000 ffb7 	bl	80040e8 <HAL_NVIC_SetPriorityGrouping>

  /* Use systick as time base source and configure 1ms tick (default clock after Reset is HSI) */
  HAL_InitTick(TICK_INT_PRIORITY);
 800317a:	200f      	movs	r0, #15
 800317c:	f000 f808 	bl	8003190 <HAL_InitTick>

  /* Init the low level hardware */
  HAL_MspInit();
 8003180:	f7ff fb3a 	bl	80027f8 <HAL_MspInit>

  /* Return function status */
  return HAL_OK;
 8003184:	2300      	movs	r3, #0
}
 8003186:	4618      	mov	r0, r3
 8003188:	bd80      	pop	{r7, pc}
 800318a:	bf00      	nop
 800318c:	40023c00 	.word	0x40023c00

08003190 <HAL_InitTick>:
  *       implementation  in user file.
  * @param TickPriority Tick interrupt priority.
  * @retval HAL status
  */
__weak HAL_StatusTypeDef HAL_InitTick(uint32_t TickPriority)
{
 8003190:	b580      	push	{r7, lr}
 8003192:	b082      	sub	sp, #8
 8003194:	af00      	add	r7, sp, #0
 8003196:	6078      	str	r0, [r7, #4]
  /* Configure the SysTick to have interrupt in 1ms time basis*/
  if (HAL_SYSTICK_Config(SystemCoreClock / (1000U / uwTickFreq)) > 0U)
 8003198:	4b12      	ldr	r3, [pc, #72]	@ (80031e4 <HAL_InitTick+0x54>)
 800319a:	681a      	ldr	r2, [r3, #0]
 800319c:	4b12      	ldr	r3, [pc, #72]	@ (80031e8 <HAL_InitTick+0x58>)
 800319e:	781b      	ldrb	r3, [r3, #0]
 80031a0:	4619      	mov	r1, r3
 80031a2:	f44f 737a 	mov.w	r3, #1000	@ 0x3e8
 80031a6:	fbb3 f3f1 	udiv	r3, r3, r1
 80031aa:	fbb2 f3f3 	udiv	r3, r2, r3
 80031ae:	4618      	mov	r0, r3
 80031b0:	f000 ffcf 	bl	8004152 <HAL_SYSTICK_Config>
 80031b4:	4603      	mov	r3, r0
 80031b6:	2b00      	cmp	r3, #0
 80031b8:	d001      	beq.n	80031be <HAL_InitTick+0x2e>
  {
    return HAL_ERROR;
 80031ba:	2301      	movs	r3, #1
 80031bc:	e00e      	b.n	80031dc <HAL_InitTick+0x4c>
  }

  /* Configure the SysTick IRQ priority */
  if (TickPriority < (1UL << __NVIC_PRIO_BITS))
 80031be:	687b      	ldr	r3, [r7, #4]
 80031c0:	2b0f      	cmp	r3, #15
 80031c2:	d80a      	bhi.n	80031da <HAL_InitTick+0x4a>
  {
    HAL_NVIC_SetPriority(SysTick_IRQn, TickPriority, 0U);
 80031c4:	2200      	movs	r2, #0
 80031c6:	6879      	ldr	r1, [r7, #4]
 80031c8:	f04f 30ff 	mov.w	r0, #4294967295	@ 0xffffffff
 80031cc:	f000 ff97 	bl	80040fe <HAL_NVIC_SetPriority>
    uwTickPrio = TickPriority;
 80031d0:	4a06      	ldr	r2, [pc, #24]	@ (80031ec <HAL_InitTick+0x5c>)
 80031d2:	687b      	ldr	r3, [r7, #4]
 80031d4:	6013      	str	r3, [r2, #0]
  {
    return HAL_ERROR;
  }

  /* Return function status */
  return HAL_OK;
 80031d6:	2300      	movs	r3, #0
 80031d8:	e000      	b.n	80031dc <HAL_InitTick+0x4c>
    return HAL_ERROR;
 80031da:	2301      	movs	r3, #1
}
 80031dc:	4618      	mov	r0, r3
 80031de:	3708      	adds	r7, #8
 80031e0:	46bd      	mov	sp, r7
 80031e2:	bd80      	pop	{r7, pc}
 80031e4:	2000001c 	.word	0x2000001c
 80031e8:	20000024 	.word	0x20000024
 80031ec:	20000020 	.word	0x20000020

080031f0 <HAL_IncTick>:
 * @note This function is declared as __weak to be overwritten in case of other 
  *      implementations in user file.
  * @retval None
  */
__weak void HAL_IncTick(void)
{
 80031f0:	b480      	push	{r7}
 80031f2:	af00      	add	r7, sp, #0
  uwTick += uwTickFreq;
 80031f4:	4b06      	ldr	r3, [pc, #24]	@ (8003210 <HAL_IncTick+0x20>)
 80031f6:	781b      	ldrb	r3, [r3, #0]
 80031f8:	461a      	mov	r2, r3
 80031fa:	4b06      	ldr	r3, [pc, #24]	@ (8003214 <HAL_IncTick+0x24>)
 80031fc:	681b      	ldr	r3, [r3, #0]
 80031fe:	4413      	add	r3, r2
 8003200:	4a04      	ldr	r2, [pc, #16]	@ (8003214 <HAL_IncTick+0x24>)
 8003202:	6013      	str	r3, [r2, #0]
}
 8003204:	bf00      	nop
 8003206:	46bd      	mov	sp, r7
 8003208:	f85d 7b04 	ldr.w	r7, [sp], #4
 800320c:	4770      	bx	lr
 800320e:	bf00      	nop
 8003210:	20000024 	.word	0x20000024
 8003214:	20000634 	.word	0x20000634

08003218 <HAL_GetTick>:
  * @note This function is declared as __weak to be overwritten in case of other 
  *       implementations in user file.
  * @retval tick value
  */
__weak uint32_t HAL_GetTick(void)
{
 8003218:	b480      	push	{r7}
 800321a:	af00      	add	r7, sp, #0
  return uwTick;
 800321c:	4b03      	ldr	r3, [pc, #12]	@ (800322c <HAL_GetTick+0x14>)
 800321e:	681b      	ldr	r3, [r3, #0]
}
 8003220:	4618      	mov	r0, r3
 8003222:	46bd      	mov	sp, r7
 8003224:	f85d 7b04 	ldr.w	r7, [sp], #4
 8003228:	4770      	bx	lr
 800322a:	bf00      	nop
 800322c:	20000634 	.word	0x20000634

08003230 <HAL_Delay>:
  *       implementations in user file.
  * @param Delay specifies the delay time length, in milliseconds.
  * @retval None
  */
__weak void HAL_Delay(uint32_t Delay)
{
 8003230:	b580      	push	{r7, lr}
 8003232:	b084      	sub	sp, #16
 8003234:	af00      	add	r7, sp, #0
 8003236:	6078      	str	r0, [r7, #4]
  uint32_t tickstart = HAL_GetTick();
 8003238:	f7ff ffee 	bl	8003218 <HAL_GetTick>
 800323c:	60b8      	str	r0, [r7, #8]
  uint32_t wait = Delay;
 800323e:	687b      	ldr	r3, [r7, #4]
 8003240:	60fb      	str	r3, [r7, #12]

  /* Add a freq to guarantee minimum wait */
  if (wait < HAL_MAX_DELAY)
 8003242:	68fb      	ldr	r3, [r7, #12]
 8003244:	f1b3 3fff 	cmp.w	r3, #4294967295	@ 0xffffffff
 8003248:	d005      	beq.n	8003256 <HAL_Delay+0x26>
  {
    wait += (uint32_t)(uwTickFreq);
 800324a:	4b0a      	ldr	r3, [pc, #40]	@ (8003274 <HAL_Delay+0x44>)
 800324c:	781b      	ldrb	r3, [r3, #0]
 800324e:	461a      	mov	r2, r3
 8003250:	68fb      	ldr	r3, [r7, #12]
 8003252:	4413      	add	r3, r2
 8003254:	60fb      	str	r3, [r7, #12]
  }

  while((HAL_GetTick() - tickstart) < wait)
 8003256:	bf00      	nop
 8003258:	f7ff ffde 	bl	8003218 <HAL_GetTick>
 800325c:	4602      	mov	r2, r0
 800325e:	68bb      	ldr	r3, [r7, #8]
 8003260:	1ad3      	subs	r3, r2, r3
 8003262:	68fa      	ldr	r2, [r7, #12]
 8003264:	429a      	cmp	r2, r3
 8003266:	d8f7      	bhi.n	8003258 <HAL_Delay+0x28>
  {
  }
}
 8003268:	bf00      	nop
 800326a:	bf00      	nop
 800326c:	3710      	adds	r7, #16
 800326e:	46bd      	mov	sp, r7
 8003270:	bd80      	pop	{r7, pc}
 8003272:	bf00      	nop
 8003274:	20000024 	.word	0x20000024

08003278 <HAL_CAN_Init>:
  * @param  hcan pointer to a CAN_HandleTypeDef structure that contains
  *         the configuration information for the specified CAN.
  * @retval HAL status
  */
HAL_StatusTypeDef HAL_CAN_Init(CAN_HandleTypeDef *hcan)
{
 8003278:	b580      	push	{r7, lr}
 800327a:	b084      	sub	sp, #16
 800327c:	af00      	add	r7, sp, #0
 800327e:	6078      	str	r0, [r7, #4]
  uint32_t tickstart;

  /* Check CAN handle */
  if (hcan == NULL)
 8003280:	687b      	ldr	r3, [r7, #4]
 8003282:	2b00      	cmp	r3, #0
 8003284:	d101      	bne.n	800328a <HAL_CAN_Init+0x12>
  {
    return HAL_ERROR;
 8003286:	2301      	movs	r3, #1
 8003288:	e0ed      	b.n	8003466 <HAL_CAN_Init+0x1ee>
    /* Init the low level hardware: CLOCK, NVIC */
    hcan->MspInitCallback(hcan);
  }

#else
  if (hcan->State == HAL_CAN_STATE_RESET)
 800328a:	687b      	ldr	r3, [r7, #4]
 800328c:	f893 3020 	ldrb.w	r3, [r3, #32]
 8003290:	b2db      	uxtb	r3, r3
 8003292:	2b00      	cmp	r3, #0
 8003294:	d102      	bne.n	800329c <HAL_CAN_Init+0x24>
  {
    /* Init the low level hardware: CLOCK, NVIC */
    HAL_CAN_MspInit(hcan);
 8003296:	6878      	ldr	r0, [r7, #4]
 8003298:	f7ff fad6 	bl	8002848 <HAL_CAN_MspInit>
  }
#endif /* USE_HAL_CAN_REGISTER_CALLBACKS */

  /* Request initialisation */
  SET_BIT(hcan->Instance->MCR, CAN_MCR_INRQ);
 800329c:	687b      	ldr	r3, [r7, #4]
 800329e:	681b      	ldr	r3, [r3, #0]
 80032a0:	681a      	ldr	r2, [r3, #0]
 80032a2:	687b      	ldr	r3, [r7, #4]
 80032a4:	681b      	ldr	r3, [r3, #0]
 80032a6:	f042 0201 	orr.w	r2, r2, #1
 80032aa:	601a      	str	r2, [r3, #0]

  /* Get tick */
  tickstart = HAL_GetTick();
 80032ac:	f7ff ffb4 	bl	8003218 <HAL_GetTick>
 80032b0:	60f8      	str	r0, [r7, #12]

  /* Wait initialisation acknowledge */
  while ((hcan->Instance->MSR & CAN_MSR_INAK) == 0U)
 80032b2:	e012      	b.n	80032da <HAL_CAN_Init+0x62>
  {
    if ((HAL_GetTick() - tickstart) > CAN_TIMEOUT_VALUE)
 80032b4:	f7ff ffb0 	bl	8003218 <HAL_GetTick>
 80032b8:	4602      	mov	r2, r0
 80032ba:	68fb      	ldr	r3, [r7, #12]
 80032bc:	1ad3      	subs	r3, r2, r3
 80032be:	2b0a      	cmp	r3, #10
 80032c0:	d90b      	bls.n	80032da <HAL_CAN_Init+0x62>
    {
      /* Update error code */
      hcan->ErrorCode |= HAL_CAN_ERROR_TIMEOUT;
 80032c2:	687b      	ldr	r3, [r7, #4]
 80032c4:	6a5b      	ldr	r3, [r3, #36]	@ 0x24
 80032c6:	f443 3200 	orr.w	r2, r3, #131072	@ 0x20000
 80032ca:	687b      	ldr	r3, [r7, #4]
 80032cc:	625a      	str	r2, [r3, #36]	@ 0x24

      /* Change CAN state */
      hcan->State = HAL_CAN_STATE_ERROR;
 80032ce:	687b      	ldr	r3, [r7, #4]
 80032d0:	2205      	movs	r2, #5
 80032d2:	f883 2020 	strb.w	r2, [r3, #32]

      return HAL_ERROR;
 80032d6:	2301      	movs	r3, #1
 80032d8:	e0c5      	b.n	8003466 <HAL_CAN_Init+0x1ee>
  while ((hcan->Instance->MSR & CAN_MSR_INAK) == 0U)
 80032da:	687b      	ldr	r3, [r7, #4]
 80032dc:	681b      	ldr	r3, [r3, #0]
 80032de:	685b      	ldr	r3, [r3, #4]
 80032e0:	f003 0301 	and.w	r3, r3, #1
 80032e4:	2b00      	cmp	r3, #0
 80032e6:	d0e5      	beq.n	80032b4 <HAL_CAN_Init+0x3c>
    }
  }

  /* Exit from sleep mode */
  CLEAR_BIT(hcan->Instance->MCR, CAN_MCR_SLEEP);
 80032e8:	687b      	ldr	r3, [r7, #4]
 80032ea:	681b      	ldr	r3, [r3, #0]
 80032ec:	681a      	ldr	r2, [r3, #0]
 80032ee:	687b      	ldr	r3, [r7, #4]
 80032f0:	681b      	ldr	r3, [r3, #0]
 80032f2:	f022 0202 	bic.w	r2, r2, #2
 80032f6:	601a      	str	r2, [r3, #0]

  /* Get tick */
  tickstart = HAL_GetTick();
 80032f8:	f7ff ff8e 	bl	8003218 <HAL_GetTick>
 80032fc:	60f8      	str	r0, [r7, #12]

  /* Check Sleep mode leave acknowledge */
  while ((hcan->Instance->MSR & CAN_MSR_SLAK) != 0U)
 80032fe:	e012      	b.n	8003326 <HAL_CAN_Init+0xae>
  {
    if ((HAL_GetTick() - tickstart) > CAN_TIMEOUT_VALUE)
 8003300:	f7ff ff8a 	bl	8003218 <HAL_GetTick>
 8003304:	4602      	mov	r2, r0
 8003306:	68fb      	ldr	r3, [r7, #12]
 8003308:	1ad3      	subs	r3, r2, r3
 800330a:	2b0a      	cmp	r3, #10
 800330c:	d90b      	bls.n	8003326 <HAL_CAN_Init+0xae>
    {
      /* Update error code */
      hcan->ErrorCode |= HAL_CAN_ERROR_TIMEOUT;
 800330e:	687b      	ldr	r3, [r7, #4]
 8003310:	6a5b      	ldr	r3, [r3, #36]	@ 0x24
 8003312:	f443 3200 	orr.w	r2, r3, #131072	@ 0x20000
 8003316:	687b      	ldr	r3, [r7, #4]
 8003318:	625a      	str	r2, [r3, #36]	@ 0x24

      /* Change CAN state */
      hcan->State = HAL_CAN_STATE_ERROR;
 800331a:	687b      	ldr	r3, [r7, #4]
 800331c:	2205      	movs	r2, #5
 800331e:	f883 2020 	strb.w	r2, [r3, #32]

      return HAL_ERROR;
 8003322:	2301      	movs	r3, #1
 8003324:	e09f      	b.n	8003466 <HAL_CAN_Init+0x1ee>
  while ((hcan->Instance->MSR & CAN_MSR_SLAK) != 0U)
 8003326:	687b      	ldr	r3, [r7, #4]
 8003328:	681b      	ldr	r3, [r3, #0]
 800332a:	685b      	ldr	r3, [r3, #4]
 800332c:	f003 0302 	and.w	r3, r3, #2
 8003330:	2b00      	cmp	r3, #0
 8003332:	d1e5      	bne.n	8003300 <HAL_CAN_Init+0x88>
    }
  }

  /* Set the time triggered communication mode */
  if (hcan->Init.TimeTriggeredMode == ENABLE)
 8003334:	687b      	ldr	r3, [r7, #4]
 8003336:	7e1b      	ldrb	r3, [r3, #24]
 8003338:	2b01      	cmp	r3, #1
 800333a:	d108      	bne.n	800334e <HAL_CAN_Init+0xd6>
  {
    SET_BIT(hcan->Instance->MCR, CAN_MCR_TTCM);
 800333c:	687b      	ldr	r3, [r7, #4]
 800333e:	681b      	ldr	r3, [r3, #0]
 8003340:	681a      	ldr	r2, [r3, #0]
 8003342:	687b      	ldr	r3, [r7, #4]
 8003344:	681b      	ldr	r3, [r3, #0]
 8003346:	f042 0280 	orr.w	r2, r2, #128	@ 0x80
 800334a:	601a      	str	r2, [r3, #0]
 800334c:	e007      	b.n	800335e <HAL_CAN_Init+0xe6>
  }
  else
  {
    CLEAR_BIT(hcan->Instance->MCR, CAN_MCR_TTCM);
 800334e:	687b      	ldr	r3, [r7, #4]
 8003350:	681b      	ldr	r3, [r3, #0]
 8003352:	681a      	ldr	r2, [r3, #0]
 8003354:	687b      	ldr	r3, [r7, #4]
 8003356:	681b      	ldr	r3, [r3, #0]
 8003358:	f022 0280 	bic.w	r2, r2, #128	@ 0x80
 800335c:	601a      	str	r2, [r3, #0]
  }

  /* Set the automatic bus-off management */
  if (hcan->Init.AutoBusOff == ENABLE)
 800335e:	687b      	ldr	r3, [r7, #4]
 8003360:	7e5b      	ldrb	r3, [r3, #25]
 8003362:	2b01      	cmp	r3, #1
 8003364:	d108      	bne.n	8003378 <HAL_CAN_Init+0x100>
  {
    SET_BIT(hcan->Instance->MCR, CAN_MCR_ABOM);
 8003366:	687b      	ldr	r3, [r7, #4]
 8003368:	681b      	ldr	r3, [r3, #0]
 800336a:	681a      	ldr	r2, [r3, #0]
 800336c:	687b      	ldr	r3, [r7, #4]
 800336e:	681b      	ldr	r3, [r3, #0]
 8003370:	f042 0240 	orr.w	r2, r2, #64	@ 0x40
 8003374:	601a      	str	r2, [r3, #0]
 8003376:	e007      	b.n	8003388 <HAL_CAN_Init+0x110>
  }
  else
  {
    CLEAR_BIT(hcan->Instance->MCR, CAN_MCR_ABOM);
 8003378:	687b      	ldr	r3, [r7, #4]
 800337a:	681b      	ldr	r3, [r3, #0]
 800337c:	681a      	ldr	r2, [r3, #0]
 800337e:	687b      	ldr	r3, [r7, #4]
 8003380:	681b      	ldr	r3, [r3, #0]
 8003382:	f022 0240 	bic.w	r2, r2, #64	@ 0x40
 8003386:	601a      	str	r2, [r3, #0]
  }

  /* Set the automatic wake-up mode */
  if (hcan->Init.AutoWakeUp == ENABLE)
 8003388:	687b      	ldr	r3, [r7, #4]
 800338a:	7e9b      	ldrb	r3, [r3, #26]
 800338c:	2b01      	cmp	r3, #1
 800338e:	d108      	bne.n	80033a2 <HAL_CAN_Init+0x12a>
  {
    SET_BIT(hcan->Instance->MCR, CAN_MCR_AWUM);
 8003390:	687b      	ldr	r3, [r7, #4]
 8003392:	681b      	ldr	r3, [r3, #0]
 8003394:	681a      	ldr	r2, [r3, #0]
 8003396:	687b      	ldr	r3, [r7, #4]
 8003398:	681b      	ldr	r3, [r3, #0]
 800339a:	f042 0220 	orr.w	r2, r2, #32
 800339e:	601a      	str	r2, [r3, #0]
 80033a0:	e007      	b.n	80033b2 <HAL_CAN_Init+0x13a>
  }
  else
  {
    CLEAR_BIT(hcan->Instance->MCR, CAN_MCR_AWUM);
 80033a2:	687b      	ldr	r3, [r7, #4]
 80033a4:	681b      	ldr	r3, [r3, #0]
 80033a6:	681a      	ldr	r2, [r3, #0]
 80033a8:	687b      	ldr	r3, [r7, #4]
 80033aa:	681b      	ldr	r3, [r3, #0]
 80033ac:	f022 0220 	bic.w	r2, r2, #32
 80033b0:	601a      	str	r2, [r3, #0]
  }

  /* Set the automatic retransmission */
  if (hcan->Init.AutoRetransmission == ENABLE)
 80033b2:	687b      	ldr	r3, [r7, #4]
 80033b4:	7edb      	ldrb	r3, [r3, #27]
 80033b6:	2b01      	cmp	r3, #1
 80033b8:	d108      	bne.n	80033cc <HAL_CAN_Init+0x154>
  {
    CLEAR_BIT(hcan->Instance->MCR, CAN_MCR_NART);
 80033ba:	687b      	ldr	r3, [r7, #4]
 80033bc:	681b      	ldr	r3, [r3, #0]
 80033be:	681a      	ldr	r2, [r3, #0]
 80033c0:	687b      	ldr	r3, [r7, #4]
 80033c2:	681b      	ldr	r3, [r3, #0]
 80033c4:	f022 0210 	bic.w	r2, r2, #16
 80033c8:	601a      	str	r2, [r3, #0]
 80033ca:	e007      	b.n	80033dc <HAL_CAN_Init+0x164>
  }
  else
  {
    SET_BIT(hcan->Instance->MCR, CAN_MCR_NART);
 80033cc:	687b      	ldr	r3, [r7, #4]
 80033ce:	681b      	ldr	r3, [r3, #0]
 80033d0:	681a      	ldr	r2, [r3, #0]
 80033d2:	687b      	ldr	r3, [r7, #4]
 80033d4:	681b      	ldr	r3, [r3, #0]
 80033d6:	f042 0210 	orr.w	r2, r2, #16
 80033da:	601a      	str	r2, [r3, #0]
  }

  /* Set the receive FIFO locked mode */
  if (hcan->Init.ReceiveFifoLocked == ENABLE)
 80033dc:	687b      	ldr	r3, [r7, #4]
 80033de:	7f1b      	ldrb	r3, [r3, #28]
 80033e0:	2b01      	cmp	r3, #1
 80033e2:	d108      	bne.n	80033f6 <HAL_CAN_Init+0x17e>
  {
    SET_BIT(hcan->Instance->MCR, CAN_MCR_RFLM);
 80033e4:	687b      	ldr	r3, [r7, #4]
 80033e6:	681b      	ldr	r3, [r3, #0]
 80033e8:	681a      	ldr	r2, [r3, #0]
 80033ea:	687b      	ldr	r3, [r7, #4]
 80033ec:	681b      	ldr	r3, [r3, #0]
 80033ee:	f042 0208 	orr.w	r2, r2, #8
 80033f2:	601a      	str	r2, [r3, #0]
 80033f4:	e007      	b.n	8003406 <HAL_CAN_Init+0x18e>
  }
  else
  {
    CLEAR_BIT(hcan->Instance->MCR, CAN_MCR_RFLM);
 80033f6:	687b      	ldr	r3, [r7, #4]
 80033f8:	681b      	ldr	r3, [r3, #0]
 80033fa:	681a      	ldr	r2, [r3, #0]
 80033fc:	687b      	ldr	r3, [r7, #4]
 80033fe:	681b      	ldr	r3, [r3, #0]
 8003400:	f022 0208 	bic.w	r2, r2, #8
 8003404:	601a      	str	r2, [r3, #0]
  }

  /* Set the transmit FIFO priority */
  if (hcan->Init.TransmitFifoPriority == ENABLE)
 8003406:	687b      	ldr	r3, [r7, #4]
 8003408:	7f5b      	ldrb	r3, [r3, #29]
 800340a:	2b01      	cmp	r3, #1
 800340c:	d108      	bne.n	8003420 <HAL_CAN_Init+0x1a8>
  {
    SET_BIT(hcan->Instance->MCR, CAN_MCR_TXFP);
 800340e:	687b      	ldr	r3, [r7, #4]
 8003410:	681b      	ldr	r3, [r3, #0]
 8003412:	681a      	ldr	r2, [r3, #0]
 8003414:	687b      	ldr	r3, [r7, #4]
 8003416:	681b      	ldr	r3, [r3, #0]
 8003418:	f042 0204 	orr.w	r2, r2, #4
 800341c:	601a      	str	r2, [r3, #0]
 800341e:	e007      	b.n	8003430 <HAL_CAN_Init+0x1b8>
  }
  else
  {
    CLEAR_BIT(hcan->Instance->MCR, CAN_MCR_TXFP);
 8003420:	687b      	ldr	r3, [r7, #4]
 8003422:	681b      	ldr	r3, [r3, #0]
 8003424:	681a      	ldr	r2, [r3, #0]
 8003426:	687b      	ldr	r3, [r7, #4]
 8003428:	681b      	ldr	r3, [r3, #0]
 800342a:	f022 0204 	bic.w	r2, r2, #4
 800342e:	601a      	str	r2, [r3, #0]
  }

  /* Set the bit timing register */
  WRITE_REG(hcan->Instance->BTR, (uint32_t)(hcan->Init.Mode           |
 8003430:	687b      	ldr	r3, [r7, #4]
 8003432:	689a      	ldr	r2, [r3, #8]
 8003434:	687b      	ldr	r3, [r7, #4]
 8003436:	68db      	ldr	r3, [r3, #12]
 8003438:	431a      	orrs	r2, r3
 800343a:	687b      	ldr	r3, [r7, #4]
 800343c:	691b      	ldr	r3, [r3, #16]
 800343e:	431a      	orrs	r2, r3
 8003440:	687b      	ldr	r3, [r7, #4]
 8003442:	695b      	ldr	r3, [r3, #20]
 8003444:	ea42 0103 	orr.w	r1, r2, r3
 8003448:	687b      	ldr	r3, [r7, #4]
 800344a:	685b      	ldr	r3, [r3, #4]
 800344c:	1e5a      	subs	r2, r3, #1
 800344e:	687b      	ldr	r3, [r7, #4]
 8003450:	681b      	ldr	r3, [r3, #0]
 8003452:	430a      	orrs	r2, r1
 8003454:	61da      	str	r2, [r3, #28]
                                            hcan->Init.TimeSeg1       |
                                            hcan->Init.TimeSeg2       |
                                            (hcan->Init.Prescaler - 1U)));

  /* Initialize the error code */
  hcan->ErrorCode = HAL_CAN_ERROR_NONE;
 8003456:	687b      	ldr	r3, [r7, #4]
 8003458:	2200      	movs	r2, #0
 800345a:	625a      	str	r2, [r3, #36]	@ 0x24

  /* Initialize the CAN state */
  hcan->State = HAL_CAN_STATE_READY;
 800345c:	687b      	ldr	r3, [r7, #4]
 800345e:	2201      	movs	r2, #1
 8003460:	f883 2020 	strb.w	r2, [r3, #32]

  /* Return function status */
  return HAL_OK;
 8003464:	2300      	movs	r3, #0
}
 8003466:	4618      	mov	r0, r3
 8003468:	3710      	adds	r7, #16
 800346a:	46bd      	mov	sp, r7
 800346c:	bd80      	pop	{r7, pc}
	...

08003470 <HAL_CAN_ConfigFilter>:
  * @param  sFilterConfig pointer to a CAN_FilterTypeDef structure that
  *         contains the filter configuration information.
  * @retval None
  */
HAL_StatusTypeDef HAL_CAN_ConfigFilter(CAN_HandleTypeDef *hcan, const CAN_FilterTypeDef *sFilterConfig)
{
 8003470:	b480      	push	{r7}
 8003472:	b087      	sub	sp, #28
 8003474:	af00      	add	r7, sp, #0
 8003476:	6078      	str	r0, [r7, #4]
 8003478:	6039      	str	r1, [r7, #0]
  uint32_t filternbrbitpos;
  CAN_TypeDef *can_ip = hcan->Instance;
 800347a:	687b      	ldr	r3, [r7, #4]
 800347c:	681b      	ldr	r3, [r3, #0]
 800347e:	617b      	str	r3, [r7, #20]
  HAL_CAN_StateTypeDef state = hcan->State;
 8003480:	687b      	ldr	r3, [r7, #4]
 8003482:	f893 3020 	ldrb.w	r3, [r3, #32]
 8003486:	74fb      	strb	r3, [r7, #19]

  if ((state == HAL_CAN_STATE_READY) ||
 8003488:	7cfb      	ldrb	r3, [r7, #19]
 800348a:	2b01      	cmp	r3, #1
 800348c:	d003      	beq.n	8003496 <HAL_CAN_ConfigFilter+0x26>
 800348e:	7cfb      	ldrb	r3, [r7, #19]
 8003490:	2b02      	cmp	r3, #2
 8003492:	f040 80be 	bne.w	8003612 <HAL_CAN_ConfigFilter+0x1a2>
      assert_param(IS_CAN_FILTER_BANK_DUAL(sFilterConfig->SlaveStartFilterBank));
    }
#elif defined(CAN2)
    /* CAN1 and CAN2 are dual instances with 28 common filters banks */
    /* Select master instance to access the filter banks */
    can_ip = CAN1;
 8003496:	4b65      	ldr	r3, [pc, #404]	@ (800362c <HAL_CAN_ConfigFilter+0x1bc>)
 8003498:	617b      	str	r3, [r7, #20]
    /* Check the parameters */
    assert_param(IS_CAN_FILTER_BANK_SINGLE(sFilterConfig->FilterBank));
#endif /* CAN3 */

    /* Initialisation mode for the filter */
    SET_BIT(can_ip->FMR, CAN_FMR_FINIT);
 800349a:	697b      	ldr	r3, [r7, #20]
 800349c:	f8d3 3200 	ldr.w	r3, [r3, #512]	@ 0x200
 80034a0:	f043 0201 	orr.w	r2, r3, #1
 80034a4:	697b      	ldr	r3, [r7, #20]
 80034a6:	f8c3 2200 	str.w	r2, [r3, #512]	@ 0x200
      SET_BIT(can_ip->FMR, sFilterConfig->SlaveStartFilterBank << CAN_FMR_CAN2SB_Pos);
    }

#elif defined(CAN2)
    /* Select the start filter number of CAN2 slave instance */
    CLEAR_BIT(can_ip->FMR, CAN_FMR_CAN2SB);
 80034aa:	697b      	ldr	r3, [r7, #20]
 80034ac:	f8d3 3200 	ldr.w	r3, [r3, #512]	@ 0x200
 80034b0:	f423 527c 	bic.w	r2, r3, #16128	@ 0x3f00
 80034b4:	697b      	ldr	r3, [r7, #20]
 80034b6:	f8c3 2200 	str.w	r2, [r3, #512]	@ 0x200
    SET_BIT(can_ip->FMR, sFilterConfig->SlaveStartFilterBank << CAN_FMR_CAN2SB_Pos);
 80034ba:	697b      	ldr	r3, [r7, #20]
 80034bc:	f8d3 2200 	ldr.w	r2, [r3, #512]	@ 0x200
 80034c0:	683b      	ldr	r3, [r7, #0]
 80034c2:	6a5b      	ldr	r3, [r3, #36]	@ 0x24
 80034c4:	021b      	lsls	r3, r3, #8
 80034c6:	431a      	orrs	r2, r3
 80034c8:	697b      	ldr	r3, [r7, #20]
 80034ca:	f8c3 2200 	str.w	r2, [r3, #512]	@ 0x200

#endif /* CAN3 */
    /* Convert filter number into bit position */
    filternbrbitpos = (uint32_t)1 << (sFilterConfig->FilterBank & 0x1FU);
 80034ce:	683b      	ldr	r3, [r7, #0]
 80034d0:	695b      	ldr	r3, [r3, #20]
 80034d2:	f003 031f 	and.w	r3, r3, #31
 80034d6:	2201      	movs	r2, #1
 80034d8:	fa02 f303 	lsl.w	r3, r2, r3
 80034dc:	60fb      	str	r3, [r7, #12]

    /* Filter Deactivation */
    CLEAR_BIT(can_ip->FA1R, filternbrbitpos);
 80034de:	697b      	ldr	r3, [r7, #20]
 80034e0:	f8d3 221c 	ldr.w	r2, [r3, #540]	@ 0x21c
 80034e4:	68fb      	ldr	r3, [r7, #12]
 80034e6:	43db      	mvns	r3, r3
 80034e8:	401a      	ands	r2, r3
 80034ea:	697b      	ldr	r3, [r7, #20]
 80034ec:	f8c3 221c 	str.w	r2, [r3, #540]	@ 0x21c

    /* Filter Scale */
    if (sFilterConfig->FilterScale == CAN_FILTERSCALE_16BIT)
 80034f0:	683b      	ldr	r3, [r7, #0]
 80034f2:	69db      	ldr	r3, [r3, #28]
 80034f4:	2b00      	cmp	r3, #0
 80034f6:	d123      	bne.n	8003540 <HAL_CAN_ConfigFilter+0xd0>
    {
      /* 16-bit scale for the filter */
      CLEAR_BIT(can_ip->FS1R, filternbrbitpos);
 80034f8:	697b      	ldr	r3, [r7, #20]
 80034fa:	f8d3 220c 	ldr.w	r2, [r3, #524]	@ 0x20c
 80034fe:	68fb      	ldr	r3, [r7, #12]
 8003500:	43db      	mvns	r3, r3
 8003502:	401a      	ands	r2, r3
 8003504:	697b      	ldr	r3, [r7, #20]
 8003506:	f8c3 220c 	str.w	r2, [r3, #524]	@ 0x20c

      /* First 16-bit identifier and First 16-bit mask */
      /* Or First 16-bit identifier and Second 16-bit identifier */
      can_ip->sFilterRegister[sFilterConfig->FilterBank].FR1 =
        ((0x0000FFFFU & (uint32_t)sFilterConfig->FilterMaskIdLow) << 16U) |
 800350a:	683b      	ldr	r3, [r7, #0]
 800350c:	68db      	ldr	r3, [r3, #12]
 800350e:	0419      	lsls	r1, r3, #16
        (0x0000FFFFU & (uint32_t)sFilterConfig->FilterIdLow);
 8003510:	683b      	ldr	r3, [r7, #0]
 8003512:	685b      	ldr	r3, [r3, #4]
 8003514:	b29b      	uxth	r3, r3
      can_ip->sFilterRegister[sFilterConfig->FilterBank].FR1 =
 8003516:	683a      	ldr	r2, [r7, #0]
 8003518:	6952      	ldr	r2, [r2, #20]
        ((0x0000FFFFU & (uint32_t)sFilterConfig->FilterMaskIdLow) << 16U) |
 800351a:	4319      	orrs	r1, r3
      can_ip->sFilterRegister[sFilterConfig->FilterBank].FR1 =
 800351c:	697b      	ldr	r3, [r7, #20]
 800351e:	3248      	adds	r2, #72	@ 0x48
 8003520:	f843 1032 	str.w	r1, [r3, r2, lsl #3]

      /* Second 16-bit identifier and Second 16-bit mask */
      /* Or Third 16-bit identifier and Fourth 16-bit identifier */
      can_ip->sFilterRegister[sFilterConfig->FilterBank].FR2 =
        ((0x0000FFFFU & (uint32_t)sFilterConfig->FilterMaskIdHigh) << 16U) |
 8003524:	683b      	ldr	r3, [r7, #0]
 8003526:	689b      	ldr	r3, [r3, #8]
 8003528:	0419      	lsls	r1, r3, #16
        (0x0000FFFFU & (uint32_t)sFilterConfig->FilterIdHigh);
 800352a:	683b      	ldr	r3, [r7, #0]
 800352c:	681b      	ldr	r3, [r3, #0]
 800352e:	b29a      	uxth	r2, r3
      can_ip->sFilterRegister[sFilterConfig->FilterBank].FR2 =
 8003530:	683b      	ldr	r3, [r7, #0]
 8003532:	695b      	ldr	r3, [r3, #20]
        ((0x0000FFFFU & (uint32_t)sFilterConfig->FilterMaskIdHigh) << 16U) |
 8003534:	430a      	orrs	r2, r1
      can_ip->sFilterRegister[sFilterConfig->FilterBank].FR2 =
 8003536:	6979      	ldr	r1, [r7, #20]
 8003538:	3348      	adds	r3, #72	@ 0x48
 800353a:	00db      	lsls	r3, r3, #3
 800353c:	440b      	add	r3, r1
 800353e:	605a      	str	r2, [r3, #4]
    }

    if (sFilterConfig->FilterScale == CAN_FILTERSCALE_32BIT)
 8003540:	683b      	ldr	r3, [r7, #0]
 8003542:	69db      	ldr	r3, [r3, #28]
 8003544:	2b01      	cmp	r3, #1
 8003546:	d122      	bne.n	800358e <HAL_CAN_ConfigFilter+0x11e>
    {
      /* 32-bit scale for the filter */
      SET_BIT(can_ip->FS1R, filternbrbitpos);
 8003548:	697b      	ldr	r3, [r7, #20]
 800354a:	f8d3 220c 	ldr.w	r2, [r3, #524]	@ 0x20c
 800354e:	68fb      	ldr	r3, [r7, #12]
 8003550:	431a      	orrs	r2, r3
 8003552:	697b      	ldr	r3, [r7, #20]
 8003554:	f8c3 220c 	str.w	r2, [r3, #524]	@ 0x20c

      /* 32-bit identifier or First 32-bit identifier */
      can_ip->sFilterRegister[sFilterConfig->FilterBank].FR1 =
        ((0x0000FFFFU & (uint32_t)sFilterConfig->FilterIdHigh) << 16U) |
 8003558:	683b      	ldr	r3, [r7, #0]
 800355a:	681b      	ldr	r3, [r3, #0]
 800355c:	0419      	lsls	r1, r3, #16
        (0x0000FFFFU & (uint32_t)sFilterConfig->FilterIdLow);
 800355e:	683b      	ldr	r3, [r7, #0]
 8003560:	685b      	ldr	r3, [r3, #4]
 8003562:	b29b      	uxth	r3, r3
      can_ip->sFilterRegister[sFilterConfig->FilterBank].FR1 =
 8003564:	683a      	ldr	r2, [r7, #0]
 8003566:	6952      	ldr	r2, [r2, #20]
        ((0x0000FFFFU & (uint32_t)sFilterConfig->FilterIdHigh) << 16U) |
 8003568:	4319      	orrs	r1, r3
      can_ip->sFilterRegister[sFilterConfig->FilterBank].FR1 =
 800356a:	697b      	ldr	r3, [r7, #20]
 800356c:	3248      	adds	r2, #72	@ 0x48
 800356e:	f843 1032 	str.w	r1, [r3, r2, lsl #3]

      /* 32-bit mask or Second 32-bit identifier */
      can_ip->sFilterRegister[sFilterConfig->FilterBank].FR2 =
        ((0x0000FFFFU & (uint32_t)sFilterConfig->FilterMaskIdHigh) << 16U) |
 8003572:	683b      	ldr	r3, [r7, #0]
 8003574:	689b      	ldr	r3, [r3, #8]
 8003576:	0419      	lsls	r1, r3, #16
        (0x0000FFFFU & (uint32_t)sFilterConfig->FilterMaskIdLow);
 8003578:	683b      	ldr	r3, [r7, #0]
 800357a:	68db      	ldr	r3, [r3, #12]
 800357c:	b29a      	uxth	r2, r3
      can_ip->sFilterRegister[sFilterConfig->FilterBank].FR2 =
 800357e:	683b      	ldr	r3, [r7, #0]
 8003580:	695b      	ldr	r3, [r3, #20]
        ((0x0000FFFFU & (uint32_t)sFilterConfig->FilterMaskIdHigh) << 16U) |
 8003582:	430a      	orrs	r2, r1
      can_ip->sFilterRegister[sFilterConfig->FilterBank].FR2 =
 8003584:	6979      	ldr	r1, [r7, #20]
 8003586:	3348      	adds	r3, #72	@ 0x48
 8003588:	00db      	lsls	r3, r3, #3
 800358a:	440b      	add	r3, r1
 800358c:	605a      	str	r2, [r3, #4]
    }

    /* Filter Mode */
    if (sFilterConfig->FilterMode == CAN_FILTERMODE_IDMASK)
 800358e:	683b      	ldr	r3, [r7, #0]
 8003590:	699b      	ldr	r3, [r3, #24]
 8003592:	2b00      	cmp	r3, #0
 8003594:	d109      	bne.n	80035aa <HAL_CAN_ConfigFilter+0x13a>
    {
      /* Id/Mask mode for the filter*/
      CLEAR_BIT(can_ip->FM1R, filternbrbitpos);
 8003596:	697b      	ldr	r3, [r7, #20]
 8003598:	f8d3 2204 	ldr.w	r2, [r3, #516]	@ 0x204
 800359c:	68fb      	ldr	r3, [r7, #12]
 800359e:	43db      	mvns	r3, r3
 80035a0:	401a      	ands	r2, r3
 80035a2:	697b      	ldr	r3, [r7, #20]
 80035a4:	f8c3 2204 	str.w	r2, [r3, #516]	@ 0x204
 80035a8:	e007      	b.n	80035ba <HAL_CAN_ConfigFilter+0x14a>
    }
    else /* CAN_FilterInitStruct->CAN_FilterMode == CAN_FilterMode_IdList */
    {
      /* Identifier list mode for the filter*/
      SET_BIT(can_ip->FM1R, filternbrbitpos);
 80035aa:	697b      	ldr	r3, [r7, #20]
 80035ac:	f8d3 2204 	ldr.w	r2, [r3, #516]	@ 0x204
 80035b0:	68fb      	ldr	r3, [r7, #12]
 80035b2:	431a      	orrs	r2, r3
 80035b4:	697b      	ldr	r3, [r7, #20]
 80035b6:	f8c3 2204 	str.w	r2, [r3, #516]	@ 0x204
    }

    /* Filter FIFO assignment */
    if (sFilterConfig->FilterFIFOAssignment == CAN_FILTER_FIFO0)
 80035ba:	683b      	ldr	r3, [r7, #0]
 80035bc:	691b      	ldr	r3, [r3, #16]
 80035be:	2b00      	cmp	r3, #0
 80035c0:	d109      	bne.n	80035d6 <HAL_CAN_ConfigFilter+0x166>
    {
      /* FIFO 0 assignation for the filter */
      CLEAR_BIT(can_ip->FFA1R, filternbrbitpos);
 80035c2:	697b      	ldr	r3, [r7, #20]
 80035c4:	f8d3 2214 	ldr.w	r2, [r3, #532]	@ 0x214
 80035c8:	68fb      	ldr	r3, [r7, #12]
 80035ca:	43db      	mvns	r3, r3
 80035cc:	401a      	ands	r2, r3
 80035ce:	697b      	ldr	r3, [r7, #20]
 80035d0:	f8c3 2214 	str.w	r2, [r3, #532]	@ 0x214
 80035d4:	e007      	b.n	80035e6 <HAL_CAN_ConfigFilter+0x176>
    }
    else
    {
      /* FIFO 1 assignation for the filter */
      SET_BIT(can_ip->FFA1R, filternbrbitpos);
 80035d6:	697b      	ldr	r3, [r7, #20]
 80035d8:	f8d3 2214 	ldr.w	r2, [r3, #532]	@ 0x214
 80035dc:	68fb      	ldr	r3, [r7, #12]
 80035de:	431a      	orrs	r2, r3
 80035e0:	697b      	ldr	r3, [r7, #20]
 80035e2:	f8c3 2214 	str.w	r2, [r3, #532]	@ 0x214
    }

    /* Filter activation */
    if (sFilterConfig->FilterActivation == CAN_FILTER_ENABLE)
 80035e6:	683b      	ldr	r3, [r7, #0]
 80035e8:	6a1b      	ldr	r3, [r3, #32]
 80035ea:	2b01      	cmp	r3, #1
 80035ec:	d107      	bne.n	80035fe <HAL_CAN_ConfigFilter+0x18e>
    {
      SET_BIT(can_ip->FA1R, filternbrbitpos);
 80035ee:	697b      	ldr	r3, [r7, #20]
 80035f0:	f8d3 221c 	ldr.w	r2, [r3, #540]	@ 0x21c
 80035f4:	68fb      	ldr	r3, [r7, #12]
 80035f6:	431a      	orrs	r2, r3
 80035f8:	697b      	ldr	r3, [r7, #20]
 80035fa:	f8c3 221c 	str.w	r2, [r3, #540]	@ 0x21c
    }

    /* Leave the initialisation mode for the filter */
    CLEAR_BIT(can_ip->FMR, CAN_FMR_FINIT);
 80035fe:	697b      	ldr	r3, [r7, #20]
 8003600:	f8d3 3200 	ldr.w	r3, [r3, #512]	@ 0x200
 8003604:	f023 0201 	bic.w	r2, r3, #1
 8003608:	697b      	ldr	r3, [r7, #20]
 800360a:	f8c3 2200 	str.w	r2, [r3, #512]	@ 0x200

    /* Return function status */
    return HAL_OK;
 800360e:	2300      	movs	r3, #0
 8003610:	e006      	b.n	8003620 <HAL_CAN_ConfigFilter+0x1b0>
  }
  else
  {
    /* Update error code */
    hcan->ErrorCode |= HAL_CAN_ERROR_NOT_INITIALIZED;
 8003612:	687b      	ldr	r3, [r7, #4]
 8003614:	6a5b      	ldr	r3, [r3, #36]	@ 0x24
 8003616:	f443 2280 	orr.w	r2, r3, #262144	@ 0x40000
 800361a:	687b      	ldr	r3, [r7, #4]
 800361c:	625a      	str	r2, [r3, #36]	@ 0x24

    return HAL_ERROR;
 800361e:	2301      	movs	r3, #1
  }
}
 8003620:	4618      	mov	r0, r3
 8003622:	371c      	adds	r7, #28
 8003624:	46bd      	mov	sp, r7
 8003626:	f85d 7b04 	ldr.w	r7, [sp], #4
 800362a:	4770      	bx	lr
 800362c:	40006400 	.word	0x40006400

08003630 <HAL_CAN_Start>:
  * @param  hcan pointer to an CAN_HandleTypeDef structure that contains
  *         the configuration information for the specified CAN.
  * @retval HAL status
  */
HAL_StatusTypeDef HAL_CAN_Start(CAN_HandleTypeDef *hcan)
{
 8003630:	b580      	push	{r7, lr}
 8003632:	b084      	sub	sp, #16
 8003634:	af00      	add	r7, sp, #0
 8003636:	6078      	str	r0, [r7, #4]
  uint32_t tickstart;

  if (hcan->State == HAL_CAN_STATE_READY)
 8003638:	687b      	ldr	r3, [r7, #4]
 800363a:	f893 3020 	ldrb.w	r3, [r3, #32]
 800363e:	b2db      	uxtb	r3, r3
 8003640:	2b01      	cmp	r3, #1
 8003642:	d12e      	bne.n	80036a2 <HAL_CAN_Start+0x72>
  {
    /* Change CAN peripheral state */
    hcan->State = HAL_CAN_STATE_LISTENING;
 8003644:	687b      	ldr	r3, [r7, #4]
 8003646:	2202      	movs	r2, #2
 8003648:	f883 2020 	strb.w	r2, [r3, #32]

    /* Request leave initialisation */
    CLEAR_BIT(hcan->Instance->MCR, CAN_MCR_INRQ);
 800364c:	687b      	ldr	r3, [r7, #4]
 800364e:	681b      	ldr	r3, [r3, #0]
 8003650:	681a      	ldr	r2, [r3, #0]
 8003652:	687b      	ldr	r3, [r7, #4]
 8003654:	681b      	ldr	r3, [r3, #0]
 8003656:	f022 0201 	bic.w	r2, r2, #1
 800365a:	601a      	str	r2, [r3, #0]

    /* Get tick */
    tickstart = HAL_GetTick();
 800365c:	f7ff fddc 	bl	8003218 <HAL_GetTick>
 8003660:	60f8      	str	r0, [r7, #12]

    /* Wait the acknowledge */
    while ((hcan->Instance->MSR & CAN_MSR_INAK) != 0U)
 8003662:	e012      	b.n	800368a <HAL_CAN_Start+0x5a>
    {
      /* Check for the Timeout */
      if ((HAL_GetTick() - tickstart) > CAN_TIMEOUT_VALUE)
 8003664:	f7ff fdd8 	bl	8003218 <HAL_GetTick>
 8003668:	4602      	mov	r2, r0
 800366a:	68fb      	ldr	r3, [r7, #12]
 800366c:	1ad3      	subs	r3, r2, r3
 800366e:	2b0a      	cmp	r3, #10
 8003670:	d90b      	bls.n	800368a <HAL_CAN_Start+0x5a>
      {
        /* Update error code */
        hcan->ErrorCode |= HAL_CAN_ERROR_TIMEOUT;
 8003672:	687b      	ldr	r3, [r7, #4]
 8003674:	6a5b      	ldr	r3, [r3, #36]	@ 0x24
 8003676:	f443 3200 	orr.w	r2, r3, #131072	@ 0x20000
 800367a:	687b      	ldr	r3, [r7, #4]
 800367c:	625a      	str	r2, [r3, #36]	@ 0x24

        /* Change CAN state */
        hcan->State = HAL_CAN_STATE_ERROR;
 800367e:	687b      	ldr	r3, [r7, #4]
 8003680:	2205      	movs	r2, #5
 8003682:	f883 2020 	strb.w	r2, [r3, #32]

        return HAL_ERROR;
 8003686:	2301      	movs	r3, #1
 8003688:	e012      	b.n	80036b0 <HAL_CAN_Start+0x80>
    while ((hcan->Instance->MSR & CAN_MSR_INAK) != 0U)
 800368a:	687b      	ldr	r3, [r7, #4]
 800368c:	681b      	ldr	r3, [r3, #0]
 800368e:	685b      	ldr	r3, [r3, #4]
 8003690:	f003 0301 	and.w	r3, r3, #1
 8003694:	2b00      	cmp	r3, #0
 8003696:	d1e5      	bne.n	8003664 <HAL_CAN_Start+0x34>
      }
    }

    /* Reset the CAN ErrorCode */
    hcan->ErrorCode = HAL_CAN_ERROR_NONE;
 8003698:	687b      	ldr	r3, [r7, #4]
 800369a:	2200      	movs	r2, #0
 800369c:	625a      	str	r2, [r3, #36]	@ 0x24

    /* Return function status */
    return HAL_OK;
 800369e:	2300      	movs	r3, #0
 80036a0:	e006      	b.n	80036b0 <HAL_CAN_Start+0x80>
  }
  else
  {
    /* Update error code */
    hcan->ErrorCode |= HAL_CAN_ERROR_NOT_READY;
 80036a2:	687b      	ldr	r3, [r7, #4]
 80036a4:	6a5b      	ldr	r3, [r3, #36]	@ 0x24
 80036a6:	f443 2200 	orr.w	r2, r3, #524288	@ 0x80000
 80036aa:	687b      	ldr	r3, [r7, #4]
 80036ac:	625a      	str	r2, [r3, #36]	@ 0x24

    return HAL_ERROR;
 80036ae:	2301      	movs	r3, #1
  }
}
 80036b0:	4618      	mov	r0, r3
 80036b2:	3710      	adds	r7, #16
 80036b4:	46bd      	mov	sp, r7
 80036b6:	bd80      	pop	{r7, pc}

080036b8 <HAL_CAN_AddTxMessage>:
  *         This parameter can be a value of @arg CAN_Tx_Mailboxes.
  * @retval HAL status
  */
HAL_StatusTypeDef HAL_CAN_AddTxMessage(CAN_HandleTypeDef *hcan, const CAN_TxHeaderTypeDef *pHeader,
                                       const uint8_t aData[], uint32_t *pTxMailbox)
{
 80036b8:	b480      	push	{r7}
 80036ba:	b089      	sub	sp, #36	@ 0x24
 80036bc:	af00      	add	r7, sp, #0
 80036be:	60f8      	str	r0, [r7, #12]
 80036c0:	60b9      	str	r1, [r7, #8]
 80036c2:	607a      	str	r2, [r7, #4]
 80036c4:	603b      	str	r3, [r7, #0]
  uint32_t transmitmailbox;
  HAL_CAN_StateTypeDef state = hcan->State;
 80036c6:	68fb      	ldr	r3, [r7, #12]
 80036c8:	f893 3020 	ldrb.w	r3, [r3, #32]
 80036cc:	77fb      	strb	r3, [r7, #31]
  uint32_t tsr = READ_REG(hcan->Instance->TSR);
 80036ce:	68fb      	ldr	r3, [r7, #12]
 80036d0:	681b      	ldr	r3, [r3, #0]
 80036d2:	689b      	ldr	r3, [r3, #8]
 80036d4:	61bb      	str	r3, [r7, #24]
  {
    assert_param(IS_CAN_EXTID(pHeader->ExtId));
  }
  assert_param(IS_FUNCTIONAL_STATE(pHeader->TransmitGlobalTime));

  if ((state == HAL_CAN_STATE_READY) ||
 80036d6:	7ffb      	ldrb	r3, [r7, #31]
 80036d8:	2b01      	cmp	r3, #1
 80036da:	d003      	beq.n	80036e4 <HAL_CAN_AddTxMessage+0x2c>
 80036dc:	7ffb      	ldrb	r3, [r7, #31]
 80036de:	2b02      	cmp	r3, #2
 80036e0:	f040 80ad 	bne.w	800383e <HAL_CAN_AddTxMessage+0x186>
      (state == HAL_CAN_STATE_LISTENING))
  {
    /* Check that all the Tx mailboxes are not full */
    if (((tsr & CAN_TSR_TME0) != 0U) ||
 80036e4:	69bb      	ldr	r3, [r7, #24]
 80036e6:	f003 6380 	and.w	r3, r3, #67108864	@ 0x4000000
 80036ea:	2b00      	cmp	r3, #0
 80036ec:	d10a      	bne.n	8003704 <HAL_CAN_AddTxMessage+0x4c>
        ((tsr & CAN_TSR_TME1) != 0U) ||
 80036ee:	69bb      	ldr	r3, [r7, #24]
 80036f0:	f003 6300 	and.w	r3, r3, #134217728	@ 0x8000000
    if (((tsr & CAN_TSR_TME0) != 0U) ||
 80036f4:	2b00      	cmp	r3, #0
 80036f6:	d105      	bne.n	8003704 <HAL_CAN_AddTxMessage+0x4c>
        ((tsr & CAN_TSR_TME2) != 0U))
 80036f8:	69bb      	ldr	r3, [r7, #24]
 80036fa:	f003 5380 	and.w	r3, r3, #268435456	@ 0x10000000
        ((tsr & CAN_TSR_TME1) != 0U) ||
 80036fe:	2b00      	cmp	r3, #0
 8003700:	f000 8095 	beq.w	800382e <HAL_CAN_AddTxMessage+0x176>
    {
      /* Select an empty transmit mailbox */
      transmitmailbox = (tsr & CAN_TSR_CODE) >> CAN_TSR_CODE_Pos;
 8003704:	69bb      	ldr	r3, [r7, #24]
 8003706:	0e1b      	lsrs	r3, r3, #24
 8003708:	f003 0303 	and.w	r3, r3, #3
 800370c:	617b      	str	r3, [r7, #20]

      /* Store the Tx mailbox */
      *pTxMailbox = (uint32_t)1 << transmitmailbox;
 800370e:	2201      	movs	r2, #1
 8003710:	697b      	ldr	r3, [r7, #20]
 8003712:	409a      	lsls	r2, r3
 8003714:	683b      	ldr	r3, [r7, #0]
 8003716:	601a      	str	r2, [r3, #0]

      /* Set up the Id */
      if (pHeader->IDE == CAN_ID_STD)
 8003718:	68bb      	ldr	r3, [r7, #8]
 800371a:	689b      	ldr	r3, [r3, #8]
 800371c:	2b00      	cmp	r3, #0
 800371e:	d10d      	bne.n	800373c <HAL_CAN_AddTxMessage+0x84>
      {
        hcan->Instance->sTxMailBox[transmitmailbox].TIR = ((pHeader->StdId << CAN_TI0R_STID_Pos) |
 8003720:	68bb      	ldr	r3, [r7, #8]
 8003722:	681b      	ldr	r3, [r3, #0]
 8003724:	055a      	lsls	r2, r3, #21
                                                           pHeader->RTR);
 8003726:	68bb      	ldr	r3, [r7, #8]
 8003728:	68db      	ldr	r3, [r3, #12]
        hcan->Instance->sTxMailBox[transmitmailbox].TIR = ((pHeader->StdId << CAN_TI0R_STID_Pos) |
 800372a:	68f9      	ldr	r1, [r7, #12]
 800372c:	6809      	ldr	r1, [r1, #0]
 800372e:	431a      	orrs	r2, r3
 8003730:	697b      	ldr	r3, [r7, #20]
 8003732:	3318      	adds	r3, #24
 8003734:	011b      	lsls	r3, r3, #4
 8003736:	440b      	add	r3, r1
 8003738:	601a      	str	r2, [r3, #0]
 800373a:	e00f      	b.n	800375c <HAL_CAN_AddTxMessage+0xa4>
      }
      else
      {
        hcan->Instance->sTxMailBox[transmitmailbox].TIR = ((pHeader->ExtId << CAN_TI0R_EXID_Pos) |
 800373c:	68bb      	ldr	r3, [r7, #8]
 800373e:	685b      	ldr	r3, [r3, #4]
 8003740:	00da      	lsls	r2, r3, #3
                                                           pHeader->IDE |
 8003742:	68bb      	ldr	r3, [r7, #8]
 8003744:	689b      	ldr	r3, [r3, #8]
        hcan->Instance->sTxMailBox[transmitmailbox].TIR = ((pHeader->ExtId << CAN_TI0R_EXID_Pos) |
 8003746:	431a      	orrs	r2, r3
                                                           pHeader->RTR);
 8003748:	68bb      	ldr	r3, [r7, #8]
 800374a:	68db      	ldr	r3, [r3, #12]
        hcan->Instance->sTxMailBox[transmitmailbox].TIR = ((pHeader->ExtId << CAN_TI0R_EXID_Pos) |
 800374c:	68f9      	ldr	r1, [r7, #12]
 800374e:	6809      	ldr	r1, [r1, #0]
                                                           pHeader->IDE |
 8003750:	431a      	orrs	r2, r3
        hcan->Instance->sTxMailBox[transmitmailbox].TIR = ((pHeader->ExtId << CAN_TI0R_EXID_Pos) |
 8003752:	697b      	ldr	r3, [r7, #20]
 8003754:	3318      	adds	r3, #24
 8003756:	011b      	lsls	r3, r3, #4
 8003758:	440b      	add	r3, r1
 800375a:	601a      	str	r2, [r3, #0]
      }

      /* Set up the DLC */
      hcan->Instance->sTxMailBox[transmitmailbox].TDTR = (pHeader->DLC);
 800375c:	68fb      	ldr	r3, [r7, #12]
 800375e:	6819      	ldr	r1, [r3, #0]
 8003760:	68bb      	ldr	r3, [r7, #8]
 8003762:	691a      	ldr	r2, [r3, #16]
 8003764:	697b      	ldr	r3, [r7, #20]
 8003766:	3318      	adds	r3, #24
 8003768:	011b      	lsls	r3, r3, #4
 800376a:	440b      	add	r3, r1
 800376c:	3304      	adds	r3, #4
 800376e:	601a      	str	r2, [r3, #0]

      /* Set up the Transmit Global Time mode */
      if (pHeader->TransmitGlobalTime == ENABLE)
 8003770:	68bb      	ldr	r3, [r7, #8]
 8003772:	7d1b      	ldrb	r3, [r3, #20]
 8003774:	2b01      	cmp	r3, #1
 8003776:	d111      	bne.n	800379c <HAL_CAN_AddTxMessage+0xe4>
      {
        SET_BIT(hcan->Instance->sTxMailBox[transmitmailbox].TDTR, CAN_TDT0R_TGT);
 8003778:	68fb      	ldr	r3, [r7, #12]
 800377a:	681a      	ldr	r2, [r3, #0]
 800377c:	697b      	ldr	r3, [r7, #20]
 800377e:	3318      	adds	r3, #24
 8003780:	011b      	lsls	r3, r3, #4
 8003782:	4413      	add	r3, r2
 8003784:	3304      	adds	r3, #4
 8003786:	681b      	ldr	r3, [r3, #0]
 8003788:	68fa      	ldr	r2, [r7, #12]
 800378a:	6811      	ldr	r1, [r2, #0]
 800378c:	f443 7280 	orr.w	r2, r3, #256	@ 0x100
 8003790:	697b      	ldr	r3, [r7, #20]
 8003792:	3318      	adds	r3, #24
 8003794:	011b      	lsls	r3, r3, #4
 8003796:	440b      	add	r3, r1
 8003798:	3304      	adds	r3, #4
 800379a:	601a      	str	r2, [r3, #0]
      }

      /* Set up the data field */
      WRITE_REG(hcan->Instance->sTxMailBox[transmitmailbox].TDHR,
 800379c:	687b      	ldr	r3, [r7, #4]
 800379e:	3307      	adds	r3, #7
 80037a0:	781b      	ldrb	r3, [r3, #0]
 80037a2:	061a      	lsls	r2, r3, #24
 80037a4:	687b      	ldr	r3, [r7, #4]
 80037a6:	3306      	adds	r3, #6
 80037a8:	781b      	ldrb	r3, [r3, #0]
 80037aa:	041b      	lsls	r3, r3, #16
 80037ac:	431a      	orrs	r2, r3
 80037ae:	687b      	ldr	r3, [r7, #4]
 80037b0:	3305      	adds	r3, #5
 80037b2:	781b      	ldrb	r3, [r3, #0]
 80037b4:	021b      	lsls	r3, r3, #8
 80037b6:	4313      	orrs	r3, r2
 80037b8:	687a      	ldr	r2, [r7, #4]
 80037ba:	3204      	adds	r2, #4
 80037bc:	7812      	ldrb	r2, [r2, #0]
 80037be:	4610      	mov	r0, r2
 80037c0:	68fa      	ldr	r2, [r7, #12]
 80037c2:	6811      	ldr	r1, [r2, #0]
 80037c4:	ea43 0200 	orr.w	r2, r3, r0
 80037c8:	697b      	ldr	r3, [r7, #20]
 80037ca:	011b      	lsls	r3, r3, #4
 80037cc:	440b      	add	r3, r1
 80037ce:	f503 73c6 	add.w	r3, r3, #396	@ 0x18c
 80037d2:	601a      	str	r2, [r3, #0]
                ((uint32_t)aData[7] << CAN_TDH0R_DATA7_Pos) |
                ((uint32_t)aData[6] << CAN_TDH0R_DATA6_Pos) |
                ((uint32_t)aData[5] << CAN_TDH0R_DATA5_Pos) |
                ((uint32_t)aData[4] << CAN_TDH0R_DATA4_Pos));
      WRITE_REG(hcan->Instance->sTxMailBox[transmitmailbox].TDLR,
 80037d4:	687b      	ldr	r3, [r7, #4]
 80037d6:	3303      	adds	r3, #3
 80037d8:	781b      	ldrb	r3, [r3, #0]
 80037da:	061a      	lsls	r2, r3, #24
 80037dc:	687b      	ldr	r3, [r7, #4]
 80037de:	3302      	adds	r3, #2
 80037e0:	781b      	ldrb	r3, [r3, #0]
 80037e2:	041b      	lsls	r3, r3, #16
 80037e4:	431a      	orrs	r2, r3
 80037e6:	687b      	ldr	r3, [r7, #4]
 80037e8:	3301      	adds	r3, #1
 80037ea:	781b      	ldrb	r3, [r3, #0]
 80037ec:	021b      	lsls	r3, r3, #8
 80037ee:	4313      	orrs	r3, r2
 80037f0:	687a      	ldr	r2, [r7, #4]
 80037f2:	7812      	ldrb	r2, [r2, #0]
 80037f4:	4610      	mov	r0, r2
 80037f6:	68fa      	ldr	r2, [r7, #12]
 80037f8:	6811      	ldr	r1, [r2, #0]
 80037fa:	ea43 0200 	orr.w	r2, r3, r0
 80037fe:	697b      	ldr	r3, [r7, #20]
 8003800:	011b      	lsls	r3, r3, #4
 8003802:	440b      	add	r3, r1
 8003804:	f503 73c4 	add.w	r3, r3, #392	@ 0x188
 8003808:	601a      	str	r2, [r3, #0]
                ((uint32_t)aData[2] << CAN_TDL0R_DATA2_Pos) |
                ((uint32_t)aData[1] << CAN_TDL0R_DATA1_Pos) |
                ((uint32_t)aData[0] << CAN_TDL0R_DATA0_Pos));

      /* Request transmission */
      SET_BIT(hcan->Instance->sTxMailBox[transmitmailbox].TIR, CAN_TI0R_TXRQ);
 800380a:	68fb      	ldr	r3, [r7, #12]
 800380c:	681a      	ldr	r2, [r3, #0]
 800380e:	697b      	ldr	r3, [r7, #20]
 8003810:	3318      	adds	r3, #24
 8003812:	011b      	lsls	r3, r3, #4
 8003814:	4413      	add	r3, r2
 8003816:	681b      	ldr	r3, [r3, #0]
 8003818:	68fa      	ldr	r2, [r7, #12]
 800381a:	6811      	ldr	r1, [r2, #0]
 800381c:	f043 0201 	orr.w	r2, r3, #1
 8003820:	697b      	ldr	r3, [r7, #20]
 8003822:	3318      	adds	r3, #24
 8003824:	011b      	lsls	r3, r3, #4
 8003826:	440b      	add	r3, r1
 8003828:	601a      	str	r2, [r3, #0]

      /* Return function status */
      return HAL_OK;
 800382a:	2300      	movs	r3, #0
 800382c:	e00e      	b.n	800384c <HAL_CAN_AddTxMessage+0x194>
    }
    else
    {
      /* Update error code */
      hcan->ErrorCode |= HAL_CAN_ERROR_PARAM;
 800382e:	68fb      	ldr	r3, [r7, #12]
 8003830:	6a5b      	ldr	r3, [r3, #36]	@ 0x24
 8003832:	f443 1200 	orr.w	r2, r3, #2097152	@ 0x200000
 8003836:	68fb      	ldr	r3, [r7, #12]
 8003838:	625a      	str	r2, [r3, #36]	@ 0x24

      return HAL_ERROR;
 800383a:	2301      	movs	r3, #1
 800383c:	e006      	b.n	800384c <HAL_CAN_AddTxMessage+0x194>
    }
  }
  else
  {
    /* Update error code */
    hcan->ErrorCode |= HAL_CAN_ERROR_NOT_INITIALIZED;
 800383e:	68fb      	ldr	r3, [r7, #12]
 8003840:	6a5b      	ldr	r3, [r3, #36]	@ 0x24
 8003842:	f443 2280 	orr.w	r2, r3, #262144	@ 0x40000
 8003846:	68fb      	ldr	r3, [r7, #12]
 8003848:	625a      	str	r2, [r3, #36]	@ 0x24

    return HAL_ERROR;
 800384a:	2301      	movs	r3, #1
  }
}
 800384c:	4618      	mov	r0, r3
 800384e:	3724      	adds	r7, #36	@ 0x24
 8003850:	46bd      	mov	sp, r7
 8003852:	f85d 7b04 	ldr.w	r7, [sp], #4
 8003856:	4770      	bx	lr

08003858 <HAL_CAN_GetRxMessage>:
  * @param  aData array where the payload of the Rx frame will be stored.
  * @retval HAL status
  */
HAL_StatusTypeDef HAL_CAN_GetRxMessage(CAN_HandleTypeDef *hcan, uint32_t RxFifo,
                                       CAN_RxHeaderTypeDef *pHeader, uint8_t aData[])
{
 8003858:	b480      	push	{r7}
 800385a:	b087      	sub	sp, #28
 800385c:	af00      	add	r7, sp, #0
 800385e:	60f8      	str	r0, [r7, #12]
 8003860:	60b9      	str	r1, [r7, #8]
 8003862:	607a      	str	r2, [r7, #4]
 8003864:	603b      	str	r3, [r7, #0]
  HAL_CAN_StateTypeDef state = hcan->State;
 8003866:	68fb      	ldr	r3, [r7, #12]
 8003868:	f893 3020 	ldrb.w	r3, [r3, #32]
 800386c:	75fb      	strb	r3, [r7, #23]

  assert_param(IS_CAN_RX_FIFO(RxFifo));

  if ((state == HAL_CAN_STATE_READY) ||
 800386e:	7dfb      	ldrb	r3, [r7, #23]
 8003870:	2b01      	cmp	r3, #1
 8003872:	d003      	beq.n	800387c <HAL_CAN_GetRxMessage+0x24>
 8003874:	7dfb      	ldrb	r3, [r7, #23]
 8003876:	2b02      	cmp	r3, #2
 8003878:	f040 8103 	bne.w	8003a82 <HAL_CAN_GetRxMessage+0x22a>
      (state == HAL_CAN_STATE_LISTENING))
  {
    /* Check the Rx FIFO */
    if (RxFifo == CAN_RX_FIFO0) /* Rx element is assigned to Rx FIFO 0 */
 800387c:	68bb      	ldr	r3, [r7, #8]
 800387e:	2b00      	cmp	r3, #0
 8003880:	d10e      	bne.n	80038a0 <HAL_CAN_GetRxMessage+0x48>
    {
      /* Check that the Rx FIFO 0 is not empty */
      if ((hcan->Instance->RF0R & CAN_RF0R_FMP0) == 0U)
 8003882:	68fb      	ldr	r3, [r7, #12]
 8003884:	681b      	ldr	r3, [r3, #0]
 8003886:	68db      	ldr	r3, [r3, #12]
 8003888:	f003 0303 	and.w	r3, r3, #3
 800388c:	2b00      	cmp	r3, #0
 800388e:	d116      	bne.n	80038be <HAL_CAN_GetRxMessage+0x66>
      {
        /* Update error code */
        hcan->ErrorCode |= HAL_CAN_ERROR_PARAM;
 8003890:	68fb      	ldr	r3, [r7, #12]
 8003892:	6a5b      	ldr	r3, [r3, #36]	@ 0x24
 8003894:	f443 1200 	orr.w	r2, r3, #2097152	@ 0x200000
 8003898:	68fb      	ldr	r3, [r7, #12]
 800389a:	625a      	str	r2, [r3, #36]	@ 0x24

        return HAL_ERROR;
 800389c:	2301      	movs	r3, #1
 800389e:	e0f7      	b.n	8003a90 <HAL_CAN_GetRxMessage+0x238>
      }
    }
    else /* Rx element is assigned to Rx FIFO 1 */
    {
      /* Check that the Rx FIFO 1 is not empty */
      if ((hcan->Instance->RF1R & CAN_RF1R_FMP1) == 0U)
 80038a0:	68fb      	ldr	r3, [r7, #12]
 80038a2:	681b      	ldr	r3, [r3, #0]
 80038a4:	691b      	ldr	r3, [r3, #16]
 80038a6:	f003 0303 	and.w	r3, r3, #3
 80038aa:	2b00      	cmp	r3, #0
 80038ac:	d107      	bne.n	80038be <HAL_CAN_GetRxMessage+0x66>
      {
        /* Update error code */
        hcan->ErrorCode |= HAL_CAN_ERROR_PARAM;
 80038ae:	68fb      	ldr	r3, [r7, #12]
 80038b0:	6a5b      	ldr	r3, [r3, #36]	@ 0x24
 80038b2:	f443 1200 	orr.w	r2, r3, #2097152	@ 0x200000
 80038b6:	68fb      	ldr	r3, [r7, #12]
 80038b8:	625a      	str	r2, [r3, #36]	@ 0x24

        return HAL_ERROR;
 80038ba:	2301      	movs	r3, #1
 80038bc:	e0e8      	b.n	8003a90 <HAL_CAN_GetRxMessage+0x238>
      }
    }

    /* Get the header */
    pHeader->IDE = CAN_RI0R_IDE & hcan->Instance->sFIFOMailBox[RxFifo].RIR;
 80038be:	68fb      	ldr	r3, [r7, #12]
 80038c0:	681a      	ldr	r2, [r3, #0]
 80038c2:	68bb      	ldr	r3, [r7, #8]
 80038c4:	331b      	adds	r3, #27
 80038c6:	011b      	lsls	r3, r3, #4
 80038c8:	4413      	add	r3, r2
 80038ca:	681b      	ldr	r3, [r3, #0]
 80038cc:	f003 0204 	and.w	r2, r3, #4
 80038d0:	687b      	ldr	r3, [r7, #4]
 80038d2:	609a      	str	r2, [r3, #8]
    if (pHeader->IDE == CAN_ID_STD)
 80038d4:	687b      	ldr	r3, [r7, #4]
 80038d6:	689b      	ldr	r3, [r3, #8]
 80038d8:	2b00      	cmp	r3, #0
 80038da:	d10c      	bne.n	80038f6 <HAL_CAN_GetRxMessage+0x9e>
    {
      pHeader->StdId = (CAN_RI0R_STID & hcan->Instance->sFIFOMailBox[RxFifo].RIR) >> CAN_TI0R_STID_Pos;
 80038dc:	68fb      	ldr	r3, [r7, #12]
 80038de:	681a      	ldr	r2, [r3, #0]
 80038e0:	68bb      	ldr	r3, [r7, #8]
 80038e2:	331b      	adds	r3, #27
 80038e4:	011b      	lsls	r3, r3, #4
 80038e6:	4413      	add	r3, r2
 80038e8:	681b      	ldr	r3, [r3, #0]
 80038ea:	0d5b      	lsrs	r3, r3, #21
 80038ec:	f3c3 020a 	ubfx	r2, r3, #0, #11
 80038f0:	687b      	ldr	r3, [r7, #4]
 80038f2:	601a      	str	r2, [r3, #0]
 80038f4:	e00b      	b.n	800390e <HAL_CAN_GetRxMessage+0xb6>
    }
    else
    {
      pHeader->ExtId = ((CAN_RI0R_EXID | CAN_RI0R_STID) &
                        hcan->Instance->sFIFOMailBox[RxFifo].RIR) >> CAN_RI0R_EXID_Pos;
 80038f6:	68fb      	ldr	r3, [r7, #12]
 80038f8:	681a      	ldr	r2, [r3, #0]
 80038fa:	68bb      	ldr	r3, [r7, #8]
 80038fc:	331b      	adds	r3, #27
 80038fe:	011b      	lsls	r3, r3, #4
 8003900:	4413      	add	r3, r2
 8003902:	681b      	ldr	r3, [r3, #0]
 8003904:	08db      	lsrs	r3, r3, #3
 8003906:	f023 4260 	bic.w	r2, r3, #3758096384	@ 0xe0000000
      pHeader->ExtId = ((CAN_RI0R_EXID | CAN_RI0R_STID) &
 800390a:	687b      	ldr	r3, [r7, #4]
 800390c:	605a      	str	r2, [r3, #4]
    }
    pHeader->RTR = (CAN_RI0R_RTR & hcan->Instance->sFIFOMailBox[RxFifo].RIR);
 800390e:	68fb      	ldr	r3, [r7, #12]
 8003910:	681a      	ldr	r2, [r3, #0]
 8003912:	68bb      	ldr	r3, [r7, #8]
 8003914:	331b      	adds	r3, #27
 8003916:	011b      	lsls	r3, r3, #4
 8003918:	4413      	add	r3, r2
 800391a:	681b      	ldr	r3, [r3, #0]
 800391c:	f003 0202 	and.w	r2, r3, #2
 8003920:	687b      	ldr	r3, [r7, #4]
 8003922:	60da      	str	r2, [r3, #12]
    if (((CAN_RDT0R_DLC & hcan->Instance->sFIFOMailBox[RxFifo].RDTR) >> CAN_RDT0R_DLC_Pos) >= 8U)
 8003924:	68fb      	ldr	r3, [r7, #12]
 8003926:	681a      	ldr	r2, [r3, #0]
 8003928:	68bb      	ldr	r3, [r7, #8]
 800392a:	331b      	adds	r3, #27
 800392c:	011b      	lsls	r3, r3, #4
 800392e:	4413      	add	r3, r2
 8003930:	3304      	adds	r3, #4
 8003932:	681b      	ldr	r3, [r3, #0]
 8003934:	f003 0308 	and.w	r3, r3, #8
 8003938:	2b00      	cmp	r3, #0
 800393a:	d003      	beq.n	8003944 <HAL_CAN_GetRxMessage+0xec>
    {
      /* Truncate DLC to 8 if received field is over range */
      pHeader->DLC = 8U;
 800393c:	687b      	ldr	r3, [r7, #4]
 800393e:	2208      	movs	r2, #8
 8003940:	611a      	str	r2, [r3, #16]
 8003942:	e00b      	b.n	800395c <HAL_CAN_GetRxMessage+0x104>
    }
    else
    {
      pHeader->DLC = (CAN_RDT0R_DLC & hcan->Instance->sFIFOMailBox[RxFifo].RDTR) >> CAN_RDT0R_DLC_Pos;
 8003944:	68fb      	ldr	r3, [r7, #12]
 8003946:	681a      	ldr	r2, [r3, #0]
 8003948:	68bb      	ldr	r3, [r7, #8]
 800394a:	331b      	adds	r3, #27
 800394c:	011b      	lsls	r3, r3, #4
 800394e:	4413      	add	r3, r2
 8003950:	3304      	adds	r3, #4
 8003952:	681b      	ldr	r3, [r3, #0]
 8003954:	f003 020f 	and.w	r2, r3, #15
 8003958:	687b      	ldr	r3, [r7, #4]
 800395a:	611a      	str	r2, [r3, #16]
    }
    pHeader->FilterMatchIndex = (CAN_RDT0R_FMI & hcan->Instance->sFIFOMailBox[RxFifo].RDTR) >> CAN_RDT0R_FMI_Pos;
 800395c:	68fb      	ldr	r3, [r7, #12]
 800395e:	681a      	ldr	r2, [r3, #0]
 8003960:	68bb      	ldr	r3, [r7, #8]
 8003962:	331b      	adds	r3, #27
 8003964:	011b      	lsls	r3, r3, #4
 8003966:	4413      	add	r3, r2
 8003968:	3304      	adds	r3, #4
 800396a:	681b      	ldr	r3, [r3, #0]
 800396c:	0a1b      	lsrs	r3, r3, #8
 800396e:	b2da      	uxtb	r2, r3
 8003970:	687b      	ldr	r3, [r7, #4]
 8003972:	619a      	str	r2, [r3, #24]
    pHeader->Timestamp = (CAN_RDT0R_TIME & hcan->Instance->sFIFOMailBox[RxFifo].RDTR) >> CAN_RDT0R_TIME_Pos;
 8003974:	68fb      	ldr	r3, [r7, #12]
 8003976:	681a      	ldr	r2, [r3, #0]
 8003978:	68bb      	ldr	r3, [r7, #8]
 800397a:	331b      	adds	r3, #27
 800397c:	011b      	lsls	r3, r3, #4
 800397e:	4413      	add	r3, r2
 8003980:	3304      	adds	r3, #4
 8003982:	681b      	ldr	r3, [r3, #0]
 8003984:	0c1b      	lsrs	r3, r3, #16
 8003986:	b29a      	uxth	r2, r3
 8003988:	687b      	ldr	r3, [r7, #4]
 800398a:	615a      	str	r2, [r3, #20]

    /* Get the data */
    aData[0] = (uint8_t)((CAN_RDL0R_DATA0 & hcan->Instance->sFIFOMailBox[RxFifo].RDLR) >> CAN_RDL0R_DATA0_Pos);
 800398c:	68fb      	ldr	r3, [r7, #12]
 800398e:	681a      	ldr	r2, [r3, #0]
 8003990:	68bb      	ldr	r3, [r7, #8]
 8003992:	011b      	lsls	r3, r3, #4
 8003994:	4413      	add	r3, r2
 8003996:	f503 73dc 	add.w	r3, r3, #440	@ 0x1b8
 800399a:	681b      	ldr	r3, [r3, #0]
 800399c:	b2da      	uxtb	r2, r3
 800399e:	683b      	ldr	r3, [r7, #0]
 80039a0:	701a      	strb	r2, [r3, #0]
    aData[1] = (uint8_t)((CAN_RDL0R_DATA1 & hcan->Instance->sFIFOMailBox[RxFifo].RDLR) >> CAN_RDL0R_DATA1_Pos);
 80039a2:	68fb      	ldr	r3, [r7, #12]
 80039a4:	681a      	ldr	r2, [r3, #0]
 80039a6:	68bb      	ldr	r3, [r7, #8]
 80039a8:	011b      	lsls	r3, r3, #4
 80039aa:	4413      	add	r3, r2
 80039ac:	f503 73dc 	add.w	r3, r3, #440	@ 0x1b8
 80039b0:	681b      	ldr	r3, [r3, #0]
 80039b2:	0a1a      	lsrs	r2, r3, #8
 80039b4:	683b      	ldr	r3, [r7, #0]
 80039b6:	3301      	adds	r3, #1
 80039b8:	b2d2      	uxtb	r2, r2
 80039ba:	701a      	strb	r2, [r3, #0]
    aData[2] = (uint8_t)((CAN_RDL0R_DATA2 & hcan->Instance->sFIFOMailBox[RxFifo].RDLR) >> CAN_RDL0R_DATA2_Pos);
 80039bc:	68fb      	ldr	r3, [r7, #12]
 80039be:	681a      	ldr	r2, [r3, #0]
 80039c0:	68bb      	ldr	r3, [r7, #8]
 80039c2:	011b      	lsls	r3, r3, #4
 80039c4:	4413      	add	r3, r2
 80039c6:	f503 73dc 	add.w	r3, r3, #440	@ 0x1b8
 80039ca:	681b      	ldr	r3, [r3, #0]
 80039cc:	0c1a      	lsrs	r2, r3, #16
 80039ce:	683b      	ldr	r3, [r7, #0]
 80039d0:	3302      	adds	r3, #2
 80039d2:	b2d2      	uxtb	r2, r2
 80039d4:	701a      	strb	r2, [r3, #0]
    aData[3] = (uint8_t)((CAN_RDL0R_DATA3 & hcan->Instance->sFIFOMailBox[RxFifo].RDLR) >> CAN_RDL0R_DATA3_Pos);
 80039d6:	68fb      	ldr	r3, [r7, #12]
 80039d8:	681a      	ldr	r2, [r3, #0]
 80039da:	68bb      	ldr	r3, [r7, #8]
 80039dc:	011b      	lsls	r3, r3, #4
 80039de:	4413      	add	r3, r2
 80039e0:	f503 73dc 	add.w	r3, r3, #440	@ 0x1b8
 80039e4:	681b      	ldr	r3, [r3, #0]
 80039e6:	0e1a      	lsrs	r2, r3, #24
 80039e8:	683b      	ldr	r3, [r7, #0]
 80039ea:	3303      	adds	r3, #3
 80039ec:	b2d2      	uxtb	r2, r2
 80039ee:	701a      	strb	r2, [r3, #0]
    aData[4] = (uint8_t)((CAN_RDH0R_DATA4 & hcan->Instance->sFIFOMailBox[RxFifo].RDHR) >> CAN_RDH0R_DATA4_Pos);
 80039f0:	68fb      	ldr	r3, [r7, #12]
 80039f2:	681a      	ldr	r2, [r3, #0]
 80039f4:	68bb      	ldr	r3, [r7, #8]
 80039f6:	011b      	lsls	r3, r3, #4
 80039f8:	4413      	add	r3, r2
 80039fa:	f503 73de 	add.w	r3, r3, #444	@ 0x1bc
 80039fe:	681a      	ldr	r2, [r3, #0]
 8003a00:	683b      	ldr	r3, [r7, #0]
 8003a02:	3304      	adds	r3, #4
 8003a04:	b2d2      	uxtb	r2, r2
 8003a06:	701a      	strb	r2, [r3, #0]
    aData[5] = (uint8_t)((CAN_RDH0R_DATA5 & hcan->Instance->sFIFOMailBox[RxFifo].RDHR) >> CAN_RDH0R_DATA5_Pos);
 8003a08:	68fb      	ldr	r3, [r7, #12]
 8003a0a:	681a      	ldr	r2, [r3, #0]
 8003a0c:	68bb      	ldr	r3, [r7, #8]
 8003a0e:	011b      	lsls	r3, r3, #4
 8003a10:	4413      	add	r3, r2
 8003a12:	f503 73de 	add.w	r3, r3, #444	@ 0x1bc
 8003a16:	681b      	ldr	r3, [r3, #0]
 8003a18:	0a1a      	lsrs	r2, r3, #8
 8003a1a:	683b      	ldr	r3, [r7, #0]
 8003a1c:	3305      	adds	r3, #5
 8003a1e:	b2d2      	uxtb	r2, r2
 8003a20:	701a      	strb	r2, [r3, #0]
    aData[6] = (uint8_t)((CAN_RDH0R_DATA6 & hcan->Instance->sFIFOMailBox[RxFifo].RDHR) >> CAN_RDH0R_DATA6_Pos);
 8003a22:	68fb      	ldr	r3, [r7, #12]
 8003a24:	681a      	ldr	r2, [r3, #0]
 8003a26:	68bb      	ldr	r3, [r7, #8]
 8003a28:	011b      	lsls	r3, r3, #4
 8003a2a:	4413      	add	r3, r2
 8003a2c:	f503 73de 	add.w	r3, r3, #444	@ 0x1bc
 8003a30:	681b      	ldr	r3, [r3, #0]
 8003a32:	0c1a      	lsrs	r2, r3, #16
 8003a34:	683b      	ldr	r3, [r7, #0]
 8003a36:	3306      	adds	r3, #6
 8003a38:	b2d2      	uxtb	r2, r2
 8003a3a:	701a      	strb	r2, [r3, #0]
    aData[7] = (uint8_t)((CAN_RDH0R_DATA7 & hcan->Instance->sFIFOMailBox[RxFifo].RDHR) >> CAN_RDH0R_DATA7_Pos);
 8003a3c:	68fb      	ldr	r3, [r7, #12]
 8003a3e:	681a      	ldr	r2, [r3, #0]
 8003a40:	68bb      	ldr	r3, [r7, #8]
 8003a42:	011b      	lsls	r3, r3, #4
 8003a44:	4413      	add	r3, r2
 8003a46:	f503 73de 	add.w	r3, r3, #444	@ 0x1bc
 8003a4a:	681b      	ldr	r3, [r3, #0]
 8003a4c:	0e1a      	lsrs	r2, r3, #24
 8003a4e:	683b      	ldr	r3, [r7, #0]
 8003a50:	3307      	adds	r3, #7
 8003a52:	b2d2      	uxtb	r2, r2
 8003a54:	701a      	strb	r2, [r3, #0]

    /* Release the FIFO */
    if (RxFifo == CAN_RX_FIFO0) /* Rx element is assigned to Rx FIFO 0 */
 8003a56:	68bb      	ldr	r3, [r7, #8]
 8003a58:	2b00      	cmp	r3, #0
 8003a5a:	d108      	bne.n	8003a6e <HAL_CAN_GetRxMessage+0x216>
    {
      /* Release RX FIFO 0 */
      SET_BIT(hcan->Instance->RF0R, CAN_RF0R_RFOM0);
 8003a5c:	68fb      	ldr	r3, [r7, #12]
 8003a5e:	681b      	ldr	r3, [r3, #0]
 8003a60:	68da      	ldr	r2, [r3, #12]
 8003a62:	68fb      	ldr	r3, [r7, #12]
 8003a64:	681b      	ldr	r3, [r3, #0]
 8003a66:	f042 0220 	orr.w	r2, r2, #32
 8003a6a:	60da      	str	r2, [r3, #12]
 8003a6c:	e007      	b.n	8003a7e <HAL_CAN_GetRxMessage+0x226>
    }
    else /* Rx element is assigned to Rx FIFO 1 */
    {
      /* Release RX FIFO 1 */
      SET_BIT(hcan->Instance->RF1R, CAN_RF1R_RFOM1);
 8003a6e:	68fb      	ldr	r3, [r7, #12]
 8003a70:	681b      	ldr	r3, [r3, #0]
 8003a72:	691a      	ldr	r2, [r3, #16]
 8003a74:	68fb      	ldr	r3, [r7, #12]
 8003a76:	681b      	ldr	r3, [r3, #0]
 8003a78:	f042 0220 	orr.w	r2, r2, #32
 8003a7c:	611a      	str	r2, [r3, #16]
    }

    /* Return function status */
    return HAL_OK;
 8003a7e:	2300      	movs	r3, #0
 8003a80:	e006      	b.n	8003a90 <HAL_CAN_GetRxMessage+0x238>
  }
  else
  {
    /* Update error code */
    hcan->ErrorCode |= HAL_CAN_ERROR_NOT_INITIALIZED;
 8003a82:	68fb      	ldr	r3, [r7, #12]
 8003a84:	6a5b      	ldr	r3, [r3, #36]	@ 0x24
 8003a86:	f443 2280 	orr.w	r2, r3, #262144	@ 0x40000
 8003a8a:	68fb      	ldr	r3, [r7, #12]
 8003a8c:	625a      	str	r2, [r3, #36]	@ 0x24

    return HAL_ERROR;
 8003a8e:	2301      	movs	r3, #1
  }
}
 8003a90:	4618      	mov	r0, r3
 8003a92:	371c      	adds	r7, #28
 8003a94:	46bd      	mov	sp, r7
 8003a96:	f85d 7b04 	ldr.w	r7, [sp], #4
 8003a9a:	4770      	bx	lr

08003a9c <HAL_CAN_ActivateNotification>:
  * @param  ActiveITs indicates which interrupts will be enabled.
  *         This parameter can be any combination of @arg CAN_Interrupts.
  * @retval HAL status
  */
HAL_StatusTypeDef HAL_CAN_ActivateNotification(CAN_HandleTypeDef *hcan, uint32_t ActiveITs)
{
 8003a9c:	b480      	push	{r7}
 8003a9e:	b085      	sub	sp, #20
 8003aa0:	af00      	add	r7, sp, #0
 8003aa2:	6078      	str	r0, [r7, #4]
 8003aa4:	6039      	str	r1, [r7, #0]
  HAL_CAN_StateTypeDef state = hcan->State;
 8003aa6:	687b      	ldr	r3, [r7, #4]
 8003aa8:	f893 3020 	ldrb.w	r3, [r3, #32]
 8003aac:	73fb      	strb	r3, [r7, #15]

  /* Check function parameters */
  assert_param(IS_CAN_IT(ActiveITs));

  if ((state == HAL_CAN_STATE_READY) ||
 8003aae:	7bfb      	ldrb	r3, [r7, #15]
 8003ab0:	2b01      	cmp	r3, #1
 8003ab2:	d002      	beq.n	8003aba <HAL_CAN_ActivateNotification+0x1e>
 8003ab4:	7bfb      	ldrb	r3, [r7, #15]
 8003ab6:	2b02      	cmp	r3, #2
 8003ab8:	d109      	bne.n	8003ace <HAL_CAN_ActivateNotification+0x32>
      (state == HAL_CAN_STATE_LISTENING))
  {
    /* Enable the selected interrupts */
    __HAL_CAN_ENABLE_IT(hcan, ActiveITs);
 8003aba:	687b      	ldr	r3, [r7, #4]
 8003abc:	681b      	ldr	r3, [r3, #0]
 8003abe:	6959      	ldr	r1, [r3, #20]
 8003ac0:	687b      	ldr	r3, [r7, #4]
 8003ac2:	681b      	ldr	r3, [r3, #0]
 8003ac4:	683a      	ldr	r2, [r7, #0]
 8003ac6:	430a      	orrs	r2, r1
 8003ac8:	615a      	str	r2, [r3, #20]

    /* Return function status */
    return HAL_OK;
 8003aca:	2300      	movs	r3, #0
 8003acc:	e006      	b.n	8003adc <HAL_CAN_ActivateNotification+0x40>
  }
  else
  {
    /* Update error code */
    hcan->ErrorCode |= HAL_CAN_ERROR_NOT_INITIALIZED;
 8003ace:	687b      	ldr	r3, [r7, #4]
 8003ad0:	6a5b      	ldr	r3, [r3, #36]	@ 0x24
 8003ad2:	f443 2280 	orr.w	r2, r3, #262144	@ 0x40000
 8003ad6:	687b      	ldr	r3, [r7, #4]
 8003ad8:	625a      	str	r2, [r3, #36]	@ 0x24

    return HAL_ERROR;
 8003ada:	2301      	movs	r3, #1
  }
}
 8003adc:	4618      	mov	r0, r3
 8003ade:	3714      	adds	r7, #20
 8003ae0:	46bd      	mov	sp, r7
 8003ae2:	f85d 7b04 	ldr.w	r7, [sp], #4
 8003ae6:	4770      	bx	lr

08003ae8 <HAL_CAN_IRQHandler>:
  * @param  hcan pointer to a CAN_HandleTypeDef structure that contains
  *         the configuration information for the specified CAN.
  * @retval None
  */
void HAL_CAN_IRQHandler(CAN_HandleTypeDef *hcan)
{
 8003ae8:	b580      	push	{r7, lr}
 8003aea:	b08a      	sub	sp, #40	@ 0x28
 8003aec:	af00      	add	r7, sp, #0
 8003aee:	6078      	str	r0, [r7, #4]
  uint32_t errorcode = HAL_CAN_ERROR_NONE;
 8003af0:	2300      	movs	r3, #0
 8003af2:	627b      	str	r3, [r7, #36]	@ 0x24
  uint32_t interrupts = READ_REG(hcan->Instance->IER);
 8003af4:	687b      	ldr	r3, [r7, #4]
 8003af6:	681b      	ldr	r3, [r3, #0]
 8003af8:	695b      	ldr	r3, [r3, #20]
 8003afa:	623b      	str	r3, [r7, #32]
  uint32_t msrflags = READ_REG(hcan->Instance->MSR);
 8003afc:	687b      	ldr	r3, [r7, #4]
 8003afe:	681b      	ldr	r3, [r3, #0]
 8003b00:	685b      	ldr	r3, [r3, #4]
 8003b02:	61fb      	str	r3, [r7, #28]
  uint32_t tsrflags = READ_REG(hcan->Instance->TSR);
 8003b04:	687b      	ldr	r3, [r7, #4]
 8003b06:	681b      	ldr	r3, [r3, #0]
 8003b08:	689b      	ldr	r3, [r3, #8]
 8003b0a:	61bb      	str	r3, [r7, #24]
  uint32_t rf0rflags = READ_REG(hcan->Instance->RF0R);
 8003b0c:	687b      	ldr	r3, [r7, #4]
 8003b0e:	681b      	ldr	r3, [r3, #0]
 8003b10:	68db      	ldr	r3, [r3, #12]
 8003b12:	617b      	str	r3, [r7, #20]
  uint32_t rf1rflags = READ_REG(hcan->Instance->RF1R);
 8003b14:	687b      	ldr	r3, [r7, #4]
 8003b16:	681b      	ldr	r3, [r3, #0]
 8003b18:	691b      	ldr	r3, [r3, #16]
 8003b1a:	613b      	str	r3, [r7, #16]
  uint32_t esrflags = READ_REG(hcan->Instance->ESR);
 8003b1c:	687b      	ldr	r3, [r7, #4]
 8003b1e:	681b      	ldr	r3, [r3, #0]
 8003b20:	699b      	ldr	r3, [r3, #24]
 8003b22:	60fb      	str	r3, [r7, #12]

  /* Transmit Mailbox empty interrupt management *****************************/
  if ((interrupts & CAN_IT_TX_MAILBOX_EMPTY) != 0U)
 8003b24:	6a3b      	ldr	r3, [r7, #32]
 8003b26:	f003 0301 	and.w	r3, r3, #1
 8003b2a:	2b00      	cmp	r3, #0
 8003b2c:	d07c      	beq.n	8003c28 <HAL_CAN_IRQHandler+0x140>
  {
    /* Transmit Mailbox 0 management *****************************************/
    if ((tsrflags & CAN_TSR_RQCP0) != 0U)
 8003b2e:	69bb      	ldr	r3, [r7, #24]
 8003b30:	f003 0301 	and.w	r3, r3, #1
 8003b34:	2b00      	cmp	r3, #0
 8003b36:	d023      	beq.n	8003b80 <HAL_CAN_IRQHandler+0x98>
    {
      /* Clear the Transmission Complete flag (and TXOK0,ALST0,TERR0 bits) */
      __HAL_CAN_CLEAR_FLAG(hcan, CAN_FLAG_RQCP0);
 8003b38:	687b      	ldr	r3, [r7, #4]
 8003b3a:	681b      	ldr	r3, [r3, #0]
 8003b3c:	2201      	movs	r2, #1
 8003b3e:	609a      	str	r2, [r3, #8]

      if ((tsrflags & CAN_TSR_TXOK0) != 0U)
 8003b40:	69bb      	ldr	r3, [r7, #24]
 8003b42:	f003 0302 	and.w	r3, r3, #2
 8003b46:	2b00      	cmp	r3, #0
 8003b48:	d003      	beq.n	8003b52 <HAL_CAN_IRQHandler+0x6a>
#if USE_HAL_CAN_REGISTER_CALLBACKS == 1
        /* Call registered callback*/
        hcan->TxMailbox0CompleteCallback(hcan);
#else
        /* Call weak (surcharged) callback */
        HAL_CAN_TxMailbox0CompleteCallback(hcan);
 8003b4a:	6878      	ldr	r0, [r7, #4]
 8003b4c:	f000 f983 	bl	8003e56 <HAL_CAN_TxMailbox0CompleteCallback>
 8003b50:	e016      	b.n	8003b80 <HAL_CAN_IRQHandler+0x98>
#endif /* USE_HAL_CAN_REGISTER_CALLBACKS */
      }
      else
      {
        if ((tsrflags & CAN_TSR_ALST0) != 0U)
 8003b52:	69bb      	ldr	r3, [r7, #24]
 8003b54:	f003 0304 	and.w	r3, r3, #4
 8003b58:	2b00      	cmp	r3, #0
 8003b5a:	d004      	beq.n	8003b66 <HAL_CAN_IRQHandler+0x7e>
        {
          /* Update error code */
          errorcode |= HAL_CAN_ERROR_TX_ALST0;
 8003b5c:	6a7b      	ldr	r3, [r7, #36]	@ 0x24
 8003b5e:	f443 6300 	orr.w	r3, r3, #2048	@ 0x800
 8003b62:	627b      	str	r3, [r7, #36]	@ 0x24
 8003b64:	e00c      	b.n	8003b80 <HAL_CAN_IRQHandler+0x98>
        }
        else if ((tsrflags & CAN_TSR_TERR0) != 0U)
 8003b66:	69bb      	ldr	r3, [r7, #24]
 8003b68:	f003 0308 	and.w	r3, r3, #8
 8003b6c:	2b00      	cmp	r3, #0
 8003b6e:	d004      	beq.n	8003b7a <HAL_CAN_IRQHandler+0x92>
        {
          /* Update error code */
          errorcode |= HAL_CAN_ERROR_TX_TERR0;
 8003b70:	6a7b      	ldr	r3, [r7, #36]	@ 0x24
 8003b72:	f443 5380 	orr.w	r3, r3, #4096	@ 0x1000
 8003b76:	627b      	str	r3, [r7, #36]	@ 0x24
 8003b78:	e002      	b.n	8003b80 <HAL_CAN_IRQHandler+0x98>
#if USE_HAL_CAN_REGISTER_CALLBACKS == 1
          /* Call registered callback*/
          hcan->TxMailbox0AbortCallback(hcan);
#else
          /* Call weak (surcharged) callback */
          HAL_CAN_TxMailbox0AbortCallback(hcan);
 8003b7a:	6878      	ldr	r0, [r7, #4]
 8003b7c:	f000 f989 	bl	8003e92 <HAL_CAN_TxMailbox0AbortCallback>
        }
      }
    }

    /* Transmit Mailbox 1 management *****************************************/
    if ((tsrflags & CAN_TSR_RQCP1) != 0U)
 8003b80:	69bb      	ldr	r3, [r7, #24]
 8003b82:	f403 7380 	and.w	r3, r3, #256	@ 0x100
 8003b86:	2b00      	cmp	r3, #0
 8003b88:	d024      	beq.n	8003bd4 <HAL_CAN_IRQHandler+0xec>
    {
      /* Clear the Transmission Complete flag (and TXOK1,ALST1,TERR1 bits) */
      __HAL_CAN_CLEAR_FLAG(hcan, CAN_FLAG_RQCP1);
 8003b8a:	687b      	ldr	r3, [r7, #4]
 8003b8c:	681b      	ldr	r3, [r3, #0]
 8003b8e:	f44f 7280 	mov.w	r2, #256	@ 0x100
 8003b92:	609a      	str	r2, [r3, #8]

      if ((tsrflags & CAN_TSR_TXOK1) != 0U)
 8003b94:	69bb      	ldr	r3, [r7, #24]
 8003b96:	f403 7300 	and.w	r3, r3, #512	@ 0x200
 8003b9a:	2b00      	cmp	r3, #0
 8003b9c:	d003      	beq.n	8003ba6 <HAL_CAN_IRQHandler+0xbe>
#if USE_HAL_CAN_REGISTER_CALLBACKS == 1
        /* Call registered callback*/
        hcan->TxMailbox1CompleteCallback(hcan);
#else
        /* Call weak (surcharged) callback */
        HAL_CAN_TxMailbox1CompleteCallback(hcan);
 8003b9e:	6878      	ldr	r0, [r7, #4]
 8003ba0:	f000 f963 	bl	8003e6a <HAL_CAN_TxMailbox1CompleteCallback>
 8003ba4:	e016      	b.n	8003bd4 <HAL_CAN_IRQHandler+0xec>
#endif /* USE_HAL_CAN_REGISTER_CALLBACKS */
      }
      else
      {
        if ((tsrflags & CAN_TSR_ALST1) != 0U)
 8003ba6:	69bb      	ldr	r3, [r7, #24]
 8003ba8:	f403 6380 	and.w	r3, r3, #1024	@ 0x400
 8003bac:	2b00      	cmp	r3, #0
 8003bae:	d004      	beq.n	8003bba <HAL_CAN_IRQHandler+0xd2>
        {
          /* Update error code */
          errorcode |= HAL_CAN_ERROR_TX_ALST1;
 8003bb0:	6a7b      	ldr	r3, [r7, #36]	@ 0x24
 8003bb2:	f443 5300 	orr.w	r3, r3, #8192	@ 0x2000
 8003bb6:	627b      	str	r3, [r7, #36]	@ 0x24
 8003bb8:	e00c      	b.n	8003bd4 <HAL_CAN_IRQHandler+0xec>
        }
        else if ((tsrflags & CAN_TSR_TERR1) != 0U)
 8003bba:	69bb      	ldr	r3, [r7, #24]
 8003bbc:	f403 6300 	and.w	r3, r3, #2048	@ 0x800
 8003bc0:	2b00      	cmp	r3, #0
 8003bc2:	d004      	beq.n	8003bce <HAL_CAN_IRQHandler+0xe6>
        {
          /* Update error code */
          errorcode |= HAL_CAN_ERROR_TX_TERR1;
 8003bc4:	6a7b      	ldr	r3, [r7, #36]	@ 0x24
 8003bc6:	f443 4380 	orr.w	r3, r3, #16384	@ 0x4000
 8003bca:	627b      	str	r3, [r7, #36]	@ 0x24
 8003bcc:	e002      	b.n	8003bd4 <HAL_CAN_IRQHandler+0xec>
#if USE_HAL_CAN_REGISTER_CALLBACKS == 1
          /* Call registered callback*/
          hcan->TxMailbox1AbortCallback(hcan);
#else
          /* Call weak (surcharged) callback */
          HAL_CAN_TxMailbox1AbortCallback(hcan);
 8003bce:	6878      	ldr	r0, [r7, #4]
 8003bd0:	f000 f969 	bl	8003ea6 <HAL_CAN_TxMailbox1AbortCallback>
        }
      }
    }

    /* Transmit Mailbox 2 management *****************************************/
    if ((tsrflags & CAN_TSR_RQCP2) != 0U)
 8003bd4:	69bb      	ldr	r3, [r7, #24]
 8003bd6:	f403 3380 	and.w	r3, r3, #65536	@ 0x10000
 8003bda:	2b00      	cmp	r3, #0
 8003bdc:	d024      	beq.n	8003c28 <HAL_CAN_IRQHandler+0x140>
    {
      /* Clear the Transmission Complete flag (and TXOK2,ALST2,TERR2 bits) */
      __HAL_CAN_CLEAR_FLAG(hcan, CAN_FLAG_RQCP2);
 8003bde:	687b      	ldr	r3, [r7, #4]
 8003be0:	681b      	ldr	r3, [r3, #0]
 8003be2:	f44f 3280 	mov.w	r2, #65536	@ 0x10000
 8003be6:	609a      	str	r2, [r3, #8]

      if ((tsrflags & CAN_TSR_TXOK2) != 0U)
 8003be8:	69bb      	ldr	r3, [r7, #24]
 8003bea:	f403 3300 	and.w	r3, r3, #131072	@ 0x20000
 8003bee:	2b00      	cmp	r3, #0
 8003bf0:	d003      	beq.n	8003bfa <HAL_CAN_IRQHandler+0x112>
#if USE_HAL_CAN_REGISTER_CALLBACKS == 1
        /* Call registered callback*/
        hcan->TxMailbox2CompleteCallback(hcan);
#else
        /* Call weak (surcharged) callback */
        HAL_CAN_TxMailbox2CompleteCallback(hcan);
 8003bf2:	6878      	ldr	r0, [r7, #4]
 8003bf4:	f000 f943 	bl	8003e7e <HAL_CAN_TxMailbox2CompleteCallback>
 8003bf8:	e016      	b.n	8003c28 <HAL_CAN_IRQHandler+0x140>
#endif /* USE_HAL_CAN_REGISTER_CALLBACKS */
      }
      else
      {
        if ((tsrflags & CAN_TSR_ALST2) != 0U)
 8003bfa:	69bb      	ldr	r3, [r7, #24]
 8003bfc:	f403 2380 	and.w	r3, r3, #262144	@ 0x40000
 8003c00:	2b00      	cmp	r3, #0
 8003c02:	d004      	beq.n	8003c0e <HAL_CAN_IRQHandler+0x126>
        {
          /* Update error code */
          errorcode |= HAL_CAN_ERROR_TX_ALST2;
 8003c04:	6a7b      	ldr	r3, [r7, #36]	@ 0x24
 8003c06:	f443 4300 	orr.w	r3, r3, #32768	@ 0x8000
 8003c0a:	627b      	str	r3, [r7, #36]	@ 0x24
 8003c0c:	e00c      	b.n	8003c28 <HAL_CAN_IRQHandler+0x140>
        }
        else if ((tsrflags & CAN_TSR_TERR2) != 0U)
 8003c0e:	69bb      	ldr	r3, [r7, #24]
 8003c10:	f403 2300 	and.w	r3, r3, #524288	@ 0x80000
 8003c14:	2b00      	cmp	r3, #0
 8003c16:	d004      	beq.n	8003c22 <HAL_CAN_IRQHandler+0x13a>
        {
          /* Update error code */
          errorcode |= HAL_CAN_ERROR_TX_TERR2;
 8003c18:	6a7b      	ldr	r3, [r7, #36]	@ 0x24
 8003c1a:	f443 3380 	orr.w	r3, r3, #65536	@ 0x10000
 8003c1e:	627b      	str	r3, [r7, #36]	@ 0x24
 8003c20:	e002      	b.n	8003c28 <HAL_CAN_IRQHandler+0x140>
#if USE_HAL_CAN_REGISTER_CALLBACKS == 1
          /* Call registered callback*/
          hcan->TxMailbox2AbortCallback(hcan);
#else
          /* Call weak (surcharged) callback */
          HAL_CAN_TxMailbox2AbortCallback(hcan);
 8003c22:	6878      	ldr	r0, [r7, #4]
 8003c24:	f000 f949 	bl	8003eba <HAL_CAN_TxMailbox2AbortCallback>
      }
    }
  }

  /* Receive FIFO 0 overrun interrupt management *****************************/
  if ((interrupts & CAN_IT_RX_FIFO0_OVERRUN) != 0U)
 8003c28:	6a3b      	ldr	r3, [r7, #32]
 8003c2a:	f003 0308 	and.w	r3, r3, #8
 8003c2e:	2b00      	cmp	r3, #0
 8003c30:	d00c      	beq.n	8003c4c <HAL_CAN_IRQHandler+0x164>
  {
    if ((rf0rflags & CAN_RF0R_FOVR0) != 0U)
 8003c32:	697b      	ldr	r3, [r7, #20]
 8003c34:	f003 0310 	and.w	r3, r3, #16
 8003c38:	2b00      	cmp	r3, #0
 8003c3a:	d007      	beq.n	8003c4c <HAL_CAN_IRQHandler+0x164>
    {
      /* Set CAN error code to Rx Fifo 0 overrun error */
      errorcode |= HAL_CAN_ERROR_RX_FOV0;
 8003c3c:	6a7b      	ldr	r3, [r7, #36]	@ 0x24
 8003c3e:	f443 7300 	orr.w	r3, r3, #512	@ 0x200
 8003c42:	627b      	str	r3, [r7, #36]	@ 0x24

      /* Clear FIFO0 Overrun Flag */
      __HAL_CAN_CLEAR_FLAG(hcan, CAN_FLAG_FOV0);
 8003c44:	687b      	ldr	r3, [r7, #4]
 8003c46:	681b      	ldr	r3, [r3, #0]
 8003c48:	2210      	movs	r2, #16
 8003c4a:	60da      	str	r2, [r3, #12]
    }
  }

  /* Receive FIFO 0 full interrupt management ********************************/
  if ((interrupts & CAN_IT_RX_FIFO0_FULL) != 0U)
 8003c4c:	6a3b      	ldr	r3, [r7, #32]
 8003c4e:	f003 0304 	and.w	r3, r3, #4
 8003c52:	2b00      	cmp	r3, #0
 8003c54:	d00b      	beq.n	8003c6e <HAL_CAN_IRQHandler+0x186>
  {
    if ((rf0rflags & CAN_RF0R_FULL0) != 0U)
 8003c56:	697b      	ldr	r3, [r7, #20]
 8003c58:	f003 0308 	and.w	r3, r3, #8
 8003c5c:	2b00      	cmp	r3, #0
 8003c5e:	d006      	beq.n	8003c6e <HAL_CAN_IRQHandler+0x186>
    {
      /* Clear FIFO 0 full Flag */
      __HAL_CAN_CLEAR_FLAG(hcan, CAN_FLAG_FF0);
 8003c60:	687b      	ldr	r3, [r7, #4]
 8003c62:	681b      	ldr	r3, [r3, #0]
 8003c64:	2208      	movs	r2, #8
 8003c66:	60da      	str	r2, [r3, #12]
#if USE_HAL_CAN_REGISTER_CALLBACKS == 1
      /* Call registered callback*/
      hcan->RxFifo0FullCallback(hcan);
#else
      /* Call weak (surcharged) callback */
      HAL_CAN_RxFifo0FullCallback(hcan);
 8003c68:	6878      	ldr	r0, [r7, #4]
 8003c6a:	f000 f930 	bl	8003ece <HAL_CAN_RxFifo0FullCallback>
#endif /* USE_HAL_CAN_REGISTER_CALLBACKS */
    }
  }

  /* Receive FIFO 0 message pending interrupt management *********************/
  if ((interrupts & CAN_IT_RX_FIFO0_MSG_PENDING) != 0U)
 8003c6e:	6a3b      	ldr	r3, [r7, #32]
 8003c70:	f003 0302 	and.w	r3, r3, #2
 8003c74:	2b00      	cmp	r3, #0
 8003c76:	d009      	beq.n	8003c8c <HAL_CAN_IRQHandler+0x1a4>
  {
    /* Check if message is still pending */
    if ((hcan->Instance->RF0R & CAN_RF0R_FMP0) != 0U)
 8003c78:	687b      	ldr	r3, [r7, #4]
 8003c7a:	681b      	ldr	r3, [r3, #0]
 8003c7c:	68db      	ldr	r3, [r3, #12]
 8003c7e:	f003 0303 	and.w	r3, r3, #3
 8003c82:	2b00      	cmp	r3, #0
 8003c84:	d002      	beq.n	8003c8c <HAL_CAN_IRQHandler+0x1a4>
#if USE_HAL_CAN_REGISTER_CALLBACKS == 1
      /* Call registered callback*/
      hcan->RxFifo0MsgPendingCallback(hcan);
#else
      /* Call weak (surcharged) callback */
      HAL_CAN_RxFifo0MsgPendingCallback(hcan);
 8003c86:	6878      	ldr	r0, [r7, #4]
 8003c88:	f7ff f958 	bl	8002f3c <HAL_CAN_RxFifo0MsgPendingCallback>
#endif /* USE_HAL_CAN_REGISTER_CALLBACKS */
    }
  }

  /* Receive FIFO 1 overrun interrupt management *****************************/
  if ((interrupts & CAN_IT_RX_FIFO1_OVERRUN) != 0U)
 8003c8c:	6a3b      	ldr	r3, [r7, #32]
 8003c8e:	f003 0340 	and.w	r3, r3, #64	@ 0x40
 8003c92:	2b00      	cmp	r3, #0
 8003c94:	d00c      	beq.n	8003cb0 <HAL_CAN_IRQHandler+0x1c8>
  {
    if ((rf1rflags & CAN_RF1R_FOVR1) != 0U)
 8003c96:	693b      	ldr	r3, [r7, #16]
 8003c98:	f003 0310 	and.w	r3, r3, #16
 8003c9c:	2b00      	cmp	r3, #0
 8003c9e:	d007      	beq.n	8003cb0 <HAL_CAN_IRQHandler+0x1c8>
    {
      /* Set CAN error code to Rx Fifo 1 overrun error */
      errorcode |= HAL_CAN_ERROR_RX_FOV1;
 8003ca0:	6a7b      	ldr	r3, [r7, #36]	@ 0x24
 8003ca2:	f443 6380 	orr.w	r3, r3, #1024	@ 0x400
 8003ca6:	627b      	str	r3, [r7, #36]	@ 0x24

      /* Clear FIFO1 Overrun Flag */
      __HAL_CAN_CLEAR_FLAG(hcan, CAN_FLAG_FOV1);
 8003ca8:	687b      	ldr	r3, [r7, #4]
 8003caa:	681b      	ldr	r3, [r3, #0]
 8003cac:	2210      	movs	r2, #16
 8003cae:	611a      	str	r2, [r3, #16]
    }
  }

  /* Receive FIFO 1 full interrupt management ********************************/
  if ((interrupts & CAN_IT_RX_FIFO1_FULL) != 0U)
 8003cb0:	6a3b      	ldr	r3, [r7, #32]
 8003cb2:	f003 0320 	and.w	r3, r3, #32
 8003cb6:	2b00      	cmp	r3, #0
 8003cb8:	d00b      	beq.n	8003cd2 <HAL_CAN_IRQHandler+0x1ea>
  {
    if ((rf1rflags & CAN_RF1R_FULL1) != 0U)
 8003cba:	693b      	ldr	r3, [r7, #16]
 8003cbc:	f003 0308 	and.w	r3, r3, #8
 8003cc0:	2b00      	cmp	r3, #0
 8003cc2:	d006      	beq.n	8003cd2 <HAL_CAN_IRQHandler+0x1ea>
    {
      /* Clear FIFO 1 full Flag */
      __HAL_CAN_CLEAR_FLAG(hcan, CAN_FLAG_FF1);
 8003cc4:	687b      	ldr	r3, [r7, #4]
 8003cc6:	681b      	ldr	r3, [r3, #0]
 8003cc8:	2208      	movs	r2, #8
 8003cca:	611a      	str	r2, [r3, #16]
#if USE_HAL_CAN_REGISTER_CALLBACKS == 1
      /* Call registered callback*/
      hcan->RxFifo1FullCallback(hcan);
#else
      /* Call weak (surcharged) callback */
      HAL_CAN_RxFifo1FullCallback(hcan);
 8003ccc:	6878      	ldr	r0, [r7, #4]
 8003cce:	f000 f912 	bl	8003ef6 <HAL_CAN_RxFifo1FullCallback>
#endif /* USE_HAL_CAN_REGISTER_CALLBACKS */
    }
  }

  /* Receive FIFO 1 message pending interrupt management *********************/
  if ((interrupts & CAN_IT_RX_FIFO1_MSG_PENDING) != 0U)
 8003cd2:	6a3b      	ldr	r3, [r7, #32]
 8003cd4:	f003 0310 	and.w	r3, r3, #16
 8003cd8:	2b00      	cmp	r3, #0
 8003cda:	d009      	beq.n	8003cf0 <HAL_CAN_IRQHandler+0x208>
  {
    /* Check if message is still pending */
    if ((hcan->Instance->RF1R & CAN_RF1R_FMP1) != 0U)
 8003cdc:	687b      	ldr	r3, [r7, #4]
 8003cde:	681b      	ldr	r3, [r3, #0]
 8003ce0:	691b      	ldr	r3, [r3, #16]
 8003ce2:	f003 0303 	and.w	r3, r3, #3
 8003ce6:	2b00      	cmp	r3, #0
 8003ce8:	d002      	beq.n	8003cf0 <HAL_CAN_IRQHandler+0x208>
#if USE_HAL_CAN_REGISTER_CALLBACKS == 1
      /* Call registered callback*/
      hcan->RxFifo1MsgPendingCallback(hcan);
#else
      /* Call weak (surcharged) callback */
      HAL_CAN_RxFifo1MsgPendingCallback(hcan);
 8003cea:	6878      	ldr	r0, [r7, #4]
 8003cec:	f000 f8f9 	bl	8003ee2 <HAL_CAN_RxFifo1MsgPendingCallback>
#endif /* USE_HAL_CAN_REGISTER_CALLBACKS */
    }
  }

  /* Sleep interrupt management *********************************************/
  if ((interrupts & CAN_IT_SLEEP_ACK) != 0U)
 8003cf0:	6a3b      	ldr	r3, [r7, #32]
 8003cf2:	f403 3300 	and.w	r3, r3, #131072	@ 0x20000
 8003cf6:	2b00      	cmp	r3, #0
 8003cf8:	d00b      	beq.n	8003d12 <HAL_CAN_IRQHandler+0x22a>
  {
    if ((msrflags & CAN_MSR_SLAKI) != 0U)
 8003cfa:	69fb      	ldr	r3, [r7, #28]
 8003cfc:	f003 0310 	and.w	r3, r3, #16
 8003d00:	2b00      	cmp	r3, #0
 8003d02:	d006      	beq.n	8003d12 <HAL_CAN_IRQHandler+0x22a>
    {
      /* Clear Sleep interrupt Flag */
      __HAL_CAN_CLEAR_FLAG(hcan, CAN_FLAG_SLAKI);
 8003d04:	687b      	ldr	r3, [r7, #4]
 8003d06:	681b      	ldr	r3, [r3, #0]
 8003d08:	2210      	movs	r2, #16
 8003d0a:	605a      	str	r2, [r3, #4]
#if USE_HAL_CAN_REGISTER_CALLBACKS == 1
      /* Call registered callback*/
      hcan->SleepCallback(hcan);
#else
      /* Call weak (surcharged) callback */
      HAL_CAN_SleepCallback(hcan);
 8003d0c:	6878      	ldr	r0, [r7, #4]
 8003d0e:	f000 f8fc 	bl	8003f0a <HAL_CAN_SleepCallback>
#endif /* USE_HAL_CAN_REGISTER_CALLBACKS */
    }
  }

  /* WakeUp interrupt management *********************************************/
  if ((interrupts & CAN_IT_WAKEUP) != 0U)
 8003d12:	6a3b      	ldr	r3, [r7, #32]
 8003d14:	f403 3380 	and.w	r3, r3, #65536	@ 0x10000
 8003d18:	2b00      	cmp	r3, #0
 8003d1a:	d00b      	beq.n	8003d34 <HAL_CAN_IRQHandler+0x24c>
  {
    if ((msrflags & CAN_MSR_WKUI) != 0U)
 8003d1c:	69fb      	ldr	r3, [r7, #28]
 8003d1e:	f003 0308 	and.w	r3, r3, #8
 8003d22:	2b00      	cmp	r3, #0
 8003d24:	d006      	beq.n	8003d34 <HAL_CAN_IRQHandler+0x24c>
    {
      /* Clear WakeUp Flag */
      __HAL_CAN_CLEAR_FLAG(hcan, CAN_FLAG_WKU);
 8003d26:	687b      	ldr	r3, [r7, #4]
 8003d28:	681b      	ldr	r3, [r3, #0]
 8003d2a:	2208      	movs	r2, #8
 8003d2c:	605a      	str	r2, [r3, #4]
#if USE_HAL_CAN_REGISTER_CALLBACKS == 1
      /* Call registered callback*/
      hcan->WakeUpFromRxMsgCallback(hcan);
#else
      /* Call weak (surcharged) callback */
      HAL_CAN_WakeUpFromRxMsgCallback(hcan);
 8003d2e:	6878      	ldr	r0, [r7, #4]
 8003d30:	f000 f8f5 	bl	8003f1e <HAL_CAN_WakeUpFromRxMsgCallback>
#endif /* USE_HAL_CAN_REGISTER_CALLBACKS */
    }
  }

  /* Error interrupts management *********************************************/
  if ((interrupts & CAN_IT_ERROR) != 0U)
 8003d34:	6a3b      	ldr	r3, [r7, #32]
 8003d36:	f403 4300 	and.w	r3, r3, #32768	@ 0x8000
 8003d3a:	2b00      	cmp	r3, #0
 8003d3c:	d07b      	beq.n	8003e36 <HAL_CAN_IRQHandler+0x34e>
  {
    if ((msrflags & CAN_MSR_ERRI) != 0U)
 8003d3e:	69fb      	ldr	r3, [r7, #28]
 8003d40:	f003 0304 	and.w	r3, r3, #4
 8003d44:	2b00      	cmp	r3, #0
 8003d46:	d072      	beq.n	8003e2e <HAL_CAN_IRQHandler+0x346>
    {
      /* Check Error Warning Flag */
      if (((interrupts & CAN_IT_ERROR_WARNING) != 0U) &&
 8003d48:	6a3b      	ldr	r3, [r7, #32]
 8003d4a:	f403 7380 	and.w	r3, r3, #256	@ 0x100
 8003d4e:	2b00      	cmp	r3, #0
 8003d50:	d008      	beq.n	8003d64 <HAL_CAN_IRQHandler+0x27c>
          ((esrflags & CAN_ESR_EWGF) != 0U))
 8003d52:	68fb      	ldr	r3, [r7, #12]
 8003d54:	f003 0301 	and.w	r3, r3, #1
      if (((interrupts & CAN_IT_ERROR_WARNING) != 0U) &&
 8003d58:	2b00      	cmp	r3, #0
 8003d5a:	d003      	beq.n	8003d64 <HAL_CAN_IRQHandler+0x27c>
      {
        /* Set CAN error code to Error Warning */
        errorcode |= HAL_CAN_ERROR_EWG;
 8003d5c:	6a7b      	ldr	r3, [r7, #36]	@ 0x24
 8003d5e:	f043 0301 	orr.w	r3, r3, #1
 8003d62:	627b      	str	r3, [r7, #36]	@ 0x24

        /* No need for clear of Error Warning Flag as read-only */
      }

      /* Check Error Passive Flag */
      if (((interrupts & CAN_IT_ERROR_PASSIVE) != 0U) &&
 8003d64:	6a3b      	ldr	r3, [r7, #32]
 8003d66:	f403 7300 	and.w	r3, r3, #512	@ 0x200
 8003d6a:	2b00      	cmp	r3, #0
 8003d6c:	d008      	beq.n	8003d80 <HAL_CAN_IRQHandler+0x298>
          ((esrflags & CAN_ESR_EPVF) != 0U))
 8003d6e:	68fb      	ldr	r3, [r7, #12]
 8003d70:	f003 0302 	and.w	r3, r3, #2
      if (((interrupts & CAN_IT_ERROR_PASSIVE) != 0U) &&
 8003d74:	2b00      	cmp	r3, #0
 8003d76:	d003      	beq.n	8003d80 <HAL_CAN_IRQHandler+0x298>
      {
        /* Set CAN error code to Error Passive */
        errorcode |= HAL_CAN_ERROR_EPV;
 8003d78:	6a7b      	ldr	r3, [r7, #36]	@ 0x24
 8003d7a:	f043 0302 	orr.w	r3, r3, #2
 8003d7e:	627b      	str	r3, [r7, #36]	@ 0x24

        /* No need for clear of Error Passive Flag as read-only */
      }

      /* Check Bus-off Flag */
      if (((interrupts & CAN_IT_BUSOFF) != 0U) &&
 8003d80:	6a3b      	ldr	r3, [r7, #32]
 8003d82:	f403 6380 	and.w	r3, r3, #1024	@ 0x400
 8003d86:	2b00      	cmp	r3, #0
 8003d88:	d008      	beq.n	8003d9c <HAL_CAN_IRQHandler+0x2b4>
          ((esrflags & CAN_ESR_BOFF) != 0U))
 8003d8a:	68fb      	ldr	r3, [r7, #12]
 8003d8c:	f003 0304 	and.w	r3, r3, #4
      if (((interrupts & CAN_IT_BUSOFF) != 0U) &&
 8003d90:	2b00      	cmp	r3, #0
 8003d92:	d003      	beq.n	8003d9c <HAL_CAN_IRQHandler+0x2b4>
      {
        /* Set CAN error code to Bus-Off */
        errorcode |= HAL_CAN_ERROR_BOF;
 8003d94:	6a7b      	ldr	r3, [r7, #36]	@ 0x24
 8003d96:	f043 0304 	orr.w	r3, r3, #4
 8003d9a:	627b      	str	r3, [r7, #36]	@ 0x24

        /* No need for clear of Error Bus-Off as read-only */
      }

      /* Check Last Error Code Flag */
      if (((interrupts & CAN_IT_LAST_ERROR_CODE) != 0U) &&
 8003d9c:	6a3b      	ldr	r3, [r7, #32]
 8003d9e:	f403 6300 	and.w	r3, r3, #2048	@ 0x800
 8003da2:	2b00      	cmp	r3, #0
 8003da4:	d043      	beq.n	8003e2e <HAL_CAN_IRQHandler+0x346>
          ((esrflags & CAN_ESR_LEC) != 0U))
 8003da6:	68fb      	ldr	r3, [r7, #12]
 8003da8:	f003 0370 	and.w	r3, r3, #112	@ 0x70
      if (((interrupts & CAN_IT_LAST_ERROR_CODE) != 0U) &&
 8003dac:	2b00      	cmp	r3, #0
 8003dae:	d03e      	beq.n	8003e2e <HAL_CAN_IRQHandler+0x346>
      {
        switch (esrflags & CAN_ESR_LEC)
 8003db0:	68fb      	ldr	r3, [r7, #12]
 8003db2:	f003 0370 	and.w	r3, r3, #112	@ 0x70
 8003db6:	2b60      	cmp	r3, #96	@ 0x60
 8003db8:	d02b      	beq.n	8003e12 <HAL_CAN_IRQHandler+0x32a>
 8003dba:	2b60      	cmp	r3, #96	@ 0x60
 8003dbc:	d82e      	bhi.n	8003e1c <HAL_CAN_IRQHandler+0x334>
 8003dbe:	2b50      	cmp	r3, #80	@ 0x50
 8003dc0:	d022      	beq.n	8003e08 <HAL_CAN_IRQHandler+0x320>
 8003dc2:	2b50      	cmp	r3, #80	@ 0x50
 8003dc4:	d82a      	bhi.n	8003e1c <HAL_CAN_IRQHandler+0x334>
 8003dc6:	2b40      	cmp	r3, #64	@ 0x40
 8003dc8:	d019      	beq.n	8003dfe <HAL_CAN_IRQHandler+0x316>
 8003dca:	2b40      	cmp	r3, #64	@ 0x40
 8003dcc:	d826      	bhi.n	8003e1c <HAL_CAN_IRQHandler+0x334>
 8003dce:	2b30      	cmp	r3, #48	@ 0x30
 8003dd0:	d010      	beq.n	8003df4 <HAL_CAN_IRQHandler+0x30c>
 8003dd2:	2b30      	cmp	r3, #48	@ 0x30
 8003dd4:	d822      	bhi.n	8003e1c <HAL_CAN_IRQHandler+0x334>
 8003dd6:	2b10      	cmp	r3, #16
 8003dd8:	d002      	beq.n	8003de0 <HAL_CAN_IRQHandler+0x2f8>
 8003dda:	2b20      	cmp	r3, #32
 8003ddc:	d005      	beq.n	8003dea <HAL_CAN_IRQHandler+0x302>
          case (CAN_ESR_LEC_2 | CAN_ESR_LEC_1):
            /* Set CAN error code to CRC error */
            errorcode |= HAL_CAN_ERROR_CRC;
            break;
          default:
            break;
 8003dde:	e01d      	b.n	8003e1c <HAL_CAN_IRQHandler+0x334>
            errorcode |= HAL_CAN_ERROR_STF;
 8003de0:	6a7b      	ldr	r3, [r7, #36]	@ 0x24
 8003de2:	f043 0308 	orr.w	r3, r3, #8
 8003de6:	627b      	str	r3, [r7, #36]	@ 0x24
            break;
 8003de8:	e019      	b.n	8003e1e <HAL_CAN_IRQHandler+0x336>
            errorcode |= HAL_CAN_ERROR_FOR;
 8003dea:	6a7b      	ldr	r3, [r7, #36]	@ 0x24
 8003dec:	f043 0310 	orr.w	r3, r3, #16
 8003df0:	627b      	str	r3, [r7, #36]	@ 0x24
            break;
 8003df2:	e014      	b.n	8003e1e <HAL_CAN_IRQHandler+0x336>
            errorcode |= HAL_CAN_ERROR_ACK;
 8003df4:	6a7b      	ldr	r3, [r7, #36]	@ 0x24
 8003df6:	f043 0320 	orr.w	r3, r3, #32
 8003dfa:	627b      	str	r3, [r7, #36]	@ 0x24
            break;
 8003dfc:	e00f      	b.n	8003e1e <HAL_CAN_IRQHandler+0x336>
            errorcode |= HAL_CAN_ERROR_BR;
 8003dfe:	6a7b      	ldr	r3, [r7, #36]	@ 0x24
 8003e00:	f043 0340 	orr.w	r3, r3, #64	@ 0x40
 8003e04:	627b      	str	r3, [r7, #36]	@ 0x24
            break;
 8003e06:	e00a      	b.n	8003e1e <HAL_CAN_IRQHandler+0x336>
            errorcode |= HAL_CAN_ERROR_BD;
 8003e08:	6a7b      	ldr	r3, [r7, #36]	@ 0x24
 8003e0a:	f043 0380 	orr.w	r3, r3, #128	@ 0x80
 8003e0e:	627b      	str	r3, [r7, #36]	@ 0x24
            break;
 8003e10:	e005      	b.n	8003e1e <HAL_CAN_IRQHandler+0x336>
            errorcode |= HAL_CAN_ERROR_CRC;
 8003e12:	6a7b      	ldr	r3, [r7, #36]	@ 0x24
 8003e14:	f443 7380 	orr.w	r3, r3, #256	@ 0x100
 8003e18:	627b      	str	r3, [r7, #36]	@ 0x24
            break;
 8003e1a:	e000      	b.n	8003e1e <HAL_CAN_IRQHandler+0x336>
            break;
 8003e1c:	bf00      	nop
        }

        /* Clear Last error code Flag */
        CLEAR_BIT(hcan->Instance->ESR, CAN_ESR_LEC);
 8003e1e:	687b      	ldr	r3, [r7, #4]
 8003e20:	681b      	ldr	r3, [r3, #0]
 8003e22:	699a      	ldr	r2, [r3, #24]
 8003e24:	687b      	ldr	r3, [r7, #4]
 8003e26:	681b      	ldr	r3, [r3, #0]
 8003e28:	f022 0270 	bic.w	r2, r2, #112	@ 0x70
 8003e2c:	619a      	str	r2, [r3, #24]
      }
    }

    /* Clear ERRI Flag */
    __HAL_CAN_CLEAR_FLAG(hcan, CAN_FLAG_ERRI);
 8003e2e:	687b      	ldr	r3, [r7, #4]
 8003e30:	681b      	ldr	r3, [r3, #0]
 8003e32:	2204      	movs	r2, #4
 8003e34:	605a      	str	r2, [r3, #4]
  }

  /* Call the Error call Back in case of Errors */
  if (errorcode != HAL_CAN_ERROR_NONE)
 8003e36:	6a7b      	ldr	r3, [r7, #36]	@ 0x24
 8003e38:	2b00      	cmp	r3, #0
 8003e3a:	d008      	beq.n	8003e4e <HAL_CAN_IRQHandler+0x366>
  {
    /* Update error code in handle */
    hcan->ErrorCode |= errorcode;
 8003e3c:	687b      	ldr	r3, [r7, #4]
 8003e3e:	6a5a      	ldr	r2, [r3, #36]	@ 0x24
 8003e40:	6a7b      	ldr	r3, [r7, #36]	@ 0x24
 8003e42:	431a      	orrs	r2, r3
 8003e44:	687b      	ldr	r3, [r7, #4]
 8003e46:	625a      	str	r2, [r3, #36]	@ 0x24
#if USE_HAL_CAN_REGISTER_CALLBACKS == 1
    /* Call registered callback*/
    hcan->ErrorCallback(hcan);
#else
    /* Call weak (surcharged) callback */
    HAL_CAN_ErrorCallback(hcan);
 8003e48:	6878      	ldr	r0, [r7, #4]
 8003e4a:	f000 f872 	bl	8003f32 <HAL_CAN_ErrorCallback>
#endif /* USE_HAL_CAN_REGISTER_CALLBACKS */
  }
}
 8003e4e:	bf00      	nop
 8003e50:	3728      	adds	r7, #40	@ 0x28
 8003e52:	46bd      	mov	sp, r7
 8003e54:	bd80      	pop	{r7, pc}

08003e56 <HAL_CAN_TxMailbox0CompleteCallback>:
  * @param  hcan pointer to a CAN_HandleTypeDef structure that contains
  *         the configuration information for the specified CAN.
  * @retval None
  */
__weak void HAL_CAN_TxMailbox0CompleteCallback(CAN_HandleTypeDef *hcan)
{
 8003e56:	b480      	push	{r7}
 8003e58:	b083      	sub	sp, #12
 8003e5a:	af00      	add	r7, sp, #0
 8003e5c:	6078      	str	r0, [r7, #4]

  /* NOTE : This function Should not be modified, when the callback is needed,
            the HAL_CAN_TxMailbox0CompleteCallback could be implemented in the
            user file
   */
}
 8003e5e:	bf00      	nop
 8003e60:	370c      	adds	r7, #12
 8003e62:	46bd      	mov	sp, r7
 8003e64:	f85d 7b04 	ldr.w	r7, [sp], #4
 8003e68:	4770      	bx	lr

08003e6a <HAL_CAN_TxMailbox1CompleteCallback>:
  * @param  hcan pointer to a CAN_HandleTypeDef structure that contains
  *         the configuration information for the specified CAN.
  * @retval None
  */
__weak void HAL_CAN_TxMailbox1CompleteCallback(CAN_HandleTypeDef *hcan)
{
 8003e6a:	b480      	push	{r7}
 8003e6c:	b083      	sub	sp, #12
 8003e6e:	af00      	add	r7, sp, #0
 8003e70:	6078      	str	r0, [r7, #4]

  /* NOTE : This function Should not be modified, when the callback is needed,
            the HAL_CAN_TxMailbox1CompleteCallback could be implemented in the
            user file
   */
}
 8003e72:	bf00      	nop
 8003e74:	370c      	adds	r7, #12
 8003e76:	46bd      	mov	sp, r7
 8003e78:	f85d 7b04 	ldr.w	r7, [sp], #4
 8003e7c:	4770      	bx	lr

08003e7e <HAL_CAN_TxMailbox2CompleteCallback>:
  * @param  hcan pointer to a CAN_HandleTypeDef structure that contains
  *         the configuration information for the specified CAN.
  * @retval None
  */
__weak void HAL_CAN_TxMailbox2CompleteCallback(CAN_HandleTypeDef *hcan)
{
 8003e7e:	b480      	push	{r7}
 8003e80:	b083      	sub	sp, #12
 8003e82:	af00      	add	r7, sp, #0
 8003e84:	6078      	str	r0, [r7, #4]

  /* NOTE : This function Should not be modified, when the callback is needed,
            the HAL_CAN_TxMailbox2CompleteCallback could be implemented in the
            user file
   */
}
 8003e86:	bf00      	nop
 8003e88:	370c      	adds	r7, #12
 8003e8a:	46bd      	mov	sp, r7
 8003e8c:	f85d 7b04 	ldr.w	r7, [sp], #4
 8003e90:	4770      	bx	lr

08003e92 <HAL_CAN_TxMailbox0AbortCallback>:
  * @param  hcan pointer to an CAN_HandleTypeDef structure that contains
  *         the configuration information for the specified CAN.
  * @retval None
  */
__weak void HAL_CAN_TxMailbox0AbortCallback(CAN_HandleTypeDef *hcan)
{
 8003e92:	b480      	push	{r7}
 8003e94:	b083      	sub	sp, #12
 8003e96:	af00      	add	r7, sp, #0
 8003e98:	6078      	str	r0, [r7, #4]

  /* NOTE : This function Should not be modified, when the callback is needed,
            the HAL_CAN_TxMailbox0AbortCallback could be implemented in the
            user file
   */
}
 8003e9a:	bf00      	nop
 8003e9c:	370c      	adds	r7, #12
 8003e9e:	46bd      	mov	sp, r7
 8003ea0:	f85d 7b04 	ldr.w	r7, [sp], #4
 8003ea4:	4770      	bx	lr

08003ea6 <HAL_CAN_TxMailbox1AbortCallback>:
  * @param  hcan pointer to an CAN_HandleTypeDef structure that contains
  *         the configuration information for the specified CAN.
  * @retval None
  */
__weak void HAL_CAN_TxMailbox1AbortCallback(CAN_HandleTypeDef *hcan)
{
 8003ea6:	b480      	push	{r7}
 8003ea8:	b083      	sub	sp, #12
 8003eaa:	af00      	add	r7, sp, #0
 8003eac:	6078      	str	r0, [r7, #4]

  /* NOTE : This function Should not be modified, when the callback is needed,
            the HAL_CAN_TxMailbox1AbortCallback could be implemented in the
            user file
   */
}
 8003eae:	bf00      	nop
 8003eb0:	370c      	adds	r7, #12
 8003eb2:	46bd      	mov	sp, r7
 8003eb4:	f85d 7b04 	ldr.w	r7, [sp], #4
 8003eb8:	4770      	bx	lr

08003eba <HAL_CAN_TxMailbox2AbortCallback>:
  * @param  hcan pointer to an CAN_HandleTypeDef structure that contains
  *         the configuration information for the specified CAN.
  * @retval None
  */
__weak void HAL_CAN_TxMailbox2AbortCallback(CAN_HandleTypeDef *hcan)
{
 8003eba:	b480      	push	{r7}
 8003ebc:	b083      	sub	sp, #12
 8003ebe:	af00      	add	r7, sp, #0
 8003ec0:	6078      	str	r0, [r7, #4]

  /* NOTE : This function Should not be modified, when the callback is needed,
            the HAL_CAN_TxMailbox2AbortCallback could be implemented in the
            user file
   */
}
 8003ec2:	bf00      	nop
 8003ec4:	370c      	adds	r7, #12
 8003ec6:	46bd      	mov	sp, r7
 8003ec8:	f85d 7b04 	ldr.w	r7, [sp], #4
 8003ecc:	4770      	bx	lr

08003ece <HAL_CAN_RxFifo0FullCallback>:
  * @param  hcan pointer to a CAN_HandleTypeDef structure that contains
  *         the configuration information for the specified CAN.
  * @retval None
  */
__weak void HAL_CAN_RxFifo0FullCallback(CAN_HandleTypeDef *hcan)
{
 8003ece:	b480      	push	{r7}
 8003ed0:	b083      	sub	sp, #12
 8003ed2:	af00      	add	r7, sp, #0
 8003ed4:	6078      	str	r0, [r7, #4]

  /* NOTE : This function Should not be modified, when the callback is needed,
            the HAL_CAN_RxFifo0FullCallback could be implemented in the user
            file
   */
}
 8003ed6:	bf00      	nop
 8003ed8:	370c      	adds	r7, #12
 8003eda:	46bd      	mov	sp, r7
 8003edc:	f85d 7b04 	ldr.w	r7, [sp], #4
 8003ee0:	4770      	bx	lr

08003ee2 <HAL_CAN_RxFifo1MsgPendingCallback>:
  * @param  hcan pointer to a CAN_HandleTypeDef structure that contains
  *         the configuration information for the specified CAN.
  * @retval None
  */
__weak void HAL_CAN_RxFifo1MsgPendingCallback(CAN_HandleTypeDef *hcan)
{
 8003ee2:	b480      	push	{r7}
 8003ee4:	b083      	sub	sp, #12
 8003ee6:	af00      	add	r7, sp, #0
 8003ee8:	6078      	str	r0, [r7, #4]

  /* NOTE : This function Should not be modified, when the callback is needed,
            the HAL_CAN_RxFifo1MsgPendingCallback could be implemented in the
            user file
   */
}
 8003eea:	bf00      	nop
 8003eec:	370c      	adds	r7, #12
 8003eee:	46bd      	mov	sp, r7
 8003ef0:	f85d 7b04 	ldr.w	r7, [sp], #4
 8003ef4:	4770      	bx	lr

08003ef6 <HAL_CAN_RxFifo1FullCallback>:
  * @param  hcan pointer to a CAN_HandleTypeDef structure that contains
  *         the configuration information for the specified CAN.
  * @retval None
  */
__weak void HAL_CAN_RxFifo1FullCallback(CAN_HandleTypeDef *hcan)
{
 8003ef6:	b480      	push	{r7}
 8003ef8:	b083      	sub	sp, #12
 8003efa:	af00      	add	r7, sp, #0
 8003efc:	6078      	str	r0, [r7, #4]

  /* NOTE : This function Should not be modified, when the callback is needed,
            the HAL_CAN_RxFifo1FullCallback could be implemented in the user
            file
   */
}
 8003efe:	bf00      	nop
 8003f00:	370c      	adds	r7, #12
 8003f02:	46bd      	mov	sp, r7
 8003f04:	f85d 7b04 	ldr.w	r7, [sp], #4
 8003f08:	4770      	bx	lr

08003f0a <HAL_CAN_SleepCallback>:
  * @param  hcan pointer to a CAN_HandleTypeDef structure that contains
  *         the configuration information for the specified CAN.
  * @retval None
  */
__weak void HAL_CAN_SleepCallback(CAN_HandleTypeDef *hcan)
{
 8003f0a:	b480      	push	{r7}
 8003f0c:	b083      	sub	sp, #12
 8003f0e:	af00      	add	r7, sp, #0
 8003f10:	6078      	str	r0, [r7, #4]
  UNUSED(hcan);

  /* NOTE : This function Should not be modified, when the callback is needed,
            the HAL_CAN_SleepCallback could be implemented in the user file
   */
}
 8003f12:	bf00      	nop
 8003f14:	370c      	adds	r7, #12
 8003f16:	46bd      	mov	sp, r7
 8003f18:	f85d 7b04 	ldr.w	r7, [sp], #4
 8003f1c:	4770      	bx	lr

08003f1e <HAL_CAN_WakeUpFromRxMsgCallback>:
  * @param  hcan pointer to a CAN_HandleTypeDef structure that contains
  *         the configuration information for the specified CAN.
  * @retval None
  */
__weak void HAL_CAN_WakeUpFromRxMsgCallback(CAN_HandleTypeDef *hcan)
{
 8003f1e:	b480      	push	{r7}
 8003f20:	b083      	sub	sp, #12
 8003f22:	af00      	add	r7, sp, #0
 8003f24:	6078      	str	r0, [r7, #4]

  /* NOTE : This function Should not be modified, when the callback is needed,
            the HAL_CAN_WakeUpFromRxMsgCallback could be implemented in the
            user file
   */
}
 8003f26:	bf00      	nop
 8003f28:	370c      	adds	r7, #12
 8003f2a:	46bd      	mov	sp, r7
 8003f2c:	f85d 7b04 	ldr.w	r7, [sp], #4
 8003f30:	4770      	bx	lr

08003f32 <HAL_CAN_ErrorCallback>:
  * @param  hcan pointer to a CAN_HandleTypeDef structure that contains
  *         the configuration information for the specified CAN.
  * @retval None
  */
__weak void HAL_CAN_ErrorCallback(CAN_HandleTypeDef *hcan)
{
 8003f32:	b480      	push	{r7}
 8003f34:	b083      	sub	sp, #12
 8003f36:	af00      	add	r7, sp, #0
 8003f38:	6078      	str	r0, [r7, #4]
  UNUSED(hcan);

  /* NOTE : This function Should not be modified, when the callback is needed,
            the HAL_CAN_ErrorCallback could be implemented in the user file
   */
}
 8003f3a:	bf00      	nop
 8003f3c:	370c      	adds	r7, #12
 8003f3e:	46bd      	mov	sp, r7
 8003f40:	f85d 7b04 	ldr.w	r7, [sp], #4
 8003f44:	4770      	bx	lr
	...

08003f48 <__NVIC_SetPriorityGrouping>:
           In case of a conflict between priority grouping and available
           priority bits (__NVIC_PRIO_BITS), the smallest possible priority group is set.
  \param [in]      PriorityGroup  Priority grouping field.
 */
__STATIC_INLINE void __NVIC_SetPriorityGrouping(uint32_t PriorityGroup)
{
 8003f48:	b480      	push	{r7}
 8003f4a:	b085      	sub	sp, #20
 8003f4c:	af00      	add	r7, sp, #0
 8003f4e:	6078      	str	r0, [r7, #4]
  uint32_t reg_value;
  uint32_t PriorityGroupTmp = (PriorityGroup & (uint32_t)0x07UL);             /* only values 0..7 are used          */
 8003f50:	687b      	ldr	r3, [r7, #4]
 8003f52:	f003 0307 	and.w	r3, r3, #7
 8003f56:	60fb      	str	r3, [r7, #12]

  reg_value  =  SCB->AIRCR;                                                   /* read old register configuration    */
 8003f58:	4b0c      	ldr	r3, [pc, #48]	@ (8003f8c <__NVIC_SetPriorityGrouping+0x44>)
 8003f5a:	68db      	ldr	r3, [r3, #12]
 8003f5c:	60bb      	str	r3, [r7, #8]
  reg_value &= ~((uint32_t)(SCB_AIRCR_VECTKEY_Msk | SCB_AIRCR_PRIGROUP_Msk)); /* clear bits to change               */
 8003f5e:	68ba      	ldr	r2, [r7, #8]
 8003f60:	f64f 03ff 	movw	r3, #63743	@ 0xf8ff
 8003f64:	4013      	ands	r3, r2
 8003f66:	60bb      	str	r3, [r7, #8]
  reg_value  =  (reg_value                                   |
                ((uint32_t)0x5FAUL << SCB_AIRCR_VECTKEY_Pos) |
                (PriorityGroupTmp << SCB_AIRCR_PRIGROUP_Pos)  );              /* Insert write key and priority group */
 8003f68:	68fb      	ldr	r3, [r7, #12]
 8003f6a:	021a      	lsls	r2, r3, #8
                ((uint32_t)0x5FAUL << SCB_AIRCR_VECTKEY_Pos) |
 8003f6c:	68bb      	ldr	r3, [r7, #8]
 8003f6e:	4313      	orrs	r3, r2
  reg_value  =  (reg_value                                   |
 8003f70:	f043 63bf 	orr.w	r3, r3, #100139008	@ 0x5f80000
 8003f74:	f443 3300 	orr.w	r3, r3, #131072	@ 0x20000
 8003f78:	60bb      	str	r3, [r7, #8]
  SCB->AIRCR =  reg_value;
 8003f7a:	4a04      	ldr	r2, [pc, #16]	@ (8003f8c <__NVIC_SetPriorityGrouping+0x44>)
 8003f7c:	68bb      	ldr	r3, [r7, #8]
 8003f7e:	60d3      	str	r3, [r2, #12]
}
 8003f80:	bf00      	nop
 8003f82:	3714      	adds	r7, #20
 8003f84:	46bd      	mov	sp, r7
 8003f86:	f85d 7b04 	ldr.w	r7, [sp], #4
 8003f8a:	4770      	bx	lr
 8003f8c:	e000ed00 	.word	0xe000ed00

08003f90 <__NVIC_GetPriorityGrouping>:
  \brief   Get Priority Grouping
  \details Reads the priority grouping field from the NVIC Interrupt Controller.
  \return                Priority grouping field (SCB->AIRCR [10:8] PRIGROUP field).
 */
__STATIC_INLINE uint32_t __NVIC_GetPriorityGrouping(void)
{
 8003f90:	b480      	push	{r7}
 8003f92:	af00      	add	r7, sp, #0
  return ((uint32_t)((SCB->AIRCR & SCB_AIRCR_PRIGROUP_Msk) >> SCB_AIRCR_PRIGROUP_Pos));
 8003f94:	4b04      	ldr	r3, [pc, #16]	@ (8003fa8 <__NVIC_GetPriorityGrouping+0x18>)
 8003f96:	68db      	ldr	r3, [r3, #12]
 8003f98:	0a1b      	lsrs	r3, r3, #8
 8003f9a:	f003 0307 	and.w	r3, r3, #7
}
 8003f9e:	4618      	mov	r0, r3
 8003fa0:	46bd      	mov	sp, r7
 8003fa2:	f85d 7b04 	ldr.w	r7, [sp], #4
 8003fa6:	4770      	bx	lr
 8003fa8:	e000ed00 	.word	0xe000ed00

08003fac <__NVIC_EnableIRQ>:
  \details Enables a device specific interrupt in the NVIC interrupt controller.
  \param [in]      IRQn  Device specific interrupt number.
  \note    IRQn must not be negative.
 */
__STATIC_INLINE void __NVIC_EnableIRQ(IRQn_Type IRQn)
{
 8003fac:	b480      	push	{r7}
 8003fae:	b083      	sub	sp, #12
 8003fb0:	af00      	add	r7, sp, #0
 8003fb2:	4603      	mov	r3, r0
 8003fb4:	71fb      	strb	r3, [r7, #7]
  if ((int32_t)(IRQn) >= 0)
 8003fb6:	f997 3007 	ldrsb.w	r3, [r7, #7]
 8003fba:	2b00      	cmp	r3, #0
 8003fbc:	db0b      	blt.n	8003fd6 <__NVIC_EnableIRQ+0x2a>
  {
    __COMPILER_BARRIER();
    NVIC->ISER[(((uint32_t)IRQn) >> 5UL)] = (uint32_t)(1UL << (((uint32_t)IRQn) & 0x1FUL));
 8003fbe:	79fb      	ldrb	r3, [r7, #7]
 8003fc0:	f003 021f 	and.w	r2, r3, #31
 8003fc4:	4907      	ldr	r1, [pc, #28]	@ (8003fe4 <__NVIC_EnableIRQ+0x38>)
 8003fc6:	f997 3007 	ldrsb.w	r3, [r7, #7]
 8003fca:	095b      	lsrs	r3, r3, #5
 8003fcc:	2001      	movs	r0, #1
 8003fce:	fa00 f202 	lsl.w	r2, r0, r2
 8003fd2:	f841 2023 	str.w	r2, [r1, r3, lsl #2]
    __COMPILER_BARRIER();
  }
}
 8003fd6:	bf00      	nop
 8003fd8:	370c      	adds	r7, #12
 8003fda:	46bd      	mov	sp, r7
 8003fdc:	f85d 7b04 	ldr.w	r7, [sp], #4
 8003fe0:	4770      	bx	lr
 8003fe2:	bf00      	nop
 8003fe4:	e000e100 	.word	0xe000e100

08003fe8 <__NVIC_SetPriority>:
  \param [in]      IRQn  Interrupt number.
  \param [in]  priority  Priority to set.
  \note    The priority cannot be set for every processor exception.
 */
__STATIC_INLINE void __NVIC_SetPriority(IRQn_Type IRQn, uint32_t priority)
{
 8003fe8:	b480      	push	{r7}
 8003fea:	b083      	sub	sp, #12
 8003fec:	af00      	add	r7, sp, #0
 8003fee:	4603      	mov	r3, r0
 8003ff0:	6039      	str	r1, [r7, #0]
 8003ff2:	71fb      	strb	r3, [r7, #7]
  if ((int32_t)(IRQn) >= 0)
 8003ff4:	f997 3007 	ldrsb.w	r3, [r7, #7]
 8003ff8:	2b00      	cmp	r3, #0
 8003ffa:	db0a      	blt.n	8004012 <__NVIC_SetPriority+0x2a>
  {
    NVIC->IP[((uint32_t)IRQn)]               = (uint8_t)((priority << (8U - __NVIC_PRIO_BITS)) & (uint32_t)0xFFUL);
 8003ffc:	683b      	ldr	r3, [r7, #0]
 8003ffe:	b2da      	uxtb	r2, r3
 8004000:	490c      	ldr	r1, [pc, #48]	@ (8004034 <__NVIC_SetPriority+0x4c>)
 8004002:	f997 3007 	ldrsb.w	r3, [r7, #7]
 8004006:	0112      	lsls	r2, r2, #4
 8004008:	b2d2      	uxtb	r2, r2
 800400a:	440b      	add	r3, r1
 800400c:	f883 2300 	strb.w	r2, [r3, #768]	@ 0x300
  }
  else
  {
    SCB->SHP[(((uint32_t)IRQn) & 0xFUL)-4UL] = (uint8_t)((priority << (8U - __NVIC_PRIO_BITS)) & (uint32_t)0xFFUL);
  }
}
 8004010:	e00a      	b.n	8004028 <__NVIC_SetPriority+0x40>
    SCB->SHP[(((uint32_t)IRQn) & 0xFUL)-4UL] = (uint8_t)((priority << (8U - __NVIC_PRIO_BITS)) & (uint32_t)0xFFUL);
 8004012:	683b      	ldr	r3, [r7, #0]
 8004014:	b2da      	uxtb	r2, r3
 8004016:	4908      	ldr	r1, [pc, #32]	@ (8004038 <__NVIC_SetPriority+0x50>)
 8004018:	79fb      	ldrb	r3, [r7, #7]
 800401a:	f003 030f 	and.w	r3, r3, #15
 800401e:	3b04      	subs	r3, #4
 8004020:	0112      	lsls	r2, r2, #4
 8004022:	b2d2      	uxtb	r2, r2
 8004024:	440b      	add	r3, r1
 8004026:	761a      	strb	r2, [r3, #24]
}
 8004028:	bf00      	nop
 800402a:	370c      	adds	r7, #12
 800402c:	46bd      	mov	sp, r7
 800402e:	f85d 7b04 	ldr.w	r7, [sp], #4
 8004032:	4770      	bx	lr
 8004034:	e000e100 	.word	0xe000e100
 8004038:	e000ed00 	.word	0xe000ed00

0800403c <NVIC_EncodePriority>:
  \param [in]   PreemptPriority  Preemptive priority value (starting from 0).
  \param [in]       SubPriority  Subpriority value (starting from 0).
  \return                        Encoded priority. Value can be used in the function \ref NVIC_SetPriority().
 */
__STATIC_INLINE uint32_t NVIC_EncodePriority (uint32_t PriorityGroup, uint32_t PreemptPriority, uint32_t SubPriority)
{
 800403c:	b480      	push	{r7}
 800403e:	b089      	sub	sp, #36	@ 0x24
 8004040:	af00      	add	r7, sp, #0
 8004042:	60f8      	str	r0, [r7, #12]
 8004044:	60b9      	str	r1, [r7, #8]
 8004046:	607a      	str	r2, [r7, #4]
  uint32_t PriorityGroupTmp = (PriorityGroup & (uint32_t)0x07UL);   /* only values 0..7 are used          */
 8004048:	68fb      	ldr	r3, [r7, #12]
 800404a:	f003 0307 	and.w	r3, r3, #7
 800404e:	61fb      	str	r3, [r7, #28]
  uint32_t PreemptPriorityBits;
  uint32_t SubPriorityBits;

  PreemptPriorityBits = ((7UL - PriorityGroupTmp) > (uint32_t)(__NVIC_PRIO_BITS)) ? (uint32_t)(__NVIC_PRIO_BITS) : (uint32_t)(7UL - PriorityGroupTmp);
 8004050:	69fb      	ldr	r3, [r7, #28]
 8004052:	f1c3 0307 	rsb	r3, r3, #7
 8004056:	2b04      	cmp	r3, #4
 8004058:	bf28      	it	cs
 800405a:	2304      	movcs	r3, #4
 800405c:	61bb      	str	r3, [r7, #24]
  SubPriorityBits     = ((PriorityGroupTmp + (uint32_t)(__NVIC_PRIO_BITS)) < (uint32_t)7UL) ? (uint32_t)0UL : (uint32_t)((PriorityGroupTmp - 7UL) + (uint32_t)(__NVIC_PRIO_BITS));
 800405e:	69fb      	ldr	r3, [r7, #28]
 8004060:	3304      	adds	r3, #4
 8004062:	2b06      	cmp	r3, #6
 8004064:	d902      	bls.n	800406c <NVIC_EncodePriority+0x30>
 8004066:	69fb      	ldr	r3, [r7, #28]
 8004068:	3b03      	subs	r3, #3
 800406a:	e000      	b.n	800406e <NVIC_EncodePriority+0x32>
 800406c:	2300      	movs	r3, #0
 800406e:	617b      	str	r3, [r7, #20]

  return (
           ((PreemptPriority & (uint32_t)((1UL << (PreemptPriorityBits)) - 1UL)) << SubPriorityBits) |
 8004070:	f04f 32ff 	mov.w	r2, #4294967295	@ 0xffffffff
 8004074:	69bb      	ldr	r3, [r7, #24]
 8004076:	fa02 f303 	lsl.w	r3, r2, r3
 800407a:	43da      	mvns	r2, r3
 800407c:	68bb      	ldr	r3, [r7, #8]
 800407e:	401a      	ands	r2, r3
 8004080:	697b      	ldr	r3, [r7, #20]
 8004082:	409a      	lsls	r2, r3
           ((SubPriority     & (uint32_t)((1UL << (SubPriorityBits    )) - 1UL)))
 8004084:	f04f 31ff 	mov.w	r1, #4294967295	@ 0xffffffff
 8004088:	697b      	ldr	r3, [r7, #20]
 800408a:	fa01 f303 	lsl.w	r3, r1, r3
 800408e:	43d9      	mvns	r1, r3
 8004090:	687b      	ldr	r3, [r7, #4]
 8004092:	400b      	ands	r3, r1
           ((PreemptPriority & (uint32_t)((1UL << (PreemptPriorityBits)) - 1UL)) << SubPriorityBits) |
 8004094:	4313      	orrs	r3, r2
         );
}
 8004096:	4618      	mov	r0, r3
 8004098:	3724      	adds	r7, #36	@ 0x24
 800409a:	46bd      	mov	sp, r7
 800409c:	f85d 7b04 	ldr.w	r7, [sp], #4
 80040a0:	4770      	bx	lr
	...

080040a4 <SysTick_Config>:
  \note    When the variable <b>__Vendor_SysTickConfig</b> is set to 1, then the
           function <b>SysTick_Config</b> is not included. In this case, the file <b><i>device</i>.h</b>
           must contain a vendor-specific implementation of this function.
 */
__STATIC_INLINE uint32_t SysTick_Config(uint32_t ticks)
{
 80040a4:	b580      	push	{r7, lr}
 80040a6:	b082      	sub	sp, #8
 80040a8:	af00      	add	r7, sp, #0
 80040aa:	6078      	str	r0, [r7, #4]
  if ((ticks - 1UL) > SysTick_LOAD_RELOAD_Msk)
 80040ac:	687b      	ldr	r3, [r7, #4]
 80040ae:	3b01      	subs	r3, #1
 80040b0:	f1b3 7f80 	cmp.w	r3, #16777216	@ 0x1000000
 80040b4:	d301      	bcc.n	80040ba <SysTick_Config+0x16>
  {
    return (1UL);                                                   /* Reload value impossible */
 80040b6:	2301      	movs	r3, #1
 80040b8:	e00f      	b.n	80040da <SysTick_Config+0x36>
  }

  SysTick->LOAD  = (uint32_t)(ticks - 1UL);                         /* set reload register */
 80040ba:	4a0a      	ldr	r2, [pc, #40]	@ (80040e4 <SysTick_Config+0x40>)
 80040bc:	687b      	ldr	r3, [r7, #4]
 80040be:	3b01      	subs	r3, #1
 80040c0:	6053      	str	r3, [r2, #4]
  NVIC_SetPriority (SysTick_IRQn, (1UL << __NVIC_PRIO_BITS) - 1UL); /* set Priority for Systick Interrupt */
 80040c2:	210f      	movs	r1, #15
 80040c4:	f04f 30ff 	mov.w	r0, #4294967295	@ 0xffffffff
 80040c8:	f7ff ff8e 	bl	8003fe8 <__NVIC_SetPriority>
  SysTick->VAL   = 0UL;                                             /* Load the SysTick Counter Value */
 80040cc:	4b05      	ldr	r3, [pc, #20]	@ (80040e4 <SysTick_Config+0x40>)
 80040ce:	2200      	movs	r2, #0
 80040d0:	609a      	str	r2, [r3, #8]
  SysTick->CTRL  = SysTick_CTRL_CLKSOURCE_Msk |
 80040d2:	4b04      	ldr	r3, [pc, #16]	@ (80040e4 <SysTick_Config+0x40>)
 80040d4:	2207      	movs	r2, #7
 80040d6:	601a      	str	r2, [r3, #0]
                   SysTick_CTRL_TICKINT_Msk   |
                   SysTick_CTRL_ENABLE_Msk;                         /* Enable SysTick IRQ and SysTick Timer */
  return (0UL);                                                     /* Function successful */
 80040d8:	2300      	movs	r3, #0
}
 80040da:	4618      	mov	r0, r3
 80040dc:	3708      	adds	r7, #8
 80040de:	46bd      	mov	sp, r7
 80040e0:	bd80      	pop	{r7, pc}
 80040e2:	bf00      	nop
 80040e4:	e000e010 	.word	0xe000e010

080040e8 <HAL_NVIC_SetPriorityGrouping>:
  * @note   When the NVIC_PriorityGroup_0 is selected, IRQ preemption is no more possible. 
  *         The pending IRQ priority will be managed only by the subpriority. 
  * @retval None
  */
void HAL_NVIC_SetPriorityGrouping(uint32_t PriorityGroup)
{
 80040e8:	b580      	push	{r7, lr}
 80040ea:	b082      	sub	sp, #8
 80040ec:	af00      	add	r7, sp, #0
 80040ee:	6078      	str	r0, [r7, #4]
  /* Check the parameters */
  assert_param(IS_NVIC_PRIORITY_GROUP(PriorityGroup));
  
  /* Set the PRIGROUP[10:8] bits according to the PriorityGroup parameter value */
  NVIC_SetPriorityGrouping(PriorityGroup);
 80040f0:	6878      	ldr	r0, [r7, #4]
 80040f2:	f7ff ff29 	bl	8003f48 <__NVIC_SetPriorityGrouping>
}
 80040f6:	bf00      	nop
 80040f8:	3708      	adds	r7, #8
 80040fa:	46bd      	mov	sp, r7
 80040fc:	bd80      	pop	{r7, pc}

080040fe <HAL_NVIC_SetPriority>:
  *         This parameter can be a value between 0 and 15
  *         A lower priority value indicates a higher priority.          
  * @retval None
  */
void HAL_NVIC_SetPriority(IRQn_Type IRQn, uint32_t PreemptPriority, uint32_t SubPriority)
{ 
 80040fe:	b580      	push	{r7, lr}
 8004100:	b086      	sub	sp, #24
 8004102:	af00      	add	r7, sp, #0
 8004104:	4603      	mov	r3, r0
 8004106:	60b9      	str	r1, [r7, #8]
 8004108:	607a      	str	r2, [r7, #4]
 800410a:	73fb      	strb	r3, [r7, #15]
  uint32_t prioritygroup = 0x00U;
 800410c:	2300      	movs	r3, #0
 800410e:	617b      	str	r3, [r7, #20]
  
  /* Check the parameters */
  assert_param(IS_NVIC_SUB_PRIORITY(SubPriority));
  assert_param(IS_NVIC_PREEMPTION_PRIORITY(PreemptPriority));
  
  prioritygroup = NVIC_GetPriorityGrouping();
 8004110:	f7ff ff3e 	bl	8003f90 <__NVIC_GetPriorityGrouping>
 8004114:	6178      	str	r0, [r7, #20]
  
  NVIC_SetPriority(IRQn, NVIC_EncodePriority(prioritygroup, PreemptPriority, SubPriority));
 8004116:	687a      	ldr	r2, [r7, #4]
 8004118:	68b9      	ldr	r1, [r7, #8]
 800411a:	6978      	ldr	r0, [r7, #20]
 800411c:	f7ff ff8e 	bl	800403c <NVIC_EncodePriority>
 8004120:	4602      	mov	r2, r0
 8004122:	f997 300f 	ldrsb.w	r3, [r7, #15]
 8004126:	4611      	mov	r1, r2
 8004128:	4618      	mov	r0, r3
 800412a:	f7ff ff5d 	bl	8003fe8 <__NVIC_SetPriority>
}
 800412e:	bf00      	nop
 8004130:	3718      	adds	r7, #24
 8004132:	46bd      	mov	sp, r7
 8004134:	bd80      	pop	{r7, pc}

08004136 <HAL_NVIC_EnableIRQ>:
  *         This parameter can be an enumerator of IRQn_Type enumeration
  *         (For the complete STM32 Devices IRQ Channels list, please refer to the appropriate CMSIS device file (stm32f4xxxx.h))
  * @retval None
  */
void HAL_NVIC_EnableIRQ(IRQn_Type IRQn)
{
 8004136:	b580      	push	{r7, lr}
 8004138:	b082      	sub	sp, #8
 800413a:	af00      	add	r7, sp, #0
 800413c:	4603      	mov	r3, r0
 800413e:	71fb      	strb	r3, [r7, #7]
  /* Check the parameters */
  assert_param(IS_NVIC_DEVICE_IRQ(IRQn));
  
  /* Enable interrupt */
  NVIC_EnableIRQ(IRQn);
 8004140:	f997 3007 	ldrsb.w	r3, [r7, #7]
 8004144:	4618      	mov	r0, r3
 8004146:	f7ff ff31 	bl	8003fac <__NVIC_EnableIRQ>
}
 800414a:	bf00      	nop
 800414c:	3708      	adds	r7, #8
 800414e:	46bd      	mov	sp, r7
 8004150:	bd80      	pop	{r7, pc}

08004152 <HAL_SYSTICK_Config>:
  * @param  TicksNumb Specifies the ticks Number of ticks between two interrupts.
  * @retval status:  - 0  Function succeeded.
  *                  - 1  Function failed.
  */
uint32_t HAL_SYSTICK_Config(uint32_t TicksNumb)
{
 8004152:	b580      	push	{r7, lr}
 8004154:	b082      	sub	sp, #8
 8004156:	af00      	add	r7, sp, #0
 8004158:	6078      	str	r0, [r7, #4]
   return SysTick_Config(TicksNumb);
 800415a:	6878      	ldr	r0, [r7, #4]
 800415c:	f7ff ffa2 	bl	80040a4 <SysTick_Config>
 8004160:	4603      	mov	r3, r0
}
 8004162:	4618      	mov	r0, r3
 8004164:	3708      	adds	r7, #8
 8004166:	46bd      	mov	sp, r7
 8004168:	bd80      	pop	{r7, pc}
	...

0800416c <HAL_DMA_Init>:
  * @param  hdma Pointer to a DMA_HandleTypeDef structure that contains
  *               the configuration information for the specified DMA Stream.  
  * @retval HAL status
  */
HAL_StatusTypeDef HAL_DMA_Init(DMA_HandleTypeDef *hdma)
{
 800416c:	b580      	push	{r7, lr}
 800416e:	b086      	sub	sp, #24
 8004170:	af00      	add	r7, sp, #0
 8004172:	6078      	str	r0, [r7, #4]
  uint32_t tmp = 0U;
 8004174:	2300      	movs	r3, #0
 8004176:	617b      	str	r3, [r7, #20]
  uint32_t tickstart = HAL_GetTick();
 8004178:	f7ff f84e 	bl	8003218 <HAL_GetTick>
 800417c:	6138      	str	r0, [r7, #16]
  DMA_Base_Registers *regs;

  /* Check the DMA peripheral state */
  if(hdma == NULL)
 800417e:	687b      	ldr	r3, [r7, #4]
 8004180:	2b00      	cmp	r3, #0
 8004182:	d101      	bne.n	8004188 <HAL_DMA_Init+0x1c>
  {
    return HAL_ERROR;
 8004184:	2301      	movs	r3, #1
 8004186:	e099      	b.n	80042bc <HAL_DMA_Init+0x150>
    assert_param(IS_DMA_MEMORY_BURST(hdma->Init.MemBurst));
    assert_param(IS_DMA_PERIPHERAL_BURST(hdma->Init.PeriphBurst));
  }

  /* Change DMA peripheral state */
  hdma->State = HAL_DMA_STATE_BUSY;
 8004188:	687b      	ldr	r3, [r7, #4]
 800418a:	2202      	movs	r2, #2
 800418c:	f883 2035 	strb.w	r2, [r3, #53]	@ 0x35

  /* Allocate lock resource */
  __HAL_UNLOCK(hdma);
 8004190:	687b      	ldr	r3, [r7, #4]
 8004192:	2200      	movs	r2, #0
 8004194:	f883 2034 	strb.w	r2, [r3, #52]	@ 0x34
  
  /* Disable the peripheral */
  __HAL_DMA_DISABLE(hdma);
 8004198:	687b      	ldr	r3, [r7, #4]
 800419a:	681b      	ldr	r3, [r3, #0]
 800419c:	681a      	ldr	r2, [r3, #0]
 800419e:	687b      	ldr	r3, [r7, #4]
 80041a0:	681b      	ldr	r3, [r3, #0]
 80041a2:	f022 0201 	bic.w	r2, r2, #1
 80041a6:	601a      	str	r2, [r3, #0]
  
  /* Check if the DMA Stream is effectively disabled */
  while((hdma->Instance->CR & DMA_SxCR_EN) != RESET)
 80041a8:	e00f      	b.n	80041ca <HAL_DMA_Init+0x5e>
  {
    /* Check for the Timeout */
    if((HAL_GetTick() - tickstart ) > HAL_TIMEOUT_DMA_ABORT)
 80041aa:	f7ff f835 	bl	8003218 <HAL_GetTick>
 80041ae:	4602      	mov	r2, r0
 80041b0:	693b      	ldr	r3, [r7, #16]
 80041b2:	1ad3      	subs	r3, r2, r3
 80041b4:	2b05      	cmp	r3, #5
 80041b6:	d908      	bls.n	80041ca <HAL_DMA_Init+0x5e>
    {
      /* Update error code */
      hdma->ErrorCode = HAL_DMA_ERROR_TIMEOUT;
 80041b8:	687b      	ldr	r3, [r7, #4]
 80041ba:	2220      	movs	r2, #32
 80041bc:	655a      	str	r2, [r3, #84]	@ 0x54
      
      /* Change the DMA state */
      hdma->State = HAL_DMA_STATE_TIMEOUT;
 80041be:	687b      	ldr	r3, [r7, #4]
 80041c0:	2203      	movs	r2, #3
 80041c2:	f883 2035 	strb.w	r2, [r3, #53]	@ 0x35
      
      return HAL_TIMEOUT;
 80041c6:	2303      	movs	r3, #3
 80041c8:	e078      	b.n	80042bc <HAL_DMA_Init+0x150>
  while((hdma->Instance->CR & DMA_SxCR_EN) != RESET)
 80041ca:	687b      	ldr	r3, [r7, #4]
 80041cc:	681b      	ldr	r3, [r3, #0]
 80041ce:	681b      	ldr	r3, [r3, #0]
 80041d0:	f003 0301 	and.w	r3, r3, #1
 80041d4:	2b00      	cmp	r3, #0
 80041d6:	d1e8      	bne.n	80041aa <HAL_DMA_Init+0x3e>
    }
  }
  
  /* Get the CR register value */
  tmp = hdma->Instance->CR;
 80041d8:	687b      	ldr	r3, [r7, #4]
 80041da:	681b      	ldr	r3, [r3, #0]
 80041dc:	681b      	ldr	r3, [r3, #0]
 80041de:	617b      	str	r3, [r7, #20]

  /* Clear CHSEL, MBURST, PBURST, PL, MSIZE, PSIZE, MINC, PINC, CIRC, DIR, CT and DBM bits */
  tmp &= ((uint32_t)~(DMA_SxCR_CHSEL | DMA_SxCR_MBURST | DMA_SxCR_PBURST | \
 80041e0:	697a      	ldr	r2, [r7, #20]
 80041e2:	4b38      	ldr	r3, [pc, #224]	@ (80042c4 <HAL_DMA_Init+0x158>)
 80041e4:	4013      	ands	r3, r2
 80041e6:	617b      	str	r3, [r7, #20]
                      DMA_SxCR_PL    | DMA_SxCR_MSIZE  | DMA_SxCR_PSIZE  | \
                      DMA_SxCR_MINC  | DMA_SxCR_PINC   | DMA_SxCR_CIRC   | \
                      DMA_SxCR_DIR   | DMA_SxCR_CT     | DMA_SxCR_DBM));

  /* Prepare the DMA Stream configuration */
  tmp |=  hdma->Init.Channel             | hdma->Init.Direction        |
 80041e8:	687b      	ldr	r3, [r7, #4]
 80041ea:	685a      	ldr	r2, [r3, #4]
 80041ec:	687b      	ldr	r3, [r7, #4]
 80041ee:	689b      	ldr	r3, [r3, #8]
 80041f0:	431a      	orrs	r2, r3
          hdma->Init.PeriphInc           | hdma->Init.MemInc           |
 80041f2:	687b      	ldr	r3, [r7, #4]
 80041f4:	68db      	ldr	r3, [r3, #12]
  tmp |=  hdma->Init.Channel             | hdma->Init.Direction        |
 80041f6:	431a      	orrs	r2, r3
          hdma->Init.PeriphInc           | hdma->Init.MemInc           |
 80041f8:	687b      	ldr	r3, [r7, #4]
 80041fa:	691b      	ldr	r3, [r3, #16]
 80041fc:	431a      	orrs	r2, r3
          hdma->Init.PeriphDataAlignment | hdma->Init.MemDataAlignment |
 80041fe:	687b      	ldr	r3, [r7, #4]
 8004200:	695b      	ldr	r3, [r3, #20]
          hdma->Init.PeriphInc           | hdma->Init.MemInc           |
 8004202:	431a      	orrs	r2, r3
          hdma->Init.PeriphDataAlignment | hdma->Init.MemDataAlignment |
 8004204:	687b      	ldr	r3, [r7, #4]
 8004206:	699b      	ldr	r3, [r3, #24]
 8004208:	431a      	orrs	r2, r3
          hdma->Init.Mode                | hdma->Init.Priority;
 800420a:	687b      	ldr	r3, [r7, #4]
 800420c:	69db      	ldr	r3, [r3, #28]
          hdma->Init.PeriphDataAlignment | hdma->Init.MemDataAlignment |
 800420e:	431a      	orrs	r2, r3
          hdma->Init.Mode                | hdma->Init.Priority;
 8004210:	687b      	ldr	r3, [r7, #4]
 8004212:	6a1b      	ldr	r3, [r3, #32]
 8004214:	4313      	orrs	r3, r2
  tmp |=  hdma->Init.Channel             | hdma->Init.Direction        |
 8004216:	697a      	ldr	r2, [r7, #20]
 8004218:	4313      	orrs	r3, r2
 800421a:	617b      	str	r3, [r7, #20]

  /* the Memory burst and peripheral burst are not used when the FIFO is disabled */
  if(hdma->Init.FIFOMode == DMA_FIFOMODE_ENABLE)
 800421c:	687b      	ldr	r3, [r7, #4]
 800421e:	6a5b      	ldr	r3, [r3, #36]	@ 0x24
 8004220:	2b04      	cmp	r3, #4
 8004222:	d107      	bne.n	8004234 <HAL_DMA_Init+0xc8>
  {
    /* Get memory burst and peripheral burst */
    tmp |=  hdma->Init.MemBurst | hdma->Init.PeriphBurst;
 8004224:	687b      	ldr	r3, [r7, #4]
 8004226:	6ada      	ldr	r2, [r3, #44]	@ 0x2c
 8004228:	687b      	ldr	r3, [r7, #4]
 800422a:	6b1b      	ldr	r3, [r3, #48]	@ 0x30
 800422c:	4313      	orrs	r3, r2
 800422e:	697a      	ldr	r2, [r7, #20]
 8004230:	4313      	orrs	r3, r2
 8004232:	617b      	str	r3, [r7, #20]
  }
  
  /* Write to DMA Stream CR register */
  hdma->Instance->CR = tmp;  
 8004234:	687b      	ldr	r3, [r7, #4]
 8004236:	681b      	ldr	r3, [r3, #0]
 8004238:	697a      	ldr	r2, [r7, #20]
 800423a:	601a      	str	r2, [r3, #0]

  /* Get the FCR register value */
  tmp = hdma->Instance->FCR;
 800423c:	687b      	ldr	r3, [r7, #4]
 800423e:	681b      	ldr	r3, [r3, #0]
 8004240:	695b      	ldr	r3, [r3, #20]
 8004242:	617b      	str	r3, [r7, #20]

  /* Clear Direct mode and FIFO threshold bits */
  tmp &= (uint32_t)~(DMA_SxFCR_DMDIS | DMA_SxFCR_FTH);
 8004244:	697b      	ldr	r3, [r7, #20]
 8004246:	f023 0307 	bic.w	r3, r3, #7
 800424a:	617b      	str	r3, [r7, #20]

  /* Prepare the DMA Stream FIFO configuration */
  tmp |= hdma->Init.FIFOMode;
 800424c:	687b      	ldr	r3, [r7, #4]
 800424e:	6a5b      	ldr	r3, [r3, #36]	@ 0x24
 8004250:	697a      	ldr	r2, [r7, #20]
 8004252:	4313      	orrs	r3, r2
 8004254:	617b      	str	r3, [r7, #20]

  /* The FIFO threshold is not used when the FIFO mode is disabled */
  if(hdma->Init.FIFOMode == DMA_FIFOMODE_ENABLE)
 8004256:	687b      	ldr	r3, [r7, #4]
 8004258:	6a5b      	ldr	r3, [r3, #36]	@ 0x24
 800425a:	2b04      	cmp	r3, #4
 800425c:	d117      	bne.n	800428e <HAL_DMA_Init+0x122>
  {
    /* Get the FIFO threshold */
    tmp |= hdma->Init.FIFOThreshold;
 800425e:	687b      	ldr	r3, [r7, #4]
 8004260:	6a9b      	ldr	r3, [r3, #40]	@ 0x28
 8004262:	697a      	ldr	r2, [r7, #20]
 8004264:	4313      	orrs	r3, r2
 8004266:	617b      	str	r3, [r7, #20]
    
    /* Check compatibility between FIFO threshold level and size of the memory burst */
    /* for INCR4, INCR8, INCR16 bursts */
    if (hdma->Init.MemBurst != DMA_MBURST_SINGLE)
 8004268:	687b      	ldr	r3, [r7, #4]
 800426a:	6adb      	ldr	r3, [r3, #44]	@ 0x2c
 800426c:	2b00      	cmp	r3, #0
 800426e:	d00e      	beq.n	800428e <HAL_DMA_Init+0x122>
    {
      if (DMA_CheckFifoParam(hdma) != HAL_OK)
 8004270:	6878      	ldr	r0, [r7, #4]
 8004272:	f000 fb01 	bl	8004878 <DMA_CheckFifoParam>
 8004276:	4603      	mov	r3, r0
 8004278:	2b00      	cmp	r3, #0
 800427a:	d008      	beq.n	800428e <HAL_DMA_Init+0x122>
      {
        /* Update error code */
        hdma->ErrorCode = HAL_DMA_ERROR_PARAM;
 800427c:	687b      	ldr	r3, [r7, #4]
 800427e:	2240      	movs	r2, #64	@ 0x40
 8004280:	655a      	str	r2, [r3, #84]	@ 0x54
        
        /* Change the DMA state */
        hdma->State = HAL_DMA_STATE_READY;
 8004282:	687b      	ldr	r3, [r7, #4]
 8004284:	2201      	movs	r2, #1
 8004286:	f883 2035 	strb.w	r2, [r3, #53]	@ 0x35
        
        return HAL_ERROR; 
 800428a:	2301      	movs	r3, #1
 800428c:	e016      	b.n	80042bc <HAL_DMA_Init+0x150>
      }
    }
  }
  
  /* Write to DMA Stream FCR */
  hdma->Instance->FCR = tmp;
 800428e:	687b      	ldr	r3, [r7, #4]
 8004290:	681b      	ldr	r3, [r3, #0]
 8004292:	697a      	ldr	r2, [r7, #20]
 8004294:	615a      	str	r2, [r3, #20]

  /* Initialize StreamBaseAddress and StreamIndex parameters to be used to calculate
     DMA steam Base Address needed by HAL_DMA_IRQHandler() and HAL_DMA_PollForTransfer() */
  regs = (DMA_Base_Registers *)DMA_CalcBaseAndBitshift(hdma);
 8004296:	6878      	ldr	r0, [r7, #4]
 8004298:	f000 fab8 	bl	800480c <DMA_CalcBaseAndBitshift>
 800429c:	4603      	mov	r3, r0
 800429e:	60fb      	str	r3, [r7, #12]
  
  /* Clear all interrupt flags */
  regs->IFCR = 0x3FU << hdma->StreamIndex;
 80042a0:	687b      	ldr	r3, [r7, #4]
 80042a2:	6ddb      	ldr	r3, [r3, #92]	@ 0x5c
 80042a4:	223f      	movs	r2, #63	@ 0x3f
 80042a6:	409a      	lsls	r2, r3
 80042a8:	68fb      	ldr	r3, [r7, #12]
 80042aa:	609a      	str	r2, [r3, #8]

  /* Initialize the error code */
  hdma->ErrorCode = HAL_DMA_ERROR_NONE;
 80042ac:	687b      	ldr	r3, [r7, #4]
 80042ae:	2200      	movs	r2, #0
 80042b0:	655a      	str	r2, [r3, #84]	@ 0x54
                                                                                     
  /* Initialize the DMA state */
  hdma->State = HAL_DMA_STATE_READY;
 80042b2:	687b      	ldr	r3, [r7, #4]
 80042b4:	2201      	movs	r2, #1
 80042b6:	f883 2035 	strb.w	r2, [r3, #53]	@ 0x35

  return HAL_OK;
 80042ba:	2300      	movs	r3, #0
}
 80042bc:	4618      	mov	r0, r3
 80042be:	3718      	adds	r7, #24
 80042c0:	46bd      	mov	sp, r7
 80042c2:	bd80      	pop	{r7, pc}
 80042c4:	f010803f 	.word	0xf010803f

080042c8 <HAL_DMA_Start_IT>:
  * @param  DstAddress The destination memory Buffer address
  * @param  DataLength The length of data to be transferred from source to destination
  * @retval HAL status
  */
HAL_StatusTypeDef HAL_DMA_Start_IT(DMA_HandleTypeDef *hdma, uint32_t SrcAddress, uint32_t DstAddress, uint32_t DataLength)
{
 80042c8:	b580      	push	{r7, lr}
 80042ca:	b086      	sub	sp, #24
 80042cc:	af00      	add	r7, sp, #0
 80042ce:	60f8      	str	r0, [r7, #12]
 80042d0:	60b9      	str	r1, [r7, #8]
 80042d2:	607a      	str	r2, [r7, #4]
 80042d4:	603b      	str	r3, [r7, #0]
  HAL_StatusTypeDef status = HAL_OK;
 80042d6:	2300      	movs	r3, #0
 80042d8:	75fb      	strb	r3, [r7, #23]

  /* calculate DMA base and stream number */
  DMA_Base_Registers *regs = (DMA_Base_Registers *)hdma->StreamBaseAddress;
 80042da:	68fb      	ldr	r3, [r7, #12]
 80042dc:	6d9b      	ldr	r3, [r3, #88]	@ 0x58
 80042de:	613b      	str	r3, [r7, #16]
  
  /* Check the parameters */
  assert_param(IS_DMA_BUFFER_SIZE(DataLength));
 
  /* Process locked */
  __HAL_LOCK(hdma);
 80042e0:	68fb      	ldr	r3, [r7, #12]
 80042e2:	f893 3034 	ldrb.w	r3, [r3, #52]	@ 0x34
 80042e6:	2b01      	cmp	r3, #1
 80042e8:	d101      	bne.n	80042ee <HAL_DMA_Start_IT+0x26>
 80042ea:	2302      	movs	r3, #2
 80042ec:	e040      	b.n	8004370 <HAL_DMA_Start_IT+0xa8>
 80042ee:	68fb      	ldr	r3, [r7, #12]
 80042f0:	2201      	movs	r2, #1
 80042f2:	f883 2034 	strb.w	r2, [r3, #52]	@ 0x34
  
  if(HAL_DMA_STATE_READY == hdma->State)
 80042f6:	68fb      	ldr	r3, [r7, #12]
 80042f8:	f893 3035 	ldrb.w	r3, [r3, #53]	@ 0x35
 80042fc:	b2db      	uxtb	r3, r3
 80042fe:	2b01      	cmp	r3, #1
 8004300:	d12f      	bne.n	8004362 <HAL_DMA_Start_IT+0x9a>
  {
    /* Change DMA peripheral state */
    hdma->State = HAL_DMA_STATE_BUSY;
 8004302:	68fb      	ldr	r3, [r7, #12]
 8004304:	2202      	movs	r2, #2
 8004306:	f883 2035 	strb.w	r2, [r3, #53]	@ 0x35
    
    /* Initialize the error code */
    hdma->ErrorCode = HAL_DMA_ERROR_NONE;
 800430a:	68fb      	ldr	r3, [r7, #12]
 800430c:	2200      	movs	r2, #0
 800430e:	655a      	str	r2, [r3, #84]	@ 0x54
    
    /* Configure the source, destination address and the data length */
    DMA_SetConfig(hdma, SrcAddress, DstAddress, DataLength);
 8004310:	683b      	ldr	r3, [r7, #0]
 8004312:	687a      	ldr	r2, [r7, #4]
 8004314:	68b9      	ldr	r1, [r7, #8]
 8004316:	68f8      	ldr	r0, [r7, #12]
 8004318:	f000 fa4a 	bl	80047b0 <DMA_SetConfig>
    
    /* Clear all interrupt flags at correct offset within the register */
    regs->IFCR = 0x3FU << hdma->StreamIndex;
 800431c:	68fb      	ldr	r3, [r7, #12]
 800431e:	6ddb      	ldr	r3, [r3, #92]	@ 0x5c
 8004320:	223f      	movs	r2, #63	@ 0x3f
 8004322:	409a      	lsls	r2, r3
 8004324:	693b      	ldr	r3, [r7, #16]
 8004326:	609a      	str	r2, [r3, #8]
    
    /* Enable Common interrupts*/
    hdma->Instance->CR  |= DMA_IT_TC | DMA_IT_TE | DMA_IT_DME;
 8004328:	68fb      	ldr	r3, [r7, #12]
 800432a:	681b      	ldr	r3, [r3, #0]
 800432c:	681a      	ldr	r2, [r3, #0]
 800432e:	68fb      	ldr	r3, [r7, #12]
 8004330:	681b      	ldr	r3, [r3, #0]
 8004332:	f042 0216 	orr.w	r2, r2, #22
 8004336:	601a      	str	r2, [r3, #0]
    
    if(hdma->XferHalfCpltCallback != NULL)
 8004338:	68fb      	ldr	r3, [r7, #12]
 800433a:	6c1b      	ldr	r3, [r3, #64]	@ 0x40
 800433c:	2b00      	cmp	r3, #0
 800433e:	d007      	beq.n	8004350 <HAL_DMA_Start_IT+0x88>
    {
      hdma->Instance->CR  |= DMA_IT_HT;
 8004340:	68fb      	ldr	r3, [r7, #12]
 8004342:	681b      	ldr	r3, [r3, #0]
 8004344:	681a      	ldr	r2, [r3, #0]
 8004346:	68fb      	ldr	r3, [r7, #12]
 8004348:	681b      	ldr	r3, [r3, #0]
 800434a:	f042 0208 	orr.w	r2, r2, #8
 800434e:	601a      	str	r2, [r3, #0]
    }
    
    /* Enable the Peripheral */
    __HAL_DMA_ENABLE(hdma);
 8004350:	68fb      	ldr	r3, [r7, #12]
 8004352:	681b      	ldr	r3, [r3, #0]
 8004354:	681a      	ldr	r2, [r3, #0]
 8004356:	68fb      	ldr	r3, [r7, #12]
 8004358:	681b      	ldr	r3, [r3, #0]
 800435a:	f042 0201 	orr.w	r2, r2, #1
 800435e:	601a      	str	r2, [r3, #0]
 8004360:	e005      	b.n	800436e <HAL_DMA_Start_IT+0xa6>
  }
  else
  {
    /* Process unlocked */
    __HAL_UNLOCK(hdma);	  
 8004362:	68fb      	ldr	r3, [r7, #12]
 8004364:	2200      	movs	r2, #0
 8004366:	f883 2034 	strb.w	r2, [r3, #52]	@ 0x34
    
    /* Return error status */
    status = HAL_BUSY;
 800436a:	2302      	movs	r3, #2
 800436c:	75fb      	strb	r3, [r7, #23]
  }
  
  return status;
 800436e:	7dfb      	ldrb	r3, [r7, #23]
}
 8004370:	4618      	mov	r0, r3
 8004372:	3718      	adds	r7, #24
 8004374:	46bd      	mov	sp, r7
 8004376:	bd80      	pop	{r7, pc}

08004378 <HAL_DMA_Abort>:
  *        and the Stream will be effectively disabled only after the transfer of
  *        this single data is finished.  
  * @retval HAL status
  */
HAL_StatusTypeDef HAL_DMA_Abort(DMA_HandleTypeDef *hdma)
{
 8004378:	b580      	push	{r7, lr}
 800437a:	b084      	sub	sp, #16
 800437c:	af00      	add	r7, sp, #0
 800437e:	6078      	str	r0, [r7, #4]
  /* calculate DMA base and stream number */
  DMA_Base_Registers *regs = (DMA_Base_Registers *)hdma->StreamBaseAddress;
 8004380:	687b      	ldr	r3, [r7, #4]
 8004382:	6d9b      	ldr	r3, [r3, #88]	@ 0x58
 8004384:	60fb      	str	r3, [r7, #12]
  
  uint32_t tickstart = HAL_GetTick();
 8004386:	f7fe ff47 	bl	8003218 <HAL_GetTick>
 800438a:	60b8      	str	r0, [r7, #8]
  
  if(hdma->State != HAL_DMA_STATE_BUSY)
 800438c:	687b      	ldr	r3, [r7, #4]
 800438e:	f893 3035 	ldrb.w	r3, [r3, #53]	@ 0x35
 8004392:	b2db      	uxtb	r3, r3
 8004394:	2b02      	cmp	r3, #2
 8004396:	d008      	beq.n	80043aa <HAL_DMA_Abort+0x32>
  {
    hdma->ErrorCode = HAL_DMA_ERROR_NO_XFER;
 8004398:	687b      	ldr	r3, [r7, #4]
 800439a:	2280      	movs	r2, #128	@ 0x80
 800439c:	655a      	str	r2, [r3, #84]	@ 0x54
    
    /* Process Unlocked */
    __HAL_UNLOCK(hdma);
 800439e:	687b      	ldr	r3, [r7, #4]
 80043a0:	2200      	movs	r2, #0
 80043a2:	f883 2034 	strb.w	r2, [r3, #52]	@ 0x34
    
    return HAL_ERROR;
 80043a6:	2301      	movs	r3, #1
 80043a8:	e052      	b.n	8004450 <HAL_DMA_Abort+0xd8>
  }
  else
  {
    /* Disable all the transfer interrupts */
    hdma->Instance->CR  &= ~(DMA_IT_TC | DMA_IT_TE | DMA_IT_DME);
 80043aa:	687b      	ldr	r3, [r7, #4]
 80043ac:	681b      	ldr	r3, [r3, #0]
 80043ae:	681a      	ldr	r2, [r3, #0]
 80043b0:	687b      	ldr	r3, [r7, #4]
 80043b2:	681b      	ldr	r3, [r3, #0]
 80043b4:	f022 0216 	bic.w	r2, r2, #22
 80043b8:	601a      	str	r2, [r3, #0]
    hdma->Instance->FCR &= ~(DMA_IT_FE);
 80043ba:	687b      	ldr	r3, [r7, #4]
 80043bc:	681b      	ldr	r3, [r3, #0]
 80043be:	695a      	ldr	r2, [r3, #20]
 80043c0:	687b      	ldr	r3, [r7, #4]
 80043c2:	681b      	ldr	r3, [r3, #0]
 80043c4:	f022 0280 	bic.w	r2, r2, #128	@ 0x80
 80043c8:	615a      	str	r2, [r3, #20]
    
    if((hdma->XferHalfCpltCallback != NULL) || (hdma->XferM1HalfCpltCallback != NULL))
 80043ca:	687b      	ldr	r3, [r7, #4]
 80043cc:	6c1b      	ldr	r3, [r3, #64]	@ 0x40
 80043ce:	2b00      	cmp	r3, #0
 80043d0:	d103      	bne.n	80043da <HAL_DMA_Abort+0x62>
 80043d2:	687b      	ldr	r3, [r7, #4]
 80043d4:	6c9b      	ldr	r3, [r3, #72]	@ 0x48
 80043d6:	2b00      	cmp	r3, #0
 80043d8:	d007      	beq.n	80043ea <HAL_DMA_Abort+0x72>
    {
      hdma->Instance->CR  &= ~(DMA_IT_HT);
 80043da:	687b      	ldr	r3, [r7, #4]
 80043dc:	681b      	ldr	r3, [r3, #0]
 80043de:	681a      	ldr	r2, [r3, #0]
 80043e0:	687b      	ldr	r3, [r7, #4]
 80043e2:	681b      	ldr	r3, [r3, #0]
 80043e4:	f022 0208 	bic.w	r2, r2, #8
 80043e8:	601a      	str	r2, [r3, #0]
    }
    
    /* Disable the stream */
    __HAL_DMA_DISABLE(hdma);
 80043ea:	687b      	ldr	r3, [r7, #4]
 80043ec:	681b      	ldr	r3, [r3, #0]
 80043ee:	681a      	ldr	r2, [r3, #0]
 80043f0:	687b      	ldr	r3, [r7, #4]
 80043f2:	681b      	ldr	r3, [r3, #0]
 80043f4:	f022 0201 	bic.w	r2, r2, #1
 80043f8:	601a      	str	r2, [r3, #0]
    
    /* Check if the DMA Stream is effectively disabled */
    while((hdma->Instance->CR & DMA_SxCR_EN) != RESET)
 80043fa:	e013      	b.n	8004424 <HAL_DMA_Abort+0xac>
    {
      /* Check for the Timeout */
      if((HAL_GetTick() - tickstart ) > HAL_TIMEOUT_DMA_ABORT)
 80043fc:	f7fe ff0c 	bl	8003218 <HAL_GetTick>
 8004400:	4602      	mov	r2, r0
 8004402:	68bb      	ldr	r3, [r7, #8]
 8004404:	1ad3      	subs	r3, r2, r3
 8004406:	2b05      	cmp	r3, #5
 8004408:	d90c      	bls.n	8004424 <HAL_DMA_Abort+0xac>
      {
        /* Update error code */
        hdma->ErrorCode = HAL_DMA_ERROR_TIMEOUT;
 800440a:	687b      	ldr	r3, [r7, #4]
 800440c:	2220      	movs	r2, #32
 800440e:	655a      	str	r2, [r3, #84]	@ 0x54
        
        /* Change the DMA state */
        hdma->State = HAL_DMA_STATE_TIMEOUT;
 8004410:	687b      	ldr	r3, [r7, #4]
 8004412:	2203      	movs	r2, #3
 8004414:	f883 2035 	strb.w	r2, [r3, #53]	@ 0x35
        
        /* Process Unlocked */
        __HAL_UNLOCK(hdma);
 8004418:	687b      	ldr	r3, [r7, #4]
 800441a:	2200      	movs	r2, #0
 800441c:	f883 2034 	strb.w	r2, [r3, #52]	@ 0x34
        
        return HAL_TIMEOUT;
 8004420:	2303      	movs	r3, #3
 8004422:	e015      	b.n	8004450 <HAL_DMA_Abort+0xd8>
    while((hdma->Instance->CR & DMA_SxCR_EN) != RESET)
 8004424:	687b      	ldr	r3, [r7, #4]
 8004426:	681b      	ldr	r3, [r3, #0]
 8004428:	681b      	ldr	r3, [r3, #0]
 800442a:	f003 0301 	and.w	r3, r3, #1
 800442e:	2b00      	cmp	r3, #0
 8004430:	d1e4      	bne.n	80043fc <HAL_DMA_Abort+0x84>
      }
    }
    
    /* Clear all interrupt flags at correct offset within the register */
    regs->IFCR = 0x3FU << hdma->StreamIndex;
 8004432:	687b      	ldr	r3, [r7, #4]
 8004434:	6ddb      	ldr	r3, [r3, #92]	@ 0x5c
 8004436:	223f      	movs	r2, #63	@ 0x3f
 8004438:	409a      	lsls	r2, r3
 800443a:	68fb      	ldr	r3, [r7, #12]
 800443c:	609a      	str	r2, [r3, #8]
    
    /* Change the DMA state*/
    hdma->State = HAL_DMA_STATE_READY;
 800443e:	687b      	ldr	r3, [r7, #4]
 8004440:	2201      	movs	r2, #1
 8004442:	f883 2035 	strb.w	r2, [r3, #53]	@ 0x35
    
    /* Process Unlocked */
    __HAL_UNLOCK(hdma);
 8004446:	687b      	ldr	r3, [r7, #4]
 8004448:	2200      	movs	r2, #0
 800444a:	f883 2034 	strb.w	r2, [r3, #52]	@ 0x34
  }
  return HAL_OK;
 800444e:	2300      	movs	r3, #0
}
 8004450:	4618      	mov	r0, r3
 8004452:	3710      	adds	r7, #16
 8004454:	46bd      	mov	sp, r7
 8004456:	bd80      	pop	{r7, pc}

08004458 <HAL_DMA_Abort_IT>:
  * @param  hdma   pointer to a DMA_HandleTypeDef structure that contains
  *                 the configuration information for the specified DMA Stream.
  * @retval HAL status
  */
HAL_StatusTypeDef HAL_DMA_Abort_IT(DMA_HandleTypeDef *hdma)
{
 8004458:	b480      	push	{r7}
 800445a:	b083      	sub	sp, #12
 800445c:	af00      	add	r7, sp, #0
 800445e:	6078      	str	r0, [r7, #4]
  if(hdma->State != HAL_DMA_STATE_BUSY)
 8004460:	687b      	ldr	r3, [r7, #4]
 8004462:	f893 3035 	ldrb.w	r3, [r3, #53]	@ 0x35
 8004466:	b2db      	uxtb	r3, r3
 8004468:	2b02      	cmp	r3, #2
 800446a:	d004      	beq.n	8004476 <HAL_DMA_Abort_IT+0x1e>
  {
    hdma->ErrorCode = HAL_DMA_ERROR_NO_XFER;
 800446c:	687b      	ldr	r3, [r7, #4]
 800446e:	2280      	movs	r2, #128	@ 0x80
 8004470:	655a      	str	r2, [r3, #84]	@ 0x54
    return HAL_ERROR;
 8004472:	2301      	movs	r3, #1
 8004474:	e00c      	b.n	8004490 <HAL_DMA_Abort_IT+0x38>
  }
  else
  {
    /* Set Abort State  */
    hdma->State = HAL_DMA_STATE_ABORT;
 8004476:	687b      	ldr	r3, [r7, #4]
 8004478:	2205      	movs	r2, #5
 800447a:	f883 2035 	strb.w	r2, [r3, #53]	@ 0x35
    
    /* Disable the stream */
    __HAL_DMA_DISABLE(hdma);
 800447e:	687b      	ldr	r3, [r7, #4]
 8004480:	681b      	ldr	r3, [r3, #0]
 8004482:	681a      	ldr	r2, [r3, #0]
 8004484:	687b      	ldr	r3, [r7, #4]
 8004486:	681b      	ldr	r3, [r3, #0]
 8004488:	f022 0201 	bic.w	r2, r2, #1
 800448c:	601a      	str	r2, [r3, #0]
  }

  return HAL_OK;
 800448e:	2300      	movs	r3, #0
}
 8004490:	4618      	mov	r0, r3
 8004492:	370c      	adds	r7, #12
 8004494:	46bd      	mov	sp, r7
 8004496:	f85d 7b04 	ldr.w	r7, [sp], #4
 800449a:	4770      	bx	lr

0800449c <HAL_DMA_IRQHandler>:
  * @param  hdma pointer to a DMA_HandleTypeDef structure that contains
  *               the configuration information for the specified DMA Stream.  
  * @retval None
  */
void HAL_DMA_IRQHandler(DMA_HandleTypeDef *hdma)
{
 800449c:	b580      	push	{r7, lr}
 800449e:	b086      	sub	sp, #24
 80044a0:	af00      	add	r7, sp, #0
 80044a2:	6078      	str	r0, [r7, #4]
  uint32_t tmpisr;
  __IO uint32_t count = 0U;
 80044a4:	2300      	movs	r3, #0
 80044a6:	60bb      	str	r3, [r7, #8]
  uint32_t timeout = SystemCoreClock / 9600U;
 80044a8:	4b8e      	ldr	r3, [pc, #568]	@ (80046e4 <HAL_DMA_IRQHandler+0x248>)
 80044aa:	681b      	ldr	r3, [r3, #0]
 80044ac:	4a8e      	ldr	r2, [pc, #568]	@ (80046e8 <HAL_DMA_IRQHandler+0x24c>)
 80044ae:	fba2 2303 	umull	r2, r3, r2, r3
 80044b2:	0a9b      	lsrs	r3, r3, #10
 80044b4:	617b      	str	r3, [r7, #20]

  /* calculate DMA base and stream number */
  DMA_Base_Registers *regs = (DMA_Base_Registers *)hdma->StreamBaseAddress;
 80044b6:	687b      	ldr	r3, [r7, #4]
 80044b8:	6d9b      	ldr	r3, [r3, #88]	@ 0x58
 80044ba:	613b      	str	r3, [r7, #16]

  tmpisr = regs->ISR;
 80044bc:	693b      	ldr	r3, [r7, #16]
 80044be:	681b      	ldr	r3, [r3, #0]
 80044c0:	60fb      	str	r3, [r7, #12]

  /* Transfer Error Interrupt management ***************************************/
  if ((tmpisr & (DMA_FLAG_TEIF0_4 << hdma->StreamIndex)) != RESET)
 80044c2:	687b      	ldr	r3, [r7, #4]
 80044c4:	6ddb      	ldr	r3, [r3, #92]	@ 0x5c
 80044c6:	2208      	movs	r2, #8
 80044c8:	409a      	lsls	r2, r3
 80044ca:	68fb      	ldr	r3, [r7, #12]
 80044cc:	4013      	ands	r3, r2
 80044ce:	2b00      	cmp	r3, #0
 80044d0:	d01a      	beq.n	8004508 <HAL_DMA_IRQHandler+0x6c>
  {
    if(__HAL_DMA_GET_IT_SOURCE(hdma, DMA_IT_TE) != RESET)
 80044d2:	687b      	ldr	r3, [r7, #4]
 80044d4:	681b      	ldr	r3, [r3, #0]
 80044d6:	681b      	ldr	r3, [r3, #0]
 80044d8:	f003 0304 	and.w	r3, r3, #4
 80044dc:	2b00      	cmp	r3, #0
 80044de:	d013      	beq.n	8004508 <HAL_DMA_IRQHandler+0x6c>
    {
      /* Disable the transfer error interrupt */
      hdma->Instance->CR  &= ~(DMA_IT_TE);
 80044e0:	687b      	ldr	r3, [r7, #4]
 80044e2:	681b      	ldr	r3, [r3, #0]
 80044e4:	681a      	ldr	r2, [r3, #0]
 80044e6:	687b      	ldr	r3, [r7, #4]
 80044e8:	681b      	ldr	r3, [r3, #0]
 80044ea:	f022 0204 	bic.w	r2, r2, #4
 80044ee:	601a      	str	r2, [r3, #0]
      
      /* Clear the transfer error flag */
      regs->IFCR = DMA_FLAG_TEIF0_4 << hdma->StreamIndex;
 80044f0:	687b      	ldr	r3, [r7, #4]
 80044f2:	6ddb      	ldr	r3, [r3, #92]	@ 0x5c
 80044f4:	2208      	movs	r2, #8
 80044f6:	409a      	lsls	r2, r3
 80044f8:	693b      	ldr	r3, [r7, #16]
 80044fa:	609a      	str	r2, [r3, #8]
      
      /* Update error code */
      hdma->ErrorCode |= HAL_DMA_ERROR_TE;
 80044fc:	687b      	ldr	r3, [r7, #4]
 80044fe:	6d5b      	ldr	r3, [r3, #84]	@ 0x54
 8004500:	f043 0201 	orr.w	r2, r3, #1
 8004504:	687b      	ldr	r3, [r7, #4]
 8004506:	655a      	str	r2, [r3, #84]	@ 0x54
    }
  }
  /* FIFO Error Interrupt management ******************************************/
  if ((tmpisr & (DMA_FLAG_FEIF0_4 << hdma->StreamIndex)) != RESET)
 8004508:	687b      	ldr	r3, [r7, #4]
 800450a:	6ddb      	ldr	r3, [r3, #92]	@ 0x5c
 800450c:	2201      	movs	r2, #1
 800450e:	409a      	lsls	r2, r3
 8004510:	68fb      	ldr	r3, [r7, #12]
 8004512:	4013      	ands	r3, r2
 8004514:	2b00      	cmp	r3, #0
 8004516:	d012      	beq.n	800453e <HAL_DMA_IRQHandler+0xa2>
  {
    if(__HAL_DMA_GET_IT_SOURCE(hdma, DMA_IT_FE) != RESET)
 8004518:	687b      	ldr	r3, [r7, #4]
 800451a:	681b      	ldr	r3, [r3, #0]
 800451c:	695b      	ldr	r3, [r3, #20]
 800451e:	f003 0380 	and.w	r3, r3, #128	@ 0x80
 8004522:	2b00      	cmp	r3, #0
 8004524:	d00b      	beq.n	800453e <HAL_DMA_IRQHandler+0xa2>
    {
      /* Clear the FIFO error flag */
      regs->IFCR = DMA_FLAG_FEIF0_4 << hdma->StreamIndex;
 8004526:	687b      	ldr	r3, [r7, #4]
 8004528:	6ddb      	ldr	r3, [r3, #92]	@ 0x5c
 800452a:	2201      	movs	r2, #1
 800452c:	409a      	lsls	r2, r3
 800452e:	693b      	ldr	r3, [r7, #16]
 8004530:	609a      	str	r2, [r3, #8]

      /* Update error code */
      hdma->ErrorCode |= HAL_DMA_ERROR_FE;
 8004532:	687b      	ldr	r3, [r7, #4]
 8004534:	6d5b      	ldr	r3, [r3, #84]	@ 0x54
 8004536:	f043 0202 	orr.w	r2, r3, #2
 800453a:	687b      	ldr	r3, [r7, #4]
 800453c:	655a      	str	r2, [r3, #84]	@ 0x54
    }
  }
  /* Direct Mode Error Interrupt management ***********************************/
  if ((tmpisr & (DMA_FLAG_DMEIF0_4 << hdma->StreamIndex)) != RESET)
 800453e:	687b      	ldr	r3, [r7, #4]
 8004540:	6ddb      	ldr	r3, [r3, #92]	@ 0x5c
 8004542:	2204      	movs	r2, #4
 8004544:	409a      	lsls	r2, r3
 8004546:	68fb      	ldr	r3, [r7, #12]
 8004548:	4013      	ands	r3, r2
 800454a:	2b00      	cmp	r3, #0
 800454c:	d012      	beq.n	8004574 <HAL_DMA_IRQHandler+0xd8>
  {
    if(__HAL_DMA_GET_IT_SOURCE(hdma, DMA_IT_DME) != RESET)
 800454e:	687b      	ldr	r3, [r7, #4]
 8004550:	681b      	ldr	r3, [r3, #0]
 8004552:	681b      	ldr	r3, [r3, #0]
 8004554:	f003 0302 	and.w	r3, r3, #2
 8004558:	2b00      	cmp	r3, #0
 800455a:	d00b      	beq.n	8004574 <HAL_DMA_IRQHandler+0xd8>
    {
      /* Clear the direct mode error flag */
      regs->IFCR = DMA_FLAG_DMEIF0_4 << hdma->StreamIndex;
 800455c:	687b      	ldr	r3, [r7, #4]
 800455e:	6ddb      	ldr	r3, [r3, #92]	@ 0x5c
 8004560:	2204      	movs	r2, #4
 8004562:	409a      	lsls	r2, r3
 8004564:	693b      	ldr	r3, [r7, #16]
 8004566:	609a      	str	r2, [r3, #8]

      /* Update error code */
      hdma->ErrorCode |= HAL_DMA_ERROR_DME;
 8004568:	687b      	ldr	r3, [r7, #4]
 800456a:	6d5b      	ldr	r3, [r3, #84]	@ 0x54
 800456c:	f043 0204 	orr.w	r2, r3, #4
 8004570:	687b      	ldr	r3, [r7, #4]
 8004572:	655a      	str	r2, [r3, #84]	@ 0x54
    }
  }
  /* Half Transfer Complete Interrupt management ******************************/
  if ((tmpisr & (DMA_FLAG_HTIF0_4 << hdma->StreamIndex)) != RESET)
 8004574:	687b      	ldr	r3, [r7, #4]
 8004576:	6ddb      	ldr	r3, [r3, #92]	@ 0x5c
 8004578:	2210      	movs	r2, #16
 800457a:	409a      	lsls	r2, r3
 800457c:	68fb      	ldr	r3, [r7, #12]
 800457e:	4013      	ands	r3, r2
 8004580:	2b00      	cmp	r3, #0
 8004582:	d043      	beq.n	800460c <HAL_DMA_IRQHandler+0x170>
  {
    if(__HAL_DMA_GET_IT_SOURCE(hdma, DMA_IT_HT) != RESET)
 8004584:	687b      	ldr	r3, [r7, #4]
 8004586:	681b      	ldr	r3, [r3, #0]
 8004588:	681b      	ldr	r3, [r3, #0]
 800458a:	f003 0308 	and.w	r3, r3, #8
 800458e:	2b00      	cmp	r3, #0
 8004590:	d03c      	beq.n	800460c <HAL_DMA_IRQHandler+0x170>
    {
      /* Clear the half transfer complete flag */
      regs->IFCR = DMA_FLAG_HTIF0_4 << hdma->StreamIndex;
 8004592:	687b      	ldr	r3, [r7, #4]
 8004594:	6ddb      	ldr	r3, [r3, #92]	@ 0x5c
 8004596:	2210      	movs	r2, #16
 8004598:	409a      	lsls	r2, r3
 800459a:	693b      	ldr	r3, [r7, #16]
 800459c:	609a      	str	r2, [r3, #8]
      
      /* Multi_Buffering mode enabled */
      if(((hdma->Instance->CR) & (uint32_t)(DMA_SxCR_DBM)) != RESET)
 800459e:	687b      	ldr	r3, [r7, #4]
 80045a0:	681b      	ldr	r3, [r3, #0]
 80045a2:	681b      	ldr	r3, [r3, #0]
 80045a4:	f403 2380 	and.w	r3, r3, #262144	@ 0x40000
 80045a8:	2b00      	cmp	r3, #0
 80045aa:	d018      	beq.n	80045de <HAL_DMA_IRQHandler+0x142>
      {
        /* Current memory buffer used is Memory 0 */
        if((hdma->Instance->CR & DMA_SxCR_CT) == RESET)
 80045ac:	687b      	ldr	r3, [r7, #4]
 80045ae:	681b      	ldr	r3, [r3, #0]
 80045b0:	681b      	ldr	r3, [r3, #0]
 80045b2:	f403 2300 	and.w	r3, r3, #524288	@ 0x80000
 80045b6:	2b00      	cmp	r3, #0
 80045b8:	d108      	bne.n	80045cc <HAL_DMA_IRQHandler+0x130>
        {
          if(hdma->XferHalfCpltCallback != NULL)
 80045ba:	687b      	ldr	r3, [r7, #4]
 80045bc:	6c1b      	ldr	r3, [r3, #64]	@ 0x40
 80045be:	2b00      	cmp	r3, #0
 80045c0:	d024      	beq.n	800460c <HAL_DMA_IRQHandler+0x170>
          {
            /* Half transfer callback */
            hdma->XferHalfCpltCallback(hdma);
 80045c2:	687b      	ldr	r3, [r7, #4]
 80045c4:	6c1b      	ldr	r3, [r3, #64]	@ 0x40
 80045c6:	6878      	ldr	r0, [r7, #4]
 80045c8:	4798      	blx	r3
 80045ca:	e01f      	b.n	800460c <HAL_DMA_IRQHandler+0x170>
          }
        }
        /* Current memory buffer used is Memory 1 */
        else
        {
          if(hdma->XferM1HalfCpltCallback != NULL)
 80045cc:	687b      	ldr	r3, [r7, #4]
 80045ce:	6c9b      	ldr	r3, [r3, #72]	@ 0x48
 80045d0:	2b00      	cmp	r3, #0
 80045d2:	d01b      	beq.n	800460c <HAL_DMA_IRQHandler+0x170>
          {
            /* Half transfer callback */
            hdma->XferM1HalfCpltCallback(hdma);
 80045d4:	687b      	ldr	r3, [r7, #4]
 80045d6:	6c9b      	ldr	r3, [r3, #72]	@ 0x48
 80045d8:	6878      	ldr	r0, [r7, #4]
 80045da:	4798      	blx	r3
 80045dc:	e016      	b.n	800460c <HAL_DMA_IRQHandler+0x170>
        }
      }
      else
      {
        /* Disable the half transfer interrupt if the DMA mode is not CIRCULAR */
        if((hdma->Instance->CR & DMA_SxCR_CIRC) == RESET)
 80045de:	687b      	ldr	r3, [r7, #4]
 80045e0:	681b      	ldr	r3, [r3, #0]
 80045e2:	681b      	ldr	r3, [r3, #0]
 80045e4:	f403 7380 	and.w	r3, r3, #256	@ 0x100
 80045e8:	2b00      	cmp	r3, #0
 80045ea:	d107      	bne.n	80045fc <HAL_DMA_IRQHandler+0x160>
        {
          /* Disable the half transfer interrupt */
          hdma->Instance->CR  &= ~(DMA_IT_HT);
 80045ec:	687b      	ldr	r3, [r7, #4]
 80045ee:	681b      	ldr	r3, [r3, #0]
 80045f0:	681a      	ldr	r2, [r3, #0]
 80045f2:	687b      	ldr	r3, [r7, #4]
 80045f4:	681b      	ldr	r3, [r3, #0]
 80045f6:	f022 0208 	bic.w	r2, r2, #8
 80045fa:	601a      	str	r2, [r3, #0]
        }
        
        if(hdma->XferHalfCpltCallback != NULL)
 80045fc:	687b      	ldr	r3, [r7, #4]
 80045fe:	6c1b      	ldr	r3, [r3, #64]	@ 0x40
 8004600:	2b00      	cmp	r3, #0
 8004602:	d003      	beq.n	800460c <HAL_DMA_IRQHandler+0x170>
        {
          /* Half transfer callback */
          hdma->XferHalfCpltCallback(hdma);
 8004604:	687b      	ldr	r3, [r7, #4]
 8004606:	6c1b      	ldr	r3, [r3, #64]	@ 0x40
 8004608:	6878      	ldr	r0, [r7, #4]
 800460a:	4798      	blx	r3
        }
      }
    }
  }
  /* Transfer Complete Interrupt management ***********************************/
  if ((tmpisr & (DMA_FLAG_TCIF0_4 << hdma->StreamIndex)) != RESET)
 800460c:	687b      	ldr	r3, [r7, #4]
 800460e:	6ddb      	ldr	r3, [r3, #92]	@ 0x5c
 8004610:	2220      	movs	r2, #32
 8004612:	409a      	lsls	r2, r3
 8004614:	68fb      	ldr	r3, [r7, #12]
 8004616:	4013      	ands	r3, r2
 8004618:	2b00      	cmp	r3, #0
 800461a:	f000 808f 	beq.w	800473c <HAL_DMA_IRQHandler+0x2a0>
  {
    if(__HAL_DMA_GET_IT_SOURCE(hdma, DMA_IT_TC) != RESET)
 800461e:	687b      	ldr	r3, [r7, #4]
 8004620:	681b      	ldr	r3, [r3, #0]
 8004622:	681b      	ldr	r3, [r3, #0]
 8004624:	f003 0310 	and.w	r3, r3, #16
 8004628:	2b00      	cmp	r3, #0
 800462a:	f000 8087 	beq.w	800473c <HAL_DMA_IRQHandler+0x2a0>
    {
      /* Clear the transfer complete flag */
      regs->IFCR = DMA_FLAG_TCIF0_4 << hdma->StreamIndex;
 800462e:	687b      	ldr	r3, [r7, #4]
 8004630:	6ddb      	ldr	r3, [r3, #92]	@ 0x5c
 8004632:	2220      	movs	r2, #32
 8004634:	409a      	lsls	r2, r3
 8004636:	693b      	ldr	r3, [r7, #16]
 8004638:	609a      	str	r2, [r3, #8]
      
      if(HAL_DMA_STATE_ABORT == hdma->State)
 800463a:	687b      	ldr	r3, [r7, #4]
 800463c:	f893 3035 	ldrb.w	r3, [r3, #53]	@ 0x35
 8004640:	b2db      	uxtb	r3, r3
 8004642:	2b05      	cmp	r3, #5
 8004644:	d136      	bne.n	80046b4 <HAL_DMA_IRQHandler+0x218>
      {
        /* Disable all the transfer interrupts */
        hdma->Instance->CR  &= ~(DMA_IT_TC | DMA_IT_TE | DMA_IT_DME);
 8004646:	687b      	ldr	r3, [r7, #4]
 8004648:	681b      	ldr	r3, [r3, #0]
 800464a:	681a      	ldr	r2, [r3, #0]
 800464c:	687b      	ldr	r3, [r7, #4]
 800464e:	681b      	ldr	r3, [r3, #0]
 8004650:	f022 0216 	bic.w	r2, r2, #22
 8004654:	601a      	str	r2, [r3, #0]
        hdma->Instance->FCR &= ~(DMA_IT_FE);
 8004656:	687b      	ldr	r3, [r7, #4]
 8004658:	681b      	ldr	r3, [r3, #0]
 800465a:	695a      	ldr	r2, [r3, #20]
 800465c:	687b      	ldr	r3, [r7, #4]
 800465e:	681b      	ldr	r3, [r3, #0]
 8004660:	f022 0280 	bic.w	r2, r2, #128	@ 0x80
 8004664:	615a      	str	r2, [r3, #20]
        
        if((hdma->XferHalfCpltCallback != NULL) || (hdma->XferM1HalfCpltCallback != NULL))
 8004666:	687b      	ldr	r3, [r7, #4]
 8004668:	6c1b      	ldr	r3, [r3, #64]	@ 0x40
 800466a:	2b00      	cmp	r3, #0
 800466c:	d103      	bne.n	8004676 <HAL_DMA_IRQHandler+0x1da>
 800466e:	687b      	ldr	r3, [r7, #4]
 8004670:	6c9b      	ldr	r3, [r3, #72]	@ 0x48
 8004672:	2b00      	cmp	r3, #0
 8004674:	d007      	beq.n	8004686 <HAL_DMA_IRQHandler+0x1ea>
        {
          hdma->Instance->CR  &= ~(DMA_IT_HT);
 8004676:	687b      	ldr	r3, [r7, #4]
 8004678:	681b      	ldr	r3, [r3, #0]
 800467a:	681a      	ldr	r2, [r3, #0]
 800467c:	687b      	ldr	r3, [r7, #4]
 800467e:	681b      	ldr	r3, [r3, #0]
 8004680:	f022 0208 	bic.w	r2, r2, #8
 8004684:	601a      	str	r2, [r3, #0]
        }

        /* Clear all interrupt flags at correct offset within the register */
        regs->IFCR = 0x3FU << hdma->StreamIndex;
 8004686:	687b      	ldr	r3, [r7, #4]
 8004688:	6ddb      	ldr	r3, [r3, #92]	@ 0x5c
 800468a:	223f      	movs	r2, #63	@ 0x3f
 800468c:	409a      	lsls	r2, r3
 800468e:	693b      	ldr	r3, [r7, #16]
 8004690:	609a      	str	r2, [r3, #8]

        /* Change the DMA state */
        hdma->State = HAL_DMA_STATE_READY;
 8004692:	687b      	ldr	r3, [r7, #4]
 8004694:	2201      	movs	r2, #1
 8004696:	f883 2035 	strb.w	r2, [r3, #53]	@ 0x35

        /* Process Unlocked */
        __HAL_UNLOCK(hdma);
 800469a:	687b      	ldr	r3, [r7, #4]
 800469c:	2200      	movs	r2, #0
 800469e:	f883 2034 	strb.w	r2, [r3, #52]	@ 0x34

        if(hdma->XferAbortCallback != NULL)
 80046a2:	687b      	ldr	r3, [r7, #4]
 80046a4:	6d1b      	ldr	r3, [r3, #80]	@ 0x50
 80046a6:	2b00      	cmp	r3, #0
 80046a8:	d07e      	beq.n	80047a8 <HAL_DMA_IRQHandler+0x30c>
        {
          hdma->XferAbortCallback(hdma);
 80046aa:	687b      	ldr	r3, [r7, #4]
 80046ac:	6d1b      	ldr	r3, [r3, #80]	@ 0x50
 80046ae:	6878      	ldr	r0, [r7, #4]
 80046b0:	4798      	blx	r3
        }
        return;
 80046b2:	e079      	b.n	80047a8 <HAL_DMA_IRQHandler+0x30c>
      }

      if(((hdma->Instance->CR) & (uint32_t)(DMA_SxCR_DBM)) != RESET)
 80046b4:	687b      	ldr	r3, [r7, #4]
 80046b6:	681b      	ldr	r3, [r3, #0]
 80046b8:	681b      	ldr	r3, [r3, #0]
 80046ba:	f403 2380 	and.w	r3, r3, #262144	@ 0x40000
 80046be:	2b00      	cmp	r3, #0
 80046c0:	d01d      	beq.n	80046fe <HAL_DMA_IRQHandler+0x262>
      {
        /* Current memory buffer used is Memory 0 */
        if((hdma->Instance->CR & DMA_SxCR_CT) == RESET)
 80046c2:	687b      	ldr	r3, [r7, #4]
 80046c4:	681b      	ldr	r3, [r3, #0]
 80046c6:	681b      	ldr	r3, [r3, #0]
 80046c8:	f403 2300 	and.w	r3, r3, #524288	@ 0x80000
 80046cc:	2b00      	cmp	r3, #0
 80046ce:	d10d      	bne.n	80046ec <HAL_DMA_IRQHandler+0x250>
        {
          if(hdma->XferM1CpltCallback != NULL)
 80046d0:	687b      	ldr	r3, [r7, #4]
 80046d2:	6c5b      	ldr	r3, [r3, #68]	@ 0x44
 80046d4:	2b00      	cmp	r3, #0
 80046d6:	d031      	beq.n	800473c <HAL_DMA_IRQHandler+0x2a0>
          {
            /* Transfer complete Callback for memory1 */
            hdma->XferM1CpltCallback(hdma);
 80046d8:	687b      	ldr	r3, [r7, #4]
 80046da:	6c5b      	ldr	r3, [r3, #68]	@ 0x44
 80046dc:	6878      	ldr	r0, [r7, #4]
 80046de:	4798      	blx	r3
 80046e0:	e02c      	b.n	800473c <HAL_DMA_IRQHandler+0x2a0>
 80046e2:	bf00      	nop
 80046e4:	2000001c 	.word	0x2000001c
 80046e8:	1b4e81b5 	.word	0x1b4e81b5
          }
        }
        /* Current memory buffer used is Memory 1 */
        else
        {
          if(hdma->XferCpltCallback != NULL)
 80046ec:	687b      	ldr	r3, [r7, #4]
 80046ee:	6bdb      	ldr	r3, [r3, #60]	@ 0x3c
 80046f0:	2b00      	cmp	r3, #0
 80046f2:	d023      	beq.n	800473c <HAL_DMA_IRQHandler+0x2a0>
          {
            /* Transfer complete Callback for memory0 */
            hdma->XferCpltCallback(hdma);
 80046f4:	687b      	ldr	r3, [r7, #4]
 80046f6:	6bdb      	ldr	r3, [r3, #60]	@ 0x3c
 80046f8:	6878      	ldr	r0, [r7, #4]
 80046fa:	4798      	blx	r3
 80046fc:	e01e      	b.n	800473c <HAL_DMA_IRQHandler+0x2a0>
        }
      }
      /* Disable the transfer complete interrupt if the DMA mode is not CIRCULAR */
      else
      {
        if((hdma->Instance->CR & DMA_SxCR_CIRC) == RESET)
 80046fe:	687b      	ldr	r3, [r7, #4]
 8004700:	681b      	ldr	r3, [r3, #0]
 8004702:	681b      	ldr	r3, [r3, #0]
 8004704:	f403 7380 	and.w	r3, r3, #256	@ 0x100
 8004708:	2b00      	cmp	r3, #0
 800470a:	d10f      	bne.n	800472c <HAL_DMA_IRQHandler+0x290>
        {
          /* Disable the transfer complete interrupt */
          hdma->Instance->CR  &= ~(DMA_IT_TC);
 800470c:	687b      	ldr	r3, [r7, #4]
 800470e:	681b      	ldr	r3, [r3, #0]
 8004710:	681a      	ldr	r2, [r3, #0]
 8004712:	687b      	ldr	r3, [r7, #4]
 8004714:	681b      	ldr	r3, [r3, #0]
 8004716:	f022 0210 	bic.w	r2, r2, #16
 800471a:	601a      	str	r2, [r3, #0]

          /* Change the DMA state */
          hdma->State = HAL_DMA_STATE_READY;
 800471c:	687b      	ldr	r3, [r7, #4]
 800471e:	2201      	movs	r2, #1
 8004720:	f883 2035 	strb.w	r2, [r3, #53]	@ 0x35

          /* Process Unlocked */
          __HAL_UNLOCK(hdma);
 8004724:	687b      	ldr	r3, [r7, #4]
 8004726:	2200      	movs	r2, #0
 8004728:	f883 2034 	strb.w	r2, [r3, #52]	@ 0x34
        }

        if(hdma->XferCpltCallback != NULL)
 800472c:	687b      	ldr	r3, [r7, #4]
 800472e:	6bdb      	ldr	r3, [r3, #60]	@ 0x3c
 8004730:	2b00      	cmp	r3, #0
 8004732:	d003      	beq.n	800473c <HAL_DMA_IRQHandler+0x2a0>
        {
          /* Transfer complete callback */
          hdma->XferCpltCallback(hdma);
 8004734:	687b      	ldr	r3, [r7, #4]
 8004736:	6bdb      	ldr	r3, [r3, #60]	@ 0x3c
 8004738:	6878      	ldr	r0, [r7, #4]
 800473a:	4798      	blx	r3
      }
    }
  }
  
  /* manage error case */
  if(hdma->ErrorCode != HAL_DMA_ERROR_NONE)
 800473c:	687b      	ldr	r3, [r7, #4]
 800473e:	6d5b      	ldr	r3, [r3, #84]	@ 0x54
 8004740:	2b00      	cmp	r3, #0
 8004742:	d032      	beq.n	80047aa <HAL_DMA_IRQHandler+0x30e>
  {
    if((hdma->ErrorCode & HAL_DMA_ERROR_TE) != RESET)
 8004744:	687b      	ldr	r3, [r7, #4]
 8004746:	6d5b      	ldr	r3, [r3, #84]	@ 0x54
 8004748:	f003 0301 	and.w	r3, r3, #1
 800474c:	2b00      	cmp	r3, #0
 800474e:	d022      	beq.n	8004796 <HAL_DMA_IRQHandler+0x2fa>
    {
      hdma->State = HAL_DMA_STATE_ABORT;
 8004750:	687b      	ldr	r3, [r7, #4]
 8004752:	2205      	movs	r2, #5
 8004754:	f883 2035 	strb.w	r2, [r3, #53]	@ 0x35

      /* Disable the stream */
      __HAL_DMA_DISABLE(hdma);
 8004758:	687b      	ldr	r3, [r7, #4]
 800475a:	681b      	ldr	r3, [r3, #0]
 800475c:	681a      	ldr	r2, [r3, #0]
 800475e:	687b      	ldr	r3, [r7, #4]
 8004760:	681b      	ldr	r3, [r3, #0]
 8004762:	f022 0201 	bic.w	r2, r2, #1
 8004766:	601a      	str	r2, [r3, #0]

      do
      {
        if (++count > timeout)
 8004768:	68bb      	ldr	r3, [r7, #8]
 800476a:	3301      	adds	r3, #1
 800476c:	60bb      	str	r3, [r7, #8]
 800476e:	697a      	ldr	r2, [r7, #20]
 8004770:	429a      	cmp	r2, r3
 8004772:	d307      	bcc.n	8004784 <HAL_DMA_IRQHandler+0x2e8>
        {
          break;
        }
      }
      while((hdma->Instance->CR & DMA_SxCR_EN) != RESET);
 8004774:	687b      	ldr	r3, [r7, #4]
 8004776:	681b      	ldr	r3, [r3, #0]
 8004778:	681b      	ldr	r3, [r3, #0]
 800477a:	f003 0301 	and.w	r3, r3, #1
 800477e:	2b00      	cmp	r3, #0
 8004780:	d1f2      	bne.n	8004768 <HAL_DMA_IRQHandler+0x2cc>
 8004782:	e000      	b.n	8004786 <HAL_DMA_IRQHandler+0x2ea>
          break;
 8004784:	bf00      	nop

      /* Change the DMA state */
      hdma->State = HAL_DMA_STATE_READY;
 8004786:	687b      	ldr	r3, [r7, #4]
 8004788:	2201      	movs	r2, #1
 800478a:	f883 2035 	strb.w	r2, [r3, #53]	@ 0x35

      /* Process Unlocked */
      __HAL_UNLOCK(hdma);
 800478e:	687b      	ldr	r3, [r7, #4]
 8004790:	2200      	movs	r2, #0
 8004792:	f883 2034 	strb.w	r2, [r3, #52]	@ 0x34
    }

    if(hdma->XferErrorCallback != NULL)
 8004796:	687b      	ldr	r3, [r7, #4]
 8004798:	6cdb      	ldr	r3, [r3, #76]	@ 0x4c
 800479a:	2b00      	cmp	r3, #0
 800479c:	d005      	beq.n	80047aa <HAL_DMA_IRQHandler+0x30e>
    {
      /* Transfer error callback */
      hdma->XferErrorCallback(hdma);
 800479e:	687b      	ldr	r3, [r7, #4]
 80047a0:	6cdb      	ldr	r3, [r3, #76]	@ 0x4c
 80047a2:	6878      	ldr	r0, [r7, #4]
 80047a4:	4798      	blx	r3
 80047a6:	e000      	b.n	80047aa <HAL_DMA_IRQHandler+0x30e>
        return;
 80047a8:	bf00      	nop
    }
  }
}
 80047aa:	3718      	adds	r7, #24
 80047ac:	46bd      	mov	sp, r7
 80047ae:	bd80      	pop	{r7, pc}

080047b0 <DMA_SetConfig>:
  * @param  DstAddress The destination memory Buffer address
  * @param  DataLength The length of data to be transferred from source to destination
  * @retval HAL status
  */
static void DMA_SetConfig(DMA_HandleTypeDef *hdma, uint32_t SrcAddress, uint32_t DstAddress, uint32_t DataLength)
{
 80047b0:	b480      	push	{r7}
 80047b2:	b085      	sub	sp, #20
 80047b4:	af00      	add	r7, sp, #0
 80047b6:	60f8      	str	r0, [r7, #12]
 80047b8:	60b9      	str	r1, [r7, #8]
 80047ba:	607a      	str	r2, [r7, #4]
 80047bc:	603b      	str	r3, [r7, #0]
  /* Clear DBM bit */
  hdma->Instance->CR &= (uint32_t)(~DMA_SxCR_DBM);
 80047be:	68fb      	ldr	r3, [r7, #12]
 80047c0:	681b      	ldr	r3, [r3, #0]
 80047c2:	681a      	ldr	r2, [r3, #0]
 80047c4:	68fb      	ldr	r3, [r7, #12]
 80047c6:	681b      	ldr	r3, [r3, #0]
 80047c8:	f422 2280 	bic.w	r2, r2, #262144	@ 0x40000
 80047cc:	601a      	str	r2, [r3, #0]

  /* Configure DMA Stream data length */
  hdma->Instance->NDTR = DataLength;
 80047ce:	68fb      	ldr	r3, [r7, #12]
 80047d0:	681b      	ldr	r3, [r3, #0]
 80047d2:	683a      	ldr	r2, [r7, #0]
 80047d4:	605a      	str	r2, [r3, #4]

  /* Memory to Peripheral */
  if((hdma->Init.Direction) == DMA_MEMORY_TO_PERIPH)
 80047d6:	68fb      	ldr	r3, [r7, #12]
 80047d8:	689b      	ldr	r3, [r3, #8]
 80047da:	2b40      	cmp	r3, #64	@ 0x40
 80047dc:	d108      	bne.n	80047f0 <DMA_SetConfig+0x40>
  {
    /* Configure DMA Stream destination address */
    hdma->Instance->PAR = DstAddress;
 80047de:	68fb      	ldr	r3, [r7, #12]
 80047e0:	681b      	ldr	r3, [r3, #0]
 80047e2:	687a      	ldr	r2, [r7, #4]
 80047e4:	609a      	str	r2, [r3, #8]

    /* Configure DMA Stream source address */
    hdma->Instance->M0AR = SrcAddress;
 80047e6:	68fb      	ldr	r3, [r7, #12]
 80047e8:	681b      	ldr	r3, [r3, #0]
 80047ea:	68ba      	ldr	r2, [r7, #8]
 80047ec:	60da      	str	r2, [r3, #12]
    hdma->Instance->PAR = SrcAddress;

    /* Configure DMA Stream destination address */
    hdma->Instance->M0AR = DstAddress;
  }
}
 80047ee:	e007      	b.n	8004800 <DMA_SetConfig+0x50>
    hdma->Instance->PAR = SrcAddress;
 80047f0:	68fb      	ldr	r3, [r7, #12]
 80047f2:	681b      	ldr	r3, [r3, #0]
 80047f4:	68ba      	ldr	r2, [r7, #8]
 80047f6:	609a      	str	r2, [r3, #8]
    hdma->Instance->M0AR = DstAddress;
 80047f8:	68fb      	ldr	r3, [r7, #12]
 80047fa:	681b      	ldr	r3, [r3, #0]
 80047fc:	687a      	ldr	r2, [r7, #4]
 80047fe:	60da      	str	r2, [r3, #12]
}
 8004800:	bf00      	nop
 8004802:	3714      	adds	r7, #20
 8004804:	46bd      	mov	sp, r7
 8004806:	f85d 7b04 	ldr.w	r7, [sp], #4
 800480a:	4770      	bx	lr

0800480c <DMA_CalcBaseAndBitshift>:
  * @param  hdma       pointer to a DMA_HandleTypeDef structure that contains
  *                     the configuration information for the specified DMA Stream. 
  * @retval Stream base address
  */
static uint32_t DMA_CalcBaseAndBitshift(DMA_HandleTypeDef *hdma)
{
 800480c:	b480      	push	{r7}
 800480e:	b085      	sub	sp, #20
 8004810:	af00      	add	r7, sp, #0
 8004812:	6078      	str	r0, [r7, #4]
  uint32_t stream_number = (((uint32_t)hdma->Instance & 0xFFU) - 16U) / 24U;
 8004814:	687b      	ldr	r3, [r7, #4]
 8004816:	681b      	ldr	r3, [r3, #0]
 8004818:	b2db      	uxtb	r3, r3
 800481a:	3b10      	subs	r3, #16
 800481c:	4a14      	ldr	r2, [pc, #80]	@ (8004870 <DMA_CalcBaseAndBitshift+0x64>)
 800481e:	fba2 2303 	umull	r2, r3, r2, r3
 8004822:	091b      	lsrs	r3, r3, #4
 8004824:	60fb      	str	r3, [r7, #12]
  
  /* lookup table for necessary bitshift of flags within status registers */
  static const uint8_t flagBitshiftOffset[8U] = {0U, 6U, 16U, 22U, 0U, 6U, 16U, 22U};
  hdma->StreamIndex = flagBitshiftOffset[stream_number];
 8004826:	4a13      	ldr	r2, [pc, #76]	@ (8004874 <DMA_CalcBaseAndBitshift+0x68>)
 8004828:	68fb      	ldr	r3, [r7, #12]
 800482a:	4413      	add	r3, r2
 800482c:	781b      	ldrb	r3, [r3, #0]
 800482e:	461a      	mov	r2, r3
 8004830:	687b      	ldr	r3, [r7, #4]
 8004832:	65da      	str	r2, [r3, #92]	@ 0x5c
  
  if (stream_number > 3U)
 8004834:	68fb      	ldr	r3, [r7, #12]
 8004836:	2b03      	cmp	r3, #3
 8004838:	d909      	bls.n	800484e <DMA_CalcBaseAndBitshift+0x42>
  {
    /* return pointer to HISR and HIFCR */
    hdma->StreamBaseAddress = (((uint32_t)hdma->Instance & (uint32_t)(~0x3FFU)) + 4U);
 800483a:	687b      	ldr	r3, [r7, #4]
 800483c:	681b      	ldr	r3, [r3, #0]
 800483e:	f423 737f 	bic.w	r3, r3, #1020	@ 0x3fc
 8004842:	f023 0303 	bic.w	r3, r3, #3
 8004846:	1d1a      	adds	r2, r3, #4
 8004848:	687b      	ldr	r3, [r7, #4]
 800484a:	659a      	str	r2, [r3, #88]	@ 0x58
 800484c:	e007      	b.n	800485e <DMA_CalcBaseAndBitshift+0x52>
  }
  else
  {
    /* return pointer to LISR and LIFCR */
    hdma->StreamBaseAddress = ((uint32_t)hdma->Instance & (uint32_t)(~0x3FFU));
 800484e:	687b      	ldr	r3, [r7, #4]
 8004850:	681b      	ldr	r3, [r3, #0]
 8004852:	f423 737f 	bic.w	r3, r3, #1020	@ 0x3fc
 8004856:	f023 0303 	bic.w	r3, r3, #3
 800485a:	687a      	ldr	r2, [r7, #4]
 800485c:	6593      	str	r3, [r2, #88]	@ 0x58
  }
  
  return hdma->StreamBaseAddress;
 800485e:	687b      	ldr	r3, [r7, #4]
 8004860:	6d9b      	ldr	r3, [r3, #88]	@ 0x58
}
 8004862:	4618      	mov	r0, r3
 8004864:	3714      	adds	r7, #20
 8004866:	46bd      	mov	sp, r7
 8004868:	f85d 7b04 	ldr.w	r7, [sp], #4
 800486c:	4770      	bx	lr
 800486e:	bf00      	nop
 8004870:	aaaaaaab 	.word	0xaaaaaaab
 8004874:	080099d0 	.word	0x080099d0

08004878 <DMA_CheckFifoParam>:
  * @param  hdma       pointer to a DMA_HandleTypeDef structure that contains
  *                     the configuration information for the specified DMA Stream. 
  * @retval HAL status
  */
static HAL_StatusTypeDef DMA_CheckFifoParam(DMA_HandleTypeDef *hdma)
{
 8004878:	b480      	push	{r7}
 800487a:	b085      	sub	sp, #20
 800487c:	af00      	add	r7, sp, #0
 800487e:	6078      	str	r0, [r7, #4]
  HAL_StatusTypeDef status = HAL_OK;
 8004880:	2300      	movs	r3, #0
 8004882:	73fb      	strb	r3, [r7, #15]
  uint32_t tmp = hdma->Init.FIFOThreshold;
 8004884:	687b      	ldr	r3, [r7, #4]
 8004886:	6a9b      	ldr	r3, [r3, #40]	@ 0x28
 8004888:	60bb      	str	r3, [r7, #8]
  
  /* Memory Data size equal to Byte */
  if(hdma->Init.MemDataAlignment == DMA_MDATAALIGN_BYTE)
 800488a:	687b      	ldr	r3, [r7, #4]
 800488c:	699b      	ldr	r3, [r3, #24]
 800488e:	2b00      	cmp	r3, #0
 8004890:	d11f      	bne.n	80048d2 <DMA_CheckFifoParam+0x5a>
  {
    switch (tmp)
 8004892:	68bb      	ldr	r3, [r7, #8]
 8004894:	2b03      	cmp	r3, #3
 8004896:	d856      	bhi.n	8004946 <DMA_CheckFifoParam+0xce>
 8004898:	a201      	add	r2, pc, #4	@ (adr r2, 80048a0 <DMA_CheckFifoParam+0x28>)
 800489a:	f852 f023 	ldr.w	pc, [r2, r3, lsl #2]
 800489e:	bf00      	nop
 80048a0:	080048b1 	.word	0x080048b1
 80048a4:	080048c3 	.word	0x080048c3
 80048a8:	080048b1 	.word	0x080048b1
 80048ac:	08004947 	.word	0x08004947
    {
    case DMA_FIFO_THRESHOLD_1QUARTERFULL:
    case DMA_FIFO_THRESHOLD_3QUARTERSFULL:
      if ((hdma->Init.MemBurst & DMA_SxCR_MBURST_1) == DMA_SxCR_MBURST_1)
 80048b0:	687b      	ldr	r3, [r7, #4]
 80048b2:	6adb      	ldr	r3, [r3, #44]	@ 0x2c
 80048b4:	f003 7380 	and.w	r3, r3, #16777216	@ 0x1000000
 80048b8:	2b00      	cmp	r3, #0
 80048ba:	d046      	beq.n	800494a <DMA_CheckFifoParam+0xd2>
      {
        status = HAL_ERROR;
 80048bc:	2301      	movs	r3, #1
 80048be:	73fb      	strb	r3, [r7, #15]
      }
      break;
 80048c0:	e043      	b.n	800494a <DMA_CheckFifoParam+0xd2>
    case DMA_FIFO_THRESHOLD_HALFFULL:
      if (hdma->Init.MemBurst == DMA_MBURST_INC16)
 80048c2:	687b      	ldr	r3, [r7, #4]
 80048c4:	6adb      	ldr	r3, [r3, #44]	@ 0x2c
 80048c6:	f1b3 7fc0 	cmp.w	r3, #25165824	@ 0x1800000
 80048ca:	d140      	bne.n	800494e <DMA_CheckFifoParam+0xd6>
      {
        status = HAL_ERROR;
 80048cc:	2301      	movs	r3, #1
 80048ce:	73fb      	strb	r3, [r7, #15]
      }
      break;
 80048d0:	e03d      	b.n	800494e <DMA_CheckFifoParam+0xd6>
      break;
    }
  }
  
  /* Memory Data size equal to Half-Word */
  else if (hdma->Init.MemDataAlignment == DMA_MDATAALIGN_HALFWORD)
 80048d2:	687b      	ldr	r3, [r7, #4]
 80048d4:	699b      	ldr	r3, [r3, #24]
 80048d6:	f5b3 5f00 	cmp.w	r3, #8192	@ 0x2000
 80048da:	d121      	bne.n	8004920 <DMA_CheckFifoParam+0xa8>
  {
    switch (tmp)
 80048dc:	68bb      	ldr	r3, [r7, #8]
 80048de:	2b03      	cmp	r3, #3
 80048e0:	d837      	bhi.n	8004952 <DMA_CheckFifoParam+0xda>
 80048e2:	a201      	add	r2, pc, #4	@ (adr r2, 80048e8 <DMA_CheckFifoParam+0x70>)
 80048e4:	f852 f023 	ldr.w	pc, [r2, r3, lsl #2]
 80048e8:	080048f9 	.word	0x080048f9
 80048ec:	080048ff 	.word	0x080048ff
 80048f0:	080048f9 	.word	0x080048f9
 80048f4:	08004911 	.word	0x08004911
    {
    case DMA_FIFO_THRESHOLD_1QUARTERFULL:
    case DMA_FIFO_THRESHOLD_3QUARTERSFULL:
      status = HAL_ERROR;
 80048f8:	2301      	movs	r3, #1
 80048fa:	73fb      	strb	r3, [r7, #15]
      break;
 80048fc:	e030      	b.n	8004960 <DMA_CheckFifoParam+0xe8>
    case DMA_FIFO_THRESHOLD_HALFFULL:
      if ((hdma->Init.MemBurst & DMA_SxCR_MBURST_1) == DMA_SxCR_MBURST_1)
 80048fe:	687b      	ldr	r3, [r7, #4]
 8004900:	6adb      	ldr	r3, [r3, #44]	@ 0x2c
 8004902:	f003 7380 	and.w	r3, r3, #16777216	@ 0x1000000
 8004906:	2b00      	cmp	r3, #0
 8004908:	d025      	beq.n	8004956 <DMA_CheckFifoParam+0xde>
      {
        status = HAL_ERROR;
 800490a:	2301      	movs	r3, #1
 800490c:	73fb      	strb	r3, [r7, #15]
      }
      break;
 800490e:	e022      	b.n	8004956 <DMA_CheckFifoParam+0xde>
    case DMA_FIFO_THRESHOLD_FULL:
      if (hdma->Init.MemBurst == DMA_MBURST_INC16)
 8004910:	687b      	ldr	r3, [r7, #4]
 8004912:	6adb      	ldr	r3, [r3, #44]	@ 0x2c
 8004914:	f1b3 7fc0 	cmp.w	r3, #25165824	@ 0x1800000
 8004918:	d11f      	bne.n	800495a <DMA_CheckFifoParam+0xe2>
      {
        status = HAL_ERROR;
 800491a:	2301      	movs	r3, #1
 800491c:	73fb      	strb	r3, [r7, #15]
      }
      break;   
 800491e:	e01c      	b.n	800495a <DMA_CheckFifoParam+0xe2>
  }
  
  /* Memory Data size equal to Word */
  else
  {
    switch (tmp)
 8004920:	68bb      	ldr	r3, [r7, #8]
 8004922:	2b02      	cmp	r3, #2
 8004924:	d903      	bls.n	800492e <DMA_CheckFifoParam+0xb6>
 8004926:	68bb      	ldr	r3, [r7, #8]
 8004928:	2b03      	cmp	r3, #3
 800492a:	d003      	beq.n	8004934 <DMA_CheckFifoParam+0xbc>
      {
        status = HAL_ERROR;
      }
      break;
    default:
      break;
 800492c:	e018      	b.n	8004960 <DMA_CheckFifoParam+0xe8>
      status = HAL_ERROR;
 800492e:	2301      	movs	r3, #1
 8004930:	73fb      	strb	r3, [r7, #15]
      break;
 8004932:	e015      	b.n	8004960 <DMA_CheckFifoParam+0xe8>
      if ((hdma->Init.MemBurst & DMA_SxCR_MBURST_1) == DMA_SxCR_MBURST_1)
 8004934:	687b      	ldr	r3, [r7, #4]
 8004936:	6adb      	ldr	r3, [r3, #44]	@ 0x2c
 8004938:	f003 7380 	and.w	r3, r3, #16777216	@ 0x1000000
 800493c:	2b00      	cmp	r3, #0
 800493e:	d00e      	beq.n	800495e <DMA_CheckFifoParam+0xe6>
        status = HAL_ERROR;
 8004940:	2301      	movs	r3, #1
 8004942:	73fb      	strb	r3, [r7, #15]
      break;
 8004944:	e00b      	b.n	800495e <DMA_CheckFifoParam+0xe6>
      break;
 8004946:	bf00      	nop
 8004948:	e00a      	b.n	8004960 <DMA_CheckFifoParam+0xe8>
      break;
 800494a:	bf00      	nop
 800494c:	e008      	b.n	8004960 <DMA_CheckFifoParam+0xe8>
      break;
 800494e:	bf00      	nop
 8004950:	e006      	b.n	8004960 <DMA_CheckFifoParam+0xe8>
      break;
 8004952:	bf00      	nop
 8004954:	e004      	b.n	8004960 <DMA_CheckFifoParam+0xe8>
      break;
 8004956:	bf00      	nop
 8004958:	e002      	b.n	8004960 <DMA_CheckFifoParam+0xe8>
      break;   
 800495a:	bf00      	nop
 800495c:	e000      	b.n	8004960 <DMA_CheckFifoParam+0xe8>
      break;
 800495e:	bf00      	nop
    }
  } 
  
  return status; 
 8004960:	7bfb      	ldrb	r3, [r7, #15]
}
 8004962:	4618      	mov	r0, r3
 8004964:	3714      	adds	r7, #20
 8004966:	46bd      	mov	sp, r7
 8004968:	f85d 7b04 	ldr.w	r7, [sp], #4
 800496c:	4770      	bx	lr
 800496e:	bf00      	nop

08004970 <HAL_GPIO_Init>:
  * @param  GPIO_Init pointer to a GPIO_InitTypeDef structure that contains
  *         the configuration information for the specified GPIO peripheral.
  * @retval None
  */
void HAL_GPIO_Init(GPIO_TypeDef  *GPIOx, GPIO_InitTypeDef *GPIO_Init)
{
 8004970:	b480      	push	{r7}
 8004972:	b089      	sub	sp, #36	@ 0x24
 8004974:	af00      	add	r7, sp, #0
 8004976:	6078      	str	r0, [r7, #4]
 8004978:	6039      	str	r1, [r7, #0]
  uint32_t position;
  uint32_t ioposition = 0x00U;
 800497a:	2300      	movs	r3, #0
 800497c:	617b      	str	r3, [r7, #20]
  uint32_t iocurrent = 0x00U;
 800497e:	2300      	movs	r3, #0
 8004980:	613b      	str	r3, [r7, #16]
  uint32_t temp = 0x00U;
 8004982:	2300      	movs	r3, #0
 8004984:	61bb      	str	r3, [r7, #24]
  assert_param(IS_GPIO_ALL_INSTANCE(GPIOx));
  assert_param(IS_GPIO_PIN(GPIO_Init->Pin));
  assert_param(IS_GPIO_MODE(GPIO_Init->Mode));

  /* Configure the port pins */
  for(position = 0U; position < GPIO_NUMBER; position++)
 8004986:	2300      	movs	r3, #0
 8004988:	61fb      	str	r3, [r7, #28]
 800498a:	e177      	b.n	8004c7c <HAL_GPIO_Init+0x30c>
  {
    /* Get the IO position */
    ioposition = 0x01U << position;
 800498c:	2201      	movs	r2, #1
 800498e:	69fb      	ldr	r3, [r7, #28]
 8004990:	fa02 f303 	lsl.w	r3, r2, r3
 8004994:	617b      	str	r3, [r7, #20]
    /* Get the current IO position */
    iocurrent = (uint32_t)(GPIO_Init->Pin) & ioposition;
 8004996:	683b      	ldr	r3, [r7, #0]
 8004998:	681b      	ldr	r3, [r3, #0]
 800499a:	697a      	ldr	r2, [r7, #20]
 800499c:	4013      	ands	r3, r2
 800499e:	613b      	str	r3, [r7, #16]

    if(iocurrent == ioposition)
 80049a0:	693a      	ldr	r2, [r7, #16]
 80049a2:	697b      	ldr	r3, [r7, #20]
 80049a4:	429a      	cmp	r2, r3
 80049a6:	f040 8166 	bne.w	8004c76 <HAL_GPIO_Init+0x306>
    {
      /*--------------------- GPIO Mode Configuration ------------------------*/
      /* In case of Output or Alternate function mode selection */
      if(((GPIO_Init->Mode & GPIO_MODE) == MODE_OUTPUT) || \
 80049aa:	683b      	ldr	r3, [r7, #0]
 80049ac:	685b      	ldr	r3, [r3, #4]
 80049ae:	f003 0303 	and.w	r3, r3, #3
 80049b2:	2b01      	cmp	r3, #1
 80049b4:	d005      	beq.n	80049c2 <HAL_GPIO_Init+0x52>
          (GPIO_Init->Mode & GPIO_MODE) == MODE_AF)
 80049b6:	683b      	ldr	r3, [r7, #0]
 80049b8:	685b      	ldr	r3, [r3, #4]
 80049ba:	f003 0303 	and.w	r3, r3, #3
      if(((GPIO_Init->Mode & GPIO_MODE) == MODE_OUTPUT) || \
 80049be:	2b02      	cmp	r3, #2
 80049c0:	d130      	bne.n	8004a24 <HAL_GPIO_Init+0xb4>
      {
        /* Check the Speed parameter */
        assert_param(IS_GPIO_SPEED(GPIO_Init->Speed));
        /* Configure the IO Speed */
        temp = GPIOx->OSPEEDR; 
 80049c2:	687b      	ldr	r3, [r7, #4]
 80049c4:	689b      	ldr	r3, [r3, #8]
 80049c6:	61bb      	str	r3, [r7, #24]
        temp &= ~(GPIO_OSPEEDER_OSPEEDR0 << (position * 2U));
 80049c8:	69fb      	ldr	r3, [r7, #28]
 80049ca:	005b      	lsls	r3, r3, #1
 80049cc:	2203      	movs	r2, #3
 80049ce:	fa02 f303 	lsl.w	r3, r2, r3
 80049d2:	43db      	mvns	r3, r3
 80049d4:	69ba      	ldr	r2, [r7, #24]
 80049d6:	4013      	ands	r3, r2
 80049d8:	61bb      	str	r3, [r7, #24]
        temp |= (GPIO_Init->Speed << (position * 2U));
 80049da:	683b      	ldr	r3, [r7, #0]
 80049dc:	68da      	ldr	r2, [r3, #12]
 80049de:	69fb      	ldr	r3, [r7, #28]
 80049e0:	005b      	lsls	r3, r3, #1
 80049e2:	fa02 f303 	lsl.w	r3, r2, r3
 80049e6:	69ba      	ldr	r2, [r7, #24]
 80049e8:	4313      	orrs	r3, r2
 80049ea:	61bb      	str	r3, [r7, #24]
        GPIOx->OSPEEDR = temp;
 80049ec:	687b      	ldr	r3, [r7, #4]
 80049ee:	69ba      	ldr	r2, [r7, #24]
 80049f0:	609a      	str	r2, [r3, #8]

        /* Configure the IO Output Type */
        temp = GPIOx->OTYPER;
 80049f2:	687b      	ldr	r3, [r7, #4]
 80049f4:	685b      	ldr	r3, [r3, #4]
 80049f6:	61bb      	str	r3, [r7, #24]
        temp &= ~(GPIO_OTYPER_OT_0 << position) ;
 80049f8:	2201      	movs	r2, #1
 80049fa:	69fb      	ldr	r3, [r7, #28]
 80049fc:	fa02 f303 	lsl.w	r3, r2, r3
 8004a00:	43db      	mvns	r3, r3
 8004a02:	69ba      	ldr	r2, [r7, #24]
 8004a04:	4013      	ands	r3, r2
 8004a06:	61bb      	str	r3, [r7, #24]
        temp |= (((GPIO_Init->Mode & OUTPUT_TYPE) >> OUTPUT_TYPE_Pos) << position);
 8004a08:	683b      	ldr	r3, [r7, #0]
 8004a0a:	685b      	ldr	r3, [r3, #4]
 8004a0c:	091b      	lsrs	r3, r3, #4
 8004a0e:	f003 0201 	and.w	r2, r3, #1
 8004a12:	69fb      	ldr	r3, [r7, #28]
 8004a14:	fa02 f303 	lsl.w	r3, r2, r3
 8004a18:	69ba      	ldr	r2, [r7, #24]
 8004a1a:	4313      	orrs	r3, r2
 8004a1c:	61bb      	str	r3, [r7, #24]
        GPIOx->OTYPER = temp;
 8004a1e:	687b      	ldr	r3, [r7, #4]
 8004a20:	69ba      	ldr	r2, [r7, #24]
 8004a22:	605a      	str	r2, [r3, #4]
       }

      if((GPIO_Init->Mode & GPIO_MODE) != MODE_ANALOG)
 8004a24:	683b      	ldr	r3, [r7, #0]
 8004a26:	685b      	ldr	r3, [r3, #4]
 8004a28:	f003 0303 	and.w	r3, r3, #3
 8004a2c:	2b03      	cmp	r3, #3
 8004a2e:	d017      	beq.n	8004a60 <HAL_GPIO_Init+0xf0>
      {
        /* Check the parameters */
        assert_param(IS_GPIO_PULL(GPIO_Init->Pull));
        
        /* Activate the Pull-up or Pull down resistor for the current IO */
        temp = GPIOx->PUPDR;
 8004a30:	687b      	ldr	r3, [r7, #4]
 8004a32:	68db      	ldr	r3, [r3, #12]
 8004a34:	61bb      	str	r3, [r7, #24]
        temp &= ~(GPIO_PUPDR_PUPDR0 << (position * 2U));
 8004a36:	69fb      	ldr	r3, [r7, #28]
 8004a38:	005b      	lsls	r3, r3, #1
 8004a3a:	2203      	movs	r2, #3
 8004a3c:	fa02 f303 	lsl.w	r3, r2, r3
 8004a40:	43db      	mvns	r3, r3
 8004a42:	69ba      	ldr	r2, [r7, #24]
 8004a44:	4013      	ands	r3, r2
 8004a46:	61bb      	str	r3, [r7, #24]
        temp |= ((GPIO_Init->Pull) << (position * 2U));
 8004a48:	683b      	ldr	r3, [r7, #0]
 8004a4a:	689a      	ldr	r2, [r3, #8]
 8004a4c:	69fb      	ldr	r3, [r7, #28]
 8004a4e:	005b      	lsls	r3, r3, #1
 8004a50:	fa02 f303 	lsl.w	r3, r2, r3
 8004a54:	69ba      	ldr	r2, [r7, #24]
 8004a56:	4313      	orrs	r3, r2
 8004a58:	61bb      	str	r3, [r7, #24]
        GPIOx->PUPDR = temp;
 8004a5a:	687b      	ldr	r3, [r7, #4]
 8004a5c:	69ba      	ldr	r2, [r7, #24]
 8004a5e:	60da      	str	r2, [r3, #12]
      }

      /* In case of Alternate function mode selection */
      if((GPIO_Init->Mode & GPIO_MODE) == MODE_AF)
 8004a60:	683b      	ldr	r3, [r7, #0]
 8004a62:	685b      	ldr	r3, [r3, #4]
 8004a64:	f003 0303 	and.w	r3, r3, #3
 8004a68:	2b02      	cmp	r3, #2
 8004a6a:	d123      	bne.n	8004ab4 <HAL_GPIO_Init+0x144>
      {
        /* Check the Alternate function parameter */
        assert_param(IS_GPIO_AF(GPIO_Init->Alternate));
        /* Configure Alternate function mapped with the current IO */
        temp = GPIOx->AFR[position >> 3U];
 8004a6c:	69fb      	ldr	r3, [r7, #28]
 8004a6e:	08da      	lsrs	r2, r3, #3
 8004a70:	687b      	ldr	r3, [r7, #4]
 8004a72:	3208      	adds	r2, #8
 8004a74:	f853 3022 	ldr.w	r3, [r3, r2, lsl #2]
 8004a78:	61bb      	str	r3, [r7, #24]
        temp &= ~(0xFU << ((uint32_t)(position & 0x07U) * 4U)) ;
 8004a7a:	69fb      	ldr	r3, [r7, #28]
 8004a7c:	f003 0307 	and.w	r3, r3, #7
 8004a80:	009b      	lsls	r3, r3, #2
 8004a82:	220f      	movs	r2, #15
 8004a84:	fa02 f303 	lsl.w	r3, r2, r3
 8004a88:	43db      	mvns	r3, r3
 8004a8a:	69ba      	ldr	r2, [r7, #24]
 8004a8c:	4013      	ands	r3, r2
 8004a8e:	61bb      	str	r3, [r7, #24]
        temp |= ((uint32_t)(GPIO_Init->Alternate) << (((uint32_t)position & 0x07U) * 4U));
 8004a90:	683b      	ldr	r3, [r7, #0]
 8004a92:	691a      	ldr	r2, [r3, #16]
 8004a94:	69fb      	ldr	r3, [r7, #28]
 8004a96:	f003 0307 	and.w	r3, r3, #7
 8004a9a:	009b      	lsls	r3, r3, #2
 8004a9c:	fa02 f303 	lsl.w	r3, r2, r3
 8004aa0:	69ba      	ldr	r2, [r7, #24]
 8004aa2:	4313      	orrs	r3, r2
 8004aa4:	61bb      	str	r3, [r7, #24]
        GPIOx->AFR[position >> 3U] = temp;
 8004aa6:	69fb      	ldr	r3, [r7, #28]
 8004aa8:	08da      	lsrs	r2, r3, #3
 8004aaa:	687b      	ldr	r3, [r7, #4]
 8004aac:	3208      	adds	r2, #8
 8004aae:	69b9      	ldr	r1, [r7, #24]
 8004ab0:	f843 1022 	str.w	r1, [r3, r2, lsl #2]
      }

      /* Configure IO Direction mode (Input, Output, Alternate or Analog) */
      temp = GPIOx->MODER;
 8004ab4:	687b      	ldr	r3, [r7, #4]
 8004ab6:	681b      	ldr	r3, [r3, #0]
 8004ab8:	61bb      	str	r3, [r7, #24]
      temp &= ~(GPIO_MODER_MODER0 << (position * 2U));
 8004aba:	69fb      	ldr	r3, [r7, #28]
 8004abc:	005b      	lsls	r3, r3, #1
 8004abe:	2203      	movs	r2, #3
 8004ac0:	fa02 f303 	lsl.w	r3, r2, r3
 8004ac4:	43db      	mvns	r3, r3
 8004ac6:	69ba      	ldr	r2, [r7, #24]
 8004ac8:	4013      	ands	r3, r2
 8004aca:	61bb      	str	r3, [r7, #24]
      temp |= ((GPIO_Init->Mode & GPIO_MODE) << (position * 2U));
 8004acc:	683b      	ldr	r3, [r7, #0]
 8004ace:	685b      	ldr	r3, [r3, #4]
 8004ad0:	f003 0203 	and.w	r2, r3, #3
 8004ad4:	69fb      	ldr	r3, [r7, #28]
 8004ad6:	005b      	lsls	r3, r3, #1
 8004ad8:	fa02 f303 	lsl.w	r3, r2, r3
 8004adc:	69ba      	ldr	r2, [r7, #24]
 8004ade:	4313      	orrs	r3, r2
 8004ae0:	61bb      	str	r3, [r7, #24]
      GPIOx->MODER = temp;
 8004ae2:	687b      	ldr	r3, [r7, #4]
 8004ae4:	69ba      	ldr	r2, [r7, #24]
 8004ae6:	601a      	str	r2, [r3, #0]

      /*--------------------- EXTI Mode Configuration ------------------------*/
      /* Configure the External Interrupt or event for the current IO */
      if((GPIO_Init->Mode & EXTI_MODE) != 0x00U)
 8004ae8:	683b      	ldr	r3, [r7, #0]
 8004aea:	685b      	ldr	r3, [r3, #4]
 8004aec:	f403 3340 	and.w	r3, r3, #196608	@ 0x30000
 8004af0:	2b00      	cmp	r3, #0
 8004af2:	f000 80c0 	beq.w	8004c76 <HAL_GPIO_Init+0x306>
      {
        /* Enable SYSCFG Clock */
        __HAL_RCC_SYSCFG_CLK_ENABLE();
 8004af6:	2300      	movs	r3, #0
 8004af8:	60fb      	str	r3, [r7, #12]
 8004afa:	4b66      	ldr	r3, [pc, #408]	@ (8004c94 <HAL_GPIO_Init+0x324>)
 8004afc:	6c5b      	ldr	r3, [r3, #68]	@ 0x44
 8004afe:	4a65      	ldr	r2, [pc, #404]	@ (8004c94 <HAL_GPIO_Init+0x324>)
 8004b00:	f443 4380 	orr.w	r3, r3, #16384	@ 0x4000
 8004b04:	6453      	str	r3, [r2, #68]	@ 0x44
 8004b06:	4b63      	ldr	r3, [pc, #396]	@ (8004c94 <HAL_GPIO_Init+0x324>)
 8004b08:	6c5b      	ldr	r3, [r3, #68]	@ 0x44
 8004b0a:	f403 4380 	and.w	r3, r3, #16384	@ 0x4000
 8004b0e:	60fb      	str	r3, [r7, #12]
 8004b10:	68fb      	ldr	r3, [r7, #12]

        temp = SYSCFG->EXTICR[position >> 2U];
 8004b12:	4a61      	ldr	r2, [pc, #388]	@ (8004c98 <HAL_GPIO_Init+0x328>)
 8004b14:	69fb      	ldr	r3, [r7, #28]
 8004b16:	089b      	lsrs	r3, r3, #2
 8004b18:	3302      	adds	r3, #2
 8004b1a:	f852 3023 	ldr.w	r3, [r2, r3, lsl #2]
 8004b1e:	61bb      	str	r3, [r7, #24]
        temp &= ~(0x0FU << (4U * (position & 0x03U)));
 8004b20:	69fb      	ldr	r3, [r7, #28]
 8004b22:	f003 0303 	and.w	r3, r3, #3
 8004b26:	009b      	lsls	r3, r3, #2
 8004b28:	220f      	movs	r2, #15
 8004b2a:	fa02 f303 	lsl.w	r3, r2, r3
 8004b2e:	43db      	mvns	r3, r3
 8004b30:	69ba      	ldr	r2, [r7, #24]
 8004b32:	4013      	ands	r3, r2
 8004b34:	61bb      	str	r3, [r7, #24]
        temp |= ((uint32_t)(GPIO_GET_INDEX(GPIOx)) << (4U * (position & 0x03U)));
 8004b36:	687b      	ldr	r3, [r7, #4]
 8004b38:	4a58      	ldr	r2, [pc, #352]	@ (8004c9c <HAL_GPIO_Init+0x32c>)
 8004b3a:	4293      	cmp	r3, r2
 8004b3c:	d037      	beq.n	8004bae <HAL_GPIO_Init+0x23e>
 8004b3e:	687b      	ldr	r3, [r7, #4]
 8004b40:	4a57      	ldr	r2, [pc, #348]	@ (8004ca0 <HAL_GPIO_Init+0x330>)
 8004b42:	4293      	cmp	r3, r2
 8004b44:	d031      	beq.n	8004baa <HAL_GPIO_Init+0x23a>
 8004b46:	687b      	ldr	r3, [r7, #4]
 8004b48:	4a56      	ldr	r2, [pc, #344]	@ (8004ca4 <HAL_GPIO_Init+0x334>)
 8004b4a:	4293      	cmp	r3, r2
 8004b4c:	d02b      	beq.n	8004ba6 <HAL_GPIO_Init+0x236>
 8004b4e:	687b      	ldr	r3, [r7, #4]
 8004b50:	4a55      	ldr	r2, [pc, #340]	@ (8004ca8 <HAL_GPIO_Init+0x338>)
 8004b52:	4293      	cmp	r3, r2
 8004b54:	d025      	beq.n	8004ba2 <HAL_GPIO_Init+0x232>
 8004b56:	687b      	ldr	r3, [r7, #4]
 8004b58:	4a54      	ldr	r2, [pc, #336]	@ (8004cac <HAL_GPIO_Init+0x33c>)
 8004b5a:	4293      	cmp	r3, r2
 8004b5c:	d01f      	beq.n	8004b9e <HAL_GPIO_Init+0x22e>
 8004b5e:	687b      	ldr	r3, [r7, #4]
 8004b60:	4a53      	ldr	r2, [pc, #332]	@ (8004cb0 <HAL_GPIO_Init+0x340>)
 8004b62:	4293      	cmp	r3, r2
 8004b64:	d019      	beq.n	8004b9a <HAL_GPIO_Init+0x22a>
 8004b66:	687b      	ldr	r3, [r7, #4]
 8004b68:	4a52      	ldr	r2, [pc, #328]	@ (8004cb4 <HAL_GPIO_Init+0x344>)
 8004b6a:	4293      	cmp	r3, r2
 8004b6c:	d013      	beq.n	8004b96 <HAL_GPIO_Init+0x226>
 8004b6e:	687b      	ldr	r3, [r7, #4]
 8004b70:	4a51      	ldr	r2, [pc, #324]	@ (8004cb8 <HAL_GPIO_Init+0x348>)
 8004b72:	4293      	cmp	r3, r2
 8004b74:	d00d      	beq.n	8004b92 <HAL_GPIO_Init+0x222>
 8004b76:	687b      	ldr	r3, [r7, #4]
 8004b78:	4a50      	ldr	r2, [pc, #320]	@ (8004cbc <HAL_GPIO_Init+0x34c>)
 8004b7a:	4293      	cmp	r3, r2
 8004b7c:	d007      	beq.n	8004b8e <HAL_GPIO_Init+0x21e>
 8004b7e:	687b      	ldr	r3, [r7, #4]
 8004b80:	4a4f      	ldr	r2, [pc, #316]	@ (8004cc0 <HAL_GPIO_Init+0x350>)
 8004b82:	4293      	cmp	r3, r2
 8004b84:	d101      	bne.n	8004b8a <HAL_GPIO_Init+0x21a>
 8004b86:	2309      	movs	r3, #9
 8004b88:	e012      	b.n	8004bb0 <HAL_GPIO_Init+0x240>
 8004b8a:	230a      	movs	r3, #10
 8004b8c:	e010      	b.n	8004bb0 <HAL_GPIO_Init+0x240>
 8004b8e:	2308      	movs	r3, #8
 8004b90:	e00e      	b.n	8004bb0 <HAL_GPIO_Init+0x240>
 8004b92:	2307      	movs	r3, #7
 8004b94:	e00c      	b.n	8004bb0 <HAL_GPIO_Init+0x240>
 8004b96:	2306      	movs	r3, #6
 8004b98:	e00a      	b.n	8004bb0 <HAL_GPIO_Init+0x240>
 8004b9a:	2305      	movs	r3, #5
 8004b9c:	e008      	b.n	8004bb0 <HAL_GPIO_Init+0x240>
 8004b9e:	2304      	movs	r3, #4
 8004ba0:	e006      	b.n	8004bb0 <HAL_GPIO_Init+0x240>
 8004ba2:	2303      	movs	r3, #3
 8004ba4:	e004      	b.n	8004bb0 <HAL_GPIO_Init+0x240>
 8004ba6:	2302      	movs	r3, #2
 8004ba8:	e002      	b.n	8004bb0 <HAL_GPIO_Init+0x240>
 8004baa:	2301      	movs	r3, #1
 8004bac:	e000      	b.n	8004bb0 <HAL_GPIO_Init+0x240>
 8004bae:	2300      	movs	r3, #0
 8004bb0:	69fa      	ldr	r2, [r7, #28]
 8004bb2:	f002 0203 	and.w	r2, r2, #3
 8004bb6:	0092      	lsls	r2, r2, #2
 8004bb8:	4093      	lsls	r3, r2
 8004bba:	69ba      	ldr	r2, [r7, #24]
 8004bbc:	4313      	orrs	r3, r2
 8004bbe:	61bb      	str	r3, [r7, #24]
        SYSCFG->EXTICR[position >> 2U] = temp;
 8004bc0:	4935      	ldr	r1, [pc, #212]	@ (8004c98 <HAL_GPIO_Init+0x328>)
 8004bc2:	69fb      	ldr	r3, [r7, #28]
 8004bc4:	089b      	lsrs	r3, r3, #2
 8004bc6:	3302      	adds	r3, #2
 8004bc8:	69ba      	ldr	r2, [r7, #24]
 8004bca:	f841 2023 	str.w	r2, [r1, r3, lsl #2]

        /* Clear Rising Falling edge configuration */
        temp = EXTI->RTSR;
 8004bce:	4b3d      	ldr	r3, [pc, #244]	@ (8004cc4 <HAL_GPIO_Init+0x354>)
 8004bd0:	689b      	ldr	r3, [r3, #8]
 8004bd2:	61bb      	str	r3, [r7, #24]
        temp &= ~((uint32_t)iocurrent);
 8004bd4:	693b      	ldr	r3, [r7, #16]
 8004bd6:	43db      	mvns	r3, r3
 8004bd8:	69ba      	ldr	r2, [r7, #24]
 8004bda:	4013      	ands	r3, r2
 8004bdc:	61bb      	str	r3, [r7, #24]
        if((GPIO_Init->Mode & TRIGGER_RISING) != 0x00U)
 8004bde:	683b      	ldr	r3, [r7, #0]
 8004be0:	685b      	ldr	r3, [r3, #4]
 8004be2:	f403 1380 	and.w	r3, r3, #1048576	@ 0x100000
 8004be6:	2b00      	cmp	r3, #0
 8004be8:	d003      	beq.n	8004bf2 <HAL_GPIO_Init+0x282>
        {
          temp |= iocurrent;
 8004bea:	69ba      	ldr	r2, [r7, #24]
 8004bec:	693b      	ldr	r3, [r7, #16]
 8004bee:	4313      	orrs	r3, r2
 8004bf0:	61bb      	str	r3, [r7, #24]
        }
        EXTI->RTSR = temp;
 8004bf2:	4a34      	ldr	r2, [pc, #208]	@ (8004cc4 <HAL_GPIO_Init+0x354>)
 8004bf4:	69bb      	ldr	r3, [r7, #24]
 8004bf6:	6093      	str	r3, [r2, #8]

        temp = EXTI->FTSR;
 8004bf8:	4b32      	ldr	r3, [pc, #200]	@ (8004cc4 <HAL_GPIO_Init+0x354>)
 8004bfa:	68db      	ldr	r3, [r3, #12]
 8004bfc:	61bb      	str	r3, [r7, #24]
        temp &= ~((uint32_t)iocurrent);
 8004bfe:	693b      	ldr	r3, [r7, #16]
 8004c00:	43db      	mvns	r3, r3
 8004c02:	69ba      	ldr	r2, [r7, #24]
 8004c04:	4013      	ands	r3, r2
 8004c06:	61bb      	str	r3, [r7, #24]
        if((GPIO_Init->Mode & TRIGGER_FALLING) != 0x00U)
 8004c08:	683b      	ldr	r3, [r7, #0]
 8004c0a:	685b      	ldr	r3, [r3, #4]
 8004c0c:	f403 1300 	and.w	r3, r3, #2097152	@ 0x200000
 8004c10:	2b00      	cmp	r3, #0
 8004c12:	d003      	beq.n	8004c1c <HAL_GPIO_Init+0x2ac>
        {
          temp |= iocurrent;
 8004c14:	69ba      	ldr	r2, [r7, #24]
 8004c16:	693b      	ldr	r3, [r7, #16]
 8004c18:	4313      	orrs	r3, r2
 8004c1a:	61bb      	str	r3, [r7, #24]
        }
        EXTI->FTSR = temp;
 8004c1c:	4a29      	ldr	r2, [pc, #164]	@ (8004cc4 <HAL_GPIO_Init+0x354>)
 8004c1e:	69bb      	ldr	r3, [r7, #24]
 8004c20:	60d3      	str	r3, [r2, #12]

        temp = EXTI->EMR;
 8004c22:	4b28      	ldr	r3, [pc, #160]	@ (8004cc4 <HAL_GPIO_Init+0x354>)
 8004c24:	685b      	ldr	r3, [r3, #4]
 8004c26:	61bb      	str	r3, [r7, #24]
        temp &= ~((uint32_t)iocurrent);
 8004c28:	693b      	ldr	r3, [r7, #16]
 8004c2a:	43db      	mvns	r3, r3
 8004c2c:	69ba      	ldr	r2, [r7, #24]
 8004c2e:	4013      	ands	r3, r2
 8004c30:	61bb      	str	r3, [r7, #24]
        if((GPIO_Init->Mode & EXTI_EVT) != 0x00U)
 8004c32:	683b      	ldr	r3, [r7, #0]
 8004c34:	685b      	ldr	r3, [r3, #4]
 8004c36:	f403 3300 	and.w	r3, r3, #131072	@ 0x20000
 8004c3a:	2b00      	cmp	r3, #0
 8004c3c:	d003      	beq.n	8004c46 <HAL_GPIO_Init+0x2d6>
        {
          temp |= iocurrent;
 8004c3e:	69ba      	ldr	r2, [r7, #24]
 8004c40:	693b      	ldr	r3, [r7, #16]
 8004c42:	4313      	orrs	r3, r2
 8004c44:	61bb      	str	r3, [r7, #24]
        }
        EXTI->EMR = temp;
 8004c46:	4a1f      	ldr	r2, [pc, #124]	@ (8004cc4 <HAL_GPIO_Init+0x354>)
 8004c48:	69bb      	ldr	r3, [r7, #24]
 8004c4a:	6053      	str	r3, [r2, #4]

        /* Clear EXTI line configuration */
        temp = EXTI->IMR;
 8004c4c:	4b1d      	ldr	r3, [pc, #116]	@ (8004cc4 <HAL_GPIO_Init+0x354>)
 8004c4e:	681b      	ldr	r3, [r3, #0]
 8004c50:	61bb      	str	r3, [r7, #24]
        temp &= ~((uint32_t)iocurrent);
 8004c52:	693b      	ldr	r3, [r7, #16]
 8004c54:	43db      	mvns	r3, r3
 8004c56:	69ba      	ldr	r2, [r7, #24]
 8004c58:	4013      	ands	r3, r2
 8004c5a:	61bb      	str	r3, [r7, #24]
        if((GPIO_Init->Mode & EXTI_IT) != 0x00U)
 8004c5c:	683b      	ldr	r3, [r7, #0]
 8004c5e:	685b      	ldr	r3, [r3, #4]
 8004c60:	f403 3380 	and.w	r3, r3, #65536	@ 0x10000
 8004c64:	2b00      	cmp	r3, #0
 8004c66:	d003      	beq.n	8004c70 <HAL_GPIO_Init+0x300>
        {
          temp |= iocurrent;
 8004c68:	69ba      	ldr	r2, [r7, #24]
 8004c6a:	693b      	ldr	r3, [r7, #16]
 8004c6c:	4313      	orrs	r3, r2
 8004c6e:	61bb      	str	r3, [r7, #24]
        }
        EXTI->IMR = temp;
 8004c70:	4a14      	ldr	r2, [pc, #80]	@ (8004cc4 <HAL_GPIO_Init+0x354>)
 8004c72:	69bb      	ldr	r3, [r7, #24]
 8004c74:	6013      	str	r3, [r2, #0]
  for(position = 0U; position < GPIO_NUMBER; position++)
 8004c76:	69fb      	ldr	r3, [r7, #28]
 8004c78:	3301      	adds	r3, #1
 8004c7a:	61fb      	str	r3, [r7, #28]
 8004c7c:	69fb      	ldr	r3, [r7, #28]
 8004c7e:	2b0f      	cmp	r3, #15
 8004c80:	f67f ae84 	bls.w	800498c <HAL_GPIO_Init+0x1c>
      }
    }
  }
}
 8004c84:	bf00      	nop
 8004c86:	bf00      	nop
 8004c88:	3724      	adds	r7, #36	@ 0x24
 8004c8a:	46bd      	mov	sp, r7
 8004c8c:	f85d 7b04 	ldr.w	r7, [sp], #4
 8004c90:	4770      	bx	lr
 8004c92:	bf00      	nop
 8004c94:	40023800 	.word	0x40023800
 8004c98:	40013800 	.word	0x40013800
 8004c9c:	40020000 	.word	0x40020000
 8004ca0:	40020400 	.word	0x40020400
 8004ca4:	40020800 	.word	0x40020800
 8004ca8:	40020c00 	.word	0x40020c00
 8004cac:	40021000 	.word	0x40021000
 8004cb0:	40021400 	.word	0x40021400
 8004cb4:	40021800 	.word	0x40021800
 8004cb8:	40021c00 	.word	0x40021c00
 8004cbc:	40022000 	.word	0x40022000
 8004cc0:	40022400 	.word	0x40022400
 8004cc4:	40013c00 	.word	0x40013c00

08004cc8 <HAL_GPIO_DeInit>:
  * @param  GPIO_Pin specifies the port bit to be written.
  *          This parameter can be one of GPIO_PIN_x where x can be (0..15).
  * @retval None
  */
void HAL_GPIO_DeInit(GPIO_TypeDef  *GPIOx, uint32_t GPIO_Pin)
{
 8004cc8:	b480      	push	{r7}
 8004cca:	b087      	sub	sp, #28
 8004ccc:	af00      	add	r7, sp, #0
 8004cce:	6078      	str	r0, [r7, #4]
 8004cd0:	6039      	str	r1, [r7, #0]
  uint32_t position;
  uint32_t ioposition = 0x00U;
 8004cd2:	2300      	movs	r3, #0
 8004cd4:	613b      	str	r3, [r7, #16]
  uint32_t iocurrent = 0x00U;
 8004cd6:	2300      	movs	r3, #0
 8004cd8:	60fb      	str	r3, [r7, #12]
  uint32_t tmp = 0x00U;
 8004cda:	2300      	movs	r3, #0
 8004cdc:	60bb      	str	r3, [r7, #8]

  /* Check the parameters */
  assert_param(IS_GPIO_ALL_INSTANCE(GPIOx));
  
  /* Configure the port pins */
  for(position = 0U; position < GPIO_NUMBER; position++)
 8004cde:	2300      	movs	r3, #0
 8004ce0:	617b      	str	r3, [r7, #20]
 8004ce2:	e0d9      	b.n	8004e98 <HAL_GPIO_DeInit+0x1d0>
  {
    /* Get the IO position */
    ioposition = 0x01U << position;
 8004ce4:	2201      	movs	r2, #1
 8004ce6:	697b      	ldr	r3, [r7, #20]
 8004ce8:	fa02 f303 	lsl.w	r3, r2, r3
 8004cec:	613b      	str	r3, [r7, #16]
    /* Get the current IO position */
    iocurrent = (GPIO_Pin) & ioposition;
 8004cee:	683a      	ldr	r2, [r7, #0]
 8004cf0:	693b      	ldr	r3, [r7, #16]
 8004cf2:	4013      	ands	r3, r2
 8004cf4:	60fb      	str	r3, [r7, #12]

    if(iocurrent == ioposition)
 8004cf6:	68fa      	ldr	r2, [r7, #12]
 8004cf8:	693b      	ldr	r3, [r7, #16]
 8004cfa:	429a      	cmp	r2, r3
 8004cfc:	f040 80c9 	bne.w	8004e92 <HAL_GPIO_DeInit+0x1ca>
    {
      /*------------------------- EXTI Mode Configuration --------------------*/
      tmp = SYSCFG->EXTICR[position >> 2U];
 8004d00:	4a6b      	ldr	r2, [pc, #428]	@ (8004eb0 <HAL_GPIO_DeInit+0x1e8>)
 8004d02:	697b      	ldr	r3, [r7, #20]
 8004d04:	089b      	lsrs	r3, r3, #2
 8004d06:	3302      	adds	r3, #2
 8004d08:	f852 3023 	ldr.w	r3, [r2, r3, lsl #2]
 8004d0c:	60bb      	str	r3, [r7, #8]
      tmp &= (0x0FU << (4U * (position & 0x03U)));
 8004d0e:	697b      	ldr	r3, [r7, #20]
 8004d10:	f003 0303 	and.w	r3, r3, #3
 8004d14:	009b      	lsls	r3, r3, #2
 8004d16:	220f      	movs	r2, #15
 8004d18:	fa02 f303 	lsl.w	r3, r2, r3
 8004d1c:	68ba      	ldr	r2, [r7, #8]
 8004d1e:	4013      	ands	r3, r2
 8004d20:	60bb      	str	r3, [r7, #8]
      if(tmp == ((uint32_t)(GPIO_GET_INDEX(GPIOx)) << (4U * (position & 0x03U))))
 8004d22:	687b      	ldr	r3, [r7, #4]
 8004d24:	4a63      	ldr	r2, [pc, #396]	@ (8004eb4 <HAL_GPIO_DeInit+0x1ec>)
 8004d26:	4293      	cmp	r3, r2
 8004d28:	d037      	beq.n	8004d9a <HAL_GPIO_DeInit+0xd2>
 8004d2a:	687b      	ldr	r3, [r7, #4]
 8004d2c:	4a62      	ldr	r2, [pc, #392]	@ (8004eb8 <HAL_GPIO_DeInit+0x1f0>)
 8004d2e:	4293      	cmp	r3, r2
 8004d30:	d031      	beq.n	8004d96 <HAL_GPIO_DeInit+0xce>
 8004d32:	687b      	ldr	r3, [r7, #4]
 8004d34:	4a61      	ldr	r2, [pc, #388]	@ (8004ebc <HAL_GPIO_DeInit+0x1f4>)
 8004d36:	4293      	cmp	r3, r2
 8004d38:	d02b      	beq.n	8004d92 <HAL_GPIO_DeInit+0xca>
 8004d3a:	687b      	ldr	r3, [r7, #4]
 8004d3c:	4a60      	ldr	r2, [pc, #384]	@ (8004ec0 <HAL_GPIO_DeInit+0x1f8>)
 8004d3e:	4293      	cmp	r3, r2
 8004d40:	d025      	beq.n	8004d8e <HAL_GPIO_DeInit+0xc6>
 8004d42:	687b      	ldr	r3, [r7, #4]
 8004d44:	4a5f      	ldr	r2, [pc, #380]	@ (8004ec4 <HAL_GPIO_DeInit+0x1fc>)
 8004d46:	4293      	cmp	r3, r2
 8004d48:	d01f      	beq.n	8004d8a <HAL_GPIO_DeInit+0xc2>
 8004d4a:	687b      	ldr	r3, [r7, #4]
 8004d4c:	4a5e      	ldr	r2, [pc, #376]	@ (8004ec8 <HAL_GPIO_DeInit+0x200>)
 8004d4e:	4293      	cmp	r3, r2
 8004d50:	d019      	beq.n	8004d86 <HAL_GPIO_DeInit+0xbe>
 8004d52:	687b      	ldr	r3, [r7, #4]
 8004d54:	4a5d      	ldr	r2, [pc, #372]	@ (8004ecc <HAL_GPIO_DeInit+0x204>)
 8004d56:	4293      	cmp	r3, r2
 8004d58:	d013      	beq.n	8004d82 <HAL_GPIO_DeInit+0xba>
 8004d5a:	687b      	ldr	r3, [r7, #4]
 8004d5c:	4a5c      	ldr	r2, [pc, #368]	@ (8004ed0 <HAL_GPIO_DeInit+0x208>)
 8004d5e:	4293      	cmp	r3, r2
 8004d60:	d00d      	beq.n	8004d7e <HAL_GPIO_DeInit+0xb6>
 8004d62:	687b      	ldr	r3, [r7, #4]
 8004d64:	4a5b      	ldr	r2, [pc, #364]	@ (8004ed4 <HAL_GPIO_DeInit+0x20c>)
 8004d66:	4293      	cmp	r3, r2
 8004d68:	d007      	beq.n	8004d7a <HAL_GPIO_DeInit+0xb2>
 8004d6a:	687b      	ldr	r3, [r7, #4]
 8004d6c:	4a5a      	ldr	r2, [pc, #360]	@ (8004ed8 <HAL_GPIO_DeInit+0x210>)
 8004d6e:	4293      	cmp	r3, r2
 8004d70:	d101      	bne.n	8004d76 <HAL_GPIO_DeInit+0xae>
 8004d72:	2309      	movs	r3, #9
 8004d74:	e012      	b.n	8004d9c <HAL_GPIO_DeInit+0xd4>
 8004d76:	230a      	movs	r3, #10
 8004d78:	e010      	b.n	8004d9c <HAL_GPIO_DeInit+0xd4>
 8004d7a:	2308      	movs	r3, #8
 8004d7c:	e00e      	b.n	8004d9c <HAL_GPIO_DeInit+0xd4>
 8004d7e:	2307      	movs	r3, #7
 8004d80:	e00c      	b.n	8004d9c <HAL_GPIO_DeInit+0xd4>
 8004d82:	2306      	movs	r3, #6
 8004d84:	e00a      	b.n	8004d9c <HAL_GPIO_DeInit+0xd4>
 8004d86:	2305      	movs	r3, #5
 8004d88:	e008      	b.n	8004d9c <HAL_GPIO_DeInit+0xd4>
 8004d8a:	2304      	movs	r3, #4
 8004d8c:	e006      	b.n	8004d9c <HAL_GPIO_DeInit+0xd4>
 8004d8e:	2303      	movs	r3, #3
 8004d90:	e004      	b.n	8004d9c <HAL_GPIO_DeInit+0xd4>
 8004d92:	2302      	movs	r3, #2
 8004d94:	e002      	b.n	8004d9c <HAL_GPIO_DeInit+0xd4>
 8004d96:	2301      	movs	r3, #1
 8004d98:	e000      	b.n	8004d9c <HAL_GPIO_DeInit+0xd4>
 8004d9a:	2300      	movs	r3, #0
 8004d9c:	697a      	ldr	r2, [r7, #20]
 8004d9e:	f002 0203 	and.w	r2, r2, #3
 8004da2:	0092      	lsls	r2, r2, #2
 8004da4:	4093      	lsls	r3, r2
 8004da6:	68ba      	ldr	r2, [r7, #8]
 8004da8:	429a      	cmp	r2, r3
 8004daa:	d132      	bne.n	8004e12 <HAL_GPIO_DeInit+0x14a>
      {
        /* Clear EXTI line configuration */
        EXTI->IMR &= ~((uint32_t)iocurrent);
 8004dac:	4b4b      	ldr	r3, [pc, #300]	@ (8004edc <HAL_GPIO_DeInit+0x214>)
 8004dae:	681a      	ldr	r2, [r3, #0]
 8004db0:	68fb      	ldr	r3, [r7, #12]
 8004db2:	43db      	mvns	r3, r3
 8004db4:	4949      	ldr	r1, [pc, #292]	@ (8004edc <HAL_GPIO_DeInit+0x214>)
 8004db6:	4013      	ands	r3, r2
 8004db8:	600b      	str	r3, [r1, #0]
        EXTI->EMR &= ~((uint32_t)iocurrent);
 8004dba:	4b48      	ldr	r3, [pc, #288]	@ (8004edc <HAL_GPIO_DeInit+0x214>)
 8004dbc:	685a      	ldr	r2, [r3, #4]
 8004dbe:	68fb      	ldr	r3, [r7, #12]
 8004dc0:	43db      	mvns	r3, r3
 8004dc2:	4946      	ldr	r1, [pc, #280]	@ (8004edc <HAL_GPIO_DeInit+0x214>)
 8004dc4:	4013      	ands	r3, r2
 8004dc6:	604b      	str	r3, [r1, #4]
        
        /* Clear Rising Falling edge configuration */
        EXTI->FTSR &= ~((uint32_t)iocurrent);
 8004dc8:	4b44      	ldr	r3, [pc, #272]	@ (8004edc <HAL_GPIO_DeInit+0x214>)
 8004dca:	68da      	ldr	r2, [r3, #12]
 8004dcc:	68fb      	ldr	r3, [r7, #12]
 8004dce:	43db      	mvns	r3, r3
 8004dd0:	4942      	ldr	r1, [pc, #264]	@ (8004edc <HAL_GPIO_DeInit+0x214>)
 8004dd2:	4013      	ands	r3, r2
 8004dd4:	60cb      	str	r3, [r1, #12]
        EXTI->RTSR &= ~((uint32_t)iocurrent);
 8004dd6:	4b41      	ldr	r3, [pc, #260]	@ (8004edc <HAL_GPIO_DeInit+0x214>)
 8004dd8:	689a      	ldr	r2, [r3, #8]
 8004dda:	68fb      	ldr	r3, [r7, #12]
 8004ddc:	43db      	mvns	r3, r3
 8004dde:	493f      	ldr	r1, [pc, #252]	@ (8004edc <HAL_GPIO_DeInit+0x214>)
 8004de0:	4013      	ands	r3, r2
 8004de2:	608b      	str	r3, [r1, #8]

        /* Configure the External Interrupt or event for the current IO */
        tmp = 0x0FU << (4U * (position & 0x03U));
 8004de4:	697b      	ldr	r3, [r7, #20]
 8004de6:	f003 0303 	and.w	r3, r3, #3
 8004dea:	009b      	lsls	r3, r3, #2
 8004dec:	220f      	movs	r2, #15
 8004dee:	fa02 f303 	lsl.w	r3, r2, r3
 8004df2:	60bb      	str	r3, [r7, #8]
        SYSCFG->EXTICR[position >> 2U] &= ~tmp;
 8004df4:	4a2e      	ldr	r2, [pc, #184]	@ (8004eb0 <HAL_GPIO_DeInit+0x1e8>)
 8004df6:	697b      	ldr	r3, [r7, #20]
 8004df8:	089b      	lsrs	r3, r3, #2
 8004dfa:	3302      	adds	r3, #2
 8004dfc:	f852 1023 	ldr.w	r1, [r2, r3, lsl #2]
 8004e00:	68bb      	ldr	r3, [r7, #8]
 8004e02:	43da      	mvns	r2, r3
 8004e04:	482a      	ldr	r0, [pc, #168]	@ (8004eb0 <HAL_GPIO_DeInit+0x1e8>)
 8004e06:	697b      	ldr	r3, [r7, #20]
 8004e08:	089b      	lsrs	r3, r3, #2
 8004e0a:	400a      	ands	r2, r1
 8004e0c:	3302      	adds	r3, #2
 8004e0e:	f840 2023 	str.w	r2, [r0, r3, lsl #2]
      }

      /*------------------------- GPIO Mode Configuration --------------------*/
      /* Configure IO Direction in Input Floating Mode */
      GPIOx->MODER &= ~(GPIO_MODER_MODER0 << (position * 2U));
 8004e12:	687b      	ldr	r3, [r7, #4]
 8004e14:	681a      	ldr	r2, [r3, #0]
 8004e16:	697b      	ldr	r3, [r7, #20]
 8004e18:	005b      	lsls	r3, r3, #1
 8004e1a:	2103      	movs	r1, #3
 8004e1c:	fa01 f303 	lsl.w	r3, r1, r3
 8004e20:	43db      	mvns	r3, r3
 8004e22:	401a      	ands	r2, r3
 8004e24:	687b      	ldr	r3, [r7, #4]
 8004e26:	601a      	str	r2, [r3, #0]

      /* Configure the default Alternate Function in current IO */
      GPIOx->AFR[position >> 3U] &= ~(0xFU << ((uint32_t)(position & 0x07U) * 4U)) ;
 8004e28:	697b      	ldr	r3, [r7, #20]
 8004e2a:	08da      	lsrs	r2, r3, #3
 8004e2c:	687b      	ldr	r3, [r7, #4]
 8004e2e:	3208      	adds	r2, #8
 8004e30:	f853 1022 	ldr.w	r1, [r3, r2, lsl #2]
 8004e34:	697b      	ldr	r3, [r7, #20]
 8004e36:	f003 0307 	and.w	r3, r3, #7
 8004e3a:	009b      	lsls	r3, r3, #2
 8004e3c:	220f      	movs	r2, #15
 8004e3e:	fa02 f303 	lsl.w	r3, r2, r3
 8004e42:	43db      	mvns	r3, r3
 8004e44:	697a      	ldr	r2, [r7, #20]
 8004e46:	08d2      	lsrs	r2, r2, #3
 8004e48:	4019      	ands	r1, r3
 8004e4a:	687b      	ldr	r3, [r7, #4]
 8004e4c:	3208      	adds	r2, #8
 8004e4e:	f843 1022 	str.w	r1, [r3, r2, lsl #2]

      /* Deactivate the Pull-up and Pull-down resistor for the current IO */
      GPIOx->PUPDR &= ~(GPIO_PUPDR_PUPDR0 << (position * 2U));
 8004e52:	687b      	ldr	r3, [r7, #4]
 8004e54:	68da      	ldr	r2, [r3, #12]
 8004e56:	697b      	ldr	r3, [r7, #20]
 8004e58:	005b      	lsls	r3, r3, #1
 8004e5a:	2103      	movs	r1, #3
 8004e5c:	fa01 f303 	lsl.w	r3, r1, r3
 8004e60:	43db      	mvns	r3, r3
 8004e62:	401a      	ands	r2, r3
 8004e64:	687b      	ldr	r3, [r7, #4]
 8004e66:	60da      	str	r2, [r3, #12]

      /* Configure the default value IO Output Type */
      GPIOx->OTYPER  &= ~(GPIO_OTYPER_OT_0 << position) ;
 8004e68:	687b      	ldr	r3, [r7, #4]
 8004e6a:	685a      	ldr	r2, [r3, #4]
 8004e6c:	2101      	movs	r1, #1
 8004e6e:	697b      	ldr	r3, [r7, #20]
 8004e70:	fa01 f303 	lsl.w	r3, r1, r3
 8004e74:	43db      	mvns	r3, r3
 8004e76:	401a      	ands	r2, r3
 8004e78:	687b      	ldr	r3, [r7, #4]
 8004e7a:	605a      	str	r2, [r3, #4]

      /* Configure the default value for IO Speed */
      GPIOx->OSPEEDR &= ~(GPIO_OSPEEDER_OSPEEDR0 << (position * 2U));
 8004e7c:	687b      	ldr	r3, [r7, #4]
 8004e7e:	689a      	ldr	r2, [r3, #8]
 8004e80:	697b      	ldr	r3, [r7, #20]
 8004e82:	005b      	lsls	r3, r3, #1
 8004e84:	2103      	movs	r1, #3
 8004e86:	fa01 f303 	lsl.w	r3, r1, r3
 8004e8a:	43db      	mvns	r3, r3
 8004e8c:	401a      	ands	r2, r3
 8004e8e:	687b      	ldr	r3, [r7, #4]
 8004e90:	609a      	str	r2, [r3, #8]
  for(position = 0U; position < GPIO_NUMBER; position++)
 8004e92:	697b      	ldr	r3, [r7, #20]
 8004e94:	3301      	adds	r3, #1
 8004e96:	617b      	str	r3, [r7, #20]
 8004e98:	697b      	ldr	r3, [r7, #20]
 8004e9a:	2b0f      	cmp	r3, #15
 8004e9c:	f67f af22 	bls.w	8004ce4 <HAL_GPIO_DeInit+0x1c>
    }
  }
}
 8004ea0:	bf00      	nop
 8004ea2:	bf00      	nop
 8004ea4:	371c      	adds	r7, #28
 8004ea6:	46bd      	mov	sp, r7
 8004ea8:	f85d 7b04 	ldr.w	r7, [sp], #4
 8004eac:	4770      	bx	lr
 8004eae:	bf00      	nop
 8004eb0:	40013800 	.word	0x40013800
 8004eb4:	40020000 	.word	0x40020000
 8004eb8:	40020400 	.word	0x40020400
 8004ebc:	40020800 	.word	0x40020800
 8004ec0:	40020c00 	.word	0x40020c00
 8004ec4:	40021000 	.word	0x40021000
 8004ec8:	40021400 	.word	0x40021400
 8004ecc:	40021800 	.word	0x40021800
 8004ed0:	40021c00 	.word	0x40021c00
 8004ed4:	40022000 	.word	0x40022000
 8004ed8:	40022400 	.word	0x40022400
 8004edc:	40013c00 	.word	0x40013c00

08004ee0 <HAL_GPIO_ReadPin>:
  * @param  GPIO_Pin specifies the port bit to read.
  *         This parameter can be GPIO_PIN_x where x can be (0..15).
  * @retval The input port pin value.
  */
GPIO_PinState HAL_GPIO_ReadPin(GPIO_TypeDef* GPIOx, uint16_t GPIO_Pin)
{
 8004ee0:	b480      	push	{r7}
 8004ee2:	b085      	sub	sp, #20
 8004ee4:	af00      	add	r7, sp, #0
 8004ee6:	6078      	str	r0, [r7, #4]
 8004ee8:	460b      	mov	r3, r1
 8004eea:	807b      	strh	r3, [r7, #2]
  GPIO_PinState bitstatus;

  /* Check the parameters */
  assert_param(IS_GPIO_PIN(GPIO_Pin));

  if((GPIOx->IDR & GPIO_Pin) != (uint32_t)GPIO_PIN_RESET)
 8004eec:	687b      	ldr	r3, [r7, #4]
 8004eee:	691a      	ldr	r2, [r3, #16]
 8004ef0:	887b      	ldrh	r3, [r7, #2]
 8004ef2:	4013      	ands	r3, r2
 8004ef4:	2b00      	cmp	r3, #0
 8004ef6:	d002      	beq.n	8004efe <HAL_GPIO_ReadPin+0x1e>
  {
    bitstatus = GPIO_PIN_SET;
 8004ef8:	2301      	movs	r3, #1
 8004efa:	73fb      	strb	r3, [r7, #15]
 8004efc:	e001      	b.n	8004f02 <HAL_GPIO_ReadPin+0x22>
  }
  else
  {
    bitstatus = GPIO_PIN_RESET;
 8004efe:	2300      	movs	r3, #0
 8004f00:	73fb      	strb	r3, [r7, #15]
  }
  return bitstatus;
 8004f02:	7bfb      	ldrb	r3, [r7, #15]
}
 8004f04:	4618      	mov	r0, r3
 8004f06:	3714      	adds	r7, #20
 8004f08:	46bd      	mov	sp, r7
 8004f0a:	f85d 7b04 	ldr.w	r7, [sp], #4
 8004f0e:	4770      	bx	lr

08004f10 <HAL_GPIO_WritePin>:
  *            @arg GPIO_PIN_RESET: to clear the port pin
  *            @arg GPIO_PIN_SET: to set the port pin
  * @retval None
  */
void HAL_GPIO_WritePin(GPIO_TypeDef* GPIOx, uint16_t GPIO_Pin, GPIO_PinState PinState)
{
 8004f10:	b480      	push	{r7}
 8004f12:	b083      	sub	sp, #12
 8004f14:	af00      	add	r7, sp, #0
 8004f16:	6078      	str	r0, [r7, #4]
 8004f18:	460b      	mov	r3, r1
 8004f1a:	807b      	strh	r3, [r7, #2]
 8004f1c:	4613      	mov	r3, r2
 8004f1e:	707b      	strb	r3, [r7, #1]
  /* Check the parameters */
  assert_param(IS_GPIO_PIN(GPIO_Pin));
  assert_param(IS_GPIO_PIN_ACTION(PinState));

  if(PinState != GPIO_PIN_RESET)
 8004f20:	787b      	ldrb	r3, [r7, #1]
 8004f22:	2b00      	cmp	r3, #0
 8004f24:	d003      	beq.n	8004f2e <HAL_GPIO_WritePin+0x1e>
  {
    GPIOx->BSRR = GPIO_Pin;
 8004f26:	887a      	ldrh	r2, [r7, #2]
 8004f28:	687b      	ldr	r3, [r7, #4]
 8004f2a:	619a      	str	r2, [r3, #24]
  }
  else
  {
    GPIOx->BSRR = (uint32_t)GPIO_Pin << 16U;
  }
}
 8004f2c:	e003      	b.n	8004f36 <HAL_GPIO_WritePin+0x26>
    GPIOx->BSRR = (uint32_t)GPIO_Pin << 16U;
 8004f2e:	887b      	ldrh	r3, [r7, #2]
 8004f30:	041a      	lsls	r2, r3, #16
 8004f32:	687b      	ldr	r3, [r7, #4]
 8004f34:	619a      	str	r2, [r3, #24]
}
 8004f36:	bf00      	nop
 8004f38:	370c      	adds	r7, #12
 8004f3a:	46bd      	mov	sp, r7
 8004f3c:	f85d 7b04 	ldr.w	r7, [sp], #4
 8004f40:	4770      	bx	lr

08004f42 <HAL_GPIO_TogglePin>:
  *                      x can be (A..I) to select the GPIO peripheral for STM32F40XX and STM32F427X devices.
  * @param  GPIO_Pin Specifies the pins to be toggled.
  * @retval None
  */
void HAL_GPIO_TogglePin(GPIO_TypeDef* GPIOx, uint16_t GPIO_Pin)
{
 8004f42:	b480      	push	{r7}
 8004f44:	b085      	sub	sp, #20
 8004f46:	af00      	add	r7, sp, #0
 8004f48:	6078      	str	r0, [r7, #4]
 8004f4a:	460b      	mov	r3, r1
 8004f4c:	807b      	strh	r3, [r7, #2]

  /* Check the parameters */
  assert_param(IS_GPIO_PIN(GPIO_Pin));

  /* get current Output Data Register value */
  odr = GPIOx->ODR;
 8004f4e:	687b      	ldr	r3, [r7, #4]
 8004f50:	695b      	ldr	r3, [r3, #20]
 8004f52:	60fb      	str	r3, [r7, #12]

  /* Set selected pins that were at low level, and reset ones that were high */
  GPIOx->BSRR = ((odr & GPIO_Pin) << GPIO_NUMBER) | (~odr & GPIO_Pin);
 8004f54:	887a      	ldrh	r2, [r7, #2]
 8004f56:	68fb      	ldr	r3, [r7, #12]
 8004f58:	4013      	ands	r3, r2
 8004f5a:	041a      	lsls	r2, r3, #16
 8004f5c:	68fb      	ldr	r3, [r7, #12]
 8004f5e:	43d9      	mvns	r1, r3
 8004f60:	887b      	ldrh	r3, [r7, #2]
 8004f62:	400b      	ands	r3, r1
 8004f64:	431a      	orrs	r2, r3
 8004f66:	687b      	ldr	r3, [r7, #4]
 8004f68:	619a      	str	r2, [r3, #24]
}
 8004f6a:	bf00      	nop
 8004f6c:	3714      	adds	r7, #20
 8004f6e:	46bd      	mov	sp, r7
 8004f70:	f85d 7b04 	ldr.w	r7, [sp], #4
 8004f74:	4770      	bx	lr
	...

08004f78 <HAL_GPIO_EXTI_IRQHandler>:
  * @brief  This function handles EXTI interrupt request.
  * @param  GPIO_Pin Specifies the pins connected EXTI line
  * @retval None
  */
void HAL_GPIO_EXTI_IRQHandler(uint16_t GPIO_Pin)
{
 8004f78:	b580      	push	{r7, lr}
 8004f7a:	b082      	sub	sp, #8
 8004f7c:	af00      	add	r7, sp, #0
 8004f7e:	4603      	mov	r3, r0
 8004f80:	80fb      	strh	r3, [r7, #6]
  /* EXTI line interrupt detected */
  if(__HAL_GPIO_EXTI_GET_IT(GPIO_Pin) != RESET)
 8004f82:	4b08      	ldr	r3, [pc, #32]	@ (8004fa4 <HAL_GPIO_EXTI_IRQHandler+0x2c>)
 8004f84:	695a      	ldr	r2, [r3, #20]
 8004f86:	88fb      	ldrh	r3, [r7, #6]
 8004f88:	4013      	ands	r3, r2
 8004f8a:	2b00      	cmp	r3, #0
 8004f8c:	d006      	beq.n	8004f9c <HAL_GPIO_EXTI_IRQHandler+0x24>
  {
    __HAL_GPIO_EXTI_CLEAR_IT(GPIO_Pin);
 8004f8e:	4a05      	ldr	r2, [pc, #20]	@ (8004fa4 <HAL_GPIO_EXTI_IRQHandler+0x2c>)
 8004f90:	88fb      	ldrh	r3, [r7, #6]
 8004f92:	6153      	str	r3, [r2, #20]
    HAL_GPIO_EXTI_Callback(GPIO_Pin);
 8004f94:	88fb      	ldrh	r3, [r7, #6]
 8004f96:	4618      	mov	r0, r3
 8004f98:	f7fd fff0 	bl	8002f7c <HAL_GPIO_EXTI_Callback>
  }
}
 8004f9c:	bf00      	nop
 8004f9e:	3708      	adds	r7, #8
 8004fa0:	46bd      	mov	sp, r7
 8004fa2:	bd80      	pop	{r7, pc}
 8004fa4:	40013c00 	.word	0x40013c00

08004fa8 <HAL_I2C_Init>:
  * @param  hi2c Pointer to a I2C_HandleTypeDef structure that contains
  *                the configuration information for the specified I2C.
  * @retval HAL status
  */
HAL_StatusTypeDef HAL_I2C_Init(I2C_HandleTypeDef *hi2c)
{
 8004fa8:	b580      	push	{r7, lr}
 8004faa:	b084      	sub	sp, #16
 8004fac:	af00      	add	r7, sp, #0
 8004fae:	6078      	str	r0, [r7, #4]
  uint32_t freqrange;
  uint32_t pclk1;

  /* Check the I2C handle allocation */
  if (hi2c == NULL)
 8004fb0:	687b      	ldr	r3, [r7, #4]
 8004fb2:	2b00      	cmp	r3, #0
 8004fb4:	d101      	bne.n	8004fba <HAL_I2C_Init+0x12>
  {
    return HAL_ERROR;
 8004fb6:	2301      	movs	r3, #1
 8004fb8:	e12b      	b.n	8005212 <HAL_I2C_Init+0x26a>
  assert_param(IS_I2C_DUAL_ADDRESS(hi2c->Init.DualAddressMode));
  assert_param(IS_I2C_OWN_ADDRESS2(hi2c->Init.OwnAddress2));
  assert_param(IS_I2C_GENERAL_CALL(hi2c->Init.GeneralCallMode));
  assert_param(IS_I2C_NO_STRETCH(hi2c->Init.NoStretchMode));

  if (hi2c->State == HAL_I2C_STATE_RESET)
 8004fba:	687b      	ldr	r3, [r7, #4]
 8004fbc:	f893 303d 	ldrb.w	r3, [r3, #61]	@ 0x3d
 8004fc0:	b2db      	uxtb	r3, r3
 8004fc2:	2b00      	cmp	r3, #0
 8004fc4:	d106      	bne.n	8004fd4 <HAL_I2C_Init+0x2c>
  {
    /* Allocate lock resource and initialize it */
    hi2c->Lock = HAL_UNLOCKED;
 8004fc6:	687b      	ldr	r3, [r7, #4]
 8004fc8:	2200      	movs	r2, #0
 8004fca:	f883 203c 	strb.w	r2, [r3, #60]	@ 0x3c

    /* Init the low level hardware : GPIO, CLOCK, NVIC */
    hi2c->MspInitCallback(hi2c);
#else
    /* Init the low level hardware : GPIO, CLOCK, NVIC */
    HAL_I2C_MspInit(hi2c);
 8004fce:	6878      	ldr	r0, [r7, #4]
 8004fd0:	f7fd fc98 	bl	8002904 <HAL_I2C_MspInit>
#endif /* USE_HAL_I2C_REGISTER_CALLBACKS */
  }

  hi2c->State = HAL_I2C_STATE_BUSY;
 8004fd4:	687b      	ldr	r3, [r7, #4]
 8004fd6:	2224      	movs	r2, #36	@ 0x24
 8004fd8:	f883 203d 	strb.w	r2, [r3, #61]	@ 0x3d

  /* Disable the selected I2C peripheral */
  __HAL_I2C_DISABLE(hi2c);
 8004fdc:	687b      	ldr	r3, [r7, #4]
 8004fde:	681b      	ldr	r3, [r3, #0]
 8004fe0:	681a      	ldr	r2, [r3, #0]
 8004fe2:	687b      	ldr	r3, [r7, #4]
 8004fe4:	681b      	ldr	r3, [r3, #0]
 8004fe6:	f022 0201 	bic.w	r2, r2, #1
 8004fea:	601a      	str	r2, [r3, #0]

  /*Reset I2C*/
  hi2c->Instance->CR1 |= I2C_CR1_SWRST;
 8004fec:	687b      	ldr	r3, [r7, #4]
 8004fee:	681b      	ldr	r3, [r3, #0]
 8004ff0:	681a      	ldr	r2, [r3, #0]
 8004ff2:	687b      	ldr	r3, [r7, #4]
 8004ff4:	681b      	ldr	r3, [r3, #0]
 8004ff6:	f442 4200 	orr.w	r2, r2, #32768	@ 0x8000
 8004ffa:	601a      	str	r2, [r3, #0]
  hi2c->Instance->CR1 &= ~I2C_CR1_SWRST;
 8004ffc:	687b      	ldr	r3, [r7, #4]
 8004ffe:	681b      	ldr	r3, [r3, #0]
 8005000:	681a      	ldr	r2, [r3, #0]
 8005002:	687b      	ldr	r3, [r7, #4]
 8005004:	681b      	ldr	r3, [r3, #0]
 8005006:	f422 4200 	bic.w	r2, r2, #32768	@ 0x8000
 800500a:	601a      	str	r2, [r3, #0]

  /* Get PCLK1 frequency */
  pclk1 = HAL_RCC_GetPCLK1Freq();
 800500c:	f001 fcca 	bl	80069a4 <HAL_RCC_GetPCLK1Freq>
 8005010:	60f8      	str	r0, [r7, #12]

  /* Check the minimum allowed PCLK1 frequency */
  if (I2C_MIN_PCLK_FREQ(pclk1, hi2c->Init.ClockSpeed) == 1U)
 8005012:	687b      	ldr	r3, [r7, #4]
 8005014:	685b      	ldr	r3, [r3, #4]
 8005016:	4a81      	ldr	r2, [pc, #516]	@ (800521c <HAL_I2C_Init+0x274>)
 8005018:	4293      	cmp	r3, r2
 800501a:	d807      	bhi.n	800502c <HAL_I2C_Init+0x84>
 800501c:	68fb      	ldr	r3, [r7, #12]
 800501e:	4a80      	ldr	r2, [pc, #512]	@ (8005220 <HAL_I2C_Init+0x278>)
 8005020:	4293      	cmp	r3, r2
 8005022:	bf94      	ite	ls
 8005024:	2301      	movls	r3, #1
 8005026:	2300      	movhi	r3, #0
 8005028:	b2db      	uxtb	r3, r3
 800502a:	e006      	b.n	800503a <HAL_I2C_Init+0x92>
 800502c:	68fb      	ldr	r3, [r7, #12]
 800502e:	4a7d      	ldr	r2, [pc, #500]	@ (8005224 <HAL_I2C_Init+0x27c>)
 8005030:	4293      	cmp	r3, r2
 8005032:	bf94      	ite	ls
 8005034:	2301      	movls	r3, #1
 8005036:	2300      	movhi	r3, #0
 8005038:	b2db      	uxtb	r3, r3
 800503a:	2b00      	cmp	r3, #0
 800503c:	d001      	beq.n	8005042 <HAL_I2C_Init+0x9a>
  {
    return HAL_ERROR;
 800503e:	2301      	movs	r3, #1
 8005040:	e0e7      	b.n	8005212 <HAL_I2C_Init+0x26a>
  }

  /* Calculate frequency range */
  freqrange = I2C_FREQRANGE(pclk1);
 8005042:	68fb      	ldr	r3, [r7, #12]
 8005044:	4a78      	ldr	r2, [pc, #480]	@ (8005228 <HAL_I2C_Init+0x280>)
 8005046:	fba2 2303 	umull	r2, r3, r2, r3
 800504a:	0c9b      	lsrs	r3, r3, #18
 800504c:	60bb      	str	r3, [r7, #8]

  /*---------------------------- I2Cx CR2 Configuration ----------------------*/
  /* Configure I2Cx: Frequency range */
  MODIFY_REG(hi2c->Instance->CR2, I2C_CR2_FREQ, freqrange);
 800504e:	687b      	ldr	r3, [r7, #4]
 8005050:	681b      	ldr	r3, [r3, #0]
 8005052:	685b      	ldr	r3, [r3, #4]
 8005054:	f023 013f 	bic.w	r1, r3, #63	@ 0x3f
 8005058:	687b      	ldr	r3, [r7, #4]
 800505a:	681b      	ldr	r3, [r3, #0]
 800505c:	68ba      	ldr	r2, [r7, #8]
 800505e:	430a      	orrs	r2, r1
 8005060:	605a      	str	r2, [r3, #4]

  /*---------------------------- I2Cx TRISE Configuration --------------------*/
  /* Configure I2Cx: Rise Time */
  MODIFY_REG(hi2c->Instance->TRISE, I2C_TRISE_TRISE, I2C_RISE_TIME(freqrange, hi2c->Init.ClockSpeed));
 8005062:	687b      	ldr	r3, [r7, #4]
 8005064:	681b      	ldr	r3, [r3, #0]
 8005066:	6a1b      	ldr	r3, [r3, #32]
 8005068:	f023 013f 	bic.w	r1, r3, #63	@ 0x3f
 800506c:	687b      	ldr	r3, [r7, #4]
 800506e:	685b      	ldr	r3, [r3, #4]
 8005070:	4a6a      	ldr	r2, [pc, #424]	@ (800521c <HAL_I2C_Init+0x274>)
 8005072:	4293      	cmp	r3, r2
 8005074:	d802      	bhi.n	800507c <HAL_I2C_Init+0xd4>
 8005076:	68bb      	ldr	r3, [r7, #8]
 8005078:	3301      	adds	r3, #1
 800507a:	e009      	b.n	8005090 <HAL_I2C_Init+0xe8>
 800507c:	68bb      	ldr	r3, [r7, #8]
 800507e:	f44f 7296 	mov.w	r2, #300	@ 0x12c
 8005082:	fb02 f303 	mul.w	r3, r2, r3
 8005086:	4a69      	ldr	r2, [pc, #420]	@ (800522c <HAL_I2C_Init+0x284>)
 8005088:	fba2 2303 	umull	r2, r3, r2, r3
 800508c:	099b      	lsrs	r3, r3, #6
 800508e:	3301      	adds	r3, #1
 8005090:	687a      	ldr	r2, [r7, #4]
 8005092:	6812      	ldr	r2, [r2, #0]
 8005094:	430b      	orrs	r3, r1
 8005096:	6213      	str	r3, [r2, #32]

  /*---------------------------- I2Cx CCR Configuration ----------------------*/
  /* Configure I2Cx: Speed */
  MODIFY_REG(hi2c->Instance->CCR, (I2C_CCR_FS | I2C_CCR_DUTY | I2C_CCR_CCR), I2C_SPEED(pclk1, hi2c->Init.ClockSpeed, hi2c->Init.DutyCycle));
 8005098:	687b      	ldr	r3, [r7, #4]
 800509a:	681b      	ldr	r3, [r3, #0]
 800509c:	69db      	ldr	r3, [r3, #28]
 800509e:	f423 424f 	bic.w	r2, r3, #52992	@ 0xcf00
 80050a2:	f022 02ff 	bic.w	r2, r2, #255	@ 0xff
 80050a6:	687b      	ldr	r3, [r7, #4]
 80050a8:	685b      	ldr	r3, [r3, #4]
 80050aa:	495c      	ldr	r1, [pc, #368]	@ (800521c <HAL_I2C_Init+0x274>)
 80050ac:	428b      	cmp	r3, r1
 80050ae:	d819      	bhi.n	80050e4 <HAL_I2C_Init+0x13c>
 80050b0:	68fb      	ldr	r3, [r7, #12]
 80050b2:	1e59      	subs	r1, r3, #1
 80050b4:	687b      	ldr	r3, [r7, #4]
 80050b6:	685b      	ldr	r3, [r3, #4]
 80050b8:	005b      	lsls	r3, r3, #1
 80050ba:	fbb1 f3f3 	udiv	r3, r1, r3
 80050be:	1c59      	adds	r1, r3, #1
 80050c0:	f640 73fc 	movw	r3, #4092	@ 0xffc
 80050c4:	400b      	ands	r3, r1
 80050c6:	2b00      	cmp	r3, #0
 80050c8:	d00a      	beq.n	80050e0 <HAL_I2C_Init+0x138>
 80050ca:	68fb      	ldr	r3, [r7, #12]
 80050cc:	1e59      	subs	r1, r3, #1
 80050ce:	687b      	ldr	r3, [r7, #4]
 80050d0:	685b      	ldr	r3, [r3, #4]
 80050d2:	005b      	lsls	r3, r3, #1
 80050d4:	fbb1 f3f3 	udiv	r3, r1, r3
 80050d8:	3301      	adds	r3, #1
 80050da:	f3c3 030b 	ubfx	r3, r3, #0, #12
 80050de:	e051      	b.n	8005184 <HAL_I2C_Init+0x1dc>
 80050e0:	2304      	movs	r3, #4
 80050e2:	e04f      	b.n	8005184 <HAL_I2C_Init+0x1dc>
 80050e4:	687b      	ldr	r3, [r7, #4]
 80050e6:	689b      	ldr	r3, [r3, #8]
 80050e8:	2b00      	cmp	r3, #0
 80050ea:	d111      	bne.n	8005110 <HAL_I2C_Init+0x168>
 80050ec:	68fb      	ldr	r3, [r7, #12]
 80050ee:	1e58      	subs	r0, r3, #1
 80050f0:	687b      	ldr	r3, [r7, #4]
 80050f2:	6859      	ldr	r1, [r3, #4]
 80050f4:	460b      	mov	r3, r1
 80050f6:	005b      	lsls	r3, r3, #1
 80050f8:	440b      	add	r3, r1
 80050fa:	fbb0 f3f3 	udiv	r3, r0, r3
 80050fe:	3301      	adds	r3, #1
 8005100:	f3c3 030b 	ubfx	r3, r3, #0, #12
 8005104:	2b00      	cmp	r3, #0
 8005106:	bf0c      	ite	eq
 8005108:	2301      	moveq	r3, #1
 800510a:	2300      	movne	r3, #0
 800510c:	b2db      	uxtb	r3, r3
 800510e:	e012      	b.n	8005136 <HAL_I2C_Init+0x18e>
 8005110:	68fb      	ldr	r3, [r7, #12]
 8005112:	1e58      	subs	r0, r3, #1
 8005114:	687b      	ldr	r3, [r7, #4]
 8005116:	6859      	ldr	r1, [r3, #4]
 8005118:	460b      	mov	r3, r1
 800511a:	009b      	lsls	r3, r3, #2
 800511c:	440b      	add	r3, r1
 800511e:	0099      	lsls	r1, r3, #2
 8005120:	440b      	add	r3, r1
 8005122:	fbb0 f3f3 	udiv	r3, r0, r3
 8005126:	3301      	adds	r3, #1
 8005128:	f3c3 030b 	ubfx	r3, r3, #0, #12
 800512c:	2b00      	cmp	r3, #0
 800512e:	bf0c      	ite	eq
 8005130:	2301      	moveq	r3, #1
 8005132:	2300      	movne	r3, #0
 8005134:	b2db      	uxtb	r3, r3
 8005136:	2b00      	cmp	r3, #0
 8005138:	d001      	beq.n	800513e <HAL_I2C_Init+0x196>
 800513a:	2301      	movs	r3, #1
 800513c:	e022      	b.n	8005184 <HAL_I2C_Init+0x1dc>
 800513e:	687b      	ldr	r3, [r7, #4]
 8005140:	689b      	ldr	r3, [r3, #8]
 8005142:	2b00      	cmp	r3, #0
 8005144:	d10e      	bne.n	8005164 <HAL_I2C_Init+0x1bc>
 8005146:	68fb      	ldr	r3, [r7, #12]
 8005148:	1e58      	subs	r0, r3, #1
 800514a:	687b      	ldr	r3, [r7, #4]
 800514c:	6859      	ldr	r1, [r3, #4]
 800514e:	460b      	mov	r3, r1
 8005150:	005b      	lsls	r3, r3, #1
 8005152:	440b      	add	r3, r1
 8005154:	fbb0 f3f3 	udiv	r3, r0, r3
 8005158:	3301      	adds	r3, #1
 800515a:	f3c3 030b 	ubfx	r3, r3, #0, #12
 800515e:	f443 4300 	orr.w	r3, r3, #32768	@ 0x8000
 8005162:	e00f      	b.n	8005184 <HAL_I2C_Init+0x1dc>
 8005164:	68fb      	ldr	r3, [r7, #12]
 8005166:	1e58      	subs	r0, r3, #1
 8005168:	687b      	ldr	r3, [r7, #4]
 800516a:	6859      	ldr	r1, [r3, #4]
 800516c:	460b      	mov	r3, r1
 800516e:	009b      	lsls	r3, r3, #2
 8005170:	440b      	add	r3, r1
 8005172:	0099      	lsls	r1, r3, #2
 8005174:	440b      	add	r3, r1
 8005176:	fbb0 f3f3 	udiv	r3, r0, r3
 800517a:	3301      	adds	r3, #1
 800517c:	f3c3 030b 	ubfx	r3, r3, #0, #12
 8005180:	f443 4340 	orr.w	r3, r3, #49152	@ 0xc000
 8005184:	6879      	ldr	r1, [r7, #4]
 8005186:	6809      	ldr	r1, [r1, #0]
 8005188:	4313      	orrs	r3, r2
 800518a:	61cb      	str	r3, [r1, #28]

  /*---------------------------- I2Cx CR1 Configuration ----------------------*/
  /* Configure I2Cx: Generalcall and NoStretch mode */
  MODIFY_REG(hi2c->Instance->CR1, (I2C_CR1_ENGC | I2C_CR1_NOSTRETCH), (hi2c->Init.GeneralCallMode | hi2c->Init.NoStretchMode));
 800518c:	687b      	ldr	r3, [r7, #4]
 800518e:	681b      	ldr	r3, [r3, #0]
 8005190:	681b      	ldr	r3, [r3, #0]
 8005192:	f023 01c0 	bic.w	r1, r3, #192	@ 0xc0
 8005196:	687b      	ldr	r3, [r7, #4]
 8005198:	69da      	ldr	r2, [r3, #28]
 800519a:	687b      	ldr	r3, [r7, #4]
 800519c:	6a1b      	ldr	r3, [r3, #32]
 800519e:	431a      	orrs	r2, r3
 80051a0:	687b      	ldr	r3, [r7, #4]
 80051a2:	681b      	ldr	r3, [r3, #0]
 80051a4:	430a      	orrs	r2, r1
 80051a6:	601a      	str	r2, [r3, #0]

  /*---------------------------- I2Cx OAR1 Configuration ---------------------*/
  /* Configure I2Cx: Own Address1 and addressing mode */
  MODIFY_REG(hi2c->Instance->OAR1, (I2C_OAR1_ADDMODE | I2C_OAR1_ADD8_9 | I2C_OAR1_ADD1_7 | I2C_OAR1_ADD0), (hi2c->Init.AddressingMode | hi2c->Init.OwnAddress1));
 80051a8:	687b      	ldr	r3, [r7, #4]
 80051aa:	681b      	ldr	r3, [r3, #0]
 80051ac:	689b      	ldr	r3, [r3, #8]
 80051ae:	f423 4303 	bic.w	r3, r3, #33536	@ 0x8300
 80051b2:	f023 03ff 	bic.w	r3, r3, #255	@ 0xff
 80051b6:	687a      	ldr	r2, [r7, #4]
 80051b8:	6911      	ldr	r1, [r2, #16]
 80051ba:	687a      	ldr	r2, [r7, #4]
 80051bc:	68d2      	ldr	r2, [r2, #12]
 80051be:	4311      	orrs	r1, r2
 80051c0:	687a      	ldr	r2, [r7, #4]
 80051c2:	6812      	ldr	r2, [r2, #0]
 80051c4:	430b      	orrs	r3, r1
 80051c6:	6093      	str	r3, [r2, #8]

  /*---------------------------- I2Cx OAR2 Configuration ---------------------*/
  /* Configure I2Cx: Dual mode and Own Address2 */
  MODIFY_REG(hi2c->Instance->OAR2, (I2C_OAR2_ENDUAL | I2C_OAR2_ADD2), (hi2c->Init.DualAddressMode | hi2c->Init.OwnAddress2));
 80051c8:	687b      	ldr	r3, [r7, #4]
 80051ca:	681b      	ldr	r3, [r3, #0]
 80051cc:	68db      	ldr	r3, [r3, #12]
 80051ce:	f023 01ff 	bic.w	r1, r3, #255	@ 0xff
 80051d2:	687b      	ldr	r3, [r7, #4]
 80051d4:	695a      	ldr	r2, [r3, #20]
 80051d6:	687b      	ldr	r3, [r7, #4]
 80051d8:	699b      	ldr	r3, [r3, #24]
 80051da:	431a      	orrs	r2, r3
 80051dc:	687b      	ldr	r3, [r7, #4]
 80051de:	681b      	ldr	r3, [r3, #0]
 80051e0:	430a      	orrs	r2, r1
 80051e2:	60da      	str	r2, [r3, #12]

  /* Enable the selected I2C peripheral */
  __HAL_I2C_ENABLE(hi2c);
 80051e4:	687b      	ldr	r3, [r7, #4]
 80051e6:	681b      	ldr	r3, [r3, #0]
 80051e8:	681a      	ldr	r2, [r3, #0]
 80051ea:	687b      	ldr	r3, [r7, #4]
 80051ec:	681b      	ldr	r3, [r3, #0]
 80051ee:	f042 0201 	orr.w	r2, r2, #1
 80051f2:	601a      	str	r2, [r3, #0]

  hi2c->ErrorCode = HAL_I2C_ERROR_NONE;
 80051f4:	687b      	ldr	r3, [r7, #4]
 80051f6:	2200      	movs	r2, #0
 80051f8:	641a      	str	r2, [r3, #64]	@ 0x40
  hi2c->State = HAL_I2C_STATE_READY;
 80051fa:	687b      	ldr	r3, [r7, #4]
 80051fc:	2220      	movs	r2, #32
 80051fe:	f883 203d 	strb.w	r2, [r3, #61]	@ 0x3d
  hi2c->PreviousState = I2C_STATE_NONE;
 8005202:	687b      	ldr	r3, [r7, #4]
 8005204:	2200      	movs	r2, #0
 8005206:	631a      	str	r2, [r3, #48]	@ 0x30
  hi2c->Mode = HAL_I2C_MODE_NONE;
 8005208:	687b      	ldr	r3, [r7, #4]
 800520a:	2200      	movs	r2, #0
 800520c:	f883 203e 	strb.w	r2, [r3, #62]	@ 0x3e

  return HAL_OK;
 8005210:	2300      	movs	r3, #0
}
 8005212:	4618      	mov	r0, r3
 8005214:	3710      	adds	r7, #16
 8005216:	46bd      	mov	sp, r7
 8005218:	bd80      	pop	{r7, pc}
 800521a:	bf00      	nop
 800521c:	000186a0 	.word	0x000186a0
 8005220:	001e847f 	.word	0x001e847f
 8005224:	003d08ff 	.word	0x003d08ff
 8005228:	431bde83 	.word	0x431bde83
 800522c:	10624dd3 	.word	0x10624dd3

08005230 <HAL_I2C_DeInit>:
  * @param  hi2c Pointer to a I2C_HandleTypeDef structure that contains
  *         the configuration information for the specified I2C.
  * @retval HAL status
  */
HAL_StatusTypeDef HAL_I2C_DeInit(I2C_HandleTypeDef *hi2c)
{
 8005230:	b580      	push	{r7, lr}
 8005232:	b082      	sub	sp, #8
 8005234:	af00      	add	r7, sp, #0
 8005236:	6078      	str	r0, [r7, #4]
  /* Check the I2C handle allocation */
  if (hi2c == NULL)
 8005238:	687b      	ldr	r3, [r7, #4]
 800523a:	2b00      	cmp	r3, #0
 800523c:	d101      	bne.n	8005242 <HAL_I2C_DeInit+0x12>
  {
    return HAL_ERROR;
 800523e:	2301      	movs	r3, #1
 8005240:	e021      	b.n	8005286 <HAL_I2C_DeInit+0x56>
  }

  /* Check the parameters */
  assert_param(IS_I2C_ALL_INSTANCE(hi2c->Instance));

  hi2c->State = HAL_I2C_STATE_BUSY;
 8005242:	687b      	ldr	r3, [r7, #4]
 8005244:	2224      	movs	r2, #36	@ 0x24
 8005246:	f883 203d 	strb.w	r2, [r3, #61]	@ 0x3d

  /* Disable the I2C Peripheral Clock */
  __HAL_I2C_DISABLE(hi2c);
 800524a:	687b      	ldr	r3, [r7, #4]
 800524c:	681b      	ldr	r3, [r3, #0]
 800524e:	681a      	ldr	r2, [r3, #0]
 8005250:	687b      	ldr	r3, [r7, #4]
 8005252:	681b      	ldr	r3, [r3, #0]
 8005254:	f022 0201 	bic.w	r2, r2, #1
 8005258:	601a      	str	r2, [r3, #0]

  /* DeInit the low level hardware: GPIO, CLOCK, NVIC */
  hi2c->MspDeInitCallback(hi2c);
#else
  /* DeInit the low level hardware: GPIO, CLOCK, NVIC */
  HAL_I2C_MspDeInit(hi2c);
 800525a:	6878      	ldr	r0, [r7, #4]
 800525c:	f7fd fbf2 	bl	8002a44 <HAL_I2C_MspDeInit>
#endif /* USE_HAL_I2C_REGISTER_CALLBACKS */

  hi2c->ErrorCode     = HAL_I2C_ERROR_NONE;
 8005260:	687b      	ldr	r3, [r7, #4]
 8005262:	2200      	movs	r2, #0
 8005264:	641a      	str	r2, [r3, #64]	@ 0x40
  hi2c->State         = HAL_I2C_STATE_RESET;
 8005266:	687b      	ldr	r3, [r7, #4]
 8005268:	2200      	movs	r2, #0
 800526a:	f883 203d 	strb.w	r2, [r3, #61]	@ 0x3d
  hi2c->PreviousState = I2C_STATE_NONE;
 800526e:	687b      	ldr	r3, [r7, #4]
 8005270:	2200      	movs	r2, #0
 8005272:	631a      	str	r2, [r3, #48]	@ 0x30
  hi2c->Mode          = HAL_I2C_MODE_NONE;
 8005274:	687b      	ldr	r3, [r7, #4]
 8005276:	2200      	movs	r2, #0
 8005278:	f883 203e 	strb.w	r2, [r3, #62]	@ 0x3e

  /* Release Lock */
  __HAL_UNLOCK(hi2c);
 800527c:	687b      	ldr	r3, [r7, #4]
 800527e:	2200      	movs	r2, #0
 8005280:	f883 203c 	strb.w	r2, [r3, #60]	@ 0x3c

  return HAL_OK;
 8005284:	2300      	movs	r3, #0
}
 8005286:	4618      	mov	r0, r3
 8005288:	3708      	adds	r7, #8
 800528a:	46bd      	mov	sp, r7
 800528c:	bd80      	pop	{r7, pc}
	...

08005290 <HAL_I2C_Master_Transmit>:
  * @param  Size Amount of data to be sent
  * @param  Timeout Timeout duration
  * @retval HAL status
  */
HAL_StatusTypeDef HAL_I2C_Master_Transmit(I2C_HandleTypeDef *hi2c, uint16_t DevAddress, uint8_t *pData, uint16_t Size, uint32_t Timeout)
{
 8005290:	b580      	push	{r7, lr}
 8005292:	b088      	sub	sp, #32
 8005294:	af02      	add	r7, sp, #8
 8005296:	60f8      	str	r0, [r7, #12]
 8005298:	607a      	str	r2, [r7, #4]
 800529a:	461a      	mov	r2, r3
 800529c:	460b      	mov	r3, r1
 800529e:	817b      	strh	r3, [r7, #10]
 80052a0:	4613      	mov	r3, r2
 80052a2:	813b      	strh	r3, [r7, #8]
  /* Init tickstart for timeout management*/
  uint32_t tickstart = HAL_GetTick();
 80052a4:	f7fd ffb8 	bl	8003218 <HAL_GetTick>
 80052a8:	6178      	str	r0, [r7, #20]

  if (hi2c->State == HAL_I2C_STATE_READY)
 80052aa:	68fb      	ldr	r3, [r7, #12]
 80052ac:	f893 303d 	ldrb.w	r3, [r3, #61]	@ 0x3d
 80052b0:	b2db      	uxtb	r3, r3
 80052b2:	2b20      	cmp	r3, #32
 80052b4:	f040 80e0 	bne.w	8005478 <HAL_I2C_Master_Transmit+0x1e8>
  {
    /* Wait until BUSY flag is reset */
    if (I2C_WaitOnFlagUntilTimeout(hi2c, I2C_FLAG_BUSY, SET, I2C_TIMEOUT_BUSY_FLAG, tickstart) != HAL_OK)
 80052b8:	697b      	ldr	r3, [r7, #20]
 80052ba:	9300      	str	r3, [sp, #0]
 80052bc:	2319      	movs	r3, #25
 80052be:	2201      	movs	r2, #1
 80052c0:	4970      	ldr	r1, [pc, #448]	@ (8005484 <HAL_I2C_Master_Transmit+0x1f4>)
 80052c2:	68f8      	ldr	r0, [r7, #12]
 80052c4:	f000 fc64 	bl	8005b90 <I2C_WaitOnFlagUntilTimeout>
 80052c8:	4603      	mov	r3, r0
 80052ca:	2b00      	cmp	r3, #0
 80052cc:	d001      	beq.n	80052d2 <HAL_I2C_Master_Transmit+0x42>
    {
      return HAL_BUSY;
 80052ce:	2302      	movs	r3, #2
 80052d0:	e0d3      	b.n	800547a <HAL_I2C_Master_Transmit+0x1ea>
    }

    /* Process Locked */
    __HAL_LOCK(hi2c);
 80052d2:	68fb      	ldr	r3, [r7, #12]
 80052d4:	f893 303c 	ldrb.w	r3, [r3, #60]	@ 0x3c
 80052d8:	2b01      	cmp	r3, #1
 80052da:	d101      	bne.n	80052e0 <HAL_I2C_Master_Transmit+0x50>
 80052dc:	2302      	movs	r3, #2
 80052de:	e0cc      	b.n	800547a <HAL_I2C_Master_Transmit+0x1ea>
 80052e0:	68fb      	ldr	r3, [r7, #12]
 80052e2:	2201      	movs	r2, #1
 80052e4:	f883 203c 	strb.w	r2, [r3, #60]	@ 0x3c

    /* Check if the I2C is already enabled */
    if ((hi2c->Instance->CR1 & I2C_CR1_PE) != I2C_CR1_PE)
 80052e8:	68fb      	ldr	r3, [r7, #12]
 80052ea:	681b      	ldr	r3, [r3, #0]
 80052ec:	681b      	ldr	r3, [r3, #0]
 80052ee:	f003 0301 	and.w	r3, r3, #1
 80052f2:	2b01      	cmp	r3, #1
 80052f4:	d007      	beq.n	8005306 <HAL_I2C_Master_Transmit+0x76>
    {
      /* Enable I2C peripheral */
      __HAL_I2C_ENABLE(hi2c);
 80052f6:	68fb      	ldr	r3, [r7, #12]
 80052f8:	681b      	ldr	r3, [r3, #0]
 80052fa:	681a      	ldr	r2, [r3, #0]
 80052fc:	68fb      	ldr	r3, [r7, #12]
 80052fe:	681b      	ldr	r3, [r3, #0]
 8005300:	f042 0201 	orr.w	r2, r2, #1
 8005304:	601a      	str	r2, [r3, #0]
    }

    /* Disable Pos */
    CLEAR_BIT(hi2c->Instance->CR1, I2C_CR1_POS);
 8005306:	68fb      	ldr	r3, [r7, #12]
 8005308:	681b      	ldr	r3, [r3, #0]
 800530a:	681a      	ldr	r2, [r3, #0]
 800530c:	68fb      	ldr	r3, [r7, #12]
 800530e:	681b      	ldr	r3, [r3, #0]
 8005310:	f422 6200 	bic.w	r2, r2, #2048	@ 0x800
 8005314:	601a      	str	r2, [r3, #0]

    hi2c->State       = HAL_I2C_STATE_BUSY_TX;
 8005316:	68fb      	ldr	r3, [r7, #12]
 8005318:	2221      	movs	r2, #33	@ 0x21
 800531a:	f883 203d 	strb.w	r2, [r3, #61]	@ 0x3d
    hi2c->Mode        = HAL_I2C_MODE_MASTER;
 800531e:	68fb      	ldr	r3, [r7, #12]
 8005320:	2210      	movs	r2, #16
 8005322:	f883 203e 	strb.w	r2, [r3, #62]	@ 0x3e
    hi2c->ErrorCode   = HAL_I2C_ERROR_NONE;
 8005326:	68fb      	ldr	r3, [r7, #12]
 8005328:	2200      	movs	r2, #0
 800532a:	641a      	str	r2, [r3, #64]	@ 0x40

    /* Prepare transfer parameters */
    hi2c->pBuffPtr    = pData;
 800532c:	68fb      	ldr	r3, [r7, #12]
 800532e:	687a      	ldr	r2, [r7, #4]
 8005330:	625a      	str	r2, [r3, #36]	@ 0x24
    hi2c->XferCount   = Size;
 8005332:	68fb      	ldr	r3, [r7, #12]
 8005334:	893a      	ldrh	r2, [r7, #8]
 8005336:	855a      	strh	r2, [r3, #42]	@ 0x2a
    hi2c->XferSize    = hi2c->XferCount;
 8005338:	68fb      	ldr	r3, [r7, #12]
 800533a:	8d5b      	ldrh	r3, [r3, #42]	@ 0x2a
 800533c:	b29a      	uxth	r2, r3
 800533e:	68fb      	ldr	r3, [r7, #12]
 8005340:	851a      	strh	r2, [r3, #40]	@ 0x28
    hi2c->XferOptions = I2C_NO_OPTION_FRAME;
 8005342:	68fb      	ldr	r3, [r7, #12]
 8005344:	4a50      	ldr	r2, [pc, #320]	@ (8005488 <HAL_I2C_Master_Transmit+0x1f8>)
 8005346:	62da      	str	r2, [r3, #44]	@ 0x2c

    /* Send Slave Address */
    if (I2C_MasterRequestWrite(hi2c, DevAddress, Timeout, tickstart) != HAL_OK)
 8005348:	8979      	ldrh	r1, [r7, #10]
 800534a:	697b      	ldr	r3, [r7, #20]
 800534c:	6a3a      	ldr	r2, [r7, #32]
 800534e:	68f8      	ldr	r0, [r7, #12]
 8005350:	f000 face 	bl	80058f0 <I2C_MasterRequestWrite>
 8005354:	4603      	mov	r3, r0
 8005356:	2b00      	cmp	r3, #0
 8005358:	d001      	beq.n	800535e <HAL_I2C_Master_Transmit+0xce>
    {
      return HAL_ERROR;
 800535a:	2301      	movs	r3, #1
 800535c:	e08d      	b.n	800547a <HAL_I2C_Master_Transmit+0x1ea>
    }

    /* Clear ADDR flag */
    __HAL_I2C_CLEAR_ADDRFLAG(hi2c);
 800535e:	2300      	movs	r3, #0
 8005360:	613b      	str	r3, [r7, #16]
 8005362:	68fb      	ldr	r3, [r7, #12]
 8005364:	681b      	ldr	r3, [r3, #0]
 8005366:	695b      	ldr	r3, [r3, #20]
 8005368:	613b      	str	r3, [r7, #16]
 800536a:	68fb      	ldr	r3, [r7, #12]
 800536c:	681b      	ldr	r3, [r3, #0]
 800536e:	699b      	ldr	r3, [r3, #24]
 8005370:	613b      	str	r3, [r7, #16]
 8005372:	693b      	ldr	r3, [r7, #16]

    while (hi2c->XferSize > 0U)
 8005374:	e066      	b.n	8005444 <HAL_I2C_Master_Transmit+0x1b4>
    {
      /* Wait until TXE flag is set */
      if (I2C_WaitOnTXEFlagUntilTimeout(hi2c, Timeout, tickstart) != HAL_OK)
 8005376:	697a      	ldr	r2, [r7, #20]
 8005378:	6a39      	ldr	r1, [r7, #32]
 800537a:	68f8      	ldr	r0, [r7, #12]
 800537c:	f000 fd22 	bl	8005dc4 <I2C_WaitOnTXEFlagUntilTimeout>
 8005380:	4603      	mov	r3, r0
 8005382:	2b00      	cmp	r3, #0
 8005384:	d00d      	beq.n	80053a2 <HAL_I2C_Master_Transmit+0x112>
      {
        if (hi2c->ErrorCode == HAL_I2C_ERROR_AF)
 8005386:	68fb      	ldr	r3, [r7, #12]
 8005388:	6c1b      	ldr	r3, [r3, #64]	@ 0x40
 800538a:	2b04      	cmp	r3, #4
 800538c:	d107      	bne.n	800539e <HAL_I2C_Master_Transmit+0x10e>
        {
          /* Generate Stop */
          SET_BIT(hi2c->Instance->CR1, I2C_CR1_STOP);
 800538e:	68fb      	ldr	r3, [r7, #12]
 8005390:	681b      	ldr	r3, [r3, #0]
 8005392:	681a      	ldr	r2, [r3, #0]
 8005394:	68fb      	ldr	r3, [r7, #12]
 8005396:	681b      	ldr	r3, [r3, #0]
 8005398:	f442 7200 	orr.w	r2, r2, #512	@ 0x200
 800539c:	601a      	str	r2, [r3, #0]
        }
        return HAL_ERROR;
 800539e:	2301      	movs	r3, #1
 80053a0:	e06b      	b.n	800547a <HAL_I2C_Master_Transmit+0x1ea>
      }

      /* Write data to DR */
      hi2c->Instance->DR = *hi2c->pBuffPtr;
 80053a2:	68fb      	ldr	r3, [r7, #12]
 80053a4:	6a5b      	ldr	r3, [r3, #36]	@ 0x24
 80053a6:	781a      	ldrb	r2, [r3, #0]
 80053a8:	68fb      	ldr	r3, [r7, #12]
 80053aa:	681b      	ldr	r3, [r3, #0]
 80053ac:	611a      	str	r2, [r3, #16]

      /* Increment Buffer pointer */
      hi2c->pBuffPtr++;
 80053ae:	68fb      	ldr	r3, [r7, #12]
 80053b0:	6a5b      	ldr	r3, [r3, #36]	@ 0x24
 80053b2:	1c5a      	adds	r2, r3, #1
 80053b4:	68fb      	ldr	r3, [r7, #12]
 80053b6:	625a      	str	r2, [r3, #36]	@ 0x24

      /* Update counter */
      hi2c->XferCount--;
 80053b8:	68fb      	ldr	r3, [r7, #12]
 80053ba:	8d5b      	ldrh	r3, [r3, #42]	@ 0x2a
 80053bc:	b29b      	uxth	r3, r3
 80053be:	3b01      	subs	r3, #1
 80053c0:	b29a      	uxth	r2, r3
 80053c2:	68fb      	ldr	r3, [r7, #12]
 80053c4:	855a      	strh	r2, [r3, #42]	@ 0x2a
      hi2c->XferSize--;
 80053c6:	68fb      	ldr	r3, [r7, #12]
 80053c8:	8d1b      	ldrh	r3, [r3, #40]	@ 0x28
 80053ca:	3b01      	subs	r3, #1
 80053cc:	b29a      	uxth	r2, r3
 80053ce:	68fb      	ldr	r3, [r7, #12]
 80053d0:	851a      	strh	r2, [r3, #40]	@ 0x28

      if ((__HAL_I2C_GET_FLAG(hi2c, I2C_FLAG_BTF) == SET) && (hi2c->XferSize != 0U))
 80053d2:	68fb      	ldr	r3, [r7, #12]
 80053d4:	681b      	ldr	r3, [r3, #0]
 80053d6:	695b      	ldr	r3, [r3, #20]
 80053d8:	f003 0304 	and.w	r3, r3, #4
 80053dc:	2b04      	cmp	r3, #4
 80053de:	d11b      	bne.n	8005418 <HAL_I2C_Master_Transmit+0x188>
 80053e0:	68fb      	ldr	r3, [r7, #12]
 80053e2:	8d1b      	ldrh	r3, [r3, #40]	@ 0x28
 80053e4:	2b00      	cmp	r3, #0
 80053e6:	d017      	beq.n	8005418 <HAL_I2C_Master_Transmit+0x188>
      {
        /* Write data to DR */
        hi2c->Instance->DR = *hi2c->pBuffPtr;
 80053e8:	68fb      	ldr	r3, [r7, #12]
 80053ea:	6a5b      	ldr	r3, [r3, #36]	@ 0x24
 80053ec:	781a      	ldrb	r2, [r3, #0]
 80053ee:	68fb      	ldr	r3, [r7, #12]
 80053f0:	681b      	ldr	r3, [r3, #0]
 80053f2:	611a      	str	r2, [r3, #16]

        /* Increment Buffer pointer */
        hi2c->pBuffPtr++;
 80053f4:	68fb      	ldr	r3, [r7, #12]
 80053f6:	6a5b      	ldr	r3, [r3, #36]	@ 0x24
 80053f8:	1c5a      	adds	r2, r3, #1
 80053fa:	68fb      	ldr	r3, [r7, #12]
 80053fc:	625a      	str	r2, [r3, #36]	@ 0x24

        /* Update counter */
        hi2c->XferCount--;
 80053fe:	68fb      	ldr	r3, [r7, #12]
 8005400:	8d5b      	ldrh	r3, [r3, #42]	@ 0x2a
 8005402:	b29b      	uxth	r3, r3
 8005404:	3b01      	subs	r3, #1
 8005406:	b29a      	uxth	r2, r3
 8005408:	68fb      	ldr	r3, [r7, #12]
 800540a:	855a      	strh	r2, [r3, #42]	@ 0x2a
        hi2c->XferSize--;
 800540c:	68fb      	ldr	r3, [r7, #12]
 800540e:	8d1b      	ldrh	r3, [r3, #40]	@ 0x28
 8005410:	3b01      	subs	r3, #1
 8005412:	b29a      	uxth	r2, r3
 8005414:	68fb      	ldr	r3, [r7, #12]
 8005416:	851a      	strh	r2, [r3, #40]	@ 0x28
      }

      /* Wait until BTF flag is set */
      if (I2C_WaitOnBTFFlagUntilTimeout(hi2c, Timeout, tickstart) != HAL_OK)
 8005418:	697a      	ldr	r2, [r7, #20]
 800541a:	6a39      	ldr	r1, [r7, #32]
 800541c:	68f8      	ldr	r0, [r7, #12]
 800541e:	f000 fd19 	bl	8005e54 <I2C_WaitOnBTFFlagUntilTimeout>
 8005422:	4603      	mov	r3, r0
 8005424:	2b00      	cmp	r3, #0
 8005426:	d00d      	beq.n	8005444 <HAL_I2C_Master_Transmit+0x1b4>
      {
        if (hi2c->ErrorCode == HAL_I2C_ERROR_AF)
 8005428:	68fb      	ldr	r3, [r7, #12]
 800542a:	6c1b      	ldr	r3, [r3, #64]	@ 0x40
 800542c:	2b04      	cmp	r3, #4
 800542e:	d107      	bne.n	8005440 <HAL_I2C_Master_Transmit+0x1b0>
        {
          /* Generate Stop */
          SET_BIT(hi2c->Instance->CR1, I2C_CR1_STOP);
 8005430:	68fb      	ldr	r3, [r7, #12]
 8005432:	681b      	ldr	r3, [r3, #0]
 8005434:	681a      	ldr	r2, [r3, #0]
 8005436:	68fb      	ldr	r3, [r7, #12]
 8005438:	681b      	ldr	r3, [r3, #0]
 800543a:	f442 7200 	orr.w	r2, r2, #512	@ 0x200
 800543e:	601a      	str	r2, [r3, #0]
        }
        return HAL_ERROR;
 8005440:	2301      	movs	r3, #1
 8005442:	e01a      	b.n	800547a <HAL_I2C_Master_Transmit+0x1ea>
    while (hi2c->XferSize > 0U)
 8005444:	68fb      	ldr	r3, [r7, #12]
 8005446:	8d1b      	ldrh	r3, [r3, #40]	@ 0x28
 8005448:	2b00      	cmp	r3, #0
 800544a:	d194      	bne.n	8005376 <HAL_I2C_Master_Transmit+0xe6>
      }
    }

    /* Generate Stop */
    SET_BIT(hi2c->Instance->CR1, I2C_CR1_STOP);
 800544c:	68fb      	ldr	r3, [r7, #12]
 800544e:	681b      	ldr	r3, [r3, #0]
 8005450:	681a      	ldr	r2, [r3, #0]
 8005452:	68fb      	ldr	r3, [r7, #12]
 8005454:	681b      	ldr	r3, [r3, #0]
 8005456:	f442 7200 	orr.w	r2, r2, #512	@ 0x200
 800545a:	601a      	str	r2, [r3, #0]

    hi2c->State = HAL_I2C_STATE_READY;
 800545c:	68fb      	ldr	r3, [r7, #12]
 800545e:	2220      	movs	r2, #32
 8005460:	f883 203d 	strb.w	r2, [r3, #61]	@ 0x3d
    hi2c->Mode = HAL_I2C_MODE_NONE;
 8005464:	68fb      	ldr	r3, [r7, #12]
 8005466:	2200      	movs	r2, #0
 8005468:	f883 203e 	strb.w	r2, [r3, #62]	@ 0x3e

    /* Process Unlocked */
    __HAL_UNLOCK(hi2c);
 800546c:	68fb      	ldr	r3, [r7, #12]
 800546e:	2200      	movs	r2, #0
 8005470:	f883 203c 	strb.w	r2, [r3, #60]	@ 0x3c

    return HAL_OK;
 8005474:	2300      	movs	r3, #0
 8005476:	e000      	b.n	800547a <HAL_I2C_Master_Transmit+0x1ea>
  }
  else
  {
    return HAL_BUSY;
 8005478:	2302      	movs	r3, #2
  }
}
 800547a:	4618      	mov	r0, r3
 800547c:	3718      	adds	r7, #24
 800547e:	46bd      	mov	sp, r7
 8005480:	bd80      	pop	{r7, pc}
 8005482:	bf00      	nop
 8005484:	00100002 	.word	0x00100002
 8005488:	ffff0000 	.word	0xffff0000

0800548c <HAL_I2C_Master_Receive>:
  * @param  Size Amount of data to be sent
  * @param  Timeout Timeout duration
  * @retval HAL status
  */
HAL_StatusTypeDef HAL_I2C_Master_Receive(I2C_HandleTypeDef *hi2c, uint16_t DevAddress, uint8_t *pData, uint16_t Size, uint32_t Timeout)
{
 800548c:	b580      	push	{r7, lr}
 800548e:	b08c      	sub	sp, #48	@ 0x30
 8005490:	af02      	add	r7, sp, #8
 8005492:	60f8      	str	r0, [r7, #12]
 8005494:	607a      	str	r2, [r7, #4]
 8005496:	461a      	mov	r2, r3
 8005498:	460b      	mov	r3, r1
 800549a:	817b      	strh	r3, [r7, #10]
 800549c:	4613      	mov	r3, r2
 800549e:	813b      	strh	r3, [r7, #8]
  /* Init tickstart for timeout management*/
  uint32_t tickstart = HAL_GetTick();
 80054a0:	f7fd feba 	bl	8003218 <HAL_GetTick>
 80054a4:	6278      	str	r0, [r7, #36]	@ 0x24

  if (hi2c->State == HAL_I2C_STATE_READY)
 80054a6:	68fb      	ldr	r3, [r7, #12]
 80054a8:	f893 303d 	ldrb.w	r3, [r3, #61]	@ 0x3d
 80054ac:	b2db      	uxtb	r3, r3
 80054ae:	2b20      	cmp	r3, #32
 80054b0:	f040 8217 	bne.w	80058e2 <HAL_I2C_Master_Receive+0x456>
  {
    /* Wait until BUSY flag is reset */
    if (I2C_WaitOnFlagUntilTimeout(hi2c, I2C_FLAG_BUSY, SET, I2C_TIMEOUT_BUSY_FLAG, tickstart) != HAL_OK)
 80054b4:	6a7b      	ldr	r3, [r7, #36]	@ 0x24
 80054b6:	9300      	str	r3, [sp, #0]
 80054b8:	2319      	movs	r3, #25
 80054ba:	2201      	movs	r2, #1
 80054bc:	497c      	ldr	r1, [pc, #496]	@ (80056b0 <HAL_I2C_Master_Receive+0x224>)
 80054be:	68f8      	ldr	r0, [r7, #12]
 80054c0:	f000 fb66 	bl	8005b90 <I2C_WaitOnFlagUntilTimeout>
 80054c4:	4603      	mov	r3, r0
 80054c6:	2b00      	cmp	r3, #0
 80054c8:	d001      	beq.n	80054ce <HAL_I2C_Master_Receive+0x42>
    {
      return HAL_BUSY;
 80054ca:	2302      	movs	r3, #2
 80054cc:	e20a      	b.n	80058e4 <HAL_I2C_Master_Receive+0x458>
    }

    /* Process Locked */
    __HAL_LOCK(hi2c);
 80054ce:	68fb      	ldr	r3, [r7, #12]
 80054d0:	f893 303c 	ldrb.w	r3, [r3, #60]	@ 0x3c
 80054d4:	2b01      	cmp	r3, #1
 80054d6:	d101      	bne.n	80054dc <HAL_I2C_Master_Receive+0x50>
 80054d8:	2302      	movs	r3, #2
 80054da:	e203      	b.n	80058e4 <HAL_I2C_Master_Receive+0x458>
 80054dc:	68fb      	ldr	r3, [r7, #12]
 80054de:	2201      	movs	r2, #1
 80054e0:	f883 203c 	strb.w	r2, [r3, #60]	@ 0x3c

    /* Check if the I2C is already enabled */
    if ((hi2c->Instance->CR1 & I2C_CR1_PE) != I2C_CR1_PE)
 80054e4:	68fb      	ldr	r3, [r7, #12]
 80054e6:	681b      	ldr	r3, [r3, #0]
 80054e8:	681b      	ldr	r3, [r3, #0]
 80054ea:	f003 0301 	and.w	r3, r3, #1
 80054ee:	2b01      	cmp	r3, #1
 80054f0:	d007      	beq.n	8005502 <HAL_I2C_Master_Receive+0x76>
    {
      /* Enable I2C peripheral */
      __HAL_I2C_ENABLE(hi2c);
 80054f2:	68fb      	ldr	r3, [r7, #12]
 80054f4:	681b      	ldr	r3, [r3, #0]
 80054f6:	681a      	ldr	r2, [r3, #0]
 80054f8:	68fb      	ldr	r3, [r7, #12]
 80054fa:	681b      	ldr	r3, [r3, #0]
 80054fc:	f042 0201 	orr.w	r2, r2, #1
 8005500:	601a      	str	r2, [r3, #0]
    }

    /* Disable Pos */
    CLEAR_BIT(hi2c->Instance->CR1, I2C_CR1_POS);
 8005502:	68fb      	ldr	r3, [r7, #12]
 8005504:	681b      	ldr	r3, [r3, #0]
 8005506:	681a      	ldr	r2, [r3, #0]
 8005508:	68fb      	ldr	r3, [r7, #12]
 800550a:	681b      	ldr	r3, [r3, #0]
 800550c:	f422 6200 	bic.w	r2, r2, #2048	@ 0x800
 8005510:	601a      	str	r2, [r3, #0]

    hi2c->State       = HAL_I2C_STATE_BUSY_RX;
 8005512:	68fb      	ldr	r3, [r7, #12]
 8005514:	2222      	movs	r2, #34	@ 0x22
 8005516:	f883 203d 	strb.w	r2, [r3, #61]	@ 0x3d
    hi2c->Mode        = HAL_I2C_MODE_MASTER;
 800551a:	68fb      	ldr	r3, [r7, #12]
 800551c:	2210      	movs	r2, #16
 800551e:	f883 203e 	strb.w	r2, [r3, #62]	@ 0x3e
    hi2c->ErrorCode   = HAL_I2C_ERROR_NONE;
 8005522:	68fb      	ldr	r3, [r7, #12]
 8005524:	2200      	movs	r2, #0
 8005526:	641a      	str	r2, [r3, #64]	@ 0x40

    /* Prepare transfer parameters */
    hi2c->pBuffPtr    = pData;
 8005528:	68fb      	ldr	r3, [r7, #12]
 800552a:	687a      	ldr	r2, [r7, #4]
 800552c:	625a      	str	r2, [r3, #36]	@ 0x24
    hi2c->XferCount   = Size;
 800552e:	68fb      	ldr	r3, [r7, #12]
 8005530:	893a      	ldrh	r2, [r7, #8]
 8005532:	855a      	strh	r2, [r3, #42]	@ 0x2a
    hi2c->XferSize    = hi2c->XferCount;
 8005534:	68fb      	ldr	r3, [r7, #12]
 8005536:	8d5b      	ldrh	r3, [r3, #42]	@ 0x2a
 8005538:	b29a      	uxth	r2, r3
 800553a:	68fb      	ldr	r3, [r7, #12]
 800553c:	851a      	strh	r2, [r3, #40]	@ 0x28
    hi2c->XferOptions = I2C_NO_OPTION_FRAME;
 800553e:	68fb      	ldr	r3, [r7, #12]
 8005540:	4a5c      	ldr	r2, [pc, #368]	@ (80056b4 <HAL_I2C_Master_Receive+0x228>)
 8005542:	62da      	str	r2, [r3, #44]	@ 0x2c

    /* Send Slave Address */
    if (I2C_MasterRequestRead(hi2c, DevAddress, Timeout, tickstart) != HAL_OK)
 8005544:	8979      	ldrh	r1, [r7, #10]
 8005546:	6a7b      	ldr	r3, [r7, #36]	@ 0x24
 8005548:	6b3a      	ldr	r2, [r7, #48]	@ 0x30
 800554a:	68f8      	ldr	r0, [r7, #12]
 800554c:	f000 fa52 	bl	80059f4 <I2C_MasterRequestRead>
 8005550:	4603      	mov	r3, r0
 8005552:	2b00      	cmp	r3, #0
 8005554:	d001      	beq.n	800555a <HAL_I2C_Master_Receive+0xce>
    {
      return HAL_ERROR;
 8005556:	2301      	movs	r3, #1
 8005558:	e1c4      	b.n	80058e4 <HAL_I2C_Master_Receive+0x458>
    }

    if (hi2c->XferSize == 0U)
 800555a:	68fb      	ldr	r3, [r7, #12]
 800555c:	8d1b      	ldrh	r3, [r3, #40]	@ 0x28
 800555e:	2b00      	cmp	r3, #0
 8005560:	d113      	bne.n	800558a <HAL_I2C_Master_Receive+0xfe>
    {
      /* Clear ADDR flag */
      __HAL_I2C_CLEAR_ADDRFLAG(hi2c);
 8005562:	2300      	movs	r3, #0
 8005564:	623b      	str	r3, [r7, #32]
 8005566:	68fb      	ldr	r3, [r7, #12]
 8005568:	681b      	ldr	r3, [r3, #0]
 800556a:	695b      	ldr	r3, [r3, #20]
 800556c:	623b      	str	r3, [r7, #32]
 800556e:	68fb      	ldr	r3, [r7, #12]
 8005570:	681b      	ldr	r3, [r3, #0]
 8005572:	699b      	ldr	r3, [r3, #24]
 8005574:	623b      	str	r3, [r7, #32]
 8005576:	6a3b      	ldr	r3, [r7, #32]

      /* Generate Stop */
      SET_BIT(hi2c->Instance->CR1, I2C_CR1_STOP);
 8005578:	68fb      	ldr	r3, [r7, #12]
 800557a:	681b      	ldr	r3, [r3, #0]
 800557c:	681a      	ldr	r2, [r3, #0]
 800557e:	68fb      	ldr	r3, [r7, #12]
 8005580:	681b      	ldr	r3, [r3, #0]
 8005582:	f442 7200 	orr.w	r2, r2, #512	@ 0x200
 8005586:	601a      	str	r2, [r3, #0]
 8005588:	e198      	b.n	80058bc <HAL_I2C_Master_Receive+0x430>
    }
    else if (hi2c->XferSize == 1U)
 800558a:	68fb      	ldr	r3, [r7, #12]
 800558c:	8d1b      	ldrh	r3, [r3, #40]	@ 0x28
 800558e:	2b01      	cmp	r3, #1
 8005590:	d11b      	bne.n	80055ca <HAL_I2C_Master_Receive+0x13e>
    {
      /* Disable Acknowledge */
      CLEAR_BIT(hi2c->Instance->CR1, I2C_CR1_ACK);
 8005592:	68fb      	ldr	r3, [r7, #12]
 8005594:	681b      	ldr	r3, [r3, #0]
 8005596:	681a      	ldr	r2, [r3, #0]
 8005598:	68fb      	ldr	r3, [r7, #12]
 800559a:	681b      	ldr	r3, [r3, #0]
 800559c:	f422 6280 	bic.w	r2, r2, #1024	@ 0x400
 80055a0:	601a      	str	r2, [r3, #0]

      /* Clear ADDR flag */
      __HAL_I2C_CLEAR_ADDRFLAG(hi2c);
 80055a2:	2300      	movs	r3, #0
 80055a4:	61fb      	str	r3, [r7, #28]
 80055a6:	68fb      	ldr	r3, [r7, #12]
 80055a8:	681b      	ldr	r3, [r3, #0]
 80055aa:	695b      	ldr	r3, [r3, #20]
 80055ac:	61fb      	str	r3, [r7, #28]
 80055ae:	68fb      	ldr	r3, [r7, #12]
 80055b0:	681b      	ldr	r3, [r3, #0]
 80055b2:	699b      	ldr	r3, [r3, #24]
 80055b4:	61fb      	str	r3, [r7, #28]
 80055b6:	69fb      	ldr	r3, [r7, #28]

      /* Generate Stop */
      SET_BIT(hi2c->Instance->CR1, I2C_CR1_STOP);
 80055b8:	68fb      	ldr	r3, [r7, #12]
 80055ba:	681b      	ldr	r3, [r3, #0]
 80055bc:	681a      	ldr	r2, [r3, #0]
 80055be:	68fb      	ldr	r3, [r7, #12]
 80055c0:	681b      	ldr	r3, [r3, #0]
 80055c2:	f442 7200 	orr.w	r2, r2, #512	@ 0x200
 80055c6:	601a      	str	r2, [r3, #0]
 80055c8:	e178      	b.n	80058bc <HAL_I2C_Master_Receive+0x430>
    }
    else if (hi2c->XferSize == 2U)
 80055ca:	68fb      	ldr	r3, [r7, #12]
 80055cc:	8d1b      	ldrh	r3, [r3, #40]	@ 0x28
 80055ce:	2b02      	cmp	r3, #2
 80055d0:	d11b      	bne.n	800560a <HAL_I2C_Master_Receive+0x17e>
    {
      /* Disable Acknowledge */
      CLEAR_BIT(hi2c->Instance->CR1, I2C_CR1_ACK);
 80055d2:	68fb      	ldr	r3, [r7, #12]
 80055d4:	681b      	ldr	r3, [r3, #0]
 80055d6:	681a      	ldr	r2, [r3, #0]
 80055d8:	68fb      	ldr	r3, [r7, #12]
 80055da:	681b      	ldr	r3, [r3, #0]
 80055dc:	f422 6280 	bic.w	r2, r2, #1024	@ 0x400
 80055e0:	601a      	str	r2, [r3, #0]

      /* Enable Pos */
      SET_BIT(hi2c->Instance->CR1, I2C_CR1_POS);
 80055e2:	68fb      	ldr	r3, [r7, #12]
 80055e4:	681b      	ldr	r3, [r3, #0]
 80055e6:	681a      	ldr	r2, [r3, #0]
 80055e8:	68fb      	ldr	r3, [r7, #12]
 80055ea:	681b      	ldr	r3, [r3, #0]
 80055ec:	f442 6200 	orr.w	r2, r2, #2048	@ 0x800
 80055f0:	601a      	str	r2, [r3, #0]

      /* Clear ADDR flag */
      __HAL_I2C_CLEAR_ADDRFLAG(hi2c);
 80055f2:	2300      	movs	r3, #0
 80055f4:	61bb      	str	r3, [r7, #24]
 80055f6:	68fb      	ldr	r3, [r7, #12]
 80055f8:	681b      	ldr	r3, [r3, #0]
 80055fa:	695b      	ldr	r3, [r3, #20]
 80055fc:	61bb      	str	r3, [r7, #24]
 80055fe:	68fb      	ldr	r3, [r7, #12]
 8005600:	681b      	ldr	r3, [r3, #0]
 8005602:	699b      	ldr	r3, [r3, #24]
 8005604:	61bb      	str	r3, [r7, #24]
 8005606:	69bb      	ldr	r3, [r7, #24]
 8005608:	e158      	b.n	80058bc <HAL_I2C_Master_Receive+0x430>
    }
    else
    {
      /* Enable Acknowledge */
      SET_BIT(hi2c->Instance->CR1, I2C_CR1_ACK);
 800560a:	68fb      	ldr	r3, [r7, #12]
 800560c:	681b      	ldr	r3, [r3, #0]
 800560e:	681a      	ldr	r2, [r3, #0]
 8005610:	68fb      	ldr	r3, [r7, #12]
 8005612:	681b      	ldr	r3, [r3, #0]
 8005614:	f442 6280 	orr.w	r2, r2, #1024	@ 0x400
 8005618:	601a      	str	r2, [r3, #0]

      /* Clear ADDR flag */
      __HAL_I2C_CLEAR_ADDRFLAG(hi2c);
 800561a:	2300      	movs	r3, #0
 800561c:	617b      	str	r3, [r7, #20]
 800561e:	68fb      	ldr	r3, [r7, #12]
 8005620:	681b      	ldr	r3, [r3, #0]
 8005622:	695b      	ldr	r3, [r3, #20]
 8005624:	617b      	str	r3, [r7, #20]
 8005626:	68fb      	ldr	r3, [r7, #12]
 8005628:	681b      	ldr	r3, [r3, #0]
 800562a:	699b      	ldr	r3, [r3, #24]
 800562c:	617b      	str	r3, [r7, #20]
 800562e:	697b      	ldr	r3, [r7, #20]
    }

    while (hi2c->XferSize > 0U)
 8005630:	e144      	b.n	80058bc <HAL_I2C_Master_Receive+0x430>
    {
      if (hi2c->XferSize <= 3U)
 8005632:	68fb      	ldr	r3, [r7, #12]
 8005634:	8d1b      	ldrh	r3, [r3, #40]	@ 0x28
 8005636:	2b03      	cmp	r3, #3
 8005638:	f200 80f1 	bhi.w	800581e <HAL_I2C_Master_Receive+0x392>
      {
        /* One byte */
        if (hi2c->XferSize == 1U)
 800563c:	68fb      	ldr	r3, [r7, #12]
 800563e:	8d1b      	ldrh	r3, [r3, #40]	@ 0x28
 8005640:	2b01      	cmp	r3, #1
 8005642:	d123      	bne.n	800568c <HAL_I2C_Master_Receive+0x200>
        {
          /* Wait until RXNE flag is set */
          if (I2C_WaitOnRXNEFlagUntilTimeout(hi2c, Timeout, tickstart) != HAL_OK)
 8005644:	6a7a      	ldr	r2, [r7, #36]	@ 0x24
 8005646:	6b39      	ldr	r1, [r7, #48]	@ 0x30
 8005648:	68f8      	ldr	r0, [r7, #12]
 800564a:	f000 fc4b 	bl	8005ee4 <I2C_WaitOnRXNEFlagUntilTimeout>
 800564e:	4603      	mov	r3, r0
 8005650:	2b00      	cmp	r3, #0
 8005652:	d001      	beq.n	8005658 <HAL_I2C_Master_Receive+0x1cc>
          {
            return HAL_ERROR;
 8005654:	2301      	movs	r3, #1
 8005656:	e145      	b.n	80058e4 <HAL_I2C_Master_Receive+0x458>
          }

          /* Read data from DR */
          *hi2c->pBuffPtr = (uint8_t)hi2c->Instance->DR;
 8005658:	68fb      	ldr	r3, [r7, #12]
 800565a:	681b      	ldr	r3, [r3, #0]
 800565c:	691a      	ldr	r2, [r3, #16]
 800565e:	68fb      	ldr	r3, [r7, #12]
 8005660:	6a5b      	ldr	r3, [r3, #36]	@ 0x24
 8005662:	b2d2      	uxtb	r2, r2
 8005664:	701a      	strb	r2, [r3, #0]

          /* Increment Buffer pointer */
          hi2c->pBuffPtr++;
 8005666:	68fb      	ldr	r3, [r7, #12]
 8005668:	6a5b      	ldr	r3, [r3, #36]	@ 0x24
 800566a:	1c5a      	adds	r2, r3, #1
 800566c:	68fb      	ldr	r3, [r7, #12]
 800566e:	625a      	str	r2, [r3, #36]	@ 0x24

          /* Update counter */
          hi2c->XferSize--;
 8005670:	68fb      	ldr	r3, [r7, #12]
 8005672:	8d1b      	ldrh	r3, [r3, #40]	@ 0x28
 8005674:	3b01      	subs	r3, #1
 8005676:	b29a      	uxth	r2, r3
 8005678:	68fb      	ldr	r3, [r7, #12]
 800567a:	851a      	strh	r2, [r3, #40]	@ 0x28
          hi2c->XferCount--;
 800567c:	68fb      	ldr	r3, [r7, #12]
 800567e:	8d5b      	ldrh	r3, [r3, #42]	@ 0x2a
 8005680:	b29b      	uxth	r3, r3
 8005682:	3b01      	subs	r3, #1
 8005684:	b29a      	uxth	r2, r3
 8005686:	68fb      	ldr	r3, [r7, #12]
 8005688:	855a      	strh	r2, [r3, #42]	@ 0x2a
 800568a:	e117      	b.n	80058bc <HAL_I2C_Master_Receive+0x430>
        }
        /* Two bytes */
        else if (hi2c->XferSize == 2U)
 800568c:	68fb      	ldr	r3, [r7, #12]
 800568e:	8d1b      	ldrh	r3, [r3, #40]	@ 0x28
 8005690:	2b02      	cmp	r3, #2
 8005692:	d14e      	bne.n	8005732 <HAL_I2C_Master_Receive+0x2a6>
        {
          /* Wait until BTF flag is set */
          if (I2C_WaitOnFlagUntilTimeout(hi2c, I2C_FLAG_BTF, RESET, Timeout, tickstart) != HAL_OK)
 8005694:	6a7b      	ldr	r3, [r7, #36]	@ 0x24
 8005696:	9300      	str	r3, [sp, #0]
 8005698:	6b3b      	ldr	r3, [r7, #48]	@ 0x30
 800569a:	2200      	movs	r2, #0
 800569c:	4906      	ldr	r1, [pc, #24]	@ (80056b8 <HAL_I2C_Master_Receive+0x22c>)
 800569e:	68f8      	ldr	r0, [r7, #12]
 80056a0:	f000 fa76 	bl	8005b90 <I2C_WaitOnFlagUntilTimeout>
 80056a4:	4603      	mov	r3, r0
 80056a6:	2b00      	cmp	r3, #0
 80056a8:	d008      	beq.n	80056bc <HAL_I2C_Master_Receive+0x230>
          {
            return HAL_ERROR;
 80056aa:	2301      	movs	r3, #1
 80056ac:	e11a      	b.n	80058e4 <HAL_I2C_Master_Receive+0x458>
 80056ae:	bf00      	nop
 80056b0:	00100002 	.word	0x00100002
 80056b4:	ffff0000 	.word	0xffff0000
 80056b8:	00010004 	.word	0x00010004
          }

          /* Generate Stop */
          SET_BIT(hi2c->Instance->CR1, I2C_CR1_STOP);
 80056bc:	68fb      	ldr	r3, [r7, #12]
 80056be:	681b      	ldr	r3, [r3, #0]
 80056c0:	681a      	ldr	r2, [r3, #0]
 80056c2:	68fb      	ldr	r3, [r7, #12]
 80056c4:	681b      	ldr	r3, [r3, #0]
 80056c6:	f442 7200 	orr.w	r2, r2, #512	@ 0x200
 80056ca:	601a      	str	r2, [r3, #0]

          /* Read data from DR */
          *hi2c->pBuffPtr = (uint8_t)hi2c->Instance->DR;
 80056cc:	68fb      	ldr	r3, [r7, #12]
 80056ce:	681b      	ldr	r3, [r3, #0]
 80056d0:	691a      	ldr	r2, [r3, #16]
 80056d2:	68fb      	ldr	r3, [r7, #12]
 80056d4:	6a5b      	ldr	r3, [r3, #36]	@ 0x24
 80056d6:	b2d2      	uxtb	r2, r2
 80056d8:	701a      	strb	r2, [r3, #0]

          /* Increment Buffer pointer */
          hi2c->pBuffPtr++;
 80056da:	68fb      	ldr	r3, [r7, #12]
 80056dc:	6a5b      	ldr	r3, [r3, #36]	@ 0x24
 80056de:	1c5a      	adds	r2, r3, #1
 80056e0:	68fb      	ldr	r3, [r7, #12]
 80056e2:	625a      	str	r2, [r3, #36]	@ 0x24

          /* Update counter */
          hi2c->XferSize--;
 80056e4:	68fb      	ldr	r3, [r7, #12]
 80056e6:	8d1b      	ldrh	r3, [r3, #40]	@ 0x28
 80056e8:	3b01      	subs	r3, #1
 80056ea:	b29a      	uxth	r2, r3
 80056ec:	68fb      	ldr	r3, [r7, #12]
 80056ee:	851a      	strh	r2, [r3, #40]	@ 0x28
          hi2c->XferCount--;
 80056f0:	68fb      	ldr	r3, [r7, #12]
 80056f2:	8d5b      	ldrh	r3, [r3, #42]	@ 0x2a
 80056f4:	b29b      	uxth	r3, r3
 80056f6:	3b01      	subs	r3, #1
 80056f8:	b29a      	uxth	r2, r3
 80056fa:	68fb      	ldr	r3, [r7, #12]
 80056fc:	855a      	strh	r2, [r3, #42]	@ 0x2a

          /* Read data from DR */
          *hi2c->pBuffPtr = (uint8_t)hi2c->Instance->DR;
 80056fe:	68fb      	ldr	r3, [r7, #12]
 8005700:	681b      	ldr	r3, [r3, #0]
 8005702:	691a      	ldr	r2, [r3, #16]
 8005704:	68fb      	ldr	r3, [r7, #12]
 8005706:	6a5b      	ldr	r3, [r3, #36]	@ 0x24
 8005708:	b2d2      	uxtb	r2, r2
 800570a:	701a      	strb	r2, [r3, #0]

          /* Increment Buffer pointer */
          hi2c->pBuffPtr++;
 800570c:	68fb      	ldr	r3, [r7, #12]
 800570e:	6a5b      	ldr	r3, [r3, #36]	@ 0x24
 8005710:	1c5a      	adds	r2, r3, #1
 8005712:	68fb      	ldr	r3, [r7, #12]
 8005714:	625a      	str	r2, [r3, #36]	@ 0x24

          /* Update counter */
          hi2c->XferSize--;
 8005716:	68fb      	ldr	r3, [r7, #12]
 8005718:	8d1b      	ldrh	r3, [r3, #40]	@ 0x28
 800571a:	3b01      	subs	r3, #1
 800571c:	b29a      	uxth	r2, r3
 800571e:	68fb      	ldr	r3, [r7, #12]
 8005720:	851a      	strh	r2, [r3, #40]	@ 0x28
          hi2c->XferCount--;
 8005722:	68fb      	ldr	r3, [r7, #12]
 8005724:	8d5b      	ldrh	r3, [r3, #42]	@ 0x2a
 8005726:	b29b      	uxth	r3, r3
 8005728:	3b01      	subs	r3, #1
 800572a:	b29a      	uxth	r2, r3
 800572c:	68fb      	ldr	r3, [r7, #12]
 800572e:	855a      	strh	r2, [r3, #42]	@ 0x2a
 8005730:	e0c4      	b.n	80058bc <HAL_I2C_Master_Receive+0x430>
        }
        /* 3 Last bytes */
        else
        {
          /* Wait until BTF flag is set */
          if (I2C_WaitOnFlagUntilTimeout(hi2c, I2C_FLAG_BTF, RESET, Timeout, tickstart) != HAL_OK)
 8005732:	6a7b      	ldr	r3, [r7, #36]	@ 0x24
 8005734:	9300      	str	r3, [sp, #0]
 8005736:	6b3b      	ldr	r3, [r7, #48]	@ 0x30
 8005738:	2200      	movs	r2, #0
 800573a:	496c      	ldr	r1, [pc, #432]	@ (80058ec <HAL_I2C_Master_Receive+0x460>)
 800573c:	68f8      	ldr	r0, [r7, #12]
 800573e:	f000 fa27 	bl	8005b90 <I2C_WaitOnFlagUntilTimeout>
 8005742:	4603      	mov	r3, r0
 8005744:	2b00      	cmp	r3, #0
 8005746:	d001      	beq.n	800574c <HAL_I2C_Master_Receive+0x2c0>
          {
            return HAL_ERROR;
 8005748:	2301      	movs	r3, #1
 800574a:	e0cb      	b.n	80058e4 <HAL_I2C_Master_Receive+0x458>
          }

          /* Disable Acknowledge */
          CLEAR_BIT(hi2c->Instance->CR1, I2C_CR1_ACK);
 800574c:	68fb      	ldr	r3, [r7, #12]
 800574e:	681b      	ldr	r3, [r3, #0]
 8005750:	681a      	ldr	r2, [r3, #0]
 8005752:	68fb      	ldr	r3, [r7, #12]
 8005754:	681b      	ldr	r3, [r3, #0]
 8005756:	f422 6280 	bic.w	r2, r2, #1024	@ 0x400
 800575a:	601a      	str	r2, [r3, #0]

          /* Read data from DR */
          *hi2c->pBuffPtr = (uint8_t)hi2c->Instance->DR;
 800575c:	68fb      	ldr	r3, [r7, #12]
 800575e:	681b      	ldr	r3, [r3, #0]
 8005760:	691a      	ldr	r2, [r3, #16]
 8005762:	68fb      	ldr	r3, [r7, #12]
 8005764:	6a5b      	ldr	r3, [r3, #36]	@ 0x24
 8005766:	b2d2      	uxtb	r2, r2
 8005768:	701a      	strb	r2, [r3, #0]

          /* Increment Buffer pointer */
          hi2c->pBuffPtr++;
 800576a:	68fb      	ldr	r3, [r7, #12]
 800576c:	6a5b      	ldr	r3, [r3, #36]	@ 0x24
 800576e:	1c5a      	adds	r2, r3, #1
 8005770:	68fb      	ldr	r3, [r7, #12]
 8005772:	625a      	str	r2, [r3, #36]	@ 0x24

          /* Update counter */
          hi2c->XferSize--;
 8005774:	68fb      	ldr	r3, [r7, #12]
 8005776:	8d1b      	ldrh	r3, [r3, #40]	@ 0x28
 8005778:	3b01      	subs	r3, #1
 800577a:	b29a      	uxth	r2, r3
 800577c:	68fb      	ldr	r3, [r7, #12]
 800577e:	851a      	strh	r2, [r3, #40]	@ 0x28
          hi2c->XferCount--;
 8005780:	68fb      	ldr	r3, [r7, #12]
 8005782:	8d5b      	ldrh	r3, [r3, #42]	@ 0x2a
 8005784:	b29b      	uxth	r3, r3
 8005786:	3b01      	subs	r3, #1
 8005788:	b29a      	uxth	r2, r3
 800578a:	68fb      	ldr	r3, [r7, #12]
 800578c:	855a      	strh	r2, [r3, #42]	@ 0x2a

          /* Wait until BTF flag is set */
          if (I2C_WaitOnFlagUntilTimeout(hi2c, I2C_FLAG_BTF, RESET, Timeout, tickstart) != HAL_OK)
 800578e:	6a7b      	ldr	r3, [r7, #36]	@ 0x24
 8005790:	9300      	str	r3, [sp, #0]
 8005792:	6b3b      	ldr	r3, [r7, #48]	@ 0x30
 8005794:	2200      	movs	r2, #0
 8005796:	4955      	ldr	r1, [pc, #340]	@ (80058ec <HAL_I2C_Master_Receive+0x460>)
 8005798:	68f8      	ldr	r0, [r7, #12]
 800579a:	f000 f9f9 	bl	8005b90 <I2C_WaitOnFlagUntilTimeout>
 800579e:	4603      	mov	r3, r0
 80057a0:	2b00      	cmp	r3, #0
 80057a2:	d001      	beq.n	80057a8 <HAL_I2C_Master_Receive+0x31c>
          {
            return HAL_ERROR;
 80057a4:	2301      	movs	r3, #1
 80057a6:	e09d      	b.n	80058e4 <HAL_I2C_Master_Receive+0x458>
          }

          /* Generate Stop */
          SET_BIT(hi2c->Instance->CR1, I2C_CR1_STOP);
 80057a8:	68fb      	ldr	r3, [r7, #12]
 80057aa:	681b      	ldr	r3, [r3, #0]
 80057ac:	681a      	ldr	r2, [r3, #0]
 80057ae:	68fb      	ldr	r3, [r7, #12]
 80057b0:	681b      	ldr	r3, [r3, #0]
 80057b2:	f442 7200 	orr.w	r2, r2, #512	@ 0x200
 80057b6:	601a      	str	r2, [r3, #0]

          /* Read data from DR */
          *hi2c->pBuffPtr = (uint8_t)hi2c->Instance->DR;
 80057b8:	68fb      	ldr	r3, [r7, #12]
 80057ba:	681b      	ldr	r3, [r3, #0]
 80057bc:	691a      	ldr	r2, [r3, #16]
 80057be:	68fb      	ldr	r3, [r7, #12]
 80057c0:	6a5b      	ldr	r3, [r3, #36]	@ 0x24
 80057c2:	b2d2      	uxtb	r2, r2
 80057c4:	701a      	strb	r2, [r3, #0]

          /* Increment Buffer pointer */
          hi2c->pBuffPtr++;
 80057c6:	68fb      	ldr	r3, [r7, #12]
 80057c8:	6a5b      	ldr	r3, [r3, #36]	@ 0x24
 80057ca:	1c5a      	adds	r2, r3, #1
 80057cc:	68fb      	ldr	r3, [r7, #12]
 80057ce:	625a      	str	r2, [r3, #36]	@ 0x24

          /* Update counter */
          hi2c->XferSize--;
 80057d0:	68fb      	ldr	r3, [r7, #12]
 80057d2:	8d1b      	ldrh	r3, [r3, #40]	@ 0x28
 80057d4:	3b01      	subs	r3, #1
 80057d6:	b29a      	uxth	r2, r3
 80057d8:	68fb      	ldr	r3, [r7, #12]
 80057da:	851a      	strh	r2, [r3, #40]	@ 0x28
          hi2c->XferCount--;
 80057dc:	68fb      	ldr	r3, [r7, #12]
 80057de:	8d5b      	ldrh	r3, [r3, #42]	@ 0x2a
 80057e0:	b29b      	uxth	r3, r3
 80057e2:	3b01      	subs	r3, #1
 80057e4:	b29a      	uxth	r2, r3
 80057e6:	68fb      	ldr	r3, [r7, #12]
 80057e8:	855a      	strh	r2, [r3, #42]	@ 0x2a

          /* Read data from DR */
          *hi2c->pBuffPtr = (uint8_t)hi2c->Instance->DR;
 80057ea:	68fb      	ldr	r3, [r7, #12]
 80057ec:	681b      	ldr	r3, [r3, #0]
 80057ee:	691a      	ldr	r2, [r3, #16]
 80057f0:	68fb      	ldr	r3, [r7, #12]
 80057f2:	6a5b      	ldr	r3, [r3, #36]	@ 0x24
 80057f4:	b2d2      	uxtb	r2, r2
 80057f6:	701a      	strb	r2, [r3, #0]

          /* Increment Buffer pointer */
          hi2c->pBuffPtr++;
 80057f8:	68fb      	ldr	r3, [r7, #12]
 80057fa:	6a5b      	ldr	r3, [r3, #36]	@ 0x24
 80057fc:	1c5a      	adds	r2, r3, #1
 80057fe:	68fb      	ldr	r3, [r7, #12]
 8005800:	625a      	str	r2, [r3, #36]	@ 0x24

          /* Update counter */
          hi2c->XferSize--;
 8005802:	68fb      	ldr	r3, [r7, #12]
 8005804:	8d1b      	ldrh	r3, [r3, #40]	@ 0x28
 8005806:	3b01      	subs	r3, #1
 8005808:	b29a      	uxth	r2, r3
 800580a:	68fb      	ldr	r3, [r7, #12]
 800580c:	851a      	strh	r2, [r3, #40]	@ 0x28
          hi2c->XferCount--;
 800580e:	68fb      	ldr	r3, [r7, #12]
 8005810:	8d5b      	ldrh	r3, [r3, #42]	@ 0x2a
 8005812:	b29b      	uxth	r3, r3
 8005814:	3b01      	subs	r3, #1
 8005816:	b29a      	uxth	r2, r3
 8005818:	68fb      	ldr	r3, [r7, #12]
 800581a:	855a      	strh	r2, [r3, #42]	@ 0x2a
 800581c:	e04e      	b.n	80058bc <HAL_I2C_Master_Receive+0x430>
        }
      }
      else
      {
        /* Wait until RXNE flag is set */
        if (I2C_WaitOnRXNEFlagUntilTimeout(hi2c, Timeout, tickstart) != HAL_OK)
 800581e:	6a7a      	ldr	r2, [r7, #36]	@ 0x24
 8005820:	6b39      	ldr	r1, [r7, #48]	@ 0x30
 8005822:	68f8      	ldr	r0, [r7, #12]
 8005824:	f000 fb5e 	bl	8005ee4 <I2C_WaitOnRXNEFlagUntilTimeout>
 8005828:	4603      	mov	r3, r0
 800582a:	2b00      	cmp	r3, #0
 800582c:	d001      	beq.n	8005832 <HAL_I2C_Master_Receive+0x3a6>
        {
          return HAL_ERROR;
 800582e:	2301      	movs	r3, #1
 8005830:	e058      	b.n	80058e4 <HAL_I2C_Master_Receive+0x458>
        }

        /* Read data from DR */
        *hi2c->pBuffPtr = (uint8_t)hi2c->Instance->DR;
 8005832:	68fb      	ldr	r3, [r7, #12]
 8005834:	681b      	ldr	r3, [r3, #0]
 8005836:	691a      	ldr	r2, [r3, #16]
 8005838:	68fb      	ldr	r3, [r7, #12]
 800583a:	6a5b      	ldr	r3, [r3, #36]	@ 0x24
 800583c:	b2d2      	uxtb	r2, r2
 800583e:	701a      	strb	r2, [r3, #0]

        /* Increment Buffer pointer */
        hi2c->pBuffPtr++;
 8005840:	68fb      	ldr	r3, [r7, #12]
 8005842:	6a5b      	ldr	r3, [r3, #36]	@ 0x24
 8005844:	1c5a      	adds	r2, r3, #1
 8005846:	68fb      	ldr	r3, [r7, #12]
 8005848:	625a      	str	r2, [r3, #36]	@ 0x24

        /* Update counter */
        hi2c->XferSize--;
 800584a:	68fb      	ldr	r3, [r7, #12]
 800584c:	8d1b      	ldrh	r3, [r3, #40]	@ 0x28
 800584e:	3b01      	subs	r3, #1
 8005850:	b29a      	uxth	r2, r3
 8005852:	68fb      	ldr	r3, [r7, #12]
 8005854:	851a      	strh	r2, [r3, #40]	@ 0x28
        hi2c->XferCount--;
 8005856:	68fb      	ldr	r3, [r7, #12]
 8005858:	8d5b      	ldrh	r3, [r3, #42]	@ 0x2a
 800585a:	b29b      	uxth	r3, r3
 800585c:	3b01      	subs	r3, #1
 800585e:	b29a      	uxth	r2, r3
 8005860:	68fb      	ldr	r3, [r7, #12]
 8005862:	855a      	strh	r2, [r3, #42]	@ 0x2a

        if (__HAL_I2C_GET_FLAG(hi2c, I2C_FLAG_BTF) == SET)
 8005864:	68fb      	ldr	r3, [r7, #12]
 8005866:	681b      	ldr	r3, [r3, #0]
 8005868:	695b      	ldr	r3, [r3, #20]
 800586a:	f003 0304 	and.w	r3, r3, #4
 800586e:	2b04      	cmp	r3, #4
 8005870:	d124      	bne.n	80058bc <HAL_I2C_Master_Receive+0x430>
        {

          if (hi2c->XferSize == 3U)
 8005872:	68fb      	ldr	r3, [r7, #12]
 8005874:	8d1b      	ldrh	r3, [r3, #40]	@ 0x28
 8005876:	2b03      	cmp	r3, #3
 8005878:	d107      	bne.n	800588a <HAL_I2C_Master_Receive+0x3fe>
          {
            /* Disable Acknowledge */
            CLEAR_BIT(hi2c->Instance->CR1, I2C_CR1_ACK);
 800587a:	68fb      	ldr	r3, [r7, #12]
 800587c:	681b      	ldr	r3, [r3, #0]
 800587e:	681a      	ldr	r2, [r3, #0]
 8005880:	68fb      	ldr	r3, [r7, #12]
 8005882:	681b      	ldr	r3, [r3, #0]
 8005884:	f422 6280 	bic.w	r2, r2, #1024	@ 0x400
 8005888:	601a      	str	r2, [r3, #0]
          }

          /* Read data from DR */
          *hi2c->pBuffPtr = (uint8_t)hi2c->Instance->DR;
 800588a:	68fb      	ldr	r3, [r7, #12]
 800588c:	681b      	ldr	r3, [r3, #0]
 800588e:	691a      	ldr	r2, [r3, #16]
 8005890:	68fb      	ldr	r3, [r7, #12]
 8005892:	6a5b      	ldr	r3, [r3, #36]	@ 0x24
 8005894:	b2d2      	uxtb	r2, r2
 8005896:	701a      	strb	r2, [r3, #0]

          /* Increment Buffer pointer */
          hi2c->pBuffPtr++;
 8005898:	68fb      	ldr	r3, [r7, #12]
 800589a:	6a5b      	ldr	r3, [r3, #36]	@ 0x24
 800589c:	1c5a      	adds	r2, r3, #1
 800589e:	68fb      	ldr	r3, [r7, #12]
 80058a0:	625a      	str	r2, [r3, #36]	@ 0x24

          /* Update counter */
          hi2c->XferSize--;
 80058a2:	68fb      	ldr	r3, [r7, #12]
 80058a4:	8d1b      	ldrh	r3, [r3, #40]	@ 0x28
 80058a6:	3b01      	subs	r3, #1
 80058a8:	b29a      	uxth	r2, r3
 80058aa:	68fb      	ldr	r3, [r7, #12]
 80058ac:	851a      	strh	r2, [r3, #40]	@ 0x28
          hi2c->XferCount--;
 80058ae:	68fb      	ldr	r3, [r7, #12]
 80058b0:	8d5b      	ldrh	r3, [r3, #42]	@ 0x2a
 80058b2:	b29b      	uxth	r3, r3
 80058b4:	3b01      	subs	r3, #1
 80058b6:	b29a      	uxth	r2, r3
 80058b8:	68fb      	ldr	r3, [r7, #12]
 80058ba:	855a      	strh	r2, [r3, #42]	@ 0x2a
    while (hi2c->XferSize > 0U)
 80058bc:	68fb      	ldr	r3, [r7, #12]
 80058be:	8d1b      	ldrh	r3, [r3, #40]	@ 0x28
 80058c0:	2b00      	cmp	r3, #0
 80058c2:	f47f aeb6 	bne.w	8005632 <HAL_I2C_Master_Receive+0x1a6>
        }
      }
    }

    hi2c->State = HAL_I2C_STATE_READY;
 80058c6:	68fb      	ldr	r3, [r7, #12]
 80058c8:	2220      	movs	r2, #32
 80058ca:	f883 203d 	strb.w	r2, [r3, #61]	@ 0x3d
    hi2c->Mode = HAL_I2C_MODE_NONE;
 80058ce:	68fb      	ldr	r3, [r7, #12]
 80058d0:	2200      	movs	r2, #0
 80058d2:	f883 203e 	strb.w	r2, [r3, #62]	@ 0x3e

    /* Process Unlocked */
    __HAL_UNLOCK(hi2c);
 80058d6:	68fb      	ldr	r3, [r7, #12]
 80058d8:	2200      	movs	r2, #0
 80058da:	f883 203c 	strb.w	r2, [r3, #60]	@ 0x3c

    return HAL_OK;
 80058de:	2300      	movs	r3, #0
 80058e0:	e000      	b.n	80058e4 <HAL_I2C_Master_Receive+0x458>
  }
  else
  {
    return HAL_BUSY;
 80058e2:	2302      	movs	r3, #2
  }
}
 80058e4:	4618      	mov	r0, r3
 80058e6:	3728      	adds	r7, #40	@ 0x28
 80058e8:	46bd      	mov	sp, r7
 80058ea:	bd80      	pop	{r7, pc}
 80058ec:	00010004 	.word	0x00010004

080058f0 <I2C_MasterRequestWrite>:
  * @param  Timeout Timeout duration
  * @param  Tickstart Tick start value
  * @retval HAL status
  */
static HAL_StatusTypeDef I2C_MasterRequestWrite(I2C_HandleTypeDef *hi2c, uint16_t DevAddress, uint32_t Timeout, uint32_t Tickstart)
{
 80058f0:	b580      	push	{r7, lr}
 80058f2:	b088      	sub	sp, #32
 80058f4:	af02      	add	r7, sp, #8
 80058f6:	60f8      	str	r0, [r7, #12]
 80058f8:	607a      	str	r2, [r7, #4]
 80058fa:	603b      	str	r3, [r7, #0]
 80058fc:	460b      	mov	r3, r1
 80058fe:	817b      	strh	r3, [r7, #10]
  /* Declaration of temporary variable to prevent undefined behavior of volatile usage */
  uint32_t CurrentXferOptions = hi2c->XferOptions;
 8005900:	68fb      	ldr	r3, [r7, #12]
 8005902:	6adb      	ldr	r3, [r3, #44]	@ 0x2c
 8005904:	617b      	str	r3, [r7, #20]

  /* Generate Start condition if first transfer */
  if ((CurrentXferOptions == I2C_FIRST_AND_LAST_FRAME) || (CurrentXferOptions == I2C_FIRST_FRAME) || (CurrentXferOptions == I2C_NO_OPTION_FRAME))
 8005906:	697b      	ldr	r3, [r7, #20]
 8005908:	2b08      	cmp	r3, #8
 800590a:	d006      	beq.n	800591a <I2C_MasterRequestWrite+0x2a>
 800590c:	697b      	ldr	r3, [r7, #20]
 800590e:	2b01      	cmp	r3, #1
 8005910:	d003      	beq.n	800591a <I2C_MasterRequestWrite+0x2a>
 8005912:	697b      	ldr	r3, [r7, #20]
 8005914:	f513 3f80 	cmn.w	r3, #65536	@ 0x10000
 8005918:	d108      	bne.n	800592c <I2C_MasterRequestWrite+0x3c>
  {
    /* Generate Start */
    SET_BIT(hi2c->Instance->CR1, I2C_CR1_START);
 800591a:	68fb      	ldr	r3, [r7, #12]
 800591c:	681b      	ldr	r3, [r3, #0]
 800591e:	681a      	ldr	r2, [r3, #0]
 8005920:	68fb      	ldr	r3, [r7, #12]
 8005922:	681b      	ldr	r3, [r3, #0]
 8005924:	f442 7280 	orr.w	r2, r2, #256	@ 0x100
 8005928:	601a      	str	r2, [r3, #0]
 800592a:	e00b      	b.n	8005944 <I2C_MasterRequestWrite+0x54>
  }
  else if (hi2c->PreviousState == I2C_STATE_MASTER_BUSY_RX)
 800592c:	68fb      	ldr	r3, [r7, #12]
 800592e:	6b1b      	ldr	r3, [r3, #48]	@ 0x30
 8005930:	2b12      	cmp	r3, #18
 8005932:	d107      	bne.n	8005944 <I2C_MasterRequestWrite+0x54>
  {
    /* Generate ReStart */
    SET_BIT(hi2c->Instance->CR1, I2C_CR1_START);
 8005934:	68fb      	ldr	r3, [r7, #12]
 8005936:	681b      	ldr	r3, [r3, #0]
 8005938:	681a      	ldr	r2, [r3, #0]
 800593a:	68fb      	ldr	r3, [r7, #12]
 800593c:	681b      	ldr	r3, [r3, #0]
 800593e:	f442 7280 	orr.w	r2, r2, #256	@ 0x100
 8005942:	601a      	str	r2, [r3, #0]
  {
    /* Do nothing */
  }

  /* Wait until SB flag is set */
  if (I2C_WaitOnFlagUntilTimeout(hi2c, I2C_FLAG_SB, RESET, Timeout, Tickstart) != HAL_OK)
 8005944:	683b      	ldr	r3, [r7, #0]
 8005946:	9300      	str	r3, [sp, #0]
 8005948:	687b      	ldr	r3, [r7, #4]
 800594a:	2200      	movs	r2, #0
 800594c:	f04f 1101 	mov.w	r1, #65537	@ 0x10001
 8005950:	68f8      	ldr	r0, [r7, #12]
 8005952:	f000 f91d 	bl	8005b90 <I2C_WaitOnFlagUntilTimeout>
 8005956:	4603      	mov	r3, r0
 8005958:	2b00      	cmp	r3, #0
 800595a:	d00d      	beq.n	8005978 <I2C_MasterRequestWrite+0x88>
  {
    if (READ_BIT(hi2c->Instance->CR1, I2C_CR1_START) == I2C_CR1_START)
 800595c:	68fb      	ldr	r3, [r7, #12]
 800595e:	681b      	ldr	r3, [r3, #0]
 8005960:	681b      	ldr	r3, [r3, #0]
 8005962:	f403 7380 	and.w	r3, r3, #256	@ 0x100
 8005966:	f5b3 7f80 	cmp.w	r3, #256	@ 0x100
 800596a:	d103      	bne.n	8005974 <I2C_MasterRequestWrite+0x84>
    {
      hi2c->ErrorCode = HAL_I2C_WRONG_START;
 800596c:	68fb      	ldr	r3, [r7, #12]
 800596e:	f44f 7200 	mov.w	r2, #512	@ 0x200
 8005972:	641a      	str	r2, [r3, #64]	@ 0x40
    }
    return HAL_TIMEOUT;
 8005974:	2303      	movs	r3, #3
 8005976:	e035      	b.n	80059e4 <I2C_MasterRequestWrite+0xf4>
  }

  if (hi2c->Init.AddressingMode == I2C_ADDRESSINGMODE_7BIT)
 8005978:	68fb      	ldr	r3, [r7, #12]
 800597a:	691b      	ldr	r3, [r3, #16]
 800597c:	f5b3 4f80 	cmp.w	r3, #16384	@ 0x4000
 8005980:	d108      	bne.n	8005994 <I2C_MasterRequestWrite+0xa4>
  {
    /* Send slave address */
    hi2c->Instance->DR = I2C_7BIT_ADD_WRITE(DevAddress);
 8005982:	897b      	ldrh	r3, [r7, #10]
 8005984:	b2db      	uxtb	r3, r3
 8005986:	461a      	mov	r2, r3
 8005988:	68fb      	ldr	r3, [r7, #12]
 800598a:	681b      	ldr	r3, [r3, #0]
 800598c:	f002 02fe 	and.w	r2, r2, #254	@ 0xfe
 8005990:	611a      	str	r2, [r3, #16]
 8005992:	e01b      	b.n	80059cc <I2C_MasterRequestWrite+0xdc>
  }
  else
  {
    /* Send header of slave address */
    hi2c->Instance->DR = I2C_10BIT_HEADER_WRITE(DevAddress);
 8005994:	897b      	ldrh	r3, [r7, #10]
 8005996:	11db      	asrs	r3, r3, #7
 8005998:	b2db      	uxtb	r3, r3
 800599a:	f003 0306 	and.w	r3, r3, #6
 800599e:	b2db      	uxtb	r3, r3
 80059a0:	f063 030f 	orn	r3, r3, #15
 80059a4:	b2da      	uxtb	r2, r3
 80059a6:	68fb      	ldr	r3, [r7, #12]
 80059a8:	681b      	ldr	r3, [r3, #0]
 80059aa:	611a      	str	r2, [r3, #16]

    /* Wait until ADD10 flag is set */
    if (I2C_WaitOnMasterAddressFlagUntilTimeout(hi2c, I2C_FLAG_ADD10, Timeout, Tickstart) != HAL_OK)
 80059ac:	683b      	ldr	r3, [r7, #0]
 80059ae:	687a      	ldr	r2, [r7, #4]
 80059b0:	490e      	ldr	r1, [pc, #56]	@ (80059ec <I2C_MasterRequestWrite+0xfc>)
 80059b2:	68f8      	ldr	r0, [r7, #12]
 80059b4:	f000 f966 	bl	8005c84 <I2C_WaitOnMasterAddressFlagUntilTimeout>
 80059b8:	4603      	mov	r3, r0
 80059ba:	2b00      	cmp	r3, #0
 80059bc:	d001      	beq.n	80059c2 <I2C_MasterRequestWrite+0xd2>
    {
      return HAL_ERROR;
 80059be:	2301      	movs	r3, #1
 80059c0:	e010      	b.n	80059e4 <I2C_MasterRequestWrite+0xf4>
    }

    /* Send slave address */
    hi2c->Instance->DR = I2C_10BIT_ADDRESS(DevAddress);
 80059c2:	897b      	ldrh	r3, [r7, #10]
 80059c4:	b2da      	uxtb	r2, r3
 80059c6:	68fb      	ldr	r3, [r7, #12]
 80059c8:	681b      	ldr	r3, [r3, #0]
 80059ca:	611a      	str	r2, [r3, #16]
  }

  /* Wait until ADDR flag is set */
  if (I2C_WaitOnMasterAddressFlagUntilTimeout(hi2c, I2C_FLAG_ADDR, Timeout, Tickstart) != HAL_OK)
 80059cc:	683b      	ldr	r3, [r7, #0]
 80059ce:	687a      	ldr	r2, [r7, #4]
 80059d0:	4907      	ldr	r1, [pc, #28]	@ (80059f0 <I2C_MasterRequestWrite+0x100>)
 80059d2:	68f8      	ldr	r0, [r7, #12]
 80059d4:	f000 f956 	bl	8005c84 <I2C_WaitOnMasterAddressFlagUntilTimeout>
 80059d8:	4603      	mov	r3, r0
 80059da:	2b00      	cmp	r3, #0
 80059dc:	d001      	beq.n	80059e2 <I2C_MasterRequestWrite+0xf2>
  {
    return HAL_ERROR;
 80059de:	2301      	movs	r3, #1
 80059e0:	e000      	b.n	80059e4 <I2C_MasterRequestWrite+0xf4>
  }

  return HAL_OK;
 80059e2:	2300      	movs	r3, #0
}
 80059e4:	4618      	mov	r0, r3
 80059e6:	3718      	adds	r7, #24
 80059e8:	46bd      	mov	sp, r7
 80059ea:	bd80      	pop	{r7, pc}
 80059ec:	00010008 	.word	0x00010008
 80059f0:	00010002 	.word	0x00010002

080059f4 <I2C_MasterRequestRead>:
  * @param  Timeout Timeout duration
  * @param  Tickstart Tick start value
  * @retval HAL status
  */
static HAL_StatusTypeDef I2C_MasterRequestRead(I2C_HandleTypeDef *hi2c, uint16_t DevAddress, uint32_t Timeout, uint32_t Tickstart)
{
 80059f4:	b580      	push	{r7, lr}
 80059f6:	b088      	sub	sp, #32
 80059f8:	af02      	add	r7, sp, #8
 80059fa:	60f8      	str	r0, [r7, #12]
 80059fc:	607a      	str	r2, [r7, #4]
 80059fe:	603b      	str	r3, [r7, #0]
 8005a00:	460b      	mov	r3, r1
 8005a02:	817b      	strh	r3, [r7, #10]
  /* Declaration of temporary variable to prevent undefined behavior of volatile usage */
  uint32_t CurrentXferOptions = hi2c->XferOptions;
 8005a04:	68fb      	ldr	r3, [r7, #12]
 8005a06:	6adb      	ldr	r3, [r3, #44]	@ 0x2c
 8005a08:	617b      	str	r3, [r7, #20]

  /* Enable Acknowledge */
  SET_BIT(hi2c->Instance->CR1, I2C_CR1_ACK);
 8005a0a:	68fb      	ldr	r3, [r7, #12]
 8005a0c:	681b      	ldr	r3, [r3, #0]
 8005a0e:	681a      	ldr	r2, [r3, #0]
 8005a10:	68fb      	ldr	r3, [r7, #12]
 8005a12:	681b      	ldr	r3, [r3, #0]
 8005a14:	f442 6280 	orr.w	r2, r2, #1024	@ 0x400
 8005a18:	601a      	str	r2, [r3, #0]

  /* Generate Start condition if first transfer */
  if ((CurrentXferOptions == I2C_FIRST_AND_LAST_FRAME) || (CurrentXferOptions == I2C_FIRST_FRAME)  || (CurrentXferOptions == I2C_NO_OPTION_FRAME))
 8005a1a:	697b      	ldr	r3, [r7, #20]
 8005a1c:	2b08      	cmp	r3, #8
 8005a1e:	d006      	beq.n	8005a2e <I2C_MasterRequestRead+0x3a>
 8005a20:	697b      	ldr	r3, [r7, #20]
 8005a22:	2b01      	cmp	r3, #1
 8005a24:	d003      	beq.n	8005a2e <I2C_MasterRequestRead+0x3a>
 8005a26:	697b      	ldr	r3, [r7, #20]
 8005a28:	f513 3f80 	cmn.w	r3, #65536	@ 0x10000
 8005a2c:	d108      	bne.n	8005a40 <I2C_MasterRequestRead+0x4c>
  {
    /* Generate Start */
    SET_BIT(hi2c->Instance->CR1, I2C_CR1_START);
 8005a2e:	68fb      	ldr	r3, [r7, #12]
 8005a30:	681b      	ldr	r3, [r3, #0]
 8005a32:	681a      	ldr	r2, [r3, #0]
 8005a34:	68fb      	ldr	r3, [r7, #12]
 8005a36:	681b      	ldr	r3, [r3, #0]
 8005a38:	f442 7280 	orr.w	r2, r2, #256	@ 0x100
 8005a3c:	601a      	str	r2, [r3, #0]
 8005a3e:	e00b      	b.n	8005a58 <I2C_MasterRequestRead+0x64>
  }
  else if (hi2c->PreviousState == I2C_STATE_MASTER_BUSY_TX)
 8005a40:	68fb      	ldr	r3, [r7, #12]
 8005a42:	6b1b      	ldr	r3, [r3, #48]	@ 0x30
 8005a44:	2b11      	cmp	r3, #17
 8005a46:	d107      	bne.n	8005a58 <I2C_MasterRequestRead+0x64>
  {
    /* Generate ReStart */
    SET_BIT(hi2c->Instance->CR1, I2C_CR1_START);
 8005a48:	68fb      	ldr	r3, [r7, #12]
 8005a4a:	681b      	ldr	r3, [r3, #0]
 8005a4c:	681a      	ldr	r2, [r3, #0]
 8005a4e:	68fb      	ldr	r3, [r7, #12]
 8005a50:	681b      	ldr	r3, [r3, #0]
 8005a52:	f442 7280 	orr.w	r2, r2, #256	@ 0x100
 8005a56:	601a      	str	r2, [r3, #0]
  {
    /* Do nothing */
  }

  /* Wait until SB flag is set */
  if (I2C_WaitOnFlagUntilTimeout(hi2c, I2C_FLAG_SB, RESET, Timeout, Tickstart) != HAL_OK)
 8005a58:	683b      	ldr	r3, [r7, #0]
 8005a5a:	9300      	str	r3, [sp, #0]
 8005a5c:	687b      	ldr	r3, [r7, #4]
 8005a5e:	2200      	movs	r2, #0
 8005a60:	f04f 1101 	mov.w	r1, #65537	@ 0x10001
 8005a64:	68f8      	ldr	r0, [r7, #12]
 8005a66:	f000 f893 	bl	8005b90 <I2C_WaitOnFlagUntilTimeout>
 8005a6a:	4603      	mov	r3, r0
 8005a6c:	2b00      	cmp	r3, #0
 8005a6e:	d00d      	beq.n	8005a8c <I2C_MasterRequestRead+0x98>
  {
    if (READ_BIT(hi2c->Instance->CR1, I2C_CR1_START) == I2C_CR1_START)
 8005a70:	68fb      	ldr	r3, [r7, #12]
 8005a72:	681b      	ldr	r3, [r3, #0]
 8005a74:	681b      	ldr	r3, [r3, #0]
 8005a76:	f403 7380 	and.w	r3, r3, #256	@ 0x100
 8005a7a:	f5b3 7f80 	cmp.w	r3, #256	@ 0x100
 8005a7e:	d103      	bne.n	8005a88 <I2C_MasterRequestRead+0x94>
    {
      hi2c->ErrorCode = HAL_I2C_WRONG_START;
 8005a80:	68fb      	ldr	r3, [r7, #12]
 8005a82:	f44f 7200 	mov.w	r2, #512	@ 0x200
 8005a86:	641a      	str	r2, [r3, #64]	@ 0x40
    }
    return HAL_TIMEOUT;
 8005a88:	2303      	movs	r3, #3
 8005a8a:	e079      	b.n	8005b80 <I2C_MasterRequestRead+0x18c>
  }

  if (hi2c->Init.AddressingMode == I2C_ADDRESSINGMODE_7BIT)
 8005a8c:	68fb      	ldr	r3, [r7, #12]
 8005a8e:	691b      	ldr	r3, [r3, #16]
 8005a90:	f5b3 4f80 	cmp.w	r3, #16384	@ 0x4000
 8005a94:	d108      	bne.n	8005aa8 <I2C_MasterRequestRead+0xb4>
  {
    /* Send slave address */
    hi2c->Instance->DR = I2C_7BIT_ADD_READ(DevAddress);
 8005a96:	897b      	ldrh	r3, [r7, #10]
 8005a98:	b2db      	uxtb	r3, r3
 8005a9a:	f043 0301 	orr.w	r3, r3, #1
 8005a9e:	b2da      	uxtb	r2, r3
 8005aa0:	68fb      	ldr	r3, [r7, #12]
 8005aa2:	681b      	ldr	r3, [r3, #0]
 8005aa4:	611a      	str	r2, [r3, #16]
 8005aa6:	e05f      	b.n	8005b68 <I2C_MasterRequestRead+0x174>
  }
  else
  {
    /* Send header of slave address */
    hi2c->Instance->DR = I2C_10BIT_HEADER_WRITE(DevAddress);
 8005aa8:	897b      	ldrh	r3, [r7, #10]
 8005aaa:	11db      	asrs	r3, r3, #7
 8005aac:	b2db      	uxtb	r3, r3
 8005aae:	f003 0306 	and.w	r3, r3, #6
 8005ab2:	b2db      	uxtb	r3, r3
 8005ab4:	f063 030f 	orn	r3, r3, #15
 8005ab8:	b2da      	uxtb	r2, r3
 8005aba:	68fb      	ldr	r3, [r7, #12]
 8005abc:	681b      	ldr	r3, [r3, #0]
 8005abe:	611a      	str	r2, [r3, #16]

    /* Wait until ADD10 flag is set */
    if (I2C_WaitOnMasterAddressFlagUntilTimeout(hi2c, I2C_FLAG_ADD10, Timeout, Tickstart) != HAL_OK)
 8005ac0:	683b      	ldr	r3, [r7, #0]
 8005ac2:	687a      	ldr	r2, [r7, #4]
 8005ac4:	4930      	ldr	r1, [pc, #192]	@ (8005b88 <I2C_MasterRequestRead+0x194>)
 8005ac6:	68f8      	ldr	r0, [r7, #12]
 8005ac8:	f000 f8dc 	bl	8005c84 <I2C_WaitOnMasterAddressFlagUntilTimeout>
 8005acc:	4603      	mov	r3, r0
 8005ace:	2b00      	cmp	r3, #0
 8005ad0:	d001      	beq.n	8005ad6 <I2C_MasterRequestRead+0xe2>
    {
      return HAL_ERROR;
 8005ad2:	2301      	movs	r3, #1
 8005ad4:	e054      	b.n	8005b80 <I2C_MasterRequestRead+0x18c>
    }

    /* Send slave address */
    hi2c->Instance->DR = I2C_10BIT_ADDRESS(DevAddress);
 8005ad6:	897b      	ldrh	r3, [r7, #10]
 8005ad8:	b2da      	uxtb	r2, r3
 8005ada:	68fb      	ldr	r3, [r7, #12]
 8005adc:	681b      	ldr	r3, [r3, #0]
 8005ade:	611a      	str	r2, [r3, #16]

    /* Wait until ADDR flag is set */
    if (I2C_WaitOnMasterAddressFlagUntilTimeout(hi2c, I2C_FLAG_ADDR, Timeout, Tickstart) != HAL_OK)
 8005ae0:	683b      	ldr	r3, [r7, #0]
 8005ae2:	687a      	ldr	r2, [r7, #4]
 8005ae4:	4929      	ldr	r1, [pc, #164]	@ (8005b8c <I2C_MasterRequestRead+0x198>)
 8005ae6:	68f8      	ldr	r0, [r7, #12]
 8005ae8:	f000 f8cc 	bl	8005c84 <I2C_WaitOnMasterAddressFlagUntilTimeout>
 8005aec:	4603      	mov	r3, r0
 8005aee:	2b00      	cmp	r3, #0
 8005af0:	d001      	beq.n	8005af6 <I2C_MasterRequestRead+0x102>
    {
      return HAL_ERROR;
 8005af2:	2301      	movs	r3, #1
 8005af4:	e044      	b.n	8005b80 <I2C_MasterRequestRead+0x18c>
    }

    /* Clear ADDR flag */
    __HAL_I2C_CLEAR_ADDRFLAG(hi2c);
 8005af6:	2300      	movs	r3, #0
 8005af8:	613b      	str	r3, [r7, #16]
 8005afa:	68fb      	ldr	r3, [r7, #12]
 8005afc:	681b      	ldr	r3, [r3, #0]
 8005afe:	695b      	ldr	r3, [r3, #20]
 8005b00:	613b      	str	r3, [r7, #16]
 8005b02:	68fb      	ldr	r3, [r7, #12]
 8005b04:	681b      	ldr	r3, [r3, #0]
 8005b06:	699b      	ldr	r3, [r3, #24]
 8005b08:	613b      	str	r3, [r7, #16]
 8005b0a:	693b      	ldr	r3, [r7, #16]

    /* Generate Restart */
    SET_BIT(hi2c->Instance->CR1, I2C_CR1_START);
 8005b0c:	68fb      	ldr	r3, [r7, #12]
 8005b0e:	681b      	ldr	r3, [r3, #0]
 8005b10:	681a      	ldr	r2, [r3, #0]
 8005b12:	68fb      	ldr	r3, [r7, #12]
 8005b14:	681b      	ldr	r3, [r3, #0]
 8005b16:	f442 7280 	orr.w	r2, r2, #256	@ 0x100
 8005b1a:	601a      	str	r2, [r3, #0]

    /* Wait until SB flag is set */
    if (I2C_WaitOnFlagUntilTimeout(hi2c, I2C_FLAG_SB, RESET, Timeout, Tickstart) != HAL_OK)
 8005b1c:	683b      	ldr	r3, [r7, #0]
 8005b1e:	9300      	str	r3, [sp, #0]
 8005b20:	687b      	ldr	r3, [r7, #4]
 8005b22:	2200      	movs	r2, #0
 8005b24:	f04f 1101 	mov.w	r1, #65537	@ 0x10001
 8005b28:	68f8      	ldr	r0, [r7, #12]
 8005b2a:	f000 f831 	bl	8005b90 <I2C_WaitOnFlagUntilTimeout>
 8005b2e:	4603      	mov	r3, r0
 8005b30:	2b00      	cmp	r3, #0
 8005b32:	d00d      	beq.n	8005b50 <I2C_MasterRequestRead+0x15c>
    {
      if (READ_BIT(hi2c->Instance->CR1, I2C_CR1_START) == I2C_CR1_START)
 8005b34:	68fb      	ldr	r3, [r7, #12]
 8005b36:	681b      	ldr	r3, [r3, #0]
 8005b38:	681b      	ldr	r3, [r3, #0]
 8005b3a:	f403 7380 	and.w	r3, r3, #256	@ 0x100
 8005b3e:	f5b3 7f80 	cmp.w	r3, #256	@ 0x100
 8005b42:	d103      	bne.n	8005b4c <I2C_MasterRequestRead+0x158>
      {
        hi2c->ErrorCode = HAL_I2C_WRONG_START;
 8005b44:	68fb      	ldr	r3, [r7, #12]
 8005b46:	f44f 7200 	mov.w	r2, #512	@ 0x200
 8005b4a:	641a      	str	r2, [r3, #64]	@ 0x40
      }
      return HAL_TIMEOUT;
 8005b4c:	2303      	movs	r3, #3
 8005b4e:	e017      	b.n	8005b80 <I2C_MasterRequestRead+0x18c>
    }

    /* Send header of slave address */
    hi2c->Instance->DR = I2C_10BIT_HEADER_READ(DevAddress);
 8005b50:	897b      	ldrh	r3, [r7, #10]
 8005b52:	11db      	asrs	r3, r3, #7
 8005b54:	b2db      	uxtb	r3, r3
 8005b56:	f003 0306 	and.w	r3, r3, #6
 8005b5a:	b2db      	uxtb	r3, r3
 8005b5c:	f063 030e 	orn	r3, r3, #14
 8005b60:	b2da      	uxtb	r2, r3
 8005b62:	68fb      	ldr	r3, [r7, #12]
 8005b64:	681b      	ldr	r3, [r3, #0]
 8005b66:	611a      	str	r2, [r3, #16]
  }

  /* Wait until ADDR flag is set */
  if (I2C_WaitOnMasterAddressFlagUntilTimeout(hi2c, I2C_FLAG_ADDR, Timeout, Tickstart) != HAL_OK)
 8005b68:	683b      	ldr	r3, [r7, #0]
 8005b6a:	687a      	ldr	r2, [r7, #4]
 8005b6c:	4907      	ldr	r1, [pc, #28]	@ (8005b8c <I2C_MasterRequestRead+0x198>)
 8005b6e:	68f8      	ldr	r0, [r7, #12]
 8005b70:	f000 f888 	bl	8005c84 <I2C_WaitOnMasterAddressFlagUntilTimeout>
 8005b74:	4603      	mov	r3, r0
 8005b76:	2b00      	cmp	r3, #0
 8005b78:	d001      	beq.n	8005b7e <I2C_MasterRequestRead+0x18a>
  {
    return HAL_ERROR;
 8005b7a:	2301      	movs	r3, #1
 8005b7c:	e000      	b.n	8005b80 <I2C_MasterRequestRead+0x18c>
  }

  return HAL_OK;
 8005b7e:	2300      	movs	r3, #0
}
 8005b80:	4618      	mov	r0, r3
 8005b82:	3718      	adds	r7, #24
 8005b84:	46bd      	mov	sp, r7
 8005b86:	bd80      	pop	{r7, pc}
 8005b88:	00010008 	.word	0x00010008
 8005b8c:	00010002 	.word	0x00010002

08005b90 <I2C_WaitOnFlagUntilTimeout>:
  * @param  Timeout Timeout duration
  * @param  Tickstart Tick start value
  * @retval HAL status
  */
static HAL_StatusTypeDef I2C_WaitOnFlagUntilTimeout(I2C_HandleTypeDef *hi2c, uint32_t Flag, FlagStatus Status, uint32_t Timeout, uint32_t Tickstart)
{
 8005b90:	b580      	push	{r7, lr}
 8005b92:	b084      	sub	sp, #16
 8005b94:	af00      	add	r7, sp, #0
 8005b96:	60f8      	str	r0, [r7, #12]
 8005b98:	60b9      	str	r1, [r7, #8]
 8005b9a:	603b      	str	r3, [r7, #0]
 8005b9c:	4613      	mov	r3, r2
 8005b9e:	71fb      	strb	r3, [r7, #7]
  /* Wait until flag is set */
  while (__HAL_I2C_GET_FLAG(hi2c, Flag) == Status)
 8005ba0:	e048      	b.n	8005c34 <I2C_WaitOnFlagUntilTimeout+0xa4>
  {
    /* Check for the Timeout */
    if (Timeout != HAL_MAX_DELAY)
 8005ba2:	683b      	ldr	r3, [r7, #0]
 8005ba4:	f1b3 3fff 	cmp.w	r3, #4294967295	@ 0xffffffff
 8005ba8:	d044      	beq.n	8005c34 <I2C_WaitOnFlagUntilTimeout+0xa4>
    {
      if (((HAL_GetTick() - Tickstart) > Timeout) || (Timeout == 0U))
 8005baa:	f7fd fb35 	bl	8003218 <HAL_GetTick>
 8005bae:	4602      	mov	r2, r0
 8005bb0:	69bb      	ldr	r3, [r7, #24]
 8005bb2:	1ad3      	subs	r3, r2, r3
 8005bb4:	683a      	ldr	r2, [r7, #0]
 8005bb6:	429a      	cmp	r2, r3
 8005bb8:	d302      	bcc.n	8005bc0 <I2C_WaitOnFlagUntilTimeout+0x30>
 8005bba:	683b      	ldr	r3, [r7, #0]
 8005bbc:	2b00      	cmp	r3, #0
 8005bbe:	d139      	bne.n	8005c34 <I2C_WaitOnFlagUntilTimeout+0xa4>
      {
        if ((__HAL_I2C_GET_FLAG(hi2c, Flag) == Status))
 8005bc0:	68bb      	ldr	r3, [r7, #8]
 8005bc2:	0c1b      	lsrs	r3, r3, #16
 8005bc4:	b2db      	uxtb	r3, r3
 8005bc6:	2b01      	cmp	r3, #1
 8005bc8:	d10d      	bne.n	8005be6 <I2C_WaitOnFlagUntilTimeout+0x56>
 8005bca:	68fb      	ldr	r3, [r7, #12]
 8005bcc:	681b      	ldr	r3, [r3, #0]
 8005bce:	695b      	ldr	r3, [r3, #20]
 8005bd0:	43da      	mvns	r2, r3
 8005bd2:	68bb      	ldr	r3, [r7, #8]
 8005bd4:	4013      	ands	r3, r2
 8005bd6:	b29b      	uxth	r3, r3
 8005bd8:	2b00      	cmp	r3, #0
 8005bda:	bf0c      	ite	eq
 8005bdc:	2301      	moveq	r3, #1
 8005bde:	2300      	movne	r3, #0
 8005be0:	b2db      	uxtb	r3, r3
 8005be2:	461a      	mov	r2, r3
 8005be4:	e00c      	b.n	8005c00 <I2C_WaitOnFlagUntilTimeout+0x70>
 8005be6:	68fb      	ldr	r3, [r7, #12]
 8005be8:	681b      	ldr	r3, [r3, #0]
 8005bea:	699b      	ldr	r3, [r3, #24]
 8005bec:	43da      	mvns	r2, r3
 8005bee:	68bb      	ldr	r3, [r7, #8]
 8005bf0:	4013      	ands	r3, r2
 8005bf2:	b29b      	uxth	r3, r3
 8005bf4:	2b00      	cmp	r3, #0
 8005bf6:	bf0c      	ite	eq
 8005bf8:	2301      	moveq	r3, #1
 8005bfa:	2300      	movne	r3, #0
 8005bfc:	b2db      	uxtb	r3, r3
 8005bfe:	461a      	mov	r2, r3
 8005c00:	79fb      	ldrb	r3, [r7, #7]
 8005c02:	429a      	cmp	r2, r3
 8005c04:	d116      	bne.n	8005c34 <I2C_WaitOnFlagUntilTimeout+0xa4>
        {
          hi2c->PreviousState     = I2C_STATE_NONE;
 8005c06:	68fb      	ldr	r3, [r7, #12]
 8005c08:	2200      	movs	r2, #0
 8005c0a:	631a      	str	r2, [r3, #48]	@ 0x30
          hi2c->State             = HAL_I2C_STATE_READY;
 8005c0c:	68fb      	ldr	r3, [r7, #12]
 8005c0e:	2220      	movs	r2, #32
 8005c10:	f883 203d 	strb.w	r2, [r3, #61]	@ 0x3d
          hi2c->Mode              = HAL_I2C_MODE_NONE;
 8005c14:	68fb      	ldr	r3, [r7, #12]
 8005c16:	2200      	movs	r2, #0
 8005c18:	f883 203e 	strb.w	r2, [r3, #62]	@ 0x3e
          hi2c->ErrorCode         |= HAL_I2C_ERROR_TIMEOUT;
 8005c1c:	68fb      	ldr	r3, [r7, #12]
 8005c1e:	6c1b      	ldr	r3, [r3, #64]	@ 0x40
 8005c20:	f043 0220 	orr.w	r2, r3, #32
 8005c24:	68fb      	ldr	r3, [r7, #12]
 8005c26:	641a      	str	r2, [r3, #64]	@ 0x40

          /* Process Unlocked */
          __HAL_UNLOCK(hi2c);
 8005c28:	68fb      	ldr	r3, [r7, #12]
 8005c2a:	2200      	movs	r2, #0
 8005c2c:	f883 203c 	strb.w	r2, [r3, #60]	@ 0x3c

          return HAL_ERROR;
 8005c30:	2301      	movs	r3, #1
 8005c32:	e023      	b.n	8005c7c <I2C_WaitOnFlagUntilTimeout+0xec>
  while (__HAL_I2C_GET_FLAG(hi2c, Flag) == Status)
 8005c34:	68bb      	ldr	r3, [r7, #8]
 8005c36:	0c1b      	lsrs	r3, r3, #16
 8005c38:	b2db      	uxtb	r3, r3
 8005c3a:	2b01      	cmp	r3, #1
 8005c3c:	d10d      	bne.n	8005c5a <I2C_WaitOnFlagUntilTimeout+0xca>
 8005c3e:	68fb      	ldr	r3, [r7, #12]
 8005c40:	681b      	ldr	r3, [r3, #0]
 8005c42:	695b      	ldr	r3, [r3, #20]
 8005c44:	43da      	mvns	r2, r3
 8005c46:	68bb      	ldr	r3, [r7, #8]
 8005c48:	4013      	ands	r3, r2
 8005c4a:	b29b      	uxth	r3, r3
 8005c4c:	2b00      	cmp	r3, #0
 8005c4e:	bf0c      	ite	eq
 8005c50:	2301      	moveq	r3, #1
 8005c52:	2300      	movne	r3, #0
 8005c54:	b2db      	uxtb	r3, r3
 8005c56:	461a      	mov	r2, r3
 8005c58:	e00c      	b.n	8005c74 <I2C_WaitOnFlagUntilTimeout+0xe4>
 8005c5a:	68fb      	ldr	r3, [r7, #12]
 8005c5c:	681b      	ldr	r3, [r3, #0]
 8005c5e:	699b      	ldr	r3, [r3, #24]
 8005c60:	43da      	mvns	r2, r3
 8005c62:	68bb      	ldr	r3, [r7, #8]
 8005c64:	4013      	ands	r3, r2
 8005c66:	b29b      	uxth	r3, r3
 8005c68:	2b00      	cmp	r3, #0
 8005c6a:	bf0c      	ite	eq
 8005c6c:	2301      	moveq	r3, #1
 8005c6e:	2300      	movne	r3, #0
 8005c70:	b2db      	uxtb	r3, r3
 8005c72:	461a      	mov	r2, r3
 8005c74:	79fb      	ldrb	r3, [r7, #7]
 8005c76:	429a      	cmp	r2, r3
 8005c78:	d093      	beq.n	8005ba2 <I2C_WaitOnFlagUntilTimeout+0x12>
        }
      }
    }
  }
  return HAL_OK;
 8005c7a:	2300      	movs	r3, #0
}
 8005c7c:	4618      	mov	r0, r3
 8005c7e:	3710      	adds	r7, #16
 8005c80:	46bd      	mov	sp, r7
 8005c82:	bd80      	pop	{r7, pc}

08005c84 <I2C_WaitOnMasterAddressFlagUntilTimeout>:
  * @param  Timeout Timeout duration
  * @param  Tickstart Tick start value
  * @retval HAL status
  */
static HAL_StatusTypeDef I2C_WaitOnMasterAddressFlagUntilTimeout(I2C_HandleTypeDef *hi2c, uint32_t Flag, uint32_t Timeout, uint32_t Tickstart)
{
 8005c84:	b580      	push	{r7, lr}
 8005c86:	b084      	sub	sp, #16
 8005c88:	af00      	add	r7, sp, #0
 8005c8a:	60f8      	str	r0, [r7, #12]
 8005c8c:	60b9      	str	r1, [r7, #8]
 8005c8e:	607a      	str	r2, [r7, #4]
 8005c90:	603b      	str	r3, [r7, #0]
  while (__HAL_I2C_GET_FLAG(hi2c, Flag) == RESET)
 8005c92:	e071      	b.n	8005d78 <I2C_WaitOnMasterAddressFlagUntilTimeout+0xf4>
  {
    if (__HAL_I2C_GET_FLAG(hi2c, I2C_FLAG_AF) == SET)
 8005c94:	68fb      	ldr	r3, [r7, #12]
 8005c96:	681b      	ldr	r3, [r3, #0]
 8005c98:	695b      	ldr	r3, [r3, #20]
 8005c9a:	f403 6380 	and.w	r3, r3, #1024	@ 0x400
 8005c9e:	f5b3 6f80 	cmp.w	r3, #1024	@ 0x400
 8005ca2:	d123      	bne.n	8005cec <I2C_WaitOnMasterAddressFlagUntilTimeout+0x68>
    {
      /* Generate Stop */
      SET_BIT(hi2c->Instance->CR1, I2C_CR1_STOP);
 8005ca4:	68fb      	ldr	r3, [r7, #12]
 8005ca6:	681b      	ldr	r3, [r3, #0]
 8005ca8:	681a      	ldr	r2, [r3, #0]
 8005caa:	68fb      	ldr	r3, [r7, #12]
 8005cac:	681b      	ldr	r3, [r3, #0]
 8005cae:	f442 7200 	orr.w	r2, r2, #512	@ 0x200
 8005cb2:	601a      	str	r2, [r3, #0]

      /* Clear AF Flag */
      __HAL_I2C_CLEAR_FLAG(hi2c, I2C_FLAG_AF);
 8005cb4:	68fb      	ldr	r3, [r7, #12]
 8005cb6:	681b      	ldr	r3, [r3, #0]
 8005cb8:	f46f 6280 	mvn.w	r2, #1024	@ 0x400
 8005cbc:	615a      	str	r2, [r3, #20]

      hi2c->PreviousState       = I2C_STATE_NONE;
 8005cbe:	68fb      	ldr	r3, [r7, #12]
 8005cc0:	2200      	movs	r2, #0
 8005cc2:	631a      	str	r2, [r3, #48]	@ 0x30
      hi2c->State               = HAL_I2C_STATE_READY;
 8005cc4:	68fb      	ldr	r3, [r7, #12]
 8005cc6:	2220      	movs	r2, #32
 8005cc8:	f883 203d 	strb.w	r2, [r3, #61]	@ 0x3d
      hi2c->Mode                = HAL_I2C_MODE_NONE;
 8005ccc:	68fb      	ldr	r3, [r7, #12]
 8005cce:	2200      	movs	r2, #0
 8005cd0:	f883 203e 	strb.w	r2, [r3, #62]	@ 0x3e
      hi2c->ErrorCode           |= HAL_I2C_ERROR_AF;
 8005cd4:	68fb      	ldr	r3, [r7, #12]
 8005cd6:	6c1b      	ldr	r3, [r3, #64]	@ 0x40
 8005cd8:	f043 0204 	orr.w	r2, r3, #4
 8005cdc:	68fb      	ldr	r3, [r7, #12]
 8005cde:	641a      	str	r2, [r3, #64]	@ 0x40

      /* Process Unlocked */
      __HAL_UNLOCK(hi2c);
 8005ce0:	68fb      	ldr	r3, [r7, #12]
 8005ce2:	2200      	movs	r2, #0
 8005ce4:	f883 203c 	strb.w	r2, [r3, #60]	@ 0x3c

      return HAL_ERROR;
 8005ce8:	2301      	movs	r3, #1
 8005cea:	e067      	b.n	8005dbc <I2C_WaitOnMasterAddressFlagUntilTimeout+0x138>
    }

    /* Check for the Timeout */
    if (Timeout != HAL_MAX_DELAY)
 8005cec:	687b      	ldr	r3, [r7, #4]
 8005cee:	f1b3 3fff 	cmp.w	r3, #4294967295	@ 0xffffffff
 8005cf2:	d041      	beq.n	8005d78 <I2C_WaitOnMasterAddressFlagUntilTimeout+0xf4>
    {
      if (((HAL_GetTick() - Tickstart) > Timeout) || (Timeout == 0U))
 8005cf4:	f7fd fa90 	bl	8003218 <HAL_GetTick>
 8005cf8:	4602      	mov	r2, r0
 8005cfa:	683b      	ldr	r3, [r7, #0]
 8005cfc:	1ad3      	subs	r3, r2, r3
 8005cfe:	687a      	ldr	r2, [r7, #4]
 8005d00:	429a      	cmp	r2, r3
 8005d02:	d302      	bcc.n	8005d0a <I2C_WaitOnMasterAddressFlagUntilTimeout+0x86>
 8005d04:	687b      	ldr	r3, [r7, #4]
 8005d06:	2b00      	cmp	r3, #0
 8005d08:	d136      	bne.n	8005d78 <I2C_WaitOnMasterAddressFlagUntilTimeout+0xf4>
      {
        if ((__HAL_I2C_GET_FLAG(hi2c, Flag) == RESET))
 8005d0a:	68bb      	ldr	r3, [r7, #8]
 8005d0c:	0c1b      	lsrs	r3, r3, #16
 8005d0e:	b2db      	uxtb	r3, r3
 8005d10:	2b01      	cmp	r3, #1
 8005d12:	d10c      	bne.n	8005d2e <I2C_WaitOnMasterAddressFlagUntilTimeout+0xaa>
 8005d14:	68fb      	ldr	r3, [r7, #12]
 8005d16:	681b      	ldr	r3, [r3, #0]
 8005d18:	695b      	ldr	r3, [r3, #20]
 8005d1a:	43da      	mvns	r2, r3
 8005d1c:	68bb      	ldr	r3, [r7, #8]
 8005d1e:	4013      	ands	r3, r2
 8005d20:	b29b      	uxth	r3, r3
 8005d22:	2b00      	cmp	r3, #0
 8005d24:	bf14      	ite	ne
 8005d26:	2301      	movne	r3, #1
 8005d28:	2300      	moveq	r3, #0
 8005d2a:	b2db      	uxtb	r3, r3
 8005d2c:	e00b      	b.n	8005d46 <I2C_WaitOnMasterAddressFlagUntilTimeout+0xc2>
 8005d2e:	68fb      	ldr	r3, [r7, #12]
 8005d30:	681b      	ldr	r3, [r3, #0]
 8005d32:	699b      	ldr	r3, [r3, #24]
 8005d34:	43da      	mvns	r2, r3
 8005d36:	68bb      	ldr	r3, [r7, #8]
 8005d38:	4013      	ands	r3, r2
 8005d3a:	b29b      	uxth	r3, r3
 8005d3c:	2b00      	cmp	r3, #0
 8005d3e:	bf14      	ite	ne
 8005d40:	2301      	movne	r3, #1
 8005d42:	2300      	moveq	r3, #0
 8005d44:	b2db      	uxtb	r3, r3
 8005d46:	2b00      	cmp	r3, #0
 8005d48:	d016      	beq.n	8005d78 <I2C_WaitOnMasterAddressFlagUntilTimeout+0xf4>
        {
          hi2c->PreviousState       = I2C_STATE_NONE;
 8005d4a:	68fb      	ldr	r3, [r7, #12]
 8005d4c:	2200      	movs	r2, #0
 8005d4e:	631a      	str	r2, [r3, #48]	@ 0x30
          hi2c->State               = HAL_I2C_STATE_READY;
 8005d50:	68fb      	ldr	r3, [r7, #12]
 8005d52:	2220      	movs	r2, #32
 8005d54:	f883 203d 	strb.w	r2, [r3, #61]	@ 0x3d
          hi2c->Mode                = HAL_I2C_MODE_NONE;
 8005d58:	68fb      	ldr	r3, [r7, #12]
 8005d5a:	2200      	movs	r2, #0
 8005d5c:	f883 203e 	strb.w	r2, [r3, #62]	@ 0x3e
          hi2c->ErrorCode           |= HAL_I2C_ERROR_TIMEOUT;
 8005d60:	68fb      	ldr	r3, [r7, #12]
 8005d62:	6c1b      	ldr	r3, [r3, #64]	@ 0x40
 8005d64:	f043 0220 	orr.w	r2, r3, #32
 8005d68:	68fb      	ldr	r3, [r7, #12]
 8005d6a:	641a      	str	r2, [r3, #64]	@ 0x40

          /* Process Unlocked */
          __HAL_UNLOCK(hi2c);
 8005d6c:	68fb      	ldr	r3, [r7, #12]
 8005d6e:	2200      	movs	r2, #0
 8005d70:	f883 203c 	strb.w	r2, [r3, #60]	@ 0x3c

          return HAL_ERROR;
 8005d74:	2301      	movs	r3, #1
 8005d76:	e021      	b.n	8005dbc <I2C_WaitOnMasterAddressFlagUntilTimeout+0x138>
  while (__HAL_I2C_GET_FLAG(hi2c, Flag) == RESET)
 8005d78:	68bb      	ldr	r3, [r7, #8]
 8005d7a:	0c1b      	lsrs	r3, r3, #16
 8005d7c:	b2db      	uxtb	r3, r3
 8005d7e:	2b01      	cmp	r3, #1
 8005d80:	d10c      	bne.n	8005d9c <I2C_WaitOnMasterAddressFlagUntilTimeout+0x118>
 8005d82:	68fb      	ldr	r3, [r7, #12]
 8005d84:	681b      	ldr	r3, [r3, #0]
 8005d86:	695b      	ldr	r3, [r3, #20]
 8005d88:	43da      	mvns	r2, r3
 8005d8a:	68bb      	ldr	r3, [r7, #8]
 8005d8c:	4013      	ands	r3, r2
 8005d8e:	b29b      	uxth	r3, r3
 8005d90:	2b00      	cmp	r3, #0
 8005d92:	bf14      	ite	ne
 8005d94:	2301      	movne	r3, #1
 8005d96:	2300      	moveq	r3, #0
 8005d98:	b2db      	uxtb	r3, r3
 8005d9a:	e00b      	b.n	8005db4 <I2C_WaitOnMasterAddressFlagUntilTimeout+0x130>
 8005d9c:	68fb      	ldr	r3, [r7, #12]
 8005d9e:	681b      	ldr	r3, [r3, #0]
 8005da0:	699b      	ldr	r3, [r3, #24]
 8005da2:	43da      	mvns	r2, r3
 8005da4:	68bb      	ldr	r3, [r7, #8]
 8005da6:	4013      	ands	r3, r2
 8005da8:	b29b      	uxth	r3, r3
 8005daa:	2b00      	cmp	r3, #0
 8005dac:	bf14      	ite	ne
 8005dae:	2301      	movne	r3, #1
 8005db0:	2300      	moveq	r3, #0
 8005db2:	b2db      	uxtb	r3, r3
 8005db4:	2b00      	cmp	r3, #0
 8005db6:	f47f af6d 	bne.w	8005c94 <I2C_WaitOnMasterAddressFlagUntilTimeout+0x10>
        }
      }
    }
  }
  return HAL_OK;
 8005dba:	2300      	movs	r3, #0
}
 8005dbc:	4618      	mov	r0, r3
 8005dbe:	3710      	adds	r7, #16
 8005dc0:	46bd      	mov	sp, r7
 8005dc2:	bd80      	pop	{r7, pc}

08005dc4 <I2C_WaitOnTXEFlagUntilTimeout>:
  * @param  Timeout Timeout duration
  * @param  Tickstart Tick start value
  * @retval HAL status
  */
static HAL_StatusTypeDef I2C_WaitOnTXEFlagUntilTimeout(I2C_HandleTypeDef *hi2c, uint32_t Timeout, uint32_t Tickstart)
{
 8005dc4:	b580      	push	{r7, lr}
 8005dc6:	b084      	sub	sp, #16
 8005dc8:	af00      	add	r7, sp, #0
 8005dca:	60f8      	str	r0, [r7, #12]
 8005dcc:	60b9      	str	r1, [r7, #8]
 8005dce:	607a      	str	r2, [r7, #4]
  while (__HAL_I2C_GET_FLAG(hi2c, I2C_FLAG_TXE) == RESET)
 8005dd0:	e034      	b.n	8005e3c <I2C_WaitOnTXEFlagUntilTimeout+0x78>
  {
    /* Check if a NACK is detected */
    if (I2C_IsAcknowledgeFailed(hi2c) != HAL_OK)
 8005dd2:	68f8      	ldr	r0, [r7, #12]
 8005dd4:	f000 f8e3 	bl	8005f9e <I2C_IsAcknowledgeFailed>
 8005dd8:	4603      	mov	r3, r0
 8005dda:	2b00      	cmp	r3, #0
 8005ddc:	d001      	beq.n	8005de2 <I2C_WaitOnTXEFlagUntilTimeout+0x1e>
    {
      return HAL_ERROR;
 8005dde:	2301      	movs	r3, #1
 8005de0:	e034      	b.n	8005e4c <I2C_WaitOnTXEFlagUntilTimeout+0x88>
    }

    /* Check for the Timeout */
    if (Timeout != HAL_MAX_DELAY)
 8005de2:	68bb      	ldr	r3, [r7, #8]
 8005de4:	f1b3 3fff 	cmp.w	r3, #4294967295	@ 0xffffffff
 8005de8:	d028      	beq.n	8005e3c <I2C_WaitOnTXEFlagUntilTimeout+0x78>
    {
      if (((HAL_GetTick() - Tickstart) > Timeout) || (Timeout == 0U))
 8005dea:	f7fd fa15 	bl	8003218 <HAL_GetTick>
 8005dee:	4602      	mov	r2, r0
 8005df0:	687b      	ldr	r3, [r7, #4]
 8005df2:	1ad3      	subs	r3, r2, r3
 8005df4:	68ba      	ldr	r2, [r7, #8]
 8005df6:	429a      	cmp	r2, r3
 8005df8:	d302      	bcc.n	8005e00 <I2C_WaitOnTXEFlagUntilTimeout+0x3c>
 8005dfa:	68bb      	ldr	r3, [r7, #8]
 8005dfc:	2b00      	cmp	r3, #0
 8005dfe:	d11d      	bne.n	8005e3c <I2C_WaitOnTXEFlagUntilTimeout+0x78>
      {
        if ((__HAL_I2C_GET_FLAG(hi2c, I2C_FLAG_TXE) == RESET))
 8005e00:	68fb      	ldr	r3, [r7, #12]
 8005e02:	681b      	ldr	r3, [r3, #0]
 8005e04:	695b      	ldr	r3, [r3, #20]
 8005e06:	f003 0380 	and.w	r3, r3, #128	@ 0x80
 8005e0a:	2b80      	cmp	r3, #128	@ 0x80
 8005e0c:	d016      	beq.n	8005e3c <I2C_WaitOnTXEFlagUntilTimeout+0x78>
        {
          hi2c->PreviousState       = I2C_STATE_NONE;
 8005e0e:	68fb      	ldr	r3, [r7, #12]
 8005e10:	2200      	movs	r2, #0
 8005e12:	631a      	str	r2, [r3, #48]	@ 0x30
          hi2c->State               = HAL_I2C_STATE_READY;
 8005e14:	68fb      	ldr	r3, [r7, #12]
 8005e16:	2220      	movs	r2, #32
 8005e18:	f883 203d 	strb.w	r2, [r3, #61]	@ 0x3d
          hi2c->Mode                = HAL_I2C_MODE_NONE;
 8005e1c:	68fb      	ldr	r3, [r7, #12]
 8005e1e:	2200      	movs	r2, #0
 8005e20:	f883 203e 	strb.w	r2, [r3, #62]	@ 0x3e
          hi2c->ErrorCode           |= HAL_I2C_ERROR_TIMEOUT;
 8005e24:	68fb      	ldr	r3, [r7, #12]
 8005e26:	6c1b      	ldr	r3, [r3, #64]	@ 0x40
 8005e28:	f043 0220 	orr.w	r2, r3, #32
 8005e2c:	68fb      	ldr	r3, [r7, #12]
 8005e2e:	641a      	str	r2, [r3, #64]	@ 0x40

          /* Process Unlocked */
          __HAL_UNLOCK(hi2c);
 8005e30:	68fb      	ldr	r3, [r7, #12]
 8005e32:	2200      	movs	r2, #0
 8005e34:	f883 203c 	strb.w	r2, [r3, #60]	@ 0x3c

          return HAL_ERROR;
 8005e38:	2301      	movs	r3, #1
 8005e3a:	e007      	b.n	8005e4c <I2C_WaitOnTXEFlagUntilTimeout+0x88>
  while (__HAL_I2C_GET_FLAG(hi2c, I2C_FLAG_TXE) == RESET)
 8005e3c:	68fb      	ldr	r3, [r7, #12]
 8005e3e:	681b      	ldr	r3, [r3, #0]
 8005e40:	695b      	ldr	r3, [r3, #20]
 8005e42:	f003 0380 	and.w	r3, r3, #128	@ 0x80
 8005e46:	2b80      	cmp	r3, #128	@ 0x80
 8005e48:	d1c3      	bne.n	8005dd2 <I2C_WaitOnTXEFlagUntilTimeout+0xe>
        }
      }
    }
  }
  return HAL_OK;
 8005e4a:	2300      	movs	r3, #0
}
 8005e4c:	4618      	mov	r0, r3
 8005e4e:	3710      	adds	r7, #16
 8005e50:	46bd      	mov	sp, r7
 8005e52:	bd80      	pop	{r7, pc}

08005e54 <I2C_WaitOnBTFFlagUntilTimeout>:
  * @param  Timeout Timeout duration
  * @param  Tickstart Tick start value
  * @retval HAL status
  */
static HAL_StatusTypeDef I2C_WaitOnBTFFlagUntilTimeout(I2C_HandleTypeDef *hi2c, uint32_t Timeout, uint32_t Tickstart)
{
 8005e54:	b580      	push	{r7, lr}
 8005e56:	b084      	sub	sp, #16
 8005e58:	af00      	add	r7, sp, #0
 8005e5a:	60f8      	str	r0, [r7, #12]
 8005e5c:	60b9      	str	r1, [r7, #8]
 8005e5e:	607a      	str	r2, [r7, #4]
  while (__HAL_I2C_GET_FLAG(hi2c, I2C_FLAG_BTF) == RESET)
 8005e60:	e034      	b.n	8005ecc <I2C_WaitOnBTFFlagUntilTimeout+0x78>
  {
    /* Check if a NACK is detected */
    if (I2C_IsAcknowledgeFailed(hi2c) != HAL_OK)
 8005e62:	68f8      	ldr	r0, [r7, #12]
 8005e64:	f000 f89b 	bl	8005f9e <I2C_IsAcknowledgeFailed>
 8005e68:	4603      	mov	r3, r0
 8005e6a:	2b00      	cmp	r3, #0
 8005e6c:	d001      	beq.n	8005e72 <I2C_WaitOnBTFFlagUntilTimeout+0x1e>
    {
      return HAL_ERROR;
 8005e6e:	2301      	movs	r3, #1
 8005e70:	e034      	b.n	8005edc <I2C_WaitOnBTFFlagUntilTimeout+0x88>
    }

    /* Check for the Timeout */
    if (Timeout != HAL_MAX_DELAY)
 8005e72:	68bb      	ldr	r3, [r7, #8]
 8005e74:	f1b3 3fff 	cmp.w	r3, #4294967295	@ 0xffffffff
 8005e78:	d028      	beq.n	8005ecc <I2C_WaitOnBTFFlagUntilTimeout+0x78>
    {
      if (((HAL_GetTick() - Tickstart) > Timeout) || (Timeout == 0U))
 8005e7a:	f7fd f9cd 	bl	8003218 <HAL_GetTick>
 8005e7e:	4602      	mov	r2, r0
 8005e80:	687b      	ldr	r3, [r7, #4]
 8005e82:	1ad3      	subs	r3, r2, r3
 8005e84:	68ba      	ldr	r2, [r7, #8]
 8005e86:	429a      	cmp	r2, r3
 8005e88:	d302      	bcc.n	8005e90 <I2C_WaitOnBTFFlagUntilTimeout+0x3c>
 8005e8a:	68bb      	ldr	r3, [r7, #8]
 8005e8c:	2b00      	cmp	r3, #0
 8005e8e:	d11d      	bne.n	8005ecc <I2C_WaitOnBTFFlagUntilTimeout+0x78>
      {
        if ((__HAL_I2C_GET_FLAG(hi2c, I2C_FLAG_BTF) == RESET))
 8005e90:	68fb      	ldr	r3, [r7, #12]
 8005e92:	681b      	ldr	r3, [r3, #0]
 8005e94:	695b      	ldr	r3, [r3, #20]
 8005e96:	f003 0304 	and.w	r3, r3, #4
 8005e9a:	2b04      	cmp	r3, #4
 8005e9c:	d016      	beq.n	8005ecc <I2C_WaitOnBTFFlagUntilTimeout+0x78>
        {
          hi2c->PreviousState       = I2C_STATE_NONE;
 8005e9e:	68fb      	ldr	r3, [r7, #12]
 8005ea0:	2200      	movs	r2, #0
 8005ea2:	631a      	str	r2, [r3, #48]	@ 0x30
          hi2c->State               = HAL_I2C_STATE_READY;
 8005ea4:	68fb      	ldr	r3, [r7, #12]
 8005ea6:	2220      	movs	r2, #32
 8005ea8:	f883 203d 	strb.w	r2, [r3, #61]	@ 0x3d
          hi2c->Mode                = HAL_I2C_MODE_NONE;
 8005eac:	68fb      	ldr	r3, [r7, #12]
 8005eae:	2200      	movs	r2, #0
 8005eb0:	f883 203e 	strb.w	r2, [r3, #62]	@ 0x3e
          hi2c->ErrorCode           |= HAL_I2C_ERROR_TIMEOUT;
 8005eb4:	68fb      	ldr	r3, [r7, #12]
 8005eb6:	6c1b      	ldr	r3, [r3, #64]	@ 0x40
 8005eb8:	f043 0220 	orr.w	r2, r3, #32
 8005ebc:	68fb      	ldr	r3, [r7, #12]
 8005ebe:	641a      	str	r2, [r3, #64]	@ 0x40

          /* Process Unlocked */
          __HAL_UNLOCK(hi2c);
 8005ec0:	68fb      	ldr	r3, [r7, #12]
 8005ec2:	2200      	movs	r2, #0
 8005ec4:	f883 203c 	strb.w	r2, [r3, #60]	@ 0x3c

          return HAL_ERROR;
 8005ec8:	2301      	movs	r3, #1
 8005eca:	e007      	b.n	8005edc <I2C_WaitOnBTFFlagUntilTimeout+0x88>
  while (__HAL_I2C_GET_FLAG(hi2c, I2C_FLAG_BTF) == RESET)
 8005ecc:	68fb      	ldr	r3, [r7, #12]
 8005ece:	681b      	ldr	r3, [r3, #0]
 8005ed0:	695b      	ldr	r3, [r3, #20]
 8005ed2:	f003 0304 	and.w	r3, r3, #4
 8005ed6:	2b04      	cmp	r3, #4
 8005ed8:	d1c3      	bne.n	8005e62 <I2C_WaitOnBTFFlagUntilTimeout+0xe>
        }
      }
    }
  }
  return HAL_OK;
 8005eda:	2300      	movs	r3, #0
}
 8005edc:	4618      	mov	r0, r3
 8005ede:	3710      	adds	r7, #16
 8005ee0:	46bd      	mov	sp, r7
 8005ee2:	bd80      	pop	{r7, pc}

08005ee4 <I2C_WaitOnRXNEFlagUntilTimeout>:
  * @param  Timeout Timeout duration
  * @param  Tickstart Tick start value
  * @retval HAL status
  */
static HAL_StatusTypeDef I2C_WaitOnRXNEFlagUntilTimeout(I2C_HandleTypeDef *hi2c, uint32_t Timeout, uint32_t Tickstart)
{
 8005ee4:	b580      	push	{r7, lr}
 8005ee6:	b084      	sub	sp, #16
 8005ee8:	af00      	add	r7, sp, #0
 8005eea:	60f8      	str	r0, [r7, #12]
 8005eec:	60b9      	str	r1, [r7, #8]
 8005eee:	607a      	str	r2, [r7, #4]

  while (__HAL_I2C_GET_FLAG(hi2c, I2C_FLAG_RXNE) == RESET)
 8005ef0:	e049      	b.n	8005f86 <I2C_WaitOnRXNEFlagUntilTimeout+0xa2>
  {
    /* Check if a STOPF is detected */
    if (__HAL_I2C_GET_FLAG(hi2c, I2C_FLAG_STOPF) == SET)
 8005ef2:	68fb      	ldr	r3, [r7, #12]
 8005ef4:	681b      	ldr	r3, [r3, #0]
 8005ef6:	695b      	ldr	r3, [r3, #20]
 8005ef8:	f003 0310 	and.w	r3, r3, #16
 8005efc:	2b10      	cmp	r3, #16
 8005efe:	d119      	bne.n	8005f34 <I2C_WaitOnRXNEFlagUntilTimeout+0x50>
    {
      /* Clear STOP Flag */
      __HAL_I2C_CLEAR_FLAG(hi2c, I2C_FLAG_STOPF);
 8005f00:	68fb      	ldr	r3, [r7, #12]
 8005f02:	681b      	ldr	r3, [r3, #0]
 8005f04:	f06f 0210 	mvn.w	r2, #16
 8005f08:	615a      	str	r2, [r3, #20]

      hi2c->PreviousState       = I2C_STATE_NONE;
 8005f0a:	68fb      	ldr	r3, [r7, #12]
 8005f0c:	2200      	movs	r2, #0
 8005f0e:	631a      	str	r2, [r3, #48]	@ 0x30
      hi2c->State               = HAL_I2C_STATE_READY;
 8005f10:	68fb      	ldr	r3, [r7, #12]
 8005f12:	2220      	movs	r2, #32
 8005f14:	f883 203d 	strb.w	r2, [r3, #61]	@ 0x3d
      hi2c->Mode                = HAL_I2C_MODE_NONE;
 8005f18:	68fb      	ldr	r3, [r7, #12]
 8005f1a:	2200      	movs	r2, #0
 8005f1c:	f883 203e 	strb.w	r2, [r3, #62]	@ 0x3e
      hi2c->ErrorCode           |= HAL_I2C_ERROR_NONE;
 8005f20:	68fb      	ldr	r3, [r7, #12]
 8005f22:	6c1a      	ldr	r2, [r3, #64]	@ 0x40
 8005f24:	68fb      	ldr	r3, [r7, #12]
 8005f26:	641a      	str	r2, [r3, #64]	@ 0x40

      /* Process Unlocked */
      __HAL_UNLOCK(hi2c);
 8005f28:	68fb      	ldr	r3, [r7, #12]
 8005f2a:	2200      	movs	r2, #0
 8005f2c:	f883 203c 	strb.w	r2, [r3, #60]	@ 0x3c

      return HAL_ERROR;
 8005f30:	2301      	movs	r3, #1
 8005f32:	e030      	b.n	8005f96 <I2C_WaitOnRXNEFlagUntilTimeout+0xb2>
    }

    /* Check for the Timeout */
    if (((HAL_GetTick() - Tickstart) > Timeout) || (Timeout == 0U))
 8005f34:	f7fd f970 	bl	8003218 <HAL_GetTick>
 8005f38:	4602      	mov	r2, r0
 8005f3a:	687b      	ldr	r3, [r7, #4]
 8005f3c:	1ad3      	subs	r3, r2, r3
 8005f3e:	68ba      	ldr	r2, [r7, #8]
 8005f40:	429a      	cmp	r2, r3
 8005f42:	d302      	bcc.n	8005f4a <I2C_WaitOnRXNEFlagUntilTimeout+0x66>
 8005f44:	68bb      	ldr	r3, [r7, #8]
 8005f46:	2b00      	cmp	r3, #0
 8005f48:	d11d      	bne.n	8005f86 <I2C_WaitOnRXNEFlagUntilTimeout+0xa2>
    {
      if ((__HAL_I2C_GET_FLAG(hi2c, I2C_FLAG_RXNE) == RESET))
 8005f4a:	68fb      	ldr	r3, [r7, #12]
 8005f4c:	681b      	ldr	r3, [r3, #0]
 8005f4e:	695b      	ldr	r3, [r3, #20]
 8005f50:	f003 0340 	and.w	r3, r3, #64	@ 0x40
 8005f54:	2b40      	cmp	r3, #64	@ 0x40
 8005f56:	d016      	beq.n	8005f86 <I2C_WaitOnRXNEFlagUntilTimeout+0xa2>
      {
        hi2c->PreviousState       = I2C_STATE_NONE;
 8005f58:	68fb      	ldr	r3, [r7, #12]
 8005f5a:	2200      	movs	r2, #0
 8005f5c:	631a      	str	r2, [r3, #48]	@ 0x30
        hi2c->State               = HAL_I2C_STATE_READY;
 8005f5e:	68fb      	ldr	r3, [r7, #12]
 8005f60:	2220      	movs	r2, #32
 8005f62:	f883 203d 	strb.w	r2, [r3, #61]	@ 0x3d
        hi2c->Mode                = HAL_I2C_MODE_NONE;
 8005f66:	68fb      	ldr	r3, [r7, #12]
 8005f68:	2200      	movs	r2, #0
 8005f6a:	f883 203e 	strb.w	r2, [r3, #62]	@ 0x3e
        hi2c->ErrorCode           |= HAL_I2C_ERROR_TIMEOUT;
 8005f6e:	68fb      	ldr	r3, [r7, #12]
 8005f70:	6c1b      	ldr	r3, [r3, #64]	@ 0x40
 8005f72:	f043 0220 	orr.w	r2, r3, #32
 8005f76:	68fb      	ldr	r3, [r7, #12]
 8005f78:	641a      	str	r2, [r3, #64]	@ 0x40

        /* Process Unlocked */
        __HAL_UNLOCK(hi2c);
 8005f7a:	68fb      	ldr	r3, [r7, #12]
 8005f7c:	2200      	movs	r2, #0
 8005f7e:	f883 203c 	strb.w	r2, [r3, #60]	@ 0x3c

        return HAL_ERROR;
 8005f82:	2301      	movs	r3, #1
 8005f84:	e007      	b.n	8005f96 <I2C_WaitOnRXNEFlagUntilTimeout+0xb2>
  while (__HAL_I2C_GET_FLAG(hi2c, I2C_FLAG_RXNE) == RESET)
 8005f86:	68fb      	ldr	r3, [r7, #12]
 8005f88:	681b      	ldr	r3, [r3, #0]
 8005f8a:	695b      	ldr	r3, [r3, #20]
 8005f8c:	f003 0340 	and.w	r3, r3, #64	@ 0x40
 8005f90:	2b40      	cmp	r3, #64	@ 0x40
 8005f92:	d1ae      	bne.n	8005ef2 <I2C_WaitOnRXNEFlagUntilTimeout+0xe>
      }
    }
  }
  return HAL_OK;
 8005f94:	2300      	movs	r3, #0
}
 8005f96:	4618      	mov	r0, r3
 8005f98:	3710      	adds	r7, #16
 8005f9a:	46bd      	mov	sp, r7
 8005f9c:	bd80      	pop	{r7, pc}

08005f9e <I2C_IsAcknowledgeFailed>:
  * @param  hi2c Pointer to a I2C_HandleTypeDef structure that contains
  *                the configuration information for the specified I2C.
  * @retval HAL status
  */
static HAL_StatusTypeDef I2C_IsAcknowledgeFailed(I2C_HandleTypeDef *hi2c)
{
 8005f9e:	b480      	push	{r7}
 8005fa0:	b083      	sub	sp, #12
 8005fa2:	af00      	add	r7, sp, #0
 8005fa4:	6078      	str	r0, [r7, #4]
  if (__HAL_I2C_GET_FLAG(hi2c, I2C_FLAG_AF) == SET)
 8005fa6:	687b      	ldr	r3, [r7, #4]
 8005fa8:	681b      	ldr	r3, [r3, #0]
 8005faa:	695b      	ldr	r3, [r3, #20]
 8005fac:	f403 6380 	and.w	r3, r3, #1024	@ 0x400
 8005fb0:	f5b3 6f80 	cmp.w	r3, #1024	@ 0x400
 8005fb4:	d11b      	bne.n	8005fee <I2C_IsAcknowledgeFailed+0x50>
  {
    /* Clear NACKF Flag */
    __HAL_I2C_CLEAR_FLAG(hi2c, I2C_FLAG_AF);
 8005fb6:	687b      	ldr	r3, [r7, #4]
 8005fb8:	681b      	ldr	r3, [r3, #0]
 8005fba:	f46f 6280 	mvn.w	r2, #1024	@ 0x400
 8005fbe:	615a      	str	r2, [r3, #20]

    hi2c->PreviousState       = I2C_STATE_NONE;
 8005fc0:	687b      	ldr	r3, [r7, #4]
 8005fc2:	2200      	movs	r2, #0
 8005fc4:	631a      	str	r2, [r3, #48]	@ 0x30
    hi2c->State               = HAL_I2C_STATE_READY;
 8005fc6:	687b      	ldr	r3, [r7, #4]
 8005fc8:	2220      	movs	r2, #32
 8005fca:	f883 203d 	strb.w	r2, [r3, #61]	@ 0x3d
    hi2c->Mode                = HAL_I2C_MODE_NONE;
 8005fce:	687b      	ldr	r3, [r7, #4]
 8005fd0:	2200      	movs	r2, #0
 8005fd2:	f883 203e 	strb.w	r2, [r3, #62]	@ 0x3e
    hi2c->ErrorCode           |= HAL_I2C_ERROR_AF;
 8005fd6:	687b      	ldr	r3, [r7, #4]
 8005fd8:	6c1b      	ldr	r3, [r3, #64]	@ 0x40
 8005fda:	f043 0204 	orr.w	r2, r3, #4
 8005fde:	687b      	ldr	r3, [r7, #4]
 8005fe0:	641a      	str	r2, [r3, #64]	@ 0x40

    /* Process Unlocked */
    __HAL_UNLOCK(hi2c);
 8005fe2:	687b      	ldr	r3, [r7, #4]
 8005fe4:	2200      	movs	r2, #0
 8005fe6:	f883 203c 	strb.w	r2, [r3, #60]	@ 0x3c

    return HAL_ERROR;
 8005fea:	2301      	movs	r3, #1
 8005fec:	e000      	b.n	8005ff0 <I2C_IsAcknowledgeFailed+0x52>
  }
  return HAL_OK;
 8005fee:	2300      	movs	r3, #0
}
 8005ff0:	4618      	mov	r0, r3
 8005ff2:	370c      	adds	r7, #12
 8005ff4:	46bd      	mov	sp, r7
 8005ff6:	f85d 7b04 	ldr.w	r7, [sp], #4
 8005ffa:	4770      	bx	lr

08005ffc <HAL_I2CEx_ConfigAnalogFilter>:
  *                the configuration information for the specified I2Cx peripheral.
  * @param  AnalogFilter new state of the Analog filter.
  * @retval HAL status
  */
HAL_StatusTypeDef HAL_I2CEx_ConfigAnalogFilter(I2C_HandleTypeDef *hi2c, uint32_t AnalogFilter)
{
 8005ffc:	b480      	push	{r7}
 8005ffe:	b083      	sub	sp, #12
 8006000:	af00      	add	r7, sp, #0
 8006002:	6078      	str	r0, [r7, #4]
 8006004:	6039      	str	r1, [r7, #0]
  /* Check the parameters */
  assert_param(IS_I2C_ALL_INSTANCE(hi2c->Instance));
  assert_param(IS_I2C_ANALOG_FILTER(AnalogFilter));

  if (hi2c->State == HAL_I2C_STATE_READY)
 8006006:	687b      	ldr	r3, [r7, #4]
 8006008:	f893 303d 	ldrb.w	r3, [r3, #61]	@ 0x3d
 800600c:	b2db      	uxtb	r3, r3
 800600e:	2b20      	cmp	r3, #32
 8006010:	d129      	bne.n	8006066 <HAL_I2CEx_ConfigAnalogFilter+0x6a>
  {
    hi2c->State = HAL_I2C_STATE_BUSY;
 8006012:	687b      	ldr	r3, [r7, #4]
 8006014:	2224      	movs	r2, #36	@ 0x24
 8006016:	f883 203d 	strb.w	r2, [r3, #61]	@ 0x3d

    /* Disable the selected I2C peripheral */
    __HAL_I2C_DISABLE(hi2c);
 800601a:	687b      	ldr	r3, [r7, #4]
 800601c:	681b      	ldr	r3, [r3, #0]
 800601e:	681a      	ldr	r2, [r3, #0]
 8006020:	687b      	ldr	r3, [r7, #4]
 8006022:	681b      	ldr	r3, [r3, #0]
 8006024:	f022 0201 	bic.w	r2, r2, #1
 8006028:	601a      	str	r2, [r3, #0]

    /* Reset I2Cx ANOFF bit */
    hi2c->Instance->FLTR &= ~(I2C_FLTR_ANOFF);
 800602a:	687b      	ldr	r3, [r7, #4]
 800602c:	681b      	ldr	r3, [r3, #0]
 800602e:	6a5a      	ldr	r2, [r3, #36]	@ 0x24
 8006030:	687b      	ldr	r3, [r7, #4]
 8006032:	681b      	ldr	r3, [r3, #0]
 8006034:	f022 0210 	bic.w	r2, r2, #16
 8006038:	625a      	str	r2, [r3, #36]	@ 0x24

    /* Disable the analog filter */
    hi2c->Instance->FLTR |= AnalogFilter;
 800603a:	687b      	ldr	r3, [r7, #4]
 800603c:	681b      	ldr	r3, [r3, #0]
 800603e:	6a59      	ldr	r1, [r3, #36]	@ 0x24
 8006040:	687b      	ldr	r3, [r7, #4]
 8006042:	681b      	ldr	r3, [r3, #0]
 8006044:	683a      	ldr	r2, [r7, #0]
 8006046:	430a      	orrs	r2, r1
 8006048:	625a      	str	r2, [r3, #36]	@ 0x24

    __HAL_I2C_ENABLE(hi2c);
 800604a:	687b      	ldr	r3, [r7, #4]
 800604c:	681b      	ldr	r3, [r3, #0]
 800604e:	681a      	ldr	r2, [r3, #0]
 8006050:	687b      	ldr	r3, [r7, #4]
 8006052:	681b      	ldr	r3, [r3, #0]
 8006054:	f042 0201 	orr.w	r2, r2, #1
 8006058:	601a      	str	r2, [r3, #0]

    hi2c->State = HAL_I2C_STATE_READY;
 800605a:	687b      	ldr	r3, [r7, #4]
 800605c:	2220      	movs	r2, #32
 800605e:	f883 203d 	strb.w	r2, [r3, #61]	@ 0x3d

    return HAL_OK;
 8006062:	2300      	movs	r3, #0
 8006064:	e000      	b.n	8006068 <HAL_I2CEx_ConfigAnalogFilter+0x6c>
  }
  else
  {
    return HAL_BUSY;
 8006066:	2302      	movs	r3, #2
  }
}
 8006068:	4618      	mov	r0, r3
 800606a:	370c      	adds	r7, #12
 800606c:	46bd      	mov	sp, r7
 800606e:	f85d 7b04 	ldr.w	r7, [sp], #4
 8006072:	4770      	bx	lr

08006074 <HAL_I2CEx_ConfigDigitalFilter>:
  *                the configuration information for the specified I2Cx peripheral.
  * @param  DigitalFilter Coefficient of digital noise filter between 0x00 and 0x0F.
  * @retval HAL status
  */
HAL_StatusTypeDef HAL_I2CEx_ConfigDigitalFilter(I2C_HandleTypeDef *hi2c, uint32_t DigitalFilter)
{
 8006074:	b480      	push	{r7}
 8006076:	b085      	sub	sp, #20
 8006078:	af00      	add	r7, sp, #0
 800607a:	6078      	str	r0, [r7, #4]
 800607c:	6039      	str	r1, [r7, #0]
  uint16_t tmpreg = 0;
 800607e:	2300      	movs	r3, #0
 8006080:	81fb      	strh	r3, [r7, #14]

  /* Check the parameters */
  assert_param(IS_I2C_ALL_INSTANCE(hi2c->Instance));
  assert_param(IS_I2C_DIGITAL_FILTER(DigitalFilter));

  if (hi2c->State == HAL_I2C_STATE_READY)
 8006082:	687b      	ldr	r3, [r7, #4]
 8006084:	f893 303d 	ldrb.w	r3, [r3, #61]	@ 0x3d
 8006088:	b2db      	uxtb	r3, r3
 800608a:	2b20      	cmp	r3, #32
 800608c:	d12a      	bne.n	80060e4 <HAL_I2CEx_ConfigDigitalFilter+0x70>
  {
    hi2c->State = HAL_I2C_STATE_BUSY;
 800608e:	687b      	ldr	r3, [r7, #4]
 8006090:	2224      	movs	r2, #36	@ 0x24
 8006092:	f883 203d 	strb.w	r2, [r3, #61]	@ 0x3d

    /* Disable the selected I2C peripheral */
    __HAL_I2C_DISABLE(hi2c);
 8006096:	687b      	ldr	r3, [r7, #4]
 8006098:	681b      	ldr	r3, [r3, #0]
 800609a:	681a      	ldr	r2, [r3, #0]
 800609c:	687b      	ldr	r3, [r7, #4]
 800609e:	681b      	ldr	r3, [r3, #0]
 80060a0:	f022 0201 	bic.w	r2, r2, #1
 80060a4:	601a      	str	r2, [r3, #0]

    /* Get the old register value */
    tmpreg = hi2c->Instance->FLTR;
 80060a6:	687b      	ldr	r3, [r7, #4]
 80060a8:	681b      	ldr	r3, [r3, #0]
 80060aa:	6a5b      	ldr	r3, [r3, #36]	@ 0x24
 80060ac:	81fb      	strh	r3, [r7, #14]

    /* Reset I2Cx DNF bit [3:0] */
    tmpreg &= ~(I2C_FLTR_DNF);
 80060ae:	89fb      	ldrh	r3, [r7, #14]
 80060b0:	f023 030f 	bic.w	r3, r3, #15
 80060b4:	81fb      	strh	r3, [r7, #14]

    /* Set I2Cx DNF coefficient */
    tmpreg |= DigitalFilter;
 80060b6:	683b      	ldr	r3, [r7, #0]
 80060b8:	b29a      	uxth	r2, r3
 80060ba:	89fb      	ldrh	r3, [r7, #14]
 80060bc:	4313      	orrs	r3, r2
 80060be:	81fb      	strh	r3, [r7, #14]

    /* Store the new register value */
    hi2c->Instance->FLTR = tmpreg;
 80060c0:	687b      	ldr	r3, [r7, #4]
 80060c2:	681b      	ldr	r3, [r3, #0]
 80060c4:	89fa      	ldrh	r2, [r7, #14]
 80060c6:	625a      	str	r2, [r3, #36]	@ 0x24

    __HAL_I2C_ENABLE(hi2c);
 80060c8:	687b      	ldr	r3, [r7, #4]
 80060ca:	681b      	ldr	r3, [r3, #0]
 80060cc:	681a      	ldr	r2, [r3, #0]
 80060ce:	687b      	ldr	r3, [r7, #4]
 80060d0:	681b      	ldr	r3, [r3, #0]
 80060d2:	f042 0201 	orr.w	r2, r2, #1
 80060d6:	601a      	str	r2, [r3, #0]

    hi2c->State = HAL_I2C_STATE_READY;
 80060d8:	687b      	ldr	r3, [r7, #4]
 80060da:	2220      	movs	r2, #32
 80060dc:	f883 203d 	strb.w	r2, [r3, #61]	@ 0x3d

    return HAL_OK;
 80060e0:	2300      	movs	r3, #0
 80060e2:	e000      	b.n	80060e6 <HAL_I2CEx_ConfigDigitalFilter+0x72>
  }
  else
  {
    return HAL_BUSY;
 80060e4:	2302      	movs	r3, #2
  }
}
 80060e6:	4618      	mov	r0, r3
 80060e8:	3714      	adds	r7, #20
 80060ea:	46bd      	mov	sp, r7
 80060ec:	f85d 7b04 	ldr.w	r7, [sp], #4
 80060f0:	4770      	bx	lr
	...

080060f4 <HAL_PWR_EnableBkUpAccess>:
  *         in backup domain protection disabling/enabling after programming the
  *         DBP bit" section.
  * @retval None
  */
void HAL_PWR_EnableBkUpAccess(void)
{
 80060f4:	b480      	push	{r7}
 80060f6:	b083      	sub	sp, #12
 80060f8:	af00      	add	r7, sp, #0
  __IO uint32_t dummyread;
  *(__IO uint32_t *) CR_DBP_BB = (uint32_t)ENABLE;
 80060fa:	4b06      	ldr	r3, [pc, #24]	@ (8006114 <HAL_PWR_EnableBkUpAccess+0x20>)
 80060fc:	2201      	movs	r2, #1
 80060fe:	601a      	str	r2, [r3, #0]
  dummyread = PWR->CR;
 8006100:	4b05      	ldr	r3, [pc, #20]	@ (8006118 <HAL_PWR_EnableBkUpAccess+0x24>)
 8006102:	681b      	ldr	r3, [r3, #0]
 8006104:	607b      	str	r3, [r7, #4]
  UNUSED(dummyread);
 8006106:	687b      	ldr	r3, [r7, #4]
}
 8006108:	bf00      	nop
 800610a:	370c      	adds	r7, #12
 800610c:	46bd      	mov	sp, r7
 800610e:	f85d 7b04 	ldr.w	r7, [sp], #4
 8006112:	4770      	bx	lr
 8006114:	420e0020 	.word	0x420e0020
 8006118:	40007000 	.word	0x40007000

0800611c <HAL_PWR_DisableBkUpAccess>:
  *         in backup domain protection disabling/enabling after programming the
  *         DBP bit" section.
  * @retval None
  */
void HAL_PWR_DisableBkUpAccess(void)
{
 800611c:	b480      	push	{r7}
 800611e:	b083      	sub	sp, #12
 8006120:	af00      	add	r7, sp, #0
  __IO uint32_t dummyread;
  *(__IO uint32_t *) CR_DBP_BB = (uint32_t)DISABLE;
 8006122:	4b06      	ldr	r3, [pc, #24]	@ (800613c <HAL_PWR_DisableBkUpAccess+0x20>)
 8006124:	2200      	movs	r2, #0
 8006126:	601a      	str	r2, [r3, #0]
  dummyread = PWR->CR;
 8006128:	4b05      	ldr	r3, [pc, #20]	@ (8006140 <HAL_PWR_DisableBkUpAccess+0x24>)
 800612a:	681b      	ldr	r3, [r3, #0]
 800612c:	607b      	str	r3, [r7, #4]
  UNUSED(dummyread);
 800612e:	687b      	ldr	r3, [r7, #4]
}
 8006130:	bf00      	nop
 8006132:	370c      	adds	r7, #12
 8006134:	46bd      	mov	sp, r7
 8006136:	f85d 7b04 	ldr.w	r7, [sp], #4
 800613a:	4770      	bx	lr
 800613c:	420e0020 	.word	0x420e0020
 8006140:	40007000 	.word	0x40007000

08006144 <HAL_RCC_OscConfig>:
  *         supported by this API. User should request a transition to HSE Off
  *         first and then HSE On or HSE Bypass.
  * @retval HAL status
  */
__weak HAL_StatusTypeDef HAL_RCC_OscConfig(RCC_OscInitTypeDef  *RCC_OscInitStruct)
{
 8006144:	b580      	push	{r7, lr}
 8006146:	b086      	sub	sp, #24
 8006148:	af00      	add	r7, sp, #0
 800614a:	6078      	str	r0, [r7, #4]
  uint32_t tickstart, pll_config;

  /* Check Null pointer */
  if(RCC_OscInitStruct == NULL)
 800614c:	687b      	ldr	r3, [r7, #4]
 800614e:	2b00      	cmp	r3, #0
 8006150:	d101      	bne.n	8006156 <HAL_RCC_OscConfig+0x12>
  {
    return HAL_ERROR;
 8006152:	2301      	movs	r3, #1
 8006154:	e267      	b.n	8006626 <HAL_RCC_OscConfig+0x4e2>
  }

  /* Check the parameters */
  assert_param(IS_RCC_OSCILLATORTYPE(RCC_OscInitStruct->OscillatorType));
  /*------------------------------- HSE Configuration ------------------------*/
  if(((RCC_OscInitStruct->OscillatorType) & RCC_OSCILLATORTYPE_HSE) == RCC_OSCILLATORTYPE_HSE)
 8006156:	687b      	ldr	r3, [r7, #4]
 8006158:	681b      	ldr	r3, [r3, #0]
 800615a:	f003 0301 	and.w	r3, r3, #1
 800615e:	2b00      	cmp	r3, #0
 8006160:	d075      	beq.n	800624e <HAL_RCC_OscConfig+0x10a>
  {
    /* Check the parameters */
    assert_param(IS_RCC_HSE(RCC_OscInitStruct->HSEState));
    /* When the HSE is used as system clock or clock source for PLL in these cases HSE will not disabled */
    if((__HAL_RCC_GET_SYSCLK_SOURCE() == RCC_CFGR_SWS_HSE) ||\
 8006162:	4b88      	ldr	r3, [pc, #544]	@ (8006384 <HAL_RCC_OscConfig+0x240>)
 8006164:	689b      	ldr	r3, [r3, #8]
 8006166:	f003 030c 	and.w	r3, r3, #12
 800616a:	2b04      	cmp	r3, #4
 800616c:	d00c      	beq.n	8006188 <HAL_RCC_OscConfig+0x44>
      ((__HAL_RCC_GET_SYSCLK_SOURCE() == RCC_CFGR_SWS_PLL) && ((RCC->PLLCFGR & RCC_PLLCFGR_PLLSRC) == RCC_PLLCFGR_PLLSRC_HSE)))
 800616e:	4b85      	ldr	r3, [pc, #532]	@ (8006384 <HAL_RCC_OscConfig+0x240>)
 8006170:	689b      	ldr	r3, [r3, #8]
 8006172:	f003 030c 	and.w	r3, r3, #12
    if((__HAL_RCC_GET_SYSCLK_SOURCE() == RCC_CFGR_SWS_HSE) ||\
 8006176:	2b08      	cmp	r3, #8
 8006178:	d112      	bne.n	80061a0 <HAL_RCC_OscConfig+0x5c>
      ((__HAL_RCC_GET_SYSCLK_SOURCE() == RCC_CFGR_SWS_PLL) && ((RCC->PLLCFGR & RCC_PLLCFGR_PLLSRC) == RCC_PLLCFGR_PLLSRC_HSE)))
 800617a:	4b82      	ldr	r3, [pc, #520]	@ (8006384 <HAL_RCC_OscConfig+0x240>)
 800617c:	685b      	ldr	r3, [r3, #4]
 800617e:	f403 0380 	and.w	r3, r3, #4194304	@ 0x400000
 8006182:	f5b3 0f80 	cmp.w	r3, #4194304	@ 0x400000
 8006186:	d10b      	bne.n	80061a0 <HAL_RCC_OscConfig+0x5c>
    {
      if((__HAL_RCC_GET_FLAG(RCC_FLAG_HSERDY) != RESET) && (RCC_OscInitStruct->HSEState == RCC_HSE_OFF))
 8006188:	4b7e      	ldr	r3, [pc, #504]	@ (8006384 <HAL_RCC_OscConfig+0x240>)
 800618a:	681b      	ldr	r3, [r3, #0]
 800618c:	f403 3300 	and.w	r3, r3, #131072	@ 0x20000
 8006190:	2b00      	cmp	r3, #0
 8006192:	d05b      	beq.n	800624c <HAL_RCC_OscConfig+0x108>
 8006194:	687b      	ldr	r3, [r7, #4]
 8006196:	685b      	ldr	r3, [r3, #4]
 8006198:	2b00      	cmp	r3, #0
 800619a:	d157      	bne.n	800624c <HAL_RCC_OscConfig+0x108>
      {
        return HAL_ERROR;
 800619c:	2301      	movs	r3, #1
 800619e:	e242      	b.n	8006626 <HAL_RCC_OscConfig+0x4e2>
      }
    }
    else
    {
      /* Set the new HSE configuration ---------------------------------------*/
      __HAL_RCC_HSE_CONFIG(RCC_OscInitStruct->HSEState);
 80061a0:	687b      	ldr	r3, [r7, #4]
 80061a2:	685b      	ldr	r3, [r3, #4]
 80061a4:	f5b3 3f80 	cmp.w	r3, #65536	@ 0x10000
 80061a8:	d106      	bne.n	80061b8 <HAL_RCC_OscConfig+0x74>
 80061aa:	4b76      	ldr	r3, [pc, #472]	@ (8006384 <HAL_RCC_OscConfig+0x240>)
 80061ac:	681b      	ldr	r3, [r3, #0]
 80061ae:	4a75      	ldr	r2, [pc, #468]	@ (8006384 <HAL_RCC_OscConfig+0x240>)
 80061b0:	f443 3380 	orr.w	r3, r3, #65536	@ 0x10000
 80061b4:	6013      	str	r3, [r2, #0]
 80061b6:	e01d      	b.n	80061f4 <HAL_RCC_OscConfig+0xb0>
 80061b8:	687b      	ldr	r3, [r7, #4]
 80061ba:	685b      	ldr	r3, [r3, #4]
 80061bc:	f5b3 2fa0 	cmp.w	r3, #327680	@ 0x50000
 80061c0:	d10c      	bne.n	80061dc <HAL_RCC_OscConfig+0x98>
 80061c2:	4b70      	ldr	r3, [pc, #448]	@ (8006384 <HAL_RCC_OscConfig+0x240>)
 80061c4:	681b      	ldr	r3, [r3, #0]
 80061c6:	4a6f      	ldr	r2, [pc, #444]	@ (8006384 <HAL_RCC_OscConfig+0x240>)
 80061c8:	f443 2380 	orr.w	r3, r3, #262144	@ 0x40000
 80061cc:	6013      	str	r3, [r2, #0]
 80061ce:	4b6d      	ldr	r3, [pc, #436]	@ (8006384 <HAL_RCC_OscConfig+0x240>)
 80061d0:	681b      	ldr	r3, [r3, #0]
 80061d2:	4a6c      	ldr	r2, [pc, #432]	@ (8006384 <HAL_RCC_OscConfig+0x240>)
 80061d4:	f443 3380 	orr.w	r3, r3, #65536	@ 0x10000
 80061d8:	6013      	str	r3, [r2, #0]
 80061da:	e00b      	b.n	80061f4 <HAL_RCC_OscConfig+0xb0>
 80061dc:	4b69      	ldr	r3, [pc, #420]	@ (8006384 <HAL_RCC_OscConfig+0x240>)
 80061de:	681b      	ldr	r3, [r3, #0]
 80061e0:	4a68      	ldr	r2, [pc, #416]	@ (8006384 <HAL_RCC_OscConfig+0x240>)
 80061e2:	f423 3380 	bic.w	r3, r3, #65536	@ 0x10000
 80061e6:	6013      	str	r3, [r2, #0]
 80061e8:	4b66      	ldr	r3, [pc, #408]	@ (8006384 <HAL_RCC_OscConfig+0x240>)
 80061ea:	681b      	ldr	r3, [r3, #0]
 80061ec:	4a65      	ldr	r2, [pc, #404]	@ (8006384 <HAL_RCC_OscConfig+0x240>)
 80061ee:	f423 2380 	bic.w	r3, r3, #262144	@ 0x40000
 80061f2:	6013      	str	r3, [r2, #0]

      /* Check the HSE State */
      if((RCC_OscInitStruct->HSEState) != RCC_HSE_OFF)
 80061f4:	687b      	ldr	r3, [r7, #4]
 80061f6:	685b      	ldr	r3, [r3, #4]
 80061f8:	2b00      	cmp	r3, #0
 80061fa:	d013      	beq.n	8006224 <HAL_RCC_OscConfig+0xe0>
      {
        /* Get Start Tick */
        tickstart = HAL_GetTick();
 80061fc:	f7fd f80c 	bl	8003218 <HAL_GetTick>
 8006200:	6138      	str	r0, [r7, #16]

        /* Wait till HSE is ready */
        while(__HAL_RCC_GET_FLAG(RCC_FLAG_HSERDY) == RESET)
 8006202:	e008      	b.n	8006216 <HAL_RCC_OscConfig+0xd2>
        {
          if((HAL_GetTick() - tickstart ) > HSE_TIMEOUT_VALUE)
 8006204:	f7fd f808 	bl	8003218 <HAL_GetTick>
 8006208:	4602      	mov	r2, r0
 800620a:	693b      	ldr	r3, [r7, #16]
 800620c:	1ad3      	subs	r3, r2, r3
 800620e:	2b64      	cmp	r3, #100	@ 0x64
 8006210:	d901      	bls.n	8006216 <HAL_RCC_OscConfig+0xd2>
          {
            return HAL_TIMEOUT;
 8006212:	2303      	movs	r3, #3
 8006214:	e207      	b.n	8006626 <HAL_RCC_OscConfig+0x4e2>
        while(__HAL_RCC_GET_FLAG(RCC_FLAG_HSERDY) == RESET)
 8006216:	4b5b      	ldr	r3, [pc, #364]	@ (8006384 <HAL_RCC_OscConfig+0x240>)
 8006218:	681b      	ldr	r3, [r3, #0]
 800621a:	f403 3300 	and.w	r3, r3, #131072	@ 0x20000
 800621e:	2b00      	cmp	r3, #0
 8006220:	d0f0      	beq.n	8006204 <HAL_RCC_OscConfig+0xc0>
 8006222:	e014      	b.n	800624e <HAL_RCC_OscConfig+0x10a>
        }
      }
      else
      {
        /* Get Start Tick */
        tickstart = HAL_GetTick();
 8006224:	f7fc fff8 	bl	8003218 <HAL_GetTick>
 8006228:	6138      	str	r0, [r7, #16]

        /* Wait till HSE is bypassed or disabled */
        while(__HAL_RCC_GET_FLAG(RCC_FLAG_HSERDY) != RESET)
 800622a:	e008      	b.n	800623e <HAL_RCC_OscConfig+0xfa>
        {
          if((HAL_GetTick() - tickstart ) > HSE_TIMEOUT_VALUE)
 800622c:	f7fc fff4 	bl	8003218 <HAL_GetTick>
 8006230:	4602      	mov	r2, r0
 8006232:	693b      	ldr	r3, [r7, #16]
 8006234:	1ad3      	subs	r3, r2, r3
 8006236:	2b64      	cmp	r3, #100	@ 0x64
 8006238:	d901      	bls.n	800623e <HAL_RCC_OscConfig+0xfa>
          {
            return HAL_TIMEOUT;
 800623a:	2303      	movs	r3, #3
 800623c:	e1f3      	b.n	8006626 <HAL_RCC_OscConfig+0x4e2>
        while(__HAL_RCC_GET_FLAG(RCC_FLAG_HSERDY) != RESET)
 800623e:	4b51      	ldr	r3, [pc, #324]	@ (8006384 <HAL_RCC_OscConfig+0x240>)
 8006240:	681b      	ldr	r3, [r3, #0]
 8006242:	f403 3300 	and.w	r3, r3, #131072	@ 0x20000
 8006246:	2b00      	cmp	r3, #0
 8006248:	d1f0      	bne.n	800622c <HAL_RCC_OscConfig+0xe8>
 800624a:	e000      	b.n	800624e <HAL_RCC_OscConfig+0x10a>
      if((__HAL_RCC_GET_FLAG(RCC_FLAG_HSERDY) != RESET) && (RCC_OscInitStruct->HSEState == RCC_HSE_OFF))
 800624c:	bf00      	nop
        }
      }
    }
  }
  /*----------------------------- HSI Configuration --------------------------*/
  if(((RCC_OscInitStruct->OscillatorType) & RCC_OSCILLATORTYPE_HSI) == RCC_OSCILLATORTYPE_HSI)
 800624e:	687b      	ldr	r3, [r7, #4]
 8006250:	681b      	ldr	r3, [r3, #0]
 8006252:	f003 0302 	and.w	r3, r3, #2
 8006256:	2b00      	cmp	r3, #0
 8006258:	d063      	beq.n	8006322 <HAL_RCC_OscConfig+0x1de>
    /* Check the parameters */
    assert_param(IS_RCC_HSI(RCC_OscInitStruct->HSIState));
    assert_param(IS_RCC_CALIBRATION_VALUE(RCC_OscInitStruct->HSICalibrationValue));

    /* Check if HSI is used as system clock or as PLL source when PLL is selected as system clock */
    if((__HAL_RCC_GET_SYSCLK_SOURCE() == RCC_CFGR_SWS_HSI) ||\
 800625a:	4b4a      	ldr	r3, [pc, #296]	@ (8006384 <HAL_RCC_OscConfig+0x240>)
 800625c:	689b      	ldr	r3, [r3, #8]
 800625e:	f003 030c 	and.w	r3, r3, #12
 8006262:	2b00      	cmp	r3, #0
 8006264:	d00b      	beq.n	800627e <HAL_RCC_OscConfig+0x13a>
      ((__HAL_RCC_GET_SYSCLK_SOURCE() == RCC_CFGR_SWS_PLL) && ((RCC->PLLCFGR & RCC_PLLCFGR_PLLSRC) == RCC_PLLCFGR_PLLSRC_HSI)))
 8006266:	4b47      	ldr	r3, [pc, #284]	@ (8006384 <HAL_RCC_OscConfig+0x240>)
 8006268:	689b      	ldr	r3, [r3, #8]
 800626a:	f003 030c 	and.w	r3, r3, #12
    if((__HAL_RCC_GET_SYSCLK_SOURCE() == RCC_CFGR_SWS_HSI) ||\
 800626e:	2b08      	cmp	r3, #8
 8006270:	d11c      	bne.n	80062ac <HAL_RCC_OscConfig+0x168>
      ((__HAL_RCC_GET_SYSCLK_SOURCE() == RCC_CFGR_SWS_PLL) && ((RCC->PLLCFGR & RCC_PLLCFGR_PLLSRC) == RCC_PLLCFGR_PLLSRC_HSI)))
 8006272:	4b44      	ldr	r3, [pc, #272]	@ (8006384 <HAL_RCC_OscConfig+0x240>)
 8006274:	685b      	ldr	r3, [r3, #4]
 8006276:	f403 0380 	and.w	r3, r3, #4194304	@ 0x400000
 800627a:	2b00      	cmp	r3, #0
 800627c:	d116      	bne.n	80062ac <HAL_RCC_OscConfig+0x168>
    {
      /* When HSI is used as system clock it will not disabled */
      if((__HAL_RCC_GET_FLAG(RCC_FLAG_HSIRDY) != RESET) && (RCC_OscInitStruct->HSIState != RCC_HSI_ON))
 800627e:	4b41      	ldr	r3, [pc, #260]	@ (8006384 <HAL_RCC_OscConfig+0x240>)
 8006280:	681b      	ldr	r3, [r3, #0]
 8006282:	f003 0302 	and.w	r3, r3, #2
 8006286:	2b00      	cmp	r3, #0
 8006288:	d005      	beq.n	8006296 <HAL_RCC_OscConfig+0x152>
 800628a:	687b      	ldr	r3, [r7, #4]
 800628c:	68db      	ldr	r3, [r3, #12]
 800628e:	2b01      	cmp	r3, #1
 8006290:	d001      	beq.n	8006296 <HAL_RCC_OscConfig+0x152>
      {
        return HAL_ERROR;
 8006292:	2301      	movs	r3, #1
 8006294:	e1c7      	b.n	8006626 <HAL_RCC_OscConfig+0x4e2>
      }
      /* Otherwise, just the calibration is allowed */
      else
      {
        /* Adjusts the Internal High Speed oscillator (HSI) calibration value.*/
        __HAL_RCC_HSI_CALIBRATIONVALUE_ADJUST(RCC_OscInitStruct->HSICalibrationValue);
 8006296:	4b3b      	ldr	r3, [pc, #236]	@ (8006384 <HAL_RCC_OscConfig+0x240>)
 8006298:	681b      	ldr	r3, [r3, #0]
 800629a:	f023 02f8 	bic.w	r2, r3, #248	@ 0xf8
 800629e:	687b      	ldr	r3, [r7, #4]
 80062a0:	691b      	ldr	r3, [r3, #16]
 80062a2:	00db      	lsls	r3, r3, #3
 80062a4:	4937      	ldr	r1, [pc, #220]	@ (8006384 <HAL_RCC_OscConfig+0x240>)
 80062a6:	4313      	orrs	r3, r2
 80062a8:	600b      	str	r3, [r1, #0]
      if((__HAL_RCC_GET_FLAG(RCC_FLAG_HSIRDY) != RESET) && (RCC_OscInitStruct->HSIState != RCC_HSI_ON))
 80062aa:	e03a      	b.n	8006322 <HAL_RCC_OscConfig+0x1de>
      }
    }
    else
    {
      /* Check the HSI State */
      if((RCC_OscInitStruct->HSIState)!= RCC_HSI_OFF)
 80062ac:	687b      	ldr	r3, [r7, #4]
 80062ae:	68db      	ldr	r3, [r3, #12]
 80062b0:	2b00      	cmp	r3, #0
 80062b2:	d020      	beq.n	80062f6 <HAL_RCC_OscConfig+0x1b2>
      {
        /* Enable the Internal High Speed oscillator (HSI). */
        __HAL_RCC_HSI_ENABLE();
 80062b4:	4b34      	ldr	r3, [pc, #208]	@ (8006388 <HAL_RCC_OscConfig+0x244>)
 80062b6:	2201      	movs	r2, #1
 80062b8:	601a      	str	r2, [r3, #0]

        /* Get Start Tick*/
        tickstart = HAL_GetTick();
 80062ba:	f7fc ffad 	bl	8003218 <HAL_GetTick>
 80062be:	6138      	str	r0, [r7, #16]

        /* Wait till HSI is ready */
        while(__HAL_RCC_GET_FLAG(RCC_FLAG_HSIRDY) == RESET)
 80062c0:	e008      	b.n	80062d4 <HAL_RCC_OscConfig+0x190>
        {
          if((HAL_GetTick() - tickstart ) > HSI_TIMEOUT_VALUE)
 80062c2:	f7fc ffa9 	bl	8003218 <HAL_GetTick>
 80062c6:	4602      	mov	r2, r0
 80062c8:	693b      	ldr	r3, [r7, #16]
 80062ca:	1ad3      	subs	r3, r2, r3
 80062cc:	2b02      	cmp	r3, #2
 80062ce:	d901      	bls.n	80062d4 <HAL_RCC_OscConfig+0x190>
          {
            return HAL_TIMEOUT;
 80062d0:	2303      	movs	r3, #3
 80062d2:	e1a8      	b.n	8006626 <HAL_RCC_OscConfig+0x4e2>
        while(__HAL_RCC_GET_FLAG(RCC_FLAG_HSIRDY) == RESET)
 80062d4:	4b2b      	ldr	r3, [pc, #172]	@ (8006384 <HAL_RCC_OscConfig+0x240>)
 80062d6:	681b      	ldr	r3, [r3, #0]
 80062d8:	f003 0302 	and.w	r3, r3, #2
 80062dc:	2b00      	cmp	r3, #0
 80062de:	d0f0      	beq.n	80062c2 <HAL_RCC_OscConfig+0x17e>
          }
        }

        /* Adjusts the Internal High Speed oscillator (HSI) calibration value. */
        __HAL_RCC_HSI_CALIBRATIONVALUE_ADJUST(RCC_OscInitStruct->HSICalibrationValue);
 80062e0:	4b28      	ldr	r3, [pc, #160]	@ (8006384 <HAL_RCC_OscConfig+0x240>)
 80062e2:	681b      	ldr	r3, [r3, #0]
 80062e4:	f023 02f8 	bic.w	r2, r3, #248	@ 0xf8
 80062e8:	687b      	ldr	r3, [r7, #4]
 80062ea:	691b      	ldr	r3, [r3, #16]
 80062ec:	00db      	lsls	r3, r3, #3
 80062ee:	4925      	ldr	r1, [pc, #148]	@ (8006384 <HAL_RCC_OscConfig+0x240>)
 80062f0:	4313      	orrs	r3, r2
 80062f2:	600b      	str	r3, [r1, #0]
 80062f4:	e015      	b.n	8006322 <HAL_RCC_OscConfig+0x1de>
      }
      else
      {
        /* Disable the Internal High Speed oscillator (HSI). */
        __HAL_RCC_HSI_DISABLE();
 80062f6:	4b24      	ldr	r3, [pc, #144]	@ (8006388 <HAL_RCC_OscConfig+0x244>)
 80062f8:	2200      	movs	r2, #0
 80062fa:	601a      	str	r2, [r3, #0]

        /* Get Start Tick*/
        tickstart = HAL_GetTick();
 80062fc:	f7fc ff8c 	bl	8003218 <HAL_GetTick>
 8006300:	6138      	str	r0, [r7, #16]

        /* Wait till HSI is ready */
        while(__HAL_RCC_GET_FLAG(RCC_FLAG_HSIRDY) != RESET)
 8006302:	e008      	b.n	8006316 <HAL_RCC_OscConfig+0x1d2>
        {
          if((HAL_GetTick() - tickstart ) > HSI_TIMEOUT_VALUE)
 8006304:	f7fc ff88 	bl	8003218 <HAL_GetTick>
 8006308:	4602      	mov	r2, r0
 800630a:	693b      	ldr	r3, [r7, #16]
 800630c:	1ad3      	subs	r3, r2, r3
 800630e:	2b02      	cmp	r3, #2
 8006310:	d901      	bls.n	8006316 <HAL_RCC_OscConfig+0x1d2>
          {
            return HAL_TIMEOUT;
 8006312:	2303      	movs	r3, #3
 8006314:	e187      	b.n	8006626 <HAL_RCC_OscConfig+0x4e2>
        while(__HAL_RCC_GET_FLAG(RCC_FLAG_HSIRDY) != RESET)
 8006316:	4b1b      	ldr	r3, [pc, #108]	@ (8006384 <HAL_RCC_OscConfig+0x240>)
 8006318:	681b      	ldr	r3, [r3, #0]
 800631a:	f003 0302 	and.w	r3, r3, #2
 800631e:	2b00      	cmp	r3, #0
 8006320:	d1f0      	bne.n	8006304 <HAL_RCC_OscConfig+0x1c0>
        }
      }
    }
  }
  /*------------------------------ LSI Configuration -------------------------*/
  if(((RCC_OscInitStruct->OscillatorType) & RCC_OSCILLATORTYPE_LSI) == RCC_OSCILLATORTYPE_LSI)
 8006322:	687b      	ldr	r3, [r7, #4]
 8006324:	681b      	ldr	r3, [r3, #0]
 8006326:	f003 0308 	and.w	r3, r3, #8
 800632a:	2b00      	cmp	r3, #0
 800632c:	d036      	beq.n	800639c <HAL_RCC_OscConfig+0x258>
  {
    /* Check the parameters */
    assert_param(IS_RCC_LSI(RCC_OscInitStruct->LSIState));

    /* Check the LSI State */
    if((RCC_OscInitStruct->LSIState)!= RCC_LSI_OFF)
 800632e:	687b      	ldr	r3, [r7, #4]
 8006330:	695b      	ldr	r3, [r3, #20]
 8006332:	2b00      	cmp	r3, #0
 8006334:	d016      	beq.n	8006364 <HAL_RCC_OscConfig+0x220>
    {
      /* Enable the Internal Low Speed oscillator (LSI). */
      __HAL_RCC_LSI_ENABLE();
 8006336:	4b15      	ldr	r3, [pc, #84]	@ (800638c <HAL_RCC_OscConfig+0x248>)
 8006338:	2201      	movs	r2, #1
 800633a:	601a      	str	r2, [r3, #0]

      /* Get Start Tick*/
      tickstart = HAL_GetTick();
 800633c:	f7fc ff6c 	bl	8003218 <HAL_GetTick>
 8006340:	6138      	str	r0, [r7, #16]

      /* Wait till LSI is ready */
      while(__HAL_RCC_GET_FLAG(RCC_FLAG_LSIRDY) == RESET)
 8006342:	e008      	b.n	8006356 <HAL_RCC_OscConfig+0x212>
      {
        if((HAL_GetTick() - tickstart ) > LSI_TIMEOUT_VALUE)
 8006344:	f7fc ff68 	bl	8003218 <HAL_GetTick>
 8006348:	4602      	mov	r2, r0
 800634a:	693b      	ldr	r3, [r7, #16]
 800634c:	1ad3      	subs	r3, r2, r3
 800634e:	2b02      	cmp	r3, #2
 8006350:	d901      	bls.n	8006356 <HAL_RCC_OscConfig+0x212>
        {
          return HAL_TIMEOUT;
 8006352:	2303      	movs	r3, #3
 8006354:	e167      	b.n	8006626 <HAL_RCC_OscConfig+0x4e2>
      while(__HAL_RCC_GET_FLAG(RCC_FLAG_LSIRDY) == RESET)
 8006356:	4b0b      	ldr	r3, [pc, #44]	@ (8006384 <HAL_RCC_OscConfig+0x240>)
 8006358:	6f5b      	ldr	r3, [r3, #116]	@ 0x74
 800635a:	f003 0302 	and.w	r3, r3, #2
 800635e:	2b00      	cmp	r3, #0
 8006360:	d0f0      	beq.n	8006344 <HAL_RCC_OscConfig+0x200>
 8006362:	e01b      	b.n	800639c <HAL_RCC_OscConfig+0x258>
      }
    }
    else
    {
      /* Disable the Internal Low Speed oscillator (LSI). */
      __HAL_RCC_LSI_DISABLE();
 8006364:	4b09      	ldr	r3, [pc, #36]	@ (800638c <HAL_RCC_OscConfig+0x248>)
 8006366:	2200      	movs	r2, #0
 8006368:	601a      	str	r2, [r3, #0]

      /* Get Start Tick */
      tickstart = HAL_GetTick();
 800636a:	f7fc ff55 	bl	8003218 <HAL_GetTick>
 800636e:	6138      	str	r0, [r7, #16]

      /* Wait till LSI is ready */
      while(__HAL_RCC_GET_FLAG(RCC_FLAG_LSIRDY) != RESET)
 8006370:	e00e      	b.n	8006390 <HAL_RCC_OscConfig+0x24c>
      {
        if((HAL_GetTick() - tickstart ) > LSI_TIMEOUT_VALUE)
 8006372:	f7fc ff51 	bl	8003218 <HAL_GetTick>
 8006376:	4602      	mov	r2, r0
 8006378:	693b      	ldr	r3, [r7, #16]
 800637a:	1ad3      	subs	r3, r2, r3
 800637c:	2b02      	cmp	r3, #2
 800637e:	d907      	bls.n	8006390 <HAL_RCC_OscConfig+0x24c>
        {
          return HAL_TIMEOUT;
 8006380:	2303      	movs	r3, #3
 8006382:	e150      	b.n	8006626 <HAL_RCC_OscConfig+0x4e2>
 8006384:	40023800 	.word	0x40023800
 8006388:	42470000 	.word	0x42470000
 800638c:	42470e80 	.word	0x42470e80
      while(__HAL_RCC_GET_FLAG(RCC_FLAG_LSIRDY) != RESET)
 8006390:	4b88      	ldr	r3, [pc, #544]	@ (80065b4 <HAL_RCC_OscConfig+0x470>)
 8006392:	6f5b      	ldr	r3, [r3, #116]	@ 0x74
 8006394:	f003 0302 	and.w	r3, r3, #2
 8006398:	2b00      	cmp	r3, #0
 800639a:	d1ea      	bne.n	8006372 <HAL_RCC_OscConfig+0x22e>
        }
      }
    }
  }
  /*------------------------------ LSE Configuration -------------------------*/
  if(((RCC_OscInitStruct->OscillatorType) & RCC_OSCILLATORTYPE_LSE) == RCC_OSCILLATORTYPE_LSE)
 800639c:	687b      	ldr	r3, [r7, #4]
 800639e:	681b      	ldr	r3, [r3, #0]
 80063a0:	f003 0304 	and.w	r3, r3, #4
 80063a4:	2b00      	cmp	r3, #0
 80063a6:	f000 8097 	beq.w	80064d8 <HAL_RCC_OscConfig+0x394>
  {
    FlagStatus       pwrclkchanged = RESET;
 80063aa:	2300      	movs	r3, #0
 80063ac:	75fb      	strb	r3, [r7, #23]
    /* Check the parameters */
    assert_param(IS_RCC_LSE(RCC_OscInitStruct->LSEState));

    /* Update LSE configuration in Backup Domain control register    */
    /* Requires to enable write access to Backup Domain of necessary */
    if(__HAL_RCC_PWR_IS_CLK_DISABLED())
 80063ae:	4b81      	ldr	r3, [pc, #516]	@ (80065b4 <HAL_RCC_OscConfig+0x470>)
 80063b0:	6c1b      	ldr	r3, [r3, #64]	@ 0x40
 80063b2:	f003 5380 	and.w	r3, r3, #268435456	@ 0x10000000
 80063b6:	2b00      	cmp	r3, #0
 80063b8:	d10f      	bne.n	80063da <HAL_RCC_OscConfig+0x296>
    {
      __HAL_RCC_PWR_CLK_ENABLE();
 80063ba:	2300      	movs	r3, #0
 80063bc:	60bb      	str	r3, [r7, #8]
 80063be:	4b7d      	ldr	r3, [pc, #500]	@ (80065b4 <HAL_RCC_OscConfig+0x470>)
 80063c0:	6c1b      	ldr	r3, [r3, #64]	@ 0x40
 80063c2:	4a7c      	ldr	r2, [pc, #496]	@ (80065b4 <HAL_RCC_OscConfig+0x470>)
 80063c4:	f043 5380 	orr.w	r3, r3, #268435456	@ 0x10000000
 80063c8:	6413      	str	r3, [r2, #64]	@ 0x40
 80063ca:	4b7a      	ldr	r3, [pc, #488]	@ (80065b4 <HAL_RCC_OscConfig+0x470>)
 80063cc:	6c1b      	ldr	r3, [r3, #64]	@ 0x40
 80063ce:	f003 5380 	and.w	r3, r3, #268435456	@ 0x10000000
 80063d2:	60bb      	str	r3, [r7, #8]
 80063d4:	68bb      	ldr	r3, [r7, #8]
      pwrclkchanged = SET;
 80063d6:	2301      	movs	r3, #1
 80063d8:	75fb      	strb	r3, [r7, #23]
    }

    if(HAL_IS_BIT_CLR(PWR->CR, PWR_CR_DBP))
 80063da:	4b77      	ldr	r3, [pc, #476]	@ (80065b8 <HAL_RCC_OscConfig+0x474>)
 80063dc:	681b      	ldr	r3, [r3, #0]
 80063de:	f403 7380 	and.w	r3, r3, #256	@ 0x100
 80063e2:	2b00      	cmp	r3, #0
 80063e4:	d118      	bne.n	8006418 <HAL_RCC_OscConfig+0x2d4>
    {
      /* Enable write access to Backup domain */
      SET_BIT(PWR->CR, PWR_CR_DBP);
 80063e6:	4b74      	ldr	r3, [pc, #464]	@ (80065b8 <HAL_RCC_OscConfig+0x474>)
 80063e8:	681b      	ldr	r3, [r3, #0]
 80063ea:	4a73      	ldr	r2, [pc, #460]	@ (80065b8 <HAL_RCC_OscConfig+0x474>)
 80063ec:	f443 7380 	orr.w	r3, r3, #256	@ 0x100
 80063f0:	6013      	str	r3, [r2, #0]

      /* Wait for Backup domain Write protection disable */
      tickstart = HAL_GetTick();
 80063f2:	f7fc ff11 	bl	8003218 <HAL_GetTick>
 80063f6:	6138      	str	r0, [r7, #16]

      while(HAL_IS_BIT_CLR(PWR->CR, PWR_CR_DBP))
 80063f8:	e008      	b.n	800640c <HAL_RCC_OscConfig+0x2c8>
      {
        if((HAL_GetTick() - tickstart) > RCC_DBP_TIMEOUT_VALUE)
 80063fa:	f7fc ff0d 	bl	8003218 <HAL_GetTick>
 80063fe:	4602      	mov	r2, r0
 8006400:	693b      	ldr	r3, [r7, #16]
 8006402:	1ad3      	subs	r3, r2, r3
 8006404:	2b02      	cmp	r3, #2
 8006406:	d901      	bls.n	800640c <HAL_RCC_OscConfig+0x2c8>
        {
          return HAL_TIMEOUT;
 8006408:	2303      	movs	r3, #3
 800640a:	e10c      	b.n	8006626 <HAL_RCC_OscConfig+0x4e2>
      while(HAL_IS_BIT_CLR(PWR->CR, PWR_CR_DBP))
 800640c:	4b6a      	ldr	r3, [pc, #424]	@ (80065b8 <HAL_RCC_OscConfig+0x474>)
 800640e:	681b      	ldr	r3, [r3, #0]
 8006410:	f403 7380 	and.w	r3, r3, #256	@ 0x100
 8006414:	2b00      	cmp	r3, #0
 8006416:	d0f0      	beq.n	80063fa <HAL_RCC_OscConfig+0x2b6>
        }
      }
    }

    /* Set the new LSE configuration -----------------------------------------*/
    __HAL_RCC_LSE_CONFIG(RCC_OscInitStruct->LSEState);
 8006418:	687b      	ldr	r3, [r7, #4]
 800641a:	689b      	ldr	r3, [r3, #8]
 800641c:	2b01      	cmp	r3, #1
 800641e:	d106      	bne.n	800642e <HAL_RCC_OscConfig+0x2ea>
 8006420:	4b64      	ldr	r3, [pc, #400]	@ (80065b4 <HAL_RCC_OscConfig+0x470>)
 8006422:	6f1b      	ldr	r3, [r3, #112]	@ 0x70
 8006424:	4a63      	ldr	r2, [pc, #396]	@ (80065b4 <HAL_RCC_OscConfig+0x470>)
 8006426:	f043 0301 	orr.w	r3, r3, #1
 800642a:	6713      	str	r3, [r2, #112]	@ 0x70
 800642c:	e01c      	b.n	8006468 <HAL_RCC_OscConfig+0x324>
 800642e:	687b      	ldr	r3, [r7, #4]
 8006430:	689b      	ldr	r3, [r3, #8]
 8006432:	2b05      	cmp	r3, #5
 8006434:	d10c      	bne.n	8006450 <HAL_RCC_OscConfig+0x30c>
 8006436:	4b5f      	ldr	r3, [pc, #380]	@ (80065b4 <HAL_RCC_OscConfig+0x470>)
 8006438:	6f1b      	ldr	r3, [r3, #112]	@ 0x70
 800643a:	4a5e      	ldr	r2, [pc, #376]	@ (80065b4 <HAL_RCC_OscConfig+0x470>)
 800643c:	f043 0304 	orr.w	r3, r3, #4
 8006440:	6713      	str	r3, [r2, #112]	@ 0x70
 8006442:	4b5c      	ldr	r3, [pc, #368]	@ (80065b4 <HAL_RCC_OscConfig+0x470>)
 8006444:	6f1b      	ldr	r3, [r3, #112]	@ 0x70
 8006446:	4a5b      	ldr	r2, [pc, #364]	@ (80065b4 <HAL_RCC_OscConfig+0x470>)
 8006448:	f043 0301 	orr.w	r3, r3, #1
 800644c:	6713      	str	r3, [r2, #112]	@ 0x70
 800644e:	e00b      	b.n	8006468 <HAL_RCC_OscConfig+0x324>
 8006450:	4b58      	ldr	r3, [pc, #352]	@ (80065b4 <HAL_RCC_OscConfig+0x470>)
 8006452:	6f1b      	ldr	r3, [r3, #112]	@ 0x70
 8006454:	4a57      	ldr	r2, [pc, #348]	@ (80065b4 <HAL_RCC_OscConfig+0x470>)
 8006456:	f023 0301 	bic.w	r3, r3, #1
 800645a:	6713      	str	r3, [r2, #112]	@ 0x70
 800645c:	4b55      	ldr	r3, [pc, #340]	@ (80065b4 <HAL_RCC_OscConfig+0x470>)
 800645e:	6f1b      	ldr	r3, [r3, #112]	@ 0x70
 8006460:	4a54      	ldr	r2, [pc, #336]	@ (80065b4 <HAL_RCC_OscConfig+0x470>)
 8006462:	f023 0304 	bic.w	r3, r3, #4
 8006466:	6713      	str	r3, [r2, #112]	@ 0x70
    /* Check the LSE State */
    if((RCC_OscInitStruct->LSEState) != RCC_LSE_OFF)
 8006468:	687b      	ldr	r3, [r7, #4]
 800646a:	689b      	ldr	r3, [r3, #8]
 800646c:	2b00      	cmp	r3, #0
 800646e:	d015      	beq.n	800649c <HAL_RCC_OscConfig+0x358>
    {
      /* Get Start Tick*/
      tickstart = HAL_GetTick();
 8006470:	f7fc fed2 	bl	8003218 <HAL_GetTick>
 8006474:	6138      	str	r0, [r7, #16]

      /* Wait till LSE is ready */
      while(__HAL_RCC_GET_FLAG(RCC_FLAG_LSERDY) == RESET)
 8006476:	e00a      	b.n	800648e <HAL_RCC_OscConfig+0x34a>
      {
        if((HAL_GetTick() - tickstart ) > RCC_LSE_TIMEOUT_VALUE)
 8006478:	f7fc fece 	bl	8003218 <HAL_GetTick>
 800647c:	4602      	mov	r2, r0
 800647e:	693b      	ldr	r3, [r7, #16]
 8006480:	1ad3      	subs	r3, r2, r3
 8006482:	f241 3288 	movw	r2, #5000	@ 0x1388
 8006486:	4293      	cmp	r3, r2
 8006488:	d901      	bls.n	800648e <HAL_RCC_OscConfig+0x34a>
        {
          return HAL_TIMEOUT;
 800648a:	2303      	movs	r3, #3
 800648c:	e0cb      	b.n	8006626 <HAL_RCC_OscConfig+0x4e2>
      while(__HAL_RCC_GET_FLAG(RCC_FLAG_LSERDY) == RESET)
 800648e:	4b49      	ldr	r3, [pc, #292]	@ (80065b4 <HAL_RCC_OscConfig+0x470>)
 8006490:	6f1b      	ldr	r3, [r3, #112]	@ 0x70
 8006492:	f003 0302 	and.w	r3, r3, #2
 8006496:	2b00      	cmp	r3, #0
 8006498:	d0ee      	beq.n	8006478 <HAL_RCC_OscConfig+0x334>
 800649a:	e014      	b.n	80064c6 <HAL_RCC_OscConfig+0x382>
      }
    }
    else
    {
      /* Get Start Tick */
      tickstart = HAL_GetTick();
 800649c:	f7fc febc 	bl	8003218 <HAL_GetTick>
 80064a0:	6138      	str	r0, [r7, #16]

      /* Wait till LSE is ready */
      while(__HAL_RCC_GET_FLAG(RCC_FLAG_LSERDY) != RESET)
 80064a2:	e00a      	b.n	80064ba <HAL_RCC_OscConfig+0x376>
      {
        if((HAL_GetTick() - tickstart ) > RCC_LSE_TIMEOUT_VALUE)
 80064a4:	f7fc feb8 	bl	8003218 <HAL_GetTick>
 80064a8:	4602      	mov	r2, r0
 80064aa:	693b      	ldr	r3, [r7, #16]
 80064ac:	1ad3      	subs	r3, r2, r3
 80064ae:	f241 3288 	movw	r2, #5000	@ 0x1388
 80064b2:	4293      	cmp	r3, r2
 80064b4:	d901      	bls.n	80064ba <HAL_RCC_OscConfig+0x376>
        {
          return HAL_TIMEOUT;
 80064b6:	2303      	movs	r3, #3
 80064b8:	e0b5      	b.n	8006626 <HAL_RCC_OscConfig+0x4e2>
      while(__HAL_RCC_GET_FLAG(RCC_FLAG_LSERDY) != RESET)
 80064ba:	4b3e      	ldr	r3, [pc, #248]	@ (80065b4 <HAL_RCC_OscConfig+0x470>)
 80064bc:	6f1b      	ldr	r3, [r3, #112]	@ 0x70
 80064be:	f003 0302 	and.w	r3, r3, #2
 80064c2:	2b00      	cmp	r3, #0
 80064c4:	d1ee      	bne.n	80064a4 <HAL_RCC_OscConfig+0x360>
        }
      }
    }

    /* Restore clock configuration if changed */
    if(pwrclkchanged == SET)
 80064c6:	7dfb      	ldrb	r3, [r7, #23]
 80064c8:	2b01      	cmp	r3, #1
 80064ca:	d105      	bne.n	80064d8 <HAL_RCC_OscConfig+0x394>
    {
      __HAL_RCC_PWR_CLK_DISABLE();
 80064cc:	4b39      	ldr	r3, [pc, #228]	@ (80065b4 <HAL_RCC_OscConfig+0x470>)
 80064ce:	6c1b      	ldr	r3, [r3, #64]	@ 0x40
 80064d0:	4a38      	ldr	r2, [pc, #224]	@ (80065b4 <HAL_RCC_OscConfig+0x470>)
 80064d2:	f023 5380 	bic.w	r3, r3, #268435456	@ 0x10000000
 80064d6:	6413      	str	r3, [r2, #64]	@ 0x40
    }
  }
  /*-------------------------------- PLL Configuration -----------------------*/
  /* Check the parameters */
  assert_param(IS_RCC_PLL(RCC_OscInitStruct->PLL.PLLState));
  if ((RCC_OscInitStruct->PLL.PLLState) != RCC_PLL_NONE)
 80064d8:	687b      	ldr	r3, [r7, #4]
 80064da:	699b      	ldr	r3, [r3, #24]
 80064dc:	2b00      	cmp	r3, #0
 80064de:	f000 80a1 	beq.w	8006624 <HAL_RCC_OscConfig+0x4e0>
  {
    /* Check if the PLL is used as system clock or not */
    if(__HAL_RCC_GET_SYSCLK_SOURCE() != RCC_CFGR_SWS_PLL)
 80064e2:	4b34      	ldr	r3, [pc, #208]	@ (80065b4 <HAL_RCC_OscConfig+0x470>)
 80064e4:	689b      	ldr	r3, [r3, #8]
 80064e6:	f003 030c 	and.w	r3, r3, #12
 80064ea:	2b08      	cmp	r3, #8
 80064ec:	d05c      	beq.n	80065a8 <HAL_RCC_OscConfig+0x464>
    {
      if((RCC_OscInitStruct->PLL.PLLState) == RCC_PLL_ON)
 80064ee:	687b      	ldr	r3, [r7, #4]
 80064f0:	699b      	ldr	r3, [r3, #24]
 80064f2:	2b02      	cmp	r3, #2
 80064f4:	d141      	bne.n	800657a <HAL_RCC_OscConfig+0x436>
        assert_param(IS_RCC_PLLN_VALUE(RCC_OscInitStruct->PLL.PLLN));
        assert_param(IS_RCC_PLLP_VALUE(RCC_OscInitStruct->PLL.PLLP));
        assert_param(IS_RCC_PLLQ_VALUE(RCC_OscInitStruct->PLL.PLLQ));

        /* Disable the main PLL. */
        __HAL_RCC_PLL_DISABLE();
 80064f6:	4b31      	ldr	r3, [pc, #196]	@ (80065bc <HAL_RCC_OscConfig+0x478>)
 80064f8:	2200      	movs	r2, #0
 80064fa:	601a      	str	r2, [r3, #0]

        /* Get Start Tick */
        tickstart = HAL_GetTick();
 80064fc:	f7fc fe8c 	bl	8003218 <HAL_GetTick>
 8006500:	6138      	str	r0, [r7, #16]

        /* Wait till PLL is disabled */
        while(__HAL_RCC_GET_FLAG(RCC_FLAG_PLLRDY) != RESET)
 8006502:	e008      	b.n	8006516 <HAL_RCC_OscConfig+0x3d2>
        {
          if((HAL_GetTick() - tickstart ) > PLL_TIMEOUT_VALUE)
 8006504:	f7fc fe88 	bl	8003218 <HAL_GetTick>
 8006508:	4602      	mov	r2, r0
 800650a:	693b      	ldr	r3, [r7, #16]
 800650c:	1ad3      	subs	r3, r2, r3
 800650e:	2b02      	cmp	r3, #2
 8006510:	d901      	bls.n	8006516 <HAL_RCC_OscConfig+0x3d2>
          {
            return HAL_TIMEOUT;
 8006512:	2303      	movs	r3, #3
 8006514:	e087      	b.n	8006626 <HAL_RCC_OscConfig+0x4e2>
        while(__HAL_RCC_GET_FLAG(RCC_FLAG_PLLRDY) != RESET)
 8006516:	4b27      	ldr	r3, [pc, #156]	@ (80065b4 <HAL_RCC_OscConfig+0x470>)
 8006518:	681b      	ldr	r3, [r3, #0]
 800651a:	f003 7300 	and.w	r3, r3, #33554432	@ 0x2000000
 800651e:	2b00      	cmp	r3, #0
 8006520:	d1f0      	bne.n	8006504 <HAL_RCC_OscConfig+0x3c0>
          }
        }

        /* Configure the main PLL clock source, multiplication and division factors. */
        WRITE_REG(RCC->PLLCFGR, (RCC_OscInitStruct->PLL.PLLSource                                            | \
 8006522:	687b      	ldr	r3, [r7, #4]
 8006524:	69da      	ldr	r2, [r3, #28]
 8006526:	687b      	ldr	r3, [r7, #4]
 8006528:	6a1b      	ldr	r3, [r3, #32]
 800652a:	431a      	orrs	r2, r3
 800652c:	687b      	ldr	r3, [r7, #4]
 800652e:	6a5b      	ldr	r3, [r3, #36]	@ 0x24
 8006530:	019b      	lsls	r3, r3, #6
 8006532:	431a      	orrs	r2, r3
 8006534:	687b      	ldr	r3, [r7, #4]
 8006536:	6a9b      	ldr	r3, [r3, #40]	@ 0x28
 8006538:	085b      	lsrs	r3, r3, #1
 800653a:	3b01      	subs	r3, #1
 800653c:	041b      	lsls	r3, r3, #16
 800653e:	431a      	orrs	r2, r3
 8006540:	687b      	ldr	r3, [r7, #4]
 8006542:	6adb      	ldr	r3, [r3, #44]	@ 0x2c
 8006544:	061b      	lsls	r3, r3, #24
 8006546:	491b      	ldr	r1, [pc, #108]	@ (80065b4 <HAL_RCC_OscConfig+0x470>)
 8006548:	4313      	orrs	r3, r2
 800654a:	604b      	str	r3, [r1, #4]
                                 RCC_OscInitStruct->PLL.PLLM                                                 | \
                                 (RCC_OscInitStruct->PLL.PLLN << RCC_PLLCFGR_PLLN_Pos)             | \
                                 (((RCC_OscInitStruct->PLL.PLLP >> 1U) - 1U) << RCC_PLLCFGR_PLLP_Pos) | \
                                 (RCC_OscInitStruct->PLL.PLLQ << RCC_PLLCFGR_PLLQ_Pos)));
        /* Enable the main PLL. */
        __HAL_RCC_PLL_ENABLE();
 800654c:	4b1b      	ldr	r3, [pc, #108]	@ (80065bc <HAL_RCC_OscConfig+0x478>)
 800654e:	2201      	movs	r2, #1
 8006550:	601a      	str	r2, [r3, #0]

        /* Get Start Tick */
        tickstart = HAL_GetTick();
 8006552:	f7fc fe61 	bl	8003218 <HAL_GetTick>
 8006556:	6138      	str	r0, [r7, #16]

        /* Wait till PLL is ready */
        while(__HAL_RCC_GET_FLAG(RCC_FLAG_PLLRDY) == RESET)
 8006558:	e008      	b.n	800656c <HAL_RCC_OscConfig+0x428>
        {
          if((HAL_GetTick() - tickstart ) > PLL_TIMEOUT_VALUE)
 800655a:	f7fc fe5d 	bl	8003218 <HAL_GetTick>
 800655e:	4602      	mov	r2, r0
 8006560:	693b      	ldr	r3, [r7, #16]
 8006562:	1ad3      	subs	r3, r2, r3
 8006564:	2b02      	cmp	r3, #2
 8006566:	d901      	bls.n	800656c <HAL_RCC_OscConfig+0x428>
          {
            return HAL_TIMEOUT;
 8006568:	2303      	movs	r3, #3
 800656a:	e05c      	b.n	8006626 <HAL_RCC_OscConfig+0x4e2>
        while(__HAL_RCC_GET_FLAG(RCC_FLAG_PLLRDY) == RESET)
 800656c:	4b11      	ldr	r3, [pc, #68]	@ (80065b4 <HAL_RCC_OscConfig+0x470>)
 800656e:	681b      	ldr	r3, [r3, #0]
 8006570:	f003 7300 	and.w	r3, r3, #33554432	@ 0x2000000
 8006574:	2b00      	cmp	r3, #0
 8006576:	d0f0      	beq.n	800655a <HAL_RCC_OscConfig+0x416>
 8006578:	e054      	b.n	8006624 <HAL_RCC_OscConfig+0x4e0>
        }
      }
      else
      {
        /* Disable the main PLL. */
        __HAL_RCC_PLL_DISABLE();
 800657a:	4b10      	ldr	r3, [pc, #64]	@ (80065bc <HAL_RCC_OscConfig+0x478>)
 800657c:	2200      	movs	r2, #0
 800657e:	601a      	str	r2, [r3, #0]

        /* Get Start Tick */
        tickstart = HAL_GetTick();
 8006580:	f7fc fe4a 	bl	8003218 <HAL_GetTick>
 8006584:	6138      	str	r0, [r7, #16]

        /* Wait till PLL is disabled */
        while(__HAL_RCC_GET_FLAG(RCC_FLAG_PLLRDY) != RESET)
 8006586:	e008      	b.n	800659a <HAL_RCC_OscConfig+0x456>
        {
          if((HAL_GetTick() - tickstart ) > PLL_TIMEOUT_VALUE)
 8006588:	f7fc fe46 	bl	8003218 <HAL_GetTick>
 800658c:	4602      	mov	r2, r0
 800658e:	693b      	ldr	r3, [r7, #16]
 8006590:	1ad3      	subs	r3, r2, r3
 8006592:	2b02      	cmp	r3, #2
 8006594:	d901      	bls.n	800659a <HAL_RCC_OscConfig+0x456>
          {
            return HAL_TIMEOUT;
 8006596:	2303      	movs	r3, #3
 8006598:	e045      	b.n	8006626 <HAL_RCC_OscConfig+0x4e2>
        while(__HAL_RCC_GET_FLAG(RCC_FLAG_PLLRDY) != RESET)
 800659a:	4b06      	ldr	r3, [pc, #24]	@ (80065b4 <HAL_RCC_OscConfig+0x470>)
 800659c:	681b      	ldr	r3, [r3, #0]
 800659e:	f003 7300 	and.w	r3, r3, #33554432	@ 0x2000000
 80065a2:	2b00      	cmp	r3, #0
 80065a4:	d1f0      	bne.n	8006588 <HAL_RCC_OscConfig+0x444>
 80065a6:	e03d      	b.n	8006624 <HAL_RCC_OscConfig+0x4e0>
      }
    }
    else
    {
      /* Check if there is a request to disable the PLL used as System clock source */
      if((RCC_OscInitStruct->PLL.PLLState) == RCC_PLL_OFF)
 80065a8:	687b      	ldr	r3, [r7, #4]
 80065aa:	699b      	ldr	r3, [r3, #24]
 80065ac:	2b01      	cmp	r3, #1
 80065ae:	d107      	bne.n	80065c0 <HAL_RCC_OscConfig+0x47c>
      {
        return HAL_ERROR;
 80065b0:	2301      	movs	r3, #1
 80065b2:	e038      	b.n	8006626 <HAL_RCC_OscConfig+0x4e2>
 80065b4:	40023800 	.word	0x40023800
 80065b8:	40007000 	.word	0x40007000
 80065bc:	42470060 	.word	0x42470060
      }
      else
      {
        /* Do not return HAL_ERROR if request repeats the current configuration */
        pll_config = RCC->PLLCFGR;
 80065c0:	4b1b      	ldr	r3, [pc, #108]	@ (8006630 <HAL_RCC_OscConfig+0x4ec>)
 80065c2:	685b      	ldr	r3, [r3, #4]
 80065c4:	60fb      	str	r3, [r7, #12]
            (READ_BIT(pll_config, RCC_PLLCFGR_PLLN) != (RCC_OscInitStruct->PLL.PLLN) << RCC_PLLCFGR_PLLN_Pos) ||
            (READ_BIT(pll_config, RCC_PLLCFGR_PLLP) != (((RCC_OscInitStruct->PLL.PLLP >> 1U) - 1U)) << RCC_PLLCFGR_PLLP_Pos) ||
            (READ_BIT(pll_config, RCC_PLLCFGR_PLLQ) != (RCC_OscInitStruct->PLL.PLLQ << RCC_PLLCFGR_PLLQ_Pos)) ||
            (READ_BIT(pll_config, RCC_PLLCFGR_PLLR) != (RCC_OscInitStruct->PLL.PLLR << RCC_PLLCFGR_PLLR_Pos)))
#else
        if (((RCC_OscInitStruct->PLL.PLLState) == RCC_PLL_OFF) ||
 80065c6:	687b      	ldr	r3, [r7, #4]
 80065c8:	699b      	ldr	r3, [r3, #24]
 80065ca:	2b01      	cmp	r3, #1
 80065cc:	d028      	beq.n	8006620 <HAL_RCC_OscConfig+0x4dc>
            (READ_BIT(pll_config, RCC_PLLCFGR_PLLSRC) != RCC_OscInitStruct->PLL.PLLSource) ||
 80065ce:	68fb      	ldr	r3, [r7, #12]
 80065d0:	f403 0280 	and.w	r2, r3, #4194304	@ 0x400000
 80065d4:	687b      	ldr	r3, [r7, #4]
 80065d6:	69db      	ldr	r3, [r3, #28]
        if (((RCC_OscInitStruct->PLL.PLLState) == RCC_PLL_OFF) ||
 80065d8:	429a      	cmp	r2, r3
 80065da:	d121      	bne.n	8006620 <HAL_RCC_OscConfig+0x4dc>
            (READ_BIT(pll_config, RCC_PLLCFGR_PLLM) != (RCC_OscInitStruct->PLL.PLLM) << RCC_PLLCFGR_PLLM_Pos) ||
 80065dc:	68fb      	ldr	r3, [r7, #12]
 80065de:	f003 023f 	and.w	r2, r3, #63	@ 0x3f
 80065e2:	687b      	ldr	r3, [r7, #4]
 80065e4:	6a1b      	ldr	r3, [r3, #32]
            (READ_BIT(pll_config, RCC_PLLCFGR_PLLSRC) != RCC_OscInitStruct->PLL.PLLSource) ||
 80065e6:	429a      	cmp	r2, r3
 80065e8:	d11a      	bne.n	8006620 <HAL_RCC_OscConfig+0x4dc>
            (READ_BIT(pll_config, RCC_PLLCFGR_PLLN) != (RCC_OscInitStruct->PLL.PLLN) << RCC_PLLCFGR_PLLN_Pos) ||
 80065ea:	68fa      	ldr	r2, [r7, #12]
 80065ec:	f647 73c0 	movw	r3, #32704	@ 0x7fc0
 80065f0:	4013      	ands	r3, r2
 80065f2:	687a      	ldr	r2, [r7, #4]
 80065f4:	6a52      	ldr	r2, [r2, #36]	@ 0x24
 80065f6:	0192      	lsls	r2, r2, #6
            (READ_BIT(pll_config, RCC_PLLCFGR_PLLM) != (RCC_OscInitStruct->PLL.PLLM) << RCC_PLLCFGR_PLLM_Pos) ||
 80065f8:	4293      	cmp	r3, r2
 80065fa:	d111      	bne.n	8006620 <HAL_RCC_OscConfig+0x4dc>
            (READ_BIT(pll_config, RCC_PLLCFGR_PLLP) != (((RCC_OscInitStruct->PLL.PLLP >> 1U) - 1U)) << RCC_PLLCFGR_PLLP_Pos) ||
 80065fc:	68fb      	ldr	r3, [r7, #12]
 80065fe:	f403 3240 	and.w	r2, r3, #196608	@ 0x30000
 8006602:	687b      	ldr	r3, [r7, #4]
 8006604:	6a9b      	ldr	r3, [r3, #40]	@ 0x28
 8006606:	085b      	lsrs	r3, r3, #1
 8006608:	3b01      	subs	r3, #1
 800660a:	041b      	lsls	r3, r3, #16
            (READ_BIT(pll_config, RCC_PLLCFGR_PLLN) != (RCC_OscInitStruct->PLL.PLLN) << RCC_PLLCFGR_PLLN_Pos) ||
 800660c:	429a      	cmp	r2, r3
 800660e:	d107      	bne.n	8006620 <HAL_RCC_OscConfig+0x4dc>
            (READ_BIT(pll_config, RCC_PLLCFGR_PLLQ) != (RCC_OscInitStruct->PLL.PLLQ << RCC_PLLCFGR_PLLQ_Pos)))
 8006610:	68fb      	ldr	r3, [r7, #12]
 8006612:	f003 6270 	and.w	r2, r3, #251658240	@ 0xf000000
 8006616:	687b      	ldr	r3, [r7, #4]
 8006618:	6adb      	ldr	r3, [r3, #44]	@ 0x2c
 800661a:	061b      	lsls	r3, r3, #24
            (READ_BIT(pll_config, RCC_PLLCFGR_PLLP) != (((RCC_OscInitStruct->PLL.PLLP >> 1U) - 1U)) << RCC_PLLCFGR_PLLP_Pos) ||
 800661c:	429a      	cmp	r2, r3
 800661e:	d001      	beq.n	8006624 <HAL_RCC_OscConfig+0x4e0>
#endif
        {
          return HAL_ERROR;
 8006620:	2301      	movs	r3, #1
 8006622:	e000      	b.n	8006626 <HAL_RCC_OscConfig+0x4e2>
        }
      }
    }
  }
  return HAL_OK;
 8006624:	2300      	movs	r3, #0
}
 8006626:	4618      	mov	r0, r3
 8006628:	3718      	adds	r7, #24
 800662a:	46bd      	mov	sp, r7
 800662c:	bd80      	pop	{r7, pc}
 800662e:	bf00      	nop
 8006630:	40023800 	.word	0x40023800

08006634 <HAL_RCC_ClockConfig>:
  *         HPRE[3:0] bits to ensure that HCLK not exceed the maximum allowed frequency
  *         (for more details refer to section above "Initialization/de-initialization functions")
  * @retval None
  */
HAL_StatusTypeDef HAL_RCC_ClockConfig(RCC_ClkInitTypeDef  *RCC_ClkInitStruct, uint32_t FLatency)
{
 8006634:	b580      	push	{r7, lr}
 8006636:	b084      	sub	sp, #16
 8006638:	af00      	add	r7, sp, #0
 800663a:	6078      	str	r0, [r7, #4]
 800663c:	6039      	str	r1, [r7, #0]
  uint32_t tickstart;

  /* Check Null pointer */
  if(RCC_ClkInitStruct == NULL)
 800663e:	687b      	ldr	r3, [r7, #4]
 8006640:	2b00      	cmp	r3, #0
 8006642:	d101      	bne.n	8006648 <HAL_RCC_ClockConfig+0x14>
  {
    return HAL_ERROR;
 8006644:	2301      	movs	r3, #1
 8006646:	e0cc      	b.n	80067e2 <HAL_RCC_ClockConfig+0x1ae>
  /* To correctly read data from FLASH memory, the number of wait states (LATENCY)
    must be correctly programmed according to the frequency of the CPU clock
    (HCLK) and the supply voltage of the device. */

  /* Increasing the number of wait states because of higher CPU frequency */
  if(FLatency > __HAL_FLASH_GET_LATENCY())
 8006648:	4b68      	ldr	r3, [pc, #416]	@ (80067ec <HAL_RCC_ClockConfig+0x1b8>)
 800664a:	681b      	ldr	r3, [r3, #0]
 800664c:	f003 030f 	and.w	r3, r3, #15
 8006650:	683a      	ldr	r2, [r7, #0]
 8006652:	429a      	cmp	r2, r3
 8006654:	d90c      	bls.n	8006670 <HAL_RCC_ClockConfig+0x3c>
  {
    /* Program the new number of wait states to the LATENCY bits in the FLASH_ACR register */
    __HAL_FLASH_SET_LATENCY(FLatency);
 8006656:	4b65      	ldr	r3, [pc, #404]	@ (80067ec <HAL_RCC_ClockConfig+0x1b8>)
 8006658:	683a      	ldr	r2, [r7, #0]
 800665a:	b2d2      	uxtb	r2, r2
 800665c:	701a      	strb	r2, [r3, #0]

    /* Check that the new number of wait states is taken into account to access the Flash
    memory by reading the FLASH_ACR register */
    if(__HAL_FLASH_GET_LATENCY() != FLatency)
 800665e:	4b63      	ldr	r3, [pc, #396]	@ (80067ec <HAL_RCC_ClockConfig+0x1b8>)
 8006660:	681b      	ldr	r3, [r3, #0]
 8006662:	f003 030f 	and.w	r3, r3, #15
 8006666:	683a      	ldr	r2, [r7, #0]
 8006668:	429a      	cmp	r2, r3
 800666a:	d001      	beq.n	8006670 <HAL_RCC_ClockConfig+0x3c>
    {
      return HAL_ERROR;
 800666c:	2301      	movs	r3, #1
 800666e:	e0b8      	b.n	80067e2 <HAL_RCC_ClockConfig+0x1ae>
    }
  }

  /*-------------------------- HCLK Configuration --------------------------*/
  if(((RCC_ClkInitStruct->ClockType) & RCC_CLOCKTYPE_HCLK) == RCC_CLOCKTYPE_HCLK)
 8006670:	687b      	ldr	r3, [r7, #4]
 8006672:	681b      	ldr	r3, [r3, #0]
 8006674:	f003 0302 	and.w	r3, r3, #2
 8006678:	2b00      	cmp	r3, #0
 800667a:	d020      	beq.n	80066be <HAL_RCC_ClockConfig+0x8a>
  {
    /* Set the highest APBx dividers in order to ensure that we do not go through
       a non-spec phase whatever we decrease or increase HCLK. */
    if(((RCC_ClkInitStruct->ClockType) & RCC_CLOCKTYPE_PCLK1) == RCC_CLOCKTYPE_PCLK1)
 800667c:	687b      	ldr	r3, [r7, #4]
 800667e:	681b      	ldr	r3, [r3, #0]
 8006680:	f003 0304 	and.w	r3, r3, #4
 8006684:	2b00      	cmp	r3, #0
 8006686:	d005      	beq.n	8006694 <HAL_RCC_ClockConfig+0x60>
    {
      MODIFY_REG(RCC->CFGR, RCC_CFGR_PPRE1, RCC_HCLK_DIV16);
 8006688:	4b59      	ldr	r3, [pc, #356]	@ (80067f0 <HAL_RCC_ClockConfig+0x1bc>)
 800668a:	689b      	ldr	r3, [r3, #8]
 800668c:	4a58      	ldr	r2, [pc, #352]	@ (80067f0 <HAL_RCC_ClockConfig+0x1bc>)
 800668e:	f443 53e0 	orr.w	r3, r3, #7168	@ 0x1c00
 8006692:	6093      	str	r3, [r2, #8]
    }

    if(((RCC_ClkInitStruct->ClockType) & RCC_CLOCKTYPE_PCLK2) == RCC_CLOCKTYPE_PCLK2)
 8006694:	687b      	ldr	r3, [r7, #4]
 8006696:	681b      	ldr	r3, [r3, #0]
 8006698:	f003 0308 	and.w	r3, r3, #8
 800669c:	2b00      	cmp	r3, #0
 800669e:	d005      	beq.n	80066ac <HAL_RCC_ClockConfig+0x78>
    {
      MODIFY_REG(RCC->CFGR, RCC_CFGR_PPRE2, (RCC_HCLK_DIV16 << 3));
 80066a0:	4b53      	ldr	r3, [pc, #332]	@ (80067f0 <HAL_RCC_ClockConfig+0x1bc>)
 80066a2:	689b      	ldr	r3, [r3, #8]
 80066a4:	4a52      	ldr	r2, [pc, #328]	@ (80067f0 <HAL_RCC_ClockConfig+0x1bc>)
 80066a6:	f443 4360 	orr.w	r3, r3, #57344	@ 0xe000
 80066aa:	6093      	str	r3, [r2, #8]
    }

    assert_param(IS_RCC_HCLK(RCC_ClkInitStruct->AHBCLKDivider));
    MODIFY_REG(RCC->CFGR, RCC_CFGR_HPRE, RCC_ClkInitStruct->AHBCLKDivider);
 80066ac:	4b50      	ldr	r3, [pc, #320]	@ (80067f0 <HAL_RCC_ClockConfig+0x1bc>)
 80066ae:	689b      	ldr	r3, [r3, #8]
 80066b0:	f023 02f0 	bic.w	r2, r3, #240	@ 0xf0
 80066b4:	687b      	ldr	r3, [r7, #4]
 80066b6:	689b      	ldr	r3, [r3, #8]
 80066b8:	494d      	ldr	r1, [pc, #308]	@ (80067f0 <HAL_RCC_ClockConfig+0x1bc>)
 80066ba:	4313      	orrs	r3, r2
 80066bc:	608b      	str	r3, [r1, #8]
  }

  /*------------------------- SYSCLK Configuration ---------------------------*/
  if(((RCC_ClkInitStruct->ClockType) & RCC_CLOCKTYPE_SYSCLK) == RCC_CLOCKTYPE_SYSCLK)
 80066be:	687b      	ldr	r3, [r7, #4]
 80066c0:	681b      	ldr	r3, [r3, #0]
 80066c2:	f003 0301 	and.w	r3, r3, #1
 80066c6:	2b00      	cmp	r3, #0
 80066c8:	d044      	beq.n	8006754 <HAL_RCC_ClockConfig+0x120>
  {
    assert_param(IS_RCC_SYSCLKSOURCE(RCC_ClkInitStruct->SYSCLKSource));

    /* HSE is selected as System Clock Source */
    if(RCC_ClkInitStruct->SYSCLKSource == RCC_SYSCLKSOURCE_HSE)
 80066ca:	687b      	ldr	r3, [r7, #4]
 80066cc:	685b      	ldr	r3, [r3, #4]
 80066ce:	2b01      	cmp	r3, #1
 80066d0:	d107      	bne.n	80066e2 <HAL_RCC_ClockConfig+0xae>
    {
      /* Check the HSE ready flag */
      if(__HAL_RCC_GET_FLAG(RCC_FLAG_HSERDY) == RESET)
 80066d2:	4b47      	ldr	r3, [pc, #284]	@ (80067f0 <HAL_RCC_ClockConfig+0x1bc>)
 80066d4:	681b      	ldr	r3, [r3, #0]
 80066d6:	f403 3300 	and.w	r3, r3, #131072	@ 0x20000
 80066da:	2b00      	cmp	r3, #0
 80066dc:	d119      	bne.n	8006712 <HAL_RCC_ClockConfig+0xde>
      {
        return HAL_ERROR;
 80066de:	2301      	movs	r3, #1
 80066e0:	e07f      	b.n	80067e2 <HAL_RCC_ClockConfig+0x1ae>
      }
    }
    /* PLL is selected as System Clock Source */
    else if((RCC_ClkInitStruct->SYSCLKSource == RCC_SYSCLKSOURCE_PLLCLK)   ||
 80066e2:	687b      	ldr	r3, [r7, #4]
 80066e4:	685b      	ldr	r3, [r3, #4]
 80066e6:	2b02      	cmp	r3, #2
 80066e8:	d003      	beq.n	80066f2 <HAL_RCC_ClockConfig+0xbe>
            (RCC_ClkInitStruct->SYSCLKSource == RCC_SYSCLKSOURCE_PLLRCLK))
 80066ea:	687b      	ldr	r3, [r7, #4]
 80066ec:	685b      	ldr	r3, [r3, #4]
    else if((RCC_ClkInitStruct->SYSCLKSource == RCC_SYSCLKSOURCE_PLLCLK)   ||
 80066ee:	2b03      	cmp	r3, #3
 80066f0:	d107      	bne.n	8006702 <HAL_RCC_ClockConfig+0xce>
    {
      /* Check the PLL ready flag */
      if(__HAL_RCC_GET_FLAG(RCC_FLAG_PLLRDY) == RESET)
 80066f2:	4b3f      	ldr	r3, [pc, #252]	@ (80067f0 <HAL_RCC_ClockConfig+0x1bc>)
 80066f4:	681b      	ldr	r3, [r3, #0]
 80066f6:	f003 7300 	and.w	r3, r3, #33554432	@ 0x2000000
 80066fa:	2b00      	cmp	r3, #0
 80066fc:	d109      	bne.n	8006712 <HAL_RCC_ClockConfig+0xde>
      {
        return HAL_ERROR;
 80066fe:	2301      	movs	r3, #1
 8006700:	e06f      	b.n	80067e2 <HAL_RCC_ClockConfig+0x1ae>
    }
    /* HSI is selected as System Clock Source */
    else
    {
      /* Check the HSI ready flag */
      if(__HAL_RCC_GET_FLAG(RCC_FLAG_HSIRDY) == RESET)
 8006702:	4b3b      	ldr	r3, [pc, #236]	@ (80067f0 <HAL_RCC_ClockConfig+0x1bc>)
 8006704:	681b      	ldr	r3, [r3, #0]
 8006706:	f003 0302 	and.w	r3, r3, #2
 800670a:	2b00      	cmp	r3, #0
 800670c:	d101      	bne.n	8006712 <HAL_RCC_ClockConfig+0xde>
      {
        return HAL_ERROR;
 800670e:	2301      	movs	r3, #1
 8006710:	e067      	b.n	80067e2 <HAL_RCC_ClockConfig+0x1ae>
      }
    }

    __HAL_RCC_SYSCLK_CONFIG(RCC_ClkInitStruct->SYSCLKSource);
 8006712:	4b37      	ldr	r3, [pc, #220]	@ (80067f0 <HAL_RCC_ClockConfig+0x1bc>)
 8006714:	689b      	ldr	r3, [r3, #8]
 8006716:	f023 0203 	bic.w	r2, r3, #3
 800671a:	687b      	ldr	r3, [r7, #4]
 800671c:	685b      	ldr	r3, [r3, #4]
 800671e:	4934      	ldr	r1, [pc, #208]	@ (80067f0 <HAL_RCC_ClockConfig+0x1bc>)
 8006720:	4313      	orrs	r3, r2
 8006722:	608b      	str	r3, [r1, #8]

    /* Get Start Tick */
    tickstart = HAL_GetTick();
 8006724:	f7fc fd78 	bl	8003218 <HAL_GetTick>
 8006728:	60f8      	str	r0, [r7, #12]

    while (__HAL_RCC_GET_SYSCLK_SOURCE() != (RCC_ClkInitStruct->SYSCLKSource << RCC_CFGR_SWS_Pos))
 800672a:	e00a      	b.n	8006742 <HAL_RCC_ClockConfig+0x10e>
    {
      if ((HAL_GetTick() - tickstart) > CLOCKSWITCH_TIMEOUT_VALUE)
 800672c:	f7fc fd74 	bl	8003218 <HAL_GetTick>
 8006730:	4602      	mov	r2, r0
 8006732:	68fb      	ldr	r3, [r7, #12]
 8006734:	1ad3      	subs	r3, r2, r3
 8006736:	f241 3288 	movw	r2, #5000	@ 0x1388
 800673a:	4293      	cmp	r3, r2
 800673c:	d901      	bls.n	8006742 <HAL_RCC_ClockConfig+0x10e>
      {
        return HAL_TIMEOUT;
 800673e:	2303      	movs	r3, #3
 8006740:	e04f      	b.n	80067e2 <HAL_RCC_ClockConfig+0x1ae>
    while (__HAL_RCC_GET_SYSCLK_SOURCE() != (RCC_ClkInitStruct->SYSCLKSource << RCC_CFGR_SWS_Pos))
 8006742:	4b2b      	ldr	r3, [pc, #172]	@ (80067f0 <HAL_RCC_ClockConfig+0x1bc>)
 8006744:	689b      	ldr	r3, [r3, #8]
 8006746:	f003 020c 	and.w	r2, r3, #12
 800674a:	687b      	ldr	r3, [r7, #4]
 800674c:	685b      	ldr	r3, [r3, #4]
 800674e:	009b      	lsls	r3, r3, #2
 8006750:	429a      	cmp	r2, r3
 8006752:	d1eb      	bne.n	800672c <HAL_RCC_ClockConfig+0xf8>
      }
    }
  }

  /* Decreasing the number of wait states because of lower CPU frequency */
  if(FLatency < __HAL_FLASH_GET_LATENCY())
 8006754:	4b25      	ldr	r3, [pc, #148]	@ (80067ec <HAL_RCC_ClockConfig+0x1b8>)
 8006756:	681b      	ldr	r3, [r3, #0]
 8006758:	f003 030f 	and.w	r3, r3, #15
 800675c:	683a      	ldr	r2, [r7, #0]
 800675e:	429a      	cmp	r2, r3
 8006760:	d20c      	bcs.n	800677c <HAL_RCC_ClockConfig+0x148>
  {
     /* Program the new number of wait states to the LATENCY bits in the FLASH_ACR register */
    __HAL_FLASH_SET_LATENCY(FLatency);
 8006762:	4b22      	ldr	r3, [pc, #136]	@ (80067ec <HAL_RCC_ClockConfig+0x1b8>)
 8006764:	683a      	ldr	r2, [r7, #0]
 8006766:	b2d2      	uxtb	r2, r2
 8006768:	701a      	strb	r2, [r3, #0]

    /* Check that the new number of wait states is taken into account to access the Flash
    memory by reading the FLASH_ACR register */
    if(__HAL_FLASH_GET_LATENCY() != FLatency)
 800676a:	4b20      	ldr	r3, [pc, #128]	@ (80067ec <HAL_RCC_ClockConfig+0x1b8>)
 800676c:	681b      	ldr	r3, [r3, #0]
 800676e:	f003 030f 	and.w	r3, r3, #15
 8006772:	683a      	ldr	r2, [r7, #0]
 8006774:	429a      	cmp	r2, r3
 8006776:	d001      	beq.n	800677c <HAL_RCC_ClockConfig+0x148>
    {
      return HAL_ERROR;
 8006778:	2301      	movs	r3, #1
 800677a:	e032      	b.n	80067e2 <HAL_RCC_ClockConfig+0x1ae>
    }
  }

  /*-------------------------- PCLK1 Configuration ---------------------------*/
  if(((RCC_ClkInitStruct->ClockType) & RCC_CLOCKTYPE_PCLK1) == RCC_CLOCKTYPE_PCLK1)
 800677c:	687b      	ldr	r3, [r7, #4]
 800677e:	681b      	ldr	r3, [r3, #0]
 8006780:	f003 0304 	and.w	r3, r3, #4
 8006784:	2b00      	cmp	r3, #0
 8006786:	d008      	beq.n	800679a <HAL_RCC_ClockConfig+0x166>
  {
    assert_param(IS_RCC_PCLK(RCC_ClkInitStruct->APB1CLKDivider));
    MODIFY_REG(RCC->CFGR, RCC_CFGR_PPRE1, RCC_ClkInitStruct->APB1CLKDivider);
 8006788:	4b19      	ldr	r3, [pc, #100]	@ (80067f0 <HAL_RCC_ClockConfig+0x1bc>)
 800678a:	689b      	ldr	r3, [r3, #8]
 800678c:	f423 52e0 	bic.w	r2, r3, #7168	@ 0x1c00
 8006790:	687b      	ldr	r3, [r7, #4]
 8006792:	68db      	ldr	r3, [r3, #12]
 8006794:	4916      	ldr	r1, [pc, #88]	@ (80067f0 <HAL_RCC_ClockConfig+0x1bc>)
 8006796:	4313      	orrs	r3, r2
 8006798:	608b      	str	r3, [r1, #8]
  }

  /*-------------------------- PCLK2 Configuration ---------------------------*/
  if(((RCC_ClkInitStruct->ClockType) & RCC_CLOCKTYPE_PCLK2) == RCC_CLOCKTYPE_PCLK2)
 800679a:	687b      	ldr	r3, [r7, #4]
 800679c:	681b      	ldr	r3, [r3, #0]
 800679e:	f003 0308 	and.w	r3, r3, #8
 80067a2:	2b00      	cmp	r3, #0
 80067a4:	d009      	beq.n	80067ba <HAL_RCC_ClockConfig+0x186>
  {
    assert_param(IS_RCC_PCLK(RCC_ClkInitStruct->APB2CLKDivider));
    MODIFY_REG(RCC->CFGR, RCC_CFGR_PPRE2, ((RCC_ClkInitStruct->APB2CLKDivider) << 3U));
 80067a6:	4b12      	ldr	r3, [pc, #72]	@ (80067f0 <HAL_RCC_ClockConfig+0x1bc>)
 80067a8:	689b      	ldr	r3, [r3, #8]
 80067aa:	f423 4260 	bic.w	r2, r3, #57344	@ 0xe000
 80067ae:	687b      	ldr	r3, [r7, #4]
 80067b0:	691b      	ldr	r3, [r3, #16]
 80067b2:	00db      	lsls	r3, r3, #3
 80067b4:	490e      	ldr	r1, [pc, #56]	@ (80067f0 <HAL_RCC_ClockConfig+0x1bc>)
 80067b6:	4313      	orrs	r3, r2
 80067b8:	608b      	str	r3, [r1, #8]
  }

  /* Update the SystemCoreClock global variable */
  SystemCoreClock = HAL_RCC_GetSysClockFreq() >> AHBPrescTable[(RCC->CFGR & RCC_CFGR_HPRE)>> RCC_CFGR_HPRE_Pos];
 80067ba:	f000 f821 	bl	8006800 <HAL_RCC_GetSysClockFreq>
 80067be:	4602      	mov	r2, r0
 80067c0:	4b0b      	ldr	r3, [pc, #44]	@ (80067f0 <HAL_RCC_ClockConfig+0x1bc>)
 80067c2:	689b      	ldr	r3, [r3, #8]
 80067c4:	091b      	lsrs	r3, r3, #4
 80067c6:	f003 030f 	and.w	r3, r3, #15
 80067ca:	490a      	ldr	r1, [pc, #40]	@ (80067f4 <HAL_RCC_ClockConfig+0x1c0>)
 80067cc:	5ccb      	ldrb	r3, [r1, r3]
 80067ce:	fa22 f303 	lsr.w	r3, r2, r3
 80067d2:	4a09      	ldr	r2, [pc, #36]	@ (80067f8 <HAL_RCC_ClockConfig+0x1c4>)
 80067d4:	6013      	str	r3, [r2, #0]

  /* Configure the source of time base considering new system clocks settings */
  HAL_InitTick (uwTickPrio);
 80067d6:	4b09      	ldr	r3, [pc, #36]	@ (80067fc <HAL_RCC_ClockConfig+0x1c8>)
 80067d8:	681b      	ldr	r3, [r3, #0]
 80067da:	4618      	mov	r0, r3
 80067dc:	f7fc fcd8 	bl	8003190 <HAL_InitTick>

  return HAL_OK;
 80067e0:	2300      	movs	r3, #0
}
 80067e2:	4618      	mov	r0, r3
 80067e4:	3710      	adds	r7, #16
 80067e6:	46bd      	mov	sp, r7
 80067e8:	bd80      	pop	{r7, pc}
 80067ea:	bf00      	nop
 80067ec:	40023c00 	.word	0x40023c00
 80067f0:	40023800 	.word	0x40023800
 80067f4:	080099b8 	.word	0x080099b8
 80067f8:	2000001c 	.word	0x2000001c
 80067fc:	20000020 	.word	0x20000020

08006800 <HAL_RCC_GetSysClockFreq>:
  *
  *
  * @retval SYSCLK frequency
  */
__weak uint32_t HAL_RCC_GetSysClockFreq(void)
{
 8006800:	e92d 4fb0 	stmdb	sp!, {r4, r5, r7, r8, r9, sl, fp, lr}
 8006804:	b090      	sub	sp, #64	@ 0x40
 8006806:	af00      	add	r7, sp, #0
  uint32_t pllm = 0U, pllvco = 0U, pllp = 0U;
 8006808:	2300      	movs	r3, #0
 800680a:	637b      	str	r3, [r7, #52]	@ 0x34
 800680c:	2300      	movs	r3, #0
 800680e:	63fb      	str	r3, [r7, #60]	@ 0x3c
 8006810:	2300      	movs	r3, #0
 8006812:	633b      	str	r3, [r7, #48]	@ 0x30
  uint32_t sysclockfreq = 0U;
 8006814:	2300      	movs	r3, #0
 8006816:	63bb      	str	r3, [r7, #56]	@ 0x38

  /* Get SYSCLK source -------------------------------------------------------*/
  switch (RCC->CFGR & RCC_CFGR_SWS)
 8006818:	4b59      	ldr	r3, [pc, #356]	@ (8006980 <HAL_RCC_GetSysClockFreq+0x180>)
 800681a:	689b      	ldr	r3, [r3, #8]
 800681c:	f003 030c 	and.w	r3, r3, #12
 8006820:	2b08      	cmp	r3, #8
 8006822:	d00d      	beq.n	8006840 <HAL_RCC_GetSysClockFreq+0x40>
 8006824:	2b08      	cmp	r3, #8
 8006826:	f200 80a1 	bhi.w	800696c <HAL_RCC_GetSysClockFreq+0x16c>
 800682a:	2b00      	cmp	r3, #0
 800682c:	d002      	beq.n	8006834 <HAL_RCC_GetSysClockFreq+0x34>
 800682e:	2b04      	cmp	r3, #4
 8006830:	d003      	beq.n	800683a <HAL_RCC_GetSysClockFreq+0x3a>
 8006832:	e09b      	b.n	800696c <HAL_RCC_GetSysClockFreq+0x16c>
  {
    case RCC_CFGR_SWS_HSI:  /* HSI used as system clock source */
    {
      sysclockfreq = HSI_VALUE;
 8006834:	4b53      	ldr	r3, [pc, #332]	@ (8006984 <HAL_RCC_GetSysClockFreq+0x184>)
 8006836:	63bb      	str	r3, [r7, #56]	@ 0x38
       break;
 8006838:	e09b      	b.n	8006972 <HAL_RCC_GetSysClockFreq+0x172>
    }
    case RCC_CFGR_SWS_HSE:  /* HSE used as system clock  source */
    {
      sysclockfreq = HSE_VALUE;
 800683a:	4b53      	ldr	r3, [pc, #332]	@ (8006988 <HAL_RCC_GetSysClockFreq+0x188>)
 800683c:	63bb      	str	r3, [r7, #56]	@ 0x38
      break;
 800683e:	e098      	b.n	8006972 <HAL_RCC_GetSysClockFreq+0x172>
    }
    case RCC_CFGR_SWS_PLL:  /* PLL used as system clock  source */
    {
      /* PLL_VCO = (HSE_VALUE or HSI_VALUE / PLLM) * PLLN
      SYSCLK = PLL_VCO / PLLP */
      pllm = RCC->PLLCFGR & RCC_PLLCFGR_PLLM;
 8006840:	4b4f      	ldr	r3, [pc, #316]	@ (8006980 <HAL_RCC_GetSysClockFreq+0x180>)
 8006842:	685b      	ldr	r3, [r3, #4]
 8006844:	f003 033f 	and.w	r3, r3, #63	@ 0x3f
 8006848:	637b      	str	r3, [r7, #52]	@ 0x34
      if(__HAL_RCC_GET_PLL_OSCSOURCE() != RCC_PLLSOURCE_HSI)
 800684a:	4b4d      	ldr	r3, [pc, #308]	@ (8006980 <HAL_RCC_GetSysClockFreq+0x180>)
 800684c:	685b      	ldr	r3, [r3, #4]
 800684e:	f403 0380 	and.w	r3, r3, #4194304	@ 0x400000
 8006852:	2b00      	cmp	r3, #0
 8006854:	d028      	beq.n	80068a8 <HAL_RCC_GetSysClockFreq+0xa8>
      {
        /* HSE used as PLL clock source */
        pllvco = (uint32_t) ((((uint64_t) HSE_VALUE * ((uint64_t) ((RCC->PLLCFGR & RCC_PLLCFGR_PLLN) >> RCC_PLLCFGR_PLLN_Pos)))) / (uint64_t)pllm);
 8006856:	4b4a      	ldr	r3, [pc, #296]	@ (8006980 <HAL_RCC_GetSysClockFreq+0x180>)
 8006858:	685b      	ldr	r3, [r3, #4]
 800685a:	099b      	lsrs	r3, r3, #6
 800685c:	2200      	movs	r2, #0
 800685e:	623b      	str	r3, [r7, #32]
 8006860:	627a      	str	r2, [r7, #36]	@ 0x24
 8006862:	6a3b      	ldr	r3, [r7, #32]
 8006864:	f3c3 0008 	ubfx	r0, r3, #0, #9
 8006868:	2100      	movs	r1, #0
 800686a:	4b47      	ldr	r3, [pc, #284]	@ (8006988 <HAL_RCC_GetSysClockFreq+0x188>)
 800686c:	fb03 f201 	mul.w	r2, r3, r1
 8006870:	2300      	movs	r3, #0
 8006872:	fb00 f303 	mul.w	r3, r0, r3
 8006876:	4413      	add	r3, r2
 8006878:	4a43      	ldr	r2, [pc, #268]	@ (8006988 <HAL_RCC_GetSysClockFreq+0x188>)
 800687a:	fba0 1202 	umull	r1, r2, r0, r2
 800687e:	62fa      	str	r2, [r7, #44]	@ 0x2c
 8006880:	460a      	mov	r2, r1
 8006882:	62ba      	str	r2, [r7, #40]	@ 0x28
 8006884:	6afa      	ldr	r2, [r7, #44]	@ 0x2c
 8006886:	4413      	add	r3, r2
 8006888:	62fb      	str	r3, [r7, #44]	@ 0x2c
 800688a:	6b7b      	ldr	r3, [r7, #52]	@ 0x34
 800688c:	2200      	movs	r2, #0
 800688e:	61bb      	str	r3, [r7, #24]
 8006890:	61fa      	str	r2, [r7, #28]
 8006892:	e9d7 2306 	ldrd	r2, r3, [r7, #24]
 8006896:	e9d7 010a 	ldrd	r0, r1, [r7, #40]	@ 0x28
 800689a:	f7f9 fcaf 	bl	80001fc <__aeabi_uldivmod>
 800689e:	4602      	mov	r2, r0
 80068a0:	460b      	mov	r3, r1
 80068a2:	4613      	mov	r3, r2
 80068a4:	63fb      	str	r3, [r7, #60]	@ 0x3c
 80068a6:	e053      	b.n	8006950 <HAL_RCC_GetSysClockFreq+0x150>
      }
      else
      {
        /* HSI used as PLL clock source */
        pllvco = (uint32_t) ((((uint64_t) HSI_VALUE * ((uint64_t) ((RCC->PLLCFGR & RCC_PLLCFGR_PLLN) >> RCC_PLLCFGR_PLLN_Pos)))) / (uint64_t)pllm);
 80068a8:	4b35      	ldr	r3, [pc, #212]	@ (8006980 <HAL_RCC_GetSysClockFreq+0x180>)
 80068aa:	685b      	ldr	r3, [r3, #4]
 80068ac:	099b      	lsrs	r3, r3, #6
 80068ae:	2200      	movs	r2, #0
 80068b0:	613b      	str	r3, [r7, #16]
 80068b2:	617a      	str	r2, [r7, #20]
 80068b4:	693b      	ldr	r3, [r7, #16]
 80068b6:	f3c3 0a08 	ubfx	sl, r3, #0, #9
 80068ba:	f04f 0b00 	mov.w	fp, #0
 80068be:	4652      	mov	r2, sl
 80068c0:	465b      	mov	r3, fp
 80068c2:	f04f 0000 	mov.w	r0, #0
 80068c6:	f04f 0100 	mov.w	r1, #0
 80068ca:	0159      	lsls	r1, r3, #5
 80068cc:	ea41 61d2 	orr.w	r1, r1, r2, lsr #27
 80068d0:	0150      	lsls	r0, r2, #5
 80068d2:	4602      	mov	r2, r0
 80068d4:	460b      	mov	r3, r1
 80068d6:	ebb2 080a 	subs.w	r8, r2, sl
 80068da:	eb63 090b 	sbc.w	r9, r3, fp
 80068de:	f04f 0200 	mov.w	r2, #0
 80068e2:	f04f 0300 	mov.w	r3, #0
 80068e6:	ea4f 1389 	mov.w	r3, r9, lsl #6
 80068ea:	ea43 6398 	orr.w	r3, r3, r8, lsr #26
 80068ee:	ea4f 1288 	mov.w	r2, r8, lsl #6
 80068f2:	ebb2 0408 	subs.w	r4, r2, r8
 80068f6:	eb63 0509 	sbc.w	r5, r3, r9
 80068fa:	f04f 0200 	mov.w	r2, #0
 80068fe:	f04f 0300 	mov.w	r3, #0
 8006902:	00eb      	lsls	r3, r5, #3
 8006904:	ea43 7354 	orr.w	r3, r3, r4, lsr #29
 8006908:	00e2      	lsls	r2, r4, #3
 800690a:	4614      	mov	r4, r2
 800690c:	461d      	mov	r5, r3
 800690e:	eb14 030a 	adds.w	r3, r4, sl
 8006912:	603b      	str	r3, [r7, #0]
 8006914:	eb45 030b 	adc.w	r3, r5, fp
 8006918:	607b      	str	r3, [r7, #4]
 800691a:	f04f 0200 	mov.w	r2, #0
 800691e:	f04f 0300 	mov.w	r3, #0
 8006922:	e9d7 4500 	ldrd	r4, r5, [r7]
 8006926:	4629      	mov	r1, r5
 8006928:	028b      	lsls	r3, r1, #10
 800692a:	4621      	mov	r1, r4
 800692c:	ea43 5391 	orr.w	r3, r3, r1, lsr #22
 8006930:	4621      	mov	r1, r4
 8006932:	028a      	lsls	r2, r1, #10
 8006934:	4610      	mov	r0, r2
 8006936:	4619      	mov	r1, r3
 8006938:	6b7b      	ldr	r3, [r7, #52]	@ 0x34
 800693a:	2200      	movs	r2, #0
 800693c:	60bb      	str	r3, [r7, #8]
 800693e:	60fa      	str	r2, [r7, #12]
 8006940:	e9d7 2302 	ldrd	r2, r3, [r7, #8]
 8006944:	f7f9 fc5a 	bl	80001fc <__aeabi_uldivmod>
 8006948:	4602      	mov	r2, r0
 800694a:	460b      	mov	r3, r1
 800694c:	4613      	mov	r3, r2
 800694e:	63fb      	str	r3, [r7, #60]	@ 0x3c
      }
      pllp = ((((RCC->PLLCFGR & RCC_PLLCFGR_PLLP) >> RCC_PLLCFGR_PLLP_Pos) + 1U) *2U);
 8006950:	4b0b      	ldr	r3, [pc, #44]	@ (8006980 <HAL_RCC_GetSysClockFreq+0x180>)
 8006952:	685b      	ldr	r3, [r3, #4]
 8006954:	0c1b      	lsrs	r3, r3, #16
 8006956:	f003 0303 	and.w	r3, r3, #3
 800695a:	3301      	adds	r3, #1
 800695c:	005b      	lsls	r3, r3, #1
 800695e:	633b      	str	r3, [r7, #48]	@ 0x30

      sysclockfreq = pllvco/pllp;
 8006960:	6bfa      	ldr	r2, [r7, #60]	@ 0x3c
 8006962:	6b3b      	ldr	r3, [r7, #48]	@ 0x30
 8006964:	fbb2 f3f3 	udiv	r3, r2, r3
 8006968:	63bb      	str	r3, [r7, #56]	@ 0x38
      break;
 800696a:	e002      	b.n	8006972 <HAL_RCC_GetSysClockFreq+0x172>
    }
    default:
    {
      sysclockfreq = HSI_VALUE;
 800696c:	4b05      	ldr	r3, [pc, #20]	@ (8006984 <HAL_RCC_GetSysClockFreq+0x184>)
 800696e:	63bb      	str	r3, [r7, #56]	@ 0x38
      break;
 8006970:	bf00      	nop
    }
  }
  return sysclockfreq;
 8006972:	6bbb      	ldr	r3, [r7, #56]	@ 0x38
}
 8006974:	4618      	mov	r0, r3
 8006976:	3740      	adds	r7, #64	@ 0x40
 8006978:	46bd      	mov	sp, r7
 800697a:	e8bd 8fb0 	ldmia.w	sp!, {r4, r5, r7, r8, r9, sl, fp, pc}
 800697e:	bf00      	nop
 8006980:	40023800 	.word	0x40023800
 8006984:	00f42400 	.word	0x00f42400
 8006988:	017d7840 	.word	0x017d7840

0800698c <HAL_RCC_GetHCLKFreq>:
  * @note   The SystemCoreClock CMSIS variable is used to store System Clock Frequency
  *         and updated within this function
  * @retval HCLK frequency
  */
uint32_t HAL_RCC_GetHCLKFreq(void)
{
 800698c:	b480      	push	{r7}
 800698e:	af00      	add	r7, sp, #0
  return SystemCoreClock;
 8006990:	4b03      	ldr	r3, [pc, #12]	@ (80069a0 <HAL_RCC_GetHCLKFreq+0x14>)
 8006992:	681b      	ldr	r3, [r3, #0]
}
 8006994:	4618      	mov	r0, r3
 8006996:	46bd      	mov	sp, r7
 8006998:	f85d 7b04 	ldr.w	r7, [sp], #4
 800699c:	4770      	bx	lr
 800699e:	bf00      	nop
 80069a0:	2000001c 	.word	0x2000001c

080069a4 <HAL_RCC_GetPCLK1Freq>:
  * @note   Each time PCLK1 changes, this function must be called to update the
  *         right PCLK1 value. Otherwise, any configuration based on this function will be incorrect.
  * @retval PCLK1 frequency
  */
uint32_t HAL_RCC_GetPCLK1Freq(void)
{
 80069a4:	b580      	push	{r7, lr}
 80069a6:	af00      	add	r7, sp, #0
  /* Get HCLK source and Compute PCLK1 frequency ---------------------------*/
  return (HAL_RCC_GetHCLKFreq() >> APBPrescTable[(RCC->CFGR & RCC_CFGR_PPRE1)>> RCC_CFGR_PPRE1_Pos]);
 80069a8:	f7ff fff0 	bl	800698c <HAL_RCC_GetHCLKFreq>
 80069ac:	4602      	mov	r2, r0
 80069ae:	4b05      	ldr	r3, [pc, #20]	@ (80069c4 <HAL_RCC_GetPCLK1Freq+0x20>)
 80069b0:	689b      	ldr	r3, [r3, #8]
 80069b2:	0a9b      	lsrs	r3, r3, #10
 80069b4:	f003 0307 	and.w	r3, r3, #7
 80069b8:	4903      	ldr	r1, [pc, #12]	@ (80069c8 <HAL_RCC_GetPCLK1Freq+0x24>)
 80069ba:	5ccb      	ldrb	r3, [r1, r3]
 80069bc:	fa22 f303 	lsr.w	r3, r2, r3
}
 80069c0:	4618      	mov	r0, r3
 80069c2:	bd80      	pop	{r7, pc}
 80069c4:	40023800 	.word	0x40023800
 80069c8:	080099c8 	.word	0x080099c8

080069cc <HAL_RCC_GetPCLK2Freq>:
  * @note   Each time PCLK2 changes, this function must be called to update the
  *         right PCLK2 value. Otherwise, any configuration based on this function will be incorrect.
  * @retval PCLK2 frequency
  */
uint32_t HAL_RCC_GetPCLK2Freq(void)
{
 80069cc:	b580      	push	{r7, lr}
 80069ce:	af00      	add	r7, sp, #0
  /* Get HCLK source and Compute PCLK2 frequency ---------------------------*/
  return (HAL_RCC_GetHCLKFreq()>> APBPrescTable[(RCC->CFGR & RCC_CFGR_PPRE2)>> RCC_CFGR_PPRE2_Pos]);
 80069d0:	f7ff ffdc 	bl	800698c <HAL_RCC_GetHCLKFreq>
 80069d4:	4602      	mov	r2, r0
 80069d6:	4b05      	ldr	r3, [pc, #20]	@ (80069ec <HAL_RCC_GetPCLK2Freq+0x20>)
 80069d8:	689b      	ldr	r3, [r3, #8]
 80069da:	0b5b      	lsrs	r3, r3, #13
 80069dc:	f003 0307 	and.w	r3, r3, #7
 80069e0:	4903      	ldr	r1, [pc, #12]	@ (80069f0 <HAL_RCC_GetPCLK2Freq+0x24>)
 80069e2:	5ccb      	ldrb	r3, [r1, r3]
 80069e4:	fa22 f303 	lsr.w	r3, r2, r3
}
 80069e8:	4618      	mov	r0, r3
 80069ea:	bd80      	pop	{r7, pc}
 80069ec:	40023800 	.word	0x40023800
 80069f0:	080099c8 	.word	0x080099c8

080069f4 <HAL_RCCEx_PeriphCLKConfig>:
  *         the backup registers) and RCC_BDCR register are set to their reset values.
  *
  * @retval HAL status
  */
HAL_StatusTypeDef HAL_RCCEx_PeriphCLKConfig(RCC_PeriphCLKInitTypeDef  *PeriphClkInit)
{
 80069f4:	b580      	push	{r7, lr}
 80069f6:	b086      	sub	sp, #24
 80069f8:	af00      	add	r7, sp, #0
 80069fa:	6078      	str	r0, [r7, #4]
  uint32_t tickstart = 0U;
 80069fc:	2300      	movs	r3, #0
 80069fe:	617b      	str	r3, [r7, #20]
  uint32_t tmpreg1 = 0U;
 8006a00:	2300      	movs	r3, #0
 8006a02:	613b      	str	r3, [r7, #16]

  /*----------------------- SAI/I2S Configuration (PLLI2S) -------------------*/
  /*----------------------- Common configuration SAI/I2S ---------------------*/
  /* In Case of SAI or I2S Clock Configuration through PLLI2S, PLLI2SN division
     factor is common parameters for both peripherals */
  if((((PeriphClkInit->PeriphClockSelection) & RCC_PERIPHCLK_I2S) == RCC_PERIPHCLK_I2S) ||
 8006a04:	687b      	ldr	r3, [r7, #4]
 8006a06:	681b      	ldr	r3, [r3, #0]
 8006a08:	f003 0301 	and.w	r3, r3, #1
 8006a0c:	2b00      	cmp	r3, #0
 8006a0e:	d10b      	bne.n	8006a28 <HAL_RCCEx_PeriphCLKConfig+0x34>
     (((PeriphClkInit->PeriphClockSelection) & RCC_PERIPHCLK_SAI_PLLI2S) == RCC_PERIPHCLK_SAI_PLLI2S) ||
 8006a10:	687b      	ldr	r3, [r7, #4]
 8006a12:	681b      	ldr	r3, [r3, #0]
 8006a14:	f003 0302 	and.w	r3, r3, #2
  if((((PeriphClkInit->PeriphClockSelection) & RCC_PERIPHCLK_I2S) == RCC_PERIPHCLK_I2S) ||
 8006a18:	2b00      	cmp	r3, #0
 8006a1a:	d105      	bne.n	8006a28 <HAL_RCCEx_PeriphCLKConfig+0x34>
     (((PeriphClkInit->PeriphClockSelection) & RCC_PERIPHCLK_PLLI2S) == RCC_PERIPHCLK_PLLI2S))
 8006a1c:	687b      	ldr	r3, [r7, #4]
 8006a1e:	681b      	ldr	r3, [r3, #0]
 8006a20:	f003 0340 	and.w	r3, r3, #64	@ 0x40
     (((PeriphClkInit->PeriphClockSelection) & RCC_PERIPHCLK_SAI_PLLI2S) == RCC_PERIPHCLK_SAI_PLLI2S) ||
 8006a24:	2b00      	cmp	r3, #0
 8006a26:	d075      	beq.n	8006b14 <HAL_RCCEx_PeriphCLKConfig+0x120>
  {
    /* check for Parameters */
    assert_param(IS_RCC_PLLI2SN_VALUE(PeriphClkInit->PLLI2S.PLLI2SN));

    /* Disable the PLLI2S */
    __HAL_RCC_PLLI2S_DISABLE();
 8006a28:	4b91      	ldr	r3, [pc, #580]	@ (8006c70 <HAL_RCCEx_PeriphCLKConfig+0x27c>)
 8006a2a:	2200      	movs	r2, #0
 8006a2c:	601a      	str	r2, [r3, #0]
    /* Get tick */
    tickstart = HAL_GetTick();
 8006a2e:	f7fc fbf3 	bl	8003218 <HAL_GetTick>
 8006a32:	6178      	str	r0, [r7, #20]
    /* Wait till PLLI2S is disabled */
    while(__HAL_RCC_GET_FLAG(RCC_FLAG_PLLI2SRDY)  != RESET)
 8006a34:	e008      	b.n	8006a48 <HAL_RCCEx_PeriphCLKConfig+0x54>
    {
      if((HAL_GetTick() - tickstart ) > PLLI2S_TIMEOUT_VALUE)
 8006a36:	f7fc fbef 	bl	8003218 <HAL_GetTick>
 8006a3a:	4602      	mov	r2, r0
 8006a3c:	697b      	ldr	r3, [r7, #20]
 8006a3e:	1ad3      	subs	r3, r2, r3
 8006a40:	2b02      	cmp	r3, #2
 8006a42:	d901      	bls.n	8006a48 <HAL_RCCEx_PeriphCLKConfig+0x54>
      {
        /* return in case of Timeout detected */
        return HAL_TIMEOUT;
 8006a44:	2303      	movs	r3, #3
 8006a46:	e189      	b.n	8006d5c <HAL_RCCEx_PeriphCLKConfig+0x368>
    while(__HAL_RCC_GET_FLAG(RCC_FLAG_PLLI2SRDY)  != RESET)
 8006a48:	4b8a      	ldr	r3, [pc, #552]	@ (8006c74 <HAL_RCCEx_PeriphCLKConfig+0x280>)
 8006a4a:	681b      	ldr	r3, [r3, #0]
 8006a4c:	f003 6300 	and.w	r3, r3, #134217728	@ 0x8000000
 8006a50:	2b00      	cmp	r3, #0
 8006a52:	d1f0      	bne.n	8006a36 <HAL_RCCEx_PeriphCLKConfig+0x42>
    }

    /*---------------------------- I2S configuration -------------------------*/
    /* In Case of I2S Clock Configuration through PLLI2S, PLLI2SR must be added
      only for I2S configuration */
    if(((PeriphClkInit->PeriphClockSelection) & RCC_PERIPHCLK_I2S) == (RCC_PERIPHCLK_I2S))
 8006a54:	687b      	ldr	r3, [r7, #4]
 8006a56:	681b      	ldr	r3, [r3, #0]
 8006a58:	f003 0301 	and.w	r3, r3, #1
 8006a5c:	2b00      	cmp	r3, #0
 8006a5e:	d009      	beq.n	8006a74 <HAL_RCCEx_PeriphCLKConfig+0x80>
      /* check for Parameters */
      assert_param(IS_RCC_PLLI2SR_VALUE(PeriphClkInit->PLLI2S.PLLI2SR));
      /* Configure the PLLI2S division factors */
      /* PLLI2S_VCO = f(VCO clock) = f(PLLI2S clock input) * (PLLI2SN/PLLM) */
      /* I2SCLK = f(PLLI2S clock output) = f(VCO clock) / PLLI2SR */
      __HAL_RCC_PLLI2S_CONFIG(PeriphClkInit->PLLI2S.PLLI2SN , PeriphClkInit->PLLI2S.PLLI2SR);
 8006a60:	687b      	ldr	r3, [r7, #4]
 8006a62:	685b      	ldr	r3, [r3, #4]
 8006a64:	019a      	lsls	r2, r3, #6
 8006a66:	687b      	ldr	r3, [r7, #4]
 8006a68:	689b      	ldr	r3, [r3, #8]
 8006a6a:	071b      	lsls	r3, r3, #28
 8006a6c:	4981      	ldr	r1, [pc, #516]	@ (8006c74 <HAL_RCCEx_PeriphCLKConfig+0x280>)
 8006a6e:	4313      	orrs	r3, r2
 8006a70:	f8c1 3084 	str.w	r3, [r1, #132]	@ 0x84
    }

    /*---------------------------- SAI configuration -------------------------*/
    /* In Case of SAI Clock Configuration through PLLI2S, PLLI2SQ and PLLI2S_DIVQ must
       be added only for SAI configuration */
    if(((PeriphClkInit->PeriphClockSelection) & RCC_PERIPHCLK_SAI_PLLI2S) == (RCC_PERIPHCLK_SAI_PLLI2S))
 8006a74:	687b      	ldr	r3, [r7, #4]
 8006a76:	681b      	ldr	r3, [r3, #0]
 8006a78:	f003 0302 	and.w	r3, r3, #2
 8006a7c:	2b00      	cmp	r3, #0
 8006a7e:	d01f      	beq.n	8006ac0 <HAL_RCCEx_PeriphCLKConfig+0xcc>
      /* Check the PLLI2S division factors */
      assert_param(IS_RCC_PLLI2SQ_VALUE(PeriphClkInit->PLLI2S.PLLI2SQ));
      assert_param(IS_RCC_PLLI2S_DIVQ_VALUE(PeriphClkInit->PLLI2SDivQ));

      /* Read PLLI2SR value from PLLI2SCFGR register (this value is not need for SAI configuration) */
      tmpreg1 = ((RCC->PLLI2SCFGR & RCC_PLLI2SCFGR_PLLI2SR) >> RCC_PLLI2SCFGR_PLLI2SR_Pos);
 8006a80:	4b7c      	ldr	r3, [pc, #496]	@ (8006c74 <HAL_RCCEx_PeriphCLKConfig+0x280>)
 8006a82:	f8d3 3084 	ldr.w	r3, [r3, #132]	@ 0x84
 8006a86:	0f1b      	lsrs	r3, r3, #28
 8006a88:	f003 0307 	and.w	r3, r3, #7
 8006a8c:	613b      	str	r3, [r7, #16]
      /* Configure the PLLI2S division factors */
      /* PLLI2S_VCO Input  = PLL_SOURCE/PLLM */
      /* PLLI2S_VCO Output = PLLI2S_VCO Input * PLLI2SN */
      /* SAI_CLK(first level) = PLLI2S_VCO Output/PLLI2SQ */
      __HAL_RCC_PLLI2S_SAICLK_CONFIG(PeriphClkInit->PLLI2S.PLLI2SN , PeriphClkInit->PLLI2S.PLLI2SQ , tmpreg1);
 8006a8e:	687b      	ldr	r3, [r7, #4]
 8006a90:	685b      	ldr	r3, [r3, #4]
 8006a92:	019a      	lsls	r2, r3, #6
 8006a94:	687b      	ldr	r3, [r7, #4]
 8006a96:	68db      	ldr	r3, [r3, #12]
 8006a98:	061b      	lsls	r3, r3, #24
 8006a9a:	431a      	orrs	r2, r3
 8006a9c:	693b      	ldr	r3, [r7, #16]
 8006a9e:	071b      	lsls	r3, r3, #28
 8006aa0:	4974      	ldr	r1, [pc, #464]	@ (8006c74 <HAL_RCCEx_PeriphCLKConfig+0x280>)
 8006aa2:	4313      	orrs	r3, r2
 8006aa4:	f8c1 3084 	str.w	r3, [r1, #132]	@ 0x84
      /* SAI_CLK_x = SAI_CLK(first level)/PLLI2SDIVQ */
      __HAL_RCC_PLLI2S_PLLSAICLKDIVQ_CONFIG(PeriphClkInit->PLLI2SDivQ);
 8006aa8:	4b72      	ldr	r3, [pc, #456]	@ (8006c74 <HAL_RCCEx_PeriphCLKConfig+0x280>)
 8006aaa:	f8d3 308c 	ldr.w	r3, [r3, #140]	@ 0x8c
 8006aae:	f023 021f 	bic.w	r2, r3, #31
 8006ab2:	687b      	ldr	r3, [r7, #4]
 8006ab4:	69db      	ldr	r3, [r3, #28]
 8006ab6:	3b01      	subs	r3, #1
 8006ab8:	496e      	ldr	r1, [pc, #440]	@ (8006c74 <HAL_RCCEx_PeriphCLKConfig+0x280>)
 8006aba:	4313      	orrs	r3, r2
 8006abc:	f8c1 308c 	str.w	r3, [r1, #140]	@ 0x8c
    }

    /*----------------- In Case of PLLI2S is just selected  -----------------*/
    if((PeriphClkInit->PeriphClockSelection & RCC_PERIPHCLK_PLLI2S) == RCC_PERIPHCLK_PLLI2S)
 8006ac0:	687b      	ldr	r3, [r7, #4]
 8006ac2:	681b      	ldr	r3, [r3, #0]
 8006ac4:	f003 0340 	and.w	r3, r3, #64	@ 0x40
 8006ac8:	2b00      	cmp	r3, #0
 8006aca:	d00d      	beq.n	8006ae8 <HAL_RCCEx_PeriphCLKConfig+0xf4>
      /* Check for Parameters */
      assert_param(IS_RCC_PLLI2SQ_VALUE(PeriphClkInit->PLLI2S.PLLI2SQ));
      assert_param(IS_RCC_PLLI2SR_VALUE(PeriphClkInit->PLLI2S.PLLI2SR));

      /* Configure the PLLI2S multiplication and division factors */
      __HAL_RCC_PLLI2S_SAICLK_CONFIG(PeriphClkInit->PLLI2S.PLLI2SN, PeriphClkInit->PLLI2S.PLLI2SQ, PeriphClkInit->PLLI2S.PLLI2SR);
 8006acc:	687b      	ldr	r3, [r7, #4]
 8006ace:	685b      	ldr	r3, [r3, #4]
 8006ad0:	019a      	lsls	r2, r3, #6
 8006ad2:	687b      	ldr	r3, [r7, #4]
 8006ad4:	68db      	ldr	r3, [r3, #12]
 8006ad6:	061b      	lsls	r3, r3, #24
 8006ad8:	431a      	orrs	r2, r3
 8006ada:	687b      	ldr	r3, [r7, #4]
 8006adc:	689b      	ldr	r3, [r3, #8]
 8006ade:	071b      	lsls	r3, r3, #28
 8006ae0:	4964      	ldr	r1, [pc, #400]	@ (8006c74 <HAL_RCCEx_PeriphCLKConfig+0x280>)
 8006ae2:	4313      	orrs	r3, r2
 8006ae4:	f8c1 3084 	str.w	r3, [r1, #132]	@ 0x84
    }

    /* Enable the PLLI2S */
    __HAL_RCC_PLLI2S_ENABLE();
 8006ae8:	4b61      	ldr	r3, [pc, #388]	@ (8006c70 <HAL_RCCEx_PeriphCLKConfig+0x27c>)
 8006aea:	2201      	movs	r2, #1
 8006aec:	601a      	str	r2, [r3, #0]
    /* Get tick */
    tickstart = HAL_GetTick();
 8006aee:	f7fc fb93 	bl	8003218 <HAL_GetTick>
 8006af2:	6178      	str	r0, [r7, #20]
    /* Wait till PLLI2S is ready */
    while(__HAL_RCC_GET_FLAG(RCC_FLAG_PLLI2SRDY)  == RESET)
 8006af4:	e008      	b.n	8006b08 <HAL_RCCEx_PeriphCLKConfig+0x114>
    {
      if((HAL_GetTick() - tickstart ) > PLLI2S_TIMEOUT_VALUE)
 8006af6:	f7fc fb8f 	bl	8003218 <HAL_GetTick>
 8006afa:	4602      	mov	r2, r0
 8006afc:	697b      	ldr	r3, [r7, #20]
 8006afe:	1ad3      	subs	r3, r2, r3
 8006b00:	2b02      	cmp	r3, #2
 8006b02:	d901      	bls.n	8006b08 <HAL_RCCEx_PeriphCLKConfig+0x114>
      {
        /* return in case of Timeout detected */
        return HAL_TIMEOUT;
 8006b04:	2303      	movs	r3, #3
 8006b06:	e129      	b.n	8006d5c <HAL_RCCEx_PeriphCLKConfig+0x368>
    while(__HAL_RCC_GET_FLAG(RCC_FLAG_PLLI2SRDY)  == RESET)
 8006b08:	4b5a      	ldr	r3, [pc, #360]	@ (8006c74 <HAL_RCCEx_PeriphCLKConfig+0x280>)
 8006b0a:	681b      	ldr	r3, [r3, #0]
 8006b0c:	f003 6300 	and.w	r3, r3, #134217728	@ 0x8000000
 8006b10:	2b00      	cmp	r3, #0
 8006b12:	d0f0      	beq.n	8006af6 <HAL_RCCEx_PeriphCLKConfig+0x102>

  /*----------------------- SAI/LTDC Configuration (PLLSAI) ------------------*/
  /*----------------------- Common configuration SAI/LTDC --------------------*/
  /* In Case of SAI or LTDC Clock Configuration through PLLSAI, PLLSAIN division
     factor is common parameters for both peripherals */
  if((((PeriphClkInit->PeriphClockSelection) & RCC_PERIPHCLK_SAI_PLLSAI) == RCC_PERIPHCLK_SAI_PLLSAI) ||
 8006b14:	687b      	ldr	r3, [r7, #4]
 8006b16:	681b      	ldr	r3, [r3, #0]
 8006b18:	f003 0304 	and.w	r3, r3, #4
 8006b1c:	2b00      	cmp	r3, #0
 8006b1e:	d105      	bne.n	8006b2c <HAL_RCCEx_PeriphCLKConfig+0x138>
     (((PeriphClkInit->PeriphClockSelection) & RCC_PERIPHCLK_LTDC) == RCC_PERIPHCLK_LTDC))
 8006b20:	687b      	ldr	r3, [r7, #4]
 8006b22:	681b      	ldr	r3, [r3, #0]
 8006b24:	f003 0308 	and.w	r3, r3, #8
  if((((PeriphClkInit->PeriphClockSelection) & RCC_PERIPHCLK_SAI_PLLSAI) == RCC_PERIPHCLK_SAI_PLLSAI) ||
 8006b28:	2b00      	cmp	r3, #0
 8006b2a:	d079      	beq.n	8006c20 <HAL_RCCEx_PeriphCLKConfig+0x22c>
  {
    /* Check the PLLSAI division factors */
    assert_param(IS_RCC_PLLSAIN_VALUE(PeriphClkInit->PLLSAI.PLLSAIN));

    /* Disable PLLSAI Clock */
    __HAL_RCC_PLLSAI_DISABLE();
 8006b2c:	4b52      	ldr	r3, [pc, #328]	@ (8006c78 <HAL_RCCEx_PeriphCLKConfig+0x284>)
 8006b2e:	2200      	movs	r2, #0
 8006b30:	601a      	str	r2, [r3, #0]
    /* Get tick */
    tickstart = HAL_GetTick();
 8006b32:	f7fc fb71 	bl	8003218 <HAL_GetTick>
 8006b36:	6178      	str	r0, [r7, #20]
    /* Wait till PLLSAI is disabled */
    while(__HAL_RCC_PLLSAI_GET_FLAG() != RESET)
 8006b38:	e008      	b.n	8006b4c <HAL_RCCEx_PeriphCLKConfig+0x158>
    {
      if((HAL_GetTick() - tickstart ) > PLLSAI_TIMEOUT_VALUE)
 8006b3a:	f7fc fb6d 	bl	8003218 <HAL_GetTick>
 8006b3e:	4602      	mov	r2, r0
 8006b40:	697b      	ldr	r3, [r7, #20]
 8006b42:	1ad3      	subs	r3, r2, r3
 8006b44:	2b02      	cmp	r3, #2
 8006b46:	d901      	bls.n	8006b4c <HAL_RCCEx_PeriphCLKConfig+0x158>
      {
        /* return in case of Timeout detected */
        return HAL_TIMEOUT;
 8006b48:	2303      	movs	r3, #3
 8006b4a:	e107      	b.n	8006d5c <HAL_RCCEx_PeriphCLKConfig+0x368>
    while(__HAL_RCC_PLLSAI_GET_FLAG() != RESET)
 8006b4c:	4b49      	ldr	r3, [pc, #292]	@ (8006c74 <HAL_RCCEx_PeriphCLKConfig+0x280>)
 8006b4e:	681b      	ldr	r3, [r3, #0]
 8006b50:	f003 5300 	and.w	r3, r3, #536870912	@ 0x20000000
 8006b54:	f1b3 5f00 	cmp.w	r3, #536870912	@ 0x20000000
 8006b58:	d0ef      	beq.n	8006b3a <HAL_RCCEx_PeriphCLKConfig+0x146>
    }

    /*---------------------------- SAI configuration -------------------------*/
    /* In Case of SAI Clock Configuration through PLLSAI, PLLSAIQ and PLLSAI_DIVQ must
       be added only for SAI configuration */
    if(((PeriphClkInit->PeriphClockSelection) & RCC_PERIPHCLK_SAI_PLLSAI) == (RCC_PERIPHCLK_SAI_PLLSAI))
 8006b5a:	687b      	ldr	r3, [r7, #4]
 8006b5c:	681b      	ldr	r3, [r3, #0]
 8006b5e:	f003 0304 	and.w	r3, r3, #4
 8006b62:	2b00      	cmp	r3, #0
 8006b64:	d020      	beq.n	8006ba8 <HAL_RCCEx_PeriphCLKConfig+0x1b4>
    {
      assert_param(IS_RCC_PLLSAIQ_VALUE(PeriphClkInit->PLLSAI.PLLSAIQ));
      assert_param(IS_RCC_PLLSAI_DIVQ_VALUE(PeriphClkInit->PLLSAIDivQ));

      /* Read PLLSAIR value from PLLSAICFGR register (this value is not need for SAI configuration) */
      tmpreg1 = ((RCC->PLLSAICFGR & RCC_PLLSAICFGR_PLLSAIR) >> RCC_PLLSAICFGR_PLLSAIR_Pos);
 8006b66:	4b43      	ldr	r3, [pc, #268]	@ (8006c74 <HAL_RCCEx_PeriphCLKConfig+0x280>)
 8006b68:	f8d3 3088 	ldr.w	r3, [r3, #136]	@ 0x88
 8006b6c:	0f1b      	lsrs	r3, r3, #28
 8006b6e:	f003 0307 	and.w	r3, r3, #7
 8006b72:	613b      	str	r3, [r7, #16]
      /* PLLSAI_VCO Input  = PLL_SOURCE/PLLM */
      /* PLLSAI_VCO Output = PLLSAI_VCO Input * PLLSAIN */
      /* SAI_CLK(first level) = PLLSAI_VCO Output/PLLSAIQ */
      __HAL_RCC_PLLSAI_CONFIG(PeriphClkInit->PLLSAI.PLLSAIN , PeriphClkInit->PLLSAI.PLLSAIQ, tmpreg1);
 8006b74:	687b      	ldr	r3, [r7, #4]
 8006b76:	691b      	ldr	r3, [r3, #16]
 8006b78:	019a      	lsls	r2, r3, #6
 8006b7a:	687b      	ldr	r3, [r7, #4]
 8006b7c:	695b      	ldr	r3, [r3, #20]
 8006b7e:	061b      	lsls	r3, r3, #24
 8006b80:	431a      	orrs	r2, r3
 8006b82:	693b      	ldr	r3, [r7, #16]
 8006b84:	071b      	lsls	r3, r3, #28
 8006b86:	493b      	ldr	r1, [pc, #236]	@ (8006c74 <HAL_RCCEx_PeriphCLKConfig+0x280>)
 8006b88:	4313      	orrs	r3, r2
 8006b8a:	f8c1 3088 	str.w	r3, [r1, #136]	@ 0x88
      /* SAI_CLK_x = SAI_CLK(first level)/PLLSAIDIVQ */
      __HAL_RCC_PLLSAI_PLLSAICLKDIVQ_CONFIG(PeriphClkInit->PLLSAIDivQ);
 8006b8e:	4b39      	ldr	r3, [pc, #228]	@ (8006c74 <HAL_RCCEx_PeriphCLKConfig+0x280>)
 8006b90:	f8d3 308c 	ldr.w	r3, [r3, #140]	@ 0x8c
 8006b94:	f423 52f8 	bic.w	r2, r3, #7936	@ 0x1f00
 8006b98:	687b      	ldr	r3, [r7, #4]
 8006b9a:	6a1b      	ldr	r3, [r3, #32]
 8006b9c:	3b01      	subs	r3, #1
 8006b9e:	021b      	lsls	r3, r3, #8
 8006ba0:	4934      	ldr	r1, [pc, #208]	@ (8006c74 <HAL_RCCEx_PeriphCLKConfig+0x280>)
 8006ba2:	4313      	orrs	r3, r2
 8006ba4:	f8c1 308c 	str.w	r3, [r1, #140]	@ 0x8c
    }

    /*---------------------------- LTDC configuration ------------------------*/
    if(((PeriphClkInit->PeriphClockSelection) & RCC_PERIPHCLK_LTDC) == (RCC_PERIPHCLK_LTDC))
 8006ba8:	687b      	ldr	r3, [r7, #4]
 8006baa:	681b      	ldr	r3, [r3, #0]
 8006bac:	f003 0308 	and.w	r3, r3, #8
 8006bb0:	2b00      	cmp	r3, #0
 8006bb2:	d01e      	beq.n	8006bf2 <HAL_RCCEx_PeriphCLKConfig+0x1fe>
    {
      assert_param(IS_RCC_PLLSAIR_VALUE(PeriphClkInit->PLLSAI.PLLSAIR));
      assert_param(IS_RCC_PLLSAI_DIVR_VALUE(PeriphClkInit->PLLSAIDivR));

      /* Read PLLSAIR value from PLLSAICFGR register (this value is not need for SAI configuration) */
      tmpreg1 = ((RCC->PLLSAICFGR & RCC_PLLSAICFGR_PLLSAIQ) >> RCC_PLLSAICFGR_PLLSAIQ_Pos);
 8006bb4:	4b2f      	ldr	r3, [pc, #188]	@ (8006c74 <HAL_RCCEx_PeriphCLKConfig+0x280>)
 8006bb6:	f8d3 3088 	ldr.w	r3, [r3, #136]	@ 0x88
 8006bba:	0e1b      	lsrs	r3, r3, #24
 8006bbc:	f003 030f 	and.w	r3, r3, #15
 8006bc0:	613b      	str	r3, [r7, #16]
      /* PLLSAI_VCO Input  = PLL_SOURCE/PLLM */
      /* PLLSAI_VCO Output = PLLSAI_VCO Input * PLLSAIN */
      /* LTDC_CLK(first level) = PLLSAI_VCO Output/PLLSAIR */
      __HAL_RCC_PLLSAI_CONFIG(PeriphClkInit->PLLSAI.PLLSAIN , tmpreg1, PeriphClkInit->PLLSAI.PLLSAIR);
 8006bc2:	687b      	ldr	r3, [r7, #4]
 8006bc4:	691b      	ldr	r3, [r3, #16]
 8006bc6:	019a      	lsls	r2, r3, #6
 8006bc8:	693b      	ldr	r3, [r7, #16]
 8006bca:	061b      	lsls	r3, r3, #24
 8006bcc:	431a      	orrs	r2, r3
 8006bce:	687b      	ldr	r3, [r7, #4]
 8006bd0:	699b      	ldr	r3, [r3, #24]
 8006bd2:	071b      	lsls	r3, r3, #28
 8006bd4:	4927      	ldr	r1, [pc, #156]	@ (8006c74 <HAL_RCCEx_PeriphCLKConfig+0x280>)
 8006bd6:	4313      	orrs	r3, r2
 8006bd8:	f8c1 3088 	str.w	r3, [r1, #136]	@ 0x88
      /* LTDC_CLK = LTDC_CLK(first level)/PLLSAIDIVR */
      __HAL_RCC_PLLSAI_PLLSAICLKDIVR_CONFIG(PeriphClkInit->PLLSAIDivR);
 8006bdc:	4b25      	ldr	r3, [pc, #148]	@ (8006c74 <HAL_RCCEx_PeriphCLKConfig+0x280>)
 8006bde:	f8d3 308c 	ldr.w	r3, [r3, #140]	@ 0x8c
 8006be2:	f423 3240 	bic.w	r2, r3, #196608	@ 0x30000
 8006be6:	687b      	ldr	r3, [r7, #4]
 8006be8:	6a5b      	ldr	r3, [r3, #36]	@ 0x24
 8006bea:	4922      	ldr	r1, [pc, #136]	@ (8006c74 <HAL_RCCEx_PeriphCLKConfig+0x280>)
 8006bec:	4313      	orrs	r3, r2
 8006bee:	f8c1 308c 	str.w	r3, [r1, #140]	@ 0x8c
    }
    /* Enable PLLSAI Clock */
    __HAL_RCC_PLLSAI_ENABLE();
 8006bf2:	4b21      	ldr	r3, [pc, #132]	@ (8006c78 <HAL_RCCEx_PeriphCLKConfig+0x284>)
 8006bf4:	2201      	movs	r2, #1
 8006bf6:	601a      	str	r2, [r3, #0]
    /* Get tick */
    tickstart = HAL_GetTick();
 8006bf8:	f7fc fb0e 	bl	8003218 <HAL_GetTick>
 8006bfc:	6178      	str	r0, [r7, #20]
    /* Wait till PLLSAI is ready */
    while(__HAL_RCC_PLLSAI_GET_FLAG() == RESET)
 8006bfe:	e008      	b.n	8006c12 <HAL_RCCEx_PeriphCLKConfig+0x21e>
    {
      if((HAL_GetTick() - tickstart ) > PLLSAI_TIMEOUT_VALUE)
 8006c00:	f7fc fb0a 	bl	8003218 <HAL_GetTick>
 8006c04:	4602      	mov	r2, r0
 8006c06:	697b      	ldr	r3, [r7, #20]
 8006c08:	1ad3      	subs	r3, r2, r3
 8006c0a:	2b02      	cmp	r3, #2
 8006c0c:	d901      	bls.n	8006c12 <HAL_RCCEx_PeriphCLKConfig+0x21e>
      {
        /* return in case of Timeout detected */
        return HAL_TIMEOUT;
 8006c0e:	2303      	movs	r3, #3
 8006c10:	e0a4      	b.n	8006d5c <HAL_RCCEx_PeriphCLKConfig+0x368>
    while(__HAL_RCC_PLLSAI_GET_FLAG() == RESET)
 8006c12:	4b18      	ldr	r3, [pc, #96]	@ (8006c74 <HAL_RCCEx_PeriphCLKConfig+0x280>)
 8006c14:	681b      	ldr	r3, [r3, #0]
 8006c16:	f003 5300 	and.w	r3, r3, #536870912	@ 0x20000000
 8006c1a:	f1b3 5f00 	cmp.w	r3, #536870912	@ 0x20000000
 8006c1e:	d1ef      	bne.n	8006c00 <HAL_RCCEx_PeriphCLKConfig+0x20c>
    }
  }
  /*--------------------------------------------------------------------------*/

  /*---------------------------- RTC configuration ---------------------------*/
  if(((PeriphClkInit->PeriphClockSelection) & RCC_PERIPHCLK_RTC) == (RCC_PERIPHCLK_RTC))
 8006c20:	687b      	ldr	r3, [r7, #4]
 8006c22:	681b      	ldr	r3, [r3, #0]
 8006c24:	f003 0320 	and.w	r3, r3, #32
 8006c28:	2b00      	cmp	r3, #0
 8006c2a:	f000 808b 	beq.w	8006d44 <HAL_RCCEx_PeriphCLKConfig+0x350>
  {
    /* Check for RTC Parameters used to output RTCCLK */
    assert_param(IS_RCC_RTCCLKSOURCE(PeriphClkInit->RTCClockSelection));

    /* Enable Power Clock*/
    __HAL_RCC_PWR_CLK_ENABLE();
 8006c2e:	2300      	movs	r3, #0
 8006c30:	60fb      	str	r3, [r7, #12]
 8006c32:	4b10      	ldr	r3, [pc, #64]	@ (8006c74 <HAL_RCCEx_PeriphCLKConfig+0x280>)
 8006c34:	6c1b      	ldr	r3, [r3, #64]	@ 0x40
 8006c36:	4a0f      	ldr	r2, [pc, #60]	@ (8006c74 <HAL_RCCEx_PeriphCLKConfig+0x280>)
 8006c38:	f043 5380 	orr.w	r3, r3, #268435456	@ 0x10000000
 8006c3c:	6413      	str	r3, [r2, #64]	@ 0x40
 8006c3e:	4b0d      	ldr	r3, [pc, #52]	@ (8006c74 <HAL_RCCEx_PeriphCLKConfig+0x280>)
 8006c40:	6c1b      	ldr	r3, [r3, #64]	@ 0x40
 8006c42:	f003 5380 	and.w	r3, r3, #268435456	@ 0x10000000
 8006c46:	60fb      	str	r3, [r7, #12]
 8006c48:	68fb      	ldr	r3, [r7, #12]

    /* Enable write access to Backup domain */
    PWR->CR |= PWR_CR_DBP;
 8006c4a:	4b0c      	ldr	r3, [pc, #48]	@ (8006c7c <HAL_RCCEx_PeriphCLKConfig+0x288>)
 8006c4c:	681b      	ldr	r3, [r3, #0]
 8006c4e:	4a0b      	ldr	r2, [pc, #44]	@ (8006c7c <HAL_RCCEx_PeriphCLKConfig+0x288>)
 8006c50:	f443 7380 	orr.w	r3, r3, #256	@ 0x100
 8006c54:	6013      	str	r3, [r2, #0]

    /* Get tick */
    tickstart = HAL_GetTick();
 8006c56:	f7fc fadf 	bl	8003218 <HAL_GetTick>
 8006c5a:	6178      	str	r0, [r7, #20]

    while((PWR->CR & PWR_CR_DBP) == RESET)
 8006c5c:	e010      	b.n	8006c80 <HAL_RCCEx_PeriphCLKConfig+0x28c>
    {
      if((HAL_GetTick() - tickstart ) > RCC_DBP_TIMEOUT_VALUE)
 8006c5e:	f7fc fadb 	bl	8003218 <HAL_GetTick>
 8006c62:	4602      	mov	r2, r0
 8006c64:	697b      	ldr	r3, [r7, #20]
 8006c66:	1ad3      	subs	r3, r2, r3
 8006c68:	2b02      	cmp	r3, #2
 8006c6a:	d909      	bls.n	8006c80 <HAL_RCCEx_PeriphCLKConfig+0x28c>
      {
        return HAL_TIMEOUT;
 8006c6c:	2303      	movs	r3, #3
 8006c6e:	e075      	b.n	8006d5c <HAL_RCCEx_PeriphCLKConfig+0x368>
 8006c70:	42470068 	.word	0x42470068
 8006c74:	40023800 	.word	0x40023800
 8006c78:	42470070 	.word	0x42470070
 8006c7c:	40007000 	.word	0x40007000
    while((PWR->CR & PWR_CR_DBP) == RESET)
 8006c80:	4b38      	ldr	r3, [pc, #224]	@ (8006d64 <HAL_RCCEx_PeriphCLKConfig+0x370>)
 8006c82:	681b      	ldr	r3, [r3, #0]
 8006c84:	f403 7380 	and.w	r3, r3, #256	@ 0x100
 8006c88:	2b00      	cmp	r3, #0
 8006c8a:	d0e8      	beq.n	8006c5e <HAL_RCCEx_PeriphCLKConfig+0x26a>
      }
    }
    /* Reset the Backup domain only if the RTC Clock source selection is modified from reset value */
    tmpreg1 = (RCC->BDCR & RCC_BDCR_RTCSEL);
 8006c8c:	4b36      	ldr	r3, [pc, #216]	@ (8006d68 <HAL_RCCEx_PeriphCLKConfig+0x374>)
 8006c8e:	6f1b      	ldr	r3, [r3, #112]	@ 0x70
 8006c90:	f403 7340 	and.w	r3, r3, #768	@ 0x300
 8006c94:	613b      	str	r3, [r7, #16]
    if((tmpreg1 != 0x00000000U) && ((tmpreg1) != (PeriphClkInit->RTCClockSelection & RCC_BDCR_RTCSEL)))
 8006c96:	693b      	ldr	r3, [r7, #16]
 8006c98:	2b00      	cmp	r3, #0
 8006c9a:	d02f      	beq.n	8006cfc <HAL_RCCEx_PeriphCLKConfig+0x308>
 8006c9c:	687b      	ldr	r3, [r7, #4]
 8006c9e:	6a9b      	ldr	r3, [r3, #40]	@ 0x28
 8006ca0:	f403 7340 	and.w	r3, r3, #768	@ 0x300
 8006ca4:	693a      	ldr	r2, [r7, #16]
 8006ca6:	429a      	cmp	r2, r3
 8006ca8:	d028      	beq.n	8006cfc <HAL_RCCEx_PeriphCLKConfig+0x308>
    {
      /* Store the content of BDCR register before the reset of Backup Domain */
      tmpreg1 = (RCC->BDCR & ~(RCC_BDCR_RTCSEL));
 8006caa:	4b2f      	ldr	r3, [pc, #188]	@ (8006d68 <HAL_RCCEx_PeriphCLKConfig+0x374>)
 8006cac:	6f1b      	ldr	r3, [r3, #112]	@ 0x70
 8006cae:	f423 7340 	bic.w	r3, r3, #768	@ 0x300
 8006cb2:	613b      	str	r3, [r7, #16]
      /* RTC Clock selection can be changed only if the Backup Domain is reset */
      __HAL_RCC_BACKUPRESET_FORCE();
 8006cb4:	4b2d      	ldr	r3, [pc, #180]	@ (8006d6c <HAL_RCCEx_PeriphCLKConfig+0x378>)
 8006cb6:	2201      	movs	r2, #1
 8006cb8:	601a      	str	r2, [r3, #0]
      __HAL_RCC_BACKUPRESET_RELEASE();
 8006cba:	4b2c      	ldr	r3, [pc, #176]	@ (8006d6c <HAL_RCCEx_PeriphCLKConfig+0x378>)
 8006cbc:	2200      	movs	r2, #0
 8006cbe:	601a      	str	r2, [r3, #0]
      /* Restore the Content of BDCR register */
      RCC->BDCR = tmpreg1;
 8006cc0:	4a29      	ldr	r2, [pc, #164]	@ (8006d68 <HAL_RCCEx_PeriphCLKConfig+0x374>)
 8006cc2:	693b      	ldr	r3, [r7, #16]
 8006cc4:	6713      	str	r3, [r2, #112]	@ 0x70

      /* Wait for LSE reactivation if LSE was enable prior to Backup Domain reset */
      if(HAL_IS_BIT_SET(RCC->BDCR, RCC_BDCR_LSEON))
 8006cc6:	4b28      	ldr	r3, [pc, #160]	@ (8006d68 <HAL_RCCEx_PeriphCLKConfig+0x374>)
 8006cc8:	6f1b      	ldr	r3, [r3, #112]	@ 0x70
 8006cca:	f003 0301 	and.w	r3, r3, #1
 8006cce:	2b01      	cmp	r3, #1
 8006cd0:	d114      	bne.n	8006cfc <HAL_RCCEx_PeriphCLKConfig+0x308>
      {
        /* Get tick */
        tickstart = HAL_GetTick();
 8006cd2:	f7fc faa1 	bl	8003218 <HAL_GetTick>
 8006cd6:	6178      	str	r0, [r7, #20]

        /* Wait till LSE is ready */
        while(__HAL_RCC_GET_FLAG(RCC_FLAG_LSERDY) == RESET)
 8006cd8:	e00a      	b.n	8006cf0 <HAL_RCCEx_PeriphCLKConfig+0x2fc>
        {
          if((HAL_GetTick() - tickstart ) > RCC_LSE_TIMEOUT_VALUE)
 8006cda:	f7fc fa9d 	bl	8003218 <HAL_GetTick>
 8006cde:	4602      	mov	r2, r0
 8006ce0:	697b      	ldr	r3, [r7, #20]
 8006ce2:	1ad3      	subs	r3, r2, r3
 8006ce4:	f241 3288 	movw	r2, #5000	@ 0x1388
 8006ce8:	4293      	cmp	r3, r2
 8006cea:	d901      	bls.n	8006cf0 <HAL_RCCEx_PeriphCLKConfig+0x2fc>
          {
            return HAL_TIMEOUT;
 8006cec:	2303      	movs	r3, #3
 8006cee:	e035      	b.n	8006d5c <HAL_RCCEx_PeriphCLKConfig+0x368>
        while(__HAL_RCC_GET_FLAG(RCC_FLAG_LSERDY) == RESET)
 8006cf0:	4b1d      	ldr	r3, [pc, #116]	@ (8006d68 <HAL_RCCEx_PeriphCLKConfig+0x374>)
 8006cf2:	6f1b      	ldr	r3, [r3, #112]	@ 0x70
 8006cf4:	f003 0302 	and.w	r3, r3, #2
 8006cf8:	2b00      	cmp	r3, #0
 8006cfa:	d0ee      	beq.n	8006cda <HAL_RCCEx_PeriphCLKConfig+0x2e6>
          }
        }
      }
    }
    __HAL_RCC_RTC_CONFIG(PeriphClkInit->RTCClockSelection);
 8006cfc:	687b      	ldr	r3, [r7, #4]
 8006cfe:	6a9b      	ldr	r3, [r3, #40]	@ 0x28
 8006d00:	f403 7340 	and.w	r3, r3, #768	@ 0x300
 8006d04:	f5b3 7f40 	cmp.w	r3, #768	@ 0x300
 8006d08:	d10d      	bne.n	8006d26 <HAL_RCCEx_PeriphCLKConfig+0x332>
 8006d0a:	4b17      	ldr	r3, [pc, #92]	@ (8006d68 <HAL_RCCEx_PeriphCLKConfig+0x374>)
 8006d0c:	689b      	ldr	r3, [r3, #8]
 8006d0e:	f423 12f8 	bic.w	r2, r3, #2031616	@ 0x1f0000
 8006d12:	687b      	ldr	r3, [r7, #4]
 8006d14:	6a9b      	ldr	r3, [r3, #40]	@ 0x28
 8006d16:	f023 4370 	bic.w	r3, r3, #4026531840	@ 0xf0000000
 8006d1a:	f423 7340 	bic.w	r3, r3, #768	@ 0x300
 8006d1e:	4912      	ldr	r1, [pc, #72]	@ (8006d68 <HAL_RCCEx_PeriphCLKConfig+0x374>)
 8006d20:	4313      	orrs	r3, r2
 8006d22:	608b      	str	r3, [r1, #8]
 8006d24:	e005      	b.n	8006d32 <HAL_RCCEx_PeriphCLKConfig+0x33e>
 8006d26:	4b10      	ldr	r3, [pc, #64]	@ (8006d68 <HAL_RCCEx_PeriphCLKConfig+0x374>)
 8006d28:	689b      	ldr	r3, [r3, #8]
 8006d2a:	4a0f      	ldr	r2, [pc, #60]	@ (8006d68 <HAL_RCCEx_PeriphCLKConfig+0x374>)
 8006d2c:	f423 13f8 	bic.w	r3, r3, #2031616	@ 0x1f0000
 8006d30:	6093      	str	r3, [r2, #8]
 8006d32:	4b0d      	ldr	r3, [pc, #52]	@ (8006d68 <HAL_RCCEx_PeriphCLKConfig+0x374>)
 8006d34:	6f1a      	ldr	r2, [r3, #112]	@ 0x70
 8006d36:	687b      	ldr	r3, [r7, #4]
 8006d38:	6a9b      	ldr	r3, [r3, #40]	@ 0x28
 8006d3a:	f3c3 030b 	ubfx	r3, r3, #0, #12
 8006d3e:	490a      	ldr	r1, [pc, #40]	@ (8006d68 <HAL_RCCEx_PeriphCLKConfig+0x374>)
 8006d40:	4313      	orrs	r3, r2
 8006d42:	670b      	str	r3, [r1, #112]	@ 0x70
  }
  /*--------------------------------------------------------------------------*/

  /*---------------------------- TIM configuration ---------------------------*/
  if(((PeriphClkInit->PeriphClockSelection) & RCC_PERIPHCLK_TIM) == (RCC_PERIPHCLK_TIM))
 8006d44:	687b      	ldr	r3, [r7, #4]
 8006d46:	681b      	ldr	r3, [r3, #0]
 8006d48:	f003 0310 	and.w	r3, r3, #16
 8006d4c:	2b00      	cmp	r3, #0
 8006d4e:	d004      	beq.n	8006d5a <HAL_RCCEx_PeriphCLKConfig+0x366>
  {
    __HAL_RCC_TIMCLKPRESCALER(PeriphClkInit->TIMPresSelection);
 8006d50:	687b      	ldr	r3, [r7, #4]
 8006d52:	f893 202c 	ldrb.w	r2, [r3, #44]	@ 0x2c
 8006d56:	4b06      	ldr	r3, [pc, #24]	@ (8006d70 <HAL_RCCEx_PeriphCLKConfig+0x37c>)
 8006d58:	601a      	str	r2, [r3, #0]
  }
  return HAL_OK;
 8006d5a:	2300      	movs	r3, #0
}
 8006d5c:	4618      	mov	r0, r3
 8006d5e:	3718      	adds	r7, #24
 8006d60:	46bd      	mov	sp, r7
 8006d62:	bd80      	pop	{r7, pc}
 8006d64:	40007000 	.word	0x40007000
 8006d68:	40023800 	.word	0x40023800
 8006d6c:	42470e40 	.word	0x42470e40
 8006d70:	424711e0 	.word	0x424711e0

08006d74 <HAL_RTC_Init>:
  * @param  hrtc pointer to a RTC_HandleTypeDef structure that contains
  *                the configuration information for RTC.
  * @retval HAL status
  */
HAL_StatusTypeDef HAL_RTC_Init(RTC_HandleTypeDef *hrtc)
{
 8006d74:	b580      	push	{r7, lr}
 8006d76:	b084      	sub	sp, #16
 8006d78:	af00      	add	r7, sp, #0
 8006d7a:	6078      	str	r0, [r7, #4]
  HAL_StatusTypeDef status = HAL_ERROR;
 8006d7c:	2301      	movs	r3, #1
 8006d7e:	73fb      	strb	r3, [r7, #15]

  /* Check RTC handler validity */
  if (hrtc == NULL)
 8006d80:	687b      	ldr	r3, [r7, #4]
 8006d82:	2b00      	cmp	r3, #0
 8006d84:	d101      	bne.n	8006d8a <HAL_RTC_Init+0x16>
  {
    return HAL_ERROR;
 8006d86:	2301      	movs	r3, #1
 8006d88:	e073      	b.n	8006e72 <HAL_RTC_Init+0xfe>
    {
      hrtc->MspDeInitCallback = HAL_RTC_MspDeInit;
    }
  }
#else /* USE_HAL_RTC_REGISTER_CALLBACKS */
  if (hrtc->State == HAL_RTC_STATE_RESET)
 8006d8a:	687b      	ldr	r3, [r7, #4]
 8006d8c:	7f5b      	ldrb	r3, [r3, #29]
 8006d8e:	b2db      	uxtb	r3, r3
 8006d90:	2b00      	cmp	r3, #0
 8006d92:	d105      	bne.n	8006da0 <HAL_RTC_Init+0x2c>
  {
    /* Allocate lock resource and initialize it */
    hrtc->Lock = HAL_UNLOCKED;
 8006d94:	687b      	ldr	r3, [r7, #4]
 8006d96:	2200      	movs	r2, #0
 8006d98:	771a      	strb	r2, [r3, #28]

    /* Initialize RTC MSP */
    HAL_RTC_MspInit(hrtc);
 8006d9a:	6878      	ldr	r0, [r7, #4]
 8006d9c:	f7fb fe92 	bl	8002ac4 <HAL_RTC_MspInit>
  }
#endif /* USE_HAL_RTC_REGISTER_CALLBACKS */

  /* Set RTC state */
  hrtc->State = HAL_RTC_STATE_BUSY;
 8006da0:	687b      	ldr	r3, [r7, #4]
 8006da2:	2202      	movs	r2, #2
 8006da4:	775a      	strb	r2, [r3, #29]

  /* Check whether the calendar needs to be initialized */
  if (__HAL_RTC_IS_CALENDAR_INITIALIZED(hrtc) == 0U)
 8006da6:	687b      	ldr	r3, [r7, #4]
 8006da8:	681b      	ldr	r3, [r3, #0]
 8006daa:	68db      	ldr	r3, [r3, #12]
 8006dac:	f003 0310 	and.w	r3, r3, #16
 8006db0:	2b10      	cmp	r3, #16
 8006db2:	d055      	beq.n	8006e60 <HAL_RTC_Init+0xec>
  {
    /* Disable the write protection for RTC registers */
    __HAL_RTC_WRITEPROTECTION_DISABLE(hrtc);
 8006db4:	687b      	ldr	r3, [r7, #4]
 8006db6:	681b      	ldr	r3, [r3, #0]
 8006db8:	22ca      	movs	r2, #202	@ 0xca
 8006dba:	625a      	str	r2, [r3, #36]	@ 0x24
 8006dbc:	687b      	ldr	r3, [r7, #4]
 8006dbe:	681b      	ldr	r3, [r3, #0]
 8006dc0:	2253      	movs	r2, #83	@ 0x53
 8006dc2:	625a      	str	r2, [r3, #36]	@ 0x24

    /* Enter Initialization mode */
    status = RTC_EnterInitMode(hrtc);
 8006dc4:	6878      	ldr	r0, [r7, #4]
 8006dc6:	f000 fa49 	bl	800725c <RTC_EnterInitMode>
 8006dca:	4603      	mov	r3, r0
 8006dcc:	73fb      	strb	r3, [r7, #15]

    if (status == HAL_OK)
 8006dce:	7bfb      	ldrb	r3, [r7, #15]
 8006dd0:	2b00      	cmp	r3, #0
 8006dd2:	d12c      	bne.n	8006e2e <HAL_RTC_Init+0xba>
    {
      /* Clear RTC_CR FMT, OSEL and POL Bits */
      hrtc->Instance->CR &= ((uint32_t)~(RTC_CR_FMT | RTC_CR_OSEL | RTC_CR_POL));
 8006dd4:	687b      	ldr	r3, [r7, #4]
 8006dd6:	681b      	ldr	r3, [r3, #0]
 8006dd8:	689b      	ldr	r3, [r3, #8]
 8006dda:	687a      	ldr	r2, [r7, #4]
 8006ddc:	6812      	ldr	r2, [r2, #0]
 8006dde:	f423 03e0 	bic.w	r3, r3, #7340032	@ 0x700000
 8006de2:	f023 0340 	bic.w	r3, r3, #64	@ 0x40
 8006de6:	6093      	str	r3, [r2, #8]
      /* Set RTC_CR register */
      hrtc->Instance->CR |= (uint32_t)(hrtc->Init.HourFormat | hrtc->Init.OutPut | hrtc->Init.OutPutPolarity);
 8006de8:	687b      	ldr	r3, [r7, #4]
 8006dea:	681b      	ldr	r3, [r3, #0]
 8006dec:	6899      	ldr	r1, [r3, #8]
 8006dee:	687b      	ldr	r3, [r7, #4]
 8006df0:	685a      	ldr	r2, [r3, #4]
 8006df2:	687b      	ldr	r3, [r7, #4]
 8006df4:	691b      	ldr	r3, [r3, #16]
 8006df6:	431a      	orrs	r2, r3
 8006df8:	687b      	ldr	r3, [r7, #4]
 8006dfa:	695b      	ldr	r3, [r3, #20]
 8006dfc:	431a      	orrs	r2, r3
 8006dfe:	687b      	ldr	r3, [r7, #4]
 8006e00:	681b      	ldr	r3, [r3, #0]
 8006e02:	430a      	orrs	r2, r1
 8006e04:	609a      	str	r2, [r3, #8]

      /* Configure the RTC PRER */
      hrtc->Instance->PRER = (uint32_t)(hrtc->Init.SynchPrediv);
 8006e06:	687b      	ldr	r3, [r7, #4]
 8006e08:	681b      	ldr	r3, [r3, #0]
 8006e0a:	687a      	ldr	r2, [r7, #4]
 8006e0c:	68d2      	ldr	r2, [r2, #12]
 8006e0e:	611a      	str	r2, [r3, #16]
      hrtc->Instance->PRER |= (uint32_t)(hrtc->Init.AsynchPrediv << RTC_PRER_PREDIV_A_Pos);
 8006e10:	687b      	ldr	r3, [r7, #4]
 8006e12:	681b      	ldr	r3, [r3, #0]
 8006e14:	6919      	ldr	r1, [r3, #16]
 8006e16:	687b      	ldr	r3, [r7, #4]
 8006e18:	689b      	ldr	r3, [r3, #8]
 8006e1a:	041a      	lsls	r2, r3, #16
 8006e1c:	687b      	ldr	r3, [r7, #4]
 8006e1e:	681b      	ldr	r3, [r3, #0]
 8006e20:	430a      	orrs	r2, r1
 8006e22:	611a      	str	r2, [r3, #16]

      /* Exit Initialization mode */
      status = RTC_ExitInitMode(hrtc);
 8006e24:	6878      	ldr	r0, [r7, #4]
 8006e26:	f000 fa50 	bl	80072ca <RTC_ExitInitMode>
 8006e2a:	4603      	mov	r3, r0
 8006e2c:	73fb      	strb	r3, [r7, #15]
    }

    if (status == HAL_OK)
 8006e2e:	7bfb      	ldrb	r3, [r7, #15]
 8006e30:	2b00      	cmp	r3, #0
 8006e32:	d110      	bne.n	8006e56 <HAL_RTC_Init+0xe2>
    {
      hrtc->Instance->TAFCR &= (uint32_t)~RTC_OUTPUT_TYPE_PUSHPULL;
 8006e34:	687b      	ldr	r3, [r7, #4]
 8006e36:	681b      	ldr	r3, [r3, #0]
 8006e38:	6c1a      	ldr	r2, [r3, #64]	@ 0x40
 8006e3a:	687b      	ldr	r3, [r7, #4]
 8006e3c:	681b      	ldr	r3, [r3, #0]
 8006e3e:	f422 2280 	bic.w	r2, r2, #262144	@ 0x40000
 8006e42:	641a      	str	r2, [r3, #64]	@ 0x40
      hrtc->Instance->TAFCR |= (uint32_t)(hrtc->Init.OutPutType);
 8006e44:	687b      	ldr	r3, [r7, #4]
 8006e46:	681b      	ldr	r3, [r3, #0]
 8006e48:	6c19      	ldr	r1, [r3, #64]	@ 0x40
 8006e4a:	687b      	ldr	r3, [r7, #4]
 8006e4c:	699a      	ldr	r2, [r3, #24]
 8006e4e:	687b      	ldr	r3, [r7, #4]
 8006e50:	681b      	ldr	r3, [r3, #0]
 8006e52:	430a      	orrs	r2, r1
 8006e54:	641a      	str	r2, [r3, #64]	@ 0x40
    }

    /* Enable the write protection for RTC registers */
    __HAL_RTC_WRITEPROTECTION_ENABLE(hrtc);
 8006e56:	687b      	ldr	r3, [r7, #4]
 8006e58:	681b      	ldr	r3, [r3, #0]
 8006e5a:	22ff      	movs	r2, #255	@ 0xff
 8006e5c:	625a      	str	r2, [r3, #36]	@ 0x24
 8006e5e:	e001      	b.n	8006e64 <HAL_RTC_Init+0xf0>
  }
  else
  {
    /* The calendar is already initialized */
    status = HAL_OK;
 8006e60:	2300      	movs	r3, #0
 8006e62:	73fb      	strb	r3, [r7, #15]
  }

  if (status == HAL_OK)
 8006e64:	7bfb      	ldrb	r3, [r7, #15]
 8006e66:	2b00      	cmp	r3, #0
 8006e68:	d102      	bne.n	8006e70 <HAL_RTC_Init+0xfc>
  {
    hrtc->State = HAL_RTC_STATE_READY;
 8006e6a:	687b      	ldr	r3, [r7, #4]
 8006e6c:	2201      	movs	r2, #1
 8006e6e:	775a      	strb	r2, [r3, #29]
  }

  return status;
 8006e70:	7bfb      	ldrb	r3, [r7, #15]
}
 8006e72:	4618      	mov	r0, r3
 8006e74:	3710      	adds	r7, #16
 8006e76:	46bd      	mov	sp, r7
 8006e78:	bd80      	pop	{r7, pc}

08006e7a <HAL_RTC_SetTime>:
  *            @arg RTC_FORMAT_BIN: Binary data format
  *            @arg RTC_FORMAT_BCD: BCD data format
  * @retval HAL status
  */
HAL_StatusTypeDef HAL_RTC_SetTime(RTC_HandleTypeDef *hrtc, RTC_TimeTypeDef *sTime, uint32_t Format)
{
 8006e7a:	b590      	push	{r4, r7, lr}
 8006e7c:	b087      	sub	sp, #28
 8006e7e:	af00      	add	r7, sp, #0
 8006e80:	60f8      	str	r0, [r7, #12]
 8006e82:	60b9      	str	r1, [r7, #8]
 8006e84:	607a      	str	r2, [r7, #4]
  uint32_t tmpreg = 0U;
 8006e86:	2300      	movs	r3, #0
 8006e88:	617b      	str	r3, [r7, #20]
  assert_param(IS_RTC_FORMAT(Format));
  assert_param(IS_RTC_DAYLIGHT_SAVING(sTime->DayLightSaving));
  assert_param(IS_RTC_STORE_OPERATION(sTime->StoreOperation));

  /* Process Locked */
  __HAL_LOCK(hrtc);
 8006e8a:	68fb      	ldr	r3, [r7, #12]
 8006e8c:	7f1b      	ldrb	r3, [r3, #28]
 8006e8e:	2b01      	cmp	r3, #1
 8006e90:	d101      	bne.n	8006e96 <HAL_RTC_SetTime+0x1c>
 8006e92:	2302      	movs	r3, #2
 8006e94:	e087      	b.n	8006fa6 <HAL_RTC_SetTime+0x12c>
 8006e96:	68fb      	ldr	r3, [r7, #12]
 8006e98:	2201      	movs	r2, #1
 8006e9a:	771a      	strb	r2, [r3, #28]

  hrtc->State = HAL_RTC_STATE_BUSY;
 8006e9c:	68fb      	ldr	r3, [r7, #12]
 8006e9e:	2202      	movs	r2, #2
 8006ea0:	775a      	strb	r2, [r3, #29]

  if (Format == RTC_FORMAT_BIN)
 8006ea2:	687b      	ldr	r3, [r7, #4]
 8006ea4:	2b00      	cmp	r3, #0
 8006ea6:	d126      	bne.n	8006ef6 <HAL_RTC_SetTime+0x7c>
  {
    if ((hrtc->Instance->CR & RTC_CR_FMT) != 0U)
 8006ea8:	68fb      	ldr	r3, [r7, #12]
 8006eaa:	681b      	ldr	r3, [r3, #0]
 8006eac:	689b      	ldr	r3, [r3, #8]
 8006eae:	f003 0340 	and.w	r3, r3, #64	@ 0x40
 8006eb2:	2b00      	cmp	r3, #0
 8006eb4:	d102      	bne.n	8006ebc <HAL_RTC_SetTime+0x42>
      assert_param(IS_RTC_HOUR12(sTime->Hours));
      assert_param(IS_RTC_HOURFORMAT12(sTime->TimeFormat));
    }
    else
    {
      sTime->TimeFormat = 0x00U;
 8006eb6:	68bb      	ldr	r3, [r7, #8]
 8006eb8:	2200      	movs	r2, #0
 8006eba:	70da      	strb	r2, [r3, #3]
      assert_param(IS_RTC_HOUR24(sTime->Hours));
    }
    assert_param(IS_RTC_MINUTES(sTime->Minutes));
    assert_param(IS_RTC_SECONDS(sTime->Seconds));

    tmpreg = (uint32_t)(( (uint32_t)RTC_ByteToBcd2(sTime->Hours)   << RTC_TR_HU_Pos)  | \
 8006ebc:	68bb      	ldr	r3, [r7, #8]
 8006ebe:	781b      	ldrb	r3, [r3, #0]
 8006ec0:	4618      	mov	r0, r3
 8006ec2:	f000 fa27 	bl	8007314 <RTC_ByteToBcd2>
 8006ec6:	4603      	mov	r3, r0
 8006ec8:	041c      	lsls	r4, r3, #16
                        ( (uint32_t)RTC_ByteToBcd2(sTime->Minutes) << RTC_TR_MNU_Pos) | \
 8006eca:	68bb      	ldr	r3, [r7, #8]
 8006ecc:	785b      	ldrb	r3, [r3, #1]
 8006ece:	4618      	mov	r0, r3
 8006ed0:	f000 fa20 	bl	8007314 <RTC_ByteToBcd2>
 8006ed4:	4603      	mov	r3, r0
 8006ed6:	021b      	lsls	r3, r3, #8
    tmpreg = (uint32_t)(( (uint32_t)RTC_ByteToBcd2(sTime->Hours)   << RTC_TR_HU_Pos)  | \
 8006ed8:	431c      	orrs	r4, r3
                        ( (uint32_t)RTC_ByteToBcd2(sTime->Seconds))                   | \
 8006eda:	68bb      	ldr	r3, [r7, #8]
 8006edc:	789b      	ldrb	r3, [r3, #2]
 8006ede:	4618      	mov	r0, r3
 8006ee0:	f000 fa18 	bl	8007314 <RTC_ByteToBcd2>
 8006ee4:	4603      	mov	r3, r0
                        ( (uint32_t)RTC_ByteToBcd2(sTime->Minutes) << RTC_TR_MNU_Pos) | \
 8006ee6:	ea44 0203 	orr.w	r2, r4, r3
                        (((uint32_t)sTime->TimeFormat)             << RTC_TR_PM_Pos));
 8006eea:	68bb      	ldr	r3, [r7, #8]
 8006eec:	78db      	ldrb	r3, [r3, #3]
 8006eee:	059b      	lsls	r3, r3, #22
    tmpreg = (uint32_t)(( (uint32_t)RTC_ByteToBcd2(sTime->Hours)   << RTC_TR_HU_Pos)  | \
 8006ef0:	4313      	orrs	r3, r2
 8006ef2:	617b      	str	r3, [r7, #20]
 8006ef4:	e018      	b.n	8006f28 <HAL_RTC_SetTime+0xae>
  }
  else
  {
    if ((hrtc->Instance->CR & RTC_CR_FMT) != 0U)
 8006ef6:	68fb      	ldr	r3, [r7, #12]
 8006ef8:	681b      	ldr	r3, [r3, #0]
 8006efa:	689b      	ldr	r3, [r3, #8]
 8006efc:	f003 0340 	and.w	r3, r3, #64	@ 0x40
 8006f00:	2b00      	cmp	r3, #0
 8006f02:	d102      	bne.n	8006f0a <HAL_RTC_SetTime+0x90>
      assert_param(IS_RTC_HOUR12(RTC_Bcd2ToByte(sTime->Hours)));
      assert_param(IS_RTC_HOURFORMAT12(sTime->TimeFormat));
    }
    else
    {
      sTime->TimeFormat = 0x00U;
 8006f04:	68bb      	ldr	r3, [r7, #8]
 8006f06:	2200      	movs	r2, #0
 8006f08:	70da      	strb	r2, [r3, #3]
      assert_param(IS_RTC_HOUR24(RTC_Bcd2ToByte(sTime->Hours)));
    }
    assert_param(IS_RTC_MINUTES(RTC_Bcd2ToByte(sTime->Minutes)));
    assert_param(IS_RTC_SECONDS(RTC_Bcd2ToByte(sTime->Seconds)));
    tmpreg = (((uint32_t)(sTime->Hours)      << RTC_TR_HU_Pos)  | \
 8006f0a:	68bb      	ldr	r3, [r7, #8]
 8006f0c:	781b      	ldrb	r3, [r3, #0]
 8006f0e:	041a      	lsls	r2, r3, #16
              ((uint32_t)(sTime->Minutes)    << RTC_TR_MNU_Pos) | \
 8006f10:	68bb      	ldr	r3, [r7, #8]
 8006f12:	785b      	ldrb	r3, [r3, #1]
 8006f14:	021b      	lsls	r3, r3, #8
    tmpreg = (((uint32_t)(sTime->Hours)      << RTC_TR_HU_Pos)  | \
 8006f16:	4313      	orrs	r3, r2
              ((uint32_t) sTime->Seconds)                       | \
 8006f18:	68ba      	ldr	r2, [r7, #8]
 8006f1a:	7892      	ldrb	r2, [r2, #2]
              ((uint32_t)(sTime->Minutes)    << RTC_TR_MNU_Pos) | \
 8006f1c:	431a      	orrs	r2, r3
              ((uint32_t)(sTime->TimeFormat) << RTC_TR_PM_Pos));
 8006f1e:	68bb      	ldr	r3, [r7, #8]
 8006f20:	78db      	ldrb	r3, [r3, #3]
 8006f22:	059b      	lsls	r3, r3, #22
    tmpreg = (((uint32_t)(sTime->Hours)      << RTC_TR_HU_Pos)  | \
 8006f24:	4313      	orrs	r3, r2
 8006f26:	617b      	str	r3, [r7, #20]
  }

  /* Disable the write protection for RTC registers */
  __HAL_RTC_WRITEPROTECTION_DISABLE(hrtc);
 8006f28:	68fb      	ldr	r3, [r7, #12]
 8006f2a:	681b      	ldr	r3, [r3, #0]
 8006f2c:	22ca      	movs	r2, #202	@ 0xca
 8006f2e:	625a      	str	r2, [r3, #36]	@ 0x24
 8006f30:	68fb      	ldr	r3, [r7, #12]
 8006f32:	681b      	ldr	r3, [r3, #0]
 8006f34:	2253      	movs	r2, #83	@ 0x53
 8006f36:	625a      	str	r2, [r3, #36]	@ 0x24

  /* Enter Initialization mode */
  status = RTC_EnterInitMode(hrtc);
 8006f38:	68f8      	ldr	r0, [r7, #12]
 8006f3a:	f000 f98f 	bl	800725c <RTC_EnterInitMode>
 8006f3e:	4603      	mov	r3, r0
 8006f40:	74fb      	strb	r3, [r7, #19]

  if (status == HAL_OK)
 8006f42:	7cfb      	ldrb	r3, [r7, #19]
 8006f44:	2b00      	cmp	r3, #0
 8006f46:	d120      	bne.n	8006f8a <HAL_RTC_SetTime+0x110>
  {
    /* Set the RTC_TR register */
    hrtc->Instance->TR = (uint32_t)(tmpreg & RTC_TR_RESERVED_MASK);
 8006f48:	68fb      	ldr	r3, [r7, #12]
 8006f4a:	681a      	ldr	r2, [r3, #0]
 8006f4c:	697b      	ldr	r3, [r7, #20]
 8006f4e:	f003 337f 	and.w	r3, r3, #2139062143	@ 0x7f7f7f7f
 8006f52:	f023 43fe 	bic.w	r3, r3, #2130706432	@ 0x7f000000
 8006f56:	6013      	str	r3, [r2, #0]

    /* Clear the bits to be configured (Deprecated. Use HAL_RTC_DST_xxx functions instead) */
    hrtc->Instance->CR &= (uint32_t)~RTC_CR_BKP;
 8006f58:	68fb      	ldr	r3, [r7, #12]
 8006f5a:	681b      	ldr	r3, [r3, #0]
 8006f5c:	689a      	ldr	r2, [r3, #8]
 8006f5e:	68fb      	ldr	r3, [r7, #12]
 8006f60:	681b      	ldr	r3, [r3, #0]
 8006f62:	f422 2280 	bic.w	r2, r2, #262144	@ 0x40000
 8006f66:	609a      	str	r2, [r3, #8]

    /* Configure the RTC_CR register (Deprecated. Use HAL_RTC_DST_xxx functions instead) */
    hrtc->Instance->CR |= (uint32_t)(sTime->DayLightSaving | sTime->StoreOperation);
 8006f68:	68fb      	ldr	r3, [r7, #12]
 8006f6a:	681b      	ldr	r3, [r3, #0]
 8006f6c:	6899      	ldr	r1, [r3, #8]
 8006f6e:	68bb      	ldr	r3, [r7, #8]
 8006f70:	68da      	ldr	r2, [r3, #12]
 8006f72:	68bb      	ldr	r3, [r7, #8]
 8006f74:	691b      	ldr	r3, [r3, #16]
 8006f76:	431a      	orrs	r2, r3
 8006f78:	68fb      	ldr	r3, [r7, #12]
 8006f7a:	681b      	ldr	r3, [r3, #0]
 8006f7c:	430a      	orrs	r2, r1
 8006f7e:	609a      	str	r2, [r3, #8]

    /* Exit Initialization mode */
    status = RTC_ExitInitMode(hrtc);
 8006f80:	68f8      	ldr	r0, [r7, #12]
 8006f82:	f000 f9a2 	bl	80072ca <RTC_ExitInitMode>
 8006f86:	4603      	mov	r3, r0
 8006f88:	74fb      	strb	r3, [r7, #19]
  }

  if (status == HAL_OK)
 8006f8a:	7cfb      	ldrb	r3, [r7, #19]
 8006f8c:	2b00      	cmp	r3, #0
 8006f8e:	d102      	bne.n	8006f96 <HAL_RTC_SetTime+0x11c>
  {
    hrtc->State = HAL_RTC_STATE_READY;
 8006f90:	68fb      	ldr	r3, [r7, #12]
 8006f92:	2201      	movs	r2, #1
 8006f94:	775a      	strb	r2, [r3, #29]
  }

  /* Enable the write protection for RTC registers */
  __HAL_RTC_WRITEPROTECTION_ENABLE(hrtc);
 8006f96:	68fb      	ldr	r3, [r7, #12]
 8006f98:	681b      	ldr	r3, [r3, #0]
 8006f9a:	22ff      	movs	r2, #255	@ 0xff
 8006f9c:	625a      	str	r2, [r3, #36]	@ 0x24

  /* Process Unlocked */
  __HAL_UNLOCK(hrtc);
 8006f9e:	68fb      	ldr	r3, [r7, #12]
 8006fa0:	2200      	movs	r2, #0
 8006fa2:	771a      	strb	r2, [r3, #28]

  return status;
 8006fa4:	7cfb      	ldrb	r3, [r7, #19]
}
 8006fa6:	4618      	mov	r0, r3
 8006fa8:	371c      	adds	r7, #28
 8006faa:	46bd      	mov	sp, r7
 8006fac:	bd90      	pop	{r4, r7, pc}

08006fae <HAL_RTC_GetTime>:
  *        until current date is read to ensure consistency between the time and
  *        date values.
  * @retval HAL status
  */
HAL_StatusTypeDef HAL_RTC_GetTime(RTC_HandleTypeDef *hrtc, RTC_TimeTypeDef *sTime, uint32_t Format)
{
 8006fae:	b580      	push	{r7, lr}
 8006fb0:	b086      	sub	sp, #24
 8006fb2:	af00      	add	r7, sp, #0
 8006fb4:	60f8      	str	r0, [r7, #12]
 8006fb6:	60b9      	str	r1, [r7, #8]
 8006fb8:	607a      	str	r2, [r7, #4]
  uint32_t tmpreg = 0U;
 8006fba:	2300      	movs	r3, #0
 8006fbc:	617b      	str	r3, [r7, #20]

  /* Check the parameters */
  assert_param(IS_RTC_FORMAT(Format));

  /* Get subseconds value from the corresponding register */
  sTime->SubSeconds = (uint32_t)(hrtc->Instance->SSR);
 8006fbe:	68fb      	ldr	r3, [r7, #12]
 8006fc0:	681b      	ldr	r3, [r3, #0]
 8006fc2:	6a9a      	ldr	r2, [r3, #40]	@ 0x28
 8006fc4:	68bb      	ldr	r3, [r7, #8]
 8006fc6:	605a      	str	r2, [r3, #4]

  /* Get SecondFraction structure field from the corresponding register field*/
  sTime->SecondFraction = (uint32_t)(hrtc->Instance->PRER & RTC_PRER_PREDIV_S);
 8006fc8:	68fb      	ldr	r3, [r7, #12]
 8006fca:	681b      	ldr	r3, [r3, #0]
 8006fcc:	691b      	ldr	r3, [r3, #16]
 8006fce:	f3c3 020e 	ubfx	r2, r3, #0, #15
 8006fd2:	68bb      	ldr	r3, [r7, #8]
 8006fd4:	609a      	str	r2, [r3, #8]

  /* Get the TR register */
  tmpreg = (uint32_t)(hrtc->Instance->TR & RTC_TR_RESERVED_MASK);
 8006fd6:	68fb      	ldr	r3, [r7, #12]
 8006fd8:	681b      	ldr	r3, [r3, #0]
 8006fda:	681b      	ldr	r3, [r3, #0]
 8006fdc:	f003 337f 	and.w	r3, r3, #2139062143	@ 0x7f7f7f7f
 8006fe0:	f023 43fe 	bic.w	r3, r3, #2130706432	@ 0x7f000000
 8006fe4:	617b      	str	r3, [r7, #20]

  /* Fill the structure fields with the read parameters */
  sTime->Hours      = (uint8_t)((tmpreg & (RTC_TR_HT  | RTC_TR_HU))  >> RTC_TR_HU_Pos);
 8006fe6:	697b      	ldr	r3, [r7, #20]
 8006fe8:	0c1b      	lsrs	r3, r3, #16
 8006fea:	b2db      	uxtb	r3, r3
 8006fec:	f003 033f 	and.w	r3, r3, #63	@ 0x3f
 8006ff0:	b2da      	uxtb	r2, r3
 8006ff2:	68bb      	ldr	r3, [r7, #8]
 8006ff4:	701a      	strb	r2, [r3, #0]
  sTime->Minutes    = (uint8_t)((tmpreg & (RTC_TR_MNT | RTC_TR_MNU)) >> RTC_TR_MNU_Pos);
 8006ff6:	697b      	ldr	r3, [r7, #20]
 8006ff8:	0a1b      	lsrs	r3, r3, #8
 8006ffa:	b2db      	uxtb	r3, r3
 8006ffc:	f003 037f 	and.w	r3, r3, #127	@ 0x7f
 8007000:	b2da      	uxtb	r2, r3
 8007002:	68bb      	ldr	r3, [r7, #8]
 8007004:	705a      	strb	r2, [r3, #1]
  sTime->Seconds    = (uint8_t)( tmpreg & (RTC_TR_ST  | RTC_TR_SU));
 8007006:	697b      	ldr	r3, [r7, #20]
 8007008:	b2db      	uxtb	r3, r3
 800700a:	f003 037f 	and.w	r3, r3, #127	@ 0x7f
 800700e:	b2da      	uxtb	r2, r3
 8007010:	68bb      	ldr	r3, [r7, #8]
 8007012:	709a      	strb	r2, [r3, #2]
  sTime->TimeFormat = (uint8_t)((tmpreg & (RTC_TR_PM))               >> RTC_TR_PM_Pos);
 8007014:	697b      	ldr	r3, [r7, #20]
 8007016:	0d9b      	lsrs	r3, r3, #22
 8007018:	b2db      	uxtb	r3, r3
 800701a:	f003 0301 	and.w	r3, r3, #1
 800701e:	b2da      	uxtb	r2, r3
 8007020:	68bb      	ldr	r3, [r7, #8]
 8007022:	70da      	strb	r2, [r3, #3]

  /* Check the input parameters format */
  if (Format == RTC_FORMAT_BIN)
 8007024:	687b      	ldr	r3, [r7, #4]
 8007026:	2b00      	cmp	r3, #0
 8007028:	d11a      	bne.n	8007060 <HAL_RTC_GetTime+0xb2>
  {
    /* Convert the time structure parameters to Binary format */
    sTime->Hours = (uint8_t)RTC_Bcd2ToByte(sTime->Hours);
 800702a:	68bb      	ldr	r3, [r7, #8]
 800702c:	781b      	ldrb	r3, [r3, #0]
 800702e:	4618      	mov	r0, r3
 8007030:	f000 f98e 	bl	8007350 <RTC_Bcd2ToByte>
 8007034:	4603      	mov	r3, r0
 8007036:	461a      	mov	r2, r3
 8007038:	68bb      	ldr	r3, [r7, #8]
 800703a:	701a      	strb	r2, [r3, #0]
    sTime->Minutes = (uint8_t)RTC_Bcd2ToByte(sTime->Minutes);
 800703c:	68bb      	ldr	r3, [r7, #8]
 800703e:	785b      	ldrb	r3, [r3, #1]
 8007040:	4618      	mov	r0, r3
 8007042:	f000 f985 	bl	8007350 <RTC_Bcd2ToByte>
 8007046:	4603      	mov	r3, r0
 8007048:	461a      	mov	r2, r3
 800704a:	68bb      	ldr	r3, [r7, #8]
 800704c:	705a      	strb	r2, [r3, #1]
    sTime->Seconds = (uint8_t)RTC_Bcd2ToByte(sTime->Seconds);
 800704e:	68bb      	ldr	r3, [r7, #8]
 8007050:	789b      	ldrb	r3, [r3, #2]
 8007052:	4618      	mov	r0, r3
 8007054:	f000 f97c 	bl	8007350 <RTC_Bcd2ToByte>
 8007058:	4603      	mov	r3, r0
 800705a:	461a      	mov	r2, r3
 800705c:	68bb      	ldr	r3, [r7, #8]
 800705e:	709a      	strb	r2, [r3, #2]
  }

  return HAL_OK;
 8007060:	2300      	movs	r3, #0
}
 8007062:	4618      	mov	r0, r3
 8007064:	3718      	adds	r7, #24
 8007066:	46bd      	mov	sp, r7
 8007068:	bd80      	pop	{r7, pc}

0800706a <HAL_RTC_SetDate>:
  *            @arg RTC_FORMAT_BIN: Binary data format
  *            @arg RTC_FORMAT_BCD: BCD data format
  * @retval HAL status
  */
HAL_StatusTypeDef HAL_RTC_SetDate(RTC_HandleTypeDef *hrtc, RTC_DateTypeDef *sDate, uint32_t Format)
{
 800706a:	b590      	push	{r4, r7, lr}
 800706c:	b087      	sub	sp, #28
 800706e:	af00      	add	r7, sp, #0
 8007070:	60f8      	str	r0, [r7, #12]
 8007072:	60b9      	str	r1, [r7, #8]
 8007074:	607a      	str	r2, [r7, #4]
  uint32_t datetmpreg = 0U;
 8007076:	2300      	movs	r3, #0
 8007078:	617b      	str	r3, [r7, #20]

  /* Check the parameters */
  assert_param(IS_RTC_FORMAT(Format));

  /* Process Locked */
  __HAL_LOCK(hrtc);
 800707a:	68fb      	ldr	r3, [r7, #12]
 800707c:	7f1b      	ldrb	r3, [r3, #28]
 800707e:	2b01      	cmp	r3, #1
 8007080:	d101      	bne.n	8007086 <HAL_RTC_SetDate+0x1c>
 8007082:	2302      	movs	r3, #2
 8007084:	e071      	b.n	800716a <HAL_RTC_SetDate+0x100>
 8007086:	68fb      	ldr	r3, [r7, #12]
 8007088:	2201      	movs	r2, #1
 800708a:	771a      	strb	r2, [r3, #28]

  hrtc->State = HAL_RTC_STATE_BUSY;
 800708c:	68fb      	ldr	r3, [r7, #12]
 800708e:	2202      	movs	r2, #2
 8007090:	775a      	strb	r2, [r3, #29]

  if ((Format == RTC_FORMAT_BIN) && ((sDate->Month & 0x10U) == 0x10U))
 8007092:	687b      	ldr	r3, [r7, #4]
 8007094:	2b00      	cmp	r3, #0
 8007096:	d10e      	bne.n	80070b6 <HAL_RTC_SetDate+0x4c>
 8007098:	68bb      	ldr	r3, [r7, #8]
 800709a:	785b      	ldrb	r3, [r3, #1]
 800709c:	f003 0310 	and.w	r3, r3, #16
 80070a0:	2b00      	cmp	r3, #0
 80070a2:	d008      	beq.n	80070b6 <HAL_RTC_SetDate+0x4c>
  {
    sDate->Month = (uint8_t)((sDate->Month & (uint8_t)~(0x10U)) + (uint8_t)0x0AU);
 80070a4:	68bb      	ldr	r3, [r7, #8]
 80070a6:	785b      	ldrb	r3, [r3, #1]
 80070a8:	f023 0310 	bic.w	r3, r3, #16
 80070ac:	b2db      	uxtb	r3, r3
 80070ae:	330a      	adds	r3, #10
 80070b0:	b2da      	uxtb	r2, r3
 80070b2:	68bb      	ldr	r3, [r7, #8]
 80070b4:	705a      	strb	r2, [r3, #1]
  }

  assert_param(IS_RTC_WEEKDAY(sDate->WeekDay));

  if (Format == RTC_FORMAT_BIN)
 80070b6:	687b      	ldr	r3, [r7, #4]
 80070b8:	2b00      	cmp	r3, #0
 80070ba:	d11c      	bne.n	80070f6 <HAL_RTC_SetDate+0x8c>
  {
    assert_param(IS_RTC_YEAR(sDate->Year));
    assert_param(IS_RTC_MONTH(sDate->Month));
    assert_param(IS_RTC_DATE(sDate->Date));

    datetmpreg = (((uint32_t)RTC_ByteToBcd2(sDate->Year)  << RTC_DR_YU_Pos) | \
 80070bc:	68bb      	ldr	r3, [r7, #8]
 80070be:	78db      	ldrb	r3, [r3, #3]
 80070c0:	4618      	mov	r0, r3
 80070c2:	f000 f927 	bl	8007314 <RTC_ByteToBcd2>
 80070c6:	4603      	mov	r3, r0
 80070c8:	041c      	lsls	r4, r3, #16
                  ((uint32_t)RTC_ByteToBcd2(sDate->Month) << RTC_DR_MU_Pos) | \
 80070ca:	68bb      	ldr	r3, [r7, #8]
 80070cc:	785b      	ldrb	r3, [r3, #1]
 80070ce:	4618      	mov	r0, r3
 80070d0:	f000 f920 	bl	8007314 <RTC_ByteToBcd2>
 80070d4:	4603      	mov	r3, r0
 80070d6:	021b      	lsls	r3, r3, #8
    datetmpreg = (((uint32_t)RTC_ByteToBcd2(sDate->Year)  << RTC_DR_YU_Pos) | \
 80070d8:	431c      	orrs	r4, r3
                  ((uint32_t)RTC_ByteToBcd2(sDate->Date))                   | \
 80070da:	68bb      	ldr	r3, [r7, #8]
 80070dc:	789b      	ldrb	r3, [r3, #2]
 80070de:	4618      	mov	r0, r3
 80070e0:	f000 f918 	bl	8007314 <RTC_ByteToBcd2>
 80070e4:	4603      	mov	r3, r0
                  ((uint32_t)RTC_ByteToBcd2(sDate->Month) << RTC_DR_MU_Pos) | \
 80070e6:	ea44 0203 	orr.w	r2, r4, r3
                  ((uint32_t)sDate->WeekDay               << RTC_DR_WDU_Pos));
 80070ea:	68bb      	ldr	r3, [r7, #8]
 80070ec:	781b      	ldrb	r3, [r3, #0]
 80070ee:	035b      	lsls	r3, r3, #13
    datetmpreg = (((uint32_t)RTC_ByteToBcd2(sDate->Year)  << RTC_DR_YU_Pos) | \
 80070f0:	4313      	orrs	r3, r2
 80070f2:	617b      	str	r3, [r7, #20]
 80070f4:	e00e      	b.n	8007114 <HAL_RTC_SetDate+0xaa>
  {
    assert_param(IS_RTC_YEAR(RTC_Bcd2ToByte(sDate->Year)));
    assert_param(IS_RTC_MONTH(RTC_Bcd2ToByte(sDate->Month)));
    assert_param(IS_RTC_DATE(RTC_Bcd2ToByte(sDate->Date)));

    datetmpreg = ((((uint32_t)sDate->Year)    << RTC_DR_YU_Pos) | \
 80070f6:	68bb      	ldr	r3, [r7, #8]
 80070f8:	78db      	ldrb	r3, [r3, #3]
 80070fa:	041a      	lsls	r2, r3, #16
                  (((uint32_t)sDate->Month)   << RTC_DR_MU_Pos) | \
 80070fc:	68bb      	ldr	r3, [r7, #8]
 80070fe:	785b      	ldrb	r3, [r3, #1]
 8007100:	021b      	lsls	r3, r3, #8
    datetmpreg = ((((uint32_t)sDate->Year)    << RTC_DR_YU_Pos) | \
 8007102:	4313      	orrs	r3, r2
                  ((uint32_t) sDate->Date)                      | \
 8007104:	68ba      	ldr	r2, [r7, #8]
 8007106:	7892      	ldrb	r2, [r2, #2]
                  (((uint32_t)sDate->Month)   << RTC_DR_MU_Pos) | \
 8007108:	431a      	orrs	r2, r3
                  (((uint32_t)sDate->WeekDay) << RTC_DR_WDU_Pos));
 800710a:	68bb      	ldr	r3, [r7, #8]
 800710c:	781b      	ldrb	r3, [r3, #0]
 800710e:	035b      	lsls	r3, r3, #13
    datetmpreg = ((((uint32_t)sDate->Year)    << RTC_DR_YU_Pos) | \
 8007110:	4313      	orrs	r3, r2
 8007112:	617b      	str	r3, [r7, #20]
  }

  /* Disable the write protection for RTC registers */
  __HAL_RTC_WRITEPROTECTION_DISABLE(hrtc);
 8007114:	68fb      	ldr	r3, [r7, #12]
 8007116:	681b      	ldr	r3, [r3, #0]
 8007118:	22ca      	movs	r2, #202	@ 0xca
 800711a:	625a      	str	r2, [r3, #36]	@ 0x24
 800711c:	68fb      	ldr	r3, [r7, #12]
 800711e:	681b      	ldr	r3, [r3, #0]
 8007120:	2253      	movs	r2, #83	@ 0x53
 8007122:	625a      	str	r2, [r3, #36]	@ 0x24

  /* Enter Initialization mode */
  status = RTC_EnterInitMode(hrtc);
 8007124:	68f8      	ldr	r0, [r7, #12]
 8007126:	f000 f899 	bl	800725c <RTC_EnterInitMode>
 800712a:	4603      	mov	r3, r0
 800712c:	74fb      	strb	r3, [r7, #19]

  if (status == HAL_OK)
 800712e:	7cfb      	ldrb	r3, [r7, #19]
 8007130:	2b00      	cmp	r3, #0
 8007132:	d10c      	bne.n	800714e <HAL_RTC_SetDate+0xe4>
  {
    /* Set the RTC_DR register */
    hrtc->Instance->DR = (uint32_t)(datetmpreg & RTC_DR_RESERVED_MASK);
 8007134:	68fb      	ldr	r3, [r7, #12]
 8007136:	681a      	ldr	r2, [r3, #0]
 8007138:	697b      	ldr	r3, [r7, #20]
 800713a:	f023 437f 	bic.w	r3, r3, #4278190080	@ 0xff000000
 800713e:	f023 03c0 	bic.w	r3, r3, #192	@ 0xc0
 8007142:	6053      	str	r3, [r2, #4]

    /* Exit Initialization mode */
    status = RTC_ExitInitMode(hrtc);
 8007144:	68f8      	ldr	r0, [r7, #12]
 8007146:	f000 f8c0 	bl	80072ca <RTC_ExitInitMode>
 800714a:	4603      	mov	r3, r0
 800714c:	74fb      	strb	r3, [r7, #19]
  }

  if (status == HAL_OK)
 800714e:	7cfb      	ldrb	r3, [r7, #19]
 8007150:	2b00      	cmp	r3, #0
 8007152:	d102      	bne.n	800715a <HAL_RTC_SetDate+0xf0>
  {
    hrtc->State = HAL_RTC_STATE_READY;
 8007154:	68fb      	ldr	r3, [r7, #12]
 8007156:	2201      	movs	r2, #1
 8007158:	775a      	strb	r2, [r3, #29]
  }

  /* Enable the write protection for RTC registers */
  __HAL_RTC_WRITEPROTECTION_ENABLE(hrtc);
 800715a:	68fb      	ldr	r3, [r7, #12]
 800715c:	681b      	ldr	r3, [r3, #0]
 800715e:	22ff      	movs	r2, #255	@ 0xff
 8007160:	625a      	str	r2, [r3, #36]	@ 0x24

  /* Process Unlocked */
  __HAL_UNLOCK(hrtc);
 8007162:	68fb      	ldr	r3, [r7, #12]
 8007164:	2200      	movs	r2, #0
 8007166:	771a      	strb	r2, [r3, #28]

  return status;
 8007168:	7cfb      	ldrb	r3, [r7, #19]
}
 800716a:	4618      	mov	r0, r3
 800716c:	371c      	adds	r7, #28
 800716e:	46bd      	mov	sp, r7
 8007170:	bd90      	pop	{r4, r7, pc}

08007172 <HAL_RTC_GetDate>:
  *        until current date is read to ensure consistency between the time and
  *        date values.
  * @retval HAL status
  */
HAL_StatusTypeDef HAL_RTC_GetDate(RTC_HandleTypeDef *hrtc, RTC_DateTypeDef *sDate, uint32_t Format)
{
 8007172:	b580      	push	{r7, lr}
 8007174:	b086      	sub	sp, #24
 8007176:	af00      	add	r7, sp, #0
 8007178:	60f8      	str	r0, [r7, #12]
 800717a:	60b9      	str	r1, [r7, #8]
 800717c:	607a      	str	r2, [r7, #4]
  uint32_t datetmpreg = 0U;
 800717e:	2300      	movs	r3, #0
 8007180:	617b      	str	r3, [r7, #20]

  /* Check the parameters */
  assert_param(IS_RTC_FORMAT(Format));

  /* Get the DR register */
  datetmpreg = (uint32_t)(hrtc->Instance->DR & RTC_DR_RESERVED_MASK);
 8007182:	68fb      	ldr	r3, [r7, #12]
 8007184:	681b      	ldr	r3, [r3, #0]
 8007186:	685b      	ldr	r3, [r3, #4]
 8007188:	f023 437f 	bic.w	r3, r3, #4278190080	@ 0xff000000
 800718c:	f023 03c0 	bic.w	r3, r3, #192	@ 0xc0
 8007190:	617b      	str	r3, [r7, #20]

  /* Fill the structure fields with the read parameters */
  sDate->Year    = (uint8_t)((datetmpreg & (RTC_DR_YT | RTC_DR_YU)) >> RTC_DR_YU_Pos);
 8007192:	697b      	ldr	r3, [r7, #20]
 8007194:	0c1b      	lsrs	r3, r3, #16
 8007196:	b2da      	uxtb	r2, r3
 8007198:	68bb      	ldr	r3, [r7, #8]
 800719a:	70da      	strb	r2, [r3, #3]
  sDate->Month   = (uint8_t)((datetmpreg & (RTC_DR_MT | RTC_DR_MU)) >> RTC_DR_MU_Pos);
 800719c:	697b      	ldr	r3, [r7, #20]
 800719e:	0a1b      	lsrs	r3, r3, #8
 80071a0:	b2db      	uxtb	r3, r3
 80071a2:	f003 031f 	and.w	r3, r3, #31
 80071a6:	b2da      	uxtb	r2, r3
 80071a8:	68bb      	ldr	r3, [r7, #8]
 80071aa:	705a      	strb	r2, [r3, #1]
  sDate->Date    = (uint8_t) (datetmpreg & (RTC_DR_DT | RTC_DR_DU));
 80071ac:	697b      	ldr	r3, [r7, #20]
 80071ae:	b2db      	uxtb	r3, r3
 80071b0:	f003 033f 	and.w	r3, r3, #63	@ 0x3f
 80071b4:	b2da      	uxtb	r2, r3
 80071b6:	68bb      	ldr	r3, [r7, #8]
 80071b8:	709a      	strb	r2, [r3, #2]
  sDate->WeekDay = (uint8_t)((datetmpreg & (RTC_DR_WDU))            >> RTC_DR_WDU_Pos);
 80071ba:	697b      	ldr	r3, [r7, #20]
 80071bc:	0b5b      	lsrs	r3, r3, #13
 80071be:	b2db      	uxtb	r3, r3
 80071c0:	f003 0307 	and.w	r3, r3, #7
 80071c4:	b2da      	uxtb	r2, r3
 80071c6:	68bb      	ldr	r3, [r7, #8]
 80071c8:	701a      	strb	r2, [r3, #0]

  /* Check the input parameters format */
  if (Format == RTC_FORMAT_BIN)
 80071ca:	687b      	ldr	r3, [r7, #4]
 80071cc:	2b00      	cmp	r3, #0
 80071ce:	d11a      	bne.n	8007206 <HAL_RTC_GetDate+0x94>
  {
    /* Convert the date structure parameters to Binary format */
    sDate->Year  = (uint8_t)RTC_Bcd2ToByte(sDate->Year);
 80071d0:	68bb      	ldr	r3, [r7, #8]
 80071d2:	78db      	ldrb	r3, [r3, #3]
 80071d4:	4618      	mov	r0, r3
 80071d6:	f000 f8bb 	bl	8007350 <RTC_Bcd2ToByte>
 80071da:	4603      	mov	r3, r0
 80071dc:	461a      	mov	r2, r3
 80071de:	68bb      	ldr	r3, [r7, #8]
 80071e0:	70da      	strb	r2, [r3, #3]
    sDate->Month = (uint8_t)RTC_Bcd2ToByte(sDate->Month);
 80071e2:	68bb      	ldr	r3, [r7, #8]
 80071e4:	785b      	ldrb	r3, [r3, #1]
 80071e6:	4618      	mov	r0, r3
 80071e8:	f000 f8b2 	bl	8007350 <RTC_Bcd2ToByte>
 80071ec:	4603      	mov	r3, r0
 80071ee:	461a      	mov	r2, r3
 80071f0:	68bb      	ldr	r3, [r7, #8]
 80071f2:	705a      	strb	r2, [r3, #1]
    sDate->Date  = (uint8_t)RTC_Bcd2ToByte(sDate->Date);
 80071f4:	68bb      	ldr	r3, [r7, #8]
 80071f6:	789b      	ldrb	r3, [r3, #2]
 80071f8:	4618      	mov	r0, r3
 80071fa:	f000 f8a9 	bl	8007350 <RTC_Bcd2ToByte>
 80071fe:	4603      	mov	r3, r0
 8007200:	461a      	mov	r2, r3
 8007202:	68bb      	ldr	r3, [r7, #8]
 8007204:	709a      	strb	r2, [r3, #2]
  }
  return HAL_OK;
 8007206:	2300      	movs	r3, #0
}
 8007208:	4618      	mov	r0, r3
 800720a:	3718      	adds	r7, #24
 800720c:	46bd      	mov	sp, r7
 800720e:	bd80      	pop	{r7, pc}

08007210 <HAL_RTC_WaitForSynchro>:
  * @param  hrtc pointer to a RTC_HandleTypeDef structure that contains
  *                the configuration information for RTC.
  * @retval HAL status
  */
HAL_StatusTypeDef HAL_RTC_WaitForSynchro(RTC_HandleTypeDef *hrtc)
{
 8007210:	b580      	push	{r7, lr}
 8007212:	b084      	sub	sp, #16
 8007214:	af00      	add	r7, sp, #0
 8007216:	6078      	str	r0, [r7, #4]
  uint32_t tickstart = 0U;
 8007218:	2300      	movs	r3, #0
 800721a:	60fb      	str	r3, [r7, #12]

  /* Clear RSF flag, keep reserved bits at reset values (setting other flags has no effect) */
  hrtc->Instance->ISR = ((uint32_t)(RTC_RSF_MASK & RTC_ISR_RESERVED_MASK));
 800721c:	687b      	ldr	r3, [r7, #4]
 800721e:	681b      	ldr	r3, [r3, #0]
 8007220:	4a0d      	ldr	r2, [pc, #52]	@ (8007258 <HAL_RTC_WaitForSynchro+0x48>)
 8007222:	60da      	str	r2, [r3, #12]

  /* Get tick */
  tickstart = HAL_GetTick();
 8007224:	f7fb fff8 	bl	8003218 <HAL_GetTick>
 8007228:	60f8      	str	r0, [r7, #12]

  /* Wait the registers to be synchronised */
  while ((hrtc->Instance->ISR & RTC_ISR_RSF) == 0U)
 800722a:	e009      	b.n	8007240 <HAL_RTC_WaitForSynchro+0x30>
  {
    if ((HAL_GetTick() - tickstart) > RTC_TIMEOUT_VALUE)
 800722c:	f7fb fff4 	bl	8003218 <HAL_GetTick>
 8007230:	4602      	mov	r2, r0
 8007232:	68fb      	ldr	r3, [r7, #12]
 8007234:	1ad3      	subs	r3, r2, r3
 8007236:	f5b3 7f7a 	cmp.w	r3, #1000	@ 0x3e8
 800723a:	d901      	bls.n	8007240 <HAL_RTC_WaitForSynchro+0x30>
    {
      return HAL_TIMEOUT;
 800723c:	2303      	movs	r3, #3
 800723e:	e007      	b.n	8007250 <HAL_RTC_WaitForSynchro+0x40>
  while ((hrtc->Instance->ISR & RTC_ISR_RSF) == 0U)
 8007240:	687b      	ldr	r3, [r7, #4]
 8007242:	681b      	ldr	r3, [r3, #0]
 8007244:	68db      	ldr	r3, [r3, #12]
 8007246:	f003 0320 	and.w	r3, r3, #32
 800724a:	2b00      	cmp	r3, #0
 800724c:	d0ee      	beq.n	800722c <HAL_RTC_WaitForSynchro+0x1c>
    }
  }

  return HAL_OK;
 800724e:	2300      	movs	r3, #0
}
 8007250:	4618      	mov	r0, r3
 8007252:	3710      	adds	r7, #16
 8007254:	46bd      	mov	sp, r7
 8007256:	bd80      	pop	{r7, pc}
 8007258:	00017f5f 	.word	0x00017f5f

0800725c <RTC_EnterInitMode>:
  * @param  hrtc pointer to a RTC_HandleTypeDef structure that contains
  *                the configuration information for RTC.
  * @retval HAL status
  */
HAL_StatusTypeDef RTC_EnterInitMode(RTC_HandleTypeDef *hrtc)
{
 800725c:	b580      	push	{r7, lr}
 800725e:	b084      	sub	sp, #16
 8007260:	af00      	add	r7, sp, #0
 8007262:	6078      	str	r0, [r7, #4]
  uint32_t tickstart = 0U;
 8007264:	2300      	movs	r3, #0
 8007266:	60bb      	str	r3, [r7, #8]
  HAL_StatusTypeDef status = HAL_OK;
 8007268:	2300      	movs	r3, #0
 800726a:	73fb      	strb	r3, [r7, #15]

  /* Check that Initialization mode is not already set */
  if (READ_BIT(hrtc->Instance->ISR, RTC_ISR_INITF) == 0U)
 800726c:	687b      	ldr	r3, [r7, #4]
 800726e:	681b      	ldr	r3, [r3, #0]
 8007270:	68db      	ldr	r3, [r3, #12]
 8007272:	f003 0340 	and.w	r3, r3, #64	@ 0x40
 8007276:	2b00      	cmp	r3, #0
 8007278:	d122      	bne.n	80072c0 <RTC_EnterInitMode+0x64>
  {
    /* Set INIT bit to enter Initialization mode */
    SET_BIT(hrtc->Instance->ISR, RTC_ISR_INIT);
 800727a:	687b      	ldr	r3, [r7, #4]
 800727c:	681b      	ldr	r3, [r3, #0]
 800727e:	68da      	ldr	r2, [r3, #12]
 8007280:	687b      	ldr	r3, [r7, #4]
 8007282:	681b      	ldr	r3, [r3, #0]
 8007284:	f042 0280 	orr.w	r2, r2, #128	@ 0x80
 8007288:	60da      	str	r2, [r3, #12]

    /* Get tick */
    tickstart = HAL_GetTick();
 800728a:	f7fb ffc5 	bl	8003218 <HAL_GetTick>
 800728e:	60b8      	str	r0, [r7, #8]

    /* Wait till RTC is in INIT state and if timeout is reached exit */
    while ((READ_BIT(hrtc->Instance->ISR, RTC_ISR_INITF) == 0U) && (status != HAL_ERROR))
 8007290:	e00c      	b.n	80072ac <RTC_EnterInitMode+0x50>
    {
      if ((HAL_GetTick() - tickstart) > RTC_TIMEOUT_VALUE)
 8007292:	f7fb ffc1 	bl	8003218 <HAL_GetTick>
 8007296:	4602      	mov	r2, r0
 8007298:	68bb      	ldr	r3, [r7, #8]
 800729a:	1ad3      	subs	r3, r2, r3
 800729c:	f5b3 7f7a 	cmp.w	r3, #1000	@ 0x3e8
 80072a0:	d904      	bls.n	80072ac <RTC_EnterInitMode+0x50>
      {
        /* Set RTC state */
        hrtc->State = HAL_RTC_STATE_ERROR;
 80072a2:	687b      	ldr	r3, [r7, #4]
 80072a4:	2204      	movs	r2, #4
 80072a6:	775a      	strb	r2, [r3, #29]
        status = HAL_ERROR;
 80072a8:	2301      	movs	r3, #1
 80072aa:	73fb      	strb	r3, [r7, #15]
    while ((READ_BIT(hrtc->Instance->ISR, RTC_ISR_INITF) == 0U) && (status != HAL_ERROR))
 80072ac:	687b      	ldr	r3, [r7, #4]
 80072ae:	681b      	ldr	r3, [r3, #0]
 80072b0:	68db      	ldr	r3, [r3, #12]
 80072b2:	f003 0340 	and.w	r3, r3, #64	@ 0x40
 80072b6:	2b00      	cmp	r3, #0
 80072b8:	d102      	bne.n	80072c0 <RTC_EnterInitMode+0x64>
 80072ba:	7bfb      	ldrb	r3, [r7, #15]
 80072bc:	2b01      	cmp	r3, #1
 80072be:	d1e8      	bne.n	8007292 <RTC_EnterInitMode+0x36>
      }
    }
  }

  return status;
 80072c0:	7bfb      	ldrb	r3, [r7, #15]
}
 80072c2:	4618      	mov	r0, r3
 80072c4:	3710      	adds	r7, #16
 80072c6:	46bd      	mov	sp, r7
 80072c8:	bd80      	pop	{r7, pc}

080072ca <RTC_ExitInitMode>:
  * @param  hrtc pointer to a RTC_HandleTypeDef structure that contains
  *                the configuration information for RTC.
  * @retval HAL status
  */
HAL_StatusTypeDef RTC_ExitInitMode(RTC_HandleTypeDef *hrtc)
{
 80072ca:	b580      	push	{r7, lr}
 80072cc:	b084      	sub	sp, #16
 80072ce:	af00      	add	r7, sp, #0
 80072d0:	6078      	str	r0, [r7, #4]
  HAL_StatusTypeDef status = HAL_OK;
 80072d2:	2300      	movs	r3, #0
 80072d4:	73fb      	strb	r3, [r7, #15]

  /* Clear INIT bit to exit Initialization mode */
  CLEAR_BIT(hrtc->Instance->ISR, RTC_ISR_INIT);
 80072d6:	687b      	ldr	r3, [r7, #4]
 80072d8:	681b      	ldr	r3, [r3, #0]
 80072da:	68da      	ldr	r2, [r3, #12]
 80072dc:	687b      	ldr	r3, [r7, #4]
 80072de:	681b      	ldr	r3, [r3, #0]
 80072e0:	f022 0280 	bic.w	r2, r2, #128	@ 0x80
 80072e4:	60da      	str	r2, [r3, #12]

  /* If CR_BYPSHAD bit = 0, wait for synchro */
  if (READ_BIT(hrtc->Instance->CR, RTC_CR_BYPSHAD) == 0U)
 80072e6:	687b      	ldr	r3, [r7, #4]
 80072e8:	681b      	ldr	r3, [r3, #0]
 80072ea:	689b      	ldr	r3, [r3, #8]
 80072ec:	f003 0320 	and.w	r3, r3, #32
 80072f0:	2b00      	cmp	r3, #0
 80072f2:	d10a      	bne.n	800730a <RTC_ExitInitMode+0x40>
  {
    if (HAL_RTC_WaitForSynchro(hrtc) != HAL_OK)
 80072f4:	6878      	ldr	r0, [r7, #4]
 80072f6:	f7ff ff8b 	bl	8007210 <HAL_RTC_WaitForSynchro>
 80072fa:	4603      	mov	r3, r0
 80072fc:	2b00      	cmp	r3, #0
 80072fe:	d004      	beq.n	800730a <RTC_ExitInitMode+0x40>
    {
      /* Set RTC state */
      hrtc->State = HAL_RTC_STATE_ERROR;
 8007300:	687b      	ldr	r3, [r7, #4]
 8007302:	2204      	movs	r2, #4
 8007304:	775a      	strb	r2, [r3, #29]
      status = HAL_ERROR;
 8007306:	2301      	movs	r3, #1
 8007308:	73fb      	strb	r3, [r7, #15]
    }
  }

  return status;
 800730a:	7bfb      	ldrb	r3, [r7, #15]
}
 800730c:	4618      	mov	r0, r3
 800730e:	3710      	adds	r7, #16
 8007310:	46bd      	mov	sp, r7
 8007312:	bd80      	pop	{r7, pc}

08007314 <RTC_ByteToBcd2>:
  * @brief  Converts a 2-digit number from decimal to BCD format.
  * @param  number decimal-formatted number (from 0 to 99) to be converted
  * @retval Converted byte
  */
uint8_t RTC_ByteToBcd2(uint8_t number)
{
 8007314:	b480      	push	{r7}
 8007316:	b085      	sub	sp, #20
 8007318:	af00      	add	r7, sp, #0
 800731a:	4603      	mov	r3, r0
 800731c:	71fb      	strb	r3, [r7, #7]
  uint32_t bcdhigh = 0U;
 800731e:	2300      	movs	r3, #0
 8007320:	60fb      	str	r3, [r7, #12]

  while (number >= 10U)
 8007322:	e005      	b.n	8007330 <RTC_ByteToBcd2+0x1c>
  {
    bcdhigh++;
 8007324:	68fb      	ldr	r3, [r7, #12]
 8007326:	3301      	adds	r3, #1
 8007328:	60fb      	str	r3, [r7, #12]
    number -= 10U;
 800732a:	79fb      	ldrb	r3, [r7, #7]
 800732c:	3b0a      	subs	r3, #10
 800732e:	71fb      	strb	r3, [r7, #7]
  while (number >= 10U)
 8007330:	79fb      	ldrb	r3, [r7, #7]
 8007332:	2b09      	cmp	r3, #9
 8007334:	d8f6      	bhi.n	8007324 <RTC_ByteToBcd2+0x10>
  }

  return ((uint8_t)(bcdhigh << 4U) | number);
 8007336:	68fb      	ldr	r3, [r7, #12]
 8007338:	b2db      	uxtb	r3, r3
 800733a:	011b      	lsls	r3, r3, #4
 800733c:	b2da      	uxtb	r2, r3
 800733e:	79fb      	ldrb	r3, [r7, #7]
 8007340:	4313      	orrs	r3, r2
 8007342:	b2db      	uxtb	r3, r3
}
 8007344:	4618      	mov	r0, r3
 8007346:	3714      	adds	r7, #20
 8007348:	46bd      	mov	sp, r7
 800734a:	f85d 7b04 	ldr.w	r7, [sp], #4
 800734e:	4770      	bx	lr

08007350 <RTC_Bcd2ToByte>:
  * @brief  Converts a 2-digit number from BCD to decimal format.
  * @param  number BCD-formatted number (from 00 to 99) to be converted
  * @retval Converted word
  */
uint8_t RTC_Bcd2ToByte(uint8_t number)
{
 8007350:	b480      	push	{r7}
 8007352:	b085      	sub	sp, #20
 8007354:	af00      	add	r7, sp, #0
 8007356:	4603      	mov	r3, r0
 8007358:	71fb      	strb	r3, [r7, #7]
  uint32_t tens = 0U;
 800735a:	2300      	movs	r3, #0
 800735c:	60fb      	str	r3, [r7, #12]
  tens = (((uint32_t)number & 0xF0U) >> 4U) * 10U;
 800735e:	79fb      	ldrb	r3, [r7, #7]
 8007360:	091b      	lsrs	r3, r3, #4
 8007362:	b2db      	uxtb	r3, r3
 8007364:	461a      	mov	r2, r3
 8007366:	4613      	mov	r3, r2
 8007368:	009b      	lsls	r3, r3, #2
 800736a:	4413      	add	r3, r2
 800736c:	005b      	lsls	r3, r3, #1
 800736e:	60fb      	str	r3, [r7, #12]
  return (uint8_t)(tens + ((uint32_t)number & 0x0FU));
 8007370:	68fb      	ldr	r3, [r7, #12]
 8007372:	b2da      	uxtb	r2, r3
 8007374:	79fb      	ldrb	r3, [r7, #7]
 8007376:	f003 030f 	and.w	r3, r3, #15
 800737a:	b2db      	uxtb	r3, r3
 800737c:	4413      	add	r3, r2
 800737e:	b2db      	uxtb	r3, r3
}
 8007380:	4618      	mov	r0, r3
 8007382:	3714      	adds	r7, #20
 8007384:	46bd      	mov	sp, r7
 8007386:	f85d 7b04 	ldr.w	r7, [sp], #4
 800738a:	4770      	bx	lr

0800738c <HAL_SPI_Init>:
  * @param  hspi pointer to a SPI_HandleTypeDef structure that contains
  *               the configuration information for SPI module.
  * @retval HAL status
  */
HAL_StatusTypeDef HAL_SPI_Init(SPI_HandleTypeDef *hspi)
{
 800738c:	b580      	push	{r7, lr}
 800738e:	b082      	sub	sp, #8
 8007390:	af00      	add	r7, sp, #0
 8007392:	6078      	str	r0, [r7, #4]
  /* Check the SPI handle allocation */
  if (hspi == NULL)
 8007394:	687b      	ldr	r3, [r7, #4]
 8007396:	2b00      	cmp	r3, #0
 8007398:	d101      	bne.n	800739e <HAL_SPI_Init+0x12>
  {
    return HAL_ERROR;
 800739a:	2301      	movs	r3, #1
 800739c:	e07b      	b.n	8007496 <HAL_SPI_Init+0x10a>
  assert_param(IS_SPI_DATASIZE(hspi->Init.DataSize));
  assert_param(IS_SPI_NSS(hspi->Init.NSS));
  assert_param(IS_SPI_BAUDRATE_PRESCALER(hspi->Init.BaudRatePrescaler));
  assert_param(IS_SPI_FIRST_BIT(hspi->Init.FirstBit));
  assert_param(IS_SPI_TIMODE(hspi->Init.TIMode));
  if (hspi->Init.TIMode == SPI_TIMODE_DISABLE)
 800739e:	687b      	ldr	r3, [r7, #4]
 80073a0:	6a5b      	ldr	r3, [r3, #36]	@ 0x24
 80073a2:	2b00      	cmp	r3, #0
 80073a4:	d108      	bne.n	80073b8 <HAL_SPI_Init+0x2c>
  {
    assert_param(IS_SPI_CPOL(hspi->Init.CLKPolarity));
    assert_param(IS_SPI_CPHA(hspi->Init.CLKPhase));

    if (hspi->Init.Mode == SPI_MODE_MASTER)
 80073a6:	687b      	ldr	r3, [r7, #4]
 80073a8:	685b      	ldr	r3, [r3, #4]
 80073aa:	f5b3 7f82 	cmp.w	r3, #260	@ 0x104
 80073ae:	d009      	beq.n	80073c4 <HAL_SPI_Init+0x38>
      assert_param(IS_SPI_BAUDRATE_PRESCALER(hspi->Init.BaudRatePrescaler));
    }
    else
    {
      /* Baudrate prescaler not use in Motoraola Slave mode. force to default value */
      hspi->Init.BaudRatePrescaler = SPI_BAUDRATEPRESCALER_2;
 80073b0:	687b      	ldr	r3, [r7, #4]
 80073b2:	2200      	movs	r2, #0
 80073b4:	61da      	str	r2, [r3, #28]
 80073b6:	e005      	b.n	80073c4 <HAL_SPI_Init+0x38>
  else
  {
    assert_param(IS_SPI_BAUDRATE_PRESCALER(hspi->Init.BaudRatePrescaler));

    /* Force polarity and phase to TI protocaol requirements */
    hspi->Init.CLKPolarity = SPI_POLARITY_LOW;
 80073b8:	687b      	ldr	r3, [r7, #4]
 80073ba:	2200      	movs	r2, #0
 80073bc:	611a      	str	r2, [r3, #16]
    hspi->Init.CLKPhase    = SPI_PHASE_1EDGE;
 80073be:	687b      	ldr	r3, [r7, #4]
 80073c0:	2200      	movs	r2, #0
 80073c2:	615a      	str	r2, [r3, #20]
  if (hspi->Init.CRCCalculation == SPI_CRCCALCULATION_ENABLE)
  {
    assert_param(IS_SPI_CRC_POLYNOMIAL(hspi->Init.CRCPolynomial));
  }
#else
  hspi->Init.CRCCalculation = SPI_CRCCALCULATION_DISABLE;
 80073c4:	687b      	ldr	r3, [r7, #4]
 80073c6:	2200      	movs	r2, #0
 80073c8:	629a      	str	r2, [r3, #40]	@ 0x28
#endif /* USE_SPI_CRC */

  if (hspi->State == HAL_SPI_STATE_RESET)
 80073ca:	687b      	ldr	r3, [r7, #4]
 80073cc:	f893 3051 	ldrb.w	r3, [r3, #81]	@ 0x51
 80073d0:	b2db      	uxtb	r3, r3
 80073d2:	2b00      	cmp	r3, #0
 80073d4:	d106      	bne.n	80073e4 <HAL_SPI_Init+0x58>
  {
    /* Allocate lock resource and initialize it */
    hspi->Lock = HAL_UNLOCKED;
 80073d6:	687b      	ldr	r3, [r7, #4]
 80073d8:	2200      	movs	r2, #0
 80073da:	f883 2050 	strb.w	r2, [r3, #80]	@ 0x50

    /* Init the low level hardware : GPIO, CLOCK, NVIC... */
    hspi->MspInitCallback(hspi);
#else
    /* Init the low level hardware : GPIO, CLOCK, NVIC... */
    HAL_SPI_MspInit(hspi);
 80073de:	6878      	ldr	r0, [r7, #4]
 80073e0:	f7fb fb9a 	bl	8002b18 <HAL_SPI_MspInit>
#endif /* USE_HAL_SPI_REGISTER_CALLBACKS */
  }

  hspi->State = HAL_SPI_STATE_BUSY;
 80073e4:	687b      	ldr	r3, [r7, #4]
 80073e6:	2202      	movs	r2, #2
 80073e8:	f883 2051 	strb.w	r2, [r3, #81]	@ 0x51

  /* Disable the selected SPI peripheral */
  __HAL_SPI_DISABLE(hspi);
 80073ec:	687b      	ldr	r3, [r7, #4]
 80073ee:	681b      	ldr	r3, [r3, #0]
 80073f0:	681a      	ldr	r2, [r3, #0]
 80073f2:	687b      	ldr	r3, [r7, #4]
 80073f4:	681b      	ldr	r3, [r3, #0]
 80073f6:	f022 0240 	bic.w	r2, r2, #64	@ 0x40
 80073fa:	601a      	str	r2, [r3, #0]

  /*----------------------- SPIx CR1 & CR2 Configuration ---------------------*/
  /* Configure : SPI Mode, Communication Mode, Data size, Clock polarity and phase, NSS management,
  Communication speed, First bit and CRC calculation state */
  WRITE_REG(hspi->Instance->CR1, ((hspi->Init.Mode & (SPI_CR1_MSTR | SPI_CR1_SSI)) |
 80073fc:	687b      	ldr	r3, [r7, #4]
 80073fe:	685b      	ldr	r3, [r3, #4]
 8007400:	f403 7282 	and.w	r2, r3, #260	@ 0x104
 8007404:	687b      	ldr	r3, [r7, #4]
 8007406:	689b      	ldr	r3, [r3, #8]
 8007408:	f403 4304 	and.w	r3, r3, #33792	@ 0x8400
 800740c:	431a      	orrs	r2, r3
 800740e:	687b      	ldr	r3, [r7, #4]
 8007410:	68db      	ldr	r3, [r3, #12]
 8007412:	f403 6300 	and.w	r3, r3, #2048	@ 0x800
 8007416:	431a      	orrs	r2, r3
 8007418:	687b      	ldr	r3, [r7, #4]
 800741a:	691b      	ldr	r3, [r3, #16]
 800741c:	f003 0302 	and.w	r3, r3, #2
 8007420:	431a      	orrs	r2, r3
 8007422:	687b      	ldr	r3, [r7, #4]
 8007424:	695b      	ldr	r3, [r3, #20]
 8007426:	f003 0301 	and.w	r3, r3, #1
 800742a:	431a      	orrs	r2, r3
 800742c:	687b      	ldr	r3, [r7, #4]
 800742e:	699b      	ldr	r3, [r3, #24]
 8007430:	f403 7300 	and.w	r3, r3, #512	@ 0x200
 8007434:	431a      	orrs	r2, r3
 8007436:	687b      	ldr	r3, [r7, #4]
 8007438:	69db      	ldr	r3, [r3, #28]
 800743a:	f003 0338 	and.w	r3, r3, #56	@ 0x38
 800743e:	431a      	orrs	r2, r3
 8007440:	687b      	ldr	r3, [r7, #4]
 8007442:	6a1b      	ldr	r3, [r3, #32]
 8007444:	f003 0380 	and.w	r3, r3, #128	@ 0x80
 8007448:	ea42 0103 	orr.w	r1, r2, r3
 800744c:	687b      	ldr	r3, [r7, #4]
 800744e:	6a9b      	ldr	r3, [r3, #40]	@ 0x28
 8007450:	f403 5200 	and.w	r2, r3, #8192	@ 0x2000
 8007454:	687b      	ldr	r3, [r7, #4]
 8007456:	681b      	ldr	r3, [r3, #0]
 8007458:	430a      	orrs	r2, r1
 800745a:	601a      	str	r2, [r3, #0]
                                  (hspi->Init.BaudRatePrescaler & SPI_CR1_BR_Msk) |
                                  (hspi->Init.FirstBit  & SPI_CR1_LSBFIRST) |
                                  (hspi->Init.CRCCalculation & SPI_CR1_CRCEN)));

  /* Configure : NSS management, TI Mode */
  WRITE_REG(hspi->Instance->CR2, (((hspi->Init.NSS >> 16U) & SPI_CR2_SSOE) | (hspi->Init.TIMode & SPI_CR2_FRF)));
 800745c:	687b      	ldr	r3, [r7, #4]
 800745e:	699b      	ldr	r3, [r3, #24]
 8007460:	0c1b      	lsrs	r3, r3, #16
 8007462:	f003 0104 	and.w	r1, r3, #4
 8007466:	687b      	ldr	r3, [r7, #4]
 8007468:	6a5b      	ldr	r3, [r3, #36]	@ 0x24
 800746a:	f003 0210 	and.w	r2, r3, #16
 800746e:	687b      	ldr	r3, [r7, #4]
 8007470:	681b      	ldr	r3, [r3, #0]
 8007472:	430a      	orrs	r2, r1
 8007474:	605a      	str	r2, [r3, #4]
  }
#endif /* USE_SPI_CRC */

#if defined(SPI_I2SCFGR_I2SMOD)
  /* Activate the SPI mode (Make sure that I2SMOD bit in I2SCFGR register is reset) */
  CLEAR_BIT(hspi->Instance->I2SCFGR, SPI_I2SCFGR_I2SMOD);
 8007476:	687b      	ldr	r3, [r7, #4]
 8007478:	681b      	ldr	r3, [r3, #0]
 800747a:	69da      	ldr	r2, [r3, #28]
 800747c:	687b      	ldr	r3, [r7, #4]
 800747e:	681b      	ldr	r3, [r3, #0]
 8007480:	f422 6200 	bic.w	r2, r2, #2048	@ 0x800
 8007484:	61da      	str	r2, [r3, #28]
#endif /* SPI_I2SCFGR_I2SMOD */

  hspi->ErrorCode = HAL_SPI_ERROR_NONE;
 8007486:	687b      	ldr	r3, [r7, #4]
 8007488:	2200      	movs	r2, #0
 800748a:	655a      	str	r2, [r3, #84]	@ 0x54
  hspi->State     = HAL_SPI_STATE_READY;
 800748c:	687b      	ldr	r3, [r7, #4]
 800748e:	2201      	movs	r2, #1
 8007490:	f883 2051 	strb.w	r2, [r3, #81]	@ 0x51

  return HAL_OK;
 8007494:	2300      	movs	r3, #0
}
 8007496:	4618      	mov	r0, r3
 8007498:	3708      	adds	r7, #8
 800749a:	46bd      	mov	sp, r7
 800749c:	bd80      	pop	{r7, pc}

0800749e <HAL_SPI_Transmit>:
  * @param  Size amount of data to be sent
  * @param  Timeout Timeout duration
  * @retval HAL status
  */
HAL_StatusTypeDef HAL_SPI_Transmit(SPI_HandleTypeDef *hspi, uint8_t *pData, uint16_t Size, uint32_t Timeout)
{
 800749e:	b580      	push	{r7, lr}
 80074a0:	b088      	sub	sp, #32
 80074a2:	af00      	add	r7, sp, #0
 80074a4:	60f8      	str	r0, [r7, #12]
 80074a6:	60b9      	str	r1, [r7, #8]
 80074a8:	603b      	str	r3, [r7, #0]
 80074aa:	4613      	mov	r3, r2
 80074ac:	80fb      	strh	r3, [r7, #6]
  uint32_t tickstart;
  HAL_StatusTypeDef errorcode = HAL_OK;
 80074ae:	2300      	movs	r3, #0
 80074b0:	77fb      	strb	r3, [r7, #31]

  /* Check Direction parameter */
  assert_param(IS_SPI_DIRECTION_2LINES_OR_1LINE(hspi->Init.Direction));

  /* Process Locked */
  __HAL_LOCK(hspi);
 80074b2:	68fb      	ldr	r3, [r7, #12]
 80074b4:	f893 3050 	ldrb.w	r3, [r3, #80]	@ 0x50
 80074b8:	2b01      	cmp	r3, #1
 80074ba:	d101      	bne.n	80074c0 <HAL_SPI_Transmit+0x22>
 80074bc:	2302      	movs	r3, #2
 80074be:	e12d      	b.n	800771c <HAL_SPI_Transmit+0x27e>
 80074c0:	68fb      	ldr	r3, [r7, #12]
 80074c2:	2201      	movs	r2, #1
 80074c4:	f883 2050 	strb.w	r2, [r3, #80]	@ 0x50

  /* Init tickstart for timeout management*/
  tickstart = HAL_GetTick();
 80074c8:	f7fb fea6 	bl	8003218 <HAL_GetTick>
 80074cc:	61b8      	str	r0, [r7, #24]
  initial_TxXferCount = Size;
 80074ce:	88fb      	ldrh	r3, [r7, #6]
 80074d0:	82fb      	strh	r3, [r7, #22]

  if (hspi->State != HAL_SPI_STATE_READY)
 80074d2:	68fb      	ldr	r3, [r7, #12]
 80074d4:	f893 3051 	ldrb.w	r3, [r3, #81]	@ 0x51
 80074d8:	b2db      	uxtb	r3, r3
 80074da:	2b01      	cmp	r3, #1
 80074dc:	d002      	beq.n	80074e4 <HAL_SPI_Transmit+0x46>
  {
    errorcode = HAL_BUSY;
 80074de:	2302      	movs	r3, #2
 80074e0:	77fb      	strb	r3, [r7, #31]
    goto error;
 80074e2:	e116      	b.n	8007712 <HAL_SPI_Transmit+0x274>
  }

  if ((pData == NULL) || (Size == 0U))
 80074e4:	68bb      	ldr	r3, [r7, #8]
 80074e6:	2b00      	cmp	r3, #0
 80074e8:	d002      	beq.n	80074f0 <HAL_SPI_Transmit+0x52>
 80074ea:	88fb      	ldrh	r3, [r7, #6]
 80074ec:	2b00      	cmp	r3, #0
 80074ee:	d102      	bne.n	80074f6 <HAL_SPI_Transmit+0x58>
  {
    errorcode = HAL_ERROR;
 80074f0:	2301      	movs	r3, #1
 80074f2:	77fb      	strb	r3, [r7, #31]
    goto error;
 80074f4:	e10d      	b.n	8007712 <HAL_SPI_Transmit+0x274>
  }

  /* Set the transaction information */
  hspi->State       = HAL_SPI_STATE_BUSY_TX;
 80074f6:	68fb      	ldr	r3, [r7, #12]
 80074f8:	2203      	movs	r2, #3
 80074fa:	f883 2051 	strb.w	r2, [r3, #81]	@ 0x51
  hspi->ErrorCode   = HAL_SPI_ERROR_NONE;
 80074fe:	68fb      	ldr	r3, [r7, #12]
 8007500:	2200      	movs	r2, #0
 8007502:	655a      	str	r2, [r3, #84]	@ 0x54
  hspi->pTxBuffPtr  = (uint8_t *)pData;
 8007504:	68fb      	ldr	r3, [r7, #12]
 8007506:	68ba      	ldr	r2, [r7, #8]
 8007508:	631a      	str	r2, [r3, #48]	@ 0x30
  hspi->TxXferSize  = Size;
 800750a:	68fb      	ldr	r3, [r7, #12]
 800750c:	88fa      	ldrh	r2, [r7, #6]
 800750e:	869a      	strh	r2, [r3, #52]	@ 0x34
  hspi->TxXferCount = Size;
 8007510:	68fb      	ldr	r3, [r7, #12]
 8007512:	88fa      	ldrh	r2, [r7, #6]
 8007514:	86da      	strh	r2, [r3, #54]	@ 0x36

  /*Init field not used in handle to zero */
  hspi->pRxBuffPtr  = (uint8_t *)NULL;
 8007516:	68fb      	ldr	r3, [r7, #12]
 8007518:	2200      	movs	r2, #0
 800751a:	639a      	str	r2, [r3, #56]	@ 0x38
  hspi->RxXferSize  = 0U;
 800751c:	68fb      	ldr	r3, [r7, #12]
 800751e:	2200      	movs	r2, #0
 8007520:	879a      	strh	r2, [r3, #60]	@ 0x3c
  hspi->RxXferCount = 0U;
 8007522:	68fb      	ldr	r3, [r7, #12]
 8007524:	2200      	movs	r2, #0
 8007526:	87da      	strh	r2, [r3, #62]	@ 0x3e
  hspi->TxISR       = NULL;
 8007528:	68fb      	ldr	r3, [r7, #12]
 800752a:	2200      	movs	r2, #0
 800752c:	645a      	str	r2, [r3, #68]	@ 0x44
  hspi->RxISR       = NULL;
 800752e:	68fb      	ldr	r3, [r7, #12]
 8007530:	2200      	movs	r2, #0
 8007532:	641a      	str	r2, [r3, #64]	@ 0x40

  /* Configure communication direction : 1Line */
  if (hspi->Init.Direction == SPI_DIRECTION_1LINE)
 8007534:	68fb      	ldr	r3, [r7, #12]
 8007536:	689b      	ldr	r3, [r3, #8]
 8007538:	f5b3 4f00 	cmp.w	r3, #32768	@ 0x8000
 800753c:	d10f      	bne.n	800755e <HAL_SPI_Transmit+0xc0>
  {
    /* Disable SPI Peripheral before set 1Line direction (BIDIOE bit) */
    __HAL_SPI_DISABLE(hspi);
 800753e:	68fb      	ldr	r3, [r7, #12]
 8007540:	681b      	ldr	r3, [r3, #0]
 8007542:	681a      	ldr	r2, [r3, #0]
 8007544:	68fb      	ldr	r3, [r7, #12]
 8007546:	681b      	ldr	r3, [r3, #0]
 8007548:	f022 0240 	bic.w	r2, r2, #64	@ 0x40
 800754c:	601a      	str	r2, [r3, #0]
    SPI_1LINE_TX(hspi);
 800754e:	68fb      	ldr	r3, [r7, #12]
 8007550:	681b      	ldr	r3, [r3, #0]
 8007552:	681a      	ldr	r2, [r3, #0]
 8007554:	68fb      	ldr	r3, [r7, #12]
 8007556:	681b      	ldr	r3, [r3, #0]
 8007558:	f442 4280 	orr.w	r2, r2, #16384	@ 0x4000
 800755c:	601a      	str	r2, [r3, #0]
    SPI_RESET_CRC(hspi);
  }
#endif /* USE_SPI_CRC */

  /* Check if the SPI is already enabled */
  if ((hspi->Instance->CR1 & SPI_CR1_SPE) != SPI_CR1_SPE)
 800755e:	68fb      	ldr	r3, [r7, #12]
 8007560:	681b      	ldr	r3, [r3, #0]
 8007562:	681b      	ldr	r3, [r3, #0]
 8007564:	f003 0340 	and.w	r3, r3, #64	@ 0x40
 8007568:	2b40      	cmp	r3, #64	@ 0x40
 800756a:	d007      	beq.n	800757c <HAL_SPI_Transmit+0xde>
  {
    /* Enable SPI peripheral */
    __HAL_SPI_ENABLE(hspi);
 800756c:	68fb      	ldr	r3, [r7, #12]
 800756e:	681b      	ldr	r3, [r3, #0]
 8007570:	681a      	ldr	r2, [r3, #0]
 8007572:	68fb      	ldr	r3, [r7, #12]
 8007574:	681b      	ldr	r3, [r3, #0]
 8007576:	f042 0240 	orr.w	r2, r2, #64	@ 0x40
 800757a:	601a      	str	r2, [r3, #0]
  }

  /* Transmit data in 16 Bit mode */
  if (hspi->Init.DataSize == SPI_DATASIZE_16BIT)
 800757c:	68fb      	ldr	r3, [r7, #12]
 800757e:	68db      	ldr	r3, [r3, #12]
 8007580:	f5b3 6f00 	cmp.w	r3, #2048	@ 0x800
 8007584:	d14f      	bne.n	8007626 <HAL_SPI_Transmit+0x188>
  {
    if ((hspi->Init.Mode == SPI_MODE_SLAVE) || (initial_TxXferCount == 0x01U))
 8007586:	68fb      	ldr	r3, [r7, #12]
 8007588:	685b      	ldr	r3, [r3, #4]
 800758a:	2b00      	cmp	r3, #0
 800758c:	d002      	beq.n	8007594 <HAL_SPI_Transmit+0xf6>
 800758e:	8afb      	ldrh	r3, [r7, #22]
 8007590:	2b01      	cmp	r3, #1
 8007592:	d142      	bne.n	800761a <HAL_SPI_Transmit+0x17c>
    {
      hspi->Instance->DR = *((uint16_t *)hspi->pTxBuffPtr);
 8007594:	68fb      	ldr	r3, [r7, #12]
 8007596:	6b1b      	ldr	r3, [r3, #48]	@ 0x30
 8007598:	881a      	ldrh	r2, [r3, #0]
 800759a:	68fb      	ldr	r3, [r7, #12]
 800759c:	681b      	ldr	r3, [r3, #0]
 800759e:	60da      	str	r2, [r3, #12]
      hspi->pTxBuffPtr += sizeof(uint16_t);
 80075a0:	68fb      	ldr	r3, [r7, #12]
 80075a2:	6b1b      	ldr	r3, [r3, #48]	@ 0x30
 80075a4:	1c9a      	adds	r2, r3, #2
 80075a6:	68fb      	ldr	r3, [r7, #12]
 80075a8:	631a      	str	r2, [r3, #48]	@ 0x30
      hspi->TxXferCount--;
 80075aa:	68fb      	ldr	r3, [r7, #12]
 80075ac:	8edb      	ldrh	r3, [r3, #54]	@ 0x36
 80075ae:	b29b      	uxth	r3, r3
 80075b0:	3b01      	subs	r3, #1
 80075b2:	b29a      	uxth	r2, r3
 80075b4:	68fb      	ldr	r3, [r7, #12]
 80075b6:	86da      	strh	r2, [r3, #54]	@ 0x36
    }
    /* Transmit data in 16 Bit mode */
    while (hspi->TxXferCount > 0U)
 80075b8:	e02f      	b.n	800761a <HAL_SPI_Transmit+0x17c>
    {
      /* Wait until TXE flag is set to send data */
      if (__HAL_SPI_GET_FLAG(hspi, SPI_FLAG_TXE))
 80075ba:	68fb      	ldr	r3, [r7, #12]
 80075bc:	681b      	ldr	r3, [r3, #0]
 80075be:	689b      	ldr	r3, [r3, #8]
 80075c0:	f003 0302 	and.w	r3, r3, #2
 80075c4:	2b02      	cmp	r3, #2
 80075c6:	d112      	bne.n	80075ee <HAL_SPI_Transmit+0x150>
      {
        hspi->Instance->DR = *((uint16_t *)hspi->pTxBuffPtr);
 80075c8:	68fb      	ldr	r3, [r7, #12]
 80075ca:	6b1b      	ldr	r3, [r3, #48]	@ 0x30
 80075cc:	881a      	ldrh	r2, [r3, #0]
 80075ce:	68fb      	ldr	r3, [r7, #12]
 80075d0:	681b      	ldr	r3, [r3, #0]
 80075d2:	60da      	str	r2, [r3, #12]
        hspi->pTxBuffPtr += sizeof(uint16_t);
 80075d4:	68fb      	ldr	r3, [r7, #12]
 80075d6:	6b1b      	ldr	r3, [r3, #48]	@ 0x30
 80075d8:	1c9a      	adds	r2, r3, #2
 80075da:	68fb      	ldr	r3, [r7, #12]
 80075dc:	631a      	str	r2, [r3, #48]	@ 0x30
        hspi->TxXferCount--;
 80075de:	68fb      	ldr	r3, [r7, #12]
 80075e0:	8edb      	ldrh	r3, [r3, #54]	@ 0x36
 80075e2:	b29b      	uxth	r3, r3
 80075e4:	3b01      	subs	r3, #1
 80075e6:	b29a      	uxth	r2, r3
 80075e8:	68fb      	ldr	r3, [r7, #12]
 80075ea:	86da      	strh	r2, [r3, #54]	@ 0x36
 80075ec:	e015      	b.n	800761a <HAL_SPI_Transmit+0x17c>
      }
      else
      {
        /* Timeout management */
        if ((((HAL_GetTick() - tickstart) >=  Timeout) && (Timeout != HAL_MAX_DELAY)) || (Timeout == 0U))
 80075ee:	f7fb fe13 	bl	8003218 <HAL_GetTick>
 80075f2:	4602      	mov	r2, r0
 80075f4:	69bb      	ldr	r3, [r7, #24]
 80075f6:	1ad3      	subs	r3, r2, r3
 80075f8:	683a      	ldr	r2, [r7, #0]
 80075fa:	429a      	cmp	r2, r3
 80075fc:	d803      	bhi.n	8007606 <HAL_SPI_Transmit+0x168>
 80075fe:	683b      	ldr	r3, [r7, #0]
 8007600:	f1b3 3fff 	cmp.w	r3, #4294967295	@ 0xffffffff
 8007604:	d102      	bne.n	800760c <HAL_SPI_Transmit+0x16e>
 8007606:	683b      	ldr	r3, [r7, #0]
 8007608:	2b00      	cmp	r3, #0
 800760a:	d106      	bne.n	800761a <HAL_SPI_Transmit+0x17c>
        {
          errorcode = HAL_TIMEOUT;
 800760c:	2303      	movs	r3, #3
 800760e:	77fb      	strb	r3, [r7, #31]
          hspi->State = HAL_SPI_STATE_READY;
 8007610:	68fb      	ldr	r3, [r7, #12]
 8007612:	2201      	movs	r2, #1
 8007614:	f883 2051 	strb.w	r2, [r3, #81]	@ 0x51
          goto error;
 8007618:	e07b      	b.n	8007712 <HAL_SPI_Transmit+0x274>
    while (hspi->TxXferCount > 0U)
 800761a:	68fb      	ldr	r3, [r7, #12]
 800761c:	8edb      	ldrh	r3, [r3, #54]	@ 0x36
 800761e:	b29b      	uxth	r3, r3
 8007620:	2b00      	cmp	r3, #0
 8007622:	d1ca      	bne.n	80075ba <HAL_SPI_Transmit+0x11c>
 8007624:	e050      	b.n	80076c8 <HAL_SPI_Transmit+0x22a>
    }
  }
  /* Transmit data in 8 Bit mode */
  else
  {
    if ((hspi->Init.Mode == SPI_MODE_SLAVE) || (initial_TxXferCount == 0x01U))
 8007626:	68fb      	ldr	r3, [r7, #12]
 8007628:	685b      	ldr	r3, [r3, #4]
 800762a:	2b00      	cmp	r3, #0
 800762c:	d002      	beq.n	8007634 <HAL_SPI_Transmit+0x196>
 800762e:	8afb      	ldrh	r3, [r7, #22]
 8007630:	2b01      	cmp	r3, #1
 8007632:	d144      	bne.n	80076be <HAL_SPI_Transmit+0x220>
    {
      *((__IO uint8_t *)&hspi->Instance->DR) = (*hspi->pTxBuffPtr);
 8007634:	68fb      	ldr	r3, [r7, #12]
 8007636:	6b1a      	ldr	r2, [r3, #48]	@ 0x30
 8007638:	68fb      	ldr	r3, [r7, #12]
 800763a:	681b      	ldr	r3, [r3, #0]
 800763c:	330c      	adds	r3, #12
 800763e:	7812      	ldrb	r2, [r2, #0]
 8007640:	701a      	strb	r2, [r3, #0]
      hspi->pTxBuffPtr += sizeof(uint8_t);
 8007642:	68fb      	ldr	r3, [r7, #12]
 8007644:	6b1b      	ldr	r3, [r3, #48]	@ 0x30
 8007646:	1c5a      	adds	r2, r3, #1
 8007648:	68fb      	ldr	r3, [r7, #12]
 800764a:	631a      	str	r2, [r3, #48]	@ 0x30
      hspi->TxXferCount--;
 800764c:	68fb      	ldr	r3, [r7, #12]
 800764e:	8edb      	ldrh	r3, [r3, #54]	@ 0x36
 8007650:	b29b      	uxth	r3, r3
 8007652:	3b01      	subs	r3, #1
 8007654:	b29a      	uxth	r2, r3
 8007656:	68fb      	ldr	r3, [r7, #12]
 8007658:	86da      	strh	r2, [r3, #54]	@ 0x36
    }
    while (hspi->TxXferCount > 0U)
 800765a:	e030      	b.n	80076be <HAL_SPI_Transmit+0x220>
    {
      /* Wait until TXE flag is set to send data */
      if (__HAL_SPI_GET_FLAG(hspi, SPI_FLAG_TXE))
 800765c:	68fb      	ldr	r3, [r7, #12]
 800765e:	681b      	ldr	r3, [r3, #0]
 8007660:	689b      	ldr	r3, [r3, #8]
 8007662:	f003 0302 	and.w	r3, r3, #2
 8007666:	2b02      	cmp	r3, #2
 8007668:	d113      	bne.n	8007692 <HAL_SPI_Transmit+0x1f4>
      {
        *((__IO uint8_t *)&hspi->Instance->DR) = (*hspi->pTxBuffPtr);
 800766a:	68fb      	ldr	r3, [r7, #12]
 800766c:	6b1a      	ldr	r2, [r3, #48]	@ 0x30
 800766e:	68fb      	ldr	r3, [r7, #12]
 8007670:	681b      	ldr	r3, [r3, #0]
 8007672:	330c      	adds	r3, #12
 8007674:	7812      	ldrb	r2, [r2, #0]
 8007676:	701a      	strb	r2, [r3, #0]
        hspi->pTxBuffPtr += sizeof(uint8_t);
 8007678:	68fb      	ldr	r3, [r7, #12]
 800767a:	6b1b      	ldr	r3, [r3, #48]	@ 0x30
 800767c:	1c5a      	adds	r2, r3, #1
 800767e:	68fb      	ldr	r3, [r7, #12]
 8007680:	631a      	str	r2, [r3, #48]	@ 0x30
        hspi->TxXferCount--;
 8007682:	68fb      	ldr	r3, [r7, #12]
 8007684:	8edb      	ldrh	r3, [r3, #54]	@ 0x36
 8007686:	b29b      	uxth	r3, r3
 8007688:	3b01      	subs	r3, #1
 800768a:	b29a      	uxth	r2, r3
 800768c:	68fb      	ldr	r3, [r7, #12]
 800768e:	86da      	strh	r2, [r3, #54]	@ 0x36
 8007690:	e015      	b.n	80076be <HAL_SPI_Transmit+0x220>
      }
      else
      {
        /* Timeout management */
        if ((((HAL_GetTick() - tickstart) >=  Timeout) && (Timeout != HAL_MAX_DELAY)) || (Timeout == 0U))
 8007692:	f7fb fdc1 	bl	8003218 <HAL_GetTick>
 8007696:	4602      	mov	r2, r0
 8007698:	69bb      	ldr	r3, [r7, #24]
 800769a:	1ad3      	subs	r3, r2, r3
 800769c:	683a      	ldr	r2, [r7, #0]
 800769e:	429a      	cmp	r2, r3
 80076a0:	d803      	bhi.n	80076aa <HAL_SPI_Transmit+0x20c>
 80076a2:	683b      	ldr	r3, [r7, #0]
 80076a4:	f1b3 3fff 	cmp.w	r3, #4294967295	@ 0xffffffff
 80076a8:	d102      	bne.n	80076b0 <HAL_SPI_Transmit+0x212>
 80076aa:	683b      	ldr	r3, [r7, #0]
 80076ac:	2b00      	cmp	r3, #0
 80076ae:	d106      	bne.n	80076be <HAL_SPI_Transmit+0x220>
        {
          errorcode = HAL_TIMEOUT;
 80076b0:	2303      	movs	r3, #3
 80076b2:	77fb      	strb	r3, [r7, #31]
          hspi->State = HAL_SPI_STATE_READY;
 80076b4:	68fb      	ldr	r3, [r7, #12]
 80076b6:	2201      	movs	r2, #1
 80076b8:	f883 2051 	strb.w	r2, [r3, #81]	@ 0x51
          goto error;
 80076bc:	e029      	b.n	8007712 <HAL_SPI_Transmit+0x274>
    while (hspi->TxXferCount > 0U)
 80076be:	68fb      	ldr	r3, [r7, #12]
 80076c0:	8edb      	ldrh	r3, [r3, #54]	@ 0x36
 80076c2:	b29b      	uxth	r3, r3
 80076c4:	2b00      	cmp	r3, #0
 80076c6:	d1c9      	bne.n	800765c <HAL_SPI_Transmit+0x1be>
    SET_BIT(hspi->Instance->CR1, SPI_CR1_CRCNEXT);
  }
#endif /* USE_SPI_CRC */

  /* Check the end of the transaction */
  if (SPI_EndRxTxTransaction(hspi, Timeout, tickstart) != HAL_OK)
 80076c8:	69ba      	ldr	r2, [r7, #24]
 80076ca:	6839      	ldr	r1, [r7, #0]
 80076cc:	68f8      	ldr	r0, [r7, #12]
 80076ce:	f000 fd27 	bl	8008120 <SPI_EndRxTxTransaction>
 80076d2:	4603      	mov	r3, r0
 80076d4:	2b00      	cmp	r3, #0
 80076d6:	d002      	beq.n	80076de <HAL_SPI_Transmit+0x240>
  {
    hspi->ErrorCode = HAL_SPI_ERROR_FLAG;
 80076d8:	68fb      	ldr	r3, [r7, #12]
 80076da:	2220      	movs	r2, #32
 80076dc:	655a      	str	r2, [r3, #84]	@ 0x54
  }

  /* Clear overrun flag in 2 Lines communication mode because received is not read */
  if (hspi->Init.Direction == SPI_DIRECTION_2LINES)
 80076de:	68fb      	ldr	r3, [r7, #12]
 80076e0:	689b      	ldr	r3, [r3, #8]
 80076e2:	2b00      	cmp	r3, #0
 80076e4:	d10a      	bne.n	80076fc <HAL_SPI_Transmit+0x25e>
  {
    __HAL_SPI_CLEAR_OVRFLAG(hspi);
 80076e6:	2300      	movs	r3, #0
 80076e8:	613b      	str	r3, [r7, #16]
 80076ea:	68fb      	ldr	r3, [r7, #12]
 80076ec:	681b      	ldr	r3, [r3, #0]
 80076ee:	68db      	ldr	r3, [r3, #12]
 80076f0:	613b      	str	r3, [r7, #16]
 80076f2:	68fb      	ldr	r3, [r7, #12]
 80076f4:	681b      	ldr	r3, [r3, #0]
 80076f6:	689b      	ldr	r3, [r3, #8]
 80076f8:	613b      	str	r3, [r7, #16]
 80076fa:	693b      	ldr	r3, [r7, #16]
  }

  if (hspi->ErrorCode != HAL_SPI_ERROR_NONE)
 80076fc:	68fb      	ldr	r3, [r7, #12]
 80076fe:	6d5b      	ldr	r3, [r3, #84]	@ 0x54
 8007700:	2b00      	cmp	r3, #0
 8007702:	d002      	beq.n	800770a <HAL_SPI_Transmit+0x26c>
  {
    errorcode = HAL_ERROR;
 8007704:	2301      	movs	r3, #1
 8007706:	77fb      	strb	r3, [r7, #31]
 8007708:	e003      	b.n	8007712 <HAL_SPI_Transmit+0x274>
  }
  else
  {
    hspi->State = HAL_SPI_STATE_READY;
 800770a:	68fb      	ldr	r3, [r7, #12]
 800770c:	2201      	movs	r2, #1
 800770e:	f883 2051 	strb.w	r2, [r3, #81]	@ 0x51
  }

error:
  /* Process Unlocked */
  __HAL_UNLOCK(hspi);
 8007712:	68fb      	ldr	r3, [r7, #12]
 8007714:	2200      	movs	r2, #0
 8007716:	f883 2050 	strb.w	r2, [r3, #80]	@ 0x50
  return errorcode;
 800771a:	7ffb      	ldrb	r3, [r7, #31]
}
 800771c:	4618      	mov	r0, r3
 800771e:	3720      	adds	r7, #32
 8007720:	46bd      	mov	sp, r7
 8007722:	bd80      	pop	{r7, pc}

08007724 <HAL_SPI_Receive>:
  * @param  Size amount of data to be received
  * @param  Timeout Timeout duration
  * @retval HAL status
  */
HAL_StatusTypeDef HAL_SPI_Receive(SPI_HandleTypeDef *hspi, uint8_t *pData, uint16_t Size, uint32_t Timeout)
{
 8007724:	b580      	push	{r7, lr}
 8007726:	b088      	sub	sp, #32
 8007728:	af02      	add	r7, sp, #8
 800772a:	60f8      	str	r0, [r7, #12]
 800772c:	60b9      	str	r1, [r7, #8]
 800772e:	603b      	str	r3, [r7, #0]
 8007730:	4613      	mov	r3, r2
 8007732:	80fb      	strh	r3, [r7, #6]
#if (USE_SPI_CRC != 0U)
  __IO uint32_t tmpreg = 0U;
#endif /* USE_SPI_CRC */
  uint32_t tickstart;
  HAL_StatusTypeDef errorcode = HAL_OK;
 8007734:	2300      	movs	r3, #0
 8007736:	75fb      	strb	r3, [r7, #23]

  if (hspi->State != HAL_SPI_STATE_READY)
 8007738:	68fb      	ldr	r3, [r7, #12]
 800773a:	f893 3051 	ldrb.w	r3, [r3, #81]	@ 0x51
 800773e:	b2db      	uxtb	r3, r3
 8007740:	2b01      	cmp	r3, #1
 8007742:	d002      	beq.n	800774a <HAL_SPI_Receive+0x26>
  {
    errorcode = HAL_BUSY;
 8007744:	2302      	movs	r3, #2
 8007746:	75fb      	strb	r3, [r7, #23]
    goto error;
 8007748:	e0fb      	b.n	8007942 <HAL_SPI_Receive+0x21e>
  }

  if ((hspi->Init.Mode == SPI_MODE_MASTER) && (hspi->Init.Direction == SPI_DIRECTION_2LINES))
 800774a:	68fb      	ldr	r3, [r7, #12]
 800774c:	685b      	ldr	r3, [r3, #4]
 800774e:	f5b3 7f82 	cmp.w	r3, #260	@ 0x104
 8007752:	d112      	bne.n	800777a <HAL_SPI_Receive+0x56>
 8007754:	68fb      	ldr	r3, [r7, #12]
 8007756:	689b      	ldr	r3, [r3, #8]
 8007758:	2b00      	cmp	r3, #0
 800775a:	d10e      	bne.n	800777a <HAL_SPI_Receive+0x56>
  {
    hspi->State = HAL_SPI_STATE_BUSY_RX;
 800775c:	68fb      	ldr	r3, [r7, #12]
 800775e:	2204      	movs	r2, #4
 8007760:	f883 2051 	strb.w	r2, [r3, #81]	@ 0x51
    /* Call transmit-receive function to send Dummy data on Tx line and generate clock on CLK line */
    return HAL_SPI_TransmitReceive(hspi, pData, pData, Size, Timeout);
 8007764:	88fa      	ldrh	r2, [r7, #6]
 8007766:	683b      	ldr	r3, [r7, #0]
 8007768:	9300      	str	r3, [sp, #0]
 800776a:	4613      	mov	r3, r2
 800776c:	68ba      	ldr	r2, [r7, #8]
 800776e:	68b9      	ldr	r1, [r7, #8]
 8007770:	68f8      	ldr	r0, [r7, #12]
 8007772:	f000 f8ef 	bl	8007954 <HAL_SPI_TransmitReceive>
 8007776:	4603      	mov	r3, r0
 8007778:	e0e8      	b.n	800794c <HAL_SPI_Receive+0x228>
  }

  /* Process Locked */
  __HAL_LOCK(hspi);
 800777a:	68fb      	ldr	r3, [r7, #12]
 800777c:	f893 3050 	ldrb.w	r3, [r3, #80]	@ 0x50
 8007780:	2b01      	cmp	r3, #1
 8007782:	d101      	bne.n	8007788 <HAL_SPI_Receive+0x64>
 8007784:	2302      	movs	r3, #2
 8007786:	e0e1      	b.n	800794c <HAL_SPI_Receive+0x228>
 8007788:	68fb      	ldr	r3, [r7, #12]
 800778a:	2201      	movs	r2, #1
 800778c:	f883 2050 	strb.w	r2, [r3, #80]	@ 0x50

  /* Init tickstart for timeout management*/
  tickstart = HAL_GetTick();
 8007790:	f7fb fd42 	bl	8003218 <HAL_GetTick>
 8007794:	6138      	str	r0, [r7, #16]

  if ((pData == NULL) || (Size == 0U))
 8007796:	68bb      	ldr	r3, [r7, #8]
 8007798:	2b00      	cmp	r3, #0
 800779a:	d002      	beq.n	80077a2 <HAL_SPI_Receive+0x7e>
 800779c:	88fb      	ldrh	r3, [r7, #6]
 800779e:	2b00      	cmp	r3, #0
 80077a0:	d102      	bne.n	80077a8 <HAL_SPI_Receive+0x84>
  {
    errorcode = HAL_ERROR;
 80077a2:	2301      	movs	r3, #1
 80077a4:	75fb      	strb	r3, [r7, #23]
    goto error;
 80077a6:	e0cc      	b.n	8007942 <HAL_SPI_Receive+0x21e>
  }

  /* Set the transaction information */
  hspi->State       = HAL_SPI_STATE_BUSY_RX;
 80077a8:	68fb      	ldr	r3, [r7, #12]
 80077aa:	2204      	movs	r2, #4
 80077ac:	f883 2051 	strb.w	r2, [r3, #81]	@ 0x51
  hspi->ErrorCode   = HAL_SPI_ERROR_NONE;
 80077b0:	68fb      	ldr	r3, [r7, #12]
 80077b2:	2200      	movs	r2, #0
 80077b4:	655a      	str	r2, [r3, #84]	@ 0x54
  hspi->pRxBuffPtr  = (uint8_t *)pData;
 80077b6:	68fb      	ldr	r3, [r7, #12]
 80077b8:	68ba      	ldr	r2, [r7, #8]
 80077ba:	639a      	str	r2, [r3, #56]	@ 0x38
  hspi->RxXferSize  = Size;
 80077bc:	68fb      	ldr	r3, [r7, #12]
 80077be:	88fa      	ldrh	r2, [r7, #6]
 80077c0:	879a      	strh	r2, [r3, #60]	@ 0x3c
  hspi->RxXferCount = Size;
 80077c2:	68fb      	ldr	r3, [r7, #12]
 80077c4:	88fa      	ldrh	r2, [r7, #6]
 80077c6:	87da      	strh	r2, [r3, #62]	@ 0x3e

  /*Init field not used in handle to zero */
  hspi->pTxBuffPtr  = (uint8_t *)NULL;
 80077c8:	68fb      	ldr	r3, [r7, #12]
 80077ca:	2200      	movs	r2, #0
 80077cc:	631a      	str	r2, [r3, #48]	@ 0x30
  hspi->TxXferSize  = 0U;
 80077ce:	68fb      	ldr	r3, [r7, #12]
 80077d0:	2200      	movs	r2, #0
 80077d2:	869a      	strh	r2, [r3, #52]	@ 0x34
  hspi->TxXferCount = 0U;
 80077d4:	68fb      	ldr	r3, [r7, #12]
 80077d6:	2200      	movs	r2, #0
 80077d8:	86da      	strh	r2, [r3, #54]	@ 0x36
  hspi->RxISR       = NULL;
 80077da:	68fb      	ldr	r3, [r7, #12]
 80077dc:	2200      	movs	r2, #0
 80077de:	641a      	str	r2, [r3, #64]	@ 0x40
  hspi->TxISR       = NULL;
 80077e0:	68fb      	ldr	r3, [r7, #12]
 80077e2:	2200      	movs	r2, #0
 80077e4:	645a      	str	r2, [r3, #68]	@ 0x44
    hspi->RxXferCount--;
  }
#endif /* USE_SPI_CRC */

  /* Configure communication direction: 1Line */
  if (hspi->Init.Direction == SPI_DIRECTION_1LINE)
 80077e6:	68fb      	ldr	r3, [r7, #12]
 80077e8:	689b      	ldr	r3, [r3, #8]
 80077ea:	f5b3 4f00 	cmp.w	r3, #32768	@ 0x8000
 80077ee:	d10f      	bne.n	8007810 <HAL_SPI_Receive+0xec>
  {
    /* Disable SPI Peripheral before set 1Line direction (BIDIOE bit) */
    __HAL_SPI_DISABLE(hspi);
 80077f0:	68fb      	ldr	r3, [r7, #12]
 80077f2:	681b      	ldr	r3, [r3, #0]
 80077f4:	681a      	ldr	r2, [r3, #0]
 80077f6:	68fb      	ldr	r3, [r7, #12]
 80077f8:	681b      	ldr	r3, [r3, #0]
 80077fa:	f022 0240 	bic.w	r2, r2, #64	@ 0x40
 80077fe:	601a      	str	r2, [r3, #0]
    SPI_1LINE_RX(hspi);
 8007800:	68fb      	ldr	r3, [r7, #12]
 8007802:	681b      	ldr	r3, [r3, #0]
 8007804:	681a      	ldr	r2, [r3, #0]
 8007806:	68fb      	ldr	r3, [r7, #12]
 8007808:	681b      	ldr	r3, [r3, #0]
 800780a:	f422 4280 	bic.w	r2, r2, #16384	@ 0x4000
 800780e:	601a      	str	r2, [r3, #0]
  }

  /* Check if the SPI is already enabled */
  if ((hspi->Instance->CR1 & SPI_CR1_SPE) != SPI_CR1_SPE)
 8007810:	68fb      	ldr	r3, [r7, #12]
 8007812:	681b      	ldr	r3, [r3, #0]
 8007814:	681b      	ldr	r3, [r3, #0]
 8007816:	f003 0340 	and.w	r3, r3, #64	@ 0x40
 800781a:	2b40      	cmp	r3, #64	@ 0x40
 800781c:	d007      	beq.n	800782e <HAL_SPI_Receive+0x10a>
  {
    /* Enable SPI peripheral */
    __HAL_SPI_ENABLE(hspi);
 800781e:	68fb      	ldr	r3, [r7, #12]
 8007820:	681b      	ldr	r3, [r3, #0]
 8007822:	681a      	ldr	r2, [r3, #0]
 8007824:	68fb      	ldr	r3, [r7, #12]
 8007826:	681b      	ldr	r3, [r3, #0]
 8007828:	f042 0240 	orr.w	r2, r2, #64	@ 0x40
 800782c:	601a      	str	r2, [r3, #0]
  }

  /* Receive data in 8 Bit mode */
  if (hspi->Init.DataSize == SPI_DATASIZE_8BIT)
 800782e:	68fb      	ldr	r3, [r7, #12]
 8007830:	68db      	ldr	r3, [r3, #12]
 8007832:	2b00      	cmp	r3, #0
 8007834:	d16a      	bne.n	800790c <HAL_SPI_Receive+0x1e8>
  {
    /* Transfer loop */
    while (hspi->RxXferCount > 0U)
 8007836:	e032      	b.n	800789e <HAL_SPI_Receive+0x17a>
    {
      /* Check the RXNE flag */
      if (__HAL_SPI_GET_FLAG(hspi, SPI_FLAG_RXNE))
 8007838:	68fb      	ldr	r3, [r7, #12]
 800783a:	681b      	ldr	r3, [r3, #0]
 800783c:	689b      	ldr	r3, [r3, #8]
 800783e:	f003 0301 	and.w	r3, r3, #1
 8007842:	2b01      	cmp	r3, #1
 8007844:	d115      	bne.n	8007872 <HAL_SPI_Receive+0x14e>
      {
        /* read the received data */
        (* (uint8_t *)hspi->pRxBuffPtr) = *(__IO uint8_t *)&hspi->Instance->DR;
 8007846:	68fb      	ldr	r3, [r7, #12]
 8007848:	681b      	ldr	r3, [r3, #0]
 800784a:	f103 020c 	add.w	r2, r3, #12
 800784e:	68fb      	ldr	r3, [r7, #12]
 8007850:	6b9b      	ldr	r3, [r3, #56]	@ 0x38
 8007852:	7812      	ldrb	r2, [r2, #0]
 8007854:	b2d2      	uxtb	r2, r2
 8007856:	701a      	strb	r2, [r3, #0]
        hspi->pRxBuffPtr += sizeof(uint8_t);
 8007858:	68fb      	ldr	r3, [r7, #12]
 800785a:	6b9b      	ldr	r3, [r3, #56]	@ 0x38
 800785c:	1c5a      	adds	r2, r3, #1
 800785e:	68fb      	ldr	r3, [r7, #12]
 8007860:	639a      	str	r2, [r3, #56]	@ 0x38
        hspi->RxXferCount--;
 8007862:	68fb      	ldr	r3, [r7, #12]
 8007864:	8fdb      	ldrh	r3, [r3, #62]	@ 0x3e
 8007866:	b29b      	uxth	r3, r3
 8007868:	3b01      	subs	r3, #1
 800786a:	b29a      	uxth	r2, r3
 800786c:	68fb      	ldr	r3, [r7, #12]
 800786e:	87da      	strh	r2, [r3, #62]	@ 0x3e
 8007870:	e015      	b.n	800789e <HAL_SPI_Receive+0x17a>
      }
      else
      {
        /* Timeout management */
        if ((((HAL_GetTick() - tickstart) >=  Timeout) && (Timeout != HAL_MAX_DELAY)) || (Timeout == 0U))
 8007872:	f7fb fcd1 	bl	8003218 <HAL_GetTick>
 8007876:	4602      	mov	r2, r0
 8007878:	693b      	ldr	r3, [r7, #16]
 800787a:	1ad3      	subs	r3, r2, r3
 800787c:	683a      	ldr	r2, [r7, #0]
 800787e:	429a      	cmp	r2, r3
 8007880:	d803      	bhi.n	800788a <HAL_SPI_Receive+0x166>
 8007882:	683b      	ldr	r3, [r7, #0]
 8007884:	f1b3 3fff 	cmp.w	r3, #4294967295	@ 0xffffffff
 8007888:	d102      	bne.n	8007890 <HAL_SPI_Receive+0x16c>
 800788a:	683b      	ldr	r3, [r7, #0]
 800788c:	2b00      	cmp	r3, #0
 800788e:	d106      	bne.n	800789e <HAL_SPI_Receive+0x17a>
        {
          errorcode = HAL_TIMEOUT;
 8007890:	2303      	movs	r3, #3
 8007892:	75fb      	strb	r3, [r7, #23]
          hspi->State = HAL_SPI_STATE_READY;
 8007894:	68fb      	ldr	r3, [r7, #12]
 8007896:	2201      	movs	r2, #1
 8007898:	f883 2051 	strb.w	r2, [r3, #81]	@ 0x51
          goto error;
 800789c:	e051      	b.n	8007942 <HAL_SPI_Receive+0x21e>
    while (hspi->RxXferCount > 0U)
 800789e:	68fb      	ldr	r3, [r7, #12]
 80078a0:	8fdb      	ldrh	r3, [r3, #62]	@ 0x3e
 80078a2:	b29b      	uxth	r3, r3
 80078a4:	2b00      	cmp	r3, #0
 80078a6:	d1c7      	bne.n	8007838 <HAL_SPI_Receive+0x114>
 80078a8:	e035      	b.n	8007916 <HAL_SPI_Receive+0x1f2>
  {
    /* Transfer loop */
    while (hspi->RxXferCount > 0U)
    {
      /* Check the RXNE flag */
      if (__HAL_SPI_GET_FLAG(hspi, SPI_FLAG_RXNE))
 80078aa:	68fb      	ldr	r3, [r7, #12]
 80078ac:	681b      	ldr	r3, [r3, #0]
 80078ae:	689b      	ldr	r3, [r3, #8]
 80078b0:	f003 0301 	and.w	r3, r3, #1
 80078b4:	2b01      	cmp	r3, #1
 80078b6:	d113      	bne.n	80078e0 <HAL_SPI_Receive+0x1bc>
      {
        *((uint16_t *)hspi->pRxBuffPtr) = (uint16_t)hspi->Instance->DR;
 80078b8:	68fb      	ldr	r3, [r7, #12]
 80078ba:	681b      	ldr	r3, [r3, #0]
 80078bc:	68da      	ldr	r2, [r3, #12]
 80078be:	68fb      	ldr	r3, [r7, #12]
 80078c0:	6b9b      	ldr	r3, [r3, #56]	@ 0x38
 80078c2:	b292      	uxth	r2, r2
 80078c4:	801a      	strh	r2, [r3, #0]
        hspi->pRxBuffPtr += sizeof(uint16_t);
 80078c6:	68fb      	ldr	r3, [r7, #12]
 80078c8:	6b9b      	ldr	r3, [r3, #56]	@ 0x38
 80078ca:	1c9a      	adds	r2, r3, #2
 80078cc:	68fb      	ldr	r3, [r7, #12]
 80078ce:	639a      	str	r2, [r3, #56]	@ 0x38
        hspi->RxXferCount--;
 80078d0:	68fb      	ldr	r3, [r7, #12]
 80078d2:	8fdb      	ldrh	r3, [r3, #62]	@ 0x3e
 80078d4:	b29b      	uxth	r3, r3
 80078d6:	3b01      	subs	r3, #1
 80078d8:	b29a      	uxth	r2, r3
 80078da:	68fb      	ldr	r3, [r7, #12]
 80078dc:	87da      	strh	r2, [r3, #62]	@ 0x3e
 80078de:	e015      	b.n	800790c <HAL_SPI_Receive+0x1e8>
      }
      else
      {
        /* Timeout management */
        if ((((HAL_GetTick() - tickstart) >=  Timeout) && (Timeout != HAL_MAX_DELAY)) || (Timeout == 0U))
 80078e0:	f7fb fc9a 	bl	8003218 <HAL_GetTick>
 80078e4:	4602      	mov	r2, r0
 80078e6:	693b      	ldr	r3, [r7, #16]
 80078e8:	1ad3      	subs	r3, r2, r3
 80078ea:	683a      	ldr	r2, [r7, #0]
 80078ec:	429a      	cmp	r2, r3
 80078ee:	d803      	bhi.n	80078f8 <HAL_SPI_Receive+0x1d4>
 80078f0:	683b      	ldr	r3, [r7, #0]
 80078f2:	f1b3 3fff 	cmp.w	r3, #4294967295	@ 0xffffffff
 80078f6:	d102      	bne.n	80078fe <HAL_SPI_Receive+0x1da>
 80078f8:	683b      	ldr	r3, [r7, #0]
 80078fa:	2b00      	cmp	r3, #0
 80078fc:	d106      	bne.n	800790c <HAL_SPI_Receive+0x1e8>
        {
          errorcode = HAL_TIMEOUT;
 80078fe:	2303      	movs	r3, #3
 8007900:	75fb      	strb	r3, [r7, #23]
          hspi->State = HAL_SPI_STATE_READY;
 8007902:	68fb      	ldr	r3, [r7, #12]
 8007904:	2201      	movs	r2, #1
 8007906:	f883 2051 	strb.w	r2, [r3, #81]	@ 0x51
          goto error;
 800790a:	e01a      	b.n	8007942 <HAL_SPI_Receive+0x21e>
    while (hspi->RxXferCount > 0U)
 800790c:	68fb      	ldr	r3, [r7, #12]
 800790e:	8fdb      	ldrh	r3, [r3, #62]	@ 0x3e
 8007910:	b29b      	uxth	r3, r3
 8007912:	2b00      	cmp	r3, #0
 8007914:	d1c9      	bne.n	80078aa <HAL_SPI_Receive+0x186>
    UNUSED(tmpreg);
  }
#endif /* USE_SPI_CRC */

  /* Check the end of the transaction */
  if (SPI_EndRxTransaction(hspi, Timeout, tickstart) != HAL_OK)
 8007916:	693a      	ldr	r2, [r7, #16]
 8007918:	6839      	ldr	r1, [r7, #0]
 800791a:	68f8      	ldr	r0, [r7, #12]
 800791c:	f000 fb9a 	bl	8008054 <SPI_EndRxTransaction>
 8007920:	4603      	mov	r3, r0
 8007922:	2b00      	cmp	r3, #0
 8007924:	d002      	beq.n	800792c <HAL_SPI_Receive+0x208>
  {
    hspi->ErrorCode = HAL_SPI_ERROR_FLAG;
 8007926:	68fb      	ldr	r3, [r7, #12]
 8007928:	2220      	movs	r2, #32
 800792a:	655a      	str	r2, [r3, #84]	@ 0x54
    SET_BIT(hspi->ErrorCode, HAL_SPI_ERROR_CRC);
    __HAL_SPI_CLEAR_CRCERRFLAG(hspi);
  }
#endif /* USE_SPI_CRC */

  if (hspi->ErrorCode != HAL_SPI_ERROR_NONE)
 800792c:	68fb      	ldr	r3, [r7, #12]
 800792e:	6d5b      	ldr	r3, [r3, #84]	@ 0x54
 8007930:	2b00      	cmp	r3, #0
 8007932:	d002      	beq.n	800793a <HAL_SPI_Receive+0x216>
  {
    errorcode = HAL_ERROR;
 8007934:	2301      	movs	r3, #1
 8007936:	75fb      	strb	r3, [r7, #23]
 8007938:	e003      	b.n	8007942 <HAL_SPI_Receive+0x21e>
  }
  else
  {
    hspi->State = HAL_SPI_STATE_READY;
 800793a:	68fb      	ldr	r3, [r7, #12]
 800793c:	2201      	movs	r2, #1
 800793e:	f883 2051 	strb.w	r2, [r3, #81]	@ 0x51
  }

error :
  __HAL_UNLOCK(hspi);
 8007942:	68fb      	ldr	r3, [r7, #12]
 8007944:	2200      	movs	r2, #0
 8007946:	f883 2050 	strb.w	r2, [r3, #80]	@ 0x50
  return errorcode;
 800794a:	7dfb      	ldrb	r3, [r7, #23]
}
 800794c:	4618      	mov	r0, r3
 800794e:	3718      	adds	r7, #24
 8007950:	46bd      	mov	sp, r7
 8007952:	bd80      	pop	{r7, pc}

08007954 <HAL_SPI_TransmitReceive>:
  * @param  Timeout Timeout duration
  * @retval HAL status
  */
HAL_StatusTypeDef HAL_SPI_TransmitReceive(SPI_HandleTypeDef *hspi, uint8_t *pTxData, uint8_t *pRxData, uint16_t Size,
                                          uint32_t Timeout)
{
 8007954:	b580      	push	{r7, lr}
 8007956:	b08c      	sub	sp, #48	@ 0x30
 8007958:	af00      	add	r7, sp, #0
 800795a:	60f8      	str	r0, [r7, #12]
 800795c:	60b9      	str	r1, [r7, #8]
 800795e:	607a      	str	r2, [r7, #4]
 8007960:	807b      	strh	r3, [r7, #2]
#if (USE_SPI_CRC != 0U)
  __IO uint32_t tmpreg = 0U;
#endif /* USE_SPI_CRC */

  /* Variable used to alternate Rx and Tx during transfer */
  uint32_t             txallowed = 1U;
 8007962:	2301      	movs	r3, #1
 8007964:	62fb      	str	r3, [r7, #44]	@ 0x2c
  HAL_StatusTypeDef    errorcode = HAL_OK;
 8007966:	2300      	movs	r3, #0
 8007968:	f887 302b 	strb.w	r3, [r7, #43]	@ 0x2b

  /* Check Direction parameter */
  assert_param(IS_SPI_DIRECTION_2LINES(hspi->Init.Direction));

  /* Process Locked */
  __HAL_LOCK(hspi);
 800796c:	68fb      	ldr	r3, [r7, #12]
 800796e:	f893 3050 	ldrb.w	r3, [r3, #80]	@ 0x50
 8007972:	2b01      	cmp	r3, #1
 8007974:	d101      	bne.n	800797a <HAL_SPI_TransmitReceive+0x26>
 8007976:	2302      	movs	r3, #2
 8007978:	e198      	b.n	8007cac <HAL_SPI_TransmitReceive+0x358>
 800797a:	68fb      	ldr	r3, [r7, #12]
 800797c:	2201      	movs	r2, #1
 800797e:	f883 2050 	strb.w	r2, [r3, #80]	@ 0x50

  /* Init tickstart for timeout management*/
  tickstart = HAL_GetTick();
 8007982:	f7fb fc49 	bl	8003218 <HAL_GetTick>
 8007986:	6278      	str	r0, [r7, #36]	@ 0x24

  /* Init temporary variables */
  tmp_state           = hspi->State;
 8007988:	68fb      	ldr	r3, [r7, #12]
 800798a:	f893 3051 	ldrb.w	r3, [r3, #81]	@ 0x51
 800798e:	f887 3023 	strb.w	r3, [r7, #35]	@ 0x23
  tmp_mode            = hspi->Init.Mode;
 8007992:	68fb      	ldr	r3, [r7, #12]
 8007994:	685b      	ldr	r3, [r3, #4]
 8007996:	61fb      	str	r3, [r7, #28]
  initial_TxXferCount = Size;
 8007998:	887b      	ldrh	r3, [r7, #2]
 800799a:	837b      	strh	r3, [r7, #26]

  if (!((tmp_state == HAL_SPI_STATE_READY) || \
 800799c:	f897 3023 	ldrb.w	r3, [r7, #35]	@ 0x23
 80079a0:	2b01      	cmp	r3, #1
 80079a2:	d00f      	beq.n	80079c4 <HAL_SPI_TransmitReceive+0x70>
 80079a4:	69fb      	ldr	r3, [r7, #28]
 80079a6:	f5b3 7f82 	cmp.w	r3, #260	@ 0x104
 80079aa:	d107      	bne.n	80079bc <HAL_SPI_TransmitReceive+0x68>
        ((tmp_mode == SPI_MODE_MASTER) && (hspi->Init.Direction == SPI_DIRECTION_2LINES) && (tmp_state == HAL_SPI_STATE_BUSY_RX))))
 80079ac:	68fb      	ldr	r3, [r7, #12]
 80079ae:	689b      	ldr	r3, [r3, #8]
 80079b0:	2b00      	cmp	r3, #0
 80079b2:	d103      	bne.n	80079bc <HAL_SPI_TransmitReceive+0x68>
 80079b4:	f897 3023 	ldrb.w	r3, [r7, #35]	@ 0x23
 80079b8:	2b04      	cmp	r3, #4
 80079ba:	d003      	beq.n	80079c4 <HAL_SPI_TransmitReceive+0x70>
  {
    errorcode = HAL_BUSY;
 80079bc:	2302      	movs	r3, #2
 80079be:	f887 302b 	strb.w	r3, [r7, #43]	@ 0x2b
    goto error;
 80079c2:	e16d      	b.n	8007ca0 <HAL_SPI_TransmitReceive+0x34c>
  }

  if ((pTxData == NULL) || (pRxData == NULL) || (Size == 0U))
 80079c4:	68bb      	ldr	r3, [r7, #8]
 80079c6:	2b00      	cmp	r3, #0
 80079c8:	d005      	beq.n	80079d6 <HAL_SPI_TransmitReceive+0x82>
 80079ca:	687b      	ldr	r3, [r7, #4]
 80079cc:	2b00      	cmp	r3, #0
 80079ce:	d002      	beq.n	80079d6 <HAL_SPI_TransmitReceive+0x82>
 80079d0:	887b      	ldrh	r3, [r7, #2]
 80079d2:	2b00      	cmp	r3, #0
 80079d4:	d103      	bne.n	80079de <HAL_SPI_TransmitReceive+0x8a>
  {
    errorcode = HAL_ERROR;
 80079d6:	2301      	movs	r3, #1
 80079d8:	f887 302b 	strb.w	r3, [r7, #43]	@ 0x2b
    goto error;
 80079dc:	e160      	b.n	8007ca0 <HAL_SPI_TransmitReceive+0x34c>
  }

  /* Don't overwrite in case of HAL_SPI_STATE_BUSY_RX */
  if (hspi->State != HAL_SPI_STATE_BUSY_RX)
 80079de:	68fb      	ldr	r3, [r7, #12]
 80079e0:	f893 3051 	ldrb.w	r3, [r3, #81]	@ 0x51
 80079e4:	b2db      	uxtb	r3, r3
 80079e6:	2b04      	cmp	r3, #4
 80079e8:	d003      	beq.n	80079f2 <HAL_SPI_TransmitReceive+0x9e>
  {
    hspi->State = HAL_SPI_STATE_BUSY_TX_RX;
 80079ea:	68fb      	ldr	r3, [r7, #12]
 80079ec:	2205      	movs	r2, #5
 80079ee:	f883 2051 	strb.w	r2, [r3, #81]	@ 0x51
  }

  /* Set the transaction information */
  hspi->ErrorCode   = HAL_SPI_ERROR_NONE;
 80079f2:	68fb      	ldr	r3, [r7, #12]
 80079f4:	2200      	movs	r2, #0
 80079f6:	655a      	str	r2, [r3, #84]	@ 0x54
  hspi->pRxBuffPtr  = (uint8_t *)pRxData;
 80079f8:	68fb      	ldr	r3, [r7, #12]
 80079fa:	687a      	ldr	r2, [r7, #4]
 80079fc:	639a      	str	r2, [r3, #56]	@ 0x38
  hspi->RxXferCount = Size;
 80079fe:	68fb      	ldr	r3, [r7, #12]
 8007a00:	887a      	ldrh	r2, [r7, #2]
 8007a02:	87da      	strh	r2, [r3, #62]	@ 0x3e
  hspi->RxXferSize  = Size;
 8007a04:	68fb      	ldr	r3, [r7, #12]
 8007a06:	887a      	ldrh	r2, [r7, #2]
 8007a08:	879a      	strh	r2, [r3, #60]	@ 0x3c
  hspi->pTxBuffPtr  = (uint8_t *)pTxData;
 8007a0a:	68fb      	ldr	r3, [r7, #12]
 8007a0c:	68ba      	ldr	r2, [r7, #8]
 8007a0e:	631a      	str	r2, [r3, #48]	@ 0x30
  hspi->TxXferCount = Size;
 8007a10:	68fb      	ldr	r3, [r7, #12]
 8007a12:	887a      	ldrh	r2, [r7, #2]
 8007a14:	86da      	strh	r2, [r3, #54]	@ 0x36
  hspi->TxXferSize  = Size;
 8007a16:	68fb      	ldr	r3, [r7, #12]
 8007a18:	887a      	ldrh	r2, [r7, #2]
 8007a1a:	869a      	strh	r2, [r3, #52]	@ 0x34

  /*Init field not used in handle to zero */
  hspi->RxISR       = NULL;
 8007a1c:	68fb      	ldr	r3, [r7, #12]
 8007a1e:	2200      	movs	r2, #0
 8007a20:	641a      	str	r2, [r3, #64]	@ 0x40
  hspi->TxISR       = NULL;
 8007a22:	68fb      	ldr	r3, [r7, #12]
 8007a24:	2200      	movs	r2, #0
 8007a26:	645a      	str	r2, [r3, #68]	@ 0x44
    SPI_RESET_CRC(hspi);
  }
#endif /* USE_SPI_CRC */

  /* Check if the SPI is already enabled */
  if ((hspi->Instance->CR1 & SPI_CR1_SPE) != SPI_CR1_SPE)
 8007a28:	68fb      	ldr	r3, [r7, #12]
 8007a2a:	681b      	ldr	r3, [r3, #0]
 8007a2c:	681b      	ldr	r3, [r3, #0]
 8007a2e:	f003 0340 	and.w	r3, r3, #64	@ 0x40
 8007a32:	2b40      	cmp	r3, #64	@ 0x40
 8007a34:	d007      	beq.n	8007a46 <HAL_SPI_TransmitReceive+0xf2>
  {
    /* Enable SPI peripheral */
    __HAL_SPI_ENABLE(hspi);
 8007a36:	68fb      	ldr	r3, [r7, #12]
 8007a38:	681b      	ldr	r3, [r3, #0]
 8007a3a:	681a      	ldr	r2, [r3, #0]
 8007a3c:	68fb      	ldr	r3, [r7, #12]
 8007a3e:	681b      	ldr	r3, [r3, #0]
 8007a40:	f042 0240 	orr.w	r2, r2, #64	@ 0x40
 8007a44:	601a      	str	r2, [r3, #0]
  }

  /* Transmit and Receive data in 16 Bit mode */
  if (hspi->Init.DataSize == SPI_DATASIZE_16BIT)
 8007a46:	68fb      	ldr	r3, [r7, #12]
 8007a48:	68db      	ldr	r3, [r3, #12]
 8007a4a:	f5b3 6f00 	cmp.w	r3, #2048	@ 0x800
 8007a4e:	d17c      	bne.n	8007b4a <HAL_SPI_TransmitReceive+0x1f6>
  {
    if ((hspi->Init.Mode == SPI_MODE_SLAVE) || (initial_TxXferCount == 0x01U))
 8007a50:	68fb      	ldr	r3, [r7, #12]
 8007a52:	685b      	ldr	r3, [r3, #4]
 8007a54:	2b00      	cmp	r3, #0
 8007a56:	d002      	beq.n	8007a5e <HAL_SPI_TransmitReceive+0x10a>
 8007a58:	8b7b      	ldrh	r3, [r7, #26]
 8007a5a:	2b01      	cmp	r3, #1
 8007a5c:	d16a      	bne.n	8007b34 <HAL_SPI_TransmitReceive+0x1e0>
    {
      hspi->Instance->DR = *((uint16_t *)hspi->pTxBuffPtr);
 8007a5e:	68fb      	ldr	r3, [r7, #12]
 8007a60:	6b1b      	ldr	r3, [r3, #48]	@ 0x30
 8007a62:	881a      	ldrh	r2, [r3, #0]
 8007a64:	68fb      	ldr	r3, [r7, #12]
 8007a66:	681b      	ldr	r3, [r3, #0]
 8007a68:	60da      	str	r2, [r3, #12]
      hspi->pTxBuffPtr += sizeof(uint16_t);
 8007a6a:	68fb      	ldr	r3, [r7, #12]
 8007a6c:	6b1b      	ldr	r3, [r3, #48]	@ 0x30
 8007a6e:	1c9a      	adds	r2, r3, #2
 8007a70:	68fb      	ldr	r3, [r7, #12]
 8007a72:	631a      	str	r2, [r3, #48]	@ 0x30
      hspi->TxXferCount--;
 8007a74:	68fb      	ldr	r3, [r7, #12]
 8007a76:	8edb      	ldrh	r3, [r3, #54]	@ 0x36
 8007a78:	b29b      	uxth	r3, r3
 8007a7a:	3b01      	subs	r3, #1
 8007a7c:	b29a      	uxth	r2, r3
 8007a7e:	68fb      	ldr	r3, [r7, #12]
 8007a80:	86da      	strh	r2, [r3, #54]	@ 0x36
        SET_BIT(hspi->Instance->CR1, SPI_CR1_CRCNEXT);
      }
#endif /* USE_SPI_CRC */

    }
    while ((hspi->TxXferCount > 0U) || (hspi->RxXferCount > 0U))
 8007a82:	e057      	b.n	8007b34 <HAL_SPI_TransmitReceive+0x1e0>
    {
      /* Check TXE flag */
      if ((__HAL_SPI_GET_FLAG(hspi, SPI_FLAG_TXE)) && (hspi->TxXferCount > 0U) && (txallowed == 1U))
 8007a84:	68fb      	ldr	r3, [r7, #12]
 8007a86:	681b      	ldr	r3, [r3, #0]
 8007a88:	689b      	ldr	r3, [r3, #8]
 8007a8a:	f003 0302 	and.w	r3, r3, #2
 8007a8e:	2b02      	cmp	r3, #2
 8007a90:	d11b      	bne.n	8007aca <HAL_SPI_TransmitReceive+0x176>
 8007a92:	68fb      	ldr	r3, [r7, #12]
 8007a94:	8edb      	ldrh	r3, [r3, #54]	@ 0x36
 8007a96:	b29b      	uxth	r3, r3
 8007a98:	2b00      	cmp	r3, #0
 8007a9a:	d016      	beq.n	8007aca <HAL_SPI_TransmitReceive+0x176>
 8007a9c:	6afb      	ldr	r3, [r7, #44]	@ 0x2c
 8007a9e:	2b01      	cmp	r3, #1
 8007aa0:	d113      	bne.n	8007aca <HAL_SPI_TransmitReceive+0x176>
      {
        hspi->Instance->DR = *((uint16_t *)hspi->pTxBuffPtr);
 8007aa2:	68fb      	ldr	r3, [r7, #12]
 8007aa4:	6b1b      	ldr	r3, [r3, #48]	@ 0x30
 8007aa6:	881a      	ldrh	r2, [r3, #0]
 8007aa8:	68fb      	ldr	r3, [r7, #12]
 8007aaa:	681b      	ldr	r3, [r3, #0]
 8007aac:	60da      	str	r2, [r3, #12]
        hspi->pTxBuffPtr += sizeof(uint16_t);
 8007aae:	68fb      	ldr	r3, [r7, #12]
 8007ab0:	6b1b      	ldr	r3, [r3, #48]	@ 0x30
 8007ab2:	1c9a      	adds	r2, r3, #2
 8007ab4:	68fb      	ldr	r3, [r7, #12]
 8007ab6:	631a      	str	r2, [r3, #48]	@ 0x30
        hspi->TxXferCount--;
 8007ab8:	68fb      	ldr	r3, [r7, #12]
 8007aba:	8edb      	ldrh	r3, [r3, #54]	@ 0x36
 8007abc:	b29b      	uxth	r3, r3
 8007abe:	3b01      	subs	r3, #1
 8007ac0:	b29a      	uxth	r2, r3
 8007ac2:	68fb      	ldr	r3, [r7, #12]
 8007ac4:	86da      	strh	r2, [r3, #54]	@ 0x36
        /* Next Data is a reception (Rx). Tx not allowed */
        txallowed = 0U;
 8007ac6:	2300      	movs	r3, #0
 8007ac8:	62fb      	str	r3, [r7, #44]	@ 0x2c
        }
#endif /* USE_SPI_CRC */
      }

      /* Check RXNE flag */
      if ((__HAL_SPI_GET_FLAG(hspi, SPI_FLAG_RXNE)) && (hspi->RxXferCount > 0U))
 8007aca:	68fb      	ldr	r3, [r7, #12]
 8007acc:	681b      	ldr	r3, [r3, #0]
 8007ace:	689b      	ldr	r3, [r3, #8]
 8007ad0:	f003 0301 	and.w	r3, r3, #1
 8007ad4:	2b01      	cmp	r3, #1
 8007ad6:	d119      	bne.n	8007b0c <HAL_SPI_TransmitReceive+0x1b8>
 8007ad8:	68fb      	ldr	r3, [r7, #12]
 8007ada:	8fdb      	ldrh	r3, [r3, #62]	@ 0x3e
 8007adc:	b29b      	uxth	r3, r3
 8007ade:	2b00      	cmp	r3, #0
 8007ae0:	d014      	beq.n	8007b0c <HAL_SPI_TransmitReceive+0x1b8>
      {
        *((uint16_t *)hspi->pRxBuffPtr) = (uint16_t)hspi->Instance->DR;
 8007ae2:	68fb      	ldr	r3, [r7, #12]
 8007ae4:	681b      	ldr	r3, [r3, #0]
 8007ae6:	68da      	ldr	r2, [r3, #12]
 8007ae8:	68fb      	ldr	r3, [r7, #12]
 8007aea:	6b9b      	ldr	r3, [r3, #56]	@ 0x38
 8007aec:	b292      	uxth	r2, r2
 8007aee:	801a      	strh	r2, [r3, #0]
        hspi->pRxBuffPtr += sizeof(uint16_t);
 8007af0:	68fb      	ldr	r3, [r7, #12]
 8007af2:	6b9b      	ldr	r3, [r3, #56]	@ 0x38
 8007af4:	1c9a      	adds	r2, r3, #2
 8007af6:	68fb      	ldr	r3, [r7, #12]
 8007af8:	639a      	str	r2, [r3, #56]	@ 0x38
        hspi->RxXferCount--;
 8007afa:	68fb      	ldr	r3, [r7, #12]
 8007afc:	8fdb      	ldrh	r3, [r3, #62]	@ 0x3e
 8007afe:	b29b      	uxth	r3, r3
 8007b00:	3b01      	subs	r3, #1
 8007b02:	b29a      	uxth	r2, r3
 8007b04:	68fb      	ldr	r3, [r7, #12]
 8007b06:	87da      	strh	r2, [r3, #62]	@ 0x3e
        /* Next Data is a Transmission (Tx). Tx is allowed */
        txallowed = 1U;
 8007b08:	2301      	movs	r3, #1
 8007b0a:	62fb      	str	r3, [r7, #44]	@ 0x2c
      }
      if (((HAL_GetTick() - tickstart) >=  Timeout) && (Timeout != HAL_MAX_DELAY))
 8007b0c:	f7fb fb84 	bl	8003218 <HAL_GetTick>
 8007b10:	4602      	mov	r2, r0
 8007b12:	6a7b      	ldr	r3, [r7, #36]	@ 0x24
 8007b14:	1ad3      	subs	r3, r2, r3
 8007b16:	6bba      	ldr	r2, [r7, #56]	@ 0x38
 8007b18:	429a      	cmp	r2, r3
 8007b1a:	d80b      	bhi.n	8007b34 <HAL_SPI_TransmitReceive+0x1e0>
 8007b1c:	6bbb      	ldr	r3, [r7, #56]	@ 0x38
 8007b1e:	f1b3 3fff 	cmp.w	r3, #4294967295	@ 0xffffffff
 8007b22:	d007      	beq.n	8007b34 <HAL_SPI_TransmitReceive+0x1e0>
      {
        errorcode = HAL_TIMEOUT;
 8007b24:	2303      	movs	r3, #3
 8007b26:	f887 302b 	strb.w	r3, [r7, #43]	@ 0x2b
        hspi->State = HAL_SPI_STATE_READY;
 8007b2a:	68fb      	ldr	r3, [r7, #12]
 8007b2c:	2201      	movs	r2, #1
 8007b2e:	f883 2051 	strb.w	r2, [r3, #81]	@ 0x51
        goto error;
 8007b32:	e0b5      	b.n	8007ca0 <HAL_SPI_TransmitReceive+0x34c>
    while ((hspi->TxXferCount > 0U) || (hspi->RxXferCount > 0U))
 8007b34:	68fb      	ldr	r3, [r7, #12]
 8007b36:	8edb      	ldrh	r3, [r3, #54]	@ 0x36
 8007b38:	b29b      	uxth	r3, r3
 8007b3a:	2b00      	cmp	r3, #0
 8007b3c:	d1a2      	bne.n	8007a84 <HAL_SPI_TransmitReceive+0x130>
 8007b3e:	68fb      	ldr	r3, [r7, #12]
 8007b40:	8fdb      	ldrh	r3, [r3, #62]	@ 0x3e
 8007b42:	b29b      	uxth	r3, r3
 8007b44:	2b00      	cmp	r3, #0
 8007b46:	d19d      	bne.n	8007a84 <HAL_SPI_TransmitReceive+0x130>
 8007b48:	e080      	b.n	8007c4c <HAL_SPI_TransmitReceive+0x2f8>
    }
  }
  /* Transmit and Receive data in 8 Bit mode */
  else
  {
    if ((hspi->Init.Mode == SPI_MODE_SLAVE) || (initial_TxXferCount == 0x01U))
 8007b4a:	68fb      	ldr	r3, [r7, #12]
 8007b4c:	685b      	ldr	r3, [r3, #4]
 8007b4e:	2b00      	cmp	r3, #0
 8007b50:	d002      	beq.n	8007b58 <HAL_SPI_TransmitReceive+0x204>
 8007b52:	8b7b      	ldrh	r3, [r7, #26]
 8007b54:	2b01      	cmp	r3, #1
 8007b56:	d16f      	bne.n	8007c38 <HAL_SPI_TransmitReceive+0x2e4>
    {
      *((__IO uint8_t *)&hspi->Instance->DR) = (*hspi->pTxBuffPtr);
 8007b58:	68fb      	ldr	r3, [r7, #12]
 8007b5a:	6b1a      	ldr	r2, [r3, #48]	@ 0x30
 8007b5c:	68fb      	ldr	r3, [r7, #12]
 8007b5e:	681b      	ldr	r3, [r3, #0]
 8007b60:	330c      	adds	r3, #12
 8007b62:	7812      	ldrb	r2, [r2, #0]
 8007b64:	701a      	strb	r2, [r3, #0]
      hspi->pTxBuffPtr += sizeof(uint8_t);
 8007b66:	68fb      	ldr	r3, [r7, #12]
 8007b68:	6b1b      	ldr	r3, [r3, #48]	@ 0x30
 8007b6a:	1c5a      	adds	r2, r3, #1
 8007b6c:	68fb      	ldr	r3, [r7, #12]
 8007b6e:	631a      	str	r2, [r3, #48]	@ 0x30
      hspi->TxXferCount--;
 8007b70:	68fb      	ldr	r3, [r7, #12]
 8007b72:	8edb      	ldrh	r3, [r3, #54]	@ 0x36
 8007b74:	b29b      	uxth	r3, r3
 8007b76:	3b01      	subs	r3, #1
 8007b78:	b29a      	uxth	r2, r3
 8007b7a:	68fb      	ldr	r3, [r7, #12]
 8007b7c:	86da      	strh	r2, [r3, #54]	@ 0x36
      {
        SET_BIT(hspi->Instance->CR1, SPI_CR1_CRCNEXT);
      }
#endif /* USE_SPI_CRC */
    }
    while ((hspi->TxXferCount > 0U) || (hspi->RxXferCount > 0U))
 8007b7e:	e05b      	b.n	8007c38 <HAL_SPI_TransmitReceive+0x2e4>
    {
      /* Check TXE flag */
      if ((__HAL_SPI_GET_FLAG(hspi, SPI_FLAG_TXE)) && (hspi->TxXferCount > 0U) && (txallowed == 1U))
 8007b80:	68fb      	ldr	r3, [r7, #12]
 8007b82:	681b      	ldr	r3, [r3, #0]
 8007b84:	689b      	ldr	r3, [r3, #8]
 8007b86:	f003 0302 	and.w	r3, r3, #2
 8007b8a:	2b02      	cmp	r3, #2
 8007b8c:	d11c      	bne.n	8007bc8 <HAL_SPI_TransmitReceive+0x274>
 8007b8e:	68fb      	ldr	r3, [r7, #12]
 8007b90:	8edb      	ldrh	r3, [r3, #54]	@ 0x36
 8007b92:	b29b      	uxth	r3, r3
 8007b94:	2b00      	cmp	r3, #0
 8007b96:	d017      	beq.n	8007bc8 <HAL_SPI_TransmitReceive+0x274>
 8007b98:	6afb      	ldr	r3, [r7, #44]	@ 0x2c
 8007b9a:	2b01      	cmp	r3, #1
 8007b9c:	d114      	bne.n	8007bc8 <HAL_SPI_TransmitReceive+0x274>
      {
        *(__IO uint8_t *)&hspi->Instance->DR = (*hspi->pTxBuffPtr);
 8007b9e:	68fb      	ldr	r3, [r7, #12]
 8007ba0:	6b1a      	ldr	r2, [r3, #48]	@ 0x30
 8007ba2:	68fb      	ldr	r3, [r7, #12]
 8007ba4:	681b      	ldr	r3, [r3, #0]
 8007ba6:	330c      	adds	r3, #12
 8007ba8:	7812      	ldrb	r2, [r2, #0]
 8007baa:	701a      	strb	r2, [r3, #0]
        hspi->pTxBuffPtr++;
 8007bac:	68fb      	ldr	r3, [r7, #12]
 8007bae:	6b1b      	ldr	r3, [r3, #48]	@ 0x30
 8007bb0:	1c5a      	adds	r2, r3, #1
 8007bb2:	68fb      	ldr	r3, [r7, #12]
 8007bb4:	631a      	str	r2, [r3, #48]	@ 0x30
        hspi->TxXferCount--;
 8007bb6:	68fb      	ldr	r3, [r7, #12]
 8007bb8:	8edb      	ldrh	r3, [r3, #54]	@ 0x36
 8007bba:	b29b      	uxth	r3, r3
 8007bbc:	3b01      	subs	r3, #1
 8007bbe:	b29a      	uxth	r2, r3
 8007bc0:	68fb      	ldr	r3, [r7, #12]
 8007bc2:	86da      	strh	r2, [r3, #54]	@ 0x36
        /* Next Data is a reception (Rx). Tx not allowed */
        txallowed = 0U;
 8007bc4:	2300      	movs	r3, #0
 8007bc6:	62fb      	str	r3, [r7, #44]	@ 0x2c
        }
#endif /* USE_SPI_CRC */
      }

      /* Wait until RXNE flag is reset */
      if ((__HAL_SPI_GET_FLAG(hspi, SPI_FLAG_RXNE)) && (hspi->RxXferCount > 0U))
 8007bc8:	68fb      	ldr	r3, [r7, #12]
 8007bca:	681b      	ldr	r3, [r3, #0]
 8007bcc:	689b      	ldr	r3, [r3, #8]
 8007bce:	f003 0301 	and.w	r3, r3, #1
 8007bd2:	2b01      	cmp	r3, #1
 8007bd4:	d119      	bne.n	8007c0a <HAL_SPI_TransmitReceive+0x2b6>
 8007bd6:	68fb      	ldr	r3, [r7, #12]
 8007bd8:	8fdb      	ldrh	r3, [r3, #62]	@ 0x3e
 8007bda:	b29b      	uxth	r3, r3
 8007bdc:	2b00      	cmp	r3, #0
 8007bde:	d014      	beq.n	8007c0a <HAL_SPI_TransmitReceive+0x2b6>
      {
        (*(uint8_t *)hspi->pRxBuffPtr) = hspi->Instance->DR;
 8007be0:	68fb      	ldr	r3, [r7, #12]
 8007be2:	681b      	ldr	r3, [r3, #0]
 8007be4:	68da      	ldr	r2, [r3, #12]
 8007be6:	68fb      	ldr	r3, [r7, #12]
 8007be8:	6b9b      	ldr	r3, [r3, #56]	@ 0x38
 8007bea:	b2d2      	uxtb	r2, r2
 8007bec:	701a      	strb	r2, [r3, #0]
        hspi->pRxBuffPtr++;
 8007bee:	68fb      	ldr	r3, [r7, #12]
 8007bf0:	6b9b      	ldr	r3, [r3, #56]	@ 0x38
 8007bf2:	1c5a      	adds	r2, r3, #1
 8007bf4:	68fb      	ldr	r3, [r7, #12]
 8007bf6:	639a      	str	r2, [r3, #56]	@ 0x38
        hspi->RxXferCount--;
 8007bf8:	68fb      	ldr	r3, [r7, #12]
 8007bfa:	8fdb      	ldrh	r3, [r3, #62]	@ 0x3e
 8007bfc:	b29b      	uxth	r3, r3
 8007bfe:	3b01      	subs	r3, #1
 8007c00:	b29a      	uxth	r2, r3
 8007c02:	68fb      	ldr	r3, [r7, #12]
 8007c04:	87da      	strh	r2, [r3, #62]	@ 0x3e
        /* Next Data is a Transmission (Tx). Tx is allowed */
        txallowed = 1U;
 8007c06:	2301      	movs	r3, #1
 8007c08:	62fb      	str	r3, [r7, #44]	@ 0x2c
      }
      if ((((HAL_GetTick() - tickstart) >=  Timeout) && ((Timeout != HAL_MAX_DELAY))) || (Timeout == 0U))
 8007c0a:	f7fb fb05 	bl	8003218 <HAL_GetTick>
 8007c0e:	4602      	mov	r2, r0
 8007c10:	6a7b      	ldr	r3, [r7, #36]	@ 0x24
 8007c12:	1ad3      	subs	r3, r2, r3
 8007c14:	6bba      	ldr	r2, [r7, #56]	@ 0x38
 8007c16:	429a      	cmp	r2, r3
 8007c18:	d803      	bhi.n	8007c22 <HAL_SPI_TransmitReceive+0x2ce>
 8007c1a:	6bbb      	ldr	r3, [r7, #56]	@ 0x38
 8007c1c:	f1b3 3fff 	cmp.w	r3, #4294967295	@ 0xffffffff
 8007c20:	d102      	bne.n	8007c28 <HAL_SPI_TransmitReceive+0x2d4>
 8007c22:	6bbb      	ldr	r3, [r7, #56]	@ 0x38
 8007c24:	2b00      	cmp	r3, #0
 8007c26:	d107      	bne.n	8007c38 <HAL_SPI_TransmitReceive+0x2e4>
      {
        errorcode = HAL_TIMEOUT;
 8007c28:	2303      	movs	r3, #3
 8007c2a:	f887 302b 	strb.w	r3, [r7, #43]	@ 0x2b
        hspi->State = HAL_SPI_STATE_READY;
 8007c2e:	68fb      	ldr	r3, [r7, #12]
 8007c30:	2201      	movs	r2, #1
 8007c32:	f883 2051 	strb.w	r2, [r3, #81]	@ 0x51
        goto error;
 8007c36:	e033      	b.n	8007ca0 <HAL_SPI_TransmitReceive+0x34c>
    while ((hspi->TxXferCount > 0U) || (hspi->RxXferCount > 0U))
 8007c38:	68fb      	ldr	r3, [r7, #12]
 8007c3a:	8edb      	ldrh	r3, [r3, #54]	@ 0x36
 8007c3c:	b29b      	uxth	r3, r3
 8007c3e:	2b00      	cmp	r3, #0
 8007c40:	d19e      	bne.n	8007b80 <HAL_SPI_TransmitReceive+0x22c>
 8007c42:	68fb      	ldr	r3, [r7, #12]
 8007c44:	8fdb      	ldrh	r3, [r3, #62]	@ 0x3e
 8007c46:	b29b      	uxth	r3, r3
 8007c48:	2b00      	cmp	r3, #0
 8007c4a:	d199      	bne.n	8007b80 <HAL_SPI_TransmitReceive+0x22c>
    errorcode = HAL_ERROR;
  }
#endif /* USE_SPI_CRC */

  /* Check the end of the transaction */
  if (SPI_EndRxTxTransaction(hspi, Timeout, tickstart) != HAL_OK)
 8007c4c:	6a7a      	ldr	r2, [r7, #36]	@ 0x24
 8007c4e:	6bb9      	ldr	r1, [r7, #56]	@ 0x38
 8007c50:	68f8      	ldr	r0, [r7, #12]
 8007c52:	f000 fa65 	bl	8008120 <SPI_EndRxTxTransaction>
 8007c56:	4603      	mov	r3, r0
 8007c58:	2b00      	cmp	r3, #0
 8007c5a:	d006      	beq.n	8007c6a <HAL_SPI_TransmitReceive+0x316>
  {
    errorcode = HAL_ERROR;
 8007c5c:	2301      	movs	r3, #1
 8007c5e:	f887 302b 	strb.w	r3, [r7, #43]	@ 0x2b
    hspi->ErrorCode = HAL_SPI_ERROR_FLAG;
 8007c62:	68fb      	ldr	r3, [r7, #12]
 8007c64:	2220      	movs	r2, #32
 8007c66:	655a      	str	r2, [r3, #84]	@ 0x54
    goto error;
 8007c68:	e01a      	b.n	8007ca0 <HAL_SPI_TransmitReceive+0x34c>
  }

  /* Clear overrun flag in 2 Lines communication mode because received is not read */
  if (hspi->Init.Direction == SPI_DIRECTION_2LINES)
 8007c6a:	68fb      	ldr	r3, [r7, #12]
 8007c6c:	689b      	ldr	r3, [r3, #8]
 8007c6e:	2b00      	cmp	r3, #0
 8007c70:	d10a      	bne.n	8007c88 <HAL_SPI_TransmitReceive+0x334>
  {
    __HAL_SPI_CLEAR_OVRFLAG(hspi);
 8007c72:	2300      	movs	r3, #0
 8007c74:	617b      	str	r3, [r7, #20]
 8007c76:	68fb      	ldr	r3, [r7, #12]
 8007c78:	681b      	ldr	r3, [r3, #0]
 8007c7a:	68db      	ldr	r3, [r3, #12]
 8007c7c:	617b      	str	r3, [r7, #20]
 8007c7e:	68fb      	ldr	r3, [r7, #12]
 8007c80:	681b      	ldr	r3, [r3, #0]
 8007c82:	689b      	ldr	r3, [r3, #8]
 8007c84:	617b      	str	r3, [r7, #20]
 8007c86:	697b      	ldr	r3, [r7, #20]
  }

  if (hspi->ErrorCode != HAL_SPI_ERROR_NONE)
 8007c88:	68fb      	ldr	r3, [r7, #12]
 8007c8a:	6d5b      	ldr	r3, [r3, #84]	@ 0x54
 8007c8c:	2b00      	cmp	r3, #0
 8007c8e:	d003      	beq.n	8007c98 <HAL_SPI_TransmitReceive+0x344>
  {
    errorcode = HAL_ERROR;
 8007c90:	2301      	movs	r3, #1
 8007c92:	f887 302b 	strb.w	r3, [r7, #43]	@ 0x2b
 8007c96:	e003      	b.n	8007ca0 <HAL_SPI_TransmitReceive+0x34c>
  }
  else
  {
    hspi->State = HAL_SPI_STATE_READY;
 8007c98:	68fb      	ldr	r3, [r7, #12]
 8007c9a:	2201      	movs	r2, #1
 8007c9c:	f883 2051 	strb.w	r2, [r3, #81]	@ 0x51
  }
  
error :
  __HAL_UNLOCK(hspi);
 8007ca0:	68fb      	ldr	r3, [r7, #12]
 8007ca2:	2200      	movs	r2, #0
 8007ca4:	f883 2050 	strb.w	r2, [r3, #80]	@ 0x50
  return errorcode;
 8007ca8:	f897 302b 	ldrb.w	r3, [r7, #43]	@ 0x2b
}
 8007cac:	4618      	mov	r0, r3
 8007cae:	3730      	adds	r7, #48	@ 0x30
 8007cb0:	46bd      	mov	sp, r7
 8007cb2:	bd80      	pop	{r7, pc}

08007cb4 <HAL_SPI_Transmit_DMA>:
  * @param  pData pointer to data buffer
  * @param  Size amount of data to be sent
  * @retval HAL status
  */
HAL_StatusTypeDef HAL_SPI_Transmit_DMA(SPI_HandleTypeDef *hspi, uint8_t *pData, uint16_t Size)
{
 8007cb4:	b580      	push	{r7, lr}
 8007cb6:	b086      	sub	sp, #24
 8007cb8:	af00      	add	r7, sp, #0
 8007cba:	60f8      	str	r0, [r7, #12]
 8007cbc:	60b9      	str	r1, [r7, #8]
 8007cbe:	4613      	mov	r3, r2
 8007cc0:	80fb      	strh	r3, [r7, #6]
  HAL_StatusTypeDef errorcode = HAL_OK;
 8007cc2:	2300      	movs	r3, #0
 8007cc4:	75fb      	strb	r3, [r7, #23]

  /* Check Direction parameter */
  assert_param(IS_SPI_DIRECTION_2LINES_OR_1LINE(hspi->Init.Direction));

  /* Process Locked */
  __HAL_LOCK(hspi);
 8007cc6:	68fb      	ldr	r3, [r7, #12]
 8007cc8:	f893 3050 	ldrb.w	r3, [r3, #80]	@ 0x50
 8007ccc:	2b01      	cmp	r3, #1
 8007cce:	d101      	bne.n	8007cd4 <HAL_SPI_Transmit_DMA+0x20>
 8007cd0:	2302      	movs	r3, #2
 8007cd2:	e097      	b.n	8007e04 <HAL_SPI_Transmit_DMA+0x150>
 8007cd4:	68fb      	ldr	r3, [r7, #12]
 8007cd6:	2201      	movs	r2, #1
 8007cd8:	f883 2050 	strb.w	r2, [r3, #80]	@ 0x50

  if (hspi->State != HAL_SPI_STATE_READY)
 8007cdc:	68fb      	ldr	r3, [r7, #12]
 8007cde:	f893 3051 	ldrb.w	r3, [r3, #81]	@ 0x51
 8007ce2:	b2db      	uxtb	r3, r3
 8007ce4:	2b01      	cmp	r3, #1
 8007ce6:	d002      	beq.n	8007cee <HAL_SPI_Transmit_DMA+0x3a>
  {
    errorcode = HAL_BUSY;
 8007ce8:	2302      	movs	r3, #2
 8007cea:	75fb      	strb	r3, [r7, #23]
    goto error;
 8007cec:	e085      	b.n	8007dfa <HAL_SPI_Transmit_DMA+0x146>
  }

  if ((pData == NULL) || (Size == 0U))
 8007cee:	68bb      	ldr	r3, [r7, #8]
 8007cf0:	2b00      	cmp	r3, #0
 8007cf2:	d002      	beq.n	8007cfa <HAL_SPI_Transmit_DMA+0x46>
 8007cf4:	88fb      	ldrh	r3, [r7, #6]
 8007cf6:	2b00      	cmp	r3, #0
 8007cf8:	d102      	bne.n	8007d00 <HAL_SPI_Transmit_DMA+0x4c>
  {
    errorcode = HAL_ERROR;
 8007cfa:	2301      	movs	r3, #1
 8007cfc:	75fb      	strb	r3, [r7, #23]
    goto error;
 8007cfe:	e07c      	b.n	8007dfa <HAL_SPI_Transmit_DMA+0x146>
  }

  /* Set the transaction information */
  hspi->State       = HAL_SPI_STATE_BUSY_TX;
 8007d00:	68fb      	ldr	r3, [r7, #12]
 8007d02:	2203      	movs	r2, #3
 8007d04:	f883 2051 	strb.w	r2, [r3, #81]	@ 0x51
  hspi->ErrorCode   = HAL_SPI_ERROR_NONE;
 8007d08:	68fb      	ldr	r3, [r7, #12]
 8007d0a:	2200      	movs	r2, #0
 8007d0c:	655a      	str	r2, [r3, #84]	@ 0x54
  hspi->pTxBuffPtr  = (uint8_t *)pData;
 8007d0e:	68fb      	ldr	r3, [r7, #12]
 8007d10:	68ba      	ldr	r2, [r7, #8]
 8007d12:	631a      	str	r2, [r3, #48]	@ 0x30
  hspi->TxXferSize  = Size;
 8007d14:	68fb      	ldr	r3, [r7, #12]
 8007d16:	88fa      	ldrh	r2, [r7, #6]
 8007d18:	869a      	strh	r2, [r3, #52]	@ 0x34
  hspi->TxXferCount = Size;
 8007d1a:	68fb      	ldr	r3, [r7, #12]
 8007d1c:	88fa      	ldrh	r2, [r7, #6]
 8007d1e:	86da      	strh	r2, [r3, #54]	@ 0x36

  /* Init field not used in handle to zero */
  hspi->pRxBuffPtr  = (uint8_t *)NULL;
 8007d20:	68fb      	ldr	r3, [r7, #12]
 8007d22:	2200      	movs	r2, #0
 8007d24:	639a      	str	r2, [r3, #56]	@ 0x38
  hspi->TxISR       = NULL;
 8007d26:	68fb      	ldr	r3, [r7, #12]
 8007d28:	2200      	movs	r2, #0
 8007d2a:	645a      	str	r2, [r3, #68]	@ 0x44
  hspi->RxISR       = NULL;
 8007d2c:	68fb      	ldr	r3, [r7, #12]
 8007d2e:	2200      	movs	r2, #0
 8007d30:	641a      	str	r2, [r3, #64]	@ 0x40
  hspi->RxXferSize  = 0U;
 8007d32:	68fb      	ldr	r3, [r7, #12]
 8007d34:	2200      	movs	r2, #0
 8007d36:	879a      	strh	r2, [r3, #60]	@ 0x3c
  hspi->RxXferCount = 0U;
 8007d38:	68fb      	ldr	r3, [r7, #12]
 8007d3a:	2200      	movs	r2, #0
 8007d3c:	87da      	strh	r2, [r3, #62]	@ 0x3e

  /* Configure communication direction : 1Line */
  if (hspi->Init.Direction == SPI_DIRECTION_1LINE)
 8007d3e:	68fb      	ldr	r3, [r7, #12]
 8007d40:	689b      	ldr	r3, [r3, #8]
 8007d42:	f5b3 4f00 	cmp.w	r3, #32768	@ 0x8000
 8007d46:	d10f      	bne.n	8007d68 <HAL_SPI_Transmit_DMA+0xb4>
  {
    /* Disable SPI Peripheral before set 1Line direction (BIDIOE bit) */
    __HAL_SPI_DISABLE(hspi);
 8007d48:	68fb      	ldr	r3, [r7, #12]
 8007d4a:	681b      	ldr	r3, [r3, #0]
 8007d4c:	681a      	ldr	r2, [r3, #0]
 8007d4e:	68fb      	ldr	r3, [r7, #12]
 8007d50:	681b      	ldr	r3, [r3, #0]
 8007d52:	f022 0240 	bic.w	r2, r2, #64	@ 0x40
 8007d56:	601a      	str	r2, [r3, #0]
    SPI_1LINE_TX(hspi);
 8007d58:	68fb      	ldr	r3, [r7, #12]
 8007d5a:	681b      	ldr	r3, [r3, #0]
 8007d5c:	681a      	ldr	r2, [r3, #0]
 8007d5e:	68fb      	ldr	r3, [r7, #12]
 8007d60:	681b      	ldr	r3, [r3, #0]
 8007d62:	f442 4280 	orr.w	r2, r2, #16384	@ 0x4000
 8007d66:	601a      	str	r2, [r3, #0]
    SPI_RESET_CRC(hspi);
  }
#endif /* USE_SPI_CRC */

  /* Set the SPI TxDMA Half transfer complete callback */
  hspi->hdmatx->XferHalfCpltCallback = SPI_DMAHalfTransmitCplt;
 8007d68:	68fb      	ldr	r3, [r7, #12]
 8007d6a:	6c9b      	ldr	r3, [r3, #72]	@ 0x48
 8007d6c:	4a27      	ldr	r2, [pc, #156]	@ (8007e0c <HAL_SPI_Transmit_DMA+0x158>)
 8007d6e:	641a      	str	r2, [r3, #64]	@ 0x40

  /* Set the SPI TxDMA transfer complete callback */
  hspi->hdmatx->XferCpltCallback = SPI_DMATransmitCplt;
 8007d70:	68fb      	ldr	r3, [r7, #12]
 8007d72:	6c9b      	ldr	r3, [r3, #72]	@ 0x48
 8007d74:	4a26      	ldr	r2, [pc, #152]	@ (8007e10 <HAL_SPI_Transmit_DMA+0x15c>)
 8007d76:	63da      	str	r2, [r3, #60]	@ 0x3c

  /* Set the DMA error callback */
  hspi->hdmatx->XferErrorCallback = SPI_DMAError;
 8007d78:	68fb      	ldr	r3, [r7, #12]
 8007d7a:	6c9b      	ldr	r3, [r3, #72]	@ 0x48
 8007d7c:	4a25      	ldr	r2, [pc, #148]	@ (8007e14 <HAL_SPI_Transmit_DMA+0x160>)
 8007d7e:	64da      	str	r2, [r3, #76]	@ 0x4c

  /* Set the DMA AbortCpltCallback */
  hspi->hdmatx->XferAbortCallback = NULL;
 8007d80:	68fb      	ldr	r3, [r7, #12]
 8007d82:	6c9b      	ldr	r3, [r3, #72]	@ 0x48
 8007d84:	2200      	movs	r2, #0
 8007d86:	651a      	str	r2, [r3, #80]	@ 0x50

  /* Enable the Tx DMA Stream/Channel */
  if (HAL_OK != HAL_DMA_Start_IT(hspi->hdmatx, (uint32_t)hspi->pTxBuffPtr, (uint32_t)&hspi->Instance->DR,
 8007d88:	68fb      	ldr	r3, [r7, #12]
 8007d8a:	6c98      	ldr	r0, [r3, #72]	@ 0x48
 8007d8c:	68fb      	ldr	r3, [r7, #12]
 8007d8e:	6b1b      	ldr	r3, [r3, #48]	@ 0x30
 8007d90:	4619      	mov	r1, r3
 8007d92:	68fb      	ldr	r3, [r7, #12]
 8007d94:	681b      	ldr	r3, [r3, #0]
 8007d96:	330c      	adds	r3, #12
 8007d98:	461a      	mov	r2, r3
                                 hspi->TxXferCount))
 8007d9a:	68fb      	ldr	r3, [r7, #12]
 8007d9c:	8edb      	ldrh	r3, [r3, #54]	@ 0x36
 8007d9e:	b29b      	uxth	r3, r3
  if (HAL_OK != HAL_DMA_Start_IT(hspi->hdmatx, (uint32_t)hspi->pTxBuffPtr, (uint32_t)&hspi->Instance->DR,
 8007da0:	f7fc fa92 	bl	80042c8 <HAL_DMA_Start_IT>
 8007da4:	4603      	mov	r3, r0
 8007da6:	2b00      	cmp	r3, #0
 8007da8:	d008      	beq.n	8007dbc <HAL_SPI_Transmit_DMA+0x108>
  {
    /* Update SPI error code */
    SET_BIT(hspi->ErrorCode, HAL_SPI_ERROR_DMA);
 8007daa:	68fb      	ldr	r3, [r7, #12]
 8007dac:	6d5b      	ldr	r3, [r3, #84]	@ 0x54
 8007dae:	f043 0210 	orr.w	r2, r3, #16
 8007db2:	68fb      	ldr	r3, [r7, #12]
 8007db4:	655a      	str	r2, [r3, #84]	@ 0x54
    errorcode = HAL_ERROR;
 8007db6:	2301      	movs	r3, #1
 8007db8:	75fb      	strb	r3, [r7, #23]

    goto error;
 8007dba:	e01e      	b.n	8007dfa <HAL_SPI_Transmit_DMA+0x146>
  }

  /* Check if the SPI is already enabled */
  if ((hspi->Instance->CR1 & SPI_CR1_SPE) != SPI_CR1_SPE)
 8007dbc:	68fb      	ldr	r3, [r7, #12]
 8007dbe:	681b      	ldr	r3, [r3, #0]
 8007dc0:	681b      	ldr	r3, [r3, #0]
 8007dc2:	f003 0340 	and.w	r3, r3, #64	@ 0x40
 8007dc6:	2b40      	cmp	r3, #64	@ 0x40
 8007dc8:	d007      	beq.n	8007dda <HAL_SPI_Transmit_DMA+0x126>
  {
    /* Enable SPI peripheral */
    __HAL_SPI_ENABLE(hspi);
 8007dca:	68fb      	ldr	r3, [r7, #12]
 8007dcc:	681b      	ldr	r3, [r3, #0]
 8007dce:	681a      	ldr	r2, [r3, #0]
 8007dd0:	68fb      	ldr	r3, [r7, #12]
 8007dd2:	681b      	ldr	r3, [r3, #0]
 8007dd4:	f042 0240 	orr.w	r2, r2, #64	@ 0x40
 8007dd8:	601a      	str	r2, [r3, #0]
  }

  /* Enable the SPI Error Interrupt Bit */
  __HAL_SPI_ENABLE_IT(hspi, (SPI_IT_ERR));
 8007dda:	68fb      	ldr	r3, [r7, #12]
 8007ddc:	681b      	ldr	r3, [r3, #0]
 8007dde:	685a      	ldr	r2, [r3, #4]
 8007de0:	68fb      	ldr	r3, [r7, #12]
 8007de2:	681b      	ldr	r3, [r3, #0]
 8007de4:	f042 0220 	orr.w	r2, r2, #32
 8007de8:	605a      	str	r2, [r3, #4]

  /* Enable Tx DMA Request */
  SET_BIT(hspi->Instance->CR2, SPI_CR2_TXDMAEN);
 8007dea:	68fb      	ldr	r3, [r7, #12]
 8007dec:	681b      	ldr	r3, [r3, #0]
 8007dee:	685a      	ldr	r2, [r3, #4]
 8007df0:	68fb      	ldr	r3, [r7, #12]
 8007df2:	681b      	ldr	r3, [r3, #0]
 8007df4:	f042 0202 	orr.w	r2, r2, #2
 8007df8:	605a      	str	r2, [r3, #4]

error :
  /* Process Unlocked */
  __HAL_UNLOCK(hspi);
 8007dfa:	68fb      	ldr	r3, [r7, #12]
 8007dfc:	2200      	movs	r2, #0
 8007dfe:	f883 2050 	strb.w	r2, [r3, #80]	@ 0x50
  return errorcode;
 8007e02:	7dfb      	ldrb	r3, [r7, #23]
}
 8007e04:	4618      	mov	r0, r3
 8007e06:	3718      	adds	r7, #24
 8007e08:	46bd      	mov	sp, r7
 8007e0a:	bd80      	pop	{r7, pc}
 8007e0c:	08007ee9 	.word	0x08007ee9
 8007e10:	08007e41 	.word	0x08007e41
 8007e14:	08007f05 	.word	0x08007f05

08007e18 <HAL_SPI_TxHalfCpltCallback>:
  * @param  hspi pointer to a SPI_HandleTypeDef structure that contains
  *               the configuration information for SPI module.
  * @retval None
  */
__weak void HAL_SPI_TxHalfCpltCallback(SPI_HandleTypeDef *hspi)
{
 8007e18:	b480      	push	{r7}
 8007e1a:	b083      	sub	sp, #12
 8007e1c:	af00      	add	r7, sp, #0
 8007e1e:	6078      	str	r0, [r7, #4]
  UNUSED(hspi);

  /* NOTE : This function should not be modified, when the callback is needed,
            the HAL_SPI_TxHalfCpltCallback should be implemented in the user file
   */
}
 8007e20:	bf00      	nop
 8007e22:	370c      	adds	r7, #12
 8007e24:	46bd      	mov	sp, r7
 8007e26:	f85d 7b04 	ldr.w	r7, [sp], #4
 8007e2a:	4770      	bx	lr

08007e2c <HAL_SPI_ErrorCallback>:
  * @param  hspi pointer to a SPI_HandleTypeDef structure that contains
  *               the configuration information for SPI module.
  * @retval None
  */
__weak void HAL_SPI_ErrorCallback(SPI_HandleTypeDef *hspi)
{
 8007e2c:	b480      	push	{r7}
 8007e2e:	b083      	sub	sp, #12
 8007e30:	af00      	add	r7, sp, #0
 8007e32:	6078      	str	r0, [r7, #4]
            the HAL_SPI_ErrorCallback should be implemented in the user file
   */
  /* NOTE : The ErrorCode parameter in the hspi handle is updated by the SPI processes
            and user can use HAL_SPI_GetError() API to check the latest error occurred
   */
}
 8007e34:	bf00      	nop
 8007e36:	370c      	adds	r7, #12
 8007e38:	46bd      	mov	sp, r7
 8007e3a:	f85d 7b04 	ldr.w	r7, [sp], #4
 8007e3e:	4770      	bx	lr

08007e40 <SPI_DMATransmitCplt>:
  * @param  hdma pointer to a DMA_HandleTypeDef structure that contains
  *               the configuration information for the specified DMA module.
  * @retval None
  */
static void SPI_DMATransmitCplt(DMA_HandleTypeDef *hdma)
{
 8007e40:	b580      	push	{r7, lr}
 8007e42:	b086      	sub	sp, #24
 8007e44:	af00      	add	r7, sp, #0
 8007e46:	6078      	str	r0, [r7, #4]
  SPI_HandleTypeDef *hspi = (SPI_HandleTypeDef *)(((DMA_HandleTypeDef *)hdma)->Parent); /* Derogation MISRAC2012-Rule-11.5 */
 8007e48:	687b      	ldr	r3, [r7, #4]
 8007e4a:	6b9b      	ldr	r3, [r3, #56]	@ 0x38
 8007e4c:	617b      	str	r3, [r7, #20]
  uint32_t tickstart;

  /* Init tickstart for timeout management*/
  tickstart = HAL_GetTick();
 8007e4e:	f7fb f9e3 	bl	8003218 <HAL_GetTick>
 8007e52:	6138      	str	r0, [r7, #16]

  /* DMA Normal Mode */
  if ((hdma->Instance->CR & DMA_SxCR_CIRC) != DMA_SxCR_CIRC)
 8007e54:	687b      	ldr	r3, [r7, #4]
 8007e56:	681b      	ldr	r3, [r3, #0]
 8007e58:	681b      	ldr	r3, [r3, #0]
 8007e5a:	f403 7380 	and.w	r3, r3, #256	@ 0x100
 8007e5e:	f5b3 7f80 	cmp.w	r3, #256	@ 0x100
 8007e62:	d03b      	beq.n	8007edc <SPI_DMATransmitCplt+0x9c>
  {
    /* Disable ERR interrupt */
    __HAL_SPI_DISABLE_IT(hspi, SPI_IT_ERR);
 8007e64:	697b      	ldr	r3, [r7, #20]
 8007e66:	681b      	ldr	r3, [r3, #0]
 8007e68:	685a      	ldr	r2, [r3, #4]
 8007e6a:	697b      	ldr	r3, [r7, #20]
 8007e6c:	681b      	ldr	r3, [r3, #0]
 8007e6e:	f022 0220 	bic.w	r2, r2, #32
 8007e72:	605a      	str	r2, [r3, #4]

    /* Disable Tx DMA Request */
    CLEAR_BIT(hspi->Instance->CR2, SPI_CR2_TXDMAEN);
 8007e74:	697b      	ldr	r3, [r7, #20]
 8007e76:	681b      	ldr	r3, [r3, #0]
 8007e78:	685a      	ldr	r2, [r3, #4]
 8007e7a:	697b      	ldr	r3, [r7, #20]
 8007e7c:	681b      	ldr	r3, [r3, #0]
 8007e7e:	f022 0202 	bic.w	r2, r2, #2
 8007e82:	605a      	str	r2, [r3, #4]

    /* Check the end of the transaction */
    if (SPI_EndRxTxTransaction(hspi, SPI_DEFAULT_TIMEOUT, tickstart) != HAL_OK)
 8007e84:	693a      	ldr	r2, [r7, #16]
 8007e86:	2164      	movs	r1, #100	@ 0x64
 8007e88:	6978      	ldr	r0, [r7, #20]
 8007e8a:	f000 f949 	bl	8008120 <SPI_EndRxTxTransaction>
 8007e8e:	4603      	mov	r3, r0
 8007e90:	2b00      	cmp	r3, #0
 8007e92:	d005      	beq.n	8007ea0 <SPI_DMATransmitCplt+0x60>
    {
      SET_BIT(hspi->ErrorCode, HAL_SPI_ERROR_FLAG);
 8007e94:	697b      	ldr	r3, [r7, #20]
 8007e96:	6d5b      	ldr	r3, [r3, #84]	@ 0x54
 8007e98:	f043 0220 	orr.w	r2, r3, #32
 8007e9c:	697b      	ldr	r3, [r7, #20]
 8007e9e:	655a      	str	r2, [r3, #84]	@ 0x54
    }

    /* Clear overrun flag in 2 Lines communication mode because received data is not read */
    if (hspi->Init.Direction == SPI_DIRECTION_2LINES)
 8007ea0:	697b      	ldr	r3, [r7, #20]
 8007ea2:	689b      	ldr	r3, [r3, #8]
 8007ea4:	2b00      	cmp	r3, #0
 8007ea6:	d10a      	bne.n	8007ebe <SPI_DMATransmitCplt+0x7e>
    {
      __HAL_SPI_CLEAR_OVRFLAG(hspi);
 8007ea8:	2300      	movs	r3, #0
 8007eaa:	60fb      	str	r3, [r7, #12]
 8007eac:	697b      	ldr	r3, [r7, #20]
 8007eae:	681b      	ldr	r3, [r3, #0]
 8007eb0:	68db      	ldr	r3, [r3, #12]
 8007eb2:	60fb      	str	r3, [r7, #12]
 8007eb4:	697b      	ldr	r3, [r7, #20]
 8007eb6:	681b      	ldr	r3, [r3, #0]
 8007eb8:	689b      	ldr	r3, [r3, #8]
 8007eba:	60fb      	str	r3, [r7, #12]
 8007ebc:	68fb      	ldr	r3, [r7, #12]
    }

    hspi->TxXferCount = 0U;
 8007ebe:	697b      	ldr	r3, [r7, #20]
 8007ec0:	2200      	movs	r2, #0
 8007ec2:	86da      	strh	r2, [r3, #54]	@ 0x36
    hspi->State = HAL_SPI_STATE_READY;
 8007ec4:	697b      	ldr	r3, [r7, #20]
 8007ec6:	2201      	movs	r2, #1
 8007ec8:	f883 2051 	strb.w	r2, [r3, #81]	@ 0x51

    if (hspi->ErrorCode != HAL_SPI_ERROR_NONE)
 8007ecc:	697b      	ldr	r3, [r7, #20]
 8007ece:	6d5b      	ldr	r3, [r3, #84]	@ 0x54
 8007ed0:	2b00      	cmp	r3, #0
 8007ed2:	d003      	beq.n	8007edc <SPI_DMATransmitCplt+0x9c>
    {
      /* Call user error callback */
#if (USE_HAL_SPI_REGISTER_CALLBACKS == 1U)
      hspi->ErrorCallback(hspi);
#else
      HAL_SPI_ErrorCallback(hspi);
 8007ed4:	6978      	ldr	r0, [r7, #20]
 8007ed6:	f7ff ffa9 	bl	8007e2c <HAL_SPI_ErrorCallback>
#endif /* USE_HAL_SPI_REGISTER_CALLBACKS */
      return;
 8007eda:	e002      	b.n	8007ee2 <SPI_DMATransmitCplt+0xa2>
  }
  /* Call user Tx complete callback */
#if (USE_HAL_SPI_REGISTER_CALLBACKS == 1U)
  hspi->TxCpltCallback(hspi);
#else
  HAL_SPI_TxCpltCallback(hspi);
 8007edc:	6978      	ldr	r0, [r7, #20]
 8007ede:	f7fb f865 	bl	8002fac <HAL_SPI_TxCpltCallback>
#endif /* USE_HAL_SPI_REGISTER_CALLBACKS */
}
 8007ee2:	3718      	adds	r7, #24
 8007ee4:	46bd      	mov	sp, r7
 8007ee6:	bd80      	pop	{r7, pc}

08007ee8 <SPI_DMAHalfTransmitCplt>:
  * @param  hdma pointer to a DMA_HandleTypeDef structure that contains
  *               the configuration information for the specified DMA module.
  * @retval None
  */
static void SPI_DMAHalfTransmitCplt(DMA_HandleTypeDef *hdma)
{
 8007ee8:	b580      	push	{r7, lr}
 8007eea:	b084      	sub	sp, #16
 8007eec:	af00      	add	r7, sp, #0
 8007eee:	6078      	str	r0, [r7, #4]
  SPI_HandleTypeDef *hspi = (SPI_HandleTypeDef *)(((DMA_HandleTypeDef *)hdma)->Parent); /* Derogation MISRAC2012-Rule-11.5 */
 8007ef0:	687b      	ldr	r3, [r7, #4]
 8007ef2:	6b9b      	ldr	r3, [r3, #56]	@ 0x38
 8007ef4:	60fb      	str	r3, [r7, #12]

  /* Call user Tx half complete callback */
#if (USE_HAL_SPI_REGISTER_CALLBACKS == 1U)
  hspi->TxHalfCpltCallback(hspi);
#else
  HAL_SPI_TxHalfCpltCallback(hspi);
 8007ef6:	68f8      	ldr	r0, [r7, #12]
 8007ef8:	f7ff ff8e 	bl	8007e18 <HAL_SPI_TxHalfCpltCallback>
#endif /* USE_HAL_SPI_REGISTER_CALLBACKS */
}
 8007efc:	bf00      	nop
 8007efe:	3710      	adds	r7, #16
 8007f00:	46bd      	mov	sp, r7
 8007f02:	bd80      	pop	{r7, pc}

08007f04 <SPI_DMAError>:
  * @param  hdma pointer to a DMA_HandleTypeDef structure that contains
  *               the configuration information for the specified DMA module.
  * @retval None
  */
static void SPI_DMAError(DMA_HandleTypeDef *hdma)
{
 8007f04:	b580      	push	{r7, lr}
 8007f06:	b084      	sub	sp, #16
 8007f08:	af00      	add	r7, sp, #0
 8007f0a:	6078      	str	r0, [r7, #4]
  SPI_HandleTypeDef *hspi = (SPI_HandleTypeDef *)(((DMA_HandleTypeDef *)hdma)->Parent); /* Derogation MISRAC2012-Rule-11.5 */
 8007f0c:	687b      	ldr	r3, [r7, #4]
 8007f0e:	6b9b      	ldr	r3, [r3, #56]	@ 0x38
 8007f10:	60fb      	str	r3, [r7, #12]

  /* Stop the disable DMA transfer on SPI side */
  CLEAR_BIT(hspi->Instance->CR2, SPI_CR2_TXDMAEN | SPI_CR2_RXDMAEN);
 8007f12:	68fb      	ldr	r3, [r7, #12]
 8007f14:	681b      	ldr	r3, [r3, #0]
 8007f16:	685a      	ldr	r2, [r3, #4]
 8007f18:	68fb      	ldr	r3, [r7, #12]
 8007f1a:	681b      	ldr	r3, [r3, #0]
 8007f1c:	f022 0203 	bic.w	r2, r2, #3
 8007f20:	605a      	str	r2, [r3, #4]

  SET_BIT(hspi->ErrorCode, HAL_SPI_ERROR_DMA);
 8007f22:	68fb      	ldr	r3, [r7, #12]
 8007f24:	6d5b      	ldr	r3, [r3, #84]	@ 0x54
 8007f26:	f043 0210 	orr.w	r2, r3, #16
 8007f2a:	68fb      	ldr	r3, [r7, #12]
 8007f2c:	655a      	str	r2, [r3, #84]	@ 0x54
  hspi->State = HAL_SPI_STATE_READY;
 8007f2e:	68fb      	ldr	r3, [r7, #12]
 8007f30:	2201      	movs	r2, #1
 8007f32:	f883 2051 	strb.w	r2, [r3, #81]	@ 0x51
  /* Call user error callback */
#if (USE_HAL_SPI_REGISTER_CALLBACKS == 1U)
  hspi->ErrorCallback(hspi);
#else
  HAL_SPI_ErrorCallback(hspi);
 8007f36:	68f8      	ldr	r0, [r7, #12]
 8007f38:	f7ff ff78 	bl	8007e2c <HAL_SPI_ErrorCallback>
#endif /* USE_HAL_SPI_REGISTER_CALLBACKS */
}
 8007f3c:	bf00      	nop
 8007f3e:	3710      	adds	r7, #16
 8007f40:	46bd      	mov	sp, r7
 8007f42:	bd80      	pop	{r7, pc}

08007f44 <SPI_WaitFlagStateUntilTimeout>:
  * @param  Tickstart tick start value
  * @retval HAL status
  */
static HAL_StatusTypeDef SPI_WaitFlagStateUntilTimeout(SPI_HandleTypeDef *hspi, uint32_t Flag, FlagStatus State,
                                                       uint32_t Timeout, uint32_t Tickstart)
{
 8007f44:	b580      	push	{r7, lr}
 8007f46:	b088      	sub	sp, #32
 8007f48:	af00      	add	r7, sp, #0
 8007f4a:	60f8      	str	r0, [r7, #12]
 8007f4c:	60b9      	str	r1, [r7, #8]
 8007f4e:	603b      	str	r3, [r7, #0]
 8007f50:	4613      	mov	r3, r2
 8007f52:	71fb      	strb	r3, [r7, #7]
  __IO uint32_t count;
  uint32_t tmp_timeout;
  uint32_t tmp_tickstart;

  /* Adjust Timeout value  in case of end of transfer */
  tmp_timeout   = Timeout - (HAL_GetTick() - Tickstart);
 8007f54:	f7fb f960 	bl	8003218 <HAL_GetTick>
 8007f58:	4602      	mov	r2, r0
 8007f5a:	6abb      	ldr	r3, [r7, #40]	@ 0x28
 8007f5c:	1a9b      	subs	r3, r3, r2
 8007f5e:	683a      	ldr	r2, [r7, #0]
 8007f60:	4413      	add	r3, r2
 8007f62:	61fb      	str	r3, [r7, #28]
  tmp_tickstart = HAL_GetTick();
 8007f64:	f7fb f958 	bl	8003218 <HAL_GetTick>
 8007f68:	61b8      	str	r0, [r7, #24]

  /* Calculate Timeout based on a software loop to avoid blocking issue if Systick is disabled */
  count = tmp_timeout * ((SystemCoreClock * 32U) >> 20U);
 8007f6a:	4b39      	ldr	r3, [pc, #228]	@ (8008050 <SPI_WaitFlagStateUntilTimeout+0x10c>)
 8007f6c:	681b      	ldr	r3, [r3, #0]
 8007f6e:	015b      	lsls	r3, r3, #5
 8007f70:	0d1b      	lsrs	r3, r3, #20
 8007f72:	69fa      	ldr	r2, [r7, #28]
 8007f74:	fb02 f303 	mul.w	r3, r2, r3
 8007f78:	617b      	str	r3, [r7, #20]

  while ((__HAL_SPI_GET_FLAG(hspi, Flag) ? SET : RESET) != State)
 8007f7a:	e054      	b.n	8008026 <SPI_WaitFlagStateUntilTimeout+0xe2>
  {
    if (Timeout != HAL_MAX_DELAY)
 8007f7c:	683b      	ldr	r3, [r7, #0]
 8007f7e:	f1b3 3fff 	cmp.w	r3, #4294967295	@ 0xffffffff
 8007f82:	d050      	beq.n	8008026 <SPI_WaitFlagStateUntilTimeout+0xe2>
    {
      if (((HAL_GetTick() - tmp_tickstart) >= tmp_timeout) || (tmp_timeout == 0U))
 8007f84:	f7fb f948 	bl	8003218 <HAL_GetTick>
 8007f88:	4602      	mov	r2, r0
 8007f8a:	69bb      	ldr	r3, [r7, #24]
 8007f8c:	1ad3      	subs	r3, r2, r3
 8007f8e:	69fa      	ldr	r2, [r7, #28]
 8007f90:	429a      	cmp	r2, r3
 8007f92:	d902      	bls.n	8007f9a <SPI_WaitFlagStateUntilTimeout+0x56>
 8007f94:	69fb      	ldr	r3, [r7, #28]
 8007f96:	2b00      	cmp	r3, #0
 8007f98:	d13d      	bne.n	8008016 <SPI_WaitFlagStateUntilTimeout+0xd2>
        /* Disable the SPI and reset the CRC: the CRC value should be cleared
           on both master and slave sides in order to resynchronize the master
           and slave for their respective CRC calculation */

        /* Disable TXE, RXNE and ERR interrupts for the interrupt process */
        __HAL_SPI_DISABLE_IT(hspi, (SPI_IT_TXE | SPI_IT_RXNE | SPI_IT_ERR));
 8007f9a:	68fb      	ldr	r3, [r7, #12]
 8007f9c:	681b      	ldr	r3, [r3, #0]
 8007f9e:	685a      	ldr	r2, [r3, #4]
 8007fa0:	68fb      	ldr	r3, [r7, #12]
 8007fa2:	681b      	ldr	r3, [r3, #0]
 8007fa4:	f022 02e0 	bic.w	r2, r2, #224	@ 0xe0
 8007fa8:	605a      	str	r2, [r3, #4]

        if ((hspi->Init.Mode == SPI_MODE_MASTER) && ((hspi->Init.Direction == SPI_DIRECTION_1LINE)
 8007faa:	68fb      	ldr	r3, [r7, #12]
 8007fac:	685b      	ldr	r3, [r3, #4]
 8007fae:	f5b3 7f82 	cmp.w	r3, #260	@ 0x104
 8007fb2:	d111      	bne.n	8007fd8 <SPI_WaitFlagStateUntilTimeout+0x94>
 8007fb4:	68fb      	ldr	r3, [r7, #12]
 8007fb6:	689b      	ldr	r3, [r3, #8]
 8007fb8:	f5b3 4f00 	cmp.w	r3, #32768	@ 0x8000
 8007fbc:	d004      	beq.n	8007fc8 <SPI_WaitFlagStateUntilTimeout+0x84>
                                                     || (hspi->Init.Direction == SPI_DIRECTION_2LINES_RXONLY)))
 8007fbe:	68fb      	ldr	r3, [r7, #12]
 8007fc0:	689b      	ldr	r3, [r3, #8]
 8007fc2:	f5b3 6f80 	cmp.w	r3, #1024	@ 0x400
 8007fc6:	d107      	bne.n	8007fd8 <SPI_WaitFlagStateUntilTimeout+0x94>
        {
          /* Disable SPI peripheral */
          __HAL_SPI_DISABLE(hspi);
 8007fc8:	68fb      	ldr	r3, [r7, #12]
 8007fca:	681b      	ldr	r3, [r3, #0]
 8007fcc:	681a      	ldr	r2, [r3, #0]
 8007fce:	68fb      	ldr	r3, [r7, #12]
 8007fd0:	681b      	ldr	r3, [r3, #0]
 8007fd2:	f022 0240 	bic.w	r2, r2, #64	@ 0x40
 8007fd6:	601a      	str	r2, [r3, #0]
        }

        /* Reset CRC Calculation */
        if (hspi->Init.CRCCalculation == SPI_CRCCALCULATION_ENABLE)
 8007fd8:	68fb      	ldr	r3, [r7, #12]
 8007fda:	6a9b      	ldr	r3, [r3, #40]	@ 0x28
 8007fdc:	f5b3 5f00 	cmp.w	r3, #8192	@ 0x2000
 8007fe0:	d10f      	bne.n	8008002 <SPI_WaitFlagStateUntilTimeout+0xbe>
        {
          SPI_RESET_CRC(hspi);
 8007fe2:	68fb      	ldr	r3, [r7, #12]
 8007fe4:	681b      	ldr	r3, [r3, #0]
 8007fe6:	681a      	ldr	r2, [r3, #0]
 8007fe8:	68fb      	ldr	r3, [r7, #12]
 8007fea:	681b      	ldr	r3, [r3, #0]
 8007fec:	f422 5200 	bic.w	r2, r2, #8192	@ 0x2000
 8007ff0:	601a      	str	r2, [r3, #0]
 8007ff2:	68fb      	ldr	r3, [r7, #12]
 8007ff4:	681b      	ldr	r3, [r3, #0]
 8007ff6:	681a      	ldr	r2, [r3, #0]
 8007ff8:	68fb      	ldr	r3, [r7, #12]
 8007ffa:	681b      	ldr	r3, [r3, #0]
 8007ffc:	f442 5200 	orr.w	r2, r2, #8192	@ 0x2000
 8008000:	601a      	str	r2, [r3, #0]
        }

        hspi->State = HAL_SPI_STATE_READY;
 8008002:	68fb      	ldr	r3, [r7, #12]
 8008004:	2201      	movs	r2, #1
 8008006:	f883 2051 	strb.w	r2, [r3, #81]	@ 0x51

        /* Process Unlocked */
        __HAL_UNLOCK(hspi);
 800800a:	68fb      	ldr	r3, [r7, #12]
 800800c:	2200      	movs	r2, #0
 800800e:	f883 2050 	strb.w	r2, [r3, #80]	@ 0x50

        return HAL_TIMEOUT;
 8008012:	2303      	movs	r3, #3
 8008014:	e017      	b.n	8008046 <SPI_WaitFlagStateUntilTimeout+0x102>
      }
      /* If Systick is disabled or not incremented, deactivate timeout to go in disable loop procedure */
      if (count == 0U)
 8008016:	697b      	ldr	r3, [r7, #20]
 8008018:	2b00      	cmp	r3, #0
 800801a:	d101      	bne.n	8008020 <SPI_WaitFlagStateUntilTimeout+0xdc>
      {
        tmp_timeout = 0U;
 800801c:	2300      	movs	r3, #0
 800801e:	61fb      	str	r3, [r7, #28]
      }
      count--;
 8008020:	697b      	ldr	r3, [r7, #20]
 8008022:	3b01      	subs	r3, #1
 8008024:	617b      	str	r3, [r7, #20]
  while ((__HAL_SPI_GET_FLAG(hspi, Flag) ? SET : RESET) != State)
 8008026:	68fb      	ldr	r3, [r7, #12]
 8008028:	681b      	ldr	r3, [r3, #0]
 800802a:	689a      	ldr	r2, [r3, #8]
 800802c:	68bb      	ldr	r3, [r7, #8]
 800802e:	4013      	ands	r3, r2
 8008030:	68ba      	ldr	r2, [r7, #8]
 8008032:	429a      	cmp	r2, r3
 8008034:	bf0c      	ite	eq
 8008036:	2301      	moveq	r3, #1
 8008038:	2300      	movne	r3, #0
 800803a:	b2db      	uxtb	r3, r3
 800803c:	461a      	mov	r2, r3
 800803e:	79fb      	ldrb	r3, [r7, #7]
 8008040:	429a      	cmp	r2, r3
 8008042:	d19b      	bne.n	8007f7c <SPI_WaitFlagStateUntilTimeout+0x38>
    }
  }

  return HAL_OK;
 8008044:	2300      	movs	r3, #0
}
 8008046:	4618      	mov	r0, r3
 8008048:	3720      	adds	r7, #32
 800804a:	46bd      	mov	sp, r7
 800804c:	bd80      	pop	{r7, pc}
 800804e:	bf00      	nop
 8008050:	2000001c 	.word	0x2000001c

08008054 <SPI_EndRxTransaction>:
  * @param  Timeout Timeout duration
  * @param  Tickstart tick start value
  * @retval HAL status
  */
static HAL_StatusTypeDef SPI_EndRxTransaction(SPI_HandleTypeDef *hspi,  uint32_t Timeout, uint32_t Tickstart)
{
 8008054:	b580      	push	{r7, lr}
 8008056:	b086      	sub	sp, #24
 8008058:	af02      	add	r7, sp, #8
 800805a:	60f8      	str	r0, [r7, #12]
 800805c:	60b9      	str	r1, [r7, #8]
 800805e:	607a      	str	r2, [r7, #4]
  if ((hspi->Init.Mode == SPI_MODE_MASTER) && ((hspi->Init.Direction == SPI_DIRECTION_1LINE)
 8008060:	68fb      	ldr	r3, [r7, #12]
 8008062:	685b      	ldr	r3, [r3, #4]
 8008064:	f5b3 7f82 	cmp.w	r3, #260	@ 0x104
 8008068:	d111      	bne.n	800808e <SPI_EndRxTransaction+0x3a>
 800806a:	68fb      	ldr	r3, [r7, #12]
 800806c:	689b      	ldr	r3, [r3, #8]
 800806e:	f5b3 4f00 	cmp.w	r3, #32768	@ 0x8000
 8008072:	d004      	beq.n	800807e <SPI_EndRxTransaction+0x2a>
                                               || (hspi->Init.Direction == SPI_DIRECTION_2LINES_RXONLY)))
 8008074:	68fb      	ldr	r3, [r7, #12]
 8008076:	689b      	ldr	r3, [r3, #8]
 8008078:	f5b3 6f80 	cmp.w	r3, #1024	@ 0x400
 800807c:	d107      	bne.n	800808e <SPI_EndRxTransaction+0x3a>
  {
    /* Disable SPI peripheral */
    __HAL_SPI_DISABLE(hspi);
 800807e:	68fb      	ldr	r3, [r7, #12]
 8008080:	681b      	ldr	r3, [r3, #0]
 8008082:	681a      	ldr	r2, [r3, #0]
 8008084:	68fb      	ldr	r3, [r7, #12]
 8008086:	681b      	ldr	r3, [r3, #0]
 8008088:	f022 0240 	bic.w	r2, r2, #64	@ 0x40
 800808c:	601a      	str	r2, [r3, #0]
  }

  /* Erratasheet: BSY bit may stay high at the end of a data transfer in Slave mode */
  if (hspi->Init.Mode == SPI_MODE_MASTER)
 800808e:	68fb      	ldr	r3, [r7, #12]
 8008090:	685b      	ldr	r3, [r3, #4]
 8008092:	f5b3 7f82 	cmp.w	r3, #260	@ 0x104
 8008096:	d12a      	bne.n	80080ee <SPI_EndRxTransaction+0x9a>
  {
    if (hspi->Init.Direction != SPI_DIRECTION_2LINES_RXONLY)
 8008098:	68fb      	ldr	r3, [r7, #12]
 800809a:	689b      	ldr	r3, [r3, #8]
 800809c:	f5b3 6f80 	cmp.w	r3, #1024	@ 0x400
 80080a0:	d012      	beq.n	80080c8 <SPI_EndRxTransaction+0x74>
    {
      /* Control the BSY flag */
      if (SPI_WaitFlagStateUntilTimeout(hspi, SPI_FLAG_BSY, RESET, Timeout, Tickstart) != HAL_OK)
 80080a2:	687b      	ldr	r3, [r7, #4]
 80080a4:	9300      	str	r3, [sp, #0]
 80080a6:	68bb      	ldr	r3, [r7, #8]
 80080a8:	2200      	movs	r2, #0
 80080aa:	2180      	movs	r1, #128	@ 0x80
 80080ac:	68f8      	ldr	r0, [r7, #12]
 80080ae:	f7ff ff49 	bl	8007f44 <SPI_WaitFlagStateUntilTimeout>
 80080b2:	4603      	mov	r3, r0
 80080b4:	2b00      	cmp	r3, #0
 80080b6:	d02d      	beq.n	8008114 <SPI_EndRxTransaction+0xc0>
      {
        SET_BIT(hspi->ErrorCode, HAL_SPI_ERROR_FLAG);
 80080b8:	68fb      	ldr	r3, [r7, #12]
 80080ba:	6d5b      	ldr	r3, [r3, #84]	@ 0x54
 80080bc:	f043 0220 	orr.w	r2, r3, #32
 80080c0:	68fb      	ldr	r3, [r7, #12]
 80080c2:	655a      	str	r2, [r3, #84]	@ 0x54
        return HAL_TIMEOUT;
 80080c4:	2303      	movs	r3, #3
 80080c6:	e026      	b.n	8008116 <SPI_EndRxTransaction+0xc2>
      }
    }
    else
    {
      /* Wait the RXNE reset */
      if (SPI_WaitFlagStateUntilTimeout(hspi, SPI_FLAG_RXNE, RESET, Timeout, Tickstart) != HAL_OK)
 80080c8:	687b      	ldr	r3, [r7, #4]
 80080ca:	9300      	str	r3, [sp, #0]
 80080cc:	68bb      	ldr	r3, [r7, #8]
 80080ce:	2200      	movs	r2, #0
 80080d0:	2101      	movs	r1, #1
 80080d2:	68f8      	ldr	r0, [r7, #12]
 80080d4:	f7ff ff36 	bl	8007f44 <SPI_WaitFlagStateUntilTimeout>
 80080d8:	4603      	mov	r3, r0
 80080da:	2b00      	cmp	r3, #0
 80080dc:	d01a      	beq.n	8008114 <SPI_EndRxTransaction+0xc0>
      {
        SET_BIT(hspi->ErrorCode, HAL_SPI_ERROR_FLAG);
 80080de:	68fb      	ldr	r3, [r7, #12]
 80080e0:	6d5b      	ldr	r3, [r3, #84]	@ 0x54
 80080e2:	f043 0220 	orr.w	r2, r3, #32
 80080e6:	68fb      	ldr	r3, [r7, #12]
 80080e8:	655a      	str	r2, [r3, #84]	@ 0x54
        return HAL_TIMEOUT;
 80080ea:	2303      	movs	r3, #3
 80080ec:	e013      	b.n	8008116 <SPI_EndRxTransaction+0xc2>
    }
  }
  else
  {
    /* Wait the RXNE reset */
    if (SPI_WaitFlagStateUntilTimeout(hspi, SPI_FLAG_RXNE, RESET, Timeout, Tickstart) != HAL_OK)
 80080ee:	687b      	ldr	r3, [r7, #4]
 80080f0:	9300      	str	r3, [sp, #0]
 80080f2:	68bb      	ldr	r3, [r7, #8]
 80080f4:	2200      	movs	r2, #0
 80080f6:	2101      	movs	r1, #1
 80080f8:	68f8      	ldr	r0, [r7, #12]
 80080fa:	f7ff ff23 	bl	8007f44 <SPI_WaitFlagStateUntilTimeout>
 80080fe:	4603      	mov	r3, r0
 8008100:	2b00      	cmp	r3, #0
 8008102:	d007      	beq.n	8008114 <SPI_EndRxTransaction+0xc0>
    {
      SET_BIT(hspi->ErrorCode, HAL_SPI_ERROR_FLAG);
 8008104:	68fb      	ldr	r3, [r7, #12]
 8008106:	6d5b      	ldr	r3, [r3, #84]	@ 0x54
 8008108:	f043 0220 	orr.w	r2, r3, #32
 800810c:	68fb      	ldr	r3, [r7, #12]
 800810e:	655a      	str	r2, [r3, #84]	@ 0x54
      return HAL_TIMEOUT;
 8008110:	2303      	movs	r3, #3
 8008112:	e000      	b.n	8008116 <SPI_EndRxTransaction+0xc2>
    }
  }
  return HAL_OK;
 8008114:	2300      	movs	r3, #0
}
 8008116:	4618      	mov	r0, r3
 8008118:	3710      	adds	r7, #16
 800811a:	46bd      	mov	sp, r7
 800811c:	bd80      	pop	{r7, pc}
	...

08008120 <SPI_EndRxTxTransaction>:
  * @param  Timeout Timeout duration
  * @param  Tickstart tick start value
  * @retval HAL status
  */
static HAL_StatusTypeDef SPI_EndRxTxTransaction(SPI_HandleTypeDef *hspi, uint32_t Timeout, uint32_t Tickstart)
{
 8008120:	b580      	push	{r7, lr}
 8008122:	b088      	sub	sp, #32
 8008124:	af02      	add	r7, sp, #8
 8008126:	60f8      	str	r0, [r7, #12]
 8008128:	60b9      	str	r1, [r7, #8]
 800812a:	607a      	str	r2, [r7, #4]
  /* Wait until TXE flag */
  if(SPI_WaitFlagStateUntilTimeout(hspi, SPI_FLAG_TXE, SET, Timeout, Tickstart) != HAL_OK)
 800812c:	687b      	ldr	r3, [r7, #4]
 800812e:	9300      	str	r3, [sp, #0]
 8008130:	68bb      	ldr	r3, [r7, #8]
 8008132:	2201      	movs	r2, #1
 8008134:	2102      	movs	r1, #2
 8008136:	68f8      	ldr	r0, [r7, #12]
 8008138:	f7ff ff04 	bl	8007f44 <SPI_WaitFlagStateUntilTimeout>
 800813c:	4603      	mov	r3, r0
 800813e:	2b00      	cmp	r3, #0
 8008140:	d007      	beq.n	8008152 <SPI_EndRxTxTransaction+0x32>
  {
    SET_BIT(hspi->ErrorCode, HAL_SPI_ERROR_FLAG);
 8008142:	68fb      	ldr	r3, [r7, #12]
 8008144:	6d5b      	ldr	r3, [r3, #84]	@ 0x54
 8008146:	f043 0220 	orr.w	r2, r3, #32
 800814a:	68fb      	ldr	r3, [r7, #12]
 800814c:	655a      	str	r2, [r3, #84]	@ 0x54
    return HAL_TIMEOUT;
 800814e:	2303      	movs	r3, #3
 8008150:	e032      	b.n	80081b8 <SPI_EndRxTxTransaction+0x98>
  }

  /* Timeout in s */
  __IO uint32_t count = SPI_BSY_FLAG_WORKAROUND_TIMEOUT * (SystemCoreClock / 24U / 1000000U);
 8008152:	4b1b      	ldr	r3, [pc, #108]	@ (80081c0 <SPI_EndRxTxTransaction+0xa0>)
 8008154:	681b      	ldr	r3, [r3, #0]
 8008156:	4a1b      	ldr	r2, [pc, #108]	@ (80081c4 <SPI_EndRxTxTransaction+0xa4>)
 8008158:	fba2 2303 	umull	r2, r3, r2, r3
 800815c:	0d5b      	lsrs	r3, r3, #21
 800815e:	f44f 727a 	mov.w	r2, #1000	@ 0x3e8
 8008162:	fb02 f303 	mul.w	r3, r2, r3
 8008166:	617b      	str	r3, [r7, #20]
  /* Erratasheet: BSY bit may stay high at the end of a data transfer in Slave mode */
  if (hspi->Init.Mode == SPI_MODE_MASTER)
 8008168:	68fb      	ldr	r3, [r7, #12]
 800816a:	685b      	ldr	r3, [r3, #4]
 800816c:	f5b3 7f82 	cmp.w	r3, #260	@ 0x104
 8008170:	d112      	bne.n	8008198 <SPI_EndRxTxTransaction+0x78>
  {
    /* Control the BSY flag */
    if (SPI_WaitFlagStateUntilTimeout(hspi, SPI_FLAG_BSY, RESET, Timeout, Tickstart) != HAL_OK)
 8008172:	687b      	ldr	r3, [r7, #4]
 8008174:	9300      	str	r3, [sp, #0]
 8008176:	68bb      	ldr	r3, [r7, #8]
 8008178:	2200      	movs	r2, #0
 800817a:	2180      	movs	r1, #128	@ 0x80
 800817c:	68f8      	ldr	r0, [r7, #12]
 800817e:	f7ff fee1 	bl	8007f44 <SPI_WaitFlagStateUntilTimeout>
 8008182:	4603      	mov	r3, r0
 8008184:	2b00      	cmp	r3, #0
 8008186:	d016      	beq.n	80081b6 <SPI_EndRxTxTransaction+0x96>
    {
      SET_BIT(hspi->ErrorCode, HAL_SPI_ERROR_FLAG);
 8008188:	68fb      	ldr	r3, [r7, #12]
 800818a:	6d5b      	ldr	r3, [r3, #84]	@ 0x54
 800818c:	f043 0220 	orr.w	r2, r3, #32
 8008190:	68fb      	ldr	r3, [r7, #12]
 8008192:	655a      	str	r2, [r3, #84]	@ 0x54
      return HAL_TIMEOUT;
 8008194:	2303      	movs	r3, #3
 8008196:	e00f      	b.n	80081b8 <SPI_EndRxTxTransaction+0x98>
    * User have to calculate the timeout value to fit with the time of 1 byte transfer.
    * This time is directly link with the SPI clock from Master device.
    */
    do
    {
      if (count == 0U)
 8008198:	697b      	ldr	r3, [r7, #20]
 800819a:	2b00      	cmp	r3, #0
 800819c:	d00a      	beq.n	80081b4 <SPI_EndRxTxTransaction+0x94>
      {
        break;
      }
      count--;
 800819e:	697b      	ldr	r3, [r7, #20]
 80081a0:	3b01      	subs	r3, #1
 80081a2:	617b      	str	r3, [r7, #20]
    } while (__HAL_SPI_GET_FLAG(hspi, SPI_FLAG_BSY) != RESET);
 80081a4:	68fb      	ldr	r3, [r7, #12]
 80081a6:	681b      	ldr	r3, [r3, #0]
 80081a8:	689b      	ldr	r3, [r3, #8]
 80081aa:	f003 0380 	and.w	r3, r3, #128	@ 0x80
 80081ae:	2b80      	cmp	r3, #128	@ 0x80
 80081b0:	d0f2      	beq.n	8008198 <SPI_EndRxTxTransaction+0x78>
 80081b2:	e000      	b.n	80081b6 <SPI_EndRxTxTransaction+0x96>
        break;
 80081b4:	bf00      	nop
  }

  return HAL_OK;
 80081b6:	2300      	movs	r3, #0
}
 80081b8:	4618      	mov	r0, r3
 80081ba:	3718      	adds	r7, #24
 80081bc:	46bd      	mov	sp, r7
 80081be:	bd80      	pop	{r7, pc}
 80081c0:	2000001c 	.word	0x2000001c
 80081c4:	165e9f81 	.word	0x165e9f81

080081c8 <HAL_TIM_Base_Init>:
  *         Ex: call @ref HAL_TIM_Base_DeInit() before HAL_TIM_Base_Init()
  * @param  htim TIM Base handle
  * @retval HAL status
  */
HAL_StatusTypeDef HAL_TIM_Base_Init(TIM_HandleTypeDef *htim)
{
 80081c8:	b580      	push	{r7, lr}
 80081ca:	b082      	sub	sp, #8
 80081cc:	af00      	add	r7, sp, #0
 80081ce:	6078      	str	r0, [r7, #4]
  /* Check the TIM handle allocation */
  if (htim == NULL)
 80081d0:	687b      	ldr	r3, [r7, #4]
 80081d2:	2b00      	cmp	r3, #0
 80081d4:	d101      	bne.n	80081da <HAL_TIM_Base_Init+0x12>
  {
    return HAL_ERROR;
 80081d6:	2301      	movs	r3, #1
 80081d8:	e041      	b.n	800825e <HAL_TIM_Base_Init+0x96>
  assert_param(IS_TIM_COUNTER_MODE(htim->Init.CounterMode));
  assert_param(IS_TIM_CLOCKDIVISION_DIV(htim->Init.ClockDivision));
  assert_param(IS_TIM_PERIOD(htim, htim->Init.Period));
  assert_param(IS_TIM_AUTORELOAD_PRELOAD(htim->Init.AutoReloadPreload));

  if (htim->State == HAL_TIM_STATE_RESET)
 80081da:	687b      	ldr	r3, [r7, #4]
 80081dc:	f893 303d 	ldrb.w	r3, [r3, #61]	@ 0x3d
 80081e0:	b2db      	uxtb	r3, r3
 80081e2:	2b00      	cmp	r3, #0
 80081e4:	d106      	bne.n	80081f4 <HAL_TIM_Base_Init+0x2c>
  {
    /* Allocate lock resource and initialize it */
    htim->Lock = HAL_UNLOCKED;
 80081e6:	687b      	ldr	r3, [r7, #4]
 80081e8:	2200      	movs	r2, #0
 80081ea:	f883 203c 	strb.w	r2, [r3, #60]	@ 0x3c
    }
    /* Init the low level hardware : GPIO, CLOCK, NVIC */
    htim->Base_MspInitCallback(htim);
#else
    /* Init the low level hardware : GPIO, CLOCK, NVIC */
    HAL_TIM_Base_MspInit(htim);
 80081ee:	6878      	ldr	r0, [r7, #4]
 80081f0:	f7fa fd94 	bl	8002d1c <HAL_TIM_Base_MspInit>
#endif /* USE_HAL_TIM_REGISTER_CALLBACKS */
  }

  /* Set the TIM state */
  htim->State = HAL_TIM_STATE_BUSY;
 80081f4:	687b      	ldr	r3, [r7, #4]
 80081f6:	2202      	movs	r2, #2
 80081f8:	f883 203d 	strb.w	r2, [r3, #61]	@ 0x3d

  /* Set the Time Base configuration */
  TIM_Base_SetConfig(htim->Instance, &htim->Init);
 80081fc:	687b      	ldr	r3, [r7, #4]
 80081fe:	681a      	ldr	r2, [r3, #0]
 8008200:	687b      	ldr	r3, [r7, #4]
 8008202:	3304      	adds	r3, #4
 8008204:	4619      	mov	r1, r3
 8008206:	4610      	mov	r0, r2
 8008208:	f000 f9c0 	bl	800858c <TIM_Base_SetConfig>

  /* Initialize the DMA burst operation state */
  htim->DMABurstState = HAL_DMA_BURST_STATE_READY;
 800820c:	687b      	ldr	r3, [r7, #4]
 800820e:	2201      	movs	r2, #1
 8008210:	f883 2046 	strb.w	r2, [r3, #70]	@ 0x46

  /* Initialize the TIM channels state */
  TIM_CHANNEL_STATE_SET_ALL(htim, HAL_TIM_CHANNEL_STATE_READY);
 8008214:	687b      	ldr	r3, [r7, #4]
 8008216:	2201      	movs	r2, #1
 8008218:	f883 203e 	strb.w	r2, [r3, #62]	@ 0x3e
 800821c:	687b      	ldr	r3, [r7, #4]
 800821e:	2201      	movs	r2, #1
 8008220:	f883 203f 	strb.w	r2, [r3, #63]	@ 0x3f
 8008224:	687b      	ldr	r3, [r7, #4]
 8008226:	2201      	movs	r2, #1
 8008228:	f883 2040 	strb.w	r2, [r3, #64]	@ 0x40
 800822c:	687b      	ldr	r3, [r7, #4]
 800822e:	2201      	movs	r2, #1
 8008230:	f883 2041 	strb.w	r2, [r3, #65]	@ 0x41
  TIM_CHANNEL_N_STATE_SET_ALL(htim, HAL_TIM_CHANNEL_STATE_READY);
 8008234:	687b      	ldr	r3, [r7, #4]
 8008236:	2201      	movs	r2, #1
 8008238:	f883 2042 	strb.w	r2, [r3, #66]	@ 0x42
 800823c:	687b      	ldr	r3, [r7, #4]
 800823e:	2201      	movs	r2, #1
 8008240:	f883 2043 	strb.w	r2, [r3, #67]	@ 0x43
 8008244:	687b      	ldr	r3, [r7, #4]
 8008246:	2201      	movs	r2, #1
 8008248:	f883 2044 	strb.w	r2, [r3, #68]	@ 0x44
 800824c:	687b      	ldr	r3, [r7, #4]
 800824e:	2201      	movs	r2, #1
 8008250:	f883 2045 	strb.w	r2, [r3, #69]	@ 0x45

  /* Initialize the TIM state*/
  htim->State = HAL_TIM_STATE_READY;
 8008254:	687b      	ldr	r3, [r7, #4]
 8008256:	2201      	movs	r2, #1
 8008258:	f883 203d 	strb.w	r2, [r3, #61]	@ 0x3d

  return HAL_OK;
 800825c:	2300      	movs	r3, #0
}
 800825e:	4618      	mov	r0, r3
 8008260:	3708      	adds	r7, #8
 8008262:	46bd      	mov	sp, r7
 8008264:	bd80      	pop	{r7, pc}
	...

08008268 <HAL_TIM_Base_Start_IT>:
  * @brief  Starts the TIM Base generation in interrupt mode.
  * @param  htim TIM Base handle
  * @retval HAL status
  */
HAL_StatusTypeDef HAL_TIM_Base_Start_IT(TIM_HandleTypeDef *htim)
{
 8008268:	b480      	push	{r7}
 800826a:	b085      	sub	sp, #20
 800826c:	af00      	add	r7, sp, #0
 800826e:	6078      	str	r0, [r7, #4]

  /* Check the parameters */
  assert_param(IS_TIM_INSTANCE(htim->Instance));

  /* Check the TIM state */
  if (htim->State != HAL_TIM_STATE_READY)
 8008270:	687b      	ldr	r3, [r7, #4]
 8008272:	f893 303d 	ldrb.w	r3, [r3, #61]	@ 0x3d
 8008276:	b2db      	uxtb	r3, r3
 8008278:	2b01      	cmp	r3, #1
 800827a:	d001      	beq.n	8008280 <HAL_TIM_Base_Start_IT+0x18>
  {
    return HAL_ERROR;
 800827c:	2301      	movs	r3, #1
 800827e:	e04e      	b.n	800831e <HAL_TIM_Base_Start_IT+0xb6>
  }

  /* Set the TIM state */
  htim->State = HAL_TIM_STATE_BUSY;
 8008280:	687b      	ldr	r3, [r7, #4]
 8008282:	2202      	movs	r2, #2
 8008284:	f883 203d 	strb.w	r2, [r3, #61]	@ 0x3d

  /* Enable the TIM Update interrupt */
  __HAL_TIM_ENABLE_IT(htim, TIM_IT_UPDATE);
 8008288:	687b      	ldr	r3, [r7, #4]
 800828a:	681b      	ldr	r3, [r3, #0]
 800828c:	68da      	ldr	r2, [r3, #12]
 800828e:	687b      	ldr	r3, [r7, #4]
 8008290:	681b      	ldr	r3, [r3, #0]
 8008292:	f042 0201 	orr.w	r2, r2, #1
 8008296:	60da      	str	r2, [r3, #12]

  /* Enable the Peripheral, except in trigger mode where enable is automatically done with trigger */
  if (IS_TIM_SLAVE_INSTANCE(htim->Instance))
 8008298:	687b      	ldr	r3, [r7, #4]
 800829a:	681b      	ldr	r3, [r3, #0]
 800829c:	4a23      	ldr	r2, [pc, #140]	@ (800832c <HAL_TIM_Base_Start_IT+0xc4>)
 800829e:	4293      	cmp	r3, r2
 80082a0:	d022      	beq.n	80082e8 <HAL_TIM_Base_Start_IT+0x80>
 80082a2:	687b      	ldr	r3, [r7, #4]
 80082a4:	681b      	ldr	r3, [r3, #0]
 80082a6:	f1b3 4f80 	cmp.w	r3, #1073741824	@ 0x40000000
 80082aa:	d01d      	beq.n	80082e8 <HAL_TIM_Base_Start_IT+0x80>
 80082ac:	687b      	ldr	r3, [r7, #4]
 80082ae:	681b      	ldr	r3, [r3, #0]
 80082b0:	4a1f      	ldr	r2, [pc, #124]	@ (8008330 <HAL_TIM_Base_Start_IT+0xc8>)
 80082b2:	4293      	cmp	r3, r2
 80082b4:	d018      	beq.n	80082e8 <HAL_TIM_Base_Start_IT+0x80>
 80082b6:	687b      	ldr	r3, [r7, #4]
 80082b8:	681b      	ldr	r3, [r3, #0]
 80082ba:	4a1e      	ldr	r2, [pc, #120]	@ (8008334 <HAL_TIM_Base_Start_IT+0xcc>)
 80082bc:	4293      	cmp	r3, r2
 80082be:	d013      	beq.n	80082e8 <HAL_TIM_Base_Start_IT+0x80>
 80082c0:	687b      	ldr	r3, [r7, #4]
 80082c2:	681b      	ldr	r3, [r3, #0]
 80082c4:	4a1c      	ldr	r2, [pc, #112]	@ (8008338 <HAL_TIM_Base_Start_IT+0xd0>)
 80082c6:	4293      	cmp	r3, r2
 80082c8:	d00e      	beq.n	80082e8 <HAL_TIM_Base_Start_IT+0x80>
 80082ca:	687b      	ldr	r3, [r7, #4]
 80082cc:	681b      	ldr	r3, [r3, #0]
 80082ce:	4a1b      	ldr	r2, [pc, #108]	@ (800833c <HAL_TIM_Base_Start_IT+0xd4>)
 80082d0:	4293      	cmp	r3, r2
 80082d2:	d009      	beq.n	80082e8 <HAL_TIM_Base_Start_IT+0x80>
 80082d4:	687b      	ldr	r3, [r7, #4]
 80082d6:	681b      	ldr	r3, [r3, #0]
 80082d8:	4a19      	ldr	r2, [pc, #100]	@ (8008340 <HAL_TIM_Base_Start_IT+0xd8>)
 80082da:	4293      	cmp	r3, r2
 80082dc:	d004      	beq.n	80082e8 <HAL_TIM_Base_Start_IT+0x80>
 80082de:	687b      	ldr	r3, [r7, #4]
 80082e0:	681b      	ldr	r3, [r3, #0]
 80082e2:	4a18      	ldr	r2, [pc, #96]	@ (8008344 <HAL_TIM_Base_Start_IT+0xdc>)
 80082e4:	4293      	cmp	r3, r2
 80082e6:	d111      	bne.n	800830c <HAL_TIM_Base_Start_IT+0xa4>
  {
    tmpsmcr = htim->Instance->SMCR & TIM_SMCR_SMS;
 80082e8:	687b      	ldr	r3, [r7, #4]
 80082ea:	681b      	ldr	r3, [r3, #0]
 80082ec:	689b      	ldr	r3, [r3, #8]
 80082ee:	f003 0307 	and.w	r3, r3, #7
 80082f2:	60fb      	str	r3, [r7, #12]
    if (!IS_TIM_SLAVEMODE_TRIGGER_ENABLED(tmpsmcr))
 80082f4:	68fb      	ldr	r3, [r7, #12]
 80082f6:	2b06      	cmp	r3, #6
 80082f8:	d010      	beq.n	800831c <HAL_TIM_Base_Start_IT+0xb4>
    {
      __HAL_TIM_ENABLE(htim);
 80082fa:	687b      	ldr	r3, [r7, #4]
 80082fc:	681b      	ldr	r3, [r3, #0]
 80082fe:	681a      	ldr	r2, [r3, #0]
 8008300:	687b      	ldr	r3, [r7, #4]
 8008302:	681b      	ldr	r3, [r3, #0]
 8008304:	f042 0201 	orr.w	r2, r2, #1
 8008308:	601a      	str	r2, [r3, #0]
    if (!IS_TIM_SLAVEMODE_TRIGGER_ENABLED(tmpsmcr))
 800830a:	e007      	b.n	800831c <HAL_TIM_Base_Start_IT+0xb4>
    }
  }
  else
  {
    __HAL_TIM_ENABLE(htim);
 800830c:	687b      	ldr	r3, [r7, #4]
 800830e:	681b      	ldr	r3, [r3, #0]
 8008310:	681a      	ldr	r2, [r3, #0]
 8008312:	687b      	ldr	r3, [r7, #4]
 8008314:	681b      	ldr	r3, [r3, #0]
 8008316:	f042 0201 	orr.w	r2, r2, #1
 800831a:	601a      	str	r2, [r3, #0]
  }

  /* Return function status */
  return HAL_OK;
 800831c:	2300      	movs	r3, #0
}
 800831e:	4618      	mov	r0, r3
 8008320:	3714      	adds	r7, #20
 8008322:	46bd      	mov	sp, r7
 8008324:	f85d 7b04 	ldr.w	r7, [sp], #4
 8008328:	4770      	bx	lr
 800832a:	bf00      	nop
 800832c:	40010000 	.word	0x40010000
 8008330:	40000400 	.word	0x40000400
 8008334:	40000800 	.word	0x40000800
 8008338:	40000c00 	.word	0x40000c00
 800833c:	40010400 	.word	0x40010400
 8008340:	40014000 	.word	0x40014000
 8008344:	40001800 	.word	0x40001800

08008348 <HAL_TIM_IRQHandler>:
  * @brief  This function handles TIM interrupts requests.
  * @param  htim TIM  handle
  * @retval None
  */
void HAL_TIM_IRQHandler(TIM_HandleTypeDef *htim)
{
 8008348:	b580      	push	{r7, lr}
 800834a:	b084      	sub	sp, #16
 800834c:	af00      	add	r7, sp, #0
 800834e:	6078      	str	r0, [r7, #4]
  uint32_t itsource = htim->Instance->DIER;
 8008350:	687b      	ldr	r3, [r7, #4]
 8008352:	681b      	ldr	r3, [r3, #0]
 8008354:	68db      	ldr	r3, [r3, #12]
 8008356:	60fb      	str	r3, [r7, #12]
  uint32_t itflag   = htim->Instance->SR;
 8008358:	687b      	ldr	r3, [r7, #4]
 800835a:	681b      	ldr	r3, [r3, #0]
 800835c:	691b      	ldr	r3, [r3, #16]
 800835e:	60bb      	str	r3, [r7, #8]

  /* Capture compare 1 event */
  if ((itflag & (TIM_FLAG_CC1)) == (TIM_FLAG_CC1))
 8008360:	68bb      	ldr	r3, [r7, #8]
 8008362:	f003 0302 	and.w	r3, r3, #2
 8008366:	2b00      	cmp	r3, #0
 8008368:	d020      	beq.n	80083ac <HAL_TIM_IRQHandler+0x64>
  {
    if ((itsource & (TIM_IT_CC1)) == (TIM_IT_CC1))
 800836a:	68fb      	ldr	r3, [r7, #12]
 800836c:	f003 0302 	and.w	r3, r3, #2
 8008370:	2b00      	cmp	r3, #0
 8008372:	d01b      	beq.n	80083ac <HAL_TIM_IRQHandler+0x64>
    {
      {
        __HAL_TIM_CLEAR_FLAG(htim, TIM_FLAG_CC1);
 8008374:	687b      	ldr	r3, [r7, #4]
 8008376:	681b      	ldr	r3, [r3, #0]
 8008378:	f06f 0202 	mvn.w	r2, #2
 800837c:	611a      	str	r2, [r3, #16]
        htim->Channel = HAL_TIM_ACTIVE_CHANNEL_1;
 800837e:	687b      	ldr	r3, [r7, #4]
 8008380:	2201      	movs	r2, #1
 8008382:	771a      	strb	r2, [r3, #28]

        /* Input capture event */
        if ((htim->Instance->CCMR1 & TIM_CCMR1_CC1S) != 0x00U)
 8008384:	687b      	ldr	r3, [r7, #4]
 8008386:	681b      	ldr	r3, [r3, #0]
 8008388:	699b      	ldr	r3, [r3, #24]
 800838a:	f003 0303 	and.w	r3, r3, #3
 800838e:	2b00      	cmp	r3, #0
 8008390:	d003      	beq.n	800839a <HAL_TIM_IRQHandler+0x52>
        {
#if (USE_HAL_TIM_REGISTER_CALLBACKS == 1)
          htim->IC_CaptureCallback(htim);
#else
          HAL_TIM_IC_CaptureCallback(htim);
 8008392:	6878      	ldr	r0, [r7, #4]
 8008394:	f000 f8dc 	bl	8008550 <HAL_TIM_IC_CaptureCallback>
 8008398:	e005      	b.n	80083a6 <HAL_TIM_IRQHandler+0x5e>
        {
#if (USE_HAL_TIM_REGISTER_CALLBACKS == 1)
          htim->OC_DelayElapsedCallback(htim);
          htim->PWM_PulseFinishedCallback(htim);
#else
          HAL_TIM_OC_DelayElapsedCallback(htim);
 800839a:	6878      	ldr	r0, [r7, #4]
 800839c:	f000 f8ce 	bl	800853c <HAL_TIM_OC_DelayElapsedCallback>
          HAL_TIM_PWM_PulseFinishedCallback(htim);
 80083a0:	6878      	ldr	r0, [r7, #4]
 80083a2:	f000 f8df 	bl	8008564 <HAL_TIM_PWM_PulseFinishedCallback>
#endif /* USE_HAL_TIM_REGISTER_CALLBACKS */
        }
        htim->Channel = HAL_TIM_ACTIVE_CHANNEL_CLEARED;
 80083a6:	687b      	ldr	r3, [r7, #4]
 80083a8:	2200      	movs	r2, #0
 80083aa:	771a      	strb	r2, [r3, #28]
      }
    }
  }
  /* Capture compare 2 event */
  if ((itflag & (TIM_FLAG_CC2)) == (TIM_FLAG_CC2))
 80083ac:	68bb      	ldr	r3, [r7, #8]
 80083ae:	f003 0304 	and.w	r3, r3, #4
 80083b2:	2b00      	cmp	r3, #0
 80083b4:	d020      	beq.n	80083f8 <HAL_TIM_IRQHandler+0xb0>
  {
    if ((itsource & (TIM_IT_CC2)) == (TIM_IT_CC2))
 80083b6:	68fb      	ldr	r3, [r7, #12]
 80083b8:	f003 0304 	and.w	r3, r3, #4
 80083bc:	2b00      	cmp	r3, #0
 80083be:	d01b      	beq.n	80083f8 <HAL_TIM_IRQHandler+0xb0>
    {
      __HAL_TIM_CLEAR_FLAG(htim, TIM_FLAG_CC2);
 80083c0:	687b      	ldr	r3, [r7, #4]
 80083c2:	681b      	ldr	r3, [r3, #0]
 80083c4:	f06f 0204 	mvn.w	r2, #4
 80083c8:	611a      	str	r2, [r3, #16]
      htim->Channel = HAL_TIM_ACTIVE_CHANNEL_2;
 80083ca:	687b      	ldr	r3, [r7, #4]
 80083cc:	2202      	movs	r2, #2
 80083ce:	771a      	strb	r2, [r3, #28]
      /* Input capture event */
      if ((htim->Instance->CCMR1 & TIM_CCMR1_CC2S) != 0x00U)
 80083d0:	687b      	ldr	r3, [r7, #4]
 80083d2:	681b      	ldr	r3, [r3, #0]
 80083d4:	699b      	ldr	r3, [r3, #24]
 80083d6:	f403 7340 	and.w	r3, r3, #768	@ 0x300
 80083da:	2b00      	cmp	r3, #0
 80083dc:	d003      	beq.n	80083e6 <HAL_TIM_IRQHandler+0x9e>
      {
#if (USE_HAL_TIM_REGISTER_CALLBACKS == 1)
        htim->IC_CaptureCallback(htim);
#else
        HAL_TIM_IC_CaptureCallback(htim);
 80083de:	6878      	ldr	r0, [r7, #4]
 80083e0:	f000 f8b6 	bl	8008550 <HAL_TIM_IC_CaptureCallback>
 80083e4:	e005      	b.n	80083f2 <HAL_TIM_IRQHandler+0xaa>
      {
#if (USE_HAL_TIM_REGISTER_CALLBACKS == 1)
        htim->OC_DelayElapsedCallback(htim);
        htim->PWM_PulseFinishedCallback(htim);
#else
        HAL_TIM_OC_DelayElapsedCallback(htim);
 80083e6:	6878      	ldr	r0, [r7, #4]
 80083e8:	f000 f8a8 	bl	800853c <HAL_TIM_OC_DelayElapsedCallback>
        HAL_TIM_PWM_PulseFinishedCallback(htim);
 80083ec:	6878      	ldr	r0, [r7, #4]
 80083ee:	f000 f8b9 	bl	8008564 <HAL_TIM_PWM_PulseFinishedCallback>
#endif /* USE_HAL_TIM_REGISTER_CALLBACKS */
      }
      htim->Channel = HAL_TIM_ACTIVE_CHANNEL_CLEARED;
 80083f2:	687b      	ldr	r3, [r7, #4]
 80083f4:	2200      	movs	r2, #0
 80083f6:	771a      	strb	r2, [r3, #28]
    }
  }
  /* Capture compare 3 event */
  if ((itflag & (TIM_FLAG_CC3)) == (TIM_FLAG_CC3))
 80083f8:	68bb      	ldr	r3, [r7, #8]
 80083fa:	f003 0308 	and.w	r3, r3, #8
 80083fe:	2b00      	cmp	r3, #0
 8008400:	d020      	beq.n	8008444 <HAL_TIM_IRQHandler+0xfc>
  {
    if ((itsource & (TIM_IT_CC3)) == (TIM_IT_CC3))
 8008402:	68fb      	ldr	r3, [r7, #12]
 8008404:	f003 0308 	and.w	r3, r3, #8
 8008408:	2b00      	cmp	r3, #0
 800840a:	d01b      	beq.n	8008444 <HAL_TIM_IRQHandler+0xfc>
    {
      __HAL_TIM_CLEAR_FLAG(htim, TIM_FLAG_CC3);
 800840c:	687b      	ldr	r3, [r7, #4]
 800840e:	681b      	ldr	r3, [r3, #0]
 8008410:	f06f 0208 	mvn.w	r2, #8
 8008414:	611a      	str	r2, [r3, #16]
      htim->Channel = HAL_TIM_ACTIVE_CHANNEL_3;
 8008416:	687b      	ldr	r3, [r7, #4]
 8008418:	2204      	movs	r2, #4
 800841a:	771a      	strb	r2, [r3, #28]
      /* Input capture event */
      if ((htim->Instance->CCMR2 & TIM_CCMR2_CC3S) != 0x00U)
 800841c:	687b      	ldr	r3, [r7, #4]
 800841e:	681b      	ldr	r3, [r3, #0]
 8008420:	69db      	ldr	r3, [r3, #28]
 8008422:	f003 0303 	and.w	r3, r3, #3
 8008426:	2b00      	cmp	r3, #0
 8008428:	d003      	beq.n	8008432 <HAL_TIM_IRQHandler+0xea>
      {
#if (USE_HAL_TIM_REGISTER_CALLBACKS == 1)
        htim->IC_CaptureCallback(htim);
#else
        HAL_TIM_IC_CaptureCallback(htim);
 800842a:	6878      	ldr	r0, [r7, #4]
 800842c:	f000 f890 	bl	8008550 <HAL_TIM_IC_CaptureCallback>
 8008430:	e005      	b.n	800843e <HAL_TIM_IRQHandler+0xf6>
      {
#if (USE_HAL_TIM_REGISTER_CALLBACKS == 1)
        htim->OC_DelayElapsedCallback(htim);
        htim->PWM_PulseFinishedCallback(htim);
#else
        HAL_TIM_OC_DelayElapsedCallback(htim);
 8008432:	6878      	ldr	r0, [r7, #4]
 8008434:	f000 f882 	bl	800853c <HAL_TIM_OC_DelayElapsedCallback>
        HAL_TIM_PWM_PulseFinishedCallback(htim);
 8008438:	6878      	ldr	r0, [r7, #4]
 800843a:	f000 f893 	bl	8008564 <HAL_TIM_PWM_PulseFinishedCallback>
#endif /* USE_HAL_TIM_REGISTER_CALLBACKS */
      }
      htim->Channel = HAL_TIM_ACTIVE_CHANNEL_CLEARED;
 800843e:	687b      	ldr	r3, [r7, #4]
 8008440:	2200      	movs	r2, #0
 8008442:	771a      	strb	r2, [r3, #28]
    }
  }
  /* Capture compare 4 event */
  if ((itflag & (TIM_FLAG_CC4)) == (TIM_FLAG_CC4))
 8008444:	68bb      	ldr	r3, [r7, #8]
 8008446:	f003 0310 	and.w	r3, r3, #16
 800844a:	2b00      	cmp	r3, #0
 800844c:	d020      	beq.n	8008490 <HAL_TIM_IRQHandler+0x148>
  {
    if ((itsource & (TIM_IT_CC4)) == (TIM_IT_CC4))
 800844e:	68fb      	ldr	r3, [r7, #12]
 8008450:	f003 0310 	and.w	r3, r3, #16
 8008454:	2b00      	cmp	r3, #0
 8008456:	d01b      	beq.n	8008490 <HAL_TIM_IRQHandler+0x148>
    {
      __HAL_TIM_CLEAR_FLAG(htim, TIM_FLAG_CC4);
 8008458:	687b      	ldr	r3, [r7, #4]
 800845a:	681b      	ldr	r3, [r3, #0]
 800845c:	f06f 0210 	mvn.w	r2, #16
 8008460:	611a      	str	r2, [r3, #16]
      htim->Channel = HAL_TIM_ACTIVE_CHANNEL_4;
 8008462:	687b      	ldr	r3, [r7, #4]
 8008464:	2208      	movs	r2, #8
 8008466:	771a      	strb	r2, [r3, #28]
      /* Input capture event */
      if ((htim->Instance->CCMR2 & TIM_CCMR2_CC4S) != 0x00U)
 8008468:	687b      	ldr	r3, [r7, #4]
 800846a:	681b      	ldr	r3, [r3, #0]
 800846c:	69db      	ldr	r3, [r3, #28]
 800846e:	f403 7340 	and.w	r3, r3, #768	@ 0x300
 8008472:	2b00      	cmp	r3, #0
 8008474:	d003      	beq.n	800847e <HAL_TIM_IRQHandler+0x136>
      {
#if (USE_HAL_TIM_REGISTER_CALLBACKS == 1)
        htim->IC_CaptureCallback(htim);
#else
        HAL_TIM_IC_CaptureCallback(htim);
 8008476:	6878      	ldr	r0, [r7, #4]
 8008478:	f000 f86a 	bl	8008550 <HAL_TIM_IC_CaptureCallback>
 800847c:	e005      	b.n	800848a <HAL_TIM_IRQHandler+0x142>
      {
#if (USE_HAL_TIM_REGISTER_CALLBACKS == 1)
        htim->OC_DelayElapsedCallback(htim);
        htim->PWM_PulseFinishedCallback(htim);
#else
        HAL_TIM_OC_DelayElapsedCallback(htim);
 800847e:	6878      	ldr	r0, [r7, #4]
 8008480:	f000 f85c 	bl	800853c <HAL_TIM_OC_DelayElapsedCallback>
        HAL_TIM_PWM_PulseFinishedCallback(htim);
 8008484:	6878      	ldr	r0, [r7, #4]
 8008486:	f000 f86d 	bl	8008564 <HAL_TIM_PWM_PulseFinishedCallback>
#endif /* USE_HAL_TIM_REGISTER_CALLBACKS */
      }
      htim->Channel = HAL_TIM_ACTIVE_CHANNEL_CLEARED;
 800848a:	687b      	ldr	r3, [r7, #4]
 800848c:	2200      	movs	r2, #0
 800848e:	771a      	strb	r2, [r3, #28]
    }
  }
  /* TIM Update event */
  if ((itflag & (TIM_FLAG_UPDATE)) == (TIM_FLAG_UPDATE))
 8008490:	68bb      	ldr	r3, [r7, #8]
 8008492:	f003 0301 	and.w	r3, r3, #1
 8008496:	2b00      	cmp	r3, #0
 8008498:	d00c      	beq.n	80084b4 <HAL_TIM_IRQHandler+0x16c>
  {
    if ((itsource & (TIM_IT_UPDATE)) == (TIM_IT_UPDATE))
 800849a:	68fb      	ldr	r3, [r7, #12]
 800849c:	f003 0301 	and.w	r3, r3, #1
 80084a0:	2b00      	cmp	r3, #0
 80084a2:	d007      	beq.n	80084b4 <HAL_TIM_IRQHandler+0x16c>
    {
      __HAL_TIM_CLEAR_FLAG(htim, TIM_FLAG_UPDATE);
 80084a4:	687b      	ldr	r3, [r7, #4]
 80084a6:	681b      	ldr	r3, [r3, #0]
 80084a8:	f06f 0201 	mvn.w	r2, #1
 80084ac:	611a      	str	r2, [r3, #16]
#if (USE_HAL_TIM_REGISTER_CALLBACKS == 1)
      htim->PeriodElapsedCallback(htim);
#else
      HAL_TIM_PeriodElapsedCallback(htim);
 80084ae:	6878      	ldr	r0, [r7, #4]
 80084b0:	f000 f83a 	bl	8008528 <HAL_TIM_PeriodElapsedCallback>
#endif /* USE_HAL_TIM_REGISTER_CALLBACKS */
    }
  }
  /* TIM Break input event */
  if ((itflag & (TIM_FLAG_BREAK)) == (TIM_FLAG_BREAK))
 80084b4:	68bb      	ldr	r3, [r7, #8]
 80084b6:	f003 0380 	and.w	r3, r3, #128	@ 0x80
 80084ba:	2b00      	cmp	r3, #0
 80084bc:	d00c      	beq.n	80084d8 <HAL_TIM_IRQHandler+0x190>
  {
    if ((itsource & (TIM_IT_BREAK)) == (TIM_IT_BREAK))
 80084be:	68fb      	ldr	r3, [r7, #12]
 80084c0:	f003 0380 	and.w	r3, r3, #128	@ 0x80
 80084c4:	2b00      	cmp	r3, #0
 80084c6:	d007      	beq.n	80084d8 <HAL_TIM_IRQHandler+0x190>
    {
      __HAL_TIM_CLEAR_FLAG(htim, TIM_FLAG_BREAK);
 80084c8:	687b      	ldr	r3, [r7, #4]
 80084ca:	681b      	ldr	r3, [r3, #0]
 80084cc:	f06f 0280 	mvn.w	r2, #128	@ 0x80
 80084d0:	611a      	str	r2, [r3, #16]
#if (USE_HAL_TIM_REGISTER_CALLBACKS == 1)
      htim->BreakCallback(htim);
#else
      HAL_TIMEx_BreakCallback(htim);
 80084d2:	6878      	ldr	r0, [r7, #4]
 80084d4:	f000 f98c 	bl	80087f0 <HAL_TIMEx_BreakCallback>
#endif /* USE_HAL_TIM_REGISTER_CALLBACKS */
    }
  }
  /* TIM Trigger detection event */
  if ((itflag & (TIM_FLAG_TRIGGER)) == (TIM_FLAG_TRIGGER))
 80084d8:	68bb      	ldr	r3, [r7, #8]
 80084da:	f003 0340 	and.w	r3, r3, #64	@ 0x40
 80084de:	2b00      	cmp	r3, #0
 80084e0:	d00c      	beq.n	80084fc <HAL_TIM_IRQHandler+0x1b4>
  {
    if ((itsource & (TIM_IT_TRIGGER)) == (TIM_IT_TRIGGER))
 80084e2:	68fb      	ldr	r3, [r7, #12]
 80084e4:	f003 0340 	and.w	r3, r3, #64	@ 0x40
 80084e8:	2b00      	cmp	r3, #0
 80084ea:	d007      	beq.n	80084fc <HAL_TIM_IRQHandler+0x1b4>
    {
      __HAL_TIM_CLEAR_FLAG(htim, TIM_FLAG_TRIGGER);
 80084ec:	687b      	ldr	r3, [r7, #4]
 80084ee:	681b      	ldr	r3, [r3, #0]
 80084f0:	f06f 0240 	mvn.w	r2, #64	@ 0x40
 80084f4:	611a      	str	r2, [r3, #16]
#if (USE_HAL_TIM_REGISTER_CALLBACKS == 1)
      htim->TriggerCallback(htim);
#else
      HAL_TIM_TriggerCallback(htim);
 80084f6:	6878      	ldr	r0, [r7, #4]
 80084f8:	f000 f83e 	bl	8008578 <HAL_TIM_TriggerCallback>
#endif /* USE_HAL_TIM_REGISTER_CALLBACKS */
    }
  }
  /* TIM commutation event */
  if ((itflag & (TIM_FLAG_COM)) == (TIM_FLAG_COM))
 80084fc:	68bb      	ldr	r3, [r7, #8]
 80084fe:	f003 0320 	and.w	r3, r3, #32
 8008502:	2b00      	cmp	r3, #0
 8008504:	d00c      	beq.n	8008520 <HAL_TIM_IRQHandler+0x1d8>
  {
    if ((itsource & (TIM_IT_COM)) == (TIM_IT_COM))
 8008506:	68fb      	ldr	r3, [r7, #12]
 8008508:	f003 0320 	and.w	r3, r3, #32
 800850c:	2b00      	cmp	r3, #0
 800850e:	d007      	beq.n	8008520 <HAL_TIM_IRQHandler+0x1d8>
    {
      __HAL_TIM_CLEAR_FLAG(htim, TIM_FLAG_COM);
 8008510:	687b      	ldr	r3, [r7, #4]
 8008512:	681b      	ldr	r3, [r3, #0]
 8008514:	f06f 0220 	mvn.w	r2, #32
 8008518:	611a      	str	r2, [r3, #16]
#if (USE_HAL_TIM_REGISTER_CALLBACKS == 1)
      htim->CommutationCallback(htim);
#else
      HAL_TIMEx_CommutCallback(htim);
 800851a:	6878      	ldr	r0, [r7, #4]
 800851c:	f000 f95e 	bl	80087dc <HAL_TIMEx_CommutCallback>
#endif /* USE_HAL_TIM_REGISTER_CALLBACKS */
    }
  }
}
 8008520:	bf00      	nop
 8008522:	3710      	adds	r7, #16
 8008524:	46bd      	mov	sp, r7
 8008526:	bd80      	pop	{r7, pc}

08008528 <HAL_TIM_PeriodElapsedCallback>:
  * @brief  Period elapsed callback in non-blocking mode
  * @param  htim TIM handle
  * @retval None
  */
__weak void HAL_TIM_PeriodElapsedCallback(TIM_HandleTypeDef *htim)
{
 8008528:	b480      	push	{r7}
 800852a:	b083      	sub	sp, #12
 800852c:	af00      	add	r7, sp, #0
 800852e:	6078      	str	r0, [r7, #4]
  UNUSED(htim);

  /* NOTE : This function should not be modified, when the callback is needed,
            the HAL_TIM_PeriodElapsedCallback could be implemented in the user file
   */
}
 8008530:	bf00      	nop
 8008532:	370c      	adds	r7, #12
 8008534:	46bd      	mov	sp, r7
 8008536:	f85d 7b04 	ldr.w	r7, [sp], #4
 800853a:	4770      	bx	lr

0800853c <HAL_TIM_OC_DelayElapsedCallback>:
  * @brief  Output Compare callback in non-blocking mode
  * @param  htim TIM OC handle
  * @retval None
  */
__weak void HAL_TIM_OC_DelayElapsedCallback(TIM_HandleTypeDef *htim)
{
 800853c:	b480      	push	{r7}
 800853e:	b083      	sub	sp, #12
 8008540:	af00      	add	r7, sp, #0
 8008542:	6078      	str	r0, [r7, #4]
  UNUSED(htim);

  /* NOTE : This function should not be modified, when the callback is needed,
            the HAL_TIM_OC_DelayElapsedCallback could be implemented in the user file
   */
}
 8008544:	bf00      	nop
 8008546:	370c      	adds	r7, #12
 8008548:	46bd      	mov	sp, r7
 800854a:	f85d 7b04 	ldr.w	r7, [sp], #4
 800854e:	4770      	bx	lr

08008550 <HAL_TIM_IC_CaptureCallback>:
  * @brief  Input Capture callback in non-blocking mode
  * @param  htim TIM IC handle
  * @retval None
  */
__weak void HAL_TIM_IC_CaptureCallback(TIM_HandleTypeDef *htim)
{
 8008550:	b480      	push	{r7}
 8008552:	b083      	sub	sp, #12
 8008554:	af00      	add	r7, sp, #0
 8008556:	6078      	str	r0, [r7, #4]
  UNUSED(htim);

  /* NOTE : This function should not be modified, when the callback is needed,
            the HAL_TIM_IC_CaptureCallback could be implemented in the user file
   */
}
 8008558:	bf00      	nop
 800855a:	370c      	adds	r7, #12
 800855c:	46bd      	mov	sp, r7
 800855e:	f85d 7b04 	ldr.w	r7, [sp], #4
 8008562:	4770      	bx	lr

08008564 <HAL_TIM_PWM_PulseFinishedCallback>:
  * @brief  PWM Pulse finished callback in non-blocking mode
  * @param  htim TIM handle
  * @retval None
  */
__weak void HAL_TIM_PWM_PulseFinishedCallback(TIM_HandleTypeDef *htim)
{
 8008564:	b480      	push	{r7}
 8008566:	b083      	sub	sp, #12
 8008568:	af00      	add	r7, sp, #0
 800856a:	6078      	str	r0, [r7, #4]
  UNUSED(htim);

  /* NOTE : This function should not be modified, when the callback is needed,
            the HAL_TIM_PWM_PulseFinishedCallback could be implemented in the user file
   */
}
 800856c:	bf00      	nop
 800856e:	370c      	adds	r7, #12
 8008570:	46bd      	mov	sp, r7
 8008572:	f85d 7b04 	ldr.w	r7, [sp], #4
 8008576:	4770      	bx	lr

08008578 <HAL_TIM_TriggerCallback>:
  * @brief  Hall Trigger detection callback in non-blocking mode
  * @param  htim TIM handle
  * @retval None
  */
__weak void HAL_TIM_TriggerCallback(TIM_HandleTypeDef *htim)
{
 8008578:	b480      	push	{r7}
 800857a:	b083      	sub	sp, #12
 800857c:	af00      	add	r7, sp, #0
 800857e:	6078      	str	r0, [r7, #4]
  UNUSED(htim);

  /* NOTE : This function should not be modified, when the callback is needed,
            the HAL_TIM_TriggerCallback could be implemented in the user file
   */
}
 8008580:	bf00      	nop
 8008582:	370c      	adds	r7, #12
 8008584:	46bd      	mov	sp, r7
 8008586:	f85d 7b04 	ldr.w	r7, [sp], #4
 800858a:	4770      	bx	lr

0800858c <TIM_Base_SetConfig>:
  * @param  TIMx TIM peripheral
  * @param  Structure TIM Base configuration structure
  * @retval None
  */
void TIM_Base_SetConfig(TIM_TypeDef *TIMx, const TIM_Base_InitTypeDef *Structure)
{
 800858c:	b480      	push	{r7}
 800858e:	b085      	sub	sp, #20
 8008590:	af00      	add	r7, sp, #0
 8008592:	6078      	str	r0, [r7, #4]
 8008594:	6039      	str	r1, [r7, #0]
  uint32_t tmpcr1;
  tmpcr1 = TIMx->CR1;
 8008596:	687b      	ldr	r3, [r7, #4]
 8008598:	681b      	ldr	r3, [r3, #0]
 800859a:	60fb      	str	r3, [r7, #12]

  /* Set TIM Time Base Unit parameters ---------------------------------------*/
  if (IS_TIM_COUNTER_MODE_SELECT_INSTANCE(TIMx))
 800859c:	687b      	ldr	r3, [r7, #4]
 800859e:	4a46      	ldr	r2, [pc, #280]	@ (80086b8 <TIM_Base_SetConfig+0x12c>)
 80085a0:	4293      	cmp	r3, r2
 80085a2:	d013      	beq.n	80085cc <TIM_Base_SetConfig+0x40>
 80085a4:	687b      	ldr	r3, [r7, #4]
 80085a6:	f1b3 4f80 	cmp.w	r3, #1073741824	@ 0x40000000
 80085aa:	d00f      	beq.n	80085cc <TIM_Base_SetConfig+0x40>
 80085ac:	687b      	ldr	r3, [r7, #4]
 80085ae:	4a43      	ldr	r2, [pc, #268]	@ (80086bc <TIM_Base_SetConfig+0x130>)
 80085b0:	4293      	cmp	r3, r2
 80085b2:	d00b      	beq.n	80085cc <TIM_Base_SetConfig+0x40>
 80085b4:	687b      	ldr	r3, [r7, #4]
 80085b6:	4a42      	ldr	r2, [pc, #264]	@ (80086c0 <TIM_Base_SetConfig+0x134>)
 80085b8:	4293      	cmp	r3, r2
 80085ba:	d007      	beq.n	80085cc <TIM_Base_SetConfig+0x40>
 80085bc:	687b      	ldr	r3, [r7, #4]
 80085be:	4a41      	ldr	r2, [pc, #260]	@ (80086c4 <TIM_Base_SetConfig+0x138>)
 80085c0:	4293      	cmp	r3, r2
 80085c2:	d003      	beq.n	80085cc <TIM_Base_SetConfig+0x40>
 80085c4:	687b      	ldr	r3, [r7, #4]
 80085c6:	4a40      	ldr	r2, [pc, #256]	@ (80086c8 <TIM_Base_SetConfig+0x13c>)
 80085c8:	4293      	cmp	r3, r2
 80085ca:	d108      	bne.n	80085de <TIM_Base_SetConfig+0x52>
  {
    /* Select the Counter Mode */
    tmpcr1 &= ~(TIM_CR1_DIR | TIM_CR1_CMS);
 80085cc:	68fb      	ldr	r3, [r7, #12]
 80085ce:	f023 0370 	bic.w	r3, r3, #112	@ 0x70
 80085d2:	60fb      	str	r3, [r7, #12]
    tmpcr1 |= Structure->CounterMode;
 80085d4:	683b      	ldr	r3, [r7, #0]
 80085d6:	685b      	ldr	r3, [r3, #4]
 80085d8:	68fa      	ldr	r2, [r7, #12]
 80085da:	4313      	orrs	r3, r2
 80085dc:	60fb      	str	r3, [r7, #12]
  }

  if (IS_TIM_CLOCK_DIVISION_INSTANCE(TIMx))
 80085de:	687b      	ldr	r3, [r7, #4]
 80085e0:	4a35      	ldr	r2, [pc, #212]	@ (80086b8 <TIM_Base_SetConfig+0x12c>)
 80085e2:	4293      	cmp	r3, r2
 80085e4:	d02b      	beq.n	800863e <TIM_Base_SetConfig+0xb2>
 80085e6:	687b      	ldr	r3, [r7, #4]
 80085e8:	f1b3 4f80 	cmp.w	r3, #1073741824	@ 0x40000000
 80085ec:	d027      	beq.n	800863e <TIM_Base_SetConfig+0xb2>
 80085ee:	687b      	ldr	r3, [r7, #4]
 80085f0:	4a32      	ldr	r2, [pc, #200]	@ (80086bc <TIM_Base_SetConfig+0x130>)
 80085f2:	4293      	cmp	r3, r2
 80085f4:	d023      	beq.n	800863e <TIM_Base_SetConfig+0xb2>
 80085f6:	687b      	ldr	r3, [r7, #4]
 80085f8:	4a31      	ldr	r2, [pc, #196]	@ (80086c0 <TIM_Base_SetConfig+0x134>)
 80085fa:	4293      	cmp	r3, r2
 80085fc:	d01f      	beq.n	800863e <TIM_Base_SetConfig+0xb2>
 80085fe:	687b      	ldr	r3, [r7, #4]
 8008600:	4a30      	ldr	r2, [pc, #192]	@ (80086c4 <TIM_Base_SetConfig+0x138>)
 8008602:	4293      	cmp	r3, r2
 8008604:	d01b      	beq.n	800863e <TIM_Base_SetConfig+0xb2>
 8008606:	687b      	ldr	r3, [r7, #4]
 8008608:	4a2f      	ldr	r2, [pc, #188]	@ (80086c8 <TIM_Base_SetConfig+0x13c>)
 800860a:	4293      	cmp	r3, r2
 800860c:	d017      	beq.n	800863e <TIM_Base_SetConfig+0xb2>
 800860e:	687b      	ldr	r3, [r7, #4]
 8008610:	4a2e      	ldr	r2, [pc, #184]	@ (80086cc <TIM_Base_SetConfig+0x140>)
 8008612:	4293      	cmp	r3, r2
 8008614:	d013      	beq.n	800863e <TIM_Base_SetConfig+0xb2>
 8008616:	687b      	ldr	r3, [r7, #4]
 8008618:	4a2d      	ldr	r2, [pc, #180]	@ (80086d0 <TIM_Base_SetConfig+0x144>)
 800861a:	4293      	cmp	r3, r2
 800861c:	d00f      	beq.n	800863e <TIM_Base_SetConfig+0xb2>
 800861e:	687b      	ldr	r3, [r7, #4]
 8008620:	4a2c      	ldr	r2, [pc, #176]	@ (80086d4 <TIM_Base_SetConfig+0x148>)
 8008622:	4293      	cmp	r3, r2
 8008624:	d00b      	beq.n	800863e <TIM_Base_SetConfig+0xb2>
 8008626:	687b      	ldr	r3, [r7, #4]
 8008628:	4a2b      	ldr	r2, [pc, #172]	@ (80086d8 <TIM_Base_SetConfig+0x14c>)
 800862a:	4293      	cmp	r3, r2
 800862c:	d007      	beq.n	800863e <TIM_Base_SetConfig+0xb2>
 800862e:	687b      	ldr	r3, [r7, #4]
 8008630:	4a2a      	ldr	r2, [pc, #168]	@ (80086dc <TIM_Base_SetConfig+0x150>)
 8008632:	4293      	cmp	r3, r2
 8008634:	d003      	beq.n	800863e <TIM_Base_SetConfig+0xb2>
 8008636:	687b      	ldr	r3, [r7, #4]
 8008638:	4a29      	ldr	r2, [pc, #164]	@ (80086e0 <TIM_Base_SetConfig+0x154>)
 800863a:	4293      	cmp	r3, r2
 800863c:	d108      	bne.n	8008650 <TIM_Base_SetConfig+0xc4>
  {
    /* Set the clock division */
    tmpcr1 &= ~TIM_CR1_CKD;
 800863e:	68fb      	ldr	r3, [r7, #12]
 8008640:	f423 7340 	bic.w	r3, r3, #768	@ 0x300
 8008644:	60fb      	str	r3, [r7, #12]
    tmpcr1 |= (uint32_t)Structure->ClockDivision;
 8008646:	683b      	ldr	r3, [r7, #0]
 8008648:	68db      	ldr	r3, [r3, #12]
 800864a:	68fa      	ldr	r2, [r7, #12]
 800864c:	4313      	orrs	r3, r2
 800864e:	60fb      	str	r3, [r7, #12]
  }

  /* Set the auto-reload preload */
  MODIFY_REG(tmpcr1, TIM_CR1_ARPE, Structure->AutoReloadPreload);
 8008650:	68fb      	ldr	r3, [r7, #12]
 8008652:	f023 0280 	bic.w	r2, r3, #128	@ 0x80
 8008656:	683b      	ldr	r3, [r7, #0]
 8008658:	695b      	ldr	r3, [r3, #20]
 800865a:	4313      	orrs	r3, r2
 800865c:	60fb      	str	r3, [r7, #12]

  TIMx->CR1 = tmpcr1;
 800865e:	687b      	ldr	r3, [r7, #4]
 8008660:	68fa      	ldr	r2, [r7, #12]
 8008662:	601a      	str	r2, [r3, #0]

  /* Set the Autoreload value */
  TIMx->ARR = (uint32_t)Structure->Period ;
 8008664:	683b      	ldr	r3, [r7, #0]
 8008666:	689a      	ldr	r2, [r3, #8]
 8008668:	687b      	ldr	r3, [r7, #4]
 800866a:	62da      	str	r2, [r3, #44]	@ 0x2c

  /* Set the Prescaler value */
  TIMx->PSC = Structure->Prescaler;
 800866c:	683b      	ldr	r3, [r7, #0]
 800866e:	681a      	ldr	r2, [r3, #0]
 8008670:	687b      	ldr	r3, [r7, #4]
 8008672:	629a      	str	r2, [r3, #40]	@ 0x28

  if (IS_TIM_REPETITION_COUNTER_INSTANCE(TIMx))
 8008674:	687b      	ldr	r3, [r7, #4]
 8008676:	4a10      	ldr	r2, [pc, #64]	@ (80086b8 <TIM_Base_SetConfig+0x12c>)
 8008678:	4293      	cmp	r3, r2
 800867a:	d003      	beq.n	8008684 <TIM_Base_SetConfig+0xf8>
 800867c:	687b      	ldr	r3, [r7, #4]
 800867e:	4a12      	ldr	r2, [pc, #72]	@ (80086c8 <TIM_Base_SetConfig+0x13c>)
 8008680:	4293      	cmp	r3, r2
 8008682:	d103      	bne.n	800868c <TIM_Base_SetConfig+0x100>
  {
    /* Set the Repetition Counter value */
    TIMx->RCR = Structure->RepetitionCounter;
 8008684:	683b      	ldr	r3, [r7, #0]
 8008686:	691a      	ldr	r2, [r3, #16]
 8008688:	687b      	ldr	r3, [r7, #4]
 800868a:	631a      	str	r2, [r3, #48]	@ 0x30
  }

  /* Generate an update event to reload the Prescaler
     and the repetition counter (only for advanced timer) value immediately */
  TIMx->EGR = TIM_EGR_UG;
 800868c:	687b      	ldr	r3, [r7, #4]
 800868e:	2201      	movs	r2, #1
 8008690:	615a      	str	r2, [r3, #20]

  /* Check if the update flag is set after the Update Generation, if so clear the UIF flag */
  if (HAL_IS_BIT_SET(TIMx->SR, TIM_FLAG_UPDATE))
 8008692:	687b      	ldr	r3, [r7, #4]
 8008694:	691b      	ldr	r3, [r3, #16]
 8008696:	f003 0301 	and.w	r3, r3, #1
 800869a:	2b01      	cmp	r3, #1
 800869c:	d105      	bne.n	80086aa <TIM_Base_SetConfig+0x11e>
  {
    /* Clear the update flag */
    CLEAR_BIT(TIMx->SR, TIM_FLAG_UPDATE);
 800869e:	687b      	ldr	r3, [r7, #4]
 80086a0:	691b      	ldr	r3, [r3, #16]
 80086a2:	f023 0201 	bic.w	r2, r3, #1
 80086a6:	687b      	ldr	r3, [r7, #4]
 80086a8:	611a      	str	r2, [r3, #16]
  }
}
 80086aa:	bf00      	nop
 80086ac:	3714      	adds	r7, #20
 80086ae:	46bd      	mov	sp, r7
 80086b0:	f85d 7b04 	ldr.w	r7, [sp], #4
 80086b4:	4770      	bx	lr
 80086b6:	bf00      	nop
 80086b8:	40010000 	.word	0x40010000
 80086bc:	40000400 	.word	0x40000400
 80086c0:	40000800 	.word	0x40000800
 80086c4:	40000c00 	.word	0x40000c00
 80086c8:	40010400 	.word	0x40010400
 80086cc:	40014000 	.word	0x40014000
 80086d0:	40014400 	.word	0x40014400
 80086d4:	40014800 	.word	0x40014800
 80086d8:	40001800 	.word	0x40001800
 80086dc:	40001c00 	.word	0x40001c00
 80086e0:	40002000 	.word	0x40002000

080086e4 <HAL_TIMEx_MasterConfigSynchronization>:
  *         mode.
  * @retval HAL status
  */
HAL_StatusTypeDef HAL_TIMEx_MasterConfigSynchronization(TIM_HandleTypeDef *htim,
                                                        const TIM_MasterConfigTypeDef *sMasterConfig)
{
 80086e4:	b480      	push	{r7}
 80086e6:	b085      	sub	sp, #20
 80086e8:	af00      	add	r7, sp, #0
 80086ea:	6078      	str	r0, [r7, #4]
 80086ec:	6039      	str	r1, [r7, #0]
  assert_param(IS_TIM_MASTER_INSTANCE(htim->Instance));
  assert_param(IS_TIM_TRGO_SOURCE(sMasterConfig->MasterOutputTrigger));
  assert_param(IS_TIM_MSM_STATE(sMasterConfig->MasterSlaveMode));

  /* Check input state */
  __HAL_LOCK(htim);
 80086ee:	687b      	ldr	r3, [r7, #4]
 80086f0:	f893 303c 	ldrb.w	r3, [r3, #60]	@ 0x3c
 80086f4:	2b01      	cmp	r3, #1
 80086f6:	d101      	bne.n	80086fc <HAL_TIMEx_MasterConfigSynchronization+0x18>
 80086f8:	2302      	movs	r3, #2
 80086fa:	e05a      	b.n	80087b2 <HAL_TIMEx_MasterConfigSynchronization+0xce>
 80086fc:	687b      	ldr	r3, [r7, #4]
 80086fe:	2201      	movs	r2, #1
 8008700:	f883 203c 	strb.w	r2, [r3, #60]	@ 0x3c

  /* Change the handler state */
  htim->State = HAL_TIM_STATE_BUSY;
 8008704:	687b      	ldr	r3, [r7, #4]
 8008706:	2202      	movs	r2, #2
 8008708:	f883 203d 	strb.w	r2, [r3, #61]	@ 0x3d

  /* Get the TIMx CR2 register value */
  tmpcr2 = htim->Instance->CR2;
 800870c:	687b      	ldr	r3, [r7, #4]
 800870e:	681b      	ldr	r3, [r3, #0]
 8008710:	685b      	ldr	r3, [r3, #4]
 8008712:	60fb      	str	r3, [r7, #12]

  /* Get the TIMx SMCR register value */
  tmpsmcr = htim->Instance->SMCR;
 8008714:	687b      	ldr	r3, [r7, #4]
 8008716:	681b      	ldr	r3, [r3, #0]
 8008718:	689b      	ldr	r3, [r3, #8]
 800871a:	60bb      	str	r3, [r7, #8]

  /* Reset the MMS Bits */
  tmpcr2 &= ~TIM_CR2_MMS;
 800871c:	68fb      	ldr	r3, [r7, #12]
 800871e:	f023 0370 	bic.w	r3, r3, #112	@ 0x70
 8008722:	60fb      	str	r3, [r7, #12]
  /* Select the TRGO source */
  tmpcr2 |=  sMasterConfig->MasterOutputTrigger;
 8008724:	683b      	ldr	r3, [r7, #0]
 8008726:	681b      	ldr	r3, [r3, #0]
 8008728:	68fa      	ldr	r2, [r7, #12]
 800872a:	4313      	orrs	r3, r2
 800872c:	60fb      	str	r3, [r7, #12]

  /* Update TIMx CR2 */
  htim->Instance->CR2 = tmpcr2;
 800872e:	687b      	ldr	r3, [r7, #4]
 8008730:	681b      	ldr	r3, [r3, #0]
 8008732:	68fa      	ldr	r2, [r7, #12]
 8008734:	605a      	str	r2, [r3, #4]

  if (IS_TIM_SLAVE_INSTANCE(htim->Instance))
 8008736:	687b      	ldr	r3, [r7, #4]
 8008738:	681b      	ldr	r3, [r3, #0]
 800873a:	4a21      	ldr	r2, [pc, #132]	@ (80087c0 <HAL_TIMEx_MasterConfigSynchronization+0xdc>)
 800873c:	4293      	cmp	r3, r2
 800873e:	d022      	beq.n	8008786 <HAL_TIMEx_MasterConfigSynchronization+0xa2>
 8008740:	687b      	ldr	r3, [r7, #4]
 8008742:	681b      	ldr	r3, [r3, #0]
 8008744:	f1b3 4f80 	cmp.w	r3, #1073741824	@ 0x40000000
 8008748:	d01d      	beq.n	8008786 <HAL_TIMEx_MasterConfigSynchronization+0xa2>
 800874a:	687b      	ldr	r3, [r7, #4]
 800874c:	681b      	ldr	r3, [r3, #0]
 800874e:	4a1d      	ldr	r2, [pc, #116]	@ (80087c4 <HAL_TIMEx_MasterConfigSynchronization+0xe0>)
 8008750:	4293      	cmp	r3, r2
 8008752:	d018      	beq.n	8008786 <HAL_TIMEx_MasterConfigSynchronization+0xa2>
 8008754:	687b      	ldr	r3, [r7, #4]
 8008756:	681b      	ldr	r3, [r3, #0]
 8008758:	4a1b      	ldr	r2, [pc, #108]	@ (80087c8 <HAL_TIMEx_MasterConfigSynchronization+0xe4>)
 800875a:	4293      	cmp	r3, r2
 800875c:	d013      	beq.n	8008786 <HAL_TIMEx_MasterConfigSynchronization+0xa2>
 800875e:	687b      	ldr	r3, [r7, #4]
 8008760:	681b      	ldr	r3, [r3, #0]
 8008762:	4a1a      	ldr	r2, [pc, #104]	@ (80087cc <HAL_TIMEx_MasterConfigSynchronization+0xe8>)
 8008764:	4293      	cmp	r3, r2
 8008766:	d00e      	beq.n	8008786 <HAL_TIMEx_MasterConfigSynchronization+0xa2>
 8008768:	687b      	ldr	r3, [r7, #4]
 800876a:	681b      	ldr	r3, [r3, #0]
 800876c:	4a18      	ldr	r2, [pc, #96]	@ (80087d0 <HAL_TIMEx_MasterConfigSynchronization+0xec>)
 800876e:	4293      	cmp	r3, r2
 8008770:	d009      	beq.n	8008786 <HAL_TIMEx_MasterConfigSynchronization+0xa2>
 8008772:	687b      	ldr	r3, [r7, #4]
 8008774:	681b      	ldr	r3, [r3, #0]
 8008776:	4a17      	ldr	r2, [pc, #92]	@ (80087d4 <HAL_TIMEx_MasterConfigSynchronization+0xf0>)
 8008778:	4293      	cmp	r3, r2
 800877a:	d004      	beq.n	8008786 <HAL_TIMEx_MasterConfigSynchronization+0xa2>
 800877c:	687b      	ldr	r3, [r7, #4]
 800877e:	681b      	ldr	r3, [r3, #0]
 8008780:	4a15      	ldr	r2, [pc, #84]	@ (80087d8 <HAL_TIMEx_MasterConfigSynchronization+0xf4>)
 8008782:	4293      	cmp	r3, r2
 8008784:	d10c      	bne.n	80087a0 <HAL_TIMEx_MasterConfigSynchronization+0xbc>
  {
    /* Reset the MSM Bit */
    tmpsmcr &= ~TIM_SMCR_MSM;
 8008786:	68bb      	ldr	r3, [r7, #8]
 8008788:	f023 0380 	bic.w	r3, r3, #128	@ 0x80
 800878c:	60bb      	str	r3, [r7, #8]
    /* Set master mode */
    tmpsmcr |= sMasterConfig->MasterSlaveMode;
 800878e:	683b      	ldr	r3, [r7, #0]
 8008790:	685b      	ldr	r3, [r3, #4]
 8008792:	68ba      	ldr	r2, [r7, #8]
 8008794:	4313      	orrs	r3, r2
 8008796:	60bb      	str	r3, [r7, #8]

    /* Update TIMx SMCR */
    htim->Instance->SMCR = tmpsmcr;
 8008798:	687b      	ldr	r3, [r7, #4]
 800879a:	681b      	ldr	r3, [r3, #0]
 800879c:	68ba      	ldr	r2, [r7, #8]
 800879e:	609a      	str	r2, [r3, #8]
  }

  /* Change the htim state */
  htim->State = HAL_TIM_STATE_READY;
 80087a0:	687b      	ldr	r3, [r7, #4]
 80087a2:	2201      	movs	r2, #1
 80087a4:	f883 203d 	strb.w	r2, [r3, #61]	@ 0x3d

  __HAL_UNLOCK(htim);
 80087a8:	687b      	ldr	r3, [r7, #4]
 80087aa:	2200      	movs	r2, #0
 80087ac:	f883 203c 	strb.w	r2, [r3, #60]	@ 0x3c

  return HAL_OK;
 80087b0:	2300      	movs	r3, #0
}
 80087b2:	4618      	mov	r0, r3
 80087b4:	3714      	adds	r7, #20
 80087b6:	46bd      	mov	sp, r7
 80087b8:	f85d 7b04 	ldr.w	r7, [sp], #4
 80087bc:	4770      	bx	lr
 80087be:	bf00      	nop
 80087c0:	40010000 	.word	0x40010000
 80087c4:	40000400 	.word	0x40000400
 80087c8:	40000800 	.word	0x40000800
 80087cc:	40000c00 	.word	0x40000c00
 80087d0:	40010400 	.word	0x40010400
 80087d4:	40014000 	.word	0x40014000
 80087d8:	40001800 	.word	0x40001800

080087dc <HAL_TIMEx_CommutCallback>:
  * @brief  Commutation callback in non-blocking mode
  * @param  htim TIM handle
  * @retval None
  */
__weak void HAL_TIMEx_CommutCallback(TIM_HandleTypeDef *htim)
{
 80087dc:	b480      	push	{r7}
 80087de:	b083      	sub	sp, #12
 80087e0:	af00      	add	r7, sp, #0
 80087e2:	6078      	str	r0, [r7, #4]
  UNUSED(htim);

  /* NOTE : This function should not be modified, when the callback is needed,
            the HAL_TIMEx_CommutCallback could be implemented in the user file
   */
}
 80087e4:	bf00      	nop
 80087e6:	370c      	adds	r7, #12
 80087e8:	46bd      	mov	sp, r7
 80087ea:	f85d 7b04 	ldr.w	r7, [sp], #4
 80087ee:	4770      	bx	lr

080087f0 <HAL_TIMEx_BreakCallback>:
  * @brief  Break detection callback in non-blocking mode
  * @param  htim TIM handle
  * @retval None
  */
__weak void HAL_TIMEx_BreakCallback(TIM_HandleTypeDef *htim)
{
 80087f0:	b480      	push	{r7}
 80087f2:	b083      	sub	sp, #12
 80087f4:	af00      	add	r7, sp, #0
 80087f6:	6078      	str	r0, [r7, #4]
  UNUSED(htim);

  /* NOTE : This function should not be modified, when the callback is needed,
            the HAL_TIMEx_BreakCallback could be implemented in the user file
   */
}
 80087f8:	bf00      	nop
 80087fa:	370c      	adds	r7, #12
 80087fc:	46bd      	mov	sp, r7
 80087fe:	f85d 7b04 	ldr.w	r7, [sp], #4
 8008802:	4770      	bx	lr

08008804 <HAL_UART_Init>:
  * @param  huart  Pointer to a UART_HandleTypeDef structure that contains
  *                the configuration information for the specified UART module.
  * @retval HAL status
  */
HAL_StatusTypeDef HAL_UART_Init(UART_HandleTypeDef *huart)
{
 8008804:	b580      	push	{r7, lr}
 8008806:	b082      	sub	sp, #8
 8008808:	af00      	add	r7, sp, #0
 800880a:	6078      	str	r0, [r7, #4]
  /* Check the UART handle allocation */
  if (huart == NULL)
 800880c:	687b      	ldr	r3, [r7, #4]
 800880e:	2b00      	cmp	r3, #0
 8008810:	d101      	bne.n	8008816 <HAL_UART_Init+0x12>
  {
    return HAL_ERROR;
 8008812:	2301      	movs	r3, #1
 8008814:	e042      	b.n	800889c <HAL_UART_Init+0x98>
    assert_param(IS_UART_INSTANCE(huart->Instance));
  }
  assert_param(IS_UART_WORD_LENGTH(huart->Init.WordLength));
  assert_param(IS_UART_OVERSAMPLING(huart->Init.OverSampling));

  if (huart->gState == HAL_UART_STATE_RESET)
 8008816:	687b      	ldr	r3, [r7, #4]
 8008818:	f893 3041 	ldrb.w	r3, [r3, #65]	@ 0x41
 800881c:	b2db      	uxtb	r3, r3
 800881e:	2b00      	cmp	r3, #0
 8008820:	d106      	bne.n	8008830 <HAL_UART_Init+0x2c>
  {
    /* Allocate lock resource and initialize it */
    huart->Lock = HAL_UNLOCKED;
 8008822:	687b      	ldr	r3, [r7, #4]
 8008824:	2200      	movs	r2, #0
 8008826:	f883 2040 	strb.w	r2, [r3, #64]	@ 0x40

    /* Init the low level hardware */
    huart->MspInitCallback(huart);
#else
    /* Init the low level hardware : GPIO, CLOCK */
    HAL_UART_MspInit(huart);
 800882a:	6878      	ldr	r0, [r7, #4]
 800882c:	f7fa fabc 	bl	8002da8 <HAL_UART_MspInit>
#endif /* (USE_HAL_UART_REGISTER_CALLBACKS) */
  }

  huart->gState = HAL_UART_STATE_BUSY;
 8008830:	687b      	ldr	r3, [r7, #4]
 8008832:	2224      	movs	r2, #36	@ 0x24
 8008834:	f883 2041 	strb.w	r2, [r3, #65]	@ 0x41

  /* Disable the peripheral */
  __HAL_UART_DISABLE(huart);
 8008838:	687b      	ldr	r3, [r7, #4]
 800883a:	681b      	ldr	r3, [r3, #0]
 800883c:	68da      	ldr	r2, [r3, #12]
 800883e:	687b      	ldr	r3, [r7, #4]
 8008840:	681b      	ldr	r3, [r3, #0]
 8008842:	f422 5200 	bic.w	r2, r2, #8192	@ 0x2000
 8008846:	60da      	str	r2, [r3, #12]

  /* Set the UART Communication parameters */
  UART_SetConfig(huart);
 8008848:	6878      	ldr	r0, [r7, #4]
 800884a:	f000 fdbd 	bl	80093c8 <UART_SetConfig>

  /* In asynchronous mode, the following bits must be kept cleared:
     - LINEN and CLKEN bits in the USART_CR2 register,
     - SCEN, HDSEL and IREN  bits in the USART_CR3 register.*/
  CLEAR_BIT(huart->Instance->CR2, (USART_CR2_LINEN | USART_CR2_CLKEN));
 800884e:	687b      	ldr	r3, [r7, #4]
 8008850:	681b      	ldr	r3, [r3, #0]
 8008852:	691a      	ldr	r2, [r3, #16]
 8008854:	687b      	ldr	r3, [r7, #4]
 8008856:	681b      	ldr	r3, [r3, #0]
 8008858:	f422 4290 	bic.w	r2, r2, #18432	@ 0x4800
 800885c:	611a      	str	r2, [r3, #16]
  CLEAR_BIT(huart->Instance->CR3, (USART_CR3_SCEN | USART_CR3_HDSEL | USART_CR3_IREN));
 800885e:	687b      	ldr	r3, [r7, #4]
 8008860:	681b      	ldr	r3, [r3, #0]
 8008862:	695a      	ldr	r2, [r3, #20]
 8008864:	687b      	ldr	r3, [r7, #4]
 8008866:	681b      	ldr	r3, [r3, #0]
 8008868:	f022 022a 	bic.w	r2, r2, #42	@ 0x2a
 800886c:	615a      	str	r2, [r3, #20]

  /* Enable the peripheral */
  __HAL_UART_ENABLE(huart);
 800886e:	687b      	ldr	r3, [r7, #4]
 8008870:	681b      	ldr	r3, [r3, #0]
 8008872:	68da      	ldr	r2, [r3, #12]
 8008874:	687b      	ldr	r3, [r7, #4]
 8008876:	681b      	ldr	r3, [r3, #0]
 8008878:	f442 5200 	orr.w	r2, r2, #8192	@ 0x2000
 800887c:	60da      	str	r2, [r3, #12]

  /* Initialize the UART state */
  huart->ErrorCode = HAL_UART_ERROR_NONE;
 800887e:	687b      	ldr	r3, [r7, #4]
 8008880:	2200      	movs	r2, #0
 8008882:	645a      	str	r2, [r3, #68]	@ 0x44
  huart->gState = HAL_UART_STATE_READY;
 8008884:	687b      	ldr	r3, [r7, #4]
 8008886:	2220      	movs	r2, #32
 8008888:	f883 2041 	strb.w	r2, [r3, #65]	@ 0x41
  huart->RxState = HAL_UART_STATE_READY;
 800888c:	687b      	ldr	r3, [r7, #4]
 800888e:	2220      	movs	r2, #32
 8008890:	f883 2042 	strb.w	r2, [r3, #66]	@ 0x42
  huart->RxEventType = HAL_UART_RXEVENT_TC;
 8008894:	687b      	ldr	r3, [r7, #4]
 8008896:	2200      	movs	r2, #0
 8008898:	635a      	str	r2, [r3, #52]	@ 0x34

  return HAL_OK;
 800889a:	2300      	movs	r3, #0
}
 800889c:	4618      	mov	r0, r3
 800889e:	3708      	adds	r7, #8
 80088a0:	46bd      	mov	sp, r7
 80088a2:	bd80      	pop	{r7, pc}

080088a4 <HAL_UART_Transmit>:
  * @param  Size  Amount of data elements (u8 or u16) to be sent
  * @param  Timeout Timeout duration
  * @retval HAL status
  */
HAL_StatusTypeDef HAL_UART_Transmit(UART_HandleTypeDef *huart, const uint8_t *pData, uint16_t Size, uint32_t Timeout)
{
 80088a4:	b580      	push	{r7, lr}
 80088a6:	b08a      	sub	sp, #40	@ 0x28
 80088a8:	af02      	add	r7, sp, #8
 80088aa:	60f8      	str	r0, [r7, #12]
 80088ac:	60b9      	str	r1, [r7, #8]
 80088ae:	603b      	str	r3, [r7, #0]
 80088b0:	4613      	mov	r3, r2
 80088b2:	80fb      	strh	r3, [r7, #6]
  const uint8_t  *pdata8bits;
  const uint16_t *pdata16bits;
  uint32_t tickstart = 0U;
 80088b4:	2300      	movs	r3, #0
 80088b6:	617b      	str	r3, [r7, #20]

  /* Check that a Tx process is not already ongoing */
  if (huart->gState == HAL_UART_STATE_READY)
 80088b8:	68fb      	ldr	r3, [r7, #12]
 80088ba:	f893 3041 	ldrb.w	r3, [r3, #65]	@ 0x41
 80088be:	b2db      	uxtb	r3, r3
 80088c0:	2b20      	cmp	r3, #32
 80088c2:	d175      	bne.n	80089b0 <HAL_UART_Transmit+0x10c>
  {
    if ((pData == NULL) || (Size == 0U))
 80088c4:	68bb      	ldr	r3, [r7, #8]
 80088c6:	2b00      	cmp	r3, #0
 80088c8:	d002      	beq.n	80088d0 <HAL_UART_Transmit+0x2c>
 80088ca:	88fb      	ldrh	r3, [r7, #6]
 80088cc:	2b00      	cmp	r3, #0
 80088ce:	d101      	bne.n	80088d4 <HAL_UART_Transmit+0x30>
    {
      return  HAL_ERROR;
 80088d0:	2301      	movs	r3, #1
 80088d2:	e06e      	b.n	80089b2 <HAL_UART_Transmit+0x10e>
    }

    huart->ErrorCode = HAL_UART_ERROR_NONE;
 80088d4:	68fb      	ldr	r3, [r7, #12]
 80088d6:	2200      	movs	r2, #0
 80088d8:	645a      	str	r2, [r3, #68]	@ 0x44
    huart->gState = HAL_UART_STATE_BUSY_TX;
 80088da:	68fb      	ldr	r3, [r7, #12]
 80088dc:	2221      	movs	r2, #33	@ 0x21
 80088de:	f883 2041 	strb.w	r2, [r3, #65]	@ 0x41

    /* Init tickstart for timeout management */
    tickstart = HAL_GetTick();
 80088e2:	f7fa fc99 	bl	8003218 <HAL_GetTick>
 80088e6:	6178      	str	r0, [r7, #20]

    huart->TxXferSize = Size;
 80088e8:	68fb      	ldr	r3, [r7, #12]
 80088ea:	88fa      	ldrh	r2, [r7, #6]
 80088ec:	849a      	strh	r2, [r3, #36]	@ 0x24
    huart->TxXferCount = Size;
 80088ee:	68fb      	ldr	r3, [r7, #12]
 80088f0:	88fa      	ldrh	r2, [r7, #6]
 80088f2:	84da      	strh	r2, [r3, #38]	@ 0x26

    /* In case of 9bits/No Parity transfer, pData needs to be handled as a uint16_t pointer */
    if ((huart->Init.WordLength == UART_WORDLENGTH_9B) && (huart->Init.Parity == UART_PARITY_NONE))
 80088f4:	68fb      	ldr	r3, [r7, #12]
 80088f6:	689b      	ldr	r3, [r3, #8]
 80088f8:	f5b3 5f80 	cmp.w	r3, #4096	@ 0x1000
 80088fc:	d108      	bne.n	8008910 <HAL_UART_Transmit+0x6c>
 80088fe:	68fb      	ldr	r3, [r7, #12]
 8008900:	691b      	ldr	r3, [r3, #16]
 8008902:	2b00      	cmp	r3, #0
 8008904:	d104      	bne.n	8008910 <HAL_UART_Transmit+0x6c>
    {
      pdata8bits  = NULL;
 8008906:	2300      	movs	r3, #0
 8008908:	61fb      	str	r3, [r7, #28]
      pdata16bits = (const uint16_t *) pData;
 800890a:	68bb      	ldr	r3, [r7, #8]
 800890c:	61bb      	str	r3, [r7, #24]
 800890e:	e003      	b.n	8008918 <HAL_UART_Transmit+0x74>
    }
    else
    {
      pdata8bits  = pData;
 8008910:	68bb      	ldr	r3, [r7, #8]
 8008912:	61fb      	str	r3, [r7, #28]
      pdata16bits = NULL;
 8008914:	2300      	movs	r3, #0
 8008916:	61bb      	str	r3, [r7, #24]
    }

    while (huart->TxXferCount > 0U)
 8008918:	e02e      	b.n	8008978 <HAL_UART_Transmit+0xd4>
    {
      if (UART_WaitOnFlagUntilTimeout(huart, UART_FLAG_TXE, RESET, tickstart, Timeout) != HAL_OK)
 800891a:	683b      	ldr	r3, [r7, #0]
 800891c:	9300      	str	r3, [sp, #0]
 800891e:	697b      	ldr	r3, [r7, #20]
 8008920:	2200      	movs	r2, #0
 8008922:	2180      	movs	r1, #128	@ 0x80
 8008924:	68f8      	ldr	r0, [r7, #12]
 8008926:	f000 fb1f 	bl	8008f68 <UART_WaitOnFlagUntilTimeout>
 800892a:	4603      	mov	r3, r0
 800892c:	2b00      	cmp	r3, #0
 800892e:	d005      	beq.n	800893c <HAL_UART_Transmit+0x98>
      {
        huart->gState = HAL_UART_STATE_READY;
 8008930:	68fb      	ldr	r3, [r7, #12]
 8008932:	2220      	movs	r2, #32
 8008934:	f883 2041 	strb.w	r2, [r3, #65]	@ 0x41

        return HAL_TIMEOUT;
 8008938:	2303      	movs	r3, #3
 800893a:	e03a      	b.n	80089b2 <HAL_UART_Transmit+0x10e>
      }
      if (pdata8bits == NULL)
 800893c:	69fb      	ldr	r3, [r7, #28]
 800893e:	2b00      	cmp	r3, #0
 8008940:	d10b      	bne.n	800895a <HAL_UART_Transmit+0xb6>
      {
        huart->Instance->DR = (uint16_t)(*pdata16bits & 0x01FFU);
 8008942:	69bb      	ldr	r3, [r7, #24]
 8008944:	881b      	ldrh	r3, [r3, #0]
 8008946:	461a      	mov	r2, r3
 8008948:	68fb      	ldr	r3, [r7, #12]
 800894a:	681b      	ldr	r3, [r3, #0]
 800894c:	f3c2 0208 	ubfx	r2, r2, #0, #9
 8008950:	605a      	str	r2, [r3, #4]
        pdata16bits++;
 8008952:	69bb      	ldr	r3, [r7, #24]
 8008954:	3302      	adds	r3, #2
 8008956:	61bb      	str	r3, [r7, #24]
 8008958:	e007      	b.n	800896a <HAL_UART_Transmit+0xc6>
      }
      else
      {
        huart->Instance->DR = (uint8_t)(*pdata8bits & 0xFFU);
 800895a:	69fb      	ldr	r3, [r7, #28]
 800895c:	781a      	ldrb	r2, [r3, #0]
 800895e:	68fb      	ldr	r3, [r7, #12]
 8008960:	681b      	ldr	r3, [r3, #0]
 8008962:	605a      	str	r2, [r3, #4]
        pdata8bits++;
 8008964:	69fb      	ldr	r3, [r7, #28]
 8008966:	3301      	adds	r3, #1
 8008968:	61fb      	str	r3, [r7, #28]
      }
      huart->TxXferCount--;
 800896a:	68fb      	ldr	r3, [r7, #12]
 800896c:	8cdb      	ldrh	r3, [r3, #38]	@ 0x26
 800896e:	b29b      	uxth	r3, r3
 8008970:	3b01      	subs	r3, #1
 8008972:	b29a      	uxth	r2, r3
 8008974:	68fb      	ldr	r3, [r7, #12]
 8008976:	84da      	strh	r2, [r3, #38]	@ 0x26
    while (huart->TxXferCount > 0U)
 8008978:	68fb      	ldr	r3, [r7, #12]
 800897a:	8cdb      	ldrh	r3, [r3, #38]	@ 0x26
 800897c:	b29b      	uxth	r3, r3
 800897e:	2b00      	cmp	r3, #0
 8008980:	d1cb      	bne.n	800891a <HAL_UART_Transmit+0x76>
    }

    if (UART_WaitOnFlagUntilTimeout(huart, UART_FLAG_TC, RESET, tickstart, Timeout) != HAL_OK)
 8008982:	683b      	ldr	r3, [r7, #0]
 8008984:	9300      	str	r3, [sp, #0]
 8008986:	697b      	ldr	r3, [r7, #20]
 8008988:	2200      	movs	r2, #0
 800898a:	2140      	movs	r1, #64	@ 0x40
 800898c:	68f8      	ldr	r0, [r7, #12]
 800898e:	f000 faeb 	bl	8008f68 <UART_WaitOnFlagUntilTimeout>
 8008992:	4603      	mov	r3, r0
 8008994:	2b00      	cmp	r3, #0
 8008996:	d005      	beq.n	80089a4 <HAL_UART_Transmit+0x100>
    {
      huart->gState = HAL_UART_STATE_READY;
 8008998:	68fb      	ldr	r3, [r7, #12]
 800899a:	2220      	movs	r2, #32
 800899c:	f883 2041 	strb.w	r2, [r3, #65]	@ 0x41

      return HAL_TIMEOUT;
 80089a0:	2303      	movs	r3, #3
 80089a2:	e006      	b.n	80089b2 <HAL_UART_Transmit+0x10e>
    }

    /* At end of Tx process, restore huart->gState to Ready */
    huart->gState = HAL_UART_STATE_READY;
 80089a4:	68fb      	ldr	r3, [r7, #12]
 80089a6:	2220      	movs	r2, #32
 80089a8:	f883 2041 	strb.w	r2, [r3, #65]	@ 0x41

    return HAL_OK;
 80089ac:	2300      	movs	r3, #0
 80089ae:	e000      	b.n	80089b2 <HAL_UART_Transmit+0x10e>
  }
  else
  {
    return HAL_BUSY;
 80089b0:	2302      	movs	r3, #2
  }
}
 80089b2:	4618      	mov	r0, r3
 80089b4:	3720      	adds	r7, #32
 80089b6:	46bd      	mov	sp, r7
 80089b8:	bd80      	pop	{r7, pc}

080089ba <HAL_UART_Receive_IT>:
  * @param  pData Pointer to data buffer (u8 or u16 data elements).
  * @param  Size  Amount of data elements (u8 or u16) to be received.
  * @retval HAL status
  */
HAL_StatusTypeDef HAL_UART_Receive_IT(UART_HandleTypeDef *huart, uint8_t *pData, uint16_t Size)
{
 80089ba:	b580      	push	{r7, lr}
 80089bc:	b084      	sub	sp, #16
 80089be:	af00      	add	r7, sp, #0
 80089c0:	60f8      	str	r0, [r7, #12]
 80089c2:	60b9      	str	r1, [r7, #8]
 80089c4:	4613      	mov	r3, r2
 80089c6:	80fb      	strh	r3, [r7, #6]
  /* Check that a Rx process is not already ongoing */
  if (huart->RxState == HAL_UART_STATE_READY)
 80089c8:	68fb      	ldr	r3, [r7, #12]
 80089ca:	f893 3042 	ldrb.w	r3, [r3, #66]	@ 0x42
 80089ce:	b2db      	uxtb	r3, r3
 80089d0:	2b20      	cmp	r3, #32
 80089d2:	d112      	bne.n	80089fa <HAL_UART_Receive_IT+0x40>
  {
    if ((pData == NULL) || (Size == 0U))
 80089d4:	68bb      	ldr	r3, [r7, #8]
 80089d6:	2b00      	cmp	r3, #0
 80089d8:	d002      	beq.n	80089e0 <HAL_UART_Receive_IT+0x26>
 80089da:	88fb      	ldrh	r3, [r7, #6]
 80089dc:	2b00      	cmp	r3, #0
 80089de:	d101      	bne.n	80089e4 <HAL_UART_Receive_IT+0x2a>
    {
      return HAL_ERROR;
 80089e0:	2301      	movs	r3, #1
 80089e2:	e00b      	b.n	80089fc <HAL_UART_Receive_IT+0x42>
    }

    /* Set Reception type to Standard reception */
    huart->ReceptionType = HAL_UART_RECEPTION_STANDARD;
 80089e4:	68fb      	ldr	r3, [r7, #12]
 80089e6:	2200      	movs	r2, #0
 80089e8:	631a      	str	r2, [r3, #48]	@ 0x30

    return (UART_Start_Receive_IT(huart, pData, Size));
 80089ea:	88fb      	ldrh	r3, [r7, #6]
 80089ec:	461a      	mov	r2, r3
 80089ee:	68b9      	ldr	r1, [r7, #8]
 80089f0:	68f8      	ldr	r0, [r7, #12]
 80089f2:	f000 fb12 	bl	800901a <UART_Start_Receive_IT>
 80089f6:	4603      	mov	r3, r0
 80089f8:	e000      	b.n	80089fc <HAL_UART_Receive_IT+0x42>
  }
  else
  {
    return HAL_BUSY;
 80089fa:	2302      	movs	r3, #2
  }
}
 80089fc:	4618      	mov	r0, r3
 80089fe:	3710      	adds	r7, #16
 8008a00:	46bd      	mov	sp, r7
 8008a02:	bd80      	pop	{r7, pc}

08008a04 <HAL_UART_IRQHandler>:
  * @param  huart  Pointer to a UART_HandleTypeDef structure that contains
  *                the configuration information for the specified UART module.
  * @retval None
  */
void HAL_UART_IRQHandler(UART_HandleTypeDef *huart)
{
 8008a04:	b580      	push	{r7, lr}
 8008a06:	b0ba      	sub	sp, #232	@ 0xe8
 8008a08:	af00      	add	r7, sp, #0
 8008a0a:	6078      	str	r0, [r7, #4]
  uint32_t isrflags   = READ_REG(huart->Instance->SR);
 8008a0c:	687b      	ldr	r3, [r7, #4]
 8008a0e:	681b      	ldr	r3, [r3, #0]
 8008a10:	681b      	ldr	r3, [r3, #0]
 8008a12:	f8c7 30e4 	str.w	r3, [r7, #228]	@ 0xe4
  uint32_t cr1its     = READ_REG(huart->Instance->CR1);
 8008a16:	687b      	ldr	r3, [r7, #4]
 8008a18:	681b      	ldr	r3, [r3, #0]
 8008a1a:	68db      	ldr	r3, [r3, #12]
 8008a1c:	f8c7 30e0 	str.w	r3, [r7, #224]	@ 0xe0
  uint32_t cr3its     = READ_REG(huart->Instance->CR3);
 8008a20:	687b      	ldr	r3, [r7, #4]
 8008a22:	681b      	ldr	r3, [r3, #0]
 8008a24:	695b      	ldr	r3, [r3, #20]
 8008a26:	f8c7 30dc 	str.w	r3, [r7, #220]	@ 0xdc
  uint32_t errorflags = 0x00U;
 8008a2a:	2300      	movs	r3, #0
 8008a2c:	f8c7 30d8 	str.w	r3, [r7, #216]	@ 0xd8
  uint32_t dmarequest = 0x00U;
 8008a30:	2300      	movs	r3, #0
 8008a32:	f8c7 30d4 	str.w	r3, [r7, #212]	@ 0xd4

  /* If no error occurs */
  errorflags = (isrflags & (uint32_t)(USART_SR_PE | USART_SR_FE | USART_SR_ORE | USART_SR_NE));
 8008a36:	f8d7 30e4 	ldr.w	r3, [r7, #228]	@ 0xe4
 8008a3a:	f003 030f 	and.w	r3, r3, #15
 8008a3e:	f8c7 30d8 	str.w	r3, [r7, #216]	@ 0xd8
  if (errorflags == RESET)
 8008a42:	f8d7 30d8 	ldr.w	r3, [r7, #216]	@ 0xd8
 8008a46:	2b00      	cmp	r3, #0
 8008a48:	d10f      	bne.n	8008a6a <HAL_UART_IRQHandler+0x66>
  {
    /* UART in mode Receiver -------------------------------------------------*/
    if (((isrflags & USART_SR_RXNE) != RESET) && ((cr1its & USART_CR1_RXNEIE) != RESET))
 8008a4a:	f8d7 30e4 	ldr.w	r3, [r7, #228]	@ 0xe4
 8008a4e:	f003 0320 	and.w	r3, r3, #32
 8008a52:	2b00      	cmp	r3, #0
 8008a54:	d009      	beq.n	8008a6a <HAL_UART_IRQHandler+0x66>
 8008a56:	f8d7 30e0 	ldr.w	r3, [r7, #224]	@ 0xe0
 8008a5a:	f003 0320 	and.w	r3, r3, #32
 8008a5e:	2b00      	cmp	r3, #0
 8008a60:	d003      	beq.n	8008a6a <HAL_UART_IRQHandler+0x66>
    {
      UART_Receive_IT(huart);
 8008a62:	6878      	ldr	r0, [r7, #4]
 8008a64:	f000 fbf2 	bl	800924c <UART_Receive_IT>
      return;
 8008a68:	e25b      	b.n	8008f22 <HAL_UART_IRQHandler+0x51e>
    }
  }

  /* If some errors occur */
  if ((errorflags != RESET) && (((cr3its & USART_CR3_EIE) != RESET)
 8008a6a:	f8d7 30d8 	ldr.w	r3, [r7, #216]	@ 0xd8
 8008a6e:	2b00      	cmp	r3, #0
 8008a70:	f000 80de 	beq.w	8008c30 <HAL_UART_IRQHandler+0x22c>
 8008a74:	f8d7 30dc 	ldr.w	r3, [r7, #220]	@ 0xdc
 8008a78:	f003 0301 	and.w	r3, r3, #1
 8008a7c:	2b00      	cmp	r3, #0
 8008a7e:	d106      	bne.n	8008a8e <HAL_UART_IRQHandler+0x8a>
                                || ((cr1its & (USART_CR1_RXNEIE | USART_CR1_PEIE)) != RESET)))
 8008a80:	f8d7 30e0 	ldr.w	r3, [r7, #224]	@ 0xe0
 8008a84:	f403 7390 	and.w	r3, r3, #288	@ 0x120
 8008a88:	2b00      	cmp	r3, #0
 8008a8a:	f000 80d1 	beq.w	8008c30 <HAL_UART_IRQHandler+0x22c>
  {
    /* UART parity error interrupt occurred ----------------------------------*/
    if (((isrflags & USART_SR_PE) != RESET) && ((cr1its & USART_CR1_PEIE) != RESET))
 8008a8e:	f8d7 30e4 	ldr.w	r3, [r7, #228]	@ 0xe4
 8008a92:	f003 0301 	and.w	r3, r3, #1
 8008a96:	2b00      	cmp	r3, #0
 8008a98:	d00b      	beq.n	8008ab2 <HAL_UART_IRQHandler+0xae>
 8008a9a:	f8d7 30e0 	ldr.w	r3, [r7, #224]	@ 0xe0
 8008a9e:	f403 7380 	and.w	r3, r3, #256	@ 0x100
 8008aa2:	2b00      	cmp	r3, #0
 8008aa4:	d005      	beq.n	8008ab2 <HAL_UART_IRQHandler+0xae>
    {
      huart->ErrorCode |= HAL_UART_ERROR_PE;
 8008aa6:	687b      	ldr	r3, [r7, #4]
 8008aa8:	6c5b      	ldr	r3, [r3, #68]	@ 0x44
 8008aaa:	f043 0201 	orr.w	r2, r3, #1
 8008aae:	687b      	ldr	r3, [r7, #4]
 8008ab0:	645a      	str	r2, [r3, #68]	@ 0x44
    }

    /* UART noise error interrupt occurred -----------------------------------*/
    if (((isrflags & USART_SR_NE) != RESET) && ((cr3its & USART_CR3_EIE) != RESET))
 8008ab2:	f8d7 30e4 	ldr.w	r3, [r7, #228]	@ 0xe4
 8008ab6:	f003 0304 	and.w	r3, r3, #4
 8008aba:	2b00      	cmp	r3, #0
 8008abc:	d00b      	beq.n	8008ad6 <HAL_UART_IRQHandler+0xd2>
 8008abe:	f8d7 30dc 	ldr.w	r3, [r7, #220]	@ 0xdc
 8008ac2:	f003 0301 	and.w	r3, r3, #1
 8008ac6:	2b00      	cmp	r3, #0
 8008ac8:	d005      	beq.n	8008ad6 <HAL_UART_IRQHandler+0xd2>
    {
      huart->ErrorCode |= HAL_UART_ERROR_NE;
 8008aca:	687b      	ldr	r3, [r7, #4]
 8008acc:	6c5b      	ldr	r3, [r3, #68]	@ 0x44
 8008ace:	f043 0202 	orr.w	r2, r3, #2
 8008ad2:	687b      	ldr	r3, [r7, #4]
 8008ad4:	645a      	str	r2, [r3, #68]	@ 0x44
    }

    /* UART frame error interrupt occurred -----------------------------------*/
    if (((isrflags & USART_SR_FE) != RESET) && ((cr3its & USART_CR3_EIE) != RESET))
 8008ad6:	f8d7 30e4 	ldr.w	r3, [r7, #228]	@ 0xe4
 8008ada:	f003 0302 	and.w	r3, r3, #2
 8008ade:	2b00      	cmp	r3, #0
 8008ae0:	d00b      	beq.n	8008afa <HAL_UART_IRQHandler+0xf6>
 8008ae2:	f8d7 30dc 	ldr.w	r3, [r7, #220]	@ 0xdc
 8008ae6:	f003 0301 	and.w	r3, r3, #1
 8008aea:	2b00      	cmp	r3, #0
 8008aec:	d005      	beq.n	8008afa <HAL_UART_IRQHandler+0xf6>
    {
      huart->ErrorCode |= HAL_UART_ERROR_FE;
 8008aee:	687b      	ldr	r3, [r7, #4]
 8008af0:	6c5b      	ldr	r3, [r3, #68]	@ 0x44
 8008af2:	f043 0204 	orr.w	r2, r3, #4
 8008af6:	687b      	ldr	r3, [r7, #4]
 8008af8:	645a      	str	r2, [r3, #68]	@ 0x44
    }

    /* UART Over-Run interrupt occurred --------------------------------------*/
    if (((isrflags & USART_SR_ORE) != RESET) && (((cr1its & USART_CR1_RXNEIE) != RESET)
 8008afa:	f8d7 30e4 	ldr.w	r3, [r7, #228]	@ 0xe4
 8008afe:	f003 0308 	and.w	r3, r3, #8
 8008b02:	2b00      	cmp	r3, #0
 8008b04:	d011      	beq.n	8008b2a <HAL_UART_IRQHandler+0x126>
 8008b06:	f8d7 30e0 	ldr.w	r3, [r7, #224]	@ 0xe0
 8008b0a:	f003 0320 	and.w	r3, r3, #32
 8008b0e:	2b00      	cmp	r3, #0
 8008b10:	d105      	bne.n	8008b1e <HAL_UART_IRQHandler+0x11a>
                                                 || ((cr3its & USART_CR3_EIE) != RESET)))
 8008b12:	f8d7 30dc 	ldr.w	r3, [r7, #220]	@ 0xdc
 8008b16:	f003 0301 	and.w	r3, r3, #1
 8008b1a:	2b00      	cmp	r3, #0
 8008b1c:	d005      	beq.n	8008b2a <HAL_UART_IRQHandler+0x126>
    {
      huart->ErrorCode |= HAL_UART_ERROR_ORE;
 8008b1e:	687b      	ldr	r3, [r7, #4]
 8008b20:	6c5b      	ldr	r3, [r3, #68]	@ 0x44
 8008b22:	f043 0208 	orr.w	r2, r3, #8
 8008b26:	687b      	ldr	r3, [r7, #4]
 8008b28:	645a      	str	r2, [r3, #68]	@ 0x44
    }

    /* Call UART Error Call back function if need be --------------------------*/
    if (huart->ErrorCode != HAL_UART_ERROR_NONE)
 8008b2a:	687b      	ldr	r3, [r7, #4]
 8008b2c:	6c5b      	ldr	r3, [r3, #68]	@ 0x44
 8008b2e:	2b00      	cmp	r3, #0
 8008b30:	f000 81f2 	beq.w	8008f18 <HAL_UART_IRQHandler+0x514>
    {
      /* UART in mode Receiver -----------------------------------------------*/
      if (((isrflags & USART_SR_RXNE) != RESET) && ((cr1its & USART_CR1_RXNEIE) != RESET))
 8008b34:	f8d7 30e4 	ldr.w	r3, [r7, #228]	@ 0xe4
 8008b38:	f003 0320 	and.w	r3, r3, #32
 8008b3c:	2b00      	cmp	r3, #0
 8008b3e:	d008      	beq.n	8008b52 <HAL_UART_IRQHandler+0x14e>
 8008b40:	f8d7 30e0 	ldr.w	r3, [r7, #224]	@ 0xe0
 8008b44:	f003 0320 	and.w	r3, r3, #32
 8008b48:	2b00      	cmp	r3, #0
 8008b4a:	d002      	beq.n	8008b52 <HAL_UART_IRQHandler+0x14e>
      {
        UART_Receive_IT(huart);
 8008b4c:	6878      	ldr	r0, [r7, #4]
 8008b4e:	f000 fb7d 	bl	800924c <UART_Receive_IT>
      }

      /* If Overrun error occurs, or if any error occurs in DMA mode reception,
         consider error as blocking */
      dmarequest = HAL_IS_BIT_SET(huart->Instance->CR3, USART_CR3_DMAR);
 8008b52:	687b      	ldr	r3, [r7, #4]
 8008b54:	681b      	ldr	r3, [r3, #0]
 8008b56:	695b      	ldr	r3, [r3, #20]
 8008b58:	f003 0340 	and.w	r3, r3, #64	@ 0x40
 8008b5c:	2b40      	cmp	r3, #64	@ 0x40
 8008b5e:	bf0c      	ite	eq
 8008b60:	2301      	moveq	r3, #1
 8008b62:	2300      	movne	r3, #0
 8008b64:	b2db      	uxtb	r3, r3
 8008b66:	f8c7 30d4 	str.w	r3, [r7, #212]	@ 0xd4
      if (((huart->ErrorCode & HAL_UART_ERROR_ORE) != RESET) || dmarequest)
 8008b6a:	687b      	ldr	r3, [r7, #4]
 8008b6c:	6c5b      	ldr	r3, [r3, #68]	@ 0x44
 8008b6e:	f003 0308 	and.w	r3, r3, #8
 8008b72:	2b00      	cmp	r3, #0
 8008b74:	d103      	bne.n	8008b7e <HAL_UART_IRQHandler+0x17a>
 8008b76:	f8d7 30d4 	ldr.w	r3, [r7, #212]	@ 0xd4
 8008b7a:	2b00      	cmp	r3, #0
 8008b7c:	d04f      	beq.n	8008c1e <HAL_UART_IRQHandler+0x21a>
      {
        /* Blocking error : transfer is aborted
           Set the UART state ready to be able to start again the process,
           Disable Rx Interrupts, and disable Rx DMA request, if ongoing */
        UART_EndRxTransfer(huart);
 8008b7e:	6878      	ldr	r0, [r7, #4]
 8008b80:	f000 fa85 	bl	800908e <UART_EndRxTransfer>

        /* Disable the UART DMA Rx request if enabled */
        if (HAL_IS_BIT_SET(huart->Instance->CR3, USART_CR3_DMAR))
 8008b84:	687b      	ldr	r3, [r7, #4]
 8008b86:	681b      	ldr	r3, [r3, #0]
 8008b88:	695b      	ldr	r3, [r3, #20]
 8008b8a:	f003 0340 	and.w	r3, r3, #64	@ 0x40
 8008b8e:	2b40      	cmp	r3, #64	@ 0x40
 8008b90:	d141      	bne.n	8008c16 <HAL_UART_IRQHandler+0x212>
        {
          ATOMIC_CLEAR_BIT(huart->Instance->CR3, USART_CR3_DMAR);
 8008b92:	687b      	ldr	r3, [r7, #4]
 8008b94:	681b      	ldr	r3, [r3, #0]
 8008b96:	3314      	adds	r3, #20
 8008b98:	f8c7 309c 	str.w	r3, [r7, #156]	@ 0x9c
   __ASM volatile ("ldrex %0, %1" : "=r" (result) : "Q" (*addr) );
 8008b9c:	f8d7 309c 	ldr.w	r3, [r7, #156]	@ 0x9c
 8008ba0:	e853 3f00 	ldrex	r3, [r3]
 8008ba4:	f8c7 3098 	str.w	r3, [r7, #152]	@ 0x98
   return(result);
 8008ba8:	f8d7 3098 	ldr.w	r3, [r7, #152]	@ 0x98
 8008bac:	f023 0340 	bic.w	r3, r3, #64	@ 0x40
 8008bb0:	f8c7 30d0 	str.w	r3, [r7, #208]	@ 0xd0
 8008bb4:	687b      	ldr	r3, [r7, #4]
 8008bb6:	681b      	ldr	r3, [r3, #0]
 8008bb8:	3314      	adds	r3, #20
 8008bba:	f8d7 20d0 	ldr.w	r2, [r7, #208]	@ 0xd0
 8008bbe:	f8c7 20a8 	str.w	r2, [r7, #168]	@ 0xa8
 8008bc2:	f8c7 30a4 	str.w	r3, [r7, #164]	@ 0xa4
   __ASM volatile ("strex %0, %2, %1" : "=&r" (result), "=Q" (*addr) : "r" (value) );
 8008bc6:	f8d7 10a4 	ldr.w	r1, [r7, #164]	@ 0xa4
 8008bca:	f8d7 20a8 	ldr.w	r2, [r7, #168]	@ 0xa8
 8008bce:	e841 2300 	strex	r3, r2, [r1]
 8008bd2:	f8c7 30a0 	str.w	r3, [r7, #160]	@ 0xa0
   return(result);
 8008bd6:	f8d7 30a0 	ldr.w	r3, [r7, #160]	@ 0xa0
 8008bda:	2b00      	cmp	r3, #0
 8008bdc:	d1d9      	bne.n	8008b92 <HAL_UART_IRQHandler+0x18e>

          /* Abort the UART DMA Rx stream */
          if (huart->hdmarx != NULL)
 8008bde:	687b      	ldr	r3, [r7, #4]
 8008be0:	6bdb      	ldr	r3, [r3, #60]	@ 0x3c
 8008be2:	2b00      	cmp	r3, #0
 8008be4:	d013      	beq.n	8008c0e <HAL_UART_IRQHandler+0x20a>
          {
            /* Set the UART DMA Abort callback :
               will lead to call HAL_UART_ErrorCallback() at end of DMA abort procedure */
            huart->hdmarx->XferAbortCallback = UART_DMAAbortOnError;
 8008be6:	687b      	ldr	r3, [r7, #4]
 8008be8:	6bdb      	ldr	r3, [r3, #60]	@ 0x3c
 8008bea:	4a7e      	ldr	r2, [pc, #504]	@ (8008de4 <HAL_UART_IRQHandler+0x3e0>)
 8008bec:	651a      	str	r2, [r3, #80]	@ 0x50
            if (HAL_DMA_Abort_IT(huart->hdmarx) != HAL_OK)
 8008bee:	687b      	ldr	r3, [r7, #4]
 8008bf0:	6bdb      	ldr	r3, [r3, #60]	@ 0x3c
 8008bf2:	4618      	mov	r0, r3
 8008bf4:	f7fb fc30 	bl	8004458 <HAL_DMA_Abort_IT>
 8008bf8:	4603      	mov	r3, r0
 8008bfa:	2b00      	cmp	r3, #0
 8008bfc:	d016      	beq.n	8008c2c <HAL_UART_IRQHandler+0x228>
            {
              /* Call Directly XferAbortCallback function in case of error */
              huart->hdmarx->XferAbortCallback(huart->hdmarx);
 8008bfe:	687b      	ldr	r3, [r7, #4]
 8008c00:	6bdb      	ldr	r3, [r3, #60]	@ 0x3c
 8008c02:	6d1b      	ldr	r3, [r3, #80]	@ 0x50
 8008c04:	687a      	ldr	r2, [r7, #4]
 8008c06:	6bd2      	ldr	r2, [r2, #60]	@ 0x3c
 8008c08:	4610      	mov	r0, r2
 8008c0a:	4798      	blx	r3
        if (HAL_IS_BIT_SET(huart->Instance->CR3, USART_CR3_DMAR))
 8008c0c:	e00e      	b.n	8008c2c <HAL_UART_IRQHandler+0x228>
#if (USE_HAL_UART_REGISTER_CALLBACKS == 1)
            /*Call registered error callback*/
            huart->ErrorCallback(huart);
#else
            /*Call legacy weak error callback*/
            HAL_UART_ErrorCallback(huart);
 8008c0e:	6878      	ldr	r0, [r7, #4]
 8008c10:	f000 f994 	bl	8008f3c <HAL_UART_ErrorCallback>
        if (HAL_IS_BIT_SET(huart->Instance->CR3, USART_CR3_DMAR))
 8008c14:	e00a      	b.n	8008c2c <HAL_UART_IRQHandler+0x228>
#if (USE_HAL_UART_REGISTER_CALLBACKS == 1)
          /*Call registered error callback*/
          huart->ErrorCallback(huart);
#else
          /*Call legacy weak error callback*/
          HAL_UART_ErrorCallback(huart);
 8008c16:	6878      	ldr	r0, [r7, #4]
 8008c18:	f000 f990 	bl	8008f3c <HAL_UART_ErrorCallback>
        if (HAL_IS_BIT_SET(huart->Instance->CR3, USART_CR3_DMAR))
 8008c1c:	e006      	b.n	8008c2c <HAL_UART_IRQHandler+0x228>
#if (USE_HAL_UART_REGISTER_CALLBACKS == 1)
        /*Call registered error callback*/
        huart->ErrorCallback(huart);
#else
        /*Call legacy weak error callback*/
        HAL_UART_ErrorCallback(huart);
 8008c1e:	6878      	ldr	r0, [r7, #4]
 8008c20:	f000 f98c 	bl	8008f3c <HAL_UART_ErrorCallback>
#endif /* USE_HAL_UART_REGISTER_CALLBACKS */

        huart->ErrorCode = HAL_UART_ERROR_NONE;
 8008c24:	687b      	ldr	r3, [r7, #4]
 8008c26:	2200      	movs	r2, #0
 8008c28:	645a      	str	r2, [r3, #68]	@ 0x44
      }
    }
    return;
 8008c2a:	e175      	b.n	8008f18 <HAL_UART_IRQHandler+0x514>
        if (HAL_IS_BIT_SET(huart->Instance->CR3, USART_CR3_DMAR))
 8008c2c:	bf00      	nop
    return;
 8008c2e:	e173      	b.n	8008f18 <HAL_UART_IRQHandler+0x514>
  } /* End if some error occurs */

  /* Check current reception Mode :
     If Reception till IDLE event has been selected : */
  if ((huart->ReceptionType == HAL_UART_RECEPTION_TOIDLE)
 8008c30:	687b      	ldr	r3, [r7, #4]
 8008c32:	6b1b      	ldr	r3, [r3, #48]	@ 0x30
 8008c34:	2b01      	cmp	r3, #1
 8008c36:	f040 814f 	bne.w	8008ed8 <HAL_UART_IRQHandler+0x4d4>
      && ((isrflags & USART_SR_IDLE) != 0U)
 8008c3a:	f8d7 30e4 	ldr.w	r3, [r7, #228]	@ 0xe4
 8008c3e:	f003 0310 	and.w	r3, r3, #16
 8008c42:	2b00      	cmp	r3, #0
 8008c44:	f000 8148 	beq.w	8008ed8 <HAL_UART_IRQHandler+0x4d4>
      && ((cr1its & USART_SR_IDLE) != 0U))
 8008c48:	f8d7 30e0 	ldr.w	r3, [r7, #224]	@ 0xe0
 8008c4c:	f003 0310 	and.w	r3, r3, #16
 8008c50:	2b00      	cmp	r3, #0
 8008c52:	f000 8141 	beq.w	8008ed8 <HAL_UART_IRQHandler+0x4d4>
  {
    __HAL_UART_CLEAR_IDLEFLAG(huart);
 8008c56:	2300      	movs	r3, #0
 8008c58:	60bb      	str	r3, [r7, #8]
 8008c5a:	687b      	ldr	r3, [r7, #4]
 8008c5c:	681b      	ldr	r3, [r3, #0]
 8008c5e:	681b      	ldr	r3, [r3, #0]
 8008c60:	60bb      	str	r3, [r7, #8]
 8008c62:	687b      	ldr	r3, [r7, #4]
 8008c64:	681b      	ldr	r3, [r3, #0]
 8008c66:	685b      	ldr	r3, [r3, #4]
 8008c68:	60bb      	str	r3, [r7, #8]
 8008c6a:	68bb      	ldr	r3, [r7, #8]

    /* Check if DMA mode is enabled in UART */
    if (HAL_IS_BIT_SET(huart->Instance->CR3, USART_CR3_DMAR))
 8008c6c:	687b      	ldr	r3, [r7, #4]
 8008c6e:	681b      	ldr	r3, [r3, #0]
 8008c70:	695b      	ldr	r3, [r3, #20]
 8008c72:	f003 0340 	and.w	r3, r3, #64	@ 0x40
 8008c76:	2b40      	cmp	r3, #64	@ 0x40
 8008c78:	f040 80b6 	bne.w	8008de8 <HAL_UART_IRQHandler+0x3e4>
    {
      /* DMA mode enabled */
      /* Check received length : If all expected data are received, do nothing,
         (DMA cplt callback will be called).
         Otherwise, if at least one data has already been received, IDLE event is to be notified to user */
      uint16_t nb_remaining_rx_data = (uint16_t) __HAL_DMA_GET_COUNTER(huart->hdmarx);
 8008c7c:	687b      	ldr	r3, [r7, #4]
 8008c7e:	6bdb      	ldr	r3, [r3, #60]	@ 0x3c
 8008c80:	681b      	ldr	r3, [r3, #0]
 8008c82:	685b      	ldr	r3, [r3, #4]
 8008c84:	f8a7 30be 	strh.w	r3, [r7, #190]	@ 0xbe
      if ((nb_remaining_rx_data > 0U)
 8008c88:	f8b7 30be 	ldrh.w	r3, [r7, #190]	@ 0xbe
 8008c8c:	2b00      	cmp	r3, #0
 8008c8e:	f000 8145 	beq.w	8008f1c <HAL_UART_IRQHandler+0x518>
          && (nb_remaining_rx_data < huart->RxXferSize))
 8008c92:	687b      	ldr	r3, [r7, #4]
 8008c94:	8d9b      	ldrh	r3, [r3, #44]	@ 0x2c
 8008c96:	f8b7 20be 	ldrh.w	r2, [r7, #190]	@ 0xbe
 8008c9a:	429a      	cmp	r2, r3
 8008c9c:	f080 813e 	bcs.w	8008f1c <HAL_UART_IRQHandler+0x518>
      {
        /* Reception is not complete */
        huart->RxXferCount = nb_remaining_rx_data;
 8008ca0:	687b      	ldr	r3, [r7, #4]
 8008ca2:	f8b7 20be 	ldrh.w	r2, [r7, #190]	@ 0xbe
 8008ca6:	85da      	strh	r2, [r3, #46]	@ 0x2e

        /* In Normal mode, end DMA xfer and HAL UART Rx process*/
        if (huart->hdmarx->Init.Mode != DMA_CIRCULAR)
 8008ca8:	687b      	ldr	r3, [r7, #4]
 8008caa:	6bdb      	ldr	r3, [r3, #60]	@ 0x3c
 8008cac:	69db      	ldr	r3, [r3, #28]
 8008cae:	f5b3 7f80 	cmp.w	r3, #256	@ 0x100
 8008cb2:	f000 8088 	beq.w	8008dc6 <HAL_UART_IRQHandler+0x3c2>
        {
          /* Disable PE and ERR (Frame error, noise error, overrun error) interrupts */
          ATOMIC_CLEAR_BIT(huart->Instance->CR1, USART_CR1_PEIE);
 8008cb6:	687b      	ldr	r3, [r7, #4]
 8008cb8:	681b      	ldr	r3, [r3, #0]
 8008cba:	330c      	adds	r3, #12
 8008cbc:	f8c7 3088 	str.w	r3, [r7, #136]	@ 0x88
   __ASM volatile ("ldrex %0, %1" : "=r" (result) : "Q" (*addr) );
 8008cc0:	f8d7 3088 	ldr.w	r3, [r7, #136]	@ 0x88
 8008cc4:	e853 3f00 	ldrex	r3, [r3]
 8008cc8:	f8c7 3084 	str.w	r3, [r7, #132]	@ 0x84
   return(result);
 8008ccc:	f8d7 3084 	ldr.w	r3, [r7, #132]	@ 0x84
 8008cd0:	f423 7380 	bic.w	r3, r3, #256	@ 0x100
 8008cd4:	f8c7 30b8 	str.w	r3, [r7, #184]	@ 0xb8
 8008cd8:	687b      	ldr	r3, [r7, #4]
 8008cda:	681b      	ldr	r3, [r3, #0]
 8008cdc:	330c      	adds	r3, #12
 8008cde:	f8d7 20b8 	ldr.w	r2, [r7, #184]	@ 0xb8
 8008ce2:	f8c7 2094 	str.w	r2, [r7, #148]	@ 0x94
 8008ce6:	f8c7 3090 	str.w	r3, [r7, #144]	@ 0x90
   __ASM volatile ("strex %0, %2, %1" : "=&r" (result), "=Q" (*addr) : "r" (value) );
 8008cea:	f8d7 1090 	ldr.w	r1, [r7, #144]	@ 0x90
 8008cee:	f8d7 2094 	ldr.w	r2, [r7, #148]	@ 0x94
 8008cf2:	e841 2300 	strex	r3, r2, [r1]
 8008cf6:	f8c7 308c 	str.w	r3, [r7, #140]	@ 0x8c
   return(result);
 8008cfa:	f8d7 308c 	ldr.w	r3, [r7, #140]	@ 0x8c
 8008cfe:	2b00      	cmp	r3, #0
 8008d00:	d1d9      	bne.n	8008cb6 <HAL_UART_IRQHandler+0x2b2>
          ATOMIC_CLEAR_BIT(huart->Instance->CR3, USART_CR3_EIE);
 8008d02:	687b      	ldr	r3, [r7, #4]
 8008d04:	681b      	ldr	r3, [r3, #0]
 8008d06:	3314      	adds	r3, #20
 8008d08:	677b      	str	r3, [r7, #116]	@ 0x74
   __ASM volatile ("ldrex %0, %1" : "=r" (result) : "Q" (*addr) );
 8008d0a:	6f7b      	ldr	r3, [r7, #116]	@ 0x74
 8008d0c:	e853 3f00 	ldrex	r3, [r3]
 8008d10:	673b      	str	r3, [r7, #112]	@ 0x70
   return(result);
 8008d12:	6f3b      	ldr	r3, [r7, #112]	@ 0x70
 8008d14:	f023 0301 	bic.w	r3, r3, #1
 8008d18:	f8c7 30b4 	str.w	r3, [r7, #180]	@ 0xb4
 8008d1c:	687b      	ldr	r3, [r7, #4]
 8008d1e:	681b      	ldr	r3, [r3, #0]
 8008d20:	3314      	adds	r3, #20
 8008d22:	f8d7 20b4 	ldr.w	r2, [r7, #180]	@ 0xb4
 8008d26:	f8c7 2080 	str.w	r2, [r7, #128]	@ 0x80
 8008d2a:	67fb      	str	r3, [r7, #124]	@ 0x7c
   __ASM volatile ("strex %0, %2, %1" : "=&r" (result), "=Q" (*addr) : "r" (value) );
 8008d2c:	6ff9      	ldr	r1, [r7, #124]	@ 0x7c
 8008d2e:	f8d7 2080 	ldr.w	r2, [r7, #128]	@ 0x80
 8008d32:	e841 2300 	strex	r3, r2, [r1]
 8008d36:	67bb      	str	r3, [r7, #120]	@ 0x78
   return(result);
 8008d38:	6fbb      	ldr	r3, [r7, #120]	@ 0x78
 8008d3a:	2b00      	cmp	r3, #0
 8008d3c:	d1e1      	bne.n	8008d02 <HAL_UART_IRQHandler+0x2fe>

          /* Disable the DMA transfer for the receiver request by resetting the DMAR bit
             in the UART CR3 register */
          ATOMIC_CLEAR_BIT(huart->Instance->CR3, USART_CR3_DMAR);
 8008d3e:	687b      	ldr	r3, [r7, #4]
 8008d40:	681b      	ldr	r3, [r3, #0]
 8008d42:	3314      	adds	r3, #20
 8008d44:	663b      	str	r3, [r7, #96]	@ 0x60
   __ASM volatile ("ldrex %0, %1" : "=r" (result) : "Q" (*addr) );
 8008d46:	6e3b      	ldr	r3, [r7, #96]	@ 0x60
 8008d48:	e853 3f00 	ldrex	r3, [r3]
 8008d4c:	65fb      	str	r3, [r7, #92]	@ 0x5c
   return(result);
 8008d4e:	6dfb      	ldr	r3, [r7, #92]	@ 0x5c
 8008d50:	f023 0340 	bic.w	r3, r3, #64	@ 0x40
 8008d54:	f8c7 30b0 	str.w	r3, [r7, #176]	@ 0xb0
 8008d58:	687b      	ldr	r3, [r7, #4]
 8008d5a:	681b      	ldr	r3, [r3, #0]
 8008d5c:	3314      	adds	r3, #20
 8008d5e:	f8d7 20b0 	ldr.w	r2, [r7, #176]	@ 0xb0
 8008d62:	66fa      	str	r2, [r7, #108]	@ 0x6c
 8008d64:	66bb      	str	r3, [r7, #104]	@ 0x68
   __ASM volatile ("strex %0, %2, %1" : "=&r" (result), "=Q" (*addr) : "r" (value) );
 8008d66:	6eb9      	ldr	r1, [r7, #104]	@ 0x68
 8008d68:	6efa      	ldr	r2, [r7, #108]	@ 0x6c
 8008d6a:	e841 2300 	strex	r3, r2, [r1]
 8008d6e:	667b      	str	r3, [r7, #100]	@ 0x64
   return(result);
 8008d70:	6e7b      	ldr	r3, [r7, #100]	@ 0x64
 8008d72:	2b00      	cmp	r3, #0
 8008d74:	d1e3      	bne.n	8008d3e <HAL_UART_IRQHandler+0x33a>

          /* At end of Rx process, restore huart->RxState to Ready */
          huart->RxState = HAL_UART_STATE_READY;
 8008d76:	687b      	ldr	r3, [r7, #4]
 8008d78:	2220      	movs	r2, #32
 8008d7a:	f883 2042 	strb.w	r2, [r3, #66]	@ 0x42
          huart->ReceptionType = HAL_UART_RECEPTION_STANDARD;
 8008d7e:	687b      	ldr	r3, [r7, #4]
 8008d80:	2200      	movs	r2, #0
 8008d82:	631a      	str	r2, [r3, #48]	@ 0x30

          ATOMIC_CLEAR_BIT(huart->Instance->CR1, USART_CR1_IDLEIE);
 8008d84:	687b      	ldr	r3, [r7, #4]
 8008d86:	681b      	ldr	r3, [r3, #0]
 8008d88:	330c      	adds	r3, #12
 8008d8a:	64fb      	str	r3, [r7, #76]	@ 0x4c
   __ASM volatile ("ldrex %0, %1" : "=r" (result) : "Q" (*addr) );
 8008d8c:	6cfb      	ldr	r3, [r7, #76]	@ 0x4c
 8008d8e:	e853 3f00 	ldrex	r3, [r3]
 8008d92:	64bb      	str	r3, [r7, #72]	@ 0x48
   return(result);
 8008d94:	6cbb      	ldr	r3, [r7, #72]	@ 0x48
 8008d96:	f023 0310 	bic.w	r3, r3, #16
 8008d9a:	f8c7 30ac 	str.w	r3, [r7, #172]	@ 0xac
 8008d9e:	687b      	ldr	r3, [r7, #4]
 8008da0:	681b      	ldr	r3, [r3, #0]
 8008da2:	330c      	adds	r3, #12
 8008da4:	f8d7 20ac 	ldr.w	r2, [r7, #172]	@ 0xac
 8008da8:	65ba      	str	r2, [r7, #88]	@ 0x58
 8008daa:	657b      	str	r3, [r7, #84]	@ 0x54
   __ASM volatile ("strex %0, %2, %1" : "=&r" (result), "=Q" (*addr) : "r" (value) );
 8008dac:	6d79      	ldr	r1, [r7, #84]	@ 0x54
 8008dae:	6dba      	ldr	r2, [r7, #88]	@ 0x58
 8008db0:	e841 2300 	strex	r3, r2, [r1]
 8008db4:	653b      	str	r3, [r7, #80]	@ 0x50
   return(result);
 8008db6:	6d3b      	ldr	r3, [r7, #80]	@ 0x50
 8008db8:	2b00      	cmp	r3, #0
 8008dba:	d1e3      	bne.n	8008d84 <HAL_UART_IRQHandler+0x380>

          /* Last bytes received, so no need as the abort is immediate */
          (void)HAL_DMA_Abort(huart->hdmarx);
 8008dbc:	687b      	ldr	r3, [r7, #4]
 8008dbe:	6bdb      	ldr	r3, [r3, #60]	@ 0x3c
 8008dc0:	4618      	mov	r0, r3
 8008dc2:	f7fb fad9 	bl	8004378 <HAL_DMA_Abort>
        }

        /* Initialize type of RxEvent that correspond to RxEvent callback execution;
        In this case, Rx Event type is Idle Event */
        huart->RxEventType = HAL_UART_RXEVENT_IDLE;
 8008dc6:	687b      	ldr	r3, [r7, #4]
 8008dc8:	2202      	movs	r2, #2
 8008dca:	635a      	str	r2, [r3, #52]	@ 0x34
#if (USE_HAL_UART_REGISTER_CALLBACKS == 1)
        /*Call registered Rx Event callback*/
        huart->RxEventCallback(huart, (huart->RxXferSize - huart->RxXferCount));
#else
        /*Call legacy weak Rx Event callback*/
        HAL_UARTEx_RxEventCallback(huart, (huart->RxXferSize - huart->RxXferCount));
 8008dcc:	687b      	ldr	r3, [r7, #4]
 8008dce:	8d9a      	ldrh	r2, [r3, #44]	@ 0x2c
 8008dd0:	687b      	ldr	r3, [r7, #4]
 8008dd2:	8ddb      	ldrh	r3, [r3, #46]	@ 0x2e
 8008dd4:	b29b      	uxth	r3, r3
 8008dd6:	1ad3      	subs	r3, r2, r3
 8008dd8:	b29b      	uxth	r3, r3
 8008dda:	4619      	mov	r1, r3
 8008ddc:	6878      	ldr	r0, [r7, #4]
 8008dde:	f000 f8b7 	bl	8008f50 <HAL_UARTEx_RxEventCallback>
#endif /* USE_HAL_UART_REGISTER_CALLBACKS */
      }
      return;
 8008de2:	e09b      	b.n	8008f1c <HAL_UART_IRQHandler+0x518>
 8008de4:	08009155 	.word	0x08009155
    else
    {
      /* DMA mode not enabled */
      /* Check received length : If all expected data are received, do nothing.
         Otherwise, if at least one data has already been received, IDLE event is to be notified to user */
      uint16_t nb_rx_data = huart->RxXferSize - huart->RxXferCount;
 8008de8:	687b      	ldr	r3, [r7, #4]
 8008dea:	8d9a      	ldrh	r2, [r3, #44]	@ 0x2c
 8008dec:	687b      	ldr	r3, [r7, #4]
 8008dee:	8ddb      	ldrh	r3, [r3, #46]	@ 0x2e
 8008df0:	b29b      	uxth	r3, r3
 8008df2:	1ad3      	subs	r3, r2, r3
 8008df4:	f8a7 30ce 	strh.w	r3, [r7, #206]	@ 0xce
      if ((huart->RxXferCount > 0U)
 8008df8:	687b      	ldr	r3, [r7, #4]
 8008dfa:	8ddb      	ldrh	r3, [r3, #46]	@ 0x2e
 8008dfc:	b29b      	uxth	r3, r3
 8008dfe:	2b00      	cmp	r3, #0
 8008e00:	f000 808e 	beq.w	8008f20 <HAL_UART_IRQHandler+0x51c>
          && (nb_rx_data > 0U))
 8008e04:	f8b7 30ce 	ldrh.w	r3, [r7, #206]	@ 0xce
 8008e08:	2b00      	cmp	r3, #0
 8008e0a:	f000 8089 	beq.w	8008f20 <HAL_UART_IRQHandler+0x51c>
      {
        /* Disable the UART Parity Error Interrupt and RXNE interrupts */
        ATOMIC_CLEAR_BIT(huart->Instance->CR1, (USART_CR1_RXNEIE | USART_CR1_PEIE));
 8008e0e:	687b      	ldr	r3, [r7, #4]
 8008e10:	681b      	ldr	r3, [r3, #0]
 8008e12:	330c      	adds	r3, #12
 8008e14:	63bb      	str	r3, [r7, #56]	@ 0x38
   __ASM volatile ("ldrex %0, %1" : "=r" (result) : "Q" (*addr) );
 8008e16:	6bbb      	ldr	r3, [r7, #56]	@ 0x38
 8008e18:	e853 3f00 	ldrex	r3, [r3]
 8008e1c:	637b      	str	r3, [r7, #52]	@ 0x34
   return(result);
 8008e1e:	6b7b      	ldr	r3, [r7, #52]	@ 0x34
 8008e20:	f423 7390 	bic.w	r3, r3, #288	@ 0x120
 8008e24:	f8c7 30c8 	str.w	r3, [r7, #200]	@ 0xc8
 8008e28:	687b      	ldr	r3, [r7, #4]
 8008e2a:	681b      	ldr	r3, [r3, #0]
 8008e2c:	330c      	adds	r3, #12
 8008e2e:	f8d7 20c8 	ldr.w	r2, [r7, #200]	@ 0xc8
 8008e32:	647a      	str	r2, [r7, #68]	@ 0x44
 8008e34:	643b      	str	r3, [r7, #64]	@ 0x40
   __ASM volatile ("strex %0, %2, %1" : "=&r" (result), "=Q" (*addr) : "r" (value) );
 8008e36:	6c39      	ldr	r1, [r7, #64]	@ 0x40
 8008e38:	6c7a      	ldr	r2, [r7, #68]	@ 0x44
 8008e3a:	e841 2300 	strex	r3, r2, [r1]
 8008e3e:	63fb      	str	r3, [r7, #60]	@ 0x3c
   return(result);
 8008e40:	6bfb      	ldr	r3, [r7, #60]	@ 0x3c
 8008e42:	2b00      	cmp	r3, #0
 8008e44:	d1e3      	bne.n	8008e0e <HAL_UART_IRQHandler+0x40a>

        /* Disable the UART Error Interrupt: (Frame error, noise error, overrun error) */
        ATOMIC_CLEAR_BIT(huart->Instance->CR3, USART_CR3_EIE);
 8008e46:	687b      	ldr	r3, [r7, #4]
 8008e48:	681b      	ldr	r3, [r3, #0]
 8008e4a:	3314      	adds	r3, #20
 8008e4c:	627b      	str	r3, [r7, #36]	@ 0x24
   __ASM volatile ("ldrex %0, %1" : "=r" (result) : "Q" (*addr) );
 8008e4e:	6a7b      	ldr	r3, [r7, #36]	@ 0x24
 8008e50:	e853 3f00 	ldrex	r3, [r3]
 8008e54:	623b      	str	r3, [r7, #32]
   return(result);
 8008e56:	6a3b      	ldr	r3, [r7, #32]
 8008e58:	f023 0301 	bic.w	r3, r3, #1
 8008e5c:	f8c7 30c4 	str.w	r3, [r7, #196]	@ 0xc4
 8008e60:	687b      	ldr	r3, [r7, #4]
 8008e62:	681b      	ldr	r3, [r3, #0]
 8008e64:	3314      	adds	r3, #20
 8008e66:	f8d7 20c4 	ldr.w	r2, [r7, #196]	@ 0xc4
 8008e6a:	633a      	str	r2, [r7, #48]	@ 0x30
 8008e6c:	62fb      	str	r3, [r7, #44]	@ 0x2c
   __ASM volatile ("strex %0, %2, %1" : "=&r" (result), "=Q" (*addr) : "r" (value) );
 8008e6e:	6af9      	ldr	r1, [r7, #44]	@ 0x2c
 8008e70:	6b3a      	ldr	r2, [r7, #48]	@ 0x30
 8008e72:	e841 2300 	strex	r3, r2, [r1]
 8008e76:	62bb      	str	r3, [r7, #40]	@ 0x28
   return(result);
 8008e78:	6abb      	ldr	r3, [r7, #40]	@ 0x28
 8008e7a:	2b00      	cmp	r3, #0
 8008e7c:	d1e3      	bne.n	8008e46 <HAL_UART_IRQHandler+0x442>

        /* Rx process is completed, restore huart->RxState to Ready */
        huart->RxState = HAL_UART_STATE_READY;
 8008e7e:	687b      	ldr	r3, [r7, #4]
 8008e80:	2220      	movs	r2, #32
 8008e82:	f883 2042 	strb.w	r2, [r3, #66]	@ 0x42
        huart->ReceptionType = HAL_UART_RECEPTION_STANDARD;
 8008e86:	687b      	ldr	r3, [r7, #4]
 8008e88:	2200      	movs	r2, #0
 8008e8a:	631a      	str	r2, [r3, #48]	@ 0x30

        ATOMIC_CLEAR_BIT(huart->Instance->CR1, USART_CR1_IDLEIE);
 8008e8c:	687b      	ldr	r3, [r7, #4]
 8008e8e:	681b      	ldr	r3, [r3, #0]
 8008e90:	330c      	adds	r3, #12
 8008e92:	613b      	str	r3, [r7, #16]
   __ASM volatile ("ldrex %0, %1" : "=r" (result) : "Q" (*addr) );
 8008e94:	693b      	ldr	r3, [r7, #16]
 8008e96:	e853 3f00 	ldrex	r3, [r3]
 8008e9a:	60fb      	str	r3, [r7, #12]
   return(result);
 8008e9c:	68fb      	ldr	r3, [r7, #12]
 8008e9e:	f023 0310 	bic.w	r3, r3, #16
 8008ea2:	f8c7 30c0 	str.w	r3, [r7, #192]	@ 0xc0
 8008ea6:	687b      	ldr	r3, [r7, #4]
 8008ea8:	681b      	ldr	r3, [r3, #0]
 8008eaa:	330c      	adds	r3, #12
 8008eac:	f8d7 20c0 	ldr.w	r2, [r7, #192]	@ 0xc0
 8008eb0:	61fa      	str	r2, [r7, #28]
 8008eb2:	61bb      	str	r3, [r7, #24]
   __ASM volatile ("strex %0, %2, %1" : "=&r" (result), "=Q" (*addr) : "r" (value) );
 8008eb4:	69b9      	ldr	r1, [r7, #24]
 8008eb6:	69fa      	ldr	r2, [r7, #28]
 8008eb8:	e841 2300 	strex	r3, r2, [r1]
 8008ebc:	617b      	str	r3, [r7, #20]
   return(result);
 8008ebe:	697b      	ldr	r3, [r7, #20]
 8008ec0:	2b00      	cmp	r3, #0
 8008ec2:	d1e3      	bne.n	8008e8c <HAL_UART_IRQHandler+0x488>

        /* Initialize type of RxEvent that correspond to RxEvent callback execution;
           In this case, Rx Event type is Idle Event */
        huart->RxEventType = HAL_UART_RXEVENT_IDLE;
 8008ec4:	687b      	ldr	r3, [r7, #4]
 8008ec6:	2202      	movs	r2, #2
 8008ec8:	635a      	str	r2, [r3, #52]	@ 0x34
#if (USE_HAL_UART_REGISTER_CALLBACKS == 1)
        /*Call registered Rx complete callback*/
        huart->RxEventCallback(huart, nb_rx_data);
#else
        /*Call legacy weak Rx Event callback*/
        HAL_UARTEx_RxEventCallback(huart, nb_rx_data);
 8008eca:	f8b7 30ce 	ldrh.w	r3, [r7, #206]	@ 0xce
 8008ece:	4619      	mov	r1, r3
 8008ed0:	6878      	ldr	r0, [r7, #4]
 8008ed2:	f000 f83d 	bl	8008f50 <HAL_UARTEx_RxEventCallback>
#endif /* USE_HAL_UART_REGISTER_CALLBACKS */
      }
      return;
 8008ed6:	e023      	b.n	8008f20 <HAL_UART_IRQHandler+0x51c>
    }
  }

  /* UART in mode Transmitter ------------------------------------------------*/
  if (((isrflags & USART_SR_TXE) != RESET) && ((cr1its & USART_CR1_TXEIE) != RESET))
 8008ed8:	f8d7 30e4 	ldr.w	r3, [r7, #228]	@ 0xe4
 8008edc:	f003 0380 	and.w	r3, r3, #128	@ 0x80
 8008ee0:	2b00      	cmp	r3, #0
 8008ee2:	d009      	beq.n	8008ef8 <HAL_UART_IRQHandler+0x4f4>
 8008ee4:	f8d7 30e0 	ldr.w	r3, [r7, #224]	@ 0xe0
 8008ee8:	f003 0380 	and.w	r3, r3, #128	@ 0x80
 8008eec:	2b00      	cmp	r3, #0
 8008eee:	d003      	beq.n	8008ef8 <HAL_UART_IRQHandler+0x4f4>
  {
    UART_Transmit_IT(huart);
 8008ef0:	6878      	ldr	r0, [r7, #4]
 8008ef2:	f000 f943 	bl	800917c <UART_Transmit_IT>
    return;
 8008ef6:	e014      	b.n	8008f22 <HAL_UART_IRQHandler+0x51e>
  }

  /* UART in mode Transmitter end --------------------------------------------*/
  if (((isrflags & USART_SR_TC) != RESET) && ((cr1its & USART_CR1_TCIE) != RESET))
 8008ef8:	f8d7 30e4 	ldr.w	r3, [r7, #228]	@ 0xe4
 8008efc:	f003 0340 	and.w	r3, r3, #64	@ 0x40
 8008f00:	2b00      	cmp	r3, #0
 8008f02:	d00e      	beq.n	8008f22 <HAL_UART_IRQHandler+0x51e>
 8008f04:	f8d7 30e0 	ldr.w	r3, [r7, #224]	@ 0xe0
 8008f08:	f003 0340 	and.w	r3, r3, #64	@ 0x40
 8008f0c:	2b00      	cmp	r3, #0
 8008f0e:	d008      	beq.n	8008f22 <HAL_UART_IRQHandler+0x51e>
  {
    UART_EndTransmit_IT(huart);
 8008f10:	6878      	ldr	r0, [r7, #4]
 8008f12:	f000 f983 	bl	800921c <UART_EndTransmit_IT>
    return;
 8008f16:	e004      	b.n	8008f22 <HAL_UART_IRQHandler+0x51e>
    return;
 8008f18:	bf00      	nop
 8008f1a:	e002      	b.n	8008f22 <HAL_UART_IRQHandler+0x51e>
      return;
 8008f1c:	bf00      	nop
 8008f1e:	e000      	b.n	8008f22 <HAL_UART_IRQHandler+0x51e>
      return;
 8008f20:	bf00      	nop
  }
}
 8008f22:	37e8      	adds	r7, #232	@ 0xe8
 8008f24:	46bd      	mov	sp, r7
 8008f26:	bd80      	pop	{r7, pc}

08008f28 <HAL_UART_TxCpltCallback>:
  * @param  huart  Pointer to a UART_HandleTypeDef structure that contains
  *                the configuration information for the specified UART module.
  * @retval None
  */
__weak void HAL_UART_TxCpltCallback(UART_HandleTypeDef *huart)
{
 8008f28:	b480      	push	{r7}
 8008f2a:	b083      	sub	sp, #12
 8008f2c:	af00      	add	r7, sp, #0
 8008f2e:	6078      	str	r0, [r7, #4]
  /* Prevent unused argument(s) compilation warning */
  UNUSED(huart);
  /* NOTE: This function should not be modified, when the callback is needed,
           the HAL_UART_TxCpltCallback could be implemented in the user file
   */
}
 8008f30:	bf00      	nop
 8008f32:	370c      	adds	r7, #12
 8008f34:	46bd      	mov	sp, r7
 8008f36:	f85d 7b04 	ldr.w	r7, [sp], #4
 8008f3a:	4770      	bx	lr

08008f3c <HAL_UART_ErrorCallback>:
  * @param  huart  Pointer to a UART_HandleTypeDef structure that contains
  *                the configuration information for the specified UART module.
  * @retval None
  */
__weak void HAL_UART_ErrorCallback(UART_HandleTypeDef *huart)
{
 8008f3c:	b480      	push	{r7}
 8008f3e:	b083      	sub	sp, #12
 8008f40:	af00      	add	r7, sp, #0
 8008f42:	6078      	str	r0, [r7, #4]
  /* Prevent unused argument(s) compilation warning */
  UNUSED(huart);
  /* NOTE: This function should not be modified, when the callback is needed,
           the HAL_UART_ErrorCallback could be implemented in the user file
   */
}
 8008f44:	bf00      	nop
 8008f46:	370c      	adds	r7, #12
 8008f48:	46bd      	mov	sp, r7
 8008f4a:	f85d 7b04 	ldr.w	r7, [sp], #4
 8008f4e:	4770      	bx	lr

08008f50 <HAL_UARTEx_RxEventCallback>:
  * @param  Size  Number of data available in application reception buffer (indicates a position in
  *               reception buffer until which, data are available)
  * @retval None
  */
__weak void HAL_UARTEx_RxEventCallback(UART_HandleTypeDef *huart, uint16_t Size)
{
 8008f50:	b480      	push	{r7}
 8008f52:	b083      	sub	sp, #12
 8008f54:	af00      	add	r7, sp, #0
 8008f56:	6078      	str	r0, [r7, #4]
 8008f58:	460b      	mov	r3, r1
 8008f5a:	807b      	strh	r3, [r7, #2]
  UNUSED(Size);

  /* NOTE : This function should not be modified, when the callback is needed,
            the HAL_UARTEx_RxEventCallback can be implemented in the user file.
   */
}
 8008f5c:	bf00      	nop
 8008f5e:	370c      	adds	r7, #12
 8008f60:	46bd      	mov	sp, r7
 8008f62:	f85d 7b04 	ldr.w	r7, [sp], #4
 8008f66:	4770      	bx	lr

08008f68 <UART_WaitOnFlagUntilTimeout>:
  * @param  Timeout Timeout duration
  * @retval HAL status
  */
static HAL_StatusTypeDef UART_WaitOnFlagUntilTimeout(UART_HandleTypeDef *huart, uint32_t Flag, FlagStatus Status,
                                                     uint32_t Tickstart, uint32_t Timeout)
{
 8008f68:	b580      	push	{r7, lr}
 8008f6a:	b086      	sub	sp, #24
 8008f6c:	af00      	add	r7, sp, #0
 8008f6e:	60f8      	str	r0, [r7, #12]
 8008f70:	60b9      	str	r1, [r7, #8]
 8008f72:	603b      	str	r3, [r7, #0]
 8008f74:	4613      	mov	r3, r2
 8008f76:	71fb      	strb	r3, [r7, #7]
  /* Wait until flag is set */
  while ((__HAL_UART_GET_FLAG(huart, Flag) ? SET : RESET) == Status)
 8008f78:	e03b      	b.n	8008ff2 <UART_WaitOnFlagUntilTimeout+0x8a>
  {
    /* Check for the Timeout */
    if (Timeout != HAL_MAX_DELAY)
 8008f7a:	6a3b      	ldr	r3, [r7, #32]
 8008f7c:	f1b3 3fff 	cmp.w	r3, #4294967295	@ 0xffffffff
 8008f80:	d037      	beq.n	8008ff2 <UART_WaitOnFlagUntilTimeout+0x8a>
    {
      if (((HAL_GetTick() - Tickstart) > Timeout) || (Timeout == 0U))
 8008f82:	f7fa f949 	bl	8003218 <HAL_GetTick>
 8008f86:	4602      	mov	r2, r0
 8008f88:	683b      	ldr	r3, [r7, #0]
 8008f8a:	1ad3      	subs	r3, r2, r3
 8008f8c:	6a3a      	ldr	r2, [r7, #32]
 8008f8e:	429a      	cmp	r2, r3
 8008f90:	d302      	bcc.n	8008f98 <UART_WaitOnFlagUntilTimeout+0x30>
 8008f92:	6a3b      	ldr	r3, [r7, #32]
 8008f94:	2b00      	cmp	r3, #0
 8008f96:	d101      	bne.n	8008f9c <UART_WaitOnFlagUntilTimeout+0x34>
      {

        return HAL_TIMEOUT;
 8008f98:	2303      	movs	r3, #3
 8008f9a:	e03a      	b.n	8009012 <UART_WaitOnFlagUntilTimeout+0xaa>
      }

      if ((READ_BIT(huart->Instance->CR1, USART_CR1_RE) != 0U) && (Flag != UART_FLAG_TXE) && (Flag != UART_FLAG_TC))
 8008f9c:	68fb      	ldr	r3, [r7, #12]
 8008f9e:	681b      	ldr	r3, [r3, #0]
 8008fa0:	68db      	ldr	r3, [r3, #12]
 8008fa2:	f003 0304 	and.w	r3, r3, #4
 8008fa6:	2b00      	cmp	r3, #0
 8008fa8:	d023      	beq.n	8008ff2 <UART_WaitOnFlagUntilTimeout+0x8a>
 8008faa:	68bb      	ldr	r3, [r7, #8]
 8008fac:	2b80      	cmp	r3, #128	@ 0x80
 8008fae:	d020      	beq.n	8008ff2 <UART_WaitOnFlagUntilTimeout+0x8a>
 8008fb0:	68bb      	ldr	r3, [r7, #8]
 8008fb2:	2b40      	cmp	r3, #64	@ 0x40
 8008fb4:	d01d      	beq.n	8008ff2 <UART_WaitOnFlagUntilTimeout+0x8a>
      {
        if (__HAL_UART_GET_FLAG(huart, UART_FLAG_ORE) == SET)
 8008fb6:	68fb      	ldr	r3, [r7, #12]
 8008fb8:	681b      	ldr	r3, [r3, #0]
 8008fba:	681b      	ldr	r3, [r3, #0]
 8008fbc:	f003 0308 	and.w	r3, r3, #8
 8008fc0:	2b08      	cmp	r3, #8
 8008fc2:	d116      	bne.n	8008ff2 <UART_WaitOnFlagUntilTimeout+0x8a>
        {
          /* Clear Overrun Error flag*/
          __HAL_UART_CLEAR_OREFLAG(huart);
 8008fc4:	2300      	movs	r3, #0
 8008fc6:	617b      	str	r3, [r7, #20]
 8008fc8:	68fb      	ldr	r3, [r7, #12]
 8008fca:	681b      	ldr	r3, [r3, #0]
 8008fcc:	681b      	ldr	r3, [r3, #0]
 8008fce:	617b      	str	r3, [r7, #20]
 8008fd0:	68fb      	ldr	r3, [r7, #12]
 8008fd2:	681b      	ldr	r3, [r3, #0]
 8008fd4:	685b      	ldr	r3, [r3, #4]
 8008fd6:	617b      	str	r3, [r7, #20]
 8008fd8:	697b      	ldr	r3, [r7, #20]

          /* Blocking error : transfer is aborted
          Set the UART state ready to be able to start again the process,
          Disable Rx Interrupts if ongoing */
          UART_EndRxTransfer(huart);
 8008fda:	68f8      	ldr	r0, [r7, #12]
 8008fdc:	f000 f857 	bl	800908e <UART_EndRxTransfer>

          huart->ErrorCode = HAL_UART_ERROR_ORE;
 8008fe0:	68fb      	ldr	r3, [r7, #12]
 8008fe2:	2208      	movs	r2, #8
 8008fe4:	645a      	str	r2, [r3, #68]	@ 0x44

          /* Process Unlocked */
          __HAL_UNLOCK(huart);
 8008fe6:	68fb      	ldr	r3, [r7, #12]
 8008fe8:	2200      	movs	r2, #0
 8008fea:	f883 2040 	strb.w	r2, [r3, #64]	@ 0x40

          return HAL_ERROR;
 8008fee:	2301      	movs	r3, #1
 8008ff0:	e00f      	b.n	8009012 <UART_WaitOnFlagUntilTimeout+0xaa>
  while ((__HAL_UART_GET_FLAG(huart, Flag) ? SET : RESET) == Status)
 8008ff2:	68fb      	ldr	r3, [r7, #12]
 8008ff4:	681b      	ldr	r3, [r3, #0]
 8008ff6:	681a      	ldr	r2, [r3, #0]
 8008ff8:	68bb      	ldr	r3, [r7, #8]
 8008ffa:	4013      	ands	r3, r2
 8008ffc:	68ba      	ldr	r2, [r7, #8]
 8008ffe:	429a      	cmp	r2, r3
 8009000:	bf0c      	ite	eq
 8009002:	2301      	moveq	r3, #1
 8009004:	2300      	movne	r3, #0
 8009006:	b2db      	uxtb	r3, r3
 8009008:	461a      	mov	r2, r3
 800900a:	79fb      	ldrb	r3, [r7, #7]
 800900c:	429a      	cmp	r2, r3
 800900e:	d0b4      	beq.n	8008f7a <UART_WaitOnFlagUntilTimeout+0x12>
        }
      }
    }
  }
  return HAL_OK;
 8009010:	2300      	movs	r3, #0
}
 8009012:	4618      	mov	r0, r3
 8009014:	3718      	adds	r7, #24
 8009016:	46bd      	mov	sp, r7
 8009018:	bd80      	pop	{r7, pc}

0800901a <UART_Start_Receive_IT>:
  * @param  pData Pointer to data buffer (u8 or u16 data elements).
  * @param  Size  Amount of data elements (u8 or u16) to be received.
  * @retval HAL status
  */
HAL_StatusTypeDef UART_Start_Receive_IT(UART_HandleTypeDef *huart, uint8_t *pData, uint16_t Size)
{
 800901a:	b480      	push	{r7}
 800901c:	b085      	sub	sp, #20
 800901e:	af00      	add	r7, sp, #0
 8009020:	60f8      	str	r0, [r7, #12]
 8009022:	60b9      	str	r1, [r7, #8]
 8009024:	4613      	mov	r3, r2
 8009026:	80fb      	strh	r3, [r7, #6]
  huart->pRxBuffPtr = pData;
 8009028:	68fb      	ldr	r3, [r7, #12]
 800902a:	68ba      	ldr	r2, [r7, #8]
 800902c:	629a      	str	r2, [r3, #40]	@ 0x28
  huart->RxXferSize = Size;
 800902e:	68fb      	ldr	r3, [r7, #12]
 8009030:	88fa      	ldrh	r2, [r7, #6]
 8009032:	859a      	strh	r2, [r3, #44]	@ 0x2c
  huart->RxXferCount = Size;
 8009034:	68fb      	ldr	r3, [r7, #12]
 8009036:	88fa      	ldrh	r2, [r7, #6]
 8009038:	85da      	strh	r2, [r3, #46]	@ 0x2e

  huart->ErrorCode = HAL_UART_ERROR_NONE;
 800903a:	68fb      	ldr	r3, [r7, #12]
 800903c:	2200      	movs	r2, #0
 800903e:	645a      	str	r2, [r3, #68]	@ 0x44
  huart->RxState = HAL_UART_STATE_BUSY_RX;
 8009040:	68fb      	ldr	r3, [r7, #12]
 8009042:	2222      	movs	r2, #34	@ 0x22
 8009044:	f883 2042 	strb.w	r2, [r3, #66]	@ 0x42

  if (huart->Init.Parity != UART_PARITY_NONE)
 8009048:	68fb      	ldr	r3, [r7, #12]
 800904a:	691b      	ldr	r3, [r3, #16]
 800904c:	2b00      	cmp	r3, #0
 800904e:	d007      	beq.n	8009060 <UART_Start_Receive_IT+0x46>
  {
    /* Enable the UART Parity Error Interrupt */
    __HAL_UART_ENABLE_IT(huart, UART_IT_PE);
 8009050:	68fb      	ldr	r3, [r7, #12]
 8009052:	681b      	ldr	r3, [r3, #0]
 8009054:	68da      	ldr	r2, [r3, #12]
 8009056:	68fb      	ldr	r3, [r7, #12]
 8009058:	681b      	ldr	r3, [r3, #0]
 800905a:	f442 7280 	orr.w	r2, r2, #256	@ 0x100
 800905e:	60da      	str	r2, [r3, #12]
  }

  /* Enable the UART Error Interrupt: (Frame error, noise error, overrun error) */
  __HAL_UART_ENABLE_IT(huart, UART_IT_ERR);
 8009060:	68fb      	ldr	r3, [r7, #12]
 8009062:	681b      	ldr	r3, [r3, #0]
 8009064:	695a      	ldr	r2, [r3, #20]
 8009066:	68fb      	ldr	r3, [r7, #12]
 8009068:	681b      	ldr	r3, [r3, #0]
 800906a:	f042 0201 	orr.w	r2, r2, #1
 800906e:	615a      	str	r2, [r3, #20]

  /* Enable the UART Data Register not empty Interrupt */
  __HAL_UART_ENABLE_IT(huart, UART_IT_RXNE);
 8009070:	68fb      	ldr	r3, [r7, #12]
 8009072:	681b      	ldr	r3, [r3, #0]
 8009074:	68da      	ldr	r2, [r3, #12]
 8009076:	68fb      	ldr	r3, [r7, #12]
 8009078:	681b      	ldr	r3, [r3, #0]
 800907a:	f042 0220 	orr.w	r2, r2, #32
 800907e:	60da      	str	r2, [r3, #12]

  return HAL_OK;
 8009080:	2300      	movs	r3, #0
}
 8009082:	4618      	mov	r0, r3
 8009084:	3714      	adds	r7, #20
 8009086:	46bd      	mov	sp, r7
 8009088:	f85d 7b04 	ldr.w	r7, [sp], #4
 800908c:	4770      	bx	lr

0800908e <UART_EndRxTransfer>:
  * @brief  End ongoing Rx transfer on UART peripheral (following error detection or Reception completion).
  * @param  huart UART handle.
  * @retval None
  */
static void UART_EndRxTransfer(UART_HandleTypeDef *huart)
{
 800908e:	b480      	push	{r7}
 8009090:	b095      	sub	sp, #84	@ 0x54
 8009092:	af00      	add	r7, sp, #0
 8009094:	6078      	str	r0, [r7, #4]
  /* Disable RXNE, PE and ERR (Frame error, noise error, overrun error) interrupts */
  ATOMIC_CLEAR_BIT(huart->Instance->CR1, (USART_CR1_RXNEIE | USART_CR1_PEIE));
 8009096:	687b      	ldr	r3, [r7, #4]
 8009098:	681b      	ldr	r3, [r3, #0]
 800909a:	330c      	adds	r3, #12
 800909c:	637b      	str	r3, [r7, #52]	@ 0x34
   __ASM volatile ("ldrex %0, %1" : "=r" (result) : "Q" (*addr) );
 800909e:	6b7b      	ldr	r3, [r7, #52]	@ 0x34
 80090a0:	e853 3f00 	ldrex	r3, [r3]
 80090a4:	633b      	str	r3, [r7, #48]	@ 0x30
   return(result);
 80090a6:	6b3b      	ldr	r3, [r7, #48]	@ 0x30
 80090a8:	f423 7390 	bic.w	r3, r3, #288	@ 0x120
 80090ac:	64fb      	str	r3, [r7, #76]	@ 0x4c
 80090ae:	687b      	ldr	r3, [r7, #4]
 80090b0:	681b      	ldr	r3, [r3, #0]
 80090b2:	330c      	adds	r3, #12
 80090b4:	6cfa      	ldr	r2, [r7, #76]	@ 0x4c
 80090b6:	643a      	str	r2, [r7, #64]	@ 0x40
 80090b8:	63fb      	str	r3, [r7, #60]	@ 0x3c
   __ASM volatile ("strex %0, %2, %1" : "=&r" (result), "=Q" (*addr) : "r" (value) );
 80090ba:	6bf9      	ldr	r1, [r7, #60]	@ 0x3c
 80090bc:	6c3a      	ldr	r2, [r7, #64]	@ 0x40
 80090be:	e841 2300 	strex	r3, r2, [r1]
 80090c2:	63bb      	str	r3, [r7, #56]	@ 0x38
   return(result);
 80090c4:	6bbb      	ldr	r3, [r7, #56]	@ 0x38
 80090c6:	2b00      	cmp	r3, #0
 80090c8:	d1e5      	bne.n	8009096 <UART_EndRxTransfer+0x8>
  ATOMIC_CLEAR_BIT(huart->Instance->CR3, USART_CR3_EIE);
 80090ca:	687b      	ldr	r3, [r7, #4]
 80090cc:	681b      	ldr	r3, [r3, #0]
 80090ce:	3314      	adds	r3, #20
 80090d0:	623b      	str	r3, [r7, #32]
   __ASM volatile ("ldrex %0, %1" : "=r" (result) : "Q" (*addr) );
 80090d2:	6a3b      	ldr	r3, [r7, #32]
 80090d4:	e853 3f00 	ldrex	r3, [r3]
 80090d8:	61fb      	str	r3, [r7, #28]
   return(result);
 80090da:	69fb      	ldr	r3, [r7, #28]
 80090dc:	f023 0301 	bic.w	r3, r3, #1
 80090e0:	64bb      	str	r3, [r7, #72]	@ 0x48
 80090e2:	687b      	ldr	r3, [r7, #4]
 80090e4:	681b      	ldr	r3, [r3, #0]
 80090e6:	3314      	adds	r3, #20
 80090e8:	6cba      	ldr	r2, [r7, #72]	@ 0x48
 80090ea:	62fa      	str	r2, [r7, #44]	@ 0x2c
 80090ec:	62bb      	str	r3, [r7, #40]	@ 0x28
   __ASM volatile ("strex %0, %2, %1" : "=&r" (result), "=Q" (*addr) : "r" (value) );
 80090ee:	6ab9      	ldr	r1, [r7, #40]	@ 0x28
 80090f0:	6afa      	ldr	r2, [r7, #44]	@ 0x2c
 80090f2:	e841 2300 	strex	r3, r2, [r1]
 80090f6:	627b      	str	r3, [r7, #36]	@ 0x24
   return(result);
 80090f8:	6a7b      	ldr	r3, [r7, #36]	@ 0x24
 80090fa:	2b00      	cmp	r3, #0
 80090fc:	d1e5      	bne.n	80090ca <UART_EndRxTransfer+0x3c>

  /* In case of reception waiting for IDLE event, disable also the IDLE IE interrupt source */
  if (huart->ReceptionType == HAL_UART_RECEPTION_TOIDLE)
 80090fe:	687b      	ldr	r3, [r7, #4]
 8009100:	6b1b      	ldr	r3, [r3, #48]	@ 0x30
 8009102:	2b01      	cmp	r3, #1
 8009104:	d119      	bne.n	800913a <UART_EndRxTransfer+0xac>
  {
    ATOMIC_CLEAR_BIT(huart->Instance->CR1, USART_CR1_IDLEIE);
 8009106:	687b      	ldr	r3, [r7, #4]
 8009108:	681b      	ldr	r3, [r3, #0]
 800910a:	330c      	adds	r3, #12
 800910c:	60fb      	str	r3, [r7, #12]
   __ASM volatile ("ldrex %0, %1" : "=r" (result) : "Q" (*addr) );
 800910e:	68fb      	ldr	r3, [r7, #12]
 8009110:	e853 3f00 	ldrex	r3, [r3]
 8009114:	60bb      	str	r3, [r7, #8]
   return(result);
 8009116:	68bb      	ldr	r3, [r7, #8]
 8009118:	f023 0310 	bic.w	r3, r3, #16
 800911c:	647b      	str	r3, [r7, #68]	@ 0x44
 800911e:	687b      	ldr	r3, [r7, #4]
 8009120:	681b      	ldr	r3, [r3, #0]
 8009122:	330c      	adds	r3, #12
 8009124:	6c7a      	ldr	r2, [r7, #68]	@ 0x44
 8009126:	61ba      	str	r2, [r7, #24]
 8009128:	617b      	str	r3, [r7, #20]
   __ASM volatile ("strex %0, %2, %1" : "=&r" (result), "=Q" (*addr) : "r" (value) );
 800912a:	6979      	ldr	r1, [r7, #20]
 800912c:	69ba      	ldr	r2, [r7, #24]
 800912e:	e841 2300 	strex	r3, r2, [r1]
 8009132:	613b      	str	r3, [r7, #16]
   return(result);
 8009134:	693b      	ldr	r3, [r7, #16]
 8009136:	2b00      	cmp	r3, #0
 8009138:	d1e5      	bne.n	8009106 <UART_EndRxTransfer+0x78>
  }

  /* At end of Rx process, restore huart->RxState to Ready */
  huart->RxState = HAL_UART_STATE_READY;
 800913a:	687b      	ldr	r3, [r7, #4]
 800913c:	2220      	movs	r2, #32
 800913e:	f883 2042 	strb.w	r2, [r3, #66]	@ 0x42
  huart->ReceptionType = HAL_UART_RECEPTION_STANDARD;
 8009142:	687b      	ldr	r3, [r7, #4]
 8009144:	2200      	movs	r2, #0
 8009146:	631a      	str	r2, [r3, #48]	@ 0x30
}
 8009148:	bf00      	nop
 800914a:	3754      	adds	r7, #84	@ 0x54
 800914c:	46bd      	mov	sp, r7
 800914e:	f85d 7b04 	ldr.w	r7, [sp], #4
 8009152:	4770      	bx	lr

08009154 <UART_DMAAbortOnError>:
  * @param  hdma  Pointer to a DMA_HandleTypeDef structure that contains
  *               the configuration information for the specified DMA module.
  * @retval None
  */
static void UART_DMAAbortOnError(DMA_HandleTypeDef *hdma)
{
 8009154:	b580      	push	{r7, lr}
 8009156:	b084      	sub	sp, #16
 8009158:	af00      	add	r7, sp, #0
 800915a:	6078      	str	r0, [r7, #4]
  UART_HandleTypeDef *huart = (UART_HandleTypeDef *)((DMA_HandleTypeDef *)hdma)->Parent;
 800915c:	687b      	ldr	r3, [r7, #4]
 800915e:	6b9b      	ldr	r3, [r3, #56]	@ 0x38
 8009160:	60fb      	str	r3, [r7, #12]
  huart->RxXferCount = 0x00U;
 8009162:	68fb      	ldr	r3, [r7, #12]
 8009164:	2200      	movs	r2, #0
 8009166:	85da      	strh	r2, [r3, #46]	@ 0x2e
  huart->TxXferCount = 0x00U;
 8009168:	68fb      	ldr	r3, [r7, #12]
 800916a:	2200      	movs	r2, #0
 800916c:	84da      	strh	r2, [r3, #38]	@ 0x26
#if (USE_HAL_UART_REGISTER_CALLBACKS == 1)
  /*Call registered error callback*/
  huart->ErrorCallback(huart);
#else
  /*Call legacy weak error callback*/
  HAL_UART_ErrorCallback(huart);
 800916e:	68f8      	ldr	r0, [r7, #12]
 8009170:	f7ff fee4 	bl	8008f3c <HAL_UART_ErrorCallback>
#endif /* USE_HAL_UART_REGISTER_CALLBACKS */
}
 8009174:	bf00      	nop
 8009176:	3710      	adds	r7, #16
 8009178:	46bd      	mov	sp, r7
 800917a:	bd80      	pop	{r7, pc}

0800917c <UART_Transmit_IT>:
  * @param  huart  Pointer to a UART_HandleTypeDef structure that contains
  *                the configuration information for the specified UART module.
  * @retval HAL status
  */
static HAL_StatusTypeDef UART_Transmit_IT(UART_HandleTypeDef *huart)
{
 800917c:	b480      	push	{r7}
 800917e:	b085      	sub	sp, #20
 8009180:	af00      	add	r7, sp, #0
 8009182:	6078      	str	r0, [r7, #4]
  const uint16_t *tmp;

  /* Check that a Tx process is ongoing */
  if (huart->gState == HAL_UART_STATE_BUSY_TX)
 8009184:	687b      	ldr	r3, [r7, #4]
 8009186:	f893 3041 	ldrb.w	r3, [r3, #65]	@ 0x41
 800918a:	b2db      	uxtb	r3, r3
 800918c:	2b21      	cmp	r3, #33	@ 0x21
 800918e:	d13e      	bne.n	800920e <UART_Transmit_IT+0x92>
  {
    if ((huart->Init.WordLength == UART_WORDLENGTH_9B) && (huart->Init.Parity == UART_PARITY_NONE))
 8009190:	687b      	ldr	r3, [r7, #4]
 8009192:	689b      	ldr	r3, [r3, #8]
 8009194:	f5b3 5f80 	cmp.w	r3, #4096	@ 0x1000
 8009198:	d114      	bne.n	80091c4 <UART_Transmit_IT+0x48>
 800919a:	687b      	ldr	r3, [r7, #4]
 800919c:	691b      	ldr	r3, [r3, #16]
 800919e:	2b00      	cmp	r3, #0
 80091a0:	d110      	bne.n	80091c4 <UART_Transmit_IT+0x48>
    {
      tmp = (const uint16_t *) huart->pTxBuffPtr;
 80091a2:	687b      	ldr	r3, [r7, #4]
 80091a4:	6a1b      	ldr	r3, [r3, #32]
 80091a6:	60fb      	str	r3, [r7, #12]
      huart->Instance->DR = (uint16_t)(*tmp & (uint16_t)0x01FF);
 80091a8:	68fb      	ldr	r3, [r7, #12]
 80091aa:	881b      	ldrh	r3, [r3, #0]
 80091ac:	461a      	mov	r2, r3
 80091ae:	687b      	ldr	r3, [r7, #4]
 80091b0:	681b      	ldr	r3, [r3, #0]
 80091b2:	f3c2 0208 	ubfx	r2, r2, #0, #9
 80091b6:	605a      	str	r2, [r3, #4]
      huart->pTxBuffPtr += 2U;
 80091b8:	687b      	ldr	r3, [r7, #4]
 80091ba:	6a1b      	ldr	r3, [r3, #32]
 80091bc:	1c9a      	adds	r2, r3, #2
 80091be:	687b      	ldr	r3, [r7, #4]
 80091c0:	621a      	str	r2, [r3, #32]
 80091c2:	e008      	b.n	80091d6 <UART_Transmit_IT+0x5a>
    }
    else
    {
      huart->Instance->DR = (uint8_t)(*huart->pTxBuffPtr++ & (uint8_t)0x00FF);
 80091c4:	687b      	ldr	r3, [r7, #4]
 80091c6:	6a1b      	ldr	r3, [r3, #32]
 80091c8:	1c59      	adds	r1, r3, #1
 80091ca:	687a      	ldr	r2, [r7, #4]
 80091cc:	6211      	str	r1, [r2, #32]
 80091ce:	781a      	ldrb	r2, [r3, #0]
 80091d0:	687b      	ldr	r3, [r7, #4]
 80091d2:	681b      	ldr	r3, [r3, #0]
 80091d4:	605a      	str	r2, [r3, #4]
    }

    if (--huart->TxXferCount == 0U)
 80091d6:	687b      	ldr	r3, [r7, #4]
 80091d8:	8cdb      	ldrh	r3, [r3, #38]	@ 0x26
 80091da:	b29b      	uxth	r3, r3
 80091dc:	3b01      	subs	r3, #1
 80091de:	b29b      	uxth	r3, r3
 80091e0:	687a      	ldr	r2, [r7, #4]
 80091e2:	4619      	mov	r1, r3
 80091e4:	84d1      	strh	r1, [r2, #38]	@ 0x26
 80091e6:	2b00      	cmp	r3, #0
 80091e8:	d10f      	bne.n	800920a <UART_Transmit_IT+0x8e>
    {
      /* Disable the UART Transmit Data Register Empty Interrupt */
      __HAL_UART_DISABLE_IT(huart, UART_IT_TXE);
 80091ea:	687b      	ldr	r3, [r7, #4]
 80091ec:	681b      	ldr	r3, [r3, #0]
 80091ee:	68da      	ldr	r2, [r3, #12]
 80091f0:	687b      	ldr	r3, [r7, #4]
 80091f2:	681b      	ldr	r3, [r3, #0]
 80091f4:	f022 0280 	bic.w	r2, r2, #128	@ 0x80
 80091f8:	60da      	str	r2, [r3, #12]

      /* Enable the UART Transmit Complete Interrupt */
      __HAL_UART_ENABLE_IT(huart, UART_IT_TC);
 80091fa:	687b      	ldr	r3, [r7, #4]
 80091fc:	681b      	ldr	r3, [r3, #0]
 80091fe:	68da      	ldr	r2, [r3, #12]
 8009200:	687b      	ldr	r3, [r7, #4]
 8009202:	681b      	ldr	r3, [r3, #0]
 8009204:	f042 0240 	orr.w	r2, r2, #64	@ 0x40
 8009208:	60da      	str	r2, [r3, #12]
    }
    return HAL_OK;
 800920a:	2300      	movs	r3, #0
 800920c:	e000      	b.n	8009210 <UART_Transmit_IT+0x94>
  }
  else
  {
    return HAL_BUSY;
 800920e:	2302      	movs	r3, #2
  }
}
 8009210:	4618      	mov	r0, r3
 8009212:	3714      	adds	r7, #20
 8009214:	46bd      	mov	sp, r7
 8009216:	f85d 7b04 	ldr.w	r7, [sp], #4
 800921a:	4770      	bx	lr

0800921c <UART_EndTransmit_IT>:
  * @param  huart  Pointer to a UART_HandleTypeDef structure that contains
  *                the configuration information for the specified UART module.
  * @retval HAL status
  */
static HAL_StatusTypeDef UART_EndTransmit_IT(UART_HandleTypeDef *huart)
{
 800921c:	b580      	push	{r7, lr}
 800921e:	b082      	sub	sp, #8
 8009220:	af00      	add	r7, sp, #0
 8009222:	6078      	str	r0, [r7, #4]
  /* Disable the UART Transmit Complete Interrupt */
  __HAL_UART_DISABLE_IT(huart, UART_IT_TC);
 8009224:	687b      	ldr	r3, [r7, #4]
 8009226:	681b      	ldr	r3, [r3, #0]
 8009228:	68da      	ldr	r2, [r3, #12]
 800922a:	687b      	ldr	r3, [r7, #4]
 800922c:	681b      	ldr	r3, [r3, #0]
 800922e:	f022 0240 	bic.w	r2, r2, #64	@ 0x40
 8009232:	60da      	str	r2, [r3, #12]

  /* Tx process is ended, restore huart->gState to Ready */
  huart->gState = HAL_UART_STATE_READY;
 8009234:	687b      	ldr	r3, [r7, #4]
 8009236:	2220      	movs	r2, #32
 8009238:	f883 2041 	strb.w	r2, [r3, #65]	@ 0x41
#if (USE_HAL_UART_REGISTER_CALLBACKS == 1)
  /*Call registered Tx complete callback*/
  huart->TxCpltCallback(huart);
#else
  /*Call legacy weak Tx complete callback*/
  HAL_UART_TxCpltCallback(huart);
 800923c:	6878      	ldr	r0, [r7, #4]
 800923e:	f7ff fe73 	bl	8008f28 <HAL_UART_TxCpltCallback>
#endif /* USE_HAL_UART_REGISTER_CALLBACKS */

  return HAL_OK;
 8009242:	2300      	movs	r3, #0
}
 8009244:	4618      	mov	r0, r3
 8009246:	3708      	adds	r7, #8
 8009248:	46bd      	mov	sp, r7
 800924a:	bd80      	pop	{r7, pc}

0800924c <UART_Receive_IT>:
  * @param  huart  Pointer to a UART_HandleTypeDef structure that contains
  *                the configuration information for the specified UART module.
  * @retval HAL status
  */
static HAL_StatusTypeDef UART_Receive_IT(UART_HandleTypeDef *huart)
{
 800924c:	b580      	push	{r7, lr}
 800924e:	b08c      	sub	sp, #48	@ 0x30
 8009250:	af00      	add	r7, sp, #0
 8009252:	6078      	str	r0, [r7, #4]
  uint8_t  *pdata8bits;
  uint16_t *pdata16bits;

  /* Check that a Rx process is ongoing */
  if (huart->RxState == HAL_UART_STATE_BUSY_RX)
 8009254:	687b      	ldr	r3, [r7, #4]
 8009256:	f893 3042 	ldrb.w	r3, [r3, #66]	@ 0x42
 800925a:	b2db      	uxtb	r3, r3
 800925c:	2b22      	cmp	r3, #34	@ 0x22
 800925e:	f040 80ae 	bne.w	80093be <UART_Receive_IT+0x172>
  {
    if ((huart->Init.WordLength == UART_WORDLENGTH_9B) && (huart->Init.Parity == UART_PARITY_NONE))
 8009262:	687b      	ldr	r3, [r7, #4]
 8009264:	689b      	ldr	r3, [r3, #8]
 8009266:	f5b3 5f80 	cmp.w	r3, #4096	@ 0x1000
 800926a:	d117      	bne.n	800929c <UART_Receive_IT+0x50>
 800926c:	687b      	ldr	r3, [r7, #4]
 800926e:	691b      	ldr	r3, [r3, #16]
 8009270:	2b00      	cmp	r3, #0
 8009272:	d113      	bne.n	800929c <UART_Receive_IT+0x50>
    {
      pdata8bits  = NULL;
 8009274:	2300      	movs	r3, #0
 8009276:	62fb      	str	r3, [r7, #44]	@ 0x2c
      pdata16bits = (uint16_t *) huart->pRxBuffPtr;
 8009278:	687b      	ldr	r3, [r7, #4]
 800927a:	6a9b      	ldr	r3, [r3, #40]	@ 0x28
 800927c:	62bb      	str	r3, [r7, #40]	@ 0x28
      *pdata16bits = (uint16_t)(huart->Instance->DR & (uint16_t)0x01FF);
 800927e:	687b      	ldr	r3, [r7, #4]
 8009280:	681b      	ldr	r3, [r3, #0]
 8009282:	685b      	ldr	r3, [r3, #4]
 8009284:	b29b      	uxth	r3, r3
 8009286:	f3c3 0308 	ubfx	r3, r3, #0, #9
 800928a:	b29a      	uxth	r2, r3
 800928c:	6abb      	ldr	r3, [r7, #40]	@ 0x28
 800928e:	801a      	strh	r2, [r3, #0]
      huart->pRxBuffPtr += 2U;
 8009290:	687b      	ldr	r3, [r7, #4]
 8009292:	6a9b      	ldr	r3, [r3, #40]	@ 0x28
 8009294:	1c9a      	adds	r2, r3, #2
 8009296:	687b      	ldr	r3, [r7, #4]
 8009298:	629a      	str	r2, [r3, #40]	@ 0x28
 800929a:	e026      	b.n	80092ea <UART_Receive_IT+0x9e>
    }
    else
    {
      pdata8bits = (uint8_t *) huart->pRxBuffPtr;
 800929c:	687b      	ldr	r3, [r7, #4]
 800929e:	6a9b      	ldr	r3, [r3, #40]	@ 0x28
 80092a0:	62fb      	str	r3, [r7, #44]	@ 0x2c
      pdata16bits  = NULL;
 80092a2:	2300      	movs	r3, #0
 80092a4:	62bb      	str	r3, [r7, #40]	@ 0x28

      if ((huart->Init.WordLength == UART_WORDLENGTH_9B) || ((huart->Init.WordLength == UART_WORDLENGTH_8B) && (huart->Init.Parity == UART_PARITY_NONE)))
 80092a6:	687b      	ldr	r3, [r7, #4]
 80092a8:	689b      	ldr	r3, [r3, #8]
 80092aa:	f5b3 5f80 	cmp.w	r3, #4096	@ 0x1000
 80092ae:	d007      	beq.n	80092c0 <UART_Receive_IT+0x74>
 80092b0:	687b      	ldr	r3, [r7, #4]
 80092b2:	689b      	ldr	r3, [r3, #8]
 80092b4:	2b00      	cmp	r3, #0
 80092b6:	d10a      	bne.n	80092ce <UART_Receive_IT+0x82>
 80092b8:	687b      	ldr	r3, [r7, #4]
 80092ba:	691b      	ldr	r3, [r3, #16]
 80092bc:	2b00      	cmp	r3, #0
 80092be:	d106      	bne.n	80092ce <UART_Receive_IT+0x82>
      {
        *pdata8bits = (uint8_t)(huart->Instance->DR & (uint8_t)0x00FF);
 80092c0:	687b      	ldr	r3, [r7, #4]
 80092c2:	681b      	ldr	r3, [r3, #0]
 80092c4:	685b      	ldr	r3, [r3, #4]
 80092c6:	b2da      	uxtb	r2, r3
 80092c8:	6afb      	ldr	r3, [r7, #44]	@ 0x2c
 80092ca:	701a      	strb	r2, [r3, #0]
 80092cc:	e008      	b.n	80092e0 <UART_Receive_IT+0x94>
      }
      else
      {
        *pdata8bits = (uint8_t)(huart->Instance->DR & (uint8_t)0x007F);
 80092ce:	687b      	ldr	r3, [r7, #4]
 80092d0:	681b      	ldr	r3, [r3, #0]
 80092d2:	685b      	ldr	r3, [r3, #4]
 80092d4:	b2db      	uxtb	r3, r3
 80092d6:	f003 037f 	and.w	r3, r3, #127	@ 0x7f
 80092da:	b2da      	uxtb	r2, r3
 80092dc:	6afb      	ldr	r3, [r7, #44]	@ 0x2c
 80092de:	701a      	strb	r2, [r3, #0]
      }
      huart->pRxBuffPtr += 1U;
 80092e0:	687b      	ldr	r3, [r7, #4]
 80092e2:	6a9b      	ldr	r3, [r3, #40]	@ 0x28
 80092e4:	1c5a      	adds	r2, r3, #1
 80092e6:	687b      	ldr	r3, [r7, #4]
 80092e8:	629a      	str	r2, [r3, #40]	@ 0x28
    }

    if (--huart->RxXferCount == 0U)
 80092ea:	687b      	ldr	r3, [r7, #4]
 80092ec:	8ddb      	ldrh	r3, [r3, #46]	@ 0x2e
 80092ee:	b29b      	uxth	r3, r3
 80092f0:	3b01      	subs	r3, #1
 80092f2:	b29b      	uxth	r3, r3
 80092f4:	687a      	ldr	r2, [r7, #4]
 80092f6:	4619      	mov	r1, r3
 80092f8:	85d1      	strh	r1, [r2, #46]	@ 0x2e
 80092fa:	2b00      	cmp	r3, #0
 80092fc:	d15d      	bne.n	80093ba <UART_Receive_IT+0x16e>
    {
      /* Disable the UART Data Register not empty Interrupt */
      __HAL_UART_DISABLE_IT(huart, UART_IT_RXNE);
 80092fe:	687b      	ldr	r3, [r7, #4]
 8009300:	681b      	ldr	r3, [r3, #0]
 8009302:	68da      	ldr	r2, [r3, #12]
 8009304:	687b      	ldr	r3, [r7, #4]
 8009306:	681b      	ldr	r3, [r3, #0]
 8009308:	f022 0220 	bic.w	r2, r2, #32
 800930c:	60da      	str	r2, [r3, #12]

      /* Disable the UART Parity Error Interrupt */
      __HAL_UART_DISABLE_IT(huart, UART_IT_PE);
 800930e:	687b      	ldr	r3, [r7, #4]
 8009310:	681b      	ldr	r3, [r3, #0]
 8009312:	68da      	ldr	r2, [r3, #12]
 8009314:	687b      	ldr	r3, [r7, #4]
 8009316:	681b      	ldr	r3, [r3, #0]
 8009318:	f422 7280 	bic.w	r2, r2, #256	@ 0x100
 800931c:	60da      	str	r2, [r3, #12]

      /* Disable the UART Error Interrupt: (Frame error, noise error, overrun error) */
      __HAL_UART_DISABLE_IT(huart, UART_IT_ERR);
 800931e:	687b      	ldr	r3, [r7, #4]
 8009320:	681b      	ldr	r3, [r3, #0]
 8009322:	695a      	ldr	r2, [r3, #20]
 8009324:	687b      	ldr	r3, [r7, #4]
 8009326:	681b      	ldr	r3, [r3, #0]
 8009328:	f022 0201 	bic.w	r2, r2, #1
 800932c:	615a      	str	r2, [r3, #20]

      /* Rx process is completed, restore huart->RxState to Ready */
      huart->RxState = HAL_UART_STATE_READY;
 800932e:	687b      	ldr	r3, [r7, #4]
 8009330:	2220      	movs	r2, #32
 8009332:	f883 2042 	strb.w	r2, [r3, #66]	@ 0x42

      /* Initialize type of RxEvent to Transfer Complete */
      huart->RxEventType = HAL_UART_RXEVENT_TC;
 8009336:	687b      	ldr	r3, [r7, #4]
 8009338:	2200      	movs	r2, #0
 800933a:	635a      	str	r2, [r3, #52]	@ 0x34

      /* Check current reception Mode :
         If Reception till IDLE event has been selected : */
      if (huart->ReceptionType == HAL_UART_RECEPTION_TOIDLE)
 800933c:	687b      	ldr	r3, [r7, #4]
 800933e:	6b1b      	ldr	r3, [r3, #48]	@ 0x30
 8009340:	2b01      	cmp	r3, #1
 8009342:	d135      	bne.n	80093b0 <UART_Receive_IT+0x164>
      {
        /* Set reception type to Standard */
        huart->ReceptionType = HAL_UART_RECEPTION_STANDARD;
 8009344:	687b      	ldr	r3, [r7, #4]
 8009346:	2200      	movs	r2, #0
 8009348:	631a      	str	r2, [r3, #48]	@ 0x30

        /* Disable IDLE interrupt */
        ATOMIC_CLEAR_BIT(huart->Instance->CR1, USART_CR1_IDLEIE);
 800934a:	687b      	ldr	r3, [r7, #4]
 800934c:	681b      	ldr	r3, [r3, #0]
 800934e:	330c      	adds	r3, #12
 8009350:	617b      	str	r3, [r7, #20]
   __ASM volatile ("ldrex %0, %1" : "=r" (result) : "Q" (*addr) );
 8009352:	697b      	ldr	r3, [r7, #20]
 8009354:	e853 3f00 	ldrex	r3, [r3]
 8009358:	613b      	str	r3, [r7, #16]
   return(result);
 800935a:	693b      	ldr	r3, [r7, #16]
 800935c:	f023 0310 	bic.w	r3, r3, #16
 8009360:	627b      	str	r3, [r7, #36]	@ 0x24
 8009362:	687b      	ldr	r3, [r7, #4]
 8009364:	681b      	ldr	r3, [r3, #0]
 8009366:	330c      	adds	r3, #12
 8009368:	6a7a      	ldr	r2, [r7, #36]	@ 0x24
 800936a:	623a      	str	r2, [r7, #32]
 800936c:	61fb      	str	r3, [r7, #28]
   __ASM volatile ("strex %0, %2, %1" : "=&r" (result), "=Q" (*addr) : "r" (value) );
 800936e:	69f9      	ldr	r1, [r7, #28]
 8009370:	6a3a      	ldr	r2, [r7, #32]
 8009372:	e841 2300 	strex	r3, r2, [r1]
 8009376:	61bb      	str	r3, [r7, #24]
   return(result);
 8009378:	69bb      	ldr	r3, [r7, #24]
 800937a:	2b00      	cmp	r3, #0
 800937c:	d1e5      	bne.n	800934a <UART_Receive_IT+0xfe>

        /* Check if IDLE flag is set */
        if (__HAL_UART_GET_FLAG(huart, UART_FLAG_IDLE))
 800937e:	687b      	ldr	r3, [r7, #4]
 8009380:	681b      	ldr	r3, [r3, #0]
 8009382:	681b      	ldr	r3, [r3, #0]
 8009384:	f003 0310 	and.w	r3, r3, #16
 8009388:	2b10      	cmp	r3, #16
 800938a:	d10a      	bne.n	80093a2 <UART_Receive_IT+0x156>
        {
          /* Clear IDLE flag in ISR */
          __HAL_UART_CLEAR_IDLEFLAG(huart);
 800938c:	2300      	movs	r3, #0
 800938e:	60fb      	str	r3, [r7, #12]
 8009390:	687b      	ldr	r3, [r7, #4]
 8009392:	681b      	ldr	r3, [r3, #0]
 8009394:	681b      	ldr	r3, [r3, #0]
 8009396:	60fb      	str	r3, [r7, #12]
 8009398:	687b      	ldr	r3, [r7, #4]
 800939a:	681b      	ldr	r3, [r3, #0]
 800939c:	685b      	ldr	r3, [r3, #4]
 800939e:	60fb      	str	r3, [r7, #12]
 80093a0:	68fb      	ldr	r3, [r7, #12]
#if (USE_HAL_UART_REGISTER_CALLBACKS == 1)
        /*Call registered Rx Event callback*/
        huart->RxEventCallback(huart, huart->RxXferSize);
#else
        /*Call legacy weak Rx Event callback*/
        HAL_UARTEx_RxEventCallback(huart, huart->RxXferSize);
 80093a2:	687b      	ldr	r3, [r7, #4]
 80093a4:	8d9b      	ldrh	r3, [r3, #44]	@ 0x2c
 80093a6:	4619      	mov	r1, r3
 80093a8:	6878      	ldr	r0, [r7, #4]
 80093aa:	f7ff fdd1 	bl	8008f50 <HAL_UARTEx_RxEventCallback>
 80093ae:	e002      	b.n	80093b6 <UART_Receive_IT+0x16a>
#if (USE_HAL_UART_REGISTER_CALLBACKS == 1)
        /*Call registered Rx complete callback*/
        huart->RxCpltCallback(huart);
#else
        /*Call legacy weak Rx complete callback*/
        HAL_UART_RxCpltCallback(huart);
 80093b0:	6878      	ldr	r0, [r7, #4]
 80093b2:	f7f9 fe3f 	bl	8003034 <HAL_UART_RxCpltCallback>
#endif /* USE_HAL_UART_REGISTER_CALLBACKS */
      }

      return HAL_OK;
 80093b6:	2300      	movs	r3, #0
 80093b8:	e002      	b.n	80093c0 <UART_Receive_IT+0x174>
    }
    return HAL_OK;
 80093ba:	2300      	movs	r3, #0
 80093bc:	e000      	b.n	80093c0 <UART_Receive_IT+0x174>
  }
  else
  {
    return HAL_BUSY;
 80093be:	2302      	movs	r3, #2
  }
}
 80093c0:	4618      	mov	r0, r3
 80093c2:	3730      	adds	r7, #48	@ 0x30
 80093c4:	46bd      	mov	sp, r7
 80093c6:	bd80      	pop	{r7, pc}

080093c8 <UART_SetConfig>:
  * @param  huart  Pointer to a UART_HandleTypeDef structure that contains
  *                the configuration information for the specified UART module.
  * @retval None
  */
static void UART_SetConfig(UART_HandleTypeDef *huart)
{
 80093c8:	e92d 4fb0 	stmdb	sp!, {r4, r5, r7, r8, r9, sl, fp, lr}
 80093cc:	b0c0      	sub	sp, #256	@ 0x100
 80093ce:	af00      	add	r7, sp, #0
 80093d0:	f8c7 00f4 	str.w	r0, [r7, #244]	@ 0xf4
  assert_param(IS_UART_MODE(huart->Init.Mode));

  /*-------------------------- USART CR2 Configuration -----------------------*/
  /* Configure the UART Stop Bits: Set STOP[13:12] bits
     according to huart->Init.StopBits value */
  MODIFY_REG(huart->Instance->CR2, USART_CR2_STOP, huart->Init.StopBits);
 80093d4:	f8d7 30f4 	ldr.w	r3, [r7, #244]	@ 0xf4
 80093d8:	681b      	ldr	r3, [r3, #0]
 80093da:	691b      	ldr	r3, [r3, #16]
 80093dc:	f423 5040 	bic.w	r0, r3, #12288	@ 0x3000
 80093e0:	f8d7 30f4 	ldr.w	r3, [r7, #244]	@ 0xf4
 80093e4:	68d9      	ldr	r1, [r3, #12]
 80093e6:	f8d7 30f4 	ldr.w	r3, [r7, #244]	@ 0xf4
 80093ea:	681a      	ldr	r2, [r3, #0]
 80093ec:	ea40 0301 	orr.w	r3, r0, r1
 80093f0:	6113      	str	r3, [r2, #16]
     Set the M bits according to huart->Init.WordLength value
     Set PCE and PS bits according to huart->Init.Parity value
     Set TE and RE bits according to huart->Init.Mode value
     Set OVER8 bit according to huart->Init.OverSampling value */

  tmpreg = (uint32_t)huart->Init.WordLength | huart->Init.Parity | huart->Init.Mode | huart->Init.OverSampling;
 80093f2:	f8d7 30f4 	ldr.w	r3, [r7, #244]	@ 0xf4
 80093f6:	689a      	ldr	r2, [r3, #8]
 80093f8:	f8d7 30f4 	ldr.w	r3, [r7, #244]	@ 0xf4
 80093fc:	691b      	ldr	r3, [r3, #16]
 80093fe:	431a      	orrs	r2, r3
 8009400:	f8d7 30f4 	ldr.w	r3, [r7, #244]	@ 0xf4
 8009404:	695b      	ldr	r3, [r3, #20]
 8009406:	431a      	orrs	r2, r3
 8009408:	f8d7 30f4 	ldr.w	r3, [r7, #244]	@ 0xf4
 800940c:	69db      	ldr	r3, [r3, #28]
 800940e:	4313      	orrs	r3, r2
 8009410:	f8c7 30f8 	str.w	r3, [r7, #248]	@ 0xf8
  MODIFY_REG(huart->Instance->CR1,
 8009414:	f8d7 30f4 	ldr.w	r3, [r7, #244]	@ 0xf4
 8009418:	681b      	ldr	r3, [r3, #0]
 800941a:	68db      	ldr	r3, [r3, #12]
 800941c:	f423 4116 	bic.w	r1, r3, #38400	@ 0x9600
 8009420:	f021 010c 	bic.w	r1, r1, #12
 8009424:	f8d7 30f4 	ldr.w	r3, [r7, #244]	@ 0xf4
 8009428:	681a      	ldr	r2, [r3, #0]
 800942a:	f8d7 30f8 	ldr.w	r3, [r7, #248]	@ 0xf8
 800942e:	430b      	orrs	r3, r1
 8009430:	60d3      	str	r3, [r2, #12]
             (uint32_t)(USART_CR1_M | USART_CR1_PCE | USART_CR1_PS | USART_CR1_TE | USART_CR1_RE | USART_CR1_OVER8),
             tmpreg);

  /*-------------------------- USART CR3 Configuration -----------------------*/
  /* Configure the UART HFC: Set CTSE and RTSE bits according to huart->Init.HwFlowCtl value */
  MODIFY_REG(huart->Instance->CR3, (USART_CR3_RTSE | USART_CR3_CTSE), huart->Init.HwFlowCtl);
 8009432:	f8d7 30f4 	ldr.w	r3, [r7, #244]	@ 0xf4
 8009436:	681b      	ldr	r3, [r3, #0]
 8009438:	695b      	ldr	r3, [r3, #20]
 800943a:	f423 7040 	bic.w	r0, r3, #768	@ 0x300
 800943e:	f8d7 30f4 	ldr.w	r3, [r7, #244]	@ 0xf4
 8009442:	6999      	ldr	r1, [r3, #24]
 8009444:	f8d7 30f4 	ldr.w	r3, [r7, #244]	@ 0xf4
 8009448:	681a      	ldr	r2, [r3, #0]
 800944a:	ea40 0301 	orr.w	r3, r0, r1
 800944e:	6153      	str	r3, [r2, #20]
    if ((huart->Instance == USART1) || (huart->Instance == USART6) || (huart->Instance == UART9) || (huart->Instance == UART10))
    {
      pclk = HAL_RCC_GetPCLK2Freq();
    }
#elif defined(USART6)
    if ((huart->Instance == USART1) || (huart->Instance == USART6))
 8009450:	f8d7 30f4 	ldr.w	r3, [r7, #244]	@ 0xf4
 8009454:	681a      	ldr	r2, [r3, #0]
 8009456:	4b8f      	ldr	r3, [pc, #572]	@ (8009694 <UART_SetConfig+0x2cc>)
 8009458:	429a      	cmp	r2, r3
 800945a:	d005      	beq.n	8009468 <UART_SetConfig+0xa0>
 800945c:	f8d7 30f4 	ldr.w	r3, [r7, #244]	@ 0xf4
 8009460:	681a      	ldr	r2, [r3, #0]
 8009462:	4b8d      	ldr	r3, [pc, #564]	@ (8009698 <UART_SetConfig+0x2d0>)
 8009464:	429a      	cmp	r2, r3
 8009466:	d104      	bne.n	8009472 <UART_SetConfig+0xaa>
    {
      pclk = HAL_RCC_GetPCLK2Freq();
 8009468:	f7fd fab0 	bl	80069cc <HAL_RCC_GetPCLK2Freq>
 800946c:	f8c7 00fc 	str.w	r0, [r7, #252]	@ 0xfc
 8009470:	e003      	b.n	800947a <UART_SetConfig+0xb2>
      pclk = HAL_RCC_GetPCLK2Freq();
    }
#endif /* USART6 */
    else
    {
      pclk = HAL_RCC_GetPCLK1Freq();
 8009472:	f7fd fa97 	bl	80069a4 <HAL_RCC_GetPCLK1Freq>
 8009476:	f8c7 00fc 	str.w	r0, [r7, #252]	@ 0xfc
    }
  /*-------------------------- USART BRR Configuration ---------------------*/
  if (huart->Init.OverSampling == UART_OVERSAMPLING_8)
 800947a:	f8d7 30f4 	ldr.w	r3, [r7, #244]	@ 0xf4
 800947e:	69db      	ldr	r3, [r3, #28]
 8009480:	f5b3 4f00 	cmp.w	r3, #32768	@ 0x8000
 8009484:	f040 810c 	bne.w	80096a0 <UART_SetConfig+0x2d8>
  {
    huart->Instance->BRR = UART_BRR_SAMPLING8(pclk, huart->Init.BaudRate);
 8009488:	f8d7 30fc 	ldr.w	r3, [r7, #252]	@ 0xfc
 800948c:	2200      	movs	r2, #0
 800948e:	f8c7 30e8 	str.w	r3, [r7, #232]	@ 0xe8
 8009492:	f8c7 20ec 	str.w	r2, [r7, #236]	@ 0xec
 8009496:	e9d7 453a 	ldrd	r4, r5, [r7, #232]	@ 0xe8
 800949a:	4622      	mov	r2, r4
 800949c:	462b      	mov	r3, r5
 800949e:	1891      	adds	r1, r2, r2
 80094a0:	65b9      	str	r1, [r7, #88]	@ 0x58
 80094a2:	415b      	adcs	r3, r3
 80094a4:	65fb      	str	r3, [r7, #92]	@ 0x5c
 80094a6:	e9d7 2316 	ldrd	r2, r3, [r7, #88]	@ 0x58
 80094aa:	4621      	mov	r1, r4
 80094ac:	eb12 0801 	adds.w	r8, r2, r1
 80094b0:	4629      	mov	r1, r5
 80094b2:	eb43 0901 	adc.w	r9, r3, r1
 80094b6:	f04f 0200 	mov.w	r2, #0
 80094ba:	f04f 0300 	mov.w	r3, #0
 80094be:	ea4f 03c9 	mov.w	r3, r9, lsl #3
 80094c2:	ea43 7358 	orr.w	r3, r3, r8, lsr #29
 80094c6:	ea4f 02c8 	mov.w	r2, r8, lsl #3
 80094ca:	4690      	mov	r8, r2
 80094cc:	4699      	mov	r9, r3
 80094ce:	4623      	mov	r3, r4
 80094d0:	eb18 0303 	adds.w	r3, r8, r3
 80094d4:	f8c7 30e0 	str.w	r3, [r7, #224]	@ 0xe0
 80094d8:	462b      	mov	r3, r5
 80094da:	eb49 0303 	adc.w	r3, r9, r3
 80094de:	f8c7 30e4 	str.w	r3, [r7, #228]	@ 0xe4
 80094e2:	f8d7 30f4 	ldr.w	r3, [r7, #244]	@ 0xf4
 80094e6:	685b      	ldr	r3, [r3, #4]
 80094e8:	2200      	movs	r2, #0
 80094ea:	f8c7 30d8 	str.w	r3, [r7, #216]	@ 0xd8
 80094ee:	f8c7 20dc 	str.w	r2, [r7, #220]	@ 0xdc
 80094f2:	e9d7 1236 	ldrd	r1, r2, [r7, #216]	@ 0xd8
 80094f6:	460b      	mov	r3, r1
 80094f8:	18db      	adds	r3, r3, r3
 80094fa:	653b      	str	r3, [r7, #80]	@ 0x50
 80094fc:	4613      	mov	r3, r2
 80094fe:	eb42 0303 	adc.w	r3, r2, r3
 8009502:	657b      	str	r3, [r7, #84]	@ 0x54
 8009504:	e9d7 2314 	ldrd	r2, r3, [r7, #80]	@ 0x50
 8009508:	e9d7 0138 	ldrd	r0, r1, [r7, #224]	@ 0xe0
 800950c:	f7f6 fe76 	bl	80001fc <__aeabi_uldivmod>
 8009510:	4602      	mov	r2, r0
 8009512:	460b      	mov	r3, r1
 8009514:	4b61      	ldr	r3, [pc, #388]	@ (800969c <UART_SetConfig+0x2d4>)
 8009516:	fba3 2302 	umull	r2, r3, r3, r2
 800951a:	095b      	lsrs	r3, r3, #5
 800951c:	011c      	lsls	r4, r3, #4
 800951e:	f8d7 30fc 	ldr.w	r3, [r7, #252]	@ 0xfc
 8009522:	2200      	movs	r2, #0
 8009524:	f8c7 30d0 	str.w	r3, [r7, #208]	@ 0xd0
 8009528:	f8c7 20d4 	str.w	r2, [r7, #212]	@ 0xd4
 800952c:	e9d7 8934 	ldrd	r8, r9, [r7, #208]	@ 0xd0
 8009530:	4642      	mov	r2, r8
 8009532:	464b      	mov	r3, r9
 8009534:	1891      	adds	r1, r2, r2
 8009536:	64b9      	str	r1, [r7, #72]	@ 0x48
 8009538:	415b      	adcs	r3, r3
 800953a:	64fb      	str	r3, [r7, #76]	@ 0x4c
 800953c:	e9d7 2312 	ldrd	r2, r3, [r7, #72]	@ 0x48
 8009540:	4641      	mov	r1, r8
 8009542:	eb12 0a01 	adds.w	sl, r2, r1
 8009546:	4649      	mov	r1, r9
 8009548:	eb43 0b01 	adc.w	fp, r3, r1
 800954c:	f04f 0200 	mov.w	r2, #0
 8009550:	f04f 0300 	mov.w	r3, #0
 8009554:	ea4f 03cb 	mov.w	r3, fp, lsl #3
 8009558:	ea43 735a 	orr.w	r3, r3, sl, lsr #29
 800955c:	ea4f 02ca 	mov.w	r2, sl, lsl #3
 8009560:	4692      	mov	sl, r2
 8009562:	469b      	mov	fp, r3
 8009564:	4643      	mov	r3, r8
 8009566:	eb1a 0303 	adds.w	r3, sl, r3
 800956a:	f8c7 30c8 	str.w	r3, [r7, #200]	@ 0xc8
 800956e:	464b      	mov	r3, r9
 8009570:	eb4b 0303 	adc.w	r3, fp, r3
 8009574:	f8c7 30cc 	str.w	r3, [r7, #204]	@ 0xcc
 8009578:	f8d7 30f4 	ldr.w	r3, [r7, #244]	@ 0xf4
 800957c:	685b      	ldr	r3, [r3, #4]
 800957e:	2200      	movs	r2, #0
 8009580:	f8c7 30c0 	str.w	r3, [r7, #192]	@ 0xc0
 8009584:	f8c7 20c4 	str.w	r2, [r7, #196]	@ 0xc4
 8009588:	e9d7 1230 	ldrd	r1, r2, [r7, #192]	@ 0xc0
 800958c:	460b      	mov	r3, r1
 800958e:	18db      	adds	r3, r3, r3
 8009590:	643b      	str	r3, [r7, #64]	@ 0x40
 8009592:	4613      	mov	r3, r2
 8009594:	eb42 0303 	adc.w	r3, r2, r3
 8009598:	647b      	str	r3, [r7, #68]	@ 0x44
 800959a:	e9d7 2310 	ldrd	r2, r3, [r7, #64]	@ 0x40
 800959e:	e9d7 0132 	ldrd	r0, r1, [r7, #200]	@ 0xc8
 80095a2:	f7f6 fe2b 	bl	80001fc <__aeabi_uldivmod>
 80095a6:	4602      	mov	r2, r0
 80095a8:	460b      	mov	r3, r1
 80095aa:	4611      	mov	r1, r2
 80095ac:	4b3b      	ldr	r3, [pc, #236]	@ (800969c <UART_SetConfig+0x2d4>)
 80095ae:	fba3 2301 	umull	r2, r3, r3, r1
 80095b2:	095b      	lsrs	r3, r3, #5
 80095b4:	2264      	movs	r2, #100	@ 0x64
 80095b6:	fb02 f303 	mul.w	r3, r2, r3
 80095ba:	1acb      	subs	r3, r1, r3
 80095bc:	00db      	lsls	r3, r3, #3
 80095be:	f103 0232 	add.w	r2, r3, #50	@ 0x32
 80095c2:	4b36      	ldr	r3, [pc, #216]	@ (800969c <UART_SetConfig+0x2d4>)
 80095c4:	fba3 2302 	umull	r2, r3, r3, r2
 80095c8:	095b      	lsrs	r3, r3, #5
 80095ca:	005b      	lsls	r3, r3, #1
 80095cc:	f403 73f8 	and.w	r3, r3, #496	@ 0x1f0
 80095d0:	441c      	add	r4, r3
 80095d2:	f8d7 30fc 	ldr.w	r3, [r7, #252]	@ 0xfc
 80095d6:	2200      	movs	r2, #0
 80095d8:	f8c7 30b8 	str.w	r3, [r7, #184]	@ 0xb8
 80095dc:	f8c7 20bc 	str.w	r2, [r7, #188]	@ 0xbc
 80095e0:	e9d7 892e 	ldrd	r8, r9, [r7, #184]	@ 0xb8
 80095e4:	4642      	mov	r2, r8
 80095e6:	464b      	mov	r3, r9
 80095e8:	1891      	adds	r1, r2, r2
 80095ea:	63b9      	str	r1, [r7, #56]	@ 0x38
 80095ec:	415b      	adcs	r3, r3
 80095ee:	63fb      	str	r3, [r7, #60]	@ 0x3c
 80095f0:	e9d7 230e 	ldrd	r2, r3, [r7, #56]	@ 0x38
 80095f4:	4641      	mov	r1, r8
 80095f6:	1851      	adds	r1, r2, r1
 80095f8:	6339      	str	r1, [r7, #48]	@ 0x30
 80095fa:	4649      	mov	r1, r9
 80095fc:	414b      	adcs	r3, r1
 80095fe:	637b      	str	r3, [r7, #52]	@ 0x34
 8009600:	f04f 0200 	mov.w	r2, #0
 8009604:	f04f 0300 	mov.w	r3, #0
 8009608:	e9d7 ab0c 	ldrd	sl, fp, [r7, #48]	@ 0x30
 800960c:	4659      	mov	r1, fp
 800960e:	00cb      	lsls	r3, r1, #3
 8009610:	4651      	mov	r1, sl
 8009612:	ea43 7351 	orr.w	r3, r3, r1, lsr #29
 8009616:	4651      	mov	r1, sl
 8009618:	00ca      	lsls	r2, r1, #3
 800961a:	4610      	mov	r0, r2
 800961c:	4619      	mov	r1, r3
 800961e:	4603      	mov	r3, r0
 8009620:	4642      	mov	r2, r8
 8009622:	189b      	adds	r3, r3, r2
 8009624:	f8c7 30b0 	str.w	r3, [r7, #176]	@ 0xb0
 8009628:	464b      	mov	r3, r9
 800962a:	460a      	mov	r2, r1
 800962c:	eb42 0303 	adc.w	r3, r2, r3
 8009630:	f8c7 30b4 	str.w	r3, [r7, #180]	@ 0xb4
 8009634:	f8d7 30f4 	ldr.w	r3, [r7, #244]	@ 0xf4
 8009638:	685b      	ldr	r3, [r3, #4]
 800963a:	2200      	movs	r2, #0
 800963c:	f8c7 30a8 	str.w	r3, [r7, #168]	@ 0xa8
 8009640:	f8c7 20ac 	str.w	r2, [r7, #172]	@ 0xac
 8009644:	e9d7 122a 	ldrd	r1, r2, [r7, #168]	@ 0xa8
 8009648:	460b      	mov	r3, r1
 800964a:	18db      	adds	r3, r3, r3
 800964c:	62bb      	str	r3, [r7, #40]	@ 0x28
 800964e:	4613      	mov	r3, r2
 8009650:	eb42 0303 	adc.w	r3, r2, r3
 8009654:	62fb      	str	r3, [r7, #44]	@ 0x2c
 8009656:	e9d7 230a 	ldrd	r2, r3, [r7, #40]	@ 0x28
 800965a:	e9d7 012c 	ldrd	r0, r1, [r7, #176]	@ 0xb0
 800965e:	f7f6 fdcd 	bl	80001fc <__aeabi_uldivmod>
 8009662:	4602      	mov	r2, r0
 8009664:	460b      	mov	r3, r1
 8009666:	4b0d      	ldr	r3, [pc, #52]	@ (800969c <UART_SetConfig+0x2d4>)
 8009668:	fba3 1302 	umull	r1, r3, r3, r2
 800966c:	095b      	lsrs	r3, r3, #5
 800966e:	2164      	movs	r1, #100	@ 0x64
 8009670:	fb01 f303 	mul.w	r3, r1, r3
 8009674:	1ad3      	subs	r3, r2, r3
 8009676:	00db      	lsls	r3, r3, #3
 8009678:	3332      	adds	r3, #50	@ 0x32
 800967a:	4a08      	ldr	r2, [pc, #32]	@ (800969c <UART_SetConfig+0x2d4>)
 800967c:	fba2 2303 	umull	r2, r3, r2, r3
 8009680:	095b      	lsrs	r3, r3, #5
 8009682:	f003 0207 	and.w	r2, r3, #7
 8009686:	f8d7 30f4 	ldr.w	r3, [r7, #244]	@ 0xf4
 800968a:	681b      	ldr	r3, [r3, #0]
 800968c:	4422      	add	r2, r4
 800968e:	609a      	str	r2, [r3, #8]
  }
  else
  {
    huart->Instance->BRR = UART_BRR_SAMPLING16(pclk, huart->Init.BaudRate);
  }
}
 8009690:	e106      	b.n	80098a0 <UART_SetConfig+0x4d8>
 8009692:	bf00      	nop
 8009694:	40011000 	.word	0x40011000
 8009698:	40011400 	.word	0x40011400
 800969c:	51eb851f 	.word	0x51eb851f
    huart->Instance->BRR = UART_BRR_SAMPLING16(pclk, huart->Init.BaudRate);
 80096a0:	f8d7 30fc 	ldr.w	r3, [r7, #252]	@ 0xfc
 80096a4:	2200      	movs	r2, #0
 80096a6:	f8c7 30a0 	str.w	r3, [r7, #160]	@ 0xa0
 80096aa:	f8c7 20a4 	str.w	r2, [r7, #164]	@ 0xa4
 80096ae:	e9d7 8928 	ldrd	r8, r9, [r7, #160]	@ 0xa0
 80096b2:	4642      	mov	r2, r8
 80096b4:	464b      	mov	r3, r9
 80096b6:	1891      	adds	r1, r2, r2
 80096b8:	6239      	str	r1, [r7, #32]
 80096ba:	415b      	adcs	r3, r3
 80096bc:	627b      	str	r3, [r7, #36]	@ 0x24
 80096be:	e9d7 2308 	ldrd	r2, r3, [r7, #32]
 80096c2:	4641      	mov	r1, r8
 80096c4:	1854      	adds	r4, r2, r1
 80096c6:	4649      	mov	r1, r9
 80096c8:	eb43 0501 	adc.w	r5, r3, r1
 80096cc:	f04f 0200 	mov.w	r2, #0
 80096d0:	f04f 0300 	mov.w	r3, #0
 80096d4:	00eb      	lsls	r3, r5, #3
 80096d6:	ea43 7354 	orr.w	r3, r3, r4, lsr #29
 80096da:	00e2      	lsls	r2, r4, #3
 80096dc:	4614      	mov	r4, r2
 80096de:	461d      	mov	r5, r3
 80096e0:	4643      	mov	r3, r8
 80096e2:	18e3      	adds	r3, r4, r3
 80096e4:	f8c7 3098 	str.w	r3, [r7, #152]	@ 0x98
 80096e8:	464b      	mov	r3, r9
 80096ea:	eb45 0303 	adc.w	r3, r5, r3
 80096ee:	f8c7 309c 	str.w	r3, [r7, #156]	@ 0x9c
 80096f2:	f8d7 30f4 	ldr.w	r3, [r7, #244]	@ 0xf4
 80096f6:	685b      	ldr	r3, [r3, #4]
 80096f8:	2200      	movs	r2, #0
 80096fa:	f8c7 3090 	str.w	r3, [r7, #144]	@ 0x90
 80096fe:	f8c7 2094 	str.w	r2, [r7, #148]	@ 0x94
 8009702:	f04f 0200 	mov.w	r2, #0
 8009706:	f04f 0300 	mov.w	r3, #0
 800970a:	e9d7 4524 	ldrd	r4, r5, [r7, #144]	@ 0x90
 800970e:	4629      	mov	r1, r5
 8009710:	008b      	lsls	r3, r1, #2
 8009712:	4621      	mov	r1, r4
 8009714:	ea43 7391 	orr.w	r3, r3, r1, lsr #30
 8009718:	4621      	mov	r1, r4
 800971a:	008a      	lsls	r2, r1, #2
 800971c:	e9d7 0126 	ldrd	r0, r1, [r7, #152]	@ 0x98
 8009720:	f7f6 fd6c 	bl	80001fc <__aeabi_uldivmod>
 8009724:	4602      	mov	r2, r0
 8009726:	460b      	mov	r3, r1
 8009728:	4b60      	ldr	r3, [pc, #384]	@ (80098ac <UART_SetConfig+0x4e4>)
 800972a:	fba3 2302 	umull	r2, r3, r3, r2
 800972e:	095b      	lsrs	r3, r3, #5
 8009730:	011c      	lsls	r4, r3, #4
 8009732:	f8d7 30fc 	ldr.w	r3, [r7, #252]	@ 0xfc
 8009736:	2200      	movs	r2, #0
 8009738:	f8c7 3088 	str.w	r3, [r7, #136]	@ 0x88
 800973c:	f8c7 208c 	str.w	r2, [r7, #140]	@ 0x8c
 8009740:	e9d7 8922 	ldrd	r8, r9, [r7, #136]	@ 0x88
 8009744:	4642      	mov	r2, r8
 8009746:	464b      	mov	r3, r9
 8009748:	1891      	adds	r1, r2, r2
 800974a:	61b9      	str	r1, [r7, #24]
 800974c:	415b      	adcs	r3, r3
 800974e:	61fb      	str	r3, [r7, #28]
 8009750:	e9d7 2306 	ldrd	r2, r3, [r7, #24]
 8009754:	4641      	mov	r1, r8
 8009756:	1851      	adds	r1, r2, r1
 8009758:	6139      	str	r1, [r7, #16]
 800975a:	4649      	mov	r1, r9
 800975c:	414b      	adcs	r3, r1
 800975e:	617b      	str	r3, [r7, #20]
 8009760:	f04f 0200 	mov.w	r2, #0
 8009764:	f04f 0300 	mov.w	r3, #0
 8009768:	e9d7 ab04 	ldrd	sl, fp, [r7, #16]
 800976c:	4659      	mov	r1, fp
 800976e:	00cb      	lsls	r3, r1, #3
 8009770:	4651      	mov	r1, sl
 8009772:	ea43 7351 	orr.w	r3, r3, r1, lsr #29
 8009776:	4651      	mov	r1, sl
 8009778:	00ca      	lsls	r2, r1, #3
 800977a:	4610      	mov	r0, r2
 800977c:	4619      	mov	r1, r3
 800977e:	4603      	mov	r3, r0
 8009780:	4642      	mov	r2, r8
 8009782:	189b      	adds	r3, r3, r2
 8009784:	f8c7 3080 	str.w	r3, [r7, #128]	@ 0x80
 8009788:	464b      	mov	r3, r9
 800978a:	460a      	mov	r2, r1
 800978c:	eb42 0303 	adc.w	r3, r2, r3
 8009790:	f8c7 3084 	str.w	r3, [r7, #132]	@ 0x84
 8009794:	f8d7 30f4 	ldr.w	r3, [r7, #244]	@ 0xf4
 8009798:	685b      	ldr	r3, [r3, #4]
 800979a:	2200      	movs	r2, #0
 800979c:	67bb      	str	r3, [r7, #120]	@ 0x78
 800979e:	67fa      	str	r2, [r7, #124]	@ 0x7c
 80097a0:	f04f 0200 	mov.w	r2, #0
 80097a4:	f04f 0300 	mov.w	r3, #0
 80097a8:	e9d7 891e 	ldrd	r8, r9, [r7, #120]	@ 0x78
 80097ac:	4649      	mov	r1, r9
 80097ae:	008b      	lsls	r3, r1, #2
 80097b0:	4641      	mov	r1, r8
 80097b2:	ea43 7391 	orr.w	r3, r3, r1, lsr #30
 80097b6:	4641      	mov	r1, r8
 80097b8:	008a      	lsls	r2, r1, #2
 80097ba:	e9d7 0120 	ldrd	r0, r1, [r7, #128]	@ 0x80
 80097be:	f7f6 fd1d 	bl	80001fc <__aeabi_uldivmod>
 80097c2:	4602      	mov	r2, r0
 80097c4:	460b      	mov	r3, r1
 80097c6:	4611      	mov	r1, r2
 80097c8:	4b38      	ldr	r3, [pc, #224]	@ (80098ac <UART_SetConfig+0x4e4>)
 80097ca:	fba3 2301 	umull	r2, r3, r3, r1
 80097ce:	095b      	lsrs	r3, r3, #5
 80097d0:	2264      	movs	r2, #100	@ 0x64
 80097d2:	fb02 f303 	mul.w	r3, r2, r3
 80097d6:	1acb      	subs	r3, r1, r3
 80097d8:	011b      	lsls	r3, r3, #4
 80097da:	3332      	adds	r3, #50	@ 0x32
 80097dc:	4a33      	ldr	r2, [pc, #204]	@ (80098ac <UART_SetConfig+0x4e4>)
 80097de:	fba2 2303 	umull	r2, r3, r2, r3
 80097e2:	095b      	lsrs	r3, r3, #5
 80097e4:	f003 03f0 	and.w	r3, r3, #240	@ 0xf0
 80097e8:	441c      	add	r4, r3
 80097ea:	f8d7 30fc 	ldr.w	r3, [r7, #252]	@ 0xfc
 80097ee:	2200      	movs	r2, #0
 80097f0:	673b      	str	r3, [r7, #112]	@ 0x70
 80097f2:	677a      	str	r2, [r7, #116]	@ 0x74
 80097f4:	e9d7 891c 	ldrd	r8, r9, [r7, #112]	@ 0x70
 80097f8:	4642      	mov	r2, r8
 80097fa:	464b      	mov	r3, r9
 80097fc:	1891      	adds	r1, r2, r2
 80097fe:	60b9      	str	r1, [r7, #8]
 8009800:	415b      	adcs	r3, r3
 8009802:	60fb      	str	r3, [r7, #12]
 8009804:	e9d7 2302 	ldrd	r2, r3, [r7, #8]
 8009808:	4641      	mov	r1, r8
 800980a:	1851      	adds	r1, r2, r1
 800980c:	6039      	str	r1, [r7, #0]
 800980e:	4649      	mov	r1, r9
 8009810:	414b      	adcs	r3, r1
 8009812:	607b      	str	r3, [r7, #4]
 8009814:	f04f 0200 	mov.w	r2, #0
 8009818:	f04f 0300 	mov.w	r3, #0
 800981c:	e9d7 ab00 	ldrd	sl, fp, [r7]
 8009820:	4659      	mov	r1, fp
 8009822:	00cb      	lsls	r3, r1, #3
 8009824:	4651      	mov	r1, sl
 8009826:	ea43 7351 	orr.w	r3, r3, r1, lsr #29
 800982a:	4651      	mov	r1, sl
 800982c:	00ca      	lsls	r2, r1, #3
 800982e:	4610      	mov	r0, r2
 8009830:	4619      	mov	r1, r3
 8009832:	4603      	mov	r3, r0
 8009834:	4642      	mov	r2, r8
 8009836:	189b      	adds	r3, r3, r2
 8009838:	66bb      	str	r3, [r7, #104]	@ 0x68
 800983a:	464b      	mov	r3, r9
 800983c:	460a      	mov	r2, r1
 800983e:	eb42 0303 	adc.w	r3, r2, r3
 8009842:	66fb      	str	r3, [r7, #108]	@ 0x6c
 8009844:	f8d7 30f4 	ldr.w	r3, [r7, #244]	@ 0xf4
 8009848:	685b      	ldr	r3, [r3, #4]
 800984a:	2200      	movs	r2, #0
 800984c:	663b      	str	r3, [r7, #96]	@ 0x60
 800984e:	667a      	str	r2, [r7, #100]	@ 0x64
 8009850:	f04f 0200 	mov.w	r2, #0
 8009854:	f04f 0300 	mov.w	r3, #0
 8009858:	e9d7 8918 	ldrd	r8, r9, [r7, #96]	@ 0x60
 800985c:	4649      	mov	r1, r9
 800985e:	008b      	lsls	r3, r1, #2
 8009860:	4641      	mov	r1, r8
 8009862:	ea43 7391 	orr.w	r3, r3, r1, lsr #30
 8009866:	4641      	mov	r1, r8
 8009868:	008a      	lsls	r2, r1, #2
 800986a:	e9d7 011a 	ldrd	r0, r1, [r7, #104]	@ 0x68
 800986e:	f7f6 fcc5 	bl	80001fc <__aeabi_uldivmod>
 8009872:	4602      	mov	r2, r0
 8009874:	460b      	mov	r3, r1
 8009876:	4b0d      	ldr	r3, [pc, #52]	@ (80098ac <UART_SetConfig+0x4e4>)
 8009878:	fba3 1302 	umull	r1, r3, r3, r2
 800987c:	095b      	lsrs	r3, r3, #5
 800987e:	2164      	movs	r1, #100	@ 0x64
 8009880:	fb01 f303 	mul.w	r3, r1, r3
 8009884:	1ad3      	subs	r3, r2, r3
 8009886:	011b      	lsls	r3, r3, #4
 8009888:	3332      	adds	r3, #50	@ 0x32
 800988a:	4a08      	ldr	r2, [pc, #32]	@ (80098ac <UART_SetConfig+0x4e4>)
 800988c:	fba2 2303 	umull	r2, r3, r2, r3
 8009890:	095b      	lsrs	r3, r3, #5
 8009892:	f003 020f 	and.w	r2, r3, #15
 8009896:	f8d7 30f4 	ldr.w	r3, [r7, #244]	@ 0xf4
 800989a:	681b      	ldr	r3, [r3, #0]
 800989c:	4422      	add	r2, r4
 800989e:	609a      	str	r2, [r3, #8]
}
 80098a0:	bf00      	nop
 80098a2:	f507 7780 	add.w	r7, r7, #256	@ 0x100
 80098a6:	46bd      	mov	sp, r7
 80098a8:	e8bd 8fb0 	ldmia.w	sp!, {r4, r5, r7, r8, r9, sl, fp, pc}
 80098ac:	51eb851f 	.word	0x51eb851f

080098b0 <memset>:
 80098b0:	4402      	add	r2, r0
 80098b2:	4603      	mov	r3, r0
 80098b4:	4293      	cmp	r3, r2
 80098b6:	d100      	bne.n	80098ba <memset+0xa>
 80098b8:	4770      	bx	lr
 80098ba:	f803 1b01 	strb.w	r1, [r3], #1
 80098be:	e7f9      	b.n	80098b4 <memset+0x4>

080098c0 <__libc_init_array>:
 80098c0:	b570      	push	{r4, r5, r6, lr}
 80098c2:	4d0d      	ldr	r5, [pc, #52]	@ (80098f8 <__libc_init_array+0x38>)
 80098c4:	4c0d      	ldr	r4, [pc, #52]	@ (80098fc <__libc_init_array+0x3c>)
 80098c6:	1b64      	subs	r4, r4, r5
 80098c8:	10a4      	asrs	r4, r4, #2
 80098ca:	2600      	movs	r6, #0
 80098cc:	42a6      	cmp	r6, r4
 80098ce:	d109      	bne.n	80098e4 <__libc_init_array+0x24>
 80098d0:	4d0b      	ldr	r5, [pc, #44]	@ (8009900 <__libc_init_array+0x40>)
 80098d2:	4c0c      	ldr	r4, [pc, #48]	@ (8009904 <__libc_init_array+0x44>)
 80098d4:	f000 f818 	bl	8009908 <_init>
 80098d8:	1b64      	subs	r4, r4, r5
 80098da:	10a4      	asrs	r4, r4, #2
 80098dc:	2600      	movs	r6, #0
 80098de:	42a6      	cmp	r6, r4
 80098e0:	d105      	bne.n	80098ee <__libc_init_array+0x2e>
 80098e2:	bd70      	pop	{r4, r5, r6, pc}
 80098e4:	f855 3b04 	ldr.w	r3, [r5], #4
 80098e8:	4798      	blx	r3
 80098ea:	3601      	adds	r6, #1
 80098ec:	e7ee      	b.n	80098cc <__libc_init_array+0xc>
 80098ee:	f855 3b04 	ldr.w	r3, [r5], #4
 80098f2:	4798      	blx	r3
 80098f4:	3601      	adds	r6, #1
 80098f6:	e7f2      	b.n	80098de <__libc_init_array+0x1e>
 80098f8:	080099e0 	.word	0x080099e0
 80098fc:	080099e0 	.word	0x080099e0
 8009900:	080099e0 	.word	0x080099e0
 8009904:	080099e4 	.word	0x080099e4

08009908 <_init>:
 8009908:	b5f8      	push	{r3, r4, r5, r6, r7, lr}
 800990a:	bf00      	nop
 800990c:	bcf8      	pop	{r3, r4, r5, r6, r7}
 800990e:	bc08      	pop	{r3}
 8009910:	469e      	mov	lr, r3
 8009912:	4770      	bx	lr

08009914 <_fini>:
 8009914:	b5f8      	push	{r3, r4, r5, r6, r7, lr}
 8009916:	bf00      	nop
 8009918:	bcf8      	pop	{r3, r4, r5, r6, r7}
 800991a:	bc08      	pop	{r3}
 800991c:	469e      	mov	lr, r3
 800991e:	4770      	bx	lr
