
AuroraV_Payload_F439.elf:     file format elf32-littlearm

Sections:
Idx Name          Size      VMA       LMA       File off  Algn
  0 .isr_vector   000001ac  08000000  08000000  00010000  2**0
                  CONTENTS, ALLOC, LOAD, READONLY, DATA
  1 .text         00008354  080001ac  080001ac  000101ac  2**2
                  CONTENTS, ALLOC, LOAD, READONLY, CODE
  2 .rodata       000000b8  08008500  08008500  00018500  2**2
                  CONTENTS, ALLOC, LOAD, READONLY, DATA
  3 .ARM.extab    00000000  080085b8  080085b8  00020028  2**0
                  CONTENTS
  4 .ARM          00000008  080085b8  080085b8  000185b8  2**2
                  CONTENTS, ALLOC, LOAD, READONLY, DATA
  5 .preinit_array 00000000  080085c0  080085c0  00020028  2**0
                  CONTENTS, ALLOC, LOAD, DATA
  6 .init_array   00000004  080085c0  080085c0  000185c0  2**2
                  CONTENTS, ALLOC, LOAD, DATA
  7 .fini_array   00000004  080085c4  080085c4  000185c4  2**2
                  CONTENTS, ALLOC, LOAD, DATA
  8 .data         00000028  20000000  080085c8  00020000  2**2
                  CONTENTS, ALLOC, LOAD, DATA
  9 .ccmram       00000000  10000000  10000000  00020028  2**0
                  CONTENTS
 10 .bss          000005e0  20000028  20000028  00020028  2**2
                  ALLOC
 11 ._user_heap_stack 00000600  20000608  20000608  00020028  2**0
                  ALLOC
 12 .ARM.attributes 00000030  00000000  00000000  00020028  2**0
                  CONTENTS, READONLY
 13 .comment      00000043  00000000  00000000  00020058  2**0
                  CONTENTS, READONLY
 14 .debug_info   0001be84  00000000  00000000  0002009b  2**0
                  CONTENTS, READONLY, DEBUGGING, OCTETS
 15 .debug_abbrev 00003ce8  00000000  00000000  0003bf1f  2**0
                  CONTENTS, READONLY, DEBUGGING, OCTETS
 16 .debug_aranges 000016a0  00000000  00000000  0003fc08  2**3
                  CONTENTS, READONLY, DEBUGGING, OCTETS
 17 .debug_rnglists 0000119e  00000000  00000000  000412a8  2**0
                  CONTENTS, READONLY, DEBUGGING, OCTETS
 18 .debug_macro  00027b28  00000000  00000000  00042446  2**0
                  CONTENTS, READONLY, DEBUGGING, OCTETS
 19 .debug_line   0001d0dc  00000000  00000000  00069f6e  2**0
                  CONTENTS, READONLY, DEBUGGING, OCTETS
 20 .debug_str    000e9cba  00000000  00000000  0008704a  2**0
                  CONTENTS, READONLY, DEBUGGING, OCTETS
 21 .debug_frame  00005ea0  00000000  00000000  00170d04  2**2
                  CONTENTS, READONLY, DEBUGGING, OCTETS
 22 .debug_line_str 00000060  00000000  00000000  00176ba4  2**0
                  CONTENTS, READONLY, DEBUGGING, OCTETS

Disassembly of section .text:

080001ac <__do_global_dtors_aux>:
 80001ac:	b510      	push	{r4, lr}
 80001ae:	4c05      	ldr	r4, [pc, #20]	; (80001c4 <__do_global_dtors_aux+0x18>)
 80001b0:	7823      	ldrb	r3, [r4, #0]
 80001b2:	b933      	cbnz	r3, 80001c2 <__do_global_dtors_aux+0x16>
 80001b4:	4b04      	ldr	r3, [pc, #16]	; (80001c8 <__do_global_dtors_aux+0x1c>)
 80001b6:	b113      	cbz	r3, 80001be <__do_global_dtors_aux+0x12>
 80001b8:	4804      	ldr	r0, [pc, #16]	; (80001cc <__do_global_dtors_aux+0x20>)
 80001ba:	f3af 8000 	nop.w
 80001be:	2301      	movs	r3, #1
 80001c0:	7023      	strb	r3, [r4, #0]
 80001c2:	bd10      	pop	{r4, pc}
 80001c4:	20000028 	.word	0x20000028
 80001c8:	00000000 	.word	0x00000000
 80001cc:	080084e8 	.word	0x080084e8

080001d0 <frame_dummy>:
 80001d0:	b508      	push	{r3, lr}
 80001d2:	4b03      	ldr	r3, [pc, #12]	; (80001e0 <frame_dummy+0x10>)
 80001d4:	b11b      	cbz	r3, 80001de <frame_dummy+0xe>
 80001d6:	4903      	ldr	r1, [pc, #12]	; (80001e4 <frame_dummy+0x14>)
 80001d8:	4803      	ldr	r0, [pc, #12]	; (80001e8 <frame_dummy+0x18>)
 80001da:	f3af 8000 	nop.w
 80001de:	bd08      	pop	{r3, pc}
 80001e0:	00000000 	.word	0x00000000
 80001e4:	2000002c 	.word	0x2000002c
 80001e8:	080084e8 	.word	0x080084e8

080001ec <strlen>:
 80001ec:	4603      	mov	r3, r0
 80001ee:	f813 2b01 	ldrb.w	r2, [r3], #1
 80001f2:	2a00      	cmp	r2, #0
 80001f4:	d1fb      	bne.n	80001ee <strlen+0x2>
 80001f6:	1a18      	subs	r0, r3, r0
 80001f8:	3801      	subs	r0, #1
 80001fa:	4770      	bx	lr

080001fc <__aeabi_uldivmod>:
 80001fc:	b953      	cbnz	r3, 8000214 <__aeabi_uldivmod+0x18>
 80001fe:	b94a      	cbnz	r2, 8000214 <__aeabi_uldivmod+0x18>
 8000200:	2900      	cmp	r1, #0
 8000202:	bf08      	it	eq
 8000204:	2800      	cmpeq	r0, #0
 8000206:	bf1c      	itt	ne
 8000208:	f04f 31ff 	movne.w	r1, #4294967295	; 0xffffffff
 800020c:	f04f 30ff 	movne.w	r0, #4294967295	; 0xffffffff
 8000210:	f000 b970 	b.w	80004f4 <__aeabi_idiv0>
 8000214:	f1ad 0c08 	sub.w	ip, sp, #8
 8000218:	e96d ce04 	strd	ip, lr, [sp, #-16]!
 800021c:	f000 f806 	bl	800022c <__udivmoddi4>
 8000220:	f8dd e004 	ldr.w	lr, [sp, #4]
 8000224:	e9dd 2302 	ldrd	r2, r3, [sp, #8]
 8000228:	b004      	add	sp, #16
 800022a:	4770      	bx	lr

0800022c <__udivmoddi4>:
 800022c:	e92d 47f0 	stmdb	sp!, {r4, r5, r6, r7, r8, r9, sl, lr}
 8000230:	9e08      	ldr	r6, [sp, #32]
 8000232:	460d      	mov	r5, r1
 8000234:	4604      	mov	r4, r0
 8000236:	460f      	mov	r7, r1
 8000238:	2b00      	cmp	r3, #0
 800023a:	d14a      	bne.n	80002d2 <__udivmoddi4+0xa6>
 800023c:	428a      	cmp	r2, r1
 800023e:	4694      	mov	ip, r2
 8000240:	d965      	bls.n	800030e <__udivmoddi4+0xe2>
 8000242:	fab2 f382 	clz	r3, r2
 8000246:	b143      	cbz	r3, 800025a <__udivmoddi4+0x2e>
 8000248:	fa02 fc03 	lsl.w	ip, r2, r3
 800024c:	f1c3 0220 	rsb	r2, r3, #32
 8000250:	409f      	lsls	r7, r3
 8000252:	fa20 f202 	lsr.w	r2, r0, r2
 8000256:	4317      	orrs	r7, r2
 8000258:	409c      	lsls	r4, r3
 800025a:	ea4f 4e1c 	mov.w	lr, ip, lsr #16
 800025e:	fa1f f58c 	uxth.w	r5, ip
 8000262:	fbb7 f1fe 	udiv	r1, r7, lr
 8000266:	0c22      	lsrs	r2, r4, #16
 8000268:	fb0e 7711 	mls	r7, lr, r1, r7
 800026c:	ea42 4207 	orr.w	r2, r2, r7, lsl #16
 8000270:	fb01 f005 	mul.w	r0, r1, r5
 8000274:	4290      	cmp	r0, r2
 8000276:	d90a      	bls.n	800028e <__udivmoddi4+0x62>
 8000278:	eb1c 0202 	adds.w	r2, ip, r2
 800027c:	f101 37ff 	add.w	r7, r1, #4294967295	; 0xffffffff
 8000280:	f080 811c 	bcs.w	80004bc <__udivmoddi4+0x290>
 8000284:	4290      	cmp	r0, r2
 8000286:	f240 8119 	bls.w	80004bc <__udivmoddi4+0x290>
 800028a:	3902      	subs	r1, #2
 800028c:	4462      	add	r2, ip
 800028e:	1a12      	subs	r2, r2, r0
 8000290:	b2a4      	uxth	r4, r4
 8000292:	fbb2 f0fe 	udiv	r0, r2, lr
 8000296:	fb0e 2210 	mls	r2, lr, r0, r2
 800029a:	ea44 4402 	orr.w	r4, r4, r2, lsl #16
 800029e:	fb00 f505 	mul.w	r5, r0, r5
 80002a2:	42a5      	cmp	r5, r4
 80002a4:	d90a      	bls.n	80002bc <__udivmoddi4+0x90>
 80002a6:	eb1c 0404 	adds.w	r4, ip, r4
 80002aa:	f100 32ff 	add.w	r2, r0, #4294967295	; 0xffffffff
 80002ae:	f080 8107 	bcs.w	80004c0 <__udivmoddi4+0x294>
 80002b2:	42a5      	cmp	r5, r4
 80002b4:	f240 8104 	bls.w	80004c0 <__udivmoddi4+0x294>
 80002b8:	4464      	add	r4, ip
 80002ba:	3802      	subs	r0, #2
 80002bc:	ea40 4001 	orr.w	r0, r0, r1, lsl #16
 80002c0:	1b64      	subs	r4, r4, r5
 80002c2:	2100      	movs	r1, #0
 80002c4:	b11e      	cbz	r6, 80002ce <__udivmoddi4+0xa2>
 80002c6:	40dc      	lsrs	r4, r3
 80002c8:	2300      	movs	r3, #0
 80002ca:	e9c6 4300 	strd	r4, r3, [r6]
 80002ce:	e8bd 87f0 	ldmia.w	sp!, {r4, r5, r6, r7, r8, r9, sl, pc}
 80002d2:	428b      	cmp	r3, r1
 80002d4:	d908      	bls.n	80002e8 <__udivmoddi4+0xbc>
 80002d6:	2e00      	cmp	r6, #0
 80002d8:	f000 80ed 	beq.w	80004b6 <__udivmoddi4+0x28a>
 80002dc:	2100      	movs	r1, #0
 80002de:	e9c6 0500 	strd	r0, r5, [r6]
 80002e2:	4608      	mov	r0, r1
 80002e4:	e8bd 87f0 	ldmia.w	sp!, {r4, r5, r6, r7, r8, r9, sl, pc}
 80002e8:	fab3 f183 	clz	r1, r3
 80002ec:	2900      	cmp	r1, #0
 80002ee:	d149      	bne.n	8000384 <__udivmoddi4+0x158>
 80002f0:	42ab      	cmp	r3, r5
 80002f2:	d302      	bcc.n	80002fa <__udivmoddi4+0xce>
 80002f4:	4282      	cmp	r2, r0
 80002f6:	f200 80f8 	bhi.w	80004ea <__udivmoddi4+0x2be>
 80002fa:	1a84      	subs	r4, r0, r2
 80002fc:	eb65 0203 	sbc.w	r2, r5, r3
 8000300:	2001      	movs	r0, #1
 8000302:	4617      	mov	r7, r2
 8000304:	2e00      	cmp	r6, #0
 8000306:	d0e2      	beq.n	80002ce <__udivmoddi4+0xa2>
 8000308:	e9c6 4700 	strd	r4, r7, [r6]
 800030c:	e7df      	b.n	80002ce <__udivmoddi4+0xa2>
 800030e:	b902      	cbnz	r2, 8000312 <__udivmoddi4+0xe6>
 8000310:	deff      	udf	#255	; 0xff
 8000312:	fab2 f382 	clz	r3, r2
 8000316:	2b00      	cmp	r3, #0
 8000318:	f040 8090 	bne.w	800043c <__udivmoddi4+0x210>
 800031c:	1a8a      	subs	r2, r1, r2
 800031e:	ea4f 471c 	mov.w	r7, ip, lsr #16
 8000322:	fa1f fe8c 	uxth.w	lr, ip
 8000326:	2101      	movs	r1, #1
 8000328:	fbb2 f5f7 	udiv	r5, r2, r7
 800032c:	fb07 2015 	mls	r0, r7, r5, r2
 8000330:	0c22      	lsrs	r2, r4, #16
 8000332:	ea42 4200 	orr.w	r2, r2, r0, lsl #16
 8000336:	fb0e f005 	mul.w	r0, lr, r5
 800033a:	4290      	cmp	r0, r2
 800033c:	d908      	bls.n	8000350 <__udivmoddi4+0x124>
 800033e:	eb1c 0202 	adds.w	r2, ip, r2
 8000342:	f105 38ff 	add.w	r8, r5, #4294967295	; 0xffffffff
 8000346:	d202      	bcs.n	800034e <__udivmoddi4+0x122>
 8000348:	4290      	cmp	r0, r2
 800034a:	f200 80cb 	bhi.w	80004e4 <__udivmoddi4+0x2b8>
 800034e:	4645      	mov	r5, r8
 8000350:	1a12      	subs	r2, r2, r0
 8000352:	b2a4      	uxth	r4, r4
 8000354:	fbb2 f0f7 	udiv	r0, r2, r7
 8000358:	fb07 2210 	mls	r2, r7, r0, r2
 800035c:	ea44 4402 	orr.w	r4, r4, r2, lsl #16
 8000360:	fb0e fe00 	mul.w	lr, lr, r0
 8000364:	45a6      	cmp	lr, r4
 8000366:	d908      	bls.n	800037a <__udivmoddi4+0x14e>
 8000368:	eb1c 0404 	adds.w	r4, ip, r4
 800036c:	f100 32ff 	add.w	r2, r0, #4294967295	; 0xffffffff
 8000370:	d202      	bcs.n	8000378 <__udivmoddi4+0x14c>
 8000372:	45a6      	cmp	lr, r4
 8000374:	f200 80bb 	bhi.w	80004ee <__udivmoddi4+0x2c2>
 8000378:	4610      	mov	r0, r2
 800037a:	eba4 040e 	sub.w	r4, r4, lr
 800037e:	ea40 4005 	orr.w	r0, r0, r5, lsl #16
 8000382:	e79f      	b.n	80002c4 <__udivmoddi4+0x98>
 8000384:	f1c1 0720 	rsb	r7, r1, #32
 8000388:	408b      	lsls	r3, r1
 800038a:	fa22 fc07 	lsr.w	ip, r2, r7
 800038e:	ea4c 0c03 	orr.w	ip, ip, r3
 8000392:	fa05 f401 	lsl.w	r4, r5, r1
 8000396:	fa20 f307 	lsr.w	r3, r0, r7
 800039a:	40fd      	lsrs	r5, r7
 800039c:	ea4f 491c 	mov.w	r9, ip, lsr #16
 80003a0:	4323      	orrs	r3, r4
 80003a2:	fbb5 f8f9 	udiv	r8, r5, r9
 80003a6:	fa1f fe8c 	uxth.w	lr, ip
 80003aa:	fb09 5518 	mls	r5, r9, r8, r5
 80003ae:	0c1c      	lsrs	r4, r3, #16
 80003b0:	ea44 4405 	orr.w	r4, r4, r5, lsl #16
 80003b4:	fb08 f50e 	mul.w	r5, r8, lr
 80003b8:	42a5      	cmp	r5, r4
 80003ba:	fa02 f201 	lsl.w	r2, r2, r1
 80003be:	fa00 f001 	lsl.w	r0, r0, r1
 80003c2:	d90b      	bls.n	80003dc <__udivmoddi4+0x1b0>
 80003c4:	eb1c 0404 	adds.w	r4, ip, r4
 80003c8:	f108 3aff 	add.w	sl, r8, #4294967295	; 0xffffffff
 80003cc:	f080 8088 	bcs.w	80004e0 <__udivmoddi4+0x2b4>
 80003d0:	42a5      	cmp	r5, r4
 80003d2:	f240 8085 	bls.w	80004e0 <__udivmoddi4+0x2b4>
 80003d6:	f1a8 0802 	sub.w	r8, r8, #2
 80003da:	4464      	add	r4, ip
 80003dc:	1b64      	subs	r4, r4, r5
 80003de:	b29d      	uxth	r5, r3
 80003e0:	fbb4 f3f9 	udiv	r3, r4, r9
 80003e4:	fb09 4413 	mls	r4, r9, r3, r4
 80003e8:	ea45 4404 	orr.w	r4, r5, r4, lsl #16
 80003ec:	fb03 fe0e 	mul.w	lr, r3, lr
 80003f0:	45a6      	cmp	lr, r4
 80003f2:	d908      	bls.n	8000406 <__udivmoddi4+0x1da>
 80003f4:	eb1c 0404 	adds.w	r4, ip, r4
 80003f8:	f103 35ff 	add.w	r5, r3, #4294967295	; 0xffffffff
 80003fc:	d26c      	bcs.n	80004d8 <__udivmoddi4+0x2ac>
 80003fe:	45a6      	cmp	lr, r4
 8000400:	d96a      	bls.n	80004d8 <__udivmoddi4+0x2ac>
 8000402:	3b02      	subs	r3, #2
 8000404:	4464      	add	r4, ip
 8000406:	ea43 4308 	orr.w	r3, r3, r8, lsl #16
 800040a:	fba3 9502 	umull	r9, r5, r3, r2
 800040e:	eba4 040e 	sub.w	r4, r4, lr
 8000412:	42ac      	cmp	r4, r5
 8000414:	46c8      	mov	r8, r9
 8000416:	46ae      	mov	lr, r5
 8000418:	d356      	bcc.n	80004c8 <__udivmoddi4+0x29c>
 800041a:	d053      	beq.n	80004c4 <__udivmoddi4+0x298>
 800041c:	b156      	cbz	r6, 8000434 <__udivmoddi4+0x208>
 800041e:	ebb0 0208 	subs.w	r2, r0, r8
 8000422:	eb64 040e 	sbc.w	r4, r4, lr
 8000426:	fa04 f707 	lsl.w	r7, r4, r7
 800042a:	40ca      	lsrs	r2, r1
 800042c:	40cc      	lsrs	r4, r1
 800042e:	4317      	orrs	r7, r2
 8000430:	e9c6 7400 	strd	r7, r4, [r6]
 8000434:	4618      	mov	r0, r3
 8000436:	2100      	movs	r1, #0
 8000438:	e8bd 87f0 	ldmia.w	sp!, {r4, r5, r6, r7, r8, r9, sl, pc}
 800043c:	f1c3 0120 	rsb	r1, r3, #32
 8000440:	fa02 fc03 	lsl.w	ip, r2, r3
 8000444:	fa20 f201 	lsr.w	r2, r0, r1
 8000448:	fa25 f101 	lsr.w	r1, r5, r1
 800044c:	409d      	lsls	r5, r3
 800044e:	432a      	orrs	r2, r5
 8000450:	ea4f 471c 	mov.w	r7, ip, lsr #16
 8000454:	fa1f fe8c 	uxth.w	lr, ip
 8000458:	fbb1 f0f7 	udiv	r0, r1, r7
 800045c:	fb07 1510 	mls	r5, r7, r0, r1
 8000460:	0c11      	lsrs	r1, r2, #16
 8000462:	ea41 4105 	orr.w	r1, r1, r5, lsl #16
 8000466:	fb00 f50e 	mul.w	r5, r0, lr
 800046a:	428d      	cmp	r5, r1
 800046c:	fa04 f403 	lsl.w	r4, r4, r3
 8000470:	d908      	bls.n	8000484 <__udivmoddi4+0x258>
 8000472:	eb1c 0101 	adds.w	r1, ip, r1
 8000476:	f100 38ff 	add.w	r8, r0, #4294967295	; 0xffffffff
 800047a:	d22f      	bcs.n	80004dc <__udivmoddi4+0x2b0>
 800047c:	428d      	cmp	r5, r1
 800047e:	d92d      	bls.n	80004dc <__udivmoddi4+0x2b0>
 8000480:	3802      	subs	r0, #2
 8000482:	4461      	add	r1, ip
 8000484:	1b49      	subs	r1, r1, r5
 8000486:	b292      	uxth	r2, r2
 8000488:	fbb1 f5f7 	udiv	r5, r1, r7
 800048c:	fb07 1115 	mls	r1, r7, r5, r1
 8000490:	ea42 4201 	orr.w	r2, r2, r1, lsl #16
 8000494:	fb05 f10e 	mul.w	r1, r5, lr
 8000498:	4291      	cmp	r1, r2
 800049a:	d908      	bls.n	80004ae <__udivmoddi4+0x282>
 800049c:	eb1c 0202 	adds.w	r2, ip, r2
 80004a0:	f105 38ff 	add.w	r8, r5, #4294967295	; 0xffffffff
 80004a4:	d216      	bcs.n	80004d4 <__udivmoddi4+0x2a8>
 80004a6:	4291      	cmp	r1, r2
 80004a8:	d914      	bls.n	80004d4 <__udivmoddi4+0x2a8>
 80004aa:	3d02      	subs	r5, #2
 80004ac:	4462      	add	r2, ip
 80004ae:	1a52      	subs	r2, r2, r1
 80004b0:	ea45 4100 	orr.w	r1, r5, r0, lsl #16
 80004b4:	e738      	b.n	8000328 <__udivmoddi4+0xfc>
 80004b6:	4631      	mov	r1, r6
 80004b8:	4630      	mov	r0, r6
 80004ba:	e708      	b.n	80002ce <__udivmoddi4+0xa2>
 80004bc:	4639      	mov	r1, r7
 80004be:	e6e6      	b.n	800028e <__udivmoddi4+0x62>
 80004c0:	4610      	mov	r0, r2
 80004c2:	e6fb      	b.n	80002bc <__udivmoddi4+0x90>
 80004c4:	4548      	cmp	r0, r9
 80004c6:	d2a9      	bcs.n	800041c <__udivmoddi4+0x1f0>
 80004c8:	ebb9 0802 	subs.w	r8, r9, r2
 80004cc:	eb65 0e0c 	sbc.w	lr, r5, ip
 80004d0:	3b01      	subs	r3, #1
 80004d2:	e7a3      	b.n	800041c <__udivmoddi4+0x1f0>
 80004d4:	4645      	mov	r5, r8
 80004d6:	e7ea      	b.n	80004ae <__udivmoddi4+0x282>
 80004d8:	462b      	mov	r3, r5
 80004da:	e794      	b.n	8000406 <__udivmoddi4+0x1da>
 80004dc:	4640      	mov	r0, r8
 80004de:	e7d1      	b.n	8000484 <__udivmoddi4+0x258>
 80004e0:	46d0      	mov	r8, sl
 80004e2:	e77b      	b.n	80003dc <__udivmoddi4+0x1b0>
 80004e4:	3d02      	subs	r5, #2
 80004e6:	4462      	add	r2, ip
 80004e8:	e732      	b.n	8000350 <__udivmoddi4+0x124>
 80004ea:	4608      	mov	r0, r1
 80004ec:	e70a      	b.n	8000304 <__udivmoddi4+0xd8>
 80004ee:	4464      	add	r4, ip
 80004f0:	3802      	subs	r0, #2
 80004f2:	e742      	b.n	800037a <__udivmoddi4+0x14e>

080004f4 <__aeabi_idiv0>:
 80004f4:	4770      	bx	lr
 80004f6:	bf00      	nop

080004f8 <init_accel>:
uint8_t OUT_Y_L 				= 0x34;
uint8_t OUT_Y_H 				= 0x35;
uint8_t OUT_Z_L 				= 0x36;
uint8_t OUT_Z_H 				= 0x37;

HAL_StatusTypeDef init_accel(I2C_HandleTypeDef* hi2c) {
 80004f8:	b580      	push	{r7, lr}
 80004fa:	b084      	sub	sp, #16
 80004fc:	af00      	add	r7, sp, #0
 80004fe:	6078      	str	r0, [r7, #4]
	HAL_StatusTypeDef ret;

	// Set standby mode
	ret = i2c_write_reg(hi2c, ADXL314_ADDR, &POWER_CTL_REG, 0x00);
 8000500:	4b14      	ldr	r3, [pc, #80]	; (8000554 <init_accel+0x5c>)
 8000502:	7819      	ldrb	r1, [r3, #0]
 8000504:	2300      	movs	r3, #0
 8000506:	4a14      	ldr	r2, [pc, #80]	; (8000558 <init_accel+0x60>)
 8000508:	6878      	ldr	r0, [r7, #4]
 800050a:	f000 fbac 	bl	8000c66 <i2c_write_reg>
 800050e:	4603      	mov	r3, r0
 8000510:	73fb      	strb	r3, [r7, #15]

	// Set to 200G right justified
	ret = i2c_write_reg(hi2c, ADXL314_ADDR, &DATA_FORMAT_REG, RIGHT_JUST);
 8000512:	4b10      	ldr	r3, [pc, #64]	; (8000554 <init_accel+0x5c>)
 8000514:	7819      	ldrb	r1, [r3, #0]
 8000516:	230b      	movs	r3, #11
 8000518:	4a10      	ldr	r2, [pc, #64]	; (800055c <init_accel+0x64>)
 800051a:	6878      	ldr	r0, [r7, #4]
 800051c:	f000 fba3 	bl	8000c66 <i2c_write_reg>
 8000520:	4603      	mov	r3, r0
 8000522:	73fb      	strb	r3, [r7, #15]

	// Set to 1kHz ODR
	ret = i2c_write_reg(hi2c, ADXL314_ADDR, &BW_RATE_REG, MASK_1kHz);
 8000524:	4b0b      	ldr	r3, [pc, #44]	; (8000554 <init_accel+0x5c>)
 8000526:	7819      	ldrb	r1, [r3, #0]
 8000528:	230a      	movs	r3, #10
 800052a:	4a0d      	ldr	r2, [pc, #52]	; (8000560 <init_accel+0x68>)
 800052c:	6878      	ldr	r0, [r7, #4]
 800052e:	f000 fb9a 	bl	8000c66 <i2c_write_reg>
 8000532:	4603      	mov	r3, r0
 8000534:	73fb      	strb	r3, [r7, #15]

	// Write the offset registers
//	ret = writeOffset(hi2c);

	// Start measuring
	ret = i2c_write_reg(hi2c, ADXL314_ADDR, &POWER_CTL_REG, START_MEAS);
 8000536:	4b07      	ldr	r3, [pc, #28]	; (8000554 <init_accel+0x5c>)
 8000538:	7819      	ldrb	r1, [r3, #0]
 800053a:	2308      	movs	r3, #8
 800053c:	4a06      	ldr	r2, [pc, #24]	; (8000558 <init_accel+0x60>)
 800053e:	6878      	ldr	r0, [r7, #4]
 8000540:	f000 fb91 	bl	8000c66 <i2c_write_reg>
 8000544:	4603      	mov	r3, r0
 8000546:	73fb      	strb	r3, [r7, #15]

	return ret;
 8000548:	7bfb      	ldrb	r3, [r7, #15]
}
 800054a:	4618      	mov	r0, r3
 800054c:	3710      	adds	r7, #16
 800054e:	46bd      	mov	sp, r7
 8000550:	bd80      	pop	{r7, pc}
 8000552:	bf00      	nop
 8000554:	20000000 	.word	0x20000000
 8000558:	20000002 	.word	0x20000002
 800055c:	20000003 	.word	0x20000003
 8000560:	20000001 	.word	0x20000001

08000564 <readAccelerometer>:
void readAccelerometer(uint8_t values[6], I2C_HandleTypeDef* hi2c) {
 8000564:	b580      	push	{r7, lr}
 8000566:	b086      	sub	sp, #24
 8000568:	af02      	add	r7, sp, #8
 800056a:	6078      	str	r0, [r7, #4]
 800056c:	6039      	str	r1, [r7, #0]
	for (uint8_t i = 0; i < 6; i++) {
 800056e:	2300      	movs	r3, #0
 8000570:	73fb      	strb	r3, [r7, #15]
 8000572:	e007      	b.n	8000584 <readAccelerometer+0x20>
		values[i] = 0x00;
 8000574:	7bfb      	ldrb	r3, [r7, #15]
 8000576:	687a      	ldr	r2, [r7, #4]
 8000578:	4413      	add	r3, r2
 800057a:	2200      	movs	r2, #0
 800057c:	701a      	strb	r2, [r3, #0]
	for (uint8_t i = 0; i < 6; i++) {
 800057e:	7bfb      	ldrb	r3, [r7, #15]
 8000580:	3301      	adds	r3, #1
 8000582:	73fb      	strb	r3, [r7, #15]
 8000584:	7bfb      	ldrb	r3, [r7, #15]
 8000586:	2b05      	cmp	r3, #5
 8000588:	d9f4      	bls.n	8000574 <readAccelerometer+0x10>
	}

	i2c_burst_read(hi2c, ADXL314_ADDR, OUT_X_L, 6, values);
 800058a:	4b07      	ldr	r3, [pc, #28]	; (80005a8 <readAccelerometer+0x44>)
 800058c:	7819      	ldrb	r1, [r3, #0]
 800058e:	4b07      	ldr	r3, [pc, #28]	; (80005ac <readAccelerometer+0x48>)
 8000590:	781a      	ldrb	r2, [r3, #0]
 8000592:	687b      	ldr	r3, [r7, #4]
 8000594:	9300      	str	r3, [sp, #0]
 8000596:	2306      	movs	r3, #6
 8000598:	6838      	ldr	r0, [r7, #0]
 800059a:	f000 fb2f 	bl	8000bfc <i2c_burst_read>
}
 800059e:	bf00      	nop
 80005a0:	3710      	adds	r7, #16
 80005a2:	46bd      	mov	sp, r7
 80005a4:	bd80      	pop	{r7, pc}
 80005a6:	bf00      	nop
 80005a8:	20000000 	.word	0x20000000
 80005ac:	20000004 	.word	0x20000004

080005b0 <readAccel_whoami>:

uint8_t readAccel_whoami(I2C_HandleTypeDef* hi2c) {
 80005b0:	b580      	push	{r7, lr}
 80005b2:	b084      	sub	sp, #16
 80005b4:	af00      	add	r7, sp, #0
 80005b6:	6078      	str	r0, [r7, #4]
	uint8_t data = 0x00;
 80005b8:	2300      	movs	r3, #0
 80005ba:	73fb      	strb	r3, [r7, #15]
	i2c_read_reg(hi2c, &data, ADXL314_ADDR, &WHOAMI);
 80005bc:	4b06      	ldr	r3, [pc, #24]	; (80005d8 <readAccel_whoami+0x28>)
 80005be:	781a      	ldrb	r2, [r3, #0]
 80005c0:	f107 010f 	add.w	r1, r7, #15
 80005c4:	4b05      	ldr	r3, [pc, #20]	; (80005dc <readAccel_whoami+0x2c>)
 80005c6:	6878      	ldr	r0, [r7, #4]
 80005c8:	f000 faef 	bl	8000baa <i2c_read_reg>

	return data;
 80005cc:	7bfb      	ldrb	r3, [r7, #15]
}
 80005ce:	4618      	mov	r0, r3
 80005d0:	3710      	adds	r7, #16
 80005d2:	46bd      	mov	sp, r7
 80005d4:	bd80      	pop	{r7, pc}
 80005d6:	bf00      	nop
 80005d8:	20000000 	.word	0x20000000
 80005dc:	20000044 	.word	0x20000044

080005e0 <init_bme280>:
uint8_t OUT_HUM_H 			= 0xFD;
uint8_t CALIB_ST_1			= 0x88;
uint8_t CALIB_ST_2			= 0xE1;


HAL_StatusTypeDef init_bme280(I2C_HandleTypeDef* hi2c, uint8_t bme) {
 80005e0:	b580      	push	{r7, lr}
 80005e2:	b084      	sub	sp, #16
 80005e4:	af00      	add	r7, sp, #0
 80005e6:	6078      	str	r0, [r7, #4]
 80005e8:	460b      	mov	r3, r1
 80005ea:	70fb      	strb	r3, [r7, #3]
	uint8_t bme_addr = getBME280Config(bme).bme_addr;
 80005ec:	78fb      	ldrb	r3, [r7, #3]
 80005ee:	4618      	mov	r0, r3
 80005f0:	f000 f8e0 	bl	80007b4 <getBME280Config>
 80005f4:	4603      	mov	r3, r0
 80005f6:	73fb      	strb	r3, [r7, #15]
	HAL_StatusTypeDef ret;
	uint8_t control_reg = 0x00;
 80005f8:	2300      	movs	r3, #0
 80005fa:	737b      	strb	r3, [r7, #13]

	// Reset the sensor
	ret =  i2c_write_reg(hi2c, bme_addr, &RST_REG, RST);
 80005fc:	7bf9      	ldrb	r1, [r7, #15]
 80005fe:	23b6      	movs	r3, #182	; 0xb6
 8000600:	4a19      	ldr	r2, [pc, #100]	; (8000668 <init_bme280+0x88>)
 8000602:	6878      	ldr	r0, [r7, #4]
 8000604:	f000 fb2f 	bl	8000c66 <i2c_write_reg>
 8000608:	4603      	mov	r3, r0
 800060a:	73bb      	strb	r3, [r7, #14]

	// Set humidity control register
	i2c_read_reg(hi2c, &control_reg, bme_addr, &CTRL_HUM_REG);
 800060c:	7bfa      	ldrb	r2, [r7, #15]
 800060e:	f107 010d 	add.w	r1, r7, #13
 8000612:	4b16      	ldr	r3, [pc, #88]	; (800066c <init_bme280+0x8c>)
 8000614:	6878      	ldr	r0, [r7, #4]
 8000616:	f000 fac8 	bl	8000baa <i2c_read_reg>
	control_reg = control_reg & 0xF8;
 800061a:	7b7b      	ldrb	r3, [r7, #13]
 800061c:	f023 0307 	bic.w	r3, r3, #7
 8000620:	b2db      	uxtb	r3, r3
 8000622:	737b      	strb	r3, [r7, #13]
	control_reg = control_reg | CTRL_HUM_MSK;
 8000624:	7b7b      	ldrb	r3, [r7, #13]
 8000626:	f043 0301 	orr.w	r3, r3, #1
 800062a:	b2db      	uxtb	r3, r3
 800062c:	737b      	strb	r3, [r7, #13]
	ret = i2c_write_reg(hi2c, bme_addr, &CTRL_HUM_REG, control_reg);
 800062e:	7b7b      	ldrb	r3, [r7, #13]
 8000630:	7bf9      	ldrb	r1, [r7, #15]
 8000632:	4a0e      	ldr	r2, [pc, #56]	; (800066c <init_bme280+0x8c>)
 8000634:	6878      	ldr	r0, [r7, #4]
 8000636:	f000 fb16 	bl	8000c66 <i2c_write_reg>
 800063a:	4603      	mov	r3, r0
 800063c:	73bb      	strb	r3, [r7, #14]

	// Set measure control register
	ret = i2c_write_reg(hi2c, bme_addr, &CTRL_MEAS_REG, CTRL_MEAS_MSK);
 800063e:	7bf9      	ldrb	r1, [r7, #15]
 8000640:	2327      	movs	r3, #39	; 0x27
 8000642:	4a0b      	ldr	r2, [pc, #44]	; (8000670 <init_bme280+0x90>)
 8000644:	6878      	ldr	r0, [r7, #4]
 8000646:	f000 fb0e 	bl	8000c66 <i2c_write_reg>
 800064a:	4603      	mov	r3, r0
 800064c:	73bb      	strb	r3, [r7, #14]

	// Set the config register
	ret = i2c_write_reg(hi2c, bme_addr, &CONF_REG, CONF_MSK);
 800064e:	7bf9      	ldrb	r1, [r7, #15]
 8000650:	2300      	movs	r3, #0
 8000652:	4a08      	ldr	r2, [pc, #32]	; (8000674 <init_bme280+0x94>)
 8000654:	6878      	ldr	r0, [r7, #4]
 8000656:	f000 fb06 	bl	8000c66 <i2c_write_reg>
 800065a:	4603      	mov	r3, r0
 800065c:	73bb      	strb	r3, [r7, #14]

	return ret;
 800065e:	7bbb      	ldrb	r3, [r7, #14]
}
 8000660:	4618      	mov	r0, r3
 8000662:	3710      	adds	r7, #16
 8000664:	46bd      	mov	sp, r7
 8000666:	bd80      	pop	{r7, pc}
 8000668:	20000006 	.word	0x20000006
 800066c:	20000007 	.word	0x20000007
 8000670:	20000008 	.word	0x20000008
 8000674:	20000009 	.word	0x20000009

08000678 <readTempHumPres>:

void readTempHumPres(uint8_t values[6], I2C_HandleTypeDef* hi2c, uint8_t bme) {
 8000678:	b580      	push	{r7, lr}
 800067a:	b08a      	sub	sp, #40	; 0x28
 800067c:	af02      	add	r7, sp, #8
 800067e:	60f8      	str	r0, [r7, #12]
 8000680:	60b9      	str	r1, [r7, #8]
 8000682:	4613      	mov	r3, r2
 8000684:	71fb      	strb	r3, [r7, #7]
	uint8_t readings[8] = {0, 0, 0, 0, 0, 0, 0, 0};
 8000686:	4a27      	ldr	r2, [pc, #156]	; (8000724 <readTempHumPres+0xac>)
 8000688:	f107 0314 	add.w	r3, r7, #20
 800068c:	e892 0003 	ldmia.w	r2, {r0, r1}
 8000690:	e883 0003 	stmia.w	r3, {r0, r1}
	uint8_t bme_addr = getBME280Config(bme).bme_addr;
 8000694:	79fb      	ldrb	r3, [r7, #7]
 8000696:	4618      	mov	r0, r3
 8000698:	f000 f88c 	bl	80007b4 <getBME280Config>
 800069c:	4603      	mov	r3, r0
 800069e:	777b      	strb	r3, [r7, #29]
	i2c_burst_read(hi2c, bme_addr, OUT_PRESS_H, 8, readings);
 80006a0:	4b21      	ldr	r3, [pc, #132]	; (8000728 <readTempHumPres+0xb0>)
 80006a2:	781a      	ldrb	r2, [r3, #0]
 80006a4:	7f79      	ldrb	r1, [r7, #29]
 80006a6:	f107 0314 	add.w	r3, r7, #20
 80006aa:	9300      	str	r3, [sp, #0]
 80006ac:	2308      	movs	r3, #8
 80006ae:	68b8      	ldr	r0, [r7, #8]
 80006b0:	f000 faa4 	bl	8000bfc <i2c_burst_read>

	// Clear the 0 values on the xlsb registers
	uint8_t j = 0;
 80006b4:	2300      	movs	r3, #0
 80006b6:	77fb      	strb	r3, [r7, #31]
    for(uint8_t i = 0; i < 8; i++) {
 80006b8:	2300      	movs	r3, #0
 80006ba:	77bb      	strb	r3, [r7, #30]
 80006bc:	e014      	b.n	80006e8 <readTempHumPres+0x70>
        if(i != 2 && i != 5) {  // if the index is not 2 or 5
 80006be:	7fbb      	ldrb	r3, [r7, #30]
 80006c0:	2b02      	cmp	r3, #2
 80006c2:	d00e      	beq.n	80006e2 <readTempHumPres+0x6a>
 80006c4:	7fbb      	ldrb	r3, [r7, #30]
 80006c6:	2b05      	cmp	r3, #5
 80006c8:	d00b      	beq.n	80006e2 <readTempHumPres+0x6a>
        	values[j] = readings[i];
 80006ca:	7fba      	ldrb	r2, [r7, #30]
 80006cc:	7ffb      	ldrb	r3, [r7, #31]
 80006ce:	68f9      	ldr	r1, [r7, #12]
 80006d0:	440b      	add	r3, r1
 80006d2:	3220      	adds	r2, #32
 80006d4:	443a      	add	r2, r7
 80006d6:	f812 2c0c 	ldrb.w	r2, [r2, #-12]
 80006da:	701a      	strb	r2, [r3, #0]
            j++;
 80006dc:	7ffb      	ldrb	r3, [r7, #31]
 80006de:	3301      	adds	r3, #1
 80006e0:	77fb      	strb	r3, [r7, #31]
    for(uint8_t i = 0; i < 8; i++) {
 80006e2:	7fbb      	ldrb	r3, [r7, #30]
 80006e4:	3301      	adds	r3, #1
 80006e6:	77bb      	strb	r3, [r7, #30]
 80006e8:	7fbb      	ldrb	r3, [r7, #30]
 80006ea:	2b07      	cmp	r3, #7
 80006ec:	d9e7      	bls.n	80006be <readTempHumPres+0x46>
        }
    }

    // Swap elements to make the array little endian
    swap(&values[0], &values[1]);
 80006ee:	68fb      	ldr	r3, [r7, #12]
 80006f0:	3301      	adds	r3, #1
 80006f2:	4619      	mov	r1, r3
 80006f4:	68f8      	ldr	r0, [r7, #12]
 80006f6:	f000 f874 	bl	80007e2 <swap>
    swap(&values[2], &values[3]);
 80006fa:	68fb      	ldr	r3, [r7, #12]
 80006fc:	1c9a      	adds	r2, r3, #2
 80006fe:	68fb      	ldr	r3, [r7, #12]
 8000700:	3303      	adds	r3, #3
 8000702:	4619      	mov	r1, r3
 8000704:	4610      	mov	r0, r2
 8000706:	f000 f86c 	bl	80007e2 <swap>
    swap(&values[4], &values[5]);
 800070a:	68fb      	ldr	r3, [r7, #12]
 800070c:	1d1a      	adds	r2, r3, #4
 800070e:	68fb      	ldr	r3, [r7, #12]
 8000710:	3305      	adds	r3, #5
 8000712:	4619      	mov	r1, r3
 8000714:	4610      	mov	r0, r2
 8000716:	f000 f864 	bl	80007e2 <swap>
}
 800071a:	bf00      	nop
 800071c:	3720      	adds	r7, #32
 800071e:	46bd      	mov	sp, r7
 8000720:	bd80      	pop	{r7, pc}
 8000722:	bf00      	nop
 8000724:	08008500 	.word	0x08008500
 8000728:	2000000a 	.word	0x2000000a

0800072c <readBME280_id_reg>:

uint8_t readBME280_id_reg(I2C_HandleTypeDef* hi2c, uint8_t bme) {
 800072c:	b580      	push	{r7, lr}
 800072e:	b084      	sub	sp, #16
 8000730:	af00      	add	r7, sp, #0
 8000732:	6078      	str	r0, [r7, #4]
 8000734:	460b      	mov	r3, r1
 8000736:	70fb      	strb	r3, [r7, #3]
	uint8_t bme_addr = getBME280Config(bme).bme_addr;
 8000738:	78fb      	ldrb	r3, [r7, #3]
 800073a:	4618      	mov	r0, r3
 800073c:	f000 f83a 	bl	80007b4 <getBME280Config>
 8000740:	4603      	mov	r3, r0
 8000742:	73fb      	strb	r3, [r7, #15]
	uint8_t data = 0x00;
 8000744:	2300      	movs	r3, #0
 8000746:	73bb      	strb	r3, [r7, #14]
	i2c_read_reg(hi2c, &data, bme_addr, &ID_REG);
 8000748:	7bfa      	ldrb	r2, [r7, #15]
 800074a:	f107 010e 	add.w	r1, r7, #14
 800074e:	4b04      	ldr	r3, [pc, #16]	; (8000760 <readBME280_id_reg+0x34>)
 8000750:	6878      	ldr	r0, [r7, #4]
 8000752:	f000 fa2a 	bl	8000baa <i2c_read_reg>

	return data;
 8000756:	7bbb      	ldrb	r3, [r7, #14]
}
 8000758:	4618      	mov	r0, r3
 800075a:	3710      	adds	r7, #16
 800075c:	46bd      	mov	sp, r7
 800075e:	bd80      	pop	{r7, pc}
 8000760:	20000005 	.word	0x20000005

08000764 <readBME280_calib>:

void readBME280_calib(I2C_HandleTypeDef* hi2c, uint8_t bme, uint8_t calibration1[CALIB_CNT_1], uint8_t calibration2[CALIB_CNT_2]) {
 8000764:	b580      	push	{r7, lr}
 8000766:	b088      	sub	sp, #32
 8000768:	af02      	add	r7, sp, #8
 800076a:	60f8      	str	r0, [r7, #12]
 800076c:	607a      	str	r2, [r7, #4]
 800076e:	603b      	str	r3, [r7, #0]
 8000770:	460b      	mov	r3, r1
 8000772:	72fb      	strb	r3, [r7, #11]
	uint8_t bme_addr = getBME280Config(bme).bme_addr;
 8000774:	7afb      	ldrb	r3, [r7, #11]
 8000776:	4618      	mov	r0, r3
 8000778:	f000 f81c 	bl	80007b4 <getBME280Config>
 800077c:	4603      	mov	r3, r0
 800077e:	75fb      	strb	r3, [r7, #23]
	i2c_burst_read(hi2c, bme_addr, CALIB_ST_1, CALIB_CNT_1, calibration1);
 8000780:	4b0a      	ldr	r3, [pc, #40]	; (80007ac <readBME280_calib+0x48>)
 8000782:	781a      	ldrb	r2, [r3, #0]
 8000784:	7df9      	ldrb	r1, [r7, #23]
 8000786:	687b      	ldr	r3, [r7, #4]
 8000788:	9300      	str	r3, [sp, #0]
 800078a:	2319      	movs	r3, #25
 800078c:	68f8      	ldr	r0, [r7, #12]
 800078e:	f000 fa35 	bl	8000bfc <i2c_burst_read>
	i2c_burst_read(hi2c, bme_addr, CALIB_ST_2, CALIB_CNT_2, calibration2);
 8000792:	4b07      	ldr	r3, [pc, #28]	; (80007b0 <readBME280_calib+0x4c>)
 8000794:	781a      	ldrb	r2, [r3, #0]
 8000796:	7df9      	ldrb	r1, [r7, #23]
 8000798:	683b      	ldr	r3, [r7, #0]
 800079a:	9300      	str	r3, [sp, #0]
 800079c:	2307      	movs	r3, #7
 800079e:	68f8      	ldr	r0, [r7, #12]
 80007a0:	f000 fa2c 	bl	8000bfc <i2c_burst_read>
}
 80007a4:	bf00      	nop
 80007a6:	3718      	adds	r7, #24
 80007a8:	46bd      	mov	sp, r7
 80007aa:	bd80      	pop	{r7, pc}
 80007ac:	2000000b 	.word	0x2000000b
 80007b0:	2000000c 	.word	0x2000000c

080007b4 <getBME280Config>:

BME280_Config getBME280Config(uint8_t bme) {
 80007b4:	b480      	push	{r7}
 80007b6:	b085      	sub	sp, #20
 80007b8:	af00      	add	r7, sp, #0
 80007ba:	4603      	mov	r3, r0
 80007bc:	71fb      	strb	r3, [r7, #7]
	BME280_Config config;
	if (bme == 0) {
 80007be:	79fb      	ldrb	r3, [r7, #7]
 80007c0:	2b00      	cmp	r3, #0
 80007c2:	d102      	bne.n	80007ca <getBME280Config+0x16>
		config.bme_addr = BME280_ADDR_0;
 80007c4:	2376      	movs	r3, #118	; 0x76
 80007c6:	733b      	strb	r3, [r7, #12]
 80007c8:	e004      	b.n	80007d4 <getBME280Config+0x20>
	} else if (bme == 1) {
 80007ca:	79fb      	ldrb	r3, [r7, #7]
 80007cc:	2b01      	cmp	r3, #1
 80007ce:	d101      	bne.n	80007d4 <getBME280Config+0x20>
		config.bme_addr = BME280_ADDR_1;
 80007d0:	2377      	movs	r3, #119	; 0x77
 80007d2:	733b      	strb	r3, [r7, #12]
	}
    return config;
 80007d4:	7b3b      	ldrb	r3, [r7, #12]
}
 80007d6:	4618      	mov	r0, r3
 80007d8:	3714      	adds	r7, #20
 80007da:	46bd      	mov	sp, r7
 80007dc:	f85d 7b04 	ldr.w	r7, [sp], #4
 80007e0:	4770      	bx	lr

080007e2 <swap>:

void swap(uint8_t* a, uint8_t* b) {
 80007e2:	b480      	push	{r7}
 80007e4:	b085      	sub	sp, #20
 80007e6:	af00      	add	r7, sp, #0
 80007e8:	6078      	str	r0, [r7, #4]
 80007ea:	6039      	str	r1, [r7, #0]
    uint8_t temp = *a;
 80007ec:	687b      	ldr	r3, [r7, #4]
 80007ee:	781b      	ldrb	r3, [r3, #0]
 80007f0:	73fb      	strb	r3, [r7, #15]
    *a = *b;
 80007f2:	683b      	ldr	r3, [r7, #0]
 80007f4:	781a      	ldrb	r2, [r3, #0]
 80007f6:	687b      	ldr	r3, [r7, #4]
 80007f8:	701a      	strb	r2, [r3, #0]
    *b = temp;
 80007fa:	683b      	ldr	r3, [r7, #0]
 80007fc:	7bfa      	ldrb	r2, [r7, #15]
 80007fe:	701a      	strb	r2, [r3, #0]
}
 8000800:	bf00      	nop
 8000802:	3714      	adds	r7, #20
 8000804:	46bd      	mov	sp, r7
 8000806:	f85d 7b04 	ldr.w	r7, [sp], #4
 800080a:	4770      	bx	lr

0800080c <check_busy>:
uint8_t FLASH_32K_ERS	= 0x52;			// Erase all memory within a 32K-byte block
uint8_t FLASH_ERASE		= 0xC7;			// Erase the entire chip
uint8_t RST_EN			= 0x66;			// Reset enable
uint8_t DEV_RST			= 0x99;			// Reset device

uint8_t check_busy(SPI_HandleTypeDef *hspi, GPIO_Config config, int timeout) {
 800080c:	b580      	push	{r7, lr}
 800080e:	b088      	sub	sp, #32
 8000810:	af00      	add	r7, sp, #0
 8000812:	60f8      	str	r0, [r7, #12]
 8000814:	1d38      	adds	r0, r7, #4
 8000816:	e880 0006 	stmia.w	r0, {r1, r2}
 800081a:	603b      	str	r3, [r7, #0]
	uint8_t ret_val = 0x00;
 800081c:	2300      	movs	r3, #0
 800081e:	77fb      	strb	r3, [r7, #31]

    // Get the current time
	uint32_t startTick = HAL_GetTick();
 8000820:	f002 f9d2 	bl	8002bc8 <HAL_GetTick>
 8000824:	61b8      	str	r0, [r7, #24]

	// Read the status register to ensure no write is currently in progress
	uint8_t busy = 0x01;
 8000826:	2301      	movs	r3, #1
 8000828:	77bb      	strb	r3, [r7, #30]
	while(busy) {
 800082a:	e015      	b.n	8000858 <check_busy+0x4c>
		// Check if there is a write in progress
		busy = (check_status_register(hspi, config) & 0x01);
 800082c:	1d3b      	adds	r3, r7, #4
 800082e:	e893 0006 	ldmia.w	r3, {r1, r2}
 8000832:	68f8      	ldr	r0, [r7, #12]
 8000834:	f000 f818 	bl	8000868 <check_status_register>
 8000838:	4603      	mov	r3, r0
 800083a:	f003 0301 	and.w	r3, r3, #1
 800083e:	77bb      	strb	r3, [r7, #30]

		uint32_t currTick = HAL_GetTick();
 8000840:	f002 f9c2 	bl	8002bc8 <HAL_GetTick>
 8000844:	6178      	str	r0, [r7, #20]

        // Check if the timeout has been reached
		if ((currTick - startTick) >= timeout) {
 8000846:	697a      	ldr	r2, [r7, #20]
 8000848:	69bb      	ldr	r3, [r7, #24]
 800084a:	1ad2      	subs	r2, r2, r3
 800084c:	683b      	ldr	r3, [r7, #0]
 800084e:	429a      	cmp	r2, r3
 8000850:	d302      	bcc.n	8000858 <check_busy+0x4c>
        	ret_val = 0x01;
 8000852:	2301      	movs	r3, #1
 8000854:	77fb      	strb	r3, [r7, #31]
            break;
 8000856:	e002      	b.n	800085e <check_busy+0x52>
	while(busy) {
 8000858:	7fbb      	ldrb	r3, [r7, #30]
 800085a:	2b00      	cmp	r3, #0
 800085c:	d1e6      	bne.n	800082c <check_busy+0x20>
        }
	}

	return ret_val;
 800085e:	7ffb      	ldrb	r3, [r7, #31]
}
 8000860:	4618      	mov	r0, r3
 8000862:	3720      	adds	r7, #32
 8000864:	46bd      	mov	sp, r7
 8000866:	bd80      	pop	{r7, pc}

08000868 <check_status_register>:

uint8_t check_status_register(SPI_HandleTypeDef *hspi, GPIO_Config config) {
 8000868:	b580      	push	{r7, lr}
 800086a:	b088      	sub	sp, #32
 800086c:	af02      	add	r7, sp, #8
 800086e:	60f8      	str	r0, [r7, #12]
 8000870:	1d3b      	adds	r3, r7, #4
 8000872:	e883 0006 	stmia.w	r3, {r1, r2}
	uint8_t status_reg = 0x00;
 8000876:	2300      	movs	r3, #0
 8000878:	75fb      	strb	r3, [r7, #23]
	spi_sendOp_readByte(&FLASH_READSR1, hspi, &status_reg, config.GPIOx, config.GPIO_Pin);
 800087a:	6879      	ldr	r1, [r7, #4]
 800087c:	893b      	ldrh	r3, [r7, #8]
 800087e:	f107 0217 	add.w	r2, r7, #23
 8000882:	9300      	str	r3, [sp, #0]
 8000884:	460b      	mov	r3, r1
 8000886:	68f9      	ldr	r1, [r7, #12]
 8000888:	4803      	ldr	r0, [pc, #12]	; (8000898 <check_status_register+0x30>)
 800088a:	f001 fc77 	bl	800217c <spi_sendOp_readByte>
	return status_reg;
 800088e:	7dfb      	ldrb	r3, [r7, #23]
}
 8000890:	4618      	mov	r0, r3
 8000892:	3718      	adds	r7, #24
 8000894:	46bd      	mov	sp, r7
 8000896:	bd80      	pop	{r7, pc}
 8000898:	2000000f 	.word	0x2000000f

0800089c <erase_chip_spi>:
 *      Author: aidencontini
 */

#include "data_output_spi.h"

HAL_StatusTypeDef erase_chip_spi(SPI_HandleTypeDef *hspi, GPIO_Config config) {
 800089c:	b580      	push	{r7, lr}
 800089e:	b084      	sub	sp, #16
 80008a0:	af00      	add	r7, sp, #0
 80008a2:	60f8      	str	r0, [r7, #12]
 80008a4:	1d3b      	adds	r3, r7, #4
 80008a6:	e883 0006 	stmia.w	r3, {r1, r2}
	check_busy(hspi, config, BSY_TIMEOUT_MS);
 80008aa:	2305      	movs	r3, #5
 80008ac:	1d3a      	adds	r2, r7, #4
 80008ae:	ca06      	ldmia	r2, {r1, r2}
 80008b0:	68f8      	ldr	r0, [r7, #12]
 80008b2:	f7ff ffab 	bl	800080c <check_busy>

	write_enable_spi(hspi, config);
 80008b6:	1d3b      	adds	r3, r7, #4
 80008b8:	e893 0006 	ldmia.w	r3, {r1, r2}
 80008bc:	68f8      	ldr	r0, [r7, #12]
 80008be:	f000 f815 	bl	80008ec <write_enable_spi>
	perform_operation(&FLASH_ERASE, hspi, config.GPIOx, config.GPIO_Pin);
 80008c2:	687a      	ldr	r2, [r7, #4]
 80008c4:	893b      	ldrh	r3, [r7, #8]
 80008c6:	68f9      	ldr	r1, [r7, #12]
 80008c8:	4806      	ldr	r0, [pc, #24]	; (80008e4 <erase_chip_spi+0x48>)
 80008ca:	f001 fc7d 	bl	80021c8 <perform_operation>

	check_busy(hspi, config, CHIP_ERASE_TO);
 80008ce:	4b06      	ldr	r3, [pc, #24]	; (80008e8 <erase_chip_spi+0x4c>)
 80008d0:	1d3a      	adds	r2, r7, #4
 80008d2:	ca06      	ldmia	r2, {r1, r2}
 80008d4:	68f8      	ldr	r0, [r7, #12]
 80008d6:	f7ff ff99 	bl	800080c <check_busy>

	return HAL_OK;
 80008da:	2300      	movs	r3, #0
}
 80008dc:	4618      	mov	r0, r3
 80008de:	3710      	adds	r7, #16
 80008e0:	46bd      	mov	sp, r7
 80008e2:	bd80      	pop	{r7, pc}
 80008e4:	20000012 	.word	0x20000012
 80008e8:	00030d40 	.word	0x00030d40

080008ec <write_enable_spi>:
	check_busy(hspi, config, BLK_ERS_32K_TO);

	return HAL_OK;
}

void write_enable_spi(SPI_HandleTypeDef *hspi, GPIO_Config config) {
 80008ec:	b580      	push	{r7, lr}
 80008ee:	b084      	sub	sp, #16
 80008f0:	af00      	add	r7, sp, #0
 80008f2:	60f8      	str	r0, [r7, #12]
 80008f4:	1d3b      	adds	r3, r7, #4
 80008f6:	e883 0006 	stmia.w	r3, {r1, r2}
	perform_operation(&FLASH_WREN, hspi, config.GPIOx, config.GPIO_Pin);
 80008fa:	687a      	ldr	r2, [r7, #4]
 80008fc:	893b      	ldrh	r3, [r7, #8]
 80008fe:	68f9      	ldr	r1, [r7, #12]
 8000900:	4803      	ldr	r0, [pc, #12]	; (8000910 <write_enable_spi+0x24>)
 8000902:	f001 fc61 	bl	80021c8 <perform_operation>
}
 8000906:	bf00      	nop
 8000908:	3710      	adds	r7, #16
 800090a:	46bd      	mov	sp, r7
 800090c:	bd80      	pop	{r7, pc}
 800090e:	bf00      	nop
 8000910:	2000000d 	.word	0x2000000d

08000914 <software_reset>:

void write_disable_spi(SPI_HandleTypeDef *hspi, GPIO_Config config) {
	perform_operation(&FLASH_WRDIS, hspi, config.GPIOx, config.GPIO_Pin);
}

void software_reset(SPI_HandleTypeDef *hspi, GPIO_Config config) {
 8000914:	b580      	push	{r7, lr}
 8000916:	b084      	sub	sp, #16
 8000918:	af00      	add	r7, sp, #0
 800091a:	60f8      	str	r0, [r7, #12]
 800091c:	1d3b      	adds	r3, r7, #4
 800091e:	e883 0006 	stmia.w	r3, {r1, r2}

	check_busy(hspi, config, BSY_TIMEOUT_MS);
 8000922:	2305      	movs	r3, #5
 8000924:	1d3a      	adds	r2, r7, #4
 8000926:	ca06      	ldmia	r2, {r1, r2}
 8000928:	68f8      	ldr	r0, [r7, #12]
 800092a:	f7ff ff6f 	bl	800080c <check_busy>

	perform_operation(&RST_EN, hspi, config.GPIOx, config.GPIO_Pin);
 800092e:	687a      	ldr	r2, [r7, #4]
 8000930:	893b      	ldrh	r3, [r7, #8]
 8000932:	68f9      	ldr	r1, [r7, #12]
 8000934:	4807      	ldr	r0, [pc, #28]	; (8000954 <software_reset+0x40>)
 8000936:	f001 fc47 	bl	80021c8 <perform_operation>
	perform_operation(&DEV_RST, hspi, config.GPIOx, config.GPIO_Pin);
 800093a:	687a      	ldr	r2, [r7, #4]
 800093c:	893b      	ldrh	r3, [r7, #8]
 800093e:	68f9      	ldr	r1, [r7, #12]
 8000940:	4805      	ldr	r0, [pc, #20]	; (8000958 <software_reset+0x44>)
 8000942:	f001 fc41 	bl	80021c8 <perform_operation>

	HAL_Delay(5);
 8000946:	2005      	movs	r0, #5
 8000948:	f002 f94a 	bl	8002be0 <HAL_Delay>
}
 800094c:	bf00      	nop
 800094e:	3710      	adds	r7, #16
 8000950:	46bd      	mov	sp, r7
 8000952:	bd80      	pop	{r7, pc}
 8000954:	20000013 	.word	0x20000013
 8000958:	20000014 	.word	0x20000014

0800095c <write_data_spi_dma>:
	spi_write_data(&FLASH_PGWR, PAGE_SIZE, page, hspi, addr, config.GPIOx, config.GPIO_Pin);

	return 0;
}

uint8_t write_data_spi_dma(uint8_t page[PAGE_SIZE], SPI_HandleTypeDef *hspi, uint32_t addr, GPIO_Config config) {
 800095c:	b082      	sub	sp, #8
 800095e:	b580      	push	{r7, lr}
 8000960:	b088      	sub	sp, #32
 8000962:	af04      	add	r7, sp, #16
 8000964:	60f8      	str	r0, [r7, #12]
 8000966:	60b9      	str	r1, [r7, #8]
 8000968:	607a      	str	r2, [r7, #4]
 800096a:	61fb      	str	r3, [r7, #28]
	check_busy(hspi, config, BSY_TIMEOUT_MS);
 800096c:	2305      	movs	r3, #5
 800096e:	f107 021c 	add.w	r2, r7, #28
 8000972:	ca06      	ldmia	r2, {r1, r2}
 8000974:	68b8      	ldr	r0, [r7, #8]
 8000976:	f7ff ff49 	bl	800080c <check_busy>

	// Send the write enable signal
	write_enable_spi(hspi, config);
 800097a:	f107 031c 	add.w	r3, r7, #28
 800097e:	e893 0006 	ldmia.w	r3, {r1, r2}
 8000982:	68b8      	ldr	r0, [r7, #8]
 8000984:	f7ff ffb2 	bl	80008ec <write_enable_spi>
	spi_write_data_dma(&FLASH_PGWR, PAGE_SIZE, page, hspi, addr, config.GPIOx, config.GPIO_Pin);
 8000988:	69fb      	ldr	r3, [r7, #28]
 800098a:	8c3a      	ldrh	r2, [r7, #32]
 800098c:	9202      	str	r2, [sp, #8]
 800098e:	9301      	str	r3, [sp, #4]
 8000990:	687b      	ldr	r3, [r7, #4]
 8000992:	9300      	str	r3, [sp, #0]
 8000994:	68bb      	ldr	r3, [r7, #8]
 8000996:	68fa      	ldr	r2, [r7, #12]
 8000998:	f44f 7180 	mov.w	r1, #256	; 0x100
 800099c:	4805      	ldr	r0, [pc, #20]	; (80009b4 <write_data_spi_dma+0x58>)
 800099e:	f001 fc7a 	bl	8002296 <spi_write_data_dma>

	return 0;
 80009a2:	2300      	movs	r3, #0
}
 80009a4:	4618      	mov	r0, r3
 80009a6:	3710      	adds	r7, #16
 80009a8:	46bd      	mov	sp, r7
 80009aa:	e8bd 4080 	ldmia.w	sp!, {r7, lr}
 80009ae:	b002      	add	sp, #8
 80009b0:	4770      	bx	lr
 80009b2:	bf00      	nop
 80009b4:	2000000e 	.word	0x2000000e

080009b8 <find_next_blank_page>:
 *      Author: aidencontini
 */

#include "data_read_spi.h"

uint32_t find_next_blank_page(SPI_HandleTypeDef *hspi, GPIO_PinState *end_of_flash_ptr, GPIO_Config config) {
 80009b8:	e92d 43f0 	stmdb	sp!, {r4, r5, r6, r7, r8, r9, lr}
 80009bc:	b091      	sub	sp, #68	; 0x44
 80009be:	af04      	add	r7, sp, #16
 80009c0:	60f8      	str	r0, [r7, #12]
 80009c2:	60b9      	str	r1, [r7, #8]
 80009c4:	4639      	mov	r1, r7
 80009c6:	e881 000c 	stmia.w	r1, {r2, r3}
 80009ca:	466b      	mov	r3, sp
 80009cc:	461e      	mov	r6, r3
	uint8_t firstBytes = 4;
 80009ce:	2304      	movs	r3, #4
 80009d0:	77fb      	strb	r3, [r7, #31]

	uint8_t page_start[firstBytes];
 80009d2:	7ff9      	ldrb	r1, [r7, #31]
 80009d4:	460b      	mov	r3, r1
 80009d6:	3b01      	subs	r3, #1
 80009d8:	61bb      	str	r3, [r7, #24]
 80009da:	b2cb      	uxtb	r3, r1
 80009dc:	2200      	movs	r2, #0
 80009de:	4698      	mov	r8, r3
 80009e0:	4691      	mov	r9, r2
 80009e2:	f04f 0200 	mov.w	r2, #0
 80009e6:	f04f 0300 	mov.w	r3, #0
 80009ea:	ea4f 03c9 	mov.w	r3, r9, lsl #3
 80009ee:	ea43 7358 	orr.w	r3, r3, r8, lsr #29
 80009f2:	ea4f 02c8 	mov.w	r2, r8, lsl #3
 80009f6:	b2cb      	uxtb	r3, r1
 80009f8:	2200      	movs	r2, #0
 80009fa:	461c      	mov	r4, r3
 80009fc:	4615      	mov	r5, r2
 80009fe:	f04f 0200 	mov.w	r2, #0
 8000a02:	f04f 0300 	mov.w	r3, #0
 8000a06:	00eb      	lsls	r3, r5, #3
 8000a08:	ea43 7354 	orr.w	r3, r3, r4, lsr #29
 8000a0c:	00e2      	lsls	r2, r4, #3
 8000a0e:	460b      	mov	r3, r1
 8000a10:	3307      	adds	r3, #7
 8000a12:	08db      	lsrs	r3, r3, #3
 8000a14:	00db      	lsls	r3, r3, #3
 8000a16:	ebad 0d03 	sub.w	sp, sp, r3
 8000a1a:	ab04      	add	r3, sp, #16
 8000a1c:	3300      	adds	r3, #0
 8000a1e:	617b      	str	r3, [r7, #20]
	for (int i = 0; i < firstBytes; i++) {
 8000a20:	2300      	movs	r3, #0
 8000a22:	62fb      	str	r3, [r7, #44]	; 0x2c
 8000a24:	e007      	b.n	8000a36 <find_next_blank_page+0x7e>
		page_start[i] = 0;
 8000a26:	697a      	ldr	r2, [r7, #20]
 8000a28:	6afb      	ldr	r3, [r7, #44]	; 0x2c
 8000a2a:	4413      	add	r3, r2
 8000a2c:	2200      	movs	r2, #0
 8000a2e:	701a      	strb	r2, [r3, #0]
	for (int i = 0; i < firstBytes; i++) {
 8000a30:	6afb      	ldr	r3, [r7, #44]	; 0x2c
 8000a32:	3301      	adds	r3, #1
 8000a34:	62fb      	str	r3, [r7, #44]	; 0x2c
 8000a36:	7ffb      	ldrb	r3, [r7, #31]
 8000a38:	6afa      	ldr	r2, [r7, #44]	; 0x2c
 8000a3a:	429a      	cmp	r2, r3
 8000a3c:	dbf3      	blt.n	8000a26 <find_next_blank_page+0x6e>
	}

	uint32_t page_start_concat = (page_start[0] << 24) | (page_start[1] << 16) | (page_start[2] << 8) | page_start[3];
 8000a3e:	697b      	ldr	r3, [r7, #20]
 8000a40:	781b      	ldrb	r3, [r3, #0]
 8000a42:	061a      	lsls	r2, r3, #24
 8000a44:	697b      	ldr	r3, [r7, #20]
 8000a46:	785b      	ldrb	r3, [r3, #1]
 8000a48:	041b      	lsls	r3, r3, #16
 8000a4a:	431a      	orrs	r2, r3
 8000a4c:	697b      	ldr	r3, [r7, #20]
 8000a4e:	789b      	ldrb	r3, [r3, #2]
 8000a50:	021b      	lsls	r3, r3, #8
 8000a52:	4313      	orrs	r3, r2
 8000a54:	697a      	ldr	r2, [r7, #20]
 8000a56:	78d2      	ldrb	r2, [r2, #3]
 8000a58:	4313      	orrs	r3, r2
 8000a5a:	62bb      	str	r3, [r7, #40]	; 0x28
	uint32_t temp = 0;
 8000a5c:	2300      	movs	r3, #0
 8000a5e:	627b      	str	r3, [r7, #36]	; 0x24
	uint32_t page_address = temp;
 8000a60:	6a7b      	ldr	r3, [r7, #36]	; 0x24
 8000a62:	623b      	str	r3, [r7, #32]

	while ((page_start_concat != 0xFFFFFFFF) || (temp == NUM_OF_PAGES)) {
 8000a64:	e027      	b.n	8000ab6 <find_next_blank_page+0xfe>
		page_address = temp;
 8000a66:	6a7b      	ldr	r3, [r7, #36]	; 0x24
 8000a68:	623b      	str	r3, [r7, #32]

		check_busy(hspi, config, BSY_TIMEOUT_MS);
 8000a6a:	2305      	movs	r3, #5
 8000a6c:	463a      	mov	r2, r7
 8000a6e:	ca06      	ldmia	r2, {r1, r2}
 8000a70:	68f8      	ldr	r0, [r7, #12]
 8000a72:	f7ff fecb 	bl	800080c <check_busy>

		spi_read_data(&FLASH_READEN, firstBytes, page_start, hspi, page_address, config.GPIOx, config.GPIO_Pin);
 8000a76:	7ffb      	ldrb	r3, [r7, #31]
 8000a78:	b299      	uxth	r1, r3
 8000a7a:	683b      	ldr	r3, [r7, #0]
 8000a7c:	88ba      	ldrh	r2, [r7, #4]
 8000a7e:	9202      	str	r2, [sp, #8]
 8000a80:	9301      	str	r3, [sp, #4]
 8000a82:	6a3b      	ldr	r3, [r7, #32]
 8000a84:	9300      	str	r3, [sp, #0]
 8000a86:	68fb      	ldr	r3, [r7, #12]
 8000a88:	697a      	ldr	r2, [r7, #20]
 8000a8a:	4816      	ldr	r0, [pc, #88]	; (8000ae4 <find_next_blank_page+0x12c>)
 8000a8c:	f001 fbbc 	bl	8002208 <spi_read_data>

		page_start_concat = (page_start[0] << 24) | (page_start[1] << 16) | (page_start[2] << 8) | page_start[3];
 8000a90:	697b      	ldr	r3, [r7, #20]
 8000a92:	781b      	ldrb	r3, [r3, #0]
 8000a94:	061a      	lsls	r2, r3, #24
 8000a96:	697b      	ldr	r3, [r7, #20]
 8000a98:	785b      	ldrb	r3, [r3, #1]
 8000a9a:	041b      	lsls	r3, r3, #16
 8000a9c:	431a      	orrs	r2, r3
 8000a9e:	697b      	ldr	r3, [r7, #20]
 8000aa0:	789b      	ldrb	r3, [r3, #2]
 8000aa2:	021b      	lsls	r3, r3, #8
 8000aa4:	4313      	orrs	r3, r2
 8000aa6:	697a      	ldr	r2, [r7, #20]
 8000aa8:	78d2      	ldrb	r2, [r2, #3]
 8000aaa:	4313      	orrs	r3, r2
 8000aac:	62bb      	str	r3, [r7, #40]	; 0x28
		temp += PAGE_SIZE;
 8000aae:	6a7b      	ldr	r3, [r7, #36]	; 0x24
 8000ab0:	f503 7380 	add.w	r3, r3, #256	; 0x100
 8000ab4:	627b      	str	r3, [r7, #36]	; 0x24
	while ((page_start_concat != 0xFFFFFFFF) || (temp == NUM_OF_PAGES)) {
 8000ab6:	6abb      	ldr	r3, [r7, #40]	; 0x28
 8000ab8:	f1b3 3fff 	cmp.w	r3, #4294967295	; 0xffffffff
 8000abc:	d1d3      	bne.n	8000a66 <find_next_blank_page+0xae>
 8000abe:	6a7b      	ldr	r3, [r7, #36]	; 0x24
 8000ac0:	f5b3 3f80 	cmp.w	r3, #65536	; 0x10000
 8000ac4:	d0cf      	beq.n	8000a66 <find_next_blank_page+0xae>
	}

	if (page_address == (NUM_OF_PAGES * PAGE_SIZE)) {
 8000ac6:	6a3b      	ldr	r3, [r7, #32]
 8000ac8:	f1b3 7f80 	cmp.w	r3, #16777216	; 0x1000000
 8000acc:	d102      	bne.n	8000ad4 <find_next_blank_page+0x11c>
		*end_of_flash_ptr = GPIO_PIN_RESET;
 8000ace:	68bb      	ldr	r3, [r7, #8]
 8000ad0:	2200      	movs	r2, #0
 8000ad2:	701a      	strb	r2, [r3, #0]
	}
	return page_address;
 8000ad4:	6a3b      	ldr	r3, [r7, #32]
 8000ad6:	46b5      	mov	sp, r6
}
 8000ad8:	4618      	mov	r0, r3
 8000ada:	3734      	adds	r7, #52	; 0x34
 8000adc:	46bd      	mov	sp, r7
 8000ade:	e8bd 83f0 	ldmia.w	sp!, {r4, r5, r6, r7, r8, r9, pc}
 8000ae2:	bf00      	nop
 8000ae4:	20000010 	.word	0x20000010

08000ae8 <read_page_spi>:

void read_page_spi(uint8_t data_read[PAGE_SIZE], SPI_HandleTypeDef *hspi, uint32_t addr, GPIO_Config config) {
 8000ae8:	b082      	sub	sp, #8
 8000aea:	b580      	push	{r7, lr}
 8000aec:	b088      	sub	sp, #32
 8000aee:	af04      	add	r7, sp, #16
 8000af0:	60f8      	str	r0, [r7, #12]
 8000af2:	60b9      	str	r1, [r7, #8]
 8000af4:	607a      	str	r2, [r7, #4]
 8000af6:	61fb      	str	r3, [r7, #28]

	// Read the status register to ensure no write is currently in progress
	check_busy(hspi, config, BSY_TIMEOUT_MS);
 8000af8:	2305      	movs	r3, #5
 8000afa:	f107 021c 	add.w	r2, r7, #28
 8000afe:	ca06      	ldmia	r2, {r1, r2}
 8000b00:	68b8      	ldr	r0, [r7, #8]
 8000b02:	f7ff fe83 	bl	800080c <check_busy>
	spi_read_data(&FLASH_READEN, PAGE_SIZE, data_read, hspi, addr, config.GPIOx, config.GPIO_Pin);
 8000b06:	69fb      	ldr	r3, [r7, #28]
 8000b08:	8c3a      	ldrh	r2, [r7, #32]
 8000b0a:	9202      	str	r2, [sp, #8]
 8000b0c:	9301      	str	r3, [sp, #4]
 8000b0e:	687b      	ldr	r3, [r7, #4]
 8000b10:	9300      	str	r3, [sp, #0]
 8000b12:	68bb      	ldr	r3, [r7, #8]
 8000b14:	68fa      	ldr	r2, [r7, #12]
 8000b16:	f44f 7180 	mov.w	r1, #256	; 0x100
 8000b1a:	4805      	ldr	r0, [pc, #20]	; (8000b30 <read_page_spi+0x48>)
 8000b1c:	f001 fb74 	bl	8002208 <spi_read_data>
}
 8000b20:	bf00      	nop
 8000b22:	3710      	adds	r7, #16
 8000b24:	46bd      	mov	sp, r7
 8000b26:	e8bd 4080 	ldmia.w	sp!, {r7, lr}
 8000b2a:	b002      	add	sp, #8
 8000b2c:	4770      	bx	lr
 8000b2e:	bf00      	nop
 8000b30:	20000010 	.word	0x20000010

08000b34 <read_manufacturer_id>:

void read_manufacturer_id(uint8_t manu[2], SPI_HandleTypeDef *hspi, GPIO_Config config) {
 8000b34:	b580      	push	{r7, lr}
 8000b36:	b08a      	sub	sp, #40	; 0x28
 8000b38:	af04      	add	r7, sp, #16
 8000b3a:	60f8      	str	r0, [r7, #12]
 8000b3c:	60b9      	str	r1, [r7, #8]
 8000b3e:	4639      	mov	r1, r7
 8000b40:	e881 000c 	stmia.w	r1, {r2, r3}

	// Read the status register to ensure no write is currently in progress
	check_busy(hspi, config, BSY_TIMEOUT_MS);
 8000b44:	2305      	movs	r3, #5
 8000b46:	463a      	mov	r2, r7
 8000b48:	ca06      	ldmia	r2, {r1, r2}
 8000b4a:	68b8      	ldr	r0, [r7, #8]
 8000b4c:	f7ff fe5e 	bl	800080c <check_busy>

	// Read the entire contents of a page starting from the given address
	uint8_t addr = 0x00;
 8000b50:	2300      	movs	r3, #0
 8000b52:	75fb      	strb	r3, [r7, #23]
	spi_read_data(&FLASH_READ_MANU, 2, manu, hspi, addr, config.GPIOx, config.GPIO_Pin);
 8000b54:	7dfb      	ldrb	r3, [r7, #23]
 8000b56:	683a      	ldr	r2, [r7, #0]
 8000b58:	88b9      	ldrh	r1, [r7, #4]
 8000b5a:	9102      	str	r1, [sp, #8]
 8000b5c:	9201      	str	r2, [sp, #4]
 8000b5e:	9300      	str	r3, [sp, #0]
 8000b60:	68bb      	ldr	r3, [r7, #8]
 8000b62:	68fa      	ldr	r2, [r7, #12]
 8000b64:	2102      	movs	r1, #2
 8000b66:	4803      	ldr	r0, [pc, #12]	; (8000b74 <read_manufacturer_id+0x40>)
 8000b68:	f001 fb4e 	bl	8002208 <spi_read_data>
}
 8000b6c:	bf00      	nop
 8000b6e:	3718      	adds	r7, #24
 8000b70:	46bd      	mov	sp, r7
 8000b72:	bd80      	pop	{r7, pc}
 8000b74:	20000011 	.word	0x20000011

08000b78 <create_GPIO_Config>:
 */

#include "gpio_struct.h"

// Function to initialize the GPIO_Config struct
GPIO_Config create_GPIO_Config(GPIO_TypeDef* GPIOx, uint16_t GPIO_Pin) {
 8000b78:	b480      	push	{r7}
 8000b7a:	b087      	sub	sp, #28
 8000b7c:	af00      	add	r7, sp, #0
 8000b7e:	60f8      	str	r0, [r7, #12]
 8000b80:	60b9      	str	r1, [r7, #8]
 8000b82:	4613      	mov	r3, r2
 8000b84:	80fb      	strh	r3, [r7, #6]
    GPIO_Config new_config;
    new_config.GPIOx = GPIOx;
 8000b86:	68bb      	ldr	r3, [r7, #8]
 8000b88:	613b      	str	r3, [r7, #16]
    new_config.GPIO_Pin = GPIO_Pin;
 8000b8a:	88fb      	ldrh	r3, [r7, #6]
 8000b8c:	82bb      	strh	r3, [r7, #20]
    return new_config;
 8000b8e:	68fb      	ldr	r3, [r7, #12]
 8000b90:	461a      	mov	r2, r3
 8000b92:	f107 0310 	add.w	r3, r7, #16
 8000b96:	e893 0003 	ldmia.w	r3, {r0, r1}
 8000b9a:	e882 0003 	stmia.w	r2, {r0, r1}
}
 8000b9e:	68f8      	ldr	r0, [r7, #12]
 8000ba0:	371c      	adds	r7, #28
 8000ba2:	46bd      	mov	sp, r7
 8000ba4:	f85d 7b04 	ldr.w	r7, [sp], #4
 8000ba8:	4770      	bx	lr

08000baa <i2c_read_reg>:
 *      Author: aidencontini
 */

#include "i2c_driver.h"

HAL_StatusTypeDef i2c_read_reg(I2C_HandleTypeDef* hi2c, uint8_t* data_ptr, uint8_t dev_addr, uint8_t* register_addr) {
 8000baa:	b580      	push	{r7, lr}
 8000bac:	b088      	sub	sp, #32
 8000bae:	af02      	add	r7, sp, #8
 8000bb0:	60f8      	str	r0, [r7, #12]
 8000bb2:	60b9      	str	r1, [r7, #8]
 8000bb4:	603b      	str	r3, [r7, #0]
 8000bb6:	4613      	mov	r3, r2
 8000bb8:	71fb      	strb	r3, [r7, #7]
	HAL_I2C_Master_Transmit(hi2c, (dev_addr << 1) & 0xFE, register_addr, 1, I2C_TIMEOUT_SML);
 8000bba:	79fb      	ldrb	r3, [r7, #7]
 8000bbc:	005b      	lsls	r3, r3, #1
 8000bbe:	b29b      	uxth	r3, r3
 8000bc0:	b2db      	uxtb	r3, r3
 8000bc2:	b299      	uxth	r1, r3
 8000bc4:	2301      	movs	r3, #1
 8000bc6:	9300      	str	r3, [sp, #0]
 8000bc8:	2301      	movs	r3, #1
 8000bca:	683a      	ldr	r2, [r7, #0]
 8000bcc:	68f8      	ldr	r0, [r7, #12]
 8000bce:	f003 f977 	bl	8003ec0 <HAL_I2C_Master_Transmit>
	HAL_StatusTypeDef hal_status = HAL_I2C_Master_Receive(hi2c, (dev_addr << 1) | 0x01, data_ptr, 1, I2C_TIMEOUT_SML);
 8000bd2:	79fb      	ldrb	r3, [r7, #7]
 8000bd4:	005b      	lsls	r3, r3, #1
 8000bd6:	b21b      	sxth	r3, r3
 8000bd8:	f043 0301 	orr.w	r3, r3, #1
 8000bdc:	b21b      	sxth	r3, r3
 8000bde:	b299      	uxth	r1, r3
 8000be0:	2301      	movs	r3, #1
 8000be2:	9300      	str	r3, [sp, #0]
 8000be4:	2301      	movs	r3, #1
 8000be6:	68ba      	ldr	r2, [r7, #8]
 8000be8:	68f8      	ldr	r0, [r7, #12]
 8000bea:	f003 fa67 	bl	80040bc <HAL_I2C_Master_Receive>
 8000bee:	4603      	mov	r3, r0
 8000bf0:	75fb      	strb	r3, [r7, #23]
	return hal_status;
 8000bf2:	7dfb      	ldrb	r3, [r7, #23]
}
 8000bf4:	4618      	mov	r0, r3
 8000bf6:	3718      	adds	r7, #24
 8000bf8:	46bd      	mov	sp, r7
 8000bfa:	bd80      	pop	{r7, pc}

08000bfc <i2c_burst_read>:

HAL_StatusTypeDef i2c_burst_read(I2C_HandleTypeDef* hi2c, uint8_t dev_addr, uint8_t register_addr, uint8_t size, uint8_t data_buffer[size]) {
 8000bfc:	b580      	push	{r7, lr}
 8000bfe:	b086      	sub	sp, #24
 8000c00:	af02      	add	r7, sp, #8
 8000c02:	6078      	str	r0, [r7, #4]
 8000c04:	4608      	mov	r0, r1
 8000c06:	4611      	mov	r1, r2
 8000c08:	461a      	mov	r2, r3
 8000c0a:	4603      	mov	r3, r0
 8000c0c:	70fb      	strb	r3, [r7, #3]
 8000c0e:	460b      	mov	r3, r1
 8000c10:	70bb      	strb	r3, [r7, #2]
 8000c12:	4613      	mov	r3, r2
 8000c14:	707b      	strb	r3, [r7, #1]
	// In order to read multiple bytes, it is necessary to assert the most significant bit of the sub-address field.
	uint8_t addr = register_addr | 0x80;
 8000c16:	78bb      	ldrb	r3, [r7, #2]
 8000c18:	f063 037f 	orn	r3, r3, #127	; 0x7f
 8000c1c:	b2db      	uxtb	r3, r3
 8000c1e:	73bb      	strb	r3, [r7, #14]
	HAL_I2C_Master_Transmit(hi2c, (dev_addr << 1) & 0xFE, &addr, 1, I2C_TIMEOUT_SML);
 8000c20:	78fb      	ldrb	r3, [r7, #3]
 8000c22:	005b      	lsls	r3, r3, #1
 8000c24:	b29b      	uxth	r3, r3
 8000c26:	b2db      	uxtb	r3, r3
 8000c28:	b299      	uxth	r1, r3
 8000c2a:	f107 020e 	add.w	r2, r7, #14
 8000c2e:	2301      	movs	r3, #1
 8000c30:	9300      	str	r3, [sp, #0]
 8000c32:	2301      	movs	r3, #1
 8000c34:	6878      	ldr	r0, [r7, #4]
 8000c36:	f003 f943 	bl	8003ec0 <HAL_I2C_Master_Transmit>
	HAL_StatusTypeDef hal_status =  HAL_I2C_Master_Receive(hi2c, (dev_addr << 1) | 0x01, data_buffer, size, I2C_TIMEOUT_LRG);
 8000c3a:	78fb      	ldrb	r3, [r7, #3]
 8000c3c:	005b      	lsls	r3, r3, #1
 8000c3e:	b21b      	sxth	r3, r3
 8000c40:	f043 0301 	orr.w	r3, r3, #1
 8000c44:	b21b      	sxth	r3, r3
 8000c46:	b299      	uxth	r1, r3
 8000c48:	787b      	ldrb	r3, [r7, #1]
 8000c4a:	b29b      	uxth	r3, r3
 8000c4c:	220a      	movs	r2, #10
 8000c4e:	9200      	str	r2, [sp, #0]
 8000c50:	69ba      	ldr	r2, [r7, #24]
 8000c52:	6878      	ldr	r0, [r7, #4]
 8000c54:	f003 fa32 	bl	80040bc <HAL_I2C_Master_Receive>
 8000c58:	4603      	mov	r3, r0
 8000c5a:	73fb      	strb	r3, [r7, #15]
	return hal_status;
 8000c5c:	7bfb      	ldrb	r3, [r7, #15]
}
 8000c5e:	4618      	mov	r0, r3
 8000c60:	3710      	adds	r7, #16
 8000c62:	46bd      	mov	sp, r7
 8000c64:	bd80      	pop	{r7, pc}

08000c66 <i2c_write_reg>:
	HAL_I2C_Master_Transmit(hi2c, (dev_addr << 1) & 0xFE, &addr, 1, I2C_TIMEOUT_SML);
	HAL_StatusTypeDef hal_status =  HAL_I2C_Master_Receive(hi2c, (dev_addr << 1) | 0x01, data_buffer, size, I2C_TIMEOUT_LRG);
	return hal_status;
}

HAL_StatusTypeDef i2c_write_reg(I2C_HandleTypeDef* hi2c, uint8_t dev_addr, uint8_t* register_addr, uint8_t data) {
 8000c66:	b580      	push	{r7, lr}
 8000c68:	b088      	sub	sp, #32
 8000c6a:	af02      	add	r7, sp, #8
 8000c6c:	60f8      	str	r0, [r7, #12]
 8000c6e:	607a      	str	r2, [r7, #4]
 8000c70:	461a      	mov	r2, r3
 8000c72:	460b      	mov	r3, r1
 8000c74:	72fb      	strb	r3, [r7, #11]
 8000c76:	4613      	mov	r3, r2
 8000c78:	72bb      	strb	r3, [r7, #10]
	uint8_t data_tx[2] = {*register_addr, data};
 8000c7a:	687b      	ldr	r3, [r7, #4]
 8000c7c:	781b      	ldrb	r3, [r3, #0]
 8000c7e:	753b      	strb	r3, [r7, #20]
 8000c80:	7abb      	ldrb	r3, [r7, #10]
 8000c82:	757b      	strb	r3, [r7, #21]
	HAL_StatusTypeDef hal_status = HAL_I2C_Master_Transmit(hi2c, (dev_addr << 1) & 0xFE, data_tx, 2, I2C_TIMEOUT_SML);
 8000c84:	7afb      	ldrb	r3, [r7, #11]
 8000c86:	005b      	lsls	r3, r3, #1
 8000c88:	b29b      	uxth	r3, r3
 8000c8a:	b2db      	uxtb	r3, r3
 8000c8c:	b299      	uxth	r1, r3
 8000c8e:	f107 0214 	add.w	r2, r7, #20
 8000c92:	2301      	movs	r3, #1
 8000c94:	9300      	str	r3, [sp, #0]
 8000c96:	2302      	movs	r3, #2
 8000c98:	68f8      	ldr	r0, [r7, #12]
 8000c9a:	f003 f911 	bl	8003ec0 <HAL_I2C_Master_Transmit>
 8000c9e:	4603      	mov	r3, r0
 8000ca0:	75fb      	strb	r3, [r7, #23]
	return hal_status;
 8000ca2:	7dfb      	ldrb	r3, [r7, #23]
}
 8000ca4:	4618      	mov	r0, r3
 8000ca6:	3718      	adds	r7, #24
 8000ca8:	46bd      	mov	sp, r7
 8000caa:	bd80      	pop	{r7, pc}

08000cac <main>:
/**
  * @brief  The application entry point.
  * @retval int
  */
int main(void)
{
 8000cac:	b580      	push	{r7, lr}
 8000cae:	b084      	sub	sp, #16
 8000cb0:	af02      	add	r7, sp, #8
  /* USER CODE END 1 */

  /* MCU Configuration--------------------------------------------------------*/

  /* Reset of all peripherals, Initializes the Flash interface and the Systick. */
  HAL_Init();
 8000cb2:	f001 ff23 	bl	8002afc <HAL_Init>
  /* USER CODE BEGIN Init */

  /* USER CODE END Init */

  /* Configure the system clock */
  SystemClock_Config();
 8000cb6:	f000 f8d5 	bl	8000e64 <SystemClock_Config>
  /* USER CODE BEGIN SysInit */

  /* USER CODE END SysInit */

  /* Initialize all configured peripherals */
  MX_GPIO_Init();
 8000cba:	f000 fb4b 	bl	8001354 <MX_GPIO_Init>
  MX_DMA_Init();
 8000cbe:	f000 fb13 	bl	80012e8 <MX_DMA_Init>
  MX_I2C1_Init();
 8000cc2:	f000 f969 	bl	8000f98 <MX_I2C1_Init>
  MX_RTC_Init();
 8000cc6:	f000 f9e7 	bl	8001098 <MX_RTC_Init>
  MX_SPI1_Init();
 8000cca:	f000 fa0b 	bl	80010e4 <MX_SPI1_Init>
  MX_TIM6_Init();
 8000cce:	f000 fa75 	bl	80011bc <MX_TIM6_Init>
  MX_USART2_UART_Init();
 8000cd2:	f000 fadf 	bl	8001294 <MX_USART2_UART_Init>
  MX_I2C2_Init();
 8000cd6:	f000 f99f 	bl	8001018 <MX_I2C2_Init>
  MX_SPI2_Init();
 8000cda:	f000 fa39 	bl	8001150 <MX_SPI2_Init>
  MX_CAN2_Init();
 8000cde:	f000 f923 	bl	8000f28 <MX_CAN2_Init>
  MX_TIM7_Init();
 8000ce2:	f000 faa1 	bl	8001228 <MX_TIM7_Init>
  /* USER CODE BEGIN 2 */
  systemInit();
 8000ce6:	f000 fc15 	bl	8001514 <systemInit>
  {
    /* USER CODE END WHILE */

    /* USER CODE BEGIN 3 */
	  // Handle UART receive flag
	  if(uart2_rec_flag == 0x01) {
 8000cea:	4b4b      	ldr	r3, [pc, #300]	; (8000e18 <main+0x16c>)
 8000cec:	781b      	ldrb	r3, [r3, #0]
 8000cee:	2b01      	cmp	r3, #1
 8000cf0:	d101      	bne.n	8000cf6 <main+0x4a>
		  handleUART();
 8000cf2:	f000 fd6d 	bl	80017d0 <handleUART>
	  }

	  if (tim7_overflow_flag == 0x01) {
 8000cf6:	4b49      	ldr	r3, [pc, #292]	; (8000e1c <main+0x170>)
 8000cf8:	781b      	ldrb	r3, [r3, #0]
 8000cfa:	2b01      	cmp	r3, #1
 8000cfc:	d116      	bne.n	8000d2c <main+0x80>
		  HAL_GPIO_TogglePin(led_orange.GPIOx, led_orange.GPIO_Pin);		// Toggle LED
 8000cfe:	4b48      	ldr	r3, [pc, #288]	; (8000e20 <main+0x174>)
 8000d00:	681b      	ldr	r3, [r3, #0]
 8000d02:	4a47      	ldr	r2, [pc, #284]	; (8000e20 <main+0x174>)
 8000d04:	8892      	ldrh	r2, [r2, #4]
 8000d06:	4611      	mov	r1, r2
 8000d08:	4618      	mov	r0, r3
 8000d0a:	f002 ff7a 	bl	8003c02 <HAL_GPIO_TogglePin>
		  sysStatus = systemStatus(&hspi1, &hspi2, i2c_bme280, i2c_accel);
 8000d0e:	4b45      	ldr	r3, [pc, #276]	; (8000e24 <main+0x178>)
 8000d10:	681a      	ldr	r2, [r3, #0]
 8000d12:	4b45      	ldr	r3, [pc, #276]	; (8000e28 <main+0x17c>)
 8000d14:	681b      	ldr	r3, [r3, #0]
 8000d16:	4945      	ldr	r1, [pc, #276]	; (8000e2c <main+0x180>)
 8000d18:	4845      	ldr	r0, [pc, #276]	; (8000e30 <main+0x184>)
 8000d1a:	f000 fe9d 	bl	8001a58 <systemStatus>
 8000d1e:	4603      	mov	r3, r0
 8000d20:	461a      	mov	r2, r3
 8000d22:	4b44      	ldr	r3, [pc, #272]	; (8000e34 <main+0x188>)
 8000d24:	701a      	strb	r2, [r3, #0]
		  tim7_overflow_flag = 0x00;
 8000d26:	4b3d      	ldr	r3, [pc, #244]	; (8000e1c <main+0x170>)
 8000d28:	2200      	movs	r2, #0
 8000d2a:	701a      	strb	r2, [r3, #0]
	  }

	  // Handle Timer 6 overflow flag
	  if(tim6_overflow_flag == 0x01) {
 8000d2c:	4b42      	ldr	r3, [pc, #264]	; (8000e38 <main+0x18c>)
 8000d2e:	781b      	ldrb	r3, [r3, #0]
 8000d30:	2b01      	cmp	r3, #1
 8000d32:	d10a      	bne.n	8000d4a <main+0x9e>
		  readAllSensors(i2c_accel, i2c_bme280, &hrtc);
 8000d34:	4b3c      	ldr	r3, [pc, #240]	; (8000e28 <main+0x17c>)
 8000d36:	681b      	ldr	r3, [r3, #0]
 8000d38:	4a3a      	ldr	r2, [pc, #232]	; (8000e24 <main+0x178>)
 8000d3a:	6811      	ldr	r1, [r2, #0]
 8000d3c:	4a3f      	ldr	r2, [pc, #252]	; (8000e3c <main+0x190>)
 8000d3e:	4618      	mov	r0, r3
 8000d40:	f001 f8f0 	bl	8001f24 <readAllSensors>
		  tim6_overflow_flag = 0x00;
 8000d44:	4b3c      	ldr	r3, [pc, #240]	; (8000e38 <main+0x18c>)
 8000d46:	2200      	movs	r2, #0
 8000d48:	701a      	strb	r2, [r3, #0]
	  }

	  // Write data to flash when buffer is full
	  if(byte_tracker > (PAGE_SIZE - READ_SIZE)) {
 8000d4a:	4b3d      	ldr	r3, [pc, #244]	; (8000e40 <main+0x194>)
 8000d4c:	881b      	ldrh	r3, [r3, #0]
 8000d4e:	2bec      	cmp	r3, #236	; 0xec
 8000d50:	d952      	bls.n	8000df8 <main+0x14c>
		  GPIO_PinState flight_mode = HAL_GPIO_ReadPin(jmp_flight.GPIOx, jmp_flight.GPIO_Pin);
 8000d52:	4b3c      	ldr	r3, [pc, #240]	; (8000e44 <main+0x198>)
 8000d54:	681b      	ldr	r3, [r3, #0]
 8000d56:	4a3b      	ldr	r2, [pc, #236]	; (8000e44 <main+0x198>)
 8000d58:	8892      	ldrh	r2, [r2, #4]
 8000d5a:	4611      	mov	r1, r2
 8000d5c:	4618      	mov	r0, r3
 8000d5e:	f002 ff1f 	bl	8003ba0 <HAL_GPIO_ReadPin>
 8000d62:	4603      	mov	r3, r0
 8000d64:	71fb      	strb	r3, [r7, #7]
		  if((flight_mode & !(end_of_flash)) == GPIO_PIN_SET) {
 8000d66:	79fb      	ldrb	r3, [r7, #7]
 8000d68:	4a37      	ldr	r2, [pc, #220]	; (8000e48 <main+0x19c>)
 8000d6a:	7812      	ldrb	r2, [r2, #0]
 8000d6c:	2a00      	cmp	r2, #0
 8000d6e:	bf0c      	ite	eq
 8000d70:	2201      	moveq	r2, #1
 8000d72:	2200      	movne	r2, #0
 8000d74:	b2d2      	uxtb	r2, r2
 8000d76:	4013      	ands	r3, r2
 8000d78:	2b01      	cmp	r3, #1
 8000d7a:	d133      	bne.n	8000de4 <main+0x138>
			  HAL_GPIO_WritePin(led_green.GPIOx, led_green.GPIO_Pin, GPIO_PIN_SET);		// Toggle LED when writing data
 8000d7c:	4b33      	ldr	r3, [pc, #204]	; (8000e4c <main+0x1a0>)
 8000d7e:	681b      	ldr	r3, [r3, #0]
 8000d80:	4a32      	ldr	r2, [pc, #200]	; (8000e4c <main+0x1a0>)
 8000d82:	8891      	ldrh	r1, [r2, #4]
 8000d84:	2201      	movs	r2, #1
 8000d86:	4618      	mov	r0, r3
 8000d88:	f002 ff22 	bl	8003bd0 <HAL_GPIO_WritePin>

			  write_data_spi_dma(data_buffer_tx[buffer_tracker], &hspi1, next_blank_page, cs_spi1);
 8000d8c:	4b30      	ldr	r3, [pc, #192]	; (8000e50 <main+0x1a4>)
 8000d8e:	781b      	ldrb	r3, [r3, #0]
 8000d90:	021b      	lsls	r3, r3, #8
 8000d92:	4a30      	ldr	r2, [pc, #192]	; (8000e54 <main+0x1a8>)
 8000d94:	1898      	adds	r0, r3, r2
 8000d96:	4b30      	ldr	r3, [pc, #192]	; (8000e58 <main+0x1ac>)
 8000d98:	6819      	ldr	r1, [r3, #0]
 8000d9a:	4b30      	ldr	r3, [pc, #192]	; (8000e5c <main+0x1b0>)
 8000d9c:	685a      	ldr	r2, [r3, #4]
 8000d9e:	9200      	str	r2, [sp, #0]
 8000da0:	681b      	ldr	r3, [r3, #0]
 8000da2:	460a      	mov	r2, r1
 8000da4:	4922      	ldr	r1, [pc, #136]	; (8000e30 <main+0x184>)
 8000da6:	f7ff fdd9 	bl	800095c <write_data_spi_dma>
			  write_data_spi_dma(data_buffer_tx[buffer_tracker], &hspi2, next_blank_page, cs_spi2);
 8000daa:	4b29      	ldr	r3, [pc, #164]	; (8000e50 <main+0x1a4>)
 8000dac:	781b      	ldrb	r3, [r3, #0]
 8000dae:	021b      	lsls	r3, r3, #8
 8000db0:	4a28      	ldr	r2, [pc, #160]	; (8000e54 <main+0x1a8>)
 8000db2:	1898      	adds	r0, r3, r2
 8000db4:	4b28      	ldr	r3, [pc, #160]	; (8000e58 <main+0x1ac>)
 8000db6:	6819      	ldr	r1, [r3, #0]
 8000db8:	4b29      	ldr	r3, [pc, #164]	; (8000e60 <main+0x1b4>)
 8000dba:	685a      	ldr	r2, [r3, #4]
 8000dbc:	9200      	str	r2, [sp, #0]
 8000dbe:	681b      	ldr	r3, [r3, #0]
 8000dc0:	460a      	mov	r2, r1
 8000dc2:	491a      	ldr	r1, [pc, #104]	; (8000e2c <main+0x180>)
 8000dc4:	f7ff fdca 	bl	800095c <write_data_spi_dma>
			  next_blank_page += PAGE_SIZE;
 8000dc8:	4b23      	ldr	r3, [pc, #140]	; (8000e58 <main+0x1ac>)
 8000dca:	681b      	ldr	r3, [r3, #0]
 8000dcc:	f503 7380 	add.w	r3, r3, #256	; 0x100
 8000dd0:	4a21      	ldr	r2, [pc, #132]	; (8000e58 <main+0x1ac>)
 8000dd2:	6013      	str	r3, [r2, #0]

			  HAL_GPIO_WritePin(led_green.GPIOx, led_green.GPIO_Pin, GPIO_PIN_RESET);		// Toggle LED when writing data
 8000dd4:	4b1d      	ldr	r3, [pc, #116]	; (8000e4c <main+0x1a0>)
 8000dd6:	681b      	ldr	r3, [r3, #0]
 8000dd8:	4a1c      	ldr	r2, [pc, #112]	; (8000e4c <main+0x1a0>)
 8000dda:	8891      	ldrh	r1, [r2, #4]
 8000ddc:	2200      	movs	r2, #0
 8000dde:	4618      	mov	r0, r3
 8000de0:	f002 fef6 	bl	8003bd0 <HAL_GPIO_WritePin>
		  }

		// Reset the buffer trackers
		buffer_tracker = buffer_tracker ^ 0x01;
 8000de4:	4b1a      	ldr	r3, [pc, #104]	; (8000e50 <main+0x1a4>)
 8000de6:	781b      	ldrb	r3, [r3, #0]
 8000de8:	f083 0301 	eor.w	r3, r3, #1
 8000dec:	b2da      	uxtb	r2, r3
 8000dee:	4b18      	ldr	r3, [pc, #96]	; (8000e50 <main+0x1a4>)
 8000df0:	701a      	strb	r2, [r3, #0]
		byte_tracker = 0;
 8000df2:	4b13      	ldr	r3, [pc, #76]	; (8000e40 <main+0x194>)
 8000df4:	2200      	movs	r2, #0
 8000df6:	801a      	strh	r2, [r3, #0]
	  }

	  if(next_blank_page == (NUM_OF_PAGES*PAGE_SIZE)) {
 8000df8:	4b17      	ldr	r3, [pc, #92]	; (8000e58 <main+0x1ac>)
 8000dfa:	681b      	ldr	r3, [r3, #0]
 8000dfc:	f1b3 7f80 	cmp.w	r3, #16777216	; 0x1000000
 8000e00:	f47f af73 	bne.w	8000cea <main+0x3e>
		  next_blank_page = find_next_blank_page(&hspi1, &end_of_flash, cs_spi1);
 8000e04:	4b15      	ldr	r3, [pc, #84]	; (8000e5c <main+0x1b0>)
 8000e06:	cb0c      	ldmia	r3, {r2, r3}
 8000e08:	490f      	ldr	r1, [pc, #60]	; (8000e48 <main+0x19c>)
 8000e0a:	4809      	ldr	r0, [pc, #36]	; (8000e30 <main+0x184>)
 8000e0c:	f7ff fdd4 	bl	80009b8 <find_next_blank_page>
 8000e10:	4603      	mov	r3, r0
 8000e12:	4a11      	ldr	r2, [pc, #68]	; (8000e58 <main+0x1ac>)
 8000e14:	6013      	str	r3, [r2, #0]
	  if(uart2_rec_flag == 0x01) {
 8000e16:	e768      	b.n	8000cea <main+0x3e>
 8000e18:	2000038a 	.word	0x2000038a
 8000e1c:	2000038c 	.word	0x2000038c
 8000e20:	200005b4 	.word	0x200005b4
 8000e24:	20000384 	.word	0x20000384
 8000e28:	20000380 	.word	0x20000380
 8000e2c:	20000190 	.word	0x20000190
 8000e30:	20000138 	.word	0x20000138
 8000e34:	200005ec 	.word	0x200005ec
 8000e38:	2000038b 	.word	0x2000038b
 8000e3c:	20000118 	.word	0x20000118
 8000e40:	200005b0 	.word	0x200005b0
 8000e44:	200005e4 	.word	0x200005e4
 8000e48:	200005b2 	.word	0x200005b2
 8000e4c:	200005bc 	.word	0x200005bc
 8000e50:	20000590 	.word	0x20000590
 8000e54:	20000390 	.word	0x20000390
 8000e58:	200005ac 	.word	0x200005ac
 8000e5c:	200005c4 	.word	0x200005c4
 8000e60:	200005d4 	.word	0x200005d4

08000e64 <SystemClock_Config>:
/**
  * @brief System Clock Configuration
  * @retval None
  */
void SystemClock_Config(void)
{
 8000e64:	b580      	push	{r7, lr}
 8000e66:	b094      	sub	sp, #80	; 0x50
 8000e68:	af00      	add	r7, sp, #0
  RCC_OscInitTypeDef RCC_OscInitStruct = {0};
 8000e6a:	f107 0320 	add.w	r3, r7, #32
 8000e6e:	2230      	movs	r2, #48	; 0x30
 8000e70:	2100      	movs	r1, #0
 8000e72:	4618      	mov	r0, r3
 8000e74:	f007 fb0c 	bl	8008490 <memset>
  RCC_ClkInitTypeDef RCC_ClkInitStruct = {0};
 8000e78:	f107 030c 	add.w	r3, r7, #12
 8000e7c:	2200      	movs	r2, #0
 8000e7e:	601a      	str	r2, [r3, #0]
 8000e80:	605a      	str	r2, [r3, #4]
 8000e82:	609a      	str	r2, [r3, #8]
 8000e84:	60da      	str	r2, [r3, #12]
 8000e86:	611a      	str	r2, [r3, #16]

  /** Configure the main internal regulator output voltage
  */
  __HAL_RCC_PWR_CLK_ENABLE();
 8000e88:	2300      	movs	r3, #0
 8000e8a:	60bb      	str	r3, [r7, #8]
 8000e8c:	4b24      	ldr	r3, [pc, #144]	; (8000f20 <SystemClock_Config+0xbc>)
 8000e8e:	6c1b      	ldr	r3, [r3, #64]	; 0x40
 8000e90:	4a23      	ldr	r2, [pc, #140]	; (8000f20 <SystemClock_Config+0xbc>)
 8000e92:	f043 5380 	orr.w	r3, r3, #268435456	; 0x10000000
 8000e96:	6413      	str	r3, [r2, #64]	; 0x40
 8000e98:	4b21      	ldr	r3, [pc, #132]	; (8000f20 <SystemClock_Config+0xbc>)
 8000e9a:	6c1b      	ldr	r3, [r3, #64]	; 0x40
 8000e9c:	f003 5380 	and.w	r3, r3, #268435456	; 0x10000000
 8000ea0:	60bb      	str	r3, [r7, #8]
 8000ea2:	68bb      	ldr	r3, [r7, #8]
  __HAL_PWR_VOLTAGESCALING_CONFIG(PWR_REGULATOR_VOLTAGE_SCALE3);
 8000ea4:	2300      	movs	r3, #0
 8000ea6:	607b      	str	r3, [r7, #4]
 8000ea8:	4b1e      	ldr	r3, [pc, #120]	; (8000f24 <SystemClock_Config+0xc0>)
 8000eaa:	681b      	ldr	r3, [r3, #0]
 8000eac:	f423 4340 	bic.w	r3, r3, #49152	; 0xc000
 8000eb0:	4a1c      	ldr	r2, [pc, #112]	; (8000f24 <SystemClock_Config+0xc0>)
 8000eb2:	f443 4380 	orr.w	r3, r3, #16384	; 0x4000
 8000eb6:	6013      	str	r3, [r2, #0]
 8000eb8:	4b1a      	ldr	r3, [pc, #104]	; (8000f24 <SystemClock_Config+0xc0>)
 8000eba:	681b      	ldr	r3, [r3, #0]
 8000ebc:	f403 4340 	and.w	r3, r3, #49152	; 0xc000
 8000ec0:	607b      	str	r3, [r7, #4]
 8000ec2:	687b      	ldr	r3, [r7, #4]

  /** Initializes the RCC Oscillators according to the specified parameters
  * in the RCC_OscInitTypeDef structure.
  */
  RCC_OscInitStruct.OscillatorType = RCC_OSCILLATORTYPE_HSI|RCC_OSCILLATORTYPE_LSI;
 8000ec4:	230a      	movs	r3, #10
 8000ec6:	623b      	str	r3, [r7, #32]
  RCC_OscInitStruct.HSIState = RCC_HSI_ON;
 8000ec8:	2301      	movs	r3, #1
 8000eca:	62fb      	str	r3, [r7, #44]	; 0x2c
  RCC_OscInitStruct.HSICalibrationValue = RCC_HSICALIBRATION_DEFAULT;
 8000ecc:	2310      	movs	r3, #16
 8000ece:	633b      	str	r3, [r7, #48]	; 0x30
  RCC_OscInitStruct.LSIState = RCC_LSI_ON;
 8000ed0:	2301      	movs	r3, #1
 8000ed2:	637b      	str	r3, [r7, #52]	; 0x34
  RCC_OscInitStruct.PLL.PLLState = RCC_PLL_NONE;
 8000ed4:	2300      	movs	r3, #0
 8000ed6:	63bb      	str	r3, [r7, #56]	; 0x38
  if (HAL_RCC_OscConfig(&RCC_OscInitStruct) != HAL_OK)
 8000ed8:	f107 0320 	add.w	r3, r7, #32
 8000edc:	4618      	mov	r0, r3
 8000ede:	f003 ff21 	bl	8004d24 <HAL_RCC_OscConfig>
 8000ee2:	4603      	mov	r3, r0
 8000ee4:	2b00      	cmp	r3, #0
 8000ee6:	d001      	beq.n	8000eec <SystemClock_Config+0x88>
  {
    Error_Handler();
 8000ee8:	f000 fdb1 	bl	8001a4e <Error_Handler>
  }

  /** Initializes the CPU, AHB and APB buses clocks
  */
  RCC_ClkInitStruct.ClockType = RCC_CLOCKTYPE_HCLK|RCC_CLOCKTYPE_SYSCLK
 8000eec:	230f      	movs	r3, #15
 8000eee:	60fb      	str	r3, [r7, #12]
                              |RCC_CLOCKTYPE_PCLK1|RCC_CLOCKTYPE_PCLK2;
  RCC_ClkInitStruct.SYSCLKSource = RCC_SYSCLKSOURCE_HSI;
 8000ef0:	2300      	movs	r3, #0
 8000ef2:	613b      	str	r3, [r7, #16]
  RCC_ClkInitStruct.AHBCLKDivider = RCC_SYSCLK_DIV1;
 8000ef4:	2300      	movs	r3, #0
 8000ef6:	617b      	str	r3, [r7, #20]
  RCC_ClkInitStruct.APB1CLKDivider = RCC_HCLK_DIV1;
 8000ef8:	2300      	movs	r3, #0
 8000efa:	61bb      	str	r3, [r7, #24]
  RCC_ClkInitStruct.APB2CLKDivider = RCC_HCLK_DIV1;
 8000efc:	2300      	movs	r3, #0
 8000efe:	61fb      	str	r3, [r7, #28]

  if (HAL_RCC_ClockConfig(&RCC_ClkInitStruct, FLASH_LATENCY_0) != HAL_OK)
 8000f00:	f107 030c 	add.w	r3, r7, #12
 8000f04:	2100      	movs	r1, #0
 8000f06:	4618      	mov	r0, r3
 8000f08:	f004 f984 	bl	8005214 <HAL_RCC_ClockConfig>
 8000f0c:	4603      	mov	r3, r0
 8000f0e:	2b00      	cmp	r3, #0
 8000f10:	d001      	beq.n	8000f16 <SystemClock_Config+0xb2>
  {
    Error_Handler();
 8000f12:	f000 fd9c 	bl	8001a4e <Error_Handler>
  }
}
 8000f16:	bf00      	nop
 8000f18:	3750      	adds	r7, #80	; 0x50
 8000f1a:	46bd      	mov	sp, r7
 8000f1c:	bd80      	pop	{r7, pc}
 8000f1e:	bf00      	nop
 8000f20:	40023800 	.word	0x40023800
 8000f24:	40007000 	.word	0x40007000

08000f28 <MX_CAN2_Init>:
  * @brief CAN2 Initialization Function
  * @param None
  * @retval None
  */
static void MX_CAN2_Init(void)
{
 8000f28:	b580      	push	{r7, lr}
 8000f2a:	af00      	add	r7, sp, #0
  /* USER CODE END CAN2_Init 0 */

  /* USER CODE BEGIN CAN2_Init 1 */

  /* USER CODE END CAN2_Init 1 */
  hcan2.Instance = CAN2;
 8000f2c:	4b18      	ldr	r3, [pc, #96]	; (8000f90 <MX_CAN2_Init+0x68>)
 8000f2e:	4a19      	ldr	r2, [pc, #100]	; (8000f94 <MX_CAN2_Init+0x6c>)
 8000f30:	601a      	str	r2, [r3, #0]
  hcan2.Init.Prescaler = 3;
 8000f32:	4b17      	ldr	r3, [pc, #92]	; (8000f90 <MX_CAN2_Init+0x68>)
 8000f34:	2203      	movs	r2, #3
 8000f36:	605a      	str	r2, [r3, #4]
  hcan2.Init.Mode = CAN_MODE_NORMAL;
 8000f38:	4b15      	ldr	r3, [pc, #84]	; (8000f90 <MX_CAN2_Init+0x68>)
 8000f3a:	2200      	movs	r2, #0
 8000f3c:	609a      	str	r2, [r3, #8]
  hcan2.Init.SyncJumpWidth = CAN_SJW_2TQ;
 8000f3e:	4b14      	ldr	r3, [pc, #80]	; (8000f90 <MX_CAN2_Init+0x68>)
 8000f40:	f04f 7280 	mov.w	r2, #16777216	; 0x1000000
 8000f44:	60da      	str	r2, [r3, #12]
  hcan2.Init.TimeSeg1 = CAN_BS1_11TQ;
 8000f46:	4b12      	ldr	r3, [pc, #72]	; (8000f90 <MX_CAN2_Init+0x68>)
 8000f48:	f44f 2220 	mov.w	r2, #655360	; 0xa0000
 8000f4c:	611a      	str	r2, [r3, #16]
  hcan2.Init.TimeSeg2 = CAN_BS2_2TQ;
 8000f4e:	4b10      	ldr	r3, [pc, #64]	; (8000f90 <MX_CAN2_Init+0x68>)
 8000f50:	f44f 1280 	mov.w	r2, #1048576	; 0x100000
 8000f54:	615a      	str	r2, [r3, #20]
  hcan2.Init.TimeTriggeredMode = DISABLE;
 8000f56:	4b0e      	ldr	r3, [pc, #56]	; (8000f90 <MX_CAN2_Init+0x68>)
 8000f58:	2200      	movs	r2, #0
 8000f5a:	761a      	strb	r2, [r3, #24]
  hcan2.Init.AutoBusOff = DISABLE;
 8000f5c:	4b0c      	ldr	r3, [pc, #48]	; (8000f90 <MX_CAN2_Init+0x68>)
 8000f5e:	2200      	movs	r2, #0
 8000f60:	765a      	strb	r2, [r3, #25]
  hcan2.Init.AutoWakeUp = DISABLE;
 8000f62:	4b0b      	ldr	r3, [pc, #44]	; (8000f90 <MX_CAN2_Init+0x68>)
 8000f64:	2200      	movs	r2, #0
 8000f66:	769a      	strb	r2, [r3, #26]
  hcan2.Init.AutoRetransmission = DISABLE;
 8000f68:	4b09      	ldr	r3, [pc, #36]	; (8000f90 <MX_CAN2_Init+0x68>)
 8000f6a:	2200      	movs	r2, #0
 8000f6c:	76da      	strb	r2, [r3, #27]
  hcan2.Init.ReceiveFifoLocked = DISABLE;
 8000f6e:	4b08      	ldr	r3, [pc, #32]	; (8000f90 <MX_CAN2_Init+0x68>)
 8000f70:	2200      	movs	r2, #0
 8000f72:	771a      	strb	r2, [r3, #28]
  hcan2.Init.TransmitFifoPriority = DISABLE;
 8000f74:	4b06      	ldr	r3, [pc, #24]	; (8000f90 <MX_CAN2_Init+0x68>)
 8000f76:	2200      	movs	r2, #0
 8000f78:	775a      	strb	r2, [r3, #29]
  if (HAL_CAN_Init(&hcan2) != HAL_OK)
 8000f7a:	4805      	ldr	r0, [pc, #20]	; (8000f90 <MX_CAN2_Init+0x68>)
 8000f7c:	f001 fe54 	bl	8002c28 <HAL_CAN_Init>
 8000f80:	4603      	mov	r3, r0
 8000f82:	2b00      	cmp	r3, #0
 8000f84:	d001      	beq.n	8000f8a <MX_CAN2_Init+0x62>
  {
    Error_Handler();
 8000f86:	f000 fd62 	bl	8001a4e <Error_Handler>
  }
  /* USER CODE BEGIN CAN2_Init 2 */

  /* USER CODE END CAN2_Init 2 */

}
 8000f8a:	bf00      	nop
 8000f8c:	bd80      	pop	{r7, pc}
 8000f8e:	bf00      	nop
 8000f90:	20000048 	.word	0x20000048
 8000f94:	40006800 	.word	0x40006800

08000f98 <MX_I2C1_Init>:
  * @brief I2C1 Initialization Function
  * @param None
  * @retval None
  */
static void MX_I2C1_Init(void)
{
 8000f98:	b580      	push	{r7, lr}
 8000f9a:	af00      	add	r7, sp, #0
  /* USER CODE END I2C1_Init 0 */

  /* USER CODE BEGIN I2C1_Init 1 */

  /* USER CODE END I2C1_Init 1 */
  hi2c1.Instance = I2C1;
 8000f9c:	4b1b      	ldr	r3, [pc, #108]	; (800100c <MX_I2C1_Init+0x74>)
 8000f9e:	4a1c      	ldr	r2, [pc, #112]	; (8001010 <MX_I2C1_Init+0x78>)
 8000fa0:	601a      	str	r2, [r3, #0]
  hi2c1.Init.ClockSpeed = 100000;
 8000fa2:	4b1a      	ldr	r3, [pc, #104]	; (800100c <MX_I2C1_Init+0x74>)
 8000fa4:	4a1b      	ldr	r2, [pc, #108]	; (8001014 <MX_I2C1_Init+0x7c>)
 8000fa6:	605a      	str	r2, [r3, #4]
  hi2c1.Init.DutyCycle = I2C_DUTYCYCLE_2;
 8000fa8:	4b18      	ldr	r3, [pc, #96]	; (800100c <MX_I2C1_Init+0x74>)
 8000faa:	2200      	movs	r2, #0
 8000fac:	609a      	str	r2, [r3, #8]
  hi2c1.Init.OwnAddress1 = 0;
 8000fae:	4b17      	ldr	r3, [pc, #92]	; (800100c <MX_I2C1_Init+0x74>)
 8000fb0:	2200      	movs	r2, #0
 8000fb2:	60da      	str	r2, [r3, #12]
  hi2c1.Init.AddressingMode = I2C_ADDRESSINGMODE_7BIT;
 8000fb4:	4b15      	ldr	r3, [pc, #84]	; (800100c <MX_I2C1_Init+0x74>)
 8000fb6:	f44f 4280 	mov.w	r2, #16384	; 0x4000
 8000fba:	611a      	str	r2, [r3, #16]
  hi2c1.Init.DualAddressMode = I2C_DUALADDRESS_DISABLE;
 8000fbc:	4b13      	ldr	r3, [pc, #76]	; (800100c <MX_I2C1_Init+0x74>)
 8000fbe:	2200      	movs	r2, #0
 8000fc0:	615a      	str	r2, [r3, #20]
  hi2c1.Init.OwnAddress2 = 0;
 8000fc2:	4b12      	ldr	r3, [pc, #72]	; (800100c <MX_I2C1_Init+0x74>)
 8000fc4:	2200      	movs	r2, #0
 8000fc6:	619a      	str	r2, [r3, #24]
  hi2c1.Init.GeneralCallMode = I2C_GENERALCALL_DISABLE;
 8000fc8:	4b10      	ldr	r3, [pc, #64]	; (800100c <MX_I2C1_Init+0x74>)
 8000fca:	2200      	movs	r2, #0
 8000fcc:	61da      	str	r2, [r3, #28]
  hi2c1.Init.NoStretchMode = I2C_NOSTRETCH_DISABLE;
 8000fce:	4b0f      	ldr	r3, [pc, #60]	; (800100c <MX_I2C1_Init+0x74>)
 8000fd0:	2200      	movs	r2, #0
 8000fd2:	621a      	str	r2, [r3, #32]
  if (HAL_I2C_Init(&hi2c1) != HAL_OK)
 8000fd4:	480d      	ldr	r0, [pc, #52]	; (800100c <MX_I2C1_Init+0x74>)
 8000fd6:	f002 fe2f 	bl	8003c38 <HAL_I2C_Init>
 8000fda:	4603      	mov	r3, r0
 8000fdc:	2b00      	cmp	r3, #0
 8000fde:	d001      	beq.n	8000fe4 <MX_I2C1_Init+0x4c>
  {
    Error_Handler();
 8000fe0:	f000 fd35 	bl	8001a4e <Error_Handler>
  }

  /** Configure Analogue filter
  */
  if (HAL_I2CEx_ConfigAnalogFilter(&hi2c1, I2C_ANALOGFILTER_ENABLE) != HAL_OK)
 8000fe4:	2100      	movs	r1, #0
 8000fe6:	4809      	ldr	r0, [pc, #36]	; (800100c <MX_I2C1_Init+0x74>)
 8000fe8:	f003 fe20 	bl	8004c2c <HAL_I2CEx_ConfigAnalogFilter>
 8000fec:	4603      	mov	r3, r0
 8000fee:	2b00      	cmp	r3, #0
 8000ff0:	d001      	beq.n	8000ff6 <MX_I2C1_Init+0x5e>
  {
    Error_Handler();
 8000ff2:	f000 fd2c 	bl	8001a4e <Error_Handler>
  }

  /** Configure Digital filter
  */
  if (HAL_I2CEx_ConfigDigitalFilter(&hi2c1, 0) != HAL_OK)
 8000ff6:	2100      	movs	r1, #0
 8000ff8:	4804      	ldr	r0, [pc, #16]	; (800100c <MX_I2C1_Init+0x74>)
 8000ffa:	f003 fe53 	bl	8004ca4 <HAL_I2CEx_ConfigDigitalFilter>
 8000ffe:	4603      	mov	r3, r0
 8001000:	2b00      	cmp	r3, #0
 8001002:	d001      	beq.n	8001008 <MX_I2C1_Init+0x70>
  {
    Error_Handler();
 8001004:	f000 fd23 	bl	8001a4e <Error_Handler>
  }
  /* USER CODE BEGIN I2C1_Init 2 */

  /* USER CODE END I2C1_Init 2 */

}
 8001008:	bf00      	nop
 800100a:	bd80      	pop	{r7, pc}
 800100c:	20000070 	.word	0x20000070
 8001010:	40005400 	.word	0x40005400
 8001014:	000186a0 	.word	0x000186a0

08001018 <MX_I2C2_Init>:
  * @brief I2C2 Initialization Function
  * @param None
  * @retval None
  */
static void MX_I2C2_Init(void)
{
 8001018:	b580      	push	{r7, lr}
 800101a:	af00      	add	r7, sp, #0
  /* USER CODE END I2C2_Init 0 */

  /* USER CODE BEGIN I2C2_Init 1 */

  /* USER CODE END I2C2_Init 1 */
  hi2c2.Instance = I2C2;
 800101c:	4b1b      	ldr	r3, [pc, #108]	; (800108c <MX_I2C2_Init+0x74>)
 800101e:	4a1c      	ldr	r2, [pc, #112]	; (8001090 <MX_I2C2_Init+0x78>)
 8001020:	601a      	str	r2, [r3, #0]
  hi2c2.Init.ClockSpeed = 100000;
 8001022:	4b1a      	ldr	r3, [pc, #104]	; (800108c <MX_I2C2_Init+0x74>)
 8001024:	4a1b      	ldr	r2, [pc, #108]	; (8001094 <MX_I2C2_Init+0x7c>)
 8001026:	605a      	str	r2, [r3, #4]
  hi2c2.Init.DutyCycle = I2C_DUTYCYCLE_2;
 8001028:	4b18      	ldr	r3, [pc, #96]	; (800108c <MX_I2C2_Init+0x74>)
 800102a:	2200      	movs	r2, #0
 800102c:	609a      	str	r2, [r3, #8]
  hi2c2.Init.OwnAddress1 = 0;
 800102e:	4b17      	ldr	r3, [pc, #92]	; (800108c <MX_I2C2_Init+0x74>)
 8001030:	2200      	movs	r2, #0
 8001032:	60da      	str	r2, [r3, #12]
  hi2c2.Init.AddressingMode = I2C_ADDRESSINGMODE_7BIT;
 8001034:	4b15      	ldr	r3, [pc, #84]	; (800108c <MX_I2C2_Init+0x74>)
 8001036:	f44f 4280 	mov.w	r2, #16384	; 0x4000
 800103a:	611a      	str	r2, [r3, #16]
  hi2c2.Init.DualAddressMode = I2C_DUALADDRESS_DISABLE;
 800103c:	4b13      	ldr	r3, [pc, #76]	; (800108c <MX_I2C2_Init+0x74>)
 800103e:	2200      	movs	r2, #0
 8001040:	615a      	str	r2, [r3, #20]
  hi2c2.Init.OwnAddress2 = 0;
 8001042:	4b12      	ldr	r3, [pc, #72]	; (800108c <MX_I2C2_Init+0x74>)
 8001044:	2200      	movs	r2, #0
 8001046:	619a      	str	r2, [r3, #24]
  hi2c2.Init.GeneralCallMode = I2C_GENERALCALL_DISABLE;
 8001048:	4b10      	ldr	r3, [pc, #64]	; (800108c <MX_I2C2_Init+0x74>)
 800104a:	2200      	movs	r2, #0
 800104c:	61da      	str	r2, [r3, #28]
  hi2c2.Init.NoStretchMode = I2C_NOSTRETCH_DISABLE;
 800104e:	4b0f      	ldr	r3, [pc, #60]	; (800108c <MX_I2C2_Init+0x74>)
 8001050:	2200      	movs	r2, #0
 8001052:	621a      	str	r2, [r3, #32]
  if (HAL_I2C_Init(&hi2c2) != HAL_OK)
 8001054:	480d      	ldr	r0, [pc, #52]	; (800108c <MX_I2C2_Init+0x74>)
 8001056:	f002 fdef 	bl	8003c38 <HAL_I2C_Init>
 800105a:	4603      	mov	r3, r0
 800105c:	2b00      	cmp	r3, #0
 800105e:	d001      	beq.n	8001064 <MX_I2C2_Init+0x4c>
  {
    Error_Handler();
 8001060:	f000 fcf5 	bl	8001a4e <Error_Handler>
  }

  /** Configure Analogue filter
  */
  if (HAL_I2CEx_ConfigAnalogFilter(&hi2c2, I2C_ANALOGFILTER_ENABLE) != HAL_OK)
 8001064:	2100      	movs	r1, #0
 8001066:	4809      	ldr	r0, [pc, #36]	; (800108c <MX_I2C2_Init+0x74>)
 8001068:	f003 fde0 	bl	8004c2c <HAL_I2CEx_ConfigAnalogFilter>
 800106c:	4603      	mov	r3, r0
 800106e:	2b00      	cmp	r3, #0
 8001070:	d001      	beq.n	8001076 <MX_I2C2_Init+0x5e>
  {
    Error_Handler();
 8001072:	f000 fcec 	bl	8001a4e <Error_Handler>
  }

  /** Configure Digital filter
  */
  if (HAL_I2CEx_ConfigDigitalFilter(&hi2c2, 0) != HAL_OK)
 8001076:	2100      	movs	r1, #0
 8001078:	4804      	ldr	r0, [pc, #16]	; (800108c <MX_I2C2_Init+0x74>)
 800107a:	f003 fe13 	bl	8004ca4 <HAL_I2CEx_ConfigDigitalFilter>
 800107e:	4603      	mov	r3, r0
 8001080:	2b00      	cmp	r3, #0
 8001082:	d001      	beq.n	8001088 <MX_I2C2_Init+0x70>
  {
    Error_Handler();
 8001084:	f000 fce3 	bl	8001a4e <Error_Handler>
  }
  /* USER CODE BEGIN I2C2_Init 2 */

  /* USER CODE END I2C2_Init 2 */

}
 8001088:	bf00      	nop
 800108a:	bd80      	pop	{r7, pc}
 800108c:	200000c4 	.word	0x200000c4
 8001090:	40005800 	.word	0x40005800
 8001094:	000186a0 	.word	0x000186a0

08001098 <MX_RTC_Init>:
  * @brief RTC Initialization Function
  * @param None
  * @retval None
  */
static void MX_RTC_Init(void)
{
 8001098:	b580      	push	{r7, lr}
 800109a:	af00      	add	r7, sp, #0

  /* USER CODE END RTC_Init 1 */

  /** Initialize RTC Only
  */
  hrtc.Instance = RTC;
 800109c:	4b0f      	ldr	r3, [pc, #60]	; (80010dc <MX_RTC_Init+0x44>)
 800109e:	4a10      	ldr	r2, [pc, #64]	; (80010e0 <MX_RTC_Init+0x48>)
 80010a0:	601a      	str	r2, [r3, #0]
  hrtc.Init.HourFormat = RTC_HOURFORMAT_24;
 80010a2:	4b0e      	ldr	r3, [pc, #56]	; (80010dc <MX_RTC_Init+0x44>)
 80010a4:	2200      	movs	r2, #0
 80010a6:	605a      	str	r2, [r3, #4]
  hrtc.Init.AsynchPrediv = 127;
 80010a8:	4b0c      	ldr	r3, [pc, #48]	; (80010dc <MX_RTC_Init+0x44>)
 80010aa:	227f      	movs	r2, #127	; 0x7f
 80010ac:	609a      	str	r2, [r3, #8]
  hrtc.Init.SynchPrediv = 255;
 80010ae:	4b0b      	ldr	r3, [pc, #44]	; (80010dc <MX_RTC_Init+0x44>)
 80010b0:	22ff      	movs	r2, #255	; 0xff
 80010b2:	60da      	str	r2, [r3, #12]
  hrtc.Init.OutPut = RTC_OUTPUT_DISABLE;
 80010b4:	4b09      	ldr	r3, [pc, #36]	; (80010dc <MX_RTC_Init+0x44>)
 80010b6:	2200      	movs	r2, #0
 80010b8:	611a      	str	r2, [r3, #16]
  hrtc.Init.OutPutPolarity = RTC_OUTPUT_POLARITY_HIGH;
 80010ba:	4b08      	ldr	r3, [pc, #32]	; (80010dc <MX_RTC_Init+0x44>)
 80010bc:	2200      	movs	r2, #0
 80010be:	615a      	str	r2, [r3, #20]
  hrtc.Init.OutPutType = RTC_OUTPUT_TYPE_OPENDRAIN;
 80010c0:	4b06      	ldr	r3, [pc, #24]	; (80010dc <MX_RTC_Init+0x44>)
 80010c2:	2200      	movs	r2, #0
 80010c4:	619a      	str	r2, [r3, #24]
  if (HAL_RTC_Init(&hrtc) != HAL_OK)
 80010c6:	4805      	ldr	r0, [pc, #20]	; (80010dc <MX_RTC_Init+0x44>)
 80010c8:	f004 fc44 	bl	8005954 <HAL_RTC_Init>
 80010cc:	4603      	mov	r3, r0
 80010ce:	2b00      	cmp	r3, #0
 80010d0:	d001      	beq.n	80010d6 <MX_RTC_Init+0x3e>
  {
    Error_Handler();
 80010d2:	f000 fcbc 	bl	8001a4e <Error_Handler>
  }
  /* USER CODE BEGIN RTC_Init 2 */

  /* USER CODE END RTC_Init 2 */

}
 80010d6:	bf00      	nop
 80010d8:	bd80      	pop	{r7, pc}
 80010da:	bf00      	nop
 80010dc:	20000118 	.word	0x20000118
 80010e0:	40002800 	.word	0x40002800

080010e4 <MX_SPI1_Init>:
  * @brief SPI1 Initialization Function
  * @param None
  * @retval None
  */
static void MX_SPI1_Init(void)
{
 80010e4:	b580      	push	{r7, lr}
 80010e6:	af00      	add	r7, sp, #0

  /* USER CODE BEGIN SPI1_Init 1 */

  /* USER CODE END SPI1_Init 1 */
  /* SPI1 parameter configuration*/
  hspi1.Instance = SPI1;
 80010e8:	4b17      	ldr	r3, [pc, #92]	; (8001148 <MX_SPI1_Init+0x64>)
 80010ea:	4a18      	ldr	r2, [pc, #96]	; (800114c <MX_SPI1_Init+0x68>)
 80010ec:	601a      	str	r2, [r3, #0]
  hspi1.Init.Mode = SPI_MODE_MASTER;
 80010ee:	4b16      	ldr	r3, [pc, #88]	; (8001148 <MX_SPI1_Init+0x64>)
 80010f0:	f44f 7282 	mov.w	r2, #260	; 0x104
 80010f4:	605a      	str	r2, [r3, #4]
  hspi1.Init.Direction = SPI_DIRECTION_2LINES;
 80010f6:	4b14      	ldr	r3, [pc, #80]	; (8001148 <MX_SPI1_Init+0x64>)
 80010f8:	2200      	movs	r2, #0
 80010fa:	609a      	str	r2, [r3, #8]
  hspi1.Init.DataSize = SPI_DATASIZE_8BIT;
 80010fc:	4b12      	ldr	r3, [pc, #72]	; (8001148 <MX_SPI1_Init+0x64>)
 80010fe:	2200      	movs	r2, #0
 8001100:	60da      	str	r2, [r3, #12]
  hspi1.Init.CLKPolarity = SPI_POLARITY_LOW;
 8001102:	4b11      	ldr	r3, [pc, #68]	; (8001148 <MX_SPI1_Init+0x64>)
 8001104:	2200      	movs	r2, #0
 8001106:	611a      	str	r2, [r3, #16]
  hspi1.Init.CLKPhase = SPI_PHASE_1EDGE;
 8001108:	4b0f      	ldr	r3, [pc, #60]	; (8001148 <MX_SPI1_Init+0x64>)
 800110a:	2200      	movs	r2, #0
 800110c:	615a      	str	r2, [r3, #20]
  hspi1.Init.NSS = SPI_NSS_SOFT;
 800110e:	4b0e      	ldr	r3, [pc, #56]	; (8001148 <MX_SPI1_Init+0x64>)
 8001110:	f44f 7200 	mov.w	r2, #512	; 0x200
 8001114:	619a      	str	r2, [r3, #24]
  hspi1.Init.BaudRatePrescaler = SPI_BAUDRATEPRESCALER_2;
 8001116:	4b0c      	ldr	r3, [pc, #48]	; (8001148 <MX_SPI1_Init+0x64>)
 8001118:	2200      	movs	r2, #0
 800111a:	61da      	str	r2, [r3, #28]
  hspi1.Init.FirstBit = SPI_FIRSTBIT_MSB;
 800111c:	4b0a      	ldr	r3, [pc, #40]	; (8001148 <MX_SPI1_Init+0x64>)
 800111e:	2200      	movs	r2, #0
 8001120:	621a      	str	r2, [r3, #32]
  hspi1.Init.TIMode = SPI_TIMODE_DISABLE;
 8001122:	4b09      	ldr	r3, [pc, #36]	; (8001148 <MX_SPI1_Init+0x64>)
 8001124:	2200      	movs	r2, #0
 8001126:	625a      	str	r2, [r3, #36]	; 0x24
  hspi1.Init.CRCCalculation = SPI_CRCCALCULATION_DISABLE;
 8001128:	4b07      	ldr	r3, [pc, #28]	; (8001148 <MX_SPI1_Init+0x64>)
 800112a:	2200      	movs	r2, #0
 800112c:	629a      	str	r2, [r3, #40]	; 0x28
  hspi1.Init.CRCPolynomial = 10;
 800112e:	4b06      	ldr	r3, [pc, #24]	; (8001148 <MX_SPI1_Init+0x64>)
 8001130:	220a      	movs	r2, #10
 8001132:	62da      	str	r2, [r3, #44]	; 0x2c
  if (HAL_SPI_Init(&hspi1) != HAL_OK)
 8001134:	4804      	ldr	r0, [pc, #16]	; (8001148 <MX_SPI1_Init+0x64>)
 8001136:	f004 ff19 	bl	8005f6c <HAL_SPI_Init>
 800113a:	4603      	mov	r3, r0
 800113c:	2b00      	cmp	r3, #0
 800113e:	d001      	beq.n	8001144 <MX_SPI1_Init+0x60>
  {
    Error_Handler();
 8001140:	f000 fc85 	bl	8001a4e <Error_Handler>
  }
  /* USER CODE BEGIN SPI1_Init 2 */

  /* USER CODE END SPI1_Init 2 */

}
 8001144:	bf00      	nop
 8001146:	bd80      	pop	{r7, pc}
 8001148:	20000138 	.word	0x20000138
 800114c:	40013000 	.word	0x40013000

08001150 <MX_SPI2_Init>:
  * @brief SPI2 Initialization Function
  * @param None
  * @retval None
  */
static void MX_SPI2_Init(void)
{
 8001150:	b580      	push	{r7, lr}
 8001152:	af00      	add	r7, sp, #0

  /* USER CODE BEGIN SPI2_Init 1 */

  /* USER CODE END SPI2_Init 1 */
  /* SPI2 parameter configuration*/
  hspi2.Instance = SPI2;
 8001154:	4b17      	ldr	r3, [pc, #92]	; (80011b4 <MX_SPI2_Init+0x64>)
 8001156:	4a18      	ldr	r2, [pc, #96]	; (80011b8 <MX_SPI2_Init+0x68>)
 8001158:	601a      	str	r2, [r3, #0]
  hspi2.Init.Mode = SPI_MODE_MASTER;
 800115a:	4b16      	ldr	r3, [pc, #88]	; (80011b4 <MX_SPI2_Init+0x64>)
 800115c:	f44f 7282 	mov.w	r2, #260	; 0x104
 8001160:	605a      	str	r2, [r3, #4]
  hspi2.Init.Direction = SPI_DIRECTION_2LINES;
 8001162:	4b14      	ldr	r3, [pc, #80]	; (80011b4 <MX_SPI2_Init+0x64>)
 8001164:	2200      	movs	r2, #0
 8001166:	609a      	str	r2, [r3, #8]
  hspi2.Init.DataSize = SPI_DATASIZE_8BIT;
 8001168:	4b12      	ldr	r3, [pc, #72]	; (80011b4 <MX_SPI2_Init+0x64>)
 800116a:	2200      	movs	r2, #0
 800116c:	60da      	str	r2, [r3, #12]
  hspi2.Init.CLKPolarity = SPI_POLARITY_LOW;
 800116e:	4b11      	ldr	r3, [pc, #68]	; (80011b4 <MX_SPI2_Init+0x64>)
 8001170:	2200      	movs	r2, #0
 8001172:	611a      	str	r2, [r3, #16]
  hspi2.Init.CLKPhase = SPI_PHASE_1EDGE;
 8001174:	4b0f      	ldr	r3, [pc, #60]	; (80011b4 <MX_SPI2_Init+0x64>)
 8001176:	2200      	movs	r2, #0
 8001178:	615a      	str	r2, [r3, #20]
  hspi2.Init.NSS = SPI_NSS_SOFT;
 800117a:	4b0e      	ldr	r3, [pc, #56]	; (80011b4 <MX_SPI2_Init+0x64>)
 800117c:	f44f 7200 	mov.w	r2, #512	; 0x200
 8001180:	619a      	str	r2, [r3, #24]
  hspi2.Init.BaudRatePrescaler = SPI_BAUDRATEPRESCALER_2;
 8001182:	4b0c      	ldr	r3, [pc, #48]	; (80011b4 <MX_SPI2_Init+0x64>)
 8001184:	2200      	movs	r2, #0
 8001186:	61da      	str	r2, [r3, #28]
  hspi2.Init.FirstBit = SPI_FIRSTBIT_MSB;
 8001188:	4b0a      	ldr	r3, [pc, #40]	; (80011b4 <MX_SPI2_Init+0x64>)
 800118a:	2200      	movs	r2, #0
 800118c:	621a      	str	r2, [r3, #32]
  hspi2.Init.TIMode = SPI_TIMODE_DISABLE;
 800118e:	4b09      	ldr	r3, [pc, #36]	; (80011b4 <MX_SPI2_Init+0x64>)
 8001190:	2200      	movs	r2, #0
 8001192:	625a      	str	r2, [r3, #36]	; 0x24
  hspi2.Init.CRCCalculation = SPI_CRCCALCULATION_DISABLE;
 8001194:	4b07      	ldr	r3, [pc, #28]	; (80011b4 <MX_SPI2_Init+0x64>)
 8001196:	2200      	movs	r2, #0
 8001198:	629a      	str	r2, [r3, #40]	; 0x28
  hspi2.Init.CRCPolynomial = 10;
 800119a:	4b06      	ldr	r3, [pc, #24]	; (80011b4 <MX_SPI2_Init+0x64>)
 800119c:	220a      	movs	r2, #10
 800119e:	62da      	str	r2, [r3, #44]	; 0x2c
  if (HAL_SPI_Init(&hspi2) != HAL_OK)
 80011a0:	4804      	ldr	r0, [pc, #16]	; (80011b4 <MX_SPI2_Init+0x64>)
 80011a2:	f004 fee3 	bl	8005f6c <HAL_SPI_Init>
 80011a6:	4603      	mov	r3, r0
 80011a8:	2b00      	cmp	r3, #0
 80011aa:	d001      	beq.n	80011b0 <MX_SPI2_Init+0x60>
  {
    Error_Handler();
 80011ac:	f000 fc4f 	bl	8001a4e <Error_Handler>
  }
  /* USER CODE BEGIN SPI2_Init 2 */

  /* USER CODE END SPI2_Init 2 */

}
 80011b0:	bf00      	nop
 80011b2:	bd80      	pop	{r7, pc}
 80011b4:	20000190 	.word	0x20000190
 80011b8:	40003800 	.word	0x40003800

080011bc <MX_TIM6_Init>:
  * @brief TIM6 Initialization Function
  * @param None
  * @retval None
  */
static void MX_TIM6_Init(void)
{
 80011bc:	b580      	push	{r7, lr}
 80011be:	b082      	sub	sp, #8
 80011c0:	af00      	add	r7, sp, #0

  /* USER CODE BEGIN TIM6_Init 0 */

  /* USER CODE END TIM6_Init 0 */

  TIM_MasterConfigTypeDef sMasterConfig = {0};
 80011c2:	463b      	mov	r3, r7
 80011c4:	2200      	movs	r2, #0
 80011c6:	601a      	str	r2, [r3, #0]
 80011c8:	605a      	str	r2, [r3, #4]

  /* USER CODE BEGIN TIM6_Init 1 */

  /* USER CODE END TIM6_Init 1 */
  htim6.Instance = TIM6;
 80011ca:	4b15      	ldr	r3, [pc, #84]	; (8001220 <MX_TIM6_Init+0x64>)
 80011cc:	4a15      	ldr	r2, [pc, #84]	; (8001224 <MX_TIM6_Init+0x68>)
 80011ce:	601a      	str	r2, [r3, #0]
  htim6.Init.Prescaler = 7999;
 80011d0:	4b13      	ldr	r3, [pc, #76]	; (8001220 <MX_TIM6_Init+0x64>)
 80011d2:	f641 723f 	movw	r2, #7999	; 0x1f3f
 80011d6:	605a      	str	r2, [r3, #4]
  htim6.Init.CounterMode = TIM_COUNTERMODE_UP;
 80011d8:	4b11      	ldr	r3, [pc, #68]	; (8001220 <MX_TIM6_Init+0x64>)
 80011da:	2200      	movs	r2, #0
 80011dc:	609a      	str	r2, [r3, #8]
  htim6.Init.Period = 40;
 80011de:	4b10      	ldr	r3, [pc, #64]	; (8001220 <MX_TIM6_Init+0x64>)
 80011e0:	2228      	movs	r2, #40	; 0x28
 80011e2:	60da      	str	r2, [r3, #12]
  htim6.Init.AutoReloadPreload = TIM_AUTORELOAD_PRELOAD_DISABLE;
 80011e4:	4b0e      	ldr	r3, [pc, #56]	; (8001220 <MX_TIM6_Init+0x64>)
 80011e6:	2200      	movs	r2, #0
 80011e8:	619a      	str	r2, [r3, #24]
  if (HAL_TIM_Base_Init(&htim6) != HAL_OK)
 80011ea:	480d      	ldr	r0, [pc, #52]	; (8001220 <MX_TIM6_Init+0x64>)
 80011ec:	f005 fddc 	bl	8006da8 <HAL_TIM_Base_Init>
 80011f0:	4603      	mov	r3, r0
 80011f2:	2b00      	cmp	r3, #0
 80011f4:	d001      	beq.n	80011fa <MX_TIM6_Init+0x3e>
  {
    Error_Handler();
 80011f6:	f000 fc2a 	bl	8001a4e <Error_Handler>
  }
  sMasterConfig.MasterOutputTrigger = TIM_TRGO_RESET;
 80011fa:	2300      	movs	r3, #0
 80011fc:	603b      	str	r3, [r7, #0]
  sMasterConfig.MasterSlaveMode = TIM_MASTERSLAVEMODE_DISABLE;
 80011fe:	2300      	movs	r3, #0
 8001200:	607b      	str	r3, [r7, #4]
  if (HAL_TIMEx_MasterConfigSynchronization(&htim6, &sMasterConfig) != HAL_OK)
 8001202:	463b      	mov	r3, r7
 8001204:	4619      	mov	r1, r3
 8001206:	4806      	ldr	r0, [pc, #24]	; (8001220 <MX_TIM6_Init+0x64>)
 8001208:	f006 f85c 	bl	80072c4 <HAL_TIMEx_MasterConfigSynchronization>
 800120c:	4603      	mov	r3, r0
 800120e:	2b00      	cmp	r3, #0
 8001210:	d001      	beq.n	8001216 <MX_TIM6_Init+0x5a>
  {
    Error_Handler();
 8001212:	f000 fc1c 	bl	8001a4e <Error_Handler>
  }
  /* USER CODE BEGIN TIM6_Init 2 */

  /* USER CODE END TIM6_Init 2 */

}
 8001216:	bf00      	nop
 8001218:	3708      	adds	r7, #8
 800121a:	46bd      	mov	sp, r7
 800121c:	bd80      	pop	{r7, pc}
 800121e:	bf00      	nop
 8001220:	200002a8 	.word	0x200002a8
 8001224:	40001000 	.word	0x40001000

08001228 <MX_TIM7_Init>:
  * @brief TIM7 Initialization Function
  * @param None
  * @retval None
  */
static void MX_TIM7_Init(void)
{
 8001228:	b580      	push	{r7, lr}
 800122a:	b082      	sub	sp, #8
 800122c:	af00      	add	r7, sp, #0

  /* USER CODE BEGIN TIM7_Init 0 */

  /* USER CODE END TIM7_Init 0 */

  TIM_MasterConfigTypeDef sMasterConfig = {0};
 800122e:	463b      	mov	r3, r7
 8001230:	2200      	movs	r2, #0
 8001232:	601a      	str	r2, [r3, #0]
 8001234:	605a      	str	r2, [r3, #4]

  /* USER CODE BEGIN TIM7_Init 1 */

  /* USER CODE END TIM7_Init 1 */
  htim7.Instance = TIM7;
 8001236:	4b15      	ldr	r3, [pc, #84]	; (800128c <MX_TIM7_Init+0x64>)
 8001238:	4a15      	ldr	r2, [pc, #84]	; (8001290 <MX_TIM7_Init+0x68>)
 800123a:	601a      	str	r2, [r3, #0]
  htim7.Init.Prescaler = 7999;
 800123c:	4b13      	ldr	r3, [pc, #76]	; (800128c <MX_TIM7_Init+0x64>)
 800123e:	f641 723f 	movw	r2, #7999	; 0x1f3f
 8001242:	605a      	str	r2, [r3, #4]
  htim7.Init.CounterMode = TIM_COUNTERMODE_UP;
 8001244:	4b11      	ldr	r3, [pc, #68]	; (800128c <MX_TIM7_Init+0x64>)
 8001246:	2200      	movs	r2, #0
 8001248:	609a      	str	r2, [r3, #8]
  htim7.Init.Period = 2000;
 800124a:	4b10      	ldr	r3, [pc, #64]	; (800128c <MX_TIM7_Init+0x64>)
 800124c:	f44f 62fa 	mov.w	r2, #2000	; 0x7d0
 8001250:	60da      	str	r2, [r3, #12]
  htim7.Init.AutoReloadPreload = TIM_AUTORELOAD_PRELOAD_DISABLE;
 8001252:	4b0e      	ldr	r3, [pc, #56]	; (800128c <MX_TIM7_Init+0x64>)
 8001254:	2200      	movs	r2, #0
 8001256:	619a      	str	r2, [r3, #24]
  if (HAL_TIM_Base_Init(&htim7) != HAL_OK)
 8001258:	480c      	ldr	r0, [pc, #48]	; (800128c <MX_TIM7_Init+0x64>)
 800125a:	f005 fda5 	bl	8006da8 <HAL_TIM_Base_Init>
 800125e:	4603      	mov	r3, r0
 8001260:	2b00      	cmp	r3, #0
 8001262:	d001      	beq.n	8001268 <MX_TIM7_Init+0x40>
  {
    Error_Handler();
 8001264:	f000 fbf3 	bl	8001a4e <Error_Handler>
  }
  sMasterConfig.MasterOutputTrigger = TIM_TRGO_RESET;
 8001268:	2300      	movs	r3, #0
 800126a:	603b      	str	r3, [r7, #0]
  sMasterConfig.MasterSlaveMode = TIM_MASTERSLAVEMODE_DISABLE;
 800126c:	2300      	movs	r3, #0
 800126e:	607b      	str	r3, [r7, #4]
  if (HAL_TIMEx_MasterConfigSynchronization(&htim7, &sMasterConfig) != HAL_OK)
 8001270:	463b      	mov	r3, r7
 8001272:	4619      	mov	r1, r3
 8001274:	4805      	ldr	r0, [pc, #20]	; (800128c <MX_TIM7_Init+0x64>)
 8001276:	f006 f825 	bl	80072c4 <HAL_TIMEx_MasterConfigSynchronization>
 800127a:	4603      	mov	r3, r0
 800127c:	2b00      	cmp	r3, #0
 800127e:	d001      	beq.n	8001284 <MX_TIM7_Init+0x5c>
  {
    Error_Handler();
 8001280:	f000 fbe5 	bl	8001a4e <Error_Handler>
  }
  /* USER CODE BEGIN TIM7_Init 2 */

  /* USER CODE END TIM7_Init 2 */

}
 8001284:	bf00      	nop
 8001286:	3708      	adds	r7, #8
 8001288:	46bd      	mov	sp, r7
 800128a:	bd80      	pop	{r7, pc}
 800128c:	200002f0 	.word	0x200002f0
 8001290:	40001400 	.word	0x40001400

08001294 <MX_USART2_UART_Init>:
  * @brief USART2 Initialization Function
  * @param None
  * @retval None
  */
static void MX_USART2_UART_Init(void)
{
 8001294:	b580      	push	{r7, lr}
 8001296:	af00      	add	r7, sp, #0
  /* USER CODE END USART2_Init 0 */

  /* USER CODE BEGIN USART2_Init 1 */

  /* USER CODE END USART2_Init 1 */
  huart2.Instance = USART2;
 8001298:	4b11      	ldr	r3, [pc, #68]	; (80012e0 <MX_USART2_UART_Init+0x4c>)
 800129a:	4a12      	ldr	r2, [pc, #72]	; (80012e4 <MX_USART2_UART_Init+0x50>)
 800129c:	601a      	str	r2, [r3, #0]
  huart2.Init.BaudRate = 9600;
 800129e:	4b10      	ldr	r3, [pc, #64]	; (80012e0 <MX_USART2_UART_Init+0x4c>)
 80012a0:	f44f 5216 	mov.w	r2, #9600	; 0x2580
 80012a4:	605a      	str	r2, [r3, #4]
  huart2.Init.WordLength = UART_WORDLENGTH_8B;
 80012a6:	4b0e      	ldr	r3, [pc, #56]	; (80012e0 <MX_USART2_UART_Init+0x4c>)
 80012a8:	2200      	movs	r2, #0
 80012aa:	609a      	str	r2, [r3, #8]
  huart2.Init.StopBits = UART_STOPBITS_1;
 80012ac:	4b0c      	ldr	r3, [pc, #48]	; (80012e0 <MX_USART2_UART_Init+0x4c>)
 80012ae:	2200      	movs	r2, #0
 80012b0:	60da      	str	r2, [r3, #12]
  huart2.Init.Parity = UART_PARITY_NONE;
 80012b2:	4b0b      	ldr	r3, [pc, #44]	; (80012e0 <MX_USART2_UART_Init+0x4c>)
 80012b4:	2200      	movs	r2, #0
 80012b6:	611a      	str	r2, [r3, #16]
  huart2.Init.Mode = UART_MODE_TX_RX;
 80012b8:	4b09      	ldr	r3, [pc, #36]	; (80012e0 <MX_USART2_UART_Init+0x4c>)
 80012ba:	220c      	movs	r2, #12
 80012bc:	615a      	str	r2, [r3, #20]
  huart2.Init.HwFlowCtl = UART_HWCONTROL_NONE;
 80012be:	4b08      	ldr	r3, [pc, #32]	; (80012e0 <MX_USART2_UART_Init+0x4c>)
 80012c0:	2200      	movs	r2, #0
 80012c2:	619a      	str	r2, [r3, #24]
  huart2.Init.OverSampling = UART_OVERSAMPLING_16;
 80012c4:	4b06      	ldr	r3, [pc, #24]	; (80012e0 <MX_USART2_UART_Init+0x4c>)
 80012c6:	2200      	movs	r2, #0
 80012c8:	61da      	str	r2, [r3, #28]
  if (HAL_UART_Init(&huart2) != HAL_OK)
 80012ca:	4805      	ldr	r0, [pc, #20]	; (80012e0 <MX_USART2_UART_Init+0x4c>)
 80012cc:	f006 f88a 	bl	80073e4 <HAL_UART_Init>
 80012d0:	4603      	mov	r3, r0
 80012d2:	2b00      	cmp	r3, #0
 80012d4:	d001      	beq.n	80012da <MX_USART2_UART_Init+0x46>
  {
    Error_Handler();
 80012d6:	f000 fbba 	bl	8001a4e <Error_Handler>
  }
  /* USER CODE BEGIN USART2_Init 2 */

  /* USER CODE END USART2_Init 2 */

}
 80012da:	bf00      	nop
 80012dc:	bd80      	pop	{r7, pc}
 80012de:	bf00      	nop
 80012e0:	20000338 	.word	0x20000338
 80012e4:	40004400 	.word	0x40004400

080012e8 <MX_DMA_Init>:

/**
  * Enable DMA controller clock
  */
static void MX_DMA_Init(void)
{
 80012e8:	b580      	push	{r7, lr}
 80012ea:	b082      	sub	sp, #8
 80012ec:	af00      	add	r7, sp, #0

  /* DMA controller clock enable */
  __HAL_RCC_DMA2_CLK_ENABLE();
 80012ee:	2300      	movs	r3, #0
 80012f0:	607b      	str	r3, [r7, #4]
 80012f2:	4b17      	ldr	r3, [pc, #92]	; (8001350 <MX_DMA_Init+0x68>)
 80012f4:	6b1b      	ldr	r3, [r3, #48]	; 0x30
 80012f6:	4a16      	ldr	r2, [pc, #88]	; (8001350 <MX_DMA_Init+0x68>)
 80012f8:	f443 0380 	orr.w	r3, r3, #4194304	; 0x400000
 80012fc:	6313      	str	r3, [r2, #48]	; 0x30
 80012fe:	4b14      	ldr	r3, [pc, #80]	; (8001350 <MX_DMA_Init+0x68>)
 8001300:	6b1b      	ldr	r3, [r3, #48]	; 0x30
 8001302:	f403 0380 	and.w	r3, r3, #4194304	; 0x400000
 8001306:	607b      	str	r3, [r7, #4]
 8001308:	687b      	ldr	r3, [r7, #4]
  __HAL_RCC_DMA1_CLK_ENABLE();
 800130a:	2300      	movs	r3, #0
 800130c:	603b      	str	r3, [r7, #0]
 800130e:	4b10      	ldr	r3, [pc, #64]	; (8001350 <MX_DMA_Init+0x68>)
 8001310:	6b1b      	ldr	r3, [r3, #48]	; 0x30
 8001312:	4a0f      	ldr	r2, [pc, #60]	; (8001350 <MX_DMA_Init+0x68>)
 8001314:	f443 1300 	orr.w	r3, r3, #2097152	; 0x200000
 8001318:	6313      	str	r3, [r2, #48]	; 0x30
 800131a:	4b0d      	ldr	r3, [pc, #52]	; (8001350 <MX_DMA_Init+0x68>)
 800131c:	6b1b      	ldr	r3, [r3, #48]	; 0x30
 800131e:	f403 1300 	and.w	r3, r3, #2097152	; 0x200000
 8001322:	603b      	str	r3, [r7, #0]
 8001324:	683b      	ldr	r3, [r7, #0]

  /* DMA interrupt init */
  /* DMA1_Stream4_IRQn interrupt configuration */
  HAL_NVIC_SetPriority(DMA1_Stream4_IRQn, 0, 0);
 8001326:	2200      	movs	r2, #0
 8001328:	2100      	movs	r1, #0
 800132a:	200f      	movs	r0, #15
 800132c:	f001 fe53 	bl	8002fd6 <HAL_NVIC_SetPriority>
  HAL_NVIC_EnableIRQ(DMA1_Stream4_IRQn);
 8001330:	200f      	movs	r0, #15
 8001332:	f001 fe6c 	bl	800300e <HAL_NVIC_EnableIRQ>
  /* DMA2_Stream3_IRQn interrupt configuration */
  HAL_NVIC_SetPriority(DMA2_Stream3_IRQn, 0, 0);
 8001336:	2200      	movs	r2, #0
 8001338:	2100      	movs	r1, #0
 800133a:	203b      	movs	r0, #59	; 0x3b
 800133c:	f001 fe4b 	bl	8002fd6 <HAL_NVIC_SetPriority>
  HAL_NVIC_EnableIRQ(DMA2_Stream3_IRQn);
 8001340:	203b      	movs	r0, #59	; 0x3b
 8001342:	f001 fe64 	bl	800300e <HAL_NVIC_EnableIRQ>

}
 8001346:	bf00      	nop
 8001348:	3708      	adds	r7, #8
 800134a:	46bd      	mov	sp, r7
 800134c:	bd80      	pop	{r7, pc}
 800134e:	bf00      	nop
 8001350:	40023800 	.word	0x40023800

08001354 <MX_GPIO_Init>:
  * @brief GPIO Initialization Function
  * @param None
  * @retval None
  */
static void MX_GPIO_Init(void)
{
 8001354:	b580      	push	{r7, lr}
 8001356:	b08a      	sub	sp, #40	; 0x28
 8001358:	af00      	add	r7, sp, #0
  GPIO_InitTypeDef GPIO_InitStruct = {0};
 800135a:	f107 0314 	add.w	r3, r7, #20
 800135e:	2200      	movs	r2, #0
 8001360:	601a      	str	r2, [r3, #0]
 8001362:	605a      	str	r2, [r3, #4]
 8001364:	609a      	str	r2, [r3, #8]
 8001366:	60da      	str	r2, [r3, #12]
 8001368:	611a      	str	r2, [r3, #16]
/* USER CODE BEGIN MX_GPIO_Init_1 */
/* USER CODE END MX_GPIO_Init_1 */

  /* GPIO Ports Clock Enable */
  __HAL_RCC_GPIOC_CLK_ENABLE();
 800136a:	2300      	movs	r3, #0
 800136c:	613b      	str	r3, [r7, #16]
 800136e:	4b57      	ldr	r3, [pc, #348]	; (80014cc <MX_GPIO_Init+0x178>)
 8001370:	6b1b      	ldr	r3, [r3, #48]	; 0x30
 8001372:	4a56      	ldr	r2, [pc, #344]	; (80014cc <MX_GPIO_Init+0x178>)
 8001374:	f043 0304 	orr.w	r3, r3, #4
 8001378:	6313      	str	r3, [r2, #48]	; 0x30
 800137a:	4b54      	ldr	r3, [pc, #336]	; (80014cc <MX_GPIO_Init+0x178>)
 800137c:	6b1b      	ldr	r3, [r3, #48]	; 0x30
 800137e:	f003 0304 	and.w	r3, r3, #4
 8001382:	613b      	str	r3, [r7, #16]
 8001384:	693b      	ldr	r3, [r7, #16]
  __HAL_RCC_GPIOH_CLK_ENABLE();
 8001386:	2300      	movs	r3, #0
 8001388:	60fb      	str	r3, [r7, #12]
 800138a:	4b50      	ldr	r3, [pc, #320]	; (80014cc <MX_GPIO_Init+0x178>)
 800138c:	6b1b      	ldr	r3, [r3, #48]	; 0x30
 800138e:	4a4f      	ldr	r2, [pc, #316]	; (80014cc <MX_GPIO_Init+0x178>)
 8001390:	f043 0380 	orr.w	r3, r3, #128	; 0x80
 8001394:	6313      	str	r3, [r2, #48]	; 0x30
 8001396:	4b4d      	ldr	r3, [pc, #308]	; (80014cc <MX_GPIO_Init+0x178>)
 8001398:	6b1b      	ldr	r3, [r3, #48]	; 0x30
 800139a:	f003 0380 	and.w	r3, r3, #128	; 0x80
 800139e:	60fb      	str	r3, [r7, #12]
 80013a0:	68fb      	ldr	r3, [r7, #12]
  __HAL_RCC_GPIOA_CLK_ENABLE();
 80013a2:	2300      	movs	r3, #0
 80013a4:	60bb      	str	r3, [r7, #8]
 80013a6:	4b49      	ldr	r3, [pc, #292]	; (80014cc <MX_GPIO_Init+0x178>)
 80013a8:	6b1b      	ldr	r3, [r3, #48]	; 0x30
 80013aa:	4a48      	ldr	r2, [pc, #288]	; (80014cc <MX_GPIO_Init+0x178>)
 80013ac:	f043 0301 	orr.w	r3, r3, #1
 80013b0:	6313      	str	r3, [r2, #48]	; 0x30
 80013b2:	4b46      	ldr	r3, [pc, #280]	; (80014cc <MX_GPIO_Init+0x178>)
 80013b4:	6b1b      	ldr	r3, [r3, #48]	; 0x30
 80013b6:	f003 0301 	and.w	r3, r3, #1
 80013ba:	60bb      	str	r3, [r7, #8]
 80013bc:	68bb      	ldr	r3, [r7, #8]
  __HAL_RCC_GPIOB_CLK_ENABLE();
 80013be:	2300      	movs	r3, #0
 80013c0:	607b      	str	r3, [r7, #4]
 80013c2:	4b42      	ldr	r3, [pc, #264]	; (80014cc <MX_GPIO_Init+0x178>)
 80013c4:	6b1b      	ldr	r3, [r3, #48]	; 0x30
 80013c6:	4a41      	ldr	r2, [pc, #260]	; (80014cc <MX_GPIO_Init+0x178>)
 80013c8:	f043 0302 	orr.w	r3, r3, #2
 80013cc:	6313      	str	r3, [r2, #48]	; 0x30
 80013ce:	4b3f      	ldr	r3, [pc, #252]	; (80014cc <MX_GPIO_Init+0x178>)
 80013d0:	6b1b      	ldr	r3, [r3, #48]	; 0x30
 80013d2:	f003 0302 	and.w	r3, r3, #2
 80013d6:	607b      	str	r3, [r7, #4]
 80013d8:	687b      	ldr	r3, [r7, #4]
  __HAL_RCC_GPIOD_CLK_ENABLE();
 80013da:	2300      	movs	r3, #0
 80013dc:	603b      	str	r3, [r7, #0]
 80013de:	4b3b      	ldr	r3, [pc, #236]	; (80014cc <MX_GPIO_Init+0x178>)
 80013e0:	6b1b      	ldr	r3, [r3, #48]	; 0x30
 80013e2:	4a3a      	ldr	r2, [pc, #232]	; (80014cc <MX_GPIO_Init+0x178>)
 80013e4:	f043 0308 	orr.w	r3, r3, #8
 80013e8:	6313      	str	r3, [r2, #48]	; 0x30
 80013ea:	4b38      	ldr	r3, [pc, #224]	; (80014cc <MX_GPIO_Init+0x178>)
 80013ec:	6b1b      	ldr	r3, [r3, #48]	; 0x30
 80013ee:	f003 0308 	and.w	r3, r3, #8
 80013f2:	603b      	str	r3, [r7, #0]
 80013f4:	683b      	ldr	r3, [r7, #0]

  /*Configure GPIO pin Output Level */
  HAL_GPIO_WritePin(GPIOC, SPI2_WP_Pin|SPI2_CS_Pin|SPI1_CS_Pin, GPIO_PIN_RESET);
 80013f6:	2200      	movs	r2, #0
 80013f8:	2113      	movs	r1, #19
 80013fa:	4835      	ldr	r0, [pc, #212]	; (80014d0 <MX_GPIO_Init+0x17c>)
 80013fc:	f002 fbe8 	bl	8003bd0 <HAL_GPIO_WritePin>

  /*Configure GPIO pin Output Level */
  HAL_GPIO_WritePin(SPI1_WP_GPIO_Port, SPI1_WP_Pin, GPIO_PIN_RESET);
 8001400:	2200      	movs	r2, #0
 8001402:	2110      	movs	r1, #16
 8001404:	4833      	ldr	r0, [pc, #204]	; (80014d4 <MX_GPIO_Init+0x180>)
 8001406:	f002 fbe3 	bl	8003bd0 <HAL_GPIO_WritePin>

  /*Configure GPIO pin Output Level */
  HAL_GPIO_WritePin(GPIOB, LED3_Pin|LED2_Pin, GPIO_PIN_RESET);
 800140a:	2200      	movs	r2, #0
 800140c:	f44f 4181 	mov.w	r1, #16512	; 0x4080
 8001410:	4831      	ldr	r0, [pc, #196]	; (80014d8 <MX_GPIO_Init+0x184>)
 8001412:	f002 fbdd 	bl	8003bd0 <HAL_GPIO_WritePin>

  /*Configure GPIO pin : SPI2_WP_Pin */
  GPIO_InitStruct.Pin = SPI2_WP_Pin;
 8001416:	2301      	movs	r3, #1
 8001418:	617b      	str	r3, [r7, #20]
  GPIO_InitStruct.Mode = GPIO_MODE_OUTPUT_PP;
 800141a:	2301      	movs	r3, #1
 800141c:	61bb      	str	r3, [r7, #24]
  GPIO_InitStruct.Pull = GPIO_PULLUP;
 800141e:	2301      	movs	r3, #1
 8001420:	61fb      	str	r3, [r7, #28]
  GPIO_InitStruct.Speed = GPIO_SPEED_FREQ_LOW;
 8001422:	2300      	movs	r3, #0
 8001424:	623b      	str	r3, [r7, #32]
  HAL_GPIO_Init(SPI2_WP_GPIO_Port, &GPIO_InitStruct);
 8001426:	f107 0314 	add.w	r3, r7, #20
 800142a:	4619      	mov	r1, r3
 800142c:	4828      	ldr	r0, [pc, #160]	; (80014d0 <MX_GPIO_Init+0x17c>)
 800142e:	f002 fa0b 	bl	8003848 <HAL_GPIO_Init>

  /*Configure GPIO pins : SPI2_CS_Pin SPI1_CS_Pin */
  GPIO_InitStruct.Pin = SPI2_CS_Pin|SPI1_CS_Pin;
 8001432:	2312      	movs	r3, #18
 8001434:	617b      	str	r3, [r7, #20]
  GPIO_InitStruct.Mode = GPIO_MODE_OUTPUT_PP;
 8001436:	2301      	movs	r3, #1
 8001438:	61bb      	str	r3, [r7, #24]
  GPIO_InitStruct.Pull = GPIO_NOPULL;
 800143a:	2300      	movs	r3, #0
 800143c:	61fb      	str	r3, [r7, #28]
  GPIO_InitStruct.Speed = GPIO_SPEED_FREQ_LOW;
 800143e:	2300      	movs	r3, #0
 8001440:	623b      	str	r3, [r7, #32]
  HAL_GPIO_Init(GPIOC, &GPIO_InitStruct);
 8001442:	f107 0314 	add.w	r3, r7, #20
 8001446:	4619      	mov	r1, r3
 8001448:	4821      	ldr	r0, [pc, #132]	; (80014d0 <MX_GPIO_Init+0x17c>)
 800144a:	f002 f9fd 	bl	8003848 <HAL_GPIO_Init>

  /*Configure GPIO pin : SPI1_WP_Pin */
  GPIO_InitStruct.Pin = SPI1_WP_Pin;
 800144e:	2310      	movs	r3, #16
 8001450:	617b      	str	r3, [r7, #20]
  GPIO_InitStruct.Mode = GPIO_MODE_OUTPUT_PP;
 8001452:	2301      	movs	r3, #1
 8001454:	61bb      	str	r3, [r7, #24]
  GPIO_InitStruct.Pull = GPIO_PULLUP;
 8001456:	2301      	movs	r3, #1
 8001458:	61fb      	str	r3, [r7, #28]
  GPIO_InitStruct.Speed = GPIO_SPEED_FREQ_LOW;
 800145a:	2300      	movs	r3, #0
 800145c:	623b      	str	r3, [r7, #32]
  HAL_GPIO_Init(SPI1_WP_GPIO_Port, &GPIO_InitStruct);
 800145e:	f107 0314 	add.w	r3, r7, #20
 8001462:	4619      	mov	r1, r3
 8001464:	481b      	ldr	r0, [pc, #108]	; (80014d4 <MX_GPIO_Init+0x180>)
 8001466:	f002 f9ef 	bl	8003848 <HAL_GPIO_Init>

  /*Configure GPIO pin : JMP_Flight_Pin */
  GPIO_InitStruct.Pin = JMP_Flight_Pin;
 800146a:	2302      	movs	r3, #2
 800146c:	617b      	str	r3, [r7, #20]
  GPIO_InitStruct.Mode = GPIO_MODE_INPUT;
 800146e:	2300      	movs	r3, #0
 8001470:	61bb      	str	r3, [r7, #24]
  GPIO_InitStruct.Pull = GPIO_NOPULL;
 8001472:	2300      	movs	r3, #0
 8001474:	61fb      	str	r3, [r7, #28]
  HAL_GPIO_Init(JMP_Flight_GPIO_Port, &GPIO_InitStruct);
 8001476:	f107 0314 	add.w	r3, r7, #20
 800147a:	4619      	mov	r1, r3
 800147c:	4816      	ldr	r0, [pc, #88]	; (80014d8 <MX_GPIO_Init+0x184>)
 800147e:	f002 f9e3 	bl	8003848 <HAL_GPIO_Init>

  /*Configure GPIO pins : LED3_Pin LED2_Pin */
  GPIO_InitStruct.Pin = LED3_Pin|LED2_Pin;
 8001482:	f44f 4381 	mov.w	r3, #16512	; 0x4080
 8001486:	617b      	str	r3, [r7, #20]
  GPIO_InitStruct.Mode = GPIO_MODE_OUTPUT_PP;
 8001488:	2301      	movs	r3, #1
 800148a:	61bb      	str	r3, [r7, #24]
  GPIO_InitStruct.Pull = GPIO_PULLDOWN;
 800148c:	2302      	movs	r3, #2
 800148e:	61fb      	str	r3, [r7, #28]
  GPIO_InitStruct.Speed = GPIO_SPEED_FREQ_LOW;
 8001490:	2300      	movs	r3, #0
 8001492:	623b      	str	r3, [r7, #32]
  HAL_GPIO_Init(GPIOB, &GPIO_InitStruct);
 8001494:	f107 0314 	add.w	r3, r7, #20
 8001498:	4619      	mov	r1, r3
 800149a:	480f      	ldr	r0, [pc, #60]	; (80014d8 <MX_GPIO_Init+0x184>)
 800149c:	f002 f9d4 	bl	8003848 <HAL_GPIO_Init>

  /*Configure GPIO pins : PA11 PA12 */
  GPIO_InitStruct.Pin = GPIO_PIN_11|GPIO_PIN_12;
 80014a0:	f44f 53c0 	mov.w	r3, #6144	; 0x1800
 80014a4:	617b      	str	r3, [r7, #20]
  GPIO_InitStruct.Mode = GPIO_MODE_AF_PP;
 80014a6:	2302      	movs	r3, #2
 80014a8:	61bb      	str	r3, [r7, #24]
  GPIO_InitStruct.Pull = GPIO_NOPULL;
 80014aa:	2300      	movs	r3, #0
 80014ac:	61fb      	str	r3, [r7, #28]
  GPIO_InitStruct.Speed = GPIO_SPEED_FREQ_VERY_HIGH;
 80014ae:	2303      	movs	r3, #3
 80014b0:	623b      	str	r3, [r7, #32]
  GPIO_InitStruct.Alternate = GPIO_AF9_CAN1;
 80014b2:	2309      	movs	r3, #9
 80014b4:	627b      	str	r3, [r7, #36]	; 0x24
  HAL_GPIO_Init(GPIOA, &GPIO_InitStruct);
 80014b6:	f107 0314 	add.w	r3, r7, #20
 80014ba:	4619      	mov	r1, r3
 80014bc:	4805      	ldr	r0, [pc, #20]	; (80014d4 <MX_GPIO_Init+0x180>)
 80014be:	f002 f9c3 	bl	8003848 <HAL_GPIO_Init>

/* USER CODE BEGIN MX_GPIO_Init_2 */
/* USER CODE END MX_GPIO_Init_2 */
}
 80014c2:	bf00      	nop
 80014c4:	3728      	adds	r7, #40	; 0x28
 80014c6:	46bd      	mov	sp, r7
 80014c8:	bd80      	pop	{r7, pc}
 80014ca:	bf00      	nop
 80014cc:	40023800 	.word	0x40023800
 80014d0:	40020800 	.word	0x40020800
 80014d4:	40020000 	.word	0x40020000
 80014d8:	40020400 	.word	0x40020400

080014dc <clean_data_buffer>:

/* USER CODE BEGIN 4 */
void clean_data_buffer(uint16_t array_size, uint8_t data_array[array_size]) {
 80014dc:	b480      	push	{r7}
 80014de:	b085      	sub	sp, #20
 80014e0:	af00      	add	r7, sp, #0
 80014e2:	4603      	mov	r3, r0
 80014e4:	6039      	str	r1, [r7, #0]
 80014e6:	80fb      	strh	r3, [r7, #6]
    for (int i = 0; i < array_size; ++i) {
 80014e8:	2300      	movs	r3, #0
 80014ea:	60fb      	str	r3, [r7, #12]
 80014ec:	e007      	b.n	80014fe <clean_data_buffer+0x22>
    	data_array[i] = 0xFF;  // Initialize each element to 0xFF
 80014ee:	68fb      	ldr	r3, [r7, #12]
 80014f0:	683a      	ldr	r2, [r7, #0]
 80014f2:	4413      	add	r3, r2
 80014f4:	22ff      	movs	r2, #255	; 0xff
 80014f6:	701a      	strb	r2, [r3, #0]
    for (int i = 0; i < array_size; ++i) {
 80014f8:	68fb      	ldr	r3, [r7, #12]
 80014fa:	3301      	adds	r3, #1
 80014fc:	60fb      	str	r3, [r7, #12]
 80014fe:	88fb      	ldrh	r3, [r7, #6]
 8001500:	68fa      	ldr	r2, [r7, #12]
 8001502:	429a      	cmp	r2, r3
 8001504:	dbf3      	blt.n	80014ee <clean_data_buffer+0x12>
    }
}
 8001506:	bf00      	nop
 8001508:	bf00      	nop
 800150a:	3714      	adds	r7, #20
 800150c:	46bd      	mov	sp, r7
 800150e:	f85d 7b04 	ldr.w	r7, [sp], #4
 8001512:	4770      	bx	lr

08001514 <systemInit>:

void systemInit() {
 8001514:	b580      	push	{r7, lr}
 8001516:	b084      	sub	sp, #16
 8001518:	af00      	add	r7, sp, #0
	i2c_accel = &hi2c2;
 800151a:	4b56      	ldr	r3, [pc, #344]	; (8001674 <systemInit+0x160>)
 800151c:	4a56      	ldr	r2, [pc, #344]	; (8001678 <systemInit+0x164>)
 800151e:	601a      	str	r2, [r3, #0]
	i2c_bme280 = &hi2c1;
 8001520:	4b56      	ldr	r3, [pc, #344]	; (800167c <systemInit+0x168>)
 8001522:	4a57      	ldr	r2, [pc, #348]	; (8001680 <systemInit+0x16c>)
 8001524:	601a      	str	r2, [r3, #0]

	gpio_set_config();
 8001526:	f000 f8db 	bl	80016e0 <gpio_set_config>

	HAL_GPIO_WritePin(led_orange.GPIOx, led_orange.GPIO_Pin, GPIO_PIN_RESET);	// Turn LED off
 800152a:	4b56      	ldr	r3, [pc, #344]	; (8001684 <systemInit+0x170>)
 800152c:	681b      	ldr	r3, [r3, #0]
 800152e:	4a55      	ldr	r2, [pc, #340]	; (8001684 <systemInit+0x170>)
 8001530:	8891      	ldrh	r1, [r2, #4]
 8001532:	2200      	movs	r2, #0
 8001534:	4618      	mov	r0, r3
 8001536:	f002 fb4b 	bl	8003bd0 <HAL_GPIO_WritePin>
	HAL_GPIO_WritePin(cs_spi1.GPIOx, cs_spi1.GPIO_Pin, GPIO_PIN_SET);		// SET SPI CS High to disable bus 1
 800153a:	4b53      	ldr	r3, [pc, #332]	; (8001688 <systemInit+0x174>)
 800153c:	681b      	ldr	r3, [r3, #0]
 800153e:	4a52      	ldr	r2, [pc, #328]	; (8001688 <systemInit+0x174>)
 8001540:	8891      	ldrh	r1, [r2, #4]
 8001542:	2201      	movs	r2, #1
 8001544:	4618      	mov	r0, r3
 8001546:	f002 fb43 	bl	8003bd0 <HAL_GPIO_WritePin>
	HAL_GPIO_WritePin(cs_spi2.GPIOx, cs_spi2.GPIO_Pin, GPIO_PIN_SET);		// SET SPI CS High to disable bus 2
 800154a:	4b50      	ldr	r3, [pc, #320]	; (800168c <systemInit+0x178>)
 800154c:	681b      	ldr	r3, [r3, #0]
 800154e:	4a4f      	ldr	r2, [pc, #316]	; (800168c <systemInit+0x178>)
 8001550:	8891      	ldrh	r1, [r2, #4]
 8001552:	2201      	movs	r2, #1
 8001554:	4618      	mov	r0, r3
 8001556:	f002 fb3b 	bl	8003bd0 <HAL_GPIO_WritePin>

	// Clean the data buffer and set all values to 0xFF
	next_blank_page = 0;
 800155a:	4b4d      	ldr	r3, [pc, #308]	; (8001690 <systemInit+0x17c>)
 800155c:	2200      	movs	r2, #0
 800155e:	601a      	str	r2, [r3, #0]

	clean_data_buffer(PAGE_SIZE, data_buffer_tx[0]);
 8001560:	494c      	ldr	r1, [pc, #304]	; (8001694 <systemInit+0x180>)
 8001562:	f44f 7080 	mov.w	r0, #256	; 0x100
 8001566:	f7ff ffb9 	bl	80014dc <clean_data_buffer>
	clean_data_buffer(PAGE_SIZE, data_buffer_tx[1]);
 800156a:	494b      	ldr	r1, [pc, #300]	; (8001698 <systemInit+0x184>)
 800156c:	f44f 7080 	mov.w	r0, #256	; 0x100
 8001570:	f7ff ffb4 	bl	80014dc <clean_data_buffer>

	for (uint8_t i = 0; i < 6; i++) {
 8001574:	2300      	movs	r3, #0
 8001576:	73fb      	strb	r3, [r7, #15]
 8001578:	e00e      	b.n	8001598 <systemInit+0x84>
		accel_data[i] = 0x00;
 800157a:	7bfb      	ldrb	r3, [r7, #15]
 800157c:	4a47      	ldr	r2, [pc, #284]	; (800169c <systemInit+0x188>)
 800157e:	2100      	movs	r1, #0
 8001580:	54d1      	strb	r1, [r2, r3]
		bme280_data_1[i] = 0x00;
 8001582:	7bfb      	ldrb	r3, [r7, #15]
 8001584:	4a46      	ldr	r2, [pc, #280]	; (80016a0 <systemInit+0x18c>)
 8001586:	2100      	movs	r1, #0
 8001588:	54d1      	strb	r1, [r2, r3]
		bme280_data_2[i] = 0x00;
 800158a:	7bfb      	ldrb	r3, [r7, #15]
 800158c:	4a45      	ldr	r2, [pc, #276]	; (80016a4 <systemInit+0x190>)
 800158e:	2100      	movs	r1, #0
 8001590:	54d1      	strb	r1, [r2, r3]
	for (uint8_t i = 0; i < 6; i++) {
 8001592:	7bfb      	ldrb	r3, [r7, #15]
 8001594:	3301      	adds	r3, #1
 8001596:	73fb      	strb	r3, [r7, #15]
 8001598:	7bfb      	ldrb	r3, [r7, #15]
 800159a:	2b05      	cmp	r3, #5
 800159c:	d9ed      	bls.n	800157a <systemInit+0x66>
	}

	// Initialise the peripherals
	init_accel(i2c_accel);
 800159e:	4b35      	ldr	r3, [pc, #212]	; (8001674 <systemInit+0x160>)
 80015a0:	681b      	ldr	r3, [r3, #0]
 80015a2:	4618      	mov	r0, r3
 80015a4:	f7fe ffa8 	bl	80004f8 <init_accel>
	init_bme280(i2c_bme280, 0);
 80015a8:	4b34      	ldr	r3, [pc, #208]	; (800167c <systemInit+0x168>)
 80015aa:	681b      	ldr	r3, [r3, #0]
 80015ac:	2100      	movs	r1, #0
 80015ae:	4618      	mov	r0, r3
 80015b0:	f7ff f816 	bl	80005e0 <init_bme280>
	init_bme280(i2c_bme280, 1);
 80015b4:	4b31      	ldr	r3, [pc, #196]	; (800167c <systemInit+0x168>)
 80015b6:	681b      	ldr	r3, [r3, #0]
 80015b8:	2101      	movs	r1, #1
 80015ba:	4618      	mov	r0, r3
 80015bc:	f7ff f810 	bl	80005e0 <init_bme280>
	software_reset(&hspi1, cs_spi1);
 80015c0:	4b31      	ldr	r3, [pc, #196]	; (8001688 <systemInit+0x174>)
 80015c2:	e893 0006 	ldmia.w	r3, {r1, r2}
 80015c6:	4838      	ldr	r0, [pc, #224]	; (80016a8 <systemInit+0x194>)
 80015c8:	f7ff f9a4 	bl	8000914 <software_reset>
	software_reset(&hspi2, cs_spi2);
 80015cc:	4b2f      	ldr	r3, [pc, #188]	; (800168c <systemInit+0x178>)
 80015ce:	e893 0006 	ldmia.w	r3, {r1, r2}
 80015d2:	4836      	ldr	r0, [pc, #216]	; (80016ac <systemInit+0x198>)
 80015d4:	f7ff f99e 	bl	8000914 <software_reset>

	int next_blank_page0 = find_next_blank_page(&hspi1, &end_of_flash, cs_spi1);
 80015d8:	4b2b      	ldr	r3, [pc, #172]	; (8001688 <systemInit+0x174>)
 80015da:	cb0c      	ldmia	r3, {r2, r3}
 80015dc:	4934      	ldr	r1, [pc, #208]	; (80016b0 <systemInit+0x19c>)
 80015de:	4832      	ldr	r0, [pc, #200]	; (80016a8 <systemInit+0x194>)
 80015e0:	f7ff f9ea 	bl	80009b8 <find_next_blank_page>
 80015e4:	4603      	mov	r3, r0
 80015e6:	60bb      	str	r3, [r7, #8]
	int next_blank_page1 = find_next_blank_page(&hspi2, &end_of_flash, cs_spi2);
 80015e8:	4b28      	ldr	r3, [pc, #160]	; (800168c <systemInit+0x178>)
 80015ea:	cb0c      	ldmia	r3, {r2, r3}
 80015ec:	4930      	ldr	r1, [pc, #192]	; (80016b0 <systemInit+0x19c>)
 80015ee:	482f      	ldr	r0, [pc, #188]	; (80016ac <systemInit+0x198>)
 80015f0:	f7ff f9e2 	bl	80009b8 <find_next_blank_page>
 80015f4:	4603      	mov	r3, r0
 80015f6:	607b      	str	r3, [r7, #4]

	// Assign the value of next_blank_page to the larger of next_blank_page0 and next_blank_page1
	next_blank_page = (next_blank_page0 > next_blank_page1) ? next_blank_page0 : next_blank_page1;
 80015f8:	687a      	ldr	r2, [r7, #4]
 80015fa:	68bb      	ldr	r3, [r7, #8]
 80015fc:	4293      	cmp	r3, r2
 80015fe:	bfb8      	it	lt
 8001600:	4613      	movlt	r3, r2
 8001602:	461a      	mov	r2, r3
 8001604:	4b22      	ldr	r3, [pc, #136]	; (8001690 <systemInit+0x17c>)
 8001606:	601a      	str	r2, [r3, #0]

	buffer_ref = 0;
 8001608:	4b2a      	ldr	r3, [pc, #168]	; (80016b4 <systemInit+0x1a0>)
 800160a:	2200      	movs	r2, #0
 800160c:	701a      	strb	r2, [r3, #0]
	byte_tracker = 0;
 800160e:	4b2a      	ldr	r3, [pc, #168]	; (80016b8 <systemInit+0x1a4>)
 8001610:	2200      	movs	r2, #0
 8001612:	801a      	strh	r2, [r3, #0]
	end_of_flash = GPIO_PIN_RESET;
 8001614:	4b26      	ldr	r3, [pc, #152]	; (80016b0 <systemInit+0x19c>)
 8001616:	2200      	movs	r2, #0
 8001618:	701a      	strb	r2, [r3, #0]
	uart2_rec_flag = 0;
 800161a:	4b28      	ldr	r3, [pc, #160]	; (80016bc <systemInit+0x1a8>)
 800161c:	2200      	movs	r2, #0
 800161e:	701a      	strb	r2, [r3, #0]
	tim6_overflow_flag = 0;
 8001620:	4b27      	ldr	r3, [pc, #156]	; (80016c0 <systemInit+0x1ac>)
 8001622:	2200      	movs	r2, #0
 8001624:	701a      	strb	r2, [r3, #0]
	tim7_overflow_flag = 0;
 8001626:	4b27      	ldr	r3, [pc, #156]	; (80016c4 <systemInit+0x1b0>)
 8001628:	2200      	movs	r2, #0
 800162a:	701a      	strb	r2, [r3, #0]

	sysStatus = systemStatus(&hspi1, &hspi2, i2c_bme280, i2c_accel);
 800162c:	4b13      	ldr	r3, [pc, #76]	; (800167c <systemInit+0x168>)
 800162e:	681a      	ldr	r2, [r3, #0]
 8001630:	4b10      	ldr	r3, [pc, #64]	; (8001674 <systemInit+0x160>)
 8001632:	681b      	ldr	r3, [r3, #0]
 8001634:	491d      	ldr	r1, [pc, #116]	; (80016ac <systemInit+0x198>)
 8001636:	481c      	ldr	r0, [pc, #112]	; (80016a8 <systemInit+0x194>)
 8001638:	f000 fa0e 	bl	8001a58 <systemStatus>
 800163c:	4603      	mov	r3, r0
 800163e:	461a      	mov	r2, r3
 8001640:	4b21      	ldr	r3, [pc, #132]	; (80016c8 <systemInit+0x1b4>)
 8001642:	701a      	strb	r2, [r3, #0]

	send_uart_hex(&huart2, sysStatus);
 8001644:	4b20      	ldr	r3, [pc, #128]	; (80016c8 <systemInit+0x1b4>)
 8001646:	781b      	ldrb	r3, [r3, #0]
 8001648:	4619      	mov	r1, r3
 800164a:	4820      	ldr	r0, [pc, #128]	; (80016cc <systemInit+0x1b8>)
 800164c:	f001 fa17 	bl	8002a7e <send_uart_hex>

	// Initiate clocks, interrupts and DMA
	HAL_UART_Receive_IT(&huart2, UARTRxData, 2);
 8001650:	2202      	movs	r2, #2
 8001652:	491f      	ldr	r1, [pc, #124]	; (80016d0 <systemInit+0x1bc>)
 8001654:	481d      	ldr	r0, [pc, #116]	; (80016cc <systemInit+0x1b8>)
 8001656:	f005 ffa0 	bl	800759a <HAL_UART_Receive_IT>
	initialise_rtc_default(&hrtc);
 800165a:	481e      	ldr	r0, [pc, #120]	; (80016d4 <systemInit+0x1c0>)
 800165c:	f000 fd20 	bl	80020a0 <initialise_rtc_default>
	HAL_TIM_Base_Start_IT(&htim6);
 8001660:	481d      	ldr	r0, [pc, #116]	; (80016d8 <systemInit+0x1c4>)
 8001662:	f005 fbf1 	bl	8006e48 <HAL_TIM_Base_Start_IT>
	HAL_TIM_Base_Start_IT(&htim7);
 8001666:	481d      	ldr	r0, [pc, #116]	; (80016dc <systemInit+0x1c8>)
 8001668:	f005 fbee 	bl	8006e48 <HAL_TIM_Base_Start_IT>
}
 800166c:	bf00      	nop
 800166e:	3710      	adds	r7, #16
 8001670:	46bd      	mov	sp, r7
 8001672:	bd80      	pop	{r7, pc}
 8001674:	20000380 	.word	0x20000380
 8001678:	200000c4 	.word	0x200000c4
 800167c:	20000384 	.word	0x20000384
 8001680:	20000070 	.word	0x20000070
 8001684:	200005b4 	.word	0x200005b4
 8001688:	200005c4 	.word	0x200005c4
 800168c:	200005d4 	.word	0x200005d4
 8001690:	200005ac 	.word	0x200005ac
 8001694:	20000390 	.word	0x20000390
 8001698:	20000490 	.word	0x20000490
 800169c:	20000594 	.word	0x20000594
 80016a0:	2000059c 	.word	0x2000059c
 80016a4:	200005a4 	.word	0x200005a4
 80016a8:	20000138 	.word	0x20000138
 80016ac:	20000190 	.word	0x20000190
 80016b0:	200005b2 	.word	0x200005b2
 80016b4:	200005aa 	.word	0x200005aa
 80016b8:	200005b0 	.word	0x200005b0
 80016bc:	2000038a 	.word	0x2000038a
 80016c0:	2000038b 	.word	0x2000038b
 80016c4:	2000038c 	.word	0x2000038c
 80016c8:	200005ec 	.word	0x200005ec
 80016cc:	20000338 	.word	0x20000338
 80016d0:	20000388 	.word	0x20000388
 80016d4:	20000118 	.word	0x20000118
 80016d8:	200002a8 	.word	0x200002a8
 80016dc:	200002f0 	.word	0x200002f0

080016e0 <gpio_set_config>:

void gpio_set_config() {
 80016e0:	b590      	push	{r4, r7, lr}
 80016e2:	b083      	sub	sp, #12
 80016e4:	af00      	add	r7, sp, #0
	// Set LED gpio
	led_orange = create_GPIO_Config(GPIOB, GPIO_PIN_14);	// Orange LED (Heartbeat LED)
 80016e6:	4c30      	ldr	r4, [pc, #192]	; (80017a8 <gpio_set_config+0xc8>)
 80016e8:	463b      	mov	r3, r7
 80016ea:	f44f 4280 	mov.w	r2, #16384	; 0x4000
 80016ee:	492f      	ldr	r1, [pc, #188]	; (80017ac <gpio_set_config+0xcc>)
 80016f0:	4618      	mov	r0, r3
 80016f2:	f7ff fa41 	bl	8000b78 <create_GPIO_Config>
 80016f6:	4622      	mov	r2, r4
 80016f8:	463b      	mov	r3, r7
 80016fa:	e893 0003 	ldmia.w	r3, {r0, r1}
 80016fe:	e882 0003 	stmia.w	r2, {r0, r1}
	led_green = create_GPIO_Config(GPIOB, GPIO_PIN_7);		// Green LED (Hard Drive LED)
 8001702:	4c2b      	ldr	r4, [pc, #172]	; (80017b0 <gpio_set_config+0xd0>)
 8001704:	463b      	mov	r3, r7
 8001706:	2280      	movs	r2, #128	; 0x80
 8001708:	4928      	ldr	r1, [pc, #160]	; (80017ac <gpio_set_config+0xcc>)
 800170a:	4618      	mov	r0, r3
 800170c:	f7ff fa34 	bl	8000b78 <create_GPIO_Config>
 8001710:	4622      	mov	r2, r4
 8001712:	463b      	mov	r3, r7
 8001714:	e893 0003 	ldmia.w	r3, {r0, r1}
 8001718:	e882 0003 	stmia.w	r2, {r0, r1}

	// SPI Flash 0 CS and WP
	cs_spi1 = create_GPIO_Config(GPIOC, GPIO_PIN_4);		// Change for SRAD
 800171c:	4c25      	ldr	r4, [pc, #148]	; (80017b4 <gpio_set_config+0xd4>)
 800171e:	463b      	mov	r3, r7
 8001720:	2210      	movs	r2, #16
 8001722:	4925      	ldr	r1, [pc, #148]	; (80017b8 <gpio_set_config+0xd8>)
 8001724:	4618      	mov	r0, r3
 8001726:	f7ff fa27 	bl	8000b78 <create_GPIO_Config>
 800172a:	4622      	mov	r2, r4
 800172c:	463b      	mov	r3, r7
 800172e:	e893 0003 	ldmia.w	r3, {r0, r1}
 8001732:	e882 0003 	stmia.w	r2, {r0, r1}
	wp_spi1 = create_GPIO_Config(GPIOA, GPIO_PIN_4);
 8001736:	4c21      	ldr	r4, [pc, #132]	; (80017bc <gpio_set_config+0xdc>)
 8001738:	463b      	mov	r3, r7
 800173a:	2210      	movs	r2, #16
 800173c:	4920      	ldr	r1, [pc, #128]	; (80017c0 <gpio_set_config+0xe0>)
 800173e:	4618      	mov	r0, r3
 8001740:	f7ff fa1a 	bl	8000b78 <create_GPIO_Config>
 8001744:	4622      	mov	r2, r4
 8001746:	463b      	mov	r3, r7
 8001748:	e893 0003 	ldmia.w	r3, {r0, r1}
 800174c:	e882 0003 	stmia.w	r2, {r0, r1}

	// SPI Flash 1 CS and WP
	cs_spi2 = create_GPIO_Config(GPIOC, GPIO_PIN_1);		// Change for SRAD
 8001750:	4c1c      	ldr	r4, [pc, #112]	; (80017c4 <gpio_set_config+0xe4>)
 8001752:	463b      	mov	r3, r7
 8001754:	2202      	movs	r2, #2
 8001756:	4918      	ldr	r1, [pc, #96]	; (80017b8 <gpio_set_config+0xd8>)
 8001758:	4618      	mov	r0, r3
 800175a:	f7ff fa0d 	bl	8000b78 <create_GPIO_Config>
 800175e:	4622      	mov	r2, r4
 8001760:	463b      	mov	r3, r7
 8001762:	e893 0003 	ldmia.w	r3, {r0, r1}
 8001766:	e882 0003 	stmia.w	r2, {r0, r1}
	wp_spi2 = create_GPIO_Config(GPIOC, GPIO_PIN_0);
 800176a:	4c17      	ldr	r4, [pc, #92]	; (80017c8 <gpio_set_config+0xe8>)
 800176c:	463b      	mov	r3, r7
 800176e:	2201      	movs	r2, #1
 8001770:	4911      	ldr	r1, [pc, #68]	; (80017b8 <gpio_set_config+0xd8>)
 8001772:	4618      	mov	r0, r3
 8001774:	f7ff fa00 	bl	8000b78 <create_GPIO_Config>
 8001778:	4622      	mov	r2, r4
 800177a:	463b      	mov	r3, r7
 800177c:	e893 0003 	ldmia.w	r3, {r0, r1}
 8001780:	e882 0003 	stmia.w	r2, {r0, r1}

	// Flight Jumper GPIO Input
	jmp_flight = create_GPIO_Config(GPIOB, GPIO_PIN_1);
 8001784:	4c11      	ldr	r4, [pc, #68]	; (80017cc <gpio_set_config+0xec>)
 8001786:	463b      	mov	r3, r7
 8001788:	2202      	movs	r2, #2
 800178a:	4908      	ldr	r1, [pc, #32]	; (80017ac <gpio_set_config+0xcc>)
 800178c:	4618      	mov	r0, r3
 800178e:	f7ff f9f3 	bl	8000b78 <create_GPIO_Config>
 8001792:	4622      	mov	r2, r4
 8001794:	463b      	mov	r3, r7
 8001796:	e893 0003 	ldmia.w	r3, {r0, r1}
 800179a:	e882 0003 	stmia.w	r2, {r0, r1}
}
 800179e:	bf00      	nop
 80017a0:	370c      	adds	r7, #12
 80017a2:	46bd      	mov	sp, r7
 80017a4:	bd90      	pop	{r4, r7, pc}
 80017a6:	bf00      	nop
 80017a8:	200005b4 	.word	0x200005b4
 80017ac:	40020400 	.word	0x40020400
 80017b0:	200005bc 	.word	0x200005bc
 80017b4:	200005c4 	.word	0x200005c4
 80017b8:	40020800 	.word	0x40020800
 80017bc:	200005cc 	.word	0x200005cc
 80017c0:	40020000 	.word	0x40020000
 80017c4:	200005d4 	.word	0x200005d4
 80017c8:	200005dc 	.word	0x200005dc
 80017cc:	200005e4 	.word	0x200005e4

080017d0 <handleUART>:

void handleUART() {
 80017d0:	b590      	push	{r4, r7, lr}
 80017d2:	b083      	sub	sp, #12
 80017d4:	af00      	add	r7, sp, #0
	UART_HandleTypeDef *huart = &huart2;
 80017d6:	4b87      	ldr	r3, [pc, #540]	; (80019f4 <handleUART+0x224>)
 80017d8:	607b      	str	r3, [r7, #4]

	// Send Heartbeat to UART (data_rx[0] = "h")
	if (UARTRxData[0] == 0x68) {
 80017da:	4b87      	ldr	r3, [pc, #540]	; (80019f8 <handleUART+0x228>)
 80017dc:	781b      	ldrb	r3, [r3, #0]
 80017de:	2b68      	cmp	r3, #104	; 0x68
 80017e0:	d109      	bne.n	80017f6 <handleUART+0x26>
		heartbeatUART(huart);
 80017e2:	6878      	ldr	r0, [r7, #4]
 80017e4:	f000 f98a 	bl	8001afc <heartbeatUART>
		send_uart_hex(huart, sysStatus);
 80017e8:	4b84      	ldr	r3, [pc, #528]	; (80019fc <handleUART+0x22c>)
 80017ea:	781b      	ldrb	r3, [r3, #0]
 80017ec:	4619      	mov	r1, r3
 80017ee:	6878      	ldr	r0, [r7, #4]
 80017f0:	f001 f945 	bl	8002a7e <send_uart_hex>
 80017f4:	e0f1      	b.n	80019da <handleUART+0x20a>
	}

/***************************** SPI Flash ************************************************/
	// Erase specified flash chip (data_rx[0]  = "e")
	else if (UARTRxData[0] == 0x65) {
 80017f6:	4b80      	ldr	r3, [pc, #512]	; (80019f8 <handleUART+0x228>)
 80017f8:	781b      	ldrb	r3, [r3, #0]
 80017fa:	2b65      	cmp	r3, #101	; 0x65
 80017fc:	d11e      	bne.n	800183c <handleUART+0x6c>
		if(decodeASCII(UARTRxData[1]) == 0) {
 80017fe:	4b7e      	ldr	r3, [pc, #504]	; (80019f8 <handleUART+0x228>)
 8001800:	785b      	ldrb	r3, [r3, #1]
 8001802:	4618      	mov	r0, r3
 8001804:	f000 f90a 	bl	8001a1c <decodeASCII>
 8001808:	4603      	mov	r3, r0
 800180a:	2b00      	cmp	r3, #0
 800180c:	d106      	bne.n	800181c <handleUART+0x4c>
			eraseFlashSPI(&hspi1, huart, cs_spi1);
 800180e:	4b7c      	ldr	r3, [pc, #496]	; (8001a00 <handleUART+0x230>)
 8001810:	cb0c      	ldmia	r3, {r2, r3}
 8001812:	6879      	ldr	r1, [r7, #4]
 8001814:	487b      	ldr	r0, [pc, #492]	; (8001a04 <handleUART+0x234>)
 8001816:	f000 f97d 	bl	8001b14 <eraseFlashSPI>
 800181a:	e0de      	b.n	80019da <handleUART+0x20a>
		} else if (decodeASCII(UARTRxData[1]) == 1) {
 800181c:	4b76      	ldr	r3, [pc, #472]	; (80019f8 <handleUART+0x228>)
 800181e:	785b      	ldrb	r3, [r3, #1]
 8001820:	4618      	mov	r0, r3
 8001822:	f000 f8fb 	bl	8001a1c <decodeASCII>
 8001826:	4603      	mov	r3, r0
 8001828:	2b01      	cmp	r3, #1
 800182a:	f040 80d6 	bne.w	80019da <handleUART+0x20a>
			eraseFlashSPI(&hspi2, huart, cs_spi2);
 800182e:	4b76      	ldr	r3, [pc, #472]	; (8001a08 <handleUART+0x238>)
 8001830:	cb0c      	ldmia	r3, {r2, r3}
 8001832:	6879      	ldr	r1, [r7, #4]
 8001834:	4875      	ldr	r0, [pc, #468]	; (8001a0c <handleUART+0x23c>)
 8001836:	f000 f96d 	bl	8001b14 <eraseFlashSPI>
 800183a:	e0ce      	b.n	80019da <handleUART+0x20a>
		}
	}

	// Read data from specified flash chip (data_rx[0] = "r")
	else if (UARTRxData[0] == 0x72) {
 800183c:	4b6e      	ldr	r3, [pc, #440]	; (80019f8 <handleUART+0x228>)
 800183e:	781b      	ldrb	r3, [r3, #0]
 8001840:	2b72      	cmp	r3, #114	; 0x72
 8001842:	d11e      	bne.n	8001882 <handleUART+0xb2>
		if(decodeASCII(UARTRxData[1]) == 0) {
 8001844:	4b6c      	ldr	r3, [pc, #432]	; (80019f8 <handleUART+0x228>)
 8001846:	785b      	ldrb	r3, [r3, #1]
 8001848:	4618      	mov	r0, r3
 800184a:	f000 f8e7 	bl	8001a1c <decodeASCII>
 800184e:	4603      	mov	r3, r0
 8001850:	2b00      	cmp	r3, #0
 8001852:	d106      	bne.n	8001862 <handleUART+0x92>
			readFlashToUART(&hspi1, huart, cs_spi1);
 8001854:	4b6a      	ldr	r3, [pc, #424]	; (8001a00 <handleUART+0x230>)
 8001856:	cb0c      	ldmia	r3, {r2, r3}
 8001858:	6879      	ldr	r1, [r7, #4]
 800185a:	486a      	ldr	r0, [pc, #424]	; (8001a04 <handleUART+0x234>)
 800185c:	f000 f996 	bl	8001b8c <readFlashToUART>
 8001860:	e0bb      	b.n	80019da <handleUART+0x20a>
		} else if (decodeASCII(UARTRxData[1]) == 1) {
 8001862:	4b65      	ldr	r3, [pc, #404]	; (80019f8 <handleUART+0x228>)
 8001864:	785b      	ldrb	r3, [r3, #1]
 8001866:	4618      	mov	r0, r3
 8001868:	f000 f8d8 	bl	8001a1c <decodeASCII>
 800186c:	4603      	mov	r3, r0
 800186e:	2b01      	cmp	r3, #1
 8001870:	f040 80b3 	bne.w	80019da <handleUART+0x20a>
			readFlashToUART(&hspi2, huart, cs_spi2);
 8001874:	4b64      	ldr	r3, [pc, #400]	; (8001a08 <handleUART+0x238>)
 8001876:	cb0c      	ldmia	r3, {r2, r3}
 8001878:	6879      	ldr	r1, [r7, #4]
 800187a:	4864      	ldr	r0, [pc, #400]	; (8001a0c <handleUART+0x23c>)
 800187c:	f000 f986 	bl	8001b8c <readFlashToUART>
 8001880:	e0ab      	b.n	80019da <handleUART+0x20a>
		}
	}

	// Read Manufacturer over SPI (data_rx[0] = "m")
	else if (UARTRxData[0] == 0x6d) {
 8001882:	4b5d      	ldr	r3, [pc, #372]	; (80019f8 <handleUART+0x228>)
 8001884:	781b      	ldrb	r3, [r3, #0]
 8001886:	2b6d      	cmp	r3, #109	; 0x6d
 8001888:	d11e      	bne.n	80018c8 <handleUART+0xf8>
		if(decodeASCII(UARTRxData[1]) == 0) {
 800188a:	4b5b      	ldr	r3, [pc, #364]	; (80019f8 <handleUART+0x228>)
 800188c:	785b      	ldrb	r3, [r3, #1]
 800188e:	4618      	mov	r0, r3
 8001890:	f000 f8c4 	bl	8001a1c <decodeASCII>
 8001894:	4603      	mov	r3, r0
 8001896:	2b00      	cmp	r3, #0
 8001898:	d106      	bne.n	80018a8 <handleUART+0xd8>
			readFlashManuSPI(&hspi1, huart, cs_spi1);
 800189a:	4b59      	ldr	r3, [pc, #356]	; (8001a00 <handleUART+0x230>)
 800189c:	cb0c      	ldmia	r3, {r2, r3}
 800189e:	6879      	ldr	r1, [r7, #4]
 80018a0:	4858      	ldr	r0, [pc, #352]	; (8001a04 <handleUART+0x234>)
 80018a2:	f000 f9df 	bl	8001c64 <readFlashManuSPI>
 80018a6:	e098      	b.n	80019da <handleUART+0x20a>
		} else if (decodeASCII(UARTRxData[1]) == 1) {
 80018a8:	4b53      	ldr	r3, [pc, #332]	; (80019f8 <handleUART+0x228>)
 80018aa:	785b      	ldrb	r3, [r3, #1]
 80018ac:	4618      	mov	r0, r3
 80018ae:	f000 f8b5 	bl	8001a1c <decodeASCII>
 80018b2:	4603      	mov	r3, r0
 80018b4:	2b01      	cmp	r3, #1
 80018b6:	f040 8090 	bne.w	80019da <handleUART+0x20a>
			readFlashManuSPI(&hspi2, huart, cs_spi2);
 80018ba:	4b53      	ldr	r3, [pc, #332]	; (8001a08 <handleUART+0x238>)
 80018bc:	cb0c      	ldmia	r3, {r2, r3}
 80018be:	6879      	ldr	r1, [r7, #4]
 80018c0:	4852      	ldr	r0, [pc, #328]	; (8001a0c <handleUART+0x23c>)
 80018c2:	f000 f9cf 	bl	8001c64 <readFlashManuSPI>
 80018c6:	e088      	b.n	80019da <handleUART+0x20a>
		}
	}

	// Write a page over SPI (data_rx[0] = "w")
	else if (UARTRxData[0] == 0x77) {
 80018c8:	4b4b      	ldr	r3, [pc, #300]	; (80019f8 <handleUART+0x228>)
 80018ca:	781b      	ldrb	r3, [r3, #0]
 80018cc:	2b77      	cmp	r3, #119	; 0x77
 80018ce:	d11d      	bne.n	800190c <handleUART+0x13c>
		if(decodeASCII(UARTRxData[1]) == 0) {
 80018d0:	4b49      	ldr	r3, [pc, #292]	; (80019f8 <handleUART+0x228>)
 80018d2:	785b      	ldrb	r3, [r3, #1]
 80018d4:	4618      	mov	r0, r3
 80018d6:	f000 f8a1 	bl	8001a1c <decodeASCII>
 80018da:	4603      	mov	r3, r0
 80018dc:	2b00      	cmp	r3, #0
 80018de:	d106      	bne.n	80018ee <handleUART+0x11e>
			writePageSPI_W(&hspi1, huart, cs_spi1);
 80018e0:	4b47      	ldr	r3, [pc, #284]	; (8001a00 <handleUART+0x230>)
 80018e2:	cb0c      	ldmia	r3, {r2, r3}
 80018e4:	6879      	ldr	r1, [r7, #4]
 80018e6:	4847      	ldr	r0, [pc, #284]	; (8001a04 <handleUART+0x234>)
 80018e8:	f000 f9dc 	bl	8001ca4 <writePageSPI_W>
 80018ec:	e075      	b.n	80019da <handleUART+0x20a>
		} else if (decodeASCII(UARTRxData[1]) == 1) {
 80018ee:	4b42      	ldr	r3, [pc, #264]	; (80019f8 <handleUART+0x228>)
 80018f0:	785b      	ldrb	r3, [r3, #1]
 80018f2:	4618      	mov	r0, r3
 80018f4:	f000 f892 	bl	8001a1c <decodeASCII>
 80018f8:	4603      	mov	r3, r0
 80018fa:	2b01      	cmp	r3, #1
 80018fc:	d16d      	bne.n	80019da <handleUART+0x20a>
			writePageSPI_W(&hspi2, huart, cs_spi2);
 80018fe:	4b42      	ldr	r3, [pc, #264]	; (8001a08 <handleUART+0x238>)
 8001900:	cb0c      	ldmia	r3, {r2, r3}
 8001902:	6879      	ldr	r1, [r7, #4]
 8001904:	4841      	ldr	r0, [pc, #260]	; (8001a0c <handleUART+0x23c>)
 8001906:	f000 f9cd 	bl	8001ca4 <writePageSPI_W>
 800190a:	e066      	b.n	80019da <handleUART+0x20a>
		}
	}

	// Software reset flash chip over SPI (data_rx[0] = "x")
	else if (UARTRxData[0] == 0x78) {
 800190c:	4b3a      	ldr	r3, [pc, #232]	; (80019f8 <handleUART+0x228>)
 800190e:	781b      	ldrb	r3, [r3, #0]
 8001910:	2b78      	cmp	r3, #120	; 0x78
 8001912:	d11d      	bne.n	8001950 <handleUART+0x180>
		if(decodeASCII(UARTRxData[1]) == 0) {
 8001914:	4b38      	ldr	r3, [pc, #224]	; (80019f8 <handleUART+0x228>)
 8001916:	785b      	ldrb	r3, [r3, #1]
 8001918:	4618      	mov	r0, r3
 800191a:	f000 f87f 	bl	8001a1c <decodeASCII>
 800191e:	4603      	mov	r3, r0
 8001920:	2b00      	cmp	r3, #0
 8001922:	d106      	bne.n	8001932 <handleUART+0x162>
			resetSPIFlash(&hspi1, huart, cs_spi1);
 8001924:	4b36      	ldr	r3, [pc, #216]	; (8001a00 <handleUART+0x230>)
 8001926:	cb0c      	ldmia	r3, {r2, r3}
 8001928:	6879      	ldr	r1, [r7, #4]
 800192a:	4836      	ldr	r0, [pc, #216]	; (8001a04 <handleUART+0x234>)
 800192c:	f000 fa0e 	bl	8001d4c <resetSPIFlash>
 8001930:	e053      	b.n	80019da <handleUART+0x20a>
		} else if (decodeASCII(UARTRxData[1]) == 1) {
 8001932:	4b31      	ldr	r3, [pc, #196]	; (80019f8 <handleUART+0x228>)
 8001934:	785b      	ldrb	r3, [r3, #1]
 8001936:	4618      	mov	r0, r3
 8001938:	f000 f870 	bl	8001a1c <decodeASCII>
 800193c:	4603      	mov	r3, r0
 800193e:	2b01      	cmp	r3, #1
 8001940:	d14b      	bne.n	80019da <handleUART+0x20a>
			resetSPIFlash(&hspi2, huart, cs_spi2);
 8001942:	4b31      	ldr	r3, [pc, #196]	; (8001a08 <handleUART+0x238>)
 8001944:	cb0c      	ldmia	r3, {r2, r3}
 8001946:	6879      	ldr	r1, [r7, #4]
 8001948:	4830      	ldr	r0, [pc, #192]	; (8001a0c <handleUART+0x23c>)
 800194a:	f000 f9ff 	bl	8001d4c <resetSPIFlash>
 800194e:	e044      	b.n	80019da <handleUART+0x20a>
		}
	}

/*********************************** I2C Accelerometer ***********************************/
	// Read Accelerometer WhoAmI (data_rx[0] = "c")
	else if (UARTRxData[0] == 0x63) {
 8001950:	4b29      	ldr	r3, [pc, #164]	; (80019f8 <handleUART+0x228>)
 8001952:	781b      	ldrb	r3, [r3, #0]
 8001954:	2b63      	cmp	r3, #99	; 0x63
 8001956:	d106      	bne.n	8001966 <handleUART+0x196>
		checkAccelWhoAmI(i2c_accel, huart);
 8001958:	4b2d      	ldr	r3, [pc, #180]	; (8001a10 <handleUART+0x240>)
 800195a:	681b      	ldr	r3, [r3, #0]
 800195c:	6879      	ldr	r1, [r7, #4]
 800195e:	4618      	mov	r0, r3
 8001960:	f000 fa0c 	bl	8001d7c <checkAccelWhoAmI>
 8001964:	e039      	b.n	80019da <handleUART+0x20a>
	}

	// Read the accelerometer and print to the UART[0] (data_rx [0] = "a")
	else if (UARTRxData[0] == 0x61) {
 8001966:	4b24      	ldr	r3, [pc, #144]	; (80019f8 <handleUART+0x228>)
 8001968:	781b      	ldrb	r3, [r3, #0]
 800196a:	2b61      	cmp	r3, #97	; 0x61
 800196c:	d103      	bne.n	8001976 <handleUART+0x1a6>
		accelToUART(huart);
 800196e:	6878      	ldr	r0, [r7, #4]
 8001970:	f000 fa18 	bl	8001da4 <accelToUART>
 8001974:	e031      	b.n	80019da <handleUART+0x20a>
	}

/********************************** I2C BME280 *******************************************/
	// Read the temp sensor ID and print to the UART[0] (data_rx [0]= "b")
	else if (UARTRxData[0] == 0x62) {
 8001976:	4b20      	ldr	r3, [pc, #128]	; (80019f8 <handleUART+0x228>)
 8001978:	781b      	ldrb	r3, [r3, #0]
 800197a:	2b62      	cmp	r3, #98	; 0x62
 800197c:	d10d      	bne.n	800199a <handleUART+0x1ca>
		readTempSensorID(i2c_bme280, huart, decodeASCII(UARTRxData[1]));
 800197e:	4b25      	ldr	r3, [pc, #148]	; (8001a14 <handleUART+0x244>)
 8001980:	681c      	ldr	r4, [r3, #0]
 8001982:	4b1d      	ldr	r3, [pc, #116]	; (80019f8 <handleUART+0x228>)
 8001984:	785b      	ldrb	r3, [r3, #1]
 8001986:	4618      	mov	r0, r3
 8001988:	f000 f848 	bl	8001a1c <decodeASCII>
 800198c:	4603      	mov	r3, r0
 800198e:	461a      	mov	r2, r3
 8001990:	6879      	ldr	r1, [r7, #4]
 8001992:	4620      	mov	r0, r4
 8001994:	f000 fa22 	bl	8001ddc <readTempSensorID>
 8001998:	e01f      	b.n	80019da <handleUART+0x20a>
	}

	// Read the temp sensor calibration registers and print to the UART (data_rx[0] = "p")
	else if (UARTRxData[0] == 0x70) {
 800199a:	4b17      	ldr	r3, [pc, #92]	; (80019f8 <handleUART+0x228>)
 800199c:	781b      	ldrb	r3, [r3, #0]
 800199e:	2b70      	cmp	r3, #112	; 0x70
 80019a0:	d10d      	bne.n	80019be <handleUART+0x1ee>
		readTempCalibration(i2c_bme280, huart, decodeASCII(UARTRxData[1]));
 80019a2:	4b1c      	ldr	r3, [pc, #112]	; (8001a14 <handleUART+0x244>)
 80019a4:	681c      	ldr	r4, [r3, #0]
 80019a6:	4b14      	ldr	r3, [pc, #80]	; (80019f8 <handleUART+0x228>)
 80019a8:	785b      	ldrb	r3, [r3, #1]
 80019aa:	4618      	mov	r0, r3
 80019ac:	f000 f836 	bl	8001a1c <decodeASCII>
 80019b0:	4603      	mov	r3, r0
 80019b2:	461a      	mov	r2, r3
 80019b4:	6879      	ldr	r1, [r7, #4]
 80019b6:	4620      	mov	r0, r4
 80019b8:	f000 fa25 	bl	8001e06 <readTempCalibration>
 80019bc:	e00d      	b.n	80019da <handleUART+0x20a>
	}

	// Read the temp sensor and print to the UART[0] (data_rx [0]= "t")
	else if (UARTRxData[0] == 0x74) {
 80019be:	4b0e      	ldr	r3, [pc, #56]	; (80019f8 <handleUART+0x228>)
 80019c0:	781b      	ldrb	r3, [r3, #0]
 80019c2:	2b74      	cmp	r3, #116	; 0x74
 80019c4:	d109      	bne.n	80019da <handleUART+0x20a>
		readTempSensor(huart, decodeASCII(UARTRxData[1]));
 80019c6:	4b0c      	ldr	r3, [pc, #48]	; (80019f8 <handleUART+0x228>)
 80019c8:	785b      	ldrb	r3, [r3, #1]
 80019ca:	4618      	mov	r0, r3
 80019cc:	f000 f826 	bl	8001a1c <decodeASCII>
 80019d0:	4603      	mov	r3, r0
 80019d2:	4619      	mov	r1, r3
 80019d4:	6878      	ldr	r0, [r7, #4]
 80019d6:	f000 fa6d 	bl	8001eb4 <readTempSensor>
	}

	uart2_rec_flag = 0x00;
 80019da:	4b0f      	ldr	r3, [pc, #60]	; (8001a18 <handleUART+0x248>)
 80019dc:	2200      	movs	r2, #0
 80019de:	701a      	strb	r2, [r3, #0]
	UARTRxData[0] = 0x00;
 80019e0:	4b05      	ldr	r3, [pc, #20]	; (80019f8 <handleUART+0x228>)
 80019e2:	2200      	movs	r2, #0
 80019e4:	701a      	strb	r2, [r3, #0]
	UARTRxData[1] = 0x00;
 80019e6:	4b04      	ldr	r3, [pc, #16]	; (80019f8 <handleUART+0x228>)
 80019e8:	2200      	movs	r2, #0
 80019ea:	705a      	strb	r2, [r3, #1]
}
 80019ec:	bf00      	nop
 80019ee:	370c      	adds	r7, #12
 80019f0:	46bd      	mov	sp, r7
 80019f2:	bd90      	pop	{r4, r7, pc}
 80019f4:	20000338 	.word	0x20000338
 80019f8:	20000388 	.word	0x20000388
 80019fc:	200005ec 	.word	0x200005ec
 8001a00:	200005c4 	.word	0x200005c4
 8001a04:	20000138 	.word	0x20000138
 8001a08:	200005d4 	.word	0x200005d4
 8001a0c:	20000190 	.word	0x20000190
 8001a10:	20000380 	.word	0x20000380
 8001a14:	20000384 	.word	0x20000384
 8001a18:	2000038a 	.word	0x2000038a

08001a1c <decodeASCII>:

uint8_t decodeASCII(uint8_t asciiVal) {
 8001a1c:	b480      	push	{r7}
 8001a1e:	b085      	sub	sp, #20
 8001a20:	af00      	add	r7, sp, #0
 8001a22:	4603      	mov	r3, r0
 8001a24:	71fb      	strb	r3, [r7, #7]
	int returnVal = -1;
 8001a26:	f04f 33ff 	mov.w	r3, #4294967295	; 0xffffffff
 8001a2a:	60fb      	str	r3, [r7, #12]
	if ((asciiVal >= 48) && (asciiVal <= 57)) {
 8001a2c:	79fb      	ldrb	r3, [r7, #7]
 8001a2e:	2b2f      	cmp	r3, #47	; 0x2f
 8001a30:	d905      	bls.n	8001a3e <decodeASCII+0x22>
 8001a32:	79fb      	ldrb	r3, [r7, #7]
 8001a34:	2b39      	cmp	r3, #57	; 0x39
 8001a36:	d802      	bhi.n	8001a3e <decodeASCII+0x22>
		returnVal = asciiVal - 48;
 8001a38:	79fb      	ldrb	r3, [r7, #7]
 8001a3a:	3b30      	subs	r3, #48	; 0x30
 8001a3c:	60fb      	str	r3, [r7, #12]
	}
	return returnVal;
 8001a3e:	68fb      	ldr	r3, [r7, #12]
 8001a40:	b2db      	uxtb	r3, r3
}
 8001a42:	4618      	mov	r0, r3
 8001a44:	3714      	adds	r7, #20
 8001a46:	46bd      	mov	sp, r7
 8001a48:	f85d 7b04 	ldr.w	r7, [sp], #4
 8001a4c:	4770      	bx	lr

08001a4e <Error_Handler>:
/**
  * @brief  This function is executed in case of error occurrence.
  * @retval None
  */
void Error_Handler(void)
{
 8001a4e:	b480      	push	{r7}
 8001a50:	af00      	add	r7, sp, #0
  \details Disables IRQ interrupts by setting special-purpose register PRIMASK.
           Can only be executed in Privileged modes.
 */
__STATIC_FORCEINLINE void __disable_irq(void)
{
  __ASM volatile ("cpsid i" : : : "memory");
 8001a52:	b672      	cpsid	i
}
 8001a54:	bf00      	nop
  /* USER CODE BEGIN Error_Handler_Debug */
  /* User can add his own implementation to report the HAL error return state */
  __disable_irq();
  while (1)
 8001a56:	e7fe      	b.n	8001a56 <Error_Handler+0x8>

08001a58 <systemStatus>:

#include "peripheral_driver.h"
/***************************************************************************************************************
 * Generic Functions
 */
uint8_t systemStatus(SPI_HandleTypeDef *hspi1, SPI_HandleTypeDef *hspi2, I2C_HandleTypeDef* hi2c1, I2C_HandleTypeDef* hi2c2) {
 8001a58:	b580      	push	{r7, lr}
 8001a5a:	b086      	sub	sp, #24
 8001a5c:	af00      	add	r7, sp, #0
 8001a5e:	60f8      	str	r0, [r7, #12]
 8001a60:	60b9      	str	r1, [r7, #8]
 8001a62:	607a      	str	r2, [r7, #4]
 8001a64:	603b      	str	r3, [r7, #0]
	uint8_t retVal = 0x00;
 8001a66:	2300      	movs	r3, #0
 8001a68:	75fb      	strb	r3, [r7, #23]

	// Check BME280_1
	if(readBME280_id_reg(hi2c1, 1) != 0x60) {			// Expected 0x60
 8001a6a:	2101      	movs	r1, #1
 8001a6c:	6878      	ldr	r0, [r7, #4]
 8001a6e:	f7fe fe5d 	bl	800072c <readBME280_id_reg>
 8001a72:	4603      	mov	r3, r0
 8001a74:	2b60      	cmp	r3, #96	; 0x60
 8001a76:	d003      	beq.n	8001a80 <systemStatus+0x28>
		retVal  = retVal | 0x10;
 8001a78:	7dfb      	ldrb	r3, [r7, #23]
 8001a7a:	f043 0310 	orr.w	r3, r3, #16
 8001a7e:	75fb      	strb	r3, [r7, #23]
	}

	// Check BME280_0
	if(readBME280_id_reg(hi2c1, 0) != 0x60) {			// Expected 0x60
 8001a80:	2100      	movs	r1, #0
 8001a82:	6878      	ldr	r0, [r7, #4]
 8001a84:	f7fe fe52 	bl	800072c <readBME280_id_reg>
 8001a88:	4603      	mov	r3, r0
 8001a8a:	2b60      	cmp	r3, #96	; 0x60
 8001a8c:	d003      	beq.n	8001a96 <systemStatus+0x3e>
		retVal  = retVal | 0x08;
 8001a8e:	7dfb      	ldrb	r3, [r7, #23]
 8001a90:	f043 0308 	orr.w	r3, r3, #8
 8001a94:	75fb      	strb	r3, [r7, #23]
	}

	// Check Accelerometer
	if(readAccel_whoami(hi2c2) != 0xE5) {				// Expected 0xE5
 8001a96:	6838      	ldr	r0, [r7, #0]
 8001a98:	f7fe fd8a 	bl	80005b0 <readAccel_whoami>
 8001a9c:	4603      	mov	r3, r0
 8001a9e:	2be5      	cmp	r3, #229	; 0xe5
 8001aa0:	d003      	beq.n	8001aaa <systemStatus+0x52>
		retVal  = retVal | 0x04;
 8001aa2:	7dfb      	ldrb	r3, [r7, #23]
 8001aa4:	f043 0304 	orr.w	r3, r3, #4
 8001aa8:	75fb      	strb	r3, [r7, #23]
	}

	// Check SPIFlash_1
	uint8_t manu[2] = {0, 0};
 8001aaa:	2300      	movs	r3, #0
 8001aac:	82bb      	strh	r3, [r7, #20]
	read_manufacturer_id(manu, hspi2, cs_spi2);
 8001aae:	4b11      	ldr	r3, [pc, #68]	; (8001af4 <systemStatus+0x9c>)
 8001ab0:	f107 0014 	add.w	r0, r7, #20
 8001ab4:	cb0c      	ldmia	r3, {r2, r3}
 8001ab6:	68b9      	ldr	r1, [r7, #8]
 8001ab8:	f7ff f83c 	bl	8000b34 <read_manufacturer_id>
	if(manu[0] != 0xEF) {								// Expected 0xEF
 8001abc:	7d3b      	ldrb	r3, [r7, #20]
 8001abe:	2bef      	cmp	r3, #239	; 0xef
 8001ac0:	d003      	beq.n	8001aca <systemStatus+0x72>
		retVal  = retVal | 0x02;
 8001ac2:	7dfb      	ldrb	r3, [r7, #23]
 8001ac4:	f043 0302 	orr.w	r3, r3, #2
 8001ac8:	75fb      	strb	r3, [r7, #23]
	}

	// Check SPIFlash_0
	uint8_t manu0[2] = {0, 0};
 8001aca:	2300      	movs	r3, #0
 8001acc:	823b      	strh	r3, [r7, #16]
	read_manufacturer_id(manu0, hspi1, cs_spi1);
 8001ace:	4b0a      	ldr	r3, [pc, #40]	; (8001af8 <systemStatus+0xa0>)
 8001ad0:	f107 0010 	add.w	r0, r7, #16
 8001ad4:	cb0c      	ldmia	r3, {r2, r3}
 8001ad6:	68f9      	ldr	r1, [r7, #12]
 8001ad8:	f7ff f82c 	bl	8000b34 <read_manufacturer_id>
	if(manu0[0] != 0xEF) {								// Expected 0xEF
 8001adc:	7c3b      	ldrb	r3, [r7, #16]
 8001ade:	2bef      	cmp	r3, #239	; 0xef
 8001ae0:	d003      	beq.n	8001aea <systemStatus+0x92>
		retVal  = retVal | 0x01;
 8001ae2:	7dfb      	ldrb	r3, [r7, #23]
 8001ae4:	f043 0301 	orr.w	r3, r3, #1
 8001ae8:	75fb      	strb	r3, [r7, #23]
	}
	return retVal;
 8001aea:	7dfb      	ldrb	r3, [r7, #23]
}
 8001aec:	4618      	mov	r0, r3
 8001aee:	3718      	adds	r7, #24
 8001af0:	46bd      	mov	sp, r7
 8001af2:	bd80      	pop	{r7, pc}
 8001af4:	200005d4 	.word	0x200005d4
 8001af8:	200005c4 	.word	0x200005c4

08001afc <heartbeatUART>:

void heartbeatUART(UART_HandleTypeDef *huart) {
 8001afc:	b580      	push	{r7, lr}
 8001afe:	b082      	sub	sp, #8
 8001b00:	af00      	add	r7, sp, #0
 8001b02:	6078      	str	r0, [r7, #4]
	send_uart_hex(huart, 0x51);			// Transmit the heartbeat as device ID (0x51 = Q)
 8001b04:	2151      	movs	r1, #81	; 0x51
 8001b06:	6878      	ldr	r0, [r7, #4]
 8001b08:	f000 ffb9 	bl	8002a7e <send_uart_hex>
}
 8001b0c:	bf00      	nop
 8001b0e:	3708      	adds	r7, #8
 8001b10:	46bd      	mov	sp, r7
 8001b12:	bd80      	pop	{r7, pc}

08001b14 <eraseFlashSPI>:

/***************************************************************************************************************
 * SPI Flash Functions
 */
void eraseFlashSPI(SPI_HandleTypeDef *hspi, UART_HandleTypeDef *huart, GPIO_Config config) {
 8001b14:	b580      	push	{r7, lr}
 8001b16:	b084      	sub	sp, #16
 8001b18:	af00      	add	r7, sp, #0
 8001b1a:	60f8      	str	r0, [r7, #12]
 8001b1c:	60b9      	str	r1, [r7, #8]
 8001b1e:	4639      	mov	r1, r7
 8001b20:	e881 000c 	stmia.w	r1, {r2, r3}
	HAL_GPIO_WritePin(GPIOB, GPIO_PIN_7, GPIO_PIN_SET);		// Activate the "write out" LED
 8001b24:	2201      	movs	r2, #1
 8001b26:	2180      	movs	r1, #128	; 0x80
 8001b28:	4813      	ldr	r0, [pc, #76]	; (8001b78 <eraseFlashSPI+0x64>)
 8001b2a:	f002 f851 	bl	8003bd0 <HAL_GPIO_WritePin>
	if (erase_chip_spi(hspi, config) == HAL_OK) {
 8001b2e:	463b      	mov	r3, r7
 8001b30:	e893 0006 	ldmia.w	r3, {r1, r2}
 8001b34:	68f8      	ldr	r0, [r7, #12]
 8001b36:	f7fe feb1 	bl	800089c <erase_chip_spi>
 8001b3a:	4603      	mov	r3, r0
 8001b3c:	2b00      	cmp	r3, #0
 8001b3e:	d10d      	bne.n	8001b5c <eraseFlashSPI+0x48>
		send_uart_string(huart, "Successful Chip Erase\r\n");
 8001b40:	490e      	ldr	r1, [pc, #56]	; (8001b7c <eraseFlashSPI+0x68>)
 8001b42:	68b8      	ldr	r0, [r7, #8]
 8001b44:	f000 ff87 	bl	8002a56 <send_uart_string>
		next_blank_page = find_next_blank_page(hspi, &end_of_flash, config);
 8001b48:	463b      	mov	r3, r7
 8001b4a:	cb0c      	ldmia	r3, {r2, r3}
 8001b4c:	490c      	ldr	r1, [pc, #48]	; (8001b80 <eraseFlashSPI+0x6c>)
 8001b4e:	68f8      	ldr	r0, [r7, #12]
 8001b50:	f7fe ff32 	bl	80009b8 <find_next_blank_page>
 8001b54:	4603      	mov	r3, r0
 8001b56:	4a0b      	ldr	r2, [pc, #44]	; (8001b84 <eraseFlashSPI+0x70>)
 8001b58:	6013      	str	r3, [r2, #0]
 8001b5a:	e003      	b.n	8001b64 <eraseFlashSPI+0x50>
	} else {
		send_uart_string(huart, "Error during chip erase. Please check the connection and try again.\r\n");
 8001b5c:	490a      	ldr	r1, [pc, #40]	; (8001b88 <eraseFlashSPI+0x74>)
 8001b5e:	68b8      	ldr	r0, [r7, #8]
 8001b60:	f000 ff79 	bl	8002a56 <send_uart_string>
	}
	HAL_GPIO_WritePin(GPIOB, GPIO_PIN_7,GPIO_PIN_RESET);	// Deactivate the "write out" LED
 8001b64:	2200      	movs	r2, #0
 8001b66:	2180      	movs	r1, #128	; 0x80
 8001b68:	4803      	ldr	r0, [pc, #12]	; (8001b78 <eraseFlashSPI+0x64>)
 8001b6a:	f002 f831 	bl	8003bd0 <HAL_GPIO_WritePin>
}
 8001b6e:	bf00      	nop
 8001b70:	3710      	adds	r7, #16
 8001b72:	46bd      	mov	sp, r7
 8001b74:	bd80      	pop	{r7, pc}
 8001b76:	bf00      	nop
 8001b78:	40020400 	.word	0x40020400
 8001b7c:	08008508 	.word	0x08008508
 8001b80:	200005b2 	.word	0x200005b2
 8001b84:	200005ac 	.word	0x200005ac
 8001b88:	08008520 	.word	0x08008520

08001b8c <readFlashToUART>:

void readFlashToUART(SPI_HandleTypeDef *hspi, UART_HandleTypeDef *huart, GPIO_Config config) {
 8001b8c:	b590      	push	{r4, r7, lr}
 8001b8e:	b0cb      	sub	sp, #300	; 0x12c
 8001b90:	af02      	add	r7, sp, #8
 8001b92:	f507 7490 	add.w	r4, r7, #288	; 0x120
 8001b96:	f5a4 748a 	sub.w	r4, r4, #276	; 0x114
 8001b9a:	6020      	str	r0, [r4, #0]
 8001b9c:	f507 7090 	add.w	r0, r7, #288	; 0x120
 8001ba0:	f5a0 708c 	sub.w	r0, r0, #280	; 0x118
 8001ba4:	6001      	str	r1, [r0, #0]
 8001ba6:	f507 7190 	add.w	r1, r7, #288	; 0x120
 8001baa:	f5a1 7190 	sub.w	r1, r1, #288	; 0x120
 8001bae:	e881 000c 	stmia.w	r1, {r2, r3}
	uint32_t num_of_pages = next_blank_page;
 8001bb2:	4b2a      	ldr	r3, [pc, #168]	; (8001c5c <readFlashToUART+0xd0>)
 8001bb4:	681b      	ldr	r3, [r3, #0]
 8001bb6:	f8c7 311c 	str.w	r3, [r7, #284]	; 0x11c
	if(num_of_pages == 0) {
 8001bba:	f8d7 311c 	ldr.w	r3, [r7, #284]	; 0x11c
 8001bbe:	2b00      	cmp	r3, #0
 8001bc0:	d103      	bne.n	8001bca <readFlashToUART+0x3e>
		num_of_pages = PAGE_SIZE;
 8001bc2:	f44f 7380 	mov.w	r3, #256	; 0x100
 8001bc6:	f8c7 311c 	str.w	r3, [r7, #284]	; 0x11c
	}
	num_of_pages = num_of_pages/PAGE_SIZE;
 8001bca:	f8d7 311c 	ldr.w	r3, [r7, #284]	; 0x11c
 8001bce:	0a1b      	lsrs	r3, r3, #8
 8001bd0:	f8c7 311c 	str.w	r3, [r7, #284]	; 0x11c
	uint32_t address = 0;
 8001bd4:	2300      	movs	r3, #0
 8001bd6:	f8c7 3118 	str.w	r3, [r7, #280]	; 0x118
	HAL_GPIO_WritePin(GPIOB, GPIO_PIN_7,GPIO_PIN_SET);		// Activate the "write out" LED
 8001bda:	2201      	movs	r2, #1
 8001bdc:	2180      	movs	r1, #128	; 0x80
 8001bde:	4820      	ldr	r0, [pc, #128]	; (8001c60 <readFlashToUART+0xd4>)
 8001be0:	f001 fff6 	bl	8003bd0 <HAL_GPIO_WritePin>

	for (int i = 0; i < (num_of_pages); i++) {
 8001be4:	2300      	movs	r3, #0
 8001be6:	f8c7 3114 	str.w	r3, [r7, #276]	; 0x114
 8001bea:	e026      	b.n	8001c3a <readFlashToUART+0xae>
		uint8_t page[PAGE_SIZE];
		read_page_spi(page, hspi, address, config);
 8001bec:	f507 7390 	add.w	r3, r7, #288	; 0x120
 8001bf0:	f5a3 7390 	sub.w	r3, r3, #288	; 0x120
 8001bf4:	f507 7290 	add.w	r2, r7, #288	; 0x120
 8001bf8:	f5a2 718a 	sub.w	r1, r2, #276	; 0x114
 8001bfc:	f107 0014 	add.w	r0, r7, #20
 8001c00:	685a      	ldr	r2, [r3, #4]
 8001c02:	9200      	str	r2, [sp, #0]
 8001c04:	681b      	ldr	r3, [r3, #0]
 8001c06:	f8d7 2118 	ldr.w	r2, [r7, #280]	; 0x118
 8001c0a:	6809      	ldr	r1, [r1, #0]
 8001c0c:	f7fe ff6c 	bl	8000ae8 <read_page_spi>
		uart_transmit_page(huart, page);						// Transmit the data//
 8001c10:	f107 0214 	add.w	r2, r7, #20
 8001c14:	f507 7390 	add.w	r3, r7, #288	; 0x120
 8001c18:	f5a3 738c 	sub.w	r3, r3, #280	; 0x118
 8001c1c:	4611      	mov	r1, r2
 8001c1e:	6818      	ldr	r0, [r3, #0]
 8001c20:	f000 ff08 	bl	8002a34 <uart_transmit_page>
		address += PAGE_SIZE;
 8001c24:	f8d7 3118 	ldr.w	r3, [r7, #280]	; 0x118
 8001c28:	f503 7380 	add.w	r3, r3, #256	; 0x100
 8001c2c:	f8c7 3118 	str.w	r3, [r7, #280]	; 0x118
	for (int i = 0; i < (num_of_pages); i++) {
 8001c30:	f8d7 3114 	ldr.w	r3, [r7, #276]	; 0x114
 8001c34:	3301      	adds	r3, #1
 8001c36:	f8c7 3114 	str.w	r3, [r7, #276]	; 0x114
 8001c3a:	f8d7 3114 	ldr.w	r3, [r7, #276]	; 0x114
 8001c3e:	f8d7 211c 	ldr.w	r2, [r7, #284]	; 0x11c
 8001c42:	429a      	cmp	r2, r3
 8001c44:	d8d2      	bhi.n	8001bec <readFlashToUART+0x60>
	}

	HAL_GPIO_WritePin(GPIOB, GPIO_PIN_7,GPIO_PIN_RESET);	// Deactivate the "write out" LED
 8001c46:	2200      	movs	r2, #0
 8001c48:	2180      	movs	r1, #128	; 0x80
 8001c4a:	4805      	ldr	r0, [pc, #20]	; (8001c60 <readFlashToUART+0xd4>)
 8001c4c:	f001 ffc0 	bl	8003bd0 <HAL_GPIO_WritePin>
}
 8001c50:	bf00      	nop
 8001c52:	f507 7792 	add.w	r7, r7, #292	; 0x124
 8001c56:	46bd      	mov	sp, r7
 8001c58:	bd90      	pop	{r4, r7, pc}
 8001c5a:	bf00      	nop
 8001c5c:	200005ac 	.word	0x200005ac
 8001c60:	40020400 	.word	0x40020400

08001c64 <readFlashManuSPI>:

void readFlashManuSPI(SPI_HandleTypeDef *hspi, UART_HandleTypeDef *huart, GPIO_Config config) {
 8001c64:	b580      	push	{r7, lr}
 8001c66:	b086      	sub	sp, #24
 8001c68:	af00      	add	r7, sp, #0
 8001c6a:	60f8      	str	r0, [r7, #12]
 8001c6c:	60b9      	str	r1, [r7, #8]
 8001c6e:	4639      	mov	r1, r7
 8001c70:	e881 000c 	stmia.w	r1, {r2, r3}
	uint8_t manu[2] = {0, 0};
 8001c74:	2300      	movs	r3, #0
 8001c76:	82bb      	strh	r3, [r7, #20]
	read_manufacturer_id(manu, hspi, config);
 8001c78:	f107 0014 	add.w	r0, r7, #20
 8001c7c:	463b      	mov	r3, r7
 8001c7e:	cb0c      	ldmia	r3, {r2, r3}
 8001c80:	68f9      	ldr	r1, [r7, #12]
 8001c82:	f7fe ff57 	bl	8000b34 <read_manufacturer_id>
	send_uart_hex(huart, manu[0]);
 8001c86:	7d3b      	ldrb	r3, [r7, #20]
 8001c88:	4619      	mov	r1, r3
 8001c8a:	68b8      	ldr	r0, [r7, #8]
 8001c8c:	f000 fef7 	bl	8002a7e <send_uart_hex>
	send_uart_hex(huart, manu[1]);
 8001c90:	7d7b      	ldrb	r3, [r7, #21]
 8001c92:	4619      	mov	r1, r3
 8001c94:	68b8      	ldr	r0, [r7, #8]
 8001c96:	f000 fef2 	bl	8002a7e <send_uart_hex>
}
 8001c9a:	bf00      	nop
 8001c9c:	3718      	adds	r7, #24
 8001c9e:	46bd      	mov	sp, r7
 8001ca0:	bd80      	pop	{r7, pc}
	...

08001ca4 <writePageSPI_W>:

void writePageSPI_W(SPI_HandleTypeDef *hspi, UART_HandleTypeDef *huart, GPIO_Config config) {
 8001ca4:	b590      	push	{r4, r7, lr}
 8001ca6:	b0c9      	sub	sp, #292	; 0x124
 8001ca8:	af02      	add	r7, sp, #8
 8001caa:	f507 748c 	add.w	r4, r7, #280	; 0x118
 8001cae:	f5a4 7486 	sub.w	r4, r4, #268	; 0x10c
 8001cb2:	6020      	str	r0, [r4, #0]
 8001cb4:	f507 708c 	add.w	r0, r7, #280	; 0x118
 8001cb8:	f5a0 7088 	sub.w	r0, r0, #272	; 0x110
 8001cbc:	6001      	str	r1, [r0, #0]
 8001cbe:	f507 718c 	add.w	r1, r7, #280	; 0x118
 8001cc2:	f5a1 718c 	sub.w	r1, r1, #280	; 0x118
 8001cc6:	e881 000c 	stmia.w	r1, {r2, r3}
	uint8_t data_out[PAGE_SIZE];
	for (int i = 0; i < PAGE_SIZE; i++) {
 8001cca:	2300      	movs	r3, #0
 8001ccc:	f8c7 3114 	str.w	r3, [r7, #276]	; 0x114
 8001cd0:	e00d      	b.n	8001cee <writePageSPI_W+0x4a>
		data_out[i] = 0x77;		// Make all data in the page 'w'
 8001cd2:	f507 738c 	add.w	r3, r7, #280	; 0x118
 8001cd6:	f5a3 7282 	sub.w	r2, r3, #260	; 0x104
 8001cda:	f8d7 3114 	ldr.w	r3, [r7, #276]	; 0x114
 8001cde:	4413      	add	r3, r2
 8001ce0:	2277      	movs	r2, #119	; 0x77
 8001ce2:	701a      	strb	r2, [r3, #0]
	for (int i = 0; i < PAGE_SIZE; i++) {
 8001ce4:	f8d7 3114 	ldr.w	r3, [r7, #276]	; 0x114
 8001ce8:	3301      	adds	r3, #1
 8001cea:	f8c7 3114 	str.w	r3, [r7, #276]	; 0x114
 8001cee:	f8d7 3114 	ldr.w	r3, [r7, #276]	; 0x114
 8001cf2:	2bff      	cmp	r3, #255	; 0xff
 8001cf4:	dded      	ble.n	8001cd2 <writePageSPI_W+0x2e>
	}
	write_data_spi_dma(data_out, hspi, next_blank_page, config);
 8001cf6:	4b13      	ldr	r3, [pc, #76]	; (8001d44 <writePageSPI_W+0xa0>)
 8001cf8:	681c      	ldr	r4, [r3, #0]
 8001cfa:	f507 738c 	add.w	r3, r7, #280	; 0x118
 8001cfe:	f5a3 738c 	sub.w	r3, r3, #280	; 0x118
 8001d02:	f507 728c 	add.w	r2, r7, #280	; 0x118
 8001d06:	f5a2 7186 	sub.w	r1, r2, #268	; 0x10c
 8001d0a:	f107 0014 	add.w	r0, r7, #20
 8001d0e:	685a      	ldr	r2, [r3, #4]
 8001d10:	9200      	str	r2, [sp, #0]
 8001d12:	681b      	ldr	r3, [r3, #0]
 8001d14:	4622      	mov	r2, r4
 8001d16:	6809      	ldr	r1, [r1, #0]
 8001d18:	f7fe fe20 	bl	800095c <write_data_spi_dma>
	next_blank_page += PAGE_SIZE;
 8001d1c:	4b09      	ldr	r3, [pc, #36]	; (8001d44 <writePageSPI_W+0xa0>)
 8001d1e:	681b      	ldr	r3, [r3, #0]
 8001d20:	f503 7380 	add.w	r3, r3, #256	; 0x100
 8001d24:	4a07      	ldr	r2, [pc, #28]	; (8001d44 <writePageSPI_W+0xa0>)
 8001d26:	6013      	str	r3, [r2, #0]

	send_uart_string(huart, "Successful Page Written\r\n");
 8001d28:	f507 738c 	add.w	r3, r7, #280	; 0x118
 8001d2c:	f5a3 7388 	sub.w	r3, r3, #272	; 0x110
 8001d30:	4905      	ldr	r1, [pc, #20]	; (8001d48 <writePageSPI_W+0xa4>)
 8001d32:	6818      	ldr	r0, [r3, #0]
 8001d34:	f000 fe8f 	bl	8002a56 <send_uart_string>
}
 8001d38:	bf00      	nop
 8001d3a:	f507 778e 	add.w	r7, r7, #284	; 0x11c
 8001d3e:	46bd      	mov	sp, r7
 8001d40:	bd90      	pop	{r4, r7, pc}
 8001d42:	bf00      	nop
 8001d44:	200005ac 	.word	0x200005ac
 8001d48:	08008568 	.word	0x08008568

08001d4c <resetSPIFlash>:

void resetSPIFlash(SPI_HandleTypeDef *hspi, UART_HandleTypeDef *huart, GPIO_Config config) {
 8001d4c:	b580      	push	{r7, lr}
 8001d4e:	b084      	sub	sp, #16
 8001d50:	af00      	add	r7, sp, #0
 8001d52:	60f8      	str	r0, [r7, #12]
 8001d54:	60b9      	str	r1, [r7, #8]
 8001d56:	4639      	mov	r1, r7
 8001d58:	e881 000c 	stmia.w	r1, {r2, r3}
	software_reset(hspi, config);
 8001d5c:	463b      	mov	r3, r7
 8001d5e:	e893 0006 	ldmia.w	r3, {r1, r2}
 8001d62:	68f8      	ldr	r0, [r7, #12]
 8001d64:	f7fe fdd6 	bl	8000914 <software_reset>
	send_uart_string(huart, "Flash Chip Reset\r\n");
 8001d68:	4903      	ldr	r1, [pc, #12]	; (8001d78 <resetSPIFlash+0x2c>)
 8001d6a:	68b8      	ldr	r0, [r7, #8]
 8001d6c:	f000 fe73 	bl	8002a56 <send_uart_string>
}
 8001d70:	bf00      	nop
 8001d72:	3710      	adds	r7, #16
 8001d74:	46bd      	mov	sp, r7
 8001d76:	bd80      	pop	{r7, pc}
 8001d78:	08008584 	.word	0x08008584

08001d7c <checkAccelWhoAmI>:

/***************************************************************************************************************
 * I2C Accelerometer Functions
 */
void checkAccelWhoAmI(I2C_HandleTypeDef* hi2c, UART_HandleTypeDef *huart) {
 8001d7c:	b580      	push	{r7, lr}
 8001d7e:	b084      	sub	sp, #16
 8001d80:	af00      	add	r7, sp, #0
 8001d82:	6078      	str	r0, [r7, #4]
 8001d84:	6039      	str	r1, [r7, #0]
	uint8_t whoami = readAccel_whoami(hi2c);
 8001d86:	6878      	ldr	r0, [r7, #4]
 8001d88:	f7fe fc12 	bl	80005b0 <readAccel_whoami>
 8001d8c:	4603      	mov	r3, r0
 8001d8e:	73fb      	strb	r3, [r7, #15]
	send_uart_hex(huart, whoami);
 8001d90:	7bfb      	ldrb	r3, [r7, #15]
 8001d92:	4619      	mov	r1, r3
 8001d94:	6838      	ldr	r0, [r7, #0]
 8001d96:	f000 fe72 	bl	8002a7e <send_uart_hex>
}
 8001d9a:	bf00      	nop
 8001d9c:	3710      	adds	r7, #16
 8001d9e:	46bd      	mov	sp, r7
 8001da0:	bd80      	pop	{r7, pc}
	...

08001da4 <accelToUART>:

void accelToUART(UART_HandleTypeDef *huart) {
 8001da4:	b580      	push	{r7, lr}
 8001da6:	b084      	sub	sp, #16
 8001da8:	af00      	add	r7, sp, #0
 8001daa:	6078      	str	r0, [r7, #4]
	for (int i = 0; i < 6; i++) {
 8001dac:	2300      	movs	r3, #0
 8001dae:	60fb      	str	r3, [r7, #12]
 8001db0:	e00a      	b.n	8001dc8 <accelToUART+0x24>
		send_uart_hex(huart, accel_data[i]);
 8001db2:	4a09      	ldr	r2, [pc, #36]	; (8001dd8 <accelToUART+0x34>)
 8001db4:	68fb      	ldr	r3, [r7, #12]
 8001db6:	4413      	add	r3, r2
 8001db8:	781b      	ldrb	r3, [r3, #0]
 8001dba:	4619      	mov	r1, r3
 8001dbc:	6878      	ldr	r0, [r7, #4]
 8001dbe:	f000 fe5e 	bl	8002a7e <send_uart_hex>
	for (int i = 0; i < 6; i++) {
 8001dc2:	68fb      	ldr	r3, [r7, #12]
 8001dc4:	3301      	adds	r3, #1
 8001dc6:	60fb      	str	r3, [r7, #12]
 8001dc8:	68fb      	ldr	r3, [r7, #12]
 8001dca:	2b05      	cmp	r3, #5
 8001dcc:	ddf1      	ble.n	8001db2 <accelToUART+0xe>
	}
}
 8001dce:	bf00      	nop
 8001dd0:	bf00      	nop
 8001dd2:	3710      	adds	r7, #16
 8001dd4:	46bd      	mov	sp, r7
 8001dd6:	bd80      	pop	{r7, pc}
 8001dd8:	20000594 	.word	0x20000594

08001ddc <readTempSensorID>:

/***************************************************************************************************************
 * I2C BME280 Sensor Functions
 */
void readTempSensorID(I2C_HandleTypeDef* hi2c, UART_HandleTypeDef *huart, uint8_t tempNo) {
 8001ddc:	b580      	push	{r7, lr}
 8001dde:	b084      	sub	sp, #16
 8001de0:	af00      	add	r7, sp, #0
 8001de2:	60f8      	str	r0, [r7, #12]
 8001de4:	60b9      	str	r1, [r7, #8]
 8001de6:	4613      	mov	r3, r2
 8001de8:	71fb      	strb	r3, [r7, #7]
	send_uart_hex(huart, readBME280_id_reg(hi2c, tempNo));
 8001dea:	79fb      	ldrb	r3, [r7, #7]
 8001dec:	4619      	mov	r1, r3
 8001dee:	68f8      	ldr	r0, [r7, #12]
 8001df0:	f7fe fc9c 	bl	800072c <readBME280_id_reg>
 8001df4:	4603      	mov	r3, r0
 8001df6:	4619      	mov	r1, r3
 8001df8:	68b8      	ldr	r0, [r7, #8]
 8001dfa:	f000 fe40 	bl	8002a7e <send_uart_hex>
}
 8001dfe:	bf00      	nop
 8001e00:	3710      	adds	r7, #16
 8001e02:	46bd      	mov	sp, r7
 8001e04:	bd80      	pop	{r7, pc}

08001e06 <readTempCalibration>:

void readTempCalibration(I2C_HandleTypeDef* hi2c, UART_HandleTypeDef *huart, uint8_t tempNo) {
 8001e06:	b580      	push	{r7, lr}
 8001e08:	b090      	sub	sp, #64	; 0x40
 8001e0a:	af00      	add	r7, sp, #0
 8001e0c:	60f8      	str	r0, [r7, #12]
 8001e0e:	60b9      	str	r1, [r7, #8]
 8001e10:	4613      	mov	r3, r2
 8001e12:	71fb      	strb	r3, [r7, #7]
	uint8_t calibration1[25];
	uint8_t calibration2[7];

	for (uint8_t i = 0; i < CALIB_CNT_1; i++) {
 8001e14:	2300      	movs	r3, #0
 8001e16:	f887 303f 	strb.w	r3, [r7, #63]	; 0x3f
 8001e1a:	e016      	b.n	8001e4a <readTempCalibration+0x44>
		calibration1[i] = 0x00;
 8001e1c:	f897 303f 	ldrb.w	r3, [r7, #63]	; 0x3f
 8001e20:	3340      	adds	r3, #64	; 0x40
 8001e22:	443b      	add	r3, r7
 8001e24:	2200      	movs	r2, #0
 8001e26:	f803 2c28 	strb.w	r2, [r3, #-40]
		if (i < CALIB_CNT_2) {
 8001e2a:	f897 303f 	ldrb.w	r3, [r7, #63]	; 0x3f
 8001e2e:	2b06      	cmp	r3, #6
 8001e30:	d806      	bhi.n	8001e40 <readTempCalibration+0x3a>
			calibration2[i] = 0x00;
 8001e32:	f897 303f 	ldrb.w	r3, [r7, #63]	; 0x3f
 8001e36:	3340      	adds	r3, #64	; 0x40
 8001e38:	443b      	add	r3, r7
 8001e3a:	2200      	movs	r2, #0
 8001e3c:	f803 2c30 	strb.w	r2, [r3, #-48]
	for (uint8_t i = 0; i < CALIB_CNT_1; i++) {
 8001e40:	f897 303f 	ldrb.w	r3, [r7, #63]	; 0x3f
 8001e44:	3301      	adds	r3, #1
 8001e46:	f887 303f 	strb.w	r3, [r7, #63]	; 0x3f
 8001e4a:	f897 303f 	ldrb.w	r3, [r7, #63]	; 0x3f
 8001e4e:	2b18      	cmp	r3, #24
 8001e50:	d9e4      	bls.n	8001e1c <readTempCalibration+0x16>
		}
	}

	readBME280_calib(hi2c, tempNo, calibration1, calibration2);
 8001e52:	f107 0310 	add.w	r3, r7, #16
 8001e56:	f107 0218 	add.w	r2, r7, #24
 8001e5a:	79f9      	ldrb	r1, [r7, #7]
 8001e5c:	68f8      	ldr	r0, [r7, #12]
 8001e5e:	f7fe fc81 	bl	8000764 <readBME280_calib>

	for (int i = 0; i < 25; i++) {
 8001e62:	2300      	movs	r3, #0
 8001e64:	63bb      	str	r3, [r7, #56]	; 0x38
 8001e66:	e00b      	b.n	8001e80 <readTempCalibration+0x7a>
	  send_uart_hex(huart, calibration1[i]);
 8001e68:	f107 0218 	add.w	r2, r7, #24
 8001e6c:	6bbb      	ldr	r3, [r7, #56]	; 0x38
 8001e6e:	4413      	add	r3, r2
 8001e70:	781b      	ldrb	r3, [r3, #0]
 8001e72:	4619      	mov	r1, r3
 8001e74:	68b8      	ldr	r0, [r7, #8]
 8001e76:	f000 fe02 	bl	8002a7e <send_uart_hex>
	for (int i = 0; i < 25; i++) {
 8001e7a:	6bbb      	ldr	r3, [r7, #56]	; 0x38
 8001e7c:	3301      	adds	r3, #1
 8001e7e:	63bb      	str	r3, [r7, #56]	; 0x38
 8001e80:	6bbb      	ldr	r3, [r7, #56]	; 0x38
 8001e82:	2b18      	cmp	r3, #24
 8001e84:	ddf0      	ble.n	8001e68 <readTempCalibration+0x62>
	}

	for (int i = 0; i < 7; i++) {
 8001e86:	2300      	movs	r3, #0
 8001e88:	637b      	str	r3, [r7, #52]	; 0x34
 8001e8a:	e00b      	b.n	8001ea4 <readTempCalibration+0x9e>
	  send_uart_hex(huart, calibration2[i]);
 8001e8c:	f107 0210 	add.w	r2, r7, #16
 8001e90:	6b7b      	ldr	r3, [r7, #52]	; 0x34
 8001e92:	4413      	add	r3, r2
 8001e94:	781b      	ldrb	r3, [r3, #0]
 8001e96:	4619      	mov	r1, r3
 8001e98:	68b8      	ldr	r0, [r7, #8]
 8001e9a:	f000 fdf0 	bl	8002a7e <send_uart_hex>
	for (int i = 0; i < 7; i++) {
 8001e9e:	6b7b      	ldr	r3, [r7, #52]	; 0x34
 8001ea0:	3301      	adds	r3, #1
 8001ea2:	637b      	str	r3, [r7, #52]	; 0x34
 8001ea4:	6b7b      	ldr	r3, [r7, #52]	; 0x34
 8001ea6:	2b06      	cmp	r3, #6
 8001ea8:	ddf0      	ble.n	8001e8c <readTempCalibration+0x86>
	}
}
 8001eaa:	bf00      	nop
 8001eac:	bf00      	nop
 8001eae:	3740      	adds	r7, #64	; 0x40
 8001eb0:	46bd      	mov	sp, r7
 8001eb2:	bd80      	pop	{r7, pc}

08001eb4 <readTempSensor>:

void readTempSensor(UART_HandleTypeDef *huart, uint8_t tempNo) {
 8001eb4:	b580      	push	{r7, lr}
 8001eb6:	b084      	sub	sp, #16
 8001eb8:	af00      	add	r7, sp, #0
 8001eba:	6078      	str	r0, [r7, #4]
 8001ebc:	460b      	mov	r3, r1
 8001ebe:	70fb      	strb	r3, [r7, #3]
	if (tempNo == 0) {
 8001ec0:	78fb      	ldrb	r3, [r7, #3]
 8001ec2:	2b00      	cmp	r3, #0
 8001ec4:	d111      	bne.n	8001eea <readTempSensor+0x36>
		for (int i = 0; i < 6; i++) {
 8001ec6:	2300      	movs	r3, #0
 8001ec8:	60fb      	str	r3, [r7, #12]
 8001eca:	e00a      	b.n	8001ee2 <readTempSensor+0x2e>
			send_uart_hex(huart, bme280_data_1[i]);
 8001ecc:	4a13      	ldr	r2, [pc, #76]	; (8001f1c <readTempSensor+0x68>)
 8001ece:	68fb      	ldr	r3, [r7, #12]
 8001ed0:	4413      	add	r3, r2
 8001ed2:	781b      	ldrb	r3, [r3, #0]
 8001ed4:	4619      	mov	r1, r3
 8001ed6:	6878      	ldr	r0, [r7, #4]
 8001ed8:	f000 fdd1 	bl	8002a7e <send_uart_hex>
		for (int i = 0; i < 6; i++) {
 8001edc:	68fb      	ldr	r3, [r7, #12]
 8001ede:	3301      	adds	r3, #1
 8001ee0:	60fb      	str	r3, [r7, #12]
 8001ee2:	68fb      	ldr	r3, [r7, #12]
 8001ee4:	2b05      	cmp	r3, #5
 8001ee6:	ddf1      	ble.n	8001ecc <readTempSensor+0x18>
	} else if (tempNo == 1) {
		for (int i = 0; i < 6; i++) {
			send_uart_hex(huart, bme280_data_2[i]);
		}
	}
}
 8001ee8:	e013      	b.n	8001f12 <readTempSensor+0x5e>
	} else if (tempNo == 1) {
 8001eea:	78fb      	ldrb	r3, [r7, #3]
 8001eec:	2b01      	cmp	r3, #1
 8001eee:	d110      	bne.n	8001f12 <readTempSensor+0x5e>
		for (int i = 0; i < 6; i++) {
 8001ef0:	2300      	movs	r3, #0
 8001ef2:	60bb      	str	r3, [r7, #8]
 8001ef4:	e00a      	b.n	8001f0c <readTempSensor+0x58>
			send_uart_hex(huart, bme280_data_2[i]);
 8001ef6:	4a0a      	ldr	r2, [pc, #40]	; (8001f20 <readTempSensor+0x6c>)
 8001ef8:	68bb      	ldr	r3, [r7, #8]
 8001efa:	4413      	add	r3, r2
 8001efc:	781b      	ldrb	r3, [r3, #0]
 8001efe:	4619      	mov	r1, r3
 8001f00:	6878      	ldr	r0, [r7, #4]
 8001f02:	f000 fdbc 	bl	8002a7e <send_uart_hex>
		for (int i = 0; i < 6; i++) {
 8001f06:	68bb      	ldr	r3, [r7, #8]
 8001f08:	3301      	adds	r3, #1
 8001f0a:	60bb      	str	r3, [r7, #8]
 8001f0c:	68bb      	ldr	r3, [r7, #8]
 8001f0e:	2b05      	cmp	r3, #5
 8001f10:	ddf1      	ble.n	8001ef6 <readTempSensor+0x42>
}
 8001f12:	bf00      	nop
 8001f14:	3710      	adds	r7, #16
 8001f16:	46bd      	mov	sp, r7
 8001f18:	bd80      	pop	{r7, pc}
 8001f1a:	bf00      	nop
 8001f1c:	2000059c 	.word	0x2000059c
 8001f20:	200005a4 	.word	0x200005a4

08001f24 <readAllSensors>:

/***************************************************************************************************************
 * Process All Sensors
 */
void readAllSensors(I2C_HandleTypeDef* hi2c_accel, I2C_HandleTypeDef* hi2c_temp, RTC_HandleTypeDef* hrtc) {
 8001f24:	b590      	push	{r4, r7, lr}
 8001f26:	b08b      	sub	sp, #44	; 0x2c
 8001f28:	af00      	add	r7, sp, #0
 8001f2a:	60f8      	str	r0, [r7, #12]
 8001f2c:	60b9      	str	r1, [r7, #8]
 8001f2e:	607a      	str	r2, [r7, #4]
	// Read Accelerometer Data
	readAccelerometer(accel_data, hi2c_accel);
 8001f30:	68f9      	ldr	r1, [r7, #12]
 8001f32:	4855      	ldr	r0, [pc, #340]	; (8002088 <readAllSensors+0x164>)
 8001f34:	f7fe fb16 	bl	8000564 <readAccelerometer>

	// Read BME280 Data
	readTempHumPres(bme280_data_1, hi2c_temp, 0);
 8001f38:	2200      	movs	r2, #0
 8001f3a:	68b9      	ldr	r1, [r7, #8]
 8001f3c:	4853      	ldr	r0, [pc, #332]	; (800208c <readAllSensors+0x168>)
 8001f3e:	f7fe fb9b 	bl	8000678 <readTempHumPres>
	readTempHumPres(bme280_data_2, hi2c_temp, 1);
 8001f42:	2201      	movs	r2, #1
 8001f44:	68b9      	ldr	r1, [r7, #8]
 8001f46:	4852      	ldr	r0, [pc, #328]	; (8002090 <readAllSensors+0x16c>)
 8001f48:	f7fe fb96 	bl	8000678 <readTempHumPres>

	uint16_t time = getTimestampMilliseconds(hrtc);
 8001f4c:	6878      	ldr	r0, [r7, #4]
 8001f4e:	f000 f8c1 	bl	80020d4 <getTimestampMilliseconds>
 8001f52:	4603      	mov	r3, r0
 8001f54:	82fb      	strh	r3, [r7, #22]
	uint8_t array_ptr = 0;
 8001f56:	2300      	movs	r3, #0
 8001f58:	f887 3027 	strb.w	r3, [r7, #39]	; 0x27

	// Store the new read in the buffer if there is space
	if (byte_tracker < (PAGE_SIZE - READ_SIZE)) {
 8001f5c:	4b4d      	ldr	r3, [pc, #308]	; (8002094 <readAllSensors+0x170>)
 8001f5e:	881b      	ldrh	r3, [r3, #0]
 8001f60:	2beb      	cmp	r3, #235	; 0xeb
 8001f62:	f200 808c 	bhi.w	800207e <readAllSensors+0x15a>
		data_buffer_tx[buffer_tracker][byte_tracker + 0] = (uint8_t) ((time >> 8) & 0xFF);
 8001f66:	8afb      	ldrh	r3, [r7, #22]
 8001f68:	0a1b      	lsrs	r3, r3, #8
 8001f6a:	b29a      	uxth	r2, r3
 8001f6c:	4b4a      	ldr	r3, [pc, #296]	; (8002098 <readAllSensors+0x174>)
 8001f6e:	781b      	ldrb	r3, [r3, #0]
 8001f70:	461c      	mov	r4, r3
 8001f72:	4b48      	ldr	r3, [pc, #288]	; (8002094 <readAllSensors+0x170>)
 8001f74:	881b      	ldrh	r3, [r3, #0]
 8001f76:	4618      	mov	r0, r3
 8001f78:	b2d1      	uxtb	r1, r2
 8001f7a:	4a48      	ldr	r2, [pc, #288]	; (800209c <readAllSensors+0x178>)
 8001f7c:	0223      	lsls	r3, r4, #8
 8001f7e:	4413      	add	r3, r2
 8001f80:	4403      	add	r3, r0
 8001f82:	460a      	mov	r2, r1
 8001f84:	701a      	strb	r2, [r3, #0]
		data_buffer_tx[buffer_tracker][byte_tracker + 1] = (uint8_t) (time & 0xFF); // Least significant byte (LSB)
 8001f86:	4b44      	ldr	r3, [pc, #272]	; (8002098 <readAllSensors+0x174>)
 8001f88:	781b      	ldrb	r3, [r3, #0]
 8001f8a:	461a      	mov	r2, r3
 8001f8c:	4b41      	ldr	r3, [pc, #260]	; (8002094 <readAllSensors+0x170>)
 8001f8e:	881b      	ldrh	r3, [r3, #0]
 8001f90:	3301      	adds	r3, #1
 8001f92:	8af9      	ldrh	r1, [r7, #22]
 8001f94:	b2c8      	uxtb	r0, r1
 8001f96:	4941      	ldr	r1, [pc, #260]	; (800209c <readAllSensors+0x178>)
 8001f98:	0212      	lsls	r2, r2, #8
 8001f9a:	440a      	add	r2, r1
 8001f9c:	4413      	add	r3, r2
 8001f9e:	4602      	mov	r2, r0
 8001fa0:	701a      	strb	r2, [r3, #0]

		array_ptr += 2;
 8001fa2:	f897 3027 	ldrb.w	r3, [r7, #39]	; 0x27
 8001fa6:	3302      	adds	r3, #2
 8001fa8:	f887 3027 	strb.w	r3, [r7, #39]	; 0x27
		for (int i = 0; i < 6; i++) {
 8001fac:	2300      	movs	r3, #0
 8001fae:	623b      	str	r3, [r7, #32]
 8001fb0:	e01a      	b.n	8001fe8 <readAllSensors+0xc4>
		  data_buffer_tx[buffer_tracker][byte_tracker + array_ptr] = accel_data[i];
 8001fb2:	4b39      	ldr	r3, [pc, #228]	; (8002098 <readAllSensors+0x174>)
 8001fb4:	781b      	ldrb	r3, [r3, #0]
 8001fb6:	461c      	mov	r4, r3
 8001fb8:	4b36      	ldr	r3, [pc, #216]	; (8002094 <readAllSensors+0x170>)
 8001fba:	881b      	ldrh	r3, [r3, #0]
 8001fbc:	461a      	mov	r2, r3
 8001fbe:	f897 3027 	ldrb.w	r3, [r7, #39]	; 0x27
 8001fc2:	4413      	add	r3, r2
 8001fc4:	4930      	ldr	r1, [pc, #192]	; (8002088 <readAllSensors+0x164>)
 8001fc6:	6a3a      	ldr	r2, [r7, #32]
 8001fc8:	440a      	add	r2, r1
 8001fca:	7810      	ldrb	r0, [r2, #0]
 8001fcc:	4933      	ldr	r1, [pc, #204]	; (800209c <readAllSensors+0x178>)
 8001fce:	0222      	lsls	r2, r4, #8
 8001fd0:	440a      	add	r2, r1
 8001fd2:	4413      	add	r3, r2
 8001fd4:	4602      	mov	r2, r0
 8001fd6:	701a      	strb	r2, [r3, #0]
		  array_ptr += 1;
 8001fd8:	f897 3027 	ldrb.w	r3, [r7, #39]	; 0x27
 8001fdc:	3301      	adds	r3, #1
 8001fde:	f887 3027 	strb.w	r3, [r7, #39]	; 0x27
		for (int i = 0; i < 6; i++) {
 8001fe2:	6a3b      	ldr	r3, [r7, #32]
 8001fe4:	3301      	adds	r3, #1
 8001fe6:	623b      	str	r3, [r7, #32]
 8001fe8:	6a3b      	ldr	r3, [r7, #32]
 8001fea:	2b05      	cmp	r3, #5
 8001fec:	dde1      	ble.n	8001fb2 <readAllSensors+0x8e>
		}

		for (int i = 0; i < 6; i++) {
 8001fee:	2300      	movs	r3, #0
 8001ff0:	61fb      	str	r3, [r7, #28]
 8001ff2:	e01a      	b.n	800202a <readAllSensors+0x106>
		  data_buffer_tx[buffer_tracker][byte_tracker + array_ptr] = bme280_data_1[i];
 8001ff4:	4b28      	ldr	r3, [pc, #160]	; (8002098 <readAllSensors+0x174>)
 8001ff6:	781b      	ldrb	r3, [r3, #0]
 8001ff8:	461c      	mov	r4, r3
 8001ffa:	4b26      	ldr	r3, [pc, #152]	; (8002094 <readAllSensors+0x170>)
 8001ffc:	881b      	ldrh	r3, [r3, #0]
 8001ffe:	461a      	mov	r2, r3
 8002000:	f897 3027 	ldrb.w	r3, [r7, #39]	; 0x27
 8002004:	4413      	add	r3, r2
 8002006:	4921      	ldr	r1, [pc, #132]	; (800208c <readAllSensors+0x168>)
 8002008:	69fa      	ldr	r2, [r7, #28]
 800200a:	440a      	add	r2, r1
 800200c:	7810      	ldrb	r0, [r2, #0]
 800200e:	4923      	ldr	r1, [pc, #140]	; (800209c <readAllSensors+0x178>)
 8002010:	0222      	lsls	r2, r4, #8
 8002012:	440a      	add	r2, r1
 8002014:	4413      	add	r3, r2
 8002016:	4602      	mov	r2, r0
 8002018:	701a      	strb	r2, [r3, #0]
		  array_ptr += 1;
 800201a:	f897 3027 	ldrb.w	r3, [r7, #39]	; 0x27
 800201e:	3301      	adds	r3, #1
 8002020:	f887 3027 	strb.w	r3, [r7, #39]	; 0x27
		for (int i = 0; i < 6; i++) {
 8002024:	69fb      	ldr	r3, [r7, #28]
 8002026:	3301      	adds	r3, #1
 8002028:	61fb      	str	r3, [r7, #28]
 800202a:	69fb      	ldr	r3, [r7, #28]
 800202c:	2b05      	cmp	r3, #5
 800202e:	dde1      	ble.n	8001ff4 <readAllSensors+0xd0>
		}

		for (int i = 0; i < 6; i++) {
 8002030:	2300      	movs	r3, #0
 8002032:	61bb      	str	r3, [r7, #24]
 8002034:	e01a      	b.n	800206c <readAllSensors+0x148>
		  data_buffer_tx[buffer_tracker][byte_tracker + array_ptr] = bme280_data_2[i];
 8002036:	4b18      	ldr	r3, [pc, #96]	; (8002098 <readAllSensors+0x174>)
 8002038:	781b      	ldrb	r3, [r3, #0]
 800203a:	461c      	mov	r4, r3
 800203c:	4b15      	ldr	r3, [pc, #84]	; (8002094 <readAllSensors+0x170>)
 800203e:	881b      	ldrh	r3, [r3, #0]
 8002040:	461a      	mov	r2, r3
 8002042:	f897 3027 	ldrb.w	r3, [r7, #39]	; 0x27
 8002046:	4413      	add	r3, r2
 8002048:	4911      	ldr	r1, [pc, #68]	; (8002090 <readAllSensors+0x16c>)
 800204a:	69ba      	ldr	r2, [r7, #24]
 800204c:	440a      	add	r2, r1
 800204e:	7810      	ldrb	r0, [r2, #0]
 8002050:	4912      	ldr	r1, [pc, #72]	; (800209c <readAllSensors+0x178>)
 8002052:	0222      	lsls	r2, r4, #8
 8002054:	440a      	add	r2, r1
 8002056:	4413      	add	r3, r2
 8002058:	4602      	mov	r2, r0
 800205a:	701a      	strb	r2, [r3, #0]
		  array_ptr += 1;
 800205c:	f897 3027 	ldrb.w	r3, [r7, #39]	; 0x27
 8002060:	3301      	adds	r3, #1
 8002062:	f887 3027 	strb.w	r3, [r7, #39]	; 0x27
		for (int i = 0; i < 6; i++) {
 8002066:	69bb      	ldr	r3, [r7, #24]
 8002068:	3301      	adds	r3, #1
 800206a:	61bb      	str	r3, [r7, #24]
 800206c:	69bb      	ldr	r3, [r7, #24]
 800206e:	2b05      	cmp	r3, #5
 8002070:	dde1      	ble.n	8002036 <readAllSensors+0x112>
		}

		byte_tracker = byte_tracker + READ_SIZE;
 8002072:	4b08      	ldr	r3, [pc, #32]	; (8002094 <readAllSensors+0x170>)
 8002074:	881b      	ldrh	r3, [r3, #0]
 8002076:	3314      	adds	r3, #20
 8002078:	b29a      	uxth	r2, r3
 800207a:	4b06      	ldr	r3, [pc, #24]	; (8002094 <readAllSensors+0x170>)
 800207c:	801a      	strh	r2, [r3, #0]
	}
}
 800207e:	bf00      	nop
 8002080:	372c      	adds	r7, #44	; 0x2c
 8002082:	46bd      	mov	sp, r7
 8002084:	bd90      	pop	{r4, r7, pc}
 8002086:	bf00      	nop
 8002088:	20000594 	.word	0x20000594
 800208c:	2000059c 	.word	0x2000059c
 8002090:	200005a4 	.word	0x200005a4
 8002094:	200005b0 	.word	0x200005b0
 8002098:	20000590 	.word	0x20000590
 800209c:	20000390 	.word	0x20000390

080020a0 <initialise_rtc_default>:
    .Month = RTC_MONTH_JANUARY, // Set default month (e.g., January)
    .Date = 1, // Set default day of the month
    .Year = 24 // Set default year (e.g., 2021)
};

void initialise_rtc_default(RTC_HandleTypeDef* hrtc) {
 80020a0:	b580      	push	{r7, lr}
 80020a2:	b082      	sub	sp, #8
 80020a4:	af00      	add	r7, sp, #0
 80020a6:	6078      	str	r0, [r7, #4]
	// Reset RTC on boot
	HAL_RTC_MspInit(hrtc); // Initialize RTC hardware
 80020a8:	6878      	ldr	r0, [r7, #4]
 80020aa:	f000 fa31 	bl	8002510 <HAL_RTC_MspInit>
	HAL_RTC_SetTime(hrtc, &defaultTime, RTC_FORMAT_BIN); // Set default time
 80020ae:	2200      	movs	r2, #0
 80020b0:	4906      	ldr	r1, [pc, #24]	; (80020cc <initialise_rtc_default+0x2c>)
 80020b2:	6878      	ldr	r0, [r7, #4]
 80020b4:	f003 fcd1 	bl	8005a5a <HAL_RTC_SetTime>
	HAL_RTC_SetDate(hrtc, &defaultDate, RTC_FORMAT_BIN); // Set default date
 80020b8:	2200      	movs	r2, #0
 80020ba:	4905      	ldr	r1, [pc, #20]	; (80020d0 <initialise_rtc_default+0x30>)
 80020bc:	6878      	ldr	r0, [r7, #4]
 80020be:	f003 fdc4 	bl	8005c4a <HAL_RTC_SetDate>
}
 80020c2:	bf00      	nop
 80020c4:	3708      	adds	r7, #8
 80020c6:	46bd      	mov	sp, r7
 80020c8:	bd80      	pop	{r7, pc}
 80020ca:	bf00      	nop
 80020cc:	200005f0 	.word	0x200005f0
 80020d0:	20000018 	.word	0x20000018

080020d4 <getTimestampMilliseconds>:

uint32_t getTimestampMilliseconds(RTC_HandleTypeDef* hrtc) {
 80020d4:	b580      	push	{r7, lr}
 80020d6:	b08c      	sub	sp, #48	; 0x30
 80020d8:	af00      	add	r7, sp, #0
 80020da:	6078      	str	r0, [r7, #4]
    RTC_TimeTypeDef rtcTime;
    RTC_DateTypeDef rtcDate;

    // Read RTC time and date
    HAL_RTC_GetTime(hrtc, &rtcTime, RTC_FORMAT_BIN);
 80020dc:	f107 0310 	add.w	r3, r7, #16
 80020e0:	2200      	movs	r2, #0
 80020e2:	4619      	mov	r1, r3
 80020e4:	6878      	ldr	r0, [r7, #4]
 80020e6:	f003 fd52 	bl	8005b8e <HAL_RTC_GetTime>
    HAL_RTC_GetDate(hrtc, &rtcDate, RTC_FORMAT_BIN);
 80020ea:	f107 030c 	add.w	r3, r7, #12
 80020ee:	2200      	movs	r2, #0
 80020f0:	4619      	mov	r1, r3
 80020f2:	6878      	ldr	r0, [r7, #4]
 80020f4:	f003 fe2d 	bl	8005d52 <HAL_RTC_GetDate>

    // Calculate timestamp in milliseconds
    uint32_t timestampSeconds = rtcTime.Seconds + rtcTime.Minutes * 60 + rtcTime.Hours * 3600;
 80020f8:	7cbb      	ldrb	r3, [r7, #18]
 80020fa:	4619      	mov	r1, r3
 80020fc:	7c7b      	ldrb	r3, [r7, #17]
 80020fe:	461a      	mov	r2, r3
 8002100:	4613      	mov	r3, r2
 8002102:	011b      	lsls	r3, r3, #4
 8002104:	1a9b      	subs	r3, r3, r2
 8002106:	009b      	lsls	r3, r3, #2
 8002108:	18ca      	adds	r2, r1, r3
 800210a:	7c3b      	ldrb	r3, [r7, #16]
 800210c:	4619      	mov	r1, r3
 800210e:	f44f 6361 	mov.w	r3, #3600	; 0xe10
 8002112:	fb01 f303 	mul.w	r3, r1, r3
 8002116:	4413      	add	r3, r2
 8002118:	62fb      	str	r3, [r7, #44]	; 0x2c
    uint32_t timestampMilliseconds = timestampSeconds * 1000;
 800211a:	6afb      	ldr	r3, [r7, #44]	; 0x2c
 800211c:	f44f 727a 	mov.w	r2, #1000	; 0x3e8
 8002120:	fb02 f303 	mul.w	r3, r2, r3
 8002124:	62bb      	str	r3, [r7, #40]	; 0x28
    float subsecondsFraction = (float)(rtcTime.SecondFraction - rtcTime.SubSeconds) / (rtcTime.SecondFraction + 1);
 8002126:	69ba      	ldr	r2, [r7, #24]
 8002128:	697b      	ldr	r3, [r7, #20]
 800212a:	1ad3      	subs	r3, r2, r3
 800212c:	ee07 3a90 	vmov	s15, r3
 8002130:	eef8 6a67 	vcvt.f32.u32	s13, s15
 8002134:	69bb      	ldr	r3, [r7, #24]
 8002136:	3301      	adds	r3, #1
 8002138:	ee07 3a90 	vmov	s15, r3
 800213c:	eeb8 7a67 	vcvt.f32.u32	s14, s15
 8002140:	eec6 7a87 	vdiv.f32	s15, s13, s14
 8002144:	edc7 7a09 	vstr	s15, [r7, #36]	; 0x24
    timestampMilliseconds += subsecondsFraction * 1000;
 8002148:	6abb      	ldr	r3, [r7, #40]	; 0x28
 800214a:	ee07 3a90 	vmov	s15, r3
 800214e:	eeb8 7a67 	vcvt.f32.u32	s14, s15
 8002152:	edd7 7a09 	vldr	s15, [r7, #36]	; 0x24
 8002156:	eddf 6a08 	vldr	s13, [pc, #32]	; 8002178 <getTimestampMilliseconds+0xa4>
 800215a:	ee67 7aa6 	vmul.f32	s15, s15, s13
 800215e:	ee77 7a27 	vadd.f32	s15, s14, s15
 8002162:	eefc 7ae7 	vcvt.u32.f32	s15, s15
 8002166:	ee17 3a90 	vmov	r3, s15
 800216a:	62bb      	str	r3, [r7, #40]	; 0x28

    return timestampMilliseconds;
 800216c:	6abb      	ldr	r3, [r7, #40]	; 0x28
}
 800216e:	4618      	mov	r0, r3
 8002170:	3730      	adds	r7, #48	; 0x30
 8002172:	46bd      	mov	sp, r7
 8002174:	bd80      	pop	{r7, pc}
 8002176:	bf00      	nop
 8002178:	447a0000 	.word	0x447a0000

0800217c <spi_sendOp_readByte>:
#ifndef SRC_SPI_DRIVER_C_
#define SRC_SPI_DRIVER_C_

#include "spi_driver.h"

HAL_StatusTypeDef spi_sendOp_readByte(uint8_t* opcode, SPI_HandleTypeDef *hspi, uint8_t* data_ptr, GPIO_TypeDef* GPIOx, uint16_t GPIO_Pin_CS) {
 800217c:	b580      	push	{r7, lr}
 800217e:	b086      	sub	sp, #24
 8002180:	af00      	add	r7, sp, #0
 8002182:	60f8      	str	r0, [r7, #12]
 8002184:	60b9      	str	r1, [r7, #8]
 8002186:	607a      	str	r2, [r7, #4]
 8002188:	603b      	str	r3, [r7, #0]
	HAL_StatusTypeDef status;
	HAL_GPIO_WritePin(GPIOx, GPIO_Pin_CS, GPIO_PIN_RESET);	// Set the chip select pin to low to initiate SPI comms
 800218a:	8c3b      	ldrh	r3, [r7, #32]
 800218c:	2200      	movs	r2, #0
 800218e:	4619      	mov	r1, r3
 8002190:	6838      	ldr	r0, [r7, #0]
 8002192:	f001 fd1d 	bl	8003bd0 <HAL_GPIO_WritePin>
	HAL_SPI_Transmit(hspi, opcode, 1, TIMEOUT_SML);			// Write the write enable value to the Flash to initial reading
 8002196:	2302      	movs	r3, #2
 8002198:	2201      	movs	r2, #1
 800219a:	68f9      	ldr	r1, [r7, #12]
 800219c:	68b8      	ldr	r0, [r7, #8]
 800219e:	f003 ff6e 	bl	800607e <HAL_SPI_Transmit>
	status = HAL_SPI_Receive(hspi, data_ptr, 1, TIMEOUT_SML);
 80021a2:	2302      	movs	r3, #2
 80021a4:	2201      	movs	r2, #1
 80021a6:	6879      	ldr	r1, [r7, #4]
 80021a8:	68b8      	ldr	r0, [r7, #8]
 80021aa:	f004 f8ab 	bl	8006304 <HAL_SPI_Receive>
 80021ae:	4603      	mov	r3, r0
 80021b0:	75fb      	strb	r3, [r7, #23]
	HAL_GPIO_WritePin(GPIOx, GPIO_Pin_CS, GPIO_PIN_SET);
 80021b2:	8c3b      	ldrh	r3, [r7, #32]
 80021b4:	2201      	movs	r2, #1
 80021b6:	4619      	mov	r1, r3
 80021b8:	6838      	ldr	r0, [r7, #0]
 80021ba:	f001 fd09 	bl	8003bd0 <HAL_GPIO_WritePin>
	return status;
 80021be:	7dfb      	ldrb	r3, [r7, #23]
}
 80021c0:	4618      	mov	r0, r3
 80021c2:	3718      	adds	r7, #24
 80021c4:	46bd      	mov	sp, r7
 80021c6:	bd80      	pop	{r7, pc}

080021c8 <perform_operation>:

HAL_StatusTypeDef perform_operation(uint8_t* opcode, SPI_HandleTypeDef *hspi, GPIO_TypeDef* GPIOx, uint16_t GPIO_Pin_CS) {
 80021c8:	b580      	push	{r7, lr}
 80021ca:	b086      	sub	sp, #24
 80021cc:	af00      	add	r7, sp, #0
 80021ce:	60f8      	str	r0, [r7, #12]
 80021d0:	60b9      	str	r1, [r7, #8]
 80021d2:	607a      	str	r2, [r7, #4]
 80021d4:	807b      	strh	r3, [r7, #2]
	HAL_StatusTypeDef status;
	HAL_GPIO_WritePin(GPIOx, GPIO_Pin_CS, GPIO_PIN_RESET);				// Set the chip select pin to low to initiate SPI comms
 80021d6:	887b      	ldrh	r3, [r7, #2]
 80021d8:	2200      	movs	r2, #0
 80021da:	4619      	mov	r1, r3
 80021dc:	6878      	ldr	r0, [r7, #4]
 80021de:	f001 fcf7 	bl	8003bd0 <HAL_GPIO_WritePin>
	status = HAL_SPI_Transmit(hspi, opcode, 1, TIMEOUT_SML);				// Write the opcode value
 80021e2:	2302      	movs	r3, #2
 80021e4:	2201      	movs	r2, #1
 80021e6:	68f9      	ldr	r1, [r7, #12]
 80021e8:	68b8      	ldr	r0, [r7, #8]
 80021ea:	f003 ff48 	bl	800607e <HAL_SPI_Transmit>
 80021ee:	4603      	mov	r3, r0
 80021f0:	75fb      	strb	r3, [r7, #23]
	HAL_GPIO_WritePin(GPIOx, GPIO_Pin_CS, GPIO_PIN_SET);
 80021f2:	887b      	ldrh	r3, [r7, #2]
 80021f4:	2201      	movs	r2, #1
 80021f6:	4619      	mov	r1, r3
 80021f8:	6878      	ldr	r0, [r7, #4]
 80021fa:	f001 fce9 	bl	8003bd0 <HAL_GPIO_WritePin>

	return status;
 80021fe:	7dfb      	ldrb	r3, [r7, #23]
}
 8002200:	4618      	mov	r0, r3
 8002202:	3718      	adds	r7, #24
 8002204:	46bd      	mov	sp, r7
 8002206:	bd80      	pop	{r7, pc}

08002208 <spi_read_data>:

HAL_StatusTypeDef spi_read_data(uint8_t* opcode, uint16_t data_size, uint8_t data_read[data_size], SPI_HandleTypeDef *hspi, uint32_t addr, GPIO_TypeDef* GPIOx, uint16_t GPIO_Pin_CS) {
 8002208:	b580      	push	{r7, lr}
 800220a:	b086      	sub	sp, #24
 800220c:	af00      	add	r7, sp, #0
 800220e:	60f8      	str	r0, [r7, #12]
 8002210:	607a      	str	r2, [r7, #4]
 8002212:	603b      	str	r3, [r7, #0]
 8002214:	460b      	mov	r3, r1
 8002216:	817b      	strh	r3, [r7, #10]
	HAL_StatusTypeDef status;

	// Split the 24 bit address into three 8 bit ints
	uint8_t addrL = addr & 0xFF;  // Get the low byte
 8002218:	6a3b      	ldr	r3, [r7, #32]
 800221a:	b2db      	uxtb	r3, r3
 800221c:	75bb      	strb	r3, [r7, #22]
	uint8_t addrM = (addr >> 8) & 0xFF;  // Get the middle byte
 800221e:	6a3b      	ldr	r3, [r7, #32]
 8002220:	0a1b      	lsrs	r3, r3, #8
 8002222:	b2db      	uxtb	r3, r3
 8002224:	757b      	strb	r3, [r7, #21]
	uint8_t addrH = (addr >> 16) & 0xFF;  // Get the high byte
 8002226:	6a3b      	ldr	r3, [r7, #32]
 8002228:	0c1b      	lsrs	r3, r3, #16
 800222a:	b2db      	uxtb	r3, r3
 800222c:	753b      	strb	r3, [r7, #20]

	// Read the data denoted by the given address
	HAL_GPIO_WritePin(GPIOx, GPIO_Pin_CS, GPIO_PIN_RESET);
 800222e:	8d3b      	ldrh	r3, [r7, #40]	; 0x28
 8002230:	2200      	movs	r2, #0
 8002232:	4619      	mov	r1, r3
 8002234:	6a78      	ldr	r0, [r7, #36]	; 0x24
 8002236:	f001 fccb 	bl	8003bd0 <HAL_GPIO_WritePin>
	HAL_SPI_Transmit(hspi, opcode, 1, TIMEOUT_SML);	// Write the read enable value
 800223a:	2302      	movs	r3, #2
 800223c:	2201      	movs	r2, #1
 800223e:	68f9      	ldr	r1, [r7, #12]
 8002240:	6838      	ldr	r0, [r7, #0]
 8002242:	f003 ff1c 	bl	800607e <HAL_SPI_Transmit>

	// Transmit the 24 bit address of the page to initialise read from
	HAL_SPI_Transmit(hspi, &addrH, 1, TIMEOUT_SML);
 8002246:	f107 0114 	add.w	r1, r7, #20
 800224a:	2302      	movs	r3, #2
 800224c:	2201      	movs	r2, #1
 800224e:	6838      	ldr	r0, [r7, #0]
 8002250:	f003 ff15 	bl	800607e <HAL_SPI_Transmit>
	HAL_SPI_Transmit(hspi, &addrM, 1, TIMEOUT_SML);
 8002254:	f107 0115 	add.w	r1, r7, #21
 8002258:	2302      	movs	r3, #2
 800225a:	2201      	movs	r2, #1
 800225c:	6838      	ldr	r0, [r7, #0]
 800225e:	f003 ff0e 	bl	800607e <HAL_SPI_Transmit>
	HAL_SPI_Transmit(hspi, &addrL, 1, TIMEOUT_SML);
 8002262:	f107 0116 	add.w	r1, r7, #22
 8002266:	2302      	movs	r3, #2
 8002268:	2201      	movs	r2, #1
 800226a:	6838      	ldr	r0, [r7, #0]
 800226c:	f003 ff07 	bl	800607e <HAL_SPI_Transmit>

	status = HAL_SPI_Receive(hspi, data_read, data_size, TIMEOUT_LRG);
 8002270:	897a      	ldrh	r2, [r7, #10]
 8002272:	2364      	movs	r3, #100	; 0x64
 8002274:	6879      	ldr	r1, [r7, #4]
 8002276:	6838      	ldr	r0, [r7, #0]
 8002278:	f004 f844 	bl	8006304 <HAL_SPI_Receive>
 800227c:	4603      	mov	r3, r0
 800227e:	75fb      	strb	r3, [r7, #23]
	HAL_GPIO_WritePin(GPIOx, GPIO_Pin_CS, GPIO_PIN_SET);
 8002280:	8d3b      	ldrh	r3, [r7, #40]	; 0x28
 8002282:	2201      	movs	r2, #1
 8002284:	4619      	mov	r1, r3
 8002286:	6a78      	ldr	r0, [r7, #36]	; 0x24
 8002288:	f001 fca2 	bl	8003bd0 <HAL_GPIO_WritePin>

	return status;
 800228c:	7dfb      	ldrb	r3, [r7, #23]
}
 800228e:	4618      	mov	r0, r3
 8002290:	3718      	adds	r7, #24
 8002292:	46bd      	mov	sp, r7
 8002294:	bd80      	pop	{r7, pc}

08002296 <spi_write_data_dma>:
	HAL_GPIO_WritePin(GPIOx, GPIO_Pin_CS, GPIO_PIN_SET);	// Set the chip select pin to high to remove the Flash from the SPI bus

	return status;
}

HAL_StatusTypeDef spi_write_data_dma(uint8_t* opcode, uint16_t data_size, uint8_t data_write[data_size], SPI_HandleTypeDef *hspi, uint32_t addr, GPIO_TypeDef* GPIOx, uint16_t GPIO_Pin_CS) {
 8002296:	b580      	push	{r7, lr}
 8002298:	b086      	sub	sp, #24
 800229a:	af00      	add	r7, sp, #0
 800229c:	60f8      	str	r0, [r7, #12]
 800229e:	607a      	str	r2, [r7, #4]
 80022a0:	603b      	str	r3, [r7, #0]
 80022a2:	460b      	mov	r3, r1
 80022a4:	817b      	strh	r3, [r7, #10]
    HAL_StatusTypeDef status;

    // Split the 24 bit address into three 8 bit ints
    uint8_t addrL = addr & 0xFF;  			// Get the low byte
 80022a6:	6a3b      	ldr	r3, [r7, #32]
 80022a8:	b2db      	uxtb	r3, r3
 80022aa:	75bb      	strb	r3, [r7, #22]
    uint8_t addrM = (addr >> 8) & 0xFF;  	// Get the middle byte
 80022ac:	6a3b      	ldr	r3, [r7, #32]
 80022ae:	0a1b      	lsrs	r3, r3, #8
 80022b0:	b2db      	uxtb	r3, r3
 80022b2:	757b      	strb	r3, [r7, #21]
    uint8_t addrH = (addr >> 16) & 0xFF;  	// Get the high byte
 80022b4:	6a3b      	ldr	r3, [r7, #32]
 80022b6:	0c1b      	lsrs	r3, r3, #16
 80022b8:	b2db      	uxtb	r3, r3
 80022ba:	753b      	strb	r3, [r7, #20]

    // Send the PageWrite command
    HAL_GPIO_WritePin(GPIOx, GPIO_Pin_CS, GPIO_PIN_RESET);	// Set the chip select pin to low to initiate SPI comms
 80022bc:	8d3b      	ldrh	r3, [r7, #40]	; 0x28
 80022be:	2200      	movs	r2, #0
 80022c0:	4619      	mov	r1, r3
 80022c2:	6a78      	ldr	r0, [r7, #36]	; 0x24
 80022c4:	f001 fc84 	bl	8003bd0 <HAL_GPIO_WritePin>
    HAL_SPI_Transmit(hspi, opcode, 1, TIMEOUT_SML);					// Write the write enable value to the Flash to initial writing
 80022c8:	2302      	movs	r3, #2
 80022ca:	2201      	movs	r2, #1
 80022cc:	68f9      	ldr	r1, [r7, #12]
 80022ce:	6838      	ldr	r0, [r7, #0]
 80022d0:	f003 fed5 	bl	800607e <HAL_SPI_Transmit>

    // Transmit the 24 bit address of the page to write to
    HAL_SPI_Transmit(hspi, &addrH, 1, TIMEOUT_SML);
 80022d4:	f107 0114 	add.w	r1, r7, #20
 80022d8:	2302      	movs	r3, #2
 80022da:	2201      	movs	r2, #1
 80022dc:	6838      	ldr	r0, [r7, #0]
 80022de:	f003 fece 	bl	800607e <HAL_SPI_Transmit>
    HAL_SPI_Transmit(hspi, &addrM, 1, TIMEOUT_SML);
 80022e2:	f107 0115 	add.w	r1, r7, #21
 80022e6:	2302      	movs	r3, #2
 80022e8:	2201      	movs	r2, #1
 80022ea:	6838      	ldr	r0, [r7, #0]
 80022ec:	f003 fec7 	bl	800607e <HAL_SPI_Transmit>
    HAL_SPI_Transmit(hspi, &addrL, 1, TIMEOUT_SML);
 80022f0:	f107 0116 	add.w	r1, r7, #22
 80022f4:	2302      	movs	r3, #2
 80022f6:	2201      	movs	r2, #1
 80022f8:	6838      	ldr	r0, [r7, #0]
 80022fa:	f003 fec0 	bl	800607e <HAL_SPI_Transmit>

    // Start the DMA transfer
    status = HAL_SPI_Transmit_DMA(hspi, data_write, data_size);
 80022fe:	897b      	ldrh	r3, [r7, #10]
 8002300:	461a      	mov	r2, r3
 8002302:	6879      	ldr	r1, [r7, #4]
 8002304:	6838      	ldr	r0, [r7, #0]
 8002306:	f004 fac5 	bl	8006894 <HAL_SPI_Transmit_DMA>
 800230a:	4603      	mov	r3, r0
 800230c:	75fb      	strb	r3, [r7, #23]

    return status;
 800230e:	7dfb      	ldrb	r3, [r7, #23]
}
 8002310:	4618      	mov	r0, r3
 8002312:	3718      	adds	r7, #24
 8002314:	46bd      	mov	sp, r7
 8002316:	bd80      	pop	{r7, pc}

08002318 <HAL_MspInit>:
/* USER CODE END 0 */
/**
  * Initializes the Global MSP.
  */
void HAL_MspInit(void)
{
 8002318:	b480      	push	{r7}
 800231a:	b083      	sub	sp, #12
 800231c:	af00      	add	r7, sp, #0
  /* USER CODE BEGIN MspInit 0 */

  /* USER CODE END MspInit 0 */

  __HAL_RCC_SYSCFG_CLK_ENABLE();
 800231e:	2300      	movs	r3, #0
 8002320:	607b      	str	r3, [r7, #4]
 8002322:	4b10      	ldr	r3, [pc, #64]	; (8002364 <HAL_MspInit+0x4c>)
 8002324:	6c5b      	ldr	r3, [r3, #68]	; 0x44
 8002326:	4a0f      	ldr	r2, [pc, #60]	; (8002364 <HAL_MspInit+0x4c>)
 8002328:	f443 4380 	orr.w	r3, r3, #16384	; 0x4000
 800232c:	6453      	str	r3, [r2, #68]	; 0x44
 800232e:	4b0d      	ldr	r3, [pc, #52]	; (8002364 <HAL_MspInit+0x4c>)
 8002330:	6c5b      	ldr	r3, [r3, #68]	; 0x44
 8002332:	f403 4380 	and.w	r3, r3, #16384	; 0x4000
 8002336:	607b      	str	r3, [r7, #4]
 8002338:	687b      	ldr	r3, [r7, #4]
  __HAL_RCC_PWR_CLK_ENABLE();
 800233a:	2300      	movs	r3, #0
 800233c:	603b      	str	r3, [r7, #0]
 800233e:	4b09      	ldr	r3, [pc, #36]	; (8002364 <HAL_MspInit+0x4c>)
 8002340:	6c1b      	ldr	r3, [r3, #64]	; 0x40
 8002342:	4a08      	ldr	r2, [pc, #32]	; (8002364 <HAL_MspInit+0x4c>)
 8002344:	f043 5380 	orr.w	r3, r3, #268435456	; 0x10000000
 8002348:	6413      	str	r3, [r2, #64]	; 0x40
 800234a:	4b06      	ldr	r3, [pc, #24]	; (8002364 <HAL_MspInit+0x4c>)
 800234c:	6c1b      	ldr	r3, [r3, #64]	; 0x40
 800234e:	f003 5380 	and.w	r3, r3, #268435456	; 0x10000000
 8002352:	603b      	str	r3, [r7, #0]
 8002354:	683b      	ldr	r3, [r7, #0]
  /* System interrupt init*/

  /* USER CODE BEGIN MspInit 1 */

  /* USER CODE END MspInit 1 */
}
 8002356:	bf00      	nop
 8002358:	370c      	adds	r7, #12
 800235a:	46bd      	mov	sp, r7
 800235c:	f85d 7b04 	ldr.w	r7, [sp], #4
 8002360:	4770      	bx	lr
 8002362:	bf00      	nop
 8002364:	40023800 	.word	0x40023800

08002368 <HAL_CAN_MspInit>:
* This function configures the hardware resources used in this example
* @param hcan: CAN handle pointer
* @retval None
*/
void HAL_CAN_MspInit(CAN_HandleTypeDef* hcan)
{
 8002368:	b580      	push	{r7, lr}
 800236a:	b08a      	sub	sp, #40	; 0x28
 800236c:	af00      	add	r7, sp, #0
 800236e:	6078      	str	r0, [r7, #4]
  GPIO_InitTypeDef GPIO_InitStruct = {0};
 8002370:	f107 0314 	add.w	r3, r7, #20
 8002374:	2200      	movs	r2, #0
 8002376:	601a      	str	r2, [r3, #0]
 8002378:	605a      	str	r2, [r3, #4]
 800237a:	609a      	str	r2, [r3, #8]
 800237c:	60da      	str	r2, [r3, #12]
 800237e:	611a      	str	r2, [r3, #16]
  if(hcan->Instance==CAN2)
 8002380:	687b      	ldr	r3, [r7, #4]
 8002382:	681b      	ldr	r3, [r3, #0]
 8002384:	4a20      	ldr	r2, [pc, #128]	; (8002408 <HAL_CAN_MspInit+0xa0>)
 8002386:	4293      	cmp	r3, r2
 8002388:	d139      	bne.n	80023fe <HAL_CAN_MspInit+0x96>
  {
  /* USER CODE BEGIN CAN2_MspInit 0 */

  /* USER CODE END CAN2_MspInit 0 */
    /* Peripheral clock enable */
    __HAL_RCC_CAN2_CLK_ENABLE();
 800238a:	2300      	movs	r3, #0
 800238c:	613b      	str	r3, [r7, #16]
 800238e:	4b1f      	ldr	r3, [pc, #124]	; (800240c <HAL_CAN_MspInit+0xa4>)
 8002390:	6c1b      	ldr	r3, [r3, #64]	; 0x40
 8002392:	4a1e      	ldr	r2, [pc, #120]	; (800240c <HAL_CAN_MspInit+0xa4>)
 8002394:	f043 6380 	orr.w	r3, r3, #67108864	; 0x4000000
 8002398:	6413      	str	r3, [r2, #64]	; 0x40
 800239a:	4b1c      	ldr	r3, [pc, #112]	; (800240c <HAL_CAN_MspInit+0xa4>)
 800239c:	6c1b      	ldr	r3, [r3, #64]	; 0x40
 800239e:	f003 6380 	and.w	r3, r3, #67108864	; 0x4000000
 80023a2:	613b      	str	r3, [r7, #16]
 80023a4:	693b      	ldr	r3, [r7, #16]
    __HAL_RCC_CAN1_CLK_ENABLE();
 80023a6:	2300      	movs	r3, #0
 80023a8:	60fb      	str	r3, [r7, #12]
 80023aa:	4b18      	ldr	r3, [pc, #96]	; (800240c <HAL_CAN_MspInit+0xa4>)
 80023ac:	6c1b      	ldr	r3, [r3, #64]	; 0x40
 80023ae:	4a17      	ldr	r2, [pc, #92]	; (800240c <HAL_CAN_MspInit+0xa4>)
 80023b0:	f043 7300 	orr.w	r3, r3, #33554432	; 0x2000000
 80023b4:	6413      	str	r3, [r2, #64]	; 0x40
 80023b6:	4b15      	ldr	r3, [pc, #84]	; (800240c <HAL_CAN_MspInit+0xa4>)
 80023b8:	6c1b      	ldr	r3, [r3, #64]	; 0x40
 80023ba:	f003 7300 	and.w	r3, r3, #33554432	; 0x2000000
 80023be:	60fb      	str	r3, [r7, #12]
 80023c0:	68fb      	ldr	r3, [r7, #12]

    __HAL_RCC_GPIOB_CLK_ENABLE();
 80023c2:	2300      	movs	r3, #0
 80023c4:	60bb      	str	r3, [r7, #8]
 80023c6:	4b11      	ldr	r3, [pc, #68]	; (800240c <HAL_CAN_MspInit+0xa4>)
 80023c8:	6b1b      	ldr	r3, [r3, #48]	; 0x30
 80023ca:	4a10      	ldr	r2, [pc, #64]	; (800240c <HAL_CAN_MspInit+0xa4>)
 80023cc:	f043 0302 	orr.w	r3, r3, #2
 80023d0:	6313      	str	r3, [r2, #48]	; 0x30
 80023d2:	4b0e      	ldr	r3, [pc, #56]	; (800240c <HAL_CAN_MspInit+0xa4>)
 80023d4:	6b1b      	ldr	r3, [r3, #48]	; 0x30
 80023d6:	f003 0302 	and.w	r3, r3, #2
 80023da:	60bb      	str	r3, [r7, #8]
 80023dc:	68bb      	ldr	r3, [r7, #8]
    /**CAN2 GPIO Configuration
    PB5     ------> CAN2_RX
    PB6     ------> CAN2_TX
    */
    GPIO_InitStruct.Pin = GPIO_PIN_5|GPIO_PIN_6;
 80023de:	2360      	movs	r3, #96	; 0x60
 80023e0:	617b      	str	r3, [r7, #20]
    GPIO_InitStruct.Mode = GPIO_MODE_AF_PP;
 80023e2:	2302      	movs	r3, #2
 80023e4:	61bb      	str	r3, [r7, #24]
    GPIO_InitStruct.Pull = GPIO_NOPULL;
 80023e6:	2300      	movs	r3, #0
 80023e8:	61fb      	str	r3, [r7, #28]
    GPIO_InitStruct.Speed = GPIO_SPEED_FREQ_VERY_HIGH;
 80023ea:	2303      	movs	r3, #3
 80023ec:	623b      	str	r3, [r7, #32]
    GPIO_InitStruct.Alternate = GPIO_AF9_CAN2;
 80023ee:	2309      	movs	r3, #9
 80023f0:	627b      	str	r3, [r7, #36]	; 0x24
    HAL_GPIO_Init(GPIOB, &GPIO_InitStruct);
 80023f2:	f107 0314 	add.w	r3, r7, #20
 80023f6:	4619      	mov	r1, r3
 80023f8:	4805      	ldr	r0, [pc, #20]	; (8002410 <HAL_CAN_MspInit+0xa8>)
 80023fa:	f001 fa25 	bl	8003848 <HAL_GPIO_Init>
  /* USER CODE BEGIN CAN2_MspInit 1 */

  /* USER CODE END CAN2_MspInit 1 */
  }

}
 80023fe:	bf00      	nop
 8002400:	3728      	adds	r7, #40	; 0x28
 8002402:	46bd      	mov	sp, r7
 8002404:	bd80      	pop	{r7, pc}
 8002406:	bf00      	nop
 8002408:	40006800 	.word	0x40006800
 800240c:	40023800 	.word	0x40023800
 8002410:	40020400 	.word	0x40020400

08002414 <HAL_I2C_MspInit>:
* This function configures the hardware resources used in this example
* @param hi2c: I2C handle pointer
* @retval None
*/
void HAL_I2C_MspInit(I2C_HandleTypeDef* hi2c)
{
 8002414:	b580      	push	{r7, lr}
 8002416:	b08c      	sub	sp, #48	; 0x30
 8002418:	af00      	add	r7, sp, #0
 800241a:	6078      	str	r0, [r7, #4]
  GPIO_InitTypeDef GPIO_InitStruct = {0};
 800241c:	f107 031c 	add.w	r3, r7, #28
 8002420:	2200      	movs	r2, #0
 8002422:	601a      	str	r2, [r3, #0]
 8002424:	605a      	str	r2, [r3, #4]
 8002426:	609a      	str	r2, [r3, #8]
 8002428:	60da      	str	r2, [r3, #12]
 800242a:	611a      	str	r2, [r3, #16]
  if(hi2c->Instance==I2C1)
 800242c:	687b      	ldr	r3, [r7, #4]
 800242e:	681b      	ldr	r3, [r3, #0]
 8002430:	4a33      	ldr	r2, [pc, #204]	; (8002500 <HAL_I2C_MspInit+0xec>)
 8002432:	4293      	cmp	r3, r2
 8002434:	d12d      	bne.n	8002492 <HAL_I2C_MspInit+0x7e>
  {
  /* USER CODE BEGIN I2C1_MspInit 0 */

  /* USER CODE END I2C1_MspInit 0 */

    __HAL_RCC_GPIOB_CLK_ENABLE();
 8002436:	2300      	movs	r3, #0
 8002438:	61bb      	str	r3, [r7, #24]
 800243a:	4b32      	ldr	r3, [pc, #200]	; (8002504 <HAL_I2C_MspInit+0xf0>)
 800243c:	6b1b      	ldr	r3, [r3, #48]	; 0x30
 800243e:	4a31      	ldr	r2, [pc, #196]	; (8002504 <HAL_I2C_MspInit+0xf0>)
 8002440:	f043 0302 	orr.w	r3, r3, #2
 8002444:	6313      	str	r3, [r2, #48]	; 0x30
 8002446:	4b2f      	ldr	r3, [pc, #188]	; (8002504 <HAL_I2C_MspInit+0xf0>)
 8002448:	6b1b      	ldr	r3, [r3, #48]	; 0x30
 800244a:	f003 0302 	and.w	r3, r3, #2
 800244e:	61bb      	str	r3, [r7, #24]
 8002450:	69bb      	ldr	r3, [r7, #24]
    /**I2C1 GPIO Configuration
    PB8     ------> I2C1_SCL
    PB9     ------> I2C1_SDA
    */
    GPIO_InitStruct.Pin = GPIO_PIN_8|GPIO_PIN_9;
 8002452:	f44f 7340 	mov.w	r3, #768	; 0x300
 8002456:	61fb      	str	r3, [r7, #28]
    GPIO_InitStruct.Mode = GPIO_MODE_AF_OD;
 8002458:	2312      	movs	r3, #18
 800245a:	623b      	str	r3, [r7, #32]
    GPIO_InitStruct.Pull = GPIO_NOPULL;
 800245c:	2300      	movs	r3, #0
 800245e:	627b      	str	r3, [r7, #36]	; 0x24
    GPIO_InitStruct.Speed = GPIO_SPEED_FREQ_VERY_HIGH;
 8002460:	2303      	movs	r3, #3
 8002462:	62bb      	str	r3, [r7, #40]	; 0x28
    GPIO_InitStruct.Alternate = GPIO_AF4_I2C1;
 8002464:	2304      	movs	r3, #4
 8002466:	62fb      	str	r3, [r7, #44]	; 0x2c
    HAL_GPIO_Init(GPIOB, &GPIO_InitStruct);
 8002468:	f107 031c 	add.w	r3, r7, #28
 800246c:	4619      	mov	r1, r3
 800246e:	4826      	ldr	r0, [pc, #152]	; (8002508 <HAL_I2C_MspInit+0xf4>)
 8002470:	f001 f9ea 	bl	8003848 <HAL_GPIO_Init>

    /* Peripheral clock enable */
    __HAL_RCC_I2C1_CLK_ENABLE();
 8002474:	2300      	movs	r3, #0
 8002476:	617b      	str	r3, [r7, #20]
 8002478:	4b22      	ldr	r3, [pc, #136]	; (8002504 <HAL_I2C_MspInit+0xf0>)
 800247a:	6c1b      	ldr	r3, [r3, #64]	; 0x40
 800247c:	4a21      	ldr	r2, [pc, #132]	; (8002504 <HAL_I2C_MspInit+0xf0>)
 800247e:	f443 1300 	orr.w	r3, r3, #2097152	; 0x200000
 8002482:	6413      	str	r3, [r2, #64]	; 0x40
 8002484:	4b1f      	ldr	r3, [pc, #124]	; (8002504 <HAL_I2C_MspInit+0xf0>)
 8002486:	6c1b      	ldr	r3, [r3, #64]	; 0x40
 8002488:	f403 1300 	and.w	r3, r3, #2097152	; 0x200000
 800248c:	617b      	str	r3, [r7, #20]
 800248e:	697b      	ldr	r3, [r7, #20]
  /* USER CODE BEGIN I2C2_MspInit 1 */

  /* USER CODE END I2C2_MspInit 1 */
  }

}
 8002490:	e031      	b.n	80024f6 <HAL_I2C_MspInit+0xe2>
  else if(hi2c->Instance==I2C2)
 8002492:	687b      	ldr	r3, [r7, #4]
 8002494:	681b      	ldr	r3, [r3, #0]
 8002496:	4a1d      	ldr	r2, [pc, #116]	; (800250c <HAL_I2C_MspInit+0xf8>)
 8002498:	4293      	cmp	r3, r2
 800249a:	d12c      	bne.n	80024f6 <HAL_I2C_MspInit+0xe2>
    __HAL_RCC_GPIOB_CLK_ENABLE();
 800249c:	2300      	movs	r3, #0
 800249e:	613b      	str	r3, [r7, #16]
 80024a0:	4b18      	ldr	r3, [pc, #96]	; (8002504 <HAL_I2C_MspInit+0xf0>)
 80024a2:	6b1b      	ldr	r3, [r3, #48]	; 0x30
 80024a4:	4a17      	ldr	r2, [pc, #92]	; (8002504 <HAL_I2C_MspInit+0xf0>)
 80024a6:	f043 0302 	orr.w	r3, r3, #2
 80024aa:	6313      	str	r3, [r2, #48]	; 0x30
 80024ac:	4b15      	ldr	r3, [pc, #84]	; (8002504 <HAL_I2C_MspInit+0xf0>)
 80024ae:	6b1b      	ldr	r3, [r3, #48]	; 0x30
 80024b0:	f003 0302 	and.w	r3, r3, #2
 80024b4:	613b      	str	r3, [r7, #16]
 80024b6:	693b      	ldr	r3, [r7, #16]
    GPIO_InitStruct.Pin = GPIO_PIN_10|GPIO_PIN_11;
 80024b8:	f44f 6340 	mov.w	r3, #3072	; 0xc00
 80024bc:	61fb      	str	r3, [r7, #28]
    GPIO_InitStruct.Mode = GPIO_MODE_AF_OD;
 80024be:	2312      	movs	r3, #18
 80024c0:	623b      	str	r3, [r7, #32]
    GPIO_InitStruct.Pull = GPIO_NOPULL;
 80024c2:	2300      	movs	r3, #0
 80024c4:	627b      	str	r3, [r7, #36]	; 0x24
    GPIO_InitStruct.Speed = GPIO_SPEED_FREQ_VERY_HIGH;
 80024c6:	2303      	movs	r3, #3
 80024c8:	62bb      	str	r3, [r7, #40]	; 0x28
    GPIO_InitStruct.Alternate = GPIO_AF4_I2C2;
 80024ca:	2304      	movs	r3, #4
 80024cc:	62fb      	str	r3, [r7, #44]	; 0x2c
    HAL_GPIO_Init(GPIOB, &GPIO_InitStruct);
 80024ce:	f107 031c 	add.w	r3, r7, #28
 80024d2:	4619      	mov	r1, r3
 80024d4:	480c      	ldr	r0, [pc, #48]	; (8002508 <HAL_I2C_MspInit+0xf4>)
 80024d6:	f001 f9b7 	bl	8003848 <HAL_GPIO_Init>
    __HAL_RCC_I2C2_CLK_ENABLE();
 80024da:	2300      	movs	r3, #0
 80024dc:	60fb      	str	r3, [r7, #12]
 80024de:	4b09      	ldr	r3, [pc, #36]	; (8002504 <HAL_I2C_MspInit+0xf0>)
 80024e0:	6c1b      	ldr	r3, [r3, #64]	; 0x40
 80024e2:	4a08      	ldr	r2, [pc, #32]	; (8002504 <HAL_I2C_MspInit+0xf0>)
 80024e4:	f443 0380 	orr.w	r3, r3, #4194304	; 0x400000
 80024e8:	6413      	str	r3, [r2, #64]	; 0x40
 80024ea:	4b06      	ldr	r3, [pc, #24]	; (8002504 <HAL_I2C_MspInit+0xf0>)
 80024ec:	6c1b      	ldr	r3, [r3, #64]	; 0x40
 80024ee:	f403 0380 	and.w	r3, r3, #4194304	; 0x400000
 80024f2:	60fb      	str	r3, [r7, #12]
 80024f4:	68fb      	ldr	r3, [r7, #12]
}
 80024f6:	bf00      	nop
 80024f8:	3730      	adds	r7, #48	; 0x30
 80024fa:	46bd      	mov	sp, r7
 80024fc:	bd80      	pop	{r7, pc}
 80024fe:	bf00      	nop
 8002500:	40005400 	.word	0x40005400
 8002504:	40023800 	.word	0x40023800
 8002508:	40020400 	.word	0x40020400
 800250c:	40005800 	.word	0x40005800

08002510 <HAL_RTC_MspInit>:
* This function configures the hardware resources used in this example
* @param hrtc: RTC handle pointer
* @retval None
*/
void HAL_RTC_MspInit(RTC_HandleTypeDef* hrtc)
{
 8002510:	b580      	push	{r7, lr}
 8002512:	b08e      	sub	sp, #56	; 0x38
 8002514:	af00      	add	r7, sp, #0
 8002516:	6078      	str	r0, [r7, #4]
  RCC_PeriphCLKInitTypeDef PeriphClkInitStruct = {0};
 8002518:	f107 0308 	add.w	r3, r7, #8
 800251c:	2230      	movs	r2, #48	; 0x30
 800251e:	2100      	movs	r1, #0
 8002520:	4618      	mov	r0, r3
 8002522:	f005 ffb5 	bl	8008490 <memset>
  if(hrtc->Instance==RTC)
 8002526:	687b      	ldr	r3, [r7, #4]
 8002528:	681b      	ldr	r3, [r3, #0]
 800252a:	4a0c      	ldr	r2, [pc, #48]	; (800255c <HAL_RTC_MspInit+0x4c>)
 800252c:	4293      	cmp	r3, r2
 800252e:	d111      	bne.n	8002554 <HAL_RTC_MspInit+0x44>

  /* USER CODE END RTC_MspInit 0 */

  /** Initializes the peripherals clock
  */
    PeriphClkInitStruct.PeriphClockSelection = RCC_PERIPHCLK_RTC;
 8002530:	2320      	movs	r3, #32
 8002532:	60bb      	str	r3, [r7, #8]
    PeriphClkInitStruct.RTCClockSelection = RCC_RTCCLKSOURCE_LSI;
 8002534:	f44f 7300 	mov.w	r3, #512	; 0x200
 8002538:	633b      	str	r3, [r7, #48]	; 0x30
    if (HAL_RCCEx_PeriphCLKConfig(&PeriphClkInitStruct) != HAL_OK)
 800253a:	f107 0308 	add.w	r3, r7, #8
 800253e:	4618      	mov	r0, r3
 8002540:	f003 f848 	bl	80055d4 <HAL_RCCEx_PeriphCLKConfig>
 8002544:	4603      	mov	r3, r0
 8002546:	2b00      	cmp	r3, #0
 8002548:	d001      	beq.n	800254e <HAL_RTC_MspInit+0x3e>
    {
      Error_Handler();
 800254a:	f7ff fa80 	bl	8001a4e <Error_Handler>
    }

    /* Peripheral clock enable */
    __HAL_RCC_RTC_ENABLE();
 800254e:	4b04      	ldr	r3, [pc, #16]	; (8002560 <HAL_RTC_MspInit+0x50>)
 8002550:	2201      	movs	r2, #1
 8002552:	601a      	str	r2, [r3, #0]
  /* USER CODE BEGIN RTC_MspInit 1 */

  /* USER CODE END RTC_MspInit 1 */
  }

}
 8002554:	bf00      	nop
 8002556:	3738      	adds	r7, #56	; 0x38
 8002558:	46bd      	mov	sp, r7
 800255a:	bd80      	pop	{r7, pc}
 800255c:	40002800 	.word	0x40002800
 8002560:	42470e3c 	.word	0x42470e3c

08002564 <HAL_SPI_MspInit>:
* This function configures the hardware resources used in this example
* @param hspi: SPI handle pointer
* @retval None
*/
void HAL_SPI_MspInit(SPI_HandleTypeDef* hspi)
{
 8002564:	b580      	push	{r7, lr}
 8002566:	b08c      	sub	sp, #48	; 0x30
 8002568:	af00      	add	r7, sp, #0
 800256a:	6078      	str	r0, [r7, #4]
  GPIO_InitTypeDef GPIO_InitStruct = {0};
 800256c:	f107 031c 	add.w	r3, r7, #28
 8002570:	2200      	movs	r2, #0
 8002572:	601a      	str	r2, [r3, #0]
 8002574:	605a      	str	r2, [r3, #4]
 8002576:	609a      	str	r2, [r3, #8]
 8002578:	60da      	str	r2, [r3, #12]
 800257a:	611a      	str	r2, [r3, #16]
  if(hspi->Instance==SPI1)
 800257c:	687b      	ldr	r3, [r7, #4]
 800257e:	681b      	ldr	r3, [r3, #0]
 8002580:	4a6f      	ldr	r2, [pc, #444]	; (8002740 <HAL_SPI_MspInit+0x1dc>)
 8002582:	4293      	cmp	r3, r2
 8002584:	d15b      	bne.n	800263e <HAL_SPI_MspInit+0xda>
  {
  /* USER CODE BEGIN SPI1_MspInit 0 */

  /* USER CODE END SPI1_MspInit 0 */
    /* Peripheral clock enable */
    __HAL_RCC_SPI1_CLK_ENABLE();
 8002586:	2300      	movs	r3, #0
 8002588:	61bb      	str	r3, [r7, #24]
 800258a:	4b6e      	ldr	r3, [pc, #440]	; (8002744 <HAL_SPI_MspInit+0x1e0>)
 800258c:	6c5b      	ldr	r3, [r3, #68]	; 0x44
 800258e:	4a6d      	ldr	r2, [pc, #436]	; (8002744 <HAL_SPI_MspInit+0x1e0>)
 8002590:	f443 5380 	orr.w	r3, r3, #4096	; 0x1000
 8002594:	6453      	str	r3, [r2, #68]	; 0x44
 8002596:	4b6b      	ldr	r3, [pc, #428]	; (8002744 <HAL_SPI_MspInit+0x1e0>)
 8002598:	6c5b      	ldr	r3, [r3, #68]	; 0x44
 800259a:	f403 5380 	and.w	r3, r3, #4096	; 0x1000
 800259e:	61bb      	str	r3, [r7, #24]
 80025a0:	69bb      	ldr	r3, [r7, #24]

    __HAL_RCC_GPIOA_CLK_ENABLE();
 80025a2:	2300      	movs	r3, #0
 80025a4:	617b      	str	r3, [r7, #20]
 80025a6:	4b67      	ldr	r3, [pc, #412]	; (8002744 <HAL_SPI_MspInit+0x1e0>)
 80025a8:	6b1b      	ldr	r3, [r3, #48]	; 0x30
 80025aa:	4a66      	ldr	r2, [pc, #408]	; (8002744 <HAL_SPI_MspInit+0x1e0>)
 80025ac:	f043 0301 	orr.w	r3, r3, #1
 80025b0:	6313      	str	r3, [r2, #48]	; 0x30
 80025b2:	4b64      	ldr	r3, [pc, #400]	; (8002744 <HAL_SPI_MspInit+0x1e0>)
 80025b4:	6b1b      	ldr	r3, [r3, #48]	; 0x30
 80025b6:	f003 0301 	and.w	r3, r3, #1
 80025ba:	617b      	str	r3, [r7, #20]
 80025bc:	697b      	ldr	r3, [r7, #20]
    /**SPI1 GPIO Configuration
    PA5     ------> SPI1_SCK
    PA6     ------> SPI1_MISO
    PA7     ------> SPI1_MOSI
    */
    GPIO_InitStruct.Pin = GPIO_PIN_5|GPIO_PIN_6|GPIO_PIN_7;
 80025be:	23e0      	movs	r3, #224	; 0xe0
 80025c0:	61fb      	str	r3, [r7, #28]
    GPIO_InitStruct.Mode = GPIO_MODE_AF_PP;
 80025c2:	2302      	movs	r3, #2
 80025c4:	623b      	str	r3, [r7, #32]
    GPIO_InitStruct.Pull = GPIO_NOPULL;
 80025c6:	2300      	movs	r3, #0
 80025c8:	627b      	str	r3, [r7, #36]	; 0x24
    GPIO_InitStruct.Speed = GPIO_SPEED_FREQ_VERY_HIGH;
 80025ca:	2303      	movs	r3, #3
 80025cc:	62bb      	str	r3, [r7, #40]	; 0x28
    GPIO_InitStruct.Alternate = GPIO_AF5_SPI1;
 80025ce:	2305      	movs	r3, #5
 80025d0:	62fb      	str	r3, [r7, #44]	; 0x2c
    HAL_GPIO_Init(GPIOA, &GPIO_InitStruct);
 80025d2:	f107 031c 	add.w	r3, r7, #28
 80025d6:	4619      	mov	r1, r3
 80025d8:	485b      	ldr	r0, [pc, #364]	; (8002748 <HAL_SPI_MspInit+0x1e4>)
 80025da:	f001 f935 	bl	8003848 <HAL_GPIO_Init>

    /* SPI1 DMA Init */
    /* SPI1_TX Init */
    hdma_spi1_tx.Instance = DMA2_Stream3;
 80025de:	4b5b      	ldr	r3, [pc, #364]	; (800274c <HAL_SPI_MspInit+0x1e8>)
 80025e0:	4a5b      	ldr	r2, [pc, #364]	; (8002750 <HAL_SPI_MspInit+0x1ec>)
 80025e2:	601a      	str	r2, [r3, #0]
    hdma_spi1_tx.Init.Channel = DMA_CHANNEL_3;
 80025e4:	4b59      	ldr	r3, [pc, #356]	; (800274c <HAL_SPI_MspInit+0x1e8>)
 80025e6:	f04f 62c0 	mov.w	r2, #100663296	; 0x6000000
 80025ea:	605a      	str	r2, [r3, #4]
    hdma_spi1_tx.Init.Direction = DMA_MEMORY_TO_PERIPH;
 80025ec:	4b57      	ldr	r3, [pc, #348]	; (800274c <HAL_SPI_MspInit+0x1e8>)
 80025ee:	2240      	movs	r2, #64	; 0x40
 80025f0:	609a      	str	r2, [r3, #8]
    hdma_spi1_tx.Init.PeriphInc = DMA_PINC_DISABLE;
 80025f2:	4b56      	ldr	r3, [pc, #344]	; (800274c <HAL_SPI_MspInit+0x1e8>)
 80025f4:	2200      	movs	r2, #0
 80025f6:	60da      	str	r2, [r3, #12]
    hdma_spi1_tx.Init.MemInc = DMA_MINC_ENABLE;
 80025f8:	4b54      	ldr	r3, [pc, #336]	; (800274c <HAL_SPI_MspInit+0x1e8>)
 80025fa:	f44f 6280 	mov.w	r2, #1024	; 0x400
 80025fe:	611a      	str	r2, [r3, #16]
    hdma_spi1_tx.Init.PeriphDataAlignment = DMA_PDATAALIGN_BYTE;
 8002600:	4b52      	ldr	r3, [pc, #328]	; (800274c <HAL_SPI_MspInit+0x1e8>)
 8002602:	2200      	movs	r2, #0
 8002604:	615a      	str	r2, [r3, #20]
    hdma_spi1_tx.Init.MemDataAlignment = DMA_MDATAALIGN_BYTE;
 8002606:	4b51      	ldr	r3, [pc, #324]	; (800274c <HAL_SPI_MspInit+0x1e8>)
 8002608:	2200      	movs	r2, #0
 800260a:	619a      	str	r2, [r3, #24]
    hdma_spi1_tx.Init.Mode = DMA_NORMAL;
 800260c:	4b4f      	ldr	r3, [pc, #316]	; (800274c <HAL_SPI_MspInit+0x1e8>)
 800260e:	2200      	movs	r2, #0
 8002610:	61da      	str	r2, [r3, #28]
    hdma_spi1_tx.Init.Priority = DMA_PRIORITY_MEDIUM;
 8002612:	4b4e      	ldr	r3, [pc, #312]	; (800274c <HAL_SPI_MspInit+0x1e8>)
 8002614:	f44f 3280 	mov.w	r2, #65536	; 0x10000
 8002618:	621a      	str	r2, [r3, #32]
    hdma_spi1_tx.Init.FIFOMode = DMA_FIFOMODE_DISABLE;
 800261a:	4b4c      	ldr	r3, [pc, #304]	; (800274c <HAL_SPI_MspInit+0x1e8>)
 800261c:	2200      	movs	r2, #0
 800261e:	625a      	str	r2, [r3, #36]	; 0x24
    if (HAL_DMA_Init(&hdma_spi1_tx) != HAL_OK)
 8002620:	484a      	ldr	r0, [pc, #296]	; (800274c <HAL_SPI_MspInit+0x1e8>)
 8002622:	f000 fd0f 	bl	8003044 <HAL_DMA_Init>
 8002626:	4603      	mov	r3, r0
 8002628:	2b00      	cmp	r3, #0
 800262a:	d001      	beq.n	8002630 <HAL_SPI_MspInit+0xcc>
    {
      Error_Handler();
 800262c:	f7ff fa0f 	bl	8001a4e <Error_Handler>
    }

    __HAL_LINKDMA(hspi,hdmatx,hdma_spi1_tx);
 8002630:	687b      	ldr	r3, [r7, #4]
 8002632:	4a46      	ldr	r2, [pc, #280]	; (800274c <HAL_SPI_MspInit+0x1e8>)
 8002634:	649a      	str	r2, [r3, #72]	; 0x48
 8002636:	4a45      	ldr	r2, [pc, #276]	; (800274c <HAL_SPI_MspInit+0x1e8>)
 8002638:	687b      	ldr	r3, [r7, #4]
 800263a:	6393      	str	r3, [r2, #56]	; 0x38
  /* USER CODE BEGIN SPI2_MspInit 1 */

  /* USER CODE END SPI2_MspInit 1 */
  }

}
 800263c:	e07b      	b.n	8002736 <HAL_SPI_MspInit+0x1d2>
  else if(hspi->Instance==SPI2)
 800263e:	687b      	ldr	r3, [r7, #4]
 8002640:	681b      	ldr	r3, [r3, #0]
 8002642:	4a44      	ldr	r2, [pc, #272]	; (8002754 <HAL_SPI_MspInit+0x1f0>)
 8002644:	4293      	cmp	r3, r2
 8002646:	d176      	bne.n	8002736 <HAL_SPI_MspInit+0x1d2>
    __HAL_RCC_SPI2_CLK_ENABLE();
 8002648:	2300      	movs	r3, #0
 800264a:	613b      	str	r3, [r7, #16]
 800264c:	4b3d      	ldr	r3, [pc, #244]	; (8002744 <HAL_SPI_MspInit+0x1e0>)
 800264e:	6c1b      	ldr	r3, [r3, #64]	; 0x40
 8002650:	4a3c      	ldr	r2, [pc, #240]	; (8002744 <HAL_SPI_MspInit+0x1e0>)
 8002652:	f443 4380 	orr.w	r3, r3, #16384	; 0x4000
 8002656:	6413      	str	r3, [r2, #64]	; 0x40
 8002658:	4b3a      	ldr	r3, [pc, #232]	; (8002744 <HAL_SPI_MspInit+0x1e0>)
 800265a:	6c1b      	ldr	r3, [r3, #64]	; 0x40
 800265c:	f403 4380 	and.w	r3, r3, #16384	; 0x4000
 8002660:	613b      	str	r3, [r7, #16]
 8002662:	693b      	ldr	r3, [r7, #16]
    __HAL_RCC_GPIOC_CLK_ENABLE();
 8002664:	2300      	movs	r3, #0
 8002666:	60fb      	str	r3, [r7, #12]
 8002668:	4b36      	ldr	r3, [pc, #216]	; (8002744 <HAL_SPI_MspInit+0x1e0>)
 800266a:	6b1b      	ldr	r3, [r3, #48]	; 0x30
 800266c:	4a35      	ldr	r2, [pc, #212]	; (8002744 <HAL_SPI_MspInit+0x1e0>)
 800266e:	f043 0304 	orr.w	r3, r3, #4
 8002672:	6313      	str	r3, [r2, #48]	; 0x30
 8002674:	4b33      	ldr	r3, [pc, #204]	; (8002744 <HAL_SPI_MspInit+0x1e0>)
 8002676:	6b1b      	ldr	r3, [r3, #48]	; 0x30
 8002678:	f003 0304 	and.w	r3, r3, #4
 800267c:	60fb      	str	r3, [r7, #12]
 800267e:	68fb      	ldr	r3, [r7, #12]
    __HAL_RCC_GPIOD_CLK_ENABLE();
 8002680:	2300      	movs	r3, #0
 8002682:	60bb      	str	r3, [r7, #8]
 8002684:	4b2f      	ldr	r3, [pc, #188]	; (8002744 <HAL_SPI_MspInit+0x1e0>)
 8002686:	6b1b      	ldr	r3, [r3, #48]	; 0x30
 8002688:	4a2e      	ldr	r2, [pc, #184]	; (8002744 <HAL_SPI_MspInit+0x1e0>)
 800268a:	f043 0308 	orr.w	r3, r3, #8
 800268e:	6313      	str	r3, [r2, #48]	; 0x30
 8002690:	4b2c      	ldr	r3, [pc, #176]	; (8002744 <HAL_SPI_MspInit+0x1e0>)
 8002692:	6b1b      	ldr	r3, [r3, #48]	; 0x30
 8002694:	f003 0308 	and.w	r3, r3, #8
 8002698:	60bb      	str	r3, [r7, #8]
 800269a:	68bb      	ldr	r3, [r7, #8]
    GPIO_InitStruct.Pin = GPIO_PIN_2|GPIO_PIN_3;
 800269c:	230c      	movs	r3, #12
 800269e:	61fb      	str	r3, [r7, #28]
    GPIO_InitStruct.Mode = GPIO_MODE_AF_PP;
 80026a0:	2302      	movs	r3, #2
 80026a2:	623b      	str	r3, [r7, #32]
    GPIO_InitStruct.Pull = GPIO_NOPULL;
 80026a4:	2300      	movs	r3, #0
 80026a6:	627b      	str	r3, [r7, #36]	; 0x24
    GPIO_InitStruct.Speed = GPIO_SPEED_FREQ_VERY_HIGH;
 80026a8:	2303      	movs	r3, #3
 80026aa:	62bb      	str	r3, [r7, #40]	; 0x28
    GPIO_InitStruct.Alternate = GPIO_AF5_SPI2;
 80026ac:	2305      	movs	r3, #5
 80026ae:	62fb      	str	r3, [r7, #44]	; 0x2c
    HAL_GPIO_Init(GPIOC, &GPIO_InitStruct);
 80026b0:	f107 031c 	add.w	r3, r7, #28
 80026b4:	4619      	mov	r1, r3
 80026b6:	4828      	ldr	r0, [pc, #160]	; (8002758 <HAL_SPI_MspInit+0x1f4>)
 80026b8:	f001 f8c6 	bl	8003848 <HAL_GPIO_Init>
    GPIO_InitStruct.Pin = GPIO_PIN_3;
 80026bc:	2308      	movs	r3, #8
 80026be:	61fb      	str	r3, [r7, #28]
    GPIO_InitStruct.Mode = GPIO_MODE_AF_PP;
 80026c0:	2302      	movs	r3, #2
 80026c2:	623b      	str	r3, [r7, #32]
    GPIO_InitStruct.Pull = GPIO_NOPULL;
 80026c4:	2300      	movs	r3, #0
 80026c6:	627b      	str	r3, [r7, #36]	; 0x24
    GPIO_InitStruct.Speed = GPIO_SPEED_FREQ_VERY_HIGH;
 80026c8:	2303      	movs	r3, #3
 80026ca:	62bb      	str	r3, [r7, #40]	; 0x28
    GPIO_InitStruct.Alternate = GPIO_AF5_SPI2;
 80026cc:	2305      	movs	r3, #5
 80026ce:	62fb      	str	r3, [r7, #44]	; 0x2c
    HAL_GPIO_Init(GPIOD, &GPIO_InitStruct);
 80026d0:	f107 031c 	add.w	r3, r7, #28
 80026d4:	4619      	mov	r1, r3
 80026d6:	4821      	ldr	r0, [pc, #132]	; (800275c <HAL_SPI_MspInit+0x1f8>)
 80026d8:	f001 f8b6 	bl	8003848 <HAL_GPIO_Init>
    hdma_spi2_tx.Instance = DMA1_Stream4;
 80026dc:	4b20      	ldr	r3, [pc, #128]	; (8002760 <HAL_SPI_MspInit+0x1fc>)
 80026de:	4a21      	ldr	r2, [pc, #132]	; (8002764 <HAL_SPI_MspInit+0x200>)
 80026e0:	601a      	str	r2, [r3, #0]
    hdma_spi2_tx.Init.Channel = DMA_CHANNEL_0;
 80026e2:	4b1f      	ldr	r3, [pc, #124]	; (8002760 <HAL_SPI_MspInit+0x1fc>)
 80026e4:	2200      	movs	r2, #0
 80026e6:	605a      	str	r2, [r3, #4]
    hdma_spi2_tx.Init.Direction = DMA_MEMORY_TO_PERIPH;
 80026e8:	4b1d      	ldr	r3, [pc, #116]	; (8002760 <HAL_SPI_MspInit+0x1fc>)
 80026ea:	2240      	movs	r2, #64	; 0x40
 80026ec:	609a      	str	r2, [r3, #8]
    hdma_spi2_tx.Init.PeriphInc = DMA_PINC_DISABLE;
 80026ee:	4b1c      	ldr	r3, [pc, #112]	; (8002760 <HAL_SPI_MspInit+0x1fc>)
 80026f0:	2200      	movs	r2, #0
 80026f2:	60da      	str	r2, [r3, #12]
    hdma_spi2_tx.Init.MemInc = DMA_MINC_ENABLE;
 80026f4:	4b1a      	ldr	r3, [pc, #104]	; (8002760 <HAL_SPI_MspInit+0x1fc>)
 80026f6:	f44f 6280 	mov.w	r2, #1024	; 0x400
 80026fa:	611a      	str	r2, [r3, #16]
    hdma_spi2_tx.Init.PeriphDataAlignment = DMA_PDATAALIGN_BYTE;
 80026fc:	4b18      	ldr	r3, [pc, #96]	; (8002760 <HAL_SPI_MspInit+0x1fc>)
 80026fe:	2200      	movs	r2, #0
 8002700:	615a      	str	r2, [r3, #20]
    hdma_spi2_tx.Init.MemDataAlignment = DMA_MDATAALIGN_BYTE;
 8002702:	4b17      	ldr	r3, [pc, #92]	; (8002760 <HAL_SPI_MspInit+0x1fc>)
 8002704:	2200      	movs	r2, #0
 8002706:	619a      	str	r2, [r3, #24]
    hdma_spi2_tx.Init.Mode = DMA_NORMAL;
 8002708:	4b15      	ldr	r3, [pc, #84]	; (8002760 <HAL_SPI_MspInit+0x1fc>)
 800270a:	2200      	movs	r2, #0
 800270c:	61da      	str	r2, [r3, #28]
    hdma_spi2_tx.Init.Priority = DMA_PRIORITY_LOW;
 800270e:	4b14      	ldr	r3, [pc, #80]	; (8002760 <HAL_SPI_MspInit+0x1fc>)
 8002710:	2200      	movs	r2, #0
 8002712:	621a      	str	r2, [r3, #32]
    hdma_spi2_tx.Init.FIFOMode = DMA_FIFOMODE_DISABLE;
 8002714:	4b12      	ldr	r3, [pc, #72]	; (8002760 <HAL_SPI_MspInit+0x1fc>)
 8002716:	2200      	movs	r2, #0
 8002718:	625a      	str	r2, [r3, #36]	; 0x24
    if (HAL_DMA_Init(&hdma_spi2_tx) != HAL_OK)
 800271a:	4811      	ldr	r0, [pc, #68]	; (8002760 <HAL_SPI_MspInit+0x1fc>)
 800271c:	f000 fc92 	bl	8003044 <HAL_DMA_Init>
 8002720:	4603      	mov	r3, r0
 8002722:	2b00      	cmp	r3, #0
 8002724:	d001      	beq.n	800272a <HAL_SPI_MspInit+0x1c6>
      Error_Handler();
 8002726:	f7ff f992 	bl	8001a4e <Error_Handler>
    __HAL_LINKDMA(hspi,hdmatx,hdma_spi2_tx);
 800272a:	687b      	ldr	r3, [r7, #4]
 800272c:	4a0c      	ldr	r2, [pc, #48]	; (8002760 <HAL_SPI_MspInit+0x1fc>)
 800272e:	649a      	str	r2, [r3, #72]	; 0x48
 8002730:	4a0b      	ldr	r2, [pc, #44]	; (8002760 <HAL_SPI_MspInit+0x1fc>)
 8002732:	687b      	ldr	r3, [r7, #4]
 8002734:	6393      	str	r3, [r2, #56]	; 0x38
}
 8002736:	bf00      	nop
 8002738:	3730      	adds	r7, #48	; 0x30
 800273a:	46bd      	mov	sp, r7
 800273c:	bd80      	pop	{r7, pc}
 800273e:	bf00      	nop
 8002740:	40013000 	.word	0x40013000
 8002744:	40023800 	.word	0x40023800
 8002748:	40020000 	.word	0x40020000
 800274c:	200001e8 	.word	0x200001e8
 8002750:	40026458 	.word	0x40026458
 8002754:	40003800 	.word	0x40003800
 8002758:	40020800 	.word	0x40020800
 800275c:	40020c00 	.word	0x40020c00
 8002760:	20000248 	.word	0x20000248
 8002764:	40026070 	.word	0x40026070

08002768 <HAL_TIM_Base_MspInit>:
* This function configures the hardware resources used in this example
* @param htim_base: TIM_Base handle pointer
* @retval None
*/
void HAL_TIM_Base_MspInit(TIM_HandleTypeDef* htim_base)
{
 8002768:	b580      	push	{r7, lr}
 800276a:	b084      	sub	sp, #16
 800276c:	af00      	add	r7, sp, #0
 800276e:	6078      	str	r0, [r7, #4]
  if(htim_base->Instance==TIM6)
 8002770:	687b      	ldr	r3, [r7, #4]
 8002772:	681b      	ldr	r3, [r3, #0]
 8002774:	4a1c      	ldr	r2, [pc, #112]	; (80027e8 <HAL_TIM_Base_MspInit+0x80>)
 8002776:	4293      	cmp	r3, r2
 8002778:	d116      	bne.n	80027a8 <HAL_TIM_Base_MspInit+0x40>
  {
  /* USER CODE BEGIN TIM6_MspInit 0 */

  /* USER CODE END TIM6_MspInit 0 */
    /* Peripheral clock enable */
    __HAL_RCC_TIM6_CLK_ENABLE();
 800277a:	2300      	movs	r3, #0
 800277c:	60fb      	str	r3, [r7, #12]
 800277e:	4b1b      	ldr	r3, [pc, #108]	; (80027ec <HAL_TIM_Base_MspInit+0x84>)
 8002780:	6c1b      	ldr	r3, [r3, #64]	; 0x40
 8002782:	4a1a      	ldr	r2, [pc, #104]	; (80027ec <HAL_TIM_Base_MspInit+0x84>)
 8002784:	f043 0310 	orr.w	r3, r3, #16
 8002788:	6413      	str	r3, [r2, #64]	; 0x40
 800278a:	4b18      	ldr	r3, [pc, #96]	; (80027ec <HAL_TIM_Base_MspInit+0x84>)
 800278c:	6c1b      	ldr	r3, [r3, #64]	; 0x40
 800278e:	f003 0310 	and.w	r3, r3, #16
 8002792:	60fb      	str	r3, [r7, #12]
 8002794:	68fb      	ldr	r3, [r7, #12]
    /* TIM6 interrupt Init */
    HAL_NVIC_SetPriority(TIM6_DAC_IRQn, 0, 0);
 8002796:	2200      	movs	r2, #0
 8002798:	2100      	movs	r1, #0
 800279a:	2036      	movs	r0, #54	; 0x36
 800279c:	f000 fc1b 	bl	8002fd6 <HAL_NVIC_SetPriority>
    HAL_NVIC_EnableIRQ(TIM6_DAC_IRQn);
 80027a0:	2036      	movs	r0, #54	; 0x36
 80027a2:	f000 fc34 	bl	800300e <HAL_NVIC_EnableIRQ>
  /* USER CODE BEGIN TIM7_MspInit 1 */

  /* USER CODE END TIM7_MspInit 1 */
  }

}
 80027a6:	e01a      	b.n	80027de <HAL_TIM_Base_MspInit+0x76>
  else if(htim_base->Instance==TIM7)
 80027a8:	687b      	ldr	r3, [r7, #4]
 80027aa:	681b      	ldr	r3, [r3, #0]
 80027ac:	4a10      	ldr	r2, [pc, #64]	; (80027f0 <HAL_TIM_Base_MspInit+0x88>)
 80027ae:	4293      	cmp	r3, r2
 80027b0:	d115      	bne.n	80027de <HAL_TIM_Base_MspInit+0x76>
    __HAL_RCC_TIM7_CLK_ENABLE();
 80027b2:	2300      	movs	r3, #0
 80027b4:	60bb      	str	r3, [r7, #8]
 80027b6:	4b0d      	ldr	r3, [pc, #52]	; (80027ec <HAL_TIM_Base_MspInit+0x84>)
 80027b8:	6c1b      	ldr	r3, [r3, #64]	; 0x40
 80027ba:	4a0c      	ldr	r2, [pc, #48]	; (80027ec <HAL_TIM_Base_MspInit+0x84>)
 80027bc:	f043 0320 	orr.w	r3, r3, #32
 80027c0:	6413      	str	r3, [r2, #64]	; 0x40
 80027c2:	4b0a      	ldr	r3, [pc, #40]	; (80027ec <HAL_TIM_Base_MspInit+0x84>)
 80027c4:	6c1b      	ldr	r3, [r3, #64]	; 0x40
 80027c6:	f003 0320 	and.w	r3, r3, #32
 80027ca:	60bb      	str	r3, [r7, #8]
 80027cc:	68bb      	ldr	r3, [r7, #8]
    HAL_NVIC_SetPriority(TIM7_IRQn, 0, 0);
 80027ce:	2200      	movs	r2, #0
 80027d0:	2100      	movs	r1, #0
 80027d2:	2037      	movs	r0, #55	; 0x37
 80027d4:	f000 fbff 	bl	8002fd6 <HAL_NVIC_SetPriority>
    HAL_NVIC_EnableIRQ(TIM7_IRQn);
 80027d8:	2037      	movs	r0, #55	; 0x37
 80027da:	f000 fc18 	bl	800300e <HAL_NVIC_EnableIRQ>
}
 80027de:	bf00      	nop
 80027e0:	3710      	adds	r7, #16
 80027e2:	46bd      	mov	sp, r7
 80027e4:	bd80      	pop	{r7, pc}
 80027e6:	bf00      	nop
 80027e8:	40001000 	.word	0x40001000
 80027ec:	40023800 	.word	0x40023800
 80027f0:	40001400 	.word	0x40001400

080027f4 <HAL_UART_MspInit>:
* This function configures the hardware resources used in this example
* @param huart: UART handle pointer
* @retval None
*/
void HAL_UART_MspInit(UART_HandleTypeDef* huart)
{
 80027f4:	b580      	push	{r7, lr}
 80027f6:	b08a      	sub	sp, #40	; 0x28
 80027f8:	af00      	add	r7, sp, #0
 80027fa:	6078      	str	r0, [r7, #4]
  GPIO_InitTypeDef GPIO_InitStruct = {0};
 80027fc:	f107 0314 	add.w	r3, r7, #20
 8002800:	2200      	movs	r2, #0
 8002802:	601a      	str	r2, [r3, #0]
 8002804:	605a      	str	r2, [r3, #4]
 8002806:	609a      	str	r2, [r3, #8]
 8002808:	60da      	str	r2, [r3, #12]
 800280a:	611a      	str	r2, [r3, #16]
  if(huart->Instance==USART2)
 800280c:	687b      	ldr	r3, [r7, #4]
 800280e:	681b      	ldr	r3, [r3, #0]
 8002810:	4a1d      	ldr	r2, [pc, #116]	; (8002888 <HAL_UART_MspInit+0x94>)
 8002812:	4293      	cmp	r3, r2
 8002814:	d133      	bne.n	800287e <HAL_UART_MspInit+0x8a>
  {
  /* USER CODE BEGIN USART2_MspInit 0 */

  /* USER CODE END USART2_MspInit 0 */
    /* Peripheral clock enable */
    __HAL_RCC_USART2_CLK_ENABLE();
 8002816:	2300      	movs	r3, #0
 8002818:	613b      	str	r3, [r7, #16]
 800281a:	4b1c      	ldr	r3, [pc, #112]	; (800288c <HAL_UART_MspInit+0x98>)
 800281c:	6c1b      	ldr	r3, [r3, #64]	; 0x40
 800281e:	4a1b      	ldr	r2, [pc, #108]	; (800288c <HAL_UART_MspInit+0x98>)
 8002820:	f443 3300 	orr.w	r3, r3, #131072	; 0x20000
 8002824:	6413      	str	r3, [r2, #64]	; 0x40
 8002826:	4b19      	ldr	r3, [pc, #100]	; (800288c <HAL_UART_MspInit+0x98>)
 8002828:	6c1b      	ldr	r3, [r3, #64]	; 0x40
 800282a:	f403 3300 	and.w	r3, r3, #131072	; 0x20000
 800282e:	613b      	str	r3, [r7, #16]
 8002830:	693b      	ldr	r3, [r7, #16]

    __HAL_RCC_GPIOD_CLK_ENABLE();
 8002832:	2300      	movs	r3, #0
 8002834:	60fb      	str	r3, [r7, #12]
 8002836:	4b15      	ldr	r3, [pc, #84]	; (800288c <HAL_UART_MspInit+0x98>)
 8002838:	6b1b      	ldr	r3, [r3, #48]	; 0x30
 800283a:	4a14      	ldr	r2, [pc, #80]	; (800288c <HAL_UART_MspInit+0x98>)
 800283c:	f043 0308 	orr.w	r3, r3, #8
 8002840:	6313      	str	r3, [r2, #48]	; 0x30
 8002842:	4b12      	ldr	r3, [pc, #72]	; (800288c <HAL_UART_MspInit+0x98>)
 8002844:	6b1b      	ldr	r3, [r3, #48]	; 0x30
 8002846:	f003 0308 	and.w	r3, r3, #8
 800284a:	60fb      	str	r3, [r7, #12]
 800284c:	68fb      	ldr	r3, [r7, #12]
    /**USART2 GPIO Configuration
    PD5     ------> USART2_TX
    PD6     ------> USART2_RX
    */
    GPIO_InitStruct.Pin = GPIO_PIN_5|GPIO_PIN_6;
 800284e:	2360      	movs	r3, #96	; 0x60
 8002850:	617b      	str	r3, [r7, #20]
    GPIO_InitStruct.Mode = GPIO_MODE_AF_PP;
 8002852:	2302      	movs	r3, #2
 8002854:	61bb      	str	r3, [r7, #24]
    GPIO_InitStruct.Pull = GPIO_NOPULL;
 8002856:	2300      	movs	r3, #0
 8002858:	61fb      	str	r3, [r7, #28]
    GPIO_InitStruct.Speed = GPIO_SPEED_FREQ_VERY_HIGH;
 800285a:	2303      	movs	r3, #3
 800285c:	623b      	str	r3, [r7, #32]
    GPIO_InitStruct.Alternate = GPIO_AF7_USART2;
 800285e:	2307      	movs	r3, #7
 8002860:	627b      	str	r3, [r7, #36]	; 0x24
    HAL_GPIO_Init(GPIOD, &GPIO_InitStruct);
 8002862:	f107 0314 	add.w	r3, r7, #20
 8002866:	4619      	mov	r1, r3
 8002868:	4809      	ldr	r0, [pc, #36]	; (8002890 <HAL_UART_MspInit+0x9c>)
 800286a:	f000 ffed 	bl	8003848 <HAL_GPIO_Init>

    /* USART2 interrupt Init */
    HAL_NVIC_SetPriority(USART2_IRQn, 0, 0);
 800286e:	2200      	movs	r2, #0
 8002870:	2100      	movs	r1, #0
 8002872:	2026      	movs	r0, #38	; 0x26
 8002874:	f000 fbaf 	bl	8002fd6 <HAL_NVIC_SetPriority>
    HAL_NVIC_EnableIRQ(USART2_IRQn);
 8002878:	2026      	movs	r0, #38	; 0x26
 800287a:	f000 fbc8 	bl	800300e <HAL_NVIC_EnableIRQ>
  /* USER CODE BEGIN USART2_MspInit 1 */

  /* USER CODE END USART2_MspInit 1 */
  }

}
 800287e:	bf00      	nop
 8002880:	3728      	adds	r7, #40	; 0x28
 8002882:	46bd      	mov	sp, r7
 8002884:	bd80      	pop	{r7, pc}
 8002886:	bf00      	nop
 8002888:	40004400 	.word	0x40004400
 800288c:	40023800 	.word	0x40023800
 8002890:	40020c00 	.word	0x40020c00

08002894 <NMI_Handler>:
/******************************************************************************/
/**
  * @brief This function handles Non maskable interrupt.
  */
void NMI_Handler(void)
{
 8002894:	b480      	push	{r7}
 8002896:	af00      	add	r7, sp, #0
  /* USER CODE BEGIN NonMaskableInt_IRQn 0 */

  /* USER CODE END NonMaskableInt_IRQn 0 */
  /* USER CODE BEGIN NonMaskableInt_IRQn 1 */
  while (1)
 8002898:	e7fe      	b.n	8002898 <NMI_Handler+0x4>

0800289a <HardFault_Handler>:

/**
  * @brief This function handles Hard fault interrupt.
  */
void HardFault_Handler(void)
{
 800289a:	b480      	push	{r7}
 800289c:	af00      	add	r7, sp, #0
  /* USER CODE BEGIN HardFault_IRQn 0 */

  /* USER CODE END HardFault_IRQn 0 */
  while (1)
 800289e:	e7fe      	b.n	800289e <HardFault_Handler+0x4>

080028a0 <MemManage_Handler>:

/**
  * @brief This function handles Memory management fault.
  */
void MemManage_Handler(void)
{
 80028a0:	b480      	push	{r7}
 80028a2:	af00      	add	r7, sp, #0
  /* USER CODE BEGIN MemoryManagement_IRQn 0 */

  /* USER CODE END MemoryManagement_IRQn 0 */
  while (1)
 80028a4:	e7fe      	b.n	80028a4 <MemManage_Handler+0x4>

080028a6 <BusFault_Handler>:

/**
  * @brief This function handles Pre-fetch fault, memory access fault.
  */
void BusFault_Handler(void)
{
 80028a6:	b480      	push	{r7}
 80028a8:	af00      	add	r7, sp, #0
  /* USER CODE BEGIN BusFault_IRQn 0 */

  /* USER CODE END BusFault_IRQn 0 */
  while (1)
 80028aa:	e7fe      	b.n	80028aa <BusFault_Handler+0x4>

080028ac <UsageFault_Handler>:

/**
  * @brief This function handles Undefined instruction or illegal state.
  */
void UsageFault_Handler(void)
{
 80028ac:	b480      	push	{r7}
 80028ae:	af00      	add	r7, sp, #0
  /* USER CODE BEGIN UsageFault_IRQn 0 */

  /* USER CODE END UsageFault_IRQn 0 */
  while (1)
 80028b0:	e7fe      	b.n	80028b0 <UsageFault_Handler+0x4>

080028b2 <SVC_Handler>:

/**
  * @brief This function handles System service call via SWI instruction.
  */
void SVC_Handler(void)
{
 80028b2:	b480      	push	{r7}
 80028b4:	af00      	add	r7, sp, #0

  /* USER CODE END SVCall_IRQn 0 */
  /* USER CODE BEGIN SVCall_IRQn 1 */

  /* USER CODE END SVCall_IRQn 1 */
}
 80028b6:	bf00      	nop
 80028b8:	46bd      	mov	sp, r7
 80028ba:	f85d 7b04 	ldr.w	r7, [sp], #4
 80028be:	4770      	bx	lr

080028c0 <DebugMon_Handler>:

/**
  * @brief This function handles Debug monitor.
  */
void DebugMon_Handler(void)
{
 80028c0:	b480      	push	{r7}
 80028c2:	af00      	add	r7, sp, #0

  /* USER CODE END DebugMonitor_IRQn 0 */
  /* USER CODE BEGIN DebugMonitor_IRQn 1 */

  /* USER CODE END DebugMonitor_IRQn 1 */
}
 80028c4:	bf00      	nop
 80028c6:	46bd      	mov	sp, r7
 80028c8:	f85d 7b04 	ldr.w	r7, [sp], #4
 80028cc:	4770      	bx	lr

080028ce <PendSV_Handler>:

/**
  * @brief This function handles Pendable request for system service.
  */
void PendSV_Handler(void)
{
 80028ce:	b480      	push	{r7}
 80028d0:	af00      	add	r7, sp, #0

  /* USER CODE END PendSV_IRQn 0 */
  /* USER CODE BEGIN PendSV_IRQn 1 */

  /* USER CODE END PendSV_IRQn 1 */
}
 80028d2:	bf00      	nop
 80028d4:	46bd      	mov	sp, r7
 80028d6:	f85d 7b04 	ldr.w	r7, [sp], #4
 80028da:	4770      	bx	lr

080028dc <SysTick_Handler>:

/**
  * @brief This function handles System tick timer.
  */
void SysTick_Handler(void)
{
 80028dc:	b580      	push	{r7, lr}
 80028de:	af00      	add	r7, sp, #0
  /* USER CODE BEGIN SysTick_IRQn 0 */

  /* USER CODE END SysTick_IRQn 0 */
  HAL_IncTick();
 80028e0:	f000 f95e 	bl	8002ba0 <HAL_IncTick>
  /* USER CODE BEGIN SysTick_IRQn 1 */

  /* USER CODE END SysTick_IRQn 1 */
}
 80028e4:	bf00      	nop
 80028e6:	bd80      	pop	{r7, pc}

080028e8 <DMA1_Stream4_IRQHandler>:

/**
  * @brief This function handles DMA1 stream4 global interrupt.
  */
void DMA1_Stream4_IRQHandler(void)
{
 80028e8:	b580      	push	{r7, lr}
 80028ea:	af00      	add	r7, sp, #0
  /* USER CODE BEGIN DMA1_Stream4_IRQn 0 */

  /* USER CODE END DMA1_Stream4_IRQn 0 */
  HAL_DMA_IRQHandler(&hdma_spi2_tx);
 80028ec:	4802      	ldr	r0, [pc, #8]	; (80028f8 <DMA1_Stream4_IRQHandler+0x10>)
 80028ee:	f000 fd41 	bl	8003374 <HAL_DMA_IRQHandler>
  /* USER CODE BEGIN DMA1_Stream4_IRQn 1 */

  /* USER CODE END DMA1_Stream4_IRQn 1 */
}
 80028f2:	bf00      	nop
 80028f4:	bd80      	pop	{r7, pc}
 80028f6:	bf00      	nop
 80028f8:	20000248 	.word	0x20000248

080028fc <USART2_IRQHandler>:

/**
  * @brief This function handles USART2 global interrupt.
  */
void USART2_IRQHandler(void)
{
 80028fc:	b580      	push	{r7, lr}
 80028fe:	af00      	add	r7, sp, #0
  /* USER CODE BEGIN USART2_IRQn 0 */

  /* USER CODE END USART2_IRQn 0 */
  HAL_UART_IRQHandler(&huart2);
 8002900:	4802      	ldr	r0, [pc, #8]	; (800290c <USART2_IRQHandler+0x10>)
 8002902:	f004 fe6f 	bl	80075e4 <HAL_UART_IRQHandler>
  /* USER CODE BEGIN USART2_IRQn 1 */

  /* USER CODE END USART2_IRQn 1 */
}
 8002906:	bf00      	nop
 8002908:	bd80      	pop	{r7, pc}
 800290a:	bf00      	nop
 800290c:	20000338 	.word	0x20000338

08002910 <TIM6_DAC_IRQHandler>:

/**
  * @brief This function handles TIM6 global interrupt, DAC1 and DAC2 underrun error interrupts.
  */
void TIM6_DAC_IRQHandler(void)
{
 8002910:	b580      	push	{r7, lr}
 8002912:	af00      	add	r7, sp, #0
  /* USER CODE BEGIN TIM6_DAC_IRQn 0 */

  /* USER CODE END TIM6_DAC_IRQn 0 */
  HAL_TIM_IRQHandler(&htim6);
 8002914:	4803      	ldr	r0, [pc, #12]	; (8002924 <TIM6_DAC_IRQHandler+0x14>)
 8002916:	f004 fb07 	bl	8006f28 <HAL_TIM_IRQHandler>
  /* USER CODE BEGIN TIM6_DAC_IRQn 1 */
  tim6_overflow_flag = 0x01;
 800291a:	4b03      	ldr	r3, [pc, #12]	; (8002928 <TIM6_DAC_IRQHandler+0x18>)
 800291c:	2201      	movs	r2, #1
 800291e:	701a      	strb	r2, [r3, #0]
  /* USER CODE END TIM6_DAC_IRQn 1 */
}
 8002920:	bf00      	nop
 8002922:	bd80      	pop	{r7, pc}
 8002924:	200002a8 	.word	0x200002a8
 8002928:	2000038b 	.word	0x2000038b

0800292c <TIM7_IRQHandler>:

/**
  * @brief This function handles TIM7 global interrupt.
  */
void TIM7_IRQHandler(void)
{
 800292c:	b580      	push	{r7, lr}
 800292e:	af00      	add	r7, sp, #0
  /* USER CODE BEGIN TIM7_IRQn 0 */

  /* USER CODE END TIM7_IRQn 0 */
  HAL_TIM_IRQHandler(&htim7);
 8002930:	4803      	ldr	r0, [pc, #12]	; (8002940 <TIM7_IRQHandler+0x14>)
 8002932:	f004 faf9 	bl	8006f28 <HAL_TIM_IRQHandler>
  /* USER CODE BEGIN TIM7_IRQn 1 */
  tim7_overflow_flag = 0x01;
 8002936:	4b03      	ldr	r3, [pc, #12]	; (8002944 <TIM7_IRQHandler+0x18>)
 8002938:	2201      	movs	r2, #1
 800293a:	701a      	strb	r2, [r3, #0]
  /* USER CODE END TIM7_IRQn 1 */
}
 800293c:	bf00      	nop
 800293e:	bd80      	pop	{r7, pc}
 8002940:	200002f0 	.word	0x200002f0
 8002944:	2000038c 	.word	0x2000038c

08002948 <DMA2_Stream3_IRQHandler>:

/**
  * @brief This function handles DMA2 stream3 global interrupt.
  */
void DMA2_Stream3_IRQHandler(void)
{
 8002948:	b580      	push	{r7, lr}
 800294a:	af00      	add	r7, sp, #0
  /* USER CODE BEGIN DMA2_Stream3_IRQn 0 */

  /* USER CODE END DMA2_Stream3_IRQn 0 */
  HAL_DMA_IRQHandler(&hdma_spi1_tx);
 800294c:	4802      	ldr	r0, [pc, #8]	; (8002958 <DMA2_Stream3_IRQHandler+0x10>)
 800294e:	f000 fd11 	bl	8003374 <HAL_DMA_IRQHandler>
  /* USER CODE BEGIN DMA2_Stream3_IRQn 1 */

  /* USER CODE END DMA2_Stream3_IRQn 1 */
}
 8002952:	bf00      	nop
 8002954:	bd80      	pop	{r7, pc}
 8002956:	bf00      	nop
 8002958:	200001e8 	.word	0x200001e8

0800295c <HAL_SPI_TxCpltCallback>:

/* USER CODE BEGIN 1 */
void HAL_SPI_TxCpltCallback(SPI_HandleTypeDef *hspi) {
 800295c:	b580      	push	{r7, lr}
 800295e:	b082      	sub	sp, #8
 8002960:	af00      	add	r7, sp, #0
 8002962:	6078      	str	r0, [r7, #4]
	// Pull CS pin high to deselect the device
    if (hspi->Instance == SPI1) {
 8002964:	687b      	ldr	r3, [r7, #4]
 8002966:	681b      	ldr	r3, [r3, #0]
 8002968:	4a18      	ldr	r2, [pc, #96]	; (80029cc <HAL_SPI_TxCpltCallback+0x70>)
 800296a:	4293      	cmp	r3, r2
 800296c:	d108      	bne.n	8002980 <HAL_SPI_TxCpltCallback+0x24>
        // Pull CS pin high for SPI1 to deselect the device
    	HAL_GPIO_WritePin(cs_spi1.GPIOx, cs_spi1.GPIO_Pin, GPIO_PIN_SET);
 800296e:	4b18      	ldr	r3, [pc, #96]	; (80029d0 <HAL_SPI_TxCpltCallback+0x74>)
 8002970:	681b      	ldr	r3, [r3, #0]
 8002972:	4a17      	ldr	r2, [pc, #92]	; (80029d0 <HAL_SPI_TxCpltCallback+0x74>)
 8002974:	8891      	ldrh	r1, [r2, #4]
 8002976:	2201      	movs	r2, #1
 8002978:	4618      	mov	r0, r3
 800297a:	f001 f929 	bl	8003bd0 <HAL_GPIO_WritePin>
 800297e:	e00c      	b.n	800299a <HAL_SPI_TxCpltCallback+0x3e>
    } else if (hspi->Instance == SPI2) {
 8002980:	687b      	ldr	r3, [r7, #4]
 8002982:	681b      	ldr	r3, [r3, #0]
 8002984:	4a13      	ldr	r2, [pc, #76]	; (80029d4 <HAL_SPI_TxCpltCallback+0x78>)
 8002986:	4293      	cmp	r3, r2
 8002988:	d107      	bne.n	800299a <HAL_SPI_TxCpltCallback+0x3e>
        // Pull CS pin high for SPI2 to deselect the device
    	HAL_GPIO_WritePin(cs_spi2.GPIOx, cs_spi2.GPIO_Pin, GPIO_PIN_SET);
 800298a:	4b13      	ldr	r3, [pc, #76]	; (80029d8 <HAL_SPI_TxCpltCallback+0x7c>)
 800298c:	681b      	ldr	r3, [r3, #0]
 800298e:	4a12      	ldr	r2, [pc, #72]	; (80029d8 <HAL_SPI_TxCpltCallback+0x7c>)
 8002990:	8891      	ldrh	r1, [r2, #4]
 8002992:	2201      	movs	r2, #1
 8002994:	4618      	mov	r0, r3
 8002996:	f001 f91b 	bl	8003bd0 <HAL_GPIO_WritePin>
    }

    CLEAR_BIT(hspi->Instance->CR2, SPI_CR2_TXDMAEN);
 800299a:	687b      	ldr	r3, [r7, #4]
 800299c:	681b      	ldr	r3, [r3, #0]
 800299e:	685a      	ldr	r2, [r3, #4]
 80029a0:	687b      	ldr	r3, [r7, #4]
 80029a2:	681b      	ldr	r3, [r3, #0]
 80029a4:	f022 0202 	bic.w	r2, r2, #2
 80029a8:	605a      	str	r2, [r3, #4]
    clean_data_buffer(PAGE_SIZE, data_buffer_tx[buffer_tracker ^ 0x01]);
 80029aa:	4b0c      	ldr	r3, [pc, #48]	; (80029dc <HAL_SPI_TxCpltCallback+0x80>)
 80029ac:	781b      	ldrb	r3, [r3, #0]
 80029ae:	f083 0301 	eor.w	r3, r3, #1
 80029b2:	b2db      	uxtb	r3, r3
 80029b4:	021b      	lsls	r3, r3, #8
 80029b6:	4a0a      	ldr	r2, [pc, #40]	; (80029e0 <HAL_SPI_TxCpltCallback+0x84>)
 80029b8:	4413      	add	r3, r2
 80029ba:	4619      	mov	r1, r3
 80029bc:	f44f 7080 	mov.w	r0, #256	; 0x100
 80029c0:	f7fe fd8c 	bl	80014dc <clean_data_buffer>
}
 80029c4:	bf00      	nop
 80029c6:	3708      	adds	r7, #8
 80029c8:	46bd      	mov	sp, r7
 80029ca:	bd80      	pop	{r7, pc}
 80029cc:	40013000 	.word	0x40013000
 80029d0:	200005c4 	.word	0x200005c4
 80029d4:	40003800 	.word	0x40003800
 80029d8:	200005d4 	.word	0x200005d4
 80029dc:	20000590 	.word	0x20000590
 80029e0:	20000390 	.word	0x20000390

080029e4 <HAL_UART_RxCpltCallback>:

void HAL_UART_RxCpltCallback(UART_HandleTypeDef *huart) {
 80029e4:	b580      	push	{r7, lr}
 80029e6:	b082      	sub	sp, #8
 80029e8:	af00      	add	r7, sp, #0
 80029ea:	6078      	str	r0, [r7, #4]
	uart2_rec_flag = 0x01;
 80029ec:	4b05      	ldr	r3, [pc, #20]	; (8002a04 <HAL_UART_RxCpltCallback+0x20>)
 80029ee:	2201      	movs	r2, #1
 80029f0:	701a      	strb	r2, [r3, #0]
	HAL_UART_Receive_IT(&huart2, UARTRxData, 2);
 80029f2:	2202      	movs	r2, #2
 80029f4:	4904      	ldr	r1, [pc, #16]	; (8002a08 <HAL_UART_RxCpltCallback+0x24>)
 80029f6:	4805      	ldr	r0, [pc, #20]	; (8002a0c <HAL_UART_RxCpltCallback+0x28>)
 80029f8:	f004 fdcf 	bl	800759a <HAL_UART_Receive_IT>
}
 80029fc:	bf00      	nop
 80029fe:	3708      	adds	r7, #8
 8002a00:	46bd      	mov	sp, r7
 8002a02:	bd80      	pop	{r7, pc}
 8002a04:	2000038a 	.word	0x2000038a
 8002a08:	20000388 	.word	0x20000388
 8002a0c:	20000338 	.word	0x20000338

08002a10 <SystemInit>:
  *         configuration.
  * @param  None
  * @retval None
  */
void SystemInit(void)
{
 8002a10:	b480      	push	{r7}
 8002a12:	af00      	add	r7, sp, #0
  /* FPU settings ------------------------------------------------------------*/
  #if (__FPU_PRESENT == 1) && (__FPU_USED == 1)
    SCB->CPACR |= ((3UL << 10*2)|(3UL << 11*2));  /* set CP10 and CP11 Full Access */
 8002a14:	4b06      	ldr	r3, [pc, #24]	; (8002a30 <SystemInit+0x20>)
 8002a16:	f8d3 3088 	ldr.w	r3, [r3, #136]	; 0x88
 8002a1a:	4a05      	ldr	r2, [pc, #20]	; (8002a30 <SystemInit+0x20>)
 8002a1c:	f443 0370 	orr.w	r3, r3, #15728640	; 0xf00000
 8002a20:	f8c2 3088 	str.w	r3, [r2, #136]	; 0x88

  /* Configure the Vector Table location -------------------------------------*/
#if defined(USER_VECT_TAB_ADDRESS)
  SCB->VTOR = VECT_TAB_BASE_ADDRESS | VECT_TAB_OFFSET; /* Vector Table Relocation in Internal SRAM */
#endif /* USER_VECT_TAB_ADDRESS */
}
 8002a24:	bf00      	nop
 8002a26:	46bd      	mov	sp, r7
 8002a28:	f85d 7b04 	ldr.w	r7, [sp], #4
 8002a2c:	4770      	bx	lr
 8002a2e:	bf00      	nop
 8002a30:	e000ed00 	.word	0xe000ed00

08002a34 <uart_transmit_page>:

#include "uart_transmit.h"
/**
 * Transmit one single page over the UART interface
 */
void uart_transmit_page(UART_HandleTypeDef *huart, uint8_t page[PAGE_SIZE]) {
 8002a34:	b580      	push	{r7, lr}
 8002a36:	b082      	sub	sp, #8
 8002a38:	af00      	add	r7, sp, #0
 8002a3a:	6078      	str	r0, [r7, #4]
 8002a3c:	6039      	str	r1, [r7, #0]
	HAL_UART_Transmit(huart, page, PAGE_SIZE, HAL_MAX_DELAY);
 8002a3e:	f04f 33ff 	mov.w	r3, #4294967295	; 0xffffffff
 8002a42:	f44f 7280 	mov.w	r2, #256	; 0x100
 8002a46:	6839      	ldr	r1, [r7, #0]
 8002a48:	6878      	ldr	r0, [r7, #4]
 8002a4a:	f004 fd1b 	bl	8007484 <HAL_UART_Transmit>
}
 8002a4e:	bf00      	nop
 8002a50:	3708      	adds	r7, #8
 8002a52:	46bd      	mov	sp, r7
 8002a54:	bd80      	pop	{r7, pc}

08002a56 <send_uart_string>:

void send_uart_string(UART_HandleTypeDef *huart, const char *str) {
 8002a56:	b580      	push	{r7, lr}
 8002a58:	b082      	sub	sp, #8
 8002a5a:	af00      	add	r7, sp, #0
 8002a5c:	6078      	str	r0, [r7, #4]
 8002a5e:	6039      	str	r1, [r7, #0]
    HAL_UART_Transmit(huart, (uint8_t *)str, strlen(str), HAL_MAX_DELAY);
 8002a60:	6838      	ldr	r0, [r7, #0]
 8002a62:	f7fd fbc3 	bl	80001ec <strlen>
 8002a66:	4603      	mov	r3, r0
 8002a68:	b29a      	uxth	r2, r3
 8002a6a:	f04f 33ff 	mov.w	r3, #4294967295	; 0xffffffff
 8002a6e:	6839      	ldr	r1, [r7, #0]
 8002a70:	6878      	ldr	r0, [r7, #4]
 8002a72:	f004 fd07 	bl	8007484 <HAL_UART_Transmit>
}
 8002a76:	bf00      	nop
 8002a78:	3708      	adds	r7, #8
 8002a7a:	46bd      	mov	sp, r7
 8002a7c:	bd80      	pop	{r7, pc}

08002a7e <send_uart_hex>:
	// Call the send_uart_string function to send the value to UART
	send_uart_string(huart, value_str);
	send_uart_string(huart, "\r\n");
}

void send_uart_hex(UART_HandleTypeDef *huart, uint8_t value) {
 8002a7e:	b580      	push	{r7, lr}
 8002a80:	b084      	sub	sp, #16
 8002a82:	af00      	add	r7, sp, #0
 8002a84:	6078      	str	r0, [r7, #4]
 8002a86:	460b      	mov	r3, r1
 8002a88:	70fb      	strb	r3, [r7, #3]
	uint8_t buffer[1];
	buffer[0] = value;
 8002a8a:	78fb      	ldrb	r3, [r7, #3]
 8002a8c:	733b      	strb	r3, [r7, #12]
	HAL_UART_Transmit(huart, buffer, 1, HAL_MAX_DELAY);
 8002a8e:	f107 010c 	add.w	r1, r7, #12
 8002a92:	f04f 33ff 	mov.w	r3, #4294967295	; 0xffffffff
 8002a96:	2201      	movs	r2, #1
 8002a98:	6878      	ldr	r0, [r7, #4]
 8002a9a:	f004 fcf3 	bl	8007484 <HAL_UART_Transmit>
}
 8002a9e:	bf00      	nop
 8002aa0:	3710      	adds	r7, #16
 8002aa2:	46bd      	mov	sp, r7
 8002aa4:	bd80      	pop	{r7, pc}
	...

08002aa8 <Reset_Handler>:

    .section  .text.Reset_Handler
  .weak  Reset_Handler
  .type  Reset_Handler, %function
Reset_Handler:  
  ldr   sp, =_estack     /* set stack pointer */
 8002aa8:	f8df d034 	ldr.w	sp, [pc, #52]	; 8002ae0 <LoopFillZerobss+0xe>
  
/* Call the clock system initialization function.*/
  bl  SystemInit  
 8002aac:	f7ff ffb0 	bl	8002a10 <SystemInit>

/* Copy the data segment initializers from flash to SRAM */  
  ldr r0, =_sdata
 8002ab0:	480c      	ldr	r0, [pc, #48]	; (8002ae4 <LoopFillZerobss+0x12>)
  ldr r1, =_edata
 8002ab2:	490d      	ldr	r1, [pc, #52]	; (8002ae8 <LoopFillZerobss+0x16>)
  ldr r2, =_sidata
 8002ab4:	4a0d      	ldr	r2, [pc, #52]	; (8002aec <LoopFillZerobss+0x1a>)
  movs r3, #0
 8002ab6:	2300      	movs	r3, #0
  b LoopCopyDataInit
 8002ab8:	e002      	b.n	8002ac0 <LoopCopyDataInit>

08002aba <CopyDataInit>:

CopyDataInit:
  ldr r4, [r2, r3]
 8002aba:	58d4      	ldr	r4, [r2, r3]
  str r4, [r0, r3]
 8002abc:	50c4      	str	r4, [r0, r3]
  adds r3, r3, #4
 8002abe:	3304      	adds	r3, #4

08002ac0 <LoopCopyDataInit>:

LoopCopyDataInit:
  adds r4, r0, r3
 8002ac0:	18c4      	adds	r4, r0, r3
  cmp r4, r1
 8002ac2:	428c      	cmp	r4, r1
  bcc CopyDataInit
 8002ac4:	d3f9      	bcc.n	8002aba <CopyDataInit>
  
/* Zero fill the bss segment. */
  ldr r2, =_sbss
 8002ac6:	4a0a      	ldr	r2, [pc, #40]	; (8002af0 <LoopFillZerobss+0x1e>)
  ldr r4, =_ebss
 8002ac8:	4c0a      	ldr	r4, [pc, #40]	; (8002af4 <LoopFillZerobss+0x22>)
  movs r3, #0
 8002aca:	2300      	movs	r3, #0
  b LoopFillZerobss
 8002acc:	e001      	b.n	8002ad2 <LoopFillZerobss>

08002ace <FillZerobss>:

FillZerobss:
  str  r3, [r2]
 8002ace:	6013      	str	r3, [r2, #0]
  adds r2, r2, #4
 8002ad0:	3204      	adds	r2, #4

08002ad2 <LoopFillZerobss>:

LoopFillZerobss:
  cmp r2, r4
 8002ad2:	42a2      	cmp	r2, r4
  bcc FillZerobss
 8002ad4:	d3fb      	bcc.n	8002ace <FillZerobss>

/* Call static constructors */
    bl __libc_init_array
 8002ad6:	f005 fce3 	bl	80084a0 <__libc_init_array>
/* Call the application's entry point.*/
  bl  main
 8002ada:	f7fe f8e7 	bl	8000cac <main>
  bx  lr    
 8002ade:	4770      	bx	lr
  ldr   sp, =_estack     /* set stack pointer */
 8002ae0:	20030000 	.word	0x20030000
  ldr r0, =_sdata
 8002ae4:	20000000 	.word	0x20000000
  ldr r1, =_edata
 8002ae8:	20000028 	.word	0x20000028
  ldr r2, =_sidata
 8002aec:	080085c8 	.word	0x080085c8
  ldr r2, =_sbss
 8002af0:	20000028 	.word	0x20000028
  ldr r4, =_ebss
 8002af4:	20000608 	.word	0x20000608

08002af8 <ADC_IRQHandler>:
 * @retval None       
*/
    .section  .text.Default_Handler,"ax",%progbits
Default_Handler:
Infinite_Loop:
  b  Infinite_Loop
 8002af8:	e7fe      	b.n	8002af8 <ADC_IRQHandler>
	...

08002afc <HAL_Init>:
  *         need to ensure that the SysTick time base is always set to 1 millisecond
  *         to have correct HAL operation.
  * @retval HAL status
  */
HAL_StatusTypeDef HAL_Init(void)
{
 8002afc:	b580      	push	{r7, lr}
 8002afe:	af00      	add	r7, sp, #0
  /* Configure Flash prefetch, Instruction cache, Data cache */ 
#if (INSTRUCTION_CACHE_ENABLE != 0U)
  __HAL_FLASH_INSTRUCTION_CACHE_ENABLE();
 8002b00:	4b0e      	ldr	r3, [pc, #56]	; (8002b3c <HAL_Init+0x40>)
 8002b02:	681b      	ldr	r3, [r3, #0]
 8002b04:	4a0d      	ldr	r2, [pc, #52]	; (8002b3c <HAL_Init+0x40>)
 8002b06:	f443 7300 	orr.w	r3, r3, #512	; 0x200
 8002b0a:	6013      	str	r3, [r2, #0]
#endif /* INSTRUCTION_CACHE_ENABLE */

#if (DATA_CACHE_ENABLE != 0U)
  __HAL_FLASH_DATA_CACHE_ENABLE();
 8002b0c:	4b0b      	ldr	r3, [pc, #44]	; (8002b3c <HAL_Init+0x40>)
 8002b0e:	681b      	ldr	r3, [r3, #0]
 8002b10:	4a0a      	ldr	r2, [pc, #40]	; (8002b3c <HAL_Init+0x40>)
 8002b12:	f443 6380 	orr.w	r3, r3, #1024	; 0x400
 8002b16:	6013      	str	r3, [r2, #0]
#endif /* DATA_CACHE_ENABLE */

#if (PREFETCH_ENABLE != 0U)
  __HAL_FLASH_PREFETCH_BUFFER_ENABLE();
 8002b18:	4b08      	ldr	r3, [pc, #32]	; (8002b3c <HAL_Init+0x40>)
 8002b1a:	681b      	ldr	r3, [r3, #0]
 8002b1c:	4a07      	ldr	r2, [pc, #28]	; (8002b3c <HAL_Init+0x40>)
 8002b1e:	f443 7380 	orr.w	r3, r3, #256	; 0x100
 8002b22:	6013      	str	r3, [r2, #0]
#endif /* PREFETCH_ENABLE */

  /* Set Interrupt Group Priority */
  HAL_NVIC_SetPriorityGrouping(NVIC_PRIORITYGROUP_4);
 8002b24:	2003      	movs	r0, #3
 8002b26:	f000 fa4b 	bl	8002fc0 <HAL_NVIC_SetPriorityGrouping>

  /* Use systick as time base source and configure 1ms tick (default clock after Reset is HSI) */
  HAL_InitTick(TICK_INT_PRIORITY);
 8002b2a:	200f      	movs	r0, #15
 8002b2c:	f000 f808 	bl	8002b40 <HAL_InitTick>

  /* Init the low level hardware */
  HAL_MspInit();
 8002b30:	f7ff fbf2 	bl	8002318 <HAL_MspInit>

  /* Return function status */
  return HAL_OK;
 8002b34:	2300      	movs	r3, #0
}
 8002b36:	4618      	mov	r0, r3
 8002b38:	bd80      	pop	{r7, pc}
 8002b3a:	bf00      	nop
 8002b3c:	40023c00 	.word	0x40023c00

08002b40 <HAL_InitTick>:
  *       implementation  in user file.
  * @param TickPriority Tick interrupt priority.
  * @retval HAL status
  */
__weak HAL_StatusTypeDef HAL_InitTick(uint32_t TickPriority)
{
 8002b40:	b580      	push	{r7, lr}
 8002b42:	b082      	sub	sp, #8
 8002b44:	af00      	add	r7, sp, #0
 8002b46:	6078      	str	r0, [r7, #4]
  /* Configure the SysTick to have interrupt in 1ms time basis*/
  if (HAL_SYSTICK_Config(SystemCoreClock / (1000U / uwTickFreq)) > 0U)
 8002b48:	4b12      	ldr	r3, [pc, #72]	; (8002b94 <HAL_InitTick+0x54>)
 8002b4a:	681a      	ldr	r2, [r3, #0]
 8002b4c:	4b12      	ldr	r3, [pc, #72]	; (8002b98 <HAL_InitTick+0x58>)
 8002b4e:	781b      	ldrb	r3, [r3, #0]
 8002b50:	4619      	mov	r1, r3
 8002b52:	f44f 737a 	mov.w	r3, #1000	; 0x3e8
 8002b56:	fbb3 f3f1 	udiv	r3, r3, r1
 8002b5a:	fbb2 f3f3 	udiv	r3, r2, r3
 8002b5e:	4618      	mov	r0, r3
 8002b60:	f000 fa63 	bl	800302a <HAL_SYSTICK_Config>
 8002b64:	4603      	mov	r3, r0
 8002b66:	2b00      	cmp	r3, #0
 8002b68:	d001      	beq.n	8002b6e <HAL_InitTick+0x2e>
  {
    return HAL_ERROR;
 8002b6a:	2301      	movs	r3, #1
 8002b6c:	e00e      	b.n	8002b8c <HAL_InitTick+0x4c>
  }

  /* Configure the SysTick IRQ priority */
  if (TickPriority < (1UL << __NVIC_PRIO_BITS))
 8002b6e:	687b      	ldr	r3, [r7, #4]
 8002b70:	2b0f      	cmp	r3, #15
 8002b72:	d80a      	bhi.n	8002b8a <HAL_InitTick+0x4a>
  {
    HAL_NVIC_SetPriority(SysTick_IRQn, TickPriority, 0U);
 8002b74:	2200      	movs	r2, #0
 8002b76:	6879      	ldr	r1, [r7, #4]
 8002b78:	f04f 30ff 	mov.w	r0, #4294967295	; 0xffffffff
 8002b7c:	f000 fa2b 	bl	8002fd6 <HAL_NVIC_SetPriority>
    uwTickPrio = TickPriority;
 8002b80:	4a06      	ldr	r2, [pc, #24]	; (8002b9c <HAL_InitTick+0x5c>)
 8002b82:	687b      	ldr	r3, [r7, #4]
 8002b84:	6013      	str	r3, [r2, #0]
  {
    return HAL_ERROR;
  }

  /* Return function status */
  return HAL_OK;
 8002b86:	2300      	movs	r3, #0
 8002b88:	e000      	b.n	8002b8c <HAL_InitTick+0x4c>
    return HAL_ERROR;
 8002b8a:	2301      	movs	r3, #1
}
 8002b8c:	4618      	mov	r0, r3
 8002b8e:	3708      	adds	r7, #8
 8002b90:	46bd      	mov	sp, r7
 8002b92:	bd80      	pop	{r7, pc}
 8002b94:	2000001c 	.word	0x2000001c
 8002b98:	20000024 	.word	0x20000024
 8002b9c:	20000020 	.word	0x20000020

08002ba0 <HAL_IncTick>:
 * @note This function is declared as __weak to be overwritten in case of other 
  *      implementations in user file.
  * @retval None
  */
__weak void HAL_IncTick(void)
{
 8002ba0:	b480      	push	{r7}
 8002ba2:	af00      	add	r7, sp, #0
  uwTick += uwTickFreq;
 8002ba4:	4b06      	ldr	r3, [pc, #24]	; (8002bc0 <HAL_IncTick+0x20>)
 8002ba6:	781b      	ldrb	r3, [r3, #0]
 8002ba8:	461a      	mov	r2, r3
 8002baa:	4b06      	ldr	r3, [pc, #24]	; (8002bc4 <HAL_IncTick+0x24>)
 8002bac:	681b      	ldr	r3, [r3, #0]
 8002bae:	4413      	add	r3, r2
 8002bb0:	4a04      	ldr	r2, [pc, #16]	; (8002bc4 <HAL_IncTick+0x24>)
 8002bb2:	6013      	str	r3, [r2, #0]
}
 8002bb4:	bf00      	nop
 8002bb6:	46bd      	mov	sp, r7
 8002bb8:	f85d 7b04 	ldr.w	r7, [sp], #4
 8002bbc:	4770      	bx	lr
 8002bbe:	bf00      	nop
 8002bc0:	20000024 	.word	0x20000024
 8002bc4:	20000604 	.word	0x20000604

08002bc8 <HAL_GetTick>:
  * @note This function is declared as __weak to be overwritten in case of other 
  *       implementations in user file.
  * @retval tick value
  */
__weak uint32_t HAL_GetTick(void)
{
 8002bc8:	b480      	push	{r7}
 8002bca:	af00      	add	r7, sp, #0
  return uwTick;
 8002bcc:	4b03      	ldr	r3, [pc, #12]	; (8002bdc <HAL_GetTick+0x14>)
 8002bce:	681b      	ldr	r3, [r3, #0]
}
 8002bd0:	4618      	mov	r0, r3
 8002bd2:	46bd      	mov	sp, r7
 8002bd4:	f85d 7b04 	ldr.w	r7, [sp], #4
 8002bd8:	4770      	bx	lr
 8002bda:	bf00      	nop
 8002bdc:	20000604 	.word	0x20000604

08002be0 <HAL_Delay>:
  *       implementations in user file.
  * @param Delay specifies the delay time length, in milliseconds.
  * @retval None
  */
__weak void HAL_Delay(uint32_t Delay)
{
 8002be0:	b580      	push	{r7, lr}
 8002be2:	b084      	sub	sp, #16
 8002be4:	af00      	add	r7, sp, #0
 8002be6:	6078      	str	r0, [r7, #4]
  uint32_t tickstart = HAL_GetTick();
 8002be8:	f7ff ffee 	bl	8002bc8 <HAL_GetTick>
 8002bec:	60b8      	str	r0, [r7, #8]
  uint32_t wait = Delay;
 8002bee:	687b      	ldr	r3, [r7, #4]
 8002bf0:	60fb      	str	r3, [r7, #12]

  /* Add a freq to guarantee minimum wait */
  if (wait < HAL_MAX_DELAY)
 8002bf2:	68fb      	ldr	r3, [r7, #12]
 8002bf4:	f1b3 3fff 	cmp.w	r3, #4294967295	; 0xffffffff
 8002bf8:	d005      	beq.n	8002c06 <HAL_Delay+0x26>
  {
    wait += (uint32_t)(uwTickFreq);
 8002bfa:	4b0a      	ldr	r3, [pc, #40]	; (8002c24 <HAL_Delay+0x44>)
 8002bfc:	781b      	ldrb	r3, [r3, #0]
 8002bfe:	461a      	mov	r2, r3
 8002c00:	68fb      	ldr	r3, [r7, #12]
 8002c02:	4413      	add	r3, r2
 8002c04:	60fb      	str	r3, [r7, #12]
  }

  while((HAL_GetTick() - tickstart) < wait)
 8002c06:	bf00      	nop
 8002c08:	f7ff ffde 	bl	8002bc8 <HAL_GetTick>
 8002c0c:	4602      	mov	r2, r0
 8002c0e:	68bb      	ldr	r3, [r7, #8]
 8002c10:	1ad3      	subs	r3, r2, r3
 8002c12:	68fa      	ldr	r2, [r7, #12]
 8002c14:	429a      	cmp	r2, r3
 8002c16:	d8f7      	bhi.n	8002c08 <HAL_Delay+0x28>
  {
  }
}
 8002c18:	bf00      	nop
 8002c1a:	bf00      	nop
 8002c1c:	3710      	adds	r7, #16
 8002c1e:	46bd      	mov	sp, r7
 8002c20:	bd80      	pop	{r7, pc}
 8002c22:	bf00      	nop
 8002c24:	20000024 	.word	0x20000024

08002c28 <HAL_CAN_Init>:
  * @param  hcan pointer to a CAN_HandleTypeDef structure that contains
  *         the configuration information for the specified CAN.
  * @retval HAL status
  */
HAL_StatusTypeDef HAL_CAN_Init(CAN_HandleTypeDef *hcan)
{
 8002c28:	b580      	push	{r7, lr}
 8002c2a:	b084      	sub	sp, #16
 8002c2c:	af00      	add	r7, sp, #0
 8002c2e:	6078      	str	r0, [r7, #4]
  uint32_t tickstart;

  /* Check CAN handle */
  if (hcan == NULL)
 8002c30:	687b      	ldr	r3, [r7, #4]
 8002c32:	2b00      	cmp	r3, #0
 8002c34:	d101      	bne.n	8002c3a <HAL_CAN_Init+0x12>
  {
    return HAL_ERROR;
 8002c36:	2301      	movs	r3, #1
 8002c38:	e0ed      	b.n	8002e16 <HAL_CAN_Init+0x1ee>
    /* Init the low level hardware: CLOCK, NVIC */
    hcan->MspInitCallback(hcan);
  }

#else
  if (hcan->State == HAL_CAN_STATE_RESET)
 8002c3a:	687b      	ldr	r3, [r7, #4]
 8002c3c:	f893 3020 	ldrb.w	r3, [r3, #32]
 8002c40:	b2db      	uxtb	r3, r3
 8002c42:	2b00      	cmp	r3, #0
 8002c44:	d102      	bne.n	8002c4c <HAL_CAN_Init+0x24>
  {
    /* Init the low level hardware: CLOCK, NVIC */
    HAL_CAN_MspInit(hcan);
 8002c46:	6878      	ldr	r0, [r7, #4]
 8002c48:	f7ff fb8e 	bl	8002368 <HAL_CAN_MspInit>
  }
#endif /* USE_HAL_CAN_REGISTER_CALLBACKS */

  /* Request initialisation */
  SET_BIT(hcan->Instance->MCR, CAN_MCR_INRQ);
 8002c4c:	687b      	ldr	r3, [r7, #4]
 8002c4e:	681b      	ldr	r3, [r3, #0]
 8002c50:	681a      	ldr	r2, [r3, #0]
 8002c52:	687b      	ldr	r3, [r7, #4]
 8002c54:	681b      	ldr	r3, [r3, #0]
 8002c56:	f042 0201 	orr.w	r2, r2, #1
 8002c5a:	601a      	str	r2, [r3, #0]

  /* Get tick */
  tickstart = HAL_GetTick();
 8002c5c:	f7ff ffb4 	bl	8002bc8 <HAL_GetTick>
 8002c60:	60f8      	str	r0, [r7, #12]

  /* Wait initialisation acknowledge */
  while ((hcan->Instance->MSR & CAN_MSR_INAK) == 0U)
 8002c62:	e012      	b.n	8002c8a <HAL_CAN_Init+0x62>
  {
    if ((HAL_GetTick() - tickstart) > CAN_TIMEOUT_VALUE)
 8002c64:	f7ff ffb0 	bl	8002bc8 <HAL_GetTick>
 8002c68:	4602      	mov	r2, r0
 8002c6a:	68fb      	ldr	r3, [r7, #12]
 8002c6c:	1ad3      	subs	r3, r2, r3
 8002c6e:	2b0a      	cmp	r3, #10
 8002c70:	d90b      	bls.n	8002c8a <HAL_CAN_Init+0x62>
    {
      /* Update error code */
      hcan->ErrorCode |= HAL_CAN_ERROR_TIMEOUT;
 8002c72:	687b      	ldr	r3, [r7, #4]
 8002c74:	6a5b      	ldr	r3, [r3, #36]	; 0x24
 8002c76:	f443 3200 	orr.w	r2, r3, #131072	; 0x20000
 8002c7a:	687b      	ldr	r3, [r7, #4]
 8002c7c:	625a      	str	r2, [r3, #36]	; 0x24

      /* Change CAN state */
      hcan->State = HAL_CAN_STATE_ERROR;
 8002c7e:	687b      	ldr	r3, [r7, #4]
 8002c80:	2205      	movs	r2, #5
 8002c82:	f883 2020 	strb.w	r2, [r3, #32]

      return HAL_ERROR;
 8002c86:	2301      	movs	r3, #1
 8002c88:	e0c5      	b.n	8002e16 <HAL_CAN_Init+0x1ee>
  while ((hcan->Instance->MSR & CAN_MSR_INAK) == 0U)
 8002c8a:	687b      	ldr	r3, [r7, #4]
 8002c8c:	681b      	ldr	r3, [r3, #0]
 8002c8e:	685b      	ldr	r3, [r3, #4]
 8002c90:	f003 0301 	and.w	r3, r3, #1
 8002c94:	2b00      	cmp	r3, #0
 8002c96:	d0e5      	beq.n	8002c64 <HAL_CAN_Init+0x3c>
    }
  }

  /* Exit from sleep mode */
  CLEAR_BIT(hcan->Instance->MCR, CAN_MCR_SLEEP);
 8002c98:	687b      	ldr	r3, [r7, #4]
 8002c9a:	681b      	ldr	r3, [r3, #0]
 8002c9c:	681a      	ldr	r2, [r3, #0]
 8002c9e:	687b      	ldr	r3, [r7, #4]
 8002ca0:	681b      	ldr	r3, [r3, #0]
 8002ca2:	f022 0202 	bic.w	r2, r2, #2
 8002ca6:	601a      	str	r2, [r3, #0]

  /* Get tick */
  tickstart = HAL_GetTick();
 8002ca8:	f7ff ff8e 	bl	8002bc8 <HAL_GetTick>
 8002cac:	60f8      	str	r0, [r7, #12]

  /* Check Sleep mode leave acknowledge */
  while ((hcan->Instance->MSR & CAN_MSR_SLAK) != 0U)
 8002cae:	e012      	b.n	8002cd6 <HAL_CAN_Init+0xae>
  {
    if ((HAL_GetTick() - tickstart) > CAN_TIMEOUT_VALUE)
 8002cb0:	f7ff ff8a 	bl	8002bc8 <HAL_GetTick>
 8002cb4:	4602      	mov	r2, r0
 8002cb6:	68fb      	ldr	r3, [r7, #12]
 8002cb8:	1ad3      	subs	r3, r2, r3
 8002cba:	2b0a      	cmp	r3, #10
 8002cbc:	d90b      	bls.n	8002cd6 <HAL_CAN_Init+0xae>
    {
      /* Update error code */
      hcan->ErrorCode |= HAL_CAN_ERROR_TIMEOUT;
 8002cbe:	687b      	ldr	r3, [r7, #4]
 8002cc0:	6a5b      	ldr	r3, [r3, #36]	; 0x24
 8002cc2:	f443 3200 	orr.w	r2, r3, #131072	; 0x20000
 8002cc6:	687b      	ldr	r3, [r7, #4]
 8002cc8:	625a      	str	r2, [r3, #36]	; 0x24

      /* Change CAN state */
      hcan->State = HAL_CAN_STATE_ERROR;
 8002cca:	687b      	ldr	r3, [r7, #4]
 8002ccc:	2205      	movs	r2, #5
 8002cce:	f883 2020 	strb.w	r2, [r3, #32]

      return HAL_ERROR;
 8002cd2:	2301      	movs	r3, #1
 8002cd4:	e09f      	b.n	8002e16 <HAL_CAN_Init+0x1ee>
  while ((hcan->Instance->MSR & CAN_MSR_SLAK) != 0U)
 8002cd6:	687b      	ldr	r3, [r7, #4]
 8002cd8:	681b      	ldr	r3, [r3, #0]
 8002cda:	685b      	ldr	r3, [r3, #4]
 8002cdc:	f003 0302 	and.w	r3, r3, #2
 8002ce0:	2b00      	cmp	r3, #0
 8002ce2:	d1e5      	bne.n	8002cb0 <HAL_CAN_Init+0x88>
    }
  }

  /* Set the time triggered communication mode */
  if (hcan->Init.TimeTriggeredMode == ENABLE)
 8002ce4:	687b      	ldr	r3, [r7, #4]
 8002ce6:	7e1b      	ldrb	r3, [r3, #24]
 8002ce8:	2b01      	cmp	r3, #1
 8002cea:	d108      	bne.n	8002cfe <HAL_CAN_Init+0xd6>
  {
    SET_BIT(hcan->Instance->MCR, CAN_MCR_TTCM);
 8002cec:	687b      	ldr	r3, [r7, #4]
 8002cee:	681b      	ldr	r3, [r3, #0]
 8002cf0:	681a      	ldr	r2, [r3, #0]
 8002cf2:	687b      	ldr	r3, [r7, #4]
 8002cf4:	681b      	ldr	r3, [r3, #0]
 8002cf6:	f042 0280 	orr.w	r2, r2, #128	; 0x80
 8002cfa:	601a      	str	r2, [r3, #0]
 8002cfc:	e007      	b.n	8002d0e <HAL_CAN_Init+0xe6>
  }
  else
  {
    CLEAR_BIT(hcan->Instance->MCR, CAN_MCR_TTCM);
 8002cfe:	687b      	ldr	r3, [r7, #4]
 8002d00:	681b      	ldr	r3, [r3, #0]
 8002d02:	681a      	ldr	r2, [r3, #0]
 8002d04:	687b      	ldr	r3, [r7, #4]
 8002d06:	681b      	ldr	r3, [r3, #0]
 8002d08:	f022 0280 	bic.w	r2, r2, #128	; 0x80
 8002d0c:	601a      	str	r2, [r3, #0]
  }

  /* Set the automatic bus-off management */
  if (hcan->Init.AutoBusOff == ENABLE)
 8002d0e:	687b      	ldr	r3, [r7, #4]
 8002d10:	7e5b      	ldrb	r3, [r3, #25]
 8002d12:	2b01      	cmp	r3, #1
 8002d14:	d108      	bne.n	8002d28 <HAL_CAN_Init+0x100>
  {
    SET_BIT(hcan->Instance->MCR, CAN_MCR_ABOM);
 8002d16:	687b      	ldr	r3, [r7, #4]
 8002d18:	681b      	ldr	r3, [r3, #0]
 8002d1a:	681a      	ldr	r2, [r3, #0]
 8002d1c:	687b      	ldr	r3, [r7, #4]
 8002d1e:	681b      	ldr	r3, [r3, #0]
 8002d20:	f042 0240 	orr.w	r2, r2, #64	; 0x40
 8002d24:	601a      	str	r2, [r3, #0]
 8002d26:	e007      	b.n	8002d38 <HAL_CAN_Init+0x110>
  }
  else
  {
    CLEAR_BIT(hcan->Instance->MCR, CAN_MCR_ABOM);
 8002d28:	687b      	ldr	r3, [r7, #4]
 8002d2a:	681b      	ldr	r3, [r3, #0]
 8002d2c:	681a      	ldr	r2, [r3, #0]
 8002d2e:	687b      	ldr	r3, [r7, #4]
 8002d30:	681b      	ldr	r3, [r3, #0]
 8002d32:	f022 0240 	bic.w	r2, r2, #64	; 0x40
 8002d36:	601a      	str	r2, [r3, #0]
  }

  /* Set the automatic wake-up mode */
  if (hcan->Init.AutoWakeUp == ENABLE)
 8002d38:	687b      	ldr	r3, [r7, #4]
 8002d3a:	7e9b      	ldrb	r3, [r3, #26]
 8002d3c:	2b01      	cmp	r3, #1
 8002d3e:	d108      	bne.n	8002d52 <HAL_CAN_Init+0x12a>
  {
    SET_BIT(hcan->Instance->MCR, CAN_MCR_AWUM);
 8002d40:	687b      	ldr	r3, [r7, #4]
 8002d42:	681b      	ldr	r3, [r3, #0]
 8002d44:	681a      	ldr	r2, [r3, #0]
 8002d46:	687b      	ldr	r3, [r7, #4]
 8002d48:	681b      	ldr	r3, [r3, #0]
 8002d4a:	f042 0220 	orr.w	r2, r2, #32
 8002d4e:	601a      	str	r2, [r3, #0]
 8002d50:	e007      	b.n	8002d62 <HAL_CAN_Init+0x13a>
  }
  else
  {
    CLEAR_BIT(hcan->Instance->MCR, CAN_MCR_AWUM);
 8002d52:	687b      	ldr	r3, [r7, #4]
 8002d54:	681b      	ldr	r3, [r3, #0]
 8002d56:	681a      	ldr	r2, [r3, #0]
 8002d58:	687b      	ldr	r3, [r7, #4]
 8002d5a:	681b      	ldr	r3, [r3, #0]
 8002d5c:	f022 0220 	bic.w	r2, r2, #32
 8002d60:	601a      	str	r2, [r3, #0]
  }

  /* Set the automatic retransmission */
  if (hcan->Init.AutoRetransmission == ENABLE)
 8002d62:	687b      	ldr	r3, [r7, #4]
 8002d64:	7edb      	ldrb	r3, [r3, #27]
 8002d66:	2b01      	cmp	r3, #1
 8002d68:	d108      	bne.n	8002d7c <HAL_CAN_Init+0x154>
  {
    CLEAR_BIT(hcan->Instance->MCR, CAN_MCR_NART);
 8002d6a:	687b      	ldr	r3, [r7, #4]
 8002d6c:	681b      	ldr	r3, [r3, #0]
 8002d6e:	681a      	ldr	r2, [r3, #0]
 8002d70:	687b      	ldr	r3, [r7, #4]
 8002d72:	681b      	ldr	r3, [r3, #0]
 8002d74:	f022 0210 	bic.w	r2, r2, #16
 8002d78:	601a      	str	r2, [r3, #0]
 8002d7a:	e007      	b.n	8002d8c <HAL_CAN_Init+0x164>
  }
  else
  {
    SET_BIT(hcan->Instance->MCR, CAN_MCR_NART);
 8002d7c:	687b      	ldr	r3, [r7, #4]
 8002d7e:	681b      	ldr	r3, [r3, #0]
 8002d80:	681a      	ldr	r2, [r3, #0]
 8002d82:	687b      	ldr	r3, [r7, #4]
 8002d84:	681b      	ldr	r3, [r3, #0]
 8002d86:	f042 0210 	orr.w	r2, r2, #16
 8002d8a:	601a      	str	r2, [r3, #0]
  }

  /* Set the receive FIFO locked mode */
  if (hcan->Init.ReceiveFifoLocked == ENABLE)
 8002d8c:	687b      	ldr	r3, [r7, #4]
 8002d8e:	7f1b      	ldrb	r3, [r3, #28]
 8002d90:	2b01      	cmp	r3, #1
 8002d92:	d108      	bne.n	8002da6 <HAL_CAN_Init+0x17e>
  {
    SET_BIT(hcan->Instance->MCR, CAN_MCR_RFLM);
 8002d94:	687b      	ldr	r3, [r7, #4]
 8002d96:	681b      	ldr	r3, [r3, #0]
 8002d98:	681a      	ldr	r2, [r3, #0]
 8002d9a:	687b      	ldr	r3, [r7, #4]
 8002d9c:	681b      	ldr	r3, [r3, #0]
 8002d9e:	f042 0208 	orr.w	r2, r2, #8
 8002da2:	601a      	str	r2, [r3, #0]
 8002da4:	e007      	b.n	8002db6 <HAL_CAN_Init+0x18e>
  }
  else
  {
    CLEAR_BIT(hcan->Instance->MCR, CAN_MCR_RFLM);
 8002da6:	687b      	ldr	r3, [r7, #4]
 8002da8:	681b      	ldr	r3, [r3, #0]
 8002daa:	681a      	ldr	r2, [r3, #0]
 8002dac:	687b      	ldr	r3, [r7, #4]
 8002dae:	681b      	ldr	r3, [r3, #0]
 8002db0:	f022 0208 	bic.w	r2, r2, #8
 8002db4:	601a      	str	r2, [r3, #0]
  }

  /* Set the transmit FIFO priority */
  if (hcan->Init.TransmitFifoPriority == ENABLE)
 8002db6:	687b      	ldr	r3, [r7, #4]
 8002db8:	7f5b      	ldrb	r3, [r3, #29]
 8002dba:	2b01      	cmp	r3, #1
 8002dbc:	d108      	bne.n	8002dd0 <HAL_CAN_Init+0x1a8>
  {
    SET_BIT(hcan->Instance->MCR, CAN_MCR_TXFP);
 8002dbe:	687b      	ldr	r3, [r7, #4]
 8002dc0:	681b      	ldr	r3, [r3, #0]
 8002dc2:	681a      	ldr	r2, [r3, #0]
 8002dc4:	687b      	ldr	r3, [r7, #4]
 8002dc6:	681b      	ldr	r3, [r3, #0]
 8002dc8:	f042 0204 	orr.w	r2, r2, #4
 8002dcc:	601a      	str	r2, [r3, #0]
 8002dce:	e007      	b.n	8002de0 <HAL_CAN_Init+0x1b8>
  }
  else
  {
    CLEAR_BIT(hcan->Instance->MCR, CAN_MCR_TXFP);
 8002dd0:	687b      	ldr	r3, [r7, #4]
 8002dd2:	681b      	ldr	r3, [r3, #0]
 8002dd4:	681a      	ldr	r2, [r3, #0]
 8002dd6:	687b      	ldr	r3, [r7, #4]
 8002dd8:	681b      	ldr	r3, [r3, #0]
 8002dda:	f022 0204 	bic.w	r2, r2, #4
 8002dde:	601a      	str	r2, [r3, #0]
  }

  /* Set the bit timing register */
  WRITE_REG(hcan->Instance->BTR, (uint32_t)(hcan->Init.Mode           |
 8002de0:	687b      	ldr	r3, [r7, #4]
 8002de2:	689a      	ldr	r2, [r3, #8]
 8002de4:	687b      	ldr	r3, [r7, #4]
 8002de6:	68db      	ldr	r3, [r3, #12]
 8002de8:	431a      	orrs	r2, r3
 8002dea:	687b      	ldr	r3, [r7, #4]
 8002dec:	691b      	ldr	r3, [r3, #16]
 8002dee:	431a      	orrs	r2, r3
 8002df0:	687b      	ldr	r3, [r7, #4]
 8002df2:	695b      	ldr	r3, [r3, #20]
 8002df4:	ea42 0103 	orr.w	r1, r2, r3
 8002df8:	687b      	ldr	r3, [r7, #4]
 8002dfa:	685b      	ldr	r3, [r3, #4]
 8002dfc:	1e5a      	subs	r2, r3, #1
 8002dfe:	687b      	ldr	r3, [r7, #4]
 8002e00:	681b      	ldr	r3, [r3, #0]
 8002e02:	430a      	orrs	r2, r1
 8002e04:	61da      	str	r2, [r3, #28]
                                            hcan->Init.TimeSeg1       |
                                            hcan->Init.TimeSeg2       |
                                            (hcan->Init.Prescaler - 1U)));

  /* Initialize the error code */
  hcan->ErrorCode = HAL_CAN_ERROR_NONE;
 8002e06:	687b      	ldr	r3, [r7, #4]
 8002e08:	2200      	movs	r2, #0
 8002e0a:	625a      	str	r2, [r3, #36]	; 0x24

  /* Initialize the CAN state */
  hcan->State = HAL_CAN_STATE_READY;
 8002e0c:	687b      	ldr	r3, [r7, #4]
 8002e0e:	2201      	movs	r2, #1
 8002e10:	f883 2020 	strb.w	r2, [r3, #32]

  /* Return function status */
  return HAL_OK;
 8002e14:	2300      	movs	r3, #0
}
 8002e16:	4618      	mov	r0, r3
 8002e18:	3710      	adds	r7, #16
 8002e1a:	46bd      	mov	sp, r7
 8002e1c:	bd80      	pop	{r7, pc}
	...

08002e20 <__NVIC_SetPriorityGrouping>:
           In case of a conflict between priority grouping and available
           priority bits (__NVIC_PRIO_BITS), the smallest possible priority group is set.
  \param [in]      PriorityGroup  Priority grouping field.
 */
__STATIC_INLINE void __NVIC_SetPriorityGrouping(uint32_t PriorityGroup)
{
 8002e20:	b480      	push	{r7}
 8002e22:	b085      	sub	sp, #20
 8002e24:	af00      	add	r7, sp, #0
 8002e26:	6078      	str	r0, [r7, #4]
  uint32_t reg_value;
  uint32_t PriorityGroupTmp = (PriorityGroup & (uint32_t)0x07UL);             /* only values 0..7 are used          */
 8002e28:	687b      	ldr	r3, [r7, #4]
 8002e2a:	f003 0307 	and.w	r3, r3, #7
 8002e2e:	60fb      	str	r3, [r7, #12]

  reg_value  =  SCB->AIRCR;                                                   /* read old register configuration    */
 8002e30:	4b0c      	ldr	r3, [pc, #48]	; (8002e64 <__NVIC_SetPriorityGrouping+0x44>)
 8002e32:	68db      	ldr	r3, [r3, #12]
 8002e34:	60bb      	str	r3, [r7, #8]
  reg_value &= ~((uint32_t)(SCB_AIRCR_VECTKEY_Msk | SCB_AIRCR_PRIGROUP_Msk)); /* clear bits to change               */
 8002e36:	68ba      	ldr	r2, [r7, #8]
 8002e38:	f64f 03ff 	movw	r3, #63743	; 0xf8ff
 8002e3c:	4013      	ands	r3, r2
 8002e3e:	60bb      	str	r3, [r7, #8]
  reg_value  =  (reg_value                                   |
                ((uint32_t)0x5FAUL << SCB_AIRCR_VECTKEY_Pos) |
                (PriorityGroupTmp << SCB_AIRCR_PRIGROUP_Pos)  );              /* Insert write key and priority group */
 8002e40:	68fb      	ldr	r3, [r7, #12]
 8002e42:	021a      	lsls	r2, r3, #8
                ((uint32_t)0x5FAUL << SCB_AIRCR_VECTKEY_Pos) |
 8002e44:	68bb      	ldr	r3, [r7, #8]
 8002e46:	4313      	orrs	r3, r2
  reg_value  =  (reg_value                                   |
 8002e48:	f043 63bf 	orr.w	r3, r3, #100139008	; 0x5f80000
 8002e4c:	f443 3300 	orr.w	r3, r3, #131072	; 0x20000
 8002e50:	60bb      	str	r3, [r7, #8]
  SCB->AIRCR =  reg_value;
 8002e52:	4a04      	ldr	r2, [pc, #16]	; (8002e64 <__NVIC_SetPriorityGrouping+0x44>)
 8002e54:	68bb      	ldr	r3, [r7, #8]
 8002e56:	60d3      	str	r3, [r2, #12]
}
 8002e58:	bf00      	nop
 8002e5a:	3714      	adds	r7, #20
 8002e5c:	46bd      	mov	sp, r7
 8002e5e:	f85d 7b04 	ldr.w	r7, [sp], #4
 8002e62:	4770      	bx	lr
 8002e64:	e000ed00 	.word	0xe000ed00

08002e68 <__NVIC_GetPriorityGrouping>:
  \brief   Get Priority Grouping
  \details Reads the priority grouping field from the NVIC Interrupt Controller.
  \return                Priority grouping field (SCB->AIRCR [10:8] PRIGROUP field).
 */
__STATIC_INLINE uint32_t __NVIC_GetPriorityGrouping(void)
{
 8002e68:	b480      	push	{r7}
 8002e6a:	af00      	add	r7, sp, #0
  return ((uint32_t)((SCB->AIRCR & SCB_AIRCR_PRIGROUP_Msk) >> SCB_AIRCR_PRIGROUP_Pos));
 8002e6c:	4b04      	ldr	r3, [pc, #16]	; (8002e80 <__NVIC_GetPriorityGrouping+0x18>)
 8002e6e:	68db      	ldr	r3, [r3, #12]
 8002e70:	0a1b      	lsrs	r3, r3, #8
 8002e72:	f003 0307 	and.w	r3, r3, #7
}
 8002e76:	4618      	mov	r0, r3
 8002e78:	46bd      	mov	sp, r7
 8002e7a:	f85d 7b04 	ldr.w	r7, [sp], #4
 8002e7e:	4770      	bx	lr
 8002e80:	e000ed00 	.word	0xe000ed00

08002e84 <__NVIC_EnableIRQ>:
  \details Enables a device specific interrupt in the NVIC interrupt controller.
  \param [in]      IRQn  Device specific interrupt number.
  \note    IRQn must not be negative.
 */
__STATIC_INLINE void __NVIC_EnableIRQ(IRQn_Type IRQn)
{
 8002e84:	b480      	push	{r7}
 8002e86:	b083      	sub	sp, #12
 8002e88:	af00      	add	r7, sp, #0
 8002e8a:	4603      	mov	r3, r0
 8002e8c:	71fb      	strb	r3, [r7, #7]
  if ((int32_t)(IRQn) >= 0)
 8002e8e:	f997 3007 	ldrsb.w	r3, [r7, #7]
 8002e92:	2b00      	cmp	r3, #0
 8002e94:	db0b      	blt.n	8002eae <__NVIC_EnableIRQ+0x2a>
  {
    __COMPILER_BARRIER();
    NVIC->ISER[(((uint32_t)IRQn) >> 5UL)] = (uint32_t)(1UL << (((uint32_t)IRQn) & 0x1FUL));
 8002e96:	79fb      	ldrb	r3, [r7, #7]
 8002e98:	f003 021f 	and.w	r2, r3, #31
 8002e9c:	4907      	ldr	r1, [pc, #28]	; (8002ebc <__NVIC_EnableIRQ+0x38>)
 8002e9e:	f997 3007 	ldrsb.w	r3, [r7, #7]
 8002ea2:	095b      	lsrs	r3, r3, #5
 8002ea4:	2001      	movs	r0, #1
 8002ea6:	fa00 f202 	lsl.w	r2, r0, r2
 8002eaa:	f841 2023 	str.w	r2, [r1, r3, lsl #2]
    __COMPILER_BARRIER();
  }
}
 8002eae:	bf00      	nop
 8002eb0:	370c      	adds	r7, #12
 8002eb2:	46bd      	mov	sp, r7
 8002eb4:	f85d 7b04 	ldr.w	r7, [sp], #4
 8002eb8:	4770      	bx	lr
 8002eba:	bf00      	nop
 8002ebc:	e000e100 	.word	0xe000e100

08002ec0 <__NVIC_SetPriority>:
  \param [in]      IRQn  Interrupt number.
  \param [in]  priority  Priority to set.
  \note    The priority cannot be set for every processor exception.
 */
__STATIC_INLINE void __NVIC_SetPriority(IRQn_Type IRQn, uint32_t priority)
{
 8002ec0:	b480      	push	{r7}
 8002ec2:	b083      	sub	sp, #12
 8002ec4:	af00      	add	r7, sp, #0
 8002ec6:	4603      	mov	r3, r0
 8002ec8:	6039      	str	r1, [r7, #0]
 8002eca:	71fb      	strb	r3, [r7, #7]
  if ((int32_t)(IRQn) >= 0)
 8002ecc:	f997 3007 	ldrsb.w	r3, [r7, #7]
 8002ed0:	2b00      	cmp	r3, #0
 8002ed2:	db0a      	blt.n	8002eea <__NVIC_SetPriority+0x2a>
  {
    NVIC->IP[((uint32_t)IRQn)]               = (uint8_t)((priority << (8U - __NVIC_PRIO_BITS)) & (uint32_t)0xFFUL);
 8002ed4:	683b      	ldr	r3, [r7, #0]
 8002ed6:	b2da      	uxtb	r2, r3
 8002ed8:	490c      	ldr	r1, [pc, #48]	; (8002f0c <__NVIC_SetPriority+0x4c>)
 8002eda:	f997 3007 	ldrsb.w	r3, [r7, #7]
 8002ede:	0112      	lsls	r2, r2, #4
 8002ee0:	b2d2      	uxtb	r2, r2
 8002ee2:	440b      	add	r3, r1
 8002ee4:	f883 2300 	strb.w	r2, [r3, #768]	; 0x300
  }
  else
  {
    SCB->SHP[(((uint32_t)IRQn) & 0xFUL)-4UL] = (uint8_t)((priority << (8U - __NVIC_PRIO_BITS)) & (uint32_t)0xFFUL);
  }
}
 8002ee8:	e00a      	b.n	8002f00 <__NVIC_SetPriority+0x40>
    SCB->SHP[(((uint32_t)IRQn) & 0xFUL)-4UL] = (uint8_t)((priority << (8U - __NVIC_PRIO_BITS)) & (uint32_t)0xFFUL);
 8002eea:	683b      	ldr	r3, [r7, #0]
 8002eec:	b2da      	uxtb	r2, r3
 8002eee:	4908      	ldr	r1, [pc, #32]	; (8002f10 <__NVIC_SetPriority+0x50>)
 8002ef0:	79fb      	ldrb	r3, [r7, #7]
 8002ef2:	f003 030f 	and.w	r3, r3, #15
 8002ef6:	3b04      	subs	r3, #4
 8002ef8:	0112      	lsls	r2, r2, #4
 8002efa:	b2d2      	uxtb	r2, r2
 8002efc:	440b      	add	r3, r1
 8002efe:	761a      	strb	r2, [r3, #24]
}
 8002f00:	bf00      	nop
 8002f02:	370c      	adds	r7, #12
 8002f04:	46bd      	mov	sp, r7
 8002f06:	f85d 7b04 	ldr.w	r7, [sp], #4
 8002f0a:	4770      	bx	lr
 8002f0c:	e000e100 	.word	0xe000e100
 8002f10:	e000ed00 	.word	0xe000ed00

08002f14 <NVIC_EncodePriority>:
  \param [in]   PreemptPriority  Preemptive priority value (starting from 0).
  \param [in]       SubPriority  Subpriority value (starting from 0).
  \return                        Encoded priority. Value can be used in the function \ref NVIC_SetPriority().
 */
__STATIC_INLINE uint32_t NVIC_EncodePriority (uint32_t PriorityGroup, uint32_t PreemptPriority, uint32_t SubPriority)
{
 8002f14:	b480      	push	{r7}
 8002f16:	b089      	sub	sp, #36	; 0x24
 8002f18:	af00      	add	r7, sp, #0
 8002f1a:	60f8      	str	r0, [r7, #12]
 8002f1c:	60b9      	str	r1, [r7, #8]
 8002f1e:	607a      	str	r2, [r7, #4]
  uint32_t PriorityGroupTmp = (PriorityGroup & (uint32_t)0x07UL);   /* only values 0..7 are used          */
 8002f20:	68fb      	ldr	r3, [r7, #12]
 8002f22:	f003 0307 	and.w	r3, r3, #7
 8002f26:	61fb      	str	r3, [r7, #28]
  uint32_t PreemptPriorityBits;
  uint32_t SubPriorityBits;

  PreemptPriorityBits = ((7UL - PriorityGroupTmp) > (uint32_t)(__NVIC_PRIO_BITS)) ? (uint32_t)(__NVIC_PRIO_BITS) : (uint32_t)(7UL - PriorityGroupTmp);
 8002f28:	69fb      	ldr	r3, [r7, #28]
 8002f2a:	f1c3 0307 	rsb	r3, r3, #7
 8002f2e:	2b04      	cmp	r3, #4
 8002f30:	bf28      	it	cs
 8002f32:	2304      	movcs	r3, #4
 8002f34:	61bb      	str	r3, [r7, #24]
  SubPriorityBits     = ((PriorityGroupTmp + (uint32_t)(__NVIC_PRIO_BITS)) < (uint32_t)7UL) ? (uint32_t)0UL : (uint32_t)((PriorityGroupTmp - 7UL) + (uint32_t)(__NVIC_PRIO_BITS));
 8002f36:	69fb      	ldr	r3, [r7, #28]
 8002f38:	3304      	adds	r3, #4
 8002f3a:	2b06      	cmp	r3, #6
 8002f3c:	d902      	bls.n	8002f44 <NVIC_EncodePriority+0x30>
 8002f3e:	69fb      	ldr	r3, [r7, #28]
 8002f40:	3b03      	subs	r3, #3
 8002f42:	e000      	b.n	8002f46 <NVIC_EncodePriority+0x32>
 8002f44:	2300      	movs	r3, #0
 8002f46:	617b      	str	r3, [r7, #20]

  return (
           ((PreemptPriority & (uint32_t)((1UL << (PreemptPriorityBits)) - 1UL)) << SubPriorityBits) |
 8002f48:	f04f 32ff 	mov.w	r2, #4294967295	; 0xffffffff
 8002f4c:	69bb      	ldr	r3, [r7, #24]
 8002f4e:	fa02 f303 	lsl.w	r3, r2, r3
 8002f52:	43da      	mvns	r2, r3
 8002f54:	68bb      	ldr	r3, [r7, #8]
 8002f56:	401a      	ands	r2, r3
 8002f58:	697b      	ldr	r3, [r7, #20]
 8002f5a:	409a      	lsls	r2, r3
           ((SubPriority     & (uint32_t)((1UL << (SubPriorityBits    )) - 1UL)))
 8002f5c:	f04f 31ff 	mov.w	r1, #4294967295	; 0xffffffff
 8002f60:	697b      	ldr	r3, [r7, #20]
 8002f62:	fa01 f303 	lsl.w	r3, r1, r3
 8002f66:	43d9      	mvns	r1, r3
 8002f68:	687b      	ldr	r3, [r7, #4]
 8002f6a:	400b      	ands	r3, r1
           ((PreemptPriority & (uint32_t)((1UL << (PreemptPriorityBits)) - 1UL)) << SubPriorityBits) |
 8002f6c:	4313      	orrs	r3, r2
         );
}
 8002f6e:	4618      	mov	r0, r3
 8002f70:	3724      	adds	r7, #36	; 0x24
 8002f72:	46bd      	mov	sp, r7
 8002f74:	f85d 7b04 	ldr.w	r7, [sp], #4
 8002f78:	4770      	bx	lr
	...

08002f7c <SysTick_Config>:
  \note    When the variable <b>__Vendor_SysTickConfig</b> is set to 1, then the
           function <b>SysTick_Config</b> is not included. In this case, the file <b><i>device</i>.h</b>
           must contain a vendor-specific implementation of this function.
 */
__STATIC_INLINE uint32_t SysTick_Config(uint32_t ticks)
{
 8002f7c:	b580      	push	{r7, lr}
 8002f7e:	b082      	sub	sp, #8
 8002f80:	af00      	add	r7, sp, #0
 8002f82:	6078      	str	r0, [r7, #4]
  if ((ticks - 1UL) > SysTick_LOAD_RELOAD_Msk)
 8002f84:	687b      	ldr	r3, [r7, #4]
 8002f86:	3b01      	subs	r3, #1
 8002f88:	f1b3 7f80 	cmp.w	r3, #16777216	; 0x1000000
 8002f8c:	d301      	bcc.n	8002f92 <SysTick_Config+0x16>
  {
    return (1UL);                                                   /* Reload value impossible */
 8002f8e:	2301      	movs	r3, #1
 8002f90:	e00f      	b.n	8002fb2 <SysTick_Config+0x36>
  }

  SysTick->LOAD  = (uint32_t)(ticks - 1UL);                         /* set reload register */
 8002f92:	4a0a      	ldr	r2, [pc, #40]	; (8002fbc <SysTick_Config+0x40>)
 8002f94:	687b      	ldr	r3, [r7, #4]
 8002f96:	3b01      	subs	r3, #1
 8002f98:	6053      	str	r3, [r2, #4]
  NVIC_SetPriority (SysTick_IRQn, (1UL << __NVIC_PRIO_BITS) - 1UL); /* set Priority for Systick Interrupt */
 8002f9a:	210f      	movs	r1, #15
 8002f9c:	f04f 30ff 	mov.w	r0, #4294967295	; 0xffffffff
 8002fa0:	f7ff ff8e 	bl	8002ec0 <__NVIC_SetPriority>
  SysTick->VAL   = 0UL;                                             /* Load the SysTick Counter Value */
 8002fa4:	4b05      	ldr	r3, [pc, #20]	; (8002fbc <SysTick_Config+0x40>)
 8002fa6:	2200      	movs	r2, #0
 8002fa8:	609a      	str	r2, [r3, #8]
  SysTick->CTRL  = SysTick_CTRL_CLKSOURCE_Msk |
 8002faa:	4b04      	ldr	r3, [pc, #16]	; (8002fbc <SysTick_Config+0x40>)
 8002fac:	2207      	movs	r2, #7
 8002fae:	601a      	str	r2, [r3, #0]
                   SysTick_CTRL_TICKINT_Msk   |
                   SysTick_CTRL_ENABLE_Msk;                         /* Enable SysTick IRQ and SysTick Timer */
  return (0UL);                                                     /* Function successful */
 8002fb0:	2300      	movs	r3, #0
}
 8002fb2:	4618      	mov	r0, r3
 8002fb4:	3708      	adds	r7, #8
 8002fb6:	46bd      	mov	sp, r7
 8002fb8:	bd80      	pop	{r7, pc}
 8002fba:	bf00      	nop
 8002fbc:	e000e010 	.word	0xe000e010

08002fc0 <HAL_NVIC_SetPriorityGrouping>:
  * @note   When the NVIC_PriorityGroup_0 is selected, IRQ preemption is no more possible. 
  *         The pending IRQ priority will be managed only by the subpriority. 
  * @retval None
  */
void HAL_NVIC_SetPriorityGrouping(uint32_t PriorityGroup)
{
 8002fc0:	b580      	push	{r7, lr}
 8002fc2:	b082      	sub	sp, #8
 8002fc4:	af00      	add	r7, sp, #0
 8002fc6:	6078      	str	r0, [r7, #4]
  /* Check the parameters */
  assert_param(IS_NVIC_PRIORITY_GROUP(PriorityGroup));
  
  /* Set the PRIGROUP[10:8] bits according to the PriorityGroup parameter value */
  NVIC_SetPriorityGrouping(PriorityGroup);
 8002fc8:	6878      	ldr	r0, [r7, #4]
 8002fca:	f7ff ff29 	bl	8002e20 <__NVIC_SetPriorityGrouping>
}
 8002fce:	bf00      	nop
 8002fd0:	3708      	adds	r7, #8
 8002fd2:	46bd      	mov	sp, r7
 8002fd4:	bd80      	pop	{r7, pc}

08002fd6 <HAL_NVIC_SetPriority>:
  *         This parameter can be a value between 0 and 15
  *         A lower priority value indicates a higher priority.          
  * @retval None
  */
void HAL_NVIC_SetPriority(IRQn_Type IRQn, uint32_t PreemptPriority, uint32_t SubPriority)
{ 
 8002fd6:	b580      	push	{r7, lr}
 8002fd8:	b086      	sub	sp, #24
 8002fda:	af00      	add	r7, sp, #0
 8002fdc:	4603      	mov	r3, r0
 8002fde:	60b9      	str	r1, [r7, #8]
 8002fe0:	607a      	str	r2, [r7, #4]
 8002fe2:	73fb      	strb	r3, [r7, #15]
  uint32_t prioritygroup = 0x00U;
 8002fe4:	2300      	movs	r3, #0
 8002fe6:	617b      	str	r3, [r7, #20]
  
  /* Check the parameters */
  assert_param(IS_NVIC_SUB_PRIORITY(SubPriority));
  assert_param(IS_NVIC_PREEMPTION_PRIORITY(PreemptPriority));
  
  prioritygroup = NVIC_GetPriorityGrouping();
 8002fe8:	f7ff ff3e 	bl	8002e68 <__NVIC_GetPriorityGrouping>
 8002fec:	6178      	str	r0, [r7, #20]
  
  NVIC_SetPriority(IRQn, NVIC_EncodePriority(prioritygroup, PreemptPriority, SubPriority));
 8002fee:	687a      	ldr	r2, [r7, #4]
 8002ff0:	68b9      	ldr	r1, [r7, #8]
 8002ff2:	6978      	ldr	r0, [r7, #20]
 8002ff4:	f7ff ff8e 	bl	8002f14 <NVIC_EncodePriority>
 8002ff8:	4602      	mov	r2, r0
 8002ffa:	f997 300f 	ldrsb.w	r3, [r7, #15]
 8002ffe:	4611      	mov	r1, r2
 8003000:	4618      	mov	r0, r3
 8003002:	f7ff ff5d 	bl	8002ec0 <__NVIC_SetPriority>
}
 8003006:	bf00      	nop
 8003008:	3718      	adds	r7, #24
 800300a:	46bd      	mov	sp, r7
 800300c:	bd80      	pop	{r7, pc}

0800300e <HAL_NVIC_EnableIRQ>:
  *         This parameter can be an enumerator of IRQn_Type enumeration
  *         (For the complete STM32 Devices IRQ Channels list, please refer to the appropriate CMSIS device file (stm32f4xxxx.h))
  * @retval None
  */
void HAL_NVIC_EnableIRQ(IRQn_Type IRQn)
{
 800300e:	b580      	push	{r7, lr}
 8003010:	b082      	sub	sp, #8
 8003012:	af00      	add	r7, sp, #0
 8003014:	4603      	mov	r3, r0
 8003016:	71fb      	strb	r3, [r7, #7]
  /* Check the parameters */
  assert_param(IS_NVIC_DEVICE_IRQ(IRQn));
  
  /* Enable interrupt */
  NVIC_EnableIRQ(IRQn);
 8003018:	f997 3007 	ldrsb.w	r3, [r7, #7]
 800301c:	4618      	mov	r0, r3
 800301e:	f7ff ff31 	bl	8002e84 <__NVIC_EnableIRQ>
}
 8003022:	bf00      	nop
 8003024:	3708      	adds	r7, #8
 8003026:	46bd      	mov	sp, r7
 8003028:	bd80      	pop	{r7, pc}

0800302a <HAL_SYSTICK_Config>:
  * @param  TicksNumb Specifies the ticks Number of ticks between two interrupts.
  * @retval status:  - 0  Function succeeded.
  *                  - 1  Function failed.
  */
uint32_t HAL_SYSTICK_Config(uint32_t TicksNumb)
{
 800302a:	b580      	push	{r7, lr}
 800302c:	b082      	sub	sp, #8
 800302e:	af00      	add	r7, sp, #0
 8003030:	6078      	str	r0, [r7, #4]
   return SysTick_Config(TicksNumb);
 8003032:	6878      	ldr	r0, [r7, #4]
 8003034:	f7ff ffa2 	bl	8002f7c <SysTick_Config>
 8003038:	4603      	mov	r3, r0
}
 800303a:	4618      	mov	r0, r3
 800303c:	3708      	adds	r7, #8
 800303e:	46bd      	mov	sp, r7
 8003040:	bd80      	pop	{r7, pc}
	...

08003044 <HAL_DMA_Init>:
  * @param  hdma Pointer to a DMA_HandleTypeDef structure that contains
  *               the configuration information for the specified DMA Stream.  
  * @retval HAL status
  */
HAL_StatusTypeDef HAL_DMA_Init(DMA_HandleTypeDef *hdma)
{
 8003044:	b580      	push	{r7, lr}
 8003046:	b086      	sub	sp, #24
 8003048:	af00      	add	r7, sp, #0
 800304a:	6078      	str	r0, [r7, #4]
  uint32_t tmp = 0U;
 800304c:	2300      	movs	r3, #0
 800304e:	617b      	str	r3, [r7, #20]
  uint32_t tickstart = HAL_GetTick();
 8003050:	f7ff fdba 	bl	8002bc8 <HAL_GetTick>
 8003054:	6138      	str	r0, [r7, #16]
  DMA_Base_Registers *regs;

  /* Check the DMA peripheral state */
  if(hdma == NULL)
 8003056:	687b      	ldr	r3, [r7, #4]
 8003058:	2b00      	cmp	r3, #0
 800305a:	d101      	bne.n	8003060 <HAL_DMA_Init+0x1c>
  {
    return HAL_ERROR;
 800305c:	2301      	movs	r3, #1
 800305e:	e099      	b.n	8003194 <HAL_DMA_Init+0x150>
    assert_param(IS_DMA_MEMORY_BURST(hdma->Init.MemBurst));
    assert_param(IS_DMA_PERIPHERAL_BURST(hdma->Init.PeriphBurst));
  }

  /* Change DMA peripheral state */
  hdma->State = HAL_DMA_STATE_BUSY;
 8003060:	687b      	ldr	r3, [r7, #4]
 8003062:	2202      	movs	r2, #2
 8003064:	f883 2035 	strb.w	r2, [r3, #53]	; 0x35

  /* Allocate lock resource */
  __HAL_UNLOCK(hdma);
 8003068:	687b      	ldr	r3, [r7, #4]
 800306a:	2200      	movs	r2, #0
 800306c:	f883 2034 	strb.w	r2, [r3, #52]	; 0x34
  
  /* Disable the peripheral */
  __HAL_DMA_DISABLE(hdma);
 8003070:	687b      	ldr	r3, [r7, #4]
 8003072:	681b      	ldr	r3, [r3, #0]
 8003074:	681a      	ldr	r2, [r3, #0]
 8003076:	687b      	ldr	r3, [r7, #4]
 8003078:	681b      	ldr	r3, [r3, #0]
 800307a:	f022 0201 	bic.w	r2, r2, #1
 800307e:	601a      	str	r2, [r3, #0]
  
  /* Check if the DMA Stream is effectively disabled */
  while((hdma->Instance->CR & DMA_SxCR_EN) != RESET)
 8003080:	e00f      	b.n	80030a2 <HAL_DMA_Init+0x5e>
  {
    /* Check for the Timeout */
    if((HAL_GetTick() - tickstart ) > HAL_TIMEOUT_DMA_ABORT)
 8003082:	f7ff fda1 	bl	8002bc8 <HAL_GetTick>
 8003086:	4602      	mov	r2, r0
 8003088:	693b      	ldr	r3, [r7, #16]
 800308a:	1ad3      	subs	r3, r2, r3
 800308c:	2b05      	cmp	r3, #5
 800308e:	d908      	bls.n	80030a2 <HAL_DMA_Init+0x5e>
    {
      /* Update error code */
      hdma->ErrorCode = HAL_DMA_ERROR_TIMEOUT;
 8003090:	687b      	ldr	r3, [r7, #4]
 8003092:	2220      	movs	r2, #32
 8003094:	655a      	str	r2, [r3, #84]	; 0x54
      
      /* Change the DMA state */
      hdma->State = HAL_DMA_STATE_TIMEOUT;
 8003096:	687b      	ldr	r3, [r7, #4]
 8003098:	2203      	movs	r2, #3
 800309a:	f883 2035 	strb.w	r2, [r3, #53]	; 0x35
      
      return HAL_TIMEOUT;
 800309e:	2303      	movs	r3, #3
 80030a0:	e078      	b.n	8003194 <HAL_DMA_Init+0x150>
  while((hdma->Instance->CR & DMA_SxCR_EN) != RESET)
 80030a2:	687b      	ldr	r3, [r7, #4]
 80030a4:	681b      	ldr	r3, [r3, #0]
 80030a6:	681b      	ldr	r3, [r3, #0]
 80030a8:	f003 0301 	and.w	r3, r3, #1
 80030ac:	2b00      	cmp	r3, #0
 80030ae:	d1e8      	bne.n	8003082 <HAL_DMA_Init+0x3e>
    }
  }
  
  /* Get the CR register value */
  tmp = hdma->Instance->CR;
 80030b0:	687b      	ldr	r3, [r7, #4]
 80030b2:	681b      	ldr	r3, [r3, #0]
 80030b4:	681b      	ldr	r3, [r3, #0]
 80030b6:	617b      	str	r3, [r7, #20]

  /* Clear CHSEL, MBURST, PBURST, PL, MSIZE, PSIZE, MINC, PINC, CIRC, DIR, CT and DBM bits */
  tmp &= ((uint32_t)~(DMA_SxCR_CHSEL | DMA_SxCR_MBURST | DMA_SxCR_PBURST | \
 80030b8:	697a      	ldr	r2, [r7, #20]
 80030ba:	4b38      	ldr	r3, [pc, #224]	; (800319c <HAL_DMA_Init+0x158>)
 80030bc:	4013      	ands	r3, r2
 80030be:	617b      	str	r3, [r7, #20]
                      DMA_SxCR_PL    | DMA_SxCR_MSIZE  | DMA_SxCR_PSIZE  | \
                      DMA_SxCR_MINC  | DMA_SxCR_PINC   | DMA_SxCR_CIRC   | \
                      DMA_SxCR_DIR   | DMA_SxCR_CT     | DMA_SxCR_DBM));

  /* Prepare the DMA Stream configuration */
  tmp |=  hdma->Init.Channel             | hdma->Init.Direction        |
 80030c0:	687b      	ldr	r3, [r7, #4]
 80030c2:	685a      	ldr	r2, [r3, #4]
 80030c4:	687b      	ldr	r3, [r7, #4]
 80030c6:	689b      	ldr	r3, [r3, #8]
 80030c8:	431a      	orrs	r2, r3
          hdma->Init.PeriphInc           | hdma->Init.MemInc           |
 80030ca:	687b      	ldr	r3, [r7, #4]
 80030cc:	68db      	ldr	r3, [r3, #12]
  tmp |=  hdma->Init.Channel             | hdma->Init.Direction        |
 80030ce:	431a      	orrs	r2, r3
          hdma->Init.PeriphInc           | hdma->Init.MemInc           |
 80030d0:	687b      	ldr	r3, [r7, #4]
 80030d2:	691b      	ldr	r3, [r3, #16]
 80030d4:	431a      	orrs	r2, r3
          hdma->Init.PeriphDataAlignment | hdma->Init.MemDataAlignment |
 80030d6:	687b      	ldr	r3, [r7, #4]
 80030d8:	695b      	ldr	r3, [r3, #20]
          hdma->Init.PeriphInc           | hdma->Init.MemInc           |
 80030da:	431a      	orrs	r2, r3
          hdma->Init.PeriphDataAlignment | hdma->Init.MemDataAlignment |
 80030dc:	687b      	ldr	r3, [r7, #4]
 80030de:	699b      	ldr	r3, [r3, #24]
 80030e0:	431a      	orrs	r2, r3
          hdma->Init.Mode                | hdma->Init.Priority;
 80030e2:	687b      	ldr	r3, [r7, #4]
 80030e4:	69db      	ldr	r3, [r3, #28]
          hdma->Init.PeriphDataAlignment | hdma->Init.MemDataAlignment |
 80030e6:	431a      	orrs	r2, r3
          hdma->Init.Mode                | hdma->Init.Priority;
 80030e8:	687b      	ldr	r3, [r7, #4]
 80030ea:	6a1b      	ldr	r3, [r3, #32]
 80030ec:	4313      	orrs	r3, r2
  tmp |=  hdma->Init.Channel             | hdma->Init.Direction        |
 80030ee:	697a      	ldr	r2, [r7, #20]
 80030f0:	4313      	orrs	r3, r2
 80030f2:	617b      	str	r3, [r7, #20]

  /* the Memory burst and peripheral burst are not used when the FIFO is disabled */
  if(hdma->Init.FIFOMode == DMA_FIFOMODE_ENABLE)
 80030f4:	687b      	ldr	r3, [r7, #4]
 80030f6:	6a5b      	ldr	r3, [r3, #36]	; 0x24
 80030f8:	2b04      	cmp	r3, #4
 80030fa:	d107      	bne.n	800310c <HAL_DMA_Init+0xc8>
  {
    /* Get memory burst and peripheral burst */
    tmp |=  hdma->Init.MemBurst | hdma->Init.PeriphBurst;
 80030fc:	687b      	ldr	r3, [r7, #4]
 80030fe:	6ada      	ldr	r2, [r3, #44]	; 0x2c
 8003100:	687b      	ldr	r3, [r7, #4]
 8003102:	6b1b      	ldr	r3, [r3, #48]	; 0x30
 8003104:	4313      	orrs	r3, r2
 8003106:	697a      	ldr	r2, [r7, #20]
 8003108:	4313      	orrs	r3, r2
 800310a:	617b      	str	r3, [r7, #20]
  }
  
  /* Write to DMA Stream CR register */
  hdma->Instance->CR = tmp;  
 800310c:	687b      	ldr	r3, [r7, #4]
 800310e:	681b      	ldr	r3, [r3, #0]
 8003110:	697a      	ldr	r2, [r7, #20]
 8003112:	601a      	str	r2, [r3, #0]

  /* Get the FCR register value */
  tmp = hdma->Instance->FCR;
 8003114:	687b      	ldr	r3, [r7, #4]
 8003116:	681b      	ldr	r3, [r3, #0]
 8003118:	695b      	ldr	r3, [r3, #20]
 800311a:	617b      	str	r3, [r7, #20]

  /* Clear Direct mode and FIFO threshold bits */
  tmp &= (uint32_t)~(DMA_SxFCR_DMDIS | DMA_SxFCR_FTH);
 800311c:	697b      	ldr	r3, [r7, #20]
 800311e:	f023 0307 	bic.w	r3, r3, #7
 8003122:	617b      	str	r3, [r7, #20]

  /* Prepare the DMA Stream FIFO configuration */
  tmp |= hdma->Init.FIFOMode;
 8003124:	687b      	ldr	r3, [r7, #4]
 8003126:	6a5b      	ldr	r3, [r3, #36]	; 0x24
 8003128:	697a      	ldr	r2, [r7, #20]
 800312a:	4313      	orrs	r3, r2
 800312c:	617b      	str	r3, [r7, #20]

  /* The FIFO threshold is not used when the FIFO mode is disabled */
  if(hdma->Init.FIFOMode == DMA_FIFOMODE_ENABLE)
 800312e:	687b      	ldr	r3, [r7, #4]
 8003130:	6a5b      	ldr	r3, [r3, #36]	; 0x24
 8003132:	2b04      	cmp	r3, #4
 8003134:	d117      	bne.n	8003166 <HAL_DMA_Init+0x122>
  {
    /* Get the FIFO threshold */
    tmp |= hdma->Init.FIFOThreshold;
 8003136:	687b      	ldr	r3, [r7, #4]
 8003138:	6a9b      	ldr	r3, [r3, #40]	; 0x28
 800313a:	697a      	ldr	r2, [r7, #20]
 800313c:	4313      	orrs	r3, r2
 800313e:	617b      	str	r3, [r7, #20]
    
    /* Check compatibility between FIFO threshold level and size of the memory burst */
    /* for INCR4, INCR8, INCR16 bursts */
    if (hdma->Init.MemBurst != DMA_MBURST_SINGLE)
 8003140:	687b      	ldr	r3, [r7, #4]
 8003142:	6adb      	ldr	r3, [r3, #44]	; 0x2c
 8003144:	2b00      	cmp	r3, #0
 8003146:	d00e      	beq.n	8003166 <HAL_DMA_Init+0x122>
    {
      if (DMA_CheckFifoParam(hdma) != HAL_OK)
 8003148:	6878      	ldr	r0, [r7, #4]
 800314a:	f000 fb01 	bl	8003750 <DMA_CheckFifoParam>
 800314e:	4603      	mov	r3, r0
 8003150:	2b00      	cmp	r3, #0
 8003152:	d008      	beq.n	8003166 <HAL_DMA_Init+0x122>
      {
        /* Update error code */
        hdma->ErrorCode = HAL_DMA_ERROR_PARAM;
 8003154:	687b      	ldr	r3, [r7, #4]
 8003156:	2240      	movs	r2, #64	; 0x40
 8003158:	655a      	str	r2, [r3, #84]	; 0x54
        
        /* Change the DMA state */
        hdma->State = HAL_DMA_STATE_READY;
 800315a:	687b      	ldr	r3, [r7, #4]
 800315c:	2201      	movs	r2, #1
 800315e:	f883 2035 	strb.w	r2, [r3, #53]	; 0x35
        
        return HAL_ERROR; 
 8003162:	2301      	movs	r3, #1
 8003164:	e016      	b.n	8003194 <HAL_DMA_Init+0x150>
      }
    }
  }
  
  /* Write to DMA Stream FCR */
  hdma->Instance->FCR = tmp;
 8003166:	687b      	ldr	r3, [r7, #4]
 8003168:	681b      	ldr	r3, [r3, #0]
 800316a:	697a      	ldr	r2, [r7, #20]
 800316c:	615a      	str	r2, [r3, #20]

  /* Initialize StreamBaseAddress and StreamIndex parameters to be used to calculate
     DMA steam Base Address needed by HAL_DMA_IRQHandler() and HAL_DMA_PollForTransfer() */
  regs = (DMA_Base_Registers *)DMA_CalcBaseAndBitshift(hdma);
 800316e:	6878      	ldr	r0, [r7, #4]
 8003170:	f000 fab8 	bl	80036e4 <DMA_CalcBaseAndBitshift>
 8003174:	4603      	mov	r3, r0
 8003176:	60fb      	str	r3, [r7, #12]
  
  /* Clear all interrupt flags */
  regs->IFCR = 0x3FU << hdma->StreamIndex;
 8003178:	687b      	ldr	r3, [r7, #4]
 800317a:	6ddb      	ldr	r3, [r3, #92]	; 0x5c
 800317c:	223f      	movs	r2, #63	; 0x3f
 800317e:	409a      	lsls	r2, r3
 8003180:	68fb      	ldr	r3, [r7, #12]
 8003182:	609a      	str	r2, [r3, #8]

  /* Initialize the error code */
  hdma->ErrorCode = HAL_DMA_ERROR_NONE;
 8003184:	687b      	ldr	r3, [r7, #4]
 8003186:	2200      	movs	r2, #0
 8003188:	655a      	str	r2, [r3, #84]	; 0x54
                                                                                     
  /* Initialize the DMA state */
  hdma->State = HAL_DMA_STATE_READY;
 800318a:	687b      	ldr	r3, [r7, #4]
 800318c:	2201      	movs	r2, #1
 800318e:	f883 2035 	strb.w	r2, [r3, #53]	; 0x35

  return HAL_OK;
 8003192:	2300      	movs	r3, #0
}
 8003194:	4618      	mov	r0, r3
 8003196:	3718      	adds	r7, #24
 8003198:	46bd      	mov	sp, r7
 800319a:	bd80      	pop	{r7, pc}
 800319c:	f010803f 	.word	0xf010803f

080031a0 <HAL_DMA_Start_IT>:
  * @param  DstAddress The destination memory Buffer address
  * @param  DataLength The length of data to be transferred from source to destination
  * @retval HAL status
  */
HAL_StatusTypeDef HAL_DMA_Start_IT(DMA_HandleTypeDef *hdma, uint32_t SrcAddress, uint32_t DstAddress, uint32_t DataLength)
{
 80031a0:	b580      	push	{r7, lr}
 80031a2:	b086      	sub	sp, #24
 80031a4:	af00      	add	r7, sp, #0
 80031a6:	60f8      	str	r0, [r7, #12]
 80031a8:	60b9      	str	r1, [r7, #8]
 80031aa:	607a      	str	r2, [r7, #4]
 80031ac:	603b      	str	r3, [r7, #0]
  HAL_StatusTypeDef status = HAL_OK;
 80031ae:	2300      	movs	r3, #0
 80031b0:	75fb      	strb	r3, [r7, #23]

  /* calculate DMA base and stream number */
  DMA_Base_Registers *regs = (DMA_Base_Registers *)hdma->StreamBaseAddress;
 80031b2:	68fb      	ldr	r3, [r7, #12]
 80031b4:	6d9b      	ldr	r3, [r3, #88]	; 0x58
 80031b6:	613b      	str	r3, [r7, #16]
  
  /* Check the parameters */
  assert_param(IS_DMA_BUFFER_SIZE(DataLength));
 
  /* Process locked */
  __HAL_LOCK(hdma);
 80031b8:	68fb      	ldr	r3, [r7, #12]
 80031ba:	f893 3034 	ldrb.w	r3, [r3, #52]	; 0x34
 80031be:	2b01      	cmp	r3, #1
 80031c0:	d101      	bne.n	80031c6 <HAL_DMA_Start_IT+0x26>
 80031c2:	2302      	movs	r3, #2
 80031c4:	e040      	b.n	8003248 <HAL_DMA_Start_IT+0xa8>
 80031c6:	68fb      	ldr	r3, [r7, #12]
 80031c8:	2201      	movs	r2, #1
 80031ca:	f883 2034 	strb.w	r2, [r3, #52]	; 0x34
  
  if(HAL_DMA_STATE_READY == hdma->State)
 80031ce:	68fb      	ldr	r3, [r7, #12]
 80031d0:	f893 3035 	ldrb.w	r3, [r3, #53]	; 0x35
 80031d4:	b2db      	uxtb	r3, r3
 80031d6:	2b01      	cmp	r3, #1
 80031d8:	d12f      	bne.n	800323a <HAL_DMA_Start_IT+0x9a>
  {
    /* Change DMA peripheral state */
    hdma->State = HAL_DMA_STATE_BUSY;
 80031da:	68fb      	ldr	r3, [r7, #12]
 80031dc:	2202      	movs	r2, #2
 80031de:	f883 2035 	strb.w	r2, [r3, #53]	; 0x35
    
    /* Initialize the error code */
    hdma->ErrorCode = HAL_DMA_ERROR_NONE;
 80031e2:	68fb      	ldr	r3, [r7, #12]
 80031e4:	2200      	movs	r2, #0
 80031e6:	655a      	str	r2, [r3, #84]	; 0x54
    
    /* Configure the source, destination address and the data length */
    DMA_SetConfig(hdma, SrcAddress, DstAddress, DataLength);
 80031e8:	683b      	ldr	r3, [r7, #0]
 80031ea:	687a      	ldr	r2, [r7, #4]
 80031ec:	68b9      	ldr	r1, [r7, #8]
 80031ee:	68f8      	ldr	r0, [r7, #12]
 80031f0:	f000 fa4a 	bl	8003688 <DMA_SetConfig>
    
    /* Clear all interrupt flags at correct offset within the register */
    regs->IFCR = 0x3FU << hdma->StreamIndex;
 80031f4:	68fb      	ldr	r3, [r7, #12]
 80031f6:	6ddb      	ldr	r3, [r3, #92]	; 0x5c
 80031f8:	223f      	movs	r2, #63	; 0x3f
 80031fa:	409a      	lsls	r2, r3
 80031fc:	693b      	ldr	r3, [r7, #16]
 80031fe:	609a      	str	r2, [r3, #8]
    
    /* Enable Common interrupts*/
    hdma->Instance->CR  |= DMA_IT_TC | DMA_IT_TE | DMA_IT_DME;
 8003200:	68fb      	ldr	r3, [r7, #12]
 8003202:	681b      	ldr	r3, [r3, #0]
 8003204:	681a      	ldr	r2, [r3, #0]
 8003206:	68fb      	ldr	r3, [r7, #12]
 8003208:	681b      	ldr	r3, [r3, #0]
 800320a:	f042 0216 	orr.w	r2, r2, #22
 800320e:	601a      	str	r2, [r3, #0]
    
    if(hdma->XferHalfCpltCallback != NULL)
 8003210:	68fb      	ldr	r3, [r7, #12]
 8003212:	6c1b      	ldr	r3, [r3, #64]	; 0x40
 8003214:	2b00      	cmp	r3, #0
 8003216:	d007      	beq.n	8003228 <HAL_DMA_Start_IT+0x88>
    {
      hdma->Instance->CR  |= DMA_IT_HT;
 8003218:	68fb      	ldr	r3, [r7, #12]
 800321a:	681b      	ldr	r3, [r3, #0]
 800321c:	681a      	ldr	r2, [r3, #0]
 800321e:	68fb      	ldr	r3, [r7, #12]
 8003220:	681b      	ldr	r3, [r3, #0]
 8003222:	f042 0208 	orr.w	r2, r2, #8
 8003226:	601a      	str	r2, [r3, #0]
    }
    
    /* Enable the Peripheral */
    __HAL_DMA_ENABLE(hdma);
 8003228:	68fb      	ldr	r3, [r7, #12]
 800322a:	681b      	ldr	r3, [r3, #0]
 800322c:	681a      	ldr	r2, [r3, #0]
 800322e:	68fb      	ldr	r3, [r7, #12]
 8003230:	681b      	ldr	r3, [r3, #0]
 8003232:	f042 0201 	orr.w	r2, r2, #1
 8003236:	601a      	str	r2, [r3, #0]
 8003238:	e005      	b.n	8003246 <HAL_DMA_Start_IT+0xa6>
  }
  else
  {
    /* Process unlocked */
    __HAL_UNLOCK(hdma);	  
 800323a:	68fb      	ldr	r3, [r7, #12]
 800323c:	2200      	movs	r2, #0
 800323e:	f883 2034 	strb.w	r2, [r3, #52]	; 0x34
    
    /* Return error status */
    status = HAL_BUSY;
 8003242:	2302      	movs	r3, #2
 8003244:	75fb      	strb	r3, [r7, #23]
  }
  
  return status;
 8003246:	7dfb      	ldrb	r3, [r7, #23]
}
 8003248:	4618      	mov	r0, r3
 800324a:	3718      	adds	r7, #24
 800324c:	46bd      	mov	sp, r7
 800324e:	bd80      	pop	{r7, pc}

08003250 <HAL_DMA_Abort>:
  *        and the Stream will be effectively disabled only after the transfer of
  *        this single data is finished.  
  * @retval HAL status
  */
HAL_StatusTypeDef HAL_DMA_Abort(DMA_HandleTypeDef *hdma)
{
 8003250:	b580      	push	{r7, lr}
 8003252:	b084      	sub	sp, #16
 8003254:	af00      	add	r7, sp, #0
 8003256:	6078      	str	r0, [r7, #4]
  /* calculate DMA base and stream number */
  DMA_Base_Registers *regs = (DMA_Base_Registers *)hdma->StreamBaseAddress;
 8003258:	687b      	ldr	r3, [r7, #4]
 800325a:	6d9b      	ldr	r3, [r3, #88]	; 0x58
 800325c:	60fb      	str	r3, [r7, #12]
  
  uint32_t tickstart = HAL_GetTick();
 800325e:	f7ff fcb3 	bl	8002bc8 <HAL_GetTick>
 8003262:	60b8      	str	r0, [r7, #8]
  
  if(hdma->State != HAL_DMA_STATE_BUSY)
 8003264:	687b      	ldr	r3, [r7, #4]
 8003266:	f893 3035 	ldrb.w	r3, [r3, #53]	; 0x35
 800326a:	b2db      	uxtb	r3, r3
 800326c:	2b02      	cmp	r3, #2
 800326e:	d008      	beq.n	8003282 <HAL_DMA_Abort+0x32>
  {
    hdma->ErrorCode = HAL_DMA_ERROR_NO_XFER;
 8003270:	687b      	ldr	r3, [r7, #4]
 8003272:	2280      	movs	r2, #128	; 0x80
 8003274:	655a      	str	r2, [r3, #84]	; 0x54
    
    /* Process Unlocked */
    __HAL_UNLOCK(hdma);
 8003276:	687b      	ldr	r3, [r7, #4]
 8003278:	2200      	movs	r2, #0
 800327a:	f883 2034 	strb.w	r2, [r3, #52]	; 0x34
    
    return HAL_ERROR;
 800327e:	2301      	movs	r3, #1
 8003280:	e052      	b.n	8003328 <HAL_DMA_Abort+0xd8>
  }
  else
  {
    /* Disable all the transfer interrupts */
    hdma->Instance->CR  &= ~(DMA_IT_TC | DMA_IT_TE | DMA_IT_DME);
 8003282:	687b      	ldr	r3, [r7, #4]
 8003284:	681b      	ldr	r3, [r3, #0]
 8003286:	681a      	ldr	r2, [r3, #0]
 8003288:	687b      	ldr	r3, [r7, #4]
 800328a:	681b      	ldr	r3, [r3, #0]
 800328c:	f022 0216 	bic.w	r2, r2, #22
 8003290:	601a      	str	r2, [r3, #0]
    hdma->Instance->FCR &= ~(DMA_IT_FE);
 8003292:	687b      	ldr	r3, [r7, #4]
 8003294:	681b      	ldr	r3, [r3, #0]
 8003296:	695a      	ldr	r2, [r3, #20]
 8003298:	687b      	ldr	r3, [r7, #4]
 800329a:	681b      	ldr	r3, [r3, #0]
 800329c:	f022 0280 	bic.w	r2, r2, #128	; 0x80
 80032a0:	615a      	str	r2, [r3, #20]
    
    if((hdma->XferHalfCpltCallback != NULL) || (hdma->XferM1HalfCpltCallback != NULL))
 80032a2:	687b      	ldr	r3, [r7, #4]
 80032a4:	6c1b      	ldr	r3, [r3, #64]	; 0x40
 80032a6:	2b00      	cmp	r3, #0
 80032a8:	d103      	bne.n	80032b2 <HAL_DMA_Abort+0x62>
 80032aa:	687b      	ldr	r3, [r7, #4]
 80032ac:	6c9b      	ldr	r3, [r3, #72]	; 0x48
 80032ae:	2b00      	cmp	r3, #0
 80032b0:	d007      	beq.n	80032c2 <HAL_DMA_Abort+0x72>
    {
      hdma->Instance->CR  &= ~(DMA_IT_HT);
 80032b2:	687b      	ldr	r3, [r7, #4]
 80032b4:	681b      	ldr	r3, [r3, #0]
 80032b6:	681a      	ldr	r2, [r3, #0]
 80032b8:	687b      	ldr	r3, [r7, #4]
 80032ba:	681b      	ldr	r3, [r3, #0]
 80032bc:	f022 0208 	bic.w	r2, r2, #8
 80032c0:	601a      	str	r2, [r3, #0]
    }
    
    /* Disable the stream */
    __HAL_DMA_DISABLE(hdma);
 80032c2:	687b      	ldr	r3, [r7, #4]
 80032c4:	681b      	ldr	r3, [r3, #0]
 80032c6:	681a      	ldr	r2, [r3, #0]
 80032c8:	687b      	ldr	r3, [r7, #4]
 80032ca:	681b      	ldr	r3, [r3, #0]
 80032cc:	f022 0201 	bic.w	r2, r2, #1
 80032d0:	601a      	str	r2, [r3, #0]
    
    /* Check if the DMA Stream is effectively disabled */
    while((hdma->Instance->CR & DMA_SxCR_EN) != RESET)
 80032d2:	e013      	b.n	80032fc <HAL_DMA_Abort+0xac>
    {
      /* Check for the Timeout */
      if((HAL_GetTick() - tickstart ) > HAL_TIMEOUT_DMA_ABORT)
 80032d4:	f7ff fc78 	bl	8002bc8 <HAL_GetTick>
 80032d8:	4602      	mov	r2, r0
 80032da:	68bb      	ldr	r3, [r7, #8]
 80032dc:	1ad3      	subs	r3, r2, r3
 80032de:	2b05      	cmp	r3, #5
 80032e0:	d90c      	bls.n	80032fc <HAL_DMA_Abort+0xac>
      {
        /* Update error code */
        hdma->ErrorCode = HAL_DMA_ERROR_TIMEOUT;
 80032e2:	687b      	ldr	r3, [r7, #4]
 80032e4:	2220      	movs	r2, #32
 80032e6:	655a      	str	r2, [r3, #84]	; 0x54
        
        /* Change the DMA state */
        hdma->State = HAL_DMA_STATE_TIMEOUT;
 80032e8:	687b      	ldr	r3, [r7, #4]
 80032ea:	2203      	movs	r2, #3
 80032ec:	f883 2035 	strb.w	r2, [r3, #53]	; 0x35
        
        /* Process Unlocked */
        __HAL_UNLOCK(hdma);
 80032f0:	687b      	ldr	r3, [r7, #4]
 80032f2:	2200      	movs	r2, #0
 80032f4:	f883 2034 	strb.w	r2, [r3, #52]	; 0x34
        
        return HAL_TIMEOUT;
 80032f8:	2303      	movs	r3, #3
 80032fa:	e015      	b.n	8003328 <HAL_DMA_Abort+0xd8>
    while((hdma->Instance->CR & DMA_SxCR_EN) != RESET)
 80032fc:	687b      	ldr	r3, [r7, #4]
 80032fe:	681b      	ldr	r3, [r3, #0]
 8003300:	681b      	ldr	r3, [r3, #0]
 8003302:	f003 0301 	and.w	r3, r3, #1
 8003306:	2b00      	cmp	r3, #0
 8003308:	d1e4      	bne.n	80032d4 <HAL_DMA_Abort+0x84>
      }
    }
    
    /* Clear all interrupt flags at correct offset within the register */
    regs->IFCR = 0x3FU << hdma->StreamIndex;
 800330a:	687b      	ldr	r3, [r7, #4]
 800330c:	6ddb      	ldr	r3, [r3, #92]	; 0x5c
 800330e:	223f      	movs	r2, #63	; 0x3f
 8003310:	409a      	lsls	r2, r3
 8003312:	68fb      	ldr	r3, [r7, #12]
 8003314:	609a      	str	r2, [r3, #8]
    
    /* Change the DMA state*/
    hdma->State = HAL_DMA_STATE_READY;
 8003316:	687b      	ldr	r3, [r7, #4]
 8003318:	2201      	movs	r2, #1
 800331a:	f883 2035 	strb.w	r2, [r3, #53]	; 0x35
    
    /* Process Unlocked */
    __HAL_UNLOCK(hdma);
 800331e:	687b      	ldr	r3, [r7, #4]
 8003320:	2200      	movs	r2, #0
 8003322:	f883 2034 	strb.w	r2, [r3, #52]	; 0x34
  }
  return HAL_OK;
 8003326:	2300      	movs	r3, #0
}
 8003328:	4618      	mov	r0, r3
 800332a:	3710      	adds	r7, #16
 800332c:	46bd      	mov	sp, r7
 800332e:	bd80      	pop	{r7, pc}

08003330 <HAL_DMA_Abort_IT>:
  * @param  hdma   pointer to a DMA_HandleTypeDef structure that contains
  *                 the configuration information for the specified DMA Stream.
  * @retval HAL status
  */
HAL_StatusTypeDef HAL_DMA_Abort_IT(DMA_HandleTypeDef *hdma)
{
 8003330:	b480      	push	{r7}
 8003332:	b083      	sub	sp, #12
 8003334:	af00      	add	r7, sp, #0
 8003336:	6078      	str	r0, [r7, #4]
  if(hdma->State != HAL_DMA_STATE_BUSY)
 8003338:	687b      	ldr	r3, [r7, #4]
 800333a:	f893 3035 	ldrb.w	r3, [r3, #53]	; 0x35
 800333e:	b2db      	uxtb	r3, r3
 8003340:	2b02      	cmp	r3, #2
 8003342:	d004      	beq.n	800334e <HAL_DMA_Abort_IT+0x1e>
  {
    hdma->ErrorCode = HAL_DMA_ERROR_NO_XFER;
 8003344:	687b      	ldr	r3, [r7, #4]
 8003346:	2280      	movs	r2, #128	; 0x80
 8003348:	655a      	str	r2, [r3, #84]	; 0x54
    return HAL_ERROR;
 800334a:	2301      	movs	r3, #1
 800334c:	e00c      	b.n	8003368 <HAL_DMA_Abort_IT+0x38>
  }
  else
  {
    /* Set Abort State  */
    hdma->State = HAL_DMA_STATE_ABORT;
 800334e:	687b      	ldr	r3, [r7, #4]
 8003350:	2205      	movs	r2, #5
 8003352:	f883 2035 	strb.w	r2, [r3, #53]	; 0x35
    
    /* Disable the stream */
    __HAL_DMA_DISABLE(hdma);
 8003356:	687b      	ldr	r3, [r7, #4]
 8003358:	681b      	ldr	r3, [r3, #0]
 800335a:	681a      	ldr	r2, [r3, #0]
 800335c:	687b      	ldr	r3, [r7, #4]
 800335e:	681b      	ldr	r3, [r3, #0]
 8003360:	f022 0201 	bic.w	r2, r2, #1
 8003364:	601a      	str	r2, [r3, #0]
  }

  return HAL_OK;
 8003366:	2300      	movs	r3, #0
}
 8003368:	4618      	mov	r0, r3
 800336a:	370c      	adds	r7, #12
 800336c:	46bd      	mov	sp, r7
 800336e:	f85d 7b04 	ldr.w	r7, [sp], #4
 8003372:	4770      	bx	lr

08003374 <HAL_DMA_IRQHandler>:
  * @param  hdma pointer to a DMA_HandleTypeDef structure that contains
  *               the configuration information for the specified DMA Stream.  
  * @retval None
  */
void HAL_DMA_IRQHandler(DMA_HandleTypeDef *hdma)
{
 8003374:	b580      	push	{r7, lr}
 8003376:	b086      	sub	sp, #24
 8003378:	af00      	add	r7, sp, #0
 800337a:	6078      	str	r0, [r7, #4]
  uint32_t tmpisr;
  __IO uint32_t count = 0U;
 800337c:	2300      	movs	r3, #0
 800337e:	60bb      	str	r3, [r7, #8]
  uint32_t timeout = SystemCoreClock / 9600U;
 8003380:	4b8e      	ldr	r3, [pc, #568]	; (80035bc <HAL_DMA_IRQHandler+0x248>)
 8003382:	681b      	ldr	r3, [r3, #0]
 8003384:	4a8e      	ldr	r2, [pc, #568]	; (80035c0 <HAL_DMA_IRQHandler+0x24c>)
 8003386:	fba2 2303 	umull	r2, r3, r2, r3
 800338a:	0a9b      	lsrs	r3, r3, #10
 800338c:	617b      	str	r3, [r7, #20]

  /* calculate DMA base and stream number */
  DMA_Base_Registers *regs = (DMA_Base_Registers *)hdma->StreamBaseAddress;
 800338e:	687b      	ldr	r3, [r7, #4]
 8003390:	6d9b      	ldr	r3, [r3, #88]	; 0x58
 8003392:	613b      	str	r3, [r7, #16]

  tmpisr = regs->ISR;
 8003394:	693b      	ldr	r3, [r7, #16]
 8003396:	681b      	ldr	r3, [r3, #0]
 8003398:	60fb      	str	r3, [r7, #12]

  /* Transfer Error Interrupt management ***************************************/
  if ((tmpisr & (DMA_FLAG_TEIF0_4 << hdma->StreamIndex)) != RESET)
 800339a:	687b      	ldr	r3, [r7, #4]
 800339c:	6ddb      	ldr	r3, [r3, #92]	; 0x5c
 800339e:	2208      	movs	r2, #8
 80033a0:	409a      	lsls	r2, r3
 80033a2:	68fb      	ldr	r3, [r7, #12]
 80033a4:	4013      	ands	r3, r2
 80033a6:	2b00      	cmp	r3, #0
 80033a8:	d01a      	beq.n	80033e0 <HAL_DMA_IRQHandler+0x6c>
  {
    if(__HAL_DMA_GET_IT_SOURCE(hdma, DMA_IT_TE) != RESET)
 80033aa:	687b      	ldr	r3, [r7, #4]
 80033ac:	681b      	ldr	r3, [r3, #0]
 80033ae:	681b      	ldr	r3, [r3, #0]
 80033b0:	f003 0304 	and.w	r3, r3, #4
 80033b4:	2b00      	cmp	r3, #0
 80033b6:	d013      	beq.n	80033e0 <HAL_DMA_IRQHandler+0x6c>
    {
      /* Disable the transfer error interrupt */
      hdma->Instance->CR  &= ~(DMA_IT_TE);
 80033b8:	687b      	ldr	r3, [r7, #4]
 80033ba:	681b      	ldr	r3, [r3, #0]
 80033bc:	681a      	ldr	r2, [r3, #0]
 80033be:	687b      	ldr	r3, [r7, #4]
 80033c0:	681b      	ldr	r3, [r3, #0]
 80033c2:	f022 0204 	bic.w	r2, r2, #4
 80033c6:	601a      	str	r2, [r3, #0]
      
      /* Clear the transfer error flag */
      regs->IFCR = DMA_FLAG_TEIF0_4 << hdma->StreamIndex;
 80033c8:	687b      	ldr	r3, [r7, #4]
 80033ca:	6ddb      	ldr	r3, [r3, #92]	; 0x5c
 80033cc:	2208      	movs	r2, #8
 80033ce:	409a      	lsls	r2, r3
 80033d0:	693b      	ldr	r3, [r7, #16]
 80033d2:	609a      	str	r2, [r3, #8]
      
      /* Update error code */
      hdma->ErrorCode |= HAL_DMA_ERROR_TE;
 80033d4:	687b      	ldr	r3, [r7, #4]
 80033d6:	6d5b      	ldr	r3, [r3, #84]	; 0x54
 80033d8:	f043 0201 	orr.w	r2, r3, #1
 80033dc:	687b      	ldr	r3, [r7, #4]
 80033de:	655a      	str	r2, [r3, #84]	; 0x54
    }
  }
  /* FIFO Error Interrupt management ******************************************/
  if ((tmpisr & (DMA_FLAG_FEIF0_4 << hdma->StreamIndex)) != RESET)
 80033e0:	687b      	ldr	r3, [r7, #4]
 80033e2:	6ddb      	ldr	r3, [r3, #92]	; 0x5c
 80033e4:	2201      	movs	r2, #1
 80033e6:	409a      	lsls	r2, r3
 80033e8:	68fb      	ldr	r3, [r7, #12]
 80033ea:	4013      	ands	r3, r2
 80033ec:	2b00      	cmp	r3, #0
 80033ee:	d012      	beq.n	8003416 <HAL_DMA_IRQHandler+0xa2>
  {
    if(__HAL_DMA_GET_IT_SOURCE(hdma, DMA_IT_FE) != RESET)
 80033f0:	687b      	ldr	r3, [r7, #4]
 80033f2:	681b      	ldr	r3, [r3, #0]
 80033f4:	695b      	ldr	r3, [r3, #20]
 80033f6:	f003 0380 	and.w	r3, r3, #128	; 0x80
 80033fa:	2b00      	cmp	r3, #0
 80033fc:	d00b      	beq.n	8003416 <HAL_DMA_IRQHandler+0xa2>
    {
      /* Clear the FIFO error flag */
      regs->IFCR = DMA_FLAG_FEIF0_4 << hdma->StreamIndex;
 80033fe:	687b      	ldr	r3, [r7, #4]
 8003400:	6ddb      	ldr	r3, [r3, #92]	; 0x5c
 8003402:	2201      	movs	r2, #1
 8003404:	409a      	lsls	r2, r3
 8003406:	693b      	ldr	r3, [r7, #16]
 8003408:	609a      	str	r2, [r3, #8]

      /* Update error code */
      hdma->ErrorCode |= HAL_DMA_ERROR_FE;
 800340a:	687b      	ldr	r3, [r7, #4]
 800340c:	6d5b      	ldr	r3, [r3, #84]	; 0x54
 800340e:	f043 0202 	orr.w	r2, r3, #2
 8003412:	687b      	ldr	r3, [r7, #4]
 8003414:	655a      	str	r2, [r3, #84]	; 0x54
    }
  }
  /* Direct Mode Error Interrupt management ***********************************/
  if ((tmpisr & (DMA_FLAG_DMEIF0_4 << hdma->StreamIndex)) != RESET)
 8003416:	687b      	ldr	r3, [r7, #4]
 8003418:	6ddb      	ldr	r3, [r3, #92]	; 0x5c
 800341a:	2204      	movs	r2, #4
 800341c:	409a      	lsls	r2, r3
 800341e:	68fb      	ldr	r3, [r7, #12]
 8003420:	4013      	ands	r3, r2
 8003422:	2b00      	cmp	r3, #0
 8003424:	d012      	beq.n	800344c <HAL_DMA_IRQHandler+0xd8>
  {
    if(__HAL_DMA_GET_IT_SOURCE(hdma, DMA_IT_DME) != RESET)
 8003426:	687b      	ldr	r3, [r7, #4]
 8003428:	681b      	ldr	r3, [r3, #0]
 800342a:	681b      	ldr	r3, [r3, #0]
 800342c:	f003 0302 	and.w	r3, r3, #2
 8003430:	2b00      	cmp	r3, #0
 8003432:	d00b      	beq.n	800344c <HAL_DMA_IRQHandler+0xd8>
    {
      /* Clear the direct mode error flag */
      regs->IFCR = DMA_FLAG_DMEIF0_4 << hdma->StreamIndex;
 8003434:	687b      	ldr	r3, [r7, #4]
 8003436:	6ddb      	ldr	r3, [r3, #92]	; 0x5c
 8003438:	2204      	movs	r2, #4
 800343a:	409a      	lsls	r2, r3
 800343c:	693b      	ldr	r3, [r7, #16]
 800343e:	609a      	str	r2, [r3, #8]

      /* Update error code */
      hdma->ErrorCode |= HAL_DMA_ERROR_DME;
 8003440:	687b      	ldr	r3, [r7, #4]
 8003442:	6d5b      	ldr	r3, [r3, #84]	; 0x54
 8003444:	f043 0204 	orr.w	r2, r3, #4
 8003448:	687b      	ldr	r3, [r7, #4]
 800344a:	655a      	str	r2, [r3, #84]	; 0x54
    }
  }
  /* Half Transfer Complete Interrupt management ******************************/
  if ((tmpisr & (DMA_FLAG_HTIF0_4 << hdma->StreamIndex)) != RESET)
 800344c:	687b      	ldr	r3, [r7, #4]
 800344e:	6ddb      	ldr	r3, [r3, #92]	; 0x5c
 8003450:	2210      	movs	r2, #16
 8003452:	409a      	lsls	r2, r3
 8003454:	68fb      	ldr	r3, [r7, #12]
 8003456:	4013      	ands	r3, r2
 8003458:	2b00      	cmp	r3, #0
 800345a:	d043      	beq.n	80034e4 <HAL_DMA_IRQHandler+0x170>
  {
    if(__HAL_DMA_GET_IT_SOURCE(hdma, DMA_IT_HT) != RESET)
 800345c:	687b      	ldr	r3, [r7, #4]
 800345e:	681b      	ldr	r3, [r3, #0]
 8003460:	681b      	ldr	r3, [r3, #0]
 8003462:	f003 0308 	and.w	r3, r3, #8
 8003466:	2b00      	cmp	r3, #0
 8003468:	d03c      	beq.n	80034e4 <HAL_DMA_IRQHandler+0x170>
    {
      /* Clear the half transfer complete flag */
      regs->IFCR = DMA_FLAG_HTIF0_4 << hdma->StreamIndex;
 800346a:	687b      	ldr	r3, [r7, #4]
 800346c:	6ddb      	ldr	r3, [r3, #92]	; 0x5c
 800346e:	2210      	movs	r2, #16
 8003470:	409a      	lsls	r2, r3
 8003472:	693b      	ldr	r3, [r7, #16]
 8003474:	609a      	str	r2, [r3, #8]
      
      /* Multi_Buffering mode enabled */
      if(((hdma->Instance->CR) & (uint32_t)(DMA_SxCR_DBM)) != RESET)
 8003476:	687b      	ldr	r3, [r7, #4]
 8003478:	681b      	ldr	r3, [r3, #0]
 800347a:	681b      	ldr	r3, [r3, #0]
 800347c:	f403 2380 	and.w	r3, r3, #262144	; 0x40000
 8003480:	2b00      	cmp	r3, #0
 8003482:	d018      	beq.n	80034b6 <HAL_DMA_IRQHandler+0x142>
      {
        /* Current memory buffer used is Memory 0 */
        if((hdma->Instance->CR & DMA_SxCR_CT) == RESET)
 8003484:	687b      	ldr	r3, [r7, #4]
 8003486:	681b      	ldr	r3, [r3, #0]
 8003488:	681b      	ldr	r3, [r3, #0]
 800348a:	f403 2300 	and.w	r3, r3, #524288	; 0x80000
 800348e:	2b00      	cmp	r3, #0
 8003490:	d108      	bne.n	80034a4 <HAL_DMA_IRQHandler+0x130>
        {
          if(hdma->XferHalfCpltCallback != NULL)
 8003492:	687b      	ldr	r3, [r7, #4]
 8003494:	6c1b      	ldr	r3, [r3, #64]	; 0x40
 8003496:	2b00      	cmp	r3, #0
 8003498:	d024      	beq.n	80034e4 <HAL_DMA_IRQHandler+0x170>
          {
            /* Half transfer callback */
            hdma->XferHalfCpltCallback(hdma);
 800349a:	687b      	ldr	r3, [r7, #4]
 800349c:	6c1b      	ldr	r3, [r3, #64]	; 0x40
 800349e:	6878      	ldr	r0, [r7, #4]
 80034a0:	4798      	blx	r3
 80034a2:	e01f      	b.n	80034e4 <HAL_DMA_IRQHandler+0x170>
          }
        }
        /* Current memory buffer used is Memory 1 */
        else
        {
          if(hdma->XferM1HalfCpltCallback != NULL)
 80034a4:	687b      	ldr	r3, [r7, #4]
 80034a6:	6c9b      	ldr	r3, [r3, #72]	; 0x48
 80034a8:	2b00      	cmp	r3, #0
 80034aa:	d01b      	beq.n	80034e4 <HAL_DMA_IRQHandler+0x170>
          {
            /* Half transfer callback */
            hdma->XferM1HalfCpltCallback(hdma);
 80034ac:	687b      	ldr	r3, [r7, #4]
 80034ae:	6c9b      	ldr	r3, [r3, #72]	; 0x48
 80034b0:	6878      	ldr	r0, [r7, #4]
 80034b2:	4798      	blx	r3
 80034b4:	e016      	b.n	80034e4 <HAL_DMA_IRQHandler+0x170>
        }
      }
      else
      {
        /* Disable the half transfer interrupt if the DMA mode is not CIRCULAR */
        if((hdma->Instance->CR & DMA_SxCR_CIRC) == RESET)
 80034b6:	687b      	ldr	r3, [r7, #4]
 80034b8:	681b      	ldr	r3, [r3, #0]
 80034ba:	681b      	ldr	r3, [r3, #0]
 80034bc:	f403 7380 	and.w	r3, r3, #256	; 0x100
 80034c0:	2b00      	cmp	r3, #0
 80034c2:	d107      	bne.n	80034d4 <HAL_DMA_IRQHandler+0x160>
        {
          /* Disable the half transfer interrupt */
          hdma->Instance->CR  &= ~(DMA_IT_HT);
 80034c4:	687b      	ldr	r3, [r7, #4]
 80034c6:	681b      	ldr	r3, [r3, #0]
 80034c8:	681a      	ldr	r2, [r3, #0]
 80034ca:	687b      	ldr	r3, [r7, #4]
 80034cc:	681b      	ldr	r3, [r3, #0]
 80034ce:	f022 0208 	bic.w	r2, r2, #8
 80034d2:	601a      	str	r2, [r3, #0]
        }
        
        if(hdma->XferHalfCpltCallback != NULL)
 80034d4:	687b      	ldr	r3, [r7, #4]
 80034d6:	6c1b      	ldr	r3, [r3, #64]	; 0x40
 80034d8:	2b00      	cmp	r3, #0
 80034da:	d003      	beq.n	80034e4 <HAL_DMA_IRQHandler+0x170>
        {
          /* Half transfer callback */
          hdma->XferHalfCpltCallback(hdma);
 80034dc:	687b      	ldr	r3, [r7, #4]
 80034de:	6c1b      	ldr	r3, [r3, #64]	; 0x40
 80034e0:	6878      	ldr	r0, [r7, #4]
 80034e2:	4798      	blx	r3
        }
      }
    }
  }
  /* Transfer Complete Interrupt management ***********************************/
  if ((tmpisr & (DMA_FLAG_TCIF0_4 << hdma->StreamIndex)) != RESET)
 80034e4:	687b      	ldr	r3, [r7, #4]
 80034e6:	6ddb      	ldr	r3, [r3, #92]	; 0x5c
 80034e8:	2220      	movs	r2, #32
 80034ea:	409a      	lsls	r2, r3
 80034ec:	68fb      	ldr	r3, [r7, #12]
 80034ee:	4013      	ands	r3, r2
 80034f0:	2b00      	cmp	r3, #0
 80034f2:	f000 808f 	beq.w	8003614 <HAL_DMA_IRQHandler+0x2a0>
  {
    if(__HAL_DMA_GET_IT_SOURCE(hdma, DMA_IT_TC) != RESET)
 80034f6:	687b      	ldr	r3, [r7, #4]
 80034f8:	681b      	ldr	r3, [r3, #0]
 80034fa:	681b      	ldr	r3, [r3, #0]
 80034fc:	f003 0310 	and.w	r3, r3, #16
 8003500:	2b00      	cmp	r3, #0
 8003502:	f000 8087 	beq.w	8003614 <HAL_DMA_IRQHandler+0x2a0>
    {
      /* Clear the transfer complete flag */
      regs->IFCR = DMA_FLAG_TCIF0_4 << hdma->StreamIndex;
 8003506:	687b      	ldr	r3, [r7, #4]
 8003508:	6ddb      	ldr	r3, [r3, #92]	; 0x5c
 800350a:	2220      	movs	r2, #32
 800350c:	409a      	lsls	r2, r3
 800350e:	693b      	ldr	r3, [r7, #16]
 8003510:	609a      	str	r2, [r3, #8]
      
      if(HAL_DMA_STATE_ABORT == hdma->State)
 8003512:	687b      	ldr	r3, [r7, #4]
 8003514:	f893 3035 	ldrb.w	r3, [r3, #53]	; 0x35
 8003518:	b2db      	uxtb	r3, r3
 800351a:	2b05      	cmp	r3, #5
 800351c:	d136      	bne.n	800358c <HAL_DMA_IRQHandler+0x218>
      {
        /* Disable all the transfer interrupts */
        hdma->Instance->CR  &= ~(DMA_IT_TC | DMA_IT_TE | DMA_IT_DME);
 800351e:	687b      	ldr	r3, [r7, #4]
 8003520:	681b      	ldr	r3, [r3, #0]
 8003522:	681a      	ldr	r2, [r3, #0]
 8003524:	687b      	ldr	r3, [r7, #4]
 8003526:	681b      	ldr	r3, [r3, #0]
 8003528:	f022 0216 	bic.w	r2, r2, #22
 800352c:	601a      	str	r2, [r3, #0]
        hdma->Instance->FCR &= ~(DMA_IT_FE);
 800352e:	687b      	ldr	r3, [r7, #4]
 8003530:	681b      	ldr	r3, [r3, #0]
 8003532:	695a      	ldr	r2, [r3, #20]
 8003534:	687b      	ldr	r3, [r7, #4]
 8003536:	681b      	ldr	r3, [r3, #0]
 8003538:	f022 0280 	bic.w	r2, r2, #128	; 0x80
 800353c:	615a      	str	r2, [r3, #20]
        
        if((hdma->XferHalfCpltCallback != NULL) || (hdma->XferM1HalfCpltCallback != NULL))
 800353e:	687b      	ldr	r3, [r7, #4]
 8003540:	6c1b      	ldr	r3, [r3, #64]	; 0x40
 8003542:	2b00      	cmp	r3, #0
 8003544:	d103      	bne.n	800354e <HAL_DMA_IRQHandler+0x1da>
 8003546:	687b      	ldr	r3, [r7, #4]
 8003548:	6c9b      	ldr	r3, [r3, #72]	; 0x48
 800354a:	2b00      	cmp	r3, #0
 800354c:	d007      	beq.n	800355e <HAL_DMA_IRQHandler+0x1ea>
        {
          hdma->Instance->CR  &= ~(DMA_IT_HT);
 800354e:	687b      	ldr	r3, [r7, #4]
 8003550:	681b      	ldr	r3, [r3, #0]
 8003552:	681a      	ldr	r2, [r3, #0]
 8003554:	687b      	ldr	r3, [r7, #4]
 8003556:	681b      	ldr	r3, [r3, #0]
 8003558:	f022 0208 	bic.w	r2, r2, #8
 800355c:	601a      	str	r2, [r3, #0]
        }

        /* Clear all interrupt flags at correct offset within the register */
        regs->IFCR = 0x3FU << hdma->StreamIndex;
 800355e:	687b      	ldr	r3, [r7, #4]
 8003560:	6ddb      	ldr	r3, [r3, #92]	; 0x5c
 8003562:	223f      	movs	r2, #63	; 0x3f
 8003564:	409a      	lsls	r2, r3
 8003566:	693b      	ldr	r3, [r7, #16]
 8003568:	609a      	str	r2, [r3, #8]

        /* Change the DMA state */
        hdma->State = HAL_DMA_STATE_READY;
 800356a:	687b      	ldr	r3, [r7, #4]
 800356c:	2201      	movs	r2, #1
 800356e:	f883 2035 	strb.w	r2, [r3, #53]	; 0x35

        /* Process Unlocked */
        __HAL_UNLOCK(hdma);
 8003572:	687b      	ldr	r3, [r7, #4]
 8003574:	2200      	movs	r2, #0
 8003576:	f883 2034 	strb.w	r2, [r3, #52]	; 0x34

        if(hdma->XferAbortCallback != NULL)
 800357a:	687b      	ldr	r3, [r7, #4]
 800357c:	6d1b      	ldr	r3, [r3, #80]	; 0x50
 800357e:	2b00      	cmp	r3, #0
 8003580:	d07e      	beq.n	8003680 <HAL_DMA_IRQHandler+0x30c>
        {
          hdma->XferAbortCallback(hdma);
 8003582:	687b      	ldr	r3, [r7, #4]
 8003584:	6d1b      	ldr	r3, [r3, #80]	; 0x50
 8003586:	6878      	ldr	r0, [r7, #4]
 8003588:	4798      	blx	r3
        }
        return;
 800358a:	e079      	b.n	8003680 <HAL_DMA_IRQHandler+0x30c>
      }

      if(((hdma->Instance->CR) & (uint32_t)(DMA_SxCR_DBM)) != RESET)
 800358c:	687b      	ldr	r3, [r7, #4]
 800358e:	681b      	ldr	r3, [r3, #0]
 8003590:	681b      	ldr	r3, [r3, #0]
 8003592:	f403 2380 	and.w	r3, r3, #262144	; 0x40000
 8003596:	2b00      	cmp	r3, #0
 8003598:	d01d      	beq.n	80035d6 <HAL_DMA_IRQHandler+0x262>
      {
        /* Current memory buffer used is Memory 0 */
        if((hdma->Instance->CR & DMA_SxCR_CT) == RESET)
 800359a:	687b      	ldr	r3, [r7, #4]
 800359c:	681b      	ldr	r3, [r3, #0]
 800359e:	681b      	ldr	r3, [r3, #0]
 80035a0:	f403 2300 	and.w	r3, r3, #524288	; 0x80000
 80035a4:	2b00      	cmp	r3, #0
 80035a6:	d10d      	bne.n	80035c4 <HAL_DMA_IRQHandler+0x250>
        {
          if(hdma->XferM1CpltCallback != NULL)
 80035a8:	687b      	ldr	r3, [r7, #4]
 80035aa:	6c5b      	ldr	r3, [r3, #68]	; 0x44
 80035ac:	2b00      	cmp	r3, #0
 80035ae:	d031      	beq.n	8003614 <HAL_DMA_IRQHandler+0x2a0>
          {
            /* Transfer complete Callback for memory1 */
            hdma->XferM1CpltCallback(hdma);
 80035b0:	687b      	ldr	r3, [r7, #4]
 80035b2:	6c5b      	ldr	r3, [r3, #68]	; 0x44
 80035b4:	6878      	ldr	r0, [r7, #4]
 80035b6:	4798      	blx	r3
 80035b8:	e02c      	b.n	8003614 <HAL_DMA_IRQHandler+0x2a0>
 80035ba:	bf00      	nop
 80035bc:	2000001c 	.word	0x2000001c
 80035c0:	1b4e81b5 	.word	0x1b4e81b5
          }
        }
        /* Current memory buffer used is Memory 1 */
        else
        {
          if(hdma->XferCpltCallback != NULL)
 80035c4:	687b      	ldr	r3, [r7, #4]
 80035c6:	6bdb      	ldr	r3, [r3, #60]	; 0x3c
 80035c8:	2b00      	cmp	r3, #0
 80035ca:	d023      	beq.n	8003614 <HAL_DMA_IRQHandler+0x2a0>
          {
            /* Transfer complete Callback for memory0 */
            hdma->XferCpltCallback(hdma);
 80035cc:	687b      	ldr	r3, [r7, #4]
 80035ce:	6bdb      	ldr	r3, [r3, #60]	; 0x3c
 80035d0:	6878      	ldr	r0, [r7, #4]
 80035d2:	4798      	blx	r3
 80035d4:	e01e      	b.n	8003614 <HAL_DMA_IRQHandler+0x2a0>
        }
      }
      /* Disable the transfer complete interrupt if the DMA mode is not CIRCULAR */
      else
      {
        if((hdma->Instance->CR & DMA_SxCR_CIRC) == RESET)
 80035d6:	687b      	ldr	r3, [r7, #4]
 80035d8:	681b      	ldr	r3, [r3, #0]
 80035da:	681b      	ldr	r3, [r3, #0]
 80035dc:	f403 7380 	and.w	r3, r3, #256	; 0x100
 80035e0:	2b00      	cmp	r3, #0
 80035e2:	d10f      	bne.n	8003604 <HAL_DMA_IRQHandler+0x290>
        {
          /* Disable the transfer complete interrupt */
          hdma->Instance->CR  &= ~(DMA_IT_TC);
 80035e4:	687b      	ldr	r3, [r7, #4]
 80035e6:	681b      	ldr	r3, [r3, #0]
 80035e8:	681a      	ldr	r2, [r3, #0]
 80035ea:	687b      	ldr	r3, [r7, #4]
 80035ec:	681b      	ldr	r3, [r3, #0]
 80035ee:	f022 0210 	bic.w	r2, r2, #16
 80035f2:	601a      	str	r2, [r3, #0]

          /* Change the DMA state */
          hdma->State = HAL_DMA_STATE_READY;
 80035f4:	687b      	ldr	r3, [r7, #4]
 80035f6:	2201      	movs	r2, #1
 80035f8:	f883 2035 	strb.w	r2, [r3, #53]	; 0x35

          /* Process Unlocked */
          __HAL_UNLOCK(hdma);
 80035fc:	687b      	ldr	r3, [r7, #4]
 80035fe:	2200      	movs	r2, #0
 8003600:	f883 2034 	strb.w	r2, [r3, #52]	; 0x34
        }

        if(hdma->XferCpltCallback != NULL)
 8003604:	687b      	ldr	r3, [r7, #4]
 8003606:	6bdb      	ldr	r3, [r3, #60]	; 0x3c
 8003608:	2b00      	cmp	r3, #0
 800360a:	d003      	beq.n	8003614 <HAL_DMA_IRQHandler+0x2a0>
        {
          /* Transfer complete callback */
          hdma->XferCpltCallback(hdma);
 800360c:	687b      	ldr	r3, [r7, #4]
 800360e:	6bdb      	ldr	r3, [r3, #60]	; 0x3c
 8003610:	6878      	ldr	r0, [r7, #4]
 8003612:	4798      	blx	r3
      }
    }
  }
  
  /* manage error case */
  if(hdma->ErrorCode != HAL_DMA_ERROR_NONE)
 8003614:	687b      	ldr	r3, [r7, #4]
 8003616:	6d5b      	ldr	r3, [r3, #84]	; 0x54
 8003618:	2b00      	cmp	r3, #0
 800361a:	d032      	beq.n	8003682 <HAL_DMA_IRQHandler+0x30e>
  {
    if((hdma->ErrorCode & HAL_DMA_ERROR_TE) != RESET)
 800361c:	687b      	ldr	r3, [r7, #4]
 800361e:	6d5b      	ldr	r3, [r3, #84]	; 0x54
 8003620:	f003 0301 	and.w	r3, r3, #1
 8003624:	2b00      	cmp	r3, #0
 8003626:	d022      	beq.n	800366e <HAL_DMA_IRQHandler+0x2fa>
    {
      hdma->State = HAL_DMA_STATE_ABORT;
 8003628:	687b      	ldr	r3, [r7, #4]
 800362a:	2205      	movs	r2, #5
 800362c:	f883 2035 	strb.w	r2, [r3, #53]	; 0x35

      /* Disable the stream */
      __HAL_DMA_DISABLE(hdma);
 8003630:	687b      	ldr	r3, [r7, #4]
 8003632:	681b      	ldr	r3, [r3, #0]
 8003634:	681a      	ldr	r2, [r3, #0]
 8003636:	687b      	ldr	r3, [r7, #4]
 8003638:	681b      	ldr	r3, [r3, #0]
 800363a:	f022 0201 	bic.w	r2, r2, #1
 800363e:	601a      	str	r2, [r3, #0]

      do
      {
        if (++count > timeout)
 8003640:	68bb      	ldr	r3, [r7, #8]
 8003642:	3301      	adds	r3, #1
 8003644:	60bb      	str	r3, [r7, #8]
 8003646:	697a      	ldr	r2, [r7, #20]
 8003648:	429a      	cmp	r2, r3
 800364a:	d307      	bcc.n	800365c <HAL_DMA_IRQHandler+0x2e8>
        {
          break;
        }
      }
      while((hdma->Instance->CR & DMA_SxCR_EN) != RESET);
 800364c:	687b      	ldr	r3, [r7, #4]
 800364e:	681b      	ldr	r3, [r3, #0]
 8003650:	681b      	ldr	r3, [r3, #0]
 8003652:	f003 0301 	and.w	r3, r3, #1
 8003656:	2b00      	cmp	r3, #0
 8003658:	d1f2      	bne.n	8003640 <HAL_DMA_IRQHandler+0x2cc>
 800365a:	e000      	b.n	800365e <HAL_DMA_IRQHandler+0x2ea>
          break;
 800365c:	bf00      	nop

      /* Change the DMA state */
      hdma->State = HAL_DMA_STATE_READY;
 800365e:	687b      	ldr	r3, [r7, #4]
 8003660:	2201      	movs	r2, #1
 8003662:	f883 2035 	strb.w	r2, [r3, #53]	; 0x35

      /* Process Unlocked */
      __HAL_UNLOCK(hdma);
 8003666:	687b      	ldr	r3, [r7, #4]
 8003668:	2200      	movs	r2, #0
 800366a:	f883 2034 	strb.w	r2, [r3, #52]	; 0x34
    }

    if(hdma->XferErrorCallback != NULL)
 800366e:	687b      	ldr	r3, [r7, #4]
 8003670:	6cdb      	ldr	r3, [r3, #76]	; 0x4c
 8003672:	2b00      	cmp	r3, #0
 8003674:	d005      	beq.n	8003682 <HAL_DMA_IRQHandler+0x30e>
    {
      /* Transfer error callback */
      hdma->XferErrorCallback(hdma);
 8003676:	687b      	ldr	r3, [r7, #4]
 8003678:	6cdb      	ldr	r3, [r3, #76]	; 0x4c
 800367a:	6878      	ldr	r0, [r7, #4]
 800367c:	4798      	blx	r3
 800367e:	e000      	b.n	8003682 <HAL_DMA_IRQHandler+0x30e>
        return;
 8003680:	bf00      	nop
    }
  }
}
 8003682:	3718      	adds	r7, #24
 8003684:	46bd      	mov	sp, r7
 8003686:	bd80      	pop	{r7, pc}

08003688 <DMA_SetConfig>:
  * @param  DstAddress The destination memory Buffer address
  * @param  DataLength The length of data to be transferred from source to destination
  * @retval HAL status
  */
static void DMA_SetConfig(DMA_HandleTypeDef *hdma, uint32_t SrcAddress, uint32_t DstAddress, uint32_t DataLength)
{
 8003688:	b480      	push	{r7}
 800368a:	b085      	sub	sp, #20
 800368c:	af00      	add	r7, sp, #0
 800368e:	60f8      	str	r0, [r7, #12]
 8003690:	60b9      	str	r1, [r7, #8]
 8003692:	607a      	str	r2, [r7, #4]
 8003694:	603b      	str	r3, [r7, #0]
  /* Clear DBM bit */
  hdma->Instance->CR &= (uint32_t)(~DMA_SxCR_DBM);
 8003696:	68fb      	ldr	r3, [r7, #12]
 8003698:	681b      	ldr	r3, [r3, #0]
 800369a:	681a      	ldr	r2, [r3, #0]
 800369c:	68fb      	ldr	r3, [r7, #12]
 800369e:	681b      	ldr	r3, [r3, #0]
 80036a0:	f422 2280 	bic.w	r2, r2, #262144	; 0x40000
 80036a4:	601a      	str	r2, [r3, #0]

  /* Configure DMA Stream data length */
  hdma->Instance->NDTR = DataLength;
 80036a6:	68fb      	ldr	r3, [r7, #12]
 80036a8:	681b      	ldr	r3, [r3, #0]
 80036aa:	683a      	ldr	r2, [r7, #0]
 80036ac:	605a      	str	r2, [r3, #4]

  /* Memory to Peripheral */
  if((hdma->Init.Direction) == DMA_MEMORY_TO_PERIPH)
 80036ae:	68fb      	ldr	r3, [r7, #12]
 80036b0:	689b      	ldr	r3, [r3, #8]
 80036b2:	2b40      	cmp	r3, #64	; 0x40
 80036b4:	d108      	bne.n	80036c8 <DMA_SetConfig+0x40>
  {
    /* Configure DMA Stream destination address */
    hdma->Instance->PAR = DstAddress;
 80036b6:	68fb      	ldr	r3, [r7, #12]
 80036b8:	681b      	ldr	r3, [r3, #0]
 80036ba:	687a      	ldr	r2, [r7, #4]
 80036bc:	609a      	str	r2, [r3, #8]

    /* Configure DMA Stream source address */
    hdma->Instance->M0AR = SrcAddress;
 80036be:	68fb      	ldr	r3, [r7, #12]
 80036c0:	681b      	ldr	r3, [r3, #0]
 80036c2:	68ba      	ldr	r2, [r7, #8]
 80036c4:	60da      	str	r2, [r3, #12]
    hdma->Instance->PAR = SrcAddress;

    /* Configure DMA Stream destination address */
    hdma->Instance->M0AR = DstAddress;
  }
}
 80036c6:	e007      	b.n	80036d8 <DMA_SetConfig+0x50>
    hdma->Instance->PAR = SrcAddress;
 80036c8:	68fb      	ldr	r3, [r7, #12]
 80036ca:	681b      	ldr	r3, [r3, #0]
 80036cc:	68ba      	ldr	r2, [r7, #8]
 80036ce:	609a      	str	r2, [r3, #8]
    hdma->Instance->M0AR = DstAddress;
 80036d0:	68fb      	ldr	r3, [r7, #12]
 80036d2:	681b      	ldr	r3, [r3, #0]
 80036d4:	687a      	ldr	r2, [r7, #4]
 80036d6:	60da      	str	r2, [r3, #12]
}
 80036d8:	bf00      	nop
 80036da:	3714      	adds	r7, #20
 80036dc:	46bd      	mov	sp, r7
 80036de:	f85d 7b04 	ldr.w	r7, [sp], #4
 80036e2:	4770      	bx	lr

080036e4 <DMA_CalcBaseAndBitshift>:
  * @param  hdma       pointer to a DMA_HandleTypeDef structure that contains
  *                     the configuration information for the specified DMA Stream. 
  * @retval Stream base address
  */
static uint32_t DMA_CalcBaseAndBitshift(DMA_HandleTypeDef *hdma)
{
 80036e4:	b480      	push	{r7}
 80036e6:	b085      	sub	sp, #20
 80036e8:	af00      	add	r7, sp, #0
 80036ea:	6078      	str	r0, [r7, #4]
  uint32_t stream_number = (((uint32_t)hdma->Instance & 0xFFU) - 16U) / 24U;
 80036ec:	687b      	ldr	r3, [r7, #4]
 80036ee:	681b      	ldr	r3, [r3, #0]
 80036f0:	b2db      	uxtb	r3, r3
 80036f2:	3b10      	subs	r3, #16
 80036f4:	4a14      	ldr	r2, [pc, #80]	; (8003748 <DMA_CalcBaseAndBitshift+0x64>)
 80036f6:	fba2 2303 	umull	r2, r3, r2, r3
 80036fa:	091b      	lsrs	r3, r3, #4
 80036fc:	60fb      	str	r3, [r7, #12]
  
  /* lookup table for necessary bitshift of flags within status registers */
  static const uint8_t flagBitshiftOffset[8U] = {0U, 6U, 16U, 22U, 0U, 6U, 16U, 22U};
  hdma->StreamIndex = flagBitshiftOffset[stream_number];
 80036fe:	4a13      	ldr	r2, [pc, #76]	; (800374c <DMA_CalcBaseAndBitshift+0x68>)
 8003700:	68fb      	ldr	r3, [r7, #12]
 8003702:	4413      	add	r3, r2
 8003704:	781b      	ldrb	r3, [r3, #0]
 8003706:	461a      	mov	r2, r3
 8003708:	687b      	ldr	r3, [r7, #4]
 800370a:	65da      	str	r2, [r3, #92]	; 0x5c
  
  if (stream_number > 3U)
 800370c:	68fb      	ldr	r3, [r7, #12]
 800370e:	2b03      	cmp	r3, #3
 8003710:	d909      	bls.n	8003726 <DMA_CalcBaseAndBitshift+0x42>
  {
    /* return pointer to HISR and HIFCR */
    hdma->StreamBaseAddress = (((uint32_t)hdma->Instance & (uint32_t)(~0x3FFU)) + 4U);
 8003712:	687b      	ldr	r3, [r7, #4]
 8003714:	681b      	ldr	r3, [r3, #0]
 8003716:	f423 737f 	bic.w	r3, r3, #1020	; 0x3fc
 800371a:	f023 0303 	bic.w	r3, r3, #3
 800371e:	1d1a      	adds	r2, r3, #4
 8003720:	687b      	ldr	r3, [r7, #4]
 8003722:	659a      	str	r2, [r3, #88]	; 0x58
 8003724:	e007      	b.n	8003736 <DMA_CalcBaseAndBitshift+0x52>
  }
  else
  {
    /* return pointer to LISR and LIFCR */
    hdma->StreamBaseAddress = ((uint32_t)hdma->Instance & (uint32_t)(~0x3FFU));
 8003726:	687b      	ldr	r3, [r7, #4]
 8003728:	681b      	ldr	r3, [r3, #0]
 800372a:	f423 737f 	bic.w	r3, r3, #1020	; 0x3fc
 800372e:	f023 0303 	bic.w	r3, r3, #3
 8003732:	687a      	ldr	r2, [r7, #4]
 8003734:	6593      	str	r3, [r2, #88]	; 0x58
  }
  
  return hdma->StreamBaseAddress;
 8003736:	687b      	ldr	r3, [r7, #4]
 8003738:	6d9b      	ldr	r3, [r3, #88]	; 0x58
}
 800373a:	4618      	mov	r0, r3
 800373c:	3714      	adds	r7, #20
 800373e:	46bd      	mov	sp, r7
 8003740:	f85d 7b04 	ldr.w	r7, [sp], #4
 8003744:	4770      	bx	lr
 8003746:	bf00      	nop
 8003748:	aaaaaaab 	.word	0xaaaaaaab
 800374c:	080085b0 	.word	0x080085b0

08003750 <DMA_CheckFifoParam>:
  * @param  hdma       pointer to a DMA_HandleTypeDef structure that contains
  *                     the configuration information for the specified DMA Stream. 
  * @retval HAL status
  */
static HAL_StatusTypeDef DMA_CheckFifoParam(DMA_HandleTypeDef *hdma)
{
 8003750:	b480      	push	{r7}
 8003752:	b085      	sub	sp, #20
 8003754:	af00      	add	r7, sp, #0
 8003756:	6078      	str	r0, [r7, #4]
  HAL_StatusTypeDef status = HAL_OK;
 8003758:	2300      	movs	r3, #0
 800375a:	73fb      	strb	r3, [r7, #15]
  uint32_t tmp = hdma->Init.FIFOThreshold;
 800375c:	687b      	ldr	r3, [r7, #4]
 800375e:	6a9b      	ldr	r3, [r3, #40]	; 0x28
 8003760:	60bb      	str	r3, [r7, #8]
  
  /* Memory Data size equal to Byte */
  if(hdma->Init.MemDataAlignment == DMA_MDATAALIGN_BYTE)
 8003762:	687b      	ldr	r3, [r7, #4]
 8003764:	699b      	ldr	r3, [r3, #24]
 8003766:	2b00      	cmp	r3, #0
 8003768:	d11f      	bne.n	80037aa <DMA_CheckFifoParam+0x5a>
  {
    switch (tmp)
 800376a:	68bb      	ldr	r3, [r7, #8]
 800376c:	2b03      	cmp	r3, #3
 800376e:	d856      	bhi.n	800381e <DMA_CheckFifoParam+0xce>
 8003770:	a201      	add	r2, pc, #4	; (adr r2, 8003778 <DMA_CheckFifoParam+0x28>)
 8003772:	f852 f023 	ldr.w	pc, [r2, r3, lsl #2]
 8003776:	bf00      	nop
 8003778:	08003789 	.word	0x08003789
 800377c:	0800379b 	.word	0x0800379b
 8003780:	08003789 	.word	0x08003789
 8003784:	0800381f 	.word	0x0800381f
    {
    case DMA_FIFO_THRESHOLD_1QUARTERFULL:
    case DMA_FIFO_THRESHOLD_3QUARTERSFULL:
      if ((hdma->Init.MemBurst & DMA_SxCR_MBURST_1) == DMA_SxCR_MBURST_1)
 8003788:	687b      	ldr	r3, [r7, #4]
 800378a:	6adb      	ldr	r3, [r3, #44]	; 0x2c
 800378c:	f003 7380 	and.w	r3, r3, #16777216	; 0x1000000
 8003790:	2b00      	cmp	r3, #0
 8003792:	d046      	beq.n	8003822 <DMA_CheckFifoParam+0xd2>
      {
        status = HAL_ERROR;
 8003794:	2301      	movs	r3, #1
 8003796:	73fb      	strb	r3, [r7, #15]
      }
      break;
 8003798:	e043      	b.n	8003822 <DMA_CheckFifoParam+0xd2>
    case DMA_FIFO_THRESHOLD_HALFFULL:
      if (hdma->Init.MemBurst == DMA_MBURST_INC16)
 800379a:	687b      	ldr	r3, [r7, #4]
 800379c:	6adb      	ldr	r3, [r3, #44]	; 0x2c
 800379e:	f1b3 7fc0 	cmp.w	r3, #25165824	; 0x1800000
 80037a2:	d140      	bne.n	8003826 <DMA_CheckFifoParam+0xd6>
      {
        status = HAL_ERROR;
 80037a4:	2301      	movs	r3, #1
 80037a6:	73fb      	strb	r3, [r7, #15]
      }
      break;
 80037a8:	e03d      	b.n	8003826 <DMA_CheckFifoParam+0xd6>
      break;
    }
  }
  
  /* Memory Data size equal to Half-Word */
  else if (hdma->Init.MemDataAlignment == DMA_MDATAALIGN_HALFWORD)
 80037aa:	687b      	ldr	r3, [r7, #4]
 80037ac:	699b      	ldr	r3, [r3, #24]
 80037ae:	f5b3 5f00 	cmp.w	r3, #8192	; 0x2000
 80037b2:	d121      	bne.n	80037f8 <DMA_CheckFifoParam+0xa8>
  {
    switch (tmp)
 80037b4:	68bb      	ldr	r3, [r7, #8]
 80037b6:	2b03      	cmp	r3, #3
 80037b8:	d837      	bhi.n	800382a <DMA_CheckFifoParam+0xda>
 80037ba:	a201      	add	r2, pc, #4	; (adr r2, 80037c0 <DMA_CheckFifoParam+0x70>)
 80037bc:	f852 f023 	ldr.w	pc, [r2, r3, lsl #2]
 80037c0:	080037d1 	.word	0x080037d1
 80037c4:	080037d7 	.word	0x080037d7
 80037c8:	080037d1 	.word	0x080037d1
 80037cc:	080037e9 	.word	0x080037e9
    {
    case DMA_FIFO_THRESHOLD_1QUARTERFULL:
    case DMA_FIFO_THRESHOLD_3QUARTERSFULL:
      status = HAL_ERROR;
 80037d0:	2301      	movs	r3, #1
 80037d2:	73fb      	strb	r3, [r7, #15]
      break;
 80037d4:	e030      	b.n	8003838 <DMA_CheckFifoParam+0xe8>
    case DMA_FIFO_THRESHOLD_HALFFULL:
      if ((hdma->Init.MemBurst & DMA_SxCR_MBURST_1) == DMA_SxCR_MBURST_1)
 80037d6:	687b      	ldr	r3, [r7, #4]
 80037d8:	6adb      	ldr	r3, [r3, #44]	; 0x2c
 80037da:	f003 7380 	and.w	r3, r3, #16777216	; 0x1000000
 80037de:	2b00      	cmp	r3, #0
 80037e0:	d025      	beq.n	800382e <DMA_CheckFifoParam+0xde>
      {
        status = HAL_ERROR;
 80037e2:	2301      	movs	r3, #1
 80037e4:	73fb      	strb	r3, [r7, #15]
      }
      break;
 80037e6:	e022      	b.n	800382e <DMA_CheckFifoParam+0xde>
    case DMA_FIFO_THRESHOLD_FULL:
      if (hdma->Init.MemBurst == DMA_MBURST_INC16)
 80037e8:	687b      	ldr	r3, [r7, #4]
 80037ea:	6adb      	ldr	r3, [r3, #44]	; 0x2c
 80037ec:	f1b3 7fc0 	cmp.w	r3, #25165824	; 0x1800000
 80037f0:	d11f      	bne.n	8003832 <DMA_CheckFifoParam+0xe2>
      {
        status = HAL_ERROR;
 80037f2:	2301      	movs	r3, #1
 80037f4:	73fb      	strb	r3, [r7, #15]
      }
      break;   
 80037f6:	e01c      	b.n	8003832 <DMA_CheckFifoParam+0xe2>
  }
  
  /* Memory Data size equal to Word */
  else
  {
    switch (tmp)
 80037f8:	68bb      	ldr	r3, [r7, #8]
 80037fa:	2b02      	cmp	r3, #2
 80037fc:	d903      	bls.n	8003806 <DMA_CheckFifoParam+0xb6>
 80037fe:	68bb      	ldr	r3, [r7, #8]
 8003800:	2b03      	cmp	r3, #3
 8003802:	d003      	beq.n	800380c <DMA_CheckFifoParam+0xbc>
      {
        status = HAL_ERROR;
      }
      break;
    default:
      break;
 8003804:	e018      	b.n	8003838 <DMA_CheckFifoParam+0xe8>
      status = HAL_ERROR;
 8003806:	2301      	movs	r3, #1
 8003808:	73fb      	strb	r3, [r7, #15]
      break;
 800380a:	e015      	b.n	8003838 <DMA_CheckFifoParam+0xe8>
      if ((hdma->Init.MemBurst & DMA_SxCR_MBURST_1) == DMA_SxCR_MBURST_1)
 800380c:	687b      	ldr	r3, [r7, #4]
 800380e:	6adb      	ldr	r3, [r3, #44]	; 0x2c
 8003810:	f003 7380 	and.w	r3, r3, #16777216	; 0x1000000
 8003814:	2b00      	cmp	r3, #0
 8003816:	d00e      	beq.n	8003836 <DMA_CheckFifoParam+0xe6>
        status = HAL_ERROR;
 8003818:	2301      	movs	r3, #1
 800381a:	73fb      	strb	r3, [r7, #15]
      break;
 800381c:	e00b      	b.n	8003836 <DMA_CheckFifoParam+0xe6>
      break;
 800381e:	bf00      	nop
 8003820:	e00a      	b.n	8003838 <DMA_CheckFifoParam+0xe8>
      break;
 8003822:	bf00      	nop
 8003824:	e008      	b.n	8003838 <DMA_CheckFifoParam+0xe8>
      break;
 8003826:	bf00      	nop
 8003828:	e006      	b.n	8003838 <DMA_CheckFifoParam+0xe8>
      break;
 800382a:	bf00      	nop
 800382c:	e004      	b.n	8003838 <DMA_CheckFifoParam+0xe8>
      break;
 800382e:	bf00      	nop
 8003830:	e002      	b.n	8003838 <DMA_CheckFifoParam+0xe8>
      break;   
 8003832:	bf00      	nop
 8003834:	e000      	b.n	8003838 <DMA_CheckFifoParam+0xe8>
      break;
 8003836:	bf00      	nop
    }
  } 
  
  return status; 
 8003838:	7bfb      	ldrb	r3, [r7, #15]
}
 800383a:	4618      	mov	r0, r3
 800383c:	3714      	adds	r7, #20
 800383e:	46bd      	mov	sp, r7
 8003840:	f85d 7b04 	ldr.w	r7, [sp], #4
 8003844:	4770      	bx	lr
 8003846:	bf00      	nop

08003848 <HAL_GPIO_Init>:
  * @param  GPIO_Init pointer to a GPIO_InitTypeDef structure that contains
  *         the configuration information for the specified GPIO peripheral.
  * @retval None
  */
void HAL_GPIO_Init(GPIO_TypeDef  *GPIOx, GPIO_InitTypeDef *GPIO_Init)
{
 8003848:	b480      	push	{r7}
 800384a:	b089      	sub	sp, #36	; 0x24
 800384c:	af00      	add	r7, sp, #0
 800384e:	6078      	str	r0, [r7, #4]
 8003850:	6039      	str	r1, [r7, #0]
  uint32_t position;
  uint32_t ioposition = 0x00U;
 8003852:	2300      	movs	r3, #0
 8003854:	617b      	str	r3, [r7, #20]
  uint32_t iocurrent = 0x00U;
 8003856:	2300      	movs	r3, #0
 8003858:	613b      	str	r3, [r7, #16]
  uint32_t temp = 0x00U;
 800385a:	2300      	movs	r3, #0
 800385c:	61bb      	str	r3, [r7, #24]
  assert_param(IS_GPIO_ALL_INSTANCE(GPIOx));
  assert_param(IS_GPIO_PIN(GPIO_Init->Pin));
  assert_param(IS_GPIO_MODE(GPIO_Init->Mode));

  /* Configure the port pins */
  for(position = 0U; position < GPIO_NUMBER; position++)
 800385e:	2300      	movs	r3, #0
 8003860:	61fb      	str	r3, [r7, #28]
 8003862:	e177      	b.n	8003b54 <HAL_GPIO_Init+0x30c>
  {
    /* Get the IO position */
    ioposition = 0x01U << position;
 8003864:	2201      	movs	r2, #1
 8003866:	69fb      	ldr	r3, [r7, #28]
 8003868:	fa02 f303 	lsl.w	r3, r2, r3
 800386c:	617b      	str	r3, [r7, #20]
    /* Get the current IO position */
    iocurrent = (uint32_t)(GPIO_Init->Pin) & ioposition;
 800386e:	683b      	ldr	r3, [r7, #0]
 8003870:	681b      	ldr	r3, [r3, #0]
 8003872:	697a      	ldr	r2, [r7, #20]
 8003874:	4013      	ands	r3, r2
 8003876:	613b      	str	r3, [r7, #16]

    if(iocurrent == ioposition)
 8003878:	693a      	ldr	r2, [r7, #16]
 800387a:	697b      	ldr	r3, [r7, #20]
 800387c:	429a      	cmp	r2, r3
 800387e:	f040 8166 	bne.w	8003b4e <HAL_GPIO_Init+0x306>
    {
      /*--------------------- GPIO Mode Configuration ------------------------*/
      /* In case of Output or Alternate function mode selection */
      if(((GPIO_Init->Mode & GPIO_MODE) == MODE_OUTPUT) || \
 8003882:	683b      	ldr	r3, [r7, #0]
 8003884:	685b      	ldr	r3, [r3, #4]
 8003886:	f003 0303 	and.w	r3, r3, #3
 800388a:	2b01      	cmp	r3, #1
 800388c:	d005      	beq.n	800389a <HAL_GPIO_Init+0x52>
          (GPIO_Init->Mode & GPIO_MODE) == MODE_AF)
 800388e:	683b      	ldr	r3, [r7, #0]
 8003890:	685b      	ldr	r3, [r3, #4]
 8003892:	f003 0303 	and.w	r3, r3, #3
      if(((GPIO_Init->Mode & GPIO_MODE) == MODE_OUTPUT) || \
 8003896:	2b02      	cmp	r3, #2
 8003898:	d130      	bne.n	80038fc <HAL_GPIO_Init+0xb4>
      {
        /* Check the Speed parameter */
        assert_param(IS_GPIO_SPEED(GPIO_Init->Speed));
        /* Configure the IO Speed */
        temp = GPIOx->OSPEEDR; 
 800389a:	687b      	ldr	r3, [r7, #4]
 800389c:	689b      	ldr	r3, [r3, #8]
 800389e:	61bb      	str	r3, [r7, #24]
        temp &= ~(GPIO_OSPEEDER_OSPEEDR0 << (position * 2U));
 80038a0:	69fb      	ldr	r3, [r7, #28]
 80038a2:	005b      	lsls	r3, r3, #1
 80038a4:	2203      	movs	r2, #3
 80038a6:	fa02 f303 	lsl.w	r3, r2, r3
 80038aa:	43db      	mvns	r3, r3
 80038ac:	69ba      	ldr	r2, [r7, #24]
 80038ae:	4013      	ands	r3, r2
 80038b0:	61bb      	str	r3, [r7, #24]
        temp |= (GPIO_Init->Speed << (position * 2U));
 80038b2:	683b      	ldr	r3, [r7, #0]
 80038b4:	68da      	ldr	r2, [r3, #12]
 80038b6:	69fb      	ldr	r3, [r7, #28]
 80038b8:	005b      	lsls	r3, r3, #1
 80038ba:	fa02 f303 	lsl.w	r3, r2, r3
 80038be:	69ba      	ldr	r2, [r7, #24]
 80038c0:	4313      	orrs	r3, r2
 80038c2:	61bb      	str	r3, [r7, #24]
        GPIOx->OSPEEDR = temp;
 80038c4:	687b      	ldr	r3, [r7, #4]
 80038c6:	69ba      	ldr	r2, [r7, #24]
 80038c8:	609a      	str	r2, [r3, #8]

        /* Configure the IO Output Type */
        temp = GPIOx->OTYPER;
 80038ca:	687b      	ldr	r3, [r7, #4]
 80038cc:	685b      	ldr	r3, [r3, #4]
 80038ce:	61bb      	str	r3, [r7, #24]
        temp &= ~(GPIO_OTYPER_OT_0 << position) ;
 80038d0:	2201      	movs	r2, #1
 80038d2:	69fb      	ldr	r3, [r7, #28]
 80038d4:	fa02 f303 	lsl.w	r3, r2, r3
 80038d8:	43db      	mvns	r3, r3
 80038da:	69ba      	ldr	r2, [r7, #24]
 80038dc:	4013      	ands	r3, r2
 80038de:	61bb      	str	r3, [r7, #24]
        temp |= (((GPIO_Init->Mode & OUTPUT_TYPE) >> OUTPUT_TYPE_Pos) << position);
 80038e0:	683b      	ldr	r3, [r7, #0]
 80038e2:	685b      	ldr	r3, [r3, #4]
 80038e4:	091b      	lsrs	r3, r3, #4
 80038e6:	f003 0201 	and.w	r2, r3, #1
 80038ea:	69fb      	ldr	r3, [r7, #28]
 80038ec:	fa02 f303 	lsl.w	r3, r2, r3
 80038f0:	69ba      	ldr	r2, [r7, #24]
 80038f2:	4313      	orrs	r3, r2
 80038f4:	61bb      	str	r3, [r7, #24]
        GPIOx->OTYPER = temp;
 80038f6:	687b      	ldr	r3, [r7, #4]
 80038f8:	69ba      	ldr	r2, [r7, #24]
 80038fa:	605a      	str	r2, [r3, #4]
       }

      if((GPIO_Init->Mode & GPIO_MODE) != MODE_ANALOG)
 80038fc:	683b      	ldr	r3, [r7, #0]
 80038fe:	685b      	ldr	r3, [r3, #4]
 8003900:	f003 0303 	and.w	r3, r3, #3
 8003904:	2b03      	cmp	r3, #3
 8003906:	d017      	beq.n	8003938 <HAL_GPIO_Init+0xf0>
      {
        /* Check the parameters */
        assert_param(IS_GPIO_PULL(GPIO_Init->Pull));
        
        /* Activate the Pull-up or Pull down resistor for the current IO */
        temp = GPIOx->PUPDR;
 8003908:	687b      	ldr	r3, [r7, #4]
 800390a:	68db      	ldr	r3, [r3, #12]
 800390c:	61bb      	str	r3, [r7, #24]
        temp &= ~(GPIO_PUPDR_PUPDR0 << (position * 2U));
 800390e:	69fb      	ldr	r3, [r7, #28]
 8003910:	005b      	lsls	r3, r3, #1
 8003912:	2203      	movs	r2, #3
 8003914:	fa02 f303 	lsl.w	r3, r2, r3
 8003918:	43db      	mvns	r3, r3
 800391a:	69ba      	ldr	r2, [r7, #24]
 800391c:	4013      	ands	r3, r2
 800391e:	61bb      	str	r3, [r7, #24]
        temp |= ((GPIO_Init->Pull) << (position * 2U));
 8003920:	683b      	ldr	r3, [r7, #0]
 8003922:	689a      	ldr	r2, [r3, #8]
 8003924:	69fb      	ldr	r3, [r7, #28]
 8003926:	005b      	lsls	r3, r3, #1
 8003928:	fa02 f303 	lsl.w	r3, r2, r3
 800392c:	69ba      	ldr	r2, [r7, #24]
 800392e:	4313      	orrs	r3, r2
 8003930:	61bb      	str	r3, [r7, #24]
        GPIOx->PUPDR = temp;
 8003932:	687b      	ldr	r3, [r7, #4]
 8003934:	69ba      	ldr	r2, [r7, #24]
 8003936:	60da      	str	r2, [r3, #12]
      }

      /* In case of Alternate function mode selection */
      if((GPIO_Init->Mode & GPIO_MODE) == MODE_AF)
 8003938:	683b      	ldr	r3, [r7, #0]
 800393a:	685b      	ldr	r3, [r3, #4]
 800393c:	f003 0303 	and.w	r3, r3, #3
 8003940:	2b02      	cmp	r3, #2
 8003942:	d123      	bne.n	800398c <HAL_GPIO_Init+0x144>
      {
        /* Check the Alternate function parameter */
        assert_param(IS_GPIO_AF(GPIO_Init->Alternate));
        /* Configure Alternate function mapped with the current IO */
        temp = GPIOx->AFR[position >> 3U];
 8003944:	69fb      	ldr	r3, [r7, #28]
 8003946:	08da      	lsrs	r2, r3, #3
 8003948:	687b      	ldr	r3, [r7, #4]
 800394a:	3208      	adds	r2, #8
 800394c:	f853 3022 	ldr.w	r3, [r3, r2, lsl #2]
 8003950:	61bb      	str	r3, [r7, #24]
        temp &= ~(0xFU << ((uint32_t)(position & 0x07U) * 4U)) ;
 8003952:	69fb      	ldr	r3, [r7, #28]
 8003954:	f003 0307 	and.w	r3, r3, #7
 8003958:	009b      	lsls	r3, r3, #2
 800395a:	220f      	movs	r2, #15
 800395c:	fa02 f303 	lsl.w	r3, r2, r3
 8003960:	43db      	mvns	r3, r3
 8003962:	69ba      	ldr	r2, [r7, #24]
 8003964:	4013      	ands	r3, r2
 8003966:	61bb      	str	r3, [r7, #24]
        temp |= ((uint32_t)(GPIO_Init->Alternate) << (((uint32_t)position & 0x07U) * 4U));
 8003968:	683b      	ldr	r3, [r7, #0]
 800396a:	691a      	ldr	r2, [r3, #16]
 800396c:	69fb      	ldr	r3, [r7, #28]
 800396e:	f003 0307 	and.w	r3, r3, #7
 8003972:	009b      	lsls	r3, r3, #2
 8003974:	fa02 f303 	lsl.w	r3, r2, r3
 8003978:	69ba      	ldr	r2, [r7, #24]
 800397a:	4313      	orrs	r3, r2
 800397c:	61bb      	str	r3, [r7, #24]
        GPIOx->AFR[position >> 3U] = temp;
 800397e:	69fb      	ldr	r3, [r7, #28]
 8003980:	08da      	lsrs	r2, r3, #3
 8003982:	687b      	ldr	r3, [r7, #4]
 8003984:	3208      	adds	r2, #8
 8003986:	69b9      	ldr	r1, [r7, #24]
 8003988:	f843 1022 	str.w	r1, [r3, r2, lsl #2]
      }

      /* Configure IO Direction mode (Input, Output, Alternate or Analog) */
      temp = GPIOx->MODER;
 800398c:	687b      	ldr	r3, [r7, #4]
 800398e:	681b      	ldr	r3, [r3, #0]
 8003990:	61bb      	str	r3, [r7, #24]
      temp &= ~(GPIO_MODER_MODER0 << (position * 2U));
 8003992:	69fb      	ldr	r3, [r7, #28]
 8003994:	005b      	lsls	r3, r3, #1
 8003996:	2203      	movs	r2, #3
 8003998:	fa02 f303 	lsl.w	r3, r2, r3
 800399c:	43db      	mvns	r3, r3
 800399e:	69ba      	ldr	r2, [r7, #24]
 80039a0:	4013      	ands	r3, r2
 80039a2:	61bb      	str	r3, [r7, #24]
      temp |= ((GPIO_Init->Mode & GPIO_MODE) << (position * 2U));
 80039a4:	683b      	ldr	r3, [r7, #0]
 80039a6:	685b      	ldr	r3, [r3, #4]
 80039a8:	f003 0203 	and.w	r2, r3, #3
 80039ac:	69fb      	ldr	r3, [r7, #28]
 80039ae:	005b      	lsls	r3, r3, #1
 80039b0:	fa02 f303 	lsl.w	r3, r2, r3
 80039b4:	69ba      	ldr	r2, [r7, #24]
 80039b6:	4313      	orrs	r3, r2
 80039b8:	61bb      	str	r3, [r7, #24]
      GPIOx->MODER = temp;
 80039ba:	687b      	ldr	r3, [r7, #4]
 80039bc:	69ba      	ldr	r2, [r7, #24]
 80039be:	601a      	str	r2, [r3, #0]

      /*--------------------- EXTI Mode Configuration ------------------------*/
      /* Configure the External Interrupt or event for the current IO */
      if((GPIO_Init->Mode & EXTI_MODE) != 0x00U)
 80039c0:	683b      	ldr	r3, [r7, #0]
 80039c2:	685b      	ldr	r3, [r3, #4]
 80039c4:	f403 3340 	and.w	r3, r3, #196608	; 0x30000
 80039c8:	2b00      	cmp	r3, #0
 80039ca:	f000 80c0 	beq.w	8003b4e <HAL_GPIO_Init+0x306>
      {
        /* Enable SYSCFG Clock */
        __HAL_RCC_SYSCFG_CLK_ENABLE();
 80039ce:	2300      	movs	r3, #0
 80039d0:	60fb      	str	r3, [r7, #12]
 80039d2:	4b66      	ldr	r3, [pc, #408]	; (8003b6c <HAL_GPIO_Init+0x324>)
 80039d4:	6c5b      	ldr	r3, [r3, #68]	; 0x44
 80039d6:	4a65      	ldr	r2, [pc, #404]	; (8003b6c <HAL_GPIO_Init+0x324>)
 80039d8:	f443 4380 	orr.w	r3, r3, #16384	; 0x4000
 80039dc:	6453      	str	r3, [r2, #68]	; 0x44
 80039de:	4b63      	ldr	r3, [pc, #396]	; (8003b6c <HAL_GPIO_Init+0x324>)
 80039e0:	6c5b      	ldr	r3, [r3, #68]	; 0x44
 80039e2:	f403 4380 	and.w	r3, r3, #16384	; 0x4000
 80039e6:	60fb      	str	r3, [r7, #12]
 80039e8:	68fb      	ldr	r3, [r7, #12]

        temp = SYSCFG->EXTICR[position >> 2U];
 80039ea:	4a61      	ldr	r2, [pc, #388]	; (8003b70 <HAL_GPIO_Init+0x328>)
 80039ec:	69fb      	ldr	r3, [r7, #28]
 80039ee:	089b      	lsrs	r3, r3, #2
 80039f0:	3302      	adds	r3, #2
 80039f2:	f852 3023 	ldr.w	r3, [r2, r3, lsl #2]
 80039f6:	61bb      	str	r3, [r7, #24]
        temp &= ~(0x0FU << (4U * (position & 0x03U)));
 80039f8:	69fb      	ldr	r3, [r7, #28]
 80039fa:	f003 0303 	and.w	r3, r3, #3
 80039fe:	009b      	lsls	r3, r3, #2
 8003a00:	220f      	movs	r2, #15
 8003a02:	fa02 f303 	lsl.w	r3, r2, r3
 8003a06:	43db      	mvns	r3, r3
 8003a08:	69ba      	ldr	r2, [r7, #24]
 8003a0a:	4013      	ands	r3, r2
 8003a0c:	61bb      	str	r3, [r7, #24]
        temp |= ((uint32_t)(GPIO_GET_INDEX(GPIOx)) << (4U * (position & 0x03U)));
 8003a0e:	687b      	ldr	r3, [r7, #4]
 8003a10:	4a58      	ldr	r2, [pc, #352]	; (8003b74 <HAL_GPIO_Init+0x32c>)
 8003a12:	4293      	cmp	r3, r2
 8003a14:	d037      	beq.n	8003a86 <HAL_GPIO_Init+0x23e>
 8003a16:	687b      	ldr	r3, [r7, #4]
 8003a18:	4a57      	ldr	r2, [pc, #348]	; (8003b78 <HAL_GPIO_Init+0x330>)
 8003a1a:	4293      	cmp	r3, r2
 8003a1c:	d031      	beq.n	8003a82 <HAL_GPIO_Init+0x23a>
 8003a1e:	687b      	ldr	r3, [r7, #4]
 8003a20:	4a56      	ldr	r2, [pc, #344]	; (8003b7c <HAL_GPIO_Init+0x334>)
 8003a22:	4293      	cmp	r3, r2
 8003a24:	d02b      	beq.n	8003a7e <HAL_GPIO_Init+0x236>
 8003a26:	687b      	ldr	r3, [r7, #4]
 8003a28:	4a55      	ldr	r2, [pc, #340]	; (8003b80 <HAL_GPIO_Init+0x338>)
 8003a2a:	4293      	cmp	r3, r2
 8003a2c:	d025      	beq.n	8003a7a <HAL_GPIO_Init+0x232>
 8003a2e:	687b      	ldr	r3, [r7, #4]
 8003a30:	4a54      	ldr	r2, [pc, #336]	; (8003b84 <HAL_GPIO_Init+0x33c>)
 8003a32:	4293      	cmp	r3, r2
 8003a34:	d01f      	beq.n	8003a76 <HAL_GPIO_Init+0x22e>
 8003a36:	687b      	ldr	r3, [r7, #4]
 8003a38:	4a53      	ldr	r2, [pc, #332]	; (8003b88 <HAL_GPIO_Init+0x340>)
 8003a3a:	4293      	cmp	r3, r2
 8003a3c:	d019      	beq.n	8003a72 <HAL_GPIO_Init+0x22a>
 8003a3e:	687b      	ldr	r3, [r7, #4]
 8003a40:	4a52      	ldr	r2, [pc, #328]	; (8003b8c <HAL_GPIO_Init+0x344>)
 8003a42:	4293      	cmp	r3, r2
 8003a44:	d013      	beq.n	8003a6e <HAL_GPIO_Init+0x226>
 8003a46:	687b      	ldr	r3, [r7, #4]
 8003a48:	4a51      	ldr	r2, [pc, #324]	; (8003b90 <HAL_GPIO_Init+0x348>)
 8003a4a:	4293      	cmp	r3, r2
 8003a4c:	d00d      	beq.n	8003a6a <HAL_GPIO_Init+0x222>
 8003a4e:	687b      	ldr	r3, [r7, #4]
 8003a50:	4a50      	ldr	r2, [pc, #320]	; (8003b94 <HAL_GPIO_Init+0x34c>)
 8003a52:	4293      	cmp	r3, r2
 8003a54:	d007      	beq.n	8003a66 <HAL_GPIO_Init+0x21e>
 8003a56:	687b      	ldr	r3, [r7, #4]
 8003a58:	4a4f      	ldr	r2, [pc, #316]	; (8003b98 <HAL_GPIO_Init+0x350>)
 8003a5a:	4293      	cmp	r3, r2
 8003a5c:	d101      	bne.n	8003a62 <HAL_GPIO_Init+0x21a>
 8003a5e:	2309      	movs	r3, #9
 8003a60:	e012      	b.n	8003a88 <HAL_GPIO_Init+0x240>
 8003a62:	230a      	movs	r3, #10
 8003a64:	e010      	b.n	8003a88 <HAL_GPIO_Init+0x240>
 8003a66:	2308      	movs	r3, #8
 8003a68:	e00e      	b.n	8003a88 <HAL_GPIO_Init+0x240>
 8003a6a:	2307      	movs	r3, #7
 8003a6c:	e00c      	b.n	8003a88 <HAL_GPIO_Init+0x240>
 8003a6e:	2306      	movs	r3, #6
 8003a70:	e00a      	b.n	8003a88 <HAL_GPIO_Init+0x240>
 8003a72:	2305      	movs	r3, #5
 8003a74:	e008      	b.n	8003a88 <HAL_GPIO_Init+0x240>
 8003a76:	2304      	movs	r3, #4
 8003a78:	e006      	b.n	8003a88 <HAL_GPIO_Init+0x240>
 8003a7a:	2303      	movs	r3, #3
 8003a7c:	e004      	b.n	8003a88 <HAL_GPIO_Init+0x240>
 8003a7e:	2302      	movs	r3, #2
 8003a80:	e002      	b.n	8003a88 <HAL_GPIO_Init+0x240>
 8003a82:	2301      	movs	r3, #1
 8003a84:	e000      	b.n	8003a88 <HAL_GPIO_Init+0x240>
 8003a86:	2300      	movs	r3, #0
 8003a88:	69fa      	ldr	r2, [r7, #28]
 8003a8a:	f002 0203 	and.w	r2, r2, #3
 8003a8e:	0092      	lsls	r2, r2, #2
 8003a90:	4093      	lsls	r3, r2
 8003a92:	69ba      	ldr	r2, [r7, #24]
 8003a94:	4313      	orrs	r3, r2
 8003a96:	61bb      	str	r3, [r7, #24]
        SYSCFG->EXTICR[position >> 2U] = temp;
 8003a98:	4935      	ldr	r1, [pc, #212]	; (8003b70 <HAL_GPIO_Init+0x328>)
 8003a9a:	69fb      	ldr	r3, [r7, #28]
 8003a9c:	089b      	lsrs	r3, r3, #2
 8003a9e:	3302      	adds	r3, #2
 8003aa0:	69ba      	ldr	r2, [r7, #24]
 8003aa2:	f841 2023 	str.w	r2, [r1, r3, lsl #2]

        /* Clear Rising Falling edge configuration */
        temp = EXTI->RTSR;
 8003aa6:	4b3d      	ldr	r3, [pc, #244]	; (8003b9c <HAL_GPIO_Init+0x354>)
 8003aa8:	689b      	ldr	r3, [r3, #8]
 8003aaa:	61bb      	str	r3, [r7, #24]
        temp &= ~((uint32_t)iocurrent);
 8003aac:	693b      	ldr	r3, [r7, #16]
 8003aae:	43db      	mvns	r3, r3
 8003ab0:	69ba      	ldr	r2, [r7, #24]
 8003ab2:	4013      	ands	r3, r2
 8003ab4:	61bb      	str	r3, [r7, #24]
        if((GPIO_Init->Mode & TRIGGER_RISING) != 0x00U)
 8003ab6:	683b      	ldr	r3, [r7, #0]
 8003ab8:	685b      	ldr	r3, [r3, #4]
 8003aba:	f403 1380 	and.w	r3, r3, #1048576	; 0x100000
 8003abe:	2b00      	cmp	r3, #0
 8003ac0:	d003      	beq.n	8003aca <HAL_GPIO_Init+0x282>
        {
          temp |= iocurrent;
 8003ac2:	69ba      	ldr	r2, [r7, #24]
 8003ac4:	693b      	ldr	r3, [r7, #16]
 8003ac6:	4313      	orrs	r3, r2
 8003ac8:	61bb      	str	r3, [r7, #24]
        }
        EXTI->RTSR = temp;
 8003aca:	4a34      	ldr	r2, [pc, #208]	; (8003b9c <HAL_GPIO_Init+0x354>)
 8003acc:	69bb      	ldr	r3, [r7, #24]
 8003ace:	6093      	str	r3, [r2, #8]

        temp = EXTI->FTSR;
 8003ad0:	4b32      	ldr	r3, [pc, #200]	; (8003b9c <HAL_GPIO_Init+0x354>)
 8003ad2:	68db      	ldr	r3, [r3, #12]
 8003ad4:	61bb      	str	r3, [r7, #24]
        temp &= ~((uint32_t)iocurrent);
 8003ad6:	693b      	ldr	r3, [r7, #16]
 8003ad8:	43db      	mvns	r3, r3
 8003ada:	69ba      	ldr	r2, [r7, #24]
 8003adc:	4013      	ands	r3, r2
 8003ade:	61bb      	str	r3, [r7, #24]
        if((GPIO_Init->Mode & TRIGGER_FALLING) != 0x00U)
 8003ae0:	683b      	ldr	r3, [r7, #0]
 8003ae2:	685b      	ldr	r3, [r3, #4]
 8003ae4:	f403 1300 	and.w	r3, r3, #2097152	; 0x200000
 8003ae8:	2b00      	cmp	r3, #0
 8003aea:	d003      	beq.n	8003af4 <HAL_GPIO_Init+0x2ac>
        {
          temp |= iocurrent;
 8003aec:	69ba      	ldr	r2, [r7, #24]
 8003aee:	693b      	ldr	r3, [r7, #16]
 8003af0:	4313      	orrs	r3, r2
 8003af2:	61bb      	str	r3, [r7, #24]
        }
        EXTI->FTSR = temp;
 8003af4:	4a29      	ldr	r2, [pc, #164]	; (8003b9c <HAL_GPIO_Init+0x354>)
 8003af6:	69bb      	ldr	r3, [r7, #24]
 8003af8:	60d3      	str	r3, [r2, #12]

        temp = EXTI->EMR;
 8003afa:	4b28      	ldr	r3, [pc, #160]	; (8003b9c <HAL_GPIO_Init+0x354>)
 8003afc:	685b      	ldr	r3, [r3, #4]
 8003afe:	61bb      	str	r3, [r7, #24]
        temp &= ~((uint32_t)iocurrent);
 8003b00:	693b      	ldr	r3, [r7, #16]
 8003b02:	43db      	mvns	r3, r3
 8003b04:	69ba      	ldr	r2, [r7, #24]
 8003b06:	4013      	ands	r3, r2
 8003b08:	61bb      	str	r3, [r7, #24]
        if((GPIO_Init->Mode & EXTI_EVT) != 0x00U)
 8003b0a:	683b      	ldr	r3, [r7, #0]
 8003b0c:	685b      	ldr	r3, [r3, #4]
 8003b0e:	f403 3300 	and.w	r3, r3, #131072	; 0x20000
 8003b12:	2b00      	cmp	r3, #0
 8003b14:	d003      	beq.n	8003b1e <HAL_GPIO_Init+0x2d6>
        {
          temp |= iocurrent;
 8003b16:	69ba      	ldr	r2, [r7, #24]
 8003b18:	693b      	ldr	r3, [r7, #16]
 8003b1a:	4313      	orrs	r3, r2
 8003b1c:	61bb      	str	r3, [r7, #24]
        }
        EXTI->EMR = temp;
 8003b1e:	4a1f      	ldr	r2, [pc, #124]	; (8003b9c <HAL_GPIO_Init+0x354>)
 8003b20:	69bb      	ldr	r3, [r7, #24]
 8003b22:	6053      	str	r3, [r2, #4]

        /* Clear EXTI line configuration */
        temp = EXTI->IMR;
 8003b24:	4b1d      	ldr	r3, [pc, #116]	; (8003b9c <HAL_GPIO_Init+0x354>)
 8003b26:	681b      	ldr	r3, [r3, #0]
 8003b28:	61bb      	str	r3, [r7, #24]
        temp &= ~((uint32_t)iocurrent);
 8003b2a:	693b      	ldr	r3, [r7, #16]
 8003b2c:	43db      	mvns	r3, r3
 8003b2e:	69ba      	ldr	r2, [r7, #24]
 8003b30:	4013      	ands	r3, r2
 8003b32:	61bb      	str	r3, [r7, #24]
        if((GPIO_Init->Mode & EXTI_IT) != 0x00U)
 8003b34:	683b      	ldr	r3, [r7, #0]
 8003b36:	685b      	ldr	r3, [r3, #4]
 8003b38:	f403 3380 	and.w	r3, r3, #65536	; 0x10000
 8003b3c:	2b00      	cmp	r3, #0
 8003b3e:	d003      	beq.n	8003b48 <HAL_GPIO_Init+0x300>
        {
          temp |= iocurrent;
 8003b40:	69ba      	ldr	r2, [r7, #24]
 8003b42:	693b      	ldr	r3, [r7, #16]
 8003b44:	4313      	orrs	r3, r2
 8003b46:	61bb      	str	r3, [r7, #24]
        }
        EXTI->IMR = temp;
 8003b48:	4a14      	ldr	r2, [pc, #80]	; (8003b9c <HAL_GPIO_Init+0x354>)
 8003b4a:	69bb      	ldr	r3, [r7, #24]
 8003b4c:	6013      	str	r3, [r2, #0]
  for(position = 0U; position < GPIO_NUMBER; position++)
 8003b4e:	69fb      	ldr	r3, [r7, #28]
 8003b50:	3301      	adds	r3, #1
 8003b52:	61fb      	str	r3, [r7, #28]
 8003b54:	69fb      	ldr	r3, [r7, #28]
 8003b56:	2b0f      	cmp	r3, #15
 8003b58:	f67f ae84 	bls.w	8003864 <HAL_GPIO_Init+0x1c>
      }
    }
  }
}
 8003b5c:	bf00      	nop
 8003b5e:	bf00      	nop
 8003b60:	3724      	adds	r7, #36	; 0x24
 8003b62:	46bd      	mov	sp, r7
 8003b64:	f85d 7b04 	ldr.w	r7, [sp], #4
 8003b68:	4770      	bx	lr
 8003b6a:	bf00      	nop
 8003b6c:	40023800 	.word	0x40023800
 8003b70:	40013800 	.word	0x40013800
 8003b74:	40020000 	.word	0x40020000
 8003b78:	40020400 	.word	0x40020400
 8003b7c:	40020800 	.word	0x40020800
 8003b80:	40020c00 	.word	0x40020c00
 8003b84:	40021000 	.word	0x40021000
 8003b88:	40021400 	.word	0x40021400
 8003b8c:	40021800 	.word	0x40021800
 8003b90:	40021c00 	.word	0x40021c00
 8003b94:	40022000 	.word	0x40022000
 8003b98:	40022400 	.word	0x40022400
 8003b9c:	40013c00 	.word	0x40013c00

08003ba0 <HAL_GPIO_ReadPin>:
  * @param  GPIO_Pin specifies the port bit to read.
  *         This parameter can be GPIO_PIN_x where x can be (0..15).
  * @retval The input port pin value.
  */
GPIO_PinState HAL_GPIO_ReadPin(GPIO_TypeDef* GPIOx, uint16_t GPIO_Pin)
{
 8003ba0:	b480      	push	{r7}
 8003ba2:	b085      	sub	sp, #20
 8003ba4:	af00      	add	r7, sp, #0
 8003ba6:	6078      	str	r0, [r7, #4]
 8003ba8:	460b      	mov	r3, r1
 8003baa:	807b      	strh	r3, [r7, #2]
  GPIO_PinState bitstatus;

  /* Check the parameters */
  assert_param(IS_GPIO_PIN(GPIO_Pin));

  if((GPIOx->IDR & GPIO_Pin) != (uint32_t)GPIO_PIN_RESET)
 8003bac:	687b      	ldr	r3, [r7, #4]
 8003bae:	691a      	ldr	r2, [r3, #16]
 8003bb0:	887b      	ldrh	r3, [r7, #2]
 8003bb2:	4013      	ands	r3, r2
 8003bb4:	2b00      	cmp	r3, #0
 8003bb6:	d002      	beq.n	8003bbe <HAL_GPIO_ReadPin+0x1e>
  {
    bitstatus = GPIO_PIN_SET;
 8003bb8:	2301      	movs	r3, #1
 8003bba:	73fb      	strb	r3, [r7, #15]
 8003bbc:	e001      	b.n	8003bc2 <HAL_GPIO_ReadPin+0x22>
  }
  else
  {
    bitstatus = GPIO_PIN_RESET;
 8003bbe:	2300      	movs	r3, #0
 8003bc0:	73fb      	strb	r3, [r7, #15]
  }
  return bitstatus;
 8003bc2:	7bfb      	ldrb	r3, [r7, #15]
}
 8003bc4:	4618      	mov	r0, r3
 8003bc6:	3714      	adds	r7, #20
 8003bc8:	46bd      	mov	sp, r7
 8003bca:	f85d 7b04 	ldr.w	r7, [sp], #4
 8003bce:	4770      	bx	lr

08003bd0 <HAL_GPIO_WritePin>:
  *            @arg GPIO_PIN_RESET: to clear the port pin
  *            @arg GPIO_PIN_SET: to set the port pin
  * @retval None
  */
void HAL_GPIO_WritePin(GPIO_TypeDef* GPIOx, uint16_t GPIO_Pin, GPIO_PinState PinState)
{
 8003bd0:	b480      	push	{r7}
 8003bd2:	b083      	sub	sp, #12
 8003bd4:	af00      	add	r7, sp, #0
 8003bd6:	6078      	str	r0, [r7, #4]
 8003bd8:	460b      	mov	r3, r1
 8003bda:	807b      	strh	r3, [r7, #2]
 8003bdc:	4613      	mov	r3, r2
 8003bde:	707b      	strb	r3, [r7, #1]
  /* Check the parameters */
  assert_param(IS_GPIO_PIN(GPIO_Pin));
  assert_param(IS_GPIO_PIN_ACTION(PinState));

  if(PinState != GPIO_PIN_RESET)
 8003be0:	787b      	ldrb	r3, [r7, #1]
 8003be2:	2b00      	cmp	r3, #0
 8003be4:	d003      	beq.n	8003bee <HAL_GPIO_WritePin+0x1e>
  {
    GPIOx->BSRR = GPIO_Pin;
 8003be6:	887a      	ldrh	r2, [r7, #2]
 8003be8:	687b      	ldr	r3, [r7, #4]
 8003bea:	619a      	str	r2, [r3, #24]
  }
  else
  {
    GPIOx->BSRR = (uint32_t)GPIO_Pin << 16U;
  }
}
 8003bec:	e003      	b.n	8003bf6 <HAL_GPIO_WritePin+0x26>
    GPIOx->BSRR = (uint32_t)GPIO_Pin << 16U;
 8003bee:	887b      	ldrh	r3, [r7, #2]
 8003bf0:	041a      	lsls	r2, r3, #16
 8003bf2:	687b      	ldr	r3, [r7, #4]
 8003bf4:	619a      	str	r2, [r3, #24]
}
 8003bf6:	bf00      	nop
 8003bf8:	370c      	adds	r7, #12
 8003bfa:	46bd      	mov	sp, r7
 8003bfc:	f85d 7b04 	ldr.w	r7, [sp], #4
 8003c00:	4770      	bx	lr

08003c02 <HAL_GPIO_TogglePin>:
  *                      x can be (A..I) to select the GPIO peripheral for STM32F40XX and STM32F427X devices.
  * @param  GPIO_Pin Specifies the pins to be toggled.
  * @retval None
  */
void HAL_GPIO_TogglePin(GPIO_TypeDef* GPIOx, uint16_t GPIO_Pin)
{
 8003c02:	b480      	push	{r7}
 8003c04:	b085      	sub	sp, #20
 8003c06:	af00      	add	r7, sp, #0
 8003c08:	6078      	str	r0, [r7, #4]
 8003c0a:	460b      	mov	r3, r1
 8003c0c:	807b      	strh	r3, [r7, #2]

  /* Check the parameters */
  assert_param(IS_GPIO_PIN(GPIO_Pin));

  /* get current Output Data Register value */
  odr = GPIOx->ODR;
 8003c0e:	687b      	ldr	r3, [r7, #4]
 8003c10:	695b      	ldr	r3, [r3, #20]
 8003c12:	60fb      	str	r3, [r7, #12]

  /* Set selected pins that were at low level, and reset ones that were high */
  GPIOx->BSRR = ((odr & GPIO_Pin) << GPIO_NUMBER) | (~odr & GPIO_Pin);
 8003c14:	887a      	ldrh	r2, [r7, #2]
 8003c16:	68fb      	ldr	r3, [r7, #12]
 8003c18:	4013      	ands	r3, r2
 8003c1a:	041a      	lsls	r2, r3, #16
 8003c1c:	68fb      	ldr	r3, [r7, #12]
 8003c1e:	43d9      	mvns	r1, r3
 8003c20:	887b      	ldrh	r3, [r7, #2]
 8003c22:	400b      	ands	r3, r1
 8003c24:	431a      	orrs	r2, r3
 8003c26:	687b      	ldr	r3, [r7, #4]
 8003c28:	619a      	str	r2, [r3, #24]
}
 8003c2a:	bf00      	nop
 8003c2c:	3714      	adds	r7, #20
 8003c2e:	46bd      	mov	sp, r7
 8003c30:	f85d 7b04 	ldr.w	r7, [sp], #4
 8003c34:	4770      	bx	lr
	...

08003c38 <HAL_I2C_Init>:
  * @param  hi2c Pointer to a I2C_HandleTypeDef structure that contains
  *                the configuration information for the specified I2C.
  * @retval HAL status
  */
HAL_StatusTypeDef HAL_I2C_Init(I2C_HandleTypeDef *hi2c)
{
 8003c38:	b580      	push	{r7, lr}
 8003c3a:	b084      	sub	sp, #16
 8003c3c:	af00      	add	r7, sp, #0
 8003c3e:	6078      	str	r0, [r7, #4]
  uint32_t freqrange;
  uint32_t pclk1;

  /* Check the I2C handle allocation */
  if (hi2c == NULL)
 8003c40:	687b      	ldr	r3, [r7, #4]
 8003c42:	2b00      	cmp	r3, #0
 8003c44:	d101      	bne.n	8003c4a <HAL_I2C_Init+0x12>
  {
    return HAL_ERROR;
 8003c46:	2301      	movs	r3, #1
 8003c48:	e12b      	b.n	8003ea2 <HAL_I2C_Init+0x26a>
  assert_param(IS_I2C_DUAL_ADDRESS(hi2c->Init.DualAddressMode));
  assert_param(IS_I2C_OWN_ADDRESS2(hi2c->Init.OwnAddress2));
  assert_param(IS_I2C_GENERAL_CALL(hi2c->Init.GeneralCallMode));
  assert_param(IS_I2C_NO_STRETCH(hi2c->Init.NoStretchMode));

  if (hi2c->State == HAL_I2C_STATE_RESET)
 8003c4a:	687b      	ldr	r3, [r7, #4]
 8003c4c:	f893 303d 	ldrb.w	r3, [r3, #61]	; 0x3d
 8003c50:	b2db      	uxtb	r3, r3
 8003c52:	2b00      	cmp	r3, #0
 8003c54:	d106      	bne.n	8003c64 <HAL_I2C_Init+0x2c>
  {
    /* Allocate lock resource and initialize it */
    hi2c->Lock = HAL_UNLOCKED;
 8003c56:	687b      	ldr	r3, [r7, #4]
 8003c58:	2200      	movs	r2, #0
 8003c5a:	f883 203c 	strb.w	r2, [r3, #60]	; 0x3c

    /* Init the low level hardware : GPIO, CLOCK, NVIC */
    hi2c->MspInitCallback(hi2c);
#else
    /* Init the low level hardware : GPIO, CLOCK, NVIC */
    HAL_I2C_MspInit(hi2c);
 8003c5e:	6878      	ldr	r0, [r7, #4]
 8003c60:	f7fe fbd8 	bl	8002414 <HAL_I2C_MspInit>
#endif /* USE_HAL_I2C_REGISTER_CALLBACKS */
  }

  hi2c->State = HAL_I2C_STATE_BUSY;
 8003c64:	687b      	ldr	r3, [r7, #4]
 8003c66:	2224      	movs	r2, #36	; 0x24
 8003c68:	f883 203d 	strb.w	r2, [r3, #61]	; 0x3d

  /* Disable the selected I2C peripheral */
  __HAL_I2C_DISABLE(hi2c);
 8003c6c:	687b      	ldr	r3, [r7, #4]
 8003c6e:	681b      	ldr	r3, [r3, #0]
 8003c70:	681a      	ldr	r2, [r3, #0]
 8003c72:	687b      	ldr	r3, [r7, #4]
 8003c74:	681b      	ldr	r3, [r3, #0]
 8003c76:	f022 0201 	bic.w	r2, r2, #1
 8003c7a:	601a      	str	r2, [r3, #0]

  /*Reset I2C*/
  hi2c->Instance->CR1 |= I2C_CR1_SWRST;
 8003c7c:	687b      	ldr	r3, [r7, #4]
 8003c7e:	681b      	ldr	r3, [r3, #0]
 8003c80:	681a      	ldr	r2, [r3, #0]
 8003c82:	687b      	ldr	r3, [r7, #4]
 8003c84:	681b      	ldr	r3, [r3, #0]
 8003c86:	f442 4200 	orr.w	r2, r2, #32768	; 0x8000
 8003c8a:	601a      	str	r2, [r3, #0]
  hi2c->Instance->CR1 &= ~I2C_CR1_SWRST;
 8003c8c:	687b      	ldr	r3, [r7, #4]
 8003c8e:	681b      	ldr	r3, [r3, #0]
 8003c90:	681a      	ldr	r2, [r3, #0]
 8003c92:	687b      	ldr	r3, [r7, #4]
 8003c94:	681b      	ldr	r3, [r3, #0]
 8003c96:	f422 4200 	bic.w	r2, r2, #32768	; 0x8000
 8003c9a:	601a      	str	r2, [r3, #0]

  /* Get PCLK1 frequency */
  pclk1 = HAL_RCC_GetPCLK1Freq();
 8003c9c:	f001 fc72 	bl	8005584 <HAL_RCC_GetPCLK1Freq>
 8003ca0:	60f8      	str	r0, [r7, #12]

  /* Check the minimum allowed PCLK1 frequency */
  if (I2C_MIN_PCLK_FREQ(pclk1, hi2c->Init.ClockSpeed) == 1U)
 8003ca2:	687b      	ldr	r3, [r7, #4]
 8003ca4:	685b      	ldr	r3, [r3, #4]
 8003ca6:	4a81      	ldr	r2, [pc, #516]	; (8003eac <HAL_I2C_Init+0x274>)
 8003ca8:	4293      	cmp	r3, r2
 8003caa:	d807      	bhi.n	8003cbc <HAL_I2C_Init+0x84>
 8003cac:	68fb      	ldr	r3, [r7, #12]
 8003cae:	4a80      	ldr	r2, [pc, #512]	; (8003eb0 <HAL_I2C_Init+0x278>)
 8003cb0:	4293      	cmp	r3, r2
 8003cb2:	bf94      	ite	ls
 8003cb4:	2301      	movls	r3, #1
 8003cb6:	2300      	movhi	r3, #0
 8003cb8:	b2db      	uxtb	r3, r3
 8003cba:	e006      	b.n	8003cca <HAL_I2C_Init+0x92>
 8003cbc:	68fb      	ldr	r3, [r7, #12]
 8003cbe:	4a7d      	ldr	r2, [pc, #500]	; (8003eb4 <HAL_I2C_Init+0x27c>)
 8003cc0:	4293      	cmp	r3, r2
 8003cc2:	bf94      	ite	ls
 8003cc4:	2301      	movls	r3, #1
 8003cc6:	2300      	movhi	r3, #0
 8003cc8:	b2db      	uxtb	r3, r3
 8003cca:	2b00      	cmp	r3, #0
 8003ccc:	d001      	beq.n	8003cd2 <HAL_I2C_Init+0x9a>
  {
    return HAL_ERROR;
 8003cce:	2301      	movs	r3, #1
 8003cd0:	e0e7      	b.n	8003ea2 <HAL_I2C_Init+0x26a>
  }

  /* Calculate frequency range */
  freqrange = I2C_FREQRANGE(pclk1);
 8003cd2:	68fb      	ldr	r3, [r7, #12]
 8003cd4:	4a78      	ldr	r2, [pc, #480]	; (8003eb8 <HAL_I2C_Init+0x280>)
 8003cd6:	fba2 2303 	umull	r2, r3, r2, r3
 8003cda:	0c9b      	lsrs	r3, r3, #18
 8003cdc:	60bb      	str	r3, [r7, #8]

  /*---------------------------- I2Cx CR2 Configuration ----------------------*/
  /* Configure I2Cx: Frequency range */
  MODIFY_REG(hi2c->Instance->CR2, I2C_CR2_FREQ, freqrange);
 8003cde:	687b      	ldr	r3, [r7, #4]
 8003ce0:	681b      	ldr	r3, [r3, #0]
 8003ce2:	685b      	ldr	r3, [r3, #4]
 8003ce4:	f023 013f 	bic.w	r1, r3, #63	; 0x3f
 8003ce8:	687b      	ldr	r3, [r7, #4]
 8003cea:	681b      	ldr	r3, [r3, #0]
 8003cec:	68ba      	ldr	r2, [r7, #8]
 8003cee:	430a      	orrs	r2, r1
 8003cf0:	605a      	str	r2, [r3, #4]

  /*---------------------------- I2Cx TRISE Configuration --------------------*/
  /* Configure I2Cx: Rise Time */
  MODIFY_REG(hi2c->Instance->TRISE, I2C_TRISE_TRISE, I2C_RISE_TIME(freqrange, hi2c->Init.ClockSpeed));
 8003cf2:	687b      	ldr	r3, [r7, #4]
 8003cf4:	681b      	ldr	r3, [r3, #0]
 8003cf6:	6a1b      	ldr	r3, [r3, #32]
 8003cf8:	f023 013f 	bic.w	r1, r3, #63	; 0x3f
 8003cfc:	687b      	ldr	r3, [r7, #4]
 8003cfe:	685b      	ldr	r3, [r3, #4]
 8003d00:	4a6a      	ldr	r2, [pc, #424]	; (8003eac <HAL_I2C_Init+0x274>)
 8003d02:	4293      	cmp	r3, r2
 8003d04:	d802      	bhi.n	8003d0c <HAL_I2C_Init+0xd4>
 8003d06:	68bb      	ldr	r3, [r7, #8]
 8003d08:	3301      	adds	r3, #1
 8003d0a:	e009      	b.n	8003d20 <HAL_I2C_Init+0xe8>
 8003d0c:	68bb      	ldr	r3, [r7, #8]
 8003d0e:	f44f 7296 	mov.w	r2, #300	; 0x12c
 8003d12:	fb02 f303 	mul.w	r3, r2, r3
 8003d16:	4a69      	ldr	r2, [pc, #420]	; (8003ebc <HAL_I2C_Init+0x284>)
 8003d18:	fba2 2303 	umull	r2, r3, r2, r3
 8003d1c:	099b      	lsrs	r3, r3, #6
 8003d1e:	3301      	adds	r3, #1
 8003d20:	687a      	ldr	r2, [r7, #4]
 8003d22:	6812      	ldr	r2, [r2, #0]
 8003d24:	430b      	orrs	r3, r1
 8003d26:	6213      	str	r3, [r2, #32]

  /*---------------------------- I2Cx CCR Configuration ----------------------*/
  /* Configure I2Cx: Speed */
  MODIFY_REG(hi2c->Instance->CCR, (I2C_CCR_FS | I2C_CCR_DUTY | I2C_CCR_CCR), I2C_SPEED(pclk1, hi2c->Init.ClockSpeed, hi2c->Init.DutyCycle));
 8003d28:	687b      	ldr	r3, [r7, #4]
 8003d2a:	681b      	ldr	r3, [r3, #0]
 8003d2c:	69db      	ldr	r3, [r3, #28]
 8003d2e:	f423 424f 	bic.w	r2, r3, #52992	; 0xcf00
 8003d32:	f022 02ff 	bic.w	r2, r2, #255	; 0xff
 8003d36:	687b      	ldr	r3, [r7, #4]
 8003d38:	685b      	ldr	r3, [r3, #4]
 8003d3a:	495c      	ldr	r1, [pc, #368]	; (8003eac <HAL_I2C_Init+0x274>)
 8003d3c:	428b      	cmp	r3, r1
 8003d3e:	d819      	bhi.n	8003d74 <HAL_I2C_Init+0x13c>
 8003d40:	68fb      	ldr	r3, [r7, #12]
 8003d42:	1e59      	subs	r1, r3, #1
 8003d44:	687b      	ldr	r3, [r7, #4]
 8003d46:	685b      	ldr	r3, [r3, #4]
 8003d48:	005b      	lsls	r3, r3, #1
 8003d4a:	fbb1 f3f3 	udiv	r3, r1, r3
 8003d4e:	1c59      	adds	r1, r3, #1
 8003d50:	f640 73fc 	movw	r3, #4092	; 0xffc
 8003d54:	400b      	ands	r3, r1
 8003d56:	2b00      	cmp	r3, #0
 8003d58:	d00a      	beq.n	8003d70 <HAL_I2C_Init+0x138>
 8003d5a:	68fb      	ldr	r3, [r7, #12]
 8003d5c:	1e59      	subs	r1, r3, #1
 8003d5e:	687b      	ldr	r3, [r7, #4]
 8003d60:	685b      	ldr	r3, [r3, #4]
 8003d62:	005b      	lsls	r3, r3, #1
 8003d64:	fbb1 f3f3 	udiv	r3, r1, r3
 8003d68:	3301      	adds	r3, #1
 8003d6a:	f3c3 030b 	ubfx	r3, r3, #0, #12
 8003d6e:	e051      	b.n	8003e14 <HAL_I2C_Init+0x1dc>
 8003d70:	2304      	movs	r3, #4
 8003d72:	e04f      	b.n	8003e14 <HAL_I2C_Init+0x1dc>
 8003d74:	687b      	ldr	r3, [r7, #4]
 8003d76:	689b      	ldr	r3, [r3, #8]
 8003d78:	2b00      	cmp	r3, #0
 8003d7a:	d111      	bne.n	8003da0 <HAL_I2C_Init+0x168>
 8003d7c:	68fb      	ldr	r3, [r7, #12]
 8003d7e:	1e58      	subs	r0, r3, #1
 8003d80:	687b      	ldr	r3, [r7, #4]
 8003d82:	6859      	ldr	r1, [r3, #4]
 8003d84:	460b      	mov	r3, r1
 8003d86:	005b      	lsls	r3, r3, #1
 8003d88:	440b      	add	r3, r1
 8003d8a:	fbb0 f3f3 	udiv	r3, r0, r3
 8003d8e:	3301      	adds	r3, #1
 8003d90:	f3c3 030b 	ubfx	r3, r3, #0, #12
 8003d94:	2b00      	cmp	r3, #0
 8003d96:	bf0c      	ite	eq
 8003d98:	2301      	moveq	r3, #1
 8003d9a:	2300      	movne	r3, #0
 8003d9c:	b2db      	uxtb	r3, r3
 8003d9e:	e012      	b.n	8003dc6 <HAL_I2C_Init+0x18e>
 8003da0:	68fb      	ldr	r3, [r7, #12]
 8003da2:	1e58      	subs	r0, r3, #1
 8003da4:	687b      	ldr	r3, [r7, #4]
 8003da6:	6859      	ldr	r1, [r3, #4]
 8003da8:	460b      	mov	r3, r1
 8003daa:	009b      	lsls	r3, r3, #2
 8003dac:	440b      	add	r3, r1
 8003dae:	0099      	lsls	r1, r3, #2
 8003db0:	440b      	add	r3, r1
 8003db2:	fbb0 f3f3 	udiv	r3, r0, r3
 8003db6:	3301      	adds	r3, #1
 8003db8:	f3c3 030b 	ubfx	r3, r3, #0, #12
 8003dbc:	2b00      	cmp	r3, #0
 8003dbe:	bf0c      	ite	eq
 8003dc0:	2301      	moveq	r3, #1
 8003dc2:	2300      	movne	r3, #0
 8003dc4:	b2db      	uxtb	r3, r3
 8003dc6:	2b00      	cmp	r3, #0
 8003dc8:	d001      	beq.n	8003dce <HAL_I2C_Init+0x196>
 8003dca:	2301      	movs	r3, #1
 8003dcc:	e022      	b.n	8003e14 <HAL_I2C_Init+0x1dc>
 8003dce:	687b      	ldr	r3, [r7, #4]
 8003dd0:	689b      	ldr	r3, [r3, #8]
 8003dd2:	2b00      	cmp	r3, #0
 8003dd4:	d10e      	bne.n	8003df4 <HAL_I2C_Init+0x1bc>
 8003dd6:	68fb      	ldr	r3, [r7, #12]
 8003dd8:	1e58      	subs	r0, r3, #1
 8003dda:	687b      	ldr	r3, [r7, #4]
 8003ddc:	6859      	ldr	r1, [r3, #4]
 8003dde:	460b      	mov	r3, r1
 8003de0:	005b      	lsls	r3, r3, #1
 8003de2:	440b      	add	r3, r1
 8003de4:	fbb0 f3f3 	udiv	r3, r0, r3
 8003de8:	3301      	adds	r3, #1
 8003dea:	f3c3 030b 	ubfx	r3, r3, #0, #12
 8003dee:	f443 4300 	orr.w	r3, r3, #32768	; 0x8000
 8003df2:	e00f      	b.n	8003e14 <HAL_I2C_Init+0x1dc>
 8003df4:	68fb      	ldr	r3, [r7, #12]
 8003df6:	1e58      	subs	r0, r3, #1
 8003df8:	687b      	ldr	r3, [r7, #4]
 8003dfa:	6859      	ldr	r1, [r3, #4]
 8003dfc:	460b      	mov	r3, r1
 8003dfe:	009b      	lsls	r3, r3, #2
 8003e00:	440b      	add	r3, r1
 8003e02:	0099      	lsls	r1, r3, #2
 8003e04:	440b      	add	r3, r1
 8003e06:	fbb0 f3f3 	udiv	r3, r0, r3
 8003e0a:	3301      	adds	r3, #1
 8003e0c:	f3c3 030b 	ubfx	r3, r3, #0, #12
 8003e10:	f443 4340 	orr.w	r3, r3, #49152	; 0xc000
 8003e14:	6879      	ldr	r1, [r7, #4]
 8003e16:	6809      	ldr	r1, [r1, #0]
 8003e18:	4313      	orrs	r3, r2
 8003e1a:	61cb      	str	r3, [r1, #28]

  /*---------------------------- I2Cx CR1 Configuration ----------------------*/
  /* Configure I2Cx: Generalcall and NoStretch mode */
  MODIFY_REG(hi2c->Instance->CR1, (I2C_CR1_ENGC | I2C_CR1_NOSTRETCH), (hi2c->Init.GeneralCallMode | hi2c->Init.NoStretchMode));
 8003e1c:	687b      	ldr	r3, [r7, #4]
 8003e1e:	681b      	ldr	r3, [r3, #0]
 8003e20:	681b      	ldr	r3, [r3, #0]
 8003e22:	f023 01c0 	bic.w	r1, r3, #192	; 0xc0
 8003e26:	687b      	ldr	r3, [r7, #4]
 8003e28:	69da      	ldr	r2, [r3, #28]
 8003e2a:	687b      	ldr	r3, [r7, #4]
 8003e2c:	6a1b      	ldr	r3, [r3, #32]
 8003e2e:	431a      	orrs	r2, r3
 8003e30:	687b      	ldr	r3, [r7, #4]
 8003e32:	681b      	ldr	r3, [r3, #0]
 8003e34:	430a      	orrs	r2, r1
 8003e36:	601a      	str	r2, [r3, #0]

  /*---------------------------- I2Cx OAR1 Configuration ---------------------*/
  /* Configure I2Cx: Own Address1 and addressing mode */
  MODIFY_REG(hi2c->Instance->OAR1, (I2C_OAR1_ADDMODE | I2C_OAR1_ADD8_9 | I2C_OAR1_ADD1_7 | I2C_OAR1_ADD0), (hi2c->Init.AddressingMode | hi2c->Init.OwnAddress1));
 8003e38:	687b      	ldr	r3, [r7, #4]
 8003e3a:	681b      	ldr	r3, [r3, #0]
 8003e3c:	689b      	ldr	r3, [r3, #8]
 8003e3e:	f423 4303 	bic.w	r3, r3, #33536	; 0x8300
 8003e42:	f023 03ff 	bic.w	r3, r3, #255	; 0xff
 8003e46:	687a      	ldr	r2, [r7, #4]
 8003e48:	6911      	ldr	r1, [r2, #16]
 8003e4a:	687a      	ldr	r2, [r7, #4]
 8003e4c:	68d2      	ldr	r2, [r2, #12]
 8003e4e:	4311      	orrs	r1, r2
 8003e50:	687a      	ldr	r2, [r7, #4]
 8003e52:	6812      	ldr	r2, [r2, #0]
 8003e54:	430b      	orrs	r3, r1
 8003e56:	6093      	str	r3, [r2, #8]

  /*---------------------------- I2Cx OAR2 Configuration ---------------------*/
  /* Configure I2Cx: Dual mode and Own Address2 */
  MODIFY_REG(hi2c->Instance->OAR2, (I2C_OAR2_ENDUAL | I2C_OAR2_ADD2), (hi2c->Init.DualAddressMode | hi2c->Init.OwnAddress2));
 8003e58:	687b      	ldr	r3, [r7, #4]
 8003e5a:	681b      	ldr	r3, [r3, #0]
 8003e5c:	68db      	ldr	r3, [r3, #12]
 8003e5e:	f023 01ff 	bic.w	r1, r3, #255	; 0xff
 8003e62:	687b      	ldr	r3, [r7, #4]
 8003e64:	695a      	ldr	r2, [r3, #20]
 8003e66:	687b      	ldr	r3, [r7, #4]
 8003e68:	699b      	ldr	r3, [r3, #24]
 8003e6a:	431a      	orrs	r2, r3
 8003e6c:	687b      	ldr	r3, [r7, #4]
 8003e6e:	681b      	ldr	r3, [r3, #0]
 8003e70:	430a      	orrs	r2, r1
 8003e72:	60da      	str	r2, [r3, #12]

  /* Enable the selected I2C peripheral */
  __HAL_I2C_ENABLE(hi2c);
 8003e74:	687b      	ldr	r3, [r7, #4]
 8003e76:	681b      	ldr	r3, [r3, #0]
 8003e78:	681a      	ldr	r2, [r3, #0]
 8003e7a:	687b      	ldr	r3, [r7, #4]
 8003e7c:	681b      	ldr	r3, [r3, #0]
 8003e7e:	f042 0201 	orr.w	r2, r2, #1
 8003e82:	601a      	str	r2, [r3, #0]

  hi2c->ErrorCode = HAL_I2C_ERROR_NONE;
 8003e84:	687b      	ldr	r3, [r7, #4]
 8003e86:	2200      	movs	r2, #0
 8003e88:	641a      	str	r2, [r3, #64]	; 0x40
  hi2c->State = HAL_I2C_STATE_READY;
 8003e8a:	687b      	ldr	r3, [r7, #4]
 8003e8c:	2220      	movs	r2, #32
 8003e8e:	f883 203d 	strb.w	r2, [r3, #61]	; 0x3d
  hi2c->PreviousState = I2C_STATE_NONE;
 8003e92:	687b      	ldr	r3, [r7, #4]
 8003e94:	2200      	movs	r2, #0
 8003e96:	631a      	str	r2, [r3, #48]	; 0x30
  hi2c->Mode = HAL_I2C_MODE_NONE;
 8003e98:	687b      	ldr	r3, [r7, #4]
 8003e9a:	2200      	movs	r2, #0
 8003e9c:	f883 203e 	strb.w	r2, [r3, #62]	; 0x3e

  return HAL_OK;
 8003ea0:	2300      	movs	r3, #0
}
 8003ea2:	4618      	mov	r0, r3
 8003ea4:	3710      	adds	r7, #16
 8003ea6:	46bd      	mov	sp, r7
 8003ea8:	bd80      	pop	{r7, pc}
 8003eaa:	bf00      	nop
 8003eac:	000186a0 	.word	0x000186a0
 8003eb0:	001e847f 	.word	0x001e847f
 8003eb4:	003d08ff 	.word	0x003d08ff
 8003eb8:	431bde83 	.word	0x431bde83
 8003ebc:	10624dd3 	.word	0x10624dd3

08003ec0 <HAL_I2C_Master_Transmit>:
  * @param  Size Amount of data to be sent
  * @param  Timeout Timeout duration
  * @retval HAL status
  */
HAL_StatusTypeDef HAL_I2C_Master_Transmit(I2C_HandleTypeDef *hi2c, uint16_t DevAddress, uint8_t *pData, uint16_t Size, uint32_t Timeout)
{
 8003ec0:	b580      	push	{r7, lr}
 8003ec2:	b088      	sub	sp, #32
 8003ec4:	af02      	add	r7, sp, #8
 8003ec6:	60f8      	str	r0, [r7, #12]
 8003ec8:	607a      	str	r2, [r7, #4]
 8003eca:	461a      	mov	r2, r3
 8003ecc:	460b      	mov	r3, r1
 8003ece:	817b      	strh	r3, [r7, #10]
 8003ed0:	4613      	mov	r3, r2
 8003ed2:	813b      	strh	r3, [r7, #8]
  /* Init tickstart for timeout management*/
  uint32_t tickstart = HAL_GetTick();
 8003ed4:	f7fe fe78 	bl	8002bc8 <HAL_GetTick>
 8003ed8:	6178      	str	r0, [r7, #20]

  if (hi2c->State == HAL_I2C_STATE_READY)
 8003eda:	68fb      	ldr	r3, [r7, #12]
 8003edc:	f893 303d 	ldrb.w	r3, [r3, #61]	; 0x3d
 8003ee0:	b2db      	uxtb	r3, r3
 8003ee2:	2b20      	cmp	r3, #32
 8003ee4:	f040 80e0 	bne.w	80040a8 <HAL_I2C_Master_Transmit+0x1e8>
  {
    /* Wait until BUSY flag is reset */
    if (I2C_WaitOnFlagUntilTimeout(hi2c, I2C_FLAG_BUSY, SET, I2C_TIMEOUT_BUSY_FLAG, tickstart) != HAL_OK)
 8003ee8:	697b      	ldr	r3, [r7, #20]
 8003eea:	9300      	str	r3, [sp, #0]
 8003eec:	2319      	movs	r3, #25
 8003eee:	2201      	movs	r2, #1
 8003ef0:	4970      	ldr	r1, [pc, #448]	; (80040b4 <HAL_I2C_Master_Transmit+0x1f4>)
 8003ef2:	68f8      	ldr	r0, [r7, #12]
 8003ef4:	f000 fc64 	bl	80047c0 <I2C_WaitOnFlagUntilTimeout>
 8003ef8:	4603      	mov	r3, r0
 8003efa:	2b00      	cmp	r3, #0
 8003efc:	d001      	beq.n	8003f02 <HAL_I2C_Master_Transmit+0x42>
    {
      return HAL_BUSY;
 8003efe:	2302      	movs	r3, #2
 8003f00:	e0d3      	b.n	80040aa <HAL_I2C_Master_Transmit+0x1ea>
    }

    /* Process Locked */
    __HAL_LOCK(hi2c);
 8003f02:	68fb      	ldr	r3, [r7, #12]
 8003f04:	f893 303c 	ldrb.w	r3, [r3, #60]	; 0x3c
 8003f08:	2b01      	cmp	r3, #1
 8003f0a:	d101      	bne.n	8003f10 <HAL_I2C_Master_Transmit+0x50>
 8003f0c:	2302      	movs	r3, #2
 8003f0e:	e0cc      	b.n	80040aa <HAL_I2C_Master_Transmit+0x1ea>
 8003f10:	68fb      	ldr	r3, [r7, #12]
 8003f12:	2201      	movs	r2, #1
 8003f14:	f883 203c 	strb.w	r2, [r3, #60]	; 0x3c

    /* Check if the I2C is already enabled */
    if ((hi2c->Instance->CR1 & I2C_CR1_PE) != I2C_CR1_PE)
 8003f18:	68fb      	ldr	r3, [r7, #12]
 8003f1a:	681b      	ldr	r3, [r3, #0]
 8003f1c:	681b      	ldr	r3, [r3, #0]
 8003f1e:	f003 0301 	and.w	r3, r3, #1
 8003f22:	2b01      	cmp	r3, #1
 8003f24:	d007      	beq.n	8003f36 <HAL_I2C_Master_Transmit+0x76>
    {
      /* Enable I2C peripheral */
      __HAL_I2C_ENABLE(hi2c);
 8003f26:	68fb      	ldr	r3, [r7, #12]
 8003f28:	681b      	ldr	r3, [r3, #0]
 8003f2a:	681a      	ldr	r2, [r3, #0]
 8003f2c:	68fb      	ldr	r3, [r7, #12]
 8003f2e:	681b      	ldr	r3, [r3, #0]
 8003f30:	f042 0201 	orr.w	r2, r2, #1
 8003f34:	601a      	str	r2, [r3, #0]
    }

    /* Disable Pos */
    CLEAR_BIT(hi2c->Instance->CR1, I2C_CR1_POS);
 8003f36:	68fb      	ldr	r3, [r7, #12]
 8003f38:	681b      	ldr	r3, [r3, #0]
 8003f3a:	681a      	ldr	r2, [r3, #0]
 8003f3c:	68fb      	ldr	r3, [r7, #12]
 8003f3e:	681b      	ldr	r3, [r3, #0]
 8003f40:	f422 6200 	bic.w	r2, r2, #2048	; 0x800
 8003f44:	601a      	str	r2, [r3, #0]

    hi2c->State       = HAL_I2C_STATE_BUSY_TX;
 8003f46:	68fb      	ldr	r3, [r7, #12]
 8003f48:	2221      	movs	r2, #33	; 0x21
 8003f4a:	f883 203d 	strb.w	r2, [r3, #61]	; 0x3d
    hi2c->Mode        = HAL_I2C_MODE_MASTER;
 8003f4e:	68fb      	ldr	r3, [r7, #12]
 8003f50:	2210      	movs	r2, #16
 8003f52:	f883 203e 	strb.w	r2, [r3, #62]	; 0x3e
    hi2c->ErrorCode   = HAL_I2C_ERROR_NONE;
 8003f56:	68fb      	ldr	r3, [r7, #12]
 8003f58:	2200      	movs	r2, #0
 8003f5a:	641a      	str	r2, [r3, #64]	; 0x40

    /* Prepare transfer parameters */
    hi2c->pBuffPtr    = pData;
 8003f5c:	68fb      	ldr	r3, [r7, #12]
 8003f5e:	687a      	ldr	r2, [r7, #4]
 8003f60:	625a      	str	r2, [r3, #36]	; 0x24
    hi2c->XferCount   = Size;
 8003f62:	68fb      	ldr	r3, [r7, #12]
 8003f64:	893a      	ldrh	r2, [r7, #8]
 8003f66:	855a      	strh	r2, [r3, #42]	; 0x2a
    hi2c->XferSize    = hi2c->XferCount;
 8003f68:	68fb      	ldr	r3, [r7, #12]
 8003f6a:	8d5b      	ldrh	r3, [r3, #42]	; 0x2a
 8003f6c:	b29a      	uxth	r2, r3
 8003f6e:	68fb      	ldr	r3, [r7, #12]
 8003f70:	851a      	strh	r2, [r3, #40]	; 0x28
    hi2c->XferOptions = I2C_NO_OPTION_FRAME;
 8003f72:	68fb      	ldr	r3, [r7, #12]
 8003f74:	4a50      	ldr	r2, [pc, #320]	; (80040b8 <HAL_I2C_Master_Transmit+0x1f8>)
 8003f76:	62da      	str	r2, [r3, #44]	; 0x2c

    /* Send Slave Address */
    if (I2C_MasterRequestWrite(hi2c, DevAddress, Timeout, tickstart) != HAL_OK)
 8003f78:	8979      	ldrh	r1, [r7, #10]
 8003f7a:	697b      	ldr	r3, [r7, #20]
 8003f7c:	6a3a      	ldr	r2, [r7, #32]
 8003f7e:	68f8      	ldr	r0, [r7, #12]
 8003f80:	f000 face 	bl	8004520 <I2C_MasterRequestWrite>
 8003f84:	4603      	mov	r3, r0
 8003f86:	2b00      	cmp	r3, #0
 8003f88:	d001      	beq.n	8003f8e <HAL_I2C_Master_Transmit+0xce>
    {
      return HAL_ERROR;
 8003f8a:	2301      	movs	r3, #1
 8003f8c:	e08d      	b.n	80040aa <HAL_I2C_Master_Transmit+0x1ea>
    }

    /* Clear ADDR flag */
    __HAL_I2C_CLEAR_ADDRFLAG(hi2c);
 8003f8e:	2300      	movs	r3, #0
 8003f90:	613b      	str	r3, [r7, #16]
 8003f92:	68fb      	ldr	r3, [r7, #12]
 8003f94:	681b      	ldr	r3, [r3, #0]
 8003f96:	695b      	ldr	r3, [r3, #20]
 8003f98:	613b      	str	r3, [r7, #16]
 8003f9a:	68fb      	ldr	r3, [r7, #12]
 8003f9c:	681b      	ldr	r3, [r3, #0]
 8003f9e:	699b      	ldr	r3, [r3, #24]
 8003fa0:	613b      	str	r3, [r7, #16]
 8003fa2:	693b      	ldr	r3, [r7, #16]

    while (hi2c->XferSize > 0U)
 8003fa4:	e066      	b.n	8004074 <HAL_I2C_Master_Transmit+0x1b4>
    {
      /* Wait until TXE flag is set */
      if (I2C_WaitOnTXEFlagUntilTimeout(hi2c, Timeout, tickstart) != HAL_OK)
 8003fa6:	697a      	ldr	r2, [r7, #20]
 8003fa8:	6a39      	ldr	r1, [r7, #32]
 8003faa:	68f8      	ldr	r0, [r7, #12]
 8003fac:	f000 fd22 	bl	80049f4 <I2C_WaitOnTXEFlagUntilTimeout>
 8003fb0:	4603      	mov	r3, r0
 8003fb2:	2b00      	cmp	r3, #0
 8003fb4:	d00d      	beq.n	8003fd2 <HAL_I2C_Master_Transmit+0x112>
      {
        if (hi2c->ErrorCode == HAL_I2C_ERROR_AF)
 8003fb6:	68fb      	ldr	r3, [r7, #12]
 8003fb8:	6c1b      	ldr	r3, [r3, #64]	; 0x40
 8003fba:	2b04      	cmp	r3, #4
 8003fbc:	d107      	bne.n	8003fce <HAL_I2C_Master_Transmit+0x10e>
        {
          /* Generate Stop */
          SET_BIT(hi2c->Instance->CR1, I2C_CR1_STOP);
 8003fbe:	68fb      	ldr	r3, [r7, #12]
 8003fc0:	681b      	ldr	r3, [r3, #0]
 8003fc2:	681a      	ldr	r2, [r3, #0]
 8003fc4:	68fb      	ldr	r3, [r7, #12]
 8003fc6:	681b      	ldr	r3, [r3, #0]
 8003fc8:	f442 7200 	orr.w	r2, r2, #512	; 0x200
 8003fcc:	601a      	str	r2, [r3, #0]
        }
        return HAL_ERROR;
 8003fce:	2301      	movs	r3, #1
 8003fd0:	e06b      	b.n	80040aa <HAL_I2C_Master_Transmit+0x1ea>
      }

      /* Write data to DR */
      hi2c->Instance->DR = *hi2c->pBuffPtr;
 8003fd2:	68fb      	ldr	r3, [r7, #12]
 8003fd4:	6a5b      	ldr	r3, [r3, #36]	; 0x24
 8003fd6:	781a      	ldrb	r2, [r3, #0]
 8003fd8:	68fb      	ldr	r3, [r7, #12]
 8003fda:	681b      	ldr	r3, [r3, #0]
 8003fdc:	611a      	str	r2, [r3, #16]

      /* Increment Buffer pointer */
      hi2c->pBuffPtr++;
 8003fde:	68fb      	ldr	r3, [r7, #12]
 8003fe0:	6a5b      	ldr	r3, [r3, #36]	; 0x24
 8003fe2:	1c5a      	adds	r2, r3, #1
 8003fe4:	68fb      	ldr	r3, [r7, #12]
 8003fe6:	625a      	str	r2, [r3, #36]	; 0x24

      /* Update counter */
      hi2c->XferCount--;
 8003fe8:	68fb      	ldr	r3, [r7, #12]
 8003fea:	8d5b      	ldrh	r3, [r3, #42]	; 0x2a
 8003fec:	b29b      	uxth	r3, r3
 8003fee:	3b01      	subs	r3, #1
 8003ff0:	b29a      	uxth	r2, r3
 8003ff2:	68fb      	ldr	r3, [r7, #12]
 8003ff4:	855a      	strh	r2, [r3, #42]	; 0x2a
      hi2c->XferSize--;
 8003ff6:	68fb      	ldr	r3, [r7, #12]
 8003ff8:	8d1b      	ldrh	r3, [r3, #40]	; 0x28
 8003ffa:	3b01      	subs	r3, #1
 8003ffc:	b29a      	uxth	r2, r3
 8003ffe:	68fb      	ldr	r3, [r7, #12]
 8004000:	851a      	strh	r2, [r3, #40]	; 0x28

      if ((__HAL_I2C_GET_FLAG(hi2c, I2C_FLAG_BTF) == SET) && (hi2c->XferSize != 0U))
 8004002:	68fb      	ldr	r3, [r7, #12]
 8004004:	681b      	ldr	r3, [r3, #0]
 8004006:	695b      	ldr	r3, [r3, #20]
 8004008:	f003 0304 	and.w	r3, r3, #4
 800400c:	2b04      	cmp	r3, #4
 800400e:	d11b      	bne.n	8004048 <HAL_I2C_Master_Transmit+0x188>
 8004010:	68fb      	ldr	r3, [r7, #12]
 8004012:	8d1b      	ldrh	r3, [r3, #40]	; 0x28
 8004014:	2b00      	cmp	r3, #0
 8004016:	d017      	beq.n	8004048 <HAL_I2C_Master_Transmit+0x188>
      {
        /* Write data to DR */
        hi2c->Instance->DR = *hi2c->pBuffPtr;
 8004018:	68fb      	ldr	r3, [r7, #12]
 800401a:	6a5b      	ldr	r3, [r3, #36]	; 0x24
 800401c:	781a      	ldrb	r2, [r3, #0]
 800401e:	68fb      	ldr	r3, [r7, #12]
 8004020:	681b      	ldr	r3, [r3, #0]
 8004022:	611a      	str	r2, [r3, #16]

        /* Increment Buffer pointer */
        hi2c->pBuffPtr++;
 8004024:	68fb      	ldr	r3, [r7, #12]
 8004026:	6a5b      	ldr	r3, [r3, #36]	; 0x24
 8004028:	1c5a      	adds	r2, r3, #1
 800402a:	68fb      	ldr	r3, [r7, #12]
 800402c:	625a      	str	r2, [r3, #36]	; 0x24

        /* Update counter */
        hi2c->XferCount--;
 800402e:	68fb      	ldr	r3, [r7, #12]
 8004030:	8d5b      	ldrh	r3, [r3, #42]	; 0x2a
 8004032:	b29b      	uxth	r3, r3
 8004034:	3b01      	subs	r3, #1
 8004036:	b29a      	uxth	r2, r3
 8004038:	68fb      	ldr	r3, [r7, #12]
 800403a:	855a      	strh	r2, [r3, #42]	; 0x2a
        hi2c->XferSize--;
 800403c:	68fb      	ldr	r3, [r7, #12]
 800403e:	8d1b      	ldrh	r3, [r3, #40]	; 0x28
 8004040:	3b01      	subs	r3, #1
 8004042:	b29a      	uxth	r2, r3
 8004044:	68fb      	ldr	r3, [r7, #12]
 8004046:	851a      	strh	r2, [r3, #40]	; 0x28
      }

      /* Wait until BTF flag is set */
      if (I2C_WaitOnBTFFlagUntilTimeout(hi2c, Timeout, tickstart) != HAL_OK)
 8004048:	697a      	ldr	r2, [r7, #20]
 800404a:	6a39      	ldr	r1, [r7, #32]
 800404c:	68f8      	ldr	r0, [r7, #12]
 800404e:	f000 fd19 	bl	8004a84 <I2C_WaitOnBTFFlagUntilTimeout>
 8004052:	4603      	mov	r3, r0
 8004054:	2b00      	cmp	r3, #0
 8004056:	d00d      	beq.n	8004074 <HAL_I2C_Master_Transmit+0x1b4>
      {
        if (hi2c->ErrorCode == HAL_I2C_ERROR_AF)
 8004058:	68fb      	ldr	r3, [r7, #12]
 800405a:	6c1b      	ldr	r3, [r3, #64]	; 0x40
 800405c:	2b04      	cmp	r3, #4
 800405e:	d107      	bne.n	8004070 <HAL_I2C_Master_Transmit+0x1b0>
        {
          /* Generate Stop */
          SET_BIT(hi2c->Instance->CR1, I2C_CR1_STOP);
 8004060:	68fb      	ldr	r3, [r7, #12]
 8004062:	681b      	ldr	r3, [r3, #0]
 8004064:	681a      	ldr	r2, [r3, #0]
 8004066:	68fb      	ldr	r3, [r7, #12]
 8004068:	681b      	ldr	r3, [r3, #0]
 800406a:	f442 7200 	orr.w	r2, r2, #512	; 0x200
 800406e:	601a      	str	r2, [r3, #0]
        }
        return HAL_ERROR;
 8004070:	2301      	movs	r3, #1
 8004072:	e01a      	b.n	80040aa <HAL_I2C_Master_Transmit+0x1ea>
    while (hi2c->XferSize > 0U)
 8004074:	68fb      	ldr	r3, [r7, #12]
 8004076:	8d1b      	ldrh	r3, [r3, #40]	; 0x28
 8004078:	2b00      	cmp	r3, #0
 800407a:	d194      	bne.n	8003fa6 <HAL_I2C_Master_Transmit+0xe6>
      }
    }

    /* Generate Stop */
    SET_BIT(hi2c->Instance->CR1, I2C_CR1_STOP);
 800407c:	68fb      	ldr	r3, [r7, #12]
 800407e:	681b      	ldr	r3, [r3, #0]
 8004080:	681a      	ldr	r2, [r3, #0]
 8004082:	68fb      	ldr	r3, [r7, #12]
 8004084:	681b      	ldr	r3, [r3, #0]
 8004086:	f442 7200 	orr.w	r2, r2, #512	; 0x200
 800408a:	601a      	str	r2, [r3, #0]

    hi2c->State = HAL_I2C_STATE_READY;
 800408c:	68fb      	ldr	r3, [r7, #12]
 800408e:	2220      	movs	r2, #32
 8004090:	f883 203d 	strb.w	r2, [r3, #61]	; 0x3d
    hi2c->Mode = HAL_I2C_MODE_NONE;
 8004094:	68fb      	ldr	r3, [r7, #12]
 8004096:	2200      	movs	r2, #0
 8004098:	f883 203e 	strb.w	r2, [r3, #62]	; 0x3e

    /* Process Unlocked */
    __HAL_UNLOCK(hi2c);
 800409c:	68fb      	ldr	r3, [r7, #12]
 800409e:	2200      	movs	r2, #0
 80040a0:	f883 203c 	strb.w	r2, [r3, #60]	; 0x3c

    return HAL_OK;
 80040a4:	2300      	movs	r3, #0
 80040a6:	e000      	b.n	80040aa <HAL_I2C_Master_Transmit+0x1ea>
  }
  else
  {
    return HAL_BUSY;
 80040a8:	2302      	movs	r3, #2
  }
}
 80040aa:	4618      	mov	r0, r3
 80040ac:	3718      	adds	r7, #24
 80040ae:	46bd      	mov	sp, r7
 80040b0:	bd80      	pop	{r7, pc}
 80040b2:	bf00      	nop
 80040b4:	00100002 	.word	0x00100002
 80040b8:	ffff0000 	.word	0xffff0000

080040bc <HAL_I2C_Master_Receive>:
  * @param  Size Amount of data to be sent
  * @param  Timeout Timeout duration
  * @retval HAL status
  */
HAL_StatusTypeDef HAL_I2C_Master_Receive(I2C_HandleTypeDef *hi2c, uint16_t DevAddress, uint8_t *pData, uint16_t Size, uint32_t Timeout)
{
 80040bc:	b580      	push	{r7, lr}
 80040be:	b08c      	sub	sp, #48	; 0x30
 80040c0:	af02      	add	r7, sp, #8
 80040c2:	60f8      	str	r0, [r7, #12]
 80040c4:	607a      	str	r2, [r7, #4]
 80040c6:	461a      	mov	r2, r3
 80040c8:	460b      	mov	r3, r1
 80040ca:	817b      	strh	r3, [r7, #10]
 80040cc:	4613      	mov	r3, r2
 80040ce:	813b      	strh	r3, [r7, #8]
  /* Init tickstart for timeout management*/
  uint32_t tickstart = HAL_GetTick();
 80040d0:	f7fe fd7a 	bl	8002bc8 <HAL_GetTick>
 80040d4:	6278      	str	r0, [r7, #36]	; 0x24

  if (hi2c->State == HAL_I2C_STATE_READY)
 80040d6:	68fb      	ldr	r3, [r7, #12]
 80040d8:	f893 303d 	ldrb.w	r3, [r3, #61]	; 0x3d
 80040dc:	b2db      	uxtb	r3, r3
 80040de:	2b20      	cmp	r3, #32
 80040e0:	f040 8217 	bne.w	8004512 <HAL_I2C_Master_Receive+0x456>
  {
    /* Wait until BUSY flag is reset */
    if (I2C_WaitOnFlagUntilTimeout(hi2c, I2C_FLAG_BUSY, SET, I2C_TIMEOUT_BUSY_FLAG, tickstart) != HAL_OK)
 80040e4:	6a7b      	ldr	r3, [r7, #36]	; 0x24
 80040e6:	9300      	str	r3, [sp, #0]
 80040e8:	2319      	movs	r3, #25
 80040ea:	2201      	movs	r2, #1
 80040ec:	497c      	ldr	r1, [pc, #496]	; (80042e0 <HAL_I2C_Master_Receive+0x224>)
 80040ee:	68f8      	ldr	r0, [r7, #12]
 80040f0:	f000 fb66 	bl	80047c0 <I2C_WaitOnFlagUntilTimeout>
 80040f4:	4603      	mov	r3, r0
 80040f6:	2b00      	cmp	r3, #0
 80040f8:	d001      	beq.n	80040fe <HAL_I2C_Master_Receive+0x42>
    {
      return HAL_BUSY;
 80040fa:	2302      	movs	r3, #2
 80040fc:	e20a      	b.n	8004514 <HAL_I2C_Master_Receive+0x458>
    }

    /* Process Locked */
    __HAL_LOCK(hi2c);
 80040fe:	68fb      	ldr	r3, [r7, #12]
 8004100:	f893 303c 	ldrb.w	r3, [r3, #60]	; 0x3c
 8004104:	2b01      	cmp	r3, #1
 8004106:	d101      	bne.n	800410c <HAL_I2C_Master_Receive+0x50>
 8004108:	2302      	movs	r3, #2
 800410a:	e203      	b.n	8004514 <HAL_I2C_Master_Receive+0x458>
 800410c:	68fb      	ldr	r3, [r7, #12]
 800410e:	2201      	movs	r2, #1
 8004110:	f883 203c 	strb.w	r2, [r3, #60]	; 0x3c

    /* Check if the I2C is already enabled */
    if ((hi2c->Instance->CR1 & I2C_CR1_PE) != I2C_CR1_PE)
 8004114:	68fb      	ldr	r3, [r7, #12]
 8004116:	681b      	ldr	r3, [r3, #0]
 8004118:	681b      	ldr	r3, [r3, #0]
 800411a:	f003 0301 	and.w	r3, r3, #1
 800411e:	2b01      	cmp	r3, #1
 8004120:	d007      	beq.n	8004132 <HAL_I2C_Master_Receive+0x76>
    {
      /* Enable I2C peripheral */
      __HAL_I2C_ENABLE(hi2c);
 8004122:	68fb      	ldr	r3, [r7, #12]
 8004124:	681b      	ldr	r3, [r3, #0]
 8004126:	681a      	ldr	r2, [r3, #0]
 8004128:	68fb      	ldr	r3, [r7, #12]
 800412a:	681b      	ldr	r3, [r3, #0]
 800412c:	f042 0201 	orr.w	r2, r2, #1
 8004130:	601a      	str	r2, [r3, #0]
    }

    /* Disable Pos */
    CLEAR_BIT(hi2c->Instance->CR1, I2C_CR1_POS);
 8004132:	68fb      	ldr	r3, [r7, #12]
 8004134:	681b      	ldr	r3, [r3, #0]
 8004136:	681a      	ldr	r2, [r3, #0]
 8004138:	68fb      	ldr	r3, [r7, #12]
 800413a:	681b      	ldr	r3, [r3, #0]
 800413c:	f422 6200 	bic.w	r2, r2, #2048	; 0x800
 8004140:	601a      	str	r2, [r3, #0]

    hi2c->State       = HAL_I2C_STATE_BUSY_RX;
 8004142:	68fb      	ldr	r3, [r7, #12]
 8004144:	2222      	movs	r2, #34	; 0x22
 8004146:	f883 203d 	strb.w	r2, [r3, #61]	; 0x3d
    hi2c->Mode        = HAL_I2C_MODE_MASTER;
 800414a:	68fb      	ldr	r3, [r7, #12]
 800414c:	2210      	movs	r2, #16
 800414e:	f883 203e 	strb.w	r2, [r3, #62]	; 0x3e
    hi2c->ErrorCode   = HAL_I2C_ERROR_NONE;
 8004152:	68fb      	ldr	r3, [r7, #12]
 8004154:	2200      	movs	r2, #0
 8004156:	641a      	str	r2, [r3, #64]	; 0x40

    /* Prepare transfer parameters */
    hi2c->pBuffPtr    = pData;
 8004158:	68fb      	ldr	r3, [r7, #12]
 800415a:	687a      	ldr	r2, [r7, #4]
 800415c:	625a      	str	r2, [r3, #36]	; 0x24
    hi2c->XferCount   = Size;
 800415e:	68fb      	ldr	r3, [r7, #12]
 8004160:	893a      	ldrh	r2, [r7, #8]
 8004162:	855a      	strh	r2, [r3, #42]	; 0x2a
    hi2c->XferSize    = hi2c->XferCount;
 8004164:	68fb      	ldr	r3, [r7, #12]
 8004166:	8d5b      	ldrh	r3, [r3, #42]	; 0x2a
 8004168:	b29a      	uxth	r2, r3
 800416a:	68fb      	ldr	r3, [r7, #12]
 800416c:	851a      	strh	r2, [r3, #40]	; 0x28
    hi2c->XferOptions = I2C_NO_OPTION_FRAME;
 800416e:	68fb      	ldr	r3, [r7, #12]
 8004170:	4a5c      	ldr	r2, [pc, #368]	; (80042e4 <HAL_I2C_Master_Receive+0x228>)
 8004172:	62da      	str	r2, [r3, #44]	; 0x2c

    /* Send Slave Address */
    if (I2C_MasterRequestRead(hi2c, DevAddress, Timeout, tickstart) != HAL_OK)
 8004174:	8979      	ldrh	r1, [r7, #10]
 8004176:	6a7b      	ldr	r3, [r7, #36]	; 0x24
 8004178:	6b3a      	ldr	r2, [r7, #48]	; 0x30
 800417a:	68f8      	ldr	r0, [r7, #12]
 800417c:	f000 fa52 	bl	8004624 <I2C_MasterRequestRead>
 8004180:	4603      	mov	r3, r0
 8004182:	2b00      	cmp	r3, #0
 8004184:	d001      	beq.n	800418a <HAL_I2C_Master_Receive+0xce>
    {
      return HAL_ERROR;
 8004186:	2301      	movs	r3, #1
 8004188:	e1c4      	b.n	8004514 <HAL_I2C_Master_Receive+0x458>
    }

    if (hi2c->XferSize == 0U)
 800418a:	68fb      	ldr	r3, [r7, #12]
 800418c:	8d1b      	ldrh	r3, [r3, #40]	; 0x28
 800418e:	2b00      	cmp	r3, #0
 8004190:	d113      	bne.n	80041ba <HAL_I2C_Master_Receive+0xfe>
    {
      /* Clear ADDR flag */
      __HAL_I2C_CLEAR_ADDRFLAG(hi2c);
 8004192:	2300      	movs	r3, #0
 8004194:	623b      	str	r3, [r7, #32]
 8004196:	68fb      	ldr	r3, [r7, #12]
 8004198:	681b      	ldr	r3, [r3, #0]
 800419a:	695b      	ldr	r3, [r3, #20]
 800419c:	623b      	str	r3, [r7, #32]
 800419e:	68fb      	ldr	r3, [r7, #12]
 80041a0:	681b      	ldr	r3, [r3, #0]
 80041a2:	699b      	ldr	r3, [r3, #24]
 80041a4:	623b      	str	r3, [r7, #32]
 80041a6:	6a3b      	ldr	r3, [r7, #32]

      /* Generate Stop */
      SET_BIT(hi2c->Instance->CR1, I2C_CR1_STOP);
 80041a8:	68fb      	ldr	r3, [r7, #12]
 80041aa:	681b      	ldr	r3, [r3, #0]
 80041ac:	681a      	ldr	r2, [r3, #0]
 80041ae:	68fb      	ldr	r3, [r7, #12]
 80041b0:	681b      	ldr	r3, [r3, #0]
 80041b2:	f442 7200 	orr.w	r2, r2, #512	; 0x200
 80041b6:	601a      	str	r2, [r3, #0]
 80041b8:	e198      	b.n	80044ec <HAL_I2C_Master_Receive+0x430>
    }
    else if (hi2c->XferSize == 1U)
 80041ba:	68fb      	ldr	r3, [r7, #12]
 80041bc:	8d1b      	ldrh	r3, [r3, #40]	; 0x28
 80041be:	2b01      	cmp	r3, #1
 80041c0:	d11b      	bne.n	80041fa <HAL_I2C_Master_Receive+0x13e>
    {
      /* Disable Acknowledge */
      CLEAR_BIT(hi2c->Instance->CR1, I2C_CR1_ACK);
 80041c2:	68fb      	ldr	r3, [r7, #12]
 80041c4:	681b      	ldr	r3, [r3, #0]
 80041c6:	681a      	ldr	r2, [r3, #0]
 80041c8:	68fb      	ldr	r3, [r7, #12]
 80041ca:	681b      	ldr	r3, [r3, #0]
 80041cc:	f422 6280 	bic.w	r2, r2, #1024	; 0x400
 80041d0:	601a      	str	r2, [r3, #0]

      /* Clear ADDR flag */
      __HAL_I2C_CLEAR_ADDRFLAG(hi2c);
 80041d2:	2300      	movs	r3, #0
 80041d4:	61fb      	str	r3, [r7, #28]
 80041d6:	68fb      	ldr	r3, [r7, #12]
 80041d8:	681b      	ldr	r3, [r3, #0]
 80041da:	695b      	ldr	r3, [r3, #20]
 80041dc:	61fb      	str	r3, [r7, #28]
 80041de:	68fb      	ldr	r3, [r7, #12]
 80041e0:	681b      	ldr	r3, [r3, #0]
 80041e2:	699b      	ldr	r3, [r3, #24]
 80041e4:	61fb      	str	r3, [r7, #28]
 80041e6:	69fb      	ldr	r3, [r7, #28]

      /* Generate Stop */
      SET_BIT(hi2c->Instance->CR1, I2C_CR1_STOP);
 80041e8:	68fb      	ldr	r3, [r7, #12]
 80041ea:	681b      	ldr	r3, [r3, #0]
 80041ec:	681a      	ldr	r2, [r3, #0]
 80041ee:	68fb      	ldr	r3, [r7, #12]
 80041f0:	681b      	ldr	r3, [r3, #0]
 80041f2:	f442 7200 	orr.w	r2, r2, #512	; 0x200
 80041f6:	601a      	str	r2, [r3, #0]
 80041f8:	e178      	b.n	80044ec <HAL_I2C_Master_Receive+0x430>
    }
    else if (hi2c->XferSize == 2U)
 80041fa:	68fb      	ldr	r3, [r7, #12]
 80041fc:	8d1b      	ldrh	r3, [r3, #40]	; 0x28
 80041fe:	2b02      	cmp	r3, #2
 8004200:	d11b      	bne.n	800423a <HAL_I2C_Master_Receive+0x17e>
    {
      /* Disable Acknowledge */
      CLEAR_BIT(hi2c->Instance->CR1, I2C_CR1_ACK);
 8004202:	68fb      	ldr	r3, [r7, #12]
 8004204:	681b      	ldr	r3, [r3, #0]
 8004206:	681a      	ldr	r2, [r3, #0]
 8004208:	68fb      	ldr	r3, [r7, #12]
 800420a:	681b      	ldr	r3, [r3, #0]
 800420c:	f422 6280 	bic.w	r2, r2, #1024	; 0x400
 8004210:	601a      	str	r2, [r3, #0]

      /* Enable Pos */
      SET_BIT(hi2c->Instance->CR1, I2C_CR1_POS);
 8004212:	68fb      	ldr	r3, [r7, #12]
 8004214:	681b      	ldr	r3, [r3, #0]
 8004216:	681a      	ldr	r2, [r3, #0]
 8004218:	68fb      	ldr	r3, [r7, #12]
 800421a:	681b      	ldr	r3, [r3, #0]
 800421c:	f442 6200 	orr.w	r2, r2, #2048	; 0x800
 8004220:	601a      	str	r2, [r3, #0]

      /* Clear ADDR flag */
      __HAL_I2C_CLEAR_ADDRFLAG(hi2c);
 8004222:	2300      	movs	r3, #0
 8004224:	61bb      	str	r3, [r7, #24]
 8004226:	68fb      	ldr	r3, [r7, #12]
 8004228:	681b      	ldr	r3, [r3, #0]
 800422a:	695b      	ldr	r3, [r3, #20]
 800422c:	61bb      	str	r3, [r7, #24]
 800422e:	68fb      	ldr	r3, [r7, #12]
 8004230:	681b      	ldr	r3, [r3, #0]
 8004232:	699b      	ldr	r3, [r3, #24]
 8004234:	61bb      	str	r3, [r7, #24]
 8004236:	69bb      	ldr	r3, [r7, #24]
 8004238:	e158      	b.n	80044ec <HAL_I2C_Master_Receive+0x430>
    }
    else
    {
      /* Enable Acknowledge */
      SET_BIT(hi2c->Instance->CR1, I2C_CR1_ACK);
 800423a:	68fb      	ldr	r3, [r7, #12]
 800423c:	681b      	ldr	r3, [r3, #0]
 800423e:	681a      	ldr	r2, [r3, #0]
 8004240:	68fb      	ldr	r3, [r7, #12]
 8004242:	681b      	ldr	r3, [r3, #0]
 8004244:	f442 6280 	orr.w	r2, r2, #1024	; 0x400
 8004248:	601a      	str	r2, [r3, #0]

      /* Clear ADDR flag */
      __HAL_I2C_CLEAR_ADDRFLAG(hi2c);
 800424a:	2300      	movs	r3, #0
 800424c:	617b      	str	r3, [r7, #20]
 800424e:	68fb      	ldr	r3, [r7, #12]
 8004250:	681b      	ldr	r3, [r3, #0]
 8004252:	695b      	ldr	r3, [r3, #20]
 8004254:	617b      	str	r3, [r7, #20]
 8004256:	68fb      	ldr	r3, [r7, #12]
 8004258:	681b      	ldr	r3, [r3, #0]
 800425a:	699b      	ldr	r3, [r3, #24]
 800425c:	617b      	str	r3, [r7, #20]
 800425e:	697b      	ldr	r3, [r7, #20]
    }

    while (hi2c->XferSize > 0U)
 8004260:	e144      	b.n	80044ec <HAL_I2C_Master_Receive+0x430>
    {
      if (hi2c->XferSize <= 3U)
 8004262:	68fb      	ldr	r3, [r7, #12]
 8004264:	8d1b      	ldrh	r3, [r3, #40]	; 0x28
 8004266:	2b03      	cmp	r3, #3
 8004268:	f200 80f1 	bhi.w	800444e <HAL_I2C_Master_Receive+0x392>
      {
        /* One byte */
        if (hi2c->XferSize == 1U)
 800426c:	68fb      	ldr	r3, [r7, #12]
 800426e:	8d1b      	ldrh	r3, [r3, #40]	; 0x28
 8004270:	2b01      	cmp	r3, #1
 8004272:	d123      	bne.n	80042bc <HAL_I2C_Master_Receive+0x200>
        {
          /* Wait until RXNE flag is set */
          if (I2C_WaitOnRXNEFlagUntilTimeout(hi2c, Timeout, tickstart) != HAL_OK)
 8004274:	6a7a      	ldr	r2, [r7, #36]	; 0x24
 8004276:	6b39      	ldr	r1, [r7, #48]	; 0x30
 8004278:	68f8      	ldr	r0, [r7, #12]
 800427a:	f000 fc4b 	bl	8004b14 <I2C_WaitOnRXNEFlagUntilTimeout>
 800427e:	4603      	mov	r3, r0
 8004280:	2b00      	cmp	r3, #0
 8004282:	d001      	beq.n	8004288 <HAL_I2C_Master_Receive+0x1cc>
          {
            return HAL_ERROR;
 8004284:	2301      	movs	r3, #1
 8004286:	e145      	b.n	8004514 <HAL_I2C_Master_Receive+0x458>
          }

          /* Read data from DR */
          *hi2c->pBuffPtr = (uint8_t)hi2c->Instance->DR;
 8004288:	68fb      	ldr	r3, [r7, #12]
 800428a:	681b      	ldr	r3, [r3, #0]
 800428c:	691a      	ldr	r2, [r3, #16]
 800428e:	68fb      	ldr	r3, [r7, #12]
 8004290:	6a5b      	ldr	r3, [r3, #36]	; 0x24
 8004292:	b2d2      	uxtb	r2, r2
 8004294:	701a      	strb	r2, [r3, #0]

          /* Increment Buffer pointer */
          hi2c->pBuffPtr++;
 8004296:	68fb      	ldr	r3, [r7, #12]
 8004298:	6a5b      	ldr	r3, [r3, #36]	; 0x24
 800429a:	1c5a      	adds	r2, r3, #1
 800429c:	68fb      	ldr	r3, [r7, #12]
 800429e:	625a      	str	r2, [r3, #36]	; 0x24

          /* Update counter */
          hi2c->XferSize--;
 80042a0:	68fb      	ldr	r3, [r7, #12]
 80042a2:	8d1b      	ldrh	r3, [r3, #40]	; 0x28
 80042a4:	3b01      	subs	r3, #1
 80042a6:	b29a      	uxth	r2, r3
 80042a8:	68fb      	ldr	r3, [r7, #12]
 80042aa:	851a      	strh	r2, [r3, #40]	; 0x28
          hi2c->XferCount--;
 80042ac:	68fb      	ldr	r3, [r7, #12]
 80042ae:	8d5b      	ldrh	r3, [r3, #42]	; 0x2a
 80042b0:	b29b      	uxth	r3, r3
 80042b2:	3b01      	subs	r3, #1
 80042b4:	b29a      	uxth	r2, r3
 80042b6:	68fb      	ldr	r3, [r7, #12]
 80042b8:	855a      	strh	r2, [r3, #42]	; 0x2a
 80042ba:	e117      	b.n	80044ec <HAL_I2C_Master_Receive+0x430>
        }
        /* Two bytes */
        else if (hi2c->XferSize == 2U)
 80042bc:	68fb      	ldr	r3, [r7, #12]
 80042be:	8d1b      	ldrh	r3, [r3, #40]	; 0x28
 80042c0:	2b02      	cmp	r3, #2
 80042c2:	d14e      	bne.n	8004362 <HAL_I2C_Master_Receive+0x2a6>
        {
          /* Wait until BTF flag is set */
          if (I2C_WaitOnFlagUntilTimeout(hi2c, I2C_FLAG_BTF, RESET, Timeout, tickstart) != HAL_OK)
 80042c4:	6a7b      	ldr	r3, [r7, #36]	; 0x24
 80042c6:	9300      	str	r3, [sp, #0]
 80042c8:	6b3b      	ldr	r3, [r7, #48]	; 0x30
 80042ca:	2200      	movs	r2, #0
 80042cc:	4906      	ldr	r1, [pc, #24]	; (80042e8 <HAL_I2C_Master_Receive+0x22c>)
 80042ce:	68f8      	ldr	r0, [r7, #12]
 80042d0:	f000 fa76 	bl	80047c0 <I2C_WaitOnFlagUntilTimeout>
 80042d4:	4603      	mov	r3, r0
 80042d6:	2b00      	cmp	r3, #0
 80042d8:	d008      	beq.n	80042ec <HAL_I2C_Master_Receive+0x230>
          {
            return HAL_ERROR;
 80042da:	2301      	movs	r3, #1
 80042dc:	e11a      	b.n	8004514 <HAL_I2C_Master_Receive+0x458>
 80042de:	bf00      	nop
 80042e0:	00100002 	.word	0x00100002
 80042e4:	ffff0000 	.word	0xffff0000
 80042e8:	00010004 	.word	0x00010004
          }

          /* Generate Stop */
          SET_BIT(hi2c->Instance->CR1, I2C_CR1_STOP);
 80042ec:	68fb      	ldr	r3, [r7, #12]
 80042ee:	681b      	ldr	r3, [r3, #0]
 80042f0:	681a      	ldr	r2, [r3, #0]
 80042f2:	68fb      	ldr	r3, [r7, #12]
 80042f4:	681b      	ldr	r3, [r3, #0]
 80042f6:	f442 7200 	orr.w	r2, r2, #512	; 0x200
 80042fa:	601a      	str	r2, [r3, #0]

          /* Read data from DR */
          *hi2c->pBuffPtr = (uint8_t)hi2c->Instance->DR;
 80042fc:	68fb      	ldr	r3, [r7, #12]
 80042fe:	681b      	ldr	r3, [r3, #0]
 8004300:	691a      	ldr	r2, [r3, #16]
 8004302:	68fb      	ldr	r3, [r7, #12]
 8004304:	6a5b      	ldr	r3, [r3, #36]	; 0x24
 8004306:	b2d2      	uxtb	r2, r2
 8004308:	701a      	strb	r2, [r3, #0]

          /* Increment Buffer pointer */
          hi2c->pBuffPtr++;
 800430a:	68fb      	ldr	r3, [r7, #12]
 800430c:	6a5b      	ldr	r3, [r3, #36]	; 0x24
 800430e:	1c5a      	adds	r2, r3, #1
 8004310:	68fb      	ldr	r3, [r7, #12]
 8004312:	625a      	str	r2, [r3, #36]	; 0x24

          /* Update counter */
          hi2c->XferSize--;
 8004314:	68fb      	ldr	r3, [r7, #12]
 8004316:	8d1b      	ldrh	r3, [r3, #40]	; 0x28
 8004318:	3b01      	subs	r3, #1
 800431a:	b29a      	uxth	r2, r3
 800431c:	68fb      	ldr	r3, [r7, #12]
 800431e:	851a      	strh	r2, [r3, #40]	; 0x28
          hi2c->XferCount--;
 8004320:	68fb      	ldr	r3, [r7, #12]
 8004322:	8d5b      	ldrh	r3, [r3, #42]	; 0x2a
 8004324:	b29b      	uxth	r3, r3
 8004326:	3b01      	subs	r3, #1
 8004328:	b29a      	uxth	r2, r3
 800432a:	68fb      	ldr	r3, [r7, #12]
 800432c:	855a      	strh	r2, [r3, #42]	; 0x2a

          /* Read data from DR */
          *hi2c->pBuffPtr = (uint8_t)hi2c->Instance->DR;
 800432e:	68fb      	ldr	r3, [r7, #12]
 8004330:	681b      	ldr	r3, [r3, #0]
 8004332:	691a      	ldr	r2, [r3, #16]
 8004334:	68fb      	ldr	r3, [r7, #12]
 8004336:	6a5b      	ldr	r3, [r3, #36]	; 0x24
 8004338:	b2d2      	uxtb	r2, r2
 800433a:	701a      	strb	r2, [r3, #0]

          /* Increment Buffer pointer */
          hi2c->pBuffPtr++;
 800433c:	68fb      	ldr	r3, [r7, #12]
 800433e:	6a5b      	ldr	r3, [r3, #36]	; 0x24
 8004340:	1c5a      	adds	r2, r3, #1
 8004342:	68fb      	ldr	r3, [r7, #12]
 8004344:	625a      	str	r2, [r3, #36]	; 0x24

          /* Update counter */
          hi2c->XferSize--;
 8004346:	68fb      	ldr	r3, [r7, #12]
 8004348:	8d1b      	ldrh	r3, [r3, #40]	; 0x28
 800434a:	3b01      	subs	r3, #1
 800434c:	b29a      	uxth	r2, r3
 800434e:	68fb      	ldr	r3, [r7, #12]
 8004350:	851a      	strh	r2, [r3, #40]	; 0x28
          hi2c->XferCount--;
 8004352:	68fb      	ldr	r3, [r7, #12]
 8004354:	8d5b      	ldrh	r3, [r3, #42]	; 0x2a
 8004356:	b29b      	uxth	r3, r3
 8004358:	3b01      	subs	r3, #1
 800435a:	b29a      	uxth	r2, r3
 800435c:	68fb      	ldr	r3, [r7, #12]
 800435e:	855a      	strh	r2, [r3, #42]	; 0x2a
 8004360:	e0c4      	b.n	80044ec <HAL_I2C_Master_Receive+0x430>
        }
        /* 3 Last bytes */
        else
        {
          /* Wait until BTF flag is set */
          if (I2C_WaitOnFlagUntilTimeout(hi2c, I2C_FLAG_BTF, RESET, Timeout, tickstart) != HAL_OK)
 8004362:	6a7b      	ldr	r3, [r7, #36]	; 0x24
 8004364:	9300      	str	r3, [sp, #0]
 8004366:	6b3b      	ldr	r3, [r7, #48]	; 0x30
 8004368:	2200      	movs	r2, #0
 800436a:	496c      	ldr	r1, [pc, #432]	; (800451c <HAL_I2C_Master_Receive+0x460>)
 800436c:	68f8      	ldr	r0, [r7, #12]
 800436e:	f000 fa27 	bl	80047c0 <I2C_WaitOnFlagUntilTimeout>
 8004372:	4603      	mov	r3, r0
 8004374:	2b00      	cmp	r3, #0
 8004376:	d001      	beq.n	800437c <HAL_I2C_Master_Receive+0x2c0>
          {
            return HAL_ERROR;
 8004378:	2301      	movs	r3, #1
 800437a:	e0cb      	b.n	8004514 <HAL_I2C_Master_Receive+0x458>
          }

          /* Disable Acknowledge */
          CLEAR_BIT(hi2c->Instance->CR1, I2C_CR1_ACK);
 800437c:	68fb      	ldr	r3, [r7, #12]
 800437e:	681b      	ldr	r3, [r3, #0]
 8004380:	681a      	ldr	r2, [r3, #0]
 8004382:	68fb      	ldr	r3, [r7, #12]
 8004384:	681b      	ldr	r3, [r3, #0]
 8004386:	f422 6280 	bic.w	r2, r2, #1024	; 0x400
 800438a:	601a      	str	r2, [r3, #0]

          /* Read data from DR */
          *hi2c->pBuffPtr = (uint8_t)hi2c->Instance->DR;
 800438c:	68fb      	ldr	r3, [r7, #12]
 800438e:	681b      	ldr	r3, [r3, #0]
 8004390:	691a      	ldr	r2, [r3, #16]
 8004392:	68fb      	ldr	r3, [r7, #12]
 8004394:	6a5b      	ldr	r3, [r3, #36]	; 0x24
 8004396:	b2d2      	uxtb	r2, r2
 8004398:	701a      	strb	r2, [r3, #0]

          /* Increment Buffer pointer */
          hi2c->pBuffPtr++;
 800439a:	68fb      	ldr	r3, [r7, #12]
 800439c:	6a5b      	ldr	r3, [r3, #36]	; 0x24
 800439e:	1c5a      	adds	r2, r3, #1
 80043a0:	68fb      	ldr	r3, [r7, #12]
 80043a2:	625a      	str	r2, [r3, #36]	; 0x24

          /* Update counter */
          hi2c->XferSize--;
 80043a4:	68fb      	ldr	r3, [r7, #12]
 80043a6:	8d1b      	ldrh	r3, [r3, #40]	; 0x28
 80043a8:	3b01      	subs	r3, #1
 80043aa:	b29a      	uxth	r2, r3
 80043ac:	68fb      	ldr	r3, [r7, #12]
 80043ae:	851a      	strh	r2, [r3, #40]	; 0x28
          hi2c->XferCount--;
 80043b0:	68fb      	ldr	r3, [r7, #12]
 80043b2:	8d5b      	ldrh	r3, [r3, #42]	; 0x2a
 80043b4:	b29b      	uxth	r3, r3
 80043b6:	3b01      	subs	r3, #1
 80043b8:	b29a      	uxth	r2, r3
 80043ba:	68fb      	ldr	r3, [r7, #12]
 80043bc:	855a      	strh	r2, [r3, #42]	; 0x2a

          /* Wait until BTF flag is set */
          if (I2C_WaitOnFlagUntilTimeout(hi2c, I2C_FLAG_BTF, RESET, Timeout, tickstart) != HAL_OK)
 80043be:	6a7b      	ldr	r3, [r7, #36]	; 0x24
 80043c0:	9300      	str	r3, [sp, #0]
 80043c2:	6b3b      	ldr	r3, [r7, #48]	; 0x30
 80043c4:	2200      	movs	r2, #0
 80043c6:	4955      	ldr	r1, [pc, #340]	; (800451c <HAL_I2C_Master_Receive+0x460>)
 80043c8:	68f8      	ldr	r0, [r7, #12]
 80043ca:	f000 f9f9 	bl	80047c0 <I2C_WaitOnFlagUntilTimeout>
 80043ce:	4603      	mov	r3, r0
 80043d0:	2b00      	cmp	r3, #0
 80043d2:	d001      	beq.n	80043d8 <HAL_I2C_Master_Receive+0x31c>
          {
            return HAL_ERROR;
 80043d4:	2301      	movs	r3, #1
 80043d6:	e09d      	b.n	8004514 <HAL_I2C_Master_Receive+0x458>
          }

          /* Generate Stop */
          SET_BIT(hi2c->Instance->CR1, I2C_CR1_STOP);
 80043d8:	68fb      	ldr	r3, [r7, #12]
 80043da:	681b      	ldr	r3, [r3, #0]
 80043dc:	681a      	ldr	r2, [r3, #0]
 80043de:	68fb      	ldr	r3, [r7, #12]
 80043e0:	681b      	ldr	r3, [r3, #0]
 80043e2:	f442 7200 	orr.w	r2, r2, #512	; 0x200
 80043e6:	601a      	str	r2, [r3, #0]

          /* Read data from DR */
          *hi2c->pBuffPtr = (uint8_t)hi2c->Instance->DR;
 80043e8:	68fb      	ldr	r3, [r7, #12]
 80043ea:	681b      	ldr	r3, [r3, #0]
 80043ec:	691a      	ldr	r2, [r3, #16]
 80043ee:	68fb      	ldr	r3, [r7, #12]
 80043f0:	6a5b      	ldr	r3, [r3, #36]	; 0x24
 80043f2:	b2d2      	uxtb	r2, r2
 80043f4:	701a      	strb	r2, [r3, #0]

          /* Increment Buffer pointer */
          hi2c->pBuffPtr++;
 80043f6:	68fb      	ldr	r3, [r7, #12]
 80043f8:	6a5b      	ldr	r3, [r3, #36]	; 0x24
 80043fa:	1c5a      	adds	r2, r3, #1
 80043fc:	68fb      	ldr	r3, [r7, #12]
 80043fe:	625a      	str	r2, [r3, #36]	; 0x24

          /* Update counter */
          hi2c->XferSize--;
 8004400:	68fb      	ldr	r3, [r7, #12]
 8004402:	8d1b      	ldrh	r3, [r3, #40]	; 0x28
 8004404:	3b01      	subs	r3, #1
 8004406:	b29a      	uxth	r2, r3
 8004408:	68fb      	ldr	r3, [r7, #12]
 800440a:	851a      	strh	r2, [r3, #40]	; 0x28
          hi2c->XferCount--;
 800440c:	68fb      	ldr	r3, [r7, #12]
 800440e:	8d5b      	ldrh	r3, [r3, #42]	; 0x2a
 8004410:	b29b      	uxth	r3, r3
 8004412:	3b01      	subs	r3, #1
 8004414:	b29a      	uxth	r2, r3
 8004416:	68fb      	ldr	r3, [r7, #12]
 8004418:	855a      	strh	r2, [r3, #42]	; 0x2a

          /* Read data from DR */
          *hi2c->pBuffPtr = (uint8_t)hi2c->Instance->DR;
 800441a:	68fb      	ldr	r3, [r7, #12]
 800441c:	681b      	ldr	r3, [r3, #0]
 800441e:	691a      	ldr	r2, [r3, #16]
 8004420:	68fb      	ldr	r3, [r7, #12]
 8004422:	6a5b      	ldr	r3, [r3, #36]	; 0x24
 8004424:	b2d2      	uxtb	r2, r2
 8004426:	701a      	strb	r2, [r3, #0]

          /* Increment Buffer pointer */
          hi2c->pBuffPtr++;
 8004428:	68fb      	ldr	r3, [r7, #12]
 800442a:	6a5b      	ldr	r3, [r3, #36]	; 0x24
 800442c:	1c5a      	adds	r2, r3, #1
 800442e:	68fb      	ldr	r3, [r7, #12]
 8004430:	625a      	str	r2, [r3, #36]	; 0x24

          /* Update counter */
          hi2c->XferSize--;
 8004432:	68fb      	ldr	r3, [r7, #12]
 8004434:	8d1b      	ldrh	r3, [r3, #40]	; 0x28
 8004436:	3b01      	subs	r3, #1
 8004438:	b29a      	uxth	r2, r3
 800443a:	68fb      	ldr	r3, [r7, #12]
 800443c:	851a      	strh	r2, [r3, #40]	; 0x28
          hi2c->XferCount--;
 800443e:	68fb      	ldr	r3, [r7, #12]
 8004440:	8d5b      	ldrh	r3, [r3, #42]	; 0x2a
 8004442:	b29b      	uxth	r3, r3
 8004444:	3b01      	subs	r3, #1
 8004446:	b29a      	uxth	r2, r3
 8004448:	68fb      	ldr	r3, [r7, #12]
 800444a:	855a      	strh	r2, [r3, #42]	; 0x2a
 800444c:	e04e      	b.n	80044ec <HAL_I2C_Master_Receive+0x430>
        }
      }
      else
      {
        /* Wait until RXNE flag is set */
        if (I2C_WaitOnRXNEFlagUntilTimeout(hi2c, Timeout, tickstart) != HAL_OK)
 800444e:	6a7a      	ldr	r2, [r7, #36]	; 0x24
 8004450:	6b39      	ldr	r1, [r7, #48]	; 0x30
 8004452:	68f8      	ldr	r0, [r7, #12]
 8004454:	f000 fb5e 	bl	8004b14 <I2C_WaitOnRXNEFlagUntilTimeout>
 8004458:	4603      	mov	r3, r0
 800445a:	2b00      	cmp	r3, #0
 800445c:	d001      	beq.n	8004462 <HAL_I2C_Master_Receive+0x3a6>
        {
          return HAL_ERROR;
 800445e:	2301      	movs	r3, #1
 8004460:	e058      	b.n	8004514 <HAL_I2C_Master_Receive+0x458>
        }

        /* Read data from DR */
        *hi2c->pBuffPtr = (uint8_t)hi2c->Instance->DR;
 8004462:	68fb      	ldr	r3, [r7, #12]
 8004464:	681b      	ldr	r3, [r3, #0]
 8004466:	691a      	ldr	r2, [r3, #16]
 8004468:	68fb      	ldr	r3, [r7, #12]
 800446a:	6a5b      	ldr	r3, [r3, #36]	; 0x24
 800446c:	b2d2      	uxtb	r2, r2
 800446e:	701a      	strb	r2, [r3, #0]

        /* Increment Buffer pointer */
        hi2c->pBuffPtr++;
 8004470:	68fb      	ldr	r3, [r7, #12]
 8004472:	6a5b      	ldr	r3, [r3, #36]	; 0x24
 8004474:	1c5a      	adds	r2, r3, #1
 8004476:	68fb      	ldr	r3, [r7, #12]
 8004478:	625a      	str	r2, [r3, #36]	; 0x24

        /* Update counter */
        hi2c->XferSize--;
 800447a:	68fb      	ldr	r3, [r7, #12]
 800447c:	8d1b      	ldrh	r3, [r3, #40]	; 0x28
 800447e:	3b01      	subs	r3, #1
 8004480:	b29a      	uxth	r2, r3
 8004482:	68fb      	ldr	r3, [r7, #12]
 8004484:	851a      	strh	r2, [r3, #40]	; 0x28
        hi2c->XferCount--;
 8004486:	68fb      	ldr	r3, [r7, #12]
 8004488:	8d5b      	ldrh	r3, [r3, #42]	; 0x2a
 800448a:	b29b      	uxth	r3, r3
 800448c:	3b01      	subs	r3, #1
 800448e:	b29a      	uxth	r2, r3
 8004490:	68fb      	ldr	r3, [r7, #12]
 8004492:	855a      	strh	r2, [r3, #42]	; 0x2a

        if (__HAL_I2C_GET_FLAG(hi2c, I2C_FLAG_BTF) == SET)
 8004494:	68fb      	ldr	r3, [r7, #12]
 8004496:	681b      	ldr	r3, [r3, #0]
 8004498:	695b      	ldr	r3, [r3, #20]
 800449a:	f003 0304 	and.w	r3, r3, #4
 800449e:	2b04      	cmp	r3, #4
 80044a0:	d124      	bne.n	80044ec <HAL_I2C_Master_Receive+0x430>
        {

          if (hi2c->XferSize == 3U)
 80044a2:	68fb      	ldr	r3, [r7, #12]
 80044a4:	8d1b      	ldrh	r3, [r3, #40]	; 0x28
 80044a6:	2b03      	cmp	r3, #3
 80044a8:	d107      	bne.n	80044ba <HAL_I2C_Master_Receive+0x3fe>
          {
            /* Disable Acknowledge */
            CLEAR_BIT(hi2c->Instance->CR1, I2C_CR1_ACK);
 80044aa:	68fb      	ldr	r3, [r7, #12]
 80044ac:	681b      	ldr	r3, [r3, #0]
 80044ae:	681a      	ldr	r2, [r3, #0]
 80044b0:	68fb      	ldr	r3, [r7, #12]
 80044b2:	681b      	ldr	r3, [r3, #0]
 80044b4:	f422 6280 	bic.w	r2, r2, #1024	; 0x400
 80044b8:	601a      	str	r2, [r3, #0]
          }

          /* Read data from DR */
          *hi2c->pBuffPtr = (uint8_t)hi2c->Instance->DR;
 80044ba:	68fb      	ldr	r3, [r7, #12]
 80044bc:	681b      	ldr	r3, [r3, #0]
 80044be:	691a      	ldr	r2, [r3, #16]
 80044c0:	68fb      	ldr	r3, [r7, #12]
 80044c2:	6a5b      	ldr	r3, [r3, #36]	; 0x24
 80044c4:	b2d2      	uxtb	r2, r2
 80044c6:	701a      	strb	r2, [r3, #0]

          /* Increment Buffer pointer */
          hi2c->pBuffPtr++;
 80044c8:	68fb      	ldr	r3, [r7, #12]
 80044ca:	6a5b      	ldr	r3, [r3, #36]	; 0x24
 80044cc:	1c5a      	adds	r2, r3, #1
 80044ce:	68fb      	ldr	r3, [r7, #12]
 80044d0:	625a      	str	r2, [r3, #36]	; 0x24

          /* Update counter */
          hi2c->XferSize--;
 80044d2:	68fb      	ldr	r3, [r7, #12]
 80044d4:	8d1b      	ldrh	r3, [r3, #40]	; 0x28
 80044d6:	3b01      	subs	r3, #1
 80044d8:	b29a      	uxth	r2, r3
 80044da:	68fb      	ldr	r3, [r7, #12]
 80044dc:	851a      	strh	r2, [r3, #40]	; 0x28
          hi2c->XferCount--;
 80044de:	68fb      	ldr	r3, [r7, #12]
 80044e0:	8d5b      	ldrh	r3, [r3, #42]	; 0x2a
 80044e2:	b29b      	uxth	r3, r3
 80044e4:	3b01      	subs	r3, #1
 80044e6:	b29a      	uxth	r2, r3
 80044e8:	68fb      	ldr	r3, [r7, #12]
 80044ea:	855a      	strh	r2, [r3, #42]	; 0x2a
    while (hi2c->XferSize > 0U)
 80044ec:	68fb      	ldr	r3, [r7, #12]
 80044ee:	8d1b      	ldrh	r3, [r3, #40]	; 0x28
 80044f0:	2b00      	cmp	r3, #0
 80044f2:	f47f aeb6 	bne.w	8004262 <HAL_I2C_Master_Receive+0x1a6>
        }
      }
    }

    hi2c->State = HAL_I2C_STATE_READY;
 80044f6:	68fb      	ldr	r3, [r7, #12]
 80044f8:	2220      	movs	r2, #32
 80044fa:	f883 203d 	strb.w	r2, [r3, #61]	; 0x3d
    hi2c->Mode = HAL_I2C_MODE_NONE;
 80044fe:	68fb      	ldr	r3, [r7, #12]
 8004500:	2200      	movs	r2, #0
 8004502:	f883 203e 	strb.w	r2, [r3, #62]	; 0x3e

    /* Process Unlocked */
    __HAL_UNLOCK(hi2c);
 8004506:	68fb      	ldr	r3, [r7, #12]
 8004508:	2200      	movs	r2, #0
 800450a:	f883 203c 	strb.w	r2, [r3, #60]	; 0x3c

    return HAL_OK;
 800450e:	2300      	movs	r3, #0
 8004510:	e000      	b.n	8004514 <HAL_I2C_Master_Receive+0x458>
  }
  else
  {
    return HAL_BUSY;
 8004512:	2302      	movs	r3, #2
  }
}
 8004514:	4618      	mov	r0, r3
 8004516:	3728      	adds	r7, #40	; 0x28
 8004518:	46bd      	mov	sp, r7
 800451a:	bd80      	pop	{r7, pc}
 800451c:	00010004 	.word	0x00010004

08004520 <I2C_MasterRequestWrite>:
  * @param  Timeout Timeout duration
  * @param  Tickstart Tick start value
  * @retval HAL status
  */
static HAL_StatusTypeDef I2C_MasterRequestWrite(I2C_HandleTypeDef *hi2c, uint16_t DevAddress, uint32_t Timeout, uint32_t Tickstart)
{
 8004520:	b580      	push	{r7, lr}
 8004522:	b088      	sub	sp, #32
 8004524:	af02      	add	r7, sp, #8
 8004526:	60f8      	str	r0, [r7, #12]
 8004528:	607a      	str	r2, [r7, #4]
 800452a:	603b      	str	r3, [r7, #0]
 800452c:	460b      	mov	r3, r1
 800452e:	817b      	strh	r3, [r7, #10]
  /* Declaration of temporary variable to prevent undefined behavior of volatile usage */
  uint32_t CurrentXferOptions = hi2c->XferOptions;
 8004530:	68fb      	ldr	r3, [r7, #12]
 8004532:	6adb      	ldr	r3, [r3, #44]	; 0x2c
 8004534:	617b      	str	r3, [r7, #20]

  /* Generate Start condition if first transfer */
  if ((CurrentXferOptions == I2C_FIRST_AND_LAST_FRAME) || (CurrentXferOptions == I2C_FIRST_FRAME) || (CurrentXferOptions == I2C_NO_OPTION_FRAME))
 8004536:	697b      	ldr	r3, [r7, #20]
 8004538:	2b08      	cmp	r3, #8
 800453a:	d006      	beq.n	800454a <I2C_MasterRequestWrite+0x2a>
 800453c:	697b      	ldr	r3, [r7, #20]
 800453e:	2b01      	cmp	r3, #1
 8004540:	d003      	beq.n	800454a <I2C_MasterRequestWrite+0x2a>
 8004542:	697b      	ldr	r3, [r7, #20]
 8004544:	f513 3f80 	cmn.w	r3, #65536	; 0x10000
 8004548:	d108      	bne.n	800455c <I2C_MasterRequestWrite+0x3c>
  {
    /* Generate Start */
    SET_BIT(hi2c->Instance->CR1, I2C_CR1_START);
 800454a:	68fb      	ldr	r3, [r7, #12]
 800454c:	681b      	ldr	r3, [r3, #0]
 800454e:	681a      	ldr	r2, [r3, #0]
 8004550:	68fb      	ldr	r3, [r7, #12]
 8004552:	681b      	ldr	r3, [r3, #0]
 8004554:	f442 7280 	orr.w	r2, r2, #256	; 0x100
 8004558:	601a      	str	r2, [r3, #0]
 800455a:	e00b      	b.n	8004574 <I2C_MasterRequestWrite+0x54>
  }
  else if (hi2c->PreviousState == I2C_STATE_MASTER_BUSY_RX)
 800455c:	68fb      	ldr	r3, [r7, #12]
 800455e:	6b1b      	ldr	r3, [r3, #48]	; 0x30
 8004560:	2b12      	cmp	r3, #18
 8004562:	d107      	bne.n	8004574 <I2C_MasterRequestWrite+0x54>
  {
    /* Generate ReStart */
    SET_BIT(hi2c->Instance->CR1, I2C_CR1_START);
 8004564:	68fb      	ldr	r3, [r7, #12]
 8004566:	681b      	ldr	r3, [r3, #0]
 8004568:	681a      	ldr	r2, [r3, #0]
 800456a:	68fb      	ldr	r3, [r7, #12]
 800456c:	681b      	ldr	r3, [r3, #0]
 800456e:	f442 7280 	orr.w	r2, r2, #256	; 0x100
 8004572:	601a      	str	r2, [r3, #0]
  {
    /* Do nothing */
  }

  /* Wait until SB flag is set */
  if (I2C_WaitOnFlagUntilTimeout(hi2c, I2C_FLAG_SB, RESET, Timeout, Tickstart) != HAL_OK)
 8004574:	683b      	ldr	r3, [r7, #0]
 8004576:	9300      	str	r3, [sp, #0]
 8004578:	687b      	ldr	r3, [r7, #4]
 800457a:	2200      	movs	r2, #0
 800457c:	f04f 1101 	mov.w	r1, #65537	; 0x10001
 8004580:	68f8      	ldr	r0, [r7, #12]
 8004582:	f000 f91d 	bl	80047c0 <I2C_WaitOnFlagUntilTimeout>
 8004586:	4603      	mov	r3, r0
 8004588:	2b00      	cmp	r3, #0
 800458a:	d00d      	beq.n	80045a8 <I2C_MasterRequestWrite+0x88>
  {
    if (READ_BIT(hi2c->Instance->CR1, I2C_CR1_START) == I2C_CR1_START)
 800458c:	68fb      	ldr	r3, [r7, #12]
 800458e:	681b      	ldr	r3, [r3, #0]
 8004590:	681b      	ldr	r3, [r3, #0]
 8004592:	f403 7380 	and.w	r3, r3, #256	; 0x100
 8004596:	f5b3 7f80 	cmp.w	r3, #256	; 0x100
 800459a:	d103      	bne.n	80045a4 <I2C_MasterRequestWrite+0x84>
    {
      hi2c->ErrorCode = HAL_I2C_WRONG_START;
 800459c:	68fb      	ldr	r3, [r7, #12]
 800459e:	f44f 7200 	mov.w	r2, #512	; 0x200
 80045a2:	641a      	str	r2, [r3, #64]	; 0x40
    }
    return HAL_TIMEOUT;
 80045a4:	2303      	movs	r3, #3
 80045a6:	e035      	b.n	8004614 <I2C_MasterRequestWrite+0xf4>
  }

  if (hi2c->Init.AddressingMode == I2C_ADDRESSINGMODE_7BIT)
 80045a8:	68fb      	ldr	r3, [r7, #12]
 80045aa:	691b      	ldr	r3, [r3, #16]
 80045ac:	f5b3 4f80 	cmp.w	r3, #16384	; 0x4000
 80045b0:	d108      	bne.n	80045c4 <I2C_MasterRequestWrite+0xa4>
  {
    /* Send slave address */
    hi2c->Instance->DR = I2C_7BIT_ADD_WRITE(DevAddress);
 80045b2:	897b      	ldrh	r3, [r7, #10]
 80045b4:	b2db      	uxtb	r3, r3
 80045b6:	461a      	mov	r2, r3
 80045b8:	68fb      	ldr	r3, [r7, #12]
 80045ba:	681b      	ldr	r3, [r3, #0]
 80045bc:	f002 02fe 	and.w	r2, r2, #254	; 0xfe
 80045c0:	611a      	str	r2, [r3, #16]
 80045c2:	e01b      	b.n	80045fc <I2C_MasterRequestWrite+0xdc>
  }
  else
  {
    /* Send header of slave address */
    hi2c->Instance->DR = I2C_10BIT_HEADER_WRITE(DevAddress);
 80045c4:	897b      	ldrh	r3, [r7, #10]
 80045c6:	11db      	asrs	r3, r3, #7
 80045c8:	b2db      	uxtb	r3, r3
 80045ca:	f003 0306 	and.w	r3, r3, #6
 80045ce:	b2db      	uxtb	r3, r3
 80045d0:	f063 030f 	orn	r3, r3, #15
 80045d4:	b2da      	uxtb	r2, r3
 80045d6:	68fb      	ldr	r3, [r7, #12]
 80045d8:	681b      	ldr	r3, [r3, #0]
 80045da:	611a      	str	r2, [r3, #16]

    /* Wait until ADD10 flag is set */
    if (I2C_WaitOnMasterAddressFlagUntilTimeout(hi2c, I2C_FLAG_ADD10, Timeout, Tickstart) != HAL_OK)
 80045dc:	683b      	ldr	r3, [r7, #0]
 80045de:	687a      	ldr	r2, [r7, #4]
 80045e0:	490e      	ldr	r1, [pc, #56]	; (800461c <I2C_MasterRequestWrite+0xfc>)
 80045e2:	68f8      	ldr	r0, [r7, #12]
 80045e4:	f000 f966 	bl	80048b4 <I2C_WaitOnMasterAddressFlagUntilTimeout>
 80045e8:	4603      	mov	r3, r0
 80045ea:	2b00      	cmp	r3, #0
 80045ec:	d001      	beq.n	80045f2 <I2C_MasterRequestWrite+0xd2>
    {
      return HAL_ERROR;
 80045ee:	2301      	movs	r3, #1
 80045f0:	e010      	b.n	8004614 <I2C_MasterRequestWrite+0xf4>
    }

    /* Send slave address */
    hi2c->Instance->DR = I2C_10BIT_ADDRESS(DevAddress);
 80045f2:	897b      	ldrh	r3, [r7, #10]
 80045f4:	b2da      	uxtb	r2, r3
 80045f6:	68fb      	ldr	r3, [r7, #12]
 80045f8:	681b      	ldr	r3, [r3, #0]
 80045fa:	611a      	str	r2, [r3, #16]
  }

  /* Wait until ADDR flag is set */
  if (I2C_WaitOnMasterAddressFlagUntilTimeout(hi2c, I2C_FLAG_ADDR, Timeout, Tickstart) != HAL_OK)
 80045fc:	683b      	ldr	r3, [r7, #0]
 80045fe:	687a      	ldr	r2, [r7, #4]
 8004600:	4907      	ldr	r1, [pc, #28]	; (8004620 <I2C_MasterRequestWrite+0x100>)
 8004602:	68f8      	ldr	r0, [r7, #12]
 8004604:	f000 f956 	bl	80048b4 <I2C_WaitOnMasterAddressFlagUntilTimeout>
 8004608:	4603      	mov	r3, r0
 800460a:	2b00      	cmp	r3, #0
 800460c:	d001      	beq.n	8004612 <I2C_MasterRequestWrite+0xf2>
  {
    return HAL_ERROR;
 800460e:	2301      	movs	r3, #1
 8004610:	e000      	b.n	8004614 <I2C_MasterRequestWrite+0xf4>
  }

  return HAL_OK;
 8004612:	2300      	movs	r3, #0
}
 8004614:	4618      	mov	r0, r3
 8004616:	3718      	adds	r7, #24
 8004618:	46bd      	mov	sp, r7
 800461a:	bd80      	pop	{r7, pc}
 800461c:	00010008 	.word	0x00010008
 8004620:	00010002 	.word	0x00010002

08004624 <I2C_MasterRequestRead>:
  * @param  Timeout Timeout duration
  * @param  Tickstart Tick start value
  * @retval HAL status
  */
static HAL_StatusTypeDef I2C_MasterRequestRead(I2C_HandleTypeDef *hi2c, uint16_t DevAddress, uint32_t Timeout, uint32_t Tickstart)
{
 8004624:	b580      	push	{r7, lr}
 8004626:	b088      	sub	sp, #32
 8004628:	af02      	add	r7, sp, #8
 800462a:	60f8      	str	r0, [r7, #12]
 800462c:	607a      	str	r2, [r7, #4]
 800462e:	603b      	str	r3, [r7, #0]
 8004630:	460b      	mov	r3, r1
 8004632:	817b      	strh	r3, [r7, #10]
  /* Declaration of temporary variable to prevent undefined behavior of volatile usage */
  uint32_t CurrentXferOptions = hi2c->XferOptions;
 8004634:	68fb      	ldr	r3, [r7, #12]
 8004636:	6adb      	ldr	r3, [r3, #44]	; 0x2c
 8004638:	617b      	str	r3, [r7, #20]

  /* Enable Acknowledge */
  SET_BIT(hi2c->Instance->CR1, I2C_CR1_ACK);
 800463a:	68fb      	ldr	r3, [r7, #12]
 800463c:	681b      	ldr	r3, [r3, #0]
 800463e:	681a      	ldr	r2, [r3, #0]
 8004640:	68fb      	ldr	r3, [r7, #12]
 8004642:	681b      	ldr	r3, [r3, #0]
 8004644:	f442 6280 	orr.w	r2, r2, #1024	; 0x400
 8004648:	601a      	str	r2, [r3, #0]

  /* Generate Start condition if first transfer */
  if ((CurrentXferOptions == I2C_FIRST_AND_LAST_FRAME) || (CurrentXferOptions == I2C_FIRST_FRAME)  || (CurrentXferOptions == I2C_NO_OPTION_FRAME))
 800464a:	697b      	ldr	r3, [r7, #20]
 800464c:	2b08      	cmp	r3, #8
 800464e:	d006      	beq.n	800465e <I2C_MasterRequestRead+0x3a>
 8004650:	697b      	ldr	r3, [r7, #20]
 8004652:	2b01      	cmp	r3, #1
 8004654:	d003      	beq.n	800465e <I2C_MasterRequestRead+0x3a>
 8004656:	697b      	ldr	r3, [r7, #20]
 8004658:	f513 3f80 	cmn.w	r3, #65536	; 0x10000
 800465c:	d108      	bne.n	8004670 <I2C_MasterRequestRead+0x4c>
  {
    /* Generate Start */
    SET_BIT(hi2c->Instance->CR1, I2C_CR1_START);
 800465e:	68fb      	ldr	r3, [r7, #12]
 8004660:	681b      	ldr	r3, [r3, #0]
 8004662:	681a      	ldr	r2, [r3, #0]
 8004664:	68fb      	ldr	r3, [r7, #12]
 8004666:	681b      	ldr	r3, [r3, #0]
 8004668:	f442 7280 	orr.w	r2, r2, #256	; 0x100
 800466c:	601a      	str	r2, [r3, #0]
 800466e:	e00b      	b.n	8004688 <I2C_MasterRequestRead+0x64>
  }
  else if (hi2c->PreviousState == I2C_STATE_MASTER_BUSY_TX)
 8004670:	68fb      	ldr	r3, [r7, #12]
 8004672:	6b1b      	ldr	r3, [r3, #48]	; 0x30
 8004674:	2b11      	cmp	r3, #17
 8004676:	d107      	bne.n	8004688 <I2C_MasterRequestRead+0x64>
  {
    /* Generate ReStart */
    SET_BIT(hi2c->Instance->CR1, I2C_CR1_START);
 8004678:	68fb      	ldr	r3, [r7, #12]
 800467a:	681b      	ldr	r3, [r3, #0]
 800467c:	681a      	ldr	r2, [r3, #0]
 800467e:	68fb      	ldr	r3, [r7, #12]
 8004680:	681b      	ldr	r3, [r3, #0]
 8004682:	f442 7280 	orr.w	r2, r2, #256	; 0x100
 8004686:	601a      	str	r2, [r3, #0]
  {
    /* Do nothing */
  }

  /* Wait until SB flag is set */
  if (I2C_WaitOnFlagUntilTimeout(hi2c, I2C_FLAG_SB, RESET, Timeout, Tickstart) != HAL_OK)
 8004688:	683b      	ldr	r3, [r7, #0]
 800468a:	9300      	str	r3, [sp, #0]
 800468c:	687b      	ldr	r3, [r7, #4]
 800468e:	2200      	movs	r2, #0
 8004690:	f04f 1101 	mov.w	r1, #65537	; 0x10001
 8004694:	68f8      	ldr	r0, [r7, #12]
 8004696:	f000 f893 	bl	80047c0 <I2C_WaitOnFlagUntilTimeout>
 800469a:	4603      	mov	r3, r0
 800469c:	2b00      	cmp	r3, #0
 800469e:	d00d      	beq.n	80046bc <I2C_MasterRequestRead+0x98>
  {
    if (READ_BIT(hi2c->Instance->CR1, I2C_CR1_START) == I2C_CR1_START)
 80046a0:	68fb      	ldr	r3, [r7, #12]
 80046a2:	681b      	ldr	r3, [r3, #0]
 80046a4:	681b      	ldr	r3, [r3, #0]
 80046a6:	f403 7380 	and.w	r3, r3, #256	; 0x100
 80046aa:	f5b3 7f80 	cmp.w	r3, #256	; 0x100
 80046ae:	d103      	bne.n	80046b8 <I2C_MasterRequestRead+0x94>
    {
      hi2c->ErrorCode = HAL_I2C_WRONG_START;
 80046b0:	68fb      	ldr	r3, [r7, #12]
 80046b2:	f44f 7200 	mov.w	r2, #512	; 0x200
 80046b6:	641a      	str	r2, [r3, #64]	; 0x40
    }
    return HAL_TIMEOUT;
 80046b8:	2303      	movs	r3, #3
 80046ba:	e079      	b.n	80047b0 <I2C_MasterRequestRead+0x18c>
  }

  if (hi2c->Init.AddressingMode == I2C_ADDRESSINGMODE_7BIT)
 80046bc:	68fb      	ldr	r3, [r7, #12]
 80046be:	691b      	ldr	r3, [r3, #16]
 80046c0:	f5b3 4f80 	cmp.w	r3, #16384	; 0x4000
 80046c4:	d108      	bne.n	80046d8 <I2C_MasterRequestRead+0xb4>
  {
    /* Send slave address */
    hi2c->Instance->DR = I2C_7BIT_ADD_READ(DevAddress);
 80046c6:	897b      	ldrh	r3, [r7, #10]
 80046c8:	b2db      	uxtb	r3, r3
 80046ca:	f043 0301 	orr.w	r3, r3, #1
 80046ce:	b2da      	uxtb	r2, r3
 80046d0:	68fb      	ldr	r3, [r7, #12]
 80046d2:	681b      	ldr	r3, [r3, #0]
 80046d4:	611a      	str	r2, [r3, #16]
 80046d6:	e05f      	b.n	8004798 <I2C_MasterRequestRead+0x174>
  }
  else
  {
    /* Send header of slave address */
    hi2c->Instance->DR = I2C_10BIT_HEADER_WRITE(DevAddress);
 80046d8:	897b      	ldrh	r3, [r7, #10]
 80046da:	11db      	asrs	r3, r3, #7
 80046dc:	b2db      	uxtb	r3, r3
 80046de:	f003 0306 	and.w	r3, r3, #6
 80046e2:	b2db      	uxtb	r3, r3
 80046e4:	f063 030f 	orn	r3, r3, #15
 80046e8:	b2da      	uxtb	r2, r3
 80046ea:	68fb      	ldr	r3, [r7, #12]
 80046ec:	681b      	ldr	r3, [r3, #0]
 80046ee:	611a      	str	r2, [r3, #16]

    /* Wait until ADD10 flag is set */
    if (I2C_WaitOnMasterAddressFlagUntilTimeout(hi2c, I2C_FLAG_ADD10, Timeout, Tickstart) != HAL_OK)
 80046f0:	683b      	ldr	r3, [r7, #0]
 80046f2:	687a      	ldr	r2, [r7, #4]
 80046f4:	4930      	ldr	r1, [pc, #192]	; (80047b8 <I2C_MasterRequestRead+0x194>)
 80046f6:	68f8      	ldr	r0, [r7, #12]
 80046f8:	f000 f8dc 	bl	80048b4 <I2C_WaitOnMasterAddressFlagUntilTimeout>
 80046fc:	4603      	mov	r3, r0
 80046fe:	2b00      	cmp	r3, #0
 8004700:	d001      	beq.n	8004706 <I2C_MasterRequestRead+0xe2>
    {
      return HAL_ERROR;
 8004702:	2301      	movs	r3, #1
 8004704:	e054      	b.n	80047b0 <I2C_MasterRequestRead+0x18c>
    }

    /* Send slave address */
    hi2c->Instance->DR = I2C_10BIT_ADDRESS(DevAddress);
 8004706:	897b      	ldrh	r3, [r7, #10]
 8004708:	b2da      	uxtb	r2, r3
 800470a:	68fb      	ldr	r3, [r7, #12]
 800470c:	681b      	ldr	r3, [r3, #0]
 800470e:	611a      	str	r2, [r3, #16]

    /* Wait until ADDR flag is set */
    if (I2C_WaitOnMasterAddressFlagUntilTimeout(hi2c, I2C_FLAG_ADDR, Timeout, Tickstart) != HAL_OK)
 8004710:	683b      	ldr	r3, [r7, #0]
 8004712:	687a      	ldr	r2, [r7, #4]
 8004714:	4929      	ldr	r1, [pc, #164]	; (80047bc <I2C_MasterRequestRead+0x198>)
 8004716:	68f8      	ldr	r0, [r7, #12]
 8004718:	f000 f8cc 	bl	80048b4 <I2C_WaitOnMasterAddressFlagUntilTimeout>
 800471c:	4603      	mov	r3, r0
 800471e:	2b00      	cmp	r3, #0
 8004720:	d001      	beq.n	8004726 <I2C_MasterRequestRead+0x102>
    {
      return HAL_ERROR;
 8004722:	2301      	movs	r3, #1
 8004724:	e044      	b.n	80047b0 <I2C_MasterRequestRead+0x18c>
    }

    /* Clear ADDR flag */
    __HAL_I2C_CLEAR_ADDRFLAG(hi2c);
 8004726:	2300      	movs	r3, #0
 8004728:	613b      	str	r3, [r7, #16]
 800472a:	68fb      	ldr	r3, [r7, #12]
 800472c:	681b      	ldr	r3, [r3, #0]
 800472e:	695b      	ldr	r3, [r3, #20]
 8004730:	613b      	str	r3, [r7, #16]
 8004732:	68fb      	ldr	r3, [r7, #12]
 8004734:	681b      	ldr	r3, [r3, #0]
 8004736:	699b      	ldr	r3, [r3, #24]
 8004738:	613b      	str	r3, [r7, #16]
 800473a:	693b      	ldr	r3, [r7, #16]

    /* Generate Restart */
    SET_BIT(hi2c->Instance->CR1, I2C_CR1_START);
 800473c:	68fb      	ldr	r3, [r7, #12]
 800473e:	681b      	ldr	r3, [r3, #0]
 8004740:	681a      	ldr	r2, [r3, #0]
 8004742:	68fb      	ldr	r3, [r7, #12]
 8004744:	681b      	ldr	r3, [r3, #0]
 8004746:	f442 7280 	orr.w	r2, r2, #256	; 0x100
 800474a:	601a      	str	r2, [r3, #0]

    /* Wait until SB flag is set */
    if (I2C_WaitOnFlagUntilTimeout(hi2c, I2C_FLAG_SB, RESET, Timeout, Tickstart) != HAL_OK)
 800474c:	683b      	ldr	r3, [r7, #0]
 800474e:	9300      	str	r3, [sp, #0]
 8004750:	687b      	ldr	r3, [r7, #4]
 8004752:	2200      	movs	r2, #0
 8004754:	f04f 1101 	mov.w	r1, #65537	; 0x10001
 8004758:	68f8      	ldr	r0, [r7, #12]
 800475a:	f000 f831 	bl	80047c0 <I2C_WaitOnFlagUntilTimeout>
 800475e:	4603      	mov	r3, r0
 8004760:	2b00      	cmp	r3, #0
 8004762:	d00d      	beq.n	8004780 <I2C_MasterRequestRead+0x15c>
    {
      if (READ_BIT(hi2c->Instance->CR1, I2C_CR1_START) == I2C_CR1_START)
 8004764:	68fb      	ldr	r3, [r7, #12]
 8004766:	681b      	ldr	r3, [r3, #0]
 8004768:	681b      	ldr	r3, [r3, #0]
 800476a:	f403 7380 	and.w	r3, r3, #256	; 0x100
 800476e:	f5b3 7f80 	cmp.w	r3, #256	; 0x100
 8004772:	d103      	bne.n	800477c <I2C_MasterRequestRead+0x158>
      {
        hi2c->ErrorCode = HAL_I2C_WRONG_START;
 8004774:	68fb      	ldr	r3, [r7, #12]
 8004776:	f44f 7200 	mov.w	r2, #512	; 0x200
 800477a:	641a      	str	r2, [r3, #64]	; 0x40
      }
      return HAL_TIMEOUT;
 800477c:	2303      	movs	r3, #3
 800477e:	e017      	b.n	80047b0 <I2C_MasterRequestRead+0x18c>
    }

    /* Send header of slave address */
    hi2c->Instance->DR = I2C_10BIT_HEADER_READ(DevAddress);
 8004780:	897b      	ldrh	r3, [r7, #10]
 8004782:	11db      	asrs	r3, r3, #7
 8004784:	b2db      	uxtb	r3, r3
 8004786:	f003 0306 	and.w	r3, r3, #6
 800478a:	b2db      	uxtb	r3, r3
 800478c:	f063 030e 	orn	r3, r3, #14
 8004790:	b2da      	uxtb	r2, r3
 8004792:	68fb      	ldr	r3, [r7, #12]
 8004794:	681b      	ldr	r3, [r3, #0]
 8004796:	611a      	str	r2, [r3, #16]
  }

  /* Wait until ADDR flag is set */
  if (I2C_WaitOnMasterAddressFlagUntilTimeout(hi2c, I2C_FLAG_ADDR, Timeout, Tickstart) != HAL_OK)
 8004798:	683b      	ldr	r3, [r7, #0]
 800479a:	687a      	ldr	r2, [r7, #4]
 800479c:	4907      	ldr	r1, [pc, #28]	; (80047bc <I2C_MasterRequestRead+0x198>)
 800479e:	68f8      	ldr	r0, [r7, #12]
 80047a0:	f000 f888 	bl	80048b4 <I2C_WaitOnMasterAddressFlagUntilTimeout>
 80047a4:	4603      	mov	r3, r0
 80047a6:	2b00      	cmp	r3, #0
 80047a8:	d001      	beq.n	80047ae <I2C_MasterRequestRead+0x18a>
  {
    return HAL_ERROR;
 80047aa:	2301      	movs	r3, #1
 80047ac:	e000      	b.n	80047b0 <I2C_MasterRequestRead+0x18c>
  }

  return HAL_OK;
 80047ae:	2300      	movs	r3, #0
}
 80047b0:	4618      	mov	r0, r3
 80047b2:	3718      	adds	r7, #24
 80047b4:	46bd      	mov	sp, r7
 80047b6:	bd80      	pop	{r7, pc}
 80047b8:	00010008 	.word	0x00010008
 80047bc:	00010002 	.word	0x00010002

080047c0 <I2C_WaitOnFlagUntilTimeout>:
  * @param  Timeout Timeout duration
  * @param  Tickstart Tick start value
  * @retval HAL status
  */
static HAL_StatusTypeDef I2C_WaitOnFlagUntilTimeout(I2C_HandleTypeDef *hi2c, uint32_t Flag, FlagStatus Status, uint32_t Timeout, uint32_t Tickstart)
{
 80047c0:	b580      	push	{r7, lr}
 80047c2:	b084      	sub	sp, #16
 80047c4:	af00      	add	r7, sp, #0
 80047c6:	60f8      	str	r0, [r7, #12]
 80047c8:	60b9      	str	r1, [r7, #8]
 80047ca:	603b      	str	r3, [r7, #0]
 80047cc:	4613      	mov	r3, r2
 80047ce:	71fb      	strb	r3, [r7, #7]
  /* Wait until flag is set */
  while (__HAL_I2C_GET_FLAG(hi2c, Flag) == Status)
 80047d0:	e048      	b.n	8004864 <I2C_WaitOnFlagUntilTimeout+0xa4>
  {
    /* Check for the Timeout */
    if (Timeout != HAL_MAX_DELAY)
 80047d2:	683b      	ldr	r3, [r7, #0]
 80047d4:	f1b3 3fff 	cmp.w	r3, #4294967295	; 0xffffffff
 80047d8:	d044      	beq.n	8004864 <I2C_WaitOnFlagUntilTimeout+0xa4>
    {
      if (((HAL_GetTick() - Tickstart) > Timeout) || (Timeout == 0U))
 80047da:	f7fe f9f5 	bl	8002bc8 <HAL_GetTick>
 80047de:	4602      	mov	r2, r0
 80047e0:	69bb      	ldr	r3, [r7, #24]
 80047e2:	1ad3      	subs	r3, r2, r3
 80047e4:	683a      	ldr	r2, [r7, #0]
 80047e6:	429a      	cmp	r2, r3
 80047e8:	d302      	bcc.n	80047f0 <I2C_WaitOnFlagUntilTimeout+0x30>
 80047ea:	683b      	ldr	r3, [r7, #0]
 80047ec:	2b00      	cmp	r3, #0
 80047ee:	d139      	bne.n	8004864 <I2C_WaitOnFlagUntilTimeout+0xa4>
      {
        if ((__HAL_I2C_GET_FLAG(hi2c, Flag) == Status))
 80047f0:	68bb      	ldr	r3, [r7, #8]
 80047f2:	0c1b      	lsrs	r3, r3, #16
 80047f4:	b2db      	uxtb	r3, r3
 80047f6:	2b01      	cmp	r3, #1
 80047f8:	d10d      	bne.n	8004816 <I2C_WaitOnFlagUntilTimeout+0x56>
 80047fa:	68fb      	ldr	r3, [r7, #12]
 80047fc:	681b      	ldr	r3, [r3, #0]
 80047fe:	695b      	ldr	r3, [r3, #20]
 8004800:	43da      	mvns	r2, r3
 8004802:	68bb      	ldr	r3, [r7, #8]
 8004804:	4013      	ands	r3, r2
 8004806:	b29b      	uxth	r3, r3
 8004808:	2b00      	cmp	r3, #0
 800480a:	bf0c      	ite	eq
 800480c:	2301      	moveq	r3, #1
 800480e:	2300      	movne	r3, #0
 8004810:	b2db      	uxtb	r3, r3
 8004812:	461a      	mov	r2, r3
 8004814:	e00c      	b.n	8004830 <I2C_WaitOnFlagUntilTimeout+0x70>
 8004816:	68fb      	ldr	r3, [r7, #12]
 8004818:	681b      	ldr	r3, [r3, #0]
 800481a:	699b      	ldr	r3, [r3, #24]
 800481c:	43da      	mvns	r2, r3
 800481e:	68bb      	ldr	r3, [r7, #8]
 8004820:	4013      	ands	r3, r2
 8004822:	b29b      	uxth	r3, r3
 8004824:	2b00      	cmp	r3, #0
 8004826:	bf0c      	ite	eq
 8004828:	2301      	moveq	r3, #1
 800482a:	2300      	movne	r3, #0
 800482c:	b2db      	uxtb	r3, r3
 800482e:	461a      	mov	r2, r3
 8004830:	79fb      	ldrb	r3, [r7, #7]
 8004832:	429a      	cmp	r2, r3
 8004834:	d116      	bne.n	8004864 <I2C_WaitOnFlagUntilTimeout+0xa4>
        {
          hi2c->PreviousState     = I2C_STATE_NONE;
 8004836:	68fb      	ldr	r3, [r7, #12]
 8004838:	2200      	movs	r2, #0
 800483a:	631a      	str	r2, [r3, #48]	; 0x30
          hi2c->State             = HAL_I2C_STATE_READY;
 800483c:	68fb      	ldr	r3, [r7, #12]
 800483e:	2220      	movs	r2, #32
 8004840:	f883 203d 	strb.w	r2, [r3, #61]	; 0x3d
          hi2c->Mode              = HAL_I2C_MODE_NONE;
 8004844:	68fb      	ldr	r3, [r7, #12]
 8004846:	2200      	movs	r2, #0
 8004848:	f883 203e 	strb.w	r2, [r3, #62]	; 0x3e
          hi2c->ErrorCode         |= HAL_I2C_ERROR_TIMEOUT;
 800484c:	68fb      	ldr	r3, [r7, #12]
 800484e:	6c1b      	ldr	r3, [r3, #64]	; 0x40
 8004850:	f043 0220 	orr.w	r2, r3, #32
 8004854:	68fb      	ldr	r3, [r7, #12]
 8004856:	641a      	str	r2, [r3, #64]	; 0x40

          /* Process Unlocked */
          __HAL_UNLOCK(hi2c);
 8004858:	68fb      	ldr	r3, [r7, #12]
 800485a:	2200      	movs	r2, #0
 800485c:	f883 203c 	strb.w	r2, [r3, #60]	; 0x3c

          return HAL_ERROR;
 8004860:	2301      	movs	r3, #1
 8004862:	e023      	b.n	80048ac <I2C_WaitOnFlagUntilTimeout+0xec>
  while (__HAL_I2C_GET_FLAG(hi2c, Flag) == Status)
 8004864:	68bb      	ldr	r3, [r7, #8]
 8004866:	0c1b      	lsrs	r3, r3, #16
 8004868:	b2db      	uxtb	r3, r3
 800486a:	2b01      	cmp	r3, #1
 800486c:	d10d      	bne.n	800488a <I2C_WaitOnFlagUntilTimeout+0xca>
 800486e:	68fb      	ldr	r3, [r7, #12]
 8004870:	681b      	ldr	r3, [r3, #0]
 8004872:	695b      	ldr	r3, [r3, #20]
 8004874:	43da      	mvns	r2, r3
 8004876:	68bb      	ldr	r3, [r7, #8]
 8004878:	4013      	ands	r3, r2
 800487a:	b29b      	uxth	r3, r3
 800487c:	2b00      	cmp	r3, #0
 800487e:	bf0c      	ite	eq
 8004880:	2301      	moveq	r3, #1
 8004882:	2300      	movne	r3, #0
 8004884:	b2db      	uxtb	r3, r3
 8004886:	461a      	mov	r2, r3
 8004888:	e00c      	b.n	80048a4 <I2C_WaitOnFlagUntilTimeout+0xe4>
 800488a:	68fb      	ldr	r3, [r7, #12]
 800488c:	681b      	ldr	r3, [r3, #0]
 800488e:	699b      	ldr	r3, [r3, #24]
 8004890:	43da      	mvns	r2, r3
 8004892:	68bb      	ldr	r3, [r7, #8]
 8004894:	4013      	ands	r3, r2
 8004896:	b29b      	uxth	r3, r3
 8004898:	2b00      	cmp	r3, #0
 800489a:	bf0c      	ite	eq
 800489c:	2301      	moveq	r3, #1
 800489e:	2300      	movne	r3, #0
 80048a0:	b2db      	uxtb	r3, r3
 80048a2:	461a      	mov	r2, r3
 80048a4:	79fb      	ldrb	r3, [r7, #7]
 80048a6:	429a      	cmp	r2, r3
 80048a8:	d093      	beq.n	80047d2 <I2C_WaitOnFlagUntilTimeout+0x12>
        }
      }
    }
  }
  return HAL_OK;
 80048aa:	2300      	movs	r3, #0
}
 80048ac:	4618      	mov	r0, r3
 80048ae:	3710      	adds	r7, #16
 80048b0:	46bd      	mov	sp, r7
 80048b2:	bd80      	pop	{r7, pc}

080048b4 <I2C_WaitOnMasterAddressFlagUntilTimeout>:
  * @param  Timeout Timeout duration
  * @param  Tickstart Tick start value
  * @retval HAL status
  */
static HAL_StatusTypeDef I2C_WaitOnMasterAddressFlagUntilTimeout(I2C_HandleTypeDef *hi2c, uint32_t Flag, uint32_t Timeout, uint32_t Tickstart)
{
 80048b4:	b580      	push	{r7, lr}
 80048b6:	b084      	sub	sp, #16
 80048b8:	af00      	add	r7, sp, #0
 80048ba:	60f8      	str	r0, [r7, #12]
 80048bc:	60b9      	str	r1, [r7, #8]
 80048be:	607a      	str	r2, [r7, #4]
 80048c0:	603b      	str	r3, [r7, #0]
  while (__HAL_I2C_GET_FLAG(hi2c, Flag) == RESET)
 80048c2:	e071      	b.n	80049a8 <I2C_WaitOnMasterAddressFlagUntilTimeout+0xf4>
  {
    if (__HAL_I2C_GET_FLAG(hi2c, I2C_FLAG_AF) == SET)
 80048c4:	68fb      	ldr	r3, [r7, #12]
 80048c6:	681b      	ldr	r3, [r3, #0]
 80048c8:	695b      	ldr	r3, [r3, #20]
 80048ca:	f403 6380 	and.w	r3, r3, #1024	; 0x400
 80048ce:	f5b3 6f80 	cmp.w	r3, #1024	; 0x400
 80048d2:	d123      	bne.n	800491c <I2C_WaitOnMasterAddressFlagUntilTimeout+0x68>
    {
      /* Generate Stop */
      SET_BIT(hi2c->Instance->CR1, I2C_CR1_STOP);
 80048d4:	68fb      	ldr	r3, [r7, #12]
 80048d6:	681b      	ldr	r3, [r3, #0]
 80048d8:	681a      	ldr	r2, [r3, #0]
 80048da:	68fb      	ldr	r3, [r7, #12]
 80048dc:	681b      	ldr	r3, [r3, #0]
 80048de:	f442 7200 	orr.w	r2, r2, #512	; 0x200
 80048e2:	601a      	str	r2, [r3, #0]

      /* Clear AF Flag */
      __HAL_I2C_CLEAR_FLAG(hi2c, I2C_FLAG_AF);
 80048e4:	68fb      	ldr	r3, [r7, #12]
 80048e6:	681b      	ldr	r3, [r3, #0]
 80048e8:	f46f 6280 	mvn.w	r2, #1024	; 0x400
 80048ec:	615a      	str	r2, [r3, #20]

      hi2c->PreviousState       = I2C_STATE_NONE;
 80048ee:	68fb      	ldr	r3, [r7, #12]
 80048f0:	2200      	movs	r2, #0
 80048f2:	631a      	str	r2, [r3, #48]	; 0x30
      hi2c->State               = HAL_I2C_STATE_READY;
 80048f4:	68fb      	ldr	r3, [r7, #12]
 80048f6:	2220      	movs	r2, #32
 80048f8:	f883 203d 	strb.w	r2, [r3, #61]	; 0x3d
      hi2c->Mode                = HAL_I2C_MODE_NONE;
 80048fc:	68fb      	ldr	r3, [r7, #12]
 80048fe:	2200      	movs	r2, #0
 8004900:	f883 203e 	strb.w	r2, [r3, #62]	; 0x3e
      hi2c->ErrorCode           |= HAL_I2C_ERROR_AF;
 8004904:	68fb      	ldr	r3, [r7, #12]
 8004906:	6c1b      	ldr	r3, [r3, #64]	; 0x40
 8004908:	f043 0204 	orr.w	r2, r3, #4
 800490c:	68fb      	ldr	r3, [r7, #12]
 800490e:	641a      	str	r2, [r3, #64]	; 0x40

      /* Process Unlocked */
      __HAL_UNLOCK(hi2c);
 8004910:	68fb      	ldr	r3, [r7, #12]
 8004912:	2200      	movs	r2, #0
 8004914:	f883 203c 	strb.w	r2, [r3, #60]	; 0x3c

      return HAL_ERROR;
 8004918:	2301      	movs	r3, #1
 800491a:	e067      	b.n	80049ec <I2C_WaitOnMasterAddressFlagUntilTimeout+0x138>
    }

    /* Check for the Timeout */
    if (Timeout != HAL_MAX_DELAY)
 800491c:	687b      	ldr	r3, [r7, #4]
 800491e:	f1b3 3fff 	cmp.w	r3, #4294967295	; 0xffffffff
 8004922:	d041      	beq.n	80049a8 <I2C_WaitOnMasterAddressFlagUntilTimeout+0xf4>
    {
      if (((HAL_GetTick() - Tickstart) > Timeout) || (Timeout == 0U))
 8004924:	f7fe f950 	bl	8002bc8 <HAL_GetTick>
 8004928:	4602      	mov	r2, r0
 800492a:	683b      	ldr	r3, [r7, #0]
 800492c:	1ad3      	subs	r3, r2, r3
 800492e:	687a      	ldr	r2, [r7, #4]
 8004930:	429a      	cmp	r2, r3
 8004932:	d302      	bcc.n	800493a <I2C_WaitOnMasterAddressFlagUntilTimeout+0x86>
 8004934:	687b      	ldr	r3, [r7, #4]
 8004936:	2b00      	cmp	r3, #0
 8004938:	d136      	bne.n	80049a8 <I2C_WaitOnMasterAddressFlagUntilTimeout+0xf4>
      {
        if ((__HAL_I2C_GET_FLAG(hi2c, Flag) == RESET))
 800493a:	68bb      	ldr	r3, [r7, #8]
 800493c:	0c1b      	lsrs	r3, r3, #16
 800493e:	b2db      	uxtb	r3, r3
 8004940:	2b01      	cmp	r3, #1
 8004942:	d10c      	bne.n	800495e <I2C_WaitOnMasterAddressFlagUntilTimeout+0xaa>
 8004944:	68fb      	ldr	r3, [r7, #12]
 8004946:	681b      	ldr	r3, [r3, #0]
 8004948:	695b      	ldr	r3, [r3, #20]
 800494a:	43da      	mvns	r2, r3
 800494c:	68bb      	ldr	r3, [r7, #8]
 800494e:	4013      	ands	r3, r2
 8004950:	b29b      	uxth	r3, r3
 8004952:	2b00      	cmp	r3, #0
 8004954:	bf14      	ite	ne
 8004956:	2301      	movne	r3, #1
 8004958:	2300      	moveq	r3, #0
 800495a:	b2db      	uxtb	r3, r3
 800495c:	e00b      	b.n	8004976 <I2C_WaitOnMasterAddressFlagUntilTimeout+0xc2>
 800495e:	68fb      	ldr	r3, [r7, #12]
 8004960:	681b      	ldr	r3, [r3, #0]
 8004962:	699b      	ldr	r3, [r3, #24]
 8004964:	43da      	mvns	r2, r3
 8004966:	68bb      	ldr	r3, [r7, #8]
 8004968:	4013      	ands	r3, r2
 800496a:	b29b      	uxth	r3, r3
 800496c:	2b00      	cmp	r3, #0
 800496e:	bf14      	ite	ne
 8004970:	2301      	movne	r3, #1
 8004972:	2300      	moveq	r3, #0
 8004974:	b2db      	uxtb	r3, r3
 8004976:	2b00      	cmp	r3, #0
 8004978:	d016      	beq.n	80049a8 <I2C_WaitOnMasterAddressFlagUntilTimeout+0xf4>
        {
          hi2c->PreviousState       = I2C_STATE_NONE;
 800497a:	68fb      	ldr	r3, [r7, #12]
 800497c:	2200      	movs	r2, #0
 800497e:	631a      	str	r2, [r3, #48]	; 0x30
          hi2c->State               = HAL_I2C_STATE_READY;
 8004980:	68fb      	ldr	r3, [r7, #12]
 8004982:	2220      	movs	r2, #32
 8004984:	f883 203d 	strb.w	r2, [r3, #61]	; 0x3d
          hi2c->Mode                = HAL_I2C_MODE_NONE;
 8004988:	68fb      	ldr	r3, [r7, #12]
 800498a:	2200      	movs	r2, #0
 800498c:	f883 203e 	strb.w	r2, [r3, #62]	; 0x3e
          hi2c->ErrorCode           |= HAL_I2C_ERROR_TIMEOUT;
 8004990:	68fb      	ldr	r3, [r7, #12]
 8004992:	6c1b      	ldr	r3, [r3, #64]	; 0x40
 8004994:	f043 0220 	orr.w	r2, r3, #32
 8004998:	68fb      	ldr	r3, [r7, #12]
 800499a:	641a      	str	r2, [r3, #64]	; 0x40

          /* Process Unlocked */
          __HAL_UNLOCK(hi2c);
 800499c:	68fb      	ldr	r3, [r7, #12]
 800499e:	2200      	movs	r2, #0
 80049a0:	f883 203c 	strb.w	r2, [r3, #60]	; 0x3c

          return HAL_ERROR;
 80049a4:	2301      	movs	r3, #1
 80049a6:	e021      	b.n	80049ec <I2C_WaitOnMasterAddressFlagUntilTimeout+0x138>
  while (__HAL_I2C_GET_FLAG(hi2c, Flag) == RESET)
 80049a8:	68bb      	ldr	r3, [r7, #8]
 80049aa:	0c1b      	lsrs	r3, r3, #16
 80049ac:	b2db      	uxtb	r3, r3
 80049ae:	2b01      	cmp	r3, #1
 80049b0:	d10c      	bne.n	80049cc <I2C_WaitOnMasterAddressFlagUntilTimeout+0x118>
 80049b2:	68fb      	ldr	r3, [r7, #12]
 80049b4:	681b      	ldr	r3, [r3, #0]
 80049b6:	695b      	ldr	r3, [r3, #20]
 80049b8:	43da      	mvns	r2, r3
 80049ba:	68bb      	ldr	r3, [r7, #8]
 80049bc:	4013      	ands	r3, r2
 80049be:	b29b      	uxth	r3, r3
 80049c0:	2b00      	cmp	r3, #0
 80049c2:	bf14      	ite	ne
 80049c4:	2301      	movne	r3, #1
 80049c6:	2300      	moveq	r3, #0
 80049c8:	b2db      	uxtb	r3, r3
 80049ca:	e00b      	b.n	80049e4 <I2C_WaitOnMasterAddressFlagUntilTimeout+0x130>
 80049cc:	68fb      	ldr	r3, [r7, #12]
 80049ce:	681b      	ldr	r3, [r3, #0]
 80049d0:	699b      	ldr	r3, [r3, #24]
 80049d2:	43da      	mvns	r2, r3
 80049d4:	68bb      	ldr	r3, [r7, #8]
 80049d6:	4013      	ands	r3, r2
 80049d8:	b29b      	uxth	r3, r3
 80049da:	2b00      	cmp	r3, #0
 80049dc:	bf14      	ite	ne
 80049de:	2301      	movne	r3, #1
 80049e0:	2300      	moveq	r3, #0
 80049e2:	b2db      	uxtb	r3, r3
 80049e4:	2b00      	cmp	r3, #0
 80049e6:	f47f af6d 	bne.w	80048c4 <I2C_WaitOnMasterAddressFlagUntilTimeout+0x10>
        }
      }
    }
  }
  return HAL_OK;
 80049ea:	2300      	movs	r3, #0
}
 80049ec:	4618      	mov	r0, r3
 80049ee:	3710      	adds	r7, #16
 80049f0:	46bd      	mov	sp, r7
 80049f2:	bd80      	pop	{r7, pc}

080049f4 <I2C_WaitOnTXEFlagUntilTimeout>:
  * @param  Timeout Timeout duration
  * @param  Tickstart Tick start value
  * @retval HAL status
  */
static HAL_StatusTypeDef I2C_WaitOnTXEFlagUntilTimeout(I2C_HandleTypeDef *hi2c, uint32_t Timeout, uint32_t Tickstart)
{
 80049f4:	b580      	push	{r7, lr}
 80049f6:	b084      	sub	sp, #16
 80049f8:	af00      	add	r7, sp, #0
 80049fa:	60f8      	str	r0, [r7, #12]
 80049fc:	60b9      	str	r1, [r7, #8]
 80049fe:	607a      	str	r2, [r7, #4]
  while (__HAL_I2C_GET_FLAG(hi2c, I2C_FLAG_TXE) == RESET)
 8004a00:	e034      	b.n	8004a6c <I2C_WaitOnTXEFlagUntilTimeout+0x78>
  {
    /* Check if a NACK is detected */
    if (I2C_IsAcknowledgeFailed(hi2c) != HAL_OK)
 8004a02:	68f8      	ldr	r0, [r7, #12]
 8004a04:	f000 f8e3 	bl	8004bce <I2C_IsAcknowledgeFailed>
 8004a08:	4603      	mov	r3, r0
 8004a0a:	2b00      	cmp	r3, #0
 8004a0c:	d001      	beq.n	8004a12 <I2C_WaitOnTXEFlagUntilTimeout+0x1e>
    {
      return HAL_ERROR;
 8004a0e:	2301      	movs	r3, #1
 8004a10:	e034      	b.n	8004a7c <I2C_WaitOnTXEFlagUntilTimeout+0x88>
    }

    /* Check for the Timeout */
    if (Timeout != HAL_MAX_DELAY)
 8004a12:	68bb      	ldr	r3, [r7, #8]
 8004a14:	f1b3 3fff 	cmp.w	r3, #4294967295	; 0xffffffff
 8004a18:	d028      	beq.n	8004a6c <I2C_WaitOnTXEFlagUntilTimeout+0x78>
    {
      if (((HAL_GetTick() - Tickstart) > Timeout) || (Timeout == 0U))
 8004a1a:	f7fe f8d5 	bl	8002bc8 <HAL_GetTick>
 8004a1e:	4602      	mov	r2, r0
 8004a20:	687b      	ldr	r3, [r7, #4]
 8004a22:	1ad3      	subs	r3, r2, r3
 8004a24:	68ba      	ldr	r2, [r7, #8]
 8004a26:	429a      	cmp	r2, r3
 8004a28:	d302      	bcc.n	8004a30 <I2C_WaitOnTXEFlagUntilTimeout+0x3c>
 8004a2a:	68bb      	ldr	r3, [r7, #8]
 8004a2c:	2b00      	cmp	r3, #0
 8004a2e:	d11d      	bne.n	8004a6c <I2C_WaitOnTXEFlagUntilTimeout+0x78>
      {
        if ((__HAL_I2C_GET_FLAG(hi2c, I2C_FLAG_TXE) == RESET))
 8004a30:	68fb      	ldr	r3, [r7, #12]
 8004a32:	681b      	ldr	r3, [r3, #0]
 8004a34:	695b      	ldr	r3, [r3, #20]
 8004a36:	f003 0380 	and.w	r3, r3, #128	; 0x80
 8004a3a:	2b80      	cmp	r3, #128	; 0x80
 8004a3c:	d016      	beq.n	8004a6c <I2C_WaitOnTXEFlagUntilTimeout+0x78>
        {
          hi2c->PreviousState       = I2C_STATE_NONE;
 8004a3e:	68fb      	ldr	r3, [r7, #12]
 8004a40:	2200      	movs	r2, #0
 8004a42:	631a      	str	r2, [r3, #48]	; 0x30
          hi2c->State               = HAL_I2C_STATE_READY;
 8004a44:	68fb      	ldr	r3, [r7, #12]
 8004a46:	2220      	movs	r2, #32
 8004a48:	f883 203d 	strb.w	r2, [r3, #61]	; 0x3d
          hi2c->Mode                = HAL_I2C_MODE_NONE;
 8004a4c:	68fb      	ldr	r3, [r7, #12]
 8004a4e:	2200      	movs	r2, #0
 8004a50:	f883 203e 	strb.w	r2, [r3, #62]	; 0x3e
          hi2c->ErrorCode           |= HAL_I2C_ERROR_TIMEOUT;
 8004a54:	68fb      	ldr	r3, [r7, #12]
 8004a56:	6c1b      	ldr	r3, [r3, #64]	; 0x40
 8004a58:	f043 0220 	orr.w	r2, r3, #32
 8004a5c:	68fb      	ldr	r3, [r7, #12]
 8004a5e:	641a      	str	r2, [r3, #64]	; 0x40

          /* Process Unlocked */
          __HAL_UNLOCK(hi2c);
 8004a60:	68fb      	ldr	r3, [r7, #12]
 8004a62:	2200      	movs	r2, #0
 8004a64:	f883 203c 	strb.w	r2, [r3, #60]	; 0x3c

          return HAL_ERROR;
 8004a68:	2301      	movs	r3, #1
 8004a6a:	e007      	b.n	8004a7c <I2C_WaitOnTXEFlagUntilTimeout+0x88>
  while (__HAL_I2C_GET_FLAG(hi2c, I2C_FLAG_TXE) == RESET)
 8004a6c:	68fb      	ldr	r3, [r7, #12]
 8004a6e:	681b      	ldr	r3, [r3, #0]
 8004a70:	695b      	ldr	r3, [r3, #20]
 8004a72:	f003 0380 	and.w	r3, r3, #128	; 0x80
 8004a76:	2b80      	cmp	r3, #128	; 0x80
 8004a78:	d1c3      	bne.n	8004a02 <I2C_WaitOnTXEFlagUntilTimeout+0xe>
        }
      }
    }
  }
  return HAL_OK;
 8004a7a:	2300      	movs	r3, #0
}
 8004a7c:	4618      	mov	r0, r3
 8004a7e:	3710      	adds	r7, #16
 8004a80:	46bd      	mov	sp, r7
 8004a82:	bd80      	pop	{r7, pc}

08004a84 <I2C_WaitOnBTFFlagUntilTimeout>:
  * @param  Timeout Timeout duration
  * @param  Tickstart Tick start value
  * @retval HAL status
  */
static HAL_StatusTypeDef I2C_WaitOnBTFFlagUntilTimeout(I2C_HandleTypeDef *hi2c, uint32_t Timeout, uint32_t Tickstart)
{
 8004a84:	b580      	push	{r7, lr}
 8004a86:	b084      	sub	sp, #16
 8004a88:	af00      	add	r7, sp, #0
 8004a8a:	60f8      	str	r0, [r7, #12]
 8004a8c:	60b9      	str	r1, [r7, #8]
 8004a8e:	607a      	str	r2, [r7, #4]
  while (__HAL_I2C_GET_FLAG(hi2c, I2C_FLAG_BTF) == RESET)
 8004a90:	e034      	b.n	8004afc <I2C_WaitOnBTFFlagUntilTimeout+0x78>
  {
    /* Check if a NACK is detected */
    if (I2C_IsAcknowledgeFailed(hi2c) != HAL_OK)
 8004a92:	68f8      	ldr	r0, [r7, #12]
 8004a94:	f000 f89b 	bl	8004bce <I2C_IsAcknowledgeFailed>
 8004a98:	4603      	mov	r3, r0
 8004a9a:	2b00      	cmp	r3, #0
 8004a9c:	d001      	beq.n	8004aa2 <I2C_WaitOnBTFFlagUntilTimeout+0x1e>
    {
      return HAL_ERROR;
 8004a9e:	2301      	movs	r3, #1
 8004aa0:	e034      	b.n	8004b0c <I2C_WaitOnBTFFlagUntilTimeout+0x88>
    }

    /* Check for the Timeout */
    if (Timeout != HAL_MAX_DELAY)
 8004aa2:	68bb      	ldr	r3, [r7, #8]
 8004aa4:	f1b3 3fff 	cmp.w	r3, #4294967295	; 0xffffffff
 8004aa8:	d028      	beq.n	8004afc <I2C_WaitOnBTFFlagUntilTimeout+0x78>
    {
      if (((HAL_GetTick() - Tickstart) > Timeout) || (Timeout == 0U))
 8004aaa:	f7fe f88d 	bl	8002bc8 <HAL_GetTick>
 8004aae:	4602      	mov	r2, r0
 8004ab0:	687b      	ldr	r3, [r7, #4]
 8004ab2:	1ad3      	subs	r3, r2, r3
 8004ab4:	68ba      	ldr	r2, [r7, #8]
 8004ab6:	429a      	cmp	r2, r3
 8004ab8:	d302      	bcc.n	8004ac0 <I2C_WaitOnBTFFlagUntilTimeout+0x3c>
 8004aba:	68bb      	ldr	r3, [r7, #8]
 8004abc:	2b00      	cmp	r3, #0
 8004abe:	d11d      	bne.n	8004afc <I2C_WaitOnBTFFlagUntilTimeout+0x78>
      {
        if ((__HAL_I2C_GET_FLAG(hi2c, I2C_FLAG_BTF) == RESET))
 8004ac0:	68fb      	ldr	r3, [r7, #12]
 8004ac2:	681b      	ldr	r3, [r3, #0]
 8004ac4:	695b      	ldr	r3, [r3, #20]
 8004ac6:	f003 0304 	and.w	r3, r3, #4
 8004aca:	2b04      	cmp	r3, #4
 8004acc:	d016      	beq.n	8004afc <I2C_WaitOnBTFFlagUntilTimeout+0x78>
        {
          hi2c->PreviousState       = I2C_STATE_NONE;
 8004ace:	68fb      	ldr	r3, [r7, #12]
 8004ad0:	2200      	movs	r2, #0
 8004ad2:	631a      	str	r2, [r3, #48]	; 0x30
          hi2c->State               = HAL_I2C_STATE_READY;
 8004ad4:	68fb      	ldr	r3, [r7, #12]
 8004ad6:	2220      	movs	r2, #32
 8004ad8:	f883 203d 	strb.w	r2, [r3, #61]	; 0x3d
          hi2c->Mode                = HAL_I2C_MODE_NONE;
 8004adc:	68fb      	ldr	r3, [r7, #12]
 8004ade:	2200      	movs	r2, #0
 8004ae0:	f883 203e 	strb.w	r2, [r3, #62]	; 0x3e
          hi2c->ErrorCode           |= HAL_I2C_ERROR_TIMEOUT;
 8004ae4:	68fb      	ldr	r3, [r7, #12]
 8004ae6:	6c1b      	ldr	r3, [r3, #64]	; 0x40
 8004ae8:	f043 0220 	orr.w	r2, r3, #32
 8004aec:	68fb      	ldr	r3, [r7, #12]
 8004aee:	641a      	str	r2, [r3, #64]	; 0x40

          /* Process Unlocked */
          __HAL_UNLOCK(hi2c);
 8004af0:	68fb      	ldr	r3, [r7, #12]
 8004af2:	2200      	movs	r2, #0
 8004af4:	f883 203c 	strb.w	r2, [r3, #60]	; 0x3c

          return HAL_ERROR;
 8004af8:	2301      	movs	r3, #1
 8004afa:	e007      	b.n	8004b0c <I2C_WaitOnBTFFlagUntilTimeout+0x88>
  while (__HAL_I2C_GET_FLAG(hi2c, I2C_FLAG_BTF) == RESET)
 8004afc:	68fb      	ldr	r3, [r7, #12]
 8004afe:	681b      	ldr	r3, [r3, #0]
 8004b00:	695b      	ldr	r3, [r3, #20]
 8004b02:	f003 0304 	and.w	r3, r3, #4
 8004b06:	2b04      	cmp	r3, #4
 8004b08:	d1c3      	bne.n	8004a92 <I2C_WaitOnBTFFlagUntilTimeout+0xe>
        }
      }
    }
  }
  return HAL_OK;
 8004b0a:	2300      	movs	r3, #0
}
 8004b0c:	4618      	mov	r0, r3
 8004b0e:	3710      	adds	r7, #16
 8004b10:	46bd      	mov	sp, r7
 8004b12:	bd80      	pop	{r7, pc}

08004b14 <I2C_WaitOnRXNEFlagUntilTimeout>:
  * @param  Timeout Timeout duration
  * @param  Tickstart Tick start value
  * @retval HAL status
  */
static HAL_StatusTypeDef I2C_WaitOnRXNEFlagUntilTimeout(I2C_HandleTypeDef *hi2c, uint32_t Timeout, uint32_t Tickstart)
{
 8004b14:	b580      	push	{r7, lr}
 8004b16:	b084      	sub	sp, #16
 8004b18:	af00      	add	r7, sp, #0
 8004b1a:	60f8      	str	r0, [r7, #12]
 8004b1c:	60b9      	str	r1, [r7, #8]
 8004b1e:	607a      	str	r2, [r7, #4]

  while (__HAL_I2C_GET_FLAG(hi2c, I2C_FLAG_RXNE) == RESET)
 8004b20:	e049      	b.n	8004bb6 <I2C_WaitOnRXNEFlagUntilTimeout+0xa2>
  {
    /* Check if a STOPF is detected */
    if (__HAL_I2C_GET_FLAG(hi2c, I2C_FLAG_STOPF) == SET)
 8004b22:	68fb      	ldr	r3, [r7, #12]
 8004b24:	681b      	ldr	r3, [r3, #0]
 8004b26:	695b      	ldr	r3, [r3, #20]
 8004b28:	f003 0310 	and.w	r3, r3, #16
 8004b2c:	2b10      	cmp	r3, #16
 8004b2e:	d119      	bne.n	8004b64 <I2C_WaitOnRXNEFlagUntilTimeout+0x50>
    {
      /* Clear STOP Flag */
      __HAL_I2C_CLEAR_FLAG(hi2c, I2C_FLAG_STOPF);
 8004b30:	68fb      	ldr	r3, [r7, #12]
 8004b32:	681b      	ldr	r3, [r3, #0]
 8004b34:	f06f 0210 	mvn.w	r2, #16
 8004b38:	615a      	str	r2, [r3, #20]

      hi2c->PreviousState       = I2C_STATE_NONE;
 8004b3a:	68fb      	ldr	r3, [r7, #12]
 8004b3c:	2200      	movs	r2, #0
 8004b3e:	631a      	str	r2, [r3, #48]	; 0x30
      hi2c->State               = HAL_I2C_STATE_READY;
 8004b40:	68fb      	ldr	r3, [r7, #12]
 8004b42:	2220      	movs	r2, #32
 8004b44:	f883 203d 	strb.w	r2, [r3, #61]	; 0x3d
      hi2c->Mode                = HAL_I2C_MODE_NONE;
 8004b48:	68fb      	ldr	r3, [r7, #12]
 8004b4a:	2200      	movs	r2, #0
 8004b4c:	f883 203e 	strb.w	r2, [r3, #62]	; 0x3e
      hi2c->ErrorCode           |= HAL_I2C_ERROR_NONE;
 8004b50:	68fb      	ldr	r3, [r7, #12]
 8004b52:	6c1a      	ldr	r2, [r3, #64]	; 0x40
 8004b54:	68fb      	ldr	r3, [r7, #12]
 8004b56:	641a      	str	r2, [r3, #64]	; 0x40

      /* Process Unlocked */
      __HAL_UNLOCK(hi2c);
 8004b58:	68fb      	ldr	r3, [r7, #12]
 8004b5a:	2200      	movs	r2, #0
 8004b5c:	f883 203c 	strb.w	r2, [r3, #60]	; 0x3c

      return HAL_ERROR;
 8004b60:	2301      	movs	r3, #1
 8004b62:	e030      	b.n	8004bc6 <I2C_WaitOnRXNEFlagUntilTimeout+0xb2>
    }

    /* Check for the Timeout */
    if (((HAL_GetTick() - Tickstart) > Timeout) || (Timeout == 0U))
 8004b64:	f7fe f830 	bl	8002bc8 <HAL_GetTick>
 8004b68:	4602      	mov	r2, r0
 8004b6a:	687b      	ldr	r3, [r7, #4]
 8004b6c:	1ad3      	subs	r3, r2, r3
 8004b6e:	68ba      	ldr	r2, [r7, #8]
 8004b70:	429a      	cmp	r2, r3
 8004b72:	d302      	bcc.n	8004b7a <I2C_WaitOnRXNEFlagUntilTimeout+0x66>
 8004b74:	68bb      	ldr	r3, [r7, #8]
 8004b76:	2b00      	cmp	r3, #0
 8004b78:	d11d      	bne.n	8004bb6 <I2C_WaitOnRXNEFlagUntilTimeout+0xa2>
    {
      if ((__HAL_I2C_GET_FLAG(hi2c, I2C_FLAG_RXNE) == RESET))
 8004b7a:	68fb      	ldr	r3, [r7, #12]
 8004b7c:	681b      	ldr	r3, [r3, #0]
 8004b7e:	695b      	ldr	r3, [r3, #20]
 8004b80:	f003 0340 	and.w	r3, r3, #64	; 0x40
 8004b84:	2b40      	cmp	r3, #64	; 0x40
 8004b86:	d016      	beq.n	8004bb6 <I2C_WaitOnRXNEFlagUntilTimeout+0xa2>
      {
        hi2c->PreviousState       = I2C_STATE_NONE;
 8004b88:	68fb      	ldr	r3, [r7, #12]
 8004b8a:	2200      	movs	r2, #0
 8004b8c:	631a      	str	r2, [r3, #48]	; 0x30
        hi2c->State               = HAL_I2C_STATE_READY;
 8004b8e:	68fb      	ldr	r3, [r7, #12]
 8004b90:	2220      	movs	r2, #32
 8004b92:	f883 203d 	strb.w	r2, [r3, #61]	; 0x3d
        hi2c->Mode                = HAL_I2C_MODE_NONE;
 8004b96:	68fb      	ldr	r3, [r7, #12]
 8004b98:	2200      	movs	r2, #0
 8004b9a:	f883 203e 	strb.w	r2, [r3, #62]	; 0x3e
        hi2c->ErrorCode           |= HAL_I2C_ERROR_TIMEOUT;
 8004b9e:	68fb      	ldr	r3, [r7, #12]
 8004ba0:	6c1b      	ldr	r3, [r3, #64]	; 0x40
 8004ba2:	f043 0220 	orr.w	r2, r3, #32
 8004ba6:	68fb      	ldr	r3, [r7, #12]
 8004ba8:	641a      	str	r2, [r3, #64]	; 0x40

        /* Process Unlocked */
        __HAL_UNLOCK(hi2c);
 8004baa:	68fb      	ldr	r3, [r7, #12]
 8004bac:	2200      	movs	r2, #0
 8004bae:	f883 203c 	strb.w	r2, [r3, #60]	; 0x3c

        return HAL_ERROR;
 8004bb2:	2301      	movs	r3, #1
 8004bb4:	e007      	b.n	8004bc6 <I2C_WaitOnRXNEFlagUntilTimeout+0xb2>
  while (__HAL_I2C_GET_FLAG(hi2c, I2C_FLAG_RXNE) == RESET)
 8004bb6:	68fb      	ldr	r3, [r7, #12]
 8004bb8:	681b      	ldr	r3, [r3, #0]
 8004bba:	695b      	ldr	r3, [r3, #20]
 8004bbc:	f003 0340 	and.w	r3, r3, #64	; 0x40
 8004bc0:	2b40      	cmp	r3, #64	; 0x40
 8004bc2:	d1ae      	bne.n	8004b22 <I2C_WaitOnRXNEFlagUntilTimeout+0xe>
      }
    }
  }
  return HAL_OK;
 8004bc4:	2300      	movs	r3, #0
}
 8004bc6:	4618      	mov	r0, r3
 8004bc8:	3710      	adds	r7, #16
 8004bca:	46bd      	mov	sp, r7
 8004bcc:	bd80      	pop	{r7, pc}

08004bce <I2C_IsAcknowledgeFailed>:
  * @param  hi2c Pointer to a I2C_HandleTypeDef structure that contains
  *                the configuration information for the specified I2C.
  * @retval HAL status
  */
static HAL_StatusTypeDef I2C_IsAcknowledgeFailed(I2C_HandleTypeDef *hi2c)
{
 8004bce:	b480      	push	{r7}
 8004bd0:	b083      	sub	sp, #12
 8004bd2:	af00      	add	r7, sp, #0
 8004bd4:	6078      	str	r0, [r7, #4]
  if (__HAL_I2C_GET_FLAG(hi2c, I2C_FLAG_AF) == SET)
 8004bd6:	687b      	ldr	r3, [r7, #4]
 8004bd8:	681b      	ldr	r3, [r3, #0]
 8004bda:	695b      	ldr	r3, [r3, #20]
 8004bdc:	f403 6380 	and.w	r3, r3, #1024	; 0x400
 8004be0:	f5b3 6f80 	cmp.w	r3, #1024	; 0x400
 8004be4:	d11b      	bne.n	8004c1e <I2C_IsAcknowledgeFailed+0x50>
  {
    /* Clear NACKF Flag */
    __HAL_I2C_CLEAR_FLAG(hi2c, I2C_FLAG_AF);
 8004be6:	687b      	ldr	r3, [r7, #4]
 8004be8:	681b      	ldr	r3, [r3, #0]
 8004bea:	f46f 6280 	mvn.w	r2, #1024	; 0x400
 8004bee:	615a      	str	r2, [r3, #20]

    hi2c->PreviousState       = I2C_STATE_NONE;
 8004bf0:	687b      	ldr	r3, [r7, #4]
 8004bf2:	2200      	movs	r2, #0
 8004bf4:	631a      	str	r2, [r3, #48]	; 0x30
    hi2c->State               = HAL_I2C_STATE_READY;
 8004bf6:	687b      	ldr	r3, [r7, #4]
 8004bf8:	2220      	movs	r2, #32
 8004bfa:	f883 203d 	strb.w	r2, [r3, #61]	; 0x3d
    hi2c->Mode                = HAL_I2C_MODE_NONE;
 8004bfe:	687b      	ldr	r3, [r7, #4]
 8004c00:	2200      	movs	r2, #0
 8004c02:	f883 203e 	strb.w	r2, [r3, #62]	; 0x3e
    hi2c->ErrorCode           |= HAL_I2C_ERROR_AF;
 8004c06:	687b      	ldr	r3, [r7, #4]
 8004c08:	6c1b      	ldr	r3, [r3, #64]	; 0x40
 8004c0a:	f043 0204 	orr.w	r2, r3, #4
 8004c0e:	687b      	ldr	r3, [r7, #4]
 8004c10:	641a      	str	r2, [r3, #64]	; 0x40

    /* Process Unlocked */
    __HAL_UNLOCK(hi2c);
 8004c12:	687b      	ldr	r3, [r7, #4]
 8004c14:	2200      	movs	r2, #0
 8004c16:	f883 203c 	strb.w	r2, [r3, #60]	; 0x3c

    return HAL_ERROR;
 8004c1a:	2301      	movs	r3, #1
 8004c1c:	e000      	b.n	8004c20 <I2C_IsAcknowledgeFailed+0x52>
  }
  return HAL_OK;
 8004c1e:	2300      	movs	r3, #0
}
 8004c20:	4618      	mov	r0, r3
 8004c22:	370c      	adds	r7, #12
 8004c24:	46bd      	mov	sp, r7
 8004c26:	f85d 7b04 	ldr.w	r7, [sp], #4
 8004c2a:	4770      	bx	lr

08004c2c <HAL_I2CEx_ConfigAnalogFilter>:
  *                the configuration information for the specified I2Cx peripheral.
  * @param  AnalogFilter new state of the Analog filter.
  * @retval HAL status
  */
HAL_StatusTypeDef HAL_I2CEx_ConfigAnalogFilter(I2C_HandleTypeDef *hi2c, uint32_t AnalogFilter)
{
 8004c2c:	b480      	push	{r7}
 8004c2e:	b083      	sub	sp, #12
 8004c30:	af00      	add	r7, sp, #0
 8004c32:	6078      	str	r0, [r7, #4]
 8004c34:	6039      	str	r1, [r7, #0]
  /* Check the parameters */
  assert_param(IS_I2C_ALL_INSTANCE(hi2c->Instance));
  assert_param(IS_I2C_ANALOG_FILTER(AnalogFilter));

  if (hi2c->State == HAL_I2C_STATE_READY)
 8004c36:	687b      	ldr	r3, [r7, #4]
 8004c38:	f893 303d 	ldrb.w	r3, [r3, #61]	; 0x3d
 8004c3c:	b2db      	uxtb	r3, r3
 8004c3e:	2b20      	cmp	r3, #32
 8004c40:	d129      	bne.n	8004c96 <HAL_I2CEx_ConfigAnalogFilter+0x6a>
  {
    hi2c->State = HAL_I2C_STATE_BUSY;
 8004c42:	687b      	ldr	r3, [r7, #4]
 8004c44:	2224      	movs	r2, #36	; 0x24
 8004c46:	f883 203d 	strb.w	r2, [r3, #61]	; 0x3d

    /* Disable the selected I2C peripheral */
    __HAL_I2C_DISABLE(hi2c);
 8004c4a:	687b      	ldr	r3, [r7, #4]
 8004c4c:	681b      	ldr	r3, [r3, #0]
 8004c4e:	681a      	ldr	r2, [r3, #0]
 8004c50:	687b      	ldr	r3, [r7, #4]
 8004c52:	681b      	ldr	r3, [r3, #0]
 8004c54:	f022 0201 	bic.w	r2, r2, #1
 8004c58:	601a      	str	r2, [r3, #0]

    /* Reset I2Cx ANOFF bit */
    hi2c->Instance->FLTR &= ~(I2C_FLTR_ANOFF);
 8004c5a:	687b      	ldr	r3, [r7, #4]
 8004c5c:	681b      	ldr	r3, [r3, #0]
 8004c5e:	6a5a      	ldr	r2, [r3, #36]	; 0x24
 8004c60:	687b      	ldr	r3, [r7, #4]
 8004c62:	681b      	ldr	r3, [r3, #0]
 8004c64:	f022 0210 	bic.w	r2, r2, #16
 8004c68:	625a      	str	r2, [r3, #36]	; 0x24

    /* Disable the analog filter */
    hi2c->Instance->FLTR |= AnalogFilter;
 8004c6a:	687b      	ldr	r3, [r7, #4]
 8004c6c:	681b      	ldr	r3, [r3, #0]
 8004c6e:	6a59      	ldr	r1, [r3, #36]	; 0x24
 8004c70:	687b      	ldr	r3, [r7, #4]
 8004c72:	681b      	ldr	r3, [r3, #0]
 8004c74:	683a      	ldr	r2, [r7, #0]
 8004c76:	430a      	orrs	r2, r1
 8004c78:	625a      	str	r2, [r3, #36]	; 0x24

    __HAL_I2C_ENABLE(hi2c);
 8004c7a:	687b      	ldr	r3, [r7, #4]
 8004c7c:	681b      	ldr	r3, [r3, #0]
 8004c7e:	681a      	ldr	r2, [r3, #0]
 8004c80:	687b      	ldr	r3, [r7, #4]
 8004c82:	681b      	ldr	r3, [r3, #0]
 8004c84:	f042 0201 	orr.w	r2, r2, #1
 8004c88:	601a      	str	r2, [r3, #0]

    hi2c->State = HAL_I2C_STATE_READY;
 8004c8a:	687b      	ldr	r3, [r7, #4]
 8004c8c:	2220      	movs	r2, #32
 8004c8e:	f883 203d 	strb.w	r2, [r3, #61]	; 0x3d

    return HAL_OK;
 8004c92:	2300      	movs	r3, #0
 8004c94:	e000      	b.n	8004c98 <HAL_I2CEx_ConfigAnalogFilter+0x6c>
  }
  else
  {
    return HAL_BUSY;
 8004c96:	2302      	movs	r3, #2
  }
}
 8004c98:	4618      	mov	r0, r3
 8004c9a:	370c      	adds	r7, #12
 8004c9c:	46bd      	mov	sp, r7
 8004c9e:	f85d 7b04 	ldr.w	r7, [sp], #4
 8004ca2:	4770      	bx	lr

08004ca4 <HAL_I2CEx_ConfigDigitalFilter>:
  *                the configuration information for the specified I2Cx peripheral.
  * @param  DigitalFilter Coefficient of digital noise filter between 0x00 and 0x0F.
  * @retval HAL status
  */
HAL_StatusTypeDef HAL_I2CEx_ConfigDigitalFilter(I2C_HandleTypeDef *hi2c, uint32_t DigitalFilter)
{
 8004ca4:	b480      	push	{r7}
 8004ca6:	b085      	sub	sp, #20
 8004ca8:	af00      	add	r7, sp, #0
 8004caa:	6078      	str	r0, [r7, #4]
 8004cac:	6039      	str	r1, [r7, #0]
  uint16_t tmpreg = 0;
 8004cae:	2300      	movs	r3, #0
 8004cb0:	81fb      	strh	r3, [r7, #14]

  /* Check the parameters */
  assert_param(IS_I2C_ALL_INSTANCE(hi2c->Instance));
  assert_param(IS_I2C_DIGITAL_FILTER(DigitalFilter));

  if (hi2c->State == HAL_I2C_STATE_READY)
 8004cb2:	687b      	ldr	r3, [r7, #4]
 8004cb4:	f893 303d 	ldrb.w	r3, [r3, #61]	; 0x3d
 8004cb8:	b2db      	uxtb	r3, r3
 8004cba:	2b20      	cmp	r3, #32
 8004cbc:	d12a      	bne.n	8004d14 <HAL_I2CEx_ConfigDigitalFilter+0x70>
  {
    hi2c->State = HAL_I2C_STATE_BUSY;
 8004cbe:	687b      	ldr	r3, [r7, #4]
 8004cc0:	2224      	movs	r2, #36	; 0x24
 8004cc2:	f883 203d 	strb.w	r2, [r3, #61]	; 0x3d

    /* Disable the selected I2C peripheral */
    __HAL_I2C_DISABLE(hi2c);
 8004cc6:	687b      	ldr	r3, [r7, #4]
 8004cc8:	681b      	ldr	r3, [r3, #0]
 8004cca:	681a      	ldr	r2, [r3, #0]
 8004ccc:	687b      	ldr	r3, [r7, #4]
 8004cce:	681b      	ldr	r3, [r3, #0]
 8004cd0:	f022 0201 	bic.w	r2, r2, #1
 8004cd4:	601a      	str	r2, [r3, #0]

    /* Get the old register value */
    tmpreg = hi2c->Instance->FLTR;
 8004cd6:	687b      	ldr	r3, [r7, #4]
 8004cd8:	681b      	ldr	r3, [r3, #0]
 8004cda:	6a5b      	ldr	r3, [r3, #36]	; 0x24
 8004cdc:	81fb      	strh	r3, [r7, #14]

    /* Reset I2Cx DNF bit [3:0] */
    tmpreg &= ~(I2C_FLTR_DNF);
 8004cde:	89fb      	ldrh	r3, [r7, #14]
 8004ce0:	f023 030f 	bic.w	r3, r3, #15
 8004ce4:	81fb      	strh	r3, [r7, #14]

    /* Set I2Cx DNF coefficient */
    tmpreg |= DigitalFilter;
 8004ce6:	683b      	ldr	r3, [r7, #0]
 8004ce8:	b29a      	uxth	r2, r3
 8004cea:	89fb      	ldrh	r3, [r7, #14]
 8004cec:	4313      	orrs	r3, r2
 8004cee:	81fb      	strh	r3, [r7, #14]

    /* Store the new register value */
    hi2c->Instance->FLTR = tmpreg;
 8004cf0:	687b      	ldr	r3, [r7, #4]
 8004cf2:	681b      	ldr	r3, [r3, #0]
 8004cf4:	89fa      	ldrh	r2, [r7, #14]
 8004cf6:	625a      	str	r2, [r3, #36]	; 0x24

    __HAL_I2C_ENABLE(hi2c);
 8004cf8:	687b      	ldr	r3, [r7, #4]
 8004cfa:	681b      	ldr	r3, [r3, #0]
 8004cfc:	681a      	ldr	r2, [r3, #0]
 8004cfe:	687b      	ldr	r3, [r7, #4]
 8004d00:	681b      	ldr	r3, [r3, #0]
 8004d02:	f042 0201 	orr.w	r2, r2, #1
 8004d06:	601a      	str	r2, [r3, #0]

    hi2c->State = HAL_I2C_STATE_READY;
 8004d08:	687b      	ldr	r3, [r7, #4]
 8004d0a:	2220      	movs	r2, #32
 8004d0c:	f883 203d 	strb.w	r2, [r3, #61]	; 0x3d

    return HAL_OK;
 8004d10:	2300      	movs	r3, #0
 8004d12:	e000      	b.n	8004d16 <HAL_I2CEx_ConfigDigitalFilter+0x72>
  }
  else
  {
    return HAL_BUSY;
 8004d14:	2302      	movs	r3, #2
  }
}
 8004d16:	4618      	mov	r0, r3
 8004d18:	3714      	adds	r7, #20
 8004d1a:	46bd      	mov	sp, r7
 8004d1c:	f85d 7b04 	ldr.w	r7, [sp], #4
 8004d20:	4770      	bx	lr
	...

08004d24 <HAL_RCC_OscConfig>:
  *         supported by this API. User should request a transition to HSE Off
  *         first and then HSE On or HSE Bypass.
  * @retval HAL status
  */
__weak HAL_StatusTypeDef HAL_RCC_OscConfig(RCC_OscInitTypeDef  *RCC_OscInitStruct)
{
 8004d24:	b580      	push	{r7, lr}
 8004d26:	b086      	sub	sp, #24
 8004d28:	af00      	add	r7, sp, #0
 8004d2a:	6078      	str	r0, [r7, #4]
  uint32_t tickstart, pll_config;

  /* Check Null pointer */
  if(RCC_OscInitStruct == NULL)
 8004d2c:	687b      	ldr	r3, [r7, #4]
 8004d2e:	2b00      	cmp	r3, #0
 8004d30:	d101      	bne.n	8004d36 <HAL_RCC_OscConfig+0x12>
  {
    return HAL_ERROR;
 8004d32:	2301      	movs	r3, #1
 8004d34:	e267      	b.n	8005206 <HAL_RCC_OscConfig+0x4e2>
  }

  /* Check the parameters */
  assert_param(IS_RCC_OSCILLATORTYPE(RCC_OscInitStruct->OscillatorType));
  /*------------------------------- HSE Configuration ------------------------*/
  if(((RCC_OscInitStruct->OscillatorType) & RCC_OSCILLATORTYPE_HSE) == RCC_OSCILLATORTYPE_HSE)
 8004d36:	687b      	ldr	r3, [r7, #4]
 8004d38:	681b      	ldr	r3, [r3, #0]
 8004d3a:	f003 0301 	and.w	r3, r3, #1
 8004d3e:	2b00      	cmp	r3, #0
 8004d40:	d075      	beq.n	8004e2e <HAL_RCC_OscConfig+0x10a>
  {
    /* Check the parameters */
    assert_param(IS_RCC_HSE(RCC_OscInitStruct->HSEState));
    /* When the HSE is used as system clock or clock source for PLL in these cases HSE will not disabled */
    if((__HAL_RCC_GET_SYSCLK_SOURCE() == RCC_CFGR_SWS_HSE) ||\
 8004d42:	4b88      	ldr	r3, [pc, #544]	; (8004f64 <HAL_RCC_OscConfig+0x240>)
 8004d44:	689b      	ldr	r3, [r3, #8]
 8004d46:	f003 030c 	and.w	r3, r3, #12
 8004d4a:	2b04      	cmp	r3, #4
 8004d4c:	d00c      	beq.n	8004d68 <HAL_RCC_OscConfig+0x44>
      ((__HAL_RCC_GET_SYSCLK_SOURCE() == RCC_CFGR_SWS_PLL) && ((RCC->PLLCFGR & RCC_PLLCFGR_PLLSRC) == RCC_PLLCFGR_PLLSRC_HSE)))
 8004d4e:	4b85      	ldr	r3, [pc, #532]	; (8004f64 <HAL_RCC_OscConfig+0x240>)
 8004d50:	689b      	ldr	r3, [r3, #8]
 8004d52:	f003 030c 	and.w	r3, r3, #12
    if((__HAL_RCC_GET_SYSCLK_SOURCE() == RCC_CFGR_SWS_HSE) ||\
 8004d56:	2b08      	cmp	r3, #8
 8004d58:	d112      	bne.n	8004d80 <HAL_RCC_OscConfig+0x5c>
      ((__HAL_RCC_GET_SYSCLK_SOURCE() == RCC_CFGR_SWS_PLL) && ((RCC->PLLCFGR & RCC_PLLCFGR_PLLSRC) == RCC_PLLCFGR_PLLSRC_HSE)))
 8004d5a:	4b82      	ldr	r3, [pc, #520]	; (8004f64 <HAL_RCC_OscConfig+0x240>)
 8004d5c:	685b      	ldr	r3, [r3, #4]
 8004d5e:	f403 0380 	and.w	r3, r3, #4194304	; 0x400000
 8004d62:	f5b3 0f80 	cmp.w	r3, #4194304	; 0x400000
 8004d66:	d10b      	bne.n	8004d80 <HAL_RCC_OscConfig+0x5c>
    {
      if((__HAL_RCC_GET_FLAG(RCC_FLAG_HSERDY) != RESET) && (RCC_OscInitStruct->HSEState == RCC_HSE_OFF))
 8004d68:	4b7e      	ldr	r3, [pc, #504]	; (8004f64 <HAL_RCC_OscConfig+0x240>)
 8004d6a:	681b      	ldr	r3, [r3, #0]
 8004d6c:	f403 3300 	and.w	r3, r3, #131072	; 0x20000
 8004d70:	2b00      	cmp	r3, #0
 8004d72:	d05b      	beq.n	8004e2c <HAL_RCC_OscConfig+0x108>
 8004d74:	687b      	ldr	r3, [r7, #4]
 8004d76:	685b      	ldr	r3, [r3, #4]
 8004d78:	2b00      	cmp	r3, #0
 8004d7a:	d157      	bne.n	8004e2c <HAL_RCC_OscConfig+0x108>
      {
        return HAL_ERROR;
 8004d7c:	2301      	movs	r3, #1
 8004d7e:	e242      	b.n	8005206 <HAL_RCC_OscConfig+0x4e2>
      }
    }
    else
    {
      /* Set the new HSE configuration ---------------------------------------*/
      __HAL_RCC_HSE_CONFIG(RCC_OscInitStruct->HSEState);
 8004d80:	687b      	ldr	r3, [r7, #4]
 8004d82:	685b      	ldr	r3, [r3, #4]
 8004d84:	f5b3 3f80 	cmp.w	r3, #65536	; 0x10000
 8004d88:	d106      	bne.n	8004d98 <HAL_RCC_OscConfig+0x74>
 8004d8a:	4b76      	ldr	r3, [pc, #472]	; (8004f64 <HAL_RCC_OscConfig+0x240>)
 8004d8c:	681b      	ldr	r3, [r3, #0]
 8004d8e:	4a75      	ldr	r2, [pc, #468]	; (8004f64 <HAL_RCC_OscConfig+0x240>)
 8004d90:	f443 3380 	orr.w	r3, r3, #65536	; 0x10000
 8004d94:	6013      	str	r3, [r2, #0]
 8004d96:	e01d      	b.n	8004dd4 <HAL_RCC_OscConfig+0xb0>
 8004d98:	687b      	ldr	r3, [r7, #4]
 8004d9a:	685b      	ldr	r3, [r3, #4]
 8004d9c:	f5b3 2fa0 	cmp.w	r3, #327680	; 0x50000
 8004da0:	d10c      	bne.n	8004dbc <HAL_RCC_OscConfig+0x98>
 8004da2:	4b70      	ldr	r3, [pc, #448]	; (8004f64 <HAL_RCC_OscConfig+0x240>)
 8004da4:	681b      	ldr	r3, [r3, #0]
 8004da6:	4a6f      	ldr	r2, [pc, #444]	; (8004f64 <HAL_RCC_OscConfig+0x240>)
 8004da8:	f443 2380 	orr.w	r3, r3, #262144	; 0x40000
 8004dac:	6013      	str	r3, [r2, #0]
 8004dae:	4b6d      	ldr	r3, [pc, #436]	; (8004f64 <HAL_RCC_OscConfig+0x240>)
 8004db0:	681b      	ldr	r3, [r3, #0]
 8004db2:	4a6c      	ldr	r2, [pc, #432]	; (8004f64 <HAL_RCC_OscConfig+0x240>)
 8004db4:	f443 3380 	orr.w	r3, r3, #65536	; 0x10000
 8004db8:	6013      	str	r3, [r2, #0]
 8004dba:	e00b      	b.n	8004dd4 <HAL_RCC_OscConfig+0xb0>
 8004dbc:	4b69      	ldr	r3, [pc, #420]	; (8004f64 <HAL_RCC_OscConfig+0x240>)
 8004dbe:	681b      	ldr	r3, [r3, #0]
 8004dc0:	4a68      	ldr	r2, [pc, #416]	; (8004f64 <HAL_RCC_OscConfig+0x240>)
 8004dc2:	f423 3380 	bic.w	r3, r3, #65536	; 0x10000
 8004dc6:	6013      	str	r3, [r2, #0]
 8004dc8:	4b66      	ldr	r3, [pc, #408]	; (8004f64 <HAL_RCC_OscConfig+0x240>)
 8004dca:	681b      	ldr	r3, [r3, #0]
 8004dcc:	4a65      	ldr	r2, [pc, #404]	; (8004f64 <HAL_RCC_OscConfig+0x240>)
 8004dce:	f423 2380 	bic.w	r3, r3, #262144	; 0x40000
 8004dd2:	6013      	str	r3, [r2, #0]

      /* Check the HSE State */
      if((RCC_OscInitStruct->HSEState) != RCC_HSE_OFF)
 8004dd4:	687b      	ldr	r3, [r7, #4]
 8004dd6:	685b      	ldr	r3, [r3, #4]
 8004dd8:	2b00      	cmp	r3, #0
 8004dda:	d013      	beq.n	8004e04 <HAL_RCC_OscConfig+0xe0>
      {
        /* Get Start Tick */
        tickstart = HAL_GetTick();
 8004ddc:	f7fd fef4 	bl	8002bc8 <HAL_GetTick>
 8004de0:	6138      	str	r0, [r7, #16]

        /* Wait till HSE is ready */
        while(__HAL_RCC_GET_FLAG(RCC_FLAG_HSERDY) == RESET)
 8004de2:	e008      	b.n	8004df6 <HAL_RCC_OscConfig+0xd2>
        {
          if((HAL_GetTick() - tickstart ) > HSE_TIMEOUT_VALUE)
 8004de4:	f7fd fef0 	bl	8002bc8 <HAL_GetTick>
 8004de8:	4602      	mov	r2, r0
 8004dea:	693b      	ldr	r3, [r7, #16]
 8004dec:	1ad3      	subs	r3, r2, r3
 8004dee:	2b64      	cmp	r3, #100	; 0x64
 8004df0:	d901      	bls.n	8004df6 <HAL_RCC_OscConfig+0xd2>
          {
            return HAL_TIMEOUT;
 8004df2:	2303      	movs	r3, #3
 8004df4:	e207      	b.n	8005206 <HAL_RCC_OscConfig+0x4e2>
        while(__HAL_RCC_GET_FLAG(RCC_FLAG_HSERDY) == RESET)
 8004df6:	4b5b      	ldr	r3, [pc, #364]	; (8004f64 <HAL_RCC_OscConfig+0x240>)
 8004df8:	681b      	ldr	r3, [r3, #0]
 8004dfa:	f403 3300 	and.w	r3, r3, #131072	; 0x20000
 8004dfe:	2b00      	cmp	r3, #0
 8004e00:	d0f0      	beq.n	8004de4 <HAL_RCC_OscConfig+0xc0>
 8004e02:	e014      	b.n	8004e2e <HAL_RCC_OscConfig+0x10a>
        }
      }
      else
      {
        /* Get Start Tick */
        tickstart = HAL_GetTick();
 8004e04:	f7fd fee0 	bl	8002bc8 <HAL_GetTick>
 8004e08:	6138      	str	r0, [r7, #16]

        /* Wait till HSE is bypassed or disabled */
        while(__HAL_RCC_GET_FLAG(RCC_FLAG_HSERDY) != RESET)
 8004e0a:	e008      	b.n	8004e1e <HAL_RCC_OscConfig+0xfa>
        {
          if((HAL_GetTick() - tickstart ) > HSE_TIMEOUT_VALUE)
 8004e0c:	f7fd fedc 	bl	8002bc8 <HAL_GetTick>
 8004e10:	4602      	mov	r2, r0
 8004e12:	693b      	ldr	r3, [r7, #16]
 8004e14:	1ad3      	subs	r3, r2, r3
 8004e16:	2b64      	cmp	r3, #100	; 0x64
 8004e18:	d901      	bls.n	8004e1e <HAL_RCC_OscConfig+0xfa>
          {
            return HAL_TIMEOUT;
 8004e1a:	2303      	movs	r3, #3
 8004e1c:	e1f3      	b.n	8005206 <HAL_RCC_OscConfig+0x4e2>
        while(__HAL_RCC_GET_FLAG(RCC_FLAG_HSERDY) != RESET)
 8004e1e:	4b51      	ldr	r3, [pc, #324]	; (8004f64 <HAL_RCC_OscConfig+0x240>)
 8004e20:	681b      	ldr	r3, [r3, #0]
 8004e22:	f403 3300 	and.w	r3, r3, #131072	; 0x20000
 8004e26:	2b00      	cmp	r3, #0
 8004e28:	d1f0      	bne.n	8004e0c <HAL_RCC_OscConfig+0xe8>
 8004e2a:	e000      	b.n	8004e2e <HAL_RCC_OscConfig+0x10a>
      if((__HAL_RCC_GET_FLAG(RCC_FLAG_HSERDY) != RESET) && (RCC_OscInitStruct->HSEState == RCC_HSE_OFF))
 8004e2c:	bf00      	nop
        }
      }
    }
  }
  /*----------------------------- HSI Configuration --------------------------*/
  if(((RCC_OscInitStruct->OscillatorType) & RCC_OSCILLATORTYPE_HSI) == RCC_OSCILLATORTYPE_HSI)
 8004e2e:	687b      	ldr	r3, [r7, #4]
 8004e30:	681b      	ldr	r3, [r3, #0]
 8004e32:	f003 0302 	and.w	r3, r3, #2
 8004e36:	2b00      	cmp	r3, #0
 8004e38:	d063      	beq.n	8004f02 <HAL_RCC_OscConfig+0x1de>
    /* Check the parameters */
    assert_param(IS_RCC_HSI(RCC_OscInitStruct->HSIState));
    assert_param(IS_RCC_CALIBRATION_VALUE(RCC_OscInitStruct->HSICalibrationValue));

    /* Check if HSI is used as system clock or as PLL source when PLL is selected as system clock */
    if((__HAL_RCC_GET_SYSCLK_SOURCE() == RCC_CFGR_SWS_HSI) ||\
 8004e3a:	4b4a      	ldr	r3, [pc, #296]	; (8004f64 <HAL_RCC_OscConfig+0x240>)
 8004e3c:	689b      	ldr	r3, [r3, #8]
 8004e3e:	f003 030c 	and.w	r3, r3, #12
 8004e42:	2b00      	cmp	r3, #0
 8004e44:	d00b      	beq.n	8004e5e <HAL_RCC_OscConfig+0x13a>
      ((__HAL_RCC_GET_SYSCLK_SOURCE() == RCC_CFGR_SWS_PLL) && ((RCC->PLLCFGR & RCC_PLLCFGR_PLLSRC) == RCC_PLLCFGR_PLLSRC_HSI)))
 8004e46:	4b47      	ldr	r3, [pc, #284]	; (8004f64 <HAL_RCC_OscConfig+0x240>)
 8004e48:	689b      	ldr	r3, [r3, #8]
 8004e4a:	f003 030c 	and.w	r3, r3, #12
    if((__HAL_RCC_GET_SYSCLK_SOURCE() == RCC_CFGR_SWS_HSI) ||\
 8004e4e:	2b08      	cmp	r3, #8
 8004e50:	d11c      	bne.n	8004e8c <HAL_RCC_OscConfig+0x168>
      ((__HAL_RCC_GET_SYSCLK_SOURCE() == RCC_CFGR_SWS_PLL) && ((RCC->PLLCFGR & RCC_PLLCFGR_PLLSRC) == RCC_PLLCFGR_PLLSRC_HSI)))
 8004e52:	4b44      	ldr	r3, [pc, #272]	; (8004f64 <HAL_RCC_OscConfig+0x240>)
 8004e54:	685b      	ldr	r3, [r3, #4]
 8004e56:	f403 0380 	and.w	r3, r3, #4194304	; 0x400000
 8004e5a:	2b00      	cmp	r3, #0
 8004e5c:	d116      	bne.n	8004e8c <HAL_RCC_OscConfig+0x168>
    {
      /* When HSI is used as system clock it will not disabled */
      if((__HAL_RCC_GET_FLAG(RCC_FLAG_HSIRDY) != RESET) && (RCC_OscInitStruct->HSIState != RCC_HSI_ON))
 8004e5e:	4b41      	ldr	r3, [pc, #260]	; (8004f64 <HAL_RCC_OscConfig+0x240>)
 8004e60:	681b      	ldr	r3, [r3, #0]
 8004e62:	f003 0302 	and.w	r3, r3, #2
 8004e66:	2b00      	cmp	r3, #0
 8004e68:	d005      	beq.n	8004e76 <HAL_RCC_OscConfig+0x152>
 8004e6a:	687b      	ldr	r3, [r7, #4]
 8004e6c:	68db      	ldr	r3, [r3, #12]
 8004e6e:	2b01      	cmp	r3, #1
 8004e70:	d001      	beq.n	8004e76 <HAL_RCC_OscConfig+0x152>
      {
        return HAL_ERROR;
 8004e72:	2301      	movs	r3, #1
 8004e74:	e1c7      	b.n	8005206 <HAL_RCC_OscConfig+0x4e2>
      }
      /* Otherwise, just the calibration is allowed */
      else
      {
        /* Adjusts the Internal High Speed oscillator (HSI) calibration value.*/
        __HAL_RCC_HSI_CALIBRATIONVALUE_ADJUST(RCC_OscInitStruct->HSICalibrationValue);
 8004e76:	4b3b      	ldr	r3, [pc, #236]	; (8004f64 <HAL_RCC_OscConfig+0x240>)
 8004e78:	681b      	ldr	r3, [r3, #0]
 8004e7a:	f023 02f8 	bic.w	r2, r3, #248	; 0xf8
 8004e7e:	687b      	ldr	r3, [r7, #4]
 8004e80:	691b      	ldr	r3, [r3, #16]
 8004e82:	00db      	lsls	r3, r3, #3
 8004e84:	4937      	ldr	r1, [pc, #220]	; (8004f64 <HAL_RCC_OscConfig+0x240>)
 8004e86:	4313      	orrs	r3, r2
 8004e88:	600b      	str	r3, [r1, #0]
      if((__HAL_RCC_GET_FLAG(RCC_FLAG_HSIRDY) != RESET) && (RCC_OscInitStruct->HSIState != RCC_HSI_ON))
 8004e8a:	e03a      	b.n	8004f02 <HAL_RCC_OscConfig+0x1de>
      }
    }
    else
    {
      /* Check the HSI State */
      if((RCC_OscInitStruct->HSIState)!= RCC_HSI_OFF)
 8004e8c:	687b      	ldr	r3, [r7, #4]
 8004e8e:	68db      	ldr	r3, [r3, #12]
 8004e90:	2b00      	cmp	r3, #0
 8004e92:	d020      	beq.n	8004ed6 <HAL_RCC_OscConfig+0x1b2>
      {
        /* Enable the Internal High Speed oscillator (HSI). */
        __HAL_RCC_HSI_ENABLE();
 8004e94:	4b34      	ldr	r3, [pc, #208]	; (8004f68 <HAL_RCC_OscConfig+0x244>)
 8004e96:	2201      	movs	r2, #1
 8004e98:	601a      	str	r2, [r3, #0]

        /* Get Start Tick*/
        tickstart = HAL_GetTick();
 8004e9a:	f7fd fe95 	bl	8002bc8 <HAL_GetTick>
 8004e9e:	6138      	str	r0, [r7, #16]

        /* Wait till HSI is ready */
        while(__HAL_RCC_GET_FLAG(RCC_FLAG_HSIRDY) == RESET)
 8004ea0:	e008      	b.n	8004eb4 <HAL_RCC_OscConfig+0x190>
        {
          if((HAL_GetTick() - tickstart ) > HSI_TIMEOUT_VALUE)
 8004ea2:	f7fd fe91 	bl	8002bc8 <HAL_GetTick>
 8004ea6:	4602      	mov	r2, r0
 8004ea8:	693b      	ldr	r3, [r7, #16]
 8004eaa:	1ad3      	subs	r3, r2, r3
 8004eac:	2b02      	cmp	r3, #2
 8004eae:	d901      	bls.n	8004eb4 <HAL_RCC_OscConfig+0x190>
          {
            return HAL_TIMEOUT;
 8004eb0:	2303      	movs	r3, #3
 8004eb2:	e1a8      	b.n	8005206 <HAL_RCC_OscConfig+0x4e2>
        while(__HAL_RCC_GET_FLAG(RCC_FLAG_HSIRDY) == RESET)
 8004eb4:	4b2b      	ldr	r3, [pc, #172]	; (8004f64 <HAL_RCC_OscConfig+0x240>)
 8004eb6:	681b      	ldr	r3, [r3, #0]
 8004eb8:	f003 0302 	and.w	r3, r3, #2
 8004ebc:	2b00      	cmp	r3, #0
 8004ebe:	d0f0      	beq.n	8004ea2 <HAL_RCC_OscConfig+0x17e>
          }
        }

        /* Adjusts the Internal High Speed oscillator (HSI) calibration value. */
        __HAL_RCC_HSI_CALIBRATIONVALUE_ADJUST(RCC_OscInitStruct->HSICalibrationValue);
 8004ec0:	4b28      	ldr	r3, [pc, #160]	; (8004f64 <HAL_RCC_OscConfig+0x240>)
 8004ec2:	681b      	ldr	r3, [r3, #0]
 8004ec4:	f023 02f8 	bic.w	r2, r3, #248	; 0xf8
 8004ec8:	687b      	ldr	r3, [r7, #4]
 8004eca:	691b      	ldr	r3, [r3, #16]
 8004ecc:	00db      	lsls	r3, r3, #3
 8004ece:	4925      	ldr	r1, [pc, #148]	; (8004f64 <HAL_RCC_OscConfig+0x240>)
 8004ed0:	4313      	orrs	r3, r2
 8004ed2:	600b      	str	r3, [r1, #0]
 8004ed4:	e015      	b.n	8004f02 <HAL_RCC_OscConfig+0x1de>
      }
      else
      {
        /* Disable the Internal High Speed oscillator (HSI). */
        __HAL_RCC_HSI_DISABLE();
 8004ed6:	4b24      	ldr	r3, [pc, #144]	; (8004f68 <HAL_RCC_OscConfig+0x244>)
 8004ed8:	2200      	movs	r2, #0
 8004eda:	601a      	str	r2, [r3, #0]

        /* Get Start Tick*/
        tickstart = HAL_GetTick();
 8004edc:	f7fd fe74 	bl	8002bc8 <HAL_GetTick>
 8004ee0:	6138      	str	r0, [r7, #16]

        /* Wait till HSI is ready */
        while(__HAL_RCC_GET_FLAG(RCC_FLAG_HSIRDY) != RESET)
 8004ee2:	e008      	b.n	8004ef6 <HAL_RCC_OscConfig+0x1d2>
        {
          if((HAL_GetTick() - tickstart ) > HSI_TIMEOUT_VALUE)
 8004ee4:	f7fd fe70 	bl	8002bc8 <HAL_GetTick>
 8004ee8:	4602      	mov	r2, r0
 8004eea:	693b      	ldr	r3, [r7, #16]
 8004eec:	1ad3      	subs	r3, r2, r3
 8004eee:	2b02      	cmp	r3, #2
 8004ef0:	d901      	bls.n	8004ef6 <HAL_RCC_OscConfig+0x1d2>
          {
            return HAL_TIMEOUT;
 8004ef2:	2303      	movs	r3, #3
 8004ef4:	e187      	b.n	8005206 <HAL_RCC_OscConfig+0x4e2>
        while(__HAL_RCC_GET_FLAG(RCC_FLAG_HSIRDY) != RESET)
 8004ef6:	4b1b      	ldr	r3, [pc, #108]	; (8004f64 <HAL_RCC_OscConfig+0x240>)
 8004ef8:	681b      	ldr	r3, [r3, #0]
 8004efa:	f003 0302 	and.w	r3, r3, #2
 8004efe:	2b00      	cmp	r3, #0
 8004f00:	d1f0      	bne.n	8004ee4 <HAL_RCC_OscConfig+0x1c0>
        }
      }
    }
  }
  /*------------------------------ LSI Configuration -------------------------*/
  if(((RCC_OscInitStruct->OscillatorType) & RCC_OSCILLATORTYPE_LSI) == RCC_OSCILLATORTYPE_LSI)
 8004f02:	687b      	ldr	r3, [r7, #4]
 8004f04:	681b      	ldr	r3, [r3, #0]
 8004f06:	f003 0308 	and.w	r3, r3, #8
 8004f0a:	2b00      	cmp	r3, #0
 8004f0c:	d036      	beq.n	8004f7c <HAL_RCC_OscConfig+0x258>
  {
    /* Check the parameters */
    assert_param(IS_RCC_LSI(RCC_OscInitStruct->LSIState));

    /* Check the LSI State */
    if((RCC_OscInitStruct->LSIState)!= RCC_LSI_OFF)
 8004f0e:	687b      	ldr	r3, [r7, #4]
 8004f10:	695b      	ldr	r3, [r3, #20]
 8004f12:	2b00      	cmp	r3, #0
 8004f14:	d016      	beq.n	8004f44 <HAL_RCC_OscConfig+0x220>
    {
      /* Enable the Internal Low Speed oscillator (LSI). */
      __HAL_RCC_LSI_ENABLE();
 8004f16:	4b15      	ldr	r3, [pc, #84]	; (8004f6c <HAL_RCC_OscConfig+0x248>)
 8004f18:	2201      	movs	r2, #1
 8004f1a:	601a      	str	r2, [r3, #0]

      /* Get Start Tick*/
      tickstart = HAL_GetTick();
 8004f1c:	f7fd fe54 	bl	8002bc8 <HAL_GetTick>
 8004f20:	6138      	str	r0, [r7, #16]

      /* Wait till LSI is ready */
      while(__HAL_RCC_GET_FLAG(RCC_FLAG_LSIRDY) == RESET)
 8004f22:	e008      	b.n	8004f36 <HAL_RCC_OscConfig+0x212>
      {
        if((HAL_GetTick() - tickstart ) > LSI_TIMEOUT_VALUE)
 8004f24:	f7fd fe50 	bl	8002bc8 <HAL_GetTick>
 8004f28:	4602      	mov	r2, r0
 8004f2a:	693b      	ldr	r3, [r7, #16]
 8004f2c:	1ad3      	subs	r3, r2, r3
 8004f2e:	2b02      	cmp	r3, #2
 8004f30:	d901      	bls.n	8004f36 <HAL_RCC_OscConfig+0x212>
        {
          return HAL_TIMEOUT;
 8004f32:	2303      	movs	r3, #3
 8004f34:	e167      	b.n	8005206 <HAL_RCC_OscConfig+0x4e2>
      while(__HAL_RCC_GET_FLAG(RCC_FLAG_LSIRDY) == RESET)
 8004f36:	4b0b      	ldr	r3, [pc, #44]	; (8004f64 <HAL_RCC_OscConfig+0x240>)
 8004f38:	6f5b      	ldr	r3, [r3, #116]	; 0x74
 8004f3a:	f003 0302 	and.w	r3, r3, #2
 8004f3e:	2b00      	cmp	r3, #0
 8004f40:	d0f0      	beq.n	8004f24 <HAL_RCC_OscConfig+0x200>
 8004f42:	e01b      	b.n	8004f7c <HAL_RCC_OscConfig+0x258>
      }
    }
    else
    {
      /* Disable the Internal Low Speed oscillator (LSI). */
      __HAL_RCC_LSI_DISABLE();
 8004f44:	4b09      	ldr	r3, [pc, #36]	; (8004f6c <HAL_RCC_OscConfig+0x248>)
 8004f46:	2200      	movs	r2, #0
 8004f48:	601a      	str	r2, [r3, #0]

      /* Get Start Tick */
      tickstart = HAL_GetTick();
 8004f4a:	f7fd fe3d 	bl	8002bc8 <HAL_GetTick>
 8004f4e:	6138      	str	r0, [r7, #16]

      /* Wait till LSI is ready */
      while(__HAL_RCC_GET_FLAG(RCC_FLAG_LSIRDY) != RESET)
 8004f50:	e00e      	b.n	8004f70 <HAL_RCC_OscConfig+0x24c>
      {
        if((HAL_GetTick() - tickstart ) > LSI_TIMEOUT_VALUE)
 8004f52:	f7fd fe39 	bl	8002bc8 <HAL_GetTick>
 8004f56:	4602      	mov	r2, r0
 8004f58:	693b      	ldr	r3, [r7, #16]
 8004f5a:	1ad3      	subs	r3, r2, r3
 8004f5c:	2b02      	cmp	r3, #2
 8004f5e:	d907      	bls.n	8004f70 <HAL_RCC_OscConfig+0x24c>
        {
          return HAL_TIMEOUT;
 8004f60:	2303      	movs	r3, #3
 8004f62:	e150      	b.n	8005206 <HAL_RCC_OscConfig+0x4e2>
 8004f64:	40023800 	.word	0x40023800
 8004f68:	42470000 	.word	0x42470000
 8004f6c:	42470e80 	.word	0x42470e80
      while(__HAL_RCC_GET_FLAG(RCC_FLAG_LSIRDY) != RESET)
 8004f70:	4b88      	ldr	r3, [pc, #544]	; (8005194 <HAL_RCC_OscConfig+0x470>)
 8004f72:	6f5b      	ldr	r3, [r3, #116]	; 0x74
 8004f74:	f003 0302 	and.w	r3, r3, #2
 8004f78:	2b00      	cmp	r3, #0
 8004f7a:	d1ea      	bne.n	8004f52 <HAL_RCC_OscConfig+0x22e>
        }
      }
    }
  }
  /*------------------------------ LSE Configuration -------------------------*/
  if(((RCC_OscInitStruct->OscillatorType) & RCC_OSCILLATORTYPE_LSE) == RCC_OSCILLATORTYPE_LSE)
 8004f7c:	687b      	ldr	r3, [r7, #4]
 8004f7e:	681b      	ldr	r3, [r3, #0]
 8004f80:	f003 0304 	and.w	r3, r3, #4
 8004f84:	2b00      	cmp	r3, #0
 8004f86:	f000 8097 	beq.w	80050b8 <HAL_RCC_OscConfig+0x394>
  {
    FlagStatus       pwrclkchanged = RESET;
 8004f8a:	2300      	movs	r3, #0
 8004f8c:	75fb      	strb	r3, [r7, #23]
    /* Check the parameters */
    assert_param(IS_RCC_LSE(RCC_OscInitStruct->LSEState));

    /* Update LSE configuration in Backup Domain control register    */
    /* Requires to enable write access to Backup Domain of necessary */
    if(__HAL_RCC_PWR_IS_CLK_DISABLED())
 8004f8e:	4b81      	ldr	r3, [pc, #516]	; (8005194 <HAL_RCC_OscConfig+0x470>)
 8004f90:	6c1b      	ldr	r3, [r3, #64]	; 0x40
 8004f92:	f003 5380 	and.w	r3, r3, #268435456	; 0x10000000
 8004f96:	2b00      	cmp	r3, #0
 8004f98:	d10f      	bne.n	8004fba <HAL_RCC_OscConfig+0x296>
    {
      __HAL_RCC_PWR_CLK_ENABLE();
 8004f9a:	2300      	movs	r3, #0
 8004f9c:	60bb      	str	r3, [r7, #8]
 8004f9e:	4b7d      	ldr	r3, [pc, #500]	; (8005194 <HAL_RCC_OscConfig+0x470>)
 8004fa0:	6c1b      	ldr	r3, [r3, #64]	; 0x40
 8004fa2:	4a7c      	ldr	r2, [pc, #496]	; (8005194 <HAL_RCC_OscConfig+0x470>)
 8004fa4:	f043 5380 	orr.w	r3, r3, #268435456	; 0x10000000
 8004fa8:	6413      	str	r3, [r2, #64]	; 0x40
 8004faa:	4b7a      	ldr	r3, [pc, #488]	; (8005194 <HAL_RCC_OscConfig+0x470>)
 8004fac:	6c1b      	ldr	r3, [r3, #64]	; 0x40
 8004fae:	f003 5380 	and.w	r3, r3, #268435456	; 0x10000000
 8004fb2:	60bb      	str	r3, [r7, #8]
 8004fb4:	68bb      	ldr	r3, [r7, #8]
      pwrclkchanged = SET;
 8004fb6:	2301      	movs	r3, #1
 8004fb8:	75fb      	strb	r3, [r7, #23]
    }

    if(HAL_IS_BIT_CLR(PWR->CR, PWR_CR_DBP))
 8004fba:	4b77      	ldr	r3, [pc, #476]	; (8005198 <HAL_RCC_OscConfig+0x474>)
 8004fbc:	681b      	ldr	r3, [r3, #0]
 8004fbe:	f403 7380 	and.w	r3, r3, #256	; 0x100
 8004fc2:	2b00      	cmp	r3, #0
 8004fc4:	d118      	bne.n	8004ff8 <HAL_RCC_OscConfig+0x2d4>
    {
      /* Enable write access to Backup domain */
      SET_BIT(PWR->CR, PWR_CR_DBP);
 8004fc6:	4b74      	ldr	r3, [pc, #464]	; (8005198 <HAL_RCC_OscConfig+0x474>)
 8004fc8:	681b      	ldr	r3, [r3, #0]
 8004fca:	4a73      	ldr	r2, [pc, #460]	; (8005198 <HAL_RCC_OscConfig+0x474>)
 8004fcc:	f443 7380 	orr.w	r3, r3, #256	; 0x100
 8004fd0:	6013      	str	r3, [r2, #0]

      /* Wait for Backup domain Write protection disable */
      tickstart = HAL_GetTick();
 8004fd2:	f7fd fdf9 	bl	8002bc8 <HAL_GetTick>
 8004fd6:	6138      	str	r0, [r7, #16]

      while(HAL_IS_BIT_CLR(PWR->CR, PWR_CR_DBP))
 8004fd8:	e008      	b.n	8004fec <HAL_RCC_OscConfig+0x2c8>
      {
        if((HAL_GetTick() - tickstart) > RCC_DBP_TIMEOUT_VALUE)
 8004fda:	f7fd fdf5 	bl	8002bc8 <HAL_GetTick>
 8004fde:	4602      	mov	r2, r0
 8004fe0:	693b      	ldr	r3, [r7, #16]
 8004fe2:	1ad3      	subs	r3, r2, r3
 8004fe4:	2b02      	cmp	r3, #2
 8004fe6:	d901      	bls.n	8004fec <HAL_RCC_OscConfig+0x2c8>
        {
          return HAL_TIMEOUT;
 8004fe8:	2303      	movs	r3, #3
 8004fea:	e10c      	b.n	8005206 <HAL_RCC_OscConfig+0x4e2>
      while(HAL_IS_BIT_CLR(PWR->CR, PWR_CR_DBP))
 8004fec:	4b6a      	ldr	r3, [pc, #424]	; (8005198 <HAL_RCC_OscConfig+0x474>)
 8004fee:	681b      	ldr	r3, [r3, #0]
 8004ff0:	f403 7380 	and.w	r3, r3, #256	; 0x100
 8004ff4:	2b00      	cmp	r3, #0
 8004ff6:	d0f0      	beq.n	8004fda <HAL_RCC_OscConfig+0x2b6>
        }
      }
    }

    /* Set the new LSE configuration -----------------------------------------*/
    __HAL_RCC_LSE_CONFIG(RCC_OscInitStruct->LSEState);
 8004ff8:	687b      	ldr	r3, [r7, #4]
 8004ffa:	689b      	ldr	r3, [r3, #8]
 8004ffc:	2b01      	cmp	r3, #1
 8004ffe:	d106      	bne.n	800500e <HAL_RCC_OscConfig+0x2ea>
 8005000:	4b64      	ldr	r3, [pc, #400]	; (8005194 <HAL_RCC_OscConfig+0x470>)
 8005002:	6f1b      	ldr	r3, [r3, #112]	; 0x70
 8005004:	4a63      	ldr	r2, [pc, #396]	; (8005194 <HAL_RCC_OscConfig+0x470>)
 8005006:	f043 0301 	orr.w	r3, r3, #1
 800500a:	6713      	str	r3, [r2, #112]	; 0x70
 800500c:	e01c      	b.n	8005048 <HAL_RCC_OscConfig+0x324>
 800500e:	687b      	ldr	r3, [r7, #4]
 8005010:	689b      	ldr	r3, [r3, #8]
 8005012:	2b05      	cmp	r3, #5
 8005014:	d10c      	bne.n	8005030 <HAL_RCC_OscConfig+0x30c>
 8005016:	4b5f      	ldr	r3, [pc, #380]	; (8005194 <HAL_RCC_OscConfig+0x470>)
 8005018:	6f1b      	ldr	r3, [r3, #112]	; 0x70
 800501a:	4a5e      	ldr	r2, [pc, #376]	; (8005194 <HAL_RCC_OscConfig+0x470>)
 800501c:	f043 0304 	orr.w	r3, r3, #4
 8005020:	6713      	str	r3, [r2, #112]	; 0x70
 8005022:	4b5c      	ldr	r3, [pc, #368]	; (8005194 <HAL_RCC_OscConfig+0x470>)
 8005024:	6f1b      	ldr	r3, [r3, #112]	; 0x70
 8005026:	4a5b      	ldr	r2, [pc, #364]	; (8005194 <HAL_RCC_OscConfig+0x470>)
 8005028:	f043 0301 	orr.w	r3, r3, #1
 800502c:	6713      	str	r3, [r2, #112]	; 0x70
 800502e:	e00b      	b.n	8005048 <HAL_RCC_OscConfig+0x324>
 8005030:	4b58      	ldr	r3, [pc, #352]	; (8005194 <HAL_RCC_OscConfig+0x470>)
 8005032:	6f1b      	ldr	r3, [r3, #112]	; 0x70
 8005034:	4a57      	ldr	r2, [pc, #348]	; (8005194 <HAL_RCC_OscConfig+0x470>)
 8005036:	f023 0301 	bic.w	r3, r3, #1
 800503a:	6713      	str	r3, [r2, #112]	; 0x70
 800503c:	4b55      	ldr	r3, [pc, #340]	; (8005194 <HAL_RCC_OscConfig+0x470>)
 800503e:	6f1b      	ldr	r3, [r3, #112]	; 0x70
 8005040:	4a54      	ldr	r2, [pc, #336]	; (8005194 <HAL_RCC_OscConfig+0x470>)
 8005042:	f023 0304 	bic.w	r3, r3, #4
 8005046:	6713      	str	r3, [r2, #112]	; 0x70
    /* Check the LSE State */
    if((RCC_OscInitStruct->LSEState) != RCC_LSE_OFF)
 8005048:	687b      	ldr	r3, [r7, #4]
 800504a:	689b      	ldr	r3, [r3, #8]
 800504c:	2b00      	cmp	r3, #0
 800504e:	d015      	beq.n	800507c <HAL_RCC_OscConfig+0x358>
    {
      /* Get Start Tick*/
      tickstart = HAL_GetTick();
 8005050:	f7fd fdba 	bl	8002bc8 <HAL_GetTick>
 8005054:	6138      	str	r0, [r7, #16]

      /* Wait till LSE is ready */
      while(__HAL_RCC_GET_FLAG(RCC_FLAG_LSERDY) == RESET)
 8005056:	e00a      	b.n	800506e <HAL_RCC_OscConfig+0x34a>
      {
        if((HAL_GetTick() - tickstart ) > RCC_LSE_TIMEOUT_VALUE)
 8005058:	f7fd fdb6 	bl	8002bc8 <HAL_GetTick>
 800505c:	4602      	mov	r2, r0
 800505e:	693b      	ldr	r3, [r7, #16]
 8005060:	1ad3      	subs	r3, r2, r3
 8005062:	f241 3288 	movw	r2, #5000	; 0x1388
 8005066:	4293      	cmp	r3, r2
 8005068:	d901      	bls.n	800506e <HAL_RCC_OscConfig+0x34a>
        {
          return HAL_TIMEOUT;
 800506a:	2303      	movs	r3, #3
 800506c:	e0cb      	b.n	8005206 <HAL_RCC_OscConfig+0x4e2>
      while(__HAL_RCC_GET_FLAG(RCC_FLAG_LSERDY) == RESET)
 800506e:	4b49      	ldr	r3, [pc, #292]	; (8005194 <HAL_RCC_OscConfig+0x470>)
 8005070:	6f1b      	ldr	r3, [r3, #112]	; 0x70
 8005072:	f003 0302 	and.w	r3, r3, #2
 8005076:	2b00      	cmp	r3, #0
 8005078:	d0ee      	beq.n	8005058 <HAL_RCC_OscConfig+0x334>
 800507a:	e014      	b.n	80050a6 <HAL_RCC_OscConfig+0x382>
      }
    }
    else
    {
      /* Get Start Tick */
      tickstart = HAL_GetTick();
 800507c:	f7fd fda4 	bl	8002bc8 <HAL_GetTick>
 8005080:	6138      	str	r0, [r7, #16]

      /* Wait till LSE is ready */
      while(__HAL_RCC_GET_FLAG(RCC_FLAG_LSERDY) != RESET)
 8005082:	e00a      	b.n	800509a <HAL_RCC_OscConfig+0x376>
      {
        if((HAL_GetTick() - tickstart ) > RCC_LSE_TIMEOUT_VALUE)
 8005084:	f7fd fda0 	bl	8002bc8 <HAL_GetTick>
 8005088:	4602      	mov	r2, r0
 800508a:	693b      	ldr	r3, [r7, #16]
 800508c:	1ad3      	subs	r3, r2, r3
 800508e:	f241 3288 	movw	r2, #5000	; 0x1388
 8005092:	4293      	cmp	r3, r2
 8005094:	d901      	bls.n	800509a <HAL_RCC_OscConfig+0x376>
        {
          return HAL_TIMEOUT;
 8005096:	2303      	movs	r3, #3
 8005098:	e0b5      	b.n	8005206 <HAL_RCC_OscConfig+0x4e2>
      while(__HAL_RCC_GET_FLAG(RCC_FLAG_LSERDY) != RESET)
 800509a:	4b3e      	ldr	r3, [pc, #248]	; (8005194 <HAL_RCC_OscConfig+0x470>)
 800509c:	6f1b      	ldr	r3, [r3, #112]	; 0x70
 800509e:	f003 0302 	and.w	r3, r3, #2
 80050a2:	2b00      	cmp	r3, #0
 80050a4:	d1ee      	bne.n	8005084 <HAL_RCC_OscConfig+0x360>
        }
      }
    }

    /* Restore clock configuration if changed */
    if(pwrclkchanged == SET)
 80050a6:	7dfb      	ldrb	r3, [r7, #23]
 80050a8:	2b01      	cmp	r3, #1
 80050aa:	d105      	bne.n	80050b8 <HAL_RCC_OscConfig+0x394>
    {
      __HAL_RCC_PWR_CLK_DISABLE();
 80050ac:	4b39      	ldr	r3, [pc, #228]	; (8005194 <HAL_RCC_OscConfig+0x470>)
 80050ae:	6c1b      	ldr	r3, [r3, #64]	; 0x40
 80050b0:	4a38      	ldr	r2, [pc, #224]	; (8005194 <HAL_RCC_OscConfig+0x470>)
 80050b2:	f023 5380 	bic.w	r3, r3, #268435456	; 0x10000000
 80050b6:	6413      	str	r3, [r2, #64]	; 0x40
    }
  }
  /*-------------------------------- PLL Configuration -----------------------*/
  /* Check the parameters */
  assert_param(IS_RCC_PLL(RCC_OscInitStruct->PLL.PLLState));
  if ((RCC_OscInitStruct->PLL.PLLState) != RCC_PLL_NONE)
 80050b8:	687b      	ldr	r3, [r7, #4]
 80050ba:	699b      	ldr	r3, [r3, #24]
 80050bc:	2b00      	cmp	r3, #0
 80050be:	f000 80a1 	beq.w	8005204 <HAL_RCC_OscConfig+0x4e0>
  {
    /* Check if the PLL is used as system clock or not */
    if(__HAL_RCC_GET_SYSCLK_SOURCE() != RCC_CFGR_SWS_PLL)
 80050c2:	4b34      	ldr	r3, [pc, #208]	; (8005194 <HAL_RCC_OscConfig+0x470>)
 80050c4:	689b      	ldr	r3, [r3, #8]
 80050c6:	f003 030c 	and.w	r3, r3, #12
 80050ca:	2b08      	cmp	r3, #8
 80050cc:	d05c      	beq.n	8005188 <HAL_RCC_OscConfig+0x464>
    {
      if((RCC_OscInitStruct->PLL.PLLState) == RCC_PLL_ON)
 80050ce:	687b      	ldr	r3, [r7, #4]
 80050d0:	699b      	ldr	r3, [r3, #24]
 80050d2:	2b02      	cmp	r3, #2
 80050d4:	d141      	bne.n	800515a <HAL_RCC_OscConfig+0x436>
        assert_param(IS_RCC_PLLN_VALUE(RCC_OscInitStruct->PLL.PLLN));
        assert_param(IS_RCC_PLLP_VALUE(RCC_OscInitStruct->PLL.PLLP));
        assert_param(IS_RCC_PLLQ_VALUE(RCC_OscInitStruct->PLL.PLLQ));

        /* Disable the main PLL. */
        __HAL_RCC_PLL_DISABLE();
 80050d6:	4b31      	ldr	r3, [pc, #196]	; (800519c <HAL_RCC_OscConfig+0x478>)
 80050d8:	2200      	movs	r2, #0
 80050da:	601a      	str	r2, [r3, #0]

        /* Get Start Tick */
        tickstart = HAL_GetTick();
 80050dc:	f7fd fd74 	bl	8002bc8 <HAL_GetTick>
 80050e0:	6138      	str	r0, [r7, #16]

        /* Wait till PLL is disabled */
        while(__HAL_RCC_GET_FLAG(RCC_FLAG_PLLRDY) != RESET)
 80050e2:	e008      	b.n	80050f6 <HAL_RCC_OscConfig+0x3d2>
        {
          if((HAL_GetTick() - tickstart ) > PLL_TIMEOUT_VALUE)
 80050e4:	f7fd fd70 	bl	8002bc8 <HAL_GetTick>
 80050e8:	4602      	mov	r2, r0
 80050ea:	693b      	ldr	r3, [r7, #16]
 80050ec:	1ad3      	subs	r3, r2, r3
 80050ee:	2b02      	cmp	r3, #2
 80050f0:	d901      	bls.n	80050f6 <HAL_RCC_OscConfig+0x3d2>
          {
            return HAL_TIMEOUT;
 80050f2:	2303      	movs	r3, #3
 80050f4:	e087      	b.n	8005206 <HAL_RCC_OscConfig+0x4e2>
        while(__HAL_RCC_GET_FLAG(RCC_FLAG_PLLRDY) != RESET)
 80050f6:	4b27      	ldr	r3, [pc, #156]	; (8005194 <HAL_RCC_OscConfig+0x470>)
 80050f8:	681b      	ldr	r3, [r3, #0]
 80050fa:	f003 7300 	and.w	r3, r3, #33554432	; 0x2000000
 80050fe:	2b00      	cmp	r3, #0
 8005100:	d1f0      	bne.n	80050e4 <HAL_RCC_OscConfig+0x3c0>
          }
        }

        /* Configure the main PLL clock source, multiplication and division factors. */
        WRITE_REG(RCC->PLLCFGR, (RCC_OscInitStruct->PLL.PLLSource                                            | \
 8005102:	687b      	ldr	r3, [r7, #4]
 8005104:	69da      	ldr	r2, [r3, #28]
 8005106:	687b      	ldr	r3, [r7, #4]
 8005108:	6a1b      	ldr	r3, [r3, #32]
 800510a:	431a      	orrs	r2, r3
 800510c:	687b      	ldr	r3, [r7, #4]
 800510e:	6a5b      	ldr	r3, [r3, #36]	; 0x24
 8005110:	019b      	lsls	r3, r3, #6
 8005112:	431a      	orrs	r2, r3
 8005114:	687b      	ldr	r3, [r7, #4]
 8005116:	6a9b      	ldr	r3, [r3, #40]	; 0x28
 8005118:	085b      	lsrs	r3, r3, #1
 800511a:	3b01      	subs	r3, #1
 800511c:	041b      	lsls	r3, r3, #16
 800511e:	431a      	orrs	r2, r3
 8005120:	687b      	ldr	r3, [r7, #4]
 8005122:	6adb      	ldr	r3, [r3, #44]	; 0x2c
 8005124:	061b      	lsls	r3, r3, #24
 8005126:	491b      	ldr	r1, [pc, #108]	; (8005194 <HAL_RCC_OscConfig+0x470>)
 8005128:	4313      	orrs	r3, r2
 800512a:	604b      	str	r3, [r1, #4]
                                 RCC_OscInitStruct->PLL.PLLM                                                 | \
                                 (RCC_OscInitStruct->PLL.PLLN << RCC_PLLCFGR_PLLN_Pos)             | \
                                 (((RCC_OscInitStruct->PLL.PLLP >> 1U) - 1U) << RCC_PLLCFGR_PLLP_Pos) | \
                                 (RCC_OscInitStruct->PLL.PLLQ << RCC_PLLCFGR_PLLQ_Pos)));
        /* Enable the main PLL. */
        __HAL_RCC_PLL_ENABLE();
 800512c:	4b1b      	ldr	r3, [pc, #108]	; (800519c <HAL_RCC_OscConfig+0x478>)
 800512e:	2201      	movs	r2, #1
 8005130:	601a      	str	r2, [r3, #0]

        /* Get Start Tick */
        tickstart = HAL_GetTick();
 8005132:	f7fd fd49 	bl	8002bc8 <HAL_GetTick>
 8005136:	6138      	str	r0, [r7, #16]

        /* Wait till PLL is ready */
        while(__HAL_RCC_GET_FLAG(RCC_FLAG_PLLRDY) == RESET)
 8005138:	e008      	b.n	800514c <HAL_RCC_OscConfig+0x428>
        {
          if((HAL_GetTick() - tickstart ) > PLL_TIMEOUT_VALUE)
 800513a:	f7fd fd45 	bl	8002bc8 <HAL_GetTick>
 800513e:	4602      	mov	r2, r0
 8005140:	693b      	ldr	r3, [r7, #16]
 8005142:	1ad3      	subs	r3, r2, r3
 8005144:	2b02      	cmp	r3, #2
 8005146:	d901      	bls.n	800514c <HAL_RCC_OscConfig+0x428>
          {
            return HAL_TIMEOUT;
 8005148:	2303      	movs	r3, #3
 800514a:	e05c      	b.n	8005206 <HAL_RCC_OscConfig+0x4e2>
        while(__HAL_RCC_GET_FLAG(RCC_FLAG_PLLRDY) == RESET)
 800514c:	4b11      	ldr	r3, [pc, #68]	; (8005194 <HAL_RCC_OscConfig+0x470>)
 800514e:	681b      	ldr	r3, [r3, #0]
 8005150:	f003 7300 	and.w	r3, r3, #33554432	; 0x2000000
 8005154:	2b00      	cmp	r3, #0
 8005156:	d0f0      	beq.n	800513a <HAL_RCC_OscConfig+0x416>
 8005158:	e054      	b.n	8005204 <HAL_RCC_OscConfig+0x4e0>
        }
      }
      else
      {
        /* Disable the main PLL. */
        __HAL_RCC_PLL_DISABLE();
 800515a:	4b10      	ldr	r3, [pc, #64]	; (800519c <HAL_RCC_OscConfig+0x478>)
 800515c:	2200      	movs	r2, #0
 800515e:	601a      	str	r2, [r3, #0]

        /* Get Start Tick */
        tickstart = HAL_GetTick();
 8005160:	f7fd fd32 	bl	8002bc8 <HAL_GetTick>
 8005164:	6138      	str	r0, [r7, #16]

        /* Wait till PLL is disabled */
        while(__HAL_RCC_GET_FLAG(RCC_FLAG_PLLRDY) != RESET)
 8005166:	e008      	b.n	800517a <HAL_RCC_OscConfig+0x456>
        {
          if((HAL_GetTick() - tickstart ) > PLL_TIMEOUT_VALUE)
 8005168:	f7fd fd2e 	bl	8002bc8 <HAL_GetTick>
 800516c:	4602      	mov	r2, r0
 800516e:	693b      	ldr	r3, [r7, #16]
 8005170:	1ad3      	subs	r3, r2, r3
 8005172:	2b02      	cmp	r3, #2
 8005174:	d901      	bls.n	800517a <HAL_RCC_OscConfig+0x456>
          {
            return HAL_TIMEOUT;
 8005176:	2303      	movs	r3, #3
 8005178:	e045      	b.n	8005206 <HAL_RCC_OscConfig+0x4e2>
        while(__HAL_RCC_GET_FLAG(RCC_FLAG_PLLRDY) != RESET)
 800517a:	4b06      	ldr	r3, [pc, #24]	; (8005194 <HAL_RCC_OscConfig+0x470>)
 800517c:	681b      	ldr	r3, [r3, #0]
 800517e:	f003 7300 	and.w	r3, r3, #33554432	; 0x2000000
 8005182:	2b00      	cmp	r3, #0
 8005184:	d1f0      	bne.n	8005168 <HAL_RCC_OscConfig+0x444>
 8005186:	e03d      	b.n	8005204 <HAL_RCC_OscConfig+0x4e0>
      }
    }
    else
    {
      /* Check if there is a request to disable the PLL used as System clock source */
      if((RCC_OscInitStruct->PLL.PLLState) == RCC_PLL_OFF)
 8005188:	687b      	ldr	r3, [r7, #4]
 800518a:	699b      	ldr	r3, [r3, #24]
 800518c:	2b01      	cmp	r3, #1
 800518e:	d107      	bne.n	80051a0 <HAL_RCC_OscConfig+0x47c>
      {
        return HAL_ERROR;
 8005190:	2301      	movs	r3, #1
 8005192:	e038      	b.n	8005206 <HAL_RCC_OscConfig+0x4e2>
 8005194:	40023800 	.word	0x40023800
 8005198:	40007000 	.word	0x40007000
 800519c:	42470060 	.word	0x42470060
      }
      else
      {
        /* Do not return HAL_ERROR if request repeats the current configuration */
        pll_config = RCC->PLLCFGR;
 80051a0:	4b1b      	ldr	r3, [pc, #108]	; (8005210 <HAL_RCC_OscConfig+0x4ec>)
 80051a2:	685b      	ldr	r3, [r3, #4]
 80051a4:	60fb      	str	r3, [r7, #12]
            (READ_BIT(pll_config, RCC_PLLCFGR_PLLN) != (RCC_OscInitStruct->PLL.PLLN) << RCC_PLLCFGR_PLLN_Pos) ||
            (READ_BIT(pll_config, RCC_PLLCFGR_PLLP) != (((RCC_OscInitStruct->PLL.PLLP >> 1U) - 1U)) << RCC_PLLCFGR_PLLP_Pos) ||
            (READ_BIT(pll_config, RCC_PLLCFGR_PLLQ) != (RCC_OscInitStruct->PLL.PLLQ << RCC_PLLCFGR_PLLQ_Pos)) ||
            (READ_BIT(pll_config, RCC_PLLCFGR_PLLR) != (RCC_OscInitStruct->PLL.PLLR << RCC_PLLCFGR_PLLR_Pos)))
#else
        if (((RCC_OscInitStruct->PLL.PLLState) == RCC_PLL_OFF) ||
 80051a6:	687b      	ldr	r3, [r7, #4]
 80051a8:	699b      	ldr	r3, [r3, #24]
 80051aa:	2b01      	cmp	r3, #1
 80051ac:	d028      	beq.n	8005200 <HAL_RCC_OscConfig+0x4dc>
            (READ_BIT(pll_config, RCC_PLLCFGR_PLLSRC) != RCC_OscInitStruct->PLL.PLLSource) ||
 80051ae:	68fb      	ldr	r3, [r7, #12]
 80051b0:	f403 0280 	and.w	r2, r3, #4194304	; 0x400000
 80051b4:	687b      	ldr	r3, [r7, #4]
 80051b6:	69db      	ldr	r3, [r3, #28]
        if (((RCC_OscInitStruct->PLL.PLLState) == RCC_PLL_OFF) ||
 80051b8:	429a      	cmp	r2, r3
 80051ba:	d121      	bne.n	8005200 <HAL_RCC_OscConfig+0x4dc>
            (READ_BIT(pll_config, RCC_PLLCFGR_PLLM) != (RCC_OscInitStruct->PLL.PLLM) << RCC_PLLCFGR_PLLM_Pos) ||
 80051bc:	68fb      	ldr	r3, [r7, #12]
 80051be:	f003 023f 	and.w	r2, r3, #63	; 0x3f
 80051c2:	687b      	ldr	r3, [r7, #4]
 80051c4:	6a1b      	ldr	r3, [r3, #32]
            (READ_BIT(pll_config, RCC_PLLCFGR_PLLSRC) != RCC_OscInitStruct->PLL.PLLSource) ||
 80051c6:	429a      	cmp	r2, r3
 80051c8:	d11a      	bne.n	8005200 <HAL_RCC_OscConfig+0x4dc>
            (READ_BIT(pll_config, RCC_PLLCFGR_PLLN) != (RCC_OscInitStruct->PLL.PLLN) << RCC_PLLCFGR_PLLN_Pos) ||
 80051ca:	68fa      	ldr	r2, [r7, #12]
 80051cc:	f647 73c0 	movw	r3, #32704	; 0x7fc0
 80051d0:	4013      	ands	r3, r2
 80051d2:	687a      	ldr	r2, [r7, #4]
 80051d4:	6a52      	ldr	r2, [r2, #36]	; 0x24
 80051d6:	0192      	lsls	r2, r2, #6
            (READ_BIT(pll_config, RCC_PLLCFGR_PLLM) != (RCC_OscInitStruct->PLL.PLLM) << RCC_PLLCFGR_PLLM_Pos) ||
 80051d8:	4293      	cmp	r3, r2
 80051da:	d111      	bne.n	8005200 <HAL_RCC_OscConfig+0x4dc>
            (READ_BIT(pll_config, RCC_PLLCFGR_PLLP) != (((RCC_OscInitStruct->PLL.PLLP >> 1U) - 1U)) << RCC_PLLCFGR_PLLP_Pos) ||
 80051dc:	68fb      	ldr	r3, [r7, #12]
 80051de:	f403 3240 	and.w	r2, r3, #196608	; 0x30000
 80051e2:	687b      	ldr	r3, [r7, #4]
 80051e4:	6a9b      	ldr	r3, [r3, #40]	; 0x28
 80051e6:	085b      	lsrs	r3, r3, #1
 80051e8:	3b01      	subs	r3, #1
 80051ea:	041b      	lsls	r3, r3, #16
            (READ_BIT(pll_config, RCC_PLLCFGR_PLLN) != (RCC_OscInitStruct->PLL.PLLN) << RCC_PLLCFGR_PLLN_Pos) ||
 80051ec:	429a      	cmp	r2, r3
 80051ee:	d107      	bne.n	8005200 <HAL_RCC_OscConfig+0x4dc>
            (READ_BIT(pll_config, RCC_PLLCFGR_PLLQ) != (RCC_OscInitStruct->PLL.PLLQ << RCC_PLLCFGR_PLLQ_Pos)))
 80051f0:	68fb      	ldr	r3, [r7, #12]
 80051f2:	f003 6270 	and.w	r2, r3, #251658240	; 0xf000000
 80051f6:	687b      	ldr	r3, [r7, #4]
 80051f8:	6adb      	ldr	r3, [r3, #44]	; 0x2c
 80051fa:	061b      	lsls	r3, r3, #24
            (READ_BIT(pll_config, RCC_PLLCFGR_PLLP) != (((RCC_OscInitStruct->PLL.PLLP >> 1U) - 1U)) << RCC_PLLCFGR_PLLP_Pos) ||
 80051fc:	429a      	cmp	r2, r3
 80051fe:	d001      	beq.n	8005204 <HAL_RCC_OscConfig+0x4e0>
#endif
        {
          return HAL_ERROR;
 8005200:	2301      	movs	r3, #1
 8005202:	e000      	b.n	8005206 <HAL_RCC_OscConfig+0x4e2>
        }
      }
    }
  }
  return HAL_OK;
 8005204:	2300      	movs	r3, #0
}
 8005206:	4618      	mov	r0, r3
 8005208:	3718      	adds	r7, #24
 800520a:	46bd      	mov	sp, r7
 800520c:	bd80      	pop	{r7, pc}
 800520e:	bf00      	nop
 8005210:	40023800 	.word	0x40023800

08005214 <HAL_RCC_ClockConfig>:
  *         HPRE[3:0] bits to ensure that HCLK not exceed the maximum allowed frequency
  *         (for more details refer to section above "Initialization/de-initialization functions")
  * @retval None
  */
HAL_StatusTypeDef HAL_RCC_ClockConfig(RCC_ClkInitTypeDef  *RCC_ClkInitStruct, uint32_t FLatency)
{
 8005214:	b580      	push	{r7, lr}
 8005216:	b084      	sub	sp, #16
 8005218:	af00      	add	r7, sp, #0
 800521a:	6078      	str	r0, [r7, #4]
 800521c:	6039      	str	r1, [r7, #0]
  uint32_t tickstart;

  /* Check Null pointer */
  if(RCC_ClkInitStruct == NULL)
 800521e:	687b      	ldr	r3, [r7, #4]
 8005220:	2b00      	cmp	r3, #0
 8005222:	d101      	bne.n	8005228 <HAL_RCC_ClockConfig+0x14>
  {
    return HAL_ERROR;
 8005224:	2301      	movs	r3, #1
 8005226:	e0cc      	b.n	80053c2 <HAL_RCC_ClockConfig+0x1ae>
  /* To correctly read data from FLASH memory, the number of wait states (LATENCY)
    must be correctly programmed according to the frequency of the CPU clock
    (HCLK) and the supply voltage of the device. */

  /* Increasing the number of wait states because of higher CPU frequency */
  if(FLatency > __HAL_FLASH_GET_LATENCY())
 8005228:	4b68      	ldr	r3, [pc, #416]	; (80053cc <HAL_RCC_ClockConfig+0x1b8>)
 800522a:	681b      	ldr	r3, [r3, #0]
 800522c:	f003 030f 	and.w	r3, r3, #15
 8005230:	683a      	ldr	r2, [r7, #0]
 8005232:	429a      	cmp	r2, r3
 8005234:	d90c      	bls.n	8005250 <HAL_RCC_ClockConfig+0x3c>
  {
    /* Program the new number of wait states to the LATENCY bits in the FLASH_ACR register */
    __HAL_FLASH_SET_LATENCY(FLatency);
 8005236:	4b65      	ldr	r3, [pc, #404]	; (80053cc <HAL_RCC_ClockConfig+0x1b8>)
 8005238:	683a      	ldr	r2, [r7, #0]
 800523a:	b2d2      	uxtb	r2, r2
 800523c:	701a      	strb	r2, [r3, #0]

    /* Check that the new number of wait states is taken into account to access the Flash
    memory by reading the FLASH_ACR register */
    if(__HAL_FLASH_GET_LATENCY() != FLatency)
 800523e:	4b63      	ldr	r3, [pc, #396]	; (80053cc <HAL_RCC_ClockConfig+0x1b8>)
 8005240:	681b      	ldr	r3, [r3, #0]
 8005242:	f003 030f 	and.w	r3, r3, #15
 8005246:	683a      	ldr	r2, [r7, #0]
 8005248:	429a      	cmp	r2, r3
 800524a:	d001      	beq.n	8005250 <HAL_RCC_ClockConfig+0x3c>
    {
      return HAL_ERROR;
 800524c:	2301      	movs	r3, #1
 800524e:	e0b8      	b.n	80053c2 <HAL_RCC_ClockConfig+0x1ae>
    }
  }

  /*-------------------------- HCLK Configuration --------------------------*/
  if(((RCC_ClkInitStruct->ClockType) & RCC_CLOCKTYPE_HCLK) == RCC_CLOCKTYPE_HCLK)
 8005250:	687b      	ldr	r3, [r7, #4]
 8005252:	681b      	ldr	r3, [r3, #0]
 8005254:	f003 0302 	and.w	r3, r3, #2
 8005258:	2b00      	cmp	r3, #0
 800525a:	d020      	beq.n	800529e <HAL_RCC_ClockConfig+0x8a>
  {
    /* Set the highest APBx dividers in order to ensure that we do not go through
       a non-spec phase whatever we decrease or increase HCLK. */
    if(((RCC_ClkInitStruct->ClockType) & RCC_CLOCKTYPE_PCLK1) == RCC_CLOCKTYPE_PCLK1)
 800525c:	687b      	ldr	r3, [r7, #4]
 800525e:	681b      	ldr	r3, [r3, #0]
 8005260:	f003 0304 	and.w	r3, r3, #4
 8005264:	2b00      	cmp	r3, #0
 8005266:	d005      	beq.n	8005274 <HAL_RCC_ClockConfig+0x60>
    {
      MODIFY_REG(RCC->CFGR, RCC_CFGR_PPRE1, RCC_HCLK_DIV16);
 8005268:	4b59      	ldr	r3, [pc, #356]	; (80053d0 <HAL_RCC_ClockConfig+0x1bc>)
 800526a:	689b      	ldr	r3, [r3, #8]
 800526c:	4a58      	ldr	r2, [pc, #352]	; (80053d0 <HAL_RCC_ClockConfig+0x1bc>)
 800526e:	f443 53e0 	orr.w	r3, r3, #7168	; 0x1c00
 8005272:	6093      	str	r3, [r2, #8]
    }

    if(((RCC_ClkInitStruct->ClockType) & RCC_CLOCKTYPE_PCLK2) == RCC_CLOCKTYPE_PCLK2)
 8005274:	687b      	ldr	r3, [r7, #4]
 8005276:	681b      	ldr	r3, [r3, #0]
 8005278:	f003 0308 	and.w	r3, r3, #8
 800527c:	2b00      	cmp	r3, #0
 800527e:	d005      	beq.n	800528c <HAL_RCC_ClockConfig+0x78>
    {
      MODIFY_REG(RCC->CFGR, RCC_CFGR_PPRE2, (RCC_HCLK_DIV16 << 3));
 8005280:	4b53      	ldr	r3, [pc, #332]	; (80053d0 <HAL_RCC_ClockConfig+0x1bc>)
 8005282:	689b      	ldr	r3, [r3, #8]
 8005284:	4a52      	ldr	r2, [pc, #328]	; (80053d0 <HAL_RCC_ClockConfig+0x1bc>)
 8005286:	f443 4360 	orr.w	r3, r3, #57344	; 0xe000
 800528a:	6093      	str	r3, [r2, #8]
    }

    assert_param(IS_RCC_HCLK(RCC_ClkInitStruct->AHBCLKDivider));
    MODIFY_REG(RCC->CFGR, RCC_CFGR_HPRE, RCC_ClkInitStruct->AHBCLKDivider);
 800528c:	4b50      	ldr	r3, [pc, #320]	; (80053d0 <HAL_RCC_ClockConfig+0x1bc>)
 800528e:	689b      	ldr	r3, [r3, #8]
 8005290:	f023 02f0 	bic.w	r2, r3, #240	; 0xf0
 8005294:	687b      	ldr	r3, [r7, #4]
 8005296:	689b      	ldr	r3, [r3, #8]
 8005298:	494d      	ldr	r1, [pc, #308]	; (80053d0 <HAL_RCC_ClockConfig+0x1bc>)
 800529a:	4313      	orrs	r3, r2
 800529c:	608b      	str	r3, [r1, #8]
  }

  /*------------------------- SYSCLK Configuration ---------------------------*/
  if(((RCC_ClkInitStruct->ClockType) & RCC_CLOCKTYPE_SYSCLK) == RCC_CLOCKTYPE_SYSCLK)
 800529e:	687b      	ldr	r3, [r7, #4]
 80052a0:	681b      	ldr	r3, [r3, #0]
 80052a2:	f003 0301 	and.w	r3, r3, #1
 80052a6:	2b00      	cmp	r3, #0
 80052a8:	d044      	beq.n	8005334 <HAL_RCC_ClockConfig+0x120>
  {
    assert_param(IS_RCC_SYSCLKSOURCE(RCC_ClkInitStruct->SYSCLKSource));

    /* HSE is selected as System Clock Source */
    if(RCC_ClkInitStruct->SYSCLKSource == RCC_SYSCLKSOURCE_HSE)
 80052aa:	687b      	ldr	r3, [r7, #4]
 80052ac:	685b      	ldr	r3, [r3, #4]
 80052ae:	2b01      	cmp	r3, #1
 80052b0:	d107      	bne.n	80052c2 <HAL_RCC_ClockConfig+0xae>
    {
      /* Check the HSE ready flag */
      if(__HAL_RCC_GET_FLAG(RCC_FLAG_HSERDY) == RESET)
 80052b2:	4b47      	ldr	r3, [pc, #284]	; (80053d0 <HAL_RCC_ClockConfig+0x1bc>)
 80052b4:	681b      	ldr	r3, [r3, #0]
 80052b6:	f403 3300 	and.w	r3, r3, #131072	; 0x20000
 80052ba:	2b00      	cmp	r3, #0
 80052bc:	d119      	bne.n	80052f2 <HAL_RCC_ClockConfig+0xde>
      {
        return HAL_ERROR;
 80052be:	2301      	movs	r3, #1
 80052c0:	e07f      	b.n	80053c2 <HAL_RCC_ClockConfig+0x1ae>
      }
    }
    /* PLL is selected as System Clock Source */
    else if((RCC_ClkInitStruct->SYSCLKSource == RCC_SYSCLKSOURCE_PLLCLK)   ||
 80052c2:	687b      	ldr	r3, [r7, #4]
 80052c4:	685b      	ldr	r3, [r3, #4]
 80052c6:	2b02      	cmp	r3, #2
 80052c8:	d003      	beq.n	80052d2 <HAL_RCC_ClockConfig+0xbe>
            (RCC_ClkInitStruct->SYSCLKSource == RCC_SYSCLKSOURCE_PLLRCLK))
 80052ca:	687b      	ldr	r3, [r7, #4]
 80052cc:	685b      	ldr	r3, [r3, #4]
    else if((RCC_ClkInitStruct->SYSCLKSource == RCC_SYSCLKSOURCE_PLLCLK)   ||
 80052ce:	2b03      	cmp	r3, #3
 80052d0:	d107      	bne.n	80052e2 <HAL_RCC_ClockConfig+0xce>
    {
      /* Check the PLL ready flag */
      if(__HAL_RCC_GET_FLAG(RCC_FLAG_PLLRDY) == RESET)
 80052d2:	4b3f      	ldr	r3, [pc, #252]	; (80053d0 <HAL_RCC_ClockConfig+0x1bc>)
 80052d4:	681b      	ldr	r3, [r3, #0]
 80052d6:	f003 7300 	and.w	r3, r3, #33554432	; 0x2000000
 80052da:	2b00      	cmp	r3, #0
 80052dc:	d109      	bne.n	80052f2 <HAL_RCC_ClockConfig+0xde>
      {
        return HAL_ERROR;
 80052de:	2301      	movs	r3, #1
 80052e0:	e06f      	b.n	80053c2 <HAL_RCC_ClockConfig+0x1ae>
    }
    /* HSI is selected as System Clock Source */
    else
    {
      /* Check the HSI ready flag */
      if(__HAL_RCC_GET_FLAG(RCC_FLAG_HSIRDY) == RESET)
 80052e2:	4b3b      	ldr	r3, [pc, #236]	; (80053d0 <HAL_RCC_ClockConfig+0x1bc>)
 80052e4:	681b      	ldr	r3, [r3, #0]
 80052e6:	f003 0302 	and.w	r3, r3, #2
 80052ea:	2b00      	cmp	r3, #0
 80052ec:	d101      	bne.n	80052f2 <HAL_RCC_ClockConfig+0xde>
      {
        return HAL_ERROR;
 80052ee:	2301      	movs	r3, #1
 80052f0:	e067      	b.n	80053c2 <HAL_RCC_ClockConfig+0x1ae>
      }
    }

    __HAL_RCC_SYSCLK_CONFIG(RCC_ClkInitStruct->SYSCLKSource);
 80052f2:	4b37      	ldr	r3, [pc, #220]	; (80053d0 <HAL_RCC_ClockConfig+0x1bc>)
 80052f4:	689b      	ldr	r3, [r3, #8]
 80052f6:	f023 0203 	bic.w	r2, r3, #3
 80052fa:	687b      	ldr	r3, [r7, #4]
 80052fc:	685b      	ldr	r3, [r3, #4]
 80052fe:	4934      	ldr	r1, [pc, #208]	; (80053d0 <HAL_RCC_ClockConfig+0x1bc>)
 8005300:	4313      	orrs	r3, r2
 8005302:	608b      	str	r3, [r1, #8]

    /* Get Start Tick */
    tickstart = HAL_GetTick();
 8005304:	f7fd fc60 	bl	8002bc8 <HAL_GetTick>
 8005308:	60f8      	str	r0, [r7, #12]

    while (__HAL_RCC_GET_SYSCLK_SOURCE() != (RCC_ClkInitStruct->SYSCLKSource << RCC_CFGR_SWS_Pos))
 800530a:	e00a      	b.n	8005322 <HAL_RCC_ClockConfig+0x10e>
    {
      if ((HAL_GetTick() - tickstart) > CLOCKSWITCH_TIMEOUT_VALUE)
 800530c:	f7fd fc5c 	bl	8002bc8 <HAL_GetTick>
 8005310:	4602      	mov	r2, r0
 8005312:	68fb      	ldr	r3, [r7, #12]
 8005314:	1ad3      	subs	r3, r2, r3
 8005316:	f241 3288 	movw	r2, #5000	; 0x1388
 800531a:	4293      	cmp	r3, r2
 800531c:	d901      	bls.n	8005322 <HAL_RCC_ClockConfig+0x10e>
      {
        return HAL_TIMEOUT;
 800531e:	2303      	movs	r3, #3
 8005320:	e04f      	b.n	80053c2 <HAL_RCC_ClockConfig+0x1ae>
    while (__HAL_RCC_GET_SYSCLK_SOURCE() != (RCC_ClkInitStruct->SYSCLKSource << RCC_CFGR_SWS_Pos))
 8005322:	4b2b      	ldr	r3, [pc, #172]	; (80053d0 <HAL_RCC_ClockConfig+0x1bc>)
 8005324:	689b      	ldr	r3, [r3, #8]
 8005326:	f003 020c 	and.w	r2, r3, #12
 800532a:	687b      	ldr	r3, [r7, #4]
 800532c:	685b      	ldr	r3, [r3, #4]
 800532e:	009b      	lsls	r3, r3, #2
 8005330:	429a      	cmp	r2, r3
 8005332:	d1eb      	bne.n	800530c <HAL_RCC_ClockConfig+0xf8>
      }
    }
  }

  /* Decreasing the number of wait states because of lower CPU frequency */
  if(FLatency < __HAL_FLASH_GET_LATENCY())
 8005334:	4b25      	ldr	r3, [pc, #148]	; (80053cc <HAL_RCC_ClockConfig+0x1b8>)
 8005336:	681b      	ldr	r3, [r3, #0]
 8005338:	f003 030f 	and.w	r3, r3, #15
 800533c:	683a      	ldr	r2, [r7, #0]
 800533e:	429a      	cmp	r2, r3
 8005340:	d20c      	bcs.n	800535c <HAL_RCC_ClockConfig+0x148>
  {
     /* Program the new number of wait states to the LATENCY bits in the FLASH_ACR register */
    __HAL_FLASH_SET_LATENCY(FLatency);
 8005342:	4b22      	ldr	r3, [pc, #136]	; (80053cc <HAL_RCC_ClockConfig+0x1b8>)
 8005344:	683a      	ldr	r2, [r7, #0]
 8005346:	b2d2      	uxtb	r2, r2
 8005348:	701a      	strb	r2, [r3, #0]

    /* Check that the new number of wait states is taken into account to access the Flash
    memory by reading the FLASH_ACR register */
    if(__HAL_FLASH_GET_LATENCY() != FLatency)
 800534a:	4b20      	ldr	r3, [pc, #128]	; (80053cc <HAL_RCC_ClockConfig+0x1b8>)
 800534c:	681b      	ldr	r3, [r3, #0]
 800534e:	f003 030f 	and.w	r3, r3, #15
 8005352:	683a      	ldr	r2, [r7, #0]
 8005354:	429a      	cmp	r2, r3
 8005356:	d001      	beq.n	800535c <HAL_RCC_ClockConfig+0x148>
    {
      return HAL_ERROR;
 8005358:	2301      	movs	r3, #1
 800535a:	e032      	b.n	80053c2 <HAL_RCC_ClockConfig+0x1ae>
    }
  }

  /*-------------------------- PCLK1 Configuration ---------------------------*/
  if(((RCC_ClkInitStruct->ClockType) & RCC_CLOCKTYPE_PCLK1) == RCC_CLOCKTYPE_PCLK1)
 800535c:	687b      	ldr	r3, [r7, #4]
 800535e:	681b      	ldr	r3, [r3, #0]
 8005360:	f003 0304 	and.w	r3, r3, #4
 8005364:	2b00      	cmp	r3, #0
 8005366:	d008      	beq.n	800537a <HAL_RCC_ClockConfig+0x166>
  {
    assert_param(IS_RCC_PCLK(RCC_ClkInitStruct->APB1CLKDivider));
    MODIFY_REG(RCC->CFGR, RCC_CFGR_PPRE1, RCC_ClkInitStruct->APB1CLKDivider);
 8005368:	4b19      	ldr	r3, [pc, #100]	; (80053d0 <HAL_RCC_ClockConfig+0x1bc>)
 800536a:	689b      	ldr	r3, [r3, #8]
 800536c:	f423 52e0 	bic.w	r2, r3, #7168	; 0x1c00
 8005370:	687b      	ldr	r3, [r7, #4]
 8005372:	68db      	ldr	r3, [r3, #12]
 8005374:	4916      	ldr	r1, [pc, #88]	; (80053d0 <HAL_RCC_ClockConfig+0x1bc>)
 8005376:	4313      	orrs	r3, r2
 8005378:	608b      	str	r3, [r1, #8]
  }

  /*-------------------------- PCLK2 Configuration ---------------------------*/
  if(((RCC_ClkInitStruct->ClockType) & RCC_CLOCKTYPE_PCLK2) == RCC_CLOCKTYPE_PCLK2)
 800537a:	687b      	ldr	r3, [r7, #4]
 800537c:	681b      	ldr	r3, [r3, #0]
 800537e:	f003 0308 	and.w	r3, r3, #8
 8005382:	2b00      	cmp	r3, #0
 8005384:	d009      	beq.n	800539a <HAL_RCC_ClockConfig+0x186>
  {
    assert_param(IS_RCC_PCLK(RCC_ClkInitStruct->APB2CLKDivider));
    MODIFY_REG(RCC->CFGR, RCC_CFGR_PPRE2, ((RCC_ClkInitStruct->APB2CLKDivider) << 3U));
 8005386:	4b12      	ldr	r3, [pc, #72]	; (80053d0 <HAL_RCC_ClockConfig+0x1bc>)
 8005388:	689b      	ldr	r3, [r3, #8]
 800538a:	f423 4260 	bic.w	r2, r3, #57344	; 0xe000
 800538e:	687b      	ldr	r3, [r7, #4]
 8005390:	691b      	ldr	r3, [r3, #16]
 8005392:	00db      	lsls	r3, r3, #3
 8005394:	490e      	ldr	r1, [pc, #56]	; (80053d0 <HAL_RCC_ClockConfig+0x1bc>)
 8005396:	4313      	orrs	r3, r2
 8005398:	608b      	str	r3, [r1, #8]
  }

  /* Update the SystemCoreClock global variable */
  SystemCoreClock = HAL_RCC_GetSysClockFreq() >> AHBPrescTable[(RCC->CFGR & RCC_CFGR_HPRE)>> RCC_CFGR_HPRE_Pos];
 800539a:	f000 f821 	bl	80053e0 <HAL_RCC_GetSysClockFreq>
 800539e:	4602      	mov	r2, r0
 80053a0:	4b0b      	ldr	r3, [pc, #44]	; (80053d0 <HAL_RCC_ClockConfig+0x1bc>)
 80053a2:	689b      	ldr	r3, [r3, #8]
 80053a4:	091b      	lsrs	r3, r3, #4
 80053a6:	f003 030f 	and.w	r3, r3, #15
 80053aa:	490a      	ldr	r1, [pc, #40]	; (80053d4 <HAL_RCC_ClockConfig+0x1c0>)
 80053ac:	5ccb      	ldrb	r3, [r1, r3]
 80053ae:	fa22 f303 	lsr.w	r3, r2, r3
 80053b2:	4a09      	ldr	r2, [pc, #36]	; (80053d8 <HAL_RCC_ClockConfig+0x1c4>)
 80053b4:	6013      	str	r3, [r2, #0]

  /* Configure the source of time base considering new system clocks settings */
  HAL_InitTick (uwTickPrio);
 80053b6:	4b09      	ldr	r3, [pc, #36]	; (80053dc <HAL_RCC_ClockConfig+0x1c8>)
 80053b8:	681b      	ldr	r3, [r3, #0]
 80053ba:	4618      	mov	r0, r3
 80053bc:	f7fd fbc0 	bl	8002b40 <HAL_InitTick>

  return HAL_OK;
 80053c0:	2300      	movs	r3, #0
}
 80053c2:	4618      	mov	r0, r3
 80053c4:	3710      	adds	r7, #16
 80053c6:	46bd      	mov	sp, r7
 80053c8:	bd80      	pop	{r7, pc}
 80053ca:	bf00      	nop
 80053cc:	40023c00 	.word	0x40023c00
 80053d0:	40023800 	.word	0x40023800
 80053d4:	08008598 	.word	0x08008598
 80053d8:	2000001c 	.word	0x2000001c
 80053dc:	20000020 	.word	0x20000020

080053e0 <HAL_RCC_GetSysClockFreq>:
  *
  *
  * @retval SYSCLK frequency
  */
__weak uint32_t HAL_RCC_GetSysClockFreq(void)
{
 80053e0:	e92d 4fb0 	stmdb	sp!, {r4, r5, r7, r8, r9, sl, fp, lr}
 80053e4:	b090      	sub	sp, #64	; 0x40
 80053e6:	af00      	add	r7, sp, #0
  uint32_t pllm = 0U, pllvco = 0U, pllp = 0U;
 80053e8:	2300      	movs	r3, #0
 80053ea:	637b      	str	r3, [r7, #52]	; 0x34
 80053ec:	2300      	movs	r3, #0
 80053ee:	63fb      	str	r3, [r7, #60]	; 0x3c
 80053f0:	2300      	movs	r3, #0
 80053f2:	633b      	str	r3, [r7, #48]	; 0x30
  uint32_t sysclockfreq = 0U;
 80053f4:	2300      	movs	r3, #0
 80053f6:	63bb      	str	r3, [r7, #56]	; 0x38

  /* Get SYSCLK source -------------------------------------------------------*/
  switch (RCC->CFGR & RCC_CFGR_SWS)
 80053f8:	4b59      	ldr	r3, [pc, #356]	; (8005560 <HAL_RCC_GetSysClockFreq+0x180>)
 80053fa:	689b      	ldr	r3, [r3, #8]
 80053fc:	f003 030c 	and.w	r3, r3, #12
 8005400:	2b08      	cmp	r3, #8
 8005402:	d00d      	beq.n	8005420 <HAL_RCC_GetSysClockFreq+0x40>
 8005404:	2b08      	cmp	r3, #8
 8005406:	f200 80a1 	bhi.w	800554c <HAL_RCC_GetSysClockFreq+0x16c>
 800540a:	2b00      	cmp	r3, #0
 800540c:	d002      	beq.n	8005414 <HAL_RCC_GetSysClockFreq+0x34>
 800540e:	2b04      	cmp	r3, #4
 8005410:	d003      	beq.n	800541a <HAL_RCC_GetSysClockFreq+0x3a>
 8005412:	e09b      	b.n	800554c <HAL_RCC_GetSysClockFreq+0x16c>
  {
    case RCC_CFGR_SWS_HSI:  /* HSI used as system clock source */
    {
      sysclockfreq = HSI_VALUE;
 8005414:	4b53      	ldr	r3, [pc, #332]	; (8005564 <HAL_RCC_GetSysClockFreq+0x184>)
 8005416:	63bb      	str	r3, [r7, #56]	; 0x38
       break;
 8005418:	e09b      	b.n	8005552 <HAL_RCC_GetSysClockFreq+0x172>
    }
    case RCC_CFGR_SWS_HSE:  /* HSE used as system clock  source */
    {
      sysclockfreq = HSE_VALUE;
 800541a:	4b53      	ldr	r3, [pc, #332]	; (8005568 <HAL_RCC_GetSysClockFreq+0x188>)
 800541c:	63bb      	str	r3, [r7, #56]	; 0x38
      break;
 800541e:	e098      	b.n	8005552 <HAL_RCC_GetSysClockFreq+0x172>
    }
    case RCC_CFGR_SWS_PLL:  /* PLL used as system clock  source */
    {
      /* PLL_VCO = (HSE_VALUE or HSI_VALUE / PLLM) * PLLN
      SYSCLK = PLL_VCO / PLLP */
      pllm = RCC->PLLCFGR & RCC_PLLCFGR_PLLM;
 8005420:	4b4f      	ldr	r3, [pc, #316]	; (8005560 <HAL_RCC_GetSysClockFreq+0x180>)
 8005422:	685b      	ldr	r3, [r3, #4]
 8005424:	f003 033f 	and.w	r3, r3, #63	; 0x3f
 8005428:	637b      	str	r3, [r7, #52]	; 0x34
      if(__HAL_RCC_GET_PLL_OSCSOURCE() != RCC_PLLSOURCE_HSI)
 800542a:	4b4d      	ldr	r3, [pc, #308]	; (8005560 <HAL_RCC_GetSysClockFreq+0x180>)
 800542c:	685b      	ldr	r3, [r3, #4]
 800542e:	f403 0380 	and.w	r3, r3, #4194304	; 0x400000
 8005432:	2b00      	cmp	r3, #0
 8005434:	d028      	beq.n	8005488 <HAL_RCC_GetSysClockFreq+0xa8>
      {
        /* HSE used as PLL clock source */
        pllvco = (uint32_t) ((((uint64_t) HSE_VALUE * ((uint64_t) ((RCC->PLLCFGR & RCC_PLLCFGR_PLLN) >> RCC_PLLCFGR_PLLN_Pos)))) / (uint64_t)pllm);
 8005436:	4b4a      	ldr	r3, [pc, #296]	; (8005560 <HAL_RCC_GetSysClockFreq+0x180>)
 8005438:	685b      	ldr	r3, [r3, #4]
 800543a:	099b      	lsrs	r3, r3, #6
 800543c:	2200      	movs	r2, #0
 800543e:	623b      	str	r3, [r7, #32]
 8005440:	627a      	str	r2, [r7, #36]	; 0x24
 8005442:	6a3b      	ldr	r3, [r7, #32]
 8005444:	f3c3 0008 	ubfx	r0, r3, #0, #9
 8005448:	2100      	movs	r1, #0
 800544a:	4b47      	ldr	r3, [pc, #284]	; (8005568 <HAL_RCC_GetSysClockFreq+0x188>)
 800544c:	fb03 f201 	mul.w	r2, r3, r1
 8005450:	2300      	movs	r3, #0
 8005452:	fb00 f303 	mul.w	r3, r0, r3
 8005456:	4413      	add	r3, r2
 8005458:	4a43      	ldr	r2, [pc, #268]	; (8005568 <HAL_RCC_GetSysClockFreq+0x188>)
 800545a:	fba0 1202 	umull	r1, r2, r0, r2
 800545e:	62fa      	str	r2, [r7, #44]	; 0x2c
 8005460:	460a      	mov	r2, r1
 8005462:	62ba      	str	r2, [r7, #40]	; 0x28
 8005464:	6afa      	ldr	r2, [r7, #44]	; 0x2c
 8005466:	4413      	add	r3, r2
 8005468:	62fb      	str	r3, [r7, #44]	; 0x2c
 800546a:	6b7b      	ldr	r3, [r7, #52]	; 0x34
 800546c:	2200      	movs	r2, #0
 800546e:	61bb      	str	r3, [r7, #24]
 8005470:	61fa      	str	r2, [r7, #28]
 8005472:	e9d7 2306 	ldrd	r2, r3, [r7, #24]
 8005476:	e9d7 010a 	ldrd	r0, r1, [r7, #40]	; 0x28
 800547a:	f7fa febf 	bl	80001fc <__aeabi_uldivmod>
 800547e:	4602      	mov	r2, r0
 8005480:	460b      	mov	r3, r1
 8005482:	4613      	mov	r3, r2
 8005484:	63fb      	str	r3, [r7, #60]	; 0x3c
 8005486:	e053      	b.n	8005530 <HAL_RCC_GetSysClockFreq+0x150>
      }
      else
      {
        /* HSI used as PLL clock source */
        pllvco = (uint32_t) ((((uint64_t) HSI_VALUE * ((uint64_t) ((RCC->PLLCFGR & RCC_PLLCFGR_PLLN) >> RCC_PLLCFGR_PLLN_Pos)))) / (uint64_t)pllm);
 8005488:	4b35      	ldr	r3, [pc, #212]	; (8005560 <HAL_RCC_GetSysClockFreq+0x180>)
 800548a:	685b      	ldr	r3, [r3, #4]
 800548c:	099b      	lsrs	r3, r3, #6
 800548e:	2200      	movs	r2, #0
 8005490:	613b      	str	r3, [r7, #16]
 8005492:	617a      	str	r2, [r7, #20]
 8005494:	693b      	ldr	r3, [r7, #16]
 8005496:	f3c3 0a08 	ubfx	sl, r3, #0, #9
 800549a:	f04f 0b00 	mov.w	fp, #0
 800549e:	4652      	mov	r2, sl
 80054a0:	465b      	mov	r3, fp
 80054a2:	f04f 0000 	mov.w	r0, #0
 80054a6:	f04f 0100 	mov.w	r1, #0
 80054aa:	0159      	lsls	r1, r3, #5
 80054ac:	ea41 61d2 	orr.w	r1, r1, r2, lsr #27
 80054b0:	0150      	lsls	r0, r2, #5
 80054b2:	4602      	mov	r2, r0
 80054b4:	460b      	mov	r3, r1
 80054b6:	ebb2 080a 	subs.w	r8, r2, sl
 80054ba:	eb63 090b 	sbc.w	r9, r3, fp
 80054be:	f04f 0200 	mov.w	r2, #0
 80054c2:	f04f 0300 	mov.w	r3, #0
 80054c6:	ea4f 1389 	mov.w	r3, r9, lsl #6
 80054ca:	ea43 6398 	orr.w	r3, r3, r8, lsr #26
 80054ce:	ea4f 1288 	mov.w	r2, r8, lsl #6
 80054d2:	ebb2 0408 	subs.w	r4, r2, r8
 80054d6:	eb63 0509 	sbc.w	r5, r3, r9
 80054da:	f04f 0200 	mov.w	r2, #0
 80054de:	f04f 0300 	mov.w	r3, #0
 80054e2:	00eb      	lsls	r3, r5, #3
 80054e4:	ea43 7354 	orr.w	r3, r3, r4, lsr #29
 80054e8:	00e2      	lsls	r2, r4, #3
 80054ea:	4614      	mov	r4, r2
 80054ec:	461d      	mov	r5, r3
 80054ee:	eb14 030a 	adds.w	r3, r4, sl
 80054f2:	603b      	str	r3, [r7, #0]
 80054f4:	eb45 030b 	adc.w	r3, r5, fp
 80054f8:	607b      	str	r3, [r7, #4]
 80054fa:	f04f 0200 	mov.w	r2, #0
 80054fe:	f04f 0300 	mov.w	r3, #0
 8005502:	e9d7 4500 	ldrd	r4, r5, [r7]
 8005506:	4629      	mov	r1, r5
 8005508:	028b      	lsls	r3, r1, #10
 800550a:	4621      	mov	r1, r4
 800550c:	ea43 5391 	orr.w	r3, r3, r1, lsr #22
 8005510:	4621      	mov	r1, r4
 8005512:	028a      	lsls	r2, r1, #10
 8005514:	4610      	mov	r0, r2
 8005516:	4619      	mov	r1, r3
 8005518:	6b7b      	ldr	r3, [r7, #52]	; 0x34
 800551a:	2200      	movs	r2, #0
 800551c:	60bb      	str	r3, [r7, #8]
 800551e:	60fa      	str	r2, [r7, #12]
 8005520:	e9d7 2302 	ldrd	r2, r3, [r7, #8]
 8005524:	f7fa fe6a 	bl	80001fc <__aeabi_uldivmod>
 8005528:	4602      	mov	r2, r0
 800552a:	460b      	mov	r3, r1
 800552c:	4613      	mov	r3, r2
 800552e:	63fb      	str	r3, [r7, #60]	; 0x3c
      }
      pllp = ((((RCC->PLLCFGR & RCC_PLLCFGR_PLLP) >> RCC_PLLCFGR_PLLP_Pos) + 1U) *2U);
 8005530:	4b0b      	ldr	r3, [pc, #44]	; (8005560 <HAL_RCC_GetSysClockFreq+0x180>)
 8005532:	685b      	ldr	r3, [r3, #4]
 8005534:	0c1b      	lsrs	r3, r3, #16
 8005536:	f003 0303 	and.w	r3, r3, #3
 800553a:	3301      	adds	r3, #1
 800553c:	005b      	lsls	r3, r3, #1
 800553e:	633b      	str	r3, [r7, #48]	; 0x30

      sysclockfreq = pllvco/pllp;
 8005540:	6bfa      	ldr	r2, [r7, #60]	; 0x3c
 8005542:	6b3b      	ldr	r3, [r7, #48]	; 0x30
 8005544:	fbb2 f3f3 	udiv	r3, r2, r3
 8005548:	63bb      	str	r3, [r7, #56]	; 0x38
      break;
 800554a:	e002      	b.n	8005552 <HAL_RCC_GetSysClockFreq+0x172>
    }
    default:
    {
      sysclockfreq = HSI_VALUE;
 800554c:	4b05      	ldr	r3, [pc, #20]	; (8005564 <HAL_RCC_GetSysClockFreq+0x184>)
 800554e:	63bb      	str	r3, [r7, #56]	; 0x38
      break;
 8005550:	bf00      	nop
    }
  }
  return sysclockfreq;
 8005552:	6bbb      	ldr	r3, [r7, #56]	; 0x38
}
 8005554:	4618      	mov	r0, r3
 8005556:	3740      	adds	r7, #64	; 0x40
 8005558:	46bd      	mov	sp, r7
 800555a:	e8bd 8fb0 	ldmia.w	sp!, {r4, r5, r7, r8, r9, sl, fp, pc}
 800555e:	bf00      	nop
 8005560:	40023800 	.word	0x40023800
 8005564:	00f42400 	.word	0x00f42400
 8005568:	017d7840 	.word	0x017d7840

0800556c <HAL_RCC_GetHCLKFreq>:
  * @note   The SystemCoreClock CMSIS variable is used to store System Clock Frequency
  *         and updated within this function
  * @retval HCLK frequency
  */
uint32_t HAL_RCC_GetHCLKFreq(void)
{
 800556c:	b480      	push	{r7}
 800556e:	af00      	add	r7, sp, #0
  return SystemCoreClock;
 8005570:	4b03      	ldr	r3, [pc, #12]	; (8005580 <HAL_RCC_GetHCLKFreq+0x14>)
 8005572:	681b      	ldr	r3, [r3, #0]
}
 8005574:	4618      	mov	r0, r3
 8005576:	46bd      	mov	sp, r7
 8005578:	f85d 7b04 	ldr.w	r7, [sp], #4
 800557c:	4770      	bx	lr
 800557e:	bf00      	nop
 8005580:	2000001c 	.word	0x2000001c

08005584 <HAL_RCC_GetPCLK1Freq>:
  * @note   Each time PCLK1 changes, this function must be called to update the
  *         right PCLK1 value. Otherwise, any configuration based on this function will be incorrect.
  * @retval PCLK1 frequency
  */
uint32_t HAL_RCC_GetPCLK1Freq(void)
{
 8005584:	b580      	push	{r7, lr}
 8005586:	af00      	add	r7, sp, #0
  /* Get HCLK source and Compute PCLK1 frequency ---------------------------*/
  return (HAL_RCC_GetHCLKFreq() >> APBPrescTable[(RCC->CFGR & RCC_CFGR_PPRE1)>> RCC_CFGR_PPRE1_Pos]);
 8005588:	f7ff fff0 	bl	800556c <HAL_RCC_GetHCLKFreq>
 800558c:	4602      	mov	r2, r0
 800558e:	4b05      	ldr	r3, [pc, #20]	; (80055a4 <HAL_RCC_GetPCLK1Freq+0x20>)
 8005590:	689b      	ldr	r3, [r3, #8]
 8005592:	0a9b      	lsrs	r3, r3, #10
 8005594:	f003 0307 	and.w	r3, r3, #7
 8005598:	4903      	ldr	r1, [pc, #12]	; (80055a8 <HAL_RCC_GetPCLK1Freq+0x24>)
 800559a:	5ccb      	ldrb	r3, [r1, r3]
 800559c:	fa22 f303 	lsr.w	r3, r2, r3
}
 80055a0:	4618      	mov	r0, r3
 80055a2:	bd80      	pop	{r7, pc}
 80055a4:	40023800 	.word	0x40023800
 80055a8:	080085a8 	.word	0x080085a8

080055ac <HAL_RCC_GetPCLK2Freq>:
  * @note   Each time PCLK2 changes, this function must be called to update the
  *         right PCLK2 value. Otherwise, any configuration based on this function will be incorrect.
  * @retval PCLK2 frequency
  */
uint32_t HAL_RCC_GetPCLK2Freq(void)
{
 80055ac:	b580      	push	{r7, lr}
 80055ae:	af00      	add	r7, sp, #0
  /* Get HCLK source and Compute PCLK2 frequency ---------------------------*/
  return (HAL_RCC_GetHCLKFreq()>> APBPrescTable[(RCC->CFGR & RCC_CFGR_PPRE2)>> RCC_CFGR_PPRE2_Pos]);
 80055b0:	f7ff ffdc 	bl	800556c <HAL_RCC_GetHCLKFreq>
 80055b4:	4602      	mov	r2, r0
 80055b6:	4b05      	ldr	r3, [pc, #20]	; (80055cc <HAL_RCC_GetPCLK2Freq+0x20>)
 80055b8:	689b      	ldr	r3, [r3, #8]
 80055ba:	0b5b      	lsrs	r3, r3, #13
 80055bc:	f003 0307 	and.w	r3, r3, #7
 80055c0:	4903      	ldr	r1, [pc, #12]	; (80055d0 <HAL_RCC_GetPCLK2Freq+0x24>)
 80055c2:	5ccb      	ldrb	r3, [r1, r3]
 80055c4:	fa22 f303 	lsr.w	r3, r2, r3
}
 80055c8:	4618      	mov	r0, r3
 80055ca:	bd80      	pop	{r7, pc}
 80055cc:	40023800 	.word	0x40023800
 80055d0:	080085a8 	.word	0x080085a8

080055d4 <HAL_RCCEx_PeriphCLKConfig>:
  *         the backup registers) and RCC_BDCR register are set to their reset values.
  *
  * @retval HAL status
  */
HAL_StatusTypeDef HAL_RCCEx_PeriphCLKConfig(RCC_PeriphCLKInitTypeDef  *PeriphClkInit)
{
 80055d4:	b580      	push	{r7, lr}
 80055d6:	b086      	sub	sp, #24
 80055d8:	af00      	add	r7, sp, #0
 80055da:	6078      	str	r0, [r7, #4]
  uint32_t tickstart = 0U;
 80055dc:	2300      	movs	r3, #0
 80055de:	617b      	str	r3, [r7, #20]
  uint32_t tmpreg1 = 0U;
 80055e0:	2300      	movs	r3, #0
 80055e2:	613b      	str	r3, [r7, #16]

  /*----------------------- SAI/I2S Configuration (PLLI2S) -------------------*/
  /*----------------------- Common configuration SAI/I2S ---------------------*/
  /* In Case of SAI or I2S Clock Configuration through PLLI2S, PLLI2SN division
     factor is common parameters for both peripherals */
  if((((PeriphClkInit->PeriphClockSelection) & RCC_PERIPHCLK_I2S) == RCC_PERIPHCLK_I2S) ||
 80055e4:	687b      	ldr	r3, [r7, #4]
 80055e6:	681b      	ldr	r3, [r3, #0]
 80055e8:	f003 0301 	and.w	r3, r3, #1
 80055ec:	2b00      	cmp	r3, #0
 80055ee:	d10b      	bne.n	8005608 <HAL_RCCEx_PeriphCLKConfig+0x34>
     (((PeriphClkInit->PeriphClockSelection) & RCC_PERIPHCLK_SAI_PLLI2S) == RCC_PERIPHCLK_SAI_PLLI2S) ||
 80055f0:	687b      	ldr	r3, [r7, #4]
 80055f2:	681b      	ldr	r3, [r3, #0]
 80055f4:	f003 0302 	and.w	r3, r3, #2
  if((((PeriphClkInit->PeriphClockSelection) & RCC_PERIPHCLK_I2S) == RCC_PERIPHCLK_I2S) ||
 80055f8:	2b00      	cmp	r3, #0
 80055fa:	d105      	bne.n	8005608 <HAL_RCCEx_PeriphCLKConfig+0x34>
     (((PeriphClkInit->PeriphClockSelection) & RCC_PERIPHCLK_PLLI2S) == RCC_PERIPHCLK_PLLI2S))
 80055fc:	687b      	ldr	r3, [r7, #4]
 80055fe:	681b      	ldr	r3, [r3, #0]
 8005600:	f003 0340 	and.w	r3, r3, #64	; 0x40
     (((PeriphClkInit->PeriphClockSelection) & RCC_PERIPHCLK_SAI_PLLI2S) == RCC_PERIPHCLK_SAI_PLLI2S) ||
 8005604:	2b00      	cmp	r3, #0
 8005606:	d075      	beq.n	80056f4 <HAL_RCCEx_PeriphCLKConfig+0x120>
  {
    /* check for Parameters */
    assert_param(IS_RCC_PLLI2SN_VALUE(PeriphClkInit->PLLI2S.PLLI2SN));

    /* Disable the PLLI2S */
    __HAL_RCC_PLLI2S_DISABLE();
 8005608:	4b91      	ldr	r3, [pc, #580]	; (8005850 <HAL_RCCEx_PeriphCLKConfig+0x27c>)
 800560a:	2200      	movs	r2, #0
 800560c:	601a      	str	r2, [r3, #0]
    /* Get tick */
    tickstart = HAL_GetTick();
 800560e:	f7fd fadb 	bl	8002bc8 <HAL_GetTick>
 8005612:	6178      	str	r0, [r7, #20]
    /* Wait till PLLI2S is disabled */
    while(__HAL_RCC_GET_FLAG(RCC_FLAG_PLLI2SRDY)  != RESET)
 8005614:	e008      	b.n	8005628 <HAL_RCCEx_PeriphCLKConfig+0x54>
    {
      if((HAL_GetTick() - tickstart ) > PLLI2S_TIMEOUT_VALUE)
 8005616:	f7fd fad7 	bl	8002bc8 <HAL_GetTick>
 800561a:	4602      	mov	r2, r0
 800561c:	697b      	ldr	r3, [r7, #20]
 800561e:	1ad3      	subs	r3, r2, r3
 8005620:	2b02      	cmp	r3, #2
 8005622:	d901      	bls.n	8005628 <HAL_RCCEx_PeriphCLKConfig+0x54>
      {
        /* return in case of Timeout detected */
        return HAL_TIMEOUT;
 8005624:	2303      	movs	r3, #3
 8005626:	e189      	b.n	800593c <HAL_RCCEx_PeriphCLKConfig+0x368>
    while(__HAL_RCC_GET_FLAG(RCC_FLAG_PLLI2SRDY)  != RESET)
 8005628:	4b8a      	ldr	r3, [pc, #552]	; (8005854 <HAL_RCCEx_PeriphCLKConfig+0x280>)
 800562a:	681b      	ldr	r3, [r3, #0]
 800562c:	f003 6300 	and.w	r3, r3, #134217728	; 0x8000000
 8005630:	2b00      	cmp	r3, #0
 8005632:	d1f0      	bne.n	8005616 <HAL_RCCEx_PeriphCLKConfig+0x42>
    }

    /*---------------------------- I2S configuration -------------------------*/
    /* In Case of I2S Clock Configuration through PLLI2S, PLLI2SR must be added
      only for I2S configuration */
    if(((PeriphClkInit->PeriphClockSelection) & RCC_PERIPHCLK_I2S) == (RCC_PERIPHCLK_I2S))
 8005634:	687b      	ldr	r3, [r7, #4]
 8005636:	681b      	ldr	r3, [r3, #0]
 8005638:	f003 0301 	and.w	r3, r3, #1
 800563c:	2b00      	cmp	r3, #0
 800563e:	d009      	beq.n	8005654 <HAL_RCCEx_PeriphCLKConfig+0x80>
      /* check for Parameters */
      assert_param(IS_RCC_PLLI2SR_VALUE(PeriphClkInit->PLLI2S.PLLI2SR));
      /* Configure the PLLI2S division factors */
      /* PLLI2S_VCO = f(VCO clock) = f(PLLI2S clock input) * (PLLI2SN/PLLM) */
      /* I2SCLK = f(PLLI2S clock output) = f(VCO clock) / PLLI2SR */
      __HAL_RCC_PLLI2S_CONFIG(PeriphClkInit->PLLI2S.PLLI2SN , PeriphClkInit->PLLI2S.PLLI2SR);
 8005640:	687b      	ldr	r3, [r7, #4]
 8005642:	685b      	ldr	r3, [r3, #4]
 8005644:	019a      	lsls	r2, r3, #6
 8005646:	687b      	ldr	r3, [r7, #4]
 8005648:	689b      	ldr	r3, [r3, #8]
 800564a:	071b      	lsls	r3, r3, #28
 800564c:	4981      	ldr	r1, [pc, #516]	; (8005854 <HAL_RCCEx_PeriphCLKConfig+0x280>)
 800564e:	4313      	orrs	r3, r2
 8005650:	f8c1 3084 	str.w	r3, [r1, #132]	; 0x84
    }

    /*---------------------------- SAI configuration -------------------------*/
    /* In Case of SAI Clock Configuration through PLLI2S, PLLI2SQ and PLLI2S_DIVQ must
       be added only for SAI configuration */
    if(((PeriphClkInit->PeriphClockSelection) & RCC_PERIPHCLK_SAI_PLLI2S) == (RCC_PERIPHCLK_SAI_PLLI2S))
 8005654:	687b      	ldr	r3, [r7, #4]
 8005656:	681b      	ldr	r3, [r3, #0]
 8005658:	f003 0302 	and.w	r3, r3, #2
 800565c:	2b00      	cmp	r3, #0
 800565e:	d01f      	beq.n	80056a0 <HAL_RCCEx_PeriphCLKConfig+0xcc>
      /* Check the PLLI2S division factors */
      assert_param(IS_RCC_PLLI2SQ_VALUE(PeriphClkInit->PLLI2S.PLLI2SQ));
      assert_param(IS_RCC_PLLI2S_DIVQ_VALUE(PeriphClkInit->PLLI2SDivQ));

      /* Read PLLI2SR value from PLLI2SCFGR register (this value is not need for SAI configuration) */
      tmpreg1 = ((RCC->PLLI2SCFGR & RCC_PLLI2SCFGR_PLLI2SR) >> RCC_PLLI2SCFGR_PLLI2SR_Pos);
 8005660:	4b7c      	ldr	r3, [pc, #496]	; (8005854 <HAL_RCCEx_PeriphCLKConfig+0x280>)
 8005662:	f8d3 3084 	ldr.w	r3, [r3, #132]	; 0x84
 8005666:	0f1b      	lsrs	r3, r3, #28
 8005668:	f003 0307 	and.w	r3, r3, #7
 800566c:	613b      	str	r3, [r7, #16]
      /* Configure the PLLI2S division factors */
      /* PLLI2S_VCO Input  = PLL_SOURCE/PLLM */
      /* PLLI2S_VCO Output = PLLI2S_VCO Input * PLLI2SN */
      /* SAI_CLK(first level) = PLLI2S_VCO Output/PLLI2SQ */
      __HAL_RCC_PLLI2S_SAICLK_CONFIG(PeriphClkInit->PLLI2S.PLLI2SN , PeriphClkInit->PLLI2S.PLLI2SQ , tmpreg1);
 800566e:	687b      	ldr	r3, [r7, #4]
 8005670:	685b      	ldr	r3, [r3, #4]
 8005672:	019a      	lsls	r2, r3, #6
 8005674:	687b      	ldr	r3, [r7, #4]
 8005676:	68db      	ldr	r3, [r3, #12]
 8005678:	061b      	lsls	r3, r3, #24
 800567a:	431a      	orrs	r2, r3
 800567c:	693b      	ldr	r3, [r7, #16]
 800567e:	071b      	lsls	r3, r3, #28
 8005680:	4974      	ldr	r1, [pc, #464]	; (8005854 <HAL_RCCEx_PeriphCLKConfig+0x280>)
 8005682:	4313      	orrs	r3, r2
 8005684:	f8c1 3084 	str.w	r3, [r1, #132]	; 0x84
      /* SAI_CLK_x = SAI_CLK(first level)/PLLI2SDIVQ */
      __HAL_RCC_PLLI2S_PLLSAICLKDIVQ_CONFIG(PeriphClkInit->PLLI2SDivQ);
 8005688:	4b72      	ldr	r3, [pc, #456]	; (8005854 <HAL_RCCEx_PeriphCLKConfig+0x280>)
 800568a:	f8d3 308c 	ldr.w	r3, [r3, #140]	; 0x8c
 800568e:	f023 021f 	bic.w	r2, r3, #31
 8005692:	687b      	ldr	r3, [r7, #4]
 8005694:	69db      	ldr	r3, [r3, #28]
 8005696:	3b01      	subs	r3, #1
 8005698:	496e      	ldr	r1, [pc, #440]	; (8005854 <HAL_RCCEx_PeriphCLKConfig+0x280>)
 800569a:	4313      	orrs	r3, r2
 800569c:	f8c1 308c 	str.w	r3, [r1, #140]	; 0x8c
    }

    /*----------------- In Case of PLLI2S is just selected  -----------------*/
    if((PeriphClkInit->PeriphClockSelection & RCC_PERIPHCLK_PLLI2S) == RCC_PERIPHCLK_PLLI2S)
 80056a0:	687b      	ldr	r3, [r7, #4]
 80056a2:	681b      	ldr	r3, [r3, #0]
 80056a4:	f003 0340 	and.w	r3, r3, #64	; 0x40
 80056a8:	2b00      	cmp	r3, #0
 80056aa:	d00d      	beq.n	80056c8 <HAL_RCCEx_PeriphCLKConfig+0xf4>
      /* Check for Parameters */
      assert_param(IS_RCC_PLLI2SQ_VALUE(PeriphClkInit->PLLI2S.PLLI2SQ));
      assert_param(IS_RCC_PLLI2SR_VALUE(PeriphClkInit->PLLI2S.PLLI2SR));

      /* Configure the PLLI2S multiplication and division factors */
      __HAL_RCC_PLLI2S_SAICLK_CONFIG(PeriphClkInit->PLLI2S.PLLI2SN, PeriphClkInit->PLLI2S.PLLI2SQ, PeriphClkInit->PLLI2S.PLLI2SR);
 80056ac:	687b      	ldr	r3, [r7, #4]
 80056ae:	685b      	ldr	r3, [r3, #4]
 80056b0:	019a      	lsls	r2, r3, #6
 80056b2:	687b      	ldr	r3, [r7, #4]
 80056b4:	68db      	ldr	r3, [r3, #12]
 80056b6:	061b      	lsls	r3, r3, #24
 80056b8:	431a      	orrs	r2, r3
 80056ba:	687b      	ldr	r3, [r7, #4]
 80056bc:	689b      	ldr	r3, [r3, #8]
 80056be:	071b      	lsls	r3, r3, #28
 80056c0:	4964      	ldr	r1, [pc, #400]	; (8005854 <HAL_RCCEx_PeriphCLKConfig+0x280>)
 80056c2:	4313      	orrs	r3, r2
 80056c4:	f8c1 3084 	str.w	r3, [r1, #132]	; 0x84
    }

    /* Enable the PLLI2S */
    __HAL_RCC_PLLI2S_ENABLE();
 80056c8:	4b61      	ldr	r3, [pc, #388]	; (8005850 <HAL_RCCEx_PeriphCLKConfig+0x27c>)
 80056ca:	2201      	movs	r2, #1
 80056cc:	601a      	str	r2, [r3, #0]
    /* Get tick */
    tickstart = HAL_GetTick();
 80056ce:	f7fd fa7b 	bl	8002bc8 <HAL_GetTick>
 80056d2:	6178      	str	r0, [r7, #20]
    /* Wait till PLLI2S is ready */
    while(__HAL_RCC_GET_FLAG(RCC_FLAG_PLLI2SRDY)  == RESET)
 80056d4:	e008      	b.n	80056e8 <HAL_RCCEx_PeriphCLKConfig+0x114>
    {
      if((HAL_GetTick() - tickstart ) > PLLI2S_TIMEOUT_VALUE)
 80056d6:	f7fd fa77 	bl	8002bc8 <HAL_GetTick>
 80056da:	4602      	mov	r2, r0
 80056dc:	697b      	ldr	r3, [r7, #20]
 80056de:	1ad3      	subs	r3, r2, r3
 80056e0:	2b02      	cmp	r3, #2
 80056e2:	d901      	bls.n	80056e8 <HAL_RCCEx_PeriphCLKConfig+0x114>
      {
        /* return in case of Timeout detected */
        return HAL_TIMEOUT;
 80056e4:	2303      	movs	r3, #3
 80056e6:	e129      	b.n	800593c <HAL_RCCEx_PeriphCLKConfig+0x368>
    while(__HAL_RCC_GET_FLAG(RCC_FLAG_PLLI2SRDY)  == RESET)
 80056e8:	4b5a      	ldr	r3, [pc, #360]	; (8005854 <HAL_RCCEx_PeriphCLKConfig+0x280>)
 80056ea:	681b      	ldr	r3, [r3, #0]
 80056ec:	f003 6300 	and.w	r3, r3, #134217728	; 0x8000000
 80056f0:	2b00      	cmp	r3, #0
 80056f2:	d0f0      	beq.n	80056d6 <HAL_RCCEx_PeriphCLKConfig+0x102>

  /*----------------------- SAI/LTDC Configuration (PLLSAI) ------------------*/
  /*----------------------- Common configuration SAI/LTDC --------------------*/
  /* In Case of SAI or LTDC Clock Configuration through PLLSAI, PLLSAIN division
     factor is common parameters for both peripherals */
  if((((PeriphClkInit->PeriphClockSelection) & RCC_PERIPHCLK_SAI_PLLSAI) == RCC_PERIPHCLK_SAI_PLLSAI) ||
 80056f4:	687b      	ldr	r3, [r7, #4]
 80056f6:	681b      	ldr	r3, [r3, #0]
 80056f8:	f003 0304 	and.w	r3, r3, #4
 80056fc:	2b00      	cmp	r3, #0
 80056fe:	d105      	bne.n	800570c <HAL_RCCEx_PeriphCLKConfig+0x138>
     (((PeriphClkInit->PeriphClockSelection) & RCC_PERIPHCLK_LTDC) == RCC_PERIPHCLK_LTDC))
 8005700:	687b      	ldr	r3, [r7, #4]
 8005702:	681b      	ldr	r3, [r3, #0]
 8005704:	f003 0308 	and.w	r3, r3, #8
  if((((PeriphClkInit->PeriphClockSelection) & RCC_PERIPHCLK_SAI_PLLSAI) == RCC_PERIPHCLK_SAI_PLLSAI) ||
 8005708:	2b00      	cmp	r3, #0
 800570a:	d079      	beq.n	8005800 <HAL_RCCEx_PeriphCLKConfig+0x22c>
  {
    /* Check the PLLSAI division factors */
    assert_param(IS_RCC_PLLSAIN_VALUE(PeriphClkInit->PLLSAI.PLLSAIN));

    /* Disable PLLSAI Clock */
    __HAL_RCC_PLLSAI_DISABLE();
 800570c:	4b52      	ldr	r3, [pc, #328]	; (8005858 <HAL_RCCEx_PeriphCLKConfig+0x284>)
 800570e:	2200      	movs	r2, #0
 8005710:	601a      	str	r2, [r3, #0]
    /* Get tick */
    tickstart = HAL_GetTick();
 8005712:	f7fd fa59 	bl	8002bc8 <HAL_GetTick>
 8005716:	6178      	str	r0, [r7, #20]
    /* Wait till PLLSAI is disabled */
    while(__HAL_RCC_PLLSAI_GET_FLAG() != RESET)
 8005718:	e008      	b.n	800572c <HAL_RCCEx_PeriphCLKConfig+0x158>
    {
      if((HAL_GetTick() - tickstart ) > PLLSAI_TIMEOUT_VALUE)
 800571a:	f7fd fa55 	bl	8002bc8 <HAL_GetTick>
 800571e:	4602      	mov	r2, r0
 8005720:	697b      	ldr	r3, [r7, #20]
 8005722:	1ad3      	subs	r3, r2, r3
 8005724:	2b02      	cmp	r3, #2
 8005726:	d901      	bls.n	800572c <HAL_RCCEx_PeriphCLKConfig+0x158>
      {
        /* return in case of Timeout detected */
        return HAL_TIMEOUT;
 8005728:	2303      	movs	r3, #3
 800572a:	e107      	b.n	800593c <HAL_RCCEx_PeriphCLKConfig+0x368>
    while(__HAL_RCC_PLLSAI_GET_FLAG() != RESET)
 800572c:	4b49      	ldr	r3, [pc, #292]	; (8005854 <HAL_RCCEx_PeriphCLKConfig+0x280>)
 800572e:	681b      	ldr	r3, [r3, #0]
 8005730:	f003 5300 	and.w	r3, r3, #536870912	; 0x20000000
 8005734:	f1b3 5f00 	cmp.w	r3, #536870912	; 0x20000000
 8005738:	d0ef      	beq.n	800571a <HAL_RCCEx_PeriphCLKConfig+0x146>
    }

    /*---------------------------- SAI configuration -------------------------*/
    /* In Case of SAI Clock Configuration through PLLSAI, PLLSAIQ and PLLSAI_DIVQ must
       be added only for SAI configuration */
    if(((PeriphClkInit->PeriphClockSelection) & RCC_PERIPHCLK_SAI_PLLSAI) == (RCC_PERIPHCLK_SAI_PLLSAI))
 800573a:	687b      	ldr	r3, [r7, #4]
 800573c:	681b      	ldr	r3, [r3, #0]
 800573e:	f003 0304 	and.w	r3, r3, #4
 8005742:	2b00      	cmp	r3, #0
 8005744:	d020      	beq.n	8005788 <HAL_RCCEx_PeriphCLKConfig+0x1b4>
    {
      assert_param(IS_RCC_PLLSAIQ_VALUE(PeriphClkInit->PLLSAI.PLLSAIQ));
      assert_param(IS_RCC_PLLSAI_DIVQ_VALUE(PeriphClkInit->PLLSAIDivQ));

      /* Read PLLSAIR value from PLLSAICFGR register (this value is not need for SAI configuration) */
      tmpreg1 = ((RCC->PLLSAICFGR & RCC_PLLSAICFGR_PLLSAIR) >> RCC_PLLSAICFGR_PLLSAIR_Pos);
 8005746:	4b43      	ldr	r3, [pc, #268]	; (8005854 <HAL_RCCEx_PeriphCLKConfig+0x280>)
 8005748:	f8d3 3088 	ldr.w	r3, [r3, #136]	; 0x88
 800574c:	0f1b      	lsrs	r3, r3, #28
 800574e:	f003 0307 	and.w	r3, r3, #7
 8005752:	613b      	str	r3, [r7, #16]
      /* PLLSAI_VCO Input  = PLL_SOURCE/PLLM */
      /* PLLSAI_VCO Output = PLLSAI_VCO Input * PLLSAIN */
      /* SAI_CLK(first level) = PLLSAI_VCO Output/PLLSAIQ */
      __HAL_RCC_PLLSAI_CONFIG(PeriphClkInit->PLLSAI.PLLSAIN , PeriphClkInit->PLLSAI.PLLSAIQ, tmpreg1);
 8005754:	687b      	ldr	r3, [r7, #4]
 8005756:	691b      	ldr	r3, [r3, #16]
 8005758:	019a      	lsls	r2, r3, #6
 800575a:	687b      	ldr	r3, [r7, #4]
 800575c:	695b      	ldr	r3, [r3, #20]
 800575e:	061b      	lsls	r3, r3, #24
 8005760:	431a      	orrs	r2, r3
 8005762:	693b      	ldr	r3, [r7, #16]
 8005764:	071b      	lsls	r3, r3, #28
 8005766:	493b      	ldr	r1, [pc, #236]	; (8005854 <HAL_RCCEx_PeriphCLKConfig+0x280>)
 8005768:	4313      	orrs	r3, r2
 800576a:	f8c1 3088 	str.w	r3, [r1, #136]	; 0x88
      /* SAI_CLK_x = SAI_CLK(first level)/PLLSAIDIVQ */
      __HAL_RCC_PLLSAI_PLLSAICLKDIVQ_CONFIG(PeriphClkInit->PLLSAIDivQ);
 800576e:	4b39      	ldr	r3, [pc, #228]	; (8005854 <HAL_RCCEx_PeriphCLKConfig+0x280>)
 8005770:	f8d3 308c 	ldr.w	r3, [r3, #140]	; 0x8c
 8005774:	f423 52f8 	bic.w	r2, r3, #7936	; 0x1f00
 8005778:	687b      	ldr	r3, [r7, #4]
 800577a:	6a1b      	ldr	r3, [r3, #32]
 800577c:	3b01      	subs	r3, #1
 800577e:	021b      	lsls	r3, r3, #8
 8005780:	4934      	ldr	r1, [pc, #208]	; (8005854 <HAL_RCCEx_PeriphCLKConfig+0x280>)
 8005782:	4313      	orrs	r3, r2
 8005784:	f8c1 308c 	str.w	r3, [r1, #140]	; 0x8c
    }

    /*---------------------------- LTDC configuration ------------------------*/
    if(((PeriphClkInit->PeriphClockSelection) & RCC_PERIPHCLK_LTDC) == (RCC_PERIPHCLK_LTDC))
 8005788:	687b      	ldr	r3, [r7, #4]
 800578a:	681b      	ldr	r3, [r3, #0]
 800578c:	f003 0308 	and.w	r3, r3, #8
 8005790:	2b00      	cmp	r3, #0
 8005792:	d01e      	beq.n	80057d2 <HAL_RCCEx_PeriphCLKConfig+0x1fe>
    {
      assert_param(IS_RCC_PLLSAIR_VALUE(PeriphClkInit->PLLSAI.PLLSAIR));
      assert_param(IS_RCC_PLLSAI_DIVR_VALUE(PeriphClkInit->PLLSAIDivR));

      /* Read PLLSAIR value from PLLSAICFGR register (this value is not need for SAI configuration) */
      tmpreg1 = ((RCC->PLLSAICFGR & RCC_PLLSAICFGR_PLLSAIQ) >> RCC_PLLSAICFGR_PLLSAIQ_Pos);
 8005794:	4b2f      	ldr	r3, [pc, #188]	; (8005854 <HAL_RCCEx_PeriphCLKConfig+0x280>)
 8005796:	f8d3 3088 	ldr.w	r3, [r3, #136]	; 0x88
 800579a:	0e1b      	lsrs	r3, r3, #24
 800579c:	f003 030f 	and.w	r3, r3, #15
 80057a0:	613b      	str	r3, [r7, #16]
      /* PLLSAI_VCO Input  = PLL_SOURCE/PLLM */
      /* PLLSAI_VCO Output = PLLSAI_VCO Input * PLLSAIN */
      /* LTDC_CLK(first level) = PLLSAI_VCO Output/PLLSAIR */
      __HAL_RCC_PLLSAI_CONFIG(PeriphClkInit->PLLSAI.PLLSAIN , tmpreg1, PeriphClkInit->PLLSAI.PLLSAIR);
 80057a2:	687b      	ldr	r3, [r7, #4]
 80057a4:	691b      	ldr	r3, [r3, #16]
 80057a6:	019a      	lsls	r2, r3, #6
 80057a8:	693b      	ldr	r3, [r7, #16]
 80057aa:	061b      	lsls	r3, r3, #24
 80057ac:	431a      	orrs	r2, r3
 80057ae:	687b      	ldr	r3, [r7, #4]
 80057b0:	699b      	ldr	r3, [r3, #24]
 80057b2:	071b      	lsls	r3, r3, #28
 80057b4:	4927      	ldr	r1, [pc, #156]	; (8005854 <HAL_RCCEx_PeriphCLKConfig+0x280>)
 80057b6:	4313      	orrs	r3, r2
 80057b8:	f8c1 3088 	str.w	r3, [r1, #136]	; 0x88
      /* LTDC_CLK = LTDC_CLK(first level)/PLLSAIDIVR */
      __HAL_RCC_PLLSAI_PLLSAICLKDIVR_CONFIG(PeriphClkInit->PLLSAIDivR);
 80057bc:	4b25      	ldr	r3, [pc, #148]	; (8005854 <HAL_RCCEx_PeriphCLKConfig+0x280>)
 80057be:	f8d3 308c 	ldr.w	r3, [r3, #140]	; 0x8c
 80057c2:	f423 3240 	bic.w	r2, r3, #196608	; 0x30000
 80057c6:	687b      	ldr	r3, [r7, #4]
 80057c8:	6a5b      	ldr	r3, [r3, #36]	; 0x24
 80057ca:	4922      	ldr	r1, [pc, #136]	; (8005854 <HAL_RCCEx_PeriphCLKConfig+0x280>)
 80057cc:	4313      	orrs	r3, r2
 80057ce:	f8c1 308c 	str.w	r3, [r1, #140]	; 0x8c
    }
    /* Enable PLLSAI Clock */
    __HAL_RCC_PLLSAI_ENABLE();
 80057d2:	4b21      	ldr	r3, [pc, #132]	; (8005858 <HAL_RCCEx_PeriphCLKConfig+0x284>)
 80057d4:	2201      	movs	r2, #1
 80057d6:	601a      	str	r2, [r3, #0]
    /* Get tick */
    tickstart = HAL_GetTick();
 80057d8:	f7fd f9f6 	bl	8002bc8 <HAL_GetTick>
 80057dc:	6178      	str	r0, [r7, #20]
    /* Wait till PLLSAI is ready */
    while(__HAL_RCC_PLLSAI_GET_FLAG() == RESET)
 80057de:	e008      	b.n	80057f2 <HAL_RCCEx_PeriphCLKConfig+0x21e>
    {
      if((HAL_GetTick() - tickstart ) > PLLSAI_TIMEOUT_VALUE)
 80057e0:	f7fd f9f2 	bl	8002bc8 <HAL_GetTick>
 80057e4:	4602      	mov	r2, r0
 80057e6:	697b      	ldr	r3, [r7, #20]
 80057e8:	1ad3      	subs	r3, r2, r3
 80057ea:	2b02      	cmp	r3, #2
 80057ec:	d901      	bls.n	80057f2 <HAL_RCCEx_PeriphCLKConfig+0x21e>
      {
        /* return in case of Timeout detected */
        return HAL_TIMEOUT;
 80057ee:	2303      	movs	r3, #3
 80057f0:	e0a4      	b.n	800593c <HAL_RCCEx_PeriphCLKConfig+0x368>
    while(__HAL_RCC_PLLSAI_GET_FLAG() == RESET)
 80057f2:	4b18      	ldr	r3, [pc, #96]	; (8005854 <HAL_RCCEx_PeriphCLKConfig+0x280>)
 80057f4:	681b      	ldr	r3, [r3, #0]
 80057f6:	f003 5300 	and.w	r3, r3, #536870912	; 0x20000000
 80057fa:	f1b3 5f00 	cmp.w	r3, #536870912	; 0x20000000
 80057fe:	d1ef      	bne.n	80057e0 <HAL_RCCEx_PeriphCLKConfig+0x20c>
    }
  }
  /*--------------------------------------------------------------------------*/

  /*---------------------------- RTC configuration ---------------------------*/
  if(((PeriphClkInit->PeriphClockSelection) & RCC_PERIPHCLK_RTC) == (RCC_PERIPHCLK_RTC))
 8005800:	687b      	ldr	r3, [r7, #4]
 8005802:	681b      	ldr	r3, [r3, #0]
 8005804:	f003 0320 	and.w	r3, r3, #32
 8005808:	2b00      	cmp	r3, #0
 800580a:	f000 808b 	beq.w	8005924 <HAL_RCCEx_PeriphCLKConfig+0x350>
  {
    /* Check for RTC Parameters used to output RTCCLK */
    assert_param(IS_RCC_RTCCLKSOURCE(PeriphClkInit->RTCClockSelection));

    /* Enable Power Clock*/
    __HAL_RCC_PWR_CLK_ENABLE();
 800580e:	2300      	movs	r3, #0
 8005810:	60fb      	str	r3, [r7, #12]
 8005812:	4b10      	ldr	r3, [pc, #64]	; (8005854 <HAL_RCCEx_PeriphCLKConfig+0x280>)
 8005814:	6c1b      	ldr	r3, [r3, #64]	; 0x40
 8005816:	4a0f      	ldr	r2, [pc, #60]	; (8005854 <HAL_RCCEx_PeriphCLKConfig+0x280>)
 8005818:	f043 5380 	orr.w	r3, r3, #268435456	; 0x10000000
 800581c:	6413      	str	r3, [r2, #64]	; 0x40
 800581e:	4b0d      	ldr	r3, [pc, #52]	; (8005854 <HAL_RCCEx_PeriphCLKConfig+0x280>)
 8005820:	6c1b      	ldr	r3, [r3, #64]	; 0x40
 8005822:	f003 5380 	and.w	r3, r3, #268435456	; 0x10000000
 8005826:	60fb      	str	r3, [r7, #12]
 8005828:	68fb      	ldr	r3, [r7, #12]

    /* Enable write access to Backup domain */
    PWR->CR |= PWR_CR_DBP;
 800582a:	4b0c      	ldr	r3, [pc, #48]	; (800585c <HAL_RCCEx_PeriphCLKConfig+0x288>)
 800582c:	681b      	ldr	r3, [r3, #0]
 800582e:	4a0b      	ldr	r2, [pc, #44]	; (800585c <HAL_RCCEx_PeriphCLKConfig+0x288>)
 8005830:	f443 7380 	orr.w	r3, r3, #256	; 0x100
 8005834:	6013      	str	r3, [r2, #0]

    /* Get tick */
    tickstart = HAL_GetTick();
 8005836:	f7fd f9c7 	bl	8002bc8 <HAL_GetTick>
 800583a:	6178      	str	r0, [r7, #20]

    while((PWR->CR & PWR_CR_DBP) == RESET)
 800583c:	e010      	b.n	8005860 <HAL_RCCEx_PeriphCLKConfig+0x28c>
    {
      if((HAL_GetTick() - tickstart ) > RCC_DBP_TIMEOUT_VALUE)
 800583e:	f7fd f9c3 	bl	8002bc8 <HAL_GetTick>
 8005842:	4602      	mov	r2, r0
 8005844:	697b      	ldr	r3, [r7, #20]
 8005846:	1ad3      	subs	r3, r2, r3
 8005848:	2b02      	cmp	r3, #2
 800584a:	d909      	bls.n	8005860 <HAL_RCCEx_PeriphCLKConfig+0x28c>
      {
        return HAL_TIMEOUT;
 800584c:	2303      	movs	r3, #3
 800584e:	e075      	b.n	800593c <HAL_RCCEx_PeriphCLKConfig+0x368>
 8005850:	42470068 	.word	0x42470068
 8005854:	40023800 	.word	0x40023800
 8005858:	42470070 	.word	0x42470070
 800585c:	40007000 	.word	0x40007000
    while((PWR->CR & PWR_CR_DBP) == RESET)
 8005860:	4b38      	ldr	r3, [pc, #224]	; (8005944 <HAL_RCCEx_PeriphCLKConfig+0x370>)
 8005862:	681b      	ldr	r3, [r3, #0]
 8005864:	f403 7380 	and.w	r3, r3, #256	; 0x100
 8005868:	2b00      	cmp	r3, #0
 800586a:	d0e8      	beq.n	800583e <HAL_RCCEx_PeriphCLKConfig+0x26a>
      }
    }
    /* Reset the Backup domain only if the RTC Clock source selection is modified from reset value */
    tmpreg1 = (RCC->BDCR & RCC_BDCR_RTCSEL);
 800586c:	4b36      	ldr	r3, [pc, #216]	; (8005948 <HAL_RCCEx_PeriphCLKConfig+0x374>)
 800586e:	6f1b      	ldr	r3, [r3, #112]	; 0x70
 8005870:	f403 7340 	and.w	r3, r3, #768	; 0x300
 8005874:	613b      	str	r3, [r7, #16]
    if((tmpreg1 != 0x00000000U) && ((tmpreg1) != (PeriphClkInit->RTCClockSelection & RCC_BDCR_RTCSEL)))
 8005876:	693b      	ldr	r3, [r7, #16]
 8005878:	2b00      	cmp	r3, #0
 800587a:	d02f      	beq.n	80058dc <HAL_RCCEx_PeriphCLKConfig+0x308>
 800587c:	687b      	ldr	r3, [r7, #4]
 800587e:	6a9b      	ldr	r3, [r3, #40]	; 0x28
 8005880:	f403 7340 	and.w	r3, r3, #768	; 0x300
 8005884:	693a      	ldr	r2, [r7, #16]
 8005886:	429a      	cmp	r2, r3
 8005888:	d028      	beq.n	80058dc <HAL_RCCEx_PeriphCLKConfig+0x308>
    {
      /* Store the content of BDCR register before the reset of Backup Domain */
      tmpreg1 = (RCC->BDCR & ~(RCC_BDCR_RTCSEL));
 800588a:	4b2f      	ldr	r3, [pc, #188]	; (8005948 <HAL_RCCEx_PeriphCLKConfig+0x374>)
 800588c:	6f1b      	ldr	r3, [r3, #112]	; 0x70
 800588e:	f423 7340 	bic.w	r3, r3, #768	; 0x300
 8005892:	613b      	str	r3, [r7, #16]
      /* RTC Clock selection can be changed only if the Backup Domain is reset */
      __HAL_RCC_BACKUPRESET_FORCE();
 8005894:	4b2d      	ldr	r3, [pc, #180]	; (800594c <HAL_RCCEx_PeriphCLKConfig+0x378>)
 8005896:	2201      	movs	r2, #1
 8005898:	601a      	str	r2, [r3, #0]
      __HAL_RCC_BACKUPRESET_RELEASE();
 800589a:	4b2c      	ldr	r3, [pc, #176]	; (800594c <HAL_RCCEx_PeriphCLKConfig+0x378>)
 800589c:	2200      	movs	r2, #0
 800589e:	601a      	str	r2, [r3, #0]
      /* Restore the Content of BDCR register */
      RCC->BDCR = tmpreg1;
 80058a0:	4a29      	ldr	r2, [pc, #164]	; (8005948 <HAL_RCCEx_PeriphCLKConfig+0x374>)
 80058a2:	693b      	ldr	r3, [r7, #16]
 80058a4:	6713      	str	r3, [r2, #112]	; 0x70

      /* Wait for LSE reactivation if LSE was enable prior to Backup Domain reset */
      if(HAL_IS_BIT_SET(RCC->BDCR, RCC_BDCR_LSEON))
 80058a6:	4b28      	ldr	r3, [pc, #160]	; (8005948 <HAL_RCCEx_PeriphCLKConfig+0x374>)
 80058a8:	6f1b      	ldr	r3, [r3, #112]	; 0x70
 80058aa:	f003 0301 	and.w	r3, r3, #1
 80058ae:	2b01      	cmp	r3, #1
 80058b0:	d114      	bne.n	80058dc <HAL_RCCEx_PeriphCLKConfig+0x308>
      {
        /* Get tick */
        tickstart = HAL_GetTick();
 80058b2:	f7fd f989 	bl	8002bc8 <HAL_GetTick>
 80058b6:	6178      	str	r0, [r7, #20]

        /* Wait till LSE is ready */
        while(__HAL_RCC_GET_FLAG(RCC_FLAG_LSERDY) == RESET)
 80058b8:	e00a      	b.n	80058d0 <HAL_RCCEx_PeriphCLKConfig+0x2fc>
        {
          if((HAL_GetTick() - tickstart ) > RCC_LSE_TIMEOUT_VALUE)
 80058ba:	f7fd f985 	bl	8002bc8 <HAL_GetTick>
 80058be:	4602      	mov	r2, r0
 80058c0:	697b      	ldr	r3, [r7, #20]
 80058c2:	1ad3      	subs	r3, r2, r3
 80058c4:	f241 3288 	movw	r2, #5000	; 0x1388
 80058c8:	4293      	cmp	r3, r2
 80058ca:	d901      	bls.n	80058d0 <HAL_RCCEx_PeriphCLKConfig+0x2fc>
          {
            return HAL_TIMEOUT;
 80058cc:	2303      	movs	r3, #3
 80058ce:	e035      	b.n	800593c <HAL_RCCEx_PeriphCLKConfig+0x368>
        while(__HAL_RCC_GET_FLAG(RCC_FLAG_LSERDY) == RESET)
 80058d0:	4b1d      	ldr	r3, [pc, #116]	; (8005948 <HAL_RCCEx_PeriphCLKConfig+0x374>)
 80058d2:	6f1b      	ldr	r3, [r3, #112]	; 0x70
 80058d4:	f003 0302 	and.w	r3, r3, #2
 80058d8:	2b00      	cmp	r3, #0
 80058da:	d0ee      	beq.n	80058ba <HAL_RCCEx_PeriphCLKConfig+0x2e6>
          }
        }
      }
    }
    __HAL_RCC_RTC_CONFIG(PeriphClkInit->RTCClockSelection);
 80058dc:	687b      	ldr	r3, [r7, #4]
 80058de:	6a9b      	ldr	r3, [r3, #40]	; 0x28
 80058e0:	f403 7340 	and.w	r3, r3, #768	; 0x300
 80058e4:	f5b3 7f40 	cmp.w	r3, #768	; 0x300
 80058e8:	d10d      	bne.n	8005906 <HAL_RCCEx_PeriphCLKConfig+0x332>
 80058ea:	4b17      	ldr	r3, [pc, #92]	; (8005948 <HAL_RCCEx_PeriphCLKConfig+0x374>)
 80058ec:	689b      	ldr	r3, [r3, #8]
 80058ee:	f423 12f8 	bic.w	r2, r3, #2031616	; 0x1f0000
 80058f2:	687b      	ldr	r3, [r7, #4]
 80058f4:	6a9b      	ldr	r3, [r3, #40]	; 0x28
 80058f6:	f023 4370 	bic.w	r3, r3, #4026531840	; 0xf0000000
 80058fa:	f423 7340 	bic.w	r3, r3, #768	; 0x300
 80058fe:	4912      	ldr	r1, [pc, #72]	; (8005948 <HAL_RCCEx_PeriphCLKConfig+0x374>)
 8005900:	4313      	orrs	r3, r2
 8005902:	608b      	str	r3, [r1, #8]
 8005904:	e005      	b.n	8005912 <HAL_RCCEx_PeriphCLKConfig+0x33e>
 8005906:	4b10      	ldr	r3, [pc, #64]	; (8005948 <HAL_RCCEx_PeriphCLKConfig+0x374>)
 8005908:	689b      	ldr	r3, [r3, #8]
 800590a:	4a0f      	ldr	r2, [pc, #60]	; (8005948 <HAL_RCCEx_PeriphCLKConfig+0x374>)
 800590c:	f423 13f8 	bic.w	r3, r3, #2031616	; 0x1f0000
 8005910:	6093      	str	r3, [r2, #8]
 8005912:	4b0d      	ldr	r3, [pc, #52]	; (8005948 <HAL_RCCEx_PeriphCLKConfig+0x374>)
 8005914:	6f1a      	ldr	r2, [r3, #112]	; 0x70
 8005916:	687b      	ldr	r3, [r7, #4]
 8005918:	6a9b      	ldr	r3, [r3, #40]	; 0x28
 800591a:	f3c3 030b 	ubfx	r3, r3, #0, #12
 800591e:	490a      	ldr	r1, [pc, #40]	; (8005948 <HAL_RCCEx_PeriphCLKConfig+0x374>)
 8005920:	4313      	orrs	r3, r2
 8005922:	670b      	str	r3, [r1, #112]	; 0x70
  }
  /*--------------------------------------------------------------------------*/

  /*---------------------------- TIM configuration ---------------------------*/
  if(((PeriphClkInit->PeriphClockSelection) & RCC_PERIPHCLK_TIM) == (RCC_PERIPHCLK_TIM))
 8005924:	687b      	ldr	r3, [r7, #4]
 8005926:	681b      	ldr	r3, [r3, #0]
 8005928:	f003 0310 	and.w	r3, r3, #16
 800592c:	2b00      	cmp	r3, #0
 800592e:	d004      	beq.n	800593a <HAL_RCCEx_PeriphCLKConfig+0x366>
  {
    __HAL_RCC_TIMCLKPRESCALER(PeriphClkInit->TIMPresSelection);
 8005930:	687b      	ldr	r3, [r7, #4]
 8005932:	f893 202c 	ldrb.w	r2, [r3, #44]	; 0x2c
 8005936:	4b06      	ldr	r3, [pc, #24]	; (8005950 <HAL_RCCEx_PeriphCLKConfig+0x37c>)
 8005938:	601a      	str	r2, [r3, #0]
  }
  return HAL_OK;
 800593a:	2300      	movs	r3, #0
}
 800593c:	4618      	mov	r0, r3
 800593e:	3718      	adds	r7, #24
 8005940:	46bd      	mov	sp, r7
 8005942:	bd80      	pop	{r7, pc}
 8005944:	40007000 	.word	0x40007000
 8005948:	40023800 	.word	0x40023800
 800594c:	42470e40 	.word	0x42470e40
 8005950:	424711e0 	.word	0x424711e0

08005954 <HAL_RTC_Init>:
  * @param  hrtc pointer to a RTC_HandleTypeDef structure that contains
  *                the configuration information for RTC.
  * @retval HAL status
  */
HAL_StatusTypeDef HAL_RTC_Init(RTC_HandleTypeDef *hrtc)
{
 8005954:	b580      	push	{r7, lr}
 8005956:	b084      	sub	sp, #16
 8005958:	af00      	add	r7, sp, #0
 800595a:	6078      	str	r0, [r7, #4]
  HAL_StatusTypeDef status = HAL_ERROR;
 800595c:	2301      	movs	r3, #1
 800595e:	73fb      	strb	r3, [r7, #15]

  /* Check RTC handler validity */
  if (hrtc == NULL)
 8005960:	687b      	ldr	r3, [r7, #4]
 8005962:	2b00      	cmp	r3, #0
 8005964:	d101      	bne.n	800596a <HAL_RTC_Init+0x16>
  {
    return HAL_ERROR;
 8005966:	2301      	movs	r3, #1
 8005968:	e073      	b.n	8005a52 <HAL_RTC_Init+0xfe>
    {
      hrtc->MspDeInitCallback = HAL_RTC_MspDeInit;
    }
  }
#else /* USE_HAL_RTC_REGISTER_CALLBACKS */
  if (hrtc->State == HAL_RTC_STATE_RESET)
 800596a:	687b      	ldr	r3, [r7, #4]
 800596c:	7f5b      	ldrb	r3, [r3, #29]
 800596e:	b2db      	uxtb	r3, r3
 8005970:	2b00      	cmp	r3, #0
 8005972:	d105      	bne.n	8005980 <HAL_RTC_Init+0x2c>
  {
    /* Allocate lock resource and initialize it */
    hrtc->Lock = HAL_UNLOCKED;
 8005974:	687b      	ldr	r3, [r7, #4]
 8005976:	2200      	movs	r2, #0
 8005978:	771a      	strb	r2, [r3, #28]

    /* Initialize RTC MSP */
    HAL_RTC_MspInit(hrtc);
 800597a:	6878      	ldr	r0, [r7, #4]
 800597c:	f7fc fdc8 	bl	8002510 <HAL_RTC_MspInit>
  }
#endif /* USE_HAL_RTC_REGISTER_CALLBACKS */

  /* Set RTC state */
  hrtc->State = HAL_RTC_STATE_BUSY;
 8005980:	687b      	ldr	r3, [r7, #4]
 8005982:	2202      	movs	r2, #2
 8005984:	775a      	strb	r2, [r3, #29]

  /* Check whether the calendar needs to be initialized */
  if (__HAL_RTC_IS_CALENDAR_INITIALIZED(hrtc) == 0U)
 8005986:	687b      	ldr	r3, [r7, #4]
 8005988:	681b      	ldr	r3, [r3, #0]
 800598a:	68db      	ldr	r3, [r3, #12]
 800598c:	f003 0310 	and.w	r3, r3, #16
 8005990:	2b10      	cmp	r3, #16
 8005992:	d055      	beq.n	8005a40 <HAL_RTC_Init+0xec>
  {
    /* Disable the write protection for RTC registers */
    __HAL_RTC_WRITEPROTECTION_DISABLE(hrtc);
 8005994:	687b      	ldr	r3, [r7, #4]
 8005996:	681b      	ldr	r3, [r3, #0]
 8005998:	22ca      	movs	r2, #202	; 0xca
 800599a:	625a      	str	r2, [r3, #36]	; 0x24
 800599c:	687b      	ldr	r3, [r7, #4]
 800599e:	681b      	ldr	r3, [r3, #0]
 80059a0:	2253      	movs	r2, #83	; 0x53
 80059a2:	625a      	str	r2, [r3, #36]	; 0x24

    /* Enter Initialization mode */
    status = RTC_EnterInitMode(hrtc);
 80059a4:	6878      	ldr	r0, [r7, #4]
 80059a6:	f000 fa49 	bl	8005e3c <RTC_EnterInitMode>
 80059aa:	4603      	mov	r3, r0
 80059ac:	73fb      	strb	r3, [r7, #15]

    if (status == HAL_OK)
 80059ae:	7bfb      	ldrb	r3, [r7, #15]
 80059b0:	2b00      	cmp	r3, #0
 80059b2:	d12c      	bne.n	8005a0e <HAL_RTC_Init+0xba>
    {
      /* Clear RTC_CR FMT, OSEL and POL Bits */
      hrtc->Instance->CR &= ((uint32_t)~(RTC_CR_FMT | RTC_CR_OSEL | RTC_CR_POL));
 80059b4:	687b      	ldr	r3, [r7, #4]
 80059b6:	681b      	ldr	r3, [r3, #0]
 80059b8:	689b      	ldr	r3, [r3, #8]
 80059ba:	687a      	ldr	r2, [r7, #4]
 80059bc:	6812      	ldr	r2, [r2, #0]
 80059be:	f423 03e0 	bic.w	r3, r3, #7340032	; 0x700000
 80059c2:	f023 0340 	bic.w	r3, r3, #64	; 0x40
 80059c6:	6093      	str	r3, [r2, #8]
      /* Set RTC_CR register */
      hrtc->Instance->CR |= (uint32_t)(hrtc->Init.HourFormat | hrtc->Init.OutPut | hrtc->Init.OutPutPolarity);
 80059c8:	687b      	ldr	r3, [r7, #4]
 80059ca:	681b      	ldr	r3, [r3, #0]
 80059cc:	6899      	ldr	r1, [r3, #8]
 80059ce:	687b      	ldr	r3, [r7, #4]
 80059d0:	685a      	ldr	r2, [r3, #4]
 80059d2:	687b      	ldr	r3, [r7, #4]
 80059d4:	691b      	ldr	r3, [r3, #16]
 80059d6:	431a      	orrs	r2, r3
 80059d8:	687b      	ldr	r3, [r7, #4]
 80059da:	695b      	ldr	r3, [r3, #20]
 80059dc:	431a      	orrs	r2, r3
 80059de:	687b      	ldr	r3, [r7, #4]
 80059e0:	681b      	ldr	r3, [r3, #0]
 80059e2:	430a      	orrs	r2, r1
 80059e4:	609a      	str	r2, [r3, #8]

      /* Configure the RTC PRER */
      hrtc->Instance->PRER = (uint32_t)(hrtc->Init.SynchPrediv);
 80059e6:	687b      	ldr	r3, [r7, #4]
 80059e8:	681b      	ldr	r3, [r3, #0]
 80059ea:	687a      	ldr	r2, [r7, #4]
 80059ec:	68d2      	ldr	r2, [r2, #12]
 80059ee:	611a      	str	r2, [r3, #16]
      hrtc->Instance->PRER |= (uint32_t)(hrtc->Init.AsynchPrediv << RTC_PRER_PREDIV_A_Pos);
 80059f0:	687b      	ldr	r3, [r7, #4]
 80059f2:	681b      	ldr	r3, [r3, #0]
 80059f4:	6919      	ldr	r1, [r3, #16]
 80059f6:	687b      	ldr	r3, [r7, #4]
 80059f8:	689b      	ldr	r3, [r3, #8]
 80059fa:	041a      	lsls	r2, r3, #16
 80059fc:	687b      	ldr	r3, [r7, #4]
 80059fe:	681b      	ldr	r3, [r3, #0]
 8005a00:	430a      	orrs	r2, r1
 8005a02:	611a      	str	r2, [r3, #16]

      /* Exit Initialization mode */
      status = RTC_ExitInitMode(hrtc);
 8005a04:	6878      	ldr	r0, [r7, #4]
 8005a06:	f000 fa50 	bl	8005eaa <RTC_ExitInitMode>
 8005a0a:	4603      	mov	r3, r0
 8005a0c:	73fb      	strb	r3, [r7, #15]
    }

    if (status == HAL_OK)
 8005a0e:	7bfb      	ldrb	r3, [r7, #15]
 8005a10:	2b00      	cmp	r3, #0
 8005a12:	d110      	bne.n	8005a36 <HAL_RTC_Init+0xe2>
    {
      hrtc->Instance->TAFCR &= (uint32_t)~RTC_OUTPUT_TYPE_PUSHPULL;
 8005a14:	687b      	ldr	r3, [r7, #4]
 8005a16:	681b      	ldr	r3, [r3, #0]
 8005a18:	6c1a      	ldr	r2, [r3, #64]	; 0x40
 8005a1a:	687b      	ldr	r3, [r7, #4]
 8005a1c:	681b      	ldr	r3, [r3, #0]
 8005a1e:	f422 2280 	bic.w	r2, r2, #262144	; 0x40000
 8005a22:	641a      	str	r2, [r3, #64]	; 0x40
      hrtc->Instance->TAFCR |= (uint32_t)(hrtc->Init.OutPutType);
 8005a24:	687b      	ldr	r3, [r7, #4]
 8005a26:	681b      	ldr	r3, [r3, #0]
 8005a28:	6c19      	ldr	r1, [r3, #64]	; 0x40
 8005a2a:	687b      	ldr	r3, [r7, #4]
 8005a2c:	699a      	ldr	r2, [r3, #24]
 8005a2e:	687b      	ldr	r3, [r7, #4]
 8005a30:	681b      	ldr	r3, [r3, #0]
 8005a32:	430a      	orrs	r2, r1
 8005a34:	641a      	str	r2, [r3, #64]	; 0x40
    }

    /* Enable the write protection for RTC registers */
    __HAL_RTC_WRITEPROTECTION_ENABLE(hrtc);
 8005a36:	687b      	ldr	r3, [r7, #4]
 8005a38:	681b      	ldr	r3, [r3, #0]
 8005a3a:	22ff      	movs	r2, #255	; 0xff
 8005a3c:	625a      	str	r2, [r3, #36]	; 0x24
 8005a3e:	e001      	b.n	8005a44 <HAL_RTC_Init+0xf0>
  }
  else
  {
    /* The calendar is already initialized */
    status = HAL_OK;
 8005a40:	2300      	movs	r3, #0
 8005a42:	73fb      	strb	r3, [r7, #15]
  }

  if (status == HAL_OK)
 8005a44:	7bfb      	ldrb	r3, [r7, #15]
 8005a46:	2b00      	cmp	r3, #0
 8005a48:	d102      	bne.n	8005a50 <HAL_RTC_Init+0xfc>
  {
    hrtc->State = HAL_RTC_STATE_READY;
 8005a4a:	687b      	ldr	r3, [r7, #4]
 8005a4c:	2201      	movs	r2, #1
 8005a4e:	775a      	strb	r2, [r3, #29]
  }

  return status;
 8005a50:	7bfb      	ldrb	r3, [r7, #15]
}
 8005a52:	4618      	mov	r0, r3
 8005a54:	3710      	adds	r7, #16
 8005a56:	46bd      	mov	sp, r7
 8005a58:	bd80      	pop	{r7, pc}

08005a5a <HAL_RTC_SetTime>:
  *            @arg RTC_FORMAT_BIN: Binary data format
  *            @arg RTC_FORMAT_BCD: BCD data format
  * @retval HAL status
  */
HAL_StatusTypeDef HAL_RTC_SetTime(RTC_HandleTypeDef *hrtc, RTC_TimeTypeDef *sTime, uint32_t Format)
{
 8005a5a:	b590      	push	{r4, r7, lr}
 8005a5c:	b087      	sub	sp, #28
 8005a5e:	af00      	add	r7, sp, #0
 8005a60:	60f8      	str	r0, [r7, #12]
 8005a62:	60b9      	str	r1, [r7, #8]
 8005a64:	607a      	str	r2, [r7, #4]
  uint32_t tmpreg = 0U;
 8005a66:	2300      	movs	r3, #0
 8005a68:	617b      	str	r3, [r7, #20]
  assert_param(IS_RTC_FORMAT(Format));
  assert_param(IS_RTC_DAYLIGHT_SAVING(sTime->DayLightSaving));
  assert_param(IS_RTC_STORE_OPERATION(sTime->StoreOperation));

  /* Process Locked */
  __HAL_LOCK(hrtc);
 8005a6a:	68fb      	ldr	r3, [r7, #12]
 8005a6c:	7f1b      	ldrb	r3, [r3, #28]
 8005a6e:	2b01      	cmp	r3, #1
 8005a70:	d101      	bne.n	8005a76 <HAL_RTC_SetTime+0x1c>
 8005a72:	2302      	movs	r3, #2
 8005a74:	e087      	b.n	8005b86 <HAL_RTC_SetTime+0x12c>
 8005a76:	68fb      	ldr	r3, [r7, #12]
 8005a78:	2201      	movs	r2, #1
 8005a7a:	771a      	strb	r2, [r3, #28]

  hrtc->State = HAL_RTC_STATE_BUSY;
 8005a7c:	68fb      	ldr	r3, [r7, #12]
 8005a7e:	2202      	movs	r2, #2
 8005a80:	775a      	strb	r2, [r3, #29]

  if (Format == RTC_FORMAT_BIN)
 8005a82:	687b      	ldr	r3, [r7, #4]
 8005a84:	2b00      	cmp	r3, #0
 8005a86:	d126      	bne.n	8005ad6 <HAL_RTC_SetTime+0x7c>
  {
    if ((hrtc->Instance->CR & RTC_CR_FMT) != 0U)
 8005a88:	68fb      	ldr	r3, [r7, #12]
 8005a8a:	681b      	ldr	r3, [r3, #0]
 8005a8c:	689b      	ldr	r3, [r3, #8]
 8005a8e:	f003 0340 	and.w	r3, r3, #64	; 0x40
 8005a92:	2b00      	cmp	r3, #0
 8005a94:	d102      	bne.n	8005a9c <HAL_RTC_SetTime+0x42>
      assert_param(IS_RTC_HOUR12(sTime->Hours));
      assert_param(IS_RTC_HOURFORMAT12(sTime->TimeFormat));
    }
    else
    {
      sTime->TimeFormat = 0x00U;
 8005a96:	68bb      	ldr	r3, [r7, #8]
 8005a98:	2200      	movs	r2, #0
 8005a9a:	70da      	strb	r2, [r3, #3]
      assert_param(IS_RTC_HOUR24(sTime->Hours));
    }
    assert_param(IS_RTC_MINUTES(sTime->Minutes));
    assert_param(IS_RTC_SECONDS(sTime->Seconds));

    tmpreg = (uint32_t)(( (uint32_t)RTC_ByteToBcd2(sTime->Hours)   << RTC_TR_HU_Pos)  | \
 8005a9c:	68bb      	ldr	r3, [r7, #8]
 8005a9e:	781b      	ldrb	r3, [r3, #0]
 8005aa0:	4618      	mov	r0, r3
 8005aa2:	f000 fa27 	bl	8005ef4 <RTC_ByteToBcd2>
 8005aa6:	4603      	mov	r3, r0
 8005aa8:	041c      	lsls	r4, r3, #16
                        ( (uint32_t)RTC_ByteToBcd2(sTime->Minutes) << RTC_TR_MNU_Pos) | \
 8005aaa:	68bb      	ldr	r3, [r7, #8]
 8005aac:	785b      	ldrb	r3, [r3, #1]
 8005aae:	4618      	mov	r0, r3
 8005ab0:	f000 fa20 	bl	8005ef4 <RTC_ByteToBcd2>
 8005ab4:	4603      	mov	r3, r0
 8005ab6:	021b      	lsls	r3, r3, #8
    tmpreg = (uint32_t)(( (uint32_t)RTC_ByteToBcd2(sTime->Hours)   << RTC_TR_HU_Pos)  | \
 8005ab8:	431c      	orrs	r4, r3
                        ( (uint32_t)RTC_ByteToBcd2(sTime->Seconds))                   | \
 8005aba:	68bb      	ldr	r3, [r7, #8]
 8005abc:	789b      	ldrb	r3, [r3, #2]
 8005abe:	4618      	mov	r0, r3
 8005ac0:	f000 fa18 	bl	8005ef4 <RTC_ByteToBcd2>
 8005ac4:	4603      	mov	r3, r0
                        ( (uint32_t)RTC_ByteToBcd2(sTime->Minutes) << RTC_TR_MNU_Pos) | \
 8005ac6:	ea44 0203 	orr.w	r2, r4, r3
                        (((uint32_t)sTime->TimeFormat)             << RTC_TR_PM_Pos));
 8005aca:	68bb      	ldr	r3, [r7, #8]
 8005acc:	78db      	ldrb	r3, [r3, #3]
 8005ace:	059b      	lsls	r3, r3, #22
    tmpreg = (uint32_t)(( (uint32_t)RTC_ByteToBcd2(sTime->Hours)   << RTC_TR_HU_Pos)  | \
 8005ad0:	4313      	orrs	r3, r2
 8005ad2:	617b      	str	r3, [r7, #20]
 8005ad4:	e018      	b.n	8005b08 <HAL_RTC_SetTime+0xae>
  }
  else
  {
    if ((hrtc->Instance->CR & RTC_CR_FMT) != 0U)
 8005ad6:	68fb      	ldr	r3, [r7, #12]
 8005ad8:	681b      	ldr	r3, [r3, #0]
 8005ada:	689b      	ldr	r3, [r3, #8]
 8005adc:	f003 0340 	and.w	r3, r3, #64	; 0x40
 8005ae0:	2b00      	cmp	r3, #0
 8005ae2:	d102      	bne.n	8005aea <HAL_RTC_SetTime+0x90>
      assert_param(IS_RTC_HOUR12(RTC_Bcd2ToByte(sTime->Hours)));
      assert_param(IS_RTC_HOURFORMAT12(sTime->TimeFormat));
    }
    else
    {
      sTime->TimeFormat = 0x00U;
 8005ae4:	68bb      	ldr	r3, [r7, #8]
 8005ae6:	2200      	movs	r2, #0
 8005ae8:	70da      	strb	r2, [r3, #3]
      assert_param(IS_RTC_HOUR24(RTC_Bcd2ToByte(sTime->Hours)));
    }
    assert_param(IS_RTC_MINUTES(RTC_Bcd2ToByte(sTime->Minutes)));
    assert_param(IS_RTC_SECONDS(RTC_Bcd2ToByte(sTime->Seconds)));
    tmpreg = (((uint32_t)(sTime->Hours)      << RTC_TR_HU_Pos)  | \
 8005aea:	68bb      	ldr	r3, [r7, #8]
 8005aec:	781b      	ldrb	r3, [r3, #0]
 8005aee:	041a      	lsls	r2, r3, #16
              ((uint32_t)(sTime->Minutes)    << RTC_TR_MNU_Pos) | \
 8005af0:	68bb      	ldr	r3, [r7, #8]
 8005af2:	785b      	ldrb	r3, [r3, #1]
 8005af4:	021b      	lsls	r3, r3, #8
    tmpreg = (((uint32_t)(sTime->Hours)      << RTC_TR_HU_Pos)  | \
 8005af6:	4313      	orrs	r3, r2
              ((uint32_t) sTime->Seconds)                       | \
 8005af8:	68ba      	ldr	r2, [r7, #8]
 8005afa:	7892      	ldrb	r2, [r2, #2]
              ((uint32_t)(sTime->Minutes)    << RTC_TR_MNU_Pos) | \
 8005afc:	431a      	orrs	r2, r3
              ((uint32_t)(sTime->TimeFormat) << RTC_TR_PM_Pos));
 8005afe:	68bb      	ldr	r3, [r7, #8]
 8005b00:	78db      	ldrb	r3, [r3, #3]
 8005b02:	059b      	lsls	r3, r3, #22
    tmpreg = (((uint32_t)(sTime->Hours)      << RTC_TR_HU_Pos)  | \
 8005b04:	4313      	orrs	r3, r2
 8005b06:	617b      	str	r3, [r7, #20]
  }

  /* Disable the write protection for RTC registers */
  __HAL_RTC_WRITEPROTECTION_DISABLE(hrtc);
 8005b08:	68fb      	ldr	r3, [r7, #12]
 8005b0a:	681b      	ldr	r3, [r3, #0]
 8005b0c:	22ca      	movs	r2, #202	; 0xca
 8005b0e:	625a      	str	r2, [r3, #36]	; 0x24
 8005b10:	68fb      	ldr	r3, [r7, #12]
 8005b12:	681b      	ldr	r3, [r3, #0]
 8005b14:	2253      	movs	r2, #83	; 0x53
 8005b16:	625a      	str	r2, [r3, #36]	; 0x24

  /* Enter Initialization mode */
  status = RTC_EnterInitMode(hrtc);
 8005b18:	68f8      	ldr	r0, [r7, #12]
 8005b1a:	f000 f98f 	bl	8005e3c <RTC_EnterInitMode>
 8005b1e:	4603      	mov	r3, r0
 8005b20:	74fb      	strb	r3, [r7, #19]

  if (status == HAL_OK)
 8005b22:	7cfb      	ldrb	r3, [r7, #19]
 8005b24:	2b00      	cmp	r3, #0
 8005b26:	d120      	bne.n	8005b6a <HAL_RTC_SetTime+0x110>
  {
    /* Set the RTC_TR register */
    hrtc->Instance->TR = (uint32_t)(tmpreg & RTC_TR_RESERVED_MASK);
 8005b28:	68fb      	ldr	r3, [r7, #12]
 8005b2a:	681a      	ldr	r2, [r3, #0]
 8005b2c:	697b      	ldr	r3, [r7, #20]
 8005b2e:	f003 337f 	and.w	r3, r3, #2139062143	; 0x7f7f7f7f
 8005b32:	f023 43fe 	bic.w	r3, r3, #2130706432	; 0x7f000000
 8005b36:	6013      	str	r3, [r2, #0]

    /* Clear the bits to be configured (Deprecated. Use HAL_RTC_DST_xxx functions instead) */
    hrtc->Instance->CR &= (uint32_t)~RTC_CR_BKP;
 8005b38:	68fb      	ldr	r3, [r7, #12]
 8005b3a:	681b      	ldr	r3, [r3, #0]
 8005b3c:	689a      	ldr	r2, [r3, #8]
 8005b3e:	68fb      	ldr	r3, [r7, #12]
 8005b40:	681b      	ldr	r3, [r3, #0]
 8005b42:	f422 2280 	bic.w	r2, r2, #262144	; 0x40000
 8005b46:	609a      	str	r2, [r3, #8]

    /* Configure the RTC_CR register (Deprecated. Use HAL_RTC_DST_xxx functions instead) */
    hrtc->Instance->CR |= (uint32_t)(sTime->DayLightSaving | sTime->StoreOperation);
 8005b48:	68fb      	ldr	r3, [r7, #12]
 8005b4a:	681b      	ldr	r3, [r3, #0]
 8005b4c:	6899      	ldr	r1, [r3, #8]
 8005b4e:	68bb      	ldr	r3, [r7, #8]
 8005b50:	68da      	ldr	r2, [r3, #12]
 8005b52:	68bb      	ldr	r3, [r7, #8]
 8005b54:	691b      	ldr	r3, [r3, #16]
 8005b56:	431a      	orrs	r2, r3
 8005b58:	68fb      	ldr	r3, [r7, #12]
 8005b5a:	681b      	ldr	r3, [r3, #0]
 8005b5c:	430a      	orrs	r2, r1
 8005b5e:	609a      	str	r2, [r3, #8]

    /* Exit Initialization mode */
    status = RTC_ExitInitMode(hrtc);
 8005b60:	68f8      	ldr	r0, [r7, #12]
 8005b62:	f000 f9a2 	bl	8005eaa <RTC_ExitInitMode>
 8005b66:	4603      	mov	r3, r0
 8005b68:	74fb      	strb	r3, [r7, #19]
  }

  if (status == HAL_OK)
 8005b6a:	7cfb      	ldrb	r3, [r7, #19]
 8005b6c:	2b00      	cmp	r3, #0
 8005b6e:	d102      	bne.n	8005b76 <HAL_RTC_SetTime+0x11c>
  {
    hrtc->State = HAL_RTC_STATE_READY;
 8005b70:	68fb      	ldr	r3, [r7, #12]
 8005b72:	2201      	movs	r2, #1
 8005b74:	775a      	strb	r2, [r3, #29]
  }

  /* Enable the write protection for RTC registers */
  __HAL_RTC_WRITEPROTECTION_ENABLE(hrtc);
 8005b76:	68fb      	ldr	r3, [r7, #12]
 8005b78:	681b      	ldr	r3, [r3, #0]
 8005b7a:	22ff      	movs	r2, #255	; 0xff
 8005b7c:	625a      	str	r2, [r3, #36]	; 0x24

  /* Process Unlocked */
  __HAL_UNLOCK(hrtc);
 8005b7e:	68fb      	ldr	r3, [r7, #12]
 8005b80:	2200      	movs	r2, #0
 8005b82:	771a      	strb	r2, [r3, #28]

  return status;
 8005b84:	7cfb      	ldrb	r3, [r7, #19]
}
 8005b86:	4618      	mov	r0, r3
 8005b88:	371c      	adds	r7, #28
 8005b8a:	46bd      	mov	sp, r7
 8005b8c:	bd90      	pop	{r4, r7, pc}

08005b8e <HAL_RTC_GetTime>:
  *        until current date is read to ensure consistency between the time and
  *        date values.
  * @retval HAL status
  */
HAL_StatusTypeDef HAL_RTC_GetTime(RTC_HandleTypeDef *hrtc, RTC_TimeTypeDef *sTime, uint32_t Format)
{
 8005b8e:	b580      	push	{r7, lr}
 8005b90:	b086      	sub	sp, #24
 8005b92:	af00      	add	r7, sp, #0
 8005b94:	60f8      	str	r0, [r7, #12]
 8005b96:	60b9      	str	r1, [r7, #8]
 8005b98:	607a      	str	r2, [r7, #4]
  uint32_t tmpreg = 0U;
 8005b9a:	2300      	movs	r3, #0
 8005b9c:	617b      	str	r3, [r7, #20]

  /* Check the parameters */
  assert_param(IS_RTC_FORMAT(Format));

  /* Get subseconds value from the corresponding register */
  sTime->SubSeconds = (uint32_t)(hrtc->Instance->SSR);
 8005b9e:	68fb      	ldr	r3, [r7, #12]
 8005ba0:	681b      	ldr	r3, [r3, #0]
 8005ba2:	6a9a      	ldr	r2, [r3, #40]	; 0x28
 8005ba4:	68bb      	ldr	r3, [r7, #8]
 8005ba6:	605a      	str	r2, [r3, #4]

  /* Get SecondFraction structure field from the corresponding register field*/
  sTime->SecondFraction = (uint32_t)(hrtc->Instance->PRER & RTC_PRER_PREDIV_S);
 8005ba8:	68fb      	ldr	r3, [r7, #12]
 8005baa:	681b      	ldr	r3, [r3, #0]
 8005bac:	691b      	ldr	r3, [r3, #16]
 8005bae:	f3c3 020e 	ubfx	r2, r3, #0, #15
 8005bb2:	68bb      	ldr	r3, [r7, #8]
 8005bb4:	609a      	str	r2, [r3, #8]

  /* Get the TR register */
  tmpreg = (uint32_t)(hrtc->Instance->TR & RTC_TR_RESERVED_MASK);
 8005bb6:	68fb      	ldr	r3, [r7, #12]
 8005bb8:	681b      	ldr	r3, [r3, #0]
 8005bba:	681b      	ldr	r3, [r3, #0]
 8005bbc:	f003 337f 	and.w	r3, r3, #2139062143	; 0x7f7f7f7f
 8005bc0:	f023 43fe 	bic.w	r3, r3, #2130706432	; 0x7f000000
 8005bc4:	617b      	str	r3, [r7, #20]

  /* Fill the structure fields with the read parameters */
  sTime->Hours      = (uint8_t)((tmpreg & (RTC_TR_HT  | RTC_TR_HU))  >> RTC_TR_HU_Pos);
 8005bc6:	697b      	ldr	r3, [r7, #20]
 8005bc8:	0c1b      	lsrs	r3, r3, #16
 8005bca:	b2db      	uxtb	r3, r3
 8005bcc:	f003 033f 	and.w	r3, r3, #63	; 0x3f
 8005bd0:	b2da      	uxtb	r2, r3
 8005bd2:	68bb      	ldr	r3, [r7, #8]
 8005bd4:	701a      	strb	r2, [r3, #0]
  sTime->Minutes    = (uint8_t)((tmpreg & (RTC_TR_MNT | RTC_TR_MNU)) >> RTC_TR_MNU_Pos);
 8005bd6:	697b      	ldr	r3, [r7, #20]
 8005bd8:	0a1b      	lsrs	r3, r3, #8
 8005bda:	b2db      	uxtb	r3, r3
 8005bdc:	f003 037f 	and.w	r3, r3, #127	; 0x7f
 8005be0:	b2da      	uxtb	r2, r3
 8005be2:	68bb      	ldr	r3, [r7, #8]
 8005be4:	705a      	strb	r2, [r3, #1]
  sTime->Seconds    = (uint8_t)( tmpreg & (RTC_TR_ST  | RTC_TR_SU));
 8005be6:	697b      	ldr	r3, [r7, #20]
 8005be8:	b2db      	uxtb	r3, r3
 8005bea:	f003 037f 	and.w	r3, r3, #127	; 0x7f
 8005bee:	b2da      	uxtb	r2, r3
 8005bf0:	68bb      	ldr	r3, [r7, #8]
 8005bf2:	709a      	strb	r2, [r3, #2]
  sTime->TimeFormat = (uint8_t)((tmpreg & (RTC_TR_PM))               >> RTC_TR_PM_Pos);
 8005bf4:	697b      	ldr	r3, [r7, #20]
 8005bf6:	0d9b      	lsrs	r3, r3, #22
 8005bf8:	b2db      	uxtb	r3, r3
 8005bfa:	f003 0301 	and.w	r3, r3, #1
 8005bfe:	b2da      	uxtb	r2, r3
 8005c00:	68bb      	ldr	r3, [r7, #8]
 8005c02:	70da      	strb	r2, [r3, #3]

  /* Check the input parameters format */
  if (Format == RTC_FORMAT_BIN)
 8005c04:	687b      	ldr	r3, [r7, #4]
 8005c06:	2b00      	cmp	r3, #0
 8005c08:	d11a      	bne.n	8005c40 <HAL_RTC_GetTime+0xb2>
  {
    /* Convert the time structure parameters to Binary format */
    sTime->Hours = (uint8_t)RTC_Bcd2ToByte(sTime->Hours);
 8005c0a:	68bb      	ldr	r3, [r7, #8]
 8005c0c:	781b      	ldrb	r3, [r3, #0]
 8005c0e:	4618      	mov	r0, r3
 8005c10:	f000 f98e 	bl	8005f30 <RTC_Bcd2ToByte>
 8005c14:	4603      	mov	r3, r0
 8005c16:	461a      	mov	r2, r3
 8005c18:	68bb      	ldr	r3, [r7, #8]
 8005c1a:	701a      	strb	r2, [r3, #0]
    sTime->Minutes = (uint8_t)RTC_Bcd2ToByte(sTime->Minutes);
 8005c1c:	68bb      	ldr	r3, [r7, #8]
 8005c1e:	785b      	ldrb	r3, [r3, #1]
 8005c20:	4618      	mov	r0, r3
 8005c22:	f000 f985 	bl	8005f30 <RTC_Bcd2ToByte>
 8005c26:	4603      	mov	r3, r0
 8005c28:	461a      	mov	r2, r3
 8005c2a:	68bb      	ldr	r3, [r7, #8]
 8005c2c:	705a      	strb	r2, [r3, #1]
    sTime->Seconds = (uint8_t)RTC_Bcd2ToByte(sTime->Seconds);
 8005c2e:	68bb      	ldr	r3, [r7, #8]
 8005c30:	789b      	ldrb	r3, [r3, #2]
 8005c32:	4618      	mov	r0, r3
 8005c34:	f000 f97c 	bl	8005f30 <RTC_Bcd2ToByte>
 8005c38:	4603      	mov	r3, r0
 8005c3a:	461a      	mov	r2, r3
 8005c3c:	68bb      	ldr	r3, [r7, #8]
 8005c3e:	709a      	strb	r2, [r3, #2]
  }

  return HAL_OK;
 8005c40:	2300      	movs	r3, #0
}
 8005c42:	4618      	mov	r0, r3
 8005c44:	3718      	adds	r7, #24
 8005c46:	46bd      	mov	sp, r7
 8005c48:	bd80      	pop	{r7, pc}

08005c4a <HAL_RTC_SetDate>:
  *            @arg RTC_FORMAT_BIN: Binary data format
  *            @arg RTC_FORMAT_BCD: BCD data format
  * @retval HAL status
  */
HAL_StatusTypeDef HAL_RTC_SetDate(RTC_HandleTypeDef *hrtc, RTC_DateTypeDef *sDate, uint32_t Format)
{
 8005c4a:	b590      	push	{r4, r7, lr}
 8005c4c:	b087      	sub	sp, #28
 8005c4e:	af00      	add	r7, sp, #0
 8005c50:	60f8      	str	r0, [r7, #12]
 8005c52:	60b9      	str	r1, [r7, #8]
 8005c54:	607a      	str	r2, [r7, #4]
  uint32_t datetmpreg = 0U;
 8005c56:	2300      	movs	r3, #0
 8005c58:	617b      	str	r3, [r7, #20]

  /* Check the parameters */
  assert_param(IS_RTC_FORMAT(Format));

  /* Process Locked */
  __HAL_LOCK(hrtc);
 8005c5a:	68fb      	ldr	r3, [r7, #12]
 8005c5c:	7f1b      	ldrb	r3, [r3, #28]
 8005c5e:	2b01      	cmp	r3, #1
 8005c60:	d101      	bne.n	8005c66 <HAL_RTC_SetDate+0x1c>
 8005c62:	2302      	movs	r3, #2
 8005c64:	e071      	b.n	8005d4a <HAL_RTC_SetDate+0x100>
 8005c66:	68fb      	ldr	r3, [r7, #12]
 8005c68:	2201      	movs	r2, #1
 8005c6a:	771a      	strb	r2, [r3, #28]

  hrtc->State = HAL_RTC_STATE_BUSY;
 8005c6c:	68fb      	ldr	r3, [r7, #12]
 8005c6e:	2202      	movs	r2, #2
 8005c70:	775a      	strb	r2, [r3, #29]

  if ((Format == RTC_FORMAT_BIN) && ((sDate->Month & 0x10U) == 0x10U))
 8005c72:	687b      	ldr	r3, [r7, #4]
 8005c74:	2b00      	cmp	r3, #0
 8005c76:	d10e      	bne.n	8005c96 <HAL_RTC_SetDate+0x4c>
 8005c78:	68bb      	ldr	r3, [r7, #8]
 8005c7a:	785b      	ldrb	r3, [r3, #1]
 8005c7c:	f003 0310 	and.w	r3, r3, #16
 8005c80:	2b00      	cmp	r3, #0
 8005c82:	d008      	beq.n	8005c96 <HAL_RTC_SetDate+0x4c>
  {
    sDate->Month = (uint8_t)((sDate->Month & (uint8_t)~(0x10U)) + (uint8_t)0x0AU);
 8005c84:	68bb      	ldr	r3, [r7, #8]
 8005c86:	785b      	ldrb	r3, [r3, #1]
 8005c88:	f023 0310 	bic.w	r3, r3, #16
 8005c8c:	b2db      	uxtb	r3, r3
 8005c8e:	330a      	adds	r3, #10
 8005c90:	b2da      	uxtb	r2, r3
 8005c92:	68bb      	ldr	r3, [r7, #8]
 8005c94:	705a      	strb	r2, [r3, #1]
  }

  assert_param(IS_RTC_WEEKDAY(sDate->WeekDay));

  if (Format == RTC_FORMAT_BIN)
 8005c96:	687b      	ldr	r3, [r7, #4]
 8005c98:	2b00      	cmp	r3, #0
 8005c9a:	d11c      	bne.n	8005cd6 <HAL_RTC_SetDate+0x8c>
  {
    assert_param(IS_RTC_YEAR(sDate->Year));
    assert_param(IS_RTC_MONTH(sDate->Month));
    assert_param(IS_RTC_DATE(sDate->Date));

    datetmpreg = (((uint32_t)RTC_ByteToBcd2(sDate->Year)  << RTC_DR_YU_Pos) | \
 8005c9c:	68bb      	ldr	r3, [r7, #8]
 8005c9e:	78db      	ldrb	r3, [r3, #3]
 8005ca0:	4618      	mov	r0, r3
 8005ca2:	f000 f927 	bl	8005ef4 <RTC_ByteToBcd2>
 8005ca6:	4603      	mov	r3, r0
 8005ca8:	041c      	lsls	r4, r3, #16
                  ((uint32_t)RTC_ByteToBcd2(sDate->Month) << RTC_DR_MU_Pos) | \
 8005caa:	68bb      	ldr	r3, [r7, #8]
 8005cac:	785b      	ldrb	r3, [r3, #1]
 8005cae:	4618      	mov	r0, r3
 8005cb0:	f000 f920 	bl	8005ef4 <RTC_ByteToBcd2>
 8005cb4:	4603      	mov	r3, r0
 8005cb6:	021b      	lsls	r3, r3, #8
    datetmpreg = (((uint32_t)RTC_ByteToBcd2(sDate->Year)  << RTC_DR_YU_Pos) | \
 8005cb8:	431c      	orrs	r4, r3
                  ((uint32_t)RTC_ByteToBcd2(sDate->Date))                   | \
 8005cba:	68bb      	ldr	r3, [r7, #8]
 8005cbc:	789b      	ldrb	r3, [r3, #2]
 8005cbe:	4618      	mov	r0, r3
 8005cc0:	f000 f918 	bl	8005ef4 <RTC_ByteToBcd2>
 8005cc4:	4603      	mov	r3, r0
                  ((uint32_t)RTC_ByteToBcd2(sDate->Month) << RTC_DR_MU_Pos) | \
 8005cc6:	ea44 0203 	orr.w	r2, r4, r3
                  ((uint32_t)sDate->WeekDay               << RTC_DR_WDU_Pos));
 8005cca:	68bb      	ldr	r3, [r7, #8]
 8005ccc:	781b      	ldrb	r3, [r3, #0]
 8005cce:	035b      	lsls	r3, r3, #13
    datetmpreg = (((uint32_t)RTC_ByteToBcd2(sDate->Year)  << RTC_DR_YU_Pos) | \
 8005cd0:	4313      	orrs	r3, r2
 8005cd2:	617b      	str	r3, [r7, #20]
 8005cd4:	e00e      	b.n	8005cf4 <HAL_RTC_SetDate+0xaa>
  {
    assert_param(IS_RTC_YEAR(RTC_Bcd2ToByte(sDate->Year)));
    assert_param(IS_RTC_MONTH(RTC_Bcd2ToByte(sDate->Month)));
    assert_param(IS_RTC_DATE(RTC_Bcd2ToByte(sDate->Date)));

    datetmpreg = ((((uint32_t)sDate->Year)    << RTC_DR_YU_Pos) | \
 8005cd6:	68bb      	ldr	r3, [r7, #8]
 8005cd8:	78db      	ldrb	r3, [r3, #3]
 8005cda:	041a      	lsls	r2, r3, #16
                  (((uint32_t)sDate->Month)   << RTC_DR_MU_Pos) | \
 8005cdc:	68bb      	ldr	r3, [r7, #8]
 8005cde:	785b      	ldrb	r3, [r3, #1]
 8005ce0:	021b      	lsls	r3, r3, #8
    datetmpreg = ((((uint32_t)sDate->Year)    << RTC_DR_YU_Pos) | \
 8005ce2:	4313      	orrs	r3, r2
                  ((uint32_t) sDate->Date)                      | \
 8005ce4:	68ba      	ldr	r2, [r7, #8]
 8005ce6:	7892      	ldrb	r2, [r2, #2]
                  (((uint32_t)sDate->Month)   << RTC_DR_MU_Pos) | \
 8005ce8:	431a      	orrs	r2, r3
                  (((uint32_t)sDate->WeekDay) << RTC_DR_WDU_Pos));
 8005cea:	68bb      	ldr	r3, [r7, #8]
 8005cec:	781b      	ldrb	r3, [r3, #0]
 8005cee:	035b      	lsls	r3, r3, #13
    datetmpreg = ((((uint32_t)sDate->Year)    << RTC_DR_YU_Pos) | \
 8005cf0:	4313      	orrs	r3, r2
 8005cf2:	617b      	str	r3, [r7, #20]
  }

  /* Disable the write protection for RTC registers */
  __HAL_RTC_WRITEPROTECTION_DISABLE(hrtc);
 8005cf4:	68fb      	ldr	r3, [r7, #12]
 8005cf6:	681b      	ldr	r3, [r3, #0]
 8005cf8:	22ca      	movs	r2, #202	; 0xca
 8005cfa:	625a      	str	r2, [r3, #36]	; 0x24
 8005cfc:	68fb      	ldr	r3, [r7, #12]
 8005cfe:	681b      	ldr	r3, [r3, #0]
 8005d00:	2253      	movs	r2, #83	; 0x53
 8005d02:	625a      	str	r2, [r3, #36]	; 0x24

  /* Enter Initialization mode */
  status = RTC_EnterInitMode(hrtc);
 8005d04:	68f8      	ldr	r0, [r7, #12]
 8005d06:	f000 f899 	bl	8005e3c <RTC_EnterInitMode>
 8005d0a:	4603      	mov	r3, r0
 8005d0c:	74fb      	strb	r3, [r7, #19]

  if (status == HAL_OK)
 8005d0e:	7cfb      	ldrb	r3, [r7, #19]
 8005d10:	2b00      	cmp	r3, #0
 8005d12:	d10c      	bne.n	8005d2e <HAL_RTC_SetDate+0xe4>
  {
    /* Set the RTC_DR register */
    hrtc->Instance->DR = (uint32_t)(datetmpreg & RTC_DR_RESERVED_MASK);
 8005d14:	68fb      	ldr	r3, [r7, #12]
 8005d16:	681a      	ldr	r2, [r3, #0]
 8005d18:	697b      	ldr	r3, [r7, #20]
 8005d1a:	f023 437f 	bic.w	r3, r3, #4278190080	; 0xff000000
 8005d1e:	f023 03c0 	bic.w	r3, r3, #192	; 0xc0
 8005d22:	6053      	str	r3, [r2, #4]

    /* Exit Initialization mode */
    status = RTC_ExitInitMode(hrtc);
 8005d24:	68f8      	ldr	r0, [r7, #12]
 8005d26:	f000 f8c0 	bl	8005eaa <RTC_ExitInitMode>
 8005d2a:	4603      	mov	r3, r0
 8005d2c:	74fb      	strb	r3, [r7, #19]
  }

  if (status == HAL_OK)
 8005d2e:	7cfb      	ldrb	r3, [r7, #19]
 8005d30:	2b00      	cmp	r3, #0
 8005d32:	d102      	bne.n	8005d3a <HAL_RTC_SetDate+0xf0>
  {
    hrtc->State = HAL_RTC_STATE_READY;
 8005d34:	68fb      	ldr	r3, [r7, #12]
 8005d36:	2201      	movs	r2, #1
 8005d38:	775a      	strb	r2, [r3, #29]
  }

  /* Enable the write protection for RTC registers */
  __HAL_RTC_WRITEPROTECTION_ENABLE(hrtc);
 8005d3a:	68fb      	ldr	r3, [r7, #12]
 8005d3c:	681b      	ldr	r3, [r3, #0]
 8005d3e:	22ff      	movs	r2, #255	; 0xff
 8005d40:	625a      	str	r2, [r3, #36]	; 0x24

  /* Process Unlocked */
  __HAL_UNLOCK(hrtc);
 8005d42:	68fb      	ldr	r3, [r7, #12]
 8005d44:	2200      	movs	r2, #0
 8005d46:	771a      	strb	r2, [r3, #28]

  return status;
 8005d48:	7cfb      	ldrb	r3, [r7, #19]
}
 8005d4a:	4618      	mov	r0, r3
 8005d4c:	371c      	adds	r7, #28
 8005d4e:	46bd      	mov	sp, r7
 8005d50:	bd90      	pop	{r4, r7, pc}

08005d52 <HAL_RTC_GetDate>:
  *        until current date is read to ensure consistency between the time and
  *        date values.
  * @retval HAL status
  */
HAL_StatusTypeDef HAL_RTC_GetDate(RTC_HandleTypeDef *hrtc, RTC_DateTypeDef *sDate, uint32_t Format)
{
 8005d52:	b580      	push	{r7, lr}
 8005d54:	b086      	sub	sp, #24
 8005d56:	af00      	add	r7, sp, #0
 8005d58:	60f8      	str	r0, [r7, #12]
 8005d5a:	60b9      	str	r1, [r7, #8]
 8005d5c:	607a      	str	r2, [r7, #4]
  uint32_t datetmpreg = 0U;
 8005d5e:	2300      	movs	r3, #0
 8005d60:	617b      	str	r3, [r7, #20]

  /* Check the parameters */
  assert_param(IS_RTC_FORMAT(Format));

  /* Get the DR register */
  datetmpreg = (uint32_t)(hrtc->Instance->DR & RTC_DR_RESERVED_MASK);
 8005d62:	68fb      	ldr	r3, [r7, #12]
 8005d64:	681b      	ldr	r3, [r3, #0]
 8005d66:	685b      	ldr	r3, [r3, #4]
 8005d68:	f023 437f 	bic.w	r3, r3, #4278190080	; 0xff000000
 8005d6c:	f023 03c0 	bic.w	r3, r3, #192	; 0xc0
 8005d70:	617b      	str	r3, [r7, #20]

  /* Fill the structure fields with the read parameters */
  sDate->Year    = (uint8_t)((datetmpreg & (RTC_DR_YT | RTC_DR_YU)) >> RTC_DR_YU_Pos);
 8005d72:	697b      	ldr	r3, [r7, #20]
 8005d74:	0c1b      	lsrs	r3, r3, #16
 8005d76:	b2da      	uxtb	r2, r3
 8005d78:	68bb      	ldr	r3, [r7, #8]
 8005d7a:	70da      	strb	r2, [r3, #3]
  sDate->Month   = (uint8_t)((datetmpreg & (RTC_DR_MT | RTC_DR_MU)) >> RTC_DR_MU_Pos);
 8005d7c:	697b      	ldr	r3, [r7, #20]
 8005d7e:	0a1b      	lsrs	r3, r3, #8
 8005d80:	b2db      	uxtb	r3, r3
 8005d82:	f003 031f 	and.w	r3, r3, #31
 8005d86:	b2da      	uxtb	r2, r3
 8005d88:	68bb      	ldr	r3, [r7, #8]
 8005d8a:	705a      	strb	r2, [r3, #1]
  sDate->Date    = (uint8_t) (datetmpreg & (RTC_DR_DT | RTC_DR_DU));
 8005d8c:	697b      	ldr	r3, [r7, #20]
 8005d8e:	b2db      	uxtb	r3, r3
 8005d90:	f003 033f 	and.w	r3, r3, #63	; 0x3f
 8005d94:	b2da      	uxtb	r2, r3
 8005d96:	68bb      	ldr	r3, [r7, #8]
 8005d98:	709a      	strb	r2, [r3, #2]
  sDate->WeekDay = (uint8_t)((datetmpreg & (RTC_DR_WDU))            >> RTC_DR_WDU_Pos);
 8005d9a:	697b      	ldr	r3, [r7, #20]
 8005d9c:	0b5b      	lsrs	r3, r3, #13
 8005d9e:	b2db      	uxtb	r3, r3
 8005da0:	f003 0307 	and.w	r3, r3, #7
 8005da4:	b2da      	uxtb	r2, r3
 8005da6:	68bb      	ldr	r3, [r7, #8]
 8005da8:	701a      	strb	r2, [r3, #0]

  /* Check the input parameters format */
  if (Format == RTC_FORMAT_BIN)
 8005daa:	687b      	ldr	r3, [r7, #4]
 8005dac:	2b00      	cmp	r3, #0
 8005dae:	d11a      	bne.n	8005de6 <HAL_RTC_GetDate+0x94>
  {
    /* Convert the date structure parameters to Binary format */
    sDate->Year  = (uint8_t)RTC_Bcd2ToByte(sDate->Year);
 8005db0:	68bb      	ldr	r3, [r7, #8]
 8005db2:	78db      	ldrb	r3, [r3, #3]
 8005db4:	4618      	mov	r0, r3
 8005db6:	f000 f8bb 	bl	8005f30 <RTC_Bcd2ToByte>
 8005dba:	4603      	mov	r3, r0
 8005dbc:	461a      	mov	r2, r3
 8005dbe:	68bb      	ldr	r3, [r7, #8]
 8005dc0:	70da      	strb	r2, [r3, #3]
    sDate->Month = (uint8_t)RTC_Bcd2ToByte(sDate->Month);
 8005dc2:	68bb      	ldr	r3, [r7, #8]
 8005dc4:	785b      	ldrb	r3, [r3, #1]
 8005dc6:	4618      	mov	r0, r3
 8005dc8:	f000 f8b2 	bl	8005f30 <RTC_Bcd2ToByte>
 8005dcc:	4603      	mov	r3, r0
 8005dce:	461a      	mov	r2, r3
 8005dd0:	68bb      	ldr	r3, [r7, #8]
 8005dd2:	705a      	strb	r2, [r3, #1]
    sDate->Date  = (uint8_t)RTC_Bcd2ToByte(sDate->Date);
 8005dd4:	68bb      	ldr	r3, [r7, #8]
 8005dd6:	789b      	ldrb	r3, [r3, #2]
 8005dd8:	4618      	mov	r0, r3
 8005dda:	f000 f8a9 	bl	8005f30 <RTC_Bcd2ToByte>
 8005dde:	4603      	mov	r3, r0
 8005de0:	461a      	mov	r2, r3
 8005de2:	68bb      	ldr	r3, [r7, #8]
 8005de4:	709a      	strb	r2, [r3, #2]
  }
  return HAL_OK;
 8005de6:	2300      	movs	r3, #0
}
 8005de8:	4618      	mov	r0, r3
 8005dea:	3718      	adds	r7, #24
 8005dec:	46bd      	mov	sp, r7
 8005dee:	bd80      	pop	{r7, pc}

08005df0 <HAL_RTC_WaitForSynchro>:
  * @param  hrtc pointer to a RTC_HandleTypeDef structure that contains
  *                the configuration information for RTC.
  * @retval HAL status
  */
HAL_StatusTypeDef HAL_RTC_WaitForSynchro(RTC_HandleTypeDef *hrtc)
{
 8005df0:	b580      	push	{r7, lr}
 8005df2:	b084      	sub	sp, #16
 8005df4:	af00      	add	r7, sp, #0
 8005df6:	6078      	str	r0, [r7, #4]
  uint32_t tickstart = 0U;
 8005df8:	2300      	movs	r3, #0
 8005dfa:	60fb      	str	r3, [r7, #12]

  /* Clear RSF flag, keep reserved bits at reset values (setting other flags has no effect) */
  hrtc->Instance->ISR = ((uint32_t)(RTC_RSF_MASK & RTC_ISR_RESERVED_MASK));
 8005dfc:	687b      	ldr	r3, [r7, #4]
 8005dfe:	681b      	ldr	r3, [r3, #0]
 8005e00:	4a0d      	ldr	r2, [pc, #52]	; (8005e38 <HAL_RTC_WaitForSynchro+0x48>)
 8005e02:	60da      	str	r2, [r3, #12]

  /* Get tick */
  tickstart = HAL_GetTick();
 8005e04:	f7fc fee0 	bl	8002bc8 <HAL_GetTick>
 8005e08:	60f8      	str	r0, [r7, #12]

  /* Wait the registers to be synchronised */
  while ((hrtc->Instance->ISR & RTC_ISR_RSF) == 0U)
 8005e0a:	e009      	b.n	8005e20 <HAL_RTC_WaitForSynchro+0x30>
  {
    if ((HAL_GetTick() - tickstart) > RTC_TIMEOUT_VALUE)
 8005e0c:	f7fc fedc 	bl	8002bc8 <HAL_GetTick>
 8005e10:	4602      	mov	r2, r0
 8005e12:	68fb      	ldr	r3, [r7, #12]
 8005e14:	1ad3      	subs	r3, r2, r3
 8005e16:	f5b3 7f7a 	cmp.w	r3, #1000	; 0x3e8
 8005e1a:	d901      	bls.n	8005e20 <HAL_RTC_WaitForSynchro+0x30>
    {
      return HAL_TIMEOUT;
 8005e1c:	2303      	movs	r3, #3
 8005e1e:	e007      	b.n	8005e30 <HAL_RTC_WaitForSynchro+0x40>
  while ((hrtc->Instance->ISR & RTC_ISR_RSF) == 0U)
 8005e20:	687b      	ldr	r3, [r7, #4]
 8005e22:	681b      	ldr	r3, [r3, #0]
 8005e24:	68db      	ldr	r3, [r3, #12]
 8005e26:	f003 0320 	and.w	r3, r3, #32
 8005e2a:	2b00      	cmp	r3, #0
 8005e2c:	d0ee      	beq.n	8005e0c <HAL_RTC_WaitForSynchro+0x1c>
    }
  }

  return HAL_OK;
 8005e2e:	2300      	movs	r3, #0
}
 8005e30:	4618      	mov	r0, r3
 8005e32:	3710      	adds	r7, #16
 8005e34:	46bd      	mov	sp, r7
 8005e36:	bd80      	pop	{r7, pc}
 8005e38:	00017f5f 	.word	0x00017f5f

08005e3c <RTC_EnterInitMode>:
  * @param  hrtc pointer to a RTC_HandleTypeDef structure that contains
  *                the configuration information for RTC.
  * @retval HAL status
  */
HAL_StatusTypeDef RTC_EnterInitMode(RTC_HandleTypeDef *hrtc)
{
 8005e3c:	b580      	push	{r7, lr}
 8005e3e:	b084      	sub	sp, #16
 8005e40:	af00      	add	r7, sp, #0
 8005e42:	6078      	str	r0, [r7, #4]
  uint32_t tickstart = 0U;
 8005e44:	2300      	movs	r3, #0
 8005e46:	60bb      	str	r3, [r7, #8]
  HAL_StatusTypeDef status = HAL_OK;
 8005e48:	2300      	movs	r3, #0
 8005e4a:	73fb      	strb	r3, [r7, #15]

  /* Check that Initialization mode is not already set */
  if (READ_BIT(hrtc->Instance->ISR, RTC_ISR_INITF) == 0U)
 8005e4c:	687b      	ldr	r3, [r7, #4]
 8005e4e:	681b      	ldr	r3, [r3, #0]
 8005e50:	68db      	ldr	r3, [r3, #12]
 8005e52:	f003 0340 	and.w	r3, r3, #64	; 0x40
 8005e56:	2b00      	cmp	r3, #0
 8005e58:	d122      	bne.n	8005ea0 <RTC_EnterInitMode+0x64>
  {
    /* Set INIT bit to enter Initialization mode */
    SET_BIT(hrtc->Instance->ISR, RTC_ISR_INIT);
 8005e5a:	687b      	ldr	r3, [r7, #4]
 8005e5c:	681b      	ldr	r3, [r3, #0]
 8005e5e:	68da      	ldr	r2, [r3, #12]
 8005e60:	687b      	ldr	r3, [r7, #4]
 8005e62:	681b      	ldr	r3, [r3, #0]
 8005e64:	f042 0280 	orr.w	r2, r2, #128	; 0x80
 8005e68:	60da      	str	r2, [r3, #12]

    /* Get tick */
    tickstart = HAL_GetTick();
 8005e6a:	f7fc fead 	bl	8002bc8 <HAL_GetTick>
 8005e6e:	60b8      	str	r0, [r7, #8]

    /* Wait till RTC is in INIT state and if timeout is reached exit */
    while ((READ_BIT(hrtc->Instance->ISR, RTC_ISR_INITF) == 0U) && (status != HAL_ERROR))
 8005e70:	e00c      	b.n	8005e8c <RTC_EnterInitMode+0x50>
    {
      if ((HAL_GetTick() - tickstart) > RTC_TIMEOUT_VALUE)
 8005e72:	f7fc fea9 	bl	8002bc8 <HAL_GetTick>
 8005e76:	4602      	mov	r2, r0
 8005e78:	68bb      	ldr	r3, [r7, #8]
 8005e7a:	1ad3      	subs	r3, r2, r3
 8005e7c:	f5b3 7f7a 	cmp.w	r3, #1000	; 0x3e8
 8005e80:	d904      	bls.n	8005e8c <RTC_EnterInitMode+0x50>
      {
        /* Set RTC state */
        hrtc->State = HAL_RTC_STATE_ERROR;
 8005e82:	687b      	ldr	r3, [r7, #4]
 8005e84:	2204      	movs	r2, #4
 8005e86:	775a      	strb	r2, [r3, #29]
        status = HAL_ERROR;
 8005e88:	2301      	movs	r3, #1
 8005e8a:	73fb      	strb	r3, [r7, #15]
    while ((READ_BIT(hrtc->Instance->ISR, RTC_ISR_INITF) == 0U) && (status != HAL_ERROR))
 8005e8c:	687b      	ldr	r3, [r7, #4]
 8005e8e:	681b      	ldr	r3, [r3, #0]
 8005e90:	68db      	ldr	r3, [r3, #12]
 8005e92:	f003 0340 	and.w	r3, r3, #64	; 0x40
 8005e96:	2b00      	cmp	r3, #0
 8005e98:	d102      	bne.n	8005ea0 <RTC_EnterInitMode+0x64>
 8005e9a:	7bfb      	ldrb	r3, [r7, #15]
 8005e9c:	2b01      	cmp	r3, #1
 8005e9e:	d1e8      	bne.n	8005e72 <RTC_EnterInitMode+0x36>
      }
    }
  }

  return status;
 8005ea0:	7bfb      	ldrb	r3, [r7, #15]
}
 8005ea2:	4618      	mov	r0, r3
 8005ea4:	3710      	adds	r7, #16
 8005ea6:	46bd      	mov	sp, r7
 8005ea8:	bd80      	pop	{r7, pc}

08005eaa <RTC_ExitInitMode>:
  * @param  hrtc pointer to a RTC_HandleTypeDef structure that contains
  *                the configuration information for RTC.
  * @retval HAL status
  */
HAL_StatusTypeDef RTC_ExitInitMode(RTC_HandleTypeDef *hrtc)
{
 8005eaa:	b580      	push	{r7, lr}
 8005eac:	b084      	sub	sp, #16
 8005eae:	af00      	add	r7, sp, #0
 8005eb0:	6078      	str	r0, [r7, #4]
  HAL_StatusTypeDef status = HAL_OK;
 8005eb2:	2300      	movs	r3, #0
 8005eb4:	73fb      	strb	r3, [r7, #15]

  /* Clear INIT bit to exit Initialization mode */
  CLEAR_BIT(hrtc->Instance->ISR, RTC_ISR_INIT);
 8005eb6:	687b      	ldr	r3, [r7, #4]
 8005eb8:	681b      	ldr	r3, [r3, #0]
 8005eba:	68da      	ldr	r2, [r3, #12]
 8005ebc:	687b      	ldr	r3, [r7, #4]
 8005ebe:	681b      	ldr	r3, [r3, #0]
 8005ec0:	f022 0280 	bic.w	r2, r2, #128	; 0x80
 8005ec4:	60da      	str	r2, [r3, #12]

  /* If CR_BYPSHAD bit = 0, wait for synchro */
  if (READ_BIT(hrtc->Instance->CR, RTC_CR_BYPSHAD) == 0U)
 8005ec6:	687b      	ldr	r3, [r7, #4]
 8005ec8:	681b      	ldr	r3, [r3, #0]
 8005eca:	689b      	ldr	r3, [r3, #8]
 8005ecc:	f003 0320 	and.w	r3, r3, #32
 8005ed0:	2b00      	cmp	r3, #0
 8005ed2:	d10a      	bne.n	8005eea <RTC_ExitInitMode+0x40>
  {
    if (HAL_RTC_WaitForSynchro(hrtc) != HAL_OK)
 8005ed4:	6878      	ldr	r0, [r7, #4]
 8005ed6:	f7ff ff8b 	bl	8005df0 <HAL_RTC_WaitForSynchro>
 8005eda:	4603      	mov	r3, r0
 8005edc:	2b00      	cmp	r3, #0
 8005ede:	d004      	beq.n	8005eea <RTC_ExitInitMode+0x40>
    {
      /* Set RTC state */
      hrtc->State = HAL_RTC_STATE_ERROR;
 8005ee0:	687b      	ldr	r3, [r7, #4]
 8005ee2:	2204      	movs	r2, #4
 8005ee4:	775a      	strb	r2, [r3, #29]
      status = HAL_ERROR;
 8005ee6:	2301      	movs	r3, #1
 8005ee8:	73fb      	strb	r3, [r7, #15]
    }
  }

  return status;
 8005eea:	7bfb      	ldrb	r3, [r7, #15]
}
 8005eec:	4618      	mov	r0, r3
 8005eee:	3710      	adds	r7, #16
 8005ef0:	46bd      	mov	sp, r7
 8005ef2:	bd80      	pop	{r7, pc}

08005ef4 <RTC_ByteToBcd2>:
  * @brief  Converts a 2-digit number from decimal to BCD format.
  * @param  number decimal-formatted number (from 0 to 99) to be converted
  * @retval Converted byte
  */
uint8_t RTC_ByteToBcd2(uint8_t number)
{
 8005ef4:	b480      	push	{r7}
 8005ef6:	b085      	sub	sp, #20
 8005ef8:	af00      	add	r7, sp, #0
 8005efa:	4603      	mov	r3, r0
 8005efc:	71fb      	strb	r3, [r7, #7]
  uint32_t bcdhigh = 0U;
 8005efe:	2300      	movs	r3, #0
 8005f00:	60fb      	str	r3, [r7, #12]

  while (number >= 10U)
 8005f02:	e005      	b.n	8005f10 <RTC_ByteToBcd2+0x1c>
  {
    bcdhigh++;
 8005f04:	68fb      	ldr	r3, [r7, #12]
 8005f06:	3301      	adds	r3, #1
 8005f08:	60fb      	str	r3, [r7, #12]
    number -= 10U;
 8005f0a:	79fb      	ldrb	r3, [r7, #7]
 8005f0c:	3b0a      	subs	r3, #10
 8005f0e:	71fb      	strb	r3, [r7, #7]
  while (number >= 10U)
 8005f10:	79fb      	ldrb	r3, [r7, #7]
 8005f12:	2b09      	cmp	r3, #9
 8005f14:	d8f6      	bhi.n	8005f04 <RTC_ByteToBcd2+0x10>
  }

  return ((uint8_t)(bcdhigh << 4U) | number);
 8005f16:	68fb      	ldr	r3, [r7, #12]
 8005f18:	b2db      	uxtb	r3, r3
 8005f1a:	011b      	lsls	r3, r3, #4
 8005f1c:	b2da      	uxtb	r2, r3
 8005f1e:	79fb      	ldrb	r3, [r7, #7]
 8005f20:	4313      	orrs	r3, r2
 8005f22:	b2db      	uxtb	r3, r3
}
 8005f24:	4618      	mov	r0, r3
 8005f26:	3714      	adds	r7, #20
 8005f28:	46bd      	mov	sp, r7
 8005f2a:	f85d 7b04 	ldr.w	r7, [sp], #4
 8005f2e:	4770      	bx	lr

08005f30 <RTC_Bcd2ToByte>:
  * @brief  Converts a 2-digit number from BCD to decimal format.
  * @param  number BCD-formatted number (from 00 to 99) to be converted
  * @retval Converted word
  */
uint8_t RTC_Bcd2ToByte(uint8_t number)
{
 8005f30:	b480      	push	{r7}
 8005f32:	b085      	sub	sp, #20
 8005f34:	af00      	add	r7, sp, #0
 8005f36:	4603      	mov	r3, r0
 8005f38:	71fb      	strb	r3, [r7, #7]
  uint32_t tens = 0U;
 8005f3a:	2300      	movs	r3, #0
 8005f3c:	60fb      	str	r3, [r7, #12]
  tens = (((uint32_t)number & 0xF0U) >> 4U) * 10U;
 8005f3e:	79fb      	ldrb	r3, [r7, #7]
 8005f40:	091b      	lsrs	r3, r3, #4
 8005f42:	b2db      	uxtb	r3, r3
 8005f44:	461a      	mov	r2, r3
 8005f46:	4613      	mov	r3, r2
 8005f48:	009b      	lsls	r3, r3, #2
 8005f4a:	4413      	add	r3, r2
 8005f4c:	005b      	lsls	r3, r3, #1
 8005f4e:	60fb      	str	r3, [r7, #12]
  return (uint8_t)(tens + ((uint32_t)number & 0x0FU));
 8005f50:	68fb      	ldr	r3, [r7, #12]
 8005f52:	b2da      	uxtb	r2, r3
 8005f54:	79fb      	ldrb	r3, [r7, #7]
 8005f56:	f003 030f 	and.w	r3, r3, #15
 8005f5a:	b2db      	uxtb	r3, r3
 8005f5c:	4413      	add	r3, r2
 8005f5e:	b2db      	uxtb	r3, r3
}
 8005f60:	4618      	mov	r0, r3
 8005f62:	3714      	adds	r7, #20
 8005f64:	46bd      	mov	sp, r7
 8005f66:	f85d 7b04 	ldr.w	r7, [sp], #4
 8005f6a:	4770      	bx	lr

08005f6c <HAL_SPI_Init>:
  * @param  hspi pointer to a SPI_HandleTypeDef structure that contains
  *               the configuration information for SPI module.
  * @retval HAL status
  */
HAL_StatusTypeDef HAL_SPI_Init(SPI_HandleTypeDef *hspi)
{
 8005f6c:	b580      	push	{r7, lr}
 8005f6e:	b082      	sub	sp, #8
 8005f70:	af00      	add	r7, sp, #0
 8005f72:	6078      	str	r0, [r7, #4]
  /* Check the SPI handle allocation */
  if (hspi == NULL)
 8005f74:	687b      	ldr	r3, [r7, #4]
 8005f76:	2b00      	cmp	r3, #0
 8005f78:	d101      	bne.n	8005f7e <HAL_SPI_Init+0x12>
  {
    return HAL_ERROR;
 8005f7a:	2301      	movs	r3, #1
 8005f7c:	e07b      	b.n	8006076 <HAL_SPI_Init+0x10a>
  assert_param(IS_SPI_DATASIZE(hspi->Init.DataSize));
  assert_param(IS_SPI_NSS(hspi->Init.NSS));
  assert_param(IS_SPI_BAUDRATE_PRESCALER(hspi->Init.BaudRatePrescaler));
  assert_param(IS_SPI_FIRST_BIT(hspi->Init.FirstBit));
  assert_param(IS_SPI_TIMODE(hspi->Init.TIMode));
  if (hspi->Init.TIMode == SPI_TIMODE_DISABLE)
 8005f7e:	687b      	ldr	r3, [r7, #4]
 8005f80:	6a5b      	ldr	r3, [r3, #36]	; 0x24
 8005f82:	2b00      	cmp	r3, #0
 8005f84:	d108      	bne.n	8005f98 <HAL_SPI_Init+0x2c>
  {
    assert_param(IS_SPI_CPOL(hspi->Init.CLKPolarity));
    assert_param(IS_SPI_CPHA(hspi->Init.CLKPhase));

    if (hspi->Init.Mode == SPI_MODE_MASTER)
 8005f86:	687b      	ldr	r3, [r7, #4]
 8005f88:	685b      	ldr	r3, [r3, #4]
 8005f8a:	f5b3 7f82 	cmp.w	r3, #260	; 0x104
 8005f8e:	d009      	beq.n	8005fa4 <HAL_SPI_Init+0x38>
      assert_param(IS_SPI_BAUDRATE_PRESCALER(hspi->Init.BaudRatePrescaler));
    }
    else
    {
      /* Baudrate prescaler not use in Motoraola Slave mode. force to default value */
      hspi->Init.BaudRatePrescaler = SPI_BAUDRATEPRESCALER_2;
 8005f90:	687b      	ldr	r3, [r7, #4]
 8005f92:	2200      	movs	r2, #0
 8005f94:	61da      	str	r2, [r3, #28]
 8005f96:	e005      	b.n	8005fa4 <HAL_SPI_Init+0x38>
  else
  {
    assert_param(IS_SPI_BAUDRATE_PRESCALER(hspi->Init.BaudRatePrescaler));

    /* Force polarity and phase to TI protocaol requirements */
    hspi->Init.CLKPolarity = SPI_POLARITY_LOW;
 8005f98:	687b      	ldr	r3, [r7, #4]
 8005f9a:	2200      	movs	r2, #0
 8005f9c:	611a      	str	r2, [r3, #16]
    hspi->Init.CLKPhase    = SPI_PHASE_1EDGE;
 8005f9e:	687b      	ldr	r3, [r7, #4]
 8005fa0:	2200      	movs	r2, #0
 8005fa2:	615a      	str	r2, [r3, #20]
  if (hspi->Init.CRCCalculation == SPI_CRCCALCULATION_ENABLE)
  {
    assert_param(IS_SPI_CRC_POLYNOMIAL(hspi->Init.CRCPolynomial));
  }
#else
  hspi->Init.CRCCalculation = SPI_CRCCALCULATION_DISABLE;
 8005fa4:	687b      	ldr	r3, [r7, #4]
 8005fa6:	2200      	movs	r2, #0
 8005fa8:	629a      	str	r2, [r3, #40]	; 0x28
#endif /* USE_SPI_CRC */

  if (hspi->State == HAL_SPI_STATE_RESET)
 8005faa:	687b      	ldr	r3, [r7, #4]
 8005fac:	f893 3051 	ldrb.w	r3, [r3, #81]	; 0x51
 8005fb0:	b2db      	uxtb	r3, r3
 8005fb2:	2b00      	cmp	r3, #0
 8005fb4:	d106      	bne.n	8005fc4 <HAL_SPI_Init+0x58>
  {
    /* Allocate lock resource and initialize it */
    hspi->Lock = HAL_UNLOCKED;
 8005fb6:	687b      	ldr	r3, [r7, #4]
 8005fb8:	2200      	movs	r2, #0
 8005fba:	f883 2050 	strb.w	r2, [r3, #80]	; 0x50

    /* Init the low level hardware : GPIO, CLOCK, NVIC... */
    hspi->MspInitCallback(hspi);
#else
    /* Init the low level hardware : GPIO, CLOCK, NVIC... */
    HAL_SPI_MspInit(hspi);
 8005fbe:	6878      	ldr	r0, [r7, #4]
 8005fc0:	f7fc fad0 	bl	8002564 <HAL_SPI_MspInit>
#endif /* USE_HAL_SPI_REGISTER_CALLBACKS */
  }

  hspi->State = HAL_SPI_STATE_BUSY;
 8005fc4:	687b      	ldr	r3, [r7, #4]
 8005fc6:	2202      	movs	r2, #2
 8005fc8:	f883 2051 	strb.w	r2, [r3, #81]	; 0x51

  /* Disable the selected SPI peripheral */
  __HAL_SPI_DISABLE(hspi);
 8005fcc:	687b      	ldr	r3, [r7, #4]
 8005fce:	681b      	ldr	r3, [r3, #0]
 8005fd0:	681a      	ldr	r2, [r3, #0]
 8005fd2:	687b      	ldr	r3, [r7, #4]
 8005fd4:	681b      	ldr	r3, [r3, #0]
 8005fd6:	f022 0240 	bic.w	r2, r2, #64	; 0x40
 8005fda:	601a      	str	r2, [r3, #0]

  /*----------------------- SPIx CR1 & CR2 Configuration ---------------------*/
  /* Configure : SPI Mode, Communication Mode, Data size, Clock polarity and phase, NSS management,
  Communication speed, First bit and CRC calculation state */
  WRITE_REG(hspi->Instance->CR1, ((hspi->Init.Mode & (SPI_CR1_MSTR | SPI_CR1_SSI)) |
 8005fdc:	687b      	ldr	r3, [r7, #4]
 8005fde:	685b      	ldr	r3, [r3, #4]
 8005fe0:	f403 7282 	and.w	r2, r3, #260	; 0x104
 8005fe4:	687b      	ldr	r3, [r7, #4]
 8005fe6:	689b      	ldr	r3, [r3, #8]
 8005fe8:	f403 4304 	and.w	r3, r3, #33792	; 0x8400
 8005fec:	431a      	orrs	r2, r3
 8005fee:	687b      	ldr	r3, [r7, #4]
 8005ff0:	68db      	ldr	r3, [r3, #12]
 8005ff2:	f403 6300 	and.w	r3, r3, #2048	; 0x800
 8005ff6:	431a      	orrs	r2, r3
 8005ff8:	687b      	ldr	r3, [r7, #4]
 8005ffa:	691b      	ldr	r3, [r3, #16]
 8005ffc:	f003 0302 	and.w	r3, r3, #2
 8006000:	431a      	orrs	r2, r3
 8006002:	687b      	ldr	r3, [r7, #4]
 8006004:	695b      	ldr	r3, [r3, #20]
 8006006:	f003 0301 	and.w	r3, r3, #1
 800600a:	431a      	orrs	r2, r3
 800600c:	687b      	ldr	r3, [r7, #4]
 800600e:	699b      	ldr	r3, [r3, #24]
 8006010:	f403 7300 	and.w	r3, r3, #512	; 0x200
 8006014:	431a      	orrs	r2, r3
 8006016:	687b      	ldr	r3, [r7, #4]
 8006018:	69db      	ldr	r3, [r3, #28]
 800601a:	f003 0338 	and.w	r3, r3, #56	; 0x38
 800601e:	431a      	orrs	r2, r3
 8006020:	687b      	ldr	r3, [r7, #4]
 8006022:	6a1b      	ldr	r3, [r3, #32]
 8006024:	f003 0380 	and.w	r3, r3, #128	; 0x80
 8006028:	ea42 0103 	orr.w	r1, r2, r3
 800602c:	687b      	ldr	r3, [r7, #4]
 800602e:	6a9b      	ldr	r3, [r3, #40]	; 0x28
 8006030:	f403 5200 	and.w	r2, r3, #8192	; 0x2000
 8006034:	687b      	ldr	r3, [r7, #4]
 8006036:	681b      	ldr	r3, [r3, #0]
 8006038:	430a      	orrs	r2, r1
 800603a:	601a      	str	r2, [r3, #0]
                                  (hspi->Init.BaudRatePrescaler & SPI_CR1_BR_Msk) |
                                  (hspi->Init.FirstBit  & SPI_CR1_LSBFIRST) |
                                  (hspi->Init.CRCCalculation & SPI_CR1_CRCEN)));

  /* Configure : NSS management, TI Mode */
  WRITE_REG(hspi->Instance->CR2, (((hspi->Init.NSS >> 16U) & SPI_CR2_SSOE) | (hspi->Init.TIMode & SPI_CR2_FRF)));
 800603c:	687b      	ldr	r3, [r7, #4]
 800603e:	699b      	ldr	r3, [r3, #24]
 8006040:	0c1b      	lsrs	r3, r3, #16
 8006042:	f003 0104 	and.w	r1, r3, #4
 8006046:	687b      	ldr	r3, [r7, #4]
 8006048:	6a5b      	ldr	r3, [r3, #36]	; 0x24
 800604a:	f003 0210 	and.w	r2, r3, #16
 800604e:	687b      	ldr	r3, [r7, #4]
 8006050:	681b      	ldr	r3, [r3, #0]
 8006052:	430a      	orrs	r2, r1
 8006054:	605a      	str	r2, [r3, #4]
  }
#endif /* USE_SPI_CRC */

#if defined(SPI_I2SCFGR_I2SMOD)
  /* Activate the SPI mode (Make sure that I2SMOD bit in I2SCFGR register is reset) */
  CLEAR_BIT(hspi->Instance->I2SCFGR, SPI_I2SCFGR_I2SMOD);
 8006056:	687b      	ldr	r3, [r7, #4]
 8006058:	681b      	ldr	r3, [r3, #0]
 800605a:	69da      	ldr	r2, [r3, #28]
 800605c:	687b      	ldr	r3, [r7, #4]
 800605e:	681b      	ldr	r3, [r3, #0]
 8006060:	f422 6200 	bic.w	r2, r2, #2048	; 0x800
 8006064:	61da      	str	r2, [r3, #28]
#endif /* SPI_I2SCFGR_I2SMOD */

  hspi->ErrorCode = HAL_SPI_ERROR_NONE;
 8006066:	687b      	ldr	r3, [r7, #4]
 8006068:	2200      	movs	r2, #0
 800606a:	655a      	str	r2, [r3, #84]	; 0x54
  hspi->State     = HAL_SPI_STATE_READY;
 800606c:	687b      	ldr	r3, [r7, #4]
 800606e:	2201      	movs	r2, #1
 8006070:	f883 2051 	strb.w	r2, [r3, #81]	; 0x51

  return HAL_OK;
 8006074:	2300      	movs	r3, #0
}
 8006076:	4618      	mov	r0, r3
 8006078:	3708      	adds	r7, #8
 800607a:	46bd      	mov	sp, r7
 800607c:	bd80      	pop	{r7, pc}

0800607e <HAL_SPI_Transmit>:
  * @param  Size amount of data to be sent
  * @param  Timeout Timeout duration
  * @retval HAL status
  */
HAL_StatusTypeDef HAL_SPI_Transmit(SPI_HandleTypeDef *hspi, uint8_t *pData, uint16_t Size, uint32_t Timeout)
{
 800607e:	b580      	push	{r7, lr}
 8006080:	b088      	sub	sp, #32
 8006082:	af00      	add	r7, sp, #0
 8006084:	60f8      	str	r0, [r7, #12]
 8006086:	60b9      	str	r1, [r7, #8]
 8006088:	603b      	str	r3, [r7, #0]
 800608a:	4613      	mov	r3, r2
 800608c:	80fb      	strh	r3, [r7, #6]
  uint32_t tickstart;
  HAL_StatusTypeDef errorcode = HAL_OK;
 800608e:	2300      	movs	r3, #0
 8006090:	77fb      	strb	r3, [r7, #31]

  /* Check Direction parameter */
  assert_param(IS_SPI_DIRECTION_2LINES_OR_1LINE(hspi->Init.Direction));

  /* Process Locked */
  __HAL_LOCK(hspi);
 8006092:	68fb      	ldr	r3, [r7, #12]
 8006094:	f893 3050 	ldrb.w	r3, [r3, #80]	; 0x50
 8006098:	2b01      	cmp	r3, #1
 800609a:	d101      	bne.n	80060a0 <HAL_SPI_Transmit+0x22>
 800609c:	2302      	movs	r3, #2
 800609e:	e12d      	b.n	80062fc <HAL_SPI_Transmit+0x27e>
 80060a0:	68fb      	ldr	r3, [r7, #12]
 80060a2:	2201      	movs	r2, #1
 80060a4:	f883 2050 	strb.w	r2, [r3, #80]	; 0x50

  /* Init tickstart for timeout management*/
  tickstart = HAL_GetTick();
 80060a8:	f7fc fd8e 	bl	8002bc8 <HAL_GetTick>
 80060ac:	61b8      	str	r0, [r7, #24]
  initial_TxXferCount = Size;
 80060ae:	88fb      	ldrh	r3, [r7, #6]
 80060b0:	82fb      	strh	r3, [r7, #22]

  if (hspi->State != HAL_SPI_STATE_READY)
 80060b2:	68fb      	ldr	r3, [r7, #12]
 80060b4:	f893 3051 	ldrb.w	r3, [r3, #81]	; 0x51
 80060b8:	b2db      	uxtb	r3, r3
 80060ba:	2b01      	cmp	r3, #1
 80060bc:	d002      	beq.n	80060c4 <HAL_SPI_Transmit+0x46>
  {
    errorcode = HAL_BUSY;
 80060be:	2302      	movs	r3, #2
 80060c0:	77fb      	strb	r3, [r7, #31]
    goto error;
 80060c2:	e116      	b.n	80062f2 <HAL_SPI_Transmit+0x274>
  }

  if ((pData == NULL) || (Size == 0U))
 80060c4:	68bb      	ldr	r3, [r7, #8]
 80060c6:	2b00      	cmp	r3, #0
 80060c8:	d002      	beq.n	80060d0 <HAL_SPI_Transmit+0x52>
 80060ca:	88fb      	ldrh	r3, [r7, #6]
 80060cc:	2b00      	cmp	r3, #0
 80060ce:	d102      	bne.n	80060d6 <HAL_SPI_Transmit+0x58>
  {
    errorcode = HAL_ERROR;
 80060d0:	2301      	movs	r3, #1
 80060d2:	77fb      	strb	r3, [r7, #31]
    goto error;
 80060d4:	e10d      	b.n	80062f2 <HAL_SPI_Transmit+0x274>
  }

  /* Set the transaction information */
  hspi->State       = HAL_SPI_STATE_BUSY_TX;
 80060d6:	68fb      	ldr	r3, [r7, #12]
 80060d8:	2203      	movs	r2, #3
 80060da:	f883 2051 	strb.w	r2, [r3, #81]	; 0x51
  hspi->ErrorCode   = HAL_SPI_ERROR_NONE;
 80060de:	68fb      	ldr	r3, [r7, #12]
 80060e0:	2200      	movs	r2, #0
 80060e2:	655a      	str	r2, [r3, #84]	; 0x54
  hspi->pTxBuffPtr  = (uint8_t *)pData;
 80060e4:	68fb      	ldr	r3, [r7, #12]
 80060e6:	68ba      	ldr	r2, [r7, #8]
 80060e8:	631a      	str	r2, [r3, #48]	; 0x30
  hspi->TxXferSize  = Size;
 80060ea:	68fb      	ldr	r3, [r7, #12]
 80060ec:	88fa      	ldrh	r2, [r7, #6]
 80060ee:	869a      	strh	r2, [r3, #52]	; 0x34
  hspi->TxXferCount = Size;
 80060f0:	68fb      	ldr	r3, [r7, #12]
 80060f2:	88fa      	ldrh	r2, [r7, #6]
 80060f4:	86da      	strh	r2, [r3, #54]	; 0x36

  /*Init field not used in handle to zero */
  hspi->pRxBuffPtr  = (uint8_t *)NULL;
 80060f6:	68fb      	ldr	r3, [r7, #12]
 80060f8:	2200      	movs	r2, #0
 80060fa:	639a      	str	r2, [r3, #56]	; 0x38
  hspi->RxXferSize  = 0U;
 80060fc:	68fb      	ldr	r3, [r7, #12]
 80060fe:	2200      	movs	r2, #0
 8006100:	879a      	strh	r2, [r3, #60]	; 0x3c
  hspi->RxXferCount = 0U;
 8006102:	68fb      	ldr	r3, [r7, #12]
 8006104:	2200      	movs	r2, #0
 8006106:	87da      	strh	r2, [r3, #62]	; 0x3e
  hspi->TxISR       = NULL;
 8006108:	68fb      	ldr	r3, [r7, #12]
 800610a:	2200      	movs	r2, #0
 800610c:	645a      	str	r2, [r3, #68]	; 0x44
  hspi->RxISR       = NULL;
 800610e:	68fb      	ldr	r3, [r7, #12]
 8006110:	2200      	movs	r2, #0
 8006112:	641a      	str	r2, [r3, #64]	; 0x40

  /* Configure communication direction : 1Line */
  if (hspi->Init.Direction == SPI_DIRECTION_1LINE)
 8006114:	68fb      	ldr	r3, [r7, #12]
 8006116:	689b      	ldr	r3, [r3, #8]
 8006118:	f5b3 4f00 	cmp.w	r3, #32768	; 0x8000
 800611c:	d10f      	bne.n	800613e <HAL_SPI_Transmit+0xc0>
  {
    /* Disable SPI Peripheral before set 1Line direction (BIDIOE bit) */
    __HAL_SPI_DISABLE(hspi);
 800611e:	68fb      	ldr	r3, [r7, #12]
 8006120:	681b      	ldr	r3, [r3, #0]
 8006122:	681a      	ldr	r2, [r3, #0]
 8006124:	68fb      	ldr	r3, [r7, #12]
 8006126:	681b      	ldr	r3, [r3, #0]
 8006128:	f022 0240 	bic.w	r2, r2, #64	; 0x40
 800612c:	601a      	str	r2, [r3, #0]
    SPI_1LINE_TX(hspi);
 800612e:	68fb      	ldr	r3, [r7, #12]
 8006130:	681b      	ldr	r3, [r3, #0]
 8006132:	681a      	ldr	r2, [r3, #0]
 8006134:	68fb      	ldr	r3, [r7, #12]
 8006136:	681b      	ldr	r3, [r3, #0]
 8006138:	f442 4280 	orr.w	r2, r2, #16384	; 0x4000
 800613c:	601a      	str	r2, [r3, #0]
    SPI_RESET_CRC(hspi);
  }
#endif /* USE_SPI_CRC */

  /* Check if the SPI is already enabled */
  if ((hspi->Instance->CR1 & SPI_CR1_SPE) != SPI_CR1_SPE)
 800613e:	68fb      	ldr	r3, [r7, #12]
 8006140:	681b      	ldr	r3, [r3, #0]
 8006142:	681b      	ldr	r3, [r3, #0]
 8006144:	f003 0340 	and.w	r3, r3, #64	; 0x40
 8006148:	2b40      	cmp	r3, #64	; 0x40
 800614a:	d007      	beq.n	800615c <HAL_SPI_Transmit+0xde>
  {
    /* Enable SPI peripheral */
    __HAL_SPI_ENABLE(hspi);
 800614c:	68fb      	ldr	r3, [r7, #12]
 800614e:	681b      	ldr	r3, [r3, #0]
 8006150:	681a      	ldr	r2, [r3, #0]
 8006152:	68fb      	ldr	r3, [r7, #12]
 8006154:	681b      	ldr	r3, [r3, #0]
 8006156:	f042 0240 	orr.w	r2, r2, #64	; 0x40
 800615a:	601a      	str	r2, [r3, #0]
  }

  /* Transmit data in 16 Bit mode */
  if (hspi->Init.DataSize == SPI_DATASIZE_16BIT)
 800615c:	68fb      	ldr	r3, [r7, #12]
 800615e:	68db      	ldr	r3, [r3, #12]
 8006160:	f5b3 6f00 	cmp.w	r3, #2048	; 0x800
 8006164:	d14f      	bne.n	8006206 <HAL_SPI_Transmit+0x188>
  {
    if ((hspi->Init.Mode == SPI_MODE_SLAVE) || (initial_TxXferCount == 0x01U))
 8006166:	68fb      	ldr	r3, [r7, #12]
 8006168:	685b      	ldr	r3, [r3, #4]
 800616a:	2b00      	cmp	r3, #0
 800616c:	d002      	beq.n	8006174 <HAL_SPI_Transmit+0xf6>
 800616e:	8afb      	ldrh	r3, [r7, #22]
 8006170:	2b01      	cmp	r3, #1
 8006172:	d142      	bne.n	80061fa <HAL_SPI_Transmit+0x17c>
    {
      hspi->Instance->DR = *((uint16_t *)hspi->pTxBuffPtr);
 8006174:	68fb      	ldr	r3, [r7, #12]
 8006176:	6b1b      	ldr	r3, [r3, #48]	; 0x30
 8006178:	881a      	ldrh	r2, [r3, #0]
 800617a:	68fb      	ldr	r3, [r7, #12]
 800617c:	681b      	ldr	r3, [r3, #0]
 800617e:	60da      	str	r2, [r3, #12]
      hspi->pTxBuffPtr += sizeof(uint16_t);
 8006180:	68fb      	ldr	r3, [r7, #12]
 8006182:	6b1b      	ldr	r3, [r3, #48]	; 0x30
 8006184:	1c9a      	adds	r2, r3, #2
 8006186:	68fb      	ldr	r3, [r7, #12]
 8006188:	631a      	str	r2, [r3, #48]	; 0x30
      hspi->TxXferCount--;
 800618a:	68fb      	ldr	r3, [r7, #12]
 800618c:	8edb      	ldrh	r3, [r3, #54]	; 0x36
 800618e:	b29b      	uxth	r3, r3
 8006190:	3b01      	subs	r3, #1
 8006192:	b29a      	uxth	r2, r3
 8006194:	68fb      	ldr	r3, [r7, #12]
 8006196:	86da      	strh	r2, [r3, #54]	; 0x36
    }
    /* Transmit data in 16 Bit mode */
    while (hspi->TxXferCount > 0U)
 8006198:	e02f      	b.n	80061fa <HAL_SPI_Transmit+0x17c>
    {
      /* Wait until TXE flag is set to send data */
      if (__HAL_SPI_GET_FLAG(hspi, SPI_FLAG_TXE))
 800619a:	68fb      	ldr	r3, [r7, #12]
 800619c:	681b      	ldr	r3, [r3, #0]
 800619e:	689b      	ldr	r3, [r3, #8]
 80061a0:	f003 0302 	and.w	r3, r3, #2
 80061a4:	2b02      	cmp	r3, #2
 80061a6:	d112      	bne.n	80061ce <HAL_SPI_Transmit+0x150>
      {
        hspi->Instance->DR = *((uint16_t *)hspi->pTxBuffPtr);
 80061a8:	68fb      	ldr	r3, [r7, #12]
 80061aa:	6b1b      	ldr	r3, [r3, #48]	; 0x30
 80061ac:	881a      	ldrh	r2, [r3, #0]
 80061ae:	68fb      	ldr	r3, [r7, #12]
 80061b0:	681b      	ldr	r3, [r3, #0]
 80061b2:	60da      	str	r2, [r3, #12]
        hspi->pTxBuffPtr += sizeof(uint16_t);
 80061b4:	68fb      	ldr	r3, [r7, #12]
 80061b6:	6b1b      	ldr	r3, [r3, #48]	; 0x30
 80061b8:	1c9a      	adds	r2, r3, #2
 80061ba:	68fb      	ldr	r3, [r7, #12]
 80061bc:	631a      	str	r2, [r3, #48]	; 0x30
        hspi->TxXferCount--;
 80061be:	68fb      	ldr	r3, [r7, #12]
 80061c0:	8edb      	ldrh	r3, [r3, #54]	; 0x36
 80061c2:	b29b      	uxth	r3, r3
 80061c4:	3b01      	subs	r3, #1
 80061c6:	b29a      	uxth	r2, r3
 80061c8:	68fb      	ldr	r3, [r7, #12]
 80061ca:	86da      	strh	r2, [r3, #54]	; 0x36
 80061cc:	e015      	b.n	80061fa <HAL_SPI_Transmit+0x17c>
      }
      else
      {
        /* Timeout management */
        if ((((HAL_GetTick() - tickstart) >=  Timeout) && (Timeout != HAL_MAX_DELAY)) || (Timeout == 0U))
 80061ce:	f7fc fcfb 	bl	8002bc8 <HAL_GetTick>
 80061d2:	4602      	mov	r2, r0
 80061d4:	69bb      	ldr	r3, [r7, #24]
 80061d6:	1ad3      	subs	r3, r2, r3
 80061d8:	683a      	ldr	r2, [r7, #0]
 80061da:	429a      	cmp	r2, r3
 80061dc:	d803      	bhi.n	80061e6 <HAL_SPI_Transmit+0x168>
 80061de:	683b      	ldr	r3, [r7, #0]
 80061e0:	f1b3 3fff 	cmp.w	r3, #4294967295	; 0xffffffff
 80061e4:	d102      	bne.n	80061ec <HAL_SPI_Transmit+0x16e>
 80061e6:	683b      	ldr	r3, [r7, #0]
 80061e8:	2b00      	cmp	r3, #0
 80061ea:	d106      	bne.n	80061fa <HAL_SPI_Transmit+0x17c>
        {
          errorcode = HAL_TIMEOUT;
 80061ec:	2303      	movs	r3, #3
 80061ee:	77fb      	strb	r3, [r7, #31]
          hspi->State = HAL_SPI_STATE_READY;
 80061f0:	68fb      	ldr	r3, [r7, #12]
 80061f2:	2201      	movs	r2, #1
 80061f4:	f883 2051 	strb.w	r2, [r3, #81]	; 0x51
          goto error;
 80061f8:	e07b      	b.n	80062f2 <HAL_SPI_Transmit+0x274>
    while (hspi->TxXferCount > 0U)
 80061fa:	68fb      	ldr	r3, [r7, #12]
 80061fc:	8edb      	ldrh	r3, [r3, #54]	; 0x36
 80061fe:	b29b      	uxth	r3, r3
 8006200:	2b00      	cmp	r3, #0
 8006202:	d1ca      	bne.n	800619a <HAL_SPI_Transmit+0x11c>
 8006204:	e050      	b.n	80062a8 <HAL_SPI_Transmit+0x22a>
    }
  }
  /* Transmit data in 8 Bit mode */
  else
  {
    if ((hspi->Init.Mode == SPI_MODE_SLAVE) || (initial_TxXferCount == 0x01U))
 8006206:	68fb      	ldr	r3, [r7, #12]
 8006208:	685b      	ldr	r3, [r3, #4]
 800620a:	2b00      	cmp	r3, #0
 800620c:	d002      	beq.n	8006214 <HAL_SPI_Transmit+0x196>
 800620e:	8afb      	ldrh	r3, [r7, #22]
 8006210:	2b01      	cmp	r3, #1
 8006212:	d144      	bne.n	800629e <HAL_SPI_Transmit+0x220>
    {
      *((__IO uint8_t *)&hspi->Instance->DR) = (*hspi->pTxBuffPtr);
 8006214:	68fb      	ldr	r3, [r7, #12]
 8006216:	6b1a      	ldr	r2, [r3, #48]	; 0x30
 8006218:	68fb      	ldr	r3, [r7, #12]
 800621a:	681b      	ldr	r3, [r3, #0]
 800621c:	330c      	adds	r3, #12
 800621e:	7812      	ldrb	r2, [r2, #0]
 8006220:	701a      	strb	r2, [r3, #0]
      hspi->pTxBuffPtr += sizeof(uint8_t);
 8006222:	68fb      	ldr	r3, [r7, #12]
 8006224:	6b1b      	ldr	r3, [r3, #48]	; 0x30
 8006226:	1c5a      	adds	r2, r3, #1
 8006228:	68fb      	ldr	r3, [r7, #12]
 800622a:	631a      	str	r2, [r3, #48]	; 0x30
      hspi->TxXferCount--;
 800622c:	68fb      	ldr	r3, [r7, #12]
 800622e:	8edb      	ldrh	r3, [r3, #54]	; 0x36
 8006230:	b29b      	uxth	r3, r3
 8006232:	3b01      	subs	r3, #1
 8006234:	b29a      	uxth	r2, r3
 8006236:	68fb      	ldr	r3, [r7, #12]
 8006238:	86da      	strh	r2, [r3, #54]	; 0x36
    }
    while (hspi->TxXferCount > 0U)
 800623a:	e030      	b.n	800629e <HAL_SPI_Transmit+0x220>
    {
      /* Wait until TXE flag is set to send data */
      if (__HAL_SPI_GET_FLAG(hspi, SPI_FLAG_TXE))
 800623c:	68fb      	ldr	r3, [r7, #12]
 800623e:	681b      	ldr	r3, [r3, #0]
 8006240:	689b      	ldr	r3, [r3, #8]
 8006242:	f003 0302 	and.w	r3, r3, #2
 8006246:	2b02      	cmp	r3, #2
 8006248:	d113      	bne.n	8006272 <HAL_SPI_Transmit+0x1f4>
      {
        *((__IO uint8_t *)&hspi->Instance->DR) = (*hspi->pTxBuffPtr);
 800624a:	68fb      	ldr	r3, [r7, #12]
 800624c:	6b1a      	ldr	r2, [r3, #48]	; 0x30
 800624e:	68fb      	ldr	r3, [r7, #12]
 8006250:	681b      	ldr	r3, [r3, #0]
 8006252:	330c      	adds	r3, #12
 8006254:	7812      	ldrb	r2, [r2, #0]
 8006256:	701a      	strb	r2, [r3, #0]
        hspi->pTxBuffPtr += sizeof(uint8_t);
 8006258:	68fb      	ldr	r3, [r7, #12]
 800625a:	6b1b      	ldr	r3, [r3, #48]	; 0x30
 800625c:	1c5a      	adds	r2, r3, #1
 800625e:	68fb      	ldr	r3, [r7, #12]
 8006260:	631a      	str	r2, [r3, #48]	; 0x30
        hspi->TxXferCount--;
 8006262:	68fb      	ldr	r3, [r7, #12]
 8006264:	8edb      	ldrh	r3, [r3, #54]	; 0x36
 8006266:	b29b      	uxth	r3, r3
 8006268:	3b01      	subs	r3, #1
 800626a:	b29a      	uxth	r2, r3
 800626c:	68fb      	ldr	r3, [r7, #12]
 800626e:	86da      	strh	r2, [r3, #54]	; 0x36
 8006270:	e015      	b.n	800629e <HAL_SPI_Transmit+0x220>
      }
      else
      {
        /* Timeout management */
        if ((((HAL_GetTick() - tickstart) >=  Timeout) && (Timeout != HAL_MAX_DELAY)) || (Timeout == 0U))
 8006272:	f7fc fca9 	bl	8002bc8 <HAL_GetTick>
 8006276:	4602      	mov	r2, r0
 8006278:	69bb      	ldr	r3, [r7, #24]
 800627a:	1ad3      	subs	r3, r2, r3
 800627c:	683a      	ldr	r2, [r7, #0]
 800627e:	429a      	cmp	r2, r3
 8006280:	d803      	bhi.n	800628a <HAL_SPI_Transmit+0x20c>
 8006282:	683b      	ldr	r3, [r7, #0]
 8006284:	f1b3 3fff 	cmp.w	r3, #4294967295	; 0xffffffff
 8006288:	d102      	bne.n	8006290 <HAL_SPI_Transmit+0x212>
 800628a:	683b      	ldr	r3, [r7, #0]
 800628c:	2b00      	cmp	r3, #0
 800628e:	d106      	bne.n	800629e <HAL_SPI_Transmit+0x220>
        {
          errorcode = HAL_TIMEOUT;
 8006290:	2303      	movs	r3, #3
 8006292:	77fb      	strb	r3, [r7, #31]
          hspi->State = HAL_SPI_STATE_READY;
 8006294:	68fb      	ldr	r3, [r7, #12]
 8006296:	2201      	movs	r2, #1
 8006298:	f883 2051 	strb.w	r2, [r3, #81]	; 0x51
          goto error;
 800629c:	e029      	b.n	80062f2 <HAL_SPI_Transmit+0x274>
    while (hspi->TxXferCount > 0U)
 800629e:	68fb      	ldr	r3, [r7, #12]
 80062a0:	8edb      	ldrh	r3, [r3, #54]	; 0x36
 80062a2:	b29b      	uxth	r3, r3
 80062a4:	2b00      	cmp	r3, #0
 80062a6:	d1c9      	bne.n	800623c <HAL_SPI_Transmit+0x1be>
    SET_BIT(hspi->Instance->CR1, SPI_CR1_CRCNEXT);
  }
#endif /* USE_SPI_CRC */

  /* Check the end of the transaction */
  if (SPI_EndRxTxTransaction(hspi, Timeout, tickstart) != HAL_OK)
 80062a8:	69ba      	ldr	r2, [r7, #24]
 80062aa:	6839      	ldr	r1, [r7, #0]
 80062ac:	68f8      	ldr	r0, [r7, #12]
 80062ae:	f000 fd27 	bl	8006d00 <SPI_EndRxTxTransaction>
 80062b2:	4603      	mov	r3, r0
 80062b4:	2b00      	cmp	r3, #0
 80062b6:	d002      	beq.n	80062be <HAL_SPI_Transmit+0x240>
  {
    hspi->ErrorCode = HAL_SPI_ERROR_FLAG;
 80062b8:	68fb      	ldr	r3, [r7, #12]
 80062ba:	2220      	movs	r2, #32
 80062bc:	655a      	str	r2, [r3, #84]	; 0x54
  }

  /* Clear overrun flag in 2 Lines communication mode because received is not read */
  if (hspi->Init.Direction == SPI_DIRECTION_2LINES)
 80062be:	68fb      	ldr	r3, [r7, #12]
 80062c0:	689b      	ldr	r3, [r3, #8]
 80062c2:	2b00      	cmp	r3, #0
 80062c4:	d10a      	bne.n	80062dc <HAL_SPI_Transmit+0x25e>
  {
    __HAL_SPI_CLEAR_OVRFLAG(hspi);
 80062c6:	2300      	movs	r3, #0
 80062c8:	613b      	str	r3, [r7, #16]
 80062ca:	68fb      	ldr	r3, [r7, #12]
 80062cc:	681b      	ldr	r3, [r3, #0]
 80062ce:	68db      	ldr	r3, [r3, #12]
 80062d0:	613b      	str	r3, [r7, #16]
 80062d2:	68fb      	ldr	r3, [r7, #12]
 80062d4:	681b      	ldr	r3, [r3, #0]
 80062d6:	689b      	ldr	r3, [r3, #8]
 80062d8:	613b      	str	r3, [r7, #16]
 80062da:	693b      	ldr	r3, [r7, #16]
  }

  if (hspi->ErrorCode != HAL_SPI_ERROR_NONE)
 80062dc:	68fb      	ldr	r3, [r7, #12]
 80062de:	6d5b      	ldr	r3, [r3, #84]	; 0x54
 80062e0:	2b00      	cmp	r3, #0
 80062e2:	d002      	beq.n	80062ea <HAL_SPI_Transmit+0x26c>
  {
    errorcode = HAL_ERROR;
 80062e4:	2301      	movs	r3, #1
 80062e6:	77fb      	strb	r3, [r7, #31]
 80062e8:	e003      	b.n	80062f2 <HAL_SPI_Transmit+0x274>
  }
  else
  {
    hspi->State = HAL_SPI_STATE_READY;
 80062ea:	68fb      	ldr	r3, [r7, #12]
 80062ec:	2201      	movs	r2, #1
 80062ee:	f883 2051 	strb.w	r2, [r3, #81]	; 0x51
  }

error:
  /* Process Unlocked */
  __HAL_UNLOCK(hspi);
 80062f2:	68fb      	ldr	r3, [r7, #12]
 80062f4:	2200      	movs	r2, #0
 80062f6:	f883 2050 	strb.w	r2, [r3, #80]	; 0x50
  return errorcode;
 80062fa:	7ffb      	ldrb	r3, [r7, #31]
}
 80062fc:	4618      	mov	r0, r3
 80062fe:	3720      	adds	r7, #32
 8006300:	46bd      	mov	sp, r7
 8006302:	bd80      	pop	{r7, pc}

08006304 <HAL_SPI_Receive>:
  * @param  Size amount of data to be received
  * @param  Timeout Timeout duration
  * @retval HAL status
  */
HAL_StatusTypeDef HAL_SPI_Receive(SPI_HandleTypeDef *hspi, uint8_t *pData, uint16_t Size, uint32_t Timeout)
{
 8006304:	b580      	push	{r7, lr}
 8006306:	b088      	sub	sp, #32
 8006308:	af02      	add	r7, sp, #8
 800630a:	60f8      	str	r0, [r7, #12]
 800630c:	60b9      	str	r1, [r7, #8]
 800630e:	603b      	str	r3, [r7, #0]
 8006310:	4613      	mov	r3, r2
 8006312:	80fb      	strh	r3, [r7, #6]
#if (USE_SPI_CRC != 0U)
  __IO uint32_t tmpreg = 0U;
#endif /* USE_SPI_CRC */
  uint32_t tickstart;
  HAL_StatusTypeDef errorcode = HAL_OK;
 8006314:	2300      	movs	r3, #0
 8006316:	75fb      	strb	r3, [r7, #23]

  if (hspi->State != HAL_SPI_STATE_READY)
 8006318:	68fb      	ldr	r3, [r7, #12]
 800631a:	f893 3051 	ldrb.w	r3, [r3, #81]	; 0x51
 800631e:	b2db      	uxtb	r3, r3
 8006320:	2b01      	cmp	r3, #1
 8006322:	d002      	beq.n	800632a <HAL_SPI_Receive+0x26>
  {
    errorcode = HAL_BUSY;
 8006324:	2302      	movs	r3, #2
 8006326:	75fb      	strb	r3, [r7, #23]
    goto error;
 8006328:	e0fb      	b.n	8006522 <HAL_SPI_Receive+0x21e>
  }

  if ((hspi->Init.Mode == SPI_MODE_MASTER) && (hspi->Init.Direction == SPI_DIRECTION_2LINES))
 800632a:	68fb      	ldr	r3, [r7, #12]
 800632c:	685b      	ldr	r3, [r3, #4]
 800632e:	f5b3 7f82 	cmp.w	r3, #260	; 0x104
 8006332:	d112      	bne.n	800635a <HAL_SPI_Receive+0x56>
 8006334:	68fb      	ldr	r3, [r7, #12]
 8006336:	689b      	ldr	r3, [r3, #8]
 8006338:	2b00      	cmp	r3, #0
 800633a:	d10e      	bne.n	800635a <HAL_SPI_Receive+0x56>
  {
    hspi->State = HAL_SPI_STATE_BUSY_RX;
 800633c:	68fb      	ldr	r3, [r7, #12]
 800633e:	2204      	movs	r2, #4
 8006340:	f883 2051 	strb.w	r2, [r3, #81]	; 0x51
    /* Call transmit-receive function to send Dummy data on Tx line and generate clock on CLK line */
    return HAL_SPI_TransmitReceive(hspi, pData, pData, Size, Timeout);
 8006344:	88fa      	ldrh	r2, [r7, #6]
 8006346:	683b      	ldr	r3, [r7, #0]
 8006348:	9300      	str	r3, [sp, #0]
 800634a:	4613      	mov	r3, r2
 800634c:	68ba      	ldr	r2, [r7, #8]
 800634e:	68b9      	ldr	r1, [r7, #8]
 8006350:	68f8      	ldr	r0, [r7, #12]
 8006352:	f000 f8ef 	bl	8006534 <HAL_SPI_TransmitReceive>
 8006356:	4603      	mov	r3, r0
 8006358:	e0e8      	b.n	800652c <HAL_SPI_Receive+0x228>
  }

  /* Process Locked */
  __HAL_LOCK(hspi);
 800635a:	68fb      	ldr	r3, [r7, #12]
 800635c:	f893 3050 	ldrb.w	r3, [r3, #80]	; 0x50
 8006360:	2b01      	cmp	r3, #1
 8006362:	d101      	bne.n	8006368 <HAL_SPI_Receive+0x64>
 8006364:	2302      	movs	r3, #2
 8006366:	e0e1      	b.n	800652c <HAL_SPI_Receive+0x228>
 8006368:	68fb      	ldr	r3, [r7, #12]
 800636a:	2201      	movs	r2, #1
 800636c:	f883 2050 	strb.w	r2, [r3, #80]	; 0x50

  /* Init tickstart for timeout management*/
  tickstart = HAL_GetTick();
 8006370:	f7fc fc2a 	bl	8002bc8 <HAL_GetTick>
 8006374:	6138      	str	r0, [r7, #16]

  if ((pData == NULL) || (Size == 0U))
 8006376:	68bb      	ldr	r3, [r7, #8]
 8006378:	2b00      	cmp	r3, #0
 800637a:	d002      	beq.n	8006382 <HAL_SPI_Receive+0x7e>
 800637c:	88fb      	ldrh	r3, [r7, #6]
 800637e:	2b00      	cmp	r3, #0
 8006380:	d102      	bne.n	8006388 <HAL_SPI_Receive+0x84>
  {
    errorcode = HAL_ERROR;
 8006382:	2301      	movs	r3, #1
 8006384:	75fb      	strb	r3, [r7, #23]
    goto error;
 8006386:	e0cc      	b.n	8006522 <HAL_SPI_Receive+0x21e>
  }

  /* Set the transaction information */
  hspi->State       = HAL_SPI_STATE_BUSY_RX;
 8006388:	68fb      	ldr	r3, [r7, #12]
 800638a:	2204      	movs	r2, #4
 800638c:	f883 2051 	strb.w	r2, [r3, #81]	; 0x51
  hspi->ErrorCode   = HAL_SPI_ERROR_NONE;
 8006390:	68fb      	ldr	r3, [r7, #12]
 8006392:	2200      	movs	r2, #0
 8006394:	655a      	str	r2, [r3, #84]	; 0x54
  hspi->pRxBuffPtr  = (uint8_t *)pData;
 8006396:	68fb      	ldr	r3, [r7, #12]
 8006398:	68ba      	ldr	r2, [r7, #8]
 800639a:	639a      	str	r2, [r3, #56]	; 0x38
  hspi->RxXferSize  = Size;
 800639c:	68fb      	ldr	r3, [r7, #12]
 800639e:	88fa      	ldrh	r2, [r7, #6]
 80063a0:	879a      	strh	r2, [r3, #60]	; 0x3c
  hspi->RxXferCount = Size;
 80063a2:	68fb      	ldr	r3, [r7, #12]
 80063a4:	88fa      	ldrh	r2, [r7, #6]
 80063a6:	87da      	strh	r2, [r3, #62]	; 0x3e

  /*Init field not used in handle to zero */
  hspi->pTxBuffPtr  = (uint8_t *)NULL;
 80063a8:	68fb      	ldr	r3, [r7, #12]
 80063aa:	2200      	movs	r2, #0
 80063ac:	631a      	str	r2, [r3, #48]	; 0x30
  hspi->TxXferSize  = 0U;
 80063ae:	68fb      	ldr	r3, [r7, #12]
 80063b0:	2200      	movs	r2, #0
 80063b2:	869a      	strh	r2, [r3, #52]	; 0x34
  hspi->TxXferCount = 0U;
 80063b4:	68fb      	ldr	r3, [r7, #12]
 80063b6:	2200      	movs	r2, #0
 80063b8:	86da      	strh	r2, [r3, #54]	; 0x36
  hspi->RxISR       = NULL;
 80063ba:	68fb      	ldr	r3, [r7, #12]
 80063bc:	2200      	movs	r2, #0
 80063be:	641a      	str	r2, [r3, #64]	; 0x40
  hspi->TxISR       = NULL;
 80063c0:	68fb      	ldr	r3, [r7, #12]
 80063c2:	2200      	movs	r2, #0
 80063c4:	645a      	str	r2, [r3, #68]	; 0x44
    hspi->RxXferCount--;
  }
#endif /* USE_SPI_CRC */

  /* Configure communication direction: 1Line */
  if (hspi->Init.Direction == SPI_DIRECTION_1LINE)
 80063c6:	68fb      	ldr	r3, [r7, #12]
 80063c8:	689b      	ldr	r3, [r3, #8]
 80063ca:	f5b3 4f00 	cmp.w	r3, #32768	; 0x8000
 80063ce:	d10f      	bne.n	80063f0 <HAL_SPI_Receive+0xec>
  {
    /* Disable SPI Peripheral before set 1Line direction (BIDIOE bit) */
    __HAL_SPI_DISABLE(hspi);
 80063d0:	68fb      	ldr	r3, [r7, #12]
 80063d2:	681b      	ldr	r3, [r3, #0]
 80063d4:	681a      	ldr	r2, [r3, #0]
 80063d6:	68fb      	ldr	r3, [r7, #12]
 80063d8:	681b      	ldr	r3, [r3, #0]
 80063da:	f022 0240 	bic.w	r2, r2, #64	; 0x40
 80063de:	601a      	str	r2, [r3, #0]
    SPI_1LINE_RX(hspi);
 80063e0:	68fb      	ldr	r3, [r7, #12]
 80063e2:	681b      	ldr	r3, [r3, #0]
 80063e4:	681a      	ldr	r2, [r3, #0]
 80063e6:	68fb      	ldr	r3, [r7, #12]
 80063e8:	681b      	ldr	r3, [r3, #0]
 80063ea:	f422 4280 	bic.w	r2, r2, #16384	; 0x4000
 80063ee:	601a      	str	r2, [r3, #0]
  }

  /* Check if the SPI is already enabled */
  if ((hspi->Instance->CR1 & SPI_CR1_SPE) != SPI_CR1_SPE)
 80063f0:	68fb      	ldr	r3, [r7, #12]
 80063f2:	681b      	ldr	r3, [r3, #0]
 80063f4:	681b      	ldr	r3, [r3, #0]
 80063f6:	f003 0340 	and.w	r3, r3, #64	; 0x40
 80063fa:	2b40      	cmp	r3, #64	; 0x40
 80063fc:	d007      	beq.n	800640e <HAL_SPI_Receive+0x10a>
  {
    /* Enable SPI peripheral */
    __HAL_SPI_ENABLE(hspi);
 80063fe:	68fb      	ldr	r3, [r7, #12]
 8006400:	681b      	ldr	r3, [r3, #0]
 8006402:	681a      	ldr	r2, [r3, #0]
 8006404:	68fb      	ldr	r3, [r7, #12]
 8006406:	681b      	ldr	r3, [r3, #0]
 8006408:	f042 0240 	orr.w	r2, r2, #64	; 0x40
 800640c:	601a      	str	r2, [r3, #0]
  }

  /* Receive data in 8 Bit mode */
  if (hspi->Init.DataSize == SPI_DATASIZE_8BIT)
 800640e:	68fb      	ldr	r3, [r7, #12]
 8006410:	68db      	ldr	r3, [r3, #12]
 8006412:	2b00      	cmp	r3, #0
 8006414:	d16a      	bne.n	80064ec <HAL_SPI_Receive+0x1e8>
  {
    /* Transfer loop */
    while (hspi->RxXferCount > 0U)
 8006416:	e032      	b.n	800647e <HAL_SPI_Receive+0x17a>
    {
      /* Check the RXNE flag */
      if (__HAL_SPI_GET_FLAG(hspi, SPI_FLAG_RXNE))
 8006418:	68fb      	ldr	r3, [r7, #12]
 800641a:	681b      	ldr	r3, [r3, #0]
 800641c:	689b      	ldr	r3, [r3, #8]
 800641e:	f003 0301 	and.w	r3, r3, #1
 8006422:	2b01      	cmp	r3, #1
 8006424:	d115      	bne.n	8006452 <HAL_SPI_Receive+0x14e>
      {
        /* read the received data */
        (* (uint8_t *)hspi->pRxBuffPtr) = *(__IO uint8_t *)&hspi->Instance->DR;
 8006426:	68fb      	ldr	r3, [r7, #12]
 8006428:	681b      	ldr	r3, [r3, #0]
 800642a:	f103 020c 	add.w	r2, r3, #12
 800642e:	68fb      	ldr	r3, [r7, #12]
 8006430:	6b9b      	ldr	r3, [r3, #56]	; 0x38
 8006432:	7812      	ldrb	r2, [r2, #0]
 8006434:	b2d2      	uxtb	r2, r2
 8006436:	701a      	strb	r2, [r3, #0]
        hspi->pRxBuffPtr += sizeof(uint8_t);
 8006438:	68fb      	ldr	r3, [r7, #12]
 800643a:	6b9b      	ldr	r3, [r3, #56]	; 0x38
 800643c:	1c5a      	adds	r2, r3, #1
 800643e:	68fb      	ldr	r3, [r7, #12]
 8006440:	639a      	str	r2, [r3, #56]	; 0x38
        hspi->RxXferCount--;
 8006442:	68fb      	ldr	r3, [r7, #12]
 8006444:	8fdb      	ldrh	r3, [r3, #62]	; 0x3e
 8006446:	b29b      	uxth	r3, r3
 8006448:	3b01      	subs	r3, #1
 800644a:	b29a      	uxth	r2, r3
 800644c:	68fb      	ldr	r3, [r7, #12]
 800644e:	87da      	strh	r2, [r3, #62]	; 0x3e
 8006450:	e015      	b.n	800647e <HAL_SPI_Receive+0x17a>
      }
      else
      {
        /* Timeout management */
        if ((((HAL_GetTick() - tickstart) >=  Timeout) && (Timeout != HAL_MAX_DELAY)) || (Timeout == 0U))
 8006452:	f7fc fbb9 	bl	8002bc8 <HAL_GetTick>
 8006456:	4602      	mov	r2, r0
 8006458:	693b      	ldr	r3, [r7, #16]
 800645a:	1ad3      	subs	r3, r2, r3
 800645c:	683a      	ldr	r2, [r7, #0]
 800645e:	429a      	cmp	r2, r3
 8006460:	d803      	bhi.n	800646a <HAL_SPI_Receive+0x166>
 8006462:	683b      	ldr	r3, [r7, #0]
 8006464:	f1b3 3fff 	cmp.w	r3, #4294967295	; 0xffffffff
 8006468:	d102      	bne.n	8006470 <HAL_SPI_Receive+0x16c>
 800646a:	683b      	ldr	r3, [r7, #0]
 800646c:	2b00      	cmp	r3, #0
 800646e:	d106      	bne.n	800647e <HAL_SPI_Receive+0x17a>
        {
          errorcode = HAL_TIMEOUT;
 8006470:	2303      	movs	r3, #3
 8006472:	75fb      	strb	r3, [r7, #23]
          hspi->State = HAL_SPI_STATE_READY;
 8006474:	68fb      	ldr	r3, [r7, #12]
 8006476:	2201      	movs	r2, #1
 8006478:	f883 2051 	strb.w	r2, [r3, #81]	; 0x51
          goto error;
 800647c:	e051      	b.n	8006522 <HAL_SPI_Receive+0x21e>
    while (hspi->RxXferCount > 0U)
 800647e:	68fb      	ldr	r3, [r7, #12]
 8006480:	8fdb      	ldrh	r3, [r3, #62]	; 0x3e
 8006482:	b29b      	uxth	r3, r3
 8006484:	2b00      	cmp	r3, #0
 8006486:	d1c7      	bne.n	8006418 <HAL_SPI_Receive+0x114>
 8006488:	e035      	b.n	80064f6 <HAL_SPI_Receive+0x1f2>
  {
    /* Transfer loop */
    while (hspi->RxXferCount > 0U)
    {
      /* Check the RXNE flag */
      if (__HAL_SPI_GET_FLAG(hspi, SPI_FLAG_RXNE))
 800648a:	68fb      	ldr	r3, [r7, #12]
 800648c:	681b      	ldr	r3, [r3, #0]
 800648e:	689b      	ldr	r3, [r3, #8]
 8006490:	f003 0301 	and.w	r3, r3, #1
 8006494:	2b01      	cmp	r3, #1
 8006496:	d113      	bne.n	80064c0 <HAL_SPI_Receive+0x1bc>
      {
        *((uint16_t *)hspi->pRxBuffPtr) = (uint16_t)hspi->Instance->DR;
 8006498:	68fb      	ldr	r3, [r7, #12]
 800649a:	681b      	ldr	r3, [r3, #0]
 800649c:	68da      	ldr	r2, [r3, #12]
 800649e:	68fb      	ldr	r3, [r7, #12]
 80064a0:	6b9b      	ldr	r3, [r3, #56]	; 0x38
 80064a2:	b292      	uxth	r2, r2
 80064a4:	801a      	strh	r2, [r3, #0]
        hspi->pRxBuffPtr += sizeof(uint16_t);
 80064a6:	68fb      	ldr	r3, [r7, #12]
 80064a8:	6b9b      	ldr	r3, [r3, #56]	; 0x38
 80064aa:	1c9a      	adds	r2, r3, #2
 80064ac:	68fb      	ldr	r3, [r7, #12]
 80064ae:	639a      	str	r2, [r3, #56]	; 0x38
        hspi->RxXferCount--;
 80064b0:	68fb      	ldr	r3, [r7, #12]
 80064b2:	8fdb      	ldrh	r3, [r3, #62]	; 0x3e
 80064b4:	b29b      	uxth	r3, r3
 80064b6:	3b01      	subs	r3, #1
 80064b8:	b29a      	uxth	r2, r3
 80064ba:	68fb      	ldr	r3, [r7, #12]
 80064bc:	87da      	strh	r2, [r3, #62]	; 0x3e
 80064be:	e015      	b.n	80064ec <HAL_SPI_Receive+0x1e8>
      }
      else
      {
        /* Timeout management */
        if ((((HAL_GetTick() - tickstart) >=  Timeout) && (Timeout != HAL_MAX_DELAY)) || (Timeout == 0U))
 80064c0:	f7fc fb82 	bl	8002bc8 <HAL_GetTick>
 80064c4:	4602      	mov	r2, r0
 80064c6:	693b      	ldr	r3, [r7, #16]
 80064c8:	1ad3      	subs	r3, r2, r3
 80064ca:	683a      	ldr	r2, [r7, #0]
 80064cc:	429a      	cmp	r2, r3
 80064ce:	d803      	bhi.n	80064d8 <HAL_SPI_Receive+0x1d4>
 80064d0:	683b      	ldr	r3, [r7, #0]
 80064d2:	f1b3 3fff 	cmp.w	r3, #4294967295	; 0xffffffff
 80064d6:	d102      	bne.n	80064de <HAL_SPI_Receive+0x1da>
 80064d8:	683b      	ldr	r3, [r7, #0]
 80064da:	2b00      	cmp	r3, #0
 80064dc:	d106      	bne.n	80064ec <HAL_SPI_Receive+0x1e8>
        {
          errorcode = HAL_TIMEOUT;
 80064de:	2303      	movs	r3, #3
 80064e0:	75fb      	strb	r3, [r7, #23]
          hspi->State = HAL_SPI_STATE_READY;
 80064e2:	68fb      	ldr	r3, [r7, #12]
 80064e4:	2201      	movs	r2, #1
 80064e6:	f883 2051 	strb.w	r2, [r3, #81]	; 0x51
          goto error;
 80064ea:	e01a      	b.n	8006522 <HAL_SPI_Receive+0x21e>
    while (hspi->RxXferCount > 0U)
 80064ec:	68fb      	ldr	r3, [r7, #12]
 80064ee:	8fdb      	ldrh	r3, [r3, #62]	; 0x3e
 80064f0:	b29b      	uxth	r3, r3
 80064f2:	2b00      	cmp	r3, #0
 80064f4:	d1c9      	bne.n	800648a <HAL_SPI_Receive+0x186>
    UNUSED(tmpreg);
  }
#endif /* USE_SPI_CRC */

  /* Check the end of the transaction */
  if (SPI_EndRxTransaction(hspi, Timeout, tickstart) != HAL_OK)
 80064f6:	693a      	ldr	r2, [r7, #16]
 80064f8:	6839      	ldr	r1, [r7, #0]
 80064fa:	68f8      	ldr	r0, [r7, #12]
 80064fc:	f000 fb9a 	bl	8006c34 <SPI_EndRxTransaction>
 8006500:	4603      	mov	r3, r0
 8006502:	2b00      	cmp	r3, #0
 8006504:	d002      	beq.n	800650c <HAL_SPI_Receive+0x208>
  {
    hspi->ErrorCode = HAL_SPI_ERROR_FLAG;
 8006506:	68fb      	ldr	r3, [r7, #12]
 8006508:	2220      	movs	r2, #32
 800650a:	655a      	str	r2, [r3, #84]	; 0x54
    SET_BIT(hspi->ErrorCode, HAL_SPI_ERROR_CRC);
    __HAL_SPI_CLEAR_CRCERRFLAG(hspi);
  }
#endif /* USE_SPI_CRC */

  if (hspi->ErrorCode != HAL_SPI_ERROR_NONE)
 800650c:	68fb      	ldr	r3, [r7, #12]
 800650e:	6d5b      	ldr	r3, [r3, #84]	; 0x54
 8006510:	2b00      	cmp	r3, #0
 8006512:	d002      	beq.n	800651a <HAL_SPI_Receive+0x216>
  {
    errorcode = HAL_ERROR;
 8006514:	2301      	movs	r3, #1
 8006516:	75fb      	strb	r3, [r7, #23]
 8006518:	e003      	b.n	8006522 <HAL_SPI_Receive+0x21e>
  }
  else
  {
    hspi->State = HAL_SPI_STATE_READY;
 800651a:	68fb      	ldr	r3, [r7, #12]
 800651c:	2201      	movs	r2, #1
 800651e:	f883 2051 	strb.w	r2, [r3, #81]	; 0x51
  }

error :
  __HAL_UNLOCK(hspi);
 8006522:	68fb      	ldr	r3, [r7, #12]
 8006524:	2200      	movs	r2, #0
 8006526:	f883 2050 	strb.w	r2, [r3, #80]	; 0x50
  return errorcode;
 800652a:	7dfb      	ldrb	r3, [r7, #23]
}
 800652c:	4618      	mov	r0, r3
 800652e:	3718      	adds	r7, #24
 8006530:	46bd      	mov	sp, r7
 8006532:	bd80      	pop	{r7, pc}

08006534 <HAL_SPI_TransmitReceive>:
  * @param  Timeout Timeout duration
  * @retval HAL status
  */
HAL_StatusTypeDef HAL_SPI_TransmitReceive(SPI_HandleTypeDef *hspi, uint8_t *pTxData, uint8_t *pRxData, uint16_t Size,
                                          uint32_t Timeout)
{
 8006534:	b580      	push	{r7, lr}
 8006536:	b08c      	sub	sp, #48	; 0x30
 8006538:	af00      	add	r7, sp, #0
 800653a:	60f8      	str	r0, [r7, #12]
 800653c:	60b9      	str	r1, [r7, #8]
 800653e:	607a      	str	r2, [r7, #4]
 8006540:	807b      	strh	r3, [r7, #2]
#if (USE_SPI_CRC != 0U)
  __IO uint32_t tmpreg = 0U;
#endif /* USE_SPI_CRC */

  /* Variable used to alternate Rx and Tx during transfer */
  uint32_t             txallowed = 1U;
 8006542:	2301      	movs	r3, #1
 8006544:	62fb      	str	r3, [r7, #44]	; 0x2c
  HAL_StatusTypeDef    errorcode = HAL_OK;
 8006546:	2300      	movs	r3, #0
 8006548:	f887 302b 	strb.w	r3, [r7, #43]	; 0x2b

  /* Check Direction parameter */
  assert_param(IS_SPI_DIRECTION_2LINES(hspi->Init.Direction));

  /* Process Locked */
  __HAL_LOCK(hspi);
 800654c:	68fb      	ldr	r3, [r7, #12]
 800654e:	f893 3050 	ldrb.w	r3, [r3, #80]	; 0x50
 8006552:	2b01      	cmp	r3, #1
 8006554:	d101      	bne.n	800655a <HAL_SPI_TransmitReceive+0x26>
 8006556:	2302      	movs	r3, #2
 8006558:	e198      	b.n	800688c <HAL_SPI_TransmitReceive+0x358>
 800655a:	68fb      	ldr	r3, [r7, #12]
 800655c:	2201      	movs	r2, #1
 800655e:	f883 2050 	strb.w	r2, [r3, #80]	; 0x50

  /* Init tickstart for timeout management*/
  tickstart = HAL_GetTick();
 8006562:	f7fc fb31 	bl	8002bc8 <HAL_GetTick>
 8006566:	6278      	str	r0, [r7, #36]	; 0x24

  /* Init temporary variables */
  tmp_state           = hspi->State;
 8006568:	68fb      	ldr	r3, [r7, #12]
 800656a:	f893 3051 	ldrb.w	r3, [r3, #81]	; 0x51
 800656e:	f887 3023 	strb.w	r3, [r7, #35]	; 0x23
  tmp_mode            = hspi->Init.Mode;
 8006572:	68fb      	ldr	r3, [r7, #12]
 8006574:	685b      	ldr	r3, [r3, #4]
 8006576:	61fb      	str	r3, [r7, #28]
  initial_TxXferCount = Size;
 8006578:	887b      	ldrh	r3, [r7, #2]
 800657a:	837b      	strh	r3, [r7, #26]

  if (!((tmp_state == HAL_SPI_STATE_READY) || \
 800657c:	f897 3023 	ldrb.w	r3, [r7, #35]	; 0x23
 8006580:	2b01      	cmp	r3, #1
 8006582:	d00f      	beq.n	80065a4 <HAL_SPI_TransmitReceive+0x70>
 8006584:	69fb      	ldr	r3, [r7, #28]
 8006586:	f5b3 7f82 	cmp.w	r3, #260	; 0x104
 800658a:	d107      	bne.n	800659c <HAL_SPI_TransmitReceive+0x68>
        ((tmp_mode == SPI_MODE_MASTER) && (hspi->Init.Direction == SPI_DIRECTION_2LINES) && (tmp_state == HAL_SPI_STATE_BUSY_RX))))
 800658c:	68fb      	ldr	r3, [r7, #12]
 800658e:	689b      	ldr	r3, [r3, #8]
 8006590:	2b00      	cmp	r3, #0
 8006592:	d103      	bne.n	800659c <HAL_SPI_TransmitReceive+0x68>
 8006594:	f897 3023 	ldrb.w	r3, [r7, #35]	; 0x23
 8006598:	2b04      	cmp	r3, #4
 800659a:	d003      	beq.n	80065a4 <HAL_SPI_TransmitReceive+0x70>
  {
    errorcode = HAL_BUSY;
 800659c:	2302      	movs	r3, #2
 800659e:	f887 302b 	strb.w	r3, [r7, #43]	; 0x2b
    goto error;
 80065a2:	e16d      	b.n	8006880 <HAL_SPI_TransmitReceive+0x34c>
  }

  if ((pTxData == NULL) || (pRxData == NULL) || (Size == 0U))
 80065a4:	68bb      	ldr	r3, [r7, #8]
 80065a6:	2b00      	cmp	r3, #0
 80065a8:	d005      	beq.n	80065b6 <HAL_SPI_TransmitReceive+0x82>
 80065aa:	687b      	ldr	r3, [r7, #4]
 80065ac:	2b00      	cmp	r3, #0
 80065ae:	d002      	beq.n	80065b6 <HAL_SPI_TransmitReceive+0x82>
 80065b0:	887b      	ldrh	r3, [r7, #2]
 80065b2:	2b00      	cmp	r3, #0
 80065b4:	d103      	bne.n	80065be <HAL_SPI_TransmitReceive+0x8a>
  {
    errorcode = HAL_ERROR;
 80065b6:	2301      	movs	r3, #1
 80065b8:	f887 302b 	strb.w	r3, [r7, #43]	; 0x2b
    goto error;
 80065bc:	e160      	b.n	8006880 <HAL_SPI_TransmitReceive+0x34c>
  }

  /* Don't overwrite in case of HAL_SPI_STATE_BUSY_RX */
  if (hspi->State != HAL_SPI_STATE_BUSY_RX)
 80065be:	68fb      	ldr	r3, [r7, #12]
 80065c0:	f893 3051 	ldrb.w	r3, [r3, #81]	; 0x51
 80065c4:	b2db      	uxtb	r3, r3
 80065c6:	2b04      	cmp	r3, #4
 80065c8:	d003      	beq.n	80065d2 <HAL_SPI_TransmitReceive+0x9e>
  {
    hspi->State = HAL_SPI_STATE_BUSY_TX_RX;
 80065ca:	68fb      	ldr	r3, [r7, #12]
 80065cc:	2205      	movs	r2, #5
 80065ce:	f883 2051 	strb.w	r2, [r3, #81]	; 0x51
  }

  /* Set the transaction information */
  hspi->ErrorCode   = HAL_SPI_ERROR_NONE;
 80065d2:	68fb      	ldr	r3, [r7, #12]
 80065d4:	2200      	movs	r2, #0
 80065d6:	655a      	str	r2, [r3, #84]	; 0x54
  hspi->pRxBuffPtr  = (uint8_t *)pRxData;
 80065d8:	68fb      	ldr	r3, [r7, #12]
 80065da:	687a      	ldr	r2, [r7, #4]
 80065dc:	639a      	str	r2, [r3, #56]	; 0x38
  hspi->RxXferCount = Size;
 80065de:	68fb      	ldr	r3, [r7, #12]
 80065e0:	887a      	ldrh	r2, [r7, #2]
 80065e2:	87da      	strh	r2, [r3, #62]	; 0x3e
  hspi->RxXferSize  = Size;
 80065e4:	68fb      	ldr	r3, [r7, #12]
 80065e6:	887a      	ldrh	r2, [r7, #2]
 80065e8:	879a      	strh	r2, [r3, #60]	; 0x3c
  hspi->pTxBuffPtr  = (uint8_t *)pTxData;
 80065ea:	68fb      	ldr	r3, [r7, #12]
 80065ec:	68ba      	ldr	r2, [r7, #8]
 80065ee:	631a      	str	r2, [r3, #48]	; 0x30
  hspi->TxXferCount = Size;
 80065f0:	68fb      	ldr	r3, [r7, #12]
 80065f2:	887a      	ldrh	r2, [r7, #2]
 80065f4:	86da      	strh	r2, [r3, #54]	; 0x36
  hspi->TxXferSize  = Size;
 80065f6:	68fb      	ldr	r3, [r7, #12]
 80065f8:	887a      	ldrh	r2, [r7, #2]
 80065fa:	869a      	strh	r2, [r3, #52]	; 0x34

  /*Init field not used in handle to zero */
  hspi->RxISR       = NULL;
 80065fc:	68fb      	ldr	r3, [r7, #12]
 80065fe:	2200      	movs	r2, #0
 8006600:	641a      	str	r2, [r3, #64]	; 0x40
  hspi->TxISR       = NULL;
 8006602:	68fb      	ldr	r3, [r7, #12]
 8006604:	2200      	movs	r2, #0
 8006606:	645a      	str	r2, [r3, #68]	; 0x44
    SPI_RESET_CRC(hspi);
  }
#endif /* USE_SPI_CRC */

  /* Check if the SPI is already enabled */
  if ((hspi->Instance->CR1 & SPI_CR1_SPE) != SPI_CR1_SPE)
 8006608:	68fb      	ldr	r3, [r7, #12]
 800660a:	681b      	ldr	r3, [r3, #0]
 800660c:	681b      	ldr	r3, [r3, #0]
 800660e:	f003 0340 	and.w	r3, r3, #64	; 0x40
 8006612:	2b40      	cmp	r3, #64	; 0x40
 8006614:	d007      	beq.n	8006626 <HAL_SPI_TransmitReceive+0xf2>
  {
    /* Enable SPI peripheral */
    __HAL_SPI_ENABLE(hspi);
 8006616:	68fb      	ldr	r3, [r7, #12]
 8006618:	681b      	ldr	r3, [r3, #0]
 800661a:	681a      	ldr	r2, [r3, #0]
 800661c:	68fb      	ldr	r3, [r7, #12]
 800661e:	681b      	ldr	r3, [r3, #0]
 8006620:	f042 0240 	orr.w	r2, r2, #64	; 0x40
 8006624:	601a      	str	r2, [r3, #0]
  }

  /* Transmit and Receive data in 16 Bit mode */
  if (hspi->Init.DataSize == SPI_DATASIZE_16BIT)
 8006626:	68fb      	ldr	r3, [r7, #12]
 8006628:	68db      	ldr	r3, [r3, #12]
 800662a:	f5b3 6f00 	cmp.w	r3, #2048	; 0x800
 800662e:	d17c      	bne.n	800672a <HAL_SPI_TransmitReceive+0x1f6>
  {
    if ((hspi->Init.Mode == SPI_MODE_SLAVE) || (initial_TxXferCount == 0x01U))
 8006630:	68fb      	ldr	r3, [r7, #12]
 8006632:	685b      	ldr	r3, [r3, #4]
 8006634:	2b00      	cmp	r3, #0
 8006636:	d002      	beq.n	800663e <HAL_SPI_TransmitReceive+0x10a>
 8006638:	8b7b      	ldrh	r3, [r7, #26]
 800663a:	2b01      	cmp	r3, #1
 800663c:	d16a      	bne.n	8006714 <HAL_SPI_TransmitReceive+0x1e0>
    {
      hspi->Instance->DR = *((uint16_t *)hspi->pTxBuffPtr);
 800663e:	68fb      	ldr	r3, [r7, #12]
 8006640:	6b1b      	ldr	r3, [r3, #48]	; 0x30
 8006642:	881a      	ldrh	r2, [r3, #0]
 8006644:	68fb      	ldr	r3, [r7, #12]
 8006646:	681b      	ldr	r3, [r3, #0]
 8006648:	60da      	str	r2, [r3, #12]
      hspi->pTxBuffPtr += sizeof(uint16_t);
 800664a:	68fb      	ldr	r3, [r7, #12]
 800664c:	6b1b      	ldr	r3, [r3, #48]	; 0x30
 800664e:	1c9a      	adds	r2, r3, #2
 8006650:	68fb      	ldr	r3, [r7, #12]
 8006652:	631a      	str	r2, [r3, #48]	; 0x30
      hspi->TxXferCount--;
 8006654:	68fb      	ldr	r3, [r7, #12]
 8006656:	8edb      	ldrh	r3, [r3, #54]	; 0x36
 8006658:	b29b      	uxth	r3, r3
 800665a:	3b01      	subs	r3, #1
 800665c:	b29a      	uxth	r2, r3
 800665e:	68fb      	ldr	r3, [r7, #12]
 8006660:	86da      	strh	r2, [r3, #54]	; 0x36
        SET_BIT(hspi->Instance->CR1, SPI_CR1_CRCNEXT);
      }
#endif /* USE_SPI_CRC */

    }
    while ((hspi->TxXferCount > 0U) || (hspi->RxXferCount > 0U))
 8006662:	e057      	b.n	8006714 <HAL_SPI_TransmitReceive+0x1e0>
    {
      /* Check TXE flag */
      if ((__HAL_SPI_GET_FLAG(hspi, SPI_FLAG_TXE)) && (hspi->TxXferCount > 0U) && (txallowed == 1U))
 8006664:	68fb      	ldr	r3, [r7, #12]
 8006666:	681b      	ldr	r3, [r3, #0]
 8006668:	689b      	ldr	r3, [r3, #8]
 800666a:	f003 0302 	and.w	r3, r3, #2
 800666e:	2b02      	cmp	r3, #2
 8006670:	d11b      	bne.n	80066aa <HAL_SPI_TransmitReceive+0x176>
 8006672:	68fb      	ldr	r3, [r7, #12]
 8006674:	8edb      	ldrh	r3, [r3, #54]	; 0x36
 8006676:	b29b      	uxth	r3, r3
 8006678:	2b00      	cmp	r3, #0
 800667a:	d016      	beq.n	80066aa <HAL_SPI_TransmitReceive+0x176>
 800667c:	6afb      	ldr	r3, [r7, #44]	; 0x2c
 800667e:	2b01      	cmp	r3, #1
 8006680:	d113      	bne.n	80066aa <HAL_SPI_TransmitReceive+0x176>
      {
        hspi->Instance->DR = *((uint16_t *)hspi->pTxBuffPtr);
 8006682:	68fb      	ldr	r3, [r7, #12]
 8006684:	6b1b      	ldr	r3, [r3, #48]	; 0x30
 8006686:	881a      	ldrh	r2, [r3, #0]
 8006688:	68fb      	ldr	r3, [r7, #12]
 800668a:	681b      	ldr	r3, [r3, #0]
 800668c:	60da      	str	r2, [r3, #12]
        hspi->pTxBuffPtr += sizeof(uint16_t);
 800668e:	68fb      	ldr	r3, [r7, #12]
 8006690:	6b1b      	ldr	r3, [r3, #48]	; 0x30
 8006692:	1c9a      	adds	r2, r3, #2
 8006694:	68fb      	ldr	r3, [r7, #12]
 8006696:	631a      	str	r2, [r3, #48]	; 0x30
        hspi->TxXferCount--;
 8006698:	68fb      	ldr	r3, [r7, #12]
 800669a:	8edb      	ldrh	r3, [r3, #54]	; 0x36
 800669c:	b29b      	uxth	r3, r3
 800669e:	3b01      	subs	r3, #1
 80066a0:	b29a      	uxth	r2, r3
 80066a2:	68fb      	ldr	r3, [r7, #12]
 80066a4:	86da      	strh	r2, [r3, #54]	; 0x36
        /* Next Data is a reception (Rx). Tx not allowed */
        txallowed = 0U;
 80066a6:	2300      	movs	r3, #0
 80066a8:	62fb      	str	r3, [r7, #44]	; 0x2c
        }
#endif /* USE_SPI_CRC */
      }

      /* Check RXNE flag */
      if ((__HAL_SPI_GET_FLAG(hspi, SPI_FLAG_RXNE)) && (hspi->RxXferCount > 0U))
 80066aa:	68fb      	ldr	r3, [r7, #12]
 80066ac:	681b      	ldr	r3, [r3, #0]
 80066ae:	689b      	ldr	r3, [r3, #8]
 80066b0:	f003 0301 	and.w	r3, r3, #1
 80066b4:	2b01      	cmp	r3, #1
 80066b6:	d119      	bne.n	80066ec <HAL_SPI_TransmitReceive+0x1b8>
 80066b8:	68fb      	ldr	r3, [r7, #12]
 80066ba:	8fdb      	ldrh	r3, [r3, #62]	; 0x3e
 80066bc:	b29b      	uxth	r3, r3
 80066be:	2b00      	cmp	r3, #0
 80066c0:	d014      	beq.n	80066ec <HAL_SPI_TransmitReceive+0x1b8>
      {
        *((uint16_t *)hspi->pRxBuffPtr) = (uint16_t)hspi->Instance->DR;
 80066c2:	68fb      	ldr	r3, [r7, #12]
 80066c4:	681b      	ldr	r3, [r3, #0]
 80066c6:	68da      	ldr	r2, [r3, #12]
 80066c8:	68fb      	ldr	r3, [r7, #12]
 80066ca:	6b9b      	ldr	r3, [r3, #56]	; 0x38
 80066cc:	b292      	uxth	r2, r2
 80066ce:	801a      	strh	r2, [r3, #0]
        hspi->pRxBuffPtr += sizeof(uint16_t);
 80066d0:	68fb      	ldr	r3, [r7, #12]
 80066d2:	6b9b      	ldr	r3, [r3, #56]	; 0x38
 80066d4:	1c9a      	adds	r2, r3, #2
 80066d6:	68fb      	ldr	r3, [r7, #12]
 80066d8:	639a      	str	r2, [r3, #56]	; 0x38
        hspi->RxXferCount--;
 80066da:	68fb      	ldr	r3, [r7, #12]
 80066dc:	8fdb      	ldrh	r3, [r3, #62]	; 0x3e
 80066de:	b29b      	uxth	r3, r3
 80066e0:	3b01      	subs	r3, #1
 80066e2:	b29a      	uxth	r2, r3
 80066e4:	68fb      	ldr	r3, [r7, #12]
 80066e6:	87da      	strh	r2, [r3, #62]	; 0x3e
        /* Next Data is a Transmission (Tx). Tx is allowed */
        txallowed = 1U;
 80066e8:	2301      	movs	r3, #1
 80066ea:	62fb      	str	r3, [r7, #44]	; 0x2c
      }
      if (((HAL_GetTick() - tickstart) >=  Timeout) && (Timeout != HAL_MAX_DELAY))
 80066ec:	f7fc fa6c 	bl	8002bc8 <HAL_GetTick>
 80066f0:	4602      	mov	r2, r0
 80066f2:	6a7b      	ldr	r3, [r7, #36]	; 0x24
 80066f4:	1ad3      	subs	r3, r2, r3
 80066f6:	6bba      	ldr	r2, [r7, #56]	; 0x38
 80066f8:	429a      	cmp	r2, r3
 80066fa:	d80b      	bhi.n	8006714 <HAL_SPI_TransmitReceive+0x1e0>
 80066fc:	6bbb      	ldr	r3, [r7, #56]	; 0x38
 80066fe:	f1b3 3fff 	cmp.w	r3, #4294967295	; 0xffffffff
 8006702:	d007      	beq.n	8006714 <HAL_SPI_TransmitReceive+0x1e0>
      {
        errorcode = HAL_TIMEOUT;
 8006704:	2303      	movs	r3, #3
 8006706:	f887 302b 	strb.w	r3, [r7, #43]	; 0x2b
        hspi->State = HAL_SPI_STATE_READY;
 800670a:	68fb      	ldr	r3, [r7, #12]
 800670c:	2201      	movs	r2, #1
 800670e:	f883 2051 	strb.w	r2, [r3, #81]	; 0x51
        goto error;
 8006712:	e0b5      	b.n	8006880 <HAL_SPI_TransmitReceive+0x34c>
    while ((hspi->TxXferCount > 0U) || (hspi->RxXferCount > 0U))
 8006714:	68fb      	ldr	r3, [r7, #12]
 8006716:	8edb      	ldrh	r3, [r3, #54]	; 0x36
 8006718:	b29b      	uxth	r3, r3
 800671a:	2b00      	cmp	r3, #0
 800671c:	d1a2      	bne.n	8006664 <HAL_SPI_TransmitReceive+0x130>
 800671e:	68fb      	ldr	r3, [r7, #12]
 8006720:	8fdb      	ldrh	r3, [r3, #62]	; 0x3e
 8006722:	b29b      	uxth	r3, r3
 8006724:	2b00      	cmp	r3, #0
 8006726:	d19d      	bne.n	8006664 <HAL_SPI_TransmitReceive+0x130>
 8006728:	e080      	b.n	800682c <HAL_SPI_TransmitReceive+0x2f8>
    }
  }
  /* Transmit and Receive data in 8 Bit mode */
  else
  {
    if ((hspi->Init.Mode == SPI_MODE_SLAVE) || (initial_TxXferCount == 0x01U))
 800672a:	68fb      	ldr	r3, [r7, #12]
 800672c:	685b      	ldr	r3, [r3, #4]
 800672e:	2b00      	cmp	r3, #0
 8006730:	d002      	beq.n	8006738 <HAL_SPI_TransmitReceive+0x204>
 8006732:	8b7b      	ldrh	r3, [r7, #26]
 8006734:	2b01      	cmp	r3, #1
 8006736:	d16f      	bne.n	8006818 <HAL_SPI_TransmitReceive+0x2e4>
    {
      *((__IO uint8_t *)&hspi->Instance->DR) = (*hspi->pTxBuffPtr);
 8006738:	68fb      	ldr	r3, [r7, #12]
 800673a:	6b1a      	ldr	r2, [r3, #48]	; 0x30
 800673c:	68fb      	ldr	r3, [r7, #12]
 800673e:	681b      	ldr	r3, [r3, #0]
 8006740:	330c      	adds	r3, #12
 8006742:	7812      	ldrb	r2, [r2, #0]
 8006744:	701a      	strb	r2, [r3, #0]
      hspi->pTxBuffPtr += sizeof(uint8_t);
 8006746:	68fb      	ldr	r3, [r7, #12]
 8006748:	6b1b      	ldr	r3, [r3, #48]	; 0x30
 800674a:	1c5a      	adds	r2, r3, #1
 800674c:	68fb      	ldr	r3, [r7, #12]
 800674e:	631a      	str	r2, [r3, #48]	; 0x30
      hspi->TxXferCount--;
 8006750:	68fb      	ldr	r3, [r7, #12]
 8006752:	8edb      	ldrh	r3, [r3, #54]	; 0x36
 8006754:	b29b      	uxth	r3, r3
 8006756:	3b01      	subs	r3, #1
 8006758:	b29a      	uxth	r2, r3
 800675a:	68fb      	ldr	r3, [r7, #12]
 800675c:	86da      	strh	r2, [r3, #54]	; 0x36
      {
        SET_BIT(hspi->Instance->CR1, SPI_CR1_CRCNEXT);
      }
#endif /* USE_SPI_CRC */
    }
    while ((hspi->TxXferCount > 0U) || (hspi->RxXferCount > 0U))
 800675e:	e05b      	b.n	8006818 <HAL_SPI_TransmitReceive+0x2e4>
    {
      /* Check TXE flag */
      if ((__HAL_SPI_GET_FLAG(hspi, SPI_FLAG_TXE)) && (hspi->TxXferCount > 0U) && (txallowed == 1U))
 8006760:	68fb      	ldr	r3, [r7, #12]
 8006762:	681b      	ldr	r3, [r3, #0]
 8006764:	689b      	ldr	r3, [r3, #8]
 8006766:	f003 0302 	and.w	r3, r3, #2
 800676a:	2b02      	cmp	r3, #2
 800676c:	d11c      	bne.n	80067a8 <HAL_SPI_TransmitReceive+0x274>
 800676e:	68fb      	ldr	r3, [r7, #12]
 8006770:	8edb      	ldrh	r3, [r3, #54]	; 0x36
 8006772:	b29b      	uxth	r3, r3
 8006774:	2b00      	cmp	r3, #0
 8006776:	d017      	beq.n	80067a8 <HAL_SPI_TransmitReceive+0x274>
 8006778:	6afb      	ldr	r3, [r7, #44]	; 0x2c
 800677a:	2b01      	cmp	r3, #1
 800677c:	d114      	bne.n	80067a8 <HAL_SPI_TransmitReceive+0x274>
      {
        *(__IO uint8_t *)&hspi->Instance->DR = (*hspi->pTxBuffPtr);
 800677e:	68fb      	ldr	r3, [r7, #12]
 8006780:	6b1a      	ldr	r2, [r3, #48]	; 0x30
 8006782:	68fb      	ldr	r3, [r7, #12]
 8006784:	681b      	ldr	r3, [r3, #0]
 8006786:	330c      	adds	r3, #12
 8006788:	7812      	ldrb	r2, [r2, #0]
 800678a:	701a      	strb	r2, [r3, #0]
        hspi->pTxBuffPtr++;
 800678c:	68fb      	ldr	r3, [r7, #12]
 800678e:	6b1b      	ldr	r3, [r3, #48]	; 0x30
 8006790:	1c5a      	adds	r2, r3, #1
 8006792:	68fb      	ldr	r3, [r7, #12]
 8006794:	631a      	str	r2, [r3, #48]	; 0x30
        hspi->TxXferCount--;
 8006796:	68fb      	ldr	r3, [r7, #12]
 8006798:	8edb      	ldrh	r3, [r3, #54]	; 0x36
 800679a:	b29b      	uxth	r3, r3
 800679c:	3b01      	subs	r3, #1
 800679e:	b29a      	uxth	r2, r3
 80067a0:	68fb      	ldr	r3, [r7, #12]
 80067a2:	86da      	strh	r2, [r3, #54]	; 0x36
        /* Next Data is a reception (Rx). Tx not allowed */
        txallowed = 0U;
 80067a4:	2300      	movs	r3, #0
 80067a6:	62fb      	str	r3, [r7, #44]	; 0x2c
        }
#endif /* USE_SPI_CRC */
      }

      /* Wait until RXNE flag is reset */
      if ((__HAL_SPI_GET_FLAG(hspi, SPI_FLAG_RXNE)) && (hspi->RxXferCount > 0U))
 80067a8:	68fb      	ldr	r3, [r7, #12]
 80067aa:	681b      	ldr	r3, [r3, #0]
 80067ac:	689b      	ldr	r3, [r3, #8]
 80067ae:	f003 0301 	and.w	r3, r3, #1
 80067b2:	2b01      	cmp	r3, #1
 80067b4:	d119      	bne.n	80067ea <HAL_SPI_TransmitReceive+0x2b6>
 80067b6:	68fb      	ldr	r3, [r7, #12]
 80067b8:	8fdb      	ldrh	r3, [r3, #62]	; 0x3e
 80067ba:	b29b      	uxth	r3, r3
 80067bc:	2b00      	cmp	r3, #0
 80067be:	d014      	beq.n	80067ea <HAL_SPI_TransmitReceive+0x2b6>
      {
        (*(uint8_t *)hspi->pRxBuffPtr) = hspi->Instance->DR;
 80067c0:	68fb      	ldr	r3, [r7, #12]
 80067c2:	681b      	ldr	r3, [r3, #0]
 80067c4:	68da      	ldr	r2, [r3, #12]
 80067c6:	68fb      	ldr	r3, [r7, #12]
 80067c8:	6b9b      	ldr	r3, [r3, #56]	; 0x38
 80067ca:	b2d2      	uxtb	r2, r2
 80067cc:	701a      	strb	r2, [r3, #0]
        hspi->pRxBuffPtr++;
 80067ce:	68fb      	ldr	r3, [r7, #12]
 80067d0:	6b9b      	ldr	r3, [r3, #56]	; 0x38
 80067d2:	1c5a      	adds	r2, r3, #1
 80067d4:	68fb      	ldr	r3, [r7, #12]
 80067d6:	639a      	str	r2, [r3, #56]	; 0x38
        hspi->RxXferCount--;
 80067d8:	68fb      	ldr	r3, [r7, #12]
 80067da:	8fdb      	ldrh	r3, [r3, #62]	; 0x3e
 80067dc:	b29b      	uxth	r3, r3
 80067de:	3b01      	subs	r3, #1
 80067e0:	b29a      	uxth	r2, r3
 80067e2:	68fb      	ldr	r3, [r7, #12]
 80067e4:	87da      	strh	r2, [r3, #62]	; 0x3e
        /* Next Data is a Transmission (Tx). Tx is allowed */
        txallowed = 1U;
 80067e6:	2301      	movs	r3, #1
 80067e8:	62fb      	str	r3, [r7, #44]	; 0x2c
      }
      if ((((HAL_GetTick() - tickstart) >=  Timeout) && ((Timeout != HAL_MAX_DELAY))) || (Timeout == 0U))
 80067ea:	f7fc f9ed 	bl	8002bc8 <HAL_GetTick>
 80067ee:	4602      	mov	r2, r0
 80067f0:	6a7b      	ldr	r3, [r7, #36]	; 0x24
 80067f2:	1ad3      	subs	r3, r2, r3
 80067f4:	6bba      	ldr	r2, [r7, #56]	; 0x38
 80067f6:	429a      	cmp	r2, r3
 80067f8:	d803      	bhi.n	8006802 <HAL_SPI_TransmitReceive+0x2ce>
 80067fa:	6bbb      	ldr	r3, [r7, #56]	; 0x38
 80067fc:	f1b3 3fff 	cmp.w	r3, #4294967295	; 0xffffffff
 8006800:	d102      	bne.n	8006808 <HAL_SPI_TransmitReceive+0x2d4>
 8006802:	6bbb      	ldr	r3, [r7, #56]	; 0x38
 8006804:	2b00      	cmp	r3, #0
 8006806:	d107      	bne.n	8006818 <HAL_SPI_TransmitReceive+0x2e4>
      {
        errorcode = HAL_TIMEOUT;
 8006808:	2303      	movs	r3, #3
 800680a:	f887 302b 	strb.w	r3, [r7, #43]	; 0x2b
        hspi->State = HAL_SPI_STATE_READY;
 800680e:	68fb      	ldr	r3, [r7, #12]
 8006810:	2201      	movs	r2, #1
 8006812:	f883 2051 	strb.w	r2, [r3, #81]	; 0x51
        goto error;
 8006816:	e033      	b.n	8006880 <HAL_SPI_TransmitReceive+0x34c>
    while ((hspi->TxXferCount > 0U) || (hspi->RxXferCount > 0U))
 8006818:	68fb      	ldr	r3, [r7, #12]
 800681a:	8edb      	ldrh	r3, [r3, #54]	; 0x36
 800681c:	b29b      	uxth	r3, r3
 800681e:	2b00      	cmp	r3, #0
 8006820:	d19e      	bne.n	8006760 <HAL_SPI_TransmitReceive+0x22c>
 8006822:	68fb      	ldr	r3, [r7, #12]
 8006824:	8fdb      	ldrh	r3, [r3, #62]	; 0x3e
 8006826:	b29b      	uxth	r3, r3
 8006828:	2b00      	cmp	r3, #0
 800682a:	d199      	bne.n	8006760 <HAL_SPI_TransmitReceive+0x22c>
    errorcode = HAL_ERROR;
  }
#endif /* USE_SPI_CRC */

  /* Check the end of the transaction */
  if (SPI_EndRxTxTransaction(hspi, Timeout, tickstart) != HAL_OK)
 800682c:	6a7a      	ldr	r2, [r7, #36]	; 0x24
 800682e:	6bb9      	ldr	r1, [r7, #56]	; 0x38
 8006830:	68f8      	ldr	r0, [r7, #12]
 8006832:	f000 fa65 	bl	8006d00 <SPI_EndRxTxTransaction>
 8006836:	4603      	mov	r3, r0
 8006838:	2b00      	cmp	r3, #0
 800683a:	d006      	beq.n	800684a <HAL_SPI_TransmitReceive+0x316>
  {
    errorcode = HAL_ERROR;
 800683c:	2301      	movs	r3, #1
 800683e:	f887 302b 	strb.w	r3, [r7, #43]	; 0x2b
    hspi->ErrorCode = HAL_SPI_ERROR_FLAG;
 8006842:	68fb      	ldr	r3, [r7, #12]
 8006844:	2220      	movs	r2, #32
 8006846:	655a      	str	r2, [r3, #84]	; 0x54
    goto error;
 8006848:	e01a      	b.n	8006880 <HAL_SPI_TransmitReceive+0x34c>
  }

  /* Clear overrun flag in 2 Lines communication mode because received is not read */
  if (hspi->Init.Direction == SPI_DIRECTION_2LINES)
 800684a:	68fb      	ldr	r3, [r7, #12]
 800684c:	689b      	ldr	r3, [r3, #8]
 800684e:	2b00      	cmp	r3, #0
 8006850:	d10a      	bne.n	8006868 <HAL_SPI_TransmitReceive+0x334>
  {
    __HAL_SPI_CLEAR_OVRFLAG(hspi);
 8006852:	2300      	movs	r3, #0
 8006854:	617b      	str	r3, [r7, #20]
 8006856:	68fb      	ldr	r3, [r7, #12]
 8006858:	681b      	ldr	r3, [r3, #0]
 800685a:	68db      	ldr	r3, [r3, #12]
 800685c:	617b      	str	r3, [r7, #20]
 800685e:	68fb      	ldr	r3, [r7, #12]
 8006860:	681b      	ldr	r3, [r3, #0]
 8006862:	689b      	ldr	r3, [r3, #8]
 8006864:	617b      	str	r3, [r7, #20]
 8006866:	697b      	ldr	r3, [r7, #20]
  }

  if (hspi->ErrorCode != HAL_SPI_ERROR_NONE)
 8006868:	68fb      	ldr	r3, [r7, #12]
 800686a:	6d5b      	ldr	r3, [r3, #84]	; 0x54
 800686c:	2b00      	cmp	r3, #0
 800686e:	d003      	beq.n	8006878 <HAL_SPI_TransmitReceive+0x344>
  {
    errorcode = HAL_ERROR;
 8006870:	2301      	movs	r3, #1
 8006872:	f887 302b 	strb.w	r3, [r7, #43]	; 0x2b
 8006876:	e003      	b.n	8006880 <HAL_SPI_TransmitReceive+0x34c>
  }
  else
  {
    hspi->State = HAL_SPI_STATE_READY;
 8006878:	68fb      	ldr	r3, [r7, #12]
 800687a:	2201      	movs	r2, #1
 800687c:	f883 2051 	strb.w	r2, [r3, #81]	; 0x51
  }
  
error :
  __HAL_UNLOCK(hspi);
 8006880:	68fb      	ldr	r3, [r7, #12]
 8006882:	2200      	movs	r2, #0
 8006884:	f883 2050 	strb.w	r2, [r3, #80]	; 0x50
  return errorcode;
 8006888:	f897 302b 	ldrb.w	r3, [r7, #43]	; 0x2b
}
 800688c:	4618      	mov	r0, r3
 800688e:	3730      	adds	r7, #48	; 0x30
 8006890:	46bd      	mov	sp, r7
 8006892:	bd80      	pop	{r7, pc}

08006894 <HAL_SPI_Transmit_DMA>:
  * @param  pData pointer to data buffer
  * @param  Size amount of data to be sent
  * @retval HAL status
  */
HAL_StatusTypeDef HAL_SPI_Transmit_DMA(SPI_HandleTypeDef *hspi, uint8_t *pData, uint16_t Size)
{
 8006894:	b580      	push	{r7, lr}
 8006896:	b086      	sub	sp, #24
 8006898:	af00      	add	r7, sp, #0
 800689a:	60f8      	str	r0, [r7, #12]
 800689c:	60b9      	str	r1, [r7, #8]
 800689e:	4613      	mov	r3, r2
 80068a0:	80fb      	strh	r3, [r7, #6]
  HAL_StatusTypeDef errorcode = HAL_OK;
 80068a2:	2300      	movs	r3, #0
 80068a4:	75fb      	strb	r3, [r7, #23]

  /* Check Direction parameter */
  assert_param(IS_SPI_DIRECTION_2LINES_OR_1LINE(hspi->Init.Direction));

  /* Process Locked */
  __HAL_LOCK(hspi);
 80068a6:	68fb      	ldr	r3, [r7, #12]
 80068a8:	f893 3050 	ldrb.w	r3, [r3, #80]	; 0x50
 80068ac:	2b01      	cmp	r3, #1
 80068ae:	d101      	bne.n	80068b4 <HAL_SPI_Transmit_DMA+0x20>
 80068b0:	2302      	movs	r3, #2
 80068b2:	e097      	b.n	80069e4 <HAL_SPI_Transmit_DMA+0x150>
 80068b4:	68fb      	ldr	r3, [r7, #12]
 80068b6:	2201      	movs	r2, #1
 80068b8:	f883 2050 	strb.w	r2, [r3, #80]	; 0x50

  if (hspi->State != HAL_SPI_STATE_READY)
 80068bc:	68fb      	ldr	r3, [r7, #12]
 80068be:	f893 3051 	ldrb.w	r3, [r3, #81]	; 0x51
 80068c2:	b2db      	uxtb	r3, r3
 80068c4:	2b01      	cmp	r3, #1
 80068c6:	d002      	beq.n	80068ce <HAL_SPI_Transmit_DMA+0x3a>
  {
    errorcode = HAL_BUSY;
 80068c8:	2302      	movs	r3, #2
 80068ca:	75fb      	strb	r3, [r7, #23]
    goto error;
 80068cc:	e085      	b.n	80069da <HAL_SPI_Transmit_DMA+0x146>
  }

  if ((pData == NULL) || (Size == 0U))
 80068ce:	68bb      	ldr	r3, [r7, #8]
 80068d0:	2b00      	cmp	r3, #0
 80068d2:	d002      	beq.n	80068da <HAL_SPI_Transmit_DMA+0x46>
 80068d4:	88fb      	ldrh	r3, [r7, #6]
 80068d6:	2b00      	cmp	r3, #0
 80068d8:	d102      	bne.n	80068e0 <HAL_SPI_Transmit_DMA+0x4c>
  {
    errorcode = HAL_ERROR;
 80068da:	2301      	movs	r3, #1
 80068dc:	75fb      	strb	r3, [r7, #23]
    goto error;
 80068de:	e07c      	b.n	80069da <HAL_SPI_Transmit_DMA+0x146>
  }

  /* Set the transaction information */
  hspi->State       = HAL_SPI_STATE_BUSY_TX;
 80068e0:	68fb      	ldr	r3, [r7, #12]
 80068e2:	2203      	movs	r2, #3
 80068e4:	f883 2051 	strb.w	r2, [r3, #81]	; 0x51
  hspi->ErrorCode   = HAL_SPI_ERROR_NONE;
 80068e8:	68fb      	ldr	r3, [r7, #12]
 80068ea:	2200      	movs	r2, #0
 80068ec:	655a      	str	r2, [r3, #84]	; 0x54
  hspi->pTxBuffPtr  = (uint8_t *)pData;
 80068ee:	68fb      	ldr	r3, [r7, #12]
 80068f0:	68ba      	ldr	r2, [r7, #8]
 80068f2:	631a      	str	r2, [r3, #48]	; 0x30
  hspi->TxXferSize  = Size;
 80068f4:	68fb      	ldr	r3, [r7, #12]
 80068f6:	88fa      	ldrh	r2, [r7, #6]
 80068f8:	869a      	strh	r2, [r3, #52]	; 0x34
  hspi->TxXferCount = Size;
 80068fa:	68fb      	ldr	r3, [r7, #12]
 80068fc:	88fa      	ldrh	r2, [r7, #6]
 80068fe:	86da      	strh	r2, [r3, #54]	; 0x36

  /* Init field not used in handle to zero */
  hspi->pRxBuffPtr  = (uint8_t *)NULL;
 8006900:	68fb      	ldr	r3, [r7, #12]
 8006902:	2200      	movs	r2, #0
 8006904:	639a      	str	r2, [r3, #56]	; 0x38
  hspi->TxISR       = NULL;
 8006906:	68fb      	ldr	r3, [r7, #12]
 8006908:	2200      	movs	r2, #0
 800690a:	645a      	str	r2, [r3, #68]	; 0x44
  hspi->RxISR       = NULL;
 800690c:	68fb      	ldr	r3, [r7, #12]
 800690e:	2200      	movs	r2, #0
 8006910:	641a      	str	r2, [r3, #64]	; 0x40
  hspi->RxXferSize  = 0U;
 8006912:	68fb      	ldr	r3, [r7, #12]
 8006914:	2200      	movs	r2, #0
 8006916:	879a      	strh	r2, [r3, #60]	; 0x3c
  hspi->RxXferCount = 0U;
 8006918:	68fb      	ldr	r3, [r7, #12]
 800691a:	2200      	movs	r2, #0
 800691c:	87da      	strh	r2, [r3, #62]	; 0x3e

  /* Configure communication direction : 1Line */
  if (hspi->Init.Direction == SPI_DIRECTION_1LINE)
 800691e:	68fb      	ldr	r3, [r7, #12]
 8006920:	689b      	ldr	r3, [r3, #8]
 8006922:	f5b3 4f00 	cmp.w	r3, #32768	; 0x8000
 8006926:	d10f      	bne.n	8006948 <HAL_SPI_Transmit_DMA+0xb4>
  {
    /* Disable SPI Peripheral before set 1Line direction (BIDIOE bit) */
    __HAL_SPI_DISABLE(hspi);
 8006928:	68fb      	ldr	r3, [r7, #12]
 800692a:	681b      	ldr	r3, [r3, #0]
 800692c:	681a      	ldr	r2, [r3, #0]
 800692e:	68fb      	ldr	r3, [r7, #12]
 8006930:	681b      	ldr	r3, [r3, #0]
 8006932:	f022 0240 	bic.w	r2, r2, #64	; 0x40
 8006936:	601a      	str	r2, [r3, #0]
    SPI_1LINE_TX(hspi);
 8006938:	68fb      	ldr	r3, [r7, #12]
 800693a:	681b      	ldr	r3, [r3, #0]
 800693c:	681a      	ldr	r2, [r3, #0]
 800693e:	68fb      	ldr	r3, [r7, #12]
 8006940:	681b      	ldr	r3, [r3, #0]
 8006942:	f442 4280 	orr.w	r2, r2, #16384	; 0x4000
 8006946:	601a      	str	r2, [r3, #0]
    SPI_RESET_CRC(hspi);
  }
#endif /* USE_SPI_CRC */

  /* Set the SPI TxDMA Half transfer complete callback */
  hspi->hdmatx->XferHalfCpltCallback = SPI_DMAHalfTransmitCplt;
 8006948:	68fb      	ldr	r3, [r7, #12]
 800694a:	6c9b      	ldr	r3, [r3, #72]	; 0x48
 800694c:	4a27      	ldr	r2, [pc, #156]	; (80069ec <HAL_SPI_Transmit_DMA+0x158>)
 800694e:	641a      	str	r2, [r3, #64]	; 0x40

  /* Set the SPI TxDMA transfer complete callback */
  hspi->hdmatx->XferCpltCallback = SPI_DMATransmitCplt;
 8006950:	68fb      	ldr	r3, [r7, #12]
 8006952:	6c9b      	ldr	r3, [r3, #72]	; 0x48
 8006954:	4a26      	ldr	r2, [pc, #152]	; (80069f0 <HAL_SPI_Transmit_DMA+0x15c>)
 8006956:	63da      	str	r2, [r3, #60]	; 0x3c

  /* Set the DMA error callback */
  hspi->hdmatx->XferErrorCallback = SPI_DMAError;
 8006958:	68fb      	ldr	r3, [r7, #12]
 800695a:	6c9b      	ldr	r3, [r3, #72]	; 0x48
 800695c:	4a25      	ldr	r2, [pc, #148]	; (80069f4 <HAL_SPI_Transmit_DMA+0x160>)
 800695e:	64da      	str	r2, [r3, #76]	; 0x4c

  /* Set the DMA AbortCpltCallback */
  hspi->hdmatx->XferAbortCallback = NULL;
 8006960:	68fb      	ldr	r3, [r7, #12]
 8006962:	6c9b      	ldr	r3, [r3, #72]	; 0x48
 8006964:	2200      	movs	r2, #0
 8006966:	651a      	str	r2, [r3, #80]	; 0x50

  /* Enable the Tx DMA Stream/Channel */
  if (HAL_OK != HAL_DMA_Start_IT(hspi->hdmatx, (uint32_t)hspi->pTxBuffPtr, (uint32_t)&hspi->Instance->DR,
 8006968:	68fb      	ldr	r3, [r7, #12]
 800696a:	6c98      	ldr	r0, [r3, #72]	; 0x48
 800696c:	68fb      	ldr	r3, [r7, #12]
 800696e:	6b1b      	ldr	r3, [r3, #48]	; 0x30
 8006970:	4619      	mov	r1, r3
 8006972:	68fb      	ldr	r3, [r7, #12]
 8006974:	681b      	ldr	r3, [r3, #0]
 8006976:	330c      	adds	r3, #12
 8006978:	461a      	mov	r2, r3
                                 hspi->TxXferCount))
 800697a:	68fb      	ldr	r3, [r7, #12]
 800697c:	8edb      	ldrh	r3, [r3, #54]	; 0x36
 800697e:	b29b      	uxth	r3, r3
  if (HAL_OK != HAL_DMA_Start_IT(hspi->hdmatx, (uint32_t)hspi->pTxBuffPtr, (uint32_t)&hspi->Instance->DR,
 8006980:	f7fc fc0e 	bl	80031a0 <HAL_DMA_Start_IT>
 8006984:	4603      	mov	r3, r0
 8006986:	2b00      	cmp	r3, #0
 8006988:	d008      	beq.n	800699c <HAL_SPI_Transmit_DMA+0x108>
  {
    /* Update SPI error code */
    SET_BIT(hspi->ErrorCode, HAL_SPI_ERROR_DMA);
 800698a:	68fb      	ldr	r3, [r7, #12]
 800698c:	6d5b      	ldr	r3, [r3, #84]	; 0x54
 800698e:	f043 0210 	orr.w	r2, r3, #16
 8006992:	68fb      	ldr	r3, [r7, #12]
 8006994:	655a      	str	r2, [r3, #84]	; 0x54
    errorcode = HAL_ERROR;
 8006996:	2301      	movs	r3, #1
 8006998:	75fb      	strb	r3, [r7, #23]

    goto error;
 800699a:	e01e      	b.n	80069da <HAL_SPI_Transmit_DMA+0x146>
  }

  /* Check if the SPI is already enabled */
  if ((hspi->Instance->CR1 & SPI_CR1_SPE) != SPI_CR1_SPE)
 800699c:	68fb      	ldr	r3, [r7, #12]
 800699e:	681b      	ldr	r3, [r3, #0]
 80069a0:	681b      	ldr	r3, [r3, #0]
 80069a2:	f003 0340 	and.w	r3, r3, #64	; 0x40
 80069a6:	2b40      	cmp	r3, #64	; 0x40
 80069a8:	d007      	beq.n	80069ba <HAL_SPI_Transmit_DMA+0x126>
  {
    /* Enable SPI peripheral */
    __HAL_SPI_ENABLE(hspi);
 80069aa:	68fb      	ldr	r3, [r7, #12]
 80069ac:	681b      	ldr	r3, [r3, #0]
 80069ae:	681a      	ldr	r2, [r3, #0]
 80069b0:	68fb      	ldr	r3, [r7, #12]
 80069b2:	681b      	ldr	r3, [r3, #0]
 80069b4:	f042 0240 	orr.w	r2, r2, #64	; 0x40
 80069b8:	601a      	str	r2, [r3, #0]
  }

  /* Enable the SPI Error Interrupt Bit */
  __HAL_SPI_ENABLE_IT(hspi, (SPI_IT_ERR));
 80069ba:	68fb      	ldr	r3, [r7, #12]
 80069bc:	681b      	ldr	r3, [r3, #0]
 80069be:	685a      	ldr	r2, [r3, #4]
 80069c0:	68fb      	ldr	r3, [r7, #12]
 80069c2:	681b      	ldr	r3, [r3, #0]
 80069c4:	f042 0220 	orr.w	r2, r2, #32
 80069c8:	605a      	str	r2, [r3, #4]

  /* Enable Tx DMA Request */
  SET_BIT(hspi->Instance->CR2, SPI_CR2_TXDMAEN);
 80069ca:	68fb      	ldr	r3, [r7, #12]
 80069cc:	681b      	ldr	r3, [r3, #0]
 80069ce:	685a      	ldr	r2, [r3, #4]
 80069d0:	68fb      	ldr	r3, [r7, #12]
 80069d2:	681b      	ldr	r3, [r3, #0]
 80069d4:	f042 0202 	orr.w	r2, r2, #2
 80069d8:	605a      	str	r2, [r3, #4]

error :
  /* Process Unlocked */
  __HAL_UNLOCK(hspi);
 80069da:	68fb      	ldr	r3, [r7, #12]
 80069dc:	2200      	movs	r2, #0
 80069de:	f883 2050 	strb.w	r2, [r3, #80]	; 0x50
  return errorcode;
 80069e2:	7dfb      	ldrb	r3, [r7, #23]
}
 80069e4:	4618      	mov	r0, r3
 80069e6:	3718      	adds	r7, #24
 80069e8:	46bd      	mov	sp, r7
 80069ea:	bd80      	pop	{r7, pc}
 80069ec:	08006ac9 	.word	0x08006ac9
 80069f0:	08006a21 	.word	0x08006a21
 80069f4:	08006ae5 	.word	0x08006ae5

080069f8 <HAL_SPI_TxHalfCpltCallback>:
  * @param  hspi pointer to a SPI_HandleTypeDef structure that contains
  *               the configuration information for SPI module.
  * @retval None
  */
__weak void HAL_SPI_TxHalfCpltCallback(SPI_HandleTypeDef *hspi)
{
 80069f8:	b480      	push	{r7}
 80069fa:	b083      	sub	sp, #12
 80069fc:	af00      	add	r7, sp, #0
 80069fe:	6078      	str	r0, [r7, #4]
  UNUSED(hspi);

  /* NOTE : This function should not be modified, when the callback is needed,
            the HAL_SPI_TxHalfCpltCallback should be implemented in the user file
   */
}
 8006a00:	bf00      	nop
 8006a02:	370c      	adds	r7, #12
 8006a04:	46bd      	mov	sp, r7
 8006a06:	f85d 7b04 	ldr.w	r7, [sp], #4
 8006a0a:	4770      	bx	lr

08006a0c <HAL_SPI_ErrorCallback>:
  * @param  hspi pointer to a SPI_HandleTypeDef structure that contains
  *               the configuration information for SPI module.
  * @retval None
  */
__weak void HAL_SPI_ErrorCallback(SPI_HandleTypeDef *hspi)
{
 8006a0c:	b480      	push	{r7}
 8006a0e:	b083      	sub	sp, #12
 8006a10:	af00      	add	r7, sp, #0
 8006a12:	6078      	str	r0, [r7, #4]
            the HAL_SPI_ErrorCallback should be implemented in the user file
   */
  /* NOTE : The ErrorCode parameter in the hspi handle is updated by the SPI processes
            and user can use HAL_SPI_GetError() API to check the latest error occurred
   */
}
 8006a14:	bf00      	nop
 8006a16:	370c      	adds	r7, #12
 8006a18:	46bd      	mov	sp, r7
 8006a1a:	f85d 7b04 	ldr.w	r7, [sp], #4
 8006a1e:	4770      	bx	lr

08006a20 <SPI_DMATransmitCplt>:
  * @param  hdma pointer to a DMA_HandleTypeDef structure that contains
  *               the configuration information for the specified DMA module.
  * @retval None
  */
static void SPI_DMATransmitCplt(DMA_HandleTypeDef *hdma)
{
 8006a20:	b580      	push	{r7, lr}
 8006a22:	b086      	sub	sp, #24
 8006a24:	af00      	add	r7, sp, #0
 8006a26:	6078      	str	r0, [r7, #4]
  SPI_HandleTypeDef *hspi = (SPI_HandleTypeDef *)(((DMA_HandleTypeDef *)hdma)->Parent); /* Derogation MISRAC2012-Rule-11.5 */
 8006a28:	687b      	ldr	r3, [r7, #4]
 8006a2a:	6b9b      	ldr	r3, [r3, #56]	; 0x38
 8006a2c:	617b      	str	r3, [r7, #20]
  uint32_t tickstart;

  /* Init tickstart for timeout management*/
  tickstart = HAL_GetTick();
 8006a2e:	f7fc f8cb 	bl	8002bc8 <HAL_GetTick>
 8006a32:	6138      	str	r0, [r7, #16]

  /* DMA Normal Mode */
  if ((hdma->Instance->CR & DMA_SxCR_CIRC) != DMA_SxCR_CIRC)
 8006a34:	687b      	ldr	r3, [r7, #4]
 8006a36:	681b      	ldr	r3, [r3, #0]
 8006a38:	681b      	ldr	r3, [r3, #0]
 8006a3a:	f403 7380 	and.w	r3, r3, #256	; 0x100
 8006a3e:	f5b3 7f80 	cmp.w	r3, #256	; 0x100
 8006a42:	d03b      	beq.n	8006abc <SPI_DMATransmitCplt+0x9c>
  {
    /* Disable ERR interrupt */
    __HAL_SPI_DISABLE_IT(hspi, SPI_IT_ERR);
 8006a44:	697b      	ldr	r3, [r7, #20]
 8006a46:	681b      	ldr	r3, [r3, #0]
 8006a48:	685a      	ldr	r2, [r3, #4]
 8006a4a:	697b      	ldr	r3, [r7, #20]
 8006a4c:	681b      	ldr	r3, [r3, #0]
 8006a4e:	f022 0220 	bic.w	r2, r2, #32
 8006a52:	605a      	str	r2, [r3, #4]

    /* Disable Tx DMA Request */
    CLEAR_BIT(hspi->Instance->CR2, SPI_CR2_TXDMAEN);
 8006a54:	697b      	ldr	r3, [r7, #20]
 8006a56:	681b      	ldr	r3, [r3, #0]
 8006a58:	685a      	ldr	r2, [r3, #4]
 8006a5a:	697b      	ldr	r3, [r7, #20]
 8006a5c:	681b      	ldr	r3, [r3, #0]
 8006a5e:	f022 0202 	bic.w	r2, r2, #2
 8006a62:	605a      	str	r2, [r3, #4]

    /* Check the end of the transaction */
    if (SPI_EndRxTxTransaction(hspi, SPI_DEFAULT_TIMEOUT, tickstart) != HAL_OK)
 8006a64:	693a      	ldr	r2, [r7, #16]
 8006a66:	2164      	movs	r1, #100	; 0x64
 8006a68:	6978      	ldr	r0, [r7, #20]
 8006a6a:	f000 f949 	bl	8006d00 <SPI_EndRxTxTransaction>
 8006a6e:	4603      	mov	r3, r0
 8006a70:	2b00      	cmp	r3, #0
 8006a72:	d005      	beq.n	8006a80 <SPI_DMATransmitCplt+0x60>
    {
      SET_BIT(hspi->ErrorCode, HAL_SPI_ERROR_FLAG);
 8006a74:	697b      	ldr	r3, [r7, #20]
 8006a76:	6d5b      	ldr	r3, [r3, #84]	; 0x54
 8006a78:	f043 0220 	orr.w	r2, r3, #32
 8006a7c:	697b      	ldr	r3, [r7, #20]
 8006a7e:	655a      	str	r2, [r3, #84]	; 0x54
    }

    /* Clear overrun flag in 2 Lines communication mode because received data is not read */
    if (hspi->Init.Direction == SPI_DIRECTION_2LINES)
 8006a80:	697b      	ldr	r3, [r7, #20]
 8006a82:	689b      	ldr	r3, [r3, #8]
 8006a84:	2b00      	cmp	r3, #0
 8006a86:	d10a      	bne.n	8006a9e <SPI_DMATransmitCplt+0x7e>
    {
      __HAL_SPI_CLEAR_OVRFLAG(hspi);
 8006a88:	2300      	movs	r3, #0
 8006a8a:	60fb      	str	r3, [r7, #12]
 8006a8c:	697b      	ldr	r3, [r7, #20]
 8006a8e:	681b      	ldr	r3, [r3, #0]
 8006a90:	68db      	ldr	r3, [r3, #12]
 8006a92:	60fb      	str	r3, [r7, #12]
 8006a94:	697b      	ldr	r3, [r7, #20]
 8006a96:	681b      	ldr	r3, [r3, #0]
 8006a98:	689b      	ldr	r3, [r3, #8]
 8006a9a:	60fb      	str	r3, [r7, #12]
 8006a9c:	68fb      	ldr	r3, [r7, #12]
    }

    hspi->TxXferCount = 0U;
 8006a9e:	697b      	ldr	r3, [r7, #20]
 8006aa0:	2200      	movs	r2, #0
 8006aa2:	86da      	strh	r2, [r3, #54]	; 0x36
    hspi->State = HAL_SPI_STATE_READY;
 8006aa4:	697b      	ldr	r3, [r7, #20]
 8006aa6:	2201      	movs	r2, #1
 8006aa8:	f883 2051 	strb.w	r2, [r3, #81]	; 0x51

    if (hspi->ErrorCode != HAL_SPI_ERROR_NONE)
 8006aac:	697b      	ldr	r3, [r7, #20]
 8006aae:	6d5b      	ldr	r3, [r3, #84]	; 0x54
 8006ab0:	2b00      	cmp	r3, #0
 8006ab2:	d003      	beq.n	8006abc <SPI_DMATransmitCplt+0x9c>
    {
      /* Call user error callback */
#if (USE_HAL_SPI_REGISTER_CALLBACKS == 1U)
      hspi->ErrorCallback(hspi);
#else
      HAL_SPI_ErrorCallback(hspi);
 8006ab4:	6978      	ldr	r0, [r7, #20]
 8006ab6:	f7ff ffa9 	bl	8006a0c <HAL_SPI_ErrorCallback>
#endif /* USE_HAL_SPI_REGISTER_CALLBACKS */
      return;
 8006aba:	e002      	b.n	8006ac2 <SPI_DMATransmitCplt+0xa2>
  }
  /* Call user Tx complete callback */
#if (USE_HAL_SPI_REGISTER_CALLBACKS == 1U)
  hspi->TxCpltCallback(hspi);
#else
  HAL_SPI_TxCpltCallback(hspi);
 8006abc:	6978      	ldr	r0, [r7, #20]
 8006abe:	f7fb ff4d 	bl	800295c <HAL_SPI_TxCpltCallback>
#endif /* USE_HAL_SPI_REGISTER_CALLBACKS */
}
 8006ac2:	3718      	adds	r7, #24
 8006ac4:	46bd      	mov	sp, r7
 8006ac6:	bd80      	pop	{r7, pc}

08006ac8 <SPI_DMAHalfTransmitCplt>:
  * @param  hdma pointer to a DMA_HandleTypeDef structure that contains
  *               the configuration information for the specified DMA module.
  * @retval None
  */
static void SPI_DMAHalfTransmitCplt(DMA_HandleTypeDef *hdma)
{
 8006ac8:	b580      	push	{r7, lr}
 8006aca:	b084      	sub	sp, #16
 8006acc:	af00      	add	r7, sp, #0
 8006ace:	6078      	str	r0, [r7, #4]
  SPI_HandleTypeDef *hspi = (SPI_HandleTypeDef *)(((DMA_HandleTypeDef *)hdma)->Parent); /* Derogation MISRAC2012-Rule-11.5 */
 8006ad0:	687b      	ldr	r3, [r7, #4]
 8006ad2:	6b9b      	ldr	r3, [r3, #56]	; 0x38
 8006ad4:	60fb      	str	r3, [r7, #12]

  /* Call user Tx half complete callback */
#if (USE_HAL_SPI_REGISTER_CALLBACKS == 1U)
  hspi->TxHalfCpltCallback(hspi);
#else
  HAL_SPI_TxHalfCpltCallback(hspi);
 8006ad6:	68f8      	ldr	r0, [r7, #12]
 8006ad8:	f7ff ff8e 	bl	80069f8 <HAL_SPI_TxHalfCpltCallback>
#endif /* USE_HAL_SPI_REGISTER_CALLBACKS */
}
 8006adc:	bf00      	nop
 8006ade:	3710      	adds	r7, #16
 8006ae0:	46bd      	mov	sp, r7
 8006ae2:	bd80      	pop	{r7, pc}

08006ae4 <SPI_DMAError>:
  * @param  hdma pointer to a DMA_HandleTypeDef structure that contains
  *               the configuration information for the specified DMA module.
  * @retval None
  */
static void SPI_DMAError(DMA_HandleTypeDef *hdma)
{
 8006ae4:	b580      	push	{r7, lr}
 8006ae6:	b084      	sub	sp, #16
 8006ae8:	af00      	add	r7, sp, #0
 8006aea:	6078      	str	r0, [r7, #4]
  SPI_HandleTypeDef *hspi = (SPI_HandleTypeDef *)(((DMA_HandleTypeDef *)hdma)->Parent); /* Derogation MISRAC2012-Rule-11.5 */
 8006aec:	687b      	ldr	r3, [r7, #4]
 8006aee:	6b9b      	ldr	r3, [r3, #56]	; 0x38
 8006af0:	60fb      	str	r3, [r7, #12]

  /* Stop the disable DMA transfer on SPI side */
  CLEAR_BIT(hspi->Instance->CR2, SPI_CR2_TXDMAEN | SPI_CR2_RXDMAEN);
 8006af2:	68fb      	ldr	r3, [r7, #12]
 8006af4:	681b      	ldr	r3, [r3, #0]
 8006af6:	685a      	ldr	r2, [r3, #4]
 8006af8:	68fb      	ldr	r3, [r7, #12]
 8006afa:	681b      	ldr	r3, [r3, #0]
 8006afc:	f022 0203 	bic.w	r2, r2, #3
 8006b00:	605a      	str	r2, [r3, #4]

  SET_BIT(hspi->ErrorCode, HAL_SPI_ERROR_DMA);
 8006b02:	68fb      	ldr	r3, [r7, #12]
 8006b04:	6d5b      	ldr	r3, [r3, #84]	; 0x54
 8006b06:	f043 0210 	orr.w	r2, r3, #16
 8006b0a:	68fb      	ldr	r3, [r7, #12]
 8006b0c:	655a      	str	r2, [r3, #84]	; 0x54
  hspi->State = HAL_SPI_STATE_READY;
 8006b0e:	68fb      	ldr	r3, [r7, #12]
 8006b10:	2201      	movs	r2, #1
 8006b12:	f883 2051 	strb.w	r2, [r3, #81]	; 0x51
  /* Call user error callback */
#if (USE_HAL_SPI_REGISTER_CALLBACKS == 1U)
  hspi->ErrorCallback(hspi);
#else
  HAL_SPI_ErrorCallback(hspi);
 8006b16:	68f8      	ldr	r0, [r7, #12]
 8006b18:	f7ff ff78 	bl	8006a0c <HAL_SPI_ErrorCallback>
#endif /* USE_HAL_SPI_REGISTER_CALLBACKS */
}
 8006b1c:	bf00      	nop
 8006b1e:	3710      	adds	r7, #16
 8006b20:	46bd      	mov	sp, r7
 8006b22:	bd80      	pop	{r7, pc}

08006b24 <SPI_WaitFlagStateUntilTimeout>:
  * @param  Tickstart tick start value
  * @retval HAL status
  */
static HAL_StatusTypeDef SPI_WaitFlagStateUntilTimeout(SPI_HandleTypeDef *hspi, uint32_t Flag, FlagStatus State,
                                                       uint32_t Timeout, uint32_t Tickstart)
{
 8006b24:	b580      	push	{r7, lr}
 8006b26:	b088      	sub	sp, #32
 8006b28:	af00      	add	r7, sp, #0
 8006b2a:	60f8      	str	r0, [r7, #12]
 8006b2c:	60b9      	str	r1, [r7, #8]
 8006b2e:	603b      	str	r3, [r7, #0]
 8006b30:	4613      	mov	r3, r2
 8006b32:	71fb      	strb	r3, [r7, #7]
  __IO uint32_t count;
  uint32_t tmp_timeout;
  uint32_t tmp_tickstart;

  /* Adjust Timeout value  in case of end of transfer */
  tmp_timeout   = Timeout - (HAL_GetTick() - Tickstart);
 8006b34:	f7fc f848 	bl	8002bc8 <HAL_GetTick>
 8006b38:	4602      	mov	r2, r0
 8006b3a:	6abb      	ldr	r3, [r7, #40]	; 0x28
 8006b3c:	1a9b      	subs	r3, r3, r2
 8006b3e:	683a      	ldr	r2, [r7, #0]
 8006b40:	4413      	add	r3, r2
 8006b42:	61fb      	str	r3, [r7, #28]
  tmp_tickstart = HAL_GetTick();
 8006b44:	f7fc f840 	bl	8002bc8 <HAL_GetTick>
 8006b48:	61b8      	str	r0, [r7, #24]

  /* Calculate Timeout based on a software loop to avoid blocking issue if Systick is disabled */
  count = tmp_timeout * ((SystemCoreClock * 32U) >> 20U);
 8006b4a:	4b39      	ldr	r3, [pc, #228]	; (8006c30 <SPI_WaitFlagStateUntilTimeout+0x10c>)
 8006b4c:	681b      	ldr	r3, [r3, #0]
 8006b4e:	015b      	lsls	r3, r3, #5
 8006b50:	0d1b      	lsrs	r3, r3, #20
 8006b52:	69fa      	ldr	r2, [r7, #28]
 8006b54:	fb02 f303 	mul.w	r3, r2, r3
 8006b58:	617b      	str	r3, [r7, #20]

  while ((__HAL_SPI_GET_FLAG(hspi, Flag) ? SET : RESET) != State)
 8006b5a:	e054      	b.n	8006c06 <SPI_WaitFlagStateUntilTimeout+0xe2>
  {
    if (Timeout != HAL_MAX_DELAY)
 8006b5c:	683b      	ldr	r3, [r7, #0]
 8006b5e:	f1b3 3fff 	cmp.w	r3, #4294967295	; 0xffffffff
 8006b62:	d050      	beq.n	8006c06 <SPI_WaitFlagStateUntilTimeout+0xe2>
    {
      if (((HAL_GetTick() - tmp_tickstart) >= tmp_timeout) || (tmp_timeout == 0U))
 8006b64:	f7fc f830 	bl	8002bc8 <HAL_GetTick>
 8006b68:	4602      	mov	r2, r0
 8006b6a:	69bb      	ldr	r3, [r7, #24]
 8006b6c:	1ad3      	subs	r3, r2, r3
 8006b6e:	69fa      	ldr	r2, [r7, #28]
 8006b70:	429a      	cmp	r2, r3
 8006b72:	d902      	bls.n	8006b7a <SPI_WaitFlagStateUntilTimeout+0x56>
 8006b74:	69fb      	ldr	r3, [r7, #28]
 8006b76:	2b00      	cmp	r3, #0
 8006b78:	d13d      	bne.n	8006bf6 <SPI_WaitFlagStateUntilTimeout+0xd2>
        /* Disable the SPI and reset the CRC: the CRC value should be cleared
           on both master and slave sides in order to resynchronize the master
           and slave for their respective CRC calculation */

        /* Disable TXE, RXNE and ERR interrupts for the interrupt process */
        __HAL_SPI_DISABLE_IT(hspi, (SPI_IT_TXE | SPI_IT_RXNE | SPI_IT_ERR));
 8006b7a:	68fb      	ldr	r3, [r7, #12]
 8006b7c:	681b      	ldr	r3, [r3, #0]
 8006b7e:	685a      	ldr	r2, [r3, #4]
 8006b80:	68fb      	ldr	r3, [r7, #12]
 8006b82:	681b      	ldr	r3, [r3, #0]
 8006b84:	f022 02e0 	bic.w	r2, r2, #224	; 0xe0
 8006b88:	605a      	str	r2, [r3, #4]

        if ((hspi->Init.Mode == SPI_MODE_MASTER) && ((hspi->Init.Direction == SPI_DIRECTION_1LINE)
 8006b8a:	68fb      	ldr	r3, [r7, #12]
 8006b8c:	685b      	ldr	r3, [r3, #4]
 8006b8e:	f5b3 7f82 	cmp.w	r3, #260	; 0x104
 8006b92:	d111      	bne.n	8006bb8 <SPI_WaitFlagStateUntilTimeout+0x94>
 8006b94:	68fb      	ldr	r3, [r7, #12]
 8006b96:	689b      	ldr	r3, [r3, #8]
 8006b98:	f5b3 4f00 	cmp.w	r3, #32768	; 0x8000
 8006b9c:	d004      	beq.n	8006ba8 <SPI_WaitFlagStateUntilTimeout+0x84>
                                                     || (hspi->Init.Direction == SPI_DIRECTION_2LINES_RXONLY)))
 8006b9e:	68fb      	ldr	r3, [r7, #12]
 8006ba0:	689b      	ldr	r3, [r3, #8]
 8006ba2:	f5b3 6f80 	cmp.w	r3, #1024	; 0x400
 8006ba6:	d107      	bne.n	8006bb8 <SPI_WaitFlagStateUntilTimeout+0x94>
        {
          /* Disable SPI peripheral */
          __HAL_SPI_DISABLE(hspi);
 8006ba8:	68fb      	ldr	r3, [r7, #12]
 8006baa:	681b      	ldr	r3, [r3, #0]
 8006bac:	681a      	ldr	r2, [r3, #0]
 8006bae:	68fb      	ldr	r3, [r7, #12]
 8006bb0:	681b      	ldr	r3, [r3, #0]
 8006bb2:	f022 0240 	bic.w	r2, r2, #64	; 0x40
 8006bb6:	601a      	str	r2, [r3, #0]
        }

        /* Reset CRC Calculation */
        if (hspi->Init.CRCCalculation == SPI_CRCCALCULATION_ENABLE)
 8006bb8:	68fb      	ldr	r3, [r7, #12]
 8006bba:	6a9b      	ldr	r3, [r3, #40]	; 0x28
 8006bbc:	f5b3 5f00 	cmp.w	r3, #8192	; 0x2000
 8006bc0:	d10f      	bne.n	8006be2 <SPI_WaitFlagStateUntilTimeout+0xbe>
        {
          SPI_RESET_CRC(hspi);
 8006bc2:	68fb      	ldr	r3, [r7, #12]
 8006bc4:	681b      	ldr	r3, [r3, #0]
 8006bc6:	681a      	ldr	r2, [r3, #0]
 8006bc8:	68fb      	ldr	r3, [r7, #12]
 8006bca:	681b      	ldr	r3, [r3, #0]
 8006bcc:	f422 5200 	bic.w	r2, r2, #8192	; 0x2000
 8006bd0:	601a      	str	r2, [r3, #0]
 8006bd2:	68fb      	ldr	r3, [r7, #12]
 8006bd4:	681b      	ldr	r3, [r3, #0]
 8006bd6:	681a      	ldr	r2, [r3, #0]
 8006bd8:	68fb      	ldr	r3, [r7, #12]
 8006bda:	681b      	ldr	r3, [r3, #0]
 8006bdc:	f442 5200 	orr.w	r2, r2, #8192	; 0x2000
 8006be0:	601a      	str	r2, [r3, #0]
        }

        hspi->State = HAL_SPI_STATE_READY;
 8006be2:	68fb      	ldr	r3, [r7, #12]
 8006be4:	2201      	movs	r2, #1
 8006be6:	f883 2051 	strb.w	r2, [r3, #81]	; 0x51

        /* Process Unlocked */
        __HAL_UNLOCK(hspi);
 8006bea:	68fb      	ldr	r3, [r7, #12]
 8006bec:	2200      	movs	r2, #0
 8006bee:	f883 2050 	strb.w	r2, [r3, #80]	; 0x50

        return HAL_TIMEOUT;
 8006bf2:	2303      	movs	r3, #3
 8006bf4:	e017      	b.n	8006c26 <SPI_WaitFlagStateUntilTimeout+0x102>
      }
      /* If Systick is disabled or not incremented, deactivate timeout to go in disable loop procedure */
      if (count == 0U)
 8006bf6:	697b      	ldr	r3, [r7, #20]
 8006bf8:	2b00      	cmp	r3, #0
 8006bfa:	d101      	bne.n	8006c00 <SPI_WaitFlagStateUntilTimeout+0xdc>
      {
        tmp_timeout = 0U;
 8006bfc:	2300      	movs	r3, #0
 8006bfe:	61fb      	str	r3, [r7, #28]
      }
      count--;
 8006c00:	697b      	ldr	r3, [r7, #20]
 8006c02:	3b01      	subs	r3, #1
 8006c04:	617b      	str	r3, [r7, #20]
  while ((__HAL_SPI_GET_FLAG(hspi, Flag) ? SET : RESET) != State)
 8006c06:	68fb      	ldr	r3, [r7, #12]
 8006c08:	681b      	ldr	r3, [r3, #0]
 8006c0a:	689a      	ldr	r2, [r3, #8]
 8006c0c:	68bb      	ldr	r3, [r7, #8]
 8006c0e:	4013      	ands	r3, r2
 8006c10:	68ba      	ldr	r2, [r7, #8]
 8006c12:	429a      	cmp	r2, r3
 8006c14:	bf0c      	ite	eq
 8006c16:	2301      	moveq	r3, #1
 8006c18:	2300      	movne	r3, #0
 8006c1a:	b2db      	uxtb	r3, r3
 8006c1c:	461a      	mov	r2, r3
 8006c1e:	79fb      	ldrb	r3, [r7, #7]
 8006c20:	429a      	cmp	r2, r3
 8006c22:	d19b      	bne.n	8006b5c <SPI_WaitFlagStateUntilTimeout+0x38>
    }
  }

  return HAL_OK;
 8006c24:	2300      	movs	r3, #0
}
 8006c26:	4618      	mov	r0, r3
 8006c28:	3720      	adds	r7, #32
 8006c2a:	46bd      	mov	sp, r7
 8006c2c:	bd80      	pop	{r7, pc}
 8006c2e:	bf00      	nop
 8006c30:	2000001c 	.word	0x2000001c

08006c34 <SPI_EndRxTransaction>:
  * @param  Timeout Timeout duration
  * @param  Tickstart tick start value
  * @retval HAL status
  */
static HAL_StatusTypeDef SPI_EndRxTransaction(SPI_HandleTypeDef *hspi,  uint32_t Timeout, uint32_t Tickstart)
{
 8006c34:	b580      	push	{r7, lr}
 8006c36:	b086      	sub	sp, #24
 8006c38:	af02      	add	r7, sp, #8
 8006c3a:	60f8      	str	r0, [r7, #12]
 8006c3c:	60b9      	str	r1, [r7, #8]
 8006c3e:	607a      	str	r2, [r7, #4]
  if ((hspi->Init.Mode == SPI_MODE_MASTER) && ((hspi->Init.Direction == SPI_DIRECTION_1LINE)
 8006c40:	68fb      	ldr	r3, [r7, #12]
 8006c42:	685b      	ldr	r3, [r3, #4]
 8006c44:	f5b3 7f82 	cmp.w	r3, #260	; 0x104
 8006c48:	d111      	bne.n	8006c6e <SPI_EndRxTransaction+0x3a>
 8006c4a:	68fb      	ldr	r3, [r7, #12]
 8006c4c:	689b      	ldr	r3, [r3, #8]
 8006c4e:	f5b3 4f00 	cmp.w	r3, #32768	; 0x8000
 8006c52:	d004      	beq.n	8006c5e <SPI_EndRxTransaction+0x2a>
                                               || (hspi->Init.Direction == SPI_DIRECTION_2LINES_RXONLY)))
 8006c54:	68fb      	ldr	r3, [r7, #12]
 8006c56:	689b      	ldr	r3, [r3, #8]
 8006c58:	f5b3 6f80 	cmp.w	r3, #1024	; 0x400
 8006c5c:	d107      	bne.n	8006c6e <SPI_EndRxTransaction+0x3a>
  {
    /* Disable SPI peripheral */
    __HAL_SPI_DISABLE(hspi);
 8006c5e:	68fb      	ldr	r3, [r7, #12]
 8006c60:	681b      	ldr	r3, [r3, #0]
 8006c62:	681a      	ldr	r2, [r3, #0]
 8006c64:	68fb      	ldr	r3, [r7, #12]
 8006c66:	681b      	ldr	r3, [r3, #0]
 8006c68:	f022 0240 	bic.w	r2, r2, #64	; 0x40
 8006c6c:	601a      	str	r2, [r3, #0]
  }

  /* Erratasheet: BSY bit may stay high at the end of a data transfer in Slave mode */
  if (hspi->Init.Mode == SPI_MODE_MASTER)
 8006c6e:	68fb      	ldr	r3, [r7, #12]
 8006c70:	685b      	ldr	r3, [r3, #4]
 8006c72:	f5b3 7f82 	cmp.w	r3, #260	; 0x104
 8006c76:	d12a      	bne.n	8006cce <SPI_EndRxTransaction+0x9a>
  {
    if (hspi->Init.Direction != SPI_DIRECTION_2LINES_RXONLY)
 8006c78:	68fb      	ldr	r3, [r7, #12]
 8006c7a:	689b      	ldr	r3, [r3, #8]
 8006c7c:	f5b3 6f80 	cmp.w	r3, #1024	; 0x400
 8006c80:	d012      	beq.n	8006ca8 <SPI_EndRxTransaction+0x74>
    {
      /* Control the BSY flag */
      if (SPI_WaitFlagStateUntilTimeout(hspi, SPI_FLAG_BSY, RESET, Timeout, Tickstart) != HAL_OK)
 8006c82:	687b      	ldr	r3, [r7, #4]
 8006c84:	9300      	str	r3, [sp, #0]
 8006c86:	68bb      	ldr	r3, [r7, #8]
 8006c88:	2200      	movs	r2, #0
 8006c8a:	2180      	movs	r1, #128	; 0x80
 8006c8c:	68f8      	ldr	r0, [r7, #12]
 8006c8e:	f7ff ff49 	bl	8006b24 <SPI_WaitFlagStateUntilTimeout>
 8006c92:	4603      	mov	r3, r0
 8006c94:	2b00      	cmp	r3, #0
 8006c96:	d02d      	beq.n	8006cf4 <SPI_EndRxTransaction+0xc0>
      {
        SET_BIT(hspi->ErrorCode, HAL_SPI_ERROR_FLAG);
 8006c98:	68fb      	ldr	r3, [r7, #12]
 8006c9a:	6d5b      	ldr	r3, [r3, #84]	; 0x54
 8006c9c:	f043 0220 	orr.w	r2, r3, #32
 8006ca0:	68fb      	ldr	r3, [r7, #12]
 8006ca2:	655a      	str	r2, [r3, #84]	; 0x54
        return HAL_TIMEOUT;
 8006ca4:	2303      	movs	r3, #3
 8006ca6:	e026      	b.n	8006cf6 <SPI_EndRxTransaction+0xc2>
      }
    }
    else
    {
      /* Wait the RXNE reset */
      if (SPI_WaitFlagStateUntilTimeout(hspi, SPI_FLAG_RXNE, RESET, Timeout, Tickstart) != HAL_OK)
 8006ca8:	687b      	ldr	r3, [r7, #4]
 8006caa:	9300      	str	r3, [sp, #0]
 8006cac:	68bb      	ldr	r3, [r7, #8]
 8006cae:	2200      	movs	r2, #0
 8006cb0:	2101      	movs	r1, #1
 8006cb2:	68f8      	ldr	r0, [r7, #12]
 8006cb4:	f7ff ff36 	bl	8006b24 <SPI_WaitFlagStateUntilTimeout>
 8006cb8:	4603      	mov	r3, r0
 8006cba:	2b00      	cmp	r3, #0
 8006cbc:	d01a      	beq.n	8006cf4 <SPI_EndRxTransaction+0xc0>
      {
        SET_BIT(hspi->ErrorCode, HAL_SPI_ERROR_FLAG);
 8006cbe:	68fb      	ldr	r3, [r7, #12]
 8006cc0:	6d5b      	ldr	r3, [r3, #84]	; 0x54
 8006cc2:	f043 0220 	orr.w	r2, r3, #32
 8006cc6:	68fb      	ldr	r3, [r7, #12]
 8006cc8:	655a      	str	r2, [r3, #84]	; 0x54
        return HAL_TIMEOUT;
 8006cca:	2303      	movs	r3, #3
 8006ccc:	e013      	b.n	8006cf6 <SPI_EndRxTransaction+0xc2>
    }
  }
  else
  {
    /* Wait the RXNE reset */
    if (SPI_WaitFlagStateUntilTimeout(hspi, SPI_FLAG_RXNE, RESET, Timeout, Tickstart) != HAL_OK)
 8006cce:	687b      	ldr	r3, [r7, #4]
 8006cd0:	9300      	str	r3, [sp, #0]
 8006cd2:	68bb      	ldr	r3, [r7, #8]
 8006cd4:	2200      	movs	r2, #0
 8006cd6:	2101      	movs	r1, #1
 8006cd8:	68f8      	ldr	r0, [r7, #12]
 8006cda:	f7ff ff23 	bl	8006b24 <SPI_WaitFlagStateUntilTimeout>
 8006cde:	4603      	mov	r3, r0
 8006ce0:	2b00      	cmp	r3, #0
 8006ce2:	d007      	beq.n	8006cf4 <SPI_EndRxTransaction+0xc0>
    {
      SET_BIT(hspi->ErrorCode, HAL_SPI_ERROR_FLAG);
 8006ce4:	68fb      	ldr	r3, [r7, #12]
 8006ce6:	6d5b      	ldr	r3, [r3, #84]	; 0x54
 8006ce8:	f043 0220 	orr.w	r2, r3, #32
 8006cec:	68fb      	ldr	r3, [r7, #12]
 8006cee:	655a      	str	r2, [r3, #84]	; 0x54
      return HAL_TIMEOUT;
 8006cf0:	2303      	movs	r3, #3
 8006cf2:	e000      	b.n	8006cf6 <SPI_EndRxTransaction+0xc2>
    }
  }
  return HAL_OK;
 8006cf4:	2300      	movs	r3, #0
}
 8006cf6:	4618      	mov	r0, r3
 8006cf8:	3710      	adds	r7, #16
 8006cfa:	46bd      	mov	sp, r7
 8006cfc:	bd80      	pop	{r7, pc}
	...

08006d00 <SPI_EndRxTxTransaction>:
  * @param  Timeout Timeout duration
  * @param  Tickstart tick start value
  * @retval HAL status
  */
static HAL_StatusTypeDef SPI_EndRxTxTransaction(SPI_HandleTypeDef *hspi, uint32_t Timeout, uint32_t Tickstart)
{
 8006d00:	b580      	push	{r7, lr}
 8006d02:	b088      	sub	sp, #32
 8006d04:	af02      	add	r7, sp, #8
 8006d06:	60f8      	str	r0, [r7, #12]
 8006d08:	60b9      	str	r1, [r7, #8]
 8006d0a:	607a      	str	r2, [r7, #4]
  /* Wait until TXE flag */
  if(SPI_WaitFlagStateUntilTimeout(hspi, SPI_FLAG_TXE, SET, Timeout, Tickstart) != HAL_OK)
 8006d0c:	687b      	ldr	r3, [r7, #4]
 8006d0e:	9300      	str	r3, [sp, #0]
 8006d10:	68bb      	ldr	r3, [r7, #8]
 8006d12:	2201      	movs	r2, #1
 8006d14:	2102      	movs	r1, #2
 8006d16:	68f8      	ldr	r0, [r7, #12]
 8006d18:	f7ff ff04 	bl	8006b24 <SPI_WaitFlagStateUntilTimeout>
 8006d1c:	4603      	mov	r3, r0
 8006d1e:	2b00      	cmp	r3, #0
 8006d20:	d007      	beq.n	8006d32 <SPI_EndRxTxTransaction+0x32>
  {
    SET_BIT(hspi->ErrorCode, HAL_SPI_ERROR_FLAG);
 8006d22:	68fb      	ldr	r3, [r7, #12]
 8006d24:	6d5b      	ldr	r3, [r3, #84]	; 0x54
 8006d26:	f043 0220 	orr.w	r2, r3, #32
 8006d2a:	68fb      	ldr	r3, [r7, #12]
 8006d2c:	655a      	str	r2, [r3, #84]	; 0x54
    return HAL_TIMEOUT;
 8006d2e:	2303      	movs	r3, #3
 8006d30:	e032      	b.n	8006d98 <SPI_EndRxTxTransaction+0x98>
  }

  /* Timeout in s */
  __IO uint32_t count = SPI_BSY_FLAG_WORKAROUND_TIMEOUT * (SystemCoreClock / 24U / 1000000U);
 8006d32:	4b1b      	ldr	r3, [pc, #108]	; (8006da0 <SPI_EndRxTxTransaction+0xa0>)
 8006d34:	681b      	ldr	r3, [r3, #0]
 8006d36:	4a1b      	ldr	r2, [pc, #108]	; (8006da4 <SPI_EndRxTxTransaction+0xa4>)
 8006d38:	fba2 2303 	umull	r2, r3, r2, r3
 8006d3c:	0d5b      	lsrs	r3, r3, #21
 8006d3e:	f44f 727a 	mov.w	r2, #1000	; 0x3e8
 8006d42:	fb02 f303 	mul.w	r3, r2, r3
 8006d46:	617b      	str	r3, [r7, #20]
  /* Erratasheet: BSY bit may stay high at the end of a data transfer in Slave mode */
  if (hspi->Init.Mode == SPI_MODE_MASTER)
 8006d48:	68fb      	ldr	r3, [r7, #12]
 8006d4a:	685b      	ldr	r3, [r3, #4]
 8006d4c:	f5b3 7f82 	cmp.w	r3, #260	; 0x104
 8006d50:	d112      	bne.n	8006d78 <SPI_EndRxTxTransaction+0x78>
  {
    /* Control the BSY flag */
    if (SPI_WaitFlagStateUntilTimeout(hspi, SPI_FLAG_BSY, RESET, Timeout, Tickstart) != HAL_OK)
 8006d52:	687b      	ldr	r3, [r7, #4]
 8006d54:	9300      	str	r3, [sp, #0]
 8006d56:	68bb      	ldr	r3, [r7, #8]
 8006d58:	2200      	movs	r2, #0
 8006d5a:	2180      	movs	r1, #128	; 0x80
 8006d5c:	68f8      	ldr	r0, [r7, #12]
 8006d5e:	f7ff fee1 	bl	8006b24 <SPI_WaitFlagStateUntilTimeout>
 8006d62:	4603      	mov	r3, r0
 8006d64:	2b00      	cmp	r3, #0
 8006d66:	d016      	beq.n	8006d96 <SPI_EndRxTxTransaction+0x96>
    {
      SET_BIT(hspi->ErrorCode, HAL_SPI_ERROR_FLAG);
 8006d68:	68fb      	ldr	r3, [r7, #12]
 8006d6a:	6d5b      	ldr	r3, [r3, #84]	; 0x54
 8006d6c:	f043 0220 	orr.w	r2, r3, #32
 8006d70:	68fb      	ldr	r3, [r7, #12]
 8006d72:	655a      	str	r2, [r3, #84]	; 0x54
      return HAL_TIMEOUT;
 8006d74:	2303      	movs	r3, #3
 8006d76:	e00f      	b.n	8006d98 <SPI_EndRxTxTransaction+0x98>
    * User have to calculate the timeout value to fit with the time of 1 byte transfer.
    * This time is directly link with the SPI clock from Master device.
    */
    do
    {
      if (count == 0U)
 8006d78:	697b      	ldr	r3, [r7, #20]
 8006d7a:	2b00      	cmp	r3, #0
 8006d7c:	d00a      	beq.n	8006d94 <SPI_EndRxTxTransaction+0x94>
      {
        break;
      }
      count--;
 8006d7e:	697b      	ldr	r3, [r7, #20]
 8006d80:	3b01      	subs	r3, #1
 8006d82:	617b      	str	r3, [r7, #20]
    } while (__HAL_SPI_GET_FLAG(hspi, SPI_FLAG_BSY) != RESET);
 8006d84:	68fb      	ldr	r3, [r7, #12]
 8006d86:	681b      	ldr	r3, [r3, #0]
 8006d88:	689b      	ldr	r3, [r3, #8]
 8006d8a:	f003 0380 	and.w	r3, r3, #128	; 0x80
 8006d8e:	2b80      	cmp	r3, #128	; 0x80
 8006d90:	d0f2      	beq.n	8006d78 <SPI_EndRxTxTransaction+0x78>
 8006d92:	e000      	b.n	8006d96 <SPI_EndRxTxTransaction+0x96>
        break;
 8006d94:	bf00      	nop
  }

  return HAL_OK;
 8006d96:	2300      	movs	r3, #0
}
 8006d98:	4618      	mov	r0, r3
 8006d9a:	3718      	adds	r7, #24
 8006d9c:	46bd      	mov	sp, r7
 8006d9e:	bd80      	pop	{r7, pc}
 8006da0:	2000001c 	.word	0x2000001c
 8006da4:	165e9f81 	.word	0x165e9f81

08006da8 <HAL_TIM_Base_Init>:
  *         Ex: call @ref HAL_TIM_Base_DeInit() before HAL_TIM_Base_Init()
  * @param  htim TIM Base handle
  * @retval HAL status
  */
HAL_StatusTypeDef HAL_TIM_Base_Init(TIM_HandleTypeDef *htim)
{
 8006da8:	b580      	push	{r7, lr}
 8006daa:	b082      	sub	sp, #8
 8006dac:	af00      	add	r7, sp, #0
 8006dae:	6078      	str	r0, [r7, #4]
  /* Check the TIM handle allocation */
  if (htim == NULL)
 8006db0:	687b      	ldr	r3, [r7, #4]
 8006db2:	2b00      	cmp	r3, #0
 8006db4:	d101      	bne.n	8006dba <HAL_TIM_Base_Init+0x12>
  {
    return HAL_ERROR;
 8006db6:	2301      	movs	r3, #1
 8006db8:	e041      	b.n	8006e3e <HAL_TIM_Base_Init+0x96>
  assert_param(IS_TIM_COUNTER_MODE(htim->Init.CounterMode));
  assert_param(IS_TIM_CLOCKDIVISION_DIV(htim->Init.ClockDivision));
  assert_param(IS_TIM_PERIOD(htim, htim->Init.Period));
  assert_param(IS_TIM_AUTORELOAD_PRELOAD(htim->Init.AutoReloadPreload));

  if (htim->State == HAL_TIM_STATE_RESET)
 8006dba:	687b      	ldr	r3, [r7, #4]
 8006dbc:	f893 303d 	ldrb.w	r3, [r3, #61]	; 0x3d
 8006dc0:	b2db      	uxtb	r3, r3
 8006dc2:	2b00      	cmp	r3, #0
 8006dc4:	d106      	bne.n	8006dd4 <HAL_TIM_Base_Init+0x2c>
  {
    /* Allocate lock resource and initialize it */
    htim->Lock = HAL_UNLOCKED;
 8006dc6:	687b      	ldr	r3, [r7, #4]
 8006dc8:	2200      	movs	r2, #0
 8006dca:	f883 203c 	strb.w	r2, [r3, #60]	; 0x3c
    }
    /* Init the low level hardware : GPIO, CLOCK, NVIC */
    htim->Base_MspInitCallback(htim);
#else
    /* Init the low level hardware : GPIO, CLOCK, NVIC */
    HAL_TIM_Base_MspInit(htim);
 8006dce:	6878      	ldr	r0, [r7, #4]
 8006dd0:	f7fb fcca 	bl	8002768 <HAL_TIM_Base_MspInit>
#endif /* USE_HAL_TIM_REGISTER_CALLBACKS */
  }

  /* Set the TIM state */
  htim->State = HAL_TIM_STATE_BUSY;
 8006dd4:	687b      	ldr	r3, [r7, #4]
 8006dd6:	2202      	movs	r2, #2
 8006dd8:	f883 203d 	strb.w	r2, [r3, #61]	; 0x3d

  /* Set the Time Base configuration */
  TIM_Base_SetConfig(htim->Instance, &htim->Init);
 8006ddc:	687b      	ldr	r3, [r7, #4]
 8006dde:	681a      	ldr	r2, [r3, #0]
 8006de0:	687b      	ldr	r3, [r7, #4]
 8006de2:	3304      	adds	r3, #4
 8006de4:	4619      	mov	r1, r3
 8006de6:	4610      	mov	r0, r2
 8006de8:	f000 f9c0 	bl	800716c <TIM_Base_SetConfig>

  /* Initialize the DMA burst operation state */
  htim->DMABurstState = HAL_DMA_BURST_STATE_READY;
 8006dec:	687b      	ldr	r3, [r7, #4]
 8006dee:	2201      	movs	r2, #1
 8006df0:	f883 2046 	strb.w	r2, [r3, #70]	; 0x46

  /* Initialize the TIM channels state */
  TIM_CHANNEL_STATE_SET_ALL(htim, HAL_TIM_CHANNEL_STATE_READY);
 8006df4:	687b      	ldr	r3, [r7, #4]
 8006df6:	2201      	movs	r2, #1
 8006df8:	f883 203e 	strb.w	r2, [r3, #62]	; 0x3e
 8006dfc:	687b      	ldr	r3, [r7, #4]
 8006dfe:	2201      	movs	r2, #1
 8006e00:	f883 203f 	strb.w	r2, [r3, #63]	; 0x3f
 8006e04:	687b      	ldr	r3, [r7, #4]
 8006e06:	2201      	movs	r2, #1
 8006e08:	f883 2040 	strb.w	r2, [r3, #64]	; 0x40
 8006e0c:	687b      	ldr	r3, [r7, #4]
 8006e0e:	2201      	movs	r2, #1
 8006e10:	f883 2041 	strb.w	r2, [r3, #65]	; 0x41
  TIM_CHANNEL_N_STATE_SET_ALL(htim, HAL_TIM_CHANNEL_STATE_READY);
 8006e14:	687b      	ldr	r3, [r7, #4]
 8006e16:	2201      	movs	r2, #1
 8006e18:	f883 2042 	strb.w	r2, [r3, #66]	; 0x42
 8006e1c:	687b      	ldr	r3, [r7, #4]
 8006e1e:	2201      	movs	r2, #1
 8006e20:	f883 2043 	strb.w	r2, [r3, #67]	; 0x43
 8006e24:	687b      	ldr	r3, [r7, #4]
 8006e26:	2201      	movs	r2, #1
 8006e28:	f883 2044 	strb.w	r2, [r3, #68]	; 0x44
 8006e2c:	687b      	ldr	r3, [r7, #4]
 8006e2e:	2201      	movs	r2, #1
 8006e30:	f883 2045 	strb.w	r2, [r3, #69]	; 0x45

  /* Initialize the TIM state*/
  htim->State = HAL_TIM_STATE_READY;
 8006e34:	687b      	ldr	r3, [r7, #4]
 8006e36:	2201      	movs	r2, #1
 8006e38:	f883 203d 	strb.w	r2, [r3, #61]	; 0x3d

  return HAL_OK;
 8006e3c:	2300      	movs	r3, #0
}
 8006e3e:	4618      	mov	r0, r3
 8006e40:	3708      	adds	r7, #8
 8006e42:	46bd      	mov	sp, r7
 8006e44:	bd80      	pop	{r7, pc}
	...

08006e48 <HAL_TIM_Base_Start_IT>:
  * @brief  Starts the TIM Base generation in interrupt mode.
  * @param  htim TIM Base handle
  * @retval HAL status
  */
HAL_StatusTypeDef HAL_TIM_Base_Start_IT(TIM_HandleTypeDef *htim)
{
 8006e48:	b480      	push	{r7}
 8006e4a:	b085      	sub	sp, #20
 8006e4c:	af00      	add	r7, sp, #0
 8006e4e:	6078      	str	r0, [r7, #4]

  /* Check the parameters */
  assert_param(IS_TIM_INSTANCE(htim->Instance));

  /* Check the TIM state */
  if (htim->State != HAL_TIM_STATE_READY)
 8006e50:	687b      	ldr	r3, [r7, #4]
 8006e52:	f893 303d 	ldrb.w	r3, [r3, #61]	; 0x3d
 8006e56:	b2db      	uxtb	r3, r3
 8006e58:	2b01      	cmp	r3, #1
 8006e5a:	d001      	beq.n	8006e60 <HAL_TIM_Base_Start_IT+0x18>
  {
    return HAL_ERROR;
 8006e5c:	2301      	movs	r3, #1
 8006e5e:	e04e      	b.n	8006efe <HAL_TIM_Base_Start_IT+0xb6>
  }

  /* Set the TIM state */
  htim->State = HAL_TIM_STATE_BUSY;
 8006e60:	687b      	ldr	r3, [r7, #4]
 8006e62:	2202      	movs	r2, #2
 8006e64:	f883 203d 	strb.w	r2, [r3, #61]	; 0x3d

  /* Enable the TIM Update interrupt */
  __HAL_TIM_ENABLE_IT(htim, TIM_IT_UPDATE);
 8006e68:	687b      	ldr	r3, [r7, #4]
 8006e6a:	681b      	ldr	r3, [r3, #0]
 8006e6c:	68da      	ldr	r2, [r3, #12]
 8006e6e:	687b      	ldr	r3, [r7, #4]
 8006e70:	681b      	ldr	r3, [r3, #0]
 8006e72:	f042 0201 	orr.w	r2, r2, #1
 8006e76:	60da      	str	r2, [r3, #12]

  /* Enable the Peripheral, except in trigger mode where enable is automatically done with trigger */
  if (IS_TIM_SLAVE_INSTANCE(htim->Instance))
 8006e78:	687b      	ldr	r3, [r7, #4]
 8006e7a:	681b      	ldr	r3, [r3, #0]
 8006e7c:	4a23      	ldr	r2, [pc, #140]	; (8006f0c <HAL_TIM_Base_Start_IT+0xc4>)
 8006e7e:	4293      	cmp	r3, r2
 8006e80:	d022      	beq.n	8006ec8 <HAL_TIM_Base_Start_IT+0x80>
 8006e82:	687b      	ldr	r3, [r7, #4]
 8006e84:	681b      	ldr	r3, [r3, #0]
 8006e86:	f1b3 4f80 	cmp.w	r3, #1073741824	; 0x40000000
 8006e8a:	d01d      	beq.n	8006ec8 <HAL_TIM_Base_Start_IT+0x80>
 8006e8c:	687b      	ldr	r3, [r7, #4]
 8006e8e:	681b      	ldr	r3, [r3, #0]
 8006e90:	4a1f      	ldr	r2, [pc, #124]	; (8006f10 <HAL_TIM_Base_Start_IT+0xc8>)
 8006e92:	4293      	cmp	r3, r2
 8006e94:	d018      	beq.n	8006ec8 <HAL_TIM_Base_Start_IT+0x80>
 8006e96:	687b      	ldr	r3, [r7, #4]
 8006e98:	681b      	ldr	r3, [r3, #0]
 8006e9a:	4a1e      	ldr	r2, [pc, #120]	; (8006f14 <HAL_TIM_Base_Start_IT+0xcc>)
 8006e9c:	4293      	cmp	r3, r2
 8006e9e:	d013      	beq.n	8006ec8 <HAL_TIM_Base_Start_IT+0x80>
 8006ea0:	687b      	ldr	r3, [r7, #4]
 8006ea2:	681b      	ldr	r3, [r3, #0]
 8006ea4:	4a1c      	ldr	r2, [pc, #112]	; (8006f18 <HAL_TIM_Base_Start_IT+0xd0>)
 8006ea6:	4293      	cmp	r3, r2
 8006ea8:	d00e      	beq.n	8006ec8 <HAL_TIM_Base_Start_IT+0x80>
 8006eaa:	687b      	ldr	r3, [r7, #4]
 8006eac:	681b      	ldr	r3, [r3, #0]
 8006eae:	4a1b      	ldr	r2, [pc, #108]	; (8006f1c <HAL_TIM_Base_Start_IT+0xd4>)
 8006eb0:	4293      	cmp	r3, r2
 8006eb2:	d009      	beq.n	8006ec8 <HAL_TIM_Base_Start_IT+0x80>
 8006eb4:	687b      	ldr	r3, [r7, #4]
 8006eb6:	681b      	ldr	r3, [r3, #0]
 8006eb8:	4a19      	ldr	r2, [pc, #100]	; (8006f20 <HAL_TIM_Base_Start_IT+0xd8>)
 8006eba:	4293      	cmp	r3, r2
 8006ebc:	d004      	beq.n	8006ec8 <HAL_TIM_Base_Start_IT+0x80>
 8006ebe:	687b      	ldr	r3, [r7, #4]
 8006ec0:	681b      	ldr	r3, [r3, #0]
 8006ec2:	4a18      	ldr	r2, [pc, #96]	; (8006f24 <HAL_TIM_Base_Start_IT+0xdc>)
 8006ec4:	4293      	cmp	r3, r2
 8006ec6:	d111      	bne.n	8006eec <HAL_TIM_Base_Start_IT+0xa4>
  {
    tmpsmcr = htim->Instance->SMCR & TIM_SMCR_SMS;
 8006ec8:	687b      	ldr	r3, [r7, #4]
 8006eca:	681b      	ldr	r3, [r3, #0]
 8006ecc:	689b      	ldr	r3, [r3, #8]
 8006ece:	f003 0307 	and.w	r3, r3, #7
 8006ed2:	60fb      	str	r3, [r7, #12]
    if (!IS_TIM_SLAVEMODE_TRIGGER_ENABLED(tmpsmcr))
 8006ed4:	68fb      	ldr	r3, [r7, #12]
 8006ed6:	2b06      	cmp	r3, #6
 8006ed8:	d010      	beq.n	8006efc <HAL_TIM_Base_Start_IT+0xb4>
    {
      __HAL_TIM_ENABLE(htim);
 8006eda:	687b      	ldr	r3, [r7, #4]
 8006edc:	681b      	ldr	r3, [r3, #0]
 8006ede:	681a      	ldr	r2, [r3, #0]
 8006ee0:	687b      	ldr	r3, [r7, #4]
 8006ee2:	681b      	ldr	r3, [r3, #0]
 8006ee4:	f042 0201 	orr.w	r2, r2, #1
 8006ee8:	601a      	str	r2, [r3, #0]
    if (!IS_TIM_SLAVEMODE_TRIGGER_ENABLED(tmpsmcr))
 8006eea:	e007      	b.n	8006efc <HAL_TIM_Base_Start_IT+0xb4>
    }
  }
  else
  {
    __HAL_TIM_ENABLE(htim);
 8006eec:	687b      	ldr	r3, [r7, #4]
 8006eee:	681b      	ldr	r3, [r3, #0]
 8006ef0:	681a      	ldr	r2, [r3, #0]
 8006ef2:	687b      	ldr	r3, [r7, #4]
 8006ef4:	681b      	ldr	r3, [r3, #0]
 8006ef6:	f042 0201 	orr.w	r2, r2, #1
 8006efa:	601a      	str	r2, [r3, #0]
  }

  /* Return function status */
  return HAL_OK;
 8006efc:	2300      	movs	r3, #0
}
 8006efe:	4618      	mov	r0, r3
 8006f00:	3714      	adds	r7, #20
 8006f02:	46bd      	mov	sp, r7
 8006f04:	f85d 7b04 	ldr.w	r7, [sp], #4
 8006f08:	4770      	bx	lr
 8006f0a:	bf00      	nop
 8006f0c:	40010000 	.word	0x40010000
 8006f10:	40000400 	.word	0x40000400
 8006f14:	40000800 	.word	0x40000800
 8006f18:	40000c00 	.word	0x40000c00
 8006f1c:	40010400 	.word	0x40010400
 8006f20:	40014000 	.word	0x40014000
 8006f24:	40001800 	.word	0x40001800

08006f28 <HAL_TIM_IRQHandler>:
  * @brief  This function handles TIM interrupts requests.
  * @param  htim TIM  handle
  * @retval None
  */
void HAL_TIM_IRQHandler(TIM_HandleTypeDef *htim)
{
 8006f28:	b580      	push	{r7, lr}
 8006f2a:	b084      	sub	sp, #16
 8006f2c:	af00      	add	r7, sp, #0
 8006f2e:	6078      	str	r0, [r7, #4]
  uint32_t itsource = htim->Instance->DIER;
 8006f30:	687b      	ldr	r3, [r7, #4]
 8006f32:	681b      	ldr	r3, [r3, #0]
 8006f34:	68db      	ldr	r3, [r3, #12]
 8006f36:	60fb      	str	r3, [r7, #12]
  uint32_t itflag   = htim->Instance->SR;
 8006f38:	687b      	ldr	r3, [r7, #4]
 8006f3a:	681b      	ldr	r3, [r3, #0]
 8006f3c:	691b      	ldr	r3, [r3, #16]
 8006f3e:	60bb      	str	r3, [r7, #8]

  /* Capture compare 1 event */
  if ((itflag & (TIM_FLAG_CC1)) == (TIM_FLAG_CC1))
 8006f40:	68bb      	ldr	r3, [r7, #8]
 8006f42:	f003 0302 	and.w	r3, r3, #2
 8006f46:	2b00      	cmp	r3, #0
 8006f48:	d020      	beq.n	8006f8c <HAL_TIM_IRQHandler+0x64>
  {
    if ((itsource & (TIM_IT_CC1)) == (TIM_IT_CC1))
 8006f4a:	68fb      	ldr	r3, [r7, #12]
 8006f4c:	f003 0302 	and.w	r3, r3, #2
 8006f50:	2b00      	cmp	r3, #0
 8006f52:	d01b      	beq.n	8006f8c <HAL_TIM_IRQHandler+0x64>
    {
      {
        __HAL_TIM_CLEAR_FLAG(htim, TIM_FLAG_CC1);
 8006f54:	687b      	ldr	r3, [r7, #4]
 8006f56:	681b      	ldr	r3, [r3, #0]
 8006f58:	f06f 0202 	mvn.w	r2, #2
 8006f5c:	611a      	str	r2, [r3, #16]
        htim->Channel = HAL_TIM_ACTIVE_CHANNEL_1;
 8006f5e:	687b      	ldr	r3, [r7, #4]
 8006f60:	2201      	movs	r2, #1
 8006f62:	771a      	strb	r2, [r3, #28]

        /* Input capture event */
        if ((htim->Instance->CCMR1 & TIM_CCMR1_CC1S) != 0x00U)
 8006f64:	687b      	ldr	r3, [r7, #4]
 8006f66:	681b      	ldr	r3, [r3, #0]
 8006f68:	699b      	ldr	r3, [r3, #24]
 8006f6a:	f003 0303 	and.w	r3, r3, #3
 8006f6e:	2b00      	cmp	r3, #0
 8006f70:	d003      	beq.n	8006f7a <HAL_TIM_IRQHandler+0x52>
        {
#if (USE_HAL_TIM_REGISTER_CALLBACKS == 1)
          htim->IC_CaptureCallback(htim);
#else
          HAL_TIM_IC_CaptureCallback(htim);
 8006f72:	6878      	ldr	r0, [r7, #4]
 8006f74:	f000 f8dc 	bl	8007130 <HAL_TIM_IC_CaptureCallback>
 8006f78:	e005      	b.n	8006f86 <HAL_TIM_IRQHandler+0x5e>
        {
#if (USE_HAL_TIM_REGISTER_CALLBACKS == 1)
          htim->OC_DelayElapsedCallback(htim);
          htim->PWM_PulseFinishedCallback(htim);
#else
          HAL_TIM_OC_DelayElapsedCallback(htim);
 8006f7a:	6878      	ldr	r0, [r7, #4]
 8006f7c:	f000 f8ce 	bl	800711c <HAL_TIM_OC_DelayElapsedCallback>
          HAL_TIM_PWM_PulseFinishedCallback(htim);
 8006f80:	6878      	ldr	r0, [r7, #4]
 8006f82:	f000 f8df 	bl	8007144 <HAL_TIM_PWM_PulseFinishedCallback>
#endif /* USE_HAL_TIM_REGISTER_CALLBACKS */
        }
        htim->Channel = HAL_TIM_ACTIVE_CHANNEL_CLEARED;
 8006f86:	687b      	ldr	r3, [r7, #4]
 8006f88:	2200      	movs	r2, #0
 8006f8a:	771a      	strb	r2, [r3, #28]
      }
    }
  }
  /* Capture compare 2 event */
  if ((itflag & (TIM_FLAG_CC2)) == (TIM_FLAG_CC2))
 8006f8c:	68bb      	ldr	r3, [r7, #8]
 8006f8e:	f003 0304 	and.w	r3, r3, #4
 8006f92:	2b00      	cmp	r3, #0
 8006f94:	d020      	beq.n	8006fd8 <HAL_TIM_IRQHandler+0xb0>
  {
    if ((itsource & (TIM_IT_CC2)) == (TIM_IT_CC2))
 8006f96:	68fb      	ldr	r3, [r7, #12]
 8006f98:	f003 0304 	and.w	r3, r3, #4
 8006f9c:	2b00      	cmp	r3, #0
 8006f9e:	d01b      	beq.n	8006fd8 <HAL_TIM_IRQHandler+0xb0>
    {
      __HAL_TIM_CLEAR_FLAG(htim, TIM_FLAG_CC2);
 8006fa0:	687b      	ldr	r3, [r7, #4]
 8006fa2:	681b      	ldr	r3, [r3, #0]
 8006fa4:	f06f 0204 	mvn.w	r2, #4
 8006fa8:	611a      	str	r2, [r3, #16]
      htim->Channel = HAL_TIM_ACTIVE_CHANNEL_2;
 8006faa:	687b      	ldr	r3, [r7, #4]
 8006fac:	2202      	movs	r2, #2
 8006fae:	771a      	strb	r2, [r3, #28]
      /* Input capture event */
      if ((htim->Instance->CCMR1 & TIM_CCMR1_CC2S) != 0x00U)
 8006fb0:	687b      	ldr	r3, [r7, #4]
 8006fb2:	681b      	ldr	r3, [r3, #0]
 8006fb4:	699b      	ldr	r3, [r3, #24]
 8006fb6:	f403 7340 	and.w	r3, r3, #768	; 0x300
 8006fba:	2b00      	cmp	r3, #0
 8006fbc:	d003      	beq.n	8006fc6 <HAL_TIM_IRQHandler+0x9e>
      {
#if (USE_HAL_TIM_REGISTER_CALLBACKS == 1)
        htim->IC_CaptureCallback(htim);
#else
        HAL_TIM_IC_CaptureCallback(htim);
 8006fbe:	6878      	ldr	r0, [r7, #4]
 8006fc0:	f000 f8b6 	bl	8007130 <HAL_TIM_IC_CaptureCallback>
 8006fc4:	e005      	b.n	8006fd2 <HAL_TIM_IRQHandler+0xaa>
      {
#if (USE_HAL_TIM_REGISTER_CALLBACKS == 1)
        htim->OC_DelayElapsedCallback(htim);
        htim->PWM_PulseFinishedCallback(htim);
#else
        HAL_TIM_OC_DelayElapsedCallback(htim);
 8006fc6:	6878      	ldr	r0, [r7, #4]
 8006fc8:	f000 f8a8 	bl	800711c <HAL_TIM_OC_DelayElapsedCallback>
        HAL_TIM_PWM_PulseFinishedCallback(htim);
 8006fcc:	6878      	ldr	r0, [r7, #4]
 8006fce:	f000 f8b9 	bl	8007144 <HAL_TIM_PWM_PulseFinishedCallback>
#endif /* USE_HAL_TIM_REGISTER_CALLBACKS */
      }
      htim->Channel = HAL_TIM_ACTIVE_CHANNEL_CLEARED;
 8006fd2:	687b      	ldr	r3, [r7, #4]
 8006fd4:	2200      	movs	r2, #0
 8006fd6:	771a      	strb	r2, [r3, #28]
    }
  }
  /* Capture compare 3 event */
  if ((itflag & (TIM_FLAG_CC3)) == (TIM_FLAG_CC3))
 8006fd8:	68bb      	ldr	r3, [r7, #8]
 8006fda:	f003 0308 	and.w	r3, r3, #8
 8006fde:	2b00      	cmp	r3, #0
 8006fe0:	d020      	beq.n	8007024 <HAL_TIM_IRQHandler+0xfc>
  {
    if ((itsource & (TIM_IT_CC3)) == (TIM_IT_CC3))
 8006fe2:	68fb      	ldr	r3, [r7, #12]
 8006fe4:	f003 0308 	and.w	r3, r3, #8
 8006fe8:	2b00      	cmp	r3, #0
 8006fea:	d01b      	beq.n	8007024 <HAL_TIM_IRQHandler+0xfc>
    {
      __HAL_TIM_CLEAR_FLAG(htim, TIM_FLAG_CC3);
 8006fec:	687b      	ldr	r3, [r7, #4]
 8006fee:	681b      	ldr	r3, [r3, #0]
 8006ff0:	f06f 0208 	mvn.w	r2, #8
 8006ff4:	611a      	str	r2, [r3, #16]
      htim->Channel = HAL_TIM_ACTIVE_CHANNEL_3;
 8006ff6:	687b      	ldr	r3, [r7, #4]
 8006ff8:	2204      	movs	r2, #4
 8006ffa:	771a      	strb	r2, [r3, #28]
      /* Input capture event */
      if ((htim->Instance->CCMR2 & TIM_CCMR2_CC3S) != 0x00U)
 8006ffc:	687b      	ldr	r3, [r7, #4]
 8006ffe:	681b      	ldr	r3, [r3, #0]
 8007000:	69db      	ldr	r3, [r3, #28]
 8007002:	f003 0303 	and.w	r3, r3, #3
 8007006:	2b00      	cmp	r3, #0
 8007008:	d003      	beq.n	8007012 <HAL_TIM_IRQHandler+0xea>
      {
#if (USE_HAL_TIM_REGISTER_CALLBACKS == 1)
        htim->IC_CaptureCallback(htim);
#else
        HAL_TIM_IC_CaptureCallback(htim);
 800700a:	6878      	ldr	r0, [r7, #4]
 800700c:	f000 f890 	bl	8007130 <HAL_TIM_IC_CaptureCallback>
 8007010:	e005      	b.n	800701e <HAL_TIM_IRQHandler+0xf6>
      {
#if (USE_HAL_TIM_REGISTER_CALLBACKS == 1)
        htim->OC_DelayElapsedCallback(htim);
        htim->PWM_PulseFinishedCallback(htim);
#else
        HAL_TIM_OC_DelayElapsedCallback(htim);
 8007012:	6878      	ldr	r0, [r7, #4]
 8007014:	f000 f882 	bl	800711c <HAL_TIM_OC_DelayElapsedCallback>
        HAL_TIM_PWM_PulseFinishedCallback(htim);
 8007018:	6878      	ldr	r0, [r7, #4]
 800701a:	f000 f893 	bl	8007144 <HAL_TIM_PWM_PulseFinishedCallback>
#endif /* USE_HAL_TIM_REGISTER_CALLBACKS */
      }
      htim->Channel = HAL_TIM_ACTIVE_CHANNEL_CLEARED;
 800701e:	687b      	ldr	r3, [r7, #4]
 8007020:	2200      	movs	r2, #0
 8007022:	771a      	strb	r2, [r3, #28]
    }
  }
  /* Capture compare 4 event */
  if ((itflag & (TIM_FLAG_CC4)) == (TIM_FLAG_CC4))
 8007024:	68bb      	ldr	r3, [r7, #8]
 8007026:	f003 0310 	and.w	r3, r3, #16
 800702a:	2b00      	cmp	r3, #0
 800702c:	d020      	beq.n	8007070 <HAL_TIM_IRQHandler+0x148>
  {
    if ((itsource & (TIM_IT_CC4)) == (TIM_IT_CC4))
 800702e:	68fb      	ldr	r3, [r7, #12]
 8007030:	f003 0310 	and.w	r3, r3, #16
 8007034:	2b00      	cmp	r3, #0
 8007036:	d01b      	beq.n	8007070 <HAL_TIM_IRQHandler+0x148>
    {
      __HAL_TIM_CLEAR_FLAG(htim, TIM_FLAG_CC4);
 8007038:	687b      	ldr	r3, [r7, #4]
 800703a:	681b      	ldr	r3, [r3, #0]
 800703c:	f06f 0210 	mvn.w	r2, #16
 8007040:	611a      	str	r2, [r3, #16]
      htim->Channel = HAL_TIM_ACTIVE_CHANNEL_4;
 8007042:	687b      	ldr	r3, [r7, #4]
 8007044:	2208      	movs	r2, #8
 8007046:	771a      	strb	r2, [r3, #28]
      /* Input capture event */
      if ((htim->Instance->CCMR2 & TIM_CCMR2_CC4S) != 0x00U)
 8007048:	687b      	ldr	r3, [r7, #4]
 800704a:	681b      	ldr	r3, [r3, #0]
 800704c:	69db      	ldr	r3, [r3, #28]
 800704e:	f403 7340 	and.w	r3, r3, #768	; 0x300
 8007052:	2b00      	cmp	r3, #0
 8007054:	d003      	beq.n	800705e <HAL_TIM_IRQHandler+0x136>
      {
#if (USE_HAL_TIM_REGISTER_CALLBACKS == 1)
        htim->IC_CaptureCallback(htim);
#else
        HAL_TIM_IC_CaptureCallback(htim);
 8007056:	6878      	ldr	r0, [r7, #4]
 8007058:	f000 f86a 	bl	8007130 <HAL_TIM_IC_CaptureCallback>
 800705c:	e005      	b.n	800706a <HAL_TIM_IRQHandler+0x142>
      {
#if (USE_HAL_TIM_REGISTER_CALLBACKS == 1)
        htim->OC_DelayElapsedCallback(htim);
        htim->PWM_PulseFinishedCallback(htim);
#else
        HAL_TIM_OC_DelayElapsedCallback(htim);
 800705e:	6878      	ldr	r0, [r7, #4]
 8007060:	f000 f85c 	bl	800711c <HAL_TIM_OC_DelayElapsedCallback>
        HAL_TIM_PWM_PulseFinishedCallback(htim);
 8007064:	6878      	ldr	r0, [r7, #4]
 8007066:	f000 f86d 	bl	8007144 <HAL_TIM_PWM_PulseFinishedCallback>
#endif /* USE_HAL_TIM_REGISTER_CALLBACKS */
      }
      htim->Channel = HAL_TIM_ACTIVE_CHANNEL_CLEARED;
 800706a:	687b      	ldr	r3, [r7, #4]
 800706c:	2200      	movs	r2, #0
 800706e:	771a      	strb	r2, [r3, #28]
    }
  }
  /* TIM Update event */
  if ((itflag & (TIM_FLAG_UPDATE)) == (TIM_FLAG_UPDATE))
 8007070:	68bb      	ldr	r3, [r7, #8]
 8007072:	f003 0301 	and.w	r3, r3, #1
 8007076:	2b00      	cmp	r3, #0
 8007078:	d00c      	beq.n	8007094 <HAL_TIM_IRQHandler+0x16c>
  {
    if ((itsource & (TIM_IT_UPDATE)) == (TIM_IT_UPDATE))
 800707a:	68fb      	ldr	r3, [r7, #12]
 800707c:	f003 0301 	and.w	r3, r3, #1
 8007080:	2b00      	cmp	r3, #0
 8007082:	d007      	beq.n	8007094 <HAL_TIM_IRQHandler+0x16c>
    {
      __HAL_TIM_CLEAR_FLAG(htim, TIM_FLAG_UPDATE);
 8007084:	687b      	ldr	r3, [r7, #4]
 8007086:	681b      	ldr	r3, [r3, #0]
 8007088:	f06f 0201 	mvn.w	r2, #1
 800708c:	611a      	str	r2, [r3, #16]
#if (USE_HAL_TIM_REGISTER_CALLBACKS == 1)
      htim->PeriodElapsedCallback(htim);
#else
      HAL_TIM_PeriodElapsedCallback(htim);
 800708e:	6878      	ldr	r0, [r7, #4]
 8007090:	f000 f83a 	bl	8007108 <HAL_TIM_PeriodElapsedCallback>
#endif /* USE_HAL_TIM_REGISTER_CALLBACKS */
    }
  }
  /* TIM Break input event */
  if ((itflag & (TIM_FLAG_BREAK)) == (TIM_FLAG_BREAK))
 8007094:	68bb      	ldr	r3, [r7, #8]
 8007096:	f003 0380 	and.w	r3, r3, #128	; 0x80
 800709a:	2b00      	cmp	r3, #0
 800709c:	d00c      	beq.n	80070b8 <HAL_TIM_IRQHandler+0x190>
  {
    if ((itsource & (TIM_IT_BREAK)) == (TIM_IT_BREAK))
 800709e:	68fb      	ldr	r3, [r7, #12]
 80070a0:	f003 0380 	and.w	r3, r3, #128	; 0x80
 80070a4:	2b00      	cmp	r3, #0
 80070a6:	d007      	beq.n	80070b8 <HAL_TIM_IRQHandler+0x190>
    {
      __HAL_TIM_CLEAR_FLAG(htim, TIM_FLAG_BREAK);
 80070a8:	687b      	ldr	r3, [r7, #4]
 80070aa:	681b      	ldr	r3, [r3, #0]
 80070ac:	f06f 0280 	mvn.w	r2, #128	; 0x80
 80070b0:	611a      	str	r2, [r3, #16]
#if (USE_HAL_TIM_REGISTER_CALLBACKS == 1)
      htim->BreakCallback(htim);
#else
      HAL_TIMEx_BreakCallback(htim);
 80070b2:	6878      	ldr	r0, [r7, #4]
 80070b4:	f000 f98c 	bl	80073d0 <HAL_TIMEx_BreakCallback>
#endif /* USE_HAL_TIM_REGISTER_CALLBACKS */
    }
  }
  /* TIM Trigger detection event */
  if ((itflag & (TIM_FLAG_TRIGGER)) == (TIM_FLAG_TRIGGER))
 80070b8:	68bb      	ldr	r3, [r7, #8]
 80070ba:	f003 0340 	and.w	r3, r3, #64	; 0x40
 80070be:	2b00      	cmp	r3, #0
 80070c0:	d00c      	beq.n	80070dc <HAL_TIM_IRQHandler+0x1b4>
  {
    if ((itsource & (TIM_IT_TRIGGER)) == (TIM_IT_TRIGGER))
 80070c2:	68fb      	ldr	r3, [r7, #12]
 80070c4:	f003 0340 	and.w	r3, r3, #64	; 0x40
 80070c8:	2b00      	cmp	r3, #0
 80070ca:	d007      	beq.n	80070dc <HAL_TIM_IRQHandler+0x1b4>
    {
      __HAL_TIM_CLEAR_FLAG(htim, TIM_FLAG_TRIGGER);
 80070cc:	687b      	ldr	r3, [r7, #4]
 80070ce:	681b      	ldr	r3, [r3, #0]
 80070d0:	f06f 0240 	mvn.w	r2, #64	; 0x40
 80070d4:	611a      	str	r2, [r3, #16]
#if (USE_HAL_TIM_REGISTER_CALLBACKS == 1)
      htim->TriggerCallback(htim);
#else
      HAL_TIM_TriggerCallback(htim);
 80070d6:	6878      	ldr	r0, [r7, #4]
 80070d8:	f000 f83e 	bl	8007158 <HAL_TIM_TriggerCallback>
#endif /* USE_HAL_TIM_REGISTER_CALLBACKS */
    }
  }
  /* TIM commutation event */
  if ((itflag & (TIM_FLAG_COM)) == (TIM_FLAG_COM))
 80070dc:	68bb      	ldr	r3, [r7, #8]
 80070de:	f003 0320 	and.w	r3, r3, #32
 80070e2:	2b00      	cmp	r3, #0
 80070e4:	d00c      	beq.n	8007100 <HAL_TIM_IRQHandler+0x1d8>
  {
    if ((itsource & (TIM_IT_COM)) == (TIM_IT_COM))
 80070e6:	68fb      	ldr	r3, [r7, #12]
 80070e8:	f003 0320 	and.w	r3, r3, #32
 80070ec:	2b00      	cmp	r3, #0
 80070ee:	d007      	beq.n	8007100 <HAL_TIM_IRQHandler+0x1d8>
    {
      __HAL_TIM_CLEAR_FLAG(htim, TIM_FLAG_COM);
 80070f0:	687b      	ldr	r3, [r7, #4]
 80070f2:	681b      	ldr	r3, [r3, #0]
 80070f4:	f06f 0220 	mvn.w	r2, #32
 80070f8:	611a      	str	r2, [r3, #16]
#if (USE_HAL_TIM_REGISTER_CALLBACKS == 1)
      htim->CommutationCallback(htim);
#else
      HAL_TIMEx_CommutCallback(htim);
 80070fa:	6878      	ldr	r0, [r7, #4]
 80070fc:	f000 f95e 	bl	80073bc <HAL_TIMEx_CommutCallback>
#endif /* USE_HAL_TIM_REGISTER_CALLBACKS */
    }
  }
}
 8007100:	bf00      	nop
 8007102:	3710      	adds	r7, #16
 8007104:	46bd      	mov	sp, r7
 8007106:	bd80      	pop	{r7, pc}

08007108 <HAL_TIM_PeriodElapsedCallback>:
  * @brief  Period elapsed callback in non-blocking mode
  * @param  htim TIM handle
  * @retval None
  */
__weak void HAL_TIM_PeriodElapsedCallback(TIM_HandleTypeDef *htim)
{
 8007108:	b480      	push	{r7}
 800710a:	b083      	sub	sp, #12
 800710c:	af00      	add	r7, sp, #0
 800710e:	6078      	str	r0, [r7, #4]
  UNUSED(htim);

  /* NOTE : This function should not be modified, when the callback is needed,
            the HAL_TIM_PeriodElapsedCallback could be implemented in the user file
   */
}
 8007110:	bf00      	nop
 8007112:	370c      	adds	r7, #12
 8007114:	46bd      	mov	sp, r7
 8007116:	f85d 7b04 	ldr.w	r7, [sp], #4
 800711a:	4770      	bx	lr

0800711c <HAL_TIM_OC_DelayElapsedCallback>:
  * @brief  Output Compare callback in non-blocking mode
  * @param  htim TIM OC handle
  * @retval None
  */
__weak void HAL_TIM_OC_DelayElapsedCallback(TIM_HandleTypeDef *htim)
{
 800711c:	b480      	push	{r7}
 800711e:	b083      	sub	sp, #12
 8007120:	af00      	add	r7, sp, #0
 8007122:	6078      	str	r0, [r7, #4]
  UNUSED(htim);

  /* NOTE : This function should not be modified, when the callback is needed,
            the HAL_TIM_OC_DelayElapsedCallback could be implemented in the user file
   */
}
 8007124:	bf00      	nop
 8007126:	370c      	adds	r7, #12
 8007128:	46bd      	mov	sp, r7
 800712a:	f85d 7b04 	ldr.w	r7, [sp], #4
 800712e:	4770      	bx	lr

08007130 <HAL_TIM_IC_CaptureCallback>:
  * @brief  Input Capture callback in non-blocking mode
  * @param  htim TIM IC handle
  * @retval None
  */
__weak void HAL_TIM_IC_CaptureCallback(TIM_HandleTypeDef *htim)
{
 8007130:	b480      	push	{r7}
 8007132:	b083      	sub	sp, #12
 8007134:	af00      	add	r7, sp, #0
 8007136:	6078      	str	r0, [r7, #4]
  UNUSED(htim);

  /* NOTE : This function should not be modified, when the callback is needed,
            the HAL_TIM_IC_CaptureCallback could be implemented in the user file
   */
}
 8007138:	bf00      	nop
 800713a:	370c      	adds	r7, #12
 800713c:	46bd      	mov	sp, r7
 800713e:	f85d 7b04 	ldr.w	r7, [sp], #4
 8007142:	4770      	bx	lr

08007144 <HAL_TIM_PWM_PulseFinishedCallback>:
  * @brief  PWM Pulse finished callback in non-blocking mode
  * @param  htim TIM handle
  * @retval None
  */
__weak void HAL_TIM_PWM_PulseFinishedCallback(TIM_HandleTypeDef *htim)
{
 8007144:	b480      	push	{r7}
 8007146:	b083      	sub	sp, #12
 8007148:	af00      	add	r7, sp, #0
 800714a:	6078      	str	r0, [r7, #4]
  UNUSED(htim);

  /* NOTE : This function should not be modified, when the callback is needed,
            the HAL_TIM_PWM_PulseFinishedCallback could be implemented in the user file
   */
}
 800714c:	bf00      	nop
 800714e:	370c      	adds	r7, #12
 8007150:	46bd      	mov	sp, r7
 8007152:	f85d 7b04 	ldr.w	r7, [sp], #4
 8007156:	4770      	bx	lr

08007158 <HAL_TIM_TriggerCallback>:
  * @brief  Hall Trigger detection callback in non-blocking mode
  * @param  htim TIM handle
  * @retval None
  */
__weak void HAL_TIM_TriggerCallback(TIM_HandleTypeDef *htim)
{
 8007158:	b480      	push	{r7}
 800715a:	b083      	sub	sp, #12
 800715c:	af00      	add	r7, sp, #0
 800715e:	6078      	str	r0, [r7, #4]
  UNUSED(htim);

  /* NOTE : This function should not be modified, when the callback is needed,
            the HAL_TIM_TriggerCallback could be implemented in the user file
   */
}
 8007160:	bf00      	nop
 8007162:	370c      	adds	r7, #12
 8007164:	46bd      	mov	sp, r7
 8007166:	f85d 7b04 	ldr.w	r7, [sp], #4
 800716a:	4770      	bx	lr

0800716c <TIM_Base_SetConfig>:
  * @param  TIMx TIM peripheral
  * @param  Structure TIM Base configuration structure
  * @retval None
  */
void TIM_Base_SetConfig(TIM_TypeDef *TIMx, const TIM_Base_InitTypeDef *Structure)
{
 800716c:	b480      	push	{r7}
 800716e:	b085      	sub	sp, #20
 8007170:	af00      	add	r7, sp, #0
 8007172:	6078      	str	r0, [r7, #4]
 8007174:	6039      	str	r1, [r7, #0]
  uint32_t tmpcr1;
  tmpcr1 = TIMx->CR1;
 8007176:	687b      	ldr	r3, [r7, #4]
 8007178:	681b      	ldr	r3, [r3, #0]
 800717a:	60fb      	str	r3, [r7, #12]

  /* Set TIM Time Base Unit parameters ---------------------------------------*/
  if (IS_TIM_COUNTER_MODE_SELECT_INSTANCE(TIMx))
 800717c:	687b      	ldr	r3, [r7, #4]
 800717e:	4a46      	ldr	r2, [pc, #280]	; (8007298 <TIM_Base_SetConfig+0x12c>)
 8007180:	4293      	cmp	r3, r2
 8007182:	d013      	beq.n	80071ac <TIM_Base_SetConfig+0x40>
 8007184:	687b      	ldr	r3, [r7, #4]
 8007186:	f1b3 4f80 	cmp.w	r3, #1073741824	; 0x40000000
 800718a:	d00f      	beq.n	80071ac <TIM_Base_SetConfig+0x40>
 800718c:	687b      	ldr	r3, [r7, #4]
 800718e:	4a43      	ldr	r2, [pc, #268]	; (800729c <TIM_Base_SetConfig+0x130>)
 8007190:	4293      	cmp	r3, r2
 8007192:	d00b      	beq.n	80071ac <TIM_Base_SetConfig+0x40>
 8007194:	687b      	ldr	r3, [r7, #4]
 8007196:	4a42      	ldr	r2, [pc, #264]	; (80072a0 <TIM_Base_SetConfig+0x134>)
 8007198:	4293      	cmp	r3, r2
 800719a:	d007      	beq.n	80071ac <TIM_Base_SetConfig+0x40>
 800719c:	687b      	ldr	r3, [r7, #4]
 800719e:	4a41      	ldr	r2, [pc, #260]	; (80072a4 <TIM_Base_SetConfig+0x138>)
 80071a0:	4293      	cmp	r3, r2
 80071a2:	d003      	beq.n	80071ac <TIM_Base_SetConfig+0x40>
 80071a4:	687b      	ldr	r3, [r7, #4]
 80071a6:	4a40      	ldr	r2, [pc, #256]	; (80072a8 <TIM_Base_SetConfig+0x13c>)
 80071a8:	4293      	cmp	r3, r2
 80071aa:	d108      	bne.n	80071be <TIM_Base_SetConfig+0x52>
  {
    /* Select the Counter Mode */
    tmpcr1 &= ~(TIM_CR1_DIR | TIM_CR1_CMS);
 80071ac:	68fb      	ldr	r3, [r7, #12]
 80071ae:	f023 0370 	bic.w	r3, r3, #112	; 0x70
 80071b2:	60fb      	str	r3, [r7, #12]
    tmpcr1 |= Structure->CounterMode;
 80071b4:	683b      	ldr	r3, [r7, #0]
 80071b6:	685b      	ldr	r3, [r3, #4]
 80071b8:	68fa      	ldr	r2, [r7, #12]
 80071ba:	4313      	orrs	r3, r2
 80071bc:	60fb      	str	r3, [r7, #12]
  }

  if (IS_TIM_CLOCK_DIVISION_INSTANCE(TIMx))
 80071be:	687b      	ldr	r3, [r7, #4]
 80071c0:	4a35      	ldr	r2, [pc, #212]	; (8007298 <TIM_Base_SetConfig+0x12c>)
 80071c2:	4293      	cmp	r3, r2
 80071c4:	d02b      	beq.n	800721e <TIM_Base_SetConfig+0xb2>
 80071c6:	687b      	ldr	r3, [r7, #4]
 80071c8:	f1b3 4f80 	cmp.w	r3, #1073741824	; 0x40000000
 80071cc:	d027      	beq.n	800721e <TIM_Base_SetConfig+0xb2>
 80071ce:	687b      	ldr	r3, [r7, #4]
 80071d0:	4a32      	ldr	r2, [pc, #200]	; (800729c <TIM_Base_SetConfig+0x130>)
 80071d2:	4293      	cmp	r3, r2
 80071d4:	d023      	beq.n	800721e <TIM_Base_SetConfig+0xb2>
 80071d6:	687b      	ldr	r3, [r7, #4]
 80071d8:	4a31      	ldr	r2, [pc, #196]	; (80072a0 <TIM_Base_SetConfig+0x134>)
 80071da:	4293      	cmp	r3, r2
 80071dc:	d01f      	beq.n	800721e <TIM_Base_SetConfig+0xb2>
 80071de:	687b      	ldr	r3, [r7, #4]
 80071e0:	4a30      	ldr	r2, [pc, #192]	; (80072a4 <TIM_Base_SetConfig+0x138>)
 80071e2:	4293      	cmp	r3, r2
 80071e4:	d01b      	beq.n	800721e <TIM_Base_SetConfig+0xb2>
 80071e6:	687b      	ldr	r3, [r7, #4]
 80071e8:	4a2f      	ldr	r2, [pc, #188]	; (80072a8 <TIM_Base_SetConfig+0x13c>)
 80071ea:	4293      	cmp	r3, r2
 80071ec:	d017      	beq.n	800721e <TIM_Base_SetConfig+0xb2>
 80071ee:	687b      	ldr	r3, [r7, #4]
 80071f0:	4a2e      	ldr	r2, [pc, #184]	; (80072ac <TIM_Base_SetConfig+0x140>)
 80071f2:	4293      	cmp	r3, r2
 80071f4:	d013      	beq.n	800721e <TIM_Base_SetConfig+0xb2>
 80071f6:	687b      	ldr	r3, [r7, #4]
 80071f8:	4a2d      	ldr	r2, [pc, #180]	; (80072b0 <TIM_Base_SetConfig+0x144>)
 80071fa:	4293      	cmp	r3, r2
 80071fc:	d00f      	beq.n	800721e <TIM_Base_SetConfig+0xb2>
 80071fe:	687b      	ldr	r3, [r7, #4]
 8007200:	4a2c      	ldr	r2, [pc, #176]	; (80072b4 <TIM_Base_SetConfig+0x148>)
 8007202:	4293      	cmp	r3, r2
 8007204:	d00b      	beq.n	800721e <TIM_Base_SetConfig+0xb2>
 8007206:	687b      	ldr	r3, [r7, #4]
 8007208:	4a2b      	ldr	r2, [pc, #172]	; (80072b8 <TIM_Base_SetConfig+0x14c>)
 800720a:	4293      	cmp	r3, r2
 800720c:	d007      	beq.n	800721e <TIM_Base_SetConfig+0xb2>
 800720e:	687b      	ldr	r3, [r7, #4]
 8007210:	4a2a      	ldr	r2, [pc, #168]	; (80072bc <TIM_Base_SetConfig+0x150>)
 8007212:	4293      	cmp	r3, r2
 8007214:	d003      	beq.n	800721e <TIM_Base_SetConfig+0xb2>
 8007216:	687b      	ldr	r3, [r7, #4]
 8007218:	4a29      	ldr	r2, [pc, #164]	; (80072c0 <TIM_Base_SetConfig+0x154>)
 800721a:	4293      	cmp	r3, r2
 800721c:	d108      	bne.n	8007230 <TIM_Base_SetConfig+0xc4>
  {
    /* Set the clock division */
    tmpcr1 &= ~TIM_CR1_CKD;
 800721e:	68fb      	ldr	r3, [r7, #12]
 8007220:	f423 7340 	bic.w	r3, r3, #768	; 0x300
 8007224:	60fb      	str	r3, [r7, #12]
    tmpcr1 |= (uint32_t)Structure->ClockDivision;
 8007226:	683b      	ldr	r3, [r7, #0]
 8007228:	68db      	ldr	r3, [r3, #12]
 800722a:	68fa      	ldr	r2, [r7, #12]
 800722c:	4313      	orrs	r3, r2
 800722e:	60fb      	str	r3, [r7, #12]
  }

  /* Set the auto-reload preload */
  MODIFY_REG(tmpcr1, TIM_CR1_ARPE, Structure->AutoReloadPreload);
 8007230:	68fb      	ldr	r3, [r7, #12]
 8007232:	f023 0280 	bic.w	r2, r3, #128	; 0x80
 8007236:	683b      	ldr	r3, [r7, #0]
 8007238:	695b      	ldr	r3, [r3, #20]
 800723a:	4313      	orrs	r3, r2
 800723c:	60fb      	str	r3, [r7, #12]

  TIMx->CR1 = tmpcr1;
 800723e:	687b      	ldr	r3, [r7, #4]
 8007240:	68fa      	ldr	r2, [r7, #12]
 8007242:	601a      	str	r2, [r3, #0]

  /* Set the Autoreload value */
  TIMx->ARR = (uint32_t)Structure->Period ;
 8007244:	683b      	ldr	r3, [r7, #0]
 8007246:	689a      	ldr	r2, [r3, #8]
 8007248:	687b      	ldr	r3, [r7, #4]
 800724a:	62da      	str	r2, [r3, #44]	; 0x2c

  /* Set the Prescaler value */
  TIMx->PSC = Structure->Prescaler;
 800724c:	683b      	ldr	r3, [r7, #0]
 800724e:	681a      	ldr	r2, [r3, #0]
 8007250:	687b      	ldr	r3, [r7, #4]
 8007252:	629a      	str	r2, [r3, #40]	; 0x28

  if (IS_TIM_REPETITION_COUNTER_INSTANCE(TIMx))
 8007254:	687b      	ldr	r3, [r7, #4]
 8007256:	4a10      	ldr	r2, [pc, #64]	; (8007298 <TIM_Base_SetConfig+0x12c>)
 8007258:	4293      	cmp	r3, r2
 800725a:	d003      	beq.n	8007264 <TIM_Base_SetConfig+0xf8>
 800725c:	687b      	ldr	r3, [r7, #4]
 800725e:	4a12      	ldr	r2, [pc, #72]	; (80072a8 <TIM_Base_SetConfig+0x13c>)
 8007260:	4293      	cmp	r3, r2
 8007262:	d103      	bne.n	800726c <TIM_Base_SetConfig+0x100>
  {
    /* Set the Repetition Counter value */
    TIMx->RCR = Structure->RepetitionCounter;
 8007264:	683b      	ldr	r3, [r7, #0]
 8007266:	691a      	ldr	r2, [r3, #16]
 8007268:	687b      	ldr	r3, [r7, #4]
 800726a:	631a      	str	r2, [r3, #48]	; 0x30
  }

  /* Generate an update event to reload the Prescaler
     and the repetition counter (only for advanced timer) value immediately */
  TIMx->EGR = TIM_EGR_UG;
 800726c:	687b      	ldr	r3, [r7, #4]
 800726e:	2201      	movs	r2, #1
 8007270:	615a      	str	r2, [r3, #20]

  /* Check if the update flag is set after the Update Generation, if so clear the UIF flag */
  if (HAL_IS_BIT_SET(TIMx->SR, TIM_FLAG_UPDATE))
 8007272:	687b      	ldr	r3, [r7, #4]
 8007274:	691b      	ldr	r3, [r3, #16]
 8007276:	f003 0301 	and.w	r3, r3, #1
 800727a:	2b01      	cmp	r3, #1
 800727c:	d105      	bne.n	800728a <TIM_Base_SetConfig+0x11e>
  {
    /* Clear the update flag */
    CLEAR_BIT(TIMx->SR, TIM_FLAG_UPDATE);
 800727e:	687b      	ldr	r3, [r7, #4]
 8007280:	691b      	ldr	r3, [r3, #16]
 8007282:	f023 0201 	bic.w	r2, r3, #1
 8007286:	687b      	ldr	r3, [r7, #4]
 8007288:	611a      	str	r2, [r3, #16]
  }
}
 800728a:	bf00      	nop
 800728c:	3714      	adds	r7, #20
 800728e:	46bd      	mov	sp, r7
 8007290:	f85d 7b04 	ldr.w	r7, [sp], #4
 8007294:	4770      	bx	lr
 8007296:	bf00      	nop
 8007298:	40010000 	.word	0x40010000
 800729c:	40000400 	.word	0x40000400
 80072a0:	40000800 	.word	0x40000800
 80072a4:	40000c00 	.word	0x40000c00
 80072a8:	40010400 	.word	0x40010400
 80072ac:	40014000 	.word	0x40014000
 80072b0:	40014400 	.word	0x40014400
 80072b4:	40014800 	.word	0x40014800
 80072b8:	40001800 	.word	0x40001800
 80072bc:	40001c00 	.word	0x40001c00
 80072c0:	40002000 	.word	0x40002000

080072c4 <HAL_TIMEx_MasterConfigSynchronization>:
  *         mode.
  * @retval HAL status
  */
HAL_StatusTypeDef HAL_TIMEx_MasterConfigSynchronization(TIM_HandleTypeDef *htim,
                                                        const TIM_MasterConfigTypeDef *sMasterConfig)
{
 80072c4:	b480      	push	{r7}
 80072c6:	b085      	sub	sp, #20
 80072c8:	af00      	add	r7, sp, #0
 80072ca:	6078      	str	r0, [r7, #4]
 80072cc:	6039      	str	r1, [r7, #0]
  assert_param(IS_TIM_MASTER_INSTANCE(htim->Instance));
  assert_param(IS_TIM_TRGO_SOURCE(sMasterConfig->MasterOutputTrigger));
  assert_param(IS_TIM_MSM_STATE(sMasterConfig->MasterSlaveMode));

  /* Check input state */
  __HAL_LOCK(htim);
 80072ce:	687b      	ldr	r3, [r7, #4]
 80072d0:	f893 303c 	ldrb.w	r3, [r3, #60]	; 0x3c
 80072d4:	2b01      	cmp	r3, #1
 80072d6:	d101      	bne.n	80072dc <HAL_TIMEx_MasterConfigSynchronization+0x18>
 80072d8:	2302      	movs	r3, #2
 80072da:	e05a      	b.n	8007392 <HAL_TIMEx_MasterConfigSynchronization+0xce>
 80072dc:	687b      	ldr	r3, [r7, #4]
 80072de:	2201      	movs	r2, #1
 80072e0:	f883 203c 	strb.w	r2, [r3, #60]	; 0x3c

  /* Change the handler state */
  htim->State = HAL_TIM_STATE_BUSY;
 80072e4:	687b      	ldr	r3, [r7, #4]
 80072e6:	2202      	movs	r2, #2
 80072e8:	f883 203d 	strb.w	r2, [r3, #61]	; 0x3d

  /* Get the TIMx CR2 register value */
  tmpcr2 = htim->Instance->CR2;
 80072ec:	687b      	ldr	r3, [r7, #4]
 80072ee:	681b      	ldr	r3, [r3, #0]
 80072f0:	685b      	ldr	r3, [r3, #4]
 80072f2:	60fb      	str	r3, [r7, #12]

  /* Get the TIMx SMCR register value */
  tmpsmcr = htim->Instance->SMCR;
 80072f4:	687b      	ldr	r3, [r7, #4]
 80072f6:	681b      	ldr	r3, [r3, #0]
 80072f8:	689b      	ldr	r3, [r3, #8]
 80072fa:	60bb      	str	r3, [r7, #8]

  /* Reset the MMS Bits */
  tmpcr2 &= ~TIM_CR2_MMS;
 80072fc:	68fb      	ldr	r3, [r7, #12]
 80072fe:	f023 0370 	bic.w	r3, r3, #112	; 0x70
 8007302:	60fb      	str	r3, [r7, #12]
  /* Select the TRGO source */
  tmpcr2 |=  sMasterConfig->MasterOutputTrigger;
 8007304:	683b      	ldr	r3, [r7, #0]
 8007306:	681b      	ldr	r3, [r3, #0]
 8007308:	68fa      	ldr	r2, [r7, #12]
 800730a:	4313      	orrs	r3, r2
 800730c:	60fb      	str	r3, [r7, #12]

  /* Update TIMx CR2 */
  htim->Instance->CR2 = tmpcr2;
 800730e:	687b      	ldr	r3, [r7, #4]
 8007310:	681b      	ldr	r3, [r3, #0]
 8007312:	68fa      	ldr	r2, [r7, #12]
 8007314:	605a      	str	r2, [r3, #4]

  if (IS_TIM_SLAVE_INSTANCE(htim->Instance))
 8007316:	687b      	ldr	r3, [r7, #4]
 8007318:	681b      	ldr	r3, [r3, #0]
 800731a:	4a21      	ldr	r2, [pc, #132]	; (80073a0 <HAL_TIMEx_MasterConfigSynchronization+0xdc>)
 800731c:	4293      	cmp	r3, r2
 800731e:	d022      	beq.n	8007366 <HAL_TIMEx_MasterConfigSynchronization+0xa2>
 8007320:	687b      	ldr	r3, [r7, #4]
 8007322:	681b      	ldr	r3, [r3, #0]
 8007324:	f1b3 4f80 	cmp.w	r3, #1073741824	; 0x40000000
 8007328:	d01d      	beq.n	8007366 <HAL_TIMEx_MasterConfigSynchronization+0xa2>
 800732a:	687b      	ldr	r3, [r7, #4]
 800732c:	681b      	ldr	r3, [r3, #0]
 800732e:	4a1d      	ldr	r2, [pc, #116]	; (80073a4 <HAL_TIMEx_MasterConfigSynchronization+0xe0>)
 8007330:	4293      	cmp	r3, r2
 8007332:	d018      	beq.n	8007366 <HAL_TIMEx_MasterConfigSynchronization+0xa2>
 8007334:	687b      	ldr	r3, [r7, #4]
 8007336:	681b      	ldr	r3, [r3, #0]
 8007338:	4a1b      	ldr	r2, [pc, #108]	; (80073a8 <HAL_TIMEx_MasterConfigSynchronization+0xe4>)
 800733a:	4293      	cmp	r3, r2
 800733c:	d013      	beq.n	8007366 <HAL_TIMEx_MasterConfigSynchronization+0xa2>
 800733e:	687b      	ldr	r3, [r7, #4]
 8007340:	681b      	ldr	r3, [r3, #0]
 8007342:	4a1a      	ldr	r2, [pc, #104]	; (80073ac <HAL_TIMEx_MasterConfigSynchronization+0xe8>)
 8007344:	4293      	cmp	r3, r2
 8007346:	d00e      	beq.n	8007366 <HAL_TIMEx_MasterConfigSynchronization+0xa2>
 8007348:	687b      	ldr	r3, [r7, #4]
 800734a:	681b      	ldr	r3, [r3, #0]
 800734c:	4a18      	ldr	r2, [pc, #96]	; (80073b0 <HAL_TIMEx_MasterConfigSynchronization+0xec>)
 800734e:	4293      	cmp	r3, r2
 8007350:	d009      	beq.n	8007366 <HAL_TIMEx_MasterConfigSynchronization+0xa2>
 8007352:	687b      	ldr	r3, [r7, #4]
 8007354:	681b      	ldr	r3, [r3, #0]
 8007356:	4a17      	ldr	r2, [pc, #92]	; (80073b4 <HAL_TIMEx_MasterConfigSynchronization+0xf0>)
 8007358:	4293      	cmp	r3, r2
 800735a:	d004      	beq.n	8007366 <HAL_TIMEx_MasterConfigSynchronization+0xa2>
 800735c:	687b      	ldr	r3, [r7, #4]
 800735e:	681b      	ldr	r3, [r3, #0]
 8007360:	4a15      	ldr	r2, [pc, #84]	; (80073b8 <HAL_TIMEx_MasterConfigSynchronization+0xf4>)
 8007362:	4293      	cmp	r3, r2
 8007364:	d10c      	bne.n	8007380 <HAL_TIMEx_MasterConfigSynchronization+0xbc>
  {
    /* Reset the MSM Bit */
    tmpsmcr &= ~TIM_SMCR_MSM;
 8007366:	68bb      	ldr	r3, [r7, #8]
 8007368:	f023 0380 	bic.w	r3, r3, #128	; 0x80
 800736c:	60bb      	str	r3, [r7, #8]
    /* Set master mode */
    tmpsmcr |= sMasterConfig->MasterSlaveMode;
 800736e:	683b      	ldr	r3, [r7, #0]
 8007370:	685b      	ldr	r3, [r3, #4]
 8007372:	68ba      	ldr	r2, [r7, #8]
 8007374:	4313      	orrs	r3, r2
 8007376:	60bb      	str	r3, [r7, #8]

    /* Update TIMx SMCR */
    htim->Instance->SMCR = tmpsmcr;
 8007378:	687b      	ldr	r3, [r7, #4]
 800737a:	681b      	ldr	r3, [r3, #0]
 800737c:	68ba      	ldr	r2, [r7, #8]
 800737e:	609a      	str	r2, [r3, #8]
  }

  /* Change the htim state */
  htim->State = HAL_TIM_STATE_READY;
 8007380:	687b      	ldr	r3, [r7, #4]
 8007382:	2201      	movs	r2, #1
 8007384:	f883 203d 	strb.w	r2, [r3, #61]	; 0x3d

  __HAL_UNLOCK(htim);
 8007388:	687b      	ldr	r3, [r7, #4]
 800738a:	2200      	movs	r2, #0
 800738c:	f883 203c 	strb.w	r2, [r3, #60]	; 0x3c

  return HAL_OK;
 8007390:	2300      	movs	r3, #0
}
 8007392:	4618      	mov	r0, r3
 8007394:	3714      	adds	r7, #20
 8007396:	46bd      	mov	sp, r7
 8007398:	f85d 7b04 	ldr.w	r7, [sp], #4
 800739c:	4770      	bx	lr
 800739e:	bf00      	nop
 80073a0:	40010000 	.word	0x40010000
 80073a4:	40000400 	.word	0x40000400
 80073a8:	40000800 	.word	0x40000800
 80073ac:	40000c00 	.word	0x40000c00
 80073b0:	40010400 	.word	0x40010400
 80073b4:	40014000 	.word	0x40014000
 80073b8:	40001800 	.word	0x40001800

080073bc <HAL_TIMEx_CommutCallback>:
  * @brief  Commutation callback in non-blocking mode
  * @param  htim TIM handle
  * @retval None
  */
__weak void HAL_TIMEx_CommutCallback(TIM_HandleTypeDef *htim)
{
 80073bc:	b480      	push	{r7}
 80073be:	b083      	sub	sp, #12
 80073c0:	af00      	add	r7, sp, #0
 80073c2:	6078      	str	r0, [r7, #4]
  UNUSED(htim);

  /* NOTE : This function should not be modified, when the callback is needed,
            the HAL_TIMEx_CommutCallback could be implemented in the user file
   */
}
 80073c4:	bf00      	nop
 80073c6:	370c      	adds	r7, #12
 80073c8:	46bd      	mov	sp, r7
 80073ca:	f85d 7b04 	ldr.w	r7, [sp], #4
 80073ce:	4770      	bx	lr

080073d0 <HAL_TIMEx_BreakCallback>:
  * @brief  Break detection callback in non-blocking mode
  * @param  htim TIM handle
  * @retval None
  */
__weak void HAL_TIMEx_BreakCallback(TIM_HandleTypeDef *htim)
{
 80073d0:	b480      	push	{r7}
 80073d2:	b083      	sub	sp, #12
 80073d4:	af00      	add	r7, sp, #0
 80073d6:	6078      	str	r0, [r7, #4]
  UNUSED(htim);

  /* NOTE : This function should not be modified, when the callback is needed,
            the HAL_TIMEx_BreakCallback could be implemented in the user file
   */
}
 80073d8:	bf00      	nop
 80073da:	370c      	adds	r7, #12
 80073dc:	46bd      	mov	sp, r7
 80073de:	f85d 7b04 	ldr.w	r7, [sp], #4
 80073e2:	4770      	bx	lr

080073e4 <HAL_UART_Init>:
  * @param  huart  Pointer to a UART_HandleTypeDef structure that contains
  *                the configuration information for the specified UART module.
  * @retval HAL status
  */
HAL_StatusTypeDef HAL_UART_Init(UART_HandleTypeDef *huart)
{
 80073e4:	b580      	push	{r7, lr}
 80073e6:	b082      	sub	sp, #8
 80073e8:	af00      	add	r7, sp, #0
 80073ea:	6078      	str	r0, [r7, #4]
  /* Check the UART handle allocation */
  if (huart == NULL)
 80073ec:	687b      	ldr	r3, [r7, #4]
 80073ee:	2b00      	cmp	r3, #0
 80073f0:	d101      	bne.n	80073f6 <HAL_UART_Init+0x12>
  {
    return HAL_ERROR;
 80073f2:	2301      	movs	r3, #1
 80073f4:	e042      	b.n	800747c <HAL_UART_Init+0x98>
    assert_param(IS_UART_INSTANCE(huart->Instance));
  }
  assert_param(IS_UART_WORD_LENGTH(huart->Init.WordLength));
  assert_param(IS_UART_OVERSAMPLING(huart->Init.OverSampling));

  if (huart->gState == HAL_UART_STATE_RESET)
 80073f6:	687b      	ldr	r3, [r7, #4]
 80073f8:	f893 3041 	ldrb.w	r3, [r3, #65]	; 0x41
 80073fc:	b2db      	uxtb	r3, r3
 80073fe:	2b00      	cmp	r3, #0
 8007400:	d106      	bne.n	8007410 <HAL_UART_Init+0x2c>
  {
    /* Allocate lock resource and initialize it */
    huart->Lock = HAL_UNLOCKED;
 8007402:	687b      	ldr	r3, [r7, #4]
 8007404:	2200      	movs	r2, #0
 8007406:	f883 2040 	strb.w	r2, [r3, #64]	; 0x40

    /* Init the low level hardware */
    huart->MspInitCallback(huart);
#else
    /* Init the low level hardware : GPIO, CLOCK */
    HAL_UART_MspInit(huart);
 800740a:	6878      	ldr	r0, [r7, #4]
 800740c:	f7fb f9f2 	bl	80027f4 <HAL_UART_MspInit>
#endif /* (USE_HAL_UART_REGISTER_CALLBACKS) */
  }

  huart->gState = HAL_UART_STATE_BUSY;
 8007410:	687b      	ldr	r3, [r7, #4]
 8007412:	2224      	movs	r2, #36	; 0x24
 8007414:	f883 2041 	strb.w	r2, [r3, #65]	; 0x41

  /* Disable the peripheral */
  __HAL_UART_DISABLE(huart);
 8007418:	687b      	ldr	r3, [r7, #4]
 800741a:	681b      	ldr	r3, [r3, #0]
 800741c:	68da      	ldr	r2, [r3, #12]
 800741e:	687b      	ldr	r3, [r7, #4]
 8007420:	681b      	ldr	r3, [r3, #0]
 8007422:	f422 5200 	bic.w	r2, r2, #8192	; 0x2000
 8007426:	60da      	str	r2, [r3, #12]

  /* Set the UART Communication parameters */
  UART_SetConfig(huart);
 8007428:	6878      	ldr	r0, [r7, #4]
 800742a:	f000 fdbd 	bl	8007fa8 <UART_SetConfig>

  /* In asynchronous mode, the following bits must be kept cleared:
     - LINEN and CLKEN bits in the USART_CR2 register,
     - SCEN, HDSEL and IREN  bits in the USART_CR3 register.*/
  CLEAR_BIT(huart->Instance->CR2, (USART_CR2_LINEN | USART_CR2_CLKEN));
 800742e:	687b      	ldr	r3, [r7, #4]
 8007430:	681b      	ldr	r3, [r3, #0]
 8007432:	691a      	ldr	r2, [r3, #16]
 8007434:	687b      	ldr	r3, [r7, #4]
 8007436:	681b      	ldr	r3, [r3, #0]
 8007438:	f422 4290 	bic.w	r2, r2, #18432	; 0x4800
 800743c:	611a      	str	r2, [r3, #16]
  CLEAR_BIT(huart->Instance->CR3, (USART_CR3_SCEN | USART_CR3_HDSEL | USART_CR3_IREN));
 800743e:	687b      	ldr	r3, [r7, #4]
 8007440:	681b      	ldr	r3, [r3, #0]
 8007442:	695a      	ldr	r2, [r3, #20]
 8007444:	687b      	ldr	r3, [r7, #4]
 8007446:	681b      	ldr	r3, [r3, #0]
 8007448:	f022 022a 	bic.w	r2, r2, #42	; 0x2a
 800744c:	615a      	str	r2, [r3, #20]

  /* Enable the peripheral */
  __HAL_UART_ENABLE(huart);
 800744e:	687b      	ldr	r3, [r7, #4]
 8007450:	681b      	ldr	r3, [r3, #0]
 8007452:	68da      	ldr	r2, [r3, #12]
 8007454:	687b      	ldr	r3, [r7, #4]
 8007456:	681b      	ldr	r3, [r3, #0]
 8007458:	f442 5200 	orr.w	r2, r2, #8192	; 0x2000
 800745c:	60da      	str	r2, [r3, #12]

  /* Initialize the UART state */
  huart->ErrorCode = HAL_UART_ERROR_NONE;
 800745e:	687b      	ldr	r3, [r7, #4]
 8007460:	2200      	movs	r2, #0
 8007462:	645a      	str	r2, [r3, #68]	; 0x44
  huart->gState = HAL_UART_STATE_READY;
 8007464:	687b      	ldr	r3, [r7, #4]
 8007466:	2220      	movs	r2, #32
 8007468:	f883 2041 	strb.w	r2, [r3, #65]	; 0x41
  huart->RxState = HAL_UART_STATE_READY;
 800746c:	687b      	ldr	r3, [r7, #4]
 800746e:	2220      	movs	r2, #32
 8007470:	f883 2042 	strb.w	r2, [r3, #66]	; 0x42
  huart->RxEventType = HAL_UART_RXEVENT_TC;
 8007474:	687b      	ldr	r3, [r7, #4]
 8007476:	2200      	movs	r2, #0
 8007478:	635a      	str	r2, [r3, #52]	; 0x34

  return HAL_OK;
 800747a:	2300      	movs	r3, #0
}
 800747c:	4618      	mov	r0, r3
 800747e:	3708      	adds	r7, #8
 8007480:	46bd      	mov	sp, r7
 8007482:	bd80      	pop	{r7, pc}

08007484 <HAL_UART_Transmit>:
  * @param  Size  Amount of data elements (u8 or u16) to be sent
  * @param  Timeout Timeout duration
  * @retval HAL status
  */
HAL_StatusTypeDef HAL_UART_Transmit(UART_HandleTypeDef *huart, const uint8_t *pData, uint16_t Size, uint32_t Timeout)
{
 8007484:	b580      	push	{r7, lr}
 8007486:	b08a      	sub	sp, #40	; 0x28
 8007488:	af02      	add	r7, sp, #8
 800748a:	60f8      	str	r0, [r7, #12]
 800748c:	60b9      	str	r1, [r7, #8]
 800748e:	603b      	str	r3, [r7, #0]
 8007490:	4613      	mov	r3, r2
 8007492:	80fb      	strh	r3, [r7, #6]
  const uint8_t  *pdata8bits;
  const uint16_t *pdata16bits;
  uint32_t tickstart = 0U;
 8007494:	2300      	movs	r3, #0
 8007496:	617b      	str	r3, [r7, #20]

  /* Check that a Tx process is not already ongoing */
  if (huart->gState == HAL_UART_STATE_READY)
 8007498:	68fb      	ldr	r3, [r7, #12]
 800749a:	f893 3041 	ldrb.w	r3, [r3, #65]	; 0x41
 800749e:	b2db      	uxtb	r3, r3
 80074a0:	2b20      	cmp	r3, #32
 80074a2:	d175      	bne.n	8007590 <HAL_UART_Transmit+0x10c>
  {
    if ((pData == NULL) || (Size == 0U))
 80074a4:	68bb      	ldr	r3, [r7, #8]
 80074a6:	2b00      	cmp	r3, #0
 80074a8:	d002      	beq.n	80074b0 <HAL_UART_Transmit+0x2c>
 80074aa:	88fb      	ldrh	r3, [r7, #6]
 80074ac:	2b00      	cmp	r3, #0
 80074ae:	d101      	bne.n	80074b4 <HAL_UART_Transmit+0x30>
    {
      return  HAL_ERROR;
 80074b0:	2301      	movs	r3, #1
 80074b2:	e06e      	b.n	8007592 <HAL_UART_Transmit+0x10e>
    }

    huart->ErrorCode = HAL_UART_ERROR_NONE;
 80074b4:	68fb      	ldr	r3, [r7, #12]
 80074b6:	2200      	movs	r2, #0
 80074b8:	645a      	str	r2, [r3, #68]	; 0x44
    huart->gState = HAL_UART_STATE_BUSY_TX;
 80074ba:	68fb      	ldr	r3, [r7, #12]
 80074bc:	2221      	movs	r2, #33	; 0x21
 80074be:	f883 2041 	strb.w	r2, [r3, #65]	; 0x41

    /* Init tickstart for timeout management */
    tickstart = HAL_GetTick();
 80074c2:	f7fb fb81 	bl	8002bc8 <HAL_GetTick>
 80074c6:	6178      	str	r0, [r7, #20]

    huart->TxXferSize = Size;
 80074c8:	68fb      	ldr	r3, [r7, #12]
 80074ca:	88fa      	ldrh	r2, [r7, #6]
 80074cc:	849a      	strh	r2, [r3, #36]	; 0x24
    huart->TxXferCount = Size;
 80074ce:	68fb      	ldr	r3, [r7, #12]
 80074d0:	88fa      	ldrh	r2, [r7, #6]
 80074d2:	84da      	strh	r2, [r3, #38]	; 0x26

    /* In case of 9bits/No Parity transfer, pData needs to be handled as a uint16_t pointer */
    if ((huart->Init.WordLength == UART_WORDLENGTH_9B) && (huart->Init.Parity == UART_PARITY_NONE))
 80074d4:	68fb      	ldr	r3, [r7, #12]
 80074d6:	689b      	ldr	r3, [r3, #8]
 80074d8:	f5b3 5f80 	cmp.w	r3, #4096	; 0x1000
 80074dc:	d108      	bne.n	80074f0 <HAL_UART_Transmit+0x6c>
 80074de:	68fb      	ldr	r3, [r7, #12]
 80074e0:	691b      	ldr	r3, [r3, #16]
 80074e2:	2b00      	cmp	r3, #0
 80074e4:	d104      	bne.n	80074f0 <HAL_UART_Transmit+0x6c>
    {
      pdata8bits  = NULL;
 80074e6:	2300      	movs	r3, #0
 80074e8:	61fb      	str	r3, [r7, #28]
      pdata16bits = (const uint16_t *) pData;
 80074ea:	68bb      	ldr	r3, [r7, #8]
 80074ec:	61bb      	str	r3, [r7, #24]
 80074ee:	e003      	b.n	80074f8 <HAL_UART_Transmit+0x74>
    }
    else
    {
      pdata8bits  = pData;
 80074f0:	68bb      	ldr	r3, [r7, #8]
 80074f2:	61fb      	str	r3, [r7, #28]
      pdata16bits = NULL;
 80074f4:	2300      	movs	r3, #0
 80074f6:	61bb      	str	r3, [r7, #24]
    }

    while (huart->TxXferCount > 0U)
 80074f8:	e02e      	b.n	8007558 <HAL_UART_Transmit+0xd4>
    {
      if (UART_WaitOnFlagUntilTimeout(huart, UART_FLAG_TXE, RESET, tickstart, Timeout) != HAL_OK)
 80074fa:	683b      	ldr	r3, [r7, #0]
 80074fc:	9300      	str	r3, [sp, #0]
 80074fe:	697b      	ldr	r3, [r7, #20]
 8007500:	2200      	movs	r2, #0
 8007502:	2180      	movs	r1, #128	; 0x80
 8007504:	68f8      	ldr	r0, [r7, #12]
 8007506:	f000 fb1f 	bl	8007b48 <UART_WaitOnFlagUntilTimeout>
 800750a:	4603      	mov	r3, r0
 800750c:	2b00      	cmp	r3, #0
 800750e:	d005      	beq.n	800751c <HAL_UART_Transmit+0x98>
      {
        huart->gState = HAL_UART_STATE_READY;
 8007510:	68fb      	ldr	r3, [r7, #12]
 8007512:	2220      	movs	r2, #32
 8007514:	f883 2041 	strb.w	r2, [r3, #65]	; 0x41

        return HAL_TIMEOUT;
 8007518:	2303      	movs	r3, #3
 800751a:	e03a      	b.n	8007592 <HAL_UART_Transmit+0x10e>
      }
      if (pdata8bits == NULL)
 800751c:	69fb      	ldr	r3, [r7, #28]
 800751e:	2b00      	cmp	r3, #0
 8007520:	d10b      	bne.n	800753a <HAL_UART_Transmit+0xb6>
      {
        huart->Instance->DR = (uint16_t)(*pdata16bits & 0x01FFU);
 8007522:	69bb      	ldr	r3, [r7, #24]
 8007524:	881b      	ldrh	r3, [r3, #0]
 8007526:	461a      	mov	r2, r3
 8007528:	68fb      	ldr	r3, [r7, #12]
 800752a:	681b      	ldr	r3, [r3, #0]
 800752c:	f3c2 0208 	ubfx	r2, r2, #0, #9
 8007530:	605a      	str	r2, [r3, #4]
        pdata16bits++;
 8007532:	69bb      	ldr	r3, [r7, #24]
 8007534:	3302      	adds	r3, #2
 8007536:	61bb      	str	r3, [r7, #24]
 8007538:	e007      	b.n	800754a <HAL_UART_Transmit+0xc6>
      }
      else
      {
        huart->Instance->DR = (uint8_t)(*pdata8bits & 0xFFU);
 800753a:	69fb      	ldr	r3, [r7, #28]
 800753c:	781a      	ldrb	r2, [r3, #0]
 800753e:	68fb      	ldr	r3, [r7, #12]
 8007540:	681b      	ldr	r3, [r3, #0]
 8007542:	605a      	str	r2, [r3, #4]
        pdata8bits++;
 8007544:	69fb      	ldr	r3, [r7, #28]
 8007546:	3301      	adds	r3, #1
 8007548:	61fb      	str	r3, [r7, #28]
      }
      huart->TxXferCount--;
 800754a:	68fb      	ldr	r3, [r7, #12]
 800754c:	8cdb      	ldrh	r3, [r3, #38]	; 0x26
 800754e:	b29b      	uxth	r3, r3
 8007550:	3b01      	subs	r3, #1
 8007552:	b29a      	uxth	r2, r3
 8007554:	68fb      	ldr	r3, [r7, #12]
 8007556:	84da      	strh	r2, [r3, #38]	; 0x26
    while (huart->TxXferCount > 0U)
 8007558:	68fb      	ldr	r3, [r7, #12]
 800755a:	8cdb      	ldrh	r3, [r3, #38]	; 0x26
 800755c:	b29b      	uxth	r3, r3
 800755e:	2b00      	cmp	r3, #0
 8007560:	d1cb      	bne.n	80074fa <HAL_UART_Transmit+0x76>
    }

    if (UART_WaitOnFlagUntilTimeout(huart, UART_FLAG_TC, RESET, tickstart, Timeout) != HAL_OK)
 8007562:	683b      	ldr	r3, [r7, #0]
 8007564:	9300      	str	r3, [sp, #0]
 8007566:	697b      	ldr	r3, [r7, #20]
 8007568:	2200      	movs	r2, #0
 800756a:	2140      	movs	r1, #64	; 0x40
 800756c:	68f8      	ldr	r0, [r7, #12]
 800756e:	f000 faeb 	bl	8007b48 <UART_WaitOnFlagUntilTimeout>
 8007572:	4603      	mov	r3, r0
 8007574:	2b00      	cmp	r3, #0
 8007576:	d005      	beq.n	8007584 <HAL_UART_Transmit+0x100>
    {
      huart->gState = HAL_UART_STATE_READY;
 8007578:	68fb      	ldr	r3, [r7, #12]
 800757a:	2220      	movs	r2, #32
 800757c:	f883 2041 	strb.w	r2, [r3, #65]	; 0x41

      return HAL_TIMEOUT;
 8007580:	2303      	movs	r3, #3
 8007582:	e006      	b.n	8007592 <HAL_UART_Transmit+0x10e>
    }

    /* At end of Tx process, restore huart->gState to Ready */
    huart->gState = HAL_UART_STATE_READY;
 8007584:	68fb      	ldr	r3, [r7, #12]
 8007586:	2220      	movs	r2, #32
 8007588:	f883 2041 	strb.w	r2, [r3, #65]	; 0x41

    return HAL_OK;
 800758c:	2300      	movs	r3, #0
 800758e:	e000      	b.n	8007592 <HAL_UART_Transmit+0x10e>
  }
  else
  {
    return HAL_BUSY;
 8007590:	2302      	movs	r3, #2
  }
}
 8007592:	4618      	mov	r0, r3
 8007594:	3720      	adds	r7, #32
 8007596:	46bd      	mov	sp, r7
 8007598:	bd80      	pop	{r7, pc}

0800759a <HAL_UART_Receive_IT>:
  * @param  pData Pointer to data buffer (u8 or u16 data elements).
  * @param  Size  Amount of data elements (u8 or u16) to be received.
  * @retval HAL status
  */
HAL_StatusTypeDef HAL_UART_Receive_IT(UART_HandleTypeDef *huart, uint8_t *pData, uint16_t Size)
{
 800759a:	b580      	push	{r7, lr}
 800759c:	b084      	sub	sp, #16
 800759e:	af00      	add	r7, sp, #0
 80075a0:	60f8      	str	r0, [r7, #12]
 80075a2:	60b9      	str	r1, [r7, #8]
 80075a4:	4613      	mov	r3, r2
 80075a6:	80fb      	strh	r3, [r7, #6]
  /* Check that a Rx process is not already ongoing */
  if (huart->RxState == HAL_UART_STATE_READY)
 80075a8:	68fb      	ldr	r3, [r7, #12]
 80075aa:	f893 3042 	ldrb.w	r3, [r3, #66]	; 0x42
 80075ae:	b2db      	uxtb	r3, r3
 80075b0:	2b20      	cmp	r3, #32
 80075b2:	d112      	bne.n	80075da <HAL_UART_Receive_IT+0x40>
  {
    if ((pData == NULL) || (Size == 0U))
 80075b4:	68bb      	ldr	r3, [r7, #8]
 80075b6:	2b00      	cmp	r3, #0
 80075b8:	d002      	beq.n	80075c0 <HAL_UART_Receive_IT+0x26>
 80075ba:	88fb      	ldrh	r3, [r7, #6]
 80075bc:	2b00      	cmp	r3, #0
 80075be:	d101      	bne.n	80075c4 <HAL_UART_Receive_IT+0x2a>
    {
      return HAL_ERROR;
 80075c0:	2301      	movs	r3, #1
 80075c2:	e00b      	b.n	80075dc <HAL_UART_Receive_IT+0x42>
    }

    /* Set Reception type to Standard reception */
    huart->ReceptionType = HAL_UART_RECEPTION_STANDARD;
 80075c4:	68fb      	ldr	r3, [r7, #12]
 80075c6:	2200      	movs	r2, #0
 80075c8:	631a      	str	r2, [r3, #48]	; 0x30

    return (UART_Start_Receive_IT(huart, pData, Size));
 80075ca:	88fb      	ldrh	r3, [r7, #6]
 80075cc:	461a      	mov	r2, r3
 80075ce:	68b9      	ldr	r1, [r7, #8]
 80075d0:	68f8      	ldr	r0, [r7, #12]
 80075d2:	f000 fb12 	bl	8007bfa <UART_Start_Receive_IT>
 80075d6:	4603      	mov	r3, r0
 80075d8:	e000      	b.n	80075dc <HAL_UART_Receive_IT+0x42>
  }
  else
  {
    return HAL_BUSY;
 80075da:	2302      	movs	r3, #2
  }
}
 80075dc:	4618      	mov	r0, r3
 80075de:	3710      	adds	r7, #16
 80075e0:	46bd      	mov	sp, r7
 80075e2:	bd80      	pop	{r7, pc}

080075e4 <HAL_UART_IRQHandler>:
  * @param  huart  Pointer to a UART_HandleTypeDef structure that contains
  *                the configuration information for the specified UART module.
  * @retval None
  */
void HAL_UART_IRQHandler(UART_HandleTypeDef *huart)
{
 80075e4:	b580      	push	{r7, lr}
 80075e6:	b0ba      	sub	sp, #232	; 0xe8
 80075e8:	af00      	add	r7, sp, #0
 80075ea:	6078      	str	r0, [r7, #4]
  uint32_t isrflags   = READ_REG(huart->Instance->SR);
 80075ec:	687b      	ldr	r3, [r7, #4]
 80075ee:	681b      	ldr	r3, [r3, #0]
 80075f0:	681b      	ldr	r3, [r3, #0]
 80075f2:	f8c7 30e4 	str.w	r3, [r7, #228]	; 0xe4
  uint32_t cr1its     = READ_REG(huart->Instance->CR1);
 80075f6:	687b      	ldr	r3, [r7, #4]
 80075f8:	681b      	ldr	r3, [r3, #0]
 80075fa:	68db      	ldr	r3, [r3, #12]
 80075fc:	f8c7 30e0 	str.w	r3, [r7, #224]	; 0xe0
  uint32_t cr3its     = READ_REG(huart->Instance->CR3);
 8007600:	687b      	ldr	r3, [r7, #4]
 8007602:	681b      	ldr	r3, [r3, #0]
 8007604:	695b      	ldr	r3, [r3, #20]
 8007606:	f8c7 30dc 	str.w	r3, [r7, #220]	; 0xdc
  uint32_t errorflags = 0x00U;
 800760a:	2300      	movs	r3, #0
 800760c:	f8c7 30d8 	str.w	r3, [r7, #216]	; 0xd8
  uint32_t dmarequest = 0x00U;
 8007610:	2300      	movs	r3, #0
 8007612:	f8c7 30d4 	str.w	r3, [r7, #212]	; 0xd4

  /* If no error occurs */
  errorflags = (isrflags & (uint32_t)(USART_SR_PE | USART_SR_FE | USART_SR_ORE | USART_SR_NE));
 8007616:	f8d7 30e4 	ldr.w	r3, [r7, #228]	; 0xe4
 800761a:	f003 030f 	and.w	r3, r3, #15
 800761e:	f8c7 30d8 	str.w	r3, [r7, #216]	; 0xd8
  if (errorflags == RESET)
 8007622:	f8d7 30d8 	ldr.w	r3, [r7, #216]	; 0xd8
 8007626:	2b00      	cmp	r3, #0
 8007628:	d10f      	bne.n	800764a <HAL_UART_IRQHandler+0x66>
  {
    /* UART in mode Receiver -------------------------------------------------*/
    if (((isrflags & USART_SR_RXNE) != RESET) && ((cr1its & USART_CR1_RXNEIE) != RESET))
 800762a:	f8d7 30e4 	ldr.w	r3, [r7, #228]	; 0xe4
 800762e:	f003 0320 	and.w	r3, r3, #32
 8007632:	2b00      	cmp	r3, #0
 8007634:	d009      	beq.n	800764a <HAL_UART_IRQHandler+0x66>
 8007636:	f8d7 30e0 	ldr.w	r3, [r7, #224]	; 0xe0
 800763a:	f003 0320 	and.w	r3, r3, #32
 800763e:	2b00      	cmp	r3, #0
 8007640:	d003      	beq.n	800764a <HAL_UART_IRQHandler+0x66>
    {
      UART_Receive_IT(huart);
 8007642:	6878      	ldr	r0, [r7, #4]
 8007644:	f000 fbf2 	bl	8007e2c <UART_Receive_IT>
      return;
 8007648:	e25b      	b.n	8007b02 <HAL_UART_IRQHandler+0x51e>
    }
  }

  /* If some errors occur */
  if ((errorflags != RESET) && (((cr3its & USART_CR3_EIE) != RESET)
 800764a:	f8d7 30d8 	ldr.w	r3, [r7, #216]	; 0xd8
 800764e:	2b00      	cmp	r3, #0
 8007650:	f000 80de 	beq.w	8007810 <HAL_UART_IRQHandler+0x22c>
 8007654:	f8d7 30dc 	ldr.w	r3, [r7, #220]	; 0xdc
 8007658:	f003 0301 	and.w	r3, r3, #1
 800765c:	2b00      	cmp	r3, #0
 800765e:	d106      	bne.n	800766e <HAL_UART_IRQHandler+0x8a>
                                || ((cr1its & (USART_CR1_RXNEIE | USART_CR1_PEIE)) != RESET)))
 8007660:	f8d7 30e0 	ldr.w	r3, [r7, #224]	; 0xe0
 8007664:	f403 7390 	and.w	r3, r3, #288	; 0x120
 8007668:	2b00      	cmp	r3, #0
 800766a:	f000 80d1 	beq.w	8007810 <HAL_UART_IRQHandler+0x22c>
  {
    /* UART parity error interrupt occurred ----------------------------------*/
    if (((isrflags & USART_SR_PE) != RESET) && ((cr1its & USART_CR1_PEIE) != RESET))
 800766e:	f8d7 30e4 	ldr.w	r3, [r7, #228]	; 0xe4
 8007672:	f003 0301 	and.w	r3, r3, #1
 8007676:	2b00      	cmp	r3, #0
 8007678:	d00b      	beq.n	8007692 <HAL_UART_IRQHandler+0xae>
 800767a:	f8d7 30e0 	ldr.w	r3, [r7, #224]	; 0xe0
 800767e:	f403 7380 	and.w	r3, r3, #256	; 0x100
 8007682:	2b00      	cmp	r3, #0
 8007684:	d005      	beq.n	8007692 <HAL_UART_IRQHandler+0xae>
    {
      huart->ErrorCode |= HAL_UART_ERROR_PE;
 8007686:	687b      	ldr	r3, [r7, #4]
 8007688:	6c5b      	ldr	r3, [r3, #68]	; 0x44
 800768a:	f043 0201 	orr.w	r2, r3, #1
 800768e:	687b      	ldr	r3, [r7, #4]
 8007690:	645a      	str	r2, [r3, #68]	; 0x44
    }

    /* UART noise error interrupt occurred -----------------------------------*/
    if (((isrflags & USART_SR_NE) != RESET) && ((cr3its & USART_CR3_EIE) != RESET))
 8007692:	f8d7 30e4 	ldr.w	r3, [r7, #228]	; 0xe4
 8007696:	f003 0304 	and.w	r3, r3, #4
 800769a:	2b00      	cmp	r3, #0
 800769c:	d00b      	beq.n	80076b6 <HAL_UART_IRQHandler+0xd2>
 800769e:	f8d7 30dc 	ldr.w	r3, [r7, #220]	; 0xdc
 80076a2:	f003 0301 	and.w	r3, r3, #1
 80076a6:	2b00      	cmp	r3, #0
 80076a8:	d005      	beq.n	80076b6 <HAL_UART_IRQHandler+0xd2>
    {
      huart->ErrorCode |= HAL_UART_ERROR_NE;
 80076aa:	687b      	ldr	r3, [r7, #4]
 80076ac:	6c5b      	ldr	r3, [r3, #68]	; 0x44
 80076ae:	f043 0202 	orr.w	r2, r3, #2
 80076b2:	687b      	ldr	r3, [r7, #4]
 80076b4:	645a      	str	r2, [r3, #68]	; 0x44
    }

    /* UART frame error interrupt occurred -----------------------------------*/
    if (((isrflags & USART_SR_FE) != RESET) && ((cr3its & USART_CR3_EIE) != RESET))
 80076b6:	f8d7 30e4 	ldr.w	r3, [r7, #228]	; 0xe4
 80076ba:	f003 0302 	and.w	r3, r3, #2
 80076be:	2b00      	cmp	r3, #0
 80076c0:	d00b      	beq.n	80076da <HAL_UART_IRQHandler+0xf6>
 80076c2:	f8d7 30dc 	ldr.w	r3, [r7, #220]	; 0xdc
 80076c6:	f003 0301 	and.w	r3, r3, #1
 80076ca:	2b00      	cmp	r3, #0
 80076cc:	d005      	beq.n	80076da <HAL_UART_IRQHandler+0xf6>
    {
      huart->ErrorCode |= HAL_UART_ERROR_FE;
 80076ce:	687b      	ldr	r3, [r7, #4]
 80076d0:	6c5b      	ldr	r3, [r3, #68]	; 0x44
 80076d2:	f043 0204 	orr.w	r2, r3, #4
 80076d6:	687b      	ldr	r3, [r7, #4]
 80076d8:	645a      	str	r2, [r3, #68]	; 0x44
    }

    /* UART Over-Run interrupt occurred --------------------------------------*/
    if (((isrflags & USART_SR_ORE) != RESET) && (((cr1its & USART_CR1_RXNEIE) != RESET)
 80076da:	f8d7 30e4 	ldr.w	r3, [r7, #228]	; 0xe4
 80076de:	f003 0308 	and.w	r3, r3, #8
 80076e2:	2b00      	cmp	r3, #0
 80076e4:	d011      	beq.n	800770a <HAL_UART_IRQHandler+0x126>
 80076e6:	f8d7 30e0 	ldr.w	r3, [r7, #224]	; 0xe0
 80076ea:	f003 0320 	and.w	r3, r3, #32
 80076ee:	2b00      	cmp	r3, #0
 80076f0:	d105      	bne.n	80076fe <HAL_UART_IRQHandler+0x11a>
                                                 || ((cr3its & USART_CR3_EIE) != RESET)))
 80076f2:	f8d7 30dc 	ldr.w	r3, [r7, #220]	; 0xdc
 80076f6:	f003 0301 	and.w	r3, r3, #1
 80076fa:	2b00      	cmp	r3, #0
 80076fc:	d005      	beq.n	800770a <HAL_UART_IRQHandler+0x126>
    {
      huart->ErrorCode |= HAL_UART_ERROR_ORE;
 80076fe:	687b      	ldr	r3, [r7, #4]
 8007700:	6c5b      	ldr	r3, [r3, #68]	; 0x44
 8007702:	f043 0208 	orr.w	r2, r3, #8
 8007706:	687b      	ldr	r3, [r7, #4]
 8007708:	645a      	str	r2, [r3, #68]	; 0x44
    }

    /* Call UART Error Call back function if need be --------------------------*/
    if (huart->ErrorCode != HAL_UART_ERROR_NONE)
 800770a:	687b      	ldr	r3, [r7, #4]
 800770c:	6c5b      	ldr	r3, [r3, #68]	; 0x44
 800770e:	2b00      	cmp	r3, #0
 8007710:	f000 81f2 	beq.w	8007af8 <HAL_UART_IRQHandler+0x514>
    {
      /* UART in mode Receiver -----------------------------------------------*/
      if (((isrflags & USART_SR_RXNE) != RESET) && ((cr1its & USART_CR1_RXNEIE) != RESET))
 8007714:	f8d7 30e4 	ldr.w	r3, [r7, #228]	; 0xe4
 8007718:	f003 0320 	and.w	r3, r3, #32
 800771c:	2b00      	cmp	r3, #0
 800771e:	d008      	beq.n	8007732 <HAL_UART_IRQHandler+0x14e>
 8007720:	f8d7 30e0 	ldr.w	r3, [r7, #224]	; 0xe0
 8007724:	f003 0320 	and.w	r3, r3, #32
 8007728:	2b00      	cmp	r3, #0
 800772a:	d002      	beq.n	8007732 <HAL_UART_IRQHandler+0x14e>
      {
        UART_Receive_IT(huart);
 800772c:	6878      	ldr	r0, [r7, #4]
 800772e:	f000 fb7d 	bl	8007e2c <UART_Receive_IT>
      }

      /* If Overrun error occurs, or if any error occurs in DMA mode reception,
         consider error as blocking */
      dmarequest = HAL_IS_BIT_SET(huart->Instance->CR3, USART_CR3_DMAR);
 8007732:	687b      	ldr	r3, [r7, #4]
 8007734:	681b      	ldr	r3, [r3, #0]
 8007736:	695b      	ldr	r3, [r3, #20]
 8007738:	f003 0340 	and.w	r3, r3, #64	; 0x40
 800773c:	2b40      	cmp	r3, #64	; 0x40
 800773e:	bf0c      	ite	eq
 8007740:	2301      	moveq	r3, #1
 8007742:	2300      	movne	r3, #0
 8007744:	b2db      	uxtb	r3, r3
 8007746:	f8c7 30d4 	str.w	r3, [r7, #212]	; 0xd4
      if (((huart->ErrorCode & HAL_UART_ERROR_ORE) != RESET) || dmarequest)
 800774a:	687b      	ldr	r3, [r7, #4]
 800774c:	6c5b      	ldr	r3, [r3, #68]	; 0x44
 800774e:	f003 0308 	and.w	r3, r3, #8
 8007752:	2b00      	cmp	r3, #0
 8007754:	d103      	bne.n	800775e <HAL_UART_IRQHandler+0x17a>
 8007756:	f8d7 30d4 	ldr.w	r3, [r7, #212]	; 0xd4
 800775a:	2b00      	cmp	r3, #0
 800775c:	d04f      	beq.n	80077fe <HAL_UART_IRQHandler+0x21a>
      {
        /* Blocking error : transfer is aborted
           Set the UART state ready to be able to start again the process,
           Disable Rx Interrupts, and disable Rx DMA request, if ongoing */
        UART_EndRxTransfer(huart);
 800775e:	6878      	ldr	r0, [r7, #4]
 8007760:	f000 fa85 	bl	8007c6e <UART_EndRxTransfer>

        /* Disable the UART DMA Rx request if enabled */
        if (HAL_IS_BIT_SET(huart->Instance->CR3, USART_CR3_DMAR))
 8007764:	687b      	ldr	r3, [r7, #4]
 8007766:	681b      	ldr	r3, [r3, #0]
 8007768:	695b      	ldr	r3, [r3, #20]
 800776a:	f003 0340 	and.w	r3, r3, #64	; 0x40
 800776e:	2b40      	cmp	r3, #64	; 0x40
 8007770:	d141      	bne.n	80077f6 <HAL_UART_IRQHandler+0x212>
        {
          ATOMIC_CLEAR_BIT(huart->Instance->CR3, USART_CR3_DMAR);
 8007772:	687b      	ldr	r3, [r7, #4]
 8007774:	681b      	ldr	r3, [r3, #0]
 8007776:	3314      	adds	r3, #20
 8007778:	f8c7 309c 	str.w	r3, [r7, #156]	; 0x9c
   __ASM volatile ("ldrex %0, %1" : "=r" (result) : "Q" (*addr) );
 800777c:	f8d7 309c 	ldr.w	r3, [r7, #156]	; 0x9c
 8007780:	e853 3f00 	ldrex	r3, [r3]
 8007784:	f8c7 3098 	str.w	r3, [r7, #152]	; 0x98
   return(result);
 8007788:	f8d7 3098 	ldr.w	r3, [r7, #152]	; 0x98
 800778c:	f023 0340 	bic.w	r3, r3, #64	; 0x40
 8007790:	f8c7 30d0 	str.w	r3, [r7, #208]	; 0xd0
 8007794:	687b      	ldr	r3, [r7, #4]
 8007796:	681b      	ldr	r3, [r3, #0]
 8007798:	3314      	adds	r3, #20
 800779a:	f8d7 20d0 	ldr.w	r2, [r7, #208]	; 0xd0
 800779e:	f8c7 20a8 	str.w	r2, [r7, #168]	; 0xa8
 80077a2:	f8c7 30a4 	str.w	r3, [r7, #164]	; 0xa4
   __ASM volatile ("strex %0, %2, %1" : "=&r" (result), "=Q" (*addr) : "r" (value) );
 80077a6:	f8d7 10a4 	ldr.w	r1, [r7, #164]	; 0xa4
 80077aa:	f8d7 20a8 	ldr.w	r2, [r7, #168]	; 0xa8
 80077ae:	e841 2300 	strex	r3, r2, [r1]
 80077b2:	f8c7 30a0 	str.w	r3, [r7, #160]	; 0xa0
   return(result);
 80077b6:	f8d7 30a0 	ldr.w	r3, [r7, #160]	; 0xa0
 80077ba:	2b00      	cmp	r3, #0
 80077bc:	d1d9      	bne.n	8007772 <HAL_UART_IRQHandler+0x18e>

          /* Abort the UART DMA Rx stream */
          if (huart->hdmarx != NULL)
 80077be:	687b      	ldr	r3, [r7, #4]
 80077c0:	6bdb      	ldr	r3, [r3, #60]	; 0x3c
 80077c2:	2b00      	cmp	r3, #0
 80077c4:	d013      	beq.n	80077ee <HAL_UART_IRQHandler+0x20a>
          {
            /* Set the UART DMA Abort callback :
               will lead to call HAL_UART_ErrorCallback() at end of DMA abort procedure */
            huart->hdmarx->XferAbortCallback = UART_DMAAbortOnError;
 80077c6:	687b      	ldr	r3, [r7, #4]
 80077c8:	6bdb      	ldr	r3, [r3, #60]	; 0x3c
 80077ca:	4a7e      	ldr	r2, [pc, #504]	; (80079c4 <HAL_UART_IRQHandler+0x3e0>)
 80077cc:	651a      	str	r2, [r3, #80]	; 0x50
            if (HAL_DMA_Abort_IT(huart->hdmarx) != HAL_OK)
 80077ce:	687b      	ldr	r3, [r7, #4]
 80077d0:	6bdb      	ldr	r3, [r3, #60]	; 0x3c
 80077d2:	4618      	mov	r0, r3
 80077d4:	f7fb fdac 	bl	8003330 <HAL_DMA_Abort_IT>
 80077d8:	4603      	mov	r3, r0
 80077da:	2b00      	cmp	r3, #0
 80077dc:	d016      	beq.n	800780c <HAL_UART_IRQHandler+0x228>
            {
              /* Call Directly XferAbortCallback function in case of error */
              huart->hdmarx->XferAbortCallback(huart->hdmarx);
 80077de:	687b      	ldr	r3, [r7, #4]
 80077e0:	6bdb      	ldr	r3, [r3, #60]	; 0x3c
 80077e2:	6d1b      	ldr	r3, [r3, #80]	; 0x50
 80077e4:	687a      	ldr	r2, [r7, #4]
 80077e6:	6bd2      	ldr	r2, [r2, #60]	; 0x3c
 80077e8:	4610      	mov	r0, r2
 80077ea:	4798      	blx	r3
        if (HAL_IS_BIT_SET(huart->Instance->CR3, USART_CR3_DMAR))
 80077ec:	e00e      	b.n	800780c <HAL_UART_IRQHandler+0x228>
#if (USE_HAL_UART_REGISTER_CALLBACKS == 1)
            /*Call registered error callback*/
            huart->ErrorCallback(huart);
#else
            /*Call legacy weak error callback*/
            HAL_UART_ErrorCallback(huart);
 80077ee:	6878      	ldr	r0, [r7, #4]
 80077f0:	f000 f994 	bl	8007b1c <HAL_UART_ErrorCallback>
        if (HAL_IS_BIT_SET(huart->Instance->CR3, USART_CR3_DMAR))
 80077f4:	e00a      	b.n	800780c <HAL_UART_IRQHandler+0x228>
#if (USE_HAL_UART_REGISTER_CALLBACKS == 1)
          /*Call registered error callback*/
          huart->ErrorCallback(huart);
#else
          /*Call legacy weak error callback*/
          HAL_UART_ErrorCallback(huart);
 80077f6:	6878      	ldr	r0, [r7, #4]
 80077f8:	f000 f990 	bl	8007b1c <HAL_UART_ErrorCallback>
        if (HAL_IS_BIT_SET(huart->Instance->CR3, USART_CR3_DMAR))
 80077fc:	e006      	b.n	800780c <HAL_UART_IRQHandler+0x228>
#if (USE_HAL_UART_REGISTER_CALLBACKS == 1)
        /*Call registered error callback*/
        huart->ErrorCallback(huart);
#else
        /*Call legacy weak error callback*/
        HAL_UART_ErrorCallback(huart);
 80077fe:	6878      	ldr	r0, [r7, #4]
 8007800:	f000 f98c 	bl	8007b1c <HAL_UART_ErrorCallback>
#endif /* USE_HAL_UART_REGISTER_CALLBACKS */

        huart->ErrorCode = HAL_UART_ERROR_NONE;
 8007804:	687b      	ldr	r3, [r7, #4]
 8007806:	2200      	movs	r2, #0
 8007808:	645a      	str	r2, [r3, #68]	; 0x44
      }
    }
    return;
 800780a:	e175      	b.n	8007af8 <HAL_UART_IRQHandler+0x514>
        if (HAL_IS_BIT_SET(huart->Instance->CR3, USART_CR3_DMAR))
 800780c:	bf00      	nop
    return;
 800780e:	e173      	b.n	8007af8 <HAL_UART_IRQHandler+0x514>
  } /* End if some error occurs */

  /* Check current reception Mode :
     If Reception till IDLE event has been selected : */
  if ((huart->ReceptionType == HAL_UART_RECEPTION_TOIDLE)
 8007810:	687b      	ldr	r3, [r7, #4]
 8007812:	6b1b      	ldr	r3, [r3, #48]	; 0x30
 8007814:	2b01      	cmp	r3, #1
 8007816:	f040 814f 	bne.w	8007ab8 <HAL_UART_IRQHandler+0x4d4>
      && ((isrflags & USART_SR_IDLE) != 0U)
 800781a:	f8d7 30e4 	ldr.w	r3, [r7, #228]	; 0xe4
 800781e:	f003 0310 	and.w	r3, r3, #16
 8007822:	2b00      	cmp	r3, #0
 8007824:	f000 8148 	beq.w	8007ab8 <HAL_UART_IRQHandler+0x4d4>
      && ((cr1its & USART_SR_IDLE) != 0U))
 8007828:	f8d7 30e0 	ldr.w	r3, [r7, #224]	; 0xe0
 800782c:	f003 0310 	and.w	r3, r3, #16
 8007830:	2b00      	cmp	r3, #0
 8007832:	f000 8141 	beq.w	8007ab8 <HAL_UART_IRQHandler+0x4d4>
  {
    __HAL_UART_CLEAR_IDLEFLAG(huart);
 8007836:	2300      	movs	r3, #0
 8007838:	60bb      	str	r3, [r7, #8]
 800783a:	687b      	ldr	r3, [r7, #4]
 800783c:	681b      	ldr	r3, [r3, #0]
 800783e:	681b      	ldr	r3, [r3, #0]
 8007840:	60bb      	str	r3, [r7, #8]
 8007842:	687b      	ldr	r3, [r7, #4]
 8007844:	681b      	ldr	r3, [r3, #0]
 8007846:	685b      	ldr	r3, [r3, #4]
 8007848:	60bb      	str	r3, [r7, #8]
 800784a:	68bb      	ldr	r3, [r7, #8]

    /* Check if DMA mode is enabled in UART */
    if (HAL_IS_BIT_SET(huart->Instance->CR3, USART_CR3_DMAR))
 800784c:	687b      	ldr	r3, [r7, #4]
 800784e:	681b      	ldr	r3, [r3, #0]
 8007850:	695b      	ldr	r3, [r3, #20]
 8007852:	f003 0340 	and.w	r3, r3, #64	; 0x40
 8007856:	2b40      	cmp	r3, #64	; 0x40
 8007858:	f040 80b6 	bne.w	80079c8 <HAL_UART_IRQHandler+0x3e4>
    {
      /* DMA mode enabled */
      /* Check received length : If all expected data are received, do nothing,
         (DMA cplt callback will be called).
         Otherwise, if at least one data has already been received, IDLE event is to be notified to user */
      uint16_t nb_remaining_rx_data = (uint16_t) __HAL_DMA_GET_COUNTER(huart->hdmarx);
 800785c:	687b      	ldr	r3, [r7, #4]
 800785e:	6bdb      	ldr	r3, [r3, #60]	; 0x3c
 8007860:	681b      	ldr	r3, [r3, #0]
 8007862:	685b      	ldr	r3, [r3, #4]
 8007864:	f8a7 30be 	strh.w	r3, [r7, #190]	; 0xbe
      if ((nb_remaining_rx_data > 0U)
 8007868:	f8b7 30be 	ldrh.w	r3, [r7, #190]	; 0xbe
 800786c:	2b00      	cmp	r3, #0
 800786e:	f000 8145 	beq.w	8007afc <HAL_UART_IRQHandler+0x518>
          && (nb_remaining_rx_data < huart->RxXferSize))
 8007872:	687b      	ldr	r3, [r7, #4]
 8007874:	8d9b      	ldrh	r3, [r3, #44]	; 0x2c
 8007876:	f8b7 20be 	ldrh.w	r2, [r7, #190]	; 0xbe
 800787a:	429a      	cmp	r2, r3
 800787c:	f080 813e 	bcs.w	8007afc <HAL_UART_IRQHandler+0x518>
      {
        /* Reception is not complete */
        huart->RxXferCount = nb_remaining_rx_data;
 8007880:	687b      	ldr	r3, [r7, #4]
 8007882:	f8b7 20be 	ldrh.w	r2, [r7, #190]	; 0xbe
 8007886:	85da      	strh	r2, [r3, #46]	; 0x2e

        /* In Normal mode, end DMA xfer and HAL UART Rx process*/
        if (huart->hdmarx->Init.Mode != DMA_CIRCULAR)
 8007888:	687b      	ldr	r3, [r7, #4]
 800788a:	6bdb      	ldr	r3, [r3, #60]	; 0x3c
 800788c:	69db      	ldr	r3, [r3, #28]
 800788e:	f5b3 7f80 	cmp.w	r3, #256	; 0x100
 8007892:	f000 8088 	beq.w	80079a6 <HAL_UART_IRQHandler+0x3c2>
        {
          /* Disable PE and ERR (Frame error, noise error, overrun error) interrupts */
          ATOMIC_CLEAR_BIT(huart->Instance->CR1, USART_CR1_PEIE);
 8007896:	687b      	ldr	r3, [r7, #4]
 8007898:	681b      	ldr	r3, [r3, #0]
 800789a:	330c      	adds	r3, #12
 800789c:	f8c7 3088 	str.w	r3, [r7, #136]	; 0x88
   __ASM volatile ("ldrex %0, %1" : "=r" (result) : "Q" (*addr) );
 80078a0:	f8d7 3088 	ldr.w	r3, [r7, #136]	; 0x88
 80078a4:	e853 3f00 	ldrex	r3, [r3]
 80078a8:	f8c7 3084 	str.w	r3, [r7, #132]	; 0x84
   return(result);
 80078ac:	f8d7 3084 	ldr.w	r3, [r7, #132]	; 0x84
 80078b0:	f423 7380 	bic.w	r3, r3, #256	; 0x100
 80078b4:	f8c7 30b8 	str.w	r3, [r7, #184]	; 0xb8
 80078b8:	687b      	ldr	r3, [r7, #4]
 80078ba:	681b      	ldr	r3, [r3, #0]
 80078bc:	330c      	adds	r3, #12
 80078be:	f8d7 20b8 	ldr.w	r2, [r7, #184]	; 0xb8
 80078c2:	f8c7 2094 	str.w	r2, [r7, #148]	; 0x94
 80078c6:	f8c7 3090 	str.w	r3, [r7, #144]	; 0x90
   __ASM volatile ("strex %0, %2, %1" : "=&r" (result), "=Q" (*addr) : "r" (value) );
 80078ca:	f8d7 1090 	ldr.w	r1, [r7, #144]	; 0x90
 80078ce:	f8d7 2094 	ldr.w	r2, [r7, #148]	; 0x94
 80078d2:	e841 2300 	strex	r3, r2, [r1]
 80078d6:	f8c7 308c 	str.w	r3, [r7, #140]	; 0x8c
   return(result);
 80078da:	f8d7 308c 	ldr.w	r3, [r7, #140]	; 0x8c
 80078de:	2b00      	cmp	r3, #0
 80078e0:	d1d9      	bne.n	8007896 <HAL_UART_IRQHandler+0x2b2>
          ATOMIC_CLEAR_BIT(huart->Instance->CR3, USART_CR3_EIE);
 80078e2:	687b      	ldr	r3, [r7, #4]
 80078e4:	681b      	ldr	r3, [r3, #0]
 80078e6:	3314      	adds	r3, #20
 80078e8:	677b      	str	r3, [r7, #116]	; 0x74
   __ASM volatile ("ldrex %0, %1" : "=r" (result) : "Q" (*addr) );
 80078ea:	6f7b      	ldr	r3, [r7, #116]	; 0x74
 80078ec:	e853 3f00 	ldrex	r3, [r3]
 80078f0:	673b      	str	r3, [r7, #112]	; 0x70
   return(result);
 80078f2:	6f3b      	ldr	r3, [r7, #112]	; 0x70
 80078f4:	f023 0301 	bic.w	r3, r3, #1
 80078f8:	f8c7 30b4 	str.w	r3, [r7, #180]	; 0xb4
 80078fc:	687b      	ldr	r3, [r7, #4]
 80078fe:	681b      	ldr	r3, [r3, #0]
 8007900:	3314      	adds	r3, #20
 8007902:	f8d7 20b4 	ldr.w	r2, [r7, #180]	; 0xb4
 8007906:	f8c7 2080 	str.w	r2, [r7, #128]	; 0x80
 800790a:	67fb      	str	r3, [r7, #124]	; 0x7c
   __ASM volatile ("strex %0, %2, %1" : "=&r" (result), "=Q" (*addr) : "r" (value) );
 800790c:	6ff9      	ldr	r1, [r7, #124]	; 0x7c
 800790e:	f8d7 2080 	ldr.w	r2, [r7, #128]	; 0x80
 8007912:	e841 2300 	strex	r3, r2, [r1]
 8007916:	67bb      	str	r3, [r7, #120]	; 0x78
   return(result);
 8007918:	6fbb      	ldr	r3, [r7, #120]	; 0x78
 800791a:	2b00      	cmp	r3, #0
 800791c:	d1e1      	bne.n	80078e2 <HAL_UART_IRQHandler+0x2fe>

          /* Disable the DMA transfer for the receiver request by resetting the DMAR bit
             in the UART CR3 register */
          ATOMIC_CLEAR_BIT(huart->Instance->CR3, USART_CR3_DMAR);
 800791e:	687b      	ldr	r3, [r7, #4]
 8007920:	681b      	ldr	r3, [r3, #0]
 8007922:	3314      	adds	r3, #20
 8007924:	663b      	str	r3, [r7, #96]	; 0x60
   __ASM volatile ("ldrex %0, %1" : "=r" (result) : "Q" (*addr) );
 8007926:	6e3b      	ldr	r3, [r7, #96]	; 0x60
 8007928:	e853 3f00 	ldrex	r3, [r3]
 800792c:	65fb      	str	r3, [r7, #92]	; 0x5c
   return(result);
 800792e:	6dfb      	ldr	r3, [r7, #92]	; 0x5c
 8007930:	f023 0340 	bic.w	r3, r3, #64	; 0x40
 8007934:	f8c7 30b0 	str.w	r3, [r7, #176]	; 0xb0
 8007938:	687b      	ldr	r3, [r7, #4]
 800793a:	681b      	ldr	r3, [r3, #0]
 800793c:	3314      	adds	r3, #20
 800793e:	f8d7 20b0 	ldr.w	r2, [r7, #176]	; 0xb0
 8007942:	66fa      	str	r2, [r7, #108]	; 0x6c
 8007944:	66bb      	str	r3, [r7, #104]	; 0x68
   __ASM volatile ("strex %0, %2, %1" : "=&r" (result), "=Q" (*addr) : "r" (value) );
 8007946:	6eb9      	ldr	r1, [r7, #104]	; 0x68
 8007948:	6efa      	ldr	r2, [r7, #108]	; 0x6c
 800794a:	e841 2300 	strex	r3, r2, [r1]
 800794e:	667b      	str	r3, [r7, #100]	; 0x64
   return(result);
 8007950:	6e7b      	ldr	r3, [r7, #100]	; 0x64
 8007952:	2b00      	cmp	r3, #0
 8007954:	d1e3      	bne.n	800791e <HAL_UART_IRQHandler+0x33a>

          /* At end of Rx process, restore huart->RxState to Ready */
          huart->RxState = HAL_UART_STATE_READY;
 8007956:	687b      	ldr	r3, [r7, #4]
 8007958:	2220      	movs	r2, #32
 800795a:	f883 2042 	strb.w	r2, [r3, #66]	; 0x42
          huart->ReceptionType = HAL_UART_RECEPTION_STANDARD;
 800795e:	687b      	ldr	r3, [r7, #4]
 8007960:	2200      	movs	r2, #0
 8007962:	631a      	str	r2, [r3, #48]	; 0x30

          ATOMIC_CLEAR_BIT(huart->Instance->CR1, USART_CR1_IDLEIE);
 8007964:	687b      	ldr	r3, [r7, #4]
 8007966:	681b      	ldr	r3, [r3, #0]
 8007968:	330c      	adds	r3, #12
 800796a:	64fb      	str	r3, [r7, #76]	; 0x4c
   __ASM volatile ("ldrex %0, %1" : "=r" (result) : "Q" (*addr) );
 800796c:	6cfb      	ldr	r3, [r7, #76]	; 0x4c
 800796e:	e853 3f00 	ldrex	r3, [r3]
 8007972:	64bb      	str	r3, [r7, #72]	; 0x48
   return(result);
 8007974:	6cbb      	ldr	r3, [r7, #72]	; 0x48
 8007976:	f023 0310 	bic.w	r3, r3, #16
 800797a:	f8c7 30ac 	str.w	r3, [r7, #172]	; 0xac
 800797e:	687b      	ldr	r3, [r7, #4]
 8007980:	681b      	ldr	r3, [r3, #0]
 8007982:	330c      	adds	r3, #12
 8007984:	f8d7 20ac 	ldr.w	r2, [r7, #172]	; 0xac
 8007988:	65ba      	str	r2, [r7, #88]	; 0x58
 800798a:	657b      	str	r3, [r7, #84]	; 0x54
   __ASM volatile ("strex %0, %2, %1" : "=&r" (result), "=Q" (*addr) : "r" (value) );
 800798c:	6d79      	ldr	r1, [r7, #84]	; 0x54
 800798e:	6dba      	ldr	r2, [r7, #88]	; 0x58
 8007990:	e841 2300 	strex	r3, r2, [r1]
 8007994:	653b      	str	r3, [r7, #80]	; 0x50
   return(result);
 8007996:	6d3b      	ldr	r3, [r7, #80]	; 0x50
 8007998:	2b00      	cmp	r3, #0
 800799a:	d1e3      	bne.n	8007964 <HAL_UART_IRQHandler+0x380>

          /* Last bytes received, so no need as the abort is immediate */
          (void)HAL_DMA_Abort(huart->hdmarx);
 800799c:	687b      	ldr	r3, [r7, #4]
 800799e:	6bdb      	ldr	r3, [r3, #60]	; 0x3c
 80079a0:	4618      	mov	r0, r3
 80079a2:	f7fb fc55 	bl	8003250 <HAL_DMA_Abort>
        }

        /* Initialize type of RxEvent that correspond to RxEvent callback execution;
        In this case, Rx Event type is Idle Event */
        huart->RxEventType = HAL_UART_RXEVENT_IDLE;
 80079a6:	687b      	ldr	r3, [r7, #4]
 80079a8:	2202      	movs	r2, #2
 80079aa:	635a      	str	r2, [r3, #52]	; 0x34
#if (USE_HAL_UART_REGISTER_CALLBACKS == 1)
        /*Call registered Rx Event callback*/
        huart->RxEventCallback(huart, (huart->RxXferSize - huart->RxXferCount));
#else
        /*Call legacy weak Rx Event callback*/
        HAL_UARTEx_RxEventCallback(huart, (huart->RxXferSize - huart->RxXferCount));
 80079ac:	687b      	ldr	r3, [r7, #4]
 80079ae:	8d9a      	ldrh	r2, [r3, #44]	; 0x2c
 80079b0:	687b      	ldr	r3, [r7, #4]
 80079b2:	8ddb      	ldrh	r3, [r3, #46]	; 0x2e
 80079b4:	b29b      	uxth	r3, r3
 80079b6:	1ad3      	subs	r3, r2, r3
 80079b8:	b29b      	uxth	r3, r3
 80079ba:	4619      	mov	r1, r3
 80079bc:	6878      	ldr	r0, [r7, #4]
 80079be:	f000 f8b7 	bl	8007b30 <HAL_UARTEx_RxEventCallback>
#endif /* USE_HAL_UART_REGISTER_CALLBACKS */
      }
      return;
 80079c2:	e09b      	b.n	8007afc <HAL_UART_IRQHandler+0x518>
 80079c4:	08007d35 	.word	0x08007d35
    else
    {
      /* DMA mode not enabled */
      /* Check received length : If all expected data are received, do nothing.
         Otherwise, if at least one data has already been received, IDLE event is to be notified to user */
      uint16_t nb_rx_data = huart->RxXferSize - huart->RxXferCount;
 80079c8:	687b      	ldr	r3, [r7, #4]
 80079ca:	8d9a      	ldrh	r2, [r3, #44]	; 0x2c
 80079cc:	687b      	ldr	r3, [r7, #4]
 80079ce:	8ddb      	ldrh	r3, [r3, #46]	; 0x2e
 80079d0:	b29b      	uxth	r3, r3
 80079d2:	1ad3      	subs	r3, r2, r3
 80079d4:	f8a7 30ce 	strh.w	r3, [r7, #206]	; 0xce
      if ((huart->RxXferCount > 0U)
 80079d8:	687b      	ldr	r3, [r7, #4]
 80079da:	8ddb      	ldrh	r3, [r3, #46]	; 0x2e
 80079dc:	b29b      	uxth	r3, r3
 80079de:	2b00      	cmp	r3, #0
 80079e0:	f000 808e 	beq.w	8007b00 <HAL_UART_IRQHandler+0x51c>
          && (nb_rx_data > 0U))
 80079e4:	f8b7 30ce 	ldrh.w	r3, [r7, #206]	; 0xce
 80079e8:	2b00      	cmp	r3, #0
 80079ea:	f000 8089 	beq.w	8007b00 <HAL_UART_IRQHandler+0x51c>
      {
        /* Disable the UART Parity Error Interrupt and RXNE interrupts */
        ATOMIC_CLEAR_BIT(huart->Instance->CR1, (USART_CR1_RXNEIE | USART_CR1_PEIE));
 80079ee:	687b      	ldr	r3, [r7, #4]
 80079f0:	681b      	ldr	r3, [r3, #0]
 80079f2:	330c      	adds	r3, #12
 80079f4:	63bb      	str	r3, [r7, #56]	; 0x38
   __ASM volatile ("ldrex %0, %1" : "=r" (result) : "Q" (*addr) );
 80079f6:	6bbb      	ldr	r3, [r7, #56]	; 0x38
 80079f8:	e853 3f00 	ldrex	r3, [r3]
 80079fc:	637b      	str	r3, [r7, #52]	; 0x34
   return(result);
 80079fe:	6b7b      	ldr	r3, [r7, #52]	; 0x34
 8007a00:	f423 7390 	bic.w	r3, r3, #288	; 0x120
 8007a04:	f8c7 30c8 	str.w	r3, [r7, #200]	; 0xc8
 8007a08:	687b      	ldr	r3, [r7, #4]
 8007a0a:	681b      	ldr	r3, [r3, #0]
 8007a0c:	330c      	adds	r3, #12
 8007a0e:	f8d7 20c8 	ldr.w	r2, [r7, #200]	; 0xc8
 8007a12:	647a      	str	r2, [r7, #68]	; 0x44
 8007a14:	643b      	str	r3, [r7, #64]	; 0x40
   __ASM volatile ("strex %0, %2, %1" : "=&r" (result), "=Q" (*addr) : "r" (value) );
 8007a16:	6c39      	ldr	r1, [r7, #64]	; 0x40
 8007a18:	6c7a      	ldr	r2, [r7, #68]	; 0x44
 8007a1a:	e841 2300 	strex	r3, r2, [r1]
 8007a1e:	63fb      	str	r3, [r7, #60]	; 0x3c
   return(result);
 8007a20:	6bfb      	ldr	r3, [r7, #60]	; 0x3c
 8007a22:	2b00      	cmp	r3, #0
 8007a24:	d1e3      	bne.n	80079ee <HAL_UART_IRQHandler+0x40a>

        /* Disable the UART Error Interrupt: (Frame error, noise error, overrun error) */
        ATOMIC_CLEAR_BIT(huart->Instance->CR3, USART_CR3_EIE);
 8007a26:	687b      	ldr	r3, [r7, #4]
 8007a28:	681b      	ldr	r3, [r3, #0]
 8007a2a:	3314      	adds	r3, #20
 8007a2c:	627b      	str	r3, [r7, #36]	; 0x24
   __ASM volatile ("ldrex %0, %1" : "=r" (result) : "Q" (*addr) );
 8007a2e:	6a7b      	ldr	r3, [r7, #36]	; 0x24
 8007a30:	e853 3f00 	ldrex	r3, [r3]
 8007a34:	623b      	str	r3, [r7, #32]
   return(result);
 8007a36:	6a3b      	ldr	r3, [r7, #32]
 8007a38:	f023 0301 	bic.w	r3, r3, #1
 8007a3c:	f8c7 30c4 	str.w	r3, [r7, #196]	; 0xc4
 8007a40:	687b      	ldr	r3, [r7, #4]
 8007a42:	681b      	ldr	r3, [r3, #0]
 8007a44:	3314      	adds	r3, #20
 8007a46:	f8d7 20c4 	ldr.w	r2, [r7, #196]	; 0xc4
 8007a4a:	633a      	str	r2, [r7, #48]	; 0x30
 8007a4c:	62fb      	str	r3, [r7, #44]	; 0x2c
   __ASM volatile ("strex %0, %2, %1" : "=&r" (result), "=Q" (*addr) : "r" (value) );
 8007a4e:	6af9      	ldr	r1, [r7, #44]	; 0x2c
 8007a50:	6b3a      	ldr	r2, [r7, #48]	; 0x30
 8007a52:	e841 2300 	strex	r3, r2, [r1]
 8007a56:	62bb      	str	r3, [r7, #40]	; 0x28
   return(result);
 8007a58:	6abb      	ldr	r3, [r7, #40]	; 0x28
 8007a5a:	2b00      	cmp	r3, #0
 8007a5c:	d1e3      	bne.n	8007a26 <HAL_UART_IRQHandler+0x442>

        /* Rx process is completed, restore huart->RxState to Ready */
        huart->RxState = HAL_UART_STATE_READY;
 8007a5e:	687b      	ldr	r3, [r7, #4]
 8007a60:	2220      	movs	r2, #32
 8007a62:	f883 2042 	strb.w	r2, [r3, #66]	; 0x42
        huart->ReceptionType = HAL_UART_RECEPTION_STANDARD;
 8007a66:	687b      	ldr	r3, [r7, #4]
 8007a68:	2200      	movs	r2, #0
 8007a6a:	631a      	str	r2, [r3, #48]	; 0x30

        ATOMIC_CLEAR_BIT(huart->Instance->CR1, USART_CR1_IDLEIE);
 8007a6c:	687b      	ldr	r3, [r7, #4]
 8007a6e:	681b      	ldr	r3, [r3, #0]
 8007a70:	330c      	adds	r3, #12
 8007a72:	613b      	str	r3, [r7, #16]
   __ASM volatile ("ldrex %0, %1" : "=r" (result) : "Q" (*addr) );
 8007a74:	693b      	ldr	r3, [r7, #16]
 8007a76:	e853 3f00 	ldrex	r3, [r3]
 8007a7a:	60fb      	str	r3, [r7, #12]
   return(result);
 8007a7c:	68fb      	ldr	r3, [r7, #12]
 8007a7e:	f023 0310 	bic.w	r3, r3, #16
 8007a82:	f8c7 30c0 	str.w	r3, [r7, #192]	; 0xc0
 8007a86:	687b      	ldr	r3, [r7, #4]
 8007a88:	681b      	ldr	r3, [r3, #0]
 8007a8a:	330c      	adds	r3, #12
 8007a8c:	f8d7 20c0 	ldr.w	r2, [r7, #192]	; 0xc0
 8007a90:	61fa      	str	r2, [r7, #28]
 8007a92:	61bb      	str	r3, [r7, #24]
   __ASM volatile ("strex %0, %2, %1" : "=&r" (result), "=Q" (*addr) : "r" (value) );
 8007a94:	69b9      	ldr	r1, [r7, #24]
 8007a96:	69fa      	ldr	r2, [r7, #28]
 8007a98:	e841 2300 	strex	r3, r2, [r1]
 8007a9c:	617b      	str	r3, [r7, #20]
   return(result);
 8007a9e:	697b      	ldr	r3, [r7, #20]
 8007aa0:	2b00      	cmp	r3, #0
 8007aa2:	d1e3      	bne.n	8007a6c <HAL_UART_IRQHandler+0x488>

        /* Initialize type of RxEvent that correspond to RxEvent callback execution;
           In this case, Rx Event type is Idle Event */
        huart->RxEventType = HAL_UART_RXEVENT_IDLE;
 8007aa4:	687b      	ldr	r3, [r7, #4]
 8007aa6:	2202      	movs	r2, #2
 8007aa8:	635a      	str	r2, [r3, #52]	; 0x34
#if (USE_HAL_UART_REGISTER_CALLBACKS == 1)
        /*Call registered Rx complete callback*/
        huart->RxEventCallback(huart, nb_rx_data);
#else
        /*Call legacy weak Rx Event callback*/
        HAL_UARTEx_RxEventCallback(huart, nb_rx_data);
 8007aaa:	f8b7 30ce 	ldrh.w	r3, [r7, #206]	; 0xce
 8007aae:	4619      	mov	r1, r3
 8007ab0:	6878      	ldr	r0, [r7, #4]
 8007ab2:	f000 f83d 	bl	8007b30 <HAL_UARTEx_RxEventCallback>
#endif /* USE_HAL_UART_REGISTER_CALLBACKS */
      }
      return;
 8007ab6:	e023      	b.n	8007b00 <HAL_UART_IRQHandler+0x51c>
    }
  }

  /* UART in mode Transmitter ------------------------------------------------*/
  if (((isrflags & USART_SR_TXE) != RESET) && ((cr1its & USART_CR1_TXEIE) != RESET))
 8007ab8:	f8d7 30e4 	ldr.w	r3, [r7, #228]	; 0xe4
 8007abc:	f003 0380 	and.w	r3, r3, #128	; 0x80
 8007ac0:	2b00      	cmp	r3, #0
 8007ac2:	d009      	beq.n	8007ad8 <HAL_UART_IRQHandler+0x4f4>
 8007ac4:	f8d7 30e0 	ldr.w	r3, [r7, #224]	; 0xe0
 8007ac8:	f003 0380 	and.w	r3, r3, #128	; 0x80
 8007acc:	2b00      	cmp	r3, #0
 8007ace:	d003      	beq.n	8007ad8 <HAL_UART_IRQHandler+0x4f4>
  {
    UART_Transmit_IT(huart);
 8007ad0:	6878      	ldr	r0, [r7, #4]
 8007ad2:	f000 f943 	bl	8007d5c <UART_Transmit_IT>
    return;
 8007ad6:	e014      	b.n	8007b02 <HAL_UART_IRQHandler+0x51e>
  }

  /* UART in mode Transmitter end --------------------------------------------*/
  if (((isrflags & USART_SR_TC) != RESET) && ((cr1its & USART_CR1_TCIE) != RESET))
 8007ad8:	f8d7 30e4 	ldr.w	r3, [r7, #228]	; 0xe4
 8007adc:	f003 0340 	and.w	r3, r3, #64	; 0x40
 8007ae0:	2b00      	cmp	r3, #0
 8007ae2:	d00e      	beq.n	8007b02 <HAL_UART_IRQHandler+0x51e>
 8007ae4:	f8d7 30e0 	ldr.w	r3, [r7, #224]	; 0xe0
 8007ae8:	f003 0340 	and.w	r3, r3, #64	; 0x40
 8007aec:	2b00      	cmp	r3, #0
 8007aee:	d008      	beq.n	8007b02 <HAL_UART_IRQHandler+0x51e>
  {
    UART_EndTransmit_IT(huart);
 8007af0:	6878      	ldr	r0, [r7, #4]
 8007af2:	f000 f983 	bl	8007dfc <UART_EndTransmit_IT>
    return;
 8007af6:	e004      	b.n	8007b02 <HAL_UART_IRQHandler+0x51e>
    return;
 8007af8:	bf00      	nop
 8007afa:	e002      	b.n	8007b02 <HAL_UART_IRQHandler+0x51e>
      return;
 8007afc:	bf00      	nop
 8007afe:	e000      	b.n	8007b02 <HAL_UART_IRQHandler+0x51e>
      return;
 8007b00:	bf00      	nop
  }
}
 8007b02:	37e8      	adds	r7, #232	; 0xe8
 8007b04:	46bd      	mov	sp, r7
 8007b06:	bd80      	pop	{r7, pc}

08007b08 <HAL_UART_TxCpltCallback>:
  * @param  huart  Pointer to a UART_HandleTypeDef structure that contains
  *                the configuration information for the specified UART module.
  * @retval None
  */
__weak void HAL_UART_TxCpltCallback(UART_HandleTypeDef *huart)
{
 8007b08:	b480      	push	{r7}
 8007b0a:	b083      	sub	sp, #12
 8007b0c:	af00      	add	r7, sp, #0
 8007b0e:	6078      	str	r0, [r7, #4]
  /* Prevent unused argument(s) compilation warning */
  UNUSED(huart);
  /* NOTE: This function should not be modified, when the callback is needed,
           the HAL_UART_TxCpltCallback could be implemented in the user file
   */
}
 8007b10:	bf00      	nop
 8007b12:	370c      	adds	r7, #12
 8007b14:	46bd      	mov	sp, r7
 8007b16:	f85d 7b04 	ldr.w	r7, [sp], #4
 8007b1a:	4770      	bx	lr

08007b1c <HAL_UART_ErrorCallback>:
  * @param  huart  Pointer to a UART_HandleTypeDef structure that contains
  *                the configuration information for the specified UART module.
  * @retval None
  */
__weak void HAL_UART_ErrorCallback(UART_HandleTypeDef *huart)
{
 8007b1c:	b480      	push	{r7}
 8007b1e:	b083      	sub	sp, #12
 8007b20:	af00      	add	r7, sp, #0
 8007b22:	6078      	str	r0, [r7, #4]
  /* Prevent unused argument(s) compilation warning */
  UNUSED(huart);
  /* NOTE: This function should not be modified, when the callback is needed,
           the HAL_UART_ErrorCallback could be implemented in the user file
   */
}
 8007b24:	bf00      	nop
 8007b26:	370c      	adds	r7, #12
 8007b28:	46bd      	mov	sp, r7
 8007b2a:	f85d 7b04 	ldr.w	r7, [sp], #4
 8007b2e:	4770      	bx	lr

08007b30 <HAL_UARTEx_RxEventCallback>:
  * @param  Size  Number of data available in application reception buffer (indicates a position in
  *               reception buffer until which, data are available)
  * @retval None
  */
__weak void HAL_UARTEx_RxEventCallback(UART_HandleTypeDef *huart, uint16_t Size)
{
 8007b30:	b480      	push	{r7}
 8007b32:	b083      	sub	sp, #12
 8007b34:	af00      	add	r7, sp, #0
 8007b36:	6078      	str	r0, [r7, #4]
 8007b38:	460b      	mov	r3, r1
 8007b3a:	807b      	strh	r3, [r7, #2]
  UNUSED(Size);

  /* NOTE : This function should not be modified, when the callback is needed,
            the HAL_UARTEx_RxEventCallback can be implemented in the user file.
   */
}
 8007b3c:	bf00      	nop
 8007b3e:	370c      	adds	r7, #12
 8007b40:	46bd      	mov	sp, r7
 8007b42:	f85d 7b04 	ldr.w	r7, [sp], #4
 8007b46:	4770      	bx	lr

08007b48 <UART_WaitOnFlagUntilTimeout>:
  * @param  Timeout Timeout duration
  * @retval HAL status
  */
static HAL_StatusTypeDef UART_WaitOnFlagUntilTimeout(UART_HandleTypeDef *huart, uint32_t Flag, FlagStatus Status,
                                                     uint32_t Tickstart, uint32_t Timeout)
{
 8007b48:	b580      	push	{r7, lr}
 8007b4a:	b086      	sub	sp, #24
 8007b4c:	af00      	add	r7, sp, #0
 8007b4e:	60f8      	str	r0, [r7, #12]
 8007b50:	60b9      	str	r1, [r7, #8]
 8007b52:	603b      	str	r3, [r7, #0]
 8007b54:	4613      	mov	r3, r2
 8007b56:	71fb      	strb	r3, [r7, #7]
  /* Wait until flag is set */
  while ((__HAL_UART_GET_FLAG(huart, Flag) ? SET : RESET) == Status)
 8007b58:	e03b      	b.n	8007bd2 <UART_WaitOnFlagUntilTimeout+0x8a>
  {
    /* Check for the Timeout */
    if (Timeout != HAL_MAX_DELAY)
 8007b5a:	6a3b      	ldr	r3, [r7, #32]
 8007b5c:	f1b3 3fff 	cmp.w	r3, #4294967295	; 0xffffffff
 8007b60:	d037      	beq.n	8007bd2 <UART_WaitOnFlagUntilTimeout+0x8a>
    {
      if (((HAL_GetTick() - Tickstart) > Timeout) || (Timeout == 0U))
 8007b62:	f7fb f831 	bl	8002bc8 <HAL_GetTick>
 8007b66:	4602      	mov	r2, r0
 8007b68:	683b      	ldr	r3, [r7, #0]
 8007b6a:	1ad3      	subs	r3, r2, r3
 8007b6c:	6a3a      	ldr	r2, [r7, #32]
 8007b6e:	429a      	cmp	r2, r3
 8007b70:	d302      	bcc.n	8007b78 <UART_WaitOnFlagUntilTimeout+0x30>
 8007b72:	6a3b      	ldr	r3, [r7, #32]
 8007b74:	2b00      	cmp	r3, #0
 8007b76:	d101      	bne.n	8007b7c <UART_WaitOnFlagUntilTimeout+0x34>
      {

        return HAL_TIMEOUT;
 8007b78:	2303      	movs	r3, #3
 8007b7a:	e03a      	b.n	8007bf2 <UART_WaitOnFlagUntilTimeout+0xaa>
      }

      if ((READ_BIT(huart->Instance->CR1, USART_CR1_RE) != 0U) && (Flag != UART_FLAG_TXE) && (Flag != UART_FLAG_TC))
 8007b7c:	68fb      	ldr	r3, [r7, #12]
 8007b7e:	681b      	ldr	r3, [r3, #0]
 8007b80:	68db      	ldr	r3, [r3, #12]
 8007b82:	f003 0304 	and.w	r3, r3, #4
 8007b86:	2b00      	cmp	r3, #0
 8007b88:	d023      	beq.n	8007bd2 <UART_WaitOnFlagUntilTimeout+0x8a>
 8007b8a:	68bb      	ldr	r3, [r7, #8]
 8007b8c:	2b80      	cmp	r3, #128	; 0x80
 8007b8e:	d020      	beq.n	8007bd2 <UART_WaitOnFlagUntilTimeout+0x8a>
 8007b90:	68bb      	ldr	r3, [r7, #8]
 8007b92:	2b40      	cmp	r3, #64	; 0x40
 8007b94:	d01d      	beq.n	8007bd2 <UART_WaitOnFlagUntilTimeout+0x8a>
      {
        if (__HAL_UART_GET_FLAG(huart, UART_FLAG_ORE) == SET)
 8007b96:	68fb      	ldr	r3, [r7, #12]
 8007b98:	681b      	ldr	r3, [r3, #0]
 8007b9a:	681b      	ldr	r3, [r3, #0]
 8007b9c:	f003 0308 	and.w	r3, r3, #8
 8007ba0:	2b08      	cmp	r3, #8
 8007ba2:	d116      	bne.n	8007bd2 <UART_WaitOnFlagUntilTimeout+0x8a>
        {
          /* Clear Overrun Error flag*/
          __HAL_UART_CLEAR_OREFLAG(huart);
 8007ba4:	2300      	movs	r3, #0
 8007ba6:	617b      	str	r3, [r7, #20]
 8007ba8:	68fb      	ldr	r3, [r7, #12]
 8007baa:	681b      	ldr	r3, [r3, #0]
 8007bac:	681b      	ldr	r3, [r3, #0]
 8007bae:	617b      	str	r3, [r7, #20]
 8007bb0:	68fb      	ldr	r3, [r7, #12]
 8007bb2:	681b      	ldr	r3, [r3, #0]
 8007bb4:	685b      	ldr	r3, [r3, #4]
 8007bb6:	617b      	str	r3, [r7, #20]
 8007bb8:	697b      	ldr	r3, [r7, #20]

          /* Blocking error : transfer is aborted
          Set the UART state ready to be able to start again the process,
          Disable Rx Interrupts if ongoing */
          UART_EndRxTransfer(huart);
 8007bba:	68f8      	ldr	r0, [r7, #12]
 8007bbc:	f000 f857 	bl	8007c6e <UART_EndRxTransfer>

          huart->ErrorCode = HAL_UART_ERROR_ORE;
 8007bc0:	68fb      	ldr	r3, [r7, #12]
 8007bc2:	2208      	movs	r2, #8
 8007bc4:	645a      	str	r2, [r3, #68]	; 0x44

          /* Process Unlocked */
          __HAL_UNLOCK(huart);
 8007bc6:	68fb      	ldr	r3, [r7, #12]
 8007bc8:	2200      	movs	r2, #0
 8007bca:	f883 2040 	strb.w	r2, [r3, #64]	; 0x40

          return HAL_ERROR;
 8007bce:	2301      	movs	r3, #1
 8007bd0:	e00f      	b.n	8007bf2 <UART_WaitOnFlagUntilTimeout+0xaa>
  while ((__HAL_UART_GET_FLAG(huart, Flag) ? SET : RESET) == Status)
 8007bd2:	68fb      	ldr	r3, [r7, #12]
 8007bd4:	681b      	ldr	r3, [r3, #0]
 8007bd6:	681a      	ldr	r2, [r3, #0]
 8007bd8:	68bb      	ldr	r3, [r7, #8]
 8007bda:	4013      	ands	r3, r2
 8007bdc:	68ba      	ldr	r2, [r7, #8]
 8007bde:	429a      	cmp	r2, r3
 8007be0:	bf0c      	ite	eq
 8007be2:	2301      	moveq	r3, #1
 8007be4:	2300      	movne	r3, #0
 8007be6:	b2db      	uxtb	r3, r3
 8007be8:	461a      	mov	r2, r3
 8007bea:	79fb      	ldrb	r3, [r7, #7]
 8007bec:	429a      	cmp	r2, r3
 8007bee:	d0b4      	beq.n	8007b5a <UART_WaitOnFlagUntilTimeout+0x12>
        }
      }
    }
  }
  return HAL_OK;
 8007bf0:	2300      	movs	r3, #0
}
 8007bf2:	4618      	mov	r0, r3
 8007bf4:	3718      	adds	r7, #24
 8007bf6:	46bd      	mov	sp, r7
 8007bf8:	bd80      	pop	{r7, pc}

08007bfa <UART_Start_Receive_IT>:
  * @param  pData Pointer to data buffer (u8 or u16 data elements).
  * @param  Size  Amount of data elements (u8 or u16) to be received.
  * @retval HAL status
  */
HAL_StatusTypeDef UART_Start_Receive_IT(UART_HandleTypeDef *huart, uint8_t *pData, uint16_t Size)
{
 8007bfa:	b480      	push	{r7}
 8007bfc:	b085      	sub	sp, #20
 8007bfe:	af00      	add	r7, sp, #0
 8007c00:	60f8      	str	r0, [r7, #12]
 8007c02:	60b9      	str	r1, [r7, #8]
 8007c04:	4613      	mov	r3, r2
 8007c06:	80fb      	strh	r3, [r7, #6]
  huart->pRxBuffPtr = pData;
 8007c08:	68fb      	ldr	r3, [r7, #12]
 8007c0a:	68ba      	ldr	r2, [r7, #8]
 8007c0c:	629a      	str	r2, [r3, #40]	; 0x28
  huart->RxXferSize = Size;
 8007c0e:	68fb      	ldr	r3, [r7, #12]
 8007c10:	88fa      	ldrh	r2, [r7, #6]
 8007c12:	859a      	strh	r2, [r3, #44]	; 0x2c
  huart->RxXferCount = Size;
 8007c14:	68fb      	ldr	r3, [r7, #12]
 8007c16:	88fa      	ldrh	r2, [r7, #6]
 8007c18:	85da      	strh	r2, [r3, #46]	; 0x2e

  huart->ErrorCode = HAL_UART_ERROR_NONE;
 8007c1a:	68fb      	ldr	r3, [r7, #12]
 8007c1c:	2200      	movs	r2, #0
 8007c1e:	645a      	str	r2, [r3, #68]	; 0x44
  huart->RxState = HAL_UART_STATE_BUSY_RX;
 8007c20:	68fb      	ldr	r3, [r7, #12]
 8007c22:	2222      	movs	r2, #34	; 0x22
 8007c24:	f883 2042 	strb.w	r2, [r3, #66]	; 0x42

  if (huart->Init.Parity != UART_PARITY_NONE)
 8007c28:	68fb      	ldr	r3, [r7, #12]
 8007c2a:	691b      	ldr	r3, [r3, #16]
 8007c2c:	2b00      	cmp	r3, #0
 8007c2e:	d007      	beq.n	8007c40 <UART_Start_Receive_IT+0x46>
  {
    /* Enable the UART Parity Error Interrupt */
    __HAL_UART_ENABLE_IT(huart, UART_IT_PE);
 8007c30:	68fb      	ldr	r3, [r7, #12]
 8007c32:	681b      	ldr	r3, [r3, #0]
 8007c34:	68da      	ldr	r2, [r3, #12]
 8007c36:	68fb      	ldr	r3, [r7, #12]
 8007c38:	681b      	ldr	r3, [r3, #0]
 8007c3a:	f442 7280 	orr.w	r2, r2, #256	; 0x100
 8007c3e:	60da      	str	r2, [r3, #12]
  }

  /* Enable the UART Error Interrupt: (Frame error, noise error, overrun error) */
  __HAL_UART_ENABLE_IT(huart, UART_IT_ERR);
 8007c40:	68fb      	ldr	r3, [r7, #12]
 8007c42:	681b      	ldr	r3, [r3, #0]
 8007c44:	695a      	ldr	r2, [r3, #20]
 8007c46:	68fb      	ldr	r3, [r7, #12]
 8007c48:	681b      	ldr	r3, [r3, #0]
 8007c4a:	f042 0201 	orr.w	r2, r2, #1
 8007c4e:	615a      	str	r2, [r3, #20]

  /* Enable the UART Data Register not empty Interrupt */
  __HAL_UART_ENABLE_IT(huart, UART_IT_RXNE);
 8007c50:	68fb      	ldr	r3, [r7, #12]
 8007c52:	681b      	ldr	r3, [r3, #0]
 8007c54:	68da      	ldr	r2, [r3, #12]
 8007c56:	68fb      	ldr	r3, [r7, #12]
 8007c58:	681b      	ldr	r3, [r3, #0]
 8007c5a:	f042 0220 	orr.w	r2, r2, #32
 8007c5e:	60da      	str	r2, [r3, #12]

  return HAL_OK;
 8007c60:	2300      	movs	r3, #0
}
 8007c62:	4618      	mov	r0, r3
 8007c64:	3714      	adds	r7, #20
 8007c66:	46bd      	mov	sp, r7
 8007c68:	f85d 7b04 	ldr.w	r7, [sp], #4
 8007c6c:	4770      	bx	lr

08007c6e <UART_EndRxTransfer>:
  * @brief  End ongoing Rx transfer on UART peripheral (following error detection or Reception completion).
  * @param  huart UART handle.
  * @retval None
  */
static void UART_EndRxTransfer(UART_HandleTypeDef *huart)
{
 8007c6e:	b480      	push	{r7}
 8007c70:	b095      	sub	sp, #84	; 0x54
 8007c72:	af00      	add	r7, sp, #0
 8007c74:	6078      	str	r0, [r7, #4]
  /* Disable RXNE, PE and ERR (Frame error, noise error, overrun error) interrupts */
  ATOMIC_CLEAR_BIT(huart->Instance->CR1, (USART_CR1_RXNEIE | USART_CR1_PEIE));
 8007c76:	687b      	ldr	r3, [r7, #4]
 8007c78:	681b      	ldr	r3, [r3, #0]
 8007c7a:	330c      	adds	r3, #12
 8007c7c:	637b      	str	r3, [r7, #52]	; 0x34
   __ASM volatile ("ldrex %0, %1" : "=r" (result) : "Q" (*addr) );
 8007c7e:	6b7b      	ldr	r3, [r7, #52]	; 0x34
 8007c80:	e853 3f00 	ldrex	r3, [r3]
 8007c84:	633b      	str	r3, [r7, #48]	; 0x30
   return(result);
 8007c86:	6b3b      	ldr	r3, [r7, #48]	; 0x30
 8007c88:	f423 7390 	bic.w	r3, r3, #288	; 0x120
 8007c8c:	64fb      	str	r3, [r7, #76]	; 0x4c
 8007c8e:	687b      	ldr	r3, [r7, #4]
 8007c90:	681b      	ldr	r3, [r3, #0]
 8007c92:	330c      	adds	r3, #12
 8007c94:	6cfa      	ldr	r2, [r7, #76]	; 0x4c
 8007c96:	643a      	str	r2, [r7, #64]	; 0x40
 8007c98:	63fb      	str	r3, [r7, #60]	; 0x3c
   __ASM volatile ("strex %0, %2, %1" : "=&r" (result), "=Q" (*addr) : "r" (value) );
 8007c9a:	6bf9      	ldr	r1, [r7, #60]	; 0x3c
 8007c9c:	6c3a      	ldr	r2, [r7, #64]	; 0x40
 8007c9e:	e841 2300 	strex	r3, r2, [r1]
 8007ca2:	63bb      	str	r3, [r7, #56]	; 0x38
   return(result);
 8007ca4:	6bbb      	ldr	r3, [r7, #56]	; 0x38
 8007ca6:	2b00      	cmp	r3, #0
 8007ca8:	d1e5      	bne.n	8007c76 <UART_EndRxTransfer+0x8>
  ATOMIC_CLEAR_BIT(huart->Instance->CR3, USART_CR3_EIE);
 8007caa:	687b      	ldr	r3, [r7, #4]
 8007cac:	681b      	ldr	r3, [r3, #0]
 8007cae:	3314      	adds	r3, #20
 8007cb0:	623b      	str	r3, [r7, #32]
   __ASM volatile ("ldrex %0, %1" : "=r" (result) : "Q" (*addr) );
 8007cb2:	6a3b      	ldr	r3, [r7, #32]
 8007cb4:	e853 3f00 	ldrex	r3, [r3]
 8007cb8:	61fb      	str	r3, [r7, #28]
   return(result);
 8007cba:	69fb      	ldr	r3, [r7, #28]
 8007cbc:	f023 0301 	bic.w	r3, r3, #1
 8007cc0:	64bb      	str	r3, [r7, #72]	; 0x48
 8007cc2:	687b      	ldr	r3, [r7, #4]
 8007cc4:	681b      	ldr	r3, [r3, #0]
 8007cc6:	3314      	adds	r3, #20
 8007cc8:	6cba      	ldr	r2, [r7, #72]	; 0x48
 8007cca:	62fa      	str	r2, [r7, #44]	; 0x2c
 8007ccc:	62bb      	str	r3, [r7, #40]	; 0x28
   __ASM volatile ("strex %0, %2, %1" : "=&r" (result), "=Q" (*addr) : "r" (value) );
 8007cce:	6ab9      	ldr	r1, [r7, #40]	; 0x28
 8007cd0:	6afa      	ldr	r2, [r7, #44]	; 0x2c
 8007cd2:	e841 2300 	strex	r3, r2, [r1]
 8007cd6:	627b      	str	r3, [r7, #36]	; 0x24
   return(result);
 8007cd8:	6a7b      	ldr	r3, [r7, #36]	; 0x24
 8007cda:	2b00      	cmp	r3, #0
 8007cdc:	d1e5      	bne.n	8007caa <UART_EndRxTransfer+0x3c>

  /* In case of reception waiting for IDLE event, disable also the IDLE IE interrupt source */
  if (huart->ReceptionType == HAL_UART_RECEPTION_TOIDLE)
 8007cde:	687b      	ldr	r3, [r7, #4]
 8007ce0:	6b1b      	ldr	r3, [r3, #48]	; 0x30
 8007ce2:	2b01      	cmp	r3, #1
 8007ce4:	d119      	bne.n	8007d1a <UART_EndRxTransfer+0xac>
  {
    ATOMIC_CLEAR_BIT(huart->Instance->CR1, USART_CR1_IDLEIE);
 8007ce6:	687b      	ldr	r3, [r7, #4]
 8007ce8:	681b      	ldr	r3, [r3, #0]
 8007cea:	330c      	adds	r3, #12
 8007cec:	60fb      	str	r3, [r7, #12]
   __ASM volatile ("ldrex %0, %1" : "=r" (result) : "Q" (*addr) );
 8007cee:	68fb      	ldr	r3, [r7, #12]
 8007cf0:	e853 3f00 	ldrex	r3, [r3]
 8007cf4:	60bb      	str	r3, [r7, #8]
   return(result);
 8007cf6:	68bb      	ldr	r3, [r7, #8]
 8007cf8:	f023 0310 	bic.w	r3, r3, #16
 8007cfc:	647b      	str	r3, [r7, #68]	; 0x44
 8007cfe:	687b      	ldr	r3, [r7, #4]
 8007d00:	681b      	ldr	r3, [r3, #0]
 8007d02:	330c      	adds	r3, #12
 8007d04:	6c7a      	ldr	r2, [r7, #68]	; 0x44
 8007d06:	61ba      	str	r2, [r7, #24]
 8007d08:	617b      	str	r3, [r7, #20]
   __ASM volatile ("strex %0, %2, %1" : "=&r" (result), "=Q" (*addr) : "r" (value) );
 8007d0a:	6979      	ldr	r1, [r7, #20]
 8007d0c:	69ba      	ldr	r2, [r7, #24]
 8007d0e:	e841 2300 	strex	r3, r2, [r1]
 8007d12:	613b      	str	r3, [r7, #16]
   return(result);
 8007d14:	693b      	ldr	r3, [r7, #16]
 8007d16:	2b00      	cmp	r3, #0
 8007d18:	d1e5      	bne.n	8007ce6 <UART_EndRxTransfer+0x78>
  }

  /* At end of Rx process, restore huart->RxState to Ready */
  huart->RxState = HAL_UART_STATE_READY;
 8007d1a:	687b      	ldr	r3, [r7, #4]
 8007d1c:	2220      	movs	r2, #32
 8007d1e:	f883 2042 	strb.w	r2, [r3, #66]	; 0x42
  huart->ReceptionType = HAL_UART_RECEPTION_STANDARD;
 8007d22:	687b      	ldr	r3, [r7, #4]
 8007d24:	2200      	movs	r2, #0
 8007d26:	631a      	str	r2, [r3, #48]	; 0x30
}
 8007d28:	bf00      	nop
 8007d2a:	3754      	adds	r7, #84	; 0x54
 8007d2c:	46bd      	mov	sp, r7
 8007d2e:	f85d 7b04 	ldr.w	r7, [sp], #4
 8007d32:	4770      	bx	lr

08007d34 <UART_DMAAbortOnError>:
  * @param  hdma  Pointer to a DMA_HandleTypeDef structure that contains
  *               the configuration information for the specified DMA module.
  * @retval None
  */
static void UART_DMAAbortOnError(DMA_HandleTypeDef *hdma)
{
 8007d34:	b580      	push	{r7, lr}
 8007d36:	b084      	sub	sp, #16
 8007d38:	af00      	add	r7, sp, #0
 8007d3a:	6078      	str	r0, [r7, #4]
  UART_HandleTypeDef *huart = (UART_HandleTypeDef *)((DMA_HandleTypeDef *)hdma)->Parent;
 8007d3c:	687b      	ldr	r3, [r7, #4]
 8007d3e:	6b9b      	ldr	r3, [r3, #56]	; 0x38
 8007d40:	60fb      	str	r3, [r7, #12]
  huart->RxXferCount = 0x00U;
 8007d42:	68fb      	ldr	r3, [r7, #12]
 8007d44:	2200      	movs	r2, #0
 8007d46:	85da      	strh	r2, [r3, #46]	; 0x2e
  huart->TxXferCount = 0x00U;
 8007d48:	68fb      	ldr	r3, [r7, #12]
 8007d4a:	2200      	movs	r2, #0
 8007d4c:	84da      	strh	r2, [r3, #38]	; 0x26
#if (USE_HAL_UART_REGISTER_CALLBACKS == 1)
  /*Call registered error callback*/
  huart->ErrorCallback(huart);
#else
  /*Call legacy weak error callback*/
  HAL_UART_ErrorCallback(huart);
 8007d4e:	68f8      	ldr	r0, [r7, #12]
 8007d50:	f7ff fee4 	bl	8007b1c <HAL_UART_ErrorCallback>
#endif /* USE_HAL_UART_REGISTER_CALLBACKS */
}
 8007d54:	bf00      	nop
 8007d56:	3710      	adds	r7, #16
 8007d58:	46bd      	mov	sp, r7
 8007d5a:	bd80      	pop	{r7, pc}

08007d5c <UART_Transmit_IT>:
  * @param  huart  Pointer to a UART_HandleTypeDef structure that contains
  *                the configuration information for the specified UART module.
  * @retval HAL status
  */
static HAL_StatusTypeDef UART_Transmit_IT(UART_HandleTypeDef *huart)
{
 8007d5c:	b480      	push	{r7}
 8007d5e:	b085      	sub	sp, #20
 8007d60:	af00      	add	r7, sp, #0
 8007d62:	6078      	str	r0, [r7, #4]
  const uint16_t *tmp;

  /* Check that a Tx process is ongoing */
  if (huart->gState == HAL_UART_STATE_BUSY_TX)
 8007d64:	687b      	ldr	r3, [r7, #4]
 8007d66:	f893 3041 	ldrb.w	r3, [r3, #65]	; 0x41
 8007d6a:	b2db      	uxtb	r3, r3
 8007d6c:	2b21      	cmp	r3, #33	; 0x21
 8007d6e:	d13e      	bne.n	8007dee <UART_Transmit_IT+0x92>
  {
    if ((huart->Init.WordLength == UART_WORDLENGTH_9B) && (huart->Init.Parity == UART_PARITY_NONE))
 8007d70:	687b      	ldr	r3, [r7, #4]
 8007d72:	689b      	ldr	r3, [r3, #8]
 8007d74:	f5b3 5f80 	cmp.w	r3, #4096	; 0x1000
 8007d78:	d114      	bne.n	8007da4 <UART_Transmit_IT+0x48>
 8007d7a:	687b      	ldr	r3, [r7, #4]
 8007d7c:	691b      	ldr	r3, [r3, #16]
 8007d7e:	2b00      	cmp	r3, #0
 8007d80:	d110      	bne.n	8007da4 <UART_Transmit_IT+0x48>
    {
      tmp = (const uint16_t *) huart->pTxBuffPtr;
 8007d82:	687b      	ldr	r3, [r7, #4]
 8007d84:	6a1b      	ldr	r3, [r3, #32]
 8007d86:	60fb      	str	r3, [r7, #12]
      huart->Instance->DR = (uint16_t)(*tmp & (uint16_t)0x01FF);
 8007d88:	68fb      	ldr	r3, [r7, #12]
 8007d8a:	881b      	ldrh	r3, [r3, #0]
 8007d8c:	461a      	mov	r2, r3
 8007d8e:	687b      	ldr	r3, [r7, #4]
 8007d90:	681b      	ldr	r3, [r3, #0]
 8007d92:	f3c2 0208 	ubfx	r2, r2, #0, #9
 8007d96:	605a      	str	r2, [r3, #4]
      huart->pTxBuffPtr += 2U;
 8007d98:	687b      	ldr	r3, [r7, #4]
 8007d9a:	6a1b      	ldr	r3, [r3, #32]
 8007d9c:	1c9a      	adds	r2, r3, #2
 8007d9e:	687b      	ldr	r3, [r7, #4]
 8007da0:	621a      	str	r2, [r3, #32]
 8007da2:	e008      	b.n	8007db6 <UART_Transmit_IT+0x5a>
    }
    else
    {
      huart->Instance->DR = (uint8_t)(*huart->pTxBuffPtr++ & (uint8_t)0x00FF);
 8007da4:	687b      	ldr	r3, [r7, #4]
 8007da6:	6a1b      	ldr	r3, [r3, #32]
 8007da8:	1c59      	adds	r1, r3, #1
 8007daa:	687a      	ldr	r2, [r7, #4]
 8007dac:	6211      	str	r1, [r2, #32]
 8007dae:	781a      	ldrb	r2, [r3, #0]
 8007db0:	687b      	ldr	r3, [r7, #4]
 8007db2:	681b      	ldr	r3, [r3, #0]
 8007db4:	605a      	str	r2, [r3, #4]
    }

    if (--huart->TxXferCount == 0U)
 8007db6:	687b      	ldr	r3, [r7, #4]
 8007db8:	8cdb      	ldrh	r3, [r3, #38]	; 0x26
 8007dba:	b29b      	uxth	r3, r3
 8007dbc:	3b01      	subs	r3, #1
 8007dbe:	b29b      	uxth	r3, r3
 8007dc0:	687a      	ldr	r2, [r7, #4]
 8007dc2:	4619      	mov	r1, r3
 8007dc4:	84d1      	strh	r1, [r2, #38]	; 0x26
 8007dc6:	2b00      	cmp	r3, #0
 8007dc8:	d10f      	bne.n	8007dea <UART_Transmit_IT+0x8e>
    {
      /* Disable the UART Transmit Data Register Empty Interrupt */
      __HAL_UART_DISABLE_IT(huart, UART_IT_TXE);
 8007dca:	687b      	ldr	r3, [r7, #4]
 8007dcc:	681b      	ldr	r3, [r3, #0]
 8007dce:	68da      	ldr	r2, [r3, #12]
 8007dd0:	687b      	ldr	r3, [r7, #4]
 8007dd2:	681b      	ldr	r3, [r3, #0]
 8007dd4:	f022 0280 	bic.w	r2, r2, #128	; 0x80
 8007dd8:	60da      	str	r2, [r3, #12]

      /* Enable the UART Transmit Complete Interrupt */
      __HAL_UART_ENABLE_IT(huart, UART_IT_TC);
 8007dda:	687b      	ldr	r3, [r7, #4]
 8007ddc:	681b      	ldr	r3, [r3, #0]
 8007dde:	68da      	ldr	r2, [r3, #12]
 8007de0:	687b      	ldr	r3, [r7, #4]
 8007de2:	681b      	ldr	r3, [r3, #0]
 8007de4:	f042 0240 	orr.w	r2, r2, #64	; 0x40
 8007de8:	60da      	str	r2, [r3, #12]
    }
    return HAL_OK;
 8007dea:	2300      	movs	r3, #0
 8007dec:	e000      	b.n	8007df0 <UART_Transmit_IT+0x94>
  }
  else
  {
    return HAL_BUSY;
 8007dee:	2302      	movs	r3, #2
  }
}
 8007df0:	4618      	mov	r0, r3
 8007df2:	3714      	adds	r7, #20
 8007df4:	46bd      	mov	sp, r7
 8007df6:	f85d 7b04 	ldr.w	r7, [sp], #4
 8007dfa:	4770      	bx	lr

08007dfc <UART_EndTransmit_IT>:
  * @param  huart  Pointer to a UART_HandleTypeDef structure that contains
  *                the configuration information for the specified UART module.
  * @retval HAL status
  */
static HAL_StatusTypeDef UART_EndTransmit_IT(UART_HandleTypeDef *huart)
{
 8007dfc:	b580      	push	{r7, lr}
 8007dfe:	b082      	sub	sp, #8
 8007e00:	af00      	add	r7, sp, #0
 8007e02:	6078      	str	r0, [r7, #4]
  /* Disable the UART Transmit Complete Interrupt */
  __HAL_UART_DISABLE_IT(huart, UART_IT_TC);
 8007e04:	687b      	ldr	r3, [r7, #4]
 8007e06:	681b      	ldr	r3, [r3, #0]
 8007e08:	68da      	ldr	r2, [r3, #12]
 8007e0a:	687b      	ldr	r3, [r7, #4]
 8007e0c:	681b      	ldr	r3, [r3, #0]
 8007e0e:	f022 0240 	bic.w	r2, r2, #64	; 0x40
 8007e12:	60da      	str	r2, [r3, #12]

  /* Tx process is ended, restore huart->gState to Ready */
  huart->gState = HAL_UART_STATE_READY;
 8007e14:	687b      	ldr	r3, [r7, #4]
 8007e16:	2220      	movs	r2, #32
 8007e18:	f883 2041 	strb.w	r2, [r3, #65]	; 0x41
#if (USE_HAL_UART_REGISTER_CALLBACKS == 1)
  /*Call registered Tx complete callback*/
  huart->TxCpltCallback(huart);
#else
  /*Call legacy weak Tx complete callback*/
  HAL_UART_TxCpltCallback(huart);
 8007e1c:	6878      	ldr	r0, [r7, #4]
 8007e1e:	f7ff fe73 	bl	8007b08 <HAL_UART_TxCpltCallback>
#endif /* USE_HAL_UART_REGISTER_CALLBACKS */

  return HAL_OK;
 8007e22:	2300      	movs	r3, #0
}
 8007e24:	4618      	mov	r0, r3
 8007e26:	3708      	adds	r7, #8
 8007e28:	46bd      	mov	sp, r7
 8007e2a:	bd80      	pop	{r7, pc}

08007e2c <UART_Receive_IT>:
  * @param  huart  Pointer to a UART_HandleTypeDef structure that contains
  *                the configuration information for the specified UART module.
  * @retval HAL status
  */
static HAL_StatusTypeDef UART_Receive_IT(UART_HandleTypeDef *huart)
{
 8007e2c:	b580      	push	{r7, lr}
 8007e2e:	b08c      	sub	sp, #48	; 0x30
 8007e30:	af00      	add	r7, sp, #0
 8007e32:	6078      	str	r0, [r7, #4]
  uint8_t  *pdata8bits;
  uint16_t *pdata16bits;

  /* Check that a Rx process is ongoing */
  if (huart->RxState == HAL_UART_STATE_BUSY_RX)
 8007e34:	687b      	ldr	r3, [r7, #4]
 8007e36:	f893 3042 	ldrb.w	r3, [r3, #66]	; 0x42
 8007e3a:	b2db      	uxtb	r3, r3
 8007e3c:	2b22      	cmp	r3, #34	; 0x22
 8007e3e:	f040 80ae 	bne.w	8007f9e <UART_Receive_IT+0x172>
  {
    if ((huart->Init.WordLength == UART_WORDLENGTH_9B) && (huart->Init.Parity == UART_PARITY_NONE))
 8007e42:	687b      	ldr	r3, [r7, #4]
 8007e44:	689b      	ldr	r3, [r3, #8]
 8007e46:	f5b3 5f80 	cmp.w	r3, #4096	; 0x1000
 8007e4a:	d117      	bne.n	8007e7c <UART_Receive_IT+0x50>
 8007e4c:	687b      	ldr	r3, [r7, #4]
 8007e4e:	691b      	ldr	r3, [r3, #16]
 8007e50:	2b00      	cmp	r3, #0
 8007e52:	d113      	bne.n	8007e7c <UART_Receive_IT+0x50>
    {
      pdata8bits  = NULL;
 8007e54:	2300      	movs	r3, #0
 8007e56:	62fb      	str	r3, [r7, #44]	; 0x2c
      pdata16bits = (uint16_t *) huart->pRxBuffPtr;
 8007e58:	687b      	ldr	r3, [r7, #4]
 8007e5a:	6a9b      	ldr	r3, [r3, #40]	; 0x28
 8007e5c:	62bb      	str	r3, [r7, #40]	; 0x28
      *pdata16bits = (uint16_t)(huart->Instance->DR & (uint16_t)0x01FF);
 8007e5e:	687b      	ldr	r3, [r7, #4]
 8007e60:	681b      	ldr	r3, [r3, #0]
 8007e62:	685b      	ldr	r3, [r3, #4]
 8007e64:	b29b      	uxth	r3, r3
 8007e66:	f3c3 0308 	ubfx	r3, r3, #0, #9
 8007e6a:	b29a      	uxth	r2, r3
 8007e6c:	6abb      	ldr	r3, [r7, #40]	; 0x28
 8007e6e:	801a      	strh	r2, [r3, #0]
      huart->pRxBuffPtr += 2U;
 8007e70:	687b      	ldr	r3, [r7, #4]
 8007e72:	6a9b      	ldr	r3, [r3, #40]	; 0x28
 8007e74:	1c9a      	adds	r2, r3, #2
 8007e76:	687b      	ldr	r3, [r7, #4]
 8007e78:	629a      	str	r2, [r3, #40]	; 0x28
 8007e7a:	e026      	b.n	8007eca <UART_Receive_IT+0x9e>
    }
    else
    {
      pdata8bits = (uint8_t *) huart->pRxBuffPtr;
 8007e7c:	687b      	ldr	r3, [r7, #4]
 8007e7e:	6a9b      	ldr	r3, [r3, #40]	; 0x28
 8007e80:	62fb      	str	r3, [r7, #44]	; 0x2c
      pdata16bits  = NULL;
 8007e82:	2300      	movs	r3, #0
 8007e84:	62bb      	str	r3, [r7, #40]	; 0x28

      if ((huart->Init.WordLength == UART_WORDLENGTH_9B) || ((huart->Init.WordLength == UART_WORDLENGTH_8B) && (huart->Init.Parity == UART_PARITY_NONE)))
 8007e86:	687b      	ldr	r3, [r7, #4]
 8007e88:	689b      	ldr	r3, [r3, #8]
 8007e8a:	f5b3 5f80 	cmp.w	r3, #4096	; 0x1000
 8007e8e:	d007      	beq.n	8007ea0 <UART_Receive_IT+0x74>
 8007e90:	687b      	ldr	r3, [r7, #4]
 8007e92:	689b      	ldr	r3, [r3, #8]
 8007e94:	2b00      	cmp	r3, #0
 8007e96:	d10a      	bne.n	8007eae <UART_Receive_IT+0x82>
 8007e98:	687b      	ldr	r3, [r7, #4]
 8007e9a:	691b      	ldr	r3, [r3, #16]
 8007e9c:	2b00      	cmp	r3, #0
 8007e9e:	d106      	bne.n	8007eae <UART_Receive_IT+0x82>
      {
        *pdata8bits = (uint8_t)(huart->Instance->DR & (uint8_t)0x00FF);
 8007ea0:	687b      	ldr	r3, [r7, #4]
 8007ea2:	681b      	ldr	r3, [r3, #0]
 8007ea4:	685b      	ldr	r3, [r3, #4]
 8007ea6:	b2da      	uxtb	r2, r3
 8007ea8:	6afb      	ldr	r3, [r7, #44]	; 0x2c
 8007eaa:	701a      	strb	r2, [r3, #0]
 8007eac:	e008      	b.n	8007ec0 <UART_Receive_IT+0x94>
      }
      else
      {
        *pdata8bits = (uint8_t)(huart->Instance->DR & (uint8_t)0x007F);
 8007eae:	687b      	ldr	r3, [r7, #4]
 8007eb0:	681b      	ldr	r3, [r3, #0]
 8007eb2:	685b      	ldr	r3, [r3, #4]
 8007eb4:	b2db      	uxtb	r3, r3
 8007eb6:	f003 037f 	and.w	r3, r3, #127	; 0x7f
 8007eba:	b2da      	uxtb	r2, r3
 8007ebc:	6afb      	ldr	r3, [r7, #44]	; 0x2c
 8007ebe:	701a      	strb	r2, [r3, #0]
      }
      huart->pRxBuffPtr += 1U;
 8007ec0:	687b      	ldr	r3, [r7, #4]
 8007ec2:	6a9b      	ldr	r3, [r3, #40]	; 0x28
 8007ec4:	1c5a      	adds	r2, r3, #1
 8007ec6:	687b      	ldr	r3, [r7, #4]
 8007ec8:	629a      	str	r2, [r3, #40]	; 0x28
    }

    if (--huart->RxXferCount == 0U)
 8007eca:	687b      	ldr	r3, [r7, #4]
 8007ecc:	8ddb      	ldrh	r3, [r3, #46]	; 0x2e
 8007ece:	b29b      	uxth	r3, r3
 8007ed0:	3b01      	subs	r3, #1
 8007ed2:	b29b      	uxth	r3, r3
 8007ed4:	687a      	ldr	r2, [r7, #4]
 8007ed6:	4619      	mov	r1, r3
 8007ed8:	85d1      	strh	r1, [r2, #46]	; 0x2e
 8007eda:	2b00      	cmp	r3, #0
 8007edc:	d15d      	bne.n	8007f9a <UART_Receive_IT+0x16e>
    {
      /* Disable the UART Data Register not empty Interrupt */
      __HAL_UART_DISABLE_IT(huart, UART_IT_RXNE);
 8007ede:	687b      	ldr	r3, [r7, #4]
 8007ee0:	681b      	ldr	r3, [r3, #0]
 8007ee2:	68da      	ldr	r2, [r3, #12]
 8007ee4:	687b      	ldr	r3, [r7, #4]
 8007ee6:	681b      	ldr	r3, [r3, #0]
 8007ee8:	f022 0220 	bic.w	r2, r2, #32
 8007eec:	60da      	str	r2, [r3, #12]

      /* Disable the UART Parity Error Interrupt */
      __HAL_UART_DISABLE_IT(huart, UART_IT_PE);
 8007eee:	687b      	ldr	r3, [r7, #4]
 8007ef0:	681b      	ldr	r3, [r3, #0]
 8007ef2:	68da      	ldr	r2, [r3, #12]
 8007ef4:	687b      	ldr	r3, [r7, #4]
 8007ef6:	681b      	ldr	r3, [r3, #0]
 8007ef8:	f422 7280 	bic.w	r2, r2, #256	; 0x100
 8007efc:	60da      	str	r2, [r3, #12]

      /* Disable the UART Error Interrupt: (Frame error, noise error, overrun error) */
      __HAL_UART_DISABLE_IT(huart, UART_IT_ERR);
 8007efe:	687b      	ldr	r3, [r7, #4]
 8007f00:	681b      	ldr	r3, [r3, #0]
 8007f02:	695a      	ldr	r2, [r3, #20]
 8007f04:	687b      	ldr	r3, [r7, #4]
 8007f06:	681b      	ldr	r3, [r3, #0]
 8007f08:	f022 0201 	bic.w	r2, r2, #1
 8007f0c:	615a      	str	r2, [r3, #20]

      /* Rx process is completed, restore huart->RxState to Ready */
      huart->RxState = HAL_UART_STATE_READY;
 8007f0e:	687b      	ldr	r3, [r7, #4]
 8007f10:	2220      	movs	r2, #32
 8007f12:	f883 2042 	strb.w	r2, [r3, #66]	; 0x42

      /* Initialize type of RxEvent to Transfer Complete */
      huart->RxEventType = HAL_UART_RXEVENT_TC;
 8007f16:	687b      	ldr	r3, [r7, #4]
 8007f18:	2200      	movs	r2, #0
 8007f1a:	635a      	str	r2, [r3, #52]	; 0x34

      /* Check current reception Mode :
         If Reception till IDLE event has been selected : */
      if (huart->ReceptionType == HAL_UART_RECEPTION_TOIDLE)
 8007f1c:	687b      	ldr	r3, [r7, #4]
 8007f1e:	6b1b      	ldr	r3, [r3, #48]	; 0x30
 8007f20:	2b01      	cmp	r3, #1
 8007f22:	d135      	bne.n	8007f90 <UART_Receive_IT+0x164>
      {
        /* Set reception type to Standard */
        huart->ReceptionType = HAL_UART_RECEPTION_STANDARD;
 8007f24:	687b      	ldr	r3, [r7, #4]
 8007f26:	2200      	movs	r2, #0
 8007f28:	631a      	str	r2, [r3, #48]	; 0x30

        /* Disable IDLE interrupt */
        ATOMIC_CLEAR_BIT(huart->Instance->CR1, USART_CR1_IDLEIE);
 8007f2a:	687b      	ldr	r3, [r7, #4]
 8007f2c:	681b      	ldr	r3, [r3, #0]
 8007f2e:	330c      	adds	r3, #12
 8007f30:	617b      	str	r3, [r7, #20]
   __ASM volatile ("ldrex %0, %1" : "=r" (result) : "Q" (*addr) );
 8007f32:	697b      	ldr	r3, [r7, #20]
 8007f34:	e853 3f00 	ldrex	r3, [r3]
 8007f38:	613b      	str	r3, [r7, #16]
   return(result);
 8007f3a:	693b      	ldr	r3, [r7, #16]
 8007f3c:	f023 0310 	bic.w	r3, r3, #16
 8007f40:	627b      	str	r3, [r7, #36]	; 0x24
 8007f42:	687b      	ldr	r3, [r7, #4]
 8007f44:	681b      	ldr	r3, [r3, #0]
 8007f46:	330c      	adds	r3, #12
 8007f48:	6a7a      	ldr	r2, [r7, #36]	; 0x24
 8007f4a:	623a      	str	r2, [r7, #32]
 8007f4c:	61fb      	str	r3, [r7, #28]
   __ASM volatile ("strex %0, %2, %1" : "=&r" (result), "=Q" (*addr) : "r" (value) );
 8007f4e:	69f9      	ldr	r1, [r7, #28]
 8007f50:	6a3a      	ldr	r2, [r7, #32]
 8007f52:	e841 2300 	strex	r3, r2, [r1]
 8007f56:	61bb      	str	r3, [r7, #24]
   return(result);
 8007f58:	69bb      	ldr	r3, [r7, #24]
 8007f5a:	2b00      	cmp	r3, #0
 8007f5c:	d1e5      	bne.n	8007f2a <UART_Receive_IT+0xfe>

        /* Check if IDLE flag is set */
        if (__HAL_UART_GET_FLAG(huart, UART_FLAG_IDLE))
 8007f5e:	687b      	ldr	r3, [r7, #4]
 8007f60:	681b      	ldr	r3, [r3, #0]
 8007f62:	681b      	ldr	r3, [r3, #0]
 8007f64:	f003 0310 	and.w	r3, r3, #16
 8007f68:	2b10      	cmp	r3, #16
 8007f6a:	d10a      	bne.n	8007f82 <UART_Receive_IT+0x156>
        {
          /* Clear IDLE flag in ISR */
          __HAL_UART_CLEAR_IDLEFLAG(huart);
 8007f6c:	2300      	movs	r3, #0
 8007f6e:	60fb      	str	r3, [r7, #12]
 8007f70:	687b      	ldr	r3, [r7, #4]
 8007f72:	681b      	ldr	r3, [r3, #0]
 8007f74:	681b      	ldr	r3, [r3, #0]
 8007f76:	60fb      	str	r3, [r7, #12]
 8007f78:	687b      	ldr	r3, [r7, #4]
 8007f7a:	681b      	ldr	r3, [r3, #0]
 8007f7c:	685b      	ldr	r3, [r3, #4]
 8007f7e:	60fb      	str	r3, [r7, #12]
 8007f80:	68fb      	ldr	r3, [r7, #12]
#if (USE_HAL_UART_REGISTER_CALLBACKS == 1)
        /*Call registered Rx Event callback*/
        huart->RxEventCallback(huart, huart->RxXferSize);
#else
        /*Call legacy weak Rx Event callback*/
        HAL_UARTEx_RxEventCallback(huart, huart->RxXferSize);
 8007f82:	687b      	ldr	r3, [r7, #4]
 8007f84:	8d9b      	ldrh	r3, [r3, #44]	; 0x2c
 8007f86:	4619      	mov	r1, r3
 8007f88:	6878      	ldr	r0, [r7, #4]
 8007f8a:	f7ff fdd1 	bl	8007b30 <HAL_UARTEx_RxEventCallback>
 8007f8e:	e002      	b.n	8007f96 <UART_Receive_IT+0x16a>
#if (USE_HAL_UART_REGISTER_CALLBACKS == 1)
        /*Call registered Rx complete callback*/
        huart->RxCpltCallback(huart);
#else
        /*Call legacy weak Rx complete callback*/
        HAL_UART_RxCpltCallback(huart);
 8007f90:	6878      	ldr	r0, [r7, #4]
 8007f92:	f7fa fd27 	bl	80029e4 <HAL_UART_RxCpltCallback>
#endif /* USE_HAL_UART_REGISTER_CALLBACKS */
      }

      return HAL_OK;
 8007f96:	2300      	movs	r3, #0
 8007f98:	e002      	b.n	8007fa0 <UART_Receive_IT+0x174>
    }
    return HAL_OK;
 8007f9a:	2300      	movs	r3, #0
 8007f9c:	e000      	b.n	8007fa0 <UART_Receive_IT+0x174>
  }
  else
  {
    return HAL_BUSY;
 8007f9e:	2302      	movs	r3, #2
  }
}
 8007fa0:	4618      	mov	r0, r3
 8007fa2:	3730      	adds	r7, #48	; 0x30
 8007fa4:	46bd      	mov	sp, r7
 8007fa6:	bd80      	pop	{r7, pc}

08007fa8 <UART_SetConfig>:
  * @param  huart  Pointer to a UART_HandleTypeDef structure that contains
  *                the configuration information for the specified UART module.
  * @retval None
  */
static void UART_SetConfig(UART_HandleTypeDef *huart)
{
 8007fa8:	e92d 4fb0 	stmdb	sp!, {r4, r5, r7, r8, r9, sl, fp, lr}
 8007fac:	b0c0      	sub	sp, #256	; 0x100
 8007fae:	af00      	add	r7, sp, #0
 8007fb0:	f8c7 00f4 	str.w	r0, [r7, #244]	; 0xf4
  assert_param(IS_UART_MODE(huart->Init.Mode));

  /*-------------------------- USART CR2 Configuration -----------------------*/
  /* Configure the UART Stop Bits: Set STOP[13:12] bits
     according to huart->Init.StopBits value */
  MODIFY_REG(huart->Instance->CR2, USART_CR2_STOP, huart->Init.StopBits);
 8007fb4:	f8d7 30f4 	ldr.w	r3, [r7, #244]	; 0xf4
 8007fb8:	681b      	ldr	r3, [r3, #0]
 8007fba:	691b      	ldr	r3, [r3, #16]
 8007fbc:	f423 5040 	bic.w	r0, r3, #12288	; 0x3000
 8007fc0:	f8d7 30f4 	ldr.w	r3, [r7, #244]	; 0xf4
 8007fc4:	68d9      	ldr	r1, [r3, #12]
 8007fc6:	f8d7 30f4 	ldr.w	r3, [r7, #244]	; 0xf4
 8007fca:	681a      	ldr	r2, [r3, #0]
 8007fcc:	ea40 0301 	orr.w	r3, r0, r1
 8007fd0:	6113      	str	r3, [r2, #16]
     Set the M bits according to huart->Init.WordLength value
     Set PCE and PS bits according to huart->Init.Parity value
     Set TE and RE bits according to huart->Init.Mode value
     Set OVER8 bit according to huart->Init.OverSampling value */

  tmpreg = (uint32_t)huart->Init.WordLength | huart->Init.Parity | huart->Init.Mode | huart->Init.OverSampling;
 8007fd2:	f8d7 30f4 	ldr.w	r3, [r7, #244]	; 0xf4
 8007fd6:	689a      	ldr	r2, [r3, #8]
 8007fd8:	f8d7 30f4 	ldr.w	r3, [r7, #244]	; 0xf4
 8007fdc:	691b      	ldr	r3, [r3, #16]
 8007fde:	431a      	orrs	r2, r3
 8007fe0:	f8d7 30f4 	ldr.w	r3, [r7, #244]	; 0xf4
 8007fe4:	695b      	ldr	r3, [r3, #20]
 8007fe6:	431a      	orrs	r2, r3
 8007fe8:	f8d7 30f4 	ldr.w	r3, [r7, #244]	; 0xf4
 8007fec:	69db      	ldr	r3, [r3, #28]
 8007fee:	4313      	orrs	r3, r2
 8007ff0:	f8c7 30f8 	str.w	r3, [r7, #248]	; 0xf8
  MODIFY_REG(huart->Instance->CR1,
 8007ff4:	f8d7 30f4 	ldr.w	r3, [r7, #244]	; 0xf4
 8007ff8:	681b      	ldr	r3, [r3, #0]
 8007ffa:	68db      	ldr	r3, [r3, #12]
 8007ffc:	f423 4116 	bic.w	r1, r3, #38400	; 0x9600
 8008000:	f021 010c 	bic.w	r1, r1, #12
 8008004:	f8d7 30f4 	ldr.w	r3, [r7, #244]	; 0xf4
 8008008:	681a      	ldr	r2, [r3, #0]
 800800a:	f8d7 30f8 	ldr.w	r3, [r7, #248]	; 0xf8
 800800e:	430b      	orrs	r3, r1
 8008010:	60d3      	str	r3, [r2, #12]
             (uint32_t)(USART_CR1_M | USART_CR1_PCE | USART_CR1_PS | USART_CR1_TE | USART_CR1_RE | USART_CR1_OVER8),
             tmpreg);

  /*-------------------------- USART CR3 Configuration -----------------------*/
  /* Configure the UART HFC: Set CTSE and RTSE bits according to huart->Init.HwFlowCtl value */
  MODIFY_REG(huart->Instance->CR3, (USART_CR3_RTSE | USART_CR3_CTSE), huart->Init.HwFlowCtl);
 8008012:	f8d7 30f4 	ldr.w	r3, [r7, #244]	; 0xf4
 8008016:	681b      	ldr	r3, [r3, #0]
 8008018:	695b      	ldr	r3, [r3, #20]
 800801a:	f423 7040 	bic.w	r0, r3, #768	; 0x300
 800801e:	f8d7 30f4 	ldr.w	r3, [r7, #244]	; 0xf4
 8008022:	6999      	ldr	r1, [r3, #24]
 8008024:	f8d7 30f4 	ldr.w	r3, [r7, #244]	; 0xf4
 8008028:	681a      	ldr	r2, [r3, #0]
 800802a:	ea40 0301 	orr.w	r3, r0, r1
 800802e:	6153      	str	r3, [r2, #20]
    if ((huart->Instance == USART1) || (huart->Instance == USART6) || (huart->Instance == UART9) || (huart->Instance == UART10))
    {
      pclk = HAL_RCC_GetPCLK2Freq();
    }
#elif defined(USART6)
    if ((huart->Instance == USART1) || (huart->Instance == USART6))
 8008030:	f8d7 30f4 	ldr.w	r3, [r7, #244]	; 0xf4
 8008034:	681a      	ldr	r2, [r3, #0]
 8008036:	4b8f      	ldr	r3, [pc, #572]	; (8008274 <UART_SetConfig+0x2cc>)
 8008038:	429a      	cmp	r2, r3
 800803a:	d005      	beq.n	8008048 <UART_SetConfig+0xa0>
 800803c:	f8d7 30f4 	ldr.w	r3, [r7, #244]	; 0xf4
 8008040:	681a      	ldr	r2, [r3, #0]
 8008042:	4b8d      	ldr	r3, [pc, #564]	; (8008278 <UART_SetConfig+0x2d0>)
 8008044:	429a      	cmp	r2, r3
 8008046:	d104      	bne.n	8008052 <UART_SetConfig+0xaa>
    {
      pclk = HAL_RCC_GetPCLK2Freq();
 8008048:	f7fd fab0 	bl	80055ac <HAL_RCC_GetPCLK2Freq>
 800804c:	f8c7 00fc 	str.w	r0, [r7, #252]	; 0xfc
 8008050:	e003      	b.n	800805a <UART_SetConfig+0xb2>
      pclk = HAL_RCC_GetPCLK2Freq();
    }
#endif /* USART6 */
    else
    {
      pclk = HAL_RCC_GetPCLK1Freq();
 8008052:	f7fd fa97 	bl	8005584 <HAL_RCC_GetPCLK1Freq>
 8008056:	f8c7 00fc 	str.w	r0, [r7, #252]	; 0xfc
    }
  /*-------------------------- USART BRR Configuration ---------------------*/
  if (huart->Init.OverSampling == UART_OVERSAMPLING_8)
 800805a:	f8d7 30f4 	ldr.w	r3, [r7, #244]	; 0xf4
 800805e:	69db      	ldr	r3, [r3, #28]
 8008060:	f5b3 4f00 	cmp.w	r3, #32768	; 0x8000
 8008064:	f040 810c 	bne.w	8008280 <UART_SetConfig+0x2d8>
  {
    huart->Instance->BRR = UART_BRR_SAMPLING8(pclk, huart->Init.BaudRate);
 8008068:	f8d7 30fc 	ldr.w	r3, [r7, #252]	; 0xfc
 800806c:	2200      	movs	r2, #0
 800806e:	f8c7 30e8 	str.w	r3, [r7, #232]	; 0xe8
 8008072:	f8c7 20ec 	str.w	r2, [r7, #236]	; 0xec
 8008076:	e9d7 453a 	ldrd	r4, r5, [r7, #232]	; 0xe8
 800807a:	4622      	mov	r2, r4
 800807c:	462b      	mov	r3, r5
 800807e:	1891      	adds	r1, r2, r2
 8008080:	65b9      	str	r1, [r7, #88]	; 0x58
 8008082:	415b      	adcs	r3, r3
 8008084:	65fb      	str	r3, [r7, #92]	; 0x5c
 8008086:	e9d7 2316 	ldrd	r2, r3, [r7, #88]	; 0x58
 800808a:	4621      	mov	r1, r4
 800808c:	eb12 0801 	adds.w	r8, r2, r1
 8008090:	4629      	mov	r1, r5
 8008092:	eb43 0901 	adc.w	r9, r3, r1
 8008096:	f04f 0200 	mov.w	r2, #0
 800809a:	f04f 0300 	mov.w	r3, #0
 800809e:	ea4f 03c9 	mov.w	r3, r9, lsl #3
 80080a2:	ea43 7358 	orr.w	r3, r3, r8, lsr #29
 80080a6:	ea4f 02c8 	mov.w	r2, r8, lsl #3
 80080aa:	4690      	mov	r8, r2
 80080ac:	4699      	mov	r9, r3
 80080ae:	4623      	mov	r3, r4
 80080b0:	eb18 0303 	adds.w	r3, r8, r3
 80080b4:	f8c7 30e0 	str.w	r3, [r7, #224]	; 0xe0
 80080b8:	462b      	mov	r3, r5
 80080ba:	eb49 0303 	adc.w	r3, r9, r3
 80080be:	f8c7 30e4 	str.w	r3, [r7, #228]	; 0xe4
 80080c2:	f8d7 30f4 	ldr.w	r3, [r7, #244]	; 0xf4
 80080c6:	685b      	ldr	r3, [r3, #4]
 80080c8:	2200      	movs	r2, #0
 80080ca:	f8c7 30d8 	str.w	r3, [r7, #216]	; 0xd8
 80080ce:	f8c7 20dc 	str.w	r2, [r7, #220]	; 0xdc
 80080d2:	e9d7 1236 	ldrd	r1, r2, [r7, #216]	; 0xd8
 80080d6:	460b      	mov	r3, r1
 80080d8:	18db      	adds	r3, r3, r3
 80080da:	653b      	str	r3, [r7, #80]	; 0x50
 80080dc:	4613      	mov	r3, r2
 80080de:	eb42 0303 	adc.w	r3, r2, r3
 80080e2:	657b      	str	r3, [r7, #84]	; 0x54
 80080e4:	e9d7 2314 	ldrd	r2, r3, [r7, #80]	; 0x50
 80080e8:	e9d7 0138 	ldrd	r0, r1, [r7, #224]	; 0xe0
 80080ec:	f7f8 f886 	bl	80001fc <__aeabi_uldivmod>
 80080f0:	4602      	mov	r2, r0
 80080f2:	460b      	mov	r3, r1
 80080f4:	4b61      	ldr	r3, [pc, #388]	; (800827c <UART_SetConfig+0x2d4>)
 80080f6:	fba3 2302 	umull	r2, r3, r3, r2
 80080fa:	095b      	lsrs	r3, r3, #5
 80080fc:	011c      	lsls	r4, r3, #4
 80080fe:	f8d7 30fc 	ldr.w	r3, [r7, #252]	; 0xfc
 8008102:	2200      	movs	r2, #0
 8008104:	f8c7 30d0 	str.w	r3, [r7, #208]	; 0xd0
 8008108:	f8c7 20d4 	str.w	r2, [r7, #212]	; 0xd4
 800810c:	e9d7 8934 	ldrd	r8, r9, [r7, #208]	; 0xd0
 8008110:	4642      	mov	r2, r8
 8008112:	464b      	mov	r3, r9
 8008114:	1891      	adds	r1, r2, r2
 8008116:	64b9      	str	r1, [r7, #72]	; 0x48
 8008118:	415b      	adcs	r3, r3
 800811a:	64fb      	str	r3, [r7, #76]	; 0x4c
 800811c:	e9d7 2312 	ldrd	r2, r3, [r7, #72]	; 0x48
 8008120:	4641      	mov	r1, r8
 8008122:	eb12 0a01 	adds.w	sl, r2, r1
 8008126:	4649      	mov	r1, r9
 8008128:	eb43 0b01 	adc.w	fp, r3, r1
 800812c:	f04f 0200 	mov.w	r2, #0
 8008130:	f04f 0300 	mov.w	r3, #0
 8008134:	ea4f 03cb 	mov.w	r3, fp, lsl #3
 8008138:	ea43 735a 	orr.w	r3, r3, sl, lsr #29
 800813c:	ea4f 02ca 	mov.w	r2, sl, lsl #3
 8008140:	4692      	mov	sl, r2
 8008142:	469b      	mov	fp, r3
 8008144:	4643      	mov	r3, r8
 8008146:	eb1a 0303 	adds.w	r3, sl, r3
 800814a:	f8c7 30c8 	str.w	r3, [r7, #200]	; 0xc8
 800814e:	464b      	mov	r3, r9
 8008150:	eb4b 0303 	adc.w	r3, fp, r3
 8008154:	f8c7 30cc 	str.w	r3, [r7, #204]	; 0xcc
 8008158:	f8d7 30f4 	ldr.w	r3, [r7, #244]	; 0xf4
 800815c:	685b      	ldr	r3, [r3, #4]
 800815e:	2200      	movs	r2, #0
 8008160:	f8c7 30c0 	str.w	r3, [r7, #192]	; 0xc0
 8008164:	f8c7 20c4 	str.w	r2, [r7, #196]	; 0xc4
 8008168:	e9d7 1230 	ldrd	r1, r2, [r7, #192]	; 0xc0
 800816c:	460b      	mov	r3, r1
 800816e:	18db      	adds	r3, r3, r3
 8008170:	643b      	str	r3, [r7, #64]	; 0x40
 8008172:	4613      	mov	r3, r2
 8008174:	eb42 0303 	adc.w	r3, r2, r3
 8008178:	647b      	str	r3, [r7, #68]	; 0x44
 800817a:	e9d7 2310 	ldrd	r2, r3, [r7, #64]	; 0x40
 800817e:	e9d7 0132 	ldrd	r0, r1, [r7, #200]	; 0xc8
 8008182:	f7f8 f83b 	bl	80001fc <__aeabi_uldivmod>
 8008186:	4602      	mov	r2, r0
 8008188:	460b      	mov	r3, r1
 800818a:	4611      	mov	r1, r2
 800818c:	4b3b      	ldr	r3, [pc, #236]	; (800827c <UART_SetConfig+0x2d4>)
 800818e:	fba3 2301 	umull	r2, r3, r3, r1
 8008192:	095b      	lsrs	r3, r3, #5
 8008194:	2264      	movs	r2, #100	; 0x64
 8008196:	fb02 f303 	mul.w	r3, r2, r3
 800819a:	1acb      	subs	r3, r1, r3
 800819c:	00db      	lsls	r3, r3, #3
 800819e:	f103 0232 	add.w	r2, r3, #50	; 0x32
 80081a2:	4b36      	ldr	r3, [pc, #216]	; (800827c <UART_SetConfig+0x2d4>)
 80081a4:	fba3 2302 	umull	r2, r3, r3, r2
 80081a8:	095b      	lsrs	r3, r3, #5
 80081aa:	005b      	lsls	r3, r3, #1
 80081ac:	f403 73f8 	and.w	r3, r3, #496	; 0x1f0
 80081b0:	441c      	add	r4, r3
 80081b2:	f8d7 30fc 	ldr.w	r3, [r7, #252]	; 0xfc
 80081b6:	2200      	movs	r2, #0
 80081b8:	f8c7 30b8 	str.w	r3, [r7, #184]	; 0xb8
 80081bc:	f8c7 20bc 	str.w	r2, [r7, #188]	; 0xbc
 80081c0:	e9d7 892e 	ldrd	r8, r9, [r7, #184]	; 0xb8
 80081c4:	4642      	mov	r2, r8
 80081c6:	464b      	mov	r3, r9
 80081c8:	1891      	adds	r1, r2, r2
 80081ca:	63b9      	str	r1, [r7, #56]	; 0x38
 80081cc:	415b      	adcs	r3, r3
 80081ce:	63fb      	str	r3, [r7, #60]	; 0x3c
 80081d0:	e9d7 230e 	ldrd	r2, r3, [r7, #56]	; 0x38
 80081d4:	4641      	mov	r1, r8
 80081d6:	1851      	adds	r1, r2, r1
 80081d8:	6339      	str	r1, [r7, #48]	; 0x30
 80081da:	4649      	mov	r1, r9
 80081dc:	414b      	adcs	r3, r1
 80081de:	637b      	str	r3, [r7, #52]	; 0x34
 80081e0:	f04f 0200 	mov.w	r2, #0
 80081e4:	f04f 0300 	mov.w	r3, #0
 80081e8:	e9d7 ab0c 	ldrd	sl, fp, [r7, #48]	; 0x30
 80081ec:	4659      	mov	r1, fp
 80081ee:	00cb      	lsls	r3, r1, #3
 80081f0:	4651      	mov	r1, sl
 80081f2:	ea43 7351 	orr.w	r3, r3, r1, lsr #29
 80081f6:	4651      	mov	r1, sl
 80081f8:	00ca      	lsls	r2, r1, #3
 80081fa:	4610      	mov	r0, r2
 80081fc:	4619      	mov	r1, r3
 80081fe:	4603      	mov	r3, r0
 8008200:	4642      	mov	r2, r8
 8008202:	189b      	adds	r3, r3, r2
 8008204:	f8c7 30b0 	str.w	r3, [r7, #176]	; 0xb0
 8008208:	464b      	mov	r3, r9
 800820a:	460a      	mov	r2, r1
 800820c:	eb42 0303 	adc.w	r3, r2, r3
 8008210:	f8c7 30b4 	str.w	r3, [r7, #180]	; 0xb4
 8008214:	f8d7 30f4 	ldr.w	r3, [r7, #244]	; 0xf4
 8008218:	685b      	ldr	r3, [r3, #4]
 800821a:	2200      	movs	r2, #0
 800821c:	f8c7 30a8 	str.w	r3, [r7, #168]	; 0xa8
 8008220:	f8c7 20ac 	str.w	r2, [r7, #172]	; 0xac
 8008224:	e9d7 122a 	ldrd	r1, r2, [r7, #168]	; 0xa8
 8008228:	460b      	mov	r3, r1
 800822a:	18db      	adds	r3, r3, r3
 800822c:	62bb      	str	r3, [r7, #40]	; 0x28
 800822e:	4613      	mov	r3, r2
 8008230:	eb42 0303 	adc.w	r3, r2, r3
 8008234:	62fb      	str	r3, [r7, #44]	; 0x2c
 8008236:	e9d7 230a 	ldrd	r2, r3, [r7, #40]	; 0x28
 800823a:	e9d7 012c 	ldrd	r0, r1, [r7, #176]	; 0xb0
 800823e:	f7f7 ffdd 	bl	80001fc <__aeabi_uldivmod>
 8008242:	4602      	mov	r2, r0
 8008244:	460b      	mov	r3, r1
 8008246:	4b0d      	ldr	r3, [pc, #52]	; (800827c <UART_SetConfig+0x2d4>)
 8008248:	fba3 1302 	umull	r1, r3, r3, r2
 800824c:	095b      	lsrs	r3, r3, #5
 800824e:	2164      	movs	r1, #100	; 0x64
 8008250:	fb01 f303 	mul.w	r3, r1, r3
 8008254:	1ad3      	subs	r3, r2, r3
 8008256:	00db      	lsls	r3, r3, #3
 8008258:	3332      	adds	r3, #50	; 0x32
 800825a:	4a08      	ldr	r2, [pc, #32]	; (800827c <UART_SetConfig+0x2d4>)
 800825c:	fba2 2303 	umull	r2, r3, r2, r3
 8008260:	095b      	lsrs	r3, r3, #5
 8008262:	f003 0207 	and.w	r2, r3, #7
 8008266:	f8d7 30f4 	ldr.w	r3, [r7, #244]	; 0xf4
 800826a:	681b      	ldr	r3, [r3, #0]
 800826c:	4422      	add	r2, r4
 800826e:	609a      	str	r2, [r3, #8]
  }
  else
  {
    huart->Instance->BRR = UART_BRR_SAMPLING16(pclk, huart->Init.BaudRate);
  }
}
 8008270:	e106      	b.n	8008480 <UART_SetConfig+0x4d8>
 8008272:	bf00      	nop
 8008274:	40011000 	.word	0x40011000
 8008278:	40011400 	.word	0x40011400
 800827c:	51eb851f 	.word	0x51eb851f
    huart->Instance->BRR = UART_BRR_SAMPLING16(pclk, huart->Init.BaudRate);
 8008280:	f8d7 30fc 	ldr.w	r3, [r7, #252]	; 0xfc
 8008284:	2200      	movs	r2, #0
 8008286:	f8c7 30a0 	str.w	r3, [r7, #160]	; 0xa0
 800828a:	f8c7 20a4 	str.w	r2, [r7, #164]	; 0xa4
 800828e:	e9d7 8928 	ldrd	r8, r9, [r7, #160]	; 0xa0
 8008292:	4642      	mov	r2, r8
 8008294:	464b      	mov	r3, r9
 8008296:	1891      	adds	r1, r2, r2
 8008298:	6239      	str	r1, [r7, #32]
 800829a:	415b      	adcs	r3, r3
 800829c:	627b      	str	r3, [r7, #36]	; 0x24
 800829e:	e9d7 2308 	ldrd	r2, r3, [r7, #32]
 80082a2:	4641      	mov	r1, r8
 80082a4:	1854      	adds	r4, r2, r1
 80082a6:	4649      	mov	r1, r9
 80082a8:	eb43 0501 	adc.w	r5, r3, r1
 80082ac:	f04f 0200 	mov.w	r2, #0
 80082b0:	f04f 0300 	mov.w	r3, #0
 80082b4:	00eb      	lsls	r3, r5, #3
 80082b6:	ea43 7354 	orr.w	r3, r3, r4, lsr #29
 80082ba:	00e2      	lsls	r2, r4, #3
 80082bc:	4614      	mov	r4, r2
 80082be:	461d      	mov	r5, r3
 80082c0:	4643      	mov	r3, r8
 80082c2:	18e3      	adds	r3, r4, r3
 80082c4:	f8c7 3098 	str.w	r3, [r7, #152]	; 0x98
 80082c8:	464b      	mov	r3, r9
 80082ca:	eb45 0303 	adc.w	r3, r5, r3
 80082ce:	f8c7 309c 	str.w	r3, [r7, #156]	; 0x9c
 80082d2:	f8d7 30f4 	ldr.w	r3, [r7, #244]	; 0xf4
 80082d6:	685b      	ldr	r3, [r3, #4]
 80082d8:	2200      	movs	r2, #0
 80082da:	f8c7 3090 	str.w	r3, [r7, #144]	; 0x90
 80082de:	f8c7 2094 	str.w	r2, [r7, #148]	; 0x94
 80082e2:	f04f 0200 	mov.w	r2, #0
 80082e6:	f04f 0300 	mov.w	r3, #0
 80082ea:	e9d7 4524 	ldrd	r4, r5, [r7, #144]	; 0x90
 80082ee:	4629      	mov	r1, r5
 80082f0:	008b      	lsls	r3, r1, #2
 80082f2:	4621      	mov	r1, r4
 80082f4:	ea43 7391 	orr.w	r3, r3, r1, lsr #30
 80082f8:	4621      	mov	r1, r4
 80082fa:	008a      	lsls	r2, r1, #2
 80082fc:	e9d7 0126 	ldrd	r0, r1, [r7, #152]	; 0x98
 8008300:	f7f7 ff7c 	bl	80001fc <__aeabi_uldivmod>
 8008304:	4602      	mov	r2, r0
 8008306:	460b      	mov	r3, r1
 8008308:	4b60      	ldr	r3, [pc, #384]	; (800848c <UART_SetConfig+0x4e4>)
 800830a:	fba3 2302 	umull	r2, r3, r3, r2
 800830e:	095b      	lsrs	r3, r3, #5
 8008310:	011c      	lsls	r4, r3, #4
 8008312:	f8d7 30fc 	ldr.w	r3, [r7, #252]	; 0xfc
 8008316:	2200      	movs	r2, #0
 8008318:	f8c7 3088 	str.w	r3, [r7, #136]	; 0x88
 800831c:	f8c7 208c 	str.w	r2, [r7, #140]	; 0x8c
 8008320:	e9d7 8922 	ldrd	r8, r9, [r7, #136]	; 0x88
 8008324:	4642      	mov	r2, r8
 8008326:	464b      	mov	r3, r9
 8008328:	1891      	adds	r1, r2, r2
 800832a:	61b9      	str	r1, [r7, #24]
 800832c:	415b      	adcs	r3, r3
 800832e:	61fb      	str	r3, [r7, #28]
 8008330:	e9d7 2306 	ldrd	r2, r3, [r7, #24]
 8008334:	4641      	mov	r1, r8
 8008336:	1851      	adds	r1, r2, r1
 8008338:	6139      	str	r1, [r7, #16]
 800833a:	4649      	mov	r1, r9
 800833c:	414b      	adcs	r3, r1
 800833e:	617b      	str	r3, [r7, #20]
 8008340:	f04f 0200 	mov.w	r2, #0
 8008344:	f04f 0300 	mov.w	r3, #0
 8008348:	e9d7 ab04 	ldrd	sl, fp, [r7, #16]
 800834c:	4659      	mov	r1, fp
 800834e:	00cb      	lsls	r3, r1, #3
 8008350:	4651      	mov	r1, sl
 8008352:	ea43 7351 	orr.w	r3, r3, r1, lsr #29
 8008356:	4651      	mov	r1, sl
 8008358:	00ca      	lsls	r2, r1, #3
 800835a:	4610      	mov	r0, r2
 800835c:	4619      	mov	r1, r3
 800835e:	4603      	mov	r3, r0
 8008360:	4642      	mov	r2, r8
 8008362:	189b      	adds	r3, r3, r2
 8008364:	f8c7 3080 	str.w	r3, [r7, #128]	; 0x80
 8008368:	464b      	mov	r3, r9
 800836a:	460a      	mov	r2, r1
 800836c:	eb42 0303 	adc.w	r3, r2, r3
 8008370:	f8c7 3084 	str.w	r3, [r7, #132]	; 0x84
 8008374:	f8d7 30f4 	ldr.w	r3, [r7, #244]	; 0xf4
 8008378:	685b      	ldr	r3, [r3, #4]
 800837a:	2200      	movs	r2, #0
 800837c:	67bb      	str	r3, [r7, #120]	; 0x78
 800837e:	67fa      	str	r2, [r7, #124]	; 0x7c
 8008380:	f04f 0200 	mov.w	r2, #0
 8008384:	f04f 0300 	mov.w	r3, #0
 8008388:	e9d7 891e 	ldrd	r8, r9, [r7, #120]	; 0x78
 800838c:	4649      	mov	r1, r9
 800838e:	008b      	lsls	r3, r1, #2
 8008390:	4641      	mov	r1, r8
 8008392:	ea43 7391 	orr.w	r3, r3, r1, lsr #30
 8008396:	4641      	mov	r1, r8
 8008398:	008a      	lsls	r2, r1, #2
 800839a:	e9d7 0120 	ldrd	r0, r1, [r7, #128]	; 0x80
 800839e:	f7f7 ff2d 	bl	80001fc <__aeabi_uldivmod>
 80083a2:	4602      	mov	r2, r0
 80083a4:	460b      	mov	r3, r1
 80083a6:	4611      	mov	r1, r2
 80083a8:	4b38      	ldr	r3, [pc, #224]	; (800848c <UART_SetConfig+0x4e4>)
 80083aa:	fba3 2301 	umull	r2, r3, r3, r1
 80083ae:	095b      	lsrs	r3, r3, #5
 80083b0:	2264      	movs	r2, #100	; 0x64
 80083b2:	fb02 f303 	mul.w	r3, r2, r3
 80083b6:	1acb      	subs	r3, r1, r3
 80083b8:	011b      	lsls	r3, r3, #4
 80083ba:	3332      	adds	r3, #50	; 0x32
 80083bc:	4a33      	ldr	r2, [pc, #204]	; (800848c <UART_SetConfig+0x4e4>)
 80083be:	fba2 2303 	umull	r2, r3, r2, r3
 80083c2:	095b      	lsrs	r3, r3, #5
 80083c4:	f003 03f0 	and.w	r3, r3, #240	; 0xf0
 80083c8:	441c      	add	r4, r3
 80083ca:	f8d7 30fc 	ldr.w	r3, [r7, #252]	; 0xfc
 80083ce:	2200      	movs	r2, #0
 80083d0:	673b      	str	r3, [r7, #112]	; 0x70
 80083d2:	677a      	str	r2, [r7, #116]	; 0x74
 80083d4:	e9d7 891c 	ldrd	r8, r9, [r7, #112]	; 0x70
 80083d8:	4642      	mov	r2, r8
 80083da:	464b      	mov	r3, r9
 80083dc:	1891      	adds	r1, r2, r2
 80083de:	60b9      	str	r1, [r7, #8]
 80083e0:	415b      	adcs	r3, r3
 80083e2:	60fb      	str	r3, [r7, #12]
 80083e4:	e9d7 2302 	ldrd	r2, r3, [r7, #8]
 80083e8:	4641      	mov	r1, r8
 80083ea:	1851      	adds	r1, r2, r1
 80083ec:	6039      	str	r1, [r7, #0]
 80083ee:	4649      	mov	r1, r9
 80083f0:	414b      	adcs	r3, r1
 80083f2:	607b      	str	r3, [r7, #4]
 80083f4:	f04f 0200 	mov.w	r2, #0
 80083f8:	f04f 0300 	mov.w	r3, #0
 80083fc:	e9d7 ab00 	ldrd	sl, fp, [r7]
 8008400:	4659      	mov	r1, fp
 8008402:	00cb      	lsls	r3, r1, #3
 8008404:	4651      	mov	r1, sl
 8008406:	ea43 7351 	orr.w	r3, r3, r1, lsr #29
 800840a:	4651      	mov	r1, sl
 800840c:	00ca      	lsls	r2, r1, #3
 800840e:	4610      	mov	r0, r2
 8008410:	4619      	mov	r1, r3
 8008412:	4603      	mov	r3, r0
 8008414:	4642      	mov	r2, r8
 8008416:	189b      	adds	r3, r3, r2
 8008418:	66bb      	str	r3, [r7, #104]	; 0x68
 800841a:	464b      	mov	r3, r9
 800841c:	460a      	mov	r2, r1
 800841e:	eb42 0303 	adc.w	r3, r2, r3
 8008422:	66fb      	str	r3, [r7, #108]	; 0x6c
 8008424:	f8d7 30f4 	ldr.w	r3, [r7, #244]	; 0xf4
 8008428:	685b      	ldr	r3, [r3, #4]
 800842a:	2200      	movs	r2, #0
 800842c:	663b      	str	r3, [r7, #96]	; 0x60
 800842e:	667a      	str	r2, [r7, #100]	; 0x64
 8008430:	f04f 0200 	mov.w	r2, #0
 8008434:	f04f 0300 	mov.w	r3, #0
 8008438:	e9d7 8918 	ldrd	r8, r9, [r7, #96]	; 0x60
 800843c:	4649      	mov	r1, r9
 800843e:	008b      	lsls	r3, r1, #2
 8008440:	4641      	mov	r1, r8
 8008442:	ea43 7391 	orr.w	r3, r3, r1, lsr #30
 8008446:	4641      	mov	r1, r8
 8008448:	008a      	lsls	r2, r1, #2
 800844a:	e9d7 011a 	ldrd	r0, r1, [r7, #104]	; 0x68
 800844e:	f7f7 fed5 	bl	80001fc <__aeabi_uldivmod>
 8008452:	4602      	mov	r2, r0
 8008454:	460b      	mov	r3, r1
 8008456:	4b0d      	ldr	r3, [pc, #52]	; (800848c <UART_SetConfig+0x4e4>)
 8008458:	fba3 1302 	umull	r1, r3, r3, r2
 800845c:	095b      	lsrs	r3, r3, #5
 800845e:	2164      	movs	r1, #100	; 0x64
 8008460:	fb01 f303 	mul.w	r3, r1, r3
 8008464:	1ad3      	subs	r3, r2, r3
 8008466:	011b      	lsls	r3, r3, #4
 8008468:	3332      	adds	r3, #50	; 0x32
 800846a:	4a08      	ldr	r2, [pc, #32]	; (800848c <UART_SetConfig+0x4e4>)
 800846c:	fba2 2303 	umull	r2, r3, r2, r3
 8008470:	095b      	lsrs	r3, r3, #5
 8008472:	f003 020f 	and.w	r2, r3, #15
 8008476:	f8d7 30f4 	ldr.w	r3, [r7, #244]	; 0xf4
 800847a:	681b      	ldr	r3, [r3, #0]
 800847c:	4422      	add	r2, r4
 800847e:	609a      	str	r2, [r3, #8]
}
 8008480:	bf00      	nop
 8008482:	f507 7780 	add.w	r7, r7, #256	; 0x100
 8008486:	46bd      	mov	sp, r7
 8008488:	e8bd 8fb0 	ldmia.w	sp!, {r4, r5, r7, r8, r9, sl, fp, pc}
 800848c:	51eb851f 	.word	0x51eb851f

08008490 <memset>:
 8008490:	4402      	add	r2, r0
 8008492:	4603      	mov	r3, r0
 8008494:	4293      	cmp	r3, r2
 8008496:	d100      	bne.n	800849a <memset+0xa>
 8008498:	4770      	bx	lr
 800849a:	f803 1b01 	strb.w	r1, [r3], #1
 800849e:	e7f9      	b.n	8008494 <memset+0x4>

080084a0 <__libc_init_array>:
 80084a0:	b570      	push	{r4, r5, r6, lr}
 80084a2:	4d0d      	ldr	r5, [pc, #52]	; (80084d8 <__libc_init_array+0x38>)
 80084a4:	4c0d      	ldr	r4, [pc, #52]	; (80084dc <__libc_init_array+0x3c>)
 80084a6:	1b64      	subs	r4, r4, r5
 80084a8:	10a4      	asrs	r4, r4, #2
 80084aa:	2600      	movs	r6, #0
 80084ac:	42a6      	cmp	r6, r4
 80084ae:	d109      	bne.n	80084c4 <__libc_init_array+0x24>
 80084b0:	4d0b      	ldr	r5, [pc, #44]	; (80084e0 <__libc_init_array+0x40>)
 80084b2:	4c0c      	ldr	r4, [pc, #48]	; (80084e4 <__libc_init_array+0x44>)
 80084b4:	f000 f818 	bl	80084e8 <_init>
 80084b8:	1b64      	subs	r4, r4, r5
 80084ba:	10a4      	asrs	r4, r4, #2
 80084bc:	2600      	movs	r6, #0
 80084be:	42a6      	cmp	r6, r4
 80084c0:	d105      	bne.n	80084ce <__libc_init_array+0x2e>
 80084c2:	bd70      	pop	{r4, r5, r6, pc}
 80084c4:	f855 3b04 	ldr.w	r3, [r5], #4
 80084c8:	4798      	blx	r3
 80084ca:	3601      	adds	r6, #1
 80084cc:	e7ee      	b.n	80084ac <__libc_init_array+0xc>
 80084ce:	f855 3b04 	ldr.w	r3, [r5], #4
 80084d2:	4798      	blx	r3
 80084d4:	3601      	adds	r6, #1
 80084d6:	e7f2      	b.n	80084be <__libc_init_array+0x1e>
 80084d8:	080085c0 	.word	0x080085c0
 80084dc:	080085c0 	.word	0x080085c0
 80084e0:	080085c0 	.word	0x080085c0
 80084e4:	080085c4 	.word	0x080085c4

080084e8 <_init>:
 80084e8:	b5f8      	push	{r3, r4, r5, r6, r7, lr}
 80084ea:	bf00      	nop
 80084ec:	bcf8      	pop	{r3, r4, r5, r6, r7}
 80084ee:	bc08      	pop	{r3}
 80084f0:	469e      	mov	lr, r3
 80084f2:	4770      	bx	lr

080084f4 <_fini>:
 80084f4:	b5f8      	push	{r3, r4, r5, r6, r7, lr}
 80084f6:	bf00      	nop
 80084f8:	bcf8      	pop	{r3, r4, r5, r6, r7}
 80084fa:	bc08      	pop	{r3}
 80084fc:	469e      	mov	lr, r3
 80084fe:	4770      	bx	lr
