
AuroraV_Payload_F439.elf:     file format elf32-littlearm

Sections:
Idx Name          Size      VMA       LMA       File off  Algn
  0 .isr_vector   000001ac  08000000  08000000  00010000  2**0
                  CONTENTS, ALLOC, LOAD, READONLY, DATA
  1 .text         00006d10  080001ac  080001ac  000101ac  2**2
                  CONTENTS, ALLOC, LOAD, READONLY, CODE
  2 .rodata       000000b8  08006ebc  08006ebc  00016ebc  2**2
                  CONTENTS, ALLOC, LOAD, READONLY, DATA
  3 .ARM.extab    00000000  08006f74  08006f74  00020024  2**0
                  CONTENTS
  4 .ARM          00000008  08006f74  08006f74  00016f74  2**2
                  CONTENTS, ALLOC, LOAD, READONLY, DATA
  5 .preinit_array 00000000  08006f7c  08006f7c  00020024  2**0
                  CONTENTS, ALLOC, LOAD, DATA
  6 .init_array   00000004  08006f7c  08006f7c  00016f7c  2**2
                  CONTENTS, ALLOC, LOAD, DATA
  7 .fini_array   00000004  08006f80  08006f80  00016f80  2**2
                  CONTENTS, ALLOC, LOAD, DATA
  8 .data         00000024  20000000  08006f84  00020000  2**2
                  CONTENTS, ALLOC, LOAD, DATA
  9 .ccmram       00000000  10000000  10000000  00020024  2**0
                  CONTENTS
 10 .bss          00000308  20000024  20000024  00020024  2**2
                  ALLOC
 11 ._user_heap_stack 00000604  2000032c  2000032c  00020024  2**0
                  ALLOC
 12 .ARM.attributes 00000030  00000000  00000000  00020024  2**0
                  CONTENTS, READONLY
 13 .comment      00000043  00000000  00000000  00020054  2**0
                  CONTENTS, READONLY
 14 .debug_info   00019bd5  00000000  00000000  00020097  2**0
                  CONTENTS, READONLY, DEBUGGING, OCTETS
 15 .debug_abbrev 00003898  00000000  00000000  00039c6c  2**0
                  CONTENTS, READONLY, DEBUGGING, OCTETS
 16 .debug_aranges 000014b8  00000000  00000000  0003d508  2**3
                  CONTENTS, READONLY, DEBUGGING, OCTETS
 17 .debug_rnglists 0000102a  00000000  00000000  0003e9c0  2**0
                  CONTENTS, READONLY, DEBUGGING, OCTETS
 18 .debug_macro  0002765d  00000000  00000000  0003f9ea  2**0
                  CONTENTS, READONLY, DEBUGGING, OCTETS
 19 .debug_line   0001b4c5  00000000  00000000  00067047  2**0
                  CONTENTS, READONLY, DEBUGGING, OCTETS
 20 .debug_str    000e70c9  00000000  00000000  0008250c  2**0
                  CONTENTS, READONLY, DEBUGGING, OCTETS
 21 .debug_frame  00005630  00000000  00000000  001695d8  2**2
                  CONTENTS, READONLY, DEBUGGING, OCTETS
 22 .debug_line_str 00000060  00000000  00000000  0016ec08  2**0
                  CONTENTS, READONLY, DEBUGGING, OCTETS

Disassembly of section .text:

080001ac <__do_global_dtors_aux>:
 80001ac:	b510      	push	{r4, lr}
 80001ae:	4c05      	ldr	r4, [pc, #20]	; (80001c4 <__do_global_dtors_aux+0x18>)
 80001b0:	7823      	ldrb	r3, [r4, #0]
 80001b2:	b933      	cbnz	r3, 80001c2 <__do_global_dtors_aux+0x16>
 80001b4:	4b04      	ldr	r3, [pc, #16]	; (80001c8 <__do_global_dtors_aux+0x1c>)
 80001b6:	b113      	cbz	r3, 80001be <__do_global_dtors_aux+0x12>
 80001b8:	4804      	ldr	r0, [pc, #16]	; (80001cc <__do_global_dtors_aux+0x20>)
 80001ba:	f3af 8000 	nop.w
 80001be:	2301      	movs	r3, #1
 80001c0:	7023      	strb	r3, [r4, #0]
 80001c2:	bd10      	pop	{r4, pc}
 80001c4:	20000024 	.word	0x20000024
 80001c8:	00000000 	.word	0x00000000
 80001cc:	08006ea4 	.word	0x08006ea4

080001d0 <frame_dummy>:
 80001d0:	b508      	push	{r3, lr}
 80001d2:	4b03      	ldr	r3, [pc, #12]	; (80001e0 <frame_dummy+0x10>)
 80001d4:	b11b      	cbz	r3, 80001de <frame_dummy+0xe>
 80001d6:	4903      	ldr	r1, [pc, #12]	; (80001e4 <frame_dummy+0x14>)
 80001d8:	4803      	ldr	r0, [pc, #12]	; (80001e8 <frame_dummy+0x18>)
 80001da:	f3af 8000 	nop.w
 80001de:	bd08      	pop	{r3, pc}
 80001e0:	00000000 	.word	0x00000000
 80001e4:	20000028 	.word	0x20000028
 80001e8:	08006ea4 	.word	0x08006ea4

080001ec <strlen>:
 80001ec:	4603      	mov	r3, r0
 80001ee:	f813 2b01 	ldrb.w	r2, [r3], #1
 80001f2:	2a00      	cmp	r2, #0
 80001f4:	d1fb      	bne.n	80001ee <strlen+0x2>
 80001f6:	1a18      	subs	r0, r3, r0
 80001f8:	3801      	subs	r0, #1
 80001fa:	4770      	bx	lr

080001fc <__aeabi_uldivmod>:
 80001fc:	b953      	cbnz	r3, 8000214 <__aeabi_uldivmod+0x18>
 80001fe:	b94a      	cbnz	r2, 8000214 <__aeabi_uldivmod+0x18>
 8000200:	2900      	cmp	r1, #0
 8000202:	bf08      	it	eq
 8000204:	2800      	cmpeq	r0, #0
 8000206:	bf1c      	itt	ne
 8000208:	f04f 31ff 	movne.w	r1, #4294967295	; 0xffffffff
 800020c:	f04f 30ff 	movne.w	r0, #4294967295	; 0xffffffff
 8000210:	f000 b970 	b.w	80004f4 <__aeabi_idiv0>
 8000214:	f1ad 0c08 	sub.w	ip, sp, #8
 8000218:	e96d ce04 	strd	ip, lr, [sp, #-16]!
 800021c:	f000 f806 	bl	800022c <__udivmoddi4>
 8000220:	f8dd e004 	ldr.w	lr, [sp, #4]
 8000224:	e9dd 2302 	ldrd	r2, r3, [sp, #8]
 8000228:	b004      	add	sp, #16
 800022a:	4770      	bx	lr

0800022c <__udivmoddi4>:
 800022c:	e92d 47f0 	stmdb	sp!, {r4, r5, r6, r7, r8, r9, sl, lr}
 8000230:	9e08      	ldr	r6, [sp, #32]
 8000232:	460d      	mov	r5, r1
 8000234:	4604      	mov	r4, r0
 8000236:	460f      	mov	r7, r1
 8000238:	2b00      	cmp	r3, #0
 800023a:	d14a      	bne.n	80002d2 <__udivmoddi4+0xa6>
 800023c:	428a      	cmp	r2, r1
 800023e:	4694      	mov	ip, r2
 8000240:	d965      	bls.n	800030e <__udivmoddi4+0xe2>
 8000242:	fab2 f382 	clz	r3, r2
 8000246:	b143      	cbz	r3, 800025a <__udivmoddi4+0x2e>
 8000248:	fa02 fc03 	lsl.w	ip, r2, r3
 800024c:	f1c3 0220 	rsb	r2, r3, #32
 8000250:	409f      	lsls	r7, r3
 8000252:	fa20 f202 	lsr.w	r2, r0, r2
 8000256:	4317      	orrs	r7, r2
 8000258:	409c      	lsls	r4, r3
 800025a:	ea4f 4e1c 	mov.w	lr, ip, lsr #16
 800025e:	fa1f f58c 	uxth.w	r5, ip
 8000262:	fbb7 f1fe 	udiv	r1, r7, lr
 8000266:	0c22      	lsrs	r2, r4, #16
 8000268:	fb0e 7711 	mls	r7, lr, r1, r7
 800026c:	ea42 4207 	orr.w	r2, r2, r7, lsl #16
 8000270:	fb01 f005 	mul.w	r0, r1, r5
 8000274:	4290      	cmp	r0, r2
 8000276:	d90a      	bls.n	800028e <__udivmoddi4+0x62>
 8000278:	eb1c 0202 	adds.w	r2, ip, r2
 800027c:	f101 37ff 	add.w	r7, r1, #4294967295	; 0xffffffff
 8000280:	f080 811c 	bcs.w	80004bc <__udivmoddi4+0x290>
 8000284:	4290      	cmp	r0, r2
 8000286:	f240 8119 	bls.w	80004bc <__udivmoddi4+0x290>
 800028a:	3902      	subs	r1, #2
 800028c:	4462      	add	r2, ip
 800028e:	1a12      	subs	r2, r2, r0
 8000290:	b2a4      	uxth	r4, r4
 8000292:	fbb2 f0fe 	udiv	r0, r2, lr
 8000296:	fb0e 2210 	mls	r2, lr, r0, r2
 800029a:	ea44 4402 	orr.w	r4, r4, r2, lsl #16
 800029e:	fb00 f505 	mul.w	r5, r0, r5
 80002a2:	42a5      	cmp	r5, r4
 80002a4:	d90a      	bls.n	80002bc <__udivmoddi4+0x90>
 80002a6:	eb1c 0404 	adds.w	r4, ip, r4
 80002aa:	f100 32ff 	add.w	r2, r0, #4294967295	; 0xffffffff
 80002ae:	f080 8107 	bcs.w	80004c0 <__udivmoddi4+0x294>
 80002b2:	42a5      	cmp	r5, r4
 80002b4:	f240 8104 	bls.w	80004c0 <__udivmoddi4+0x294>
 80002b8:	4464      	add	r4, ip
 80002ba:	3802      	subs	r0, #2
 80002bc:	ea40 4001 	orr.w	r0, r0, r1, lsl #16
 80002c0:	1b64      	subs	r4, r4, r5
 80002c2:	2100      	movs	r1, #0
 80002c4:	b11e      	cbz	r6, 80002ce <__udivmoddi4+0xa2>
 80002c6:	40dc      	lsrs	r4, r3
 80002c8:	2300      	movs	r3, #0
 80002ca:	e9c6 4300 	strd	r4, r3, [r6]
 80002ce:	e8bd 87f0 	ldmia.w	sp!, {r4, r5, r6, r7, r8, r9, sl, pc}
 80002d2:	428b      	cmp	r3, r1
 80002d4:	d908      	bls.n	80002e8 <__udivmoddi4+0xbc>
 80002d6:	2e00      	cmp	r6, #0
 80002d8:	f000 80ed 	beq.w	80004b6 <__udivmoddi4+0x28a>
 80002dc:	2100      	movs	r1, #0
 80002de:	e9c6 0500 	strd	r0, r5, [r6]
 80002e2:	4608      	mov	r0, r1
 80002e4:	e8bd 87f0 	ldmia.w	sp!, {r4, r5, r6, r7, r8, r9, sl, pc}
 80002e8:	fab3 f183 	clz	r1, r3
 80002ec:	2900      	cmp	r1, #0
 80002ee:	d149      	bne.n	8000384 <__udivmoddi4+0x158>
 80002f0:	42ab      	cmp	r3, r5
 80002f2:	d302      	bcc.n	80002fa <__udivmoddi4+0xce>
 80002f4:	4282      	cmp	r2, r0
 80002f6:	f200 80f8 	bhi.w	80004ea <__udivmoddi4+0x2be>
 80002fa:	1a84      	subs	r4, r0, r2
 80002fc:	eb65 0203 	sbc.w	r2, r5, r3
 8000300:	2001      	movs	r0, #1
 8000302:	4617      	mov	r7, r2
 8000304:	2e00      	cmp	r6, #0
 8000306:	d0e2      	beq.n	80002ce <__udivmoddi4+0xa2>
 8000308:	e9c6 4700 	strd	r4, r7, [r6]
 800030c:	e7df      	b.n	80002ce <__udivmoddi4+0xa2>
 800030e:	b902      	cbnz	r2, 8000312 <__udivmoddi4+0xe6>
 8000310:	deff      	udf	#255	; 0xff
 8000312:	fab2 f382 	clz	r3, r2
 8000316:	2b00      	cmp	r3, #0
 8000318:	f040 8090 	bne.w	800043c <__udivmoddi4+0x210>
 800031c:	1a8a      	subs	r2, r1, r2
 800031e:	ea4f 471c 	mov.w	r7, ip, lsr #16
 8000322:	fa1f fe8c 	uxth.w	lr, ip
 8000326:	2101      	movs	r1, #1
 8000328:	fbb2 f5f7 	udiv	r5, r2, r7
 800032c:	fb07 2015 	mls	r0, r7, r5, r2
 8000330:	0c22      	lsrs	r2, r4, #16
 8000332:	ea42 4200 	orr.w	r2, r2, r0, lsl #16
 8000336:	fb0e f005 	mul.w	r0, lr, r5
 800033a:	4290      	cmp	r0, r2
 800033c:	d908      	bls.n	8000350 <__udivmoddi4+0x124>
 800033e:	eb1c 0202 	adds.w	r2, ip, r2
 8000342:	f105 38ff 	add.w	r8, r5, #4294967295	; 0xffffffff
 8000346:	d202      	bcs.n	800034e <__udivmoddi4+0x122>
 8000348:	4290      	cmp	r0, r2
 800034a:	f200 80cb 	bhi.w	80004e4 <__udivmoddi4+0x2b8>
 800034e:	4645      	mov	r5, r8
 8000350:	1a12      	subs	r2, r2, r0
 8000352:	b2a4      	uxth	r4, r4
 8000354:	fbb2 f0f7 	udiv	r0, r2, r7
 8000358:	fb07 2210 	mls	r2, r7, r0, r2
 800035c:	ea44 4402 	orr.w	r4, r4, r2, lsl #16
 8000360:	fb0e fe00 	mul.w	lr, lr, r0
 8000364:	45a6      	cmp	lr, r4
 8000366:	d908      	bls.n	800037a <__udivmoddi4+0x14e>
 8000368:	eb1c 0404 	adds.w	r4, ip, r4
 800036c:	f100 32ff 	add.w	r2, r0, #4294967295	; 0xffffffff
 8000370:	d202      	bcs.n	8000378 <__udivmoddi4+0x14c>
 8000372:	45a6      	cmp	lr, r4
 8000374:	f200 80bb 	bhi.w	80004ee <__udivmoddi4+0x2c2>
 8000378:	4610      	mov	r0, r2
 800037a:	eba4 040e 	sub.w	r4, r4, lr
 800037e:	ea40 4005 	orr.w	r0, r0, r5, lsl #16
 8000382:	e79f      	b.n	80002c4 <__udivmoddi4+0x98>
 8000384:	f1c1 0720 	rsb	r7, r1, #32
 8000388:	408b      	lsls	r3, r1
 800038a:	fa22 fc07 	lsr.w	ip, r2, r7
 800038e:	ea4c 0c03 	orr.w	ip, ip, r3
 8000392:	fa05 f401 	lsl.w	r4, r5, r1
 8000396:	fa20 f307 	lsr.w	r3, r0, r7
 800039a:	40fd      	lsrs	r5, r7
 800039c:	ea4f 491c 	mov.w	r9, ip, lsr #16
 80003a0:	4323      	orrs	r3, r4
 80003a2:	fbb5 f8f9 	udiv	r8, r5, r9
 80003a6:	fa1f fe8c 	uxth.w	lr, ip
 80003aa:	fb09 5518 	mls	r5, r9, r8, r5
 80003ae:	0c1c      	lsrs	r4, r3, #16
 80003b0:	ea44 4405 	orr.w	r4, r4, r5, lsl #16
 80003b4:	fb08 f50e 	mul.w	r5, r8, lr
 80003b8:	42a5      	cmp	r5, r4
 80003ba:	fa02 f201 	lsl.w	r2, r2, r1
 80003be:	fa00 f001 	lsl.w	r0, r0, r1
 80003c2:	d90b      	bls.n	80003dc <__udivmoddi4+0x1b0>
 80003c4:	eb1c 0404 	adds.w	r4, ip, r4
 80003c8:	f108 3aff 	add.w	sl, r8, #4294967295	; 0xffffffff
 80003cc:	f080 8088 	bcs.w	80004e0 <__udivmoddi4+0x2b4>
 80003d0:	42a5      	cmp	r5, r4
 80003d2:	f240 8085 	bls.w	80004e0 <__udivmoddi4+0x2b4>
 80003d6:	f1a8 0802 	sub.w	r8, r8, #2
 80003da:	4464      	add	r4, ip
 80003dc:	1b64      	subs	r4, r4, r5
 80003de:	b29d      	uxth	r5, r3
 80003e0:	fbb4 f3f9 	udiv	r3, r4, r9
 80003e4:	fb09 4413 	mls	r4, r9, r3, r4
 80003e8:	ea45 4404 	orr.w	r4, r5, r4, lsl #16
 80003ec:	fb03 fe0e 	mul.w	lr, r3, lr
 80003f0:	45a6      	cmp	lr, r4
 80003f2:	d908      	bls.n	8000406 <__udivmoddi4+0x1da>
 80003f4:	eb1c 0404 	adds.w	r4, ip, r4
 80003f8:	f103 35ff 	add.w	r5, r3, #4294967295	; 0xffffffff
 80003fc:	d26c      	bcs.n	80004d8 <__udivmoddi4+0x2ac>
 80003fe:	45a6      	cmp	lr, r4
 8000400:	d96a      	bls.n	80004d8 <__udivmoddi4+0x2ac>
 8000402:	3b02      	subs	r3, #2
 8000404:	4464      	add	r4, ip
 8000406:	ea43 4308 	orr.w	r3, r3, r8, lsl #16
 800040a:	fba3 9502 	umull	r9, r5, r3, r2
 800040e:	eba4 040e 	sub.w	r4, r4, lr
 8000412:	42ac      	cmp	r4, r5
 8000414:	46c8      	mov	r8, r9
 8000416:	46ae      	mov	lr, r5
 8000418:	d356      	bcc.n	80004c8 <__udivmoddi4+0x29c>
 800041a:	d053      	beq.n	80004c4 <__udivmoddi4+0x298>
 800041c:	b156      	cbz	r6, 8000434 <__udivmoddi4+0x208>
 800041e:	ebb0 0208 	subs.w	r2, r0, r8
 8000422:	eb64 040e 	sbc.w	r4, r4, lr
 8000426:	fa04 f707 	lsl.w	r7, r4, r7
 800042a:	40ca      	lsrs	r2, r1
 800042c:	40cc      	lsrs	r4, r1
 800042e:	4317      	orrs	r7, r2
 8000430:	e9c6 7400 	strd	r7, r4, [r6]
 8000434:	4618      	mov	r0, r3
 8000436:	2100      	movs	r1, #0
 8000438:	e8bd 87f0 	ldmia.w	sp!, {r4, r5, r6, r7, r8, r9, sl, pc}
 800043c:	f1c3 0120 	rsb	r1, r3, #32
 8000440:	fa02 fc03 	lsl.w	ip, r2, r3
 8000444:	fa20 f201 	lsr.w	r2, r0, r1
 8000448:	fa25 f101 	lsr.w	r1, r5, r1
 800044c:	409d      	lsls	r5, r3
 800044e:	432a      	orrs	r2, r5
 8000450:	ea4f 471c 	mov.w	r7, ip, lsr #16
 8000454:	fa1f fe8c 	uxth.w	lr, ip
 8000458:	fbb1 f0f7 	udiv	r0, r1, r7
 800045c:	fb07 1510 	mls	r5, r7, r0, r1
 8000460:	0c11      	lsrs	r1, r2, #16
 8000462:	ea41 4105 	orr.w	r1, r1, r5, lsl #16
 8000466:	fb00 f50e 	mul.w	r5, r0, lr
 800046a:	428d      	cmp	r5, r1
 800046c:	fa04 f403 	lsl.w	r4, r4, r3
 8000470:	d908      	bls.n	8000484 <__udivmoddi4+0x258>
 8000472:	eb1c 0101 	adds.w	r1, ip, r1
 8000476:	f100 38ff 	add.w	r8, r0, #4294967295	; 0xffffffff
 800047a:	d22f      	bcs.n	80004dc <__udivmoddi4+0x2b0>
 800047c:	428d      	cmp	r5, r1
 800047e:	d92d      	bls.n	80004dc <__udivmoddi4+0x2b0>
 8000480:	3802      	subs	r0, #2
 8000482:	4461      	add	r1, ip
 8000484:	1b49      	subs	r1, r1, r5
 8000486:	b292      	uxth	r2, r2
 8000488:	fbb1 f5f7 	udiv	r5, r1, r7
 800048c:	fb07 1115 	mls	r1, r7, r5, r1
 8000490:	ea42 4201 	orr.w	r2, r2, r1, lsl #16
 8000494:	fb05 f10e 	mul.w	r1, r5, lr
 8000498:	4291      	cmp	r1, r2
 800049a:	d908      	bls.n	80004ae <__udivmoddi4+0x282>
 800049c:	eb1c 0202 	adds.w	r2, ip, r2
 80004a0:	f105 38ff 	add.w	r8, r5, #4294967295	; 0xffffffff
 80004a4:	d216      	bcs.n	80004d4 <__udivmoddi4+0x2a8>
 80004a6:	4291      	cmp	r1, r2
 80004a8:	d914      	bls.n	80004d4 <__udivmoddi4+0x2a8>
 80004aa:	3d02      	subs	r5, #2
 80004ac:	4462      	add	r2, ip
 80004ae:	1a52      	subs	r2, r2, r1
 80004b0:	ea45 4100 	orr.w	r1, r5, r0, lsl #16
 80004b4:	e738      	b.n	8000328 <__udivmoddi4+0xfc>
 80004b6:	4631      	mov	r1, r6
 80004b8:	4630      	mov	r0, r6
 80004ba:	e708      	b.n	80002ce <__udivmoddi4+0xa2>
 80004bc:	4639      	mov	r1, r7
 80004be:	e6e6      	b.n	800028e <__udivmoddi4+0x62>
 80004c0:	4610      	mov	r0, r2
 80004c2:	e6fb      	b.n	80002bc <__udivmoddi4+0x90>
 80004c4:	4548      	cmp	r0, r9
 80004c6:	d2a9      	bcs.n	800041c <__udivmoddi4+0x1f0>
 80004c8:	ebb9 0802 	subs.w	r8, r9, r2
 80004cc:	eb65 0e0c 	sbc.w	lr, r5, ip
 80004d0:	3b01      	subs	r3, #1
 80004d2:	e7a3      	b.n	800041c <__udivmoddi4+0x1f0>
 80004d4:	4645      	mov	r5, r8
 80004d6:	e7ea      	b.n	80004ae <__udivmoddi4+0x282>
 80004d8:	462b      	mov	r3, r5
 80004da:	e794      	b.n	8000406 <__udivmoddi4+0x1da>
 80004dc:	4640      	mov	r0, r8
 80004de:	e7d1      	b.n	8000484 <__udivmoddi4+0x258>
 80004e0:	46d0      	mov	r8, sl
 80004e2:	e77b      	b.n	80003dc <__udivmoddi4+0x1b0>
 80004e4:	3d02      	subs	r5, #2
 80004e6:	4462      	add	r2, ip
 80004e8:	e732      	b.n	8000350 <__udivmoddi4+0x124>
 80004ea:	4608      	mov	r0, r1
 80004ec:	e70a      	b.n	8000304 <__udivmoddi4+0xd8>
 80004ee:	4464      	add	r4, ip
 80004f0:	3802      	subs	r0, #2
 80004f2:	e742      	b.n	800037a <__udivmoddi4+0x14e>

080004f4 <__aeabi_idiv0>:
 80004f4:	4770      	bx	lr
 80004f6:	bf00      	nop

080004f8 <init_accel>:
uint8_t OUT_Y_L 				= 0x2A;
uint8_t OUT_Y_H 				= 0x2B;
uint8_t OUT_Z_L 				= 0x2C;
uint8_t OUT_Z_H 				= 0x2D;

HAL_StatusTypeDef init_accel(I2C_HandleTypeDef* hi2c) {
 80004f8:	b580      	push	{r7, lr}
 80004fa:	b084      	sub	sp, #16
 80004fc:	af00      	add	r7, sp, #0
 80004fe:	6078      	str	r0, [r7, #4]
	HAL_StatusTypeDef ret;

	// Write Control Register 1
	ret = i2c_write_reg(hi2c, H3LIS331DL_ADDR, &CTRL_REG1, MASK_1kHz);
 8000500:	2118      	movs	r1, #24
 8000502:	233f      	movs	r3, #63	; 0x3f
 8000504:	4a09      	ldr	r2, [pc, #36]	; (800052c <init_accel+0x34>)
 8000506:	6878      	ldr	r0, [r7, #4]
 8000508:	f000 fbbb 	bl	8000c82 <i2c_write_reg>
 800050c:	4603      	mov	r3, r0
 800050e:	73fb      	strb	r3, [r7, #15]

	// Write Control Register 4
	ret = i2c_write_reg(hi2c, H3LIS331DL_ADDR, &CTRL_REG4, MASK_100G);
 8000510:	2118      	movs	r1, #24
 8000512:	2300      	movs	r3, #0
 8000514:	4a06      	ldr	r2, [pc, #24]	; (8000530 <init_accel+0x38>)
 8000516:	6878      	ldr	r0, [r7, #4]
 8000518:	f000 fbb3 	bl	8000c82 <i2c_write_reg>
 800051c:	4603      	mov	r3, r0
 800051e:	73fb      	strb	r3, [r7, #15]
	return ret;
 8000520:	7bfb      	ldrb	r3, [r7, #15]
}
 8000522:	4618      	mov	r0, r3
 8000524:	3710      	adds	r7, #16
 8000526:	46bd      	mov	sp, r7
 8000528:	bd80      	pop	{r7, pc}
 800052a:	bf00      	nop
 800052c:	20000000 	.word	0x20000000
 8000530:	20000001 	.word	0x20000001

08000534 <readAccelerometer>:

void readAccelerometer(uint8_t values[6], I2C_HandleTypeDef* hi2c) {
 8000534:	b580      	push	{r7, lr}
 8000536:	b084      	sub	sp, #16
 8000538:	af02      	add	r7, sp, #8
 800053a:	6078      	str	r0, [r7, #4]
 800053c:	6039      	str	r1, [r7, #0]
	i2c_burst_read(hi2c, H3LIS331DL_ADDR, OUT_X_L, 6, values);
 800053e:	2118      	movs	r1, #24
 8000540:	4b05      	ldr	r3, [pc, #20]	; (8000558 <readAccelerometer+0x24>)
 8000542:	781a      	ldrb	r2, [r3, #0]
 8000544:	687b      	ldr	r3, [r7, #4]
 8000546:	9300      	str	r3, [sp, #0]
 8000548:	2306      	movs	r3, #6
 800054a:	6838      	ldr	r0, [r7, #0]
 800054c:	f000 fb68 	bl	8000c20 <i2c_burst_read>
}
 8000550:	bf00      	nop
 8000552:	3708      	adds	r7, #8
 8000554:	46bd      	mov	sp, r7
 8000556:	bd80      	pop	{r7, pc}
 8000558:	20000003 	.word	0x20000003

0800055c <readAccel_whoami>:

uint8_t readAccel_whoami(I2C_HandleTypeDef* hi2c) {
 800055c:	b580      	push	{r7, lr}
 800055e:	b082      	sub	sp, #8
 8000560:	af00      	add	r7, sp, #0
 8000562:	6078      	str	r0, [r7, #4]
	return i2c_read_reg(hi2c, H3LIS331DL_ADDR, &WHOAMI);
 8000564:	2318      	movs	r3, #24
 8000566:	4a05      	ldr	r2, [pc, #20]	; (800057c <readAccel_whoami+0x20>)
 8000568:	4619      	mov	r1, r3
 800056a:	6878      	ldr	r0, [r7, #4]
 800056c:	f000 fb30 	bl	8000bd0 <i2c_read_reg>
 8000570:	4603      	mov	r3, r0
}
 8000572:	4618      	mov	r0, r3
 8000574:	3708      	adds	r7, #8
 8000576:	46bd      	mov	sp, r7
 8000578:	bd80      	pop	{r7, pc}
 800057a:	bf00      	nop
 800057c:	20000002 	.word	0x20000002

08000580 <init_bme280>:
uint8_t OUT_HUM_H 			= 0xFD;
uint8_t CALIB_ST_1			= 0x88;
uint8_t CALIB_ST_2			= 0xE1;


HAL_StatusTypeDef init_bme280(I2C_HandleTypeDef* hi2c, uint8_t bme) {
 8000580:	b580      	push	{r7, lr}
 8000582:	b084      	sub	sp, #16
 8000584:	af00      	add	r7, sp, #0
 8000586:	6078      	str	r0, [r7, #4]
 8000588:	460b      	mov	r3, r1
 800058a:	70fb      	strb	r3, [r7, #3]
	uint8_t bme_addr = getBME280Config(bme).bme_addr;
 800058c:	78fb      	ldrb	r3, [r7, #3]
 800058e:	4618      	mov	r0, r3
 8000590:	f000 f8d4 	bl	800073c <getBME280Config>
 8000594:	4603      	mov	r3, r0
 8000596:	73fb      	strb	r3, [r7, #15]
	HAL_StatusTypeDef ret;
	uint8_t control_reg = 0x00;
 8000598:	2300      	movs	r3, #0
 800059a:	73bb      	strb	r3, [r7, #14]

	// Reset the sensor
	ret =  i2c_write_reg(hi2c, bme_addr, &RST_REG, RST);
 800059c:	7bf9      	ldrb	r1, [r7, #15]
 800059e:	23b6      	movs	r3, #182	; 0xb6
 80005a0:	4a19      	ldr	r2, [pc, #100]	; (8000608 <init_bme280+0x88>)
 80005a2:	6878      	ldr	r0, [r7, #4]
 80005a4:	f000 fb6d 	bl	8000c82 <i2c_write_reg>
 80005a8:	4603      	mov	r3, r0
 80005aa:	737b      	strb	r3, [r7, #13]

	// Set humidity control register
	control_reg = i2c_read_reg(hi2c, bme_addr, &CTRL_HUM_REG);
 80005ac:	7bfb      	ldrb	r3, [r7, #15]
 80005ae:	4a17      	ldr	r2, [pc, #92]	; (800060c <init_bme280+0x8c>)
 80005b0:	4619      	mov	r1, r3
 80005b2:	6878      	ldr	r0, [r7, #4]
 80005b4:	f000 fb0c 	bl	8000bd0 <i2c_read_reg>
 80005b8:	4603      	mov	r3, r0
 80005ba:	73bb      	strb	r3, [r7, #14]
	control_reg = control_reg & 0xF8;
 80005bc:	7bbb      	ldrb	r3, [r7, #14]
 80005be:	f023 0307 	bic.w	r3, r3, #7
 80005c2:	73bb      	strb	r3, [r7, #14]
	control_reg = control_reg | CTRL_HUM_MSK;
 80005c4:	7bbb      	ldrb	r3, [r7, #14]
 80005c6:	f043 0301 	orr.w	r3, r3, #1
 80005ca:	73bb      	strb	r3, [r7, #14]
	ret = i2c_write_reg(hi2c, bme_addr, &CTRL_HUM_REG, control_reg);
 80005cc:	7bbb      	ldrb	r3, [r7, #14]
 80005ce:	7bf9      	ldrb	r1, [r7, #15]
 80005d0:	4a0e      	ldr	r2, [pc, #56]	; (800060c <init_bme280+0x8c>)
 80005d2:	6878      	ldr	r0, [r7, #4]
 80005d4:	f000 fb55 	bl	8000c82 <i2c_write_reg>
 80005d8:	4603      	mov	r3, r0
 80005da:	737b      	strb	r3, [r7, #13]

	// Set measure control register
	ret = i2c_write_reg(hi2c, bme_addr, &CTRL_MEAS_REG, CTRL_MEAS_MSK);
 80005dc:	7bf9      	ldrb	r1, [r7, #15]
 80005de:	2327      	movs	r3, #39	; 0x27
 80005e0:	4a0b      	ldr	r2, [pc, #44]	; (8000610 <init_bme280+0x90>)
 80005e2:	6878      	ldr	r0, [r7, #4]
 80005e4:	f000 fb4d 	bl	8000c82 <i2c_write_reg>
 80005e8:	4603      	mov	r3, r0
 80005ea:	737b      	strb	r3, [r7, #13]

	// Set the config register
	ret = i2c_write_reg(hi2c, bme_addr, &CONF_REG, CONF_MSK);
 80005ec:	7bf9      	ldrb	r1, [r7, #15]
 80005ee:	2300      	movs	r3, #0
 80005f0:	4a08      	ldr	r2, [pc, #32]	; (8000614 <init_bme280+0x94>)
 80005f2:	6878      	ldr	r0, [r7, #4]
 80005f4:	f000 fb45 	bl	8000c82 <i2c_write_reg>
 80005f8:	4603      	mov	r3, r0
 80005fa:	737b      	strb	r3, [r7, #13]

	return ret;
 80005fc:	7b7b      	ldrb	r3, [r7, #13]
}
 80005fe:	4618      	mov	r0, r3
 8000600:	3710      	adds	r7, #16
 8000602:	46bd      	mov	sp, r7
 8000604:	bd80      	pop	{r7, pc}
 8000606:	bf00      	nop
 8000608:	20000005 	.word	0x20000005
 800060c:	20000006 	.word	0x20000006
 8000610:	20000007 	.word	0x20000007
 8000614:	20000008 	.word	0x20000008

08000618 <readTempHumPres>:

void readTempHumPres(uint8_t values[6], I2C_HandleTypeDef* hi2c, uint8_t bme) {
 8000618:	b580      	push	{r7, lr}
 800061a:	b08a      	sub	sp, #40	; 0x28
 800061c:	af02      	add	r7, sp, #8
 800061e:	60f8      	str	r0, [r7, #12]
 8000620:	60b9      	str	r1, [r7, #8]
 8000622:	4613      	mov	r3, r2
 8000624:	71fb      	strb	r3, [r7, #7]
	uint8_t readings[8];
	uint8_t bme_addr = getBME280Config(bme).bme_addr;
 8000626:	79fb      	ldrb	r3, [r7, #7]
 8000628:	4618      	mov	r0, r3
 800062a:	f000 f887 	bl	800073c <getBME280Config>
 800062e:	4603      	mov	r3, r0
 8000630:	777b      	strb	r3, [r7, #29]
	i2c_burst_read(hi2c, bme_addr, OUT_PRESS_H, 8, readings);
 8000632:	4b20      	ldr	r3, [pc, #128]	; (80006b4 <readTempHumPres+0x9c>)
 8000634:	781a      	ldrb	r2, [r3, #0]
 8000636:	7f79      	ldrb	r1, [r7, #29]
 8000638:	f107 0314 	add.w	r3, r7, #20
 800063c:	9300      	str	r3, [sp, #0]
 800063e:	2308      	movs	r3, #8
 8000640:	68b8      	ldr	r0, [r7, #8]
 8000642:	f000 faed 	bl	8000c20 <i2c_burst_read>

	// Clear the 0 values on the xlsb registers
	uint8_t j = 0;
 8000646:	2300      	movs	r3, #0
 8000648:	77fb      	strb	r3, [r7, #31]
    for(uint8_t i = 0; i < 8; i++) {
 800064a:	2300      	movs	r3, #0
 800064c:	77bb      	strb	r3, [r7, #30]
 800064e:	e014      	b.n	800067a <readTempHumPres+0x62>
        if(i != 2 && i != 5) {  // if the index is not 2 or 5
 8000650:	7fbb      	ldrb	r3, [r7, #30]
 8000652:	2b02      	cmp	r3, #2
 8000654:	d00e      	beq.n	8000674 <readTempHumPres+0x5c>
 8000656:	7fbb      	ldrb	r3, [r7, #30]
 8000658:	2b05      	cmp	r3, #5
 800065a:	d00b      	beq.n	8000674 <readTempHumPres+0x5c>
        	values[j] = readings[i];
 800065c:	7fba      	ldrb	r2, [r7, #30]
 800065e:	7ffb      	ldrb	r3, [r7, #31]
 8000660:	68f9      	ldr	r1, [r7, #12]
 8000662:	440b      	add	r3, r1
 8000664:	3220      	adds	r2, #32
 8000666:	443a      	add	r2, r7
 8000668:	f812 2c0c 	ldrb.w	r2, [r2, #-12]
 800066c:	701a      	strb	r2, [r3, #0]
            j++;
 800066e:	7ffb      	ldrb	r3, [r7, #31]
 8000670:	3301      	adds	r3, #1
 8000672:	77fb      	strb	r3, [r7, #31]
    for(uint8_t i = 0; i < 8; i++) {
 8000674:	7fbb      	ldrb	r3, [r7, #30]
 8000676:	3301      	adds	r3, #1
 8000678:	77bb      	strb	r3, [r7, #30]
 800067a:	7fbb      	ldrb	r3, [r7, #30]
 800067c:	2b07      	cmp	r3, #7
 800067e:	d9e7      	bls.n	8000650 <readTempHumPres+0x38>
        }
    }

    // Swap elements to make the array little endian
    swap(&values[0], &values[1]);
 8000680:	68fb      	ldr	r3, [r7, #12]
 8000682:	3301      	adds	r3, #1
 8000684:	4619      	mov	r1, r3
 8000686:	68f8      	ldr	r0, [r7, #12]
 8000688:	f000 f86f 	bl	800076a <swap>
    swap(&values[2], &values[3]);
 800068c:	68fb      	ldr	r3, [r7, #12]
 800068e:	1c9a      	adds	r2, r3, #2
 8000690:	68fb      	ldr	r3, [r7, #12]
 8000692:	3303      	adds	r3, #3
 8000694:	4619      	mov	r1, r3
 8000696:	4610      	mov	r0, r2
 8000698:	f000 f867 	bl	800076a <swap>
    swap(&values[4], &values[5]);
 800069c:	68fb      	ldr	r3, [r7, #12]
 800069e:	1d1a      	adds	r2, r3, #4
 80006a0:	68fb      	ldr	r3, [r7, #12]
 80006a2:	3305      	adds	r3, #5
 80006a4:	4619      	mov	r1, r3
 80006a6:	4610      	mov	r0, r2
 80006a8:	f000 f85f 	bl	800076a <swap>
}
 80006ac:	bf00      	nop
 80006ae:	3720      	adds	r7, #32
 80006b0:	46bd      	mov	sp, r7
 80006b2:	bd80      	pop	{r7, pc}
 80006b4:	20000009 	.word	0x20000009

080006b8 <readBME280_id_reg>:

uint8_t readBME280_id_reg(I2C_HandleTypeDef* hi2c, uint8_t bme) {
 80006b8:	b580      	push	{r7, lr}
 80006ba:	b084      	sub	sp, #16
 80006bc:	af00      	add	r7, sp, #0
 80006be:	6078      	str	r0, [r7, #4]
 80006c0:	460b      	mov	r3, r1
 80006c2:	70fb      	strb	r3, [r7, #3]
	uint8_t bme_addr = getBME280Config(bme).bme_addr;
 80006c4:	78fb      	ldrb	r3, [r7, #3]
 80006c6:	4618      	mov	r0, r3
 80006c8:	f000 f838 	bl	800073c <getBME280Config>
 80006cc:	4603      	mov	r3, r0
 80006ce:	73fb      	strb	r3, [r7, #15]
	return i2c_read_reg(hi2c, bme_addr, &ID_REG);
 80006d0:	7bfb      	ldrb	r3, [r7, #15]
 80006d2:	4a05      	ldr	r2, [pc, #20]	; (80006e8 <readBME280_id_reg+0x30>)
 80006d4:	4619      	mov	r1, r3
 80006d6:	6878      	ldr	r0, [r7, #4]
 80006d8:	f000 fa7a 	bl	8000bd0 <i2c_read_reg>
 80006dc:	4603      	mov	r3, r0
}
 80006de:	4618      	mov	r0, r3
 80006e0:	3710      	adds	r7, #16
 80006e2:	46bd      	mov	sp, r7
 80006e4:	bd80      	pop	{r7, pc}
 80006e6:	bf00      	nop
 80006e8:	20000004 	.word	0x20000004

080006ec <readBME280_calib>:

void readBME280_calib(I2C_HandleTypeDef* hi2c, uint8_t bme, uint8_t calibration1[CALIB_CNT_1], uint8_t calibration2[CALIB_CNT_2]) {
 80006ec:	b580      	push	{r7, lr}
 80006ee:	b088      	sub	sp, #32
 80006f0:	af02      	add	r7, sp, #8
 80006f2:	60f8      	str	r0, [r7, #12]
 80006f4:	607a      	str	r2, [r7, #4]
 80006f6:	603b      	str	r3, [r7, #0]
 80006f8:	460b      	mov	r3, r1
 80006fa:	72fb      	strb	r3, [r7, #11]
	uint8_t bme_addr = getBME280Config(bme).bme_addr;
 80006fc:	7afb      	ldrb	r3, [r7, #11]
 80006fe:	4618      	mov	r0, r3
 8000700:	f000 f81c 	bl	800073c <getBME280Config>
 8000704:	4603      	mov	r3, r0
 8000706:	75fb      	strb	r3, [r7, #23]
	i2c_burst_read(hi2c, bme_addr, CALIB_ST_1, CALIB_CNT_1, calibration1);
 8000708:	4b0a      	ldr	r3, [pc, #40]	; (8000734 <readBME280_calib+0x48>)
 800070a:	781a      	ldrb	r2, [r3, #0]
 800070c:	7df9      	ldrb	r1, [r7, #23]
 800070e:	687b      	ldr	r3, [r7, #4]
 8000710:	9300      	str	r3, [sp, #0]
 8000712:	2319      	movs	r3, #25
 8000714:	68f8      	ldr	r0, [r7, #12]
 8000716:	f000 fa83 	bl	8000c20 <i2c_burst_read>
	i2c_burst_read(hi2c, bme_addr, CALIB_ST_2, CALIB_CNT_2, calibration2);
 800071a:	4b07      	ldr	r3, [pc, #28]	; (8000738 <readBME280_calib+0x4c>)
 800071c:	781a      	ldrb	r2, [r3, #0]
 800071e:	7df9      	ldrb	r1, [r7, #23]
 8000720:	683b      	ldr	r3, [r7, #0]
 8000722:	9300      	str	r3, [sp, #0]
 8000724:	2307      	movs	r3, #7
 8000726:	68f8      	ldr	r0, [r7, #12]
 8000728:	f000 fa7a 	bl	8000c20 <i2c_burst_read>
}
 800072c:	bf00      	nop
 800072e:	3718      	adds	r7, #24
 8000730:	46bd      	mov	sp, r7
 8000732:	bd80      	pop	{r7, pc}
 8000734:	2000000a 	.word	0x2000000a
 8000738:	2000000b 	.word	0x2000000b

0800073c <getBME280Config>:

BME280_Config getBME280Config(uint8_t bme) {
 800073c:	b480      	push	{r7}
 800073e:	b085      	sub	sp, #20
 8000740:	af00      	add	r7, sp, #0
 8000742:	4603      	mov	r3, r0
 8000744:	71fb      	strb	r3, [r7, #7]
	BME280_Config config;
	if (bme == 0) {
 8000746:	79fb      	ldrb	r3, [r7, #7]
 8000748:	2b00      	cmp	r3, #0
 800074a:	d102      	bne.n	8000752 <getBME280Config+0x16>
		config.bme_addr = BME280_ADDR_0;
 800074c:	2376      	movs	r3, #118	; 0x76
 800074e:	733b      	strb	r3, [r7, #12]
 8000750:	e004      	b.n	800075c <getBME280Config+0x20>
	} else if (bme == 1) {
 8000752:	79fb      	ldrb	r3, [r7, #7]
 8000754:	2b01      	cmp	r3, #1
 8000756:	d101      	bne.n	800075c <getBME280Config+0x20>
		config.bme_addr = BME280_ADDR_1;
 8000758:	2377      	movs	r3, #119	; 0x77
 800075a:	733b      	strb	r3, [r7, #12]
	}
    return config;
 800075c:	7b3b      	ldrb	r3, [r7, #12]
}
 800075e:	4618      	mov	r0, r3
 8000760:	3714      	adds	r7, #20
 8000762:	46bd      	mov	sp, r7
 8000764:	f85d 7b04 	ldr.w	r7, [sp], #4
 8000768:	4770      	bx	lr

0800076a <swap>:

void swap(uint8_t* a, uint8_t* b) {
 800076a:	b480      	push	{r7}
 800076c:	b085      	sub	sp, #20
 800076e:	af00      	add	r7, sp, #0
 8000770:	6078      	str	r0, [r7, #4]
 8000772:	6039      	str	r1, [r7, #0]
    uint8_t temp = *a;
 8000774:	687b      	ldr	r3, [r7, #4]
 8000776:	781b      	ldrb	r3, [r3, #0]
 8000778:	73fb      	strb	r3, [r7, #15]
    *a = *b;
 800077a:	683b      	ldr	r3, [r7, #0]
 800077c:	781a      	ldrb	r2, [r3, #0]
 800077e:	687b      	ldr	r3, [r7, #4]
 8000780:	701a      	strb	r2, [r3, #0]
    *b = temp;
 8000782:	683b      	ldr	r3, [r7, #0]
 8000784:	7bfa      	ldrb	r2, [r7, #15]
 8000786:	701a      	strb	r2, [r3, #0]
}
 8000788:	bf00      	nop
 800078a:	3714      	adds	r7, #20
 800078c:	46bd      	mov	sp, r7
 800078e:	f85d 7b04 	ldr.w	r7, [sp], #4
 8000792:	4770      	bx	lr

08000794 <getGPIOConfig>:
uint8_t FLASH_32K_ERS	= 0x52;			// Erase all memory within a 32K-byte block
uint8_t FLASH_ERASE		= 0xC7;			// Erase the entire chip
uint8_t RST_EN			= 0x66;			// Reset enable
uint8_t DEV_RST			= 0x99;			// Reset device

GPIO_Config getGPIOConfig(uint8_t flashNo) {
 8000794:	b480      	push	{r7}
 8000796:	b085      	sub	sp, #20
 8000798:	af00      	add	r7, sp, #0
 800079a:	6078      	str	r0, [r7, #4]
 800079c:	460b      	mov	r3, r1
 800079e:	70fb      	strb	r3, [r7, #3]
    GPIO_Config config;

    if (flashNo == 0) {
 80007a0:	78fb      	ldrb	r3, [r7, #3]
 80007a2:	2b00      	cmp	r3, #0
 80007a4:	d104      	bne.n	80007b0 <getGPIOConfig+0x1c>
        config.GPIOx = GPIOD;
 80007a6:	4b0d      	ldr	r3, [pc, #52]	; (80007dc <getGPIOConfig+0x48>)
 80007a8:	60bb      	str	r3, [r7, #8]
        config.GPIO_Pin_CS = GPIO_PIN_2;
 80007aa:	2304      	movs	r3, #4
 80007ac:	81bb      	strh	r3, [r7, #12]
 80007ae:	e007      	b.n	80007c0 <getGPIOConfig+0x2c>
    } else if (flashNo == 1) {
 80007b0:	78fb      	ldrb	r3, [r7, #3]
 80007b2:	2b01      	cmp	r3, #1
 80007b4:	d104      	bne.n	80007c0 <getGPIOConfig+0x2c>
        config.GPIOx = GPIOB;
 80007b6:	4b0a      	ldr	r3, [pc, #40]	; (80007e0 <getGPIOConfig+0x4c>)
 80007b8:	60bb      	str	r3, [r7, #8]
        config.GPIO_Pin_CS = GPIO_PIN_12;
 80007ba:	f44f 5380 	mov.w	r3, #4096	; 0x1000
 80007be:	81bb      	strh	r3, [r7, #12]
    }

    return config;
 80007c0:	687b      	ldr	r3, [r7, #4]
 80007c2:	461a      	mov	r2, r3
 80007c4:	f107 0308 	add.w	r3, r7, #8
 80007c8:	e893 0003 	ldmia.w	r3, {r0, r1}
 80007cc:	e882 0003 	stmia.w	r2, {r0, r1}
}
 80007d0:	6878      	ldr	r0, [r7, #4]
 80007d2:	3714      	adds	r7, #20
 80007d4:	46bd      	mov	sp, r7
 80007d6:	f85d 7b04 	ldr.w	r7, [sp], #4
 80007da:	4770      	bx	lr
 80007dc:	40020c00 	.word	0x40020c00
 80007e0:	40020400 	.word	0x40020400

080007e4 <erase_chip_spi>:
 *      Author: aidencontini
 */

#include "data_output_spi.h"

HAL_StatusTypeDef erase_chip_spi(SPI_HandleTypeDef *hspi, uint8_t flashNo) {
 80007e4:	b580      	push	{r7, lr}
 80007e6:	b086      	sub	sp, #24
 80007e8:	af00      	add	r7, sp, #0
 80007ea:	6078      	str	r0, [r7, #4]
 80007ec:	460b      	mov	r3, r1
 80007ee:	70fb      	strb	r3, [r7, #3]
	GPIO_Config config = getGPIOConfig(flashNo);
 80007f0:	f107 030c 	add.w	r3, r7, #12
 80007f4:	78fa      	ldrb	r2, [r7, #3]
 80007f6:	4611      	mov	r1, r2
 80007f8:	4618      	mov	r0, r3
 80007fa:	f7ff ffcb 	bl	8000794 <getGPIOConfig>

	uint8_t busy = 0x01;
 80007fe:	2301      	movs	r3, #1
 8000800:	75fb      	strb	r3, [r7, #23]
	while(busy) {
 8000802:	e008      	b.n	8000816 <erase_chip_spi+0x32>
		busy = (check_status_register(hspi, flashNo) & 0x01);	// Check if there is a write in progress
 8000804:	78fb      	ldrb	r3, [r7, #3]
 8000806:	4619      	mov	r1, r3
 8000808:	6878      	ldr	r0, [r7, #4]
 800080a:	f000 f8b7 	bl	800097c <check_status_register>
 800080e:	4603      	mov	r3, r0
 8000810:	f003 0301 	and.w	r3, r3, #1
 8000814:	75fb      	strb	r3, [r7, #23]
	while(busy) {
 8000816:	7dfb      	ldrb	r3, [r7, #23]
 8000818:	2b00      	cmp	r3, #0
 800081a:	d1f3      	bne.n	8000804 <erase_chip_spi+0x20>
	}

	write_enable_spi(hspi, flashNo);
 800081c:	78fb      	ldrb	r3, [r7, #3]
 800081e:	4619      	mov	r1, r3
 8000820:	6878      	ldr	r0, [r7, #4]
 8000822:	f000 f81d 	bl	8000860 <write_enable_spi>
	perform_operation(&FLASH_ERASE, hspi, config.GPIOx, config.GPIO_Pin_CS);
 8000826:	68fa      	ldr	r2, [r7, #12]
 8000828:	8a3b      	ldrh	r3, [r7, #16]
 800082a:	6879      	ldr	r1, [r7, #4]
 800082c:	480b      	ldr	r0, [pc, #44]	; (800085c <erase_chip_spi+0x78>)
 800082e:	f001 f876 	bl	800191e <perform_operation>

	busy = 0x01;
 8000832:	2301      	movs	r3, #1
 8000834:	75fb      	strb	r3, [r7, #23]
	while(busy) {
 8000836:	e008      	b.n	800084a <erase_chip_spi+0x66>
		busy = (check_status_register(hspi, flashNo) & 0x01);	// Check if there is a write in progress
 8000838:	78fb      	ldrb	r3, [r7, #3]
 800083a:	4619      	mov	r1, r3
 800083c:	6878      	ldr	r0, [r7, #4]
 800083e:	f000 f89d 	bl	800097c <check_status_register>
 8000842:	4603      	mov	r3, r0
 8000844:	f003 0301 	and.w	r3, r3, #1
 8000848:	75fb      	strb	r3, [r7, #23]
	while(busy) {
 800084a:	7dfb      	ldrb	r3, [r7, #23]
 800084c:	2b00      	cmp	r3, #0
 800084e:	d1f3      	bne.n	8000838 <erase_chip_spi+0x54>
	}

	return HAL_OK;
 8000850:	2300      	movs	r3, #0
}
 8000852:	4618      	mov	r0, r3
 8000854:	3718      	adds	r7, #24
 8000856:	46bd      	mov	sp, r7
 8000858:	bd80      	pop	{r7, pc}
 800085a:	bf00      	nop
 800085c:	20000011 	.word	0x20000011

08000860 <write_enable_spi>:

	write_enable_spi(hspi, flashNo);
	perform_operation(&FLASH_32K_ERS, hspi, config.GPIOx, config.GPIO_Pin_CS);
}

void write_enable_spi(SPI_HandleTypeDef *hspi, uint8_t flashNo) {
 8000860:	b580      	push	{r7, lr}
 8000862:	b084      	sub	sp, #16
 8000864:	af00      	add	r7, sp, #0
 8000866:	6078      	str	r0, [r7, #4]
 8000868:	460b      	mov	r3, r1
 800086a:	70fb      	strb	r3, [r7, #3]
	GPIO_Config config = getGPIOConfig(flashNo);
 800086c:	f107 0308 	add.w	r3, r7, #8
 8000870:	78fa      	ldrb	r2, [r7, #3]
 8000872:	4611      	mov	r1, r2
 8000874:	4618      	mov	r0, r3
 8000876:	f7ff ff8d 	bl	8000794 <getGPIOConfig>
	perform_operation(&FLASH_WREN, hspi, config.GPIOx, config.GPIO_Pin_CS);
 800087a:	68ba      	ldr	r2, [r7, #8]
 800087c:	89bb      	ldrh	r3, [r7, #12]
 800087e:	6879      	ldr	r1, [r7, #4]
 8000880:	4803      	ldr	r0, [pc, #12]	; (8000890 <write_enable_spi+0x30>)
 8000882:	f001 f84c 	bl	800191e <perform_operation>
}
 8000886:	bf00      	nop
 8000888:	3710      	adds	r7, #16
 800088a:	46bd      	mov	sp, r7
 800088c:	bd80      	pop	{r7, pc}
 800088e:	bf00      	nop
 8000890:	2000000c 	.word	0x2000000c

08000894 <software_reset>:
void write_disable_spi(SPI_HandleTypeDef *hspi, uint8_t flashNo) {
	GPIO_Config config = getGPIOConfig(flashNo);
	perform_operation(&FLASH_WRDIS, hspi, config.GPIOx, config.GPIO_Pin_CS);
}

void software_reset(SPI_HandleTypeDef *hspi, uint8_t flashNo) {
 8000894:	b580      	push	{r7, lr}
 8000896:	b086      	sub	sp, #24
 8000898:	af00      	add	r7, sp, #0
 800089a:	6078      	str	r0, [r7, #4]
 800089c:	460b      	mov	r3, r1
 800089e:	70fb      	strb	r3, [r7, #3]
	GPIO_Config config = getGPIOConfig(flashNo);
 80008a0:	f107 030c 	add.w	r3, r7, #12
 80008a4:	78fa      	ldrb	r2, [r7, #3]
 80008a6:	4611      	mov	r1, r2
 80008a8:	4618      	mov	r0, r3
 80008aa:	f7ff ff73 	bl	8000794 <getGPIOConfig>
	uint8_t busy = 0x01;
 80008ae:	2301      	movs	r3, #1
 80008b0:	75fb      	strb	r3, [r7, #23]
	while(busy) {
 80008b2:	e008      	b.n	80008c6 <software_reset+0x32>
		busy = (check_status_register(hspi, flashNo) & 0x01);	// Check if there is a write in progress
 80008b4:	78fb      	ldrb	r3, [r7, #3]
 80008b6:	4619      	mov	r1, r3
 80008b8:	6878      	ldr	r0, [r7, #4]
 80008ba:	f000 f85f 	bl	800097c <check_status_register>
 80008be:	4603      	mov	r3, r0
 80008c0:	f003 0301 	and.w	r3, r3, #1
 80008c4:	75fb      	strb	r3, [r7, #23]
	while(busy) {
 80008c6:	7dfb      	ldrb	r3, [r7, #23]
 80008c8:	2b00      	cmp	r3, #0
 80008ca:	d1f3      	bne.n	80008b4 <software_reset+0x20>
	}

	perform_operation(&RST_EN, hspi, config.GPIOx, config.GPIO_Pin_CS);
 80008cc:	68fa      	ldr	r2, [r7, #12]
 80008ce:	8a3b      	ldrh	r3, [r7, #16]
 80008d0:	6879      	ldr	r1, [r7, #4]
 80008d2:	4806      	ldr	r0, [pc, #24]	; (80008ec <software_reset+0x58>)
 80008d4:	f001 f823 	bl	800191e <perform_operation>
	perform_operation(&DEV_RST, hspi, config.GPIOx, config.GPIO_Pin_CS);
 80008d8:	68fa      	ldr	r2, [r7, #12]
 80008da:	8a3b      	ldrh	r3, [r7, #16]
 80008dc:	6879      	ldr	r1, [r7, #4]
 80008de:	4804      	ldr	r0, [pc, #16]	; (80008f0 <software_reset+0x5c>)
 80008e0:	f001 f81d 	bl	800191e <perform_operation>
}
 80008e4:	bf00      	nop
 80008e6:	3718      	adds	r7, #24
 80008e8:	46bd      	mov	sp, r7
 80008ea:	bd80      	pop	{r7, pc}
 80008ec:	20000012 	.word	0x20000012
 80008f0:	20000013 	.word	0x20000013

080008f4 <write_data_spi>:

uint8_t write_data_spi(uint8_t page[PAGE_SIZE], GPIO_PinState flight_mode, SPI_HandleTypeDef *hspi, uint32_t addr, uint8_t flashNo) {
 80008f4:	b580      	push	{r7, lr}
 80008f6:	b08c      	sub	sp, #48	; 0x30
 80008f8:	af04      	add	r7, sp, #16
 80008fa:	60f8      	str	r0, [r7, #12]
 80008fc:	607a      	str	r2, [r7, #4]
 80008fe:	603b      	str	r3, [r7, #0]
 8000900:	460b      	mov	r3, r1
 8000902:	72fb      	strb	r3, [r7, #11]
	GPIO_Config config = getGPIOConfig(flashNo);
 8000904:	f107 0314 	add.w	r3, r7, #20
 8000908:	f897 2028 	ldrb.w	r2, [r7, #40]	; 0x28
 800090c:	4611      	mov	r1, r2
 800090e:	4618      	mov	r0, r3
 8000910:	f7ff ff40 	bl	8000794 <getGPIOConfig>
	uint8_t exit = EXIT_FAILURE;
 8000914:	2301      	movs	r3, #1
 8000916:	77fb      	strb	r3, [r7, #31]

	// If in flight mode, write data out to flash
	if(flight_mode == GPIO_PIN_SET) {
 8000918:	7afb      	ldrb	r3, [r7, #11]
 800091a:	2b01      	cmp	r3, #1
 800091c:	d125      	bne.n	800096a <write_data_spi+0x76>

		uint8_t busy = 0x01;
 800091e:	2301      	movs	r3, #1
 8000920:	77bb      	strb	r3, [r7, #30]
		while(busy) {
 8000922:	e009      	b.n	8000938 <write_data_spi+0x44>
			busy = (check_status_register(hspi, flashNo) & 0x01);	// Check if there is a write in progress
 8000924:	f897 3028 	ldrb.w	r3, [r7, #40]	; 0x28
 8000928:	4619      	mov	r1, r3
 800092a:	6878      	ldr	r0, [r7, #4]
 800092c:	f000 f826 	bl	800097c <check_status_register>
 8000930:	4603      	mov	r3, r0
 8000932:	f003 0301 	and.w	r3, r3, #1
 8000936:	77bb      	strb	r3, [r7, #30]
		while(busy) {
 8000938:	7fbb      	ldrb	r3, [r7, #30]
 800093a:	2b00      	cmp	r3, #0
 800093c:	d1f2      	bne.n	8000924 <write_data_spi+0x30>
		}

		// Send the write enable signal
		write_enable_spi(hspi, flashNo);
 800093e:	f897 3028 	ldrb.w	r3, [r7, #40]	; 0x28
 8000942:	4619      	mov	r1, r3
 8000944:	6878      	ldr	r0, [r7, #4]
 8000946:	f7ff ff8b 	bl	8000860 <write_enable_spi>
		spi_write_data(&FLASH_PGWR, PAGE_SIZE, page, hspi, addr, config.GPIOx, config.GPIO_Pin_CS);
 800094a:	697b      	ldr	r3, [r7, #20]
 800094c:	8b3a      	ldrh	r2, [r7, #24]
 800094e:	9202      	str	r2, [sp, #8]
 8000950:	9301      	str	r3, [sp, #4]
 8000952:	683b      	ldr	r3, [r7, #0]
 8000954:	9300      	str	r3, [sp, #0]
 8000956:	687b      	ldr	r3, [r7, #4]
 8000958:	68fa      	ldr	r2, [r7, #12]
 800095a:	f44f 7180 	mov.w	r1, #256	; 0x100
 800095e:	4806      	ldr	r0, [pc, #24]	; (8000978 <write_data_spi+0x84>)
 8000960:	f001 f83e 	bl	80019e0 <spi_write_data>
		exit = EXIT_SUCCESS;
 8000964:	2300      	movs	r3, #0
 8000966:	77fb      	strb	r3, [r7, #31]
 8000968:	e001      	b.n	800096e <write_data_spi+0x7a>

	// If not in flight mode, exit
	} else {
		exit = EXIT_SUCCESS;
 800096a:	2300      	movs	r3, #0
 800096c:	77fb      	strb	r3, [r7, #31]
	}
	return exit;
 800096e:	7ffb      	ldrb	r3, [r7, #31]
}
 8000970:	4618      	mov	r0, r3
 8000972:	3720      	adds	r7, #32
 8000974:	46bd      	mov	sp, r7
 8000976:	bd80      	pop	{r7, pc}
 8000978:	2000000d 	.word	0x2000000d

0800097c <check_status_register>:
 *      Author: aidencontini
 */

#include "data_read_spi.h"

uint8_t check_status_register(SPI_HandleTypeDef *hspi, uint8_t flashNo) {
 800097c:	b580      	push	{r7, lr}
 800097e:	b084      	sub	sp, #16
 8000980:	af00      	add	r7, sp, #0
 8000982:	6078      	str	r0, [r7, #4]
 8000984:	460b      	mov	r3, r1
 8000986:	70fb      	strb	r3, [r7, #3]
	GPIO_Config config = getGPIOConfig(flashNo);
 8000988:	f107 0308 	add.w	r3, r7, #8
 800098c:	78fa      	ldrb	r2, [r7, #3]
 800098e:	4611      	mov	r1, r2
 8000990:	4618      	mov	r0, r3
 8000992:	f7ff feff 	bl	8000794 <getGPIOConfig>
	return spi_sendOp_readByte(&FLASH_READSR1, hspi, config.GPIOx, config.GPIO_Pin_CS);
 8000996:	68ba      	ldr	r2, [r7, #8]
 8000998:	89bb      	ldrh	r3, [r7, #12]
 800099a:	6879      	ldr	r1, [r7, #4]
 800099c:	4803      	ldr	r0, [pc, #12]	; (80009ac <check_status_register+0x30>)
 800099e:	f000 ff97 	bl	80018d0 <spi_sendOp_readByte>
 80009a2:	4603      	mov	r3, r0
}
 80009a4:	4618      	mov	r0, r3
 80009a6:	3710      	adds	r7, #16
 80009a8:	46bd      	mov	sp, r7
 80009aa:	bd80      	pop	{r7, pc}
 80009ac:	2000000e 	.word	0x2000000e

080009b0 <find_next_blank_page>:

uint32_t find_next_blank_page(SPI_HandleTypeDef *hspi, UART_HandleTypeDef *huart, GPIO_PinState *end_of_flash_ptr, uint8_t flashNo) {
 80009b0:	e92d 43f0 	stmdb	sp!, {r4, r5, r6, r7, r8, r9, lr}
 80009b4:	b093      	sub	sp, #76	; 0x4c
 80009b6:	af04      	add	r7, sp, #16
 80009b8:	60f8      	str	r0, [r7, #12]
 80009ba:	60b9      	str	r1, [r7, #8]
 80009bc:	607a      	str	r2, [r7, #4]
 80009be:	70fb      	strb	r3, [r7, #3]
 80009c0:	466b      	mov	r3, sp
 80009c2:	461e      	mov	r6, r3
	uint8_t firstBytes = 4;
 80009c4:	2304      	movs	r3, #4
 80009c6:	f887 3026 	strb.w	r3, [r7, #38]	; 0x26
	GPIO_Config config = getGPIOConfig(flashNo);
 80009ca:	f107 0314 	add.w	r3, r7, #20
 80009ce:	78fa      	ldrb	r2, [r7, #3]
 80009d0:	4611      	mov	r1, r2
 80009d2:	4618      	mov	r0, r3
 80009d4:	f7ff fede 	bl	8000794 <getGPIOConfig>

	uint8_t page_start[firstBytes];
 80009d8:	f897 1026 	ldrb.w	r1, [r7, #38]	; 0x26
 80009dc:	460b      	mov	r3, r1
 80009de:	3b01      	subs	r3, #1
 80009e0:	623b      	str	r3, [r7, #32]
 80009e2:	b2cb      	uxtb	r3, r1
 80009e4:	2200      	movs	r2, #0
 80009e6:	4698      	mov	r8, r3
 80009e8:	4691      	mov	r9, r2
 80009ea:	f04f 0200 	mov.w	r2, #0
 80009ee:	f04f 0300 	mov.w	r3, #0
 80009f2:	ea4f 03c9 	mov.w	r3, r9, lsl #3
 80009f6:	ea43 7358 	orr.w	r3, r3, r8, lsr #29
 80009fa:	ea4f 02c8 	mov.w	r2, r8, lsl #3
 80009fe:	b2cb      	uxtb	r3, r1
 8000a00:	2200      	movs	r2, #0
 8000a02:	461c      	mov	r4, r3
 8000a04:	4615      	mov	r5, r2
 8000a06:	f04f 0200 	mov.w	r2, #0
 8000a0a:	f04f 0300 	mov.w	r3, #0
 8000a0e:	00eb      	lsls	r3, r5, #3
 8000a10:	ea43 7354 	orr.w	r3, r3, r4, lsr #29
 8000a14:	00e2      	lsls	r2, r4, #3
 8000a16:	460b      	mov	r3, r1
 8000a18:	3307      	adds	r3, #7
 8000a1a:	08db      	lsrs	r3, r3, #3
 8000a1c:	00db      	lsls	r3, r3, #3
 8000a1e:	ebad 0d03 	sub.w	sp, sp, r3
 8000a22:	ab04      	add	r3, sp, #16
 8000a24:	3300      	adds	r3, #0
 8000a26:	61fb      	str	r3, [r7, #28]
	for (int i = 0; i < firstBytes; i++) {
 8000a28:	2300      	movs	r3, #0
 8000a2a:	637b      	str	r3, [r7, #52]	; 0x34
 8000a2c:	e007      	b.n	8000a3e <find_next_blank_page+0x8e>
		page_start[i] = 0;
 8000a2e:	69fa      	ldr	r2, [r7, #28]
 8000a30:	6b7b      	ldr	r3, [r7, #52]	; 0x34
 8000a32:	4413      	add	r3, r2
 8000a34:	2200      	movs	r2, #0
 8000a36:	701a      	strb	r2, [r3, #0]
	for (int i = 0; i < firstBytes; i++) {
 8000a38:	6b7b      	ldr	r3, [r7, #52]	; 0x34
 8000a3a:	3301      	adds	r3, #1
 8000a3c:	637b      	str	r3, [r7, #52]	; 0x34
 8000a3e:	f897 3026 	ldrb.w	r3, [r7, #38]	; 0x26
 8000a42:	6b7a      	ldr	r2, [r7, #52]	; 0x34
 8000a44:	429a      	cmp	r2, r3
 8000a46:	dbf2      	blt.n	8000a2e <find_next_blank_page+0x7e>
	}

	uint32_t page_start_concat = (page_start[0] << 24) | (page_start[1] << 16) | (page_start[2] << 8) | page_start[3];
 8000a48:	69fb      	ldr	r3, [r7, #28]
 8000a4a:	781b      	ldrb	r3, [r3, #0]
 8000a4c:	061a      	lsls	r2, r3, #24
 8000a4e:	69fb      	ldr	r3, [r7, #28]
 8000a50:	785b      	ldrb	r3, [r3, #1]
 8000a52:	041b      	lsls	r3, r3, #16
 8000a54:	431a      	orrs	r2, r3
 8000a56:	69fb      	ldr	r3, [r7, #28]
 8000a58:	789b      	ldrb	r3, [r3, #2]
 8000a5a:	021b      	lsls	r3, r3, #8
 8000a5c:	4313      	orrs	r3, r2
 8000a5e:	69fa      	ldr	r2, [r7, #28]
 8000a60:	78d2      	ldrb	r2, [r2, #3]
 8000a62:	4313      	orrs	r3, r2
 8000a64:	633b      	str	r3, [r7, #48]	; 0x30
	uint32_t temp = 0;
 8000a66:	2300      	movs	r3, #0
 8000a68:	62fb      	str	r3, [r7, #44]	; 0x2c
	uint32_t page_address = temp;
 8000a6a:	6afb      	ldr	r3, [r7, #44]	; 0x2c
 8000a6c:	62bb      	str	r3, [r7, #40]	; 0x28

	while ((page_start_concat != 0xFFFFFFFF) || (temp == NUM_OF_PAGES)) {
 8000a6e:	e034      	b.n	8000ada <find_next_blank_page+0x12a>
		page_address = temp;
 8000a70:	6afb      	ldr	r3, [r7, #44]	; 0x2c
 8000a72:	62bb      	str	r3, [r7, #40]	; 0x28

		uint8_t busy = 0x01;
 8000a74:	2301      	movs	r3, #1
 8000a76:	f887 3027 	strb.w	r3, [r7, #39]	; 0x27
		while(busy) {
 8000a7a:	e009      	b.n	8000a90 <find_next_blank_page+0xe0>
			busy = (check_status_register(hspi, flashNo) & 0x01);	// Check if there is a write in progress
 8000a7c:	78fb      	ldrb	r3, [r7, #3]
 8000a7e:	4619      	mov	r1, r3
 8000a80:	68f8      	ldr	r0, [r7, #12]
 8000a82:	f7ff ff7b 	bl	800097c <check_status_register>
 8000a86:	4603      	mov	r3, r0
 8000a88:	f003 0301 	and.w	r3, r3, #1
 8000a8c:	f887 3027 	strb.w	r3, [r7, #39]	; 0x27
		while(busy) {
 8000a90:	f897 3027 	ldrb.w	r3, [r7, #39]	; 0x27
 8000a94:	2b00      	cmp	r3, #0
 8000a96:	d1f1      	bne.n	8000a7c <find_next_blank_page+0xcc>
		}

		spi_read_data(&FLASH_READEN, firstBytes, page_start, hspi, page_address, config.GPIOx, config.GPIO_Pin_CS);
 8000a98:	f897 3026 	ldrb.w	r3, [r7, #38]	; 0x26
 8000a9c:	b299      	uxth	r1, r3
 8000a9e:	697b      	ldr	r3, [r7, #20]
 8000aa0:	8b3a      	ldrh	r2, [r7, #24]
 8000aa2:	9202      	str	r2, [sp, #8]
 8000aa4:	9301      	str	r3, [sp, #4]
 8000aa6:	6abb      	ldr	r3, [r7, #40]	; 0x28
 8000aa8:	9300      	str	r3, [sp, #0]
 8000aaa:	68fb      	ldr	r3, [r7, #12]
 8000aac:	69fa      	ldr	r2, [r7, #28]
 8000aae:	4816      	ldr	r0, [pc, #88]	; (8000b08 <find_next_blank_page+0x158>)
 8000ab0:	f000 ff52 	bl	8001958 <spi_read_data>

		page_start_concat = (page_start[0] << 24) | (page_start[1] << 16) | (page_start[2] << 8) | page_start[3];
 8000ab4:	69fb      	ldr	r3, [r7, #28]
 8000ab6:	781b      	ldrb	r3, [r3, #0]
 8000ab8:	061a      	lsls	r2, r3, #24
 8000aba:	69fb      	ldr	r3, [r7, #28]
 8000abc:	785b      	ldrb	r3, [r3, #1]
 8000abe:	041b      	lsls	r3, r3, #16
 8000ac0:	431a      	orrs	r2, r3
 8000ac2:	69fb      	ldr	r3, [r7, #28]
 8000ac4:	789b      	ldrb	r3, [r3, #2]
 8000ac6:	021b      	lsls	r3, r3, #8
 8000ac8:	4313      	orrs	r3, r2
 8000aca:	69fa      	ldr	r2, [r7, #28]
 8000acc:	78d2      	ldrb	r2, [r2, #3]
 8000ace:	4313      	orrs	r3, r2
 8000ad0:	633b      	str	r3, [r7, #48]	; 0x30
		temp += PAGE_SIZE;
 8000ad2:	6afb      	ldr	r3, [r7, #44]	; 0x2c
 8000ad4:	f503 7380 	add.w	r3, r3, #256	; 0x100
 8000ad8:	62fb      	str	r3, [r7, #44]	; 0x2c
	while ((page_start_concat != 0xFFFFFFFF) || (temp == NUM_OF_PAGES)) {
 8000ada:	6b3b      	ldr	r3, [r7, #48]	; 0x30
 8000adc:	f1b3 3fff 	cmp.w	r3, #4294967295	; 0xffffffff
 8000ae0:	d1c6      	bne.n	8000a70 <find_next_blank_page+0xc0>
 8000ae2:	6afb      	ldr	r3, [r7, #44]	; 0x2c
 8000ae4:	f5b3 3f80 	cmp.w	r3, #65536	; 0x10000
 8000ae8:	d0c2      	beq.n	8000a70 <find_next_blank_page+0xc0>
	}

	if (page_address == (NUM_OF_PAGES * PAGE_SIZE)) {
 8000aea:	6abb      	ldr	r3, [r7, #40]	; 0x28
 8000aec:	f1b3 7f80 	cmp.w	r3, #16777216	; 0x1000000
 8000af0:	d102      	bne.n	8000af8 <find_next_blank_page+0x148>
		*end_of_flash_ptr = GPIO_PIN_RESET;
 8000af2:	687b      	ldr	r3, [r7, #4]
 8000af4:	2200      	movs	r2, #0
 8000af6:	701a      	strb	r2, [r3, #0]
	}
	return page_address;
 8000af8:	6abb      	ldr	r3, [r7, #40]	; 0x28
 8000afa:	46b5      	mov	sp, r6
}
 8000afc:	4618      	mov	r0, r3
 8000afe:	373c      	adds	r7, #60	; 0x3c
 8000b00:	46bd      	mov	sp, r7
 8000b02:	e8bd 83f0 	ldmia.w	sp!, {r4, r5, r6, r7, r8, r9, pc}
 8000b06:	bf00      	nop
 8000b08:	2000000f 	.word	0x2000000f

08000b0c <read_page_spi>:

void read_page_spi(uint8_t data_read[PAGE_SIZE], SPI_HandleTypeDef *hspi, uint32_t addr, uint8_t flashNo) {
 8000b0c:	b580      	push	{r7, lr}
 8000b0e:	b08c      	sub	sp, #48	; 0x30
 8000b10:	af04      	add	r7, sp, #16
 8000b12:	60f8      	str	r0, [r7, #12]
 8000b14:	60b9      	str	r1, [r7, #8]
 8000b16:	607a      	str	r2, [r7, #4]
 8000b18:	70fb      	strb	r3, [r7, #3]
	GPIO_Config config = getGPIOConfig(flashNo);
 8000b1a:	f107 0314 	add.w	r3, r7, #20
 8000b1e:	78fa      	ldrb	r2, [r7, #3]
 8000b20:	4611      	mov	r1, r2
 8000b22:	4618      	mov	r0, r3
 8000b24:	f7ff fe36 	bl	8000794 <getGPIOConfig>

	// Read the status register to ensure no write is currently in progress
	uint8_t busy = 0x01;
 8000b28:	2301      	movs	r3, #1
 8000b2a:	77fb      	strb	r3, [r7, #31]
	while(busy) {
 8000b2c:	e008      	b.n	8000b40 <read_page_spi+0x34>
		busy = (check_status_register(hspi, flashNo) & 0x01);	// Check if there is a write in progress
 8000b2e:	78fb      	ldrb	r3, [r7, #3]
 8000b30:	4619      	mov	r1, r3
 8000b32:	68b8      	ldr	r0, [r7, #8]
 8000b34:	f7ff ff22 	bl	800097c <check_status_register>
 8000b38:	4603      	mov	r3, r0
 8000b3a:	f003 0301 	and.w	r3, r3, #1
 8000b3e:	77fb      	strb	r3, [r7, #31]
	while(busy) {
 8000b40:	7ffb      	ldrb	r3, [r7, #31]
 8000b42:	2b00      	cmp	r3, #0
 8000b44:	d1f3      	bne.n	8000b2e <read_page_spi+0x22>
	}

	spi_read_data(&FLASH_READEN, PAGE_SIZE, data_read, hspi, addr, config.GPIOx, config.GPIO_Pin_CS);
 8000b46:	697b      	ldr	r3, [r7, #20]
 8000b48:	8b3a      	ldrh	r2, [r7, #24]
 8000b4a:	9202      	str	r2, [sp, #8]
 8000b4c:	9301      	str	r3, [sp, #4]
 8000b4e:	687b      	ldr	r3, [r7, #4]
 8000b50:	9300      	str	r3, [sp, #0]
 8000b52:	68bb      	ldr	r3, [r7, #8]
 8000b54:	68fa      	ldr	r2, [r7, #12]
 8000b56:	f44f 7180 	mov.w	r1, #256	; 0x100
 8000b5a:	4803      	ldr	r0, [pc, #12]	; (8000b68 <read_page_spi+0x5c>)
 8000b5c:	f000 fefc 	bl	8001958 <spi_read_data>
}
 8000b60:	bf00      	nop
 8000b62:	3720      	adds	r7, #32
 8000b64:	46bd      	mov	sp, r7
 8000b66:	bd80      	pop	{r7, pc}
 8000b68:	2000000f 	.word	0x2000000f

08000b6c <read_manufacturer_id>:

void read_manufacturer_id(uint8_t manu[2], SPI_HandleTypeDef *hspi, uint8_t flashNo) {
 8000b6c:	b580      	push	{r7, lr}
 8000b6e:	b08c      	sub	sp, #48	; 0x30
 8000b70:	af04      	add	r7, sp, #16
 8000b72:	60f8      	str	r0, [r7, #12]
 8000b74:	60b9      	str	r1, [r7, #8]
 8000b76:	4613      	mov	r3, r2
 8000b78:	71fb      	strb	r3, [r7, #7]
	GPIO_Config config = getGPIOConfig(flashNo);
 8000b7a:	f107 0314 	add.w	r3, r7, #20
 8000b7e:	79fa      	ldrb	r2, [r7, #7]
 8000b80:	4611      	mov	r1, r2
 8000b82:	4618      	mov	r0, r3
 8000b84:	f7ff fe06 	bl	8000794 <getGPIOConfig>

	// Read the status register to ensure no write is currently in progress
	uint8_t busy = 0x01;
 8000b88:	2301      	movs	r3, #1
 8000b8a:	77fb      	strb	r3, [r7, #31]
	while(busy) {
 8000b8c:	e008      	b.n	8000ba0 <read_manufacturer_id+0x34>
		busy = (check_status_register(hspi, flashNo) & 0x01);	// Check if there is a write in progress
 8000b8e:	79fb      	ldrb	r3, [r7, #7]
 8000b90:	4619      	mov	r1, r3
 8000b92:	68b8      	ldr	r0, [r7, #8]
 8000b94:	f7ff fef2 	bl	800097c <check_status_register>
 8000b98:	4603      	mov	r3, r0
 8000b9a:	f003 0301 	and.w	r3, r3, #1
 8000b9e:	77fb      	strb	r3, [r7, #31]
	while(busy) {
 8000ba0:	7ffb      	ldrb	r3, [r7, #31]
 8000ba2:	2b00      	cmp	r3, #0
 8000ba4:	d1f3      	bne.n	8000b8e <read_manufacturer_id+0x22>
	}

	uint8_t addr = 0x00;
 8000ba6:	2300      	movs	r3, #0
 8000ba8:	77bb      	strb	r3, [r7, #30]

	// Read the entire contents of a page starting from the given address
	spi_read_data(&FLASH_READ_MANU, 2, manu, hspi, addr, config.GPIOx, config.GPIO_Pin_CS);
 8000baa:	7fbb      	ldrb	r3, [r7, #30]
 8000bac:	697a      	ldr	r2, [r7, #20]
 8000bae:	8b39      	ldrh	r1, [r7, #24]
 8000bb0:	9102      	str	r1, [sp, #8]
 8000bb2:	9201      	str	r2, [sp, #4]
 8000bb4:	9300      	str	r3, [sp, #0]
 8000bb6:	68bb      	ldr	r3, [r7, #8]
 8000bb8:	68fa      	ldr	r2, [r7, #12]
 8000bba:	2102      	movs	r1, #2
 8000bbc:	4803      	ldr	r0, [pc, #12]	; (8000bcc <read_manufacturer_id+0x60>)
 8000bbe:	f000 fecb 	bl	8001958 <spi_read_data>
}
 8000bc2:	bf00      	nop
 8000bc4:	3720      	adds	r7, #32
 8000bc6:	46bd      	mov	sp, r7
 8000bc8:	bd80      	pop	{r7, pc}
 8000bca:	bf00      	nop
 8000bcc:	20000010 	.word	0x20000010

08000bd0 <i2c_read_reg>:
 *      Author: aidencontini
 */

#include "i2c_driver.h"

uint8_t i2c_read_reg(I2C_HandleTypeDef* hi2c, uint8_t dev_addr, uint8_t* register_addr) {
 8000bd0:	b580      	push	{r7, lr}
 8000bd2:	b088      	sub	sp, #32
 8000bd4:	af02      	add	r7, sp, #8
 8000bd6:	60f8      	str	r0, [r7, #12]
 8000bd8:	460b      	mov	r3, r1
 8000bda:	607a      	str	r2, [r7, #4]
 8000bdc:	72fb      	strb	r3, [r7, #11]
	uint8_t read = 0x00;
 8000bde:	2300      	movs	r3, #0
 8000be0:	75fb      	strb	r3, [r7, #23]
	HAL_I2C_Master_Transmit(hi2c, (dev_addr << 1) | 0x00, register_addr, 1, 100);
 8000be2:	7afb      	ldrb	r3, [r7, #11]
 8000be4:	b29b      	uxth	r3, r3
 8000be6:	005b      	lsls	r3, r3, #1
 8000be8:	b299      	uxth	r1, r3
 8000bea:	2364      	movs	r3, #100	; 0x64
 8000bec:	9300      	str	r3, [sp, #0]
 8000bee:	2301      	movs	r3, #1
 8000bf0:	687a      	ldr	r2, [r7, #4]
 8000bf2:	68f8      	ldr	r0, [r7, #12]
 8000bf4:	f001 ff8a 	bl	8002b0c <HAL_I2C_Master_Transmit>
	HAL_I2C_Master_Receive(hi2c, (dev_addr << 1) | 0x01, &read, 1, 100);
 8000bf8:	7afb      	ldrb	r3, [r7, #11]
 8000bfa:	005b      	lsls	r3, r3, #1
 8000bfc:	b21b      	sxth	r3, r3
 8000bfe:	f043 0301 	orr.w	r3, r3, #1
 8000c02:	b21b      	sxth	r3, r3
 8000c04:	b299      	uxth	r1, r3
 8000c06:	f107 0217 	add.w	r2, r7, #23
 8000c0a:	2364      	movs	r3, #100	; 0x64
 8000c0c:	9300      	str	r3, [sp, #0]
 8000c0e:	2301      	movs	r3, #1
 8000c10:	68f8      	ldr	r0, [r7, #12]
 8000c12:	f002 f879 	bl	8002d08 <HAL_I2C_Master_Receive>
	return read;
 8000c16:	7dfb      	ldrb	r3, [r7, #23]
}
 8000c18:	4618      	mov	r0, r3
 8000c1a:	3718      	adds	r7, #24
 8000c1c:	46bd      	mov	sp, r7
 8000c1e:	bd80      	pop	{r7, pc}

08000c20 <i2c_burst_read>:

void i2c_burst_read(I2C_HandleTypeDef* hi2c, uint8_t dev_addr, uint8_t register_addr, uint8_t size, uint8_t data_buffer[size]) {
 8000c20:	b580      	push	{r7, lr}
 8000c22:	b086      	sub	sp, #24
 8000c24:	af02      	add	r7, sp, #8
 8000c26:	6078      	str	r0, [r7, #4]
 8000c28:	4608      	mov	r0, r1
 8000c2a:	4611      	mov	r1, r2
 8000c2c:	461a      	mov	r2, r3
 8000c2e:	4603      	mov	r3, r0
 8000c30:	70fb      	strb	r3, [r7, #3]
 8000c32:	460b      	mov	r3, r1
 8000c34:	70bb      	strb	r3, [r7, #2]
 8000c36:	4613      	mov	r3, r2
 8000c38:	707b      	strb	r3, [r7, #1]
	// In order to read multiple bytes, it is necessary to assert the most significant bit of the sub-address field.
	uint8_t addr = register_addr | 0x80;
 8000c3a:	78bb      	ldrb	r3, [r7, #2]
 8000c3c:	f063 037f 	orn	r3, r3, #127	; 0x7f
 8000c40:	b2db      	uxtb	r3, r3
 8000c42:	73fb      	strb	r3, [r7, #15]
	HAL_I2C_Master_Transmit(hi2c, (dev_addr << 1) | 0x00, &addr, 1, 100);
 8000c44:	78fb      	ldrb	r3, [r7, #3]
 8000c46:	b29b      	uxth	r3, r3
 8000c48:	005b      	lsls	r3, r3, #1
 8000c4a:	b299      	uxth	r1, r3
 8000c4c:	f107 020f 	add.w	r2, r7, #15
 8000c50:	2364      	movs	r3, #100	; 0x64
 8000c52:	9300      	str	r3, [sp, #0]
 8000c54:	2301      	movs	r3, #1
 8000c56:	6878      	ldr	r0, [r7, #4]
 8000c58:	f001 ff58 	bl	8002b0c <HAL_I2C_Master_Transmit>
	HAL_I2C_Master_Receive(hi2c, (dev_addr << 1) | 0x01, data_buffer, size, 100);
 8000c5c:	78fb      	ldrb	r3, [r7, #3]
 8000c5e:	005b      	lsls	r3, r3, #1
 8000c60:	b21b      	sxth	r3, r3
 8000c62:	f043 0301 	orr.w	r3, r3, #1
 8000c66:	b21b      	sxth	r3, r3
 8000c68:	b299      	uxth	r1, r3
 8000c6a:	787b      	ldrb	r3, [r7, #1]
 8000c6c:	b29b      	uxth	r3, r3
 8000c6e:	2264      	movs	r2, #100	; 0x64
 8000c70:	9200      	str	r2, [sp, #0]
 8000c72:	69ba      	ldr	r2, [r7, #24]
 8000c74:	6878      	ldr	r0, [r7, #4]
 8000c76:	f002 f847 	bl	8002d08 <HAL_I2C_Master_Receive>
}
 8000c7a:	bf00      	nop
 8000c7c:	3710      	adds	r7, #16
 8000c7e:	46bd      	mov	sp, r7
 8000c80:	bd80      	pop	{r7, pc}

08000c82 <i2c_write_reg>:

HAL_StatusTypeDef i2c_write_reg(I2C_HandleTypeDef* hi2c, uint8_t dev_addr, uint8_t* register_addr, uint8_t data) {
 8000c82:	b580      	push	{r7, lr}
 8000c84:	b088      	sub	sp, #32
 8000c86:	af02      	add	r7, sp, #8
 8000c88:	60f8      	str	r0, [r7, #12]
 8000c8a:	607a      	str	r2, [r7, #4]
 8000c8c:	461a      	mov	r2, r3
 8000c8e:	460b      	mov	r3, r1
 8000c90:	72fb      	strb	r3, [r7, #11]
 8000c92:	4613      	mov	r3, r2
 8000c94:	72bb      	strb	r3, [r7, #10]
	uint8_t data_tx[2] = {*register_addr, data};
 8000c96:	687b      	ldr	r3, [r7, #4]
 8000c98:	781b      	ldrb	r3, [r3, #0]
 8000c9a:	753b      	strb	r3, [r7, #20]
 8000c9c:	7abb      	ldrb	r3, [r7, #10]
 8000c9e:	757b      	strb	r3, [r7, #21]
	return HAL_I2C_Master_Transmit(hi2c, (dev_addr << 1) | 0x00, data_tx, 2, 100);
 8000ca0:	7afb      	ldrb	r3, [r7, #11]
 8000ca2:	b29b      	uxth	r3, r3
 8000ca4:	005b      	lsls	r3, r3, #1
 8000ca6:	b299      	uxth	r1, r3
 8000ca8:	f107 0214 	add.w	r2, r7, #20
 8000cac:	2364      	movs	r3, #100	; 0x64
 8000cae:	9300      	str	r3, [sp, #0]
 8000cb0:	2302      	movs	r3, #2
 8000cb2:	68f8      	ldr	r0, [r7, #12]
 8000cb4:	f001 ff2a 	bl	8002b0c <HAL_I2C_Master_Transmit>
 8000cb8:	4603      	mov	r3, r0
}
 8000cba:	4618      	mov	r0, r3
 8000cbc:	3718      	adds	r7, #24
 8000cbe:	46bd      	mov	sp, r7
 8000cc0:	bd80      	pop	{r7, pc}
	...

08000cc4 <main>:
/**
  * @brief  The application entry point.
  * @retval int
  */
int main(void)
{
 8000cc4:	b580      	push	{r7, lr}
 8000cc6:	af00      	add	r7, sp, #0
  /* USER CODE END 1 */

  /* MCU Configuration--------------------------------------------------------*/

  /* Reset of all peripherals, Initializes the Flash interface and the Systick. */
  HAL_Init();
 8000cc8:	f001 f9e6 	bl	8002098 <HAL_Init>
  /* USER CODE BEGIN Init */

  /* USER CODE END Init */

  /* Configure the system clock */
  SystemClock_Config();
 8000ccc:	f000 f854 	bl	8000d78 <SystemClock_Config>
  /* USER CODE BEGIN SysInit */

  /* USER CODE END SysInit */

  /* Initialize all configured peripherals */
  MX_GPIO_Init();
 8000cd0:	f000 f9f0 	bl	80010b4 <MX_GPIO_Init>
  MX_I2C1_Init();
 8000cd4:	f000 f8b2 	bl	8000e3c <MX_I2C1_Init>
  MX_RTC_Init();
 8000cd8:	f000 f930 	bl	8000f3c <MX_RTC_Init>
  MX_SPI1_Init();
 8000cdc:	f000 f954 	bl	8000f88 <MX_SPI1_Init>
  MX_TIM6_Init();
 8000ce0:	f000 f988 	bl	8000ff4 <MX_TIM6_Init>
  MX_USART2_UART_Init();
 8000ce4:	f000 f9bc 	bl	8001060 <MX_USART2_UART_Init>
  MX_I2C2_Init();
 8000ce8:	f000 f8e8 	bl	8000ebc <MX_I2C2_Init>
  /* USER CODE BEGIN 2 */
  HAL_UART_Receive_IT(&huart2, UARTRxData, 2);			// Initiate the UART Receive interrupt
 8000cec:	2202      	movs	r2, #2
 8000cee:	4918      	ldr	r1, [pc, #96]	; (8000d50 <main+0x8c>)
 8000cf0:	4818      	ldr	r0, [pc, #96]	; (8000d54 <main+0x90>)
 8000cf2:	f005 f930 	bl	8005f56 <HAL_UART_Receive_IT>
  HAL_GPIO_WritePin(GPIOB, GPIO_PIN_7, GPIO_PIN_RESET);	// Turn LED off
 8000cf6:	2200      	movs	r2, #0
 8000cf8:	2180      	movs	r1, #128	; 0x80
 8000cfa:	4817      	ldr	r0, [pc, #92]	; (8000d58 <main+0x94>)
 8000cfc:	f001 fd8e 	bl	800281c <HAL_GPIO_WritePin>
  HAL_TIM_Base_Start_IT(&htim6);
 8000d00:	4816      	ldr	r0, [pc, #88]	; (8000d5c <main+0x98>)
 8000d02:	f004 fd7f 	bl	8005804 <HAL_TIM_Base_Start_IT>
  byte_tracker = 0;
 8000d06:	4b16      	ldr	r3, [pc, #88]	; (8000d60 <main+0x9c>)
 8000d08:	2200      	movs	r2, #0
 8000d0a:	801a      	strh	r2, [r3, #0]
  end_of_flash = GPIO_PIN_SET;
 8000d0c:	4b15      	ldr	r3, [pc, #84]	; (8000d64 <main+0xa0>)
 8000d0e:	2201      	movs	r2, #1
 8000d10:	701a      	strb	r2, [r3, #0]
  clean_data_buffer();
 8000d12:	f000 fac5 	bl	80012a0 <clean_data_buffer>
  initialise_rtc_default(&hrtc);
 8000d16:	4814      	ldr	r0, [pc, #80]	; (8000d68 <main+0xa4>)
 8000d18:	f000 fd6c 	bl	80017f4 <initialise_rtc_default>
  init_accel(&hi2c1);
 8000d1c:	4813      	ldr	r0, [pc, #76]	; (8000d6c <main+0xa8>)
 8000d1e:	f7ff fbeb 	bl	80004f8 <init_accel>
  init_bme280(&hi2c2, 0);
 8000d22:	2100      	movs	r1, #0
 8000d24:	4812      	ldr	r0, [pc, #72]	; (8000d70 <main+0xac>)
 8000d26:	f7ff fc2b 	bl	8000580 <init_bme280>
//  init_bme280(&hi2c2, 1);
  HAL_UART_Receive_IT(&huart2, UARTRxData,1);				// Initiate the UART Receive interrupt
 8000d2a:	2201      	movs	r2, #1
 8000d2c:	4908      	ldr	r1, [pc, #32]	; (8000d50 <main+0x8c>)
 8000d2e:	4809      	ldr	r0, [pc, #36]	; (8000d54 <main+0x90>)
 8000d30:	f005 f911 	bl	8005f56 <HAL_UART_Receive_IT>
  HAL_GPIO_WritePin(GPIOD, GPIO_PIN_2, GPIO_PIN_SET);		// SET SPI CS High to disable bus
 8000d34:	2201      	movs	r2, #1
 8000d36:	2104      	movs	r1, #4
 8000d38:	480e      	ldr	r0, [pc, #56]	; (8000d74 <main+0xb0>)
 8000d3a:	f001 fd6f 	bl	800281c <HAL_GPIO_WritePin>
  HAL_GPIO_WritePin(GPIOB, GPIO_PIN_7, GPIO_PIN_RESET);		// Turn LED off
 8000d3e:	2200      	movs	r2, #0
 8000d40:	2180      	movs	r1, #128	; 0x80
 8000d42:	4805      	ldr	r0, [pc, #20]	; (8000d58 <main+0x94>)
 8000d44:	f001 fd6a 	bl	800281c <HAL_GPIO_WritePin>

  /**
  next_blank_page = find_next_blank_page(&hspi1, &huart2, &end_of_flash);
  **/

  HAL_TIM_Base_Start_IT(&htim6);
 8000d48:	4804      	ldr	r0, [pc, #16]	; (8000d5c <main+0x98>)
 8000d4a:	f004 fd5b 	bl	8005804 <HAL_TIM_Base_Start_IT>
  /* USER CODE END 2 */

  /* Infinite loop */
  /* USER CODE BEGIN WHILE */
  while (1)
 8000d4e:	e7fe      	b.n	8000d4e <main+0x8a>
 8000d50:	200001f0 	.word	0x200001f0
 8000d54:	200001a8 	.word	0x200001a8
 8000d58:	40020400 	.word	0x40020400
 8000d5c:	20000160 	.word	0x20000160
 8000d60:	20000310 	.word	0x20000310
 8000d64:	20000312 	.word	0x20000312
 8000d68:	200000e8 	.word	0x200000e8
 8000d6c:	20000040 	.word	0x20000040
 8000d70:	20000094 	.word	0x20000094
 8000d74:	40020c00 	.word	0x40020c00

08000d78 <SystemClock_Config>:
/**
  * @brief System Clock Configuration
  * @retval None
  */
void SystemClock_Config(void)
{
 8000d78:	b580      	push	{r7, lr}
 8000d7a:	b094      	sub	sp, #80	; 0x50
 8000d7c:	af00      	add	r7, sp, #0
  RCC_OscInitTypeDef RCC_OscInitStruct = {0};
 8000d7e:	f107 0320 	add.w	r3, r7, #32
 8000d82:	2230      	movs	r2, #48	; 0x30
 8000d84:	2100      	movs	r1, #0
 8000d86:	4618      	mov	r0, r3
 8000d88:	f006 f860 	bl	8006e4c <memset>
  RCC_ClkInitTypeDef RCC_ClkInitStruct = {0};
 8000d8c:	f107 030c 	add.w	r3, r7, #12
 8000d90:	2200      	movs	r2, #0
 8000d92:	601a      	str	r2, [r3, #0]
 8000d94:	605a      	str	r2, [r3, #4]
 8000d96:	609a      	str	r2, [r3, #8]
 8000d98:	60da      	str	r2, [r3, #12]
 8000d9a:	611a      	str	r2, [r3, #16]

  /** Configure the main internal regulator output voltage
  */
  __HAL_RCC_PWR_CLK_ENABLE();
 8000d9c:	2300      	movs	r3, #0
 8000d9e:	60bb      	str	r3, [r7, #8]
 8000da0:	4b24      	ldr	r3, [pc, #144]	; (8000e34 <SystemClock_Config+0xbc>)
 8000da2:	6c1b      	ldr	r3, [r3, #64]	; 0x40
 8000da4:	4a23      	ldr	r2, [pc, #140]	; (8000e34 <SystemClock_Config+0xbc>)
 8000da6:	f043 5380 	orr.w	r3, r3, #268435456	; 0x10000000
 8000daa:	6413      	str	r3, [r2, #64]	; 0x40
 8000dac:	4b21      	ldr	r3, [pc, #132]	; (8000e34 <SystemClock_Config+0xbc>)
 8000dae:	6c1b      	ldr	r3, [r3, #64]	; 0x40
 8000db0:	f003 5380 	and.w	r3, r3, #268435456	; 0x10000000
 8000db4:	60bb      	str	r3, [r7, #8]
 8000db6:	68bb      	ldr	r3, [r7, #8]
  __HAL_PWR_VOLTAGESCALING_CONFIG(PWR_REGULATOR_VOLTAGE_SCALE3);
 8000db8:	2300      	movs	r3, #0
 8000dba:	607b      	str	r3, [r7, #4]
 8000dbc:	4b1e      	ldr	r3, [pc, #120]	; (8000e38 <SystemClock_Config+0xc0>)
 8000dbe:	681b      	ldr	r3, [r3, #0]
 8000dc0:	f423 4340 	bic.w	r3, r3, #49152	; 0xc000
 8000dc4:	4a1c      	ldr	r2, [pc, #112]	; (8000e38 <SystemClock_Config+0xc0>)
 8000dc6:	f443 4380 	orr.w	r3, r3, #16384	; 0x4000
 8000dca:	6013      	str	r3, [r2, #0]
 8000dcc:	4b1a      	ldr	r3, [pc, #104]	; (8000e38 <SystemClock_Config+0xc0>)
 8000dce:	681b      	ldr	r3, [r3, #0]
 8000dd0:	f403 4340 	and.w	r3, r3, #49152	; 0xc000
 8000dd4:	607b      	str	r3, [r7, #4]
 8000dd6:	687b      	ldr	r3, [r7, #4]

  /** Initializes the RCC Oscillators according to the specified parameters
  * in the RCC_OscInitTypeDef structure.
  */
  RCC_OscInitStruct.OscillatorType = RCC_OSCILLATORTYPE_HSI|RCC_OSCILLATORTYPE_LSI;
 8000dd8:	230a      	movs	r3, #10
 8000dda:	623b      	str	r3, [r7, #32]
  RCC_OscInitStruct.HSIState = RCC_HSI_ON;
 8000ddc:	2301      	movs	r3, #1
 8000dde:	62fb      	str	r3, [r7, #44]	; 0x2c
  RCC_OscInitStruct.HSICalibrationValue = RCC_HSICALIBRATION_DEFAULT;
 8000de0:	2310      	movs	r3, #16
 8000de2:	633b      	str	r3, [r7, #48]	; 0x30
  RCC_OscInitStruct.LSIState = RCC_LSI_ON;
 8000de4:	2301      	movs	r3, #1
 8000de6:	637b      	str	r3, [r7, #52]	; 0x34
  RCC_OscInitStruct.PLL.PLLState = RCC_PLL_NONE;
 8000de8:	2300      	movs	r3, #0
 8000dea:	63bb      	str	r3, [r7, #56]	; 0x38
  if (HAL_RCC_OscConfig(&RCC_OscInitStruct) != HAL_OK)
 8000dec:	f107 0320 	add.w	r3, r7, #32
 8000df0:	4618      	mov	r0, r3
 8000df2:	f002 fdbd 	bl	8003970 <HAL_RCC_OscConfig>
 8000df6:	4603      	mov	r3, r0
 8000df8:	2b00      	cmp	r3, #0
 8000dfa:	d001      	beq.n	8000e00 <SystemClock_Config+0x88>
  {
    Error_Handler();
 8000dfc:	f000 fa6a 	bl	80012d4 <Error_Handler>
  }

  /** Initializes the CPU, AHB and APB buses clocks
  */
  RCC_ClkInitStruct.ClockType = RCC_CLOCKTYPE_HCLK|RCC_CLOCKTYPE_SYSCLK
 8000e00:	230f      	movs	r3, #15
 8000e02:	60fb      	str	r3, [r7, #12]
                              |RCC_CLOCKTYPE_PCLK1|RCC_CLOCKTYPE_PCLK2;
  RCC_ClkInitStruct.SYSCLKSource = RCC_SYSCLKSOURCE_HSI;
 8000e04:	2300      	movs	r3, #0
 8000e06:	613b      	str	r3, [r7, #16]
  RCC_ClkInitStruct.AHBCLKDivider = RCC_SYSCLK_DIV1;
 8000e08:	2300      	movs	r3, #0
 8000e0a:	617b      	str	r3, [r7, #20]
  RCC_ClkInitStruct.APB1CLKDivider = RCC_HCLK_DIV1;
 8000e0c:	2300      	movs	r3, #0
 8000e0e:	61bb      	str	r3, [r7, #24]
  RCC_ClkInitStruct.APB2CLKDivider = RCC_HCLK_DIV1;
 8000e10:	2300      	movs	r3, #0
 8000e12:	61fb      	str	r3, [r7, #28]

  if (HAL_RCC_ClockConfig(&RCC_ClkInitStruct, FLASH_LATENCY_0) != HAL_OK)
 8000e14:	f107 030c 	add.w	r3, r7, #12
 8000e18:	2100      	movs	r1, #0
 8000e1a:	4618      	mov	r0, r3
 8000e1c:	f003 f820 	bl	8003e60 <HAL_RCC_ClockConfig>
 8000e20:	4603      	mov	r3, r0
 8000e22:	2b00      	cmp	r3, #0
 8000e24:	d001      	beq.n	8000e2a <SystemClock_Config+0xb2>
  {
    Error_Handler();
 8000e26:	f000 fa55 	bl	80012d4 <Error_Handler>
  }
}
 8000e2a:	bf00      	nop
 8000e2c:	3750      	adds	r7, #80	; 0x50
 8000e2e:	46bd      	mov	sp, r7
 8000e30:	bd80      	pop	{r7, pc}
 8000e32:	bf00      	nop
 8000e34:	40023800 	.word	0x40023800
 8000e38:	40007000 	.word	0x40007000

08000e3c <MX_I2C1_Init>:
  * @brief I2C1 Initialization Function
  * @param None
  * @retval None
  */
static void MX_I2C1_Init(void)
{
 8000e3c:	b580      	push	{r7, lr}
 8000e3e:	af00      	add	r7, sp, #0
  /* USER CODE END I2C1_Init 0 */

  /* USER CODE BEGIN I2C1_Init 1 */

  /* USER CODE END I2C1_Init 1 */
  hi2c1.Instance = I2C1;
 8000e40:	4b1b      	ldr	r3, [pc, #108]	; (8000eb0 <MX_I2C1_Init+0x74>)
 8000e42:	4a1c      	ldr	r2, [pc, #112]	; (8000eb4 <MX_I2C1_Init+0x78>)
 8000e44:	601a      	str	r2, [r3, #0]
  hi2c1.Init.ClockSpeed = 100000;
 8000e46:	4b1a      	ldr	r3, [pc, #104]	; (8000eb0 <MX_I2C1_Init+0x74>)
 8000e48:	4a1b      	ldr	r2, [pc, #108]	; (8000eb8 <MX_I2C1_Init+0x7c>)
 8000e4a:	605a      	str	r2, [r3, #4]
  hi2c1.Init.DutyCycle = I2C_DUTYCYCLE_2;
 8000e4c:	4b18      	ldr	r3, [pc, #96]	; (8000eb0 <MX_I2C1_Init+0x74>)
 8000e4e:	2200      	movs	r2, #0
 8000e50:	609a      	str	r2, [r3, #8]
  hi2c1.Init.OwnAddress1 = 0;
 8000e52:	4b17      	ldr	r3, [pc, #92]	; (8000eb0 <MX_I2C1_Init+0x74>)
 8000e54:	2200      	movs	r2, #0
 8000e56:	60da      	str	r2, [r3, #12]
  hi2c1.Init.AddressingMode = I2C_ADDRESSINGMODE_7BIT;
 8000e58:	4b15      	ldr	r3, [pc, #84]	; (8000eb0 <MX_I2C1_Init+0x74>)
 8000e5a:	f44f 4280 	mov.w	r2, #16384	; 0x4000
 8000e5e:	611a      	str	r2, [r3, #16]
  hi2c1.Init.DualAddressMode = I2C_DUALADDRESS_DISABLE;
 8000e60:	4b13      	ldr	r3, [pc, #76]	; (8000eb0 <MX_I2C1_Init+0x74>)
 8000e62:	2200      	movs	r2, #0
 8000e64:	615a      	str	r2, [r3, #20]
  hi2c1.Init.OwnAddress2 = 0;
 8000e66:	4b12      	ldr	r3, [pc, #72]	; (8000eb0 <MX_I2C1_Init+0x74>)
 8000e68:	2200      	movs	r2, #0
 8000e6a:	619a      	str	r2, [r3, #24]
  hi2c1.Init.GeneralCallMode = I2C_GENERALCALL_DISABLE;
 8000e6c:	4b10      	ldr	r3, [pc, #64]	; (8000eb0 <MX_I2C1_Init+0x74>)
 8000e6e:	2200      	movs	r2, #0
 8000e70:	61da      	str	r2, [r3, #28]
  hi2c1.Init.NoStretchMode = I2C_NOSTRETCH_DISABLE;
 8000e72:	4b0f      	ldr	r3, [pc, #60]	; (8000eb0 <MX_I2C1_Init+0x74>)
 8000e74:	2200      	movs	r2, #0
 8000e76:	621a      	str	r2, [r3, #32]
  if (HAL_I2C_Init(&hi2c1) != HAL_OK)
 8000e78:	480d      	ldr	r0, [pc, #52]	; (8000eb0 <MX_I2C1_Init+0x74>)
 8000e7a:	f001 fd03 	bl	8002884 <HAL_I2C_Init>
 8000e7e:	4603      	mov	r3, r0
 8000e80:	2b00      	cmp	r3, #0
 8000e82:	d001      	beq.n	8000e88 <MX_I2C1_Init+0x4c>
  {
    Error_Handler();
 8000e84:	f000 fa26 	bl	80012d4 <Error_Handler>
  }

  /** Configure Analogue filter
  */
  if (HAL_I2CEx_ConfigAnalogFilter(&hi2c1, I2C_ANALOGFILTER_ENABLE) != HAL_OK)
 8000e88:	2100      	movs	r1, #0
 8000e8a:	4809      	ldr	r0, [pc, #36]	; (8000eb0 <MX_I2C1_Init+0x74>)
 8000e8c:	f002 fcf4 	bl	8003878 <HAL_I2CEx_ConfigAnalogFilter>
 8000e90:	4603      	mov	r3, r0
 8000e92:	2b00      	cmp	r3, #0
 8000e94:	d001      	beq.n	8000e9a <MX_I2C1_Init+0x5e>
  {
    Error_Handler();
 8000e96:	f000 fa1d 	bl	80012d4 <Error_Handler>
  }

  /** Configure Digital filter
  */
  if (HAL_I2CEx_ConfigDigitalFilter(&hi2c1, 0) != HAL_OK)
 8000e9a:	2100      	movs	r1, #0
 8000e9c:	4804      	ldr	r0, [pc, #16]	; (8000eb0 <MX_I2C1_Init+0x74>)
 8000e9e:	f002 fd27 	bl	80038f0 <HAL_I2CEx_ConfigDigitalFilter>
 8000ea2:	4603      	mov	r3, r0
 8000ea4:	2b00      	cmp	r3, #0
 8000ea6:	d001      	beq.n	8000eac <MX_I2C1_Init+0x70>
  {
    Error_Handler();
 8000ea8:	f000 fa14 	bl	80012d4 <Error_Handler>
  }
  /* USER CODE BEGIN I2C1_Init 2 */

  /* USER CODE END I2C1_Init 2 */

}
 8000eac:	bf00      	nop
 8000eae:	bd80      	pop	{r7, pc}
 8000eb0:	20000040 	.word	0x20000040
 8000eb4:	40005400 	.word	0x40005400
 8000eb8:	000186a0 	.word	0x000186a0

08000ebc <MX_I2C2_Init>:
  * @brief I2C2 Initialization Function
  * @param None
  * @retval None
  */
static void MX_I2C2_Init(void)
{
 8000ebc:	b580      	push	{r7, lr}
 8000ebe:	af00      	add	r7, sp, #0
  /* USER CODE END I2C2_Init 0 */

  /* USER CODE BEGIN I2C2_Init 1 */

  /* USER CODE END I2C2_Init 1 */
  hi2c2.Instance = I2C2;
 8000ec0:	4b1b      	ldr	r3, [pc, #108]	; (8000f30 <MX_I2C2_Init+0x74>)
 8000ec2:	4a1c      	ldr	r2, [pc, #112]	; (8000f34 <MX_I2C2_Init+0x78>)
 8000ec4:	601a      	str	r2, [r3, #0]
  hi2c2.Init.ClockSpeed = 100000;
 8000ec6:	4b1a      	ldr	r3, [pc, #104]	; (8000f30 <MX_I2C2_Init+0x74>)
 8000ec8:	4a1b      	ldr	r2, [pc, #108]	; (8000f38 <MX_I2C2_Init+0x7c>)
 8000eca:	605a      	str	r2, [r3, #4]
  hi2c2.Init.DutyCycle = I2C_DUTYCYCLE_2;
 8000ecc:	4b18      	ldr	r3, [pc, #96]	; (8000f30 <MX_I2C2_Init+0x74>)
 8000ece:	2200      	movs	r2, #0
 8000ed0:	609a      	str	r2, [r3, #8]
  hi2c2.Init.OwnAddress1 = 0;
 8000ed2:	4b17      	ldr	r3, [pc, #92]	; (8000f30 <MX_I2C2_Init+0x74>)
 8000ed4:	2200      	movs	r2, #0
 8000ed6:	60da      	str	r2, [r3, #12]
  hi2c2.Init.AddressingMode = I2C_ADDRESSINGMODE_7BIT;
 8000ed8:	4b15      	ldr	r3, [pc, #84]	; (8000f30 <MX_I2C2_Init+0x74>)
 8000eda:	f44f 4280 	mov.w	r2, #16384	; 0x4000
 8000ede:	611a      	str	r2, [r3, #16]
  hi2c2.Init.DualAddressMode = I2C_DUALADDRESS_DISABLE;
 8000ee0:	4b13      	ldr	r3, [pc, #76]	; (8000f30 <MX_I2C2_Init+0x74>)
 8000ee2:	2200      	movs	r2, #0
 8000ee4:	615a      	str	r2, [r3, #20]
  hi2c2.Init.OwnAddress2 = 0;
 8000ee6:	4b12      	ldr	r3, [pc, #72]	; (8000f30 <MX_I2C2_Init+0x74>)
 8000ee8:	2200      	movs	r2, #0
 8000eea:	619a      	str	r2, [r3, #24]
  hi2c2.Init.GeneralCallMode = I2C_GENERALCALL_DISABLE;
 8000eec:	4b10      	ldr	r3, [pc, #64]	; (8000f30 <MX_I2C2_Init+0x74>)
 8000eee:	2200      	movs	r2, #0
 8000ef0:	61da      	str	r2, [r3, #28]
  hi2c2.Init.NoStretchMode = I2C_NOSTRETCH_DISABLE;
 8000ef2:	4b0f      	ldr	r3, [pc, #60]	; (8000f30 <MX_I2C2_Init+0x74>)
 8000ef4:	2200      	movs	r2, #0
 8000ef6:	621a      	str	r2, [r3, #32]
  if (HAL_I2C_Init(&hi2c2) != HAL_OK)
 8000ef8:	480d      	ldr	r0, [pc, #52]	; (8000f30 <MX_I2C2_Init+0x74>)
 8000efa:	f001 fcc3 	bl	8002884 <HAL_I2C_Init>
 8000efe:	4603      	mov	r3, r0
 8000f00:	2b00      	cmp	r3, #0
 8000f02:	d001      	beq.n	8000f08 <MX_I2C2_Init+0x4c>
  {
    Error_Handler();
 8000f04:	f000 f9e6 	bl	80012d4 <Error_Handler>
  }

  /** Configure Analogue filter
  */
  if (HAL_I2CEx_ConfigAnalogFilter(&hi2c2, I2C_ANALOGFILTER_ENABLE) != HAL_OK)
 8000f08:	2100      	movs	r1, #0
 8000f0a:	4809      	ldr	r0, [pc, #36]	; (8000f30 <MX_I2C2_Init+0x74>)
 8000f0c:	f002 fcb4 	bl	8003878 <HAL_I2CEx_ConfigAnalogFilter>
 8000f10:	4603      	mov	r3, r0
 8000f12:	2b00      	cmp	r3, #0
 8000f14:	d001      	beq.n	8000f1a <MX_I2C2_Init+0x5e>
  {
    Error_Handler();
 8000f16:	f000 f9dd 	bl	80012d4 <Error_Handler>
  }

  /** Configure Digital filter
  */
  if (HAL_I2CEx_ConfigDigitalFilter(&hi2c2, 0) != HAL_OK)
 8000f1a:	2100      	movs	r1, #0
 8000f1c:	4804      	ldr	r0, [pc, #16]	; (8000f30 <MX_I2C2_Init+0x74>)
 8000f1e:	f002 fce7 	bl	80038f0 <HAL_I2CEx_ConfigDigitalFilter>
 8000f22:	4603      	mov	r3, r0
 8000f24:	2b00      	cmp	r3, #0
 8000f26:	d001      	beq.n	8000f2c <MX_I2C2_Init+0x70>
  {
    Error_Handler();
 8000f28:	f000 f9d4 	bl	80012d4 <Error_Handler>
  }
  /* USER CODE BEGIN I2C2_Init 2 */

  /* USER CODE END I2C2_Init 2 */

}
 8000f2c:	bf00      	nop
 8000f2e:	bd80      	pop	{r7, pc}
 8000f30:	20000094 	.word	0x20000094
 8000f34:	40005800 	.word	0x40005800
 8000f38:	000186a0 	.word	0x000186a0

08000f3c <MX_RTC_Init>:
  * @brief RTC Initialization Function
  * @param None
  * @retval None
  */
static void MX_RTC_Init(void)
{
 8000f3c:	b580      	push	{r7, lr}
 8000f3e:	af00      	add	r7, sp, #0

  /* USER CODE END RTC_Init 1 */

  /** Initialize RTC Only
  */
  hrtc.Instance = RTC;
 8000f40:	4b0f      	ldr	r3, [pc, #60]	; (8000f80 <MX_RTC_Init+0x44>)
 8000f42:	4a10      	ldr	r2, [pc, #64]	; (8000f84 <MX_RTC_Init+0x48>)
 8000f44:	601a      	str	r2, [r3, #0]
  hrtc.Init.HourFormat = RTC_HOURFORMAT_24;
 8000f46:	4b0e      	ldr	r3, [pc, #56]	; (8000f80 <MX_RTC_Init+0x44>)
 8000f48:	2200      	movs	r2, #0
 8000f4a:	605a      	str	r2, [r3, #4]
  hrtc.Init.AsynchPrediv = 127;
 8000f4c:	4b0c      	ldr	r3, [pc, #48]	; (8000f80 <MX_RTC_Init+0x44>)
 8000f4e:	227f      	movs	r2, #127	; 0x7f
 8000f50:	609a      	str	r2, [r3, #8]
  hrtc.Init.SynchPrediv = 255;
 8000f52:	4b0b      	ldr	r3, [pc, #44]	; (8000f80 <MX_RTC_Init+0x44>)
 8000f54:	22ff      	movs	r2, #255	; 0xff
 8000f56:	60da      	str	r2, [r3, #12]
  hrtc.Init.OutPut = RTC_OUTPUT_DISABLE;
 8000f58:	4b09      	ldr	r3, [pc, #36]	; (8000f80 <MX_RTC_Init+0x44>)
 8000f5a:	2200      	movs	r2, #0
 8000f5c:	611a      	str	r2, [r3, #16]
  hrtc.Init.OutPutPolarity = RTC_OUTPUT_POLARITY_HIGH;
 8000f5e:	4b08      	ldr	r3, [pc, #32]	; (8000f80 <MX_RTC_Init+0x44>)
 8000f60:	2200      	movs	r2, #0
 8000f62:	615a      	str	r2, [r3, #20]
  hrtc.Init.OutPutType = RTC_OUTPUT_TYPE_OPENDRAIN;
 8000f64:	4b06      	ldr	r3, [pc, #24]	; (8000f80 <MX_RTC_Init+0x44>)
 8000f66:	2200      	movs	r2, #0
 8000f68:	619a      	str	r2, [r3, #24]
  if (HAL_RTC_Init(&hrtc) != HAL_OK)
 8000f6a:	4805      	ldr	r0, [pc, #20]	; (8000f80 <MX_RTC_Init+0x44>)
 8000f6c:	f003 fb18 	bl	80045a0 <HAL_RTC_Init>
 8000f70:	4603      	mov	r3, r0
 8000f72:	2b00      	cmp	r3, #0
 8000f74:	d001      	beq.n	8000f7a <MX_RTC_Init+0x3e>
  {
    Error_Handler();
 8000f76:	f000 f9ad 	bl	80012d4 <Error_Handler>
  }
  /* USER CODE BEGIN RTC_Init 2 */

  /* USER CODE END RTC_Init 2 */

}
 8000f7a:	bf00      	nop
 8000f7c:	bd80      	pop	{r7, pc}
 8000f7e:	bf00      	nop
 8000f80:	200000e8 	.word	0x200000e8
 8000f84:	40002800 	.word	0x40002800

08000f88 <MX_SPI1_Init>:
  * @brief SPI1 Initialization Function
  * @param None
  * @retval None
  */
static void MX_SPI1_Init(void)
{
 8000f88:	b580      	push	{r7, lr}
 8000f8a:	af00      	add	r7, sp, #0

  /* USER CODE BEGIN SPI1_Init 1 */

  /* USER CODE END SPI1_Init 1 */
  /* SPI1 parameter configuration*/
  hspi1.Instance = SPI1;
 8000f8c:	4b17      	ldr	r3, [pc, #92]	; (8000fec <MX_SPI1_Init+0x64>)
 8000f8e:	4a18      	ldr	r2, [pc, #96]	; (8000ff0 <MX_SPI1_Init+0x68>)
 8000f90:	601a      	str	r2, [r3, #0]
  hspi1.Init.Mode = SPI_MODE_MASTER;
 8000f92:	4b16      	ldr	r3, [pc, #88]	; (8000fec <MX_SPI1_Init+0x64>)
 8000f94:	f44f 7282 	mov.w	r2, #260	; 0x104
 8000f98:	605a      	str	r2, [r3, #4]
  hspi1.Init.Direction = SPI_DIRECTION_2LINES;
 8000f9a:	4b14      	ldr	r3, [pc, #80]	; (8000fec <MX_SPI1_Init+0x64>)
 8000f9c:	2200      	movs	r2, #0
 8000f9e:	609a      	str	r2, [r3, #8]
  hspi1.Init.DataSize = SPI_DATASIZE_8BIT;
 8000fa0:	4b12      	ldr	r3, [pc, #72]	; (8000fec <MX_SPI1_Init+0x64>)
 8000fa2:	2200      	movs	r2, #0
 8000fa4:	60da      	str	r2, [r3, #12]
  hspi1.Init.CLKPolarity = SPI_POLARITY_LOW;
 8000fa6:	4b11      	ldr	r3, [pc, #68]	; (8000fec <MX_SPI1_Init+0x64>)
 8000fa8:	2200      	movs	r2, #0
 8000faa:	611a      	str	r2, [r3, #16]
  hspi1.Init.CLKPhase = SPI_PHASE_1EDGE;
 8000fac:	4b0f      	ldr	r3, [pc, #60]	; (8000fec <MX_SPI1_Init+0x64>)
 8000fae:	2200      	movs	r2, #0
 8000fb0:	615a      	str	r2, [r3, #20]
  hspi1.Init.NSS = SPI_NSS_SOFT;
 8000fb2:	4b0e      	ldr	r3, [pc, #56]	; (8000fec <MX_SPI1_Init+0x64>)
 8000fb4:	f44f 7200 	mov.w	r2, #512	; 0x200
 8000fb8:	619a      	str	r2, [r3, #24]
  hspi1.Init.BaudRatePrescaler = SPI_BAUDRATEPRESCALER_2;
 8000fba:	4b0c      	ldr	r3, [pc, #48]	; (8000fec <MX_SPI1_Init+0x64>)
 8000fbc:	2200      	movs	r2, #0
 8000fbe:	61da      	str	r2, [r3, #28]
  hspi1.Init.FirstBit = SPI_FIRSTBIT_MSB;
 8000fc0:	4b0a      	ldr	r3, [pc, #40]	; (8000fec <MX_SPI1_Init+0x64>)
 8000fc2:	2200      	movs	r2, #0
 8000fc4:	621a      	str	r2, [r3, #32]
  hspi1.Init.TIMode = SPI_TIMODE_DISABLE;
 8000fc6:	4b09      	ldr	r3, [pc, #36]	; (8000fec <MX_SPI1_Init+0x64>)
 8000fc8:	2200      	movs	r2, #0
 8000fca:	625a      	str	r2, [r3, #36]	; 0x24
  hspi1.Init.CRCCalculation = SPI_CRCCALCULATION_DISABLE;
 8000fcc:	4b07      	ldr	r3, [pc, #28]	; (8000fec <MX_SPI1_Init+0x64>)
 8000fce:	2200      	movs	r2, #0
 8000fd0:	629a      	str	r2, [r3, #40]	; 0x28
  hspi1.Init.CRCPolynomial = 10;
 8000fd2:	4b06      	ldr	r3, [pc, #24]	; (8000fec <MX_SPI1_Init+0x64>)
 8000fd4:	220a      	movs	r2, #10
 8000fd6:	62da      	str	r2, [r3, #44]	; 0x2c
  if (HAL_SPI_Init(&hspi1) != HAL_OK)
 8000fd8:	4804      	ldr	r0, [pc, #16]	; (8000fec <MX_SPI1_Init+0x64>)
 8000fda:	f003 fded 	bl	8004bb8 <HAL_SPI_Init>
 8000fde:	4603      	mov	r3, r0
 8000fe0:	2b00      	cmp	r3, #0
 8000fe2:	d001      	beq.n	8000fe8 <MX_SPI1_Init+0x60>
  {
    Error_Handler();
 8000fe4:	f000 f976 	bl	80012d4 <Error_Handler>
  }
  /* USER CODE BEGIN SPI1_Init 2 */

  /* USER CODE END SPI1_Init 2 */

}
 8000fe8:	bf00      	nop
 8000fea:	bd80      	pop	{r7, pc}
 8000fec:	20000108 	.word	0x20000108
 8000ff0:	40013000 	.word	0x40013000

08000ff4 <MX_TIM6_Init>:
  * @brief TIM6 Initialization Function
  * @param None
  * @retval None
  */
static void MX_TIM6_Init(void)
{
 8000ff4:	b580      	push	{r7, lr}
 8000ff6:	b082      	sub	sp, #8
 8000ff8:	af00      	add	r7, sp, #0

  /* USER CODE BEGIN TIM6_Init 0 */

  /* USER CODE END TIM6_Init 0 */

  TIM_MasterConfigTypeDef sMasterConfig = {0};
 8000ffa:	463b      	mov	r3, r7
 8000ffc:	2200      	movs	r2, #0
 8000ffe:	601a      	str	r2, [r3, #0]
 8001000:	605a      	str	r2, [r3, #4]

  /* USER CODE BEGIN TIM6_Init 1 */

  /* USER CODE END TIM6_Init 1 */
  htim6.Instance = TIM6;
 8001002:	4b15      	ldr	r3, [pc, #84]	; (8001058 <MX_TIM6_Init+0x64>)
 8001004:	4a15      	ldr	r2, [pc, #84]	; (800105c <MX_TIM6_Init+0x68>)
 8001006:	601a      	str	r2, [r3, #0]
  htim6.Init.Prescaler = 15999;
 8001008:	4b13      	ldr	r3, [pc, #76]	; (8001058 <MX_TIM6_Init+0x64>)
 800100a:	f643 627f 	movw	r2, #15999	; 0x3e7f
 800100e:	605a      	str	r2, [r3, #4]
  htim6.Init.CounterMode = TIM_COUNTERMODE_UP;
 8001010:	4b11      	ldr	r3, [pc, #68]	; (8001058 <MX_TIM6_Init+0x64>)
 8001012:	2200      	movs	r2, #0
 8001014:	609a      	str	r2, [r3, #8]
  htim6.Init.Period = 1000;
 8001016:	4b10      	ldr	r3, [pc, #64]	; (8001058 <MX_TIM6_Init+0x64>)
 8001018:	f44f 727a 	mov.w	r2, #1000	; 0x3e8
 800101c:	60da      	str	r2, [r3, #12]
  htim6.Init.AutoReloadPreload = TIM_AUTORELOAD_PRELOAD_DISABLE;
 800101e:	4b0e      	ldr	r3, [pc, #56]	; (8001058 <MX_TIM6_Init+0x64>)
 8001020:	2200      	movs	r2, #0
 8001022:	619a      	str	r2, [r3, #24]
  if (HAL_TIM_Base_Init(&htim6) != HAL_OK)
 8001024:	480c      	ldr	r0, [pc, #48]	; (8001058 <MX_TIM6_Init+0x64>)
 8001026:	f004 fb9d 	bl	8005764 <HAL_TIM_Base_Init>
 800102a:	4603      	mov	r3, r0
 800102c:	2b00      	cmp	r3, #0
 800102e:	d001      	beq.n	8001034 <MX_TIM6_Init+0x40>
  {
    Error_Handler();
 8001030:	f000 f950 	bl	80012d4 <Error_Handler>
  }
  sMasterConfig.MasterOutputTrigger = TIM_TRGO_RESET;
 8001034:	2300      	movs	r3, #0
 8001036:	603b      	str	r3, [r7, #0]
  sMasterConfig.MasterSlaveMode = TIM_MASTERSLAVEMODE_DISABLE;
 8001038:	2300      	movs	r3, #0
 800103a:	607b      	str	r3, [r7, #4]
  if (HAL_TIMEx_MasterConfigSynchronization(&htim6, &sMasterConfig) != HAL_OK)
 800103c:	463b      	mov	r3, r7
 800103e:	4619      	mov	r1, r3
 8001040:	4805      	ldr	r0, [pc, #20]	; (8001058 <MX_TIM6_Init+0x64>)
 8001042:	f004 fe1d 	bl	8005c80 <HAL_TIMEx_MasterConfigSynchronization>
 8001046:	4603      	mov	r3, r0
 8001048:	2b00      	cmp	r3, #0
 800104a:	d001      	beq.n	8001050 <MX_TIM6_Init+0x5c>
  {
    Error_Handler();
 800104c:	f000 f942 	bl	80012d4 <Error_Handler>
  }
  /* USER CODE BEGIN TIM6_Init 2 */

  /* USER CODE END TIM6_Init 2 */

}
 8001050:	bf00      	nop
 8001052:	3708      	adds	r7, #8
 8001054:	46bd      	mov	sp, r7
 8001056:	bd80      	pop	{r7, pc}
 8001058:	20000160 	.word	0x20000160
 800105c:	40001000 	.word	0x40001000

08001060 <MX_USART2_UART_Init>:
  * @brief USART2 Initialization Function
  * @param None
  * @retval None
  */
static void MX_USART2_UART_Init(void)
{
 8001060:	b580      	push	{r7, lr}
 8001062:	af00      	add	r7, sp, #0
  /* USER CODE END USART2_Init 0 */

  /* USER CODE BEGIN USART2_Init 1 */

  /* USER CODE END USART2_Init 1 */
  huart2.Instance = USART2;
 8001064:	4b11      	ldr	r3, [pc, #68]	; (80010ac <MX_USART2_UART_Init+0x4c>)
 8001066:	4a12      	ldr	r2, [pc, #72]	; (80010b0 <MX_USART2_UART_Init+0x50>)
 8001068:	601a      	str	r2, [r3, #0]
  huart2.Init.BaudRate = 9600;
 800106a:	4b10      	ldr	r3, [pc, #64]	; (80010ac <MX_USART2_UART_Init+0x4c>)
 800106c:	f44f 5216 	mov.w	r2, #9600	; 0x2580
 8001070:	605a      	str	r2, [r3, #4]
  huart2.Init.WordLength = UART_WORDLENGTH_8B;
 8001072:	4b0e      	ldr	r3, [pc, #56]	; (80010ac <MX_USART2_UART_Init+0x4c>)
 8001074:	2200      	movs	r2, #0
 8001076:	609a      	str	r2, [r3, #8]
  huart2.Init.StopBits = UART_STOPBITS_1;
 8001078:	4b0c      	ldr	r3, [pc, #48]	; (80010ac <MX_USART2_UART_Init+0x4c>)
 800107a:	2200      	movs	r2, #0
 800107c:	60da      	str	r2, [r3, #12]
  huart2.Init.Parity = UART_PARITY_NONE;
 800107e:	4b0b      	ldr	r3, [pc, #44]	; (80010ac <MX_USART2_UART_Init+0x4c>)
 8001080:	2200      	movs	r2, #0
 8001082:	611a      	str	r2, [r3, #16]
  huart2.Init.Mode = UART_MODE_TX_RX;
 8001084:	4b09      	ldr	r3, [pc, #36]	; (80010ac <MX_USART2_UART_Init+0x4c>)
 8001086:	220c      	movs	r2, #12
 8001088:	615a      	str	r2, [r3, #20]
  huart2.Init.HwFlowCtl = UART_HWCONTROL_NONE;
 800108a:	4b08      	ldr	r3, [pc, #32]	; (80010ac <MX_USART2_UART_Init+0x4c>)
 800108c:	2200      	movs	r2, #0
 800108e:	619a      	str	r2, [r3, #24]
  huart2.Init.OverSampling = UART_OVERSAMPLING_16;
 8001090:	4b06      	ldr	r3, [pc, #24]	; (80010ac <MX_USART2_UART_Init+0x4c>)
 8001092:	2200      	movs	r2, #0
 8001094:	61da      	str	r2, [r3, #28]
  if (HAL_UART_Init(&huart2) != HAL_OK)
 8001096:	4805      	ldr	r0, [pc, #20]	; (80010ac <MX_USART2_UART_Init+0x4c>)
 8001098:	f004 fe82 	bl	8005da0 <HAL_UART_Init>
 800109c:	4603      	mov	r3, r0
 800109e:	2b00      	cmp	r3, #0
 80010a0:	d001      	beq.n	80010a6 <MX_USART2_UART_Init+0x46>
  {
    Error_Handler();
 80010a2:	f000 f917 	bl	80012d4 <Error_Handler>
  }
  /* USER CODE BEGIN USART2_Init 2 */

  /* USER CODE END USART2_Init 2 */

}
 80010a6:	bf00      	nop
 80010a8:	bd80      	pop	{r7, pc}
 80010aa:	bf00      	nop
 80010ac:	200001a8 	.word	0x200001a8
 80010b0:	40004400 	.word	0x40004400

080010b4 <MX_GPIO_Init>:
  * @brief GPIO Initialization Function
  * @param None
  * @retval None
  */
static void MX_GPIO_Init(void)
{
 80010b4:	b580      	push	{r7, lr}
 80010b6:	b08a      	sub	sp, #40	; 0x28
 80010b8:	af00      	add	r7, sp, #0
  GPIO_InitTypeDef GPIO_InitStruct = {0};
 80010ba:	f107 0314 	add.w	r3, r7, #20
 80010be:	2200      	movs	r2, #0
 80010c0:	601a      	str	r2, [r3, #0]
 80010c2:	605a      	str	r2, [r3, #4]
 80010c4:	609a      	str	r2, [r3, #8]
 80010c6:	60da      	str	r2, [r3, #12]
 80010c8:	611a      	str	r2, [r3, #16]
/* USER CODE BEGIN MX_GPIO_Init_1 */
/* USER CODE END MX_GPIO_Init_1 */

  /* GPIO Ports Clock Enable */
  __HAL_RCC_GPIOC_CLK_ENABLE();
 80010ca:	2300      	movs	r3, #0
 80010cc:	613b      	str	r3, [r7, #16]
 80010ce:	4b6f      	ldr	r3, [pc, #444]	; (800128c <MX_GPIO_Init+0x1d8>)
 80010d0:	6b1b      	ldr	r3, [r3, #48]	; 0x30
 80010d2:	4a6e      	ldr	r2, [pc, #440]	; (800128c <MX_GPIO_Init+0x1d8>)
 80010d4:	f043 0304 	orr.w	r3, r3, #4
 80010d8:	6313      	str	r3, [r2, #48]	; 0x30
 80010da:	4b6c      	ldr	r3, [pc, #432]	; (800128c <MX_GPIO_Init+0x1d8>)
 80010dc:	6b1b      	ldr	r3, [r3, #48]	; 0x30
 80010de:	f003 0304 	and.w	r3, r3, #4
 80010e2:	613b      	str	r3, [r7, #16]
 80010e4:	693b      	ldr	r3, [r7, #16]
  __HAL_RCC_GPIOH_CLK_ENABLE();
 80010e6:	2300      	movs	r3, #0
 80010e8:	60fb      	str	r3, [r7, #12]
 80010ea:	4b68      	ldr	r3, [pc, #416]	; (800128c <MX_GPIO_Init+0x1d8>)
 80010ec:	6b1b      	ldr	r3, [r3, #48]	; 0x30
 80010ee:	4a67      	ldr	r2, [pc, #412]	; (800128c <MX_GPIO_Init+0x1d8>)
 80010f0:	f043 0380 	orr.w	r3, r3, #128	; 0x80
 80010f4:	6313      	str	r3, [r2, #48]	; 0x30
 80010f6:	4b65      	ldr	r3, [pc, #404]	; (800128c <MX_GPIO_Init+0x1d8>)
 80010f8:	6b1b      	ldr	r3, [r3, #48]	; 0x30
 80010fa:	f003 0380 	and.w	r3, r3, #128	; 0x80
 80010fe:	60fb      	str	r3, [r7, #12]
 8001100:	68fb      	ldr	r3, [r7, #12]
  __HAL_RCC_GPIOA_CLK_ENABLE();
 8001102:	2300      	movs	r3, #0
 8001104:	60bb      	str	r3, [r7, #8]
 8001106:	4b61      	ldr	r3, [pc, #388]	; (800128c <MX_GPIO_Init+0x1d8>)
 8001108:	6b1b      	ldr	r3, [r3, #48]	; 0x30
 800110a:	4a60      	ldr	r2, [pc, #384]	; (800128c <MX_GPIO_Init+0x1d8>)
 800110c:	f043 0301 	orr.w	r3, r3, #1
 8001110:	6313      	str	r3, [r2, #48]	; 0x30
 8001112:	4b5e      	ldr	r3, [pc, #376]	; (800128c <MX_GPIO_Init+0x1d8>)
 8001114:	6b1b      	ldr	r3, [r3, #48]	; 0x30
 8001116:	f003 0301 	and.w	r3, r3, #1
 800111a:	60bb      	str	r3, [r7, #8]
 800111c:	68bb      	ldr	r3, [r7, #8]
  __HAL_RCC_GPIOB_CLK_ENABLE();
 800111e:	2300      	movs	r3, #0
 8001120:	607b      	str	r3, [r7, #4]
 8001122:	4b5a      	ldr	r3, [pc, #360]	; (800128c <MX_GPIO_Init+0x1d8>)
 8001124:	6b1b      	ldr	r3, [r3, #48]	; 0x30
 8001126:	4a59      	ldr	r2, [pc, #356]	; (800128c <MX_GPIO_Init+0x1d8>)
 8001128:	f043 0302 	orr.w	r3, r3, #2
 800112c:	6313      	str	r3, [r2, #48]	; 0x30
 800112e:	4b57      	ldr	r3, [pc, #348]	; (800128c <MX_GPIO_Init+0x1d8>)
 8001130:	6b1b      	ldr	r3, [r3, #48]	; 0x30
 8001132:	f003 0302 	and.w	r3, r3, #2
 8001136:	607b      	str	r3, [r7, #4]
 8001138:	687b      	ldr	r3, [r7, #4]
  __HAL_RCC_GPIOD_CLK_ENABLE();
 800113a:	2300      	movs	r3, #0
 800113c:	603b      	str	r3, [r7, #0]
 800113e:	4b53      	ldr	r3, [pc, #332]	; (800128c <MX_GPIO_Init+0x1d8>)
 8001140:	6b1b      	ldr	r3, [r3, #48]	; 0x30
 8001142:	4a52      	ldr	r2, [pc, #328]	; (800128c <MX_GPIO_Init+0x1d8>)
 8001144:	f043 0308 	orr.w	r3, r3, #8
 8001148:	6313      	str	r3, [r2, #48]	; 0x30
 800114a:	4b50      	ldr	r3, [pc, #320]	; (800128c <MX_GPIO_Init+0x1d8>)
 800114c:	6b1b      	ldr	r3, [r3, #48]	; 0x30
 800114e:	f003 0308 	and.w	r3, r3, #8
 8001152:	603b      	str	r3, [r7, #0]
 8001154:	683b      	ldr	r3, [r7, #0]

  /*Configure GPIO pin Output Level */
  HAL_GPIO_WritePin(SPI2_WP_GPIO_Port, SPI2_WP_Pin, GPIO_PIN_RESET);
 8001156:	2200      	movs	r2, #0
 8001158:	2101      	movs	r1, #1
 800115a:	484d      	ldr	r0, [pc, #308]	; (8001290 <MX_GPIO_Init+0x1dc>)
 800115c:	f001 fb5e 	bl	800281c <HAL_GPIO_WritePin>

  /*Configure GPIO pin Output Level */
  HAL_GPIO_WritePin(GPIOB, SPI2_CS_Pin|LED3_Pin|LED2_Pin, GPIO_PIN_RESET);
 8001160:	2200      	movs	r2, #0
 8001162:	f44f 41a1 	mov.w	r1, #20608	; 0x5080
 8001166:	484b      	ldr	r0, [pc, #300]	; (8001294 <MX_GPIO_Init+0x1e0>)
 8001168:	f001 fb58 	bl	800281c <HAL_GPIO_WritePin>

  /*Configure GPIO pin Output Level */
  HAL_GPIO_WritePin(GPIOD, SPI1_WP_Pin|SPI1_CS_Pin, GPIO_PIN_RESET);
 800116c:	2200      	movs	r2, #0
 800116e:	f244 0104 	movw	r1, #16388	; 0x4004
 8001172:	4849      	ldr	r0, [pc, #292]	; (8001298 <MX_GPIO_Init+0x1e4>)
 8001174:	f001 fb52 	bl	800281c <HAL_GPIO_WritePin>

  /*Configure GPIO pin : SPI2_WP_Pin */
  GPIO_InitStruct.Pin = SPI2_WP_Pin;
 8001178:	2301      	movs	r3, #1
 800117a:	617b      	str	r3, [r7, #20]
  GPIO_InitStruct.Mode = GPIO_MODE_OUTPUT_PP;
 800117c:	2301      	movs	r3, #1
 800117e:	61bb      	str	r3, [r7, #24]
  GPIO_InitStruct.Pull = GPIO_PULLUP;
 8001180:	2301      	movs	r3, #1
 8001182:	61fb      	str	r3, [r7, #28]
  GPIO_InitStruct.Speed = GPIO_SPEED_FREQ_LOW;
 8001184:	2300      	movs	r3, #0
 8001186:	623b      	str	r3, [r7, #32]
  HAL_GPIO_Init(SPI2_WP_GPIO_Port, &GPIO_InitStruct);
 8001188:	f107 0314 	add.w	r3, r7, #20
 800118c:	4619      	mov	r1, r3
 800118e:	4840      	ldr	r0, [pc, #256]	; (8001290 <MX_GPIO_Init+0x1dc>)
 8001190:	f001 f998 	bl	80024c4 <HAL_GPIO_Init>

  /*Configure GPIO pins : PC2 PC3 */
  GPIO_InitStruct.Pin = GPIO_PIN_2|GPIO_PIN_3;
 8001194:	230c      	movs	r3, #12
 8001196:	617b      	str	r3, [r7, #20]
  GPIO_InitStruct.Mode = GPIO_MODE_AF_PP;
 8001198:	2302      	movs	r3, #2
 800119a:	61bb      	str	r3, [r7, #24]
  GPIO_InitStruct.Pull = GPIO_NOPULL;
 800119c:	2300      	movs	r3, #0
 800119e:	61fb      	str	r3, [r7, #28]
  GPIO_InitStruct.Speed = GPIO_SPEED_FREQ_VERY_HIGH;
 80011a0:	2303      	movs	r3, #3
 80011a2:	623b      	str	r3, [r7, #32]
  GPIO_InitStruct.Alternate = GPIO_AF5_SPI2;
 80011a4:	2305      	movs	r3, #5
 80011a6:	627b      	str	r3, [r7, #36]	; 0x24
  HAL_GPIO_Init(GPIOC, &GPIO_InitStruct);
 80011a8:	f107 0314 	add.w	r3, r7, #20
 80011ac:	4619      	mov	r1, r3
 80011ae:	4838      	ldr	r0, [pc, #224]	; (8001290 <MX_GPIO_Init+0x1dc>)
 80011b0:	f001 f988 	bl	80024c4 <HAL_GPIO_Init>

  /*Configure GPIO pin : JMP_Flight_Pin */
  GPIO_InitStruct.Pin = JMP_Flight_Pin;
 80011b4:	2302      	movs	r3, #2
 80011b6:	617b      	str	r3, [r7, #20]
  GPIO_InitStruct.Mode = GPIO_MODE_INPUT;
 80011b8:	2300      	movs	r3, #0
 80011ba:	61bb      	str	r3, [r7, #24]
  GPIO_InitStruct.Pull = GPIO_PULLDOWN;
 80011bc:	2302      	movs	r3, #2
 80011be:	61fb      	str	r3, [r7, #28]
  HAL_GPIO_Init(JMP_Flight_GPIO_Port, &GPIO_InitStruct);
 80011c0:	f107 0314 	add.w	r3, r7, #20
 80011c4:	4619      	mov	r1, r3
 80011c6:	4833      	ldr	r0, [pc, #204]	; (8001294 <MX_GPIO_Init+0x1e0>)
 80011c8:	f001 f97c 	bl	80024c4 <HAL_GPIO_Init>

  /*Configure GPIO pin : SPI2_CS_Pin */
  GPIO_InitStruct.Pin = SPI2_CS_Pin;
 80011cc:	f44f 5380 	mov.w	r3, #4096	; 0x1000
 80011d0:	617b      	str	r3, [r7, #20]
  GPIO_InitStruct.Mode = GPIO_MODE_OUTPUT_PP;
 80011d2:	2301      	movs	r3, #1
 80011d4:	61bb      	str	r3, [r7, #24]
  GPIO_InitStruct.Pull = GPIO_PULLUP;
 80011d6:	2301      	movs	r3, #1
 80011d8:	61fb      	str	r3, [r7, #28]
  GPIO_InitStruct.Speed = GPIO_SPEED_FREQ_LOW;
 80011da:	2300      	movs	r3, #0
 80011dc:	623b      	str	r3, [r7, #32]
  HAL_GPIO_Init(SPI2_CS_GPIO_Port, &GPIO_InitStruct);
 80011de:	f107 0314 	add.w	r3, r7, #20
 80011e2:	4619      	mov	r1, r3
 80011e4:	482b      	ldr	r0, [pc, #172]	; (8001294 <MX_GPIO_Init+0x1e0>)
 80011e6:	f001 f96d 	bl	80024c4 <HAL_GPIO_Init>

  /*Configure GPIO pins : LED3_Pin LED2_Pin */
  GPIO_InitStruct.Pin = LED3_Pin|LED2_Pin;
 80011ea:	f44f 4381 	mov.w	r3, #16512	; 0x4080
 80011ee:	617b      	str	r3, [r7, #20]
  GPIO_InitStruct.Mode = GPIO_MODE_OUTPUT_PP;
 80011f0:	2301      	movs	r3, #1
 80011f2:	61bb      	str	r3, [r7, #24]
  GPIO_InitStruct.Pull = GPIO_PULLDOWN;
 80011f4:	2302      	movs	r3, #2
 80011f6:	61fb      	str	r3, [r7, #28]
  GPIO_InitStruct.Speed = GPIO_SPEED_FREQ_LOW;
 80011f8:	2300      	movs	r3, #0
 80011fa:	623b      	str	r3, [r7, #32]
  HAL_GPIO_Init(GPIOB, &GPIO_InitStruct);
 80011fc:	f107 0314 	add.w	r3, r7, #20
 8001200:	4619      	mov	r1, r3
 8001202:	4824      	ldr	r0, [pc, #144]	; (8001294 <MX_GPIO_Init+0x1e0>)
 8001204:	f001 f95e 	bl	80024c4 <HAL_GPIO_Init>

  /*Configure GPIO pin : SPI1_WP_Pin */
  GPIO_InitStruct.Pin = SPI1_WP_Pin;
 8001208:	f44f 4380 	mov.w	r3, #16384	; 0x4000
 800120c:	617b      	str	r3, [r7, #20]
  GPIO_InitStruct.Mode = GPIO_MODE_OUTPUT_PP;
 800120e:	2301      	movs	r3, #1
 8001210:	61bb      	str	r3, [r7, #24]
  GPIO_InitStruct.Pull = GPIO_PULLUP;
 8001212:	2301      	movs	r3, #1
 8001214:	61fb      	str	r3, [r7, #28]
  GPIO_InitStruct.Speed = GPIO_SPEED_FREQ_LOW;
 8001216:	2300      	movs	r3, #0
 8001218:	623b      	str	r3, [r7, #32]
  HAL_GPIO_Init(SPI1_WP_GPIO_Port, &GPIO_InitStruct);
 800121a:	f107 0314 	add.w	r3, r7, #20
 800121e:	4619      	mov	r1, r3
 8001220:	481d      	ldr	r0, [pc, #116]	; (8001298 <MX_GPIO_Init+0x1e4>)
 8001222:	f001 f94f 	bl	80024c4 <HAL_GPIO_Init>

  /*Configure GPIO pins : PA11 PA12 */
  GPIO_InitStruct.Pin = GPIO_PIN_11|GPIO_PIN_12;
 8001226:	f44f 53c0 	mov.w	r3, #6144	; 0x1800
 800122a:	617b      	str	r3, [r7, #20]
  GPIO_InitStruct.Mode = GPIO_MODE_AF_PP;
 800122c:	2302      	movs	r3, #2
 800122e:	61bb      	str	r3, [r7, #24]
  GPIO_InitStruct.Pull = GPIO_NOPULL;
 8001230:	2300      	movs	r3, #0
 8001232:	61fb      	str	r3, [r7, #28]
  GPIO_InitStruct.Speed = GPIO_SPEED_FREQ_VERY_HIGH;
 8001234:	2303      	movs	r3, #3
 8001236:	623b      	str	r3, [r7, #32]
  GPIO_InitStruct.Alternate = GPIO_AF9_CAN1;
 8001238:	2309      	movs	r3, #9
 800123a:	627b      	str	r3, [r7, #36]	; 0x24
  HAL_GPIO_Init(GPIOA, &GPIO_InitStruct);
 800123c:	f107 0314 	add.w	r3, r7, #20
 8001240:	4619      	mov	r1, r3
 8001242:	4816      	ldr	r0, [pc, #88]	; (800129c <MX_GPIO_Init+0x1e8>)
 8001244:	f001 f93e 	bl	80024c4 <HAL_GPIO_Init>

  /*Configure GPIO pin : SPI1_CS_Pin */
  GPIO_InitStruct.Pin = SPI1_CS_Pin;
 8001248:	2304      	movs	r3, #4
 800124a:	617b      	str	r3, [r7, #20]
  GPIO_InitStruct.Mode = GPIO_MODE_OUTPUT_PP;
 800124c:	2301      	movs	r3, #1
 800124e:	61bb      	str	r3, [r7, #24]
  GPIO_InitStruct.Pull = GPIO_NOPULL;
 8001250:	2300      	movs	r3, #0
 8001252:	61fb      	str	r3, [r7, #28]
  GPIO_InitStruct.Speed = GPIO_SPEED_FREQ_LOW;
 8001254:	2300      	movs	r3, #0
 8001256:	623b      	str	r3, [r7, #32]
  HAL_GPIO_Init(SPI1_CS_GPIO_Port, &GPIO_InitStruct);
 8001258:	f107 0314 	add.w	r3, r7, #20
 800125c:	4619      	mov	r1, r3
 800125e:	480e      	ldr	r0, [pc, #56]	; (8001298 <MX_GPIO_Init+0x1e4>)
 8001260:	f001 f930 	bl	80024c4 <HAL_GPIO_Init>

  /*Configure GPIO pin : PD3 */
  GPIO_InitStruct.Pin = GPIO_PIN_3;
 8001264:	2308      	movs	r3, #8
 8001266:	617b      	str	r3, [r7, #20]
  GPIO_InitStruct.Mode = GPIO_MODE_AF_PP;
 8001268:	2302      	movs	r3, #2
 800126a:	61bb      	str	r3, [r7, #24]
  GPIO_InitStruct.Pull = GPIO_NOPULL;
 800126c:	2300      	movs	r3, #0
 800126e:	61fb      	str	r3, [r7, #28]
  GPIO_InitStruct.Speed = GPIO_SPEED_FREQ_VERY_HIGH;
 8001270:	2303      	movs	r3, #3
 8001272:	623b      	str	r3, [r7, #32]
  GPIO_InitStruct.Alternate = GPIO_AF5_SPI2;
 8001274:	2305      	movs	r3, #5
 8001276:	627b      	str	r3, [r7, #36]	; 0x24
  HAL_GPIO_Init(GPIOD, &GPIO_InitStruct);
 8001278:	f107 0314 	add.w	r3, r7, #20
 800127c:	4619      	mov	r1, r3
 800127e:	4806      	ldr	r0, [pc, #24]	; (8001298 <MX_GPIO_Init+0x1e4>)
 8001280:	f001 f920 	bl	80024c4 <HAL_GPIO_Init>

/* USER CODE BEGIN MX_GPIO_Init_2 */
/* USER CODE END MX_GPIO_Init_2 */
}
 8001284:	bf00      	nop
 8001286:	3728      	adds	r7, #40	; 0x28
 8001288:	46bd      	mov	sp, r7
 800128a:	bd80      	pop	{r7, pc}
 800128c:	40023800 	.word	0x40023800
 8001290:	40020800 	.word	0x40020800
 8001294:	40020400 	.word	0x40020400
 8001298:	40020c00 	.word	0x40020c00
 800129c:	40020000 	.word	0x40020000

080012a0 <clean_data_buffer>:

/* USER CODE BEGIN 4 */
void clean_data_buffer() {
 80012a0:	b480      	push	{r7}
 80012a2:	b083      	sub	sp, #12
 80012a4:	af00      	add	r7, sp, #0
    for (int i = 0; i < PAGE_SIZE; ++i) {
 80012a6:	2300      	movs	r3, #0
 80012a8:	607b      	str	r3, [r7, #4]
 80012aa:	e007      	b.n	80012bc <clean_data_buffer+0x1c>
        data_buffer[i] = 0xFF;  // Initialize each element to 0xFF
 80012ac:	4a08      	ldr	r2, [pc, #32]	; (80012d0 <clean_data_buffer+0x30>)
 80012ae:	687b      	ldr	r3, [r7, #4]
 80012b0:	4413      	add	r3, r2
 80012b2:	22ff      	movs	r2, #255	; 0xff
 80012b4:	701a      	strb	r2, [r3, #0]
    for (int i = 0; i < PAGE_SIZE; ++i) {
 80012b6:	687b      	ldr	r3, [r7, #4]
 80012b8:	3301      	adds	r3, #1
 80012ba:	607b      	str	r3, [r7, #4]
 80012bc:	687b      	ldr	r3, [r7, #4]
 80012be:	2bff      	cmp	r3, #255	; 0xff
 80012c0:	ddf4      	ble.n	80012ac <clean_data_buffer+0xc>
    }
}
 80012c2:	bf00      	nop
 80012c4:	bf00      	nop
 80012c6:	370c      	adds	r7, #12
 80012c8:	46bd      	mov	sp, r7
 80012ca:	f85d 7b04 	ldr.w	r7, [sp], #4
 80012ce:	4770      	bx	lr
 80012d0:	200001f4 	.word	0x200001f4

080012d4 <Error_Handler>:
/**
  * @brief  This function is executed in case of error occurrence.
  * @retval None
  */
void Error_Handler(void)
{
 80012d4:	b480      	push	{r7}
 80012d6:	af00      	add	r7, sp, #0
  \details Disables IRQ interrupts by setting special-purpose register PRIMASK.
           Can only be executed in Privileged modes.
 */
__STATIC_FORCEINLINE void __disable_irq(void)
{
  __ASM volatile ("cpsid i" : : : "memory");
 80012d8:	b672      	cpsid	i
}
 80012da:	bf00      	nop
  /* USER CODE BEGIN Error_Handler_Debug */
  /* User can add his own implementation to report the HAL error return state */
  __disable_irq();
  while (1)
 80012dc:	e7fe      	b.n	80012dc <Error_Handler+0x8>
	...

080012e0 <heartbeatUART>:

#include "peripheral_driver.h"
/***************************************************************************************************************
 * Generic Functions
 */
void heartbeatUART(UART_HandleTypeDef *huart) {
 80012e0:	b580      	push	{r7, lr}
 80012e2:	b082      	sub	sp, #8
 80012e4:	af00      	add	r7, sp, #0
 80012e6:	6078      	str	r0, [r7, #4]
	send_uart_string(huart, "**Heartbeat**\r\n");			// Transmit the heartbeat
 80012e8:	4903      	ldr	r1, [pc, #12]	; (80012f8 <heartbeatUART+0x18>)
 80012ea:	6878      	ldr	r0, [r7, #4]
 80012ec:	f000 fe81 	bl	8001ff2 <send_uart_string>
}
 80012f0:	bf00      	nop
 80012f2:	3708      	adds	r7, #8
 80012f4:	46bd      	mov	sp, r7
 80012f6:	bd80      	pop	{r7, pc}
 80012f8:	08006ebc 	.word	0x08006ebc

080012fc <eraseFlashSPI>:

/***************************************************************************************************************
 * SPI Flash Functions
 */
void eraseFlashSPI(SPI_HandleTypeDef *hspi, UART_HandleTypeDef *huart, uint8_t flashNo) {
 80012fc:	b580      	push	{r7, lr}
 80012fe:	b084      	sub	sp, #16
 8001300:	af00      	add	r7, sp, #0
 8001302:	60f8      	str	r0, [r7, #12]
 8001304:	60b9      	str	r1, [r7, #8]
 8001306:	4613      	mov	r3, r2
 8001308:	71fb      	strb	r3, [r7, #7]
	if (flashNo == 0 || flashNo == 1) {
 800130a:	79fb      	ldrb	r3, [r7, #7]
 800130c:	2b00      	cmp	r3, #0
 800130e:	d002      	beq.n	8001316 <eraseFlashSPI+0x1a>
 8001310:	79fb      	ldrb	r3, [r7, #7]
 8001312:	2b01      	cmp	r3, #1
 8001314:	d123      	bne.n	800135e <eraseFlashSPI+0x62>
		HAL_GPIO_WritePin(GPIOB, GPIO_PIN_7,GPIO_PIN_SET);		// Activate the "write out" LED
 8001316:	2201      	movs	r2, #1
 8001318:	2180      	movs	r1, #128	; 0x80
 800131a:	4813      	ldr	r0, [pc, #76]	; (8001368 <eraseFlashSPI+0x6c>)
 800131c:	f001 fa7e 	bl	800281c <HAL_GPIO_WritePin>
		if (erase_chip_spi(hspi, flashNo) == HAL_OK) {
 8001320:	79fb      	ldrb	r3, [r7, #7]
 8001322:	4619      	mov	r1, r3
 8001324:	68f8      	ldr	r0, [r7, #12]
 8001326:	f7ff fa5d 	bl	80007e4 <erase_chip_spi>
 800132a:	4603      	mov	r3, r0
 800132c:	2b00      	cmp	r3, #0
 800132e:	d10d      	bne.n	800134c <eraseFlashSPI+0x50>
			send_uart_string(huart, "Successful Chip Erase\r\n");
 8001330:	490e      	ldr	r1, [pc, #56]	; (800136c <eraseFlashSPI+0x70>)
 8001332:	68b8      	ldr	r0, [r7, #8]
 8001334:	f000 fe5d 	bl	8001ff2 <send_uart_string>
			next_blank_page = find_next_blank_page(hspi, huart, &end_of_flash, flashNo);
 8001338:	79fb      	ldrb	r3, [r7, #7]
 800133a:	4a0d      	ldr	r2, [pc, #52]	; (8001370 <eraseFlashSPI+0x74>)
 800133c:	68b9      	ldr	r1, [r7, #8]
 800133e:	68f8      	ldr	r0, [r7, #12]
 8001340:	f7ff fb36 	bl	80009b0 <find_next_blank_page>
 8001344:	4603      	mov	r3, r0
 8001346:	4a0b      	ldr	r2, [pc, #44]	; (8001374 <eraseFlashSPI+0x78>)
 8001348:	6013      	str	r3, [r2, #0]
 800134a:	e003      	b.n	8001354 <eraseFlashSPI+0x58>
		} else {
			send_uart_string(huart, "Error during chip erase. Please check the connection and try again.\r\n");
 800134c:	490a      	ldr	r1, [pc, #40]	; (8001378 <eraseFlashSPI+0x7c>)
 800134e:	68b8      	ldr	r0, [r7, #8]
 8001350:	f000 fe4f 	bl	8001ff2 <send_uart_string>
		}
		HAL_GPIO_WritePin(GPIOB, GPIO_PIN_7,GPIO_PIN_RESET);	// Deactivate the "write out" LED
 8001354:	2200      	movs	r2, #0
 8001356:	2180      	movs	r1, #128	; 0x80
 8001358:	4803      	ldr	r0, [pc, #12]	; (8001368 <eraseFlashSPI+0x6c>)
 800135a:	f001 fa5f 	bl	800281c <HAL_GPIO_WritePin>
	}
}
 800135e:	bf00      	nop
 8001360:	3710      	adds	r7, #16
 8001362:	46bd      	mov	sp, r7
 8001364:	bd80      	pop	{r7, pc}
 8001366:	bf00      	nop
 8001368:	40020400 	.word	0x40020400
 800136c:	08006ecc 	.word	0x08006ecc
 8001370:	20000312 	.word	0x20000312
 8001374:	2000030c 	.word	0x2000030c
 8001378:	08006ee4 	.word	0x08006ee4

0800137c <readFlashToUART>:

void readFlashToUART(SPI_HandleTypeDef *hspi, UART_HandleTypeDef *huart, uint8_t flashNo) {
 800137c:	b580      	push	{r7, lr}
 800137e:	b0c8      	sub	sp, #288	; 0x120
 8001380:	af00      	add	r7, sp, #0
 8001382:	f507 7390 	add.w	r3, r7, #288	; 0x120
 8001386:	f5a3 738a 	sub.w	r3, r3, #276	; 0x114
 800138a:	6018      	str	r0, [r3, #0]
 800138c:	f507 7390 	add.w	r3, r7, #288	; 0x120
 8001390:	f5a3 738c 	sub.w	r3, r3, #280	; 0x118
 8001394:	6019      	str	r1, [r3, #0]
 8001396:	f507 7390 	add.w	r3, r7, #288	; 0x120
 800139a:	f2a3 1319 	subw	r3, r3, #281	; 0x119
 800139e:	701a      	strb	r2, [r3, #0]
	uint32_t num_of_pages = next_blank_page;
 80013a0:	4b28      	ldr	r3, [pc, #160]	; (8001444 <readFlashToUART+0xc8>)
 80013a2:	681b      	ldr	r3, [r3, #0]
 80013a4:	f8c7 311c 	str.w	r3, [r7, #284]	; 0x11c
	if(num_of_pages == 0) {
 80013a8:	f8d7 311c 	ldr.w	r3, [r7, #284]	; 0x11c
 80013ac:	2b00      	cmp	r3, #0
 80013ae:	d103      	bne.n	80013b8 <readFlashToUART+0x3c>
		num_of_pages = PAGE_SIZE;
 80013b0:	f44f 7380 	mov.w	r3, #256	; 0x100
 80013b4:	f8c7 311c 	str.w	r3, [r7, #284]	; 0x11c
	}
	num_of_pages = num_of_pages/PAGE_SIZE;
 80013b8:	f8d7 311c 	ldr.w	r3, [r7, #284]	; 0x11c
 80013bc:	0a1b      	lsrs	r3, r3, #8
 80013be:	f8c7 311c 	str.w	r3, [r7, #284]	; 0x11c
	uint32_t address = 0;
 80013c2:	2300      	movs	r3, #0
 80013c4:	f8c7 3118 	str.w	r3, [r7, #280]	; 0x118
	HAL_GPIO_WritePin(GPIOB, GPIO_PIN_7,GPIO_PIN_SET);		// Activate the "write out" LED
 80013c8:	2201      	movs	r2, #1
 80013ca:	2180      	movs	r1, #128	; 0x80
 80013cc:	481e      	ldr	r0, [pc, #120]	; (8001448 <readFlashToUART+0xcc>)
 80013ce:	f001 fa25 	bl	800281c <HAL_GPIO_WritePin>

	for (int i = 0; i < (num_of_pages); i++) {
 80013d2:	2300      	movs	r3, #0
 80013d4:	f8c7 3114 	str.w	r3, [r7, #276]	; 0x114
 80013d8:	e024      	b.n	8001424 <readFlashToUART+0xa8>
		uint8_t page[PAGE_SIZE];
		read_page_spi(page, hspi, address, flashNo);//
 80013da:	f507 7390 	add.w	r3, r7, #288	; 0x120
 80013de:	f2a3 1319 	subw	r3, r3, #281	; 0x119
 80013e2:	781b      	ldrb	r3, [r3, #0]
 80013e4:	f507 7290 	add.w	r2, r7, #288	; 0x120
 80013e8:	f5a2 718a 	sub.w	r1, r2, #276	; 0x114
 80013ec:	f107 0014 	add.w	r0, r7, #20
 80013f0:	f8d7 2118 	ldr.w	r2, [r7, #280]	; 0x118
 80013f4:	6809      	ldr	r1, [r1, #0]
 80013f6:	f7ff fb89 	bl	8000b0c <read_page_spi>
		uart_transmit_page(huart, page);						// Transmit the data//
 80013fa:	f107 0214 	add.w	r2, r7, #20
 80013fe:	f507 7390 	add.w	r3, r7, #288	; 0x120
 8001402:	f5a3 738c 	sub.w	r3, r3, #280	; 0x118
 8001406:	4611      	mov	r1, r2
 8001408:	6818      	ldr	r0, [r3, #0]
 800140a:	f000 fde1 	bl	8001fd0 <uart_transmit_page>
		address += PAGE_SIZE;
 800140e:	f8d7 3118 	ldr.w	r3, [r7, #280]	; 0x118
 8001412:	f503 7380 	add.w	r3, r3, #256	; 0x100
 8001416:	f8c7 3118 	str.w	r3, [r7, #280]	; 0x118
	for (int i = 0; i < (num_of_pages); i++) {
 800141a:	f8d7 3114 	ldr.w	r3, [r7, #276]	; 0x114
 800141e:	3301      	adds	r3, #1
 8001420:	f8c7 3114 	str.w	r3, [r7, #276]	; 0x114
 8001424:	f8d7 3114 	ldr.w	r3, [r7, #276]	; 0x114
 8001428:	f8d7 211c 	ldr.w	r2, [r7, #284]	; 0x11c
 800142c:	429a      	cmp	r2, r3
 800142e:	d8d4      	bhi.n	80013da <readFlashToUART+0x5e>
	}

	HAL_GPIO_WritePin(GPIOB, GPIO_PIN_7,GPIO_PIN_RESET);	// Deactivate the "write out" LED
 8001430:	2200      	movs	r2, #0
 8001432:	2180      	movs	r1, #128	; 0x80
 8001434:	4804      	ldr	r0, [pc, #16]	; (8001448 <readFlashToUART+0xcc>)
 8001436:	f001 f9f1 	bl	800281c <HAL_GPIO_WritePin>
}
 800143a:	bf00      	nop
 800143c:	f507 7790 	add.w	r7, r7, #288	; 0x120
 8001440:	46bd      	mov	sp, r7
 8001442:	bd80      	pop	{r7, pc}
 8001444:	2000030c 	.word	0x2000030c
 8001448:	40020400 	.word	0x40020400

0800144c <readFlashManuSPI>:

void readFlashManuSPI(SPI_HandleTypeDef *hspi, UART_HandleTypeDef *huart, uint8_t flashNo) {
 800144c:	b580      	push	{r7, lr}
 800144e:	b086      	sub	sp, #24
 8001450:	af00      	add	r7, sp, #0
 8001452:	60f8      	str	r0, [r7, #12]
 8001454:	60b9      	str	r1, [r7, #8]
 8001456:	4613      	mov	r3, r2
 8001458:	71fb      	strb	r3, [r7, #7]
	uint8_t manu[2] = {0, 0};
 800145a:	2300      	movs	r3, #0
 800145c:	82bb      	strh	r3, [r7, #20]
	read_manufacturer_id(manu, hspi, flashNo);
 800145e:	79fa      	ldrb	r2, [r7, #7]
 8001460:	f107 0314 	add.w	r3, r7, #20
 8001464:	68f9      	ldr	r1, [r7, #12]
 8001466:	4618      	mov	r0, r3
 8001468:	f7ff fb80 	bl	8000b6c <read_manufacturer_id>
	send_uart_hex(huart, manu[0]);
 800146c:	7d3b      	ldrb	r3, [r7, #20]
 800146e:	4619      	mov	r1, r3
 8001470:	68b8      	ldr	r0, [r7, #8]
 8001472:	f000 fdd2 	bl	800201a <send_uart_hex>
	send_uart_hex(huart, manu[1]);
 8001476:	7d7b      	ldrb	r3, [r7, #21]
 8001478:	4619      	mov	r1, r3
 800147a:	68b8      	ldr	r0, [r7, #8]
 800147c:	f000 fdcd 	bl	800201a <send_uart_hex>
}
 8001480:	bf00      	nop
 8001482:	3718      	adds	r7, #24
 8001484:	46bd      	mov	sp, r7
 8001486:	bd80      	pop	{r7, pc}

08001488 <writePageSPI_W>:

void writePageSPI_W(SPI_HandleTypeDef *hspi, UART_HandleTypeDef *huart, uint8_t flashNo) {
 8001488:	b580      	push	{r7, lr}
 800148a:	b0c8      	sub	sp, #288	; 0x120
 800148c:	af02      	add	r7, sp, #8
 800148e:	f507 738c 	add.w	r3, r7, #280	; 0x118
 8001492:	f5a3 7386 	sub.w	r3, r3, #268	; 0x10c
 8001496:	6018      	str	r0, [r3, #0]
 8001498:	f507 738c 	add.w	r3, r7, #280	; 0x118
 800149c:	f5a3 7388 	sub.w	r3, r3, #272	; 0x110
 80014a0:	6019      	str	r1, [r3, #0]
 80014a2:	f507 738c 	add.w	r3, r7, #280	; 0x118
 80014a6:	f2a3 1311 	subw	r3, r3, #273	; 0x111
 80014aa:	701a      	strb	r2, [r3, #0]
	uint8_t data_out[PAGE_SIZE];
	for (int i = 0; i < PAGE_SIZE; i++) {
 80014ac:	2300      	movs	r3, #0
 80014ae:	f8c7 3114 	str.w	r3, [r7, #276]	; 0x114
 80014b2:	e00d      	b.n	80014d0 <writePageSPI_W+0x48>
		data_out[i] = 0x77;		// Make all data in the page 'w'
 80014b4:	f507 738c 	add.w	r3, r7, #280	; 0x118
 80014b8:	f5a3 7282 	sub.w	r2, r3, #260	; 0x104
 80014bc:	f8d7 3114 	ldr.w	r3, [r7, #276]	; 0x114
 80014c0:	4413      	add	r3, r2
 80014c2:	2277      	movs	r2, #119	; 0x77
 80014c4:	701a      	strb	r2, [r3, #0]
	for (int i = 0; i < PAGE_SIZE; i++) {
 80014c6:	f8d7 3114 	ldr.w	r3, [r7, #276]	; 0x114
 80014ca:	3301      	adds	r3, #1
 80014cc:	f8c7 3114 	str.w	r3, [r7, #276]	; 0x114
 80014d0:	f8d7 3114 	ldr.w	r3, [r7, #276]	; 0x114
 80014d4:	2bff      	cmp	r3, #255	; 0xff
 80014d6:	dded      	ble.n	80014b4 <writePageSPI_W+0x2c>
	}
	write_data_spi(data_out, GPIO_PIN_SET, hspi, next_blank_page, flashNo);
 80014d8:	4b12      	ldr	r3, [pc, #72]	; (8001524 <writePageSPI_W+0x9c>)
 80014da:	6819      	ldr	r1, [r3, #0]
 80014dc:	f507 738c 	add.w	r3, r7, #280	; 0x118
 80014e0:	f5a3 7286 	sub.w	r2, r3, #268	; 0x10c
 80014e4:	f107 0014 	add.w	r0, r7, #20
 80014e8:	f507 738c 	add.w	r3, r7, #280	; 0x118
 80014ec:	f2a3 1311 	subw	r3, r3, #273	; 0x111
 80014f0:	781b      	ldrb	r3, [r3, #0]
 80014f2:	9300      	str	r3, [sp, #0]
 80014f4:	460b      	mov	r3, r1
 80014f6:	6812      	ldr	r2, [r2, #0]
 80014f8:	2101      	movs	r1, #1
 80014fa:	f7ff f9fb 	bl	80008f4 <write_data_spi>
	next_blank_page += PAGE_SIZE;
 80014fe:	4b09      	ldr	r3, [pc, #36]	; (8001524 <writePageSPI_W+0x9c>)
 8001500:	681b      	ldr	r3, [r3, #0]
 8001502:	f503 7380 	add.w	r3, r3, #256	; 0x100
 8001506:	4a07      	ldr	r2, [pc, #28]	; (8001524 <writePageSPI_W+0x9c>)
 8001508:	6013      	str	r3, [r2, #0]

	send_uart_string(huart, "Successful Page Written\r\n");
 800150a:	f507 738c 	add.w	r3, r7, #280	; 0x118
 800150e:	f5a3 7388 	sub.w	r3, r3, #272	; 0x110
 8001512:	4905      	ldr	r1, [pc, #20]	; (8001528 <writePageSPI_W+0xa0>)
 8001514:	6818      	ldr	r0, [r3, #0]
 8001516:	f000 fd6c 	bl	8001ff2 <send_uart_string>
}
 800151a:	bf00      	nop
 800151c:	f507 778c 	add.w	r7, r7, #280	; 0x118
 8001520:	46bd      	mov	sp, r7
 8001522:	bd80      	pop	{r7, pc}
 8001524:	2000030c 	.word	0x2000030c
 8001528:	08006f2c 	.word	0x08006f2c

0800152c <resetSPIFlash>:

void resetSPIFlash(SPI_HandleTypeDef *hspi, UART_HandleTypeDef *huart, uint8_t flashNo) {
 800152c:	b580      	push	{r7, lr}
 800152e:	b084      	sub	sp, #16
 8001530:	af00      	add	r7, sp, #0
 8001532:	60f8      	str	r0, [r7, #12]
 8001534:	60b9      	str	r1, [r7, #8]
 8001536:	4613      	mov	r3, r2
 8001538:	71fb      	strb	r3, [r7, #7]
	software_reset(hspi, flashNo);
 800153a:	79fb      	ldrb	r3, [r7, #7]
 800153c:	4619      	mov	r1, r3
 800153e:	68f8      	ldr	r0, [r7, #12]
 8001540:	f7ff f9a8 	bl	8000894 <software_reset>
	send_uart_string(huart, "Flash Chip Reset\r\n");
 8001544:	4903      	ldr	r1, [pc, #12]	; (8001554 <resetSPIFlash+0x28>)
 8001546:	68b8      	ldr	r0, [r7, #8]
 8001548:	f000 fd53 	bl	8001ff2 <send_uart_string>
}
 800154c:	bf00      	nop
 800154e:	3710      	adds	r7, #16
 8001550:	46bd      	mov	sp, r7
 8001552:	bd80      	pop	{r7, pc}
 8001554:	08006f48 	.word	0x08006f48

08001558 <checkAccelWhoAmI>:

/***************************************************************************************************************
 * I2C Accelerometer Functions
 */
void checkAccelWhoAmI(I2C_HandleTypeDef* hi2c, UART_HandleTypeDef *huart) {
 8001558:	b580      	push	{r7, lr}
 800155a:	b084      	sub	sp, #16
 800155c:	af00      	add	r7, sp, #0
 800155e:	6078      	str	r0, [r7, #4]
 8001560:	6039      	str	r1, [r7, #0]
	uint8_t whoami = readAccel_whoami(hi2c);
 8001562:	6878      	ldr	r0, [r7, #4]
 8001564:	f7fe fffa 	bl	800055c <readAccel_whoami>
 8001568:	4603      	mov	r3, r0
 800156a:	73fb      	strb	r3, [r7, #15]
	send_uart_hex(huart, whoami);
 800156c:	7bfb      	ldrb	r3, [r7, #15]
 800156e:	4619      	mov	r1, r3
 8001570:	6838      	ldr	r0, [r7, #0]
 8001572:	f000 fd52 	bl	800201a <send_uart_hex>
}
 8001576:	bf00      	nop
 8001578:	3710      	adds	r7, #16
 800157a:	46bd      	mov	sp, r7
 800157c:	bd80      	pop	{r7, pc}
	...

08001580 <accelToUART>:

void accelToUART(UART_HandleTypeDef *huart) {
 8001580:	b580      	push	{r7, lr}
 8001582:	b084      	sub	sp, #16
 8001584:	af00      	add	r7, sp, #0
 8001586:	6078      	str	r0, [r7, #4]
	for (int i = 0; i < 6; i++) {
 8001588:	2300      	movs	r3, #0
 800158a:	60fb      	str	r3, [r7, #12]
 800158c:	e00a      	b.n	80015a4 <accelToUART+0x24>
		send_uart_hex(huart, accel_data[i]);
 800158e:	4a09      	ldr	r2, [pc, #36]	; (80015b4 <accelToUART+0x34>)
 8001590:	68fb      	ldr	r3, [r7, #12]
 8001592:	4413      	add	r3, r2
 8001594:	781b      	ldrb	r3, [r3, #0]
 8001596:	4619      	mov	r1, r3
 8001598:	6878      	ldr	r0, [r7, #4]
 800159a:	f000 fd3e 	bl	800201a <send_uart_hex>
	for (int i = 0; i < 6; i++) {
 800159e:	68fb      	ldr	r3, [r7, #12]
 80015a0:	3301      	adds	r3, #1
 80015a2:	60fb      	str	r3, [r7, #12]
 80015a4:	68fb      	ldr	r3, [r7, #12]
 80015a6:	2b05      	cmp	r3, #5
 80015a8:	ddf1      	ble.n	800158e <accelToUART+0xe>
	}
}
 80015aa:	bf00      	nop
 80015ac:	bf00      	nop
 80015ae:	3710      	adds	r7, #16
 80015b0:	46bd      	mov	sp, r7
 80015b2:	bd80      	pop	{r7, pc}
 80015b4:	200002f4 	.word	0x200002f4

080015b8 <readTempSensorID>:

/***************************************************************************************************************
 * I2C Temperature Sensor Functions
 */
void readTempSensorID(I2C_HandleTypeDef* hi2c, UART_HandleTypeDef *huart, uint8_t tempNo) {
 80015b8:	b580      	push	{r7, lr}
 80015ba:	b084      	sub	sp, #16
 80015bc:	af00      	add	r7, sp, #0
 80015be:	60f8      	str	r0, [r7, #12]
 80015c0:	60b9      	str	r1, [r7, #8]
 80015c2:	4613      	mov	r3, r2
 80015c4:	71fb      	strb	r3, [r7, #7]
	send_uart_hex(huart, readBME280_id_reg(hi2c, tempNo));
 80015c6:	79fb      	ldrb	r3, [r7, #7]
 80015c8:	4619      	mov	r1, r3
 80015ca:	68f8      	ldr	r0, [r7, #12]
 80015cc:	f7ff f874 	bl	80006b8 <readBME280_id_reg>
 80015d0:	4603      	mov	r3, r0
 80015d2:	4619      	mov	r1, r3
 80015d4:	68b8      	ldr	r0, [r7, #8]
 80015d6:	f000 fd20 	bl	800201a <send_uart_hex>
}
 80015da:	bf00      	nop
 80015dc:	3710      	adds	r7, #16
 80015de:	46bd      	mov	sp, r7
 80015e0:	bd80      	pop	{r7, pc}

080015e2 <readTempCalibration>:

void readTempCalibration(I2C_HandleTypeDef* hi2c, UART_HandleTypeDef *huart, uint8_t tempNo) {
 80015e2:	b580      	push	{r7, lr}
 80015e4:	b090      	sub	sp, #64	; 0x40
 80015e6:	af00      	add	r7, sp, #0
 80015e8:	60f8      	str	r0, [r7, #12]
 80015ea:	60b9      	str	r1, [r7, #8]
 80015ec:	4613      	mov	r3, r2
 80015ee:	71fb      	strb	r3, [r7, #7]
	uint8_t calibration1[25];
	uint8_t calibration2[7];
	readBME280_calib(hi2c, tempNo, calibration1, calibration2);
 80015f0:	f107 0314 	add.w	r3, r7, #20
 80015f4:	f107 021c 	add.w	r2, r7, #28
 80015f8:	79f9      	ldrb	r1, [r7, #7]
 80015fa:	68f8      	ldr	r0, [r7, #12]
 80015fc:	f7ff f876 	bl	80006ec <readBME280_calib>

	for (int i = 0; i < 25; i++) {
 8001600:	2300      	movs	r3, #0
 8001602:	63fb      	str	r3, [r7, #60]	; 0x3c
 8001604:	e00b      	b.n	800161e <readTempCalibration+0x3c>
	  send_uart_hex(huart, calibration1[i]);
 8001606:	f107 021c 	add.w	r2, r7, #28
 800160a:	6bfb      	ldr	r3, [r7, #60]	; 0x3c
 800160c:	4413      	add	r3, r2
 800160e:	781b      	ldrb	r3, [r3, #0]
 8001610:	4619      	mov	r1, r3
 8001612:	68b8      	ldr	r0, [r7, #8]
 8001614:	f000 fd01 	bl	800201a <send_uart_hex>
	for (int i = 0; i < 25; i++) {
 8001618:	6bfb      	ldr	r3, [r7, #60]	; 0x3c
 800161a:	3301      	adds	r3, #1
 800161c:	63fb      	str	r3, [r7, #60]	; 0x3c
 800161e:	6bfb      	ldr	r3, [r7, #60]	; 0x3c
 8001620:	2b18      	cmp	r3, #24
 8001622:	ddf0      	ble.n	8001606 <readTempCalibration+0x24>
	}

	for (int i = 0; i < 7; i++) {
 8001624:	2300      	movs	r3, #0
 8001626:	63bb      	str	r3, [r7, #56]	; 0x38
 8001628:	e00b      	b.n	8001642 <readTempCalibration+0x60>
	  send_uart_hex(huart, calibration2[i]);
 800162a:	f107 0214 	add.w	r2, r7, #20
 800162e:	6bbb      	ldr	r3, [r7, #56]	; 0x38
 8001630:	4413      	add	r3, r2
 8001632:	781b      	ldrb	r3, [r3, #0]
 8001634:	4619      	mov	r1, r3
 8001636:	68b8      	ldr	r0, [r7, #8]
 8001638:	f000 fcef 	bl	800201a <send_uart_hex>
	for (int i = 0; i < 7; i++) {
 800163c:	6bbb      	ldr	r3, [r7, #56]	; 0x38
 800163e:	3301      	adds	r3, #1
 8001640:	63bb      	str	r3, [r7, #56]	; 0x38
 8001642:	6bbb      	ldr	r3, [r7, #56]	; 0x38
 8001644:	2b06      	cmp	r3, #6
 8001646:	ddf0      	ble.n	800162a <readTempCalibration+0x48>
	}
}
 8001648:	bf00      	nop
 800164a:	bf00      	nop
 800164c:	3740      	adds	r7, #64	; 0x40
 800164e:	46bd      	mov	sp, r7
 8001650:	bd80      	pop	{r7, pc}
	...

08001654 <readTempSensor>:

void readTempSensor(UART_HandleTypeDef *huart, uint8_t tempNo) {
 8001654:	b580      	push	{r7, lr}
 8001656:	b084      	sub	sp, #16
 8001658:	af00      	add	r7, sp, #0
 800165a:	6078      	str	r0, [r7, #4]
 800165c:	460b      	mov	r3, r1
 800165e:	70fb      	strb	r3, [r7, #3]
	if (tempNo == 0) {
 8001660:	78fb      	ldrb	r3, [r7, #3]
 8001662:	2b00      	cmp	r3, #0
 8001664:	d111      	bne.n	800168a <readTempSensor+0x36>
		for (int i = 0; i < 8; i++) {
 8001666:	2300      	movs	r3, #0
 8001668:	60fb      	str	r3, [r7, #12]
 800166a:	e00a      	b.n	8001682 <readTempSensor+0x2e>
			send_uart_hex(huart, bme280_data_1[i]);
 800166c:	4a13      	ldr	r2, [pc, #76]	; (80016bc <readTempSensor+0x68>)
 800166e:	68fb      	ldr	r3, [r7, #12]
 8001670:	4413      	add	r3, r2
 8001672:	781b      	ldrb	r3, [r3, #0]
 8001674:	4619      	mov	r1, r3
 8001676:	6878      	ldr	r0, [r7, #4]
 8001678:	f000 fccf 	bl	800201a <send_uart_hex>
		for (int i = 0; i < 8; i++) {
 800167c:	68fb      	ldr	r3, [r7, #12]
 800167e:	3301      	adds	r3, #1
 8001680:	60fb      	str	r3, [r7, #12]
 8001682:	68fb      	ldr	r3, [r7, #12]
 8001684:	2b07      	cmp	r3, #7
 8001686:	ddf1      	ble.n	800166c <readTempSensor+0x18>
			send_uart_hex(huart, bme280_data_2[i]);
		}
	}


}
 8001688:	e013      	b.n	80016b2 <readTempSensor+0x5e>
	} else if (tempNo == 1) {
 800168a:	78fb      	ldrb	r3, [r7, #3]
 800168c:	2b01      	cmp	r3, #1
 800168e:	d110      	bne.n	80016b2 <readTempSensor+0x5e>
		for (int i = 0; i < 8; i++) {
 8001690:	2300      	movs	r3, #0
 8001692:	60bb      	str	r3, [r7, #8]
 8001694:	e00a      	b.n	80016ac <readTempSensor+0x58>
			send_uart_hex(huart, bme280_data_2[i]);
 8001696:	4a0a      	ldr	r2, [pc, #40]	; (80016c0 <readTempSensor+0x6c>)
 8001698:	68bb      	ldr	r3, [r7, #8]
 800169a:	4413      	add	r3, r2
 800169c:	781b      	ldrb	r3, [r3, #0]
 800169e:	4619      	mov	r1, r3
 80016a0:	6878      	ldr	r0, [r7, #4]
 80016a2:	f000 fcba 	bl	800201a <send_uart_hex>
		for (int i = 0; i < 8; i++) {
 80016a6:	68bb      	ldr	r3, [r7, #8]
 80016a8:	3301      	adds	r3, #1
 80016aa:	60bb      	str	r3, [r7, #8]
 80016ac:	68bb      	ldr	r3, [r7, #8]
 80016ae:	2b07      	cmp	r3, #7
 80016b0:	ddf1      	ble.n	8001696 <readTempSensor+0x42>
}
 80016b2:	bf00      	nop
 80016b4:	3710      	adds	r7, #16
 80016b6:	46bd      	mov	sp, r7
 80016b8:	bd80      	pop	{r7, pc}
 80016ba:	bf00      	nop
 80016bc:	200002fc 	.word	0x200002fc
 80016c0:	20000304 	.word	0x20000304

080016c4 <readAllSensors>:

/***************************************************************************************************************
 * Process All Sensors
 */
void readAllSensors(I2C_HandleTypeDef* hi2c_accel, I2C_HandleTypeDef* hi2c_temp, RTC_HandleTypeDef* hrtc) {
 80016c4:	b580      	push	{r7, lr}
 80016c6:	b08a      	sub	sp, #40	; 0x28
 80016c8:	af00      	add	r7, sp, #0
 80016ca:	60f8      	str	r0, [r7, #12]
 80016cc:	60b9      	str	r1, [r7, #8]
 80016ce:	607a      	str	r2, [r7, #4]
	HAL_GPIO_TogglePin(GPIOB, GPIO_PIN_7);		// Toggle LED
 80016d0:	2180      	movs	r1, #128	; 0x80
 80016d2:	4842      	ldr	r0, [pc, #264]	; (80017dc <readAllSensors+0x118>)
 80016d4:	f001 f8bb 	bl	800284e <HAL_GPIO_TogglePin>

	// Read Accelerometer Data
	readAccelerometer(accel_data, hi2c_accel);
 80016d8:	68f9      	ldr	r1, [r7, #12]
 80016da:	4841      	ldr	r0, [pc, #260]	; (80017e0 <readAllSensors+0x11c>)
 80016dc:	f7fe ff2a 	bl	8000534 <readAccelerometer>

	readTempHumPres(bme280_data_1, hi2c_temp, 0);
 80016e0:	2200      	movs	r2, #0
 80016e2:	68b9      	ldr	r1, [r7, #8]
 80016e4:	483f      	ldr	r0, [pc, #252]	; (80017e4 <readAllSensors+0x120>)
 80016e6:	f7fe ff97 	bl	8000618 <readTempHumPres>
	//  readTempHumPres(bme280_data_2, hi2c_temp, 1);

	uint16_t time = getTimestampMilliseconds(hrtc);
 80016ea:	6878      	ldr	r0, [r7, #4]
 80016ec:	f000 f89c 	bl	8001828 <getTimestampMilliseconds>
 80016f0:	4603      	mov	r3, r0
 80016f2:	82fb      	strh	r3, [r7, #22]
	uint8_t array_ptr = 0;
 80016f4:	2300      	movs	r3, #0
 80016f6:	f887 3027 	strb.w	r3, [r7, #39]	; 0x27
	// Store the time in the buffer if there is space
	if (byte_tracker < (PAGE_SIZE - READ_SIZE)) {
 80016fa:	4b3b      	ldr	r3, [pc, #236]	; (80017e8 <readAllSensors+0x124>)
 80016fc:	881b      	ldrh	r3, [r3, #0]
 80016fe:	2be7      	cmp	r3, #231	; 0xe7
 8001700:	d868      	bhi.n	80017d4 <readAllSensors+0x110>
		data_buffer[byte_tracker + 0] = (uint8_t) ((time >> 8) & 0xFF);
 8001702:	8afb      	ldrh	r3, [r7, #22]
 8001704:	0a1b      	lsrs	r3, r3, #8
 8001706:	b299      	uxth	r1, r3
 8001708:	4b37      	ldr	r3, [pc, #220]	; (80017e8 <readAllSensors+0x124>)
 800170a:	881b      	ldrh	r3, [r3, #0]
 800170c:	461a      	mov	r2, r3
 800170e:	b2c9      	uxtb	r1, r1
 8001710:	4b36      	ldr	r3, [pc, #216]	; (80017ec <readAllSensors+0x128>)
 8001712:	5499      	strb	r1, [r3, r2]
		data_buffer[byte_tracker + 1] = (uint8_t) (time & 0xFF); // Least significant byte (LSB)
 8001714:	4b34      	ldr	r3, [pc, #208]	; (80017e8 <readAllSensors+0x124>)
 8001716:	881b      	ldrh	r3, [r3, #0]
 8001718:	3301      	adds	r3, #1
 800171a:	8afa      	ldrh	r2, [r7, #22]
 800171c:	b2d1      	uxtb	r1, r2
 800171e:	4a33      	ldr	r2, [pc, #204]	; (80017ec <readAllSensors+0x128>)
 8001720:	54d1      	strb	r1, [r2, r3]

		array_ptr += 2;
 8001722:	f897 3027 	ldrb.w	r3, [r7, #39]	; 0x27
 8001726:	3302      	adds	r3, #2
 8001728:	f887 3027 	strb.w	r3, [r7, #39]	; 0x27
		for (int i = 0; i < 6; i++) {
 800172c:	2300      	movs	r3, #0
 800172e:	623b      	str	r3, [r7, #32]
 8001730:	e013      	b.n	800175a <readAllSensors+0x96>
		  data_buffer[byte_tracker + array_ptr] = accel_data[i];
 8001732:	4b2d      	ldr	r3, [pc, #180]	; (80017e8 <readAllSensors+0x124>)
 8001734:	881b      	ldrh	r3, [r3, #0]
 8001736:	461a      	mov	r2, r3
 8001738:	f897 3027 	ldrb.w	r3, [r7, #39]	; 0x27
 800173c:	4413      	add	r3, r2
 800173e:	4928      	ldr	r1, [pc, #160]	; (80017e0 <readAllSensors+0x11c>)
 8001740:	6a3a      	ldr	r2, [r7, #32]
 8001742:	440a      	add	r2, r1
 8001744:	7811      	ldrb	r1, [r2, #0]
 8001746:	4a29      	ldr	r2, [pc, #164]	; (80017ec <readAllSensors+0x128>)
 8001748:	54d1      	strb	r1, [r2, r3]
		  array_ptr += 1;
 800174a:	f897 3027 	ldrb.w	r3, [r7, #39]	; 0x27
 800174e:	3301      	adds	r3, #1
 8001750:	f887 3027 	strb.w	r3, [r7, #39]	; 0x27
		for (int i = 0; i < 6; i++) {
 8001754:	6a3b      	ldr	r3, [r7, #32]
 8001756:	3301      	adds	r3, #1
 8001758:	623b      	str	r3, [r7, #32]
 800175a:	6a3b      	ldr	r3, [r7, #32]
 800175c:	2b05      	cmp	r3, #5
 800175e:	dde8      	ble.n	8001732 <readAllSensors+0x6e>
		}

		for (int i = 0; i < 8; i++) {
 8001760:	2300      	movs	r3, #0
 8001762:	61fb      	str	r3, [r7, #28]
 8001764:	e013      	b.n	800178e <readAllSensors+0xca>
		  data_buffer[byte_tracker + array_ptr] = bme280_data_1[i];
 8001766:	4b20      	ldr	r3, [pc, #128]	; (80017e8 <readAllSensors+0x124>)
 8001768:	881b      	ldrh	r3, [r3, #0]
 800176a:	461a      	mov	r2, r3
 800176c:	f897 3027 	ldrb.w	r3, [r7, #39]	; 0x27
 8001770:	4413      	add	r3, r2
 8001772:	491c      	ldr	r1, [pc, #112]	; (80017e4 <readAllSensors+0x120>)
 8001774:	69fa      	ldr	r2, [r7, #28]
 8001776:	440a      	add	r2, r1
 8001778:	7811      	ldrb	r1, [r2, #0]
 800177a:	4a1c      	ldr	r2, [pc, #112]	; (80017ec <readAllSensors+0x128>)
 800177c:	54d1      	strb	r1, [r2, r3]
		  array_ptr += 1;
 800177e:	f897 3027 	ldrb.w	r3, [r7, #39]	; 0x27
 8001782:	3301      	adds	r3, #1
 8001784:	f887 3027 	strb.w	r3, [r7, #39]	; 0x27
		for (int i = 0; i < 8; i++) {
 8001788:	69fb      	ldr	r3, [r7, #28]
 800178a:	3301      	adds	r3, #1
 800178c:	61fb      	str	r3, [r7, #28]
 800178e:	69fb      	ldr	r3, [r7, #28]
 8001790:	2b07      	cmp	r3, #7
 8001792:	dde8      	ble.n	8001766 <readAllSensors+0xa2>
		}

		for (int i = 0; i < 8; i++) {
 8001794:	2300      	movs	r3, #0
 8001796:	61bb      	str	r3, [r7, #24]
 8001798:	e013      	b.n	80017c2 <readAllSensors+0xfe>
		  data_buffer[byte_tracker + array_ptr] = bme280_data_2[i];
 800179a:	4b13      	ldr	r3, [pc, #76]	; (80017e8 <readAllSensors+0x124>)
 800179c:	881b      	ldrh	r3, [r3, #0]
 800179e:	461a      	mov	r2, r3
 80017a0:	f897 3027 	ldrb.w	r3, [r7, #39]	; 0x27
 80017a4:	4413      	add	r3, r2
 80017a6:	4912      	ldr	r1, [pc, #72]	; (80017f0 <readAllSensors+0x12c>)
 80017a8:	69ba      	ldr	r2, [r7, #24]
 80017aa:	440a      	add	r2, r1
 80017ac:	7811      	ldrb	r1, [r2, #0]
 80017ae:	4a0f      	ldr	r2, [pc, #60]	; (80017ec <readAllSensors+0x128>)
 80017b0:	54d1      	strb	r1, [r2, r3]
		  array_ptr += 1;
 80017b2:	f897 3027 	ldrb.w	r3, [r7, #39]	; 0x27
 80017b6:	3301      	adds	r3, #1
 80017b8:	f887 3027 	strb.w	r3, [r7, #39]	; 0x27
		for (int i = 0; i < 8; i++) {
 80017bc:	69bb      	ldr	r3, [r7, #24]
 80017be:	3301      	adds	r3, #1
 80017c0:	61bb      	str	r3, [r7, #24]
 80017c2:	69bb      	ldr	r3, [r7, #24]
 80017c4:	2b07      	cmp	r3, #7
 80017c6:	dde8      	ble.n	800179a <readAllSensors+0xd6>
		}

		byte_tracker = byte_tracker + 24;
 80017c8:	4b07      	ldr	r3, [pc, #28]	; (80017e8 <readAllSensors+0x124>)
 80017ca:	881b      	ldrh	r3, [r3, #0]
 80017cc:	3318      	adds	r3, #24
 80017ce:	b29a      	uxth	r2, r3
 80017d0:	4b05      	ldr	r3, [pc, #20]	; (80017e8 <readAllSensors+0x124>)
 80017d2:	801a      	strh	r2, [r3, #0]
	}
}
 80017d4:	bf00      	nop
 80017d6:	3728      	adds	r7, #40	; 0x28
 80017d8:	46bd      	mov	sp, r7
 80017da:	bd80      	pop	{r7, pc}
 80017dc:	40020400 	.word	0x40020400
 80017e0:	200002f4 	.word	0x200002f4
 80017e4:	200002fc 	.word	0x200002fc
 80017e8:	20000310 	.word	0x20000310
 80017ec:	200001f4 	.word	0x200001f4
 80017f0:	20000304 	.word	0x20000304

080017f4 <initialise_rtc_default>:
    .Month = RTC_MONTH_JANUARY, // Set default month (e.g., January)
    .Date = 1, // Set default day of the month
    .Year = 24 // Set default year (e.g., 2021)
};

void initialise_rtc_default(RTC_HandleTypeDef* hrtc) {
 80017f4:	b580      	push	{r7, lr}
 80017f6:	b082      	sub	sp, #8
 80017f8:	af00      	add	r7, sp, #0
 80017fa:	6078      	str	r0, [r7, #4]
	// Reset RTC on boot
	HAL_RTC_MspInit(hrtc); // Initialize RTC hardware
 80017fc:	6878      	ldr	r0, [r7, #4]
 80017fe:	f000 f9db 	bl	8001bb8 <HAL_RTC_MspInit>
	HAL_RTC_SetTime(hrtc, &defaultTime, RTC_FORMAT_BIN); // Set default time
 8001802:	2200      	movs	r2, #0
 8001804:	4906      	ldr	r1, [pc, #24]	; (8001820 <initialise_rtc_default+0x2c>)
 8001806:	6878      	ldr	r0, [r7, #4]
 8001808:	f002 ff4d 	bl	80046a6 <HAL_RTC_SetTime>
	HAL_RTC_SetDate(hrtc, &defaultDate, RTC_FORMAT_BIN); // Set default date
 800180c:	2200      	movs	r2, #0
 800180e:	4905      	ldr	r1, [pc, #20]	; (8001824 <initialise_rtc_default+0x30>)
 8001810:	6878      	ldr	r0, [r7, #4]
 8001812:	f003 f840 	bl	8004896 <HAL_RTC_SetDate>
}
 8001816:	bf00      	nop
 8001818:	3708      	adds	r7, #8
 800181a:	46bd      	mov	sp, r7
 800181c:	bd80      	pop	{r7, pc}
 800181e:	bf00      	nop
 8001820:	20000314 	.word	0x20000314
 8001824:	20000014 	.word	0x20000014

08001828 <getTimestampMilliseconds>:

uint32_t getTimestampMilliseconds(RTC_HandleTypeDef* hrtc) {
 8001828:	b580      	push	{r7, lr}
 800182a:	b08c      	sub	sp, #48	; 0x30
 800182c:	af00      	add	r7, sp, #0
 800182e:	6078      	str	r0, [r7, #4]
    RTC_TimeTypeDef rtcTime;
    RTC_DateTypeDef rtcDate;

    // Read RTC time and date
    HAL_RTC_GetTime(hrtc, &rtcTime, RTC_FORMAT_BIN);
 8001830:	f107 0310 	add.w	r3, r7, #16
 8001834:	2200      	movs	r2, #0
 8001836:	4619      	mov	r1, r3
 8001838:	6878      	ldr	r0, [r7, #4]
 800183a:	f002 ffce 	bl	80047da <HAL_RTC_GetTime>
    HAL_RTC_GetDate(hrtc, &rtcDate, RTC_FORMAT_BIN);
 800183e:	f107 030c 	add.w	r3, r7, #12
 8001842:	2200      	movs	r2, #0
 8001844:	4619      	mov	r1, r3
 8001846:	6878      	ldr	r0, [r7, #4]
 8001848:	f003 f8a9 	bl	800499e <HAL_RTC_GetDate>

    // Calculate timestamp in milliseconds
    uint32_t timestampSeconds = rtcTime.Seconds + rtcTime.Minutes * 60 + rtcTime.Hours * 3600;
 800184c:	7cbb      	ldrb	r3, [r7, #18]
 800184e:	4619      	mov	r1, r3
 8001850:	7c7b      	ldrb	r3, [r7, #17]
 8001852:	461a      	mov	r2, r3
 8001854:	4613      	mov	r3, r2
 8001856:	011b      	lsls	r3, r3, #4
 8001858:	1a9b      	subs	r3, r3, r2
 800185a:	009b      	lsls	r3, r3, #2
 800185c:	18ca      	adds	r2, r1, r3
 800185e:	7c3b      	ldrb	r3, [r7, #16]
 8001860:	4619      	mov	r1, r3
 8001862:	f44f 6361 	mov.w	r3, #3600	; 0xe10
 8001866:	fb01 f303 	mul.w	r3, r1, r3
 800186a:	4413      	add	r3, r2
 800186c:	62fb      	str	r3, [r7, #44]	; 0x2c
    uint32_t timestampMilliseconds = timestampSeconds * 1000;
 800186e:	6afb      	ldr	r3, [r7, #44]	; 0x2c
 8001870:	f44f 727a 	mov.w	r2, #1000	; 0x3e8
 8001874:	fb02 f303 	mul.w	r3, r2, r3
 8001878:	62bb      	str	r3, [r7, #40]	; 0x28
    float subsecondsFraction = (float)(rtcTime.SecondFraction - rtcTime.SubSeconds) / (rtcTime.SecondFraction + 1);
 800187a:	69ba      	ldr	r2, [r7, #24]
 800187c:	697b      	ldr	r3, [r7, #20]
 800187e:	1ad3      	subs	r3, r2, r3
 8001880:	ee07 3a90 	vmov	s15, r3
 8001884:	eef8 6a67 	vcvt.f32.u32	s13, s15
 8001888:	69bb      	ldr	r3, [r7, #24]
 800188a:	3301      	adds	r3, #1
 800188c:	ee07 3a90 	vmov	s15, r3
 8001890:	eeb8 7a67 	vcvt.f32.u32	s14, s15
 8001894:	eec6 7a87 	vdiv.f32	s15, s13, s14
 8001898:	edc7 7a09 	vstr	s15, [r7, #36]	; 0x24
    timestampMilliseconds += subsecondsFraction * 1000;
 800189c:	6abb      	ldr	r3, [r7, #40]	; 0x28
 800189e:	ee07 3a90 	vmov	s15, r3
 80018a2:	eeb8 7a67 	vcvt.f32.u32	s14, s15
 80018a6:	edd7 7a09 	vldr	s15, [r7, #36]	; 0x24
 80018aa:	eddf 6a08 	vldr	s13, [pc, #32]	; 80018cc <getTimestampMilliseconds+0xa4>
 80018ae:	ee67 7aa6 	vmul.f32	s15, s15, s13
 80018b2:	ee77 7a27 	vadd.f32	s15, s14, s15
 80018b6:	eefc 7ae7 	vcvt.u32.f32	s15, s15
 80018ba:	ee17 3a90 	vmov	r3, s15
 80018be:	62bb      	str	r3, [r7, #40]	; 0x28

    return timestampMilliseconds;
 80018c0:	6abb      	ldr	r3, [r7, #40]	; 0x28
}
 80018c2:	4618      	mov	r0, r3
 80018c4:	3730      	adds	r7, #48	; 0x30
 80018c6:	46bd      	mov	sp, r7
 80018c8:	bd80      	pop	{r7, pc}
 80018ca:	bf00      	nop
 80018cc:	447a0000 	.word	0x447a0000

080018d0 <spi_sendOp_readByte>:
#ifndef SRC_SPI_DRIVER_C_
#define SRC_SPI_DRIVER_C_

#include "spi_driver.h"

uint8_t spi_sendOp_readByte(uint8_t* opcode, SPI_HandleTypeDef *hspi, GPIO_TypeDef* GPIOx, uint16_t GPIO_Pin_CS) {
 80018d0:	b580      	push	{r7, lr}
 80018d2:	b086      	sub	sp, #24
 80018d4:	af00      	add	r7, sp, #0
 80018d6:	60f8      	str	r0, [r7, #12]
 80018d8:	60b9      	str	r1, [r7, #8]
 80018da:	607a      	str	r2, [r7, #4]
 80018dc:	807b      	strh	r3, [r7, #2]
	uint8_t ret_data = 0x00;
 80018de:	2300      	movs	r3, #0
 80018e0:	75fb      	strb	r3, [r7, #23]

	HAL_GPIO_WritePin(GPIOx, GPIO_Pin_CS, GPIO_PIN_RESET);	// Set the chip select pin to low to initiate SPI comms
 80018e2:	887b      	ldrh	r3, [r7, #2]
 80018e4:	2200      	movs	r2, #0
 80018e6:	4619      	mov	r1, r3
 80018e8:	6878      	ldr	r0, [r7, #4]
 80018ea:	f000 ff97 	bl	800281c <HAL_GPIO_WritePin>
	HAL_SPI_Transmit(hspi, opcode, 1, 100);	// Write the write enable value to the Flash to initial reading
 80018ee:	2364      	movs	r3, #100	; 0x64
 80018f0:	2201      	movs	r2, #1
 80018f2:	68f9      	ldr	r1, [r7, #12]
 80018f4:	68b8      	ldr	r0, [r7, #8]
 80018f6:	f003 f9e8 	bl	8004cca <HAL_SPI_Transmit>
	HAL_SPI_Receive(hspi, &ret_data, 1, 100);
 80018fa:	f107 0117 	add.w	r1, r7, #23
 80018fe:	2364      	movs	r3, #100	; 0x64
 8001900:	2201      	movs	r2, #1
 8001902:	68b8      	ldr	r0, [r7, #8]
 8001904:	f003 fb24 	bl	8004f50 <HAL_SPI_Receive>
	HAL_GPIO_WritePin(GPIOx, GPIO_Pin_CS, GPIO_PIN_SET);
 8001908:	887b      	ldrh	r3, [r7, #2]
 800190a:	2201      	movs	r2, #1
 800190c:	4619      	mov	r1, r3
 800190e:	6878      	ldr	r0, [r7, #4]
 8001910:	f000 ff84 	bl	800281c <HAL_GPIO_WritePin>

	return ret_data;
 8001914:	7dfb      	ldrb	r3, [r7, #23]
}
 8001916:	4618      	mov	r0, r3
 8001918:	3718      	adds	r7, #24
 800191a:	46bd      	mov	sp, r7
 800191c:	bd80      	pop	{r7, pc}

0800191e <perform_operation>:

void perform_operation(uint8_t* opcode, SPI_HandleTypeDef *hspi, GPIO_TypeDef* GPIOx, uint16_t GPIO_Pin_CS) {
 800191e:	b580      	push	{r7, lr}
 8001920:	b084      	sub	sp, #16
 8001922:	af00      	add	r7, sp, #0
 8001924:	60f8      	str	r0, [r7, #12]
 8001926:	60b9      	str	r1, [r7, #8]
 8001928:	607a      	str	r2, [r7, #4]
 800192a:	807b      	strh	r3, [r7, #2]
	HAL_GPIO_WritePin(GPIOx, GPIO_Pin_CS, GPIO_PIN_RESET);	// Set the chip select pin to low to initiate SPI comms
 800192c:	887b      	ldrh	r3, [r7, #2]
 800192e:	2200      	movs	r2, #0
 8001930:	4619      	mov	r1, r3
 8001932:	6878      	ldr	r0, [r7, #4]
 8001934:	f000 ff72 	bl	800281c <HAL_GPIO_WritePin>
	HAL_SPI_Transmit(hspi, opcode, 1, 100);				// Write the opcode value
 8001938:	2364      	movs	r3, #100	; 0x64
 800193a:	2201      	movs	r2, #1
 800193c:	68f9      	ldr	r1, [r7, #12]
 800193e:	68b8      	ldr	r0, [r7, #8]
 8001940:	f003 f9c3 	bl	8004cca <HAL_SPI_Transmit>
	HAL_GPIO_WritePin(GPIOx, GPIO_Pin_CS, GPIO_PIN_SET);
 8001944:	887b      	ldrh	r3, [r7, #2]
 8001946:	2201      	movs	r2, #1
 8001948:	4619      	mov	r1, r3
 800194a:	6878      	ldr	r0, [r7, #4]
 800194c:	f000 ff66 	bl	800281c <HAL_GPIO_WritePin>
}
 8001950:	bf00      	nop
 8001952:	3710      	adds	r7, #16
 8001954:	46bd      	mov	sp, r7
 8001956:	bd80      	pop	{r7, pc}

08001958 <spi_read_data>:


void spi_read_data(uint8_t* opcode, uint16_t data_size, uint8_t data_read[data_size], SPI_HandleTypeDef *hspi, uint32_t addr, GPIO_TypeDef* GPIOx, uint16_t GPIO_Pin_CS) {
 8001958:	b580      	push	{r7, lr}
 800195a:	b086      	sub	sp, #24
 800195c:	af00      	add	r7, sp, #0
 800195e:	60f8      	str	r0, [r7, #12]
 8001960:	607a      	str	r2, [r7, #4]
 8001962:	603b      	str	r3, [r7, #0]
 8001964:	460b      	mov	r3, r1
 8001966:	817b      	strh	r3, [r7, #10]
	// Split the 24 bit address into three 8 bit ints
	uint8_t addrL = addr & 0xFF;  // Get the low byte
 8001968:	6a3b      	ldr	r3, [r7, #32]
 800196a:	b2db      	uxtb	r3, r3
 800196c:	75fb      	strb	r3, [r7, #23]
	uint8_t addrM = (addr >> 8) & 0xFF;  // Get the middle byte
 800196e:	6a3b      	ldr	r3, [r7, #32]
 8001970:	0a1b      	lsrs	r3, r3, #8
 8001972:	b2db      	uxtb	r3, r3
 8001974:	75bb      	strb	r3, [r7, #22]
	uint8_t addrH = (addr >> 16) & 0xFF;  // Get the high byte
 8001976:	6a3b      	ldr	r3, [r7, #32]
 8001978:	0c1b      	lsrs	r3, r3, #16
 800197a:	b2db      	uxtb	r3, r3
 800197c:	757b      	strb	r3, [r7, #21]

	// Read the data denoted by the given address
	HAL_GPIO_WritePin(GPIOx, GPIO_Pin_CS, GPIO_PIN_RESET);
 800197e:	8d3b      	ldrh	r3, [r7, #40]	; 0x28
 8001980:	2200      	movs	r2, #0
 8001982:	4619      	mov	r1, r3
 8001984:	6a78      	ldr	r0, [r7, #36]	; 0x24
 8001986:	f000 ff49 	bl	800281c <HAL_GPIO_WritePin>
	HAL_SPI_Transmit(hspi, opcode, 1, 100);	// Write the read enable value
 800198a:	2364      	movs	r3, #100	; 0x64
 800198c:	2201      	movs	r2, #1
 800198e:	68f9      	ldr	r1, [r7, #12]
 8001990:	6838      	ldr	r0, [r7, #0]
 8001992:	f003 f99a 	bl	8004cca <HAL_SPI_Transmit>

	// Transmit the 24 bit address of the page to initialise read from
	HAL_SPI_Transmit(hspi, &addrH, 1, 100);
 8001996:	f107 0115 	add.w	r1, r7, #21
 800199a:	2364      	movs	r3, #100	; 0x64
 800199c:	2201      	movs	r2, #1
 800199e:	6838      	ldr	r0, [r7, #0]
 80019a0:	f003 f993 	bl	8004cca <HAL_SPI_Transmit>
	HAL_SPI_Transmit(hspi, &addrM, 1, 100);
 80019a4:	f107 0116 	add.w	r1, r7, #22
 80019a8:	2364      	movs	r3, #100	; 0x64
 80019aa:	2201      	movs	r2, #1
 80019ac:	6838      	ldr	r0, [r7, #0]
 80019ae:	f003 f98c 	bl	8004cca <HAL_SPI_Transmit>
	HAL_SPI_Transmit(hspi, &addrL, 1, 100);
 80019b2:	f107 0117 	add.w	r1, r7, #23
 80019b6:	2364      	movs	r3, #100	; 0x64
 80019b8:	2201      	movs	r2, #1
 80019ba:	6838      	ldr	r0, [r7, #0]
 80019bc:	f003 f985 	bl	8004cca <HAL_SPI_Transmit>

	HAL_SPI_Receive(hspi, data_read, 4, 100);
 80019c0:	2364      	movs	r3, #100	; 0x64
 80019c2:	2204      	movs	r2, #4
 80019c4:	6879      	ldr	r1, [r7, #4]
 80019c6:	6838      	ldr	r0, [r7, #0]
 80019c8:	f003 fac2 	bl	8004f50 <HAL_SPI_Receive>
	HAL_GPIO_WritePin(GPIOx, GPIO_Pin_CS, GPIO_PIN_SET);
 80019cc:	8d3b      	ldrh	r3, [r7, #40]	; 0x28
 80019ce:	2201      	movs	r2, #1
 80019d0:	4619      	mov	r1, r3
 80019d2:	6a78      	ldr	r0, [r7, #36]	; 0x24
 80019d4:	f000 ff22 	bl	800281c <HAL_GPIO_WritePin>
}
 80019d8:	bf00      	nop
 80019da:	3718      	adds	r7, #24
 80019dc:	46bd      	mov	sp, r7
 80019de:	bd80      	pop	{r7, pc}

080019e0 <spi_write_data>:

void spi_write_data(uint8_t* opcode, uint16_t data_size, uint8_t data_write[data_size], SPI_HandleTypeDef *hspi, uint32_t addr, GPIO_TypeDef* GPIOx, uint16_t GPIO_Pin_CS) {
 80019e0:	b580      	push	{r7, lr}
 80019e2:	b086      	sub	sp, #24
 80019e4:	af00      	add	r7, sp, #0
 80019e6:	60f8      	str	r0, [r7, #12]
 80019e8:	607a      	str	r2, [r7, #4]
 80019ea:	603b      	str	r3, [r7, #0]
 80019ec:	460b      	mov	r3, r1
 80019ee:	817b      	strh	r3, [r7, #10]
	// Split the 24 bit address into three 8 bit ints
	uint8_t addrL = addr & 0xFF;  			// Get the low byte
 80019f0:	6a3b      	ldr	r3, [r7, #32]
 80019f2:	b2db      	uxtb	r3, r3
 80019f4:	75fb      	strb	r3, [r7, #23]
	uint8_t addrM = (addr >> 8) & 0xFF;  	// Get the middle byte
 80019f6:	6a3b      	ldr	r3, [r7, #32]
 80019f8:	0a1b      	lsrs	r3, r3, #8
 80019fa:	b2db      	uxtb	r3, r3
 80019fc:	75bb      	strb	r3, [r7, #22]
	uint8_t addrH = (addr >> 16) & 0xFF;  	// Get the high byte
 80019fe:	6a3b      	ldr	r3, [r7, #32]
 8001a00:	0c1b      	lsrs	r3, r3, #16
 8001a02:	b2db      	uxtb	r3, r3
 8001a04:	757b      	strb	r3, [r7, #21]

	// Send the PageWrite command
	HAL_GPIO_WritePin(GPIOx, GPIO_Pin_CS, GPIO_PIN_RESET);	// Set the chip select pin to low to initiate SPI comms
 8001a06:	8d3b      	ldrh	r3, [r7, #40]	; 0x28
 8001a08:	2200      	movs	r2, #0
 8001a0a:	4619      	mov	r1, r3
 8001a0c:	6a78      	ldr	r0, [r7, #36]	; 0x24
 8001a0e:	f000 ff05 	bl	800281c <HAL_GPIO_WritePin>
	HAL_SPI_Transmit(hspi, opcode, 1, 100);					// Write the write enable value to the Flash to initial writing
 8001a12:	2364      	movs	r3, #100	; 0x64
 8001a14:	2201      	movs	r2, #1
 8001a16:	68f9      	ldr	r1, [r7, #12]
 8001a18:	6838      	ldr	r0, [r7, #0]
 8001a1a:	f003 f956 	bl	8004cca <HAL_SPI_Transmit>

	// Transmit the 24 bit address of the page to write to
	HAL_SPI_Transmit(hspi, &addrH, 1, 100);
 8001a1e:	f107 0115 	add.w	r1, r7, #21
 8001a22:	2364      	movs	r3, #100	; 0x64
 8001a24:	2201      	movs	r2, #1
 8001a26:	6838      	ldr	r0, [r7, #0]
 8001a28:	f003 f94f 	bl	8004cca <HAL_SPI_Transmit>
	HAL_SPI_Transmit(hspi, &addrM, 1, 100);
 8001a2c:	f107 0116 	add.w	r1, r7, #22
 8001a30:	2364      	movs	r3, #100	; 0x64
 8001a32:	2201      	movs	r2, #1
 8001a34:	6838      	ldr	r0, [r7, #0]
 8001a36:	f003 f948 	bl	8004cca <HAL_SPI_Transmit>
	HAL_SPI_Transmit(hspi, &addrL, 1, 100);
 8001a3a:	f107 0117 	add.w	r1, r7, #23
 8001a3e:	2364      	movs	r3, #100	; 0x64
 8001a40:	2201      	movs	r2, #1
 8001a42:	6838      	ldr	r0, [r7, #0]
 8001a44:	f003 f941 	bl	8004cca <HAL_SPI_Transmit>

	// Transmit the data to be written
	HAL_SPI_Transmit(hspi, data_write, data_size, 1000);
 8001a48:	897a      	ldrh	r2, [r7, #10]
 8001a4a:	f44f 737a 	mov.w	r3, #1000	; 0x3e8
 8001a4e:	6879      	ldr	r1, [r7, #4]
 8001a50:	6838      	ldr	r0, [r7, #0]
 8001a52:	f003 f93a 	bl	8004cca <HAL_SPI_Transmit>
	HAL_GPIO_WritePin(GPIOx, GPIO_Pin_CS, GPIO_PIN_SET);	// Set the chip select pin to high to remove the Flash from the SPI bus
 8001a56:	8d3b      	ldrh	r3, [r7, #40]	; 0x28
 8001a58:	2201      	movs	r2, #1
 8001a5a:	4619      	mov	r1, r3
 8001a5c:	6a78      	ldr	r0, [r7, #36]	; 0x24
 8001a5e:	f000 fedd 	bl	800281c <HAL_GPIO_WritePin>
}
 8001a62:	bf00      	nop
 8001a64:	3718      	adds	r7, #24
 8001a66:	46bd      	mov	sp, r7
 8001a68:	bd80      	pop	{r7, pc}
	...

08001a6c <HAL_MspInit>:
/* USER CODE END 0 */
/**
  * Initializes the Global MSP.
  */
void HAL_MspInit(void)
{
 8001a6c:	b480      	push	{r7}
 8001a6e:	b083      	sub	sp, #12
 8001a70:	af00      	add	r7, sp, #0
  /* USER CODE BEGIN MspInit 0 */

  /* USER CODE END MspInit 0 */

  __HAL_RCC_SYSCFG_CLK_ENABLE();
 8001a72:	2300      	movs	r3, #0
 8001a74:	607b      	str	r3, [r7, #4]
 8001a76:	4b10      	ldr	r3, [pc, #64]	; (8001ab8 <HAL_MspInit+0x4c>)
 8001a78:	6c5b      	ldr	r3, [r3, #68]	; 0x44
 8001a7a:	4a0f      	ldr	r2, [pc, #60]	; (8001ab8 <HAL_MspInit+0x4c>)
 8001a7c:	f443 4380 	orr.w	r3, r3, #16384	; 0x4000
 8001a80:	6453      	str	r3, [r2, #68]	; 0x44
 8001a82:	4b0d      	ldr	r3, [pc, #52]	; (8001ab8 <HAL_MspInit+0x4c>)
 8001a84:	6c5b      	ldr	r3, [r3, #68]	; 0x44
 8001a86:	f403 4380 	and.w	r3, r3, #16384	; 0x4000
 8001a8a:	607b      	str	r3, [r7, #4]
 8001a8c:	687b      	ldr	r3, [r7, #4]
  __HAL_RCC_PWR_CLK_ENABLE();
 8001a8e:	2300      	movs	r3, #0
 8001a90:	603b      	str	r3, [r7, #0]
 8001a92:	4b09      	ldr	r3, [pc, #36]	; (8001ab8 <HAL_MspInit+0x4c>)
 8001a94:	6c1b      	ldr	r3, [r3, #64]	; 0x40
 8001a96:	4a08      	ldr	r2, [pc, #32]	; (8001ab8 <HAL_MspInit+0x4c>)
 8001a98:	f043 5380 	orr.w	r3, r3, #268435456	; 0x10000000
 8001a9c:	6413      	str	r3, [r2, #64]	; 0x40
 8001a9e:	4b06      	ldr	r3, [pc, #24]	; (8001ab8 <HAL_MspInit+0x4c>)
 8001aa0:	6c1b      	ldr	r3, [r3, #64]	; 0x40
 8001aa2:	f003 5380 	and.w	r3, r3, #268435456	; 0x10000000
 8001aa6:	603b      	str	r3, [r7, #0]
 8001aa8:	683b      	ldr	r3, [r7, #0]
  /* System interrupt init*/

  /* USER CODE BEGIN MspInit 1 */

  /* USER CODE END MspInit 1 */
}
 8001aaa:	bf00      	nop
 8001aac:	370c      	adds	r7, #12
 8001aae:	46bd      	mov	sp, r7
 8001ab0:	f85d 7b04 	ldr.w	r7, [sp], #4
 8001ab4:	4770      	bx	lr
 8001ab6:	bf00      	nop
 8001ab8:	40023800 	.word	0x40023800

08001abc <HAL_I2C_MspInit>:
* This function configures the hardware resources used in this example
* @param hi2c: I2C handle pointer
* @retval None
*/
void HAL_I2C_MspInit(I2C_HandleTypeDef* hi2c)
{
 8001abc:	b580      	push	{r7, lr}
 8001abe:	b08c      	sub	sp, #48	; 0x30
 8001ac0:	af00      	add	r7, sp, #0
 8001ac2:	6078      	str	r0, [r7, #4]
  GPIO_InitTypeDef GPIO_InitStruct = {0};
 8001ac4:	f107 031c 	add.w	r3, r7, #28
 8001ac8:	2200      	movs	r2, #0
 8001aca:	601a      	str	r2, [r3, #0]
 8001acc:	605a      	str	r2, [r3, #4]
 8001ace:	609a      	str	r2, [r3, #8]
 8001ad0:	60da      	str	r2, [r3, #12]
 8001ad2:	611a      	str	r2, [r3, #16]
  if(hi2c->Instance==I2C1)
 8001ad4:	687b      	ldr	r3, [r7, #4]
 8001ad6:	681b      	ldr	r3, [r3, #0]
 8001ad8:	4a33      	ldr	r2, [pc, #204]	; (8001ba8 <HAL_I2C_MspInit+0xec>)
 8001ada:	4293      	cmp	r3, r2
 8001adc:	d12d      	bne.n	8001b3a <HAL_I2C_MspInit+0x7e>
  {
  /* USER CODE BEGIN I2C1_MspInit 0 */

  /* USER CODE END I2C1_MspInit 0 */

    __HAL_RCC_GPIOB_CLK_ENABLE();
 8001ade:	2300      	movs	r3, #0
 8001ae0:	61bb      	str	r3, [r7, #24]
 8001ae2:	4b32      	ldr	r3, [pc, #200]	; (8001bac <HAL_I2C_MspInit+0xf0>)
 8001ae4:	6b1b      	ldr	r3, [r3, #48]	; 0x30
 8001ae6:	4a31      	ldr	r2, [pc, #196]	; (8001bac <HAL_I2C_MspInit+0xf0>)
 8001ae8:	f043 0302 	orr.w	r3, r3, #2
 8001aec:	6313      	str	r3, [r2, #48]	; 0x30
 8001aee:	4b2f      	ldr	r3, [pc, #188]	; (8001bac <HAL_I2C_MspInit+0xf0>)
 8001af0:	6b1b      	ldr	r3, [r3, #48]	; 0x30
 8001af2:	f003 0302 	and.w	r3, r3, #2
 8001af6:	61bb      	str	r3, [r7, #24]
 8001af8:	69bb      	ldr	r3, [r7, #24]
    /**I2C1 GPIO Configuration
    PB8     ------> I2C1_SCL
    PB9     ------> I2C1_SDA
    */
    GPIO_InitStruct.Pin = GPIO_PIN_8|GPIO_PIN_9;
 8001afa:	f44f 7340 	mov.w	r3, #768	; 0x300
 8001afe:	61fb      	str	r3, [r7, #28]
    GPIO_InitStruct.Mode = GPIO_MODE_AF_OD;
 8001b00:	2312      	movs	r3, #18
 8001b02:	623b      	str	r3, [r7, #32]
    GPIO_InitStruct.Pull = GPIO_NOPULL;
 8001b04:	2300      	movs	r3, #0
 8001b06:	627b      	str	r3, [r7, #36]	; 0x24
    GPIO_InitStruct.Speed = GPIO_SPEED_FREQ_VERY_HIGH;
 8001b08:	2303      	movs	r3, #3
 8001b0a:	62bb      	str	r3, [r7, #40]	; 0x28
    GPIO_InitStruct.Alternate = GPIO_AF4_I2C1;
 8001b0c:	2304      	movs	r3, #4
 8001b0e:	62fb      	str	r3, [r7, #44]	; 0x2c
    HAL_GPIO_Init(GPIOB, &GPIO_InitStruct);
 8001b10:	f107 031c 	add.w	r3, r7, #28
 8001b14:	4619      	mov	r1, r3
 8001b16:	4826      	ldr	r0, [pc, #152]	; (8001bb0 <HAL_I2C_MspInit+0xf4>)
 8001b18:	f000 fcd4 	bl	80024c4 <HAL_GPIO_Init>

    /* Peripheral clock enable */
    __HAL_RCC_I2C1_CLK_ENABLE();
 8001b1c:	2300      	movs	r3, #0
 8001b1e:	617b      	str	r3, [r7, #20]
 8001b20:	4b22      	ldr	r3, [pc, #136]	; (8001bac <HAL_I2C_MspInit+0xf0>)
 8001b22:	6c1b      	ldr	r3, [r3, #64]	; 0x40
 8001b24:	4a21      	ldr	r2, [pc, #132]	; (8001bac <HAL_I2C_MspInit+0xf0>)
 8001b26:	f443 1300 	orr.w	r3, r3, #2097152	; 0x200000
 8001b2a:	6413      	str	r3, [r2, #64]	; 0x40
 8001b2c:	4b1f      	ldr	r3, [pc, #124]	; (8001bac <HAL_I2C_MspInit+0xf0>)
 8001b2e:	6c1b      	ldr	r3, [r3, #64]	; 0x40
 8001b30:	f403 1300 	and.w	r3, r3, #2097152	; 0x200000
 8001b34:	617b      	str	r3, [r7, #20]
 8001b36:	697b      	ldr	r3, [r7, #20]
  /* USER CODE BEGIN I2C2_MspInit 1 */

  /* USER CODE END I2C2_MspInit 1 */
  }

}
 8001b38:	e031      	b.n	8001b9e <HAL_I2C_MspInit+0xe2>
  else if(hi2c->Instance==I2C2)
 8001b3a:	687b      	ldr	r3, [r7, #4]
 8001b3c:	681b      	ldr	r3, [r3, #0]
 8001b3e:	4a1d      	ldr	r2, [pc, #116]	; (8001bb4 <HAL_I2C_MspInit+0xf8>)
 8001b40:	4293      	cmp	r3, r2
 8001b42:	d12c      	bne.n	8001b9e <HAL_I2C_MspInit+0xe2>
    __HAL_RCC_GPIOB_CLK_ENABLE();
 8001b44:	2300      	movs	r3, #0
 8001b46:	613b      	str	r3, [r7, #16]
 8001b48:	4b18      	ldr	r3, [pc, #96]	; (8001bac <HAL_I2C_MspInit+0xf0>)
 8001b4a:	6b1b      	ldr	r3, [r3, #48]	; 0x30
 8001b4c:	4a17      	ldr	r2, [pc, #92]	; (8001bac <HAL_I2C_MspInit+0xf0>)
 8001b4e:	f043 0302 	orr.w	r3, r3, #2
 8001b52:	6313      	str	r3, [r2, #48]	; 0x30
 8001b54:	4b15      	ldr	r3, [pc, #84]	; (8001bac <HAL_I2C_MspInit+0xf0>)
 8001b56:	6b1b      	ldr	r3, [r3, #48]	; 0x30
 8001b58:	f003 0302 	and.w	r3, r3, #2
 8001b5c:	613b      	str	r3, [r7, #16]
 8001b5e:	693b      	ldr	r3, [r7, #16]
    GPIO_InitStruct.Pin = GPIO_PIN_10|GPIO_PIN_11;
 8001b60:	f44f 6340 	mov.w	r3, #3072	; 0xc00
 8001b64:	61fb      	str	r3, [r7, #28]
    GPIO_InitStruct.Mode = GPIO_MODE_AF_OD;
 8001b66:	2312      	movs	r3, #18
 8001b68:	623b      	str	r3, [r7, #32]
    GPIO_InitStruct.Pull = GPIO_NOPULL;
 8001b6a:	2300      	movs	r3, #0
 8001b6c:	627b      	str	r3, [r7, #36]	; 0x24
    GPIO_InitStruct.Speed = GPIO_SPEED_FREQ_VERY_HIGH;
 8001b6e:	2303      	movs	r3, #3
 8001b70:	62bb      	str	r3, [r7, #40]	; 0x28
    GPIO_InitStruct.Alternate = GPIO_AF4_I2C2;
 8001b72:	2304      	movs	r3, #4
 8001b74:	62fb      	str	r3, [r7, #44]	; 0x2c
    HAL_GPIO_Init(GPIOB, &GPIO_InitStruct);
 8001b76:	f107 031c 	add.w	r3, r7, #28
 8001b7a:	4619      	mov	r1, r3
 8001b7c:	480c      	ldr	r0, [pc, #48]	; (8001bb0 <HAL_I2C_MspInit+0xf4>)
 8001b7e:	f000 fca1 	bl	80024c4 <HAL_GPIO_Init>
    __HAL_RCC_I2C2_CLK_ENABLE();
 8001b82:	2300      	movs	r3, #0
 8001b84:	60fb      	str	r3, [r7, #12]
 8001b86:	4b09      	ldr	r3, [pc, #36]	; (8001bac <HAL_I2C_MspInit+0xf0>)
 8001b88:	6c1b      	ldr	r3, [r3, #64]	; 0x40
 8001b8a:	4a08      	ldr	r2, [pc, #32]	; (8001bac <HAL_I2C_MspInit+0xf0>)
 8001b8c:	f443 0380 	orr.w	r3, r3, #4194304	; 0x400000
 8001b90:	6413      	str	r3, [r2, #64]	; 0x40
 8001b92:	4b06      	ldr	r3, [pc, #24]	; (8001bac <HAL_I2C_MspInit+0xf0>)
 8001b94:	6c1b      	ldr	r3, [r3, #64]	; 0x40
 8001b96:	f403 0380 	and.w	r3, r3, #4194304	; 0x400000
 8001b9a:	60fb      	str	r3, [r7, #12]
 8001b9c:	68fb      	ldr	r3, [r7, #12]
}
 8001b9e:	bf00      	nop
 8001ba0:	3730      	adds	r7, #48	; 0x30
 8001ba2:	46bd      	mov	sp, r7
 8001ba4:	bd80      	pop	{r7, pc}
 8001ba6:	bf00      	nop
 8001ba8:	40005400 	.word	0x40005400
 8001bac:	40023800 	.word	0x40023800
 8001bb0:	40020400 	.word	0x40020400
 8001bb4:	40005800 	.word	0x40005800

08001bb8 <HAL_RTC_MspInit>:
* This function configures the hardware resources used in this example
* @param hrtc: RTC handle pointer
* @retval None
*/
void HAL_RTC_MspInit(RTC_HandleTypeDef* hrtc)
{
 8001bb8:	b580      	push	{r7, lr}
 8001bba:	b08e      	sub	sp, #56	; 0x38
 8001bbc:	af00      	add	r7, sp, #0
 8001bbe:	6078      	str	r0, [r7, #4]
  RCC_PeriphCLKInitTypeDef PeriphClkInitStruct = {0};
 8001bc0:	f107 0308 	add.w	r3, r7, #8
 8001bc4:	2230      	movs	r2, #48	; 0x30
 8001bc6:	2100      	movs	r1, #0
 8001bc8:	4618      	mov	r0, r3
 8001bca:	f005 f93f 	bl	8006e4c <memset>
  if(hrtc->Instance==RTC)
 8001bce:	687b      	ldr	r3, [r7, #4]
 8001bd0:	681b      	ldr	r3, [r3, #0]
 8001bd2:	4a0c      	ldr	r2, [pc, #48]	; (8001c04 <HAL_RTC_MspInit+0x4c>)
 8001bd4:	4293      	cmp	r3, r2
 8001bd6:	d111      	bne.n	8001bfc <HAL_RTC_MspInit+0x44>

  /* USER CODE END RTC_MspInit 0 */

  /** Initializes the peripherals clock
  */
    PeriphClkInitStruct.PeriphClockSelection = RCC_PERIPHCLK_RTC;
 8001bd8:	2320      	movs	r3, #32
 8001bda:	60bb      	str	r3, [r7, #8]
    PeriphClkInitStruct.RTCClockSelection = RCC_RTCCLKSOURCE_LSI;
 8001bdc:	f44f 7300 	mov.w	r3, #512	; 0x200
 8001be0:	633b      	str	r3, [r7, #48]	; 0x30
    if (HAL_RCCEx_PeriphCLKConfig(&PeriphClkInitStruct) != HAL_OK)
 8001be2:	f107 0308 	add.w	r3, r7, #8
 8001be6:	4618      	mov	r0, r3
 8001be8:	f002 fb1a 	bl	8004220 <HAL_RCCEx_PeriphCLKConfig>
 8001bec:	4603      	mov	r3, r0
 8001bee:	2b00      	cmp	r3, #0
 8001bf0:	d001      	beq.n	8001bf6 <HAL_RTC_MspInit+0x3e>
    {
      Error_Handler();
 8001bf2:	f7ff fb6f 	bl	80012d4 <Error_Handler>
    }

    /* Peripheral clock enable */
    __HAL_RCC_RTC_ENABLE();
 8001bf6:	4b04      	ldr	r3, [pc, #16]	; (8001c08 <HAL_RTC_MspInit+0x50>)
 8001bf8:	2201      	movs	r2, #1
 8001bfa:	601a      	str	r2, [r3, #0]
  /* USER CODE BEGIN RTC_MspInit 1 */

  /* USER CODE END RTC_MspInit 1 */
  }

}
 8001bfc:	bf00      	nop
 8001bfe:	3738      	adds	r7, #56	; 0x38
 8001c00:	46bd      	mov	sp, r7
 8001c02:	bd80      	pop	{r7, pc}
 8001c04:	40002800 	.word	0x40002800
 8001c08:	42470e3c 	.word	0x42470e3c

08001c0c <HAL_SPI_MspInit>:
* This function configures the hardware resources used in this example
* @param hspi: SPI handle pointer
* @retval None
*/
void HAL_SPI_MspInit(SPI_HandleTypeDef* hspi)
{
 8001c0c:	b580      	push	{r7, lr}
 8001c0e:	b08a      	sub	sp, #40	; 0x28
 8001c10:	af00      	add	r7, sp, #0
 8001c12:	6078      	str	r0, [r7, #4]
  GPIO_InitTypeDef GPIO_InitStruct = {0};
 8001c14:	f107 0314 	add.w	r3, r7, #20
 8001c18:	2200      	movs	r2, #0
 8001c1a:	601a      	str	r2, [r3, #0]
 8001c1c:	605a      	str	r2, [r3, #4]
 8001c1e:	609a      	str	r2, [r3, #8]
 8001c20:	60da      	str	r2, [r3, #12]
 8001c22:	611a      	str	r2, [r3, #16]
  if(hspi->Instance==SPI1)
 8001c24:	687b      	ldr	r3, [r7, #4]
 8001c26:	681b      	ldr	r3, [r3, #0]
 8001c28:	4a19      	ldr	r2, [pc, #100]	; (8001c90 <HAL_SPI_MspInit+0x84>)
 8001c2a:	4293      	cmp	r3, r2
 8001c2c:	d12b      	bne.n	8001c86 <HAL_SPI_MspInit+0x7a>
  {
  /* USER CODE BEGIN SPI1_MspInit 0 */

  /* USER CODE END SPI1_MspInit 0 */
    /* Peripheral clock enable */
    __HAL_RCC_SPI1_CLK_ENABLE();
 8001c2e:	2300      	movs	r3, #0
 8001c30:	613b      	str	r3, [r7, #16]
 8001c32:	4b18      	ldr	r3, [pc, #96]	; (8001c94 <HAL_SPI_MspInit+0x88>)
 8001c34:	6c5b      	ldr	r3, [r3, #68]	; 0x44
 8001c36:	4a17      	ldr	r2, [pc, #92]	; (8001c94 <HAL_SPI_MspInit+0x88>)
 8001c38:	f443 5380 	orr.w	r3, r3, #4096	; 0x1000
 8001c3c:	6453      	str	r3, [r2, #68]	; 0x44
 8001c3e:	4b15      	ldr	r3, [pc, #84]	; (8001c94 <HAL_SPI_MspInit+0x88>)
 8001c40:	6c5b      	ldr	r3, [r3, #68]	; 0x44
 8001c42:	f403 5380 	and.w	r3, r3, #4096	; 0x1000
 8001c46:	613b      	str	r3, [r7, #16]
 8001c48:	693b      	ldr	r3, [r7, #16]

    __HAL_RCC_GPIOA_CLK_ENABLE();
 8001c4a:	2300      	movs	r3, #0
 8001c4c:	60fb      	str	r3, [r7, #12]
 8001c4e:	4b11      	ldr	r3, [pc, #68]	; (8001c94 <HAL_SPI_MspInit+0x88>)
 8001c50:	6b1b      	ldr	r3, [r3, #48]	; 0x30
 8001c52:	4a10      	ldr	r2, [pc, #64]	; (8001c94 <HAL_SPI_MspInit+0x88>)
 8001c54:	f043 0301 	orr.w	r3, r3, #1
 8001c58:	6313      	str	r3, [r2, #48]	; 0x30
 8001c5a:	4b0e      	ldr	r3, [pc, #56]	; (8001c94 <HAL_SPI_MspInit+0x88>)
 8001c5c:	6b1b      	ldr	r3, [r3, #48]	; 0x30
 8001c5e:	f003 0301 	and.w	r3, r3, #1
 8001c62:	60fb      	str	r3, [r7, #12]
 8001c64:	68fb      	ldr	r3, [r7, #12]
    /**SPI1 GPIO Configuration
    PA5     ------> SPI1_SCK
    PA6     ------> SPI1_MISO
    PA7     ------> SPI1_MOSI
    */
    GPIO_InitStruct.Pin = GPIO_PIN_5|GPIO_PIN_6|GPIO_PIN_7;
 8001c66:	23e0      	movs	r3, #224	; 0xe0
 8001c68:	617b      	str	r3, [r7, #20]
    GPIO_InitStruct.Mode = GPIO_MODE_AF_PP;
 8001c6a:	2302      	movs	r3, #2
 8001c6c:	61bb      	str	r3, [r7, #24]
    GPIO_InitStruct.Pull = GPIO_NOPULL;
 8001c6e:	2300      	movs	r3, #0
 8001c70:	61fb      	str	r3, [r7, #28]
    GPIO_InitStruct.Speed = GPIO_SPEED_FREQ_VERY_HIGH;
 8001c72:	2303      	movs	r3, #3
 8001c74:	623b      	str	r3, [r7, #32]
    GPIO_InitStruct.Alternate = GPIO_AF5_SPI1;
 8001c76:	2305      	movs	r3, #5
 8001c78:	627b      	str	r3, [r7, #36]	; 0x24
    HAL_GPIO_Init(GPIOA, &GPIO_InitStruct);
 8001c7a:	f107 0314 	add.w	r3, r7, #20
 8001c7e:	4619      	mov	r1, r3
 8001c80:	4805      	ldr	r0, [pc, #20]	; (8001c98 <HAL_SPI_MspInit+0x8c>)
 8001c82:	f000 fc1f 	bl	80024c4 <HAL_GPIO_Init>
  /* USER CODE BEGIN SPI1_MspInit 1 */

  /* USER CODE END SPI1_MspInit 1 */
  }

}
 8001c86:	bf00      	nop
 8001c88:	3728      	adds	r7, #40	; 0x28
 8001c8a:	46bd      	mov	sp, r7
 8001c8c:	bd80      	pop	{r7, pc}
 8001c8e:	bf00      	nop
 8001c90:	40013000 	.word	0x40013000
 8001c94:	40023800 	.word	0x40023800
 8001c98:	40020000 	.word	0x40020000

08001c9c <HAL_TIM_Base_MspInit>:
* This function configures the hardware resources used in this example
* @param htim_base: TIM_Base handle pointer
* @retval None
*/
void HAL_TIM_Base_MspInit(TIM_HandleTypeDef* htim_base)
{
 8001c9c:	b580      	push	{r7, lr}
 8001c9e:	b084      	sub	sp, #16
 8001ca0:	af00      	add	r7, sp, #0
 8001ca2:	6078      	str	r0, [r7, #4]
  if(htim_base->Instance==TIM6)
 8001ca4:	687b      	ldr	r3, [r7, #4]
 8001ca6:	681b      	ldr	r3, [r3, #0]
 8001ca8:	4a0e      	ldr	r2, [pc, #56]	; (8001ce4 <HAL_TIM_Base_MspInit+0x48>)
 8001caa:	4293      	cmp	r3, r2
 8001cac:	d115      	bne.n	8001cda <HAL_TIM_Base_MspInit+0x3e>
  {
  /* USER CODE BEGIN TIM6_MspInit 0 */

  /* USER CODE END TIM6_MspInit 0 */
    /* Peripheral clock enable */
    __HAL_RCC_TIM6_CLK_ENABLE();
 8001cae:	2300      	movs	r3, #0
 8001cb0:	60fb      	str	r3, [r7, #12]
 8001cb2:	4b0d      	ldr	r3, [pc, #52]	; (8001ce8 <HAL_TIM_Base_MspInit+0x4c>)
 8001cb4:	6c1b      	ldr	r3, [r3, #64]	; 0x40
 8001cb6:	4a0c      	ldr	r2, [pc, #48]	; (8001ce8 <HAL_TIM_Base_MspInit+0x4c>)
 8001cb8:	f043 0310 	orr.w	r3, r3, #16
 8001cbc:	6413      	str	r3, [r2, #64]	; 0x40
 8001cbe:	4b0a      	ldr	r3, [pc, #40]	; (8001ce8 <HAL_TIM_Base_MspInit+0x4c>)
 8001cc0:	6c1b      	ldr	r3, [r3, #64]	; 0x40
 8001cc2:	f003 0310 	and.w	r3, r3, #16
 8001cc6:	60fb      	str	r3, [r7, #12]
 8001cc8:	68fb      	ldr	r3, [r7, #12]
    /* TIM6 interrupt Init */
    HAL_NVIC_SetPriority(TIM6_DAC_IRQn, 0, 0);
 8001cca:	2200      	movs	r2, #0
 8001ccc:	2100      	movs	r1, #0
 8001cce:	2036      	movs	r0, #54	; 0x36
 8001cd0:	f000 fb2f 	bl	8002332 <HAL_NVIC_SetPriority>
    HAL_NVIC_EnableIRQ(TIM6_DAC_IRQn);
 8001cd4:	2036      	movs	r0, #54	; 0x36
 8001cd6:	f000 fb48 	bl	800236a <HAL_NVIC_EnableIRQ>
  /* USER CODE BEGIN TIM6_MspInit 1 */

  /* USER CODE END TIM6_MspInit 1 */
  }

}
 8001cda:	bf00      	nop
 8001cdc:	3710      	adds	r7, #16
 8001cde:	46bd      	mov	sp, r7
 8001ce0:	bd80      	pop	{r7, pc}
 8001ce2:	bf00      	nop
 8001ce4:	40001000 	.word	0x40001000
 8001ce8:	40023800 	.word	0x40023800

08001cec <HAL_UART_MspInit>:
* This function configures the hardware resources used in this example
* @param huart: UART handle pointer
* @retval None
*/
void HAL_UART_MspInit(UART_HandleTypeDef* huart)
{
 8001cec:	b580      	push	{r7, lr}
 8001cee:	b08a      	sub	sp, #40	; 0x28
 8001cf0:	af00      	add	r7, sp, #0
 8001cf2:	6078      	str	r0, [r7, #4]
  GPIO_InitTypeDef GPIO_InitStruct = {0};
 8001cf4:	f107 0314 	add.w	r3, r7, #20
 8001cf8:	2200      	movs	r2, #0
 8001cfa:	601a      	str	r2, [r3, #0]
 8001cfc:	605a      	str	r2, [r3, #4]
 8001cfe:	609a      	str	r2, [r3, #8]
 8001d00:	60da      	str	r2, [r3, #12]
 8001d02:	611a      	str	r2, [r3, #16]
  if(huart->Instance==USART2)
 8001d04:	687b      	ldr	r3, [r7, #4]
 8001d06:	681b      	ldr	r3, [r3, #0]
 8001d08:	4a1d      	ldr	r2, [pc, #116]	; (8001d80 <HAL_UART_MspInit+0x94>)
 8001d0a:	4293      	cmp	r3, r2
 8001d0c:	d133      	bne.n	8001d76 <HAL_UART_MspInit+0x8a>
  {
  /* USER CODE BEGIN USART2_MspInit 0 */

  /* USER CODE END USART2_MspInit 0 */
    /* Peripheral clock enable */
    __HAL_RCC_USART2_CLK_ENABLE();
 8001d0e:	2300      	movs	r3, #0
 8001d10:	613b      	str	r3, [r7, #16]
 8001d12:	4b1c      	ldr	r3, [pc, #112]	; (8001d84 <HAL_UART_MspInit+0x98>)
 8001d14:	6c1b      	ldr	r3, [r3, #64]	; 0x40
 8001d16:	4a1b      	ldr	r2, [pc, #108]	; (8001d84 <HAL_UART_MspInit+0x98>)
 8001d18:	f443 3300 	orr.w	r3, r3, #131072	; 0x20000
 8001d1c:	6413      	str	r3, [r2, #64]	; 0x40
 8001d1e:	4b19      	ldr	r3, [pc, #100]	; (8001d84 <HAL_UART_MspInit+0x98>)
 8001d20:	6c1b      	ldr	r3, [r3, #64]	; 0x40
 8001d22:	f403 3300 	and.w	r3, r3, #131072	; 0x20000
 8001d26:	613b      	str	r3, [r7, #16]
 8001d28:	693b      	ldr	r3, [r7, #16]

    __HAL_RCC_GPIOD_CLK_ENABLE();
 8001d2a:	2300      	movs	r3, #0
 8001d2c:	60fb      	str	r3, [r7, #12]
 8001d2e:	4b15      	ldr	r3, [pc, #84]	; (8001d84 <HAL_UART_MspInit+0x98>)
 8001d30:	6b1b      	ldr	r3, [r3, #48]	; 0x30
 8001d32:	4a14      	ldr	r2, [pc, #80]	; (8001d84 <HAL_UART_MspInit+0x98>)
 8001d34:	f043 0308 	orr.w	r3, r3, #8
 8001d38:	6313      	str	r3, [r2, #48]	; 0x30
 8001d3a:	4b12      	ldr	r3, [pc, #72]	; (8001d84 <HAL_UART_MspInit+0x98>)
 8001d3c:	6b1b      	ldr	r3, [r3, #48]	; 0x30
 8001d3e:	f003 0308 	and.w	r3, r3, #8
 8001d42:	60fb      	str	r3, [r7, #12]
 8001d44:	68fb      	ldr	r3, [r7, #12]
    /**USART2 GPIO Configuration
    PD5     ------> USART2_TX
    PD6     ------> USART2_RX
    */
    GPIO_InitStruct.Pin = GPIO_PIN_5|GPIO_PIN_6;
 8001d46:	2360      	movs	r3, #96	; 0x60
 8001d48:	617b      	str	r3, [r7, #20]
    GPIO_InitStruct.Mode = GPIO_MODE_AF_PP;
 8001d4a:	2302      	movs	r3, #2
 8001d4c:	61bb      	str	r3, [r7, #24]
    GPIO_InitStruct.Pull = GPIO_NOPULL;
 8001d4e:	2300      	movs	r3, #0
 8001d50:	61fb      	str	r3, [r7, #28]
    GPIO_InitStruct.Speed = GPIO_SPEED_FREQ_VERY_HIGH;
 8001d52:	2303      	movs	r3, #3
 8001d54:	623b      	str	r3, [r7, #32]
    GPIO_InitStruct.Alternate = GPIO_AF7_USART2;
 8001d56:	2307      	movs	r3, #7
 8001d58:	627b      	str	r3, [r7, #36]	; 0x24
    HAL_GPIO_Init(GPIOD, &GPIO_InitStruct);
 8001d5a:	f107 0314 	add.w	r3, r7, #20
 8001d5e:	4619      	mov	r1, r3
 8001d60:	4809      	ldr	r0, [pc, #36]	; (8001d88 <HAL_UART_MspInit+0x9c>)
 8001d62:	f000 fbaf 	bl	80024c4 <HAL_GPIO_Init>

    /* USART2 interrupt Init */
    HAL_NVIC_SetPriority(USART2_IRQn, 0, 0);
 8001d66:	2200      	movs	r2, #0
 8001d68:	2100      	movs	r1, #0
 8001d6a:	2026      	movs	r0, #38	; 0x26
 8001d6c:	f000 fae1 	bl	8002332 <HAL_NVIC_SetPriority>
    HAL_NVIC_EnableIRQ(USART2_IRQn);
 8001d70:	2026      	movs	r0, #38	; 0x26
 8001d72:	f000 fafa 	bl	800236a <HAL_NVIC_EnableIRQ>
  /* USER CODE BEGIN USART2_MspInit 1 */

  /* USER CODE END USART2_MspInit 1 */
  }

}
 8001d76:	bf00      	nop
 8001d78:	3728      	adds	r7, #40	; 0x28
 8001d7a:	46bd      	mov	sp, r7
 8001d7c:	bd80      	pop	{r7, pc}
 8001d7e:	bf00      	nop
 8001d80:	40004400 	.word	0x40004400
 8001d84:	40023800 	.word	0x40023800
 8001d88:	40020c00 	.word	0x40020c00

08001d8c <NMI_Handler>:
/******************************************************************************/
/**
  * @brief This function handles Non maskable interrupt.
  */
void NMI_Handler(void)
{
 8001d8c:	b480      	push	{r7}
 8001d8e:	af00      	add	r7, sp, #0
  /* USER CODE BEGIN NonMaskableInt_IRQn 0 */

  /* USER CODE END NonMaskableInt_IRQn 0 */
  /* USER CODE BEGIN NonMaskableInt_IRQn 1 */
  while (1)
 8001d90:	e7fe      	b.n	8001d90 <NMI_Handler+0x4>

08001d92 <HardFault_Handler>:

/**
  * @brief This function handles Hard fault interrupt.
  */
void HardFault_Handler(void)
{
 8001d92:	b480      	push	{r7}
 8001d94:	af00      	add	r7, sp, #0
  /* USER CODE BEGIN HardFault_IRQn 0 */

  /* USER CODE END HardFault_IRQn 0 */
  while (1)
 8001d96:	e7fe      	b.n	8001d96 <HardFault_Handler+0x4>

08001d98 <MemManage_Handler>:

/**
  * @brief This function handles Memory management fault.
  */
void MemManage_Handler(void)
{
 8001d98:	b480      	push	{r7}
 8001d9a:	af00      	add	r7, sp, #0
  /* USER CODE BEGIN MemoryManagement_IRQn 0 */

  /* USER CODE END MemoryManagement_IRQn 0 */
  while (1)
 8001d9c:	e7fe      	b.n	8001d9c <MemManage_Handler+0x4>

08001d9e <BusFault_Handler>:

/**
  * @brief This function handles Pre-fetch fault, memory access fault.
  */
void BusFault_Handler(void)
{
 8001d9e:	b480      	push	{r7}
 8001da0:	af00      	add	r7, sp, #0
  /* USER CODE BEGIN BusFault_IRQn 0 */

  /* USER CODE END BusFault_IRQn 0 */
  while (1)
 8001da2:	e7fe      	b.n	8001da2 <BusFault_Handler+0x4>

08001da4 <UsageFault_Handler>:

/**
  * @brief This function handles Undefined instruction or illegal state.
  */
void UsageFault_Handler(void)
{
 8001da4:	b480      	push	{r7}
 8001da6:	af00      	add	r7, sp, #0
  /* USER CODE BEGIN UsageFault_IRQn 0 */

  /* USER CODE END UsageFault_IRQn 0 */
  while (1)
 8001da8:	e7fe      	b.n	8001da8 <UsageFault_Handler+0x4>

08001daa <SVC_Handler>:

/**
  * @brief This function handles System service call via SWI instruction.
  */
void SVC_Handler(void)
{
 8001daa:	b480      	push	{r7}
 8001dac:	af00      	add	r7, sp, #0

  /* USER CODE END SVCall_IRQn 0 */
  /* USER CODE BEGIN SVCall_IRQn 1 */

  /* USER CODE END SVCall_IRQn 1 */
}
 8001dae:	bf00      	nop
 8001db0:	46bd      	mov	sp, r7
 8001db2:	f85d 7b04 	ldr.w	r7, [sp], #4
 8001db6:	4770      	bx	lr

08001db8 <DebugMon_Handler>:

/**
  * @brief This function handles Debug monitor.
  */
void DebugMon_Handler(void)
{
 8001db8:	b480      	push	{r7}
 8001dba:	af00      	add	r7, sp, #0

  /* USER CODE END DebugMonitor_IRQn 0 */
  /* USER CODE BEGIN DebugMonitor_IRQn 1 */

  /* USER CODE END DebugMonitor_IRQn 1 */
}
 8001dbc:	bf00      	nop
 8001dbe:	46bd      	mov	sp, r7
 8001dc0:	f85d 7b04 	ldr.w	r7, [sp], #4
 8001dc4:	4770      	bx	lr

08001dc6 <PendSV_Handler>:

/**
  * @brief This function handles Pendable request for system service.
  */
void PendSV_Handler(void)
{
 8001dc6:	b480      	push	{r7}
 8001dc8:	af00      	add	r7, sp, #0

  /* USER CODE END PendSV_IRQn 0 */
  /* USER CODE BEGIN PendSV_IRQn 1 */

  /* USER CODE END PendSV_IRQn 1 */
}
 8001dca:	bf00      	nop
 8001dcc:	46bd      	mov	sp, r7
 8001dce:	f85d 7b04 	ldr.w	r7, [sp], #4
 8001dd2:	4770      	bx	lr

08001dd4 <SysTick_Handler>:

/**
  * @brief This function handles System tick timer.
  */
void SysTick_Handler(void)
{
 8001dd4:	b580      	push	{r7, lr}
 8001dd6:	af00      	add	r7, sp, #0
  /* USER CODE BEGIN SysTick_IRQn 0 */

  /* USER CODE END SysTick_IRQn 0 */
  HAL_IncTick();
 8001dd8:	f000 f9b0 	bl	800213c <HAL_IncTick>
  /* USER CODE BEGIN SysTick_IRQn 1 */

  /* USER CODE END SysTick_IRQn 1 */
}
 8001ddc:	bf00      	nop
 8001dde:	bd80      	pop	{r7, pc}

08001de0 <USART2_IRQHandler>:

/**
  * @brief This function handles USART2 global interrupt.
  */
void USART2_IRQHandler(void)
{
 8001de0:	b580      	push	{r7, lr}
 8001de2:	af00      	add	r7, sp, #0
  /* USER CODE BEGIN USART2_IRQn 0 */

  /* USER CODE END USART2_IRQn 0 */
  HAL_UART_IRQHandler(&huart2);
 8001de4:	4802      	ldr	r0, [pc, #8]	; (8001df0 <USART2_IRQHandler+0x10>)
 8001de6:	f004 f8db 	bl	8005fa0 <HAL_UART_IRQHandler>
  /* USER CODE BEGIN USART2_IRQn 1 */

  /* USER CODE END USART2_IRQn 1 */
}
 8001dea:	bf00      	nop
 8001dec:	bd80      	pop	{r7, pc}
 8001dee:	bf00      	nop
 8001df0:	200001a8 	.word	0x200001a8

08001df4 <TIM6_DAC_IRQHandler>:

/**
  * @brief This function handles TIM6 global interrupt, DAC1 and DAC2 underrun error interrupts.
  */
void TIM6_DAC_IRQHandler(void)
{
 8001df4:	b580      	push	{r7, lr}
 8001df6:	af00      	add	r7, sp, #0
  /* USER CODE BEGIN TIM6_DAC_IRQn 0 */

  /* USER CODE END TIM6_DAC_IRQn 0 */
  HAL_TIM_IRQHandler(&htim6);
 8001df8:	4804      	ldr	r0, [pc, #16]	; (8001e0c <TIM6_DAC_IRQHandler+0x18>)
 8001dfa:	f003 fd73 	bl	80058e4 <HAL_TIM_IRQHandler>
  /* USER CODE BEGIN TIM6_DAC_IRQn 1 */
  readAllSensors(&hi2c1, &hi2c2, &hrtc);
 8001dfe:	4a04      	ldr	r2, [pc, #16]	; (8001e10 <TIM6_DAC_IRQHandler+0x1c>)
 8001e00:	4904      	ldr	r1, [pc, #16]	; (8001e14 <TIM6_DAC_IRQHandler+0x20>)
 8001e02:	4805      	ldr	r0, [pc, #20]	; (8001e18 <TIM6_DAC_IRQHandler+0x24>)
 8001e04:	f7ff fc5e 	bl	80016c4 <readAllSensors>
  /* USER CODE END TIM6_DAC_IRQn 1 */
}
 8001e08:	bf00      	nop
 8001e0a:	bd80      	pop	{r7, pc}
 8001e0c:	20000160 	.word	0x20000160
 8001e10:	200000e8 	.word	0x200000e8
 8001e14:	20000094 	.word	0x20000094
 8001e18:	20000040 	.word	0x20000040

08001e1c <HAL_UART_RxCpltCallback>:

/* USER CODE BEGIN 1 */
void HAL_UART_RxCpltCallback(UART_HandleTypeDef *huart) {
 8001e1c:	b580      	push	{r7, lr}
 8001e1e:	b082      	sub	sp, #8
 8001e20:	af00      	add	r7, sp, #0
 8001e22:	6078      	str	r0, [r7, #4]
	// Send Heartbeat to UART (data_rx[0] = "h")
	if (UARTRxData[0] == 0x68) {
 8001e24:	4b4f      	ldr	r3, [pc, #316]	; (8001f64 <HAL_UART_RxCpltCallback+0x148>)
 8001e26:	781b      	ldrb	r3, [r3, #0]
 8001e28:	2b68      	cmp	r3, #104	; 0x68
 8001e2a:	d103      	bne.n	8001e34 <HAL_UART_RxCpltCallback+0x18>
		heartbeatUART(huart);
 8001e2c:	6878      	ldr	r0, [r7, #4]
 8001e2e:	f7ff fa57 	bl	80012e0 <heartbeatUART>
 8001e32:	e08e      	b.n	8001f52 <HAL_UART_RxCpltCallback+0x136>
	}

	// Erase specified flash chip (data_rx[0]  = "e")
	else if (UARTRxData[0] == 0x65) {
 8001e34:	4b4b      	ldr	r3, [pc, #300]	; (8001f64 <HAL_UART_RxCpltCallback+0x148>)
 8001e36:	781b      	ldrb	r3, [r3, #0]
 8001e38:	2b65      	cmp	r3, #101	; 0x65
 8001e3a:	d10b      	bne.n	8001e54 <HAL_UART_RxCpltCallback+0x38>
		eraseFlashSPI(&hspi1, huart, decodeASCII(UARTRxData[1]));
 8001e3c:	4b49      	ldr	r3, [pc, #292]	; (8001f64 <HAL_UART_RxCpltCallback+0x148>)
 8001e3e:	785b      	ldrb	r3, [r3, #1]
 8001e40:	4618      	mov	r0, r3
 8001e42:	f000 f899 	bl	8001f78 <decodeASCII>
 8001e46:	4603      	mov	r3, r0
 8001e48:	461a      	mov	r2, r3
 8001e4a:	6879      	ldr	r1, [r7, #4]
 8001e4c:	4846      	ldr	r0, [pc, #280]	; (8001f68 <HAL_UART_RxCpltCallback+0x14c>)
 8001e4e:	f7ff fa55 	bl	80012fc <eraseFlashSPI>
 8001e52:	e07e      	b.n	8001f52 <HAL_UART_RxCpltCallback+0x136>
	}

	// Read data from specified flash chip (data_rx[0] = "r")
	else if (UARTRxData[0] == 0x72) {
 8001e54:	4b43      	ldr	r3, [pc, #268]	; (8001f64 <HAL_UART_RxCpltCallback+0x148>)
 8001e56:	781b      	ldrb	r3, [r3, #0]
 8001e58:	2b72      	cmp	r3, #114	; 0x72
 8001e5a:	d10b      	bne.n	8001e74 <HAL_UART_RxCpltCallback+0x58>
		readFlashToUART(&hspi1, huart, decodeASCII(UARTRxData[1]));
 8001e5c:	4b41      	ldr	r3, [pc, #260]	; (8001f64 <HAL_UART_RxCpltCallback+0x148>)
 8001e5e:	785b      	ldrb	r3, [r3, #1]
 8001e60:	4618      	mov	r0, r3
 8001e62:	f000 f889 	bl	8001f78 <decodeASCII>
 8001e66:	4603      	mov	r3, r0
 8001e68:	461a      	mov	r2, r3
 8001e6a:	6879      	ldr	r1, [r7, #4]
 8001e6c:	483e      	ldr	r0, [pc, #248]	; (8001f68 <HAL_UART_RxCpltCallback+0x14c>)
 8001e6e:	f7ff fa85 	bl	800137c <readFlashToUART>
 8001e72:	e06e      	b.n	8001f52 <HAL_UART_RxCpltCallback+0x136>
	}

	// Read Manufacturer over SPI (data_rx[0] = "m")
	else if (UARTRxData[0] == 0x6d) {
 8001e74:	4b3b      	ldr	r3, [pc, #236]	; (8001f64 <HAL_UART_RxCpltCallback+0x148>)
 8001e76:	781b      	ldrb	r3, [r3, #0]
 8001e78:	2b6d      	cmp	r3, #109	; 0x6d
 8001e7a:	d10b      	bne.n	8001e94 <HAL_UART_RxCpltCallback+0x78>
		readFlashManuSPI(&hspi1, huart, decodeASCII(UARTRxData[1]));
 8001e7c:	4b39      	ldr	r3, [pc, #228]	; (8001f64 <HAL_UART_RxCpltCallback+0x148>)
 8001e7e:	785b      	ldrb	r3, [r3, #1]
 8001e80:	4618      	mov	r0, r3
 8001e82:	f000 f879 	bl	8001f78 <decodeASCII>
 8001e86:	4603      	mov	r3, r0
 8001e88:	461a      	mov	r2, r3
 8001e8a:	6879      	ldr	r1, [r7, #4]
 8001e8c:	4836      	ldr	r0, [pc, #216]	; (8001f68 <HAL_UART_RxCpltCallback+0x14c>)
 8001e8e:	f7ff fadd 	bl	800144c <readFlashManuSPI>
 8001e92:	e05e      	b.n	8001f52 <HAL_UART_RxCpltCallback+0x136>
	}

	// Write a page over SPI (data_rx[0] = "w")
	else if (UARTRxData[0] == 0x77) {
 8001e94:	4b33      	ldr	r3, [pc, #204]	; (8001f64 <HAL_UART_RxCpltCallback+0x148>)
 8001e96:	781b      	ldrb	r3, [r3, #0]
 8001e98:	2b77      	cmp	r3, #119	; 0x77
 8001e9a:	d10b      	bne.n	8001eb4 <HAL_UART_RxCpltCallback+0x98>
		writePageSPI_W(&hspi1, huart, decodeASCII(UARTRxData[1]));
 8001e9c:	4b31      	ldr	r3, [pc, #196]	; (8001f64 <HAL_UART_RxCpltCallback+0x148>)
 8001e9e:	785b      	ldrb	r3, [r3, #1]
 8001ea0:	4618      	mov	r0, r3
 8001ea2:	f000 f869 	bl	8001f78 <decodeASCII>
 8001ea6:	4603      	mov	r3, r0
 8001ea8:	461a      	mov	r2, r3
 8001eaa:	6879      	ldr	r1, [r7, #4]
 8001eac:	482e      	ldr	r0, [pc, #184]	; (8001f68 <HAL_UART_RxCpltCallback+0x14c>)
 8001eae:	f7ff faeb 	bl	8001488 <writePageSPI_W>
 8001eb2:	e04e      	b.n	8001f52 <HAL_UART_RxCpltCallback+0x136>
	}

	// Software reset flash chip over SPI (data_rx[0] = "x")
	else if (UARTRxData[0] == 0x78) {
 8001eb4:	4b2b      	ldr	r3, [pc, #172]	; (8001f64 <HAL_UART_RxCpltCallback+0x148>)
 8001eb6:	781b      	ldrb	r3, [r3, #0]
 8001eb8:	2b78      	cmp	r3, #120	; 0x78
 8001eba:	d10b      	bne.n	8001ed4 <HAL_UART_RxCpltCallback+0xb8>
		resetSPIFlash(&hspi1, huart, decodeASCII(UARTRxData[1]));
 8001ebc:	4b29      	ldr	r3, [pc, #164]	; (8001f64 <HAL_UART_RxCpltCallback+0x148>)
 8001ebe:	785b      	ldrb	r3, [r3, #1]
 8001ec0:	4618      	mov	r0, r3
 8001ec2:	f000 f859 	bl	8001f78 <decodeASCII>
 8001ec6:	4603      	mov	r3, r0
 8001ec8:	461a      	mov	r2, r3
 8001eca:	6879      	ldr	r1, [r7, #4]
 8001ecc:	4826      	ldr	r0, [pc, #152]	; (8001f68 <HAL_UART_RxCpltCallback+0x14c>)
 8001ece:	f7ff fb2d 	bl	800152c <resetSPIFlash>
 8001ed2:	e03e      	b.n	8001f52 <HAL_UART_RxCpltCallback+0x136>
	}

	// Read Accelerometer WhoAmI (data_rx[0] = "c")
	else if (UARTRxData[0] == 0x63) {
 8001ed4:	4b23      	ldr	r3, [pc, #140]	; (8001f64 <HAL_UART_RxCpltCallback+0x148>)
 8001ed6:	781b      	ldrb	r3, [r3, #0]
 8001ed8:	2b63      	cmp	r3, #99	; 0x63
 8001eda:	d104      	bne.n	8001ee6 <HAL_UART_RxCpltCallback+0xca>
		checkAccelWhoAmI(&hi2c1, huart);
 8001edc:	6879      	ldr	r1, [r7, #4]
 8001ede:	4823      	ldr	r0, [pc, #140]	; (8001f6c <HAL_UART_RxCpltCallback+0x150>)
 8001ee0:	f7ff fb3a 	bl	8001558 <checkAccelWhoAmI>
 8001ee4:	e035      	b.n	8001f52 <HAL_UART_RxCpltCallback+0x136>
	}

	// Read the accelerometer and print to the UART[0] (data_rx [0] = "a")
	else if (UARTRxData[0] == 0x61) {
 8001ee6:	4b1f      	ldr	r3, [pc, #124]	; (8001f64 <HAL_UART_RxCpltCallback+0x148>)
 8001ee8:	781b      	ldrb	r3, [r3, #0]
 8001eea:	2b61      	cmp	r3, #97	; 0x61
 8001eec:	d103      	bne.n	8001ef6 <HAL_UART_RxCpltCallback+0xda>
		accelToUART(huart);
 8001eee:	6878      	ldr	r0, [r7, #4]
 8001ef0:	f7ff fb46 	bl	8001580 <accelToUART>
 8001ef4:	e02d      	b.n	8001f52 <HAL_UART_RxCpltCallback+0x136>
	}

	// Read the temp sensor ID and print to the UART[0] (data_rx [0]= "b")
	else if (UARTRxData[0] == 0x62) {
 8001ef6:	4b1b      	ldr	r3, [pc, #108]	; (8001f64 <HAL_UART_RxCpltCallback+0x148>)
 8001ef8:	781b      	ldrb	r3, [r3, #0]
 8001efa:	2b62      	cmp	r3, #98	; 0x62
 8001efc:	d10b      	bne.n	8001f16 <HAL_UART_RxCpltCallback+0xfa>
		readTempSensorID(&hi2c2, huart, decodeASCII(UARTRxData[1]));
 8001efe:	4b19      	ldr	r3, [pc, #100]	; (8001f64 <HAL_UART_RxCpltCallback+0x148>)
 8001f00:	785b      	ldrb	r3, [r3, #1]
 8001f02:	4618      	mov	r0, r3
 8001f04:	f000 f838 	bl	8001f78 <decodeASCII>
 8001f08:	4603      	mov	r3, r0
 8001f0a:	461a      	mov	r2, r3
 8001f0c:	6879      	ldr	r1, [r7, #4]
 8001f0e:	4818      	ldr	r0, [pc, #96]	; (8001f70 <HAL_UART_RxCpltCallback+0x154>)
 8001f10:	f7ff fb52 	bl	80015b8 <readTempSensorID>
 8001f14:	e01d      	b.n	8001f52 <HAL_UART_RxCpltCallback+0x136>
	}

	// Read the temp sensor calibration registers and print to the UART (data_rx[0] = "p")
	else if (UARTRxData[0] == 0x70) {
 8001f16:	4b13      	ldr	r3, [pc, #76]	; (8001f64 <HAL_UART_RxCpltCallback+0x148>)
 8001f18:	781b      	ldrb	r3, [r3, #0]
 8001f1a:	2b70      	cmp	r3, #112	; 0x70
 8001f1c:	d10b      	bne.n	8001f36 <HAL_UART_RxCpltCallback+0x11a>
		readTempCalibration(&hi2c2, huart, decodeASCII(UARTRxData[1]));
 8001f1e:	4b11      	ldr	r3, [pc, #68]	; (8001f64 <HAL_UART_RxCpltCallback+0x148>)
 8001f20:	785b      	ldrb	r3, [r3, #1]
 8001f22:	4618      	mov	r0, r3
 8001f24:	f000 f828 	bl	8001f78 <decodeASCII>
 8001f28:	4603      	mov	r3, r0
 8001f2a:	461a      	mov	r2, r3
 8001f2c:	6879      	ldr	r1, [r7, #4]
 8001f2e:	4810      	ldr	r0, [pc, #64]	; (8001f70 <HAL_UART_RxCpltCallback+0x154>)
 8001f30:	f7ff fb57 	bl	80015e2 <readTempCalibration>
 8001f34:	e00d      	b.n	8001f52 <HAL_UART_RxCpltCallback+0x136>
	}

	// Read the temp sensor and print to the UART[0] (data_rx [0]= "t")
	else if (UARTRxData[0] == 0x74) {
 8001f36:	4b0b      	ldr	r3, [pc, #44]	; (8001f64 <HAL_UART_RxCpltCallback+0x148>)
 8001f38:	781b      	ldrb	r3, [r3, #0]
 8001f3a:	2b74      	cmp	r3, #116	; 0x74
 8001f3c:	d109      	bne.n	8001f52 <HAL_UART_RxCpltCallback+0x136>
		readTempSensor(huart, decodeASCII(UARTRxData[1]));
 8001f3e:	4b09      	ldr	r3, [pc, #36]	; (8001f64 <HAL_UART_RxCpltCallback+0x148>)
 8001f40:	785b      	ldrb	r3, [r3, #1]
 8001f42:	4618      	mov	r0, r3
 8001f44:	f000 f818 	bl	8001f78 <decodeASCII>
 8001f48:	4603      	mov	r3, r0
 8001f4a:	4619      	mov	r1, r3
 8001f4c:	6878      	ldr	r0, [r7, #4]
 8001f4e:	f7ff fb81 	bl	8001654 <readTempSensor>
	}

	HAL_UART_Receive_IT(&huart2, UARTRxData, 2);
 8001f52:	2202      	movs	r2, #2
 8001f54:	4903      	ldr	r1, [pc, #12]	; (8001f64 <HAL_UART_RxCpltCallback+0x148>)
 8001f56:	4807      	ldr	r0, [pc, #28]	; (8001f74 <HAL_UART_RxCpltCallback+0x158>)
 8001f58:	f003 fffd 	bl	8005f56 <HAL_UART_Receive_IT>
}
 8001f5c:	bf00      	nop
 8001f5e:	3708      	adds	r7, #8
 8001f60:	46bd      	mov	sp, r7
 8001f62:	bd80      	pop	{r7, pc}
 8001f64:	200001f0 	.word	0x200001f0
 8001f68:	20000108 	.word	0x20000108
 8001f6c:	20000040 	.word	0x20000040
 8001f70:	20000094 	.word	0x20000094
 8001f74:	200001a8 	.word	0x200001a8

08001f78 <decodeASCII>:

uint8_t decodeASCII(uint8_t asciiVal) {
 8001f78:	b480      	push	{r7}
 8001f7a:	b085      	sub	sp, #20
 8001f7c:	af00      	add	r7, sp, #0
 8001f7e:	4603      	mov	r3, r0
 8001f80:	71fb      	strb	r3, [r7, #7]
	int returnVal = -1;
 8001f82:	f04f 33ff 	mov.w	r3, #4294967295	; 0xffffffff
 8001f86:	60fb      	str	r3, [r7, #12]
	if ((asciiVal >= 48) && (asciiVal <= 57)) {
 8001f88:	79fb      	ldrb	r3, [r7, #7]
 8001f8a:	2b2f      	cmp	r3, #47	; 0x2f
 8001f8c:	d905      	bls.n	8001f9a <decodeASCII+0x22>
 8001f8e:	79fb      	ldrb	r3, [r7, #7]
 8001f90:	2b39      	cmp	r3, #57	; 0x39
 8001f92:	d802      	bhi.n	8001f9a <decodeASCII+0x22>
		returnVal = asciiVal - 48;
 8001f94:	79fb      	ldrb	r3, [r7, #7]
 8001f96:	3b30      	subs	r3, #48	; 0x30
 8001f98:	60fb      	str	r3, [r7, #12]
	}
	return returnVal;
 8001f9a:	68fb      	ldr	r3, [r7, #12]
 8001f9c:	b2db      	uxtb	r3, r3
}
 8001f9e:	4618      	mov	r0, r3
 8001fa0:	3714      	adds	r7, #20
 8001fa2:	46bd      	mov	sp, r7
 8001fa4:	f85d 7b04 	ldr.w	r7, [sp], #4
 8001fa8:	4770      	bx	lr
	...

08001fac <SystemInit>:
  *         configuration.
  * @param  None
  * @retval None
  */
void SystemInit(void)
{
 8001fac:	b480      	push	{r7}
 8001fae:	af00      	add	r7, sp, #0
  /* FPU settings ------------------------------------------------------------*/
  #if (__FPU_PRESENT == 1) && (__FPU_USED == 1)
    SCB->CPACR |= ((3UL << 10*2)|(3UL << 11*2));  /* set CP10 and CP11 Full Access */
 8001fb0:	4b06      	ldr	r3, [pc, #24]	; (8001fcc <SystemInit+0x20>)
 8001fb2:	f8d3 3088 	ldr.w	r3, [r3, #136]	; 0x88
 8001fb6:	4a05      	ldr	r2, [pc, #20]	; (8001fcc <SystemInit+0x20>)
 8001fb8:	f443 0370 	orr.w	r3, r3, #15728640	; 0xf00000
 8001fbc:	f8c2 3088 	str.w	r3, [r2, #136]	; 0x88

  /* Configure the Vector Table location -------------------------------------*/
#if defined(USER_VECT_TAB_ADDRESS)
  SCB->VTOR = VECT_TAB_BASE_ADDRESS | VECT_TAB_OFFSET; /* Vector Table Relocation in Internal SRAM */
#endif /* USER_VECT_TAB_ADDRESS */
}
 8001fc0:	bf00      	nop
 8001fc2:	46bd      	mov	sp, r7
 8001fc4:	f85d 7b04 	ldr.w	r7, [sp], #4
 8001fc8:	4770      	bx	lr
 8001fca:	bf00      	nop
 8001fcc:	e000ed00 	.word	0xe000ed00

08001fd0 <uart_transmit_page>:

#include "uart_transmit.h"
/**
 * Transmit one single page over the UART interface
 */
void uart_transmit_page(UART_HandleTypeDef *huart, uint8_t page[PAGE_SIZE]) {
 8001fd0:	b580      	push	{r7, lr}
 8001fd2:	b082      	sub	sp, #8
 8001fd4:	af00      	add	r7, sp, #0
 8001fd6:	6078      	str	r0, [r7, #4]
 8001fd8:	6039      	str	r1, [r7, #0]
	HAL_UART_Transmit(huart, page, PAGE_SIZE, HAL_MAX_DELAY);
 8001fda:	f04f 33ff 	mov.w	r3, #4294967295	; 0xffffffff
 8001fde:	f44f 7280 	mov.w	r2, #256	; 0x100
 8001fe2:	6839      	ldr	r1, [r7, #0]
 8001fe4:	6878      	ldr	r0, [r7, #4]
 8001fe6:	f003 ff2b 	bl	8005e40 <HAL_UART_Transmit>
}
 8001fea:	bf00      	nop
 8001fec:	3708      	adds	r7, #8
 8001fee:	46bd      	mov	sp, r7
 8001ff0:	bd80      	pop	{r7, pc}

08001ff2 <send_uart_string>:

void send_uart_string(UART_HandleTypeDef *huart, const char *str) {
 8001ff2:	b580      	push	{r7, lr}
 8001ff4:	b082      	sub	sp, #8
 8001ff6:	af00      	add	r7, sp, #0
 8001ff8:	6078      	str	r0, [r7, #4]
 8001ffa:	6039      	str	r1, [r7, #0]
    HAL_UART_Transmit(huart, (uint8_t *)str, strlen(str), HAL_MAX_DELAY);
 8001ffc:	6838      	ldr	r0, [r7, #0]
 8001ffe:	f7fe f8f5 	bl	80001ec <strlen>
 8002002:	4603      	mov	r3, r0
 8002004:	b29a      	uxth	r2, r3
 8002006:	f04f 33ff 	mov.w	r3, #4294967295	; 0xffffffff
 800200a:	6839      	ldr	r1, [r7, #0]
 800200c:	6878      	ldr	r0, [r7, #4]
 800200e:	f003 ff17 	bl	8005e40 <HAL_UART_Transmit>
}
 8002012:	bf00      	nop
 8002014:	3708      	adds	r7, #8
 8002016:	46bd      	mov	sp, r7
 8002018:	bd80      	pop	{r7, pc}

0800201a <send_uart_hex>:
	// Call the send_uart_string function to send the value to UART
	send_uart_string(huart, value_str);
	send_uart_string(huart, "\r\n");
}

void send_uart_hex(UART_HandleTypeDef *huart, uint8_t value) {
 800201a:	b580      	push	{r7, lr}
 800201c:	b084      	sub	sp, #16
 800201e:	af00      	add	r7, sp, #0
 8002020:	6078      	str	r0, [r7, #4]
 8002022:	460b      	mov	r3, r1
 8002024:	70fb      	strb	r3, [r7, #3]
	uint8_t buffer[1];
	buffer[0] = value;
 8002026:	78fb      	ldrb	r3, [r7, #3]
 8002028:	733b      	strb	r3, [r7, #12]
	HAL_UART_Transmit(huart, buffer, 1, HAL_MAX_DELAY);
 800202a:	f107 010c 	add.w	r1, r7, #12
 800202e:	f04f 33ff 	mov.w	r3, #4294967295	; 0xffffffff
 8002032:	2201      	movs	r2, #1
 8002034:	6878      	ldr	r0, [r7, #4]
 8002036:	f003 ff03 	bl	8005e40 <HAL_UART_Transmit>
}
 800203a:	bf00      	nop
 800203c:	3710      	adds	r7, #16
 800203e:	46bd      	mov	sp, r7
 8002040:	bd80      	pop	{r7, pc}
	...

08002044 <Reset_Handler>:

    .section  .text.Reset_Handler
  .weak  Reset_Handler
  .type  Reset_Handler, %function
Reset_Handler:  
  ldr   sp, =_estack     /* set stack pointer */
 8002044:	f8df d034 	ldr.w	sp, [pc, #52]	; 800207c <LoopFillZerobss+0xe>
  
/* Call the clock system initialization function.*/
  bl  SystemInit  
 8002048:	f7ff ffb0 	bl	8001fac <SystemInit>

/* Copy the data segment initializers from flash to SRAM */  
  ldr r0, =_sdata
 800204c:	480c      	ldr	r0, [pc, #48]	; (8002080 <LoopFillZerobss+0x12>)
  ldr r1, =_edata
 800204e:	490d      	ldr	r1, [pc, #52]	; (8002084 <LoopFillZerobss+0x16>)
  ldr r2, =_sidata
 8002050:	4a0d      	ldr	r2, [pc, #52]	; (8002088 <LoopFillZerobss+0x1a>)
  movs r3, #0
 8002052:	2300      	movs	r3, #0
  b LoopCopyDataInit
 8002054:	e002      	b.n	800205c <LoopCopyDataInit>

08002056 <CopyDataInit>:

CopyDataInit:
  ldr r4, [r2, r3]
 8002056:	58d4      	ldr	r4, [r2, r3]
  str r4, [r0, r3]
 8002058:	50c4      	str	r4, [r0, r3]
  adds r3, r3, #4
 800205a:	3304      	adds	r3, #4

0800205c <LoopCopyDataInit>:

LoopCopyDataInit:
  adds r4, r0, r3
 800205c:	18c4      	adds	r4, r0, r3
  cmp r4, r1
 800205e:	428c      	cmp	r4, r1
  bcc CopyDataInit
 8002060:	d3f9      	bcc.n	8002056 <CopyDataInit>
  
/* Zero fill the bss segment. */
  ldr r2, =_sbss
 8002062:	4a0a      	ldr	r2, [pc, #40]	; (800208c <LoopFillZerobss+0x1e>)
  ldr r4, =_ebss
 8002064:	4c0a      	ldr	r4, [pc, #40]	; (8002090 <LoopFillZerobss+0x22>)
  movs r3, #0
 8002066:	2300      	movs	r3, #0
  b LoopFillZerobss
 8002068:	e001      	b.n	800206e <LoopFillZerobss>

0800206a <FillZerobss>:

FillZerobss:
  str  r3, [r2]
 800206a:	6013      	str	r3, [r2, #0]
  adds r2, r2, #4
 800206c:	3204      	adds	r2, #4

0800206e <LoopFillZerobss>:

LoopFillZerobss:
  cmp r2, r4
 800206e:	42a2      	cmp	r2, r4
  bcc FillZerobss
 8002070:	d3fb      	bcc.n	800206a <FillZerobss>

/* Call static constructors */
    bl __libc_init_array
 8002072:	f004 fef3 	bl	8006e5c <__libc_init_array>
/* Call the application's entry point.*/
  bl  main
 8002076:	f7fe fe25 	bl	8000cc4 <main>
  bx  lr    
 800207a:	4770      	bx	lr
  ldr   sp, =_estack     /* set stack pointer */
 800207c:	20030000 	.word	0x20030000
  ldr r0, =_sdata
 8002080:	20000000 	.word	0x20000000
  ldr r1, =_edata
 8002084:	20000024 	.word	0x20000024
  ldr r2, =_sidata
 8002088:	08006f84 	.word	0x08006f84
  ldr r2, =_sbss
 800208c:	20000024 	.word	0x20000024
  ldr r4, =_ebss
 8002090:	2000032c 	.word	0x2000032c

08002094 <ADC_IRQHandler>:
 * @retval None       
*/
    .section  .text.Default_Handler,"ax",%progbits
Default_Handler:
Infinite_Loop:
  b  Infinite_Loop
 8002094:	e7fe      	b.n	8002094 <ADC_IRQHandler>
	...

08002098 <HAL_Init>:
  *         need to ensure that the SysTick time base is always set to 1 millisecond
  *         to have correct HAL operation.
  * @retval HAL status
  */
HAL_StatusTypeDef HAL_Init(void)
{
 8002098:	b580      	push	{r7, lr}
 800209a:	af00      	add	r7, sp, #0
  /* Configure Flash prefetch, Instruction cache, Data cache */ 
#if (INSTRUCTION_CACHE_ENABLE != 0U)
  __HAL_FLASH_INSTRUCTION_CACHE_ENABLE();
 800209c:	4b0e      	ldr	r3, [pc, #56]	; (80020d8 <HAL_Init+0x40>)
 800209e:	681b      	ldr	r3, [r3, #0]
 80020a0:	4a0d      	ldr	r2, [pc, #52]	; (80020d8 <HAL_Init+0x40>)
 80020a2:	f443 7300 	orr.w	r3, r3, #512	; 0x200
 80020a6:	6013      	str	r3, [r2, #0]
#endif /* INSTRUCTION_CACHE_ENABLE */

#if (DATA_CACHE_ENABLE != 0U)
  __HAL_FLASH_DATA_CACHE_ENABLE();
 80020a8:	4b0b      	ldr	r3, [pc, #44]	; (80020d8 <HAL_Init+0x40>)
 80020aa:	681b      	ldr	r3, [r3, #0]
 80020ac:	4a0a      	ldr	r2, [pc, #40]	; (80020d8 <HAL_Init+0x40>)
 80020ae:	f443 6380 	orr.w	r3, r3, #1024	; 0x400
 80020b2:	6013      	str	r3, [r2, #0]
#endif /* DATA_CACHE_ENABLE */

#if (PREFETCH_ENABLE != 0U)
  __HAL_FLASH_PREFETCH_BUFFER_ENABLE();
 80020b4:	4b08      	ldr	r3, [pc, #32]	; (80020d8 <HAL_Init+0x40>)
 80020b6:	681b      	ldr	r3, [r3, #0]
 80020b8:	4a07      	ldr	r2, [pc, #28]	; (80020d8 <HAL_Init+0x40>)
 80020ba:	f443 7380 	orr.w	r3, r3, #256	; 0x100
 80020be:	6013      	str	r3, [r2, #0]
#endif /* PREFETCH_ENABLE */

  /* Set Interrupt Group Priority */
  HAL_NVIC_SetPriorityGrouping(NVIC_PRIORITYGROUP_4);
 80020c0:	2003      	movs	r0, #3
 80020c2:	f000 f92b 	bl	800231c <HAL_NVIC_SetPriorityGrouping>

  /* Use systick as time base source and configure 1ms tick (default clock after Reset is HSI) */
  HAL_InitTick(TICK_INT_PRIORITY);
 80020c6:	200f      	movs	r0, #15
 80020c8:	f000 f808 	bl	80020dc <HAL_InitTick>

  /* Init the low level hardware */
  HAL_MspInit();
 80020cc:	f7ff fcce 	bl	8001a6c <HAL_MspInit>

  /* Return function status */
  return HAL_OK;
 80020d0:	2300      	movs	r3, #0
}
 80020d2:	4618      	mov	r0, r3
 80020d4:	bd80      	pop	{r7, pc}
 80020d6:	bf00      	nop
 80020d8:	40023c00 	.word	0x40023c00

080020dc <HAL_InitTick>:
  *       implementation  in user file.
  * @param TickPriority Tick interrupt priority.
  * @retval HAL status
  */
__weak HAL_StatusTypeDef HAL_InitTick(uint32_t TickPriority)
{
 80020dc:	b580      	push	{r7, lr}
 80020de:	b082      	sub	sp, #8
 80020e0:	af00      	add	r7, sp, #0
 80020e2:	6078      	str	r0, [r7, #4]
  /* Configure the SysTick to have interrupt in 1ms time basis*/
  if (HAL_SYSTICK_Config(SystemCoreClock / (1000U / uwTickFreq)) > 0U)
 80020e4:	4b12      	ldr	r3, [pc, #72]	; (8002130 <HAL_InitTick+0x54>)
 80020e6:	681a      	ldr	r2, [r3, #0]
 80020e8:	4b12      	ldr	r3, [pc, #72]	; (8002134 <HAL_InitTick+0x58>)
 80020ea:	781b      	ldrb	r3, [r3, #0]
 80020ec:	4619      	mov	r1, r3
 80020ee:	f44f 737a 	mov.w	r3, #1000	; 0x3e8
 80020f2:	fbb3 f3f1 	udiv	r3, r3, r1
 80020f6:	fbb2 f3f3 	udiv	r3, r2, r3
 80020fa:	4618      	mov	r0, r3
 80020fc:	f000 f943 	bl	8002386 <HAL_SYSTICK_Config>
 8002100:	4603      	mov	r3, r0
 8002102:	2b00      	cmp	r3, #0
 8002104:	d001      	beq.n	800210a <HAL_InitTick+0x2e>
  {
    return HAL_ERROR;
 8002106:	2301      	movs	r3, #1
 8002108:	e00e      	b.n	8002128 <HAL_InitTick+0x4c>
  }

  /* Configure the SysTick IRQ priority */
  if (TickPriority < (1UL << __NVIC_PRIO_BITS))
 800210a:	687b      	ldr	r3, [r7, #4]
 800210c:	2b0f      	cmp	r3, #15
 800210e:	d80a      	bhi.n	8002126 <HAL_InitTick+0x4a>
  {
    HAL_NVIC_SetPriority(SysTick_IRQn, TickPriority, 0U);
 8002110:	2200      	movs	r2, #0
 8002112:	6879      	ldr	r1, [r7, #4]
 8002114:	f04f 30ff 	mov.w	r0, #4294967295	; 0xffffffff
 8002118:	f000 f90b 	bl	8002332 <HAL_NVIC_SetPriority>
    uwTickPrio = TickPriority;
 800211c:	4a06      	ldr	r2, [pc, #24]	; (8002138 <HAL_InitTick+0x5c>)
 800211e:	687b      	ldr	r3, [r7, #4]
 8002120:	6013      	str	r3, [r2, #0]
  {
    return HAL_ERROR;
  }

  /* Return function status */
  return HAL_OK;
 8002122:	2300      	movs	r3, #0
 8002124:	e000      	b.n	8002128 <HAL_InitTick+0x4c>
    return HAL_ERROR;
 8002126:	2301      	movs	r3, #1
}
 8002128:	4618      	mov	r0, r3
 800212a:	3708      	adds	r7, #8
 800212c:	46bd      	mov	sp, r7
 800212e:	bd80      	pop	{r7, pc}
 8002130:	20000018 	.word	0x20000018
 8002134:	20000020 	.word	0x20000020
 8002138:	2000001c 	.word	0x2000001c

0800213c <HAL_IncTick>:
 * @note This function is declared as __weak to be overwritten in case of other 
  *      implementations in user file.
  * @retval None
  */
__weak void HAL_IncTick(void)
{
 800213c:	b480      	push	{r7}
 800213e:	af00      	add	r7, sp, #0
  uwTick += uwTickFreq;
 8002140:	4b06      	ldr	r3, [pc, #24]	; (800215c <HAL_IncTick+0x20>)
 8002142:	781b      	ldrb	r3, [r3, #0]
 8002144:	461a      	mov	r2, r3
 8002146:	4b06      	ldr	r3, [pc, #24]	; (8002160 <HAL_IncTick+0x24>)
 8002148:	681b      	ldr	r3, [r3, #0]
 800214a:	4413      	add	r3, r2
 800214c:	4a04      	ldr	r2, [pc, #16]	; (8002160 <HAL_IncTick+0x24>)
 800214e:	6013      	str	r3, [r2, #0]
}
 8002150:	bf00      	nop
 8002152:	46bd      	mov	sp, r7
 8002154:	f85d 7b04 	ldr.w	r7, [sp], #4
 8002158:	4770      	bx	lr
 800215a:	bf00      	nop
 800215c:	20000020 	.word	0x20000020
 8002160:	20000328 	.word	0x20000328

08002164 <HAL_GetTick>:
  * @note This function is declared as __weak to be overwritten in case of other 
  *       implementations in user file.
  * @retval tick value
  */
__weak uint32_t HAL_GetTick(void)
{
 8002164:	b480      	push	{r7}
 8002166:	af00      	add	r7, sp, #0
  return uwTick;
 8002168:	4b03      	ldr	r3, [pc, #12]	; (8002178 <HAL_GetTick+0x14>)
 800216a:	681b      	ldr	r3, [r3, #0]
}
 800216c:	4618      	mov	r0, r3
 800216e:	46bd      	mov	sp, r7
 8002170:	f85d 7b04 	ldr.w	r7, [sp], #4
 8002174:	4770      	bx	lr
 8002176:	bf00      	nop
 8002178:	20000328 	.word	0x20000328

0800217c <__NVIC_SetPriorityGrouping>:
           In case of a conflict between priority grouping and available
           priority bits (__NVIC_PRIO_BITS), the smallest possible priority group is set.
  \param [in]      PriorityGroup  Priority grouping field.
 */
__STATIC_INLINE void __NVIC_SetPriorityGrouping(uint32_t PriorityGroup)
{
 800217c:	b480      	push	{r7}
 800217e:	b085      	sub	sp, #20
 8002180:	af00      	add	r7, sp, #0
 8002182:	6078      	str	r0, [r7, #4]
  uint32_t reg_value;
  uint32_t PriorityGroupTmp = (PriorityGroup & (uint32_t)0x07UL);             /* only values 0..7 are used          */
 8002184:	687b      	ldr	r3, [r7, #4]
 8002186:	f003 0307 	and.w	r3, r3, #7
 800218a:	60fb      	str	r3, [r7, #12]

  reg_value  =  SCB->AIRCR;                                                   /* read old register configuration    */
 800218c:	4b0c      	ldr	r3, [pc, #48]	; (80021c0 <__NVIC_SetPriorityGrouping+0x44>)
 800218e:	68db      	ldr	r3, [r3, #12]
 8002190:	60bb      	str	r3, [r7, #8]
  reg_value &= ~((uint32_t)(SCB_AIRCR_VECTKEY_Msk | SCB_AIRCR_PRIGROUP_Msk)); /* clear bits to change               */
 8002192:	68ba      	ldr	r2, [r7, #8]
 8002194:	f64f 03ff 	movw	r3, #63743	; 0xf8ff
 8002198:	4013      	ands	r3, r2
 800219a:	60bb      	str	r3, [r7, #8]
  reg_value  =  (reg_value                                   |
                ((uint32_t)0x5FAUL << SCB_AIRCR_VECTKEY_Pos) |
                (PriorityGroupTmp << SCB_AIRCR_PRIGROUP_Pos)  );              /* Insert write key and priority group */
 800219c:	68fb      	ldr	r3, [r7, #12]
 800219e:	021a      	lsls	r2, r3, #8
                ((uint32_t)0x5FAUL << SCB_AIRCR_VECTKEY_Pos) |
 80021a0:	68bb      	ldr	r3, [r7, #8]
 80021a2:	4313      	orrs	r3, r2
  reg_value  =  (reg_value                                   |
 80021a4:	f043 63bf 	orr.w	r3, r3, #100139008	; 0x5f80000
 80021a8:	f443 3300 	orr.w	r3, r3, #131072	; 0x20000
 80021ac:	60bb      	str	r3, [r7, #8]
  SCB->AIRCR =  reg_value;
 80021ae:	4a04      	ldr	r2, [pc, #16]	; (80021c0 <__NVIC_SetPriorityGrouping+0x44>)
 80021b0:	68bb      	ldr	r3, [r7, #8]
 80021b2:	60d3      	str	r3, [r2, #12]
}
 80021b4:	bf00      	nop
 80021b6:	3714      	adds	r7, #20
 80021b8:	46bd      	mov	sp, r7
 80021ba:	f85d 7b04 	ldr.w	r7, [sp], #4
 80021be:	4770      	bx	lr
 80021c0:	e000ed00 	.word	0xe000ed00

080021c4 <__NVIC_GetPriorityGrouping>:
  \brief   Get Priority Grouping
  \details Reads the priority grouping field from the NVIC Interrupt Controller.
  \return                Priority grouping field (SCB->AIRCR [10:8] PRIGROUP field).
 */
__STATIC_INLINE uint32_t __NVIC_GetPriorityGrouping(void)
{
 80021c4:	b480      	push	{r7}
 80021c6:	af00      	add	r7, sp, #0
  return ((uint32_t)((SCB->AIRCR & SCB_AIRCR_PRIGROUP_Msk) >> SCB_AIRCR_PRIGROUP_Pos));
 80021c8:	4b04      	ldr	r3, [pc, #16]	; (80021dc <__NVIC_GetPriorityGrouping+0x18>)
 80021ca:	68db      	ldr	r3, [r3, #12]
 80021cc:	0a1b      	lsrs	r3, r3, #8
 80021ce:	f003 0307 	and.w	r3, r3, #7
}
 80021d2:	4618      	mov	r0, r3
 80021d4:	46bd      	mov	sp, r7
 80021d6:	f85d 7b04 	ldr.w	r7, [sp], #4
 80021da:	4770      	bx	lr
 80021dc:	e000ed00 	.word	0xe000ed00

080021e0 <__NVIC_EnableIRQ>:
  \details Enables a device specific interrupt in the NVIC interrupt controller.
  \param [in]      IRQn  Device specific interrupt number.
  \note    IRQn must not be negative.
 */
__STATIC_INLINE void __NVIC_EnableIRQ(IRQn_Type IRQn)
{
 80021e0:	b480      	push	{r7}
 80021e2:	b083      	sub	sp, #12
 80021e4:	af00      	add	r7, sp, #0
 80021e6:	4603      	mov	r3, r0
 80021e8:	71fb      	strb	r3, [r7, #7]
  if ((int32_t)(IRQn) >= 0)
 80021ea:	f997 3007 	ldrsb.w	r3, [r7, #7]
 80021ee:	2b00      	cmp	r3, #0
 80021f0:	db0b      	blt.n	800220a <__NVIC_EnableIRQ+0x2a>
  {
    __COMPILER_BARRIER();
    NVIC->ISER[(((uint32_t)IRQn) >> 5UL)] = (uint32_t)(1UL << (((uint32_t)IRQn) & 0x1FUL));
 80021f2:	79fb      	ldrb	r3, [r7, #7]
 80021f4:	f003 021f 	and.w	r2, r3, #31
 80021f8:	4907      	ldr	r1, [pc, #28]	; (8002218 <__NVIC_EnableIRQ+0x38>)
 80021fa:	f997 3007 	ldrsb.w	r3, [r7, #7]
 80021fe:	095b      	lsrs	r3, r3, #5
 8002200:	2001      	movs	r0, #1
 8002202:	fa00 f202 	lsl.w	r2, r0, r2
 8002206:	f841 2023 	str.w	r2, [r1, r3, lsl #2]
    __COMPILER_BARRIER();
  }
}
 800220a:	bf00      	nop
 800220c:	370c      	adds	r7, #12
 800220e:	46bd      	mov	sp, r7
 8002210:	f85d 7b04 	ldr.w	r7, [sp], #4
 8002214:	4770      	bx	lr
 8002216:	bf00      	nop
 8002218:	e000e100 	.word	0xe000e100

0800221c <__NVIC_SetPriority>:
  \param [in]      IRQn  Interrupt number.
  \param [in]  priority  Priority to set.
  \note    The priority cannot be set for every processor exception.
 */
__STATIC_INLINE void __NVIC_SetPriority(IRQn_Type IRQn, uint32_t priority)
{
 800221c:	b480      	push	{r7}
 800221e:	b083      	sub	sp, #12
 8002220:	af00      	add	r7, sp, #0
 8002222:	4603      	mov	r3, r0
 8002224:	6039      	str	r1, [r7, #0]
 8002226:	71fb      	strb	r3, [r7, #7]
  if ((int32_t)(IRQn) >= 0)
 8002228:	f997 3007 	ldrsb.w	r3, [r7, #7]
 800222c:	2b00      	cmp	r3, #0
 800222e:	db0a      	blt.n	8002246 <__NVIC_SetPriority+0x2a>
  {
    NVIC->IP[((uint32_t)IRQn)]               = (uint8_t)((priority << (8U - __NVIC_PRIO_BITS)) & (uint32_t)0xFFUL);
 8002230:	683b      	ldr	r3, [r7, #0]
 8002232:	b2da      	uxtb	r2, r3
 8002234:	490c      	ldr	r1, [pc, #48]	; (8002268 <__NVIC_SetPriority+0x4c>)
 8002236:	f997 3007 	ldrsb.w	r3, [r7, #7]
 800223a:	0112      	lsls	r2, r2, #4
 800223c:	b2d2      	uxtb	r2, r2
 800223e:	440b      	add	r3, r1
 8002240:	f883 2300 	strb.w	r2, [r3, #768]	; 0x300
  }
  else
  {
    SCB->SHP[(((uint32_t)IRQn) & 0xFUL)-4UL] = (uint8_t)((priority << (8U - __NVIC_PRIO_BITS)) & (uint32_t)0xFFUL);
  }
}
 8002244:	e00a      	b.n	800225c <__NVIC_SetPriority+0x40>
    SCB->SHP[(((uint32_t)IRQn) & 0xFUL)-4UL] = (uint8_t)((priority << (8U - __NVIC_PRIO_BITS)) & (uint32_t)0xFFUL);
 8002246:	683b      	ldr	r3, [r7, #0]
 8002248:	b2da      	uxtb	r2, r3
 800224a:	4908      	ldr	r1, [pc, #32]	; (800226c <__NVIC_SetPriority+0x50>)
 800224c:	79fb      	ldrb	r3, [r7, #7]
 800224e:	f003 030f 	and.w	r3, r3, #15
 8002252:	3b04      	subs	r3, #4
 8002254:	0112      	lsls	r2, r2, #4
 8002256:	b2d2      	uxtb	r2, r2
 8002258:	440b      	add	r3, r1
 800225a:	761a      	strb	r2, [r3, #24]
}
 800225c:	bf00      	nop
 800225e:	370c      	adds	r7, #12
 8002260:	46bd      	mov	sp, r7
 8002262:	f85d 7b04 	ldr.w	r7, [sp], #4
 8002266:	4770      	bx	lr
 8002268:	e000e100 	.word	0xe000e100
 800226c:	e000ed00 	.word	0xe000ed00

08002270 <NVIC_EncodePriority>:
  \param [in]   PreemptPriority  Preemptive priority value (starting from 0).
  \param [in]       SubPriority  Subpriority value (starting from 0).
  \return                        Encoded priority. Value can be used in the function \ref NVIC_SetPriority().
 */
__STATIC_INLINE uint32_t NVIC_EncodePriority (uint32_t PriorityGroup, uint32_t PreemptPriority, uint32_t SubPriority)
{
 8002270:	b480      	push	{r7}
 8002272:	b089      	sub	sp, #36	; 0x24
 8002274:	af00      	add	r7, sp, #0
 8002276:	60f8      	str	r0, [r7, #12]
 8002278:	60b9      	str	r1, [r7, #8]
 800227a:	607a      	str	r2, [r7, #4]
  uint32_t PriorityGroupTmp = (PriorityGroup & (uint32_t)0x07UL);   /* only values 0..7 are used          */
 800227c:	68fb      	ldr	r3, [r7, #12]
 800227e:	f003 0307 	and.w	r3, r3, #7
 8002282:	61fb      	str	r3, [r7, #28]
  uint32_t PreemptPriorityBits;
  uint32_t SubPriorityBits;

  PreemptPriorityBits = ((7UL - PriorityGroupTmp) > (uint32_t)(__NVIC_PRIO_BITS)) ? (uint32_t)(__NVIC_PRIO_BITS) : (uint32_t)(7UL - PriorityGroupTmp);
 8002284:	69fb      	ldr	r3, [r7, #28]
 8002286:	f1c3 0307 	rsb	r3, r3, #7
 800228a:	2b04      	cmp	r3, #4
 800228c:	bf28      	it	cs
 800228e:	2304      	movcs	r3, #4
 8002290:	61bb      	str	r3, [r7, #24]
  SubPriorityBits     = ((PriorityGroupTmp + (uint32_t)(__NVIC_PRIO_BITS)) < (uint32_t)7UL) ? (uint32_t)0UL : (uint32_t)((PriorityGroupTmp - 7UL) + (uint32_t)(__NVIC_PRIO_BITS));
 8002292:	69fb      	ldr	r3, [r7, #28]
 8002294:	3304      	adds	r3, #4
 8002296:	2b06      	cmp	r3, #6
 8002298:	d902      	bls.n	80022a0 <NVIC_EncodePriority+0x30>
 800229a:	69fb      	ldr	r3, [r7, #28]
 800229c:	3b03      	subs	r3, #3
 800229e:	e000      	b.n	80022a2 <NVIC_EncodePriority+0x32>
 80022a0:	2300      	movs	r3, #0
 80022a2:	617b      	str	r3, [r7, #20]

  return (
           ((PreemptPriority & (uint32_t)((1UL << (PreemptPriorityBits)) - 1UL)) << SubPriorityBits) |
 80022a4:	f04f 32ff 	mov.w	r2, #4294967295	; 0xffffffff
 80022a8:	69bb      	ldr	r3, [r7, #24]
 80022aa:	fa02 f303 	lsl.w	r3, r2, r3
 80022ae:	43da      	mvns	r2, r3
 80022b0:	68bb      	ldr	r3, [r7, #8]
 80022b2:	401a      	ands	r2, r3
 80022b4:	697b      	ldr	r3, [r7, #20]
 80022b6:	409a      	lsls	r2, r3
           ((SubPriority     & (uint32_t)((1UL << (SubPriorityBits    )) - 1UL)))
 80022b8:	f04f 31ff 	mov.w	r1, #4294967295	; 0xffffffff
 80022bc:	697b      	ldr	r3, [r7, #20]
 80022be:	fa01 f303 	lsl.w	r3, r1, r3
 80022c2:	43d9      	mvns	r1, r3
 80022c4:	687b      	ldr	r3, [r7, #4]
 80022c6:	400b      	ands	r3, r1
           ((PreemptPriority & (uint32_t)((1UL << (PreemptPriorityBits)) - 1UL)) << SubPriorityBits) |
 80022c8:	4313      	orrs	r3, r2
         );
}
 80022ca:	4618      	mov	r0, r3
 80022cc:	3724      	adds	r7, #36	; 0x24
 80022ce:	46bd      	mov	sp, r7
 80022d0:	f85d 7b04 	ldr.w	r7, [sp], #4
 80022d4:	4770      	bx	lr
	...

080022d8 <SysTick_Config>:
  \note    When the variable <b>__Vendor_SysTickConfig</b> is set to 1, then the
           function <b>SysTick_Config</b> is not included. In this case, the file <b><i>device</i>.h</b>
           must contain a vendor-specific implementation of this function.
 */
__STATIC_INLINE uint32_t SysTick_Config(uint32_t ticks)
{
 80022d8:	b580      	push	{r7, lr}
 80022da:	b082      	sub	sp, #8
 80022dc:	af00      	add	r7, sp, #0
 80022de:	6078      	str	r0, [r7, #4]
  if ((ticks - 1UL) > SysTick_LOAD_RELOAD_Msk)
 80022e0:	687b      	ldr	r3, [r7, #4]
 80022e2:	3b01      	subs	r3, #1
 80022e4:	f1b3 7f80 	cmp.w	r3, #16777216	; 0x1000000
 80022e8:	d301      	bcc.n	80022ee <SysTick_Config+0x16>
  {
    return (1UL);                                                   /* Reload value impossible */
 80022ea:	2301      	movs	r3, #1
 80022ec:	e00f      	b.n	800230e <SysTick_Config+0x36>
  }

  SysTick->LOAD  = (uint32_t)(ticks - 1UL);                         /* set reload register */
 80022ee:	4a0a      	ldr	r2, [pc, #40]	; (8002318 <SysTick_Config+0x40>)
 80022f0:	687b      	ldr	r3, [r7, #4]
 80022f2:	3b01      	subs	r3, #1
 80022f4:	6053      	str	r3, [r2, #4]
  NVIC_SetPriority (SysTick_IRQn, (1UL << __NVIC_PRIO_BITS) - 1UL); /* set Priority for Systick Interrupt */
 80022f6:	210f      	movs	r1, #15
 80022f8:	f04f 30ff 	mov.w	r0, #4294967295	; 0xffffffff
 80022fc:	f7ff ff8e 	bl	800221c <__NVIC_SetPriority>
  SysTick->VAL   = 0UL;                                             /* Load the SysTick Counter Value */
 8002300:	4b05      	ldr	r3, [pc, #20]	; (8002318 <SysTick_Config+0x40>)
 8002302:	2200      	movs	r2, #0
 8002304:	609a      	str	r2, [r3, #8]
  SysTick->CTRL  = SysTick_CTRL_CLKSOURCE_Msk |
 8002306:	4b04      	ldr	r3, [pc, #16]	; (8002318 <SysTick_Config+0x40>)
 8002308:	2207      	movs	r2, #7
 800230a:	601a      	str	r2, [r3, #0]
                   SysTick_CTRL_TICKINT_Msk   |
                   SysTick_CTRL_ENABLE_Msk;                         /* Enable SysTick IRQ and SysTick Timer */
  return (0UL);                                                     /* Function successful */
 800230c:	2300      	movs	r3, #0
}
 800230e:	4618      	mov	r0, r3
 8002310:	3708      	adds	r7, #8
 8002312:	46bd      	mov	sp, r7
 8002314:	bd80      	pop	{r7, pc}
 8002316:	bf00      	nop
 8002318:	e000e010 	.word	0xe000e010

0800231c <HAL_NVIC_SetPriorityGrouping>:
  * @note   When the NVIC_PriorityGroup_0 is selected, IRQ preemption is no more possible. 
  *         The pending IRQ priority will be managed only by the subpriority. 
  * @retval None
  */
void HAL_NVIC_SetPriorityGrouping(uint32_t PriorityGroup)
{
 800231c:	b580      	push	{r7, lr}
 800231e:	b082      	sub	sp, #8
 8002320:	af00      	add	r7, sp, #0
 8002322:	6078      	str	r0, [r7, #4]
  /* Check the parameters */
  assert_param(IS_NVIC_PRIORITY_GROUP(PriorityGroup));
  
  /* Set the PRIGROUP[10:8] bits according to the PriorityGroup parameter value */
  NVIC_SetPriorityGrouping(PriorityGroup);
 8002324:	6878      	ldr	r0, [r7, #4]
 8002326:	f7ff ff29 	bl	800217c <__NVIC_SetPriorityGrouping>
}
 800232a:	bf00      	nop
 800232c:	3708      	adds	r7, #8
 800232e:	46bd      	mov	sp, r7
 8002330:	bd80      	pop	{r7, pc}

08002332 <HAL_NVIC_SetPriority>:
  *         This parameter can be a value between 0 and 15
  *         A lower priority value indicates a higher priority.          
  * @retval None
  */
void HAL_NVIC_SetPriority(IRQn_Type IRQn, uint32_t PreemptPriority, uint32_t SubPriority)
{ 
 8002332:	b580      	push	{r7, lr}
 8002334:	b086      	sub	sp, #24
 8002336:	af00      	add	r7, sp, #0
 8002338:	4603      	mov	r3, r0
 800233a:	60b9      	str	r1, [r7, #8]
 800233c:	607a      	str	r2, [r7, #4]
 800233e:	73fb      	strb	r3, [r7, #15]
  uint32_t prioritygroup = 0x00U;
 8002340:	2300      	movs	r3, #0
 8002342:	617b      	str	r3, [r7, #20]
  
  /* Check the parameters */
  assert_param(IS_NVIC_SUB_PRIORITY(SubPriority));
  assert_param(IS_NVIC_PREEMPTION_PRIORITY(PreemptPriority));
  
  prioritygroup = NVIC_GetPriorityGrouping();
 8002344:	f7ff ff3e 	bl	80021c4 <__NVIC_GetPriorityGrouping>
 8002348:	6178      	str	r0, [r7, #20]
  
  NVIC_SetPriority(IRQn, NVIC_EncodePriority(prioritygroup, PreemptPriority, SubPriority));
 800234a:	687a      	ldr	r2, [r7, #4]
 800234c:	68b9      	ldr	r1, [r7, #8]
 800234e:	6978      	ldr	r0, [r7, #20]
 8002350:	f7ff ff8e 	bl	8002270 <NVIC_EncodePriority>
 8002354:	4602      	mov	r2, r0
 8002356:	f997 300f 	ldrsb.w	r3, [r7, #15]
 800235a:	4611      	mov	r1, r2
 800235c:	4618      	mov	r0, r3
 800235e:	f7ff ff5d 	bl	800221c <__NVIC_SetPriority>
}
 8002362:	bf00      	nop
 8002364:	3718      	adds	r7, #24
 8002366:	46bd      	mov	sp, r7
 8002368:	bd80      	pop	{r7, pc}

0800236a <HAL_NVIC_EnableIRQ>:
  *         This parameter can be an enumerator of IRQn_Type enumeration
  *         (For the complete STM32 Devices IRQ Channels list, please refer to the appropriate CMSIS device file (stm32f4xxxx.h))
  * @retval None
  */
void HAL_NVIC_EnableIRQ(IRQn_Type IRQn)
{
 800236a:	b580      	push	{r7, lr}
 800236c:	b082      	sub	sp, #8
 800236e:	af00      	add	r7, sp, #0
 8002370:	4603      	mov	r3, r0
 8002372:	71fb      	strb	r3, [r7, #7]
  /* Check the parameters */
  assert_param(IS_NVIC_DEVICE_IRQ(IRQn));
  
  /* Enable interrupt */
  NVIC_EnableIRQ(IRQn);
 8002374:	f997 3007 	ldrsb.w	r3, [r7, #7]
 8002378:	4618      	mov	r0, r3
 800237a:	f7ff ff31 	bl	80021e0 <__NVIC_EnableIRQ>
}
 800237e:	bf00      	nop
 8002380:	3708      	adds	r7, #8
 8002382:	46bd      	mov	sp, r7
 8002384:	bd80      	pop	{r7, pc}

08002386 <HAL_SYSTICK_Config>:
  * @param  TicksNumb Specifies the ticks Number of ticks between two interrupts.
  * @retval status:  - 0  Function succeeded.
  *                  - 1  Function failed.
  */
uint32_t HAL_SYSTICK_Config(uint32_t TicksNumb)
{
 8002386:	b580      	push	{r7, lr}
 8002388:	b082      	sub	sp, #8
 800238a:	af00      	add	r7, sp, #0
 800238c:	6078      	str	r0, [r7, #4]
   return SysTick_Config(TicksNumb);
 800238e:	6878      	ldr	r0, [r7, #4]
 8002390:	f7ff ffa2 	bl	80022d8 <SysTick_Config>
 8002394:	4603      	mov	r3, r0
}
 8002396:	4618      	mov	r0, r3
 8002398:	3708      	adds	r7, #8
 800239a:	46bd      	mov	sp, r7
 800239c:	bd80      	pop	{r7, pc}

0800239e <HAL_DMA_Abort>:
  *        and the Stream will be effectively disabled only after the transfer of
  *        this single data is finished.  
  * @retval HAL status
  */
HAL_StatusTypeDef HAL_DMA_Abort(DMA_HandleTypeDef *hdma)
{
 800239e:	b580      	push	{r7, lr}
 80023a0:	b084      	sub	sp, #16
 80023a2:	af00      	add	r7, sp, #0
 80023a4:	6078      	str	r0, [r7, #4]
  /* calculate DMA base and stream number */
  DMA_Base_Registers *regs = (DMA_Base_Registers *)hdma->StreamBaseAddress;
 80023a6:	687b      	ldr	r3, [r7, #4]
 80023a8:	6d9b      	ldr	r3, [r3, #88]	; 0x58
 80023aa:	60fb      	str	r3, [r7, #12]
  
  uint32_t tickstart = HAL_GetTick();
 80023ac:	f7ff feda 	bl	8002164 <HAL_GetTick>
 80023b0:	60b8      	str	r0, [r7, #8]
  
  if(hdma->State != HAL_DMA_STATE_BUSY)
 80023b2:	687b      	ldr	r3, [r7, #4]
 80023b4:	f893 3035 	ldrb.w	r3, [r3, #53]	; 0x35
 80023b8:	b2db      	uxtb	r3, r3
 80023ba:	2b02      	cmp	r3, #2
 80023bc:	d008      	beq.n	80023d0 <HAL_DMA_Abort+0x32>
  {
    hdma->ErrorCode = HAL_DMA_ERROR_NO_XFER;
 80023be:	687b      	ldr	r3, [r7, #4]
 80023c0:	2280      	movs	r2, #128	; 0x80
 80023c2:	655a      	str	r2, [r3, #84]	; 0x54
    
    /* Process Unlocked */
    __HAL_UNLOCK(hdma);
 80023c4:	687b      	ldr	r3, [r7, #4]
 80023c6:	2200      	movs	r2, #0
 80023c8:	f883 2034 	strb.w	r2, [r3, #52]	; 0x34
    
    return HAL_ERROR;
 80023cc:	2301      	movs	r3, #1
 80023ce:	e052      	b.n	8002476 <HAL_DMA_Abort+0xd8>
  }
  else
  {
    /* Disable all the transfer interrupts */
    hdma->Instance->CR  &= ~(DMA_IT_TC | DMA_IT_TE | DMA_IT_DME);
 80023d0:	687b      	ldr	r3, [r7, #4]
 80023d2:	681b      	ldr	r3, [r3, #0]
 80023d4:	681a      	ldr	r2, [r3, #0]
 80023d6:	687b      	ldr	r3, [r7, #4]
 80023d8:	681b      	ldr	r3, [r3, #0]
 80023da:	f022 0216 	bic.w	r2, r2, #22
 80023de:	601a      	str	r2, [r3, #0]
    hdma->Instance->FCR &= ~(DMA_IT_FE);
 80023e0:	687b      	ldr	r3, [r7, #4]
 80023e2:	681b      	ldr	r3, [r3, #0]
 80023e4:	695a      	ldr	r2, [r3, #20]
 80023e6:	687b      	ldr	r3, [r7, #4]
 80023e8:	681b      	ldr	r3, [r3, #0]
 80023ea:	f022 0280 	bic.w	r2, r2, #128	; 0x80
 80023ee:	615a      	str	r2, [r3, #20]
    
    if((hdma->XferHalfCpltCallback != NULL) || (hdma->XferM1HalfCpltCallback != NULL))
 80023f0:	687b      	ldr	r3, [r7, #4]
 80023f2:	6c1b      	ldr	r3, [r3, #64]	; 0x40
 80023f4:	2b00      	cmp	r3, #0
 80023f6:	d103      	bne.n	8002400 <HAL_DMA_Abort+0x62>
 80023f8:	687b      	ldr	r3, [r7, #4]
 80023fa:	6c9b      	ldr	r3, [r3, #72]	; 0x48
 80023fc:	2b00      	cmp	r3, #0
 80023fe:	d007      	beq.n	8002410 <HAL_DMA_Abort+0x72>
    {
      hdma->Instance->CR  &= ~(DMA_IT_HT);
 8002400:	687b      	ldr	r3, [r7, #4]
 8002402:	681b      	ldr	r3, [r3, #0]
 8002404:	681a      	ldr	r2, [r3, #0]
 8002406:	687b      	ldr	r3, [r7, #4]
 8002408:	681b      	ldr	r3, [r3, #0]
 800240a:	f022 0208 	bic.w	r2, r2, #8
 800240e:	601a      	str	r2, [r3, #0]
    }
    
    /* Disable the stream */
    __HAL_DMA_DISABLE(hdma);
 8002410:	687b      	ldr	r3, [r7, #4]
 8002412:	681b      	ldr	r3, [r3, #0]
 8002414:	681a      	ldr	r2, [r3, #0]
 8002416:	687b      	ldr	r3, [r7, #4]
 8002418:	681b      	ldr	r3, [r3, #0]
 800241a:	f022 0201 	bic.w	r2, r2, #1
 800241e:	601a      	str	r2, [r3, #0]
    
    /* Check if the DMA Stream is effectively disabled */
    while((hdma->Instance->CR & DMA_SxCR_EN) != RESET)
 8002420:	e013      	b.n	800244a <HAL_DMA_Abort+0xac>
    {
      /* Check for the Timeout */
      if((HAL_GetTick() - tickstart ) > HAL_TIMEOUT_DMA_ABORT)
 8002422:	f7ff fe9f 	bl	8002164 <HAL_GetTick>
 8002426:	4602      	mov	r2, r0
 8002428:	68bb      	ldr	r3, [r7, #8]
 800242a:	1ad3      	subs	r3, r2, r3
 800242c:	2b05      	cmp	r3, #5
 800242e:	d90c      	bls.n	800244a <HAL_DMA_Abort+0xac>
      {
        /* Update error code */
        hdma->ErrorCode = HAL_DMA_ERROR_TIMEOUT;
 8002430:	687b      	ldr	r3, [r7, #4]
 8002432:	2220      	movs	r2, #32
 8002434:	655a      	str	r2, [r3, #84]	; 0x54
        
        /* Change the DMA state */
        hdma->State = HAL_DMA_STATE_TIMEOUT;
 8002436:	687b      	ldr	r3, [r7, #4]
 8002438:	2203      	movs	r2, #3
 800243a:	f883 2035 	strb.w	r2, [r3, #53]	; 0x35
        
        /* Process Unlocked */
        __HAL_UNLOCK(hdma);
 800243e:	687b      	ldr	r3, [r7, #4]
 8002440:	2200      	movs	r2, #0
 8002442:	f883 2034 	strb.w	r2, [r3, #52]	; 0x34
        
        return HAL_TIMEOUT;
 8002446:	2303      	movs	r3, #3
 8002448:	e015      	b.n	8002476 <HAL_DMA_Abort+0xd8>
    while((hdma->Instance->CR & DMA_SxCR_EN) != RESET)
 800244a:	687b      	ldr	r3, [r7, #4]
 800244c:	681b      	ldr	r3, [r3, #0]
 800244e:	681b      	ldr	r3, [r3, #0]
 8002450:	f003 0301 	and.w	r3, r3, #1
 8002454:	2b00      	cmp	r3, #0
 8002456:	d1e4      	bne.n	8002422 <HAL_DMA_Abort+0x84>
      }
    }
    
    /* Clear all interrupt flags at correct offset within the register */
    regs->IFCR = 0x3FU << hdma->StreamIndex;
 8002458:	687b      	ldr	r3, [r7, #4]
 800245a:	6ddb      	ldr	r3, [r3, #92]	; 0x5c
 800245c:	223f      	movs	r2, #63	; 0x3f
 800245e:	409a      	lsls	r2, r3
 8002460:	68fb      	ldr	r3, [r7, #12]
 8002462:	609a      	str	r2, [r3, #8]
    
    /* Change the DMA state*/
    hdma->State = HAL_DMA_STATE_READY;
 8002464:	687b      	ldr	r3, [r7, #4]
 8002466:	2201      	movs	r2, #1
 8002468:	f883 2035 	strb.w	r2, [r3, #53]	; 0x35
    
    /* Process Unlocked */
    __HAL_UNLOCK(hdma);
 800246c:	687b      	ldr	r3, [r7, #4]
 800246e:	2200      	movs	r2, #0
 8002470:	f883 2034 	strb.w	r2, [r3, #52]	; 0x34
  }
  return HAL_OK;
 8002474:	2300      	movs	r3, #0
}
 8002476:	4618      	mov	r0, r3
 8002478:	3710      	adds	r7, #16
 800247a:	46bd      	mov	sp, r7
 800247c:	bd80      	pop	{r7, pc}

0800247e <HAL_DMA_Abort_IT>:
  * @param  hdma   pointer to a DMA_HandleTypeDef structure that contains
  *                 the configuration information for the specified DMA Stream.
  * @retval HAL status
  */
HAL_StatusTypeDef HAL_DMA_Abort_IT(DMA_HandleTypeDef *hdma)
{
 800247e:	b480      	push	{r7}
 8002480:	b083      	sub	sp, #12
 8002482:	af00      	add	r7, sp, #0
 8002484:	6078      	str	r0, [r7, #4]
  if(hdma->State != HAL_DMA_STATE_BUSY)
 8002486:	687b      	ldr	r3, [r7, #4]
 8002488:	f893 3035 	ldrb.w	r3, [r3, #53]	; 0x35
 800248c:	b2db      	uxtb	r3, r3
 800248e:	2b02      	cmp	r3, #2
 8002490:	d004      	beq.n	800249c <HAL_DMA_Abort_IT+0x1e>
  {
    hdma->ErrorCode = HAL_DMA_ERROR_NO_XFER;
 8002492:	687b      	ldr	r3, [r7, #4]
 8002494:	2280      	movs	r2, #128	; 0x80
 8002496:	655a      	str	r2, [r3, #84]	; 0x54
    return HAL_ERROR;
 8002498:	2301      	movs	r3, #1
 800249a:	e00c      	b.n	80024b6 <HAL_DMA_Abort_IT+0x38>
  }
  else
  {
    /* Set Abort State  */
    hdma->State = HAL_DMA_STATE_ABORT;
 800249c:	687b      	ldr	r3, [r7, #4]
 800249e:	2205      	movs	r2, #5
 80024a0:	f883 2035 	strb.w	r2, [r3, #53]	; 0x35
    
    /* Disable the stream */
    __HAL_DMA_DISABLE(hdma);
 80024a4:	687b      	ldr	r3, [r7, #4]
 80024a6:	681b      	ldr	r3, [r3, #0]
 80024a8:	681a      	ldr	r2, [r3, #0]
 80024aa:	687b      	ldr	r3, [r7, #4]
 80024ac:	681b      	ldr	r3, [r3, #0]
 80024ae:	f022 0201 	bic.w	r2, r2, #1
 80024b2:	601a      	str	r2, [r3, #0]
  }

  return HAL_OK;
 80024b4:	2300      	movs	r3, #0
}
 80024b6:	4618      	mov	r0, r3
 80024b8:	370c      	adds	r7, #12
 80024ba:	46bd      	mov	sp, r7
 80024bc:	f85d 7b04 	ldr.w	r7, [sp], #4
 80024c0:	4770      	bx	lr
	...

080024c4 <HAL_GPIO_Init>:
  * @param  GPIO_Init pointer to a GPIO_InitTypeDef structure that contains
  *         the configuration information for the specified GPIO peripheral.
  * @retval None
  */
void HAL_GPIO_Init(GPIO_TypeDef  *GPIOx, GPIO_InitTypeDef *GPIO_Init)
{
 80024c4:	b480      	push	{r7}
 80024c6:	b089      	sub	sp, #36	; 0x24
 80024c8:	af00      	add	r7, sp, #0
 80024ca:	6078      	str	r0, [r7, #4]
 80024cc:	6039      	str	r1, [r7, #0]
  uint32_t position;
  uint32_t ioposition = 0x00U;
 80024ce:	2300      	movs	r3, #0
 80024d0:	617b      	str	r3, [r7, #20]
  uint32_t iocurrent = 0x00U;
 80024d2:	2300      	movs	r3, #0
 80024d4:	613b      	str	r3, [r7, #16]
  uint32_t temp = 0x00U;
 80024d6:	2300      	movs	r3, #0
 80024d8:	61bb      	str	r3, [r7, #24]
  assert_param(IS_GPIO_ALL_INSTANCE(GPIOx));
  assert_param(IS_GPIO_PIN(GPIO_Init->Pin));
  assert_param(IS_GPIO_MODE(GPIO_Init->Mode));

  /* Configure the port pins */
  for(position = 0U; position < GPIO_NUMBER; position++)
 80024da:	2300      	movs	r3, #0
 80024dc:	61fb      	str	r3, [r7, #28]
 80024de:	e177      	b.n	80027d0 <HAL_GPIO_Init+0x30c>
  {
    /* Get the IO position */
    ioposition = 0x01U << position;
 80024e0:	2201      	movs	r2, #1
 80024e2:	69fb      	ldr	r3, [r7, #28]
 80024e4:	fa02 f303 	lsl.w	r3, r2, r3
 80024e8:	617b      	str	r3, [r7, #20]
    /* Get the current IO position */
    iocurrent = (uint32_t)(GPIO_Init->Pin) & ioposition;
 80024ea:	683b      	ldr	r3, [r7, #0]
 80024ec:	681b      	ldr	r3, [r3, #0]
 80024ee:	697a      	ldr	r2, [r7, #20]
 80024f0:	4013      	ands	r3, r2
 80024f2:	613b      	str	r3, [r7, #16]

    if(iocurrent == ioposition)
 80024f4:	693a      	ldr	r2, [r7, #16]
 80024f6:	697b      	ldr	r3, [r7, #20]
 80024f8:	429a      	cmp	r2, r3
 80024fa:	f040 8166 	bne.w	80027ca <HAL_GPIO_Init+0x306>
    {
      /*--------------------- GPIO Mode Configuration ------------------------*/
      /* In case of Output or Alternate function mode selection */
      if(((GPIO_Init->Mode & GPIO_MODE) == MODE_OUTPUT) || \
 80024fe:	683b      	ldr	r3, [r7, #0]
 8002500:	685b      	ldr	r3, [r3, #4]
 8002502:	f003 0303 	and.w	r3, r3, #3
 8002506:	2b01      	cmp	r3, #1
 8002508:	d005      	beq.n	8002516 <HAL_GPIO_Init+0x52>
          (GPIO_Init->Mode & GPIO_MODE) == MODE_AF)
 800250a:	683b      	ldr	r3, [r7, #0]
 800250c:	685b      	ldr	r3, [r3, #4]
 800250e:	f003 0303 	and.w	r3, r3, #3
      if(((GPIO_Init->Mode & GPIO_MODE) == MODE_OUTPUT) || \
 8002512:	2b02      	cmp	r3, #2
 8002514:	d130      	bne.n	8002578 <HAL_GPIO_Init+0xb4>
      {
        /* Check the Speed parameter */
        assert_param(IS_GPIO_SPEED(GPIO_Init->Speed));
        /* Configure the IO Speed */
        temp = GPIOx->OSPEEDR; 
 8002516:	687b      	ldr	r3, [r7, #4]
 8002518:	689b      	ldr	r3, [r3, #8]
 800251a:	61bb      	str	r3, [r7, #24]
        temp &= ~(GPIO_OSPEEDER_OSPEEDR0 << (position * 2U));
 800251c:	69fb      	ldr	r3, [r7, #28]
 800251e:	005b      	lsls	r3, r3, #1
 8002520:	2203      	movs	r2, #3
 8002522:	fa02 f303 	lsl.w	r3, r2, r3
 8002526:	43db      	mvns	r3, r3
 8002528:	69ba      	ldr	r2, [r7, #24]
 800252a:	4013      	ands	r3, r2
 800252c:	61bb      	str	r3, [r7, #24]
        temp |= (GPIO_Init->Speed << (position * 2U));
 800252e:	683b      	ldr	r3, [r7, #0]
 8002530:	68da      	ldr	r2, [r3, #12]
 8002532:	69fb      	ldr	r3, [r7, #28]
 8002534:	005b      	lsls	r3, r3, #1
 8002536:	fa02 f303 	lsl.w	r3, r2, r3
 800253a:	69ba      	ldr	r2, [r7, #24]
 800253c:	4313      	orrs	r3, r2
 800253e:	61bb      	str	r3, [r7, #24]
        GPIOx->OSPEEDR = temp;
 8002540:	687b      	ldr	r3, [r7, #4]
 8002542:	69ba      	ldr	r2, [r7, #24]
 8002544:	609a      	str	r2, [r3, #8]

        /* Configure the IO Output Type */
        temp = GPIOx->OTYPER;
 8002546:	687b      	ldr	r3, [r7, #4]
 8002548:	685b      	ldr	r3, [r3, #4]
 800254a:	61bb      	str	r3, [r7, #24]
        temp &= ~(GPIO_OTYPER_OT_0 << position) ;
 800254c:	2201      	movs	r2, #1
 800254e:	69fb      	ldr	r3, [r7, #28]
 8002550:	fa02 f303 	lsl.w	r3, r2, r3
 8002554:	43db      	mvns	r3, r3
 8002556:	69ba      	ldr	r2, [r7, #24]
 8002558:	4013      	ands	r3, r2
 800255a:	61bb      	str	r3, [r7, #24]
        temp |= (((GPIO_Init->Mode & OUTPUT_TYPE) >> OUTPUT_TYPE_Pos) << position);
 800255c:	683b      	ldr	r3, [r7, #0]
 800255e:	685b      	ldr	r3, [r3, #4]
 8002560:	091b      	lsrs	r3, r3, #4
 8002562:	f003 0201 	and.w	r2, r3, #1
 8002566:	69fb      	ldr	r3, [r7, #28]
 8002568:	fa02 f303 	lsl.w	r3, r2, r3
 800256c:	69ba      	ldr	r2, [r7, #24]
 800256e:	4313      	orrs	r3, r2
 8002570:	61bb      	str	r3, [r7, #24]
        GPIOx->OTYPER = temp;
 8002572:	687b      	ldr	r3, [r7, #4]
 8002574:	69ba      	ldr	r2, [r7, #24]
 8002576:	605a      	str	r2, [r3, #4]
       }

      if((GPIO_Init->Mode & GPIO_MODE) != MODE_ANALOG)
 8002578:	683b      	ldr	r3, [r7, #0]
 800257a:	685b      	ldr	r3, [r3, #4]
 800257c:	f003 0303 	and.w	r3, r3, #3
 8002580:	2b03      	cmp	r3, #3
 8002582:	d017      	beq.n	80025b4 <HAL_GPIO_Init+0xf0>
      {
        /* Check the parameters */
        assert_param(IS_GPIO_PULL(GPIO_Init->Pull));
        
        /* Activate the Pull-up or Pull down resistor for the current IO */
        temp = GPIOx->PUPDR;
 8002584:	687b      	ldr	r3, [r7, #4]
 8002586:	68db      	ldr	r3, [r3, #12]
 8002588:	61bb      	str	r3, [r7, #24]
        temp &= ~(GPIO_PUPDR_PUPDR0 << (position * 2U));
 800258a:	69fb      	ldr	r3, [r7, #28]
 800258c:	005b      	lsls	r3, r3, #1
 800258e:	2203      	movs	r2, #3
 8002590:	fa02 f303 	lsl.w	r3, r2, r3
 8002594:	43db      	mvns	r3, r3
 8002596:	69ba      	ldr	r2, [r7, #24]
 8002598:	4013      	ands	r3, r2
 800259a:	61bb      	str	r3, [r7, #24]
        temp |= ((GPIO_Init->Pull) << (position * 2U));
 800259c:	683b      	ldr	r3, [r7, #0]
 800259e:	689a      	ldr	r2, [r3, #8]
 80025a0:	69fb      	ldr	r3, [r7, #28]
 80025a2:	005b      	lsls	r3, r3, #1
 80025a4:	fa02 f303 	lsl.w	r3, r2, r3
 80025a8:	69ba      	ldr	r2, [r7, #24]
 80025aa:	4313      	orrs	r3, r2
 80025ac:	61bb      	str	r3, [r7, #24]
        GPIOx->PUPDR = temp;
 80025ae:	687b      	ldr	r3, [r7, #4]
 80025b0:	69ba      	ldr	r2, [r7, #24]
 80025b2:	60da      	str	r2, [r3, #12]
      }

      /* In case of Alternate function mode selection */
      if((GPIO_Init->Mode & GPIO_MODE) == MODE_AF)
 80025b4:	683b      	ldr	r3, [r7, #0]
 80025b6:	685b      	ldr	r3, [r3, #4]
 80025b8:	f003 0303 	and.w	r3, r3, #3
 80025bc:	2b02      	cmp	r3, #2
 80025be:	d123      	bne.n	8002608 <HAL_GPIO_Init+0x144>
      {
        /* Check the Alternate function parameter */
        assert_param(IS_GPIO_AF(GPIO_Init->Alternate));
        /* Configure Alternate function mapped with the current IO */
        temp = GPIOx->AFR[position >> 3U];
 80025c0:	69fb      	ldr	r3, [r7, #28]
 80025c2:	08da      	lsrs	r2, r3, #3
 80025c4:	687b      	ldr	r3, [r7, #4]
 80025c6:	3208      	adds	r2, #8
 80025c8:	f853 3022 	ldr.w	r3, [r3, r2, lsl #2]
 80025cc:	61bb      	str	r3, [r7, #24]
        temp &= ~(0xFU << ((uint32_t)(position & 0x07U) * 4U)) ;
 80025ce:	69fb      	ldr	r3, [r7, #28]
 80025d0:	f003 0307 	and.w	r3, r3, #7
 80025d4:	009b      	lsls	r3, r3, #2
 80025d6:	220f      	movs	r2, #15
 80025d8:	fa02 f303 	lsl.w	r3, r2, r3
 80025dc:	43db      	mvns	r3, r3
 80025de:	69ba      	ldr	r2, [r7, #24]
 80025e0:	4013      	ands	r3, r2
 80025e2:	61bb      	str	r3, [r7, #24]
        temp |= ((uint32_t)(GPIO_Init->Alternate) << (((uint32_t)position & 0x07U) * 4U));
 80025e4:	683b      	ldr	r3, [r7, #0]
 80025e6:	691a      	ldr	r2, [r3, #16]
 80025e8:	69fb      	ldr	r3, [r7, #28]
 80025ea:	f003 0307 	and.w	r3, r3, #7
 80025ee:	009b      	lsls	r3, r3, #2
 80025f0:	fa02 f303 	lsl.w	r3, r2, r3
 80025f4:	69ba      	ldr	r2, [r7, #24]
 80025f6:	4313      	orrs	r3, r2
 80025f8:	61bb      	str	r3, [r7, #24]
        GPIOx->AFR[position >> 3U] = temp;
 80025fa:	69fb      	ldr	r3, [r7, #28]
 80025fc:	08da      	lsrs	r2, r3, #3
 80025fe:	687b      	ldr	r3, [r7, #4]
 8002600:	3208      	adds	r2, #8
 8002602:	69b9      	ldr	r1, [r7, #24]
 8002604:	f843 1022 	str.w	r1, [r3, r2, lsl #2]
      }

      /* Configure IO Direction mode (Input, Output, Alternate or Analog) */
      temp = GPIOx->MODER;
 8002608:	687b      	ldr	r3, [r7, #4]
 800260a:	681b      	ldr	r3, [r3, #0]
 800260c:	61bb      	str	r3, [r7, #24]
      temp &= ~(GPIO_MODER_MODER0 << (position * 2U));
 800260e:	69fb      	ldr	r3, [r7, #28]
 8002610:	005b      	lsls	r3, r3, #1
 8002612:	2203      	movs	r2, #3
 8002614:	fa02 f303 	lsl.w	r3, r2, r3
 8002618:	43db      	mvns	r3, r3
 800261a:	69ba      	ldr	r2, [r7, #24]
 800261c:	4013      	ands	r3, r2
 800261e:	61bb      	str	r3, [r7, #24]
      temp |= ((GPIO_Init->Mode & GPIO_MODE) << (position * 2U));
 8002620:	683b      	ldr	r3, [r7, #0]
 8002622:	685b      	ldr	r3, [r3, #4]
 8002624:	f003 0203 	and.w	r2, r3, #3
 8002628:	69fb      	ldr	r3, [r7, #28]
 800262a:	005b      	lsls	r3, r3, #1
 800262c:	fa02 f303 	lsl.w	r3, r2, r3
 8002630:	69ba      	ldr	r2, [r7, #24]
 8002632:	4313      	orrs	r3, r2
 8002634:	61bb      	str	r3, [r7, #24]
      GPIOx->MODER = temp;
 8002636:	687b      	ldr	r3, [r7, #4]
 8002638:	69ba      	ldr	r2, [r7, #24]
 800263a:	601a      	str	r2, [r3, #0]

      /*--------------------- EXTI Mode Configuration ------------------------*/
      /* Configure the External Interrupt or event for the current IO */
      if((GPIO_Init->Mode & EXTI_MODE) != 0x00U)
 800263c:	683b      	ldr	r3, [r7, #0]
 800263e:	685b      	ldr	r3, [r3, #4]
 8002640:	f403 3340 	and.w	r3, r3, #196608	; 0x30000
 8002644:	2b00      	cmp	r3, #0
 8002646:	f000 80c0 	beq.w	80027ca <HAL_GPIO_Init+0x306>
      {
        /* Enable SYSCFG Clock */
        __HAL_RCC_SYSCFG_CLK_ENABLE();
 800264a:	2300      	movs	r3, #0
 800264c:	60fb      	str	r3, [r7, #12]
 800264e:	4b66      	ldr	r3, [pc, #408]	; (80027e8 <HAL_GPIO_Init+0x324>)
 8002650:	6c5b      	ldr	r3, [r3, #68]	; 0x44
 8002652:	4a65      	ldr	r2, [pc, #404]	; (80027e8 <HAL_GPIO_Init+0x324>)
 8002654:	f443 4380 	orr.w	r3, r3, #16384	; 0x4000
 8002658:	6453      	str	r3, [r2, #68]	; 0x44
 800265a:	4b63      	ldr	r3, [pc, #396]	; (80027e8 <HAL_GPIO_Init+0x324>)
 800265c:	6c5b      	ldr	r3, [r3, #68]	; 0x44
 800265e:	f403 4380 	and.w	r3, r3, #16384	; 0x4000
 8002662:	60fb      	str	r3, [r7, #12]
 8002664:	68fb      	ldr	r3, [r7, #12]

        temp = SYSCFG->EXTICR[position >> 2U];
 8002666:	4a61      	ldr	r2, [pc, #388]	; (80027ec <HAL_GPIO_Init+0x328>)
 8002668:	69fb      	ldr	r3, [r7, #28]
 800266a:	089b      	lsrs	r3, r3, #2
 800266c:	3302      	adds	r3, #2
 800266e:	f852 3023 	ldr.w	r3, [r2, r3, lsl #2]
 8002672:	61bb      	str	r3, [r7, #24]
        temp &= ~(0x0FU << (4U * (position & 0x03U)));
 8002674:	69fb      	ldr	r3, [r7, #28]
 8002676:	f003 0303 	and.w	r3, r3, #3
 800267a:	009b      	lsls	r3, r3, #2
 800267c:	220f      	movs	r2, #15
 800267e:	fa02 f303 	lsl.w	r3, r2, r3
 8002682:	43db      	mvns	r3, r3
 8002684:	69ba      	ldr	r2, [r7, #24]
 8002686:	4013      	ands	r3, r2
 8002688:	61bb      	str	r3, [r7, #24]
        temp |= ((uint32_t)(GPIO_GET_INDEX(GPIOx)) << (4U * (position & 0x03U)));
 800268a:	687b      	ldr	r3, [r7, #4]
 800268c:	4a58      	ldr	r2, [pc, #352]	; (80027f0 <HAL_GPIO_Init+0x32c>)
 800268e:	4293      	cmp	r3, r2
 8002690:	d037      	beq.n	8002702 <HAL_GPIO_Init+0x23e>
 8002692:	687b      	ldr	r3, [r7, #4]
 8002694:	4a57      	ldr	r2, [pc, #348]	; (80027f4 <HAL_GPIO_Init+0x330>)
 8002696:	4293      	cmp	r3, r2
 8002698:	d031      	beq.n	80026fe <HAL_GPIO_Init+0x23a>
 800269a:	687b      	ldr	r3, [r7, #4]
 800269c:	4a56      	ldr	r2, [pc, #344]	; (80027f8 <HAL_GPIO_Init+0x334>)
 800269e:	4293      	cmp	r3, r2
 80026a0:	d02b      	beq.n	80026fa <HAL_GPIO_Init+0x236>
 80026a2:	687b      	ldr	r3, [r7, #4]
 80026a4:	4a55      	ldr	r2, [pc, #340]	; (80027fc <HAL_GPIO_Init+0x338>)
 80026a6:	4293      	cmp	r3, r2
 80026a8:	d025      	beq.n	80026f6 <HAL_GPIO_Init+0x232>
 80026aa:	687b      	ldr	r3, [r7, #4]
 80026ac:	4a54      	ldr	r2, [pc, #336]	; (8002800 <HAL_GPIO_Init+0x33c>)
 80026ae:	4293      	cmp	r3, r2
 80026b0:	d01f      	beq.n	80026f2 <HAL_GPIO_Init+0x22e>
 80026b2:	687b      	ldr	r3, [r7, #4]
 80026b4:	4a53      	ldr	r2, [pc, #332]	; (8002804 <HAL_GPIO_Init+0x340>)
 80026b6:	4293      	cmp	r3, r2
 80026b8:	d019      	beq.n	80026ee <HAL_GPIO_Init+0x22a>
 80026ba:	687b      	ldr	r3, [r7, #4]
 80026bc:	4a52      	ldr	r2, [pc, #328]	; (8002808 <HAL_GPIO_Init+0x344>)
 80026be:	4293      	cmp	r3, r2
 80026c0:	d013      	beq.n	80026ea <HAL_GPIO_Init+0x226>
 80026c2:	687b      	ldr	r3, [r7, #4]
 80026c4:	4a51      	ldr	r2, [pc, #324]	; (800280c <HAL_GPIO_Init+0x348>)
 80026c6:	4293      	cmp	r3, r2
 80026c8:	d00d      	beq.n	80026e6 <HAL_GPIO_Init+0x222>
 80026ca:	687b      	ldr	r3, [r7, #4]
 80026cc:	4a50      	ldr	r2, [pc, #320]	; (8002810 <HAL_GPIO_Init+0x34c>)
 80026ce:	4293      	cmp	r3, r2
 80026d0:	d007      	beq.n	80026e2 <HAL_GPIO_Init+0x21e>
 80026d2:	687b      	ldr	r3, [r7, #4]
 80026d4:	4a4f      	ldr	r2, [pc, #316]	; (8002814 <HAL_GPIO_Init+0x350>)
 80026d6:	4293      	cmp	r3, r2
 80026d8:	d101      	bne.n	80026de <HAL_GPIO_Init+0x21a>
 80026da:	2309      	movs	r3, #9
 80026dc:	e012      	b.n	8002704 <HAL_GPIO_Init+0x240>
 80026de:	230a      	movs	r3, #10
 80026e0:	e010      	b.n	8002704 <HAL_GPIO_Init+0x240>
 80026e2:	2308      	movs	r3, #8
 80026e4:	e00e      	b.n	8002704 <HAL_GPIO_Init+0x240>
 80026e6:	2307      	movs	r3, #7
 80026e8:	e00c      	b.n	8002704 <HAL_GPIO_Init+0x240>
 80026ea:	2306      	movs	r3, #6
 80026ec:	e00a      	b.n	8002704 <HAL_GPIO_Init+0x240>
 80026ee:	2305      	movs	r3, #5
 80026f0:	e008      	b.n	8002704 <HAL_GPIO_Init+0x240>
 80026f2:	2304      	movs	r3, #4
 80026f4:	e006      	b.n	8002704 <HAL_GPIO_Init+0x240>
 80026f6:	2303      	movs	r3, #3
 80026f8:	e004      	b.n	8002704 <HAL_GPIO_Init+0x240>
 80026fa:	2302      	movs	r3, #2
 80026fc:	e002      	b.n	8002704 <HAL_GPIO_Init+0x240>
 80026fe:	2301      	movs	r3, #1
 8002700:	e000      	b.n	8002704 <HAL_GPIO_Init+0x240>
 8002702:	2300      	movs	r3, #0
 8002704:	69fa      	ldr	r2, [r7, #28]
 8002706:	f002 0203 	and.w	r2, r2, #3
 800270a:	0092      	lsls	r2, r2, #2
 800270c:	4093      	lsls	r3, r2
 800270e:	69ba      	ldr	r2, [r7, #24]
 8002710:	4313      	orrs	r3, r2
 8002712:	61bb      	str	r3, [r7, #24]
        SYSCFG->EXTICR[position >> 2U] = temp;
 8002714:	4935      	ldr	r1, [pc, #212]	; (80027ec <HAL_GPIO_Init+0x328>)
 8002716:	69fb      	ldr	r3, [r7, #28]
 8002718:	089b      	lsrs	r3, r3, #2
 800271a:	3302      	adds	r3, #2
 800271c:	69ba      	ldr	r2, [r7, #24]
 800271e:	f841 2023 	str.w	r2, [r1, r3, lsl #2]

        /* Clear Rising Falling edge configuration */
        temp = EXTI->RTSR;
 8002722:	4b3d      	ldr	r3, [pc, #244]	; (8002818 <HAL_GPIO_Init+0x354>)
 8002724:	689b      	ldr	r3, [r3, #8]
 8002726:	61bb      	str	r3, [r7, #24]
        temp &= ~((uint32_t)iocurrent);
 8002728:	693b      	ldr	r3, [r7, #16]
 800272a:	43db      	mvns	r3, r3
 800272c:	69ba      	ldr	r2, [r7, #24]
 800272e:	4013      	ands	r3, r2
 8002730:	61bb      	str	r3, [r7, #24]
        if((GPIO_Init->Mode & TRIGGER_RISING) != 0x00U)
 8002732:	683b      	ldr	r3, [r7, #0]
 8002734:	685b      	ldr	r3, [r3, #4]
 8002736:	f403 1380 	and.w	r3, r3, #1048576	; 0x100000
 800273a:	2b00      	cmp	r3, #0
 800273c:	d003      	beq.n	8002746 <HAL_GPIO_Init+0x282>
        {
          temp |= iocurrent;
 800273e:	69ba      	ldr	r2, [r7, #24]
 8002740:	693b      	ldr	r3, [r7, #16]
 8002742:	4313      	orrs	r3, r2
 8002744:	61bb      	str	r3, [r7, #24]
        }
        EXTI->RTSR = temp;
 8002746:	4a34      	ldr	r2, [pc, #208]	; (8002818 <HAL_GPIO_Init+0x354>)
 8002748:	69bb      	ldr	r3, [r7, #24]
 800274a:	6093      	str	r3, [r2, #8]

        temp = EXTI->FTSR;
 800274c:	4b32      	ldr	r3, [pc, #200]	; (8002818 <HAL_GPIO_Init+0x354>)
 800274e:	68db      	ldr	r3, [r3, #12]
 8002750:	61bb      	str	r3, [r7, #24]
        temp &= ~((uint32_t)iocurrent);
 8002752:	693b      	ldr	r3, [r7, #16]
 8002754:	43db      	mvns	r3, r3
 8002756:	69ba      	ldr	r2, [r7, #24]
 8002758:	4013      	ands	r3, r2
 800275a:	61bb      	str	r3, [r7, #24]
        if((GPIO_Init->Mode & TRIGGER_FALLING) != 0x00U)
 800275c:	683b      	ldr	r3, [r7, #0]
 800275e:	685b      	ldr	r3, [r3, #4]
 8002760:	f403 1300 	and.w	r3, r3, #2097152	; 0x200000
 8002764:	2b00      	cmp	r3, #0
 8002766:	d003      	beq.n	8002770 <HAL_GPIO_Init+0x2ac>
        {
          temp |= iocurrent;
 8002768:	69ba      	ldr	r2, [r7, #24]
 800276a:	693b      	ldr	r3, [r7, #16]
 800276c:	4313      	orrs	r3, r2
 800276e:	61bb      	str	r3, [r7, #24]
        }
        EXTI->FTSR = temp;
 8002770:	4a29      	ldr	r2, [pc, #164]	; (8002818 <HAL_GPIO_Init+0x354>)
 8002772:	69bb      	ldr	r3, [r7, #24]
 8002774:	60d3      	str	r3, [r2, #12]

        temp = EXTI->EMR;
 8002776:	4b28      	ldr	r3, [pc, #160]	; (8002818 <HAL_GPIO_Init+0x354>)
 8002778:	685b      	ldr	r3, [r3, #4]
 800277a:	61bb      	str	r3, [r7, #24]
        temp &= ~((uint32_t)iocurrent);
 800277c:	693b      	ldr	r3, [r7, #16]
 800277e:	43db      	mvns	r3, r3
 8002780:	69ba      	ldr	r2, [r7, #24]
 8002782:	4013      	ands	r3, r2
 8002784:	61bb      	str	r3, [r7, #24]
        if((GPIO_Init->Mode & EXTI_EVT) != 0x00U)
 8002786:	683b      	ldr	r3, [r7, #0]
 8002788:	685b      	ldr	r3, [r3, #4]
 800278a:	f403 3300 	and.w	r3, r3, #131072	; 0x20000
 800278e:	2b00      	cmp	r3, #0
 8002790:	d003      	beq.n	800279a <HAL_GPIO_Init+0x2d6>
        {
          temp |= iocurrent;
 8002792:	69ba      	ldr	r2, [r7, #24]
 8002794:	693b      	ldr	r3, [r7, #16]
 8002796:	4313      	orrs	r3, r2
 8002798:	61bb      	str	r3, [r7, #24]
        }
        EXTI->EMR = temp;
 800279a:	4a1f      	ldr	r2, [pc, #124]	; (8002818 <HAL_GPIO_Init+0x354>)
 800279c:	69bb      	ldr	r3, [r7, #24]
 800279e:	6053      	str	r3, [r2, #4]

        /* Clear EXTI line configuration */
        temp = EXTI->IMR;
 80027a0:	4b1d      	ldr	r3, [pc, #116]	; (8002818 <HAL_GPIO_Init+0x354>)
 80027a2:	681b      	ldr	r3, [r3, #0]
 80027a4:	61bb      	str	r3, [r7, #24]
        temp &= ~((uint32_t)iocurrent);
 80027a6:	693b      	ldr	r3, [r7, #16]
 80027a8:	43db      	mvns	r3, r3
 80027aa:	69ba      	ldr	r2, [r7, #24]
 80027ac:	4013      	ands	r3, r2
 80027ae:	61bb      	str	r3, [r7, #24]
        if((GPIO_Init->Mode & EXTI_IT) != 0x00U)
 80027b0:	683b      	ldr	r3, [r7, #0]
 80027b2:	685b      	ldr	r3, [r3, #4]
 80027b4:	f403 3380 	and.w	r3, r3, #65536	; 0x10000
 80027b8:	2b00      	cmp	r3, #0
 80027ba:	d003      	beq.n	80027c4 <HAL_GPIO_Init+0x300>
        {
          temp |= iocurrent;
 80027bc:	69ba      	ldr	r2, [r7, #24]
 80027be:	693b      	ldr	r3, [r7, #16]
 80027c0:	4313      	orrs	r3, r2
 80027c2:	61bb      	str	r3, [r7, #24]
        }
        EXTI->IMR = temp;
 80027c4:	4a14      	ldr	r2, [pc, #80]	; (8002818 <HAL_GPIO_Init+0x354>)
 80027c6:	69bb      	ldr	r3, [r7, #24]
 80027c8:	6013      	str	r3, [r2, #0]
  for(position = 0U; position < GPIO_NUMBER; position++)
 80027ca:	69fb      	ldr	r3, [r7, #28]
 80027cc:	3301      	adds	r3, #1
 80027ce:	61fb      	str	r3, [r7, #28]
 80027d0:	69fb      	ldr	r3, [r7, #28]
 80027d2:	2b0f      	cmp	r3, #15
 80027d4:	f67f ae84 	bls.w	80024e0 <HAL_GPIO_Init+0x1c>
      }
    }
  }
}
 80027d8:	bf00      	nop
 80027da:	bf00      	nop
 80027dc:	3724      	adds	r7, #36	; 0x24
 80027de:	46bd      	mov	sp, r7
 80027e0:	f85d 7b04 	ldr.w	r7, [sp], #4
 80027e4:	4770      	bx	lr
 80027e6:	bf00      	nop
 80027e8:	40023800 	.word	0x40023800
 80027ec:	40013800 	.word	0x40013800
 80027f0:	40020000 	.word	0x40020000
 80027f4:	40020400 	.word	0x40020400
 80027f8:	40020800 	.word	0x40020800
 80027fc:	40020c00 	.word	0x40020c00
 8002800:	40021000 	.word	0x40021000
 8002804:	40021400 	.word	0x40021400
 8002808:	40021800 	.word	0x40021800
 800280c:	40021c00 	.word	0x40021c00
 8002810:	40022000 	.word	0x40022000
 8002814:	40022400 	.word	0x40022400
 8002818:	40013c00 	.word	0x40013c00

0800281c <HAL_GPIO_WritePin>:
  *            @arg GPIO_PIN_RESET: to clear the port pin
  *            @arg GPIO_PIN_SET: to set the port pin
  * @retval None
  */
void HAL_GPIO_WritePin(GPIO_TypeDef* GPIOx, uint16_t GPIO_Pin, GPIO_PinState PinState)
{
 800281c:	b480      	push	{r7}
 800281e:	b083      	sub	sp, #12
 8002820:	af00      	add	r7, sp, #0
 8002822:	6078      	str	r0, [r7, #4]
 8002824:	460b      	mov	r3, r1
 8002826:	807b      	strh	r3, [r7, #2]
 8002828:	4613      	mov	r3, r2
 800282a:	707b      	strb	r3, [r7, #1]
  /* Check the parameters */
  assert_param(IS_GPIO_PIN(GPIO_Pin));
  assert_param(IS_GPIO_PIN_ACTION(PinState));

  if(PinState != GPIO_PIN_RESET)
 800282c:	787b      	ldrb	r3, [r7, #1]
 800282e:	2b00      	cmp	r3, #0
 8002830:	d003      	beq.n	800283a <HAL_GPIO_WritePin+0x1e>
  {
    GPIOx->BSRR = GPIO_Pin;
 8002832:	887a      	ldrh	r2, [r7, #2]
 8002834:	687b      	ldr	r3, [r7, #4]
 8002836:	619a      	str	r2, [r3, #24]
  }
  else
  {
    GPIOx->BSRR = (uint32_t)GPIO_Pin << 16U;
  }
}
 8002838:	e003      	b.n	8002842 <HAL_GPIO_WritePin+0x26>
    GPIOx->BSRR = (uint32_t)GPIO_Pin << 16U;
 800283a:	887b      	ldrh	r3, [r7, #2]
 800283c:	041a      	lsls	r2, r3, #16
 800283e:	687b      	ldr	r3, [r7, #4]
 8002840:	619a      	str	r2, [r3, #24]
}
 8002842:	bf00      	nop
 8002844:	370c      	adds	r7, #12
 8002846:	46bd      	mov	sp, r7
 8002848:	f85d 7b04 	ldr.w	r7, [sp], #4
 800284c:	4770      	bx	lr

0800284e <HAL_GPIO_TogglePin>:
  *                      x can be (A..I) to select the GPIO peripheral for STM32F40XX and STM32F427X devices.
  * @param  GPIO_Pin Specifies the pins to be toggled.
  * @retval None
  */
void HAL_GPIO_TogglePin(GPIO_TypeDef* GPIOx, uint16_t GPIO_Pin)
{
 800284e:	b480      	push	{r7}
 8002850:	b085      	sub	sp, #20
 8002852:	af00      	add	r7, sp, #0
 8002854:	6078      	str	r0, [r7, #4]
 8002856:	460b      	mov	r3, r1
 8002858:	807b      	strh	r3, [r7, #2]

  /* Check the parameters */
  assert_param(IS_GPIO_PIN(GPIO_Pin));

  /* get current Output Data Register value */
  odr = GPIOx->ODR;
 800285a:	687b      	ldr	r3, [r7, #4]
 800285c:	695b      	ldr	r3, [r3, #20]
 800285e:	60fb      	str	r3, [r7, #12]

  /* Set selected pins that were at low level, and reset ones that were high */
  GPIOx->BSRR = ((odr & GPIO_Pin) << GPIO_NUMBER) | (~odr & GPIO_Pin);
 8002860:	887a      	ldrh	r2, [r7, #2]
 8002862:	68fb      	ldr	r3, [r7, #12]
 8002864:	4013      	ands	r3, r2
 8002866:	041a      	lsls	r2, r3, #16
 8002868:	68fb      	ldr	r3, [r7, #12]
 800286a:	43d9      	mvns	r1, r3
 800286c:	887b      	ldrh	r3, [r7, #2]
 800286e:	400b      	ands	r3, r1
 8002870:	431a      	orrs	r2, r3
 8002872:	687b      	ldr	r3, [r7, #4]
 8002874:	619a      	str	r2, [r3, #24]
}
 8002876:	bf00      	nop
 8002878:	3714      	adds	r7, #20
 800287a:	46bd      	mov	sp, r7
 800287c:	f85d 7b04 	ldr.w	r7, [sp], #4
 8002880:	4770      	bx	lr
	...

08002884 <HAL_I2C_Init>:
  * @param  hi2c Pointer to a I2C_HandleTypeDef structure that contains
  *                the configuration information for the specified I2C.
  * @retval HAL status
  */
HAL_StatusTypeDef HAL_I2C_Init(I2C_HandleTypeDef *hi2c)
{
 8002884:	b580      	push	{r7, lr}
 8002886:	b084      	sub	sp, #16
 8002888:	af00      	add	r7, sp, #0
 800288a:	6078      	str	r0, [r7, #4]
  uint32_t freqrange;
  uint32_t pclk1;

  /* Check the I2C handle allocation */
  if (hi2c == NULL)
 800288c:	687b      	ldr	r3, [r7, #4]
 800288e:	2b00      	cmp	r3, #0
 8002890:	d101      	bne.n	8002896 <HAL_I2C_Init+0x12>
  {
    return HAL_ERROR;
 8002892:	2301      	movs	r3, #1
 8002894:	e12b      	b.n	8002aee <HAL_I2C_Init+0x26a>
  assert_param(IS_I2C_DUAL_ADDRESS(hi2c->Init.DualAddressMode));
  assert_param(IS_I2C_OWN_ADDRESS2(hi2c->Init.OwnAddress2));
  assert_param(IS_I2C_GENERAL_CALL(hi2c->Init.GeneralCallMode));
  assert_param(IS_I2C_NO_STRETCH(hi2c->Init.NoStretchMode));

  if (hi2c->State == HAL_I2C_STATE_RESET)
 8002896:	687b      	ldr	r3, [r7, #4]
 8002898:	f893 303d 	ldrb.w	r3, [r3, #61]	; 0x3d
 800289c:	b2db      	uxtb	r3, r3
 800289e:	2b00      	cmp	r3, #0
 80028a0:	d106      	bne.n	80028b0 <HAL_I2C_Init+0x2c>
  {
    /* Allocate lock resource and initialize it */
    hi2c->Lock = HAL_UNLOCKED;
 80028a2:	687b      	ldr	r3, [r7, #4]
 80028a4:	2200      	movs	r2, #0
 80028a6:	f883 203c 	strb.w	r2, [r3, #60]	; 0x3c

    /* Init the low level hardware : GPIO, CLOCK, NVIC */
    hi2c->MspInitCallback(hi2c);
#else
    /* Init the low level hardware : GPIO, CLOCK, NVIC */
    HAL_I2C_MspInit(hi2c);
 80028aa:	6878      	ldr	r0, [r7, #4]
 80028ac:	f7ff f906 	bl	8001abc <HAL_I2C_MspInit>
#endif /* USE_HAL_I2C_REGISTER_CALLBACKS */
  }

  hi2c->State = HAL_I2C_STATE_BUSY;
 80028b0:	687b      	ldr	r3, [r7, #4]
 80028b2:	2224      	movs	r2, #36	; 0x24
 80028b4:	f883 203d 	strb.w	r2, [r3, #61]	; 0x3d

  /* Disable the selected I2C peripheral */
  __HAL_I2C_DISABLE(hi2c);
 80028b8:	687b      	ldr	r3, [r7, #4]
 80028ba:	681b      	ldr	r3, [r3, #0]
 80028bc:	681a      	ldr	r2, [r3, #0]
 80028be:	687b      	ldr	r3, [r7, #4]
 80028c0:	681b      	ldr	r3, [r3, #0]
 80028c2:	f022 0201 	bic.w	r2, r2, #1
 80028c6:	601a      	str	r2, [r3, #0]

  /*Reset I2C*/
  hi2c->Instance->CR1 |= I2C_CR1_SWRST;
 80028c8:	687b      	ldr	r3, [r7, #4]
 80028ca:	681b      	ldr	r3, [r3, #0]
 80028cc:	681a      	ldr	r2, [r3, #0]
 80028ce:	687b      	ldr	r3, [r7, #4]
 80028d0:	681b      	ldr	r3, [r3, #0]
 80028d2:	f442 4200 	orr.w	r2, r2, #32768	; 0x8000
 80028d6:	601a      	str	r2, [r3, #0]
  hi2c->Instance->CR1 &= ~I2C_CR1_SWRST;
 80028d8:	687b      	ldr	r3, [r7, #4]
 80028da:	681b      	ldr	r3, [r3, #0]
 80028dc:	681a      	ldr	r2, [r3, #0]
 80028de:	687b      	ldr	r3, [r7, #4]
 80028e0:	681b      	ldr	r3, [r3, #0]
 80028e2:	f422 4200 	bic.w	r2, r2, #32768	; 0x8000
 80028e6:	601a      	str	r2, [r3, #0]

  /* Get PCLK1 frequency */
  pclk1 = HAL_RCC_GetPCLK1Freq();
 80028e8:	f001 fc72 	bl	80041d0 <HAL_RCC_GetPCLK1Freq>
 80028ec:	60f8      	str	r0, [r7, #12]

  /* Check the minimum allowed PCLK1 frequency */
  if (I2C_MIN_PCLK_FREQ(pclk1, hi2c->Init.ClockSpeed) == 1U)
 80028ee:	687b      	ldr	r3, [r7, #4]
 80028f0:	685b      	ldr	r3, [r3, #4]
 80028f2:	4a81      	ldr	r2, [pc, #516]	; (8002af8 <HAL_I2C_Init+0x274>)
 80028f4:	4293      	cmp	r3, r2
 80028f6:	d807      	bhi.n	8002908 <HAL_I2C_Init+0x84>
 80028f8:	68fb      	ldr	r3, [r7, #12]
 80028fa:	4a80      	ldr	r2, [pc, #512]	; (8002afc <HAL_I2C_Init+0x278>)
 80028fc:	4293      	cmp	r3, r2
 80028fe:	bf94      	ite	ls
 8002900:	2301      	movls	r3, #1
 8002902:	2300      	movhi	r3, #0
 8002904:	b2db      	uxtb	r3, r3
 8002906:	e006      	b.n	8002916 <HAL_I2C_Init+0x92>
 8002908:	68fb      	ldr	r3, [r7, #12]
 800290a:	4a7d      	ldr	r2, [pc, #500]	; (8002b00 <HAL_I2C_Init+0x27c>)
 800290c:	4293      	cmp	r3, r2
 800290e:	bf94      	ite	ls
 8002910:	2301      	movls	r3, #1
 8002912:	2300      	movhi	r3, #0
 8002914:	b2db      	uxtb	r3, r3
 8002916:	2b00      	cmp	r3, #0
 8002918:	d001      	beq.n	800291e <HAL_I2C_Init+0x9a>
  {
    return HAL_ERROR;
 800291a:	2301      	movs	r3, #1
 800291c:	e0e7      	b.n	8002aee <HAL_I2C_Init+0x26a>
  }

  /* Calculate frequency range */
  freqrange = I2C_FREQRANGE(pclk1);
 800291e:	68fb      	ldr	r3, [r7, #12]
 8002920:	4a78      	ldr	r2, [pc, #480]	; (8002b04 <HAL_I2C_Init+0x280>)
 8002922:	fba2 2303 	umull	r2, r3, r2, r3
 8002926:	0c9b      	lsrs	r3, r3, #18
 8002928:	60bb      	str	r3, [r7, #8]

  /*---------------------------- I2Cx CR2 Configuration ----------------------*/
  /* Configure I2Cx: Frequency range */
  MODIFY_REG(hi2c->Instance->CR2, I2C_CR2_FREQ, freqrange);
 800292a:	687b      	ldr	r3, [r7, #4]
 800292c:	681b      	ldr	r3, [r3, #0]
 800292e:	685b      	ldr	r3, [r3, #4]
 8002930:	f023 013f 	bic.w	r1, r3, #63	; 0x3f
 8002934:	687b      	ldr	r3, [r7, #4]
 8002936:	681b      	ldr	r3, [r3, #0]
 8002938:	68ba      	ldr	r2, [r7, #8]
 800293a:	430a      	orrs	r2, r1
 800293c:	605a      	str	r2, [r3, #4]

  /*---------------------------- I2Cx TRISE Configuration --------------------*/
  /* Configure I2Cx: Rise Time */
  MODIFY_REG(hi2c->Instance->TRISE, I2C_TRISE_TRISE, I2C_RISE_TIME(freqrange, hi2c->Init.ClockSpeed));
 800293e:	687b      	ldr	r3, [r7, #4]
 8002940:	681b      	ldr	r3, [r3, #0]
 8002942:	6a1b      	ldr	r3, [r3, #32]
 8002944:	f023 013f 	bic.w	r1, r3, #63	; 0x3f
 8002948:	687b      	ldr	r3, [r7, #4]
 800294a:	685b      	ldr	r3, [r3, #4]
 800294c:	4a6a      	ldr	r2, [pc, #424]	; (8002af8 <HAL_I2C_Init+0x274>)
 800294e:	4293      	cmp	r3, r2
 8002950:	d802      	bhi.n	8002958 <HAL_I2C_Init+0xd4>
 8002952:	68bb      	ldr	r3, [r7, #8]
 8002954:	3301      	adds	r3, #1
 8002956:	e009      	b.n	800296c <HAL_I2C_Init+0xe8>
 8002958:	68bb      	ldr	r3, [r7, #8]
 800295a:	f44f 7296 	mov.w	r2, #300	; 0x12c
 800295e:	fb02 f303 	mul.w	r3, r2, r3
 8002962:	4a69      	ldr	r2, [pc, #420]	; (8002b08 <HAL_I2C_Init+0x284>)
 8002964:	fba2 2303 	umull	r2, r3, r2, r3
 8002968:	099b      	lsrs	r3, r3, #6
 800296a:	3301      	adds	r3, #1
 800296c:	687a      	ldr	r2, [r7, #4]
 800296e:	6812      	ldr	r2, [r2, #0]
 8002970:	430b      	orrs	r3, r1
 8002972:	6213      	str	r3, [r2, #32]

  /*---------------------------- I2Cx CCR Configuration ----------------------*/
  /* Configure I2Cx: Speed */
  MODIFY_REG(hi2c->Instance->CCR, (I2C_CCR_FS | I2C_CCR_DUTY | I2C_CCR_CCR), I2C_SPEED(pclk1, hi2c->Init.ClockSpeed, hi2c->Init.DutyCycle));
 8002974:	687b      	ldr	r3, [r7, #4]
 8002976:	681b      	ldr	r3, [r3, #0]
 8002978:	69db      	ldr	r3, [r3, #28]
 800297a:	f423 424f 	bic.w	r2, r3, #52992	; 0xcf00
 800297e:	f022 02ff 	bic.w	r2, r2, #255	; 0xff
 8002982:	687b      	ldr	r3, [r7, #4]
 8002984:	685b      	ldr	r3, [r3, #4]
 8002986:	495c      	ldr	r1, [pc, #368]	; (8002af8 <HAL_I2C_Init+0x274>)
 8002988:	428b      	cmp	r3, r1
 800298a:	d819      	bhi.n	80029c0 <HAL_I2C_Init+0x13c>
 800298c:	68fb      	ldr	r3, [r7, #12]
 800298e:	1e59      	subs	r1, r3, #1
 8002990:	687b      	ldr	r3, [r7, #4]
 8002992:	685b      	ldr	r3, [r3, #4]
 8002994:	005b      	lsls	r3, r3, #1
 8002996:	fbb1 f3f3 	udiv	r3, r1, r3
 800299a:	1c59      	adds	r1, r3, #1
 800299c:	f640 73fc 	movw	r3, #4092	; 0xffc
 80029a0:	400b      	ands	r3, r1
 80029a2:	2b00      	cmp	r3, #0
 80029a4:	d00a      	beq.n	80029bc <HAL_I2C_Init+0x138>
 80029a6:	68fb      	ldr	r3, [r7, #12]
 80029a8:	1e59      	subs	r1, r3, #1
 80029aa:	687b      	ldr	r3, [r7, #4]
 80029ac:	685b      	ldr	r3, [r3, #4]
 80029ae:	005b      	lsls	r3, r3, #1
 80029b0:	fbb1 f3f3 	udiv	r3, r1, r3
 80029b4:	3301      	adds	r3, #1
 80029b6:	f3c3 030b 	ubfx	r3, r3, #0, #12
 80029ba:	e051      	b.n	8002a60 <HAL_I2C_Init+0x1dc>
 80029bc:	2304      	movs	r3, #4
 80029be:	e04f      	b.n	8002a60 <HAL_I2C_Init+0x1dc>
 80029c0:	687b      	ldr	r3, [r7, #4]
 80029c2:	689b      	ldr	r3, [r3, #8]
 80029c4:	2b00      	cmp	r3, #0
 80029c6:	d111      	bne.n	80029ec <HAL_I2C_Init+0x168>
 80029c8:	68fb      	ldr	r3, [r7, #12]
 80029ca:	1e58      	subs	r0, r3, #1
 80029cc:	687b      	ldr	r3, [r7, #4]
 80029ce:	6859      	ldr	r1, [r3, #4]
 80029d0:	460b      	mov	r3, r1
 80029d2:	005b      	lsls	r3, r3, #1
 80029d4:	440b      	add	r3, r1
 80029d6:	fbb0 f3f3 	udiv	r3, r0, r3
 80029da:	3301      	adds	r3, #1
 80029dc:	f3c3 030b 	ubfx	r3, r3, #0, #12
 80029e0:	2b00      	cmp	r3, #0
 80029e2:	bf0c      	ite	eq
 80029e4:	2301      	moveq	r3, #1
 80029e6:	2300      	movne	r3, #0
 80029e8:	b2db      	uxtb	r3, r3
 80029ea:	e012      	b.n	8002a12 <HAL_I2C_Init+0x18e>
 80029ec:	68fb      	ldr	r3, [r7, #12]
 80029ee:	1e58      	subs	r0, r3, #1
 80029f0:	687b      	ldr	r3, [r7, #4]
 80029f2:	6859      	ldr	r1, [r3, #4]
 80029f4:	460b      	mov	r3, r1
 80029f6:	009b      	lsls	r3, r3, #2
 80029f8:	440b      	add	r3, r1
 80029fa:	0099      	lsls	r1, r3, #2
 80029fc:	440b      	add	r3, r1
 80029fe:	fbb0 f3f3 	udiv	r3, r0, r3
 8002a02:	3301      	adds	r3, #1
 8002a04:	f3c3 030b 	ubfx	r3, r3, #0, #12
 8002a08:	2b00      	cmp	r3, #0
 8002a0a:	bf0c      	ite	eq
 8002a0c:	2301      	moveq	r3, #1
 8002a0e:	2300      	movne	r3, #0
 8002a10:	b2db      	uxtb	r3, r3
 8002a12:	2b00      	cmp	r3, #0
 8002a14:	d001      	beq.n	8002a1a <HAL_I2C_Init+0x196>
 8002a16:	2301      	movs	r3, #1
 8002a18:	e022      	b.n	8002a60 <HAL_I2C_Init+0x1dc>
 8002a1a:	687b      	ldr	r3, [r7, #4]
 8002a1c:	689b      	ldr	r3, [r3, #8]
 8002a1e:	2b00      	cmp	r3, #0
 8002a20:	d10e      	bne.n	8002a40 <HAL_I2C_Init+0x1bc>
 8002a22:	68fb      	ldr	r3, [r7, #12]
 8002a24:	1e58      	subs	r0, r3, #1
 8002a26:	687b      	ldr	r3, [r7, #4]
 8002a28:	6859      	ldr	r1, [r3, #4]
 8002a2a:	460b      	mov	r3, r1
 8002a2c:	005b      	lsls	r3, r3, #1
 8002a2e:	440b      	add	r3, r1
 8002a30:	fbb0 f3f3 	udiv	r3, r0, r3
 8002a34:	3301      	adds	r3, #1
 8002a36:	f3c3 030b 	ubfx	r3, r3, #0, #12
 8002a3a:	f443 4300 	orr.w	r3, r3, #32768	; 0x8000
 8002a3e:	e00f      	b.n	8002a60 <HAL_I2C_Init+0x1dc>
 8002a40:	68fb      	ldr	r3, [r7, #12]
 8002a42:	1e58      	subs	r0, r3, #1
 8002a44:	687b      	ldr	r3, [r7, #4]
 8002a46:	6859      	ldr	r1, [r3, #4]
 8002a48:	460b      	mov	r3, r1
 8002a4a:	009b      	lsls	r3, r3, #2
 8002a4c:	440b      	add	r3, r1
 8002a4e:	0099      	lsls	r1, r3, #2
 8002a50:	440b      	add	r3, r1
 8002a52:	fbb0 f3f3 	udiv	r3, r0, r3
 8002a56:	3301      	adds	r3, #1
 8002a58:	f3c3 030b 	ubfx	r3, r3, #0, #12
 8002a5c:	f443 4340 	orr.w	r3, r3, #49152	; 0xc000
 8002a60:	6879      	ldr	r1, [r7, #4]
 8002a62:	6809      	ldr	r1, [r1, #0]
 8002a64:	4313      	orrs	r3, r2
 8002a66:	61cb      	str	r3, [r1, #28]

  /*---------------------------- I2Cx CR1 Configuration ----------------------*/
  /* Configure I2Cx: Generalcall and NoStretch mode */
  MODIFY_REG(hi2c->Instance->CR1, (I2C_CR1_ENGC | I2C_CR1_NOSTRETCH), (hi2c->Init.GeneralCallMode | hi2c->Init.NoStretchMode));
 8002a68:	687b      	ldr	r3, [r7, #4]
 8002a6a:	681b      	ldr	r3, [r3, #0]
 8002a6c:	681b      	ldr	r3, [r3, #0]
 8002a6e:	f023 01c0 	bic.w	r1, r3, #192	; 0xc0
 8002a72:	687b      	ldr	r3, [r7, #4]
 8002a74:	69da      	ldr	r2, [r3, #28]
 8002a76:	687b      	ldr	r3, [r7, #4]
 8002a78:	6a1b      	ldr	r3, [r3, #32]
 8002a7a:	431a      	orrs	r2, r3
 8002a7c:	687b      	ldr	r3, [r7, #4]
 8002a7e:	681b      	ldr	r3, [r3, #0]
 8002a80:	430a      	orrs	r2, r1
 8002a82:	601a      	str	r2, [r3, #0]

  /*---------------------------- I2Cx OAR1 Configuration ---------------------*/
  /* Configure I2Cx: Own Address1 and addressing mode */
  MODIFY_REG(hi2c->Instance->OAR1, (I2C_OAR1_ADDMODE | I2C_OAR1_ADD8_9 | I2C_OAR1_ADD1_7 | I2C_OAR1_ADD0), (hi2c->Init.AddressingMode | hi2c->Init.OwnAddress1));
 8002a84:	687b      	ldr	r3, [r7, #4]
 8002a86:	681b      	ldr	r3, [r3, #0]
 8002a88:	689b      	ldr	r3, [r3, #8]
 8002a8a:	f423 4303 	bic.w	r3, r3, #33536	; 0x8300
 8002a8e:	f023 03ff 	bic.w	r3, r3, #255	; 0xff
 8002a92:	687a      	ldr	r2, [r7, #4]
 8002a94:	6911      	ldr	r1, [r2, #16]
 8002a96:	687a      	ldr	r2, [r7, #4]
 8002a98:	68d2      	ldr	r2, [r2, #12]
 8002a9a:	4311      	orrs	r1, r2
 8002a9c:	687a      	ldr	r2, [r7, #4]
 8002a9e:	6812      	ldr	r2, [r2, #0]
 8002aa0:	430b      	orrs	r3, r1
 8002aa2:	6093      	str	r3, [r2, #8]

  /*---------------------------- I2Cx OAR2 Configuration ---------------------*/
  /* Configure I2Cx: Dual mode and Own Address2 */
  MODIFY_REG(hi2c->Instance->OAR2, (I2C_OAR2_ENDUAL | I2C_OAR2_ADD2), (hi2c->Init.DualAddressMode | hi2c->Init.OwnAddress2));
 8002aa4:	687b      	ldr	r3, [r7, #4]
 8002aa6:	681b      	ldr	r3, [r3, #0]
 8002aa8:	68db      	ldr	r3, [r3, #12]
 8002aaa:	f023 01ff 	bic.w	r1, r3, #255	; 0xff
 8002aae:	687b      	ldr	r3, [r7, #4]
 8002ab0:	695a      	ldr	r2, [r3, #20]
 8002ab2:	687b      	ldr	r3, [r7, #4]
 8002ab4:	699b      	ldr	r3, [r3, #24]
 8002ab6:	431a      	orrs	r2, r3
 8002ab8:	687b      	ldr	r3, [r7, #4]
 8002aba:	681b      	ldr	r3, [r3, #0]
 8002abc:	430a      	orrs	r2, r1
 8002abe:	60da      	str	r2, [r3, #12]

  /* Enable the selected I2C peripheral */
  __HAL_I2C_ENABLE(hi2c);
 8002ac0:	687b      	ldr	r3, [r7, #4]
 8002ac2:	681b      	ldr	r3, [r3, #0]
 8002ac4:	681a      	ldr	r2, [r3, #0]
 8002ac6:	687b      	ldr	r3, [r7, #4]
 8002ac8:	681b      	ldr	r3, [r3, #0]
 8002aca:	f042 0201 	orr.w	r2, r2, #1
 8002ace:	601a      	str	r2, [r3, #0]

  hi2c->ErrorCode = HAL_I2C_ERROR_NONE;
 8002ad0:	687b      	ldr	r3, [r7, #4]
 8002ad2:	2200      	movs	r2, #0
 8002ad4:	641a      	str	r2, [r3, #64]	; 0x40
  hi2c->State = HAL_I2C_STATE_READY;
 8002ad6:	687b      	ldr	r3, [r7, #4]
 8002ad8:	2220      	movs	r2, #32
 8002ada:	f883 203d 	strb.w	r2, [r3, #61]	; 0x3d
  hi2c->PreviousState = I2C_STATE_NONE;
 8002ade:	687b      	ldr	r3, [r7, #4]
 8002ae0:	2200      	movs	r2, #0
 8002ae2:	631a      	str	r2, [r3, #48]	; 0x30
  hi2c->Mode = HAL_I2C_MODE_NONE;
 8002ae4:	687b      	ldr	r3, [r7, #4]
 8002ae6:	2200      	movs	r2, #0
 8002ae8:	f883 203e 	strb.w	r2, [r3, #62]	; 0x3e

  return HAL_OK;
 8002aec:	2300      	movs	r3, #0
}
 8002aee:	4618      	mov	r0, r3
 8002af0:	3710      	adds	r7, #16
 8002af2:	46bd      	mov	sp, r7
 8002af4:	bd80      	pop	{r7, pc}
 8002af6:	bf00      	nop
 8002af8:	000186a0 	.word	0x000186a0
 8002afc:	001e847f 	.word	0x001e847f
 8002b00:	003d08ff 	.word	0x003d08ff
 8002b04:	431bde83 	.word	0x431bde83
 8002b08:	10624dd3 	.word	0x10624dd3

08002b0c <HAL_I2C_Master_Transmit>:
  * @param  Size Amount of data to be sent
  * @param  Timeout Timeout duration
  * @retval HAL status
  */
HAL_StatusTypeDef HAL_I2C_Master_Transmit(I2C_HandleTypeDef *hi2c, uint16_t DevAddress, uint8_t *pData, uint16_t Size, uint32_t Timeout)
{
 8002b0c:	b580      	push	{r7, lr}
 8002b0e:	b088      	sub	sp, #32
 8002b10:	af02      	add	r7, sp, #8
 8002b12:	60f8      	str	r0, [r7, #12]
 8002b14:	607a      	str	r2, [r7, #4]
 8002b16:	461a      	mov	r2, r3
 8002b18:	460b      	mov	r3, r1
 8002b1a:	817b      	strh	r3, [r7, #10]
 8002b1c:	4613      	mov	r3, r2
 8002b1e:	813b      	strh	r3, [r7, #8]
  /* Init tickstart for timeout management*/
  uint32_t tickstart = HAL_GetTick();
 8002b20:	f7ff fb20 	bl	8002164 <HAL_GetTick>
 8002b24:	6178      	str	r0, [r7, #20]

  if (hi2c->State == HAL_I2C_STATE_READY)
 8002b26:	68fb      	ldr	r3, [r7, #12]
 8002b28:	f893 303d 	ldrb.w	r3, [r3, #61]	; 0x3d
 8002b2c:	b2db      	uxtb	r3, r3
 8002b2e:	2b20      	cmp	r3, #32
 8002b30:	f040 80e0 	bne.w	8002cf4 <HAL_I2C_Master_Transmit+0x1e8>
  {
    /* Wait until BUSY flag is reset */
    if (I2C_WaitOnFlagUntilTimeout(hi2c, I2C_FLAG_BUSY, SET, I2C_TIMEOUT_BUSY_FLAG, tickstart) != HAL_OK)
 8002b34:	697b      	ldr	r3, [r7, #20]
 8002b36:	9300      	str	r3, [sp, #0]
 8002b38:	2319      	movs	r3, #25
 8002b3a:	2201      	movs	r2, #1
 8002b3c:	4970      	ldr	r1, [pc, #448]	; (8002d00 <HAL_I2C_Master_Transmit+0x1f4>)
 8002b3e:	68f8      	ldr	r0, [r7, #12]
 8002b40:	f000 fc64 	bl	800340c <I2C_WaitOnFlagUntilTimeout>
 8002b44:	4603      	mov	r3, r0
 8002b46:	2b00      	cmp	r3, #0
 8002b48:	d001      	beq.n	8002b4e <HAL_I2C_Master_Transmit+0x42>
    {
      return HAL_BUSY;
 8002b4a:	2302      	movs	r3, #2
 8002b4c:	e0d3      	b.n	8002cf6 <HAL_I2C_Master_Transmit+0x1ea>
    }

    /* Process Locked */
    __HAL_LOCK(hi2c);
 8002b4e:	68fb      	ldr	r3, [r7, #12]
 8002b50:	f893 303c 	ldrb.w	r3, [r3, #60]	; 0x3c
 8002b54:	2b01      	cmp	r3, #1
 8002b56:	d101      	bne.n	8002b5c <HAL_I2C_Master_Transmit+0x50>
 8002b58:	2302      	movs	r3, #2
 8002b5a:	e0cc      	b.n	8002cf6 <HAL_I2C_Master_Transmit+0x1ea>
 8002b5c:	68fb      	ldr	r3, [r7, #12]
 8002b5e:	2201      	movs	r2, #1
 8002b60:	f883 203c 	strb.w	r2, [r3, #60]	; 0x3c

    /* Check if the I2C is already enabled */
    if ((hi2c->Instance->CR1 & I2C_CR1_PE) != I2C_CR1_PE)
 8002b64:	68fb      	ldr	r3, [r7, #12]
 8002b66:	681b      	ldr	r3, [r3, #0]
 8002b68:	681b      	ldr	r3, [r3, #0]
 8002b6a:	f003 0301 	and.w	r3, r3, #1
 8002b6e:	2b01      	cmp	r3, #1
 8002b70:	d007      	beq.n	8002b82 <HAL_I2C_Master_Transmit+0x76>
    {
      /* Enable I2C peripheral */
      __HAL_I2C_ENABLE(hi2c);
 8002b72:	68fb      	ldr	r3, [r7, #12]
 8002b74:	681b      	ldr	r3, [r3, #0]
 8002b76:	681a      	ldr	r2, [r3, #0]
 8002b78:	68fb      	ldr	r3, [r7, #12]
 8002b7a:	681b      	ldr	r3, [r3, #0]
 8002b7c:	f042 0201 	orr.w	r2, r2, #1
 8002b80:	601a      	str	r2, [r3, #0]
    }

    /* Disable Pos */
    CLEAR_BIT(hi2c->Instance->CR1, I2C_CR1_POS);
 8002b82:	68fb      	ldr	r3, [r7, #12]
 8002b84:	681b      	ldr	r3, [r3, #0]
 8002b86:	681a      	ldr	r2, [r3, #0]
 8002b88:	68fb      	ldr	r3, [r7, #12]
 8002b8a:	681b      	ldr	r3, [r3, #0]
 8002b8c:	f422 6200 	bic.w	r2, r2, #2048	; 0x800
 8002b90:	601a      	str	r2, [r3, #0]

    hi2c->State       = HAL_I2C_STATE_BUSY_TX;
 8002b92:	68fb      	ldr	r3, [r7, #12]
 8002b94:	2221      	movs	r2, #33	; 0x21
 8002b96:	f883 203d 	strb.w	r2, [r3, #61]	; 0x3d
    hi2c->Mode        = HAL_I2C_MODE_MASTER;
 8002b9a:	68fb      	ldr	r3, [r7, #12]
 8002b9c:	2210      	movs	r2, #16
 8002b9e:	f883 203e 	strb.w	r2, [r3, #62]	; 0x3e
    hi2c->ErrorCode   = HAL_I2C_ERROR_NONE;
 8002ba2:	68fb      	ldr	r3, [r7, #12]
 8002ba4:	2200      	movs	r2, #0
 8002ba6:	641a      	str	r2, [r3, #64]	; 0x40

    /* Prepare transfer parameters */
    hi2c->pBuffPtr    = pData;
 8002ba8:	68fb      	ldr	r3, [r7, #12]
 8002baa:	687a      	ldr	r2, [r7, #4]
 8002bac:	625a      	str	r2, [r3, #36]	; 0x24
    hi2c->XferCount   = Size;
 8002bae:	68fb      	ldr	r3, [r7, #12]
 8002bb0:	893a      	ldrh	r2, [r7, #8]
 8002bb2:	855a      	strh	r2, [r3, #42]	; 0x2a
    hi2c->XferSize    = hi2c->XferCount;
 8002bb4:	68fb      	ldr	r3, [r7, #12]
 8002bb6:	8d5b      	ldrh	r3, [r3, #42]	; 0x2a
 8002bb8:	b29a      	uxth	r2, r3
 8002bba:	68fb      	ldr	r3, [r7, #12]
 8002bbc:	851a      	strh	r2, [r3, #40]	; 0x28
    hi2c->XferOptions = I2C_NO_OPTION_FRAME;
 8002bbe:	68fb      	ldr	r3, [r7, #12]
 8002bc0:	4a50      	ldr	r2, [pc, #320]	; (8002d04 <HAL_I2C_Master_Transmit+0x1f8>)
 8002bc2:	62da      	str	r2, [r3, #44]	; 0x2c

    /* Send Slave Address */
    if (I2C_MasterRequestWrite(hi2c, DevAddress, Timeout, tickstart) != HAL_OK)
 8002bc4:	8979      	ldrh	r1, [r7, #10]
 8002bc6:	697b      	ldr	r3, [r7, #20]
 8002bc8:	6a3a      	ldr	r2, [r7, #32]
 8002bca:	68f8      	ldr	r0, [r7, #12]
 8002bcc:	f000 face 	bl	800316c <I2C_MasterRequestWrite>
 8002bd0:	4603      	mov	r3, r0
 8002bd2:	2b00      	cmp	r3, #0
 8002bd4:	d001      	beq.n	8002bda <HAL_I2C_Master_Transmit+0xce>
    {
      return HAL_ERROR;
 8002bd6:	2301      	movs	r3, #1
 8002bd8:	e08d      	b.n	8002cf6 <HAL_I2C_Master_Transmit+0x1ea>
    }

    /* Clear ADDR flag */
    __HAL_I2C_CLEAR_ADDRFLAG(hi2c);
 8002bda:	2300      	movs	r3, #0
 8002bdc:	613b      	str	r3, [r7, #16]
 8002bde:	68fb      	ldr	r3, [r7, #12]
 8002be0:	681b      	ldr	r3, [r3, #0]
 8002be2:	695b      	ldr	r3, [r3, #20]
 8002be4:	613b      	str	r3, [r7, #16]
 8002be6:	68fb      	ldr	r3, [r7, #12]
 8002be8:	681b      	ldr	r3, [r3, #0]
 8002bea:	699b      	ldr	r3, [r3, #24]
 8002bec:	613b      	str	r3, [r7, #16]
 8002bee:	693b      	ldr	r3, [r7, #16]

    while (hi2c->XferSize > 0U)
 8002bf0:	e066      	b.n	8002cc0 <HAL_I2C_Master_Transmit+0x1b4>
    {
      /* Wait until TXE flag is set */
      if (I2C_WaitOnTXEFlagUntilTimeout(hi2c, Timeout, tickstart) != HAL_OK)
 8002bf2:	697a      	ldr	r2, [r7, #20]
 8002bf4:	6a39      	ldr	r1, [r7, #32]
 8002bf6:	68f8      	ldr	r0, [r7, #12]
 8002bf8:	f000 fd22 	bl	8003640 <I2C_WaitOnTXEFlagUntilTimeout>
 8002bfc:	4603      	mov	r3, r0
 8002bfe:	2b00      	cmp	r3, #0
 8002c00:	d00d      	beq.n	8002c1e <HAL_I2C_Master_Transmit+0x112>
      {
        if (hi2c->ErrorCode == HAL_I2C_ERROR_AF)
 8002c02:	68fb      	ldr	r3, [r7, #12]
 8002c04:	6c1b      	ldr	r3, [r3, #64]	; 0x40
 8002c06:	2b04      	cmp	r3, #4
 8002c08:	d107      	bne.n	8002c1a <HAL_I2C_Master_Transmit+0x10e>
        {
          /* Generate Stop */
          SET_BIT(hi2c->Instance->CR1, I2C_CR1_STOP);
 8002c0a:	68fb      	ldr	r3, [r7, #12]
 8002c0c:	681b      	ldr	r3, [r3, #0]
 8002c0e:	681a      	ldr	r2, [r3, #0]
 8002c10:	68fb      	ldr	r3, [r7, #12]
 8002c12:	681b      	ldr	r3, [r3, #0]
 8002c14:	f442 7200 	orr.w	r2, r2, #512	; 0x200
 8002c18:	601a      	str	r2, [r3, #0]
        }
        return HAL_ERROR;
 8002c1a:	2301      	movs	r3, #1
 8002c1c:	e06b      	b.n	8002cf6 <HAL_I2C_Master_Transmit+0x1ea>
      }

      /* Write data to DR */
      hi2c->Instance->DR = *hi2c->pBuffPtr;
 8002c1e:	68fb      	ldr	r3, [r7, #12]
 8002c20:	6a5b      	ldr	r3, [r3, #36]	; 0x24
 8002c22:	781a      	ldrb	r2, [r3, #0]
 8002c24:	68fb      	ldr	r3, [r7, #12]
 8002c26:	681b      	ldr	r3, [r3, #0]
 8002c28:	611a      	str	r2, [r3, #16]

      /* Increment Buffer pointer */
      hi2c->pBuffPtr++;
 8002c2a:	68fb      	ldr	r3, [r7, #12]
 8002c2c:	6a5b      	ldr	r3, [r3, #36]	; 0x24
 8002c2e:	1c5a      	adds	r2, r3, #1
 8002c30:	68fb      	ldr	r3, [r7, #12]
 8002c32:	625a      	str	r2, [r3, #36]	; 0x24

      /* Update counter */
      hi2c->XferCount--;
 8002c34:	68fb      	ldr	r3, [r7, #12]
 8002c36:	8d5b      	ldrh	r3, [r3, #42]	; 0x2a
 8002c38:	b29b      	uxth	r3, r3
 8002c3a:	3b01      	subs	r3, #1
 8002c3c:	b29a      	uxth	r2, r3
 8002c3e:	68fb      	ldr	r3, [r7, #12]
 8002c40:	855a      	strh	r2, [r3, #42]	; 0x2a
      hi2c->XferSize--;
 8002c42:	68fb      	ldr	r3, [r7, #12]
 8002c44:	8d1b      	ldrh	r3, [r3, #40]	; 0x28
 8002c46:	3b01      	subs	r3, #1
 8002c48:	b29a      	uxth	r2, r3
 8002c4a:	68fb      	ldr	r3, [r7, #12]
 8002c4c:	851a      	strh	r2, [r3, #40]	; 0x28

      if ((__HAL_I2C_GET_FLAG(hi2c, I2C_FLAG_BTF) == SET) && (hi2c->XferSize != 0U))
 8002c4e:	68fb      	ldr	r3, [r7, #12]
 8002c50:	681b      	ldr	r3, [r3, #0]
 8002c52:	695b      	ldr	r3, [r3, #20]
 8002c54:	f003 0304 	and.w	r3, r3, #4
 8002c58:	2b04      	cmp	r3, #4
 8002c5a:	d11b      	bne.n	8002c94 <HAL_I2C_Master_Transmit+0x188>
 8002c5c:	68fb      	ldr	r3, [r7, #12]
 8002c5e:	8d1b      	ldrh	r3, [r3, #40]	; 0x28
 8002c60:	2b00      	cmp	r3, #0
 8002c62:	d017      	beq.n	8002c94 <HAL_I2C_Master_Transmit+0x188>
      {
        /* Write data to DR */
        hi2c->Instance->DR = *hi2c->pBuffPtr;
 8002c64:	68fb      	ldr	r3, [r7, #12]
 8002c66:	6a5b      	ldr	r3, [r3, #36]	; 0x24
 8002c68:	781a      	ldrb	r2, [r3, #0]
 8002c6a:	68fb      	ldr	r3, [r7, #12]
 8002c6c:	681b      	ldr	r3, [r3, #0]
 8002c6e:	611a      	str	r2, [r3, #16]

        /* Increment Buffer pointer */
        hi2c->pBuffPtr++;
 8002c70:	68fb      	ldr	r3, [r7, #12]
 8002c72:	6a5b      	ldr	r3, [r3, #36]	; 0x24
 8002c74:	1c5a      	adds	r2, r3, #1
 8002c76:	68fb      	ldr	r3, [r7, #12]
 8002c78:	625a      	str	r2, [r3, #36]	; 0x24

        /* Update counter */
        hi2c->XferCount--;
 8002c7a:	68fb      	ldr	r3, [r7, #12]
 8002c7c:	8d5b      	ldrh	r3, [r3, #42]	; 0x2a
 8002c7e:	b29b      	uxth	r3, r3
 8002c80:	3b01      	subs	r3, #1
 8002c82:	b29a      	uxth	r2, r3
 8002c84:	68fb      	ldr	r3, [r7, #12]
 8002c86:	855a      	strh	r2, [r3, #42]	; 0x2a
        hi2c->XferSize--;
 8002c88:	68fb      	ldr	r3, [r7, #12]
 8002c8a:	8d1b      	ldrh	r3, [r3, #40]	; 0x28
 8002c8c:	3b01      	subs	r3, #1
 8002c8e:	b29a      	uxth	r2, r3
 8002c90:	68fb      	ldr	r3, [r7, #12]
 8002c92:	851a      	strh	r2, [r3, #40]	; 0x28
      }

      /* Wait until BTF flag is set */
      if (I2C_WaitOnBTFFlagUntilTimeout(hi2c, Timeout, tickstart) != HAL_OK)
 8002c94:	697a      	ldr	r2, [r7, #20]
 8002c96:	6a39      	ldr	r1, [r7, #32]
 8002c98:	68f8      	ldr	r0, [r7, #12]
 8002c9a:	f000 fd19 	bl	80036d0 <I2C_WaitOnBTFFlagUntilTimeout>
 8002c9e:	4603      	mov	r3, r0
 8002ca0:	2b00      	cmp	r3, #0
 8002ca2:	d00d      	beq.n	8002cc0 <HAL_I2C_Master_Transmit+0x1b4>
      {
        if (hi2c->ErrorCode == HAL_I2C_ERROR_AF)
 8002ca4:	68fb      	ldr	r3, [r7, #12]
 8002ca6:	6c1b      	ldr	r3, [r3, #64]	; 0x40
 8002ca8:	2b04      	cmp	r3, #4
 8002caa:	d107      	bne.n	8002cbc <HAL_I2C_Master_Transmit+0x1b0>
        {
          /* Generate Stop */
          SET_BIT(hi2c->Instance->CR1, I2C_CR1_STOP);
 8002cac:	68fb      	ldr	r3, [r7, #12]
 8002cae:	681b      	ldr	r3, [r3, #0]
 8002cb0:	681a      	ldr	r2, [r3, #0]
 8002cb2:	68fb      	ldr	r3, [r7, #12]
 8002cb4:	681b      	ldr	r3, [r3, #0]
 8002cb6:	f442 7200 	orr.w	r2, r2, #512	; 0x200
 8002cba:	601a      	str	r2, [r3, #0]
        }
        return HAL_ERROR;
 8002cbc:	2301      	movs	r3, #1
 8002cbe:	e01a      	b.n	8002cf6 <HAL_I2C_Master_Transmit+0x1ea>
    while (hi2c->XferSize > 0U)
 8002cc0:	68fb      	ldr	r3, [r7, #12]
 8002cc2:	8d1b      	ldrh	r3, [r3, #40]	; 0x28
 8002cc4:	2b00      	cmp	r3, #0
 8002cc6:	d194      	bne.n	8002bf2 <HAL_I2C_Master_Transmit+0xe6>
      }
    }

    /* Generate Stop */
    SET_BIT(hi2c->Instance->CR1, I2C_CR1_STOP);
 8002cc8:	68fb      	ldr	r3, [r7, #12]
 8002cca:	681b      	ldr	r3, [r3, #0]
 8002ccc:	681a      	ldr	r2, [r3, #0]
 8002cce:	68fb      	ldr	r3, [r7, #12]
 8002cd0:	681b      	ldr	r3, [r3, #0]
 8002cd2:	f442 7200 	orr.w	r2, r2, #512	; 0x200
 8002cd6:	601a      	str	r2, [r3, #0]

    hi2c->State = HAL_I2C_STATE_READY;
 8002cd8:	68fb      	ldr	r3, [r7, #12]
 8002cda:	2220      	movs	r2, #32
 8002cdc:	f883 203d 	strb.w	r2, [r3, #61]	; 0x3d
    hi2c->Mode = HAL_I2C_MODE_NONE;
 8002ce0:	68fb      	ldr	r3, [r7, #12]
 8002ce2:	2200      	movs	r2, #0
 8002ce4:	f883 203e 	strb.w	r2, [r3, #62]	; 0x3e

    /* Process Unlocked */
    __HAL_UNLOCK(hi2c);
 8002ce8:	68fb      	ldr	r3, [r7, #12]
 8002cea:	2200      	movs	r2, #0
 8002cec:	f883 203c 	strb.w	r2, [r3, #60]	; 0x3c

    return HAL_OK;
 8002cf0:	2300      	movs	r3, #0
 8002cf2:	e000      	b.n	8002cf6 <HAL_I2C_Master_Transmit+0x1ea>
  }
  else
  {
    return HAL_BUSY;
 8002cf4:	2302      	movs	r3, #2
  }
}
 8002cf6:	4618      	mov	r0, r3
 8002cf8:	3718      	adds	r7, #24
 8002cfa:	46bd      	mov	sp, r7
 8002cfc:	bd80      	pop	{r7, pc}
 8002cfe:	bf00      	nop
 8002d00:	00100002 	.word	0x00100002
 8002d04:	ffff0000 	.word	0xffff0000

08002d08 <HAL_I2C_Master_Receive>:
  * @param  Size Amount of data to be sent
  * @param  Timeout Timeout duration
  * @retval HAL status
  */
HAL_StatusTypeDef HAL_I2C_Master_Receive(I2C_HandleTypeDef *hi2c, uint16_t DevAddress, uint8_t *pData, uint16_t Size, uint32_t Timeout)
{
 8002d08:	b580      	push	{r7, lr}
 8002d0a:	b08c      	sub	sp, #48	; 0x30
 8002d0c:	af02      	add	r7, sp, #8
 8002d0e:	60f8      	str	r0, [r7, #12]
 8002d10:	607a      	str	r2, [r7, #4]
 8002d12:	461a      	mov	r2, r3
 8002d14:	460b      	mov	r3, r1
 8002d16:	817b      	strh	r3, [r7, #10]
 8002d18:	4613      	mov	r3, r2
 8002d1a:	813b      	strh	r3, [r7, #8]
  /* Init tickstart for timeout management*/
  uint32_t tickstart = HAL_GetTick();
 8002d1c:	f7ff fa22 	bl	8002164 <HAL_GetTick>
 8002d20:	6278      	str	r0, [r7, #36]	; 0x24

  if (hi2c->State == HAL_I2C_STATE_READY)
 8002d22:	68fb      	ldr	r3, [r7, #12]
 8002d24:	f893 303d 	ldrb.w	r3, [r3, #61]	; 0x3d
 8002d28:	b2db      	uxtb	r3, r3
 8002d2a:	2b20      	cmp	r3, #32
 8002d2c:	f040 8217 	bne.w	800315e <HAL_I2C_Master_Receive+0x456>
  {
    /* Wait until BUSY flag is reset */
    if (I2C_WaitOnFlagUntilTimeout(hi2c, I2C_FLAG_BUSY, SET, I2C_TIMEOUT_BUSY_FLAG, tickstart) != HAL_OK)
 8002d30:	6a7b      	ldr	r3, [r7, #36]	; 0x24
 8002d32:	9300      	str	r3, [sp, #0]
 8002d34:	2319      	movs	r3, #25
 8002d36:	2201      	movs	r2, #1
 8002d38:	497c      	ldr	r1, [pc, #496]	; (8002f2c <HAL_I2C_Master_Receive+0x224>)
 8002d3a:	68f8      	ldr	r0, [r7, #12]
 8002d3c:	f000 fb66 	bl	800340c <I2C_WaitOnFlagUntilTimeout>
 8002d40:	4603      	mov	r3, r0
 8002d42:	2b00      	cmp	r3, #0
 8002d44:	d001      	beq.n	8002d4a <HAL_I2C_Master_Receive+0x42>
    {
      return HAL_BUSY;
 8002d46:	2302      	movs	r3, #2
 8002d48:	e20a      	b.n	8003160 <HAL_I2C_Master_Receive+0x458>
    }

    /* Process Locked */
    __HAL_LOCK(hi2c);
 8002d4a:	68fb      	ldr	r3, [r7, #12]
 8002d4c:	f893 303c 	ldrb.w	r3, [r3, #60]	; 0x3c
 8002d50:	2b01      	cmp	r3, #1
 8002d52:	d101      	bne.n	8002d58 <HAL_I2C_Master_Receive+0x50>
 8002d54:	2302      	movs	r3, #2
 8002d56:	e203      	b.n	8003160 <HAL_I2C_Master_Receive+0x458>
 8002d58:	68fb      	ldr	r3, [r7, #12]
 8002d5a:	2201      	movs	r2, #1
 8002d5c:	f883 203c 	strb.w	r2, [r3, #60]	; 0x3c

    /* Check if the I2C is already enabled */
    if ((hi2c->Instance->CR1 & I2C_CR1_PE) != I2C_CR1_PE)
 8002d60:	68fb      	ldr	r3, [r7, #12]
 8002d62:	681b      	ldr	r3, [r3, #0]
 8002d64:	681b      	ldr	r3, [r3, #0]
 8002d66:	f003 0301 	and.w	r3, r3, #1
 8002d6a:	2b01      	cmp	r3, #1
 8002d6c:	d007      	beq.n	8002d7e <HAL_I2C_Master_Receive+0x76>
    {
      /* Enable I2C peripheral */
      __HAL_I2C_ENABLE(hi2c);
 8002d6e:	68fb      	ldr	r3, [r7, #12]
 8002d70:	681b      	ldr	r3, [r3, #0]
 8002d72:	681a      	ldr	r2, [r3, #0]
 8002d74:	68fb      	ldr	r3, [r7, #12]
 8002d76:	681b      	ldr	r3, [r3, #0]
 8002d78:	f042 0201 	orr.w	r2, r2, #1
 8002d7c:	601a      	str	r2, [r3, #0]
    }

    /* Disable Pos */
    CLEAR_BIT(hi2c->Instance->CR1, I2C_CR1_POS);
 8002d7e:	68fb      	ldr	r3, [r7, #12]
 8002d80:	681b      	ldr	r3, [r3, #0]
 8002d82:	681a      	ldr	r2, [r3, #0]
 8002d84:	68fb      	ldr	r3, [r7, #12]
 8002d86:	681b      	ldr	r3, [r3, #0]
 8002d88:	f422 6200 	bic.w	r2, r2, #2048	; 0x800
 8002d8c:	601a      	str	r2, [r3, #0]

    hi2c->State       = HAL_I2C_STATE_BUSY_RX;
 8002d8e:	68fb      	ldr	r3, [r7, #12]
 8002d90:	2222      	movs	r2, #34	; 0x22
 8002d92:	f883 203d 	strb.w	r2, [r3, #61]	; 0x3d
    hi2c->Mode        = HAL_I2C_MODE_MASTER;
 8002d96:	68fb      	ldr	r3, [r7, #12]
 8002d98:	2210      	movs	r2, #16
 8002d9a:	f883 203e 	strb.w	r2, [r3, #62]	; 0x3e
    hi2c->ErrorCode   = HAL_I2C_ERROR_NONE;
 8002d9e:	68fb      	ldr	r3, [r7, #12]
 8002da0:	2200      	movs	r2, #0
 8002da2:	641a      	str	r2, [r3, #64]	; 0x40

    /* Prepare transfer parameters */
    hi2c->pBuffPtr    = pData;
 8002da4:	68fb      	ldr	r3, [r7, #12]
 8002da6:	687a      	ldr	r2, [r7, #4]
 8002da8:	625a      	str	r2, [r3, #36]	; 0x24
    hi2c->XferCount   = Size;
 8002daa:	68fb      	ldr	r3, [r7, #12]
 8002dac:	893a      	ldrh	r2, [r7, #8]
 8002dae:	855a      	strh	r2, [r3, #42]	; 0x2a
    hi2c->XferSize    = hi2c->XferCount;
 8002db0:	68fb      	ldr	r3, [r7, #12]
 8002db2:	8d5b      	ldrh	r3, [r3, #42]	; 0x2a
 8002db4:	b29a      	uxth	r2, r3
 8002db6:	68fb      	ldr	r3, [r7, #12]
 8002db8:	851a      	strh	r2, [r3, #40]	; 0x28
    hi2c->XferOptions = I2C_NO_OPTION_FRAME;
 8002dba:	68fb      	ldr	r3, [r7, #12]
 8002dbc:	4a5c      	ldr	r2, [pc, #368]	; (8002f30 <HAL_I2C_Master_Receive+0x228>)
 8002dbe:	62da      	str	r2, [r3, #44]	; 0x2c

    /* Send Slave Address */
    if (I2C_MasterRequestRead(hi2c, DevAddress, Timeout, tickstart) != HAL_OK)
 8002dc0:	8979      	ldrh	r1, [r7, #10]
 8002dc2:	6a7b      	ldr	r3, [r7, #36]	; 0x24
 8002dc4:	6b3a      	ldr	r2, [r7, #48]	; 0x30
 8002dc6:	68f8      	ldr	r0, [r7, #12]
 8002dc8:	f000 fa52 	bl	8003270 <I2C_MasterRequestRead>
 8002dcc:	4603      	mov	r3, r0
 8002dce:	2b00      	cmp	r3, #0
 8002dd0:	d001      	beq.n	8002dd6 <HAL_I2C_Master_Receive+0xce>
    {
      return HAL_ERROR;
 8002dd2:	2301      	movs	r3, #1
 8002dd4:	e1c4      	b.n	8003160 <HAL_I2C_Master_Receive+0x458>
    }

    if (hi2c->XferSize == 0U)
 8002dd6:	68fb      	ldr	r3, [r7, #12]
 8002dd8:	8d1b      	ldrh	r3, [r3, #40]	; 0x28
 8002dda:	2b00      	cmp	r3, #0
 8002ddc:	d113      	bne.n	8002e06 <HAL_I2C_Master_Receive+0xfe>
    {
      /* Clear ADDR flag */
      __HAL_I2C_CLEAR_ADDRFLAG(hi2c);
 8002dde:	2300      	movs	r3, #0
 8002de0:	623b      	str	r3, [r7, #32]
 8002de2:	68fb      	ldr	r3, [r7, #12]
 8002de4:	681b      	ldr	r3, [r3, #0]
 8002de6:	695b      	ldr	r3, [r3, #20]
 8002de8:	623b      	str	r3, [r7, #32]
 8002dea:	68fb      	ldr	r3, [r7, #12]
 8002dec:	681b      	ldr	r3, [r3, #0]
 8002dee:	699b      	ldr	r3, [r3, #24]
 8002df0:	623b      	str	r3, [r7, #32]
 8002df2:	6a3b      	ldr	r3, [r7, #32]

      /* Generate Stop */
      SET_BIT(hi2c->Instance->CR1, I2C_CR1_STOP);
 8002df4:	68fb      	ldr	r3, [r7, #12]
 8002df6:	681b      	ldr	r3, [r3, #0]
 8002df8:	681a      	ldr	r2, [r3, #0]
 8002dfa:	68fb      	ldr	r3, [r7, #12]
 8002dfc:	681b      	ldr	r3, [r3, #0]
 8002dfe:	f442 7200 	orr.w	r2, r2, #512	; 0x200
 8002e02:	601a      	str	r2, [r3, #0]
 8002e04:	e198      	b.n	8003138 <HAL_I2C_Master_Receive+0x430>
    }
    else if (hi2c->XferSize == 1U)
 8002e06:	68fb      	ldr	r3, [r7, #12]
 8002e08:	8d1b      	ldrh	r3, [r3, #40]	; 0x28
 8002e0a:	2b01      	cmp	r3, #1
 8002e0c:	d11b      	bne.n	8002e46 <HAL_I2C_Master_Receive+0x13e>
    {
      /* Disable Acknowledge */
      CLEAR_BIT(hi2c->Instance->CR1, I2C_CR1_ACK);
 8002e0e:	68fb      	ldr	r3, [r7, #12]
 8002e10:	681b      	ldr	r3, [r3, #0]
 8002e12:	681a      	ldr	r2, [r3, #0]
 8002e14:	68fb      	ldr	r3, [r7, #12]
 8002e16:	681b      	ldr	r3, [r3, #0]
 8002e18:	f422 6280 	bic.w	r2, r2, #1024	; 0x400
 8002e1c:	601a      	str	r2, [r3, #0]

      /* Clear ADDR flag */
      __HAL_I2C_CLEAR_ADDRFLAG(hi2c);
 8002e1e:	2300      	movs	r3, #0
 8002e20:	61fb      	str	r3, [r7, #28]
 8002e22:	68fb      	ldr	r3, [r7, #12]
 8002e24:	681b      	ldr	r3, [r3, #0]
 8002e26:	695b      	ldr	r3, [r3, #20]
 8002e28:	61fb      	str	r3, [r7, #28]
 8002e2a:	68fb      	ldr	r3, [r7, #12]
 8002e2c:	681b      	ldr	r3, [r3, #0]
 8002e2e:	699b      	ldr	r3, [r3, #24]
 8002e30:	61fb      	str	r3, [r7, #28]
 8002e32:	69fb      	ldr	r3, [r7, #28]

      /* Generate Stop */
      SET_BIT(hi2c->Instance->CR1, I2C_CR1_STOP);
 8002e34:	68fb      	ldr	r3, [r7, #12]
 8002e36:	681b      	ldr	r3, [r3, #0]
 8002e38:	681a      	ldr	r2, [r3, #0]
 8002e3a:	68fb      	ldr	r3, [r7, #12]
 8002e3c:	681b      	ldr	r3, [r3, #0]
 8002e3e:	f442 7200 	orr.w	r2, r2, #512	; 0x200
 8002e42:	601a      	str	r2, [r3, #0]
 8002e44:	e178      	b.n	8003138 <HAL_I2C_Master_Receive+0x430>
    }
    else if (hi2c->XferSize == 2U)
 8002e46:	68fb      	ldr	r3, [r7, #12]
 8002e48:	8d1b      	ldrh	r3, [r3, #40]	; 0x28
 8002e4a:	2b02      	cmp	r3, #2
 8002e4c:	d11b      	bne.n	8002e86 <HAL_I2C_Master_Receive+0x17e>
    {
      /* Disable Acknowledge */
      CLEAR_BIT(hi2c->Instance->CR1, I2C_CR1_ACK);
 8002e4e:	68fb      	ldr	r3, [r7, #12]
 8002e50:	681b      	ldr	r3, [r3, #0]
 8002e52:	681a      	ldr	r2, [r3, #0]
 8002e54:	68fb      	ldr	r3, [r7, #12]
 8002e56:	681b      	ldr	r3, [r3, #0]
 8002e58:	f422 6280 	bic.w	r2, r2, #1024	; 0x400
 8002e5c:	601a      	str	r2, [r3, #0]

      /* Enable Pos */
      SET_BIT(hi2c->Instance->CR1, I2C_CR1_POS);
 8002e5e:	68fb      	ldr	r3, [r7, #12]
 8002e60:	681b      	ldr	r3, [r3, #0]
 8002e62:	681a      	ldr	r2, [r3, #0]
 8002e64:	68fb      	ldr	r3, [r7, #12]
 8002e66:	681b      	ldr	r3, [r3, #0]
 8002e68:	f442 6200 	orr.w	r2, r2, #2048	; 0x800
 8002e6c:	601a      	str	r2, [r3, #0]

      /* Clear ADDR flag */
      __HAL_I2C_CLEAR_ADDRFLAG(hi2c);
 8002e6e:	2300      	movs	r3, #0
 8002e70:	61bb      	str	r3, [r7, #24]
 8002e72:	68fb      	ldr	r3, [r7, #12]
 8002e74:	681b      	ldr	r3, [r3, #0]
 8002e76:	695b      	ldr	r3, [r3, #20]
 8002e78:	61bb      	str	r3, [r7, #24]
 8002e7a:	68fb      	ldr	r3, [r7, #12]
 8002e7c:	681b      	ldr	r3, [r3, #0]
 8002e7e:	699b      	ldr	r3, [r3, #24]
 8002e80:	61bb      	str	r3, [r7, #24]
 8002e82:	69bb      	ldr	r3, [r7, #24]
 8002e84:	e158      	b.n	8003138 <HAL_I2C_Master_Receive+0x430>
    }
    else
    {
      /* Enable Acknowledge */
      SET_BIT(hi2c->Instance->CR1, I2C_CR1_ACK);
 8002e86:	68fb      	ldr	r3, [r7, #12]
 8002e88:	681b      	ldr	r3, [r3, #0]
 8002e8a:	681a      	ldr	r2, [r3, #0]
 8002e8c:	68fb      	ldr	r3, [r7, #12]
 8002e8e:	681b      	ldr	r3, [r3, #0]
 8002e90:	f442 6280 	orr.w	r2, r2, #1024	; 0x400
 8002e94:	601a      	str	r2, [r3, #0]

      /* Clear ADDR flag */
      __HAL_I2C_CLEAR_ADDRFLAG(hi2c);
 8002e96:	2300      	movs	r3, #0
 8002e98:	617b      	str	r3, [r7, #20]
 8002e9a:	68fb      	ldr	r3, [r7, #12]
 8002e9c:	681b      	ldr	r3, [r3, #0]
 8002e9e:	695b      	ldr	r3, [r3, #20]
 8002ea0:	617b      	str	r3, [r7, #20]
 8002ea2:	68fb      	ldr	r3, [r7, #12]
 8002ea4:	681b      	ldr	r3, [r3, #0]
 8002ea6:	699b      	ldr	r3, [r3, #24]
 8002ea8:	617b      	str	r3, [r7, #20]
 8002eaa:	697b      	ldr	r3, [r7, #20]
    }

    while (hi2c->XferSize > 0U)
 8002eac:	e144      	b.n	8003138 <HAL_I2C_Master_Receive+0x430>
    {
      if (hi2c->XferSize <= 3U)
 8002eae:	68fb      	ldr	r3, [r7, #12]
 8002eb0:	8d1b      	ldrh	r3, [r3, #40]	; 0x28
 8002eb2:	2b03      	cmp	r3, #3
 8002eb4:	f200 80f1 	bhi.w	800309a <HAL_I2C_Master_Receive+0x392>
      {
        /* One byte */
        if (hi2c->XferSize == 1U)
 8002eb8:	68fb      	ldr	r3, [r7, #12]
 8002eba:	8d1b      	ldrh	r3, [r3, #40]	; 0x28
 8002ebc:	2b01      	cmp	r3, #1
 8002ebe:	d123      	bne.n	8002f08 <HAL_I2C_Master_Receive+0x200>
        {
          /* Wait until RXNE flag is set */
          if (I2C_WaitOnRXNEFlagUntilTimeout(hi2c, Timeout, tickstart) != HAL_OK)
 8002ec0:	6a7a      	ldr	r2, [r7, #36]	; 0x24
 8002ec2:	6b39      	ldr	r1, [r7, #48]	; 0x30
 8002ec4:	68f8      	ldr	r0, [r7, #12]
 8002ec6:	f000 fc4b 	bl	8003760 <I2C_WaitOnRXNEFlagUntilTimeout>
 8002eca:	4603      	mov	r3, r0
 8002ecc:	2b00      	cmp	r3, #0
 8002ece:	d001      	beq.n	8002ed4 <HAL_I2C_Master_Receive+0x1cc>
          {
            return HAL_ERROR;
 8002ed0:	2301      	movs	r3, #1
 8002ed2:	e145      	b.n	8003160 <HAL_I2C_Master_Receive+0x458>
          }

          /* Read data from DR */
          *hi2c->pBuffPtr = (uint8_t)hi2c->Instance->DR;
 8002ed4:	68fb      	ldr	r3, [r7, #12]
 8002ed6:	681b      	ldr	r3, [r3, #0]
 8002ed8:	691a      	ldr	r2, [r3, #16]
 8002eda:	68fb      	ldr	r3, [r7, #12]
 8002edc:	6a5b      	ldr	r3, [r3, #36]	; 0x24
 8002ede:	b2d2      	uxtb	r2, r2
 8002ee0:	701a      	strb	r2, [r3, #0]

          /* Increment Buffer pointer */
          hi2c->pBuffPtr++;
 8002ee2:	68fb      	ldr	r3, [r7, #12]
 8002ee4:	6a5b      	ldr	r3, [r3, #36]	; 0x24
 8002ee6:	1c5a      	adds	r2, r3, #1
 8002ee8:	68fb      	ldr	r3, [r7, #12]
 8002eea:	625a      	str	r2, [r3, #36]	; 0x24

          /* Update counter */
          hi2c->XferSize--;
 8002eec:	68fb      	ldr	r3, [r7, #12]
 8002eee:	8d1b      	ldrh	r3, [r3, #40]	; 0x28
 8002ef0:	3b01      	subs	r3, #1
 8002ef2:	b29a      	uxth	r2, r3
 8002ef4:	68fb      	ldr	r3, [r7, #12]
 8002ef6:	851a      	strh	r2, [r3, #40]	; 0x28
          hi2c->XferCount--;
 8002ef8:	68fb      	ldr	r3, [r7, #12]
 8002efa:	8d5b      	ldrh	r3, [r3, #42]	; 0x2a
 8002efc:	b29b      	uxth	r3, r3
 8002efe:	3b01      	subs	r3, #1
 8002f00:	b29a      	uxth	r2, r3
 8002f02:	68fb      	ldr	r3, [r7, #12]
 8002f04:	855a      	strh	r2, [r3, #42]	; 0x2a
 8002f06:	e117      	b.n	8003138 <HAL_I2C_Master_Receive+0x430>
        }
        /* Two bytes */
        else if (hi2c->XferSize == 2U)
 8002f08:	68fb      	ldr	r3, [r7, #12]
 8002f0a:	8d1b      	ldrh	r3, [r3, #40]	; 0x28
 8002f0c:	2b02      	cmp	r3, #2
 8002f0e:	d14e      	bne.n	8002fae <HAL_I2C_Master_Receive+0x2a6>
        {
          /* Wait until BTF flag is set */
          if (I2C_WaitOnFlagUntilTimeout(hi2c, I2C_FLAG_BTF, RESET, Timeout, tickstart) != HAL_OK)
 8002f10:	6a7b      	ldr	r3, [r7, #36]	; 0x24
 8002f12:	9300      	str	r3, [sp, #0]
 8002f14:	6b3b      	ldr	r3, [r7, #48]	; 0x30
 8002f16:	2200      	movs	r2, #0
 8002f18:	4906      	ldr	r1, [pc, #24]	; (8002f34 <HAL_I2C_Master_Receive+0x22c>)
 8002f1a:	68f8      	ldr	r0, [r7, #12]
 8002f1c:	f000 fa76 	bl	800340c <I2C_WaitOnFlagUntilTimeout>
 8002f20:	4603      	mov	r3, r0
 8002f22:	2b00      	cmp	r3, #0
 8002f24:	d008      	beq.n	8002f38 <HAL_I2C_Master_Receive+0x230>
          {
            return HAL_ERROR;
 8002f26:	2301      	movs	r3, #1
 8002f28:	e11a      	b.n	8003160 <HAL_I2C_Master_Receive+0x458>
 8002f2a:	bf00      	nop
 8002f2c:	00100002 	.word	0x00100002
 8002f30:	ffff0000 	.word	0xffff0000
 8002f34:	00010004 	.word	0x00010004
          }

          /* Generate Stop */
          SET_BIT(hi2c->Instance->CR1, I2C_CR1_STOP);
 8002f38:	68fb      	ldr	r3, [r7, #12]
 8002f3a:	681b      	ldr	r3, [r3, #0]
 8002f3c:	681a      	ldr	r2, [r3, #0]
 8002f3e:	68fb      	ldr	r3, [r7, #12]
 8002f40:	681b      	ldr	r3, [r3, #0]
 8002f42:	f442 7200 	orr.w	r2, r2, #512	; 0x200
 8002f46:	601a      	str	r2, [r3, #0]

          /* Read data from DR */
          *hi2c->pBuffPtr = (uint8_t)hi2c->Instance->DR;
 8002f48:	68fb      	ldr	r3, [r7, #12]
 8002f4a:	681b      	ldr	r3, [r3, #0]
 8002f4c:	691a      	ldr	r2, [r3, #16]
 8002f4e:	68fb      	ldr	r3, [r7, #12]
 8002f50:	6a5b      	ldr	r3, [r3, #36]	; 0x24
 8002f52:	b2d2      	uxtb	r2, r2
 8002f54:	701a      	strb	r2, [r3, #0]

          /* Increment Buffer pointer */
          hi2c->pBuffPtr++;
 8002f56:	68fb      	ldr	r3, [r7, #12]
 8002f58:	6a5b      	ldr	r3, [r3, #36]	; 0x24
 8002f5a:	1c5a      	adds	r2, r3, #1
 8002f5c:	68fb      	ldr	r3, [r7, #12]
 8002f5e:	625a      	str	r2, [r3, #36]	; 0x24

          /* Update counter */
          hi2c->XferSize--;
 8002f60:	68fb      	ldr	r3, [r7, #12]
 8002f62:	8d1b      	ldrh	r3, [r3, #40]	; 0x28
 8002f64:	3b01      	subs	r3, #1
 8002f66:	b29a      	uxth	r2, r3
 8002f68:	68fb      	ldr	r3, [r7, #12]
 8002f6a:	851a      	strh	r2, [r3, #40]	; 0x28
          hi2c->XferCount--;
 8002f6c:	68fb      	ldr	r3, [r7, #12]
 8002f6e:	8d5b      	ldrh	r3, [r3, #42]	; 0x2a
 8002f70:	b29b      	uxth	r3, r3
 8002f72:	3b01      	subs	r3, #1
 8002f74:	b29a      	uxth	r2, r3
 8002f76:	68fb      	ldr	r3, [r7, #12]
 8002f78:	855a      	strh	r2, [r3, #42]	; 0x2a

          /* Read data from DR */
          *hi2c->pBuffPtr = (uint8_t)hi2c->Instance->DR;
 8002f7a:	68fb      	ldr	r3, [r7, #12]
 8002f7c:	681b      	ldr	r3, [r3, #0]
 8002f7e:	691a      	ldr	r2, [r3, #16]
 8002f80:	68fb      	ldr	r3, [r7, #12]
 8002f82:	6a5b      	ldr	r3, [r3, #36]	; 0x24
 8002f84:	b2d2      	uxtb	r2, r2
 8002f86:	701a      	strb	r2, [r3, #0]

          /* Increment Buffer pointer */
          hi2c->pBuffPtr++;
 8002f88:	68fb      	ldr	r3, [r7, #12]
 8002f8a:	6a5b      	ldr	r3, [r3, #36]	; 0x24
 8002f8c:	1c5a      	adds	r2, r3, #1
 8002f8e:	68fb      	ldr	r3, [r7, #12]
 8002f90:	625a      	str	r2, [r3, #36]	; 0x24

          /* Update counter */
          hi2c->XferSize--;
 8002f92:	68fb      	ldr	r3, [r7, #12]
 8002f94:	8d1b      	ldrh	r3, [r3, #40]	; 0x28
 8002f96:	3b01      	subs	r3, #1
 8002f98:	b29a      	uxth	r2, r3
 8002f9a:	68fb      	ldr	r3, [r7, #12]
 8002f9c:	851a      	strh	r2, [r3, #40]	; 0x28
          hi2c->XferCount--;
 8002f9e:	68fb      	ldr	r3, [r7, #12]
 8002fa0:	8d5b      	ldrh	r3, [r3, #42]	; 0x2a
 8002fa2:	b29b      	uxth	r3, r3
 8002fa4:	3b01      	subs	r3, #1
 8002fa6:	b29a      	uxth	r2, r3
 8002fa8:	68fb      	ldr	r3, [r7, #12]
 8002faa:	855a      	strh	r2, [r3, #42]	; 0x2a
 8002fac:	e0c4      	b.n	8003138 <HAL_I2C_Master_Receive+0x430>
        }
        /* 3 Last bytes */
        else
        {
          /* Wait until BTF flag is set */
          if (I2C_WaitOnFlagUntilTimeout(hi2c, I2C_FLAG_BTF, RESET, Timeout, tickstart) != HAL_OK)
 8002fae:	6a7b      	ldr	r3, [r7, #36]	; 0x24
 8002fb0:	9300      	str	r3, [sp, #0]
 8002fb2:	6b3b      	ldr	r3, [r7, #48]	; 0x30
 8002fb4:	2200      	movs	r2, #0
 8002fb6:	496c      	ldr	r1, [pc, #432]	; (8003168 <HAL_I2C_Master_Receive+0x460>)
 8002fb8:	68f8      	ldr	r0, [r7, #12]
 8002fba:	f000 fa27 	bl	800340c <I2C_WaitOnFlagUntilTimeout>
 8002fbe:	4603      	mov	r3, r0
 8002fc0:	2b00      	cmp	r3, #0
 8002fc2:	d001      	beq.n	8002fc8 <HAL_I2C_Master_Receive+0x2c0>
          {
            return HAL_ERROR;
 8002fc4:	2301      	movs	r3, #1
 8002fc6:	e0cb      	b.n	8003160 <HAL_I2C_Master_Receive+0x458>
          }

          /* Disable Acknowledge */
          CLEAR_BIT(hi2c->Instance->CR1, I2C_CR1_ACK);
 8002fc8:	68fb      	ldr	r3, [r7, #12]
 8002fca:	681b      	ldr	r3, [r3, #0]
 8002fcc:	681a      	ldr	r2, [r3, #0]
 8002fce:	68fb      	ldr	r3, [r7, #12]
 8002fd0:	681b      	ldr	r3, [r3, #0]
 8002fd2:	f422 6280 	bic.w	r2, r2, #1024	; 0x400
 8002fd6:	601a      	str	r2, [r3, #0]

          /* Read data from DR */
          *hi2c->pBuffPtr = (uint8_t)hi2c->Instance->DR;
 8002fd8:	68fb      	ldr	r3, [r7, #12]
 8002fda:	681b      	ldr	r3, [r3, #0]
 8002fdc:	691a      	ldr	r2, [r3, #16]
 8002fde:	68fb      	ldr	r3, [r7, #12]
 8002fe0:	6a5b      	ldr	r3, [r3, #36]	; 0x24
 8002fe2:	b2d2      	uxtb	r2, r2
 8002fe4:	701a      	strb	r2, [r3, #0]

          /* Increment Buffer pointer */
          hi2c->pBuffPtr++;
 8002fe6:	68fb      	ldr	r3, [r7, #12]
 8002fe8:	6a5b      	ldr	r3, [r3, #36]	; 0x24
 8002fea:	1c5a      	adds	r2, r3, #1
 8002fec:	68fb      	ldr	r3, [r7, #12]
 8002fee:	625a      	str	r2, [r3, #36]	; 0x24

          /* Update counter */
          hi2c->XferSize--;
 8002ff0:	68fb      	ldr	r3, [r7, #12]
 8002ff2:	8d1b      	ldrh	r3, [r3, #40]	; 0x28
 8002ff4:	3b01      	subs	r3, #1
 8002ff6:	b29a      	uxth	r2, r3
 8002ff8:	68fb      	ldr	r3, [r7, #12]
 8002ffa:	851a      	strh	r2, [r3, #40]	; 0x28
          hi2c->XferCount--;
 8002ffc:	68fb      	ldr	r3, [r7, #12]
 8002ffe:	8d5b      	ldrh	r3, [r3, #42]	; 0x2a
 8003000:	b29b      	uxth	r3, r3
 8003002:	3b01      	subs	r3, #1
 8003004:	b29a      	uxth	r2, r3
 8003006:	68fb      	ldr	r3, [r7, #12]
 8003008:	855a      	strh	r2, [r3, #42]	; 0x2a

          /* Wait until BTF flag is set */
          if (I2C_WaitOnFlagUntilTimeout(hi2c, I2C_FLAG_BTF, RESET, Timeout, tickstart) != HAL_OK)
 800300a:	6a7b      	ldr	r3, [r7, #36]	; 0x24
 800300c:	9300      	str	r3, [sp, #0]
 800300e:	6b3b      	ldr	r3, [r7, #48]	; 0x30
 8003010:	2200      	movs	r2, #0
 8003012:	4955      	ldr	r1, [pc, #340]	; (8003168 <HAL_I2C_Master_Receive+0x460>)
 8003014:	68f8      	ldr	r0, [r7, #12]
 8003016:	f000 f9f9 	bl	800340c <I2C_WaitOnFlagUntilTimeout>
 800301a:	4603      	mov	r3, r0
 800301c:	2b00      	cmp	r3, #0
 800301e:	d001      	beq.n	8003024 <HAL_I2C_Master_Receive+0x31c>
          {
            return HAL_ERROR;
 8003020:	2301      	movs	r3, #1
 8003022:	e09d      	b.n	8003160 <HAL_I2C_Master_Receive+0x458>
          }

          /* Generate Stop */
          SET_BIT(hi2c->Instance->CR1, I2C_CR1_STOP);
 8003024:	68fb      	ldr	r3, [r7, #12]
 8003026:	681b      	ldr	r3, [r3, #0]
 8003028:	681a      	ldr	r2, [r3, #0]
 800302a:	68fb      	ldr	r3, [r7, #12]
 800302c:	681b      	ldr	r3, [r3, #0]
 800302e:	f442 7200 	orr.w	r2, r2, #512	; 0x200
 8003032:	601a      	str	r2, [r3, #0]

          /* Read data from DR */
          *hi2c->pBuffPtr = (uint8_t)hi2c->Instance->DR;
 8003034:	68fb      	ldr	r3, [r7, #12]
 8003036:	681b      	ldr	r3, [r3, #0]
 8003038:	691a      	ldr	r2, [r3, #16]
 800303a:	68fb      	ldr	r3, [r7, #12]
 800303c:	6a5b      	ldr	r3, [r3, #36]	; 0x24
 800303e:	b2d2      	uxtb	r2, r2
 8003040:	701a      	strb	r2, [r3, #0]

          /* Increment Buffer pointer */
          hi2c->pBuffPtr++;
 8003042:	68fb      	ldr	r3, [r7, #12]
 8003044:	6a5b      	ldr	r3, [r3, #36]	; 0x24
 8003046:	1c5a      	adds	r2, r3, #1
 8003048:	68fb      	ldr	r3, [r7, #12]
 800304a:	625a      	str	r2, [r3, #36]	; 0x24

          /* Update counter */
          hi2c->XferSize--;
 800304c:	68fb      	ldr	r3, [r7, #12]
 800304e:	8d1b      	ldrh	r3, [r3, #40]	; 0x28
 8003050:	3b01      	subs	r3, #1
 8003052:	b29a      	uxth	r2, r3
 8003054:	68fb      	ldr	r3, [r7, #12]
 8003056:	851a      	strh	r2, [r3, #40]	; 0x28
          hi2c->XferCount--;
 8003058:	68fb      	ldr	r3, [r7, #12]
 800305a:	8d5b      	ldrh	r3, [r3, #42]	; 0x2a
 800305c:	b29b      	uxth	r3, r3
 800305e:	3b01      	subs	r3, #1
 8003060:	b29a      	uxth	r2, r3
 8003062:	68fb      	ldr	r3, [r7, #12]
 8003064:	855a      	strh	r2, [r3, #42]	; 0x2a

          /* Read data from DR */
          *hi2c->pBuffPtr = (uint8_t)hi2c->Instance->DR;
 8003066:	68fb      	ldr	r3, [r7, #12]
 8003068:	681b      	ldr	r3, [r3, #0]
 800306a:	691a      	ldr	r2, [r3, #16]
 800306c:	68fb      	ldr	r3, [r7, #12]
 800306e:	6a5b      	ldr	r3, [r3, #36]	; 0x24
 8003070:	b2d2      	uxtb	r2, r2
 8003072:	701a      	strb	r2, [r3, #0]

          /* Increment Buffer pointer */
          hi2c->pBuffPtr++;
 8003074:	68fb      	ldr	r3, [r7, #12]
 8003076:	6a5b      	ldr	r3, [r3, #36]	; 0x24
 8003078:	1c5a      	adds	r2, r3, #1
 800307a:	68fb      	ldr	r3, [r7, #12]
 800307c:	625a      	str	r2, [r3, #36]	; 0x24

          /* Update counter */
          hi2c->XferSize--;
 800307e:	68fb      	ldr	r3, [r7, #12]
 8003080:	8d1b      	ldrh	r3, [r3, #40]	; 0x28
 8003082:	3b01      	subs	r3, #1
 8003084:	b29a      	uxth	r2, r3
 8003086:	68fb      	ldr	r3, [r7, #12]
 8003088:	851a      	strh	r2, [r3, #40]	; 0x28
          hi2c->XferCount--;
 800308a:	68fb      	ldr	r3, [r7, #12]
 800308c:	8d5b      	ldrh	r3, [r3, #42]	; 0x2a
 800308e:	b29b      	uxth	r3, r3
 8003090:	3b01      	subs	r3, #1
 8003092:	b29a      	uxth	r2, r3
 8003094:	68fb      	ldr	r3, [r7, #12]
 8003096:	855a      	strh	r2, [r3, #42]	; 0x2a
 8003098:	e04e      	b.n	8003138 <HAL_I2C_Master_Receive+0x430>
        }
      }
      else
      {
        /* Wait until RXNE flag is set */
        if (I2C_WaitOnRXNEFlagUntilTimeout(hi2c, Timeout, tickstart) != HAL_OK)
 800309a:	6a7a      	ldr	r2, [r7, #36]	; 0x24
 800309c:	6b39      	ldr	r1, [r7, #48]	; 0x30
 800309e:	68f8      	ldr	r0, [r7, #12]
 80030a0:	f000 fb5e 	bl	8003760 <I2C_WaitOnRXNEFlagUntilTimeout>
 80030a4:	4603      	mov	r3, r0
 80030a6:	2b00      	cmp	r3, #0
 80030a8:	d001      	beq.n	80030ae <HAL_I2C_Master_Receive+0x3a6>
        {
          return HAL_ERROR;
 80030aa:	2301      	movs	r3, #1
 80030ac:	e058      	b.n	8003160 <HAL_I2C_Master_Receive+0x458>
        }

        /* Read data from DR */
        *hi2c->pBuffPtr = (uint8_t)hi2c->Instance->DR;
 80030ae:	68fb      	ldr	r3, [r7, #12]
 80030b0:	681b      	ldr	r3, [r3, #0]
 80030b2:	691a      	ldr	r2, [r3, #16]
 80030b4:	68fb      	ldr	r3, [r7, #12]
 80030b6:	6a5b      	ldr	r3, [r3, #36]	; 0x24
 80030b8:	b2d2      	uxtb	r2, r2
 80030ba:	701a      	strb	r2, [r3, #0]

        /* Increment Buffer pointer */
        hi2c->pBuffPtr++;
 80030bc:	68fb      	ldr	r3, [r7, #12]
 80030be:	6a5b      	ldr	r3, [r3, #36]	; 0x24
 80030c0:	1c5a      	adds	r2, r3, #1
 80030c2:	68fb      	ldr	r3, [r7, #12]
 80030c4:	625a      	str	r2, [r3, #36]	; 0x24

        /* Update counter */
        hi2c->XferSize--;
 80030c6:	68fb      	ldr	r3, [r7, #12]
 80030c8:	8d1b      	ldrh	r3, [r3, #40]	; 0x28
 80030ca:	3b01      	subs	r3, #1
 80030cc:	b29a      	uxth	r2, r3
 80030ce:	68fb      	ldr	r3, [r7, #12]
 80030d0:	851a      	strh	r2, [r3, #40]	; 0x28
        hi2c->XferCount--;
 80030d2:	68fb      	ldr	r3, [r7, #12]
 80030d4:	8d5b      	ldrh	r3, [r3, #42]	; 0x2a
 80030d6:	b29b      	uxth	r3, r3
 80030d8:	3b01      	subs	r3, #1
 80030da:	b29a      	uxth	r2, r3
 80030dc:	68fb      	ldr	r3, [r7, #12]
 80030de:	855a      	strh	r2, [r3, #42]	; 0x2a

        if (__HAL_I2C_GET_FLAG(hi2c, I2C_FLAG_BTF) == SET)
 80030e0:	68fb      	ldr	r3, [r7, #12]
 80030e2:	681b      	ldr	r3, [r3, #0]
 80030e4:	695b      	ldr	r3, [r3, #20]
 80030e6:	f003 0304 	and.w	r3, r3, #4
 80030ea:	2b04      	cmp	r3, #4
 80030ec:	d124      	bne.n	8003138 <HAL_I2C_Master_Receive+0x430>
        {

          if (hi2c->XferSize == 3U)
 80030ee:	68fb      	ldr	r3, [r7, #12]
 80030f0:	8d1b      	ldrh	r3, [r3, #40]	; 0x28
 80030f2:	2b03      	cmp	r3, #3
 80030f4:	d107      	bne.n	8003106 <HAL_I2C_Master_Receive+0x3fe>
          {
            /* Disable Acknowledge */
            CLEAR_BIT(hi2c->Instance->CR1, I2C_CR1_ACK);
 80030f6:	68fb      	ldr	r3, [r7, #12]
 80030f8:	681b      	ldr	r3, [r3, #0]
 80030fa:	681a      	ldr	r2, [r3, #0]
 80030fc:	68fb      	ldr	r3, [r7, #12]
 80030fe:	681b      	ldr	r3, [r3, #0]
 8003100:	f422 6280 	bic.w	r2, r2, #1024	; 0x400
 8003104:	601a      	str	r2, [r3, #0]
          }

          /* Read data from DR */
          *hi2c->pBuffPtr = (uint8_t)hi2c->Instance->DR;
 8003106:	68fb      	ldr	r3, [r7, #12]
 8003108:	681b      	ldr	r3, [r3, #0]
 800310a:	691a      	ldr	r2, [r3, #16]
 800310c:	68fb      	ldr	r3, [r7, #12]
 800310e:	6a5b      	ldr	r3, [r3, #36]	; 0x24
 8003110:	b2d2      	uxtb	r2, r2
 8003112:	701a      	strb	r2, [r3, #0]

          /* Increment Buffer pointer */
          hi2c->pBuffPtr++;
 8003114:	68fb      	ldr	r3, [r7, #12]
 8003116:	6a5b      	ldr	r3, [r3, #36]	; 0x24
 8003118:	1c5a      	adds	r2, r3, #1
 800311a:	68fb      	ldr	r3, [r7, #12]
 800311c:	625a      	str	r2, [r3, #36]	; 0x24

          /* Update counter */
          hi2c->XferSize--;
 800311e:	68fb      	ldr	r3, [r7, #12]
 8003120:	8d1b      	ldrh	r3, [r3, #40]	; 0x28
 8003122:	3b01      	subs	r3, #1
 8003124:	b29a      	uxth	r2, r3
 8003126:	68fb      	ldr	r3, [r7, #12]
 8003128:	851a      	strh	r2, [r3, #40]	; 0x28
          hi2c->XferCount--;
 800312a:	68fb      	ldr	r3, [r7, #12]
 800312c:	8d5b      	ldrh	r3, [r3, #42]	; 0x2a
 800312e:	b29b      	uxth	r3, r3
 8003130:	3b01      	subs	r3, #1
 8003132:	b29a      	uxth	r2, r3
 8003134:	68fb      	ldr	r3, [r7, #12]
 8003136:	855a      	strh	r2, [r3, #42]	; 0x2a
    while (hi2c->XferSize > 0U)
 8003138:	68fb      	ldr	r3, [r7, #12]
 800313a:	8d1b      	ldrh	r3, [r3, #40]	; 0x28
 800313c:	2b00      	cmp	r3, #0
 800313e:	f47f aeb6 	bne.w	8002eae <HAL_I2C_Master_Receive+0x1a6>
        }
      }
    }

    hi2c->State = HAL_I2C_STATE_READY;
 8003142:	68fb      	ldr	r3, [r7, #12]
 8003144:	2220      	movs	r2, #32
 8003146:	f883 203d 	strb.w	r2, [r3, #61]	; 0x3d
    hi2c->Mode = HAL_I2C_MODE_NONE;
 800314a:	68fb      	ldr	r3, [r7, #12]
 800314c:	2200      	movs	r2, #0
 800314e:	f883 203e 	strb.w	r2, [r3, #62]	; 0x3e

    /* Process Unlocked */
    __HAL_UNLOCK(hi2c);
 8003152:	68fb      	ldr	r3, [r7, #12]
 8003154:	2200      	movs	r2, #0
 8003156:	f883 203c 	strb.w	r2, [r3, #60]	; 0x3c

    return HAL_OK;
 800315a:	2300      	movs	r3, #0
 800315c:	e000      	b.n	8003160 <HAL_I2C_Master_Receive+0x458>
  }
  else
  {
    return HAL_BUSY;
 800315e:	2302      	movs	r3, #2
  }
}
 8003160:	4618      	mov	r0, r3
 8003162:	3728      	adds	r7, #40	; 0x28
 8003164:	46bd      	mov	sp, r7
 8003166:	bd80      	pop	{r7, pc}
 8003168:	00010004 	.word	0x00010004

0800316c <I2C_MasterRequestWrite>:
  * @param  Timeout Timeout duration
  * @param  Tickstart Tick start value
  * @retval HAL status
  */
static HAL_StatusTypeDef I2C_MasterRequestWrite(I2C_HandleTypeDef *hi2c, uint16_t DevAddress, uint32_t Timeout, uint32_t Tickstart)
{
 800316c:	b580      	push	{r7, lr}
 800316e:	b088      	sub	sp, #32
 8003170:	af02      	add	r7, sp, #8
 8003172:	60f8      	str	r0, [r7, #12]
 8003174:	607a      	str	r2, [r7, #4]
 8003176:	603b      	str	r3, [r7, #0]
 8003178:	460b      	mov	r3, r1
 800317a:	817b      	strh	r3, [r7, #10]
  /* Declaration of temporary variable to prevent undefined behavior of volatile usage */
  uint32_t CurrentXferOptions = hi2c->XferOptions;
 800317c:	68fb      	ldr	r3, [r7, #12]
 800317e:	6adb      	ldr	r3, [r3, #44]	; 0x2c
 8003180:	617b      	str	r3, [r7, #20]

  /* Generate Start condition if first transfer */
  if ((CurrentXferOptions == I2C_FIRST_AND_LAST_FRAME) || (CurrentXferOptions == I2C_FIRST_FRAME) || (CurrentXferOptions == I2C_NO_OPTION_FRAME))
 8003182:	697b      	ldr	r3, [r7, #20]
 8003184:	2b08      	cmp	r3, #8
 8003186:	d006      	beq.n	8003196 <I2C_MasterRequestWrite+0x2a>
 8003188:	697b      	ldr	r3, [r7, #20]
 800318a:	2b01      	cmp	r3, #1
 800318c:	d003      	beq.n	8003196 <I2C_MasterRequestWrite+0x2a>
 800318e:	697b      	ldr	r3, [r7, #20]
 8003190:	f513 3f80 	cmn.w	r3, #65536	; 0x10000
 8003194:	d108      	bne.n	80031a8 <I2C_MasterRequestWrite+0x3c>
  {
    /* Generate Start */
    SET_BIT(hi2c->Instance->CR1, I2C_CR1_START);
 8003196:	68fb      	ldr	r3, [r7, #12]
 8003198:	681b      	ldr	r3, [r3, #0]
 800319a:	681a      	ldr	r2, [r3, #0]
 800319c:	68fb      	ldr	r3, [r7, #12]
 800319e:	681b      	ldr	r3, [r3, #0]
 80031a0:	f442 7280 	orr.w	r2, r2, #256	; 0x100
 80031a4:	601a      	str	r2, [r3, #0]
 80031a6:	e00b      	b.n	80031c0 <I2C_MasterRequestWrite+0x54>
  }
  else if (hi2c->PreviousState == I2C_STATE_MASTER_BUSY_RX)
 80031a8:	68fb      	ldr	r3, [r7, #12]
 80031aa:	6b1b      	ldr	r3, [r3, #48]	; 0x30
 80031ac:	2b12      	cmp	r3, #18
 80031ae:	d107      	bne.n	80031c0 <I2C_MasterRequestWrite+0x54>
  {
    /* Generate ReStart */
    SET_BIT(hi2c->Instance->CR1, I2C_CR1_START);
 80031b0:	68fb      	ldr	r3, [r7, #12]
 80031b2:	681b      	ldr	r3, [r3, #0]
 80031b4:	681a      	ldr	r2, [r3, #0]
 80031b6:	68fb      	ldr	r3, [r7, #12]
 80031b8:	681b      	ldr	r3, [r3, #0]
 80031ba:	f442 7280 	orr.w	r2, r2, #256	; 0x100
 80031be:	601a      	str	r2, [r3, #0]
  {
    /* Do nothing */
  }

  /* Wait until SB flag is set */
  if (I2C_WaitOnFlagUntilTimeout(hi2c, I2C_FLAG_SB, RESET, Timeout, Tickstart) != HAL_OK)
 80031c0:	683b      	ldr	r3, [r7, #0]
 80031c2:	9300      	str	r3, [sp, #0]
 80031c4:	687b      	ldr	r3, [r7, #4]
 80031c6:	2200      	movs	r2, #0
 80031c8:	f04f 1101 	mov.w	r1, #65537	; 0x10001
 80031cc:	68f8      	ldr	r0, [r7, #12]
 80031ce:	f000 f91d 	bl	800340c <I2C_WaitOnFlagUntilTimeout>
 80031d2:	4603      	mov	r3, r0
 80031d4:	2b00      	cmp	r3, #0
 80031d6:	d00d      	beq.n	80031f4 <I2C_MasterRequestWrite+0x88>
  {
    if (READ_BIT(hi2c->Instance->CR1, I2C_CR1_START) == I2C_CR1_START)
 80031d8:	68fb      	ldr	r3, [r7, #12]
 80031da:	681b      	ldr	r3, [r3, #0]
 80031dc:	681b      	ldr	r3, [r3, #0]
 80031de:	f403 7380 	and.w	r3, r3, #256	; 0x100
 80031e2:	f5b3 7f80 	cmp.w	r3, #256	; 0x100
 80031e6:	d103      	bne.n	80031f0 <I2C_MasterRequestWrite+0x84>
    {
      hi2c->ErrorCode = HAL_I2C_WRONG_START;
 80031e8:	68fb      	ldr	r3, [r7, #12]
 80031ea:	f44f 7200 	mov.w	r2, #512	; 0x200
 80031ee:	641a      	str	r2, [r3, #64]	; 0x40
    }
    return HAL_TIMEOUT;
 80031f0:	2303      	movs	r3, #3
 80031f2:	e035      	b.n	8003260 <I2C_MasterRequestWrite+0xf4>
  }

  if (hi2c->Init.AddressingMode == I2C_ADDRESSINGMODE_7BIT)
 80031f4:	68fb      	ldr	r3, [r7, #12]
 80031f6:	691b      	ldr	r3, [r3, #16]
 80031f8:	f5b3 4f80 	cmp.w	r3, #16384	; 0x4000
 80031fc:	d108      	bne.n	8003210 <I2C_MasterRequestWrite+0xa4>
  {
    /* Send slave address */
    hi2c->Instance->DR = I2C_7BIT_ADD_WRITE(DevAddress);
 80031fe:	897b      	ldrh	r3, [r7, #10]
 8003200:	b2db      	uxtb	r3, r3
 8003202:	461a      	mov	r2, r3
 8003204:	68fb      	ldr	r3, [r7, #12]
 8003206:	681b      	ldr	r3, [r3, #0]
 8003208:	f002 02fe 	and.w	r2, r2, #254	; 0xfe
 800320c:	611a      	str	r2, [r3, #16]
 800320e:	e01b      	b.n	8003248 <I2C_MasterRequestWrite+0xdc>
  }
  else
  {
    /* Send header of slave address */
    hi2c->Instance->DR = I2C_10BIT_HEADER_WRITE(DevAddress);
 8003210:	897b      	ldrh	r3, [r7, #10]
 8003212:	11db      	asrs	r3, r3, #7
 8003214:	b2db      	uxtb	r3, r3
 8003216:	f003 0306 	and.w	r3, r3, #6
 800321a:	b2db      	uxtb	r3, r3
 800321c:	f063 030f 	orn	r3, r3, #15
 8003220:	b2da      	uxtb	r2, r3
 8003222:	68fb      	ldr	r3, [r7, #12]
 8003224:	681b      	ldr	r3, [r3, #0]
 8003226:	611a      	str	r2, [r3, #16]

    /* Wait until ADD10 flag is set */
    if (I2C_WaitOnMasterAddressFlagUntilTimeout(hi2c, I2C_FLAG_ADD10, Timeout, Tickstart) != HAL_OK)
 8003228:	683b      	ldr	r3, [r7, #0]
 800322a:	687a      	ldr	r2, [r7, #4]
 800322c:	490e      	ldr	r1, [pc, #56]	; (8003268 <I2C_MasterRequestWrite+0xfc>)
 800322e:	68f8      	ldr	r0, [r7, #12]
 8003230:	f000 f966 	bl	8003500 <I2C_WaitOnMasterAddressFlagUntilTimeout>
 8003234:	4603      	mov	r3, r0
 8003236:	2b00      	cmp	r3, #0
 8003238:	d001      	beq.n	800323e <I2C_MasterRequestWrite+0xd2>
    {
      return HAL_ERROR;
 800323a:	2301      	movs	r3, #1
 800323c:	e010      	b.n	8003260 <I2C_MasterRequestWrite+0xf4>
    }

    /* Send slave address */
    hi2c->Instance->DR = I2C_10BIT_ADDRESS(DevAddress);
 800323e:	897b      	ldrh	r3, [r7, #10]
 8003240:	b2da      	uxtb	r2, r3
 8003242:	68fb      	ldr	r3, [r7, #12]
 8003244:	681b      	ldr	r3, [r3, #0]
 8003246:	611a      	str	r2, [r3, #16]
  }

  /* Wait until ADDR flag is set */
  if (I2C_WaitOnMasterAddressFlagUntilTimeout(hi2c, I2C_FLAG_ADDR, Timeout, Tickstart) != HAL_OK)
 8003248:	683b      	ldr	r3, [r7, #0]
 800324a:	687a      	ldr	r2, [r7, #4]
 800324c:	4907      	ldr	r1, [pc, #28]	; (800326c <I2C_MasterRequestWrite+0x100>)
 800324e:	68f8      	ldr	r0, [r7, #12]
 8003250:	f000 f956 	bl	8003500 <I2C_WaitOnMasterAddressFlagUntilTimeout>
 8003254:	4603      	mov	r3, r0
 8003256:	2b00      	cmp	r3, #0
 8003258:	d001      	beq.n	800325e <I2C_MasterRequestWrite+0xf2>
  {
    return HAL_ERROR;
 800325a:	2301      	movs	r3, #1
 800325c:	e000      	b.n	8003260 <I2C_MasterRequestWrite+0xf4>
  }

  return HAL_OK;
 800325e:	2300      	movs	r3, #0
}
 8003260:	4618      	mov	r0, r3
 8003262:	3718      	adds	r7, #24
 8003264:	46bd      	mov	sp, r7
 8003266:	bd80      	pop	{r7, pc}
 8003268:	00010008 	.word	0x00010008
 800326c:	00010002 	.word	0x00010002

08003270 <I2C_MasterRequestRead>:
  * @param  Timeout Timeout duration
  * @param  Tickstart Tick start value
  * @retval HAL status
  */
static HAL_StatusTypeDef I2C_MasterRequestRead(I2C_HandleTypeDef *hi2c, uint16_t DevAddress, uint32_t Timeout, uint32_t Tickstart)
{
 8003270:	b580      	push	{r7, lr}
 8003272:	b088      	sub	sp, #32
 8003274:	af02      	add	r7, sp, #8
 8003276:	60f8      	str	r0, [r7, #12]
 8003278:	607a      	str	r2, [r7, #4]
 800327a:	603b      	str	r3, [r7, #0]
 800327c:	460b      	mov	r3, r1
 800327e:	817b      	strh	r3, [r7, #10]
  /* Declaration of temporary variable to prevent undefined behavior of volatile usage */
  uint32_t CurrentXferOptions = hi2c->XferOptions;
 8003280:	68fb      	ldr	r3, [r7, #12]
 8003282:	6adb      	ldr	r3, [r3, #44]	; 0x2c
 8003284:	617b      	str	r3, [r7, #20]

  /* Enable Acknowledge */
  SET_BIT(hi2c->Instance->CR1, I2C_CR1_ACK);
 8003286:	68fb      	ldr	r3, [r7, #12]
 8003288:	681b      	ldr	r3, [r3, #0]
 800328a:	681a      	ldr	r2, [r3, #0]
 800328c:	68fb      	ldr	r3, [r7, #12]
 800328e:	681b      	ldr	r3, [r3, #0]
 8003290:	f442 6280 	orr.w	r2, r2, #1024	; 0x400
 8003294:	601a      	str	r2, [r3, #0]

  /* Generate Start condition if first transfer */
  if ((CurrentXferOptions == I2C_FIRST_AND_LAST_FRAME) || (CurrentXferOptions == I2C_FIRST_FRAME)  || (CurrentXferOptions == I2C_NO_OPTION_FRAME))
 8003296:	697b      	ldr	r3, [r7, #20]
 8003298:	2b08      	cmp	r3, #8
 800329a:	d006      	beq.n	80032aa <I2C_MasterRequestRead+0x3a>
 800329c:	697b      	ldr	r3, [r7, #20]
 800329e:	2b01      	cmp	r3, #1
 80032a0:	d003      	beq.n	80032aa <I2C_MasterRequestRead+0x3a>
 80032a2:	697b      	ldr	r3, [r7, #20]
 80032a4:	f513 3f80 	cmn.w	r3, #65536	; 0x10000
 80032a8:	d108      	bne.n	80032bc <I2C_MasterRequestRead+0x4c>
  {
    /* Generate Start */
    SET_BIT(hi2c->Instance->CR1, I2C_CR1_START);
 80032aa:	68fb      	ldr	r3, [r7, #12]
 80032ac:	681b      	ldr	r3, [r3, #0]
 80032ae:	681a      	ldr	r2, [r3, #0]
 80032b0:	68fb      	ldr	r3, [r7, #12]
 80032b2:	681b      	ldr	r3, [r3, #0]
 80032b4:	f442 7280 	orr.w	r2, r2, #256	; 0x100
 80032b8:	601a      	str	r2, [r3, #0]
 80032ba:	e00b      	b.n	80032d4 <I2C_MasterRequestRead+0x64>
  }
  else if (hi2c->PreviousState == I2C_STATE_MASTER_BUSY_TX)
 80032bc:	68fb      	ldr	r3, [r7, #12]
 80032be:	6b1b      	ldr	r3, [r3, #48]	; 0x30
 80032c0:	2b11      	cmp	r3, #17
 80032c2:	d107      	bne.n	80032d4 <I2C_MasterRequestRead+0x64>
  {
    /* Generate ReStart */
    SET_BIT(hi2c->Instance->CR1, I2C_CR1_START);
 80032c4:	68fb      	ldr	r3, [r7, #12]
 80032c6:	681b      	ldr	r3, [r3, #0]
 80032c8:	681a      	ldr	r2, [r3, #0]
 80032ca:	68fb      	ldr	r3, [r7, #12]
 80032cc:	681b      	ldr	r3, [r3, #0]
 80032ce:	f442 7280 	orr.w	r2, r2, #256	; 0x100
 80032d2:	601a      	str	r2, [r3, #0]
  {
    /* Do nothing */
  }

  /* Wait until SB flag is set */
  if (I2C_WaitOnFlagUntilTimeout(hi2c, I2C_FLAG_SB, RESET, Timeout, Tickstart) != HAL_OK)
 80032d4:	683b      	ldr	r3, [r7, #0]
 80032d6:	9300      	str	r3, [sp, #0]
 80032d8:	687b      	ldr	r3, [r7, #4]
 80032da:	2200      	movs	r2, #0
 80032dc:	f04f 1101 	mov.w	r1, #65537	; 0x10001
 80032e0:	68f8      	ldr	r0, [r7, #12]
 80032e2:	f000 f893 	bl	800340c <I2C_WaitOnFlagUntilTimeout>
 80032e6:	4603      	mov	r3, r0
 80032e8:	2b00      	cmp	r3, #0
 80032ea:	d00d      	beq.n	8003308 <I2C_MasterRequestRead+0x98>
  {
    if (READ_BIT(hi2c->Instance->CR1, I2C_CR1_START) == I2C_CR1_START)
 80032ec:	68fb      	ldr	r3, [r7, #12]
 80032ee:	681b      	ldr	r3, [r3, #0]
 80032f0:	681b      	ldr	r3, [r3, #0]
 80032f2:	f403 7380 	and.w	r3, r3, #256	; 0x100
 80032f6:	f5b3 7f80 	cmp.w	r3, #256	; 0x100
 80032fa:	d103      	bne.n	8003304 <I2C_MasterRequestRead+0x94>
    {
      hi2c->ErrorCode = HAL_I2C_WRONG_START;
 80032fc:	68fb      	ldr	r3, [r7, #12]
 80032fe:	f44f 7200 	mov.w	r2, #512	; 0x200
 8003302:	641a      	str	r2, [r3, #64]	; 0x40
    }
    return HAL_TIMEOUT;
 8003304:	2303      	movs	r3, #3
 8003306:	e079      	b.n	80033fc <I2C_MasterRequestRead+0x18c>
  }

  if (hi2c->Init.AddressingMode == I2C_ADDRESSINGMODE_7BIT)
 8003308:	68fb      	ldr	r3, [r7, #12]
 800330a:	691b      	ldr	r3, [r3, #16]
 800330c:	f5b3 4f80 	cmp.w	r3, #16384	; 0x4000
 8003310:	d108      	bne.n	8003324 <I2C_MasterRequestRead+0xb4>
  {
    /* Send slave address */
    hi2c->Instance->DR = I2C_7BIT_ADD_READ(DevAddress);
 8003312:	897b      	ldrh	r3, [r7, #10]
 8003314:	b2db      	uxtb	r3, r3
 8003316:	f043 0301 	orr.w	r3, r3, #1
 800331a:	b2da      	uxtb	r2, r3
 800331c:	68fb      	ldr	r3, [r7, #12]
 800331e:	681b      	ldr	r3, [r3, #0]
 8003320:	611a      	str	r2, [r3, #16]
 8003322:	e05f      	b.n	80033e4 <I2C_MasterRequestRead+0x174>
  }
  else
  {
    /* Send header of slave address */
    hi2c->Instance->DR = I2C_10BIT_HEADER_WRITE(DevAddress);
 8003324:	897b      	ldrh	r3, [r7, #10]
 8003326:	11db      	asrs	r3, r3, #7
 8003328:	b2db      	uxtb	r3, r3
 800332a:	f003 0306 	and.w	r3, r3, #6
 800332e:	b2db      	uxtb	r3, r3
 8003330:	f063 030f 	orn	r3, r3, #15
 8003334:	b2da      	uxtb	r2, r3
 8003336:	68fb      	ldr	r3, [r7, #12]
 8003338:	681b      	ldr	r3, [r3, #0]
 800333a:	611a      	str	r2, [r3, #16]

    /* Wait until ADD10 flag is set */
    if (I2C_WaitOnMasterAddressFlagUntilTimeout(hi2c, I2C_FLAG_ADD10, Timeout, Tickstart) != HAL_OK)
 800333c:	683b      	ldr	r3, [r7, #0]
 800333e:	687a      	ldr	r2, [r7, #4]
 8003340:	4930      	ldr	r1, [pc, #192]	; (8003404 <I2C_MasterRequestRead+0x194>)
 8003342:	68f8      	ldr	r0, [r7, #12]
 8003344:	f000 f8dc 	bl	8003500 <I2C_WaitOnMasterAddressFlagUntilTimeout>
 8003348:	4603      	mov	r3, r0
 800334a:	2b00      	cmp	r3, #0
 800334c:	d001      	beq.n	8003352 <I2C_MasterRequestRead+0xe2>
    {
      return HAL_ERROR;
 800334e:	2301      	movs	r3, #1
 8003350:	e054      	b.n	80033fc <I2C_MasterRequestRead+0x18c>
    }

    /* Send slave address */
    hi2c->Instance->DR = I2C_10BIT_ADDRESS(DevAddress);
 8003352:	897b      	ldrh	r3, [r7, #10]
 8003354:	b2da      	uxtb	r2, r3
 8003356:	68fb      	ldr	r3, [r7, #12]
 8003358:	681b      	ldr	r3, [r3, #0]
 800335a:	611a      	str	r2, [r3, #16]

    /* Wait until ADDR flag is set */
    if (I2C_WaitOnMasterAddressFlagUntilTimeout(hi2c, I2C_FLAG_ADDR, Timeout, Tickstart) != HAL_OK)
 800335c:	683b      	ldr	r3, [r7, #0]
 800335e:	687a      	ldr	r2, [r7, #4]
 8003360:	4929      	ldr	r1, [pc, #164]	; (8003408 <I2C_MasterRequestRead+0x198>)
 8003362:	68f8      	ldr	r0, [r7, #12]
 8003364:	f000 f8cc 	bl	8003500 <I2C_WaitOnMasterAddressFlagUntilTimeout>
 8003368:	4603      	mov	r3, r0
 800336a:	2b00      	cmp	r3, #0
 800336c:	d001      	beq.n	8003372 <I2C_MasterRequestRead+0x102>
    {
      return HAL_ERROR;
 800336e:	2301      	movs	r3, #1
 8003370:	e044      	b.n	80033fc <I2C_MasterRequestRead+0x18c>
    }

    /* Clear ADDR flag */
    __HAL_I2C_CLEAR_ADDRFLAG(hi2c);
 8003372:	2300      	movs	r3, #0
 8003374:	613b      	str	r3, [r7, #16]
 8003376:	68fb      	ldr	r3, [r7, #12]
 8003378:	681b      	ldr	r3, [r3, #0]
 800337a:	695b      	ldr	r3, [r3, #20]
 800337c:	613b      	str	r3, [r7, #16]
 800337e:	68fb      	ldr	r3, [r7, #12]
 8003380:	681b      	ldr	r3, [r3, #0]
 8003382:	699b      	ldr	r3, [r3, #24]
 8003384:	613b      	str	r3, [r7, #16]
 8003386:	693b      	ldr	r3, [r7, #16]

    /* Generate Restart */
    SET_BIT(hi2c->Instance->CR1, I2C_CR1_START);
 8003388:	68fb      	ldr	r3, [r7, #12]
 800338a:	681b      	ldr	r3, [r3, #0]
 800338c:	681a      	ldr	r2, [r3, #0]
 800338e:	68fb      	ldr	r3, [r7, #12]
 8003390:	681b      	ldr	r3, [r3, #0]
 8003392:	f442 7280 	orr.w	r2, r2, #256	; 0x100
 8003396:	601a      	str	r2, [r3, #0]

    /* Wait until SB flag is set */
    if (I2C_WaitOnFlagUntilTimeout(hi2c, I2C_FLAG_SB, RESET, Timeout, Tickstart) != HAL_OK)
 8003398:	683b      	ldr	r3, [r7, #0]
 800339a:	9300      	str	r3, [sp, #0]
 800339c:	687b      	ldr	r3, [r7, #4]
 800339e:	2200      	movs	r2, #0
 80033a0:	f04f 1101 	mov.w	r1, #65537	; 0x10001
 80033a4:	68f8      	ldr	r0, [r7, #12]
 80033a6:	f000 f831 	bl	800340c <I2C_WaitOnFlagUntilTimeout>
 80033aa:	4603      	mov	r3, r0
 80033ac:	2b00      	cmp	r3, #0
 80033ae:	d00d      	beq.n	80033cc <I2C_MasterRequestRead+0x15c>
    {
      if (READ_BIT(hi2c->Instance->CR1, I2C_CR1_START) == I2C_CR1_START)
 80033b0:	68fb      	ldr	r3, [r7, #12]
 80033b2:	681b      	ldr	r3, [r3, #0]
 80033b4:	681b      	ldr	r3, [r3, #0]
 80033b6:	f403 7380 	and.w	r3, r3, #256	; 0x100
 80033ba:	f5b3 7f80 	cmp.w	r3, #256	; 0x100
 80033be:	d103      	bne.n	80033c8 <I2C_MasterRequestRead+0x158>
      {
        hi2c->ErrorCode = HAL_I2C_WRONG_START;
 80033c0:	68fb      	ldr	r3, [r7, #12]
 80033c2:	f44f 7200 	mov.w	r2, #512	; 0x200
 80033c6:	641a      	str	r2, [r3, #64]	; 0x40
      }
      return HAL_TIMEOUT;
 80033c8:	2303      	movs	r3, #3
 80033ca:	e017      	b.n	80033fc <I2C_MasterRequestRead+0x18c>
    }

    /* Send header of slave address */
    hi2c->Instance->DR = I2C_10BIT_HEADER_READ(DevAddress);
 80033cc:	897b      	ldrh	r3, [r7, #10]
 80033ce:	11db      	asrs	r3, r3, #7
 80033d0:	b2db      	uxtb	r3, r3
 80033d2:	f003 0306 	and.w	r3, r3, #6
 80033d6:	b2db      	uxtb	r3, r3
 80033d8:	f063 030e 	orn	r3, r3, #14
 80033dc:	b2da      	uxtb	r2, r3
 80033de:	68fb      	ldr	r3, [r7, #12]
 80033e0:	681b      	ldr	r3, [r3, #0]
 80033e2:	611a      	str	r2, [r3, #16]
  }

  /* Wait until ADDR flag is set */
  if (I2C_WaitOnMasterAddressFlagUntilTimeout(hi2c, I2C_FLAG_ADDR, Timeout, Tickstart) != HAL_OK)
 80033e4:	683b      	ldr	r3, [r7, #0]
 80033e6:	687a      	ldr	r2, [r7, #4]
 80033e8:	4907      	ldr	r1, [pc, #28]	; (8003408 <I2C_MasterRequestRead+0x198>)
 80033ea:	68f8      	ldr	r0, [r7, #12]
 80033ec:	f000 f888 	bl	8003500 <I2C_WaitOnMasterAddressFlagUntilTimeout>
 80033f0:	4603      	mov	r3, r0
 80033f2:	2b00      	cmp	r3, #0
 80033f4:	d001      	beq.n	80033fa <I2C_MasterRequestRead+0x18a>
  {
    return HAL_ERROR;
 80033f6:	2301      	movs	r3, #1
 80033f8:	e000      	b.n	80033fc <I2C_MasterRequestRead+0x18c>
  }

  return HAL_OK;
 80033fa:	2300      	movs	r3, #0
}
 80033fc:	4618      	mov	r0, r3
 80033fe:	3718      	adds	r7, #24
 8003400:	46bd      	mov	sp, r7
 8003402:	bd80      	pop	{r7, pc}
 8003404:	00010008 	.word	0x00010008
 8003408:	00010002 	.word	0x00010002

0800340c <I2C_WaitOnFlagUntilTimeout>:
  * @param  Timeout Timeout duration
  * @param  Tickstart Tick start value
  * @retval HAL status
  */
static HAL_StatusTypeDef I2C_WaitOnFlagUntilTimeout(I2C_HandleTypeDef *hi2c, uint32_t Flag, FlagStatus Status, uint32_t Timeout, uint32_t Tickstart)
{
 800340c:	b580      	push	{r7, lr}
 800340e:	b084      	sub	sp, #16
 8003410:	af00      	add	r7, sp, #0
 8003412:	60f8      	str	r0, [r7, #12]
 8003414:	60b9      	str	r1, [r7, #8]
 8003416:	603b      	str	r3, [r7, #0]
 8003418:	4613      	mov	r3, r2
 800341a:	71fb      	strb	r3, [r7, #7]
  /* Wait until flag is set */
  while (__HAL_I2C_GET_FLAG(hi2c, Flag) == Status)
 800341c:	e048      	b.n	80034b0 <I2C_WaitOnFlagUntilTimeout+0xa4>
  {
    /* Check for the Timeout */
    if (Timeout != HAL_MAX_DELAY)
 800341e:	683b      	ldr	r3, [r7, #0]
 8003420:	f1b3 3fff 	cmp.w	r3, #4294967295	; 0xffffffff
 8003424:	d044      	beq.n	80034b0 <I2C_WaitOnFlagUntilTimeout+0xa4>
    {
      if (((HAL_GetTick() - Tickstart) > Timeout) || (Timeout == 0U))
 8003426:	f7fe fe9d 	bl	8002164 <HAL_GetTick>
 800342a:	4602      	mov	r2, r0
 800342c:	69bb      	ldr	r3, [r7, #24]
 800342e:	1ad3      	subs	r3, r2, r3
 8003430:	683a      	ldr	r2, [r7, #0]
 8003432:	429a      	cmp	r2, r3
 8003434:	d302      	bcc.n	800343c <I2C_WaitOnFlagUntilTimeout+0x30>
 8003436:	683b      	ldr	r3, [r7, #0]
 8003438:	2b00      	cmp	r3, #0
 800343a:	d139      	bne.n	80034b0 <I2C_WaitOnFlagUntilTimeout+0xa4>
      {
        if ((__HAL_I2C_GET_FLAG(hi2c, Flag) == Status))
 800343c:	68bb      	ldr	r3, [r7, #8]
 800343e:	0c1b      	lsrs	r3, r3, #16
 8003440:	b2db      	uxtb	r3, r3
 8003442:	2b01      	cmp	r3, #1
 8003444:	d10d      	bne.n	8003462 <I2C_WaitOnFlagUntilTimeout+0x56>
 8003446:	68fb      	ldr	r3, [r7, #12]
 8003448:	681b      	ldr	r3, [r3, #0]
 800344a:	695b      	ldr	r3, [r3, #20]
 800344c:	43da      	mvns	r2, r3
 800344e:	68bb      	ldr	r3, [r7, #8]
 8003450:	4013      	ands	r3, r2
 8003452:	b29b      	uxth	r3, r3
 8003454:	2b00      	cmp	r3, #0
 8003456:	bf0c      	ite	eq
 8003458:	2301      	moveq	r3, #1
 800345a:	2300      	movne	r3, #0
 800345c:	b2db      	uxtb	r3, r3
 800345e:	461a      	mov	r2, r3
 8003460:	e00c      	b.n	800347c <I2C_WaitOnFlagUntilTimeout+0x70>
 8003462:	68fb      	ldr	r3, [r7, #12]
 8003464:	681b      	ldr	r3, [r3, #0]
 8003466:	699b      	ldr	r3, [r3, #24]
 8003468:	43da      	mvns	r2, r3
 800346a:	68bb      	ldr	r3, [r7, #8]
 800346c:	4013      	ands	r3, r2
 800346e:	b29b      	uxth	r3, r3
 8003470:	2b00      	cmp	r3, #0
 8003472:	bf0c      	ite	eq
 8003474:	2301      	moveq	r3, #1
 8003476:	2300      	movne	r3, #0
 8003478:	b2db      	uxtb	r3, r3
 800347a:	461a      	mov	r2, r3
 800347c:	79fb      	ldrb	r3, [r7, #7]
 800347e:	429a      	cmp	r2, r3
 8003480:	d116      	bne.n	80034b0 <I2C_WaitOnFlagUntilTimeout+0xa4>
        {
          hi2c->PreviousState     = I2C_STATE_NONE;
 8003482:	68fb      	ldr	r3, [r7, #12]
 8003484:	2200      	movs	r2, #0
 8003486:	631a      	str	r2, [r3, #48]	; 0x30
          hi2c->State             = HAL_I2C_STATE_READY;
 8003488:	68fb      	ldr	r3, [r7, #12]
 800348a:	2220      	movs	r2, #32
 800348c:	f883 203d 	strb.w	r2, [r3, #61]	; 0x3d
          hi2c->Mode              = HAL_I2C_MODE_NONE;
 8003490:	68fb      	ldr	r3, [r7, #12]
 8003492:	2200      	movs	r2, #0
 8003494:	f883 203e 	strb.w	r2, [r3, #62]	; 0x3e
          hi2c->ErrorCode         |= HAL_I2C_ERROR_TIMEOUT;
 8003498:	68fb      	ldr	r3, [r7, #12]
 800349a:	6c1b      	ldr	r3, [r3, #64]	; 0x40
 800349c:	f043 0220 	orr.w	r2, r3, #32
 80034a0:	68fb      	ldr	r3, [r7, #12]
 80034a2:	641a      	str	r2, [r3, #64]	; 0x40

          /* Process Unlocked */
          __HAL_UNLOCK(hi2c);
 80034a4:	68fb      	ldr	r3, [r7, #12]
 80034a6:	2200      	movs	r2, #0
 80034a8:	f883 203c 	strb.w	r2, [r3, #60]	; 0x3c

          return HAL_ERROR;
 80034ac:	2301      	movs	r3, #1
 80034ae:	e023      	b.n	80034f8 <I2C_WaitOnFlagUntilTimeout+0xec>
  while (__HAL_I2C_GET_FLAG(hi2c, Flag) == Status)
 80034b0:	68bb      	ldr	r3, [r7, #8]
 80034b2:	0c1b      	lsrs	r3, r3, #16
 80034b4:	b2db      	uxtb	r3, r3
 80034b6:	2b01      	cmp	r3, #1
 80034b8:	d10d      	bne.n	80034d6 <I2C_WaitOnFlagUntilTimeout+0xca>
 80034ba:	68fb      	ldr	r3, [r7, #12]
 80034bc:	681b      	ldr	r3, [r3, #0]
 80034be:	695b      	ldr	r3, [r3, #20]
 80034c0:	43da      	mvns	r2, r3
 80034c2:	68bb      	ldr	r3, [r7, #8]
 80034c4:	4013      	ands	r3, r2
 80034c6:	b29b      	uxth	r3, r3
 80034c8:	2b00      	cmp	r3, #0
 80034ca:	bf0c      	ite	eq
 80034cc:	2301      	moveq	r3, #1
 80034ce:	2300      	movne	r3, #0
 80034d0:	b2db      	uxtb	r3, r3
 80034d2:	461a      	mov	r2, r3
 80034d4:	e00c      	b.n	80034f0 <I2C_WaitOnFlagUntilTimeout+0xe4>
 80034d6:	68fb      	ldr	r3, [r7, #12]
 80034d8:	681b      	ldr	r3, [r3, #0]
 80034da:	699b      	ldr	r3, [r3, #24]
 80034dc:	43da      	mvns	r2, r3
 80034de:	68bb      	ldr	r3, [r7, #8]
 80034e0:	4013      	ands	r3, r2
 80034e2:	b29b      	uxth	r3, r3
 80034e4:	2b00      	cmp	r3, #0
 80034e6:	bf0c      	ite	eq
 80034e8:	2301      	moveq	r3, #1
 80034ea:	2300      	movne	r3, #0
 80034ec:	b2db      	uxtb	r3, r3
 80034ee:	461a      	mov	r2, r3
 80034f0:	79fb      	ldrb	r3, [r7, #7]
 80034f2:	429a      	cmp	r2, r3
 80034f4:	d093      	beq.n	800341e <I2C_WaitOnFlagUntilTimeout+0x12>
        }
      }
    }
  }
  return HAL_OK;
 80034f6:	2300      	movs	r3, #0
}
 80034f8:	4618      	mov	r0, r3
 80034fa:	3710      	adds	r7, #16
 80034fc:	46bd      	mov	sp, r7
 80034fe:	bd80      	pop	{r7, pc}

08003500 <I2C_WaitOnMasterAddressFlagUntilTimeout>:
  * @param  Timeout Timeout duration
  * @param  Tickstart Tick start value
  * @retval HAL status
  */
static HAL_StatusTypeDef I2C_WaitOnMasterAddressFlagUntilTimeout(I2C_HandleTypeDef *hi2c, uint32_t Flag, uint32_t Timeout, uint32_t Tickstart)
{
 8003500:	b580      	push	{r7, lr}
 8003502:	b084      	sub	sp, #16
 8003504:	af00      	add	r7, sp, #0
 8003506:	60f8      	str	r0, [r7, #12]
 8003508:	60b9      	str	r1, [r7, #8]
 800350a:	607a      	str	r2, [r7, #4]
 800350c:	603b      	str	r3, [r7, #0]
  while (__HAL_I2C_GET_FLAG(hi2c, Flag) == RESET)
 800350e:	e071      	b.n	80035f4 <I2C_WaitOnMasterAddressFlagUntilTimeout+0xf4>
  {
    if (__HAL_I2C_GET_FLAG(hi2c, I2C_FLAG_AF) == SET)
 8003510:	68fb      	ldr	r3, [r7, #12]
 8003512:	681b      	ldr	r3, [r3, #0]
 8003514:	695b      	ldr	r3, [r3, #20]
 8003516:	f403 6380 	and.w	r3, r3, #1024	; 0x400
 800351a:	f5b3 6f80 	cmp.w	r3, #1024	; 0x400
 800351e:	d123      	bne.n	8003568 <I2C_WaitOnMasterAddressFlagUntilTimeout+0x68>
    {
      /* Generate Stop */
      SET_BIT(hi2c->Instance->CR1, I2C_CR1_STOP);
 8003520:	68fb      	ldr	r3, [r7, #12]
 8003522:	681b      	ldr	r3, [r3, #0]
 8003524:	681a      	ldr	r2, [r3, #0]
 8003526:	68fb      	ldr	r3, [r7, #12]
 8003528:	681b      	ldr	r3, [r3, #0]
 800352a:	f442 7200 	orr.w	r2, r2, #512	; 0x200
 800352e:	601a      	str	r2, [r3, #0]

      /* Clear AF Flag */
      __HAL_I2C_CLEAR_FLAG(hi2c, I2C_FLAG_AF);
 8003530:	68fb      	ldr	r3, [r7, #12]
 8003532:	681b      	ldr	r3, [r3, #0]
 8003534:	f46f 6280 	mvn.w	r2, #1024	; 0x400
 8003538:	615a      	str	r2, [r3, #20]

      hi2c->PreviousState       = I2C_STATE_NONE;
 800353a:	68fb      	ldr	r3, [r7, #12]
 800353c:	2200      	movs	r2, #0
 800353e:	631a      	str	r2, [r3, #48]	; 0x30
      hi2c->State               = HAL_I2C_STATE_READY;
 8003540:	68fb      	ldr	r3, [r7, #12]
 8003542:	2220      	movs	r2, #32
 8003544:	f883 203d 	strb.w	r2, [r3, #61]	; 0x3d
      hi2c->Mode                = HAL_I2C_MODE_NONE;
 8003548:	68fb      	ldr	r3, [r7, #12]
 800354a:	2200      	movs	r2, #0
 800354c:	f883 203e 	strb.w	r2, [r3, #62]	; 0x3e
      hi2c->ErrorCode           |= HAL_I2C_ERROR_AF;
 8003550:	68fb      	ldr	r3, [r7, #12]
 8003552:	6c1b      	ldr	r3, [r3, #64]	; 0x40
 8003554:	f043 0204 	orr.w	r2, r3, #4
 8003558:	68fb      	ldr	r3, [r7, #12]
 800355a:	641a      	str	r2, [r3, #64]	; 0x40

      /* Process Unlocked */
      __HAL_UNLOCK(hi2c);
 800355c:	68fb      	ldr	r3, [r7, #12]
 800355e:	2200      	movs	r2, #0
 8003560:	f883 203c 	strb.w	r2, [r3, #60]	; 0x3c

      return HAL_ERROR;
 8003564:	2301      	movs	r3, #1
 8003566:	e067      	b.n	8003638 <I2C_WaitOnMasterAddressFlagUntilTimeout+0x138>
    }

    /* Check for the Timeout */
    if (Timeout != HAL_MAX_DELAY)
 8003568:	687b      	ldr	r3, [r7, #4]
 800356a:	f1b3 3fff 	cmp.w	r3, #4294967295	; 0xffffffff
 800356e:	d041      	beq.n	80035f4 <I2C_WaitOnMasterAddressFlagUntilTimeout+0xf4>
    {
      if (((HAL_GetTick() - Tickstart) > Timeout) || (Timeout == 0U))
 8003570:	f7fe fdf8 	bl	8002164 <HAL_GetTick>
 8003574:	4602      	mov	r2, r0
 8003576:	683b      	ldr	r3, [r7, #0]
 8003578:	1ad3      	subs	r3, r2, r3
 800357a:	687a      	ldr	r2, [r7, #4]
 800357c:	429a      	cmp	r2, r3
 800357e:	d302      	bcc.n	8003586 <I2C_WaitOnMasterAddressFlagUntilTimeout+0x86>
 8003580:	687b      	ldr	r3, [r7, #4]
 8003582:	2b00      	cmp	r3, #0
 8003584:	d136      	bne.n	80035f4 <I2C_WaitOnMasterAddressFlagUntilTimeout+0xf4>
      {
        if ((__HAL_I2C_GET_FLAG(hi2c, Flag) == RESET))
 8003586:	68bb      	ldr	r3, [r7, #8]
 8003588:	0c1b      	lsrs	r3, r3, #16
 800358a:	b2db      	uxtb	r3, r3
 800358c:	2b01      	cmp	r3, #1
 800358e:	d10c      	bne.n	80035aa <I2C_WaitOnMasterAddressFlagUntilTimeout+0xaa>
 8003590:	68fb      	ldr	r3, [r7, #12]
 8003592:	681b      	ldr	r3, [r3, #0]
 8003594:	695b      	ldr	r3, [r3, #20]
 8003596:	43da      	mvns	r2, r3
 8003598:	68bb      	ldr	r3, [r7, #8]
 800359a:	4013      	ands	r3, r2
 800359c:	b29b      	uxth	r3, r3
 800359e:	2b00      	cmp	r3, #0
 80035a0:	bf14      	ite	ne
 80035a2:	2301      	movne	r3, #1
 80035a4:	2300      	moveq	r3, #0
 80035a6:	b2db      	uxtb	r3, r3
 80035a8:	e00b      	b.n	80035c2 <I2C_WaitOnMasterAddressFlagUntilTimeout+0xc2>
 80035aa:	68fb      	ldr	r3, [r7, #12]
 80035ac:	681b      	ldr	r3, [r3, #0]
 80035ae:	699b      	ldr	r3, [r3, #24]
 80035b0:	43da      	mvns	r2, r3
 80035b2:	68bb      	ldr	r3, [r7, #8]
 80035b4:	4013      	ands	r3, r2
 80035b6:	b29b      	uxth	r3, r3
 80035b8:	2b00      	cmp	r3, #0
 80035ba:	bf14      	ite	ne
 80035bc:	2301      	movne	r3, #1
 80035be:	2300      	moveq	r3, #0
 80035c0:	b2db      	uxtb	r3, r3
 80035c2:	2b00      	cmp	r3, #0
 80035c4:	d016      	beq.n	80035f4 <I2C_WaitOnMasterAddressFlagUntilTimeout+0xf4>
        {
          hi2c->PreviousState       = I2C_STATE_NONE;
 80035c6:	68fb      	ldr	r3, [r7, #12]
 80035c8:	2200      	movs	r2, #0
 80035ca:	631a      	str	r2, [r3, #48]	; 0x30
          hi2c->State               = HAL_I2C_STATE_READY;
 80035cc:	68fb      	ldr	r3, [r7, #12]
 80035ce:	2220      	movs	r2, #32
 80035d0:	f883 203d 	strb.w	r2, [r3, #61]	; 0x3d
          hi2c->Mode                = HAL_I2C_MODE_NONE;
 80035d4:	68fb      	ldr	r3, [r7, #12]
 80035d6:	2200      	movs	r2, #0
 80035d8:	f883 203e 	strb.w	r2, [r3, #62]	; 0x3e
          hi2c->ErrorCode           |= HAL_I2C_ERROR_TIMEOUT;
 80035dc:	68fb      	ldr	r3, [r7, #12]
 80035de:	6c1b      	ldr	r3, [r3, #64]	; 0x40
 80035e0:	f043 0220 	orr.w	r2, r3, #32
 80035e4:	68fb      	ldr	r3, [r7, #12]
 80035e6:	641a      	str	r2, [r3, #64]	; 0x40

          /* Process Unlocked */
          __HAL_UNLOCK(hi2c);
 80035e8:	68fb      	ldr	r3, [r7, #12]
 80035ea:	2200      	movs	r2, #0
 80035ec:	f883 203c 	strb.w	r2, [r3, #60]	; 0x3c

          return HAL_ERROR;
 80035f0:	2301      	movs	r3, #1
 80035f2:	e021      	b.n	8003638 <I2C_WaitOnMasterAddressFlagUntilTimeout+0x138>
  while (__HAL_I2C_GET_FLAG(hi2c, Flag) == RESET)
 80035f4:	68bb      	ldr	r3, [r7, #8]
 80035f6:	0c1b      	lsrs	r3, r3, #16
 80035f8:	b2db      	uxtb	r3, r3
 80035fa:	2b01      	cmp	r3, #1
 80035fc:	d10c      	bne.n	8003618 <I2C_WaitOnMasterAddressFlagUntilTimeout+0x118>
 80035fe:	68fb      	ldr	r3, [r7, #12]
 8003600:	681b      	ldr	r3, [r3, #0]
 8003602:	695b      	ldr	r3, [r3, #20]
 8003604:	43da      	mvns	r2, r3
 8003606:	68bb      	ldr	r3, [r7, #8]
 8003608:	4013      	ands	r3, r2
 800360a:	b29b      	uxth	r3, r3
 800360c:	2b00      	cmp	r3, #0
 800360e:	bf14      	ite	ne
 8003610:	2301      	movne	r3, #1
 8003612:	2300      	moveq	r3, #0
 8003614:	b2db      	uxtb	r3, r3
 8003616:	e00b      	b.n	8003630 <I2C_WaitOnMasterAddressFlagUntilTimeout+0x130>
 8003618:	68fb      	ldr	r3, [r7, #12]
 800361a:	681b      	ldr	r3, [r3, #0]
 800361c:	699b      	ldr	r3, [r3, #24]
 800361e:	43da      	mvns	r2, r3
 8003620:	68bb      	ldr	r3, [r7, #8]
 8003622:	4013      	ands	r3, r2
 8003624:	b29b      	uxth	r3, r3
 8003626:	2b00      	cmp	r3, #0
 8003628:	bf14      	ite	ne
 800362a:	2301      	movne	r3, #1
 800362c:	2300      	moveq	r3, #0
 800362e:	b2db      	uxtb	r3, r3
 8003630:	2b00      	cmp	r3, #0
 8003632:	f47f af6d 	bne.w	8003510 <I2C_WaitOnMasterAddressFlagUntilTimeout+0x10>
        }
      }
    }
  }
  return HAL_OK;
 8003636:	2300      	movs	r3, #0
}
 8003638:	4618      	mov	r0, r3
 800363a:	3710      	adds	r7, #16
 800363c:	46bd      	mov	sp, r7
 800363e:	bd80      	pop	{r7, pc}

08003640 <I2C_WaitOnTXEFlagUntilTimeout>:
  * @param  Timeout Timeout duration
  * @param  Tickstart Tick start value
  * @retval HAL status
  */
static HAL_StatusTypeDef I2C_WaitOnTXEFlagUntilTimeout(I2C_HandleTypeDef *hi2c, uint32_t Timeout, uint32_t Tickstart)
{
 8003640:	b580      	push	{r7, lr}
 8003642:	b084      	sub	sp, #16
 8003644:	af00      	add	r7, sp, #0
 8003646:	60f8      	str	r0, [r7, #12]
 8003648:	60b9      	str	r1, [r7, #8]
 800364a:	607a      	str	r2, [r7, #4]
  while (__HAL_I2C_GET_FLAG(hi2c, I2C_FLAG_TXE) == RESET)
 800364c:	e034      	b.n	80036b8 <I2C_WaitOnTXEFlagUntilTimeout+0x78>
  {
    /* Check if a NACK is detected */
    if (I2C_IsAcknowledgeFailed(hi2c) != HAL_OK)
 800364e:	68f8      	ldr	r0, [r7, #12]
 8003650:	f000 f8e3 	bl	800381a <I2C_IsAcknowledgeFailed>
 8003654:	4603      	mov	r3, r0
 8003656:	2b00      	cmp	r3, #0
 8003658:	d001      	beq.n	800365e <I2C_WaitOnTXEFlagUntilTimeout+0x1e>
    {
      return HAL_ERROR;
 800365a:	2301      	movs	r3, #1
 800365c:	e034      	b.n	80036c8 <I2C_WaitOnTXEFlagUntilTimeout+0x88>
    }

    /* Check for the Timeout */
    if (Timeout != HAL_MAX_DELAY)
 800365e:	68bb      	ldr	r3, [r7, #8]
 8003660:	f1b3 3fff 	cmp.w	r3, #4294967295	; 0xffffffff
 8003664:	d028      	beq.n	80036b8 <I2C_WaitOnTXEFlagUntilTimeout+0x78>
    {
      if (((HAL_GetTick() - Tickstart) > Timeout) || (Timeout == 0U))
 8003666:	f7fe fd7d 	bl	8002164 <HAL_GetTick>
 800366a:	4602      	mov	r2, r0
 800366c:	687b      	ldr	r3, [r7, #4]
 800366e:	1ad3      	subs	r3, r2, r3
 8003670:	68ba      	ldr	r2, [r7, #8]
 8003672:	429a      	cmp	r2, r3
 8003674:	d302      	bcc.n	800367c <I2C_WaitOnTXEFlagUntilTimeout+0x3c>
 8003676:	68bb      	ldr	r3, [r7, #8]
 8003678:	2b00      	cmp	r3, #0
 800367a:	d11d      	bne.n	80036b8 <I2C_WaitOnTXEFlagUntilTimeout+0x78>
      {
        if ((__HAL_I2C_GET_FLAG(hi2c, I2C_FLAG_TXE) == RESET))
 800367c:	68fb      	ldr	r3, [r7, #12]
 800367e:	681b      	ldr	r3, [r3, #0]
 8003680:	695b      	ldr	r3, [r3, #20]
 8003682:	f003 0380 	and.w	r3, r3, #128	; 0x80
 8003686:	2b80      	cmp	r3, #128	; 0x80
 8003688:	d016      	beq.n	80036b8 <I2C_WaitOnTXEFlagUntilTimeout+0x78>
        {
          hi2c->PreviousState       = I2C_STATE_NONE;
 800368a:	68fb      	ldr	r3, [r7, #12]
 800368c:	2200      	movs	r2, #0
 800368e:	631a      	str	r2, [r3, #48]	; 0x30
          hi2c->State               = HAL_I2C_STATE_READY;
 8003690:	68fb      	ldr	r3, [r7, #12]
 8003692:	2220      	movs	r2, #32
 8003694:	f883 203d 	strb.w	r2, [r3, #61]	; 0x3d
          hi2c->Mode                = HAL_I2C_MODE_NONE;
 8003698:	68fb      	ldr	r3, [r7, #12]
 800369a:	2200      	movs	r2, #0
 800369c:	f883 203e 	strb.w	r2, [r3, #62]	; 0x3e
          hi2c->ErrorCode           |= HAL_I2C_ERROR_TIMEOUT;
 80036a0:	68fb      	ldr	r3, [r7, #12]
 80036a2:	6c1b      	ldr	r3, [r3, #64]	; 0x40
 80036a4:	f043 0220 	orr.w	r2, r3, #32
 80036a8:	68fb      	ldr	r3, [r7, #12]
 80036aa:	641a      	str	r2, [r3, #64]	; 0x40

          /* Process Unlocked */
          __HAL_UNLOCK(hi2c);
 80036ac:	68fb      	ldr	r3, [r7, #12]
 80036ae:	2200      	movs	r2, #0
 80036b0:	f883 203c 	strb.w	r2, [r3, #60]	; 0x3c

          return HAL_ERROR;
 80036b4:	2301      	movs	r3, #1
 80036b6:	e007      	b.n	80036c8 <I2C_WaitOnTXEFlagUntilTimeout+0x88>
  while (__HAL_I2C_GET_FLAG(hi2c, I2C_FLAG_TXE) == RESET)
 80036b8:	68fb      	ldr	r3, [r7, #12]
 80036ba:	681b      	ldr	r3, [r3, #0]
 80036bc:	695b      	ldr	r3, [r3, #20]
 80036be:	f003 0380 	and.w	r3, r3, #128	; 0x80
 80036c2:	2b80      	cmp	r3, #128	; 0x80
 80036c4:	d1c3      	bne.n	800364e <I2C_WaitOnTXEFlagUntilTimeout+0xe>
        }
      }
    }
  }
  return HAL_OK;
 80036c6:	2300      	movs	r3, #0
}
 80036c8:	4618      	mov	r0, r3
 80036ca:	3710      	adds	r7, #16
 80036cc:	46bd      	mov	sp, r7
 80036ce:	bd80      	pop	{r7, pc}

080036d0 <I2C_WaitOnBTFFlagUntilTimeout>:
  * @param  Timeout Timeout duration
  * @param  Tickstart Tick start value
  * @retval HAL status
  */
static HAL_StatusTypeDef I2C_WaitOnBTFFlagUntilTimeout(I2C_HandleTypeDef *hi2c, uint32_t Timeout, uint32_t Tickstart)
{
 80036d0:	b580      	push	{r7, lr}
 80036d2:	b084      	sub	sp, #16
 80036d4:	af00      	add	r7, sp, #0
 80036d6:	60f8      	str	r0, [r7, #12]
 80036d8:	60b9      	str	r1, [r7, #8]
 80036da:	607a      	str	r2, [r7, #4]
  while (__HAL_I2C_GET_FLAG(hi2c, I2C_FLAG_BTF) == RESET)
 80036dc:	e034      	b.n	8003748 <I2C_WaitOnBTFFlagUntilTimeout+0x78>
  {
    /* Check if a NACK is detected */
    if (I2C_IsAcknowledgeFailed(hi2c) != HAL_OK)
 80036de:	68f8      	ldr	r0, [r7, #12]
 80036e0:	f000 f89b 	bl	800381a <I2C_IsAcknowledgeFailed>
 80036e4:	4603      	mov	r3, r0
 80036e6:	2b00      	cmp	r3, #0
 80036e8:	d001      	beq.n	80036ee <I2C_WaitOnBTFFlagUntilTimeout+0x1e>
    {
      return HAL_ERROR;
 80036ea:	2301      	movs	r3, #1
 80036ec:	e034      	b.n	8003758 <I2C_WaitOnBTFFlagUntilTimeout+0x88>
    }

    /* Check for the Timeout */
    if (Timeout != HAL_MAX_DELAY)
 80036ee:	68bb      	ldr	r3, [r7, #8]
 80036f0:	f1b3 3fff 	cmp.w	r3, #4294967295	; 0xffffffff
 80036f4:	d028      	beq.n	8003748 <I2C_WaitOnBTFFlagUntilTimeout+0x78>
    {
      if (((HAL_GetTick() - Tickstart) > Timeout) || (Timeout == 0U))
 80036f6:	f7fe fd35 	bl	8002164 <HAL_GetTick>
 80036fa:	4602      	mov	r2, r0
 80036fc:	687b      	ldr	r3, [r7, #4]
 80036fe:	1ad3      	subs	r3, r2, r3
 8003700:	68ba      	ldr	r2, [r7, #8]
 8003702:	429a      	cmp	r2, r3
 8003704:	d302      	bcc.n	800370c <I2C_WaitOnBTFFlagUntilTimeout+0x3c>
 8003706:	68bb      	ldr	r3, [r7, #8]
 8003708:	2b00      	cmp	r3, #0
 800370a:	d11d      	bne.n	8003748 <I2C_WaitOnBTFFlagUntilTimeout+0x78>
      {
        if ((__HAL_I2C_GET_FLAG(hi2c, I2C_FLAG_BTF) == RESET))
 800370c:	68fb      	ldr	r3, [r7, #12]
 800370e:	681b      	ldr	r3, [r3, #0]
 8003710:	695b      	ldr	r3, [r3, #20]
 8003712:	f003 0304 	and.w	r3, r3, #4
 8003716:	2b04      	cmp	r3, #4
 8003718:	d016      	beq.n	8003748 <I2C_WaitOnBTFFlagUntilTimeout+0x78>
        {
          hi2c->PreviousState       = I2C_STATE_NONE;
 800371a:	68fb      	ldr	r3, [r7, #12]
 800371c:	2200      	movs	r2, #0
 800371e:	631a      	str	r2, [r3, #48]	; 0x30
          hi2c->State               = HAL_I2C_STATE_READY;
 8003720:	68fb      	ldr	r3, [r7, #12]
 8003722:	2220      	movs	r2, #32
 8003724:	f883 203d 	strb.w	r2, [r3, #61]	; 0x3d
          hi2c->Mode                = HAL_I2C_MODE_NONE;
 8003728:	68fb      	ldr	r3, [r7, #12]
 800372a:	2200      	movs	r2, #0
 800372c:	f883 203e 	strb.w	r2, [r3, #62]	; 0x3e
          hi2c->ErrorCode           |= HAL_I2C_ERROR_TIMEOUT;
 8003730:	68fb      	ldr	r3, [r7, #12]
 8003732:	6c1b      	ldr	r3, [r3, #64]	; 0x40
 8003734:	f043 0220 	orr.w	r2, r3, #32
 8003738:	68fb      	ldr	r3, [r7, #12]
 800373a:	641a      	str	r2, [r3, #64]	; 0x40

          /* Process Unlocked */
          __HAL_UNLOCK(hi2c);
 800373c:	68fb      	ldr	r3, [r7, #12]
 800373e:	2200      	movs	r2, #0
 8003740:	f883 203c 	strb.w	r2, [r3, #60]	; 0x3c

          return HAL_ERROR;
 8003744:	2301      	movs	r3, #1
 8003746:	e007      	b.n	8003758 <I2C_WaitOnBTFFlagUntilTimeout+0x88>
  while (__HAL_I2C_GET_FLAG(hi2c, I2C_FLAG_BTF) == RESET)
 8003748:	68fb      	ldr	r3, [r7, #12]
 800374a:	681b      	ldr	r3, [r3, #0]
 800374c:	695b      	ldr	r3, [r3, #20]
 800374e:	f003 0304 	and.w	r3, r3, #4
 8003752:	2b04      	cmp	r3, #4
 8003754:	d1c3      	bne.n	80036de <I2C_WaitOnBTFFlagUntilTimeout+0xe>
        }
      }
    }
  }
  return HAL_OK;
 8003756:	2300      	movs	r3, #0
}
 8003758:	4618      	mov	r0, r3
 800375a:	3710      	adds	r7, #16
 800375c:	46bd      	mov	sp, r7
 800375e:	bd80      	pop	{r7, pc}

08003760 <I2C_WaitOnRXNEFlagUntilTimeout>:
  * @param  Timeout Timeout duration
  * @param  Tickstart Tick start value
  * @retval HAL status
  */
static HAL_StatusTypeDef I2C_WaitOnRXNEFlagUntilTimeout(I2C_HandleTypeDef *hi2c, uint32_t Timeout, uint32_t Tickstart)
{
 8003760:	b580      	push	{r7, lr}
 8003762:	b084      	sub	sp, #16
 8003764:	af00      	add	r7, sp, #0
 8003766:	60f8      	str	r0, [r7, #12]
 8003768:	60b9      	str	r1, [r7, #8]
 800376a:	607a      	str	r2, [r7, #4]

  while (__HAL_I2C_GET_FLAG(hi2c, I2C_FLAG_RXNE) == RESET)
 800376c:	e049      	b.n	8003802 <I2C_WaitOnRXNEFlagUntilTimeout+0xa2>
  {
    /* Check if a STOPF is detected */
    if (__HAL_I2C_GET_FLAG(hi2c, I2C_FLAG_STOPF) == SET)
 800376e:	68fb      	ldr	r3, [r7, #12]
 8003770:	681b      	ldr	r3, [r3, #0]
 8003772:	695b      	ldr	r3, [r3, #20]
 8003774:	f003 0310 	and.w	r3, r3, #16
 8003778:	2b10      	cmp	r3, #16
 800377a:	d119      	bne.n	80037b0 <I2C_WaitOnRXNEFlagUntilTimeout+0x50>
    {
      /* Clear STOP Flag */
      __HAL_I2C_CLEAR_FLAG(hi2c, I2C_FLAG_STOPF);
 800377c:	68fb      	ldr	r3, [r7, #12]
 800377e:	681b      	ldr	r3, [r3, #0]
 8003780:	f06f 0210 	mvn.w	r2, #16
 8003784:	615a      	str	r2, [r3, #20]

      hi2c->PreviousState       = I2C_STATE_NONE;
 8003786:	68fb      	ldr	r3, [r7, #12]
 8003788:	2200      	movs	r2, #0
 800378a:	631a      	str	r2, [r3, #48]	; 0x30
      hi2c->State               = HAL_I2C_STATE_READY;
 800378c:	68fb      	ldr	r3, [r7, #12]
 800378e:	2220      	movs	r2, #32
 8003790:	f883 203d 	strb.w	r2, [r3, #61]	; 0x3d
      hi2c->Mode                = HAL_I2C_MODE_NONE;
 8003794:	68fb      	ldr	r3, [r7, #12]
 8003796:	2200      	movs	r2, #0
 8003798:	f883 203e 	strb.w	r2, [r3, #62]	; 0x3e
      hi2c->ErrorCode           |= HAL_I2C_ERROR_NONE;
 800379c:	68fb      	ldr	r3, [r7, #12]
 800379e:	6c1a      	ldr	r2, [r3, #64]	; 0x40
 80037a0:	68fb      	ldr	r3, [r7, #12]
 80037a2:	641a      	str	r2, [r3, #64]	; 0x40

      /* Process Unlocked */
      __HAL_UNLOCK(hi2c);
 80037a4:	68fb      	ldr	r3, [r7, #12]
 80037a6:	2200      	movs	r2, #0
 80037a8:	f883 203c 	strb.w	r2, [r3, #60]	; 0x3c

      return HAL_ERROR;
 80037ac:	2301      	movs	r3, #1
 80037ae:	e030      	b.n	8003812 <I2C_WaitOnRXNEFlagUntilTimeout+0xb2>
    }

    /* Check for the Timeout */
    if (((HAL_GetTick() - Tickstart) > Timeout) || (Timeout == 0U))
 80037b0:	f7fe fcd8 	bl	8002164 <HAL_GetTick>
 80037b4:	4602      	mov	r2, r0
 80037b6:	687b      	ldr	r3, [r7, #4]
 80037b8:	1ad3      	subs	r3, r2, r3
 80037ba:	68ba      	ldr	r2, [r7, #8]
 80037bc:	429a      	cmp	r2, r3
 80037be:	d302      	bcc.n	80037c6 <I2C_WaitOnRXNEFlagUntilTimeout+0x66>
 80037c0:	68bb      	ldr	r3, [r7, #8]
 80037c2:	2b00      	cmp	r3, #0
 80037c4:	d11d      	bne.n	8003802 <I2C_WaitOnRXNEFlagUntilTimeout+0xa2>
    {
      if ((__HAL_I2C_GET_FLAG(hi2c, I2C_FLAG_RXNE) == RESET))
 80037c6:	68fb      	ldr	r3, [r7, #12]
 80037c8:	681b      	ldr	r3, [r3, #0]
 80037ca:	695b      	ldr	r3, [r3, #20]
 80037cc:	f003 0340 	and.w	r3, r3, #64	; 0x40
 80037d0:	2b40      	cmp	r3, #64	; 0x40
 80037d2:	d016      	beq.n	8003802 <I2C_WaitOnRXNEFlagUntilTimeout+0xa2>
      {
        hi2c->PreviousState       = I2C_STATE_NONE;
 80037d4:	68fb      	ldr	r3, [r7, #12]
 80037d6:	2200      	movs	r2, #0
 80037d8:	631a      	str	r2, [r3, #48]	; 0x30
        hi2c->State               = HAL_I2C_STATE_READY;
 80037da:	68fb      	ldr	r3, [r7, #12]
 80037dc:	2220      	movs	r2, #32
 80037de:	f883 203d 	strb.w	r2, [r3, #61]	; 0x3d
        hi2c->Mode                = HAL_I2C_MODE_NONE;
 80037e2:	68fb      	ldr	r3, [r7, #12]
 80037e4:	2200      	movs	r2, #0
 80037e6:	f883 203e 	strb.w	r2, [r3, #62]	; 0x3e
        hi2c->ErrorCode           |= HAL_I2C_ERROR_TIMEOUT;
 80037ea:	68fb      	ldr	r3, [r7, #12]
 80037ec:	6c1b      	ldr	r3, [r3, #64]	; 0x40
 80037ee:	f043 0220 	orr.w	r2, r3, #32
 80037f2:	68fb      	ldr	r3, [r7, #12]
 80037f4:	641a      	str	r2, [r3, #64]	; 0x40

        /* Process Unlocked */
        __HAL_UNLOCK(hi2c);
 80037f6:	68fb      	ldr	r3, [r7, #12]
 80037f8:	2200      	movs	r2, #0
 80037fa:	f883 203c 	strb.w	r2, [r3, #60]	; 0x3c

        return HAL_ERROR;
 80037fe:	2301      	movs	r3, #1
 8003800:	e007      	b.n	8003812 <I2C_WaitOnRXNEFlagUntilTimeout+0xb2>
  while (__HAL_I2C_GET_FLAG(hi2c, I2C_FLAG_RXNE) == RESET)
 8003802:	68fb      	ldr	r3, [r7, #12]
 8003804:	681b      	ldr	r3, [r3, #0]
 8003806:	695b      	ldr	r3, [r3, #20]
 8003808:	f003 0340 	and.w	r3, r3, #64	; 0x40
 800380c:	2b40      	cmp	r3, #64	; 0x40
 800380e:	d1ae      	bne.n	800376e <I2C_WaitOnRXNEFlagUntilTimeout+0xe>
      }
    }
  }
  return HAL_OK;
 8003810:	2300      	movs	r3, #0
}
 8003812:	4618      	mov	r0, r3
 8003814:	3710      	adds	r7, #16
 8003816:	46bd      	mov	sp, r7
 8003818:	bd80      	pop	{r7, pc}

0800381a <I2C_IsAcknowledgeFailed>:
  * @param  hi2c Pointer to a I2C_HandleTypeDef structure that contains
  *                the configuration information for the specified I2C.
  * @retval HAL status
  */
static HAL_StatusTypeDef I2C_IsAcknowledgeFailed(I2C_HandleTypeDef *hi2c)
{
 800381a:	b480      	push	{r7}
 800381c:	b083      	sub	sp, #12
 800381e:	af00      	add	r7, sp, #0
 8003820:	6078      	str	r0, [r7, #4]
  if (__HAL_I2C_GET_FLAG(hi2c, I2C_FLAG_AF) == SET)
 8003822:	687b      	ldr	r3, [r7, #4]
 8003824:	681b      	ldr	r3, [r3, #0]
 8003826:	695b      	ldr	r3, [r3, #20]
 8003828:	f403 6380 	and.w	r3, r3, #1024	; 0x400
 800382c:	f5b3 6f80 	cmp.w	r3, #1024	; 0x400
 8003830:	d11b      	bne.n	800386a <I2C_IsAcknowledgeFailed+0x50>
  {
    /* Clear NACKF Flag */
    __HAL_I2C_CLEAR_FLAG(hi2c, I2C_FLAG_AF);
 8003832:	687b      	ldr	r3, [r7, #4]
 8003834:	681b      	ldr	r3, [r3, #0]
 8003836:	f46f 6280 	mvn.w	r2, #1024	; 0x400
 800383a:	615a      	str	r2, [r3, #20]

    hi2c->PreviousState       = I2C_STATE_NONE;
 800383c:	687b      	ldr	r3, [r7, #4]
 800383e:	2200      	movs	r2, #0
 8003840:	631a      	str	r2, [r3, #48]	; 0x30
    hi2c->State               = HAL_I2C_STATE_READY;
 8003842:	687b      	ldr	r3, [r7, #4]
 8003844:	2220      	movs	r2, #32
 8003846:	f883 203d 	strb.w	r2, [r3, #61]	; 0x3d
    hi2c->Mode                = HAL_I2C_MODE_NONE;
 800384a:	687b      	ldr	r3, [r7, #4]
 800384c:	2200      	movs	r2, #0
 800384e:	f883 203e 	strb.w	r2, [r3, #62]	; 0x3e
    hi2c->ErrorCode           |= HAL_I2C_ERROR_AF;
 8003852:	687b      	ldr	r3, [r7, #4]
 8003854:	6c1b      	ldr	r3, [r3, #64]	; 0x40
 8003856:	f043 0204 	orr.w	r2, r3, #4
 800385a:	687b      	ldr	r3, [r7, #4]
 800385c:	641a      	str	r2, [r3, #64]	; 0x40

    /* Process Unlocked */
    __HAL_UNLOCK(hi2c);
 800385e:	687b      	ldr	r3, [r7, #4]
 8003860:	2200      	movs	r2, #0
 8003862:	f883 203c 	strb.w	r2, [r3, #60]	; 0x3c

    return HAL_ERROR;
 8003866:	2301      	movs	r3, #1
 8003868:	e000      	b.n	800386c <I2C_IsAcknowledgeFailed+0x52>
  }
  return HAL_OK;
 800386a:	2300      	movs	r3, #0
}
 800386c:	4618      	mov	r0, r3
 800386e:	370c      	adds	r7, #12
 8003870:	46bd      	mov	sp, r7
 8003872:	f85d 7b04 	ldr.w	r7, [sp], #4
 8003876:	4770      	bx	lr

08003878 <HAL_I2CEx_ConfigAnalogFilter>:
  *                the configuration information for the specified I2Cx peripheral.
  * @param  AnalogFilter new state of the Analog filter.
  * @retval HAL status
  */
HAL_StatusTypeDef HAL_I2CEx_ConfigAnalogFilter(I2C_HandleTypeDef *hi2c, uint32_t AnalogFilter)
{
 8003878:	b480      	push	{r7}
 800387a:	b083      	sub	sp, #12
 800387c:	af00      	add	r7, sp, #0
 800387e:	6078      	str	r0, [r7, #4]
 8003880:	6039      	str	r1, [r7, #0]
  /* Check the parameters */
  assert_param(IS_I2C_ALL_INSTANCE(hi2c->Instance));
  assert_param(IS_I2C_ANALOG_FILTER(AnalogFilter));

  if (hi2c->State == HAL_I2C_STATE_READY)
 8003882:	687b      	ldr	r3, [r7, #4]
 8003884:	f893 303d 	ldrb.w	r3, [r3, #61]	; 0x3d
 8003888:	b2db      	uxtb	r3, r3
 800388a:	2b20      	cmp	r3, #32
 800388c:	d129      	bne.n	80038e2 <HAL_I2CEx_ConfigAnalogFilter+0x6a>
  {
    hi2c->State = HAL_I2C_STATE_BUSY;
 800388e:	687b      	ldr	r3, [r7, #4]
 8003890:	2224      	movs	r2, #36	; 0x24
 8003892:	f883 203d 	strb.w	r2, [r3, #61]	; 0x3d

    /* Disable the selected I2C peripheral */
    __HAL_I2C_DISABLE(hi2c);
 8003896:	687b      	ldr	r3, [r7, #4]
 8003898:	681b      	ldr	r3, [r3, #0]
 800389a:	681a      	ldr	r2, [r3, #0]
 800389c:	687b      	ldr	r3, [r7, #4]
 800389e:	681b      	ldr	r3, [r3, #0]
 80038a0:	f022 0201 	bic.w	r2, r2, #1
 80038a4:	601a      	str	r2, [r3, #0]

    /* Reset I2Cx ANOFF bit */
    hi2c->Instance->FLTR &= ~(I2C_FLTR_ANOFF);
 80038a6:	687b      	ldr	r3, [r7, #4]
 80038a8:	681b      	ldr	r3, [r3, #0]
 80038aa:	6a5a      	ldr	r2, [r3, #36]	; 0x24
 80038ac:	687b      	ldr	r3, [r7, #4]
 80038ae:	681b      	ldr	r3, [r3, #0]
 80038b0:	f022 0210 	bic.w	r2, r2, #16
 80038b4:	625a      	str	r2, [r3, #36]	; 0x24

    /* Disable the analog filter */
    hi2c->Instance->FLTR |= AnalogFilter;
 80038b6:	687b      	ldr	r3, [r7, #4]
 80038b8:	681b      	ldr	r3, [r3, #0]
 80038ba:	6a59      	ldr	r1, [r3, #36]	; 0x24
 80038bc:	687b      	ldr	r3, [r7, #4]
 80038be:	681b      	ldr	r3, [r3, #0]
 80038c0:	683a      	ldr	r2, [r7, #0]
 80038c2:	430a      	orrs	r2, r1
 80038c4:	625a      	str	r2, [r3, #36]	; 0x24

    __HAL_I2C_ENABLE(hi2c);
 80038c6:	687b      	ldr	r3, [r7, #4]
 80038c8:	681b      	ldr	r3, [r3, #0]
 80038ca:	681a      	ldr	r2, [r3, #0]
 80038cc:	687b      	ldr	r3, [r7, #4]
 80038ce:	681b      	ldr	r3, [r3, #0]
 80038d0:	f042 0201 	orr.w	r2, r2, #1
 80038d4:	601a      	str	r2, [r3, #0]

    hi2c->State = HAL_I2C_STATE_READY;
 80038d6:	687b      	ldr	r3, [r7, #4]
 80038d8:	2220      	movs	r2, #32
 80038da:	f883 203d 	strb.w	r2, [r3, #61]	; 0x3d

    return HAL_OK;
 80038de:	2300      	movs	r3, #0
 80038e0:	e000      	b.n	80038e4 <HAL_I2CEx_ConfigAnalogFilter+0x6c>
  }
  else
  {
    return HAL_BUSY;
 80038e2:	2302      	movs	r3, #2
  }
}
 80038e4:	4618      	mov	r0, r3
 80038e6:	370c      	adds	r7, #12
 80038e8:	46bd      	mov	sp, r7
 80038ea:	f85d 7b04 	ldr.w	r7, [sp], #4
 80038ee:	4770      	bx	lr

080038f0 <HAL_I2CEx_ConfigDigitalFilter>:
  *                the configuration information for the specified I2Cx peripheral.
  * @param  DigitalFilter Coefficient of digital noise filter between 0x00 and 0x0F.
  * @retval HAL status
  */
HAL_StatusTypeDef HAL_I2CEx_ConfigDigitalFilter(I2C_HandleTypeDef *hi2c, uint32_t DigitalFilter)
{
 80038f0:	b480      	push	{r7}
 80038f2:	b085      	sub	sp, #20
 80038f4:	af00      	add	r7, sp, #0
 80038f6:	6078      	str	r0, [r7, #4]
 80038f8:	6039      	str	r1, [r7, #0]
  uint16_t tmpreg = 0;
 80038fa:	2300      	movs	r3, #0
 80038fc:	81fb      	strh	r3, [r7, #14]

  /* Check the parameters */
  assert_param(IS_I2C_ALL_INSTANCE(hi2c->Instance));
  assert_param(IS_I2C_DIGITAL_FILTER(DigitalFilter));

  if (hi2c->State == HAL_I2C_STATE_READY)
 80038fe:	687b      	ldr	r3, [r7, #4]
 8003900:	f893 303d 	ldrb.w	r3, [r3, #61]	; 0x3d
 8003904:	b2db      	uxtb	r3, r3
 8003906:	2b20      	cmp	r3, #32
 8003908:	d12a      	bne.n	8003960 <HAL_I2CEx_ConfigDigitalFilter+0x70>
  {
    hi2c->State = HAL_I2C_STATE_BUSY;
 800390a:	687b      	ldr	r3, [r7, #4]
 800390c:	2224      	movs	r2, #36	; 0x24
 800390e:	f883 203d 	strb.w	r2, [r3, #61]	; 0x3d

    /* Disable the selected I2C peripheral */
    __HAL_I2C_DISABLE(hi2c);
 8003912:	687b      	ldr	r3, [r7, #4]
 8003914:	681b      	ldr	r3, [r3, #0]
 8003916:	681a      	ldr	r2, [r3, #0]
 8003918:	687b      	ldr	r3, [r7, #4]
 800391a:	681b      	ldr	r3, [r3, #0]
 800391c:	f022 0201 	bic.w	r2, r2, #1
 8003920:	601a      	str	r2, [r3, #0]

    /* Get the old register value */
    tmpreg = hi2c->Instance->FLTR;
 8003922:	687b      	ldr	r3, [r7, #4]
 8003924:	681b      	ldr	r3, [r3, #0]
 8003926:	6a5b      	ldr	r3, [r3, #36]	; 0x24
 8003928:	81fb      	strh	r3, [r7, #14]

    /* Reset I2Cx DNF bit [3:0] */
    tmpreg &= ~(I2C_FLTR_DNF);
 800392a:	89fb      	ldrh	r3, [r7, #14]
 800392c:	f023 030f 	bic.w	r3, r3, #15
 8003930:	81fb      	strh	r3, [r7, #14]

    /* Set I2Cx DNF coefficient */
    tmpreg |= DigitalFilter;
 8003932:	683b      	ldr	r3, [r7, #0]
 8003934:	b29a      	uxth	r2, r3
 8003936:	89fb      	ldrh	r3, [r7, #14]
 8003938:	4313      	orrs	r3, r2
 800393a:	81fb      	strh	r3, [r7, #14]

    /* Store the new register value */
    hi2c->Instance->FLTR = tmpreg;
 800393c:	687b      	ldr	r3, [r7, #4]
 800393e:	681b      	ldr	r3, [r3, #0]
 8003940:	89fa      	ldrh	r2, [r7, #14]
 8003942:	625a      	str	r2, [r3, #36]	; 0x24

    __HAL_I2C_ENABLE(hi2c);
 8003944:	687b      	ldr	r3, [r7, #4]
 8003946:	681b      	ldr	r3, [r3, #0]
 8003948:	681a      	ldr	r2, [r3, #0]
 800394a:	687b      	ldr	r3, [r7, #4]
 800394c:	681b      	ldr	r3, [r3, #0]
 800394e:	f042 0201 	orr.w	r2, r2, #1
 8003952:	601a      	str	r2, [r3, #0]

    hi2c->State = HAL_I2C_STATE_READY;
 8003954:	687b      	ldr	r3, [r7, #4]
 8003956:	2220      	movs	r2, #32
 8003958:	f883 203d 	strb.w	r2, [r3, #61]	; 0x3d

    return HAL_OK;
 800395c:	2300      	movs	r3, #0
 800395e:	e000      	b.n	8003962 <HAL_I2CEx_ConfigDigitalFilter+0x72>
  }
  else
  {
    return HAL_BUSY;
 8003960:	2302      	movs	r3, #2
  }
}
 8003962:	4618      	mov	r0, r3
 8003964:	3714      	adds	r7, #20
 8003966:	46bd      	mov	sp, r7
 8003968:	f85d 7b04 	ldr.w	r7, [sp], #4
 800396c:	4770      	bx	lr
	...

08003970 <HAL_RCC_OscConfig>:
  *         supported by this API. User should request a transition to HSE Off
  *         first and then HSE On or HSE Bypass.
  * @retval HAL status
  */
__weak HAL_StatusTypeDef HAL_RCC_OscConfig(RCC_OscInitTypeDef  *RCC_OscInitStruct)
{
 8003970:	b580      	push	{r7, lr}
 8003972:	b086      	sub	sp, #24
 8003974:	af00      	add	r7, sp, #0
 8003976:	6078      	str	r0, [r7, #4]
  uint32_t tickstart, pll_config;

  /* Check Null pointer */
  if(RCC_OscInitStruct == NULL)
 8003978:	687b      	ldr	r3, [r7, #4]
 800397a:	2b00      	cmp	r3, #0
 800397c:	d101      	bne.n	8003982 <HAL_RCC_OscConfig+0x12>
  {
    return HAL_ERROR;
 800397e:	2301      	movs	r3, #1
 8003980:	e267      	b.n	8003e52 <HAL_RCC_OscConfig+0x4e2>
  }

  /* Check the parameters */
  assert_param(IS_RCC_OSCILLATORTYPE(RCC_OscInitStruct->OscillatorType));
  /*------------------------------- HSE Configuration ------------------------*/
  if(((RCC_OscInitStruct->OscillatorType) & RCC_OSCILLATORTYPE_HSE) == RCC_OSCILLATORTYPE_HSE)
 8003982:	687b      	ldr	r3, [r7, #4]
 8003984:	681b      	ldr	r3, [r3, #0]
 8003986:	f003 0301 	and.w	r3, r3, #1
 800398a:	2b00      	cmp	r3, #0
 800398c:	d075      	beq.n	8003a7a <HAL_RCC_OscConfig+0x10a>
  {
    /* Check the parameters */
    assert_param(IS_RCC_HSE(RCC_OscInitStruct->HSEState));
    /* When the HSE is used as system clock or clock source for PLL in these cases HSE will not disabled */
    if((__HAL_RCC_GET_SYSCLK_SOURCE() == RCC_CFGR_SWS_HSE) ||\
 800398e:	4b88      	ldr	r3, [pc, #544]	; (8003bb0 <HAL_RCC_OscConfig+0x240>)
 8003990:	689b      	ldr	r3, [r3, #8]
 8003992:	f003 030c 	and.w	r3, r3, #12
 8003996:	2b04      	cmp	r3, #4
 8003998:	d00c      	beq.n	80039b4 <HAL_RCC_OscConfig+0x44>
      ((__HAL_RCC_GET_SYSCLK_SOURCE() == RCC_CFGR_SWS_PLL) && ((RCC->PLLCFGR & RCC_PLLCFGR_PLLSRC) == RCC_PLLCFGR_PLLSRC_HSE)))
 800399a:	4b85      	ldr	r3, [pc, #532]	; (8003bb0 <HAL_RCC_OscConfig+0x240>)
 800399c:	689b      	ldr	r3, [r3, #8]
 800399e:	f003 030c 	and.w	r3, r3, #12
    if((__HAL_RCC_GET_SYSCLK_SOURCE() == RCC_CFGR_SWS_HSE) ||\
 80039a2:	2b08      	cmp	r3, #8
 80039a4:	d112      	bne.n	80039cc <HAL_RCC_OscConfig+0x5c>
      ((__HAL_RCC_GET_SYSCLK_SOURCE() == RCC_CFGR_SWS_PLL) && ((RCC->PLLCFGR & RCC_PLLCFGR_PLLSRC) == RCC_PLLCFGR_PLLSRC_HSE)))
 80039a6:	4b82      	ldr	r3, [pc, #520]	; (8003bb0 <HAL_RCC_OscConfig+0x240>)
 80039a8:	685b      	ldr	r3, [r3, #4]
 80039aa:	f403 0380 	and.w	r3, r3, #4194304	; 0x400000
 80039ae:	f5b3 0f80 	cmp.w	r3, #4194304	; 0x400000
 80039b2:	d10b      	bne.n	80039cc <HAL_RCC_OscConfig+0x5c>
    {
      if((__HAL_RCC_GET_FLAG(RCC_FLAG_HSERDY) != RESET) && (RCC_OscInitStruct->HSEState == RCC_HSE_OFF))
 80039b4:	4b7e      	ldr	r3, [pc, #504]	; (8003bb0 <HAL_RCC_OscConfig+0x240>)
 80039b6:	681b      	ldr	r3, [r3, #0]
 80039b8:	f403 3300 	and.w	r3, r3, #131072	; 0x20000
 80039bc:	2b00      	cmp	r3, #0
 80039be:	d05b      	beq.n	8003a78 <HAL_RCC_OscConfig+0x108>
 80039c0:	687b      	ldr	r3, [r7, #4]
 80039c2:	685b      	ldr	r3, [r3, #4]
 80039c4:	2b00      	cmp	r3, #0
 80039c6:	d157      	bne.n	8003a78 <HAL_RCC_OscConfig+0x108>
      {
        return HAL_ERROR;
 80039c8:	2301      	movs	r3, #1
 80039ca:	e242      	b.n	8003e52 <HAL_RCC_OscConfig+0x4e2>
      }
    }
    else
    {
      /* Set the new HSE configuration ---------------------------------------*/
      __HAL_RCC_HSE_CONFIG(RCC_OscInitStruct->HSEState);
 80039cc:	687b      	ldr	r3, [r7, #4]
 80039ce:	685b      	ldr	r3, [r3, #4]
 80039d0:	f5b3 3f80 	cmp.w	r3, #65536	; 0x10000
 80039d4:	d106      	bne.n	80039e4 <HAL_RCC_OscConfig+0x74>
 80039d6:	4b76      	ldr	r3, [pc, #472]	; (8003bb0 <HAL_RCC_OscConfig+0x240>)
 80039d8:	681b      	ldr	r3, [r3, #0]
 80039da:	4a75      	ldr	r2, [pc, #468]	; (8003bb0 <HAL_RCC_OscConfig+0x240>)
 80039dc:	f443 3380 	orr.w	r3, r3, #65536	; 0x10000
 80039e0:	6013      	str	r3, [r2, #0]
 80039e2:	e01d      	b.n	8003a20 <HAL_RCC_OscConfig+0xb0>
 80039e4:	687b      	ldr	r3, [r7, #4]
 80039e6:	685b      	ldr	r3, [r3, #4]
 80039e8:	f5b3 2fa0 	cmp.w	r3, #327680	; 0x50000
 80039ec:	d10c      	bne.n	8003a08 <HAL_RCC_OscConfig+0x98>
 80039ee:	4b70      	ldr	r3, [pc, #448]	; (8003bb0 <HAL_RCC_OscConfig+0x240>)
 80039f0:	681b      	ldr	r3, [r3, #0]
 80039f2:	4a6f      	ldr	r2, [pc, #444]	; (8003bb0 <HAL_RCC_OscConfig+0x240>)
 80039f4:	f443 2380 	orr.w	r3, r3, #262144	; 0x40000
 80039f8:	6013      	str	r3, [r2, #0]
 80039fa:	4b6d      	ldr	r3, [pc, #436]	; (8003bb0 <HAL_RCC_OscConfig+0x240>)
 80039fc:	681b      	ldr	r3, [r3, #0]
 80039fe:	4a6c      	ldr	r2, [pc, #432]	; (8003bb0 <HAL_RCC_OscConfig+0x240>)
 8003a00:	f443 3380 	orr.w	r3, r3, #65536	; 0x10000
 8003a04:	6013      	str	r3, [r2, #0]
 8003a06:	e00b      	b.n	8003a20 <HAL_RCC_OscConfig+0xb0>
 8003a08:	4b69      	ldr	r3, [pc, #420]	; (8003bb0 <HAL_RCC_OscConfig+0x240>)
 8003a0a:	681b      	ldr	r3, [r3, #0]
 8003a0c:	4a68      	ldr	r2, [pc, #416]	; (8003bb0 <HAL_RCC_OscConfig+0x240>)
 8003a0e:	f423 3380 	bic.w	r3, r3, #65536	; 0x10000
 8003a12:	6013      	str	r3, [r2, #0]
 8003a14:	4b66      	ldr	r3, [pc, #408]	; (8003bb0 <HAL_RCC_OscConfig+0x240>)
 8003a16:	681b      	ldr	r3, [r3, #0]
 8003a18:	4a65      	ldr	r2, [pc, #404]	; (8003bb0 <HAL_RCC_OscConfig+0x240>)
 8003a1a:	f423 2380 	bic.w	r3, r3, #262144	; 0x40000
 8003a1e:	6013      	str	r3, [r2, #0]

      /* Check the HSE State */
      if((RCC_OscInitStruct->HSEState) != RCC_HSE_OFF)
 8003a20:	687b      	ldr	r3, [r7, #4]
 8003a22:	685b      	ldr	r3, [r3, #4]
 8003a24:	2b00      	cmp	r3, #0
 8003a26:	d013      	beq.n	8003a50 <HAL_RCC_OscConfig+0xe0>
      {
        /* Get Start Tick */
        tickstart = HAL_GetTick();
 8003a28:	f7fe fb9c 	bl	8002164 <HAL_GetTick>
 8003a2c:	6138      	str	r0, [r7, #16]

        /* Wait till HSE is ready */
        while(__HAL_RCC_GET_FLAG(RCC_FLAG_HSERDY) == RESET)
 8003a2e:	e008      	b.n	8003a42 <HAL_RCC_OscConfig+0xd2>
        {
          if((HAL_GetTick() - tickstart ) > HSE_TIMEOUT_VALUE)
 8003a30:	f7fe fb98 	bl	8002164 <HAL_GetTick>
 8003a34:	4602      	mov	r2, r0
 8003a36:	693b      	ldr	r3, [r7, #16]
 8003a38:	1ad3      	subs	r3, r2, r3
 8003a3a:	2b64      	cmp	r3, #100	; 0x64
 8003a3c:	d901      	bls.n	8003a42 <HAL_RCC_OscConfig+0xd2>
          {
            return HAL_TIMEOUT;
 8003a3e:	2303      	movs	r3, #3
 8003a40:	e207      	b.n	8003e52 <HAL_RCC_OscConfig+0x4e2>
        while(__HAL_RCC_GET_FLAG(RCC_FLAG_HSERDY) == RESET)
 8003a42:	4b5b      	ldr	r3, [pc, #364]	; (8003bb0 <HAL_RCC_OscConfig+0x240>)
 8003a44:	681b      	ldr	r3, [r3, #0]
 8003a46:	f403 3300 	and.w	r3, r3, #131072	; 0x20000
 8003a4a:	2b00      	cmp	r3, #0
 8003a4c:	d0f0      	beq.n	8003a30 <HAL_RCC_OscConfig+0xc0>
 8003a4e:	e014      	b.n	8003a7a <HAL_RCC_OscConfig+0x10a>
        }
      }
      else
      {
        /* Get Start Tick */
        tickstart = HAL_GetTick();
 8003a50:	f7fe fb88 	bl	8002164 <HAL_GetTick>
 8003a54:	6138      	str	r0, [r7, #16]

        /* Wait till HSE is bypassed or disabled */
        while(__HAL_RCC_GET_FLAG(RCC_FLAG_HSERDY) != RESET)
 8003a56:	e008      	b.n	8003a6a <HAL_RCC_OscConfig+0xfa>
        {
          if((HAL_GetTick() - tickstart ) > HSE_TIMEOUT_VALUE)
 8003a58:	f7fe fb84 	bl	8002164 <HAL_GetTick>
 8003a5c:	4602      	mov	r2, r0
 8003a5e:	693b      	ldr	r3, [r7, #16]
 8003a60:	1ad3      	subs	r3, r2, r3
 8003a62:	2b64      	cmp	r3, #100	; 0x64
 8003a64:	d901      	bls.n	8003a6a <HAL_RCC_OscConfig+0xfa>
          {
            return HAL_TIMEOUT;
 8003a66:	2303      	movs	r3, #3
 8003a68:	e1f3      	b.n	8003e52 <HAL_RCC_OscConfig+0x4e2>
        while(__HAL_RCC_GET_FLAG(RCC_FLAG_HSERDY) != RESET)
 8003a6a:	4b51      	ldr	r3, [pc, #324]	; (8003bb0 <HAL_RCC_OscConfig+0x240>)
 8003a6c:	681b      	ldr	r3, [r3, #0]
 8003a6e:	f403 3300 	and.w	r3, r3, #131072	; 0x20000
 8003a72:	2b00      	cmp	r3, #0
 8003a74:	d1f0      	bne.n	8003a58 <HAL_RCC_OscConfig+0xe8>
 8003a76:	e000      	b.n	8003a7a <HAL_RCC_OscConfig+0x10a>
      if((__HAL_RCC_GET_FLAG(RCC_FLAG_HSERDY) != RESET) && (RCC_OscInitStruct->HSEState == RCC_HSE_OFF))
 8003a78:	bf00      	nop
        }
      }
    }
  }
  /*----------------------------- HSI Configuration --------------------------*/
  if(((RCC_OscInitStruct->OscillatorType) & RCC_OSCILLATORTYPE_HSI) == RCC_OSCILLATORTYPE_HSI)
 8003a7a:	687b      	ldr	r3, [r7, #4]
 8003a7c:	681b      	ldr	r3, [r3, #0]
 8003a7e:	f003 0302 	and.w	r3, r3, #2
 8003a82:	2b00      	cmp	r3, #0
 8003a84:	d063      	beq.n	8003b4e <HAL_RCC_OscConfig+0x1de>
    /* Check the parameters */
    assert_param(IS_RCC_HSI(RCC_OscInitStruct->HSIState));
    assert_param(IS_RCC_CALIBRATION_VALUE(RCC_OscInitStruct->HSICalibrationValue));

    /* Check if HSI is used as system clock or as PLL source when PLL is selected as system clock */
    if((__HAL_RCC_GET_SYSCLK_SOURCE() == RCC_CFGR_SWS_HSI) ||\
 8003a86:	4b4a      	ldr	r3, [pc, #296]	; (8003bb0 <HAL_RCC_OscConfig+0x240>)
 8003a88:	689b      	ldr	r3, [r3, #8]
 8003a8a:	f003 030c 	and.w	r3, r3, #12
 8003a8e:	2b00      	cmp	r3, #0
 8003a90:	d00b      	beq.n	8003aaa <HAL_RCC_OscConfig+0x13a>
      ((__HAL_RCC_GET_SYSCLK_SOURCE() == RCC_CFGR_SWS_PLL) && ((RCC->PLLCFGR & RCC_PLLCFGR_PLLSRC) == RCC_PLLCFGR_PLLSRC_HSI)))
 8003a92:	4b47      	ldr	r3, [pc, #284]	; (8003bb0 <HAL_RCC_OscConfig+0x240>)
 8003a94:	689b      	ldr	r3, [r3, #8]
 8003a96:	f003 030c 	and.w	r3, r3, #12
    if((__HAL_RCC_GET_SYSCLK_SOURCE() == RCC_CFGR_SWS_HSI) ||\
 8003a9a:	2b08      	cmp	r3, #8
 8003a9c:	d11c      	bne.n	8003ad8 <HAL_RCC_OscConfig+0x168>
      ((__HAL_RCC_GET_SYSCLK_SOURCE() == RCC_CFGR_SWS_PLL) && ((RCC->PLLCFGR & RCC_PLLCFGR_PLLSRC) == RCC_PLLCFGR_PLLSRC_HSI)))
 8003a9e:	4b44      	ldr	r3, [pc, #272]	; (8003bb0 <HAL_RCC_OscConfig+0x240>)
 8003aa0:	685b      	ldr	r3, [r3, #4]
 8003aa2:	f403 0380 	and.w	r3, r3, #4194304	; 0x400000
 8003aa6:	2b00      	cmp	r3, #0
 8003aa8:	d116      	bne.n	8003ad8 <HAL_RCC_OscConfig+0x168>
    {
      /* When HSI is used as system clock it will not disabled */
      if((__HAL_RCC_GET_FLAG(RCC_FLAG_HSIRDY) != RESET) && (RCC_OscInitStruct->HSIState != RCC_HSI_ON))
 8003aaa:	4b41      	ldr	r3, [pc, #260]	; (8003bb0 <HAL_RCC_OscConfig+0x240>)
 8003aac:	681b      	ldr	r3, [r3, #0]
 8003aae:	f003 0302 	and.w	r3, r3, #2
 8003ab2:	2b00      	cmp	r3, #0
 8003ab4:	d005      	beq.n	8003ac2 <HAL_RCC_OscConfig+0x152>
 8003ab6:	687b      	ldr	r3, [r7, #4]
 8003ab8:	68db      	ldr	r3, [r3, #12]
 8003aba:	2b01      	cmp	r3, #1
 8003abc:	d001      	beq.n	8003ac2 <HAL_RCC_OscConfig+0x152>
      {
        return HAL_ERROR;
 8003abe:	2301      	movs	r3, #1
 8003ac0:	e1c7      	b.n	8003e52 <HAL_RCC_OscConfig+0x4e2>
      }
      /* Otherwise, just the calibration is allowed */
      else
      {
        /* Adjusts the Internal High Speed oscillator (HSI) calibration value.*/
        __HAL_RCC_HSI_CALIBRATIONVALUE_ADJUST(RCC_OscInitStruct->HSICalibrationValue);
 8003ac2:	4b3b      	ldr	r3, [pc, #236]	; (8003bb0 <HAL_RCC_OscConfig+0x240>)
 8003ac4:	681b      	ldr	r3, [r3, #0]
 8003ac6:	f023 02f8 	bic.w	r2, r3, #248	; 0xf8
 8003aca:	687b      	ldr	r3, [r7, #4]
 8003acc:	691b      	ldr	r3, [r3, #16]
 8003ace:	00db      	lsls	r3, r3, #3
 8003ad0:	4937      	ldr	r1, [pc, #220]	; (8003bb0 <HAL_RCC_OscConfig+0x240>)
 8003ad2:	4313      	orrs	r3, r2
 8003ad4:	600b      	str	r3, [r1, #0]
      if((__HAL_RCC_GET_FLAG(RCC_FLAG_HSIRDY) != RESET) && (RCC_OscInitStruct->HSIState != RCC_HSI_ON))
 8003ad6:	e03a      	b.n	8003b4e <HAL_RCC_OscConfig+0x1de>
      }
    }
    else
    {
      /* Check the HSI State */
      if((RCC_OscInitStruct->HSIState)!= RCC_HSI_OFF)
 8003ad8:	687b      	ldr	r3, [r7, #4]
 8003ada:	68db      	ldr	r3, [r3, #12]
 8003adc:	2b00      	cmp	r3, #0
 8003ade:	d020      	beq.n	8003b22 <HAL_RCC_OscConfig+0x1b2>
      {
        /* Enable the Internal High Speed oscillator (HSI). */
        __HAL_RCC_HSI_ENABLE();
 8003ae0:	4b34      	ldr	r3, [pc, #208]	; (8003bb4 <HAL_RCC_OscConfig+0x244>)
 8003ae2:	2201      	movs	r2, #1
 8003ae4:	601a      	str	r2, [r3, #0]

        /* Get Start Tick*/
        tickstart = HAL_GetTick();
 8003ae6:	f7fe fb3d 	bl	8002164 <HAL_GetTick>
 8003aea:	6138      	str	r0, [r7, #16]

        /* Wait till HSI is ready */
        while(__HAL_RCC_GET_FLAG(RCC_FLAG_HSIRDY) == RESET)
 8003aec:	e008      	b.n	8003b00 <HAL_RCC_OscConfig+0x190>
        {
          if((HAL_GetTick() - tickstart ) > HSI_TIMEOUT_VALUE)
 8003aee:	f7fe fb39 	bl	8002164 <HAL_GetTick>
 8003af2:	4602      	mov	r2, r0
 8003af4:	693b      	ldr	r3, [r7, #16]
 8003af6:	1ad3      	subs	r3, r2, r3
 8003af8:	2b02      	cmp	r3, #2
 8003afa:	d901      	bls.n	8003b00 <HAL_RCC_OscConfig+0x190>
          {
            return HAL_TIMEOUT;
 8003afc:	2303      	movs	r3, #3
 8003afe:	e1a8      	b.n	8003e52 <HAL_RCC_OscConfig+0x4e2>
        while(__HAL_RCC_GET_FLAG(RCC_FLAG_HSIRDY) == RESET)
 8003b00:	4b2b      	ldr	r3, [pc, #172]	; (8003bb0 <HAL_RCC_OscConfig+0x240>)
 8003b02:	681b      	ldr	r3, [r3, #0]
 8003b04:	f003 0302 	and.w	r3, r3, #2
 8003b08:	2b00      	cmp	r3, #0
 8003b0a:	d0f0      	beq.n	8003aee <HAL_RCC_OscConfig+0x17e>
          }
        }

        /* Adjusts the Internal High Speed oscillator (HSI) calibration value. */
        __HAL_RCC_HSI_CALIBRATIONVALUE_ADJUST(RCC_OscInitStruct->HSICalibrationValue);
 8003b0c:	4b28      	ldr	r3, [pc, #160]	; (8003bb0 <HAL_RCC_OscConfig+0x240>)
 8003b0e:	681b      	ldr	r3, [r3, #0]
 8003b10:	f023 02f8 	bic.w	r2, r3, #248	; 0xf8
 8003b14:	687b      	ldr	r3, [r7, #4]
 8003b16:	691b      	ldr	r3, [r3, #16]
 8003b18:	00db      	lsls	r3, r3, #3
 8003b1a:	4925      	ldr	r1, [pc, #148]	; (8003bb0 <HAL_RCC_OscConfig+0x240>)
 8003b1c:	4313      	orrs	r3, r2
 8003b1e:	600b      	str	r3, [r1, #0]
 8003b20:	e015      	b.n	8003b4e <HAL_RCC_OscConfig+0x1de>
      }
      else
      {
        /* Disable the Internal High Speed oscillator (HSI). */
        __HAL_RCC_HSI_DISABLE();
 8003b22:	4b24      	ldr	r3, [pc, #144]	; (8003bb4 <HAL_RCC_OscConfig+0x244>)
 8003b24:	2200      	movs	r2, #0
 8003b26:	601a      	str	r2, [r3, #0]

        /* Get Start Tick*/
        tickstart = HAL_GetTick();
 8003b28:	f7fe fb1c 	bl	8002164 <HAL_GetTick>
 8003b2c:	6138      	str	r0, [r7, #16]

        /* Wait till HSI is ready */
        while(__HAL_RCC_GET_FLAG(RCC_FLAG_HSIRDY) != RESET)
 8003b2e:	e008      	b.n	8003b42 <HAL_RCC_OscConfig+0x1d2>
        {
          if((HAL_GetTick() - tickstart ) > HSI_TIMEOUT_VALUE)
 8003b30:	f7fe fb18 	bl	8002164 <HAL_GetTick>
 8003b34:	4602      	mov	r2, r0
 8003b36:	693b      	ldr	r3, [r7, #16]
 8003b38:	1ad3      	subs	r3, r2, r3
 8003b3a:	2b02      	cmp	r3, #2
 8003b3c:	d901      	bls.n	8003b42 <HAL_RCC_OscConfig+0x1d2>
          {
            return HAL_TIMEOUT;
 8003b3e:	2303      	movs	r3, #3
 8003b40:	e187      	b.n	8003e52 <HAL_RCC_OscConfig+0x4e2>
        while(__HAL_RCC_GET_FLAG(RCC_FLAG_HSIRDY) != RESET)
 8003b42:	4b1b      	ldr	r3, [pc, #108]	; (8003bb0 <HAL_RCC_OscConfig+0x240>)
 8003b44:	681b      	ldr	r3, [r3, #0]
 8003b46:	f003 0302 	and.w	r3, r3, #2
 8003b4a:	2b00      	cmp	r3, #0
 8003b4c:	d1f0      	bne.n	8003b30 <HAL_RCC_OscConfig+0x1c0>
        }
      }
    }
  }
  /*------------------------------ LSI Configuration -------------------------*/
  if(((RCC_OscInitStruct->OscillatorType) & RCC_OSCILLATORTYPE_LSI) == RCC_OSCILLATORTYPE_LSI)
 8003b4e:	687b      	ldr	r3, [r7, #4]
 8003b50:	681b      	ldr	r3, [r3, #0]
 8003b52:	f003 0308 	and.w	r3, r3, #8
 8003b56:	2b00      	cmp	r3, #0
 8003b58:	d036      	beq.n	8003bc8 <HAL_RCC_OscConfig+0x258>
  {
    /* Check the parameters */
    assert_param(IS_RCC_LSI(RCC_OscInitStruct->LSIState));

    /* Check the LSI State */
    if((RCC_OscInitStruct->LSIState)!= RCC_LSI_OFF)
 8003b5a:	687b      	ldr	r3, [r7, #4]
 8003b5c:	695b      	ldr	r3, [r3, #20]
 8003b5e:	2b00      	cmp	r3, #0
 8003b60:	d016      	beq.n	8003b90 <HAL_RCC_OscConfig+0x220>
    {
      /* Enable the Internal Low Speed oscillator (LSI). */
      __HAL_RCC_LSI_ENABLE();
 8003b62:	4b15      	ldr	r3, [pc, #84]	; (8003bb8 <HAL_RCC_OscConfig+0x248>)
 8003b64:	2201      	movs	r2, #1
 8003b66:	601a      	str	r2, [r3, #0]

      /* Get Start Tick*/
      tickstart = HAL_GetTick();
 8003b68:	f7fe fafc 	bl	8002164 <HAL_GetTick>
 8003b6c:	6138      	str	r0, [r7, #16]

      /* Wait till LSI is ready */
      while(__HAL_RCC_GET_FLAG(RCC_FLAG_LSIRDY) == RESET)
 8003b6e:	e008      	b.n	8003b82 <HAL_RCC_OscConfig+0x212>
      {
        if((HAL_GetTick() - tickstart ) > LSI_TIMEOUT_VALUE)
 8003b70:	f7fe faf8 	bl	8002164 <HAL_GetTick>
 8003b74:	4602      	mov	r2, r0
 8003b76:	693b      	ldr	r3, [r7, #16]
 8003b78:	1ad3      	subs	r3, r2, r3
 8003b7a:	2b02      	cmp	r3, #2
 8003b7c:	d901      	bls.n	8003b82 <HAL_RCC_OscConfig+0x212>
        {
          return HAL_TIMEOUT;
 8003b7e:	2303      	movs	r3, #3
 8003b80:	e167      	b.n	8003e52 <HAL_RCC_OscConfig+0x4e2>
      while(__HAL_RCC_GET_FLAG(RCC_FLAG_LSIRDY) == RESET)
 8003b82:	4b0b      	ldr	r3, [pc, #44]	; (8003bb0 <HAL_RCC_OscConfig+0x240>)
 8003b84:	6f5b      	ldr	r3, [r3, #116]	; 0x74
 8003b86:	f003 0302 	and.w	r3, r3, #2
 8003b8a:	2b00      	cmp	r3, #0
 8003b8c:	d0f0      	beq.n	8003b70 <HAL_RCC_OscConfig+0x200>
 8003b8e:	e01b      	b.n	8003bc8 <HAL_RCC_OscConfig+0x258>
      }
    }
    else
    {
      /* Disable the Internal Low Speed oscillator (LSI). */
      __HAL_RCC_LSI_DISABLE();
 8003b90:	4b09      	ldr	r3, [pc, #36]	; (8003bb8 <HAL_RCC_OscConfig+0x248>)
 8003b92:	2200      	movs	r2, #0
 8003b94:	601a      	str	r2, [r3, #0]

      /* Get Start Tick */
      tickstart = HAL_GetTick();
 8003b96:	f7fe fae5 	bl	8002164 <HAL_GetTick>
 8003b9a:	6138      	str	r0, [r7, #16]

      /* Wait till LSI is ready */
      while(__HAL_RCC_GET_FLAG(RCC_FLAG_LSIRDY) != RESET)
 8003b9c:	e00e      	b.n	8003bbc <HAL_RCC_OscConfig+0x24c>
      {
        if((HAL_GetTick() - tickstart ) > LSI_TIMEOUT_VALUE)
 8003b9e:	f7fe fae1 	bl	8002164 <HAL_GetTick>
 8003ba2:	4602      	mov	r2, r0
 8003ba4:	693b      	ldr	r3, [r7, #16]
 8003ba6:	1ad3      	subs	r3, r2, r3
 8003ba8:	2b02      	cmp	r3, #2
 8003baa:	d907      	bls.n	8003bbc <HAL_RCC_OscConfig+0x24c>
        {
          return HAL_TIMEOUT;
 8003bac:	2303      	movs	r3, #3
 8003bae:	e150      	b.n	8003e52 <HAL_RCC_OscConfig+0x4e2>
 8003bb0:	40023800 	.word	0x40023800
 8003bb4:	42470000 	.word	0x42470000
 8003bb8:	42470e80 	.word	0x42470e80
      while(__HAL_RCC_GET_FLAG(RCC_FLAG_LSIRDY) != RESET)
 8003bbc:	4b88      	ldr	r3, [pc, #544]	; (8003de0 <HAL_RCC_OscConfig+0x470>)
 8003bbe:	6f5b      	ldr	r3, [r3, #116]	; 0x74
 8003bc0:	f003 0302 	and.w	r3, r3, #2
 8003bc4:	2b00      	cmp	r3, #0
 8003bc6:	d1ea      	bne.n	8003b9e <HAL_RCC_OscConfig+0x22e>
        }
      }
    }
  }
  /*------------------------------ LSE Configuration -------------------------*/
  if(((RCC_OscInitStruct->OscillatorType) & RCC_OSCILLATORTYPE_LSE) == RCC_OSCILLATORTYPE_LSE)
 8003bc8:	687b      	ldr	r3, [r7, #4]
 8003bca:	681b      	ldr	r3, [r3, #0]
 8003bcc:	f003 0304 	and.w	r3, r3, #4
 8003bd0:	2b00      	cmp	r3, #0
 8003bd2:	f000 8097 	beq.w	8003d04 <HAL_RCC_OscConfig+0x394>
  {
    FlagStatus       pwrclkchanged = RESET;
 8003bd6:	2300      	movs	r3, #0
 8003bd8:	75fb      	strb	r3, [r7, #23]
    /* Check the parameters */
    assert_param(IS_RCC_LSE(RCC_OscInitStruct->LSEState));

    /* Update LSE configuration in Backup Domain control register    */
    /* Requires to enable write access to Backup Domain of necessary */
    if(__HAL_RCC_PWR_IS_CLK_DISABLED())
 8003bda:	4b81      	ldr	r3, [pc, #516]	; (8003de0 <HAL_RCC_OscConfig+0x470>)
 8003bdc:	6c1b      	ldr	r3, [r3, #64]	; 0x40
 8003bde:	f003 5380 	and.w	r3, r3, #268435456	; 0x10000000
 8003be2:	2b00      	cmp	r3, #0
 8003be4:	d10f      	bne.n	8003c06 <HAL_RCC_OscConfig+0x296>
    {
      __HAL_RCC_PWR_CLK_ENABLE();
 8003be6:	2300      	movs	r3, #0
 8003be8:	60bb      	str	r3, [r7, #8]
 8003bea:	4b7d      	ldr	r3, [pc, #500]	; (8003de0 <HAL_RCC_OscConfig+0x470>)
 8003bec:	6c1b      	ldr	r3, [r3, #64]	; 0x40
 8003bee:	4a7c      	ldr	r2, [pc, #496]	; (8003de0 <HAL_RCC_OscConfig+0x470>)
 8003bf0:	f043 5380 	orr.w	r3, r3, #268435456	; 0x10000000
 8003bf4:	6413      	str	r3, [r2, #64]	; 0x40
 8003bf6:	4b7a      	ldr	r3, [pc, #488]	; (8003de0 <HAL_RCC_OscConfig+0x470>)
 8003bf8:	6c1b      	ldr	r3, [r3, #64]	; 0x40
 8003bfa:	f003 5380 	and.w	r3, r3, #268435456	; 0x10000000
 8003bfe:	60bb      	str	r3, [r7, #8]
 8003c00:	68bb      	ldr	r3, [r7, #8]
      pwrclkchanged = SET;
 8003c02:	2301      	movs	r3, #1
 8003c04:	75fb      	strb	r3, [r7, #23]
    }

    if(HAL_IS_BIT_CLR(PWR->CR, PWR_CR_DBP))
 8003c06:	4b77      	ldr	r3, [pc, #476]	; (8003de4 <HAL_RCC_OscConfig+0x474>)
 8003c08:	681b      	ldr	r3, [r3, #0]
 8003c0a:	f403 7380 	and.w	r3, r3, #256	; 0x100
 8003c0e:	2b00      	cmp	r3, #0
 8003c10:	d118      	bne.n	8003c44 <HAL_RCC_OscConfig+0x2d4>
    {
      /* Enable write access to Backup domain */
      SET_BIT(PWR->CR, PWR_CR_DBP);
 8003c12:	4b74      	ldr	r3, [pc, #464]	; (8003de4 <HAL_RCC_OscConfig+0x474>)
 8003c14:	681b      	ldr	r3, [r3, #0]
 8003c16:	4a73      	ldr	r2, [pc, #460]	; (8003de4 <HAL_RCC_OscConfig+0x474>)
 8003c18:	f443 7380 	orr.w	r3, r3, #256	; 0x100
 8003c1c:	6013      	str	r3, [r2, #0]

      /* Wait for Backup domain Write protection disable */
      tickstart = HAL_GetTick();
 8003c1e:	f7fe faa1 	bl	8002164 <HAL_GetTick>
 8003c22:	6138      	str	r0, [r7, #16]

      while(HAL_IS_BIT_CLR(PWR->CR, PWR_CR_DBP))
 8003c24:	e008      	b.n	8003c38 <HAL_RCC_OscConfig+0x2c8>
      {
        if((HAL_GetTick() - tickstart) > RCC_DBP_TIMEOUT_VALUE)
 8003c26:	f7fe fa9d 	bl	8002164 <HAL_GetTick>
 8003c2a:	4602      	mov	r2, r0
 8003c2c:	693b      	ldr	r3, [r7, #16]
 8003c2e:	1ad3      	subs	r3, r2, r3
 8003c30:	2b02      	cmp	r3, #2
 8003c32:	d901      	bls.n	8003c38 <HAL_RCC_OscConfig+0x2c8>
        {
          return HAL_TIMEOUT;
 8003c34:	2303      	movs	r3, #3
 8003c36:	e10c      	b.n	8003e52 <HAL_RCC_OscConfig+0x4e2>
      while(HAL_IS_BIT_CLR(PWR->CR, PWR_CR_DBP))
 8003c38:	4b6a      	ldr	r3, [pc, #424]	; (8003de4 <HAL_RCC_OscConfig+0x474>)
 8003c3a:	681b      	ldr	r3, [r3, #0]
 8003c3c:	f403 7380 	and.w	r3, r3, #256	; 0x100
 8003c40:	2b00      	cmp	r3, #0
 8003c42:	d0f0      	beq.n	8003c26 <HAL_RCC_OscConfig+0x2b6>
        }
      }
    }

    /* Set the new LSE configuration -----------------------------------------*/
    __HAL_RCC_LSE_CONFIG(RCC_OscInitStruct->LSEState);
 8003c44:	687b      	ldr	r3, [r7, #4]
 8003c46:	689b      	ldr	r3, [r3, #8]
 8003c48:	2b01      	cmp	r3, #1
 8003c4a:	d106      	bne.n	8003c5a <HAL_RCC_OscConfig+0x2ea>
 8003c4c:	4b64      	ldr	r3, [pc, #400]	; (8003de0 <HAL_RCC_OscConfig+0x470>)
 8003c4e:	6f1b      	ldr	r3, [r3, #112]	; 0x70
 8003c50:	4a63      	ldr	r2, [pc, #396]	; (8003de0 <HAL_RCC_OscConfig+0x470>)
 8003c52:	f043 0301 	orr.w	r3, r3, #1
 8003c56:	6713      	str	r3, [r2, #112]	; 0x70
 8003c58:	e01c      	b.n	8003c94 <HAL_RCC_OscConfig+0x324>
 8003c5a:	687b      	ldr	r3, [r7, #4]
 8003c5c:	689b      	ldr	r3, [r3, #8]
 8003c5e:	2b05      	cmp	r3, #5
 8003c60:	d10c      	bne.n	8003c7c <HAL_RCC_OscConfig+0x30c>
 8003c62:	4b5f      	ldr	r3, [pc, #380]	; (8003de0 <HAL_RCC_OscConfig+0x470>)
 8003c64:	6f1b      	ldr	r3, [r3, #112]	; 0x70
 8003c66:	4a5e      	ldr	r2, [pc, #376]	; (8003de0 <HAL_RCC_OscConfig+0x470>)
 8003c68:	f043 0304 	orr.w	r3, r3, #4
 8003c6c:	6713      	str	r3, [r2, #112]	; 0x70
 8003c6e:	4b5c      	ldr	r3, [pc, #368]	; (8003de0 <HAL_RCC_OscConfig+0x470>)
 8003c70:	6f1b      	ldr	r3, [r3, #112]	; 0x70
 8003c72:	4a5b      	ldr	r2, [pc, #364]	; (8003de0 <HAL_RCC_OscConfig+0x470>)
 8003c74:	f043 0301 	orr.w	r3, r3, #1
 8003c78:	6713      	str	r3, [r2, #112]	; 0x70
 8003c7a:	e00b      	b.n	8003c94 <HAL_RCC_OscConfig+0x324>
 8003c7c:	4b58      	ldr	r3, [pc, #352]	; (8003de0 <HAL_RCC_OscConfig+0x470>)
 8003c7e:	6f1b      	ldr	r3, [r3, #112]	; 0x70
 8003c80:	4a57      	ldr	r2, [pc, #348]	; (8003de0 <HAL_RCC_OscConfig+0x470>)
 8003c82:	f023 0301 	bic.w	r3, r3, #1
 8003c86:	6713      	str	r3, [r2, #112]	; 0x70
 8003c88:	4b55      	ldr	r3, [pc, #340]	; (8003de0 <HAL_RCC_OscConfig+0x470>)
 8003c8a:	6f1b      	ldr	r3, [r3, #112]	; 0x70
 8003c8c:	4a54      	ldr	r2, [pc, #336]	; (8003de0 <HAL_RCC_OscConfig+0x470>)
 8003c8e:	f023 0304 	bic.w	r3, r3, #4
 8003c92:	6713      	str	r3, [r2, #112]	; 0x70
    /* Check the LSE State */
    if((RCC_OscInitStruct->LSEState) != RCC_LSE_OFF)
 8003c94:	687b      	ldr	r3, [r7, #4]
 8003c96:	689b      	ldr	r3, [r3, #8]
 8003c98:	2b00      	cmp	r3, #0
 8003c9a:	d015      	beq.n	8003cc8 <HAL_RCC_OscConfig+0x358>
    {
      /* Get Start Tick*/
      tickstart = HAL_GetTick();
 8003c9c:	f7fe fa62 	bl	8002164 <HAL_GetTick>
 8003ca0:	6138      	str	r0, [r7, #16]

      /* Wait till LSE is ready */
      while(__HAL_RCC_GET_FLAG(RCC_FLAG_LSERDY) == RESET)
 8003ca2:	e00a      	b.n	8003cba <HAL_RCC_OscConfig+0x34a>
      {
        if((HAL_GetTick() - tickstart ) > RCC_LSE_TIMEOUT_VALUE)
 8003ca4:	f7fe fa5e 	bl	8002164 <HAL_GetTick>
 8003ca8:	4602      	mov	r2, r0
 8003caa:	693b      	ldr	r3, [r7, #16]
 8003cac:	1ad3      	subs	r3, r2, r3
 8003cae:	f241 3288 	movw	r2, #5000	; 0x1388
 8003cb2:	4293      	cmp	r3, r2
 8003cb4:	d901      	bls.n	8003cba <HAL_RCC_OscConfig+0x34a>
        {
          return HAL_TIMEOUT;
 8003cb6:	2303      	movs	r3, #3
 8003cb8:	e0cb      	b.n	8003e52 <HAL_RCC_OscConfig+0x4e2>
      while(__HAL_RCC_GET_FLAG(RCC_FLAG_LSERDY) == RESET)
 8003cba:	4b49      	ldr	r3, [pc, #292]	; (8003de0 <HAL_RCC_OscConfig+0x470>)
 8003cbc:	6f1b      	ldr	r3, [r3, #112]	; 0x70
 8003cbe:	f003 0302 	and.w	r3, r3, #2
 8003cc2:	2b00      	cmp	r3, #0
 8003cc4:	d0ee      	beq.n	8003ca4 <HAL_RCC_OscConfig+0x334>
 8003cc6:	e014      	b.n	8003cf2 <HAL_RCC_OscConfig+0x382>
      }
    }
    else
    {
      /* Get Start Tick */
      tickstart = HAL_GetTick();
 8003cc8:	f7fe fa4c 	bl	8002164 <HAL_GetTick>
 8003ccc:	6138      	str	r0, [r7, #16]

      /* Wait till LSE is ready */
      while(__HAL_RCC_GET_FLAG(RCC_FLAG_LSERDY) != RESET)
 8003cce:	e00a      	b.n	8003ce6 <HAL_RCC_OscConfig+0x376>
      {
        if((HAL_GetTick() - tickstart ) > RCC_LSE_TIMEOUT_VALUE)
 8003cd0:	f7fe fa48 	bl	8002164 <HAL_GetTick>
 8003cd4:	4602      	mov	r2, r0
 8003cd6:	693b      	ldr	r3, [r7, #16]
 8003cd8:	1ad3      	subs	r3, r2, r3
 8003cda:	f241 3288 	movw	r2, #5000	; 0x1388
 8003cde:	4293      	cmp	r3, r2
 8003ce0:	d901      	bls.n	8003ce6 <HAL_RCC_OscConfig+0x376>
        {
          return HAL_TIMEOUT;
 8003ce2:	2303      	movs	r3, #3
 8003ce4:	e0b5      	b.n	8003e52 <HAL_RCC_OscConfig+0x4e2>
      while(__HAL_RCC_GET_FLAG(RCC_FLAG_LSERDY) != RESET)
 8003ce6:	4b3e      	ldr	r3, [pc, #248]	; (8003de0 <HAL_RCC_OscConfig+0x470>)
 8003ce8:	6f1b      	ldr	r3, [r3, #112]	; 0x70
 8003cea:	f003 0302 	and.w	r3, r3, #2
 8003cee:	2b00      	cmp	r3, #0
 8003cf0:	d1ee      	bne.n	8003cd0 <HAL_RCC_OscConfig+0x360>
        }
      }
    }

    /* Restore clock configuration if changed */
    if(pwrclkchanged == SET)
 8003cf2:	7dfb      	ldrb	r3, [r7, #23]
 8003cf4:	2b01      	cmp	r3, #1
 8003cf6:	d105      	bne.n	8003d04 <HAL_RCC_OscConfig+0x394>
    {
      __HAL_RCC_PWR_CLK_DISABLE();
 8003cf8:	4b39      	ldr	r3, [pc, #228]	; (8003de0 <HAL_RCC_OscConfig+0x470>)
 8003cfa:	6c1b      	ldr	r3, [r3, #64]	; 0x40
 8003cfc:	4a38      	ldr	r2, [pc, #224]	; (8003de0 <HAL_RCC_OscConfig+0x470>)
 8003cfe:	f023 5380 	bic.w	r3, r3, #268435456	; 0x10000000
 8003d02:	6413      	str	r3, [r2, #64]	; 0x40
    }
  }
  /*-------------------------------- PLL Configuration -----------------------*/
  /* Check the parameters */
  assert_param(IS_RCC_PLL(RCC_OscInitStruct->PLL.PLLState));
  if ((RCC_OscInitStruct->PLL.PLLState) != RCC_PLL_NONE)
 8003d04:	687b      	ldr	r3, [r7, #4]
 8003d06:	699b      	ldr	r3, [r3, #24]
 8003d08:	2b00      	cmp	r3, #0
 8003d0a:	f000 80a1 	beq.w	8003e50 <HAL_RCC_OscConfig+0x4e0>
  {
    /* Check if the PLL is used as system clock or not */
    if(__HAL_RCC_GET_SYSCLK_SOURCE() != RCC_CFGR_SWS_PLL)
 8003d0e:	4b34      	ldr	r3, [pc, #208]	; (8003de0 <HAL_RCC_OscConfig+0x470>)
 8003d10:	689b      	ldr	r3, [r3, #8]
 8003d12:	f003 030c 	and.w	r3, r3, #12
 8003d16:	2b08      	cmp	r3, #8
 8003d18:	d05c      	beq.n	8003dd4 <HAL_RCC_OscConfig+0x464>
    {
      if((RCC_OscInitStruct->PLL.PLLState) == RCC_PLL_ON)
 8003d1a:	687b      	ldr	r3, [r7, #4]
 8003d1c:	699b      	ldr	r3, [r3, #24]
 8003d1e:	2b02      	cmp	r3, #2
 8003d20:	d141      	bne.n	8003da6 <HAL_RCC_OscConfig+0x436>
        assert_param(IS_RCC_PLLN_VALUE(RCC_OscInitStruct->PLL.PLLN));
        assert_param(IS_RCC_PLLP_VALUE(RCC_OscInitStruct->PLL.PLLP));
        assert_param(IS_RCC_PLLQ_VALUE(RCC_OscInitStruct->PLL.PLLQ));

        /* Disable the main PLL. */
        __HAL_RCC_PLL_DISABLE();
 8003d22:	4b31      	ldr	r3, [pc, #196]	; (8003de8 <HAL_RCC_OscConfig+0x478>)
 8003d24:	2200      	movs	r2, #0
 8003d26:	601a      	str	r2, [r3, #0]

        /* Get Start Tick */
        tickstart = HAL_GetTick();
 8003d28:	f7fe fa1c 	bl	8002164 <HAL_GetTick>
 8003d2c:	6138      	str	r0, [r7, #16]

        /* Wait till PLL is disabled */
        while(__HAL_RCC_GET_FLAG(RCC_FLAG_PLLRDY) != RESET)
 8003d2e:	e008      	b.n	8003d42 <HAL_RCC_OscConfig+0x3d2>
        {
          if((HAL_GetTick() - tickstart ) > PLL_TIMEOUT_VALUE)
 8003d30:	f7fe fa18 	bl	8002164 <HAL_GetTick>
 8003d34:	4602      	mov	r2, r0
 8003d36:	693b      	ldr	r3, [r7, #16]
 8003d38:	1ad3      	subs	r3, r2, r3
 8003d3a:	2b02      	cmp	r3, #2
 8003d3c:	d901      	bls.n	8003d42 <HAL_RCC_OscConfig+0x3d2>
          {
            return HAL_TIMEOUT;
 8003d3e:	2303      	movs	r3, #3
 8003d40:	e087      	b.n	8003e52 <HAL_RCC_OscConfig+0x4e2>
        while(__HAL_RCC_GET_FLAG(RCC_FLAG_PLLRDY) != RESET)
 8003d42:	4b27      	ldr	r3, [pc, #156]	; (8003de0 <HAL_RCC_OscConfig+0x470>)
 8003d44:	681b      	ldr	r3, [r3, #0]
 8003d46:	f003 7300 	and.w	r3, r3, #33554432	; 0x2000000
 8003d4a:	2b00      	cmp	r3, #0
 8003d4c:	d1f0      	bne.n	8003d30 <HAL_RCC_OscConfig+0x3c0>
          }
        }

        /* Configure the main PLL clock source, multiplication and division factors. */
        WRITE_REG(RCC->PLLCFGR, (RCC_OscInitStruct->PLL.PLLSource                                            | \
 8003d4e:	687b      	ldr	r3, [r7, #4]
 8003d50:	69da      	ldr	r2, [r3, #28]
 8003d52:	687b      	ldr	r3, [r7, #4]
 8003d54:	6a1b      	ldr	r3, [r3, #32]
 8003d56:	431a      	orrs	r2, r3
 8003d58:	687b      	ldr	r3, [r7, #4]
 8003d5a:	6a5b      	ldr	r3, [r3, #36]	; 0x24
 8003d5c:	019b      	lsls	r3, r3, #6
 8003d5e:	431a      	orrs	r2, r3
 8003d60:	687b      	ldr	r3, [r7, #4]
 8003d62:	6a9b      	ldr	r3, [r3, #40]	; 0x28
 8003d64:	085b      	lsrs	r3, r3, #1
 8003d66:	3b01      	subs	r3, #1
 8003d68:	041b      	lsls	r3, r3, #16
 8003d6a:	431a      	orrs	r2, r3
 8003d6c:	687b      	ldr	r3, [r7, #4]
 8003d6e:	6adb      	ldr	r3, [r3, #44]	; 0x2c
 8003d70:	061b      	lsls	r3, r3, #24
 8003d72:	491b      	ldr	r1, [pc, #108]	; (8003de0 <HAL_RCC_OscConfig+0x470>)
 8003d74:	4313      	orrs	r3, r2
 8003d76:	604b      	str	r3, [r1, #4]
                                 RCC_OscInitStruct->PLL.PLLM                                                 | \
                                 (RCC_OscInitStruct->PLL.PLLN << RCC_PLLCFGR_PLLN_Pos)             | \
                                 (((RCC_OscInitStruct->PLL.PLLP >> 1U) - 1U) << RCC_PLLCFGR_PLLP_Pos) | \
                                 (RCC_OscInitStruct->PLL.PLLQ << RCC_PLLCFGR_PLLQ_Pos)));
        /* Enable the main PLL. */
        __HAL_RCC_PLL_ENABLE();
 8003d78:	4b1b      	ldr	r3, [pc, #108]	; (8003de8 <HAL_RCC_OscConfig+0x478>)
 8003d7a:	2201      	movs	r2, #1
 8003d7c:	601a      	str	r2, [r3, #0]

        /* Get Start Tick */
        tickstart = HAL_GetTick();
 8003d7e:	f7fe f9f1 	bl	8002164 <HAL_GetTick>
 8003d82:	6138      	str	r0, [r7, #16]

        /* Wait till PLL is ready */
        while(__HAL_RCC_GET_FLAG(RCC_FLAG_PLLRDY) == RESET)
 8003d84:	e008      	b.n	8003d98 <HAL_RCC_OscConfig+0x428>
        {
          if((HAL_GetTick() - tickstart ) > PLL_TIMEOUT_VALUE)
 8003d86:	f7fe f9ed 	bl	8002164 <HAL_GetTick>
 8003d8a:	4602      	mov	r2, r0
 8003d8c:	693b      	ldr	r3, [r7, #16]
 8003d8e:	1ad3      	subs	r3, r2, r3
 8003d90:	2b02      	cmp	r3, #2
 8003d92:	d901      	bls.n	8003d98 <HAL_RCC_OscConfig+0x428>
          {
            return HAL_TIMEOUT;
 8003d94:	2303      	movs	r3, #3
 8003d96:	e05c      	b.n	8003e52 <HAL_RCC_OscConfig+0x4e2>
        while(__HAL_RCC_GET_FLAG(RCC_FLAG_PLLRDY) == RESET)
 8003d98:	4b11      	ldr	r3, [pc, #68]	; (8003de0 <HAL_RCC_OscConfig+0x470>)
 8003d9a:	681b      	ldr	r3, [r3, #0]
 8003d9c:	f003 7300 	and.w	r3, r3, #33554432	; 0x2000000
 8003da0:	2b00      	cmp	r3, #0
 8003da2:	d0f0      	beq.n	8003d86 <HAL_RCC_OscConfig+0x416>
 8003da4:	e054      	b.n	8003e50 <HAL_RCC_OscConfig+0x4e0>
        }
      }
      else
      {
        /* Disable the main PLL. */
        __HAL_RCC_PLL_DISABLE();
 8003da6:	4b10      	ldr	r3, [pc, #64]	; (8003de8 <HAL_RCC_OscConfig+0x478>)
 8003da8:	2200      	movs	r2, #0
 8003daa:	601a      	str	r2, [r3, #0]

        /* Get Start Tick */
        tickstart = HAL_GetTick();
 8003dac:	f7fe f9da 	bl	8002164 <HAL_GetTick>
 8003db0:	6138      	str	r0, [r7, #16]

        /* Wait till PLL is disabled */
        while(__HAL_RCC_GET_FLAG(RCC_FLAG_PLLRDY) != RESET)
 8003db2:	e008      	b.n	8003dc6 <HAL_RCC_OscConfig+0x456>
        {
          if((HAL_GetTick() - tickstart ) > PLL_TIMEOUT_VALUE)
 8003db4:	f7fe f9d6 	bl	8002164 <HAL_GetTick>
 8003db8:	4602      	mov	r2, r0
 8003dba:	693b      	ldr	r3, [r7, #16]
 8003dbc:	1ad3      	subs	r3, r2, r3
 8003dbe:	2b02      	cmp	r3, #2
 8003dc0:	d901      	bls.n	8003dc6 <HAL_RCC_OscConfig+0x456>
          {
            return HAL_TIMEOUT;
 8003dc2:	2303      	movs	r3, #3
 8003dc4:	e045      	b.n	8003e52 <HAL_RCC_OscConfig+0x4e2>
        while(__HAL_RCC_GET_FLAG(RCC_FLAG_PLLRDY) != RESET)
 8003dc6:	4b06      	ldr	r3, [pc, #24]	; (8003de0 <HAL_RCC_OscConfig+0x470>)
 8003dc8:	681b      	ldr	r3, [r3, #0]
 8003dca:	f003 7300 	and.w	r3, r3, #33554432	; 0x2000000
 8003dce:	2b00      	cmp	r3, #0
 8003dd0:	d1f0      	bne.n	8003db4 <HAL_RCC_OscConfig+0x444>
 8003dd2:	e03d      	b.n	8003e50 <HAL_RCC_OscConfig+0x4e0>
      }
    }
    else
    {
      /* Check if there is a request to disable the PLL used as System clock source */
      if((RCC_OscInitStruct->PLL.PLLState) == RCC_PLL_OFF)
 8003dd4:	687b      	ldr	r3, [r7, #4]
 8003dd6:	699b      	ldr	r3, [r3, #24]
 8003dd8:	2b01      	cmp	r3, #1
 8003dda:	d107      	bne.n	8003dec <HAL_RCC_OscConfig+0x47c>
      {
        return HAL_ERROR;
 8003ddc:	2301      	movs	r3, #1
 8003dde:	e038      	b.n	8003e52 <HAL_RCC_OscConfig+0x4e2>
 8003de0:	40023800 	.word	0x40023800
 8003de4:	40007000 	.word	0x40007000
 8003de8:	42470060 	.word	0x42470060
      }
      else
      {
        /* Do not return HAL_ERROR if request repeats the current configuration */
        pll_config = RCC->PLLCFGR;
 8003dec:	4b1b      	ldr	r3, [pc, #108]	; (8003e5c <HAL_RCC_OscConfig+0x4ec>)
 8003dee:	685b      	ldr	r3, [r3, #4]
 8003df0:	60fb      	str	r3, [r7, #12]
            (READ_BIT(pll_config, RCC_PLLCFGR_PLLN) != (RCC_OscInitStruct->PLL.PLLN) << RCC_PLLCFGR_PLLN_Pos) ||
            (READ_BIT(pll_config, RCC_PLLCFGR_PLLP) != (((RCC_OscInitStruct->PLL.PLLP >> 1U) - 1U)) << RCC_PLLCFGR_PLLP_Pos) ||
            (READ_BIT(pll_config, RCC_PLLCFGR_PLLQ) != (RCC_OscInitStruct->PLL.PLLQ << RCC_PLLCFGR_PLLQ_Pos)) ||
            (READ_BIT(pll_config, RCC_PLLCFGR_PLLR) != (RCC_OscInitStruct->PLL.PLLR << RCC_PLLCFGR_PLLR_Pos)))
#else
        if (((RCC_OscInitStruct->PLL.PLLState) == RCC_PLL_OFF) ||
 8003df2:	687b      	ldr	r3, [r7, #4]
 8003df4:	699b      	ldr	r3, [r3, #24]
 8003df6:	2b01      	cmp	r3, #1
 8003df8:	d028      	beq.n	8003e4c <HAL_RCC_OscConfig+0x4dc>
            (READ_BIT(pll_config, RCC_PLLCFGR_PLLSRC) != RCC_OscInitStruct->PLL.PLLSource) ||
 8003dfa:	68fb      	ldr	r3, [r7, #12]
 8003dfc:	f403 0280 	and.w	r2, r3, #4194304	; 0x400000
 8003e00:	687b      	ldr	r3, [r7, #4]
 8003e02:	69db      	ldr	r3, [r3, #28]
        if (((RCC_OscInitStruct->PLL.PLLState) == RCC_PLL_OFF) ||
 8003e04:	429a      	cmp	r2, r3
 8003e06:	d121      	bne.n	8003e4c <HAL_RCC_OscConfig+0x4dc>
            (READ_BIT(pll_config, RCC_PLLCFGR_PLLM) != (RCC_OscInitStruct->PLL.PLLM) << RCC_PLLCFGR_PLLM_Pos) ||
 8003e08:	68fb      	ldr	r3, [r7, #12]
 8003e0a:	f003 023f 	and.w	r2, r3, #63	; 0x3f
 8003e0e:	687b      	ldr	r3, [r7, #4]
 8003e10:	6a1b      	ldr	r3, [r3, #32]
            (READ_BIT(pll_config, RCC_PLLCFGR_PLLSRC) != RCC_OscInitStruct->PLL.PLLSource) ||
 8003e12:	429a      	cmp	r2, r3
 8003e14:	d11a      	bne.n	8003e4c <HAL_RCC_OscConfig+0x4dc>
            (READ_BIT(pll_config, RCC_PLLCFGR_PLLN) != (RCC_OscInitStruct->PLL.PLLN) << RCC_PLLCFGR_PLLN_Pos) ||
 8003e16:	68fa      	ldr	r2, [r7, #12]
 8003e18:	f647 73c0 	movw	r3, #32704	; 0x7fc0
 8003e1c:	4013      	ands	r3, r2
 8003e1e:	687a      	ldr	r2, [r7, #4]
 8003e20:	6a52      	ldr	r2, [r2, #36]	; 0x24
 8003e22:	0192      	lsls	r2, r2, #6
            (READ_BIT(pll_config, RCC_PLLCFGR_PLLM) != (RCC_OscInitStruct->PLL.PLLM) << RCC_PLLCFGR_PLLM_Pos) ||
 8003e24:	4293      	cmp	r3, r2
 8003e26:	d111      	bne.n	8003e4c <HAL_RCC_OscConfig+0x4dc>
            (READ_BIT(pll_config, RCC_PLLCFGR_PLLP) != (((RCC_OscInitStruct->PLL.PLLP >> 1U) - 1U)) << RCC_PLLCFGR_PLLP_Pos) ||
 8003e28:	68fb      	ldr	r3, [r7, #12]
 8003e2a:	f403 3240 	and.w	r2, r3, #196608	; 0x30000
 8003e2e:	687b      	ldr	r3, [r7, #4]
 8003e30:	6a9b      	ldr	r3, [r3, #40]	; 0x28
 8003e32:	085b      	lsrs	r3, r3, #1
 8003e34:	3b01      	subs	r3, #1
 8003e36:	041b      	lsls	r3, r3, #16
            (READ_BIT(pll_config, RCC_PLLCFGR_PLLN) != (RCC_OscInitStruct->PLL.PLLN) << RCC_PLLCFGR_PLLN_Pos) ||
 8003e38:	429a      	cmp	r2, r3
 8003e3a:	d107      	bne.n	8003e4c <HAL_RCC_OscConfig+0x4dc>
            (READ_BIT(pll_config, RCC_PLLCFGR_PLLQ) != (RCC_OscInitStruct->PLL.PLLQ << RCC_PLLCFGR_PLLQ_Pos)))
 8003e3c:	68fb      	ldr	r3, [r7, #12]
 8003e3e:	f003 6270 	and.w	r2, r3, #251658240	; 0xf000000
 8003e42:	687b      	ldr	r3, [r7, #4]
 8003e44:	6adb      	ldr	r3, [r3, #44]	; 0x2c
 8003e46:	061b      	lsls	r3, r3, #24
            (READ_BIT(pll_config, RCC_PLLCFGR_PLLP) != (((RCC_OscInitStruct->PLL.PLLP >> 1U) - 1U)) << RCC_PLLCFGR_PLLP_Pos) ||
 8003e48:	429a      	cmp	r2, r3
 8003e4a:	d001      	beq.n	8003e50 <HAL_RCC_OscConfig+0x4e0>
#endif
        {
          return HAL_ERROR;
 8003e4c:	2301      	movs	r3, #1
 8003e4e:	e000      	b.n	8003e52 <HAL_RCC_OscConfig+0x4e2>
        }
      }
    }
  }
  return HAL_OK;
 8003e50:	2300      	movs	r3, #0
}
 8003e52:	4618      	mov	r0, r3
 8003e54:	3718      	adds	r7, #24
 8003e56:	46bd      	mov	sp, r7
 8003e58:	bd80      	pop	{r7, pc}
 8003e5a:	bf00      	nop
 8003e5c:	40023800 	.word	0x40023800

08003e60 <HAL_RCC_ClockConfig>:
  *         HPRE[3:0] bits to ensure that HCLK not exceed the maximum allowed frequency
  *         (for more details refer to section above "Initialization/de-initialization functions")
  * @retval None
  */
HAL_StatusTypeDef HAL_RCC_ClockConfig(RCC_ClkInitTypeDef  *RCC_ClkInitStruct, uint32_t FLatency)
{
 8003e60:	b580      	push	{r7, lr}
 8003e62:	b084      	sub	sp, #16
 8003e64:	af00      	add	r7, sp, #0
 8003e66:	6078      	str	r0, [r7, #4]
 8003e68:	6039      	str	r1, [r7, #0]
  uint32_t tickstart;

  /* Check Null pointer */
  if(RCC_ClkInitStruct == NULL)
 8003e6a:	687b      	ldr	r3, [r7, #4]
 8003e6c:	2b00      	cmp	r3, #0
 8003e6e:	d101      	bne.n	8003e74 <HAL_RCC_ClockConfig+0x14>
  {
    return HAL_ERROR;
 8003e70:	2301      	movs	r3, #1
 8003e72:	e0cc      	b.n	800400e <HAL_RCC_ClockConfig+0x1ae>
  /* To correctly read data from FLASH memory, the number of wait states (LATENCY)
    must be correctly programmed according to the frequency of the CPU clock
    (HCLK) and the supply voltage of the device. */

  /* Increasing the number of wait states because of higher CPU frequency */
  if(FLatency > __HAL_FLASH_GET_LATENCY())
 8003e74:	4b68      	ldr	r3, [pc, #416]	; (8004018 <HAL_RCC_ClockConfig+0x1b8>)
 8003e76:	681b      	ldr	r3, [r3, #0]
 8003e78:	f003 030f 	and.w	r3, r3, #15
 8003e7c:	683a      	ldr	r2, [r7, #0]
 8003e7e:	429a      	cmp	r2, r3
 8003e80:	d90c      	bls.n	8003e9c <HAL_RCC_ClockConfig+0x3c>
  {
    /* Program the new number of wait states to the LATENCY bits in the FLASH_ACR register */
    __HAL_FLASH_SET_LATENCY(FLatency);
 8003e82:	4b65      	ldr	r3, [pc, #404]	; (8004018 <HAL_RCC_ClockConfig+0x1b8>)
 8003e84:	683a      	ldr	r2, [r7, #0]
 8003e86:	b2d2      	uxtb	r2, r2
 8003e88:	701a      	strb	r2, [r3, #0]

    /* Check that the new number of wait states is taken into account to access the Flash
    memory by reading the FLASH_ACR register */
    if(__HAL_FLASH_GET_LATENCY() != FLatency)
 8003e8a:	4b63      	ldr	r3, [pc, #396]	; (8004018 <HAL_RCC_ClockConfig+0x1b8>)
 8003e8c:	681b      	ldr	r3, [r3, #0]
 8003e8e:	f003 030f 	and.w	r3, r3, #15
 8003e92:	683a      	ldr	r2, [r7, #0]
 8003e94:	429a      	cmp	r2, r3
 8003e96:	d001      	beq.n	8003e9c <HAL_RCC_ClockConfig+0x3c>
    {
      return HAL_ERROR;
 8003e98:	2301      	movs	r3, #1
 8003e9a:	e0b8      	b.n	800400e <HAL_RCC_ClockConfig+0x1ae>
    }
  }

  /*-------------------------- HCLK Configuration --------------------------*/
  if(((RCC_ClkInitStruct->ClockType) & RCC_CLOCKTYPE_HCLK) == RCC_CLOCKTYPE_HCLK)
 8003e9c:	687b      	ldr	r3, [r7, #4]
 8003e9e:	681b      	ldr	r3, [r3, #0]
 8003ea0:	f003 0302 	and.w	r3, r3, #2
 8003ea4:	2b00      	cmp	r3, #0
 8003ea6:	d020      	beq.n	8003eea <HAL_RCC_ClockConfig+0x8a>
  {
    /* Set the highest APBx dividers in order to ensure that we do not go through
       a non-spec phase whatever we decrease or increase HCLK. */
    if(((RCC_ClkInitStruct->ClockType) & RCC_CLOCKTYPE_PCLK1) == RCC_CLOCKTYPE_PCLK1)
 8003ea8:	687b      	ldr	r3, [r7, #4]
 8003eaa:	681b      	ldr	r3, [r3, #0]
 8003eac:	f003 0304 	and.w	r3, r3, #4
 8003eb0:	2b00      	cmp	r3, #0
 8003eb2:	d005      	beq.n	8003ec0 <HAL_RCC_ClockConfig+0x60>
    {
      MODIFY_REG(RCC->CFGR, RCC_CFGR_PPRE1, RCC_HCLK_DIV16);
 8003eb4:	4b59      	ldr	r3, [pc, #356]	; (800401c <HAL_RCC_ClockConfig+0x1bc>)
 8003eb6:	689b      	ldr	r3, [r3, #8]
 8003eb8:	4a58      	ldr	r2, [pc, #352]	; (800401c <HAL_RCC_ClockConfig+0x1bc>)
 8003eba:	f443 53e0 	orr.w	r3, r3, #7168	; 0x1c00
 8003ebe:	6093      	str	r3, [r2, #8]
    }

    if(((RCC_ClkInitStruct->ClockType) & RCC_CLOCKTYPE_PCLK2) == RCC_CLOCKTYPE_PCLK2)
 8003ec0:	687b      	ldr	r3, [r7, #4]
 8003ec2:	681b      	ldr	r3, [r3, #0]
 8003ec4:	f003 0308 	and.w	r3, r3, #8
 8003ec8:	2b00      	cmp	r3, #0
 8003eca:	d005      	beq.n	8003ed8 <HAL_RCC_ClockConfig+0x78>
    {
      MODIFY_REG(RCC->CFGR, RCC_CFGR_PPRE2, (RCC_HCLK_DIV16 << 3));
 8003ecc:	4b53      	ldr	r3, [pc, #332]	; (800401c <HAL_RCC_ClockConfig+0x1bc>)
 8003ece:	689b      	ldr	r3, [r3, #8]
 8003ed0:	4a52      	ldr	r2, [pc, #328]	; (800401c <HAL_RCC_ClockConfig+0x1bc>)
 8003ed2:	f443 4360 	orr.w	r3, r3, #57344	; 0xe000
 8003ed6:	6093      	str	r3, [r2, #8]
    }

    assert_param(IS_RCC_HCLK(RCC_ClkInitStruct->AHBCLKDivider));
    MODIFY_REG(RCC->CFGR, RCC_CFGR_HPRE, RCC_ClkInitStruct->AHBCLKDivider);
 8003ed8:	4b50      	ldr	r3, [pc, #320]	; (800401c <HAL_RCC_ClockConfig+0x1bc>)
 8003eda:	689b      	ldr	r3, [r3, #8]
 8003edc:	f023 02f0 	bic.w	r2, r3, #240	; 0xf0
 8003ee0:	687b      	ldr	r3, [r7, #4]
 8003ee2:	689b      	ldr	r3, [r3, #8]
 8003ee4:	494d      	ldr	r1, [pc, #308]	; (800401c <HAL_RCC_ClockConfig+0x1bc>)
 8003ee6:	4313      	orrs	r3, r2
 8003ee8:	608b      	str	r3, [r1, #8]
  }

  /*------------------------- SYSCLK Configuration ---------------------------*/
  if(((RCC_ClkInitStruct->ClockType) & RCC_CLOCKTYPE_SYSCLK) == RCC_CLOCKTYPE_SYSCLK)
 8003eea:	687b      	ldr	r3, [r7, #4]
 8003eec:	681b      	ldr	r3, [r3, #0]
 8003eee:	f003 0301 	and.w	r3, r3, #1
 8003ef2:	2b00      	cmp	r3, #0
 8003ef4:	d044      	beq.n	8003f80 <HAL_RCC_ClockConfig+0x120>
  {
    assert_param(IS_RCC_SYSCLKSOURCE(RCC_ClkInitStruct->SYSCLKSource));

    /* HSE is selected as System Clock Source */
    if(RCC_ClkInitStruct->SYSCLKSource == RCC_SYSCLKSOURCE_HSE)
 8003ef6:	687b      	ldr	r3, [r7, #4]
 8003ef8:	685b      	ldr	r3, [r3, #4]
 8003efa:	2b01      	cmp	r3, #1
 8003efc:	d107      	bne.n	8003f0e <HAL_RCC_ClockConfig+0xae>
    {
      /* Check the HSE ready flag */
      if(__HAL_RCC_GET_FLAG(RCC_FLAG_HSERDY) == RESET)
 8003efe:	4b47      	ldr	r3, [pc, #284]	; (800401c <HAL_RCC_ClockConfig+0x1bc>)
 8003f00:	681b      	ldr	r3, [r3, #0]
 8003f02:	f403 3300 	and.w	r3, r3, #131072	; 0x20000
 8003f06:	2b00      	cmp	r3, #0
 8003f08:	d119      	bne.n	8003f3e <HAL_RCC_ClockConfig+0xde>
      {
        return HAL_ERROR;
 8003f0a:	2301      	movs	r3, #1
 8003f0c:	e07f      	b.n	800400e <HAL_RCC_ClockConfig+0x1ae>
      }
    }
    /* PLL is selected as System Clock Source */
    else if((RCC_ClkInitStruct->SYSCLKSource == RCC_SYSCLKSOURCE_PLLCLK)   ||
 8003f0e:	687b      	ldr	r3, [r7, #4]
 8003f10:	685b      	ldr	r3, [r3, #4]
 8003f12:	2b02      	cmp	r3, #2
 8003f14:	d003      	beq.n	8003f1e <HAL_RCC_ClockConfig+0xbe>
            (RCC_ClkInitStruct->SYSCLKSource == RCC_SYSCLKSOURCE_PLLRCLK))
 8003f16:	687b      	ldr	r3, [r7, #4]
 8003f18:	685b      	ldr	r3, [r3, #4]
    else if((RCC_ClkInitStruct->SYSCLKSource == RCC_SYSCLKSOURCE_PLLCLK)   ||
 8003f1a:	2b03      	cmp	r3, #3
 8003f1c:	d107      	bne.n	8003f2e <HAL_RCC_ClockConfig+0xce>
    {
      /* Check the PLL ready flag */
      if(__HAL_RCC_GET_FLAG(RCC_FLAG_PLLRDY) == RESET)
 8003f1e:	4b3f      	ldr	r3, [pc, #252]	; (800401c <HAL_RCC_ClockConfig+0x1bc>)
 8003f20:	681b      	ldr	r3, [r3, #0]
 8003f22:	f003 7300 	and.w	r3, r3, #33554432	; 0x2000000
 8003f26:	2b00      	cmp	r3, #0
 8003f28:	d109      	bne.n	8003f3e <HAL_RCC_ClockConfig+0xde>
      {
        return HAL_ERROR;
 8003f2a:	2301      	movs	r3, #1
 8003f2c:	e06f      	b.n	800400e <HAL_RCC_ClockConfig+0x1ae>
    }
    /* HSI is selected as System Clock Source */
    else
    {
      /* Check the HSI ready flag */
      if(__HAL_RCC_GET_FLAG(RCC_FLAG_HSIRDY) == RESET)
 8003f2e:	4b3b      	ldr	r3, [pc, #236]	; (800401c <HAL_RCC_ClockConfig+0x1bc>)
 8003f30:	681b      	ldr	r3, [r3, #0]
 8003f32:	f003 0302 	and.w	r3, r3, #2
 8003f36:	2b00      	cmp	r3, #0
 8003f38:	d101      	bne.n	8003f3e <HAL_RCC_ClockConfig+0xde>
      {
        return HAL_ERROR;
 8003f3a:	2301      	movs	r3, #1
 8003f3c:	e067      	b.n	800400e <HAL_RCC_ClockConfig+0x1ae>
      }
    }

    __HAL_RCC_SYSCLK_CONFIG(RCC_ClkInitStruct->SYSCLKSource);
 8003f3e:	4b37      	ldr	r3, [pc, #220]	; (800401c <HAL_RCC_ClockConfig+0x1bc>)
 8003f40:	689b      	ldr	r3, [r3, #8]
 8003f42:	f023 0203 	bic.w	r2, r3, #3
 8003f46:	687b      	ldr	r3, [r7, #4]
 8003f48:	685b      	ldr	r3, [r3, #4]
 8003f4a:	4934      	ldr	r1, [pc, #208]	; (800401c <HAL_RCC_ClockConfig+0x1bc>)
 8003f4c:	4313      	orrs	r3, r2
 8003f4e:	608b      	str	r3, [r1, #8]

    /* Get Start Tick */
    tickstart = HAL_GetTick();
 8003f50:	f7fe f908 	bl	8002164 <HAL_GetTick>
 8003f54:	60f8      	str	r0, [r7, #12]

    while (__HAL_RCC_GET_SYSCLK_SOURCE() != (RCC_ClkInitStruct->SYSCLKSource << RCC_CFGR_SWS_Pos))
 8003f56:	e00a      	b.n	8003f6e <HAL_RCC_ClockConfig+0x10e>
    {
      if ((HAL_GetTick() - tickstart) > CLOCKSWITCH_TIMEOUT_VALUE)
 8003f58:	f7fe f904 	bl	8002164 <HAL_GetTick>
 8003f5c:	4602      	mov	r2, r0
 8003f5e:	68fb      	ldr	r3, [r7, #12]
 8003f60:	1ad3      	subs	r3, r2, r3
 8003f62:	f241 3288 	movw	r2, #5000	; 0x1388
 8003f66:	4293      	cmp	r3, r2
 8003f68:	d901      	bls.n	8003f6e <HAL_RCC_ClockConfig+0x10e>
      {
        return HAL_TIMEOUT;
 8003f6a:	2303      	movs	r3, #3
 8003f6c:	e04f      	b.n	800400e <HAL_RCC_ClockConfig+0x1ae>
    while (__HAL_RCC_GET_SYSCLK_SOURCE() != (RCC_ClkInitStruct->SYSCLKSource << RCC_CFGR_SWS_Pos))
 8003f6e:	4b2b      	ldr	r3, [pc, #172]	; (800401c <HAL_RCC_ClockConfig+0x1bc>)
 8003f70:	689b      	ldr	r3, [r3, #8]
 8003f72:	f003 020c 	and.w	r2, r3, #12
 8003f76:	687b      	ldr	r3, [r7, #4]
 8003f78:	685b      	ldr	r3, [r3, #4]
 8003f7a:	009b      	lsls	r3, r3, #2
 8003f7c:	429a      	cmp	r2, r3
 8003f7e:	d1eb      	bne.n	8003f58 <HAL_RCC_ClockConfig+0xf8>
      }
    }
  }

  /* Decreasing the number of wait states because of lower CPU frequency */
  if(FLatency < __HAL_FLASH_GET_LATENCY())
 8003f80:	4b25      	ldr	r3, [pc, #148]	; (8004018 <HAL_RCC_ClockConfig+0x1b8>)
 8003f82:	681b      	ldr	r3, [r3, #0]
 8003f84:	f003 030f 	and.w	r3, r3, #15
 8003f88:	683a      	ldr	r2, [r7, #0]
 8003f8a:	429a      	cmp	r2, r3
 8003f8c:	d20c      	bcs.n	8003fa8 <HAL_RCC_ClockConfig+0x148>
  {
     /* Program the new number of wait states to the LATENCY bits in the FLASH_ACR register */
    __HAL_FLASH_SET_LATENCY(FLatency);
 8003f8e:	4b22      	ldr	r3, [pc, #136]	; (8004018 <HAL_RCC_ClockConfig+0x1b8>)
 8003f90:	683a      	ldr	r2, [r7, #0]
 8003f92:	b2d2      	uxtb	r2, r2
 8003f94:	701a      	strb	r2, [r3, #0]

    /* Check that the new number of wait states is taken into account to access the Flash
    memory by reading the FLASH_ACR register */
    if(__HAL_FLASH_GET_LATENCY() != FLatency)
 8003f96:	4b20      	ldr	r3, [pc, #128]	; (8004018 <HAL_RCC_ClockConfig+0x1b8>)
 8003f98:	681b      	ldr	r3, [r3, #0]
 8003f9a:	f003 030f 	and.w	r3, r3, #15
 8003f9e:	683a      	ldr	r2, [r7, #0]
 8003fa0:	429a      	cmp	r2, r3
 8003fa2:	d001      	beq.n	8003fa8 <HAL_RCC_ClockConfig+0x148>
    {
      return HAL_ERROR;
 8003fa4:	2301      	movs	r3, #1
 8003fa6:	e032      	b.n	800400e <HAL_RCC_ClockConfig+0x1ae>
    }
  }

  /*-------------------------- PCLK1 Configuration ---------------------------*/
  if(((RCC_ClkInitStruct->ClockType) & RCC_CLOCKTYPE_PCLK1) == RCC_CLOCKTYPE_PCLK1)
 8003fa8:	687b      	ldr	r3, [r7, #4]
 8003faa:	681b      	ldr	r3, [r3, #0]
 8003fac:	f003 0304 	and.w	r3, r3, #4
 8003fb0:	2b00      	cmp	r3, #0
 8003fb2:	d008      	beq.n	8003fc6 <HAL_RCC_ClockConfig+0x166>
  {
    assert_param(IS_RCC_PCLK(RCC_ClkInitStruct->APB1CLKDivider));
    MODIFY_REG(RCC->CFGR, RCC_CFGR_PPRE1, RCC_ClkInitStruct->APB1CLKDivider);
 8003fb4:	4b19      	ldr	r3, [pc, #100]	; (800401c <HAL_RCC_ClockConfig+0x1bc>)
 8003fb6:	689b      	ldr	r3, [r3, #8]
 8003fb8:	f423 52e0 	bic.w	r2, r3, #7168	; 0x1c00
 8003fbc:	687b      	ldr	r3, [r7, #4]
 8003fbe:	68db      	ldr	r3, [r3, #12]
 8003fc0:	4916      	ldr	r1, [pc, #88]	; (800401c <HAL_RCC_ClockConfig+0x1bc>)
 8003fc2:	4313      	orrs	r3, r2
 8003fc4:	608b      	str	r3, [r1, #8]
  }

  /*-------------------------- PCLK2 Configuration ---------------------------*/
  if(((RCC_ClkInitStruct->ClockType) & RCC_CLOCKTYPE_PCLK2) == RCC_CLOCKTYPE_PCLK2)
 8003fc6:	687b      	ldr	r3, [r7, #4]
 8003fc8:	681b      	ldr	r3, [r3, #0]
 8003fca:	f003 0308 	and.w	r3, r3, #8
 8003fce:	2b00      	cmp	r3, #0
 8003fd0:	d009      	beq.n	8003fe6 <HAL_RCC_ClockConfig+0x186>
  {
    assert_param(IS_RCC_PCLK(RCC_ClkInitStruct->APB2CLKDivider));
    MODIFY_REG(RCC->CFGR, RCC_CFGR_PPRE2, ((RCC_ClkInitStruct->APB2CLKDivider) << 3U));
 8003fd2:	4b12      	ldr	r3, [pc, #72]	; (800401c <HAL_RCC_ClockConfig+0x1bc>)
 8003fd4:	689b      	ldr	r3, [r3, #8]
 8003fd6:	f423 4260 	bic.w	r2, r3, #57344	; 0xe000
 8003fda:	687b      	ldr	r3, [r7, #4]
 8003fdc:	691b      	ldr	r3, [r3, #16]
 8003fde:	00db      	lsls	r3, r3, #3
 8003fe0:	490e      	ldr	r1, [pc, #56]	; (800401c <HAL_RCC_ClockConfig+0x1bc>)
 8003fe2:	4313      	orrs	r3, r2
 8003fe4:	608b      	str	r3, [r1, #8]
  }

  /* Update the SystemCoreClock global variable */
  SystemCoreClock = HAL_RCC_GetSysClockFreq() >> AHBPrescTable[(RCC->CFGR & RCC_CFGR_HPRE)>> RCC_CFGR_HPRE_Pos];
 8003fe6:	f000 f821 	bl	800402c <HAL_RCC_GetSysClockFreq>
 8003fea:	4602      	mov	r2, r0
 8003fec:	4b0b      	ldr	r3, [pc, #44]	; (800401c <HAL_RCC_ClockConfig+0x1bc>)
 8003fee:	689b      	ldr	r3, [r3, #8]
 8003ff0:	091b      	lsrs	r3, r3, #4
 8003ff2:	f003 030f 	and.w	r3, r3, #15
 8003ff6:	490a      	ldr	r1, [pc, #40]	; (8004020 <HAL_RCC_ClockConfig+0x1c0>)
 8003ff8:	5ccb      	ldrb	r3, [r1, r3]
 8003ffa:	fa22 f303 	lsr.w	r3, r2, r3
 8003ffe:	4a09      	ldr	r2, [pc, #36]	; (8004024 <HAL_RCC_ClockConfig+0x1c4>)
 8004000:	6013      	str	r3, [r2, #0]

  /* Configure the source of time base considering new system clocks settings */
  HAL_InitTick (uwTickPrio);
 8004002:	4b09      	ldr	r3, [pc, #36]	; (8004028 <HAL_RCC_ClockConfig+0x1c8>)
 8004004:	681b      	ldr	r3, [r3, #0]
 8004006:	4618      	mov	r0, r3
 8004008:	f7fe f868 	bl	80020dc <HAL_InitTick>

  return HAL_OK;
 800400c:	2300      	movs	r3, #0
}
 800400e:	4618      	mov	r0, r3
 8004010:	3710      	adds	r7, #16
 8004012:	46bd      	mov	sp, r7
 8004014:	bd80      	pop	{r7, pc}
 8004016:	bf00      	nop
 8004018:	40023c00 	.word	0x40023c00
 800401c:	40023800 	.word	0x40023800
 8004020:	08006f5c 	.word	0x08006f5c
 8004024:	20000018 	.word	0x20000018
 8004028:	2000001c 	.word	0x2000001c

0800402c <HAL_RCC_GetSysClockFreq>:
  *
  *
  * @retval SYSCLK frequency
  */
__weak uint32_t HAL_RCC_GetSysClockFreq(void)
{
 800402c:	e92d 4fb0 	stmdb	sp!, {r4, r5, r7, r8, r9, sl, fp, lr}
 8004030:	b090      	sub	sp, #64	; 0x40
 8004032:	af00      	add	r7, sp, #0
  uint32_t pllm = 0U, pllvco = 0U, pllp = 0U;
 8004034:	2300      	movs	r3, #0
 8004036:	637b      	str	r3, [r7, #52]	; 0x34
 8004038:	2300      	movs	r3, #0
 800403a:	63fb      	str	r3, [r7, #60]	; 0x3c
 800403c:	2300      	movs	r3, #0
 800403e:	633b      	str	r3, [r7, #48]	; 0x30
  uint32_t sysclockfreq = 0U;
 8004040:	2300      	movs	r3, #0
 8004042:	63bb      	str	r3, [r7, #56]	; 0x38

  /* Get SYSCLK source -------------------------------------------------------*/
  switch (RCC->CFGR & RCC_CFGR_SWS)
 8004044:	4b59      	ldr	r3, [pc, #356]	; (80041ac <HAL_RCC_GetSysClockFreq+0x180>)
 8004046:	689b      	ldr	r3, [r3, #8]
 8004048:	f003 030c 	and.w	r3, r3, #12
 800404c:	2b08      	cmp	r3, #8
 800404e:	d00d      	beq.n	800406c <HAL_RCC_GetSysClockFreq+0x40>
 8004050:	2b08      	cmp	r3, #8
 8004052:	f200 80a1 	bhi.w	8004198 <HAL_RCC_GetSysClockFreq+0x16c>
 8004056:	2b00      	cmp	r3, #0
 8004058:	d002      	beq.n	8004060 <HAL_RCC_GetSysClockFreq+0x34>
 800405a:	2b04      	cmp	r3, #4
 800405c:	d003      	beq.n	8004066 <HAL_RCC_GetSysClockFreq+0x3a>
 800405e:	e09b      	b.n	8004198 <HAL_RCC_GetSysClockFreq+0x16c>
  {
    case RCC_CFGR_SWS_HSI:  /* HSI used as system clock source */
    {
      sysclockfreq = HSI_VALUE;
 8004060:	4b53      	ldr	r3, [pc, #332]	; (80041b0 <HAL_RCC_GetSysClockFreq+0x184>)
 8004062:	63bb      	str	r3, [r7, #56]	; 0x38
       break;
 8004064:	e09b      	b.n	800419e <HAL_RCC_GetSysClockFreq+0x172>
    }
    case RCC_CFGR_SWS_HSE:  /* HSE used as system clock  source */
    {
      sysclockfreq = HSE_VALUE;
 8004066:	4b53      	ldr	r3, [pc, #332]	; (80041b4 <HAL_RCC_GetSysClockFreq+0x188>)
 8004068:	63bb      	str	r3, [r7, #56]	; 0x38
      break;
 800406a:	e098      	b.n	800419e <HAL_RCC_GetSysClockFreq+0x172>
    }
    case RCC_CFGR_SWS_PLL:  /* PLL used as system clock  source */
    {
      /* PLL_VCO = (HSE_VALUE or HSI_VALUE / PLLM) * PLLN
      SYSCLK = PLL_VCO / PLLP */
      pllm = RCC->PLLCFGR & RCC_PLLCFGR_PLLM;
 800406c:	4b4f      	ldr	r3, [pc, #316]	; (80041ac <HAL_RCC_GetSysClockFreq+0x180>)
 800406e:	685b      	ldr	r3, [r3, #4]
 8004070:	f003 033f 	and.w	r3, r3, #63	; 0x3f
 8004074:	637b      	str	r3, [r7, #52]	; 0x34
      if(__HAL_RCC_GET_PLL_OSCSOURCE() != RCC_PLLSOURCE_HSI)
 8004076:	4b4d      	ldr	r3, [pc, #308]	; (80041ac <HAL_RCC_GetSysClockFreq+0x180>)
 8004078:	685b      	ldr	r3, [r3, #4]
 800407a:	f403 0380 	and.w	r3, r3, #4194304	; 0x400000
 800407e:	2b00      	cmp	r3, #0
 8004080:	d028      	beq.n	80040d4 <HAL_RCC_GetSysClockFreq+0xa8>
      {
        /* HSE used as PLL clock source */
        pllvco = (uint32_t) ((((uint64_t) HSE_VALUE * ((uint64_t) ((RCC->PLLCFGR & RCC_PLLCFGR_PLLN) >> RCC_PLLCFGR_PLLN_Pos)))) / (uint64_t)pllm);
 8004082:	4b4a      	ldr	r3, [pc, #296]	; (80041ac <HAL_RCC_GetSysClockFreq+0x180>)
 8004084:	685b      	ldr	r3, [r3, #4]
 8004086:	099b      	lsrs	r3, r3, #6
 8004088:	2200      	movs	r2, #0
 800408a:	623b      	str	r3, [r7, #32]
 800408c:	627a      	str	r2, [r7, #36]	; 0x24
 800408e:	6a3b      	ldr	r3, [r7, #32]
 8004090:	f3c3 0008 	ubfx	r0, r3, #0, #9
 8004094:	2100      	movs	r1, #0
 8004096:	4b47      	ldr	r3, [pc, #284]	; (80041b4 <HAL_RCC_GetSysClockFreq+0x188>)
 8004098:	fb03 f201 	mul.w	r2, r3, r1
 800409c:	2300      	movs	r3, #0
 800409e:	fb00 f303 	mul.w	r3, r0, r3
 80040a2:	4413      	add	r3, r2
 80040a4:	4a43      	ldr	r2, [pc, #268]	; (80041b4 <HAL_RCC_GetSysClockFreq+0x188>)
 80040a6:	fba0 1202 	umull	r1, r2, r0, r2
 80040aa:	62fa      	str	r2, [r7, #44]	; 0x2c
 80040ac:	460a      	mov	r2, r1
 80040ae:	62ba      	str	r2, [r7, #40]	; 0x28
 80040b0:	6afa      	ldr	r2, [r7, #44]	; 0x2c
 80040b2:	4413      	add	r3, r2
 80040b4:	62fb      	str	r3, [r7, #44]	; 0x2c
 80040b6:	6b7b      	ldr	r3, [r7, #52]	; 0x34
 80040b8:	2200      	movs	r2, #0
 80040ba:	61bb      	str	r3, [r7, #24]
 80040bc:	61fa      	str	r2, [r7, #28]
 80040be:	e9d7 2306 	ldrd	r2, r3, [r7, #24]
 80040c2:	e9d7 010a 	ldrd	r0, r1, [r7, #40]	; 0x28
 80040c6:	f7fc f899 	bl	80001fc <__aeabi_uldivmod>
 80040ca:	4602      	mov	r2, r0
 80040cc:	460b      	mov	r3, r1
 80040ce:	4613      	mov	r3, r2
 80040d0:	63fb      	str	r3, [r7, #60]	; 0x3c
 80040d2:	e053      	b.n	800417c <HAL_RCC_GetSysClockFreq+0x150>
      }
      else
      {
        /* HSI used as PLL clock source */
        pllvco = (uint32_t) ((((uint64_t) HSI_VALUE * ((uint64_t) ((RCC->PLLCFGR & RCC_PLLCFGR_PLLN) >> RCC_PLLCFGR_PLLN_Pos)))) / (uint64_t)pllm);
 80040d4:	4b35      	ldr	r3, [pc, #212]	; (80041ac <HAL_RCC_GetSysClockFreq+0x180>)
 80040d6:	685b      	ldr	r3, [r3, #4]
 80040d8:	099b      	lsrs	r3, r3, #6
 80040da:	2200      	movs	r2, #0
 80040dc:	613b      	str	r3, [r7, #16]
 80040de:	617a      	str	r2, [r7, #20]
 80040e0:	693b      	ldr	r3, [r7, #16]
 80040e2:	f3c3 0a08 	ubfx	sl, r3, #0, #9
 80040e6:	f04f 0b00 	mov.w	fp, #0
 80040ea:	4652      	mov	r2, sl
 80040ec:	465b      	mov	r3, fp
 80040ee:	f04f 0000 	mov.w	r0, #0
 80040f2:	f04f 0100 	mov.w	r1, #0
 80040f6:	0159      	lsls	r1, r3, #5
 80040f8:	ea41 61d2 	orr.w	r1, r1, r2, lsr #27
 80040fc:	0150      	lsls	r0, r2, #5
 80040fe:	4602      	mov	r2, r0
 8004100:	460b      	mov	r3, r1
 8004102:	ebb2 080a 	subs.w	r8, r2, sl
 8004106:	eb63 090b 	sbc.w	r9, r3, fp
 800410a:	f04f 0200 	mov.w	r2, #0
 800410e:	f04f 0300 	mov.w	r3, #0
 8004112:	ea4f 1389 	mov.w	r3, r9, lsl #6
 8004116:	ea43 6398 	orr.w	r3, r3, r8, lsr #26
 800411a:	ea4f 1288 	mov.w	r2, r8, lsl #6
 800411e:	ebb2 0408 	subs.w	r4, r2, r8
 8004122:	eb63 0509 	sbc.w	r5, r3, r9
 8004126:	f04f 0200 	mov.w	r2, #0
 800412a:	f04f 0300 	mov.w	r3, #0
 800412e:	00eb      	lsls	r3, r5, #3
 8004130:	ea43 7354 	orr.w	r3, r3, r4, lsr #29
 8004134:	00e2      	lsls	r2, r4, #3
 8004136:	4614      	mov	r4, r2
 8004138:	461d      	mov	r5, r3
 800413a:	eb14 030a 	adds.w	r3, r4, sl
 800413e:	603b      	str	r3, [r7, #0]
 8004140:	eb45 030b 	adc.w	r3, r5, fp
 8004144:	607b      	str	r3, [r7, #4]
 8004146:	f04f 0200 	mov.w	r2, #0
 800414a:	f04f 0300 	mov.w	r3, #0
 800414e:	e9d7 4500 	ldrd	r4, r5, [r7]
 8004152:	4629      	mov	r1, r5
 8004154:	028b      	lsls	r3, r1, #10
 8004156:	4621      	mov	r1, r4
 8004158:	ea43 5391 	orr.w	r3, r3, r1, lsr #22
 800415c:	4621      	mov	r1, r4
 800415e:	028a      	lsls	r2, r1, #10
 8004160:	4610      	mov	r0, r2
 8004162:	4619      	mov	r1, r3
 8004164:	6b7b      	ldr	r3, [r7, #52]	; 0x34
 8004166:	2200      	movs	r2, #0
 8004168:	60bb      	str	r3, [r7, #8]
 800416a:	60fa      	str	r2, [r7, #12]
 800416c:	e9d7 2302 	ldrd	r2, r3, [r7, #8]
 8004170:	f7fc f844 	bl	80001fc <__aeabi_uldivmod>
 8004174:	4602      	mov	r2, r0
 8004176:	460b      	mov	r3, r1
 8004178:	4613      	mov	r3, r2
 800417a:	63fb      	str	r3, [r7, #60]	; 0x3c
      }
      pllp = ((((RCC->PLLCFGR & RCC_PLLCFGR_PLLP) >> RCC_PLLCFGR_PLLP_Pos) + 1U) *2U);
 800417c:	4b0b      	ldr	r3, [pc, #44]	; (80041ac <HAL_RCC_GetSysClockFreq+0x180>)
 800417e:	685b      	ldr	r3, [r3, #4]
 8004180:	0c1b      	lsrs	r3, r3, #16
 8004182:	f003 0303 	and.w	r3, r3, #3
 8004186:	3301      	adds	r3, #1
 8004188:	005b      	lsls	r3, r3, #1
 800418a:	633b      	str	r3, [r7, #48]	; 0x30

      sysclockfreq = pllvco/pllp;
 800418c:	6bfa      	ldr	r2, [r7, #60]	; 0x3c
 800418e:	6b3b      	ldr	r3, [r7, #48]	; 0x30
 8004190:	fbb2 f3f3 	udiv	r3, r2, r3
 8004194:	63bb      	str	r3, [r7, #56]	; 0x38
      break;
 8004196:	e002      	b.n	800419e <HAL_RCC_GetSysClockFreq+0x172>
    }
    default:
    {
      sysclockfreq = HSI_VALUE;
 8004198:	4b05      	ldr	r3, [pc, #20]	; (80041b0 <HAL_RCC_GetSysClockFreq+0x184>)
 800419a:	63bb      	str	r3, [r7, #56]	; 0x38
      break;
 800419c:	bf00      	nop
    }
  }
  return sysclockfreq;
 800419e:	6bbb      	ldr	r3, [r7, #56]	; 0x38
}
 80041a0:	4618      	mov	r0, r3
 80041a2:	3740      	adds	r7, #64	; 0x40
 80041a4:	46bd      	mov	sp, r7
 80041a6:	e8bd 8fb0 	ldmia.w	sp!, {r4, r5, r7, r8, r9, sl, fp, pc}
 80041aa:	bf00      	nop
 80041ac:	40023800 	.word	0x40023800
 80041b0:	00f42400 	.word	0x00f42400
 80041b4:	017d7840 	.word	0x017d7840

080041b8 <HAL_RCC_GetHCLKFreq>:
  * @note   The SystemCoreClock CMSIS variable is used to store System Clock Frequency
  *         and updated within this function
  * @retval HCLK frequency
  */
uint32_t HAL_RCC_GetHCLKFreq(void)
{
 80041b8:	b480      	push	{r7}
 80041ba:	af00      	add	r7, sp, #0
  return SystemCoreClock;
 80041bc:	4b03      	ldr	r3, [pc, #12]	; (80041cc <HAL_RCC_GetHCLKFreq+0x14>)
 80041be:	681b      	ldr	r3, [r3, #0]
}
 80041c0:	4618      	mov	r0, r3
 80041c2:	46bd      	mov	sp, r7
 80041c4:	f85d 7b04 	ldr.w	r7, [sp], #4
 80041c8:	4770      	bx	lr
 80041ca:	bf00      	nop
 80041cc:	20000018 	.word	0x20000018

080041d0 <HAL_RCC_GetPCLK1Freq>:
  * @note   Each time PCLK1 changes, this function must be called to update the
  *         right PCLK1 value. Otherwise, any configuration based on this function will be incorrect.
  * @retval PCLK1 frequency
  */
uint32_t HAL_RCC_GetPCLK1Freq(void)
{
 80041d0:	b580      	push	{r7, lr}
 80041d2:	af00      	add	r7, sp, #0
  /* Get HCLK source and Compute PCLK1 frequency ---------------------------*/
  return (HAL_RCC_GetHCLKFreq() >> APBPrescTable[(RCC->CFGR & RCC_CFGR_PPRE1)>> RCC_CFGR_PPRE1_Pos]);
 80041d4:	f7ff fff0 	bl	80041b8 <HAL_RCC_GetHCLKFreq>
 80041d8:	4602      	mov	r2, r0
 80041da:	4b05      	ldr	r3, [pc, #20]	; (80041f0 <HAL_RCC_GetPCLK1Freq+0x20>)
 80041dc:	689b      	ldr	r3, [r3, #8]
 80041de:	0a9b      	lsrs	r3, r3, #10
 80041e0:	f003 0307 	and.w	r3, r3, #7
 80041e4:	4903      	ldr	r1, [pc, #12]	; (80041f4 <HAL_RCC_GetPCLK1Freq+0x24>)
 80041e6:	5ccb      	ldrb	r3, [r1, r3]
 80041e8:	fa22 f303 	lsr.w	r3, r2, r3
}
 80041ec:	4618      	mov	r0, r3
 80041ee:	bd80      	pop	{r7, pc}
 80041f0:	40023800 	.word	0x40023800
 80041f4:	08006f6c 	.word	0x08006f6c

080041f8 <HAL_RCC_GetPCLK2Freq>:
  * @note   Each time PCLK2 changes, this function must be called to update the
  *         right PCLK2 value. Otherwise, any configuration based on this function will be incorrect.
  * @retval PCLK2 frequency
  */
uint32_t HAL_RCC_GetPCLK2Freq(void)
{
 80041f8:	b580      	push	{r7, lr}
 80041fa:	af00      	add	r7, sp, #0
  /* Get HCLK source and Compute PCLK2 frequency ---------------------------*/
  return (HAL_RCC_GetHCLKFreq()>> APBPrescTable[(RCC->CFGR & RCC_CFGR_PPRE2)>> RCC_CFGR_PPRE2_Pos]);
 80041fc:	f7ff ffdc 	bl	80041b8 <HAL_RCC_GetHCLKFreq>
 8004200:	4602      	mov	r2, r0
 8004202:	4b05      	ldr	r3, [pc, #20]	; (8004218 <HAL_RCC_GetPCLK2Freq+0x20>)
 8004204:	689b      	ldr	r3, [r3, #8]
 8004206:	0b5b      	lsrs	r3, r3, #13
 8004208:	f003 0307 	and.w	r3, r3, #7
 800420c:	4903      	ldr	r1, [pc, #12]	; (800421c <HAL_RCC_GetPCLK2Freq+0x24>)
 800420e:	5ccb      	ldrb	r3, [r1, r3]
 8004210:	fa22 f303 	lsr.w	r3, r2, r3
}
 8004214:	4618      	mov	r0, r3
 8004216:	bd80      	pop	{r7, pc}
 8004218:	40023800 	.word	0x40023800
 800421c:	08006f6c 	.word	0x08006f6c

08004220 <HAL_RCCEx_PeriphCLKConfig>:
  *         the backup registers) and RCC_BDCR register are set to their reset values.
  *
  * @retval HAL status
  */
HAL_StatusTypeDef HAL_RCCEx_PeriphCLKConfig(RCC_PeriphCLKInitTypeDef  *PeriphClkInit)
{
 8004220:	b580      	push	{r7, lr}
 8004222:	b086      	sub	sp, #24
 8004224:	af00      	add	r7, sp, #0
 8004226:	6078      	str	r0, [r7, #4]
  uint32_t tickstart = 0U;
 8004228:	2300      	movs	r3, #0
 800422a:	617b      	str	r3, [r7, #20]
  uint32_t tmpreg1 = 0U;
 800422c:	2300      	movs	r3, #0
 800422e:	613b      	str	r3, [r7, #16]

  /*----------------------- SAI/I2S Configuration (PLLI2S) -------------------*/
  /*----------------------- Common configuration SAI/I2S ---------------------*/
  /* In Case of SAI or I2S Clock Configuration through PLLI2S, PLLI2SN division
     factor is common parameters for both peripherals */
  if((((PeriphClkInit->PeriphClockSelection) & RCC_PERIPHCLK_I2S) == RCC_PERIPHCLK_I2S) ||
 8004230:	687b      	ldr	r3, [r7, #4]
 8004232:	681b      	ldr	r3, [r3, #0]
 8004234:	f003 0301 	and.w	r3, r3, #1
 8004238:	2b00      	cmp	r3, #0
 800423a:	d10b      	bne.n	8004254 <HAL_RCCEx_PeriphCLKConfig+0x34>
     (((PeriphClkInit->PeriphClockSelection) & RCC_PERIPHCLK_SAI_PLLI2S) == RCC_PERIPHCLK_SAI_PLLI2S) ||
 800423c:	687b      	ldr	r3, [r7, #4]
 800423e:	681b      	ldr	r3, [r3, #0]
 8004240:	f003 0302 	and.w	r3, r3, #2
  if((((PeriphClkInit->PeriphClockSelection) & RCC_PERIPHCLK_I2S) == RCC_PERIPHCLK_I2S) ||
 8004244:	2b00      	cmp	r3, #0
 8004246:	d105      	bne.n	8004254 <HAL_RCCEx_PeriphCLKConfig+0x34>
     (((PeriphClkInit->PeriphClockSelection) & RCC_PERIPHCLK_PLLI2S) == RCC_PERIPHCLK_PLLI2S))
 8004248:	687b      	ldr	r3, [r7, #4]
 800424a:	681b      	ldr	r3, [r3, #0]
 800424c:	f003 0340 	and.w	r3, r3, #64	; 0x40
     (((PeriphClkInit->PeriphClockSelection) & RCC_PERIPHCLK_SAI_PLLI2S) == RCC_PERIPHCLK_SAI_PLLI2S) ||
 8004250:	2b00      	cmp	r3, #0
 8004252:	d075      	beq.n	8004340 <HAL_RCCEx_PeriphCLKConfig+0x120>
  {
    /* check for Parameters */
    assert_param(IS_RCC_PLLI2SN_VALUE(PeriphClkInit->PLLI2S.PLLI2SN));

    /* Disable the PLLI2S */
    __HAL_RCC_PLLI2S_DISABLE();
 8004254:	4b91      	ldr	r3, [pc, #580]	; (800449c <HAL_RCCEx_PeriphCLKConfig+0x27c>)
 8004256:	2200      	movs	r2, #0
 8004258:	601a      	str	r2, [r3, #0]
    /* Get tick */
    tickstart = HAL_GetTick();
 800425a:	f7fd ff83 	bl	8002164 <HAL_GetTick>
 800425e:	6178      	str	r0, [r7, #20]
    /* Wait till PLLI2S is disabled */
    while(__HAL_RCC_GET_FLAG(RCC_FLAG_PLLI2SRDY)  != RESET)
 8004260:	e008      	b.n	8004274 <HAL_RCCEx_PeriphCLKConfig+0x54>
    {
      if((HAL_GetTick() - tickstart ) > PLLI2S_TIMEOUT_VALUE)
 8004262:	f7fd ff7f 	bl	8002164 <HAL_GetTick>
 8004266:	4602      	mov	r2, r0
 8004268:	697b      	ldr	r3, [r7, #20]
 800426a:	1ad3      	subs	r3, r2, r3
 800426c:	2b02      	cmp	r3, #2
 800426e:	d901      	bls.n	8004274 <HAL_RCCEx_PeriphCLKConfig+0x54>
      {
        /* return in case of Timeout detected */
        return HAL_TIMEOUT;
 8004270:	2303      	movs	r3, #3
 8004272:	e189      	b.n	8004588 <HAL_RCCEx_PeriphCLKConfig+0x368>
    while(__HAL_RCC_GET_FLAG(RCC_FLAG_PLLI2SRDY)  != RESET)
 8004274:	4b8a      	ldr	r3, [pc, #552]	; (80044a0 <HAL_RCCEx_PeriphCLKConfig+0x280>)
 8004276:	681b      	ldr	r3, [r3, #0]
 8004278:	f003 6300 	and.w	r3, r3, #134217728	; 0x8000000
 800427c:	2b00      	cmp	r3, #0
 800427e:	d1f0      	bne.n	8004262 <HAL_RCCEx_PeriphCLKConfig+0x42>
    }

    /*---------------------------- I2S configuration -------------------------*/
    /* In Case of I2S Clock Configuration through PLLI2S, PLLI2SR must be added
      only for I2S configuration */
    if(((PeriphClkInit->PeriphClockSelection) & RCC_PERIPHCLK_I2S) == (RCC_PERIPHCLK_I2S))
 8004280:	687b      	ldr	r3, [r7, #4]
 8004282:	681b      	ldr	r3, [r3, #0]
 8004284:	f003 0301 	and.w	r3, r3, #1
 8004288:	2b00      	cmp	r3, #0
 800428a:	d009      	beq.n	80042a0 <HAL_RCCEx_PeriphCLKConfig+0x80>
      /* check for Parameters */
      assert_param(IS_RCC_PLLI2SR_VALUE(PeriphClkInit->PLLI2S.PLLI2SR));
      /* Configure the PLLI2S division factors */
      /* PLLI2S_VCO = f(VCO clock) = f(PLLI2S clock input) * (PLLI2SN/PLLM) */
      /* I2SCLK = f(PLLI2S clock output) = f(VCO clock) / PLLI2SR */
      __HAL_RCC_PLLI2S_CONFIG(PeriphClkInit->PLLI2S.PLLI2SN , PeriphClkInit->PLLI2S.PLLI2SR);
 800428c:	687b      	ldr	r3, [r7, #4]
 800428e:	685b      	ldr	r3, [r3, #4]
 8004290:	019a      	lsls	r2, r3, #6
 8004292:	687b      	ldr	r3, [r7, #4]
 8004294:	689b      	ldr	r3, [r3, #8]
 8004296:	071b      	lsls	r3, r3, #28
 8004298:	4981      	ldr	r1, [pc, #516]	; (80044a0 <HAL_RCCEx_PeriphCLKConfig+0x280>)
 800429a:	4313      	orrs	r3, r2
 800429c:	f8c1 3084 	str.w	r3, [r1, #132]	; 0x84
    }

    /*---------------------------- SAI configuration -------------------------*/
    /* In Case of SAI Clock Configuration through PLLI2S, PLLI2SQ and PLLI2S_DIVQ must
       be added only for SAI configuration */
    if(((PeriphClkInit->PeriphClockSelection) & RCC_PERIPHCLK_SAI_PLLI2S) == (RCC_PERIPHCLK_SAI_PLLI2S))
 80042a0:	687b      	ldr	r3, [r7, #4]
 80042a2:	681b      	ldr	r3, [r3, #0]
 80042a4:	f003 0302 	and.w	r3, r3, #2
 80042a8:	2b00      	cmp	r3, #0
 80042aa:	d01f      	beq.n	80042ec <HAL_RCCEx_PeriphCLKConfig+0xcc>
      /* Check the PLLI2S division factors */
      assert_param(IS_RCC_PLLI2SQ_VALUE(PeriphClkInit->PLLI2S.PLLI2SQ));
      assert_param(IS_RCC_PLLI2S_DIVQ_VALUE(PeriphClkInit->PLLI2SDivQ));

      /* Read PLLI2SR value from PLLI2SCFGR register (this value is not need for SAI configuration) */
      tmpreg1 = ((RCC->PLLI2SCFGR & RCC_PLLI2SCFGR_PLLI2SR) >> RCC_PLLI2SCFGR_PLLI2SR_Pos);
 80042ac:	4b7c      	ldr	r3, [pc, #496]	; (80044a0 <HAL_RCCEx_PeriphCLKConfig+0x280>)
 80042ae:	f8d3 3084 	ldr.w	r3, [r3, #132]	; 0x84
 80042b2:	0f1b      	lsrs	r3, r3, #28
 80042b4:	f003 0307 	and.w	r3, r3, #7
 80042b8:	613b      	str	r3, [r7, #16]
      /* Configure the PLLI2S division factors */
      /* PLLI2S_VCO Input  = PLL_SOURCE/PLLM */
      /* PLLI2S_VCO Output = PLLI2S_VCO Input * PLLI2SN */
      /* SAI_CLK(first level) = PLLI2S_VCO Output/PLLI2SQ */
      __HAL_RCC_PLLI2S_SAICLK_CONFIG(PeriphClkInit->PLLI2S.PLLI2SN , PeriphClkInit->PLLI2S.PLLI2SQ , tmpreg1);
 80042ba:	687b      	ldr	r3, [r7, #4]
 80042bc:	685b      	ldr	r3, [r3, #4]
 80042be:	019a      	lsls	r2, r3, #6
 80042c0:	687b      	ldr	r3, [r7, #4]
 80042c2:	68db      	ldr	r3, [r3, #12]
 80042c4:	061b      	lsls	r3, r3, #24
 80042c6:	431a      	orrs	r2, r3
 80042c8:	693b      	ldr	r3, [r7, #16]
 80042ca:	071b      	lsls	r3, r3, #28
 80042cc:	4974      	ldr	r1, [pc, #464]	; (80044a0 <HAL_RCCEx_PeriphCLKConfig+0x280>)
 80042ce:	4313      	orrs	r3, r2
 80042d0:	f8c1 3084 	str.w	r3, [r1, #132]	; 0x84
      /* SAI_CLK_x = SAI_CLK(first level)/PLLI2SDIVQ */
      __HAL_RCC_PLLI2S_PLLSAICLKDIVQ_CONFIG(PeriphClkInit->PLLI2SDivQ);
 80042d4:	4b72      	ldr	r3, [pc, #456]	; (80044a0 <HAL_RCCEx_PeriphCLKConfig+0x280>)
 80042d6:	f8d3 308c 	ldr.w	r3, [r3, #140]	; 0x8c
 80042da:	f023 021f 	bic.w	r2, r3, #31
 80042de:	687b      	ldr	r3, [r7, #4]
 80042e0:	69db      	ldr	r3, [r3, #28]
 80042e2:	3b01      	subs	r3, #1
 80042e4:	496e      	ldr	r1, [pc, #440]	; (80044a0 <HAL_RCCEx_PeriphCLKConfig+0x280>)
 80042e6:	4313      	orrs	r3, r2
 80042e8:	f8c1 308c 	str.w	r3, [r1, #140]	; 0x8c
    }

    /*----------------- In Case of PLLI2S is just selected  -----------------*/
    if((PeriphClkInit->PeriphClockSelection & RCC_PERIPHCLK_PLLI2S) == RCC_PERIPHCLK_PLLI2S)
 80042ec:	687b      	ldr	r3, [r7, #4]
 80042ee:	681b      	ldr	r3, [r3, #0]
 80042f0:	f003 0340 	and.w	r3, r3, #64	; 0x40
 80042f4:	2b00      	cmp	r3, #0
 80042f6:	d00d      	beq.n	8004314 <HAL_RCCEx_PeriphCLKConfig+0xf4>
      /* Check for Parameters */
      assert_param(IS_RCC_PLLI2SQ_VALUE(PeriphClkInit->PLLI2S.PLLI2SQ));
      assert_param(IS_RCC_PLLI2SR_VALUE(PeriphClkInit->PLLI2S.PLLI2SR));

      /* Configure the PLLI2S multiplication and division factors */
      __HAL_RCC_PLLI2S_SAICLK_CONFIG(PeriphClkInit->PLLI2S.PLLI2SN, PeriphClkInit->PLLI2S.PLLI2SQ, PeriphClkInit->PLLI2S.PLLI2SR);
 80042f8:	687b      	ldr	r3, [r7, #4]
 80042fa:	685b      	ldr	r3, [r3, #4]
 80042fc:	019a      	lsls	r2, r3, #6
 80042fe:	687b      	ldr	r3, [r7, #4]
 8004300:	68db      	ldr	r3, [r3, #12]
 8004302:	061b      	lsls	r3, r3, #24
 8004304:	431a      	orrs	r2, r3
 8004306:	687b      	ldr	r3, [r7, #4]
 8004308:	689b      	ldr	r3, [r3, #8]
 800430a:	071b      	lsls	r3, r3, #28
 800430c:	4964      	ldr	r1, [pc, #400]	; (80044a0 <HAL_RCCEx_PeriphCLKConfig+0x280>)
 800430e:	4313      	orrs	r3, r2
 8004310:	f8c1 3084 	str.w	r3, [r1, #132]	; 0x84
    }

    /* Enable the PLLI2S */
    __HAL_RCC_PLLI2S_ENABLE();
 8004314:	4b61      	ldr	r3, [pc, #388]	; (800449c <HAL_RCCEx_PeriphCLKConfig+0x27c>)
 8004316:	2201      	movs	r2, #1
 8004318:	601a      	str	r2, [r3, #0]
    /* Get tick */
    tickstart = HAL_GetTick();
 800431a:	f7fd ff23 	bl	8002164 <HAL_GetTick>
 800431e:	6178      	str	r0, [r7, #20]
    /* Wait till PLLI2S is ready */
    while(__HAL_RCC_GET_FLAG(RCC_FLAG_PLLI2SRDY)  == RESET)
 8004320:	e008      	b.n	8004334 <HAL_RCCEx_PeriphCLKConfig+0x114>
    {
      if((HAL_GetTick() - tickstart ) > PLLI2S_TIMEOUT_VALUE)
 8004322:	f7fd ff1f 	bl	8002164 <HAL_GetTick>
 8004326:	4602      	mov	r2, r0
 8004328:	697b      	ldr	r3, [r7, #20]
 800432a:	1ad3      	subs	r3, r2, r3
 800432c:	2b02      	cmp	r3, #2
 800432e:	d901      	bls.n	8004334 <HAL_RCCEx_PeriphCLKConfig+0x114>
      {
        /* return in case of Timeout detected */
        return HAL_TIMEOUT;
 8004330:	2303      	movs	r3, #3
 8004332:	e129      	b.n	8004588 <HAL_RCCEx_PeriphCLKConfig+0x368>
    while(__HAL_RCC_GET_FLAG(RCC_FLAG_PLLI2SRDY)  == RESET)
 8004334:	4b5a      	ldr	r3, [pc, #360]	; (80044a0 <HAL_RCCEx_PeriphCLKConfig+0x280>)
 8004336:	681b      	ldr	r3, [r3, #0]
 8004338:	f003 6300 	and.w	r3, r3, #134217728	; 0x8000000
 800433c:	2b00      	cmp	r3, #0
 800433e:	d0f0      	beq.n	8004322 <HAL_RCCEx_PeriphCLKConfig+0x102>

  /*----------------------- SAI/LTDC Configuration (PLLSAI) ------------------*/
  /*----------------------- Common configuration SAI/LTDC --------------------*/
  /* In Case of SAI or LTDC Clock Configuration through PLLSAI, PLLSAIN division
     factor is common parameters for both peripherals */
  if((((PeriphClkInit->PeriphClockSelection) & RCC_PERIPHCLK_SAI_PLLSAI) == RCC_PERIPHCLK_SAI_PLLSAI) ||
 8004340:	687b      	ldr	r3, [r7, #4]
 8004342:	681b      	ldr	r3, [r3, #0]
 8004344:	f003 0304 	and.w	r3, r3, #4
 8004348:	2b00      	cmp	r3, #0
 800434a:	d105      	bne.n	8004358 <HAL_RCCEx_PeriphCLKConfig+0x138>
     (((PeriphClkInit->PeriphClockSelection) & RCC_PERIPHCLK_LTDC) == RCC_PERIPHCLK_LTDC))
 800434c:	687b      	ldr	r3, [r7, #4]
 800434e:	681b      	ldr	r3, [r3, #0]
 8004350:	f003 0308 	and.w	r3, r3, #8
  if((((PeriphClkInit->PeriphClockSelection) & RCC_PERIPHCLK_SAI_PLLSAI) == RCC_PERIPHCLK_SAI_PLLSAI) ||
 8004354:	2b00      	cmp	r3, #0
 8004356:	d079      	beq.n	800444c <HAL_RCCEx_PeriphCLKConfig+0x22c>
  {
    /* Check the PLLSAI division factors */
    assert_param(IS_RCC_PLLSAIN_VALUE(PeriphClkInit->PLLSAI.PLLSAIN));

    /* Disable PLLSAI Clock */
    __HAL_RCC_PLLSAI_DISABLE();
 8004358:	4b52      	ldr	r3, [pc, #328]	; (80044a4 <HAL_RCCEx_PeriphCLKConfig+0x284>)
 800435a:	2200      	movs	r2, #0
 800435c:	601a      	str	r2, [r3, #0]
    /* Get tick */
    tickstart = HAL_GetTick();
 800435e:	f7fd ff01 	bl	8002164 <HAL_GetTick>
 8004362:	6178      	str	r0, [r7, #20]
    /* Wait till PLLSAI is disabled */
    while(__HAL_RCC_PLLSAI_GET_FLAG() != RESET)
 8004364:	e008      	b.n	8004378 <HAL_RCCEx_PeriphCLKConfig+0x158>
    {
      if((HAL_GetTick() - tickstart ) > PLLSAI_TIMEOUT_VALUE)
 8004366:	f7fd fefd 	bl	8002164 <HAL_GetTick>
 800436a:	4602      	mov	r2, r0
 800436c:	697b      	ldr	r3, [r7, #20]
 800436e:	1ad3      	subs	r3, r2, r3
 8004370:	2b02      	cmp	r3, #2
 8004372:	d901      	bls.n	8004378 <HAL_RCCEx_PeriphCLKConfig+0x158>
      {
        /* return in case of Timeout detected */
        return HAL_TIMEOUT;
 8004374:	2303      	movs	r3, #3
 8004376:	e107      	b.n	8004588 <HAL_RCCEx_PeriphCLKConfig+0x368>
    while(__HAL_RCC_PLLSAI_GET_FLAG() != RESET)
 8004378:	4b49      	ldr	r3, [pc, #292]	; (80044a0 <HAL_RCCEx_PeriphCLKConfig+0x280>)
 800437a:	681b      	ldr	r3, [r3, #0]
 800437c:	f003 5300 	and.w	r3, r3, #536870912	; 0x20000000
 8004380:	f1b3 5f00 	cmp.w	r3, #536870912	; 0x20000000
 8004384:	d0ef      	beq.n	8004366 <HAL_RCCEx_PeriphCLKConfig+0x146>
    }

    /*---------------------------- SAI configuration -------------------------*/
    /* In Case of SAI Clock Configuration through PLLSAI, PLLSAIQ and PLLSAI_DIVQ must
       be added only for SAI configuration */
    if(((PeriphClkInit->PeriphClockSelection) & RCC_PERIPHCLK_SAI_PLLSAI) == (RCC_PERIPHCLK_SAI_PLLSAI))
 8004386:	687b      	ldr	r3, [r7, #4]
 8004388:	681b      	ldr	r3, [r3, #0]
 800438a:	f003 0304 	and.w	r3, r3, #4
 800438e:	2b00      	cmp	r3, #0
 8004390:	d020      	beq.n	80043d4 <HAL_RCCEx_PeriphCLKConfig+0x1b4>
    {
      assert_param(IS_RCC_PLLSAIQ_VALUE(PeriphClkInit->PLLSAI.PLLSAIQ));
      assert_param(IS_RCC_PLLSAI_DIVQ_VALUE(PeriphClkInit->PLLSAIDivQ));

      /* Read PLLSAIR value from PLLSAICFGR register (this value is not need for SAI configuration) */
      tmpreg1 = ((RCC->PLLSAICFGR & RCC_PLLSAICFGR_PLLSAIR) >> RCC_PLLSAICFGR_PLLSAIR_Pos);
 8004392:	4b43      	ldr	r3, [pc, #268]	; (80044a0 <HAL_RCCEx_PeriphCLKConfig+0x280>)
 8004394:	f8d3 3088 	ldr.w	r3, [r3, #136]	; 0x88
 8004398:	0f1b      	lsrs	r3, r3, #28
 800439a:	f003 0307 	and.w	r3, r3, #7
 800439e:	613b      	str	r3, [r7, #16]
      /* PLLSAI_VCO Input  = PLL_SOURCE/PLLM */
      /* PLLSAI_VCO Output = PLLSAI_VCO Input * PLLSAIN */
      /* SAI_CLK(first level) = PLLSAI_VCO Output/PLLSAIQ */
      __HAL_RCC_PLLSAI_CONFIG(PeriphClkInit->PLLSAI.PLLSAIN , PeriphClkInit->PLLSAI.PLLSAIQ, tmpreg1);
 80043a0:	687b      	ldr	r3, [r7, #4]
 80043a2:	691b      	ldr	r3, [r3, #16]
 80043a4:	019a      	lsls	r2, r3, #6
 80043a6:	687b      	ldr	r3, [r7, #4]
 80043a8:	695b      	ldr	r3, [r3, #20]
 80043aa:	061b      	lsls	r3, r3, #24
 80043ac:	431a      	orrs	r2, r3
 80043ae:	693b      	ldr	r3, [r7, #16]
 80043b0:	071b      	lsls	r3, r3, #28
 80043b2:	493b      	ldr	r1, [pc, #236]	; (80044a0 <HAL_RCCEx_PeriphCLKConfig+0x280>)
 80043b4:	4313      	orrs	r3, r2
 80043b6:	f8c1 3088 	str.w	r3, [r1, #136]	; 0x88
      /* SAI_CLK_x = SAI_CLK(first level)/PLLSAIDIVQ */
      __HAL_RCC_PLLSAI_PLLSAICLKDIVQ_CONFIG(PeriphClkInit->PLLSAIDivQ);
 80043ba:	4b39      	ldr	r3, [pc, #228]	; (80044a0 <HAL_RCCEx_PeriphCLKConfig+0x280>)
 80043bc:	f8d3 308c 	ldr.w	r3, [r3, #140]	; 0x8c
 80043c0:	f423 52f8 	bic.w	r2, r3, #7936	; 0x1f00
 80043c4:	687b      	ldr	r3, [r7, #4]
 80043c6:	6a1b      	ldr	r3, [r3, #32]
 80043c8:	3b01      	subs	r3, #1
 80043ca:	021b      	lsls	r3, r3, #8
 80043cc:	4934      	ldr	r1, [pc, #208]	; (80044a0 <HAL_RCCEx_PeriphCLKConfig+0x280>)
 80043ce:	4313      	orrs	r3, r2
 80043d0:	f8c1 308c 	str.w	r3, [r1, #140]	; 0x8c
    }

    /*---------------------------- LTDC configuration ------------------------*/
    if(((PeriphClkInit->PeriphClockSelection) & RCC_PERIPHCLK_LTDC) == (RCC_PERIPHCLK_LTDC))
 80043d4:	687b      	ldr	r3, [r7, #4]
 80043d6:	681b      	ldr	r3, [r3, #0]
 80043d8:	f003 0308 	and.w	r3, r3, #8
 80043dc:	2b00      	cmp	r3, #0
 80043de:	d01e      	beq.n	800441e <HAL_RCCEx_PeriphCLKConfig+0x1fe>
    {
      assert_param(IS_RCC_PLLSAIR_VALUE(PeriphClkInit->PLLSAI.PLLSAIR));
      assert_param(IS_RCC_PLLSAI_DIVR_VALUE(PeriphClkInit->PLLSAIDivR));

      /* Read PLLSAIR value from PLLSAICFGR register (this value is not need for SAI configuration) */
      tmpreg1 = ((RCC->PLLSAICFGR & RCC_PLLSAICFGR_PLLSAIQ) >> RCC_PLLSAICFGR_PLLSAIQ_Pos);
 80043e0:	4b2f      	ldr	r3, [pc, #188]	; (80044a0 <HAL_RCCEx_PeriphCLKConfig+0x280>)
 80043e2:	f8d3 3088 	ldr.w	r3, [r3, #136]	; 0x88
 80043e6:	0e1b      	lsrs	r3, r3, #24
 80043e8:	f003 030f 	and.w	r3, r3, #15
 80043ec:	613b      	str	r3, [r7, #16]
      /* PLLSAI_VCO Input  = PLL_SOURCE/PLLM */
      /* PLLSAI_VCO Output = PLLSAI_VCO Input * PLLSAIN */
      /* LTDC_CLK(first level) = PLLSAI_VCO Output/PLLSAIR */
      __HAL_RCC_PLLSAI_CONFIG(PeriphClkInit->PLLSAI.PLLSAIN , tmpreg1, PeriphClkInit->PLLSAI.PLLSAIR);
 80043ee:	687b      	ldr	r3, [r7, #4]
 80043f0:	691b      	ldr	r3, [r3, #16]
 80043f2:	019a      	lsls	r2, r3, #6
 80043f4:	693b      	ldr	r3, [r7, #16]
 80043f6:	061b      	lsls	r3, r3, #24
 80043f8:	431a      	orrs	r2, r3
 80043fa:	687b      	ldr	r3, [r7, #4]
 80043fc:	699b      	ldr	r3, [r3, #24]
 80043fe:	071b      	lsls	r3, r3, #28
 8004400:	4927      	ldr	r1, [pc, #156]	; (80044a0 <HAL_RCCEx_PeriphCLKConfig+0x280>)
 8004402:	4313      	orrs	r3, r2
 8004404:	f8c1 3088 	str.w	r3, [r1, #136]	; 0x88
      /* LTDC_CLK = LTDC_CLK(first level)/PLLSAIDIVR */
      __HAL_RCC_PLLSAI_PLLSAICLKDIVR_CONFIG(PeriphClkInit->PLLSAIDivR);
 8004408:	4b25      	ldr	r3, [pc, #148]	; (80044a0 <HAL_RCCEx_PeriphCLKConfig+0x280>)
 800440a:	f8d3 308c 	ldr.w	r3, [r3, #140]	; 0x8c
 800440e:	f423 3240 	bic.w	r2, r3, #196608	; 0x30000
 8004412:	687b      	ldr	r3, [r7, #4]
 8004414:	6a5b      	ldr	r3, [r3, #36]	; 0x24
 8004416:	4922      	ldr	r1, [pc, #136]	; (80044a0 <HAL_RCCEx_PeriphCLKConfig+0x280>)
 8004418:	4313      	orrs	r3, r2
 800441a:	f8c1 308c 	str.w	r3, [r1, #140]	; 0x8c
    }
    /* Enable PLLSAI Clock */
    __HAL_RCC_PLLSAI_ENABLE();
 800441e:	4b21      	ldr	r3, [pc, #132]	; (80044a4 <HAL_RCCEx_PeriphCLKConfig+0x284>)
 8004420:	2201      	movs	r2, #1
 8004422:	601a      	str	r2, [r3, #0]
    /* Get tick */
    tickstart = HAL_GetTick();
 8004424:	f7fd fe9e 	bl	8002164 <HAL_GetTick>
 8004428:	6178      	str	r0, [r7, #20]
    /* Wait till PLLSAI is ready */
    while(__HAL_RCC_PLLSAI_GET_FLAG() == RESET)
 800442a:	e008      	b.n	800443e <HAL_RCCEx_PeriphCLKConfig+0x21e>
    {
      if((HAL_GetTick() - tickstart ) > PLLSAI_TIMEOUT_VALUE)
 800442c:	f7fd fe9a 	bl	8002164 <HAL_GetTick>
 8004430:	4602      	mov	r2, r0
 8004432:	697b      	ldr	r3, [r7, #20]
 8004434:	1ad3      	subs	r3, r2, r3
 8004436:	2b02      	cmp	r3, #2
 8004438:	d901      	bls.n	800443e <HAL_RCCEx_PeriphCLKConfig+0x21e>
      {
        /* return in case of Timeout detected */
        return HAL_TIMEOUT;
 800443a:	2303      	movs	r3, #3
 800443c:	e0a4      	b.n	8004588 <HAL_RCCEx_PeriphCLKConfig+0x368>
    while(__HAL_RCC_PLLSAI_GET_FLAG() == RESET)
 800443e:	4b18      	ldr	r3, [pc, #96]	; (80044a0 <HAL_RCCEx_PeriphCLKConfig+0x280>)
 8004440:	681b      	ldr	r3, [r3, #0]
 8004442:	f003 5300 	and.w	r3, r3, #536870912	; 0x20000000
 8004446:	f1b3 5f00 	cmp.w	r3, #536870912	; 0x20000000
 800444a:	d1ef      	bne.n	800442c <HAL_RCCEx_PeriphCLKConfig+0x20c>
    }
  }
  /*--------------------------------------------------------------------------*/

  /*---------------------------- RTC configuration ---------------------------*/
  if(((PeriphClkInit->PeriphClockSelection) & RCC_PERIPHCLK_RTC) == (RCC_PERIPHCLK_RTC))
 800444c:	687b      	ldr	r3, [r7, #4]
 800444e:	681b      	ldr	r3, [r3, #0]
 8004450:	f003 0320 	and.w	r3, r3, #32
 8004454:	2b00      	cmp	r3, #0
 8004456:	f000 808b 	beq.w	8004570 <HAL_RCCEx_PeriphCLKConfig+0x350>
  {
    /* Check for RTC Parameters used to output RTCCLK */
    assert_param(IS_RCC_RTCCLKSOURCE(PeriphClkInit->RTCClockSelection));

    /* Enable Power Clock*/
    __HAL_RCC_PWR_CLK_ENABLE();
 800445a:	2300      	movs	r3, #0
 800445c:	60fb      	str	r3, [r7, #12]
 800445e:	4b10      	ldr	r3, [pc, #64]	; (80044a0 <HAL_RCCEx_PeriphCLKConfig+0x280>)
 8004460:	6c1b      	ldr	r3, [r3, #64]	; 0x40
 8004462:	4a0f      	ldr	r2, [pc, #60]	; (80044a0 <HAL_RCCEx_PeriphCLKConfig+0x280>)
 8004464:	f043 5380 	orr.w	r3, r3, #268435456	; 0x10000000
 8004468:	6413      	str	r3, [r2, #64]	; 0x40
 800446a:	4b0d      	ldr	r3, [pc, #52]	; (80044a0 <HAL_RCCEx_PeriphCLKConfig+0x280>)
 800446c:	6c1b      	ldr	r3, [r3, #64]	; 0x40
 800446e:	f003 5380 	and.w	r3, r3, #268435456	; 0x10000000
 8004472:	60fb      	str	r3, [r7, #12]
 8004474:	68fb      	ldr	r3, [r7, #12]

    /* Enable write access to Backup domain */
    PWR->CR |= PWR_CR_DBP;
 8004476:	4b0c      	ldr	r3, [pc, #48]	; (80044a8 <HAL_RCCEx_PeriphCLKConfig+0x288>)
 8004478:	681b      	ldr	r3, [r3, #0]
 800447a:	4a0b      	ldr	r2, [pc, #44]	; (80044a8 <HAL_RCCEx_PeriphCLKConfig+0x288>)
 800447c:	f443 7380 	orr.w	r3, r3, #256	; 0x100
 8004480:	6013      	str	r3, [r2, #0]

    /* Get tick */
    tickstart = HAL_GetTick();
 8004482:	f7fd fe6f 	bl	8002164 <HAL_GetTick>
 8004486:	6178      	str	r0, [r7, #20]

    while((PWR->CR & PWR_CR_DBP) == RESET)
 8004488:	e010      	b.n	80044ac <HAL_RCCEx_PeriphCLKConfig+0x28c>
    {
      if((HAL_GetTick() - tickstart ) > RCC_DBP_TIMEOUT_VALUE)
 800448a:	f7fd fe6b 	bl	8002164 <HAL_GetTick>
 800448e:	4602      	mov	r2, r0
 8004490:	697b      	ldr	r3, [r7, #20]
 8004492:	1ad3      	subs	r3, r2, r3
 8004494:	2b02      	cmp	r3, #2
 8004496:	d909      	bls.n	80044ac <HAL_RCCEx_PeriphCLKConfig+0x28c>
      {
        return HAL_TIMEOUT;
 8004498:	2303      	movs	r3, #3
 800449a:	e075      	b.n	8004588 <HAL_RCCEx_PeriphCLKConfig+0x368>
 800449c:	42470068 	.word	0x42470068
 80044a0:	40023800 	.word	0x40023800
 80044a4:	42470070 	.word	0x42470070
 80044a8:	40007000 	.word	0x40007000
    while((PWR->CR & PWR_CR_DBP) == RESET)
 80044ac:	4b38      	ldr	r3, [pc, #224]	; (8004590 <HAL_RCCEx_PeriphCLKConfig+0x370>)
 80044ae:	681b      	ldr	r3, [r3, #0]
 80044b0:	f403 7380 	and.w	r3, r3, #256	; 0x100
 80044b4:	2b00      	cmp	r3, #0
 80044b6:	d0e8      	beq.n	800448a <HAL_RCCEx_PeriphCLKConfig+0x26a>
      }
    }
    /* Reset the Backup domain only if the RTC Clock source selection is modified from reset value */
    tmpreg1 = (RCC->BDCR & RCC_BDCR_RTCSEL);
 80044b8:	4b36      	ldr	r3, [pc, #216]	; (8004594 <HAL_RCCEx_PeriphCLKConfig+0x374>)
 80044ba:	6f1b      	ldr	r3, [r3, #112]	; 0x70
 80044bc:	f403 7340 	and.w	r3, r3, #768	; 0x300
 80044c0:	613b      	str	r3, [r7, #16]
    if((tmpreg1 != 0x00000000U) && ((tmpreg1) != (PeriphClkInit->RTCClockSelection & RCC_BDCR_RTCSEL)))
 80044c2:	693b      	ldr	r3, [r7, #16]
 80044c4:	2b00      	cmp	r3, #0
 80044c6:	d02f      	beq.n	8004528 <HAL_RCCEx_PeriphCLKConfig+0x308>
 80044c8:	687b      	ldr	r3, [r7, #4]
 80044ca:	6a9b      	ldr	r3, [r3, #40]	; 0x28
 80044cc:	f403 7340 	and.w	r3, r3, #768	; 0x300
 80044d0:	693a      	ldr	r2, [r7, #16]
 80044d2:	429a      	cmp	r2, r3
 80044d4:	d028      	beq.n	8004528 <HAL_RCCEx_PeriphCLKConfig+0x308>
    {
      /* Store the content of BDCR register before the reset of Backup Domain */
      tmpreg1 = (RCC->BDCR & ~(RCC_BDCR_RTCSEL));
 80044d6:	4b2f      	ldr	r3, [pc, #188]	; (8004594 <HAL_RCCEx_PeriphCLKConfig+0x374>)
 80044d8:	6f1b      	ldr	r3, [r3, #112]	; 0x70
 80044da:	f423 7340 	bic.w	r3, r3, #768	; 0x300
 80044de:	613b      	str	r3, [r7, #16]
      /* RTC Clock selection can be changed only if the Backup Domain is reset */
      __HAL_RCC_BACKUPRESET_FORCE();
 80044e0:	4b2d      	ldr	r3, [pc, #180]	; (8004598 <HAL_RCCEx_PeriphCLKConfig+0x378>)
 80044e2:	2201      	movs	r2, #1
 80044e4:	601a      	str	r2, [r3, #0]
      __HAL_RCC_BACKUPRESET_RELEASE();
 80044e6:	4b2c      	ldr	r3, [pc, #176]	; (8004598 <HAL_RCCEx_PeriphCLKConfig+0x378>)
 80044e8:	2200      	movs	r2, #0
 80044ea:	601a      	str	r2, [r3, #0]
      /* Restore the Content of BDCR register */
      RCC->BDCR = tmpreg1;
 80044ec:	4a29      	ldr	r2, [pc, #164]	; (8004594 <HAL_RCCEx_PeriphCLKConfig+0x374>)
 80044ee:	693b      	ldr	r3, [r7, #16]
 80044f0:	6713      	str	r3, [r2, #112]	; 0x70

      /* Wait for LSE reactivation if LSE was enable prior to Backup Domain reset */
      if(HAL_IS_BIT_SET(RCC->BDCR, RCC_BDCR_LSEON))
 80044f2:	4b28      	ldr	r3, [pc, #160]	; (8004594 <HAL_RCCEx_PeriphCLKConfig+0x374>)
 80044f4:	6f1b      	ldr	r3, [r3, #112]	; 0x70
 80044f6:	f003 0301 	and.w	r3, r3, #1
 80044fa:	2b01      	cmp	r3, #1
 80044fc:	d114      	bne.n	8004528 <HAL_RCCEx_PeriphCLKConfig+0x308>
      {
        /* Get tick */
        tickstart = HAL_GetTick();
 80044fe:	f7fd fe31 	bl	8002164 <HAL_GetTick>
 8004502:	6178      	str	r0, [r7, #20]

        /* Wait till LSE is ready */
        while(__HAL_RCC_GET_FLAG(RCC_FLAG_LSERDY) == RESET)
 8004504:	e00a      	b.n	800451c <HAL_RCCEx_PeriphCLKConfig+0x2fc>
        {
          if((HAL_GetTick() - tickstart ) > RCC_LSE_TIMEOUT_VALUE)
 8004506:	f7fd fe2d 	bl	8002164 <HAL_GetTick>
 800450a:	4602      	mov	r2, r0
 800450c:	697b      	ldr	r3, [r7, #20]
 800450e:	1ad3      	subs	r3, r2, r3
 8004510:	f241 3288 	movw	r2, #5000	; 0x1388
 8004514:	4293      	cmp	r3, r2
 8004516:	d901      	bls.n	800451c <HAL_RCCEx_PeriphCLKConfig+0x2fc>
          {
            return HAL_TIMEOUT;
 8004518:	2303      	movs	r3, #3
 800451a:	e035      	b.n	8004588 <HAL_RCCEx_PeriphCLKConfig+0x368>
        while(__HAL_RCC_GET_FLAG(RCC_FLAG_LSERDY) == RESET)
 800451c:	4b1d      	ldr	r3, [pc, #116]	; (8004594 <HAL_RCCEx_PeriphCLKConfig+0x374>)
 800451e:	6f1b      	ldr	r3, [r3, #112]	; 0x70
 8004520:	f003 0302 	and.w	r3, r3, #2
 8004524:	2b00      	cmp	r3, #0
 8004526:	d0ee      	beq.n	8004506 <HAL_RCCEx_PeriphCLKConfig+0x2e6>
          }
        }
      }
    }
    __HAL_RCC_RTC_CONFIG(PeriphClkInit->RTCClockSelection);
 8004528:	687b      	ldr	r3, [r7, #4]
 800452a:	6a9b      	ldr	r3, [r3, #40]	; 0x28
 800452c:	f403 7340 	and.w	r3, r3, #768	; 0x300
 8004530:	f5b3 7f40 	cmp.w	r3, #768	; 0x300
 8004534:	d10d      	bne.n	8004552 <HAL_RCCEx_PeriphCLKConfig+0x332>
 8004536:	4b17      	ldr	r3, [pc, #92]	; (8004594 <HAL_RCCEx_PeriphCLKConfig+0x374>)
 8004538:	689b      	ldr	r3, [r3, #8]
 800453a:	f423 12f8 	bic.w	r2, r3, #2031616	; 0x1f0000
 800453e:	687b      	ldr	r3, [r7, #4]
 8004540:	6a9b      	ldr	r3, [r3, #40]	; 0x28
 8004542:	f023 4370 	bic.w	r3, r3, #4026531840	; 0xf0000000
 8004546:	f423 7340 	bic.w	r3, r3, #768	; 0x300
 800454a:	4912      	ldr	r1, [pc, #72]	; (8004594 <HAL_RCCEx_PeriphCLKConfig+0x374>)
 800454c:	4313      	orrs	r3, r2
 800454e:	608b      	str	r3, [r1, #8]
 8004550:	e005      	b.n	800455e <HAL_RCCEx_PeriphCLKConfig+0x33e>
 8004552:	4b10      	ldr	r3, [pc, #64]	; (8004594 <HAL_RCCEx_PeriphCLKConfig+0x374>)
 8004554:	689b      	ldr	r3, [r3, #8]
 8004556:	4a0f      	ldr	r2, [pc, #60]	; (8004594 <HAL_RCCEx_PeriphCLKConfig+0x374>)
 8004558:	f423 13f8 	bic.w	r3, r3, #2031616	; 0x1f0000
 800455c:	6093      	str	r3, [r2, #8]
 800455e:	4b0d      	ldr	r3, [pc, #52]	; (8004594 <HAL_RCCEx_PeriphCLKConfig+0x374>)
 8004560:	6f1a      	ldr	r2, [r3, #112]	; 0x70
 8004562:	687b      	ldr	r3, [r7, #4]
 8004564:	6a9b      	ldr	r3, [r3, #40]	; 0x28
 8004566:	f3c3 030b 	ubfx	r3, r3, #0, #12
 800456a:	490a      	ldr	r1, [pc, #40]	; (8004594 <HAL_RCCEx_PeriphCLKConfig+0x374>)
 800456c:	4313      	orrs	r3, r2
 800456e:	670b      	str	r3, [r1, #112]	; 0x70
  }
  /*--------------------------------------------------------------------------*/

  /*---------------------------- TIM configuration ---------------------------*/
  if(((PeriphClkInit->PeriphClockSelection) & RCC_PERIPHCLK_TIM) == (RCC_PERIPHCLK_TIM))
 8004570:	687b      	ldr	r3, [r7, #4]
 8004572:	681b      	ldr	r3, [r3, #0]
 8004574:	f003 0310 	and.w	r3, r3, #16
 8004578:	2b00      	cmp	r3, #0
 800457a:	d004      	beq.n	8004586 <HAL_RCCEx_PeriphCLKConfig+0x366>
  {
    __HAL_RCC_TIMCLKPRESCALER(PeriphClkInit->TIMPresSelection);
 800457c:	687b      	ldr	r3, [r7, #4]
 800457e:	f893 202c 	ldrb.w	r2, [r3, #44]	; 0x2c
 8004582:	4b06      	ldr	r3, [pc, #24]	; (800459c <HAL_RCCEx_PeriphCLKConfig+0x37c>)
 8004584:	601a      	str	r2, [r3, #0]
  }
  return HAL_OK;
 8004586:	2300      	movs	r3, #0
}
 8004588:	4618      	mov	r0, r3
 800458a:	3718      	adds	r7, #24
 800458c:	46bd      	mov	sp, r7
 800458e:	bd80      	pop	{r7, pc}
 8004590:	40007000 	.word	0x40007000
 8004594:	40023800 	.word	0x40023800
 8004598:	42470e40 	.word	0x42470e40
 800459c:	424711e0 	.word	0x424711e0

080045a0 <HAL_RTC_Init>:
  * @param  hrtc pointer to a RTC_HandleTypeDef structure that contains
  *                the configuration information for RTC.
  * @retval HAL status
  */
HAL_StatusTypeDef HAL_RTC_Init(RTC_HandleTypeDef *hrtc)
{
 80045a0:	b580      	push	{r7, lr}
 80045a2:	b084      	sub	sp, #16
 80045a4:	af00      	add	r7, sp, #0
 80045a6:	6078      	str	r0, [r7, #4]
  HAL_StatusTypeDef status = HAL_ERROR;
 80045a8:	2301      	movs	r3, #1
 80045aa:	73fb      	strb	r3, [r7, #15]

  /* Check RTC handler validity */
  if (hrtc == NULL)
 80045ac:	687b      	ldr	r3, [r7, #4]
 80045ae:	2b00      	cmp	r3, #0
 80045b0:	d101      	bne.n	80045b6 <HAL_RTC_Init+0x16>
  {
    return HAL_ERROR;
 80045b2:	2301      	movs	r3, #1
 80045b4:	e073      	b.n	800469e <HAL_RTC_Init+0xfe>
    {
      hrtc->MspDeInitCallback = HAL_RTC_MspDeInit;
    }
  }
#else /* USE_HAL_RTC_REGISTER_CALLBACKS */
  if (hrtc->State == HAL_RTC_STATE_RESET)
 80045b6:	687b      	ldr	r3, [r7, #4]
 80045b8:	7f5b      	ldrb	r3, [r3, #29]
 80045ba:	b2db      	uxtb	r3, r3
 80045bc:	2b00      	cmp	r3, #0
 80045be:	d105      	bne.n	80045cc <HAL_RTC_Init+0x2c>
  {
    /* Allocate lock resource and initialize it */
    hrtc->Lock = HAL_UNLOCKED;
 80045c0:	687b      	ldr	r3, [r7, #4]
 80045c2:	2200      	movs	r2, #0
 80045c4:	771a      	strb	r2, [r3, #28]

    /* Initialize RTC MSP */
    HAL_RTC_MspInit(hrtc);
 80045c6:	6878      	ldr	r0, [r7, #4]
 80045c8:	f7fd faf6 	bl	8001bb8 <HAL_RTC_MspInit>
  }
#endif /* USE_HAL_RTC_REGISTER_CALLBACKS */

  /* Set RTC state */
  hrtc->State = HAL_RTC_STATE_BUSY;
 80045cc:	687b      	ldr	r3, [r7, #4]
 80045ce:	2202      	movs	r2, #2
 80045d0:	775a      	strb	r2, [r3, #29]

  /* Check whether the calendar needs to be initialized */
  if (__HAL_RTC_IS_CALENDAR_INITIALIZED(hrtc) == 0U)
 80045d2:	687b      	ldr	r3, [r7, #4]
 80045d4:	681b      	ldr	r3, [r3, #0]
 80045d6:	68db      	ldr	r3, [r3, #12]
 80045d8:	f003 0310 	and.w	r3, r3, #16
 80045dc:	2b10      	cmp	r3, #16
 80045de:	d055      	beq.n	800468c <HAL_RTC_Init+0xec>
  {
    /* Disable the write protection for RTC registers */
    __HAL_RTC_WRITEPROTECTION_DISABLE(hrtc);
 80045e0:	687b      	ldr	r3, [r7, #4]
 80045e2:	681b      	ldr	r3, [r3, #0]
 80045e4:	22ca      	movs	r2, #202	; 0xca
 80045e6:	625a      	str	r2, [r3, #36]	; 0x24
 80045e8:	687b      	ldr	r3, [r7, #4]
 80045ea:	681b      	ldr	r3, [r3, #0]
 80045ec:	2253      	movs	r2, #83	; 0x53
 80045ee:	625a      	str	r2, [r3, #36]	; 0x24

    /* Enter Initialization mode */
    status = RTC_EnterInitMode(hrtc);
 80045f0:	6878      	ldr	r0, [r7, #4]
 80045f2:	f000 fa49 	bl	8004a88 <RTC_EnterInitMode>
 80045f6:	4603      	mov	r3, r0
 80045f8:	73fb      	strb	r3, [r7, #15]

    if (status == HAL_OK)
 80045fa:	7bfb      	ldrb	r3, [r7, #15]
 80045fc:	2b00      	cmp	r3, #0
 80045fe:	d12c      	bne.n	800465a <HAL_RTC_Init+0xba>
    {
      /* Clear RTC_CR FMT, OSEL and POL Bits */
      hrtc->Instance->CR &= ((uint32_t)~(RTC_CR_FMT | RTC_CR_OSEL | RTC_CR_POL));
 8004600:	687b      	ldr	r3, [r7, #4]
 8004602:	681b      	ldr	r3, [r3, #0]
 8004604:	689b      	ldr	r3, [r3, #8]
 8004606:	687a      	ldr	r2, [r7, #4]
 8004608:	6812      	ldr	r2, [r2, #0]
 800460a:	f423 03e0 	bic.w	r3, r3, #7340032	; 0x700000
 800460e:	f023 0340 	bic.w	r3, r3, #64	; 0x40
 8004612:	6093      	str	r3, [r2, #8]
      /* Set RTC_CR register */
      hrtc->Instance->CR |= (uint32_t)(hrtc->Init.HourFormat | hrtc->Init.OutPut | hrtc->Init.OutPutPolarity);
 8004614:	687b      	ldr	r3, [r7, #4]
 8004616:	681b      	ldr	r3, [r3, #0]
 8004618:	6899      	ldr	r1, [r3, #8]
 800461a:	687b      	ldr	r3, [r7, #4]
 800461c:	685a      	ldr	r2, [r3, #4]
 800461e:	687b      	ldr	r3, [r7, #4]
 8004620:	691b      	ldr	r3, [r3, #16]
 8004622:	431a      	orrs	r2, r3
 8004624:	687b      	ldr	r3, [r7, #4]
 8004626:	695b      	ldr	r3, [r3, #20]
 8004628:	431a      	orrs	r2, r3
 800462a:	687b      	ldr	r3, [r7, #4]
 800462c:	681b      	ldr	r3, [r3, #0]
 800462e:	430a      	orrs	r2, r1
 8004630:	609a      	str	r2, [r3, #8]

      /* Configure the RTC PRER */
      hrtc->Instance->PRER = (uint32_t)(hrtc->Init.SynchPrediv);
 8004632:	687b      	ldr	r3, [r7, #4]
 8004634:	681b      	ldr	r3, [r3, #0]
 8004636:	687a      	ldr	r2, [r7, #4]
 8004638:	68d2      	ldr	r2, [r2, #12]
 800463a:	611a      	str	r2, [r3, #16]
      hrtc->Instance->PRER |= (uint32_t)(hrtc->Init.AsynchPrediv << RTC_PRER_PREDIV_A_Pos);
 800463c:	687b      	ldr	r3, [r7, #4]
 800463e:	681b      	ldr	r3, [r3, #0]
 8004640:	6919      	ldr	r1, [r3, #16]
 8004642:	687b      	ldr	r3, [r7, #4]
 8004644:	689b      	ldr	r3, [r3, #8]
 8004646:	041a      	lsls	r2, r3, #16
 8004648:	687b      	ldr	r3, [r7, #4]
 800464a:	681b      	ldr	r3, [r3, #0]
 800464c:	430a      	orrs	r2, r1
 800464e:	611a      	str	r2, [r3, #16]

      /* Exit Initialization mode */
      status = RTC_ExitInitMode(hrtc);
 8004650:	6878      	ldr	r0, [r7, #4]
 8004652:	f000 fa50 	bl	8004af6 <RTC_ExitInitMode>
 8004656:	4603      	mov	r3, r0
 8004658:	73fb      	strb	r3, [r7, #15]
    }

    if (status == HAL_OK)
 800465a:	7bfb      	ldrb	r3, [r7, #15]
 800465c:	2b00      	cmp	r3, #0
 800465e:	d110      	bne.n	8004682 <HAL_RTC_Init+0xe2>
    {
      hrtc->Instance->TAFCR &= (uint32_t)~RTC_OUTPUT_TYPE_PUSHPULL;
 8004660:	687b      	ldr	r3, [r7, #4]
 8004662:	681b      	ldr	r3, [r3, #0]
 8004664:	6c1a      	ldr	r2, [r3, #64]	; 0x40
 8004666:	687b      	ldr	r3, [r7, #4]
 8004668:	681b      	ldr	r3, [r3, #0]
 800466a:	f422 2280 	bic.w	r2, r2, #262144	; 0x40000
 800466e:	641a      	str	r2, [r3, #64]	; 0x40
      hrtc->Instance->TAFCR |= (uint32_t)(hrtc->Init.OutPutType);
 8004670:	687b      	ldr	r3, [r7, #4]
 8004672:	681b      	ldr	r3, [r3, #0]
 8004674:	6c19      	ldr	r1, [r3, #64]	; 0x40
 8004676:	687b      	ldr	r3, [r7, #4]
 8004678:	699a      	ldr	r2, [r3, #24]
 800467a:	687b      	ldr	r3, [r7, #4]
 800467c:	681b      	ldr	r3, [r3, #0]
 800467e:	430a      	orrs	r2, r1
 8004680:	641a      	str	r2, [r3, #64]	; 0x40
    }

    /* Enable the write protection for RTC registers */
    __HAL_RTC_WRITEPROTECTION_ENABLE(hrtc);
 8004682:	687b      	ldr	r3, [r7, #4]
 8004684:	681b      	ldr	r3, [r3, #0]
 8004686:	22ff      	movs	r2, #255	; 0xff
 8004688:	625a      	str	r2, [r3, #36]	; 0x24
 800468a:	e001      	b.n	8004690 <HAL_RTC_Init+0xf0>
  }
  else
  {
    /* The calendar is already initialized */
    status = HAL_OK;
 800468c:	2300      	movs	r3, #0
 800468e:	73fb      	strb	r3, [r7, #15]
  }

  if (status == HAL_OK)
 8004690:	7bfb      	ldrb	r3, [r7, #15]
 8004692:	2b00      	cmp	r3, #0
 8004694:	d102      	bne.n	800469c <HAL_RTC_Init+0xfc>
  {
    hrtc->State = HAL_RTC_STATE_READY;
 8004696:	687b      	ldr	r3, [r7, #4]
 8004698:	2201      	movs	r2, #1
 800469a:	775a      	strb	r2, [r3, #29]
  }

  return status;
 800469c:	7bfb      	ldrb	r3, [r7, #15]
}
 800469e:	4618      	mov	r0, r3
 80046a0:	3710      	adds	r7, #16
 80046a2:	46bd      	mov	sp, r7
 80046a4:	bd80      	pop	{r7, pc}

080046a6 <HAL_RTC_SetTime>:
  *            @arg RTC_FORMAT_BIN: Binary data format
  *            @arg RTC_FORMAT_BCD: BCD data format
  * @retval HAL status
  */
HAL_StatusTypeDef HAL_RTC_SetTime(RTC_HandleTypeDef *hrtc, RTC_TimeTypeDef *sTime, uint32_t Format)
{
 80046a6:	b590      	push	{r4, r7, lr}
 80046a8:	b087      	sub	sp, #28
 80046aa:	af00      	add	r7, sp, #0
 80046ac:	60f8      	str	r0, [r7, #12]
 80046ae:	60b9      	str	r1, [r7, #8]
 80046b0:	607a      	str	r2, [r7, #4]
  uint32_t tmpreg = 0U;
 80046b2:	2300      	movs	r3, #0
 80046b4:	617b      	str	r3, [r7, #20]
  assert_param(IS_RTC_FORMAT(Format));
  assert_param(IS_RTC_DAYLIGHT_SAVING(sTime->DayLightSaving));
  assert_param(IS_RTC_STORE_OPERATION(sTime->StoreOperation));

  /* Process Locked */
  __HAL_LOCK(hrtc);
 80046b6:	68fb      	ldr	r3, [r7, #12]
 80046b8:	7f1b      	ldrb	r3, [r3, #28]
 80046ba:	2b01      	cmp	r3, #1
 80046bc:	d101      	bne.n	80046c2 <HAL_RTC_SetTime+0x1c>
 80046be:	2302      	movs	r3, #2
 80046c0:	e087      	b.n	80047d2 <HAL_RTC_SetTime+0x12c>
 80046c2:	68fb      	ldr	r3, [r7, #12]
 80046c4:	2201      	movs	r2, #1
 80046c6:	771a      	strb	r2, [r3, #28]

  hrtc->State = HAL_RTC_STATE_BUSY;
 80046c8:	68fb      	ldr	r3, [r7, #12]
 80046ca:	2202      	movs	r2, #2
 80046cc:	775a      	strb	r2, [r3, #29]

  if (Format == RTC_FORMAT_BIN)
 80046ce:	687b      	ldr	r3, [r7, #4]
 80046d0:	2b00      	cmp	r3, #0
 80046d2:	d126      	bne.n	8004722 <HAL_RTC_SetTime+0x7c>
  {
    if ((hrtc->Instance->CR & RTC_CR_FMT) != 0U)
 80046d4:	68fb      	ldr	r3, [r7, #12]
 80046d6:	681b      	ldr	r3, [r3, #0]
 80046d8:	689b      	ldr	r3, [r3, #8]
 80046da:	f003 0340 	and.w	r3, r3, #64	; 0x40
 80046de:	2b00      	cmp	r3, #0
 80046e0:	d102      	bne.n	80046e8 <HAL_RTC_SetTime+0x42>
      assert_param(IS_RTC_HOUR12(sTime->Hours));
      assert_param(IS_RTC_HOURFORMAT12(sTime->TimeFormat));
    }
    else
    {
      sTime->TimeFormat = 0x00U;
 80046e2:	68bb      	ldr	r3, [r7, #8]
 80046e4:	2200      	movs	r2, #0
 80046e6:	70da      	strb	r2, [r3, #3]
      assert_param(IS_RTC_HOUR24(sTime->Hours));
    }
    assert_param(IS_RTC_MINUTES(sTime->Minutes));
    assert_param(IS_RTC_SECONDS(sTime->Seconds));

    tmpreg = (uint32_t)(( (uint32_t)RTC_ByteToBcd2(sTime->Hours)   << RTC_TR_HU_Pos)  | \
 80046e8:	68bb      	ldr	r3, [r7, #8]
 80046ea:	781b      	ldrb	r3, [r3, #0]
 80046ec:	4618      	mov	r0, r3
 80046ee:	f000 fa27 	bl	8004b40 <RTC_ByteToBcd2>
 80046f2:	4603      	mov	r3, r0
 80046f4:	041c      	lsls	r4, r3, #16
                        ( (uint32_t)RTC_ByteToBcd2(sTime->Minutes) << RTC_TR_MNU_Pos) | \
 80046f6:	68bb      	ldr	r3, [r7, #8]
 80046f8:	785b      	ldrb	r3, [r3, #1]
 80046fa:	4618      	mov	r0, r3
 80046fc:	f000 fa20 	bl	8004b40 <RTC_ByteToBcd2>
 8004700:	4603      	mov	r3, r0
 8004702:	021b      	lsls	r3, r3, #8
    tmpreg = (uint32_t)(( (uint32_t)RTC_ByteToBcd2(sTime->Hours)   << RTC_TR_HU_Pos)  | \
 8004704:	431c      	orrs	r4, r3
                        ( (uint32_t)RTC_ByteToBcd2(sTime->Seconds))                   | \
 8004706:	68bb      	ldr	r3, [r7, #8]
 8004708:	789b      	ldrb	r3, [r3, #2]
 800470a:	4618      	mov	r0, r3
 800470c:	f000 fa18 	bl	8004b40 <RTC_ByteToBcd2>
 8004710:	4603      	mov	r3, r0
                        ( (uint32_t)RTC_ByteToBcd2(sTime->Minutes) << RTC_TR_MNU_Pos) | \
 8004712:	ea44 0203 	orr.w	r2, r4, r3
                        (((uint32_t)sTime->TimeFormat)             << RTC_TR_PM_Pos));
 8004716:	68bb      	ldr	r3, [r7, #8]
 8004718:	78db      	ldrb	r3, [r3, #3]
 800471a:	059b      	lsls	r3, r3, #22
    tmpreg = (uint32_t)(( (uint32_t)RTC_ByteToBcd2(sTime->Hours)   << RTC_TR_HU_Pos)  | \
 800471c:	4313      	orrs	r3, r2
 800471e:	617b      	str	r3, [r7, #20]
 8004720:	e018      	b.n	8004754 <HAL_RTC_SetTime+0xae>
  }
  else
  {
    if ((hrtc->Instance->CR & RTC_CR_FMT) != 0U)
 8004722:	68fb      	ldr	r3, [r7, #12]
 8004724:	681b      	ldr	r3, [r3, #0]
 8004726:	689b      	ldr	r3, [r3, #8]
 8004728:	f003 0340 	and.w	r3, r3, #64	; 0x40
 800472c:	2b00      	cmp	r3, #0
 800472e:	d102      	bne.n	8004736 <HAL_RTC_SetTime+0x90>
      assert_param(IS_RTC_HOUR12(RTC_Bcd2ToByte(sTime->Hours)));
      assert_param(IS_RTC_HOURFORMAT12(sTime->TimeFormat));
    }
    else
    {
      sTime->TimeFormat = 0x00U;
 8004730:	68bb      	ldr	r3, [r7, #8]
 8004732:	2200      	movs	r2, #0
 8004734:	70da      	strb	r2, [r3, #3]
      assert_param(IS_RTC_HOUR24(RTC_Bcd2ToByte(sTime->Hours)));
    }
    assert_param(IS_RTC_MINUTES(RTC_Bcd2ToByte(sTime->Minutes)));
    assert_param(IS_RTC_SECONDS(RTC_Bcd2ToByte(sTime->Seconds)));
    tmpreg = (((uint32_t)(sTime->Hours)      << RTC_TR_HU_Pos)  | \
 8004736:	68bb      	ldr	r3, [r7, #8]
 8004738:	781b      	ldrb	r3, [r3, #0]
 800473a:	041a      	lsls	r2, r3, #16
              ((uint32_t)(sTime->Minutes)    << RTC_TR_MNU_Pos) | \
 800473c:	68bb      	ldr	r3, [r7, #8]
 800473e:	785b      	ldrb	r3, [r3, #1]
 8004740:	021b      	lsls	r3, r3, #8
    tmpreg = (((uint32_t)(sTime->Hours)      << RTC_TR_HU_Pos)  | \
 8004742:	4313      	orrs	r3, r2
              ((uint32_t) sTime->Seconds)                       | \
 8004744:	68ba      	ldr	r2, [r7, #8]
 8004746:	7892      	ldrb	r2, [r2, #2]
              ((uint32_t)(sTime->Minutes)    << RTC_TR_MNU_Pos) | \
 8004748:	431a      	orrs	r2, r3
              ((uint32_t)(sTime->TimeFormat) << RTC_TR_PM_Pos));
 800474a:	68bb      	ldr	r3, [r7, #8]
 800474c:	78db      	ldrb	r3, [r3, #3]
 800474e:	059b      	lsls	r3, r3, #22
    tmpreg = (((uint32_t)(sTime->Hours)      << RTC_TR_HU_Pos)  | \
 8004750:	4313      	orrs	r3, r2
 8004752:	617b      	str	r3, [r7, #20]
  }

  /* Disable the write protection for RTC registers */
  __HAL_RTC_WRITEPROTECTION_DISABLE(hrtc);
 8004754:	68fb      	ldr	r3, [r7, #12]
 8004756:	681b      	ldr	r3, [r3, #0]
 8004758:	22ca      	movs	r2, #202	; 0xca
 800475a:	625a      	str	r2, [r3, #36]	; 0x24
 800475c:	68fb      	ldr	r3, [r7, #12]
 800475e:	681b      	ldr	r3, [r3, #0]
 8004760:	2253      	movs	r2, #83	; 0x53
 8004762:	625a      	str	r2, [r3, #36]	; 0x24

  /* Enter Initialization mode */
  status = RTC_EnterInitMode(hrtc);
 8004764:	68f8      	ldr	r0, [r7, #12]
 8004766:	f000 f98f 	bl	8004a88 <RTC_EnterInitMode>
 800476a:	4603      	mov	r3, r0
 800476c:	74fb      	strb	r3, [r7, #19]

  if (status == HAL_OK)
 800476e:	7cfb      	ldrb	r3, [r7, #19]
 8004770:	2b00      	cmp	r3, #0
 8004772:	d120      	bne.n	80047b6 <HAL_RTC_SetTime+0x110>
  {
    /* Set the RTC_TR register */
    hrtc->Instance->TR = (uint32_t)(tmpreg & RTC_TR_RESERVED_MASK);
 8004774:	68fb      	ldr	r3, [r7, #12]
 8004776:	681a      	ldr	r2, [r3, #0]
 8004778:	697b      	ldr	r3, [r7, #20]
 800477a:	f003 337f 	and.w	r3, r3, #2139062143	; 0x7f7f7f7f
 800477e:	f023 43fe 	bic.w	r3, r3, #2130706432	; 0x7f000000
 8004782:	6013      	str	r3, [r2, #0]

    /* Clear the bits to be configured (Deprecated. Use HAL_RTC_DST_xxx functions instead) */
    hrtc->Instance->CR &= (uint32_t)~RTC_CR_BKP;
 8004784:	68fb      	ldr	r3, [r7, #12]
 8004786:	681b      	ldr	r3, [r3, #0]
 8004788:	689a      	ldr	r2, [r3, #8]
 800478a:	68fb      	ldr	r3, [r7, #12]
 800478c:	681b      	ldr	r3, [r3, #0]
 800478e:	f422 2280 	bic.w	r2, r2, #262144	; 0x40000
 8004792:	609a      	str	r2, [r3, #8]

    /* Configure the RTC_CR register (Deprecated. Use HAL_RTC_DST_xxx functions instead) */
    hrtc->Instance->CR |= (uint32_t)(sTime->DayLightSaving | sTime->StoreOperation);
 8004794:	68fb      	ldr	r3, [r7, #12]
 8004796:	681b      	ldr	r3, [r3, #0]
 8004798:	6899      	ldr	r1, [r3, #8]
 800479a:	68bb      	ldr	r3, [r7, #8]
 800479c:	68da      	ldr	r2, [r3, #12]
 800479e:	68bb      	ldr	r3, [r7, #8]
 80047a0:	691b      	ldr	r3, [r3, #16]
 80047a2:	431a      	orrs	r2, r3
 80047a4:	68fb      	ldr	r3, [r7, #12]
 80047a6:	681b      	ldr	r3, [r3, #0]
 80047a8:	430a      	orrs	r2, r1
 80047aa:	609a      	str	r2, [r3, #8]

    /* Exit Initialization mode */
    status = RTC_ExitInitMode(hrtc);
 80047ac:	68f8      	ldr	r0, [r7, #12]
 80047ae:	f000 f9a2 	bl	8004af6 <RTC_ExitInitMode>
 80047b2:	4603      	mov	r3, r0
 80047b4:	74fb      	strb	r3, [r7, #19]
  }

  if (status == HAL_OK)
 80047b6:	7cfb      	ldrb	r3, [r7, #19]
 80047b8:	2b00      	cmp	r3, #0
 80047ba:	d102      	bne.n	80047c2 <HAL_RTC_SetTime+0x11c>
  {
    hrtc->State = HAL_RTC_STATE_READY;
 80047bc:	68fb      	ldr	r3, [r7, #12]
 80047be:	2201      	movs	r2, #1
 80047c0:	775a      	strb	r2, [r3, #29]
  }

  /* Enable the write protection for RTC registers */
  __HAL_RTC_WRITEPROTECTION_ENABLE(hrtc);
 80047c2:	68fb      	ldr	r3, [r7, #12]
 80047c4:	681b      	ldr	r3, [r3, #0]
 80047c6:	22ff      	movs	r2, #255	; 0xff
 80047c8:	625a      	str	r2, [r3, #36]	; 0x24

  /* Process Unlocked */
  __HAL_UNLOCK(hrtc);
 80047ca:	68fb      	ldr	r3, [r7, #12]
 80047cc:	2200      	movs	r2, #0
 80047ce:	771a      	strb	r2, [r3, #28]

  return status;
 80047d0:	7cfb      	ldrb	r3, [r7, #19]
}
 80047d2:	4618      	mov	r0, r3
 80047d4:	371c      	adds	r7, #28
 80047d6:	46bd      	mov	sp, r7
 80047d8:	bd90      	pop	{r4, r7, pc}

080047da <HAL_RTC_GetTime>:
  *        until current date is read to ensure consistency between the time and
  *        date values.
  * @retval HAL status
  */
HAL_StatusTypeDef HAL_RTC_GetTime(RTC_HandleTypeDef *hrtc, RTC_TimeTypeDef *sTime, uint32_t Format)
{
 80047da:	b580      	push	{r7, lr}
 80047dc:	b086      	sub	sp, #24
 80047de:	af00      	add	r7, sp, #0
 80047e0:	60f8      	str	r0, [r7, #12]
 80047e2:	60b9      	str	r1, [r7, #8]
 80047e4:	607a      	str	r2, [r7, #4]
  uint32_t tmpreg = 0U;
 80047e6:	2300      	movs	r3, #0
 80047e8:	617b      	str	r3, [r7, #20]

  /* Check the parameters */
  assert_param(IS_RTC_FORMAT(Format));

  /* Get subseconds value from the corresponding register */
  sTime->SubSeconds = (uint32_t)(hrtc->Instance->SSR);
 80047ea:	68fb      	ldr	r3, [r7, #12]
 80047ec:	681b      	ldr	r3, [r3, #0]
 80047ee:	6a9a      	ldr	r2, [r3, #40]	; 0x28
 80047f0:	68bb      	ldr	r3, [r7, #8]
 80047f2:	605a      	str	r2, [r3, #4]

  /* Get SecondFraction structure field from the corresponding register field*/
  sTime->SecondFraction = (uint32_t)(hrtc->Instance->PRER & RTC_PRER_PREDIV_S);
 80047f4:	68fb      	ldr	r3, [r7, #12]
 80047f6:	681b      	ldr	r3, [r3, #0]
 80047f8:	691b      	ldr	r3, [r3, #16]
 80047fa:	f3c3 020e 	ubfx	r2, r3, #0, #15
 80047fe:	68bb      	ldr	r3, [r7, #8]
 8004800:	609a      	str	r2, [r3, #8]

  /* Get the TR register */
  tmpreg = (uint32_t)(hrtc->Instance->TR & RTC_TR_RESERVED_MASK);
 8004802:	68fb      	ldr	r3, [r7, #12]
 8004804:	681b      	ldr	r3, [r3, #0]
 8004806:	681b      	ldr	r3, [r3, #0]
 8004808:	f003 337f 	and.w	r3, r3, #2139062143	; 0x7f7f7f7f
 800480c:	f023 43fe 	bic.w	r3, r3, #2130706432	; 0x7f000000
 8004810:	617b      	str	r3, [r7, #20]

  /* Fill the structure fields with the read parameters */
  sTime->Hours      = (uint8_t)((tmpreg & (RTC_TR_HT  | RTC_TR_HU))  >> RTC_TR_HU_Pos);
 8004812:	697b      	ldr	r3, [r7, #20]
 8004814:	0c1b      	lsrs	r3, r3, #16
 8004816:	b2db      	uxtb	r3, r3
 8004818:	f003 033f 	and.w	r3, r3, #63	; 0x3f
 800481c:	b2da      	uxtb	r2, r3
 800481e:	68bb      	ldr	r3, [r7, #8]
 8004820:	701a      	strb	r2, [r3, #0]
  sTime->Minutes    = (uint8_t)((tmpreg & (RTC_TR_MNT | RTC_TR_MNU)) >> RTC_TR_MNU_Pos);
 8004822:	697b      	ldr	r3, [r7, #20]
 8004824:	0a1b      	lsrs	r3, r3, #8
 8004826:	b2db      	uxtb	r3, r3
 8004828:	f003 037f 	and.w	r3, r3, #127	; 0x7f
 800482c:	b2da      	uxtb	r2, r3
 800482e:	68bb      	ldr	r3, [r7, #8]
 8004830:	705a      	strb	r2, [r3, #1]
  sTime->Seconds    = (uint8_t)( tmpreg & (RTC_TR_ST  | RTC_TR_SU));
 8004832:	697b      	ldr	r3, [r7, #20]
 8004834:	b2db      	uxtb	r3, r3
 8004836:	f003 037f 	and.w	r3, r3, #127	; 0x7f
 800483a:	b2da      	uxtb	r2, r3
 800483c:	68bb      	ldr	r3, [r7, #8]
 800483e:	709a      	strb	r2, [r3, #2]
  sTime->TimeFormat = (uint8_t)((tmpreg & (RTC_TR_PM))               >> RTC_TR_PM_Pos);
 8004840:	697b      	ldr	r3, [r7, #20]
 8004842:	0d9b      	lsrs	r3, r3, #22
 8004844:	b2db      	uxtb	r3, r3
 8004846:	f003 0301 	and.w	r3, r3, #1
 800484a:	b2da      	uxtb	r2, r3
 800484c:	68bb      	ldr	r3, [r7, #8]
 800484e:	70da      	strb	r2, [r3, #3]

  /* Check the input parameters format */
  if (Format == RTC_FORMAT_BIN)
 8004850:	687b      	ldr	r3, [r7, #4]
 8004852:	2b00      	cmp	r3, #0
 8004854:	d11a      	bne.n	800488c <HAL_RTC_GetTime+0xb2>
  {
    /* Convert the time structure parameters to Binary format */
    sTime->Hours = (uint8_t)RTC_Bcd2ToByte(sTime->Hours);
 8004856:	68bb      	ldr	r3, [r7, #8]
 8004858:	781b      	ldrb	r3, [r3, #0]
 800485a:	4618      	mov	r0, r3
 800485c:	f000 f98e 	bl	8004b7c <RTC_Bcd2ToByte>
 8004860:	4603      	mov	r3, r0
 8004862:	461a      	mov	r2, r3
 8004864:	68bb      	ldr	r3, [r7, #8]
 8004866:	701a      	strb	r2, [r3, #0]
    sTime->Minutes = (uint8_t)RTC_Bcd2ToByte(sTime->Minutes);
 8004868:	68bb      	ldr	r3, [r7, #8]
 800486a:	785b      	ldrb	r3, [r3, #1]
 800486c:	4618      	mov	r0, r3
 800486e:	f000 f985 	bl	8004b7c <RTC_Bcd2ToByte>
 8004872:	4603      	mov	r3, r0
 8004874:	461a      	mov	r2, r3
 8004876:	68bb      	ldr	r3, [r7, #8]
 8004878:	705a      	strb	r2, [r3, #1]
    sTime->Seconds = (uint8_t)RTC_Bcd2ToByte(sTime->Seconds);
 800487a:	68bb      	ldr	r3, [r7, #8]
 800487c:	789b      	ldrb	r3, [r3, #2]
 800487e:	4618      	mov	r0, r3
 8004880:	f000 f97c 	bl	8004b7c <RTC_Bcd2ToByte>
 8004884:	4603      	mov	r3, r0
 8004886:	461a      	mov	r2, r3
 8004888:	68bb      	ldr	r3, [r7, #8]
 800488a:	709a      	strb	r2, [r3, #2]
  }

  return HAL_OK;
 800488c:	2300      	movs	r3, #0
}
 800488e:	4618      	mov	r0, r3
 8004890:	3718      	adds	r7, #24
 8004892:	46bd      	mov	sp, r7
 8004894:	bd80      	pop	{r7, pc}

08004896 <HAL_RTC_SetDate>:
  *            @arg RTC_FORMAT_BIN: Binary data format
  *            @arg RTC_FORMAT_BCD: BCD data format
  * @retval HAL status
  */
HAL_StatusTypeDef HAL_RTC_SetDate(RTC_HandleTypeDef *hrtc, RTC_DateTypeDef *sDate, uint32_t Format)
{
 8004896:	b590      	push	{r4, r7, lr}
 8004898:	b087      	sub	sp, #28
 800489a:	af00      	add	r7, sp, #0
 800489c:	60f8      	str	r0, [r7, #12]
 800489e:	60b9      	str	r1, [r7, #8]
 80048a0:	607a      	str	r2, [r7, #4]
  uint32_t datetmpreg = 0U;
 80048a2:	2300      	movs	r3, #0
 80048a4:	617b      	str	r3, [r7, #20]

  /* Check the parameters */
  assert_param(IS_RTC_FORMAT(Format));

  /* Process Locked */
  __HAL_LOCK(hrtc);
 80048a6:	68fb      	ldr	r3, [r7, #12]
 80048a8:	7f1b      	ldrb	r3, [r3, #28]
 80048aa:	2b01      	cmp	r3, #1
 80048ac:	d101      	bne.n	80048b2 <HAL_RTC_SetDate+0x1c>
 80048ae:	2302      	movs	r3, #2
 80048b0:	e071      	b.n	8004996 <HAL_RTC_SetDate+0x100>
 80048b2:	68fb      	ldr	r3, [r7, #12]
 80048b4:	2201      	movs	r2, #1
 80048b6:	771a      	strb	r2, [r3, #28]

  hrtc->State = HAL_RTC_STATE_BUSY;
 80048b8:	68fb      	ldr	r3, [r7, #12]
 80048ba:	2202      	movs	r2, #2
 80048bc:	775a      	strb	r2, [r3, #29]

  if ((Format == RTC_FORMAT_BIN) && ((sDate->Month & 0x10U) == 0x10U))
 80048be:	687b      	ldr	r3, [r7, #4]
 80048c0:	2b00      	cmp	r3, #0
 80048c2:	d10e      	bne.n	80048e2 <HAL_RTC_SetDate+0x4c>
 80048c4:	68bb      	ldr	r3, [r7, #8]
 80048c6:	785b      	ldrb	r3, [r3, #1]
 80048c8:	f003 0310 	and.w	r3, r3, #16
 80048cc:	2b00      	cmp	r3, #0
 80048ce:	d008      	beq.n	80048e2 <HAL_RTC_SetDate+0x4c>
  {
    sDate->Month = (uint8_t)((sDate->Month & (uint8_t)~(0x10U)) + (uint8_t)0x0AU);
 80048d0:	68bb      	ldr	r3, [r7, #8]
 80048d2:	785b      	ldrb	r3, [r3, #1]
 80048d4:	f023 0310 	bic.w	r3, r3, #16
 80048d8:	b2db      	uxtb	r3, r3
 80048da:	330a      	adds	r3, #10
 80048dc:	b2da      	uxtb	r2, r3
 80048de:	68bb      	ldr	r3, [r7, #8]
 80048e0:	705a      	strb	r2, [r3, #1]
  }

  assert_param(IS_RTC_WEEKDAY(sDate->WeekDay));

  if (Format == RTC_FORMAT_BIN)
 80048e2:	687b      	ldr	r3, [r7, #4]
 80048e4:	2b00      	cmp	r3, #0
 80048e6:	d11c      	bne.n	8004922 <HAL_RTC_SetDate+0x8c>
  {
    assert_param(IS_RTC_YEAR(sDate->Year));
    assert_param(IS_RTC_MONTH(sDate->Month));
    assert_param(IS_RTC_DATE(sDate->Date));

    datetmpreg = (((uint32_t)RTC_ByteToBcd2(sDate->Year)  << RTC_DR_YU_Pos) | \
 80048e8:	68bb      	ldr	r3, [r7, #8]
 80048ea:	78db      	ldrb	r3, [r3, #3]
 80048ec:	4618      	mov	r0, r3
 80048ee:	f000 f927 	bl	8004b40 <RTC_ByteToBcd2>
 80048f2:	4603      	mov	r3, r0
 80048f4:	041c      	lsls	r4, r3, #16
                  ((uint32_t)RTC_ByteToBcd2(sDate->Month) << RTC_DR_MU_Pos) | \
 80048f6:	68bb      	ldr	r3, [r7, #8]
 80048f8:	785b      	ldrb	r3, [r3, #1]
 80048fa:	4618      	mov	r0, r3
 80048fc:	f000 f920 	bl	8004b40 <RTC_ByteToBcd2>
 8004900:	4603      	mov	r3, r0
 8004902:	021b      	lsls	r3, r3, #8
    datetmpreg = (((uint32_t)RTC_ByteToBcd2(sDate->Year)  << RTC_DR_YU_Pos) | \
 8004904:	431c      	orrs	r4, r3
                  ((uint32_t)RTC_ByteToBcd2(sDate->Date))                   | \
 8004906:	68bb      	ldr	r3, [r7, #8]
 8004908:	789b      	ldrb	r3, [r3, #2]
 800490a:	4618      	mov	r0, r3
 800490c:	f000 f918 	bl	8004b40 <RTC_ByteToBcd2>
 8004910:	4603      	mov	r3, r0
                  ((uint32_t)RTC_ByteToBcd2(sDate->Month) << RTC_DR_MU_Pos) | \
 8004912:	ea44 0203 	orr.w	r2, r4, r3
                  ((uint32_t)sDate->WeekDay               << RTC_DR_WDU_Pos));
 8004916:	68bb      	ldr	r3, [r7, #8]
 8004918:	781b      	ldrb	r3, [r3, #0]
 800491a:	035b      	lsls	r3, r3, #13
    datetmpreg = (((uint32_t)RTC_ByteToBcd2(sDate->Year)  << RTC_DR_YU_Pos) | \
 800491c:	4313      	orrs	r3, r2
 800491e:	617b      	str	r3, [r7, #20]
 8004920:	e00e      	b.n	8004940 <HAL_RTC_SetDate+0xaa>
  {
    assert_param(IS_RTC_YEAR(RTC_Bcd2ToByte(sDate->Year)));
    assert_param(IS_RTC_MONTH(RTC_Bcd2ToByte(sDate->Month)));
    assert_param(IS_RTC_DATE(RTC_Bcd2ToByte(sDate->Date)));

    datetmpreg = ((((uint32_t)sDate->Year)    << RTC_DR_YU_Pos) | \
 8004922:	68bb      	ldr	r3, [r7, #8]
 8004924:	78db      	ldrb	r3, [r3, #3]
 8004926:	041a      	lsls	r2, r3, #16
                  (((uint32_t)sDate->Month)   << RTC_DR_MU_Pos) | \
 8004928:	68bb      	ldr	r3, [r7, #8]
 800492a:	785b      	ldrb	r3, [r3, #1]
 800492c:	021b      	lsls	r3, r3, #8
    datetmpreg = ((((uint32_t)sDate->Year)    << RTC_DR_YU_Pos) | \
 800492e:	4313      	orrs	r3, r2
                  ((uint32_t) sDate->Date)                      | \
 8004930:	68ba      	ldr	r2, [r7, #8]
 8004932:	7892      	ldrb	r2, [r2, #2]
                  (((uint32_t)sDate->Month)   << RTC_DR_MU_Pos) | \
 8004934:	431a      	orrs	r2, r3
                  (((uint32_t)sDate->WeekDay) << RTC_DR_WDU_Pos));
 8004936:	68bb      	ldr	r3, [r7, #8]
 8004938:	781b      	ldrb	r3, [r3, #0]
 800493a:	035b      	lsls	r3, r3, #13
    datetmpreg = ((((uint32_t)sDate->Year)    << RTC_DR_YU_Pos) | \
 800493c:	4313      	orrs	r3, r2
 800493e:	617b      	str	r3, [r7, #20]
  }

  /* Disable the write protection for RTC registers */
  __HAL_RTC_WRITEPROTECTION_DISABLE(hrtc);
 8004940:	68fb      	ldr	r3, [r7, #12]
 8004942:	681b      	ldr	r3, [r3, #0]
 8004944:	22ca      	movs	r2, #202	; 0xca
 8004946:	625a      	str	r2, [r3, #36]	; 0x24
 8004948:	68fb      	ldr	r3, [r7, #12]
 800494a:	681b      	ldr	r3, [r3, #0]
 800494c:	2253      	movs	r2, #83	; 0x53
 800494e:	625a      	str	r2, [r3, #36]	; 0x24

  /* Enter Initialization mode */
  status = RTC_EnterInitMode(hrtc);
 8004950:	68f8      	ldr	r0, [r7, #12]
 8004952:	f000 f899 	bl	8004a88 <RTC_EnterInitMode>
 8004956:	4603      	mov	r3, r0
 8004958:	74fb      	strb	r3, [r7, #19]

  if (status == HAL_OK)
 800495a:	7cfb      	ldrb	r3, [r7, #19]
 800495c:	2b00      	cmp	r3, #0
 800495e:	d10c      	bne.n	800497a <HAL_RTC_SetDate+0xe4>
  {
    /* Set the RTC_DR register */
    hrtc->Instance->DR = (uint32_t)(datetmpreg & RTC_DR_RESERVED_MASK);
 8004960:	68fb      	ldr	r3, [r7, #12]
 8004962:	681a      	ldr	r2, [r3, #0]
 8004964:	697b      	ldr	r3, [r7, #20]
 8004966:	f023 437f 	bic.w	r3, r3, #4278190080	; 0xff000000
 800496a:	f023 03c0 	bic.w	r3, r3, #192	; 0xc0
 800496e:	6053      	str	r3, [r2, #4]

    /* Exit Initialization mode */
    status = RTC_ExitInitMode(hrtc);
 8004970:	68f8      	ldr	r0, [r7, #12]
 8004972:	f000 f8c0 	bl	8004af6 <RTC_ExitInitMode>
 8004976:	4603      	mov	r3, r0
 8004978:	74fb      	strb	r3, [r7, #19]
  }

  if (status == HAL_OK)
 800497a:	7cfb      	ldrb	r3, [r7, #19]
 800497c:	2b00      	cmp	r3, #0
 800497e:	d102      	bne.n	8004986 <HAL_RTC_SetDate+0xf0>
  {
    hrtc->State = HAL_RTC_STATE_READY;
 8004980:	68fb      	ldr	r3, [r7, #12]
 8004982:	2201      	movs	r2, #1
 8004984:	775a      	strb	r2, [r3, #29]
  }

  /* Enable the write protection for RTC registers */
  __HAL_RTC_WRITEPROTECTION_ENABLE(hrtc);
 8004986:	68fb      	ldr	r3, [r7, #12]
 8004988:	681b      	ldr	r3, [r3, #0]
 800498a:	22ff      	movs	r2, #255	; 0xff
 800498c:	625a      	str	r2, [r3, #36]	; 0x24

  /* Process Unlocked */
  __HAL_UNLOCK(hrtc);
 800498e:	68fb      	ldr	r3, [r7, #12]
 8004990:	2200      	movs	r2, #0
 8004992:	771a      	strb	r2, [r3, #28]

  return status;
 8004994:	7cfb      	ldrb	r3, [r7, #19]
}
 8004996:	4618      	mov	r0, r3
 8004998:	371c      	adds	r7, #28
 800499a:	46bd      	mov	sp, r7
 800499c:	bd90      	pop	{r4, r7, pc}

0800499e <HAL_RTC_GetDate>:
  *        until current date is read to ensure consistency between the time and
  *        date values.
  * @retval HAL status
  */
HAL_StatusTypeDef HAL_RTC_GetDate(RTC_HandleTypeDef *hrtc, RTC_DateTypeDef *sDate, uint32_t Format)
{
 800499e:	b580      	push	{r7, lr}
 80049a0:	b086      	sub	sp, #24
 80049a2:	af00      	add	r7, sp, #0
 80049a4:	60f8      	str	r0, [r7, #12]
 80049a6:	60b9      	str	r1, [r7, #8]
 80049a8:	607a      	str	r2, [r7, #4]
  uint32_t datetmpreg = 0U;
 80049aa:	2300      	movs	r3, #0
 80049ac:	617b      	str	r3, [r7, #20]

  /* Check the parameters */
  assert_param(IS_RTC_FORMAT(Format));

  /* Get the DR register */
  datetmpreg = (uint32_t)(hrtc->Instance->DR & RTC_DR_RESERVED_MASK);
 80049ae:	68fb      	ldr	r3, [r7, #12]
 80049b0:	681b      	ldr	r3, [r3, #0]
 80049b2:	685b      	ldr	r3, [r3, #4]
 80049b4:	f023 437f 	bic.w	r3, r3, #4278190080	; 0xff000000
 80049b8:	f023 03c0 	bic.w	r3, r3, #192	; 0xc0
 80049bc:	617b      	str	r3, [r7, #20]

  /* Fill the structure fields with the read parameters */
  sDate->Year    = (uint8_t)((datetmpreg & (RTC_DR_YT | RTC_DR_YU)) >> RTC_DR_YU_Pos);
 80049be:	697b      	ldr	r3, [r7, #20]
 80049c0:	0c1b      	lsrs	r3, r3, #16
 80049c2:	b2da      	uxtb	r2, r3
 80049c4:	68bb      	ldr	r3, [r7, #8]
 80049c6:	70da      	strb	r2, [r3, #3]
  sDate->Month   = (uint8_t)((datetmpreg & (RTC_DR_MT | RTC_DR_MU)) >> RTC_DR_MU_Pos);
 80049c8:	697b      	ldr	r3, [r7, #20]
 80049ca:	0a1b      	lsrs	r3, r3, #8
 80049cc:	b2db      	uxtb	r3, r3
 80049ce:	f003 031f 	and.w	r3, r3, #31
 80049d2:	b2da      	uxtb	r2, r3
 80049d4:	68bb      	ldr	r3, [r7, #8]
 80049d6:	705a      	strb	r2, [r3, #1]
  sDate->Date    = (uint8_t) (datetmpreg & (RTC_DR_DT | RTC_DR_DU));
 80049d8:	697b      	ldr	r3, [r7, #20]
 80049da:	b2db      	uxtb	r3, r3
 80049dc:	f003 033f 	and.w	r3, r3, #63	; 0x3f
 80049e0:	b2da      	uxtb	r2, r3
 80049e2:	68bb      	ldr	r3, [r7, #8]
 80049e4:	709a      	strb	r2, [r3, #2]
  sDate->WeekDay = (uint8_t)((datetmpreg & (RTC_DR_WDU))            >> RTC_DR_WDU_Pos);
 80049e6:	697b      	ldr	r3, [r7, #20]
 80049e8:	0b5b      	lsrs	r3, r3, #13
 80049ea:	b2db      	uxtb	r3, r3
 80049ec:	f003 0307 	and.w	r3, r3, #7
 80049f0:	b2da      	uxtb	r2, r3
 80049f2:	68bb      	ldr	r3, [r7, #8]
 80049f4:	701a      	strb	r2, [r3, #0]

  /* Check the input parameters format */
  if (Format == RTC_FORMAT_BIN)
 80049f6:	687b      	ldr	r3, [r7, #4]
 80049f8:	2b00      	cmp	r3, #0
 80049fa:	d11a      	bne.n	8004a32 <HAL_RTC_GetDate+0x94>
  {
    /* Convert the date structure parameters to Binary format */
    sDate->Year  = (uint8_t)RTC_Bcd2ToByte(sDate->Year);
 80049fc:	68bb      	ldr	r3, [r7, #8]
 80049fe:	78db      	ldrb	r3, [r3, #3]
 8004a00:	4618      	mov	r0, r3
 8004a02:	f000 f8bb 	bl	8004b7c <RTC_Bcd2ToByte>
 8004a06:	4603      	mov	r3, r0
 8004a08:	461a      	mov	r2, r3
 8004a0a:	68bb      	ldr	r3, [r7, #8]
 8004a0c:	70da      	strb	r2, [r3, #3]
    sDate->Month = (uint8_t)RTC_Bcd2ToByte(sDate->Month);
 8004a0e:	68bb      	ldr	r3, [r7, #8]
 8004a10:	785b      	ldrb	r3, [r3, #1]
 8004a12:	4618      	mov	r0, r3
 8004a14:	f000 f8b2 	bl	8004b7c <RTC_Bcd2ToByte>
 8004a18:	4603      	mov	r3, r0
 8004a1a:	461a      	mov	r2, r3
 8004a1c:	68bb      	ldr	r3, [r7, #8]
 8004a1e:	705a      	strb	r2, [r3, #1]
    sDate->Date  = (uint8_t)RTC_Bcd2ToByte(sDate->Date);
 8004a20:	68bb      	ldr	r3, [r7, #8]
 8004a22:	789b      	ldrb	r3, [r3, #2]
 8004a24:	4618      	mov	r0, r3
 8004a26:	f000 f8a9 	bl	8004b7c <RTC_Bcd2ToByte>
 8004a2a:	4603      	mov	r3, r0
 8004a2c:	461a      	mov	r2, r3
 8004a2e:	68bb      	ldr	r3, [r7, #8]
 8004a30:	709a      	strb	r2, [r3, #2]
  }
  return HAL_OK;
 8004a32:	2300      	movs	r3, #0
}
 8004a34:	4618      	mov	r0, r3
 8004a36:	3718      	adds	r7, #24
 8004a38:	46bd      	mov	sp, r7
 8004a3a:	bd80      	pop	{r7, pc}

08004a3c <HAL_RTC_WaitForSynchro>:
  * @param  hrtc pointer to a RTC_HandleTypeDef structure that contains
  *                the configuration information for RTC.
  * @retval HAL status
  */
HAL_StatusTypeDef HAL_RTC_WaitForSynchro(RTC_HandleTypeDef *hrtc)
{
 8004a3c:	b580      	push	{r7, lr}
 8004a3e:	b084      	sub	sp, #16
 8004a40:	af00      	add	r7, sp, #0
 8004a42:	6078      	str	r0, [r7, #4]
  uint32_t tickstart = 0U;
 8004a44:	2300      	movs	r3, #0
 8004a46:	60fb      	str	r3, [r7, #12]

  /* Clear RSF flag, keep reserved bits at reset values (setting other flags has no effect) */
  hrtc->Instance->ISR = ((uint32_t)(RTC_RSF_MASK & RTC_ISR_RESERVED_MASK));
 8004a48:	687b      	ldr	r3, [r7, #4]
 8004a4a:	681b      	ldr	r3, [r3, #0]
 8004a4c:	4a0d      	ldr	r2, [pc, #52]	; (8004a84 <HAL_RTC_WaitForSynchro+0x48>)
 8004a4e:	60da      	str	r2, [r3, #12]

  /* Get tick */
  tickstart = HAL_GetTick();
 8004a50:	f7fd fb88 	bl	8002164 <HAL_GetTick>
 8004a54:	60f8      	str	r0, [r7, #12]

  /* Wait the registers to be synchronised */
  while ((hrtc->Instance->ISR & RTC_ISR_RSF) == 0U)
 8004a56:	e009      	b.n	8004a6c <HAL_RTC_WaitForSynchro+0x30>
  {
    if ((HAL_GetTick() - tickstart) > RTC_TIMEOUT_VALUE)
 8004a58:	f7fd fb84 	bl	8002164 <HAL_GetTick>
 8004a5c:	4602      	mov	r2, r0
 8004a5e:	68fb      	ldr	r3, [r7, #12]
 8004a60:	1ad3      	subs	r3, r2, r3
 8004a62:	f5b3 7f7a 	cmp.w	r3, #1000	; 0x3e8
 8004a66:	d901      	bls.n	8004a6c <HAL_RTC_WaitForSynchro+0x30>
    {
      return HAL_TIMEOUT;
 8004a68:	2303      	movs	r3, #3
 8004a6a:	e007      	b.n	8004a7c <HAL_RTC_WaitForSynchro+0x40>
  while ((hrtc->Instance->ISR & RTC_ISR_RSF) == 0U)
 8004a6c:	687b      	ldr	r3, [r7, #4]
 8004a6e:	681b      	ldr	r3, [r3, #0]
 8004a70:	68db      	ldr	r3, [r3, #12]
 8004a72:	f003 0320 	and.w	r3, r3, #32
 8004a76:	2b00      	cmp	r3, #0
 8004a78:	d0ee      	beq.n	8004a58 <HAL_RTC_WaitForSynchro+0x1c>
    }
  }

  return HAL_OK;
 8004a7a:	2300      	movs	r3, #0
}
 8004a7c:	4618      	mov	r0, r3
 8004a7e:	3710      	adds	r7, #16
 8004a80:	46bd      	mov	sp, r7
 8004a82:	bd80      	pop	{r7, pc}
 8004a84:	00017f5f 	.word	0x00017f5f

08004a88 <RTC_EnterInitMode>:
  * @param  hrtc pointer to a RTC_HandleTypeDef structure that contains
  *                the configuration information for RTC.
  * @retval HAL status
  */
HAL_StatusTypeDef RTC_EnterInitMode(RTC_HandleTypeDef *hrtc)
{
 8004a88:	b580      	push	{r7, lr}
 8004a8a:	b084      	sub	sp, #16
 8004a8c:	af00      	add	r7, sp, #0
 8004a8e:	6078      	str	r0, [r7, #4]
  uint32_t tickstart = 0U;
 8004a90:	2300      	movs	r3, #0
 8004a92:	60bb      	str	r3, [r7, #8]
  HAL_StatusTypeDef status = HAL_OK;
 8004a94:	2300      	movs	r3, #0
 8004a96:	73fb      	strb	r3, [r7, #15]

  /* Check that Initialization mode is not already set */
  if (READ_BIT(hrtc->Instance->ISR, RTC_ISR_INITF) == 0U)
 8004a98:	687b      	ldr	r3, [r7, #4]
 8004a9a:	681b      	ldr	r3, [r3, #0]
 8004a9c:	68db      	ldr	r3, [r3, #12]
 8004a9e:	f003 0340 	and.w	r3, r3, #64	; 0x40
 8004aa2:	2b00      	cmp	r3, #0
 8004aa4:	d122      	bne.n	8004aec <RTC_EnterInitMode+0x64>
  {
    /* Set INIT bit to enter Initialization mode */
    SET_BIT(hrtc->Instance->ISR, RTC_ISR_INIT);
 8004aa6:	687b      	ldr	r3, [r7, #4]
 8004aa8:	681b      	ldr	r3, [r3, #0]
 8004aaa:	68da      	ldr	r2, [r3, #12]
 8004aac:	687b      	ldr	r3, [r7, #4]
 8004aae:	681b      	ldr	r3, [r3, #0]
 8004ab0:	f042 0280 	orr.w	r2, r2, #128	; 0x80
 8004ab4:	60da      	str	r2, [r3, #12]

    /* Get tick */
    tickstart = HAL_GetTick();
 8004ab6:	f7fd fb55 	bl	8002164 <HAL_GetTick>
 8004aba:	60b8      	str	r0, [r7, #8]

    /* Wait till RTC is in INIT state and if timeout is reached exit */
    while ((READ_BIT(hrtc->Instance->ISR, RTC_ISR_INITF) == 0U) && (status != HAL_ERROR))
 8004abc:	e00c      	b.n	8004ad8 <RTC_EnterInitMode+0x50>
    {
      if ((HAL_GetTick() - tickstart) > RTC_TIMEOUT_VALUE)
 8004abe:	f7fd fb51 	bl	8002164 <HAL_GetTick>
 8004ac2:	4602      	mov	r2, r0
 8004ac4:	68bb      	ldr	r3, [r7, #8]
 8004ac6:	1ad3      	subs	r3, r2, r3
 8004ac8:	f5b3 7f7a 	cmp.w	r3, #1000	; 0x3e8
 8004acc:	d904      	bls.n	8004ad8 <RTC_EnterInitMode+0x50>
      {
        /* Set RTC state */
        hrtc->State = HAL_RTC_STATE_ERROR;
 8004ace:	687b      	ldr	r3, [r7, #4]
 8004ad0:	2204      	movs	r2, #4
 8004ad2:	775a      	strb	r2, [r3, #29]
        status = HAL_ERROR;
 8004ad4:	2301      	movs	r3, #1
 8004ad6:	73fb      	strb	r3, [r7, #15]
    while ((READ_BIT(hrtc->Instance->ISR, RTC_ISR_INITF) == 0U) && (status != HAL_ERROR))
 8004ad8:	687b      	ldr	r3, [r7, #4]
 8004ada:	681b      	ldr	r3, [r3, #0]
 8004adc:	68db      	ldr	r3, [r3, #12]
 8004ade:	f003 0340 	and.w	r3, r3, #64	; 0x40
 8004ae2:	2b00      	cmp	r3, #0
 8004ae4:	d102      	bne.n	8004aec <RTC_EnterInitMode+0x64>
 8004ae6:	7bfb      	ldrb	r3, [r7, #15]
 8004ae8:	2b01      	cmp	r3, #1
 8004aea:	d1e8      	bne.n	8004abe <RTC_EnterInitMode+0x36>
      }
    }
  }

  return status;
 8004aec:	7bfb      	ldrb	r3, [r7, #15]
}
 8004aee:	4618      	mov	r0, r3
 8004af0:	3710      	adds	r7, #16
 8004af2:	46bd      	mov	sp, r7
 8004af4:	bd80      	pop	{r7, pc}

08004af6 <RTC_ExitInitMode>:
  * @param  hrtc pointer to a RTC_HandleTypeDef structure that contains
  *                the configuration information for RTC.
  * @retval HAL status
  */
HAL_StatusTypeDef RTC_ExitInitMode(RTC_HandleTypeDef *hrtc)
{
 8004af6:	b580      	push	{r7, lr}
 8004af8:	b084      	sub	sp, #16
 8004afa:	af00      	add	r7, sp, #0
 8004afc:	6078      	str	r0, [r7, #4]
  HAL_StatusTypeDef status = HAL_OK;
 8004afe:	2300      	movs	r3, #0
 8004b00:	73fb      	strb	r3, [r7, #15]

  /* Clear INIT bit to exit Initialization mode */
  CLEAR_BIT(hrtc->Instance->ISR, RTC_ISR_INIT);
 8004b02:	687b      	ldr	r3, [r7, #4]
 8004b04:	681b      	ldr	r3, [r3, #0]
 8004b06:	68da      	ldr	r2, [r3, #12]
 8004b08:	687b      	ldr	r3, [r7, #4]
 8004b0a:	681b      	ldr	r3, [r3, #0]
 8004b0c:	f022 0280 	bic.w	r2, r2, #128	; 0x80
 8004b10:	60da      	str	r2, [r3, #12]

  /* If CR_BYPSHAD bit = 0, wait for synchro */
  if (READ_BIT(hrtc->Instance->CR, RTC_CR_BYPSHAD) == 0U)
 8004b12:	687b      	ldr	r3, [r7, #4]
 8004b14:	681b      	ldr	r3, [r3, #0]
 8004b16:	689b      	ldr	r3, [r3, #8]
 8004b18:	f003 0320 	and.w	r3, r3, #32
 8004b1c:	2b00      	cmp	r3, #0
 8004b1e:	d10a      	bne.n	8004b36 <RTC_ExitInitMode+0x40>
  {
    if (HAL_RTC_WaitForSynchro(hrtc) != HAL_OK)
 8004b20:	6878      	ldr	r0, [r7, #4]
 8004b22:	f7ff ff8b 	bl	8004a3c <HAL_RTC_WaitForSynchro>
 8004b26:	4603      	mov	r3, r0
 8004b28:	2b00      	cmp	r3, #0
 8004b2a:	d004      	beq.n	8004b36 <RTC_ExitInitMode+0x40>
    {
      /* Set RTC state */
      hrtc->State = HAL_RTC_STATE_ERROR;
 8004b2c:	687b      	ldr	r3, [r7, #4]
 8004b2e:	2204      	movs	r2, #4
 8004b30:	775a      	strb	r2, [r3, #29]
      status = HAL_ERROR;
 8004b32:	2301      	movs	r3, #1
 8004b34:	73fb      	strb	r3, [r7, #15]
    }
  }

  return status;
 8004b36:	7bfb      	ldrb	r3, [r7, #15]
}
 8004b38:	4618      	mov	r0, r3
 8004b3a:	3710      	adds	r7, #16
 8004b3c:	46bd      	mov	sp, r7
 8004b3e:	bd80      	pop	{r7, pc}

08004b40 <RTC_ByteToBcd2>:
  * @brief  Converts a 2-digit number from decimal to BCD format.
  * @param  number decimal-formatted number (from 0 to 99) to be converted
  * @retval Converted byte
  */
uint8_t RTC_ByteToBcd2(uint8_t number)
{
 8004b40:	b480      	push	{r7}
 8004b42:	b085      	sub	sp, #20
 8004b44:	af00      	add	r7, sp, #0
 8004b46:	4603      	mov	r3, r0
 8004b48:	71fb      	strb	r3, [r7, #7]
  uint32_t bcdhigh = 0U;
 8004b4a:	2300      	movs	r3, #0
 8004b4c:	60fb      	str	r3, [r7, #12]

  while (number >= 10U)
 8004b4e:	e005      	b.n	8004b5c <RTC_ByteToBcd2+0x1c>
  {
    bcdhigh++;
 8004b50:	68fb      	ldr	r3, [r7, #12]
 8004b52:	3301      	adds	r3, #1
 8004b54:	60fb      	str	r3, [r7, #12]
    number -= 10U;
 8004b56:	79fb      	ldrb	r3, [r7, #7]
 8004b58:	3b0a      	subs	r3, #10
 8004b5a:	71fb      	strb	r3, [r7, #7]
  while (number >= 10U)
 8004b5c:	79fb      	ldrb	r3, [r7, #7]
 8004b5e:	2b09      	cmp	r3, #9
 8004b60:	d8f6      	bhi.n	8004b50 <RTC_ByteToBcd2+0x10>
  }

  return ((uint8_t)(bcdhigh << 4U) | number);
 8004b62:	68fb      	ldr	r3, [r7, #12]
 8004b64:	b2db      	uxtb	r3, r3
 8004b66:	011b      	lsls	r3, r3, #4
 8004b68:	b2da      	uxtb	r2, r3
 8004b6a:	79fb      	ldrb	r3, [r7, #7]
 8004b6c:	4313      	orrs	r3, r2
 8004b6e:	b2db      	uxtb	r3, r3
}
 8004b70:	4618      	mov	r0, r3
 8004b72:	3714      	adds	r7, #20
 8004b74:	46bd      	mov	sp, r7
 8004b76:	f85d 7b04 	ldr.w	r7, [sp], #4
 8004b7a:	4770      	bx	lr

08004b7c <RTC_Bcd2ToByte>:
  * @brief  Converts a 2-digit number from BCD to decimal format.
  * @param  number BCD-formatted number (from 00 to 99) to be converted
  * @retval Converted word
  */
uint8_t RTC_Bcd2ToByte(uint8_t number)
{
 8004b7c:	b480      	push	{r7}
 8004b7e:	b085      	sub	sp, #20
 8004b80:	af00      	add	r7, sp, #0
 8004b82:	4603      	mov	r3, r0
 8004b84:	71fb      	strb	r3, [r7, #7]
  uint32_t tens = 0U;
 8004b86:	2300      	movs	r3, #0
 8004b88:	60fb      	str	r3, [r7, #12]
  tens = (((uint32_t)number & 0xF0U) >> 4U) * 10U;
 8004b8a:	79fb      	ldrb	r3, [r7, #7]
 8004b8c:	091b      	lsrs	r3, r3, #4
 8004b8e:	b2db      	uxtb	r3, r3
 8004b90:	461a      	mov	r2, r3
 8004b92:	4613      	mov	r3, r2
 8004b94:	009b      	lsls	r3, r3, #2
 8004b96:	4413      	add	r3, r2
 8004b98:	005b      	lsls	r3, r3, #1
 8004b9a:	60fb      	str	r3, [r7, #12]
  return (uint8_t)(tens + ((uint32_t)number & 0x0FU));
 8004b9c:	68fb      	ldr	r3, [r7, #12]
 8004b9e:	b2da      	uxtb	r2, r3
 8004ba0:	79fb      	ldrb	r3, [r7, #7]
 8004ba2:	f003 030f 	and.w	r3, r3, #15
 8004ba6:	b2db      	uxtb	r3, r3
 8004ba8:	4413      	add	r3, r2
 8004baa:	b2db      	uxtb	r3, r3
}
 8004bac:	4618      	mov	r0, r3
 8004bae:	3714      	adds	r7, #20
 8004bb0:	46bd      	mov	sp, r7
 8004bb2:	f85d 7b04 	ldr.w	r7, [sp], #4
 8004bb6:	4770      	bx	lr

08004bb8 <HAL_SPI_Init>:
  * @param  hspi pointer to a SPI_HandleTypeDef structure that contains
  *               the configuration information for SPI module.
  * @retval HAL status
  */
HAL_StatusTypeDef HAL_SPI_Init(SPI_HandleTypeDef *hspi)
{
 8004bb8:	b580      	push	{r7, lr}
 8004bba:	b082      	sub	sp, #8
 8004bbc:	af00      	add	r7, sp, #0
 8004bbe:	6078      	str	r0, [r7, #4]
  /* Check the SPI handle allocation */
  if (hspi == NULL)
 8004bc0:	687b      	ldr	r3, [r7, #4]
 8004bc2:	2b00      	cmp	r3, #0
 8004bc4:	d101      	bne.n	8004bca <HAL_SPI_Init+0x12>
  {
    return HAL_ERROR;
 8004bc6:	2301      	movs	r3, #1
 8004bc8:	e07b      	b.n	8004cc2 <HAL_SPI_Init+0x10a>
  assert_param(IS_SPI_DATASIZE(hspi->Init.DataSize));
  assert_param(IS_SPI_NSS(hspi->Init.NSS));
  assert_param(IS_SPI_BAUDRATE_PRESCALER(hspi->Init.BaudRatePrescaler));
  assert_param(IS_SPI_FIRST_BIT(hspi->Init.FirstBit));
  assert_param(IS_SPI_TIMODE(hspi->Init.TIMode));
  if (hspi->Init.TIMode == SPI_TIMODE_DISABLE)
 8004bca:	687b      	ldr	r3, [r7, #4]
 8004bcc:	6a5b      	ldr	r3, [r3, #36]	; 0x24
 8004bce:	2b00      	cmp	r3, #0
 8004bd0:	d108      	bne.n	8004be4 <HAL_SPI_Init+0x2c>
  {
    assert_param(IS_SPI_CPOL(hspi->Init.CLKPolarity));
    assert_param(IS_SPI_CPHA(hspi->Init.CLKPhase));

    if (hspi->Init.Mode == SPI_MODE_MASTER)
 8004bd2:	687b      	ldr	r3, [r7, #4]
 8004bd4:	685b      	ldr	r3, [r3, #4]
 8004bd6:	f5b3 7f82 	cmp.w	r3, #260	; 0x104
 8004bda:	d009      	beq.n	8004bf0 <HAL_SPI_Init+0x38>
      assert_param(IS_SPI_BAUDRATE_PRESCALER(hspi->Init.BaudRatePrescaler));
    }
    else
    {
      /* Baudrate prescaler not use in Motoraola Slave mode. force to default value */
      hspi->Init.BaudRatePrescaler = SPI_BAUDRATEPRESCALER_2;
 8004bdc:	687b      	ldr	r3, [r7, #4]
 8004bde:	2200      	movs	r2, #0
 8004be0:	61da      	str	r2, [r3, #28]
 8004be2:	e005      	b.n	8004bf0 <HAL_SPI_Init+0x38>
  else
  {
    assert_param(IS_SPI_BAUDRATE_PRESCALER(hspi->Init.BaudRatePrescaler));

    /* Force polarity and phase to TI protocaol requirements */
    hspi->Init.CLKPolarity = SPI_POLARITY_LOW;
 8004be4:	687b      	ldr	r3, [r7, #4]
 8004be6:	2200      	movs	r2, #0
 8004be8:	611a      	str	r2, [r3, #16]
    hspi->Init.CLKPhase    = SPI_PHASE_1EDGE;
 8004bea:	687b      	ldr	r3, [r7, #4]
 8004bec:	2200      	movs	r2, #0
 8004bee:	615a      	str	r2, [r3, #20]
  if (hspi->Init.CRCCalculation == SPI_CRCCALCULATION_ENABLE)
  {
    assert_param(IS_SPI_CRC_POLYNOMIAL(hspi->Init.CRCPolynomial));
  }
#else
  hspi->Init.CRCCalculation = SPI_CRCCALCULATION_DISABLE;
 8004bf0:	687b      	ldr	r3, [r7, #4]
 8004bf2:	2200      	movs	r2, #0
 8004bf4:	629a      	str	r2, [r3, #40]	; 0x28
#endif /* USE_SPI_CRC */

  if (hspi->State == HAL_SPI_STATE_RESET)
 8004bf6:	687b      	ldr	r3, [r7, #4]
 8004bf8:	f893 3051 	ldrb.w	r3, [r3, #81]	; 0x51
 8004bfc:	b2db      	uxtb	r3, r3
 8004bfe:	2b00      	cmp	r3, #0
 8004c00:	d106      	bne.n	8004c10 <HAL_SPI_Init+0x58>
  {
    /* Allocate lock resource and initialize it */
    hspi->Lock = HAL_UNLOCKED;
 8004c02:	687b      	ldr	r3, [r7, #4]
 8004c04:	2200      	movs	r2, #0
 8004c06:	f883 2050 	strb.w	r2, [r3, #80]	; 0x50

    /* Init the low level hardware : GPIO, CLOCK, NVIC... */
    hspi->MspInitCallback(hspi);
#else
    /* Init the low level hardware : GPIO, CLOCK, NVIC... */
    HAL_SPI_MspInit(hspi);
 8004c0a:	6878      	ldr	r0, [r7, #4]
 8004c0c:	f7fc fffe 	bl	8001c0c <HAL_SPI_MspInit>
#endif /* USE_HAL_SPI_REGISTER_CALLBACKS */
  }

  hspi->State = HAL_SPI_STATE_BUSY;
 8004c10:	687b      	ldr	r3, [r7, #4]
 8004c12:	2202      	movs	r2, #2
 8004c14:	f883 2051 	strb.w	r2, [r3, #81]	; 0x51

  /* Disable the selected SPI peripheral */
  __HAL_SPI_DISABLE(hspi);
 8004c18:	687b      	ldr	r3, [r7, #4]
 8004c1a:	681b      	ldr	r3, [r3, #0]
 8004c1c:	681a      	ldr	r2, [r3, #0]
 8004c1e:	687b      	ldr	r3, [r7, #4]
 8004c20:	681b      	ldr	r3, [r3, #0]
 8004c22:	f022 0240 	bic.w	r2, r2, #64	; 0x40
 8004c26:	601a      	str	r2, [r3, #0]

  /*----------------------- SPIx CR1 & CR2 Configuration ---------------------*/
  /* Configure : SPI Mode, Communication Mode, Data size, Clock polarity and phase, NSS management,
  Communication speed, First bit and CRC calculation state */
  WRITE_REG(hspi->Instance->CR1, ((hspi->Init.Mode & (SPI_CR1_MSTR | SPI_CR1_SSI)) |
 8004c28:	687b      	ldr	r3, [r7, #4]
 8004c2a:	685b      	ldr	r3, [r3, #4]
 8004c2c:	f403 7282 	and.w	r2, r3, #260	; 0x104
 8004c30:	687b      	ldr	r3, [r7, #4]
 8004c32:	689b      	ldr	r3, [r3, #8]
 8004c34:	f403 4304 	and.w	r3, r3, #33792	; 0x8400
 8004c38:	431a      	orrs	r2, r3
 8004c3a:	687b      	ldr	r3, [r7, #4]
 8004c3c:	68db      	ldr	r3, [r3, #12]
 8004c3e:	f403 6300 	and.w	r3, r3, #2048	; 0x800
 8004c42:	431a      	orrs	r2, r3
 8004c44:	687b      	ldr	r3, [r7, #4]
 8004c46:	691b      	ldr	r3, [r3, #16]
 8004c48:	f003 0302 	and.w	r3, r3, #2
 8004c4c:	431a      	orrs	r2, r3
 8004c4e:	687b      	ldr	r3, [r7, #4]
 8004c50:	695b      	ldr	r3, [r3, #20]
 8004c52:	f003 0301 	and.w	r3, r3, #1
 8004c56:	431a      	orrs	r2, r3
 8004c58:	687b      	ldr	r3, [r7, #4]
 8004c5a:	699b      	ldr	r3, [r3, #24]
 8004c5c:	f403 7300 	and.w	r3, r3, #512	; 0x200
 8004c60:	431a      	orrs	r2, r3
 8004c62:	687b      	ldr	r3, [r7, #4]
 8004c64:	69db      	ldr	r3, [r3, #28]
 8004c66:	f003 0338 	and.w	r3, r3, #56	; 0x38
 8004c6a:	431a      	orrs	r2, r3
 8004c6c:	687b      	ldr	r3, [r7, #4]
 8004c6e:	6a1b      	ldr	r3, [r3, #32]
 8004c70:	f003 0380 	and.w	r3, r3, #128	; 0x80
 8004c74:	ea42 0103 	orr.w	r1, r2, r3
 8004c78:	687b      	ldr	r3, [r7, #4]
 8004c7a:	6a9b      	ldr	r3, [r3, #40]	; 0x28
 8004c7c:	f403 5200 	and.w	r2, r3, #8192	; 0x2000
 8004c80:	687b      	ldr	r3, [r7, #4]
 8004c82:	681b      	ldr	r3, [r3, #0]
 8004c84:	430a      	orrs	r2, r1
 8004c86:	601a      	str	r2, [r3, #0]
                                  (hspi->Init.BaudRatePrescaler & SPI_CR1_BR_Msk) |
                                  (hspi->Init.FirstBit  & SPI_CR1_LSBFIRST) |
                                  (hspi->Init.CRCCalculation & SPI_CR1_CRCEN)));

  /* Configure : NSS management, TI Mode */
  WRITE_REG(hspi->Instance->CR2, (((hspi->Init.NSS >> 16U) & SPI_CR2_SSOE) | (hspi->Init.TIMode & SPI_CR2_FRF)));
 8004c88:	687b      	ldr	r3, [r7, #4]
 8004c8a:	699b      	ldr	r3, [r3, #24]
 8004c8c:	0c1b      	lsrs	r3, r3, #16
 8004c8e:	f003 0104 	and.w	r1, r3, #4
 8004c92:	687b      	ldr	r3, [r7, #4]
 8004c94:	6a5b      	ldr	r3, [r3, #36]	; 0x24
 8004c96:	f003 0210 	and.w	r2, r3, #16
 8004c9a:	687b      	ldr	r3, [r7, #4]
 8004c9c:	681b      	ldr	r3, [r3, #0]
 8004c9e:	430a      	orrs	r2, r1
 8004ca0:	605a      	str	r2, [r3, #4]
  }
#endif /* USE_SPI_CRC */

#if defined(SPI_I2SCFGR_I2SMOD)
  /* Activate the SPI mode (Make sure that I2SMOD bit in I2SCFGR register is reset) */
  CLEAR_BIT(hspi->Instance->I2SCFGR, SPI_I2SCFGR_I2SMOD);
 8004ca2:	687b      	ldr	r3, [r7, #4]
 8004ca4:	681b      	ldr	r3, [r3, #0]
 8004ca6:	69da      	ldr	r2, [r3, #28]
 8004ca8:	687b      	ldr	r3, [r7, #4]
 8004caa:	681b      	ldr	r3, [r3, #0]
 8004cac:	f422 6200 	bic.w	r2, r2, #2048	; 0x800
 8004cb0:	61da      	str	r2, [r3, #28]
#endif /* SPI_I2SCFGR_I2SMOD */

  hspi->ErrorCode = HAL_SPI_ERROR_NONE;
 8004cb2:	687b      	ldr	r3, [r7, #4]
 8004cb4:	2200      	movs	r2, #0
 8004cb6:	655a      	str	r2, [r3, #84]	; 0x54
  hspi->State     = HAL_SPI_STATE_READY;
 8004cb8:	687b      	ldr	r3, [r7, #4]
 8004cba:	2201      	movs	r2, #1
 8004cbc:	f883 2051 	strb.w	r2, [r3, #81]	; 0x51

  return HAL_OK;
 8004cc0:	2300      	movs	r3, #0
}
 8004cc2:	4618      	mov	r0, r3
 8004cc4:	3708      	adds	r7, #8
 8004cc6:	46bd      	mov	sp, r7
 8004cc8:	bd80      	pop	{r7, pc}

08004cca <HAL_SPI_Transmit>:
  * @param  Size amount of data to be sent
  * @param  Timeout Timeout duration
  * @retval HAL status
  */
HAL_StatusTypeDef HAL_SPI_Transmit(SPI_HandleTypeDef *hspi, uint8_t *pData, uint16_t Size, uint32_t Timeout)
{
 8004cca:	b580      	push	{r7, lr}
 8004ccc:	b088      	sub	sp, #32
 8004cce:	af00      	add	r7, sp, #0
 8004cd0:	60f8      	str	r0, [r7, #12]
 8004cd2:	60b9      	str	r1, [r7, #8]
 8004cd4:	603b      	str	r3, [r7, #0]
 8004cd6:	4613      	mov	r3, r2
 8004cd8:	80fb      	strh	r3, [r7, #6]
  uint32_t tickstart;
  HAL_StatusTypeDef errorcode = HAL_OK;
 8004cda:	2300      	movs	r3, #0
 8004cdc:	77fb      	strb	r3, [r7, #31]

  /* Check Direction parameter */
  assert_param(IS_SPI_DIRECTION_2LINES_OR_1LINE(hspi->Init.Direction));

  /* Process Locked */
  __HAL_LOCK(hspi);
 8004cde:	68fb      	ldr	r3, [r7, #12]
 8004ce0:	f893 3050 	ldrb.w	r3, [r3, #80]	; 0x50
 8004ce4:	2b01      	cmp	r3, #1
 8004ce6:	d101      	bne.n	8004cec <HAL_SPI_Transmit+0x22>
 8004ce8:	2302      	movs	r3, #2
 8004cea:	e12d      	b.n	8004f48 <HAL_SPI_Transmit+0x27e>
 8004cec:	68fb      	ldr	r3, [r7, #12]
 8004cee:	2201      	movs	r2, #1
 8004cf0:	f883 2050 	strb.w	r2, [r3, #80]	; 0x50

  /* Init tickstart for timeout management*/
  tickstart = HAL_GetTick();
 8004cf4:	f7fd fa36 	bl	8002164 <HAL_GetTick>
 8004cf8:	61b8      	str	r0, [r7, #24]
  initial_TxXferCount = Size;
 8004cfa:	88fb      	ldrh	r3, [r7, #6]
 8004cfc:	82fb      	strh	r3, [r7, #22]

  if (hspi->State != HAL_SPI_STATE_READY)
 8004cfe:	68fb      	ldr	r3, [r7, #12]
 8004d00:	f893 3051 	ldrb.w	r3, [r3, #81]	; 0x51
 8004d04:	b2db      	uxtb	r3, r3
 8004d06:	2b01      	cmp	r3, #1
 8004d08:	d002      	beq.n	8004d10 <HAL_SPI_Transmit+0x46>
  {
    errorcode = HAL_BUSY;
 8004d0a:	2302      	movs	r3, #2
 8004d0c:	77fb      	strb	r3, [r7, #31]
    goto error;
 8004d0e:	e116      	b.n	8004f3e <HAL_SPI_Transmit+0x274>
  }

  if ((pData == NULL) || (Size == 0U))
 8004d10:	68bb      	ldr	r3, [r7, #8]
 8004d12:	2b00      	cmp	r3, #0
 8004d14:	d002      	beq.n	8004d1c <HAL_SPI_Transmit+0x52>
 8004d16:	88fb      	ldrh	r3, [r7, #6]
 8004d18:	2b00      	cmp	r3, #0
 8004d1a:	d102      	bne.n	8004d22 <HAL_SPI_Transmit+0x58>
  {
    errorcode = HAL_ERROR;
 8004d1c:	2301      	movs	r3, #1
 8004d1e:	77fb      	strb	r3, [r7, #31]
    goto error;
 8004d20:	e10d      	b.n	8004f3e <HAL_SPI_Transmit+0x274>
  }

  /* Set the transaction information */
  hspi->State       = HAL_SPI_STATE_BUSY_TX;
 8004d22:	68fb      	ldr	r3, [r7, #12]
 8004d24:	2203      	movs	r2, #3
 8004d26:	f883 2051 	strb.w	r2, [r3, #81]	; 0x51
  hspi->ErrorCode   = HAL_SPI_ERROR_NONE;
 8004d2a:	68fb      	ldr	r3, [r7, #12]
 8004d2c:	2200      	movs	r2, #0
 8004d2e:	655a      	str	r2, [r3, #84]	; 0x54
  hspi->pTxBuffPtr  = (uint8_t *)pData;
 8004d30:	68fb      	ldr	r3, [r7, #12]
 8004d32:	68ba      	ldr	r2, [r7, #8]
 8004d34:	631a      	str	r2, [r3, #48]	; 0x30
  hspi->TxXferSize  = Size;
 8004d36:	68fb      	ldr	r3, [r7, #12]
 8004d38:	88fa      	ldrh	r2, [r7, #6]
 8004d3a:	869a      	strh	r2, [r3, #52]	; 0x34
  hspi->TxXferCount = Size;
 8004d3c:	68fb      	ldr	r3, [r7, #12]
 8004d3e:	88fa      	ldrh	r2, [r7, #6]
 8004d40:	86da      	strh	r2, [r3, #54]	; 0x36

  /*Init field not used in handle to zero */
  hspi->pRxBuffPtr  = (uint8_t *)NULL;
 8004d42:	68fb      	ldr	r3, [r7, #12]
 8004d44:	2200      	movs	r2, #0
 8004d46:	639a      	str	r2, [r3, #56]	; 0x38
  hspi->RxXferSize  = 0U;
 8004d48:	68fb      	ldr	r3, [r7, #12]
 8004d4a:	2200      	movs	r2, #0
 8004d4c:	879a      	strh	r2, [r3, #60]	; 0x3c
  hspi->RxXferCount = 0U;
 8004d4e:	68fb      	ldr	r3, [r7, #12]
 8004d50:	2200      	movs	r2, #0
 8004d52:	87da      	strh	r2, [r3, #62]	; 0x3e
  hspi->TxISR       = NULL;
 8004d54:	68fb      	ldr	r3, [r7, #12]
 8004d56:	2200      	movs	r2, #0
 8004d58:	645a      	str	r2, [r3, #68]	; 0x44
  hspi->RxISR       = NULL;
 8004d5a:	68fb      	ldr	r3, [r7, #12]
 8004d5c:	2200      	movs	r2, #0
 8004d5e:	641a      	str	r2, [r3, #64]	; 0x40

  /* Configure communication direction : 1Line */
  if (hspi->Init.Direction == SPI_DIRECTION_1LINE)
 8004d60:	68fb      	ldr	r3, [r7, #12]
 8004d62:	689b      	ldr	r3, [r3, #8]
 8004d64:	f5b3 4f00 	cmp.w	r3, #32768	; 0x8000
 8004d68:	d10f      	bne.n	8004d8a <HAL_SPI_Transmit+0xc0>
  {
    /* Disable SPI Peripheral before set 1Line direction (BIDIOE bit) */
    __HAL_SPI_DISABLE(hspi);
 8004d6a:	68fb      	ldr	r3, [r7, #12]
 8004d6c:	681b      	ldr	r3, [r3, #0]
 8004d6e:	681a      	ldr	r2, [r3, #0]
 8004d70:	68fb      	ldr	r3, [r7, #12]
 8004d72:	681b      	ldr	r3, [r3, #0]
 8004d74:	f022 0240 	bic.w	r2, r2, #64	; 0x40
 8004d78:	601a      	str	r2, [r3, #0]
    SPI_1LINE_TX(hspi);
 8004d7a:	68fb      	ldr	r3, [r7, #12]
 8004d7c:	681b      	ldr	r3, [r3, #0]
 8004d7e:	681a      	ldr	r2, [r3, #0]
 8004d80:	68fb      	ldr	r3, [r7, #12]
 8004d82:	681b      	ldr	r3, [r3, #0]
 8004d84:	f442 4280 	orr.w	r2, r2, #16384	; 0x4000
 8004d88:	601a      	str	r2, [r3, #0]
    SPI_RESET_CRC(hspi);
  }
#endif /* USE_SPI_CRC */

  /* Check if the SPI is already enabled */
  if ((hspi->Instance->CR1 & SPI_CR1_SPE) != SPI_CR1_SPE)
 8004d8a:	68fb      	ldr	r3, [r7, #12]
 8004d8c:	681b      	ldr	r3, [r3, #0]
 8004d8e:	681b      	ldr	r3, [r3, #0]
 8004d90:	f003 0340 	and.w	r3, r3, #64	; 0x40
 8004d94:	2b40      	cmp	r3, #64	; 0x40
 8004d96:	d007      	beq.n	8004da8 <HAL_SPI_Transmit+0xde>
  {
    /* Enable SPI peripheral */
    __HAL_SPI_ENABLE(hspi);
 8004d98:	68fb      	ldr	r3, [r7, #12]
 8004d9a:	681b      	ldr	r3, [r3, #0]
 8004d9c:	681a      	ldr	r2, [r3, #0]
 8004d9e:	68fb      	ldr	r3, [r7, #12]
 8004da0:	681b      	ldr	r3, [r3, #0]
 8004da2:	f042 0240 	orr.w	r2, r2, #64	; 0x40
 8004da6:	601a      	str	r2, [r3, #0]
  }

  /* Transmit data in 16 Bit mode */
  if (hspi->Init.DataSize == SPI_DATASIZE_16BIT)
 8004da8:	68fb      	ldr	r3, [r7, #12]
 8004daa:	68db      	ldr	r3, [r3, #12]
 8004dac:	f5b3 6f00 	cmp.w	r3, #2048	; 0x800
 8004db0:	d14f      	bne.n	8004e52 <HAL_SPI_Transmit+0x188>
  {
    if ((hspi->Init.Mode == SPI_MODE_SLAVE) || (initial_TxXferCount == 0x01U))
 8004db2:	68fb      	ldr	r3, [r7, #12]
 8004db4:	685b      	ldr	r3, [r3, #4]
 8004db6:	2b00      	cmp	r3, #0
 8004db8:	d002      	beq.n	8004dc0 <HAL_SPI_Transmit+0xf6>
 8004dba:	8afb      	ldrh	r3, [r7, #22]
 8004dbc:	2b01      	cmp	r3, #1
 8004dbe:	d142      	bne.n	8004e46 <HAL_SPI_Transmit+0x17c>
    {
      hspi->Instance->DR = *((uint16_t *)hspi->pTxBuffPtr);
 8004dc0:	68fb      	ldr	r3, [r7, #12]
 8004dc2:	6b1b      	ldr	r3, [r3, #48]	; 0x30
 8004dc4:	881a      	ldrh	r2, [r3, #0]
 8004dc6:	68fb      	ldr	r3, [r7, #12]
 8004dc8:	681b      	ldr	r3, [r3, #0]
 8004dca:	60da      	str	r2, [r3, #12]
      hspi->pTxBuffPtr += sizeof(uint16_t);
 8004dcc:	68fb      	ldr	r3, [r7, #12]
 8004dce:	6b1b      	ldr	r3, [r3, #48]	; 0x30
 8004dd0:	1c9a      	adds	r2, r3, #2
 8004dd2:	68fb      	ldr	r3, [r7, #12]
 8004dd4:	631a      	str	r2, [r3, #48]	; 0x30
      hspi->TxXferCount--;
 8004dd6:	68fb      	ldr	r3, [r7, #12]
 8004dd8:	8edb      	ldrh	r3, [r3, #54]	; 0x36
 8004dda:	b29b      	uxth	r3, r3
 8004ddc:	3b01      	subs	r3, #1
 8004dde:	b29a      	uxth	r2, r3
 8004de0:	68fb      	ldr	r3, [r7, #12]
 8004de2:	86da      	strh	r2, [r3, #54]	; 0x36
    }
    /* Transmit data in 16 Bit mode */
    while (hspi->TxXferCount > 0U)
 8004de4:	e02f      	b.n	8004e46 <HAL_SPI_Transmit+0x17c>
    {
      /* Wait until TXE flag is set to send data */
      if (__HAL_SPI_GET_FLAG(hspi, SPI_FLAG_TXE))
 8004de6:	68fb      	ldr	r3, [r7, #12]
 8004de8:	681b      	ldr	r3, [r3, #0]
 8004dea:	689b      	ldr	r3, [r3, #8]
 8004dec:	f003 0302 	and.w	r3, r3, #2
 8004df0:	2b02      	cmp	r3, #2
 8004df2:	d112      	bne.n	8004e1a <HAL_SPI_Transmit+0x150>
      {
        hspi->Instance->DR = *((uint16_t *)hspi->pTxBuffPtr);
 8004df4:	68fb      	ldr	r3, [r7, #12]
 8004df6:	6b1b      	ldr	r3, [r3, #48]	; 0x30
 8004df8:	881a      	ldrh	r2, [r3, #0]
 8004dfa:	68fb      	ldr	r3, [r7, #12]
 8004dfc:	681b      	ldr	r3, [r3, #0]
 8004dfe:	60da      	str	r2, [r3, #12]
        hspi->pTxBuffPtr += sizeof(uint16_t);
 8004e00:	68fb      	ldr	r3, [r7, #12]
 8004e02:	6b1b      	ldr	r3, [r3, #48]	; 0x30
 8004e04:	1c9a      	adds	r2, r3, #2
 8004e06:	68fb      	ldr	r3, [r7, #12]
 8004e08:	631a      	str	r2, [r3, #48]	; 0x30
        hspi->TxXferCount--;
 8004e0a:	68fb      	ldr	r3, [r7, #12]
 8004e0c:	8edb      	ldrh	r3, [r3, #54]	; 0x36
 8004e0e:	b29b      	uxth	r3, r3
 8004e10:	3b01      	subs	r3, #1
 8004e12:	b29a      	uxth	r2, r3
 8004e14:	68fb      	ldr	r3, [r7, #12]
 8004e16:	86da      	strh	r2, [r3, #54]	; 0x36
 8004e18:	e015      	b.n	8004e46 <HAL_SPI_Transmit+0x17c>
      }
      else
      {
        /* Timeout management */
        if ((((HAL_GetTick() - tickstart) >=  Timeout) && (Timeout != HAL_MAX_DELAY)) || (Timeout == 0U))
 8004e1a:	f7fd f9a3 	bl	8002164 <HAL_GetTick>
 8004e1e:	4602      	mov	r2, r0
 8004e20:	69bb      	ldr	r3, [r7, #24]
 8004e22:	1ad3      	subs	r3, r2, r3
 8004e24:	683a      	ldr	r2, [r7, #0]
 8004e26:	429a      	cmp	r2, r3
 8004e28:	d803      	bhi.n	8004e32 <HAL_SPI_Transmit+0x168>
 8004e2a:	683b      	ldr	r3, [r7, #0]
 8004e2c:	f1b3 3fff 	cmp.w	r3, #4294967295	; 0xffffffff
 8004e30:	d102      	bne.n	8004e38 <HAL_SPI_Transmit+0x16e>
 8004e32:	683b      	ldr	r3, [r7, #0]
 8004e34:	2b00      	cmp	r3, #0
 8004e36:	d106      	bne.n	8004e46 <HAL_SPI_Transmit+0x17c>
        {
          errorcode = HAL_TIMEOUT;
 8004e38:	2303      	movs	r3, #3
 8004e3a:	77fb      	strb	r3, [r7, #31]
          hspi->State = HAL_SPI_STATE_READY;
 8004e3c:	68fb      	ldr	r3, [r7, #12]
 8004e3e:	2201      	movs	r2, #1
 8004e40:	f883 2051 	strb.w	r2, [r3, #81]	; 0x51
          goto error;
 8004e44:	e07b      	b.n	8004f3e <HAL_SPI_Transmit+0x274>
    while (hspi->TxXferCount > 0U)
 8004e46:	68fb      	ldr	r3, [r7, #12]
 8004e48:	8edb      	ldrh	r3, [r3, #54]	; 0x36
 8004e4a:	b29b      	uxth	r3, r3
 8004e4c:	2b00      	cmp	r3, #0
 8004e4e:	d1ca      	bne.n	8004de6 <HAL_SPI_Transmit+0x11c>
 8004e50:	e050      	b.n	8004ef4 <HAL_SPI_Transmit+0x22a>
    }
  }
  /* Transmit data in 8 Bit mode */
  else
  {
    if ((hspi->Init.Mode == SPI_MODE_SLAVE) || (initial_TxXferCount == 0x01U))
 8004e52:	68fb      	ldr	r3, [r7, #12]
 8004e54:	685b      	ldr	r3, [r3, #4]
 8004e56:	2b00      	cmp	r3, #0
 8004e58:	d002      	beq.n	8004e60 <HAL_SPI_Transmit+0x196>
 8004e5a:	8afb      	ldrh	r3, [r7, #22]
 8004e5c:	2b01      	cmp	r3, #1
 8004e5e:	d144      	bne.n	8004eea <HAL_SPI_Transmit+0x220>
    {
      *((__IO uint8_t *)&hspi->Instance->DR) = (*hspi->pTxBuffPtr);
 8004e60:	68fb      	ldr	r3, [r7, #12]
 8004e62:	6b1a      	ldr	r2, [r3, #48]	; 0x30
 8004e64:	68fb      	ldr	r3, [r7, #12]
 8004e66:	681b      	ldr	r3, [r3, #0]
 8004e68:	330c      	adds	r3, #12
 8004e6a:	7812      	ldrb	r2, [r2, #0]
 8004e6c:	701a      	strb	r2, [r3, #0]
      hspi->pTxBuffPtr += sizeof(uint8_t);
 8004e6e:	68fb      	ldr	r3, [r7, #12]
 8004e70:	6b1b      	ldr	r3, [r3, #48]	; 0x30
 8004e72:	1c5a      	adds	r2, r3, #1
 8004e74:	68fb      	ldr	r3, [r7, #12]
 8004e76:	631a      	str	r2, [r3, #48]	; 0x30
      hspi->TxXferCount--;
 8004e78:	68fb      	ldr	r3, [r7, #12]
 8004e7a:	8edb      	ldrh	r3, [r3, #54]	; 0x36
 8004e7c:	b29b      	uxth	r3, r3
 8004e7e:	3b01      	subs	r3, #1
 8004e80:	b29a      	uxth	r2, r3
 8004e82:	68fb      	ldr	r3, [r7, #12]
 8004e84:	86da      	strh	r2, [r3, #54]	; 0x36
    }
    while (hspi->TxXferCount > 0U)
 8004e86:	e030      	b.n	8004eea <HAL_SPI_Transmit+0x220>
    {
      /* Wait until TXE flag is set to send data */
      if (__HAL_SPI_GET_FLAG(hspi, SPI_FLAG_TXE))
 8004e88:	68fb      	ldr	r3, [r7, #12]
 8004e8a:	681b      	ldr	r3, [r3, #0]
 8004e8c:	689b      	ldr	r3, [r3, #8]
 8004e8e:	f003 0302 	and.w	r3, r3, #2
 8004e92:	2b02      	cmp	r3, #2
 8004e94:	d113      	bne.n	8004ebe <HAL_SPI_Transmit+0x1f4>
      {
        *((__IO uint8_t *)&hspi->Instance->DR) = (*hspi->pTxBuffPtr);
 8004e96:	68fb      	ldr	r3, [r7, #12]
 8004e98:	6b1a      	ldr	r2, [r3, #48]	; 0x30
 8004e9a:	68fb      	ldr	r3, [r7, #12]
 8004e9c:	681b      	ldr	r3, [r3, #0]
 8004e9e:	330c      	adds	r3, #12
 8004ea0:	7812      	ldrb	r2, [r2, #0]
 8004ea2:	701a      	strb	r2, [r3, #0]
        hspi->pTxBuffPtr += sizeof(uint8_t);
 8004ea4:	68fb      	ldr	r3, [r7, #12]
 8004ea6:	6b1b      	ldr	r3, [r3, #48]	; 0x30
 8004ea8:	1c5a      	adds	r2, r3, #1
 8004eaa:	68fb      	ldr	r3, [r7, #12]
 8004eac:	631a      	str	r2, [r3, #48]	; 0x30
        hspi->TxXferCount--;
 8004eae:	68fb      	ldr	r3, [r7, #12]
 8004eb0:	8edb      	ldrh	r3, [r3, #54]	; 0x36
 8004eb2:	b29b      	uxth	r3, r3
 8004eb4:	3b01      	subs	r3, #1
 8004eb6:	b29a      	uxth	r2, r3
 8004eb8:	68fb      	ldr	r3, [r7, #12]
 8004eba:	86da      	strh	r2, [r3, #54]	; 0x36
 8004ebc:	e015      	b.n	8004eea <HAL_SPI_Transmit+0x220>
      }
      else
      {
        /* Timeout management */
        if ((((HAL_GetTick() - tickstart) >=  Timeout) && (Timeout != HAL_MAX_DELAY)) || (Timeout == 0U))
 8004ebe:	f7fd f951 	bl	8002164 <HAL_GetTick>
 8004ec2:	4602      	mov	r2, r0
 8004ec4:	69bb      	ldr	r3, [r7, #24]
 8004ec6:	1ad3      	subs	r3, r2, r3
 8004ec8:	683a      	ldr	r2, [r7, #0]
 8004eca:	429a      	cmp	r2, r3
 8004ecc:	d803      	bhi.n	8004ed6 <HAL_SPI_Transmit+0x20c>
 8004ece:	683b      	ldr	r3, [r7, #0]
 8004ed0:	f1b3 3fff 	cmp.w	r3, #4294967295	; 0xffffffff
 8004ed4:	d102      	bne.n	8004edc <HAL_SPI_Transmit+0x212>
 8004ed6:	683b      	ldr	r3, [r7, #0]
 8004ed8:	2b00      	cmp	r3, #0
 8004eda:	d106      	bne.n	8004eea <HAL_SPI_Transmit+0x220>
        {
          errorcode = HAL_TIMEOUT;
 8004edc:	2303      	movs	r3, #3
 8004ede:	77fb      	strb	r3, [r7, #31]
          hspi->State = HAL_SPI_STATE_READY;
 8004ee0:	68fb      	ldr	r3, [r7, #12]
 8004ee2:	2201      	movs	r2, #1
 8004ee4:	f883 2051 	strb.w	r2, [r3, #81]	; 0x51
          goto error;
 8004ee8:	e029      	b.n	8004f3e <HAL_SPI_Transmit+0x274>
    while (hspi->TxXferCount > 0U)
 8004eea:	68fb      	ldr	r3, [r7, #12]
 8004eec:	8edb      	ldrh	r3, [r3, #54]	; 0x36
 8004eee:	b29b      	uxth	r3, r3
 8004ef0:	2b00      	cmp	r3, #0
 8004ef2:	d1c9      	bne.n	8004e88 <HAL_SPI_Transmit+0x1be>
    SET_BIT(hspi->Instance->CR1, SPI_CR1_CRCNEXT);
  }
#endif /* USE_SPI_CRC */

  /* Check the end of the transaction */
  if (SPI_EndRxTxTransaction(hspi, Timeout, tickstart) != HAL_OK)
 8004ef4:	69ba      	ldr	r2, [r7, #24]
 8004ef6:	6839      	ldr	r1, [r7, #0]
 8004ef8:	68f8      	ldr	r0, [r7, #12]
 8004efa:	f000 fbdf 	bl	80056bc <SPI_EndRxTxTransaction>
 8004efe:	4603      	mov	r3, r0
 8004f00:	2b00      	cmp	r3, #0
 8004f02:	d002      	beq.n	8004f0a <HAL_SPI_Transmit+0x240>
  {
    hspi->ErrorCode = HAL_SPI_ERROR_FLAG;
 8004f04:	68fb      	ldr	r3, [r7, #12]
 8004f06:	2220      	movs	r2, #32
 8004f08:	655a      	str	r2, [r3, #84]	; 0x54
  }

  /* Clear overrun flag in 2 Lines communication mode because received is not read */
  if (hspi->Init.Direction == SPI_DIRECTION_2LINES)
 8004f0a:	68fb      	ldr	r3, [r7, #12]
 8004f0c:	689b      	ldr	r3, [r3, #8]
 8004f0e:	2b00      	cmp	r3, #0
 8004f10:	d10a      	bne.n	8004f28 <HAL_SPI_Transmit+0x25e>
  {
    __HAL_SPI_CLEAR_OVRFLAG(hspi);
 8004f12:	2300      	movs	r3, #0
 8004f14:	613b      	str	r3, [r7, #16]
 8004f16:	68fb      	ldr	r3, [r7, #12]
 8004f18:	681b      	ldr	r3, [r3, #0]
 8004f1a:	68db      	ldr	r3, [r3, #12]
 8004f1c:	613b      	str	r3, [r7, #16]
 8004f1e:	68fb      	ldr	r3, [r7, #12]
 8004f20:	681b      	ldr	r3, [r3, #0]
 8004f22:	689b      	ldr	r3, [r3, #8]
 8004f24:	613b      	str	r3, [r7, #16]
 8004f26:	693b      	ldr	r3, [r7, #16]
  }

  if (hspi->ErrorCode != HAL_SPI_ERROR_NONE)
 8004f28:	68fb      	ldr	r3, [r7, #12]
 8004f2a:	6d5b      	ldr	r3, [r3, #84]	; 0x54
 8004f2c:	2b00      	cmp	r3, #0
 8004f2e:	d002      	beq.n	8004f36 <HAL_SPI_Transmit+0x26c>
  {
    errorcode = HAL_ERROR;
 8004f30:	2301      	movs	r3, #1
 8004f32:	77fb      	strb	r3, [r7, #31]
 8004f34:	e003      	b.n	8004f3e <HAL_SPI_Transmit+0x274>
  }
  else
  {
    hspi->State = HAL_SPI_STATE_READY;
 8004f36:	68fb      	ldr	r3, [r7, #12]
 8004f38:	2201      	movs	r2, #1
 8004f3a:	f883 2051 	strb.w	r2, [r3, #81]	; 0x51
  }

error:
  /* Process Unlocked */
  __HAL_UNLOCK(hspi);
 8004f3e:	68fb      	ldr	r3, [r7, #12]
 8004f40:	2200      	movs	r2, #0
 8004f42:	f883 2050 	strb.w	r2, [r3, #80]	; 0x50
  return errorcode;
 8004f46:	7ffb      	ldrb	r3, [r7, #31]
}
 8004f48:	4618      	mov	r0, r3
 8004f4a:	3720      	adds	r7, #32
 8004f4c:	46bd      	mov	sp, r7
 8004f4e:	bd80      	pop	{r7, pc}

08004f50 <HAL_SPI_Receive>:
  * @param  Size amount of data to be received
  * @param  Timeout Timeout duration
  * @retval HAL status
  */
HAL_StatusTypeDef HAL_SPI_Receive(SPI_HandleTypeDef *hspi, uint8_t *pData, uint16_t Size, uint32_t Timeout)
{
 8004f50:	b580      	push	{r7, lr}
 8004f52:	b088      	sub	sp, #32
 8004f54:	af02      	add	r7, sp, #8
 8004f56:	60f8      	str	r0, [r7, #12]
 8004f58:	60b9      	str	r1, [r7, #8]
 8004f5a:	603b      	str	r3, [r7, #0]
 8004f5c:	4613      	mov	r3, r2
 8004f5e:	80fb      	strh	r3, [r7, #6]
#if (USE_SPI_CRC != 0U)
  __IO uint32_t tmpreg = 0U;
#endif /* USE_SPI_CRC */
  uint32_t tickstart;
  HAL_StatusTypeDef errorcode = HAL_OK;
 8004f60:	2300      	movs	r3, #0
 8004f62:	75fb      	strb	r3, [r7, #23]

  if (hspi->State != HAL_SPI_STATE_READY)
 8004f64:	68fb      	ldr	r3, [r7, #12]
 8004f66:	f893 3051 	ldrb.w	r3, [r3, #81]	; 0x51
 8004f6a:	b2db      	uxtb	r3, r3
 8004f6c:	2b01      	cmp	r3, #1
 8004f6e:	d002      	beq.n	8004f76 <HAL_SPI_Receive+0x26>
  {
    errorcode = HAL_BUSY;
 8004f70:	2302      	movs	r3, #2
 8004f72:	75fb      	strb	r3, [r7, #23]
    goto error;
 8004f74:	e0fb      	b.n	800516e <HAL_SPI_Receive+0x21e>
  }

  if ((hspi->Init.Mode == SPI_MODE_MASTER) && (hspi->Init.Direction == SPI_DIRECTION_2LINES))
 8004f76:	68fb      	ldr	r3, [r7, #12]
 8004f78:	685b      	ldr	r3, [r3, #4]
 8004f7a:	f5b3 7f82 	cmp.w	r3, #260	; 0x104
 8004f7e:	d112      	bne.n	8004fa6 <HAL_SPI_Receive+0x56>
 8004f80:	68fb      	ldr	r3, [r7, #12]
 8004f82:	689b      	ldr	r3, [r3, #8]
 8004f84:	2b00      	cmp	r3, #0
 8004f86:	d10e      	bne.n	8004fa6 <HAL_SPI_Receive+0x56>
  {
    hspi->State = HAL_SPI_STATE_BUSY_RX;
 8004f88:	68fb      	ldr	r3, [r7, #12]
 8004f8a:	2204      	movs	r2, #4
 8004f8c:	f883 2051 	strb.w	r2, [r3, #81]	; 0x51
    /* Call transmit-receive function to send Dummy data on Tx line and generate clock on CLK line */
    return HAL_SPI_TransmitReceive(hspi, pData, pData, Size, Timeout);
 8004f90:	88fa      	ldrh	r2, [r7, #6]
 8004f92:	683b      	ldr	r3, [r7, #0]
 8004f94:	9300      	str	r3, [sp, #0]
 8004f96:	4613      	mov	r3, r2
 8004f98:	68ba      	ldr	r2, [r7, #8]
 8004f9a:	68b9      	ldr	r1, [r7, #8]
 8004f9c:	68f8      	ldr	r0, [r7, #12]
 8004f9e:	f000 f8ef 	bl	8005180 <HAL_SPI_TransmitReceive>
 8004fa2:	4603      	mov	r3, r0
 8004fa4:	e0e8      	b.n	8005178 <HAL_SPI_Receive+0x228>
  }

  /* Process Locked */
  __HAL_LOCK(hspi);
 8004fa6:	68fb      	ldr	r3, [r7, #12]
 8004fa8:	f893 3050 	ldrb.w	r3, [r3, #80]	; 0x50
 8004fac:	2b01      	cmp	r3, #1
 8004fae:	d101      	bne.n	8004fb4 <HAL_SPI_Receive+0x64>
 8004fb0:	2302      	movs	r3, #2
 8004fb2:	e0e1      	b.n	8005178 <HAL_SPI_Receive+0x228>
 8004fb4:	68fb      	ldr	r3, [r7, #12]
 8004fb6:	2201      	movs	r2, #1
 8004fb8:	f883 2050 	strb.w	r2, [r3, #80]	; 0x50

  /* Init tickstart for timeout management*/
  tickstart = HAL_GetTick();
 8004fbc:	f7fd f8d2 	bl	8002164 <HAL_GetTick>
 8004fc0:	6138      	str	r0, [r7, #16]

  if ((pData == NULL) || (Size == 0U))
 8004fc2:	68bb      	ldr	r3, [r7, #8]
 8004fc4:	2b00      	cmp	r3, #0
 8004fc6:	d002      	beq.n	8004fce <HAL_SPI_Receive+0x7e>
 8004fc8:	88fb      	ldrh	r3, [r7, #6]
 8004fca:	2b00      	cmp	r3, #0
 8004fcc:	d102      	bne.n	8004fd4 <HAL_SPI_Receive+0x84>
  {
    errorcode = HAL_ERROR;
 8004fce:	2301      	movs	r3, #1
 8004fd0:	75fb      	strb	r3, [r7, #23]
    goto error;
 8004fd2:	e0cc      	b.n	800516e <HAL_SPI_Receive+0x21e>
  }

  /* Set the transaction information */
  hspi->State       = HAL_SPI_STATE_BUSY_RX;
 8004fd4:	68fb      	ldr	r3, [r7, #12]
 8004fd6:	2204      	movs	r2, #4
 8004fd8:	f883 2051 	strb.w	r2, [r3, #81]	; 0x51
  hspi->ErrorCode   = HAL_SPI_ERROR_NONE;
 8004fdc:	68fb      	ldr	r3, [r7, #12]
 8004fde:	2200      	movs	r2, #0
 8004fe0:	655a      	str	r2, [r3, #84]	; 0x54
  hspi->pRxBuffPtr  = (uint8_t *)pData;
 8004fe2:	68fb      	ldr	r3, [r7, #12]
 8004fe4:	68ba      	ldr	r2, [r7, #8]
 8004fe6:	639a      	str	r2, [r3, #56]	; 0x38
  hspi->RxXferSize  = Size;
 8004fe8:	68fb      	ldr	r3, [r7, #12]
 8004fea:	88fa      	ldrh	r2, [r7, #6]
 8004fec:	879a      	strh	r2, [r3, #60]	; 0x3c
  hspi->RxXferCount = Size;
 8004fee:	68fb      	ldr	r3, [r7, #12]
 8004ff0:	88fa      	ldrh	r2, [r7, #6]
 8004ff2:	87da      	strh	r2, [r3, #62]	; 0x3e

  /*Init field not used in handle to zero */
  hspi->pTxBuffPtr  = (uint8_t *)NULL;
 8004ff4:	68fb      	ldr	r3, [r7, #12]
 8004ff6:	2200      	movs	r2, #0
 8004ff8:	631a      	str	r2, [r3, #48]	; 0x30
  hspi->TxXferSize  = 0U;
 8004ffa:	68fb      	ldr	r3, [r7, #12]
 8004ffc:	2200      	movs	r2, #0
 8004ffe:	869a      	strh	r2, [r3, #52]	; 0x34
  hspi->TxXferCount = 0U;
 8005000:	68fb      	ldr	r3, [r7, #12]
 8005002:	2200      	movs	r2, #0
 8005004:	86da      	strh	r2, [r3, #54]	; 0x36
  hspi->RxISR       = NULL;
 8005006:	68fb      	ldr	r3, [r7, #12]
 8005008:	2200      	movs	r2, #0
 800500a:	641a      	str	r2, [r3, #64]	; 0x40
  hspi->TxISR       = NULL;
 800500c:	68fb      	ldr	r3, [r7, #12]
 800500e:	2200      	movs	r2, #0
 8005010:	645a      	str	r2, [r3, #68]	; 0x44
    hspi->RxXferCount--;
  }
#endif /* USE_SPI_CRC */

  /* Configure communication direction: 1Line */
  if (hspi->Init.Direction == SPI_DIRECTION_1LINE)
 8005012:	68fb      	ldr	r3, [r7, #12]
 8005014:	689b      	ldr	r3, [r3, #8]
 8005016:	f5b3 4f00 	cmp.w	r3, #32768	; 0x8000
 800501a:	d10f      	bne.n	800503c <HAL_SPI_Receive+0xec>
  {
    /* Disable SPI Peripheral before set 1Line direction (BIDIOE bit) */
    __HAL_SPI_DISABLE(hspi);
 800501c:	68fb      	ldr	r3, [r7, #12]
 800501e:	681b      	ldr	r3, [r3, #0]
 8005020:	681a      	ldr	r2, [r3, #0]
 8005022:	68fb      	ldr	r3, [r7, #12]
 8005024:	681b      	ldr	r3, [r3, #0]
 8005026:	f022 0240 	bic.w	r2, r2, #64	; 0x40
 800502a:	601a      	str	r2, [r3, #0]
    SPI_1LINE_RX(hspi);
 800502c:	68fb      	ldr	r3, [r7, #12]
 800502e:	681b      	ldr	r3, [r3, #0]
 8005030:	681a      	ldr	r2, [r3, #0]
 8005032:	68fb      	ldr	r3, [r7, #12]
 8005034:	681b      	ldr	r3, [r3, #0]
 8005036:	f422 4280 	bic.w	r2, r2, #16384	; 0x4000
 800503a:	601a      	str	r2, [r3, #0]
  }

  /* Check if the SPI is already enabled */
  if ((hspi->Instance->CR1 & SPI_CR1_SPE) != SPI_CR1_SPE)
 800503c:	68fb      	ldr	r3, [r7, #12]
 800503e:	681b      	ldr	r3, [r3, #0]
 8005040:	681b      	ldr	r3, [r3, #0]
 8005042:	f003 0340 	and.w	r3, r3, #64	; 0x40
 8005046:	2b40      	cmp	r3, #64	; 0x40
 8005048:	d007      	beq.n	800505a <HAL_SPI_Receive+0x10a>
  {
    /* Enable SPI peripheral */
    __HAL_SPI_ENABLE(hspi);
 800504a:	68fb      	ldr	r3, [r7, #12]
 800504c:	681b      	ldr	r3, [r3, #0]
 800504e:	681a      	ldr	r2, [r3, #0]
 8005050:	68fb      	ldr	r3, [r7, #12]
 8005052:	681b      	ldr	r3, [r3, #0]
 8005054:	f042 0240 	orr.w	r2, r2, #64	; 0x40
 8005058:	601a      	str	r2, [r3, #0]
  }

  /* Receive data in 8 Bit mode */
  if (hspi->Init.DataSize == SPI_DATASIZE_8BIT)
 800505a:	68fb      	ldr	r3, [r7, #12]
 800505c:	68db      	ldr	r3, [r3, #12]
 800505e:	2b00      	cmp	r3, #0
 8005060:	d16a      	bne.n	8005138 <HAL_SPI_Receive+0x1e8>
  {
    /* Transfer loop */
    while (hspi->RxXferCount > 0U)
 8005062:	e032      	b.n	80050ca <HAL_SPI_Receive+0x17a>
    {
      /* Check the RXNE flag */
      if (__HAL_SPI_GET_FLAG(hspi, SPI_FLAG_RXNE))
 8005064:	68fb      	ldr	r3, [r7, #12]
 8005066:	681b      	ldr	r3, [r3, #0]
 8005068:	689b      	ldr	r3, [r3, #8]
 800506a:	f003 0301 	and.w	r3, r3, #1
 800506e:	2b01      	cmp	r3, #1
 8005070:	d115      	bne.n	800509e <HAL_SPI_Receive+0x14e>
      {
        /* read the received data */
        (* (uint8_t *)hspi->pRxBuffPtr) = *(__IO uint8_t *)&hspi->Instance->DR;
 8005072:	68fb      	ldr	r3, [r7, #12]
 8005074:	681b      	ldr	r3, [r3, #0]
 8005076:	f103 020c 	add.w	r2, r3, #12
 800507a:	68fb      	ldr	r3, [r7, #12]
 800507c:	6b9b      	ldr	r3, [r3, #56]	; 0x38
 800507e:	7812      	ldrb	r2, [r2, #0]
 8005080:	b2d2      	uxtb	r2, r2
 8005082:	701a      	strb	r2, [r3, #0]
        hspi->pRxBuffPtr += sizeof(uint8_t);
 8005084:	68fb      	ldr	r3, [r7, #12]
 8005086:	6b9b      	ldr	r3, [r3, #56]	; 0x38
 8005088:	1c5a      	adds	r2, r3, #1
 800508a:	68fb      	ldr	r3, [r7, #12]
 800508c:	639a      	str	r2, [r3, #56]	; 0x38
        hspi->RxXferCount--;
 800508e:	68fb      	ldr	r3, [r7, #12]
 8005090:	8fdb      	ldrh	r3, [r3, #62]	; 0x3e
 8005092:	b29b      	uxth	r3, r3
 8005094:	3b01      	subs	r3, #1
 8005096:	b29a      	uxth	r2, r3
 8005098:	68fb      	ldr	r3, [r7, #12]
 800509a:	87da      	strh	r2, [r3, #62]	; 0x3e
 800509c:	e015      	b.n	80050ca <HAL_SPI_Receive+0x17a>
      }
      else
      {
        /* Timeout management */
        if ((((HAL_GetTick() - tickstart) >=  Timeout) && (Timeout != HAL_MAX_DELAY)) || (Timeout == 0U))
 800509e:	f7fd f861 	bl	8002164 <HAL_GetTick>
 80050a2:	4602      	mov	r2, r0
 80050a4:	693b      	ldr	r3, [r7, #16]
 80050a6:	1ad3      	subs	r3, r2, r3
 80050a8:	683a      	ldr	r2, [r7, #0]
 80050aa:	429a      	cmp	r2, r3
 80050ac:	d803      	bhi.n	80050b6 <HAL_SPI_Receive+0x166>
 80050ae:	683b      	ldr	r3, [r7, #0]
 80050b0:	f1b3 3fff 	cmp.w	r3, #4294967295	; 0xffffffff
 80050b4:	d102      	bne.n	80050bc <HAL_SPI_Receive+0x16c>
 80050b6:	683b      	ldr	r3, [r7, #0]
 80050b8:	2b00      	cmp	r3, #0
 80050ba:	d106      	bne.n	80050ca <HAL_SPI_Receive+0x17a>
        {
          errorcode = HAL_TIMEOUT;
 80050bc:	2303      	movs	r3, #3
 80050be:	75fb      	strb	r3, [r7, #23]
          hspi->State = HAL_SPI_STATE_READY;
 80050c0:	68fb      	ldr	r3, [r7, #12]
 80050c2:	2201      	movs	r2, #1
 80050c4:	f883 2051 	strb.w	r2, [r3, #81]	; 0x51
          goto error;
 80050c8:	e051      	b.n	800516e <HAL_SPI_Receive+0x21e>
    while (hspi->RxXferCount > 0U)
 80050ca:	68fb      	ldr	r3, [r7, #12]
 80050cc:	8fdb      	ldrh	r3, [r3, #62]	; 0x3e
 80050ce:	b29b      	uxth	r3, r3
 80050d0:	2b00      	cmp	r3, #0
 80050d2:	d1c7      	bne.n	8005064 <HAL_SPI_Receive+0x114>
 80050d4:	e035      	b.n	8005142 <HAL_SPI_Receive+0x1f2>
  {
    /* Transfer loop */
    while (hspi->RxXferCount > 0U)
    {
      /* Check the RXNE flag */
      if (__HAL_SPI_GET_FLAG(hspi, SPI_FLAG_RXNE))
 80050d6:	68fb      	ldr	r3, [r7, #12]
 80050d8:	681b      	ldr	r3, [r3, #0]
 80050da:	689b      	ldr	r3, [r3, #8]
 80050dc:	f003 0301 	and.w	r3, r3, #1
 80050e0:	2b01      	cmp	r3, #1
 80050e2:	d113      	bne.n	800510c <HAL_SPI_Receive+0x1bc>
      {
        *((uint16_t *)hspi->pRxBuffPtr) = (uint16_t)hspi->Instance->DR;
 80050e4:	68fb      	ldr	r3, [r7, #12]
 80050e6:	681b      	ldr	r3, [r3, #0]
 80050e8:	68da      	ldr	r2, [r3, #12]
 80050ea:	68fb      	ldr	r3, [r7, #12]
 80050ec:	6b9b      	ldr	r3, [r3, #56]	; 0x38
 80050ee:	b292      	uxth	r2, r2
 80050f0:	801a      	strh	r2, [r3, #0]
        hspi->pRxBuffPtr += sizeof(uint16_t);
 80050f2:	68fb      	ldr	r3, [r7, #12]
 80050f4:	6b9b      	ldr	r3, [r3, #56]	; 0x38
 80050f6:	1c9a      	adds	r2, r3, #2
 80050f8:	68fb      	ldr	r3, [r7, #12]
 80050fa:	639a      	str	r2, [r3, #56]	; 0x38
        hspi->RxXferCount--;
 80050fc:	68fb      	ldr	r3, [r7, #12]
 80050fe:	8fdb      	ldrh	r3, [r3, #62]	; 0x3e
 8005100:	b29b      	uxth	r3, r3
 8005102:	3b01      	subs	r3, #1
 8005104:	b29a      	uxth	r2, r3
 8005106:	68fb      	ldr	r3, [r7, #12]
 8005108:	87da      	strh	r2, [r3, #62]	; 0x3e
 800510a:	e015      	b.n	8005138 <HAL_SPI_Receive+0x1e8>
      }
      else
      {
        /* Timeout management */
        if ((((HAL_GetTick() - tickstart) >=  Timeout) && (Timeout != HAL_MAX_DELAY)) || (Timeout == 0U))
 800510c:	f7fd f82a 	bl	8002164 <HAL_GetTick>
 8005110:	4602      	mov	r2, r0
 8005112:	693b      	ldr	r3, [r7, #16]
 8005114:	1ad3      	subs	r3, r2, r3
 8005116:	683a      	ldr	r2, [r7, #0]
 8005118:	429a      	cmp	r2, r3
 800511a:	d803      	bhi.n	8005124 <HAL_SPI_Receive+0x1d4>
 800511c:	683b      	ldr	r3, [r7, #0]
 800511e:	f1b3 3fff 	cmp.w	r3, #4294967295	; 0xffffffff
 8005122:	d102      	bne.n	800512a <HAL_SPI_Receive+0x1da>
 8005124:	683b      	ldr	r3, [r7, #0]
 8005126:	2b00      	cmp	r3, #0
 8005128:	d106      	bne.n	8005138 <HAL_SPI_Receive+0x1e8>
        {
          errorcode = HAL_TIMEOUT;
 800512a:	2303      	movs	r3, #3
 800512c:	75fb      	strb	r3, [r7, #23]
          hspi->State = HAL_SPI_STATE_READY;
 800512e:	68fb      	ldr	r3, [r7, #12]
 8005130:	2201      	movs	r2, #1
 8005132:	f883 2051 	strb.w	r2, [r3, #81]	; 0x51
          goto error;
 8005136:	e01a      	b.n	800516e <HAL_SPI_Receive+0x21e>
    while (hspi->RxXferCount > 0U)
 8005138:	68fb      	ldr	r3, [r7, #12]
 800513a:	8fdb      	ldrh	r3, [r3, #62]	; 0x3e
 800513c:	b29b      	uxth	r3, r3
 800513e:	2b00      	cmp	r3, #0
 8005140:	d1c9      	bne.n	80050d6 <HAL_SPI_Receive+0x186>
    UNUSED(tmpreg);
  }
#endif /* USE_SPI_CRC */

  /* Check the end of the transaction */
  if (SPI_EndRxTransaction(hspi, Timeout, tickstart) != HAL_OK)
 8005142:	693a      	ldr	r2, [r7, #16]
 8005144:	6839      	ldr	r1, [r7, #0]
 8005146:	68f8      	ldr	r0, [r7, #12]
 8005148:	f000 fa52 	bl	80055f0 <SPI_EndRxTransaction>
 800514c:	4603      	mov	r3, r0
 800514e:	2b00      	cmp	r3, #0
 8005150:	d002      	beq.n	8005158 <HAL_SPI_Receive+0x208>
  {
    hspi->ErrorCode = HAL_SPI_ERROR_FLAG;
 8005152:	68fb      	ldr	r3, [r7, #12]
 8005154:	2220      	movs	r2, #32
 8005156:	655a      	str	r2, [r3, #84]	; 0x54
    SET_BIT(hspi->ErrorCode, HAL_SPI_ERROR_CRC);
    __HAL_SPI_CLEAR_CRCERRFLAG(hspi);
  }
#endif /* USE_SPI_CRC */

  if (hspi->ErrorCode != HAL_SPI_ERROR_NONE)
 8005158:	68fb      	ldr	r3, [r7, #12]
 800515a:	6d5b      	ldr	r3, [r3, #84]	; 0x54
 800515c:	2b00      	cmp	r3, #0
 800515e:	d002      	beq.n	8005166 <HAL_SPI_Receive+0x216>
  {
    errorcode = HAL_ERROR;
 8005160:	2301      	movs	r3, #1
 8005162:	75fb      	strb	r3, [r7, #23]
 8005164:	e003      	b.n	800516e <HAL_SPI_Receive+0x21e>
  }
  else
  {
    hspi->State = HAL_SPI_STATE_READY;
 8005166:	68fb      	ldr	r3, [r7, #12]
 8005168:	2201      	movs	r2, #1
 800516a:	f883 2051 	strb.w	r2, [r3, #81]	; 0x51
  }

error :
  __HAL_UNLOCK(hspi);
 800516e:	68fb      	ldr	r3, [r7, #12]
 8005170:	2200      	movs	r2, #0
 8005172:	f883 2050 	strb.w	r2, [r3, #80]	; 0x50
  return errorcode;
 8005176:	7dfb      	ldrb	r3, [r7, #23]
}
 8005178:	4618      	mov	r0, r3
 800517a:	3718      	adds	r7, #24
 800517c:	46bd      	mov	sp, r7
 800517e:	bd80      	pop	{r7, pc}

08005180 <HAL_SPI_TransmitReceive>:
  * @param  Timeout Timeout duration
  * @retval HAL status
  */
HAL_StatusTypeDef HAL_SPI_TransmitReceive(SPI_HandleTypeDef *hspi, uint8_t *pTxData, uint8_t *pRxData, uint16_t Size,
                                          uint32_t Timeout)
{
 8005180:	b580      	push	{r7, lr}
 8005182:	b08c      	sub	sp, #48	; 0x30
 8005184:	af00      	add	r7, sp, #0
 8005186:	60f8      	str	r0, [r7, #12]
 8005188:	60b9      	str	r1, [r7, #8]
 800518a:	607a      	str	r2, [r7, #4]
 800518c:	807b      	strh	r3, [r7, #2]
#if (USE_SPI_CRC != 0U)
  __IO uint32_t tmpreg = 0U;
#endif /* USE_SPI_CRC */

  /* Variable used to alternate Rx and Tx during transfer */
  uint32_t             txallowed = 1U;
 800518e:	2301      	movs	r3, #1
 8005190:	62fb      	str	r3, [r7, #44]	; 0x2c
  HAL_StatusTypeDef    errorcode = HAL_OK;
 8005192:	2300      	movs	r3, #0
 8005194:	f887 302b 	strb.w	r3, [r7, #43]	; 0x2b

  /* Check Direction parameter */
  assert_param(IS_SPI_DIRECTION_2LINES(hspi->Init.Direction));

  /* Process Locked */
  __HAL_LOCK(hspi);
 8005198:	68fb      	ldr	r3, [r7, #12]
 800519a:	f893 3050 	ldrb.w	r3, [r3, #80]	; 0x50
 800519e:	2b01      	cmp	r3, #1
 80051a0:	d101      	bne.n	80051a6 <HAL_SPI_TransmitReceive+0x26>
 80051a2:	2302      	movs	r3, #2
 80051a4:	e198      	b.n	80054d8 <HAL_SPI_TransmitReceive+0x358>
 80051a6:	68fb      	ldr	r3, [r7, #12]
 80051a8:	2201      	movs	r2, #1
 80051aa:	f883 2050 	strb.w	r2, [r3, #80]	; 0x50

  /* Init tickstart for timeout management*/
  tickstart = HAL_GetTick();
 80051ae:	f7fc ffd9 	bl	8002164 <HAL_GetTick>
 80051b2:	6278      	str	r0, [r7, #36]	; 0x24

  /* Init temporary variables */
  tmp_state           = hspi->State;
 80051b4:	68fb      	ldr	r3, [r7, #12]
 80051b6:	f893 3051 	ldrb.w	r3, [r3, #81]	; 0x51
 80051ba:	f887 3023 	strb.w	r3, [r7, #35]	; 0x23
  tmp_mode            = hspi->Init.Mode;
 80051be:	68fb      	ldr	r3, [r7, #12]
 80051c0:	685b      	ldr	r3, [r3, #4]
 80051c2:	61fb      	str	r3, [r7, #28]
  initial_TxXferCount = Size;
 80051c4:	887b      	ldrh	r3, [r7, #2]
 80051c6:	837b      	strh	r3, [r7, #26]

  if (!((tmp_state == HAL_SPI_STATE_READY) || \
 80051c8:	f897 3023 	ldrb.w	r3, [r7, #35]	; 0x23
 80051cc:	2b01      	cmp	r3, #1
 80051ce:	d00f      	beq.n	80051f0 <HAL_SPI_TransmitReceive+0x70>
 80051d0:	69fb      	ldr	r3, [r7, #28]
 80051d2:	f5b3 7f82 	cmp.w	r3, #260	; 0x104
 80051d6:	d107      	bne.n	80051e8 <HAL_SPI_TransmitReceive+0x68>
        ((tmp_mode == SPI_MODE_MASTER) && (hspi->Init.Direction == SPI_DIRECTION_2LINES) && (tmp_state == HAL_SPI_STATE_BUSY_RX))))
 80051d8:	68fb      	ldr	r3, [r7, #12]
 80051da:	689b      	ldr	r3, [r3, #8]
 80051dc:	2b00      	cmp	r3, #0
 80051de:	d103      	bne.n	80051e8 <HAL_SPI_TransmitReceive+0x68>
 80051e0:	f897 3023 	ldrb.w	r3, [r7, #35]	; 0x23
 80051e4:	2b04      	cmp	r3, #4
 80051e6:	d003      	beq.n	80051f0 <HAL_SPI_TransmitReceive+0x70>
  {
    errorcode = HAL_BUSY;
 80051e8:	2302      	movs	r3, #2
 80051ea:	f887 302b 	strb.w	r3, [r7, #43]	; 0x2b
    goto error;
 80051ee:	e16d      	b.n	80054cc <HAL_SPI_TransmitReceive+0x34c>
  }

  if ((pTxData == NULL) || (pRxData == NULL) || (Size == 0U))
 80051f0:	68bb      	ldr	r3, [r7, #8]
 80051f2:	2b00      	cmp	r3, #0
 80051f4:	d005      	beq.n	8005202 <HAL_SPI_TransmitReceive+0x82>
 80051f6:	687b      	ldr	r3, [r7, #4]
 80051f8:	2b00      	cmp	r3, #0
 80051fa:	d002      	beq.n	8005202 <HAL_SPI_TransmitReceive+0x82>
 80051fc:	887b      	ldrh	r3, [r7, #2]
 80051fe:	2b00      	cmp	r3, #0
 8005200:	d103      	bne.n	800520a <HAL_SPI_TransmitReceive+0x8a>
  {
    errorcode = HAL_ERROR;
 8005202:	2301      	movs	r3, #1
 8005204:	f887 302b 	strb.w	r3, [r7, #43]	; 0x2b
    goto error;
 8005208:	e160      	b.n	80054cc <HAL_SPI_TransmitReceive+0x34c>
  }

  /* Don't overwrite in case of HAL_SPI_STATE_BUSY_RX */
  if (hspi->State != HAL_SPI_STATE_BUSY_RX)
 800520a:	68fb      	ldr	r3, [r7, #12]
 800520c:	f893 3051 	ldrb.w	r3, [r3, #81]	; 0x51
 8005210:	b2db      	uxtb	r3, r3
 8005212:	2b04      	cmp	r3, #4
 8005214:	d003      	beq.n	800521e <HAL_SPI_TransmitReceive+0x9e>
  {
    hspi->State = HAL_SPI_STATE_BUSY_TX_RX;
 8005216:	68fb      	ldr	r3, [r7, #12]
 8005218:	2205      	movs	r2, #5
 800521a:	f883 2051 	strb.w	r2, [r3, #81]	; 0x51
  }

  /* Set the transaction information */
  hspi->ErrorCode   = HAL_SPI_ERROR_NONE;
 800521e:	68fb      	ldr	r3, [r7, #12]
 8005220:	2200      	movs	r2, #0
 8005222:	655a      	str	r2, [r3, #84]	; 0x54
  hspi->pRxBuffPtr  = (uint8_t *)pRxData;
 8005224:	68fb      	ldr	r3, [r7, #12]
 8005226:	687a      	ldr	r2, [r7, #4]
 8005228:	639a      	str	r2, [r3, #56]	; 0x38
  hspi->RxXferCount = Size;
 800522a:	68fb      	ldr	r3, [r7, #12]
 800522c:	887a      	ldrh	r2, [r7, #2]
 800522e:	87da      	strh	r2, [r3, #62]	; 0x3e
  hspi->RxXferSize  = Size;
 8005230:	68fb      	ldr	r3, [r7, #12]
 8005232:	887a      	ldrh	r2, [r7, #2]
 8005234:	879a      	strh	r2, [r3, #60]	; 0x3c
  hspi->pTxBuffPtr  = (uint8_t *)pTxData;
 8005236:	68fb      	ldr	r3, [r7, #12]
 8005238:	68ba      	ldr	r2, [r7, #8]
 800523a:	631a      	str	r2, [r3, #48]	; 0x30
  hspi->TxXferCount = Size;
 800523c:	68fb      	ldr	r3, [r7, #12]
 800523e:	887a      	ldrh	r2, [r7, #2]
 8005240:	86da      	strh	r2, [r3, #54]	; 0x36
  hspi->TxXferSize  = Size;
 8005242:	68fb      	ldr	r3, [r7, #12]
 8005244:	887a      	ldrh	r2, [r7, #2]
 8005246:	869a      	strh	r2, [r3, #52]	; 0x34

  /*Init field not used in handle to zero */
  hspi->RxISR       = NULL;
 8005248:	68fb      	ldr	r3, [r7, #12]
 800524a:	2200      	movs	r2, #0
 800524c:	641a      	str	r2, [r3, #64]	; 0x40
  hspi->TxISR       = NULL;
 800524e:	68fb      	ldr	r3, [r7, #12]
 8005250:	2200      	movs	r2, #0
 8005252:	645a      	str	r2, [r3, #68]	; 0x44
    SPI_RESET_CRC(hspi);
  }
#endif /* USE_SPI_CRC */

  /* Check if the SPI is already enabled */
  if ((hspi->Instance->CR1 & SPI_CR1_SPE) != SPI_CR1_SPE)
 8005254:	68fb      	ldr	r3, [r7, #12]
 8005256:	681b      	ldr	r3, [r3, #0]
 8005258:	681b      	ldr	r3, [r3, #0]
 800525a:	f003 0340 	and.w	r3, r3, #64	; 0x40
 800525e:	2b40      	cmp	r3, #64	; 0x40
 8005260:	d007      	beq.n	8005272 <HAL_SPI_TransmitReceive+0xf2>
  {
    /* Enable SPI peripheral */
    __HAL_SPI_ENABLE(hspi);
 8005262:	68fb      	ldr	r3, [r7, #12]
 8005264:	681b      	ldr	r3, [r3, #0]
 8005266:	681a      	ldr	r2, [r3, #0]
 8005268:	68fb      	ldr	r3, [r7, #12]
 800526a:	681b      	ldr	r3, [r3, #0]
 800526c:	f042 0240 	orr.w	r2, r2, #64	; 0x40
 8005270:	601a      	str	r2, [r3, #0]
  }

  /* Transmit and Receive data in 16 Bit mode */
  if (hspi->Init.DataSize == SPI_DATASIZE_16BIT)
 8005272:	68fb      	ldr	r3, [r7, #12]
 8005274:	68db      	ldr	r3, [r3, #12]
 8005276:	f5b3 6f00 	cmp.w	r3, #2048	; 0x800
 800527a:	d17c      	bne.n	8005376 <HAL_SPI_TransmitReceive+0x1f6>
  {
    if ((hspi->Init.Mode == SPI_MODE_SLAVE) || (initial_TxXferCount == 0x01U))
 800527c:	68fb      	ldr	r3, [r7, #12]
 800527e:	685b      	ldr	r3, [r3, #4]
 8005280:	2b00      	cmp	r3, #0
 8005282:	d002      	beq.n	800528a <HAL_SPI_TransmitReceive+0x10a>
 8005284:	8b7b      	ldrh	r3, [r7, #26]
 8005286:	2b01      	cmp	r3, #1
 8005288:	d16a      	bne.n	8005360 <HAL_SPI_TransmitReceive+0x1e0>
    {
      hspi->Instance->DR = *((uint16_t *)hspi->pTxBuffPtr);
 800528a:	68fb      	ldr	r3, [r7, #12]
 800528c:	6b1b      	ldr	r3, [r3, #48]	; 0x30
 800528e:	881a      	ldrh	r2, [r3, #0]
 8005290:	68fb      	ldr	r3, [r7, #12]
 8005292:	681b      	ldr	r3, [r3, #0]
 8005294:	60da      	str	r2, [r3, #12]
      hspi->pTxBuffPtr += sizeof(uint16_t);
 8005296:	68fb      	ldr	r3, [r7, #12]
 8005298:	6b1b      	ldr	r3, [r3, #48]	; 0x30
 800529a:	1c9a      	adds	r2, r3, #2
 800529c:	68fb      	ldr	r3, [r7, #12]
 800529e:	631a      	str	r2, [r3, #48]	; 0x30
      hspi->TxXferCount--;
 80052a0:	68fb      	ldr	r3, [r7, #12]
 80052a2:	8edb      	ldrh	r3, [r3, #54]	; 0x36
 80052a4:	b29b      	uxth	r3, r3
 80052a6:	3b01      	subs	r3, #1
 80052a8:	b29a      	uxth	r2, r3
 80052aa:	68fb      	ldr	r3, [r7, #12]
 80052ac:	86da      	strh	r2, [r3, #54]	; 0x36
        SET_BIT(hspi->Instance->CR1, SPI_CR1_CRCNEXT);
      }
#endif /* USE_SPI_CRC */

    }
    while ((hspi->TxXferCount > 0U) || (hspi->RxXferCount > 0U))
 80052ae:	e057      	b.n	8005360 <HAL_SPI_TransmitReceive+0x1e0>
    {
      /* Check TXE flag */
      if ((__HAL_SPI_GET_FLAG(hspi, SPI_FLAG_TXE)) && (hspi->TxXferCount > 0U) && (txallowed == 1U))
 80052b0:	68fb      	ldr	r3, [r7, #12]
 80052b2:	681b      	ldr	r3, [r3, #0]
 80052b4:	689b      	ldr	r3, [r3, #8]
 80052b6:	f003 0302 	and.w	r3, r3, #2
 80052ba:	2b02      	cmp	r3, #2
 80052bc:	d11b      	bne.n	80052f6 <HAL_SPI_TransmitReceive+0x176>
 80052be:	68fb      	ldr	r3, [r7, #12]
 80052c0:	8edb      	ldrh	r3, [r3, #54]	; 0x36
 80052c2:	b29b      	uxth	r3, r3
 80052c4:	2b00      	cmp	r3, #0
 80052c6:	d016      	beq.n	80052f6 <HAL_SPI_TransmitReceive+0x176>
 80052c8:	6afb      	ldr	r3, [r7, #44]	; 0x2c
 80052ca:	2b01      	cmp	r3, #1
 80052cc:	d113      	bne.n	80052f6 <HAL_SPI_TransmitReceive+0x176>
      {
        hspi->Instance->DR = *((uint16_t *)hspi->pTxBuffPtr);
 80052ce:	68fb      	ldr	r3, [r7, #12]
 80052d0:	6b1b      	ldr	r3, [r3, #48]	; 0x30
 80052d2:	881a      	ldrh	r2, [r3, #0]
 80052d4:	68fb      	ldr	r3, [r7, #12]
 80052d6:	681b      	ldr	r3, [r3, #0]
 80052d8:	60da      	str	r2, [r3, #12]
        hspi->pTxBuffPtr += sizeof(uint16_t);
 80052da:	68fb      	ldr	r3, [r7, #12]
 80052dc:	6b1b      	ldr	r3, [r3, #48]	; 0x30
 80052de:	1c9a      	adds	r2, r3, #2
 80052e0:	68fb      	ldr	r3, [r7, #12]
 80052e2:	631a      	str	r2, [r3, #48]	; 0x30
        hspi->TxXferCount--;
 80052e4:	68fb      	ldr	r3, [r7, #12]
 80052e6:	8edb      	ldrh	r3, [r3, #54]	; 0x36
 80052e8:	b29b      	uxth	r3, r3
 80052ea:	3b01      	subs	r3, #1
 80052ec:	b29a      	uxth	r2, r3
 80052ee:	68fb      	ldr	r3, [r7, #12]
 80052f0:	86da      	strh	r2, [r3, #54]	; 0x36
        /* Next Data is a reception (Rx). Tx not allowed */
        txallowed = 0U;
 80052f2:	2300      	movs	r3, #0
 80052f4:	62fb      	str	r3, [r7, #44]	; 0x2c
        }
#endif /* USE_SPI_CRC */
      }

      /* Check RXNE flag */
      if ((__HAL_SPI_GET_FLAG(hspi, SPI_FLAG_RXNE)) && (hspi->RxXferCount > 0U))
 80052f6:	68fb      	ldr	r3, [r7, #12]
 80052f8:	681b      	ldr	r3, [r3, #0]
 80052fa:	689b      	ldr	r3, [r3, #8]
 80052fc:	f003 0301 	and.w	r3, r3, #1
 8005300:	2b01      	cmp	r3, #1
 8005302:	d119      	bne.n	8005338 <HAL_SPI_TransmitReceive+0x1b8>
 8005304:	68fb      	ldr	r3, [r7, #12]
 8005306:	8fdb      	ldrh	r3, [r3, #62]	; 0x3e
 8005308:	b29b      	uxth	r3, r3
 800530a:	2b00      	cmp	r3, #0
 800530c:	d014      	beq.n	8005338 <HAL_SPI_TransmitReceive+0x1b8>
      {
        *((uint16_t *)hspi->pRxBuffPtr) = (uint16_t)hspi->Instance->DR;
 800530e:	68fb      	ldr	r3, [r7, #12]
 8005310:	681b      	ldr	r3, [r3, #0]
 8005312:	68da      	ldr	r2, [r3, #12]
 8005314:	68fb      	ldr	r3, [r7, #12]
 8005316:	6b9b      	ldr	r3, [r3, #56]	; 0x38
 8005318:	b292      	uxth	r2, r2
 800531a:	801a      	strh	r2, [r3, #0]
        hspi->pRxBuffPtr += sizeof(uint16_t);
 800531c:	68fb      	ldr	r3, [r7, #12]
 800531e:	6b9b      	ldr	r3, [r3, #56]	; 0x38
 8005320:	1c9a      	adds	r2, r3, #2
 8005322:	68fb      	ldr	r3, [r7, #12]
 8005324:	639a      	str	r2, [r3, #56]	; 0x38
        hspi->RxXferCount--;
 8005326:	68fb      	ldr	r3, [r7, #12]
 8005328:	8fdb      	ldrh	r3, [r3, #62]	; 0x3e
 800532a:	b29b      	uxth	r3, r3
 800532c:	3b01      	subs	r3, #1
 800532e:	b29a      	uxth	r2, r3
 8005330:	68fb      	ldr	r3, [r7, #12]
 8005332:	87da      	strh	r2, [r3, #62]	; 0x3e
        /* Next Data is a Transmission (Tx). Tx is allowed */
        txallowed = 1U;
 8005334:	2301      	movs	r3, #1
 8005336:	62fb      	str	r3, [r7, #44]	; 0x2c
      }
      if (((HAL_GetTick() - tickstart) >=  Timeout) && (Timeout != HAL_MAX_DELAY))
 8005338:	f7fc ff14 	bl	8002164 <HAL_GetTick>
 800533c:	4602      	mov	r2, r0
 800533e:	6a7b      	ldr	r3, [r7, #36]	; 0x24
 8005340:	1ad3      	subs	r3, r2, r3
 8005342:	6bba      	ldr	r2, [r7, #56]	; 0x38
 8005344:	429a      	cmp	r2, r3
 8005346:	d80b      	bhi.n	8005360 <HAL_SPI_TransmitReceive+0x1e0>
 8005348:	6bbb      	ldr	r3, [r7, #56]	; 0x38
 800534a:	f1b3 3fff 	cmp.w	r3, #4294967295	; 0xffffffff
 800534e:	d007      	beq.n	8005360 <HAL_SPI_TransmitReceive+0x1e0>
      {
        errorcode = HAL_TIMEOUT;
 8005350:	2303      	movs	r3, #3
 8005352:	f887 302b 	strb.w	r3, [r7, #43]	; 0x2b
        hspi->State = HAL_SPI_STATE_READY;
 8005356:	68fb      	ldr	r3, [r7, #12]
 8005358:	2201      	movs	r2, #1
 800535a:	f883 2051 	strb.w	r2, [r3, #81]	; 0x51
        goto error;
 800535e:	e0b5      	b.n	80054cc <HAL_SPI_TransmitReceive+0x34c>
    while ((hspi->TxXferCount > 0U) || (hspi->RxXferCount > 0U))
 8005360:	68fb      	ldr	r3, [r7, #12]
 8005362:	8edb      	ldrh	r3, [r3, #54]	; 0x36
 8005364:	b29b      	uxth	r3, r3
 8005366:	2b00      	cmp	r3, #0
 8005368:	d1a2      	bne.n	80052b0 <HAL_SPI_TransmitReceive+0x130>
 800536a:	68fb      	ldr	r3, [r7, #12]
 800536c:	8fdb      	ldrh	r3, [r3, #62]	; 0x3e
 800536e:	b29b      	uxth	r3, r3
 8005370:	2b00      	cmp	r3, #0
 8005372:	d19d      	bne.n	80052b0 <HAL_SPI_TransmitReceive+0x130>
 8005374:	e080      	b.n	8005478 <HAL_SPI_TransmitReceive+0x2f8>
    }
  }
  /* Transmit and Receive data in 8 Bit mode */
  else
  {
    if ((hspi->Init.Mode == SPI_MODE_SLAVE) || (initial_TxXferCount == 0x01U))
 8005376:	68fb      	ldr	r3, [r7, #12]
 8005378:	685b      	ldr	r3, [r3, #4]
 800537a:	2b00      	cmp	r3, #0
 800537c:	d002      	beq.n	8005384 <HAL_SPI_TransmitReceive+0x204>
 800537e:	8b7b      	ldrh	r3, [r7, #26]
 8005380:	2b01      	cmp	r3, #1
 8005382:	d16f      	bne.n	8005464 <HAL_SPI_TransmitReceive+0x2e4>
    {
      *((__IO uint8_t *)&hspi->Instance->DR) = (*hspi->pTxBuffPtr);
 8005384:	68fb      	ldr	r3, [r7, #12]
 8005386:	6b1a      	ldr	r2, [r3, #48]	; 0x30
 8005388:	68fb      	ldr	r3, [r7, #12]
 800538a:	681b      	ldr	r3, [r3, #0]
 800538c:	330c      	adds	r3, #12
 800538e:	7812      	ldrb	r2, [r2, #0]
 8005390:	701a      	strb	r2, [r3, #0]
      hspi->pTxBuffPtr += sizeof(uint8_t);
 8005392:	68fb      	ldr	r3, [r7, #12]
 8005394:	6b1b      	ldr	r3, [r3, #48]	; 0x30
 8005396:	1c5a      	adds	r2, r3, #1
 8005398:	68fb      	ldr	r3, [r7, #12]
 800539a:	631a      	str	r2, [r3, #48]	; 0x30
      hspi->TxXferCount--;
 800539c:	68fb      	ldr	r3, [r7, #12]
 800539e:	8edb      	ldrh	r3, [r3, #54]	; 0x36
 80053a0:	b29b      	uxth	r3, r3
 80053a2:	3b01      	subs	r3, #1
 80053a4:	b29a      	uxth	r2, r3
 80053a6:	68fb      	ldr	r3, [r7, #12]
 80053a8:	86da      	strh	r2, [r3, #54]	; 0x36
      {
        SET_BIT(hspi->Instance->CR1, SPI_CR1_CRCNEXT);
      }
#endif /* USE_SPI_CRC */
    }
    while ((hspi->TxXferCount > 0U) || (hspi->RxXferCount > 0U))
 80053aa:	e05b      	b.n	8005464 <HAL_SPI_TransmitReceive+0x2e4>
    {
      /* Check TXE flag */
      if ((__HAL_SPI_GET_FLAG(hspi, SPI_FLAG_TXE)) && (hspi->TxXferCount > 0U) && (txallowed == 1U))
 80053ac:	68fb      	ldr	r3, [r7, #12]
 80053ae:	681b      	ldr	r3, [r3, #0]
 80053b0:	689b      	ldr	r3, [r3, #8]
 80053b2:	f003 0302 	and.w	r3, r3, #2
 80053b6:	2b02      	cmp	r3, #2
 80053b8:	d11c      	bne.n	80053f4 <HAL_SPI_TransmitReceive+0x274>
 80053ba:	68fb      	ldr	r3, [r7, #12]
 80053bc:	8edb      	ldrh	r3, [r3, #54]	; 0x36
 80053be:	b29b      	uxth	r3, r3
 80053c0:	2b00      	cmp	r3, #0
 80053c2:	d017      	beq.n	80053f4 <HAL_SPI_TransmitReceive+0x274>
 80053c4:	6afb      	ldr	r3, [r7, #44]	; 0x2c
 80053c6:	2b01      	cmp	r3, #1
 80053c8:	d114      	bne.n	80053f4 <HAL_SPI_TransmitReceive+0x274>
      {
        *(__IO uint8_t *)&hspi->Instance->DR = (*hspi->pTxBuffPtr);
 80053ca:	68fb      	ldr	r3, [r7, #12]
 80053cc:	6b1a      	ldr	r2, [r3, #48]	; 0x30
 80053ce:	68fb      	ldr	r3, [r7, #12]
 80053d0:	681b      	ldr	r3, [r3, #0]
 80053d2:	330c      	adds	r3, #12
 80053d4:	7812      	ldrb	r2, [r2, #0]
 80053d6:	701a      	strb	r2, [r3, #0]
        hspi->pTxBuffPtr++;
 80053d8:	68fb      	ldr	r3, [r7, #12]
 80053da:	6b1b      	ldr	r3, [r3, #48]	; 0x30
 80053dc:	1c5a      	adds	r2, r3, #1
 80053de:	68fb      	ldr	r3, [r7, #12]
 80053e0:	631a      	str	r2, [r3, #48]	; 0x30
        hspi->TxXferCount--;
 80053e2:	68fb      	ldr	r3, [r7, #12]
 80053e4:	8edb      	ldrh	r3, [r3, #54]	; 0x36
 80053e6:	b29b      	uxth	r3, r3
 80053e8:	3b01      	subs	r3, #1
 80053ea:	b29a      	uxth	r2, r3
 80053ec:	68fb      	ldr	r3, [r7, #12]
 80053ee:	86da      	strh	r2, [r3, #54]	; 0x36
        /* Next Data is a reception (Rx). Tx not allowed */
        txallowed = 0U;
 80053f0:	2300      	movs	r3, #0
 80053f2:	62fb      	str	r3, [r7, #44]	; 0x2c
        }
#endif /* USE_SPI_CRC */
      }

      /* Wait until RXNE flag is reset */
      if ((__HAL_SPI_GET_FLAG(hspi, SPI_FLAG_RXNE)) && (hspi->RxXferCount > 0U))
 80053f4:	68fb      	ldr	r3, [r7, #12]
 80053f6:	681b      	ldr	r3, [r3, #0]
 80053f8:	689b      	ldr	r3, [r3, #8]
 80053fa:	f003 0301 	and.w	r3, r3, #1
 80053fe:	2b01      	cmp	r3, #1
 8005400:	d119      	bne.n	8005436 <HAL_SPI_TransmitReceive+0x2b6>
 8005402:	68fb      	ldr	r3, [r7, #12]
 8005404:	8fdb      	ldrh	r3, [r3, #62]	; 0x3e
 8005406:	b29b      	uxth	r3, r3
 8005408:	2b00      	cmp	r3, #0
 800540a:	d014      	beq.n	8005436 <HAL_SPI_TransmitReceive+0x2b6>
      {
        (*(uint8_t *)hspi->pRxBuffPtr) = hspi->Instance->DR;
 800540c:	68fb      	ldr	r3, [r7, #12]
 800540e:	681b      	ldr	r3, [r3, #0]
 8005410:	68da      	ldr	r2, [r3, #12]
 8005412:	68fb      	ldr	r3, [r7, #12]
 8005414:	6b9b      	ldr	r3, [r3, #56]	; 0x38
 8005416:	b2d2      	uxtb	r2, r2
 8005418:	701a      	strb	r2, [r3, #0]
        hspi->pRxBuffPtr++;
 800541a:	68fb      	ldr	r3, [r7, #12]
 800541c:	6b9b      	ldr	r3, [r3, #56]	; 0x38
 800541e:	1c5a      	adds	r2, r3, #1
 8005420:	68fb      	ldr	r3, [r7, #12]
 8005422:	639a      	str	r2, [r3, #56]	; 0x38
        hspi->RxXferCount--;
 8005424:	68fb      	ldr	r3, [r7, #12]
 8005426:	8fdb      	ldrh	r3, [r3, #62]	; 0x3e
 8005428:	b29b      	uxth	r3, r3
 800542a:	3b01      	subs	r3, #1
 800542c:	b29a      	uxth	r2, r3
 800542e:	68fb      	ldr	r3, [r7, #12]
 8005430:	87da      	strh	r2, [r3, #62]	; 0x3e
        /* Next Data is a Transmission (Tx). Tx is allowed */
        txallowed = 1U;
 8005432:	2301      	movs	r3, #1
 8005434:	62fb      	str	r3, [r7, #44]	; 0x2c
      }
      if ((((HAL_GetTick() - tickstart) >=  Timeout) && ((Timeout != HAL_MAX_DELAY))) || (Timeout == 0U))
 8005436:	f7fc fe95 	bl	8002164 <HAL_GetTick>
 800543a:	4602      	mov	r2, r0
 800543c:	6a7b      	ldr	r3, [r7, #36]	; 0x24
 800543e:	1ad3      	subs	r3, r2, r3
 8005440:	6bba      	ldr	r2, [r7, #56]	; 0x38
 8005442:	429a      	cmp	r2, r3
 8005444:	d803      	bhi.n	800544e <HAL_SPI_TransmitReceive+0x2ce>
 8005446:	6bbb      	ldr	r3, [r7, #56]	; 0x38
 8005448:	f1b3 3fff 	cmp.w	r3, #4294967295	; 0xffffffff
 800544c:	d102      	bne.n	8005454 <HAL_SPI_TransmitReceive+0x2d4>
 800544e:	6bbb      	ldr	r3, [r7, #56]	; 0x38
 8005450:	2b00      	cmp	r3, #0
 8005452:	d107      	bne.n	8005464 <HAL_SPI_TransmitReceive+0x2e4>
      {
        errorcode = HAL_TIMEOUT;
 8005454:	2303      	movs	r3, #3
 8005456:	f887 302b 	strb.w	r3, [r7, #43]	; 0x2b
        hspi->State = HAL_SPI_STATE_READY;
 800545a:	68fb      	ldr	r3, [r7, #12]
 800545c:	2201      	movs	r2, #1
 800545e:	f883 2051 	strb.w	r2, [r3, #81]	; 0x51
        goto error;
 8005462:	e033      	b.n	80054cc <HAL_SPI_TransmitReceive+0x34c>
    while ((hspi->TxXferCount > 0U) || (hspi->RxXferCount > 0U))
 8005464:	68fb      	ldr	r3, [r7, #12]
 8005466:	8edb      	ldrh	r3, [r3, #54]	; 0x36
 8005468:	b29b      	uxth	r3, r3
 800546a:	2b00      	cmp	r3, #0
 800546c:	d19e      	bne.n	80053ac <HAL_SPI_TransmitReceive+0x22c>
 800546e:	68fb      	ldr	r3, [r7, #12]
 8005470:	8fdb      	ldrh	r3, [r3, #62]	; 0x3e
 8005472:	b29b      	uxth	r3, r3
 8005474:	2b00      	cmp	r3, #0
 8005476:	d199      	bne.n	80053ac <HAL_SPI_TransmitReceive+0x22c>
    errorcode = HAL_ERROR;
  }
#endif /* USE_SPI_CRC */

  /* Check the end of the transaction */
  if (SPI_EndRxTxTransaction(hspi, Timeout, tickstart) != HAL_OK)
 8005478:	6a7a      	ldr	r2, [r7, #36]	; 0x24
 800547a:	6bb9      	ldr	r1, [r7, #56]	; 0x38
 800547c:	68f8      	ldr	r0, [r7, #12]
 800547e:	f000 f91d 	bl	80056bc <SPI_EndRxTxTransaction>
 8005482:	4603      	mov	r3, r0
 8005484:	2b00      	cmp	r3, #0
 8005486:	d006      	beq.n	8005496 <HAL_SPI_TransmitReceive+0x316>
  {
    errorcode = HAL_ERROR;
 8005488:	2301      	movs	r3, #1
 800548a:	f887 302b 	strb.w	r3, [r7, #43]	; 0x2b
    hspi->ErrorCode = HAL_SPI_ERROR_FLAG;
 800548e:	68fb      	ldr	r3, [r7, #12]
 8005490:	2220      	movs	r2, #32
 8005492:	655a      	str	r2, [r3, #84]	; 0x54
    goto error;
 8005494:	e01a      	b.n	80054cc <HAL_SPI_TransmitReceive+0x34c>
  }

  /* Clear overrun flag in 2 Lines communication mode because received is not read */
  if (hspi->Init.Direction == SPI_DIRECTION_2LINES)
 8005496:	68fb      	ldr	r3, [r7, #12]
 8005498:	689b      	ldr	r3, [r3, #8]
 800549a:	2b00      	cmp	r3, #0
 800549c:	d10a      	bne.n	80054b4 <HAL_SPI_TransmitReceive+0x334>
  {
    __HAL_SPI_CLEAR_OVRFLAG(hspi);
 800549e:	2300      	movs	r3, #0
 80054a0:	617b      	str	r3, [r7, #20]
 80054a2:	68fb      	ldr	r3, [r7, #12]
 80054a4:	681b      	ldr	r3, [r3, #0]
 80054a6:	68db      	ldr	r3, [r3, #12]
 80054a8:	617b      	str	r3, [r7, #20]
 80054aa:	68fb      	ldr	r3, [r7, #12]
 80054ac:	681b      	ldr	r3, [r3, #0]
 80054ae:	689b      	ldr	r3, [r3, #8]
 80054b0:	617b      	str	r3, [r7, #20]
 80054b2:	697b      	ldr	r3, [r7, #20]
  }

  if (hspi->ErrorCode != HAL_SPI_ERROR_NONE)
 80054b4:	68fb      	ldr	r3, [r7, #12]
 80054b6:	6d5b      	ldr	r3, [r3, #84]	; 0x54
 80054b8:	2b00      	cmp	r3, #0
 80054ba:	d003      	beq.n	80054c4 <HAL_SPI_TransmitReceive+0x344>
  {
    errorcode = HAL_ERROR;
 80054bc:	2301      	movs	r3, #1
 80054be:	f887 302b 	strb.w	r3, [r7, #43]	; 0x2b
 80054c2:	e003      	b.n	80054cc <HAL_SPI_TransmitReceive+0x34c>
  }
  else
  {
    hspi->State = HAL_SPI_STATE_READY;
 80054c4:	68fb      	ldr	r3, [r7, #12]
 80054c6:	2201      	movs	r2, #1
 80054c8:	f883 2051 	strb.w	r2, [r3, #81]	; 0x51
  }
  
error :
  __HAL_UNLOCK(hspi);
 80054cc:	68fb      	ldr	r3, [r7, #12]
 80054ce:	2200      	movs	r2, #0
 80054d0:	f883 2050 	strb.w	r2, [r3, #80]	; 0x50
  return errorcode;
 80054d4:	f897 302b 	ldrb.w	r3, [r7, #43]	; 0x2b
}
 80054d8:	4618      	mov	r0, r3
 80054da:	3730      	adds	r7, #48	; 0x30
 80054dc:	46bd      	mov	sp, r7
 80054de:	bd80      	pop	{r7, pc}

080054e0 <SPI_WaitFlagStateUntilTimeout>:
  * @param  Tickstart tick start value
  * @retval HAL status
  */
static HAL_StatusTypeDef SPI_WaitFlagStateUntilTimeout(SPI_HandleTypeDef *hspi, uint32_t Flag, FlagStatus State,
                                                       uint32_t Timeout, uint32_t Tickstart)
{
 80054e0:	b580      	push	{r7, lr}
 80054e2:	b088      	sub	sp, #32
 80054e4:	af00      	add	r7, sp, #0
 80054e6:	60f8      	str	r0, [r7, #12]
 80054e8:	60b9      	str	r1, [r7, #8]
 80054ea:	603b      	str	r3, [r7, #0]
 80054ec:	4613      	mov	r3, r2
 80054ee:	71fb      	strb	r3, [r7, #7]
  __IO uint32_t count;
  uint32_t tmp_timeout;
  uint32_t tmp_tickstart;

  /* Adjust Timeout value  in case of end of transfer */
  tmp_timeout   = Timeout - (HAL_GetTick() - Tickstart);
 80054f0:	f7fc fe38 	bl	8002164 <HAL_GetTick>
 80054f4:	4602      	mov	r2, r0
 80054f6:	6abb      	ldr	r3, [r7, #40]	; 0x28
 80054f8:	1a9b      	subs	r3, r3, r2
 80054fa:	683a      	ldr	r2, [r7, #0]
 80054fc:	4413      	add	r3, r2
 80054fe:	61fb      	str	r3, [r7, #28]
  tmp_tickstart = HAL_GetTick();
 8005500:	f7fc fe30 	bl	8002164 <HAL_GetTick>
 8005504:	61b8      	str	r0, [r7, #24]

  /* Calculate Timeout based on a software loop to avoid blocking issue if Systick is disabled */
  count = tmp_timeout * ((SystemCoreClock * 32U) >> 20U);
 8005506:	4b39      	ldr	r3, [pc, #228]	; (80055ec <SPI_WaitFlagStateUntilTimeout+0x10c>)
 8005508:	681b      	ldr	r3, [r3, #0]
 800550a:	015b      	lsls	r3, r3, #5
 800550c:	0d1b      	lsrs	r3, r3, #20
 800550e:	69fa      	ldr	r2, [r7, #28]
 8005510:	fb02 f303 	mul.w	r3, r2, r3
 8005514:	617b      	str	r3, [r7, #20]

  while ((__HAL_SPI_GET_FLAG(hspi, Flag) ? SET : RESET) != State)
 8005516:	e054      	b.n	80055c2 <SPI_WaitFlagStateUntilTimeout+0xe2>
  {
    if (Timeout != HAL_MAX_DELAY)
 8005518:	683b      	ldr	r3, [r7, #0]
 800551a:	f1b3 3fff 	cmp.w	r3, #4294967295	; 0xffffffff
 800551e:	d050      	beq.n	80055c2 <SPI_WaitFlagStateUntilTimeout+0xe2>
    {
      if (((HAL_GetTick() - tmp_tickstart) >= tmp_timeout) || (tmp_timeout == 0U))
 8005520:	f7fc fe20 	bl	8002164 <HAL_GetTick>
 8005524:	4602      	mov	r2, r0
 8005526:	69bb      	ldr	r3, [r7, #24]
 8005528:	1ad3      	subs	r3, r2, r3
 800552a:	69fa      	ldr	r2, [r7, #28]
 800552c:	429a      	cmp	r2, r3
 800552e:	d902      	bls.n	8005536 <SPI_WaitFlagStateUntilTimeout+0x56>
 8005530:	69fb      	ldr	r3, [r7, #28]
 8005532:	2b00      	cmp	r3, #0
 8005534:	d13d      	bne.n	80055b2 <SPI_WaitFlagStateUntilTimeout+0xd2>
        /* Disable the SPI and reset the CRC: the CRC value should be cleared
           on both master and slave sides in order to resynchronize the master
           and slave for their respective CRC calculation */

        /* Disable TXE, RXNE and ERR interrupts for the interrupt process */
        __HAL_SPI_DISABLE_IT(hspi, (SPI_IT_TXE | SPI_IT_RXNE | SPI_IT_ERR));
 8005536:	68fb      	ldr	r3, [r7, #12]
 8005538:	681b      	ldr	r3, [r3, #0]
 800553a:	685a      	ldr	r2, [r3, #4]
 800553c:	68fb      	ldr	r3, [r7, #12]
 800553e:	681b      	ldr	r3, [r3, #0]
 8005540:	f022 02e0 	bic.w	r2, r2, #224	; 0xe0
 8005544:	605a      	str	r2, [r3, #4]

        if ((hspi->Init.Mode == SPI_MODE_MASTER) && ((hspi->Init.Direction == SPI_DIRECTION_1LINE)
 8005546:	68fb      	ldr	r3, [r7, #12]
 8005548:	685b      	ldr	r3, [r3, #4]
 800554a:	f5b3 7f82 	cmp.w	r3, #260	; 0x104
 800554e:	d111      	bne.n	8005574 <SPI_WaitFlagStateUntilTimeout+0x94>
 8005550:	68fb      	ldr	r3, [r7, #12]
 8005552:	689b      	ldr	r3, [r3, #8]
 8005554:	f5b3 4f00 	cmp.w	r3, #32768	; 0x8000
 8005558:	d004      	beq.n	8005564 <SPI_WaitFlagStateUntilTimeout+0x84>
                                                     || (hspi->Init.Direction == SPI_DIRECTION_2LINES_RXONLY)))
 800555a:	68fb      	ldr	r3, [r7, #12]
 800555c:	689b      	ldr	r3, [r3, #8]
 800555e:	f5b3 6f80 	cmp.w	r3, #1024	; 0x400
 8005562:	d107      	bne.n	8005574 <SPI_WaitFlagStateUntilTimeout+0x94>
        {
          /* Disable SPI peripheral */
          __HAL_SPI_DISABLE(hspi);
 8005564:	68fb      	ldr	r3, [r7, #12]
 8005566:	681b      	ldr	r3, [r3, #0]
 8005568:	681a      	ldr	r2, [r3, #0]
 800556a:	68fb      	ldr	r3, [r7, #12]
 800556c:	681b      	ldr	r3, [r3, #0]
 800556e:	f022 0240 	bic.w	r2, r2, #64	; 0x40
 8005572:	601a      	str	r2, [r3, #0]
        }

        /* Reset CRC Calculation */
        if (hspi->Init.CRCCalculation == SPI_CRCCALCULATION_ENABLE)
 8005574:	68fb      	ldr	r3, [r7, #12]
 8005576:	6a9b      	ldr	r3, [r3, #40]	; 0x28
 8005578:	f5b3 5f00 	cmp.w	r3, #8192	; 0x2000
 800557c:	d10f      	bne.n	800559e <SPI_WaitFlagStateUntilTimeout+0xbe>
        {
          SPI_RESET_CRC(hspi);
 800557e:	68fb      	ldr	r3, [r7, #12]
 8005580:	681b      	ldr	r3, [r3, #0]
 8005582:	681a      	ldr	r2, [r3, #0]
 8005584:	68fb      	ldr	r3, [r7, #12]
 8005586:	681b      	ldr	r3, [r3, #0]
 8005588:	f422 5200 	bic.w	r2, r2, #8192	; 0x2000
 800558c:	601a      	str	r2, [r3, #0]
 800558e:	68fb      	ldr	r3, [r7, #12]
 8005590:	681b      	ldr	r3, [r3, #0]
 8005592:	681a      	ldr	r2, [r3, #0]
 8005594:	68fb      	ldr	r3, [r7, #12]
 8005596:	681b      	ldr	r3, [r3, #0]
 8005598:	f442 5200 	orr.w	r2, r2, #8192	; 0x2000
 800559c:	601a      	str	r2, [r3, #0]
        }

        hspi->State = HAL_SPI_STATE_READY;
 800559e:	68fb      	ldr	r3, [r7, #12]
 80055a0:	2201      	movs	r2, #1
 80055a2:	f883 2051 	strb.w	r2, [r3, #81]	; 0x51

        /* Process Unlocked */
        __HAL_UNLOCK(hspi);
 80055a6:	68fb      	ldr	r3, [r7, #12]
 80055a8:	2200      	movs	r2, #0
 80055aa:	f883 2050 	strb.w	r2, [r3, #80]	; 0x50

        return HAL_TIMEOUT;
 80055ae:	2303      	movs	r3, #3
 80055b0:	e017      	b.n	80055e2 <SPI_WaitFlagStateUntilTimeout+0x102>
      }
      /* If Systick is disabled or not incremented, deactivate timeout to go in disable loop procedure */
      if (count == 0U)
 80055b2:	697b      	ldr	r3, [r7, #20]
 80055b4:	2b00      	cmp	r3, #0
 80055b6:	d101      	bne.n	80055bc <SPI_WaitFlagStateUntilTimeout+0xdc>
      {
        tmp_timeout = 0U;
 80055b8:	2300      	movs	r3, #0
 80055ba:	61fb      	str	r3, [r7, #28]
      }
      count--;
 80055bc:	697b      	ldr	r3, [r7, #20]
 80055be:	3b01      	subs	r3, #1
 80055c0:	617b      	str	r3, [r7, #20]
  while ((__HAL_SPI_GET_FLAG(hspi, Flag) ? SET : RESET) != State)
 80055c2:	68fb      	ldr	r3, [r7, #12]
 80055c4:	681b      	ldr	r3, [r3, #0]
 80055c6:	689a      	ldr	r2, [r3, #8]
 80055c8:	68bb      	ldr	r3, [r7, #8]
 80055ca:	4013      	ands	r3, r2
 80055cc:	68ba      	ldr	r2, [r7, #8]
 80055ce:	429a      	cmp	r2, r3
 80055d0:	bf0c      	ite	eq
 80055d2:	2301      	moveq	r3, #1
 80055d4:	2300      	movne	r3, #0
 80055d6:	b2db      	uxtb	r3, r3
 80055d8:	461a      	mov	r2, r3
 80055da:	79fb      	ldrb	r3, [r7, #7]
 80055dc:	429a      	cmp	r2, r3
 80055de:	d19b      	bne.n	8005518 <SPI_WaitFlagStateUntilTimeout+0x38>
    }
  }

  return HAL_OK;
 80055e0:	2300      	movs	r3, #0
}
 80055e2:	4618      	mov	r0, r3
 80055e4:	3720      	adds	r7, #32
 80055e6:	46bd      	mov	sp, r7
 80055e8:	bd80      	pop	{r7, pc}
 80055ea:	bf00      	nop
 80055ec:	20000018 	.word	0x20000018

080055f0 <SPI_EndRxTransaction>:
  * @param  Timeout Timeout duration
  * @param  Tickstart tick start value
  * @retval HAL status
  */
static HAL_StatusTypeDef SPI_EndRxTransaction(SPI_HandleTypeDef *hspi,  uint32_t Timeout, uint32_t Tickstart)
{
 80055f0:	b580      	push	{r7, lr}
 80055f2:	b086      	sub	sp, #24
 80055f4:	af02      	add	r7, sp, #8
 80055f6:	60f8      	str	r0, [r7, #12]
 80055f8:	60b9      	str	r1, [r7, #8]
 80055fa:	607a      	str	r2, [r7, #4]
  if ((hspi->Init.Mode == SPI_MODE_MASTER) && ((hspi->Init.Direction == SPI_DIRECTION_1LINE)
 80055fc:	68fb      	ldr	r3, [r7, #12]
 80055fe:	685b      	ldr	r3, [r3, #4]
 8005600:	f5b3 7f82 	cmp.w	r3, #260	; 0x104
 8005604:	d111      	bne.n	800562a <SPI_EndRxTransaction+0x3a>
 8005606:	68fb      	ldr	r3, [r7, #12]
 8005608:	689b      	ldr	r3, [r3, #8]
 800560a:	f5b3 4f00 	cmp.w	r3, #32768	; 0x8000
 800560e:	d004      	beq.n	800561a <SPI_EndRxTransaction+0x2a>
                                               || (hspi->Init.Direction == SPI_DIRECTION_2LINES_RXONLY)))
 8005610:	68fb      	ldr	r3, [r7, #12]
 8005612:	689b      	ldr	r3, [r3, #8]
 8005614:	f5b3 6f80 	cmp.w	r3, #1024	; 0x400
 8005618:	d107      	bne.n	800562a <SPI_EndRxTransaction+0x3a>
  {
    /* Disable SPI peripheral */
    __HAL_SPI_DISABLE(hspi);
 800561a:	68fb      	ldr	r3, [r7, #12]
 800561c:	681b      	ldr	r3, [r3, #0]
 800561e:	681a      	ldr	r2, [r3, #0]
 8005620:	68fb      	ldr	r3, [r7, #12]
 8005622:	681b      	ldr	r3, [r3, #0]
 8005624:	f022 0240 	bic.w	r2, r2, #64	; 0x40
 8005628:	601a      	str	r2, [r3, #0]
  }

  /* Erratasheet: BSY bit may stay high at the end of a data transfer in Slave mode */
  if (hspi->Init.Mode == SPI_MODE_MASTER)
 800562a:	68fb      	ldr	r3, [r7, #12]
 800562c:	685b      	ldr	r3, [r3, #4]
 800562e:	f5b3 7f82 	cmp.w	r3, #260	; 0x104
 8005632:	d12a      	bne.n	800568a <SPI_EndRxTransaction+0x9a>
  {
    if (hspi->Init.Direction != SPI_DIRECTION_2LINES_RXONLY)
 8005634:	68fb      	ldr	r3, [r7, #12]
 8005636:	689b      	ldr	r3, [r3, #8]
 8005638:	f5b3 6f80 	cmp.w	r3, #1024	; 0x400
 800563c:	d012      	beq.n	8005664 <SPI_EndRxTransaction+0x74>
    {
      /* Control the BSY flag */
      if (SPI_WaitFlagStateUntilTimeout(hspi, SPI_FLAG_BSY, RESET, Timeout, Tickstart) != HAL_OK)
 800563e:	687b      	ldr	r3, [r7, #4]
 8005640:	9300      	str	r3, [sp, #0]
 8005642:	68bb      	ldr	r3, [r7, #8]
 8005644:	2200      	movs	r2, #0
 8005646:	2180      	movs	r1, #128	; 0x80
 8005648:	68f8      	ldr	r0, [r7, #12]
 800564a:	f7ff ff49 	bl	80054e0 <SPI_WaitFlagStateUntilTimeout>
 800564e:	4603      	mov	r3, r0
 8005650:	2b00      	cmp	r3, #0
 8005652:	d02d      	beq.n	80056b0 <SPI_EndRxTransaction+0xc0>
      {
        SET_BIT(hspi->ErrorCode, HAL_SPI_ERROR_FLAG);
 8005654:	68fb      	ldr	r3, [r7, #12]
 8005656:	6d5b      	ldr	r3, [r3, #84]	; 0x54
 8005658:	f043 0220 	orr.w	r2, r3, #32
 800565c:	68fb      	ldr	r3, [r7, #12]
 800565e:	655a      	str	r2, [r3, #84]	; 0x54
        return HAL_TIMEOUT;
 8005660:	2303      	movs	r3, #3
 8005662:	e026      	b.n	80056b2 <SPI_EndRxTransaction+0xc2>
      }
    }
    else
    {
      /* Wait the RXNE reset */
      if (SPI_WaitFlagStateUntilTimeout(hspi, SPI_FLAG_RXNE, RESET, Timeout, Tickstart) != HAL_OK)
 8005664:	687b      	ldr	r3, [r7, #4]
 8005666:	9300      	str	r3, [sp, #0]
 8005668:	68bb      	ldr	r3, [r7, #8]
 800566a:	2200      	movs	r2, #0
 800566c:	2101      	movs	r1, #1
 800566e:	68f8      	ldr	r0, [r7, #12]
 8005670:	f7ff ff36 	bl	80054e0 <SPI_WaitFlagStateUntilTimeout>
 8005674:	4603      	mov	r3, r0
 8005676:	2b00      	cmp	r3, #0
 8005678:	d01a      	beq.n	80056b0 <SPI_EndRxTransaction+0xc0>
      {
        SET_BIT(hspi->ErrorCode, HAL_SPI_ERROR_FLAG);
 800567a:	68fb      	ldr	r3, [r7, #12]
 800567c:	6d5b      	ldr	r3, [r3, #84]	; 0x54
 800567e:	f043 0220 	orr.w	r2, r3, #32
 8005682:	68fb      	ldr	r3, [r7, #12]
 8005684:	655a      	str	r2, [r3, #84]	; 0x54
        return HAL_TIMEOUT;
 8005686:	2303      	movs	r3, #3
 8005688:	e013      	b.n	80056b2 <SPI_EndRxTransaction+0xc2>
    }
  }
  else
  {
    /* Wait the RXNE reset */
    if (SPI_WaitFlagStateUntilTimeout(hspi, SPI_FLAG_RXNE, RESET, Timeout, Tickstart) != HAL_OK)
 800568a:	687b      	ldr	r3, [r7, #4]
 800568c:	9300      	str	r3, [sp, #0]
 800568e:	68bb      	ldr	r3, [r7, #8]
 8005690:	2200      	movs	r2, #0
 8005692:	2101      	movs	r1, #1
 8005694:	68f8      	ldr	r0, [r7, #12]
 8005696:	f7ff ff23 	bl	80054e0 <SPI_WaitFlagStateUntilTimeout>
 800569a:	4603      	mov	r3, r0
 800569c:	2b00      	cmp	r3, #0
 800569e:	d007      	beq.n	80056b0 <SPI_EndRxTransaction+0xc0>
    {
      SET_BIT(hspi->ErrorCode, HAL_SPI_ERROR_FLAG);
 80056a0:	68fb      	ldr	r3, [r7, #12]
 80056a2:	6d5b      	ldr	r3, [r3, #84]	; 0x54
 80056a4:	f043 0220 	orr.w	r2, r3, #32
 80056a8:	68fb      	ldr	r3, [r7, #12]
 80056aa:	655a      	str	r2, [r3, #84]	; 0x54
      return HAL_TIMEOUT;
 80056ac:	2303      	movs	r3, #3
 80056ae:	e000      	b.n	80056b2 <SPI_EndRxTransaction+0xc2>
    }
  }
  return HAL_OK;
 80056b0:	2300      	movs	r3, #0
}
 80056b2:	4618      	mov	r0, r3
 80056b4:	3710      	adds	r7, #16
 80056b6:	46bd      	mov	sp, r7
 80056b8:	bd80      	pop	{r7, pc}
	...

080056bc <SPI_EndRxTxTransaction>:
  * @param  Timeout Timeout duration
  * @param  Tickstart tick start value
  * @retval HAL status
  */
static HAL_StatusTypeDef SPI_EndRxTxTransaction(SPI_HandleTypeDef *hspi, uint32_t Timeout, uint32_t Tickstart)
{
 80056bc:	b580      	push	{r7, lr}
 80056be:	b088      	sub	sp, #32
 80056c0:	af02      	add	r7, sp, #8
 80056c2:	60f8      	str	r0, [r7, #12]
 80056c4:	60b9      	str	r1, [r7, #8]
 80056c6:	607a      	str	r2, [r7, #4]
  /* Wait until TXE flag */
  if(SPI_WaitFlagStateUntilTimeout(hspi, SPI_FLAG_TXE, SET, Timeout, Tickstart) != HAL_OK)
 80056c8:	687b      	ldr	r3, [r7, #4]
 80056ca:	9300      	str	r3, [sp, #0]
 80056cc:	68bb      	ldr	r3, [r7, #8]
 80056ce:	2201      	movs	r2, #1
 80056d0:	2102      	movs	r1, #2
 80056d2:	68f8      	ldr	r0, [r7, #12]
 80056d4:	f7ff ff04 	bl	80054e0 <SPI_WaitFlagStateUntilTimeout>
 80056d8:	4603      	mov	r3, r0
 80056da:	2b00      	cmp	r3, #0
 80056dc:	d007      	beq.n	80056ee <SPI_EndRxTxTransaction+0x32>
  {
    SET_BIT(hspi->ErrorCode, HAL_SPI_ERROR_FLAG);
 80056de:	68fb      	ldr	r3, [r7, #12]
 80056e0:	6d5b      	ldr	r3, [r3, #84]	; 0x54
 80056e2:	f043 0220 	orr.w	r2, r3, #32
 80056e6:	68fb      	ldr	r3, [r7, #12]
 80056e8:	655a      	str	r2, [r3, #84]	; 0x54
    return HAL_TIMEOUT;
 80056ea:	2303      	movs	r3, #3
 80056ec:	e032      	b.n	8005754 <SPI_EndRxTxTransaction+0x98>
  }

  /* Timeout in s */
  __IO uint32_t count = SPI_BSY_FLAG_WORKAROUND_TIMEOUT * (SystemCoreClock / 24U / 1000000U);
 80056ee:	4b1b      	ldr	r3, [pc, #108]	; (800575c <SPI_EndRxTxTransaction+0xa0>)
 80056f0:	681b      	ldr	r3, [r3, #0]
 80056f2:	4a1b      	ldr	r2, [pc, #108]	; (8005760 <SPI_EndRxTxTransaction+0xa4>)
 80056f4:	fba2 2303 	umull	r2, r3, r2, r3
 80056f8:	0d5b      	lsrs	r3, r3, #21
 80056fa:	f44f 727a 	mov.w	r2, #1000	; 0x3e8
 80056fe:	fb02 f303 	mul.w	r3, r2, r3
 8005702:	617b      	str	r3, [r7, #20]
  /* Erratasheet: BSY bit may stay high at the end of a data transfer in Slave mode */
  if (hspi->Init.Mode == SPI_MODE_MASTER)
 8005704:	68fb      	ldr	r3, [r7, #12]
 8005706:	685b      	ldr	r3, [r3, #4]
 8005708:	f5b3 7f82 	cmp.w	r3, #260	; 0x104
 800570c:	d112      	bne.n	8005734 <SPI_EndRxTxTransaction+0x78>
  {
    /* Control the BSY flag */
    if (SPI_WaitFlagStateUntilTimeout(hspi, SPI_FLAG_BSY, RESET, Timeout, Tickstart) != HAL_OK)
 800570e:	687b      	ldr	r3, [r7, #4]
 8005710:	9300      	str	r3, [sp, #0]
 8005712:	68bb      	ldr	r3, [r7, #8]
 8005714:	2200      	movs	r2, #0
 8005716:	2180      	movs	r1, #128	; 0x80
 8005718:	68f8      	ldr	r0, [r7, #12]
 800571a:	f7ff fee1 	bl	80054e0 <SPI_WaitFlagStateUntilTimeout>
 800571e:	4603      	mov	r3, r0
 8005720:	2b00      	cmp	r3, #0
 8005722:	d016      	beq.n	8005752 <SPI_EndRxTxTransaction+0x96>
    {
      SET_BIT(hspi->ErrorCode, HAL_SPI_ERROR_FLAG);
 8005724:	68fb      	ldr	r3, [r7, #12]
 8005726:	6d5b      	ldr	r3, [r3, #84]	; 0x54
 8005728:	f043 0220 	orr.w	r2, r3, #32
 800572c:	68fb      	ldr	r3, [r7, #12]
 800572e:	655a      	str	r2, [r3, #84]	; 0x54
      return HAL_TIMEOUT;
 8005730:	2303      	movs	r3, #3
 8005732:	e00f      	b.n	8005754 <SPI_EndRxTxTransaction+0x98>
    * User have to calculate the timeout value to fit with the time of 1 byte transfer.
    * This time is directly link with the SPI clock from Master device.
    */
    do
    {
      if (count == 0U)
 8005734:	697b      	ldr	r3, [r7, #20]
 8005736:	2b00      	cmp	r3, #0
 8005738:	d00a      	beq.n	8005750 <SPI_EndRxTxTransaction+0x94>
      {
        break;
      }
      count--;
 800573a:	697b      	ldr	r3, [r7, #20]
 800573c:	3b01      	subs	r3, #1
 800573e:	617b      	str	r3, [r7, #20]
    } while (__HAL_SPI_GET_FLAG(hspi, SPI_FLAG_BSY) != RESET);
 8005740:	68fb      	ldr	r3, [r7, #12]
 8005742:	681b      	ldr	r3, [r3, #0]
 8005744:	689b      	ldr	r3, [r3, #8]
 8005746:	f003 0380 	and.w	r3, r3, #128	; 0x80
 800574a:	2b80      	cmp	r3, #128	; 0x80
 800574c:	d0f2      	beq.n	8005734 <SPI_EndRxTxTransaction+0x78>
 800574e:	e000      	b.n	8005752 <SPI_EndRxTxTransaction+0x96>
        break;
 8005750:	bf00      	nop
  }

  return HAL_OK;
 8005752:	2300      	movs	r3, #0
}
 8005754:	4618      	mov	r0, r3
 8005756:	3718      	adds	r7, #24
 8005758:	46bd      	mov	sp, r7
 800575a:	bd80      	pop	{r7, pc}
 800575c:	20000018 	.word	0x20000018
 8005760:	165e9f81 	.word	0x165e9f81

08005764 <HAL_TIM_Base_Init>:
  *         Ex: call @ref HAL_TIM_Base_DeInit() before HAL_TIM_Base_Init()
  * @param  htim TIM Base handle
  * @retval HAL status
  */
HAL_StatusTypeDef HAL_TIM_Base_Init(TIM_HandleTypeDef *htim)
{
 8005764:	b580      	push	{r7, lr}
 8005766:	b082      	sub	sp, #8
 8005768:	af00      	add	r7, sp, #0
 800576a:	6078      	str	r0, [r7, #4]
  /* Check the TIM handle allocation */
  if (htim == NULL)
 800576c:	687b      	ldr	r3, [r7, #4]
 800576e:	2b00      	cmp	r3, #0
 8005770:	d101      	bne.n	8005776 <HAL_TIM_Base_Init+0x12>
  {
    return HAL_ERROR;
 8005772:	2301      	movs	r3, #1
 8005774:	e041      	b.n	80057fa <HAL_TIM_Base_Init+0x96>
  assert_param(IS_TIM_COUNTER_MODE(htim->Init.CounterMode));
  assert_param(IS_TIM_CLOCKDIVISION_DIV(htim->Init.ClockDivision));
  assert_param(IS_TIM_PERIOD(htim, htim->Init.Period));
  assert_param(IS_TIM_AUTORELOAD_PRELOAD(htim->Init.AutoReloadPreload));

  if (htim->State == HAL_TIM_STATE_RESET)
 8005776:	687b      	ldr	r3, [r7, #4]
 8005778:	f893 303d 	ldrb.w	r3, [r3, #61]	; 0x3d
 800577c:	b2db      	uxtb	r3, r3
 800577e:	2b00      	cmp	r3, #0
 8005780:	d106      	bne.n	8005790 <HAL_TIM_Base_Init+0x2c>
  {
    /* Allocate lock resource and initialize it */
    htim->Lock = HAL_UNLOCKED;
 8005782:	687b      	ldr	r3, [r7, #4]
 8005784:	2200      	movs	r2, #0
 8005786:	f883 203c 	strb.w	r2, [r3, #60]	; 0x3c
    }
    /* Init the low level hardware : GPIO, CLOCK, NVIC */
    htim->Base_MspInitCallback(htim);
#else
    /* Init the low level hardware : GPIO, CLOCK, NVIC */
    HAL_TIM_Base_MspInit(htim);
 800578a:	6878      	ldr	r0, [r7, #4]
 800578c:	f7fc fa86 	bl	8001c9c <HAL_TIM_Base_MspInit>
#endif /* USE_HAL_TIM_REGISTER_CALLBACKS */
  }

  /* Set the TIM state */
  htim->State = HAL_TIM_STATE_BUSY;
 8005790:	687b      	ldr	r3, [r7, #4]
 8005792:	2202      	movs	r2, #2
 8005794:	f883 203d 	strb.w	r2, [r3, #61]	; 0x3d

  /* Set the Time Base configuration */
  TIM_Base_SetConfig(htim->Instance, &htim->Init);
 8005798:	687b      	ldr	r3, [r7, #4]
 800579a:	681a      	ldr	r2, [r3, #0]
 800579c:	687b      	ldr	r3, [r7, #4]
 800579e:	3304      	adds	r3, #4
 80057a0:	4619      	mov	r1, r3
 80057a2:	4610      	mov	r0, r2
 80057a4:	f000 f9c0 	bl	8005b28 <TIM_Base_SetConfig>

  /* Initialize the DMA burst operation state */
  htim->DMABurstState = HAL_DMA_BURST_STATE_READY;
 80057a8:	687b      	ldr	r3, [r7, #4]
 80057aa:	2201      	movs	r2, #1
 80057ac:	f883 2046 	strb.w	r2, [r3, #70]	; 0x46

  /* Initialize the TIM channels state */
  TIM_CHANNEL_STATE_SET_ALL(htim, HAL_TIM_CHANNEL_STATE_READY);
 80057b0:	687b      	ldr	r3, [r7, #4]
 80057b2:	2201      	movs	r2, #1
 80057b4:	f883 203e 	strb.w	r2, [r3, #62]	; 0x3e
 80057b8:	687b      	ldr	r3, [r7, #4]
 80057ba:	2201      	movs	r2, #1
 80057bc:	f883 203f 	strb.w	r2, [r3, #63]	; 0x3f
 80057c0:	687b      	ldr	r3, [r7, #4]
 80057c2:	2201      	movs	r2, #1
 80057c4:	f883 2040 	strb.w	r2, [r3, #64]	; 0x40
 80057c8:	687b      	ldr	r3, [r7, #4]
 80057ca:	2201      	movs	r2, #1
 80057cc:	f883 2041 	strb.w	r2, [r3, #65]	; 0x41
  TIM_CHANNEL_N_STATE_SET_ALL(htim, HAL_TIM_CHANNEL_STATE_READY);
 80057d0:	687b      	ldr	r3, [r7, #4]
 80057d2:	2201      	movs	r2, #1
 80057d4:	f883 2042 	strb.w	r2, [r3, #66]	; 0x42
 80057d8:	687b      	ldr	r3, [r7, #4]
 80057da:	2201      	movs	r2, #1
 80057dc:	f883 2043 	strb.w	r2, [r3, #67]	; 0x43
 80057e0:	687b      	ldr	r3, [r7, #4]
 80057e2:	2201      	movs	r2, #1
 80057e4:	f883 2044 	strb.w	r2, [r3, #68]	; 0x44
 80057e8:	687b      	ldr	r3, [r7, #4]
 80057ea:	2201      	movs	r2, #1
 80057ec:	f883 2045 	strb.w	r2, [r3, #69]	; 0x45

  /* Initialize the TIM state*/
  htim->State = HAL_TIM_STATE_READY;
 80057f0:	687b      	ldr	r3, [r7, #4]
 80057f2:	2201      	movs	r2, #1
 80057f4:	f883 203d 	strb.w	r2, [r3, #61]	; 0x3d

  return HAL_OK;
 80057f8:	2300      	movs	r3, #0
}
 80057fa:	4618      	mov	r0, r3
 80057fc:	3708      	adds	r7, #8
 80057fe:	46bd      	mov	sp, r7
 8005800:	bd80      	pop	{r7, pc}
	...

08005804 <HAL_TIM_Base_Start_IT>:
  * @brief  Starts the TIM Base generation in interrupt mode.
  * @param  htim TIM Base handle
  * @retval HAL status
  */
HAL_StatusTypeDef HAL_TIM_Base_Start_IT(TIM_HandleTypeDef *htim)
{
 8005804:	b480      	push	{r7}
 8005806:	b085      	sub	sp, #20
 8005808:	af00      	add	r7, sp, #0
 800580a:	6078      	str	r0, [r7, #4]

  /* Check the parameters */
  assert_param(IS_TIM_INSTANCE(htim->Instance));

  /* Check the TIM state */
  if (htim->State != HAL_TIM_STATE_READY)
 800580c:	687b      	ldr	r3, [r7, #4]
 800580e:	f893 303d 	ldrb.w	r3, [r3, #61]	; 0x3d
 8005812:	b2db      	uxtb	r3, r3
 8005814:	2b01      	cmp	r3, #1
 8005816:	d001      	beq.n	800581c <HAL_TIM_Base_Start_IT+0x18>
  {
    return HAL_ERROR;
 8005818:	2301      	movs	r3, #1
 800581a:	e04e      	b.n	80058ba <HAL_TIM_Base_Start_IT+0xb6>
  }

  /* Set the TIM state */
  htim->State = HAL_TIM_STATE_BUSY;
 800581c:	687b      	ldr	r3, [r7, #4]
 800581e:	2202      	movs	r2, #2
 8005820:	f883 203d 	strb.w	r2, [r3, #61]	; 0x3d

  /* Enable the TIM Update interrupt */
  __HAL_TIM_ENABLE_IT(htim, TIM_IT_UPDATE);
 8005824:	687b      	ldr	r3, [r7, #4]
 8005826:	681b      	ldr	r3, [r3, #0]
 8005828:	68da      	ldr	r2, [r3, #12]
 800582a:	687b      	ldr	r3, [r7, #4]
 800582c:	681b      	ldr	r3, [r3, #0]
 800582e:	f042 0201 	orr.w	r2, r2, #1
 8005832:	60da      	str	r2, [r3, #12]

  /* Enable the Peripheral, except in trigger mode where enable is automatically done with trigger */
  if (IS_TIM_SLAVE_INSTANCE(htim->Instance))
 8005834:	687b      	ldr	r3, [r7, #4]
 8005836:	681b      	ldr	r3, [r3, #0]
 8005838:	4a23      	ldr	r2, [pc, #140]	; (80058c8 <HAL_TIM_Base_Start_IT+0xc4>)
 800583a:	4293      	cmp	r3, r2
 800583c:	d022      	beq.n	8005884 <HAL_TIM_Base_Start_IT+0x80>
 800583e:	687b      	ldr	r3, [r7, #4]
 8005840:	681b      	ldr	r3, [r3, #0]
 8005842:	f1b3 4f80 	cmp.w	r3, #1073741824	; 0x40000000
 8005846:	d01d      	beq.n	8005884 <HAL_TIM_Base_Start_IT+0x80>
 8005848:	687b      	ldr	r3, [r7, #4]
 800584a:	681b      	ldr	r3, [r3, #0]
 800584c:	4a1f      	ldr	r2, [pc, #124]	; (80058cc <HAL_TIM_Base_Start_IT+0xc8>)
 800584e:	4293      	cmp	r3, r2
 8005850:	d018      	beq.n	8005884 <HAL_TIM_Base_Start_IT+0x80>
 8005852:	687b      	ldr	r3, [r7, #4]
 8005854:	681b      	ldr	r3, [r3, #0]
 8005856:	4a1e      	ldr	r2, [pc, #120]	; (80058d0 <HAL_TIM_Base_Start_IT+0xcc>)
 8005858:	4293      	cmp	r3, r2
 800585a:	d013      	beq.n	8005884 <HAL_TIM_Base_Start_IT+0x80>
 800585c:	687b      	ldr	r3, [r7, #4]
 800585e:	681b      	ldr	r3, [r3, #0]
 8005860:	4a1c      	ldr	r2, [pc, #112]	; (80058d4 <HAL_TIM_Base_Start_IT+0xd0>)
 8005862:	4293      	cmp	r3, r2
 8005864:	d00e      	beq.n	8005884 <HAL_TIM_Base_Start_IT+0x80>
 8005866:	687b      	ldr	r3, [r7, #4]
 8005868:	681b      	ldr	r3, [r3, #0]
 800586a:	4a1b      	ldr	r2, [pc, #108]	; (80058d8 <HAL_TIM_Base_Start_IT+0xd4>)
 800586c:	4293      	cmp	r3, r2
 800586e:	d009      	beq.n	8005884 <HAL_TIM_Base_Start_IT+0x80>
 8005870:	687b      	ldr	r3, [r7, #4]
 8005872:	681b      	ldr	r3, [r3, #0]
 8005874:	4a19      	ldr	r2, [pc, #100]	; (80058dc <HAL_TIM_Base_Start_IT+0xd8>)
 8005876:	4293      	cmp	r3, r2
 8005878:	d004      	beq.n	8005884 <HAL_TIM_Base_Start_IT+0x80>
 800587a:	687b      	ldr	r3, [r7, #4]
 800587c:	681b      	ldr	r3, [r3, #0]
 800587e:	4a18      	ldr	r2, [pc, #96]	; (80058e0 <HAL_TIM_Base_Start_IT+0xdc>)
 8005880:	4293      	cmp	r3, r2
 8005882:	d111      	bne.n	80058a8 <HAL_TIM_Base_Start_IT+0xa4>
  {
    tmpsmcr = htim->Instance->SMCR & TIM_SMCR_SMS;
 8005884:	687b      	ldr	r3, [r7, #4]
 8005886:	681b      	ldr	r3, [r3, #0]
 8005888:	689b      	ldr	r3, [r3, #8]
 800588a:	f003 0307 	and.w	r3, r3, #7
 800588e:	60fb      	str	r3, [r7, #12]
    if (!IS_TIM_SLAVEMODE_TRIGGER_ENABLED(tmpsmcr))
 8005890:	68fb      	ldr	r3, [r7, #12]
 8005892:	2b06      	cmp	r3, #6
 8005894:	d010      	beq.n	80058b8 <HAL_TIM_Base_Start_IT+0xb4>
    {
      __HAL_TIM_ENABLE(htim);
 8005896:	687b      	ldr	r3, [r7, #4]
 8005898:	681b      	ldr	r3, [r3, #0]
 800589a:	681a      	ldr	r2, [r3, #0]
 800589c:	687b      	ldr	r3, [r7, #4]
 800589e:	681b      	ldr	r3, [r3, #0]
 80058a0:	f042 0201 	orr.w	r2, r2, #1
 80058a4:	601a      	str	r2, [r3, #0]
    if (!IS_TIM_SLAVEMODE_TRIGGER_ENABLED(tmpsmcr))
 80058a6:	e007      	b.n	80058b8 <HAL_TIM_Base_Start_IT+0xb4>
    }
  }
  else
  {
    __HAL_TIM_ENABLE(htim);
 80058a8:	687b      	ldr	r3, [r7, #4]
 80058aa:	681b      	ldr	r3, [r3, #0]
 80058ac:	681a      	ldr	r2, [r3, #0]
 80058ae:	687b      	ldr	r3, [r7, #4]
 80058b0:	681b      	ldr	r3, [r3, #0]
 80058b2:	f042 0201 	orr.w	r2, r2, #1
 80058b6:	601a      	str	r2, [r3, #0]
  }

  /* Return function status */
  return HAL_OK;
 80058b8:	2300      	movs	r3, #0
}
 80058ba:	4618      	mov	r0, r3
 80058bc:	3714      	adds	r7, #20
 80058be:	46bd      	mov	sp, r7
 80058c0:	f85d 7b04 	ldr.w	r7, [sp], #4
 80058c4:	4770      	bx	lr
 80058c6:	bf00      	nop
 80058c8:	40010000 	.word	0x40010000
 80058cc:	40000400 	.word	0x40000400
 80058d0:	40000800 	.word	0x40000800
 80058d4:	40000c00 	.word	0x40000c00
 80058d8:	40010400 	.word	0x40010400
 80058dc:	40014000 	.word	0x40014000
 80058e0:	40001800 	.word	0x40001800

080058e4 <HAL_TIM_IRQHandler>:
  * @brief  This function handles TIM interrupts requests.
  * @param  htim TIM  handle
  * @retval None
  */
void HAL_TIM_IRQHandler(TIM_HandleTypeDef *htim)
{
 80058e4:	b580      	push	{r7, lr}
 80058e6:	b084      	sub	sp, #16
 80058e8:	af00      	add	r7, sp, #0
 80058ea:	6078      	str	r0, [r7, #4]
  uint32_t itsource = htim->Instance->DIER;
 80058ec:	687b      	ldr	r3, [r7, #4]
 80058ee:	681b      	ldr	r3, [r3, #0]
 80058f0:	68db      	ldr	r3, [r3, #12]
 80058f2:	60fb      	str	r3, [r7, #12]
  uint32_t itflag   = htim->Instance->SR;
 80058f4:	687b      	ldr	r3, [r7, #4]
 80058f6:	681b      	ldr	r3, [r3, #0]
 80058f8:	691b      	ldr	r3, [r3, #16]
 80058fa:	60bb      	str	r3, [r7, #8]

  /* Capture compare 1 event */
  if ((itflag & (TIM_FLAG_CC1)) == (TIM_FLAG_CC1))
 80058fc:	68bb      	ldr	r3, [r7, #8]
 80058fe:	f003 0302 	and.w	r3, r3, #2
 8005902:	2b00      	cmp	r3, #0
 8005904:	d020      	beq.n	8005948 <HAL_TIM_IRQHandler+0x64>
  {
    if ((itsource & (TIM_IT_CC1)) == (TIM_IT_CC1))
 8005906:	68fb      	ldr	r3, [r7, #12]
 8005908:	f003 0302 	and.w	r3, r3, #2
 800590c:	2b00      	cmp	r3, #0
 800590e:	d01b      	beq.n	8005948 <HAL_TIM_IRQHandler+0x64>
    {
      {
        __HAL_TIM_CLEAR_FLAG(htim, TIM_FLAG_CC1);
 8005910:	687b      	ldr	r3, [r7, #4]
 8005912:	681b      	ldr	r3, [r3, #0]
 8005914:	f06f 0202 	mvn.w	r2, #2
 8005918:	611a      	str	r2, [r3, #16]
        htim->Channel = HAL_TIM_ACTIVE_CHANNEL_1;
 800591a:	687b      	ldr	r3, [r7, #4]
 800591c:	2201      	movs	r2, #1
 800591e:	771a      	strb	r2, [r3, #28]

        /* Input capture event */
        if ((htim->Instance->CCMR1 & TIM_CCMR1_CC1S) != 0x00U)
 8005920:	687b      	ldr	r3, [r7, #4]
 8005922:	681b      	ldr	r3, [r3, #0]
 8005924:	699b      	ldr	r3, [r3, #24]
 8005926:	f003 0303 	and.w	r3, r3, #3
 800592a:	2b00      	cmp	r3, #0
 800592c:	d003      	beq.n	8005936 <HAL_TIM_IRQHandler+0x52>
        {
#if (USE_HAL_TIM_REGISTER_CALLBACKS == 1)
          htim->IC_CaptureCallback(htim);
#else
          HAL_TIM_IC_CaptureCallback(htim);
 800592e:	6878      	ldr	r0, [r7, #4]
 8005930:	f000 f8dc 	bl	8005aec <HAL_TIM_IC_CaptureCallback>
 8005934:	e005      	b.n	8005942 <HAL_TIM_IRQHandler+0x5e>
        {
#if (USE_HAL_TIM_REGISTER_CALLBACKS == 1)
          htim->OC_DelayElapsedCallback(htim);
          htim->PWM_PulseFinishedCallback(htim);
#else
          HAL_TIM_OC_DelayElapsedCallback(htim);
 8005936:	6878      	ldr	r0, [r7, #4]
 8005938:	f000 f8ce 	bl	8005ad8 <HAL_TIM_OC_DelayElapsedCallback>
          HAL_TIM_PWM_PulseFinishedCallback(htim);
 800593c:	6878      	ldr	r0, [r7, #4]
 800593e:	f000 f8df 	bl	8005b00 <HAL_TIM_PWM_PulseFinishedCallback>
#endif /* USE_HAL_TIM_REGISTER_CALLBACKS */
        }
        htim->Channel = HAL_TIM_ACTIVE_CHANNEL_CLEARED;
 8005942:	687b      	ldr	r3, [r7, #4]
 8005944:	2200      	movs	r2, #0
 8005946:	771a      	strb	r2, [r3, #28]
      }
    }
  }
  /* Capture compare 2 event */
  if ((itflag & (TIM_FLAG_CC2)) == (TIM_FLAG_CC2))
 8005948:	68bb      	ldr	r3, [r7, #8]
 800594a:	f003 0304 	and.w	r3, r3, #4
 800594e:	2b00      	cmp	r3, #0
 8005950:	d020      	beq.n	8005994 <HAL_TIM_IRQHandler+0xb0>
  {
    if ((itsource & (TIM_IT_CC2)) == (TIM_IT_CC2))
 8005952:	68fb      	ldr	r3, [r7, #12]
 8005954:	f003 0304 	and.w	r3, r3, #4
 8005958:	2b00      	cmp	r3, #0
 800595a:	d01b      	beq.n	8005994 <HAL_TIM_IRQHandler+0xb0>
    {
      __HAL_TIM_CLEAR_FLAG(htim, TIM_FLAG_CC2);
 800595c:	687b      	ldr	r3, [r7, #4]
 800595e:	681b      	ldr	r3, [r3, #0]
 8005960:	f06f 0204 	mvn.w	r2, #4
 8005964:	611a      	str	r2, [r3, #16]
      htim->Channel = HAL_TIM_ACTIVE_CHANNEL_2;
 8005966:	687b      	ldr	r3, [r7, #4]
 8005968:	2202      	movs	r2, #2
 800596a:	771a      	strb	r2, [r3, #28]
      /* Input capture event */
      if ((htim->Instance->CCMR1 & TIM_CCMR1_CC2S) != 0x00U)
 800596c:	687b      	ldr	r3, [r7, #4]
 800596e:	681b      	ldr	r3, [r3, #0]
 8005970:	699b      	ldr	r3, [r3, #24]
 8005972:	f403 7340 	and.w	r3, r3, #768	; 0x300
 8005976:	2b00      	cmp	r3, #0
 8005978:	d003      	beq.n	8005982 <HAL_TIM_IRQHandler+0x9e>
      {
#if (USE_HAL_TIM_REGISTER_CALLBACKS == 1)
        htim->IC_CaptureCallback(htim);
#else
        HAL_TIM_IC_CaptureCallback(htim);
 800597a:	6878      	ldr	r0, [r7, #4]
 800597c:	f000 f8b6 	bl	8005aec <HAL_TIM_IC_CaptureCallback>
 8005980:	e005      	b.n	800598e <HAL_TIM_IRQHandler+0xaa>
      {
#if (USE_HAL_TIM_REGISTER_CALLBACKS == 1)
        htim->OC_DelayElapsedCallback(htim);
        htim->PWM_PulseFinishedCallback(htim);
#else
        HAL_TIM_OC_DelayElapsedCallback(htim);
 8005982:	6878      	ldr	r0, [r7, #4]
 8005984:	f000 f8a8 	bl	8005ad8 <HAL_TIM_OC_DelayElapsedCallback>
        HAL_TIM_PWM_PulseFinishedCallback(htim);
 8005988:	6878      	ldr	r0, [r7, #4]
 800598a:	f000 f8b9 	bl	8005b00 <HAL_TIM_PWM_PulseFinishedCallback>
#endif /* USE_HAL_TIM_REGISTER_CALLBACKS */
      }
      htim->Channel = HAL_TIM_ACTIVE_CHANNEL_CLEARED;
 800598e:	687b      	ldr	r3, [r7, #4]
 8005990:	2200      	movs	r2, #0
 8005992:	771a      	strb	r2, [r3, #28]
    }
  }
  /* Capture compare 3 event */
  if ((itflag & (TIM_FLAG_CC3)) == (TIM_FLAG_CC3))
 8005994:	68bb      	ldr	r3, [r7, #8]
 8005996:	f003 0308 	and.w	r3, r3, #8
 800599a:	2b00      	cmp	r3, #0
 800599c:	d020      	beq.n	80059e0 <HAL_TIM_IRQHandler+0xfc>
  {
    if ((itsource & (TIM_IT_CC3)) == (TIM_IT_CC3))
 800599e:	68fb      	ldr	r3, [r7, #12]
 80059a0:	f003 0308 	and.w	r3, r3, #8
 80059a4:	2b00      	cmp	r3, #0
 80059a6:	d01b      	beq.n	80059e0 <HAL_TIM_IRQHandler+0xfc>
    {
      __HAL_TIM_CLEAR_FLAG(htim, TIM_FLAG_CC3);
 80059a8:	687b      	ldr	r3, [r7, #4]
 80059aa:	681b      	ldr	r3, [r3, #0]
 80059ac:	f06f 0208 	mvn.w	r2, #8
 80059b0:	611a      	str	r2, [r3, #16]
      htim->Channel = HAL_TIM_ACTIVE_CHANNEL_3;
 80059b2:	687b      	ldr	r3, [r7, #4]
 80059b4:	2204      	movs	r2, #4
 80059b6:	771a      	strb	r2, [r3, #28]
      /* Input capture event */
      if ((htim->Instance->CCMR2 & TIM_CCMR2_CC3S) != 0x00U)
 80059b8:	687b      	ldr	r3, [r7, #4]
 80059ba:	681b      	ldr	r3, [r3, #0]
 80059bc:	69db      	ldr	r3, [r3, #28]
 80059be:	f003 0303 	and.w	r3, r3, #3
 80059c2:	2b00      	cmp	r3, #0
 80059c4:	d003      	beq.n	80059ce <HAL_TIM_IRQHandler+0xea>
      {
#if (USE_HAL_TIM_REGISTER_CALLBACKS == 1)
        htim->IC_CaptureCallback(htim);
#else
        HAL_TIM_IC_CaptureCallback(htim);
 80059c6:	6878      	ldr	r0, [r7, #4]
 80059c8:	f000 f890 	bl	8005aec <HAL_TIM_IC_CaptureCallback>
 80059cc:	e005      	b.n	80059da <HAL_TIM_IRQHandler+0xf6>
      {
#if (USE_HAL_TIM_REGISTER_CALLBACKS == 1)
        htim->OC_DelayElapsedCallback(htim);
        htim->PWM_PulseFinishedCallback(htim);
#else
        HAL_TIM_OC_DelayElapsedCallback(htim);
 80059ce:	6878      	ldr	r0, [r7, #4]
 80059d0:	f000 f882 	bl	8005ad8 <HAL_TIM_OC_DelayElapsedCallback>
        HAL_TIM_PWM_PulseFinishedCallback(htim);
 80059d4:	6878      	ldr	r0, [r7, #4]
 80059d6:	f000 f893 	bl	8005b00 <HAL_TIM_PWM_PulseFinishedCallback>
#endif /* USE_HAL_TIM_REGISTER_CALLBACKS */
      }
      htim->Channel = HAL_TIM_ACTIVE_CHANNEL_CLEARED;
 80059da:	687b      	ldr	r3, [r7, #4]
 80059dc:	2200      	movs	r2, #0
 80059de:	771a      	strb	r2, [r3, #28]
    }
  }
  /* Capture compare 4 event */
  if ((itflag & (TIM_FLAG_CC4)) == (TIM_FLAG_CC4))
 80059e0:	68bb      	ldr	r3, [r7, #8]
 80059e2:	f003 0310 	and.w	r3, r3, #16
 80059e6:	2b00      	cmp	r3, #0
 80059e8:	d020      	beq.n	8005a2c <HAL_TIM_IRQHandler+0x148>
  {
    if ((itsource & (TIM_IT_CC4)) == (TIM_IT_CC4))
 80059ea:	68fb      	ldr	r3, [r7, #12]
 80059ec:	f003 0310 	and.w	r3, r3, #16
 80059f0:	2b00      	cmp	r3, #0
 80059f2:	d01b      	beq.n	8005a2c <HAL_TIM_IRQHandler+0x148>
    {
      __HAL_TIM_CLEAR_FLAG(htim, TIM_FLAG_CC4);
 80059f4:	687b      	ldr	r3, [r7, #4]
 80059f6:	681b      	ldr	r3, [r3, #0]
 80059f8:	f06f 0210 	mvn.w	r2, #16
 80059fc:	611a      	str	r2, [r3, #16]
      htim->Channel = HAL_TIM_ACTIVE_CHANNEL_4;
 80059fe:	687b      	ldr	r3, [r7, #4]
 8005a00:	2208      	movs	r2, #8
 8005a02:	771a      	strb	r2, [r3, #28]
      /* Input capture event */
      if ((htim->Instance->CCMR2 & TIM_CCMR2_CC4S) != 0x00U)
 8005a04:	687b      	ldr	r3, [r7, #4]
 8005a06:	681b      	ldr	r3, [r3, #0]
 8005a08:	69db      	ldr	r3, [r3, #28]
 8005a0a:	f403 7340 	and.w	r3, r3, #768	; 0x300
 8005a0e:	2b00      	cmp	r3, #0
 8005a10:	d003      	beq.n	8005a1a <HAL_TIM_IRQHandler+0x136>
      {
#if (USE_HAL_TIM_REGISTER_CALLBACKS == 1)
        htim->IC_CaptureCallback(htim);
#else
        HAL_TIM_IC_CaptureCallback(htim);
 8005a12:	6878      	ldr	r0, [r7, #4]
 8005a14:	f000 f86a 	bl	8005aec <HAL_TIM_IC_CaptureCallback>
 8005a18:	e005      	b.n	8005a26 <HAL_TIM_IRQHandler+0x142>
      {
#if (USE_HAL_TIM_REGISTER_CALLBACKS == 1)
        htim->OC_DelayElapsedCallback(htim);
        htim->PWM_PulseFinishedCallback(htim);
#else
        HAL_TIM_OC_DelayElapsedCallback(htim);
 8005a1a:	6878      	ldr	r0, [r7, #4]
 8005a1c:	f000 f85c 	bl	8005ad8 <HAL_TIM_OC_DelayElapsedCallback>
        HAL_TIM_PWM_PulseFinishedCallback(htim);
 8005a20:	6878      	ldr	r0, [r7, #4]
 8005a22:	f000 f86d 	bl	8005b00 <HAL_TIM_PWM_PulseFinishedCallback>
#endif /* USE_HAL_TIM_REGISTER_CALLBACKS */
      }
      htim->Channel = HAL_TIM_ACTIVE_CHANNEL_CLEARED;
 8005a26:	687b      	ldr	r3, [r7, #4]
 8005a28:	2200      	movs	r2, #0
 8005a2a:	771a      	strb	r2, [r3, #28]
    }
  }
  /* TIM Update event */
  if ((itflag & (TIM_FLAG_UPDATE)) == (TIM_FLAG_UPDATE))
 8005a2c:	68bb      	ldr	r3, [r7, #8]
 8005a2e:	f003 0301 	and.w	r3, r3, #1
 8005a32:	2b00      	cmp	r3, #0
 8005a34:	d00c      	beq.n	8005a50 <HAL_TIM_IRQHandler+0x16c>
  {
    if ((itsource & (TIM_IT_UPDATE)) == (TIM_IT_UPDATE))
 8005a36:	68fb      	ldr	r3, [r7, #12]
 8005a38:	f003 0301 	and.w	r3, r3, #1
 8005a3c:	2b00      	cmp	r3, #0
 8005a3e:	d007      	beq.n	8005a50 <HAL_TIM_IRQHandler+0x16c>
    {
      __HAL_TIM_CLEAR_FLAG(htim, TIM_FLAG_UPDATE);
 8005a40:	687b      	ldr	r3, [r7, #4]
 8005a42:	681b      	ldr	r3, [r3, #0]
 8005a44:	f06f 0201 	mvn.w	r2, #1
 8005a48:	611a      	str	r2, [r3, #16]
#if (USE_HAL_TIM_REGISTER_CALLBACKS == 1)
      htim->PeriodElapsedCallback(htim);
#else
      HAL_TIM_PeriodElapsedCallback(htim);
 8005a4a:	6878      	ldr	r0, [r7, #4]
 8005a4c:	f000 f83a 	bl	8005ac4 <HAL_TIM_PeriodElapsedCallback>
#endif /* USE_HAL_TIM_REGISTER_CALLBACKS */
    }
  }
  /* TIM Break input event */
  if ((itflag & (TIM_FLAG_BREAK)) == (TIM_FLAG_BREAK))
 8005a50:	68bb      	ldr	r3, [r7, #8]
 8005a52:	f003 0380 	and.w	r3, r3, #128	; 0x80
 8005a56:	2b00      	cmp	r3, #0
 8005a58:	d00c      	beq.n	8005a74 <HAL_TIM_IRQHandler+0x190>
  {
    if ((itsource & (TIM_IT_BREAK)) == (TIM_IT_BREAK))
 8005a5a:	68fb      	ldr	r3, [r7, #12]
 8005a5c:	f003 0380 	and.w	r3, r3, #128	; 0x80
 8005a60:	2b00      	cmp	r3, #0
 8005a62:	d007      	beq.n	8005a74 <HAL_TIM_IRQHandler+0x190>
    {
      __HAL_TIM_CLEAR_FLAG(htim, TIM_FLAG_BREAK);
 8005a64:	687b      	ldr	r3, [r7, #4]
 8005a66:	681b      	ldr	r3, [r3, #0]
 8005a68:	f06f 0280 	mvn.w	r2, #128	; 0x80
 8005a6c:	611a      	str	r2, [r3, #16]
#if (USE_HAL_TIM_REGISTER_CALLBACKS == 1)
      htim->BreakCallback(htim);
#else
      HAL_TIMEx_BreakCallback(htim);
 8005a6e:	6878      	ldr	r0, [r7, #4]
 8005a70:	f000 f98c 	bl	8005d8c <HAL_TIMEx_BreakCallback>
#endif /* USE_HAL_TIM_REGISTER_CALLBACKS */
    }
  }
  /* TIM Trigger detection event */
  if ((itflag & (TIM_FLAG_TRIGGER)) == (TIM_FLAG_TRIGGER))
 8005a74:	68bb      	ldr	r3, [r7, #8]
 8005a76:	f003 0340 	and.w	r3, r3, #64	; 0x40
 8005a7a:	2b00      	cmp	r3, #0
 8005a7c:	d00c      	beq.n	8005a98 <HAL_TIM_IRQHandler+0x1b4>
  {
    if ((itsource & (TIM_IT_TRIGGER)) == (TIM_IT_TRIGGER))
 8005a7e:	68fb      	ldr	r3, [r7, #12]
 8005a80:	f003 0340 	and.w	r3, r3, #64	; 0x40
 8005a84:	2b00      	cmp	r3, #0
 8005a86:	d007      	beq.n	8005a98 <HAL_TIM_IRQHandler+0x1b4>
    {
      __HAL_TIM_CLEAR_FLAG(htim, TIM_FLAG_TRIGGER);
 8005a88:	687b      	ldr	r3, [r7, #4]
 8005a8a:	681b      	ldr	r3, [r3, #0]
 8005a8c:	f06f 0240 	mvn.w	r2, #64	; 0x40
 8005a90:	611a      	str	r2, [r3, #16]
#if (USE_HAL_TIM_REGISTER_CALLBACKS == 1)
      htim->TriggerCallback(htim);
#else
      HAL_TIM_TriggerCallback(htim);
 8005a92:	6878      	ldr	r0, [r7, #4]
 8005a94:	f000 f83e 	bl	8005b14 <HAL_TIM_TriggerCallback>
#endif /* USE_HAL_TIM_REGISTER_CALLBACKS */
    }
  }
  /* TIM commutation event */
  if ((itflag & (TIM_FLAG_COM)) == (TIM_FLAG_COM))
 8005a98:	68bb      	ldr	r3, [r7, #8]
 8005a9a:	f003 0320 	and.w	r3, r3, #32
 8005a9e:	2b00      	cmp	r3, #0
 8005aa0:	d00c      	beq.n	8005abc <HAL_TIM_IRQHandler+0x1d8>
  {
    if ((itsource & (TIM_IT_COM)) == (TIM_IT_COM))
 8005aa2:	68fb      	ldr	r3, [r7, #12]
 8005aa4:	f003 0320 	and.w	r3, r3, #32
 8005aa8:	2b00      	cmp	r3, #0
 8005aaa:	d007      	beq.n	8005abc <HAL_TIM_IRQHandler+0x1d8>
    {
      __HAL_TIM_CLEAR_FLAG(htim, TIM_FLAG_COM);
 8005aac:	687b      	ldr	r3, [r7, #4]
 8005aae:	681b      	ldr	r3, [r3, #0]
 8005ab0:	f06f 0220 	mvn.w	r2, #32
 8005ab4:	611a      	str	r2, [r3, #16]
#if (USE_HAL_TIM_REGISTER_CALLBACKS == 1)
      htim->CommutationCallback(htim);
#else
      HAL_TIMEx_CommutCallback(htim);
 8005ab6:	6878      	ldr	r0, [r7, #4]
 8005ab8:	f000 f95e 	bl	8005d78 <HAL_TIMEx_CommutCallback>
#endif /* USE_HAL_TIM_REGISTER_CALLBACKS */
    }
  }
}
 8005abc:	bf00      	nop
 8005abe:	3710      	adds	r7, #16
 8005ac0:	46bd      	mov	sp, r7
 8005ac2:	bd80      	pop	{r7, pc}

08005ac4 <HAL_TIM_PeriodElapsedCallback>:
  * @brief  Period elapsed callback in non-blocking mode
  * @param  htim TIM handle
  * @retval None
  */
__weak void HAL_TIM_PeriodElapsedCallback(TIM_HandleTypeDef *htim)
{
 8005ac4:	b480      	push	{r7}
 8005ac6:	b083      	sub	sp, #12
 8005ac8:	af00      	add	r7, sp, #0
 8005aca:	6078      	str	r0, [r7, #4]
  UNUSED(htim);

  /* NOTE : This function should not be modified, when the callback is needed,
            the HAL_TIM_PeriodElapsedCallback could be implemented in the user file
   */
}
 8005acc:	bf00      	nop
 8005ace:	370c      	adds	r7, #12
 8005ad0:	46bd      	mov	sp, r7
 8005ad2:	f85d 7b04 	ldr.w	r7, [sp], #4
 8005ad6:	4770      	bx	lr

08005ad8 <HAL_TIM_OC_DelayElapsedCallback>:
  * @brief  Output Compare callback in non-blocking mode
  * @param  htim TIM OC handle
  * @retval None
  */
__weak void HAL_TIM_OC_DelayElapsedCallback(TIM_HandleTypeDef *htim)
{
 8005ad8:	b480      	push	{r7}
 8005ada:	b083      	sub	sp, #12
 8005adc:	af00      	add	r7, sp, #0
 8005ade:	6078      	str	r0, [r7, #4]
  UNUSED(htim);

  /* NOTE : This function should not be modified, when the callback is needed,
            the HAL_TIM_OC_DelayElapsedCallback could be implemented in the user file
   */
}
 8005ae0:	bf00      	nop
 8005ae2:	370c      	adds	r7, #12
 8005ae4:	46bd      	mov	sp, r7
 8005ae6:	f85d 7b04 	ldr.w	r7, [sp], #4
 8005aea:	4770      	bx	lr

08005aec <HAL_TIM_IC_CaptureCallback>:
  * @brief  Input Capture callback in non-blocking mode
  * @param  htim TIM IC handle
  * @retval None
  */
__weak void HAL_TIM_IC_CaptureCallback(TIM_HandleTypeDef *htim)
{
 8005aec:	b480      	push	{r7}
 8005aee:	b083      	sub	sp, #12
 8005af0:	af00      	add	r7, sp, #0
 8005af2:	6078      	str	r0, [r7, #4]
  UNUSED(htim);

  /* NOTE : This function should not be modified, when the callback is needed,
            the HAL_TIM_IC_CaptureCallback could be implemented in the user file
   */
}
 8005af4:	bf00      	nop
 8005af6:	370c      	adds	r7, #12
 8005af8:	46bd      	mov	sp, r7
 8005afa:	f85d 7b04 	ldr.w	r7, [sp], #4
 8005afe:	4770      	bx	lr

08005b00 <HAL_TIM_PWM_PulseFinishedCallback>:
  * @brief  PWM Pulse finished callback in non-blocking mode
  * @param  htim TIM handle
  * @retval None
  */
__weak void HAL_TIM_PWM_PulseFinishedCallback(TIM_HandleTypeDef *htim)
{
 8005b00:	b480      	push	{r7}
 8005b02:	b083      	sub	sp, #12
 8005b04:	af00      	add	r7, sp, #0
 8005b06:	6078      	str	r0, [r7, #4]
  UNUSED(htim);

  /* NOTE : This function should not be modified, when the callback is needed,
            the HAL_TIM_PWM_PulseFinishedCallback could be implemented in the user file
   */
}
 8005b08:	bf00      	nop
 8005b0a:	370c      	adds	r7, #12
 8005b0c:	46bd      	mov	sp, r7
 8005b0e:	f85d 7b04 	ldr.w	r7, [sp], #4
 8005b12:	4770      	bx	lr

08005b14 <HAL_TIM_TriggerCallback>:
  * @brief  Hall Trigger detection callback in non-blocking mode
  * @param  htim TIM handle
  * @retval None
  */
__weak void HAL_TIM_TriggerCallback(TIM_HandleTypeDef *htim)
{
 8005b14:	b480      	push	{r7}
 8005b16:	b083      	sub	sp, #12
 8005b18:	af00      	add	r7, sp, #0
 8005b1a:	6078      	str	r0, [r7, #4]
  UNUSED(htim);

  /* NOTE : This function should not be modified, when the callback is needed,
            the HAL_TIM_TriggerCallback could be implemented in the user file
   */
}
 8005b1c:	bf00      	nop
 8005b1e:	370c      	adds	r7, #12
 8005b20:	46bd      	mov	sp, r7
 8005b22:	f85d 7b04 	ldr.w	r7, [sp], #4
 8005b26:	4770      	bx	lr

08005b28 <TIM_Base_SetConfig>:
  * @param  TIMx TIM peripheral
  * @param  Structure TIM Base configuration structure
  * @retval None
  */
void TIM_Base_SetConfig(TIM_TypeDef *TIMx, const TIM_Base_InitTypeDef *Structure)
{
 8005b28:	b480      	push	{r7}
 8005b2a:	b085      	sub	sp, #20
 8005b2c:	af00      	add	r7, sp, #0
 8005b2e:	6078      	str	r0, [r7, #4]
 8005b30:	6039      	str	r1, [r7, #0]
  uint32_t tmpcr1;
  tmpcr1 = TIMx->CR1;
 8005b32:	687b      	ldr	r3, [r7, #4]
 8005b34:	681b      	ldr	r3, [r3, #0]
 8005b36:	60fb      	str	r3, [r7, #12]

  /* Set TIM Time Base Unit parameters ---------------------------------------*/
  if (IS_TIM_COUNTER_MODE_SELECT_INSTANCE(TIMx))
 8005b38:	687b      	ldr	r3, [r7, #4]
 8005b3a:	4a46      	ldr	r2, [pc, #280]	; (8005c54 <TIM_Base_SetConfig+0x12c>)
 8005b3c:	4293      	cmp	r3, r2
 8005b3e:	d013      	beq.n	8005b68 <TIM_Base_SetConfig+0x40>
 8005b40:	687b      	ldr	r3, [r7, #4]
 8005b42:	f1b3 4f80 	cmp.w	r3, #1073741824	; 0x40000000
 8005b46:	d00f      	beq.n	8005b68 <TIM_Base_SetConfig+0x40>
 8005b48:	687b      	ldr	r3, [r7, #4]
 8005b4a:	4a43      	ldr	r2, [pc, #268]	; (8005c58 <TIM_Base_SetConfig+0x130>)
 8005b4c:	4293      	cmp	r3, r2
 8005b4e:	d00b      	beq.n	8005b68 <TIM_Base_SetConfig+0x40>
 8005b50:	687b      	ldr	r3, [r7, #4]
 8005b52:	4a42      	ldr	r2, [pc, #264]	; (8005c5c <TIM_Base_SetConfig+0x134>)
 8005b54:	4293      	cmp	r3, r2
 8005b56:	d007      	beq.n	8005b68 <TIM_Base_SetConfig+0x40>
 8005b58:	687b      	ldr	r3, [r7, #4]
 8005b5a:	4a41      	ldr	r2, [pc, #260]	; (8005c60 <TIM_Base_SetConfig+0x138>)
 8005b5c:	4293      	cmp	r3, r2
 8005b5e:	d003      	beq.n	8005b68 <TIM_Base_SetConfig+0x40>
 8005b60:	687b      	ldr	r3, [r7, #4]
 8005b62:	4a40      	ldr	r2, [pc, #256]	; (8005c64 <TIM_Base_SetConfig+0x13c>)
 8005b64:	4293      	cmp	r3, r2
 8005b66:	d108      	bne.n	8005b7a <TIM_Base_SetConfig+0x52>
  {
    /* Select the Counter Mode */
    tmpcr1 &= ~(TIM_CR1_DIR | TIM_CR1_CMS);
 8005b68:	68fb      	ldr	r3, [r7, #12]
 8005b6a:	f023 0370 	bic.w	r3, r3, #112	; 0x70
 8005b6e:	60fb      	str	r3, [r7, #12]
    tmpcr1 |= Structure->CounterMode;
 8005b70:	683b      	ldr	r3, [r7, #0]
 8005b72:	685b      	ldr	r3, [r3, #4]
 8005b74:	68fa      	ldr	r2, [r7, #12]
 8005b76:	4313      	orrs	r3, r2
 8005b78:	60fb      	str	r3, [r7, #12]
  }

  if (IS_TIM_CLOCK_DIVISION_INSTANCE(TIMx))
 8005b7a:	687b      	ldr	r3, [r7, #4]
 8005b7c:	4a35      	ldr	r2, [pc, #212]	; (8005c54 <TIM_Base_SetConfig+0x12c>)
 8005b7e:	4293      	cmp	r3, r2
 8005b80:	d02b      	beq.n	8005bda <TIM_Base_SetConfig+0xb2>
 8005b82:	687b      	ldr	r3, [r7, #4]
 8005b84:	f1b3 4f80 	cmp.w	r3, #1073741824	; 0x40000000
 8005b88:	d027      	beq.n	8005bda <TIM_Base_SetConfig+0xb2>
 8005b8a:	687b      	ldr	r3, [r7, #4]
 8005b8c:	4a32      	ldr	r2, [pc, #200]	; (8005c58 <TIM_Base_SetConfig+0x130>)
 8005b8e:	4293      	cmp	r3, r2
 8005b90:	d023      	beq.n	8005bda <TIM_Base_SetConfig+0xb2>
 8005b92:	687b      	ldr	r3, [r7, #4]
 8005b94:	4a31      	ldr	r2, [pc, #196]	; (8005c5c <TIM_Base_SetConfig+0x134>)
 8005b96:	4293      	cmp	r3, r2
 8005b98:	d01f      	beq.n	8005bda <TIM_Base_SetConfig+0xb2>
 8005b9a:	687b      	ldr	r3, [r7, #4]
 8005b9c:	4a30      	ldr	r2, [pc, #192]	; (8005c60 <TIM_Base_SetConfig+0x138>)
 8005b9e:	4293      	cmp	r3, r2
 8005ba0:	d01b      	beq.n	8005bda <TIM_Base_SetConfig+0xb2>
 8005ba2:	687b      	ldr	r3, [r7, #4]
 8005ba4:	4a2f      	ldr	r2, [pc, #188]	; (8005c64 <TIM_Base_SetConfig+0x13c>)
 8005ba6:	4293      	cmp	r3, r2
 8005ba8:	d017      	beq.n	8005bda <TIM_Base_SetConfig+0xb2>
 8005baa:	687b      	ldr	r3, [r7, #4]
 8005bac:	4a2e      	ldr	r2, [pc, #184]	; (8005c68 <TIM_Base_SetConfig+0x140>)
 8005bae:	4293      	cmp	r3, r2
 8005bb0:	d013      	beq.n	8005bda <TIM_Base_SetConfig+0xb2>
 8005bb2:	687b      	ldr	r3, [r7, #4]
 8005bb4:	4a2d      	ldr	r2, [pc, #180]	; (8005c6c <TIM_Base_SetConfig+0x144>)
 8005bb6:	4293      	cmp	r3, r2
 8005bb8:	d00f      	beq.n	8005bda <TIM_Base_SetConfig+0xb2>
 8005bba:	687b      	ldr	r3, [r7, #4]
 8005bbc:	4a2c      	ldr	r2, [pc, #176]	; (8005c70 <TIM_Base_SetConfig+0x148>)
 8005bbe:	4293      	cmp	r3, r2
 8005bc0:	d00b      	beq.n	8005bda <TIM_Base_SetConfig+0xb2>
 8005bc2:	687b      	ldr	r3, [r7, #4]
 8005bc4:	4a2b      	ldr	r2, [pc, #172]	; (8005c74 <TIM_Base_SetConfig+0x14c>)
 8005bc6:	4293      	cmp	r3, r2
 8005bc8:	d007      	beq.n	8005bda <TIM_Base_SetConfig+0xb2>
 8005bca:	687b      	ldr	r3, [r7, #4]
 8005bcc:	4a2a      	ldr	r2, [pc, #168]	; (8005c78 <TIM_Base_SetConfig+0x150>)
 8005bce:	4293      	cmp	r3, r2
 8005bd0:	d003      	beq.n	8005bda <TIM_Base_SetConfig+0xb2>
 8005bd2:	687b      	ldr	r3, [r7, #4]
 8005bd4:	4a29      	ldr	r2, [pc, #164]	; (8005c7c <TIM_Base_SetConfig+0x154>)
 8005bd6:	4293      	cmp	r3, r2
 8005bd8:	d108      	bne.n	8005bec <TIM_Base_SetConfig+0xc4>
  {
    /* Set the clock division */
    tmpcr1 &= ~TIM_CR1_CKD;
 8005bda:	68fb      	ldr	r3, [r7, #12]
 8005bdc:	f423 7340 	bic.w	r3, r3, #768	; 0x300
 8005be0:	60fb      	str	r3, [r7, #12]
    tmpcr1 |= (uint32_t)Structure->ClockDivision;
 8005be2:	683b      	ldr	r3, [r7, #0]
 8005be4:	68db      	ldr	r3, [r3, #12]
 8005be6:	68fa      	ldr	r2, [r7, #12]
 8005be8:	4313      	orrs	r3, r2
 8005bea:	60fb      	str	r3, [r7, #12]
  }

  /* Set the auto-reload preload */
  MODIFY_REG(tmpcr1, TIM_CR1_ARPE, Structure->AutoReloadPreload);
 8005bec:	68fb      	ldr	r3, [r7, #12]
 8005bee:	f023 0280 	bic.w	r2, r3, #128	; 0x80
 8005bf2:	683b      	ldr	r3, [r7, #0]
 8005bf4:	695b      	ldr	r3, [r3, #20]
 8005bf6:	4313      	orrs	r3, r2
 8005bf8:	60fb      	str	r3, [r7, #12]

  TIMx->CR1 = tmpcr1;
 8005bfa:	687b      	ldr	r3, [r7, #4]
 8005bfc:	68fa      	ldr	r2, [r7, #12]
 8005bfe:	601a      	str	r2, [r3, #0]

  /* Set the Autoreload value */
  TIMx->ARR = (uint32_t)Structure->Period ;
 8005c00:	683b      	ldr	r3, [r7, #0]
 8005c02:	689a      	ldr	r2, [r3, #8]
 8005c04:	687b      	ldr	r3, [r7, #4]
 8005c06:	62da      	str	r2, [r3, #44]	; 0x2c

  /* Set the Prescaler value */
  TIMx->PSC = Structure->Prescaler;
 8005c08:	683b      	ldr	r3, [r7, #0]
 8005c0a:	681a      	ldr	r2, [r3, #0]
 8005c0c:	687b      	ldr	r3, [r7, #4]
 8005c0e:	629a      	str	r2, [r3, #40]	; 0x28

  if (IS_TIM_REPETITION_COUNTER_INSTANCE(TIMx))
 8005c10:	687b      	ldr	r3, [r7, #4]
 8005c12:	4a10      	ldr	r2, [pc, #64]	; (8005c54 <TIM_Base_SetConfig+0x12c>)
 8005c14:	4293      	cmp	r3, r2
 8005c16:	d003      	beq.n	8005c20 <TIM_Base_SetConfig+0xf8>
 8005c18:	687b      	ldr	r3, [r7, #4]
 8005c1a:	4a12      	ldr	r2, [pc, #72]	; (8005c64 <TIM_Base_SetConfig+0x13c>)
 8005c1c:	4293      	cmp	r3, r2
 8005c1e:	d103      	bne.n	8005c28 <TIM_Base_SetConfig+0x100>
  {
    /* Set the Repetition Counter value */
    TIMx->RCR = Structure->RepetitionCounter;
 8005c20:	683b      	ldr	r3, [r7, #0]
 8005c22:	691a      	ldr	r2, [r3, #16]
 8005c24:	687b      	ldr	r3, [r7, #4]
 8005c26:	631a      	str	r2, [r3, #48]	; 0x30
  }

  /* Generate an update event to reload the Prescaler
     and the repetition counter (only for advanced timer) value immediately */
  TIMx->EGR = TIM_EGR_UG;
 8005c28:	687b      	ldr	r3, [r7, #4]
 8005c2a:	2201      	movs	r2, #1
 8005c2c:	615a      	str	r2, [r3, #20]

  /* Check if the update flag is set after the Update Generation, if so clear the UIF flag */
  if (HAL_IS_BIT_SET(TIMx->SR, TIM_FLAG_UPDATE))
 8005c2e:	687b      	ldr	r3, [r7, #4]
 8005c30:	691b      	ldr	r3, [r3, #16]
 8005c32:	f003 0301 	and.w	r3, r3, #1
 8005c36:	2b01      	cmp	r3, #1
 8005c38:	d105      	bne.n	8005c46 <TIM_Base_SetConfig+0x11e>
  {
    /* Clear the update flag */
    CLEAR_BIT(TIMx->SR, TIM_FLAG_UPDATE);
 8005c3a:	687b      	ldr	r3, [r7, #4]
 8005c3c:	691b      	ldr	r3, [r3, #16]
 8005c3e:	f023 0201 	bic.w	r2, r3, #1
 8005c42:	687b      	ldr	r3, [r7, #4]
 8005c44:	611a      	str	r2, [r3, #16]
  }
}
 8005c46:	bf00      	nop
 8005c48:	3714      	adds	r7, #20
 8005c4a:	46bd      	mov	sp, r7
 8005c4c:	f85d 7b04 	ldr.w	r7, [sp], #4
 8005c50:	4770      	bx	lr
 8005c52:	bf00      	nop
 8005c54:	40010000 	.word	0x40010000
 8005c58:	40000400 	.word	0x40000400
 8005c5c:	40000800 	.word	0x40000800
 8005c60:	40000c00 	.word	0x40000c00
 8005c64:	40010400 	.word	0x40010400
 8005c68:	40014000 	.word	0x40014000
 8005c6c:	40014400 	.word	0x40014400
 8005c70:	40014800 	.word	0x40014800
 8005c74:	40001800 	.word	0x40001800
 8005c78:	40001c00 	.word	0x40001c00
 8005c7c:	40002000 	.word	0x40002000

08005c80 <HAL_TIMEx_MasterConfigSynchronization>:
  *         mode.
  * @retval HAL status
  */
HAL_StatusTypeDef HAL_TIMEx_MasterConfigSynchronization(TIM_HandleTypeDef *htim,
                                                        const TIM_MasterConfigTypeDef *sMasterConfig)
{
 8005c80:	b480      	push	{r7}
 8005c82:	b085      	sub	sp, #20
 8005c84:	af00      	add	r7, sp, #0
 8005c86:	6078      	str	r0, [r7, #4]
 8005c88:	6039      	str	r1, [r7, #0]
  assert_param(IS_TIM_MASTER_INSTANCE(htim->Instance));
  assert_param(IS_TIM_TRGO_SOURCE(sMasterConfig->MasterOutputTrigger));
  assert_param(IS_TIM_MSM_STATE(sMasterConfig->MasterSlaveMode));

  /* Check input state */
  __HAL_LOCK(htim);
 8005c8a:	687b      	ldr	r3, [r7, #4]
 8005c8c:	f893 303c 	ldrb.w	r3, [r3, #60]	; 0x3c
 8005c90:	2b01      	cmp	r3, #1
 8005c92:	d101      	bne.n	8005c98 <HAL_TIMEx_MasterConfigSynchronization+0x18>
 8005c94:	2302      	movs	r3, #2
 8005c96:	e05a      	b.n	8005d4e <HAL_TIMEx_MasterConfigSynchronization+0xce>
 8005c98:	687b      	ldr	r3, [r7, #4]
 8005c9a:	2201      	movs	r2, #1
 8005c9c:	f883 203c 	strb.w	r2, [r3, #60]	; 0x3c

  /* Change the handler state */
  htim->State = HAL_TIM_STATE_BUSY;
 8005ca0:	687b      	ldr	r3, [r7, #4]
 8005ca2:	2202      	movs	r2, #2
 8005ca4:	f883 203d 	strb.w	r2, [r3, #61]	; 0x3d

  /* Get the TIMx CR2 register value */
  tmpcr2 = htim->Instance->CR2;
 8005ca8:	687b      	ldr	r3, [r7, #4]
 8005caa:	681b      	ldr	r3, [r3, #0]
 8005cac:	685b      	ldr	r3, [r3, #4]
 8005cae:	60fb      	str	r3, [r7, #12]

  /* Get the TIMx SMCR register value */
  tmpsmcr = htim->Instance->SMCR;
 8005cb0:	687b      	ldr	r3, [r7, #4]
 8005cb2:	681b      	ldr	r3, [r3, #0]
 8005cb4:	689b      	ldr	r3, [r3, #8]
 8005cb6:	60bb      	str	r3, [r7, #8]

  /* Reset the MMS Bits */
  tmpcr2 &= ~TIM_CR2_MMS;
 8005cb8:	68fb      	ldr	r3, [r7, #12]
 8005cba:	f023 0370 	bic.w	r3, r3, #112	; 0x70
 8005cbe:	60fb      	str	r3, [r7, #12]
  /* Select the TRGO source */
  tmpcr2 |=  sMasterConfig->MasterOutputTrigger;
 8005cc0:	683b      	ldr	r3, [r7, #0]
 8005cc2:	681b      	ldr	r3, [r3, #0]
 8005cc4:	68fa      	ldr	r2, [r7, #12]
 8005cc6:	4313      	orrs	r3, r2
 8005cc8:	60fb      	str	r3, [r7, #12]

  /* Update TIMx CR2 */
  htim->Instance->CR2 = tmpcr2;
 8005cca:	687b      	ldr	r3, [r7, #4]
 8005ccc:	681b      	ldr	r3, [r3, #0]
 8005cce:	68fa      	ldr	r2, [r7, #12]
 8005cd0:	605a      	str	r2, [r3, #4]

  if (IS_TIM_SLAVE_INSTANCE(htim->Instance))
 8005cd2:	687b      	ldr	r3, [r7, #4]
 8005cd4:	681b      	ldr	r3, [r3, #0]
 8005cd6:	4a21      	ldr	r2, [pc, #132]	; (8005d5c <HAL_TIMEx_MasterConfigSynchronization+0xdc>)
 8005cd8:	4293      	cmp	r3, r2
 8005cda:	d022      	beq.n	8005d22 <HAL_TIMEx_MasterConfigSynchronization+0xa2>
 8005cdc:	687b      	ldr	r3, [r7, #4]
 8005cde:	681b      	ldr	r3, [r3, #0]
 8005ce0:	f1b3 4f80 	cmp.w	r3, #1073741824	; 0x40000000
 8005ce4:	d01d      	beq.n	8005d22 <HAL_TIMEx_MasterConfigSynchronization+0xa2>
 8005ce6:	687b      	ldr	r3, [r7, #4]
 8005ce8:	681b      	ldr	r3, [r3, #0]
 8005cea:	4a1d      	ldr	r2, [pc, #116]	; (8005d60 <HAL_TIMEx_MasterConfigSynchronization+0xe0>)
 8005cec:	4293      	cmp	r3, r2
 8005cee:	d018      	beq.n	8005d22 <HAL_TIMEx_MasterConfigSynchronization+0xa2>
 8005cf0:	687b      	ldr	r3, [r7, #4]
 8005cf2:	681b      	ldr	r3, [r3, #0]
 8005cf4:	4a1b      	ldr	r2, [pc, #108]	; (8005d64 <HAL_TIMEx_MasterConfigSynchronization+0xe4>)
 8005cf6:	4293      	cmp	r3, r2
 8005cf8:	d013      	beq.n	8005d22 <HAL_TIMEx_MasterConfigSynchronization+0xa2>
 8005cfa:	687b      	ldr	r3, [r7, #4]
 8005cfc:	681b      	ldr	r3, [r3, #0]
 8005cfe:	4a1a      	ldr	r2, [pc, #104]	; (8005d68 <HAL_TIMEx_MasterConfigSynchronization+0xe8>)
 8005d00:	4293      	cmp	r3, r2
 8005d02:	d00e      	beq.n	8005d22 <HAL_TIMEx_MasterConfigSynchronization+0xa2>
 8005d04:	687b      	ldr	r3, [r7, #4]
 8005d06:	681b      	ldr	r3, [r3, #0]
 8005d08:	4a18      	ldr	r2, [pc, #96]	; (8005d6c <HAL_TIMEx_MasterConfigSynchronization+0xec>)
 8005d0a:	4293      	cmp	r3, r2
 8005d0c:	d009      	beq.n	8005d22 <HAL_TIMEx_MasterConfigSynchronization+0xa2>
 8005d0e:	687b      	ldr	r3, [r7, #4]
 8005d10:	681b      	ldr	r3, [r3, #0]
 8005d12:	4a17      	ldr	r2, [pc, #92]	; (8005d70 <HAL_TIMEx_MasterConfigSynchronization+0xf0>)
 8005d14:	4293      	cmp	r3, r2
 8005d16:	d004      	beq.n	8005d22 <HAL_TIMEx_MasterConfigSynchronization+0xa2>
 8005d18:	687b      	ldr	r3, [r7, #4]
 8005d1a:	681b      	ldr	r3, [r3, #0]
 8005d1c:	4a15      	ldr	r2, [pc, #84]	; (8005d74 <HAL_TIMEx_MasterConfigSynchronization+0xf4>)
 8005d1e:	4293      	cmp	r3, r2
 8005d20:	d10c      	bne.n	8005d3c <HAL_TIMEx_MasterConfigSynchronization+0xbc>
  {
    /* Reset the MSM Bit */
    tmpsmcr &= ~TIM_SMCR_MSM;
 8005d22:	68bb      	ldr	r3, [r7, #8]
 8005d24:	f023 0380 	bic.w	r3, r3, #128	; 0x80
 8005d28:	60bb      	str	r3, [r7, #8]
    /* Set master mode */
    tmpsmcr |= sMasterConfig->MasterSlaveMode;
 8005d2a:	683b      	ldr	r3, [r7, #0]
 8005d2c:	685b      	ldr	r3, [r3, #4]
 8005d2e:	68ba      	ldr	r2, [r7, #8]
 8005d30:	4313      	orrs	r3, r2
 8005d32:	60bb      	str	r3, [r7, #8]

    /* Update TIMx SMCR */
    htim->Instance->SMCR = tmpsmcr;
 8005d34:	687b      	ldr	r3, [r7, #4]
 8005d36:	681b      	ldr	r3, [r3, #0]
 8005d38:	68ba      	ldr	r2, [r7, #8]
 8005d3a:	609a      	str	r2, [r3, #8]
  }

  /* Change the htim state */
  htim->State = HAL_TIM_STATE_READY;
 8005d3c:	687b      	ldr	r3, [r7, #4]
 8005d3e:	2201      	movs	r2, #1
 8005d40:	f883 203d 	strb.w	r2, [r3, #61]	; 0x3d

  __HAL_UNLOCK(htim);
 8005d44:	687b      	ldr	r3, [r7, #4]
 8005d46:	2200      	movs	r2, #0
 8005d48:	f883 203c 	strb.w	r2, [r3, #60]	; 0x3c

  return HAL_OK;
 8005d4c:	2300      	movs	r3, #0
}
 8005d4e:	4618      	mov	r0, r3
 8005d50:	3714      	adds	r7, #20
 8005d52:	46bd      	mov	sp, r7
 8005d54:	f85d 7b04 	ldr.w	r7, [sp], #4
 8005d58:	4770      	bx	lr
 8005d5a:	bf00      	nop
 8005d5c:	40010000 	.word	0x40010000
 8005d60:	40000400 	.word	0x40000400
 8005d64:	40000800 	.word	0x40000800
 8005d68:	40000c00 	.word	0x40000c00
 8005d6c:	40010400 	.word	0x40010400
 8005d70:	40014000 	.word	0x40014000
 8005d74:	40001800 	.word	0x40001800

08005d78 <HAL_TIMEx_CommutCallback>:
  * @brief  Commutation callback in non-blocking mode
  * @param  htim TIM handle
  * @retval None
  */
__weak void HAL_TIMEx_CommutCallback(TIM_HandleTypeDef *htim)
{
 8005d78:	b480      	push	{r7}
 8005d7a:	b083      	sub	sp, #12
 8005d7c:	af00      	add	r7, sp, #0
 8005d7e:	6078      	str	r0, [r7, #4]
  UNUSED(htim);

  /* NOTE : This function should not be modified, when the callback is needed,
            the HAL_TIMEx_CommutCallback could be implemented in the user file
   */
}
 8005d80:	bf00      	nop
 8005d82:	370c      	adds	r7, #12
 8005d84:	46bd      	mov	sp, r7
 8005d86:	f85d 7b04 	ldr.w	r7, [sp], #4
 8005d8a:	4770      	bx	lr

08005d8c <HAL_TIMEx_BreakCallback>:
  * @brief  Break detection callback in non-blocking mode
  * @param  htim TIM handle
  * @retval None
  */
__weak void HAL_TIMEx_BreakCallback(TIM_HandleTypeDef *htim)
{
 8005d8c:	b480      	push	{r7}
 8005d8e:	b083      	sub	sp, #12
 8005d90:	af00      	add	r7, sp, #0
 8005d92:	6078      	str	r0, [r7, #4]
  UNUSED(htim);

  /* NOTE : This function should not be modified, when the callback is needed,
            the HAL_TIMEx_BreakCallback could be implemented in the user file
   */
}
 8005d94:	bf00      	nop
 8005d96:	370c      	adds	r7, #12
 8005d98:	46bd      	mov	sp, r7
 8005d9a:	f85d 7b04 	ldr.w	r7, [sp], #4
 8005d9e:	4770      	bx	lr

08005da0 <HAL_UART_Init>:
  * @param  huart  Pointer to a UART_HandleTypeDef structure that contains
  *                the configuration information for the specified UART module.
  * @retval HAL status
  */
HAL_StatusTypeDef HAL_UART_Init(UART_HandleTypeDef *huart)
{
 8005da0:	b580      	push	{r7, lr}
 8005da2:	b082      	sub	sp, #8
 8005da4:	af00      	add	r7, sp, #0
 8005da6:	6078      	str	r0, [r7, #4]
  /* Check the UART handle allocation */
  if (huart == NULL)
 8005da8:	687b      	ldr	r3, [r7, #4]
 8005daa:	2b00      	cmp	r3, #0
 8005dac:	d101      	bne.n	8005db2 <HAL_UART_Init+0x12>
  {
    return HAL_ERROR;
 8005dae:	2301      	movs	r3, #1
 8005db0:	e042      	b.n	8005e38 <HAL_UART_Init+0x98>
    assert_param(IS_UART_INSTANCE(huart->Instance));
  }
  assert_param(IS_UART_WORD_LENGTH(huart->Init.WordLength));
  assert_param(IS_UART_OVERSAMPLING(huart->Init.OverSampling));

  if (huart->gState == HAL_UART_STATE_RESET)
 8005db2:	687b      	ldr	r3, [r7, #4]
 8005db4:	f893 3041 	ldrb.w	r3, [r3, #65]	; 0x41
 8005db8:	b2db      	uxtb	r3, r3
 8005dba:	2b00      	cmp	r3, #0
 8005dbc:	d106      	bne.n	8005dcc <HAL_UART_Init+0x2c>
  {
    /* Allocate lock resource and initialize it */
    huart->Lock = HAL_UNLOCKED;
 8005dbe:	687b      	ldr	r3, [r7, #4]
 8005dc0:	2200      	movs	r2, #0
 8005dc2:	f883 2040 	strb.w	r2, [r3, #64]	; 0x40

    /* Init the low level hardware */
    huart->MspInitCallback(huart);
#else
    /* Init the low level hardware : GPIO, CLOCK */
    HAL_UART_MspInit(huart);
 8005dc6:	6878      	ldr	r0, [r7, #4]
 8005dc8:	f7fb ff90 	bl	8001cec <HAL_UART_MspInit>
#endif /* (USE_HAL_UART_REGISTER_CALLBACKS) */
  }

  huart->gState = HAL_UART_STATE_BUSY;
 8005dcc:	687b      	ldr	r3, [r7, #4]
 8005dce:	2224      	movs	r2, #36	; 0x24
 8005dd0:	f883 2041 	strb.w	r2, [r3, #65]	; 0x41

  /* Disable the peripheral */
  __HAL_UART_DISABLE(huart);
 8005dd4:	687b      	ldr	r3, [r7, #4]
 8005dd6:	681b      	ldr	r3, [r3, #0]
 8005dd8:	68da      	ldr	r2, [r3, #12]
 8005dda:	687b      	ldr	r3, [r7, #4]
 8005ddc:	681b      	ldr	r3, [r3, #0]
 8005dde:	f422 5200 	bic.w	r2, r2, #8192	; 0x2000
 8005de2:	60da      	str	r2, [r3, #12]

  /* Set the UART Communication parameters */
  UART_SetConfig(huart);
 8005de4:	6878      	ldr	r0, [r7, #4]
 8005de6:	f000 fdbd 	bl	8006964 <UART_SetConfig>

  /* In asynchronous mode, the following bits must be kept cleared:
     - LINEN and CLKEN bits in the USART_CR2 register,
     - SCEN, HDSEL and IREN  bits in the USART_CR3 register.*/
  CLEAR_BIT(huart->Instance->CR2, (USART_CR2_LINEN | USART_CR2_CLKEN));
 8005dea:	687b      	ldr	r3, [r7, #4]
 8005dec:	681b      	ldr	r3, [r3, #0]
 8005dee:	691a      	ldr	r2, [r3, #16]
 8005df0:	687b      	ldr	r3, [r7, #4]
 8005df2:	681b      	ldr	r3, [r3, #0]
 8005df4:	f422 4290 	bic.w	r2, r2, #18432	; 0x4800
 8005df8:	611a      	str	r2, [r3, #16]
  CLEAR_BIT(huart->Instance->CR3, (USART_CR3_SCEN | USART_CR3_HDSEL | USART_CR3_IREN));
 8005dfa:	687b      	ldr	r3, [r7, #4]
 8005dfc:	681b      	ldr	r3, [r3, #0]
 8005dfe:	695a      	ldr	r2, [r3, #20]
 8005e00:	687b      	ldr	r3, [r7, #4]
 8005e02:	681b      	ldr	r3, [r3, #0]
 8005e04:	f022 022a 	bic.w	r2, r2, #42	; 0x2a
 8005e08:	615a      	str	r2, [r3, #20]

  /* Enable the peripheral */
  __HAL_UART_ENABLE(huart);
 8005e0a:	687b      	ldr	r3, [r7, #4]
 8005e0c:	681b      	ldr	r3, [r3, #0]
 8005e0e:	68da      	ldr	r2, [r3, #12]
 8005e10:	687b      	ldr	r3, [r7, #4]
 8005e12:	681b      	ldr	r3, [r3, #0]
 8005e14:	f442 5200 	orr.w	r2, r2, #8192	; 0x2000
 8005e18:	60da      	str	r2, [r3, #12]

  /* Initialize the UART state */
  huart->ErrorCode = HAL_UART_ERROR_NONE;
 8005e1a:	687b      	ldr	r3, [r7, #4]
 8005e1c:	2200      	movs	r2, #0
 8005e1e:	645a      	str	r2, [r3, #68]	; 0x44
  huart->gState = HAL_UART_STATE_READY;
 8005e20:	687b      	ldr	r3, [r7, #4]
 8005e22:	2220      	movs	r2, #32
 8005e24:	f883 2041 	strb.w	r2, [r3, #65]	; 0x41
  huart->RxState = HAL_UART_STATE_READY;
 8005e28:	687b      	ldr	r3, [r7, #4]
 8005e2a:	2220      	movs	r2, #32
 8005e2c:	f883 2042 	strb.w	r2, [r3, #66]	; 0x42
  huart->RxEventType = HAL_UART_RXEVENT_TC;
 8005e30:	687b      	ldr	r3, [r7, #4]
 8005e32:	2200      	movs	r2, #0
 8005e34:	635a      	str	r2, [r3, #52]	; 0x34

  return HAL_OK;
 8005e36:	2300      	movs	r3, #0
}
 8005e38:	4618      	mov	r0, r3
 8005e3a:	3708      	adds	r7, #8
 8005e3c:	46bd      	mov	sp, r7
 8005e3e:	bd80      	pop	{r7, pc}

08005e40 <HAL_UART_Transmit>:
  * @param  Size  Amount of data elements (u8 or u16) to be sent
  * @param  Timeout Timeout duration
  * @retval HAL status
  */
HAL_StatusTypeDef HAL_UART_Transmit(UART_HandleTypeDef *huart, const uint8_t *pData, uint16_t Size, uint32_t Timeout)
{
 8005e40:	b580      	push	{r7, lr}
 8005e42:	b08a      	sub	sp, #40	; 0x28
 8005e44:	af02      	add	r7, sp, #8
 8005e46:	60f8      	str	r0, [r7, #12]
 8005e48:	60b9      	str	r1, [r7, #8]
 8005e4a:	603b      	str	r3, [r7, #0]
 8005e4c:	4613      	mov	r3, r2
 8005e4e:	80fb      	strh	r3, [r7, #6]
  const uint8_t  *pdata8bits;
  const uint16_t *pdata16bits;
  uint32_t tickstart = 0U;
 8005e50:	2300      	movs	r3, #0
 8005e52:	617b      	str	r3, [r7, #20]

  /* Check that a Tx process is not already ongoing */
  if (huart->gState == HAL_UART_STATE_READY)
 8005e54:	68fb      	ldr	r3, [r7, #12]
 8005e56:	f893 3041 	ldrb.w	r3, [r3, #65]	; 0x41
 8005e5a:	b2db      	uxtb	r3, r3
 8005e5c:	2b20      	cmp	r3, #32
 8005e5e:	d175      	bne.n	8005f4c <HAL_UART_Transmit+0x10c>
  {
    if ((pData == NULL) || (Size == 0U))
 8005e60:	68bb      	ldr	r3, [r7, #8]
 8005e62:	2b00      	cmp	r3, #0
 8005e64:	d002      	beq.n	8005e6c <HAL_UART_Transmit+0x2c>
 8005e66:	88fb      	ldrh	r3, [r7, #6]
 8005e68:	2b00      	cmp	r3, #0
 8005e6a:	d101      	bne.n	8005e70 <HAL_UART_Transmit+0x30>
    {
      return  HAL_ERROR;
 8005e6c:	2301      	movs	r3, #1
 8005e6e:	e06e      	b.n	8005f4e <HAL_UART_Transmit+0x10e>
    }

    huart->ErrorCode = HAL_UART_ERROR_NONE;
 8005e70:	68fb      	ldr	r3, [r7, #12]
 8005e72:	2200      	movs	r2, #0
 8005e74:	645a      	str	r2, [r3, #68]	; 0x44
    huart->gState = HAL_UART_STATE_BUSY_TX;
 8005e76:	68fb      	ldr	r3, [r7, #12]
 8005e78:	2221      	movs	r2, #33	; 0x21
 8005e7a:	f883 2041 	strb.w	r2, [r3, #65]	; 0x41

    /* Init tickstart for timeout management */
    tickstart = HAL_GetTick();
 8005e7e:	f7fc f971 	bl	8002164 <HAL_GetTick>
 8005e82:	6178      	str	r0, [r7, #20]

    huart->TxXferSize = Size;
 8005e84:	68fb      	ldr	r3, [r7, #12]
 8005e86:	88fa      	ldrh	r2, [r7, #6]
 8005e88:	849a      	strh	r2, [r3, #36]	; 0x24
    huart->TxXferCount = Size;
 8005e8a:	68fb      	ldr	r3, [r7, #12]
 8005e8c:	88fa      	ldrh	r2, [r7, #6]
 8005e8e:	84da      	strh	r2, [r3, #38]	; 0x26

    /* In case of 9bits/No Parity transfer, pData needs to be handled as a uint16_t pointer */
    if ((huart->Init.WordLength == UART_WORDLENGTH_9B) && (huart->Init.Parity == UART_PARITY_NONE))
 8005e90:	68fb      	ldr	r3, [r7, #12]
 8005e92:	689b      	ldr	r3, [r3, #8]
 8005e94:	f5b3 5f80 	cmp.w	r3, #4096	; 0x1000
 8005e98:	d108      	bne.n	8005eac <HAL_UART_Transmit+0x6c>
 8005e9a:	68fb      	ldr	r3, [r7, #12]
 8005e9c:	691b      	ldr	r3, [r3, #16]
 8005e9e:	2b00      	cmp	r3, #0
 8005ea0:	d104      	bne.n	8005eac <HAL_UART_Transmit+0x6c>
    {
      pdata8bits  = NULL;
 8005ea2:	2300      	movs	r3, #0
 8005ea4:	61fb      	str	r3, [r7, #28]
      pdata16bits = (const uint16_t *) pData;
 8005ea6:	68bb      	ldr	r3, [r7, #8]
 8005ea8:	61bb      	str	r3, [r7, #24]
 8005eaa:	e003      	b.n	8005eb4 <HAL_UART_Transmit+0x74>
    }
    else
    {
      pdata8bits  = pData;
 8005eac:	68bb      	ldr	r3, [r7, #8]
 8005eae:	61fb      	str	r3, [r7, #28]
      pdata16bits = NULL;
 8005eb0:	2300      	movs	r3, #0
 8005eb2:	61bb      	str	r3, [r7, #24]
    }

    while (huart->TxXferCount > 0U)
 8005eb4:	e02e      	b.n	8005f14 <HAL_UART_Transmit+0xd4>
    {
      if (UART_WaitOnFlagUntilTimeout(huart, UART_FLAG_TXE, RESET, tickstart, Timeout) != HAL_OK)
 8005eb6:	683b      	ldr	r3, [r7, #0]
 8005eb8:	9300      	str	r3, [sp, #0]
 8005eba:	697b      	ldr	r3, [r7, #20]
 8005ebc:	2200      	movs	r2, #0
 8005ebe:	2180      	movs	r1, #128	; 0x80
 8005ec0:	68f8      	ldr	r0, [r7, #12]
 8005ec2:	f000 fb1f 	bl	8006504 <UART_WaitOnFlagUntilTimeout>
 8005ec6:	4603      	mov	r3, r0
 8005ec8:	2b00      	cmp	r3, #0
 8005eca:	d005      	beq.n	8005ed8 <HAL_UART_Transmit+0x98>
      {
        huart->gState = HAL_UART_STATE_READY;
 8005ecc:	68fb      	ldr	r3, [r7, #12]
 8005ece:	2220      	movs	r2, #32
 8005ed0:	f883 2041 	strb.w	r2, [r3, #65]	; 0x41

        return HAL_TIMEOUT;
 8005ed4:	2303      	movs	r3, #3
 8005ed6:	e03a      	b.n	8005f4e <HAL_UART_Transmit+0x10e>
      }
      if (pdata8bits == NULL)
 8005ed8:	69fb      	ldr	r3, [r7, #28]
 8005eda:	2b00      	cmp	r3, #0
 8005edc:	d10b      	bne.n	8005ef6 <HAL_UART_Transmit+0xb6>
      {
        huart->Instance->DR = (uint16_t)(*pdata16bits & 0x01FFU);
 8005ede:	69bb      	ldr	r3, [r7, #24]
 8005ee0:	881b      	ldrh	r3, [r3, #0]
 8005ee2:	461a      	mov	r2, r3
 8005ee4:	68fb      	ldr	r3, [r7, #12]
 8005ee6:	681b      	ldr	r3, [r3, #0]
 8005ee8:	f3c2 0208 	ubfx	r2, r2, #0, #9
 8005eec:	605a      	str	r2, [r3, #4]
        pdata16bits++;
 8005eee:	69bb      	ldr	r3, [r7, #24]
 8005ef0:	3302      	adds	r3, #2
 8005ef2:	61bb      	str	r3, [r7, #24]
 8005ef4:	e007      	b.n	8005f06 <HAL_UART_Transmit+0xc6>
      }
      else
      {
        huart->Instance->DR = (uint8_t)(*pdata8bits & 0xFFU);
 8005ef6:	69fb      	ldr	r3, [r7, #28]
 8005ef8:	781a      	ldrb	r2, [r3, #0]
 8005efa:	68fb      	ldr	r3, [r7, #12]
 8005efc:	681b      	ldr	r3, [r3, #0]
 8005efe:	605a      	str	r2, [r3, #4]
        pdata8bits++;
 8005f00:	69fb      	ldr	r3, [r7, #28]
 8005f02:	3301      	adds	r3, #1
 8005f04:	61fb      	str	r3, [r7, #28]
      }
      huart->TxXferCount--;
 8005f06:	68fb      	ldr	r3, [r7, #12]
 8005f08:	8cdb      	ldrh	r3, [r3, #38]	; 0x26
 8005f0a:	b29b      	uxth	r3, r3
 8005f0c:	3b01      	subs	r3, #1
 8005f0e:	b29a      	uxth	r2, r3
 8005f10:	68fb      	ldr	r3, [r7, #12]
 8005f12:	84da      	strh	r2, [r3, #38]	; 0x26
    while (huart->TxXferCount > 0U)
 8005f14:	68fb      	ldr	r3, [r7, #12]
 8005f16:	8cdb      	ldrh	r3, [r3, #38]	; 0x26
 8005f18:	b29b      	uxth	r3, r3
 8005f1a:	2b00      	cmp	r3, #0
 8005f1c:	d1cb      	bne.n	8005eb6 <HAL_UART_Transmit+0x76>
    }

    if (UART_WaitOnFlagUntilTimeout(huart, UART_FLAG_TC, RESET, tickstart, Timeout) != HAL_OK)
 8005f1e:	683b      	ldr	r3, [r7, #0]
 8005f20:	9300      	str	r3, [sp, #0]
 8005f22:	697b      	ldr	r3, [r7, #20]
 8005f24:	2200      	movs	r2, #0
 8005f26:	2140      	movs	r1, #64	; 0x40
 8005f28:	68f8      	ldr	r0, [r7, #12]
 8005f2a:	f000 faeb 	bl	8006504 <UART_WaitOnFlagUntilTimeout>
 8005f2e:	4603      	mov	r3, r0
 8005f30:	2b00      	cmp	r3, #0
 8005f32:	d005      	beq.n	8005f40 <HAL_UART_Transmit+0x100>
    {
      huart->gState = HAL_UART_STATE_READY;
 8005f34:	68fb      	ldr	r3, [r7, #12]
 8005f36:	2220      	movs	r2, #32
 8005f38:	f883 2041 	strb.w	r2, [r3, #65]	; 0x41

      return HAL_TIMEOUT;
 8005f3c:	2303      	movs	r3, #3
 8005f3e:	e006      	b.n	8005f4e <HAL_UART_Transmit+0x10e>
    }

    /* At end of Tx process, restore huart->gState to Ready */
    huart->gState = HAL_UART_STATE_READY;
 8005f40:	68fb      	ldr	r3, [r7, #12]
 8005f42:	2220      	movs	r2, #32
 8005f44:	f883 2041 	strb.w	r2, [r3, #65]	; 0x41

    return HAL_OK;
 8005f48:	2300      	movs	r3, #0
 8005f4a:	e000      	b.n	8005f4e <HAL_UART_Transmit+0x10e>
  }
  else
  {
    return HAL_BUSY;
 8005f4c:	2302      	movs	r3, #2
  }
}
 8005f4e:	4618      	mov	r0, r3
 8005f50:	3720      	adds	r7, #32
 8005f52:	46bd      	mov	sp, r7
 8005f54:	bd80      	pop	{r7, pc}

08005f56 <HAL_UART_Receive_IT>:
  * @param  pData Pointer to data buffer (u8 or u16 data elements).
  * @param  Size  Amount of data elements (u8 or u16) to be received.
  * @retval HAL status
  */
HAL_StatusTypeDef HAL_UART_Receive_IT(UART_HandleTypeDef *huart, uint8_t *pData, uint16_t Size)
{
 8005f56:	b580      	push	{r7, lr}
 8005f58:	b084      	sub	sp, #16
 8005f5a:	af00      	add	r7, sp, #0
 8005f5c:	60f8      	str	r0, [r7, #12]
 8005f5e:	60b9      	str	r1, [r7, #8]
 8005f60:	4613      	mov	r3, r2
 8005f62:	80fb      	strh	r3, [r7, #6]
  /* Check that a Rx process is not already ongoing */
  if (huart->RxState == HAL_UART_STATE_READY)
 8005f64:	68fb      	ldr	r3, [r7, #12]
 8005f66:	f893 3042 	ldrb.w	r3, [r3, #66]	; 0x42
 8005f6a:	b2db      	uxtb	r3, r3
 8005f6c:	2b20      	cmp	r3, #32
 8005f6e:	d112      	bne.n	8005f96 <HAL_UART_Receive_IT+0x40>
  {
    if ((pData == NULL) || (Size == 0U))
 8005f70:	68bb      	ldr	r3, [r7, #8]
 8005f72:	2b00      	cmp	r3, #0
 8005f74:	d002      	beq.n	8005f7c <HAL_UART_Receive_IT+0x26>
 8005f76:	88fb      	ldrh	r3, [r7, #6]
 8005f78:	2b00      	cmp	r3, #0
 8005f7a:	d101      	bne.n	8005f80 <HAL_UART_Receive_IT+0x2a>
    {
      return HAL_ERROR;
 8005f7c:	2301      	movs	r3, #1
 8005f7e:	e00b      	b.n	8005f98 <HAL_UART_Receive_IT+0x42>
    }

    /* Set Reception type to Standard reception */
    huart->ReceptionType = HAL_UART_RECEPTION_STANDARD;
 8005f80:	68fb      	ldr	r3, [r7, #12]
 8005f82:	2200      	movs	r2, #0
 8005f84:	631a      	str	r2, [r3, #48]	; 0x30

    return (UART_Start_Receive_IT(huart, pData, Size));
 8005f86:	88fb      	ldrh	r3, [r7, #6]
 8005f88:	461a      	mov	r2, r3
 8005f8a:	68b9      	ldr	r1, [r7, #8]
 8005f8c:	68f8      	ldr	r0, [r7, #12]
 8005f8e:	f000 fb12 	bl	80065b6 <UART_Start_Receive_IT>
 8005f92:	4603      	mov	r3, r0
 8005f94:	e000      	b.n	8005f98 <HAL_UART_Receive_IT+0x42>
  }
  else
  {
    return HAL_BUSY;
 8005f96:	2302      	movs	r3, #2
  }
}
 8005f98:	4618      	mov	r0, r3
 8005f9a:	3710      	adds	r7, #16
 8005f9c:	46bd      	mov	sp, r7
 8005f9e:	bd80      	pop	{r7, pc}

08005fa0 <HAL_UART_IRQHandler>:
  * @param  huart  Pointer to a UART_HandleTypeDef structure that contains
  *                the configuration information for the specified UART module.
  * @retval None
  */
void HAL_UART_IRQHandler(UART_HandleTypeDef *huart)
{
 8005fa0:	b580      	push	{r7, lr}
 8005fa2:	b0ba      	sub	sp, #232	; 0xe8
 8005fa4:	af00      	add	r7, sp, #0
 8005fa6:	6078      	str	r0, [r7, #4]
  uint32_t isrflags   = READ_REG(huart->Instance->SR);
 8005fa8:	687b      	ldr	r3, [r7, #4]
 8005faa:	681b      	ldr	r3, [r3, #0]
 8005fac:	681b      	ldr	r3, [r3, #0]
 8005fae:	f8c7 30e4 	str.w	r3, [r7, #228]	; 0xe4
  uint32_t cr1its     = READ_REG(huart->Instance->CR1);
 8005fb2:	687b      	ldr	r3, [r7, #4]
 8005fb4:	681b      	ldr	r3, [r3, #0]
 8005fb6:	68db      	ldr	r3, [r3, #12]
 8005fb8:	f8c7 30e0 	str.w	r3, [r7, #224]	; 0xe0
  uint32_t cr3its     = READ_REG(huart->Instance->CR3);
 8005fbc:	687b      	ldr	r3, [r7, #4]
 8005fbe:	681b      	ldr	r3, [r3, #0]
 8005fc0:	695b      	ldr	r3, [r3, #20]
 8005fc2:	f8c7 30dc 	str.w	r3, [r7, #220]	; 0xdc
  uint32_t errorflags = 0x00U;
 8005fc6:	2300      	movs	r3, #0
 8005fc8:	f8c7 30d8 	str.w	r3, [r7, #216]	; 0xd8
  uint32_t dmarequest = 0x00U;
 8005fcc:	2300      	movs	r3, #0
 8005fce:	f8c7 30d4 	str.w	r3, [r7, #212]	; 0xd4

  /* If no error occurs */
  errorflags = (isrflags & (uint32_t)(USART_SR_PE | USART_SR_FE | USART_SR_ORE | USART_SR_NE));
 8005fd2:	f8d7 30e4 	ldr.w	r3, [r7, #228]	; 0xe4
 8005fd6:	f003 030f 	and.w	r3, r3, #15
 8005fda:	f8c7 30d8 	str.w	r3, [r7, #216]	; 0xd8
  if (errorflags == RESET)
 8005fde:	f8d7 30d8 	ldr.w	r3, [r7, #216]	; 0xd8
 8005fe2:	2b00      	cmp	r3, #0
 8005fe4:	d10f      	bne.n	8006006 <HAL_UART_IRQHandler+0x66>
  {
    /* UART in mode Receiver -------------------------------------------------*/
    if (((isrflags & USART_SR_RXNE) != RESET) && ((cr1its & USART_CR1_RXNEIE) != RESET))
 8005fe6:	f8d7 30e4 	ldr.w	r3, [r7, #228]	; 0xe4
 8005fea:	f003 0320 	and.w	r3, r3, #32
 8005fee:	2b00      	cmp	r3, #0
 8005ff0:	d009      	beq.n	8006006 <HAL_UART_IRQHandler+0x66>
 8005ff2:	f8d7 30e0 	ldr.w	r3, [r7, #224]	; 0xe0
 8005ff6:	f003 0320 	and.w	r3, r3, #32
 8005ffa:	2b00      	cmp	r3, #0
 8005ffc:	d003      	beq.n	8006006 <HAL_UART_IRQHandler+0x66>
    {
      UART_Receive_IT(huart);
 8005ffe:	6878      	ldr	r0, [r7, #4]
 8006000:	f000 fbf2 	bl	80067e8 <UART_Receive_IT>
      return;
 8006004:	e25b      	b.n	80064be <HAL_UART_IRQHandler+0x51e>
    }
  }

  /* If some errors occur */
  if ((errorflags != RESET) && (((cr3its & USART_CR3_EIE) != RESET)
 8006006:	f8d7 30d8 	ldr.w	r3, [r7, #216]	; 0xd8
 800600a:	2b00      	cmp	r3, #0
 800600c:	f000 80de 	beq.w	80061cc <HAL_UART_IRQHandler+0x22c>
 8006010:	f8d7 30dc 	ldr.w	r3, [r7, #220]	; 0xdc
 8006014:	f003 0301 	and.w	r3, r3, #1
 8006018:	2b00      	cmp	r3, #0
 800601a:	d106      	bne.n	800602a <HAL_UART_IRQHandler+0x8a>
                                || ((cr1its & (USART_CR1_RXNEIE | USART_CR1_PEIE)) != RESET)))
 800601c:	f8d7 30e0 	ldr.w	r3, [r7, #224]	; 0xe0
 8006020:	f403 7390 	and.w	r3, r3, #288	; 0x120
 8006024:	2b00      	cmp	r3, #0
 8006026:	f000 80d1 	beq.w	80061cc <HAL_UART_IRQHandler+0x22c>
  {
    /* UART parity error interrupt occurred ----------------------------------*/
    if (((isrflags & USART_SR_PE) != RESET) && ((cr1its & USART_CR1_PEIE) != RESET))
 800602a:	f8d7 30e4 	ldr.w	r3, [r7, #228]	; 0xe4
 800602e:	f003 0301 	and.w	r3, r3, #1
 8006032:	2b00      	cmp	r3, #0
 8006034:	d00b      	beq.n	800604e <HAL_UART_IRQHandler+0xae>
 8006036:	f8d7 30e0 	ldr.w	r3, [r7, #224]	; 0xe0
 800603a:	f403 7380 	and.w	r3, r3, #256	; 0x100
 800603e:	2b00      	cmp	r3, #0
 8006040:	d005      	beq.n	800604e <HAL_UART_IRQHandler+0xae>
    {
      huart->ErrorCode |= HAL_UART_ERROR_PE;
 8006042:	687b      	ldr	r3, [r7, #4]
 8006044:	6c5b      	ldr	r3, [r3, #68]	; 0x44
 8006046:	f043 0201 	orr.w	r2, r3, #1
 800604a:	687b      	ldr	r3, [r7, #4]
 800604c:	645a      	str	r2, [r3, #68]	; 0x44
    }

    /* UART noise error interrupt occurred -----------------------------------*/
    if (((isrflags & USART_SR_NE) != RESET) && ((cr3its & USART_CR3_EIE) != RESET))
 800604e:	f8d7 30e4 	ldr.w	r3, [r7, #228]	; 0xe4
 8006052:	f003 0304 	and.w	r3, r3, #4
 8006056:	2b00      	cmp	r3, #0
 8006058:	d00b      	beq.n	8006072 <HAL_UART_IRQHandler+0xd2>
 800605a:	f8d7 30dc 	ldr.w	r3, [r7, #220]	; 0xdc
 800605e:	f003 0301 	and.w	r3, r3, #1
 8006062:	2b00      	cmp	r3, #0
 8006064:	d005      	beq.n	8006072 <HAL_UART_IRQHandler+0xd2>
    {
      huart->ErrorCode |= HAL_UART_ERROR_NE;
 8006066:	687b      	ldr	r3, [r7, #4]
 8006068:	6c5b      	ldr	r3, [r3, #68]	; 0x44
 800606a:	f043 0202 	orr.w	r2, r3, #2
 800606e:	687b      	ldr	r3, [r7, #4]
 8006070:	645a      	str	r2, [r3, #68]	; 0x44
    }

    /* UART frame error interrupt occurred -----------------------------------*/
    if (((isrflags & USART_SR_FE) != RESET) && ((cr3its & USART_CR3_EIE) != RESET))
 8006072:	f8d7 30e4 	ldr.w	r3, [r7, #228]	; 0xe4
 8006076:	f003 0302 	and.w	r3, r3, #2
 800607a:	2b00      	cmp	r3, #0
 800607c:	d00b      	beq.n	8006096 <HAL_UART_IRQHandler+0xf6>
 800607e:	f8d7 30dc 	ldr.w	r3, [r7, #220]	; 0xdc
 8006082:	f003 0301 	and.w	r3, r3, #1
 8006086:	2b00      	cmp	r3, #0
 8006088:	d005      	beq.n	8006096 <HAL_UART_IRQHandler+0xf6>
    {
      huart->ErrorCode |= HAL_UART_ERROR_FE;
 800608a:	687b      	ldr	r3, [r7, #4]
 800608c:	6c5b      	ldr	r3, [r3, #68]	; 0x44
 800608e:	f043 0204 	orr.w	r2, r3, #4
 8006092:	687b      	ldr	r3, [r7, #4]
 8006094:	645a      	str	r2, [r3, #68]	; 0x44
    }

    /* UART Over-Run interrupt occurred --------------------------------------*/
    if (((isrflags & USART_SR_ORE) != RESET) && (((cr1its & USART_CR1_RXNEIE) != RESET)
 8006096:	f8d7 30e4 	ldr.w	r3, [r7, #228]	; 0xe4
 800609a:	f003 0308 	and.w	r3, r3, #8
 800609e:	2b00      	cmp	r3, #0
 80060a0:	d011      	beq.n	80060c6 <HAL_UART_IRQHandler+0x126>
 80060a2:	f8d7 30e0 	ldr.w	r3, [r7, #224]	; 0xe0
 80060a6:	f003 0320 	and.w	r3, r3, #32
 80060aa:	2b00      	cmp	r3, #0
 80060ac:	d105      	bne.n	80060ba <HAL_UART_IRQHandler+0x11a>
                                                 || ((cr3its & USART_CR3_EIE) != RESET)))
 80060ae:	f8d7 30dc 	ldr.w	r3, [r7, #220]	; 0xdc
 80060b2:	f003 0301 	and.w	r3, r3, #1
 80060b6:	2b00      	cmp	r3, #0
 80060b8:	d005      	beq.n	80060c6 <HAL_UART_IRQHandler+0x126>
    {
      huart->ErrorCode |= HAL_UART_ERROR_ORE;
 80060ba:	687b      	ldr	r3, [r7, #4]
 80060bc:	6c5b      	ldr	r3, [r3, #68]	; 0x44
 80060be:	f043 0208 	orr.w	r2, r3, #8
 80060c2:	687b      	ldr	r3, [r7, #4]
 80060c4:	645a      	str	r2, [r3, #68]	; 0x44
    }

    /* Call UART Error Call back function if need be --------------------------*/
    if (huart->ErrorCode != HAL_UART_ERROR_NONE)
 80060c6:	687b      	ldr	r3, [r7, #4]
 80060c8:	6c5b      	ldr	r3, [r3, #68]	; 0x44
 80060ca:	2b00      	cmp	r3, #0
 80060cc:	f000 81f2 	beq.w	80064b4 <HAL_UART_IRQHandler+0x514>
    {
      /* UART in mode Receiver -----------------------------------------------*/
      if (((isrflags & USART_SR_RXNE) != RESET) && ((cr1its & USART_CR1_RXNEIE) != RESET))
 80060d0:	f8d7 30e4 	ldr.w	r3, [r7, #228]	; 0xe4
 80060d4:	f003 0320 	and.w	r3, r3, #32
 80060d8:	2b00      	cmp	r3, #0
 80060da:	d008      	beq.n	80060ee <HAL_UART_IRQHandler+0x14e>
 80060dc:	f8d7 30e0 	ldr.w	r3, [r7, #224]	; 0xe0
 80060e0:	f003 0320 	and.w	r3, r3, #32
 80060e4:	2b00      	cmp	r3, #0
 80060e6:	d002      	beq.n	80060ee <HAL_UART_IRQHandler+0x14e>
      {
        UART_Receive_IT(huart);
 80060e8:	6878      	ldr	r0, [r7, #4]
 80060ea:	f000 fb7d 	bl	80067e8 <UART_Receive_IT>
      }

      /* If Overrun error occurs, or if any error occurs in DMA mode reception,
         consider error as blocking */
      dmarequest = HAL_IS_BIT_SET(huart->Instance->CR3, USART_CR3_DMAR);
 80060ee:	687b      	ldr	r3, [r7, #4]
 80060f0:	681b      	ldr	r3, [r3, #0]
 80060f2:	695b      	ldr	r3, [r3, #20]
 80060f4:	f003 0340 	and.w	r3, r3, #64	; 0x40
 80060f8:	2b40      	cmp	r3, #64	; 0x40
 80060fa:	bf0c      	ite	eq
 80060fc:	2301      	moveq	r3, #1
 80060fe:	2300      	movne	r3, #0
 8006100:	b2db      	uxtb	r3, r3
 8006102:	f8c7 30d4 	str.w	r3, [r7, #212]	; 0xd4
      if (((huart->ErrorCode & HAL_UART_ERROR_ORE) != RESET) || dmarequest)
 8006106:	687b      	ldr	r3, [r7, #4]
 8006108:	6c5b      	ldr	r3, [r3, #68]	; 0x44
 800610a:	f003 0308 	and.w	r3, r3, #8
 800610e:	2b00      	cmp	r3, #0
 8006110:	d103      	bne.n	800611a <HAL_UART_IRQHandler+0x17a>
 8006112:	f8d7 30d4 	ldr.w	r3, [r7, #212]	; 0xd4
 8006116:	2b00      	cmp	r3, #0
 8006118:	d04f      	beq.n	80061ba <HAL_UART_IRQHandler+0x21a>
      {
        /* Blocking error : transfer is aborted
           Set the UART state ready to be able to start again the process,
           Disable Rx Interrupts, and disable Rx DMA request, if ongoing */
        UART_EndRxTransfer(huart);
 800611a:	6878      	ldr	r0, [r7, #4]
 800611c:	f000 fa85 	bl	800662a <UART_EndRxTransfer>

        /* Disable the UART DMA Rx request if enabled */
        if (HAL_IS_BIT_SET(huart->Instance->CR3, USART_CR3_DMAR))
 8006120:	687b      	ldr	r3, [r7, #4]
 8006122:	681b      	ldr	r3, [r3, #0]
 8006124:	695b      	ldr	r3, [r3, #20]
 8006126:	f003 0340 	and.w	r3, r3, #64	; 0x40
 800612a:	2b40      	cmp	r3, #64	; 0x40
 800612c:	d141      	bne.n	80061b2 <HAL_UART_IRQHandler+0x212>
        {
          ATOMIC_CLEAR_BIT(huart->Instance->CR3, USART_CR3_DMAR);
 800612e:	687b      	ldr	r3, [r7, #4]
 8006130:	681b      	ldr	r3, [r3, #0]
 8006132:	3314      	adds	r3, #20
 8006134:	f8c7 309c 	str.w	r3, [r7, #156]	; 0x9c
   __ASM volatile ("ldrex %0, %1" : "=r" (result) : "Q" (*addr) );
 8006138:	f8d7 309c 	ldr.w	r3, [r7, #156]	; 0x9c
 800613c:	e853 3f00 	ldrex	r3, [r3]
 8006140:	f8c7 3098 	str.w	r3, [r7, #152]	; 0x98
   return(result);
 8006144:	f8d7 3098 	ldr.w	r3, [r7, #152]	; 0x98
 8006148:	f023 0340 	bic.w	r3, r3, #64	; 0x40
 800614c:	f8c7 30d0 	str.w	r3, [r7, #208]	; 0xd0
 8006150:	687b      	ldr	r3, [r7, #4]
 8006152:	681b      	ldr	r3, [r3, #0]
 8006154:	3314      	adds	r3, #20
 8006156:	f8d7 20d0 	ldr.w	r2, [r7, #208]	; 0xd0
 800615a:	f8c7 20a8 	str.w	r2, [r7, #168]	; 0xa8
 800615e:	f8c7 30a4 	str.w	r3, [r7, #164]	; 0xa4
   __ASM volatile ("strex %0, %2, %1" : "=&r" (result), "=Q" (*addr) : "r" (value) );
 8006162:	f8d7 10a4 	ldr.w	r1, [r7, #164]	; 0xa4
 8006166:	f8d7 20a8 	ldr.w	r2, [r7, #168]	; 0xa8
 800616a:	e841 2300 	strex	r3, r2, [r1]
 800616e:	f8c7 30a0 	str.w	r3, [r7, #160]	; 0xa0
   return(result);
 8006172:	f8d7 30a0 	ldr.w	r3, [r7, #160]	; 0xa0
 8006176:	2b00      	cmp	r3, #0
 8006178:	d1d9      	bne.n	800612e <HAL_UART_IRQHandler+0x18e>

          /* Abort the UART DMA Rx stream */
          if (huart->hdmarx != NULL)
 800617a:	687b      	ldr	r3, [r7, #4]
 800617c:	6bdb      	ldr	r3, [r3, #60]	; 0x3c
 800617e:	2b00      	cmp	r3, #0
 8006180:	d013      	beq.n	80061aa <HAL_UART_IRQHandler+0x20a>
          {
            /* Set the UART DMA Abort callback :
               will lead to call HAL_UART_ErrorCallback() at end of DMA abort procedure */
            huart->hdmarx->XferAbortCallback = UART_DMAAbortOnError;
 8006182:	687b      	ldr	r3, [r7, #4]
 8006184:	6bdb      	ldr	r3, [r3, #60]	; 0x3c
 8006186:	4a7e      	ldr	r2, [pc, #504]	; (8006380 <HAL_UART_IRQHandler+0x3e0>)
 8006188:	651a      	str	r2, [r3, #80]	; 0x50
            if (HAL_DMA_Abort_IT(huart->hdmarx) != HAL_OK)
 800618a:	687b      	ldr	r3, [r7, #4]
 800618c:	6bdb      	ldr	r3, [r3, #60]	; 0x3c
 800618e:	4618      	mov	r0, r3
 8006190:	f7fc f975 	bl	800247e <HAL_DMA_Abort_IT>
 8006194:	4603      	mov	r3, r0
 8006196:	2b00      	cmp	r3, #0
 8006198:	d016      	beq.n	80061c8 <HAL_UART_IRQHandler+0x228>
            {
              /* Call Directly XferAbortCallback function in case of error */
              huart->hdmarx->XferAbortCallback(huart->hdmarx);
 800619a:	687b      	ldr	r3, [r7, #4]
 800619c:	6bdb      	ldr	r3, [r3, #60]	; 0x3c
 800619e:	6d1b      	ldr	r3, [r3, #80]	; 0x50
 80061a0:	687a      	ldr	r2, [r7, #4]
 80061a2:	6bd2      	ldr	r2, [r2, #60]	; 0x3c
 80061a4:	4610      	mov	r0, r2
 80061a6:	4798      	blx	r3
        if (HAL_IS_BIT_SET(huart->Instance->CR3, USART_CR3_DMAR))
 80061a8:	e00e      	b.n	80061c8 <HAL_UART_IRQHandler+0x228>
#if (USE_HAL_UART_REGISTER_CALLBACKS == 1)
            /*Call registered error callback*/
            huart->ErrorCallback(huart);
#else
            /*Call legacy weak error callback*/
            HAL_UART_ErrorCallback(huart);
 80061aa:	6878      	ldr	r0, [r7, #4]
 80061ac:	f000 f994 	bl	80064d8 <HAL_UART_ErrorCallback>
        if (HAL_IS_BIT_SET(huart->Instance->CR3, USART_CR3_DMAR))
 80061b0:	e00a      	b.n	80061c8 <HAL_UART_IRQHandler+0x228>
#if (USE_HAL_UART_REGISTER_CALLBACKS == 1)
          /*Call registered error callback*/
          huart->ErrorCallback(huart);
#else
          /*Call legacy weak error callback*/
          HAL_UART_ErrorCallback(huart);
 80061b2:	6878      	ldr	r0, [r7, #4]
 80061b4:	f000 f990 	bl	80064d8 <HAL_UART_ErrorCallback>
        if (HAL_IS_BIT_SET(huart->Instance->CR3, USART_CR3_DMAR))
 80061b8:	e006      	b.n	80061c8 <HAL_UART_IRQHandler+0x228>
#if (USE_HAL_UART_REGISTER_CALLBACKS == 1)
        /*Call registered error callback*/
        huart->ErrorCallback(huart);
#else
        /*Call legacy weak error callback*/
        HAL_UART_ErrorCallback(huart);
 80061ba:	6878      	ldr	r0, [r7, #4]
 80061bc:	f000 f98c 	bl	80064d8 <HAL_UART_ErrorCallback>
#endif /* USE_HAL_UART_REGISTER_CALLBACKS */

        huart->ErrorCode = HAL_UART_ERROR_NONE;
 80061c0:	687b      	ldr	r3, [r7, #4]
 80061c2:	2200      	movs	r2, #0
 80061c4:	645a      	str	r2, [r3, #68]	; 0x44
      }
    }
    return;
 80061c6:	e175      	b.n	80064b4 <HAL_UART_IRQHandler+0x514>
        if (HAL_IS_BIT_SET(huart->Instance->CR3, USART_CR3_DMAR))
 80061c8:	bf00      	nop
    return;
 80061ca:	e173      	b.n	80064b4 <HAL_UART_IRQHandler+0x514>
  } /* End if some error occurs */

  /* Check current reception Mode :
     If Reception till IDLE event has been selected : */
  if ((huart->ReceptionType == HAL_UART_RECEPTION_TOIDLE)
 80061cc:	687b      	ldr	r3, [r7, #4]
 80061ce:	6b1b      	ldr	r3, [r3, #48]	; 0x30
 80061d0:	2b01      	cmp	r3, #1
 80061d2:	f040 814f 	bne.w	8006474 <HAL_UART_IRQHandler+0x4d4>
      && ((isrflags & USART_SR_IDLE) != 0U)
 80061d6:	f8d7 30e4 	ldr.w	r3, [r7, #228]	; 0xe4
 80061da:	f003 0310 	and.w	r3, r3, #16
 80061de:	2b00      	cmp	r3, #0
 80061e0:	f000 8148 	beq.w	8006474 <HAL_UART_IRQHandler+0x4d4>
      && ((cr1its & USART_SR_IDLE) != 0U))
 80061e4:	f8d7 30e0 	ldr.w	r3, [r7, #224]	; 0xe0
 80061e8:	f003 0310 	and.w	r3, r3, #16
 80061ec:	2b00      	cmp	r3, #0
 80061ee:	f000 8141 	beq.w	8006474 <HAL_UART_IRQHandler+0x4d4>
  {
    __HAL_UART_CLEAR_IDLEFLAG(huart);
 80061f2:	2300      	movs	r3, #0
 80061f4:	60bb      	str	r3, [r7, #8]
 80061f6:	687b      	ldr	r3, [r7, #4]
 80061f8:	681b      	ldr	r3, [r3, #0]
 80061fa:	681b      	ldr	r3, [r3, #0]
 80061fc:	60bb      	str	r3, [r7, #8]
 80061fe:	687b      	ldr	r3, [r7, #4]
 8006200:	681b      	ldr	r3, [r3, #0]
 8006202:	685b      	ldr	r3, [r3, #4]
 8006204:	60bb      	str	r3, [r7, #8]
 8006206:	68bb      	ldr	r3, [r7, #8]

    /* Check if DMA mode is enabled in UART */
    if (HAL_IS_BIT_SET(huart->Instance->CR3, USART_CR3_DMAR))
 8006208:	687b      	ldr	r3, [r7, #4]
 800620a:	681b      	ldr	r3, [r3, #0]
 800620c:	695b      	ldr	r3, [r3, #20]
 800620e:	f003 0340 	and.w	r3, r3, #64	; 0x40
 8006212:	2b40      	cmp	r3, #64	; 0x40
 8006214:	f040 80b6 	bne.w	8006384 <HAL_UART_IRQHandler+0x3e4>
    {
      /* DMA mode enabled */
      /* Check received length : If all expected data are received, do nothing,
         (DMA cplt callback will be called).
         Otherwise, if at least one data has already been received, IDLE event is to be notified to user */
      uint16_t nb_remaining_rx_data = (uint16_t) __HAL_DMA_GET_COUNTER(huart->hdmarx);
 8006218:	687b      	ldr	r3, [r7, #4]
 800621a:	6bdb      	ldr	r3, [r3, #60]	; 0x3c
 800621c:	681b      	ldr	r3, [r3, #0]
 800621e:	685b      	ldr	r3, [r3, #4]
 8006220:	f8a7 30be 	strh.w	r3, [r7, #190]	; 0xbe
      if ((nb_remaining_rx_data > 0U)
 8006224:	f8b7 30be 	ldrh.w	r3, [r7, #190]	; 0xbe
 8006228:	2b00      	cmp	r3, #0
 800622a:	f000 8145 	beq.w	80064b8 <HAL_UART_IRQHandler+0x518>
          && (nb_remaining_rx_data < huart->RxXferSize))
 800622e:	687b      	ldr	r3, [r7, #4]
 8006230:	8d9b      	ldrh	r3, [r3, #44]	; 0x2c
 8006232:	f8b7 20be 	ldrh.w	r2, [r7, #190]	; 0xbe
 8006236:	429a      	cmp	r2, r3
 8006238:	f080 813e 	bcs.w	80064b8 <HAL_UART_IRQHandler+0x518>
      {
        /* Reception is not complete */
        huart->RxXferCount = nb_remaining_rx_data;
 800623c:	687b      	ldr	r3, [r7, #4]
 800623e:	f8b7 20be 	ldrh.w	r2, [r7, #190]	; 0xbe
 8006242:	85da      	strh	r2, [r3, #46]	; 0x2e

        /* In Normal mode, end DMA xfer and HAL UART Rx process*/
        if (huart->hdmarx->Init.Mode != DMA_CIRCULAR)
 8006244:	687b      	ldr	r3, [r7, #4]
 8006246:	6bdb      	ldr	r3, [r3, #60]	; 0x3c
 8006248:	69db      	ldr	r3, [r3, #28]
 800624a:	f5b3 7f80 	cmp.w	r3, #256	; 0x100
 800624e:	f000 8088 	beq.w	8006362 <HAL_UART_IRQHandler+0x3c2>
        {
          /* Disable PE and ERR (Frame error, noise error, overrun error) interrupts */
          ATOMIC_CLEAR_BIT(huart->Instance->CR1, USART_CR1_PEIE);
 8006252:	687b      	ldr	r3, [r7, #4]
 8006254:	681b      	ldr	r3, [r3, #0]
 8006256:	330c      	adds	r3, #12
 8006258:	f8c7 3088 	str.w	r3, [r7, #136]	; 0x88
   __ASM volatile ("ldrex %0, %1" : "=r" (result) : "Q" (*addr) );
 800625c:	f8d7 3088 	ldr.w	r3, [r7, #136]	; 0x88
 8006260:	e853 3f00 	ldrex	r3, [r3]
 8006264:	f8c7 3084 	str.w	r3, [r7, #132]	; 0x84
   return(result);
 8006268:	f8d7 3084 	ldr.w	r3, [r7, #132]	; 0x84
 800626c:	f423 7380 	bic.w	r3, r3, #256	; 0x100
 8006270:	f8c7 30b8 	str.w	r3, [r7, #184]	; 0xb8
 8006274:	687b      	ldr	r3, [r7, #4]
 8006276:	681b      	ldr	r3, [r3, #0]
 8006278:	330c      	adds	r3, #12
 800627a:	f8d7 20b8 	ldr.w	r2, [r7, #184]	; 0xb8
 800627e:	f8c7 2094 	str.w	r2, [r7, #148]	; 0x94
 8006282:	f8c7 3090 	str.w	r3, [r7, #144]	; 0x90
   __ASM volatile ("strex %0, %2, %1" : "=&r" (result), "=Q" (*addr) : "r" (value) );
 8006286:	f8d7 1090 	ldr.w	r1, [r7, #144]	; 0x90
 800628a:	f8d7 2094 	ldr.w	r2, [r7, #148]	; 0x94
 800628e:	e841 2300 	strex	r3, r2, [r1]
 8006292:	f8c7 308c 	str.w	r3, [r7, #140]	; 0x8c
   return(result);
 8006296:	f8d7 308c 	ldr.w	r3, [r7, #140]	; 0x8c
 800629a:	2b00      	cmp	r3, #0
 800629c:	d1d9      	bne.n	8006252 <HAL_UART_IRQHandler+0x2b2>
          ATOMIC_CLEAR_BIT(huart->Instance->CR3, USART_CR3_EIE);
 800629e:	687b      	ldr	r3, [r7, #4]
 80062a0:	681b      	ldr	r3, [r3, #0]
 80062a2:	3314      	adds	r3, #20
 80062a4:	677b      	str	r3, [r7, #116]	; 0x74
   __ASM volatile ("ldrex %0, %1" : "=r" (result) : "Q" (*addr) );
 80062a6:	6f7b      	ldr	r3, [r7, #116]	; 0x74
 80062a8:	e853 3f00 	ldrex	r3, [r3]
 80062ac:	673b      	str	r3, [r7, #112]	; 0x70
   return(result);
 80062ae:	6f3b      	ldr	r3, [r7, #112]	; 0x70
 80062b0:	f023 0301 	bic.w	r3, r3, #1
 80062b4:	f8c7 30b4 	str.w	r3, [r7, #180]	; 0xb4
 80062b8:	687b      	ldr	r3, [r7, #4]
 80062ba:	681b      	ldr	r3, [r3, #0]
 80062bc:	3314      	adds	r3, #20
 80062be:	f8d7 20b4 	ldr.w	r2, [r7, #180]	; 0xb4
 80062c2:	f8c7 2080 	str.w	r2, [r7, #128]	; 0x80
 80062c6:	67fb      	str	r3, [r7, #124]	; 0x7c
   __ASM volatile ("strex %0, %2, %1" : "=&r" (result), "=Q" (*addr) : "r" (value) );
 80062c8:	6ff9      	ldr	r1, [r7, #124]	; 0x7c
 80062ca:	f8d7 2080 	ldr.w	r2, [r7, #128]	; 0x80
 80062ce:	e841 2300 	strex	r3, r2, [r1]
 80062d2:	67bb      	str	r3, [r7, #120]	; 0x78
   return(result);
 80062d4:	6fbb      	ldr	r3, [r7, #120]	; 0x78
 80062d6:	2b00      	cmp	r3, #0
 80062d8:	d1e1      	bne.n	800629e <HAL_UART_IRQHandler+0x2fe>

          /* Disable the DMA transfer for the receiver request by resetting the DMAR bit
             in the UART CR3 register */
          ATOMIC_CLEAR_BIT(huart->Instance->CR3, USART_CR3_DMAR);
 80062da:	687b      	ldr	r3, [r7, #4]
 80062dc:	681b      	ldr	r3, [r3, #0]
 80062de:	3314      	adds	r3, #20
 80062e0:	663b      	str	r3, [r7, #96]	; 0x60
   __ASM volatile ("ldrex %0, %1" : "=r" (result) : "Q" (*addr) );
 80062e2:	6e3b      	ldr	r3, [r7, #96]	; 0x60
 80062e4:	e853 3f00 	ldrex	r3, [r3]
 80062e8:	65fb      	str	r3, [r7, #92]	; 0x5c
   return(result);
 80062ea:	6dfb      	ldr	r3, [r7, #92]	; 0x5c
 80062ec:	f023 0340 	bic.w	r3, r3, #64	; 0x40
 80062f0:	f8c7 30b0 	str.w	r3, [r7, #176]	; 0xb0
 80062f4:	687b      	ldr	r3, [r7, #4]
 80062f6:	681b      	ldr	r3, [r3, #0]
 80062f8:	3314      	adds	r3, #20
 80062fa:	f8d7 20b0 	ldr.w	r2, [r7, #176]	; 0xb0
 80062fe:	66fa      	str	r2, [r7, #108]	; 0x6c
 8006300:	66bb      	str	r3, [r7, #104]	; 0x68
   __ASM volatile ("strex %0, %2, %1" : "=&r" (result), "=Q" (*addr) : "r" (value) );
 8006302:	6eb9      	ldr	r1, [r7, #104]	; 0x68
 8006304:	6efa      	ldr	r2, [r7, #108]	; 0x6c
 8006306:	e841 2300 	strex	r3, r2, [r1]
 800630a:	667b      	str	r3, [r7, #100]	; 0x64
   return(result);
 800630c:	6e7b      	ldr	r3, [r7, #100]	; 0x64
 800630e:	2b00      	cmp	r3, #0
 8006310:	d1e3      	bne.n	80062da <HAL_UART_IRQHandler+0x33a>

          /* At end of Rx process, restore huart->RxState to Ready */
          huart->RxState = HAL_UART_STATE_READY;
 8006312:	687b      	ldr	r3, [r7, #4]
 8006314:	2220      	movs	r2, #32
 8006316:	f883 2042 	strb.w	r2, [r3, #66]	; 0x42
          huart->ReceptionType = HAL_UART_RECEPTION_STANDARD;
 800631a:	687b      	ldr	r3, [r7, #4]
 800631c:	2200      	movs	r2, #0
 800631e:	631a      	str	r2, [r3, #48]	; 0x30

          ATOMIC_CLEAR_BIT(huart->Instance->CR1, USART_CR1_IDLEIE);
 8006320:	687b      	ldr	r3, [r7, #4]
 8006322:	681b      	ldr	r3, [r3, #0]
 8006324:	330c      	adds	r3, #12
 8006326:	64fb      	str	r3, [r7, #76]	; 0x4c
   __ASM volatile ("ldrex %0, %1" : "=r" (result) : "Q" (*addr) );
 8006328:	6cfb      	ldr	r3, [r7, #76]	; 0x4c
 800632a:	e853 3f00 	ldrex	r3, [r3]
 800632e:	64bb      	str	r3, [r7, #72]	; 0x48
   return(result);
 8006330:	6cbb      	ldr	r3, [r7, #72]	; 0x48
 8006332:	f023 0310 	bic.w	r3, r3, #16
 8006336:	f8c7 30ac 	str.w	r3, [r7, #172]	; 0xac
 800633a:	687b      	ldr	r3, [r7, #4]
 800633c:	681b      	ldr	r3, [r3, #0]
 800633e:	330c      	adds	r3, #12
 8006340:	f8d7 20ac 	ldr.w	r2, [r7, #172]	; 0xac
 8006344:	65ba      	str	r2, [r7, #88]	; 0x58
 8006346:	657b      	str	r3, [r7, #84]	; 0x54
   __ASM volatile ("strex %0, %2, %1" : "=&r" (result), "=Q" (*addr) : "r" (value) );
 8006348:	6d79      	ldr	r1, [r7, #84]	; 0x54
 800634a:	6dba      	ldr	r2, [r7, #88]	; 0x58
 800634c:	e841 2300 	strex	r3, r2, [r1]
 8006350:	653b      	str	r3, [r7, #80]	; 0x50
   return(result);
 8006352:	6d3b      	ldr	r3, [r7, #80]	; 0x50
 8006354:	2b00      	cmp	r3, #0
 8006356:	d1e3      	bne.n	8006320 <HAL_UART_IRQHandler+0x380>

          /* Last bytes received, so no need as the abort is immediate */
          (void)HAL_DMA_Abort(huart->hdmarx);
 8006358:	687b      	ldr	r3, [r7, #4]
 800635a:	6bdb      	ldr	r3, [r3, #60]	; 0x3c
 800635c:	4618      	mov	r0, r3
 800635e:	f7fc f81e 	bl	800239e <HAL_DMA_Abort>
        }

        /* Initialize type of RxEvent that correspond to RxEvent callback execution;
        In this case, Rx Event type is Idle Event */
        huart->RxEventType = HAL_UART_RXEVENT_IDLE;
 8006362:	687b      	ldr	r3, [r7, #4]
 8006364:	2202      	movs	r2, #2
 8006366:	635a      	str	r2, [r3, #52]	; 0x34
#if (USE_HAL_UART_REGISTER_CALLBACKS == 1)
        /*Call registered Rx Event callback*/
        huart->RxEventCallback(huart, (huart->RxXferSize - huart->RxXferCount));
#else
        /*Call legacy weak Rx Event callback*/
        HAL_UARTEx_RxEventCallback(huart, (huart->RxXferSize - huart->RxXferCount));
 8006368:	687b      	ldr	r3, [r7, #4]
 800636a:	8d9a      	ldrh	r2, [r3, #44]	; 0x2c
 800636c:	687b      	ldr	r3, [r7, #4]
 800636e:	8ddb      	ldrh	r3, [r3, #46]	; 0x2e
 8006370:	b29b      	uxth	r3, r3
 8006372:	1ad3      	subs	r3, r2, r3
 8006374:	b29b      	uxth	r3, r3
 8006376:	4619      	mov	r1, r3
 8006378:	6878      	ldr	r0, [r7, #4]
 800637a:	f000 f8b7 	bl	80064ec <HAL_UARTEx_RxEventCallback>
#endif /* USE_HAL_UART_REGISTER_CALLBACKS */
      }
      return;
 800637e:	e09b      	b.n	80064b8 <HAL_UART_IRQHandler+0x518>
 8006380:	080066f1 	.word	0x080066f1
    else
    {
      /* DMA mode not enabled */
      /* Check received length : If all expected data are received, do nothing.
         Otherwise, if at least one data has already been received, IDLE event is to be notified to user */
      uint16_t nb_rx_data = huart->RxXferSize - huart->RxXferCount;
 8006384:	687b      	ldr	r3, [r7, #4]
 8006386:	8d9a      	ldrh	r2, [r3, #44]	; 0x2c
 8006388:	687b      	ldr	r3, [r7, #4]
 800638a:	8ddb      	ldrh	r3, [r3, #46]	; 0x2e
 800638c:	b29b      	uxth	r3, r3
 800638e:	1ad3      	subs	r3, r2, r3
 8006390:	f8a7 30ce 	strh.w	r3, [r7, #206]	; 0xce
      if ((huart->RxXferCount > 0U)
 8006394:	687b      	ldr	r3, [r7, #4]
 8006396:	8ddb      	ldrh	r3, [r3, #46]	; 0x2e
 8006398:	b29b      	uxth	r3, r3
 800639a:	2b00      	cmp	r3, #0
 800639c:	f000 808e 	beq.w	80064bc <HAL_UART_IRQHandler+0x51c>
          && (nb_rx_data > 0U))
 80063a0:	f8b7 30ce 	ldrh.w	r3, [r7, #206]	; 0xce
 80063a4:	2b00      	cmp	r3, #0
 80063a6:	f000 8089 	beq.w	80064bc <HAL_UART_IRQHandler+0x51c>
      {
        /* Disable the UART Parity Error Interrupt and RXNE interrupts */
        ATOMIC_CLEAR_BIT(huart->Instance->CR1, (USART_CR1_RXNEIE | USART_CR1_PEIE));
 80063aa:	687b      	ldr	r3, [r7, #4]
 80063ac:	681b      	ldr	r3, [r3, #0]
 80063ae:	330c      	adds	r3, #12
 80063b0:	63bb      	str	r3, [r7, #56]	; 0x38
   __ASM volatile ("ldrex %0, %1" : "=r" (result) : "Q" (*addr) );
 80063b2:	6bbb      	ldr	r3, [r7, #56]	; 0x38
 80063b4:	e853 3f00 	ldrex	r3, [r3]
 80063b8:	637b      	str	r3, [r7, #52]	; 0x34
   return(result);
 80063ba:	6b7b      	ldr	r3, [r7, #52]	; 0x34
 80063bc:	f423 7390 	bic.w	r3, r3, #288	; 0x120
 80063c0:	f8c7 30c8 	str.w	r3, [r7, #200]	; 0xc8
 80063c4:	687b      	ldr	r3, [r7, #4]
 80063c6:	681b      	ldr	r3, [r3, #0]
 80063c8:	330c      	adds	r3, #12
 80063ca:	f8d7 20c8 	ldr.w	r2, [r7, #200]	; 0xc8
 80063ce:	647a      	str	r2, [r7, #68]	; 0x44
 80063d0:	643b      	str	r3, [r7, #64]	; 0x40
   __ASM volatile ("strex %0, %2, %1" : "=&r" (result), "=Q" (*addr) : "r" (value) );
 80063d2:	6c39      	ldr	r1, [r7, #64]	; 0x40
 80063d4:	6c7a      	ldr	r2, [r7, #68]	; 0x44
 80063d6:	e841 2300 	strex	r3, r2, [r1]
 80063da:	63fb      	str	r3, [r7, #60]	; 0x3c
   return(result);
 80063dc:	6bfb      	ldr	r3, [r7, #60]	; 0x3c
 80063de:	2b00      	cmp	r3, #0
 80063e0:	d1e3      	bne.n	80063aa <HAL_UART_IRQHandler+0x40a>

        /* Disable the UART Error Interrupt: (Frame error, noise error, overrun error) */
        ATOMIC_CLEAR_BIT(huart->Instance->CR3, USART_CR3_EIE);
 80063e2:	687b      	ldr	r3, [r7, #4]
 80063e4:	681b      	ldr	r3, [r3, #0]
 80063e6:	3314      	adds	r3, #20
 80063e8:	627b      	str	r3, [r7, #36]	; 0x24
   __ASM volatile ("ldrex %0, %1" : "=r" (result) : "Q" (*addr) );
 80063ea:	6a7b      	ldr	r3, [r7, #36]	; 0x24
 80063ec:	e853 3f00 	ldrex	r3, [r3]
 80063f0:	623b      	str	r3, [r7, #32]
   return(result);
 80063f2:	6a3b      	ldr	r3, [r7, #32]
 80063f4:	f023 0301 	bic.w	r3, r3, #1
 80063f8:	f8c7 30c4 	str.w	r3, [r7, #196]	; 0xc4
 80063fc:	687b      	ldr	r3, [r7, #4]
 80063fe:	681b      	ldr	r3, [r3, #0]
 8006400:	3314      	adds	r3, #20
 8006402:	f8d7 20c4 	ldr.w	r2, [r7, #196]	; 0xc4
 8006406:	633a      	str	r2, [r7, #48]	; 0x30
 8006408:	62fb      	str	r3, [r7, #44]	; 0x2c
   __ASM volatile ("strex %0, %2, %1" : "=&r" (result), "=Q" (*addr) : "r" (value) );
 800640a:	6af9      	ldr	r1, [r7, #44]	; 0x2c
 800640c:	6b3a      	ldr	r2, [r7, #48]	; 0x30
 800640e:	e841 2300 	strex	r3, r2, [r1]
 8006412:	62bb      	str	r3, [r7, #40]	; 0x28
   return(result);
 8006414:	6abb      	ldr	r3, [r7, #40]	; 0x28
 8006416:	2b00      	cmp	r3, #0
 8006418:	d1e3      	bne.n	80063e2 <HAL_UART_IRQHandler+0x442>

        /* Rx process is completed, restore huart->RxState to Ready */
        huart->RxState = HAL_UART_STATE_READY;
 800641a:	687b      	ldr	r3, [r7, #4]
 800641c:	2220      	movs	r2, #32
 800641e:	f883 2042 	strb.w	r2, [r3, #66]	; 0x42
        huart->ReceptionType = HAL_UART_RECEPTION_STANDARD;
 8006422:	687b      	ldr	r3, [r7, #4]
 8006424:	2200      	movs	r2, #0
 8006426:	631a      	str	r2, [r3, #48]	; 0x30

        ATOMIC_CLEAR_BIT(huart->Instance->CR1, USART_CR1_IDLEIE);
 8006428:	687b      	ldr	r3, [r7, #4]
 800642a:	681b      	ldr	r3, [r3, #0]
 800642c:	330c      	adds	r3, #12
 800642e:	613b      	str	r3, [r7, #16]
   __ASM volatile ("ldrex %0, %1" : "=r" (result) : "Q" (*addr) );
 8006430:	693b      	ldr	r3, [r7, #16]
 8006432:	e853 3f00 	ldrex	r3, [r3]
 8006436:	60fb      	str	r3, [r7, #12]
   return(result);
 8006438:	68fb      	ldr	r3, [r7, #12]
 800643a:	f023 0310 	bic.w	r3, r3, #16
 800643e:	f8c7 30c0 	str.w	r3, [r7, #192]	; 0xc0
 8006442:	687b      	ldr	r3, [r7, #4]
 8006444:	681b      	ldr	r3, [r3, #0]
 8006446:	330c      	adds	r3, #12
 8006448:	f8d7 20c0 	ldr.w	r2, [r7, #192]	; 0xc0
 800644c:	61fa      	str	r2, [r7, #28]
 800644e:	61bb      	str	r3, [r7, #24]
   __ASM volatile ("strex %0, %2, %1" : "=&r" (result), "=Q" (*addr) : "r" (value) );
 8006450:	69b9      	ldr	r1, [r7, #24]
 8006452:	69fa      	ldr	r2, [r7, #28]
 8006454:	e841 2300 	strex	r3, r2, [r1]
 8006458:	617b      	str	r3, [r7, #20]
   return(result);
 800645a:	697b      	ldr	r3, [r7, #20]
 800645c:	2b00      	cmp	r3, #0
 800645e:	d1e3      	bne.n	8006428 <HAL_UART_IRQHandler+0x488>

        /* Initialize type of RxEvent that correspond to RxEvent callback execution;
           In this case, Rx Event type is Idle Event */
        huart->RxEventType = HAL_UART_RXEVENT_IDLE;
 8006460:	687b      	ldr	r3, [r7, #4]
 8006462:	2202      	movs	r2, #2
 8006464:	635a      	str	r2, [r3, #52]	; 0x34
#if (USE_HAL_UART_REGISTER_CALLBACKS == 1)
        /*Call registered Rx complete callback*/
        huart->RxEventCallback(huart, nb_rx_data);
#else
        /*Call legacy weak Rx Event callback*/
        HAL_UARTEx_RxEventCallback(huart, nb_rx_data);
 8006466:	f8b7 30ce 	ldrh.w	r3, [r7, #206]	; 0xce
 800646a:	4619      	mov	r1, r3
 800646c:	6878      	ldr	r0, [r7, #4]
 800646e:	f000 f83d 	bl	80064ec <HAL_UARTEx_RxEventCallback>
#endif /* USE_HAL_UART_REGISTER_CALLBACKS */
      }
      return;
 8006472:	e023      	b.n	80064bc <HAL_UART_IRQHandler+0x51c>
    }
  }

  /* UART in mode Transmitter ------------------------------------------------*/
  if (((isrflags & USART_SR_TXE) != RESET) && ((cr1its & USART_CR1_TXEIE) != RESET))
 8006474:	f8d7 30e4 	ldr.w	r3, [r7, #228]	; 0xe4
 8006478:	f003 0380 	and.w	r3, r3, #128	; 0x80
 800647c:	2b00      	cmp	r3, #0
 800647e:	d009      	beq.n	8006494 <HAL_UART_IRQHandler+0x4f4>
 8006480:	f8d7 30e0 	ldr.w	r3, [r7, #224]	; 0xe0
 8006484:	f003 0380 	and.w	r3, r3, #128	; 0x80
 8006488:	2b00      	cmp	r3, #0
 800648a:	d003      	beq.n	8006494 <HAL_UART_IRQHandler+0x4f4>
  {
    UART_Transmit_IT(huart);
 800648c:	6878      	ldr	r0, [r7, #4]
 800648e:	f000 f943 	bl	8006718 <UART_Transmit_IT>
    return;
 8006492:	e014      	b.n	80064be <HAL_UART_IRQHandler+0x51e>
  }

  /* UART in mode Transmitter end --------------------------------------------*/
  if (((isrflags & USART_SR_TC) != RESET) && ((cr1its & USART_CR1_TCIE) != RESET))
 8006494:	f8d7 30e4 	ldr.w	r3, [r7, #228]	; 0xe4
 8006498:	f003 0340 	and.w	r3, r3, #64	; 0x40
 800649c:	2b00      	cmp	r3, #0
 800649e:	d00e      	beq.n	80064be <HAL_UART_IRQHandler+0x51e>
 80064a0:	f8d7 30e0 	ldr.w	r3, [r7, #224]	; 0xe0
 80064a4:	f003 0340 	and.w	r3, r3, #64	; 0x40
 80064a8:	2b00      	cmp	r3, #0
 80064aa:	d008      	beq.n	80064be <HAL_UART_IRQHandler+0x51e>
  {
    UART_EndTransmit_IT(huart);
 80064ac:	6878      	ldr	r0, [r7, #4]
 80064ae:	f000 f983 	bl	80067b8 <UART_EndTransmit_IT>
    return;
 80064b2:	e004      	b.n	80064be <HAL_UART_IRQHandler+0x51e>
    return;
 80064b4:	bf00      	nop
 80064b6:	e002      	b.n	80064be <HAL_UART_IRQHandler+0x51e>
      return;
 80064b8:	bf00      	nop
 80064ba:	e000      	b.n	80064be <HAL_UART_IRQHandler+0x51e>
      return;
 80064bc:	bf00      	nop
  }
}
 80064be:	37e8      	adds	r7, #232	; 0xe8
 80064c0:	46bd      	mov	sp, r7
 80064c2:	bd80      	pop	{r7, pc}

080064c4 <HAL_UART_TxCpltCallback>:
  * @param  huart  Pointer to a UART_HandleTypeDef structure that contains
  *                the configuration information for the specified UART module.
  * @retval None
  */
__weak void HAL_UART_TxCpltCallback(UART_HandleTypeDef *huart)
{
 80064c4:	b480      	push	{r7}
 80064c6:	b083      	sub	sp, #12
 80064c8:	af00      	add	r7, sp, #0
 80064ca:	6078      	str	r0, [r7, #4]
  /* Prevent unused argument(s) compilation warning */
  UNUSED(huart);
  /* NOTE: This function should not be modified, when the callback is needed,
           the HAL_UART_TxCpltCallback could be implemented in the user file
   */
}
 80064cc:	bf00      	nop
 80064ce:	370c      	adds	r7, #12
 80064d0:	46bd      	mov	sp, r7
 80064d2:	f85d 7b04 	ldr.w	r7, [sp], #4
 80064d6:	4770      	bx	lr

080064d8 <HAL_UART_ErrorCallback>:
  * @param  huart  Pointer to a UART_HandleTypeDef structure that contains
  *                the configuration information for the specified UART module.
  * @retval None
  */
__weak void HAL_UART_ErrorCallback(UART_HandleTypeDef *huart)
{
 80064d8:	b480      	push	{r7}
 80064da:	b083      	sub	sp, #12
 80064dc:	af00      	add	r7, sp, #0
 80064de:	6078      	str	r0, [r7, #4]
  /* Prevent unused argument(s) compilation warning */
  UNUSED(huart);
  /* NOTE: This function should not be modified, when the callback is needed,
           the HAL_UART_ErrorCallback could be implemented in the user file
   */
}
 80064e0:	bf00      	nop
 80064e2:	370c      	adds	r7, #12
 80064e4:	46bd      	mov	sp, r7
 80064e6:	f85d 7b04 	ldr.w	r7, [sp], #4
 80064ea:	4770      	bx	lr

080064ec <HAL_UARTEx_RxEventCallback>:
  * @param  Size  Number of data available in application reception buffer (indicates a position in
  *               reception buffer until which, data are available)
  * @retval None
  */
__weak void HAL_UARTEx_RxEventCallback(UART_HandleTypeDef *huart, uint16_t Size)
{
 80064ec:	b480      	push	{r7}
 80064ee:	b083      	sub	sp, #12
 80064f0:	af00      	add	r7, sp, #0
 80064f2:	6078      	str	r0, [r7, #4]
 80064f4:	460b      	mov	r3, r1
 80064f6:	807b      	strh	r3, [r7, #2]
  UNUSED(Size);

  /* NOTE : This function should not be modified, when the callback is needed,
            the HAL_UARTEx_RxEventCallback can be implemented in the user file.
   */
}
 80064f8:	bf00      	nop
 80064fa:	370c      	adds	r7, #12
 80064fc:	46bd      	mov	sp, r7
 80064fe:	f85d 7b04 	ldr.w	r7, [sp], #4
 8006502:	4770      	bx	lr

08006504 <UART_WaitOnFlagUntilTimeout>:
  * @param  Timeout Timeout duration
  * @retval HAL status
  */
static HAL_StatusTypeDef UART_WaitOnFlagUntilTimeout(UART_HandleTypeDef *huart, uint32_t Flag, FlagStatus Status,
                                                     uint32_t Tickstart, uint32_t Timeout)
{
 8006504:	b580      	push	{r7, lr}
 8006506:	b086      	sub	sp, #24
 8006508:	af00      	add	r7, sp, #0
 800650a:	60f8      	str	r0, [r7, #12]
 800650c:	60b9      	str	r1, [r7, #8]
 800650e:	603b      	str	r3, [r7, #0]
 8006510:	4613      	mov	r3, r2
 8006512:	71fb      	strb	r3, [r7, #7]
  /* Wait until flag is set */
  while ((__HAL_UART_GET_FLAG(huart, Flag) ? SET : RESET) == Status)
 8006514:	e03b      	b.n	800658e <UART_WaitOnFlagUntilTimeout+0x8a>
  {
    /* Check for the Timeout */
    if (Timeout != HAL_MAX_DELAY)
 8006516:	6a3b      	ldr	r3, [r7, #32]
 8006518:	f1b3 3fff 	cmp.w	r3, #4294967295	; 0xffffffff
 800651c:	d037      	beq.n	800658e <UART_WaitOnFlagUntilTimeout+0x8a>
    {
      if (((HAL_GetTick() - Tickstart) > Timeout) || (Timeout == 0U))
 800651e:	f7fb fe21 	bl	8002164 <HAL_GetTick>
 8006522:	4602      	mov	r2, r0
 8006524:	683b      	ldr	r3, [r7, #0]
 8006526:	1ad3      	subs	r3, r2, r3
 8006528:	6a3a      	ldr	r2, [r7, #32]
 800652a:	429a      	cmp	r2, r3
 800652c:	d302      	bcc.n	8006534 <UART_WaitOnFlagUntilTimeout+0x30>
 800652e:	6a3b      	ldr	r3, [r7, #32]
 8006530:	2b00      	cmp	r3, #0
 8006532:	d101      	bne.n	8006538 <UART_WaitOnFlagUntilTimeout+0x34>
      {

        return HAL_TIMEOUT;
 8006534:	2303      	movs	r3, #3
 8006536:	e03a      	b.n	80065ae <UART_WaitOnFlagUntilTimeout+0xaa>
      }

      if ((READ_BIT(huart->Instance->CR1, USART_CR1_RE) != 0U) && (Flag != UART_FLAG_TXE) && (Flag != UART_FLAG_TC))
 8006538:	68fb      	ldr	r3, [r7, #12]
 800653a:	681b      	ldr	r3, [r3, #0]
 800653c:	68db      	ldr	r3, [r3, #12]
 800653e:	f003 0304 	and.w	r3, r3, #4
 8006542:	2b00      	cmp	r3, #0
 8006544:	d023      	beq.n	800658e <UART_WaitOnFlagUntilTimeout+0x8a>
 8006546:	68bb      	ldr	r3, [r7, #8]
 8006548:	2b80      	cmp	r3, #128	; 0x80
 800654a:	d020      	beq.n	800658e <UART_WaitOnFlagUntilTimeout+0x8a>
 800654c:	68bb      	ldr	r3, [r7, #8]
 800654e:	2b40      	cmp	r3, #64	; 0x40
 8006550:	d01d      	beq.n	800658e <UART_WaitOnFlagUntilTimeout+0x8a>
      {
        if (__HAL_UART_GET_FLAG(huart, UART_FLAG_ORE) == SET)
 8006552:	68fb      	ldr	r3, [r7, #12]
 8006554:	681b      	ldr	r3, [r3, #0]
 8006556:	681b      	ldr	r3, [r3, #0]
 8006558:	f003 0308 	and.w	r3, r3, #8
 800655c:	2b08      	cmp	r3, #8
 800655e:	d116      	bne.n	800658e <UART_WaitOnFlagUntilTimeout+0x8a>
        {
          /* Clear Overrun Error flag*/
          __HAL_UART_CLEAR_OREFLAG(huart);
 8006560:	2300      	movs	r3, #0
 8006562:	617b      	str	r3, [r7, #20]
 8006564:	68fb      	ldr	r3, [r7, #12]
 8006566:	681b      	ldr	r3, [r3, #0]
 8006568:	681b      	ldr	r3, [r3, #0]
 800656a:	617b      	str	r3, [r7, #20]
 800656c:	68fb      	ldr	r3, [r7, #12]
 800656e:	681b      	ldr	r3, [r3, #0]
 8006570:	685b      	ldr	r3, [r3, #4]
 8006572:	617b      	str	r3, [r7, #20]
 8006574:	697b      	ldr	r3, [r7, #20]

          /* Blocking error : transfer is aborted
          Set the UART state ready to be able to start again the process,
          Disable Rx Interrupts if ongoing */
          UART_EndRxTransfer(huart);
 8006576:	68f8      	ldr	r0, [r7, #12]
 8006578:	f000 f857 	bl	800662a <UART_EndRxTransfer>

          huart->ErrorCode = HAL_UART_ERROR_ORE;
 800657c:	68fb      	ldr	r3, [r7, #12]
 800657e:	2208      	movs	r2, #8
 8006580:	645a      	str	r2, [r3, #68]	; 0x44

          /* Process Unlocked */
          __HAL_UNLOCK(huart);
 8006582:	68fb      	ldr	r3, [r7, #12]
 8006584:	2200      	movs	r2, #0
 8006586:	f883 2040 	strb.w	r2, [r3, #64]	; 0x40

          return HAL_ERROR;
 800658a:	2301      	movs	r3, #1
 800658c:	e00f      	b.n	80065ae <UART_WaitOnFlagUntilTimeout+0xaa>
  while ((__HAL_UART_GET_FLAG(huart, Flag) ? SET : RESET) == Status)
 800658e:	68fb      	ldr	r3, [r7, #12]
 8006590:	681b      	ldr	r3, [r3, #0]
 8006592:	681a      	ldr	r2, [r3, #0]
 8006594:	68bb      	ldr	r3, [r7, #8]
 8006596:	4013      	ands	r3, r2
 8006598:	68ba      	ldr	r2, [r7, #8]
 800659a:	429a      	cmp	r2, r3
 800659c:	bf0c      	ite	eq
 800659e:	2301      	moveq	r3, #1
 80065a0:	2300      	movne	r3, #0
 80065a2:	b2db      	uxtb	r3, r3
 80065a4:	461a      	mov	r2, r3
 80065a6:	79fb      	ldrb	r3, [r7, #7]
 80065a8:	429a      	cmp	r2, r3
 80065aa:	d0b4      	beq.n	8006516 <UART_WaitOnFlagUntilTimeout+0x12>
        }
      }
    }
  }
  return HAL_OK;
 80065ac:	2300      	movs	r3, #0
}
 80065ae:	4618      	mov	r0, r3
 80065b0:	3718      	adds	r7, #24
 80065b2:	46bd      	mov	sp, r7
 80065b4:	bd80      	pop	{r7, pc}

080065b6 <UART_Start_Receive_IT>:
  * @param  pData Pointer to data buffer (u8 or u16 data elements).
  * @param  Size  Amount of data elements (u8 or u16) to be received.
  * @retval HAL status
  */
HAL_StatusTypeDef UART_Start_Receive_IT(UART_HandleTypeDef *huart, uint8_t *pData, uint16_t Size)
{
 80065b6:	b480      	push	{r7}
 80065b8:	b085      	sub	sp, #20
 80065ba:	af00      	add	r7, sp, #0
 80065bc:	60f8      	str	r0, [r7, #12]
 80065be:	60b9      	str	r1, [r7, #8]
 80065c0:	4613      	mov	r3, r2
 80065c2:	80fb      	strh	r3, [r7, #6]
  huart->pRxBuffPtr = pData;
 80065c4:	68fb      	ldr	r3, [r7, #12]
 80065c6:	68ba      	ldr	r2, [r7, #8]
 80065c8:	629a      	str	r2, [r3, #40]	; 0x28
  huart->RxXferSize = Size;
 80065ca:	68fb      	ldr	r3, [r7, #12]
 80065cc:	88fa      	ldrh	r2, [r7, #6]
 80065ce:	859a      	strh	r2, [r3, #44]	; 0x2c
  huart->RxXferCount = Size;
 80065d0:	68fb      	ldr	r3, [r7, #12]
 80065d2:	88fa      	ldrh	r2, [r7, #6]
 80065d4:	85da      	strh	r2, [r3, #46]	; 0x2e

  huart->ErrorCode = HAL_UART_ERROR_NONE;
 80065d6:	68fb      	ldr	r3, [r7, #12]
 80065d8:	2200      	movs	r2, #0
 80065da:	645a      	str	r2, [r3, #68]	; 0x44
  huart->RxState = HAL_UART_STATE_BUSY_RX;
 80065dc:	68fb      	ldr	r3, [r7, #12]
 80065de:	2222      	movs	r2, #34	; 0x22
 80065e0:	f883 2042 	strb.w	r2, [r3, #66]	; 0x42

  if (huart->Init.Parity != UART_PARITY_NONE)
 80065e4:	68fb      	ldr	r3, [r7, #12]
 80065e6:	691b      	ldr	r3, [r3, #16]
 80065e8:	2b00      	cmp	r3, #0
 80065ea:	d007      	beq.n	80065fc <UART_Start_Receive_IT+0x46>
  {
    /* Enable the UART Parity Error Interrupt */
    __HAL_UART_ENABLE_IT(huart, UART_IT_PE);
 80065ec:	68fb      	ldr	r3, [r7, #12]
 80065ee:	681b      	ldr	r3, [r3, #0]
 80065f0:	68da      	ldr	r2, [r3, #12]
 80065f2:	68fb      	ldr	r3, [r7, #12]
 80065f4:	681b      	ldr	r3, [r3, #0]
 80065f6:	f442 7280 	orr.w	r2, r2, #256	; 0x100
 80065fa:	60da      	str	r2, [r3, #12]
  }

  /* Enable the UART Error Interrupt: (Frame error, noise error, overrun error) */
  __HAL_UART_ENABLE_IT(huart, UART_IT_ERR);
 80065fc:	68fb      	ldr	r3, [r7, #12]
 80065fe:	681b      	ldr	r3, [r3, #0]
 8006600:	695a      	ldr	r2, [r3, #20]
 8006602:	68fb      	ldr	r3, [r7, #12]
 8006604:	681b      	ldr	r3, [r3, #0]
 8006606:	f042 0201 	orr.w	r2, r2, #1
 800660a:	615a      	str	r2, [r3, #20]

  /* Enable the UART Data Register not empty Interrupt */
  __HAL_UART_ENABLE_IT(huart, UART_IT_RXNE);
 800660c:	68fb      	ldr	r3, [r7, #12]
 800660e:	681b      	ldr	r3, [r3, #0]
 8006610:	68da      	ldr	r2, [r3, #12]
 8006612:	68fb      	ldr	r3, [r7, #12]
 8006614:	681b      	ldr	r3, [r3, #0]
 8006616:	f042 0220 	orr.w	r2, r2, #32
 800661a:	60da      	str	r2, [r3, #12]

  return HAL_OK;
 800661c:	2300      	movs	r3, #0
}
 800661e:	4618      	mov	r0, r3
 8006620:	3714      	adds	r7, #20
 8006622:	46bd      	mov	sp, r7
 8006624:	f85d 7b04 	ldr.w	r7, [sp], #4
 8006628:	4770      	bx	lr

0800662a <UART_EndRxTransfer>:
  * @brief  End ongoing Rx transfer on UART peripheral (following error detection or Reception completion).
  * @param  huart UART handle.
  * @retval None
  */
static void UART_EndRxTransfer(UART_HandleTypeDef *huart)
{
 800662a:	b480      	push	{r7}
 800662c:	b095      	sub	sp, #84	; 0x54
 800662e:	af00      	add	r7, sp, #0
 8006630:	6078      	str	r0, [r7, #4]
  /* Disable RXNE, PE and ERR (Frame error, noise error, overrun error) interrupts */
  ATOMIC_CLEAR_BIT(huart->Instance->CR1, (USART_CR1_RXNEIE | USART_CR1_PEIE));
 8006632:	687b      	ldr	r3, [r7, #4]
 8006634:	681b      	ldr	r3, [r3, #0]
 8006636:	330c      	adds	r3, #12
 8006638:	637b      	str	r3, [r7, #52]	; 0x34
   __ASM volatile ("ldrex %0, %1" : "=r" (result) : "Q" (*addr) );
 800663a:	6b7b      	ldr	r3, [r7, #52]	; 0x34
 800663c:	e853 3f00 	ldrex	r3, [r3]
 8006640:	633b      	str	r3, [r7, #48]	; 0x30
   return(result);
 8006642:	6b3b      	ldr	r3, [r7, #48]	; 0x30
 8006644:	f423 7390 	bic.w	r3, r3, #288	; 0x120
 8006648:	64fb      	str	r3, [r7, #76]	; 0x4c
 800664a:	687b      	ldr	r3, [r7, #4]
 800664c:	681b      	ldr	r3, [r3, #0]
 800664e:	330c      	adds	r3, #12
 8006650:	6cfa      	ldr	r2, [r7, #76]	; 0x4c
 8006652:	643a      	str	r2, [r7, #64]	; 0x40
 8006654:	63fb      	str	r3, [r7, #60]	; 0x3c
   __ASM volatile ("strex %0, %2, %1" : "=&r" (result), "=Q" (*addr) : "r" (value) );
 8006656:	6bf9      	ldr	r1, [r7, #60]	; 0x3c
 8006658:	6c3a      	ldr	r2, [r7, #64]	; 0x40
 800665a:	e841 2300 	strex	r3, r2, [r1]
 800665e:	63bb      	str	r3, [r7, #56]	; 0x38
   return(result);
 8006660:	6bbb      	ldr	r3, [r7, #56]	; 0x38
 8006662:	2b00      	cmp	r3, #0
 8006664:	d1e5      	bne.n	8006632 <UART_EndRxTransfer+0x8>
  ATOMIC_CLEAR_BIT(huart->Instance->CR3, USART_CR3_EIE);
 8006666:	687b      	ldr	r3, [r7, #4]
 8006668:	681b      	ldr	r3, [r3, #0]
 800666a:	3314      	adds	r3, #20
 800666c:	623b      	str	r3, [r7, #32]
   __ASM volatile ("ldrex %0, %1" : "=r" (result) : "Q" (*addr) );
 800666e:	6a3b      	ldr	r3, [r7, #32]
 8006670:	e853 3f00 	ldrex	r3, [r3]
 8006674:	61fb      	str	r3, [r7, #28]
   return(result);
 8006676:	69fb      	ldr	r3, [r7, #28]
 8006678:	f023 0301 	bic.w	r3, r3, #1
 800667c:	64bb      	str	r3, [r7, #72]	; 0x48
 800667e:	687b      	ldr	r3, [r7, #4]
 8006680:	681b      	ldr	r3, [r3, #0]
 8006682:	3314      	adds	r3, #20
 8006684:	6cba      	ldr	r2, [r7, #72]	; 0x48
 8006686:	62fa      	str	r2, [r7, #44]	; 0x2c
 8006688:	62bb      	str	r3, [r7, #40]	; 0x28
   __ASM volatile ("strex %0, %2, %1" : "=&r" (result), "=Q" (*addr) : "r" (value) );
 800668a:	6ab9      	ldr	r1, [r7, #40]	; 0x28
 800668c:	6afa      	ldr	r2, [r7, #44]	; 0x2c
 800668e:	e841 2300 	strex	r3, r2, [r1]
 8006692:	627b      	str	r3, [r7, #36]	; 0x24
   return(result);
 8006694:	6a7b      	ldr	r3, [r7, #36]	; 0x24
 8006696:	2b00      	cmp	r3, #0
 8006698:	d1e5      	bne.n	8006666 <UART_EndRxTransfer+0x3c>

  /* In case of reception waiting for IDLE event, disable also the IDLE IE interrupt source */
  if (huart->ReceptionType == HAL_UART_RECEPTION_TOIDLE)
 800669a:	687b      	ldr	r3, [r7, #4]
 800669c:	6b1b      	ldr	r3, [r3, #48]	; 0x30
 800669e:	2b01      	cmp	r3, #1
 80066a0:	d119      	bne.n	80066d6 <UART_EndRxTransfer+0xac>
  {
    ATOMIC_CLEAR_BIT(huart->Instance->CR1, USART_CR1_IDLEIE);
 80066a2:	687b      	ldr	r3, [r7, #4]
 80066a4:	681b      	ldr	r3, [r3, #0]
 80066a6:	330c      	adds	r3, #12
 80066a8:	60fb      	str	r3, [r7, #12]
   __ASM volatile ("ldrex %0, %1" : "=r" (result) : "Q" (*addr) );
 80066aa:	68fb      	ldr	r3, [r7, #12]
 80066ac:	e853 3f00 	ldrex	r3, [r3]
 80066b0:	60bb      	str	r3, [r7, #8]
   return(result);
 80066b2:	68bb      	ldr	r3, [r7, #8]
 80066b4:	f023 0310 	bic.w	r3, r3, #16
 80066b8:	647b      	str	r3, [r7, #68]	; 0x44
 80066ba:	687b      	ldr	r3, [r7, #4]
 80066bc:	681b      	ldr	r3, [r3, #0]
 80066be:	330c      	adds	r3, #12
 80066c0:	6c7a      	ldr	r2, [r7, #68]	; 0x44
 80066c2:	61ba      	str	r2, [r7, #24]
 80066c4:	617b      	str	r3, [r7, #20]
   __ASM volatile ("strex %0, %2, %1" : "=&r" (result), "=Q" (*addr) : "r" (value) );
 80066c6:	6979      	ldr	r1, [r7, #20]
 80066c8:	69ba      	ldr	r2, [r7, #24]
 80066ca:	e841 2300 	strex	r3, r2, [r1]
 80066ce:	613b      	str	r3, [r7, #16]
   return(result);
 80066d0:	693b      	ldr	r3, [r7, #16]
 80066d2:	2b00      	cmp	r3, #0
 80066d4:	d1e5      	bne.n	80066a2 <UART_EndRxTransfer+0x78>
  }

  /* At end of Rx process, restore huart->RxState to Ready */
  huart->RxState = HAL_UART_STATE_READY;
 80066d6:	687b      	ldr	r3, [r7, #4]
 80066d8:	2220      	movs	r2, #32
 80066da:	f883 2042 	strb.w	r2, [r3, #66]	; 0x42
  huart->ReceptionType = HAL_UART_RECEPTION_STANDARD;
 80066de:	687b      	ldr	r3, [r7, #4]
 80066e0:	2200      	movs	r2, #0
 80066e2:	631a      	str	r2, [r3, #48]	; 0x30
}
 80066e4:	bf00      	nop
 80066e6:	3754      	adds	r7, #84	; 0x54
 80066e8:	46bd      	mov	sp, r7
 80066ea:	f85d 7b04 	ldr.w	r7, [sp], #4
 80066ee:	4770      	bx	lr

080066f0 <UART_DMAAbortOnError>:
  * @param  hdma  Pointer to a DMA_HandleTypeDef structure that contains
  *               the configuration information for the specified DMA module.
  * @retval None
  */
static void UART_DMAAbortOnError(DMA_HandleTypeDef *hdma)
{
 80066f0:	b580      	push	{r7, lr}
 80066f2:	b084      	sub	sp, #16
 80066f4:	af00      	add	r7, sp, #0
 80066f6:	6078      	str	r0, [r7, #4]
  UART_HandleTypeDef *huart = (UART_HandleTypeDef *)((DMA_HandleTypeDef *)hdma)->Parent;
 80066f8:	687b      	ldr	r3, [r7, #4]
 80066fa:	6b9b      	ldr	r3, [r3, #56]	; 0x38
 80066fc:	60fb      	str	r3, [r7, #12]
  huart->RxXferCount = 0x00U;
 80066fe:	68fb      	ldr	r3, [r7, #12]
 8006700:	2200      	movs	r2, #0
 8006702:	85da      	strh	r2, [r3, #46]	; 0x2e
  huart->TxXferCount = 0x00U;
 8006704:	68fb      	ldr	r3, [r7, #12]
 8006706:	2200      	movs	r2, #0
 8006708:	84da      	strh	r2, [r3, #38]	; 0x26
#if (USE_HAL_UART_REGISTER_CALLBACKS == 1)
  /*Call registered error callback*/
  huart->ErrorCallback(huart);
#else
  /*Call legacy weak error callback*/
  HAL_UART_ErrorCallback(huart);
 800670a:	68f8      	ldr	r0, [r7, #12]
 800670c:	f7ff fee4 	bl	80064d8 <HAL_UART_ErrorCallback>
#endif /* USE_HAL_UART_REGISTER_CALLBACKS */
}
 8006710:	bf00      	nop
 8006712:	3710      	adds	r7, #16
 8006714:	46bd      	mov	sp, r7
 8006716:	bd80      	pop	{r7, pc}

08006718 <UART_Transmit_IT>:
  * @param  huart  Pointer to a UART_HandleTypeDef structure that contains
  *                the configuration information for the specified UART module.
  * @retval HAL status
  */
static HAL_StatusTypeDef UART_Transmit_IT(UART_HandleTypeDef *huart)
{
 8006718:	b480      	push	{r7}
 800671a:	b085      	sub	sp, #20
 800671c:	af00      	add	r7, sp, #0
 800671e:	6078      	str	r0, [r7, #4]
  const uint16_t *tmp;

  /* Check that a Tx process is ongoing */
  if (huart->gState == HAL_UART_STATE_BUSY_TX)
 8006720:	687b      	ldr	r3, [r7, #4]
 8006722:	f893 3041 	ldrb.w	r3, [r3, #65]	; 0x41
 8006726:	b2db      	uxtb	r3, r3
 8006728:	2b21      	cmp	r3, #33	; 0x21
 800672a:	d13e      	bne.n	80067aa <UART_Transmit_IT+0x92>
  {
    if ((huart->Init.WordLength == UART_WORDLENGTH_9B) && (huart->Init.Parity == UART_PARITY_NONE))
 800672c:	687b      	ldr	r3, [r7, #4]
 800672e:	689b      	ldr	r3, [r3, #8]
 8006730:	f5b3 5f80 	cmp.w	r3, #4096	; 0x1000
 8006734:	d114      	bne.n	8006760 <UART_Transmit_IT+0x48>
 8006736:	687b      	ldr	r3, [r7, #4]
 8006738:	691b      	ldr	r3, [r3, #16]
 800673a:	2b00      	cmp	r3, #0
 800673c:	d110      	bne.n	8006760 <UART_Transmit_IT+0x48>
    {
      tmp = (const uint16_t *) huart->pTxBuffPtr;
 800673e:	687b      	ldr	r3, [r7, #4]
 8006740:	6a1b      	ldr	r3, [r3, #32]
 8006742:	60fb      	str	r3, [r7, #12]
      huart->Instance->DR = (uint16_t)(*tmp & (uint16_t)0x01FF);
 8006744:	68fb      	ldr	r3, [r7, #12]
 8006746:	881b      	ldrh	r3, [r3, #0]
 8006748:	461a      	mov	r2, r3
 800674a:	687b      	ldr	r3, [r7, #4]
 800674c:	681b      	ldr	r3, [r3, #0]
 800674e:	f3c2 0208 	ubfx	r2, r2, #0, #9
 8006752:	605a      	str	r2, [r3, #4]
      huart->pTxBuffPtr += 2U;
 8006754:	687b      	ldr	r3, [r7, #4]
 8006756:	6a1b      	ldr	r3, [r3, #32]
 8006758:	1c9a      	adds	r2, r3, #2
 800675a:	687b      	ldr	r3, [r7, #4]
 800675c:	621a      	str	r2, [r3, #32]
 800675e:	e008      	b.n	8006772 <UART_Transmit_IT+0x5a>
    }
    else
    {
      huart->Instance->DR = (uint8_t)(*huart->pTxBuffPtr++ & (uint8_t)0x00FF);
 8006760:	687b      	ldr	r3, [r7, #4]
 8006762:	6a1b      	ldr	r3, [r3, #32]
 8006764:	1c59      	adds	r1, r3, #1
 8006766:	687a      	ldr	r2, [r7, #4]
 8006768:	6211      	str	r1, [r2, #32]
 800676a:	781a      	ldrb	r2, [r3, #0]
 800676c:	687b      	ldr	r3, [r7, #4]
 800676e:	681b      	ldr	r3, [r3, #0]
 8006770:	605a      	str	r2, [r3, #4]
    }

    if (--huart->TxXferCount == 0U)
 8006772:	687b      	ldr	r3, [r7, #4]
 8006774:	8cdb      	ldrh	r3, [r3, #38]	; 0x26
 8006776:	b29b      	uxth	r3, r3
 8006778:	3b01      	subs	r3, #1
 800677a:	b29b      	uxth	r3, r3
 800677c:	687a      	ldr	r2, [r7, #4]
 800677e:	4619      	mov	r1, r3
 8006780:	84d1      	strh	r1, [r2, #38]	; 0x26
 8006782:	2b00      	cmp	r3, #0
 8006784:	d10f      	bne.n	80067a6 <UART_Transmit_IT+0x8e>
    {
      /* Disable the UART Transmit Data Register Empty Interrupt */
      __HAL_UART_DISABLE_IT(huart, UART_IT_TXE);
 8006786:	687b      	ldr	r3, [r7, #4]
 8006788:	681b      	ldr	r3, [r3, #0]
 800678a:	68da      	ldr	r2, [r3, #12]
 800678c:	687b      	ldr	r3, [r7, #4]
 800678e:	681b      	ldr	r3, [r3, #0]
 8006790:	f022 0280 	bic.w	r2, r2, #128	; 0x80
 8006794:	60da      	str	r2, [r3, #12]

      /* Enable the UART Transmit Complete Interrupt */
      __HAL_UART_ENABLE_IT(huart, UART_IT_TC);
 8006796:	687b      	ldr	r3, [r7, #4]
 8006798:	681b      	ldr	r3, [r3, #0]
 800679a:	68da      	ldr	r2, [r3, #12]
 800679c:	687b      	ldr	r3, [r7, #4]
 800679e:	681b      	ldr	r3, [r3, #0]
 80067a0:	f042 0240 	orr.w	r2, r2, #64	; 0x40
 80067a4:	60da      	str	r2, [r3, #12]
    }
    return HAL_OK;
 80067a6:	2300      	movs	r3, #0
 80067a8:	e000      	b.n	80067ac <UART_Transmit_IT+0x94>
  }
  else
  {
    return HAL_BUSY;
 80067aa:	2302      	movs	r3, #2
  }
}
 80067ac:	4618      	mov	r0, r3
 80067ae:	3714      	adds	r7, #20
 80067b0:	46bd      	mov	sp, r7
 80067b2:	f85d 7b04 	ldr.w	r7, [sp], #4
 80067b6:	4770      	bx	lr

080067b8 <UART_EndTransmit_IT>:
  * @param  huart  Pointer to a UART_HandleTypeDef structure that contains
  *                the configuration information for the specified UART module.
  * @retval HAL status
  */
static HAL_StatusTypeDef UART_EndTransmit_IT(UART_HandleTypeDef *huart)
{
 80067b8:	b580      	push	{r7, lr}
 80067ba:	b082      	sub	sp, #8
 80067bc:	af00      	add	r7, sp, #0
 80067be:	6078      	str	r0, [r7, #4]
  /* Disable the UART Transmit Complete Interrupt */
  __HAL_UART_DISABLE_IT(huart, UART_IT_TC);
 80067c0:	687b      	ldr	r3, [r7, #4]
 80067c2:	681b      	ldr	r3, [r3, #0]
 80067c4:	68da      	ldr	r2, [r3, #12]
 80067c6:	687b      	ldr	r3, [r7, #4]
 80067c8:	681b      	ldr	r3, [r3, #0]
 80067ca:	f022 0240 	bic.w	r2, r2, #64	; 0x40
 80067ce:	60da      	str	r2, [r3, #12]

  /* Tx process is ended, restore huart->gState to Ready */
  huart->gState = HAL_UART_STATE_READY;
 80067d0:	687b      	ldr	r3, [r7, #4]
 80067d2:	2220      	movs	r2, #32
 80067d4:	f883 2041 	strb.w	r2, [r3, #65]	; 0x41
#if (USE_HAL_UART_REGISTER_CALLBACKS == 1)
  /*Call registered Tx complete callback*/
  huart->TxCpltCallback(huart);
#else
  /*Call legacy weak Tx complete callback*/
  HAL_UART_TxCpltCallback(huart);
 80067d8:	6878      	ldr	r0, [r7, #4]
 80067da:	f7ff fe73 	bl	80064c4 <HAL_UART_TxCpltCallback>
#endif /* USE_HAL_UART_REGISTER_CALLBACKS */

  return HAL_OK;
 80067de:	2300      	movs	r3, #0
}
 80067e0:	4618      	mov	r0, r3
 80067e2:	3708      	adds	r7, #8
 80067e4:	46bd      	mov	sp, r7
 80067e6:	bd80      	pop	{r7, pc}

080067e8 <UART_Receive_IT>:
  * @param  huart  Pointer to a UART_HandleTypeDef structure that contains
  *                the configuration information for the specified UART module.
  * @retval HAL status
  */
static HAL_StatusTypeDef UART_Receive_IT(UART_HandleTypeDef *huart)
{
 80067e8:	b580      	push	{r7, lr}
 80067ea:	b08c      	sub	sp, #48	; 0x30
 80067ec:	af00      	add	r7, sp, #0
 80067ee:	6078      	str	r0, [r7, #4]
  uint8_t  *pdata8bits;
  uint16_t *pdata16bits;

  /* Check that a Rx process is ongoing */
  if (huart->RxState == HAL_UART_STATE_BUSY_RX)
 80067f0:	687b      	ldr	r3, [r7, #4]
 80067f2:	f893 3042 	ldrb.w	r3, [r3, #66]	; 0x42
 80067f6:	b2db      	uxtb	r3, r3
 80067f8:	2b22      	cmp	r3, #34	; 0x22
 80067fa:	f040 80ae 	bne.w	800695a <UART_Receive_IT+0x172>
  {
    if ((huart->Init.WordLength == UART_WORDLENGTH_9B) && (huart->Init.Parity == UART_PARITY_NONE))
 80067fe:	687b      	ldr	r3, [r7, #4]
 8006800:	689b      	ldr	r3, [r3, #8]
 8006802:	f5b3 5f80 	cmp.w	r3, #4096	; 0x1000
 8006806:	d117      	bne.n	8006838 <UART_Receive_IT+0x50>
 8006808:	687b      	ldr	r3, [r7, #4]
 800680a:	691b      	ldr	r3, [r3, #16]
 800680c:	2b00      	cmp	r3, #0
 800680e:	d113      	bne.n	8006838 <UART_Receive_IT+0x50>
    {
      pdata8bits  = NULL;
 8006810:	2300      	movs	r3, #0
 8006812:	62fb      	str	r3, [r7, #44]	; 0x2c
      pdata16bits = (uint16_t *) huart->pRxBuffPtr;
 8006814:	687b      	ldr	r3, [r7, #4]
 8006816:	6a9b      	ldr	r3, [r3, #40]	; 0x28
 8006818:	62bb      	str	r3, [r7, #40]	; 0x28
      *pdata16bits = (uint16_t)(huart->Instance->DR & (uint16_t)0x01FF);
 800681a:	687b      	ldr	r3, [r7, #4]
 800681c:	681b      	ldr	r3, [r3, #0]
 800681e:	685b      	ldr	r3, [r3, #4]
 8006820:	b29b      	uxth	r3, r3
 8006822:	f3c3 0308 	ubfx	r3, r3, #0, #9
 8006826:	b29a      	uxth	r2, r3
 8006828:	6abb      	ldr	r3, [r7, #40]	; 0x28
 800682a:	801a      	strh	r2, [r3, #0]
      huart->pRxBuffPtr += 2U;
 800682c:	687b      	ldr	r3, [r7, #4]
 800682e:	6a9b      	ldr	r3, [r3, #40]	; 0x28
 8006830:	1c9a      	adds	r2, r3, #2
 8006832:	687b      	ldr	r3, [r7, #4]
 8006834:	629a      	str	r2, [r3, #40]	; 0x28
 8006836:	e026      	b.n	8006886 <UART_Receive_IT+0x9e>
    }
    else
    {
      pdata8bits = (uint8_t *) huart->pRxBuffPtr;
 8006838:	687b      	ldr	r3, [r7, #4]
 800683a:	6a9b      	ldr	r3, [r3, #40]	; 0x28
 800683c:	62fb      	str	r3, [r7, #44]	; 0x2c
      pdata16bits  = NULL;
 800683e:	2300      	movs	r3, #0
 8006840:	62bb      	str	r3, [r7, #40]	; 0x28

      if ((huart->Init.WordLength == UART_WORDLENGTH_9B) || ((huart->Init.WordLength == UART_WORDLENGTH_8B) && (huart->Init.Parity == UART_PARITY_NONE)))
 8006842:	687b      	ldr	r3, [r7, #4]
 8006844:	689b      	ldr	r3, [r3, #8]
 8006846:	f5b3 5f80 	cmp.w	r3, #4096	; 0x1000
 800684a:	d007      	beq.n	800685c <UART_Receive_IT+0x74>
 800684c:	687b      	ldr	r3, [r7, #4]
 800684e:	689b      	ldr	r3, [r3, #8]
 8006850:	2b00      	cmp	r3, #0
 8006852:	d10a      	bne.n	800686a <UART_Receive_IT+0x82>
 8006854:	687b      	ldr	r3, [r7, #4]
 8006856:	691b      	ldr	r3, [r3, #16]
 8006858:	2b00      	cmp	r3, #0
 800685a:	d106      	bne.n	800686a <UART_Receive_IT+0x82>
      {
        *pdata8bits = (uint8_t)(huart->Instance->DR & (uint8_t)0x00FF);
 800685c:	687b      	ldr	r3, [r7, #4]
 800685e:	681b      	ldr	r3, [r3, #0]
 8006860:	685b      	ldr	r3, [r3, #4]
 8006862:	b2da      	uxtb	r2, r3
 8006864:	6afb      	ldr	r3, [r7, #44]	; 0x2c
 8006866:	701a      	strb	r2, [r3, #0]
 8006868:	e008      	b.n	800687c <UART_Receive_IT+0x94>
      }
      else
      {
        *pdata8bits = (uint8_t)(huart->Instance->DR & (uint8_t)0x007F);
 800686a:	687b      	ldr	r3, [r7, #4]
 800686c:	681b      	ldr	r3, [r3, #0]
 800686e:	685b      	ldr	r3, [r3, #4]
 8006870:	b2db      	uxtb	r3, r3
 8006872:	f003 037f 	and.w	r3, r3, #127	; 0x7f
 8006876:	b2da      	uxtb	r2, r3
 8006878:	6afb      	ldr	r3, [r7, #44]	; 0x2c
 800687a:	701a      	strb	r2, [r3, #0]
      }
      huart->pRxBuffPtr += 1U;
 800687c:	687b      	ldr	r3, [r7, #4]
 800687e:	6a9b      	ldr	r3, [r3, #40]	; 0x28
 8006880:	1c5a      	adds	r2, r3, #1
 8006882:	687b      	ldr	r3, [r7, #4]
 8006884:	629a      	str	r2, [r3, #40]	; 0x28
    }

    if (--huart->RxXferCount == 0U)
 8006886:	687b      	ldr	r3, [r7, #4]
 8006888:	8ddb      	ldrh	r3, [r3, #46]	; 0x2e
 800688a:	b29b      	uxth	r3, r3
 800688c:	3b01      	subs	r3, #1
 800688e:	b29b      	uxth	r3, r3
 8006890:	687a      	ldr	r2, [r7, #4]
 8006892:	4619      	mov	r1, r3
 8006894:	85d1      	strh	r1, [r2, #46]	; 0x2e
 8006896:	2b00      	cmp	r3, #0
 8006898:	d15d      	bne.n	8006956 <UART_Receive_IT+0x16e>
    {
      /* Disable the UART Data Register not empty Interrupt */
      __HAL_UART_DISABLE_IT(huart, UART_IT_RXNE);
 800689a:	687b      	ldr	r3, [r7, #4]
 800689c:	681b      	ldr	r3, [r3, #0]
 800689e:	68da      	ldr	r2, [r3, #12]
 80068a0:	687b      	ldr	r3, [r7, #4]
 80068a2:	681b      	ldr	r3, [r3, #0]
 80068a4:	f022 0220 	bic.w	r2, r2, #32
 80068a8:	60da      	str	r2, [r3, #12]

      /* Disable the UART Parity Error Interrupt */
      __HAL_UART_DISABLE_IT(huart, UART_IT_PE);
 80068aa:	687b      	ldr	r3, [r7, #4]
 80068ac:	681b      	ldr	r3, [r3, #0]
 80068ae:	68da      	ldr	r2, [r3, #12]
 80068b0:	687b      	ldr	r3, [r7, #4]
 80068b2:	681b      	ldr	r3, [r3, #0]
 80068b4:	f422 7280 	bic.w	r2, r2, #256	; 0x100
 80068b8:	60da      	str	r2, [r3, #12]

      /* Disable the UART Error Interrupt: (Frame error, noise error, overrun error) */
      __HAL_UART_DISABLE_IT(huart, UART_IT_ERR);
 80068ba:	687b      	ldr	r3, [r7, #4]
 80068bc:	681b      	ldr	r3, [r3, #0]
 80068be:	695a      	ldr	r2, [r3, #20]
 80068c0:	687b      	ldr	r3, [r7, #4]
 80068c2:	681b      	ldr	r3, [r3, #0]
 80068c4:	f022 0201 	bic.w	r2, r2, #1
 80068c8:	615a      	str	r2, [r3, #20]

      /* Rx process is completed, restore huart->RxState to Ready */
      huart->RxState = HAL_UART_STATE_READY;
 80068ca:	687b      	ldr	r3, [r7, #4]
 80068cc:	2220      	movs	r2, #32
 80068ce:	f883 2042 	strb.w	r2, [r3, #66]	; 0x42

      /* Initialize type of RxEvent to Transfer Complete */
      huart->RxEventType = HAL_UART_RXEVENT_TC;
 80068d2:	687b      	ldr	r3, [r7, #4]
 80068d4:	2200      	movs	r2, #0
 80068d6:	635a      	str	r2, [r3, #52]	; 0x34

      /* Check current reception Mode :
         If Reception till IDLE event has been selected : */
      if (huart->ReceptionType == HAL_UART_RECEPTION_TOIDLE)
 80068d8:	687b      	ldr	r3, [r7, #4]
 80068da:	6b1b      	ldr	r3, [r3, #48]	; 0x30
 80068dc:	2b01      	cmp	r3, #1
 80068de:	d135      	bne.n	800694c <UART_Receive_IT+0x164>
      {
        /* Set reception type to Standard */
        huart->ReceptionType = HAL_UART_RECEPTION_STANDARD;
 80068e0:	687b      	ldr	r3, [r7, #4]
 80068e2:	2200      	movs	r2, #0
 80068e4:	631a      	str	r2, [r3, #48]	; 0x30

        /* Disable IDLE interrupt */
        ATOMIC_CLEAR_BIT(huart->Instance->CR1, USART_CR1_IDLEIE);
 80068e6:	687b      	ldr	r3, [r7, #4]
 80068e8:	681b      	ldr	r3, [r3, #0]
 80068ea:	330c      	adds	r3, #12
 80068ec:	617b      	str	r3, [r7, #20]
   __ASM volatile ("ldrex %0, %1" : "=r" (result) : "Q" (*addr) );
 80068ee:	697b      	ldr	r3, [r7, #20]
 80068f0:	e853 3f00 	ldrex	r3, [r3]
 80068f4:	613b      	str	r3, [r7, #16]
   return(result);
 80068f6:	693b      	ldr	r3, [r7, #16]
 80068f8:	f023 0310 	bic.w	r3, r3, #16
 80068fc:	627b      	str	r3, [r7, #36]	; 0x24
 80068fe:	687b      	ldr	r3, [r7, #4]
 8006900:	681b      	ldr	r3, [r3, #0]
 8006902:	330c      	adds	r3, #12
 8006904:	6a7a      	ldr	r2, [r7, #36]	; 0x24
 8006906:	623a      	str	r2, [r7, #32]
 8006908:	61fb      	str	r3, [r7, #28]
   __ASM volatile ("strex %0, %2, %1" : "=&r" (result), "=Q" (*addr) : "r" (value) );
 800690a:	69f9      	ldr	r1, [r7, #28]
 800690c:	6a3a      	ldr	r2, [r7, #32]
 800690e:	e841 2300 	strex	r3, r2, [r1]
 8006912:	61bb      	str	r3, [r7, #24]
   return(result);
 8006914:	69bb      	ldr	r3, [r7, #24]
 8006916:	2b00      	cmp	r3, #0
 8006918:	d1e5      	bne.n	80068e6 <UART_Receive_IT+0xfe>

        /* Check if IDLE flag is set */
        if (__HAL_UART_GET_FLAG(huart, UART_FLAG_IDLE))
 800691a:	687b      	ldr	r3, [r7, #4]
 800691c:	681b      	ldr	r3, [r3, #0]
 800691e:	681b      	ldr	r3, [r3, #0]
 8006920:	f003 0310 	and.w	r3, r3, #16
 8006924:	2b10      	cmp	r3, #16
 8006926:	d10a      	bne.n	800693e <UART_Receive_IT+0x156>
        {
          /* Clear IDLE flag in ISR */
          __HAL_UART_CLEAR_IDLEFLAG(huart);
 8006928:	2300      	movs	r3, #0
 800692a:	60fb      	str	r3, [r7, #12]
 800692c:	687b      	ldr	r3, [r7, #4]
 800692e:	681b      	ldr	r3, [r3, #0]
 8006930:	681b      	ldr	r3, [r3, #0]
 8006932:	60fb      	str	r3, [r7, #12]
 8006934:	687b      	ldr	r3, [r7, #4]
 8006936:	681b      	ldr	r3, [r3, #0]
 8006938:	685b      	ldr	r3, [r3, #4]
 800693a:	60fb      	str	r3, [r7, #12]
 800693c:	68fb      	ldr	r3, [r7, #12]
#if (USE_HAL_UART_REGISTER_CALLBACKS == 1)
        /*Call registered Rx Event callback*/
        huart->RxEventCallback(huart, huart->RxXferSize);
#else
        /*Call legacy weak Rx Event callback*/
        HAL_UARTEx_RxEventCallback(huart, huart->RxXferSize);
 800693e:	687b      	ldr	r3, [r7, #4]
 8006940:	8d9b      	ldrh	r3, [r3, #44]	; 0x2c
 8006942:	4619      	mov	r1, r3
 8006944:	6878      	ldr	r0, [r7, #4]
 8006946:	f7ff fdd1 	bl	80064ec <HAL_UARTEx_RxEventCallback>
 800694a:	e002      	b.n	8006952 <UART_Receive_IT+0x16a>
#if (USE_HAL_UART_REGISTER_CALLBACKS == 1)
        /*Call registered Rx complete callback*/
        huart->RxCpltCallback(huart);
#else
        /*Call legacy weak Rx complete callback*/
        HAL_UART_RxCpltCallback(huart);
 800694c:	6878      	ldr	r0, [r7, #4]
 800694e:	f7fb fa65 	bl	8001e1c <HAL_UART_RxCpltCallback>
#endif /* USE_HAL_UART_REGISTER_CALLBACKS */
      }

      return HAL_OK;
 8006952:	2300      	movs	r3, #0
 8006954:	e002      	b.n	800695c <UART_Receive_IT+0x174>
    }
    return HAL_OK;
 8006956:	2300      	movs	r3, #0
 8006958:	e000      	b.n	800695c <UART_Receive_IT+0x174>
  }
  else
  {
    return HAL_BUSY;
 800695a:	2302      	movs	r3, #2
  }
}
 800695c:	4618      	mov	r0, r3
 800695e:	3730      	adds	r7, #48	; 0x30
 8006960:	46bd      	mov	sp, r7
 8006962:	bd80      	pop	{r7, pc}

08006964 <UART_SetConfig>:
  * @param  huart  Pointer to a UART_HandleTypeDef structure that contains
  *                the configuration information for the specified UART module.
  * @retval None
  */
static void UART_SetConfig(UART_HandleTypeDef *huart)
{
 8006964:	e92d 4fb0 	stmdb	sp!, {r4, r5, r7, r8, r9, sl, fp, lr}
 8006968:	b0c0      	sub	sp, #256	; 0x100
 800696a:	af00      	add	r7, sp, #0
 800696c:	f8c7 00f4 	str.w	r0, [r7, #244]	; 0xf4
  assert_param(IS_UART_MODE(huart->Init.Mode));

  /*-------------------------- USART CR2 Configuration -----------------------*/
  /* Configure the UART Stop Bits: Set STOP[13:12] bits
     according to huart->Init.StopBits value */
  MODIFY_REG(huart->Instance->CR2, USART_CR2_STOP, huart->Init.StopBits);
 8006970:	f8d7 30f4 	ldr.w	r3, [r7, #244]	; 0xf4
 8006974:	681b      	ldr	r3, [r3, #0]
 8006976:	691b      	ldr	r3, [r3, #16]
 8006978:	f423 5040 	bic.w	r0, r3, #12288	; 0x3000
 800697c:	f8d7 30f4 	ldr.w	r3, [r7, #244]	; 0xf4
 8006980:	68d9      	ldr	r1, [r3, #12]
 8006982:	f8d7 30f4 	ldr.w	r3, [r7, #244]	; 0xf4
 8006986:	681a      	ldr	r2, [r3, #0]
 8006988:	ea40 0301 	orr.w	r3, r0, r1
 800698c:	6113      	str	r3, [r2, #16]
     Set the M bits according to huart->Init.WordLength value
     Set PCE and PS bits according to huart->Init.Parity value
     Set TE and RE bits according to huart->Init.Mode value
     Set OVER8 bit according to huart->Init.OverSampling value */

  tmpreg = (uint32_t)huart->Init.WordLength | huart->Init.Parity | huart->Init.Mode | huart->Init.OverSampling;
 800698e:	f8d7 30f4 	ldr.w	r3, [r7, #244]	; 0xf4
 8006992:	689a      	ldr	r2, [r3, #8]
 8006994:	f8d7 30f4 	ldr.w	r3, [r7, #244]	; 0xf4
 8006998:	691b      	ldr	r3, [r3, #16]
 800699a:	431a      	orrs	r2, r3
 800699c:	f8d7 30f4 	ldr.w	r3, [r7, #244]	; 0xf4
 80069a0:	695b      	ldr	r3, [r3, #20]
 80069a2:	431a      	orrs	r2, r3
 80069a4:	f8d7 30f4 	ldr.w	r3, [r7, #244]	; 0xf4
 80069a8:	69db      	ldr	r3, [r3, #28]
 80069aa:	4313      	orrs	r3, r2
 80069ac:	f8c7 30f8 	str.w	r3, [r7, #248]	; 0xf8
  MODIFY_REG(huart->Instance->CR1,
 80069b0:	f8d7 30f4 	ldr.w	r3, [r7, #244]	; 0xf4
 80069b4:	681b      	ldr	r3, [r3, #0]
 80069b6:	68db      	ldr	r3, [r3, #12]
 80069b8:	f423 4116 	bic.w	r1, r3, #38400	; 0x9600
 80069bc:	f021 010c 	bic.w	r1, r1, #12
 80069c0:	f8d7 30f4 	ldr.w	r3, [r7, #244]	; 0xf4
 80069c4:	681a      	ldr	r2, [r3, #0]
 80069c6:	f8d7 30f8 	ldr.w	r3, [r7, #248]	; 0xf8
 80069ca:	430b      	orrs	r3, r1
 80069cc:	60d3      	str	r3, [r2, #12]
             (uint32_t)(USART_CR1_M | USART_CR1_PCE | USART_CR1_PS | USART_CR1_TE | USART_CR1_RE | USART_CR1_OVER8),
             tmpreg);

  /*-------------------------- USART CR3 Configuration -----------------------*/
  /* Configure the UART HFC: Set CTSE and RTSE bits according to huart->Init.HwFlowCtl value */
  MODIFY_REG(huart->Instance->CR3, (USART_CR3_RTSE | USART_CR3_CTSE), huart->Init.HwFlowCtl);
 80069ce:	f8d7 30f4 	ldr.w	r3, [r7, #244]	; 0xf4
 80069d2:	681b      	ldr	r3, [r3, #0]
 80069d4:	695b      	ldr	r3, [r3, #20]
 80069d6:	f423 7040 	bic.w	r0, r3, #768	; 0x300
 80069da:	f8d7 30f4 	ldr.w	r3, [r7, #244]	; 0xf4
 80069de:	6999      	ldr	r1, [r3, #24]
 80069e0:	f8d7 30f4 	ldr.w	r3, [r7, #244]	; 0xf4
 80069e4:	681a      	ldr	r2, [r3, #0]
 80069e6:	ea40 0301 	orr.w	r3, r0, r1
 80069ea:	6153      	str	r3, [r2, #20]
    if ((huart->Instance == USART1) || (huart->Instance == USART6) || (huart->Instance == UART9) || (huart->Instance == UART10))
    {
      pclk = HAL_RCC_GetPCLK2Freq();
    }
#elif defined(USART6)
    if ((huart->Instance == USART1) || (huart->Instance == USART6))
 80069ec:	f8d7 30f4 	ldr.w	r3, [r7, #244]	; 0xf4
 80069f0:	681a      	ldr	r2, [r3, #0]
 80069f2:	4b8f      	ldr	r3, [pc, #572]	; (8006c30 <UART_SetConfig+0x2cc>)
 80069f4:	429a      	cmp	r2, r3
 80069f6:	d005      	beq.n	8006a04 <UART_SetConfig+0xa0>
 80069f8:	f8d7 30f4 	ldr.w	r3, [r7, #244]	; 0xf4
 80069fc:	681a      	ldr	r2, [r3, #0]
 80069fe:	4b8d      	ldr	r3, [pc, #564]	; (8006c34 <UART_SetConfig+0x2d0>)
 8006a00:	429a      	cmp	r2, r3
 8006a02:	d104      	bne.n	8006a0e <UART_SetConfig+0xaa>
    {
      pclk = HAL_RCC_GetPCLK2Freq();
 8006a04:	f7fd fbf8 	bl	80041f8 <HAL_RCC_GetPCLK2Freq>
 8006a08:	f8c7 00fc 	str.w	r0, [r7, #252]	; 0xfc
 8006a0c:	e003      	b.n	8006a16 <UART_SetConfig+0xb2>
      pclk = HAL_RCC_GetPCLK2Freq();
    }
#endif /* USART6 */
    else
    {
      pclk = HAL_RCC_GetPCLK1Freq();
 8006a0e:	f7fd fbdf 	bl	80041d0 <HAL_RCC_GetPCLK1Freq>
 8006a12:	f8c7 00fc 	str.w	r0, [r7, #252]	; 0xfc
    }
  /*-------------------------- USART BRR Configuration ---------------------*/
  if (huart->Init.OverSampling == UART_OVERSAMPLING_8)
 8006a16:	f8d7 30f4 	ldr.w	r3, [r7, #244]	; 0xf4
 8006a1a:	69db      	ldr	r3, [r3, #28]
 8006a1c:	f5b3 4f00 	cmp.w	r3, #32768	; 0x8000
 8006a20:	f040 810c 	bne.w	8006c3c <UART_SetConfig+0x2d8>
  {
    huart->Instance->BRR = UART_BRR_SAMPLING8(pclk, huart->Init.BaudRate);
 8006a24:	f8d7 30fc 	ldr.w	r3, [r7, #252]	; 0xfc
 8006a28:	2200      	movs	r2, #0
 8006a2a:	f8c7 30e8 	str.w	r3, [r7, #232]	; 0xe8
 8006a2e:	f8c7 20ec 	str.w	r2, [r7, #236]	; 0xec
 8006a32:	e9d7 453a 	ldrd	r4, r5, [r7, #232]	; 0xe8
 8006a36:	4622      	mov	r2, r4
 8006a38:	462b      	mov	r3, r5
 8006a3a:	1891      	adds	r1, r2, r2
 8006a3c:	65b9      	str	r1, [r7, #88]	; 0x58
 8006a3e:	415b      	adcs	r3, r3
 8006a40:	65fb      	str	r3, [r7, #92]	; 0x5c
 8006a42:	e9d7 2316 	ldrd	r2, r3, [r7, #88]	; 0x58
 8006a46:	4621      	mov	r1, r4
 8006a48:	eb12 0801 	adds.w	r8, r2, r1
 8006a4c:	4629      	mov	r1, r5
 8006a4e:	eb43 0901 	adc.w	r9, r3, r1
 8006a52:	f04f 0200 	mov.w	r2, #0
 8006a56:	f04f 0300 	mov.w	r3, #0
 8006a5a:	ea4f 03c9 	mov.w	r3, r9, lsl #3
 8006a5e:	ea43 7358 	orr.w	r3, r3, r8, lsr #29
 8006a62:	ea4f 02c8 	mov.w	r2, r8, lsl #3
 8006a66:	4690      	mov	r8, r2
 8006a68:	4699      	mov	r9, r3
 8006a6a:	4623      	mov	r3, r4
 8006a6c:	eb18 0303 	adds.w	r3, r8, r3
 8006a70:	f8c7 30e0 	str.w	r3, [r7, #224]	; 0xe0
 8006a74:	462b      	mov	r3, r5
 8006a76:	eb49 0303 	adc.w	r3, r9, r3
 8006a7a:	f8c7 30e4 	str.w	r3, [r7, #228]	; 0xe4
 8006a7e:	f8d7 30f4 	ldr.w	r3, [r7, #244]	; 0xf4
 8006a82:	685b      	ldr	r3, [r3, #4]
 8006a84:	2200      	movs	r2, #0
 8006a86:	f8c7 30d8 	str.w	r3, [r7, #216]	; 0xd8
 8006a8a:	f8c7 20dc 	str.w	r2, [r7, #220]	; 0xdc
 8006a8e:	e9d7 1236 	ldrd	r1, r2, [r7, #216]	; 0xd8
 8006a92:	460b      	mov	r3, r1
 8006a94:	18db      	adds	r3, r3, r3
 8006a96:	653b      	str	r3, [r7, #80]	; 0x50
 8006a98:	4613      	mov	r3, r2
 8006a9a:	eb42 0303 	adc.w	r3, r2, r3
 8006a9e:	657b      	str	r3, [r7, #84]	; 0x54
 8006aa0:	e9d7 2314 	ldrd	r2, r3, [r7, #80]	; 0x50
 8006aa4:	e9d7 0138 	ldrd	r0, r1, [r7, #224]	; 0xe0
 8006aa8:	f7f9 fba8 	bl	80001fc <__aeabi_uldivmod>
 8006aac:	4602      	mov	r2, r0
 8006aae:	460b      	mov	r3, r1
 8006ab0:	4b61      	ldr	r3, [pc, #388]	; (8006c38 <UART_SetConfig+0x2d4>)
 8006ab2:	fba3 2302 	umull	r2, r3, r3, r2
 8006ab6:	095b      	lsrs	r3, r3, #5
 8006ab8:	011c      	lsls	r4, r3, #4
 8006aba:	f8d7 30fc 	ldr.w	r3, [r7, #252]	; 0xfc
 8006abe:	2200      	movs	r2, #0
 8006ac0:	f8c7 30d0 	str.w	r3, [r7, #208]	; 0xd0
 8006ac4:	f8c7 20d4 	str.w	r2, [r7, #212]	; 0xd4
 8006ac8:	e9d7 8934 	ldrd	r8, r9, [r7, #208]	; 0xd0
 8006acc:	4642      	mov	r2, r8
 8006ace:	464b      	mov	r3, r9
 8006ad0:	1891      	adds	r1, r2, r2
 8006ad2:	64b9      	str	r1, [r7, #72]	; 0x48
 8006ad4:	415b      	adcs	r3, r3
 8006ad6:	64fb      	str	r3, [r7, #76]	; 0x4c
 8006ad8:	e9d7 2312 	ldrd	r2, r3, [r7, #72]	; 0x48
 8006adc:	4641      	mov	r1, r8
 8006ade:	eb12 0a01 	adds.w	sl, r2, r1
 8006ae2:	4649      	mov	r1, r9
 8006ae4:	eb43 0b01 	adc.w	fp, r3, r1
 8006ae8:	f04f 0200 	mov.w	r2, #0
 8006aec:	f04f 0300 	mov.w	r3, #0
 8006af0:	ea4f 03cb 	mov.w	r3, fp, lsl #3
 8006af4:	ea43 735a 	orr.w	r3, r3, sl, lsr #29
 8006af8:	ea4f 02ca 	mov.w	r2, sl, lsl #3
 8006afc:	4692      	mov	sl, r2
 8006afe:	469b      	mov	fp, r3
 8006b00:	4643      	mov	r3, r8
 8006b02:	eb1a 0303 	adds.w	r3, sl, r3
 8006b06:	f8c7 30c8 	str.w	r3, [r7, #200]	; 0xc8
 8006b0a:	464b      	mov	r3, r9
 8006b0c:	eb4b 0303 	adc.w	r3, fp, r3
 8006b10:	f8c7 30cc 	str.w	r3, [r7, #204]	; 0xcc
 8006b14:	f8d7 30f4 	ldr.w	r3, [r7, #244]	; 0xf4
 8006b18:	685b      	ldr	r3, [r3, #4]
 8006b1a:	2200      	movs	r2, #0
 8006b1c:	f8c7 30c0 	str.w	r3, [r7, #192]	; 0xc0
 8006b20:	f8c7 20c4 	str.w	r2, [r7, #196]	; 0xc4
 8006b24:	e9d7 1230 	ldrd	r1, r2, [r7, #192]	; 0xc0
 8006b28:	460b      	mov	r3, r1
 8006b2a:	18db      	adds	r3, r3, r3
 8006b2c:	643b      	str	r3, [r7, #64]	; 0x40
 8006b2e:	4613      	mov	r3, r2
 8006b30:	eb42 0303 	adc.w	r3, r2, r3
 8006b34:	647b      	str	r3, [r7, #68]	; 0x44
 8006b36:	e9d7 2310 	ldrd	r2, r3, [r7, #64]	; 0x40
 8006b3a:	e9d7 0132 	ldrd	r0, r1, [r7, #200]	; 0xc8
 8006b3e:	f7f9 fb5d 	bl	80001fc <__aeabi_uldivmod>
 8006b42:	4602      	mov	r2, r0
 8006b44:	460b      	mov	r3, r1
 8006b46:	4611      	mov	r1, r2
 8006b48:	4b3b      	ldr	r3, [pc, #236]	; (8006c38 <UART_SetConfig+0x2d4>)
 8006b4a:	fba3 2301 	umull	r2, r3, r3, r1
 8006b4e:	095b      	lsrs	r3, r3, #5
 8006b50:	2264      	movs	r2, #100	; 0x64
 8006b52:	fb02 f303 	mul.w	r3, r2, r3
 8006b56:	1acb      	subs	r3, r1, r3
 8006b58:	00db      	lsls	r3, r3, #3
 8006b5a:	f103 0232 	add.w	r2, r3, #50	; 0x32
 8006b5e:	4b36      	ldr	r3, [pc, #216]	; (8006c38 <UART_SetConfig+0x2d4>)
 8006b60:	fba3 2302 	umull	r2, r3, r3, r2
 8006b64:	095b      	lsrs	r3, r3, #5
 8006b66:	005b      	lsls	r3, r3, #1
 8006b68:	f403 73f8 	and.w	r3, r3, #496	; 0x1f0
 8006b6c:	441c      	add	r4, r3
 8006b6e:	f8d7 30fc 	ldr.w	r3, [r7, #252]	; 0xfc
 8006b72:	2200      	movs	r2, #0
 8006b74:	f8c7 30b8 	str.w	r3, [r7, #184]	; 0xb8
 8006b78:	f8c7 20bc 	str.w	r2, [r7, #188]	; 0xbc
 8006b7c:	e9d7 892e 	ldrd	r8, r9, [r7, #184]	; 0xb8
 8006b80:	4642      	mov	r2, r8
 8006b82:	464b      	mov	r3, r9
 8006b84:	1891      	adds	r1, r2, r2
 8006b86:	63b9      	str	r1, [r7, #56]	; 0x38
 8006b88:	415b      	adcs	r3, r3
 8006b8a:	63fb      	str	r3, [r7, #60]	; 0x3c
 8006b8c:	e9d7 230e 	ldrd	r2, r3, [r7, #56]	; 0x38
 8006b90:	4641      	mov	r1, r8
 8006b92:	1851      	adds	r1, r2, r1
 8006b94:	6339      	str	r1, [r7, #48]	; 0x30
 8006b96:	4649      	mov	r1, r9
 8006b98:	414b      	adcs	r3, r1
 8006b9a:	637b      	str	r3, [r7, #52]	; 0x34
 8006b9c:	f04f 0200 	mov.w	r2, #0
 8006ba0:	f04f 0300 	mov.w	r3, #0
 8006ba4:	e9d7 ab0c 	ldrd	sl, fp, [r7, #48]	; 0x30
 8006ba8:	4659      	mov	r1, fp
 8006baa:	00cb      	lsls	r3, r1, #3
 8006bac:	4651      	mov	r1, sl
 8006bae:	ea43 7351 	orr.w	r3, r3, r1, lsr #29
 8006bb2:	4651      	mov	r1, sl
 8006bb4:	00ca      	lsls	r2, r1, #3
 8006bb6:	4610      	mov	r0, r2
 8006bb8:	4619      	mov	r1, r3
 8006bba:	4603      	mov	r3, r0
 8006bbc:	4642      	mov	r2, r8
 8006bbe:	189b      	adds	r3, r3, r2
 8006bc0:	f8c7 30b0 	str.w	r3, [r7, #176]	; 0xb0
 8006bc4:	464b      	mov	r3, r9
 8006bc6:	460a      	mov	r2, r1
 8006bc8:	eb42 0303 	adc.w	r3, r2, r3
 8006bcc:	f8c7 30b4 	str.w	r3, [r7, #180]	; 0xb4
 8006bd0:	f8d7 30f4 	ldr.w	r3, [r7, #244]	; 0xf4
 8006bd4:	685b      	ldr	r3, [r3, #4]
 8006bd6:	2200      	movs	r2, #0
 8006bd8:	f8c7 30a8 	str.w	r3, [r7, #168]	; 0xa8
 8006bdc:	f8c7 20ac 	str.w	r2, [r7, #172]	; 0xac
 8006be0:	e9d7 122a 	ldrd	r1, r2, [r7, #168]	; 0xa8
 8006be4:	460b      	mov	r3, r1
 8006be6:	18db      	adds	r3, r3, r3
 8006be8:	62bb      	str	r3, [r7, #40]	; 0x28
 8006bea:	4613      	mov	r3, r2
 8006bec:	eb42 0303 	adc.w	r3, r2, r3
 8006bf0:	62fb      	str	r3, [r7, #44]	; 0x2c
 8006bf2:	e9d7 230a 	ldrd	r2, r3, [r7, #40]	; 0x28
 8006bf6:	e9d7 012c 	ldrd	r0, r1, [r7, #176]	; 0xb0
 8006bfa:	f7f9 faff 	bl	80001fc <__aeabi_uldivmod>
 8006bfe:	4602      	mov	r2, r0
 8006c00:	460b      	mov	r3, r1
 8006c02:	4b0d      	ldr	r3, [pc, #52]	; (8006c38 <UART_SetConfig+0x2d4>)
 8006c04:	fba3 1302 	umull	r1, r3, r3, r2
 8006c08:	095b      	lsrs	r3, r3, #5
 8006c0a:	2164      	movs	r1, #100	; 0x64
 8006c0c:	fb01 f303 	mul.w	r3, r1, r3
 8006c10:	1ad3      	subs	r3, r2, r3
 8006c12:	00db      	lsls	r3, r3, #3
 8006c14:	3332      	adds	r3, #50	; 0x32
 8006c16:	4a08      	ldr	r2, [pc, #32]	; (8006c38 <UART_SetConfig+0x2d4>)
 8006c18:	fba2 2303 	umull	r2, r3, r2, r3
 8006c1c:	095b      	lsrs	r3, r3, #5
 8006c1e:	f003 0207 	and.w	r2, r3, #7
 8006c22:	f8d7 30f4 	ldr.w	r3, [r7, #244]	; 0xf4
 8006c26:	681b      	ldr	r3, [r3, #0]
 8006c28:	4422      	add	r2, r4
 8006c2a:	609a      	str	r2, [r3, #8]
  }
  else
  {
    huart->Instance->BRR = UART_BRR_SAMPLING16(pclk, huart->Init.BaudRate);
  }
}
 8006c2c:	e106      	b.n	8006e3c <UART_SetConfig+0x4d8>
 8006c2e:	bf00      	nop
 8006c30:	40011000 	.word	0x40011000
 8006c34:	40011400 	.word	0x40011400
 8006c38:	51eb851f 	.word	0x51eb851f
    huart->Instance->BRR = UART_BRR_SAMPLING16(pclk, huart->Init.BaudRate);
 8006c3c:	f8d7 30fc 	ldr.w	r3, [r7, #252]	; 0xfc
 8006c40:	2200      	movs	r2, #0
 8006c42:	f8c7 30a0 	str.w	r3, [r7, #160]	; 0xa0
 8006c46:	f8c7 20a4 	str.w	r2, [r7, #164]	; 0xa4
 8006c4a:	e9d7 8928 	ldrd	r8, r9, [r7, #160]	; 0xa0
 8006c4e:	4642      	mov	r2, r8
 8006c50:	464b      	mov	r3, r9
 8006c52:	1891      	adds	r1, r2, r2
 8006c54:	6239      	str	r1, [r7, #32]
 8006c56:	415b      	adcs	r3, r3
 8006c58:	627b      	str	r3, [r7, #36]	; 0x24
 8006c5a:	e9d7 2308 	ldrd	r2, r3, [r7, #32]
 8006c5e:	4641      	mov	r1, r8
 8006c60:	1854      	adds	r4, r2, r1
 8006c62:	4649      	mov	r1, r9
 8006c64:	eb43 0501 	adc.w	r5, r3, r1
 8006c68:	f04f 0200 	mov.w	r2, #0
 8006c6c:	f04f 0300 	mov.w	r3, #0
 8006c70:	00eb      	lsls	r3, r5, #3
 8006c72:	ea43 7354 	orr.w	r3, r3, r4, lsr #29
 8006c76:	00e2      	lsls	r2, r4, #3
 8006c78:	4614      	mov	r4, r2
 8006c7a:	461d      	mov	r5, r3
 8006c7c:	4643      	mov	r3, r8
 8006c7e:	18e3      	adds	r3, r4, r3
 8006c80:	f8c7 3098 	str.w	r3, [r7, #152]	; 0x98
 8006c84:	464b      	mov	r3, r9
 8006c86:	eb45 0303 	adc.w	r3, r5, r3
 8006c8a:	f8c7 309c 	str.w	r3, [r7, #156]	; 0x9c
 8006c8e:	f8d7 30f4 	ldr.w	r3, [r7, #244]	; 0xf4
 8006c92:	685b      	ldr	r3, [r3, #4]
 8006c94:	2200      	movs	r2, #0
 8006c96:	f8c7 3090 	str.w	r3, [r7, #144]	; 0x90
 8006c9a:	f8c7 2094 	str.w	r2, [r7, #148]	; 0x94
 8006c9e:	f04f 0200 	mov.w	r2, #0
 8006ca2:	f04f 0300 	mov.w	r3, #0
 8006ca6:	e9d7 4524 	ldrd	r4, r5, [r7, #144]	; 0x90
 8006caa:	4629      	mov	r1, r5
 8006cac:	008b      	lsls	r3, r1, #2
 8006cae:	4621      	mov	r1, r4
 8006cb0:	ea43 7391 	orr.w	r3, r3, r1, lsr #30
 8006cb4:	4621      	mov	r1, r4
 8006cb6:	008a      	lsls	r2, r1, #2
 8006cb8:	e9d7 0126 	ldrd	r0, r1, [r7, #152]	; 0x98
 8006cbc:	f7f9 fa9e 	bl	80001fc <__aeabi_uldivmod>
 8006cc0:	4602      	mov	r2, r0
 8006cc2:	460b      	mov	r3, r1
 8006cc4:	4b60      	ldr	r3, [pc, #384]	; (8006e48 <UART_SetConfig+0x4e4>)
 8006cc6:	fba3 2302 	umull	r2, r3, r3, r2
 8006cca:	095b      	lsrs	r3, r3, #5
 8006ccc:	011c      	lsls	r4, r3, #4
 8006cce:	f8d7 30fc 	ldr.w	r3, [r7, #252]	; 0xfc
 8006cd2:	2200      	movs	r2, #0
 8006cd4:	f8c7 3088 	str.w	r3, [r7, #136]	; 0x88
 8006cd8:	f8c7 208c 	str.w	r2, [r7, #140]	; 0x8c
 8006cdc:	e9d7 8922 	ldrd	r8, r9, [r7, #136]	; 0x88
 8006ce0:	4642      	mov	r2, r8
 8006ce2:	464b      	mov	r3, r9
 8006ce4:	1891      	adds	r1, r2, r2
 8006ce6:	61b9      	str	r1, [r7, #24]
 8006ce8:	415b      	adcs	r3, r3
 8006cea:	61fb      	str	r3, [r7, #28]
 8006cec:	e9d7 2306 	ldrd	r2, r3, [r7, #24]
 8006cf0:	4641      	mov	r1, r8
 8006cf2:	1851      	adds	r1, r2, r1
 8006cf4:	6139      	str	r1, [r7, #16]
 8006cf6:	4649      	mov	r1, r9
 8006cf8:	414b      	adcs	r3, r1
 8006cfa:	617b      	str	r3, [r7, #20]
 8006cfc:	f04f 0200 	mov.w	r2, #0
 8006d00:	f04f 0300 	mov.w	r3, #0
 8006d04:	e9d7 ab04 	ldrd	sl, fp, [r7, #16]
 8006d08:	4659      	mov	r1, fp
 8006d0a:	00cb      	lsls	r3, r1, #3
 8006d0c:	4651      	mov	r1, sl
 8006d0e:	ea43 7351 	orr.w	r3, r3, r1, lsr #29
 8006d12:	4651      	mov	r1, sl
 8006d14:	00ca      	lsls	r2, r1, #3
 8006d16:	4610      	mov	r0, r2
 8006d18:	4619      	mov	r1, r3
 8006d1a:	4603      	mov	r3, r0
 8006d1c:	4642      	mov	r2, r8
 8006d1e:	189b      	adds	r3, r3, r2
 8006d20:	f8c7 3080 	str.w	r3, [r7, #128]	; 0x80
 8006d24:	464b      	mov	r3, r9
 8006d26:	460a      	mov	r2, r1
 8006d28:	eb42 0303 	adc.w	r3, r2, r3
 8006d2c:	f8c7 3084 	str.w	r3, [r7, #132]	; 0x84
 8006d30:	f8d7 30f4 	ldr.w	r3, [r7, #244]	; 0xf4
 8006d34:	685b      	ldr	r3, [r3, #4]
 8006d36:	2200      	movs	r2, #0
 8006d38:	67bb      	str	r3, [r7, #120]	; 0x78
 8006d3a:	67fa      	str	r2, [r7, #124]	; 0x7c
 8006d3c:	f04f 0200 	mov.w	r2, #0
 8006d40:	f04f 0300 	mov.w	r3, #0
 8006d44:	e9d7 891e 	ldrd	r8, r9, [r7, #120]	; 0x78
 8006d48:	4649      	mov	r1, r9
 8006d4a:	008b      	lsls	r3, r1, #2
 8006d4c:	4641      	mov	r1, r8
 8006d4e:	ea43 7391 	orr.w	r3, r3, r1, lsr #30
 8006d52:	4641      	mov	r1, r8
 8006d54:	008a      	lsls	r2, r1, #2
 8006d56:	e9d7 0120 	ldrd	r0, r1, [r7, #128]	; 0x80
 8006d5a:	f7f9 fa4f 	bl	80001fc <__aeabi_uldivmod>
 8006d5e:	4602      	mov	r2, r0
 8006d60:	460b      	mov	r3, r1
 8006d62:	4611      	mov	r1, r2
 8006d64:	4b38      	ldr	r3, [pc, #224]	; (8006e48 <UART_SetConfig+0x4e4>)
 8006d66:	fba3 2301 	umull	r2, r3, r3, r1
 8006d6a:	095b      	lsrs	r3, r3, #5
 8006d6c:	2264      	movs	r2, #100	; 0x64
 8006d6e:	fb02 f303 	mul.w	r3, r2, r3
 8006d72:	1acb      	subs	r3, r1, r3
 8006d74:	011b      	lsls	r3, r3, #4
 8006d76:	3332      	adds	r3, #50	; 0x32
 8006d78:	4a33      	ldr	r2, [pc, #204]	; (8006e48 <UART_SetConfig+0x4e4>)
 8006d7a:	fba2 2303 	umull	r2, r3, r2, r3
 8006d7e:	095b      	lsrs	r3, r3, #5
 8006d80:	f003 03f0 	and.w	r3, r3, #240	; 0xf0
 8006d84:	441c      	add	r4, r3
 8006d86:	f8d7 30fc 	ldr.w	r3, [r7, #252]	; 0xfc
 8006d8a:	2200      	movs	r2, #0
 8006d8c:	673b      	str	r3, [r7, #112]	; 0x70
 8006d8e:	677a      	str	r2, [r7, #116]	; 0x74
 8006d90:	e9d7 891c 	ldrd	r8, r9, [r7, #112]	; 0x70
 8006d94:	4642      	mov	r2, r8
 8006d96:	464b      	mov	r3, r9
 8006d98:	1891      	adds	r1, r2, r2
 8006d9a:	60b9      	str	r1, [r7, #8]
 8006d9c:	415b      	adcs	r3, r3
 8006d9e:	60fb      	str	r3, [r7, #12]
 8006da0:	e9d7 2302 	ldrd	r2, r3, [r7, #8]
 8006da4:	4641      	mov	r1, r8
 8006da6:	1851      	adds	r1, r2, r1
 8006da8:	6039      	str	r1, [r7, #0]
 8006daa:	4649      	mov	r1, r9
 8006dac:	414b      	adcs	r3, r1
 8006dae:	607b      	str	r3, [r7, #4]
 8006db0:	f04f 0200 	mov.w	r2, #0
 8006db4:	f04f 0300 	mov.w	r3, #0
 8006db8:	e9d7 ab00 	ldrd	sl, fp, [r7]
 8006dbc:	4659      	mov	r1, fp
 8006dbe:	00cb      	lsls	r3, r1, #3
 8006dc0:	4651      	mov	r1, sl
 8006dc2:	ea43 7351 	orr.w	r3, r3, r1, lsr #29
 8006dc6:	4651      	mov	r1, sl
 8006dc8:	00ca      	lsls	r2, r1, #3
 8006dca:	4610      	mov	r0, r2
 8006dcc:	4619      	mov	r1, r3
 8006dce:	4603      	mov	r3, r0
 8006dd0:	4642      	mov	r2, r8
 8006dd2:	189b      	adds	r3, r3, r2
 8006dd4:	66bb      	str	r3, [r7, #104]	; 0x68
 8006dd6:	464b      	mov	r3, r9
 8006dd8:	460a      	mov	r2, r1
 8006dda:	eb42 0303 	adc.w	r3, r2, r3
 8006dde:	66fb      	str	r3, [r7, #108]	; 0x6c
 8006de0:	f8d7 30f4 	ldr.w	r3, [r7, #244]	; 0xf4
 8006de4:	685b      	ldr	r3, [r3, #4]
 8006de6:	2200      	movs	r2, #0
 8006de8:	663b      	str	r3, [r7, #96]	; 0x60
 8006dea:	667a      	str	r2, [r7, #100]	; 0x64
 8006dec:	f04f 0200 	mov.w	r2, #0
 8006df0:	f04f 0300 	mov.w	r3, #0
 8006df4:	e9d7 8918 	ldrd	r8, r9, [r7, #96]	; 0x60
 8006df8:	4649      	mov	r1, r9
 8006dfa:	008b      	lsls	r3, r1, #2
 8006dfc:	4641      	mov	r1, r8
 8006dfe:	ea43 7391 	orr.w	r3, r3, r1, lsr #30
 8006e02:	4641      	mov	r1, r8
 8006e04:	008a      	lsls	r2, r1, #2
 8006e06:	e9d7 011a 	ldrd	r0, r1, [r7, #104]	; 0x68
 8006e0a:	f7f9 f9f7 	bl	80001fc <__aeabi_uldivmod>
 8006e0e:	4602      	mov	r2, r0
 8006e10:	460b      	mov	r3, r1
 8006e12:	4b0d      	ldr	r3, [pc, #52]	; (8006e48 <UART_SetConfig+0x4e4>)
 8006e14:	fba3 1302 	umull	r1, r3, r3, r2
 8006e18:	095b      	lsrs	r3, r3, #5
 8006e1a:	2164      	movs	r1, #100	; 0x64
 8006e1c:	fb01 f303 	mul.w	r3, r1, r3
 8006e20:	1ad3      	subs	r3, r2, r3
 8006e22:	011b      	lsls	r3, r3, #4
 8006e24:	3332      	adds	r3, #50	; 0x32
 8006e26:	4a08      	ldr	r2, [pc, #32]	; (8006e48 <UART_SetConfig+0x4e4>)
 8006e28:	fba2 2303 	umull	r2, r3, r2, r3
 8006e2c:	095b      	lsrs	r3, r3, #5
 8006e2e:	f003 020f 	and.w	r2, r3, #15
 8006e32:	f8d7 30f4 	ldr.w	r3, [r7, #244]	; 0xf4
 8006e36:	681b      	ldr	r3, [r3, #0]
 8006e38:	4422      	add	r2, r4
 8006e3a:	609a      	str	r2, [r3, #8]
}
 8006e3c:	bf00      	nop
 8006e3e:	f507 7780 	add.w	r7, r7, #256	; 0x100
 8006e42:	46bd      	mov	sp, r7
 8006e44:	e8bd 8fb0 	ldmia.w	sp!, {r4, r5, r7, r8, r9, sl, fp, pc}
 8006e48:	51eb851f 	.word	0x51eb851f

08006e4c <memset>:
 8006e4c:	4402      	add	r2, r0
 8006e4e:	4603      	mov	r3, r0
 8006e50:	4293      	cmp	r3, r2
 8006e52:	d100      	bne.n	8006e56 <memset+0xa>
 8006e54:	4770      	bx	lr
 8006e56:	f803 1b01 	strb.w	r1, [r3], #1
 8006e5a:	e7f9      	b.n	8006e50 <memset+0x4>

08006e5c <__libc_init_array>:
 8006e5c:	b570      	push	{r4, r5, r6, lr}
 8006e5e:	4d0d      	ldr	r5, [pc, #52]	; (8006e94 <__libc_init_array+0x38>)
 8006e60:	4c0d      	ldr	r4, [pc, #52]	; (8006e98 <__libc_init_array+0x3c>)
 8006e62:	1b64      	subs	r4, r4, r5
 8006e64:	10a4      	asrs	r4, r4, #2
 8006e66:	2600      	movs	r6, #0
 8006e68:	42a6      	cmp	r6, r4
 8006e6a:	d109      	bne.n	8006e80 <__libc_init_array+0x24>
 8006e6c:	4d0b      	ldr	r5, [pc, #44]	; (8006e9c <__libc_init_array+0x40>)
 8006e6e:	4c0c      	ldr	r4, [pc, #48]	; (8006ea0 <__libc_init_array+0x44>)
 8006e70:	f000 f818 	bl	8006ea4 <_init>
 8006e74:	1b64      	subs	r4, r4, r5
 8006e76:	10a4      	asrs	r4, r4, #2
 8006e78:	2600      	movs	r6, #0
 8006e7a:	42a6      	cmp	r6, r4
 8006e7c:	d105      	bne.n	8006e8a <__libc_init_array+0x2e>
 8006e7e:	bd70      	pop	{r4, r5, r6, pc}
 8006e80:	f855 3b04 	ldr.w	r3, [r5], #4
 8006e84:	4798      	blx	r3
 8006e86:	3601      	adds	r6, #1
 8006e88:	e7ee      	b.n	8006e68 <__libc_init_array+0xc>
 8006e8a:	f855 3b04 	ldr.w	r3, [r5], #4
 8006e8e:	4798      	blx	r3
 8006e90:	3601      	adds	r6, #1
 8006e92:	e7f2      	b.n	8006e7a <__libc_init_array+0x1e>
 8006e94:	08006f7c 	.word	0x08006f7c
 8006e98:	08006f7c 	.word	0x08006f7c
 8006e9c:	08006f7c 	.word	0x08006f7c
 8006ea0:	08006f80 	.word	0x08006f80

08006ea4 <_init>:
 8006ea4:	b5f8      	push	{r3, r4, r5, r6, r7, lr}
 8006ea6:	bf00      	nop
 8006ea8:	bcf8      	pop	{r3, r4, r5, r6, r7}
 8006eaa:	bc08      	pop	{r3}
 8006eac:	469e      	mov	lr, r3
 8006eae:	4770      	bx	lr

08006eb0 <_fini>:
 8006eb0:	b5f8      	push	{r3, r4, r5, r6, r7, lr}
 8006eb2:	bf00      	nop
 8006eb4:	bcf8      	pop	{r3, r4, r5, r6, r7}
 8006eb6:	bc08      	pop	{r3}
 8006eb8:	469e      	mov	lr, r3
 8006eba:	4770      	bx	lr
