
AuroraV_Payload_F439.elf:     file format elf32-littlearm

Sections:
Idx Name          Size      VMA       LMA       File off  Algn
  0 .isr_vector   000001ac  08000000  08000000  00010000  2**0
                  CONTENTS, ALLOC, LOAD, READONLY, DATA
  1 .text         000092c4  080001ac  080001ac  000101ac  2**2
                  CONTENTS, ALLOC, LOAD, READONLY, CODE
  2 .rodata       000000b8  08009470  08009470  00019470  2**2
                  CONTENTS, ALLOC, LOAD, READONLY, DATA
  3 .ARM.extab    00000000  08009528  08009528  00020028  2**0
                  CONTENTS
  4 .ARM          00000008  08009528  08009528  00019528  2**2
                  CONTENTS, ALLOC, LOAD, READONLY, DATA
  5 .preinit_array 00000000  08009530  08009530  00020028  2**0
                  CONTENTS, ALLOC, LOAD, DATA
  6 .init_array   00000004  08009530  08009530  00019530  2**2
                  CONTENTS, ALLOC, LOAD, DATA
  7 .fini_array   00000004  08009534  08009534  00019534  2**2
                  CONTENTS, ALLOC, LOAD, DATA
  8 .data         00000028  20000000  08009538  00020000  2**2
                  CONTENTS, ALLOC, LOAD, DATA
  9 .ccmram       00000000  10000000  10000000  00020028  2**0
                  CONTENTS
 10 .bss          00000610  20000028  20000028  00020028  2**2
                  ALLOC
 11 ._user_heap_stack 00000600  20000638  20000638  00020028  2**0
                  ALLOC
 12 .ARM.attributes 00000030  00000000  00000000  00020028  2**0
                  CONTENTS, READONLY
 13 .comment      00000043  00000000  00000000  00020058  2**0
                  CONTENTS, READONLY
 14 .debug_info   0001d6d4  00000000  00000000  0002009b  2**0
                  CONTENTS, READONLY, DEBUGGING, OCTETS
 15 .debug_abbrev 000040de  00000000  00000000  0003d76f  2**0
                  CONTENTS, READONLY, DEBUGGING, OCTETS
 16 .debug_aranges 000017a0  00000000  00000000  00041850  2**3
                  CONTENTS, READONLY, DEBUGGING, OCTETS
 17 .debug_rnglists 00001256  00000000  00000000  00042ff0  2**0
                  CONTENTS, READONLY, DEBUGGING, OCTETS
 18 .debug_macro  0002800c  00000000  00000000  00044246  2**0
                  CONTENTS, READONLY, DEBUGGING, OCTETS
 19 .debug_line   0001e328  00000000  00000000  0006c252  2**0
                  CONTENTS, READONLY, DEBUGGING, OCTETS
 20 .debug_str    000ea15c  00000000  00000000  0008a57a  2**0
                  CONTENTS, READONLY, DEBUGGING, OCTETS
 21 .debug_frame  0000625c  00000000  00000000  001746d8  2**2
                  CONTENTS, READONLY, DEBUGGING, OCTETS
 22 .debug_line_str 00000060  00000000  00000000  0017a934  2**0
                  CONTENTS, READONLY, DEBUGGING, OCTETS

Disassembly of section .text:

080001ac <__do_global_dtors_aux>:
 80001ac:	b510      	push	{r4, lr}
 80001ae:	4c05      	ldr	r4, [pc, #20]	; (80001c4 <__do_global_dtors_aux+0x18>)
 80001b0:	7823      	ldrb	r3, [r4, #0]
 80001b2:	b933      	cbnz	r3, 80001c2 <__do_global_dtors_aux+0x16>
 80001b4:	4b04      	ldr	r3, [pc, #16]	; (80001c8 <__do_global_dtors_aux+0x1c>)
 80001b6:	b113      	cbz	r3, 80001be <__do_global_dtors_aux+0x12>
 80001b8:	4804      	ldr	r0, [pc, #16]	; (80001cc <__do_global_dtors_aux+0x20>)
 80001ba:	f3af 8000 	nop.w
 80001be:	2301      	movs	r3, #1
 80001c0:	7023      	strb	r3, [r4, #0]
 80001c2:	bd10      	pop	{r4, pc}
 80001c4:	20000028 	.word	0x20000028
 80001c8:	00000000 	.word	0x00000000
 80001cc:	08009458 	.word	0x08009458

080001d0 <frame_dummy>:
 80001d0:	b508      	push	{r3, lr}
 80001d2:	4b03      	ldr	r3, [pc, #12]	; (80001e0 <frame_dummy+0x10>)
 80001d4:	b11b      	cbz	r3, 80001de <frame_dummy+0xe>
 80001d6:	4903      	ldr	r1, [pc, #12]	; (80001e4 <frame_dummy+0x14>)
 80001d8:	4803      	ldr	r0, [pc, #12]	; (80001e8 <frame_dummy+0x18>)
 80001da:	f3af 8000 	nop.w
 80001de:	bd08      	pop	{r3, pc}
 80001e0:	00000000 	.word	0x00000000
 80001e4:	2000002c 	.word	0x2000002c
 80001e8:	08009458 	.word	0x08009458

080001ec <strlen>:
 80001ec:	4603      	mov	r3, r0
 80001ee:	f813 2b01 	ldrb.w	r2, [r3], #1
 80001f2:	2a00      	cmp	r2, #0
 80001f4:	d1fb      	bne.n	80001ee <strlen+0x2>
 80001f6:	1a18      	subs	r0, r3, r0
 80001f8:	3801      	subs	r0, #1
 80001fa:	4770      	bx	lr

080001fc <__aeabi_uldivmod>:
 80001fc:	b953      	cbnz	r3, 8000214 <__aeabi_uldivmod+0x18>
 80001fe:	b94a      	cbnz	r2, 8000214 <__aeabi_uldivmod+0x18>
 8000200:	2900      	cmp	r1, #0
 8000202:	bf08      	it	eq
 8000204:	2800      	cmpeq	r0, #0
 8000206:	bf1c      	itt	ne
 8000208:	f04f 31ff 	movne.w	r1, #4294967295	; 0xffffffff
 800020c:	f04f 30ff 	movne.w	r0, #4294967295	; 0xffffffff
 8000210:	f000 b970 	b.w	80004f4 <__aeabi_idiv0>
 8000214:	f1ad 0c08 	sub.w	ip, sp, #8
 8000218:	e96d ce04 	strd	ip, lr, [sp, #-16]!
 800021c:	f000 f806 	bl	800022c <__udivmoddi4>
 8000220:	f8dd e004 	ldr.w	lr, [sp, #4]
 8000224:	e9dd 2302 	ldrd	r2, r3, [sp, #8]
 8000228:	b004      	add	sp, #16
 800022a:	4770      	bx	lr

0800022c <__udivmoddi4>:
 800022c:	e92d 47f0 	stmdb	sp!, {r4, r5, r6, r7, r8, r9, sl, lr}
 8000230:	9e08      	ldr	r6, [sp, #32]
 8000232:	460d      	mov	r5, r1
 8000234:	4604      	mov	r4, r0
 8000236:	460f      	mov	r7, r1
 8000238:	2b00      	cmp	r3, #0
 800023a:	d14a      	bne.n	80002d2 <__udivmoddi4+0xa6>
 800023c:	428a      	cmp	r2, r1
 800023e:	4694      	mov	ip, r2
 8000240:	d965      	bls.n	800030e <__udivmoddi4+0xe2>
 8000242:	fab2 f382 	clz	r3, r2
 8000246:	b143      	cbz	r3, 800025a <__udivmoddi4+0x2e>
 8000248:	fa02 fc03 	lsl.w	ip, r2, r3
 800024c:	f1c3 0220 	rsb	r2, r3, #32
 8000250:	409f      	lsls	r7, r3
 8000252:	fa20 f202 	lsr.w	r2, r0, r2
 8000256:	4317      	orrs	r7, r2
 8000258:	409c      	lsls	r4, r3
 800025a:	ea4f 4e1c 	mov.w	lr, ip, lsr #16
 800025e:	fa1f f58c 	uxth.w	r5, ip
 8000262:	fbb7 f1fe 	udiv	r1, r7, lr
 8000266:	0c22      	lsrs	r2, r4, #16
 8000268:	fb0e 7711 	mls	r7, lr, r1, r7
 800026c:	ea42 4207 	orr.w	r2, r2, r7, lsl #16
 8000270:	fb01 f005 	mul.w	r0, r1, r5
 8000274:	4290      	cmp	r0, r2
 8000276:	d90a      	bls.n	800028e <__udivmoddi4+0x62>
 8000278:	eb1c 0202 	adds.w	r2, ip, r2
 800027c:	f101 37ff 	add.w	r7, r1, #4294967295	; 0xffffffff
 8000280:	f080 811c 	bcs.w	80004bc <__udivmoddi4+0x290>
 8000284:	4290      	cmp	r0, r2
 8000286:	f240 8119 	bls.w	80004bc <__udivmoddi4+0x290>
 800028a:	3902      	subs	r1, #2
 800028c:	4462      	add	r2, ip
 800028e:	1a12      	subs	r2, r2, r0
 8000290:	b2a4      	uxth	r4, r4
 8000292:	fbb2 f0fe 	udiv	r0, r2, lr
 8000296:	fb0e 2210 	mls	r2, lr, r0, r2
 800029a:	ea44 4402 	orr.w	r4, r4, r2, lsl #16
 800029e:	fb00 f505 	mul.w	r5, r0, r5
 80002a2:	42a5      	cmp	r5, r4
 80002a4:	d90a      	bls.n	80002bc <__udivmoddi4+0x90>
 80002a6:	eb1c 0404 	adds.w	r4, ip, r4
 80002aa:	f100 32ff 	add.w	r2, r0, #4294967295	; 0xffffffff
 80002ae:	f080 8107 	bcs.w	80004c0 <__udivmoddi4+0x294>
 80002b2:	42a5      	cmp	r5, r4
 80002b4:	f240 8104 	bls.w	80004c0 <__udivmoddi4+0x294>
 80002b8:	4464      	add	r4, ip
 80002ba:	3802      	subs	r0, #2
 80002bc:	ea40 4001 	orr.w	r0, r0, r1, lsl #16
 80002c0:	1b64      	subs	r4, r4, r5
 80002c2:	2100      	movs	r1, #0
 80002c4:	b11e      	cbz	r6, 80002ce <__udivmoddi4+0xa2>
 80002c6:	40dc      	lsrs	r4, r3
 80002c8:	2300      	movs	r3, #0
 80002ca:	e9c6 4300 	strd	r4, r3, [r6]
 80002ce:	e8bd 87f0 	ldmia.w	sp!, {r4, r5, r6, r7, r8, r9, sl, pc}
 80002d2:	428b      	cmp	r3, r1
 80002d4:	d908      	bls.n	80002e8 <__udivmoddi4+0xbc>
 80002d6:	2e00      	cmp	r6, #0
 80002d8:	f000 80ed 	beq.w	80004b6 <__udivmoddi4+0x28a>
 80002dc:	2100      	movs	r1, #0
 80002de:	e9c6 0500 	strd	r0, r5, [r6]
 80002e2:	4608      	mov	r0, r1
 80002e4:	e8bd 87f0 	ldmia.w	sp!, {r4, r5, r6, r7, r8, r9, sl, pc}
 80002e8:	fab3 f183 	clz	r1, r3
 80002ec:	2900      	cmp	r1, #0
 80002ee:	d149      	bne.n	8000384 <__udivmoddi4+0x158>
 80002f0:	42ab      	cmp	r3, r5
 80002f2:	d302      	bcc.n	80002fa <__udivmoddi4+0xce>
 80002f4:	4282      	cmp	r2, r0
 80002f6:	f200 80f8 	bhi.w	80004ea <__udivmoddi4+0x2be>
 80002fa:	1a84      	subs	r4, r0, r2
 80002fc:	eb65 0203 	sbc.w	r2, r5, r3
 8000300:	2001      	movs	r0, #1
 8000302:	4617      	mov	r7, r2
 8000304:	2e00      	cmp	r6, #0
 8000306:	d0e2      	beq.n	80002ce <__udivmoddi4+0xa2>
 8000308:	e9c6 4700 	strd	r4, r7, [r6]
 800030c:	e7df      	b.n	80002ce <__udivmoddi4+0xa2>
 800030e:	b902      	cbnz	r2, 8000312 <__udivmoddi4+0xe6>
 8000310:	deff      	udf	#255	; 0xff
 8000312:	fab2 f382 	clz	r3, r2
 8000316:	2b00      	cmp	r3, #0
 8000318:	f040 8090 	bne.w	800043c <__udivmoddi4+0x210>
 800031c:	1a8a      	subs	r2, r1, r2
 800031e:	ea4f 471c 	mov.w	r7, ip, lsr #16
 8000322:	fa1f fe8c 	uxth.w	lr, ip
 8000326:	2101      	movs	r1, #1
 8000328:	fbb2 f5f7 	udiv	r5, r2, r7
 800032c:	fb07 2015 	mls	r0, r7, r5, r2
 8000330:	0c22      	lsrs	r2, r4, #16
 8000332:	ea42 4200 	orr.w	r2, r2, r0, lsl #16
 8000336:	fb0e f005 	mul.w	r0, lr, r5
 800033a:	4290      	cmp	r0, r2
 800033c:	d908      	bls.n	8000350 <__udivmoddi4+0x124>
 800033e:	eb1c 0202 	adds.w	r2, ip, r2
 8000342:	f105 38ff 	add.w	r8, r5, #4294967295	; 0xffffffff
 8000346:	d202      	bcs.n	800034e <__udivmoddi4+0x122>
 8000348:	4290      	cmp	r0, r2
 800034a:	f200 80cb 	bhi.w	80004e4 <__udivmoddi4+0x2b8>
 800034e:	4645      	mov	r5, r8
 8000350:	1a12      	subs	r2, r2, r0
 8000352:	b2a4      	uxth	r4, r4
 8000354:	fbb2 f0f7 	udiv	r0, r2, r7
 8000358:	fb07 2210 	mls	r2, r7, r0, r2
 800035c:	ea44 4402 	orr.w	r4, r4, r2, lsl #16
 8000360:	fb0e fe00 	mul.w	lr, lr, r0
 8000364:	45a6      	cmp	lr, r4
 8000366:	d908      	bls.n	800037a <__udivmoddi4+0x14e>
 8000368:	eb1c 0404 	adds.w	r4, ip, r4
 800036c:	f100 32ff 	add.w	r2, r0, #4294967295	; 0xffffffff
 8000370:	d202      	bcs.n	8000378 <__udivmoddi4+0x14c>
 8000372:	45a6      	cmp	lr, r4
 8000374:	f200 80bb 	bhi.w	80004ee <__udivmoddi4+0x2c2>
 8000378:	4610      	mov	r0, r2
 800037a:	eba4 040e 	sub.w	r4, r4, lr
 800037e:	ea40 4005 	orr.w	r0, r0, r5, lsl #16
 8000382:	e79f      	b.n	80002c4 <__udivmoddi4+0x98>
 8000384:	f1c1 0720 	rsb	r7, r1, #32
 8000388:	408b      	lsls	r3, r1
 800038a:	fa22 fc07 	lsr.w	ip, r2, r7
 800038e:	ea4c 0c03 	orr.w	ip, ip, r3
 8000392:	fa05 f401 	lsl.w	r4, r5, r1
 8000396:	fa20 f307 	lsr.w	r3, r0, r7
 800039a:	40fd      	lsrs	r5, r7
 800039c:	ea4f 491c 	mov.w	r9, ip, lsr #16
 80003a0:	4323      	orrs	r3, r4
 80003a2:	fbb5 f8f9 	udiv	r8, r5, r9
 80003a6:	fa1f fe8c 	uxth.w	lr, ip
 80003aa:	fb09 5518 	mls	r5, r9, r8, r5
 80003ae:	0c1c      	lsrs	r4, r3, #16
 80003b0:	ea44 4405 	orr.w	r4, r4, r5, lsl #16
 80003b4:	fb08 f50e 	mul.w	r5, r8, lr
 80003b8:	42a5      	cmp	r5, r4
 80003ba:	fa02 f201 	lsl.w	r2, r2, r1
 80003be:	fa00 f001 	lsl.w	r0, r0, r1
 80003c2:	d90b      	bls.n	80003dc <__udivmoddi4+0x1b0>
 80003c4:	eb1c 0404 	adds.w	r4, ip, r4
 80003c8:	f108 3aff 	add.w	sl, r8, #4294967295	; 0xffffffff
 80003cc:	f080 8088 	bcs.w	80004e0 <__udivmoddi4+0x2b4>
 80003d0:	42a5      	cmp	r5, r4
 80003d2:	f240 8085 	bls.w	80004e0 <__udivmoddi4+0x2b4>
 80003d6:	f1a8 0802 	sub.w	r8, r8, #2
 80003da:	4464      	add	r4, ip
 80003dc:	1b64      	subs	r4, r4, r5
 80003de:	b29d      	uxth	r5, r3
 80003e0:	fbb4 f3f9 	udiv	r3, r4, r9
 80003e4:	fb09 4413 	mls	r4, r9, r3, r4
 80003e8:	ea45 4404 	orr.w	r4, r5, r4, lsl #16
 80003ec:	fb03 fe0e 	mul.w	lr, r3, lr
 80003f0:	45a6      	cmp	lr, r4
 80003f2:	d908      	bls.n	8000406 <__udivmoddi4+0x1da>
 80003f4:	eb1c 0404 	adds.w	r4, ip, r4
 80003f8:	f103 35ff 	add.w	r5, r3, #4294967295	; 0xffffffff
 80003fc:	d26c      	bcs.n	80004d8 <__udivmoddi4+0x2ac>
 80003fe:	45a6      	cmp	lr, r4
 8000400:	d96a      	bls.n	80004d8 <__udivmoddi4+0x2ac>
 8000402:	3b02      	subs	r3, #2
 8000404:	4464      	add	r4, ip
 8000406:	ea43 4308 	orr.w	r3, r3, r8, lsl #16
 800040a:	fba3 9502 	umull	r9, r5, r3, r2
 800040e:	eba4 040e 	sub.w	r4, r4, lr
 8000412:	42ac      	cmp	r4, r5
 8000414:	46c8      	mov	r8, r9
 8000416:	46ae      	mov	lr, r5
 8000418:	d356      	bcc.n	80004c8 <__udivmoddi4+0x29c>
 800041a:	d053      	beq.n	80004c4 <__udivmoddi4+0x298>
 800041c:	b156      	cbz	r6, 8000434 <__udivmoddi4+0x208>
 800041e:	ebb0 0208 	subs.w	r2, r0, r8
 8000422:	eb64 040e 	sbc.w	r4, r4, lr
 8000426:	fa04 f707 	lsl.w	r7, r4, r7
 800042a:	40ca      	lsrs	r2, r1
 800042c:	40cc      	lsrs	r4, r1
 800042e:	4317      	orrs	r7, r2
 8000430:	e9c6 7400 	strd	r7, r4, [r6]
 8000434:	4618      	mov	r0, r3
 8000436:	2100      	movs	r1, #0
 8000438:	e8bd 87f0 	ldmia.w	sp!, {r4, r5, r6, r7, r8, r9, sl, pc}
 800043c:	f1c3 0120 	rsb	r1, r3, #32
 8000440:	fa02 fc03 	lsl.w	ip, r2, r3
 8000444:	fa20 f201 	lsr.w	r2, r0, r1
 8000448:	fa25 f101 	lsr.w	r1, r5, r1
 800044c:	409d      	lsls	r5, r3
 800044e:	432a      	orrs	r2, r5
 8000450:	ea4f 471c 	mov.w	r7, ip, lsr #16
 8000454:	fa1f fe8c 	uxth.w	lr, ip
 8000458:	fbb1 f0f7 	udiv	r0, r1, r7
 800045c:	fb07 1510 	mls	r5, r7, r0, r1
 8000460:	0c11      	lsrs	r1, r2, #16
 8000462:	ea41 4105 	orr.w	r1, r1, r5, lsl #16
 8000466:	fb00 f50e 	mul.w	r5, r0, lr
 800046a:	428d      	cmp	r5, r1
 800046c:	fa04 f403 	lsl.w	r4, r4, r3
 8000470:	d908      	bls.n	8000484 <__udivmoddi4+0x258>
 8000472:	eb1c 0101 	adds.w	r1, ip, r1
 8000476:	f100 38ff 	add.w	r8, r0, #4294967295	; 0xffffffff
 800047a:	d22f      	bcs.n	80004dc <__udivmoddi4+0x2b0>
 800047c:	428d      	cmp	r5, r1
 800047e:	d92d      	bls.n	80004dc <__udivmoddi4+0x2b0>
 8000480:	3802      	subs	r0, #2
 8000482:	4461      	add	r1, ip
 8000484:	1b49      	subs	r1, r1, r5
 8000486:	b292      	uxth	r2, r2
 8000488:	fbb1 f5f7 	udiv	r5, r1, r7
 800048c:	fb07 1115 	mls	r1, r7, r5, r1
 8000490:	ea42 4201 	orr.w	r2, r2, r1, lsl #16
 8000494:	fb05 f10e 	mul.w	r1, r5, lr
 8000498:	4291      	cmp	r1, r2
 800049a:	d908      	bls.n	80004ae <__udivmoddi4+0x282>
 800049c:	eb1c 0202 	adds.w	r2, ip, r2
 80004a0:	f105 38ff 	add.w	r8, r5, #4294967295	; 0xffffffff
 80004a4:	d216      	bcs.n	80004d4 <__udivmoddi4+0x2a8>
 80004a6:	4291      	cmp	r1, r2
 80004a8:	d914      	bls.n	80004d4 <__udivmoddi4+0x2a8>
 80004aa:	3d02      	subs	r5, #2
 80004ac:	4462      	add	r2, ip
 80004ae:	1a52      	subs	r2, r2, r1
 80004b0:	ea45 4100 	orr.w	r1, r5, r0, lsl #16
 80004b4:	e738      	b.n	8000328 <__udivmoddi4+0xfc>
 80004b6:	4631      	mov	r1, r6
 80004b8:	4630      	mov	r0, r6
 80004ba:	e708      	b.n	80002ce <__udivmoddi4+0xa2>
 80004bc:	4639      	mov	r1, r7
 80004be:	e6e6      	b.n	800028e <__udivmoddi4+0x62>
 80004c0:	4610      	mov	r0, r2
 80004c2:	e6fb      	b.n	80002bc <__udivmoddi4+0x90>
 80004c4:	4548      	cmp	r0, r9
 80004c6:	d2a9      	bcs.n	800041c <__udivmoddi4+0x1f0>
 80004c8:	ebb9 0802 	subs.w	r8, r9, r2
 80004cc:	eb65 0e0c 	sbc.w	lr, r5, ip
 80004d0:	3b01      	subs	r3, #1
 80004d2:	e7a3      	b.n	800041c <__udivmoddi4+0x1f0>
 80004d4:	4645      	mov	r5, r8
 80004d6:	e7ea      	b.n	80004ae <__udivmoddi4+0x282>
 80004d8:	462b      	mov	r3, r5
 80004da:	e794      	b.n	8000406 <__udivmoddi4+0x1da>
 80004dc:	4640      	mov	r0, r8
 80004de:	e7d1      	b.n	8000484 <__udivmoddi4+0x258>
 80004e0:	46d0      	mov	r8, sl
 80004e2:	e77b      	b.n	80003dc <__udivmoddi4+0x1b0>
 80004e4:	3d02      	subs	r5, #2
 80004e6:	4462      	add	r2, ip
 80004e8:	e732      	b.n	8000350 <__udivmoddi4+0x124>
 80004ea:	4608      	mov	r0, r1
 80004ec:	e70a      	b.n	8000304 <__udivmoddi4+0xd8>
 80004ee:	4464      	add	r4, ip
 80004f0:	3802      	subs	r0, #2
 80004f2:	e742      	b.n	800037a <__udivmoddi4+0x14e>

080004f4 <__aeabi_idiv0>:
 80004f4:	4770      	bx	lr
 80004f6:	bf00      	nop

080004f8 <init_accel>:
uint8_t OUT_Y_L 				= 0x34;
uint8_t OUT_Y_H 				= 0x35;
uint8_t OUT_Z_L 				= 0x36;
uint8_t OUT_Z_H 				= 0x37;

HAL_StatusTypeDef init_accel(I2C_HandleTypeDef* hi2c) {
 80004f8:	b580      	push	{r7, lr}
 80004fa:	b084      	sub	sp, #16
 80004fc:	af00      	add	r7, sp, #0
 80004fe:	6078      	str	r0, [r7, #4]
	HAL_StatusTypeDef ret;

	// Set standby mode
	ret = i2c_write_reg(hi2c, ADXL314_ADDR, &POWER_CTL_REG, 0x00);
 8000500:	4b14      	ldr	r3, [pc, #80]	; (8000554 <init_accel+0x5c>)
 8000502:	7819      	ldrb	r1, [r3, #0]
 8000504:	2300      	movs	r3, #0
 8000506:	4a14      	ldr	r2, [pc, #80]	; (8000558 <init_accel+0x60>)
 8000508:	6878      	ldr	r0, [r7, #4]
 800050a:	f000 fbe8 	bl	8000cde <i2c_write_reg>
 800050e:	4603      	mov	r3, r0
 8000510:	73fb      	strb	r3, [r7, #15]

	// Set to 200G right justified
	ret = i2c_write_reg(hi2c, ADXL314_ADDR, &DATA_FORMAT_REG, RIGHT_JUST);
 8000512:	4b10      	ldr	r3, [pc, #64]	; (8000554 <init_accel+0x5c>)
 8000514:	7819      	ldrb	r1, [r3, #0]
 8000516:	230b      	movs	r3, #11
 8000518:	4a10      	ldr	r2, [pc, #64]	; (800055c <init_accel+0x64>)
 800051a:	6878      	ldr	r0, [r7, #4]
 800051c:	f000 fbdf 	bl	8000cde <i2c_write_reg>
 8000520:	4603      	mov	r3, r0
 8000522:	73fb      	strb	r3, [r7, #15]

	// Set to 1kHz ODR
	ret = i2c_write_reg(hi2c, ADXL314_ADDR, &BW_RATE_REG, MASK_1kHz);
 8000524:	4b0b      	ldr	r3, [pc, #44]	; (8000554 <init_accel+0x5c>)
 8000526:	7819      	ldrb	r1, [r3, #0]
 8000528:	230a      	movs	r3, #10
 800052a:	4a0d      	ldr	r2, [pc, #52]	; (8000560 <init_accel+0x68>)
 800052c:	6878      	ldr	r0, [r7, #4]
 800052e:	f000 fbd6 	bl	8000cde <i2c_write_reg>
 8000532:	4603      	mov	r3, r0
 8000534:	73fb      	strb	r3, [r7, #15]

	// Write the offset registers
//	ret = writeOffset(hi2c);

	// Start measuring
	ret = i2c_write_reg(hi2c, ADXL314_ADDR, &POWER_CTL_REG, START_MEAS);
 8000536:	4b07      	ldr	r3, [pc, #28]	; (8000554 <init_accel+0x5c>)
 8000538:	7819      	ldrb	r1, [r3, #0]
 800053a:	2308      	movs	r3, #8
 800053c:	4a06      	ldr	r2, [pc, #24]	; (8000558 <init_accel+0x60>)
 800053e:	6878      	ldr	r0, [r7, #4]
 8000540:	f000 fbcd 	bl	8000cde <i2c_write_reg>
 8000544:	4603      	mov	r3, r0
 8000546:	73fb      	strb	r3, [r7, #15]

	return ret;
 8000548:	7bfb      	ldrb	r3, [r7, #15]
}
 800054a:	4618      	mov	r0, r3
 800054c:	3710      	adds	r7, #16
 800054e:	46bd      	mov	sp, r7
 8000550:	bd80      	pop	{r7, pc}
 8000552:	bf00      	nop
 8000554:	20000000 	.word	0x20000000
 8000558:	20000002 	.word	0x20000002
 800055c:	20000003 	.word	0x20000003
 8000560:	20000001 	.word	0x20000001

08000564 <readAccelerometer>:
void readAccelerometer(uint8_t values[6], I2C_HandleTypeDef* hi2c) {
 8000564:	b580      	push	{r7, lr}
 8000566:	b086      	sub	sp, #24
 8000568:	af02      	add	r7, sp, #8
 800056a:	6078      	str	r0, [r7, #4]
 800056c:	6039      	str	r1, [r7, #0]
	for (uint8_t i = 0; i < 6; i++) {
 800056e:	2300      	movs	r3, #0
 8000570:	73fb      	strb	r3, [r7, #15]
 8000572:	e007      	b.n	8000584 <readAccelerometer+0x20>
		values[i] = 0x00;
 8000574:	7bfb      	ldrb	r3, [r7, #15]
 8000576:	687a      	ldr	r2, [r7, #4]
 8000578:	4413      	add	r3, r2
 800057a:	2200      	movs	r2, #0
 800057c:	701a      	strb	r2, [r3, #0]
	for (uint8_t i = 0; i < 6; i++) {
 800057e:	7bfb      	ldrb	r3, [r7, #15]
 8000580:	3301      	adds	r3, #1
 8000582:	73fb      	strb	r3, [r7, #15]
 8000584:	7bfb      	ldrb	r3, [r7, #15]
 8000586:	2b05      	cmp	r3, #5
 8000588:	d9f4      	bls.n	8000574 <readAccelerometer+0x10>
	}

	i2c_burst_read(hi2c, ADXL314_ADDR, OUT_X_L, 6, values);
 800058a:	4b07      	ldr	r3, [pc, #28]	; (80005a8 <readAccelerometer+0x44>)
 800058c:	7819      	ldrb	r1, [r3, #0]
 800058e:	4b07      	ldr	r3, [pc, #28]	; (80005ac <readAccelerometer+0x48>)
 8000590:	781a      	ldrb	r2, [r3, #0]
 8000592:	687b      	ldr	r3, [r7, #4]
 8000594:	9300      	str	r3, [sp, #0]
 8000596:	2306      	movs	r3, #6
 8000598:	6838      	ldr	r0, [r7, #0]
 800059a:	f000 fb6b 	bl	8000c74 <i2c_burst_read>
}
 800059e:	bf00      	nop
 80005a0:	3710      	adds	r7, #16
 80005a2:	46bd      	mov	sp, r7
 80005a4:	bd80      	pop	{r7, pc}
 80005a6:	bf00      	nop
 80005a8:	20000000 	.word	0x20000000
 80005ac:	20000004 	.word	0x20000004

080005b0 <readAccel_whoami>:

uint8_t readAccel_whoami(I2C_HandleTypeDef* hi2c) {
 80005b0:	b580      	push	{r7, lr}
 80005b2:	b084      	sub	sp, #16
 80005b4:	af00      	add	r7, sp, #0
 80005b6:	6078      	str	r0, [r7, #4]
	uint8_t data = 0x00;
 80005b8:	2300      	movs	r3, #0
 80005ba:	73fb      	strb	r3, [r7, #15]
	i2c_read_reg(hi2c, &data, ADXL314_ADDR, &WHOAMI);
 80005bc:	4b06      	ldr	r3, [pc, #24]	; (80005d8 <readAccel_whoami+0x28>)
 80005be:	781a      	ldrb	r2, [r3, #0]
 80005c0:	f107 010f 	add.w	r1, r7, #15
 80005c4:	4b05      	ldr	r3, [pc, #20]	; (80005dc <readAccel_whoami+0x2c>)
 80005c6:	6878      	ldr	r0, [r7, #4]
 80005c8:	f000 fb2b 	bl	8000c22 <i2c_read_reg>

	return data;
 80005cc:	7bfb      	ldrb	r3, [r7, #15]
}
 80005ce:	4618      	mov	r0, r3
 80005d0:	3710      	adds	r7, #16
 80005d2:	46bd      	mov	sp, r7
 80005d4:	bd80      	pop	{r7, pc}
 80005d6:	bf00      	nop
 80005d8:	20000000 	.word	0x20000000
 80005dc:	20000044 	.word	0x20000044

080005e0 <init_bme280>:
uint8_t OUT_HUM_H 			= 0xFD;
uint8_t CALIB_ST_1			= 0x88;
uint8_t CALIB_ST_2			= 0xE1;


HAL_StatusTypeDef init_bme280(I2C_HandleTypeDef* hi2c, uint8_t bme) {
 80005e0:	b580      	push	{r7, lr}
 80005e2:	b084      	sub	sp, #16
 80005e4:	af00      	add	r7, sp, #0
 80005e6:	6078      	str	r0, [r7, #4]
 80005e8:	460b      	mov	r3, r1
 80005ea:	70fb      	strb	r3, [r7, #3]
	uint8_t bme_addr = getBME280Config(bme).bme_addr;
 80005ec:	78fb      	ldrb	r3, [r7, #3]
 80005ee:	4618      	mov	r0, r3
 80005f0:	f000 f8e0 	bl	80007b4 <getBME280Config>
 80005f4:	4603      	mov	r3, r0
 80005f6:	73fb      	strb	r3, [r7, #15]
	HAL_StatusTypeDef ret;
	uint8_t control_reg = 0x00;
 80005f8:	2300      	movs	r3, #0
 80005fa:	737b      	strb	r3, [r7, #13]

	// Reset the sensor
	ret =  i2c_write_reg(hi2c, bme_addr, &RST_REG, RST);
 80005fc:	7bf9      	ldrb	r1, [r7, #15]
 80005fe:	23b6      	movs	r3, #182	; 0xb6
 8000600:	4a19      	ldr	r2, [pc, #100]	; (8000668 <init_bme280+0x88>)
 8000602:	6878      	ldr	r0, [r7, #4]
 8000604:	f000 fb6b 	bl	8000cde <i2c_write_reg>
 8000608:	4603      	mov	r3, r0
 800060a:	73bb      	strb	r3, [r7, #14]

	// Set humidity control register
	i2c_read_reg(hi2c, &control_reg, bme_addr, &CTRL_HUM_REG);
 800060c:	7bfa      	ldrb	r2, [r7, #15]
 800060e:	f107 010d 	add.w	r1, r7, #13
 8000612:	4b16      	ldr	r3, [pc, #88]	; (800066c <init_bme280+0x8c>)
 8000614:	6878      	ldr	r0, [r7, #4]
 8000616:	f000 fb04 	bl	8000c22 <i2c_read_reg>
	control_reg = control_reg & 0xF8;
 800061a:	7b7b      	ldrb	r3, [r7, #13]
 800061c:	f023 0307 	bic.w	r3, r3, #7
 8000620:	b2db      	uxtb	r3, r3
 8000622:	737b      	strb	r3, [r7, #13]
	control_reg = control_reg | CTRL_HUM_MSK;
 8000624:	7b7b      	ldrb	r3, [r7, #13]
 8000626:	f043 0301 	orr.w	r3, r3, #1
 800062a:	b2db      	uxtb	r3, r3
 800062c:	737b      	strb	r3, [r7, #13]
	ret = i2c_write_reg(hi2c, bme_addr, &CTRL_HUM_REG, control_reg);
 800062e:	7b7b      	ldrb	r3, [r7, #13]
 8000630:	7bf9      	ldrb	r1, [r7, #15]
 8000632:	4a0e      	ldr	r2, [pc, #56]	; (800066c <init_bme280+0x8c>)
 8000634:	6878      	ldr	r0, [r7, #4]
 8000636:	f000 fb52 	bl	8000cde <i2c_write_reg>
 800063a:	4603      	mov	r3, r0
 800063c:	73bb      	strb	r3, [r7, #14]

	// Set measure control register
	ret = i2c_write_reg(hi2c, bme_addr, &CTRL_MEAS_REG, CTRL_MEAS_MSK);
 800063e:	7bf9      	ldrb	r1, [r7, #15]
 8000640:	2327      	movs	r3, #39	; 0x27
 8000642:	4a0b      	ldr	r2, [pc, #44]	; (8000670 <init_bme280+0x90>)
 8000644:	6878      	ldr	r0, [r7, #4]
 8000646:	f000 fb4a 	bl	8000cde <i2c_write_reg>
 800064a:	4603      	mov	r3, r0
 800064c:	73bb      	strb	r3, [r7, #14]

	// Set the config register
	ret = i2c_write_reg(hi2c, bme_addr, &CONF_REG, CONF_MSK);
 800064e:	7bf9      	ldrb	r1, [r7, #15]
 8000650:	2300      	movs	r3, #0
 8000652:	4a08      	ldr	r2, [pc, #32]	; (8000674 <init_bme280+0x94>)
 8000654:	6878      	ldr	r0, [r7, #4]
 8000656:	f000 fb42 	bl	8000cde <i2c_write_reg>
 800065a:	4603      	mov	r3, r0
 800065c:	73bb      	strb	r3, [r7, #14]

	return ret;
 800065e:	7bbb      	ldrb	r3, [r7, #14]
}
 8000660:	4618      	mov	r0, r3
 8000662:	3710      	adds	r7, #16
 8000664:	46bd      	mov	sp, r7
 8000666:	bd80      	pop	{r7, pc}
 8000668:	20000006 	.word	0x20000006
 800066c:	20000007 	.word	0x20000007
 8000670:	20000008 	.word	0x20000008
 8000674:	20000009 	.word	0x20000009

08000678 <readTempHumPres>:

void readTempHumPres(uint8_t values[6], I2C_HandleTypeDef* hi2c, uint8_t bme) {
 8000678:	b580      	push	{r7, lr}
 800067a:	b08a      	sub	sp, #40	; 0x28
 800067c:	af02      	add	r7, sp, #8
 800067e:	60f8      	str	r0, [r7, #12]
 8000680:	60b9      	str	r1, [r7, #8]
 8000682:	4613      	mov	r3, r2
 8000684:	71fb      	strb	r3, [r7, #7]
	uint8_t readings[8] = {0, 0, 0, 0, 0, 0, 0, 0};
 8000686:	4a27      	ldr	r2, [pc, #156]	; (8000724 <readTempHumPres+0xac>)
 8000688:	f107 0314 	add.w	r3, r7, #20
 800068c:	e892 0003 	ldmia.w	r2, {r0, r1}
 8000690:	e883 0003 	stmia.w	r3, {r0, r1}
	uint8_t bme_addr = getBME280Config(bme).bme_addr;
 8000694:	79fb      	ldrb	r3, [r7, #7]
 8000696:	4618      	mov	r0, r3
 8000698:	f000 f88c 	bl	80007b4 <getBME280Config>
 800069c:	4603      	mov	r3, r0
 800069e:	777b      	strb	r3, [r7, #29]
	i2c_burst_read(hi2c, bme_addr, OUT_PRESS_H, 8, readings);
 80006a0:	4b21      	ldr	r3, [pc, #132]	; (8000728 <readTempHumPres+0xb0>)
 80006a2:	781a      	ldrb	r2, [r3, #0]
 80006a4:	7f79      	ldrb	r1, [r7, #29]
 80006a6:	f107 0314 	add.w	r3, r7, #20
 80006aa:	9300      	str	r3, [sp, #0]
 80006ac:	2308      	movs	r3, #8
 80006ae:	68b8      	ldr	r0, [r7, #8]
 80006b0:	f000 fae0 	bl	8000c74 <i2c_burst_read>

	// Clear the 0 values on the xlsb registers
	uint8_t j = 0;
 80006b4:	2300      	movs	r3, #0
 80006b6:	77fb      	strb	r3, [r7, #31]
    for(uint8_t i = 0; i < 8; i++) {
 80006b8:	2300      	movs	r3, #0
 80006ba:	77bb      	strb	r3, [r7, #30]
 80006bc:	e014      	b.n	80006e8 <readTempHumPres+0x70>
        if(i != 2 && i != 5) {  // if the index is not 2 or 5
 80006be:	7fbb      	ldrb	r3, [r7, #30]
 80006c0:	2b02      	cmp	r3, #2
 80006c2:	d00e      	beq.n	80006e2 <readTempHumPres+0x6a>
 80006c4:	7fbb      	ldrb	r3, [r7, #30]
 80006c6:	2b05      	cmp	r3, #5
 80006c8:	d00b      	beq.n	80006e2 <readTempHumPres+0x6a>
        	values[j] = readings[i];
 80006ca:	7fba      	ldrb	r2, [r7, #30]
 80006cc:	7ffb      	ldrb	r3, [r7, #31]
 80006ce:	68f9      	ldr	r1, [r7, #12]
 80006d0:	440b      	add	r3, r1
 80006d2:	3220      	adds	r2, #32
 80006d4:	443a      	add	r2, r7
 80006d6:	f812 2c0c 	ldrb.w	r2, [r2, #-12]
 80006da:	701a      	strb	r2, [r3, #0]
            j++;
 80006dc:	7ffb      	ldrb	r3, [r7, #31]
 80006de:	3301      	adds	r3, #1
 80006e0:	77fb      	strb	r3, [r7, #31]
    for(uint8_t i = 0; i < 8; i++) {
 80006e2:	7fbb      	ldrb	r3, [r7, #30]
 80006e4:	3301      	adds	r3, #1
 80006e6:	77bb      	strb	r3, [r7, #30]
 80006e8:	7fbb      	ldrb	r3, [r7, #30]
 80006ea:	2b07      	cmp	r3, #7
 80006ec:	d9e7      	bls.n	80006be <readTempHumPres+0x46>
        }
    }

    // Swap elements to make the array little endian
    swap(&values[0], &values[1]);
 80006ee:	68fb      	ldr	r3, [r7, #12]
 80006f0:	3301      	adds	r3, #1
 80006f2:	4619      	mov	r1, r3
 80006f4:	68f8      	ldr	r0, [r7, #12]
 80006f6:	f000 f874 	bl	80007e2 <swap>
    swap(&values[2], &values[3]);
 80006fa:	68fb      	ldr	r3, [r7, #12]
 80006fc:	1c9a      	adds	r2, r3, #2
 80006fe:	68fb      	ldr	r3, [r7, #12]
 8000700:	3303      	adds	r3, #3
 8000702:	4619      	mov	r1, r3
 8000704:	4610      	mov	r0, r2
 8000706:	f000 f86c 	bl	80007e2 <swap>
    swap(&values[4], &values[5]);
 800070a:	68fb      	ldr	r3, [r7, #12]
 800070c:	1d1a      	adds	r2, r3, #4
 800070e:	68fb      	ldr	r3, [r7, #12]
 8000710:	3305      	adds	r3, #5
 8000712:	4619      	mov	r1, r3
 8000714:	4610      	mov	r0, r2
 8000716:	f000 f864 	bl	80007e2 <swap>
}
 800071a:	bf00      	nop
 800071c:	3720      	adds	r7, #32
 800071e:	46bd      	mov	sp, r7
 8000720:	bd80      	pop	{r7, pc}
 8000722:	bf00      	nop
 8000724:	08009470 	.word	0x08009470
 8000728:	2000000a 	.word	0x2000000a

0800072c <readBME280_id_reg>:

uint8_t readBME280_id_reg(I2C_HandleTypeDef* hi2c, uint8_t bme) {
 800072c:	b580      	push	{r7, lr}
 800072e:	b084      	sub	sp, #16
 8000730:	af00      	add	r7, sp, #0
 8000732:	6078      	str	r0, [r7, #4]
 8000734:	460b      	mov	r3, r1
 8000736:	70fb      	strb	r3, [r7, #3]
	uint8_t bme_addr = getBME280Config(bme).bme_addr;
 8000738:	78fb      	ldrb	r3, [r7, #3]
 800073a:	4618      	mov	r0, r3
 800073c:	f000 f83a 	bl	80007b4 <getBME280Config>
 8000740:	4603      	mov	r3, r0
 8000742:	73fb      	strb	r3, [r7, #15]
	uint8_t data = 0x00;
 8000744:	2300      	movs	r3, #0
 8000746:	73bb      	strb	r3, [r7, #14]
	i2c_read_reg(hi2c, &data, bme_addr, &ID_REG);
 8000748:	7bfa      	ldrb	r2, [r7, #15]
 800074a:	f107 010e 	add.w	r1, r7, #14
 800074e:	4b04      	ldr	r3, [pc, #16]	; (8000760 <readBME280_id_reg+0x34>)
 8000750:	6878      	ldr	r0, [r7, #4]
 8000752:	f000 fa66 	bl	8000c22 <i2c_read_reg>

	return data;
 8000756:	7bbb      	ldrb	r3, [r7, #14]
}
 8000758:	4618      	mov	r0, r3
 800075a:	3710      	adds	r7, #16
 800075c:	46bd      	mov	sp, r7
 800075e:	bd80      	pop	{r7, pc}
 8000760:	20000005 	.word	0x20000005

08000764 <readBME280_calib>:

void readBME280_calib(I2C_HandleTypeDef* hi2c, uint8_t bme, uint8_t calibration1[CALIB_CNT_1], uint8_t calibration2[CALIB_CNT_2]) {
 8000764:	b580      	push	{r7, lr}
 8000766:	b088      	sub	sp, #32
 8000768:	af02      	add	r7, sp, #8
 800076a:	60f8      	str	r0, [r7, #12]
 800076c:	607a      	str	r2, [r7, #4]
 800076e:	603b      	str	r3, [r7, #0]
 8000770:	460b      	mov	r3, r1
 8000772:	72fb      	strb	r3, [r7, #11]
	uint8_t bme_addr = getBME280Config(bme).bme_addr;
 8000774:	7afb      	ldrb	r3, [r7, #11]
 8000776:	4618      	mov	r0, r3
 8000778:	f000 f81c 	bl	80007b4 <getBME280Config>
 800077c:	4603      	mov	r3, r0
 800077e:	75fb      	strb	r3, [r7, #23]
	i2c_burst_read(hi2c, bme_addr, CALIB_ST_1, CALIB_CNT_1, calibration1);
 8000780:	4b0a      	ldr	r3, [pc, #40]	; (80007ac <readBME280_calib+0x48>)
 8000782:	781a      	ldrb	r2, [r3, #0]
 8000784:	7df9      	ldrb	r1, [r7, #23]
 8000786:	687b      	ldr	r3, [r7, #4]
 8000788:	9300      	str	r3, [sp, #0]
 800078a:	2319      	movs	r3, #25
 800078c:	68f8      	ldr	r0, [r7, #12]
 800078e:	f000 fa71 	bl	8000c74 <i2c_burst_read>
	i2c_burst_read(hi2c, bme_addr, CALIB_ST_2, CALIB_CNT_2, calibration2);
 8000792:	4b07      	ldr	r3, [pc, #28]	; (80007b0 <readBME280_calib+0x4c>)
 8000794:	781a      	ldrb	r2, [r3, #0]
 8000796:	7df9      	ldrb	r1, [r7, #23]
 8000798:	683b      	ldr	r3, [r7, #0]
 800079a:	9300      	str	r3, [sp, #0]
 800079c:	2307      	movs	r3, #7
 800079e:	68f8      	ldr	r0, [r7, #12]
 80007a0:	f000 fa68 	bl	8000c74 <i2c_burst_read>
}
 80007a4:	bf00      	nop
 80007a6:	3718      	adds	r7, #24
 80007a8:	46bd      	mov	sp, r7
 80007aa:	bd80      	pop	{r7, pc}
 80007ac:	2000000b 	.word	0x2000000b
 80007b0:	2000000c 	.word	0x2000000c

080007b4 <getBME280Config>:

BME280_Config getBME280Config(uint8_t bme) {
 80007b4:	b480      	push	{r7}
 80007b6:	b085      	sub	sp, #20
 80007b8:	af00      	add	r7, sp, #0
 80007ba:	4603      	mov	r3, r0
 80007bc:	71fb      	strb	r3, [r7, #7]
	BME280_Config config;
	if (bme == 0) {
 80007be:	79fb      	ldrb	r3, [r7, #7]
 80007c0:	2b00      	cmp	r3, #0
 80007c2:	d102      	bne.n	80007ca <getBME280Config+0x16>
		config.bme_addr = BME280_ADDR_0;
 80007c4:	2376      	movs	r3, #118	; 0x76
 80007c6:	733b      	strb	r3, [r7, #12]
 80007c8:	e004      	b.n	80007d4 <getBME280Config+0x20>
	} else if (bme == 1) {
 80007ca:	79fb      	ldrb	r3, [r7, #7]
 80007cc:	2b01      	cmp	r3, #1
 80007ce:	d101      	bne.n	80007d4 <getBME280Config+0x20>
		config.bme_addr = BME280_ADDR_1;
 80007d0:	2377      	movs	r3, #119	; 0x77
 80007d2:	733b      	strb	r3, [r7, #12]
	}
    return config;
 80007d4:	7b3b      	ldrb	r3, [r7, #12]
}
 80007d6:	4618      	mov	r0, r3
 80007d8:	3714      	adds	r7, #20
 80007da:	46bd      	mov	sp, r7
 80007dc:	f85d 7b04 	ldr.w	r7, [sp], #4
 80007e0:	4770      	bx	lr

080007e2 <swap>:

void swap(uint8_t* a, uint8_t* b) {
 80007e2:	b480      	push	{r7}
 80007e4:	b085      	sub	sp, #20
 80007e6:	af00      	add	r7, sp, #0
 80007e8:	6078      	str	r0, [r7, #4]
 80007ea:	6039      	str	r1, [r7, #0]
    uint8_t temp = *a;
 80007ec:	687b      	ldr	r3, [r7, #4]
 80007ee:	781b      	ldrb	r3, [r3, #0]
 80007f0:	73fb      	strb	r3, [r7, #15]
    *a = *b;
 80007f2:	683b      	ldr	r3, [r7, #0]
 80007f4:	781a      	ldrb	r2, [r3, #0]
 80007f6:	687b      	ldr	r3, [r7, #4]
 80007f8:	701a      	strb	r2, [r3, #0]
    *b = temp;
 80007fa:	683b      	ldr	r3, [r7, #0]
 80007fc:	7bfa      	ldrb	r2, [r7, #15]
 80007fe:	701a      	strb	r2, [r3, #0]
}
 8000800:	bf00      	nop
 8000802:	3714      	adds	r7, #20
 8000804:	46bd      	mov	sp, r7
 8000806:	f85d 7b04 	ldr.w	r7, [sp], #4
 800080a:	4770      	bx	lr

0800080c <sendCAN_TxMessage>:
 */

#include "can_driver.h"


void sendCAN_TxMessage(CAN_HandleTypeDef *hcan, uint8_t dataSize, uint8_t TxData[dataSize], uint32_t *CAN_TxMailbox, uint16_t payload_id) {
 800080c:	b580      	push	{r7, lr}
 800080e:	b08a      	sub	sp, #40	; 0x28
 8000810:	af00      	add	r7, sp, #0
 8000812:	60f8      	str	r0, [r7, #12]
 8000814:	607a      	str	r2, [r7, #4]
 8000816:	603b      	str	r3, [r7, #0]
 8000818:	460b      	mov	r3, r1
 800081a:	72fb      	strb	r3, [r7, #11]
	CAN_TxHeaderTypeDef TxHeader = configureTxHeader(payload_id, dataSize);
 800081c:	f107 0310 	add.w	r3, r7, #16
 8000820:	7afa      	ldrb	r2, [r7, #11]
 8000822:	8e39      	ldrh	r1, [r7, #48]	; 0x30
 8000824:	4618      	mov	r0, r3
 8000826:	f000 f80b 	bl	8000840 <configureTxHeader>
	HAL_CAN_AddTxMessage(hcan, &TxHeader, TxData, CAN_TxMailbox);
 800082a:	f107 0110 	add.w	r1, r7, #16
 800082e:	683b      	ldr	r3, [r7, #0]
 8000830:	687a      	ldr	r2, [r7, #4]
 8000832:	68f8      	ldr	r0, [r7, #12]
 8000834:	f002 fe24 	bl	8003480 <HAL_CAN_AddTxMessage>
}
 8000838:	bf00      	nop
 800083a:	3728      	adds	r7, #40	; 0x28
 800083c:	46bd      	mov	sp, r7
 800083e:	bd80      	pop	{r7, pc}

08000840 <configureTxHeader>:

CAN_TxHeaderTypeDef configureTxHeader(uint16_t payload_id, uint8_t dataSize) {
 8000840:	b4b0      	push	{r4, r5, r7}
 8000842:	b089      	sub	sp, #36	; 0x24
 8000844:	af00      	add	r7, sp, #0
 8000846:	6078      	str	r0, [r7, #4]
 8000848:	460b      	mov	r3, r1
 800084a:	807b      	strh	r3, [r7, #2]
 800084c:	4613      	mov	r3, r2
 800084e:	707b      	strb	r3, [r7, #1]
	CAN_TxHeaderTypeDef TxHeader;
	TxHeader.DLC = dataSize;
 8000850:	787b      	ldrb	r3, [r7, #1]
 8000852:	61bb      	str	r3, [r7, #24]
	TxHeader.IDE = CAN_ID_STD;
 8000854:	2300      	movs	r3, #0
 8000856:	613b      	str	r3, [r7, #16]
	TxHeader.RTR = CAN_RTR_DATA;
 8000858:	2300      	movs	r3, #0
 800085a:	617b      	str	r3, [r7, #20]
	TxHeader.StdId = payload_id;
 800085c:	887b      	ldrh	r3, [r7, #2]
 800085e:	60bb      	str	r3, [r7, #8]
	TxHeader.TransmitGlobalTime = DISABLE;
 8000860:	2300      	movs	r3, #0
 8000862:	773b      	strb	r3, [r7, #28]
	return TxHeader;
 8000864:	687b      	ldr	r3, [r7, #4]
 8000866:	461d      	mov	r5, r3
 8000868:	f107 0408 	add.w	r4, r7, #8
 800086c:	cc0f      	ldmia	r4!, {r0, r1, r2, r3}
 800086e:	c50f      	stmia	r5!, {r0, r1, r2, r3}
 8000870:	e894 0003 	ldmia.w	r4, {r0, r1}
 8000874:	e885 0003 	stmia.w	r5, {r0, r1}
}
 8000878:	6878      	ldr	r0, [r7, #4]
 800087a:	3724      	adds	r7, #36	; 0x24
 800087c:	46bd      	mov	sp, r7
 800087e:	bcb0      	pop	{r4, r5, r7}
 8000880:	4770      	bx	lr

08000882 <check_busy>:
uint8_t FLASH_32K_ERS	= 0x52;			// Erase all memory within a 32K-byte block
uint8_t FLASH_ERASE		= 0xC7;			// Erase the entire chip
uint8_t RST_EN			= 0x66;			// Reset enable
uint8_t DEV_RST			= 0x99;			// Reset device

uint8_t check_busy(SPI_HandleTypeDef *hspi, GPIO_Config config, int timeout) {
 8000882:	b580      	push	{r7, lr}
 8000884:	b088      	sub	sp, #32
 8000886:	af00      	add	r7, sp, #0
 8000888:	60f8      	str	r0, [r7, #12]
 800088a:	1d38      	adds	r0, r7, #4
 800088c:	e880 0006 	stmia.w	r0, {r1, r2}
 8000890:	603b      	str	r3, [r7, #0]
	uint8_t ret_val = 0x00;
 8000892:	2300      	movs	r3, #0
 8000894:	77fb      	strb	r3, [r7, #31]

    // Get the current time
	uint32_t startTick = HAL_GetTick();
 8000896:	f002 fba3 	bl	8002fe0 <HAL_GetTick>
 800089a:	61b8      	str	r0, [r7, #24]

	// Read the status register to ensure no write is currently in progress
	uint8_t busy = 0x01;
 800089c:	2301      	movs	r3, #1
 800089e:	77bb      	strb	r3, [r7, #30]
	while(busy) {
 80008a0:	e015      	b.n	80008ce <check_busy+0x4c>
		// Check if there is a write in progress
		busy = (check_status_register(hspi, config) & 0x01);
 80008a2:	1d3b      	adds	r3, r7, #4
 80008a4:	e893 0006 	ldmia.w	r3, {r1, r2}
 80008a8:	68f8      	ldr	r0, [r7, #12]
 80008aa:	f000 f819 	bl	80008e0 <check_status_register>
 80008ae:	4603      	mov	r3, r0
 80008b0:	f003 0301 	and.w	r3, r3, #1
 80008b4:	77bb      	strb	r3, [r7, #30]

		uint32_t currTick = HAL_GetTick();
 80008b6:	f002 fb93 	bl	8002fe0 <HAL_GetTick>
 80008ba:	6178      	str	r0, [r7, #20]

        // Check if the timeout has been reached
		if ((currTick - startTick) >= timeout) {
 80008bc:	697a      	ldr	r2, [r7, #20]
 80008be:	69bb      	ldr	r3, [r7, #24]
 80008c0:	1ad2      	subs	r2, r2, r3
 80008c2:	683b      	ldr	r3, [r7, #0]
 80008c4:	429a      	cmp	r2, r3
 80008c6:	d302      	bcc.n	80008ce <check_busy+0x4c>
        	ret_val = 0x01;
 80008c8:	2301      	movs	r3, #1
 80008ca:	77fb      	strb	r3, [r7, #31]
            break;
 80008cc:	e002      	b.n	80008d4 <check_busy+0x52>
	while(busy) {
 80008ce:	7fbb      	ldrb	r3, [r7, #30]
 80008d0:	2b00      	cmp	r3, #0
 80008d2:	d1e6      	bne.n	80008a2 <check_busy+0x20>
        }
	}

	return ret_val;
 80008d4:	7ffb      	ldrb	r3, [r7, #31]
}
 80008d6:	4618      	mov	r0, r3
 80008d8:	3720      	adds	r7, #32
 80008da:	46bd      	mov	sp, r7
 80008dc:	bd80      	pop	{r7, pc}
	...

080008e0 <check_status_register>:

uint8_t check_status_register(SPI_HandleTypeDef *hspi, GPIO_Config config) {
 80008e0:	b580      	push	{r7, lr}
 80008e2:	b088      	sub	sp, #32
 80008e4:	af02      	add	r7, sp, #8
 80008e6:	60f8      	str	r0, [r7, #12]
 80008e8:	1d3b      	adds	r3, r7, #4
 80008ea:	e883 0006 	stmia.w	r3, {r1, r2}
	uint8_t status_reg = 0x00;
 80008ee:	2300      	movs	r3, #0
 80008f0:	75fb      	strb	r3, [r7, #23]
	spi_sendOp_readByte(&FLASH_READSR1, hspi, &status_reg, config.GPIOx, config.GPIO_Pin);
 80008f2:	6879      	ldr	r1, [r7, #4]
 80008f4:	893b      	ldrh	r3, [r7, #8]
 80008f6:	f107 0217 	add.w	r2, r7, #23
 80008fa:	9300      	str	r3, [sp, #0]
 80008fc:	460b      	mov	r3, r1
 80008fe:	68f9      	ldr	r1, [r7, #12]
 8000900:	4803      	ldr	r0, [pc, #12]	; (8000910 <check_status_register+0x30>)
 8000902:	f001 fdf5 	bl	80024f0 <spi_sendOp_readByte>
	return status_reg;
 8000906:	7dfb      	ldrb	r3, [r7, #23]
}
 8000908:	4618      	mov	r0, r3
 800090a:	3718      	adds	r7, #24
 800090c:	46bd      	mov	sp, r7
 800090e:	bd80      	pop	{r7, pc}
 8000910:	2000000f 	.word	0x2000000f

08000914 <erase_chip_spi>:
 *      Author: aidencontini
 */

#include "data_output_spi.h"

HAL_StatusTypeDef erase_chip_spi(SPI_HandleTypeDef *hspi, GPIO_Config config) {
 8000914:	b580      	push	{r7, lr}
 8000916:	b084      	sub	sp, #16
 8000918:	af00      	add	r7, sp, #0
 800091a:	60f8      	str	r0, [r7, #12]
 800091c:	1d3b      	adds	r3, r7, #4
 800091e:	e883 0006 	stmia.w	r3, {r1, r2}
	check_busy(hspi, config, BSY_TIMEOUT_MS);
 8000922:	2305      	movs	r3, #5
 8000924:	1d3a      	adds	r2, r7, #4
 8000926:	ca06      	ldmia	r2, {r1, r2}
 8000928:	68f8      	ldr	r0, [r7, #12]
 800092a:	f7ff ffaa 	bl	8000882 <check_busy>

	write_enable_spi(hspi, config);
 800092e:	1d3b      	adds	r3, r7, #4
 8000930:	e893 0006 	ldmia.w	r3, {r1, r2}
 8000934:	68f8      	ldr	r0, [r7, #12]
 8000936:	f000 f815 	bl	8000964 <write_enable_spi>
	perform_operation(&FLASH_ERASE, hspi, config.GPIOx, config.GPIO_Pin);
 800093a:	687a      	ldr	r2, [r7, #4]
 800093c:	893b      	ldrh	r3, [r7, #8]
 800093e:	68f9      	ldr	r1, [r7, #12]
 8000940:	4806      	ldr	r0, [pc, #24]	; (800095c <erase_chip_spi+0x48>)
 8000942:	f001 fdfb 	bl	800253c <perform_operation>

	check_busy(hspi, config, CHIP_ERASE_TO);
 8000946:	4b06      	ldr	r3, [pc, #24]	; (8000960 <erase_chip_spi+0x4c>)
 8000948:	1d3a      	adds	r2, r7, #4
 800094a:	ca06      	ldmia	r2, {r1, r2}
 800094c:	68f8      	ldr	r0, [r7, #12]
 800094e:	f7ff ff98 	bl	8000882 <check_busy>

	return HAL_OK;
 8000952:	2300      	movs	r3, #0
}
 8000954:	4618      	mov	r0, r3
 8000956:	3710      	adds	r7, #16
 8000958:	46bd      	mov	sp, r7
 800095a:	bd80      	pop	{r7, pc}
 800095c:	20000012 	.word	0x20000012
 8000960:	00030d40 	.word	0x00030d40

08000964 <write_enable_spi>:
	check_busy(hspi, config, BLK_ERS_32K_TO);

	return HAL_OK;
}

void write_enable_spi(SPI_HandleTypeDef *hspi, GPIO_Config config) {
 8000964:	b580      	push	{r7, lr}
 8000966:	b084      	sub	sp, #16
 8000968:	af00      	add	r7, sp, #0
 800096a:	60f8      	str	r0, [r7, #12]
 800096c:	1d3b      	adds	r3, r7, #4
 800096e:	e883 0006 	stmia.w	r3, {r1, r2}
	perform_operation(&FLASH_WREN, hspi, config.GPIOx, config.GPIO_Pin);
 8000972:	687a      	ldr	r2, [r7, #4]
 8000974:	893b      	ldrh	r3, [r7, #8]
 8000976:	68f9      	ldr	r1, [r7, #12]
 8000978:	4803      	ldr	r0, [pc, #12]	; (8000988 <write_enable_spi+0x24>)
 800097a:	f001 fddf 	bl	800253c <perform_operation>
}
 800097e:	bf00      	nop
 8000980:	3710      	adds	r7, #16
 8000982:	46bd      	mov	sp, r7
 8000984:	bd80      	pop	{r7, pc}
 8000986:	bf00      	nop
 8000988:	2000000d 	.word	0x2000000d

0800098c <software_reset>:

void write_disable_spi(SPI_HandleTypeDef *hspi, GPIO_Config config) {
	perform_operation(&FLASH_WRDIS, hspi, config.GPIOx, config.GPIO_Pin);
}

void software_reset(SPI_HandleTypeDef *hspi, GPIO_Config config) {
 800098c:	b580      	push	{r7, lr}
 800098e:	b084      	sub	sp, #16
 8000990:	af00      	add	r7, sp, #0
 8000992:	60f8      	str	r0, [r7, #12]
 8000994:	1d3b      	adds	r3, r7, #4
 8000996:	e883 0006 	stmia.w	r3, {r1, r2}

	check_busy(hspi, config, BSY_TIMEOUT_MS);
 800099a:	2305      	movs	r3, #5
 800099c:	1d3a      	adds	r2, r7, #4
 800099e:	ca06      	ldmia	r2, {r1, r2}
 80009a0:	68f8      	ldr	r0, [r7, #12]
 80009a2:	f7ff ff6e 	bl	8000882 <check_busy>

	perform_operation(&RST_EN, hspi, config.GPIOx, config.GPIO_Pin);
 80009a6:	687a      	ldr	r2, [r7, #4]
 80009a8:	893b      	ldrh	r3, [r7, #8]
 80009aa:	68f9      	ldr	r1, [r7, #12]
 80009ac:	4807      	ldr	r0, [pc, #28]	; (80009cc <software_reset+0x40>)
 80009ae:	f001 fdc5 	bl	800253c <perform_operation>
	perform_operation(&DEV_RST, hspi, config.GPIOx, config.GPIO_Pin);
 80009b2:	687a      	ldr	r2, [r7, #4]
 80009b4:	893b      	ldrh	r3, [r7, #8]
 80009b6:	68f9      	ldr	r1, [r7, #12]
 80009b8:	4805      	ldr	r0, [pc, #20]	; (80009d0 <software_reset+0x44>)
 80009ba:	f001 fdbf 	bl	800253c <perform_operation>

	HAL_Delay(5);
 80009be:	2005      	movs	r0, #5
 80009c0:	f002 fb1a 	bl	8002ff8 <HAL_Delay>
}
 80009c4:	bf00      	nop
 80009c6:	3710      	adds	r7, #16
 80009c8:	46bd      	mov	sp, r7
 80009ca:	bd80      	pop	{r7, pc}
 80009cc:	20000013 	.word	0x20000013
 80009d0:	20000014 	.word	0x20000014

080009d4 <write_data_spi_dma>:
	spi_write_data(&FLASH_PGWR, PAGE_SIZE, page, hspi, addr, config.GPIOx, config.GPIO_Pin);

	return 0;
}

uint8_t write_data_spi_dma(uint8_t page[PAGE_SIZE], SPI_HandleTypeDef *hspi, uint32_t addr, GPIO_Config config) {
 80009d4:	b082      	sub	sp, #8
 80009d6:	b580      	push	{r7, lr}
 80009d8:	b088      	sub	sp, #32
 80009da:	af04      	add	r7, sp, #16
 80009dc:	60f8      	str	r0, [r7, #12]
 80009de:	60b9      	str	r1, [r7, #8]
 80009e0:	607a      	str	r2, [r7, #4]
 80009e2:	61fb      	str	r3, [r7, #28]
	check_busy(hspi, config, BSY_TIMEOUT_MS);
 80009e4:	2305      	movs	r3, #5
 80009e6:	f107 021c 	add.w	r2, r7, #28
 80009ea:	ca06      	ldmia	r2, {r1, r2}
 80009ec:	68b8      	ldr	r0, [r7, #8]
 80009ee:	f7ff ff48 	bl	8000882 <check_busy>

	// Send the write enable signal
	write_enable_spi(hspi, config);
 80009f2:	f107 031c 	add.w	r3, r7, #28
 80009f6:	e893 0006 	ldmia.w	r3, {r1, r2}
 80009fa:	68b8      	ldr	r0, [r7, #8]
 80009fc:	f7ff ffb2 	bl	8000964 <write_enable_spi>
	spi_write_data_dma(&FLASH_PGWR, PAGE_SIZE, page, hspi, addr, config.GPIOx, config.GPIO_Pin);
 8000a00:	69fb      	ldr	r3, [r7, #28]
 8000a02:	8c3a      	ldrh	r2, [r7, #32]
 8000a04:	9202      	str	r2, [sp, #8]
 8000a06:	9301      	str	r3, [sp, #4]
 8000a08:	687b      	ldr	r3, [r7, #4]
 8000a0a:	9300      	str	r3, [sp, #0]
 8000a0c:	68bb      	ldr	r3, [r7, #8]
 8000a0e:	68fa      	ldr	r2, [r7, #12]
 8000a10:	f44f 7180 	mov.w	r1, #256	; 0x100
 8000a14:	4805      	ldr	r0, [pc, #20]	; (8000a2c <write_data_spi_dma+0x58>)
 8000a16:	f001 fdf8 	bl	800260a <spi_write_data_dma>

	return 0;
 8000a1a:	2300      	movs	r3, #0
}
 8000a1c:	4618      	mov	r0, r3
 8000a1e:	3710      	adds	r7, #16
 8000a20:	46bd      	mov	sp, r7
 8000a22:	e8bd 4080 	ldmia.w	sp!, {r7, lr}
 8000a26:	b002      	add	sp, #8
 8000a28:	4770      	bx	lr
 8000a2a:	bf00      	nop
 8000a2c:	2000000e 	.word	0x2000000e

08000a30 <find_next_blank_page>:
 *      Author: aidencontini
 */

#include "data_read_spi.h"

uint32_t find_next_blank_page(SPI_HandleTypeDef *hspi, GPIO_PinState *end_of_flash_ptr, GPIO_Config config) {
 8000a30:	e92d 43f0 	stmdb	sp!, {r4, r5, r6, r7, r8, r9, lr}
 8000a34:	b091      	sub	sp, #68	; 0x44
 8000a36:	af04      	add	r7, sp, #16
 8000a38:	60f8      	str	r0, [r7, #12]
 8000a3a:	60b9      	str	r1, [r7, #8]
 8000a3c:	4639      	mov	r1, r7
 8000a3e:	e881 000c 	stmia.w	r1, {r2, r3}
 8000a42:	466b      	mov	r3, sp
 8000a44:	461e      	mov	r6, r3
	uint8_t firstBytes = 4;
 8000a46:	2304      	movs	r3, #4
 8000a48:	77fb      	strb	r3, [r7, #31]

	uint8_t page_start[firstBytes];
 8000a4a:	7ff9      	ldrb	r1, [r7, #31]
 8000a4c:	460b      	mov	r3, r1
 8000a4e:	3b01      	subs	r3, #1
 8000a50:	61bb      	str	r3, [r7, #24]
 8000a52:	b2cb      	uxtb	r3, r1
 8000a54:	2200      	movs	r2, #0
 8000a56:	4698      	mov	r8, r3
 8000a58:	4691      	mov	r9, r2
 8000a5a:	f04f 0200 	mov.w	r2, #0
 8000a5e:	f04f 0300 	mov.w	r3, #0
 8000a62:	ea4f 03c9 	mov.w	r3, r9, lsl #3
 8000a66:	ea43 7358 	orr.w	r3, r3, r8, lsr #29
 8000a6a:	ea4f 02c8 	mov.w	r2, r8, lsl #3
 8000a6e:	b2cb      	uxtb	r3, r1
 8000a70:	2200      	movs	r2, #0
 8000a72:	461c      	mov	r4, r3
 8000a74:	4615      	mov	r5, r2
 8000a76:	f04f 0200 	mov.w	r2, #0
 8000a7a:	f04f 0300 	mov.w	r3, #0
 8000a7e:	00eb      	lsls	r3, r5, #3
 8000a80:	ea43 7354 	orr.w	r3, r3, r4, lsr #29
 8000a84:	00e2      	lsls	r2, r4, #3
 8000a86:	460b      	mov	r3, r1
 8000a88:	3307      	adds	r3, #7
 8000a8a:	08db      	lsrs	r3, r3, #3
 8000a8c:	00db      	lsls	r3, r3, #3
 8000a8e:	ebad 0d03 	sub.w	sp, sp, r3
 8000a92:	ab04      	add	r3, sp, #16
 8000a94:	3300      	adds	r3, #0
 8000a96:	617b      	str	r3, [r7, #20]
	for (int i = 0; i < firstBytes; i++) {
 8000a98:	2300      	movs	r3, #0
 8000a9a:	62fb      	str	r3, [r7, #44]	; 0x2c
 8000a9c:	e007      	b.n	8000aae <find_next_blank_page+0x7e>
		page_start[i] = 0;
 8000a9e:	697a      	ldr	r2, [r7, #20]
 8000aa0:	6afb      	ldr	r3, [r7, #44]	; 0x2c
 8000aa2:	4413      	add	r3, r2
 8000aa4:	2200      	movs	r2, #0
 8000aa6:	701a      	strb	r2, [r3, #0]
	for (int i = 0; i < firstBytes; i++) {
 8000aa8:	6afb      	ldr	r3, [r7, #44]	; 0x2c
 8000aaa:	3301      	adds	r3, #1
 8000aac:	62fb      	str	r3, [r7, #44]	; 0x2c
 8000aae:	7ffb      	ldrb	r3, [r7, #31]
 8000ab0:	6afa      	ldr	r2, [r7, #44]	; 0x2c
 8000ab2:	429a      	cmp	r2, r3
 8000ab4:	dbf3      	blt.n	8000a9e <find_next_blank_page+0x6e>
	}

	uint32_t page_start_concat = (page_start[0] << 24) | (page_start[1] << 16) | (page_start[2] << 8) | page_start[3];
 8000ab6:	697b      	ldr	r3, [r7, #20]
 8000ab8:	781b      	ldrb	r3, [r3, #0]
 8000aba:	061a      	lsls	r2, r3, #24
 8000abc:	697b      	ldr	r3, [r7, #20]
 8000abe:	785b      	ldrb	r3, [r3, #1]
 8000ac0:	041b      	lsls	r3, r3, #16
 8000ac2:	431a      	orrs	r2, r3
 8000ac4:	697b      	ldr	r3, [r7, #20]
 8000ac6:	789b      	ldrb	r3, [r3, #2]
 8000ac8:	021b      	lsls	r3, r3, #8
 8000aca:	4313      	orrs	r3, r2
 8000acc:	697a      	ldr	r2, [r7, #20]
 8000ace:	78d2      	ldrb	r2, [r2, #3]
 8000ad0:	4313      	orrs	r3, r2
 8000ad2:	62bb      	str	r3, [r7, #40]	; 0x28
	uint32_t temp = 0;
 8000ad4:	2300      	movs	r3, #0
 8000ad6:	627b      	str	r3, [r7, #36]	; 0x24
	uint32_t page_address = temp;
 8000ad8:	6a7b      	ldr	r3, [r7, #36]	; 0x24
 8000ada:	623b      	str	r3, [r7, #32]

	while ((page_start_concat != 0xFFFFFFFF) || (temp == NUM_OF_PAGES)) {
 8000adc:	e027      	b.n	8000b2e <find_next_blank_page+0xfe>
		page_address = temp;
 8000ade:	6a7b      	ldr	r3, [r7, #36]	; 0x24
 8000ae0:	623b      	str	r3, [r7, #32]

		check_busy(hspi, config, BSY_TIMEOUT_MS);
 8000ae2:	2305      	movs	r3, #5
 8000ae4:	463a      	mov	r2, r7
 8000ae6:	ca06      	ldmia	r2, {r1, r2}
 8000ae8:	68f8      	ldr	r0, [r7, #12]
 8000aea:	f7ff feca 	bl	8000882 <check_busy>

		spi_read_data(&FLASH_READEN, firstBytes, page_start, hspi, page_address, config.GPIOx, config.GPIO_Pin);
 8000aee:	7ffb      	ldrb	r3, [r7, #31]
 8000af0:	b299      	uxth	r1, r3
 8000af2:	683b      	ldr	r3, [r7, #0]
 8000af4:	88ba      	ldrh	r2, [r7, #4]
 8000af6:	9202      	str	r2, [sp, #8]
 8000af8:	9301      	str	r3, [sp, #4]
 8000afa:	6a3b      	ldr	r3, [r7, #32]
 8000afc:	9300      	str	r3, [sp, #0]
 8000afe:	68fb      	ldr	r3, [r7, #12]
 8000b00:	697a      	ldr	r2, [r7, #20]
 8000b02:	4816      	ldr	r0, [pc, #88]	; (8000b5c <find_next_blank_page+0x12c>)
 8000b04:	f001 fd3a 	bl	800257c <spi_read_data>

		page_start_concat = (page_start[0] << 24) | (page_start[1] << 16) | (page_start[2] << 8) | page_start[3];
 8000b08:	697b      	ldr	r3, [r7, #20]
 8000b0a:	781b      	ldrb	r3, [r3, #0]
 8000b0c:	061a      	lsls	r2, r3, #24
 8000b0e:	697b      	ldr	r3, [r7, #20]
 8000b10:	785b      	ldrb	r3, [r3, #1]
 8000b12:	041b      	lsls	r3, r3, #16
 8000b14:	431a      	orrs	r2, r3
 8000b16:	697b      	ldr	r3, [r7, #20]
 8000b18:	789b      	ldrb	r3, [r3, #2]
 8000b1a:	021b      	lsls	r3, r3, #8
 8000b1c:	4313      	orrs	r3, r2
 8000b1e:	697a      	ldr	r2, [r7, #20]
 8000b20:	78d2      	ldrb	r2, [r2, #3]
 8000b22:	4313      	orrs	r3, r2
 8000b24:	62bb      	str	r3, [r7, #40]	; 0x28
		temp += PAGE_SIZE;
 8000b26:	6a7b      	ldr	r3, [r7, #36]	; 0x24
 8000b28:	f503 7380 	add.w	r3, r3, #256	; 0x100
 8000b2c:	627b      	str	r3, [r7, #36]	; 0x24
	while ((page_start_concat != 0xFFFFFFFF) || (temp == NUM_OF_PAGES)) {
 8000b2e:	6abb      	ldr	r3, [r7, #40]	; 0x28
 8000b30:	f1b3 3fff 	cmp.w	r3, #4294967295	; 0xffffffff
 8000b34:	d1d3      	bne.n	8000ade <find_next_blank_page+0xae>
 8000b36:	6a7b      	ldr	r3, [r7, #36]	; 0x24
 8000b38:	f5b3 3f80 	cmp.w	r3, #65536	; 0x10000
 8000b3c:	d0cf      	beq.n	8000ade <find_next_blank_page+0xae>
	}

	if (page_address == (NUM_OF_PAGES * PAGE_SIZE)) {
 8000b3e:	6a3b      	ldr	r3, [r7, #32]
 8000b40:	f1b3 7f80 	cmp.w	r3, #16777216	; 0x1000000
 8000b44:	d102      	bne.n	8000b4c <find_next_blank_page+0x11c>
		*end_of_flash_ptr = GPIO_PIN_RESET;
 8000b46:	68bb      	ldr	r3, [r7, #8]
 8000b48:	2200      	movs	r2, #0
 8000b4a:	701a      	strb	r2, [r3, #0]
	}
	return page_address;
 8000b4c:	6a3b      	ldr	r3, [r7, #32]
 8000b4e:	46b5      	mov	sp, r6
}
 8000b50:	4618      	mov	r0, r3
 8000b52:	3734      	adds	r7, #52	; 0x34
 8000b54:	46bd      	mov	sp, r7
 8000b56:	e8bd 83f0 	ldmia.w	sp!, {r4, r5, r6, r7, r8, r9, pc}
 8000b5a:	bf00      	nop
 8000b5c:	20000010 	.word	0x20000010

08000b60 <read_page_spi>:

void read_page_spi(uint8_t data_read[PAGE_SIZE], SPI_HandleTypeDef *hspi, uint32_t addr, GPIO_Config config) {
 8000b60:	b082      	sub	sp, #8
 8000b62:	b580      	push	{r7, lr}
 8000b64:	b088      	sub	sp, #32
 8000b66:	af04      	add	r7, sp, #16
 8000b68:	60f8      	str	r0, [r7, #12]
 8000b6a:	60b9      	str	r1, [r7, #8]
 8000b6c:	607a      	str	r2, [r7, #4]
 8000b6e:	61fb      	str	r3, [r7, #28]

	// Read the status register to ensure no write is currently in progress
	check_busy(hspi, config, BSY_TIMEOUT_MS);
 8000b70:	2305      	movs	r3, #5
 8000b72:	f107 021c 	add.w	r2, r7, #28
 8000b76:	ca06      	ldmia	r2, {r1, r2}
 8000b78:	68b8      	ldr	r0, [r7, #8]
 8000b7a:	f7ff fe82 	bl	8000882 <check_busy>
	spi_read_data(&FLASH_READEN, PAGE_SIZE, data_read, hspi, addr, config.GPIOx, config.GPIO_Pin);
 8000b7e:	69fb      	ldr	r3, [r7, #28]
 8000b80:	8c3a      	ldrh	r2, [r7, #32]
 8000b82:	9202      	str	r2, [sp, #8]
 8000b84:	9301      	str	r3, [sp, #4]
 8000b86:	687b      	ldr	r3, [r7, #4]
 8000b88:	9300      	str	r3, [sp, #0]
 8000b8a:	68bb      	ldr	r3, [r7, #8]
 8000b8c:	68fa      	ldr	r2, [r7, #12]
 8000b8e:	f44f 7180 	mov.w	r1, #256	; 0x100
 8000b92:	4805      	ldr	r0, [pc, #20]	; (8000ba8 <read_page_spi+0x48>)
 8000b94:	f001 fcf2 	bl	800257c <spi_read_data>
}
 8000b98:	bf00      	nop
 8000b9a:	3710      	adds	r7, #16
 8000b9c:	46bd      	mov	sp, r7
 8000b9e:	e8bd 4080 	ldmia.w	sp!, {r7, lr}
 8000ba2:	b002      	add	sp, #8
 8000ba4:	4770      	bx	lr
 8000ba6:	bf00      	nop
 8000ba8:	20000010 	.word	0x20000010

08000bac <read_manufacturer_id>:

void read_manufacturer_id(uint8_t manu[2], SPI_HandleTypeDef *hspi, GPIO_Config config) {
 8000bac:	b580      	push	{r7, lr}
 8000bae:	b08a      	sub	sp, #40	; 0x28
 8000bb0:	af04      	add	r7, sp, #16
 8000bb2:	60f8      	str	r0, [r7, #12]
 8000bb4:	60b9      	str	r1, [r7, #8]
 8000bb6:	4639      	mov	r1, r7
 8000bb8:	e881 000c 	stmia.w	r1, {r2, r3}

	// Read the status register to ensure no write is currently in progress
	check_busy(hspi, config, BSY_TIMEOUT_MS);
 8000bbc:	2305      	movs	r3, #5
 8000bbe:	463a      	mov	r2, r7
 8000bc0:	ca06      	ldmia	r2, {r1, r2}
 8000bc2:	68b8      	ldr	r0, [r7, #8]
 8000bc4:	f7ff fe5d 	bl	8000882 <check_busy>

	// Read the entire contents of a page starting from the given address
	uint8_t addr = 0x00;
 8000bc8:	2300      	movs	r3, #0
 8000bca:	75fb      	strb	r3, [r7, #23]
	spi_read_data(&FLASH_READ_MANU, 2, manu, hspi, addr, config.GPIOx, config.GPIO_Pin);
 8000bcc:	7dfb      	ldrb	r3, [r7, #23]
 8000bce:	683a      	ldr	r2, [r7, #0]
 8000bd0:	88b9      	ldrh	r1, [r7, #4]
 8000bd2:	9102      	str	r1, [sp, #8]
 8000bd4:	9201      	str	r2, [sp, #4]
 8000bd6:	9300      	str	r3, [sp, #0]
 8000bd8:	68bb      	ldr	r3, [r7, #8]
 8000bda:	68fa      	ldr	r2, [r7, #12]
 8000bdc:	2102      	movs	r1, #2
 8000bde:	4803      	ldr	r0, [pc, #12]	; (8000bec <read_manufacturer_id+0x40>)
 8000be0:	f001 fccc 	bl	800257c <spi_read_data>
}
 8000be4:	bf00      	nop
 8000be6:	3718      	adds	r7, #24
 8000be8:	46bd      	mov	sp, r7
 8000bea:	bd80      	pop	{r7, pc}
 8000bec:	20000011 	.word	0x20000011

08000bf0 <create_GPIO_Config>:
 */

#include "gpio_struct.h"

// Function to initialize the GPIO_Config struct
GPIO_Config create_GPIO_Config(GPIO_TypeDef* GPIOx, uint16_t GPIO_Pin) {
 8000bf0:	b480      	push	{r7}
 8000bf2:	b087      	sub	sp, #28
 8000bf4:	af00      	add	r7, sp, #0
 8000bf6:	60f8      	str	r0, [r7, #12]
 8000bf8:	60b9      	str	r1, [r7, #8]
 8000bfa:	4613      	mov	r3, r2
 8000bfc:	80fb      	strh	r3, [r7, #6]
    GPIO_Config new_config;
    new_config.GPIOx = GPIOx;
 8000bfe:	68bb      	ldr	r3, [r7, #8]
 8000c00:	613b      	str	r3, [r7, #16]
    new_config.GPIO_Pin = GPIO_Pin;
 8000c02:	88fb      	ldrh	r3, [r7, #6]
 8000c04:	82bb      	strh	r3, [r7, #20]
    return new_config;
 8000c06:	68fb      	ldr	r3, [r7, #12]
 8000c08:	461a      	mov	r2, r3
 8000c0a:	f107 0310 	add.w	r3, r7, #16
 8000c0e:	e893 0003 	ldmia.w	r3, {r0, r1}
 8000c12:	e882 0003 	stmia.w	r2, {r0, r1}
}
 8000c16:	68f8      	ldr	r0, [r7, #12]
 8000c18:	371c      	adds	r7, #28
 8000c1a:	46bd      	mov	sp, r7
 8000c1c:	f85d 7b04 	ldr.w	r7, [sp], #4
 8000c20:	4770      	bx	lr

08000c22 <i2c_read_reg>:
 *      Author: aidencontini
 */

#include "i2c_driver.h"

HAL_StatusTypeDef i2c_read_reg(I2C_HandleTypeDef* hi2c, uint8_t* data_ptr, uint8_t dev_addr, uint8_t* register_addr) {
 8000c22:	b580      	push	{r7, lr}
 8000c24:	b088      	sub	sp, #32
 8000c26:	af02      	add	r7, sp, #8
 8000c28:	60f8      	str	r0, [r7, #12]
 8000c2a:	60b9      	str	r1, [r7, #8]
 8000c2c:	603b      	str	r3, [r7, #0]
 8000c2e:	4613      	mov	r3, r2
 8000c30:	71fb      	strb	r3, [r7, #7]
	HAL_I2C_Master_Transmit(hi2c, (dev_addr << 1) & 0xFE, register_addr, 1, I2C_TIMEOUT_SML);
 8000c32:	79fb      	ldrb	r3, [r7, #7]
 8000c34:	005b      	lsls	r3, r3, #1
 8000c36:	b29b      	uxth	r3, r3
 8000c38:	b2db      	uxtb	r3, r3
 8000c3a:	b299      	uxth	r1, r3
 8000c3c:	2301      	movs	r3, #1
 8000c3e:	9300      	str	r3, [sp, #0]
 8000c40:	2301      	movs	r3, #1
 8000c42:	683a      	ldr	r2, [r7, #0]
 8000c44:	68f8      	ldr	r0, [r7, #12]
 8000c46:	f004 f8cb 	bl	8004de0 <HAL_I2C_Master_Transmit>
	HAL_StatusTypeDef hal_status = HAL_I2C_Master_Receive(hi2c, (dev_addr << 1) | 0x01, data_ptr, 1, I2C_TIMEOUT_SML);
 8000c4a:	79fb      	ldrb	r3, [r7, #7]
 8000c4c:	005b      	lsls	r3, r3, #1
 8000c4e:	b21b      	sxth	r3, r3
 8000c50:	f043 0301 	orr.w	r3, r3, #1
 8000c54:	b21b      	sxth	r3, r3
 8000c56:	b299      	uxth	r1, r3
 8000c58:	2301      	movs	r3, #1
 8000c5a:	9300      	str	r3, [sp, #0]
 8000c5c:	2301      	movs	r3, #1
 8000c5e:	68ba      	ldr	r2, [r7, #8]
 8000c60:	68f8      	ldr	r0, [r7, #12]
 8000c62:	f004 f9bb 	bl	8004fdc <HAL_I2C_Master_Receive>
 8000c66:	4603      	mov	r3, r0
 8000c68:	75fb      	strb	r3, [r7, #23]
	return hal_status;
 8000c6a:	7dfb      	ldrb	r3, [r7, #23]
}
 8000c6c:	4618      	mov	r0, r3
 8000c6e:	3718      	adds	r7, #24
 8000c70:	46bd      	mov	sp, r7
 8000c72:	bd80      	pop	{r7, pc}

08000c74 <i2c_burst_read>:

HAL_StatusTypeDef i2c_burst_read(I2C_HandleTypeDef* hi2c, uint8_t dev_addr, uint8_t register_addr, uint8_t size, uint8_t data_buffer[size]) {
 8000c74:	b580      	push	{r7, lr}
 8000c76:	b086      	sub	sp, #24
 8000c78:	af02      	add	r7, sp, #8
 8000c7a:	6078      	str	r0, [r7, #4]
 8000c7c:	4608      	mov	r0, r1
 8000c7e:	4611      	mov	r1, r2
 8000c80:	461a      	mov	r2, r3
 8000c82:	4603      	mov	r3, r0
 8000c84:	70fb      	strb	r3, [r7, #3]
 8000c86:	460b      	mov	r3, r1
 8000c88:	70bb      	strb	r3, [r7, #2]
 8000c8a:	4613      	mov	r3, r2
 8000c8c:	707b      	strb	r3, [r7, #1]
	// In order to read multiple bytes, it is necessary to assert the most significant bit of the sub-address field.
	uint8_t addr = register_addr | 0x80;
 8000c8e:	78bb      	ldrb	r3, [r7, #2]
 8000c90:	f063 037f 	orn	r3, r3, #127	; 0x7f
 8000c94:	b2db      	uxtb	r3, r3
 8000c96:	73bb      	strb	r3, [r7, #14]
	HAL_I2C_Master_Transmit(hi2c, (dev_addr << 1) & 0xFE, &addr, 1, I2C_TIMEOUT_SML);
 8000c98:	78fb      	ldrb	r3, [r7, #3]
 8000c9a:	005b      	lsls	r3, r3, #1
 8000c9c:	b29b      	uxth	r3, r3
 8000c9e:	b2db      	uxtb	r3, r3
 8000ca0:	b299      	uxth	r1, r3
 8000ca2:	f107 020e 	add.w	r2, r7, #14
 8000ca6:	2301      	movs	r3, #1
 8000ca8:	9300      	str	r3, [sp, #0]
 8000caa:	2301      	movs	r3, #1
 8000cac:	6878      	ldr	r0, [r7, #4]
 8000cae:	f004 f897 	bl	8004de0 <HAL_I2C_Master_Transmit>
	HAL_StatusTypeDef hal_status =  HAL_I2C_Master_Receive(hi2c, (dev_addr << 1) | 0x01, data_buffer, size, I2C_TIMEOUT_LRG);
 8000cb2:	78fb      	ldrb	r3, [r7, #3]
 8000cb4:	005b      	lsls	r3, r3, #1
 8000cb6:	b21b      	sxth	r3, r3
 8000cb8:	f043 0301 	orr.w	r3, r3, #1
 8000cbc:	b21b      	sxth	r3, r3
 8000cbe:	b299      	uxth	r1, r3
 8000cc0:	787b      	ldrb	r3, [r7, #1]
 8000cc2:	b29b      	uxth	r3, r3
 8000cc4:	220a      	movs	r2, #10
 8000cc6:	9200      	str	r2, [sp, #0]
 8000cc8:	69ba      	ldr	r2, [r7, #24]
 8000cca:	6878      	ldr	r0, [r7, #4]
 8000ccc:	f004 f986 	bl	8004fdc <HAL_I2C_Master_Receive>
 8000cd0:	4603      	mov	r3, r0
 8000cd2:	73fb      	strb	r3, [r7, #15]
	return hal_status;
 8000cd4:	7bfb      	ldrb	r3, [r7, #15]
}
 8000cd6:	4618      	mov	r0, r3
 8000cd8:	3710      	adds	r7, #16
 8000cda:	46bd      	mov	sp, r7
 8000cdc:	bd80      	pop	{r7, pc}

08000cde <i2c_write_reg>:
	HAL_I2C_Master_Transmit(hi2c, (dev_addr << 1) & 0xFE, &addr, 1, I2C_TIMEOUT_SML);
	HAL_StatusTypeDef hal_status =  HAL_I2C_Master_Receive(hi2c, (dev_addr << 1) | 0x01, data_buffer, size, I2C_TIMEOUT_LRG);
	return hal_status;
}

HAL_StatusTypeDef i2c_write_reg(I2C_HandleTypeDef* hi2c, uint8_t dev_addr, uint8_t* register_addr, uint8_t data) {
 8000cde:	b580      	push	{r7, lr}
 8000ce0:	b088      	sub	sp, #32
 8000ce2:	af02      	add	r7, sp, #8
 8000ce4:	60f8      	str	r0, [r7, #12]
 8000ce6:	607a      	str	r2, [r7, #4]
 8000ce8:	461a      	mov	r2, r3
 8000cea:	460b      	mov	r3, r1
 8000cec:	72fb      	strb	r3, [r7, #11]
 8000cee:	4613      	mov	r3, r2
 8000cf0:	72bb      	strb	r3, [r7, #10]
	uint8_t data_tx[2] = {*register_addr, data};
 8000cf2:	687b      	ldr	r3, [r7, #4]
 8000cf4:	781b      	ldrb	r3, [r3, #0]
 8000cf6:	753b      	strb	r3, [r7, #20]
 8000cf8:	7abb      	ldrb	r3, [r7, #10]
 8000cfa:	757b      	strb	r3, [r7, #21]
	HAL_StatusTypeDef hal_status = HAL_I2C_Master_Transmit(hi2c, (dev_addr << 1) & 0xFE, data_tx, 2, I2C_TIMEOUT_SML);
 8000cfc:	7afb      	ldrb	r3, [r7, #11]
 8000cfe:	005b      	lsls	r3, r3, #1
 8000d00:	b29b      	uxth	r3, r3
 8000d02:	b2db      	uxtb	r3, r3
 8000d04:	b299      	uxth	r1, r3
 8000d06:	f107 0214 	add.w	r2, r7, #20
 8000d0a:	2301      	movs	r3, #1
 8000d0c:	9300      	str	r3, [sp, #0]
 8000d0e:	2302      	movs	r3, #2
 8000d10:	68f8      	ldr	r0, [r7, #12]
 8000d12:	f004 f865 	bl	8004de0 <HAL_I2C_Master_Transmit>
 8000d16:	4603      	mov	r3, r0
 8000d18:	75fb      	strb	r3, [r7, #23]
	return hal_status;
 8000d1a:	7dfb      	ldrb	r3, [r7, #23]
}
 8000d1c:	4618      	mov	r0, r3
 8000d1e:	3718      	adds	r7, #24
 8000d20:	46bd      	mov	sp, r7
 8000d22:	bd80      	pop	{r7, pc}

08000d24 <main>:
/**
  * @brief  The application entry point.
  * @retval int
  */
int main(void)
{
 8000d24:	b580      	push	{r7, lr}
 8000d26:	b084      	sub	sp, #16
 8000d28:	af02      	add	r7, sp, #8
  /* USER CODE END 1 */

  /* MCU Configuration--------------------------------------------------------*/

  /* Reset of all peripherals, Initializes the Flash interface and the Systick. */
  HAL_Init();
 8000d2a:	f002 f8f3 	bl	8002f14 <HAL_Init>
  /* USER CODE BEGIN Init */

  /* USER CODE END Init */

  /* Configure the system clock */
  SystemClock_Config();
 8000d2e:	f000 f907 	bl	8000f40 <SystemClock_Config>
  /* USER CODE BEGIN SysInit */

  /* USER CODE END SysInit */

  /* Initialize all configured peripherals */
  MX_GPIO_Init();
 8000d32:	f000 fb87 	bl	8001444 <MX_GPIO_Init>
  MX_DMA_Init();
 8000d36:	f000 fb4f 	bl	80013d8 <MX_DMA_Init>
  MX_I2C1_Init();
 8000d3a:	f000 f9a5 	bl	8001088 <MX_I2C1_Init>
  MX_RTC_Init();
 8000d3e:	f000 fa23 	bl	8001188 <MX_RTC_Init>
  MX_SPI1_Init();
 8000d42:	f000 fa47 	bl	80011d4 <MX_SPI1_Init>
  MX_TIM6_Init();
 8000d46:	f000 fab1 	bl	80012ac <MX_TIM6_Init>
  MX_USART2_UART_Init();
 8000d4a:	f000 fb1b 	bl	8001384 <MX_USART2_UART_Init>
  MX_I2C2_Init();
 8000d4e:	f000 f9db 	bl	8001108 <MX_I2C2_Init>
  MX_SPI2_Init();
 8000d52:	f000 fa75 	bl	8001240 <MX_SPI2_Init>
  MX_CAN2_Init();
 8000d56:	f000 f95f 	bl	8001018 <MX_CAN2_Init>
  MX_TIM7_Init();
 8000d5a:	f000 fadd 	bl	8001318 <MX_TIM7_Init>
  /* USER CODE BEGIN 2 */
  systemInit();
 8000d5e:	f000 fc59 	bl	8001614 <systemInit>
    /* USER CODE END WHILE */

    /* USER CODE BEGIN 3 */

	  // If the flight jumper has been removed (GPIO rising edge), reset the time to 0.
	  if(rtc_reset == FLAG_SET) {
 8000d62:	4b60      	ldr	r3, [pc, #384]	; (8000ee4 <main+0x1c0>)
 8000d64:	781b      	ldrb	r3, [r3, #0]
 8000d66:	2b01      	cmp	r3, #1
 8000d68:	d105      	bne.n	8000d76 <main+0x52>
		  initialise_rtc_default(&hrtc);
 8000d6a:	485f      	ldr	r0, [pc, #380]	; (8000ee8 <main+0x1c4>)
 8000d6c:	f001 fb30 	bl	80023d0 <initialise_rtc_default>
		  rtc_reset = FLAG_RESET;
 8000d70:	4b5c      	ldr	r3, [pc, #368]	; (8000ee4 <main+0x1c0>)
 8000d72:	2200      	movs	r2, #0
 8000d74:	701a      	strb	r2, [r3, #0]
	  }

	  // Handle UART receive flag
	  if(uart2_rec_flag == FLAG_SET) {
 8000d76:	4b5d      	ldr	r3, [pc, #372]	; (8000eec <main+0x1c8>)
 8000d78:	781b      	ldrb	r3, [r3, #0]
 8000d7a:	2b01      	cmp	r3, #1
 8000d7c:	d104      	bne.n	8000d88 <main+0x64>
		  handleUART();
 8000d7e:	f000 fe43 	bl	8001a08 <handleUART>
		  uart2_rec_flag = FLAG_RESET;
 8000d82:	4b5a      	ldr	r3, [pc, #360]	; (8000eec <main+0x1c8>)
 8000d84:	2200      	movs	r2, #0
 8000d86:	701a      	strb	r2, [r3, #0]
	  }

	  // Handle CAN receive flag
	  if(CAN_RX_Flag == FLAG_SET) {
 8000d88:	4b59      	ldr	r3, [pc, #356]	; (8000ef0 <main+0x1cc>)
 8000d8a:	781b      	ldrb	r3, [r3, #0]
 8000d8c:	2b01      	cmp	r3, #1
 8000d8e:	d117      	bne.n	8000dc0 <main+0x9c>
		  if((CAN_First_Msg == FLAG_SET) && (flight_state == GROUND)) {
 8000d90:	4b58      	ldr	r3, [pc, #352]	; (8000ef4 <main+0x1d0>)
 8000d92:	781b      	ldrb	r3, [r3, #0]
 8000d94:	2b01      	cmp	r3, #1
 8000d96:	d106      	bne.n	8000da6 <main+0x82>
 8000d98:	4b57      	ldr	r3, [pc, #348]	; (8000ef8 <main+0x1d4>)
 8000d9a:	781b      	ldrb	r3, [r3, #0]
 8000d9c:	2b00      	cmp	r3, #0
 8000d9e:	d102      	bne.n	8000da6 <main+0x82>
			  flight_state = LOADED;
 8000da0:	4b55      	ldr	r3, [pc, #340]	; (8000ef8 <main+0x1d4>)
 8000da2:	2201      	movs	r2, #1
 8000da4:	701a      	strb	r2, [r3, #0]
		  }

		  handleCAN();
 8000da6:	f000 fdc5 	bl	8001934 <handleCAN>
		  HAL_GPIO_TogglePin(led_green.GPIOx, led_green.GPIO_Pin);
 8000daa:	4b54      	ldr	r3, [pc, #336]	; (8000efc <main+0x1d8>)
 8000dac:	681b      	ldr	r3, [r3, #0]
 8000dae:	4a53      	ldr	r2, [pc, #332]	; (8000efc <main+0x1d8>)
 8000db0:	8892      	ldrh	r2, [r2, #4]
 8000db2:	4611      	mov	r1, r2
 8000db4:	4618      	mov	r0, r3
 8000db6:	f003 fe9c 	bl	8004af2 <HAL_GPIO_TogglePin>
		  CAN_RX_Flag = FLAG_RESET;
 8000dba:	4b4d      	ldr	r3, [pc, #308]	; (8000ef0 <main+0x1cc>)
 8000dbc:	2200      	movs	r2, #0
 8000dbe:	701a      	strb	r2, [r3, #0]
	  }

	  if (tim7_overflow_flag == FLAG_SET) {
 8000dc0:	4b4f      	ldr	r3, [pc, #316]	; (8000f00 <main+0x1dc>)
 8000dc2:	781b      	ldrb	r3, [r3, #0]
 8000dc4:	2b01      	cmp	r3, #1
 8000dc6:	d116      	bne.n	8000df6 <main+0xd2>
		  HAL_GPIO_TogglePin(led_orange.GPIOx, led_orange.GPIO_Pin);		// Toggle LED
 8000dc8:	4b4e      	ldr	r3, [pc, #312]	; (8000f04 <main+0x1e0>)
 8000dca:	681b      	ldr	r3, [r3, #0]
 8000dcc:	4a4d      	ldr	r2, [pc, #308]	; (8000f04 <main+0x1e0>)
 8000dce:	8892      	ldrh	r2, [r2, #4]
 8000dd0:	4611      	mov	r1, r2
 8000dd2:	4618      	mov	r0, r3
 8000dd4:	f003 fe8d 	bl	8004af2 <HAL_GPIO_TogglePin>
		  sysStatus = systemStatus(&hspi1, &hspi2, i2c_bme280, i2c_accel);
 8000dd8:	4b4b      	ldr	r3, [pc, #300]	; (8000f08 <main+0x1e4>)
 8000dda:	681a      	ldr	r2, [r3, #0]
 8000ddc:	4b4b      	ldr	r3, [pc, #300]	; (8000f0c <main+0x1e8>)
 8000dde:	681b      	ldr	r3, [r3, #0]
 8000de0:	494b      	ldr	r1, [pc, #300]	; (8000f10 <main+0x1ec>)
 8000de2:	484c      	ldr	r0, [pc, #304]	; (8000f14 <main+0x1f0>)
 8000de4:	f000 ffaa 	bl	8001d3c <systemStatus>
 8000de8:	4603      	mov	r3, r0
 8000dea:	461a      	mov	r2, r3
 8000dec:	4b4a      	ldr	r3, [pc, #296]	; (8000f18 <main+0x1f4>)
 8000dee:	701a      	strb	r2, [r3, #0]
		  // TODO
//		  if(sysStatus == 0x00) {
//			  HAL_GPIO_WritePin(status_led.GPIOx, status_led.GPIO_Pin, GPIO_PIN_SET);	// Turn LED off
//		  }

		  tim7_overflow_flag = FLAG_RESET;
 8000df0:	4b43      	ldr	r3, [pc, #268]	; (8000f00 <main+0x1dc>)
 8000df2:	2200      	movs	r2, #0
 8000df4:	701a      	strb	r2, [r3, #0]
	  }

	  // Handle Timer 6 overflow flag
	  if(tim6_overflow_flag == FLAG_SET) {
 8000df6:	4b49      	ldr	r3, [pc, #292]	; (8000f1c <main+0x1f8>)
 8000df8:	781b      	ldrb	r3, [r3, #0]
 8000dfa:	2b01      	cmp	r3, #1
 8000dfc:	d10a      	bne.n	8000e14 <main+0xf0>
		  readAllSensors(i2c_accel, i2c_bme280, &hrtc);
 8000dfe:	4b43      	ldr	r3, [pc, #268]	; (8000f0c <main+0x1e8>)
 8000e00:	681b      	ldr	r3, [r3, #0]
 8000e02:	4a41      	ldr	r2, [pc, #260]	; (8000f08 <main+0x1e4>)
 8000e04:	6811      	ldr	r1, [r2, #0]
 8000e06:	4a38      	ldr	r2, [pc, #224]	; (8000ee8 <main+0x1c4>)
 8000e08:	4618      	mov	r0, r3
 8000e0a:	f001 f9fd 	bl	8002208 <readAllSensors>
		  tim6_overflow_flag = FLAG_RESET;
 8000e0e:	4b43      	ldr	r3, [pc, #268]	; (8000f1c <main+0x1f8>)
 8000e10:	2200      	movs	r2, #0
 8000e12:	701a      	strb	r2, [r3, #0]
	  }

	  // Write data to flash when buffer is full
	  if(byte_tracker > (PAGE_SIZE - READ_SIZE)) {
 8000e14:	4b42      	ldr	r3, [pc, #264]	; (8000f20 <main+0x1fc>)
 8000e16:	881b      	ldrh	r3, [r3, #0]
 8000e18:	2beb      	cmp	r3, #235	; 0xeb
 8000e1a:	d953      	bls.n	8000ec4 <main+0x1a0>
		  GPIO_PinState flight_mode = HAL_GPIO_ReadPin(jmp_flight.GPIOx, jmp_flight.GPIO_Pin);
 8000e1c:	4b41      	ldr	r3, [pc, #260]	; (8000f24 <main+0x200>)
 8000e1e:	681b      	ldr	r3, [r3, #0]
 8000e20:	4a40      	ldr	r2, [pc, #256]	; (8000f24 <main+0x200>)
 8000e22:	8892      	ldrh	r2, [r2, #4]
 8000e24:	b292      	uxth	r2, r2
 8000e26:	4611      	mov	r1, r2
 8000e28:	4618      	mov	r0, r3
 8000e2a:	f003 fe31 	bl	8004a90 <HAL_GPIO_ReadPin>
 8000e2e:	4603      	mov	r3, r0
 8000e30:	71fb      	strb	r3, [r7, #7]
		  if((flight_mode & !(end_of_flash)) == FLAG_SET) {
 8000e32:	79fb      	ldrb	r3, [r7, #7]
 8000e34:	4a3c      	ldr	r2, [pc, #240]	; (8000f28 <main+0x204>)
 8000e36:	7812      	ldrb	r2, [r2, #0]
 8000e38:	2a00      	cmp	r2, #0
 8000e3a:	bf0c      	ite	eq
 8000e3c:	2201      	moveq	r2, #1
 8000e3e:	2200      	movne	r2, #0
 8000e40:	b2d2      	uxtb	r2, r2
 8000e42:	4013      	ands	r3, r2
 8000e44:	2b01      	cmp	r3, #1
 8000e46:	d133      	bne.n	8000eb0 <main+0x18c>
			  HAL_GPIO_WritePin(led_green.GPIOx, led_green.GPIO_Pin, GPIO_PIN_SET);		// Toggle LED when writing data
 8000e48:	4b2c      	ldr	r3, [pc, #176]	; (8000efc <main+0x1d8>)
 8000e4a:	681b      	ldr	r3, [r3, #0]
 8000e4c:	4a2b      	ldr	r2, [pc, #172]	; (8000efc <main+0x1d8>)
 8000e4e:	8891      	ldrh	r1, [r2, #4]
 8000e50:	2201      	movs	r2, #1
 8000e52:	4618      	mov	r0, r3
 8000e54:	f003 fe34 	bl	8004ac0 <HAL_GPIO_WritePin>

			  write_data_spi_dma(data_buffer_tx[buffer_tracker], &hspi1, next_blank_page, cs_spi1);
 8000e58:	4b34      	ldr	r3, [pc, #208]	; (8000f2c <main+0x208>)
 8000e5a:	781b      	ldrb	r3, [r3, #0]
 8000e5c:	021b      	lsls	r3, r3, #8
 8000e5e:	4a34      	ldr	r2, [pc, #208]	; (8000f30 <main+0x20c>)
 8000e60:	1898      	adds	r0, r3, r2
 8000e62:	4b34      	ldr	r3, [pc, #208]	; (8000f34 <main+0x210>)
 8000e64:	6819      	ldr	r1, [r3, #0]
 8000e66:	4b34      	ldr	r3, [pc, #208]	; (8000f38 <main+0x214>)
 8000e68:	685a      	ldr	r2, [r3, #4]
 8000e6a:	9200      	str	r2, [sp, #0]
 8000e6c:	681b      	ldr	r3, [r3, #0]
 8000e6e:	460a      	mov	r2, r1
 8000e70:	4928      	ldr	r1, [pc, #160]	; (8000f14 <main+0x1f0>)
 8000e72:	f7ff fdaf 	bl	80009d4 <write_data_spi_dma>
			  write_data_spi_dma(data_buffer_tx[buffer_tracker], &hspi2, next_blank_page, cs_spi2);
 8000e76:	4b2d      	ldr	r3, [pc, #180]	; (8000f2c <main+0x208>)
 8000e78:	781b      	ldrb	r3, [r3, #0]
 8000e7a:	021b      	lsls	r3, r3, #8
 8000e7c:	4a2c      	ldr	r2, [pc, #176]	; (8000f30 <main+0x20c>)
 8000e7e:	1898      	adds	r0, r3, r2
 8000e80:	4b2c      	ldr	r3, [pc, #176]	; (8000f34 <main+0x210>)
 8000e82:	6819      	ldr	r1, [r3, #0]
 8000e84:	4b2d      	ldr	r3, [pc, #180]	; (8000f3c <main+0x218>)
 8000e86:	685a      	ldr	r2, [r3, #4]
 8000e88:	9200      	str	r2, [sp, #0]
 8000e8a:	681b      	ldr	r3, [r3, #0]
 8000e8c:	460a      	mov	r2, r1
 8000e8e:	4920      	ldr	r1, [pc, #128]	; (8000f10 <main+0x1ec>)
 8000e90:	f7ff fda0 	bl	80009d4 <write_data_spi_dma>
			  next_blank_page += PAGE_SIZE;
 8000e94:	4b27      	ldr	r3, [pc, #156]	; (8000f34 <main+0x210>)
 8000e96:	681b      	ldr	r3, [r3, #0]
 8000e98:	f503 7380 	add.w	r3, r3, #256	; 0x100
 8000e9c:	4a25      	ldr	r2, [pc, #148]	; (8000f34 <main+0x210>)
 8000e9e:	6013      	str	r3, [r2, #0]

			  HAL_GPIO_WritePin(led_green.GPIOx, led_green.GPIO_Pin, GPIO_PIN_RESET);		// Toggle LED when writing data
 8000ea0:	4b16      	ldr	r3, [pc, #88]	; (8000efc <main+0x1d8>)
 8000ea2:	681b      	ldr	r3, [r3, #0]
 8000ea4:	4a15      	ldr	r2, [pc, #84]	; (8000efc <main+0x1d8>)
 8000ea6:	8891      	ldrh	r1, [r2, #4]
 8000ea8:	2200      	movs	r2, #0
 8000eaa:	4618      	mov	r0, r3
 8000eac:	f003 fe08 	bl	8004ac0 <HAL_GPIO_WritePin>
		  }

		// Reset the buffer trackers
		buffer_tracker = buffer_tracker ^ 0x01;
 8000eb0:	4b1e      	ldr	r3, [pc, #120]	; (8000f2c <main+0x208>)
 8000eb2:	781b      	ldrb	r3, [r3, #0]
 8000eb4:	f083 0301 	eor.w	r3, r3, #1
 8000eb8:	b2da      	uxtb	r2, r3
 8000eba:	4b1c      	ldr	r3, [pc, #112]	; (8000f2c <main+0x208>)
 8000ebc:	701a      	strb	r2, [r3, #0]
		byte_tracker = 0;
 8000ebe:	4b18      	ldr	r3, [pc, #96]	; (8000f20 <main+0x1fc>)
 8000ec0:	2200      	movs	r2, #0
 8000ec2:	801a      	strh	r2, [r3, #0]
	  }

	  if(next_blank_page == (NUM_OF_PAGES*PAGE_SIZE)) {
 8000ec4:	4b1b      	ldr	r3, [pc, #108]	; (8000f34 <main+0x210>)
 8000ec6:	681b      	ldr	r3, [r3, #0]
 8000ec8:	f1b3 7f80 	cmp.w	r3, #16777216	; 0x1000000
 8000ecc:	f47f af49 	bne.w	8000d62 <main+0x3e>
		  // TODO - Error Handle if SPI1 not found
		  next_blank_page = find_next_blank_page(&hspi1, &end_of_flash, cs_spi1);
 8000ed0:	4b19      	ldr	r3, [pc, #100]	; (8000f38 <main+0x214>)
 8000ed2:	cb0c      	ldmia	r3, {r2, r3}
 8000ed4:	4914      	ldr	r1, [pc, #80]	; (8000f28 <main+0x204>)
 8000ed6:	480f      	ldr	r0, [pc, #60]	; (8000f14 <main+0x1f0>)
 8000ed8:	f7ff fdaa 	bl	8000a30 <find_next_blank_page>
 8000edc:	4603      	mov	r3, r0
 8000ede:	4a15      	ldr	r2, [pc, #84]	; (8000f34 <main+0x210>)
 8000ee0:	6013      	str	r3, [r2, #0]
	  if(rtc_reset == FLAG_SET) {
 8000ee2:	e73e      	b.n	8000d62 <main+0x3e>
 8000ee4:	2000061c 	.word	0x2000061c
 8000ee8:	20000118 	.word	0x20000118
 8000eec:	2000038a 	.word	0x2000038a
 8000ef0:	200003b4 	.word	0x200003b4
 8000ef4:	200003b5 	.word	0x200003b5
 8000ef8:	2000061e 	.word	0x2000061e
 8000efc:	200005e4 	.word	0x200005e4
 8000f00:	200003b7 	.word	0x200003b7
 8000f04:	200005dc 	.word	0x200005dc
 8000f08:	20000384 	.word	0x20000384
 8000f0c:	20000380 	.word	0x20000380
 8000f10:	20000190 	.word	0x20000190
 8000f14:	20000138 	.word	0x20000138
 8000f18:	2000061d 	.word	0x2000061d
 8000f1c:	200003b6 	.word	0x200003b6
 8000f20:	200005d8 	.word	0x200005d8
 8000f24:	20000614 	.word	0x20000614
 8000f28:	200005da 	.word	0x200005da
 8000f2c:	200005b8 	.word	0x200005b8
 8000f30:	200003b8 	.word	0x200003b8
 8000f34:	200005d4 	.word	0x200005d4
 8000f38:	200005f4 	.word	0x200005f4
 8000f3c:	20000604 	.word	0x20000604

08000f40 <SystemClock_Config>:
/**
  * @brief System Clock Configuration
  * @retval None
  */
void SystemClock_Config(void)
{
 8000f40:	b580      	push	{r7, lr}
 8000f42:	b094      	sub	sp, #80	; 0x50
 8000f44:	af00      	add	r7, sp, #0
  RCC_OscInitTypeDef RCC_OscInitStruct = {0};
 8000f46:	f107 0320 	add.w	r3, r7, #32
 8000f4a:	2230      	movs	r2, #48	; 0x30
 8000f4c:	2100      	movs	r1, #0
 8000f4e:	4618      	mov	r0, r3
 8000f50:	f008 fa56 	bl	8009400 <memset>
  RCC_ClkInitTypeDef RCC_ClkInitStruct = {0};
 8000f54:	f107 030c 	add.w	r3, r7, #12
 8000f58:	2200      	movs	r2, #0
 8000f5a:	601a      	str	r2, [r3, #0]
 8000f5c:	605a      	str	r2, [r3, #4]
 8000f5e:	609a      	str	r2, [r3, #8]
 8000f60:	60da      	str	r2, [r3, #12]
 8000f62:	611a      	str	r2, [r3, #16]

  /** Configure the main internal regulator output voltage
  */
  __HAL_RCC_PWR_CLK_ENABLE();
 8000f64:	2300      	movs	r3, #0
 8000f66:	60bb      	str	r3, [r7, #8]
 8000f68:	4b29      	ldr	r3, [pc, #164]	; (8001010 <SystemClock_Config+0xd0>)
 8000f6a:	6c1b      	ldr	r3, [r3, #64]	; 0x40
 8000f6c:	4a28      	ldr	r2, [pc, #160]	; (8001010 <SystemClock_Config+0xd0>)
 8000f6e:	f043 5380 	orr.w	r3, r3, #268435456	; 0x10000000
 8000f72:	6413      	str	r3, [r2, #64]	; 0x40
 8000f74:	4b26      	ldr	r3, [pc, #152]	; (8001010 <SystemClock_Config+0xd0>)
 8000f76:	6c1b      	ldr	r3, [r3, #64]	; 0x40
 8000f78:	f003 5380 	and.w	r3, r3, #268435456	; 0x10000000
 8000f7c:	60bb      	str	r3, [r7, #8]
 8000f7e:	68bb      	ldr	r3, [r7, #8]
  __HAL_PWR_VOLTAGESCALING_CONFIG(PWR_REGULATOR_VOLTAGE_SCALE1);
 8000f80:	2300      	movs	r3, #0
 8000f82:	607b      	str	r3, [r7, #4]
 8000f84:	4b23      	ldr	r3, [pc, #140]	; (8001014 <SystemClock_Config+0xd4>)
 8000f86:	681b      	ldr	r3, [r3, #0]
 8000f88:	4a22      	ldr	r2, [pc, #136]	; (8001014 <SystemClock_Config+0xd4>)
 8000f8a:	f443 4340 	orr.w	r3, r3, #49152	; 0xc000
 8000f8e:	6013      	str	r3, [r2, #0]
 8000f90:	4b20      	ldr	r3, [pc, #128]	; (8001014 <SystemClock_Config+0xd4>)
 8000f92:	681b      	ldr	r3, [r3, #0]
 8000f94:	f403 4340 	and.w	r3, r3, #49152	; 0xc000
 8000f98:	607b      	str	r3, [r7, #4]
 8000f9a:	687b      	ldr	r3, [r7, #4]

  /** Initializes the RCC Oscillators according to the specified parameters
  * in the RCC_OscInitTypeDef structure.
  */
  RCC_OscInitStruct.OscillatorType = RCC_OSCILLATORTYPE_LSI|RCC_OSCILLATORTYPE_HSE;
 8000f9c:	2309      	movs	r3, #9
 8000f9e:	623b      	str	r3, [r7, #32]
  RCC_OscInitStruct.HSEState = RCC_HSE_ON;
 8000fa0:	f44f 3380 	mov.w	r3, #65536	; 0x10000
 8000fa4:	627b      	str	r3, [r7, #36]	; 0x24
  RCC_OscInitStruct.LSIState = RCC_LSI_ON;
 8000fa6:	2301      	movs	r3, #1
 8000fa8:	637b      	str	r3, [r7, #52]	; 0x34
  RCC_OscInitStruct.PLL.PLLState = RCC_PLL_ON;
 8000faa:	2302      	movs	r3, #2
 8000fac:	63bb      	str	r3, [r7, #56]	; 0x38
  RCC_OscInitStruct.PLL.PLLSource = RCC_PLLSOURCE_HSE;
 8000fae:	f44f 0380 	mov.w	r3, #4194304	; 0x400000
 8000fb2:	63fb      	str	r3, [r7, #60]	; 0x3c
  RCC_OscInitStruct.PLL.PLLM = 25;
 8000fb4:	2319      	movs	r3, #25
 8000fb6:	643b      	str	r3, [r7, #64]	; 0x40
  RCC_OscInitStruct.PLL.PLLN = 336;
 8000fb8:	f44f 73a8 	mov.w	r3, #336	; 0x150
 8000fbc:	647b      	str	r3, [r7, #68]	; 0x44
  RCC_OscInitStruct.PLL.PLLP = RCC_PLLP_DIV2;
 8000fbe:	2302      	movs	r3, #2
 8000fc0:	64bb      	str	r3, [r7, #72]	; 0x48
  RCC_OscInitStruct.PLL.PLLQ = 4;
 8000fc2:	2304      	movs	r3, #4
 8000fc4:	64fb      	str	r3, [r7, #76]	; 0x4c
  if (HAL_RCC_OscConfig(&RCC_OscInitStruct) != HAL_OK)
 8000fc6:	f107 0320 	add.w	r3, r7, #32
 8000fca:	4618      	mov	r0, r3
 8000fcc:	f004 fe62 	bl	8005c94 <HAL_RCC_OscConfig>
 8000fd0:	4603      	mov	r3, r0
 8000fd2:	2b00      	cmp	r3, #0
 8000fd4:	d001      	beq.n	8000fda <SystemClock_Config+0x9a>
  {
    Error_Handler();
 8000fd6:	f000 feab 	bl	8001d30 <Error_Handler>
  }

  /** Initializes the CPU, AHB and APB buses clocks
  */
  RCC_ClkInitStruct.ClockType = RCC_CLOCKTYPE_HCLK|RCC_CLOCKTYPE_SYSCLK
 8000fda:	230f      	movs	r3, #15
 8000fdc:	60fb      	str	r3, [r7, #12]
                              |RCC_CLOCKTYPE_PCLK1|RCC_CLOCKTYPE_PCLK2;
  RCC_ClkInitStruct.SYSCLKSource = RCC_SYSCLKSOURCE_PLLCLK;
 8000fde:	2302      	movs	r3, #2
 8000fe0:	613b      	str	r3, [r7, #16]
  RCC_ClkInitStruct.AHBCLKDivider = RCC_SYSCLK_DIV1;
 8000fe2:	2300      	movs	r3, #0
 8000fe4:	617b      	str	r3, [r7, #20]
  RCC_ClkInitStruct.APB1CLKDivider = RCC_HCLK_DIV4;
 8000fe6:	f44f 53a0 	mov.w	r3, #5120	; 0x1400
 8000fea:	61bb      	str	r3, [r7, #24]
  RCC_ClkInitStruct.APB2CLKDivider = RCC_HCLK_DIV2;
 8000fec:	f44f 5380 	mov.w	r3, #4096	; 0x1000
 8000ff0:	61fb      	str	r3, [r7, #28]

  if (HAL_RCC_ClockConfig(&RCC_ClkInitStruct, FLASH_LATENCY_5) != HAL_OK)
 8000ff2:	f107 030c 	add.w	r3, r7, #12
 8000ff6:	2105      	movs	r1, #5
 8000ff8:	4618      	mov	r0, r3
 8000ffa:	f005 f8c3 	bl	8006184 <HAL_RCC_ClockConfig>
 8000ffe:	4603      	mov	r3, r0
 8001000:	2b00      	cmp	r3, #0
 8001002:	d001      	beq.n	8001008 <SystemClock_Config+0xc8>
  {
    Error_Handler();
 8001004:	f000 fe94 	bl	8001d30 <Error_Handler>
  }
}
 8001008:	bf00      	nop
 800100a:	3750      	adds	r7, #80	; 0x50
 800100c:	46bd      	mov	sp, r7
 800100e:	bd80      	pop	{r7, pc}
 8001010:	40023800 	.word	0x40023800
 8001014:	40007000 	.word	0x40007000

08001018 <MX_CAN2_Init>:
  * @brief CAN2 Initialization Function
  * @param None
  * @retval None
  */
static void MX_CAN2_Init(void)
{
 8001018:	b580      	push	{r7, lr}
 800101a:	af00      	add	r7, sp, #0
  /* USER CODE END CAN2_Init 0 */

  /* USER CODE BEGIN CAN2_Init 1 */

  /* USER CODE END CAN2_Init 1 */
  hcan2.Instance = CAN2;
 800101c:	4b18      	ldr	r3, [pc, #96]	; (8001080 <MX_CAN2_Init+0x68>)
 800101e:	4a19      	ldr	r2, [pc, #100]	; (8001084 <MX_CAN2_Init+0x6c>)
 8001020:	601a      	str	r2, [r3, #0]
  hcan2.Init.Prescaler = 24;
 8001022:	4b17      	ldr	r3, [pc, #92]	; (8001080 <MX_CAN2_Init+0x68>)
 8001024:	2218      	movs	r2, #24
 8001026:	605a      	str	r2, [r3, #4]
  hcan2.Init.Mode = CAN_MODE_NORMAL;
 8001028:	4b15      	ldr	r3, [pc, #84]	; (8001080 <MX_CAN2_Init+0x68>)
 800102a:	2200      	movs	r2, #0
 800102c:	609a      	str	r2, [r3, #8]
  hcan2.Init.SyncJumpWidth = CAN_SJW_2TQ;
 800102e:	4b14      	ldr	r3, [pc, #80]	; (8001080 <MX_CAN2_Init+0x68>)
 8001030:	f04f 7280 	mov.w	r2, #16777216	; 0x1000000
 8001034:	60da      	str	r2, [r3, #12]
  hcan2.Init.TimeSeg1 = CAN_BS1_11TQ;
 8001036:	4b12      	ldr	r3, [pc, #72]	; (8001080 <MX_CAN2_Init+0x68>)
 8001038:	f44f 2220 	mov.w	r2, #655360	; 0xa0000
 800103c:	611a      	str	r2, [r3, #16]
  hcan2.Init.TimeSeg2 = CAN_BS2_2TQ;
 800103e:	4b10      	ldr	r3, [pc, #64]	; (8001080 <MX_CAN2_Init+0x68>)
 8001040:	f44f 1280 	mov.w	r2, #1048576	; 0x100000
 8001044:	615a      	str	r2, [r3, #20]
  hcan2.Init.TimeTriggeredMode = DISABLE;
 8001046:	4b0e      	ldr	r3, [pc, #56]	; (8001080 <MX_CAN2_Init+0x68>)
 8001048:	2200      	movs	r2, #0
 800104a:	761a      	strb	r2, [r3, #24]
  hcan2.Init.AutoBusOff = DISABLE;
 800104c:	4b0c      	ldr	r3, [pc, #48]	; (8001080 <MX_CAN2_Init+0x68>)
 800104e:	2200      	movs	r2, #0
 8001050:	765a      	strb	r2, [r3, #25]
  hcan2.Init.AutoWakeUp = DISABLE;
 8001052:	4b0b      	ldr	r3, [pc, #44]	; (8001080 <MX_CAN2_Init+0x68>)
 8001054:	2200      	movs	r2, #0
 8001056:	769a      	strb	r2, [r3, #26]
  hcan2.Init.AutoRetransmission = DISABLE;
 8001058:	4b09      	ldr	r3, [pc, #36]	; (8001080 <MX_CAN2_Init+0x68>)
 800105a:	2200      	movs	r2, #0
 800105c:	76da      	strb	r2, [r3, #27]
  hcan2.Init.ReceiveFifoLocked = DISABLE;
 800105e:	4b08      	ldr	r3, [pc, #32]	; (8001080 <MX_CAN2_Init+0x68>)
 8001060:	2200      	movs	r2, #0
 8001062:	771a      	strb	r2, [r3, #28]
  hcan2.Init.TransmitFifoPriority = DISABLE;
 8001064:	4b06      	ldr	r3, [pc, #24]	; (8001080 <MX_CAN2_Init+0x68>)
 8001066:	2200      	movs	r2, #0
 8001068:	775a      	strb	r2, [r3, #29]
  if (HAL_CAN_Init(&hcan2) != HAL_OK)
 800106a:	4805      	ldr	r0, [pc, #20]	; (8001080 <MX_CAN2_Init+0x68>)
 800106c:	f001 ffe8 	bl	8003040 <HAL_CAN_Init>
 8001070:	4603      	mov	r3, r0
 8001072:	2b00      	cmp	r3, #0
 8001074:	d001      	beq.n	800107a <MX_CAN2_Init+0x62>
  {
    Error_Handler();
 8001076:	f000 fe5b 	bl	8001d30 <Error_Handler>
  }
  /* USER CODE BEGIN CAN2_Init 2 */

  /* USER CODE END CAN2_Init 2 */

}
 800107a:	bf00      	nop
 800107c:	bd80      	pop	{r7, pc}
 800107e:	bf00      	nop
 8001080:	20000048 	.word	0x20000048
 8001084:	40006800 	.word	0x40006800

08001088 <MX_I2C1_Init>:
  * @brief I2C1 Initialization Function
  * @param None
  * @retval None
  */
static void MX_I2C1_Init(void)
{
 8001088:	b580      	push	{r7, lr}
 800108a:	af00      	add	r7, sp, #0
  /* USER CODE END I2C1_Init 0 */

  /* USER CODE BEGIN I2C1_Init 1 */

  /* USER CODE END I2C1_Init 1 */
  hi2c1.Instance = I2C1;
 800108c:	4b1b      	ldr	r3, [pc, #108]	; (80010fc <MX_I2C1_Init+0x74>)
 800108e:	4a1c      	ldr	r2, [pc, #112]	; (8001100 <MX_I2C1_Init+0x78>)
 8001090:	601a      	str	r2, [r3, #0]
  hi2c1.Init.ClockSpeed = 100000;
 8001092:	4b1a      	ldr	r3, [pc, #104]	; (80010fc <MX_I2C1_Init+0x74>)
 8001094:	4a1b      	ldr	r2, [pc, #108]	; (8001104 <MX_I2C1_Init+0x7c>)
 8001096:	605a      	str	r2, [r3, #4]
  hi2c1.Init.DutyCycle = I2C_DUTYCYCLE_2;
 8001098:	4b18      	ldr	r3, [pc, #96]	; (80010fc <MX_I2C1_Init+0x74>)
 800109a:	2200      	movs	r2, #0
 800109c:	609a      	str	r2, [r3, #8]
  hi2c1.Init.OwnAddress1 = 0;
 800109e:	4b17      	ldr	r3, [pc, #92]	; (80010fc <MX_I2C1_Init+0x74>)
 80010a0:	2200      	movs	r2, #0
 80010a2:	60da      	str	r2, [r3, #12]
  hi2c1.Init.AddressingMode = I2C_ADDRESSINGMODE_7BIT;
 80010a4:	4b15      	ldr	r3, [pc, #84]	; (80010fc <MX_I2C1_Init+0x74>)
 80010a6:	f44f 4280 	mov.w	r2, #16384	; 0x4000
 80010aa:	611a      	str	r2, [r3, #16]
  hi2c1.Init.DualAddressMode = I2C_DUALADDRESS_DISABLE;
 80010ac:	4b13      	ldr	r3, [pc, #76]	; (80010fc <MX_I2C1_Init+0x74>)
 80010ae:	2200      	movs	r2, #0
 80010b0:	615a      	str	r2, [r3, #20]
  hi2c1.Init.OwnAddress2 = 0;
 80010b2:	4b12      	ldr	r3, [pc, #72]	; (80010fc <MX_I2C1_Init+0x74>)
 80010b4:	2200      	movs	r2, #0
 80010b6:	619a      	str	r2, [r3, #24]
  hi2c1.Init.GeneralCallMode = I2C_GENERALCALL_DISABLE;
 80010b8:	4b10      	ldr	r3, [pc, #64]	; (80010fc <MX_I2C1_Init+0x74>)
 80010ba:	2200      	movs	r2, #0
 80010bc:	61da      	str	r2, [r3, #28]
  hi2c1.Init.NoStretchMode = I2C_NOSTRETCH_DISABLE;
 80010be:	4b0f      	ldr	r3, [pc, #60]	; (80010fc <MX_I2C1_Init+0x74>)
 80010c0:	2200      	movs	r2, #0
 80010c2:	621a      	str	r2, [r3, #32]
  if (HAL_I2C_Init(&hi2c1) != HAL_OK)
 80010c4:	480d      	ldr	r0, [pc, #52]	; (80010fc <MX_I2C1_Init+0x74>)
 80010c6:	f003 fd47 	bl	8004b58 <HAL_I2C_Init>
 80010ca:	4603      	mov	r3, r0
 80010cc:	2b00      	cmp	r3, #0
 80010ce:	d001      	beq.n	80010d4 <MX_I2C1_Init+0x4c>
  {
    Error_Handler();
 80010d0:	f000 fe2e 	bl	8001d30 <Error_Handler>
  }

  /** Configure Analogue filter
  */
  if (HAL_I2CEx_ConfigAnalogFilter(&hi2c1, I2C_ANALOGFILTER_ENABLE) != HAL_OK)
 80010d4:	2100      	movs	r1, #0
 80010d6:	4809      	ldr	r0, [pc, #36]	; (80010fc <MX_I2C1_Init+0x74>)
 80010d8:	f004 fd38 	bl	8005b4c <HAL_I2CEx_ConfigAnalogFilter>
 80010dc:	4603      	mov	r3, r0
 80010de:	2b00      	cmp	r3, #0
 80010e0:	d001      	beq.n	80010e6 <MX_I2C1_Init+0x5e>
  {
    Error_Handler();
 80010e2:	f000 fe25 	bl	8001d30 <Error_Handler>
  }

  /** Configure Digital filter
  */
  if (HAL_I2CEx_ConfigDigitalFilter(&hi2c1, 0) != HAL_OK)
 80010e6:	2100      	movs	r1, #0
 80010e8:	4804      	ldr	r0, [pc, #16]	; (80010fc <MX_I2C1_Init+0x74>)
 80010ea:	f004 fd6b 	bl	8005bc4 <HAL_I2CEx_ConfigDigitalFilter>
 80010ee:	4603      	mov	r3, r0
 80010f0:	2b00      	cmp	r3, #0
 80010f2:	d001      	beq.n	80010f8 <MX_I2C1_Init+0x70>
  {
    Error_Handler();
 80010f4:	f000 fe1c 	bl	8001d30 <Error_Handler>
  }
  /* USER CODE BEGIN I2C1_Init 2 */

  /* USER CODE END I2C1_Init 2 */

}
 80010f8:	bf00      	nop
 80010fa:	bd80      	pop	{r7, pc}
 80010fc:	20000070 	.word	0x20000070
 8001100:	40005400 	.word	0x40005400
 8001104:	000186a0 	.word	0x000186a0

08001108 <MX_I2C2_Init>:
  * @brief I2C2 Initialization Function
  * @param None
  * @retval None
  */
static void MX_I2C2_Init(void)
{
 8001108:	b580      	push	{r7, lr}
 800110a:	af00      	add	r7, sp, #0
  /* USER CODE END I2C2_Init 0 */

  /* USER CODE BEGIN I2C2_Init 1 */

  /* USER CODE END I2C2_Init 1 */
  hi2c2.Instance = I2C2;
 800110c:	4b1b      	ldr	r3, [pc, #108]	; (800117c <MX_I2C2_Init+0x74>)
 800110e:	4a1c      	ldr	r2, [pc, #112]	; (8001180 <MX_I2C2_Init+0x78>)
 8001110:	601a      	str	r2, [r3, #0]
  hi2c2.Init.ClockSpeed = 100000;
 8001112:	4b1a      	ldr	r3, [pc, #104]	; (800117c <MX_I2C2_Init+0x74>)
 8001114:	4a1b      	ldr	r2, [pc, #108]	; (8001184 <MX_I2C2_Init+0x7c>)
 8001116:	605a      	str	r2, [r3, #4]
  hi2c2.Init.DutyCycle = I2C_DUTYCYCLE_2;
 8001118:	4b18      	ldr	r3, [pc, #96]	; (800117c <MX_I2C2_Init+0x74>)
 800111a:	2200      	movs	r2, #0
 800111c:	609a      	str	r2, [r3, #8]
  hi2c2.Init.OwnAddress1 = 0;
 800111e:	4b17      	ldr	r3, [pc, #92]	; (800117c <MX_I2C2_Init+0x74>)
 8001120:	2200      	movs	r2, #0
 8001122:	60da      	str	r2, [r3, #12]
  hi2c2.Init.AddressingMode = I2C_ADDRESSINGMODE_7BIT;
 8001124:	4b15      	ldr	r3, [pc, #84]	; (800117c <MX_I2C2_Init+0x74>)
 8001126:	f44f 4280 	mov.w	r2, #16384	; 0x4000
 800112a:	611a      	str	r2, [r3, #16]
  hi2c2.Init.DualAddressMode = I2C_DUALADDRESS_DISABLE;
 800112c:	4b13      	ldr	r3, [pc, #76]	; (800117c <MX_I2C2_Init+0x74>)
 800112e:	2200      	movs	r2, #0
 8001130:	615a      	str	r2, [r3, #20]
  hi2c2.Init.OwnAddress2 = 0;
 8001132:	4b12      	ldr	r3, [pc, #72]	; (800117c <MX_I2C2_Init+0x74>)
 8001134:	2200      	movs	r2, #0
 8001136:	619a      	str	r2, [r3, #24]
  hi2c2.Init.GeneralCallMode = I2C_GENERALCALL_DISABLE;
 8001138:	4b10      	ldr	r3, [pc, #64]	; (800117c <MX_I2C2_Init+0x74>)
 800113a:	2200      	movs	r2, #0
 800113c:	61da      	str	r2, [r3, #28]
  hi2c2.Init.NoStretchMode = I2C_NOSTRETCH_DISABLE;
 800113e:	4b0f      	ldr	r3, [pc, #60]	; (800117c <MX_I2C2_Init+0x74>)
 8001140:	2200      	movs	r2, #0
 8001142:	621a      	str	r2, [r3, #32]
  if (HAL_I2C_Init(&hi2c2) != HAL_OK)
 8001144:	480d      	ldr	r0, [pc, #52]	; (800117c <MX_I2C2_Init+0x74>)
 8001146:	f003 fd07 	bl	8004b58 <HAL_I2C_Init>
 800114a:	4603      	mov	r3, r0
 800114c:	2b00      	cmp	r3, #0
 800114e:	d001      	beq.n	8001154 <MX_I2C2_Init+0x4c>
  {
    Error_Handler();
 8001150:	f000 fdee 	bl	8001d30 <Error_Handler>
  }

  /** Configure Analogue filter
  */
  if (HAL_I2CEx_ConfigAnalogFilter(&hi2c2, I2C_ANALOGFILTER_ENABLE) != HAL_OK)
 8001154:	2100      	movs	r1, #0
 8001156:	4809      	ldr	r0, [pc, #36]	; (800117c <MX_I2C2_Init+0x74>)
 8001158:	f004 fcf8 	bl	8005b4c <HAL_I2CEx_ConfigAnalogFilter>
 800115c:	4603      	mov	r3, r0
 800115e:	2b00      	cmp	r3, #0
 8001160:	d001      	beq.n	8001166 <MX_I2C2_Init+0x5e>
  {
    Error_Handler();
 8001162:	f000 fde5 	bl	8001d30 <Error_Handler>
  }

  /** Configure Digital filter
  */
  if (HAL_I2CEx_ConfigDigitalFilter(&hi2c2, 0) != HAL_OK)
 8001166:	2100      	movs	r1, #0
 8001168:	4804      	ldr	r0, [pc, #16]	; (800117c <MX_I2C2_Init+0x74>)
 800116a:	f004 fd2b 	bl	8005bc4 <HAL_I2CEx_ConfigDigitalFilter>
 800116e:	4603      	mov	r3, r0
 8001170:	2b00      	cmp	r3, #0
 8001172:	d001      	beq.n	8001178 <MX_I2C2_Init+0x70>
  {
    Error_Handler();
 8001174:	f000 fddc 	bl	8001d30 <Error_Handler>
  }
  /* USER CODE BEGIN I2C2_Init 2 */

  /* USER CODE END I2C2_Init 2 */

}
 8001178:	bf00      	nop
 800117a:	bd80      	pop	{r7, pc}
 800117c:	200000c4 	.word	0x200000c4
 8001180:	40005800 	.word	0x40005800
 8001184:	000186a0 	.word	0x000186a0

08001188 <MX_RTC_Init>:
  * @brief RTC Initialization Function
  * @param None
  * @retval None
  */
static void MX_RTC_Init(void)
{
 8001188:	b580      	push	{r7, lr}
 800118a:	af00      	add	r7, sp, #0

  /* USER CODE END RTC_Init 1 */

  /** Initialize RTC Only
  */
  hrtc.Instance = RTC;
 800118c:	4b0f      	ldr	r3, [pc, #60]	; (80011cc <MX_RTC_Init+0x44>)
 800118e:	4a10      	ldr	r2, [pc, #64]	; (80011d0 <MX_RTC_Init+0x48>)
 8001190:	601a      	str	r2, [r3, #0]
  hrtc.Init.HourFormat = RTC_HOURFORMAT_24;
 8001192:	4b0e      	ldr	r3, [pc, #56]	; (80011cc <MX_RTC_Init+0x44>)
 8001194:	2200      	movs	r2, #0
 8001196:	605a      	str	r2, [r3, #4]
  hrtc.Init.AsynchPrediv = 127;
 8001198:	4b0c      	ldr	r3, [pc, #48]	; (80011cc <MX_RTC_Init+0x44>)
 800119a:	227f      	movs	r2, #127	; 0x7f
 800119c:	609a      	str	r2, [r3, #8]
  hrtc.Init.SynchPrediv = 255;
 800119e:	4b0b      	ldr	r3, [pc, #44]	; (80011cc <MX_RTC_Init+0x44>)
 80011a0:	22ff      	movs	r2, #255	; 0xff
 80011a2:	60da      	str	r2, [r3, #12]
  hrtc.Init.OutPut = RTC_OUTPUT_DISABLE;
 80011a4:	4b09      	ldr	r3, [pc, #36]	; (80011cc <MX_RTC_Init+0x44>)
 80011a6:	2200      	movs	r2, #0
 80011a8:	611a      	str	r2, [r3, #16]
  hrtc.Init.OutPutPolarity = RTC_OUTPUT_POLARITY_HIGH;
 80011aa:	4b08      	ldr	r3, [pc, #32]	; (80011cc <MX_RTC_Init+0x44>)
 80011ac:	2200      	movs	r2, #0
 80011ae:	615a      	str	r2, [r3, #20]
  hrtc.Init.OutPutType = RTC_OUTPUT_TYPE_OPENDRAIN;
 80011b0:	4b06      	ldr	r3, [pc, #24]	; (80011cc <MX_RTC_Init+0x44>)
 80011b2:	2200      	movs	r2, #0
 80011b4:	619a      	str	r2, [r3, #24]
  if (HAL_RTC_Init(&hrtc) != HAL_OK)
 80011b6:	4805      	ldr	r0, [pc, #20]	; (80011cc <MX_RTC_Init+0x44>)
 80011b8:	f005 fb84 	bl	80068c4 <HAL_RTC_Init>
 80011bc:	4603      	mov	r3, r0
 80011be:	2b00      	cmp	r3, #0
 80011c0:	d001      	beq.n	80011c6 <MX_RTC_Init+0x3e>
  {
    Error_Handler();
 80011c2:	f000 fdb5 	bl	8001d30 <Error_Handler>
  }
  /* USER CODE BEGIN RTC_Init 2 */

  /* USER CODE END RTC_Init 2 */

}
 80011c6:	bf00      	nop
 80011c8:	bd80      	pop	{r7, pc}
 80011ca:	bf00      	nop
 80011cc:	20000118 	.word	0x20000118
 80011d0:	40002800 	.word	0x40002800

080011d4 <MX_SPI1_Init>:
  * @brief SPI1 Initialization Function
  * @param None
  * @retval None
  */
static void MX_SPI1_Init(void)
{
 80011d4:	b580      	push	{r7, lr}
 80011d6:	af00      	add	r7, sp, #0

  /* USER CODE BEGIN SPI1_Init 1 */

  /* USER CODE END SPI1_Init 1 */
  /* SPI1 parameter configuration*/
  hspi1.Instance = SPI1;
 80011d8:	4b17      	ldr	r3, [pc, #92]	; (8001238 <MX_SPI1_Init+0x64>)
 80011da:	4a18      	ldr	r2, [pc, #96]	; (800123c <MX_SPI1_Init+0x68>)
 80011dc:	601a      	str	r2, [r3, #0]
  hspi1.Init.Mode = SPI_MODE_MASTER;
 80011de:	4b16      	ldr	r3, [pc, #88]	; (8001238 <MX_SPI1_Init+0x64>)
 80011e0:	f44f 7282 	mov.w	r2, #260	; 0x104
 80011e4:	605a      	str	r2, [r3, #4]
  hspi1.Init.Direction = SPI_DIRECTION_2LINES;
 80011e6:	4b14      	ldr	r3, [pc, #80]	; (8001238 <MX_SPI1_Init+0x64>)
 80011e8:	2200      	movs	r2, #0
 80011ea:	609a      	str	r2, [r3, #8]
  hspi1.Init.DataSize = SPI_DATASIZE_8BIT;
 80011ec:	4b12      	ldr	r3, [pc, #72]	; (8001238 <MX_SPI1_Init+0x64>)
 80011ee:	2200      	movs	r2, #0
 80011f0:	60da      	str	r2, [r3, #12]
  hspi1.Init.CLKPolarity = SPI_POLARITY_LOW;
 80011f2:	4b11      	ldr	r3, [pc, #68]	; (8001238 <MX_SPI1_Init+0x64>)
 80011f4:	2200      	movs	r2, #0
 80011f6:	611a      	str	r2, [r3, #16]
  hspi1.Init.CLKPhase = SPI_PHASE_1EDGE;
 80011f8:	4b0f      	ldr	r3, [pc, #60]	; (8001238 <MX_SPI1_Init+0x64>)
 80011fa:	2200      	movs	r2, #0
 80011fc:	615a      	str	r2, [r3, #20]
  hspi1.Init.NSS = SPI_NSS_SOFT;
 80011fe:	4b0e      	ldr	r3, [pc, #56]	; (8001238 <MX_SPI1_Init+0x64>)
 8001200:	f44f 7200 	mov.w	r2, #512	; 0x200
 8001204:	619a      	str	r2, [r3, #24]
  hspi1.Init.BaudRatePrescaler = SPI_BAUDRATEPRESCALER_2;
 8001206:	4b0c      	ldr	r3, [pc, #48]	; (8001238 <MX_SPI1_Init+0x64>)
 8001208:	2200      	movs	r2, #0
 800120a:	61da      	str	r2, [r3, #28]
  hspi1.Init.FirstBit = SPI_FIRSTBIT_MSB;
 800120c:	4b0a      	ldr	r3, [pc, #40]	; (8001238 <MX_SPI1_Init+0x64>)
 800120e:	2200      	movs	r2, #0
 8001210:	621a      	str	r2, [r3, #32]
  hspi1.Init.TIMode = SPI_TIMODE_DISABLE;
 8001212:	4b09      	ldr	r3, [pc, #36]	; (8001238 <MX_SPI1_Init+0x64>)
 8001214:	2200      	movs	r2, #0
 8001216:	625a      	str	r2, [r3, #36]	; 0x24
  hspi1.Init.CRCCalculation = SPI_CRCCALCULATION_DISABLE;
 8001218:	4b07      	ldr	r3, [pc, #28]	; (8001238 <MX_SPI1_Init+0x64>)
 800121a:	2200      	movs	r2, #0
 800121c:	629a      	str	r2, [r3, #40]	; 0x28
  hspi1.Init.CRCPolynomial = 10;
 800121e:	4b06      	ldr	r3, [pc, #24]	; (8001238 <MX_SPI1_Init+0x64>)
 8001220:	220a      	movs	r2, #10
 8001222:	62da      	str	r2, [r3, #44]	; 0x2c
  if (HAL_SPI_Init(&hspi1) != HAL_OK)
 8001224:	4804      	ldr	r0, [pc, #16]	; (8001238 <MX_SPI1_Init+0x64>)
 8001226:	f005 fe59 	bl	8006edc <HAL_SPI_Init>
 800122a:	4603      	mov	r3, r0
 800122c:	2b00      	cmp	r3, #0
 800122e:	d001      	beq.n	8001234 <MX_SPI1_Init+0x60>
  {
    Error_Handler();
 8001230:	f000 fd7e 	bl	8001d30 <Error_Handler>
  }
  /* USER CODE BEGIN SPI1_Init 2 */

  /* USER CODE END SPI1_Init 2 */

}
 8001234:	bf00      	nop
 8001236:	bd80      	pop	{r7, pc}
 8001238:	20000138 	.word	0x20000138
 800123c:	40013000 	.word	0x40013000

08001240 <MX_SPI2_Init>:
  * @brief SPI2 Initialization Function
  * @param None
  * @retval None
  */
static void MX_SPI2_Init(void)
{
 8001240:	b580      	push	{r7, lr}
 8001242:	af00      	add	r7, sp, #0

  /* USER CODE BEGIN SPI2_Init 1 */

  /* USER CODE END SPI2_Init 1 */
  /* SPI2 parameter configuration*/
  hspi2.Instance = SPI2;
 8001244:	4b17      	ldr	r3, [pc, #92]	; (80012a4 <MX_SPI2_Init+0x64>)
 8001246:	4a18      	ldr	r2, [pc, #96]	; (80012a8 <MX_SPI2_Init+0x68>)
 8001248:	601a      	str	r2, [r3, #0]
  hspi2.Init.Mode = SPI_MODE_MASTER;
 800124a:	4b16      	ldr	r3, [pc, #88]	; (80012a4 <MX_SPI2_Init+0x64>)
 800124c:	f44f 7282 	mov.w	r2, #260	; 0x104
 8001250:	605a      	str	r2, [r3, #4]
  hspi2.Init.Direction = SPI_DIRECTION_2LINES;
 8001252:	4b14      	ldr	r3, [pc, #80]	; (80012a4 <MX_SPI2_Init+0x64>)
 8001254:	2200      	movs	r2, #0
 8001256:	609a      	str	r2, [r3, #8]
  hspi2.Init.DataSize = SPI_DATASIZE_8BIT;
 8001258:	4b12      	ldr	r3, [pc, #72]	; (80012a4 <MX_SPI2_Init+0x64>)
 800125a:	2200      	movs	r2, #0
 800125c:	60da      	str	r2, [r3, #12]
  hspi2.Init.CLKPolarity = SPI_POLARITY_LOW;
 800125e:	4b11      	ldr	r3, [pc, #68]	; (80012a4 <MX_SPI2_Init+0x64>)
 8001260:	2200      	movs	r2, #0
 8001262:	611a      	str	r2, [r3, #16]
  hspi2.Init.CLKPhase = SPI_PHASE_1EDGE;
 8001264:	4b0f      	ldr	r3, [pc, #60]	; (80012a4 <MX_SPI2_Init+0x64>)
 8001266:	2200      	movs	r2, #0
 8001268:	615a      	str	r2, [r3, #20]
  hspi2.Init.NSS = SPI_NSS_SOFT;
 800126a:	4b0e      	ldr	r3, [pc, #56]	; (80012a4 <MX_SPI2_Init+0x64>)
 800126c:	f44f 7200 	mov.w	r2, #512	; 0x200
 8001270:	619a      	str	r2, [r3, #24]
  hspi2.Init.BaudRatePrescaler = SPI_BAUDRATEPRESCALER_2;
 8001272:	4b0c      	ldr	r3, [pc, #48]	; (80012a4 <MX_SPI2_Init+0x64>)
 8001274:	2200      	movs	r2, #0
 8001276:	61da      	str	r2, [r3, #28]
  hspi2.Init.FirstBit = SPI_FIRSTBIT_MSB;
 8001278:	4b0a      	ldr	r3, [pc, #40]	; (80012a4 <MX_SPI2_Init+0x64>)
 800127a:	2200      	movs	r2, #0
 800127c:	621a      	str	r2, [r3, #32]
  hspi2.Init.TIMode = SPI_TIMODE_DISABLE;
 800127e:	4b09      	ldr	r3, [pc, #36]	; (80012a4 <MX_SPI2_Init+0x64>)
 8001280:	2200      	movs	r2, #0
 8001282:	625a      	str	r2, [r3, #36]	; 0x24
  hspi2.Init.CRCCalculation = SPI_CRCCALCULATION_DISABLE;
 8001284:	4b07      	ldr	r3, [pc, #28]	; (80012a4 <MX_SPI2_Init+0x64>)
 8001286:	2200      	movs	r2, #0
 8001288:	629a      	str	r2, [r3, #40]	; 0x28
  hspi2.Init.CRCPolynomial = 10;
 800128a:	4b06      	ldr	r3, [pc, #24]	; (80012a4 <MX_SPI2_Init+0x64>)
 800128c:	220a      	movs	r2, #10
 800128e:	62da      	str	r2, [r3, #44]	; 0x2c
  if (HAL_SPI_Init(&hspi2) != HAL_OK)
 8001290:	4804      	ldr	r0, [pc, #16]	; (80012a4 <MX_SPI2_Init+0x64>)
 8001292:	f005 fe23 	bl	8006edc <HAL_SPI_Init>
 8001296:	4603      	mov	r3, r0
 8001298:	2b00      	cmp	r3, #0
 800129a:	d001      	beq.n	80012a0 <MX_SPI2_Init+0x60>
  {
    Error_Handler();
 800129c:	f000 fd48 	bl	8001d30 <Error_Handler>
  }
  /* USER CODE BEGIN SPI2_Init 2 */

  /* USER CODE END SPI2_Init 2 */

}
 80012a0:	bf00      	nop
 80012a2:	bd80      	pop	{r7, pc}
 80012a4:	20000190 	.word	0x20000190
 80012a8:	40003800 	.word	0x40003800

080012ac <MX_TIM6_Init>:
  * @brief TIM6 Initialization Function
  * @param None
  * @retval None
  */
static void MX_TIM6_Init(void)
{
 80012ac:	b580      	push	{r7, lr}
 80012ae:	b082      	sub	sp, #8
 80012b0:	af00      	add	r7, sp, #0

  /* USER CODE BEGIN TIM6_Init 0 */

  /* USER CODE END TIM6_Init 0 */

  TIM_MasterConfigTypeDef sMasterConfig = {0};
 80012b2:	463b      	mov	r3, r7
 80012b4:	2200      	movs	r2, #0
 80012b6:	601a      	str	r2, [r3, #0]
 80012b8:	605a      	str	r2, [r3, #4]

  /* USER CODE BEGIN TIM6_Init 1 */

  /* USER CODE END TIM6_Init 1 */
  htim6.Instance = TIM6;
 80012ba:	4b15      	ldr	r3, [pc, #84]	; (8001310 <MX_TIM6_Init+0x64>)
 80012bc:	4a15      	ldr	r2, [pc, #84]	; (8001314 <MX_TIM6_Init+0x68>)
 80012be:	601a      	str	r2, [r3, #0]
  htim6.Init.Prescaler = 20999;
 80012c0:	4b13      	ldr	r3, [pc, #76]	; (8001310 <MX_TIM6_Init+0x64>)
 80012c2:	f245 2207 	movw	r2, #20999	; 0x5207
 80012c6:	605a      	str	r2, [r3, #4]
  htim6.Init.CounterMode = TIM_COUNTERMODE_UP;
 80012c8:	4b11      	ldr	r3, [pc, #68]	; (8001310 <MX_TIM6_Init+0x64>)
 80012ca:	2200      	movs	r2, #0
 80012cc:	609a      	str	r2, [r3, #8]
  htim6.Init.Period = 80;
 80012ce:	4b10      	ldr	r3, [pc, #64]	; (8001310 <MX_TIM6_Init+0x64>)
 80012d0:	2250      	movs	r2, #80	; 0x50
 80012d2:	60da      	str	r2, [r3, #12]
  htim6.Init.AutoReloadPreload = TIM_AUTORELOAD_PRELOAD_DISABLE;
 80012d4:	4b0e      	ldr	r3, [pc, #56]	; (8001310 <MX_TIM6_Init+0x64>)
 80012d6:	2200      	movs	r2, #0
 80012d8:	619a      	str	r2, [r3, #24]
  if (HAL_TIM_Base_Init(&htim6) != HAL_OK)
 80012da:	480d      	ldr	r0, [pc, #52]	; (8001310 <MX_TIM6_Init+0x64>)
 80012dc:	f006 fd1c 	bl	8007d18 <HAL_TIM_Base_Init>
 80012e0:	4603      	mov	r3, r0
 80012e2:	2b00      	cmp	r3, #0
 80012e4:	d001      	beq.n	80012ea <MX_TIM6_Init+0x3e>
  {
    Error_Handler();
 80012e6:	f000 fd23 	bl	8001d30 <Error_Handler>
  }
  sMasterConfig.MasterOutputTrigger = TIM_TRGO_RESET;
 80012ea:	2300      	movs	r3, #0
 80012ec:	603b      	str	r3, [r7, #0]
  sMasterConfig.MasterSlaveMode = TIM_MASTERSLAVEMODE_DISABLE;
 80012ee:	2300      	movs	r3, #0
 80012f0:	607b      	str	r3, [r7, #4]
  if (HAL_TIMEx_MasterConfigSynchronization(&htim6, &sMasterConfig) != HAL_OK)
 80012f2:	463b      	mov	r3, r7
 80012f4:	4619      	mov	r1, r3
 80012f6:	4806      	ldr	r0, [pc, #24]	; (8001310 <MX_TIM6_Init+0x64>)
 80012f8:	f006 ff9c 	bl	8008234 <HAL_TIMEx_MasterConfigSynchronization>
 80012fc:	4603      	mov	r3, r0
 80012fe:	2b00      	cmp	r3, #0
 8001300:	d001      	beq.n	8001306 <MX_TIM6_Init+0x5a>
  {
    Error_Handler();
 8001302:	f000 fd15 	bl	8001d30 <Error_Handler>
  }
  /* USER CODE BEGIN TIM6_Init 2 */

  /* USER CODE END TIM6_Init 2 */

}
 8001306:	bf00      	nop
 8001308:	3708      	adds	r7, #8
 800130a:	46bd      	mov	sp, r7
 800130c:	bd80      	pop	{r7, pc}
 800130e:	bf00      	nop
 8001310:	200002a8 	.word	0x200002a8
 8001314:	40001000 	.word	0x40001000

08001318 <MX_TIM7_Init>:
  * @brief TIM7 Initialization Function
  * @param None
  * @retval None
  */
static void MX_TIM7_Init(void)
{
 8001318:	b580      	push	{r7, lr}
 800131a:	b082      	sub	sp, #8
 800131c:	af00      	add	r7, sp, #0

  /* USER CODE BEGIN TIM7_Init 0 */

  /* USER CODE END TIM7_Init 0 */

  TIM_MasterConfigTypeDef sMasterConfig = {0};
 800131e:	463b      	mov	r3, r7
 8001320:	2200      	movs	r2, #0
 8001322:	601a      	str	r2, [r3, #0]
 8001324:	605a      	str	r2, [r3, #4]

  /* USER CODE BEGIN TIM7_Init 1 */

  /* USER CODE END TIM7_Init 1 */
  htim7.Instance = TIM7;
 8001326:	4b15      	ldr	r3, [pc, #84]	; (800137c <MX_TIM7_Init+0x64>)
 8001328:	4a15      	ldr	r2, [pc, #84]	; (8001380 <MX_TIM7_Init+0x68>)
 800132a:	601a      	str	r2, [r3, #0]
  htim7.Init.Prescaler = 20999;
 800132c:	4b13      	ldr	r3, [pc, #76]	; (800137c <MX_TIM7_Init+0x64>)
 800132e:	f245 2207 	movw	r2, #20999	; 0x5207
 8001332:	605a      	str	r2, [r3, #4]
  htim7.Init.CounterMode = TIM_COUNTERMODE_UP;
 8001334:	4b11      	ldr	r3, [pc, #68]	; (800137c <MX_TIM7_Init+0x64>)
 8001336:	2200      	movs	r2, #0
 8001338:	609a      	str	r2, [r3, #8]
  htim7.Init.Period = 4000;
 800133a:	4b10      	ldr	r3, [pc, #64]	; (800137c <MX_TIM7_Init+0x64>)
 800133c:	f44f 627a 	mov.w	r2, #4000	; 0xfa0
 8001340:	60da      	str	r2, [r3, #12]
  htim7.Init.AutoReloadPreload = TIM_AUTORELOAD_PRELOAD_DISABLE;
 8001342:	4b0e      	ldr	r3, [pc, #56]	; (800137c <MX_TIM7_Init+0x64>)
 8001344:	2200      	movs	r2, #0
 8001346:	619a      	str	r2, [r3, #24]
  if (HAL_TIM_Base_Init(&htim7) != HAL_OK)
 8001348:	480c      	ldr	r0, [pc, #48]	; (800137c <MX_TIM7_Init+0x64>)
 800134a:	f006 fce5 	bl	8007d18 <HAL_TIM_Base_Init>
 800134e:	4603      	mov	r3, r0
 8001350:	2b00      	cmp	r3, #0
 8001352:	d001      	beq.n	8001358 <MX_TIM7_Init+0x40>
  {
    Error_Handler();
 8001354:	f000 fcec 	bl	8001d30 <Error_Handler>
  }
  sMasterConfig.MasterOutputTrigger = TIM_TRGO_RESET;
 8001358:	2300      	movs	r3, #0
 800135a:	603b      	str	r3, [r7, #0]
  sMasterConfig.MasterSlaveMode = TIM_MASTERSLAVEMODE_DISABLE;
 800135c:	2300      	movs	r3, #0
 800135e:	607b      	str	r3, [r7, #4]
  if (HAL_TIMEx_MasterConfigSynchronization(&htim7, &sMasterConfig) != HAL_OK)
 8001360:	463b      	mov	r3, r7
 8001362:	4619      	mov	r1, r3
 8001364:	4805      	ldr	r0, [pc, #20]	; (800137c <MX_TIM7_Init+0x64>)
 8001366:	f006 ff65 	bl	8008234 <HAL_TIMEx_MasterConfigSynchronization>
 800136a:	4603      	mov	r3, r0
 800136c:	2b00      	cmp	r3, #0
 800136e:	d001      	beq.n	8001374 <MX_TIM7_Init+0x5c>
  {
    Error_Handler();
 8001370:	f000 fcde 	bl	8001d30 <Error_Handler>
  }
  /* USER CODE BEGIN TIM7_Init 2 */

  /* USER CODE END TIM7_Init 2 */

}
 8001374:	bf00      	nop
 8001376:	3708      	adds	r7, #8
 8001378:	46bd      	mov	sp, r7
 800137a:	bd80      	pop	{r7, pc}
 800137c:	200002f0 	.word	0x200002f0
 8001380:	40001400 	.word	0x40001400

08001384 <MX_USART2_UART_Init>:
  * @brief USART2 Initialization Function
  * @param None
  * @retval None
  */
static void MX_USART2_UART_Init(void)
{
 8001384:	b580      	push	{r7, lr}
 8001386:	af00      	add	r7, sp, #0
  /* USER CODE END USART2_Init 0 */

  /* USER CODE BEGIN USART2_Init 1 */

  /* USER CODE END USART2_Init 1 */
  huart2.Instance = USART2;
 8001388:	4b11      	ldr	r3, [pc, #68]	; (80013d0 <MX_USART2_UART_Init+0x4c>)
 800138a:	4a12      	ldr	r2, [pc, #72]	; (80013d4 <MX_USART2_UART_Init+0x50>)
 800138c:	601a      	str	r2, [r3, #0]
  huart2.Init.BaudRate = 115200;
 800138e:	4b10      	ldr	r3, [pc, #64]	; (80013d0 <MX_USART2_UART_Init+0x4c>)
 8001390:	f44f 32e1 	mov.w	r2, #115200	; 0x1c200
 8001394:	605a      	str	r2, [r3, #4]
  huart2.Init.WordLength = UART_WORDLENGTH_8B;
 8001396:	4b0e      	ldr	r3, [pc, #56]	; (80013d0 <MX_USART2_UART_Init+0x4c>)
 8001398:	2200      	movs	r2, #0
 800139a:	609a      	str	r2, [r3, #8]
  huart2.Init.StopBits = UART_STOPBITS_1;
 800139c:	4b0c      	ldr	r3, [pc, #48]	; (80013d0 <MX_USART2_UART_Init+0x4c>)
 800139e:	2200      	movs	r2, #0
 80013a0:	60da      	str	r2, [r3, #12]
  huart2.Init.Parity = UART_PARITY_NONE;
 80013a2:	4b0b      	ldr	r3, [pc, #44]	; (80013d0 <MX_USART2_UART_Init+0x4c>)
 80013a4:	2200      	movs	r2, #0
 80013a6:	611a      	str	r2, [r3, #16]
  huart2.Init.Mode = UART_MODE_TX_RX;
 80013a8:	4b09      	ldr	r3, [pc, #36]	; (80013d0 <MX_USART2_UART_Init+0x4c>)
 80013aa:	220c      	movs	r2, #12
 80013ac:	615a      	str	r2, [r3, #20]
  huart2.Init.HwFlowCtl = UART_HWCONTROL_NONE;
 80013ae:	4b08      	ldr	r3, [pc, #32]	; (80013d0 <MX_USART2_UART_Init+0x4c>)
 80013b0:	2200      	movs	r2, #0
 80013b2:	619a      	str	r2, [r3, #24]
  huart2.Init.OverSampling = UART_OVERSAMPLING_16;
 80013b4:	4b06      	ldr	r3, [pc, #24]	; (80013d0 <MX_USART2_UART_Init+0x4c>)
 80013b6:	2200      	movs	r2, #0
 80013b8:	61da      	str	r2, [r3, #28]
  if (HAL_UART_Init(&huart2) != HAL_OK)
 80013ba:	4805      	ldr	r0, [pc, #20]	; (80013d0 <MX_USART2_UART_Init+0x4c>)
 80013bc:	f006 ffca 	bl	8008354 <HAL_UART_Init>
 80013c0:	4603      	mov	r3, r0
 80013c2:	2b00      	cmp	r3, #0
 80013c4:	d001      	beq.n	80013ca <MX_USART2_UART_Init+0x46>
  {
    Error_Handler();
 80013c6:	f000 fcb3 	bl	8001d30 <Error_Handler>
  }
  /* USER CODE BEGIN USART2_Init 2 */

  /* USER CODE END USART2_Init 2 */

}
 80013ca:	bf00      	nop
 80013cc:	bd80      	pop	{r7, pc}
 80013ce:	bf00      	nop
 80013d0:	20000338 	.word	0x20000338
 80013d4:	40004400 	.word	0x40004400

080013d8 <MX_DMA_Init>:

/**
  * Enable DMA controller clock
  */
static void MX_DMA_Init(void)
{
 80013d8:	b580      	push	{r7, lr}
 80013da:	b082      	sub	sp, #8
 80013dc:	af00      	add	r7, sp, #0

  /* DMA controller clock enable */
  __HAL_RCC_DMA2_CLK_ENABLE();
 80013de:	2300      	movs	r3, #0
 80013e0:	607b      	str	r3, [r7, #4]
 80013e2:	4b17      	ldr	r3, [pc, #92]	; (8001440 <MX_DMA_Init+0x68>)
 80013e4:	6b1b      	ldr	r3, [r3, #48]	; 0x30
 80013e6:	4a16      	ldr	r2, [pc, #88]	; (8001440 <MX_DMA_Init+0x68>)
 80013e8:	f443 0380 	orr.w	r3, r3, #4194304	; 0x400000
 80013ec:	6313      	str	r3, [r2, #48]	; 0x30
 80013ee:	4b14      	ldr	r3, [pc, #80]	; (8001440 <MX_DMA_Init+0x68>)
 80013f0:	6b1b      	ldr	r3, [r3, #48]	; 0x30
 80013f2:	f403 0380 	and.w	r3, r3, #4194304	; 0x400000
 80013f6:	607b      	str	r3, [r7, #4]
 80013f8:	687b      	ldr	r3, [r7, #4]
  __HAL_RCC_DMA1_CLK_ENABLE();
 80013fa:	2300      	movs	r3, #0
 80013fc:	603b      	str	r3, [r7, #0]
 80013fe:	4b10      	ldr	r3, [pc, #64]	; (8001440 <MX_DMA_Init+0x68>)
 8001400:	6b1b      	ldr	r3, [r3, #48]	; 0x30
 8001402:	4a0f      	ldr	r2, [pc, #60]	; (8001440 <MX_DMA_Init+0x68>)
 8001404:	f443 1300 	orr.w	r3, r3, #2097152	; 0x200000
 8001408:	6313      	str	r3, [r2, #48]	; 0x30
 800140a:	4b0d      	ldr	r3, [pc, #52]	; (8001440 <MX_DMA_Init+0x68>)
 800140c:	6b1b      	ldr	r3, [r3, #48]	; 0x30
 800140e:	f403 1300 	and.w	r3, r3, #2097152	; 0x200000
 8001412:	603b      	str	r3, [r7, #0]
 8001414:	683b      	ldr	r3, [r7, #0]

  /* DMA interrupt init */
  /* DMA1_Stream4_IRQn interrupt configuration */
  HAL_NVIC_SetPriority(DMA1_Stream4_IRQn, 0, 0);
 8001416:	2200      	movs	r2, #0
 8001418:	2100      	movs	r1, #0
 800141a:	200f      	movs	r0, #15
 800141c:	f002 fd53 	bl	8003ec6 <HAL_NVIC_SetPriority>
  HAL_NVIC_EnableIRQ(DMA1_Stream4_IRQn);
 8001420:	200f      	movs	r0, #15
 8001422:	f002 fd6c 	bl	8003efe <HAL_NVIC_EnableIRQ>
  /* DMA2_Stream3_IRQn interrupt configuration */
  HAL_NVIC_SetPriority(DMA2_Stream3_IRQn, 0, 0);
 8001426:	2200      	movs	r2, #0
 8001428:	2100      	movs	r1, #0
 800142a:	203b      	movs	r0, #59	; 0x3b
 800142c:	f002 fd4b 	bl	8003ec6 <HAL_NVIC_SetPriority>
  HAL_NVIC_EnableIRQ(DMA2_Stream3_IRQn);
 8001430:	203b      	movs	r0, #59	; 0x3b
 8001432:	f002 fd64 	bl	8003efe <HAL_NVIC_EnableIRQ>

}
 8001436:	bf00      	nop
 8001438:	3708      	adds	r7, #8
 800143a:	46bd      	mov	sp, r7
 800143c:	bd80      	pop	{r7, pc}
 800143e:	bf00      	nop
 8001440:	40023800 	.word	0x40023800

08001444 <MX_GPIO_Init>:
  * @brief GPIO Initialization Function
  * @param None
  * @retval None
  */
static void MX_GPIO_Init(void)
{
 8001444:	b580      	push	{r7, lr}
 8001446:	b08a      	sub	sp, #40	; 0x28
 8001448:	af00      	add	r7, sp, #0
  GPIO_InitTypeDef GPIO_InitStruct = {0};
 800144a:	f107 0314 	add.w	r3, r7, #20
 800144e:	2200      	movs	r2, #0
 8001450:	601a      	str	r2, [r3, #0]
 8001452:	605a      	str	r2, [r3, #4]
 8001454:	609a      	str	r2, [r3, #8]
 8001456:	60da      	str	r2, [r3, #12]
 8001458:	611a      	str	r2, [r3, #16]
/* USER CODE BEGIN MX_GPIO_Init_1 */
/* USER CODE END MX_GPIO_Init_1 */

  /* GPIO Ports Clock Enable */
  __HAL_RCC_GPIOC_CLK_ENABLE();
 800145a:	2300      	movs	r3, #0
 800145c:	613b      	str	r3, [r7, #16]
 800145e:	4b5b      	ldr	r3, [pc, #364]	; (80015cc <MX_GPIO_Init+0x188>)
 8001460:	6b1b      	ldr	r3, [r3, #48]	; 0x30
 8001462:	4a5a      	ldr	r2, [pc, #360]	; (80015cc <MX_GPIO_Init+0x188>)
 8001464:	f043 0304 	orr.w	r3, r3, #4
 8001468:	6313      	str	r3, [r2, #48]	; 0x30
 800146a:	4b58      	ldr	r3, [pc, #352]	; (80015cc <MX_GPIO_Init+0x188>)
 800146c:	6b1b      	ldr	r3, [r3, #48]	; 0x30
 800146e:	f003 0304 	and.w	r3, r3, #4
 8001472:	613b      	str	r3, [r7, #16]
 8001474:	693b      	ldr	r3, [r7, #16]
  __HAL_RCC_GPIOH_CLK_ENABLE();
 8001476:	2300      	movs	r3, #0
 8001478:	60fb      	str	r3, [r7, #12]
 800147a:	4b54      	ldr	r3, [pc, #336]	; (80015cc <MX_GPIO_Init+0x188>)
 800147c:	6b1b      	ldr	r3, [r3, #48]	; 0x30
 800147e:	4a53      	ldr	r2, [pc, #332]	; (80015cc <MX_GPIO_Init+0x188>)
 8001480:	f043 0380 	orr.w	r3, r3, #128	; 0x80
 8001484:	6313      	str	r3, [r2, #48]	; 0x30
 8001486:	4b51      	ldr	r3, [pc, #324]	; (80015cc <MX_GPIO_Init+0x188>)
 8001488:	6b1b      	ldr	r3, [r3, #48]	; 0x30
 800148a:	f003 0380 	and.w	r3, r3, #128	; 0x80
 800148e:	60fb      	str	r3, [r7, #12]
 8001490:	68fb      	ldr	r3, [r7, #12]
  __HAL_RCC_GPIOA_CLK_ENABLE();
 8001492:	2300      	movs	r3, #0
 8001494:	60bb      	str	r3, [r7, #8]
 8001496:	4b4d      	ldr	r3, [pc, #308]	; (80015cc <MX_GPIO_Init+0x188>)
 8001498:	6b1b      	ldr	r3, [r3, #48]	; 0x30
 800149a:	4a4c      	ldr	r2, [pc, #304]	; (80015cc <MX_GPIO_Init+0x188>)
 800149c:	f043 0301 	orr.w	r3, r3, #1
 80014a0:	6313      	str	r3, [r2, #48]	; 0x30
 80014a2:	4b4a      	ldr	r3, [pc, #296]	; (80015cc <MX_GPIO_Init+0x188>)
 80014a4:	6b1b      	ldr	r3, [r3, #48]	; 0x30
 80014a6:	f003 0301 	and.w	r3, r3, #1
 80014aa:	60bb      	str	r3, [r7, #8]
 80014ac:	68bb      	ldr	r3, [r7, #8]
  __HAL_RCC_GPIOB_CLK_ENABLE();
 80014ae:	2300      	movs	r3, #0
 80014b0:	607b      	str	r3, [r7, #4]
 80014b2:	4b46      	ldr	r3, [pc, #280]	; (80015cc <MX_GPIO_Init+0x188>)
 80014b4:	6b1b      	ldr	r3, [r3, #48]	; 0x30
 80014b6:	4a45      	ldr	r2, [pc, #276]	; (80015cc <MX_GPIO_Init+0x188>)
 80014b8:	f043 0302 	orr.w	r3, r3, #2
 80014bc:	6313      	str	r3, [r2, #48]	; 0x30
 80014be:	4b43      	ldr	r3, [pc, #268]	; (80015cc <MX_GPIO_Init+0x188>)
 80014c0:	6b1b      	ldr	r3, [r3, #48]	; 0x30
 80014c2:	f003 0302 	and.w	r3, r3, #2
 80014c6:	607b      	str	r3, [r7, #4]
 80014c8:	687b      	ldr	r3, [r7, #4]
  __HAL_RCC_GPIOD_CLK_ENABLE();
 80014ca:	2300      	movs	r3, #0
 80014cc:	603b      	str	r3, [r7, #0]
 80014ce:	4b3f      	ldr	r3, [pc, #252]	; (80015cc <MX_GPIO_Init+0x188>)
 80014d0:	6b1b      	ldr	r3, [r3, #48]	; 0x30
 80014d2:	4a3e      	ldr	r2, [pc, #248]	; (80015cc <MX_GPIO_Init+0x188>)
 80014d4:	f043 0308 	orr.w	r3, r3, #8
 80014d8:	6313      	str	r3, [r2, #48]	; 0x30
 80014da:	4b3c      	ldr	r3, [pc, #240]	; (80015cc <MX_GPIO_Init+0x188>)
 80014dc:	6b1b      	ldr	r3, [r3, #48]	; 0x30
 80014de:	f003 0308 	and.w	r3, r3, #8
 80014e2:	603b      	str	r3, [r7, #0]
 80014e4:	683b      	ldr	r3, [r7, #0]

  /*Configure GPIO pin Output Level */
  HAL_GPIO_WritePin(GPIOC, SPI2_WP_Pin|SPI2_CS_Pin|SPI1_CS_Pin, GPIO_PIN_RESET);
 80014e6:	2200      	movs	r2, #0
 80014e8:	2113      	movs	r1, #19
 80014ea:	4839      	ldr	r0, [pc, #228]	; (80015d0 <MX_GPIO_Init+0x18c>)
 80014ec:	f003 fae8 	bl	8004ac0 <HAL_GPIO_WritePin>

  /*Configure GPIO pin Output Level */
  HAL_GPIO_WritePin(SPI1_WP_GPIO_Port, SPI1_WP_Pin, GPIO_PIN_RESET);
 80014f0:	2200      	movs	r2, #0
 80014f2:	2110      	movs	r1, #16
 80014f4:	4837      	ldr	r0, [pc, #220]	; (80015d4 <MX_GPIO_Init+0x190>)
 80014f6:	f003 fae3 	bl	8004ac0 <HAL_GPIO_WritePin>

  /*Configure GPIO pin Output Level */
  HAL_GPIO_WritePin(GPIOB, LED3_Pin|LED2_Pin, GPIO_PIN_RESET);
 80014fa:	2200      	movs	r2, #0
 80014fc:	f44f 4181 	mov.w	r1, #16512	; 0x4080
 8001500:	4835      	ldr	r0, [pc, #212]	; (80015d8 <MX_GPIO_Init+0x194>)
 8001502:	f003 fadd 	bl	8004ac0 <HAL_GPIO_WritePin>

  /*Configure GPIO pin : SPI2_WP_Pin */
  GPIO_InitStruct.Pin = SPI2_WP_Pin;
 8001506:	2301      	movs	r3, #1
 8001508:	617b      	str	r3, [r7, #20]
  GPIO_InitStruct.Mode = GPIO_MODE_OUTPUT_PP;
 800150a:	2301      	movs	r3, #1
 800150c:	61bb      	str	r3, [r7, #24]
  GPIO_InitStruct.Pull = GPIO_PULLUP;
 800150e:	2301      	movs	r3, #1
 8001510:	61fb      	str	r3, [r7, #28]
  GPIO_InitStruct.Speed = GPIO_SPEED_FREQ_LOW;
 8001512:	2300      	movs	r3, #0
 8001514:	623b      	str	r3, [r7, #32]
  HAL_GPIO_Init(SPI2_WP_GPIO_Port, &GPIO_InitStruct);
 8001516:	f107 0314 	add.w	r3, r7, #20
 800151a:	4619      	mov	r1, r3
 800151c:	482c      	ldr	r0, [pc, #176]	; (80015d0 <MX_GPIO_Init+0x18c>)
 800151e:	f003 f90b 	bl	8004738 <HAL_GPIO_Init>

  /*Configure GPIO pins : SPI2_CS_Pin SPI1_CS_Pin */
  GPIO_InitStruct.Pin = SPI2_CS_Pin|SPI1_CS_Pin;
 8001522:	2312      	movs	r3, #18
 8001524:	617b      	str	r3, [r7, #20]
  GPIO_InitStruct.Mode = GPIO_MODE_OUTPUT_PP;
 8001526:	2301      	movs	r3, #1
 8001528:	61bb      	str	r3, [r7, #24]
  GPIO_InitStruct.Pull = GPIO_NOPULL;
 800152a:	2300      	movs	r3, #0
 800152c:	61fb      	str	r3, [r7, #28]
  GPIO_InitStruct.Speed = GPIO_SPEED_FREQ_LOW;
 800152e:	2300      	movs	r3, #0
 8001530:	623b      	str	r3, [r7, #32]
  HAL_GPIO_Init(GPIOC, &GPIO_InitStruct);
 8001532:	f107 0314 	add.w	r3, r7, #20
 8001536:	4619      	mov	r1, r3
 8001538:	4825      	ldr	r0, [pc, #148]	; (80015d0 <MX_GPIO_Init+0x18c>)
 800153a:	f003 f8fd 	bl	8004738 <HAL_GPIO_Init>

  /*Configure GPIO pin : SPI1_WP_Pin */
  GPIO_InitStruct.Pin = SPI1_WP_Pin;
 800153e:	2310      	movs	r3, #16
 8001540:	617b      	str	r3, [r7, #20]
  GPIO_InitStruct.Mode = GPIO_MODE_OUTPUT_PP;
 8001542:	2301      	movs	r3, #1
 8001544:	61bb      	str	r3, [r7, #24]
  GPIO_InitStruct.Pull = GPIO_PULLUP;
 8001546:	2301      	movs	r3, #1
 8001548:	61fb      	str	r3, [r7, #28]
  GPIO_InitStruct.Speed = GPIO_SPEED_FREQ_LOW;
 800154a:	2300      	movs	r3, #0
 800154c:	623b      	str	r3, [r7, #32]
  HAL_GPIO_Init(SPI1_WP_GPIO_Port, &GPIO_InitStruct);
 800154e:	f107 0314 	add.w	r3, r7, #20
 8001552:	4619      	mov	r1, r3
 8001554:	481f      	ldr	r0, [pc, #124]	; (80015d4 <MX_GPIO_Init+0x190>)
 8001556:	f003 f8ef 	bl	8004738 <HAL_GPIO_Init>

  /*Configure GPIO pin : Flight_JMP_Pin */
  GPIO_InitStruct.Pin = Flight_JMP_Pin;
 800155a:	2302      	movs	r3, #2
 800155c:	617b      	str	r3, [r7, #20]
  GPIO_InitStruct.Mode = GPIO_MODE_IT_RISING;
 800155e:	f44f 1388 	mov.w	r3, #1114112	; 0x110000
 8001562:	61bb      	str	r3, [r7, #24]
  GPIO_InitStruct.Pull = GPIO_NOPULL;
 8001564:	2300      	movs	r3, #0
 8001566:	61fb      	str	r3, [r7, #28]
  HAL_GPIO_Init(Flight_JMP_GPIO_Port, &GPIO_InitStruct);
 8001568:	f107 0314 	add.w	r3, r7, #20
 800156c:	4619      	mov	r1, r3
 800156e:	481a      	ldr	r0, [pc, #104]	; (80015d8 <MX_GPIO_Init+0x194>)
 8001570:	f003 f8e2 	bl	8004738 <HAL_GPIO_Init>

  /*Configure GPIO pins : LED3_Pin LED2_Pin */
  GPIO_InitStruct.Pin = LED3_Pin|LED2_Pin;
 8001574:	f44f 4381 	mov.w	r3, #16512	; 0x4080
 8001578:	617b      	str	r3, [r7, #20]
  GPIO_InitStruct.Mode = GPIO_MODE_OUTPUT_PP;
 800157a:	2301      	movs	r3, #1
 800157c:	61bb      	str	r3, [r7, #24]
  GPIO_InitStruct.Pull = GPIO_PULLDOWN;
 800157e:	2302      	movs	r3, #2
 8001580:	61fb      	str	r3, [r7, #28]
  GPIO_InitStruct.Speed = GPIO_SPEED_FREQ_LOW;
 8001582:	2300      	movs	r3, #0
 8001584:	623b      	str	r3, [r7, #32]
  HAL_GPIO_Init(GPIOB, &GPIO_InitStruct);
 8001586:	f107 0314 	add.w	r3, r7, #20
 800158a:	4619      	mov	r1, r3
 800158c:	4812      	ldr	r0, [pc, #72]	; (80015d8 <MX_GPIO_Init+0x194>)
 800158e:	f003 f8d3 	bl	8004738 <HAL_GPIO_Init>

  /*Configure GPIO pins : PA11 PA12 */
  GPIO_InitStruct.Pin = GPIO_PIN_11|GPIO_PIN_12;
 8001592:	f44f 53c0 	mov.w	r3, #6144	; 0x1800
 8001596:	617b      	str	r3, [r7, #20]
  GPIO_InitStruct.Mode = GPIO_MODE_AF_PP;
 8001598:	2302      	movs	r3, #2
 800159a:	61bb      	str	r3, [r7, #24]
  GPIO_InitStruct.Pull = GPIO_NOPULL;
 800159c:	2300      	movs	r3, #0
 800159e:	61fb      	str	r3, [r7, #28]
  GPIO_InitStruct.Speed = GPIO_SPEED_FREQ_VERY_HIGH;
 80015a0:	2303      	movs	r3, #3
 80015a2:	623b      	str	r3, [r7, #32]
  GPIO_InitStruct.Alternate = GPIO_AF9_CAN1;
 80015a4:	2309      	movs	r3, #9
 80015a6:	627b      	str	r3, [r7, #36]	; 0x24
  HAL_GPIO_Init(GPIOA, &GPIO_InitStruct);
 80015a8:	f107 0314 	add.w	r3, r7, #20
 80015ac:	4619      	mov	r1, r3
 80015ae:	4809      	ldr	r0, [pc, #36]	; (80015d4 <MX_GPIO_Init+0x190>)
 80015b0:	f003 f8c2 	bl	8004738 <HAL_GPIO_Init>

  /* EXTI interrupt init*/
  HAL_NVIC_SetPriority(EXTI1_IRQn, 0, 0);
 80015b4:	2200      	movs	r2, #0
 80015b6:	2100      	movs	r1, #0
 80015b8:	2007      	movs	r0, #7
 80015ba:	f002 fc84 	bl	8003ec6 <HAL_NVIC_SetPriority>
  HAL_NVIC_EnableIRQ(EXTI1_IRQn);
 80015be:	2007      	movs	r0, #7
 80015c0:	f002 fc9d 	bl	8003efe <HAL_NVIC_EnableIRQ>

/* USER CODE BEGIN MX_GPIO_Init_2 */
/* USER CODE END MX_GPIO_Init_2 */
}
 80015c4:	bf00      	nop
 80015c6:	3728      	adds	r7, #40	; 0x28
 80015c8:	46bd      	mov	sp, r7
 80015ca:	bd80      	pop	{r7, pc}
 80015cc:	40023800 	.word	0x40023800
 80015d0:	40020800 	.word	0x40020800
 80015d4:	40020000 	.word	0x40020000
 80015d8:	40020400 	.word	0x40020400

080015dc <clean_data_buffer>:

/* USER CODE BEGIN 4 */
void clean_data_buffer(uint16_t array_size, uint8_t data_array[array_size]) {
 80015dc:	b480      	push	{r7}
 80015de:	b085      	sub	sp, #20
 80015e0:	af00      	add	r7, sp, #0
 80015e2:	4603      	mov	r3, r0
 80015e4:	6039      	str	r1, [r7, #0]
 80015e6:	80fb      	strh	r3, [r7, #6]
    for (int i = 0; i < array_size; ++i) {
 80015e8:	2300      	movs	r3, #0
 80015ea:	60fb      	str	r3, [r7, #12]
 80015ec:	e007      	b.n	80015fe <clean_data_buffer+0x22>
    	data_array[i] = 0xFF;  // Initialize each element to 0xFF
 80015ee:	68fb      	ldr	r3, [r7, #12]
 80015f0:	683a      	ldr	r2, [r7, #0]
 80015f2:	4413      	add	r3, r2
 80015f4:	22ff      	movs	r2, #255	; 0xff
 80015f6:	701a      	strb	r2, [r3, #0]
    for (int i = 0; i < array_size; ++i) {
 80015f8:	68fb      	ldr	r3, [r7, #12]
 80015fa:	3301      	adds	r3, #1
 80015fc:	60fb      	str	r3, [r7, #12]
 80015fe:	88fb      	ldrh	r3, [r7, #6]
 8001600:	68fa      	ldr	r2, [r7, #12]
 8001602:	429a      	cmp	r2, r3
 8001604:	dbf3      	blt.n	80015ee <clean_data_buffer+0x12>
    }
}
 8001606:	bf00      	nop
 8001608:	bf00      	nop
 800160a:	3714      	adds	r7, #20
 800160c:	46bd      	mov	sp, r7
 800160e:	f85d 7b04 	ldr.w	r7, [sp], #4
 8001612:	4770      	bx	lr

08001614 <systemInit>:

void systemInit() {
 8001614:	b580      	push	{r7, lr}
 8001616:	b084      	sub	sp, #16
 8001618:	af00      	add	r7, sp, #0
	i2c_accel = &hi2c2;
 800161a:	4b67      	ldr	r3, [pc, #412]	; (80017b8 <systemInit+0x1a4>)
 800161c:	4a67      	ldr	r2, [pc, #412]	; (80017bc <systemInit+0x1a8>)
 800161e:	601a      	str	r2, [r3, #0]
	i2c_bme280 = &hi2c1;
 8001620:	4b67      	ldr	r3, [pc, #412]	; (80017c0 <systemInit+0x1ac>)
 8001622:	4a68      	ldr	r2, [pc, #416]	; (80017c4 <systemInit+0x1b0>)
 8001624:	601a      	str	r2, [r3, #0]

	configureCAN();
 8001626:	f000 fb5f 	bl	8001ce8 <configureCAN>
	CAN_TxMailbox = 0;
 800162a:	4b67      	ldr	r3, [pc, #412]	; (80017c8 <systemInit+0x1b4>)
 800162c:	2200      	movs	r2, #0
 800162e:	601a      	str	r2, [r3, #0]
	CAN_First_Msg = FLAG_RESET;
 8001630:	4b66      	ldr	r3, [pc, #408]	; (80017cc <systemInit+0x1b8>)
 8001632:	2200      	movs	r2, #0
 8001634:	701a      	strb	r2, [r3, #0]
	clean_data_buffer(8, CAN_RxData);
 8001636:	4966      	ldr	r1, [pc, #408]	; (80017d0 <systemInit+0x1bc>)
 8001638:	2008      	movs	r0, #8
 800163a:	f7ff ffcf 	bl	80015dc <clean_data_buffer>

	gpio_set_config();
 800163e:	f000 f901 	bl	8001844 <gpio_set_config>
	HAL_GPIO_WritePin(led_orange.GPIOx, led_orange.GPIO_Pin, GPIO_PIN_RESET);	// Turn LED off
 8001642:	4b64      	ldr	r3, [pc, #400]	; (80017d4 <systemInit+0x1c0>)
 8001644:	681b      	ldr	r3, [r3, #0]
 8001646:	4a63      	ldr	r2, [pc, #396]	; (80017d4 <systemInit+0x1c0>)
 8001648:	8891      	ldrh	r1, [r2, #4]
 800164a:	2200      	movs	r2, #0
 800164c:	4618      	mov	r0, r3
 800164e:	f003 fa37 	bl	8004ac0 <HAL_GPIO_WritePin>
	HAL_GPIO_WritePin(status_led.GPIOx, status_led.GPIO_Pin, GPIO_PIN_RESET);	// Turn LED off
 8001652:	4b61      	ldr	r3, [pc, #388]	; (80017d8 <systemInit+0x1c4>)
 8001654:	681b      	ldr	r3, [r3, #0]
 8001656:	4a60      	ldr	r2, [pc, #384]	; (80017d8 <systemInit+0x1c4>)
 8001658:	8891      	ldrh	r1, [r2, #4]
 800165a:	2200      	movs	r2, #0
 800165c:	4618      	mov	r0, r3
 800165e:	f003 fa2f 	bl	8004ac0 <HAL_GPIO_WritePin>
	HAL_GPIO_WritePin(cs_spi1.GPIOx, cs_spi1.GPIO_Pin, GPIO_PIN_SET);		// SET SPI CS High to disable bus 1
 8001662:	4b5e      	ldr	r3, [pc, #376]	; (80017dc <systemInit+0x1c8>)
 8001664:	681b      	ldr	r3, [r3, #0]
 8001666:	4a5d      	ldr	r2, [pc, #372]	; (80017dc <systemInit+0x1c8>)
 8001668:	8891      	ldrh	r1, [r2, #4]
 800166a:	2201      	movs	r2, #1
 800166c:	4618      	mov	r0, r3
 800166e:	f003 fa27 	bl	8004ac0 <HAL_GPIO_WritePin>
	HAL_GPIO_WritePin(cs_spi2.GPIOx, cs_spi2.GPIO_Pin, GPIO_PIN_SET);		// SET SPI CS High to disable bus 2
 8001672:	4b5b      	ldr	r3, [pc, #364]	; (80017e0 <systemInit+0x1cc>)
 8001674:	681b      	ldr	r3, [r3, #0]
 8001676:	4a5a      	ldr	r2, [pc, #360]	; (80017e0 <systemInit+0x1cc>)
 8001678:	8891      	ldrh	r1, [r2, #4]
 800167a:	2201      	movs	r2, #1
 800167c:	4618      	mov	r0, r3
 800167e:	f003 fa1f 	bl	8004ac0 <HAL_GPIO_WritePin>

	// Clean the data buffer and set all values to 0xFF
	clean_data_buffer(PAGE_SIZE, data_buffer_tx[0]);
 8001682:	4958      	ldr	r1, [pc, #352]	; (80017e4 <systemInit+0x1d0>)
 8001684:	f44f 7080 	mov.w	r0, #256	; 0x100
 8001688:	f7ff ffa8 	bl	80015dc <clean_data_buffer>
	clean_data_buffer(PAGE_SIZE, data_buffer_tx[1]);
 800168c:	4956      	ldr	r1, [pc, #344]	; (80017e8 <systemInit+0x1d4>)
 800168e:	f44f 7080 	mov.w	r0, #256	; 0x100
 8001692:	f7ff ffa3 	bl	80015dc <clean_data_buffer>

	for (uint8_t i = 0; i < 6; i++) {
 8001696:	2300      	movs	r3, #0
 8001698:	73fb      	strb	r3, [r7, #15]
 800169a:	e00e      	b.n	80016ba <systemInit+0xa6>
		accel_data[i] = 0x00;
 800169c:	7bfb      	ldrb	r3, [r7, #15]
 800169e:	4a53      	ldr	r2, [pc, #332]	; (80017ec <systemInit+0x1d8>)
 80016a0:	2100      	movs	r1, #0
 80016a2:	54d1      	strb	r1, [r2, r3]
		bme280_data_0[i] = 0x00;
 80016a4:	7bfb      	ldrb	r3, [r7, #15]
 80016a6:	4a52      	ldr	r2, [pc, #328]	; (80017f0 <systemInit+0x1dc>)
 80016a8:	2100      	movs	r1, #0
 80016aa:	54d1      	strb	r1, [r2, r3]
		bme280_data_1[i] = 0x00;
 80016ac:	7bfb      	ldrb	r3, [r7, #15]
 80016ae:	4a51      	ldr	r2, [pc, #324]	; (80017f4 <systemInit+0x1e0>)
 80016b0:	2100      	movs	r1, #0
 80016b2:	54d1      	strb	r1, [r2, r3]
	for (uint8_t i = 0; i < 6; i++) {
 80016b4:	7bfb      	ldrb	r3, [r7, #15]
 80016b6:	3301      	adds	r3, #1
 80016b8:	73fb      	strb	r3, [r7, #15]
 80016ba:	7bfb      	ldrb	r3, [r7, #15]
 80016bc:	2b05      	cmp	r3, #5
 80016be:	d9ed      	bls.n	800169c <systemInit+0x88>
	}

	// Initialise the peripherals
	init_accel(i2c_accel);
 80016c0:	4b3d      	ldr	r3, [pc, #244]	; (80017b8 <systemInit+0x1a4>)
 80016c2:	681b      	ldr	r3, [r3, #0]
 80016c4:	4618      	mov	r0, r3
 80016c6:	f7fe ff17 	bl	80004f8 <init_accel>
	init_bme280(i2c_bme280, 0);
 80016ca:	4b3d      	ldr	r3, [pc, #244]	; (80017c0 <systemInit+0x1ac>)
 80016cc:	681b      	ldr	r3, [r3, #0]
 80016ce:	2100      	movs	r1, #0
 80016d0:	4618      	mov	r0, r3
 80016d2:	f7fe ff85 	bl	80005e0 <init_bme280>
	init_bme280(i2c_bme280, 1);
 80016d6:	4b3a      	ldr	r3, [pc, #232]	; (80017c0 <systemInit+0x1ac>)
 80016d8:	681b      	ldr	r3, [r3, #0]
 80016da:	2101      	movs	r1, #1
 80016dc:	4618      	mov	r0, r3
 80016de:	f7fe ff7f 	bl	80005e0 <init_bme280>
	software_reset(&hspi1, cs_spi1);
 80016e2:	4b3e      	ldr	r3, [pc, #248]	; (80017dc <systemInit+0x1c8>)
 80016e4:	e893 0006 	ldmia.w	r3, {r1, r2}
 80016e8:	4843      	ldr	r0, [pc, #268]	; (80017f8 <systemInit+0x1e4>)
 80016ea:	f7ff f94f 	bl	800098c <software_reset>
	software_reset(&hspi2, cs_spi2);
 80016ee:	4b3c      	ldr	r3, [pc, #240]	; (80017e0 <systemInit+0x1cc>)
 80016f0:	e893 0006 	ldmia.w	r3, {r1, r2}
 80016f4:	4841      	ldr	r0, [pc, #260]	; (80017fc <systemInit+0x1e8>)
 80016f6:	f7ff f949 	bl	800098c <software_reset>

	int next_blank_page0 = find_next_blank_page(&hspi1, &end_of_flash, cs_spi1);
 80016fa:	4b38      	ldr	r3, [pc, #224]	; (80017dc <systemInit+0x1c8>)
 80016fc:	cb0c      	ldmia	r3, {r2, r3}
 80016fe:	4940      	ldr	r1, [pc, #256]	; (8001800 <systemInit+0x1ec>)
 8001700:	483d      	ldr	r0, [pc, #244]	; (80017f8 <systemInit+0x1e4>)
 8001702:	f7ff f995 	bl	8000a30 <find_next_blank_page>
 8001706:	4603      	mov	r3, r0
 8001708:	60bb      	str	r3, [r7, #8]
	int next_blank_page1 = find_next_blank_page(&hspi2, &end_of_flash, cs_spi2);
 800170a:	4b35      	ldr	r3, [pc, #212]	; (80017e0 <systemInit+0x1cc>)
 800170c:	cb0c      	ldmia	r3, {r2, r3}
 800170e:	493c      	ldr	r1, [pc, #240]	; (8001800 <systemInit+0x1ec>)
 8001710:	483a      	ldr	r0, [pc, #232]	; (80017fc <systemInit+0x1e8>)
 8001712:	f7ff f98d 	bl	8000a30 <find_next_blank_page>
 8001716:	4603      	mov	r3, r0
 8001718:	607b      	str	r3, [r7, #4]

	// Assign the value of next_blank_page to the larger of next_blank_page0 and next_blank_page1
	next_blank_page = (next_blank_page0 > next_blank_page1) ? next_blank_page0 : next_blank_page1;
 800171a:	687a      	ldr	r2, [r7, #4]
 800171c:	68bb      	ldr	r3, [r7, #8]
 800171e:	4293      	cmp	r3, r2
 8001720:	bfb8      	it	lt
 8001722:	4613      	movlt	r3, r2
 8001724:	461a      	mov	r2, r3
 8001726:	4b37      	ldr	r3, [pc, #220]	; (8001804 <systemInit+0x1f0>)
 8001728:	601a      	str	r2, [r3, #0]

	buffer_ref = 0;
 800172a:	4b37      	ldr	r3, [pc, #220]	; (8001808 <systemInit+0x1f4>)
 800172c:	2200      	movs	r2, #0
 800172e:	701a      	strb	r2, [r3, #0]
	byte_tracker = 0;
 8001730:	4b36      	ldr	r3, [pc, #216]	; (800180c <systemInit+0x1f8>)
 8001732:	2200      	movs	r2, #0
 8001734:	801a      	strh	r2, [r3, #0]
	end_of_flash = FLAG_RESET;
 8001736:	4b32      	ldr	r3, [pc, #200]	; (8001800 <systemInit+0x1ec>)
 8001738:	2200      	movs	r2, #0
 800173a:	701a      	strb	r2, [r3, #0]
	uart2_rec_flag = FLAG_RESET;
 800173c:	4b34      	ldr	r3, [pc, #208]	; (8001810 <systemInit+0x1fc>)
 800173e:	2200      	movs	r2, #0
 8001740:	701a      	strb	r2, [r3, #0]
	CAN_RX_Flag = FLAG_RESET;
 8001742:	4b34      	ldr	r3, [pc, #208]	; (8001814 <systemInit+0x200>)
 8001744:	2200      	movs	r2, #0
 8001746:	701a      	strb	r2, [r3, #0]
	tim6_overflow_flag = FLAG_RESET;
 8001748:	4b33      	ldr	r3, [pc, #204]	; (8001818 <systemInit+0x204>)
 800174a:	2200      	movs	r2, #0
 800174c:	701a      	strb	r2, [r3, #0]
	tim7_overflow_flag = FLAG_RESET;
 800174e:	4b33      	ldr	r3, [pc, #204]	; (800181c <systemInit+0x208>)
 8001750:	2200      	movs	r2, #0
 8001752:	701a      	strb	r2, [r3, #0]
	flight_state = GROUND;
 8001754:	4b32      	ldr	r3, [pc, #200]	; (8001820 <systemInit+0x20c>)
 8001756:	2200      	movs	r2, #0
 8001758:	701a      	strb	r2, [r3, #0]
	rtc_reset = FLAG_RESET;
 800175a:	4b32      	ldr	r3, [pc, #200]	; (8001824 <systemInit+0x210>)
 800175c:	2200      	movs	r2, #0
 800175e:	701a      	strb	r2, [r3, #0]

	sysStatus = systemStatus(&hspi1, &hspi2, i2c_bme280, i2c_accel);
 8001760:	4b17      	ldr	r3, [pc, #92]	; (80017c0 <systemInit+0x1ac>)
 8001762:	681a      	ldr	r2, [r3, #0]
 8001764:	4b14      	ldr	r3, [pc, #80]	; (80017b8 <systemInit+0x1a4>)
 8001766:	681b      	ldr	r3, [r3, #0]
 8001768:	4924      	ldr	r1, [pc, #144]	; (80017fc <systemInit+0x1e8>)
 800176a:	4823      	ldr	r0, [pc, #140]	; (80017f8 <systemInit+0x1e4>)
 800176c:	f000 fae6 	bl	8001d3c <systemStatus>
 8001770:	4603      	mov	r3, r0
 8001772:	461a      	mov	r2, r3
 8001774:	4b2c      	ldr	r3, [pc, #176]	; (8001828 <systemInit+0x214>)
 8001776:	701a      	strb	r2, [r3, #0]

	send_uart_hex(&huart2, sysStatus);
 8001778:	4b2b      	ldr	r3, [pc, #172]	; (8001828 <systemInit+0x214>)
 800177a:	781b      	ldrb	r3, [r3, #0]
 800177c:	4619      	mov	r1, r3
 800177e:	482b      	ldr	r0, [pc, #172]	; (800182c <systemInit+0x218>)
 8001780:	f001 fb89 	bl	8002e96 <send_uart_hex>

	// Initiate clocks, interrupts, CAN and DMA
	HAL_UART_Receive_IT(&huart2, UARTRxData, 2);
 8001784:	2202      	movs	r2, #2
 8001786:	492a      	ldr	r1, [pc, #168]	; (8001830 <systemInit+0x21c>)
 8001788:	4828      	ldr	r0, [pc, #160]	; (800182c <systemInit+0x218>)
 800178a:	f006 febe 	bl	800850a <HAL_UART_Receive_IT>
	HAL_CAN_Start(&hcan2);
 800178e:	4829      	ldr	r0, [pc, #164]	; (8001834 <systemInit+0x220>)
 8001790:	f001 fe32 	bl	80033f8 <HAL_CAN_Start>
	HAL_CAN_ActivateNotification(&hcan2, CAN_IT_RX_FIFO0_MSG_PENDING);
 8001794:	2102      	movs	r1, #2
 8001796:	4827      	ldr	r0, [pc, #156]	; (8001834 <systemInit+0x220>)
 8001798:	f002 f864 	bl	8003864 <HAL_CAN_ActivateNotification>
	initialise_rtc_default(&hrtc);
 800179c:	4826      	ldr	r0, [pc, #152]	; (8001838 <systemInit+0x224>)
 800179e:	f000 fe17 	bl	80023d0 <initialise_rtc_default>
	HAL_TIM_Base_Start_IT(&htim6);
 80017a2:	4826      	ldr	r0, [pc, #152]	; (800183c <systemInit+0x228>)
 80017a4:	f006 fb08 	bl	8007db8 <HAL_TIM_Base_Start_IT>
	HAL_TIM_Base_Start_IT(&htim7);
 80017a8:	4825      	ldr	r0, [pc, #148]	; (8001840 <systemInit+0x22c>)
 80017aa:	f006 fb05 	bl	8007db8 <HAL_TIM_Base_Start_IT>
}
 80017ae:	bf00      	nop
 80017b0:	3710      	adds	r7, #16
 80017b2:	46bd      	mov	sp, r7
 80017b4:	bd80      	pop	{r7, pc}
 80017b6:	bf00      	nop
 80017b8:	20000380 	.word	0x20000380
 80017bc:	200000c4 	.word	0x200000c4
 80017c0:	20000384 	.word	0x20000384
 80017c4:	20000070 	.word	0x20000070
 80017c8:	2000038c 	.word	0x2000038c
 80017cc:	200003b5 	.word	0x200003b5
 80017d0:	200003ac 	.word	0x200003ac
 80017d4:	200005dc 	.word	0x200005dc
 80017d8:	200005ec 	.word	0x200005ec
 80017dc:	200005f4 	.word	0x200005f4
 80017e0:	20000604 	.word	0x20000604
 80017e4:	200003b8 	.word	0x200003b8
 80017e8:	200004b8 	.word	0x200004b8
 80017ec:	200005bc 	.word	0x200005bc
 80017f0:	200005c4 	.word	0x200005c4
 80017f4:	200005cc 	.word	0x200005cc
 80017f8:	20000138 	.word	0x20000138
 80017fc:	20000190 	.word	0x20000190
 8001800:	200005da 	.word	0x200005da
 8001804:	200005d4 	.word	0x200005d4
 8001808:	200005d2 	.word	0x200005d2
 800180c:	200005d8 	.word	0x200005d8
 8001810:	2000038a 	.word	0x2000038a
 8001814:	200003b4 	.word	0x200003b4
 8001818:	200003b6 	.word	0x200003b6
 800181c:	200003b7 	.word	0x200003b7
 8001820:	2000061e 	.word	0x2000061e
 8001824:	2000061c 	.word	0x2000061c
 8001828:	2000061d 	.word	0x2000061d
 800182c:	20000338 	.word	0x20000338
 8001830:	20000388 	.word	0x20000388
 8001834:	20000048 	.word	0x20000048
 8001838:	20000118 	.word	0x20000118
 800183c:	200002a8 	.word	0x200002a8
 8001840:	200002f0 	.word	0x200002f0

08001844 <gpio_set_config>:

void gpio_set_config() {
 8001844:	b590      	push	{r4, r7, lr}
 8001846:	b083      	sub	sp, #12
 8001848:	af00      	add	r7, sp, #0
	// Set LED gpio
	led_orange = create_GPIO_Config(GPIOB, GPIO_PIN_14);	// Orange LED (Heartbeat LED)
 800184a:	4c30      	ldr	r4, [pc, #192]	; (800190c <gpio_set_config+0xc8>)
 800184c:	463b      	mov	r3, r7
 800184e:	f44f 4280 	mov.w	r2, #16384	; 0x4000
 8001852:	492f      	ldr	r1, [pc, #188]	; (8001910 <gpio_set_config+0xcc>)
 8001854:	4618      	mov	r0, r3
 8001856:	f7ff f9cb 	bl	8000bf0 <create_GPIO_Config>
 800185a:	4622      	mov	r2, r4
 800185c:	463b      	mov	r3, r7
 800185e:	e893 0003 	ldmia.w	r3, {r0, r1}
 8001862:	e882 0003 	stmia.w	r2, {r0, r1}
	led_green = create_GPIO_Config(GPIOB, GPIO_PIN_7);		// Green LED (Hard Drive LED)
 8001866:	4c2b      	ldr	r4, [pc, #172]	; (8001914 <gpio_set_config+0xd0>)
 8001868:	463b      	mov	r3, r7
 800186a:	2280      	movs	r2, #128	; 0x80
 800186c:	4928      	ldr	r1, [pc, #160]	; (8001910 <gpio_set_config+0xcc>)
 800186e:	4618      	mov	r0, r3
 8001870:	f7ff f9be 	bl	8000bf0 <create_GPIO_Config>
 8001874:	4622      	mov	r2, r4
 8001876:	463b      	mov	r3, r7
 8001878:	e893 0003 	ldmia.w	r3, {r0, r1}
 800187c:	e882 0003 	stmia.w	r2, {r0, r1}
//	status_led = create_GPIO_Config(GPIOB, GPIO_PIN_7);		//	TODO

	// SPI Flash 0 CS and WP
	cs_spi1 = create_GPIO_Config(GPIOC, GPIO_PIN_4);		// Change for SRAD
 8001880:	4c25      	ldr	r4, [pc, #148]	; (8001918 <gpio_set_config+0xd4>)
 8001882:	463b      	mov	r3, r7
 8001884:	2210      	movs	r2, #16
 8001886:	4925      	ldr	r1, [pc, #148]	; (800191c <gpio_set_config+0xd8>)
 8001888:	4618      	mov	r0, r3
 800188a:	f7ff f9b1 	bl	8000bf0 <create_GPIO_Config>
 800188e:	4622      	mov	r2, r4
 8001890:	463b      	mov	r3, r7
 8001892:	e893 0003 	ldmia.w	r3, {r0, r1}
 8001896:	e882 0003 	stmia.w	r2, {r0, r1}
	wp_spi1 = create_GPIO_Config(GPIOA, GPIO_PIN_4);
 800189a:	4c21      	ldr	r4, [pc, #132]	; (8001920 <gpio_set_config+0xdc>)
 800189c:	463b      	mov	r3, r7
 800189e:	2210      	movs	r2, #16
 80018a0:	4920      	ldr	r1, [pc, #128]	; (8001924 <gpio_set_config+0xe0>)
 80018a2:	4618      	mov	r0, r3
 80018a4:	f7ff f9a4 	bl	8000bf0 <create_GPIO_Config>
 80018a8:	4622      	mov	r2, r4
 80018aa:	463b      	mov	r3, r7
 80018ac:	e893 0003 	ldmia.w	r3, {r0, r1}
 80018b0:	e882 0003 	stmia.w	r2, {r0, r1}

	// SPI Flash 1 CS and WP
	cs_spi2 = create_GPIO_Config(GPIOC, GPIO_PIN_1);		// Change for SRAD
 80018b4:	4c1c      	ldr	r4, [pc, #112]	; (8001928 <gpio_set_config+0xe4>)
 80018b6:	463b      	mov	r3, r7
 80018b8:	2202      	movs	r2, #2
 80018ba:	4918      	ldr	r1, [pc, #96]	; (800191c <gpio_set_config+0xd8>)
 80018bc:	4618      	mov	r0, r3
 80018be:	f7ff f997 	bl	8000bf0 <create_GPIO_Config>
 80018c2:	4622      	mov	r2, r4
 80018c4:	463b      	mov	r3, r7
 80018c6:	e893 0003 	ldmia.w	r3, {r0, r1}
 80018ca:	e882 0003 	stmia.w	r2, {r0, r1}
	wp_spi2 = create_GPIO_Config(GPIOC, GPIO_PIN_0);
 80018ce:	4c17      	ldr	r4, [pc, #92]	; (800192c <gpio_set_config+0xe8>)
 80018d0:	463b      	mov	r3, r7
 80018d2:	2201      	movs	r2, #1
 80018d4:	4911      	ldr	r1, [pc, #68]	; (800191c <gpio_set_config+0xd8>)
 80018d6:	4618      	mov	r0, r3
 80018d8:	f7ff f98a 	bl	8000bf0 <create_GPIO_Config>
 80018dc:	4622      	mov	r2, r4
 80018de:	463b      	mov	r3, r7
 80018e0:	e893 0003 	ldmia.w	r3, {r0, r1}
 80018e4:	e882 0003 	stmia.w	r2, {r0, r1}

	// Flight Jumper GPIO Input
	jmp_flight = create_GPIO_Config(GPIOB, GPIO_PIN_1);
 80018e8:	4c11      	ldr	r4, [pc, #68]	; (8001930 <gpio_set_config+0xec>)
 80018ea:	463b      	mov	r3, r7
 80018ec:	2202      	movs	r2, #2
 80018ee:	4908      	ldr	r1, [pc, #32]	; (8001910 <gpio_set_config+0xcc>)
 80018f0:	4618      	mov	r0, r3
 80018f2:	f7ff f97d 	bl	8000bf0 <create_GPIO_Config>
 80018f6:	4622      	mov	r2, r4
 80018f8:	463b      	mov	r3, r7
 80018fa:	e893 0003 	ldmia.w	r3, {r0, r1}
 80018fe:	e882 0003 	stmia.w	r2, {r0, r1}
}
 8001902:	bf00      	nop
 8001904:	370c      	adds	r7, #12
 8001906:	46bd      	mov	sp, r7
 8001908:	bd90      	pop	{r4, r7, pc}
 800190a:	bf00      	nop
 800190c:	200005dc 	.word	0x200005dc
 8001910:	40020400 	.word	0x40020400
 8001914:	200005e4 	.word	0x200005e4
 8001918:	200005f4 	.word	0x200005f4
 800191c:	40020800 	.word	0x40020800
 8001920:	200005fc 	.word	0x200005fc
 8001924:	40020000 	.word	0x40020000
 8001928:	20000604 	.word	0x20000604
 800192c:	2000060c 	.word	0x2000060c
 8001930:	20000614 	.word	0x20000614

08001934 <handleCAN>:

void handleCAN() {
 8001934:	b580      	push	{r7, lr}
 8001936:	b084      	sub	sp, #16
 8001938:	af02      	add	r7, sp, #8
	// Process "clock-sync". Change flight-state to "rocket_loaded"
	if(CAN_RxHeader.StdId == CLK_SYNC_ID) {
 800193a:	4b2a      	ldr	r3, [pc, #168]	; (80019e4 <handleCAN+0xb0>)
 800193c:	681b      	ldr	r3, [r3, #0]
 800193e:	f240 72ff 	movw	r2, #2047	; 0x7ff
 8001942:	4293      	cmp	r3, r2
 8001944:	d10e      	bne.n	8001964 <handleCAN+0x30>
		flight_state = LOADED;
 8001946:	4b28      	ldr	r3, [pc, #160]	; (80019e8 <handleCAN+0xb4>)
 8001948:	2201      	movs	r2, #1
 800194a:	701a      	strb	r2, [r3, #0]
		uint8_t TxData[1] = {0x00};
 800194c:	2300      	movs	r3, #0
 800194e:	713b      	strb	r3, [r7, #4]
		sendCAN_TxMessage(&hcan2, 1, TxData, &CAN_TxMailbox, CLK_SYNC_ID);
 8001950:	1d3a      	adds	r2, r7, #4
 8001952:	f240 73ff 	movw	r3, #2047	; 0x7ff
 8001956:	9300      	str	r3, [sp, #0]
 8001958:	4b24      	ldr	r3, [pc, #144]	; (80019ec <handleCAN+0xb8>)
 800195a:	2101      	movs	r1, #1
 800195c:	4824      	ldr	r0, [pc, #144]	; (80019f0 <handleCAN+0xbc>)
 800195e:	f7fe ff55 	bl	800080c <sendCAN_TxMessage>

	// Transmit values from accelerometer
	else if(CAN_RxHeader.StdId == DUMMY_ID) {
		send_uart_hex(&huart2, sysStatus);
	}
}
 8001962:	e03a      	b.n	80019da <handleCAN+0xa6>
	else if(CAN_RxHeader.StdId == TX_BME280_0) {
 8001964:	4b1f      	ldr	r3, [pc, #124]	; (80019e4 <handleCAN+0xb0>)
 8001966:	681b      	ldr	r3, [r3, #0]
 8001968:	f240 5201 	movw	r2, #1281	; 0x501
 800196c:	4293      	cmp	r3, r2
 800196e:	d109      	bne.n	8001984 <handleCAN+0x50>
		sendCAN_TxMessage(&hcan2, 6, bme280_data_0, &CAN_TxMailbox, TX_BME280_0);
 8001970:	f240 5301 	movw	r3, #1281	; 0x501
 8001974:	9300      	str	r3, [sp, #0]
 8001976:	4b1d      	ldr	r3, [pc, #116]	; (80019ec <handleCAN+0xb8>)
 8001978:	4a1e      	ldr	r2, [pc, #120]	; (80019f4 <handleCAN+0xc0>)
 800197a:	2106      	movs	r1, #6
 800197c:	481c      	ldr	r0, [pc, #112]	; (80019f0 <handleCAN+0xbc>)
 800197e:	f7fe ff45 	bl	800080c <sendCAN_TxMessage>
}
 8001982:	e02a      	b.n	80019da <handleCAN+0xa6>
	else if(CAN_RxHeader.StdId == TX_BME280_1) {
 8001984:	4b17      	ldr	r3, [pc, #92]	; (80019e4 <handleCAN+0xb0>)
 8001986:	681b      	ldr	r3, [r3, #0]
 8001988:	f240 5202 	movw	r2, #1282	; 0x502
 800198c:	4293      	cmp	r3, r2
 800198e:	d109      	bne.n	80019a4 <handleCAN+0x70>
		sendCAN_TxMessage(&hcan2, 6, bme280_data_1, &CAN_TxMailbox, TX_BME280_1);
 8001990:	f240 5302 	movw	r3, #1282	; 0x502
 8001994:	9300      	str	r3, [sp, #0]
 8001996:	4b15      	ldr	r3, [pc, #84]	; (80019ec <handleCAN+0xb8>)
 8001998:	4a17      	ldr	r2, [pc, #92]	; (80019f8 <handleCAN+0xc4>)
 800199a:	2106      	movs	r1, #6
 800199c:	4814      	ldr	r0, [pc, #80]	; (80019f0 <handleCAN+0xbc>)
 800199e:	f7fe ff35 	bl	800080c <sendCAN_TxMessage>
}
 80019a2:	e01a      	b.n	80019da <handleCAN+0xa6>
	else if(CAN_RxHeader.StdId == TX_ACCEL) {
 80019a4:	4b0f      	ldr	r3, [pc, #60]	; (80019e4 <handleCAN+0xb0>)
 80019a6:	681b      	ldr	r3, [r3, #0]
 80019a8:	f240 5203 	movw	r2, #1283	; 0x503
 80019ac:	4293      	cmp	r3, r2
 80019ae:	d109      	bne.n	80019c4 <handleCAN+0x90>
		sendCAN_TxMessage(&hcan2, 6, accel_data, &CAN_TxMailbox, TX_ACCEL);
 80019b0:	f240 5303 	movw	r3, #1283	; 0x503
 80019b4:	9300      	str	r3, [sp, #0]
 80019b6:	4b0d      	ldr	r3, [pc, #52]	; (80019ec <handleCAN+0xb8>)
 80019b8:	4a10      	ldr	r2, [pc, #64]	; (80019fc <handleCAN+0xc8>)
 80019ba:	2106      	movs	r1, #6
 80019bc:	480c      	ldr	r0, [pc, #48]	; (80019f0 <handleCAN+0xbc>)
 80019be:	f7fe ff25 	bl	800080c <sendCAN_TxMessage>
}
 80019c2:	e00a      	b.n	80019da <handleCAN+0xa6>
	else if(CAN_RxHeader.StdId == DUMMY_ID) {
 80019c4:	4b07      	ldr	r3, [pc, #28]	; (80019e4 <handleCAN+0xb0>)
 80019c6:	681b      	ldr	r3, [r3, #0]
 80019c8:	f5b3 6fe0 	cmp.w	r3, #1792	; 0x700
 80019cc:	d105      	bne.n	80019da <handleCAN+0xa6>
		send_uart_hex(&huart2, sysStatus);
 80019ce:	4b0c      	ldr	r3, [pc, #48]	; (8001a00 <handleCAN+0xcc>)
 80019d0:	781b      	ldrb	r3, [r3, #0]
 80019d2:	4619      	mov	r1, r3
 80019d4:	480b      	ldr	r0, [pc, #44]	; (8001a04 <handleCAN+0xd0>)
 80019d6:	f001 fa5e 	bl	8002e96 <send_uart_hex>
}
 80019da:	bf00      	nop
 80019dc:	3708      	adds	r7, #8
 80019de:	46bd      	mov	sp, r7
 80019e0:	bd80      	pop	{r7, pc}
 80019e2:	bf00      	nop
 80019e4:	20000390 	.word	0x20000390
 80019e8:	2000061e 	.word	0x2000061e
 80019ec:	2000038c 	.word	0x2000038c
 80019f0:	20000048 	.word	0x20000048
 80019f4:	200005c4 	.word	0x200005c4
 80019f8:	200005cc 	.word	0x200005cc
 80019fc:	200005bc 	.word	0x200005bc
 8001a00:	2000061d 	.word	0x2000061d
 8001a04:	20000338 	.word	0x20000338

08001a08 <handleUART>:

void handleUART() {
 8001a08:	b590      	push	{r4, r7, lr}
 8001a0a:	b085      	sub	sp, #20
 8001a0c:	af02      	add	r7, sp, #8
	UART_HandleTypeDef *huart = &huart2;
 8001a0e:	4b8e      	ldr	r3, [pc, #568]	; (8001c48 <handleUART+0x240>)
 8001a10:	607b      	str	r3, [r7, #4]

	// Send Heartbeat to UART (data_rx[0] = "h")
	if (UARTRxData[0] == 0x68) {
 8001a12:	4b8e      	ldr	r3, [pc, #568]	; (8001c4c <handleUART+0x244>)
 8001a14:	781b      	ldrb	r3, [r3, #0]
 8001a16:	2b68      	cmp	r3, #104	; 0x68
 8001a18:	d109      	bne.n	8001a2e <handleUART+0x26>
		heartbeatUART(huart);
 8001a1a:	6878      	ldr	r0, [r7, #4]
 8001a1c:	f000 f9e0 	bl	8001de0 <heartbeatUART>
		send_uart_hex(huart, sysStatus);
 8001a20:	4b8b      	ldr	r3, [pc, #556]	; (8001c50 <handleUART+0x248>)
 8001a22:	781b      	ldrb	r3, [r3, #0]
 8001a24:	4619      	mov	r1, r3
 8001a26:	6878      	ldr	r0, [r7, #4]
 8001a28:	f001 fa35 	bl	8002e96 <send_uart_hex>
 8001a2c:	e102      	b.n	8001c34 <handleUART+0x22c>
	}

/***************************** SPI Flash ************************************************/
	// Erase specified flash chip (data_rx[0]  = "e")
	else if (UARTRxData[0] == 0x65) {
 8001a2e:	4b87      	ldr	r3, [pc, #540]	; (8001c4c <handleUART+0x244>)
 8001a30:	781b      	ldrb	r3, [r3, #0]
 8001a32:	2b65      	cmp	r3, #101	; 0x65
 8001a34:	d11e      	bne.n	8001a74 <handleUART+0x6c>
		if(decodeASCII(UARTRxData[1]) == 0) {
 8001a36:	4b85      	ldr	r3, [pc, #532]	; (8001c4c <handleUART+0x244>)
 8001a38:	785b      	ldrb	r3, [r3, #1]
 8001a3a:	4618      	mov	r0, r3
 8001a3c:	f000 f91a 	bl	8001c74 <decodeASCII>
 8001a40:	4603      	mov	r3, r0
 8001a42:	2b00      	cmp	r3, #0
 8001a44:	d106      	bne.n	8001a54 <handleUART+0x4c>
			eraseFlashSPI(&hspi1, huart, cs_spi1);
 8001a46:	4b83      	ldr	r3, [pc, #524]	; (8001c54 <handleUART+0x24c>)
 8001a48:	cb0c      	ldmia	r3, {r2, r3}
 8001a4a:	6879      	ldr	r1, [r7, #4]
 8001a4c:	4882      	ldr	r0, [pc, #520]	; (8001c58 <handleUART+0x250>)
 8001a4e:	f000 f9d3 	bl	8001df8 <eraseFlashSPI>
 8001a52:	e0ef      	b.n	8001c34 <handleUART+0x22c>
		} else if (decodeASCII(UARTRxData[1]) == 1) {
 8001a54:	4b7d      	ldr	r3, [pc, #500]	; (8001c4c <handleUART+0x244>)
 8001a56:	785b      	ldrb	r3, [r3, #1]
 8001a58:	4618      	mov	r0, r3
 8001a5a:	f000 f90b 	bl	8001c74 <decodeASCII>
 8001a5e:	4603      	mov	r3, r0
 8001a60:	2b01      	cmp	r3, #1
 8001a62:	f040 80e7 	bne.w	8001c34 <handleUART+0x22c>
			eraseFlashSPI(&hspi2, huart, cs_spi2);
 8001a66:	4b7d      	ldr	r3, [pc, #500]	; (8001c5c <handleUART+0x254>)
 8001a68:	cb0c      	ldmia	r3, {r2, r3}
 8001a6a:	6879      	ldr	r1, [r7, #4]
 8001a6c:	487c      	ldr	r0, [pc, #496]	; (8001c60 <handleUART+0x258>)
 8001a6e:	f000 f9c3 	bl	8001df8 <eraseFlashSPI>
 8001a72:	e0df      	b.n	8001c34 <handleUART+0x22c>
		}
	}

	// Read data from specified flash chip (data_rx[0] = "r")
	else if (UARTRxData[0] == 0x72) {
 8001a74:	4b75      	ldr	r3, [pc, #468]	; (8001c4c <handleUART+0x244>)
 8001a76:	781b      	ldrb	r3, [r3, #0]
 8001a78:	2b72      	cmp	r3, #114	; 0x72
 8001a7a:	d11e      	bne.n	8001aba <handleUART+0xb2>
		if(decodeASCII(UARTRxData[1]) == 0) {
 8001a7c:	4b73      	ldr	r3, [pc, #460]	; (8001c4c <handleUART+0x244>)
 8001a7e:	785b      	ldrb	r3, [r3, #1]
 8001a80:	4618      	mov	r0, r3
 8001a82:	f000 f8f7 	bl	8001c74 <decodeASCII>
 8001a86:	4603      	mov	r3, r0
 8001a88:	2b00      	cmp	r3, #0
 8001a8a:	d106      	bne.n	8001a9a <handleUART+0x92>
			readFlashToUART(&hspi1, huart, cs_spi1);
 8001a8c:	4b71      	ldr	r3, [pc, #452]	; (8001c54 <handleUART+0x24c>)
 8001a8e:	cb0c      	ldmia	r3, {r2, r3}
 8001a90:	6879      	ldr	r1, [r7, #4]
 8001a92:	4871      	ldr	r0, [pc, #452]	; (8001c58 <handleUART+0x250>)
 8001a94:	f000 f9ec 	bl	8001e70 <readFlashToUART>
 8001a98:	e0cc      	b.n	8001c34 <handleUART+0x22c>
		} else if (decodeASCII(UARTRxData[1]) == 1) {
 8001a9a:	4b6c      	ldr	r3, [pc, #432]	; (8001c4c <handleUART+0x244>)
 8001a9c:	785b      	ldrb	r3, [r3, #1]
 8001a9e:	4618      	mov	r0, r3
 8001aa0:	f000 f8e8 	bl	8001c74 <decodeASCII>
 8001aa4:	4603      	mov	r3, r0
 8001aa6:	2b01      	cmp	r3, #1
 8001aa8:	f040 80c4 	bne.w	8001c34 <handleUART+0x22c>
			readFlashToUART(&hspi2, huart, cs_spi2);
 8001aac:	4b6b      	ldr	r3, [pc, #428]	; (8001c5c <handleUART+0x254>)
 8001aae:	cb0c      	ldmia	r3, {r2, r3}
 8001ab0:	6879      	ldr	r1, [r7, #4]
 8001ab2:	486b      	ldr	r0, [pc, #428]	; (8001c60 <handleUART+0x258>)
 8001ab4:	f000 f9dc 	bl	8001e70 <readFlashToUART>
 8001ab8:	e0bc      	b.n	8001c34 <handleUART+0x22c>
		}
	}

	// Read Manufacturer over SPI (data_rx[0] = "m")
	else if (UARTRxData[0] == 0x6d) {
 8001aba:	4b64      	ldr	r3, [pc, #400]	; (8001c4c <handleUART+0x244>)
 8001abc:	781b      	ldrb	r3, [r3, #0]
 8001abe:	2b6d      	cmp	r3, #109	; 0x6d
 8001ac0:	d11e      	bne.n	8001b00 <handleUART+0xf8>
		if(decodeASCII(UARTRxData[1]) == 0) {
 8001ac2:	4b62      	ldr	r3, [pc, #392]	; (8001c4c <handleUART+0x244>)
 8001ac4:	785b      	ldrb	r3, [r3, #1]
 8001ac6:	4618      	mov	r0, r3
 8001ac8:	f000 f8d4 	bl	8001c74 <decodeASCII>
 8001acc:	4603      	mov	r3, r0
 8001ace:	2b00      	cmp	r3, #0
 8001ad0:	d106      	bne.n	8001ae0 <handleUART+0xd8>
			readFlashManuSPI(&hspi1, huart, cs_spi1);
 8001ad2:	4b60      	ldr	r3, [pc, #384]	; (8001c54 <handleUART+0x24c>)
 8001ad4:	cb0c      	ldmia	r3, {r2, r3}
 8001ad6:	6879      	ldr	r1, [r7, #4]
 8001ad8:	485f      	ldr	r0, [pc, #380]	; (8001c58 <handleUART+0x250>)
 8001ada:	f000 fa35 	bl	8001f48 <readFlashManuSPI>
 8001ade:	e0a9      	b.n	8001c34 <handleUART+0x22c>
		} else if (decodeASCII(UARTRxData[1]) == 1) {
 8001ae0:	4b5a      	ldr	r3, [pc, #360]	; (8001c4c <handleUART+0x244>)
 8001ae2:	785b      	ldrb	r3, [r3, #1]
 8001ae4:	4618      	mov	r0, r3
 8001ae6:	f000 f8c5 	bl	8001c74 <decodeASCII>
 8001aea:	4603      	mov	r3, r0
 8001aec:	2b01      	cmp	r3, #1
 8001aee:	f040 80a1 	bne.w	8001c34 <handleUART+0x22c>
			readFlashManuSPI(&hspi2, huart, cs_spi2);
 8001af2:	4b5a      	ldr	r3, [pc, #360]	; (8001c5c <handleUART+0x254>)
 8001af4:	cb0c      	ldmia	r3, {r2, r3}
 8001af6:	6879      	ldr	r1, [r7, #4]
 8001af8:	4859      	ldr	r0, [pc, #356]	; (8001c60 <handleUART+0x258>)
 8001afa:	f000 fa25 	bl	8001f48 <readFlashManuSPI>
 8001afe:	e099      	b.n	8001c34 <handleUART+0x22c>
		}
	}

	// Write a page over SPI (data_rx[0] = "w")
	else if (UARTRxData[0] == 0x77) {
 8001b00:	4b52      	ldr	r3, [pc, #328]	; (8001c4c <handleUART+0x244>)
 8001b02:	781b      	ldrb	r3, [r3, #0]
 8001b04:	2b77      	cmp	r3, #119	; 0x77
 8001b06:	d11d      	bne.n	8001b44 <handleUART+0x13c>
		if(decodeASCII(UARTRxData[1]) == 0) {
 8001b08:	4b50      	ldr	r3, [pc, #320]	; (8001c4c <handleUART+0x244>)
 8001b0a:	785b      	ldrb	r3, [r3, #1]
 8001b0c:	4618      	mov	r0, r3
 8001b0e:	f000 f8b1 	bl	8001c74 <decodeASCII>
 8001b12:	4603      	mov	r3, r0
 8001b14:	2b00      	cmp	r3, #0
 8001b16:	d106      	bne.n	8001b26 <handleUART+0x11e>
			writePageSPI_W(&hspi1, huart, cs_spi1);
 8001b18:	4b4e      	ldr	r3, [pc, #312]	; (8001c54 <handleUART+0x24c>)
 8001b1a:	cb0c      	ldmia	r3, {r2, r3}
 8001b1c:	6879      	ldr	r1, [r7, #4]
 8001b1e:	484e      	ldr	r0, [pc, #312]	; (8001c58 <handleUART+0x250>)
 8001b20:	f000 fa32 	bl	8001f88 <writePageSPI_W>
 8001b24:	e086      	b.n	8001c34 <handleUART+0x22c>
		} else if (decodeASCII(UARTRxData[1]) == 1) {
 8001b26:	4b49      	ldr	r3, [pc, #292]	; (8001c4c <handleUART+0x244>)
 8001b28:	785b      	ldrb	r3, [r3, #1]
 8001b2a:	4618      	mov	r0, r3
 8001b2c:	f000 f8a2 	bl	8001c74 <decodeASCII>
 8001b30:	4603      	mov	r3, r0
 8001b32:	2b01      	cmp	r3, #1
 8001b34:	d17e      	bne.n	8001c34 <handleUART+0x22c>
			writePageSPI_W(&hspi2, huart, cs_spi2);
 8001b36:	4b49      	ldr	r3, [pc, #292]	; (8001c5c <handleUART+0x254>)
 8001b38:	cb0c      	ldmia	r3, {r2, r3}
 8001b3a:	6879      	ldr	r1, [r7, #4]
 8001b3c:	4848      	ldr	r0, [pc, #288]	; (8001c60 <handleUART+0x258>)
 8001b3e:	f000 fa23 	bl	8001f88 <writePageSPI_W>
 8001b42:	e077      	b.n	8001c34 <handleUART+0x22c>
		}
	}

	// Software reset flash chip over SPI (data_rx[0] = "x")
	else if (UARTRxData[0] == 0x78) {
 8001b44:	4b41      	ldr	r3, [pc, #260]	; (8001c4c <handleUART+0x244>)
 8001b46:	781b      	ldrb	r3, [r3, #0]
 8001b48:	2b78      	cmp	r3, #120	; 0x78
 8001b4a:	d11d      	bne.n	8001b88 <handleUART+0x180>
		if(decodeASCII(UARTRxData[1]) == 0) {
 8001b4c:	4b3f      	ldr	r3, [pc, #252]	; (8001c4c <handleUART+0x244>)
 8001b4e:	785b      	ldrb	r3, [r3, #1]
 8001b50:	4618      	mov	r0, r3
 8001b52:	f000 f88f 	bl	8001c74 <decodeASCII>
 8001b56:	4603      	mov	r3, r0
 8001b58:	2b00      	cmp	r3, #0
 8001b5a:	d106      	bne.n	8001b6a <handleUART+0x162>
			resetSPIFlash(&hspi1, huart, cs_spi1);
 8001b5c:	4b3d      	ldr	r3, [pc, #244]	; (8001c54 <handleUART+0x24c>)
 8001b5e:	cb0c      	ldmia	r3, {r2, r3}
 8001b60:	6879      	ldr	r1, [r7, #4]
 8001b62:	483d      	ldr	r0, [pc, #244]	; (8001c58 <handleUART+0x250>)
 8001b64:	f000 fa64 	bl	8002030 <resetSPIFlash>
 8001b68:	e064      	b.n	8001c34 <handleUART+0x22c>
		} else if (decodeASCII(UARTRxData[1]) == 1) {
 8001b6a:	4b38      	ldr	r3, [pc, #224]	; (8001c4c <handleUART+0x244>)
 8001b6c:	785b      	ldrb	r3, [r3, #1]
 8001b6e:	4618      	mov	r0, r3
 8001b70:	f000 f880 	bl	8001c74 <decodeASCII>
 8001b74:	4603      	mov	r3, r0
 8001b76:	2b01      	cmp	r3, #1
 8001b78:	d15c      	bne.n	8001c34 <handleUART+0x22c>
			resetSPIFlash(&hspi2, huart, cs_spi2);
 8001b7a:	4b38      	ldr	r3, [pc, #224]	; (8001c5c <handleUART+0x254>)
 8001b7c:	cb0c      	ldmia	r3, {r2, r3}
 8001b7e:	6879      	ldr	r1, [r7, #4]
 8001b80:	4837      	ldr	r0, [pc, #220]	; (8001c60 <handleUART+0x258>)
 8001b82:	f000 fa55 	bl	8002030 <resetSPIFlash>
 8001b86:	e055      	b.n	8001c34 <handleUART+0x22c>
		}
	}

/*********************************** I2C Accelerometer ***********************************/
	// Read Accelerometer WhoAmI (data_rx[0] = "c")
	else if (UARTRxData[0] == 0x63) {
 8001b88:	4b30      	ldr	r3, [pc, #192]	; (8001c4c <handleUART+0x244>)
 8001b8a:	781b      	ldrb	r3, [r3, #0]
 8001b8c:	2b63      	cmp	r3, #99	; 0x63
 8001b8e:	d106      	bne.n	8001b9e <handleUART+0x196>
		checkAccelWhoAmI(i2c_accel, huart);
 8001b90:	4b34      	ldr	r3, [pc, #208]	; (8001c64 <handleUART+0x25c>)
 8001b92:	681b      	ldr	r3, [r3, #0]
 8001b94:	6879      	ldr	r1, [r7, #4]
 8001b96:	4618      	mov	r0, r3
 8001b98:	f000 fa62 	bl	8002060 <checkAccelWhoAmI>
 8001b9c:	e04a      	b.n	8001c34 <handleUART+0x22c>
	}

	// Read the accelerometer and print to the UART[0] (data_rx [0] = "a")
	else if (UARTRxData[0] == 0x61) {
 8001b9e:	4b2b      	ldr	r3, [pc, #172]	; (8001c4c <handleUART+0x244>)
 8001ba0:	781b      	ldrb	r3, [r3, #0]
 8001ba2:	2b61      	cmp	r3, #97	; 0x61
 8001ba4:	d103      	bne.n	8001bae <handleUART+0x1a6>
		accelToUART(huart);
 8001ba6:	6878      	ldr	r0, [r7, #4]
 8001ba8:	f000 fa6e 	bl	8002088 <accelToUART>
 8001bac:	e042      	b.n	8001c34 <handleUART+0x22c>
	}

/********************************** I2C BME280 *******************************************/
	// Read the temp sensor ID and print to the UART[0] (data_rx [0]= "b")
	else if (UARTRxData[0] == 0x62) {
 8001bae:	4b27      	ldr	r3, [pc, #156]	; (8001c4c <handleUART+0x244>)
 8001bb0:	781b      	ldrb	r3, [r3, #0]
 8001bb2:	2b62      	cmp	r3, #98	; 0x62
 8001bb4:	d10d      	bne.n	8001bd2 <handleUART+0x1ca>
		readTempSensorID(i2c_bme280, huart, decodeASCII(UARTRxData[1]));
 8001bb6:	4b2c      	ldr	r3, [pc, #176]	; (8001c68 <handleUART+0x260>)
 8001bb8:	681c      	ldr	r4, [r3, #0]
 8001bba:	4b24      	ldr	r3, [pc, #144]	; (8001c4c <handleUART+0x244>)
 8001bbc:	785b      	ldrb	r3, [r3, #1]
 8001bbe:	4618      	mov	r0, r3
 8001bc0:	f000 f858 	bl	8001c74 <decodeASCII>
 8001bc4:	4603      	mov	r3, r0
 8001bc6:	461a      	mov	r2, r3
 8001bc8:	6879      	ldr	r1, [r7, #4]
 8001bca:	4620      	mov	r0, r4
 8001bcc:	f000 fa78 	bl	80020c0 <readTempSensorID>
 8001bd0:	e030      	b.n	8001c34 <handleUART+0x22c>
	}

	// Read the temp sensor calibration registers and print to the UART (data_rx[0] = "p")
	else if (UARTRxData[0] == 0x70) {
 8001bd2:	4b1e      	ldr	r3, [pc, #120]	; (8001c4c <handleUART+0x244>)
 8001bd4:	781b      	ldrb	r3, [r3, #0]
 8001bd6:	2b70      	cmp	r3, #112	; 0x70
 8001bd8:	d10d      	bne.n	8001bf6 <handleUART+0x1ee>
		readTempCalibration(i2c_bme280, huart, decodeASCII(UARTRxData[1]));
 8001bda:	4b23      	ldr	r3, [pc, #140]	; (8001c68 <handleUART+0x260>)
 8001bdc:	681c      	ldr	r4, [r3, #0]
 8001bde:	4b1b      	ldr	r3, [pc, #108]	; (8001c4c <handleUART+0x244>)
 8001be0:	785b      	ldrb	r3, [r3, #1]
 8001be2:	4618      	mov	r0, r3
 8001be4:	f000 f846 	bl	8001c74 <decodeASCII>
 8001be8:	4603      	mov	r3, r0
 8001bea:	461a      	mov	r2, r3
 8001bec:	6879      	ldr	r1, [r7, #4]
 8001bee:	4620      	mov	r0, r4
 8001bf0:	f000 fa7b 	bl	80020ea <readTempCalibration>
 8001bf4:	e01e      	b.n	8001c34 <handleUART+0x22c>
	}

	// Read the temp sensor and print to the UART[0] (data_rx [0]= "t")
	else if (UARTRxData[0] == 0x74) {
 8001bf6:	4b15      	ldr	r3, [pc, #84]	; (8001c4c <handleUART+0x244>)
 8001bf8:	781b      	ldrb	r3, [r3, #0]
 8001bfa:	2b74      	cmp	r3, #116	; 0x74
 8001bfc:	d10a      	bne.n	8001c14 <handleUART+0x20c>
		readTempSensor(huart, decodeASCII(UARTRxData[1]));
 8001bfe:	4b13      	ldr	r3, [pc, #76]	; (8001c4c <handleUART+0x244>)
 8001c00:	785b      	ldrb	r3, [r3, #1]
 8001c02:	4618      	mov	r0, r3
 8001c04:	f000 f836 	bl	8001c74 <decodeASCII>
 8001c08:	4603      	mov	r3, r0
 8001c0a:	4619      	mov	r1, r3
 8001c0c:	6878      	ldr	r0, [r7, #4]
 8001c0e:	f000 fac3 	bl	8002198 <readTempSensor>
 8001c12:	e00f      	b.n	8001c34 <handleUART+0x22c>
	}

	/********************************** CAN Bus *******************************************/
	// Send the second byte received over the CAN bus as a payload with id 0x700 (data_rx [0]= "n")
	else if (UARTRxData[0] == 0x6E) {
 8001c14:	4b0d      	ldr	r3, [pc, #52]	; (8001c4c <handleUART+0x244>)
 8001c16:	781b      	ldrb	r3, [r3, #0]
 8001c18:	2b6e      	cmp	r3, #110	; 0x6e
 8001c1a:	d10b      	bne.n	8001c34 <handleUART+0x22c>
		uint8_t TxData[1] = {UARTRxData[1]};
 8001c1c:	4b0b      	ldr	r3, [pc, #44]	; (8001c4c <handleUART+0x244>)
 8001c1e:	785b      	ldrb	r3, [r3, #1]
 8001c20:	703b      	strb	r3, [r7, #0]
		sendCAN_TxMessage(&hcan2, 1, TxData, &CAN_TxMailbox, DUMMY_ID);
 8001c22:	463a      	mov	r2, r7
 8001c24:	f44f 63e0 	mov.w	r3, #1792	; 0x700
 8001c28:	9300      	str	r3, [sp, #0]
 8001c2a:	4b10      	ldr	r3, [pc, #64]	; (8001c6c <handleUART+0x264>)
 8001c2c:	2101      	movs	r1, #1
 8001c2e:	4810      	ldr	r0, [pc, #64]	; (8001c70 <handleUART+0x268>)
 8001c30:	f7fe fdec 	bl	800080c <sendCAN_TxMessage>
	}

	UARTRxData[0] = 0x00;
 8001c34:	4b05      	ldr	r3, [pc, #20]	; (8001c4c <handleUART+0x244>)
 8001c36:	2200      	movs	r2, #0
 8001c38:	701a      	strb	r2, [r3, #0]
	UARTRxData[1] = 0x00;
 8001c3a:	4b04      	ldr	r3, [pc, #16]	; (8001c4c <handleUART+0x244>)
 8001c3c:	2200      	movs	r2, #0
 8001c3e:	705a      	strb	r2, [r3, #1]
}
 8001c40:	bf00      	nop
 8001c42:	370c      	adds	r7, #12
 8001c44:	46bd      	mov	sp, r7
 8001c46:	bd90      	pop	{r4, r7, pc}
 8001c48:	20000338 	.word	0x20000338
 8001c4c:	20000388 	.word	0x20000388
 8001c50:	2000061d 	.word	0x2000061d
 8001c54:	200005f4 	.word	0x200005f4
 8001c58:	20000138 	.word	0x20000138
 8001c5c:	20000604 	.word	0x20000604
 8001c60:	20000190 	.word	0x20000190
 8001c64:	20000380 	.word	0x20000380
 8001c68:	20000384 	.word	0x20000384
 8001c6c:	2000038c 	.word	0x2000038c
 8001c70:	20000048 	.word	0x20000048

08001c74 <decodeASCII>:

uint8_t decodeASCII(uint8_t asciiVal) {
 8001c74:	b480      	push	{r7}
 8001c76:	b085      	sub	sp, #20
 8001c78:	af00      	add	r7, sp, #0
 8001c7a:	4603      	mov	r3, r0
 8001c7c:	71fb      	strb	r3, [r7, #7]
	int returnVal = -1;
 8001c7e:	f04f 33ff 	mov.w	r3, #4294967295	; 0xffffffff
 8001c82:	60fb      	str	r3, [r7, #12]
	if ((asciiVal >= 48) && (asciiVal <= 57)) {
 8001c84:	79fb      	ldrb	r3, [r7, #7]
 8001c86:	2b2f      	cmp	r3, #47	; 0x2f
 8001c88:	d905      	bls.n	8001c96 <decodeASCII+0x22>
 8001c8a:	79fb      	ldrb	r3, [r7, #7]
 8001c8c:	2b39      	cmp	r3, #57	; 0x39
 8001c8e:	d802      	bhi.n	8001c96 <decodeASCII+0x22>
		returnVal = asciiVal - 48;
 8001c90:	79fb      	ldrb	r3, [r7, #7]
 8001c92:	3b30      	subs	r3, #48	; 0x30
 8001c94:	60fb      	str	r3, [r7, #12]
	}
	return returnVal;
 8001c96:	68fb      	ldr	r3, [r7, #12]
 8001c98:	b2db      	uxtb	r3, r3
}
 8001c9a:	4618      	mov	r0, r3
 8001c9c:	3714      	adds	r7, #20
 8001c9e:	46bd      	mov	sp, r7
 8001ca0:	f85d 7b04 	ldr.w	r7, [sp], #4
 8001ca4:	4770      	bx	lr
	...

08001ca8 <combine_system_status>:

uint8_t combine_system_status() {
 8001ca8:	b480      	push	{r7}
 8001caa:	b083      	sub	sp, #12
 8001cac:	af00      	add	r7, sp, #0
    // Mask status to use only bits 4:0
    uint8_t masked_status = sysStatus & 0x1F; 			// 0001 1111b
 8001cae:	4b0c      	ldr	r3, [pc, #48]	; (8001ce0 <combine_system_status+0x38>)
 8001cb0:	781b      	ldrb	r3, [r3, #0]
 8001cb2:	f003 031f 	and.w	r3, r3, #31
 8001cb6:	71fb      	strb	r3, [r7, #7]

    // Mask flight_state to use only bits 2:0
    uint8_t masked_flight_state = flight_state & 0x07; 	// 0000 0111b
 8001cb8:	4b0a      	ldr	r3, [pc, #40]	; (8001ce4 <combine_system_status+0x3c>)
 8001cba:	781b      	ldrb	r3, [r3, #0]
 8001cbc:	f003 0307 	and.w	r3, r3, #7
 8001cc0:	71bb      	strb	r3, [r7, #6]
    // Shift flight_state to the correct position (bits 7:5)
    uint8_t shifted_flight_state = masked_flight_state << 5;
 8001cc2:	79bb      	ldrb	r3, [r7, #6]
 8001cc4:	015b      	lsls	r3, r3, #5
 8001cc6:	717b      	strb	r3, [r7, #5]

    // Combine the masked_status and shifted_flight_state
    uint8_t combined_value = masked_status | shifted_flight_state;
 8001cc8:	79fa      	ldrb	r2, [r7, #7]
 8001cca:	797b      	ldrb	r3, [r7, #5]
 8001ccc:	4313      	orrs	r3, r2
 8001cce:	713b      	strb	r3, [r7, #4]

    return combined_value;
 8001cd0:	793b      	ldrb	r3, [r7, #4]
}
 8001cd2:	4618      	mov	r0, r3
 8001cd4:	370c      	adds	r7, #12
 8001cd6:	46bd      	mov	sp, r7
 8001cd8:	f85d 7b04 	ldr.w	r7, [sp], #4
 8001cdc:	4770      	bx	lr
 8001cde:	bf00      	nop
 8001ce0:	2000061d 	.word	0x2000061d
 8001ce4:	2000061e 	.word	0x2000061e

08001ce8 <configureCAN>:

void configureCAN() {
 8001ce8:	b580      	push	{r7, lr}
 8001cea:	b08a      	sub	sp, #40	; 0x28
 8001cec:	af00      	add	r7, sp, #0
	CAN_FilterTypeDef canFilterConfig;

	canFilterConfig.FilterActivation = CAN_FILTER_ENABLE;
 8001cee:	2301      	movs	r3, #1
 8001cf0:	623b      	str	r3, [r7, #32]
	canFilterConfig.FilterBank = 10;
 8001cf2:	230a      	movs	r3, #10
 8001cf4:	617b      	str	r3, [r7, #20]
	canFilterConfig.FilterFIFOAssignment = CAN_RX_FIFO0;
 8001cf6:	2300      	movs	r3, #0
 8001cf8:	613b      	str	r3, [r7, #16]
	canFilterConfig.FilterIdHigh = 0x500 << 5;				// Filter only messages with ID 1X1XXXXXXXXb
 8001cfa:	f44f 4320 	mov.w	r3, #40960	; 0xa000
 8001cfe:	603b      	str	r3, [r7, #0]
	canFilterConfig.FilterIdLow = 0x0000;
 8001d00:	2300      	movs	r3, #0
 8001d02:	607b      	str	r3, [r7, #4]
	canFilterConfig.FilterMaskIdHigh = 0x500 << 5;
 8001d04:	f44f 4320 	mov.w	r3, #40960	; 0xa000
 8001d08:	60bb      	str	r3, [r7, #8]
	canFilterConfig.FilterMaskIdLow = 0x0000;
 8001d0a:	2300      	movs	r3, #0
 8001d0c:	60fb      	str	r3, [r7, #12]
	canFilterConfig.FilterMode = CAN_FILTERMODE_IDMASK;
 8001d0e:	2300      	movs	r3, #0
 8001d10:	61bb      	str	r3, [r7, #24]
	canFilterConfig.FilterScale = CAN_FILTERSCALE_32BIT;
 8001d12:	2301      	movs	r3, #1
 8001d14:	61fb      	str	r3, [r7, #28]
	canFilterConfig.SlaveStartFilterBank = 0;
 8001d16:	2300      	movs	r3, #0
 8001d18:	627b      	str	r3, [r7, #36]	; 0x24

	HAL_CAN_ConfigFilter(&hcan2, &canFilterConfig);
 8001d1a:	463b      	mov	r3, r7
 8001d1c:	4619      	mov	r1, r3
 8001d1e:	4803      	ldr	r0, [pc, #12]	; (8001d2c <configureCAN+0x44>)
 8001d20:	f001 fa8a 	bl	8003238 <HAL_CAN_ConfigFilter>
}
 8001d24:	bf00      	nop
 8001d26:	3728      	adds	r7, #40	; 0x28
 8001d28:	46bd      	mov	sp, r7
 8001d2a:	bd80      	pop	{r7, pc}
 8001d2c:	20000048 	.word	0x20000048

08001d30 <Error_Handler>:
/**
  * @brief  This function is executed in case of error occurrence.
  * @retval None
  */
void Error_Handler(void)
{
 8001d30:	b480      	push	{r7}
 8001d32:	af00      	add	r7, sp, #0
  \details Disables IRQ interrupts by setting special-purpose register PRIMASK.
           Can only be executed in Privileged modes.
 */
__STATIC_FORCEINLINE void __disable_irq(void)
{
  __ASM volatile ("cpsid i" : : : "memory");
 8001d34:	b672      	cpsid	i
}
 8001d36:	bf00      	nop
  /* USER CODE BEGIN Error_Handler_Debug */
  /* User can add his own implementation to report the HAL error return state */
  __disable_irq();
  while (1)
 8001d38:	e7fe      	b.n	8001d38 <Error_Handler+0x8>
	...

08001d3c <systemStatus>:

#include "peripheral_driver.h"
/***************************************************************************************************************
 * Generic Functions
 */
uint8_t systemStatus(SPI_HandleTypeDef *hspi1, SPI_HandleTypeDef *hspi2, I2C_HandleTypeDef* hi2c1, I2C_HandleTypeDef* hi2c2) {
 8001d3c:	b580      	push	{r7, lr}
 8001d3e:	b086      	sub	sp, #24
 8001d40:	af00      	add	r7, sp, #0
 8001d42:	60f8      	str	r0, [r7, #12]
 8001d44:	60b9      	str	r1, [r7, #8]
 8001d46:	607a      	str	r2, [r7, #4]
 8001d48:	603b      	str	r3, [r7, #0]
	uint8_t retVal = 0x00;
 8001d4a:	2300      	movs	r3, #0
 8001d4c:	75fb      	strb	r3, [r7, #23]

	// Check BME280_1
	if(readBME280_id_reg(hi2c1, 1) != 0x60) {			// Expected 0x60
 8001d4e:	2101      	movs	r1, #1
 8001d50:	6878      	ldr	r0, [r7, #4]
 8001d52:	f7fe fceb 	bl	800072c <readBME280_id_reg>
 8001d56:	4603      	mov	r3, r0
 8001d58:	2b60      	cmp	r3, #96	; 0x60
 8001d5a:	d003      	beq.n	8001d64 <systemStatus+0x28>
		retVal  = retVal | 0x10;
 8001d5c:	7dfb      	ldrb	r3, [r7, #23]
 8001d5e:	f043 0310 	orr.w	r3, r3, #16
 8001d62:	75fb      	strb	r3, [r7, #23]
	}

	// Check BME280_0
	if(readBME280_id_reg(hi2c1, 0) != 0x60) {			// Expected 0x60
 8001d64:	2100      	movs	r1, #0
 8001d66:	6878      	ldr	r0, [r7, #4]
 8001d68:	f7fe fce0 	bl	800072c <readBME280_id_reg>
 8001d6c:	4603      	mov	r3, r0
 8001d6e:	2b60      	cmp	r3, #96	; 0x60
 8001d70:	d003      	beq.n	8001d7a <systemStatus+0x3e>
		retVal  = retVal | 0x08;
 8001d72:	7dfb      	ldrb	r3, [r7, #23]
 8001d74:	f043 0308 	orr.w	r3, r3, #8
 8001d78:	75fb      	strb	r3, [r7, #23]
	}

	// Check Accelerometer
	if(readAccel_whoami(hi2c2) != 0xE5) {				// Expected 0xE5
 8001d7a:	6838      	ldr	r0, [r7, #0]
 8001d7c:	f7fe fc18 	bl	80005b0 <readAccel_whoami>
 8001d80:	4603      	mov	r3, r0
 8001d82:	2be5      	cmp	r3, #229	; 0xe5
 8001d84:	d003      	beq.n	8001d8e <systemStatus+0x52>
		retVal  = retVal | 0x04;
 8001d86:	7dfb      	ldrb	r3, [r7, #23]
 8001d88:	f043 0304 	orr.w	r3, r3, #4
 8001d8c:	75fb      	strb	r3, [r7, #23]
	}

	// Check SPIFlash_1
	uint8_t manu[2] = {0, 0};
 8001d8e:	2300      	movs	r3, #0
 8001d90:	82bb      	strh	r3, [r7, #20]
	read_manufacturer_id(manu, hspi2, cs_spi2);
 8001d92:	4b11      	ldr	r3, [pc, #68]	; (8001dd8 <systemStatus+0x9c>)
 8001d94:	f107 0014 	add.w	r0, r7, #20
 8001d98:	cb0c      	ldmia	r3, {r2, r3}
 8001d9a:	68b9      	ldr	r1, [r7, #8]
 8001d9c:	f7fe ff06 	bl	8000bac <read_manufacturer_id>
	if(manu[0] != 0xEF) {								// Expected 0xEF
 8001da0:	7d3b      	ldrb	r3, [r7, #20]
 8001da2:	2bef      	cmp	r3, #239	; 0xef
 8001da4:	d003      	beq.n	8001dae <systemStatus+0x72>
		retVal  = retVal | 0x02;
 8001da6:	7dfb      	ldrb	r3, [r7, #23]
 8001da8:	f043 0302 	orr.w	r3, r3, #2
 8001dac:	75fb      	strb	r3, [r7, #23]
	}

	// Check SPIFlash_0
	uint8_t manu0[2] = {0, 0};
 8001dae:	2300      	movs	r3, #0
 8001db0:	823b      	strh	r3, [r7, #16]
	read_manufacturer_id(manu0, hspi1, cs_spi1);
 8001db2:	4b0a      	ldr	r3, [pc, #40]	; (8001ddc <systemStatus+0xa0>)
 8001db4:	f107 0010 	add.w	r0, r7, #16
 8001db8:	cb0c      	ldmia	r3, {r2, r3}
 8001dba:	68f9      	ldr	r1, [r7, #12]
 8001dbc:	f7fe fef6 	bl	8000bac <read_manufacturer_id>
	if(manu0[0] != 0xEF) {								// Expected 0xEF
 8001dc0:	7c3b      	ldrb	r3, [r7, #16]
 8001dc2:	2bef      	cmp	r3, #239	; 0xef
 8001dc4:	d003      	beq.n	8001dce <systemStatus+0x92>
		retVal  = retVal | 0x01;
 8001dc6:	7dfb      	ldrb	r3, [r7, #23]
 8001dc8:	f043 0301 	orr.w	r3, r3, #1
 8001dcc:	75fb      	strb	r3, [r7, #23]
	}
	return retVal;
 8001dce:	7dfb      	ldrb	r3, [r7, #23]
}
 8001dd0:	4618      	mov	r0, r3
 8001dd2:	3718      	adds	r7, #24
 8001dd4:	46bd      	mov	sp, r7
 8001dd6:	bd80      	pop	{r7, pc}
 8001dd8:	20000604 	.word	0x20000604
 8001ddc:	200005f4 	.word	0x200005f4

08001de0 <heartbeatUART>:

void heartbeatUART(UART_HandleTypeDef *huart) {
 8001de0:	b580      	push	{r7, lr}
 8001de2:	b082      	sub	sp, #8
 8001de4:	af00      	add	r7, sp, #0
 8001de6:	6078      	str	r0, [r7, #4]
	send_uart_hex(huart, 0x51);			// Transmit the heartbeat as device ID (0x51 = Q)
 8001de8:	2151      	movs	r1, #81	; 0x51
 8001dea:	6878      	ldr	r0, [r7, #4]
 8001dec:	f001 f853 	bl	8002e96 <send_uart_hex>
}
 8001df0:	bf00      	nop
 8001df2:	3708      	adds	r7, #8
 8001df4:	46bd      	mov	sp, r7
 8001df6:	bd80      	pop	{r7, pc}

08001df8 <eraseFlashSPI>:

/***************************************************************************************************************
 * SPI Flash Functions
 */
void eraseFlashSPI(SPI_HandleTypeDef *hspi, UART_HandleTypeDef *huart, GPIO_Config config) {
 8001df8:	b580      	push	{r7, lr}
 8001dfa:	b084      	sub	sp, #16
 8001dfc:	af00      	add	r7, sp, #0
 8001dfe:	60f8      	str	r0, [r7, #12]
 8001e00:	60b9      	str	r1, [r7, #8]
 8001e02:	4639      	mov	r1, r7
 8001e04:	e881 000c 	stmia.w	r1, {r2, r3}
	HAL_GPIO_WritePin(GPIOB, GPIO_PIN_7, GPIO_PIN_SET);		// Activate the "write out" LED
 8001e08:	2201      	movs	r2, #1
 8001e0a:	2180      	movs	r1, #128	; 0x80
 8001e0c:	4813      	ldr	r0, [pc, #76]	; (8001e5c <eraseFlashSPI+0x64>)
 8001e0e:	f002 fe57 	bl	8004ac0 <HAL_GPIO_WritePin>
	if (erase_chip_spi(hspi, config) == HAL_OK) {
 8001e12:	463b      	mov	r3, r7
 8001e14:	e893 0006 	ldmia.w	r3, {r1, r2}
 8001e18:	68f8      	ldr	r0, [r7, #12]
 8001e1a:	f7fe fd7b 	bl	8000914 <erase_chip_spi>
 8001e1e:	4603      	mov	r3, r0
 8001e20:	2b00      	cmp	r3, #0
 8001e22:	d10d      	bne.n	8001e40 <eraseFlashSPI+0x48>
		send_uart_string(huart, "Successful Chip Erase\r\n");
 8001e24:	490e      	ldr	r1, [pc, #56]	; (8001e60 <eraseFlashSPI+0x68>)
 8001e26:	68b8      	ldr	r0, [r7, #8]
 8001e28:	f001 f821 	bl	8002e6e <send_uart_string>
		next_blank_page = find_next_blank_page(hspi, &end_of_flash, config);
 8001e2c:	463b      	mov	r3, r7
 8001e2e:	cb0c      	ldmia	r3, {r2, r3}
 8001e30:	490c      	ldr	r1, [pc, #48]	; (8001e64 <eraseFlashSPI+0x6c>)
 8001e32:	68f8      	ldr	r0, [r7, #12]
 8001e34:	f7fe fdfc 	bl	8000a30 <find_next_blank_page>
 8001e38:	4603      	mov	r3, r0
 8001e3a:	4a0b      	ldr	r2, [pc, #44]	; (8001e68 <eraseFlashSPI+0x70>)
 8001e3c:	6013      	str	r3, [r2, #0]
 8001e3e:	e003      	b.n	8001e48 <eraseFlashSPI+0x50>
	} else {
		send_uart_string(huart, "Error during chip erase. Please check the connection and try again.\r\n");
 8001e40:	490a      	ldr	r1, [pc, #40]	; (8001e6c <eraseFlashSPI+0x74>)
 8001e42:	68b8      	ldr	r0, [r7, #8]
 8001e44:	f001 f813 	bl	8002e6e <send_uart_string>
	}
	HAL_GPIO_WritePin(GPIOB, GPIO_PIN_7,GPIO_PIN_RESET);	// Deactivate the "write out" LED
 8001e48:	2200      	movs	r2, #0
 8001e4a:	2180      	movs	r1, #128	; 0x80
 8001e4c:	4803      	ldr	r0, [pc, #12]	; (8001e5c <eraseFlashSPI+0x64>)
 8001e4e:	f002 fe37 	bl	8004ac0 <HAL_GPIO_WritePin>
}
 8001e52:	bf00      	nop
 8001e54:	3710      	adds	r7, #16
 8001e56:	46bd      	mov	sp, r7
 8001e58:	bd80      	pop	{r7, pc}
 8001e5a:	bf00      	nop
 8001e5c:	40020400 	.word	0x40020400
 8001e60:	08009478 	.word	0x08009478
 8001e64:	200005da 	.word	0x200005da
 8001e68:	200005d4 	.word	0x200005d4
 8001e6c:	08009490 	.word	0x08009490

08001e70 <readFlashToUART>:

void readFlashToUART(SPI_HandleTypeDef *hspi, UART_HandleTypeDef *huart, GPIO_Config config) {
 8001e70:	b590      	push	{r4, r7, lr}
 8001e72:	b0cb      	sub	sp, #300	; 0x12c
 8001e74:	af02      	add	r7, sp, #8
 8001e76:	f507 7490 	add.w	r4, r7, #288	; 0x120
 8001e7a:	f5a4 748a 	sub.w	r4, r4, #276	; 0x114
 8001e7e:	6020      	str	r0, [r4, #0]
 8001e80:	f507 7090 	add.w	r0, r7, #288	; 0x120
 8001e84:	f5a0 708c 	sub.w	r0, r0, #280	; 0x118
 8001e88:	6001      	str	r1, [r0, #0]
 8001e8a:	f507 7190 	add.w	r1, r7, #288	; 0x120
 8001e8e:	f5a1 7190 	sub.w	r1, r1, #288	; 0x120
 8001e92:	e881 000c 	stmia.w	r1, {r2, r3}
	uint32_t num_of_pages = next_blank_page;
 8001e96:	4b2a      	ldr	r3, [pc, #168]	; (8001f40 <readFlashToUART+0xd0>)
 8001e98:	681b      	ldr	r3, [r3, #0]
 8001e9a:	f8c7 311c 	str.w	r3, [r7, #284]	; 0x11c
	if(num_of_pages == 0) {
 8001e9e:	f8d7 311c 	ldr.w	r3, [r7, #284]	; 0x11c
 8001ea2:	2b00      	cmp	r3, #0
 8001ea4:	d103      	bne.n	8001eae <readFlashToUART+0x3e>
		num_of_pages = PAGE_SIZE;
 8001ea6:	f44f 7380 	mov.w	r3, #256	; 0x100
 8001eaa:	f8c7 311c 	str.w	r3, [r7, #284]	; 0x11c
	}
	num_of_pages = num_of_pages/PAGE_SIZE;
 8001eae:	f8d7 311c 	ldr.w	r3, [r7, #284]	; 0x11c
 8001eb2:	0a1b      	lsrs	r3, r3, #8
 8001eb4:	f8c7 311c 	str.w	r3, [r7, #284]	; 0x11c
	uint32_t address = 0;
 8001eb8:	2300      	movs	r3, #0
 8001eba:	f8c7 3118 	str.w	r3, [r7, #280]	; 0x118
	HAL_GPIO_WritePin(GPIOB, GPIO_PIN_7,GPIO_PIN_SET);		// Activate the "write out" LED
 8001ebe:	2201      	movs	r2, #1
 8001ec0:	2180      	movs	r1, #128	; 0x80
 8001ec2:	4820      	ldr	r0, [pc, #128]	; (8001f44 <readFlashToUART+0xd4>)
 8001ec4:	f002 fdfc 	bl	8004ac0 <HAL_GPIO_WritePin>

	for (int i = 0; i < (num_of_pages); i++) {
 8001ec8:	2300      	movs	r3, #0
 8001eca:	f8c7 3114 	str.w	r3, [r7, #276]	; 0x114
 8001ece:	e026      	b.n	8001f1e <readFlashToUART+0xae>
		uint8_t page[PAGE_SIZE];
		read_page_spi(page, hspi, address, config);
 8001ed0:	f507 7390 	add.w	r3, r7, #288	; 0x120
 8001ed4:	f5a3 7390 	sub.w	r3, r3, #288	; 0x120
 8001ed8:	f507 7290 	add.w	r2, r7, #288	; 0x120
 8001edc:	f5a2 718a 	sub.w	r1, r2, #276	; 0x114
 8001ee0:	f107 0014 	add.w	r0, r7, #20
 8001ee4:	685a      	ldr	r2, [r3, #4]
 8001ee6:	9200      	str	r2, [sp, #0]
 8001ee8:	681b      	ldr	r3, [r3, #0]
 8001eea:	f8d7 2118 	ldr.w	r2, [r7, #280]	; 0x118
 8001eee:	6809      	ldr	r1, [r1, #0]
 8001ef0:	f7fe fe36 	bl	8000b60 <read_page_spi>
		uart_transmit_page(huart, page);						// Transmit the data//
 8001ef4:	f107 0214 	add.w	r2, r7, #20
 8001ef8:	f507 7390 	add.w	r3, r7, #288	; 0x120
 8001efc:	f5a3 738c 	sub.w	r3, r3, #280	; 0x118
 8001f00:	4611      	mov	r1, r2
 8001f02:	6818      	ldr	r0, [r3, #0]
 8001f04:	f000 ffa2 	bl	8002e4c <uart_transmit_page>
		address += PAGE_SIZE;
 8001f08:	f8d7 3118 	ldr.w	r3, [r7, #280]	; 0x118
 8001f0c:	f503 7380 	add.w	r3, r3, #256	; 0x100
 8001f10:	f8c7 3118 	str.w	r3, [r7, #280]	; 0x118
	for (int i = 0; i < (num_of_pages); i++) {
 8001f14:	f8d7 3114 	ldr.w	r3, [r7, #276]	; 0x114
 8001f18:	3301      	adds	r3, #1
 8001f1a:	f8c7 3114 	str.w	r3, [r7, #276]	; 0x114
 8001f1e:	f8d7 3114 	ldr.w	r3, [r7, #276]	; 0x114
 8001f22:	f8d7 211c 	ldr.w	r2, [r7, #284]	; 0x11c
 8001f26:	429a      	cmp	r2, r3
 8001f28:	d8d2      	bhi.n	8001ed0 <readFlashToUART+0x60>
	}

	HAL_GPIO_WritePin(GPIOB, GPIO_PIN_7,GPIO_PIN_RESET);	// Deactivate the "write out" LED
 8001f2a:	2200      	movs	r2, #0
 8001f2c:	2180      	movs	r1, #128	; 0x80
 8001f2e:	4805      	ldr	r0, [pc, #20]	; (8001f44 <readFlashToUART+0xd4>)
 8001f30:	f002 fdc6 	bl	8004ac0 <HAL_GPIO_WritePin>
}
 8001f34:	bf00      	nop
 8001f36:	f507 7792 	add.w	r7, r7, #292	; 0x124
 8001f3a:	46bd      	mov	sp, r7
 8001f3c:	bd90      	pop	{r4, r7, pc}
 8001f3e:	bf00      	nop
 8001f40:	200005d4 	.word	0x200005d4
 8001f44:	40020400 	.word	0x40020400

08001f48 <readFlashManuSPI>:

void readFlashManuSPI(SPI_HandleTypeDef *hspi, UART_HandleTypeDef *huart, GPIO_Config config) {
 8001f48:	b580      	push	{r7, lr}
 8001f4a:	b086      	sub	sp, #24
 8001f4c:	af00      	add	r7, sp, #0
 8001f4e:	60f8      	str	r0, [r7, #12]
 8001f50:	60b9      	str	r1, [r7, #8]
 8001f52:	4639      	mov	r1, r7
 8001f54:	e881 000c 	stmia.w	r1, {r2, r3}
	uint8_t manu[2] = {0, 0};
 8001f58:	2300      	movs	r3, #0
 8001f5a:	82bb      	strh	r3, [r7, #20]
	read_manufacturer_id(manu, hspi, config);
 8001f5c:	f107 0014 	add.w	r0, r7, #20
 8001f60:	463b      	mov	r3, r7
 8001f62:	cb0c      	ldmia	r3, {r2, r3}
 8001f64:	68f9      	ldr	r1, [r7, #12]
 8001f66:	f7fe fe21 	bl	8000bac <read_manufacturer_id>
	send_uart_hex(huart, manu[0]);
 8001f6a:	7d3b      	ldrb	r3, [r7, #20]
 8001f6c:	4619      	mov	r1, r3
 8001f6e:	68b8      	ldr	r0, [r7, #8]
 8001f70:	f000 ff91 	bl	8002e96 <send_uart_hex>
	send_uart_hex(huart, manu[1]);
 8001f74:	7d7b      	ldrb	r3, [r7, #21]
 8001f76:	4619      	mov	r1, r3
 8001f78:	68b8      	ldr	r0, [r7, #8]
 8001f7a:	f000 ff8c 	bl	8002e96 <send_uart_hex>
}
 8001f7e:	bf00      	nop
 8001f80:	3718      	adds	r7, #24
 8001f82:	46bd      	mov	sp, r7
 8001f84:	bd80      	pop	{r7, pc}
	...

08001f88 <writePageSPI_W>:

void writePageSPI_W(SPI_HandleTypeDef *hspi, UART_HandleTypeDef *huart, GPIO_Config config) {
 8001f88:	b590      	push	{r4, r7, lr}
 8001f8a:	b0c9      	sub	sp, #292	; 0x124
 8001f8c:	af02      	add	r7, sp, #8
 8001f8e:	f507 748c 	add.w	r4, r7, #280	; 0x118
 8001f92:	f5a4 7486 	sub.w	r4, r4, #268	; 0x10c
 8001f96:	6020      	str	r0, [r4, #0]
 8001f98:	f507 708c 	add.w	r0, r7, #280	; 0x118
 8001f9c:	f5a0 7088 	sub.w	r0, r0, #272	; 0x110
 8001fa0:	6001      	str	r1, [r0, #0]
 8001fa2:	f507 718c 	add.w	r1, r7, #280	; 0x118
 8001fa6:	f5a1 718c 	sub.w	r1, r1, #280	; 0x118
 8001faa:	e881 000c 	stmia.w	r1, {r2, r3}
	uint8_t data_out[PAGE_SIZE];
	for (int i = 0; i < PAGE_SIZE; i++) {
 8001fae:	2300      	movs	r3, #0
 8001fb0:	f8c7 3114 	str.w	r3, [r7, #276]	; 0x114
 8001fb4:	e00d      	b.n	8001fd2 <writePageSPI_W+0x4a>
		data_out[i] = 0x77;		// Make all data in the page 'w'
 8001fb6:	f507 738c 	add.w	r3, r7, #280	; 0x118
 8001fba:	f5a3 7282 	sub.w	r2, r3, #260	; 0x104
 8001fbe:	f8d7 3114 	ldr.w	r3, [r7, #276]	; 0x114
 8001fc2:	4413      	add	r3, r2
 8001fc4:	2277      	movs	r2, #119	; 0x77
 8001fc6:	701a      	strb	r2, [r3, #0]
	for (int i = 0; i < PAGE_SIZE; i++) {
 8001fc8:	f8d7 3114 	ldr.w	r3, [r7, #276]	; 0x114
 8001fcc:	3301      	adds	r3, #1
 8001fce:	f8c7 3114 	str.w	r3, [r7, #276]	; 0x114
 8001fd2:	f8d7 3114 	ldr.w	r3, [r7, #276]	; 0x114
 8001fd6:	2bff      	cmp	r3, #255	; 0xff
 8001fd8:	dded      	ble.n	8001fb6 <writePageSPI_W+0x2e>
	}
	write_data_spi_dma(data_out, hspi, next_blank_page, config);
 8001fda:	4b13      	ldr	r3, [pc, #76]	; (8002028 <writePageSPI_W+0xa0>)
 8001fdc:	681c      	ldr	r4, [r3, #0]
 8001fde:	f507 738c 	add.w	r3, r7, #280	; 0x118
 8001fe2:	f5a3 738c 	sub.w	r3, r3, #280	; 0x118
 8001fe6:	f507 728c 	add.w	r2, r7, #280	; 0x118
 8001fea:	f5a2 7186 	sub.w	r1, r2, #268	; 0x10c
 8001fee:	f107 0014 	add.w	r0, r7, #20
 8001ff2:	685a      	ldr	r2, [r3, #4]
 8001ff4:	9200      	str	r2, [sp, #0]
 8001ff6:	681b      	ldr	r3, [r3, #0]
 8001ff8:	4622      	mov	r2, r4
 8001ffa:	6809      	ldr	r1, [r1, #0]
 8001ffc:	f7fe fcea 	bl	80009d4 <write_data_spi_dma>
	next_blank_page += PAGE_SIZE;
 8002000:	4b09      	ldr	r3, [pc, #36]	; (8002028 <writePageSPI_W+0xa0>)
 8002002:	681b      	ldr	r3, [r3, #0]
 8002004:	f503 7380 	add.w	r3, r3, #256	; 0x100
 8002008:	4a07      	ldr	r2, [pc, #28]	; (8002028 <writePageSPI_W+0xa0>)
 800200a:	6013      	str	r3, [r2, #0]

	send_uart_string(huart, "Successful Page Written\r\n");
 800200c:	f507 738c 	add.w	r3, r7, #280	; 0x118
 8002010:	f5a3 7388 	sub.w	r3, r3, #272	; 0x110
 8002014:	4905      	ldr	r1, [pc, #20]	; (800202c <writePageSPI_W+0xa4>)
 8002016:	6818      	ldr	r0, [r3, #0]
 8002018:	f000 ff29 	bl	8002e6e <send_uart_string>
}
 800201c:	bf00      	nop
 800201e:	f507 778e 	add.w	r7, r7, #284	; 0x11c
 8002022:	46bd      	mov	sp, r7
 8002024:	bd90      	pop	{r4, r7, pc}
 8002026:	bf00      	nop
 8002028:	200005d4 	.word	0x200005d4
 800202c:	080094d8 	.word	0x080094d8

08002030 <resetSPIFlash>:

void resetSPIFlash(SPI_HandleTypeDef *hspi, UART_HandleTypeDef *huart, GPIO_Config config) {
 8002030:	b580      	push	{r7, lr}
 8002032:	b084      	sub	sp, #16
 8002034:	af00      	add	r7, sp, #0
 8002036:	60f8      	str	r0, [r7, #12]
 8002038:	60b9      	str	r1, [r7, #8]
 800203a:	4639      	mov	r1, r7
 800203c:	e881 000c 	stmia.w	r1, {r2, r3}
	software_reset(hspi, config);
 8002040:	463b      	mov	r3, r7
 8002042:	e893 0006 	ldmia.w	r3, {r1, r2}
 8002046:	68f8      	ldr	r0, [r7, #12]
 8002048:	f7fe fca0 	bl	800098c <software_reset>
	send_uart_string(huart, "Flash Chip Reset\r\n");
 800204c:	4903      	ldr	r1, [pc, #12]	; (800205c <resetSPIFlash+0x2c>)
 800204e:	68b8      	ldr	r0, [r7, #8]
 8002050:	f000 ff0d 	bl	8002e6e <send_uart_string>
}
 8002054:	bf00      	nop
 8002056:	3710      	adds	r7, #16
 8002058:	46bd      	mov	sp, r7
 800205a:	bd80      	pop	{r7, pc}
 800205c:	080094f4 	.word	0x080094f4

08002060 <checkAccelWhoAmI>:
/***************************************************************************************************************
 * I2C Accelerometer Functions
 */
void checkAccelWhoAmI(I2C_HandleTypeDef* hi2c, UART_HandleTypeDef *huart) {
 8002060:	b580      	push	{r7, lr}
 8002062:	b084      	sub	sp, #16
 8002064:	af00      	add	r7, sp, #0
 8002066:	6078      	str	r0, [r7, #4]
 8002068:	6039      	str	r1, [r7, #0]
	uint8_t whoami = readAccel_whoami(hi2c);
 800206a:	6878      	ldr	r0, [r7, #4]
 800206c:	f7fe faa0 	bl	80005b0 <readAccel_whoami>
 8002070:	4603      	mov	r3, r0
 8002072:	73fb      	strb	r3, [r7, #15]
	send_uart_hex(huart, whoami);
 8002074:	7bfb      	ldrb	r3, [r7, #15]
 8002076:	4619      	mov	r1, r3
 8002078:	6838      	ldr	r0, [r7, #0]
 800207a:	f000 ff0c 	bl	8002e96 <send_uart_hex>
}
 800207e:	bf00      	nop
 8002080:	3710      	adds	r7, #16
 8002082:	46bd      	mov	sp, r7
 8002084:	bd80      	pop	{r7, pc}
	...

08002088 <accelToUART>:

void accelToUART(UART_HandleTypeDef *huart) {
 8002088:	b580      	push	{r7, lr}
 800208a:	b084      	sub	sp, #16
 800208c:	af00      	add	r7, sp, #0
 800208e:	6078      	str	r0, [r7, #4]
	for (int i = 0; i < 6; i++) {
 8002090:	2300      	movs	r3, #0
 8002092:	60fb      	str	r3, [r7, #12]
 8002094:	e00a      	b.n	80020ac <accelToUART+0x24>
		send_uart_hex(huart, accel_data[i]);
 8002096:	4a09      	ldr	r2, [pc, #36]	; (80020bc <accelToUART+0x34>)
 8002098:	68fb      	ldr	r3, [r7, #12]
 800209a:	4413      	add	r3, r2
 800209c:	781b      	ldrb	r3, [r3, #0]
 800209e:	4619      	mov	r1, r3
 80020a0:	6878      	ldr	r0, [r7, #4]
 80020a2:	f000 fef8 	bl	8002e96 <send_uart_hex>
	for (int i = 0; i < 6; i++) {
 80020a6:	68fb      	ldr	r3, [r7, #12]
 80020a8:	3301      	adds	r3, #1
 80020aa:	60fb      	str	r3, [r7, #12]
 80020ac:	68fb      	ldr	r3, [r7, #12]
 80020ae:	2b05      	cmp	r3, #5
 80020b0:	ddf1      	ble.n	8002096 <accelToUART+0xe>
	}
}
 80020b2:	bf00      	nop
 80020b4:	bf00      	nop
 80020b6:	3710      	adds	r7, #16
 80020b8:	46bd      	mov	sp, r7
 80020ba:	bd80      	pop	{r7, pc}
 80020bc:	200005bc 	.word	0x200005bc

080020c0 <readTempSensorID>:

/***************************************************************************************************************
 * I2C BME280 Sensor Functions
 */
void readTempSensorID(I2C_HandleTypeDef* hi2c, UART_HandleTypeDef *huart, uint8_t tempNo) {
 80020c0:	b580      	push	{r7, lr}
 80020c2:	b084      	sub	sp, #16
 80020c4:	af00      	add	r7, sp, #0
 80020c6:	60f8      	str	r0, [r7, #12]
 80020c8:	60b9      	str	r1, [r7, #8]
 80020ca:	4613      	mov	r3, r2
 80020cc:	71fb      	strb	r3, [r7, #7]
	send_uart_hex(huart, readBME280_id_reg(hi2c, tempNo));
 80020ce:	79fb      	ldrb	r3, [r7, #7]
 80020d0:	4619      	mov	r1, r3
 80020d2:	68f8      	ldr	r0, [r7, #12]
 80020d4:	f7fe fb2a 	bl	800072c <readBME280_id_reg>
 80020d8:	4603      	mov	r3, r0
 80020da:	4619      	mov	r1, r3
 80020dc:	68b8      	ldr	r0, [r7, #8]
 80020de:	f000 feda 	bl	8002e96 <send_uart_hex>
}
 80020e2:	bf00      	nop
 80020e4:	3710      	adds	r7, #16
 80020e6:	46bd      	mov	sp, r7
 80020e8:	bd80      	pop	{r7, pc}

080020ea <readTempCalibration>:

void readTempCalibration(I2C_HandleTypeDef* hi2c, UART_HandleTypeDef *huart, uint8_t tempNo) {
 80020ea:	b580      	push	{r7, lr}
 80020ec:	b090      	sub	sp, #64	; 0x40
 80020ee:	af00      	add	r7, sp, #0
 80020f0:	60f8      	str	r0, [r7, #12]
 80020f2:	60b9      	str	r1, [r7, #8]
 80020f4:	4613      	mov	r3, r2
 80020f6:	71fb      	strb	r3, [r7, #7]
	uint8_t calibration1[25];
	uint8_t calibration2[7];

	for (uint8_t i = 0; i < CALIB_CNT_1; i++) {
 80020f8:	2300      	movs	r3, #0
 80020fa:	f887 303f 	strb.w	r3, [r7, #63]	; 0x3f
 80020fe:	e016      	b.n	800212e <readTempCalibration+0x44>
		calibration1[i] = 0x00;
 8002100:	f897 303f 	ldrb.w	r3, [r7, #63]	; 0x3f
 8002104:	3340      	adds	r3, #64	; 0x40
 8002106:	443b      	add	r3, r7
 8002108:	2200      	movs	r2, #0
 800210a:	f803 2c28 	strb.w	r2, [r3, #-40]
		if (i < CALIB_CNT_2) {
 800210e:	f897 303f 	ldrb.w	r3, [r7, #63]	; 0x3f
 8002112:	2b06      	cmp	r3, #6
 8002114:	d806      	bhi.n	8002124 <readTempCalibration+0x3a>
			calibration2[i] = 0x00;
 8002116:	f897 303f 	ldrb.w	r3, [r7, #63]	; 0x3f
 800211a:	3340      	adds	r3, #64	; 0x40
 800211c:	443b      	add	r3, r7
 800211e:	2200      	movs	r2, #0
 8002120:	f803 2c30 	strb.w	r2, [r3, #-48]
	for (uint8_t i = 0; i < CALIB_CNT_1; i++) {
 8002124:	f897 303f 	ldrb.w	r3, [r7, #63]	; 0x3f
 8002128:	3301      	adds	r3, #1
 800212a:	f887 303f 	strb.w	r3, [r7, #63]	; 0x3f
 800212e:	f897 303f 	ldrb.w	r3, [r7, #63]	; 0x3f
 8002132:	2b18      	cmp	r3, #24
 8002134:	d9e4      	bls.n	8002100 <readTempCalibration+0x16>
		}
	}

	readBME280_calib(hi2c, tempNo, calibration1, calibration2);
 8002136:	f107 0310 	add.w	r3, r7, #16
 800213a:	f107 0218 	add.w	r2, r7, #24
 800213e:	79f9      	ldrb	r1, [r7, #7]
 8002140:	68f8      	ldr	r0, [r7, #12]
 8002142:	f7fe fb0f 	bl	8000764 <readBME280_calib>

	for (int i = 0; i < 25; i++) {
 8002146:	2300      	movs	r3, #0
 8002148:	63bb      	str	r3, [r7, #56]	; 0x38
 800214a:	e00b      	b.n	8002164 <readTempCalibration+0x7a>
	  send_uart_hex(huart, calibration1[i]);
 800214c:	f107 0218 	add.w	r2, r7, #24
 8002150:	6bbb      	ldr	r3, [r7, #56]	; 0x38
 8002152:	4413      	add	r3, r2
 8002154:	781b      	ldrb	r3, [r3, #0]
 8002156:	4619      	mov	r1, r3
 8002158:	68b8      	ldr	r0, [r7, #8]
 800215a:	f000 fe9c 	bl	8002e96 <send_uart_hex>
	for (int i = 0; i < 25; i++) {
 800215e:	6bbb      	ldr	r3, [r7, #56]	; 0x38
 8002160:	3301      	adds	r3, #1
 8002162:	63bb      	str	r3, [r7, #56]	; 0x38
 8002164:	6bbb      	ldr	r3, [r7, #56]	; 0x38
 8002166:	2b18      	cmp	r3, #24
 8002168:	ddf0      	ble.n	800214c <readTempCalibration+0x62>
	}

	for (int i = 0; i < 7; i++) {
 800216a:	2300      	movs	r3, #0
 800216c:	637b      	str	r3, [r7, #52]	; 0x34
 800216e:	e00b      	b.n	8002188 <readTempCalibration+0x9e>
	  send_uart_hex(huart, calibration2[i]);
 8002170:	f107 0210 	add.w	r2, r7, #16
 8002174:	6b7b      	ldr	r3, [r7, #52]	; 0x34
 8002176:	4413      	add	r3, r2
 8002178:	781b      	ldrb	r3, [r3, #0]
 800217a:	4619      	mov	r1, r3
 800217c:	68b8      	ldr	r0, [r7, #8]
 800217e:	f000 fe8a 	bl	8002e96 <send_uart_hex>
	for (int i = 0; i < 7; i++) {
 8002182:	6b7b      	ldr	r3, [r7, #52]	; 0x34
 8002184:	3301      	adds	r3, #1
 8002186:	637b      	str	r3, [r7, #52]	; 0x34
 8002188:	6b7b      	ldr	r3, [r7, #52]	; 0x34
 800218a:	2b06      	cmp	r3, #6
 800218c:	ddf0      	ble.n	8002170 <readTempCalibration+0x86>
	}
}
 800218e:	bf00      	nop
 8002190:	bf00      	nop
 8002192:	3740      	adds	r7, #64	; 0x40
 8002194:	46bd      	mov	sp, r7
 8002196:	bd80      	pop	{r7, pc}

08002198 <readTempSensor>:

void readTempSensor(UART_HandleTypeDef *huart, uint8_t tempNo) {
 8002198:	b580      	push	{r7, lr}
 800219a:	b084      	sub	sp, #16
 800219c:	af00      	add	r7, sp, #0
 800219e:	6078      	str	r0, [r7, #4]
 80021a0:	460b      	mov	r3, r1
 80021a2:	70fb      	strb	r3, [r7, #3]
	if (tempNo == 0) {
 80021a4:	78fb      	ldrb	r3, [r7, #3]
 80021a6:	2b00      	cmp	r3, #0
 80021a8:	d111      	bne.n	80021ce <readTempSensor+0x36>
		for (int i = 0; i < 6; i++) {
 80021aa:	2300      	movs	r3, #0
 80021ac:	60fb      	str	r3, [r7, #12]
 80021ae:	e00a      	b.n	80021c6 <readTempSensor+0x2e>
			send_uart_hex(huart, bme280_data_0[i]);
 80021b0:	4a13      	ldr	r2, [pc, #76]	; (8002200 <readTempSensor+0x68>)
 80021b2:	68fb      	ldr	r3, [r7, #12]
 80021b4:	4413      	add	r3, r2
 80021b6:	781b      	ldrb	r3, [r3, #0]
 80021b8:	4619      	mov	r1, r3
 80021ba:	6878      	ldr	r0, [r7, #4]
 80021bc:	f000 fe6b 	bl	8002e96 <send_uart_hex>
		for (int i = 0; i < 6; i++) {
 80021c0:	68fb      	ldr	r3, [r7, #12]
 80021c2:	3301      	adds	r3, #1
 80021c4:	60fb      	str	r3, [r7, #12]
 80021c6:	68fb      	ldr	r3, [r7, #12]
 80021c8:	2b05      	cmp	r3, #5
 80021ca:	ddf1      	ble.n	80021b0 <readTempSensor+0x18>
	} else if (tempNo == 1) {
		for (int i = 0; i < 6; i++) {
			send_uart_hex(huart, bme280_data_1[i]);
		}
	}
}
 80021cc:	e013      	b.n	80021f6 <readTempSensor+0x5e>
	} else if (tempNo == 1) {
 80021ce:	78fb      	ldrb	r3, [r7, #3]
 80021d0:	2b01      	cmp	r3, #1
 80021d2:	d110      	bne.n	80021f6 <readTempSensor+0x5e>
		for (int i = 0; i < 6; i++) {
 80021d4:	2300      	movs	r3, #0
 80021d6:	60bb      	str	r3, [r7, #8]
 80021d8:	e00a      	b.n	80021f0 <readTempSensor+0x58>
			send_uart_hex(huart, bme280_data_1[i]);
 80021da:	4a0a      	ldr	r2, [pc, #40]	; (8002204 <readTempSensor+0x6c>)
 80021dc:	68bb      	ldr	r3, [r7, #8]
 80021de:	4413      	add	r3, r2
 80021e0:	781b      	ldrb	r3, [r3, #0]
 80021e2:	4619      	mov	r1, r3
 80021e4:	6878      	ldr	r0, [r7, #4]
 80021e6:	f000 fe56 	bl	8002e96 <send_uart_hex>
		for (int i = 0; i < 6; i++) {
 80021ea:	68bb      	ldr	r3, [r7, #8]
 80021ec:	3301      	adds	r3, #1
 80021ee:	60bb      	str	r3, [r7, #8]
 80021f0:	68bb      	ldr	r3, [r7, #8]
 80021f2:	2b05      	cmp	r3, #5
 80021f4:	ddf1      	ble.n	80021da <readTempSensor+0x42>
}
 80021f6:	bf00      	nop
 80021f8:	3710      	adds	r7, #16
 80021fa:	46bd      	mov	sp, r7
 80021fc:	bd80      	pop	{r7, pc}
 80021fe:	bf00      	nop
 8002200:	200005c4 	.word	0x200005c4
 8002204:	200005cc 	.word	0x200005cc

08002208 <readAllSensors>:

/***************************************************************************************************************
 * Process All Sensors
 */
void readAllSensors(I2C_HandleTypeDef* hi2c_accel, I2C_HandleTypeDef* hi2c_temp, RTC_HandleTypeDef* hrtc) {
 8002208:	b5b0      	push	{r4, r5, r7, lr}
 800220a:	b08a      	sub	sp, #40	; 0x28
 800220c:	af00      	add	r7, sp, #0
 800220e:	60f8      	str	r0, [r7, #12]
 8002210:	60b9      	str	r1, [r7, #8]
 8002212:	607a      	str	r2, [r7, #4]
	// Read Accelerometer Data
	readAccelerometer(accel_data, hi2c_accel);
 8002214:	68f9      	ldr	r1, [r7, #12]
 8002216:	4868      	ldr	r0, [pc, #416]	; (80023b8 <readAllSensors+0x1b0>)
 8002218:	f7fe f9a4 	bl	8000564 <readAccelerometer>

	// Read BME280 Data
	readTempHumPres(bme280_data_0, hi2c_temp, 0);
 800221c:	2200      	movs	r2, #0
 800221e:	68b9      	ldr	r1, [r7, #8]
 8002220:	4866      	ldr	r0, [pc, #408]	; (80023bc <readAllSensors+0x1b4>)
 8002222:	f7fe fa29 	bl	8000678 <readTempHumPres>
	readTempHumPres(bme280_data_1, hi2c_temp, 1);
 8002226:	2201      	movs	r2, #1
 8002228:	68b9      	ldr	r1, [r7, #8]
 800222a:	4865      	ldr	r0, [pc, #404]	; (80023c0 <readAllSensors+0x1b8>)
 800222c:	f7fe fa24 	bl	8000678 <readTempHumPres>

	uint16_t time = getTimestampMilliseconds(hrtc);
 8002230:	6878      	ldr	r0, [r7, #4]
 8002232:	f000 f909 	bl	8002448 <getTimestampMilliseconds>
 8002236:	4603      	mov	r3, r0
 8002238:	82fb      	strh	r3, [r7, #22]
	uint8_t array_ptr = 0;
 800223a:	2300      	movs	r3, #0
 800223c:	f887 3027 	strb.w	r3, [r7, #39]	; 0x27

	// Store the new read in the buffer if there is space
	if (byte_tracker < (PAGE_SIZE - READ_SIZE)) {
 8002240:	4b60      	ldr	r3, [pc, #384]	; (80023c4 <readAllSensors+0x1bc>)
 8002242:	881b      	ldrh	r3, [r3, #0]
 8002244:	2bea      	cmp	r3, #234	; 0xea
 8002246:	f200 80b2 	bhi.w	80023ae <readAllSensors+0x1a6>
		// Store the timestamp in the buffer (Little Endian)
		data_buffer_tx[buffer_tracker][byte_tracker + array_ptr] = (uint8_t) (time & 0xFF); 		// Least significant byte (LSB)
 800224a:	4b5f      	ldr	r3, [pc, #380]	; (80023c8 <readAllSensors+0x1c0>)
 800224c:	781b      	ldrb	r3, [r3, #0]
 800224e:	461a      	mov	r2, r3
 8002250:	4b5c      	ldr	r3, [pc, #368]	; (80023c4 <readAllSensors+0x1bc>)
 8002252:	881b      	ldrh	r3, [r3, #0]
 8002254:	4619      	mov	r1, r3
 8002256:	f897 3027 	ldrb.w	r3, [r7, #39]	; 0x27
 800225a:	440b      	add	r3, r1
 800225c:	8af9      	ldrh	r1, [r7, #22]
 800225e:	b2c8      	uxtb	r0, r1
 8002260:	495a      	ldr	r1, [pc, #360]	; (80023cc <readAllSensors+0x1c4>)
 8002262:	0212      	lsls	r2, r2, #8
 8002264:	440a      	add	r2, r1
 8002266:	4413      	add	r3, r2
 8002268:	4602      	mov	r2, r0
 800226a:	701a      	strb	r2, [r3, #0]
		array_ptr += 1;
 800226c:	f897 3027 	ldrb.w	r3, [r7, #39]	; 0x27
 8002270:	3301      	adds	r3, #1
 8002272:	f887 3027 	strb.w	r3, [r7, #39]	; 0x27
		data_buffer_tx[buffer_tracker][byte_tracker + array_ptr] = (uint8_t) ((time >> 8) & 0xFF); // Most significant byte (MSB)
 8002276:	8afb      	ldrh	r3, [r7, #22]
 8002278:	0a1b      	lsrs	r3, r3, #8
 800227a:	b299      	uxth	r1, r3
 800227c:	4b52      	ldr	r3, [pc, #328]	; (80023c8 <readAllSensors+0x1c0>)
 800227e:	781b      	ldrb	r3, [r3, #0]
 8002280:	461a      	mov	r2, r3
 8002282:	4b50      	ldr	r3, [pc, #320]	; (80023c4 <readAllSensors+0x1bc>)
 8002284:	881b      	ldrh	r3, [r3, #0]
 8002286:	4618      	mov	r0, r3
 8002288:	f897 3027 	ldrb.w	r3, [r7, #39]	; 0x27
 800228c:	4403      	add	r3, r0
 800228e:	b2c8      	uxtb	r0, r1
 8002290:	494e      	ldr	r1, [pc, #312]	; (80023cc <readAllSensors+0x1c4>)
 8002292:	0212      	lsls	r2, r2, #8
 8002294:	440a      	add	r2, r1
 8002296:	4413      	add	r3, r2
 8002298:	4602      	mov	r2, r0
 800229a:	701a      	strb	r2, [r3, #0]
		array_ptr += 1;
 800229c:	f897 3027 	ldrb.w	r3, [r7, #39]	; 0x27
 80022a0:	3301      	adds	r3, #1
 80022a2:	f887 3027 	strb.w	r3, [r7, #39]	; 0x27

		// Store the accelerometer data
		for (int i = 0; i < 6; i++) {
 80022a6:	2300      	movs	r3, #0
 80022a8:	623b      	str	r3, [r7, #32]
 80022aa:	e01a      	b.n	80022e2 <readAllSensors+0xda>
		  data_buffer_tx[buffer_tracker][byte_tracker + array_ptr] = accel_data[i];
 80022ac:	4b46      	ldr	r3, [pc, #280]	; (80023c8 <readAllSensors+0x1c0>)
 80022ae:	781b      	ldrb	r3, [r3, #0]
 80022b0:	461c      	mov	r4, r3
 80022b2:	4b44      	ldr	r3, [pc, #272]	; (80023c4 <readAllSensors+0x1bc>)
 80022b4:	881b      	ldrh	r3, [r3, #0]
 80022b6:	461a      	mov	r2, r3
 80022b8:	f897 3027 	ldrb.w	r3, [r7, #39]	; 0x27
 80022bc:	4413      	add	r3, r2
 80022be:	493e      	ldr	r1, [pc, #248]	; (80023b8 <readAllSensors+0x1b0>)
 80022c0:	6a3a      	ldr	r2, [r7, #32]
 80022c2:	440a      	add	r2, r1
 80022c4:	7810      	ldrb	r0, [r2, #0]
 80022c6:	4941      	ldr	r1, [pc, #260]	; (80023cc <readAllSensors+0x1c4>)
 80022c8:	0222      	lsls	r2, r4, #8
 80022ca:	440a      	add	r2, r1
 80022cc:	4413      	add	r3, r2
 80022ce:	4602      	mov	r2, r0
 80022d0:	701a      	strb	r2, [r3, #0]
		  array_ptr += 1;
 80022d2:	f897 3027 	ldrb.w	r3, [r7, #39]	; 0x27
 80022d6:	3301      	adds	r3, #1
 80022d8:	f887 3027 	strb.w	r3, [r7, #39]	; 0x27
		for (int i = 0; i < 6; i++) {
 80022dc:	6a3b      	ldr	r3, [r7, #32]
 80022de:	3301      	adds	r3, #1
 80022e0:	623b      	str	r3, [r7, #32]
 80022e2:	6a3b      	ldr	r3, [r7, #32]
 80022e4:	2b05      	cmp	r3, #5
 80022e6:	dde1      	ble.n	80022ac <readAllSensors+0xa4>
		}

		// Store the BME280_0 Data
		for (int i = 0; i < 6; i++) {
 80022e8:	2300      	movs	r3, #0
 80022ea:	61fb      	str	r3, [r7, #28]
 80022ec:	e01a      	b.n	8002324 <readAllSensors+0x11c>
		  data_buffer_tx[buffer_tracker][byte_tracker + array_ptr] = bme280_data_0[i];
 80022ee:	4b36      	ldr	r3, [pc, #216]	; (80023c8 <readAllSensors+0x1c0>)
 80022f0:	781b      	ldrb	r3, [r3, #0]
 80022f2:	461c      	mov	r4, r3
 80022f4:	4b33      	ldr	r3, [pc, #204]	; (80023c4 <readAllSensors+0x1bc>)
 80022f6:	881b      	ldrh	r3, [r3, #0]
 80022f8:	461a      	mov	r2, r3
 80022fa:	f897 3027 	ldrb.w	r3, [r7, #39]	; 0x27
 80022fe:	4413      	add	r3, r2
 8002300:	492e      	ldr	r1, [pc, #184]	; (80023bc <readAllSensors+0x1b4>)
 8002302:	69fa      	ldr	r2, [r7, #28]
 8002304:	440a      	add	r2, r1
 8002306:	7810      	ldrb	r0, [r2, #0]
 8002308:	4930      	ldr	r1, [pc, #192]	; (80023cc <readAllSensors+0x1c4>)
 800230a:	0222      	lsls	r2, r4, #8
 800230c:	440a      	add	r2, r1
 800230e:	4413      	add	r3, r2
 8002310:	4602      	mov	r2, r0
 8002312:	701a      	strb	r2, [r3, #0]
		  array_ptr += 1;
 8002314:	f897 3027 	ldrb.w	r3, [r7, #39]	; 0x27
 8002318:	3301      	adds	r3, #1
 800231a:	f887 3027 	strb.w	r3, [r7, #39]	; 0x27
		for (int i = 0; i < 6; i++) {
 800231e:	69fb      	ldr	r3, [r7, #28]
 8002320:	3301      	adds	r3, #1
 8002322:	61fb      	str	r3, [r7, #28]
 8002324:	69fb      	ldr	r3, [r7, #28]
 8002326:	2b05      	cmp	r3, #5
 8002328:	dde1      	ble.n	80022ee <readAllSensors+0xe6>
		}

		// Store the BME280_1 Data
		for (int i = 0; i < 6; i++) {
 800232a:	2300      	movs	r3, #0
 800232c:	61bb      	str	r3, [r7, #24]
 800232e:	e01a      	b.n	8002366 <readAllSensors+0x15e>
		  data_buffer_tx[buffer_tracker][byte_tracker + array_ptr] = bme280_data_1[i];
 8002330:	4b25      	ldr	r3, [pc, #148]	; (80023c8 <readAllSensors+0x1c0>)
 8002332:	781b      	ldrb	r3, [r3, #0]
 8002334:	461c      	mov	r4, r3
 8002336:	4b23      	ldr	r3, [pc, #140]	; (80023c4 <readAllSensors+0x1bc>)
 8002338:	881b      	ldrh	r3, [r3, #0]
 800233a:	461a      	mov	r2, r3
 800233c:	f897 3027 	ldrb.w	r3, [r7, #39]	; 0x27
 8002340:	4413      	add	r3, r2
 8002342:	491f      	ldr	r1, [pc, #124]	; (80023c0 <readAllSensors+0x1b8>)
 8002344:	69ba      	ldr	r2, [r7, #24]
 8002346:	440a      	add	r2, r1
 8002348:	7810      	ldrb	r0, [r2, #0]
 800234a:	4920      	ldr	r1, [pc, #128]	; (80023cc <readAllSensors+0x1c4>)
 800234c:	0222      	lsls	r2, r4, #8
 800234e:	440a      	add	r2, r1
 8002350:	4413      	add	r3, r2
 8002352:	4602      	mov	r2, r0
 8002354:	701a      	strb	r2, [r3, #0]
		  array_ptr += 1;
 8002356:	f897 3027 	ldrb.w	r3, [r7, #39]	; 0x27
 800235a:	3301      	adds	r3, #1
 800235c:	f887 3027 	strb.w	r3, [r7, #39]	; 0x27
		for (int i = 0; i < 6; i++) {
 8002360:	69bb      	ldr	r3, [r7, #24]
 8002362:	3301      	adds	r3, #1
 8002364:	61bb      	str	r3, [r7, #24]
 8002366:	69bb      	ldr	r3, [r7, #24]
 8002368:	2b05      	cmp	r3, #5
 800236a:	dde1      	ble.n	8002330 <readAllSensors+0x128>
		}

		// Store the flight state and peripheral status in the final byte
		data_buffer_tx[buffer_tracker][byte_tracker + array_ptr] = combine_system_status();
 800236c:	4b16      	ldr	r3, [pc, #88]	; (80023c8 <readAllSensors+0x1c0>)
 800236e:	781b      	ldrb	r3, [r3, #0]
 8002370:	461d      	mov	r5, r3
 8002372:	4b14      	ldr	r3, [pc, #80]	; (80023c4 <readAllSensors+0x1bc>)
 8002374:	881b      	ldrh	r3, [r3, #0]
 8002376:	461a      	mov	r2, r3
 8002378:	f897 3027 	ldrb.w	r3, [r7, #39]	; 0x27
 800237c:	18d4      	adds	r4, r2, r3
 800237e:	f7ff fc93 	bl	8001ca8 <combine_system_status>
 8002382:	4603      	mov	r3, r0
 8002384:	4619      	mov	r1, r3
 8002386:	4a11      	ldr	r2, [pc, #68]	; (80023cc <readAllSensors+0x1c4>)
 8002388:	022b      	lsls	r3, r5, #8
 800238a:	4413      	add	r3, r2
 800238c:	4423      	add	r3, r4
 800238e:	460a      	mov	r2, r1
 8002390:	701a      	strb	r2, [r3, #0]
		array_ptr += 1;
 8002392:	f897 3027 	ldrb.w	r3, [r7, #39]	; 0x27
 8002396:	3301      	adds	r3, #1
 8002398:	f887 3027 	strb.w	r3, [r7, #39]	; 0x27

		byte_tracker = byte_tracker + (array_ptr);
 800239c:	f897 3027 	ldrb.w	r3, [r7, #39]	; 0x27
 80023a0:	b29a      	uxth	r2, r3
 80023a2:	4b08      	ldr	r3, [pc, #32]	; (80023c4 <readAllSensors+0x1bc>)
 80023a4:	881b      	ldrh	r3, [r3, #0]
 80023a6:	4413      	add	r3, r2
 80023a8:	b29a      	uxth	r2, r3
 80023aa:	4b06      	ldr	r3, [pc, #24]	; (80023c4 <readAllSensors+0x1bc>)
 80023ac:	801a      	strh	r2, [r3, #0]
	}
}
 80023ae:	bf00      	nop
 80023b0:	3728      	adds	r7, #40	; 0x28
 80023b2:	46bd      	mov	sp, r7
 80023b4:	bdb0      	pop	{r4, r5, r7, pc}
 80023b6:	bf00      	nop
 80023b8:	200005bc 	.word	0x200005bc
 80023bc:	200005c4 	.word	0x200005c4
 80023c0:	200005cc 	.word	0x200005cc
 80023c4:	200005d8 	.word	0x200005d8
 80023c8:	200005b8 	.word	0x200005b8
 80023cc:	200003b8 	.word	0x200003b8

080023d0 <initialise_rtc_default>:
    .Month = RTC_MONTH_JANUARY, // Set default month (e.g., January)
    .Date = 1, // Set default day of the month
    .Year = 24 // Set default year (e.g., 2021)
};

void initialise_rtc_default(RTC_HandleTypeDef* hrtc) {
 80023d0:	b580      	push	{r7, lr}
 80023d2:	b084      	sub	sp, #16
 80023d4:	af00      	add	r7, sp, #0
 80023d6:	6078      	str	r0, [r7, #4]
    // Enable access to the backup domain
    __HAL_RCC_PWR_CLK_ENABLE();
 80023d8:	2300      	movs	r3, #0
 80023da:	60bb      	str	r3, [r7, #8]
 80023dc:	4b16      	ldr	r3, [pc, #88]	; (8002438 <initialise_rtc_default+0x68>)
 80023de:	6c1b      	ldr	r3, [r3, #64]	; 0x40
 80023e0:	4a15      	ldr	r2, [pc, #84]	; (8002438 <initialise_rtc_default+0x68>)
 80023e2:	f043 5380 	orr.w	r3, r3, #268435456	; 0x10000000
 80023e6:	6413      	str	r3, [r2, #64]	; 0x40
 80023e8:	4b13      	ldr	r3, [pc, #76]	; (8002438 <initialise_rtc_default+0x68>)
 80023ea:	6c1b      	ldr	r3, [r3, #64]	; 0x40
 80023ec:	f003 5380 	and.w	r3, r3, #268435456	; 0x10000000
 80023f0:	60bb      	str	r3, [r7, #8]
 80023f2:	68bb      	ldr	r3, [r7, #8]
    HAL_PWR_EnableBkUpAccess();
 80023f4:	f003 fc26 	bl	8005c44 <HAL_PWR_EnableBkUpAccess>

    // Reset the RTC
    __HAL_RCC_BACKUPRESET_FORCE();
 80023f8:	4b10      	ldr	r3, [pc, #64]	; (800243c <initialise_rtc_default+0x6c>)
 80023fa:	2201      	movs	r2, #1
 80023fc:	601a      	str	r2, [r3, #0]
    __HAL_RCC_BACKUPRESET_RELEASE();
 80023fe:	4b0f      	ldr	r3, [pc, #60]	; (800243c <initialise_rtc_default+0x6c>)
 8002400:	2200      	movs	r2, #0
 8002402:	601a      	str	r2, [r3, #0]

    // Initialize RTC hardware
    HAL_RTC_MspInit(hrtc);
 8002404:	6878      	ldr	r0, [r7, #4]
 8002406:	f000 fa45 	bl	8002894 <HAL_RTC_MspInit>

    // Set default time and date
    HAL_RTC_SetTime(hrtc, &defaultTime, RTC_FORMAT_BIN);
 800240a:	2200      	movs	r2, #0
 800240c:	490c      	ldr	r1, [pc, #48]	; (8002440 <initialise_rtc_default+0x70>)
 800240e:	6878      	ldr	r0, [r7, #4]
 8002410:	f004 fadb 	bl	80069ca <HAL_RTC_SetTime>
    HAL_RTC_SetDate(hrtc, &defaultDate, RTC_FORMAT_BIN);
 8002414:	2200      	movs	r2, #0
 8002416:	490b      	ldr	r1, [pc, #44]	; (8002444 <initialise_rtc_default+0x74>)
 8002418:	6878      	ldr	r0, [r7, #4]
 800241a:	f004 fbce 	bl	8006bba <HAL_RTC_SetDate>

    // Disable access to the backup domain
    HAL_PWR_DisableBkUpAccess();
 800241e:	f003 fc25 	bl	8005c6c <HAL_PWR_DisableBkUpAccess>

    uint16_t time = getTimestampMilliseconds(hrtc);
 8002422:	6878      	ldr	r0, [r7, #4]
 8002424:	f000 f810 	bl	8002448 <getTimestampMilliseconds>
 8002428:	4603      	mov	r3, r0
 800242a:	81fb      	strh	r3, [r7, #14]

    uint16_t t = time;
 800242c:	89fb      	ldrh	r3, [r7, #14]
 800242e:	81bb      	strh	r3, [r7, #12]
}
 8002430:	bf00      	nop
 8002432:	3710      	adds	r7, #16
 8002434:	46bd      	mov	sp, r7
 8002436:	bd80      	pop	{r7, pc}
 8002438:	40023800 	.word	0x40023800
 800243c:	42470e40 	.word	0x42470e40
 8002440:	20000620 	.word	0x20000620
 8002444:	20000018 	.word	0x20000018

08002448 <getTimestampMilliseconds>:

uint32_t getTimestampMilliseconds(RTC_HandleTypeDef* hrtc) {
 8002448:	b580      	push	{r7, lr}
 800244a:	b08c      	sub	sp, #48	; 0x30
 800244c:	af00      	add	r7, sp, #0
 800244e:	6078      	str	r0, [r7, #4]
    RTC_TimeTypeDef rtcTime;
    RTC_DateTypeDef rtcDate;

    // Read RTC time and date
    HAL_RTC_GetTime(hrtc, &rtcTime, RTC_FORMAT_BIN);
 8002450:	f107 0310 	add.w	r3, r7, #16
 8002454:	2200      	movs	r2, #0
 8002456:	4619      	mov	r1, r3
 8002458:	6878      	ldr	r0, [r7, #4]
 800245a:	f004 fb50 	bl	8006afe <HAL_RTC_GetTime>
    HAL_RTC_GetDate(hrtc, &rtcDate, RTC_FORMAT_BIN);
 800245e:	f107 030c 	add.w	r3, r7, #12
 8002462:	2200      	movs	r2, #0
 8002464:	4619      	mov	r1, r3
 8002466:	6878      	ldr	r0, [r7, #4]
 8002468:	f004 fc2b 	bl	8006cc2 <HAL_RTC_GetDate>

    // Calculate timestamp in milliseconds
    uint32_t timestampSeconds = rtcTime.Seconds + rtcTime.Minutes * 60 + rtcTime.Hours * 3600;
 800246c:	7cbb      	ldrb	r3, [r7, #18]
 800246e:	4619      	mov	r1, r3
 8002470:	7c7b      	ldrb	r3, [r7, #17]
 8002472:	461a      	mov	r2, r3
 8002474:	4613      	mov	r3, r2
 8002476:	011b      	lsls	r3, r3, #4
 8002478:	1a9b      	subs	r3, r3, r2
 800247a:	009b      	lsls	r3, r3, #2
 800247c:	18ca      	adds	r2, r1, r3
 800247e:	7c3b      	ldrb	r3, [r7, #16]
 8002480:	4619      	mov	r1, r3
 8002482:	f44f 6361 	mov.w	r3, #3600	; 0xe10
 8002486:	fb01 f303 	mul.w	r3, r1, r3
 800248a:	4413      	add	r3, r2
 800248c:	62fb      	str	r3, [r7, #44]	; 0x2c
    uint32_t timestampMilliseconds = timestampSeconds * 1000;
 800248e:	6afb      	ldr	r3, [r7, #44]	; 0x2c
 8002490:	f44f 727a 	mov.w	r2, #1000	; 0x3e8
 8002494:	fb02 f303 	mul.w	r3, r2, r3
 8002498:	62bb      	str	r3, [r7, #40]	; 0x28
    float subsecondsFraction = (float)(rtcTime.SecondFraction - rtcTime.SubSeconds) / (rtcTime.SecondFraction + 1);
 800249a:	69ba      	ldr	r2, [r7, #24]
 800249c:	697b      	ldr	r3, [r7, #20]
 800249e:	1ad3      	subs	r3, r2, r3
 80024a0:	ee07 3a90 	vmov	s15, r3
 80024a4:	eef8 6a67 	vcvt.f32.u32	s13, s15
 80024a8:	69bb      	ldr	r3, [r7, #24]
 80024aa:	3301      	adds	r3, #1
 80024ac:	ee07 3a90 	vmov	s15, r3
 80024b0:	eeb8 7a67 	vcvt.f32.u32	s14, s15
 80024b4:	eec6 7a87 	vdiv.f32	s15, s13, s14
 80024b8:	edc7 7a09 	vstr	s15, [r7, #36]	; 0x24
    timestampMilliseconds += subsecondsFraction * 1000;
 80024bc:	6abb      	ldr	r3, [r7, #40]	; 0x28
 80024be:	ee07 3a90 	vmov	s15, r3
 80024c2:	eeb8 7a67 	vcvt.f32.u32	s14, s15
 80024c6:	edd7 7a09 	vldr	s15, [r7, #36]	; 0x24
 80024ca:	eddf 6a08 	vldr	s13, [pc, #32]	; 80024ec <getTimestampMilliseconds+0xa4>
 80024ce:	ee67 7aa6 	vmul.f32	s15, s15, s13
 80024d2:	ee77 7a27 	vadd.f32	s15, s14, s15
 80024d6:	eefc 7ae7 	vcvt.u32.f32	s15, s15
 80024da:	ee17 3a90 	vmov	r3, s15
 80024de:	62bb      	str	r3, [r7, #40]	; 0x28

    return timestampMilliseconds;
 80024e0:	6abb      	ldr	r3, [r7, #40]	; 0x28
}
 80024e2:	4618      	mov	r0, r3
 80024e4:	3730      	adds	r7, #48	; 0x30
 80024e6:	46bd      	mov	sp, r7
 80024e8:	bd80      	pop	{r7, pc}
 80024ea:	bf00      	nop
 80024ec:	447a0000 	.word	0x447a0000

080024f0 <spi_sendOp_readByte>:
#ifndef SRC_SPI_DRIVER_C_
#define SRC_SPI_DRIVER_C_

#include "spi_driver.h"

HAL_StatusTypeDef spi_sendOp_readByte(uint8_t* opcode, SPI_HandleTypeDef *hspi, uint8_t* data_ptr, GPIO_TypeDef* GPIOx, uint16_t GPIO_Pin_CS) {
 80024f0:	b580      	push	{r7, lr}
 80024f2:	b086      	sub	sp, #24
 80024f4:	af00      	add	r7, sp, #0
 80024f6:	60f8      	str	r0, [r7, #12]
 80024f8:	60b9      	str	r1, [r7, #8]
 80024fa:	607a      	str	r2, [r7, #4]
 80024fc:	603b      	str	r3, [r7, #0]
	HAL_StatusTypeDef status;
	HAL_GPIO_WritePin(GPIOx, GPIO_Pin_CS, GPIO_PIN_RESET);	// Set the chip select pin to low to initiate SPI comms
 80024fe:	8c3b      	ldrh	r3, [r7, #32]
 8002500:	2200      	movs	r2, #0
 8002502:	4619      	mov	r1, r3
 8002504:	6838      	ldr	r0, [r7, #0]
 8002506:	f002 fadb 	bl	8004ac0 <HAL_GPIO_WritePin>
	HAL_SPI_Transmit(hspi, opcode, 1, TIMEOUT_SML);			// Write the write enable value to the Flash to initial reading
 800250a:	2302      	movs	r3, #2
 800250c:	2201      	movs	r2, #1
 800250e:	68f9      	ldr	r1, [r7, #12]
 8002510:	68b8      	ldr	r0, [r7, #8]
 8002512:	f004 fd6c 	bl	8006fee <HAL_SPI_Transmit>
	status = HAL_SPI_Receive(hspi, data_ptr, 1, TIMEOUT_SML);
 8002516:	2302      	movs	r3, #2
 8002518:	2201      	movs	r2, #1
 800251a:	6879      	ldr	r1, [r7, #4]
 800251c:	68b8      	ldr	r0, [r7, #8]
 800251e:	f004 fea9 	bl	8007274 <HAL_SPI_Receive>
 8002522:	4603      	mov	r3, r0
 8002524:	75fb      	strb	r3, [r7, #23]
	HAL_GPIO_WritePin(GPIOx, GPIO_Pin_CS, GPIO_PIN_SET);
 8002526:	8c3b      	ldrh	r3, [r7, #32]
 8002528:	2201      	movs	r2, #1
 800252a:	4619      	mov	r1, r3
 800252c:	6838      	ldr	r0, [r7, #0]
 800252e:	f002 fac7 	bl	8004ac0 <HAL_GPIO_WritePin>
	return status;
 8002532:	7dfb      	ldrb	r3, [r7, #23]
}
 8002534:	4618      	mov	r0, r3
 8002536:	3718      	adds	r7, #24
 8002538:	46bd      	mov	sp, r7
 800253a:	bd80      	pop	{r7, pc}

0800253c <perform_operation>:

HAL_StatusTypeDef perform_operation(uint8_t* opcode, SPI_HandleTypeDef *hspi, GPIO_TypeDef* GPIOx, uint16_t GPIO_Pin_CS) {
 800253c:	b580      	push	{r7, lr}
 800253e:	b086      	sub	sp, #24
 8002540:	af00      	add	r7, sp, #0
 8002542:	60f8      	str	r0, [r7, #12]
 8002544:	60b9      	str	r1, [r7, #8]
 8002546:	607a      	str	r2, [r7, #4]
 8002548:	807b      	strh	r3, [r7, #2]
	HAL_StatusTypeDef status;
	HAL_GPIO_WritePin(GPIOx, GPIO_Pin_CS, GPIO_PIN_RESET);				// Set the chip select pin to low to initiate SPI comms
 800254a:	887b      	ldrh	r3, [r7, #2]
 800254c:	2200      	movs	r2, #0
 800254e:	4619      	mov	r1, r3
 8002550:	6878      	ldr	r0, [r7, #4]
 8002552:	f002 fab5 	bl	8004ac0 <HAL_GPIO_WritePin>
	status = HAL_SPI_Transmit(hspi, opcode, 1, TIMEOUT_SML);				// Write the opcode value
 8002556:	2302      	movs	r3, #2
 8002558:	2201      	movs	r2, #1
 800255a:	68f9      	ldr	r1, [r7, #12]
 800255c:	68b8      	ldr	r0, [r7, #8]
 800255e:	f004 fd46 	bl	8006fee <HAL_SPI_Transmit>
 8002562:	4603      	mov	r3, r0
 8002564:	75fb      	strb	r3, [r7, #23]
	HAL_GPIO_WritePin(GPIOx, GPIO_Pin_CS, GPIO_PIN_SET);
 8002566:	887b      	ldrh	r3, [r7, #2]
 8002568:	2201      	movs	r2, #1
 800256a:	4619      	mov	r1, r3
 800256c:	6878      	ldr	r0, [r7, #4]
 800256e:	f002 faa7 	bl	8004ac0 <HAL_GPIO_WritePin>

	return status;
 8002572:	7dfb      	ldrb	r3, [r7, #23]
}
 8002574:	4618      	mov	r0, r3
 8002576:	3718      	adds	r7, #24
 8002578:	46bd      	mov	sp, r7
 800257a:	bd80      	pop	{r7, pc}

0800257c <spi_read_data>:

HAL_StatusTypeDef spi_read_data(uint8_t* opcode, uint16_t data_size, uint8_t data_read[data_size], SPI_HandleTypeDef *hspi, uint32_t addr, GPIO_TypeDef* GPIOx, uint16_t GPIO_Pin_CS) {
 800257c:	b580      	push	{r7, lr}
 800257e:	b086      	sub	sp, #24
 8002580:	af00      	add	r7, sp, #0
 8002582:	60f8      	str	r0, [r7, #12]
 8002584:	607a      	str	r2, [r7, #4]
 8002586:	603b      	str	r3, [r7, #0]
 8002588:	460b      	mov	r3, r1
 800258a:	817b      	strh	r3, [r7, #10]
	HAL_StatusTypeDef status;

	// Split the 24 bit address into three 8 bit ints
	uint8_t addrL = addr & 0xFF;  // Get the low byte
 800258c:	6a3b      	ldr	r3, [r7, #32]
 800258e:	b2db      	uxtb	r3, r3
 8002590:	75bb      	strb	r3, [r7, #22]
	uint8_t addrM = (addr >> 8) & 0xFF;  // Get the middle byte
 8002592:	6a3b      	ldr	r3, [r7, #32]
 8002594:	0a1b      	lsrs	r3, r3, #8
 8002596:	b2db      	uxtb	r3, r3
 8002598:	757b      	strb	r3, [r7, #21]
	uint8_t addrH = (addr >> 16) & 0xFF;  // Get the high byte
 800259a:	6a3b      	ldr	r3, [r7, #32]
 800259c:	0c1b      	lsrs	r3, r3, #16
 800259e:	b2db      	uxtb	r3, r3
 80025a0:	753b      	strb	r3, [r7, #20]

	// Read the data denoted by the given address
	HAL_GPIO_WritePin(GPIOx, GPIO_Pin_CS, GPIO_PIN_RESET);
 80025a2:	8d3b      	ldrh	r3, [r7, #40]	; 0x28
 80025a4:	2200      	movs	r2, #0
 80025a6:	4619      	mov	r1, r3
 80025a8:	6a78      	ldr	r0, [r7, #36]	; 0x24
 80025aa:	f002 fa89 	bl	8004ac0 <HAL_GPIO_WritePin>
	HAL_SPI_Transmit(hspi, opcode, 1, TIMEOUT_SML);	// Write the read enable value
 80025ae:	2302      	movs	r3, #2
 80025b0:	2201      	movs	r2, #1
 80025b2:	68f9      	ldr	r1, [r7, #12]
 80025b4:	6838      	ldr	r0, [r7, #0]
 80025b6:	f004 fd1a 	bl	8006fee <HAL_SPI_Transmit>

	// Transmit the 24 bit address of the page to initialise read from
	HAL_SPI_Transmit(hspi, &addrH, 1, TIMEOUT_SML);
 80025ba:	f107 0114 	add.w	r1, r7, #20
 80025be:	2302      	movs	r3, #2
 80025c0:	2201      	movs	r2, #1
 80025c2:	6838      	ldr	r0, [r7, #0]
 80025c4:	f004 fd13 	bl	8006fee <HAL_SPI_Transmit>
	HAL_SPI_Transmit(hspi, &addrM, 1, TIMEOUT_SML);
 80025c8:	f107 0115 	add.w	r1, r7, #21
 80025cc:	2302      	movs	r3, #2
 80025ce:	2201      	movs	r2, #1
 80025d0:	6838      	ldr	r0, [r7, #0]
 80025d2:	f004 fd0c 	bl	8006fee <HAL_SPI_Transmit>
	HAL_SPI_Transmit(hspi, &addrL, 1, TIMEOUT_SML);
 80025d6:	f107 0116 	add.w	r1, r7, #22
 80025da:	2302      	movs	r3, #2
 80025dc:	2201      	movs	r2, #1
 80025de:	6838      	ldr	r0, [r7, #0]
 80025e0:	f004 fd05 	bl	8006fee <HAL_SPI_Transmit>

	status = HAL_SPI_Receive(hspi, data_read, data_size, TIMEOUT_LRG);
 80025e4:	897a      	ldrh	r2, [r7, #10]
 80025e6:	2364      	movs	r3, #100	; 0x64
 80025e8:	6879      	ldr	r1, [r7, #4]
 80025ea:	6838      	ldr	r0, [r7, #0]
 80025ec:	f004 fe42 	bl	8007274 <HAL_SPI_Receive>
 80025f0:	4603      	mov	r3, r0
 80025f2:	75fb      	strb	r3, [r7, #23]
	HAL_GPIO_WritePin(GPIOx, GPIO_Pin_CS, GPIO_PIN_SET);
 80025f4:	8d3b      	ldrh	r3, [r7, #40]	; 0x28
 80025f6:	2201      	movs	r2, #1
 80025f8:	4619      	mov	r1, r3
 80025fa:	6a78      	ldr	r0, [r7, #36]	; 0x24
 80025fc:	f002 fa60 	bl	8004ac0 <HAL_GPIO_WritePin>

	return status;
 8002600:	7dfb      	ldrb	r3, [r7, #23]
}
 8002602:	4618      	mov	r0, r3
 8002604:	3718      	adds	r7, #24
 8002606:	46bd      	mov	sp, r7
 8002608:	bd80      	pop	{r7, pc}

0800260a <spi_write_data_dma>:
	HAL_GPIO_WritePin(GPIOx, GPIO_Pin_CS, GPIO_PIN_SET);	// Set the chip select pin to high to remove the Flash from the SPI bus

	return status;
}

HAL_StatusTypeDef spi_write_data_dma(uint8_t* opcode, uint16_t data_size, uint8_t data_write[data_size], SPI_HandleTypeDef *hspi, uint32_t addr, GPIO_TypeDef* GPIOx, uint16_t GPIO_Pin_CS) {
 800260a:	b580      	push	{r7, lr}
 800260c:	b086      	sub	sp, #24
 800260e:	af00      	add	r7, sp, #0
 8002610:	60f8      	str	r0, [r7, #12]
 8002612:	607a      	str	r2, [r7, #4]
 8002614:	603b      	str	r3, [r7, #0]
 8002616:	460b      	mov	r3, r1
 8002618:	817b      	strh	r3, [r7, #10]
    HAL_StatusTypeDef status;

    // Split the 24 bit address into three 8 bit ints
    uint8_t addrL = addr & 0xFF;  			// Get the low byte
 800261a:	6a3b      	ldr	r3, [r7, #32]
 800261c:	b2db      	uxtb	r3, r3
 800261e:	75bb      	strb	r3, [r7, #22]
    uint8_t addrM = (addr >> 8) & 0xFF;  	// Get the middle byte
 8002620:	6a3b      	ldr	r3, [r7, #32]
 8002622:	0a1b      	lsrs	r3, r3, #8
 8002624:	b2db      	uxtb	r3, r3
 8002626:	757b      	strb	r3, [r7, #21]
    uint8_t addrH = (addr >> 16) & 0xFF;  	// Get the high byte
 8002628:	6a3b      	ldr	r3, [r7, #32]
 800262a:	0c1b      	lsrs	r3, r3, #16
 800262c:	b2db      	uxtb	r3, r3
 800262e:	753b      	strb	r3, [r7, #20]

    // Send the PageWrite command
    HAL_GPIO_WritePin(GPIOx, GPIO_Pin_CS, GPIO_PIN_RESET);	// Set the chip select pin to low to initiate SPI comms
 8002630:	8d3b      	ldrh	r3, [r7, #40]	; 0x28
 8002632:	2200      	movs	r2, #0
 8002634:	4619      	mov	r1, r3
 8002636:	6a78      	ldr	r0, [r7, #36]	; 0x24
 8002638:	f002 fa42 	bl	8004ac0 <HAL_GPIO_WritePin>
    HAL_SPI_Transmit(hspi, opcode, 1, TIMEOUT_SML);					// Write the write enable value to the Flash to initial writing
 800263c:	2302      	movs	r3, #2
 800263e:	2201      	movs	r2, #1
 8002640:	68f9      	ldr	r1, [r7, #12]
 8002642:	6838      	ldr	r0, [r7, #0]
 8002644:	f004 fcd3 	bl	8006fee <HAL_SPI_Transmit>

    // Transmit the 24 bit address of the page to write to
    HAL_SPI_Transmit(hspi, &addrH, 1, TIMEOUT_SML);
 8002648:	f107 0114 	add.w	r1, r7, #20
 800264c:	2302      	movs	r3, #2
 800264e:	2201      	movs	r2, #1
 8002650:	6838      	ldr	r0, [r7, #0]
 8002652:	f004 fccc 	bl	8006fee <HAL_SPI_Transmit>
    HAL_SPI_Transmit(hspi, &addrM, 1, TIMEOUT_SML);
 8002656:	f107 0115 	add.w	r1, r7, #21
 800265a:	2302      	movs	r3, #2
 800265c:	2201      	movs	r2, #1
 800265e:	6838      	ldr	r0, [r7, #0]
 8002660:	f004 fcc5 	bl	8006fee <HAL_SPI_Transmit>
    HAL_SPI_Transmit(hspi, &addrL, 1, TIMEOUT_SML);
 8002664:	f107 0116 	add.w	r1, r7, #22
 8002668:	2302      	movs	r3, #2
 800266a:	2201      	movs	r2, #1
 800266c:	6838      	ldr	r0, [r7, #0]
 800266e:	f004 fcbe 	bl	8006fee <HAL_SPI_Transmit>

    // Start the DMA transfer
    status = HAL_SPI_Transmit_DMA(hspi, data_write, data_size);
 8002672:	897b      	ldrh	r3, [r7, #10]
 8002674:	461a      	mov	r2, r3
 8002676:	6879      	ldr	r1, [r7, #4]
 8002678:	6838      	ldr	r0, [r7, #0]
 800267a:	f005 f8c3 	bl	8007804 <HAL_SPI_Transmit_DMA>
 800267e:	4603      	mov	r3, r0
 8002680:	75fb      	strb	r3, [r7, #23]

    return status;
 8002682:	7dfb      	ldrb	r3, [r7, #23]
}
 8002684:	4618      	mov	r0, r3
 8002686:	3718      	adds	r7, #24
 8002688:	46bd      	mov	sp, r7
 800268a:	bd80      	pop	{r7, pc}

0800268c <HAL_MspInit>:
/* USER CODE END 0 */
/**
  * Initializes the Global MSP.
  */
void HAL_MspInit(void)
{
 800268c:	b480      	push	{r7}
 800268e:	b083      	sub	sp, #12
 8002690:	af00      	add	r7, sp, #0
  /* USER CODE BEGIN MspInit 0 */

  /* USER CODE END MspInit 0 */

  __HAL_RCC_SYSCFG_CLK_ENABLE();
 8002692:	2300      	movs	r3, #0
 8002694:	607b      	str	r3, [r7, #4]
 8002696:	4b10      	ldr	r3, [pc, #64]	; (80026d8 <HAL_MspInit+0x4c>)
 8002698:	6c5b      	ldr	r3, [r3, #68]	; 0x44
 800269a:	4a0f      	ldr	r2, [pc, #60]	; (80026d8 <HAL_MspInit+0x4c>)
 800269c:	f443 4380 	orr.w	r3, r3, #16384	; 0x4000
 80026a0:	6453      	str	r3, [r2, #68]	; 0x44
 80026a2:	4b0d      	ldr	r3, [pc, #52]	; (80026d8 <HAL_MspInit+0x4c>)
 80026a4:	6c5b      	ldr	r3, [r3, #68]	; 0x44
 80026a6:	f403 4380 	and.w	r3, r3, #16384	; 0x4000
 80026aa:	607b      	str	r3, [r7, #4]
 80026ac:	687b      	ldr	r3, [r7, #4]
  __HAL_RCC_PWR_CLK_ENABLE();
 80026ae:	2300      	movs	r3, #0
 80026b0:	603b      	str	r3, [r7, #0]
 80026b2:	4b09      	ldr	r3, [pc, #36]	; (80026d8 <HAL_MspInit+0x4c>)
 80026b4:	6c1b      	ldr	r3, [r3, #64]	; 0x40
 80026b6:	4a08      	ldr	r2, [pc, #32]	; (80026d8 <HAL_MspInit+0x4c>)
 80026b8:	f043 5380 	orr.w	r3, r3, #268435456	; 0x10000000
 80026bc:	6413      	str	r3, [r2, #64]	; 0x40
 80026be:	4b06      	ldr	r3, [pc, #24]	; (80026d8 <HAL_MspInit+0x4c>)
 80026c0:	6c1b      	ldr	r3, [r3, #64]	; 0x40
 80026c2:	f003 5380 	and.w	r3, r3, #268435456	; 0x10000000
 80026c6:	603b      	str	r3, [r7, #0]
 80026c8:	683b      	ldr	r3, [r7, #0]
  /* System interrupt init*/

  /* USER CODE BEGIN MspInit 1 */

  /* USER CODE END MspInit 1 */
}
 80026ca:	bf00      	nop
 80026cc:	370c      	adds	r7, #12
 80026ce:	46bd      	mov	sp, r7
 80026d0:	f85d 7b04 	ldr.w	r7, [sp], #4
 80026d4:	4770      	bx	lr
 80026d6:	bf00      	nop
 80026d8:	40023800 	.word	0x40023800

080026dc <HAL_CAN_MspInit>:
* This function configures the hardware resources used in this example
* @param hcan: CAN handle pointer
* @retval None
*/
void HAL_CAN_MspInit(CAN_HandleTypeDef* hcan)
{
 80026dc:	b580      	push	{r7, lr}
 80026de:	b08a      	sub	sp, #40	; 0x28
 80026e0:	af00      	add	r7, sp, #0
 80026e2:	6078      	str	r0, [r7, #4]
  GPIO_InitTypeDef GPIO_InitStruct = {0};
 80026e4:	f107 0314 	add.w	r3, r7, #20
 80026e8:	2200      	movs	r2, #0
 80026ea:	601a      	str	r2, [r3, #0]
 80026ec:	605a      	str	r2, [r3, #4]
 80026ee:	609a      	str	r2, [r3, #8]
 80026f0:	60da      	str	r2, [r3, #12]
 80026f2:	611a      	str	r2, [r3, #16]
  if(hcan->Instance==CAN2)
 80026f4:	687b      	ldr	r3, [r7, #4]
 80026f6:	681b      	ldr	r3, [r3, #0]
 80026f8:	4a24      	ldr	r2, [pc, #144]	; (800278c <HAL_CAN_MspInit+0xb0>)
 80026fa:	4293      	cmp	r3, r2
 80026fc:	d141      	bne.n	8002782 <HAL_CAN_MspInit+0xa6>
  {
  /* USER CODE BEGIN CAN2_MspInit 0 */

  /* USER CODE END CAN2_MspInit 0 */
    /* Peripheral clock enable */
    __HAL_RCC_CAN2_CLK_ENABLE();
 80026fe:	2300      	movs	r3, #0
 8002700:	613b      	str	r3, [r7, #16]
 8002702:	4b23      	ldr	r3, [pc, #140]	; (8002790 <HAL_CAN_MspInit+0xb4>)
 8002704:	6c1b      	ldr	r3, [r3, #64]	; 0x40
 8002706:	4a22      	ldr	r2, [pc, #136]	; (8002790 <HAL_CAN_MspInit+0xb4>)
 8002708:	f043 6380 	orr.w	r3, r3, #67108864	; 0x4000000
 800270c:	6413      	str	r3, [r2, #64]	; 0x40
 800270e:	4b20      	ldr	r3, [pc, #128]	; (8002790 <HAL_CAN_MspInit+0xb4>)
 8002710:	6c1b      	ldr	r3, [r3, #64]	; 0x40
 8002712:	f003 6380 	and.w	r3, r3, #67108864	; 0x4000000
 8002716:	613b      	str	r3, [r7, #16]
 8002718:	693b      	ldr	r3, [r7, #16]
    __HAL_RCC_CAN1_CLK_ENABLE();
 800271a:	2300      	movs	r3, #0
 800271c:	60fb      	str	r3, [r7, #12]
 800271e:	4b1c      	ldr	r3, [pc, #112]	; (8002790 <HAL_CAN_MspInit+0xb4>)
 8002720:	6c1b      	ldr	r3, [r3, #64]	; 0x40
 8002722:	4a1b      	ldr	r2, [pc, #108]	; (8002790 <HAL_CAN_MspInit+0xb4>)
 8002724:	f043 7300 	orr.w	r3, r3, #33554432	; 0x2000000
 8002728:	6413      	str	r3, [r2, #64]	; 0x40
 800272a:	4b19      	ldr	r3, [pc, #100]	; (8002790 <HAL_CAN_MspInit+0xb4>)
 800272c:	6c1b      	ldr	r3, [r3, #64]	; 0x40
 800272e:	f003 7300 	and.w	r3, r3, #33554432	; 0x2000000
 8002732:	60fb      	str	r3, [r7, #12]
 8002734:	68fb      	ldr	r3, [r7, #12]

    __HAL_RCC_GPIOB_CLK_ENABLE();
 8002736:	2300      	movs	r3, #0
 8002738:	60bb      	str	r3, [r7, #8]
 800273a:	4b15      	ldr	r3, [pc, #84]	; (8002790 <HAL_CAN_MspInit+0xb4>)
 800273c:	6b1b      	ldr	r3, [r3, #48]	; 0x30
 800273e:	4a14      	ldr	r2, [pc, #80]	; (8002790 <HAL_CAN_MspInit+0xb4>)
 8002740:	f043 0302 	orr.w	r3, r3, #2
 8002744:	6313      	str	r3, [r2, #48]	; 0x30
 8002746:	4b12      	ldr	r3, [pc, #72]	; (8002790 <HAL_CAN_MspInit+0xb4>)
 8002748:	6b1b      	ldr	r3, [r3, #48]	; 0x30
 800274a:	f003 0302 	and.w	r3, r3, #2
 800274e:	60bb      	str	r3, [r7, #8]
 8002750:	68bb      	ldr	r3, [r7, #8]
    /**CAN2 GPIO Configuration
    PB5     ------> CAN2_RX
    PB6     ------> CAN2_TX
    */
    GPIO_InitStruct.Pin = GPIO_PIN_5|GPIO_PIN_6;
 8002752:	2360      	movs	r3, #96	; 0x60
 8002754:	617b      	str	r3, [r7, #20]
    GPIO_InitStruct.Mode = GPIO_MODE_AF_PP;
 8002756:	2302      	movs	r3, #2
 8002758:	61bb      	str	r3, [r7, #24]
    GPIO_InitStruct.Pull = GPIO_NOPULL;
 800275a:	2300      	movs	r3, #0
 800275c:	61fb      	str	r3, [r7, #28]
    GPIO_InitStruct.Speed = GPIO_SPEED_FREQ_VERY_HIGH;
 800275e:	2303      	movs	r3, #3
 8002760:	623b      	str	r3, [r7, #32]
    GPIO_InitStruct.Alternate = GPIO_AF9_CAN2;
 8002762:	2309      	movs	r3, #9
 8002764:	627b      	str	r3, [r7, #36]	; 0x24
    HAL_GPIO_Init(GPIOB, &GPIO_InitStruct);
 8002766:	f107 0314 	add.w	r3, r7, #20
 800276a:	4619      	mov	r1, r3
 800276c:	4809      	ldr	r0, [pc, #36]	; (8002794 <HAL_CAN_MspInit+0xb8>)
 800276e:	f001 ffe3 	bl	8004738 <HAL_GPIO_Init>

    /* CAN2 interrupt Init */
    HAL_NVIC_SetPriority(CAN2_RX0_IRQn, 0, 0);
 8002772:	2200      	movs	r2, #0
 8002774:	2100      	movs	r1, #0
 8002776:	2040      	movs	r0, #64	; 0x40
 8002778:	f001 fba5 	bl	8003ec6 <HAL_NVIC_SetPriority>
    HAL_NVIC_EnableIRQ(CAN2_RX0_IRQn);
 800277c:	2040      	movs	r0, #64	; 0x40
 800277e:	f001 fbbe 	bl	8003efe <HAL_NVIC_EnableIRQ>
  /* USER CODE BEGIN CAN2_MspInit 1 */

  /* USER CODE END CAN2_MspInit 1 */
  }

}
 8002782:	bf00      	nop
 8002784:	3728      	adds	r7, #40	; 0x28
 8002786:	46bd      	mov	sp, r7
 8002788:	bd80      	pop	{r7, pc}
 800278a:	bf00      	nop
 800278c:	40006800 	.word	0x40006800
 8002790:	40023800 	.word	0x40023800
 8002794:	40020400 	.word	0x40020400

08002798 <HAL_I2C_MspInit>:
* This function configures the hardware resources used in this example
* @param hi2c: I2C handle pointer
* @retval None
*/
void HAL_I2C_MspInit(I2C_HandleTypeDef* hi2c)
{
 8002798:	b580      	push	{r7, lr}
 800279a:	b08c      	sub	sp, #48	; 0x30
 800279c:	af00      	add	r7, sp, #0
 800279e:	6078      	str	r0, [r7, #4]
  GPIO_InitTypeDef GPIO_InitStruct = {0};
 80027a0:	f107 031c 	add.w	r3, r7, #28
 80027a4:	2200      	movs	r2, #0
 80027a6:	601a      	str	r2, [r3, #0]
 80027a8:	605a      	str	r2, [r3, #4]
 80027aa:	609a      	str	r2, [r3, #8]
 80027ac:	60da      	str	r2, [r3, #12]
 80027ae:	611a      	str	r2, [r3, #16]
  if(hi2c->Instance==I2C1)
 80027b0:	687b      	ldr	r3, [r7, #4]
 80027b2:	681b      	ldr	r3, [r3, #0]
 80027b4:	4a33      	ldr	r2, [pc, #204]	; (8002884 <HAL_I2C_MspInit+0xec>)
 80027b6:	4293      	cmp	r3, r2
 80027b8:	d12d      	bne.n	8002816 <HAL_I2C_MspInit+0x7e>
  {
  /* USER CODE BEGIN I2C1_MspInit 0 */

  /* USER CODE END I2C1_MspInit 0 */

    __HAL_RCC_GPIOB_CLK_ENABLE();
 80027ba:	2300      	movs	r3, #0
 80027bc:	61bb      	str	r3, [r7, #24]
 80027be:	4b32      	ldr	r3, [pc, #200]	; (8002888 <HAL_I2C_MspInit+0xf0>)
 80027c0:	6b1b      	ldr	r3, [r3, #48]	; 0x30
 80027c2:	4a31      	ldr	r2, [pc, #196]	; (8002888 <HAL_I2C_MspInit+0xf0>)
 80027c4:	f043 0302 	orr.w	r3, r3, #2
 80027c8:	6313      	str	r3, [r2, #48]	; 0x30
 80027ca:	4b2f      	ldr	r3, [pc, #188]	; (8002888 <HAL_I2C_MspInit+0xf0>)
 80027cc:	6b1b      	ldr	r3, [r3, #48]	; 0x30
 80027ce:	f003 0302 	and.w	r3, r3, #2
 80027d2:	61bb      	str	r3, [r7, #24]
 80027d4:	69bb      	ldr	r3, [r7, #24]
    /**I2C1 GPIO Configuration
    PB8     ------> I2C1_SCL
    PB9     ------> I2C1_SDA
    */
    GPIO_InitStruct.Pin = GPIO_PIN_8|GPIO_PIN_9;
 80027d6:	f44f 7340 	mov.w	r3, #768	; 0x300
 80027da:	61fb      	str	r3, [r7, #28]
    GPIO_InitStruct.Mode = GPIO_MODE_AF_OD;
 80027dc:	2312      	movs	r3, #18
 80027de:	623b      	str	r3, [r7, #32]
    GPIO_InitStruct.Pull = GPIO_NOPULL;
 80027e0:	2300      	movs	r3, #0
 80027e2:	627b      	str	r3, [r7, #36]	; 0x24
    GPIO_InitStruct.Speed = GPIO_SPEED_FREQ_VERY_HIGH;
 80027e4:	2303      	movs	r3, #3
 80027e6:	62bb      	str	r3, [r7, #40]	; 0x28
    GPIO_InitStruct.Alternate = GPIO_AF4_I2C1;
 80027e8:	2304      	movs	r3, #4
 80027ea:	62fb      	str	r3, [r7, #44]	; 0x2c
    HAL_GPIO_Init(GPIOB, &GPIO_InitStruct);
 80027ec:	f107 031c 	add.w	r3, r7, #28
 80027f0:	4619      	mov	r1, r3
 80027f2:	4826      	ldr	r0, [pc, #152]	; (800288c <HAL_I2C_MspInit+0xf4>)
 80027f4:	f001 ffa0 	bl	8004738 <HAL_GPIO_Init>

    /* Peripheral clock enable */
    __HAL_RCC_I2C1_CLK_ENABLE();
 80027f8:	2300      	movs	r3, #0
 80027fa:	617b      	str	r3, [r7, #20]
 80027fc:	4b22      	ldr	r3, [pc, #136]	; (8002888 <HAL_I2C_MspInit+0xf0>)
 80027fe:	6c1b      	ldr	r3, [r3, #64]	; 0x40
 8002800:	4a21      	ldr	r2, [pc, #132]	; (8002888 <HAL_I2C_MspInit+0xf0>)
 8002802:	f443 1300 	orr.w	r3, r3, #2097152	; 0x200000
 8002806:	6413      	str	r3, [r2, #64]	; 0x40
 8002808:	4b1f      	ldr	r3, [pc, #124]	; (8002888 <HAL_I2C_MspInit+0xf0>)
 800280a:	6c1b      	ldr	r3, [r3, #64]	; 0x40
 800280c:	f403 1300 	and.w	r3, r3, #2097152	; 0x200000
 8002810:	617b      	str	r3, [r7, #20]
 8002812:	697b      	ldr	r3, [r7, #20]
  /* USER CODE BEGIN I2C2_MspInit 1 */

  /* USER CODE END I2C2_MspInit 1 */
  }

}
 8002814:	e031      	b.n	800287a <HAL_I2C_MspInit+0xe2>
  else if(hi2c->Instance==I2C2)
 8002816:	687b      	ldr	r3, [r7, #4]
 8002818:	681b      	ldr	r3, [r3, #0]
 800281a:	4a1d      	ldr	r2, [pc, #116]	; (8002890 <HAL_I2C_MspInit+0xf8>)
 800281c:	4293      	cmp	r3, r2
 800281e:	d12c      	bne.n	800287a <HAL_I2C_MspInit+0xe2>
    __HAL_RCC_GPIOB_CLK_ENABLE();
 8002820:	2300      	movs	r3, #0
 8002822:	613b      	str	r3, [r7, #16]
 8002824:	4b18      	ldr	r3, [pc, #96]	; (8002888 <HAL_I2C_MspInit+0xf0>)
 8002826:	6b1b      	ldr	r3, [r3, #48]	; 0x30
 8002828:	4a17      	ldr	r2, [pc, #92]	; (8002888 <HAL_I2C_MspInit+0xf0>)
 800282a:	f043 0302 	orr.w	r3, r3, #2
 800282e:	6313      	str	r3, [r2, #48]	; 0x30
 8002830:	4b15      	ldr	r3, [pc, #84]	; (8002888 <HAL_I2C_MspInit+0xf0>)
 8002832:	6b1b      	ldr	r3, [r3, #48]	; 0x30
 8002834:	f003 0302 	and.w	r3, r3, #2
 8002838:	613b      	str	r3, [r7, #16]
 800283a:	693b      	ldr	r3, [r7, #16]
    GPIO_InitStruct.Pin = GPIO_PIN_10|GPIO_PIN_11;
 800283c:	f44f 6340 	mov.w	r3, #3072	; 0xc00
 8002840:	61fb      	str	r3, [r7, #28]
    GPIO_InitStruct.Mode = GPIO_MODE_AF_OD;
 8002842:	2312      	movs	r3, #18
 8002844:	623b      	str	r3, [r7, #32]
    GPIO_InitStruct.Pull = GPIO_NOPULL;
 8002846:	2300      	movs	r3, #0
 8002848:	627b      	str	r3, [r7, #36]	; 0x24
    GPIO_InitStruct.Speed = GPIO_SPEED_FREQ_VERY_HIGH;
 800284a:	2303      	movs	r3, #3
 800284c:	62bb      	str	r3, [r7, #40]	; 0x28
    GPIO_InitStruct.Alternate = GPIO_AF4_I2C2;
 800284e:	2304      	movs	r3, #4
 8002850:	62fb      	str	r3, [r7, #44]	; 0x2c
    HAL_GPIO_Init(GPIOB, &GPIO_InitStruct);
 8002852:	f107 031c 	add.w	r3, r7, #28
 8002856:	4619      	mov	r1, r3
 8002858:	480c      	ldr	r0, [pc, #48]	; (800288c <HAL_I2C_MspInit+0xf4>)
 800285a:	f001 ff6d 	bl	8004738 <HAL_GPIO_Init>
    __HAL_RCC_I2C2_CLK_ENABLE();
 800285e:	2300      	movs	r3, #0
 8002860:	60fb      	str	r3, [r7, #12]
 8002862:	4b09      	ldr	r3, [pc, #36]	; (8002888 <HAL_I2C_MspInit+0xf0>)
 8002864:	6c1b      	ldr	r3, [r3, #64]	; 0x40
 8002866:	4a08      	ldr	r2, [pc, #32]	; (8002888 <HAL_I2C_MspInit+0xf0>)
 8002868:	f443 0380 	orr.w	r3, r3, #4194304	; 0x400000
 800286c:	6413      	str	r3, [r2, #64]	; 0x40
 800286e:	4b06      	ldr	r3, [pc, #24]	; (8002888 <HAL_I2C_MspInit+0xf0>)
 8002870:	6c1b      	ldr	r3, [r3, #64]	; 0x40
 8002872:	f403 0380 	and.w	r3, r3, #4194304	; 0x400000
 8002876:	60fb      	str	r3, [r7, #12]
 8002878:	68fb      	ldr	r3, [r7, #12]
}
 800287a:	bf00      	nop
 800287c:	3730      	adds	r7, #48	; 0x30
 800287e:	46bd      	mov	sp, r7
 8002880:	bd80      	pop	{r7, pc}
 8002882:	bf00      	nop
 8002884:	40005400 	.word	0x40005400
 8002888:	40023800 	.word	0x40023800
 800288c:	40020400 	.word	0x40020400
 8002890:	40005800 	.word	0x40005800

08002894 <HAL_RTC_MspInit>:
* This function configures the hardware resources used in this example
* @param hrtc: RTC handle pointer
* @retval None
*/
void HAL_RTC_MspInit(RTC_HandleTypeDef* hrtc)
{
 8002894:	b580      	push	{r7, lr}
 8002896:	b08e      	sub	sp, #56	; 0x38
 8002898:	af00      	add	r7, sp, #0
 800289a:	6078      	str	r0, [r7, #4]
  RCC_PeriphCLKInitTypeDef PeriphClkInitStruct = {0};
 800289c:	f107 0308 	add.w	r3, r7, #8
 80028a0:	2230      	movs	r2, #48	; 0x30
 80028a2:	2100      	movs	r1, #0
 80028a4:	4618      	mov	r0, r3
 80028a6:	f006 fdab 	bl	8009400 <memset>
  if(hrtc->Instance==RTC)
 80028aa:	687b      	ldr	r3, [r7, #4]
 80028ac:	681b      	ldr	r3, [r3, #0]
 80028ae:	4a0c      	ldr	r2, [pc, #48]	; (80028e0 <HAL_RTC_MspInit+0x4c>)
 80028b0:	4293      	cmp	r3, r2
 80028b2:	d111      	bne.n	80028d8 <HAL_RTC_MspInit+0x44>

  /* USER CODE END RTC_MspInit 0 */

  /** Initializes the peripherals clock
  */
    PeriphClkInitStruct.PeriphClockSelection = RCC_PERIPHCLK_RTC;
 80028b4:	2320      	movs	r3, #32
 80028b6:	60bb      	str	r3, [r7, #8]
    PeriphClkInitStruct.RTCClockSelection = RCC_RTCCLKSOURCE_LSI;
 80028b8:	f44f 7300 	mov.w	r3, #512	; 0x200
 80028bc:	633b      	str	r3, [r7, #48]	; 0x30
    if (HAL_RCCEx_PeriphCLKConfig(&PeriphClkInitStruct) != HAL_OK)
 80028be:	f107 0308 	add.w	r3, r7, #8
 80028c2:	4618      	mov	r0, r3
 80028c4:	f003 fe3e 	bl	8006544 <HAL_RCCEx_PeriphCLKConfig>
 80028c8:	4603      	mov	r3, r0
 80028ca:	2b00      	cmp	r3, #0
 80028cc:	d001      	beq.n	80028d2 <HAL_RTC_MspInit+0x3e>
    {
      Error_Handler();
 80028ce:	f7ff fa2f 	bl	8001d30 <Error_Handler>
    }

    /* Peripheral clock enable */
    __HAL_RCC_RTC_ENABLE();
 80028d2:	4b04      	ldr	r3, [pc, #16]	; (80028e4 <HAL_RTC_MspInit+0x50>)
 80028d4:	2201      	movs	r2, #1
 80028d6:	601a      	str	r2, [r3, #0]
  /* USER CODE BEGIN RTC_MspInit 1 */

  /* USER CODE END RTC_MspInit 1 */
  }

}
 80028d8:	bf00      	nop
 80028da:	3738      	adds	r7, #56	; 0x38
 80028dc:	46bd      	mov	sp, r7
 80028de:	bd80      	pop	{r7, pc}
 80028e0:	40002800 	.word	0x40002800
 80028e4:	42470e3c 	.word	0x42470e3c

080028e8 <HAL_SPI_MspInit>:
* This function configures the hardware resources used in this example
* @param hspi: SPI handle pointer
* @retval None
*/
void HAL_SPI_MspInit(SPI_HandleTypeDef* hspi)
{
 80028e8:	b580      	push	{r7, lr}
 80028ea:	b08c      	sub	sp, #48	; 0x30
 80028ec:	af00      	add	r7, sp, #0
 80028ee:	6078      	str	r0, [r7, #4]
  GPIO_InitTypeDef GPIO_InitStruct = {0};
 80028f0:	f107 031c 	add.w	r3, r7, #28
 80028f4:	2200      	movs	r2, #0
 80028f6:	601a      	str	r2, [r3, #0]
 80028f8:	605a      	str	r2, [r3, #4]
 80028fa:	609a      	str	r2, [r3, #8]
 80028fc:	60da      	str	r2, [r3, #12]
 80028fe:	611a      	str	r2, [r3, #16]
  if(hspi->Instance==SPI1)
 8002900:	687b      	ldr	r3, [r7, #4]
 8002902:	681b      	ldr	r3, [r3, #0]
 8002904:	4a6f      	ldr	r2, [pc, #444]	; (8002ac4 <HAL_SPI_MspInit+0x1dc>)
 8002906:	4293      	cmp	r3, r2
 8002908:	d15b      	bne.n	80029c2 <HAL_SPI_MspInit+0xda>
  {
  /* USER CODE BEGIN SPI1_MspInit 0 */

  /* USER CODE END SPI1_MspInit 0 */
    /* Peripheral clock enable */
    __HAL_RCC_SPI1_CLK_ENABLE();
 800290a:	2300      	movs	r3, #0
 800290c:	61bb      	str	r3, [r7, #24]
 800290e:	4b6e      	ldr	r3, [pc, #440]	; (8002ac8 <HAL_SPI_MspInit+0x1e0>)
 8002910:	6c5b      	ldr	r3, [r3, #68]	; 0x44
 8002912:	4a6d      	ldr	r2, [pc, #436]	; (8002ac8 <HAL_SPI_MspInit+0x1e0>)
 8002914:	f443 5380 	orr.w	r3, r3, #4096	; 0x1000
 8002918:	6453      	str	r3, [r2, #68]	; 0x44
 800291a:	4b6b      	ldr	r3, [pc, #428]	; (8002ac8 <HAL_SPI_MspInit+0x1e0>)
 800291c:	6c5b      	ldr	r3, [r3, #68]	; 0x44
 800291e:	f403 5380 	and.w	r3, r3, #4096	; 0x1000
 8002922:	61bb      	str	r3, [r7, #24]
 8002924:	69bb      	ldr	r3, [r7, #24]

    __HAL_RCC_GPIOA_CLK_ENABLE();
 8002926:	2300      	movs	r3, #0
 8002928:	617b      	str	r3, [r7, #20]
 800292a:	4b67      	ldr	r3, [pc, #412]	; (8002ac8 <HAL_SPI_MspInit+0x1e0>)
 800292c:	6b1b      	ldr	r3, [r3, #48]	; 0x30
 800292e:	4a66      	ldr	r2, [pc, #408]	; (8002ac8 <HAL_SPI_MspInit+0x1e0>)
 8002930:	f043 0301 	orr.w	r3, r3, #1
 8002934:	6313      	str	r3, [r2, #48]	; 0x30
 8002936:	4b64      	ldr	r3, [pc, #400]	; (8002ac8 <HAL_SPI_MspInit+0x1e0>)
 8002938:	6b1b      	ldr	r3, [r3, #48]	; 0x30
 800293a:	f003 0301 	and.w	r3, r3, #1
 800293e:	617b      	str	r3, [r7, #20]
 8002940:	697b      	ldr	r3, [r7, #20]
    /**SPI1 GPIO Configuration
    PA5     ------> SPI1_SCK
    PA6     ------> SPI1_MISO
    PA7     ------> SPI1_MOSI
    */
    GPIO_InitStruct.Pin = GPIO_PIN_5|GPIO_PIN_6|GPIO_PIN_7;
 8002942:	23e0      	movs	r3, #224	; 0xe0
 8002944:	61fb      	str	r3, [r7, #28]
    GPIO_InitStruct.Mode = GPIO_MODE_AF_PP;
 8002946:	2302      	movs	r3, #2
 8002948:	623b      	str	r3, [r7, #32]
    GPIO_InitStruct.Pull = GPIO_NOPULL;
 800294a:	2300      	movs	r3, #0
 800294c:	627b      	str	r3, [r7, #36]	; 0x24
    GPIO_InitStruct.Speed = GPIO_SPEED_FREQ_VERY_HIGH;
 800294e:	2303      	movs	r3, #3
 8002950:	62bb      	str	r3, [r7, #40]	; 0x28
    GPIO_InitStruct.Alternate = GPIO_AF5_SPI1;
 8002952:	2305      	movs	r3, #5
 8002954:	62fb      	str	r3, [r7, #44]	; 0x2c
    HAL_GPIO_Init(GPIOA, &GPIO_InitStruct);
 8002956:	f107 031c 	add.w	r3, r7, #28
 800295a:	4619      	mov	r1, r3
 800295c:	485b      	ldr	r0, [pc, #364]	; (8002acc <HAL_SPI_MspInit+0x1e4>)
 800295e:	f001 feeb 	bl	8004738 <HAL_GPIO_Init>

    /* SPI1 DMA Init */
    /* SPI1_TX Init */
    hdma_spi1_tx.Instance = DMA2_Stream3;
 8002962:	4b5b      	ldr	r3, [pc, #364]	; (8002ad0 <HAL_SPI_MspInit+0x1e8>)
 8002964:	4a5b      	ldr	r2, [pc, #364]	; (8002ad4 <HAL_SPI_MspInit+0x1ec>)
 8002966:	601a      	str	r2, [r3, #0]
    hdma_spi1_tx.Init.Channel = DMA_CHANNEL_3;
 8002968:	4b59      	ldr	r3, [pc, #356]	; (8002ad0 <HAL_SPI_MspInit+0x1e8>)
 800296a:	f04f 62c0 	mov.w	r2, #100663296	; 0x6000000
 800296e:	605a      	str	r2, [r3, #4]
    hdma_spi1_tx.Init.Direction = DMA_MEMORY_TO_PERIPH;
 8002970:	4b57      	ldr	r3, [pc, #348]	; (8002ad0 <HAL_SPI_MspInit+0x1e8>)
 8002972:	2240      	movs	r2, #64	; 0x40
 8002974:	609a      	str	r2, [r3, #8]
    hdma_spi1_tx.Init.PeriphInc = DMA_PINC_DISABLE;
 8002976:	4b56      	ldr	r3, [pc, #344]	; (8002ad0 <HAL_SPI_MspInit+0x1e8>)
 8002978:	2200      	movs	r2, #0
 800297a:	60da      	str	r2, [r3, #12]
    hdma_spi1_tx.Init.MemInc = DMA_MINC_ENABLE;
 800297c:	4b54      	ldr	r3, [pc, #336]	; (8002ad0 <HAL_SPI_MspInit+0x1e8>)
 800297e:	f44f 6280 	mov.w	r2, #1024	; 0x400
 8002982:	611a      	str	r2, [r3, #16]
    hdma_spi1_tx.Init.PeriphDataAlignment = DMA_PDATAALIGN_BYTE;
 8002984:	4b52      	ldr	r3, [pc, #328]	; (8002ad0 <HAL_SPI_MspInit+0x1e8>)
 8002986:	2200      	movs	r2, #0
 8002988:	615a      	str	r2, [r3, #20]
    hdma_spi1_tx.Init.MemDataAlignment = DMA_MDATAALIGN_BYTE;
 800298a:	4b51      	ldr	r3, [pc, #324]	; (8002ad0 <HAL_SPI_MspInit+0x1e8>)
 800298c:	2200      	movs	r2, #0
 800298e:	619a      	str	r2, [r3, #24]
    hdma_spi1_tx.Init.Mode = DMA_NORMAL;
 8002990:	4b4f      	ldr	r3, [pc, #316]	; (8002ad0 <HAL_SPI_MspInit+0x1e8>)
 8002992:	2200      	movs	r2, #0
 8002994:	61da      	str	r2, [r3, #28]
    hdma_spi1_tx.Init.Priority = DMA_PRIORITY_MEDIUM;
 8002996:	4b4e      	ldr	r3, [pc, #312]	; (8002ad0 <HAL_SPI_MspInit+0x1e8>)
 8002998:	f44f 3280 	mov.w	r2, #65536	; 0x10000
 800299c:	621a      	str	r2, [r3, #32]
    hdma_spi1_tx.Init.FIFOMode = DMA_FIFOMODE_DISABLE;
 800299e:	4b4c      	ldr	r3, [pc, #304]	; (8002ad0 <HAL_SPI_MspInit+0x1e8>)
 80029a0:	2200      	movs	r2, #0
 80029a2:	625a      	str	r2, [r3, #36]	; 0x24
    if (HAL_DMA_Init(&hdma_spi1_tx) != HAL_OK)
 80029a4:	484a      	ldr	r0, [pc, #296]	; (8002ad0 <HAL_SPI_MspInit+0x1e8>)
 80029a6:	f001 fac5 	bl	8003f34 <HAL_DMA_Init>
 80029aa:	4603      	mov	r3, r0
 80029ac:	2b00      	cmp	r3, #0
 80029ae:	d001      	beq.n	80029b4 <HAL_SPI_MspInit+0xcc>
    {
      Error_Handler();
 80029b0:	f7ff f9be 	bl	8001d30 <Error_Handler>
    }

    __HAL_LINKDMA(hspi,hdmatx,hdma_spi1_tx);
 80029b4:	687b      	ldr	r3, [r7, #4]
 80029b6:	4a46      	ldr	r2, [pc, #280]	; (8002ad0 <HAL_SPI_MspInit+0x1e8>)
 80029b8:	649a      	str	r2, [r3, #72]	; 0x48
 80029ba:	4a45      	ldr	r2, [pc, #276]	; (8002ad0 <HAL_SPI_MspInit+0x1e8>)
 80029bc:	687b      	ldr	r3, [r7, #4]
 80029be:	6393      	str	r3, [r2, #56]	; 0x38
  /* USER CODE BEGIN SPI2_MspInit 1 */

  /* USER CODE END SPI2_MspInit 1 */
  }

}
 80029c0:	e07b      	b.n	8002aba <HAL_SPI_MspInit+0x1d2>
  else if(hspi->Instance==SPI2)
 80029c2:	687b      	ldr	r3, [r7, #4]
 80029c4:	681b      	ldr	r3, [r3, #0]
 80029c6:	4a44      	ldr	r2, [pc, #272]	; (8002ad8 <HAL_SPI_MspInit+0x1f0>)
 80029c8:	4293      	cmp	r3, r2
 80029ca:	d176      	bne.n	8002aba <HAL_SPI_MspInit+0x1d2>
    __HAL_RCC_SPI2_CLK_ENABLE();
 80029cc:	2300      	movs	r3, #0
 80029ce:	613b      	str	r3, [r7, #16]
 80029d0:	4b3d      	ldr	r3, [pc, #244]	; (8002ac8 <HAL_SPI_MspInit+0x1e0>)
 80029d2:	6c1b      	ldr	r3, [r3, #64]	; 0x40
 80029d4:	4a3c      	ldr	r2, [pc, #240]	; (8002ac8 <HAL_SPI_MspInit+0x1e0>)
 80029d6:	f443 4380 	orr.w	r3, r3, #16384	; 0x4000
 80029da:	6413      	str	r3, [r2, #64]	; 0x40
 80029dc:	4b3a      	ldr	r3, [pc, #232]	; (8002ac8 <HAL_SPI_MspInit+0x1e0>)
 80029de:	6c1b      	ldr	r3, [r3, #64]	; 0x40
 80029e0:	f403 4380 	and.w	r3, r3, #16384	; 0x4000
 80029e4:	613b      	str	r3, [r7, #16]
 80029e6:	693b      	ldr	r3, [r7, #16]
    __HAL_RCC_GPIOC_CLK_ENABLE();
 80029e8:	2300      	movs	r3, #0
 80029ea:	60fb      	str	r3, [r7, #12]
 80029ec:	4b36      	ldr	r3, [pc, #216]	; (8002ac8 <HAL_SPI_MspInit+0x1e0>)
 80029ee:	6b1b      	ldr	r3, [r3, #48]	; 0x30
 80029f0:	4a35      	ldr	r2, [pc, #212]	; (8002ac8 <HAL_SPI_MspInit+0x1e0>)
 80029f2:	f043 0304 	orr.w	r3, r3, #4
 80029f6:	6313      	str	r3, [r2, #48]	; 0x30
 80029f8:	4b33      	ldr	r3, [pc, #204]	; (8002ac8 <HAL_SPI_MspInit+0x1e0>)
 80029fa:	6b1b      	ldr	r3, [r3, #48]	; 0x30
 80029fc:	f003 0304 	and.w	r3, r3, #4
 8002a00:	60fb      	str	r3, [r7, #12]
 8002a02:	68fb      	ldr	r3, [r7, #12]
    __HAL_RCC_GPIOD_CLK_ENABLE();
 8002a04:	2300      	movs	r3, #0
 8002a06:	60bb      	str	r3, [r7, #8]
 8002a08:	4b2f      	ldr	r3, [pc, #188]	; (8002ac8 <HAL_SPI_MspInit+0x1e0>)
 8002a0a:	6b1b      	ldr	r3, [r3, #48]	; 0x30
 8002a0c:	4a2e      	ldr	r2, [pc, #184]	; (8002ac8 <HAL_SPI_MspInit+0x1e0>)
 8002a0e:	f043 0308 	orr.w	r3, r3, #8
 8002a12:	6313      	str	r3, [r2, #48]	; 0x30
 8002a14:	4b2c      	ldr	r3, [pc, #176]	; (8002ac8 <HAL_SPI_MspInit+0x1e0>)
 8002a16:	6b1b      	ldr	r3, [r3, #48]	; 0x30
 8002a18:	f003 0308 	and.w	r3, r3, #8
 8002a1c:	60bb      	str	r3, [r7, #8]
 8002a1e:	68bb      	ldr	r3, [r7, #8]
    GPIO_InitStruct.Pin = GPIO_PIN_2|GPIO_PIN_3;
 8002a20:	230c      	movs	r3, #12
 8002a22:	61fb      	str	r3, [r7, #28]
    GPIO_InitStruct.Mode = GPIO_MODE_AF_PP;
 8002a24:	2302      	movs	r3, #2
 8002a26:	623b      	str	r3, [r7, #32]
    GPIO_InitStruct.Pull = GPIO_NOPULL;
 8002a28:	2300      	movs	r3, #0
 8002a2a:	627b      	str	r3, [r7, #36]	; 0x24
    GPIO_InitStruct.Speed = GPIO_SPEED_FREQ_VERY_HIGH;
 8002a2c:	2303      	movs	r3, #3
 8002a2e:	62bb      	str	r3, [r7, #40]	; 0x28
    GPIO_InitStruct.Alternate = GPIO_AF5_SPI2;
 8002a30:	2305      	movs	r3, #5
 8002a32:	62fb      	str	r3, [r7, #44]	; 0x2c
    HAL_GPIO_Init(GPIOC, &GPIO_InitStruct);
 8002a34:	f107 031c 	add.w	r3, r7, #28
 8002a38:	4619      	mov	r1, r3
 8002a3a:	4828      	ldr	r0, [pc, #160]	; (8002adc <HAL_SPI_MspInit+0x1f4>)
 8002a3c:	f001 fe7c 	bl	8004738 <HAL_GPIO_Init>
    GPIO_InitStruct.Pin = GPIO_PIN_3;
 8002a40:	2308      	movs	r3, #8
 8002a42:	61fb      	str	r3, [r7, #28]
    GPIO_InitStruct.Mode = GPIO_MODE_AF_PP;
 8002a44:	2302      	movs	r3, #2
 8002a46:	623b      	str	r3, [r7, #32]
    GPIO_InitStruct.Pull = GPIO_NOPULL;
 8002a48:	2300      	movs	r3, #0
 8002a4a:	627b      	str	r3, [r7, #36]	; 0x24
    GPIO_InitStruct.Speed = GPIO_SPEED_FREQ_VERY_HIGH;
 8002a4c:	2303      	movs	r3, #3
 8002a4e:	62bb      	str	r3, [r7, #40]	; 0x28
    GPIO_InitStruct.Alternate = GPIO_AF5_SPI2;
 8002a50:	2305      	movs	r3, #5
 8002a52:	62fb      	str	r3, [r7, #44]	; 0x2c
    HAL_GPIO_Init(GPIOD, &GPIO_InitStruct);
 8002a54:	f107 031c 	add.w	r3, r7, #28
 8002a58:	4619      	mov	r1, r3
 8002a5a:	4821      	ldr	r0, [pc, #132]	; (8002ae0 <HAL_SPI_MspInit+0x1f8>)
 8002a5c:	f001 fe6c 	bl	8004738 <HAL_GPIO_Init>
    hdma_spi2_tx.Instance = DMA1_Stream4;
 8002a60:	4b20      	ldr	r3, [pc, #128]	; (8002ae4 <HAL_SPI_MspInit+0x1fc>)
 8002a62:	4a21      	ldr	r2, [pc, #132]	; (8002ae8 <HAL_SPI_MspInit+0x200>)
 8002a64:	601a      	str	r2, [r3, #0]
    hdma_spi2_tx.Init.Channel = DMA_CHANNEL_0;
 8002a66:	4b1f      	ldr	r3, [pc, #124]	; (8002ae4 <HAL_SPI_MspInit+0x1fc>)
 8002a68:	2200      	movs	r2, #0
 8002a6a:	605a      	str	r2, [r3, #4]
    hdma_spi2_tx.Init.Direction = DMA_MEMORY_TO_PERIPH;
 8002a6c:	4b1d      	ldr	r3, [pc, #116]	; (8002ae4 <HAL_SPI_MspInit+0x1fc>)
 8002a6e:	2240      	movs	r2, #64	; 0x40
 8002a70:	609a      	str	r2, [r3, #8]
    hdma_spi2_tx.Init.PeriphInc = DMA_PINC_DISABLE;
 8002a72:	4b1c      	ldr	r3, [pc, #112]	; (8002ae4 <HAL_SPI_MspInit+0x1fc>)
 8002a74:	2200      	movs	r2, #0
 8002a76:	60da      	str	r2, [r3, #12]
    hdma_spi2_tx.Init.MemInc = DMA_MINC_ENABLE;
 8002a78:	4b1a      	ldr	r3, [pc, #104]	; (8002ae4 <HAL_SPI_MspInit+0x1fc>)
 8002a7a:	f44f 6280 	mov.w	r2, #1024	; 0x400
 8002a7e:	611a      	str	r2, [r3, #16]
    hdma_spi2_tx.Init.PeriphDataAlignment = DMA_PDATAALIGN_BYTE;
 8002a80:	4b18      	ldr	r3, [pc, #96]	; (8002ae4 <HAL_SPI_MspInit+0x1fc>)
 8002a82:	2200      	movs	r2, #0
 8002a84:	615a      	str	r2, [r3, #20]
    hdma_spi2_tx.Init.MemDataAlignment = DMA_MDATAALIGN_BYTE;
 8002a86:	4b17      	ldr	r3, [pc, #92]	; (8002ae4 <HAL_SPI_MspInit+0x1fc>)
 8002a88:	2200      	movs	r2, #0
 8002a8a:	619a      	str	r2, [r3, #24]
    hdma_spi2_tx.Init.Mode = DMA_NORMAL;
 8002a8c:	4b15      	ldr	r3, [pc, #84]	; (8002ae4 <HAL_SPI_MspInit+0x1fc>)
 8002a8e:	2200      	movs	r2, #0
 8002a90:	61da      	str	r2, [r3, #28]
    hdma_spi2_tx.Init.Priority = DMA_PRIORITY_LOW;
 8002a92:	4b14      	ldr	r3, [pc, #80]	; (8002ae4 <HAL_SPI_MspInit+0x1fc>)
 8002a94:	2200      	movs	r2, #0
 8002a96:	621a      	str	r2, [r3, #32]
    hdma_spi2_tx.Init.FIFOMode = DMA_FIFOMODE_DISABLE;
 8002a98:	4b12      	ldr	r3, [pc, #72]	; (8002ae4 <HAL_SPI_MspInit+0x1fc>)
 8002a9a:	2200      	movs	r2, #0
 8002a9c:	625a      	str	r2, [r3, #36]	; 0x24
    if (HAL_DMA_Init(&hdma_spi2_tx) != HAL_OK)
 8002a9e:	4811      	ldr	r0, [pc, #68]	; (8002ae4 <HAL_SPI_MspInit+0x1fc>)
 8002aa0:	f001 fa48 	bl	8003f34 <HAL_DMA_Init>
 8002aa4:	4603      	mov	r3, r0
 8002aa6:	2b00      	cmp	r3, #0
 8002aa8:	d001      	beq.n	8002aae <HAL_SPI_MspInit+0x1c6>
      Error_Handler();
 8002aaa:	f7ff f941 	bl	8001d30 <Error_Handler>
    __HAL_LINKDMA(hspi,hdmatx,hdma_spi2_tx);
 8002aae:	687b      	ldr	r3, [r7, #4]
 8002ab0:	4a0c      	ldr	r2, [pc, #48]	; (8002ae4 <HAL_SPI_MspInit+0x1fc>)
 8002ab2:	649a      	str	r2, [r3, #72]	; 0x48
 8002ab4:	4a0b      	ldr	r2, [pc, #44]	; (8002ae4 <HAL_SPI_MspInit+0x1fc>)
 8002ab6:	687b      	ldr	r3, [r7, #4]
 8002ab8:	6393      	str	r3, [r2, #56]	; 0x38
}
 8002aba:	bf00      	nop
 8002abc:	3730      	adds	r7, #48	; 0x30
 8002abe:	46bd      	mov	sp, r7
 8002ac0:	bd80      	pop	{r7, pc}
 8002ac2:	bf00      	nop
 8002ac4:	40013000 	.word	0x40013000
 8002ac8:	40023800 	.word	0x40023800
 8002acc:	40020000 	.word	0x40020000
 8002ad0:	200001e8 	.word	0x200001e8
 8002ad4:	40026458 	.word	0x40026458
 8002ad8:	40003800 	.word	0x40003800
 8002adc:	40020800 	.word	0x40020800
 8002ae0:	40020c00 	.word	0x40020c00
 8002ae4:	20000248 	.word	0x20000248
 8002ae8:	40026070 	.word	0x40026070

08002aec <HAL_TIM_Base_MspInit>:
* This function configures the hardware resources used in this example
* @param htim_base: TIM_Base handle pointer
* @retval None
*/
void HAL_TIM_Base_MspInit(TIM_HandleTypeDef* htim_base)
{
 8002aec:	b580      	push	{r7, lr}
 8002aee:	b084      	sub	sp, #16
 8002af0:	af00      	add	r7, sp, #0
 8002af2:	6078      	str	r0, [r7, #4]
  if(htim_base->Instance==TIM6)
 8002af4:	687b      	ldr	r3, [r7, #4]
 8002af6:	681b      	ldr	r3, [r3, #0]
 8002af8:	4a1c      	ldr	r2, [pc, #112]	; (8002b6c <HAL_TIM_Base_MspInit+0x80>)
 8002afa:	4293      	cmp	r3, r2
 8002afc:	d116      	bne.n	8002b2c <HAL_TIM_Base_MspInit+0x40>
  {
  /* USER CODE BEGIN TIM6_MspInit 0 */

  /* USER CODE END TIM6_MspInit 0 */
    /* Peripheral clock enable */
    __HAL_RCC_TIM6_CLK_ENABLE();
 8002afe:	2300      	movs	r3, #0
 8002b00:	60fb      	str	r3, [r7, #12]
 8002b02:	4b1b      	ldr	r3, [pc, #108]	; (8002b70 <HAL_TIM_Base_MspInit+0x84>)
 8002b04:	6c1b      	ldr	r3, [r3, #64]	; 0x40
 8002b06:	4a1a      	ldr	r2, [pc, #104]	; (8002b70 <HAL_TIM_Base_MspInit+0x84>)
 8002b08:	f043 0310 	orr.w	r3, r3, #16
 8002b0c:	6413      	str	r3, [r2, #64]	; 0x40
 8002b0e:	4b18      	ldr	r3, [pc, #96]	; (8002b70 <HAL_TIM_Base_MspInit+0x84>)
 8002b10:	6c1b      	ldr	r3, [r3, #64]	; 0x40
 8002b12:	f003 0310 	and.w	r3, r3, #16
 8002b16:	60fb      	str	r3, [r7, #12]
 8002b18:	68fb      	ldr	r3, [r7, #12]
    /* TIM6 interrupt Init */
    HAL_NVIC_SetPriority(TIM6_DAC_IRQn, 0, 0);
 8002b1a:	2200      	movs	r2, #0
 8002b1c:	2100      	movs	r1, #0
 8002b1e:	2036      	movs	r0, #54	; 0x36
 8002b20:	f001 f9d1 	bl	8003ec6 <HAL_NVIC_SetPriority>
    HAL_NVIC_EnableIRQ(TIM6_DAC_IRQn);
 8002b24:	2036      	movs	r0, #54	; 0x36
 8002b26:	f001 f9ea 	bl	8003efe <HAL_NVIC_EnableIRQ>
  /* USER CODE BEGIN TIM7_MspInit 1 */

  /* USER CODE END TIM7_MspInit 1 */
  }

}
 8002b2a:	e01a      	b.n	8002b62 <HAL_TIM_Base_MspInit+0x76>
  else if(htim_base->Instance==TIM7)
 8002b2c:	687b      	ldr	r3, [r7, #4]
 8002b2e:	681b      	ldr	r3, [r3, #0]
 8002b30:	4a10      	ldr	r2, [pc, #64]	; (8002b74 <HAL_TIM_Base_MspInit+0x88>)
 8002b32:	4293      	cmp	r3, r2
 8002b34:	d115      	bne.n	8002b62 <HAL_TIM_Base_MspInit+0x76>
    __HAL_RCC_TIM7_CLK_ENABLE();
 8002b36:	2300      	movs	r3, #0
 8002b38:	60bb      	str	r3, [r7, #8]
 8002b3a:	4b0d      	ldr	r3, [pc, #52]	; (8002b70 <HAL_TIM_Base_MspInit+0x84>)
 8002b3c:	6c1b      	ldr	r3, [r3, #64]	; 0x40
 8002b3e:	4a0c      	ldr	r2, [pc, #48]	; (8002b70 <HAL_TIM_Base_MspInit+0x84>)
 8002b40:	f043 0320 	orr.w	r3, r3, #32
 8002b44:	6413      	str	r3, [r2, #64]	; 0x40
 8002b46:	4b0a      	ldr	r3, [pc, #40]	; (8002b70 <HAL_TIM_Base_MspInit+0x84>)
 8002b48:	6c1b      	ldr	r3, [r3, #64]	; 0x40
 8002b4a:	f003 0320 	and.w	r3, r3, #32
 8002b4e:	60bb      	str	r3, [r7, #8]
 8002b50:	68bb      	ldr	r3, [r7, #8]
    HAL_NVIC_SetPriority(TIM7_IRQn, 0, 0);
 8002b52:	2200      	movs	r2, #0
 8002b54:	2100      	movs	r1, #0
 8002b56:	2037      	movs	r0, #55	; 0x37
 8002b58:	f001 f9b5 	bl	8003ec6 <HAL_NVIC_SetPriority>
    HAL_NVIC_EnableIRQ(TIM7_IRQn);
 8002b5c:	2037      	movs	r0, #55	; 0x37
 8002b5e:	f001 f9ce 	bl	8003efe <HAL_NVIC_EnableIRQ>
}
 8002b62:	bf00      	nop
 8002b64:	3710      	adds	r7, #16
 8002b66:	46bd      	mov	sp, r7
 8002b68:	bd80      	pop	{r7, pc}
 8002b6a:	bf00      	nop
 8002b6c:	40001000 	.word	0x40001000
 8002b70:	40023800 	.word	0x40023800
 8002b74:	40001400 	.word	0x40001400

08002b78 <HAL_UART_MspInit>:
* This function configures the hardware resources used in this example
* @param huart: UART handle pointer
* @retval None
*/
void HAL_UART_MspInit(UART_HandleTypeDef* huart)
{
 8002b78:	b580      	push	{r7, lr}
 8002b7a:	b08a      	sub	sp, #40	; 0x28
 8002b7c:	af00      	add	r7, sp, #0
 8002b7e:	6078      	str	r0, [r7, #4]
  GPIO_InitTypeDef GPIO_InitStruct = {0};
 8002b80:	f107 0314 	add.w	r3, r7, #20
 8002b84:	2200      	movs	r2, #0
 8002b86:	601a      	str	r2, [r3, #0]
 8002b88:	605a      	str	r2, [r3, #4]
 8002b8a:	609a      	str	r2, [r3, #8]
 8002b8c:	60da      	str	r2, [r3, #12]
 8002b8e:	611a      	str	r2, [r3, #16]
  if(huart->Instance==USART2)
 8002b90:	687b      	ldr	r3, [r7, #4]
 8002b92:	681b      	ldr	r3, [r3, #0]
 8002b94:	4a1d      	ldr	r2, [pc, #116]	; (8002c0c <HAL_UART_MspInit+0x94>)
 8002b96:	4293      	cmp	r3, r2
 8002b98:	d133      	bne.n	8002c02 <HAL_UART_MspInit+0x8a>
  {
  /* USER CODE BEGIN USART2_MspInit 0 */

  /* USER CODE END USART2_MspInit 0 */
    /* Peripheral clock enable */
    __HAL_RCC_USART2_CLK_ENABLE();
 8002b9a:	2300      	movs	r3, #0
 8002b9c:	613b      	str	r3, [r7, #16]
 8002b9e:	4b1c      	ldr	r3, [pc, #112]	; (8002c10 <HAL_UART_MspInit+0x98>)
 8002ba0:	6c1b      	ldr	r3, [r3, #64]	; 0x40
 8002ba2:	4a1b      	ldr	r2, [pc, #108]	; (8002c10 <HAL_UART_MspInit+0x98>)
 8002ba4:	f443 3300 	orr.w	r3, r3, #131072	; 0x20000
 8002ba8:	6413      	str	r3, [r2, #64]	; 0x40
 8002baa:	4b19      	ldr	r3, [pc, #100]	; (8002c10 <HAL_UART_MspInit+0x98>)
 8002bac:	6c1b      	ldr	r3, [r3, #64]	; 0x40
 8002bae:	f403 3300 	and.w	r3, r3, #131072	; 0x20000
 8002bb2:	613b      	str	r3, [r7, #16]
 8002bb4:	693b      	ldr	r3, [r7, #16]

    __HAL_RCC_GPIOD_CLK_ENABLE();
 8002bb6:	2300      	movs	r3, #0
 8002bb8:	60fb      	str	r3, [r7, #12]
 8002bba:	4b15      	ldr	r3, [pc, #84]	; (8002c10 <HAL_UART_MspInit+0x98>)
 8002bbc:	6b1b      	ldr	r3, [r3, #48]	; 0x30
 8002bbe:	4a14      	ldr	r2, [pc, #80]	; (8002c10 <HAL_UART_MspInit+0x98>)
 8002bc0:	f043 0308 	orr.w	r3, r3, #8
 8002bc4:	6313      	str	r3, [r2, #48]	; 0x30
 8002bc6:	4b12      	ldr	r3, [pc, #72]	; (8002c10 <HAL_UART_MspInit+0x98>)
 8002bc8:	6b1b      	ldr	r3, [r3, #48]	; 0x30
 8002bca:	f003 0308 	and.w	r3, r3, #8
 8002bce:	60fb      	str	r3, [r7, #12]
 8002bd0:	68fb      	ldr	r3, [r7, #12]
    /**USART2 GPIO Configuration
    PD5     ------> USART2_TX
    PD6     ------> USART2_RX
    */
    GPIO_InitStruct.Pin = GPIO_PIN_5|GPIO_PIN_6;
 8002bd2:	2360      	movs	r3, #96	; 0x60
 8002bd4:	617b      	str	r3, [r7, #20]
    GPIO_InitStruct.Mode = GPIO_MODE_AF_PP;
 8002bd6:	2302      	movs	r3, #2
 8002bd8:	61bb      	str	r3, [r7, #24]
    GPIO_InitStruct.Pull = GPIO_NOPULL;
 8002bda:	2300      	movs	r3, #0
 8002bdc:	61fb      	str	r3, [r7, #28]
    GPIO_InitStruct.Speed = GPIO_SPEED_FREQ_VERY_HIGH;
 8002bde:	2303      	movs	r3, #3
 8002be0:	623b      	str	r3, [r7, #32]
    GPIO_InitStruct.Alternate = GPIO_AF7_USART2;
 8002be2:	2307      	movs	r3, #7
 8002be4:	627b      	str	r3, [r7, #36]	; 0x24
    HAL_GPIO_Init(GPIOD, &GPIO_InitStruct);
 8002be6:	f107 0314 	add.w	r3, r7, #20
 8002bea:	4619      	mov	r1, r3
 8002bec:	4809      	ldr	r0, [pc, #36]	; (8002c14 <HAL_UART_MspInit+0x9c>)
 8002bee:	f001 fda3 	bl	8004738 <HAL_GPIO_Init>

    /* USART2 interrupt Init */
    HAL_NVIC_SetPriority(USART2_IRQn, 0, 0);
 8002bf2:	2200      	movs	r2, #0
 8002bf4:	2100      	movs	r1, #0
 8002bf6:	2026      	movs	r0, #38	; 0x26
 8002bf8:	f001 f965 	bl	8003ec6 <HAL_NVIC_SetPriority>
    HAL_NVIC_EnableIRQ(USART2_IRQn);
 8002bfc:	2026      	movs	r0, #38	; 0x26
 8002bfe:	f001 f97e 	bl	8003efe <HAL_NVIC_EnableIRQ>
  /* USER CODE BEGIN USART2_MspInit 1 */

  /* USER CODE END USART2_MspInit 1 */
  }

}
 8002c02:	bf00      	nop
 8002c04:	3728      	adds	r7, #40	; 0x28
 8002c06:	46bd      	mov	sp, r7
 8002c08:	bd80      	pop	{r7, pc}
 8002c0a:	bf00      	nop
 8002c0c:	40004400 	.word	0x40004400
 8002c10:	40023800 	.word	0x40023800
 8002c14:	40020c00 	.word	0x40020c00

08002c18 <NMI_Handler>:
/******************************************************************************/
/**
  * @brief This function handles Non maskable interrupt.
  */
void NMI_Handler(void)
{
 8002c18:	b480      	push	{r7}
 8002c1a:	af00      	add	r7, sp, #0
  /* USER CODE BEGIN NonMaskableInt_IRQn 0 */

  /* USER CODE END NonMaskableInt_IRQn 0 */
  /* USER CODE BEGIN NonMaskableInt_IRQn 1 */
  while (1)
 8002c1c:	e7fe      	b.n	8002c1c <NMI_Handler+0x4>

08002c1e <HardFault_Handler>:

/**
  * @brief This function handles Hard fault interrupt.
  */
void HardFault_Handler(void)
{
 8002c1e:	b480      	push	{r7}
 8002c20:	af00      	add	r7, sp, #0
  /* USER CODE BEGIN HardFault_IRQn 0 */

  /* USER CODE END HardFault_IRQn 0 */
  while (1)
 8002c22:	e7fe      	b.n	8002c22 <HardFault_Handler+0x4>

08002c24 <MemManage_Handler>:

/**
  * @brief This function handles Memory management fault.
  */
void MemManage_Handler(void)
{
 8002c24:	b480      	push	{r7}
 8002c26:	af00      	add	r7, sp, #0
  /* USER CODE BEGIN MemoryManagement_IRQn 0 */

  /* USER CODE END MemoryManagement_IRQn 0 */
  while (1)
 8002c28:	e7fe      	b.n	8002c28 <MemManage_Handler+0x4>

08002c2a <BusFault_Handler>:

/**
  * @brief This function handles Pre-fetch fault, memory access fault.
  */
void BusFault_Handler(void)
{
 8002c2a:	b480      	push	{r7}
 8002c2c:	af00      	add	r7, sp, #0
  /* USER CODE BEGIN BusFault_IRQn 0 */

  /* USER CODE END BusFault_IRQn 0 */
  while (1)
 8002c2e:	e7fe      	b.n	8002c2e <BusFault_Handler+0x4>

08002c30 <UsageFault_Handler>:

/**
  * @brief This function handles Undefined instruction or illegal state.
  */
void UsageFault_Handler(void)
{
 8002c30:	b480      	push	{r7}
 8002c32:	af00      	add	r7, sp, #0
  /* USER CODE BEGIN UsageFault_IRQn 0 */

  /* USER CODE END UsageFault_IRQn 0 */
  while (1)
 8002c34:	e7fe      	b.n	8002c34 <UsageFault_Handler+0x4>

08002c36 <SVC_Handler>:

/**
  * @brief This function handles System service call via SWI instruction.
  */
void SVC_Handler(void)
{
 8002c36:	b480      	push	{r7}
 8002c38:	af00      	add	r7, sp, #0

  /* USER CODE END SVCall_IRQn 0 */
  /* USER CODE BEGIN SVCall_IRQn 1 */

  /* USER CODE END SVCall_IRQn 1 */
}
 8002c3a:	bf00      	nop
 8002c3c:	46bd      	mov	sp, r7
 8002c3e:	f85d 7b04 	ldr.w	r7, [sp], #4
 8002c42:	4770      	bx	lr

08002c44 <DebugMon_Handler>:

/**
  * @brief This function handles Debug monitor.
  */
void DebugMon_Handler(void)
{
 8002c44:	b480      	push	{r7}
 8002c46:	af00      	add	r7, sp, #0

  /* USER CODE END DebugMonitor_IRQn 0 */
  /* USER CODE BEGIN DebugMonitor_IRQn 1 */

  /* USER CODE END DebugMonitor_IRQn 1 */
}
 8002c48:	bf00      	nop
 8002c4a:	46bd      	mov	sp, r7
 8002c4c:	f85d 7b04 	ldr.w	r7, [sp], #4
 8002c50:	4770      	bx	lr

08002c52 <PendSV_Handler>:

/**
  * @brief This function handles Pendable request for system service.
  */
void PendSV_Handler(void)
{
 8002c52:	b480      	push	{r7}
 8002c54:	af00      	add	r7, sp, #0

  /* USER CODE END PendSV_IRQn 0 */
  /* USER CODE BEGIN PendSV_IRQn 1 */

  /* USER CODE END PendSV_IRQn 1 */
}
 8002c56:	bf00      	nop
 8002c58:	46bd      	mov	sp, r7
 8002c5a:	f85d 7b04 	ldr.w	r7, [sp], #4
 8002c5e:	4770      	bx	lr

08002c60 <SysTick_Handler>:

/**
  * @brief This function handles System tick timer.
  */
void SysTick_Handler(void)
{
 8002c60:	b580      	push	{r7, lr}
 8002c62:	af00      	add	r7, sp, #0
  /* USER CODE BEGIN SysTick_IRQn 0 */

  /* USER CODE END SysTick_IRQn 0 */
  HAL_IncTick();
 8002c64:	f000 f9a8 	bl	8002fb8 <HAL_IncTick>
  /* USER CODE BEGIN SysTick_IRQn 1 */

  /* USER CODE END SysTick_IRQn 1 */
}
 8002c68:	bf00      	nop
 8002c6a:	bd80      	pop	{r7, pc}

08002c6c <EXTI1_IRQHandler>:

/**
  * @brief This function handles EXTI line1 interrupt.
  */
void EXTI1_IRQHandler(void)
{
 8002c6c:	b580      	push	{r7, lr}
 8002c6e:	af00      	add	r7, sp, #0
  /* USER CODE BEGIN EXTI1_IRQn 0 */

  /* USER CODE END EXTI1_IRQn 0 */
  HAL_GPIO_EXTI_IRQHandler(Flight_JMP_Pin);
 8002c70:	2002      	movs	r0, #2
 8002c72:	f001 ff59 	bl	8004b28 <HAL_GPIO_EXTI_IRQHandler>
  /* USER CODE BEGIN EXTI1_IRQn 1 */

  /* USER CODE END EXTI1_IRQn 1 */
}
 8002c76:	bf00      	nop
 8002c78:	bd80      	pop	{r7, pc}
	...

08002c7c <DMA1_Stream4_IRQHandler>:

/**
  * @brief This function handles DMA1 stream4 global interrupt.
  */
void DMA1_Stream4_IRQHandler(void)
{
 8002c7c:	b580      	push	{r7, lr}
 8002c7e:	af00      	add	r7, sp, #0
  /* USER CODE BEGIN DMA1_Stream4_IRQn 0 */

  /* USER CODE END DMA1_Stream4_IRQn 0 */
  HAL_DMA_IRQHandler(&hdma_spi2_tx);
 8002c80:	4802      	ldr	r0, [pc, #8]	; (8002c8c <DMA1_Stream4_IRQHandler+0x10>)
 8002c82:	f001 faef 	bl	8004264 <HAL_DMA_IRQHandler>
  /* USER CODE BEGIN DMA1_Stream4_IRQn 1 */

  /* USER CODE END DMA1_Stream4_IRQn 1 */
}
 8002c86:	bf00      	nop
 8002c88:	bd80      	pop	{r7, pc}
 8002c8a:	bf00      	nop
 8002c8c:	20000248 	.word	0x20000248

08002c90 <USART2_IRQHandler>:

/**
  * @brief This function handles USART2 global interrupt.
  */
void USART2_IRQHandler(void)
{
 8002c90:	b580      	push	{r7, lr}
 8002c92:	af00      	add	r7, sp, #0
  /* USER CODE BEGIN USART2_IRQn 0 */

  /* USER CODE END USART2_IRQn 0 */
  HAL_UART_IRQHandler(&huart2);
 8002c94:	4802      	ldr	r0, [pc, #8]	; (8002ca0 <USART2_IRQHandler+0x10>)
 8002c96:	f005 fc5d 	bl	8008554 <HAL_UART_IRQHandler>
  /* USER CODE BEGIN USART2_IRQn 1 */

  /* USER CODE END USART2_IRQn 1 */
}
 8002c9a:	bf00      	nop
 8002c9c:	bd80      	pop	{r7, pc}
 8002c9e:	bf00      	nop
 8002ca0:	20000338 	.word	0x20000338

08002ca4 <TIM6_DAC_IRQHandler>:

/**
  * @brief This function handles TIM6 global interrupt, DAC1 and DAC2 underrun error interrupts.
  */
void TIM6_DAC_IRQHandler(void)
{
 8002ca4:	b580      	push	{r7, lr}
 8002ca6:	af00      	add	r7, sp, #0
  /* USER CODE BEGIN TIM6_DAC_IRQn 0 */

  /* USER CODE END TIM6_DAC_IRQn 0 */
  HAL_TIM_IRQHandler(&htim6);
 8002ca8:	4803      	ldr	r0, [pc, #12]	; (8002cb8 <TIM6_DAC_IRQHandler+0x14>)
 8002caa:	f005 f8f5 	bl	8007e98 <HAL_TIM_IRQHandler>
  /* USER CODE BEGIN TIM6_DAC_IRQn 1 */
  tim6_overflow_flag = FLAG_SET;
 8002cae:	4b03      	ldr	r3, [pc, #12]	; (8002cbc <TIM6_DAC_IRQHandler+0x18>)
 8002cb0:	2201      	movs	r2, #1
 8002cb2:	701a      	strb	r2, [r3, #0]
  /* USER CODE END TIM6_DAC_IRQn 1 */
}
 8002cb4:	bf00      	nop
 8002cb6:	bd80      	pop	{r7, pc}
 8002cb8:	200002a8 	.word	0x200002a8
 8002cbc:	200003b6 	.word	0x200003b6

08002cc0 <TIM7_IRQHandler>:

/**
  * @brief This function handles TIM7 global interrupt.
  */
void TIM7_IRQHandler(void)
{
 8002cc0:	b580      	push	{r7, lr}
 8002cc2:	af00      	add	r7, sp, #0
  /* USER CODE BEGIN TIM7_IRQn 0 */

  /* USER CODE END TIM7_IRQn 0 */
  HAL_TIM_IRQHandler(&htim7);
 8002cc4:	4803      	ldr	r0, [pc, #12]	; (8002cd4 <TIM7_IRQHandler+0x14>)
 8002cc6:	f005 f8e7 	bl	8007e98 <HAL_TIM_IRQHandler>
  /* USER CODE BEGIN TIM7_IRQn 1 */
  tim7_overflow_flag = FLAG_SET;
 8002cca:	4b03      	ldr	r3, [pc, #12]	; (8002cd8 <TIM7_IRQHandler+0x18>)
 8002ccc:	2201      	movs	r2, #1
 8002cce:	701a      	strb	r2, [r3, #0]
  /* USER CODE END TIM7_IRQn 1 */
}
 8002cd0:	bf00      	nop
 8002cd2:	bd80      	pop	{r7, pc}
 8002cd4:	200002f0 	.word	0x200002f0
 8002cd8:	200003b7 	.word	0x200003b7

08002cdc <DMA2_Stream3_IRQHandler>:

/**
  * @brief This function handles DMA2 stream3 global interrupt.
  */
void DMA2_Stream3_IRQHandler(void)
{
 8002cdc:	b580      	push	{r7, lr}
 8002cde:	af00      	add	r7, sp, #0
  /* USER CODE BEGIN DMA2_Stream3_IRQn 0 */

  /* USER CODE END DMA2_Stream3_IRQn 0 */
  HAL_DMA_IRQHandler(&hdma_spi1_tx);
 8002ce0:	4802      	ldr	r0, [pc, #8]	; (8002cec <DMA2_Stream3_IRQHandler+0x10>)
 8002ce2:	f001 fabf 	bl	8004264 <HAL_DMA_IRQHandler>
  /* USER CODE BEGIN DMA2_Stream3_IRQn 1 */

  /* USER CODE END DMA2_Stream3_IRQn 1 */
}
 8002ce6:	bf00      	nop
 8002ce8:	bd80      	pop	{r7, pc}
 8002cea:	bf00      	nop
 8002cec:	200001e8 	.word	0x200001e8

08002cf0 <CAN2_RX0_IRQHandler>:

/**
  * @brief This function handles CAN2 RX0 interrupts.
  */
void CAN2_RX0_IRQHandler(void)
{
 8002cf0:	b580      	push	{r7, lr}
 8002cf2:	af00      	add	r7, sp, #0
  /* USER CODE BEGIN CAN2_RX0_IRQn 0 */

  /* USER CODE END CAN2_RX0_IRQn 0 */
  HAL_CAN_IRQHandler(&hcan2);
 8002cf4:	4802      	ldr	r0, [pc, #8]	; (8002d00 <CAN2_RX0_IRQHandler+0x10>)
 8002cf6:	f000 fddb 	bl	80038b0 <HAL_CAN_IRQHandler>
  /* USER CODE BEGIN CAN2_RX0_IRQn 1 */

  /* USER CODE END CAN2_RX0_IRQn 1 */
}
 8002cfa:	bf00      	nop
 8002cfc:	bd80      	pop	{r7, pc}
 8002cfe:	bf00      	nop
 8002d00:	20000048 	.word	0x20000048

08002d04 <HAL_CAN_RxFifo0MsgPendingCallback>:

/* USER CODE BEGIN 1 */
void HAL_CAN_RxFifo0MsgPendingCallback(CAN_HandleTypeDef *hcan) {
 8002d04:	b580      	push	{r7, lr}
 8002d06:	b082      	sub	sp, #8
 8002d08:	af00      	add	r7, sp, #0
 8002d0a:	6078      	str	r0, [r7, #4]
	HAL_CAN_GetRxMessage(hcan, CAN_RX_FIFO0, &CAN_RxHeader, CAN_RxData);
 8002d0c:	4b09      	ldr	r3, [pc, #36]	; (8002d34 <HAL_CAN_RxFifo0MsgPendingCallback+0x30>)
 8002d0e:	4a0a      	ldr	r2, [pc, #40]	; (8002d38 <HAL_CAN_RxFifo0MsgPendingCallback+0x34>)
 8002d10:	2100      	movs	r1, #0
 8002d12:	6878      	ldr	r0, [r7, #4]
 8002d14:	f000 fc84 	bl	8003620 <HAL_CAN_GetRxMessage>
	CAN_RX_Flag = FLAG_SET;
 8002d18:	4b08      	ldr	r3, [pc, #32]	; (8002d3c <HAL_CAN_RxFifo0MsgPendingCallback+0x38>)
 8002d1a:	2201      	movs	r2, #1
 8002d1c:	701a      	strb	r2, [r3, #0]

	if(CAN_First_Msg == FLAG_RESET) {
 8002d1e:	4b08      	ldr	r3, [pc, #32]	; (8002d40 <HAL_CAN_RxFifo0MsgPendingCallback+0x3c>)
 8002d20:	781b      	ldrb	r3, [r3, #0]
 8002d22:	2b00      	cmp	r3, #0
 8002d24:	d102      	bne.n	8002d2c <HAL_CAN_RxFifo0MsgPendingCallback+0x28>
		CAN_First_Msg = FLAG_SET;
 8002d26:	4b06      	ldr	r3, [pc, #24]	; (8002d40 <HAL_CAN_RxFifo0MsgPendingCallback+0x3c>)
 8002d28:	2201      	movs	r2, #1
 8002d2a:	701a      	strb	r2, [r3, #0]
	}
}
 8002d2c:	bf00      	nop
 8002d2e:	3708      	adds	r7, #8
 8002d30:	46bd      	mov	sp, r7
 8002d32:	bd80      	pop	{r7, pc}
 8002d34:	200003ac 	.word	0x200003ac
 8002d38:	20000390 	.word	0x20000390
 8002d3c:	200003b4 	.word	0x200003b4
 8002d40:	200003b5 	.word	0x200003b5

08002d44 <HAL_GPIO_EXTI_Callback>:

// Set the reset RTC flag on the rising edge of the jumper flight input pin
void HAL_GPIO_EXTI_Callback(uint16_t GPIO_Pin) {
 8002d44:	b480      	push	{r7}
 8002d46:	b083      	sub	sp, #12
 8002d48:	af00      	add	r7, sp, #0
 8002d4a:	4603      	mov	r3, r0
 8002d4c:	80fb      	strh	r3, [r7, #6]
	if(GPIO_Pin == jmp_flight.GPIO_Pin) {
 8002d4e:	4b07      	ldr	r3, [pc, #28]	; (8002d6c <HAL_GPIO_EXTI_Callback+0x28>)
 8002d50:	889b      	ldrh	r3, [r3, #4]
 8002d52:	b29b      	uxth	r3, r3
 8002d54:	88fa      	ldrh	r2, [r7, #6]
 8002d56:	429a      	cmp	r2, r3
 8002d58:	d102      	bne.n	8002d60 <HAL_GPIO_EXTI_Callback+0x1c>
		rtc_reset = FLAG_SET;
 8002d5a:	4b05      	ldr	r3, [pc, #20]	; (8002d70 <HAL_GPIO_EXTI_Callback+0x2c>)
 8002d5c:	2201      	movs	r2, #1
 8002d5e:	701a      	strb	r2, [r3, #0]
	}
}
 8002d60:	bf00      	nop
 8002d62:	370c      	adds	r7, #12
 8002d64:	46bd      	mov	sp, r7
 8002d66:	f85d 7b04 	ldr.w	r7, [sp], #4
 8002d6a:	4770      	bx	lr
 8002d6c:	20000614 	.word	0x20000614
 8002d70:	2000061c 	.word	0x2000061c

08002d74 <HAL_SPI_TxCpltCallback>:


void HAL_SPI_TxCpltCallback(SPI_HandleTypeDef *hspi) {
 8002d74:	b580      	push	{r7, lr}
 8002d76:	b082      	sub	sp, #8
 8002d78:	af00      	add	r7, sp, #0
 8002d7a:	6078      	str	r0, [r7, #4]
	// Pull CS pin high to deselect the device
    if (hspi->Instance == SPI1) {
 8002d7c:	687b      	ldr	r3, [r7, #4]
 8002d7e:	681b      	ldr	r3, [r3, #0]
 8002d80:	4a18      	ldr	r2, [pc, #96]	; (8002de4 <HAL_SPI_TxCpltCallback+0x70>)
 8002d82:	4293      	cmp	r3, r2
 8002d84:	d108      	bne.n	8002d98 <HAL_SPI_TxCpltCallback+0x24>
        // Pull CS pin high for SPI1 to deselect the device
    	HAL_GPIO_WritePin(cs_spi1.GPIOx, cs_spi1.GPIO_Pin, GPIO_PIN_SET);
 8002d86:	4b18      	ldr	r3, [pc, #96]	; (8002de8 <HAL_SPI_TxCpltCallback+0x74>)
 8002d88:	681b      	ldr	r3, [r3, #0]
 8002d8a:	4a17      	ldr	r2, [pc, #92]	; (8002de8 <HAL_SPI_TxCpltCallback+0x74>)
 8002d8c:	8891      	ldrh	r1, [r2, #4]
 8002d8e:	2201      	movs	r2, #1
 8002d90:	4618      	mov	r0, r3
 8002d92:	f001 fe95 	bl	8004ac0 <HAL_GPIO_WritePin>
 8002d96:	e00c      	b.n	8002db2 <HAL_SPI_TxCpltCallback+0x3e>
    } else if (hspi->Instance == SPI2) {
 8002d98:	687b      	ldr	r3, [r7, #4]
 8002d9a:	681b      	ldr	r3, [r3, #0]
 8002d9c:	4a13      	ldr	r2, [pc, #76]	; (8002dec <HAL_SPI_TxCpltCallback+0x78>)
 8002d9e:	4293      	cmp	r3, r2
 8002da0:	d107      	bne.n	8002db2 <HAL_SPI_TxCpltCallback+0x3e>
        // Pull CS pin high for SPI2 to deselect the device
    	HAL_GPIO_WritePin(cs_spi2.GPIOx, cs_spi2.GPIO_Pin, GPIO_PIN_SET);
 8002da2:	4b13      	ldr	r3, [pc, #76]	; (8002df0 <HAL_SPI_TxCpltCallback+0x7c>)
 8002da4:	681b      	ldr	r3, [r3, #0]
 8002da6:	4a12      	ldr	r2, [pc, #72]	; (8002df0 <HAL_SPI_TxCpltCallback+0x7c>)
 8002da8:	8891      	ldrh	r1, [r2, #4]
 8002daa:	2201      	movs	r2, #1
 8002dac:	4618      	mov	r0, r3
 8002dae:	f001 fe87 	bl	8004ac0 <HAL_GPIO_WritePin>
    }

    CLEAR_BIT(hspi->Instance->CR2, SPI_CR2_TXDMAEN);
 8002db2:	687b      	ldr	r3, [r7, #4]
 8002db4:	681b      	ldr	r3, [r3, #0]
 8002db6:	685a      	ldr	r2, [r3, #4]
 8002db8:	687b      	ldr	r3, [r7, #4]
 8002dba:	681b      	ldr	r3, [r3, #0]
 8002dbc:	f022 0202 	bic.w	r2, r2, #2
 8002dc0:	605a      	str	r2, [r3, #4]
    clean_data_buffer(PAGE_SIZE, data_buffer_tx[buffer_tracker ^ 0x01]);
 8002dc2:	4b0c      	ldr	r3, [pc, #48]	; (8002df4 <HAL_SPI_TxCpltCallback+0x80>)
 8002dc4:	781b      	ldrb	r3, [r3, #0]
 8002dc6:	f083 0301 	eor.w	r3, r3, #1
 8002dca:	b2db      	uxtb	r3, r3
 8002dcc:	021b      	lsls	r3, r3, #8
 8002dce:	4a0a      	ldr	r2, [pc, #40]	; (8002df8 <HAL_SPI_TxCpltCallback+0x84>)
 8002dd0:	4413      	add	r3, r2
 8002dd2:	4619      	mov	r1, r3
 8002dd4:	f44f 7080 	mov.w	r0, #256	; 0x100
 8002dd8:	f7fe fc00 	bl	80015dc <clean_data_buffer>
}
 8002ddc:	bf00      	nop
 8002dde:	3708      	adds	r7, #8
 8002de0:	46bd      	mov	sp, r7
 8002de2:	bd80      	pop	{r7, pc}
 8002de4:	40013000 	.word	0x40013000
 8002de8:	200005f4 	.word	0x200005f4
 8002dec:	40003800 	.word	0x40003800
 8002df0:	20000604 	.word	0x20000604
 8002df4:	200005b8 	.word	0x200005b8
 8002df8:	200003b8 	.word	0x200003b8

08002dfc <HAL_UART_RxCpltCallback>:

void HAL_UART_RxCpltCallback(UART_HandleTypeDef *huart) {
 8002dfc:	b580      	push	{r7, lr}
 8002dfe:	b082      	sub	sp, #8
 8002e00:	af00      	add	r7, sp, #0
 8002e02:	6078      	str	r0, [r7, #4]
	uart2_rec_flag = FLAG_SET;
 8002e04:	4b05      	ldr	r3, [pc, #20]	; (8002e1c <HAL_UART_RxCpltCallback+0x20>)
 8002e06:	2201      	movs	r2, #1
 8002e08:	701a      	strb	r2, [r3, #0]
	HAL_UART_Receive_IT(&huart2, UARTRxData, 2);
 8002e0a:	2202      	movs	r2, #2
 8002e0c:	4904      	ldr	r1, [pc, #16]	; (8002e20 <HAL_UART_RxCpltCallback+0x24>)
 8002e0e:	4805      	ldr	r0, [pc, #20]	; (8002e24 <HAL_UART_RxCpltCallback+0x28>)
 8002e10:	f005 fb7b 	bl	800850a <HAL_UART_Receive_IT>
}
 8002e14:	bf00      	nop
 8002e16:	3708      	adds	r7, #8
 8002e18:	46bd      	mov	sp, r7
 8002e1a:	bd80      	pop	{r7, pc}
 8002e1c:	2000038a 	.word	0x2000038a
 8002e20:	20000388 	.word	0x20000388
 8002e24:	20000338 	.word	0x20000338

08002e28 <SystemInit>:
  *         configuration.
  * @param  None
  * @retval None
  */
void SystemInit(void)
{
 8002e28:	b480      	push	{r7}
 8002e2a:	af00      	add	r7, sp, #0
  /* FPU settings ------------------------------------------------------------*/
  #if (__FPU_PRESENT == 1) && (__FPU_USED == 1)
    SCB->CPACR |= ((3UL << 10*2)|(3UL << 11*2));  /* set CP10 and CP11 Full Access */
 8002e2c:	4b06      	ldr	r3, [pc, #24]	; (8002e48 <SystemInit+0x20>)
 8002e2e:	f8d3 3088 	ldr.w	r3, [r3, #136]	; 0x88
 8002e32:	4a05      	ldr	r2, [pc, #20]	; (8002e48 <SystemInit+0x20>)
 8002e34:	f443 0370 	orr.w	r3, r3, #15728640	; 0xf00000
 8002e38:	f8c2 3088 	str.w	r3, [r2, #136]	; 0x88

  /* Configure the Vector Table location -------------------------------------*/
#if defined(USER_VECT_TAB_ADDRESS)
  SCB->VTOR = VECT_TAB_BASE_ADDRESS | VECT_TAB_OFFSET; /* Vector Table Relocation in Internal SRAM */
#endif /* USER_VECT_TAB_ADDRESS */
}
 8002e3c:	bf00      	nop
 8002e3e:	46bd      	mov	sp, r7
 8002e40:	f85d 7b04 	ldr.w	r7, [sp], #4
 8002e44:	4770      	bx	lr
 8002e46:	bf00      	nop
 8002e48:	e000ed00 	.word	0xe000ed00

08002e4c <uart_transmit_page>:

#include "uart_transmit.h"
/**
 * Transmit one single page over the UART interface
 */
void uart_transmit_page(UART_HandleTypeDef *huart, uint8_t page[PAGE_SIZE]) {
 8002e4c:	b580      	push	{r7, lr}
 8002e4e:	b082      	sub	sp, #8
 8002e50:	af00      	add	r7, sp, #0
 8002e52:	6078      	str	r0, [r7, #4]
 8002e54:	6039      	str	r1, [r7, #0]
	HAL_UART_Transmit(huart, page, PAGE_SIZE, HAL_MAX_DELAY);
 8002e56:	f04f 33ff 	mov.w	r3, #4294967295	; 0xffffffff
 8002e5a:	f44f 7280 	mov.w	r2, #256	; 0x100
 8002e5e:	6839      	ldr	r1, [r7, #0]
 8002e60:	6878      	ldr	r0, [r7, #4]
 8002e62:	f005 fac7 	bl	80083f4 <HAL_UART_Transmit>
}
 8002e66:	bf00      	nop
 8002e68:	3708      	adds	r7, #8
 8002e6a:	46bd      	mov	sp, r7
 8002e6c:	bd80      	pop	{r7, pc}

08002e6e <send_uart_string>:

void send_uart_string(UART_HandleTypeDef *huart, const char *str) {
 8002e6e:	b580      	push	{r7, lr}
 8002e70:	b082      	sub	sp, #8
 8002e72:	af00      	add	r7, sp, #0
 8002e74:	6078      	str	r0, [r7, #4]
 8002e76:	6039      	str	r1, [r7, #0]
    HAL_UART_Transmit(huart, (uint8_t *)str, strlen(str), HAL_MAX_DELAY);
 8002e78:	6838      	ldr	r0, [r7, #0]
 8002e7a:	f7fd f9b7 	bl	80001ec <strlen>
 8002e7e:	4603      	mov	r3, r0
 8002e80:	b29a      	uxth	r2, r3
 8002e82:	f04f 33ff 	mov.w	r3, #4294967295	; 0xffffffff
 8002e86:	6839      	ldr	r1, [r7, #0]
 8002e88:	6878      	ldr	r0, [r7, #4]
 8002e8a:	f005 fab3 	bl	80083f4 <HAL_UART_Transmit>
}
 8002e8e:	bf00      	nop
 8002e90:	3708      	adds	r7, #8
 8002e92:	46bd      	mov	sp, r7
 8002e94:	bd80      	pop	{r7, pc}

08002e96 <send_uart_hex>:
	// Call the send_uart_string function to send the value to UART
	send_uart_string(huart, value_str);
	send_uart_string(huart, "\r\n");
}

void send_uart_hex(UART_HandleTypeDef *huart, uint8_t value) {
 8002e96:	b580      	push	{r7, lr}
 8002e98:	b084      	sub	sp, #16
 8002e9a:	af00      	add	r7, sp, #0
 8002e9c:	6078      	str	r0, [r7, #4]
 8002e9e:	460b      	mov	r3, r1
 8002ea0:	70fb      	strb	r3, [r7, #3]
	uint8_t buffer[1];
	buffer[0] = value;
 8002ea2:	78fb      	ldrb	r3, [r7, #3]
 8002ea4:	733b      	strb	r3, [r7, #12]
	HAL_UART_Transmit(huart, buffer, 1, HAL_MAX_DELAY);
 8002ea6:	f107 010c 	add.w	r1, r7, #12
 8002eaa:	f04f 33ff 	mov.w	r3, #4294967295	; 0xffffffff
 8002eae:	2201      	movs	r2, #1
 8002eb0:	6878      	ldr	r0, [r7, #4]
 8002eb2:	f005 fa9f 	bl	80083f4 <HAL_UART_Transmit>
}
 8002eb6:	bf00      	nop
 8002eb8:	3710      	adds	r7, #16
 8002eba:	46bd      	mov	sp, r7
 8002ebc:	bd80      	pop	{r7, pc}
	...

08002ec0 <Reset_Handler>:

    .section  .text.Reset_Handler
  .weak  Reset_Handler
  .type  Reset_Handler, %function
Reset_Handler:  
  ldr   sp, =_estack     /* set stack pointer */
 8002ec0:	f8df d034 	ldr.w	sp, [pc, #52]	; 8002ef8 <LoopFillZerobss+0xe>
  
/* Call the clock system initialization function.*/
  bl  SystemInit  
 8002ec4:	f7ff ffb0 	bl	8002e28 <SystemInit>

/* Copy the data segment initializers from flash to SRAM */  
  ldr r0, =_sdata
 8002ec8:	480c      	ldr	r0, [pc, #48]	; (8002efc <LoopFillZerobss+0x12>)
  ldr r1, =_edata
 8002eca:	490d      	ldr	r1, [pc, #52]	; (8002f00 <LoopFillZerobss+0x16>)
  ldr r2, =_sidata
 8002ecc:	4a0d      	ldr	r2, [pc, #52]	; (8002f04 <LoopFillZerobss+0x1a>)
  movs r3, #0
 8002ece:	2300      	movs	r3, #0
  b LoopCopyDataInit
 8002ed0:	e002      	b.n	8002ed8 <LoopCopyDataInit>

08002ed2 <CopyDataInit>:

CopyDataInit:
  ldr r4, [r2, r3]
 8002ed2:	58d4      	ldr	r4, [r2, r3]
  str r4, [r0, r3]
 8002ed4:	50c4      	str	r4, [r0, r3]
  adds r3, r3, #4
 8002ed6:	3304      	adds	r3, #4

08002ed8 <LoopCopyDataInit>:

LoopCopyDataInit:
  adds r4, r0, r3
 8002ed8:	18c4      	adds	r4, r0, r3
  cmp r4, r1
 8002eda:	428c      	cmp	r4, r1
  bcc CopyDataInit
 8002edc:	d3f9      	bcc.n	8002ed2 <CopyDataInit>
  
/* Zero fill the bss segment. */
  ldr r2, =_sbss
 8002ede:	4a0a      	ldr	r2, [pc, #40]	; (8002f08 <LoopFillZerobss+0x1e>)
  ldr r4, =_ebss
 8002ee0:	4c0a      	ldr	r4, [pc, #40]	; (8002f0c <LoopFillZerobss+0x22>)
  movs r3, #0
 8002ee2:	2300      	movs	r3, #0
  b LoopFillZerobss
 8002ee4:	e001      	b.n	8002eea <LoopFillZerobss>

08002ee6 <FillZerobss>:

FillZerobss:
  str  r3, [r2]
 8002ee6:	6013      	str	r3, [r2, #0]
  adds r2, r2, #4
 8002ee8:	3204      	adds	r2, #4

08002eea <LoopFillZerobss>:

LoopFillZerobss:
  cmp r2, r4
 8002eea:	42a2      	cmp	r2, r4
  bcc FillZerobss
 8002eec:	d3fb      	bcc.n	8002ee6 <FillZerobss>

/* Call static constructors */
    bl __libc_init_array
 8002eee:	f006 fa8f 	bl	8009410 <__libc_init_array>
/* Call the application's entry point.*/
  bl  main
 8002ef2:	f7fd ff17 	bl	8000d24 <main>
  bx  lr    
 8002ef6:	4770      	bx	lr
  ldr   sp, =_estack     /* set stack pointer */
 8002ef8:	20030000 	.word	0x20030000
  ldr r0, =_sdata
 8002efc:	20000000 	.word	0x20000000
  ldr r1, =_edata
 8002f00:	20000028 	.word	0x20000028
  ldr r2, =_sidata
 8002f04:	08009538 	.word	0x08009538
  ldr r2, =_sbss
 8002f08:	20000028 	.word	0x20000028
  ldr r4, =_ebss
 8002f0c:	20000638 	.word	0x20000638

08002f10 <ADC_IRQHandler>:
 * @retval None       
*/
    .section  .text.Default_Handler,"ax",%progbits
Default_Handler:
Infinite_Loop:
  b  Infinite_Loop
 8002f10:	e7fe      	b.n	8002f10 <ADC_IRQHandler>
	...

08002f14 <HAL_Init>:
  *         need to ensure that the SysTick time base is always set to 1 millisecond
  *         to have correct HAL operation.
  * @retval HAL status
  */
HAL_StatusTypeDef HAL_Init(void)
{
 8002f14:	b580      	push	{r7, lr}
 8002f16:	af00      	add	r7, sp, #0
  /* Configure Flash prefetch, Instruction cache, Data cache */ 
#if (INSTRUCTION_CACHE_ENABLE != 0U)
  __HAL_FLASH_INSTRUCTION_CACHE_ENABLE();
 8002f18:	4b0e      	ldr	r3, [pc, #56]	; (8002f54 <HAL_Init+0x40>)
 8002f1a:	681b      	ldr	r3, [r3, #0]
 8002f1c:	4a0d      	ldr	r2, [pc, #52]	; (8002f54 <HAL_Init+0x40>)
 8002f1e:	f443 7300 	orr.w	r3, r3, #512	; 0x200
 8002f22:	6013      	str	r3, [r2, #0]
#endif /* INSTRUCTION_CACHE_ENABLE */

#if (DATA_CACHE_ENABLE != 0U)
  __HAL_FLASH_DATA_CACHE_ENABLE();
 8002f24:	4b0b      	ldr	r3, [pc, #44]	; (8002f54 <HAL_Init+0x40>)
 8002f26:	681b      	ldr	r3, [r3, #0]
 8002f28:	4a0a      	ldr	r2, [pc, #40]	; (8002f54 <HAL_Init+0x40>)
 8002f2a:	f443 6380 	orr.w	r3, r3, #1024	; 0x400
 8002f2e:	6013      	str	r3, [r2, #0]
#endif /* DATA_CACHE_ENABLE */

#if (PREFETCH_ENABLE != 0U)
  __HAL_FLASH_PREFETCH_BUFFER_ENABLE();
 8002f30:	4b08      	ldr	r3, [pc, #32]	; (8002f54 <HAL_Init+0x40>)
 8002f32:	681b      	ldr	r3, [r3, #0]
 8002f34:	4a07      	ldr	r2, [pc, #28]	; (8002f54 <HAL_Init+0x40>)
 8002f36:	f443 7380 	orr.w	r3, r3, #256	; 0x100
 8002f3a:	6013      	str	r3, [r2, #0]
#endif /* PREFETCH_ENABLE */

  /* Set Interrupt Group Priority */
  HAL_NVIC_SetPriorityGrouping(NVIC_PRIORITYGROUP_4);
 8002f3c:	2003      	movs	r0, #3
 8002f3e:	f000 ffb7 	bl	8003eb0 <HAL_NVIC_SetPriorityGrouping>

  /* Use systick as time base source and configure 1ms tick (default clock after Reset is HSI) */
  HAL_InitTick(TICK_INT_PRIORITY);
 8002f42:	200f      	movs	r0, #15
 8002f44:	f000 f808 	bl	8002f58 <HAL_InitTick>

  /* Init the low level hardware */
  HAL_MspInit();
 8002f48:	f7ff fba0 	bl	800268c <HAL_MspInit>

  /* Return function status */
  return HAL_OK;
 8002f4c:	2300      	movs	r3, #0
}
 8002f4e:	4618      	mov	r0, r3
 8002f50:	bd80      	pop	{r7, pc}
 8002f52:	bf00      	nop
 8002f54:	40023c00 	.word	0x40023c00

08002f58 <HAL_InitTick>:
  *       implementation  in user file.
  * @param TickPriority Tick interrupt priority.
  * @retval HAL status
  */
__weak HAL_StatusTypeDef HAL_InitTick(uint32_t TickPriority)
{
 8002f58:	b580      	push	{r7, lr}
 8002f5a:	b082      	sub	sp, #8
 8002f5c:	af00      	add	r7, sp, #0
 8002f5e:	6078      	str	r0, [r7, #4]
  /* Configure the SysTick to have interrupt in 1ms time basis*/
  if (HAL_SYSTICK_Config(SystemCoreClock / (1000U / uwTickFreq)) > 0U)
 8002f60:	4b12      	ldr	r3, [pc, #72]	; (8002fac <HAL_InitTick+0x54>)
 8002f62:	681a      	ldr	r2, [r3, #0]
 8002f64:	4b12      	ldr	r3, [pc, #72]	; (8002fb0 <HAL_InitTick+0x58>)
 8002f66:	781b      	ldrb	r3, [r3, #0]
 8002f68:	4619      	mov	r1, r3
 8002f6a:	f44f 737a 	mov.w	r3, #1000	; 0x3e8
 8002f6e:	fbb3 f3f1 	udiv	r3, r3, r1
 8002f72:	fbb2 f3f3 	udiv	r3, r2, r3
 8002f76:	4618      	mov	r0, r3
 8002f78:	f000 ffcf 	bl	8003f1a <HAL_SYSTICK_Config>
 8002f7c:	4603      	mov	r3, r0
 8002f7e:	2b00      	cmp	r3, #0
 8002f80:	d001      	beq.n	8002f86 <HAL_InitTick+0x2e>
  {
    return HAL_ERROR;
 8002f82:	2301      	movs	r3, #1
 8002f84:	e00e      	b.n	8002fa4 <HAL_InitTick+0x4c>
  }

  /* Configure the SysTick IRQ priority */
  if (TickPriority < (1UL << __NVIC_PRIO_BITS))
 8002f86:	687b      	ldr	r3, [r7, #4]
 8002f88:	2b0f      	cmp	r3, #15
 8002f8a:	d80a      	bhi.n	8002fa2 <HAL_InitTick+0x4a>
  {
    HAL_NVIC_SetPriority(SysTick_IRQn, TickPriority, 0U);
 8002f8c:	2200      	movs	r2, #0
 8002f8e:	6879      	ldr	r1, [r7, #4]
 8002f90:	f04f 30ff 	mov.w	r0, #4294967295	; 0xffffffff
 8002f94:	f000 ff97 	bl	8003ec6 <HAL_NVIC_SetPriority>
    uwTickPrio = TickPriority;
 8002f98:	4a06      	ldr	r2, [pc, #24]	; (8002fb4 <HAL_InitTick+0x5c>)
 8002f9a:	687b      	ldr	r3, [r7, #4]
 8002f9c:	6013      	str	r3, [r2, #0]
  {
    return HAL_ERROR;
  }

  /* Return function status */
  return HAL_OK;
 8002f9e:	2300      	movs	r3, #0
 8002fa0:	e000      	b.n	8002fa4 <HAL_InitTick+0x4c>
    return HAL_ERROR;
 8002fa2:	2301      	movs	r3, #1
}
 8002fa4:	4618      	mov	r0, r3
 8002fa6:	3708      	adds	r7, #8
 8002fa8:	46bd      	mov	sp, r7
 8002faa:	bd80      	pop	{r7, pc}
 8002fac:	2000001c 	.word	0x2000001c
 8002fb0:	20000024 	.word	0x20000024
 8002fb4:	20000020 	.word	0x20000020

08002fb8 <HAL_IncTick>:
 * @note This function is declared as __weak to be overwritten in case of other 
  *      implementations in user file.
  * @retval None
  */
__weak void HAL_IncTick(void)
{
 8002fb8:	b480      	push	{r7}
 8002fba:	af00      	add	r7, sp, #0
  uwTick += uwTickFreq;
 8002fbc:	4b06      	ldr	r3, [pc, #24]	; (8002fd8 <HAL_IncTick+0x20>)
 8002fbe:	781b      	ldrb	r3, [r3, #0]
 8002fc0:	461a      	mov	r2, r3
 8002fc2:	4b06      	ldr	r3, [pc, #24]	; (8002fdc <HAL_IncTick+0x24>)
 8002fc4:	681b      	ldr	r3, [r3, #0]
 8002fc6:	4413      	add	r3, r2
 8002fc8:	4a04      	ldr	r2, [pc, #16]	; (8002fdc <HAL_IncTick+0x24>)
 8002fca:	6013      	str	r3, [r2, #0]
}
 8002fcc:	bf00      	nop
 8002fce:	46bd      	mov	sp, r7
 8002fd0:	f85d 7b04 	ldr.w	r7, [sp], #4
 8002fd4:	4770      	bx	lr
 8002fd6:	bf00      	nop
 8002fd8:	20000024 	.word	0x20000024
 8002fdc:	20000634 	.word	0x20000634

08002fe0 <HAL_GetTick>:
  * @note This function is declared as __weak to be overwritten in case of other 
  *       implementations in user file.
  * @retval tick value
  */
__weak uint32_t HAL_GetTick(void)
{
 8002fe0:	b480      	push	{r7}
 8002fe2:	af00      	add	r7, sp, #0
  return uwTick;
 8002fe4:	4b03      	ldr	r3, [pc, #12]	; (8002ff4 <HAL_GetTick+0x14>)
 8002fe6:	681b      	ldr	r3, [r3, #0]
}
 8002fe8:	4618      	mov	r0, r3
 8002fea:	46bd      	mov	sp, r7
 8002fec:	f85d 7b04 	ldr.w	r7, [sp], #4
 8002ff0:	4770      	bx	lr
 8002ff2:	bf00      	nop
 8002ff4:	20000634 	.word	0x20000634

08002ff8 <HAL_Delay>:
  *       implementations in user file.
  * @param Delay specifies the delay time length, in milliseconds.
  * @retval None
  */
__weak void HAL_Delay(uint32_t Delay)
{
 8002ff8:	b580      	push	{r7, lr}
 8002ffa:	b084      	sub	sp, #16
 8002ffc:	af00      	add	r7, sp, #0
 8002ffe:	6078      	str	r0, [r7, #4]
  uint32_t tickstart = HAL_GetTick();
 8003000:	f7ff ffee 	bl	8002fe0 <HAL_GetTick>
 8003004:	60b8      	str	r0, [r7, #8]
  uint32_t wait = Delay;
 8003006:	687b      	ldr	r3, [r7, #4]
 8003008:	60fb      	str	r3, [r7, #12]

  /* Add a freq to guarantee minimum wait */
  if (wait < HAL_MAX_DELAY)
 800300a:	68fb      	ldr	r3, [r7, #12]
 800300c:	f1b3 3fff 	cmp.w	r3, #4294967295	; 0xffffffff
 8003010:	d005      	beq.n	800301e <HAL_Delay+0x26>
  {
    wait += (uint32_t)(uwTickFreq);
 8003012:	4b0a      	ldr	r3, [pc, #40]	; (800303c <HAL_Delay+0x44>)
 8003014:	781b      	ldrb	r3, [r3, #0]
 8003016:	461a      	mov	r2, r3
 8003018:	68fb      	ldr	r3, [r7, #12]
 800301a:	4413      	add	r3, r2
 800301c:	60fb      	str	r3, [r7, #12]
  }

  while((HAL_GetTick() - tickstart) < wait)
 800301e:	bf00      	nop
 8003020:	f7ff ffde 	bl	8002fe0 <HAL_GetTick>
 8003024:	4602      	mov	r2, r0
 8003026:	68bb      	ldr	r3, [r7, #8]
 8003028:	1ad3      	subs	r3, r2, r3
 800302a:	68fa      	ldr	r2, [r7, #12]
 800302c:	429a      	cmp	r2, r3
 800302e:	d8f7      	bhi.n	8003020 <HAL_Delay+0x28>
  {
  }
}
 8003030:	bf00      	nop
 8003032:	bf00      	nop
 8003034:	3710      	adds	r7, #16
 8003036:	46bd      	mov	sp, r7
 8003038:	bd80      	pop	{r7, pc}
 800303a:	bf00      	nop
 800303c:	20000024 	.word	0x20000024

08003040 <HAL_CAN_Init>:
  * @param  hcan pointer to a CAN_HandleTypeDef structure that contains
  *         the configuration information for the specified CAN.
  * @retval HAL status
  */
HAL_StatusTypeDef HAL_CAN_Init(CAN_HandleTypeDef *hcan)
{
 8003040:	b580      	push	{r7, lr}
 8003042:	b084      	sub	sp, #16
 8003044:	af00      	add	r7, sp, #0
 8003046:	6078      	str	r0, [r7, #4]
  uint32_t tickstart;

  /* Check CAN handle */
  if (hcan == NULL)
 8003048:	687b      	ldr	r3, [r7, #4]
 800304a:	2b00      	cmp	r3, #0
 800304c:	d101      	bne.n	8003052 <HAL_CAN_Init+0x12>
  {
    return HAL_ERROR;
 800304e:	2301      	movs	r3, #1
 8003050:	e0ed      	b.n	800322e <HAL_CAN_Init+0x1ee>
    /* Init the low level hardware: CLOCK, NVIC */
    hcan->MspInitCallback(hcan);
  }

#else
  if (hcan->State == HAL_CAN_STATE_RESET)
 8003052:	687b      	ldr	r3, [r7, #4]
 8003054:	f893 3020 	ldrb.w	r3, [r3, #32]
 8003058:	b2db      	uxtb	r3, r3
 800305a:	2b00      	cmp	r3, #0
 800305c:	d102      	bne.n	8003064 <HAL_CAN_Init+0x24>
  {
    /* Init the low level hardware: CLOCK, NVIC */
    HAL_CAN_MspInit(hcan);
 800305e:	6878      	ldr	r0, [r7, #4]
 8003060:	f7ff fb3c 	bl	80026dc <HAL_CAN_MspInit>
  }
#endif /* USE_HAL_CAN_REGISTER_CALLBACKS */

  /* Request initialisation */
  SET_BIT(hcan->Instance->MCR, CAN_MCR_INRQ);
 8003064:	687b      	ldr	r3, [r7, #4]
 8003066:	681b      	ldr	r3, [r3, #0]
 8003068:	681a      	ldr	r2, [r3, #0]
 800306a:	687b      	ldr	r3, [r7, #4]
 800306c:	681b      	ldr	r3, [r3, #0]
 800306e:	f042 0201 	orr.w	r2, r2, #1
 8003072:	601a      	str	r2, [r3, #0]

  /* Get tick */
  tickstart = HAL_GetTick();
 8003074:	f7ff ffb4 	bl	8002fe0 <HAL_GetTick>
 8003078:	60f8      	str	r0, [r7, #12]

  /* Wait initialisation acknowledge */
  while ((hcan->Instance->MSR & CAN_MSR_INAK) == 0U)
 800307a:	e012      	b.n	80030a2 <HAL_CAN_Init+0x62>
  {
    if ((HAL_GetTick() - tickstart) > CAN_TIMEOUT_VALUE)
 800307c:	f7ff ffb0 	bl	8002fe0 <HAL_GetTick>
 8003080:	4602      	mov	r2, r0
 8003082:	68fb      	ldr	r3, [r7, #12]
 8003084:	1ad3      	subs	r3, r2, r3
 8003086:	2b0a      	cmp	r3, #10
 8003088:	d90b      	bls.n	80030a2 <HAL_CAN_Init+0x62>
    {
      /* Update error code */
      hcan->ErrorCode |= HAL_CAN_ERROR_TIMEOUT;
 800308a:	687b      	ldr	r3, [r7, #4]
 800308c:	6a5b      	ldr	r3, [r3, #36]	; 0x24
 800308e:	f443 3200 	orr.w	r2, r3, #131072	; 0x20000
 8003092:	687b      	ldr	r3, [r7, #4]
 8003094:	625a      	str	r2, [r3, #36]	; 0x24

      /* Change CAN state */
      hcan->State = HAL_CAN_STATE_ERROR;
 8003096:	687b      	ldr	r3, [r7, #4]
 8003098:	2205      	movs	r2, #5
 800309a:	f883 2020 	strb.w	r2, [r3, #32]

      return HAL_ERROR;
 800309e:	2301      	movs	r3, #1
 80030a0:	e0c5      	b.n	800322e <HAL_CAN_Init+0x1ee>
  while ((hcan->Instance->MSR & CAN_MSR_INAK) == 0U)
 80030a2:	687b      	ldr	r3, [r7, #4]
 80030a4:	681b      	ldr	r3, [r3, #0]
 80030a6:	685b      	ldr	r3, [r3, #4]
 80030a8:	f003 0301 	and.w	r3, r3, #1
 80030ac:	2b00      	cmp	r3, #0
 80030ae:	d0e5      	beq.n	800307c <HAL_CAN_Init+0x3c>
    }
  }

  /* Exit from sleep mode */
  CLEAR_BIT(hcan->Instance->MCR, CAN_MCR_SLEEP);
 80030b0:	687b      	ldr	r3, [r7, #4]
 80030b2:	681b      	ldr	r3, [r3, #0]
 80030b4:	681a      	ldr	r2, [r3, #0]
 80030b6:	687b      	ldr	r3, [r7, #4]
 80030b8:	681b      	ldr	r3, [r3, #0]
 80030ba:	f022 0202 	bic.w	r2, r2, #2
 80030be:	601a      	str	r2, [r3, #0]

  /* Get tick */
  tickstart = HAL_GetTick();
 80030c0:	f7ff ff8e 	bl	8002fe0 <HAL_GetTick>
 80030c4:	60f8      	str	r0, [r7, #12]

  /* Check Sleep mode leave acknowledge */
  while ((hcan->Instance->MSR & CAN_MSR_SLAK) != 0U)
 80030c6:	e012      	b.n	80030ee <HAL_CAN_Init+0xae>
  {
    if ((HAL_GetTick() - tickstart) > CAN_TIMEOUT_VALUE)
 80030c8:	f7ff ff8a 	bl	8002fe0 <HAL_GetTick>
 80030cc:	4602      	mov	r2, r0
 80030ce:	68fb      	ldr	r3, [r7, #12]
 80030d0:	1ad3      	subs	r3, r2, r3
 80030d2:	2b0a      	cmp	r3, #10
 80030d4:	d90b      	bls.n	80030ee <HAL_CAN_Init+0xae>
    {
      /* Update error code */
      hcan->ErrorCode |= HAL_CAN_ERROR_TIMEOUT;
 80030d6:	687b      	ldr	r3, [r7, #4]
 80030d8:	6a5b      	ldr	r3, [r3, #36]	; 0x24
 80030da:	f443 3200 	orr.w	r2, r3, #131072	; 0x20000
 80030de:	687b      	ldr	r3, [r7, #4]
 80030e0:	625a      	str	r2, [r3, #36]	; 0x24

      /* Change CAN state */
      hcan->State = HAL_CAN_STATE_ERROR;
 80030e2:	687b      	ldr	r3, [r7, #4]
 80030e4:	2205      	movs	r2, #5
 80030e6:	f883 2020 	strb.w	r2, [r3, #32]

      return HAL_ERROR;
 80030ea:	2301      	movs	r3, #1
 80030ec:	e09f      	b.n	800322e <HAL_CAN_Init+0x1ee>
  while ((hcan->Instance->MSR & CAN_MSR_SLAK) != 0U)
 80030ee:	687b      	ldr	r3, [r7, #4]
 80030f0:	681b      	ldr	r3, [r3, #0]
 80030f2:	685b      	ldr	r3, [r3, #4]
 80030f4:	f003 0302 	and.w	r3, r3, #2
 80030f8:	2b00      	cmp	r3, #0
 80030fa:	d1e5      	bne.n	80030c8 <HAL_CAN_Init+0x88>
    }
  }

  /* Set the time triggered communication mode */
  if (hcan->Init.TimeTriggeredMode == ENABLE)
 80030fc:	687b      	ldr	r3, [r7, #4]
 80030fe:	7e1b      	ldrb	r3, [r3, #24]
 8003100:	2b01      	cmp	r3, #1
 8003102:	d108      	bne.n	8003116 <HAL_CAN_Init+0xd6>
  {
    SET_BIT(hcan->Instance->MCR, CAN_MCR_TTCM);
 8003104:	687b      	ldr	r3, [r7, #4]
 8003106:	681b      	ldr	r3, [r3, #0]
 8003108:	681a      	ldr	r2, [r3, #0]
 800310a:	687b      	ldr	r3, [r7, #4]
 800310c:	681b      	ldr	r3, [r3, #0]
 800310e:	f042 0280 	orr.w	r2, r2, #128	; 0x80
 8003112:	601a      	str	r2, [r3, #0]
 8003114:	e007      	b.n	8003126 <HAL_CAN_Init+0xe6>
  }
  else
  {
    CLEAR_BIT(hcan->Instance->MCR, CAN_MCR_TTCM);
 8003116:	687b      	ldr	r3, [r7, #4]
 8003118:	681b      	ldr	r3, [r3, #0]
 800311a:	681a      	ldr	r2, [r3, #0]
 800311c:	687b      	ldr	r3, [r7, #4]
 800311e:	681b      	ldr	r3, [r3, #0]
 8003120:	f022 0280 	bic.w	r2, r2, #128	; 0x80
 8003124:	601a      	str	r2, [r3, #0]
  }

  /* Set the automatic bus-off management */
  if (hcan->Init.AutoBusOff == ENABLE)
 8003126:	687b      	ldr	r3, [r7, #4]
 8003128:	7e5b      	ldrb	r3, [r3, #25]
 800312a:	2b01      	cmp	r3, #1
 800312c:	d108      	bne.n	8003140 <HAL_CAN_Init+0x100>
  {
    SET_BIT(hcan->Instance->MCR, CAN_MCR_ABOM);
 800312e:	687b      	ldr	r3, [r7, #4]
 8003130:	681b      	ldr	r3, [r3, #0]
 8003132:	681a      	ldr	r2, [r3, #0]
 8003134:	687b      	ldr	r3, [r7, #4]
 8003136:	681b      	ldr	r3, [r3, #0]
 8003138:	f042 0240 	orr.w	r2, r2, #64	; 0x40
 800313c:	601a      	str	r2, [r3, #0]
 800313e:	e007      	b.n	8003150 <HAL_CAN_Init+0x110>
  }
  else
  {
    CLEAR_BIT(hcan->Instance->MCR, CAN_MCR_ABOM);
 8003140:	687b      	ldr	r3, [r7, #4]
 8003142:	681b      	ldr	r3, [r3, #0]
 8003144:	681a      	ldr	r2, [r3, #0]
 8003146:	687b      	ldr	r3, [r7, #4]
 8003148:	681b      	ldr	r3, [r3, #0]
 800314a:	f022 0240 	bic.w	r2, r2, #64	; 0x40
 800314e:	601a      	str	r2, [r3, #0]
  }

  /* Set the automatic wake-up mode */
  if (hcan->Init.AutoWakeUp == ENABLE)
 8003150:	687b      	ldr	r3, [r7, #4]
 8003152:	7e9b      	ldrb	r3, [r3, #26]
 8003154:	2b01      	cmp	r3, #1
 8003156:	d108      	bne.n	800316a <HAL_CAN_Init+0x12a>
  {
    SET_BIT(hcan->Instance->MCR, CAN_MCR_AWUM);
 8003158:	687b      	ldr	r3, [r7, #4]
 800315a:	681b      	ldr	r3, [r3, #0]
 800315c:	681a      	ldr	r2, [r3, #0]
 800315e:	687b      	ldr	r3, [r7, #4]
 8003160:	681b      	ldr	r3, [r3, #0]
 8003162:	f042 0220 	orr.w	r2, r2, #32
 8003166:	601a      	str	r2, [r3, #0]
 8003168:	e007      	b.n	800317a <HAL_CAN_Init+0x13a>
  }
  else
  {
    CLEAR_BIT(hcan->Instance->MCR, CAN_MCR_AWUM);
 800316a:	687b      	ldr	r3, [r7, #4]
 800316c:	681b      	ldr	r3, [r3, #0]
 800316e:	681a      	ldr	r2, [r3, #0]
 8003170:	687b      	ldr	r3, [r7, #4]
 8003172:	681b      	ldr	r3, [r3, #0]
 8003174:	f022 0220 	bic.w	r2, r2, #32
 8003178:	601a      	str	r2, [r3, #0]
  }

  /* Set the automatic retransmission */
  if (hcan->Init.AutoRetransmission == ENABLE)
 800317a:	687b      	ldr	r3, [r7, #4]
 800317c:	7edb      	ldrb	r3, [r3, #27]
 800317e:	2b01      	cmp	r3, #1
 8003180:	d108      	bne.n	8003194 <HAL_CAN_Init+0x154>
  {
    CLEAR_BIT(hcan->Instance->MCR, CAN_MCR_NART);
 8003182:	687b      	ldr	r3, [r7, #4]
 8003184:	681b      	ldr	r3, [r3, #0]
 8003186:	681a      	ldr	r2, [r3, #0]
 8003188:	687b      	ldr	r3, [r7, #4]
 800318a:	681b      	ldr	r3, [r3, #0]
 800318c:	f022 0210 	bic.w	r2, r2, #16
 8003190:	601a      	str	r2, [r3, #0]
 8003192:	e007      	b.n	80031a4 <HAL_CAN_Init+0x164>
  }
  else
  {
    SET_BIT(hcan->Instance->MCR, CAN_MCR_NART);
 8003194:	687b      	ldr	r3, [r7, #4]
 8003196:	681b      	ldr	r3, [r3, #0]
 8003198:	681a      	ldr	r2, [r3, #0]
 800319a:	687b      	ldr	r3, [r7, #4]
 800319c:	681b      	ldr	r3, [r3, #0]
 800319e:	f042 0210 	orr.w	r2, r2, #16
 80031a2:	601a      	str	r2, [r3, #0]
  }

  /* Set the receive FIFO locked mode */
  if (hcan->Init.ReceiveFifoLocked == ENABLE)
 80031a4:	687b      	ldr	r3, [r7, #4]
 80031a6:	7f1b      	ldrb	r3, [r3, #28]
 80031a8:	2b01      	cmp	r3, #1
 80031aa:	d108      	bne.n	80031be <HAL_CAN_Init+0x17e>
  {
    SET_BIT(hcan->Instance->MCR, CAN_MCR_RFLM);
 80031ac:	687b      	ldr	r3, [r7, #4]
 80031ae:	681b      	ldr	r3, [r3, #0]
 80031b0:	681a      	ldr	r2, [r3, #0]
 80031b2:	687b      	ldr	r3, [r7, #4]
 80031b4:	681b      	ldr	r3, [r3, #0]
 80031b6:	f042 0208 	orr.w	r2, r2, #8
 80031ba:	601a      	str	r2, [r3, #0]
 80031bc:	e007      	b.n	80031ce <HAL_CAN_Init+0x18e>
  }
  else
  {
    CLEAR_BIT(hcan->Instance->MCR, CAN_MCR_RFLM);
 80031be:	687b      	ldr	r3, [r7, #4]
 80031c0:	681b      	ldr	r3, [r3, #0]
 80031c2:	681a      	ldr	r2, [r3, #0]
 80031c4:	687b      	ldr	r3, [r7, #4]
 80031c6:	681b      	ldr	r3, [r3, #0]
 80031c8:	f022 0208 	bic.w	r2, r2, #8
 80031cc:	601a      	str	r2, [r3, #0]
  }

  /* Set the transmit FIFO priority */
  if (hcan->Init.TransmitFifoPriority == ENABLE)
 80031ce:	687b      	ldr	r3, [r7, #4]
 80031d0:	7f5b      	ldrb	r3, [r3, #29]
 80031d2:	2b01      	cmp	r3, #1
 80031d4:	d108      	bne.n	80031e8 <HAL_CAN_Init+0x1a8>
  {
    SET_BIT(hcan->Instance->MCR, CAN_MCR_TXFP);
 80031d6:	687b      	ldr	r3, [r7, #4]
 80031d8:	681b      	ldr	r3, [r3, #0]
 80031da:	681a      	ldr	r2, [r3, #0]
 80031dc:	687b      	ldr	r3, [r7, #4]
 80031de:	681b      	ldr	r3, [r3, #0]
 80031e0:	f042 0204 	orr.w	r2, r2, #4
 80031e4:	601a      	str	r2, [r3, #0]
 80031e6:	e007      	b.n	80031f8 <HAL_CAN_Init+0x1b8>
  }
  else
  {
    CLEAR_BIT(hcan->Instance->MCR, CAN_MCR_TXFP);
 80031e8:	687b      	ldr	r3, [r7, #4]
 80031ea:	681b      	ldr	r3, [r3, #0]
 80031ec:	681a      	ldr	r2, [r3, #0]
 80031ee:	687b      	ldr	r3, [r7, #4]
 80031f0:	681b      	ldr	r3, [r3, #0]
 80031f2:	f022 0204 	bic.w	r2, r2, #4
 80031f6:	601a      	str	r2, [r3, #0]
  }

  /* Set the bit timing register */
  WRITE_REG(hcan->Instance->BTR, (uint32_t)(hcan->Init.Mode           |
 80031f8:	687b      	ldr	r3, [r7, #4]
 80031fa:	689a      	ldr	r2, [r3, #8]
 80031fc:	687b      	ldr	r3, [r7, #4]
 80031fe:	68db      	ldr	r3, [r3, #12]
 8003200:	431a      	orrs	r2, r3
 8003202:	687b      	ldr	r3, [r7, #4]
 8003204:	691b      	ldr	r3, [r3, #16]
 8003206:	431a      	orrs	r2, r3
 8003208:	687b      	ldr	r3, [r7, #4]
 800320a:	695b      	ldr	r3, [r3, #20]
 800320c:	ea42 0103 	orr.w	r1, r2, r3
 8003210:	687b      	ldr	r3, [r7, #4]
 8003212:	685b      	ldr	r3, [r3, #4]
 8003214:	1e5a      	subs	r2, r3, #1
 8003216:	687b      	ldr	r3, [r7, #4]
 8003218:	681b      	ldr	r3, [r3, #0]
 800321a:	430a      	orrs	r2, r1
 800321c:	61da      	str	r2, [r3, #28]
                                            hcan->Init.TimeSeg1       |
                                            hcan->Init.TimeSeg2       |
                                            (hcan->Init.Prescaler - 1U)));

  /* Initialize the error code */
  hcan->ErrorCode = HAL_CAN_ERROR_NONE;
 800321e:	687b      	ldr	r3, [r7, #4]
 8003220:	2200      	movs	r2, #0
 8003222:	625a      	str	r2, [r3, #36]	; 0x24

  /* Initialize the CAN state */
  hcan->State = HAL_CAN_STATE_READY;
 8003224:	687b      	ldr	r3, [r7, #4]
 8003226:	2201      	movs	r2, #1
 8003228:	f883 2020 	strb.w	r2, [r3, #32]

  /* Return function status */
  return HAL_OK;
 800322c:	2300      	movs	r3, #0
}
 800322e:	4618      	mov	r0, r3
 8003230:	3710      	adds	r7, #16
 8003232:	46bd      	mov	sp, r7
 8003234:	bd80      	pop	{r7, pc}
	...

08003238 <HAL_CAN_ConfigFilter>:
  * @param  sFilterConfig pointer to a CAN_FilterTypeDef structure that
  *         contains the filter configuration information.
  * @retval None
  */
HAL_StatusTypeDef HAL_CAN_ConfigFilter(CAN_HandleTypeDef *hcan, const CAN_FilterTypeDef *sFilterConfig)
{
 8003238:	b480      	push	{r7}
 800323a:	b087      	sub	sp, #28
 800323c:	af00      	add	r7, sp, #0
 800323e:	6078      	str	r0, [r7, #4]
 8003240:	6039      	str	r1, [r7, #0]
  uint32_t filternbrbitpos;
  CAN_TypeDef *can_ip = hcan->Instance;
 8003242:	687b      	ldr	r3, [r7, #4]
 8003244:	681b      	ldr	r3, [r3, #0]
 8003246:	617b      	str	r3, [r7, #20]
  HAL_CAN_StateTypeDef state = hcan->State;
 8003248:	687b      	ldr	r3, [r7, #4]
 800324a:	f893 3020 	ldrb.w	r3, [r3, #32]
 800324e:	74fb      	strb	r3, [r7, #19]

  if ((state == HAL_CAN_STATE_READY) ||
 8003250:	7cfb      	ldrb	r3, [r7, #19]
 8003252:	2b01      	cmp	r3, #1
 8003254:	d003      	beq.n	800325e <HAL_CAN_ConfigFilter+0x26>
 8003256:	7cfb      	ldrb	r3, [r7, #19]
 8003258:	2b02      	cmp	r3, #2
 800325a:	f040 80be 	bne.w	80033da <HAL_CAN_ConfigFilter+0x1a2>
      assert_param(IS_CAN_FILTER_BANK_DUAL(sFilterConfig->SlaveStartFilterBank));
    }
#elif defined(CAN2)
    /* CAN1 and CAN2 are dual instances with 28 common filters banks */
    /* Select master instance to access the filter banks */
    can_ip = CAN1;
 800325e:	4b65      	ldr	r3, [pc, #404]	; (80033f4 <HAL_CAN_ConfigFilter+0x1bc>)
 8003260:	617b      	str	r3, [r7, #20]
    /* Check the parameters */
    assert_param(IS_CAN_FILTER_BANK_SINGLE(sFilterConfig->FilterBank));
#endif /* CAN3 */

    /* Initialisation mode for the filter */
    SET_BIT(can_ip->FMR, CAN_FMR_FINIT);
 8003262:	697b      	ldr	r3, [r7, #20]
 8003264:	f8d3 3200 	ldr.w	r3, [r3, #512]	; 0x200
 8003268:	f043 0201 	orr.w	r2, r3, #1
 800326c:	697b      	ldr	r3, [r7, #20]
 800326e:	f8c3 2200 	str.w	r2, [r3, #512]	; 0x200
      SET_BIT(can_ip->FMR, sFilterConfig->SlaveStartFilterBank << CAN_FMR_CAN2SB_Pos);
    }

#elif defined(CAN2)
    /* Select the start filter number of CAN2 slave instance */
    CLEAR_BIT(can_ip->FMR, CAN_FMR_CAN2SB);
 8003272:	697b      	ldr	r3, [r7, #20]
 8003274:	f8d3 3200 	ldr.w	r3, [r3, #512]	; 0x200
 8003278:	f423 527c 	bic.w	r2, r3, #16128	; 0x3f00
 800327c:	697b      	ldr	r3, [r7, #20]
 800327e:	f8c3 2200 	str.w	r2, [r3, #512]	; 0x200
    SET_BIT(can_ip->FMR, sFilterConfig->SlaveStartFilterBank << CAN_FMR_CAN2SB_Pos);
 8003282:	697b      	ldr	r3, [r7, #20]
 8003284:	f8d3 2200 	ldr.w	r2, [r3, #512]	; 0x200
 8003288:	683b      	ldr	r3, [r7, #0]
 800328a:	6a5b      	ldr	r3, [r3, #36]	; 0x24
 800328c:	021b      	lsls	r3, r3, #8
 800328e:	431a      	orrs	r2, r3
 8003290:	697b      	ldr	r3, [r7, #20]
 8003292:	f8c3 2200 	str.w	r2, [r3, #512]	; 0x200

#endif /* CAN3 */
    /* Convert filter number into bit position */
    filternbrbitpos = (uint32_t)1 << (sFilterConfig->FilterBank & 0x1FU);
 8003296:	683b      	ldr	r3, [r7, #0]
 8003298:	695b      	ldr	r3, [r3, #20]
 800329a:	f003 031f 	and.w	r3, r3, #31
 800329e:	2201      	movs	r2, #1
 80032a0:	fa02 f303 	lsl.w	r3, r2, r3
 80032a4:	60fb      	str	r3, [r7, #12]

    /* Filter Deactivation */
    CLEAR_BIT(can_ip->FA1R, filternbrbitpos);
 80032a6:	697b      	ldr	r3, [r7, #20]
 80032a8:	f8d3 221c 	ldr.w	r2, [r3, #540]	; 0x21c
 80032ac:	68fb      	ldr	r3, [r7, #12]
 80032ae:	43db      	mvns	r3, r3
 80032b0:	401a      	ands	r2, r3
 80032b2:	697b      	ldr	r3, [r7, #20]
 80032b4:	f8c3 221c 	str.w	r2, [r3, #540]	; 0x21c

    /* Filter Scale */
    if (sFilterConfig->FilterScale == CAN_FILTERSCALE_16BIT)
 80032b8:	683b      	ldr	r3, [r7, #0]
 80032ba:	69db      	ldr	r3, [r3, #28]
 80032bc:	2b00      	cmp	r3, #0
 80032be:	d123      	bne.n	8003308 <HAL_CAN_ConfigFilter+0xd0>
    {
      /* 16-bit scale for the filter */
      CLEAR_BIT(can_ip->FS1R, filternbrbitpos);
 80032c0:	697b      	ldr	r3, [r7, #20]
 80032c2:	f8d3 220c 	ldr.w	r2, [r3, #524]	; 0x20c
 80032c6:	68fb      	ldr	r3, [r7, #12]
 80032c8:	43db      	mvns	r3, r3
 80032ca:	401a      	ands	r2, r3
 80032cc:	697b      	ldr	r3, [r7, #20]
 80032ce:	f8c3 220c 	str.w	r2, [r3, #524]	; 0x20c

      /* First 16-bit identifier and First 16-bit mask */
      /* Or First 16-bit identifier and Second 16-bit identifier */
      can_ip->sFilterRegister[sFilterConfig->FilterBank].FR1 =
        ((0x0000FFFFU & (uint32_t)sFilterConfig->FilterMaskIdLow) << 16U) |
 80032d2:	683b      	ldr	r3, [r7, #0]
 80032d4:	68db      	ldr	r3, [r3, #12]
 80032d6:	0419      	lsls	r1, r3, #16
        (0x0000FFFFU & (uint32_t)sFilterConfig->FilterIdLow);
 80032d8:	683b      	ldr	r3, [r7, #0]
 80032da:	685b      	ldr	r3, [r3, #4]
 80032dc:	b29b      	uxth	r3, r3
      can_ip->sFilterRegister[sFilterConfig->FilterBank].FR1 =
 80032de:	683a      	ldr	r2, [r7, #0]
 80032e0:	6952      	ldr	r2, [r2, #20]
        ((0x0000FFFFU & (uint32_t)sFilterConfig->FilterMaskIdLow) << 16U) |
 80032e2:	4319      	orrs	r1, r3
      can_ip->sFilterRegister[sFilterConfig->FilterBank].FR1 =
 80032e4:	697b      	ldr	r3, [r7, #20]
 80032e6:	3248      	adds	r2, #72	; 0x48
 80032e8:	f843 1032 	str.w	r1, [r3, r2, lsl #3]

      /* Second 16-bit identifier and Second 16-bit mask */
      /* Or Third 16-bit identifier and Fourth 16-bit identifier */
      can_ip->sFilterRegister[sFilterConfig->FilterBank].FR2 =
        ((0x0000FFFFU & (uint32_t)sFilterConfig->FilterMaskIdHigh) << 16U) |
 80032ec:	683b      	ldr	r3, [r7, #0]
 80032ee:	689b      	ldr	r3, [r3, #8]
 80032f0:	0419      	lsls	r1, r3, #16
        (0x0000FFFFU & (uint32_t)sFilterConfig->FilterIdHigh);
 80032f2:	683b      	ldr	r3, [r7, #0]
 80032f4:	681b      	ldr	r3, [r3, #0]
 80032f6:	b29a      	uxth	r2, r3
      can_ip->sFilterRegister[sFilterConfig->FilterBank].FR2 =
 80032f8:	683b      	ldr	r3, [r7, #0]
 80032fa:	695b      	ldr	r3, [r3, #20]
        ((0x0000FFFFU & (uint32_t)sFilterConfig->FilterMaskIdHigh) << 16U) |
 80032fc:	430a      	orrs	r2, r1
      can_ip->sFilterRegister[sFilterConfig->FilterBank].FR2 =
 80032fe:	6979      	ldr	r1, [r7, #20]
 8003300:	3348      	adds	r3, #72	; 0x48
 8003302:	00db      	lsls	r3, r3, #3
 8003304:	440b      	add	r3, r1
 8003306:	605a      	str	r2, [r3, #4]
    }

    if (sFilterConfig->FilterScale == CAN_FILTERSCALE_32BIT)
 8003308:	683b      	ldr	r3, [r7, #0]
 800330a:	69db      	ldr	r3, [r3, #28]
 800330c:	2b01      	cmp	r3, #1
 800330e:	d122      	bne.n	8003356 <HAL_CAN_ConfigFilter+0x11e>
    {
      /* 32-bit scale for the filter */
      SET_BIT(can_ip->FS1R, filternbrbitpos);
 8003310:	697b      	ldr	r3, [r7, #20]
 8003312:	f8d3 220c 	ldr.w	r2, [r3, #524]	; 0x20c
 8003316:	68fb      	ldr	r3, [r7, #12]
 8003318:	431a      	orrs	r2, r3
 800331a:	697b      	ldr	r3, [r7, #20]
 800331c:	f8c3 220c 	str.w	r2, [r3, #524]	; 0x20c

      /* 32-bit identifier or First 32-bit identifier */
      can_ip->sFilterRegister[sFilterConfig->FilterBank].FR1 =
        ((0x0000FFFFU & (uint32_t)sFilterConfig->FilterIdHigh) << 16U) |
 8003320:	683b      	ldr	r3, [r7, #0]
 8003322:	681b      	ldr	r3, [r3, #0]
 8003324:	0419      	lsls	r1, r3, #16
        (0x0000FFFFU & (uint32_t)sFilterConfig->FilterIdLow);
 8003326:	683b      	ldr	r3, [r7, #0]
 8003328:	685b      	ldr	r3, [r3, #4]
 800332a:	b29b      	uxth	r3, r3
      can_ip->sFilterRegister[sFilterConfig->FilterBank].FR1 =
 800332c:	683a      	ldr	r2, [r7, #0]
 800332e:	6952      	ldr	r2, [r2, #20]
        ((0x0000FFFFU & (uint32_t)sFilterConfig->FilterIdHigh) << 16U) |
 8003330:	4319      	orrs	r1, r3
      can_ip->sFilterRegister[sFilterConfig->FilterBank].FR1 =
 8003332:	697b      	ldr	r3, [r7, #20]
 8003334:	3248      	adds	r2, #72	; 0x48
 8003336:	f843 1032 	str.w	r1, [r3, r2, lsl #3]

      /* 32-bit mask or Second 32-bit identifier */
      can_ip->sFilterRegister[sFilterConfig->FilterBank].FR2 =
        ((0x0000FFFFU & (uint32_t)sFilterConfig->FilterMaskIdHigh) << 16U) |
 800333a:	683b      	ldr	r3, [r7, #0]
 800333c:	689b      	ldr	r3, [r3, #8]
 800333e:	0419      	lsls	r1, r3, #16
        (0x0000FFFFU & (uint32_t)sFilterConfig->FilterMaskIdLow);
 8003340:	683b      	ldr	r3, [r7, #0]
 8003342:	68db      	ldr	r3, [r3, #12]
 8003344:	b29a      	uxth	r2, r3
      can_ip->sFilterRegister[sFilterConfig->FilterBank].FR2 =
 8003346:	683b      	ldr	r3, [r7, #0]
 8003348:	695b      	ldr	r3, [r3, #20]
        ((0x0000FFFFU & (uint32_t)sFilterConfig->FilterMaskIdHigh) << 16U) |
 800334a:	430a      	orrs	r2, r1
      can_ip->sFilterRegister[sFilterConfig->FilterBank].FR2 =
 800334c:	6979      	ldr	r1, [r7, #20]
 800334e:	3348      	adds	r3, #72	; 0x48
 8003350:	00db      	lsls	r3, r3, #3
 8003352:	440b      	add	r3, r1
 8003354:	605a      	str	r2, [r3, #4]
    }

    /* Filter Mode */
    if (sFilterConfig->FilterMode == CAN_FILTERMODE_IDMASK)
 8003356:	683b      	ldr	r3, [r7, #0]
 8003358:	699b      	ldr	r3, [r3, #24]
 800335a:	2b00      	cmp	r3, #0
 800335c:	d109      	bne.n	8003372 <HAL_CAN_ConfigFilter+0x13a>
    {
      /* Id/Mask mode for the filter*/
      CLEAR_BIT(can_ip->FM1R, filternbrbitpos);
 800335e:	697b      	ldr	r3, [r7, #20]
 8003360:	f8d3 2204 	ldr.w	r2, [r3, #516]	; 0x204
 8003364:	68fb      	ldr	r3, [r7, #12]
 8003366:	43db      	mvns	r3, r3
 8003368:	401a      	ands	r2, r3
 800336a:	697b      	ldr	r3, [r7, #20]
 800336c:	f8c3 2204 	str.w	r2, [r3, #516]	; 0x204
 8003370:	e007      	b.n	8003382 <HAL_CAN_ConfigFilter+0x14a>
    }
    else /* CAN_FilterInitStruct->CAN_FilterMode == CAN_FilterMode_IdList */
    {
      /* Identifier list mode for the filter*/
      SET_BIT(can_ip->FM1R, filternbrbitpos);
 8003372:	697b      	ldr	r3, [r7, #20]
 8003374:	f8d3 2204 	ldr.w	r2, [r3, #516]	; 0x204
 8003378:	68fb      	ldr	r3, [r7, #12]
 800337a:	431a      	orrs	r2, r3
 800337c:	697b      	ldr	r3, [r7, #20]
 800337e:	f8c3 2204 	str.w	r2, [r3, #516]	; 0x204
    }

    /* Filter FIFO assignment */
    if (sFilterConfig->FilterFIFOAssignment == CAN_FILTER_FIFO0)
 8003382:	683b      	ldr	r3, [r7, #0]
 8003384:	691b      	ldr	r3, [r3, #16]
 8003386:	2b00      	cmp	r3, #0
 8003388:	d109      	bne.n	800339e <HAL_CAN_ConfigFilter+0x166>
    {
      /* FIFO 0 assignation for the filter */
      CLEAR_BIT(can_ip->FFA1R, filternbrbitpos);
 800338a:	697b      	ldr	r3, [r7, #20]
 800338c:	f8d3 2214 	ldr.w	r2, [r3, #532]	; 0x214
 8003390:	68fb      	ldr	r3, [r7, #12]
 8003392:	43db      	mvns	r3, r3
 8003394:	401a      	ands	r2, r3
 8003396:	697b      	ldr	r3, [r7, #20]
 8003398:	f8c3 2214 	str.w	r2, [r3, #532]	; 0x214
 800339c:	e007      	b.n	80033ae <HAL_CAN_ConfigFilter+0x176>
    }
    else
    {
      /* FIFO 1 assignation for the filter */
      SET_BIT(can_ip->FFA1R, filternbrbitpos);
 800339e:	697b      	ldr	r3, [r7, #20]
 80033a0:	f8d3 2214 	ldr.w	r2, [r3, #532]	; 0x214
 80033a4:	68fb      	ldr	r3, [r7, #12]
 80033a6:	431a      	orrs	r2, r3
 80033a8:	697b      	ldr	r3, [r7, #20]
 80033aa:	f8c3 2214 	str.w	r2, [r3, #532]	; 0x214
    }

    /* Filter activation */
    if (sFilterConfig->FilterActivation == CAN_FILTER_ENABLE)
 80033ae:	683b      	ldr	r3, [r7, #0]
 80033b0:	6a1b      	ldr	r3, [r3, #32]
 80033b2:	2b01      	cmp	r3, #1
 80033b4:	d107      	bne.n	80033c6 <HAL_CAN_ConfigFilter+0x18e>
    {
      SET_BIT(can_ip->FA1R, filternbrbitpos);
 80033b6:	697b      	ldr	r3, [r7, #20]
 80033b8:	f8d3 221c 	ldr.w	r2, [r3, #540]	; 0x21c
 80033bc:	68fb      	ldr	r3, [r7, #12]
 80033be:	431a      	orrs	r2, r3
 80033c0:	697b      	ldr	r3, [r7, #20]
 80033c2:	f8c3 221c 	str.w	r2, [r3, #540]	; 0x21c
    }

    /* Leave the initialisation mode for the filter */
    CLEAR_BIT(can_ip->FMR, CAN_FMR_FINIT);
 80033c6:	697b      	ldr	r3, [r7, #20]
 80033c8:	f8d3 3200 	ldr.w	r3, [r3, #512]	; 0x200
 80033cc:	f023 0201 	bic.w	r2, r3, #1
 80033d0:	697b      	ldr	r3, [r7, #20]
 80033d2:	f8c3 2200 	str.w	r2, [r3, #512]	; 0x200

    /* Return function status */
    return HAL_OK;
 80033d6:	2300      	movs	r3, #0
 80033d8:	e006      	b.n	80033e8 <HAL_CAN_ConfigFilter+0x1b0>
  }
  else
  {
    /* Update error code */
    hcan->ErrorCode |= HAL_CAN_ERROR_NOT_INITIALIZED;
 80033da:	687b      	ldr	r3, [r7, #4]
 80033dc:	6a5b      	ldr	r3, [r3, #36]	; 0x24
 80033de:	f443 2280 	orr.w	r2, r3, #262144	; 0x40000
 80033e2:	687b      	ldr	r3, [r7, #4]
 80033e4:	625a      	str	r2, [r3, #36]	; 0x24

    return HAL_ERROR;
 80033e6:	2301      	movs	r3, #1
  }
}
 80033e8:	4618      	mov	r0, r3
 80033ea:	371c      	adds	r7, #28
 80033ec:	46bd      	mov	sp, r7
 80033ee:	f85d 7b04 	ldr.w	r7, [sp], #4
 80033f2:	4770      	bx	lr
 80033f4:	40006400 	.word	0x40006400

080033f8 <HAL_CAN_Start>:
  * @param  hcan pointer to an CAN_HandleTypeDef structure that contains
  *         the configuration information for the specified CAN.
  * @retval HAL status
  */
HAL_StatusTypeDef HAL_CAN_Start(CAN_HandleTypeDef *hcan)
{
 80033f8:	b580      	push	{r7, lr}
 80033fa:	b084      	sub	sp, #16
 80033fc:	af00      	add	r7, sp, #0
 80033fe:	6078      	str	r0, [r7, #4]
  uint32_t tickstart;

  if (hcan->State == HAL_CAN_STATE_READY)
 8003400:	687b      	ldr	r3, [r7, #4]
 8003402:	f893 3020 	ldrb.w	r3, [r3, #32]
 8003406:	b2db      	uxtb	r3, r3
 8003408:	2b01      	cmp	r3, #1
 800340a:	d12e      	bne.n	800346a <HAL_CAN_Start+0x72>
  {
    /* Change CAN peripheral state */
    hcan->State = HAL_CAN_STATE_LISTENING;
 800340c:	687b      	ldr	r3, [r7, #4]
 800340e:	2202      	movs	r2, #2
 8003410:	f883 2020 	strb.w	r2, [r3, #32]

    /* Request leave initialisation */
    CLEAR_BIT(hcan->Instance->MCR, CAN_MCR_INRQ);
 8003414:	687b      	ldr	r3, [r7, #4]
 8003416:	681b      	ldr	r3, [r3, #0]
 8003418:	681a      	ldr	r2, [r3, #0]
 800341a:	687b      	ldr	r3, [r7, #4]
 800341c:	681b      	ldr	r3, [r3, #0]
 800341e:	f022 0201 	bic.w	r2, r2, #1
 8003422:	601a      	str	r2, [r3, #0]

    /* Get tick */
    tickstart = HAL_GetTick();
 8003424:	f7ff fddc 	bl	8002fe0 <HAL_GetTick>
 8003428:	60f8      	str	r0, [r7, #12]

    /* Wait the acknowledge */
    while ((hcan->Instance->MSR & CAN_MSR_INAK) != 0U)
 800342a:	e012      	b.n	8003452 <HAL_CAN_Start+0x5a>
    {
      /* Check for the Timeout */
      if ((HAL_GetTick() - tickstart) > CAN_TIMEOUT_VALUE)
 800342c:	f7ff fdd8 	bl	8002fe0 <HAL_GetTick>
 8003430:	4602      	mov	r2, r0
 8003432:	68fb      	ldr	r3, [r7, #12]
 8003434:	1ad3      	subs	r3, r2, r3
 8003436:	2b0a      	cmp	r3, #10
 8003438:	d90b      	bls.n	8003452 <HAL_CAN_Start+0x5a>
      {
        /* Update error code */
        hcan->ErrorCode |= HAL_CAN_ERROR_TIMEOUT;
 800343a:	687b      	ldr	r3, [r7, #4]
 800343c:	6a5b      	ldr	r3, [r3, #36]	; 0x24
 800343e:	f443 3200 	orr.w	r2, r3, #131072	; 0x20000
 8003442:	687b      	ldr	r3, [r7, #4]
 8003444:	625a      	str	r2, [r3, #36]	; 0x24

        /* Change CAN state */
        hcan->State = HAL_CAN_STATE_ERROR;
 8003446:	687b      	ldr	r3, [r7, #4]
 8003448:	2205      	movs	r2, #5
 800344a:	f883 2020 	strb.w	r2, [r3, #32]

        return HAL_ERROR;
 800344e:	2301      	movs	r3, #1
 8003450:	e012      	b.n	8003478 <HAL_CAN_Start+0x80>
    while ((hcan->Instance->MSR & CAN_MSR_INAK) != 0U)
 8003452:	687b      	ldr	r3, [r7, #4]
 8003454:	681b      	ldr	r3, [r3, #0]
 8003456:	685b      	ldr	r3, [r3, #4]
 8003458:	f003 0301 	and.w	r3, r3, #1
 800345c:	2b00      	cmp	r3, #0
 800345e:	d1e5      	bne.n	800342c <HAL_CAN_Start+0x34>
      }
    }

    /* Reset the CAN ErrorCode */
    hcan->ErrorCode = HAL_CAN_ERROR_NONE;
 8003460:	687b      	ldr	r3, [r7, #4]
 8003462:	2200      	movs	r2, #0
 8003464:	625a      	str	r2, [r3, #36]	; 0x24

    /* Return function status */
    return HAL_OK;
 8003466:	2300      	movs	r3, #0
 8003468:	e006      	b.n	8003478 <HAL_CAN_Start+0x80>
  }
  else
  {
    /* Update error code */
    hcan->ErrorCode |= HAL_CAN_ERROR_NOT_READY;
 800346a:	687b      	ldr	r3, [r7, #4]
 800346c:	6a5b      	ldr	r3, [r3, #36]	; 0x24
 800346e:	f443 2200 	orr.w	r2, r3, #524288	; 0x80000
 8003472:	687b      	ldr	r3, [r7, #4]
 8003474:	625a      	str	r2, [r3, #36]	; 0x24

    return HAL_ERROR;
 8003476:	2301      	movs	r3, #1
  }
}
 8003478:	4618      	mov	r0, r3
 800347a:	3710      	adds	r7, #16
 800347c:	46bd      	mov	sp, r7
 800347e:	bd80      	pop	{r7, pc}

08003480 <HAL_CAN_AddTxMessage>:
  *         This parameter can be a value of @arg CAN_Tx_Mailboxes.
  * @retval HAL status
  */
HAL_StatusTypeDef HAL_CAN_AddTxMessage(CAN_HandleTypeDef *hcan, const CAN_TxHeaderTypeDef *pHeader,
                                       const uint8_t aData[], uint32_t *pTxMailbox)
{
 8003480:	b480      	push	{r7}
 8003482:	b089      	sub	sp, #36	; 0x24
 8003484:	af00      	add	r7, sp, #0
 8003486:	60f8      	str	r0, [r7, #12]
 8003488:	60b9      	str	r1, [r7, #8]
 800348a:	607a      	str	r2, [r7, #4]
 800348c:	603b      	str	r3, [r7, #0]
  uint32_t transmitmailbox;
  HAL_CAN_StateTypeDef state = hcan->State;
 800348e:	68fb      	ldr	r3, [r7, #12]
 8003490:	f893 3020 	ldrb.w	r3, [r3, #32]
 8003494:	77fb      	strb	r3, [r7, #31]
  uint32_t tsr = READ_REG(hcan->Instance->TSR);
 8003496:	68fb      	ldr	r3, [r7, #12]
 8003498:	681b      	ldr	r3, [r3, #0]
 800349a:	689b      	ldr	r3, [r3, #8]
 800349c:	61bb      	str	r3, [r7, #24]
  {
    assert_param(IS_CAN_EXTID(pHeader->ExtId));
  }
  assert_param(IS_FUNCTIONAL_STATE(pHeader->TransmitGlobalTime));

  if ((state == HAL_CAN_STATE_READY) ||
 800349e:	7ffb      	ldrb	r3, [r7, #31]
 80034a0:	2b01      	cmp	r3, #1
 80034a2:	d003      	beq.n	80034ac <HAL_CAN_AddTxMessage+0x2c>
 80034a4:	7ffb      	ldrb	r3, [r7, #31]
 80034a6:	2b02      	cmp	r3, #2
 80034a8:	f040 80ad 	bne.w	8003606 <HAL_CAN_AddTxMessage+0x186>
      (state == HAL_CAN_STATE_LISTENING))
  {
    /* Check that all the Tx mailboxes are not full */
    if (((tsr & CAN_TSR_TME0) != 0U) ||
 80034ac:	69bb      	ldr	r3, [r7, #24]
 80034ae:	f003 6380 	and.w	r3, r3, #67108864	; 0x4000000
 80034b2:	2b00      	cmp	r3, #0
 80034b4:	d10a      	bne.n	80034cc <HAL_CAN_AddTxMessage+0x4c>
        ((tsr & CAN_TSR_TME1) != 0U) ||
 80034b6:	69bb      	ldr	r3, [r7, #24]
 80034b8:	f003 6300 	and.w	r3, r3, #134217728	; 0x8000000
    if (((tsr & CAN_TSR_TME0) != 0U) ||
 80034bc:	2b00      	cmp	r3, #0
 80034be:	d105      	bne.n	80034cc <HAL_CAN_AddTxMessage+0x4c>
        ((tsr & CAN_TSR_TME2) != 0U))
 80034c0:	69bb      	ldr	r3, [r7, #24]
 80034c2:	f003 5380 	and.w	r3, r3, #268435456	; 0x10000000
        ((tsr & CAN_TSR_TME1) != 0U) ||
 80034c6:	2b00      	cmp	r3, #0
 80034c8:	f000 8095 	beq.w	80035f6 <HAL_CAN_AddTxMessage+0x176>
    {
      /* Select an empty transmit mailbox */
      transmitmailbox = (tsr & CAN_TSR_CODE) >> CAN_TSR_CODE_Pos;
 80034cc:	69bb      	ldr	r3, [r7, #24]
 80034ce:	0e1b      	lsrs	r3, r3, #24
 80034d0:	f003 0303 	and.w	r3, r3, #3
 80034d4:	617b      	str	r3, [r7, #20]

      /* Store the Tx mailbox */
      *pTxMailbox = (uint32_t)1 << transmitmailbox;
 80034d6:	2201      	movs	r2, #1
 80034d8:	697b      	ldr	r3, [r7, #20]
 80034da:	409a      	lsls	r2, r3
 80034dc:	683b      	ldr	r3, [r7, #0]
 80034de:	601a      	str	r2, [r3, #0]

      /* Set up the Id */
      if (pHeader->IDE == CAN_ID_STD)
 80034e0:	68bb      	ldr	r3, [r7, #8]
 80034e2:	689b      	ldr	r3, [r3, #8]
 80034e4:	2b00      	cmp	r3, #0
 80034e6:	d10d      	bne.n	8003504 <HAL_CAN_AddTxMessage+0x84>
      {
        hcan->Instance->sTxMailBox[transmitmailbox].TIR = ((pHeader->StdId << CAN_TI0R_STID_Pos) |
 80034e8:	68bb      	ldr	r3, [r7, #8]
 80034ea:	681b      	ldr	r3, [r3, #0]
 80034ec:	055a      	lsls	r2, r3, #21
                                                           pHeader->RTR);
 80034ee:	68bb      	ldr	r3, [r7, #8]
 80034f0:	68db      	ldr	r3, [r3, #12]
        hcan->Instance->sTxMailBox[transmitmailbox].TIR = ((pHeader->StdId << CAN_TI0R_STID_Pos) |
 80034f2:	68f9      	ldr	r1, [r7, #12]
 80034f4:	6809      	ldr	r1, [r1, #0]
 80034f6:	431a      	orrs	r2, r3
 80034f8:	697b      	ldr	r3, [r7, #20]
 80034fa:	3318      	adds	r3, #24
 80034fc:	011b      	lsls	r3, r3, #4
 80034fe:	440b      	add	r3, r1
 8003500:	601a      	str	r2, [r3, #0]
 8003502:	e00f      	b.n	8003524 <HAL_CAN_AddTxMessage+0xa4>
      }
      else
      {
        hcan->Instance->sTxMailBox[transmitmailbox].TIR = ((pHeader->ExtId << CAN_TI0R_EXID_Pos) |
 8003504:	68bb      	ldr	r3, [r7, #8]
 8003506:	685b      	ldr	r3, [r3, #4]
 8003508:	00da      	lsls	r2, r3, #3
                                                           pHeader->IDE |
 800350a:	68bb      	ldr	r3, [r7, #8]
 800350c:	689b      	ldr	r3, [r3, #8]
        hcan->Instance->sTxMailBox[transmitmailbox].TIR = ((pHeader->ExtId << CAN_TI0R_EXID_Pos) |
 800350e:	431a      	orrs	r2, r3
                                                           pHeader->RTR);
 8003510:	68bb      	ldr	r3, [r7, #8]
 8003512:	68db      	ldr	r3, [r3, #12]
        hcan->Instance->sTxMailBox[transmitmailbox].TIR = ((pHeader->ExtId << CAN_TI0R_EXID_Pos) |
 8003514:	68f9      	ldr	r1, [r7, #12]
 8003516:	6809      	ldr	r1, [r1, #0]
                                                           pHeader->IDE |
 8003518:	431a      	orrs	r2, r3
        hcan->Instance->sTxMailBox[transmitmailbox].TIR = ((pHeader->ExtId << CAN_TI0R_EXID_Pos) |
 800351a:	697b      	ldr	r3, [r7, #20]
 800351c:	3318      	adds	r3, #24
 800351e:	011b      	lsls	r3, r3, #4
 8003520:	440b      	add	r3, r1
 8003522:	601a      	str	r2, [r3, #0]
      }

      /* Set up the DLC */
      hcan->Instance->sTxMailBox[transmitmailbox].TDTR = (pHeader->DLC);
 8003524:	68fb      	ldr	r3, [r7, #12]
 8003526:	6819      	ldr	r1, [r3, #0]
 8003528:	68bb      	ldr	r3, [r7, #8]
 800352a:	691a      	ldr	r2, [r3, #16]
 800352c:	697b      	ldr	r3, [r7, #20]
 800352e:	3318      	adds	r3, #24
 8003530:	011b      	lsls	r3, r3, #4
 8003532:	440b      	add	r3, r1
 8003534:	3304      	adds	r3, #4
 8003536:	601a      	str	r2, [r3, #0]

      /* Set up the Transmit Global Time mode */
      if (pHeader->TransmitGlobalTime == ENABLE)
 8003538:	68bb      	ldr	r3, [r7, #8]
 800353a:	7d1b      	ldrb	r3, [r3, #20]
 800353c:	2b01      	cmp	r3, #1
 800353e:	d111      	bne.n	8003564 <HAL_CAN_AddTxMessage+0xe4>
      {
        SET_BIT(hcan->Instance->sTxMailBox[transmitmailbox].TDTR, CAN_TDT0R_TGT);
 8003540:	68fb      	ldr	r3, [r7, #12]
 8003542:	681a      	ldr	r2, [r3, #0]
 8003544:	697b      	ldr	r3, [r7, #20]
 8003546:	3318      	adds	r3, #24
 8003548:	011b      	lsls	r3, r3, #4
 800354a:	4413      	add	r3, r2
 800354c:	3304      	adds	r3, #4
 800354e:	681b      	ldr	r3, [r3, #0]
 8003550:	68fa      	ldr	r2, [r7, #12]
 8003552:	6811      	ldr	r1, [r2, #0]
 8003554:	f443 7280 	orr.w	r2, r3, #256	; 0x100
 8003558:	697b      	ldr	r3, [r7, #20]
 800355a:	3318      	adds	r3, #24
 800355c:	011b      	lsls	r3, r3, #4
 800355e:	440b      	add	r3, r1
 8003560:	3304      	adds	r3, #4
 8003562:	601a      	str	r2, [r3, #0]
      }

      /* Set up the data field */
      WRITE_REG(hcan->Instance->sTxMailBox[transmitmailbox].TDHR,
 8003564:	687b      	ldr	r3, [r7, #4]
 8003566:	3307      	adds	r3, #7
 8003568:	781b      	ldrb	r3, [r3, #0]
 800356a:	061a      	lsls	r2, r3, #24
 800356c:	687b      	ldr	r3, [r7, #4]
 800356e:	3306      	adds	r3, #6
 8003570:	781b      	ldrb	r3, [r3, #0]
 8003572:	041b      	lsls	r3, r3, #16
 8003574:	431a      	orrs	r2, r3
 8003576:	687b      	ldr	r3, [r7, #4]
 8003578:	3305      	adds	r3, #5
 800357a:	781b      	ldrb	r3, [r3, #0]
 800357c:	021b      	lsls	r3, r3, #8
 800357e:	4313      	orrs	r3, r2
 8003580:	687a      	ldr	r2, [r7, #4]
 8003582:	3204      	adds	r2, #4
 8003584:	7812      	ldrb	r2, [r2, #0]
 8003586:	4610      	mov	r0, r2
 8003588:	68fa      	ldr	r2, [r7, #12]
 800358a:	6811      	ldr	r1, [r2, #0]
 800358c:	ea43 0200 	orr.w	r2, r3, r0
 8003590:	697b      	ldr	r3, [r7, #20]
 8003592:	011b      	lsls	r3, r3, #4
 8003594:	440b      	add	r3, r1
 8003596:	f503 73c6 	add.w	r3, r3, #396	; 0x18c
 800359a:	601a      	str	r2, [r3, #0]
                ((uint32_t)aData[7] << CAN_TDH0R_DATA7_Pos) |
                ((uint32_t)aData[6] << CAN_TDH0R_DATA6_Pos) |
                ((uint32_t)aData[5] << CAN_TDH0R_DATA5_Pos) |
                ((uint32_t)aData[4] << CAN_TDH0R_DATA4_Pos));
      WRITE_REG(hcan->Instance->sTxMailBox[transmitmailbox].TDLR,
 800359c:	687b      	ldr	r3, [r7, #4]
 800359e:	3303      	adds	r3, #3
 80035a0:	781b      	ldrb	r3, [r3, #0]
 80035a2:	061a      	lsls	r2, r3, #24
 80035a4:	687b      	ldr	r3, [r7, #4]
 80035a6:	3302      	adds	r3, #2
 80035a8:	781b      	ldrb	r3, [r3, #0]
 80035aa:	041b      	lsls	r3, r3, #16
 80035ac:	431a      	orrs	r2, r3
 80035ae:	687b      	ldr	r3, [r7, #4]
 80035b0:	3301      	adds	r3, #1
 80035b2:	781b      	ldrb	r3, [r3, #0]
 80035b4:	021b      	lsls	r3, r3, #8
 80035b6:	4313      	orrs	r3, r2
 80035b8:	687a      	ldr	r2, [r7, #4]
 80035ba:	7812      	ldrb	r2, [r2, #0]
 80035bc:	4610      	mov	r0, r2
 80035be:	68fa      	ldr	r2, [r7, #12]
 80035c0:	6811      	ldr	r1, [r2, #0]
 80035c2:	ea43 0200 	orr.w	r2, r3, r0
 80035c6:	697b      	ldr	r3, [r7, #20]
 80035c8:	011b      	lsls	r3, r3, #4
 80035ca:	440b      	add	r3, r1
 80035cc:	f503 73c4 	add.w	r3, r3, #392	; 0x188
 80035d0:	601a      	str	r2, [r3, #0]
                ((uint32_t)aData[2] << CAN_TDL0R_DATA2_Pos) |
                ((uint32_t)aData[1] << CAN_TDL0R_DATA1_Pos) |
                ((uint32_t)aData[0] << CAN_TDL0R_DATA0_Pos));

      /* Request transmission */
      SET_BIT(hcan->Instance->sTxMailBox[transmitmailbox].TIR, CAN_TI0R_TXRQ);
 80035d2:	68fb      	ldr	r3, [r7, #12]
 80035d4:	681a      	ldr	r2, [r3, #0]
 80035d6:	697b      	ldr	r3, [r7, #20]
 80035d8:	3318      	adds	r3, #24
 80035da:	011b      	lsls	r3, r3, #4
 80035dc:	4413      	add	r3, r2
 80035de:	681b      	ldr	r3, [r3, #0]
 80035e0:	68fa      	ldr	r2, [r7, #12]
 80035e2:	6811      	ldr	r1, [r2, #0]
 80035e4:	f043 0201 	orr.w	r2, r3, #1
 80035e8:	697b      	ldr	r3, [r7, #20]
 80035ea:	3318      	adds	r3, #24
 80035ec:	011b      	lsls	r3, r3, #4
 80035ee:	440b      	add	r3, r1
 80035f0:	601a      	str	r2, [r3, #0]

      /* Return function status */
      return HAL_OK;
 80035f2:	2300      	movs	r3, #0
 80035f4:	e00e      	b.n	8003614 <HAL_CAN_AddTxMessage+0x194>
    }
    else
    {
      /* Update error code */
      hcan->ErrorCode |= HAL_CAN_ERROR_PARAM;
 80035f6:	68fb      	ldr	r3, [r7, #12]
 80035f8:	6a5b      	ldr	r3, [r3, #36]	; 0x24
 80035fa:	f443 1200 	orr.w	r2, r3, #2097152	; 0x200000
 80035fe:	68fb      	ldr	r3, [r7, #12]
 8003600:	625a      	str	r2, [r3, #36]	; 0x24

      return HAL_ERROR;
 8003602:	2301      	movs	r3, #1
 8003604:	e006      	b.n	8003614 <HAL_CAN_AddTxMessage+0x194>
    }
  }
  else
  {
    /* Update error code */
    hcan->ErrorCode |= HAL_CAN_ERROR_NOT_INITIALIZED;
 8003606:	68fb      	ldr	r3, [r7, #12]
 8003608:	6a5b      	ldr	r3, [r3, #36]	; 0x24
 800360a:	f443 2280 	orr.w	r2, r3, #262144	; 0x40000
 800360e:	68fb      	ldr	r3, [r7, #12]
 8003610:	625a      	str	r2, [r3, #36]	; 0x24

    return HAL_ERROR;
 8003612:	2301      	movs	r3, #1
  }
}
 8003614:	4618      	mov	r0, r3
 8003616:	3724      	adds	r7, #36	; 0x24
 8003618:	46bd      	mov	sp, r7
 800361a:	f85d 7b04 	ldr.w	r7, [sp], #4
 800361e:	4770      	bx	lr

08003620 <HAL_CAN_GetRxMessage>:
  * @param  aData array where the payload of the Rx frame will be stored.
  * @retval HAL status
  */
HAL_StatusTypeDef HAL_CAN_GetRxMessage(CAN_HandleTypeDef *hcan, uint32_t RxFifo,
                                       CAN_RxHeaderTypeDef *pHeader, uint8_t aData[])
{
 8003620:	b480      	push	{r7}
 8003622:	b087      	sub	sp, #28
 8003624:	af00      	add	r7, sp, #0
 8003626:	60f8      	str	r0, [r7, #12]
 8003628:	60b9      	str	r1, [r7, #8]
 800362a:	607a      	str	r2, [r7, #4]
 800362c:	603b      	str	r3, [r7, #0]
  HAL_CAN_StateTypeDef state = hcan->State;
 800362e:	68fb      	ldr	r3, [r7, #12]
 8003630:	f893 3020 	ldrb.w	r3, [r3, #32]
 8003634:	75fb      	strb	r3, [r7, #23]

  assert_param(IS_CAN_RX_FIFO(RxFifo));

  if ((state == HAL_CAN_STATE_READY) ||
 8003636:	7dfb      	ldrb	r3, [r7, #23]
 8003638:	2b01      	cmp	r3, #1
 800363a:	d003      	beq.n	8003644 <HAL_CAN_GetRxMessage+0x24>
 800363c:	7dfb      	ldrb	r3, [r7, #23]
 800363e:	2b02      	cmp	r3, #2
 8003640:	f040 8103 	bne.w	800384a <HAL_CAN_GetRxMessage+0x22a>
      (state == HAL_CAN_STATE_LISTENING))
  {
    /* Check the Rx FIFO */
    if (RxFifo == CAN_RX_FIFO0) /* Rx element is assigned to Rx FIFO 0 */
 8003644:	68bb      	ldr	r3, [r7, #8]
 8003646:	2b00      	cmp	r3, #0
 8003648:	d10e      	bne.n	8003668 <HAL_CAN_GetRxMessage+0x48>
    {
      /* Check that the Rx FIFO 0 is not empty */
      if ((hcan->Instance->RF0R & CAN_RF0R_FMP0) == 0U)
 800364a:	68fb      	ldr	r3, [r7, #12]
 800364c:	681b      	ldr	r3, [r3, #0]
 800364e:	68db      	ldr	r3, [r3, #12]
 8003650:	f003 0303 	and.w	r3, r3, #3
 8003654:	2b00      	cmp	r3, #0
 8003656:	d116      	bne.n	8003686 <HAL_CAN_GetRxMessage+0x66>
      {
        /* Update error code */
        hcan->ErrorCode |= HAL_CAN_ERROR_PARAM;
 8003658:	68fb      	ldr	r3, [r7, #12]
 800365a:	6a5b      	ldr	r3, [r3, #36]	; 0x24
 800365c:	f443 1200 	orr.w	r2, r3, #2097152	; 0x200000
 8003660:	68fb      	ldr	r3, [r7, #12]
 8003662:	625a      	str	r2, [r3, #36]	; 0x24

        return HAL_ERROR;
 8003664:	2301      	movs	r3, #1
 8003666:	e0f7      	b.n	8003858 <HAL_CAN_GetRxMessage+0x238>
      }
    }
    else /* Rx element is assigned to Rx FIFO 1 */
    {
      /* Check that the Rx FIFO 1 is not empty */
      if ((hcan->Instance->RF1R & CAN_RF1R_FMP1) == 0U)
 8003668:	68fb      	ldr	r3, [r7, #12]
 800366a:	681b      	ldr	r3, [r3, #0]
 800366c:	691b      	ldr	r3, [r3, #16]
 800366e:	f003 0303 	and.w	r3, r3, #3
 8003672:	2b00      	cmp	r3, #0
 8003674:	d107      	bne.n	8003686 <HAL_CAN_GetRxMessage+0x66>
      {
        /* Update error code */
        hcan->ErrorCode |= HAL_CAN_ERROR_PARAM;
 8003676:	68fb      	ldr	r3, [r7, #12]
 8003678:	6a5b      	ldr	r3, [r3, #36]	; 0x24
 800367a:	f443 1200 	orr.w	r2, r3, #2097152	; 0x200000
 800367e:	68fb      	ldr	r3, [r7, #12]
 8003680:	625a      	str	r2, [r3, #36]	; 0x24

        return HAL_ERROR;
 8003682:	2301      	movs	r3, #1
 8003684:	e0e8      	b.n	8003858 <HAL_CAN_GetRxMessage+0x238>
      }
    }

    /* Get the header */
    pHeader->IDE = CAN_RI0R_IDE & hcan->Instance->sFIFOMailBox[RxFifo].RIR;
 8003686:	68fb      	ldr	r3, [r7, #12]
 8003688:	681a      	ldr	r2, [r3, #0]
 800368a:	68bb      	ldr	r3, [r7, #8]
 800368c:	331b      	adds	r3, #27
 800368e:	011b      	lsls	r3, r3, #4
 8003690:	4413      	add	r3, r2
 8003692:	681b      	ldr	r3, [r3, #0]
 8003694:	f003 0204 	and.w	r2, r3, #4
 8003698:	687b      	ldr	r3, [r7, #4]
 800369a:	609a      	str	r2, [r3, #8]
    if (pHeader->IDE == CAN_ID_STD)
 800369c:	687b      	ldr	r3, [r7, #4]
 800369e:	689b      	ldr	r3, [r3, #8]
 80036a0:	2b00      	cmp	r3, #0
 80036a2:	d10c      	bne.n	80036be <HAL_CAN_GetRxMessage+0x9e>
    {
      pHeader->StdId = (CAN_RI0R_STID & hcan->Instance->sFIFOMailBox[RxFifo].RIR) >> CAN_TI0R_STID_Pos;
 80036a4:	68fb      	ldr	r3, [r7, #12]
 80036a6:	681a      	ldr	r2, [r3, #0]
 80036a8:	68bb      	ldr	r3, [r7, #8]
 80036aa:	331b      	adds	r3, #27
 80036ac:	011b      	lsls	r3, r3, #4
 80036ae:	4413      	add	r3, r2
 80036b0:	681b      	ldr	r3, [r3, #0]
 80036b2:	0d5b      	lsrs	r3, r3, #21
 80036b4:	f3c3 020a 	ubfx	r2, r3, #0, #11
 80036b8:	687b      	ldr	r3, [r7, #4]
 80036ba:	601a      	str	r2, [r3, #0]
 80036bc:	e00b      	b.n	80036d6 <HAL_CAN_GetRxMessage+0xb6>
    }
    else
    {
      pHeader->ExtId = ((CAN_RI0R_EXID | CAN_RI0R_STID) &
                        hcan->Instance->sFIFOMailBox[RxFifo].RIR) >> CAN_RI0R_EXID_Pos;
 80036be:	68fb      	ldr	r3, [r7, #12]
 80036c0:	681a      	ldr	r2, [r3, #0]
 80036c2:	68bb      	ldr	r3, [r7, #8]
 80036c4:	331b      	adds	r3, #27
 80036c6:	011b      	lsls	r3, r3, #4
 80036c8:	4413      	add	r3, r2
 80036ca:	681b      	ldr	r3, [r3, #0]
 80036cc:	08db      	lsrs	r3, r3, #3
 80036ce:	f023 4260 	bic.w	r2, r3, #3758096384	; 0xe0000000
      pHeader->ExtId = ((CAN_RI0R_EXID | CAN_RI0R_STID) &
 80036d2:	687b      	ldr	r3, [r7, #4]
 80036d4:	605a      	str	r2, [r3, #4]
    }
    pHeader->RTR = (CAN_RI0R_RTR & hcan->Instance->sFIFOMailBox[RxFifo].RIR);
 80036d6:	68fb      	ldr	r3, [r7, #12]
 80036d8:	681a      	ldr	r2, [r3, #0]
 80036da:	68bb      	ldr	r3, [r7, #8]
 80036dc:	331b      	adds	r3, #27
 80036de:	011b      	lsls	r3, r3, #4
 80036e0:	4413      	add	r3, r2
 80036e2:	681b      	ldr	r3, [r3, #0]
 80036e4:	f003 0202 	and.w	r2, r3, #2
 80036e8:	687b      	ldr	r3, [r7, #4]
 80036ea:	60da      	str	r2, [r3, #12]
    if (((CAN_RDT0R_DLC & hcan->Instance->sFIFOMailBox[RxFifo].RDTR) >> CAN_RDT0R_DLC_Pos) >= 8U)
 80036ec:	68fb      	ldr	r3, [r7, #12]
 80036ee:	681a      	ldr	r2, [r3, #0]
 80036f0:	68bb      	ldr	r3, [r7, #8]
 80036f2:	331b      	adds	r3, #27
 80036f4:	011b      	lsls	r3, r3, #4
 80036f6:	4413      	add	r3, r2
 80036f8:	3304      	adds	r3, #4
 80036fa:	681b      	ldr	r3, [r3, #0]
 80036fc:	f003 0308 	and.w	r3, r3, #8
 8003700:	2b00      	cmp	r3, #0
 8003702:	d003      	beq.n	800370c <HAL_CAN_GetRxMessage+0xec>
    {
      /* Truncate DLC to 8 if received field is over range */
      pHeader->DLC = 8U;
 8003704:	687b      	ldr	r3, [r7, #4]
 8003706:	2208      	movs	r2, #8
 8003708:	611a      	str	r2, [r3, #16]
 800370a:	e00b      	b.n	8003724 <HAL_CAN_GetRxMessage+0x104>
    }
    else
    {
      pHeader->DLC = (CAN_RDT0R_DLC & hcan->Instance->sFIFOMailBox[RxFifo].RDTR) >> CAN_RDT0R_DLC_Pos;
 800370c:	68fb      	ldr	r3, [r7, #12]
 800370e:	681a      	ldr	r2, [r3, #0]
 8003710:	68bb      	ldr	r3, [r7, #8]
 8003712:	331b      	adds	r3, #27
 8003714:	011b      	lsls	r3, r3, #4
 8003716:	4413      	add	r3, r2
 8003718:	3304      	adds	r3, #4
 800371a:	681b      	ldr	r3, [r3, #0]
 800371c:	f003 020f 	and.w	r2, r3, #15
 8003720:	687b      	ldr	r3, [r7, #4]
 8003722:	611a      	str	r2, [r3, #16]
    }
    pHeader->FilterMatchIndex = (CAN_RDT0R_FMI & hcan->Instance->sFIFOMailBox[RxFifo].RDTR) >> CAN_RDT0R_FMI_Pos;
 8003724:	68fb      	ldr	r3, [r7, #12]
 8003726:	681a      	ldr	r2, [r3, #0]
 8003728:	68bb      	ldr	r3, [r7, #8]
 800372a:	331b      	adds	r3, #27
 800372c:	011b      	lsls	r3, r3, #4
 800372e:	4413      	add	r3, r2
 8003730:	3304      	adds	r3, #4
 8003732:	681b      	ldr	r3, [r3, #0]
 8003734:	0a1b      	lsrs	r3, r3, #8
 8003736:	b2da      	uxtb	r2, r3
 8003738:	687b      	ldr	r3, [r7, #4]
 800373a:	619a      	str	r2, [r3, #24]
    pHeader->Timestamp = (CAN_RDT0R_TIME & hcan->Instance->sFIFOMailBox[RxFifo].RDTR) >> CAN_RDT0R_TIME_Pos;
 800373c:	68fb      	ldr	r3, [r7, #12]
 800373e:	681a      	ldr	r2, [r3, #0]
 8003740:	68bb      	ldr	r3, [r7, #8]
 8003742:	331b      	adds	r3, #27
 8003744:	011b      	lsls	r3, r3, #4
 8003746:	4413      	add	r3, r2
 8003748:	3304      	adds	r3, #4
 800374a:	681b      	ldr	r3, [r3, #0]
 800374c:	0c1b      	lsrs	r3, r3, #16
 800374e:	b29a      	uxth	r2, r3
 8003750:	687b      	ldr	r3, [r7, #4]
 8003752:	615a      	str	r2, [r3, #20]

    /* Get the data */
    aData[0] = (uint8_t)((CAN_RDL0R_DATA0 & hcan->Instance->sFIFOMailBox[RxFifo].RDLR) >> CAN_RDL0R_DATA0_Pos);
 8003754:	68fb      	ldr	r3, [r7, #12]
 8003756:	681a      	ldr	r2, [r3, #0]
 8003758:	68bb      	ldr	r3, [r7, #8]
 800375a:	011b      	lsls	r3, r3, #4
 800375c:	4413      	add	r3, r2
 800375e:	f503 73dc 	add.w	r3, r3, #440	; 0x1b8
 8003762:	681b      	ldr	r3, [r3, #0]
 8003764:	b2da      	uxtb	r2, r3
 8003766:	683b      	ldr	r3, [r7, #0]
 8003768:	701a      	strb	r2, [r3, #0]
    aData[1] = (uint8_t)((CAN_RDL0R_DATA1 & hcan->Instance->sFIFOMailBox[RxFifo].RDLR) >> CAN_RDL0R_DATA1_Pos);
 800376a:	68fb      	ldr	r3, [r7, #12]
 800376c:	681a      	ldr	r2, [r3, #0]
 800376e:	68bb      	ldr	r3, [r7, #8]
 8003770:	011b      	lsls	r3, r3, #4
 8003772:	4413      	add	r3, r2
 8003774:	f503 73dc 	add.w	r3, r3, #440	; 0x1b8
 8003778:	681b      	ldr	r3, [r3, #0]
 800377a:	0a1a      	lsrs	r2, r3, #8
 800377c:	683b      	ldr	r3, [r7, #0]
 800377e:	3301      	adds	r3, #1
 8003780:	b2d2      	uxtb	r2, r2
 8003782:	701a      	strb	r2, [r3, #0]
    aData[2] = (uint8_t)((CAN_RDL0R_DATA2 & hcan->Instance->sFIFOMailBox[RxFifo].RDLR) >> CAN_RDL0R_DATA2_Pos);
 8003784:	68fb      	ldr	r3, [r7, #12]
 8003786:	681a      	ldr	r2, [r3, #0]
 8003788:	68bb      	ldr	r3, [r7, #8]
 800378a:	011b      	lsls	r3, r3, #4
 800378c:	4413      	add	r3, r2
 800378e:	f503 73dc 	add.w	r3, r3, #440	; 0x1b8
 8003792:	681b      	ldr	r3, [r3, #0]
 8003794:	0c1a      	lsrs	r2, r3, #16
 8003796:	683b      	ldr	r3, [r7, #0]
 8003798:	3302      	adds	r3, #2
 800379a:	b2d2      	uxtb	r2, r2
 800379c:	701a      	strb	r2, [r3, #0]
    aData[3] = (uint8_t)((CAN_RDL0R_DATA3 & hcan->Instance->sFIFOMailBox[RxFifo].RDLR) >> CAN_RDL0R_DATA3_Pos);
 800379e:	68fb      	ldr	r3, [r7, #12]
 80037a0:	681a      	ldr	r2, [r3, #0]
 80037a2:	68bb      	ldr	r3, [r7, #8]
 80037a4:	011b      	lsls	r3, r3, #4
 80037a6:	4413      	add	r3, r2
 80037a8:	f503 73dc 	add.w	r3, r3, #440	; 0x1b8
 80037ac:	681b      	ldr	r3, [r3, #0]
 80037ae:	0e1a      	lsrs	r2, r3, #24
 80037b0:	683b      	ldr	r3, [r7, #0]
 80037b2:	3303      	adds	r3, #3
 80037b4:	b2d2      	uxtb	r2, r2
 80037b6:	701a      	strb	r2, [r3, #0]
    aData[4] = (uint8_t)((CAN_RDH0R_DATA4 & hcan->Instance->sFIFOMailBox[RxFifo].RDHR) >> CAN_RDH0R_DATA4_Pos);
 80037b8:	68fb      	ldr	r3, [r7, #12]
 80037ba:	681a      	ldr	r2, [r3, #0]
 80037bc:	68bb      	ldr	r3, [r7, #8]
 80037be:	011b      	lsls	r3, r3, #4
 80037c0:	4413      	add	r3, r2
 80037c2:	f503 73de 	add.w	r3, r3, #444	; 0x1bc
 80037c6:	681a      	ldr	r2, [r3, #0]
 80037c8:	683b      	ldr	r3, [r7, #0]
 80037ca:	3304      	adds	r3, #4
 80037cc:	b2d2      	uxtb	r2, r2
 80037ce:	701a      	strb	r2, [r3, #0]
    aData[5] = (uint8_t)((CAN_RDH0R_DATA5 & hcan->Instance->sFIFOMailBox[RxFifo].RDHR) >> CAN_RDH0R_DATA5_Pos);
 80037d0:	68fb      	ldr	r3, [r7, #12]
 80037d2:	681a      	ldr	r2, [r3, #0]
 80037d4:	68bb      	ldr	r3, [r7, #8]
 80037d6:	011b      	lsls	r3, r3, #4
 80037d8:	4413      	add	r3, r2
 80037da:	f503 73de 	add.w	r3, r3, #444	; 0x1bc
 80037de:	681b      	ldr	r3, [r3, #0]
 80037e0:	0a1a      	lsrs	r2, r3, #8
 80037e2:	683b      	ldr	r3, [r7, #0]
 80037e4:	3305      	adds	r3, #5
 80037e6:	b2d2      	uxtb	r2, r2
 80037e8:	701a      	strb	r2, [r3, #0]
    aData[6] = (uint8_t)((CAN_RDH0R_DATA6 & hcan->Instance->sFIFOMailBox[RxFifo].RDHR) >> CAN_RDH0R_DATA6_Pos);
 80037ea:	68fb      	ldr	r3, [r7, #12]
 80037ec:	681a      	ldr	r2, [r3, #0]
 80037ee:	68bb      	ldr	r3, [r7, #8]
 80037f0:	011b      	lsls	r3, r3, #4
 80037f2:	4413      	add	r3, r2
 80037f4:	f503 73de 	add.w	r3, r3, #444	; 0x1bc
 80037f8:	681b      	ldr	r3, [r3, #0]
 80037fa:	0c1a      	lsrs	r2, r3, #16
 80037fc:	683b      	ldr	r3, [r7, #0]
 80037fe:	3306      	adds	r3, #6
 8003800:	b2d2      	uxtb	r2, r2
 8003802:	701a      	strb	r2, [r3, #0]
    aData[7] = (uint8_t)((CAN_RDH0R_DATA7 & hcan->Instance->sFIFOMailBox[RxFifo].RDHR) >> CAN_RDH0R_DATA7_Pos);
 8003804:	68fb      	ldr	r3, [r7, #12]
 8003806:	681a      	ldr	r2, [r3, #0]
 8003808:	68bb      	ldr	r3, [r7, #8]
 800380a:	011b      	lsls	r3, r3, #4
 800380c:	4413      	add	r3, r2
 800380e:	f503 73de 	add.w	r3, r3, #444	; 0x1bc
 8003812:	681b      	ldr	r3, [r3, #0]
 8003814:	0e1a      	lsrs	r2, r3, #24
 8003816:	683b      	ldr	r3, [r7, #0]
 8003818:	3307      	adds	r3, #7
 800381a:	b2d2      	uxtb	r2, r2
 800381c:	701a      	strb	r2, [r3, #0]

    /* Release the FIFO */
    if (RxFifo == CAN_RX_FIFO0) /* Rx element is assigned to Rx FIFO 0 */
 800381e:	68bb      	ldr	r3, [r7, #8]
 8003820:	2b00      	cmp	r3, #0
 8003822:	d108      	bne.n	8003836 <HAL_CAN_GetRxMessage+0x216>
    {
      /* Release RX FIFO 0 */
      SET_BIT(hcan->Instance->RF0R, CAN_RF0R_RFOM0);
 8003824:	68fb      	ldr	r3, [r7, #12]
 8003826:	681b      	ldr	r3, [r3, #0]
 8003828:	68da      	ldr	r2, [r3, #12]
 800382a:	68fb      	ldr	r3, [r7, #12]
 800382c:	681b      	ldr	r3, [r3, #0]
 800382e:	f042 0220 	orr.w	r2, r2, #32
 8003832:	60da      	str	r2, [r3, #12]
 8003834:	e007      	b.n	8003846 <HAL_CAN_GetRxMessage+0x226>
    }
    else /* Rx element is assigned to Rx FIFO 1 */
    {
      /* Release RX FIFO 1 */
      SET_BIT(hcan->Instance->RF1R, CAN_RF1R_RFOM1);
 8003836:	68fb      	ldr	r3, [r7, #12]
 8003838:	681b      	ldr	r3, [r3, #0]
 800383a:	691a      	ldr	r2, [r3, #16]
 800383c:	68fb      	ldr	r3, [r7, #12]
 800383e:	681b      	ldr	r3, [r3, #0]
 8003840:	f042 0220 	orr.w	r2, r2, #32
 8003844:	611a      	str	r2, [r3, #16]
    }

    /* Return function status */
    return HAL_OK;
 8003846:	2300      	movs	r3, #0
 8003848:	e006      	b.n	8003858 <HAL_CAN_GetRxMessage+0x238>
  }
  else
  {
    /* Update error code */
    hcan->ErrorCode |= HAL_CAN_ERROR_NOT_INITIALIZED;
 800384a:	68fb      	ldr	r3, [r7, #12]
 800384c:	6a5b      	ldr	r3, [r3, #36]	; 0x24
 800384e:	f443 2280 	orr.w	r2, r3, #262144	; 0x40000
 8003852:	68fb      	ldr	r3, [r7, #12]
 8003854:	625a      	str	r2, [r3, #36]	; 0x24

    return HAL_ERROR;
 8003856:	2301      	movs	r3, #1
  }
}
 8003858:	4618      	mov	r0, r3
 800385a:	371c      	adds	r7, #28
 800385c:	46bd      	mov	sp, r7
 800385e:	f85d 7b04 	ldr.w	r7, [sp], #4
 8003862:	4770      	bx	lr

08003864 <HAL_CAN_ActivateNotification>:
  * @param  ActiveITs indicates which interrupts will be enabled.
  *         This parameter can be any combination of @arg CAN_Interrupts.
  * @retval HAL status
  */
HAL_StatusTypeDef HAL_CAN_ActivateNotification(CAN_HandleTypeDef *hcan, uint32_t ActiveITs)
{
 8003864:	b480      	push	{r7}
 8003866:	b085      	sub	sp, #20
 8003868:	af00      	add	r7, sp, #0
 800386a:	6078      	str	r0, [r7, #4]
 800386c:	6039      	str	r1, [r7, #0]
  HAL_CAN_StateTypeDef state = hcan->State;
 800386e:	687b      	ldr	r3, [r7, #4]
 8003870:	f893 3020 	ldrb.w	r3, [r3, #32]
 8003874:	73fb      	strb	r3, [r7, #15]

  /* Check function parameters */
  assert_param(IS_CAN_IT(ActiveITs));

  if ((state == HAL_CAN_STATE_READY) ||
 8003876:	7bfb      	ldrb	r3, [r7, #15]
 8003878:	2b01      	cmp	r3, #1
 800387a:	d002      	beq.n	8003882 <HAL_CAN_ActivateNotification+0x1e>
 800387c:	7bfb      	ldrb	r3, [r7, #15]
 800387e:	2b02      	cmp	r3, #2
 8003880:	d109      	bne.n	8003896 <HAL_CAN_ActivateNotification+0x32>
      (state == HAL_CAN_STATE_LISTENING))
  {
    /* Enable the selected interrupts */
    __HAL_CAN_ENABLE_IT(hcan, ActiveITs);
 8003882:	687b      	ldr	r3, [r7, #4]
 8003884:	681b      	ldr	r3, [r3, #0]
 8003886:	6959      	ldr	r1, [r3, #20]
 8003888:	687b      	ldr	r3, [r7, #4]
 800388a:	681b      	ldr	r3, [r3, #0]
 800388c:	683a      	ldr	r2, [r7, #0]
 800388e:	430a      	orrs	r2, r1
 8003890:	615a      	str	r2, [r3, #20]

    /* Return function status */
    return HAL_OK;
 8003892:	2300      	movs	r3, #0
 8003894:	e006      	b.n	80038a4 <HAL_CAN_ActivateNotification+0x40>
  }
  else
  {
    /* Update error code */
    hcan->ErrorCode |= HAL_CAN_ERROR_NOT_INITIALIZED;
 8003896:	687b      	ldr	r3, [r7, #4]
 8003898:	6a5b      	ldr	r3, [r3, #36]	; 0x24
 800389a:	f443 2280 	orr.w	r2, r3, #262144	; 0x40000
 800389e:	687b      	ldr	r3, [r7, #4]
 80038a0:	625a      	str	r2, [r3, #36]	; 0x24

    return HAL_ERROR;
 80038a2:	2301      	movs	r3, #1
  }
}
 80038a4:	4618      	mov	r0, r3
 80038a6:	3714      	adds	r7, #20
 80038a8:	46bd      	mov	sp, r7
 80038aa:	f85d 7b04 	ldr.w	r7, [sp], #4
 80038ae:	4770      	bx	lr

080038b0 <HAL_CAN_IRQHandler>:
  * @param  hcan pointer to a CAN_HandleTypeDef structure that contains
  *         the configuration information for the specified CAN.
  * @retval None
  */
void HAL_CAN_IRQHandler(CAN_HandleTypeDef *hcan)
{
 80038b0:	b580      	push	{r7, lr}
 80038b2:	b08a      	sub	sp, #40	; 0x28
 80038b4:	af00      	add	r7, sp, #0
 80038b6:	6078      	str	r0, [r7, #4]
  uint32_t errorcode = HAL_CAN_ERROR_NONE;
 80038b8:	2300      	movs	r3, #0
 80038ba:	627b      	str	r3, [r7, #36]	; 0x24
  uint32_t interrupts = READ_REG(hcan->Instance->IER);
 80038bc:	687b      	ldr	r3, [r7, #4]
 80038be:	681b      	ldr	r3, [r3, #0]
 80038c0:	695b      	ldr	r3, [r3, #20]
 80038c2:	623b      	str	r3, [r7, #32]
  uint32_t msrflags = READ_REG(hcan->Instance->MSR);
 80038c4:	687b      	ldr	r3, [r7, #4]
 80038c6:	681b      	ldr	r3, [r3, #0]
 80038c8:	685b      	ldr	r3, [r3, #4]
 80038ca:	61fb      	str	r3, [r7, #28]
  uint32_t tsrflags = READ_REG(hcan->Instance->TSR);
 80038cc:	687b      	ldr	r3, [r7, #4]
 80038ce:	681b      	ldr	r3, [r3, #0]
 80038d0:	689b      	ldr	r3, [r3, #8]
 80038d2:	61bb      	str	r3, [r7, #24]
  uint32_t rf0rflags = READ_REG(hcan->Instance->RF0R);
 80038d4:	687b      	ldr	r3, [r7, #4]
 80038d6:	681b      	ldr	r3, [r3, #0]
 80038d8:	68db      	ldr	r3, [r3, #12]
 80038da:	617b      	str	r3, [r7, #20]
  uint32_t rf1rflags = READ_REG(hcan->Instance->RF1R);
 80038dc:	687b      	ldr	r3, [r7, #4]
 80038de:	681b      	ldr	r3, [r3, #0]
 80038e0:	691b      	ldr	r3, [r3, #16]
 80038e2:	613b      	str	r3, [r7, #16]
  uint32_t esrflags = READ_REG(hcan->Instance->ESR);
 80038e4:	687b      	ldr	r3, [r7, #4]
 80038e6:	681b      	ldr	r3, [r3, #0]
 80038e8:	699b      	ldr	r3, [r3, #24]
 80038ea:	60fb      	str	r3, [r7, #12]

  /* Transmit Mailbox empty interrupt management *****************************/
  if ((interrupts & CAN_IT_TX_MAILBOX_EMPTY) != 0U)
 80038ec:	6a3b      	ldr	r3, [r7, #32]
 80038ee:	f003 0301 	and.w	r3, r3, #1
 80038f2:	2b00      	cmp	r3, #0
 80038f4:	d07c      	beq.n	80039f0 <HAL_CAN_IRQHandler+0x140>
  {
    /* Transmit Mailbox 0 management *****************************************/
    if ((tsrflags & CAN_TSR_RQCP0) != 0U)
 80038f6:	69bb      	ldr	r3, [r7, #24]
 80038f8:	f003 0301 	and.w	r3, r3, #1
 80038fc:	2b00      	cmp	r3, #0
 80038fe:	d023      	beq.n	8003948 <HAL_CAN_IRQHandler+0x98>
    {
      /* Clear the Transmission Complete flag (and TXOK0,ALST0,TERR0 bits) */
      __HAL_CAN_CLEAR_FLAG(hcan, CAN_FLAG_RQCP0);
 8003900:	687b      	ldr	r3, [r7, #4]
 8003902:	681b      	ldr	r3, [r3, #0]
 8003904:	2201      	movs	r2, #1
 8003906:	609a      	str	r2, [r3, #8]

      if ((tsrflags & CAN_TSR_TXOK0) != 0U)
 8003908:	69bb      	ldr	r3, [r7, #24]
 800390a:	f003 0302 	and.w	r3, r3, #2
 800390e:	2b00      	cmp	r3, #0
 8003910:	d003      	beq.n	800391a <HAL_CAN_IRQHandler+0x6a>
#if USE_HAL_CAN_REGISTER_CALLBACKS == 1
        /* Call registered callback*/
        hcan->TxMailbox0CompleteCallback(hcan);
#else
        /* Call weak (surcharged) callback */
        HAL_CAN_TxMailbox0CompleteCallback(hcan);
 8003912:	6878      	ldr	r0, [r7, #4]
 8003914:	f000 f983 	bl	8003c1e <HAL_CAN_TxMailbox0CompleteCallback>
 8003918:	e016      	b.n	8003948 <HAL_CAN_IRQHandler+0x98>
#endif /* USE_HAL_CAN_REGISTER_CALLBACKS */
      }
      else
      {
        if ((tsrflags & CAN_TSR_ALST0) != 0U)
 800391a:	69bb      	ldr	r3, [r7, #24]
 800391c:	f003 0304 	and.w	r3, r3, #4
 8003920:	2b00      	cmp	r3, #0
 8003922:	d004      	beq.n	800392e <HAL_CAN_IRQHandler+0x7e>
        {
          /* Update error code */
          errorcode |= HAL_CAN_ERROR_TX_ALST0;
 8003924:	6a7b      	ldr	r3, [r7, #36]	; 0x24
 8003926:	f443 6300 	orr.w	r3, r3, #2048	; 0x800
 800392a:	627b      	str	r3, [r7, #36]	; 0x24
 800392c:	e00c      	b.n	8003948 <HAL_CAN_IRQHandler+0x98>
        }
        else if ((tsrflags & CAN_TSR_TERR0) != 0U)
 800392e:	69bb      	ldr	r3, [r7, #24]
 8003930:	f003 0308 	and.w	r3, r3, #8
 8003934:	2b00      	cmp	r3, #0
 8003936:	d004      	beq.n	8003942 <HAL_CAN_IRQHandler+0x92>
        {
          /* Update error code */
          errorcode |= HAL_CAN_ERROR_TX_TERR0;
 8003938:	6a7b      	ldr	r3, [r7, #36]	; 0x24
 800393a:	f443 5380 	orr.w	r3, r3, #4096	; 0x1000
 800393e:	627b      	str	r3, [r7, #36]	; 0x24
 8003940:	e002      	b.n	8003948 <HAL_CAN_IRQHandler+0x98>
#if USE_HAL_CAN_REGISTER_CALLBACKS == 1
          /* Call registered callback*/
          hcan->TxMailbox0AbortCallback(hcan);
#else
          /* Call weak (surcharged) callback */
          HAL_CAN_TxMailbox0AbortCallback(hcan);
 8003942:	6878      	ldr	r0, [r7, #4]
 8003944:	f000 f989 	bl	8003c5a <HAL_CAN_TxMailbox0AbortCallback>
        }
      }
    }

    /* Transmit Mailbox 1 management *****************************************/
    if ((tsrflags & CAN_TSR_RQCP1) != 0U)
 8003948:	69bb      	ldr	r3, [r7, #24]
 800394a:	f403 7380 	and.w	r3, r3, #256	; 0x100
 800394e:	2b00      	cmp	r3, #0
 8003950:	d024      	beq.n	800399c <HAL_CAN_IRQHandler+0xec>
    {
      /* Clear the Transmission Complete flag (and TXOK1,ALST1,TERR1 bits) */
      __HAL_CAN_CLEAR_FLAG(hcan, CAN_FLAG_RQCP1);
 8003952:	687b      	ldr	r3, [r7, #4]
 8003954:	681b      	ldr	r3, [r3, #0]
 8003956:	f44f 7280 	mov.w	r2, #256	; 0x100
 800395a:	609a      	str	r2, [r3, #8]

      if ((tsrflags & CAN_TSR_TXOK1) != 0U)
 800395c:	69bb      	ldr	r3, [r7, #24]
 800395e:	f403 7300 	and.w	r3, r3, #512	; 0x200
 8003962:	2b00      	cmp	r3, #0
 8003964:	d003      	beq.n	800396e <HAL_CAN_IRQHandler+0xbe>
#if USE_HAL_CAN_REGISTER_CALLBACKS == 1
        /* Call registered callback*/
        hcan->TxMailbox1CompleteCallback(hcan);
#else
        /* Call weak (surcharged) callback */
        HAL_CAN_TxMailbox1CompleteCallback(hcan);
 8003966:	6878      	ldr	r0, [r7, #4]
 8003968:	f000 f963 	bl	8003c32 <HAL_CAN_TxMailbox1CompleteCallback>
 800396c:	e016      	b.n	800399c <HAL_CAN_IRQHandler+0xec>
#endif /* USE_HAL_CAN_REGISTER_CALLBACKS */
      }
      else
      {
        if ((tsrflags & CAN_TSR_ALST1) != 0U)
 800396e:	69bb      	ldr	r3, [r7, #24]
 8003970:	f403 6380 	and.w	r3, r3, #1024	; 0x400
 8003974:	2b00      	cmp	r3, #0
 8003976:	d004      	beq.n	8003982 <HAL_CAN_IRQHandler+0xd2>
        {
          /* Update error code */
          errorcode |= HAL_CAN_ERROR_TX_ALST1;
 8003978:	6a7b      	ldr	r3, [r7, #36]	; 0x24
 800397a:	f443 5300 	orr.w	r3, r3, #8192	; 0x2000
 800397e:	627b      	str	r3, [r7, #36]	; 0x24
 8003980:	e00c      	b.n	800399c <HAL_CAN_IRQHandler+0xec>
        }
        else if ((tsrflags & CAN_TSR_TERR1) != 0U)
 8003982:	69bb      	ldr	r3, [r7, #24]
 8003984:	f403 6300 	and.w	r3, r3, #2048	; 0x800
 8003988:	2b00      	cmp	r3, #0
 800398a:	d004      	beq.n	8003996 <HAL_CAN_IRQHandler+0xe6>
        {
          /* Update error code */
          errorcode |= HAL_CAN_ERROR_TX_TERR1;
 800398c:	6a7b      	ldr	r3, [r7, #36]	; 0x24
 800398e:	f443 4380 	orr.w	r3, r3, #16384	; 0x4000
 8003992:	627b      	str	r3, [r7, #36]	; 0x24
 8003994:	e002      	b.n	800399c <HAL_CAN_IRQHandler+0xec>
#if USE_HAL_CAN_REGISTER_CALLBACKS == 1
          /* Call registered callback*/
          hcan->TxMailbox1AbortCallback(hcan);
#else
          /* Call weak (surcharged) callback */
          HAL_CAN_TxMailbox1AbortCallback(hcan);
 8003996:	6878      	ldr	r0, [r7, #4]
 8003998:	f000 f969 	bl	8003c6e <HAL_CAN_TxMailbox1AbortCallback>
        }
      }
    }

    /* Transmit Mailbox 2 management *****************************************/
    if ((tsrflags & CAN_TSR_RQCP2) != 0U)
 800399c:	69bb      	ldr	r3, [r7, #24]
 800399e:	f403 3380 	and.w	r3, r3, #65536	; 0x10000
 80039a2:	2b00      	cmp	r3, #0
 80039a4:	d024      	beq.n	80039f0 <HAL_CAN_IRQHandler+0x140>
    {
      /* Clear the Transmission Complete flag (and TXOK2,ALST2,TERR2 bits) */
      __HAL_CAN_CLEAR_FLAG(hcan, CAN_FLAG_RQCP2);
 80039a6:	687b      	ldr	r3, [r7, #4]
 80039a8:	681b      	ldr	r3, [r3, #0]
 80039aa:	f44f 3280 	mov.w	r2, #65536	; 0x10000
 80039ae:	609a      	str	r2, [r3, #8]

      if ((tsrflags & CAN_TSR_TXOK2) != 0U)
 80039b0:	69bb      	ldr	r3, [r7, #24]
 80039b2:	f403 3300 	and.w	r3, r3, #131072	; 0x20000
 80039b6:	2b00      	cmp	r3, #0
 80039b8:	d003      	beq.n	80039c2 <HAL_CAN_IRQHandler+0x112>
#if USE_HAL_CAN_REGISTER_CALLBACKS == 1
        /* Call registered callback*/
        hcan->TxMailbox2CompleteCallback(hcan);
#else
        /* Call weak (surcharged) callback */
        HAL_CAN_TxMailbox2CompleteCallback(hcan);
 80039ba:	6878      	ldr	r0, [r7, #4]
 80039bc:	f000 f943 	bl	8003c46 <HAL_CAN_TxMailbox2CompleteCallback>
 80039c0:	e016      	b.n	80039f0 <HAL_CAN_IRQHandler+0x140>
#endif /* USE_HAL_CAN_REGISTER_CALLBACKS */
      }
      else
      {
        if ((tsrflags & CAN_TSR_ALST2) != 0U)
 80039c2:	69bb      	ldr	r3, [r7, #24]
 80039c4:	f403 2380 	and.w	r3, r3, #262144	; 0x40000
 80039c8:	2b00      	cmp	r3, #0
 80039ca:	d004      	beq.n	80039d6 <HAL_CAN_IRQHandler+0x126>
        {
          /* Update error code */
          errorcode |= HAL_CAN_ERROR_TX_ALST2;
 80039cc:	6a7b      	ldr	r3, [r7, #36]	; 0x24
 80039ce:	f443 4300 	orr.w	r3, r3, #32768	; 0x8000
 80039d2:	627b      	str	r3, [r7, #36]	; 0x24
 80039d4:	e00c      	b.n	80039f0 <HAL_CAN_IRQHandler+0x140>
        }
        else if ((tsrflags & CAN_TSR_TERR2) != 0U)
 80039d6:	69bb      	ldr	r3, [r7, #24]
 80039d8:	f403 2300 	and.w	r3, r3, #524288	; 0x80000
 80039dc:	2b00      	cmp	r3, #0
 80039de:	d004      	beq.n	80039ea <HAL_CAN_IRQHandler+0x13a>
        {
          /* Update error code */
          errorcode |= HAL_CAN_ERROR_TX_TERR2;
 80039e0:	6a7b      	ldr	r3, [r7, #36]	; 0x24
 80039e2:	f443 3380 	orr.w	r3, r3, #65536	; 0x10000
 80039e6:	627b      	str	r3, [r7, #36]	; 0x24
 80039e8:	e002      	b.n	80039f0 <HAL_CAN_IRQHandler+0x140>
#if USE_HAL_CAN_REGISTER_CALLBACKS == 1
          /* Call registered callback*/
          hcan->TxMailbox2AbortCallback(hcan);
#else
          /* Call weak (surcharged) callback */
          HAL_CAN_TxMailbox2AbortCallback(hcan);
 80039ea:	6878      	ldr	r0, [r7, #4]
 80039ec:	f000 f949 	bl	8003c82 <HAL_CAN_TxMailbox2AbortCallback>
      }
    }
  }

  /* Receive FIFO 0 overrun interrupt management *****************************/
  if ((interrupts & CAN_IT_RX_FIFO0_OVERRUN) != 0U)
 80039f0:	6a3b      	ldr	r3, [r7, #32]
 80039f2:	f003 0308 	and.w	r3, r3, #8
 80039f6:	2b00      	cmp	r3, #0
 80039f8:	d00c      	beq.n	8003a14 <HAL_CAN_IRQHandler+0x164>
  {
    if ((rf0rflags & CAN_RF0R_FOVR0) != 0U)
 80039fa:	697b      	ldr	r3, [r7, #20]
 80039fc:	f003 0310 	and.w	r3, r3, #16
 8003a00:	2b00      	cmp	r3, #0
 8003a02:	d007      	beq.n	8003a14 <HAL_CAN_IRQHandler+0x164>
    {
      /* Set CAN error code to Rx Fifo 0 overrun error */
      errorcode |= HAL_CAN_ERROR_RX_FOV0;
 8003a04:	6a7b      	ldr	r3, [r7, #36]	; 0x24
 8003a06:	f443 7300 	orr.w	r3, r3, #512	; 0x200
 8003a0a:	627b      	str	r3, [r7, #36]	; 0x24

      /* Clear FIFO0 Overrun Flag */
      __HAL_CAN_CLEAR_FLAG(hcan, CAN_FLAG_FOV0);
 8003a0c:	687b      	ldr	r3, [r7, #4]
 8003a0e:	681b      	ldr	r3, [r3, #0]
 8003a10:	2210      	movs	r2, #16
 8003a12:	60da      	str	r2, [r3, #12]
    }
  }

  /* Receive FIFO 0 full interrupt management ********************************/
  if ((interrupts & CAN_IT_RX_FIFO0_FULL) != 0U)
 8003a14:	6a3b      	ldr	r3, [r7, #32]
 8003a16:	f003 0304 	and.w	r3, r3, #4
 8003a1a:	2b00      	cmp	r3, #0
 8003a1c:	d00b      	beq.n	8003a36 <HAL_CAN_IRQHandler+0x186>
  {
    if ((rf0rflags & CAN_RF0R_FULL0) != 0U)
 8003a1e:	697b      	ldr	r3, [r7, #20]
 8003a20:	f003 0308 	and.w	r3, r3, #8
 8003a24:	2b00      	cmp	r3, #0
 8003a26:	d006      	beq.n	8003a36 <HAL_CAN_IRQHandler+0x186>
    {
      /* Clear FIFO 0 full Flag */
      __HAL_CAN_CLEAR_FLAG(hcan, CAN_FLAG_FF0);
 8003a28:	687b      	ldr	r3, [r7, #4]
 8003a2a:	681b      	ldr	r3, [r3, #0]
 8003a2c:	2208      	movs	r2, #8
 8003a2e:	60da      	str	r2, [r3, #12]
#if USE_HAL_CAN_REGISTER_CALLBACKS == 1
      /* Call registered callback*/
      hcan->RxFifo0FullCallback(hcan);
#else
      /* Call weak (surcharged) callback */
      HAL_CAN_RxFifo0FullCallback(hcan);
 8003a30:	6878      	ldr	r0, [r7, #4]
 8003a32:	f000 f930 	bl	8003c96 <HAL_CAN_RxFifo0FullCallback>
#endif /* USE_HAL_CAN_REGISTER_CALLBACKS */
    }
  }

  /* Receive FIFO 0 message pending interrupt management *********************/
  if ((interrupts & CAN_IT_RX_FIFO0_MSG_PENDING) != 0U)
 8003a36:	6a3b      	ldr	r3, [r7, #32]
 8003a38:	f003 0302 	and.w	r3, r3, #2
 8003a3c:	2b00      	cmp	r3, #0
 8003a3e:	d009      	beq.n	8003a54 <HAL_CAN_IRQHandler+0x1a4>
  {
    /* Check if message is still pending */
    if ((hcan->Instance->RF0R & CAN_RF0R_FMP0) != 0U)
 8003a40:	687b      	ldr	r3, [r7, #4]
 8003a42:	681b      	ldr	r3, [r3, #0]
 8003a44:	68db      	ldr	r3, [r3, #12]
 8003a46:	f003 0303 	and.w	r3, r3, #3
 8003a4a:	2b00      	cmp	r3, #0
 8003a4c:	d002      	beq.n	8003a54 <HAL_CAN_IRQHandler+0x1a4>
#if USE_HAL_CAN_REGISTER_CALLBACKS == 1
      /* Call registered callback*/
      hcan->RxFifo0MsgPendingCallback(hcan);
#else
      /* Call weak (surcharged) callback */
      HAL_CAN_RxFifo0MsgPendingCallback(hcan);
 8003a4e:	6878      	ldr	r0, [r7, #4]
 8003a50:	f7ff f958 	bl	8002d04 <HAL_CAN_RxFifo0MsgPendingCallback>
#endif /* USE_HAL_CAN_REGISTER_CALLBACKS */
    }
  }

  /* Receive FIFO 1 overrun interrupt management *****************************/
  if ((interrupts & CAN_IT_RX_FIFO1_OVERRUN) != 0U)
 8003a54:	6a3b      	ldr	r3, [r7, #32]
 8003a56:	f003 0340 	and.w	r3, r3, #64	; 0x40
 8003a5a:	2b00      	cmp	r3, #0
 8003a5c:	d00c      	beq.n	8003a78 <HAL_CAN_IRQHandler+0x1c8>
  {
    if ((rf1rflags & CAN_RF1R_FOVR1) != 0U)
 8003a5e:	693b      	ldr	r3, [r7, #16]
 8003a60:	f003 0310 	and.w	r3, r3, #16
 8003a64:	2b00      	cmp	r3, #0
 8003a66:	d007      	beq.n	8003a78 <HAL_CAN_IRQHandler+0x1c8>
    {
      /* Set CAN error code to Rx Fifo 1 overrun error */
      errorcode |= HAL_CAN_ERROR_RX_FOV1;
 8003a68:	6a7b      	ldr	r3, [r7, #36]	; 0x24
 8003a6a:	f443 6380 	orr.w	r3, r3, #1024	; 0x400
 8003a6e:	627b      	str	r3, [r7, #36]	; 0x24

      /* Clear FIFO1 Overrun Flag */
      __HAL_CAN_CLEAR_FLAG(hcan, CAN_FLAG_FOV1);
 8003a70:	687b      	ldr	r3, [r7, #4]
 8003a72:	681b      	ldr	r3, [r3, #0]
 8003a74:	2210      	movs	r2, #16
 8003a76:	611a      	str	r2, [r3, #16]
    }
  }

  /* Receive FIFO 1 full interrupt management ********************************/
  if ((interrupts & CAN_IT_RX_FIFO1_FULL) != 0U)
 8003a78:	6a3b      	ldr	r3, [r7, #32]
 8003a7a:	f003 0320 	and.w	r3, r3, #32
 8003a7e:	2b00      	cmp	r3, #0
 8003a80:	d00b      	beq.n	8003a9a <HAL_CAN_IRQHandler+0x1ea>
  {
    if ((rf1rflags & CAN_RF1R_FULL1) != 0U)
 8003a82:	693b      	ldr	r3, [r7, #16]
 8003a84:	f003 0308 	and.w	r3, r3, #8
 8003a88:	2b00      	cmp	r3, #0
 8003a8a:	d006      	beq.n	8003a9a <HAL_CAN_IRQHandler+0x1ea>
    {
      /* Clear FIFO 1 full Flag */
      __HAL_CAN_CLEAR_FLAG(hcan, CAN_FLAG_FF1);
 8003a8c:	687b      	ldr	r3, [r7, #4]
 8003a8e:	681b      	ldr	r3, [r3, #0]
 8003a90:	2208      	movs	r2, #8
 8003a92:	611a      	str	r2, [r3, #16]
#if USE_HAL_CAN_REGISTER_CALLBACKS == 1
      /* Call registered callback*/
      hcan->RxFifo1FullCallback(hcan);
#else
      /* Call weak (surcharged) callback */
      HAL_CAN_RxFifo1FullCallback(hcan);
 8003a94:	6878      	ldr	r0, [r7, #4]
 8003a96:	f000 f912 	bl	8003cbe <HAL_CAN_RxFifo1FullCallback>
#endif /* USE_HAL_CAN_REGISTER_CALLBACKS */
    }
  }

  /* Receive FIFO 1 message pending interrupt management *********************/
  if ((interrupts & CAN_IT_RX_FIFO1_MSG_PENDING) != 0U)
 8003a9a:	6a3b      	ldr	r3, [r7, #32]
 8003a9c:	f003 0310 	and.w	r3, r3, #16
 8003aa0:	2b00      	cmp	r3, #0
 8003aa2:	d009      	beq.n	8003ab8 <HAL_CAN_IRQHandler+0x208>
  {
    /* Check if message is still pending */
    if ((hcan->Instance->RF1R & CAN_RF1R_FMP1) != 0U)
 8003aa4:	687b      	ldr	r3, [r7, #4]
 8003aa6:	681b      	ldr	r3, [r3, #0]
 8003aa8:	691b      	ldr	r3, [r3, #16]
 8003aaa:	f003 0303 	and.w	r3, r3, #3
 8003aae:	2b00      	cmp	r3, #0
 8003ab0:	d002      	beq.n	8003ab8 <HAL_CAN_IRQHandler+0x208>
#if USE_HAL_CAN_REGISTER_CALLBACKS == 1
      /* Call registered callback*/
      hcan->RxFifo1MsgPendingCallback(hcan);
#else
      /* Call weak (surcharged) callback */
      HAL_CAN_RxFifo1MsgPendingCallback(hcan);
 8003ab2:	6878      	ldr	r0, [r7, #4]
 8003ab4:	f000 f8f9 	bl	8003caa <HAL_CAN_RxFifo1MsgPendingCallback>
#endif /* USE_HAL_CAN_REGISTER_CALLBACKS */
    }
  }

  /* Sleep interrupt management *********************************************/
  if ((interrupts & CAN_IT_SLEEP_ACK) != 0U)
 8003ab8:	6a3b      	ldr	r3, [r7, #32]
 8003aba:	f403 3300 	and.w	r3, r3, #131072	; 0x20000
 8003abe:	2b00      	cmp	r3, #0
 8003ac0:	d00b      	beq.n	8003ada <HAL_CAN_IRQHandler+0x22a>
  {
    if ((msrflags & CAN_MSR_SLAKI) != 0U)
 8003ac2:	69fb      	ldr	r3, [r7, #28]
 8003ac4:	f003 0310 	and.w	r3, r3, #16
 8003ac8:	2b00      	cmp	r3, #0
 8003aca:	d006      	beq.n	8003ada <HAL_CAN_IRQHandler+0x22a>
    {
      /* Clear Sleep interrupt Flag */
      __HAL_CAN_CLEAR_FLAG(hcan, CAN_FLAG_SLAKI);
 8003acc:	687b      	ldr	r3, [r7, #4]
 8003ace:	681b      	ldr	r3, [r3, #0]
 8003ad0:	2210      	movs	r2, #16
 8003ad2:	605a      	str	r2, [r3, #4]
#if USE_HAL_CAN_REGISTER_CALLBACKS == 1
      /* Call registered callback*/
      hcan->SleepCallback(hcan);
#else
      /* Call weak (surcharged) callback */
      HAL_CAN_SleepCallback(hcan);
 8003ad4:	6878      	ldr	r0, [r7, #4]
 8003ad6:	f000 f8fc 	bl	8003cd2 <HAL_CAN_SleepCallback>
#endif /* USE_HAL_CAN_REGISTER_CALLBACKS */
    }
  }

  /* WakeUp interrupt management *********************************************/
  if ((interrupts & CAN_IT_WAKEUP) != 0U)
 8003ada:	6a3b      	ldr	r3, [r7, #32]
 8003adc:	f403 3380 	and.w	r3, r3, #65536	; 0x10000
 8003ae0:	2b00      	cmp	r3, #0
 8003ae2:	d00b      	beq.n	8003afc <HAL_CAN_IRQHandler+0x24c>
  {
    if ((msrflags & CAN_MSR_WKUI) != 0U)
 8003ae4:	69fb      	ldr	r3, [r7, #28]
 8003ae6:	f003 0308 	and.w	r3, r3, #8
 8003aea:	2b00      	cmp	r3, #0
 8003aec:	d006      	beq.n	8003afc <HAL_CAN_IRQHandler+0x24c>
    {
      /* Clear WakeUp Flag */
      __HAL_CAN_CLEAR_FLAG(hcan, CAN_FLAG_WKU);
 8003aee:	687b      	ldr	r3, [r7, #4]
 8003af0:	681b      	ldr	r3, [r3, #0]
 8003af2:	2208      	movs	r2, #8
 8003af4:	605a      	str	r2, [r3, #4]
#if USE_HAL_CAN_REGISTER_CALLBACKS == 1
      /* Call registered callback*/
      hcan->WakeUpFromRxMsgCallback(hcan);
#else
      /* Call weak (surcharged) callback */
      HAL_CAN_WakeUpFromRxMsgCallback(hcan);
 8003af6:	6878      	ldr	r0, [r7, #4]
 8003af8:	f000 f8f5 	bl	8003ce6 <HAL_CAN_WakeUpFromRxMsgCallback>
#endif /* USE_HAL_CAN_REGISTER_CALLBACKS */
    }
  }

  /* Error interrupts management *********************************************/
  if ((interrupts & CAN_IT_ERROR) != 0U)
 8003afc:	6a3b      	ldr	r3, [r7, #32]
 8003afe:	f403 4300 	and.w	r3, r3, #32768	; 0x8000
 8003b02:	2b00      	cmp	r3, #0
 8003b04:	d07b      	beq.n	8003bfe <HAL_CAN_IRQHandler+0x34e>
  {
    if ((msrflags & CAN_MSR_ERRI) != 0U)
 8003b06:	69fb      	ldr	r3, [r7, #28]
 8003b08:	f003 0304 	and.w	r3, r3, #4
 8003b0c:	2b00      	cmp	r3, #0
 8003b0e:	d072      	beq.n	8003bf6 <HAL_CAN_IRQHandler+0x346>
    {
      /* Check Error Warning Flag */
      if (((interrupts & CAN_IT_ERROR_WARNING) != 0U) &&
 8003b10:	6a3b      	ldr	r3, [r7, #32]
 8003b12:	f403 7380 	and.w	r3, r3, #256	; 0x100
 8003b16:	2b00      	cmp	r3, #0
 8003b18:	d008      	beq.n	8003b2c <HAL_CAN_IRQHandler+0x27c>
          ((esrflags & CAN_ESR_EWGF) != 0U))
 8003b1a:	68fb      	ldr	r3, [r7, #12]
 8003b1c:	f003 0301 	and.w	r3, r3, #1
      if (((interrupts & CAN_IT_ERROR_WARNING) != 0U) &&
 8003b20:	2b00      	cmp	r3, #0
 8003b22:	d003      	beq.n	8003b2c <HAL_CAN_IRQHandler+0x27c>
      {
        /* Set CAN error code to Error Warning */
        errorcode |= HAL_CAN_ERROR_EWG;
 8003b24:	6a7b      	ldr	r3, [r7, #36]	; 0x24
 8003b26:	f043 0301 	orr.w	r3, r3, #1
 8003b2a:	627b      	str	r3, [r7, #36]	; 0x24

        /* No need for clear of Error Warning Flag as read-only */
      }

      /* Check Error Passive Flag */
      if (((interrupts & CAN_IT_ERROR_PASSIVE) != 0U) &&
 8003b2c:	6a3b      	ldr	r3, [r7, #32]
 8003b2e:	f403 7300 	and.w	r3, r3, #512	; 0x200
 8003b32:	2b00      	cmp	r3, #0
 8003b34:	d008      	beq.n	8003b48 <HAL_CAN_IRQHandler+0x298>
          ((esrflags & CAN_ESR_EPVF) != 0U))
 8003b36:	68fb      	ldr	r3, [r7, #12]
 8003b38:	f003 0302 	and.w	r3, r3, #2
      if (((interrupts & CAN_IT_ERROR_PASSIVE) != 0U) &&
 8003b3c:	2b00      	cmp	r3, #0
 8003b3e:	d003      	beq.n	8003b48 <HAL_CAN_IRQHandler+0x298>
      {
        /* Set CAN error code to Error Passive */
        errorcode |= HAL_CAN_ERROR_EPV;
 8003b40:	6a7b      	ldr	r3, [r7, #36]	; 0x24
 8003b42:	f043 0302 	orr.w	r3, r3, #2
 8003b46:	627b      	str	r3, [r7, #36]	; 0x24

        /* No need for clear of Error Passive Flag as read-only */
      }

      /* Check Bus-off Flag */
      if (((interrupts & CAN_IT_BUSOFF) != 0U) &&
 8003b48:	6a3b      	ldr	r3, [r7, #32]
 8003b4a:	f403 6380 	and.w	r3, r3, #1024	; 0x400
 8003b4e:	2b00      	cmp	r3, #0
 8003b50:	d008      	beq.n	8003b64 <HAL_CAN_IRQHandler+0x2b4>
          ((esrflags & CAN_ESR_BOFF) != 0U))
 8003b52:	68fb      	ldr	r3, [r7, #12]
 8003b54:	f003 0304 	and.w	r3, r3, #4
      if (((interrupts & CAN_IT_BUSOFF) != 0U) &&
 8003b58:	2b00      	cmp	r3, #0
 8003b5a:	d003      	beq.n	8003b64 <HAL_CAN_IRQHandler+0x2b4>
      {
        /* Set CAN error code to Bus-Off */
        errorcode |= HAL_CAN_ERROR_BOF;
 8003b5c:	6a7b      	ldr	r3, [r7, #36]	; 0x24
 8003b5e:	f043 0304 	orr.w	r3, r3, #4
 8003b62:	627b      	str	r3, [r7, #36]	; 0x24

        /* No need for clear of Error Bus-Off as read-only */
      }

      /* Check Last Error Code Flag */
      if (((interrupts & CAN_IT_LAST_ERROR_CODE) != 0U) &&
 8003b64:	6a3b      	ldr	r3, [r7, #32]
 8003b66:	f403 6300 	and.w	r3, r3, #2048	; 0x800
 8003b6a:	2b00      	cmp	r3, #0
 8003b6c:	d043      	beq.n	8003bf6 <HAL_CAN_IRQHandler+0x346>
          ((esrflags & CAN_ESR_LEC) != 0U))
 8003b6e:	68fb      	ldr	r3, [r7, #12]
 8003b70:	f003 0370 	and.w	r3, r3, #112	; 0x70
      if (((interrupts & CAN_IT_LAST_ERROR_CODE) != 0U) &&
 8003b74:	2b00      	cmp	r3, #0
 8003b76:	d03e      	beq.n	8003bf6 <HAL_CAN_IRQHandler+0x346>
      {
        switch (esrflags & CAN_ESR_LEC)
 8003b78:	68fb      	ldr	r3, [r7, #12]
 8003b7a:	f003 0370 	and.w	r3, r3, #112	; 0x70
 8003b7e:	2b60      	cmp	r3, #96	; 0x60
 8003b80:	d02b      	beq.n	8003bda <HAL_CAN_IRQHandler+0x32a>
 8003b82:	2b60      	cmp	r3, #96	; 0x60
 8003b84:	d82e      	bhi.n	8003be4 <HAL_CAN_IRQHandler+0x334>
 8003b86:	2b50      	cmp	r3, #80	; 0x50
 8003b88:	d022      	beq.n	8003bd0 <HAL_CAN_IRQHandler+0x320>
 8003b8a:	2b50      	cmp	r3, #80	; 0x50
 8003b8c:	d82a      	bhi.n	8003be4 <HAL_CAN_IRQHandler+0x334>
 8003b8e:	2b40      	cmp	r3, #64	; 0x40
 8003b90:	d019      	beq.n	8003bc6 <HAL_CAN_IRQHandler+0x316>
 8003b92:	2b40      	cmp	r3, #64	; 0x40
 8003b94:	d826      	bhi.n	8003be4 <HAL_CAN_IRQHandler+0x334>
 8003b96:	2b30      	cmp	r3, #48	; 0x30
 8003b98:	d010      	beq.n	8003bbc <HAL_CAN_IRQHandler+0x30c>
 8003b9a:	2b30      	cmp	r3, #48	; 0x30
 8003b9c:	d822      	bhi.n	8003be4 <HAL_CAN_IRQHandler+0x334>
 8003b9e:	2b10      	cmp	r3, #16
 8003ba0:	d002      	beq.n	8003ba8 <HAL_CAN_IRQHandler+0x2f8>
 8003ba2:	2b20      	cmp	r3, #32
 8003ba4:	d005      	beq.n	8003bb2 <HAL_CAN_IRQHandler+0x302>
          case (CAN_ESR_LEC_2 | CAN_ESR_LEC_1):
            /* Set CAN error code to CRC error */
            errorcode |= HAL_CAN_ERROR_CRC;
            break;
          default:
            break;
 8003ba6:	e01d      	b.n	8003be4 <HAL_CAN_IRQHandler+0x334>
            errorcode |= HAL_CAN_ERROR_STF;
 8003ba8:	6a7b      	ldr	r3, [r7, #36]	; 0x24
 8003baa:	f043 0308 	orr.w	r3, r3, #8
 8003bae:	627b      	str	r3, [r7, #36]	; 0x24
            break;
 8003bb0:	e019      	b.n	8003be6 <HAL_CAN_IRQHandler+0x336>
            errorcode |= HAL_CAN_ERROR_FOR;
 8003bb2:	6a7b      	ldr	r3, [r7, #36]	; 0x24
 8003bb4:	f043 0310 	orr.w	r3, r3, #16
 8003bb8:	627b      	str	r3, [r7, #36]	; 0x24
            break;
 8003bba:	e014      	b.n	8003be6 <HAL_CAN_IRQHandler+0x336>
            errorcode |= HAL_CAN_ERROR_ACK;
 8003bbc:	6a7b      	ldr	r3, [r7, #36]	; 0x24
 8003bbe:	f043 0320 	orr.w	r3, r3, #32
 8003bc2:	627b      	str	r3, [r7, #36]	; 0x24
            break;
 8003bc4:	e00f      	b.n	8003be6 <HAL_CAN_IRQHandler+0x336>
            errorcode |= HAL_CAN_ERROR_BR;
 8003bc6:	6a7b      	ldr	r3, [r7, #36]	; 0x24
 8003bc8:	f043 0340 	orr.w	r3, r3, #64	; 0x40
 8003bcc:	627b      	str	r3, [r7, #36]	; 0x24
            break;
 8003bce:	e00a      	b.n	8003be6 <HAL_CAN_IRQHandler+0x336>
            errorcode |= HAL_CAN_ERROR_BD;
 8003bd0:	6a7b      	ldr	r3, [r7, #36]	; 0x24
 8003bd2:	f043 0380 	orr.w	r3, r3, #128	; 0x80
 8003bd6:	627b      	str	r3, [r7, #36]	; 0x24
            break;
 8003bd8:	e005      	b.n	8003be6 <HAL_CAN_IRQHandler+0x336>
            errorcode |= HAL_CAN_ERROR_CRC;
 8003bda:	6a7b      	ldr	r3, [r7, #36]	; 0x24
 8003bdc:	f443 7380 	orr.w	r3, r3, #256	; 0x100
 8003be0:	627b      	str	r3, [r7, #36]	; 0x24
            break;
 8003be2:	e000      	b.n	8003be6 <HAL_CAN_IRQHandler+0x336>
            break;
 8003be4:	bf00      	nop
        }

        /* Clear Last error code Flag */
        CLEAR_BIT(hcan->Instance->ESR, CAN_ESR_LEC);
 8003be6:	687b      	ldr	r3, [r7, #4]
 8003be8:	681b      	ldr	r3, [r3, #0]
 8003bea:	699a      	ldr	r2, [r3, #24]
 8003bec:	687b      	ldr	r3, [r7, #4]
 8003bee:	681b      	ldr	r3, [r3, #0]
 8003bf0:	f022 0270 	bic.w	r2, r2, #112	; 0x70
 8003bf4:	619a      	str	r2, [r3, #24]
      }
    }

    /* Clear ERRI Flag */
    __HAL_CAN_CLEAR_FLAG(hcan, CAN_FLAG_ERRI);
 8003bf6:	687b      	ldr	r3, [r7, #4]
 8003bf8:	681b      	ldr	r3, [r3, #0]
 8003bfa:	2204      	movs	r2, #4
 8003bfc:	605a      	str	r2, [r3, #4]
  }

  /* Call the Error call Back in case of Errors */
  if (errorcode != HAL_CAN_ERROR_NONE)
 8003bfe:	6a7b      	ldr	r3, [r7, #36]	; 0x24
 8003c00:	2b00      	cmp	r3, #0
 8003c02:	d008      	beq.n	8003c16 <HAL_CAN_IRQHandler+0x366>
  {
    /* Update error code in handle */
    hcan->ErrorCode |= errorcode;
 8003c04:	687b      	ldr	r3, [r7, #4]
 8003c06:	6a5a      	ldr	r2, [r3, #36]	; 0x24
 8003c08:	6a7b      	ldr	r3, [r7, #36]	; 0x24
 8003c0a:	431a      	orrs	r2, r3
 8003c0c:	687b      	ldr	r3, [r7, #4]
 8003c0e:	625a      	str	r2, [r3, #36]	; 0x24
#if USE_HAL_CAN_REGISTER_CALLBACKS == 1
    /* Call registered callback*/
    hcan->ErrorCallback(hcan);
#else
    /* Call weak (surcharged) callback */
    HAL_CAN_ErrorCallback(hcan);
 8003c10:	6878      	ldr	r0, [r7, #4]
 8003c12:	f000 f872 	bl	8003cfa <HAL_CAN_ErrorCallback>
#endif /* USE_HAL_CAN_REGISTER_CALLBACKS */
  }
}
 8003c16:	bf00      	nop
 8003c18:	3728      	adds	r7, #40	; 0x28
 8003c1a:	46bd      	mov	sp, r7
 8003c1c:	bd80      	pop	{r7, pc}

08003c1e <HAL_CAN_TxMailbox0CompleteCallback>:
  * @param  hcan pointer to a CAN_HandleTypeDef structure that contains
  *         the configuration information for the specified CAN.
  * @retval None
  */
__weak void HAL_CAN_TxMailbox0CompleteCallback(CAN_HandleTypeDef *hcan)
{
 8003c1e:	b480      	push	{r7}
 8003c20:	b083      	sub	sp, #12
 8003c22:	af00      	add	r7, sp, #0
 8003c24:	6078      	str	r0, [r7, #4]

  /* NOTE : This function Should not be modified, when the callback is needed,
            the HAL_CAN_TxMailbox0CompleteCallback could be implemented in the
            user file
   */
}
 8003c26:	bf00      	nop
 8003c28:	370c      	adds	r7, #12
 8003c2a:	46bd      	mov	sp, r7
 8003c2c:	f85d 7b04 	ldr.w	r7, [sp], #4
 8003c30:	4770      	bx	lr

08003c32 <HAL_CAN_TxMailbox1CompleteCallback>:
  * @param  hcan pointer to a CAN_HandleTypeDef structure that contains
  *         the configuration information for the specified CAN.
  * @retval None
  */
__weak void HAL_CAN_TxMailbox1CompleteCallback(CAN_HandleTypeDef *hcan)
{
 8003c32:	b480      	push	{r7}
 8003c34:	b083      	sub	sp, #12
 8003c36:	af00      	add	r7, sp, #0
 8003c38:	6078      	str	r0, [r7, #4]

  /* NOTE : This function Should not be modified, when the callback is needed,
            the HAL_CAN_TxMailbox1CompleteCallback could be implemented in the
            user file
   */
}
 8003c3a:	bf00      	nop
 8003c3c:	370c      	adds	r7, #12
 8003c3e:	46bd      	mov	sp, r7
 8003c40:	f85d 7b04 	ldr.w	r7, [sp], #4
 8003c44:	4770      	bx	lr

08003c46 <HAL_CAN_TxMailbox2CompleteCallback>:
  * @param  hcan pointer to a CAN_HandleTypeDef structure that contains
  *         the configuration information for the specified CAN.
  * @retval None
  */
__weak void HAL_CAN_TxMailbox2CompleteCallback(CAN_HandleTypeDef *hcan)
{
 8003c46:	b480      	push	{r7}
 8003c48:	b083      	sub	sp, #12
 8003c4a:	af00      	add	r7, sp, #0
 8003c4c:	6078      	str	r0, [r7, #4]

  /* NOTE : This function Should not be modified, when the callback is needed,
            the HAL_CAN_TxMailbox2CompleteCallback could be implemented in the
            user file
   */
}
 8003c4e:	bf00      	nop
 8003c50:	370c      	adds	r7, #12
 8003c52:	46bd      	mov	sp, r7
 8003c54:	f85d 7b04 	ldr.w	r7, [sp], #4
 8003c58:	4770      	bx	lr

08003c5a <HAL_CAN_TxMailbox0AbortCallback>:
  * @param  hcan pointer to an CAN_HandleTypeDef structure that contains
  *         the configuration information for the specified CAN.
  * @retval None
  */
__weak void HAL_CAN_TxMailbox0AbortCallback(CAN_HandleTypeDef *hcan)
{
 8003c5a:	b480      	push	{r7}
 8003c5c:	b083      	sub	sp, #12
 8003c5e:	af00      	add	r7, sp, #0
 8003c60:	6078      	str	r0, [r7, #4]

  /* NOTE : This function Should not be modified, when the callback is needed,
            the HAL_CAN_TxMailbox0AbortCallback could be implemented in the
            user file
   */
}
 8003c62:	bf00      	nop
 8003c64:	370c      	adds	r7, #12
 8003c66:	46bd      	mov	sp, r7
 8003c68:	f85d 7b04 	ldr.w	r7, [sp], #4
 8003c6c:	4770      	bx	lr

08003c6e <HAL_CAN_TxMailbox1AbortCallback>:
  * @param  hcan pointer to an CAN_HandleTypeDef structure that contains
  *         the configuration information for the specified CAN.
  * @retval None
  */
__weak void HAL_CAN_TxMailbox1AbortCallback(CAN_HandleTypeDef *hcan)
{
 8003c6e:	b480      	push	{r7}
 8003c70:	b083      	sub	sp, #12
 8003c72:	af00      	add	r7, sp, #0
 8003c74:	6078      	str	r0, [r7, #4]

  /* NOTE : This function Should not be modified, when the callback is needed,
            the HAL_CAN_TxMailbox1AbortCallback could be implemented in the
            user file
   */
}
 8003c76:	bf00      	nop
 8003c78:	370c      	adds	r7, #12
 8003c7a:	46bd      	mov	sp, r7
 8003c7c:	f85d 7b04 	ldr.w	r7, [sp], #4
 8003c80:	4770      	bx	lr

08003c82 <HAL_CAN_TxMailbox2AbortCallback>:
  * @param  hcan pointer to an CAN_HandleTypeDef structure that contains
  *         the configuration information for the specified CAN.
  * @retval None
  */
__weak void HAL_CAN_TxMailbox2AbortCallback(CAN_HandleTypeDef *hcan)
{
 8003c82:	b480      	push	{r7}
 8003c84:	b083      	sub	sp, #12
 8003c86:	af00      	add	r7, sp, #0
 8003c88:	6078      	str	r0, [r7, #4]

  /* NOTE : This function Should not be modified, when the callback is needed,
            the HAL_CAN_TxMailbox2AbortCallback could be implemented in the
            user file
   */
}
 8003c8a:	bf00      	nop
 8003c8c:	370c      	adds	r7, #12
 8003c8e:	46bd      	mov	sp, r7
 8003c90:	f85d 7b04 	ldr.w	r7, [sp], #4
 8003c94:	4770      	bx	lr

08003c96 <HAL_CAN_RxFifo0FullCallback>:
  * @param  hcan pointer to a CAN_HandleTypeDef structure that contains
  *         the configuration information for the specified CAN.
  * @retval None
  */
__weak void HAL_CAN_RxFifo0FullCallback(CAN_HandleTypeDef *hcan)
{
 8003c96:	b480      	push	{r7}
 8003c98:	b083      	sub	sp, #12
 8003c9a:	af00      	add	r7, sp, #0
 8003c9c:	6078      	str	r0, [r7, #4]

  /* NOTE : This function Should not be modified, when the callback is needed,
            the HAL_CAN_RxFifo0FullCallback could be implemented in the user
            file
   */
}
 8003c9e:	bf00      	nop
 8003ca0:	370c      	adds	r7, #12
 8003ca2:	46bd      	mov	sp, r7
 8003ca4:	f85d 7b04 	ldr.w	r7, [sp], #4
 8003ca8:	4770      	bx	lr

08003caa <HAL_CAN_RxFifo1MsgPendingCallback>:
  * @param  hcan pointer to a CAN_HandleTypeDef structure that contains
  *         the configuration information for the specified CAN.
  * @retval None
  */
__weak void HAL_CAN_RxFifo1MsgPendingCallback(CAN_HandleTypeDef *hcan)
{
 8003caa:	b480      	push	{r7}
 8003cac:	b083      	sub	sp, #12
 8003cae:	af00      	add	r7, sp, #0
 8003cb0:	6078      	str	r0, [r7, #4]

  /* NOTE : This function Should not be modified, when the callback is needed,
            the HAL_CAN_RxFifo1MsgPendingCallback could be implemented in the
            user file
   */
}
 8003cb2:	bf00      	nop
 8003cb4:	370c      	adds	r7, #12
 8003cb6:	46bd      	mov	sp, r7
 8003cb8:	f85d 7b04 	ldr.w	r7, [sp], #4
 8003cbc:	4770      	bx	lr

08003cbe <HAL_CAN_RxFifo1FullCallback>:
  * @param  hcan pointer to a CAN_HandleTypeDef structure that contains
  *         the configuration information for the specified CAN.
  * @retval None
  */
__weak void HAL_CAN_RxFifo1FullCallback(CAN_HandleTypeDef *hcan)
{
 8003cbe:	b480      	push	{r7}
 8003cc0:	b083      	sub	sp, #12
 8003cc2:	af00      	add	r7, sp, #0
 8003cc4:	6078      	str	r0, [r7, #4]

  /* NOTE : This function Should not be modified, when the callback is needed,
            the HAL_CAN_RxFifo1FullCallback could be implemented in the user
            file
   */
}
 8003cc6:	bf00      	nop
 8003cc8:	370c      	adds	r7, #12
 8003cca:	46bd      	mov	sp, r7
 8003ccc:	f85d 7b04 	ldr.w	r7, [sp], #4
 8003cd0:	4770      	bx	lr

08003cd2 <HAL_CAN_SleepCallback>:
  * @param  hcan pointer to a CAN_HandleTypeDef structure that contains
  *         the configuration information for the specified CAN.
  * @retval None
  */
__weak void HAL_CAN_SleepCallback(CAN_HandleTypeDef *hcan)
{
 8003cd2:	b480      	push	{r7}
 8003cd4:	b083      	sub	sp, #12
 8003cd6:	af00      	add	r7, sp, #0
 8003cd8:	6078      	str	r0, [r7, #4]
  UNUSED(hcan);

  /* NOTE : This function Should not be modified, when the callback is needed,
            the HAL_CAN_SleepCallback could be implemented in the user file
   */
}
 8003cda:	bf00      	nop
 8003cdc:	370c      	adds	r7, #12
 8003cde:	46bd      	mov	sp, r7
 8003ce0:	f85d 7b04 	ldr.w	r7, [sp], #4
 8003ce4:	4770      	bx	lr

08003ce6 <HAL_CAN_WakeUpFromRxMsgCallback>:
  * @param  hcan pointer to a CAN_HandleTypeDef structure that contains
  *         the configuration information for the specified CAN.
  * @retval None
  */
__weak void HAL_CAN_WakeUpFromRxMsgCallback(CAN_HandleTypeDef *hcan)
{
 8003ce6:	b480      	push	{r7}
 8003ce8:	b083      	sub	sp, #12
 8003cea:	af00      	add	r7, sp, #0
 8003cec:	6078      	str	r0, [r7, #4]

  /* NOTE : This function Should not be modified, when the callback is needed,
            the HAL_CAN_WakeUpFromRxMsgCallback could be implemented in the
            user file
   */
}
 8003cee:	bf00      	nop
 8003cf0:	370c      	adds	r7, #12
 8003cf2:	46bd      	mov	sp, r7
 8003cf4:	f85d 7b04 	ldr.w	r7, [sp], #4
 8003cf8:	4770      	bx	lr

08003cfa <HAL_CAN_ErrorCallback>:
  * @param  hcan pointer to a CAN_HandleTypeDef structure that contains
  *         the configuration information for the specified CAN.
  * @retval None
  */
__weak void HAL_CAN_ErrorCallback(CAN_HandleTypeDef *hcan)
{
 8003cfa:	b480      	push	{r7}
 8003cfc:	b083      	sub	sp, #12
 8003cfe:	af00      	add	r7, sp, #0
 8003d00:	6078      	str	r0, [r7, #4]
  UNUSED(hcan);

  /* NOTE : This function Should not be modified, when the callback is needed,
            the HAL_CAN_ErrorCallback could be implemented in the user file
   */
}
 8003d02:	bf00      	nop
 8003d04:	370c      	adds	r7, #12
 8003d06:	46bd      	mov	sp, r7
 8003d08:	f85d 7b04 	ldr.w	r7, [sp], #4
 8003d0c:	4770      	bx	lr
	...

08003d10 <__NVIC_SetPriorityGrouping>:
           In case of a conflict between priority grouping and available
           priority bits (__NVIC_PRIO_BITS), the smallest possible priority group is set.
  \param [in]      PriorityGroup  Priority grouping field.
 */
__STATIC_INLINE void __NVIC_SetPriorityGrouping(uint32_t PriorityGroup)
{
 8003d10:	b480      	push	{r7}
 8003d12:	b085      	sub	sp, #20
 8003d14:	af00      	add	r7, sp, #0
 8003d16:	6078      	str	r0, [r7, #4]
  uint32_t reg_value;
  uint32_t PriorityGroupTmp = (PriorityGroup & (uint32_t)0x07UL);             /* only values 0..7 are used          */
 8003d18:	687b      	ldr	r3, [r7, #4]
 8003d1a:	f003 0307 	and.w	r3, r3, #7
 8003d1e:	60fb      	str	r3, [r7, #12]

  reg_value  =  SCB->AIRCR;                                                   /* read old register configuration    */
 8003d20:	4b0c      	ldr	r3, [pc, #48]	; (8003d54 <__NVIC_SetPriorityGrouping+0x44>)
 8003d22:	68db      	ldr	r3, [r3, #12]
 8003d24:	60bb      	str	r3, [r7, #8]
  reg_value &= ~((uint32_t)(SCB_AIRCR_VECTKEY_Msk | SCB_AIRCR_PRIGROUP_Msk)); /* clear bits to change               */
 8003d26:	68ba      	ldr	r2, [r7, #8]
 8003d28:	f64f 03ff 	movw	r3, #63743	; 0xf8ff
 8003d2c:	4013      	ands	r3, r2
 8003d2e:	60bb      	str	r3, [r7, #8]
  reg_value  =  (reg_value                                   |
                ((uint32_t)0x5FAUL << SCB_AIRCR_VECTKEY_Pos) |
                (PriorityGroupTmp << SCB_AIRCR_PRIGROUP_Pos)  );              /* Insert write key and priority group */
 8003d30:	68fb      	ldr	r3, [r7, #12]
 8003d32:	021a      	lsls	r2, r3, #8
                ((uint32_t)0x5FAUL << SCB_AIRCR_VECTKEY_Pos) |
 8003d34:	68bb      	ldr	r3, [r7, #8]
 8003d36:	4313      	orrs	r3, r2
  reg_value  =  (reg_value                                   |
 8003d38:	f043 63bf 	orr.w	r3, r3, #100139008	; 0x5f80000
 8003d3c:	f443 3300 	orr.w	r3, r3, #131072	; 0x20000
 8003d40:	60bb      	str	r3, [r7, #8]
  SCB->AIRCR =  reg_value;
 8003d42:	4a04      	ldr	r2, [pc, #16]	; (8003d54 <__NVIC_SetPriorityGrouping+0x44>)
 8003d44:	68bb      	ldr	r3, [r7, #8]
 8003d46:	60d3      	str	r3, [r2, #12]
}
 8003d48:	bf00      	nop
 8003d4a:	3714      	adds	r7, #20
 8003d4c:	46bd      	mov	sp, r7
 8003d4e:	f85d 7b04 	ldr.w	r7, [sp], #4
 8003d52:	4770      	bx	lr
 8003d54:	e000ed00 	.word	0xe000ed00

08003d58 <__NVIC_GetPriorityGrouping>:
  \brief   Get Priority Grouping
  \details Reads the priority grouping field from the NVIC Interrupt Controller.
  \return                Priority grouping field (SCB->AIRCR [10:8] PRIGROUP field).
 */
__STATIC_INLINE uint32_t __NVIC_GetPriorityGrouping(void)
{
 8003d58:	b480      	push	{r7}
 8003d5a:	af00      	add	r7, sp, #0
  return ((uint32_t)((SCB->AIRCR & SCB_AIRCR_PRIGROUP_Msk) >> SCB_AIRCR_PRIGROUP_Pos));
 8003d5c:	4b04      	ldr	r3, [pc, #16]	; (8003d70 <__NVIC_GetPriorityGrouping+0x18>)
 8003d5e:	68db      	ldr	r3, [r3, #12]
 8003d60:	0a1b      	lsrs	r3, r3, #8
 8003d62:	f003 0307 	and.w	r3, r3, #7
}
 8003d66:	4618      	mov	r0, r3
 8003d68:	46bd      	mov	sp, r7
 8003d6a:	f85d 7b04 	ldr.w	r7, [sp], #4
 8003d6e:	4770      	bx	lr
 8003d70:	e000ed00 	.word	0xe000ed00

08003d74 <__NVIC_EnableIRQ>:
  \details Enables a device specific interrupt in the NVIC interrupt controller.
  \param [in]      IRQn  Device specific interrupt number.
  \note    IRQn must not be negative.
 */
__STATIC_INLINE void __NVIC_EnableIRQ(IRQn_Type IRQn)
{
 8003d74:	b480      	push	{r7}
 8003d76:	b083      	sub	sp, #12
 8003d78:	af00      	add	r7, sp, #0
 8003d7a:	4603      	mov	r3, r0
 8003d7c:	71fb      	strb	r3, [r7, #7]
  if ((int32_t)(IRQn) >= 0)
 8003d7e:	f997 3007 	ldrsb.w	r3, [r7, #7]
 8003d82:	2b00      	cmp	r3, #0
 8003d84:	db0b      	blt.n	8003d9e <__NVIC_EnableIRQ+0x2a>
  {
    __COMPILER_BARRIER();
    NVIC->ISER[(((uint32_t)IRQn) >> 5UL)] = (uint32_t)(1UL << (((uint32_t)IRQn) & 0x1FUL));
 8003d86:	79fb      	ldrb	r3, [r7, #7]
 8003d88:	f003 021f 	and.w	r2, r3, #31
 8003d8c:	4907      	ldr	r1, [pc, #28]	; (8003dac <__NVIC_EnableIRQ+0x38>)
 8003d8e:	f997 3007 	ldrsb.w	r3, [r7, #7]
 8003d92:	095b      	lsrs	r3, r3, #5
 8003d94:	2001      	movs	r0, #1
 8003d96:	fa00 f202 	lsl.w	r2, r0, r2
 8003d9a:	f841 2023 	str.w	r2, [r1, r3, lsl #2]
    __COMPILER_BARRIER();
  }
}
 8003d9e:	bf00      	nop
 8003da0:	370c      	adds	r7, #12
 8003da2:	46bd      	mov	sp, r7
 8003da4:	f85d 7b04 	ldr.w	r7, [sp], #4
 8003da8:	4770      	bx	lr
 8003daa:	bf00      	nop
 8003dac:	e000e100 	.word	0xe000e100

08003db0 <__NVIC_SetPriority>:
  \param [in]      IRQn  Interrupt number.
  \param [in]  priority  Priority to set.
  \note    The priority cannot be set for every processor exception.
 */
__STATIC_INLINE void __NVIC_SetPriority(IRQn_Type IRQn, uint32_t priority)
{
 8003db0:	b480      	push	{r7}
 8003db2:	b083      	sub	sp, #12
 8003db4:	af00      	add	r7, sp, #0
 8003db6:	4603      	mov	r3, r0
 8003db8:	6039      	str	r1, [r7, #0]
 8003dba:	71fb      	strb	r3, [r7, #7]
  if ((int32_t)(IRQn) >= 0)
 8003dbc:	f997 3007 	ldrsb.w	r3, [r7, #7]
 8003dc0:	2b00      	cmp	r3, #0
 8003dc2:	db0a      	blt.n	8003dda <__NVIC_SetPriority+0x2a>
  {
    NVIC->IP[((uint32_t)IRQn)]               = (uint8_t)((priority << (8U - __NVIC_PRIO_BITS)) & (uint32_t)0xFFUL);
 8003dc4:	683b      	ldr	r3, [r7, #0]
 8003dc6:	b2da      	uxtb	r2, r3
 8003dc8:	490c      	ldr	r1, [pc, #48]	; (8003dfc <__NVIC_SetPriority+0x4c>)
 8003dca:	f997 3007 	ldrsb.w	r3, [r7, #7]
 8003dce:	0112      	lsls	r2, r2, #4
 8003dd0:	b2d2      	uxtb	r2, r2
 8003dd2:	440b      	add	r3, r1
 8003dd4:	f883 2300 	strb.w	r2, [r3, #768]	; 0x300
  }
  else
  {
    SCB->SHP[(((uint32_t)IRQn) & 0xFUL)-4UL] = (uint8_t)((priority << (8U - __NVIC_PRIO_BITS)) & (uint32_t)0xFFUL);
  }
}
 8003dd8:	e00a      	b.n	8003df0 <__NVIC_SetPriority+0x40>
    SCB->SHP[(((uint32_t)IRQn) & 0xFUL)-4UL] = (uint8_t)((priority << (8U - __NVIC_PRIO_BITS)) & (uint32_t)0xFFUL);
 8003dda:	683b      	ldr	r3, [r7, #0]
 8003ddc:	b2da      	uxtb	r2, r3
 8003dde:	4908      	ldr	r1, [pc, #32]	; (8003e00 <__NVIC_SetPriority+0x50>)
 8003de0:	79fb      	ldrb	r3, [r7, #7]
 8003de2:	f003 030f 	and.w	r3, r3, #15
 8003de6:	3b04      	subs	r3, #4
 8003de8:	0112      	lsls	r2, r2, #4
 8003dea:	b2d2      	uxtb	r2, r2
 8003dec:	440b      	add	r3, r1
 8003dee:	761a      	strb	r2, [r3, #24]
}
 8003df0:	bf00      	nop
 8003df2:	370c      	adds	r7, #12
 8003df4:	46bd      	mov	sp, r7
 8003df6:	f85d 7b04 	ldr.w	r7, [sp], #4
 8003dfa:	4770      	bx	lr
 8003dfc:	e000e100 	.word	0xe000e100
 8003e00:	e000ed00 	.word	0xe000ed00

08003e04 <NVIC_EncodePriority>:
  \param [in]   PreemptPriority  Preemptive priority value (starting from 0).
  \param [in]       SubPriority  Subpriority value (starting from 0).
  \return                        Encoded priority. Value can be used in the function \ref NVIC_SetPriority().
 */
__STATIC_INLINE uint32_t NVIC_EncodePriority (uint32_t PriorityGroup, uint32_t PreemptPriority, uint32_t SubPriority)
{
 8003e04:	b480      	push	{r7}
 8003e06:	b089      	sub	sp, #36	; 0x24
 8003e08:	af00      	add	r7, sp, #0
 8003e0a:	60f8      	str	r0, [r7, #12]
 8003e0c:	60b9      	str	r1, [r7, #8]
 8003e0e:	607a      	str	r2, [r7, #4]
  uint32_t PriorityGroupTmp = (PriorityGroup & (uint32_t)0x07UL);   /* only values 0..7 are used          */
 8003e10:	68fb      	ldr	r3, [r7, #12]
 8003e12:	f003 0307 	and.w	r3, r3, #7
 8003e16:	61fb      	str	r3, [r7, #28]
  uint32_t PreemptPriorityBits;
  uint32_t SubPriorityBits;

  PreemptPriorityBits = ((7UL - PriorityGroupTmp) > (uint32_t)(__NVIC_PRIO_BITS)) ? (uint32_t)(__NVIC_PRIO_BITS) : (uint32_t)(7UL - PriorityGroupTmp);
 8003e18:	69fb      	ldr	r3, [r7, #28]
 8003e1a:	f1c3 0307 	rsb	r3, r3, #7
 8003e1e:	2b04      	cmp	r3, #4
 8003e20:	bf28      	it	cs
 8003e22:	2304      	movcs	r3, #4
 8003e24:	61bb      	str	r3, [r7, #24]
  SubPriorityBits     = ((PriorityGroupTmp + (uint32_t)(__NVIC_PRIO_BITS)) < (uint32_t)7UL) ? (uint32_t)0UL : (uint32_t)((PriorityGroupTmp - 7UL) + (uint32_t)(__NVIC_PRIO_BITS));
 8003e26:	69fb      	ldr	r3, [r7, #28]
 8003e28:	3304      	adds	r3, #4
 8003e2a:	2b06      	cmp	r3, #6
 8003e2c:	d902      	bls.n	8003e34 <NVIC_EncodePriority+0x30>
 8003e2e:	69fb      	ldr	r3, [r7, #28]
 8003e30:	3b03      	subs	r3, #3
 8003e32:	e000      	b.n	8003e36 <NVIC_EncodePriority+0x32>
 8003e34:	2300      	movs	r3, #0
 8003e36:	617b      	str	r3, [r7, #20]

  return (
           ((PreemptPriority & (uint32_t)((1UL << (PreemptPriorityBits)) - 1UL)) << SubPriorityBits) |
 8003e38:	f04f 32ff 	mov.w	r2, #4294967295	; 0xffffffff
 8003e3c:	69bb      	ldr	r3, [r7, #24]
 8003e3e:	fa02 f303 	lsl.w	r3, r2, r3
 8003e42:	43da      	mvns	r2, r3
 8003e44:	68bb      	ldr	r3, [r7, #8]
 8003e46:	401a      	ands	r2, r3
 8003e48:	697b      	ldr	r3, [r7, #20]
 8003e4a:	409a      	lsls	r2, r3
           ((SubPriority     & (uint32_t)((1UL << (SubPriorityBits    )) - 1UL)))
 8003e4c:	f04f 31ff 	mov.w	r1, #4294967295	; 0xffffffff
 8003e50:	697b      	ldr	r3, [r7, #20]
 8003e52:	fa01 f303 	lsl.w	r3, r1, r3
 8003e56:	43d9      	mvns	r1, r3
 8003e58:	687b      	ldr	r3, [r7, #4]
 8003e5a:	400b      	ands	r3, r1
           ((PreemptPriority & (uint32_t)((1UL << (PreemptPriorityBits)) - 1UL)) << SubPriorityBits) |
 8003e5c:	4313      	orrs	r3, r2
         );
}
 8003e5e:	4618      	mov	r0, r3
 8003e60:	3724      	adds	r7, #36	; 0x24
 8003e62:	46bd      	mov	sp, r7
 8003e64:	f85d 7b04 	ldr.w	r7, [sp], #4
 8003e68:	4770      	bx	lr
	...

08003e6c <SysTick_Config>:
  \note    When the variable <b>__Vendor_SysTickConfig</b> is set to 1, then the
           function <b>SysTick_Config</b> is not included. In this case, the file <b><i>device</i>.h</b>
           must contain a vendor-specific implementation of this function.
 */
__STATIC_INLINE uint32_t SysTick_Config(uint32_t ticks)
{
 8003e6c:	b580      	push	{r7, lr}
 8003e6e:	b082      	sub	sp, #8
 8003e70:	af00      	add	r7, sp, #0
 8003e72:	6078      	str	r0, [r7, #4]
  if ((ticks - 1UL) > SysTick_LOAD_RELOAD_Msk)
 8003e74:	687b      	ldr	r3, [r7, #4]
 8003e76:	3b01      	subs	r3, #1
 8003e78:	f1b3 7f80 	cmp.w	r3, #16777216	; 0x1000000
 8003e7c:	d301      	bcc.n	8003e82 <SysTick_Config+0x16>
  {
    return (1UL);                                                   /* Reload value impossible */
 8003e7e:	2301      	movs	r3, #1
 8003e80:	e00f      	b.n	8003ea2 <SysTick_Config+0x36>
  }

  SysTick->LOAD  = (uint32_t)(ticks - 1UL);                         /* set reload register */
 8003e82:	4a0a      	ldr	r2, [pc, #40]	; (8003eac <SysTick_Config+0x40>)
 8003e84:	687b      	ldr	r3, [r7, #4]
 8003e86:	3b01      	subs	r3, #1
 8003e88:	6053      	str	r3, [r2, #4]
  NVIC_SetPriority (SysTick_IRQn, (1UL << __NVIC_PRIO_BITS) - 1UL); /* set Priority for Systick Interrupt */
 8003e8a:	210f      	movs	r1, #15
 8003e8c:	f04f 30ff 	mov.w	r0, #4294967295	; 0xffffffff
 8003e90:	f7ff ff8e 	bl	8003db0 <__NVIC_SetPriority>
  SysTick->VAL   = 0UL;                                             /* Load the SysTick Counter Value */
 8003e94:	4b05      	ldr	r3, [pc, #20]	; (8003eac <SysTick_Config+0x40>)
 8003e96:	2200      	movs	r2, #0
 8003e98:	609a      	str	r2, [r3, #8]
  SysTick->CTRL  = SysTick_CTRL_CLKSOURCE_Msk |
 8003e9a:	4b04      	ldr	r3, [pc, #16]	; (8003eac <SysTick_Config+0x40>)
 8003e9c:	2207      	movs	r2, #7
 8003e9e:	601a      	str	r2, [r3, #0]
                   SysTick_CTRL_TICKINT_Msk   |
                   SysTick_CTRL_ENABLE_Msk;                         /* Enable SysTick IRQ and SysTick Timer */
  return (0UL);                                                     /* Function successful */
 8003ea0:	2300      	movs	r3, #0
}
 8003ea2:	4618      	mov	r0, r3
 8003ea4:	3708      	adds	r7, #8
 8003ea6:	46bd      	mov	sp, r7
 8003ea8:	bd80      	pop	{r7, pc}
 8003eaa:	bf00      	nop
 8003eac:	e000e010 	.word	0xe000e010

08003eb0 <HAL_NVIC_SetPriorityGrouping>:
  * @note   When the NVIC_PriorityGroup_0 is selected, IRQ preemption is no more possible. 
  *         The pending IRQ priority will be managed only by the subpriority. 
  * @retval None
  */
void HAL_NVIC_SetPriorityGrouping(uint32_t PriorityGroup)
{
 8003eb0:	b580      	push	{r7, lr}
 8003eb2:	b082      	sub	sp, #8
 8003eb4:	af00      	add	r7, sp, #0
 8003eb6:	6078      	str	r0, [r7, #4]
  /* Check the parameters */
  assert_param(IS_NVIC_PRIORITY_GROUP(PriorityGroup));
  
  /* Set the PRIGROUP[10:8] bits according to the PriorityGroup parameter value */
  NVIC_SetPriorityGrouping(PriorityGroup);
 8003eb8:	6878      	ldr	r0, [r7, #4]
 8003eba:	f7ff ff29 	bl	8003d10 <__NVIC_SetPriorityGrouping>
}
 8003ebe:	bf00      	nop
 8003ec0:	3708      	adds	r7, #8
 8003ec2:	46bd      	mov	sp, r7
 8003ec4:	bd80      	pop	{r7, pc}

08003ec6 <HAL_NVIC_SetPriority>:
  *         This parameter can be a value between 0 and 15
  *         A lower priority value indicates a higher priority.          
  * @retval None
  */
void HAL_NVIC_SetPriority(IRQn_Type IRQn, uint32_t PreemptPriority, uint32_t SubPriority)
{ 
 8003ec6:	b580      	push	{r7, lr}
 8003ec8:	b086      	sub	sp, #24
 8003eca:	af00      	add	r7, sp, #0
 8003ecc:	4603      	mov	r3, r0
 8003ece:	60b9      	str	r1, [r7, #8]
 8003ed0:	607a      	str	r2, [r7, #4]
 8003ed2:	73fb      	strb	r3, [r7, #15]
  uint32_t prioritygroup = 0x00U;
 8003ed4:	2300      	movs	r3, #0
 8003ed6:	617b      	str	r3, [r7, #20]
  
  /* Check the parameters */
  assert_param(IS_NVIC_SUB_PRIORITY(SubPriority));
  assert_param(IS_NVIC_PREEMPTION_PRIORITY(PreemptPriority));
  
  prioritygroup = NVIC_GetPriorityGrouping();
 8003ed8:	f7ff ff3e 	bl	8003d58 <__NVIC_GetPriorityGrouping>
 8003edc:	6178      	str	r0, [r7, #20]
  
  NVIC_SetPriority(IRQn, NVIC_EncodePriority(prioritygroup, PreemptPriority, SubPriority));
 8003ede:	687a      	ldr	r2, [r7, #4]
 8003ee0:	68b9      	ldr	r1, [r7, #8]
 8003ee2:	6978      	ldr	r0, [r7, #20]
 8003ee4:	f7ff ff8e 	bl	8003e04 <NVIC_EncodePriority>
 8003ee8:	4602      	mov	r2, r0
 8003eea:	f997 300f 	ldrsb.w	r3, [r7, #15]
 8003eee:	4611      	mov	r1, r2
 8003ef0:	4618      	mov	r0, r3
 8003ef2:	f7ff ff5d 	bl	8003db0 <__NVIC_SetPriority>
}
 8003ef6:	bf00      	nop
 8003ef8:	3718      	adds	r7, #24
 8003efa:	46bd      	mov	sp, r7
 8003efc:	bd80      	pop	{r7, pc}

08003efe <HAL_NVIC_EnableIRQ>:
  *         This parameter can be an enumerator of IRQn_Type enumeration
  *         (For the complete STM32 Devices IRQ Channels list, please refer to the appropriate CMSIS device file (stm32f4xxxx.h))
  * @retval None
  */
void HAL_NVIC_EnableIRQ(IRQn_Type IRQn)
{
 8003efe:	b580      	push	{r7, lr}
 8003f00:	b082      	sub	sp, #8
 8003f02:	af00      	add	r7, sp, #0
 8003f04:	4603      	mov	r3, r0
 8003f06:	71fb      	strb	r3, [r7, #7]
  /* Check the parameters */
  assert_param(IS_NVIC_DEVICE_IRQ(IRQn));
  
  /* Enable interrupt */
  NVIC_EnableIRQ(IRQn);
 8003f08:	f997 3007 	ldrsb.w	r3, [r7, #7]
 8003f0c:	4618      	mov	r0, r3
 8003f0e:	f7ff ff31 	bl	8003d74 <__NVIC_EnableIRQ>
}
 8003f12:	bf00      	nop
 8003f14:	3708      	adds	r7, #8
 8003f16:	46bd      	mov	sp, r7
 8003f18:	bd80      	pop	{r7, pc}

08003f1a <HAL_SYSTICK_Config>:
  * @param  TicksNumb Specifies the ticks Number of ticks between two interrupts.
  * @retval status:  - 0  Function succeeded.
  *                  - 1  Function failed.
  */
uint32_t HAL_SYSTICK_Config(uint32_t TicksNumb)
{
 8003f1a:	b580      	push	{r7, lr}
 8003f1c:	b082      	sub	sp, #8
 8003f1e:	af00      	add	r7, sp, #0
 8003f20:	6078      	str	r0, [r7, #4]
   return SysTick_Config(TicksNumb);
 8003f22:	6878      	ldr	r0, [r7, #4]
 8003f24:	f7ff ffa2 	bl	8003e6c <SysTick_Config>
 8003f28:	4603      	mov	r3, r0
}
 8003f2a:	4618      	mov	r0, r3
 8003f2c:	3708      	adds	r7, #8
 8003f2e:	46bd      	mov	sp, r7
 8003f30:	bd80      	pop	{r7, pc}
	...

08003f34 <HAL_DMA_Init>:
  * @param  hdma Pointer to a DMA_HandleTypeDef structure that contains
  *               the configuration information for the specified DMA Stream.  
  * @retval HAL status
  */
HAL_StatusTypeDef HAL_DMA_Init(DMA_HandleTypeDef *hdma)
{
 8003f34:	b580      	push	{r7, lr}
 8003f36:	b086      	sub	sp, #24
 8003f38:	af00      	add	r7, sp, #0
 8003f3a:	6078      	str	r0, [r7, #4]
  uint32_t tmp = 0U;
 8003f3c:	2300      	movs	r3, #0
 8003f3e:	617b      	str	r3, [r7, #20]
  uint32_t tickstart = HAL_GetTick();
 8003f40:	f7ff f84e 	bl	8002fe0 <HAL_GetTick>
 8003f44:	6138      	str	r0, [r7, #16]
  DMA_Base_Registers *regs;

  /* Check the DMA peripheral state */
  if(hdma == NULL)
 8003f46:	687b      	ldr	r3, [r7, #4]
 8003f48:	2b00      	cmp	r3, #0
 8003f4a:	d101      	bne.n	8003f50 <HAL_DMA_Init+0x1c>
  {
    return HAL_ERROR;
 8003f4c:	2301      	movs	r3, #1
 8003f4e:	e099      	b.n	8004084 <HAL_DMA_Init+0x150>
    assert_param(IS_DMA_MEMORY_BURST(hdma->Init.MemBurst));
    assert_param(IS_DMA_PERIPHERAL_BURST(hdma->Init.PeriphBurst));
  }

  /* Change DMA peripheral state */
  hdma->State = HAL_DMA_STATE_BUSY;
 8003f50:	687b      	ldr	r3, [r7, #4]
 8003f52:	2202      	movs	r2, #2
 8003f54:	f883 2035 	strb.w	r2, [r3, #53]	; 0x35

  /* Allocate lock resource */
  __HAL_UNLOCK(hdma);
 8003f58:	687b      	ldr	r3, [r7, #4]
 8003f5a:	2200      	movs	r2, #0
 8003f5c:	f883 2034 	strb.w	r2, [r3, #52]	; 0x34
  
  /* Disable the peripheral */
  __HAL_DMA_DISABLE(hdma);
 8003f60:	687b      	ldr	r3, [r7, #4]
 8003f62:	681b      	ldr	r3, [r3, #0]
 8003f64:	681a      	ldr	r2, [r3, #0]
 8003f66:	687b      	ldr	r3, [r7, #4]
 8003f68:	681b      	ldr	r3, [r3, #0]
 8003f6a:	f022 0201 	bic.w	r2, r2, #1
 8003f6e:	601a      	str	r2, [r3, #0]
  
  /* Check if the DMA Stream is effectively disabled */
  while((hdma->Instance->CR & DMA_SxCR_EN) != RESET)
 8003f70:	e00f      	b.n	8003f92 <HAL_DMA_Init+0x5e>
  {
    /* Check for the Timeout */
    if((HAL_GetTick() - tickstart ) > HAL_TIMEOUT_DMA_ABORT)
 8003f72:	f7ff f835 	bl	8002fe0 <HAL_GetTick>
 8003f76:	4602      	mov	r2, r0
 8003f78:	693b      	ldr	r3, [r7, #16]
 8003f7a:	1ad3      	subs	r3, r2, r3
 8003f7c:	2b05      	cmp	r3, #5
 8003f7e:	d908      	bls.n	8003f92 <HAL_DMA_Init+0x5e>
    {
      /* Update error code */
      hdma->ErrorCode = HAL_DMA_ERROR_TIMEOUT;
 8003f80:	687b      	ldr	r3, [r7, #4]
 8003f82:	2220      	movs	r2, #32
 8003f84:	655a      	str	r2, [r3, #84]	; 0x54
      
      /* Change the DMA state */
      hdma->State = HAL_DMA_STATE_TIMEOUT;
 8003f86:	687b      	ldr	r3, [r7, #4]
 8003f88:	2203      	movs	r2, #3
 8003f8a:	f883 2035 	strb.w	r2, [r3, #53]	; 0x35
      
      return HAL_TIMEOUT;
 8003f8e:	2303      	movs	r3, #3
 8003f90:	e078      	b.n	8004084 <HAL_DMA_Init+0x150>
  while((hdma->Instance->CR & DMA_SxCR_EN) != RESET)
 8003f92:	687b      	ldr	r3, [r7, #4]
 8003f94:	681b      	ldr	r3, [r3, #0]
 8003f96:	681b      	ldr	r3, [r3, #0]
 8003f98:	f003 0301 	and.w	r3, r3, #1
 8003f9c:	2b00      	cmp	r3, #0
 8003f9e:	d1e8      	bne.n	8003f72 <HAL_DMA_Init+0x3e>
    }
  }
  
  /* Get the CR register value */
  tmp = hdma->Instance->CR;
 8003fa0:	687b      	ldr	r3, [r7, #4]
 8003fa2:	681b      	ldr	r3, [r3, #0]
 8003fa4:	681b      	ldr	r3, [r3, #0]
 8003fa6:	617b      	str	r3, [r7, #20]

  /* Clear CHSEL, MBURST, PBURST, PL, MSIZE, PSIZE, MINC, PINC, CIRC, DIR, CT and DBM bits */
  tmp &= ((uint32_t)~(DMA_SxCR_CHSEL | DMA_SxCR_MBURST | DMA_SxCR_PBURST | \
 8003fa8:	697a      	ldr	r2, [r7, #20]
 8003faa:	4b38      	ldr	r3, [pc, #224]	; (800408c <HAL_DMA_Init+0x158>)
 8003fac:	4013      	ands	r3, r2
 8003fae:	617b      	str	r3, [r7, #20]
                      DMA_SxCR_PL    | DMA_SxCR_MSIZE  | DMA_SxCR_PSIZE  | \
                      DMA_SxCR_MINC  | DMA_SxCR_PINC   | DMA_SxCR_CIRC   | \
                      DMA_SxCR_DIR   | DMA_SxCR_CT     | DMA_SxCR_DBM));

  /* Prepare the DMA Stream configuration */
  tmp |=  hdma->Init.Channel             | hdma->Init.Direction        |
 8003fb0:	687b      	ldr	r3, [r7, #4]
 8003fb2:	685a      	ldr	r2, [r3, #4]
 8003fb4:	687b      	ldr	r3, [r7, #4]
 8003fb6:	689b      	ldr	r3, [r3, #8]
 8003fb8:	431a      	orrs	r2, r3
          hdma->Init.PeriphInc           | hdma->Init.MemInc           |
 8003fba:	687b      	ldr	r3, [r7, #4]
 8003fbc:	68db      	ldr	r3, [r3, #12]
  tmp |=  hdma->Init.Channel             | hdma->Init.Direction        |
 8003fbe:	431a      	orrs	r2, r3
          hdma->Init.PeriphInc           | hdma->Init.MemInc           |
 8003fc0:	687b      	ldr	r3, [r7, #4]
 8003fc2:	691b      	ldr	r3, [r3, #16]
 8003fc4:	431a      	orrs	r2, r3
          hdma->Init.PeriphDataAlignment | hdma->Init.MemDataAlignment |
 8003fc6:	687b      	ldr	r3, [r7, #4]
 8003fc8:	695b      	ldr	r3, [r3, #20]
          hdma->Init.PeriphInc           | hdma->Init.MemInc           |
 8003fca:	431a      	orrs	r2, r3
          hdma->Init.PeriphDataAlignment | hdma->Init.MemDataAlignment |
 8003fcc:	687b      	ldr	r3, [r7, #4]
 8003fce:	699b      	ldr	r3, [r3, #24]
 8003fd0:	431a      	orrs	r2, r3
          hdma->Init.Mode                | hdma->Init.Priority;
 8003fd2:	687b      	ldr	r3, [r7, #4]
 8003fd4:	69db      	ldr	r3, [r3, #28]
          hdma->Init.PeriphDataAlignment | hdma->Init.MemDataAlignment |
 8003fd6:	431a      	orrs	r2, r3
          hdma->Init.Mode                | hdma->Init.Priority;
 8003fd8:	687b      	ldr	r3, [r7, #4]
 8003fda:	6a1b      	ldr	r3, [r3, #32]
 8003fdc:	4313      	orrs	r3, r2
  tmp |=  hdma->Init.Channel             | hdma->Init.Direction        |
 8003fde:	697a      	ldr	r2, [r7, #20]
 8003fe0:	4313      	orrs	r3, r2
 8003fe2:	617b      	str	r3, [r7, #20]

  /* the Memory burst and peripheral burst are not used when the FIFO is disabled */
  if(hdma->Init.FIFOMode == DMA_FIFOMODE_ENABLE)
 8003fe4:	687b      	ldr	r3, [r7, #4]
 8003fe6:	6a5b      	ldr	r3, [r3, #36]	; 0x24
 8003fe8:	2b04      	cmp	r3, #4
 8003fea:	d107      	bne.n	8003ffc <HAL_DMA_Init+0xc8>
  {
    /* Get memory burst and peripheral burst */
    tmp |=  hdma->Init.MemBurst | hdma->Init.PeriphBurst;
 8003fec:	687b      	ldr	r3, [r7, #4]
 8003fee:	6ada      	ldr	r2, [r3, #44]	; 0x2c
 8003ff0:	687b      	ldr	r3, [r7, #4]
 8003ff2:	6b1b      	ldr	r3, [r3, #48]	; 0x30
 8003ff4:	4313      	orrs	r3, r2
 8003ff6:	697a      	ldr	r2, [r7, #20]
 8003ff8:	4313      	orrs	r3, r2
 8003ffa:	617b      	str	r3, [r7, #20]
  }
  
  /* Write to DMA Stream CR register */
  hdma->Instance->CR = tmp;  
 8003ffc:	687b      	ldr	r3, [r7, #4]
 8003ffe:	681b      	ldr	r3, [r3, #0]
 8004000:	697a      	ldr	r2, [r7, #20]
 8004002:	601a      	str	r2, [r3, #0]

  /* Get the FCR register value */
  tmp = hdma->Instance->FCR;
 8004004:	687b      	ldr	r3, [r7, #4]
 8004006:	681b      	ldr	r3, [r3, #0]
 8004008:	695b      	ldr	r3, [r3, #20]
 800400a:	617b      	str	r3, [r7, #20]

  /* Clear Direct mode and FIFO threshold bits */
  tmp &= (uint32_t)~(DMA_SxFCR_DMDIS | DMA_SxFCR_FTH);
 800400c:	697b      	ldr	r3, [r7, #20]
 800400e:	f023 0307 	bic.w	r3, r3, #7
 8004012:	617b      	str	r3, [r7, #20]

  /* Prepare the DMA Stream FIFO configuration */
  tmp |= hdma->Init.FIFOMode;
 8004014:	687b      	ldr	r3, [r7, #4]
 8004016:	6a5b      	ldr	r3, [r3, #36]	; 0x24
 8004018:	697a      	ldr	r2, [r7, #20]
 800401a:	4313      	orrs	r3, r2
 800401c:	617b      	str	r3, [r7, #20]

  /* The FIFO threshold is not used when the FIFO mode is disabled */
  if(hdma->Init.FIFOMode == DMA_FIFOMODE_ENABLE)
 800401e:	687b      	ldr	r3, [r7, #4]
 8004020:	6a5b      	ldr	r3, [r3, #36]	; 0x24
 8004022:	2b04      	cmp	r3, #4
 8004024:	d117      	bne.n	8004056 <HAL_DMA_Init+0x122>
  {
    /* Get the FIFO threshold */
    tmp |= hdma->Init.FIFOThreshold;
 8004026:	687b      	ldr	r3, [r7, #4]
 8004028:	6a9b      	ldr	r3, [r3, #40]	; 0x28
 800402a:	697a      	ldr	r2, [r7, #20]
 800402c:	4313      	orrs	r3, r2
 800402e:	617b      	str	r3, [r7, #20]
    
    /* Check compatibility between FIFO threshold level and size of the memory burst */
    /* for INCR4, INCR8, INCR16 bursts */
    if (hdma->Init.MemBurst != DMA_MBURST_SINGLE)
 8004030:	687b      	ldr	r3, [r7, #4]
 8004032:	6adb      	ldr	r3, [r3, #44]	; 0x2c
 8004034:	2b00      	cmp	r3, #0
 8004036:	d00e      	beq.n	8004056 <HAL_DMA_Init+0x122>
    {
      if (DMA_CheckFifoParam(hdma) != HAL_OK)
 8004038:	6878      	ldr	r0, [r7, #4]
 800403a:	f000 fb01 	bl	8004640 <DMA_CheckFifoParam>
 800403e:	4603      	mov	r3, r0
 8004040:	2b00      	cmp	r3, #0
 8004042:	d008      	beq.n	8004056 <HAL_DMA_Init+0x122>
      {
        /* Update error code */
        hdma->ErrorCode = HAL_DMA_ERROR_PARAM;
 8004044:	687b      	ldr	r3, [r7, #4]
 8004046:	2240      	movs	r2, #64	; 0x40
 8004048:	655a      	str	r2, [r3, #84]	; 0x54
        
        /* Change the DMA state */
        hdma->State = HAL_DMA_STATE_READY;
 800404a:	687b      	ldr	r3, [r7, #4]
 800404c:	2201      	movs	r2, #1
 800404e:	f883 2035 	strb.w	r2, [r3, #53]	; 0x35
        
        return HAL_ERROR; 
 8004052:	2301      	movs	r3, #1
 8004054:	e016      	b.n	8004084 <HAL_DMA_Init+0x150>
      }
    }
  }
  
  /* Write to DMA Stream FCR */
  hdma->Instance->FCR = tmp;
 8004056:	687b      	ldr	r3, [r7, #4]
 8004058:	681b      	ldr	r3, [r3, #0]
 800405a:	697a      	ldr	r2, [r7, #20]
 800405c:	615a      	str	r2, [r3, #20]

  /* Initialize StreamBaseAddress and StreamIndex parameters to be used to calculate
     DMA steam Base Address needed by HAL_DMA_IRQHandler() and HAL_DMA_PollForTransfer() */
  regs = (DMA_Base_Registers *)DMA_CalcBaseAndBitshift(hdma);
 800405e:	6878      	ldr	r0, [r7, #4]
 8004060:	f000 fab8 	bl	80045d4 <DMA_CalcBaseAndBitshift>
 8004064:	4603      	mov	r3, r0
 8004066:	60fb      	str	r3, [r7, #12]
  
  /* Clear all interrupt flags */
  regs->IFCR = 0x3FU << hdma->StreamIndex;
 8004068:	687b      	ldr	r3, [r7, #4]
 800406a:	6ddb      	ldr	r3, [r3, #92]	; 0x5c
 800406c:	223f      	movs	r2, #63	; 0x3f
 800406e:	409a      	lsls	r2, r3
 8004070:	68fb      	ldr	r3, [r7, #12]
 8004072:	609a      	str	r2, [r3, #8]

  /* Initialize the error code */
  hdma->ErrorCode = HAL_DMA_ERROR_NONE;
 8004074:	687b      	ldr	r3, [r7, #4]
 8004076:	2200      	movs	r2, #0
 8004078:	655a      	str	r2, [r3, #84]	; 0x54
                                                                                     
  /* Initialize the DMA state */
  hdma->State = HAL_DMA_STATE_READY;
 800407a:	687b      	ldr	r3, [r7, #4]
 800407c:	2201      	movs	r2, #1
 800407e:	f883 2035 	strb.w	r2, [r3, #53]	; 0x35

  return HAL_OK;
 8004082:	2300      	movs	r3, #0
}
 8004084:	4618      	mov	r0, r3
 8004086:	3718      	adds	r7, #24
 8004088:	46bd      	mov	sp, r7
 800408a:	bd80      	pop	{r7, pc}
 800408c:	f010803f 	.word	0xf010803f

08004090 <HAL_DMA_Start_IT>:
  * @param  DstAddress The destination memory Buffer address
  * @param  DataLength The length of data to be transferred from source to destination
  * @retval HAL status
  */
HAL_StatusTypeDef HAL_DMA_Start_IT(DMA_HandleTypeDef *hdma, uint32_t SrcAddress, uint32_t DstAddress, uint32_t DataLength)
{
 8004090:	b580      	push	{r7, lr}
 8004092:	b086      	sub	sp, #24
 8004094:	af00      	add	r7, sp, #0
 8004096:	60f8      	str	r0, [r7, #12]
 8004098:	60b9      	str	r1, [r7, #8]
 800409a:	607a      	str	r2, [r7, #4]
 800409c:	603b      	str	r3, [r7, #0]
  HAL_StatusTypeDef status = HAL_OK;
 800409e:	2300      	movs	r3, #0
 80040a0:	75fb      	strb	r3, [r7, #23]

  /* calculate DMA base and stream number */
  DMA_Base_Registers *regs = (DMA_Base_Registers *)hdma->StreamBaseAddress;
 80040a2:	68fb      	ldr	r3, [r7, #12]
 80040a4:	6d9b      	ldr	r3, [r3, #88]	; 0x58
 80040a6:	613b      	str	r3, [r7, #16]
  
  /* Check the parameters */
  assert_param(IS_DMA_BUFFER_SIZE(DataLength));
 
  /* Process locked */
  __HAL_LOCK(hdma);
 80040a8:	68fb      	ldr	r3, [r7, #12]
 80040aa:	f893 3034 	ldrb.w	r3, [r3, #52]	; 0x34
 80040ae:	2b01      	cmp	r3, #1
 80040b0:	d101      	bne.n	80040b6 <HAL_DMA_Start_IT+0x26>
 80040b2:	2302      	movs	r3, #2
 80040b4:	e040      	b.n	8004138 <HAL_DMA_Start_IT+0xa8>
 80040b6:	68fb      	ldr	r3, [r7, #12]
 80040b8:	2201      	movs	r2, #1
 80040ba:	f883 2034 	strb.w	r2, [r3, #52]	; 0x34
  
  if(HAL_DMA_STATE_READY == hdma->State)
 80040be:	68fb      	ldr	r3, [r7, #12]
 80040c0:	f893 3035 	ldrb.w	r3, [r3, #53]	; 0x35
 80040c4:	b2db      	uxtb	r3, r3
 80040c6:	2b01      	cmp	r3, #1
 80040c8:	d12f      	bne.n	800412a <HAL_DMA_Start_IT+0x9a>
  {
    /* Change DMA peripheral state */
    hdma->State = HAL_DMA_STATE_BUSY;
 80040ca:	68fb      	ldr	r3, [r7, #12]
 80040cc:	2202      	movs	r2, #2
 80040ce:	f883 2035 	strb.w	r2, [r3, #53]	; 0x35
    
    /* Initialize the error code */
    hdma->ErrorCode = HAL_DMA_ERROR_NONE;
 80040d2:	68fb      	ldr	r3, [r7, #12]
 80040d4:	2200      	movs	r2, #0
 80040d6:	655a      	str	r2, [r3, #84]	; 0x54
    
    /* Configure the source, destination address and the data length */
    DMA_SetConfig(hdma, SrcAddress, DstAddress, DataLength);
 80040d8:	683b      	ldr	r3, [r7, #0]
 80040da:	687a      	ldr	r2, [r7, #4]
 80040dc:	68b9      	ldr	r1, [r7, #8]
 80040de:	68f8      	ldr	r0, [r7, #12]
 80040e0:	f000 fa4a 	bl	8004578 <DMA_SetConfig>
    
    /* Clear all interrupt flags at correct offset within the register */
    regs->IFCR = 0x3FU << hdma->StreamIndex;
 80040e4:	68fb      	ldr	r3, [r7, #12]
 80040e6:	6ddb      	ldr	r3, [r3, #92]	; 0x5c
 80040e8:	223f      	movs	r2, #63	; 0x3f
 80040ea:	409a      	lsls	r2, r3
 80040ec:	693b      	ldr	r3, [r7, #16]
 80040ee:	609a      	str	r2, [r3, #8]
    
    /* Enable Common interrupts*/
    hdma->Instance->CR  |= DMA_IT_TC | DMA_IT_TE | DMA_IT_DME;
 80040f0:	68fb      	ldr	r3, [r7, #12]
 80040f2:	681b      	ldr	r3, [r3, #0]
 80040f4:	681a      	ldr	r2, [r3, #0]
 80040f6:	68fb      	ldr	r3, [r7, #12]
 80040f8:	681b      	ldr	r3, [r3, #0]
 80040fa:	f042 0216 	orr.w	r2, r2, #22
 80040fe:	601a      	str	r2, [r3, #0]
    
    if(hdma->XferHalfCpltCallback != NULL)
 8004100:	68fb      	ldr	r3, [r7, #12]
 8004102:	6c1b      	ldr	r3, [r3, #64]	; 0x40
 8004104:	2b00      	cmp	r3, #0
 8004106:	d007      	beq.n	8004118 <HAL_DMA_Start_IT+0x88>
    {
      hdma->Instance->CR  |= DMA_IT_HT;
 8004108:	68fb      	ldr	r3, [r7, #12]
 800410a:	681b      	ldr	r3, [r3, #0]
 800410c:	681a      	ldr	r2, [r3, #0]
 800410e:	68fb      	ldr	r3, [r7, #12]
 8004110:	681b      	ldr	r3, [r3, #0]
 8004112:	f042 0208 	orr.w	r2, r2, #8
 8004116:	601a      	str	r2, [r3, #0]
    }
    
    /* Enable the Peripheral */
    __HAL_DMA_ENABLE(hdma);
 8004118:	68fb      	ldr	r3, [r7, #12]
 800411a:	681b      	ldr	r3, [r3, #0]
 800411c:	681a      	ldr	r2, [r3, #0]
 800411e:	68fb      	ldr	r3, [r7, #12]
 8004120:	681b      	ldr	r3, [r3, #0]
 8004122:	f042 0201 	orr.w	r2, r2, #1
 8004126:	601a      	str	r2, [r3, #0]
 8004128:	e005      	b.n	8004136 <HAL_DMA_Start_IT+0xa6>
  }
  else
  {
    /* Process unlocked */
    __HAL_UNLOCK(hdma);	  
 800412a:	68fb      	ldr	r3, [r7, #12]
 800412c:	2200      	movs	r2, #0
 800412e:	f883 2034 	strb.w	r2, [r3, #52]	; 0x34
    
    /* Return error status */
    status = HAL_BUSY;
 8004132:	2302      	movs	r3, #2
 8004134:	75fb      	strb	r3, [r7, #23]
  }
  
  return status;
 8004136:	7dfb      	ldrb	r3, [r7, #23]
}
 8004138:	4618      	mov	r0, r3
 800413a:	3718      	adds	r7, #24
 800413c:	46bd      	mov	sp, r7
 800413e:	bd80      	pop	{r7, pc}

08004140 <HAL_DMA_Abort>:
  *        and the Stream will be effectively disabled only after the transfer of
  *        this single data is finished.  
  * @retval HAL status
  */
HAL_StatusTypeDef HAL_DMA_Abort(DMA_HandleTypeDef *hdma)
{
 8004140:	b580      	push	{r7, lr}
 8004142:	b084      	sub	sp, #16
 8004144:	af00      	add	r7, sp, #0
 8004146:	6078      	str	r0, [r7, #4]
  /* calculate DMA base and stream number */
  DMA_Base_Registers *regs = (DMA_Base_Registers *)hdma->StreamBaseAddress;
 8004148:	687b      	ldr	r3, [r7, #4]
 800414a:	6d9b      	ldr	r3, [r3, #88]	; 0x58
 800414c:	60fb      	str	r3, [r7, #12]
  
  uint32_t tickstart = HAL_GetTick();
 800414e:	f7fe ff47 	bl	8002fe0 <HAL_GetTick>
 8004152:	60b8      	str	r0, [r7, #8]
  
  if(hdma->State != HAL_DMA_STATE_BUSY)
 8004154:	687b      	ldr	r3, [r7, #4]
 8004156:	f893 3035 	ldrb.w	r3, [r3, #53]	; 0x35
 800415a:	b2db      	uxtb	r3, r3
 800415c:	2b02      	cmp	r3, #2
 800415e:	d008      	beq.n	8004172 <HAL_DMA_Abort+0x32>
  {
    hdma->ErrorCode = HAL_DMA_ERROR_NO_XFER;
 8004160:	687b      	ldr	r3, [r7, #4]
 8004162:	2280      	movs	r2, #128	; 0x80
 8004164:	655a      	str	r2, [r3, #84]	; 0x54
    
    /* Process Unlocked */
    __HAL_UNLOCK(hdma);
 8004166:	687b      	ldr	r3, [r7, #4]
 8004168:	2200      	movs	r2, #0
 800416a:	f883 2034 	strb.w	r2, [r3, #52]	; 0x34
    
    return HAL_ERROR;
 800416e:	2301      	movs	r3, #1
 8004170:	e052      	b.n	8004218 <HAL_DMA_Abort+0xd8>
  }
  else
  {
    /* Disable all the transfer interrupts */
    hdma->Instance->CR  &= ~(DMA_IT_TC | DMA_IT_TE | DMA_IT_DME);
 8004172:	687b      	ldr	r3, [r7, #4]
 8004174:	681b      	ldr	r3, [r3, #0]
 8004176:	681a      	ldr	r2, [r3, #0]
 8004178:	687b      	ldr	r3, [r7, #4]
 800417a:	681b      	ldr	r3, [r3, #0]
 800417c:	f022 0216 	bic.w	r2, r2, #22
 8004180:	601a      	str	r2, [r3, #0]
    hdma->Instance->FCR &= ~(DMA_IT_FE);
 8004182:	687b      	ldr	r3, [r7, #4]
 8004184:	681b      	ldr	r3, [r3, #0]
 8004186:	695a      	ldr	r2, [r3, #20]
 8004188:	687b      	ldr	r3, [r7, #4]
 800418a:	681b      	ldr	r3, [r3, #0]
 800418c:	f022 0280 	bic.w	r2, r2, #128	; 0x80
 8004190:	615a      	str	r2, [r3, #20]
    
    if((hdma->XferHalfCpltCallback != NULL) || (hdma->XferM1HalfCpltCallback != NULL))
 8004192:	687b      	ldr	r3, [r7, #4]
 8004194:	6c1b      	ldr	r3, [r3, #64]	; 0x40
 8004196:	2b00      	cmp	r3, #0
 8004198:	d103      	bne.n	80041a2 <HAL_DMA_Abort+0x62>
 800419a:	687b      	ldr	r3, [r7, #4]
 800419c:	6c9b      	ldr	r3, [r3, #72]	; 0x48
 800419e:	2b00      	cmp	r3, #0
 80041a0:	d007      	beq.n	80041b2 <HAL_DMA_Abort+0x72>
    {
      hdma->Instance->CR  &= ~(DMA_IT_HT);
 80041a2:	687b      	ldr	r3, [r7, #4]
 80041a4:	681b      	ldr	r3, [r3, #0]
 80041a6:	681a      	ldr	r2, [r3, #0]
 80041a8:	687b      	ldr	r3, [r7, #4]
 80041aa:	681b      	ldr	r3, [r3, #0]
 80041ac:	f022 0208 	bic.w	r2, r2, #8
 80041b0:	601a      	str	r2, [r3, #0]
    }
    
    /* Disable the stream */
    __HAL_DMA_DISABLE(hdma);
 80041b2:	687b      	ldr	r3, [r7, #4]
 80041b4:	681b      	ldr	r3, [r3, #0]
 80041b6:	681a      	ldr	r2, [r3, #0]
 80041b8:	687b      	ldr	r3, [r7, #4]
 80041ba:	681b      	ldr	r3, [r3, #0]
 80041bc:	f022 0201 	bic.w	r2, r2, #1
 80041c0:	601a      	str	r2, [r3, #0]
    
    /* Check if the DMA Stream is effectively disabled */
    while((hdma->Instance->CR & DMA_SxCR_EN) != RESET)
 80041c2:	e013      	b.n	80041ec <HAL_DMA_Abort+0xac>
    {
      /* Check for the Timeout */
      if((HAL_GetTick() - tickstart ) > HAL_TIMEOUT_DMA_ABORT)
 80041c4:	f7fe ff0c 	bl	8002fe0 <HAL_GetTick>
 80041c8:	4602      	mov	r2, r0
 80041ca:	68bb      	ldr	r3, [r7, #8]
 80041cc:	1ad3      	subs	r3, r2, r3
 80041ce:	2b05      	cmp	r3, #5
 80041d0:	d90c      	bls.n	80041ec <HAL_DMA_Abort+0xac>
      {
        /* Update error code */
        hdma->ErrorCode = HAL_DMA_ERROR_TIMEOUT;
 80041d2:	687b      	ldr	r3, [r7, #4]
 80041d4:	2220      	movs	r2, #32
 80041d6:	655a      	str	r2, [r3, #84]	; 0x54
        
        /* Change the DMA state */
        hdma->State = HAL_DMA_STATE_TIMEOUT;
 80041d8:	687b      	ldr	r3, [r7, #4]
 80041da:	2203      	movs	r2, #3
 80041dc:	f883 2035 	strb.w	r2, [r3, #53]	; 0x35
        
        /* Process Unlocked */
        __HAL_UNLOCK(hdma);
 80041e0:	687b      	ldr	r3, [r7, #4]
 80041e2:	2200      	movs	r2, #0
 80041e4:	f883 2034 	strb.w	r2, [r3, #52]	; 0x34
        
        return HAL_TIMEOUT;
 80041e8:	2303      	movs	r3, #3
 80041ea:	e015      	b.n	8004218 <HAL_DMA_Abort+0xd8>
    while((hdma->Instance->CR & DMA_SxCR_EN) != RESET)
 80041ec:	687b      	ldr	r3, [r7, #4]
 80041ee:	681b      	ldr	r3, [r3, #0]
 80041f0:	681b      	ldr	r3, [r3, #0]
 80041f2:	f003 0301 	and.w	r3, r3, #1
 80041f6:	2b00      	cmp	r3, #0
 80041f8:	d1e4      	bne.n	80041c4 <HAL_DMA_Abort+0x84>
      }
    }
    
    /* Clear all interrupt flags at correct offset within the register */
    regs->IFCR = 0x3FU << hdma->StreamIndex;
 80041fa:	687b      	ldr	r3, [r7, #4]
 80041fc:	6ddb      	ldr	r3, [r3, #92]	; 0x5c
 80041fe:	223f      	movs	r2, #63	; 0x3f
 8004200:	409a      	lsls	r2, r3
 8004202:	68fb      	ldr	r3, [r7, #12]
 8004204:	609a      	str	r2, [r3, #8]
    
    /* Change the DMA state*/
    hdma->State = HAL_DMA_STATE_READY;
 8004206:	687b      	ldr	r3, [r7, #4]
 8004208:	2201      	movs	r2, #1
 800420a:	f883 2035 	strb.w	r2, [r3, #53]	; 0x35
    
    /* Process Unlocked */
    __HAL_UNLOCK(hdma);
 800420e:	687b      	ldr	r3, [r7, #4]
 8004210:	2200      	movs	r2, #0
 8004212:	f883 2034 	strb.w	r2, [r3, #52]	; 0x34
  }
  return HAL_OK;
 8004216:	2300      	movs	r3, #0
}
 8004218:	4618      	mov	r0, r3
 800421a:	3710      	adds	r7, #16
 800421c:	46bd      	mov	sp, r7
 800421e:	bd80      	pop	{r7, pc}

08004220 <HAL_DMA_Abort_IT>:
  * @param  hdma   pointer to a DMA_HandleTypeDef structure that contains
  *                 the configuration information for the specified DMA Stream.
  * @retval HAL status
  */
HAL_StatusTypeDef HAL_DMA_Abort_IT(DMA_HandleTypeDef *hdma)
{
 8004220:	b480      	push	{r7}
 8004222:	b083      	sub	sp, #12
 8004224:	af00      	add	r7, sp, #0
 8004226:	6078      	str	r0, [r7, #4]
  if(hdma->State != HAL_DMA_STATE_BUSY)
 8004228:	687b      	ldr	r3, [r7, #4]
 800422a:	f893 3035 	ldrb.w	r3, [r3, #53]	; 0x35
 800422e:	b2db      	uxtb	r3, r3
 8004230:	2b02      	cmp	r3, #2
 8004232:	d004      	beq.n	800423e <HAL_DMA_Abort_IT+0x1e>
  {
    hdma->ErrorCode = HAL_DMA_ERROR_NO_XFER;
 8004234:	687b      	ldr	r3, [r7, #4]
 8004236:	2280      	movs	r2, #128	; 0x80
 8004238:	655a      	str	r2, [r3, #84]	; 0x54
    return HAL_ERROR;
 800423a:	2301      	movs	r3, #1
 800423c:	e00c      	b.n	8004258 <HAL_DMA_Abort_IT+0x38>
  }
  else
  {
    /* Set Abort State  */
    hdma->State = HAL_DMA_STATE_ABORT;
 800423e:	687b      	ldr	r3, [r7, #4]
 8004240:	2205      	movs	r2, #5
 8004242:	f883 2035 	strb.w	r2, [r3, #53]	; 0x35
    
    /* Disable the stream */
    __HAL_DMA_DISABLE(hdma);
 8004246:	687b      	ldr	r3, [r7, #4]
 8004248:	681b      	ldr	r3, [r3, #0]
 800424a:	681a      	ldr	r2, [r3, #0]
 800424c:	687b      	ldr	r3, [r7, #4]
 800424e:	681b      	ldr	r3, [r3, #0]
 8004250:	f022 0201 	bic.w	r2, r2, #1
 8004254:	601a      	str	r2, [r3, #0]
  }

  return HAL_OK;
 8004256:	2300      	movs	r3, #0
}
 8004258:	4618      	mov	r0, r3
 800425a:	370c      	adds	r7, #12
 800425c:	46bd      	mov	sp, r7
 800425e:	f85d 7b04 	ldr.w	r7, [sp], #4
 8004262:	4770      	bx	lr

08004264 <HAL_DMA_IRQHandler>:
  * @param  hdma pointer to a DMA_HandleTypeDef structure that contains
  *               the configuration information for the specified DMA Stream.  
  * @retval None
  */
void HAL_DMA_IRQHandler(DMA_HandleTypeDef *hdma)
{
 8004264:	b580      	push	{r7, lr}
 8004266:	b086      	sub	sp, #24
 8004268:	af00      	add	r7, sp, #0
 800426a:	6078      	str	r0, [r7, #4]
  uint32_t tmpisr;
  __IO uint32_t count = 0U;
 800426c:	2300      	movs	r3, #0
 800426e:	60bb      	str	r3, [r7, #8]
  uint32_t timeout = SystemCoreClock / 9600U;
 8004270:	4b8e      	ldr	r3, [pc, #568]	; (80044ac <HAL_DMA_IRQHandler+0x248>)
 8004272:	681b      	ldr	r3, [r3, #0]
 8004274:	4a8e      	ldr	r2, [pc, #568]	; (80044b0 <HAL_DMA_IRQHandler+0x24c>)
 8004276:	fba2 2303 	umull	r2, r3, r2, r3
 800427a:	0a9b      	lsrs	r3, r3, #10
 800427c:	617b      	str	r3, [r7, #20]

  /* calculate DMA base and stream number */
  DMA_Base_Registers *regs = (DMA_Base_Registers *)hdma->StreamBaseAddress;
 800427e:	687b      	ldr	r3, [r7, #4]
 8004280:	6d9b      	ldr	r3, [r3, #88]	; 0x58
 8004282:	613b      	str	r3, [r7, #16]

  tmpisr = regs->ISR;
 8004284:	693b      	ldr	r3, [r7, #16]
 8004286:	681b      	ldr	r3, [r3, #0]
 8004288:	60fb      	str	r3, [r7, #12]

  /* Transfer Error Interrupt management ***************************************/
  if ((tmpisr & (DMA_FLAG_TEIF0_4 << hdma->StreamIndex)) != RESET)
 800428a:	687b      	ldr	r3, [r7, #4]
 800428c:	6ddb      	ldr	r3, [r3, #92]	; 0x5c
 800428e:	2208      	movs	r2, #8
 8004290:	409a      	lsls	r2, r3
 8004292:	68fb      	ldr	r3, [r7, #12]
 8004294:	4013      	ands	r3, r2
 8004296:	2b00      	cmp	r3, #0
 8004298:	d01a      	beq.n	80042d0 <HAL_DMA_IRQHandler+0x6c>
  {
    if(__HAL_DMA_GET_IT_SOURCE(hdma, DMA_IT_TE) != RESET)
 800429a:	687b      	ldr	r3, [r7, #4]
 800429c:	681b      	ldr	r3, [r3, #0]
 800429e:	681b      	ldr	r3, [r3, #0]
 80042a0:	f003 0304 	and.w	r3, r3, #4
 80042a4:	2b00      	cmp	r3, #0
 80042a6:	d013      	beq.n	80042d0 <HAL_DMA_IRQHandler+0x6c>
    {
      /* Disable the transfer error interrupt */
      hdma->Instance->CR  &= ~(DMA_IT_TE);
 80042a8:	687b      	ldr	r3, [r7, #4]
 80042aa:	681b      	ldr	r3, [r3, #0]
 80042ac:	681a      	ldr	r2, [r3, #0]
 80042ae:	687b      	ldr	r3, [r7, #4]
 80042b0:	681b      	ldr	r3, [r3, #0]
 80042b2:	f022 0204 	bic.w	r2, r2, #4
 80042b6:	601a      	str	r2, [r3, #0]
      
      /* Clear the transfer error flag */
      regs->IFCR = DMA_FLAG_TEIF0_4 << hdma->StreamIndex;
 80042b8:	687b      	ldr	r3, [r7, #4]
 80042ba:	6ddb      	ldr	r3, [r3, #92]	; 0x5c
 80042bc:	2208      	movs	r2, #8
 80042be:	409a      	lsls	r2, r3
 80042c0:	693b      	ldr	r3, [r7, #16]
 80042c2:	609a      	str	r2, [r3, #8]
      
      /* Update error code */
      hdma->ErrorCode |= HAL_DMA_ERROR_TE;
 80042c4:	687b      	ldr	r3, [r7, #4]
 80042c6:	6d5b      	ldr	r3, [r3, #84]	; 0x54
 80042c8:	f043 0201 	orr.w	r2, r3, #1
 80042cc:	687b      	ldr	r3, [r7, #4]
 80042ce:	655a      	str	r2, [r3, #84]	; 0x54
    }
  }
  /* FIFO Error Interrupt management ******************************************/
  if ((tmpisr & (DMA_FLAG_FEIF0_4 << hdma->StreamIndex)) != RESET)
 80042d0:	687b      	ldr	r3, [r7, #4]
 80042d2:	6ddb      	ldr	r3, [r3, #92]	; 0x5c
 80042d4:	2201      	movs	r2, #1
 80042d6:	409a      	lsls	r2, r3
 80042d8:	68fb      	ldr	r3, [r7, #12]
 80042da:	4013      	ands	r3, r2
 80042dc:	2b00      	cmp	r3, #0
 80042de:	d012      	beq.n	8004306 <HAL_DMA_IRQHandler+0xa2>
  {
    if(__HAL_DMA_GET_IT_SOURCE(hdma, DMA_IT_FE) != RESET)
 80042e0:	687b      	ldr	r3, [r7, #4]
 80042e2:	681b      	ldr	r3, [r3, #0]
 80042e4:	695b      	ldr	r3, [r3, #20]
 80042e6:	f003 0380 	and.w	r3, r3, #128	; 0x80
 80042ea:	2b00      	cmp	r3, #0
 80042ec:	d00b      	beq.n	8004306 <HAL_DMA_IRQHandler+0xa2>
    {
      /* Clear the FIFO error flag */
      regs->IFCR = DMA_FLAG_FEIF0_4 << hdma->StreamIndex;
 80042ee:	687b      	ldr	r3, [r7, #4]
 80042f0:	6ddb      	ldr	r3, [r3, #92]	; 0x5c
 80042f2:	2201      	movs	r2, #1
 80042f4:	409a      	lsls	r2, r3
 80042f6:	693b      	ldr	r3, [r7, #16]
 80042f8:	609a      	str	r2, [r3, #8]

      /* Update error code */
      hdma->ErrorCode |= HAL_DMA_ERROR_FE;
 80042fa:	687b      	ldr	r3, [r7, #4]
 80042fc:	6d5b      	ldr	r3, [r3, #84]	; 0x54
 80042fe:	f043 0202 	orr.w	r2, r3, #2
 8004302:	687b      	ldr	r3, [r7, #4]
 8004304:	655a      	str	r2, [r3, #84]	; 0x54
    }
  }
  /* Direct Mode Error Interrupt management ***********************************/
  if ((tmpisr & (DMA_FLAG_DMEIF0_4 << hdma->StreamIndex)) != RESET)
 8004306:	687b      	ldr	r3, [r7, #4]
 8004308:	6ddb      	ldr	r3, [r3, #92]	; 0x5c
 800430a:	2204      	movs	r2, #4
 800430c:	409a      	lsls	r2, r3
 800430e:	68fb      	ldr	r3, [r7, #12]
 8004310:	4013      	ands	r3, r2
 8004312:	2b00      	cmp	r3, #0
 8004314:	d012      	beq.n	800433c <HAL_DMA_IRQHandler+0xd8>
  {
    if(__HAL_DMA_GET_IT_SOURCE(hdma, DMA_IT_DME) != RESET)
 8004316:	687b      	ldr	r3, [r7, #4]
 8004318:	681b      	ldr	r3, [r3, #0]
 800431a:	681b      	ldr	r3, [r3, #0]
 800431c:	f003 0302 	and.w	r3, r3, #2
 8004320:	2b00      	cmp	r3, #0
 8004322:	d00b      	beq.n	800433c <HAL_DMA_IRQHandler+0xd8>
    {
      /* Clear the direct mode error flag */
      regs->IFCR = DMA_FLAG_DMEIF0_4 << hdma->StreamIndex;
 8004324:	687b      	ldr	r3, [r7, #4]
 8004326:	6ddb      	ldr	r3, [r3, #92]	; 0x5c
 8004328:	2204      	movs	r2, #4
 800432a:	409a      	lsls	r2, r3
 800432c:	693b      	ldr	r3, [r7, #16]
 800432e:	609a      	str	r2, [r3, #8]

      /* Update error code */
      hdma->ErrorCode |= HAL_DMA_ERROR_DME;
 8004330:	687b      	ldr	r3, [r7, #4]
 8004332:	6d5b      	ldr	r3, [r3, #84]	; 0x54
 8004334:	f043 0204 	orr.w	r2, r3, #4
 8004338:	687b      	ldr	r3, [r7, #4]
 800433a:	655a      	str	r2, [r3, #84]	; 0x54
    }
  }
  /* Half Transfer Complete Interrupt management ******************************/
  if ((tmpisr & (DMA_FLAG_HTIF0_4 << hdma->StreamIndex)) != RESET)
 800433c:	687b      	ldr	r3, [r7, #4]
 800433e:	6ddb      	ldr	r3, [r3, #92]	; 0x5c
 8004340:	2210      	movs	r2, #16
 8004342:	409a      	lsls	r2, r3
 8004344:	68fb      	ldr	r3, [r7, #12]
 8004346:	4013      	ands	r3, r2
 8004348:	2b00      	cmp	r3, #0
 800434a:	d043      	beq.n	80043d4 <HAL_DMA_IRQHandler+0x170>
  {
    if(__HAL_DMA_GET_IT_SOURCE(hdma, DMA_IT_HT) != RESET)
 800434c:	687b      	ldr	r3, [r7, #4]
 800434e:	681b      	ldr	r3, [r3, #0]
 8004350:	681b      	ldr	r3, [r3, #0]
 8004352:	f003 0308 	and.w	r3, r3, #8
 8004356:	2b00      	cmp	r3, #0
 8004358:	d03c      	beq.n	80043d4 <HAL_DMA_IRQHandler+0x170>
    {
      /* Clear the half transfer complete flag */
      regs->IFCR = DMA_FLAG_HTIF0_4 << hdma->StreamIndex;
 800435a:	687b      	ldr	r3, [r7, #4]
 800435c:	6ddb      	ldr	r3, [r3, #92]	; 0x5c
 800435e:	2210      	movs	r2, #16
 8004360:	409a      	lsls	r2, r3
 8004362:	693b      	ldr	r3, [r7, #16]
 8004364:	609a      	str	r2, [r3, #8]
      
      /* Multi_Buffering mode enabled */
      if(((hdma->Instance->CR) & (uint32_t)(DMA_SxCR_DBM)) != RESET)
 8004366:	687b      	ldr	r3, [r7, #4]
 8004368:	681b      	ldr	r3, [r3, #0]
 800436a:	681b      	ldr	r3, [r3, #0]
 800436c:	f403 2380 	and.w	r3, r3, #262144	; 0x40000
 8004370:	2b00      	cmp	r3, #0
 8004372:	d018      	beq.n	80043a6 <HAL_DMA_IRQHandler+0x142>
      {
        /* Current memory buffer used is Memory 0 */
        if((hdma->Instance->CR & DMA_SxCR_CT) == RESET)
 8004374:	687b      	ldr	r3, [r7, #4]
 8004376:	681b      	ldr	r3, [r3, #0]
 8004378:	681b      	ldr	r3, [r3, #0]
 800437a:	f403 2300 	and.w	r3, r3, #524288	; 0x80000
 800437e:	2b00      	cmp	r3, #0
 8004380:	d108      	bne.n	8004394 <HAL_DMA_IRQHandler+0x130>
        {
          if(hdma->XferHalfCpltCallback != NULL)
 8004382:	687b      	ldr	r3, [r7, #4]
 8004384:	6c1b      	ldr	r3, [r3, #64]	; 0x40
 8004386:	2b00      	cmp	r3, #0
 8004388:	d024      	beq.n	80043d4 <HAL_DMA_IRQHandler+0x170>
          {
            /* Half transfer callback */
            hdma->XferHalfCpltCallback(hdma);
 800438a:	687b      	ldr	r3, [r7, #4]
 800438c:	6c1b      	ldr	r3, [r3, #64]	; 0x40
 800438e:	6878      	ldr	r0, [r7, #4]
 8004390:	4798      	blx	r3
 8004392:	e01f      	b.n	80043d4 <HAL_DMA_IRQHandler+0x170>
          }
        }
        /* Current memory buffer used is Memory 1 */
        else
        {
          if(hdma->XferM1HalfCpltCallback != NULL)
 8004394:	687b      	ldr	r3, [r7, #4]
 8004396:	6c9b      	ldr	r3, [r3, #72]	; 0x48
 8004398:	2b00      	cmp	r3, #0
 800439a:	d01b      	beq.n	80043d4 <HAL_DMA_IRQHandler+0x170>
          {
            /* Half transfer callback */
            hdma->XferM1HalfCpltCallback(hdma);
 800439c:	687b      	ldr	r3, [r7, #4]
 800439e:	6c9b      	ldr	r3, [r3, #72]	; 0x48
 80043a0:	6878      	ldr	r0, [r7, #4]
 80043a2:	4798      	blx	r3
 80043a4:	e016      	b.n	80043d4 <HAL_DMA_IRQHandler+0x170>
        }
      }
      else
      {
        /* Disable the half transfer interrupt if the DMA mode is not CIRCULAR */
        if((hdma->Instance->CR & DMA_SxCR_CIRC) == RESET)
 80043a6:	687b      	ldr	r3, [r7, #4]
 80043a8:	681b      	ldr	r3, [r3, #0]
 80043aa:	681b      	ldr	r3, [r3, #0]
 80043ac:	f403 7380 	and.w	r3, r3, #256	; 0x100
 80043b0:	2b00      	cmp	r3, #0
 80043b2:	d107      	bne.n	80043c4 <HAL_DMA_IRQHandler+0x160>
        {
          /* Disable the half transfer interrupt */
          hdma->Instance->CR  &= ~(DMA_IT_HT);
 80043b4:	687b      	ldr	r3, [r7, #4]
 80043b6:	681b      	ldr	r3, [r3, #0]
 80043b8:	681a      	ldr	r2, [r3, #0]
 80043ba:	687b      	ldr	r3, [r7, #4]
 80043bc:	681b      	ldr	r3, [r3, #0]
 80043be:	f022 0208 	bic.w	r2, r2, #8
 80043c2:	601a      	str	r2, [r3, #0]
        }
        
        if(hdma->XferHalfCpltCallback != NULL)
 80043c4:	687b      	ldr	r3, [r7, #4]
 80043c6:	6c1b      	ldr	r3, [r3, #64]	; 0x40
 80043c8:	2b00      	cmp	r3, #0
 80043ca:	d003      	beq.n	80043d4 <HAL_DMA_IRQHandler+0x170>
        {
          /* Half transfer callback */
          hdma->XferHalfCpltCallback(hdma);
 80043cc:	687b      	ldr	r3, [r7, #4]
 80043ce:	6c1b      	ldr	r3, [r3, #64]	; 0x40
 80043d0:	6878      	ldr	r0, [r7, #4]
 80043d2:	4798      	blx	r3
        }
      }
    }
  }
  /* Transfer Complete Interrupt management ***********************************/
  if ((tmpisr & (DMA_FLAG_TCIF0_4 << hdma->StreamIndex)) != RESET)
 80043d4:	687b      	ldr	r3, [r7, #4]
 80043d6:	6ddb      	ldr	r3, [r3, #92]	; 0x5c
 80043d8:	2220      	movs	r2, #32
 80043da:	409a      	lsls	r2, r3
 80043dc:	68fb      	ldr	r3, [r7, #12]
 80043de:	4013      	ands	r3, r2
 80043e0:	2b00      	cmp	r3, #0
 80043e2:	f000 808f 	beq.w	8004504 <HAL_DMA_IRQHandler+0x2a0>
  {
    if(__HAL_DMA_GET_IT_SOURCE(hdma, DMA_IT_TC) != RESET)
 80043e6:	687b      	ldr	r3, [r7, #4]
 80043e8:	681b      	ldr	r3, [r3, #0]
 80043ea:	681b      	ldr	r3, [r3, #0]
 80043ec:	f003 0310 	and.w	r3, r3, #16
 80043f0:	2b00      	cmp	r3, #0
 80043f2:	f000 8087 	beq.w	8004504 <HAL_DMA_IRQHandler+0x2a0>
    {
      /* Clear the transfer complete flag */
      regs->IFCR = DMA_FLAG_TCIF0_4 << hdma->StreamIndex;
 80043f6:	687b      	ldr	r3, [r7, #4]
 80043f8:	6ddb      	ldr	r3, [r3, #92]	; 0x5c
 80043fa:	2220      	movs	r2, #32
 80043fc:	409a      	lsls	r2, r3
 80043fe:	693b      	ldr	r3, [r7, #16]
 8004400:	609a      	str	r2, [r3, #8]
      
      if(HAL_DMA_STATE_ABORT == hdma->State)
 8004402:	687b      	ldr	r3, [r7, #4]
 8004404:	f893 3035 	ldrb.w	r3, [r3, #53]	; 0x35
 8004408:	b2db      	uxtb	r3, r3
 800440a:	2b05      	cmp	r3, #5
 800440c:	d136      	bne.n	800447c <HAL_DMA_IRQHandler+0x218>
      {
        /* Disable all the transfer interrupts */
        hdma->Instance->CR  &= ~(DMA_IT_TC | DMA_IT_TE | DMA_IT_DME);
 800440e:	687b      	ldr	r3, [r7, #4]
 8004410:	681b      	ldr	r3, [r3, #0]
 8004412:	681a      	ldr	r2, [r3, #0]
 8004414:	687b      	ldr	r3, [r7, #4]
 8004416:	681b      	ldr	r3, [r3, #0]
 8004418:	f022 0216 	bic.w	r2, r2, #22
 800441c:	601a      	str	r2, [r3, #0]
        hdma->Instance->FCR &= ~(DMA_IT_FE);
 800441e:	687b      	ldr	r3, [r7, #4]
 8004420:	681b      	ldr	r3, [r3, #0]
 8004422:	695a      	ldr	r2, [r3, #20]
 8004424:	687b      	ldr	r3, [r7, #4]
 8004426:	681b      	ldr	r3, [r3, #0]
 8004428:	f022 0280 	bic.w	r2, r2, #128	; 0x80
 800442c:	615a      	str	r2, [r3, #20]
        
        if((hdma->XferHalfCpltCallback != NULL) || (hdma->XferM1HalfCpltCallback != NULL))
 800442e:	687b      	ldr	r3, [r7, #4]
 8004430:	6c1b      	ldr	r3, [r3, #64]	; 0x40
 8004432:	2b00      	cmp	r3, #0
 8004434:	d103      	bne.n	800443e <HAL_DMA_IRQHandler+0x1da>
 8004436:	687b      	ldr	r3, [r7, #4]
 8004438:	6c9b      	ldr	r3, [r3, #72]	; 0x48
 800443a:	2b00      	cmp	r3, #0
 800443c:	d007      	beq.n	800444e <HAL_DMA_IRQHandler+0x1ea>
        {
          hdma->Instance->CR  &= ~(DMA_IT_HT);
 800443e:	687b      	ldr	r3, [r7, #4]
 8004440:	681b      	ldr	r3, [r3, #0]
 8004442:	681a      	ldr	r2, [r3, #0]
 8004444:	687b      	ldr	r3, [r7, #4]
 8004446:	681b      	ldr	r3, [r3, #0]
 8004448:	f022 0208 	bic.w	r2, r2, #8
 800444c:	601a      	str	r2, [r3, #0]
        }

        /* Clear all interrupt flags at correct offset within the register */
        regs->IFCR = 0x3FU << hdma->StreamIndex;
 800444e:	687b      	ldr	r3, [r7, #4]
 8004450:	6ddb      	ldr	r3, [r3, #92]	; 0x5c
 8004452:	223f      	movs	r2, #63	; 0x3f
 8004454:	409a      	lsls	r2, r3
 8004456:	693b      	ldr	r3, [r7, #16]
 8004458:	609a      	str	r2, [r3, #8]

        /* Change the DMA state */
        hdma->State = HAL_DMA_STATE_READY;
 800445a:	687b      	ldr	r3, [r7, #4]
 800445c:	2201      	movs	r2, #1
 800445e:	f883 2035 	strb.w	r2, [r3, #53]	; 0x35

        /* Process Unlocked */
        __HAL_UNLOCK(hdma);
 8004462:	687b      	ldr	r3, [r7, #4]
 8004464:	2200      	movs	r2, #0
 8004466:	f883 2034 	strb.w	r2, [r3, #52]	; 0x34

        if(hdma->XferAbortCallback != NULL)
 800446a:	687b      	ldr	r3, [r7, #4]
 800446c:	6d1b      	ldr	r3, [r3, #80]	; 0x50
 800446e:	2b00      	cmp	r3, #0
 8004470:	d07e      	beq.n	8004570 <HAL_DMA_IRQHandler+0x30c>
        {
          hdma->XferAbortCallback(hdma);
 8004472:	687b      	ldr	r3, [r7, #4]
 8004474:	6d1b      	ldr	r3, [r3, #80]	; 0x50
 8004476:	6878      	ldr	r0, [r7, #4]
 8004478:	4798      	blx	r3
        }
        return;
 800447a:	e079      	b.n	8004570 <HAL_DMA_IRQHandler+0x30c>
      }

      if(((hdma->Instance->CR) & (uint32_t)(DMA_SxCR_DBM)) != RESET)
 800447c:	687b      	ldr	r3, [r7, #4]
 800447e:	681b      	ldr	r3, [r3, #0]
 8004480:	681b      	ldr	r3, [r3, #0]
 8004482:	f403 2380 	and.w	r3, r3, #262144	; 0x40000
 8004486:	2b00      	cmp	r3, #0
 8004488:	d01d      	beq.n	80044c6 <HAL_DMA_IRQHandler+0x262>
      {
        /* Current memory buffer used is Memory 0 */
        if((hdma->Instance->CR & DMA_SxCR_CT) == RESET)
 800448a:	687b      	ldr	r3, [r7, #4]
 800448c:	681b      	ldr	r3, [r3, #0]
 800448e:	681b      	ldr	r3, [r3, #0]
 8004490:	f403 2300 	and.w	r3, r3, #524288	; 0x80000
 8004494:	2b00      	cmp	r3, #0
 8004496:	d10d      	bne.n	80044b4 <HAL_DMA_IRQHandler+0x250>
        {
          if(hdma->XferM1CpltCallback != NULL)
 8004498:	687b      	ldr	r3, [r7, #4]
 800449a:	6c5b      	ldr	r3, [r3, #68]	; 0x44
 800449c:	2b00      	cmp	r3, #0
 800449e:	d031      	beq.n	8004504 <HAL_DMA_IRQHandler+0x2a0>
          {
            /* Transfer complete Callback for memory1 */
            hdma->XferM1CpltCallback(hdma);
 80044a0:	687b      	ldr	r3, [r7, #4]
 80044a2:	6c5b      	ldr	r3, [r3, #68]	; 0x44
 80044a4:	6878      	ldr	r0, [r7, #4]
 80044a6:	4798      	blx	r3
 80044a8:	e02c      	b.n	8004504 <HAL_DMA_IRQHandler+0x2a0>
 80044aa:	bf00      	nop
 80044ac:	2000001c 	.word	0x2000001c
 80044b0:	1b4e81b5 	.word	0x1b4e81b5
          }
        }
        /* Current memory buffer used is Memory 1 */
        else
        {
          if(hdma->XferCpltCallback != NULL)
 80044b4:	687b      	ldr	r3, [r7, #4]
 80044b6:	6bdb      	ldr	r3, [r3, #60]	; 0x3c
 80044b8:	2b00      	cmp	r3, #0
 80044ba:	d023      	beq.n	8004504 <HAL_DMA_IRQHandler+0x2a0>
          {
            /* Transfer complete Callback for memory0 */
            hdma->XferCpltCallback(hdma);
 80044bc:	687b      	ldr	r3, [r7, #4]
 80044be:	6bdb      	ldr	r3, [r3, #60]	; 0x3c
 80044c0:	6878      	ldr	r0, [r7, #4]
 80044c2:	4798      	blx	r3
 80044c4:	e01e      	b.n	8004504 <HAL_DMA_IRQHandler+0x2a0>
        }
      }
      /* Disable the transfer complete interrupt if the DMA mode is not CIRCULAR */
      else
      {
        if((hdma->Instance->CR & DMA_SxCR_CIRC) == RESET)
 80044c6:	687b      	ldr	r3, [r7, #4]
 80044c8:	681b      	ldr	r3, [r3, #0]
 80044ca:	681b      	ldr	r3, [r3, #0]
 80044cc:	f403 7380 	and.w	r3, r3, #256	; 0x100
 80044d0:	2b00      	cmp	r3, #0
 80044d2:	d10f      	bne.n	80044f4 <HAL_DMA_IRQHandler+0x290>
        {
          /* Disable the transfer complete interrupt */
          hdma->Instance->CR  &= ~(DMA_IT_TC);
 80044d4:	687b      	ldr	r3, [r7, #4]
 80044d6:	681b      	ldr	r3, [r3, #0]
 80044d8:	681a      	ldr	r2, [r3, #0]
 80044da:	687b      	ldr	r3, [r7, #4]
 80044dc:	681b      	ldr	r3, [r3, #0]
 80044de:	f022 0210 	bic.w	r2, r2, #16
 80044e2:	601a      	str	r2, [r3, #0]

          /* Change the DMA state */
          hdma->State = HAL_DMA_STATE_READY;
 80044e4:	687b      	ldr	r3, [r7, #4]
 80044e6:	2201      	movs	r2, #1
 80044e8:	f883 2035 	strb.w	r2, [r3, #53]	; 0x35

          /* Process Unlocked */
          __HAL_UNLOCK(hdma);
 80044ec:	687b      	ldr	r3, [r7, #4]
 80044ee:	2200      	movs	r2, #0
 80044f0:	f883 2034 	strb.w	r2, [r3, #52]	; 0x34
        }

        if(hdma->XferCpltCallback != NULL)
 80044f4:	687b      	ldr	r3, [r7, #4]
 80044f6:	6bdb      	ldr	r3, [r3, #60]	; 0x3c
 80044f8:	2b00      	cmp	r3, #0
 80044fa:	d003      	beq.n	8004504 <HAL_DMA_IRQHandler+0x2a0>
        {
          /* Transfer complete callback */
          hdma->XferCpltCallback(hdma);
 80044fc:	687b      	ldr	r3, [r7, #4]
 80044fe:	6bdb      	ldr	r3, [r3, #60]	; 0x3c
 8004500:	6878      	ldr	r0, [r7, #4]
 8004502:	4798      	blx	r3
      }
    }
  }
  
  /* manage error case */
  if(hdma->ErrorCode != HAL_DMA_ERROR_NONE)
 8004504:	687b      	ldr	r3, [r7, #4]
 8004506:	6d5b      	ldr	r3, [r3, #84]	; 0x54
 8004508:	2b00      	cmp	r3, #0
 800450a:	d032      	beq.n	8004572 <HAL_DMA_IRQHandler+0x30e>
  {
    if((hdma->ErrorCode & HAL_DMA_ERROR_TE) != RESET)
 800450c:	687b      	ldr	r3, [r7, #4]
 800450e:	6d5b      	ldr	r3, [r3, #84]	; 0x54
 8004510:	f003 0301 	and.w	r3, r3, #1
 8004514:	2b00      	cmp	r3, #0
 8004516:	d022      	beq.n	800455e <HAL_DMA_IRQHandler+0x2fa>
    {
      hdma->State = HAL_DMA_STATE_ABORT;
 8004518:	687b      	ldr	r3, [r7, #4]
 800451a:	2205      	movs	r2, #5
 800451c:	f883 2035 	strb.w	r2, [r3, #53]	; 0x35

      /* Disable the stream */
      __HAL_DMA_DISABLE(hdma);
 8004520:	687b      	ldr	r3, [r7, #4]
 8004522:	681b      	ldr	r3, [r3, #0]
 8004524:	681a      	ldr	r2, [r3, #0]
 8004526:	687b      	ldr	r3, [r7, #4]
 8004528:	681b      	ldr	r3, [r3, #0]
 800452a:	f022 0201 	bic.w	r2, r2, #1
 800452e:	601a      	str	r2, [r3, #0]

      do
      {
        if (++count > timeout)
 8004530:	68bb      	ldr	r3, [r7, #8]
 8004532:	3301      	adds	r3, #1
 8004534:	60bb      	str	r3, [r7, #8]
 8004536:	697a      	ldr	r2, [r7, #20]
 8004538:	429a      	cmp	r2, r3
 800453a:	d307      	bcc.n	800454c <HAL_DMA_IRQHandler+0x2e8>
        {
          break;
        }
      }
      while((hdma->Instance->CR & DMA_SxCR_EN) != RESET);
 800453c:	687b      	ldr	r3, [r7, #4]
 800453e:	681b      	ldr	r3, [r3, #0]
 8004540:	681b      	ldr	r3, [r3, #0]
 8004542:	f003 0301 	and.w	r3, r3, #1
 8004546:	2b00      	cmp	r3, #0
 8004548:	d1f2      	bne.n	8004530 <HAL_DMA_IRQHandler+0x2cc>
 800454a:	e000      	b.n	800454e <HAL_DMA_IRQHandler+0x2ea>
          break;
 800454c:	bf00      	nop

      /* Change the DMA state */
      hdma->State = HAL_DMA_STATE_READY;
 800454e:	687b      	ldr	r3, [r7, #4]
 8004550:	2201      	movs	r2, #1
 8004552:	f883 2035 	strb.w	r2, [r3, #53]	; 0x35

      /* Process Unlocked */
      __HAL_UNLOCK(hdma);
 8004556:	687b      	ldr	r3, [r7, #4]
 8004558:	2200      	movs	r2, #0
 800455a:	f883 2034 	strb.w	r2, [r3, #52]	; 0x34
    }

    if(hdma->XferErrorCallback != NULL)
 800455e:	687b      	ldr	r3, [r7, #4]
 8004560:	6cdb      	ldr	r3, [r3, #76]	; 0x4c
 8004562:	2b00      	cmp	r3, #0
 8004564:	d005      	beq.n	8004572 <HAL_DMA_IRQHandler+0x30e>
    {
      /* Transfer error callback */
      hdma->XferErrorCallback(hdma);
 8004566:	687b      	ldr	r3, [r7, #4]
 8004568:	6cdb      	ldr	r3, [r3, #76]	; 0x4c
 800456a:	6878      	ldr	r0, [r7, #4]
 800456c:	4798      	blx	r3
 800456e:	e000      	b.n	8004572 <HAL_DMA_IRQHandler+0x30e>
        return;
 8004570:	bf00      	nop
    }
  }
}
 8004572:	3718      	adds	r7, #24
 8004574:	46bd      	mov	sp, r7
 8004576:	bd80      	pop	{r7, pc}

08004578 <DMA_SetConfig>:
  * @param  DstAddress The destination memory Buffer address
  * @param  DataLength The length of data to be transferred from source to destination
  * @retval HAL status
  */
static void DMA_SetConfig(DMA_HandleTypeDef *hdma, uint32_t SrcAddress, uint32_t DstAddress, uint32_t DataLength)
{
 8004578:	b480      	push	{r7}
 800457a:	b085      	sub	sp, #20
 800457c:	af00      	add	r7, sp, #0
 800457e:	60f8      	str	r0, [r7, #12]
 8004580:	60b9      	str	r1, [r7, #8]
 8004582:	607a      	str	r2, [r7, #4]
 8004584:	603b      	str	r3, [r7, #0]
  /* Clear DBM bit */
  hdma->Instance->CR &= (uint32_t)(~DMA_SxCR_DBM);
 8004586:	68fb      	ldr	r3, [r7, #12]
 8004588:	681b      	ldr	r3, [r3, #0]
 800458a:	681a      	ldr	r2, [r3, #0]
 800458c:	68fb      	ldr	r3, [r7, #12]
 800458e:	681b      	ldr	r3, [r3, #0]
 8004590:	f422 2280 	bic.w	r2, r2, #262144	; 0x40000
 8004594:	601a      	str	r2, [r3, #0]

  /* Configure DMA Stream data length */
  hdma->Instance->NDTR = DataLength;
 8004596:	68fb      	ldr	r3, [r7, #12]
 8004598:	681b      	ldr	r3, [r3, #0]
 800459a:	683a      	ldr	r2, [r7, #0]
 800459c:	605a      	str	r2, [r3, #4]

  /* Memory to Peripheral */
  if((hdma->Init.Direction) == DMA_MEMORY_TO_PERIPH)
 800459e:	68fb      	ldr	r3, [r7, #12]
 80045a0:	689b      	ldr	r3, [r3, #8]
 80045a2:	2b40      	cmp	r3, #64	; 0x40
 80045a4:	d108      	bne.n	80045b8 <DMA_SetConfig+0x40>
  {
    /* Configure DMA Stream destination address */
    hdma->Instance->PAR = DstAddress;
 80045a6:	68fb      	ldr	r3, [r7, #12]
 80045a8:	681b      	ldr	r3, [r3, #0]
 80045aa:	687a      	ldr	r2, [r7, #4]
 80045ac:	609a      	str	r2, [r3, #8]

    /* Configure DMA Stream source address */
    hdma->Instance->M0AR = SrcAddress;
 80045ae:	68fb      	ldr	r3, [r7, #12]
 80045b0:	681b      	ldr	r3, [r3, #0]
 80045b2:	68ba      	ldr	r2, [r7, #8]
 80045b4:	60da      	str	r2, [r3, #12]
    hdma->Instance->PAR = SrcAddress;

    /* Configure DMA Stream destination address */
    hdma->Instance->M0AR = DstAddress;
  }
}
 80045b6:	e007      	b.n	80045c8 <DMA_SetConfig+0x50>
    hdma->Instance->PAR = SrcAddress;
 80045b8:	68fb      	ldr	r3, [r7, #12]
 80045ba:	681b      	ldr	r3, [r3, #0]
 80045bc:	68ba      	ldr	r2, [r7, #8]
 80045be:	609a      	str	r2, [r3, #8]
    hdma->Instance->M0AR = DstAddress;
 80045c0:	68fb      	ldr	r3, [r7, #12]
 80045c2:	681b      	ldr	r3, [r3, #0]
 80045c4:	687a      	ldr	r2, [r7, #4]
 80045c6:	60da      	str	r2, [r3, #12]
}
 80045c8:	bf00      	nop
 80045ca:	3714      	adds	r7, #20
 80045cc:	46bd      	mov	sp, r7
 80045ce:	f85d 7b04 	ldr.w	r7, [sp], #4
 80045d2:	4770      	bx	lr

080045d4 <DMA_CalcBaseAndBitshift>:
  * @param  hdma       pointer to a DMA_HandleTypeDef structure that contains
  *                     the configuration information for the specified DMA Stream. 
  * @retval Stream base address
  */
static uint32_t DMA_CalcBaseAndBitshift(DMA_HandleTypeDef *hdma)
{
 80045d4:	b480      	push	{r7}
 80045d6:	b085      	sub	sp, #20
 80045d8:	af00      	add	r7, sp, #0
 80045da:	6078      	str	r0, [r7, #4]
  uint32_t stream_number = (((uint32_t)hdma->Instance & 0xFFU) - 16U) / 24U;
 80045dc:	687b      	ldr	r3, [r7, #4]
 80045de:	681b      	ldr	r3, [r3, #0]
 80045e0:	b2db      	uxtb	r3, r3
 80045e2:	3b10      	subs	r3, #16
 80045e4:	4a14      	ldr	r2, [pc, #80]	; (8004638 <DMA_CalcBaseAndBitshift+0x64>)
 80045e6:	fba2 2303 	umull	r2, r3, r2, r3
 80045ea:	091b      	lsrs	r3, r3, #4
 80045ec:	60fb      	str	r3, [r7, #12]
  
  /* lookup table for necessary bitshift of flags within status registers */
  static const uint8_t flagBitshiftOffset[8U] = {0U, 6U, 16U, 22U, 0U, 6U, 16U, 22U};
  hdma->StreamIndex = flagBitshiftOffset[stream_number];
 80045ee:	4a13      	ldr	r2, [pc, #76]	; (800463c <DMA_CalcBaseAndBitshift+0x68>)
 80045f0:	68fb      	ldr	r3, [r7, #12]
 80045f2:	4413      	add	r3, r2
 80045f4:	781b      	ldrb	r3, [r3, #0]
 80045f6:	461a      	mov	r2, r3
 80045f8:	687b      	ldr	r3, [r7, #4]
 80045fa:	65da      	str	r2, [r3, #92]	; 0x5c
  
  if (stream_number > 3U)
 80045fc:	68fb      	ldr	r3, [r7, #12]
 80045fe:	2b03      	cmp	r3, #3
 8004600:	d909      	bls.n	8004616 <DMA_CalcBaseAndBitshift+0x42>
  {
    /* return pointer to HISR and HIFCR */
    hdma->StreamBaseAddress = (((uint32_t)hdma->Instance & (uint32_t)(~0x3FFU)) + 4U);
 8004602:	687b      	ldr	r3, [r7, #4]
 8004604:	681b      	ldr	r3, [r3, #0]
 8004606:	f423 737f 	bic.w	r3, r3, #1020	; 0x3fc
 800460a:	f023 0303 	bic.w	r3, r3, #3
 800460e:	1d1a      	adds	r2, r3, #4
 8004610:	687b      	ldr	r3, [r7, #4]
 8004612:	659a      	str	r2, [r3, #88]	; 0x58
 8004614:	e007      	b.n	8004626 <DMA_CalcBaseAndBitshift+0x52>
  }
  else
  {
    /* return pointer to LISR and LIFCR */
    hdma->StreamBaseAddress = ((uint32_t)hdma->Instance & (uint32_t)(~0x3FFU));
 8004616:	687b      	ldr	r3, [r7, #4]
 8004618:	681b      	ldr	r3, [r3, #0]
 800461a:	f423 737f 	bic.w	r3, r3, #1020	; 0x3fc
 800461e:	f023 0303 	bic.w	r3, r3, #3
 8004622:	687a      	ldr	r2, [r7, #4]
 8004624:	6593      	str	r3, [r2, #88]	; 0x58
  }
  
  return hdma->StreamBaseAddress;
 8004626:	687b      	ldr	r3, [r7, #4]
 8004628:	6d9b      	ldr	r3, [r3, #88]	; 0x58
}
 800462a:	4618      	mov	r0, r3
 800462c:	3714      	adds	r7, #20
 800462e:	46bd      	mov	sp, r7
 8004630:	f85d 7b04 	ldr.w	r7, [sp], #4
 8004634:	4770      	bx	lr
 8004636:	bf00      	nop
 8004638:	aaaaaaab 	.word	0xaaaaaaab
 800463c:	08009520 	.word	0x08009520

08004640 <DMA_CheckFifoParam>:
  * @param  hdma       pointer to a DMA_HandleTypeDef structure that contains
  *                     the configuration information for the specified DMA Stream. 
  * @retval HAL status
  */
static HAL_StatusTypeDef DMA_CheckFifoParam(DMA_HandleTypeDef *hdma)
{
 8004640:	b480      	push	{r7}
 8004642:	b085      	sub	sp, #20
 8004644:	af00      	add	r7, sp, #0
 8004646:	6078      	str	r0, [r7, #4]
  HAL_StatusTypeDef status = HAL_OK;
 8004648:	2300      	movs	r3, #0
 800464a:	73fb      	strb	r3, [r7, #15]
  uint32_t tmp = hdma->Init.FIFOThreshold;
 800464c:	687b      	ldr	r3, [r7, #4]
 800464e:	6a9b      	ldr	r3, [r3, #40]	; 0x28
 8004650:	60bb      	str	r3, [r7, #8]
  
  /* Memory Data size equal to Byte */
  if(hdma->Init.MemDataAlignment == DMA_MDATAALIGN_BYTE)
 8004652:	687b      	ldr	r3, [r7, #4]
 8004654:	699b      	ldr	r3, [r3, #24]
 8004656:	2b00      	cmp	r3, #0
 8004658:	d11f      	bne.n	800469a <DMA_CheckFifoParam+0x5a>
  {
    switch (tmp)
 800465a:	68bb      	ldr	r3, [r7, #8]
 800465c:	2b03      	cmp	r3, #3
 800465e:	d856      	bhi.n	800470e <DMA_CheckFifoParam+0xce>
 8004660:	a201      	add	r2, pc, #4	; (adr r2, 8004668 <DMA_CheckFifoParam+0x28>)
 8004662:	f852 f023 	ldr.w	pc, [r2, r3, lsl #2]
 8004666:	bf00      	nop
 8004668:	08004679 	.word	0x08004679
 800466c:	0800468b 	.word	0x0800468b
 8004670:	08004679 	.word	0x08004679
 8004674:	0800470f 	.word	0x0800470f
    {
    case DMA_FIFO_THRESHOLD_1QUARTERFULL:
    case DMA_FIFO_THRESHOLD_3QUARTERSFULL:
      if ((hdma->Init.MemBurst & DMA_SxCR_MBURST_1) == DMA_SxCR_MBURST_1)
 8004678:	687b      	ldr	r3, [r7, #4]
 800467a:	6adb      	ldr	r3, [r3, #44]	; 0x2c
 800467c:	f003 7380 	and.w	r3, r3, #16777216	; 0x1000000
 8004680:	2b00      	cmp	r3, #0
 8004682:	d046      	beq.n	8004712 <DMA_CheckFifoParam+0xd2>
      {
        status = HAL_ERROR;
 8004684:	2301      	movs	r3, #1
 8004686:	73fb      	strb	r3, [r7, #15]
      }
      break;
 8004688:	e043      	b.n	8004712 <DMA_CheckFifoParam+0xd2>
    case DMA_FIFO_THRESHOLD_HALFFULL:
      if (hdma->Init.MemBurst == DMA_MBURST_INC16)
 800468a:	687b      	ldr	r3, [r7, #4]
 800468c:	6adb      	ldr	r3, [r3, #44]	; 0x2c
 800468e:	f1b3 7fc0 	cmp.w	r3, #25165824	; 0x1800000
 8004692:	d140      	bne.n	8004716 <DMA_CheckFifoParam+0xd6>
      {
        status = HAL_ERROR;
 8004694:	2301      	movs	r3, #1
 8004696:	73fb      	strb	r3, [r7, #15]
      }
      break;
 8004698:	e03d      	b.n	8004716 <DMA_CheckFifoParam+0xd6>
      break;
    }
  }
  
  /* Memory Data size equal to Half-Word */
  else if (hdma->Init.MemDataAlignment == DMA_MDATAALIGN_HALFWORD)
 800469a:	687b      	ldr	r3, [r7, #4]
 800469c:	699b      	ldr	r3, [r3, #24]
 800469e:	f5b3 5f00 	cmp.w	r3, #8192	; 0x2000
 80046a2:	d121      	bne.n	80046e8 <DMA_CheckFifoParam+0xa8>
  {
    switch (tmp)
 80046a4:	68bb      	ldr	r3, [r7, #8]
 80046a6:	2b03      	cmp	r3, #3
 80046a8:	d837      	bhi.n	800471a <DMA_CheckFifoParam+0xda>
 80046aa:	a201      	add	r2, pc, #4	; (adr r2, 80046b0 <DMA_CheckFifoParam+0x70>)
 80046ac:	f852 f023 	ldr.w	pc, [r2, r3, lsl #2]
 80046b0:	080046c1 	.word	0x080046c1
 80046b4:	080046c7 	.word	0x080046c7
 80046b8:	080046c1 	.word	0x080046c1
 80046bc:	080046d9 	.word	0x080046d9
    {
    case DMA_FIFO_THRESHOLD_1QUARTERFULL:
    case DMA_FIFO_THRESHOLD_3QUARTERSFULL:
      status = HAL_ERROR;
 80046c0:	2301      	movs	r3, #1
 80046c2:	73fb      	strb	r3, [r7, #15]
      break;
 80046c4:	e030      	b.n	8004728 <DMA_CheckFifoParam+0xe8>
    case DMA_FIFO_THRESHOLD_HALFFULL:
      if ((hdma->Init.MemBurst & DMA_SxCR_MBURST_1) == DMA_SxCR_MBURST_1)
 80046c6:	687b      	ldr	r3, [r7, #4]
 80046c8:	6adb      	ldr	r3, [r3, #44]	; 0x2c
 80046ca:	f003 7380 	and.w	r3, r3, #16777216	; 0x1000000
 80046ce:	2b00      	cmp	r3, #0
 80046d0:	d025      	beq.n	800471e <DMA_CheckFifoParam+0xde>
      {
        status = HAL_ERROR;
 80046d2:	2301      	movs	r3, #1
 80046d4:	73fb      	strb	r3, [r7, #15]
      }
      break;
 80046d6:	e022      	b.n	800471e <DMA_CheckFifoParam+0xde>
    case DMA_FIFO_THRESHOLD_FULL:
      if (hdma->Init.MemBurst == DMA_MBURST_INC16)
 80046d8:	687b      	ldr	r3, [r7, #4]
 80046da:	6adb      	ldr	r3, [r3, #44]	; 0x2c
 80046dc:	f1b3 7fc0 	cmp.w	r3, #25165824	; 0x1800000
 80046e0:	d11f      	bne.n	8004722 <DMA_CheckFifoParam+0xe2>
      {
        status = HAL_ERROR;
 80046e2:	2301      	movs	r3, #1
 80046e4:	73fb      	strb	r3, [r7, #15]
      }
      break;   
 80046e6:	e01c      	b.n	8004722 <DMA_CheckFifoParam+0xe2>
  }
  
  /* Memory Data size equal to Word */
  else
  {
    switch (tmp)
 80046e8:	68bb      	ldr	r3, [r7, #8]
 80046ea:	2b02      	cmp	r3, #2
 80046ec:	d903      	bls.n	80046f6 <DMA_CheckFifoParam+0xb6>
 80046ee:	68bb      	ldr	r3, [r7, #8]
 80046f0:	2b03      	cmp	r3, #3
 80046f2:	d003      	beq.n	80046fc <DMA_CheckFifoParam+0xbc>
      {
        status = HAL_ERROR;
      }
      break;
    default:
      break;
 80046f4:	e018      	b.n	8004728 <DMA_CheckFifoParam+0xe8>
      status = HAL_ERROR;
 80046f6:	2301      	movs	r3, #1
 80046f8:	73fb      	strb	r3, [r7, #15]
      break;
 80046fa:	e015      	b.n	8004728 <DMA_CheckFifoParam+0xe8>
      if ((hdma->Init.MemBurst & DMA_SxCR_MBURST_1) == DMA_SxCR_MBURST_1)
 80046fc:	687b      	ldr	r3, [r7, #4]
 80046fe:	6adb      	ldr	r3, [r3, #44]	; 0x2c
 8004700:	f003 7380 	and.w	r3, r3, #16777216	; 0x1000000
 8004704:	2b00      	cmp	r3, #0
 8004706:	d00e      	beq.n	8004726 <DMA_CheckFifoParam+0xe6>
        status = HAL_ERROR;
 8004708:	2301      	movs	r3, #1
 800470a:	73fb      	strb	r3, [r7, #15]
      break;
 800470c:	e00b      	b.n	8004726 <DMA_CheckFifoParam+0xe6>
      break;
 800470e:	bf00      	nop
 8004710:	e00a      	b.n	8004728 <DMA_CheckFifoParam+0xe8>
      break;
 8004712:	bf00      	nop
 8004714:	e008      	b.n	8004728 <DMA_CheckFifoParam+0xe8>
      break;
 8004716:	bf00      	nop
 8004718:	e006      	b.n	8004728 <DMA_CheckFifoParam+0xe8>
      break;
 800471a:	bf00      	nop
 800471c:	e004      	b.n	8004728 <DMA_CheckFifoParam+0xe8>
      break;
 800471e:	bf00      	nop
 8004720:	e002      	b.n	8004728 <DMA_CheckFifoParam+0xe8>
      break;   
 8004722:	bf00      	nop
 8004724:	e000      	b.n	8004728 <DMA_CheckFifoParam+0xe8>
      break;
 8004726:	bf00      	nop
    }
  } 
  
  return status; 
 8004728:	7bfb      	ldrb	r3, [r7, #15]
}
 800472a:	4618      	mov	r0, r3
 800472c:	3714      	adds	r7, #20
 800472e:	46bd      	mov	sp, r7
 8004730:	f85d 7b04 	ldr.w	r7, [sp], #4
 8004734:	4770      	bx	lr
 8004736:	bf00      	nop

08004738 <HAL_GPIO_Init>:
  * @param  GPIO_Init pointer to a GPIO_InitTypeDef structure that contains
  *         the configuration information for the specified GPIO peripheral.
  * @retval None
  */
void HAL_GPIO_Init(GPIO_TypeDef  *GPIOx, GPIO_InitTypeDef *GPIO_Init)
{
 8004738:	b480      	push	{r7}
 800473a:	b089      	sub	sp, #36	; 0x24
 800473c:	af00      	add	r7, sp, #0
 800473e:	6078      	str	r0, [r7, #4]
 8004740:	6039      	str	r1, [r7, #0]
  uint32_t position;
  uint32_t ioposition = 0x00U;
 8004742:	2300      	movs	r3, #0
 8004744:	617b      	str	r3, [r7, #20]
  uint32_t iocurrent = 0x00U;
 8004746:	2300      	movs	r3, #0
 8004748:	613b      	str	r3, [r7, #16]
  uint32_t temp = 0x00U;
 800474a:	2300      	movs	r3, #0
 800474c:	61bb      	str	r3, [r7, #24]
  assert_param(IS_GPIO_ALL_INSTANCE(GPIOx));
  assert_param(IS_GPIO_PIN(GPIO_Init->Pin));
  assert_param(IS_GPIO_MODE(GPIO_Init->Mode));

  /* Configure the port pins */
  for(position = 0U; position < GPIO_NUMBER; position++)
 800474e:	2300      	movs	r3, #0
 8004750:	61fb      	str	r3, [r7, #28]
 8004752:	e177      	b.n	8004a44 <HAL_GPIO_Init+0x30c>
  {
    /* Get the IO position */
    ioposition = 0x01U << position;
 8004754:	2201      	movs	r2, #1
 8004756:	69fb      	ldr	r3, [r7, #28]
 8004758:	fa02 f303 	lsl.w	r3, r2, r3
 800475c:	617b      	str	r3, [r7, #20]
    /* Get the current IO position */
    iocurrent = (uint32_t)(GPIO_Init->Pin) & ioposition;
 800475e:	683b      	ldr	r3, [r7, #0]
 8004760:	681b      	ldr	r3, [r3, #0]
 8004762:	697a      	ldr	r2, [r7, #20]
 8004764:	4013      	ands	r3, r2
 8004766:	613b      	str	r3, [r7, #16]

    if(iocurrent == ioposition)
 8004768:	693a      	ldr	r2, [r7, #16]
 800476a:	697b      	ldr	r3, [r7, #20]
 800476c:	429a      	cmp	r2, r3
 800476e:	f040 8166 	bne.w	8004a3e <HAL_GPIO_Init+0x306>
    {
      /*--------------------- GPIO Mode Configuration ------------------------*/
      /* In case of Output or Alternate function mode selection */
      if(((GPIO_Init->Mode & GPIO_MODE) == MODE_OUTPUT) || \
 8004772:	683b      	ldr	r3, [r7, #0]
 8004774:	685b      	ldr	r3, [r3, #4]
 8004776:	f003 0303 	and.w	r3, r3, #3
 800477a:	2b01      	cmp	r3, #1
 800477c:	d005      	beq.n	800478a <HAL_GPIO_Init+0x52>
          (GPIO_Init->Mode & GPIO_MODE) == MODE_AF)
 800477e:	683b      	ldr	r3, [r7, #0]
 8004780:	685b      	ldr	r3, [r3, #4]
 8004782:	f003 0303 	and.w	r3, r3, #3
      if(((GPIO_Init->Mode & GPIO_MODE) == MODE_OUTPUT) || \
 8004786:	2b02      	cmp	r3, #2
 8004788:	d130      	bne.n	80047ec <HAL_GPIO_Init+0xb4>
      {
        /* Check the Speed parameter */
        assert_param(IS_GPIO_SPEED(GPIO_Init->Speed));
        /* Configure the IO Speed */
        temp = GPIOx->OSPEEDR; 
 800478a:	687b      	ldr	r3, [r7, #4]
 800478c:	689b      	ldr	r3, [r3, #8]
 800478e:	61bb      	str	r3, [r7, #24]
        temp &= ~(GPIO_OSPEEDER_OSPEEDR0 << (position * 2U));
 8004790:	69fb      	ldr	r3, [r7, #28]
 8004792:	005b      	lsls	r3, r3, #1
 8004794:	2203      	movs	r2, #3
 8004796:	fa02 f303 	lsl.w	r3, r2, r3
 800479a:	43db      	mvns	r3, r3
 800479c:	69ba      	ldr	r2, [r7, #24]
 800479e:	4013      	ands	r3, r2
 80047a0:	61bb      	str	r3, [r7, #24]
        temp |= (GPIO_Init->Speed << (position * 2U));
 80047a2:	683b      	ldr	r3, [r7, #0]
 80047a4:	68da      	ldr	r2, [r3, #12]
 80047a6:	69fb      	ldr	r3, [r7, #28]
 80047a8:	005b      	lsls	r3, r3, #1
 80047aa:	fa02 f303 	lsl.w	r3, r2, r3
 80047ae:	69ba      	ldr	r2, [r7, #24]
 80047b0:	4313      	orrs	r3, r2
 80047b2:	61bb      	str	r3, [r7, #24]
        GPIOx->OSPEEDR = temp;
 80047b4:	687b      	ldr	r3, [r7, #4]
 80047b6:	69ba      	ldr	r2, [r7, #24]
 80047b8:	609a      	str	r2, [r3, #8]

        /* Configure the IO Output Type */
        temp = GPIOx->OTYPER;
 80047ba:	687b      	ldr	r3, [r7, #4]
 80047bc:	685b      	ldr	r3, [r3, #4]
 80047be:	61bb      	str	r3, [r7, #24]
        temp &= ~(GPIO_OTYPER_OT_0 << position) ;
 80047c0:	2201      	movs	r2, #1
 80047c2:	69fb      	ldr	r3, [r7, #28]
 80047c4:	fa02 f303 	lsl.w	r3, r2, r3
 80047c8:	43db      	mvns	r3, r3
 80047ca:	69ba      	ldr	r2, [r7, #24]
 80047cc:	4013      	ands	r3, r2
 80047ce:	61bb      	str	r3, [r7, #24]
        temp |= (((GPIO_Init->Mode & OUTPUT_TYPE) >> OUTPUT_TYPE_Pos) << position);
 80047d0:	683b      	ldr	r3, [r7, #0]
 80047d2:	685b      	ldr	r3, [r3, #4]
 80047d4:	091b      	lsrs	r3, r3, #4
 80047d6:	f003 0201 	and.w	r2, r3, #1
 80047da:	69fb      	ldr	r3, [r7, #28]
 80047dc:	fa02 f303 	lsl.w	r3, r2, r3
 80047e0:	69ba      	ldr	r2, [r7, #24]
 80047e2:	4313      	orrs	r3, r2
 80047e4:	61bb      	str	r3, [r7, #24]
        GPIOx->OTYPER = temp;
 80047e6:	687b      	ldr	r3, [r7, #4]
 80047e8:	69ba      	ldr	r2, [r7, #24]
 80047ea:	605a      	str	r2, [r3, #4]
       }

      if((GPIO_Init->Mode & GPIO_MODE) != MODE_ANALOG)
 80047ec:	683b      	ldr	r3, [r7, #0]
 80047ee:	685b      	ldr	r3, [r3, #4]
 80047f0:	f003 0303 	and.w	r3, r3, #3
 80047f4:	2b03      	cmp	r3, #3
 80047f6:	d017      	beq.n	8004828 <HAL_GPIO_Init+0xf0>
      {
        /* Check the parameters */
        assert_param(IS_GPIO_PULL(GPIO_Init->Pull));
        
        /* Activate the Pull-up or Pull down resistor for the current IO */
        temp = GPIOx->PUPDR;
 80047f8:	687b      	ldr	r3, [r7, #4]
 80047fa:	68db      	ldr	r3, [r3, #12]
 80047fc:	61bb      	str	r3, [r7, #24]
        temp &= ~(GPIO_PUPDR_PUPDR0 << (position * 2U));
 80047fe:	69fb      	ldr	r3, [r7, #28]
 8004800:	005b      	lsls	r3, r3, #1
 8004802:	2203      	movs	r2, #3
 8004804:	fa02 f303 	lsl.w	r3, r2, r3
 8004808:	43db      	mvns	r3, r3
 800480a:	69ba      	ldr	r2, [r7, #24]
 800480c:	4013      	ands	r3, r2
 800480e:	61bb      	str	r3, [r7, #24]
        temp |= ((GPIO_Init->Pull) << (position * 2U));
 8004810:	683b      	ldr	r3, [r7, #0]
 8004812:	689a      	ldr	r2, [r3, #8]
 8004814:	69fb      	ldr	r3, [r7, #28]
 8004816:	005b      	lsls	r3, r3, #1
 8004818:	fa02 f303 	lsl.w	r3, r2, r3
 800481c:	69ba      	ldr	r2, [r7, #24]
 800481e:	4313      	orrs	r3, r2
 8004820:	61bb      	str	r3, [r7, #24]
        GPIOx->PUPDR = temp;
 8004822:	687b      	ldr	r3, [r7, #4]
 8004824:	69ba      	ldr	r2, [r7, #24]
 8004826:	60da      	str	r2, [r3, #12]
      }

      /* In case of Alternate function mode selection */
      if((GPIO_Init->Mode & GPIO_MODE) == MODE_AF)
 8004828:	683b      	ldr	r3, [r7, #0]
 800482a:	685b      	ldr	r3, [r3, #4]
 800482c:	f003 0303 	and.w	r3, r3, #3
 8004830:	2b02      	cmp	r3, #2
 8004832:	d123      	bne.n	800487c <HAL_GPIO_Init+0x144>
      {
        /* Check the Alternate function parameter */
        assert_param(IS_GPIO_AF(GPIO_Init->Alternate));
        /* Configure Alternate function mapped with the current IO */
        temp = GPIOx->AFR[position >> 3U];
 8004834:	69fb      	ldr	r3, [r7, #28]
 8004836:	08da      	lsrs	r2, r3, #3
 8004838:	687b      	ldr	r3, [r7, #4]
 800483a:	3208      	adds	r2, #8
 800483c:	f853 3022 	ldr.w	r3, [r3, r2, lsl #2]
 8004840:	61bb      	str	r3, [r7, #24]
        temp &= ~(0xFU << ((uint32_t)(position & 0x07U) * 4U)) ;
 8004842:	69fb      	ldr	r3, [r7, #28]
 8004844:	f003 0307 	and.w	r3, r3, #7
 8004848:	009b      	lsls	r3, r3, #2
 800484a:	220f      	movs	r2, #15
 800484c:	fa02 f303 	lsl.w	r3, r2, r3
 8004850:	43db      	mvns	r3, r3
 8004852:	69ba      	ldr	r2, [r7, #24]
 8004854:	4013      	ands	r3, r2
 8004856:	61bb      	str	r3, [r7, #24]
        temp |= ((uint32_t)(GPIO_Init->Alternate) << (((uint32_t)position & 0x07U) * 4U));
 8004858:	683b      	ldr	r3, [r7, #0]
 800485a:	691a      	ldr	r2, [r3, #16]
 800485c:	69fb      	ldr	r3, [r7, #28]
 800485e:	f003 0307 	and.w	r3, r3, #7
 8004862:	009b      	lsls	r3, r3, #2
 8004864:	fa02 f303 	lsl.w	r3, r2, r3
 8004868:	69ba      	ldr	r2, [r7, #24]
 800486a:	4313      	orrs	r3, r2
 800486c:	61bb      	str	r3, [r7, #24]
        GPIOx->AFR[position >> 3U] = temp;
 800486e:	69fb      	ldr	r3, [r7, #28]
 8004870:	08da      	lsrs	r2, r3, #3
 8004872:	687b      	ldr	r3, [r7, #4]
 8004874:	3208      	adds	r2, #8
 8004876:	69b9      	ldr	r1, [r7, #24]
 8004878:	f843 1022 	str.w	r1, [r3, r2, lsl #2]
      }

      /* Configure IO Direction mode (Input, Output, Alternate or Analog) */
      temp = GPIOx->MODER;
 800487c:	687b      	ldr	r3, [r7, #4]
 800487e:	681b      	ldr	r3, [r3, #0]
 8004880:	61bb      	str	r3, [r7, #24]
      temp &= ~(GPIO_MODER_MODER0 << (position * 2U));
 8004882:	69fb      	ldr	r3, [r7, #28]
 8004884:	005b      	lsls	r3, r3, #1
 8004886:	2203      	movs	r2, #3
 8004888:	fa02 f303 	lsl.w	r3, r2, r3
 800488c:	43db      	mvns	r3, r3
 800488e:	69ba      	ldr	r2, [r7, #24]
 8004890:	4013      	ands	r3, r2
 8004892:	61bb      	str	r3, [r7, #24]
      temp |= ((GPIO_Init->Mode & GPIO_MODE) << (position * 2U));
 8004894:	683b      	ldr	r3, [r7, #0]
 8004896:	685b      	ldr	r3, [r3, #4]
 8004898:	f003 0203 	and.w	r2, r3, #3
 800489c:	69fb      	ldr	r3, [r7, #28]
 800489e:	005b      	lsls	r3, r3, #1
 80048a0:	fa02 f303 	lsl.w	r3, r2, r3
 80048a4:	69ba      	ldr	r2, [r7, #24]
 80048a6:	4313      	orrs	r3, r2
 80048a8:	61bb      	str	r3, [r7, #24]
      GPIOx->MODER = temp;
 80048aa:	687b      	ldr	r3, [r7, #4]
 80048ac:	69ba      	ldr	r2, [r7, #24]
 80048ae:	601a      	str	r2, [r3, #0]

      /*--------------------- EXTI Mode Configuration ------------------------*/
      /* Configure the External Interrupt or event for the current IO */
      if((GPIO_Init->Mode & EXTI_MODE) != 0x00U)
 80048b0:	683b      	ldr	r3, [r7, #0]
 80048b2:	685b      	ldr	r3, [r3, #4]
 80048b4:	f403 3340 	and.w	r3, r3, #196608	; 0x30000
 80048b8:	2b00      	cmp	r3, #0
 80048ba:	f000 80c0 	beq.w	8004a3e <HAL_GPIO_Init+0x306>
      {
        /* Enable SYSCFG Clock */
        __HAL_RCC_SYSCFG_CLK_ENABLE();
 80048be:	2300      	movs	r3, #0
 80048c0:	60fb      	str	r3, [r7, #12]
 80048c2:	4b66      	ldr	r3, [pc, #408]	; (8004a5c <HAL_GPIO_Init+0x324>)
 80048c4:	6c5b      	ldr	r3, [r3, #68]	; 0x44
 80048c6:	4a65      	ldr	r2, [pc, #404]	; (8004a5c <HAL_GPIO_Init+0x324>)
 80048c8:	f443 4380 	orr.w	r3, r3, #16384	; 0x4000
 80048cc:	6453      	str	r3, [r2, #68]	; 0x44
 80048ce:	4b63      	ldr	r3, [pc, #396]	; (8004a5c <HAL_GPIO_Init+0x324>)
 80048d0:	6c5b      	ldr	r3, [r3, #68]	; 0x44
 80048d2:	f403 4380 	and.w	r3, r3, #16384	; 0x4000
 80048d6:	60fb      	str	r3, [r7, #12]
 80048d8:	68fb      	ldr	r3, [r7, #12]

        temp = SYSCFG->EXTICR[position >> 2U];
 80048da:	4a61      	ldr	r2, [pc, #388]	; (8004a60 <HAL_GPIO_Init+0x328>)
 80048dc:	69fb      	ldr	r3, [r7, #28]
 80048de:	089b      	lsrs	r3, r3, #2
 80048e0:	3302      	adds	r3, #2
 80048e2:	f852 3023 	ldr.w	r3, [r2, r3, lsl #2]
 80048e6:	61bb      	str	r3, [r7, #24]
        temp &= ~(0x0FU << (4U * (position & 0x03U)));
 80048e8:	69fb      	ldr	r3, [r7, #28]
 80048ea:	f003 0303 	and.w	r3, r3, #3
 80048ee:	009b      	lsls	r3, r3, #2
 80048f0:	220f      	movs	r2, #15
 80048f2:	fa02 f303 	lsl.w	r3, r2, r3
 80048f6:	43db      	mvns	r3, r3
 80048f8:	69ba      	ldr	r2, [r7, #24]
 80048fa:	4013      	ands	r3, r2
 80048fc:	61bb      	str	r3, [r7, #24]
        temp |= ((uint32_t)(GPIO_GET_INDEX(GPIOx)) << (4U * (position & 0x03U)));
 80048fe:	687b      	ldr	r3, [r7, #4]
 8004900:	4a58      	ldr	r2, [pc, #352]	; (8004a64 <HAL_GPIO_Init+0x32c>)
 8004902:	4293      	cmp	r3, r2
 8004904:	d037      	beq.n	8004976 <HAL_GPIO_Init+0x23e>
 8004906:	687b      	ldr	r3, [r7, #4]
 8004908:	4a57      	ldr	r2, [pc, #348]	; (8004a68 <HAL_GPIO_Init+0x330>)
 800490a:	4293      	cmp	r3, r2
 800490c:	d031      	beq.n	8004972 <HAL_GPIO_Init+0x23a>
 800490e:	687b      	ldr	r3, [r7, #4]
 8004910:	4a56      	ldr	r2, [pc, #344]	; (8004a6c <HAL_GPIO_Init+0x334>)
 8004912:	4293      	cmp	r3, r2
 8004914:	d02b      	beq.n	800496e <HAL_GPIO_Init+0x236>
 8004916:	687b      	ldr	r3, [r7, #4]
 8004918:	4a55      	ldr	r2, [pc, #340]	; (8004a70 <HAL_GPIO_Init+0x338>)
 800491a:	4293      	cmp	r3, r2
 800491c:	d025      	beq.n	800496a <HAL_GPIO_Init+0x232>
 800491e:	687b      	ldr	r3, [r7, #4]
 8004920:	4a54      	ldr	r2, [pc, #336]	; (8004a74 <HAL_GPIO_Init+0x33c>)
 8004922:	4293      	cmp	r3, r2
 8004924:	d01f      	beq.n	8004966 <HAL_GPIO_Init+0x22e>
 8004926:	687b      	ldr	r3, [r7, #4]
 8004928:	4a53      	ldr	r2, [pc, #332]	; (8004a78 <HAL_GPIO_Init+0x340>)
 800492a:	4293      	cmp	r3, r2
 800492c:	d019      	beq.n	8004962 <HAL_GPIO_Init+0x22a>
 800492e:	687b      	ldr	r3, [r7, #4]
 8004930:	4a52      	ldr	r2, [pc, #328]	; (8004a7c <HAL_GPIO_Init+0x344>)
 8004932:	4293      	cmp	r3, r2
 8004934:	d013      	beq.n	800495e <HAL_GPIO_Init+0x226>
 8004936:	687b      	ldr	r3, [r7, #4]
 8004938:	4a51      	ldr	r2, [pc, #324]	; (8004a80 <HAL_GPIO_Init+0x348>)
 800493a:	4293      	cmp	r3, r2
 800493c:	d00d      	beq.n	800495a <HAL_GPIO_Init+0x222>
 800493e:	687b      	ldr	r3, [r7, #4]
 8004940:	4a50      	ldr	r2, [pc, #320]	; (8004a84 <HAL_GPIO_Init+0x34c>)
 8004942:	4293      	cmp	r3, r2
 8004944:	d007      	beq.n	8004956 <HAL_GPIO_Init+0x21e>
 8004946:	687b      	ldr	r3, [r7, #4]
 8004948:	4a4f      	ldr	r2, [pc, #316]	; (8004a88 <HAL_GPIO_Init+0x350>)
 800494a:	4293      	cmp	r3, r2
 800494c:	d101      	bne.n	8004952 <HAL_GPIO_Init+0x21a>
 800494e:	2309      	movs	r3, #9
 8004950:	e012      	b.n	8004978 <HAL_GPIO_Init+0x240>
 8004952:	230a      	movs	r3, #10
 8004954:	e010      	b.n	8004978 <HAL_GPIO_Init+0x240>
 8004956:	2308      	movs	r3, #8
 8004958:	e00e      	b.n	8004978 <HAL_GPIO_Init+0x240>
 800495a:	2307      	movs	r3, #7
 800495c:	e00c      	b.n	8004978 <HAL_GPIO_Init+0x240>
 800495e:	2306      	movs	r3, #6
 8004960:	e00a      	b.n	8004978 <HAL_GPIO_Init+0x240>
 8004962:	2305      	movs	r3, #5
 8004964:	e008      	b.n	8004978 <HAL_GPIO_Init+0x240>
 8004966:	2304      	movs	r3, #4
 8004968:	e006      	b.n	8004978 <HAL_GPIO_Init+0x240>
 800496a:	2303      	movs	r3, #3
 800496c:	e004      	b.n	8004978 <HAL_GPIO_Init+0x240>
 800496e:	2302      	movs	r3, #2
 8004970:	e002      	b.n	8004978 <HAL_GPIO_Init+0x240>
 8004972:	2301      	movs	r3, #1
 8004974:	e000      	b.n	8004978 <HAL_GPIO_Init+0x240>
 8004976:	2300      	movs	r3, #0
 8004978:	69fa      	ldr	r2, [r7, #28]
 800497a:	f002 0203 	and.w	r2, r2, #3
 800497e:	0092      	lsls	r2, r2, #2
 8004980:	4093      	lsls	r3, r2
 8004982:	69ba      	ldr	r2, [r7, #24]
 8004984:	4313      	orrs	r3, r2
 8004986:	61bb      	str	r3, [r7, #24]
        SYSCFG->EXTICR[position >> 2U] = temp;
 8004988:	4935      	ldr	r1, [pc, #212]	; (8004a60 <HAL_GPIO_Init+0x328>)
 800498a:	69fb      	ldr	r3, [r7, #28]
 800498c:	089b      	lsrs	r3, r3, #2
 800498e:	3302      	adds	r3, #2
 8004990:	69ba      	ldr	r2, [r7, #24]
 8004992:	f841 2023 	str.w	r2, [r1, r3, lsl #2]

        /* Clear Rising Falling edge configuration */
        temp = EXTI->RTSR;
 8004996:	4b3d      	ldr	r3, [pc, #244]	; (8004a8c <HAL_GPIO_Init+0x354>)
 8004998:	689b      	ldr	r3, [r3, #8]
 800499a:	61bb      	str	r3, [r7, #24]
        temp &= ~((uint32_t)iocurrent);
 800499c:	693b      	ldr	r3, [r7, #16]
 800499e:	43db      	mvns	r3, r3
 80049a0:	69ba      	ldr	r2, [r7, #24]
 80049a2:	4013      	ands	r3, r2
 80049a4:	61bb      	str	r3, [r7, #24]
        if((GPIO_Init->Mode & TRIGGER_RISING) != 0x00U)
 80049a6:	683b      	ldr	r3, [r7, #0]
 80049a8:	685b      	ldr	r3, [r3, #4]
 80049aa:	f403 1380 	and.w	r3, r3, #1048576	; 0x100000
 80049ae:	2b00      	cmp	r3, #0
 80049b0:	d003      	beq.n	80049ba <HAL_GPIO_Init+0x282>
        {
          temp |= iocurrent;
 80049b2:	69ba      	ldr	r2, [r7, #24]
 80049b4:	693b      	ldr	r3, [r7, #16]
 80049b6:	4313      	orrs	r3, r2
 80049b8:	61bb      	str	r3, [r7, #24]
        }
        EXTI->RTSR = temp;
 80049ba:	4a34      	ldr	r2, [pc, #208]	; (8004a8c <HAL_GPIO_Init+0x354>)
 80049bc:	69bb      	ldr	r3, [r7, #24]
 80049be:	6093      	str	r3, [r2, #8]

        temp = EXTI->FTSR;
 80049c0:	4b32      	ldr	r3, [pc, #200]	; (8004a8c <HAL_GPIO_Init+0x354>)
 80049c2:	68db      	ldr	r3, [r3, #12]
 80049c4:	61bb      	str	r3, [r7, #24]
        temp &= ~((uint32_t)iocurrent);
 80049c6:	693b      	ldr	r3, [r7, #16]
 80049c8:	43db      	mvns	r3, r3
 80049ca:	69ba      	ldr	r2, [r7, #24]
 80049cc:	4013      	ands	r3, r2
 80049ce:	61bb      	str	r3, [r7, #24]
        if((GPIO_Init->Mode & TRIGGER_FALLING) != 0x00U)
 80049d0:	683b      	ldr	r3, [r7, #0]
 80049d2:	685b      	ldr	r3, [r3, #4]
 80049d4:	f403 1300 	and.w	r3, r3, #2097152	; 0x200000
 80049d8:	2b00      	cmp	r3, #0
 80049da:	d003      	beq.n	80049e4 <HAL_GPIO_Init+0x2ac>
        {
          temp |= iocurrent;
 80049dc:	69ba      	ldr	r2, [r7, #24]
 80049de:	693b      	ldr	r3, [r7, #16]
 80049e0:	4313      	orrs	r3, r2
 80049e2:	61bb      	str	r3, [r7, #24]
        }
        EXTI->FTSR = temp;
 80049e4:	4a29      	ldr	r2, [pc, #164]	; (8004a8c <HAL_GPIO_Init+0x354>)
 80049e6:	69bb      	ldr	r3, [r7, #24]
 80049e8:	60d3      	str	r3, [r2, #12]

        temp = EXTI->EMR;
 80049ea:	4b28      	ldr	r3, [pc, #160]	; (8004a8c <HAL_GPIO_Init+0x354>)
 80049ec:	685b      	ldr	r3, [r3, #4]
 80049ee:	61bb      	str	r3, [r7, #24]
        temp &= ~((uint32_t)iocurrent);
 80049f0:	693b      	ldr	r3, [r7, #16]
 80049f2:	43db      	mvns	r3, r3
 80049f4:	69ba      	ldr	r2, [r7, #24]
 80049f6:	4013      	ands	r3, r2
 80049f8:	61bb      	str	r3, [r7, #24]
        if((GPIO_Init->Mode & EXTI_EVT) != 0x00U)
 80049fa:	683b      	ldr	r3, [r7, #0]
 80049fc:	685b      	ldr	r3, [r3, #4]
 80049fe:	f403 3300 	and.w	r3, r3, #131072	; 0x20000
 8004a02:	2b00      	cmp	r3, #0
 8004a04:	d003      	beq.n	8004a0e <HAL_GPIO_Init+0x2d6>
        {
          temp |= iocurrent;
 8004a06:	69ba      	ldr	r2, [r7, #24]
 8004a08:	693b      	ldr	r3, [r7, #16]
 8004a0a:	4313      	orrs	r3, r2
 8004a0c:	61bb      	str	r3, [r7, #24]
        }
        EXTI->EMR = temp;
 8004a0e:	4a1f      	ldr	r2, [pc, #124]	; (8004a8c <HAL_GPIO_Init+0x354>)
 8004a10:	69bb      	ldr	r3, [r7, #24]
 8004a12:	6053      	str	r3, [r2, #4]

        /* Clear EXTI line configuration */
        temp = EXTI->IMR;
 8004a14:	4b1d      	ldr	r3, [pc, #116]	; (8004a8c <HAL_GPIO_Init+0x354>)
 8004a16:	681b      	ldr	r3, [r3, #0]
 8004a18:	61bb      	str	r3, [r7, #24]
        temp &= ~((uint32_t)iocurrent);
 8004a1a:	693b      	ldr	r3, [r7, #16]
 8004a1c:	43db      	mvns	r3, r3
 8004a1e:	69ba      	ldr	r2, [r7, #24]
 8004a20:	4013      	ands	r3, r2
 8004a22:	61bb      	str	r3, [r7, #24]
        if((GPIO_Init->Mode & EXTI_IT) != 0x00U)
 8004a24:	683b      	ldr	r3, [r7, #0]
 8004a26:	685b      	ldr	r3, [r3, #4]
 8004a28:	f403 3380 	and.w	r3, r3, #65536	; 0x10000
 8004a2c:	2b00      	cmp	r3, #0
 8004a2e:	d003      	beq.n	8004a38 <HAL_GPIO_Init+0x300>
        {
          temp |= iocurrent;
 8004a30:	69ba      	ldr	r2, [r7, #24]
 8004a32:	693b      	ldr	r3, [r7, #16]
 8004a34:	4313      	orrs	r3, r2
 8004a36:	61bb      	str	r3, [r7, #24]
        }
        EXTI->IMR = temp;
 8004a38:	4a14      	ldr	r2, [pc, #80]	; (8004a8c <HAL_GPIO_Init+0x354>)
 8004a3a:	69bb      	ldr	r3, [r7, #24]
 8004a3c:	6013      	str	r3, [r2, #0]
  for(position = 0U; position < GPIO_NUMBER; position++)
 8004a3e:	69fb      	ldr	r3, [r7, #28]
 8004a40:	3301      	adds	r3, #1
 8004a42:	61fb      	str	r3, [r7, #28]
 8004a44:	69fb      	ldr	r3, [r7, #28]
 8004a46:	2b0f      	cmp	r3, #15
 8004a48:	f67f ae84 	bls.w	8004754 <HAL_GPIO_Init+0x1c>
      }
    }
  }
}
 8004a4c:	bf00      	nop
 8004a4e:	bf00      	nop
 8004a50:	3724      	adds	r7, #36	; 0x24
 8004a52:	46bd      	mov	sp, r7
 8004a54:	f85d 7b04 	ldr.w	r7, [sp], #4
 8004a58:	4770      	bx	lr
 8004a5a:	bf00      	nop
 8004a5c:	40023800 	.word	0x40023800
 8004a60:	40013800 	.word	0x40013800
 8004a64:	40020000 	.word	0x40020000
 8004a68:	40020400 	.word	0x40020400
 8004a6c:	40020800 	.word	0x40020800
 8004a70:	40020c00 	.word	0x40020c00
 8004a74:	40021000 	.word	0x40021000
 8004a78:	40021400 	.word	0x40021400
 8004a7c:	40021800 	.word	0x40021800
 8004a80:	40021c00 	.word	0x40021c00
 8004a84:	40022000 	.word	0x40022000
 8004a88:	40022400 	.word	0x40022400
 8004a8c:	40013c00 	.word	0x40013c00

08004a90 <HAL_GPIO_ReadPin>:
  * @param  GPIO_Pin specifies the port bit to read.
  *         This parameter can be GPIO_PIN_x where x can be (0..15).
  * @retval The input port pin value.
  */
GPIO_PinState HAL_GPIO_ReadPin(GPIO_TypeDef* GPIOx, uint16_t GPIO_Pin)
{
 8004a90:	b480      	push	{r7}
 8004a92:	b085      	sub	sp, #20
 8004a94:	af00      	add	r7, sp, #0
 8004a96:	6078      	str	r0, [r7, #4]
 8004a98:	460b      	mov	r3, r1
 8004a9a:	807b      	strh	r3, [r7, #2]
  GPIO_PinState bitstatus;

  /* Check the parameters */
  assert_param(IS_GPIO_PIN(GPIO_Pin));

  if((GPIOx->IDR & GPIO_Pin) != (uint32_t)GPIO_PIN_RESET)
 8004a9c:	687b      	ldr	r3, [r7, #4]
 8004a9e:	691a      	ldr	r2, [r3, #16]
 8004aa0:	887b      	ldrh	r3, [r7, #2]
 8004aa2:	4013      	ands	r3, r2
 8004aa4:	2b00      	cmp	r3, #0
 8004aa6:	d002      	beq.n	8004aae <HAL_GPIO_ReadPin+0x1e>
  {
    bitstatus = GPIO_PIN_SET;
 8004aa8:	2301      	movs	r3, #1
 8004aaa:	73fb      	strb	r3, [r7, #15]
 8004aac:	e001      	b.n	8004ab2 <HAL_GPIO_ReadPin+0x22>
  }
  else
  {
    bitstatus = GPIO_PIN_RESET;
 8004aae:	2300      	movs	r3, #0
 8004ab0:	73fb      	strb	r3, [r7, #15]
  }
  return bitstatus;
 8004ab2:	7bfb      	ldrb	r3, [r7, #15]
}
 8004ab4:	4618      	mov	r0, r3
 8004ab6:	3714      	adds	r7, #20
 8004ab8:	46bd      	mov	sp, r7
 8004aba:	f85d 7b04 	ldr.w	r7, [sp], #4
 8004abe:	4770      	bx	lr

08004ac0 <HAL_GPIO_WritePin>:
  *            @arg GPIO_PIN_RESET: to clear the port pin
  *            @arg GPIO_PIN_SET: to set the port pin
  * @retval None
  */
void HAL_GPIO_WritePin(GPIO_TypeDef* GPIOx, uint16_t GPIO_Pin, GPIO_PinState PinState)
{
 8004ac0:	b480      	push	{r7}
 8004ac2:	b083      	sub	sp, #12
 8004ac4:	af00      	add	r7, sp, #0
 8004ac6:	6078      	str	r0, [r7, #4]
 8004ac8:	460b      	mov	r3, r1
 8004aca:	807b      	strh	r3, [r7, #2]
 8004acc:	4613      	mov	r3, r2
 8004ace:	707b      	strb	r3, [r7, #1]
  /* Check the parameters */
  assert_param(IS_GPIO_PIN(GPIO_Pin));
  assert_param(IS_GPIO_PIN_ACTION(PinState));

  if(PinState != GPIO_PIN_RESET)
 8004ad0:	787b      	ldrb	r3, [r7, #1]
 8004ad2:	2b00      	cmp	r3, #0
 8004ad4:	d003      	beq.n	8004ade <HAL_GPIO_WritePin+0x1e>
  {
    GPIOx->BSRR = GPIO_Pin;
 8004ad6:	887a      	ldrh	r2, [r7, #2]
 8004ad8:	687b      	ldr	r3, [r7, #4]
 8004ada:	619a      	str	r2, [r3, #24]
  }
  else
  {
    GPIOx->BSRR = (uint32_t)GPIO_Pin << 16U;
  }
}
 8004adc:	e003      	b.n	8004ae6 <HAL_GPIO_WritePin+0x26>
    GPIOx->BSRR = (uint32_t)GPIO_Pin << 16U;
 8004ade:	887b      	ldrh	r3, [r7, #2]
 8004ae0:	041a      	lsls	r2, r3, #16
 8004ae2:	687b      	ldr	r3, [r7, #4]
 8004ae4:	619a      	str	r2, [r3, #24]
}
 8004ae6:	bf00      	nop
 8004ae8:	370c      	adds	r7, #12
 8004aea:	46bd      	mov	sp, r7
 8004aec:	f85d 7b04 	ldr.w	r7, [sp], #4
 8004af0:	4770      	bx	lr

08004af2 <HAL_GPIO_TogglePin>:
  *                      x can be (A..I) to select the GPIO peripheral for STM32F40XX and STM32F427X devices.
  * @param  GPIO_Pin Specifies the pins to be toggled.
  * @retval None
  */
void HAL_GPIO_TogglePin(GPIO_TypeDef* GPIOx, uint16_t GPIO_Pin)
{
 8004af2:	b480      	push	{r7}
 8004af4:	b085      	sub	sp, #20
 8004af6:	af00      	add	r7, sp, #0
 8004af8:	6078      	str	r0, [r7, #4]
 8004afa:	460b      	mov	r3, r1
 8004afc:	807b      	strh	r3, [r7, #2]

  /* Check the parameters */
  assert_param(IS_GPIO_PIN(GPIO_Pin));

  /* get current Output Data Register value */
  odr = GPIOx->ODR;
 8004afe:	687b      	ldr	r3, [r7, #4]
 8004b00:	695b      	ldr	r3, [r3, #20]
 8004b02:	60fb      	str	r3, [r7, #12]

  /* Set selected pins that were at low level, and reset ones that were high */
  GPIOx->BSRR = ((odr & GPIO_Pin) << GPIO_NUMBER) | (~odr & GPIO_Pin);
 8004b04:	887a      	ldrh	r2, [r7, #2]
 8004b06:	68fb      	ldr	r3, [r7, #12]
 8004b08:	4013      	ands	r3, r2
 8004b0a:	041a      	lsls	r2, r3, #16
 8004b0c:	68fb      	ldr	r3, [r7, #12]
 8004b0e:	43d9      	mvns	r1, r3
 8004b10:	887b      	ldrh	r3, [r7, #2]
 8004b12:	400b      	ands	r3, r1
 8004b14:	431a      	orrs	r2, r3
 8004b16:	687b      	ldr	r3, [r7, #4]
 8004b18:	619a      	str	r2, [r3, #24]
}
 8004b1a:	bf00      	nop
 8004b1c:	3714      	adds	r7, #20
 8004b1e:	46bd      	mov	sp, r7
 8004b20:	f85d 7b04 	ldr.w	r7, [sp], #4
 8004b24:	4770      	bx	lr
	...

08004b28 <HAL_GPIO_EXTI_IRQHandler>:
  * @brief  This function handles EXTI interrupt request.
  * @param  GPIO_Pin Specifies the pins connected EXTI line
  * @retval None
  */
void HAL_GPIO_EXTI_IRQHandler(uint16_t GPIO_Pin)
{
 8004b28:	b580      	push	{r7, lr}
 8004b2a:	b082      	sub	sp, #8
 8004b2c:	af00      	add	r7, sp, #0
 8004b2e:	4603      	mov	r3, r0
 8004b30:	80fb      	strh	r3, [r7, #6]
  /* EXTI line interrupt detected */
  if(__HAL_GPIO_EXTI_GET_IT(GPIO_Pin) != RESET)
 8004b32:	4b08      	ldr	r3, [pc, #32]	; (8004b54 <HAL_GPIO_EXTI_IRQHandler+0x2c>)
 8004b34:	695a      	ldr	r2, [r3, #20]
 8004b36:	88fb      	ldrh	r3, [r7, #6]
 8004b38:	4013      	ands	r3, r2
 8004b3a:	2b00      	cmp	r3, #0
 8004b3c:	d006      	beq.n	8004b4c <HAL_GPIO_EXTI_IRQHandler+0x24>
  {
    __HAL_GPIO_EXTI_CLEAR_IT(GPIO_Pin);
 8004b3e:	4a05      	ldr	r2, [pc, #20]	; (8004b54 <HAL_GPIO_EXTI_IRQHandler+0x2c>)
 8004b40:	88fb      	ldrh	r3, [r7, #6]
 8004b42:	6153      	str	r3, [r2, #20]
    HAL_GPIO_EXTI_Callback(GPIO_Pin);
 8004b44:	88fb      	ldrh	r3, [r7, #6]
 8004b46:	4618      	mov	r0, r3
 8004b48:	f7fe f8fc 	bl	8002d44 <HAL_GPIO_EXTI_Callback>
  }
}
 8004b4c:	bf00      	nop
 8004b4e:	3708      	adds	r7, #8
 8004b50:	46bd      	mov	sp, r7
 8004b52:	bd80      	pop	{r7, pc}
 8004b54:	40013c00 	.word	0x40013c00

08004b58 <HAL_I2C_Init>:
  * @param  hi2c Pointer to a I2C_HandleTypeDef structure that contains
  *                the configuration information for the specified I2C.
  * @retval HAL status
  */
HAL_StatusTypeDef HAL_I2C_Init(I2C_HandleTypeDef *hi2c)
{
 8004b58:	b580      	push	{r7, lr}
 8004b5a:	b084      	sub	sp, #16
 8004b5c:	af00      	add	r7, sp, #0
 8004b5e:	6078      	str	r0, [r7, #4]
  uint32_t freqrange;
  uint32_t pclk1;

  /* Check the I2C handle allocation */
  if (hi2c == NULL)
 8004b60:	687b      	ldr	r3, [r7, #4]
 8004b62:	2b00      	cmp	r3, #0
 8004b64:	d101      	bne.n	8004b6a <HAL_I2C_Init+0x12>
  {
    return HAL_ERROR;
 8004b66:	2301      	movs	r3, #1
 8004b68:	e12b      	b.n	8004dc2 <HAL_I2C_Init+0x26a>
  assert_param(IS_I2C_DUAL_ADDRESS(hi2c->Init.DualAddressMode));
  assert_param(IS_I2C_OWN_ADDRESS2(hi2c->Init.OwnAddress2));
  assert_param(IS_I2C_GENERAL_CALL(hi2c->Init.GeneralCallMode));
  assert_param(IS_I2C_NO_STRETCH(hi2c->Init.NoStretchMode));

  if (hi2c->State == HAL_I2C_STATE_RESET)
 8004b6a:	687b      	ldr	r3, [r7, #4]
 8004b6c:	f893 303d 	ldrb.w	r3, [r3, #61]	; 0x3d
 8004b70:	b2db      	uxtb	r3, r3
 8004b72:	2b00      	cmp	r3, #0
 8004b74:	d106      	bne.n	8004b84 <HAL_I2C_Init+0x2c>
  {
    /* Allocate lock resource and initialize it */
    hi2c->Lock = HAL_UNLOCKED;
 8004b76:	687b      	ldr	r3, [r7, #4]
 8004b78:	2200      	movs	r2, #0
 8004b7a:	f883 203c 	strb.w	r2, [r3, #60]	; 0x3c

    /* Init the low level hardware : GPIO, CLOCK, NVIC */
    hi2c->MspInitCallback(hi2c);
#else
    /* Init the low level hardware : GPIO, CLOCK, NVIC */
    HAL_I2C_MspInit(hi2c);
 8004b7e:	6878      	ldr	r0, [r7, #4]
 8004b80:	f7fd fe0a 	bl	8002798 <HAL_I2C_MspInit>
#endif /* USE_HAL_I2C_REGISTER_CALLBACKS */
  }

  hi2c->State = HAL_I2C_STATE_BUSY;
 8004b84:	687b      	ldr	r3, [r7, #4]
 8004b86:	2224      	movs	r2, #36	; 0x24
 8004b88:	f883 203d 	strb.w	r2, [r3, #61]	; 0x3d

  /* Disable the selected I2C peripheral */
  __HAL_I2C_DISABLE(hi2c);
 8004b8c:	687b      	ldr	r3, [r7, #4]
 8004b8e:	681b      	ldr	r3, [r3, #0]
 8004b90:	681a      	ldr	r2, [r3, #0]
 8004b92:	687b      	ldr	r3, [r7, #4]
 8004b94:	681b      	ldr	r3, [r3, #0]
 8004b96:	f022 0201 	bic.w	r2, r2, #1
 8004b9a:	601a      	str	r2, [r3, #0]

  /*Reset I2C*/
  hi2c->Instance->CR1 |= I2C_CR1_SWRST;
 8004b9c:	687b      	ldr	r3, [r7, #4]
 8004b9e:	681b      	ldr	r3, [r3, #0]
 8004ba0:	681a      	ldr	r2, [r3, #0]
 8004ba2:	687b      	ldr	r3, [r7, #4]
 8004ba4:	681b      	ldr	r3, [r3, #0]
 8004ba6:	f442 4200 	orr.w	r2, r2, #32768	; 0x8000
 8004baa:	601a      	str	r2, [r3, #0]
  hi2c->Instance->CR1 &= ~I2C_CR1_SWRST;
 8004bac:	687b      	ldr	r3, [r7, #4]
 8004bae:	681b      	ldr	r3, [r3, #0]
 8004bb0:	681a      	ldr	r2, [r3, #0]
 8004bb2:	687b      	ldr	r3, [r7, #4]
 8004bb4:	681b      	ldr	r3, [r3, #0]
 8004bb6:	f422 4200 	bic.w	r2, r2, #32768	; 0x8000
 8004bba:	601a      	str	r2, [r3, #0]

  /* Get PCLK1 frequency */
  pclk1 = HAL_RCC_GetPCLK1Freq();
 8004bbc:	f001 fc9a 	bl	80064f4 <HAL_RCC_GetPCLK1Freq>
 8004bc0:	60f8      	str	r0, [r7, #12]

  /* Check the minimum allowed PCLK1 frequency */
  if (I2C_MIN_PCLK_FREQ(pclk1, hi2c->Init.ClockSpeed) == 1U)
 8004bc2:	687b      	ldr	r3, [r7, #4]
 8004bc4:	685b      	ldr	r3, [r3, #4]
 8004bc6:	4a81      	ldr	r2, [pc, #516]	; (8004dcc <HAL_I2C_Init+0x274>)
 8004bc8:	4293      	cmp	r3, r2
 8004bca:	d807      	bhi.n	8004bdc <HAL_I2C_Init+0x84>
 8004bcc:	68fb      	ldr	r3, [r7, #12]
 8004bce:	4a80      	ldr	r2, [pc, #512]	; (8004dd0 <HAL_I2C_Init+0x278>)
 8004bd0:	4293      	cmp	r3, r2
 8004bd2:	bf94      	ite	ls
 8004bd4:	2301      	movls	r3, #1
 8004bd6:	2300      	movhi	r3, #0
 8004bd8:	b2db      	uxtb	r3, r3
 8004bda:	e006      	b.n	8004bea <HAL_I2C_Init+0x92>
 8004bdc:	68fb      	ldr	r3, [r7, #12]
 8004bde:	4a7d      	ldr	r2, [pc, #500]	; (8004dd4 <HAL_I2C_Init+0x27c>)
 8004be0:	4293      	cmp	r3, r2
 8004be2:	bf94      	ite	ls
 8004be4:	2301      	movls	r3, #1
 8004be6:	2300      	movhi	r3, #0
 8004be8:	b2db      	uxtb	r3, r3
 8004bea:	2b00      	cmp	r3, #0
 8004bec:	d001      	beq.n	8004bf2 <HAL_I2C_Init+0x9a>
  {
    return HAL_ERROR;
 8004bee:	2301      	movs	r3, #1
 8004bf0:	e0e7      	b.n	8004dc2 <HAL_I2C_Init+0x26a>
  }

  /* Calculate frequency range */
  freqrange = I2C_FREQRANGE(pclk1);
 8004bf2:	68fb      	ldr	r3, [r7, #12]
 8004bf4:	4a78      	ldr	r2, [pc, #480]	; (8004dd8 <HAL_I2C_Init+0x280>)
 8004bf6:	fba2 2303 	umull	r2, r3, r2, r3
 8004bfa:	0c9b      	lsrs	r3, r3, #18
 8004bfc:	60bb      	str	r3, [r7, #8]

  /*---------------------------- I2Cx CR2 Configuration ----------------------*/
  /* Configure I2Cx: Frequency range */
  MODIFY_REG(hi2c->Instance->CR2, I2C_CR2_FREQ, freqrange);
 8004bfe:	687b      	ldr	r3, [r7, #4]
 8004c00:	681b      	ldr	r3, [r3, #0]
 8004c02:	685b      	ldr	r3, [r3, #4]
 8004c04:	f023 013f 	bic.w	r1, r3, #63	; 0x3f
 8004c08:	687b      	ldr	r3, [r7, #4]
 8004c0a:	681b      	ldr	r3, [r3, #0]
 8004c0c:	68ba      	ldr	r2, [r7, #8]
 8004c0e:	430a      	orrs	r2, r1
 8004c10:	605a      	str	r2, [r3, #4]

  /*---------------------------- I2Cx TRISE Configuration --------------------*/
  /* Configure I2Cx: Rise Time */
  MODIFY_REG(hi2c->Instance->TRISE, I2C_TRISE_TRISE, I2C_RISE_TIME(freqrange, hi2c->Init.ClockSpeed));
 8004c12:	687b      	ldr	r3, [r7, #4]
 8004c14:	681b      	ldr	r3, [r3, #0]
 8004c16:	6a1b      	ldr	r3, [r3, #32]
 8004c18:	f023 013f 	bic.w	r1, r3, #63	; 0x3f
 8004c1c:	687b      	ldr	r3, [r7, #4]
 8004c1e:	685b      	ldr	r3, [r3, #4]
 8004c20:	4a6a      	ldr	r2, [pc, #424]	; (8004dcc <HAL_I2C_Init+0x274>)
 8004c22:	4293      	cmp	r3, r2
 8004c24:	d802      	bhi.n	8004c2c <HAL_I2C_Init+0xd4>
 8004c26:	68bb      	ldr	r3, [r7, #8]
 8004c28:	3301      	adds	r3, #1
 8004c2a:	e009      	b.n	8004c40 <HAL_I2C_Init+0xe8>
 8004c2c:	68bb      	ldr	r3, [r7, #8]
 8004c2e:	f44f 7296 	mov.w	r2, #300	; 0x12c
 8004c32:	fb02 f303 	mul.w	r3, r2, r3
 8004c36:	4a69      	ldr	r2, [pc, #420]	; (8004ddc <HAL_I2C_Init+0x284>)
 8004c38:	fba2 2303 	umull	r2, r3, r2, r3
 8004c3c:	099b      	lsrs	r3, r3, #6
 8004c3e:	3301      	adds	r3, #1
 8004c40:	687a      	ldr	r2, [r7, #4]
 8004c42:	6812      	ldr	r2, [r2, #0]
 8004c44:	430b      	orrs	r3, r1
 8004c46:	6213      	str	r3, [r2, #32]

  /*---------------------------- I2Cx CCR Configuration ----------------------*/
  /* Configure I2Cx: Speed */
  MODIFY_REG(hi2c->Instance->CCR, (I2C_CCR_FS | I2C_CCR_DUTY | I2C_CCR_CCR), I2C_SPEED(pclk1, hi2c->Init.ClockSpeed, hi2c->Init.DutyCycle));
 8004c48:	687b      	ldr	r3, [r7, #4]
 8004c4a:	681b      	ldr	r3, [r3, #0]
 8004c4c:	69db      	ldr	r3, [r3, #28]
 8004c4e:	f423 424f 	bic.w	r2, r3, #52992	; 0xcf00
 8004c52:	f022 02ff 	bic.w	r2, r2, #255	; 0xff
 8004c56:	687b      	ldr	r3, [r7, #4]
 8004c58:	685b      	ldr	r3, [r3, #4]
 8004c5a:	495c      	ldr	r1, [pc, #368]	; (8004dcc <HAL_I2C_Init+0x274>)
 8004c5c:	428b      	cmp	r3, r1
 8004c5e:	d819      	bhi.n	8004c94 <HAL_I2C_Init+0x13c>
 8004c60:	68fb      	ldr	r3, [r7, #12]
 8004c62:	1e59      	subs	r1, r3, #1
 8004c64:	687b      	ldr	r3, [r7, #4]
 8004c66:	685b      	ldr	r3, [r3, #4]
 8004c68:	005b      	lsls	r3, r3, #1
 8004c6a:	fbb1 f3f3 	udiv	r3, r1, r3
 8004c6e:	1c59      	adds	r1, r3, #1
 8004c70:	f640 73fc 	movw	r3, #4092	; 0xffc
 8004c74:	400b      	ands	r3, r1
 8004c76:	2b00      	cmp	r3, #0
 8004c78:	d00a      	beq.n	8004c90 <HAL_I2C_Init+0x138>
 8004c7a:	68fb      	ldr	r3, [r7, #12]
 8004c7c:	1e59      	subs	r1, r3, #1
 8004c7e:	687b      	ldr	r3, [r7, #4]
 8004c80:	685b      	ldr	r3, [r3, #4]
 8004c82:	005b      	lsls	r3, r3, #1
 8004c84:	fbb1 f3f3 	udiv	r3, r1, r3
 8004c88:	3301      	adds	r3, #1
 8004c8a:	f3c3 030b 	ubfx	r3, r3, #0, #12
 8004c8e:	e051      	b.n	8004d34 <HAL_I2C_Init+0x1dc>
 8004c90:	2304      	movs	r3, #4
 8004c92:	e04f      	b.n	8004d34 <HAL_I2C_Init+0x1dc>
 8004c94:	687b      	ldr	r3, [r7, #4]
 8004c96:	689b      	ldr	r3, [r3, #8]
 8004c98:	2b00      	cmp	r3, #0
 8004c9a:	d111      	bne.n	8004cc0 <HAL_I2C_Init+0x168>
 8004c9c:	68fb      	ldr	r3, [r7, #12]
 8004c9e:	1e58      	subs	r0, r3, #1
 8004ca0:	687b      	ldr	r3, [r7, #4]
 8004ca2:	6859      	ldr	r1, [r3, #4]
 8004ca4:	460b      	mov	r3, r1
 8004ca6:	005b      	lsls	r3, r3, #1
 8004ca8:	440b      	add	r3, r1
 8004caa:	fbb0 f3f3 	udiv	r3, r0, r3
 8004cae:	3301      	adds	r3, #1
 8004cb0:	f3c3 030b 	ubfx	r3, r3, #0, #12
 8004cb4:	2b00      	cmp	r3, #0
 8004cb6:	bf0c      	ite	eq
 8004cb8:	2301      	moveq	r3, #1
 8004cba:	2300      	movne	r3, #0
 8004cbc:	b2db      	uxtb	r3, r3
 8004cbe:	e012      	b.n	8004ce6 <HAL_I2C_Init+0x18e>
 8004cc0:	68fb      	ldr	r3, [r7, #12]
 8004cc2:	1e58      	subs	r0, r3, #1
 8004cc4:	687b      	ldr	r3, [r7, #4]
 8004cc6:	6859      	ldr	r1, [r3, #4]
 8004cc8:	460b      	mov	r3, r1
 8004cca:	009b      	lsls	r3, r3, #2
 8004ccc:	440b      	add	r3, r1
 8004cce:	0099      	lsls	r1, r3, #2
 8004cd0:	440b      	add	r3, r1
 8004cd2:	fbb0 f3f3 	udiv	r3, r0, r3
 8004cd6:	3301      	adds	r3, #1
 8004cd8:	f3c3 030b 	ubfx	r3, r3, #0, #12
 8004cdc:	2b00      	cmp	r3, #0
 8004cde:	bf0c      	ite	eq
 8004ce0:	2301      	moveq	r3, #1
 8004ce2:	2300      	movne	r3, #0
 8004ce4:	b2db      	uxtb	r3, r3
 8004ce6:	2b00      	cmp	r3, #0
 8004ce8:	d001      	beq.n	8004cee <HAL_I2C_Init+0x196>
 8004cea:	2301      	movs	r3, #1
 8004cec:	e022      	b.n	8004d34 <HAL_I2C_Init+0x1dc>
 8004cee:	687b      	ldr	r3, [r7, #4]
 8004cf0:	689b      	ldr	r3, [r3, #8]
 8004cf2:	2b00      	cmp	r3, #0
 8004cf4:	d10e      	bne.n	8004d14 <HAL_I2C_Init+0x1bc>
 8004cf6:	68fb      	ldr	r3, [r7, #12]
 8004cf8:	1e58      	subs	r0, r3, #1
 8004cfa:	687b      	ldr	r3, [r7, #4]
 8004cfc:	6859      	ldr	r1, [r3, #4]
 8004cfe:	460b      	mov	r3, r1
 8004d00:	005b      	lsls	r3, r3, #1
 8004d02:	440b      	add	r3, r1
 8004d04:	fbb0 f3f3 	udiv	r3, r0, r3
 8004d08:	3301      	adds	r3, #1
 8004d0a:	f3c3 030b 	ubfx	r3, r3, #0, #12
 8004d0e:	f443 4300 	orr.w	r3, r3, #32768	; 0x8000
 8004d12:	e00f      	b.n	8004d34 <HAL_I2C_Init+0x1dc>
 8004d14:	68fb      	ldr	r3, [r7, #12]
 8004d16:	1e58      	subs	r0, r3, #1
 8004d18:	687b      	ldr	r3, [r7, #4]
 8004d1a:	6859      	ldr	r1, [r3, #4]
 8004d1c:	460b      	mov	r3, r1
 8004d1e:	009b      	lsls	r3, r3, #2
 8004d20:	440b      	add	r3, r1
 8004d22:	0099      	lsls	r1, r3, #2
 8004d24:	440b      	add	r3, r1
 8004d26:	fbb0 f3f3 	udiv	r3, r0, r3
 8004d2a:	3301      	adds	r3, #1
 8004d2c:	f3c3 030b 	ubfx	r3, r3, #0, #12
 8004d30:	f443 4340 	orr.w	r3, r3, #49152	; 0xc000
 8004d34:	6879      	ldr	r1, [r7, #4]
 8004d36:	6809      	ldr	r1, [r1, #0]
 8004d38:	4313      	orrs	r3, r2
 8004d3a:	61cb      	str	r3, [r1, #28]

  /*---------------------------- I2Cx CR1 Configuration ----------------------*/
  /* Configure I2Cx: Generalcall and NoStretch mode */
  MODIFY_REG(hi2c->Instance->CR1, (I2C_CR1_ENGC | I2C_CR1_NOSTRETCH), (hi2c->Init.GeneralCallMode | hi2c->Init.NoStretchMode));
 8004d3c:	687b      	ldr	r3, [r7, #4]
 8004d3e:	681b      	ldr	r3, [r3, #0]
 8004d40:	681b      	ldr	r3, [r3, #0]
 8004d42:	f023 01c0 	bic.w	r1, r3, #192	; 0xc0
 8004d46:	687b      	ldr	r3, [r7, #4]
 8004d48:	69da      	ldr	r2, [r3, #28]
 8004d4a:	687b      	ldr	r3, [r7, #4]
 8004d4c:	6a1b      	ldr	r3, [r3, #32]
 8004d4e:	431a      	orrs	r2, r3
 8004d50:	687b      	ldr	r3, [r7, #4]
 8004d52:	681b      	ldr	r3, [r3, #0]
 8004d54:	430a      	orrs	r2, r1
 8004d56:	601a      	str	r2, [r3, #0]

  /*---------------------------- I2Cx OAR1 Configuration ---------------------*/
  /* Configure I2Cx: Own Address1 and addressing mode */
  MODIFY_REG(hi2c->Instance->OAR1, (I2C_OAR1_ADDMODE | I2C_OAR1_ADD8_9 | I2C_OAR1_ADD1_7 | I2C_OAR1_ADD0), (hi2c->Init.AddressingMode | hi2c->Init.OwnAddress1));
 8004d58:	687b      	ldr	r3, [r7, #4]
 8004d5a:	681b      	ldr	r3, [r3, #0]
 8004d5c:	689b      	ldr	r3, [r3, #8]
 8004d5e:	f423 4303 	bic.w	r3, r3, #33536	; 0x8300
 8004d62:	f023 03ff 	bic.w	r3, r3, #255	; 0xff
 8004d66:	687a      	ldr	r2, [r7, #4]
 8004d68:	6911      	ldr	r1, [r2, #16]
 8004d6a:	687a      	ldr	r2, [r7, #4]
 8004d6c:	68d2      	ldr	r2, [r2, #12]
 8004d6e:	4311      	orrs	r1, r2
 8004d70:	687a      	ldr	r2, [r7, #4]
 8004d72:	6812      	ldr	r2, [r2, #0]
 8004d74:	430b      	orrs	r3, r1
 8004d76:	6093      	str	r3, [r2, #8]

  /*---------------------------- I2Cx OAR2 Configuration ---------------------*/
  /* Configure I2Cx: Dual mode and Own Address2 */
  MODIFY_REG(hi2c->Instance->OAR2, (I2C_OAR2_ENDUAL | I2C_OAR2_ADD2), (hi2c->Init.DualAddressMode | hi2c->Init.OwnAddress2));
 8004d78:	687b      	ldr	r3, [r7, #4]
 8004d7a:	681b      	ldr	r3, [r3, #0]
 8004d7c:	68db      	ldr	r3, [r3, #12]
 8004d7e:	f023 01ff 	bic.w	r1, r3, #255	; 0xff
 8004d82:	687b      	ldr	r3, [r7, #4]
 8004d84:	695a      	ldr	r2, [r3, #20]
 8004d86:	687b      	ldr	r3, [r7, #4]
 8004d88:	699b      	ldr	r3, [r3, #24]
 8004d8a:	431a      	orrs	r2, r3
 8004d8c:	687b      	ldr	r3, [r7, #4]
 8004d8e:	681b      	ldr	r3, [r3, #0]
 8004d90:	430a      	orrs	r2, r1
 8004d92:	60da      	str	r2, [r3, #12]

  /* Enable the selected I2C peripheral */
  __HAL_I2C_ENABLE(hi2c);
 8004d94:	687b      	ldr	r3, [r7, #4]
 8004d96:	681b      	ldr	r3, [r3, #0]
 8004d98:	681a      	ldr	r2, [r3, #0]
 8004d9a:	687b      	ldr	r3, [r7, #4]
 8004d9c:	681b      	ldr	r3, [r3, #0]
 8004d9e:	f042 0201 	orr.w	r2, r2, #1
 8004da2:	601a      	str	r2, [r3, #0]

  hi2c->ErrorCode = HAL_I2C_ERROR_NONE;
 8004da4:	687b      	ldr	r3, [r7, #4]
 8004da6:	2200      	movs	r2, #0
 8004da8:	641a      	str	r2, [r3, #64]	; 0x40
  hi2c->State = HAL_I2C_STATE_READY;
 8004daa:	687b      	ldr	r3, [r7, #4]
 8004dac:	2220      	movs	r2, #32
 8004dae:	f883 203d 	strb.w	r2, [r3, #61]	; 0x3d
  hi2c->PreviousState = I2C_STATE_NONE;
 8004db2:	687b      	ldr	r3, [r7, #4]
 8004db4:	2200      	movs	r2, #0
 8004db6:	631a      	str	r2, [r3, #48]	; 0x30
  hi2c->Mode = HAL_I2C_MODE_NONE;
 8004db8:	687b      	ldr	r3, [r7, #4]
 8004dba:	2200      	movs	r2, #0
 8004dbc:	f883 203e 	strb.w	r2, [r3, #62]	; 0x3e

  return HAL_OK;
 8004dc0:	2300      	movs	r3, #0
}
 8004dc2:	4618      	mov	r0, r3
 8004dc4:	3710      	adds	r7, #16
 8004dc6:	46bd      	mov	sp, r7
 8004dc8:	bd80      	pop	{r7, pc}
 8004dca:	bf00      	nop
 8004dcc:	000186a0 	.word	0x000186a0
 8004dd0:	001e847f 	.word	0x001e847f
 8004dd4:	003d08ff 	.word	0x003d08ff
 8004dd8:	431bde83 	.word	0x431bde83
 8004ddc:	10624dd3 	.word	0x10624dd3

08004de0 <HAL_I2C_Master_Transmit>:
  * @param  Size Amount of data to be sent
  * @param  Timeout Timeout duration
  * @retval HAL status
  */
HAL_StatusTypeDef HAL_I2C_Master_Transmit(I2C_HandleTypeDef *hi2c, uint16_t DevAddress, uint8_t *pData, uint16_t Size, uint32_t Timeout)
{
 8004de0:	b580      	push	{r7, lr}
 8004de2:	b088      	sub	sp, #32
 8004de4:	af02      	add	r7, sp, #8
 8004de6:	60f8      	str	r0, [r7, #12]
 8004de8:	607a      	str	r2, [r7, #4]
 8004dea:	461a      	mov	r2, r3
 8004dec:	460b      	mov	r3, r1
 8004dee:	817b      	strh	r3, [r7, #10]
 8004df0:	4613      	mov	r3, r2
 8004df2:	813b      	strh	r3, [r7, #8]
  /* Init tickstart for timeout management*/
  uint32_t tickstart = HAL_GetTick();
 8004df4:	f7fe f8f4 	bl	8002fe0 <HAL_GetTick>
 8004df8:	6178      	str	r0, [r7, #20]

  if (hi2c->State == HAL_I2C_STATE_READY)
 8004dfa:	68fb      	ldr	r3, [r7, #12]
 8004dfc:	f893 303d 	ldrb.w	r3, [r3, #61]	; 0x3d
 8004e00:	b2db      	uxtb	r3, r3
 8004e02:	2b20      	cmp	r3, #32
 8004e04:	f040 80e0 	bne.w	8004fc8 <HAL_I2C_Master_Transmit+0x1e8>
  {
    /* Wait until BUSY flag is reset */
    if (I2C_WaitOnFlagUntilTimeout(hi2c, I2C_FLAG_BUSY, SET, I2C_TIMEOUT_BUSY_FLAG, tickstart) != HAL_OK)
 8004e08:	697b      	ldr	r3, [r7, #20]
 8004e0a:	9300      	str	r3, [sp, #0]
 8004e0c:	2319      	movs	r3, #25
 8004e0e:	2201      	movs	r2, #1
 8004e10:	4970      	ldr	r1, [pc, #448]	; (8004fd4 <HAL_I2C_Master_Transmit+0x1f4>)
 8004e12:	68f8      	ldr	r0, [r7, #12]
 8004e14:	f000 fc64 	bl	80056e0 <I2C_WaitOnFlagUntilTimeout>
 8004e18:	4603      	mov	r3, r0
 8004e1a:	2b00      	cmp	r3, #0
 8004e1c:	d001      	beq.n	8004e22 <HAL_I2C_Master_Transmit+0x42>
    {
      return HAL_BUSY;
 8004e1e:	2302      	movs	r3, #2
 8004e20:	e0d3      	b.n	8004fca <HAL_I2C_Master_Transmit+0x1ea>
    }

    /* Process Locked */
    __HAL_LOCK(hi2c);
 8004e22:	68fb      	ldr	r3, [r7, #12]
 8004e24:	f893 303c 	ldrb.w	r3, [r3, #60]	; 0x3c
 8004e28:	2b01      	cmp	r3, #1
 8004e2a:	d101      	bne.n	8004e30 <HAL_I2C_Master_Transmit+0x50>
 8004e2c:	2302      	movs	r3, #2
 8004e2e:	e0cc      	b.n	8004fca <HAL_I2C_Master_Transmit+0x1ea>
 8004e30:	68fb      	ldr	r3, [r7, #12]
 8004e32:	2201      	movs	r2, #1
 8004e34:	f883 203c 	strb.w	r2, [r3, #60]	; 0x3c

    /* Check if the I2C is already enabled */
    if ((hi2c->Instance->CR1 & I2C_CR1_PE) != I2C_CR1_PE)
 8004e38:	68fb      	ldr	r3, [r7, #12]
 8004e3a:	681b      	ldr	r3, [r3, #0]
 8004e3c:	681b      	ldr	r3, [r3, #0]
 8004e3e:	f003 0301 	and.w	r3, r3, #1
 8004e42:	2b01      	cmp	r3, #1
 8004e44:	d007      	beq.n	8004e56 <HAL_I2C_Master_Transmit+0x76>
    {
      /* Enable I2C peripheral */
      __HAL_I2C_ENABLE(hi2c);
 8004e46:	68fb      	ldr	r3, [r7, #12]
 8004e48:	681b      	ldr	r3, [r3, #0]
 8004e4a:	681a      	ldr	r2, [r3, #0]
 8004e4c:	68fb      	ldr	r3, [r7, #12]
 8004e4e:	681b      	ldr	r3, [r3, #0]
 8004e50:	f042 0201 	orr.w	r2, r2, #1
 8004e54:	601a      	str	r2, [r3, #0]
    }

    /* Disable Pos */
    CLEAR_BIT(hi2c->Instance->CR1, I2C_CR1_POS);
 8004e56:	68fb      	ldr	r3, [r7, #12]
 8004e58:	681b      	ldr	r3, [r3, #0]
 8004e5a:	681a      	ldr	r2, [r3, #0]
 8004e5c:	68fb      	ldr	r3, [r7, #12]
 8004e5e:	681b      	ldr	r3, [r3, #0]
 8004e60:	f422 6200 	bic.w	r2, r2, #2048	; 0x800
 8004e64:	601a      	str	r2, [r3, #0]

    hi2c->State       = HAL_I2C_STATE_BUSY_TX;
 8004e66:	68fb      	ldr	r3, [r7, #12]
 8004e68:	2221      	movs	r2, #33	; 0x21
 8004e6a:	f883 203d 	strb.w	r2, [r3, #61]	; 0x3d
    hi2c->Mode        = HAL_I2C_MODE_MASTER;
 8004e6e:	68fb      	ldr	r3, [r7, #12]
 8004e70:	2210      	movs	r2, #16
 8004e72:	f883 203e 	strb.w	r2, [r3, #62]	; 0x3e
    hi2c->ErrorCode   = HAL_I2C_ERROR_NONE;
 8004e76:	68fb      	ldr	r3, [r7, #12]
 8004e78:	2200      	movs	r2, #0
 8004e7a:	641a      	str	r2, [r3, #64]	; 0x40

    /* Prepare transfer parameters */
    hi2c->pBuffPtr    = pData;
 8004e7c:	68fb      	ldr	r3, [r7, #12]
 8004e7e:	687a      	ldr	r2, [r7, #4]
 8004e80:	625a      	str	r2, [r3, #36]	; 0x24
    hi2c->XferCount   = Size;
 8004e82:	68fb      	ldr	r3, [r7, #12]
 8004e84:	893a      	ldrh	r2, [r7, #8]
 8004e86:	855a      	strh	r2, [r3, #42]	; 0x2a
    hi2c->XferSize    = hi2c->XferCount;
 8004e88:	68fb      	ldr	r3, [r7, #12]
 8004e8a:	8d5b      	ldrh	r3, [r3, #42]	; 0x2a
 8004e8c:	b29a      	uxth	r2, r3
 8004e8e:	68fb      	ldr	r3, [r7, #12]
 8004e90:	851a      	strh	r2, [r3, #40]	; 0x28
    hi2c->XferOptions = I2C_NO_OPTION_FRAME;
 8004e92:	68fb      	ldr	r3, [r7, #12]
 8004e94:	4a50      	ldr	r2, [pc, #320]	; (8004fd8 <HAL_I2C_Master_Transmit+0x1f8>)
 8004e96:	62da      	str	r2, [r3, #44]	; 0x2c

    /* Send Slave Address */
    if (I2C_MasterRequestWrite(hi2c, DevAddress, Timeout, tickstart) != HAL_OK)
 8004e98:	8979      	ldrh	r1, [r7, #10]
 8004e9a:	697b      	ldr	r3, [r7, #20]
 8004e9c:	6a3a      	ldr	r2, [r7, #32]
 8004e9e:	68f8      	ldr	r0, [r7, #12]
 8004ea0:	f000 face 	bl	8005440 <I2C_MasterRequestWrite>
 8004ea4:	4603      	mov	r3, r0
 8004ea6:	2b00      	cmp	r3, #0
 8004ea8:	d001      	beq.n	8004eae <HAL_I2C_Master_Transmit+0xce>
    {
      return HAL_ERROR;
 8004eaa:	2301      	movs	r3, #1
 8004eac:	e08d      	b.n	8004fca <HAL_I2C_Master_Transmit+0x1ea>
    }

    /* Clear ADDR flag */
    __HAL_I2C_CLEAR_ADDRFLAG(hi2c);
 8004eae:	2300      	movs	r3, #0
 8004eb0:	613b      	str	r3, [r7, #16]
 8004eb2:	68fb      	ldr	r3, [r7, #12]
 8004eb4:	681b      	ldr	r3, [r3, #0]
 8004eb6:	695b      	ldr	r3, [r3, #20]
 8004eb8:	613b      	str	r3, [r7, #16]
 8004eba:	68fb      	ldr	r3, [r7, #12]
 8004ebc:	681b      	ldr	r3, [r3, #0]
 8004ebe:	699b      	ldr	r3, [r3, #24]
 8004ec0:	613b      	str	r3, [r7, #16]
 8004ec2:	693b      	ldr	r3, [r7, #16]

    while (hi2c->XferSize > 0U)
 8004ec4:	e066      	b.n	8004f94 <HAL_I2C_Master_Transmit+0x1b4>
    {
      /* Wait until TXE flag is set */
      if (I2C_WaitOnTXEFlagUntilTimeout(hi2c, Timeout, tickstart) != HAL_OK)
 8004ec6:	697a      	ldr	r2, [r7, #20]
 8004ec8:	6a39      	ldr	r1, [r7, #32]
 8004eca:	68f8      	ldr	r0, [r7, #12]
 8004ecc:	f000 fd22 	bl	8005914 <I2C_WaitOnTXEFlagUntilTimeout>
 8004ed0:	4603      	mov	r3, r0
 8004ed2:	2b00      	cmp	r3, #0
 8004ed4:	d00d      	beq.n	8004ef2 <HAL_I2C_Master_Transmit+0x112>
      {
        if (hi2c->ErrorCode == HAL_I2C_ERROR_AF)
 8004ed6:	68fb      	ldr	r3, [r7, #12]
 8004ed8:	6c1b      	ldr	r3, [r3, #64]	; 0x40
 8004eda:	2b04      	cmp	r3, #4
 8004edc:	d107      	bne.n	8004eee <HAL_I2C_Master_Transmit+0x10e>
        {
          /* Generate Stop */
          SET_BIT(hi2c->Instance->CR1, I2C_CR1_STOP);
 8004ede:	68fb      	ldr	r3, [r7, #12]
 8004ee0:	681b      	ldr	r3, [r3, #0]
 8004ee2:	681a      	ldr	r2, [r3, #0]
 8004ee4:	68fb      	ldr	r3, [r7, #12]
 8004ee6:	681b      	ldr	r3, [r3, #0]
 8004ee8:	f442 7200 	orr.w	r2, r2, #512	; 0x200
 8004eec:	601a      	str	r2, [r3, #0]
        }
        return HAL_ERROR;
 8004eee:	2301      	movs	r3, #1
 8004ef0:	e06b      	b.n	8004fca <HAL_I2C_Master_Transmit+0x1ea>
      }

      /* Write data to DR */
      hi2c->Instance->DR = *hi2c->pBuffPtr;
 8004ef2:	68fb      	ldr	r3, [r7, #12]
 8004ef4:	6a5b      	ldr	r3, [r3, #36]	; 0x24
 8004ef6:	781a      	ldrb	r2, [r3, #0]
 8004ef8:	68fb      	ldr	r3, [r7, #12]
 8004efa:	681b      	ldr	r3, [r3, #0]
 8004efc:	611a      	str	r2, [r3, #16]

      /* Increment Buffer pointer */
      hi2c->pBuffPtr++;
 8004efe:	68fb      	ldr	r3, [r7, #12]
 8004f00:	6a5b      	ldr	r3, [r3, #36]	; 0x24
 8004f02:	1c5a      	adds	r2, r3, #1
 8004f04:	68fb      	ldr	r3, [r7, #12]
 8004f06:	625a      	str	r2, [r3, #36]	; 0x24

      /* Update counter */
      hi2c->XferCount--;
 8004f08:	68fb      	ldr	r3, [r7, #12]
 8004f0a:	8d5b      	ldrh	r3, [r3, #42]	; 0x2a
 8004f0c:	b29b      	uxth	r3, r3
 8004f0e:	3b01      	subs	r3, #1
 8004f10:	b29a      	uxth	r2, r3
 8004f12:	68fb      	ldr	r3, [r7, #12]
 8004f14:	855a      	strh	r2, [r3, #42]	; 0x2a
      hi2c->XferSize--;
 8004f16:	68fb      	ldr	r3, [r7, #12]
 8004f18:	8d1b      	ldrh	r3, [r3, #40]	; 0x28
 8004f1a:	3b01      	subs	r3, #1
 8004f1c:	b29a      	uxth	r2, r3
 8004f1e:	68fb      	ldr	r3, [r7, #12]
 8004f20:	851a      	strh	r2, [r3, #40]	; 0x28

      if ((__HAL_I2C_GET_FLAG(hi2c, I2C_FLAG_BTF) == SET) && (hi2c->XferSize != 0U))
 8004f22:	68fb      	ldr	r3, [r7, #12]
 8004f24:	681b      	ldr	r3, [r3, #0]
 8004f26:	695b      	ldr	r3, [r3, #20]
 8004f28:	f003 0304 	and.w	r3, r3, #4
 8004f2c:	2b04      	cmp	r3, #4
 8004f2e:	d11b      	bne.n	8004f68 <HAL_I2C_Master_Transmit+0x188>
 8004f30:	68fb      	ldr	r3, [r7, #12]
 8004f32:	8d1b      	ldrh	r3, [r3, #40]	; 0x28
 8004f34:	2b00      	cmp	r3, #0
 8004f36:	d017      	beq.n	8004f68 <HAL_I2C_Master_Transmit+0x188>
      {
        /* Write data to DR */
        hi2c->Instance->DR = *hi2c->pBuffPtr;
 8004f38:	68fb      	ldr	r3, [r7, #12]
 8004f3a:	6a5b      	ldr	r3, [r3, #36]	; 0x24
 8004f3c:	781a      	ldrb	r2, [r3, #0]
 8004f3e:	68fb      	ldr	r3, [r7, #12]
 8004f40:	681b      	ldr	r3, [r3, #0]
 8004f42:	611a      	str	r2, [r3, #16]

        /* Increment Buffer pointer */
        hi2c->pBuffPtr++;
 8004f44:	68fb      	ldr	r3, [r7, #12]
 8004f46:	6a5b      	ldr	r3, [r3, #36]	; 0x24
 8004f48:	1c5a      	adds	r2, r3, #1
 8004f4a:	68fb      	ldr	r3, [r7, #12]
 8004f4c:	625a      	str	r2, [r3, #36]	; 0x24

        /* Update counter */
        hi2c->XferCount--;
 8004f4e:	68fb      	ldr	r3, [r7, #12]
 8004f50:	8d5b      	ldrh	r3, [r3, #42]	; 0x2a
 8004f52:	b29b      	uxth	r3, r3
 8004f54:	3b01      	subs	r3, #1
 8004f56:	b29a      	uxth	r2, r3
 8004f58:	68fb      	ldr	r3, [r7, #12]
 8004f5a:	855a      	strh	r2, [r3, #42]	; 0x2a
        hi2c->XferSize--;
 8004f5c:	68fb      	ldr	r3, [r7, #12]
 8004f5e:	8d1b      	ldrh	r3, [r3, #40]	; 0x28
 8004f60:	3b01      	subs	r3, #1
 8004f62:	b29a      	uxth	r2, r3
 8004f64:	68fb      	ldr	r3, [r7, #12]
 8004f66:	851a      	strh	r2, [r3, #40]	; 0x28
      }

      /* Wait until BTF flag is set */
      if (I2C_WaitOnBTFFlagUntilTimeout(hi2c, Timeout, tickstart) != HAL_OK)
 8004f68:	697a      	ldr	r2, [r7, #20]
 8004f6a:	6a39      	ldr	r1, [r7, #32]
 8004f6c:	68f8      	ldr	r0, [r7, #12]
 8004f6e:	f000 fd19 	bl	80059a4 <I2C_WaitOnBTFFlagUntilTimeout>
 8004f72:	4603      	mov	r3, r0
 8004f74:	2b00      	cmp	r3, #0
 8004f76:	d00d      	beq.n	8004f94 <HAL_I2C_Master_Transmit+0x1b4>
      {
        if (hi2c->ErrorCode == HAL_I2C_ERROR_AF)
 8004f78:	68fb      	ldr	r3, [r7, #12]
 8004f7a:	6c1b      	ldr	r3, [r3, #64]	; 0x40
 8004f7c:	2b04      	cmp	r3, #4
 8004f7e:	d107      	bne.n	8004f90 <HAL_I2C_Master_Transmit+0x1b0>
        {
          /* Generate Stop */
          SET_BIT(hi2c->Instance->CR1, I2C_CR1_STOP);
 8004f80:	68fb      	ldr	r3, [r7, #12]
 8004f82:	681b      	ldr	r3, [r3, #0]
 8004f84:	681a      	ldr	r2, [r3, #0]
 8004f86:	68fb      	ldr	r3, [r7, #12]
 8004f88:	681b      	ldr	r3, [r3, #0]
 8004f8a:	f442 7200 	orr.w	r2, r2, #512	; 0x200
 8004f8e:	601a      	str	r2, [r3, #0]
        }
        return HAL_ERROR;
 8004f90:	2301      	movs	r3, #1
 8004f92:	e01a      	b.n	8004fca <HAL_I2C_Master_Transmit+0x1ea>
    while (hi2c->XferSize > 0U)
 8004f94:	68fb      	ldr	r3, [r7, #12]
 8004f96:	8d1b      	ldrh	r3, [r3, #40]	; 0x28
 8004f98:	2b00      	cmp	r3, #0
 8004f9a:	d194      	bne.n	8004ec6 <HAL_I2C_Master_Transmit+0xe6>
      }
    }

    /* Generate Stop */
    SET_BIT(hi2c->Instance->CR1, I2C_CR1_STOP);
 8004f9c:	68fb      	ldr	r3, [r7, #12]
 8004f9e:	681b      	ldr	r3, [r3, #0]
 8004fa0:	681a      	ldr	r2, [r3, #0]
 8004fa2:	68fb      	ldr	r3, [r7, #12]
 8004fa4:	681b      	ldr	r3, [r3, #0]
 8004fa6:	f442 7200 	orr.w	r2, r2, #512	; 0x200
 8004faa:	601a      	str	r2, [r3, #0]

    hi2c->State = HAL_I2C_STATE_READY;
 8004fac:	68fb      	ldr	r3, [r7, #12]
 8004fae:	2220      	movs	r2, #32
 8004fb0:	f883 203d 	strb.w	r2, [r3, #61]	; 0x3d
    hi2c->Mode = HAL_I2C_MODE_NONE;
 8004fb4:	68fb      	ldr	r3, [r7, #12]
 8004fb6:	2200      	movs	r2, #0
 8004fb8:	f883 203e 	strb.w	r2, [r3, #62]	; 0x3e

    /* Process Unlocked */
    __HAL_UNLOCK(hi2c);
 8004fbc:	68fb      	ldr	r3, [r7, #12]
 8004fbe:	2200      	movs	r2, #0
 8004fc0:	f883 203c 	strb.w	r2, [r3, #60]	; 0x3c

    return HAL_OK;
 8004fc4:	2300      	movs	r3, #0
 8004fc6:	e000      	b.n	8004fca <HAL_I2C_Master_Transmit+0x1ea>
  }
  else
  {
    return HAL_BUSY;
 8004fc8:	2302      	movs	r3, #2
  }
}
 8004fca:	4618      	mov	r0, r3
 8004fcc:	3718      	adds	r7, #24
 8004fce:	46bd      	mov	sp, r7
 8004fd0:	bd80      	pop	{r7, pc}
 8004fd2:	bf00      	nop
 8004fd4:	00100002 	.word	0x00100002
 8004fd8:	ffff0000 	.word	0xffff0000

08004fdc <HAL_I2C_Master_Receive>:
  * @param  Size Amount of data to be sent
  * @param  Timeout Timeout duration
  * @retval HAL status
  */
HAL_StatusTypeDef HAL_I2C_Master_Receive(I2C_HandleTypeDef *hi2c, uint16_t DevAddress, uint8_t *pData, uint16_t Size, uint32_t Timeout)
{
 8004fdc:	b580      	push	{r7, lr}
 8004fde:	b08c      	sub	sp, #48	; 0x30
 8004fe0:	af02      	add	r7, sp, #8
 8004fe2:	60f8      	str	r0, [r7, #12]
 8004fe4:	607a      	str	r2, [r7, #4]
 8004fe6:	461a      	mov	r2, r3
 8004fe8:	460b      	mov	r3, r1
 8004fea:	817b      	strh	r3, [r7, #10]
 8004fec:	4613      	mov	r3, r2
 8004fee:	813b      	strh	r3, [r7, #8]
  /* Init tickstart for timeout management*/
  uint32_t tickstart = HAL_GetTick();
 8004ff0:	f7fd fff6 	bl	8002fe0 <HAL_GetTick>
 8004ff4:	6278      	str	r0, [r7, #36]	; 0x24

  if (hi2c->State == HAL_I2C_STATE_READY)
 8004ff6:	68fb      	ldr	r3, [r7, #12]
 8004ff8:	f893 303d 	ldrb.w	r3, [r3, #61]	; 0x3d
 8004ffc:	b2db      	uxtb	r3, r3
 8004ffe:	2b20      	cmp	r3, #32
 8005000:	f040 8217 	bne.w	8005432 <HAL_I2C_Master_Receive+0x456>
  {
    /* Wait until BUSY flag is reset */
    if (I2C_WaitOnFlagUntilTimeout(hi2c, I2C_FLAG_BUSY, SET, I2C_TIMEOUT_BUSY_FLAG, tickstart) != HAL_OK)
 8005004:	6a7b      	ldr	r3, [r7, #36]	; 0x24
 8005006:	9300      	str	r3, [sp, #0]
 8005008:	2319      	movs	r3, #25
 800500a:	2201      	movs	r2, #1
 800500c:	497c      	ldr	r1, [pc, #496]	; (8005200 <HAL_I2C_Master_Receive+0x224>)
 800500e:	68f8      	ldr	r0, [r7, #12]
 8005010:	f000 fb66 	bl	80056e0 <I2C_WaitOnFlagUntilTimeout>
 8005014:	4603      	mov	r3, r0
 8005016:	2b00      	cmp	r3, #0
 8005018:	d001      	beq.n	800501e <HAL_I2C_Master_Receive+0x42>
    {
      return HAL_BUSY;
 800501a:	2302      	movs	r3, #2
 800501c:	e20a      	b.n	8005434 <HAL_I2C_Master_Receive+0x458>
    }

    /* Process Locked */
    __HAL_LOCK(hi2c);
 800501e:	68fb      	ldr	r3, [r7, #12]
 8005020:	f893 303c 	ldrb.w	r3, [r3, #60]	; 0x3c
 8005024:	2b01      	cmp	r3, #1
 8005026:	d101      	bne.n	800502c <HAL_I2C_Master_Receive+0x50>
 8005028:	2302      	movs	r3, #2
 800502a:	e203      	b.n	8005434 <HAL_I2C_Master_Receive+0x458>
 800502c:	68fb      	ldr	r3, [r7, #12]
 800502e:	2201      	movs	r2, #1
 8005030:	f883 203c 	strb.w	r2, [r3, #60]	; 0x3c

    /* Check if the I2C is already enabled */
    if ((hi2c->Instance->CR1 & I2C_CR1_PE) != I2C_CR1_PE)
 8005034:	68fb      	ldr	r3, [r7, #12]
 8005036:	681b      	ldr	r3, [r3, #0]
 8005038:	681b      	ldr	r3, [r3, #0]
 800503a:	f003 0301 	and.w	r3, r3, #1
 800503e:	2b01      	cmp	r3, #1
 8005040:	d007      	beq.n	8005052 <HAL_I2C_Master_Receive+0x76>
    {
      /* Enable I2C peripheral */
      __HAL_I2C_ENABLE(hi2c);
 8005042:	68fb      	ldr	r3, [r7, #12]
 8005044:	681b      	ldr	r3, [r3, #0]
 8005046:	681a      	ldr	r2, [r3, #0]
 8005048:	68fb      	ldr	r3, [r7, #12]
 800504a:	681b      	ldr	r3, [r3, #0]
 800504c:	f042 0201 	orr.w	r2, r2, #1
 8005050:	601a      	str	r2, [r3, #0]
    }

    /* Disable Pos */
    CLEAR_BIT(hi2c->Instance->CR1, I2C_CR1_POS);
 8005052:	68fb      	ldr	r3, [r7, #12]
 8005054:	681b      	ldr	r3, [r3, #0]
 8005056:	681a      	ldr	r2, [r3, #0]
 8005058:	68fb      	ldr	r3, [r7, #12]
 800505a:	681b      	ldr	r3, [r3, #0]
 800505c:	f422 6200 	bic.w	r2, r2, #2048	; 0x800
 8005060:	601a      	str	r2, [r3, #0]

    hi2c->State       = HAL_I2C_STATE_BUSY_RX;
 8005062:	68fb      	ldr	r3, [r7, #12]
 8005064:	2222      	movs	r2, #34	; 0x22
 8005066:	f883 203d 	strb.w	r2, [r3, #61]	; 0x3d
    hi2c->Mode        = HAL_I2C_MODE_MASTER;
 800506a:	68fb      	ldr	r3, [r7, #12]
 800506c:	2210      	movs	r2, #16
 800506e:	f883 203e 	strb.w	r2, [r3, #62]	; 0x3e
    hi2c->ErrorCode   = HAL_I2C_ERROR_NONE;
 8005072:	68fb      	ldr	r3, [r7, #12]
 8005074:	2200      	movs	r2, #0
 8005076:	641a      	str	r2, [r3, #64]	; 0x40

    /* Prepare transfer parameters */
    hi2c->pBuffPtr    = pData;
 8005078:	68fb      	ldr	r3, [r7, #12]
 800507a:	687a      	ldr	r2, [r7, #4]
 800507c:	625a      	str	r2, [r3, #36]	; 0x24
    hi2c->XferCount   = Size;
 800507e:	68fb      	ldr	r3, [r7, #12]
 8005080:	893a      	ldrh	r2, [r7, #8]
 8005082:	855a      	strh	r2, [r3, #42]	; 0x2a
    hi2c->XferSize    = hi2c->XferCount;
 8005084:	68fb      	ldr	r3, [r7, #12]
 8005086:	8d5b      	ldrh	r3, [r3, #42]	; 0x2a
 8005088:	b29a      	uxth	r2, r3
 800508a:	68fb      	ldr	r3, [r7, #12]
 800508c:	851a      	strh	r2, [r3, #40]	; 0x28
    hi2c->XferOptions = I2C_NO_OPTION_FRAME;
 800508e:	68fb      	ldr	r3, [r7, #12]
 8005090:	4a5c      	ldr	r2, [pc, #368]	; (8005204 <HAL_I2C_Master_Receive+0x228>)
 8005092:	62da      	str	r2, [r3, #44]	; 0x2c

    /* Send Slave Address */
    if (I2C_MasterRequestRead(hi2c, DevAddress, Timeout, tickstart) != HAL_OK)
 8005094:	8979      	ldrh	r1, [r7, #10]
 8005096:	6a7b      	ldr	r3, [r7, #36]	; 0x24
 8005098:	6b3a      	ldr	r2, [r7, #48]	; 0x30
 800509a:	68f8      	ldr	r0, [r7, #12]
 800509c:	f000 fa52 	bl	8005544 <I2C_MasterRequestRead>
 80050a0:	4603      	mov	r3, r0
 80050a2:	2b00      	cmp	r3, #0
 80050a4:	d001      	beq.n	80050aa <HAL_I2C_Master_Receive+0xce>
    {
      return HAL_ERROR;
 80050a6:	2301      	movs	r3, #1
 80050a8:	e1c4      	b.n	8005434 <HAL_I2C_Master_Receive+0x458>
    }

    if (hi2c->XferSize == 0U)
 80050aa:	68fb      	ldr	r3, [r7, #12]
 80050ac:	8d1b      	ldrh	r3, [r3, #40]	; 0x28
 80050ae:	2b00      	cmp	r3, #0
 80050b0:	d113      	bne.n	80050da <HAL_I2C_Master_Receive+0xfe>
    {
      /* Clear ADDR flag */
      __HAL_I2C_CLEAR_ADDRFLAG(hi2c);
 80050b2:	2300      	movs	r3, #0
 80050b4:	623b      	str	r3, [r7, #32]
 80050b6:	68fb      	ldr	r3, [r7, #12]
 80050b8:	681b      	ldr	r3, [r3, #0]
 80050ba:	695b      	ldr	r3, [r3, #20]
 80050bc:	623b      	str	r3, [r7, #32]
 80050be:	68fb      	ldr	r3, [r7, #12]
 80050c0:	681b      	ldr	r3, [r3, #0]
 80050c2:	699b      	ldr	r3, [r3, #24]
 80050c4:	623b      	str	r3, [r7, #32]
 80050c6:	6a3b      	ldr	r3, [r7, #32]

      /* Generate Stop */
      SET_BIT(hi2c->Instance->CR1, I2C_CR1_STOP);
 80050c8:	68fb      	ldr	r3, [r7, #12]
 80050ca:	681b      	ldr	r3, [r3, #0]
 80050cc:	681a      	ldr	r2, [r3, #0]
 80050ce:	68fb      	ldr	r3, [r7, #12]
 80050d0:	681b      	ldr	r3, [r3, #0]
 80050d2:	f442 7200 	orr.w	r2, r2, #512	; 0x200
 80050d6:	601a      	str	r2, [r3, #0]
 80050d8:	e198      	b.n	800540c <HAL_I2C_Master_Receive+0x430>
    }
    else if (hi2c->XferSize == 1U)
 80050da:	68fb      	ldr	r3, [r7, #12]
 80050dc:	8d1b      	ldrh	r3, [r3, #40]	; 0x28
 80050de:	2b01      	cmp	r3, #1
 80050e0:	d11b      	bne.n	800511a <HAL_I2C_Master_Receive+0x13e>
    {
      /* Disable Acknowledge */
      CLEAR_BIT(hi2c->Instance->CR1, I2C_CR1_ACK);
 80050e2:	68fb      	ldr	r3, [r7, #12]
 80050e4:	681b      	ldr	r3, [r3, #0]
 80050e6:	681a      	ldr	r2, [r3, #0]
 80050e8:	68fb      	ldr	r3, [r7, #12]
 80050ea:	681b      	ldr	r3, [r3, #0]
 80050ec:	f422 6280 	bic.w	r2, r2, #1024	; 0x400
 80050f0:	601a      	str	r2, [r3, #0]

      /* Clear ADDR flag */
      __HAL_I2C_CLEAR_ADDRFLAG(hi2c);
 80050f2:	2300      	movs	r3, #0
 80050f4:	61fb      	str	r3, [r7, #28]
 80050f6:	68fb      	ldr	r3, [r7, #12]
 80050f8:	681b      	ldr	r3, [r3, #0]
 80050fa:	695b      	ldr	r3, [r3, #20]
 80050fc:	61fb      	str	r3, [r7, #28]
 80050fe:	68fb      	ldr	r3, [r7, #12]
 8005100:	681b      	ldr	r3, [r3, #0]
 8005102:	699b      	ldr	r3, [r3, #24]
 8005104:	61fb      	str	r3, [r7, #28]
 8005106:	69fb      	ldr	r3, [r7, #28]

      /* Generate Stop */
      SET_BIT(hi2c->Instance->CR1, I2C_CR1_STOP);
 8005108:	68fb      	ldr	r3, [r7, #12]
 800510a:	681b      	ldr	r3, [r3, #0]
 800510c:	681a      	ldr	r2, [r3, #0]
 800510e:	68fb      	ldr	r3, [r7, #12]
 8005110:	681b      	ldr	r3, [r3, #0]
 8005112:	f442 7200 	orr.w	r2, r2, #512	; 0x200
 8005116:	601a      	str	r2, [r3, #0]
 8005118:	e178      	b.n	800540c <HAL_I2C_Master_Receive+0x430>
    }
    else if (hi2c->XferSize == 2U)
 800511a:	68fb      	ldr	r3, [r7, #12]
 800511c:	8d1b      	ldrh	r3, [r3, #40]	; 0x28
 800511e:	2b02      	cmp	r3, #2
 8005120:	d11b      	bne.n	800515a <HAL_I2C_Master_Receive+0x17e>
    {
      /* Disable Acknowledge */
      CLEAR_BIT(hi2c->Instance->CR1, I2C_CR1_ACK);
 8005122:	68fb      	ldr	r3, [r7, #12]
 8005124:	681b      	ldr	r3, [r3, #0]
 8005126:	681a      	ldr	r2, [r3, #0]
 8005128:	68fb      	ldr	r3, [r7, #12]
 800512a:	681b      	ldr	r3, [r3, #0]
 800512c:	f422 6280 	bic.w	r2, r2, #1024	; 0x400
 8005130:	601a      	str	r2, [r3, #0]

      /* Enable Pos */
      SET_BIT(hi2c->Instance->CR1, I2C_CR1_POS);
 8005132:	68fb      	ldr	r3, [r7, #12]
 8005134:	681b      	ldr	r3, [r3, #0]
 8005136:	681a      	ldr	r2, [r3, #0]
 8005138:	68fb      	ldr	r3, [r7, #12]
 800513a:	681b      	ldr	r3, [r3, #0]
 800513c:	f442 6200 	orr.w	r2, r2, #2048	; 0x800
 8005140:	601a      	str	r2, [r3, #0]

      /* Clear ADDR flag */
      __HAL_I2C_CLEAR_ADDRFLAG(hi2c);
 8005142:	2300      	movs	r3, #0
 8005144:	61bb      	str	r3, [r7, #24]
 8005146:	68fb      	ldr	r3, [r7, #12]
 8005148:	681b      	ldr	r3, [r3, #0]
 800514a:	695b      	ldr	r3, [r3, #20]
 800514c:	61bb      	str	r3, [r7, #24]
 800514e:	68fb      	ldr	r3, [r7, #12]
 8005150:	681b      	ldr	r3, [r3, #0]
 8005152:	699b      	ldr	r3, [r3, #24]
 8005154:	61bb      	str	r3, [r7, #24]
 8005156:	69bb      	ldr	r3, [r7, #24]
 8005158:	e158      	b.n	800540c <HAL_I2C_Master_Receive+0x430>
    }
    else
    {
      /* Enable Acknowledge */
      SET_BIT(hi2c->Instance->CR1, I2C_CR1_ACK);
 800515a:	68fb      	ldr	r3, [r7, #12]
 800515c:	681b      	ldr	r3, [r3, #0]
 800515e:	681a      	ldr	r2, [r3, #0]
 8005160:	68fb      	ldr	r3, [r7, #12]
 8005162:	681b      	ldr	r3, [r3, #0]
 8005164:	f442 6280 	orr.w	r2, r2, #1024	; 0x400
 8005168:	601a      	str	r2, [r3, #0]

      /* Clear ADDR flag */
      __HAL_I2C_CLEAR_ADDRFLAG(hi2c);
 800516a:	2300      	movs	r3, #0
 800516c:	617b      	str	r3, [r7, #20]
 800516e:	68fb      	ldr	r3, [r7, #12]
 8005170:	681b      	ldr	r3, [r3, #0]
 8005172:	695b      	ldr	r3, [r3, #20]
 8005174:	617b      	str	r3, [r7, #20]
 8005176:	68fb      	ldr	r3, [r7, #12]
 8005178:	681b      	ldr	r3, [r3, #0]
 800517a:	699b      	ldr	r3, [r3, #24]
 800517c:	617b      	str	r3, [r7, #20]
 800517e:	697b      	ldr	r3, [r7, #20]
    }

    while (hi2c->XferSize > 0U)
 8005180:	e144      	b.n	800540c <HAL_I2C_Master_Receive+0x430>
    {
      if (hi2c->XferSize <= 3U)
 8005182:	68fb      	ldr	r3, [r7, #12]
 8005184:	8d1b      	ldrh	r3, [r3, #40]	; 0x28
 8005186:	2b03      	cmp	r3, #3
 8005188:	f200 80f1 	bhi.w	800536e <HAL_I2C_Master_Receive+0x392>
      {
        /* One byte */
        if (hi2c->XferSize == 1U)
 800518c:	68fb      	ldr	r3, [r7, #12]
 800518e:	8d1b      	ldrh	r3, [r3, #40]	; 0x28
 8005190:	2b01      	cmp	r3, #1
 8005192:	d123      	bne.n	80051dc <HAL_I2C_Master_Receive+0x200>
        {
          /* Wait until RXNE flag is set */
          if (I2C_WaitOnRXNEFlagUntilTimeout(hi2c, Timeout, tickstart) != HAL_OK)
 8005194:	6a7a      	ldr	r2, [r7, #36]	; 0x24
 8005196:	6b39      	ldr	r1, [r7, #48]	; 0x30
 8005198:	68f8      	ldr	r0, [r7, #12]
 800519a:	f000 fc4b 	bl	8005a34 <I2C_WaitOnRXNEFlagUntilTimeout>
 800519e:	4603      	mov	r3, r0
 80051a0:	2b00      	cmp	r3, #0
 80051a2:	d001      	beq.n	80051a8 <HAL_I2C_Master_Receive+0x1cc>
          {
            return HAL_ERROR;
 80051a4:	2301      	movs	r3, #1
 80051a6:	e145      	b.n	8005434 <HAL_I2C_Master_Receive+0x458>
          }

          /* Read data from DR */
          *hi2c->pBuffPtr = (uint8_t)hi2c->Instance->DR;
 80051a8:	68fb      	ldr	r3, [r7, #12]
 80051aa:	681b      	ldr	r3, [r3, #0]
 80051ac:	691a      	ldr	r2, [r3, #16]
 80051ae:	68fb      	ldr	r3, [r7, #12]
 80051b0:	6a5b      	ldr	r3, [r3, #36]	; 0x24
 80051b2:	b2d2      	uxtb	r2, r2
 80051b4:	701a      	strb	r2, [r3, #0]

          /* Increment Buffer pointer */
          hi2c->pBuffPtr++;
 80051b6:	68fb      	ldr	r3, [r7, #12]
 80051b8:	6a5b      	ldr	r3, [r3, #36]	; 0x24
 80051ba:	1c5a      	adds	r2, r3, #1
 80051bc:	68fb      	ldr	r3, [r7, #12]
 80051be:	625a      	str	r2, [r3, #36]	; 0x24

          /* Update counter */
          hi2c->XferSize--;
 80051c0:	68fb      	ldr	r3, [r7, #12]
 80051c2:	8d1b      	ldrh	r3, [r3, #40]	; 0x28
 80051c4:	3b01      	subs	r3, #1
 80051c6:	b29a      	uxth	r2, r3
 80051c8:	68fb      	ldr	r3, [r7, #12]
 80051ca:	851a      	strh	r2, [r3, #40]	; 0x28
          hi2c->XferCount--;
 80051cc:	68fb      	ldr	r3, [r7, #12]
 80051ce:	8d5b      	ldrh	r3, [r3, #42]	; 0x2a
 80051d0:	b29b      	uxth	r3, r3
 80051d2:	3b01      	subs	r3, #1
 80051d4:	b29a      	uxth	r2, r3
 80051d6:	68fb      	ldr	r3, [r7, #12]
 80051d8:	855a      	strh	r2, [r3, #42]	; 0x2a
 80051da:	e117      	b.n	800540c <HAL_I2C_Master_Receive+0x430>
        }
        /* Two bytes */
        else if (hi2c->XferSize == 2U)
 80051dc:	68fb      	ldr	r3, [r7, #12]
 80051de:	8d1b      	ldrh	r3, [r3, #40]	; 0x28
 80051e0:	2b02      	cmp	r3, #2
 80051e2:	d14e      	bne.n	8005282 <HAL_I2C_Master_Receive+0x2a6>
        {
          /* Wait until BTF flag is set */
          if (I2C_WaitOnFlagUntilTimeout(hi2c, I2C_FLAG_BTF, RESET, Timeout, tickstart) != HAL_OK)
 80051e4:	6a7b      	ldr	r3, [r7, #36]	; 0x24
 80051e6:	9300      	str	r3, [sp, #0]
 80051e8:	6b3b      	ldr	r3, [r7, #48]	; 0x30
 80051ea:	2200      	movs	r2, #0
 80051ec:	4906      	ldr	r1, [pc, #24]	; (8005208 <HAL_I2C_Master_Receive+0x22c>)
 80051ee:	68f8      	ldr	r0, [r7, #12]
 80051f0:	f000 fa76 	bl	80056e0 <I2C_WaitOnFlagUntilTimeout>
 80051f4:	4603      	mov	r3, r0
 80051f6:	2b00      	cmp	r3, #0
 80051f8:	d008      	beq.n	800520c <HAL_I2C_Master_Receive+0x230>
          {
            return HAL_ERROR;
 80051fa:	2301      	movs	r3, #1
 80051fc:	e11a      	b.n	8005434 <HAL_I2C_Master_Receive+0x458>
 80051fe:	bf00      	nop
 8005200:	00100002 	.word	0x00100002
 8005204:	ffff0000 	.word	0xffff0000
 8005208:	00010004 	.word	0x00010004
          }

          /* Generate Stop */
          SET_BIT(hi2c->Instance->CR1, I2C_CR1_STOP);
 800520c:	68fb      	ldr	r3, [r7, #12]
 800520e:	681b      	ldr	r3, [r3, #0]
 8005210:	681a      	ldr	r2, [r3, #0]
 8005212:	68fb      	ldr	r3, [r7, #12]
 8005214:	681b      	ldr	r3, [r3, #0]
 8005216:	f442 7200 	orr.w	r2, r2, #512	; 0x200
 800521a:	601a      	str	r2, [r3, #0]

          /* Read data from DR */
          *hi2c->pBuffPtr = (uint8_t)hi2c->Instance->DR;
 800521c:	68fb      	ldr	r3, [r7, #12]
 800521e:	681b      	ldr	r3, [r3, #0]
 8005220:	691a      	ldr	r2, [r3, #16]
 8005222:	68fb      	ldr	r3, [r7, #12]
 8005224:	6a5b      	ldr	r3, [r3, #36]	; 0x24
 8005226:	b2d2      	uxtb	r2, r2
 8005228:	701a      	strb	r2, [r3, #0]

          /* Increment Buffer pointer */
          hi2c->pBuffPtr++;
 800522a:	68fb      	ldr	r3, [r7, #12]
 800522c:	6a5b      	ldr	r3, [r3, #36]	; 0x24
 800522e:	1c5a      	adds	r2, r3, #1
 8005230:	68fb      	ldr	r3, [r7, #12]
 8005232:	625a      	str	r2, [r3, #36]	; 0x24

          /* Update counter */
          hi2c->XferSize--;
 8005234:	68fb      	ldr	r3, [r7, #12]
 8005236:	8d1b      	ldrh	r3, [r3, #40]	; 0x28
 8005238:	3b01      	subs	r3, #1
 800523a:	b29a      	uxth	r2, r3
 800523c:	68fb      	ldr	r3, [r7, #12]
 800523e:	851a      	strh	r2, [r3, #40]	; 0x28
          hi2c->XferCount--;
 8005240:	68fb      	ldr	r3, [r7, #12]
 8005242:	8d5b      	ldrh	r3, [r3, #42]	; 0x2a
 8005244:	b29b      	uxth	r3, r3
 8005246:	3b01      	subs	r3, #1
 8005248:	b29a      	uxth	r2, r3
 800524a:	68fb      	ldr	r3, [r7, #12]
 800524c:	855a      	strh	r2, [r3, #42]	; 0x2a

          /* Read data from DR */
          *hi2c->pBuffPtr = (uint8_t)hi2c->Instance->DR;
 800524e:	68fb      	ldr	r3, [r7, #12]
 8005250:	681b      	ldr	r3, [r3, #0]
 8005252:	691a      	ldr	r2, [r3, #16]
 8005254:	68fb      	ldr	r3, [r7, #12]
 8005256:	6a5b      	ldr	r3, [r3, #36]	; 0x24
 8005258:	b2d2      	uxtb	r2, r2
 800525a:	701a      	strb	r2, [r3, #0]

          /* Increment Buffer pointer */
          hi2c->pBuffPtr++;
 800525c:	68fb      	ldr	r3, [r7, #12]
 800525e:	6a5b      	ldr	r3, [r3, #36]	; 0x24
 8005260:	1c5a      	adds	r2, r3, #1
 8005262:	68fb      	ldr	r3, [r7, #12]
 8005264:	625a      	str	r2, [r3, #36]	; 0x24

          /* Update counter */
          hi2c->XferSize--;
 8005266:	68fb      	ldr	r3, [r7, #12]
 8005268:	8d1b      	ldrh	r3, [r3, #40]	; 0x28
 800526a:	3b01      	subs	r3, #1
 800526c:	b29a      	uxth	r2, r3
 800526e:	68fb      	ldr	r3, [r7, #12]
 8005270:	851a      	strh	r2, [r3, #40]	; 0x28
          hi2c->XferCount--;
 8005272:	68fb      	ldr	r3, [r7, #12]
 8005274:	8d5b      	ldrh	r3, [r3, #42]	; 0x2a
 8005276:	b29b      	uxth	r3, r3
 8005278:	3b01      	subs	r3, #1
 800527a:	b29a      	uxth	r2, r3
 800527c:	68fb      	ldr	r3, [r7, #12]
 800527e:	855a      	strh	r2, [r3, #42]	; 0x2a
 8005280:	e0c4      	b.n	800540c <HAL_I2C_Master_Receive+0x430>
        }
        /* 3 Last bytes */
        else
        {
          /* Wait until BTF flag is set */
          if (I2C_WaitOnFlagUntilTimeout(hi2c, I2C_FLAG_BTF, RESET, Timeout, tickstart) != HAL_OK)
 8005282:	6a7b      	ldr	r3, [r7, #36]	; 0x24
 8005284:	9300      	str	r3, [sp, #0]
 8005286:	6b3b      	ldr	r3, [r7, #48]	; 0x30
 8005288:	2200      	movs	r2, #0
 800528a:	496c      	ldr	r1, [pc, #432]	; (800543c <HAL_I2C_Master_Receive+0x460>)
 800528c:	68f8      	ldr	r0, [r7, #12]
 800528e:	f000 fa27 	bl	80056e0 <I2C_WaitOnFlagUntilTimeout>
 8005292:	4603      	mov	r3, r0
 8005294:	2b00      	cmp	r3, #0
 8005296:	d001      	beq.n	800529c <HAL_I2C_Master_Receive+0x2c0>
          {
            return HAL_ERROR;
 8005298:	2301      	movs	r3, #1
 800529a:	e0cb      	b.n	8005434 <HAL_I2C_Master_Receive+0x458>
          }

          /* Disable Acknowledge */
          CLEAR_BIT(hi2c->Instance->CR1, I2C_CR1_ACK);
 800529c:	68fb      	ldr	r3, [r7, #12]
 800529e:	681b      	ldr	r3, [r3, #0]
 80052a0:	681a      	ldr	r2, [r3, #0]
 80052a2:	68fb      	ldr	r3, [r7, #12]
 80052a4:	681b      	ldr	r3, [r3, #0]
 80052a6:	f422 6280 	bic.w	r2, r2, #1024	; 0x400
 80052aa:	601a      	str	r2, [r3, #0]

          /* Read data from DR */
          *hi2c->pBuffPtr = (uint8_t)hi2c->Instance->DR;
 80052ac:	68fb      	ldr	r3, [r7, #12]
 80052ae:	681b      	ldr	r3, [r3, #0]
 80052b0:	691a      	ldr	r2, [r3, #16]
 80052b2:	68fb      	ldr	r3, [r7, #12]
 80052b4:	6a5b      	ldr	r3, [r3, #36]	; 0x24
 80052b6:	b2d2      	uxtb	r2, r2
 80052b8:	701a      	strb	r2, [r3, #0]

          /* Increment Buffer pointer */
          hi2c->pBuffPtr++;
 80052ba:	68fb      	ldr	r3, [r7, #12]
 80052bc:	6a5b      	ldr	r3, [r3, #36]	; 0x24
 80052be:	1c5a      	adds	r2, r3, #1
 80052c0:	68fb      	ldr	r3, [r7, #12]
 80052c2:	625a      	str	r2, [r3, #36]	; 0x24

          /* Update counter */
          hi2c->XferSize--;
 80052c4:	68fb      	ldr	r3, [r7, #12]
 80052c6:	8d1b      	ldrh	r3, [r3, #40]	; 0x28
 80052c8:	3b01      	subs	r3, #1
 80052ca:	b29a      	uxth	r2, r3
 80052cc:	68fb      	ldr	r3, [r7, #12]
 80052ce:	851a      	strh	r2, [r3, #40]	; 0x28
          hi2c->XferCount--;
 80052d0:	68fb      	ldr	r3, [r7, #12]
 80052d2:	8d5b      	ldrh	r3, [r3, #42]	; 0x2a
 80052d4:	b29b      	uxth	r3, r3
 80052d6:	3b01      	subs	r3, #1
 80052d8:	b29a      	uxth	r2, r3
 80052da:	68fb      	ldr	r3, [r7, #12]
 80052dc:	855a      	strh	r2, [r3, #42]	; 0x2a

          /* Wait until BTF flag is set */
          if (I2C_WaitOnFlagUntilTimeout(hi2c, I2C_FLAG_BTF, RESET, Timeout, tickstart) != HAL_OK)
 80052de:	6a7b      	ldr	r3, [r7, #36]	; 0x24
 80052e0:	9300      	str	r3, [sp, #0]
 80052e2:	6b3b      	ldr	r3, [r7, #48]	; 0x30
 80052e4:	2200      	movs	r2, #0
 80052e6:	4955      	ldr	r1, [pc, #340]	; (800543c <HAL_I2C_Master_Receive+0x460>)
 80052e8:	68f8      	ldr	r0, [r7, #12]
 80052ea:	f000 f9f9 	bl	80056e0 <I2C_WaitOnFlagUntilTimeout>
 80052ee:	4603      	mov	r3, r0
 80052f0:	2b00      	cmp	r3, #0
 80052f2:	d001      	beq.n	80052f8 <HAL_I2C_Master_Receive+0x31c>
          {
            return HAL_ERROR;
 80052f4:	2301      	movs	r3, #1
 80052f6:	e09d      	b.n	8005434 <HAL_I2C_Master_Receive+0x458>
          }

          /* Generate Stop */
          SET_BIT(hi2c->Instance->CR1, I2C_CR1_STOP);
 80052f8:	68fb      	ldr	r3, [r7, #12]
 80052fa:	681b      	ldr	r3, [r3, #0]
 80052fc:	681a      	ldr	r2, [r3, #0]
 80052fe:	68fb      	ldr	r3, [r7, #12]
 8005300:	681b      	ldr	r3, [r3, #0]
 8005302:	f442 7200 	orr.w	r2, r2, #512	; 0x200
 8005306:	601a      	str	r2, [r3, #0]

          /* Read data from DR */
          *hi2c->pBuffPtr = (uint8_t)hi2c->Instance->DR;
 8005308:	68fb      	ldr	r3, [r7, #12]
 800530a:	681b      	ldr	r3, [r3, #0]
 800530c:	691a      	ldr	r2, [r3, #16]
 800530e:	68fb      	ldr	r3, [r7, #12]
 8005310:	6a5b      	ldr	r3, [r3, #36]	; 0x24
 8005312:	b2d2      	uxtb	r2, r2
 8005314:	701a      	strb	r2, [r3, #0]

          /* Increment Buffer pointer */
          hi2c->pBuffPtr++;
 8005316:	68fb      	ldr	r3, [r7, #12]
 8005318:	6a5b      	ldr	r3, [r3, #36]	; 0x24
 800531a:	1c5a      	adds	r2, r3, #1
 800531c:	68fb      	ldr	r3, [r7, #12]
 800531e:	625a      	str	r2, [r3, #36]	; 0x24

          /* Update counter */
          hi2c->XferSize--;
 8005320:	68fb      	ldr	r3, [r7, #12]
 8005322:	8d1b      	ldrh	r3, [r3, #40]	; 0x28
 8005324:	3b01      	subs	r3, #1
 8005326:	b29a      	uxth	r2, r3
 8005328:	68fb      	ldr	r3, [r7, #12]
 800532a:	851a      	strh	r2, [r3, #40]	; 0x28
          hi2c->XferCount--;
 800532c:	68fb      	ldr	r3, [r7, #12]
 800532e:	8d5b      	ldrh	r3, [r3, #42]	; 0x2a
 8005330:	b29b      	uxth	r3, r3
 8005332:	3b01      	subs	r3, #1
 8005334:	b29a      	uxth	r2, r3
 8005336:	68fb      	ldr	r3, [r7, #12]
 8005338:	855a      	strh	r2, [r3, #42]	; 0x2a

          /* Read data from DR */
          *hi2c->pBuffPtr = (uint8_t)hi2c->Instance->DR;
 800533a:	68fb      	ldr	r3, [r7, #12]
 800533c:	681b      	ldr	r3, [r3, #0]
 800533e:	691a      	ldr	r2, [r3, #16]
 8005340:	68fb      	ldr	r3, [r7, #12]
 8005342:	6a5b      	ldr	r3, [r3, #36]	; 0x24
 8005344:	b2d2      	uxtb	r2, r2
 8005346:	701a      	strb	r2, [r3, #0]

          /* Increment Buffer pointer */
          hi2c->pBuffPtr++;
 8005348:	68fb      	ldr	r3, [r7, #12]
 800534a:	6a5b      	ldr	r3, [r3, #36]	; 0x24
 800534c:	1c5a      	adds	r2, r3, #1
 800534e:	68fb      	ldr	r3, [r7, #12]
 8005350:	625a      	str	r2, [r3, #36]	; 0x24

          /* Update counter */
          hi2c->XferSize--;
 8005352:	68fb      	ldr	r3, [r7, #12]
 8005354:	8d1b      	ldrh	r3, [r3, #40]	; 0x28
 8005356:	3b01      	subs	r3, #1
 8005358:	b29a      	uxth	r2, r3
 800535a:	68fb      	ldr	r3, [r7, #12]
 800535c:	851a      	strh	r2, [r3, #40]	; 0x28
          hi2c->XferCount--;
 800535e:	68fb      	ldr	r3, [r7, #12]
 8005360:	8d5b      	ldrh	r3, [r3, #42]	; 0x2a
 8005362:	b29b      	uxth	r3, r3
 8005364:	3b01      	subs	r3, #1
 8005366:	b29a      	uxth	r2, r3
 8005368:	68fb      	ldr	r3, [r7, #12]
 800536a:	855a      	strh	r2, [r3, #42]	; 0x2a
 800536c:	e04e      	b.n	800540c <HAL_I2C_Master_Receive+0x430>
        }
      }
      else
      {
        /* Wait until RXNE flag is set */
        if (I2C_WaitOnRXNEFlagUntilTimeout(hi2c, Timeout, tickstart) != HAL_OK)
 800536e:	6a7a      	ldr	r2, [r7, #36]	; 0x24
 8005370:	6b39      	ldr	r1, [r7, #48]	; 0x30
 8005372:	68f8      	ldr	r0, [r7, #12]
 8005374:	f000 fb5e 	bl	8005a34 <I2C_WaitOnRXNEFlagUntilTimeout>
 8005378:	4603      	mov	r3, r0
 800537a:	2b00      	cmp	r3, #0
 800537c:	d001      	beq.n	8005382 <HAL_I2C_Master_Receive+0x3a6>
        {
          return HAL_ERROR;
 800537e:	2301      	movs	r3, #1
 8005380:	e058      	b.n	8005434 <HAL_I2C_Master_Receive+0x458>
        }

        /* Read data from DR */
        *hi2c->pBuffPtr = (uint8_t)hi2c->Instance->DR;
 8005382:	68fb      	ldr	r3, [r7, #12]
 8005384:	681b      	ldr	r3, [r3, #0]
 8005386:	691a      	ldr	r2, [r3, #16]
 8005388:	68fb      	ldr	r3, [r7, #12]
 800538a:	6a5b      	ldr	r3, [r3, #36]	; 0x24
 800538c:	b2d2      	uxtb	r2, r2
 800538e:	701a      	strb	r2, [r3, #0]

        /* Increment Buffer pointer */
        hi2c->pBuffPtr++;
 8005390:	68fb      	ldr	r3, [r7, #12]
 8005392:	6a5b      	ldr	r3, [r3, #36]	; 0x24
 8005394:	1c5a      	adds	r2, r3, #1
 8005396:	68fb      	ldr	r3, [r7, #12]
 8005398:	625a      	str	r2, [r3, #36]	; 0x24

        /* Update counter */
        hi2c->XferSize--;
 800539a:	68fb      	ldr	r3, [r7, #12]
 800539c:	8d1b      	ldrh	r3, [r3, #40]	; 0x28
 800539e:	3b01      	subs	r3, #1
 80053a0:	b29a      	uxth	r2, r3
 80053a2:	68fb      	ldr	r3, [r7, #12]
 80053a4:	851a      	strh	r2, [r3, #40]	; 0x28
        hi2c->XferCount--;
 80053a6:	68fb      	ldr	r3, [r7, #12]
 80053a8:	8d5b      	ldrh	r3, [r3, #42]	; 0x2a
 80053aa:	b29b      	uxth	r3, r3
 80053ac:	3b01      	subs	r3, #1
 80053ae:	b29a      	uxth	r2, r3
 80053b0:	68fb      	ldr	r3, [r7, #12]
 80053b2:	855a      	strh	r2, [r3, #42]	; 0x2a

        if (__HAL_I2C_GET_FLAG(hi2c, I2C_FLAG_BTF) == SET)
 80053b4:	68fb      	ldr	r3, [r7, #12]
 80053b6:	681b      	ldr	r3, [r3, #0]
 80053b8:	695b      	ldr	r3, [r3, #20]
 80053ba:	f003 0304 	and.w	r3, r3, #4
 80053be:	2b04      	cmp	r3, #4
 80053c0:	d124      	bne.n	800540c <HAL_I2C_Master_Receive+0x430>
        {

          if (hi2c->XferSize == 3U)
 80053c2:	68fb      	ldr	r3, [r7, #12]
 80053c4:	8d1b      	ldrh	r3, [r3, #40]	; 0x28
 80053c6:	2b03      	cmp	r3, #3
 80053c8:	d107      	bne.n	80053da <HAL_I2C_Master_Receive+0x3fe>
          {
            /* Disable Acknowledge */
            CLEAR_BIT(hi2c->Instance->CR1, I2C_CR1_ACK);
 80053ca:	68fb      	ldr	r3, [r7, #12]
 80053cc:	681b      	ldr	r3, [r3, #0]
 80053ce:	681a      	ldr	r2, [r3, #0]
 80053d0:	68fb      	ldr	r3, [r7, #12]
 80053d2:	681b      	ldr	r3, [r3, #0]
 80053d4:	f422 6280 	bic.w	r2, r2, #1024	; 0x400
 80053d8:	601a      	str	r2, [r3, #0]
          }

          /* Read data from DR */
          *hi2c->pBuffPtr = (uint8_t)hi2c->Instance->DR;
 80053da:	68fb      	ldr	r3, [r7, #12]
 80053dc:	681b      	ldr	r3, [r3, #0]
 80053de:	691a      	ldr	r2, [r3, #16]
 80053e0:	68fb      	ldr	r3, [r7, #12]
 80053e2:	6a5b      	ldr	r3, [r3, #36]	; 0x24
 80053e4:	b2d2      	uxtb	r2, r2
 80053e6:	701a      	strb	r2, [r3, #0]

          /* Increment Buffer pointer */
          hi2c->pBuffPtr++;
 80053e8:	68fb      	ldr	r3, [r7, #12]
 80053ea:	6a5b      	ldr	r3, [r3, #36]	; 0x24
 80053ec:	1c5a      	adds	r2, r3, #1
 80053ee:	68fb      	ldr	r3, [r7, #12]
 80053f0:	625a      	str	r2, [r3, #36]	; 0x24

          /* Update counter */
          hi2c->XferSize--;
 80053f2:	68fb      	ldr	r3, [r7, #12]
 80053f4:	8d1b      	ldrh	r3, [r3, #40]	; 0x28
 80053f6:	3b01      	subs	r3, #1
 80053f8:	b29a      	uxth	r2, r3
 80053fa:	68fb      	ldr	r3, [r7, #12]
 80053fc:	851a      	strh	r2, [r3, #40]	; 0x28
          hi2c->XferCount--;
 80053fe:	68fb      	ldr	r3, [r7, #12]
 8005400:	8d5b      	ldrh	r3, [r3, #42]	; 0x2a
 8005402:	b29b      	uxth	r3, r3
 8005404:	3b01      	subs	r3, #1
 8005406:	b29a      	uxth	r2, r3
 8005408:	68fb      	ldr	r3, [r7, #12]
 800540a:	855a      	strh	r2, [r3, #42]	; 0x2a
    while (hi2c->XferSize > 0U)
 800540c:	68fb      	ldr	r3, [r7, #12]
 800540e:	8d1b      	ldrh	r3, [r3, #40]	; 0x28
 8005410:	2b00      	cmp	r3, #0
 8005412:	f47f aeb6 	bne.w	8005182 <HAL_I2C_Master_Receive+0x1a6>
        }
      }
    }

    hi2c->State = HAL_I2C_STATE_READY;
 8005416:	68fb      	ldr	r3, [r7, #12]
 8005418:	2220      	movs	r2, #32
 800541a:	f883 203d 	strb.w	r2, [r3, #61]	; 0x3d
    hi2c->Mode = HAL_I2C_MODE_NONE;
 800541e:	68fb      	ldr	r3, [r7, #12]
 8005420:	2200      	movs	r2, #0
 8005422:	f883 203e 	strb.w	r2, [r3, #62]	; 0x3e

    /* Process Unlocked */
    __HAL_UNLOCK(hi2c);
 8005426:	68fb      	ldr	r3, [r7, #12]
 8005428:	2200      	movs	r2, #0
 800542a:	f883 203c 	strb.w	r2, [r3, #60]	; 0x3c

    return HAL_OK;
 800542e:	2300      	movs	r3, #0
 8005430:	e000      	b.n	8005434 <HAL_I2C_Master_Receive+0x458>
  }
  else
  {
    return HAL_BUSY;
 8005432:	2302      	movs	r3, #2
  }
}
 8005434:	4618      	mov	r0, r3
 8005436:	3728      	adds	r7, #40	; 0x28
 8005438:	46bd      	mov	sp, r7
 800543a:	bd80      	pop	{r7, pc}
 800543c:	00010004 	.word	0x00010004

08005440 <I2C_MasterRequestWrite>:
  * @param  Timeout Timeout duration
  * @param  Tickstart Tick start value
  * @retval HAL status
  */
static HAL_StatusTypeDef I2C_MasterRequestWrite(I2C_HandleTypeDef *hi2c, uint16_t DevAddress, uint32_t Timeout, uint32_t Tickstart)
{
 8005440:	b580      	push	{r7, lr}
 8005442:	b088      	sub	sp, #32
 8005444:	af02      	add	r7, sp, #8
 8005446:	60f8      	str	r0, [r7, #12]
 8005448:	607a      	str	r2, [r7, #4]
 800544a:	603b      	str	r3, [r7, #0]
 800544c:	460b      	mov	r3, r1
 800544e:	817b      	strh	r3, [r7, #10]
  /* Declaration of temporary variable to prevent undefined behavior of volatile usage */
  uint32_t CurrentXferOptions = hi2c->XferOptions;
 8005450:	68fb      	ldr	r3, [r7, #12]
 8005452:	6adb      	ldr	r3, [r3, #44]	; 0x2c
 8005454:	617b      	str	r3, [r7, #20]

  /* Generate Start condition if first transfer */
  if ((CurrentXferOptions == I2C_FIRST_AND_LAST_FRAME) || (CurrentXferOptions == I2C_FIRST_FRAME) || (CurrentXferOptions == I2C_NO_OPTION_FRAME))
 8005456:	697b      	ldr	r3, [r7, #20]
 8005458:	2b08      	cmp	r3, #8
 800545a:	d006      	beq.n	800546a <I2C_MasterRequestWrite+0x2a>
 800545c:	697b      	ldr	r3, [r7, #20]
 800545e:	2b01      	cmp	r3, #1
 8005460:	d003      	beq.n	800546a <I2C_MasterRequestWrite+0x2a>
 8005462:	697b      	ldr	r3, [r7, #20]
 8005464:	f513 3f80 	cmn.w	r3, #65536	; 0x10000
 8005468:	d108      	bne.n	800547c <I2C_MasterRequestWrite+0x3c>
  {
    /* Generate Start */
    SET_BIT(hi2c->Instance->CR1, I2C_CR1_START);
 800546a:	68fb      	ldr	r3, [r7, #12]
 800546c:	681b      	ldr	r3, [r3, #0]
 800546e:	681a      	ldr	r2, [r3, #0]
 8005470:	68fb      	ldr	r3, [r7, #12]
 8005472:	681b      	ldr	r3, [r3, #0]
 8005474:	f442 7280 	orr.w	r2, r2, #256	; 0x100
 8005478:	601a      	str	r2, [r3, #0]
 800547a:	e00b      	b.n	8005494 <I2C_MasterRequestWrite+0x54>
  }
  else if (hi2c->PreviousState == I2C_STATE_MASTER_BUSY_RX)
 800547c:	68fb      	ldr	r3, [r7, #12]
 800547e:	6b1b      	ldr	r3, [r3, #48]	; 0x30
 8005480:	2b12      	cmp	r3, #18
 8005482:	d107      	bne.n	8005494 <I2C_MasterRequestWrite+0x54>
  {
    /* Generate ReStart */
    SET_BIT(hi2c->Instance->CR1, I2C_CR1_START);
 8005484:	68fb      	ldr	r3, [r7, #12]
 8005486:	681b      	ldr	r3, [r3, #0]
 8005488:	681a      	ldr	r2, [r3, #0]
 800548a:	68fb      	ldr	r3, [r7, #12]
 800548c:	681b      	ldr	r3, [r3, #0]
 800548e:	f442 7280 	orr.w	r2, r2, #256	; 0x100
 8005492:	601a      	str	r2, [r3, #0]
  {
    /* Do nothing */
  }

  /* Wait until SB flag is set */
  if (I2C_WaitOnFlagUntilTimeout(hi2c, I2C_FLAG_SB, RESET, Timeout, Tickstart) != HAL_OK)
 8005494:	683b      	ldr	r3, [r7, #0]
 8005496:	9300      	str	r3, [sp, #0]
 8005498:	687b      	ldr	r3, [r7, #4]
 800549a:	2200      	movs	r2, #0
 800549c:	f04f 1101 	mov.w	r1, #65537	; 0x10001
 80054a0:	68f8      	ldr	r0, [r7, #12]
 80054a2:	f000 f91d 	bl	80056e0 <I2C_WaitOnFlagUntilTimeout>
 80054a6:	4603      	mov	r3, r0
 80054a8:	2b00      	cmp	r3, #0
 80054aa:	d00d      	beq.n	80054c8 <I2C_MasterRequestWrite+0x88>
  {
    if (READ_BIT(hi2c->Instance->CR1, I2C_CR1_START) == I2C_CR1_START)
 80054ac:	68fb      	ldr	r3, [r7, #12]
 80054ae:	681b      	ldr	r3, [r3, #0]
 80054b0:	681b      	ldr	r3, [r3, #0]
 80054b2:	f403 7380 	and.w	r3, r3, #256	; 0x100
 80054b6:	f5b3 7f80 	cmp.w	r3, #256	; 0x100
 80054ba:	d103      	bne.n	80054c4 <I2C_MasterRequestWrite+0x84>
    {
      hi2c->ErrorCode = HAL_I2C_WRONG_START;
 80054bc:	68fb      	ldr	r3, [r7, #12]
 80054be:	f44f 7200 	mov.w	r2, #512	; 0x200
 80054c2:	641a      	str	r2, [r3, #64]	; 0x40
    }
    return HAL_TIMEOUT;
 80054c4:	2303      	movs	r3, #3
 80054c6:	e035      	b.n	8005534 <I2C_MasterRequestWrite+0xf4>
  }

  if (hi2c->Init.AddressingMode == I2C_ADDRESSINGMODE_7BIT)
 80054c8:	68fb      	ldr	r3, [r7, #12]
 80054ca:	691b      	ldr	r3, [r3, #16]
 80054cc:	f5b3 4f80 	cmp.w	r3, #16384	; 0x4000
 80054d0:	d108      	bne.n	80054e4 <I2C_MasterRequestWrite+0xa4>
  {
    /* Send slave address */
    hi2c->Instance->DR = I2C_7BIT_ADD_WRITE(DevAddress);
 80054d2:	897b      	ldrh	r3, [r7, #10]
 80054d4:	b2db      	uxtb	r3, r3
 80054d6:	461a      	mov	r2, r3
 80054d8:	68fb      	ldr	r3, [r7, #12]
 80054da:	681b      	ldr	r3, [r3, #0]
 80054dc:	f002 02fe 	and.w	r2, r2, #254	; 0xfe
 80054e0:	611a      	str	r2, [r3, #16]
 80054e2:	e01b      	b.n	800551c <I2C_MasterRequestWrite+0xdc>
  }
  else
  {
    /* Send header of slave address */
    hi2c->Instance->DR = I2C_10BIT_HEADER_WRITE(DevAddress);
 80054e4:	897b      	ldrh	r3, [r7, #10]
 80054e6:	11db      	asrs	r3, r3, #7
 80054e8:	b2db      	uxtb	r3, r3
 80054ea:	f003 0306 	and.w	r3, r3, #6
 80054ee:	b2db      	uxtb	r3, r3
 80054f0:	f063 030f 	orn	r3, r3, #15
 80054f4:	b2da      	uxtb	r2, r3
 80054f6:	68fb      	ldr	r3, [r7, #12]
 80054f8:	681b      	ldr	r3, [r3, #0]
 80054fa:	611a      	str	r2, [r3, #16]

    /* Wait until ADD10 flag is set */
    if (I2C_WaitOnMasterAddressFlagUntilTimeout(hi2c, I2C_FLAG_ADD10, Timeout, Tickstart) != HAL_OK)
 80054fc:	683b      	ldr	r3, [r7, #0]
 80054fe:	687a      	ldr	r2, [r7, #4]
 8005500:	490e      	ldr	r1, [pc, #56]	; (800553c <I2C_MasterRequestWrite+0xfc>)
 8005502:	68f8      	ldr	r0, [r7, #12]
 8005504:	f000 f966 	bl	80057d4 <I2C_WaitOnMasterAddressFlagUntilTimeout>
 8005508:	4603      	mov	r3, r0
 800550a:	2b00      	cmp	r3, #0
 800550c:	d001      	beq.n	8005512 <I2C_MasterRequestWrite+0xd2>
    {
      return HAL_ERROR;
 800550e:	2301      	movs	r3, #1
 8005510:	e010      	b.n	8005534 <I2C_MasterRequestWrite+0xf4>
    }

    /* Send slave address */
    hi2c->Instance->DR = I2C_10BIT_ADDRESS(DevAddress);
 8005512:	897b      	ldrh	r3, [r7, #10]
 8005514:	b2da      	uxtb	r2, r3
 8005516:	68fb      	ldr	r3, [r7, #12]
 8005518:	681b      	ldr	r3, [r3, #0]
 800551a:	611a      	str	r2, [r3, #16]
  }

  /* Wait until ADDR flag is set */
  if (I2C_WaitOnMasterAddressFlagUntilTimeout(hi2c, I2C_FLAG_ADDR, Timeout, Tickstart) != HAL_OK)
 800551c:	683b      	ldr	r3, [r7, #0]
 800551e:	687a      	ldr	r2, [r7, #4]
 8005520:	4907      	ldr	r1, [pc, #28]	; (8005540 <I2C_MasterRequestWrite+0x100>)
 8005522:	68f8      	ldr	r0, [r7, #12]
 8005524:	f000 f956 	bl	80057d4 <I2C_WaitOnMasterAddressFlagUntilTimeout>
 8005528:	4603      	mov	r3, r0
 800552a:	2b00      	cmp	r3, #0
 800552c:	d001      	beq.n	8005532 <I2C_MasterRequestWrite+0xf2>
  {
    return HAL_ERROR;
 800552e:	2301      	movs	r3, #1
 8005530:	e000      	b.n	8005534 <I2C_MasterRequestWrite+0xf4>
  }

  return HAL_OK;
 8005532:	2300      	movs	r3, #0
}
 8005534:	4618      	mov	r0, r3
 8005536:	3718      	adds	r7, #24
 8005538:	46bd      	mov	sp, r7
 800553a:	bd80      	pop	{r7, pc}
 800553c:	00010008 	.word	0x00010008
 8005540:	00010002 	.word	0x00010002

08005544 <I2C_MasterRequestRead>:
  * @param  Timeout Timeout duration
  * @param  Tickstart Tick start value
  * @retval HAL status
  */
static HAL_StatusTypeDef I2C_MasterRequestRead(I2C_HandleTypeDef *hi2c, uint16_t DevAddress, uint32_t Timeout, uint32_t Tickstart)
{
 8005544:	b580      	push	{r7, lr}
 8005546:	b088      	sub	sp, #32
 8005548:	af02      	add	r7, sp, #8
 800554a:	60f8      	str	r0, [r7, #12]
 800554c:	607a      	str	r2, [r7, #4]
 800554e:	603b      	str	r3, [r7, #0]
 8005550:	460b      	mov	r3, r1
 8005552:	817b      	strh	r3, [r7, #10]
  /* Declaration of temporary variable to prevent undefined behavior of volatile usage */
  uint32_t CurrentXferOptions = hi2c->XferOptions;
 8005554:	68fb      	ldr	r3, [r7, #12]
 8005556:	6adb      	ldr	r3, [r3, #44]	; 0x2c
 8005558:	617b      	str	r3, [r7, #20]

  /* Enable Acknowledge */
  SET_BIT(hi2c->Instance->CR1, I2C_CR1_ACK);
 800555a:	68fb      	ldr	r3, [r7, #12]
 800555c:	681b      	ldr	r3, [r3, #0]
 800555e:	681a      	ldr	r2, [r3, #0]
 8005560:	68fb      	ldr	r3, [r7, #12]
 8005562:	681b      	ldr	r3, [r3, #0]
 8005564:	f442 6280 	orr.w	r2, r2, #1024	; 0x400
 8005568:	601a      	str	r2, [r3, #0]

  /* Generate Start condition if first transfer */
  if ((CurrentXferOptions == I2C_FIRST_AND_LAST_FRAME) || (CurrentXferOptions == I2C_FIRST_FRAME)  || (CurrentXferOptions == I2C_NO_OPTION_FRAME))
 800556a:	697b      	ldr	r3, [r7, #20]
 800556c:	2b08      	cmp	r3, #8
 800556e:	d006      	beq.n	800557e <I2C_MasterRequestRead+0x3a>
 8005570:	697b      	ldr	r3, [r7, #20]
 8005572:	2b01      	cmp	r3, #1
 8005574:	d003      	beq.n	800557e <I2C_MasterRequestRead+0x3a>
 8005576:	697b      	ldr	r3, [r7, #20]
 8005578:	f513 3f80 	cmn.w	r3, #65536	; 0x10000
 800557c:	d108      	bne.n	8005590 <I2C_MasterRequestRead+0x4c>
  {
    /* Generate Start */
    SET_BIT(hi2c->Instance->CR1, I2C_CR1_START);
 800557e:	68fb      	ldr	r3, [r7, #12]
 8005580:	681b      	ldr	r3, [r3, #0]
 8005582:	681a      	ldr	r2, [r3, #0]
 8005584:	68fb      	ldr	r3, [r7, #12]
 8005586:	681b      	ldr	r3, [r3, #0]
 8005588:	f442 7280 	orr.w	r2, r2, #256	; 0x100
 800558c:	601a      	str	r2, [r3, #0]
 800558e:	e00b      	b.n	80055a8 <I2C_MasterRequestRead+0x64>
  }
  else if (hi2c->PreviousState == I2C_STATE_MASTER_BUSY_TX)
 8005590:	68fb      	ldr	r3, [r7, #12]
 8005592:	6b1b      	ldr	r3, [r3, #48]	; 0x30
 8005594:	2b11      	cmp	r3, #17
 8005596:	d107      	bne.n	80055a8 <I2C_MasterRequestRead+0x64>
  {
    /* Generate ReStart */
    SET_BIT(hi2c->Instance->CR1, I2C_CR1_START);
 8005598:	68fb      	ldr	r3, [r7, #12]
 800559a:	681b      	ldr	r3, [r3, #0]
 800559c:	681a      	ldr	r2, [r3, #0]
 800559e:	68fb      	ldr	r3, [r7, #12]
 80055a0:	681b      	ldr	r3, [r3, #0]
 80055a2:	f442 7280 	orr.w	r2, r2, #256	; 0x100
 80055a6:	601a      	str	r2, [r3, #0]
  {
    /* Do nothing */
  }

  /* Wait until SB flag is set */
  if (I2C_WaitOnFlagUntilTimeout(hi2c, I2C_FLAG_SB, RESET, Timeout, Tickstart) != HAL_OK)
 80055a8:	683b      	ldr	r3, [r7, #0]
 80055aa:	9300      	str	r3, [sp, #0]
 80055ac:	687b      	ldr	r3, [r7, #4]
 80055ae:	2200      	movs	r2, #0
 80055b0:	f04f 1101 	mov.w	r1, #65537	; 0x10001
 80055b4:	68f8      	ldr	r0, [r7, #12]
 80055b6:	f000 f893 	bl	80056e0 <I2C_WaitOnFlagUntilTimeout>
 80055ba:	4603      	mov	r3, r0
 80055bc:	2b00      	cmp	r3, #0
 80055be:	d00d      	beq.n	80055dc <I2C_MasterRequestRead+0x98>
  {
    if (READ_BIT(hi2c->Instance->CR1, I2C_CR1_START) == I2C_CR1_START)
 80055c0:	68fb      	ldr	r3, [r7, #12]
 80055c2:	681b      	ldr	r3, [r3, #0]
 80055c4:	681b      	ldr	r3, [r3, #0]
 80055c6:	f403 7380 	and.w	r3, r3, #256	; 0x100
 80055ca:	f5b3 7f80 	cmp.w	r3, #256	; 0x100
 80055ce:	d103      	bne.n	80055d8 <I2C_MasterRequestRead+0x94>
    {
      hi2c->ErrorCode = HAL_I2C_WRONG_START;
 80055d0:	68fb      	ldr	r3, [r7, #12]
 80055d2:	f44f 7200 	mov.w	r2, #512	; 0x200
 80055d6:	641a      	str	r2, [r3, #64]	; 0x40
    }
    return HAL_TIMEOUT;
 80055d8:	2303      	movs	r3, #3
 80055da:	e079      	b.n	80056d0 <I2C_MasterRequestRead+0x18c>
  }

  if (hi2c->Init.AddressingMode == I2C_ADDRESSINGMODE_7BIT)
 80055dc:	68fb      	ldr	r3, [r7, #12]
 80055de:	691b      	ldr	r3, [r3, #16]
 80055e0:	f5b3 4f80 	cmp.w	r3, #16384	; 0x4000
 80055e4:	d108      	bne.n	80055f8 <I2C_MasterRequestRead+0xb4>
  {
    /* Send slave address */
    hi2c->Instance->DR = I2C_7BIT_ADD_READ(DevAddress);
 80055e6:	897b      	ldrh	r3, [r7, #10]
 80055e8:	b2db      	uxtb	r3, r3
 80055ea:	f043 0301 	orr.w	r3, r3, #1
 80055ee:	b2da      	uxtb	r2, r3
 80055f0:	68fb      	ldr	r3, [r7, #12]
 80055f2:	681b      	ldr	r3, [r3, #0]
 80055f4:	611a      	str	r2, [r3, #16]
 80055f6:	e05f      	b.n	80056b8 <I2C_MasterRequestRead+0x174>
  }
  else
  {
    /* Send header of slave address */
    hi2c->Instance->DR = I2C_10BIT_HEADER_WRITE(DevAddress);
 80055f8:	897b      	ldrh	r3, [r7, #10]
 80055fa:	11db      	asrs	r3, r3, #7
 80055fc:	b2db      	uxtb	r3, r3
 80055fe:	f003 0306 	and.w	r3, r3, #6
 8005602:	b2db      	uxtb	r3, r3
 8005604:	f063 030f 	orn	r3, r3, #15
 8005608:	b2da      	uxtb	r2, r3
 800560a:	68fb      	ldr	r3, [r7, #12]
 800560c:	681b      	ldr	r3, [r3, #0]
 800560e:	611a      	str	r2, [r3, #16]

    /* Wait until ADD10 flag is set */
    if (I2C_WaitOnMasterAddressFlagUntilTimeout(hi2c, I2C_FLAG_ADD10, Timeout, Tickstart) != HAL_OK)
 8005610:	683b      	ldr	r3, [r7, #0]
 8005612:	687a      	ldr	r2, [r7, #4]
 8005614:	4930      	ldr	r1, [pc, #192]	; (80056d8 <I2C_MasterRequestRead+0x194>)
 8005616:	68f8      	ldr	r0, [r7, #12]
 8005618:	f000 f8dc 	bl	80057d4 <I2C_WaitOnMasterAddressFlagUntilTimeout>
 800561c:	4603      	mov	r3, r0
 800561e:	2b00      	cmp	r3, #0
 8005620:	d001      	beq.n	8005626 <I2C_MasterRequestRead+0xe2>
    {
      return HAL_ERROR;
 8005622:	2301      	movs	r3, #1
 8005624:	e054      	b.n	80056d0 <I2C_MasterRequestRead+0x18c>
    }

    /* Send slave address */
    hi2c->Instance->DR = I2C_10BIT_ADDRESS(DevAddress);
 8005626:	897b      	ldrh	r3, [r7, #10]
 8005628:	b2da      	uxtb	r2, r3
 800562a:	68fb      	ldr	r3, [r7, #12]
 800562c:	681b      	ldr	r3, [r3, #0]
 800562e:	611a      	str	r2, [r3, #16]

    /* Wait until ADDR flag is set */
    if (I2C_WaitOnMasterAddressFlagUntilTimeout(hi2c, I2C_FLAG_ADDR, Timeout, Tickstart) != HAL_OK)
 8005630:	683b      	ldr	r3, [r7, #0]
 8005632:	687a      	ldr	r2, [r7, #4]
 8005634:	4929      	ldr	r1, [pc, #164]	; (80056dc <I2C_MasterRequestRead+0x198>)
 8005636:	68f8      	ldr	r0, [r7, #12]
 8005638:	f000 f8cc 	bl	80057d4 <I2C_WaitOnMasterAddressFlagUntilTimeout>
 800563c:	4603      	mov	r3, r0
 800563e:	2b00      	cmp	r3, #0
 8005640:	d001      	beq.n	8005646 <I2C_MasterRequestRead+0x102>
    {
      return HAL_ERROR;
 8005642:	2301      	movs	r3, #1
 8005644:	e044      	b.n	80056d0 <I2C_MasterRequestRead+0x18c>
    }

    /* Clear ADDR flag */
    __HAL_I2C_CLEAR_ADDRFLAG(hi2c);
 8005646:	2300      	movs	r3, #0
 8005648:	613b      	str	r3, [r7, #16]
 800564a:	68fb      	ldr	r3, [r7, #12]
 800564c:	681b      	ldr	r3, [r3, #0]
 800564e:	695b      	ldr	r3, [r3, #20]
 8005650:	613b      	str	r3, [r7, #16]
 8005652:	68fb      	ldr	r3, [r7, #12]
 8005654:	681b      	ldr	r3, [r3, #0]
 8005656:	699b      	ldr	r3, [r3, #24]
 8005658:	613b      	str	r3, [r7, #16]
 800565a:	693b      	ldr	r3, [r7, #16]

    /* Generate Restart */
    SET_BIT(hi2c->Instance->CR1, I2C_CR1_START);
 800565c:	68fb      	ldr	r3, [r7, #12]
 800565e:	681b      	ldr	r3, [r3, #0]
 8005660:	681a      	ldr	r2, [r3, #0]
 8005662:	68fb      	ldr	r3, [r7, #12]
 8005664:	681b      	ldr	r3, [r3, #0]
 8005666:	f442 7280 	orr.w	r2, r2, #256	; 0x100
 800566a:	601a      	str	r2, [r3, #0]

    /* Wait until SB flag is set */
    if (I2C_WaitOnFlagUntilTimeout(hi2c, I2C_FLAG_SB, RESET, Timeout, Tickstart) != HAL_OK)
 800566c:	683b      	ldr	r3, [r7, #0]
 800566e:	9300      	str	r3, [sp, #0]
 8005670:	687b      	ldr	r3, [r7, #4]
 8005672:	2200      	movs	r2, #0
 8005674:	f04f 1101 	mov.w	r1, #65537	; 0x10001
 8005678:	68f8      	ldr	r0, [r7, #12]
 800567a:	f000 f831 	bl	80056e0 <I2C_WaitOnFlagUntilTimeout>
 800567e:	4603      	mov	r3, r0
 8005680:	2b00      	cmp	r3, #0
 8005682:	d00d      	beq.n	80056a0 <I2C_MasterRequestRead+0x15c>
    {
      if (READ_BIT(hi2c->Instance->CR1, I2C_CR1_START) == I2C_CR1_START)
 8005684:	68fb      	ldr	r3, [r7, #12]
 8005686:	681b      	ldr	r3, [r3, #0]
 8005688:	681b      	ldr	r3, [r3, #0]
 800568a:	f403 7380 	and.w	r3, r3, #256	; 0x100
 800568e:	f5b3 7f80 	cmp.w	r3, #256	; 0x100
 8005692:	d103      	bne.n	800569c <I2C_MasterRequestRead+0x158>
      {
        hi2c->ErrorCode = HAL_I2C_WRONG_START;
 8005694:	68fb      	ldr	r3, [r7, #12]
 8005696:	f44f 7200 	mov.w	r2, #512	; 0x200
 800569a:	641a      	str	r2, [r3, #64]	; 0x40
      }
      return HAL_TIMEOUT;
 800569c:	2303      	movs	r3, #3
 800569e:	e017      	b.n	80056d0 <I2C_MasterRequestRead+0x18c>
    }

    /* Send header of slave address */
    hi2c->Instance->DR = I2C_10BIT_HEADER_READ(DevAddress);
 80056a0:	897b      	ldrh	r3, [r7, #10]
 80056a2:	11db      	asrs	r3, r3, #7
 80056a4:	b2db      	uxtb	r3, r3
 80056a6:	f003 0306 	and.w	r3, r3, #6
 80056aa:	b2db      	uxtb	r3, r3
 80056ac:	f063 030e 	orn	r3, r3, #14
 80056b0:	b2da      	uxtb	r2, r3
 80056b2:	68fb      	ldr	r3, [r7, #12]
 80056b4:	681b      	ldr	r3, [r3, #0]
 80056b6:	611a      	str	r2, [r3, #16]
  }

  /* Wait until ADDR flag is set */
  if (I2C_WaitOnMasterAddressFlagUntilTimeout(hi2c, I2C_FLAG_ADDR, Timeout, Tickstart) != HAL_OK)
 80056b8:	683b      	ldr	r3, [r7, #0]
 80056ba:	687a      	ldr	r2, [r7, #4]
 80056bc:	4907      	ldr	r1, [pc, #28]	; (80056dc <I2C_MasterRequestRead+0x198>)
 80056be:	68f8      	ldr	r0, [r7, #12]
 80056c0:	f000 f888 	bl	80057d4 <I2C_WaitOnMasterAddressFlagUntilTimeout>
 80056c4:	4603      	mov	r3, r0
 80056c6:	2b00      	cmp	r3, #0
 80056c8:	d001      	beq.n	80056ce <I2C_MasterRequestRead+0x18a>
  {
    return HAL_ERROR;
 80056ca:	2301      	movs	r3, #1
 80056cc:	e000      	b.n	80056d0 <I2C_MasterRequestRead+0x18c>
  }

  return HAL_OK;
 80056ce:	2300      	movs	r3, #0
}
 80056d0:	4618      	mov	r0, r3
 80056d2:	3718      	adds	r7, #24
 80056d4:	46bd      	mov	sp, r7
 80056d6:	bd80      	pop	{r7, pc}
 80056d8:	00010008 	.word	0x00010008
 80056dc:	00010002 	.word	0x00010002

080056e0 <I2C_WaitOnFlagUntilTimeout>:
  * @param  Timeout Timeout duration
  * @param  Tickstart Tick start value
  * @retval HAL status
  */
static HAL_StatusTypeDef I2C_WaitOnFlagUntilTimeout(I2C_HandleTypeDef *hi2c, uint32_t Flag, FlagStatus Status, uint32_t Timeout, uint32_t Tickstart)
{
 80056e0:	b580      	push	{r7, lr}
 80056e2:	b084      	sub	sp, #16
 80056e4:	af00      	add	r7, sp, #0
 80056e6:	60f8      	str	r0, [r7, #12]
 80056e8:	60b9      	str	r1, [r7, #8]
 80056ea:	603b      	str	r3, [r7, #0]
 80056ec:	4613      	mov	r3, r2
 80056ee:	71fb      	strb	r3, [r7, #7]
  /* Wait until flag is set */
  while (__HAL_I2C_GET_FLAG(hi2c, Flag) == Status)
 80056f0:	e048      	b.n	8005784 <I2C_WaitOnFlagUntilTimeout+0xa4>
  {
    /* Check for the Timeout */
    if (Timeout != HAL_MAX_DELAY)
 80056f2:	683b      	ldr	r3, [r7, #0]
 80056f4:	f1b3 3fff 	cmp.w	r3, #4294967295	; 0xffffffff
 80056f8:	d044      	beq.n	8005784 <I2C_WaitOnFlagUntilTimeout+0xa4>
    {
      if (((HAL_GetTick() - Tickstart) > Timeout) || (Timeout == 0U))
 80056fa:	f7fd fc71 	bl	8002fe0 <HAL_GetTick>
 80056fe:	4602      	mov	r2, r0
 8005700:	69bb      	ldr	r3, [r7, #24]
 8005702:	1ad3      	subs	r3, r2, r3
 8005704:	683a      	ldr	r2, [r7, #0]
 8005706:	429a      	cmp	r2, r3
 8005708:	d302      	bcc.n	8005710 <I2C_WaitOnFlagUntilTimeout+0x30>
 800570a:	683b      	ldr	r3, [r7, #0]
 800570c:	2b00      	cmp	r3, #0
 800570e:	d139      	bne.n	8005784 <I2C_WaitOnFlagUntilTimeout+0xa4>
      {
        if ((__HAL_I2C_GET_FLAG(hi2c, Flag) == Status))
 8005710:	68bb      	ldr	r3, [r7, #8]
 8005712:	0c1b      	lsrs	r3, r3, #16
 8005714:	b2db      	uxtb	r3, r3
 8005716:	2b01      	cmp	r3, #1
 8005718:	d10d      	bne.n	8005736 <I2C_WaitOnFlagUntilTimeout+0x56>
 800571a:	68fb      	ldr	r3, [r7, #12]
 800571c:	681b      	ldr	r3, [r3, #0]
 800571e:	695b      	ldr	r3, [r3, #20]
 8005720:	43da      	mvns	r2, r3
 8005722:	68bb      	ldr	r3, [r7, #8]
 8005724:	4013      	ands	r3, r2
 8005726:	b29b      	uxth	r3, r3
 8005728:	2b00      	cmp	r3, #0
 800572a:	bf0c      	ite	eq
 800572c:	2301      	moveq	r3, #1
 800572e:	2300      	movne	r3, #0
 8005730:	b2db      	uxtb	r3, r3
 8005732:	461a      	mov	r2, r3
 8005734:	e00c      	b.n	8005750 <I2C_WaitOnFlagUntilTimeout+0x70>
 8005736:	68fb      	ldr	r3, [r7, #12]
 8005738:	681b      	ldr	r3, [r3, #0]
 800573a:	699b      	ldr	r3, [r3, #24]
 800573c:	43da      	mvns	r2, r3
 800573e:	68bb      	ldr	r3, [r7, #8]
 8005740:	4013      	ands	r3, r2
 8005742:	b29b      	uxth	r3, r3
 8005744:	2b00      	cmp	r3, #0
 8005746:	bf0c      	ite	eq
 8005748:	2301      	moveq	r3, #1
 800574a:	2300      	movne	r3, #0
 800574c:	b2db      	uxtb	r3, r3
 800574e:	461a      	mov	r2, r3
 8005750:	79fb      	ldrb	r3, [r7, #7]
 8005752:	429a      	cmp	r2, r3
 8005754:	d116      	bne.n	8005784 <I2C_WaitOnFlagUntilTimeout+0xa4>
        {
          hi2c->PreviousState     = I2C_STATE_NONE;
 8005756:	68fb      	ldr	r3, [r7, #12]
 8005758:	2200      	movs	r2, #0
 800575a:	631a      	str	r2, [r3, #48]	; 0x30
          hi2c->State             = HAL_I2C_STATE_READY;
 800575c:	68fb      	ldr	r3, [r7, #12]
 800575e:	2220      	movs	r2, #32
 8005760:	f883 203d 	strb.w	r2, [r3, #61]	; 0x3d
          hi2c->Mode              = HAL_I2C_MODE_NONE;
 8005764:	68fb      	ldr	r3, [r7, #12]
 8005766:	2200      	movs	r2, #0
 8005768:	f883 203e 	strb.w	r2, [r3, #62]	; 0x3e
          hi2c->ErrorCode         |= HAL_I2C_ERROR_TIMEOUT;
 800576c:	68fb      	ldr	r3, [r7, #12]
 800576e:	6c1b      	ldr	r3, [r3, #64]	; 0x40
 8005770:	f043 0220 	orr.w	r2, r3, #32
 8005774:	68fb      	ldr	r3, [r7, #12]
 8005776:	641a      	str	r2, [r3, #64]	; 0x40

          /* Process Unlocked */
          __HAL_UNLOCK(hi2c);
 8005778:	68fb      	ldr	r3, [r7, #12]
 800577a:	2200      	movs	r2, #0
 800577c:	f883 203c 	strb.w	r2, [r3, #60]	; 0x3c

          return HAL_ERROR;
 8005780:	2301      	movs	r3, #1
 8005782:	e023      	b.n	80057cc <I2C_WaitOnFlagUntilTimeout+0xec>
  while (__HAL_I2C_GET_FLAG(hi2c, Flag) == Status)
 8005784:	68bb      	ldr	r3, [r7, #8]
 8005786:	0c1b      	lsrs	r3, r3, #16
 8005788:	b2db      	uxtb	r3, r3
 800578a:	2b01      	cmp	r3, #1
 800578c:	d10d      	bne.n	80057aa <I2C_WaitOnFlagUntilTimeout+0xca>
 800578e:	68fb      	ldr	r3, [r7, #12]
 8005790:	681b      	ldr	r3, [r3, #0]
 8005792:	695b      	ldr	r3, [r3, #20]
 8005794:	43da      	mvns	r2, r3
 8005796:	68bb      	ldr	r3, [r7, #8]
 8005798:	4013      	ands	r3, r2
 800579a:	b29b      	uxth	r3, r3
 800579c:	2b00      	cmp	r3, #0
 800579e:	bf0c      	ite	eq
 80057a0:	2301      	moveq	r3, #1
 80057a2:	2300      	movne	r3, #0
 80057a4:	b2db      	uxtb	r3, r3
 80057a6:	461a      	mov	r2, r3
 80057a8:	e00c      	b.n	80057c4 <I2C_WaitOnFlagUntilTimeout+0xe4>
 80057aa:	68fb      	ldr	r3, [r7, #12]
 80057ac:	681b      	ldr	r3, [r3, #0]
 80057ae:	699b      	ldr	r3, [r3, #24]
 80057b0:	43da      	mvns	r2, r3
 80057b2:	68bb      	ldr	r3, [r7, #8]
 80057b4:	4013      	ands	r3, r2
 80057b6:	b29b      	uxth	r3, r3
 80057b8:	2b00      	cmp	r3, #0
 80057ba:	bf0c      	ite	eq
 80057bc:	2301      	moveq	r3, #1
 80057be:	2300      	movne	r3, #0
 80057c0:	b2db      	uxtb	r3, r3
 80057c2:	461a      	mov	r2, r3
 80057c4:	79fb      	ldrb	r3, [r7, #7]
 80057c6:	429a      	cmp	r2, r3
 80057c8:	d093      	beq.n	80056f2 <I2C_WaitOnFlagUntilTimeout+0x12>
        }
      }
    }
  }
  return HAL_OK;
 80057ca:	2300      	movs	r3, #0
}
 80057cc:	4618      	mov	r0, r3
 80057ce:	3710      	adds	r7, #16
 80057d0:	46bd      	mov	sp, r7
 80057d2:	bd80      	pop	{r7, pc}

080057d4 <I2C_WaitOnMasterAddressFlagUntilTimeout>:
  * @param  Timeout Timeout duration
  * @param  Tickstart Tick start value
  * @retval HAL status
  */
static HAL_StatusTypeDef I2C_WaitOnMasterAddressFlagUntilTimeout(I2C_HandleTypeDef *hi2c, uint32_t Flag, uint32_t Timeout, uint32_t Tickstart)
{
 80057d4:	b580      	push	{r7, lr}
 80057d6:	b084      	sub	sp, #16
 80057d8:	af00      	add	r7, sp, #0
 80057da:	60f8      	str	r0, [r7, #12]
 80057dc:	60b9      	str	r1, [r7, #8]
 80057de:	607a      	str	r2, [r7, #4]
 80057e0:	603b      	str	r3, [r7, #0]
  while (__HAL_I2C_GET_FLAG(hi2c, Flag) == RESET)
 80057e2:	e071      	b.n	80058c8 <I2C_WaitOnMasterAddressFlagUntilTimeout+0xf4>
  {
    if (__HAL_I2C_GET_FLAG(hi2c, I2C_FLAG_AF) == SET)
 80057e4:	68fb      	ldr	r3, [r7, #12]
 80057e6:	681b      	ldr	r3, [r3, #0]
 80057e8:	695b      	ldr	r3, [r3, #20]
 80057ea:	f403 6380 	and.w	r3, r3, #1024	; 0x400
 80057ee:	f5b3 6f80 	cmp.w	r3, #1024	; 0x400
 80057f2:	d123      	bne.n	800583c <I2C_WaitOnMasterAddressFlagUntilTimeout+0x68>
    {
      /* Generate Stop */
      SET_BIT(hi2c->Instance->CR1, I2C_CR1_STOP);
 80057f4:	68fb      	ldr	r3, [r7, #12]
 80057f6:	681b      	ldr	r3, [r3, #0]
 80057f8:	681a      	ldr	r2, [r3, #0]
 80057fa:	68fb      	ldr	r3, [r7, #12]
 80057fc:	681b      	ldr	r3, [r3, #0]
 80057fe:	f442 7200 	orr.w	r2, r2, #512	; 0x200
 8005802:	601a      	str	r2, [r3, #0]

      /* Clear AF Flag */
      __HAL_I2C_CLEAR_FLAG(hi2c, I2C_FLAG_AF);
 8005804:	68fb      	ldr	r3, [r7, #12]
 8005806:	681b      	ldr	r3, [r3, #0]
 8005808:	f46f 6280 	mvn.w	r2, #1024	; 0x400
 800580c:	615a      	str	r2, [r3, #20]

      hi2c->PreviousState       = I2C_STATE_NONE;
 800580e:	68fb      	ldr	r3, [r7, #12]
 8005810:	2200      	movs	r2, #0
 8005812:	631a      	str	r2, [r3, #48]	; 0x30
      hi2c->State               = HAL_I2C_STATE_READY;
 8005814:	68fb      	ldr	r3, [r7, #12]
 8005816:	2220      	movs	r2, #32
 8005818:	f883 203d 	strb.w	r2, [r3, #61]	; 0x3d
      hi2c->Mode                = HAL_I2C_MODE_NONE;
 800581c:	68fb      	ldr	r3, [r7, #12]
 800581e:	2200      	movs	r2, #0
 8005820:	f883 203e 	strb.w	r2, [r3, #62]	; 0x3e
      hi2c->ErrorCode           |= HAL_I2C_ERROR_AF;
 8005824:	68fb      	ldr	r3, [r7, #12]
 8005826:	6c1b      	ldr	r3, [r3, #64]	; 0x40
 8005828:	f043 0204 	orr.w	r2, r3, #4
 800582c:	68fb      	ldr	r3, [r7, #12]
 800582e:	641a      	str	r2, [r3, #64]	; 0x40

      /* Process Unlocked */
      __HAL_UNLOCK(hi2c);
 8005830:	68fb      	ldr	r3, [r7, #12]
 8005832:	2200      	movs	r2, #0
 8005834:	f883 203c 	strb.w	r2, [r3, #60]	; 0x3c

      return HAL_ERROR;
 8005838:	2301      	movs	r3, #1
 800583a:	e067      	b.n	800590c <I2C_WaitOnMasterAddressFlagUntilTimeout+0x138>
    }

    /* Check for the Timeout */
    if (Timeout != HAL_MAX_DELAY)
 800583c:	687b      	ldr	r3, [r7, #4]
 800583e:	f1b3 3fff 	cmp.w	r3, #4294967295	; 0xffffffff
 8005842:	d041      	beq.n	80058c8 <I2C_WaitOnMasterAddressFlagUntilTimeout+0xf4>
    {
      if (((HAL_GetTick() - Tickstart) > Timeout) || (Timeout == 0U))
 8005844:	f7fd fbcc 	bl	8002fe0 <HAL_GetTick>
 8005848:	4602      	mov	r2, r0
 800584a:	683b      	ldr	r3, [r7, #0]
 800584c:	1ad3      	subs	r3, r2, r3
 800584e:	687a      	ldr	r2, [r7, #4]
 8005850:	429a      	cmp	r2, r3
 8005852:	d302      	bcc.n	800585a <I2C_WaitOnMasterAddressFlagUntilTimeout+0x86>
 8005854:	687b      	ldr	r3, [r7, #4]
 8005856:	2b00      	cmp	r3, #0
 8005858:	d136      	bne.n	80058c8 <I2C_WaitOnMasterAddressFlagUntilTimeout+0xf4>
      {
        if ((__HAL_I2C_GET_FLAG(hi2c, Flag) == RESET))
 800585a:	68bb      	ldr	r3, [r7, #8]
 800585c:	0c1b      	lsrs	r3, r3, #16
 800585e:	b2db      	uxtb	r3, r3
 8005860:	2b01      	cmp	r3, #1
 8005862:	d10c      	bne.n	800587e <I2C_WaitOnMasterAddressFlagUntilTimeout+0xaa>
 8005864:	68fb      	ldr	r3, [r7, #12]
 8005866:	681b      	ldr	r3, [r3, #0]
 8005868:	695b      	ldr	r3, [r3, #20]
 800586a:	43da      	mvns	r2, r3
 800586c:	68bb      	ldr	r3, [r7, #8]
 800586e:	4013      	ands	r3, r2
 8005870:	b29b      	uxth	r3, r3
 8005872:	2b00      	cmp	r3, #0
 8005874:	bf14      	ite	ne
 8005876:	2301      	movne	r3, #1
 8005878:	2300      	moveq	r3, #0
 800587a:	b2db      	uxtb	r3, r3
 800587c:	e00b      	b.n	8005896 <I2C_WaitOnMasterAddressFlagUntilTimeout+0xc2>
 800587e:	68fb      	ldr	r3, [r7, #12]
 8005880:	681b      	ldr	r3, [r3, #0]
 8005882:	699b      	ldr	r3, [r3, #24]
 8005884:	43da      	mvns	r2, r3
 8005886:	68bb      	ldr	r3, [r7, #8]
 8005888:	4013      	ands	r3, r2
 800588a:	b29b      	uxth	r3, r3
 800588c:	2b00      	cmp	r3, #0
 800588e:	bf14      	ite	ne
 8005890:	2301      	movne	r3, #1
 8005892:	2300      	moveq	r3, #0
 8005894:	b2db      	uxtb	r3, r3
 8005896:	2b00      	cmp	r3, #0
 8005898:	d016      	beq.n	80058c8 <I2C_WaitOnMasterAddressFlagUntilTimeout+0xf4>
        {
          hi2c->PreviousState       = I2C_STATE_NONE;
 800589a:	68fb      	ldr	r3, [r7, #12]
 800589c:	2200      	movs	r2, #0
 800589e:	631a      	str	r2, [r3, #48]	; 0x30
          hi2c->State               = HAL_I2C_STATE_READY;
 80058a0:	68fb      	ldr	r3, [r7, #12]
 80058a2:	2220      	movs	r2, #32
 80058a4:	f883 203d 	strb.w	r2, [r3, #61]	; 0x3d
          hi2c->Mode                = HAL_I2C_MODE_NONE;
 80058a8:	68fb      	ldr	r3, [r7, #12]
 80058aa:	2200      	movs	r2, #0
 80058ac:	f883 203e 	strb.w	r2, [r3, #62]	; 0x3e
          hi2c->ErrorCode           |= HAL_I2C_ERROR_TIMEOUT;
 80058b0:	68fb      	ldr	r3, [r7, #12]
 80058b2:	6c1b      	ldr	r3, [r3, #64]	; 0x40
 80058b4:	f043 0220 	orr.w	r2, r3, #32
 80058b8:	68fb      	ldr	r3, [r7, #12]
 80058ba:	641a      	str	r2, [r3, #64]	; 0x40

          /* Process Unlocked */
          __HAL_UNLOCK(hi2c);
 80058bc:	68fb      	ldr	r3, [r7, #12]
 80058be:	2200      	movs	r2, #0
 80058c0:	f883 203c 	strb.w	r2, [r3, #60]	; 0x3c

          return HAL_ERROR;
 80058c4:	2301      	movs	r3, #1
 80058c6:	e021      	b.n	800590c <I2C_WaitOnMasterAddressFlagUntilTimeout+0x138>
  while (__HAL_I2C_GET_FLAG(hi2c, Flag) == RESET)
 80058c8:	68bb      	ldr	r3, [r7, #8]
 80058ca:	0c1b      	lsrs	r3, r3, #16
 80058cc:	b2db      	uxtb	r3, r3
 80058ce:	2b01      	cmp	r3, #1
 80058d0:	d10c      	bne.n	80058ec <I2C_WaitOnMasterAddressFlagUntilTimeout+0x118>
 80058d2:	68fb      	ldr	r3, [r7, #12]
 80058d4:	681b      	ldr	r3, [r3, #0]
 80058d6:	695b      	ldr	r3, [r3, #20]
 80058d8:	43da      	mvns	r2, r3
 80058da:	68bb      	ldr	r3, [r7, #8]
 80058dc:	4013      	ands	r3, r2
 80058de:	b29b      	uxth	r3, r3
 80058e0:	2b00      	cmp	r3, #0
 80058e2:	bf14      	ite	ne
 80058e4:	2301      	movne	r3, #1
 80058e6:	2300      	moveq	r3, #0
 80058e8:	b2db      	uxtb	r3, r3
 80058ea:	e00b      	b.n	8005904 <I2C_WaitOnMasterAddressFlagUntilTimeout+0x130>
 80058ec:	68fb      	ldr	r3, [r7, #12]
 80058ee:	681b      	ldr	r3, [r3, #0]
 80058f0:	699b      	ldr	r3, [r3, #24]
 80058f2:	43da      	mvns	r2, r3
 80058f4:	68bb      	ldr	r3, [r7, #8]
 80058f6:	4013      	ands	r3, r2
 80058f8:	b29b      	uxth	r3, r3
 80058fa:	2b00      	cmp	r3, #0
 80058fc:	bf14      	ite	ne
 80058fe:	2301      	movne	r3, #1
 8005900:	2300      	moveq	r3, #0
 8005902:	b2db      	uxtb	r3, r3
 8005904:	2b00      	cmp	r3, #0
 8005906:	f47f af6d 	bne.w	80057e4 <I2C_WaitOnMasterAddressFlagUntilTimeout+0x10>
        }
      }
    }
  }
  return HAL_OK;
 800590a:	2300      	movs	r3, #0
}
 800590c:	4618      	mov	r0, r3
 800590e:	3710      	adds	r7, #16
 8005910:	46bd      	mov	sp, r7
 8005912:	bd80      	pop	{r7, pc}

08005914 <I2C_WaitOnTXEFlagUntilTimeout>:
  * @param  Timeout Timeout duration
  * @param  Tickstart Tick start value
  * @retval HAL status
  */
static HAL_StatusTypeDef I2C_WaitOnTXEFlagUntilTimeout(I2C_HandleTypeDef *hi2c, uint32_t Timeout, uint32_t Tickstart)
{
 8005914:	b580      	push	{r7, lr}
 8005916:	b084      	sub	sp, #16
 8005918:	af00      	add	r7, sp, #0
 800591a:	60f8      	str	r0, [r7, #12]
 800591c:	60b9      	str	r1, [r7, #8]
 800591e:	607a      	str	r2, [r7, #4]
  while (__HAL_I2C_GET_FLAG(hi2c, I2C_FLAG_TXE) == RESET)
 8005920:	e034      	b.n	800598c <I2C_WaitOnTXEFlagUntilTimeout+0x78>
  {
    /* Check if a NACK is detected */
    if (I2C_IsAcknowledgeFailed(hi2c) != HAL_OK)
 8005922:	68f8      	ldr	r0, [r7, #12]
 8005924:	f000 f8e3 	bl	8005aee <I2C_IsAcknowledgeFailed>
 8005928:	4603      	mov	r3, r0
 800592a:	2b00      	cmp	r3, #0
 800592c:	d001      	beq.n	8005932 <I2C_WaitOnTXEFlagUntilTimeout+0x1e>
    {
      return HAL_ERROR;
 800592e:	2301      	movs	r3, #1
 8005930:	e034      	b.n	800599c <I2C_WaitOnTXEFlagUntilTimeout+0x88>
    }

    /* Check for the Timeout */
    if (Timeout != HAL_MAX_DELAY)
 8005932:	68bb      	ldr	r3, [r7, #8]
 8005934:	f1b3 3fff 	cmp.w	r3, #4294967295	; 0xffffffff
 8005938:	d028      	beq.n	800598c <I2C_WaitOnTXEFlagUntilTimeout+0x78>
    {
      if (((HAL_GetTick() - Tickstart) > Timeout) || (Timeout == 0U))
 800593a:	f7fd fb51 	bl	8002fe0 <HAL_GetTick>
 800593e:	4602      	mov	r2, r0
 8005940:	687b      	ldr	r3, [r7, #4]
 8005942:	1ad3      	subs	r3, r2, r3
 8005944:	68ba      	ldr	r2, [r7, #8]
 8005946:	429a      	cmp	r2, r3
 8005948:	d302      	bcc.n	8005950 <I2C_WaitOnTXEFlagUntilTimeout+0x3c>
 800594a:	68bb      	ldr	r3, [r7, #8]
 800594c:	2b00      	cmp	r3, #0
 800594e:	d11d      	bne.n	800598c <I2C_WaitOnTXEFlagUntilTimeout+0x78>
      {
        if ((__HAL_I2C_GET_FLAG(hi2c, I2C_FLAG_TXE) == RESET))
 8005950:	68fb      	ldr	r3, [r7, #12]
 8005952:	681b      	ldr	r3, [r3, #0]
 8005954:	695b      	ldr	r3, [r3, #20]
 8005956:	f003 0380 	and.w	r3, r3, #128	; 0x80
 800595a:	2b80      	cmp	r3, #128	; 0x80
 800595c:	d016      	beq.n	800598c <I2C_WaitOnTXEFlagUntilTimeout+0x78>
        {
          hi2c->PreviousState       = I2C_STATE_NONE;
 800595e:	68fb      	ldr	r3, [r7, #12]
 8005960:	2200      	movs	r2, #0
 8005962:	631a      	str	r2, [r3, #48]	; 0x30
          hi2c->State               = HAL_I2C_STATE_READY;
 8005964:	68fb      	ldr	r3, [r7, #12]
 8005966:	2220      	movs	r2, #32
 8005968:	f883 203d 	strb.w	r2, [r3, #61]	; 0x3d
          hi2c->Mode                = HAL_I2C_MODE_NONE;
 800596c:	68fb      	ldr	r3, [r7, #12]
 800596e:	2200      	movs	r2, #0
 8005970:	f883 203e 	strb.w	r2, [r3, #62]	; 0x3e
          hi2c->ErrorCode           |= HAL_I2C_ERROR_TIMEOUT;
 8005974:	68fb      	ldr	r3, [r7, #12]
 8005976:	6c1b      	ldr	r3, [r3, #64]	; 0x40
 8005978:	f043 0220 	orr.w	r2, r3, #32
 800597c:	68fb      	ldr	r3, [r7, #12]
 800597e:	641a      	str	r2, [r3, #64]	; 0x40

          /* Process Unlocked */
          __HAL_UNLOCK(hi2c);
 8005980:	68fb      	ldr	r3, [r7, #12]
 8005982:	2200      	movs	r2, #0
 8005984:	f883 203c 	strb.w	r2, [r3, #60]	; 0x3c

          return HAL_ERROR;
 8005988:	2301      	movs	r3, #1
 800598a:	e007      	b.n	800599c <I2C_WaitOnTXEFlagUntilTimeout+0x88>
  while (__HAL_I2C_GET_FLAG(hi2c, I2C_FLAG_TXE) == RESET)
 800598c:	68fb      	ldr	r3, [r7, #12]
 800598e:	681b      	ldr	r3, [r3, #0]
 8005990:	695b      	ldr	r3, [r3, #20]
 8005992:	f003 0380 	and.w	r3, r3, #128	; 0x80
 8005996:	2b80      	cmp	r3, #128	; 0x80
 8005998:	d1c3      	bne.n	8005922 <I2C_WaitOnTXEFlagUntilTimeout+0xe>
        }
      }
    }
  }
  return HAL_OK;
 800599a:	2300      	movs	r3, #0
}
 800599c:	4618      	mov	r0, r3
 800599e:	3710      	adds	r7, #16
 80059a0:	46bd      	mov	sp, r7
 80059a2:	bd80      	pop	{r7, pc}

080059a4 <I2C_WaitOnBTFFlagUntilTimeout>:
  * @param  Timeout Timeout duration
  * @param  Tickstart Tick start value
  * @retval HAL status
  */
static HAL_StatusTypeDef I2C_WaitOnBTFFlagUntilTimeout(I2C_HandleTypeDef *hi2c, uint32_t Timeout, uint32_t Tickstart)
{
 80059a4:	b580      	push	{r7, lr}
 80059a6:	b084      	sub	sp, #16
 80059a8:	af00      	add	r7, sp, #0
 80059aa:	60f8      	str	r0, [r7, #12]
 80059ac:	60b9      	str	r1, [r7, #8]
 80059ae:	607a      	str	r2, [r7, #4]
  while (__HAL_I2C_GET_FLAG(hi2c, I2C_FLAG_BTF) == RESET)
 80059b0:	e034      	b.n	8005a1c <I2C_WaitOnBTFFlagUntilTimeout+0x78>
  {
    /* Check if a NACK is detected */
    if (I2C_IsAcknowledgeFailed(hi2c) != HAL_OK)
 80059b2:	68f8      	ldr	r0, [r7, #12]
 80059b4:	f000 f89b 	bl	8005aee <I2C_IsAcknowledgeFailed>
 80059b8:	4603      	mov	r3, r0
 80059ba:	2b00      	cmp	r3, #0
 80059bc:	d001      	beq.n	80059c2 <I2C_WaitOnBTFFlagUntilTimeout+0x1e>
    {
      return HAL_ERROR;
 80059be:	2301      	movs	r3, #1
 80059c0:	e034      	b.n	8005a2c <I2C_WaitOnBTFFlagUntilTimeout+0x88>
    }

    /* Check for the Timeout */
    if (Timeout != HAL_MAX_DELAY)
 80059c2:	68bb      	ldr	r3, [r7, #8]
 80059c4:	f1b3 3fff 	cmp.w	r3, #4294967295	; 0xffffffff
 80059c8:	d028      	beq.n	8005a1c <I2C_WaitOnBTFFlagUntilTimeout+0x78>
    {
      if (((HAL_GetTick() - Tickstart) > Timeout) || (Timeout == 0U))
 80059ca:	f7fd fb09 	bl	8002fe0 <HAL_GetTick>
 80059ce:	4602      	mov	r2, r0
 80059d0:	687b      	ldr	r3, [r7, #4]
 80059d2:	1ad3      	subs	r3, r2, r3
 80059d4:	68ba      	ldr	r2, [r7, #8]
 80059d6:	429a      	cmp	r2, r3
 80059d8:	d302      	bcc.n	80059e0 <I2C_WaitOnBTFFlagUntilTimeout+0x3c>
 80059da:	68bb      	ldr	r3, [r7, #8]
 80059dc:	2b00      	cmp	r3, #0
 80059de:	d11d      	bne.n	8005a1c <I2C_WaitOnBTFFlagUntilTimeout+0x78>
      {
        if ((__HAL_I2C_GET_FLAG(hi2c, I2C_FLAG_BTF) == RESET))
 80059e0:	68fb      	ldr	r3, [r7, #12]
 80059e2:	681b      	ldr	r3, [r3, #0]
 80059e4:	695b      	ldr	r3, [r3, #20]
 80059e6:	f003 0304 	and.w	r3, r3, #4
 80059ea:	2b04      	cmp	r3, #4
 80059ec:	d016      	beq.n	8005a1c <I2C_WaitOnBTFFlagUntilTimeout+0x78>
        {
          hi2c->PreviousState       = I2C_STATE_NONE;
 80059ee:	68fb      	ldr	r3, [r7, #12]
 80059f0:	2200      	movs	r2, #0
 80059f2:	631a      	str	r2, [r3, #48]	; 0x30
          hi2c->State               = HAL_I2C_STATE_READY;
 80059f4:	68fb      	ldr	r3, [r7, #12]
 80059f6:	2220      	movs	r2, #32
 80059f8:	f883 203d 	strb.w	r2, [r3, #61]	; 0x3d
          hi2c->Mode                = HAL_I2C_MODE_NONE;
 80059fc:	68fb      	ldr	r3, [r7, #12]
 80059fe:	2200      	movs	r2, #0
 8005a00:	f883 203e 	strb.w	r2, [r3, #62]	; 0x3e
          hi2c->ErrorCode           |= HAL_I2C_ERROR_TIMEOUT;
 8005a04:	68fb      	ldr	r3, [r7, #12]
 8005a06:	6c1b      	ldr	r3, [r3, #64]	; 0x40
 8005a08:	f043 0220 	orr.w	r2, r3, #32
 8005a0c:	68fb      	ldr	r3, [r7, #12]
 8005a0e:	641a      	str	r2, [r3, #64]	; 0x40

          /* Process Unlocked */
          __HAL_UNLOCK(hi2c);
 8005a10:	68fb      	ldr	r3, [r7, #12]
 8005a12:	2200      	movs	r2, #0
 8005a14:	f883 203c 	strb.w	r2, [r3, #60]	; 0x3c

          return HAL_ERROR;
 8005a18:	2301      	movs	r3, #1
 8005a1a:	e007      	b.n	8005a2c <I2C_WaitOnBTFFlagUntilTimeout+0x88>
  while (__HAL_I2C_GET_FLAG(hi2c, I2C_FLAG_BTF) == RESET)
 8005a1c:	68fb      	ldr	r3, [r7, #12]
 8005a1e:	681b      	ldr	r3, [r3, #0]
 8005a20:	695b      	ldr	r3, [r3, #20]
 8005a22:	f003 0304 	and.w	r3, r3, #4
 8005a26:	2b04      	cmp	r3, #4
 8005a28:	d1c3      	bne.n	80059b2 <I2C_WaitOnBTFFlagUntilTimeout+0xe>
        }
      }
    }
  }
  return HAL_OK;
 8005a2a:	2300      	movs	r3, #0
}
 8005a2c:	4618      	mov	r0, r3
 8005a2e:	3710      	adds	r7, #16
 8005a30:	46bd      	mov	sp, r7
 8005a32:	bd80      	pop	{r7, pc}

08005a34 <I2C_WaitOnRXNEFlagUntilTimeout>:
  * @param  Timeout Timeout duration
  * @param  Tickstart Tick start value
  * @retval HAL status
  */
static HAL_StatusTypeDef I2C_WaitOnRXNEFlagUntilTimeout(I2C_HandleTypeDef *hi2c, uint32_t Timeout, uint32_t Tickstart)
{
 8005a34:	b580      	push	{r7, lr}
 8005a36:	b084      	sub	sp, #16
 8005a38:	af00      	add	r7, sp, #0
 8005a3a:	60f8      	str	r0, [r7, #12]
 8005a3c:	60b9      	str	r1, [r7, #8]
 8005a3e:	607a      	str	r2, [r7, #4]

  while (__HAL_I2C_GET_FLAG(hi2c, I2C_FLAG_RXNE) == RESET)
 8005a40:	e049      	b.n	8005ad6 <I2C_WaitOnRXNEFlagUntilTimeout+0xa2>
  {
    /* Check if a STOPF is detected */
    if (__HAL_I2C_GET_FLAG(hi2c, I2C_FLAG_STOPF) == SET)
 8005a42:	68fb      	ldr	r3, [r7, #12]
 8005a44:	681b      	ldr	r3, [r3, #0]
 8005a46:	695b      	ldr	r3, [r3, #20]
 8005a48:	f003 0310 	and.w	r3, r3, #16
 8005a4c:	2b10      	cmp	r3, #16
 8005a4e:	d119      	bne.n	8005a84 <I2C_WaitOnRXNEFlagUntilTimeout+0x50>
    {
      /* Clear STOP Flag */
      __HAL_I2C_CLEAR_FLAG(hi2c, I2C_FLAG_STOPF);
 8005a50:	68fb      	ldr	r3, [r7, #12]
 8005a52:	681b      	ldr	r3, [r3, #0]
 8005a54:	f06f 0210 	mvn.w	r2, #16
 8005a58:	615a      	str	r2, [r3, #20]

      hi2c->PreviousState       = I2C_STATE_NONE;
 8005a5a:	68fb      	ldr	r3, [r7, #12]
 8005a5c:	2200      	movs	r2, #0
 8005a5e:	631a      	str	r2, [r3, #48]	; 0x30
      hi2c->State               = HAL_I2C_STATE_READY;
 8005a60:	68fb      	ldr	r3, [r7, #12]
 8005a62:	2220      	movs	r2, #32
 8005a64:	f883 203d 	strb.w	r2, [r3, #61]	; 0x3d
      hi2c->Mode                = HAL_I2C_MODE_NONE;
 8005a68:	68fb      	ldr	r3, [r7, #12]
 8005a6a:	2200      	movs	r2, #0
 8005a6c:	f883 203e 	strb.w	r2, [r3, #62]	; 0x3e
      hi2c->ErrorCode           |= HAL_I2C_ERROR_NONE;
 8005a70:	68fb      	ldr	r3, [r7, #12]
 8005a72:	6c1a      	ldr	r2, [r3, #64]	; 0x40
 8005a74:	68fb      	ldr	r3, [r7, #12]
 8005a76:	641a      	str	r2, [r3, #64]	; 0x40

      /* Process Unlocked */
      __HAL_UNLOCK(hi2c);
 8005a78:	68fb      	ldr	r3, [r7, #12]
 8005a7a:	2200      	movs	r2, #0
 8005a7c:	f883 203c 	strb.w	r2, [r3, #60]	; 0x3c

      return HAL_ERROR;
 8005a80:	2301      	movs	r3, #1
 8005a82:	e030      	b.n	8005ae6 <I2C_WaitOnRXNEFlagUntilTimeout+0xb2>
    }

    /* Check for the Timeout */
    if (((HAL_GetTick() - Tickstart) > Timeout) || (Timeout == 0U))
 8005a84:	f7fd faac 	bl	8002fe0 <HAL_GetTick>
 8005a88:	4602      	mov	r2, r0
 8005a8a:	687b      	ldr	r3, [r7, #4]
 8005a8c:	1ad3      	subs	r3, r2, r3
 8005a8e:	68ba      	ldr	r2, [r7, #8]
 8005a90:	429a      	cmp	r2, r3
 8005a92:	d302      	bcc.n	8005a9a <I2C_WaitOnRXNEFlagUntilTimeout+0x66>
 8005a94:	68bb      	ldr	r3, [r7, #8]
 8005a96:	2b00      	cmp	r3, #0
 8005a98:	d11d      	bne.n	8005ad6 <I2C_WaitOnRXNEFlagUntilTimeout+0xa2>
    {
      if ((__HAL_I2C_GET_FLAG(hi2c, I2C_FLAG_RXNE) == RESET))
 8005a9a:	68fb      	ldr	r3, [r7, #12]
 8005a9c:	681b      	ldr	r3, [r3, #0]
 8005a9e:	695b      	ldr	r3, [r3, #20]
 8005aa0:	f003 0340 	and.w	r3, r3, #64	; 0x40
 8005aa4:	2b40      	cmp	r3, #64	; 0x40
 8005aa6:	d016      	beq.n	8005ad6 <I2C_WaitOnRXNEFlagUntilTimeout+0xa2>
      {
        hi2c->PreviousState       = I2C_STATE_NONE;
 8005aa8:	68fb      	ldr	r3, [r7, #12]
 8005aaa:	2200      	movs	r2, #0
 8005aac:	631a      	str	r2, [r3, #48]	; 0x30
        hi2c->State               = HAL_I2C_STATE_READY;
 8005aae:	68fb      	ldr	r3, [r7, #12]
 8005ab0:	2220      	movs	r2, #32
 8005ab2:	f883 203d 	strb.w	r2, [r3, #61]	; 0x3d
        hi2c->Mode                = HAL_I2C_MODE_NONE;
 8005ab6:	68fb      	ldr	r3, [r7, #12]
 8005ab8:	2200      	movs	r2, #0
 8005aba:	f883 203e 	strb.w	r2, [r3, #62]	; 0x3e
        hi2c->ErrorCode           |= HAL_I2C_ERROR_TIMEOUT;
 8005abe:	68fb      	ldr	r3, [r7, #12]
 8005ac0:	6c1b      	ldr	r3, [r3, #64]	; 0x40
 8005ac2:	f043 0220 	orr.w	r2, r3, #32
 8005ac6:	68fb      	ldr	r3, [r7, #12]
 8005ac8:	641a      	str	r2, [r3, #64]	; 0x40

        /* Process Unlocked */
        __HAL_UNLOCK(hi2c);
 8005aca:	68fb      	ldr	r3, [r7, #12]
 8005acc:	2200      	movs	r2, #0
 8005ace:	f883 203c 	strb.w	r2, [r3, #60]	; 0x3c

        return HAL_ERROR;
 8005ad2:	2301      	movs	r3, #1
 8005ad4:	e007      	b.n	8005ae6 <I2C_WaitOnRXNEFlagUntilTimeout+0xb2>
  while (__HAL_I2C_GET_FLAG(hi2c, I2C_FLAG_RXNE) == RESET)
 8005ad6:	68fb      	ldr	r3, [r7, #12]
 8005ad8:	681b      	ldr	r3, [r3, #0]
 8005ada:	695b      	ldr	r3, [r3, #20]
 8005adc:	f003 0340 	and.w	r3, r3, #64	; 0x40
 8005ae0:	2b40      	cmp	r3, #64	; 0x40
 8005ae2:	d1ae      	bne.n	8005a42 <I2C_WaitOnRXNEFlagUntilTimeout+0xe>
      }
    }
  }
  return HAL_OK;
 8005ae4:	2300      	movs	r3, #0
}
 8005ae6:	4618      	mov	r0, r3
 8005ae8:	3710      	adds	r7, #16
 8005aea:	46bd      	mov	sp, r7
 8005aec:	bd80      	pop	{r7, pc}

08005aee <I2C_IsAcknowledgeFailed>:
  * @param  hi2c Pointer to a I2C_HandleTypeDef structure that contains
  *                the configuration information for the specified I2C.
  * @retval HAL status
  */
static HAL_StatusTypeDef I2C_IsAcknowledgeFailed(I2C_HandleTypeDef *hi2c)
{
 8005aee:	b480      	push	{r7}
 8005af0:	b083      	sub	sp, #12
 8005af2:	af00      	add	r7, sp, #0
 8005af4:	6078      	str	r0, [r7, #4]
  if (__HAL_I2C_GET_FLAG(hi2c, I2C_FLAG_AF) == SET)
 8005af6:	687b      	ldr	r3, [r7, #4]
 8005af8:	681b      	ldr	r3, [r3, #0]
 8005afa:	695b      	ldr	r3, [r3, #20]
 8005afc:	f403 6380 	and.w	r3, r3, #1024	; 0x400
 8005b00:	f5b3 6f80 	cmp.w	r3, #1024	; 0x400
 8005b04:	d11b      	bne.n	8005b3e <I2C_IsAcknowledgeFailed+0x50>
  {
    /* Clear NACKF Flag */
    __HAL_I2C_CLEAR_FLAG(hi2c, I2C_FLAG_AF);
 8005b06:	687b      	ldr	r3, [r7, #4]
 8005b08:	681b      	ldr	r3, [r3, #0]
 8005b0a:	f46f 6280 	mvn.w	r2, #1024	; 0x400
 8005b0e:	615a      	str	r2, [r3, #20]

    hi2c->PreviousState       = I2C_STATE_NONE;
 8005b10:	687b      	ldr	r3, [r7, #4]
 8005b12:	2200      	movs	r2, #0
 8005b14:	631a      	str	r2, [r3, #48]	; 0x30
    hi2c->State               = HAL_I2C_STATE_READY;
 8005b16:	687b      	ldr	r3, [r7, #4]
 8005b18:	2220      	movs	r2, #32
 8005b1a:	f883 203d 	strb.w	r2, [r3, #61]	; 0x3d
    hi2c->Mode                = HAL_I2C_MODE_NONE;
 8005b1e:	687b      	ldr	r3, [r7, #4]
 8005b20:	2200      	movs	r2, #0
 8005b22:	f883 203e 	strb.w	r2, [r3, #62]	; 0x3e
    hi2c->ErrorCode           |= HAL_I2C_ERROR_AF;
 8005b26:	687b      	ldr	r3, [r7, #4]
 8005b28:	6c1b      	ldr	r3, [r3, #64]	; 0x40
 8005b2a:	f043 0204 	orr.w	r2, r3, #4
 8005b2e:	687b      	ldr	r3, [r7, #4]
 8005b30:	641a      	str	r2, [r3, #64]	; 0x40

    /* Process Unlocked */
    __HAL_UNLOCK(hi2c);
 8005b32:	687b      	ldr	r3, [r7, #4]
 8005b34:	2200      	movs	r2, #0
 8005b36:	f883 203c 	strb.w	r2, [r3, #60]	; 0x3c

    return HAL_ERROR;
 8005b3a:	2301      	movs	r3, #1
 8005b3c:	e000      	b.n	8005b40 <I2C_IsAcknowledgeFailed+0x52>
  }
  return HAL_OK;
 8005b3e:	2300      	movs	r3, #0
}
 8005b40:	4618      	mov	r0, r3
 8005b42:	370c      	adds	r7, #12
 8005b44:	46bd      	mov	sp, r7
 8005b46:	f85d 7b04 	ldr.w	r7, [sp], #4
 8005b4a:	4770      	bx	lr

08005b4c <HAL_I2CEx_ConfigAnalogFilter>:
  *                the configuration information for the specified I2Cx peripheral.
  * @param  AnalogFilter new state of the Analog filter.
  * @retval HAL status
  */
HAL_StatusTypeDef HAL_I2CEx_ConfigAnalogFilter(I2C_HandleTypeDef *hi2c, uint32_t AnalogFilter)
{
 8005b4c:	b480      	push	{r7}
 8005b4e:	b083      	sub	sp, #12
 8005b50:	af00      	add	r7, sp, #0
 8005b52:	6078      	str	r0, [r7, #4]
 8005b54:	6039      	str	r1, [r7, #0]
  /* Check the parameters */
  assert_param(IS_I2C_ALL_INSTANCE(hi2c->Instance));
  assert_param(IS_I2C_ANALOG_FILTER(AnalogFilter));

  if (hi2c->State == HAL_I2C_STATE_READY)
 8005b56:	687b      	ldr	r3, [r7, #4]
 8005b58:	f893 303d 	ldrb.w	r3, [r3, #61]	; 0x3d
 8005b5c:	b2db      	uxtb	r3, r3
 8005b5e:	2b20      	cmp	r3, #32
 8005b60:	d129      	bne.n	8005bb6 <HAL_I2CEx_ConfigAnalogFilter+0x6a>
  {
    hi2c->State = HAL_I2C_STATE_BUSY;
 8005b62:	687b      	ldr	r3, [r7, #4]
 8005b64:	2224      	movs	r2, #36	; 0x24
 8005b66:	f883 203d 	strb.w	r2, [r3, #61]	; 0x3d

    /* Disable the selected I2C peripheral */
    __HAL_I2C_DISABLE(hi2c);
 8005b6a:	687b      	ldr	r3, [r7, #4]
 8005b6c:	681b      	ldr	r3, [r3, #0]
 8005b6e:	681a      	ldr	r2, [r3, #0]
 8005b70:	687b      	ldr	r3, [r7, #4]
 8005b72:	681b      	ldr	r3, [r3, #0]
 8005b74:	f022 0201 	bic.w	r2, r2, #1
 8005b78:	601a      	str	r2, [r3, #0]

    /* Reset I2Cx ANOFF bit */
    hi2c->Instance->FLTR &= ~(I2C_FLTR_ANOFF);
 8005b7a:	687b      	ldr	r3, [r7, #4]
 8005b7c:	681b      	ldr	r3, [r3, #0]
 8005b7e:	6a5a      	ldr	r2, [r3, #36]	; 0x24
 8005b80:	687b      	ldr	r3, [r7, #4]
 8005b82:	681b      	ldr	r3, [r3, #0]
 8005b84:	f022 0210 	bic.w	r2, r2, #16
 8005b88:	625a      	str	r2, [r3, #36]	; 0x24

    /* Disable the analog filter */
    hi2c->Instance->FLTR |= AnalogFilter;
 8005b8a:	687b      	ldr	r3, [r7, #4]
 8005b8c:	681b      	ldr	r3, [r3, #0]
 8005b8e:	6a59      	ldr	r1, [r3, #36]	; 0x24
 8005b90:	687b      	ldr	r3, [r7, #4]
 8005b92:	681b      	ldr	r3, [r3, #0]
 8005b94:	683a      	ldr	r2, [r7, #0]
 8005b96:	430a      	orrs	r2, r1
 8005b98:	625a      	str	r2, [r3, #36]	; 0x24

    __HAL_I2C_ENABLE(hi2c);
 8005b9a:	687b      	ldr	r3, [r7, #4]
 8005b9c:	681b      	ldr	r3, [r3, #0]
 8005b9e:	681a      	ldr	r2, [r3, #0]
 8005ba0:	687b      	ldr	r3, [r7, #4]
 8005ba2:	681b      	ldr	r3, [r3, #0]
 8005ba4:	f042 0201 	orr.w	r2, r2, #1
 8005ba8:	601a      	str	r2, [r3, #0]

    hi2c->State = HAL_I2C_STATE_READY;
 8005baa:	687b      	ldr	r3, [r7, #4]
 8005bac:	2220      	movs	r2, #32
 8005bae:	f883 203d 	strb.w	r2, [r3, #61]	; 0x3d

    return HAL_OK;
 8005bb2:	2300      	movs	r3, #0
 8005bb4:	e000      	b.n	8005bb8 <HAL_I2CEx_ConfigAnalogFilter+0x6c>
  }
  else
  {
    return HAL_BUSY;
 8005bb6:	2302      	movs	r3, #2
  }
}
 8005bb8:	4618      	mov	r0, r3
 8005bba:	370c      	adds	r7, #12
 8005bbc:	46bd      	mov	sp, r7
 8005bbe:	f85d 7b04 	ldr.w	r7, [sp], #4
 8005bc2:	4770      	bx	lr

08005bc4 <HAL_I2CEx_ConfigDigitalFilter>:
  *                the configuration information for the specified I2Cx peripheral.
  * @param  DigitalFilter Coefficient of digital noise filter between 0x00 and 0x0F.
  * @retval HAL status
  */
HAL_StatusTypeDef HAL_I2CEx_ConfigDigitalFilter(I2C_HandleTypeDef *hi2c, uint32_t DigitalFilter)
{
 8005bc4:	b480      	push	{r7}
 8005bc6:	b085      	sub	sp, #20
 8005bc8:	af00      	add	r7, sp, #0
 8005bca:	6078      	str	r0, [r7, #4]
 8005bcc:	6039      	str	r1, [r7, #0]
  uint16_t tmpreg = 0;
 8005bce:	2300      	movs	r3, #0
 8005bd0:	81fb      	strh	r3, [r7, #14]

  /* Check the parameters */
  assert_param(IS_I2C_ALL_INSTANCE(hi2c->Instance));
  assert_param(IS_I2C_DIGITAL_FILTER(DigitalFilter));

  if (hi2c->State == HAL_I2C_STATE_READY)
 8005bd2:	687b      	ldr	r3, [r7, #4]
 8005bd4:	f893 303d 	ldrb.w	r3, [r3, #61]	; 0x3d
 8005bd8:	b2db      	uxtb	r3, r3
 8005bda:	2b20      	cmp	r3, #32
 8005bdc:	d12a      	bne.n	8005c34 <HAL_I2CEx_ConfigDigitalFilter+0x70>
  {
    hi2c->State = HAL_I2C_STATE_BUSY;
 8005bde:	687b      	ldr	r3, [r7, #4]
 8005be0:	2224      	movs	r2, #36	; 0x24
 8005be2:	f883 203d 	strb.w	r2, [r3, #61]	; 0x3d

    /* Disable the selected I2C peripheral */
    __HAL_I2C_DISABLE(hi2c);
 8005be6:	687b      	ldr	r3, [r7, #4]
 8005be8:	681b      	ldr	r3, [r3, #0]
 8005bea:	681a      	ldr	r2, [r3, #0]
 8005bec:	687b      	ldr	r3, [r7, #4]
 8005bee:	681b      	ldr	r3, [r3, #0]
 8005bf0:	f022 0201 	bic.w	r2, r2, #1
 8005bf4:	601a      	str	r2, [r3, #0]

    /* Get the old register value */
    tmpreg = hi2c->Instance->FLTR;
 8005bf6:	687b      	ldr	r3, [r7, #4]
 8005bf8:	681b      	ldr	r3, [r3, #0]
 8005bfa:	6a5b      	ldr	r3, [r3, #36]	; 0x24
 8005bfc:	81fb      	strh	r3, [r7, #14]

    /* Reset I2Cx DNF bit [3:0] */
    tmpreg &= ~(I2C_FLTR_DNF);
 8005bfe:	89fb      	ldrh	r3, [r7, #14]
 8005c00:	f023 030f 	bic.w	r3, r3, #15
 8005c04:	81fb      	strh	r3, [r7, #14]

    /* Set I2Cx DNF coefficient */
    tmpreg |= DigitalFilter;
 8005c06:	683b      	ldr	r3, [r7, #0]
 8005c08:	b29a      	uxth	r2, r3
 8005c0a:	89fb      	ldrh	r3, [r7, #14]
 8005c0c:	4313      	orrs	r3, r2
 8005c0e:	81fb      	strh	r3, [r7, #14]

    /* Store the new register value */
    hi2c->Instance->FLTR = tmpreg;
 8005c10:	687b      	ldr	r3, [r7, #4]
 8005c12:	681b      	ldr	r3, [r3, #0]
 8005c14:	89fa      	ldrh	r2, [r7, #14]
 8005c16:	625a      	str	r2, [r3, #36]	; 0x24

    __HAL_I2C_ENABLE(hi2c);
 8005c18:	687b      	ldr	r3, [r7, #4]
 8005c1a:	681b      	ldr	r3, [r3, #0]
 8005c1c:	681a      	ldr	r2, [r3, #0]
 8005c1e:	687b      	ldr	r3, [r7, #4]
 8005c20:	681b      	ldr	r3, [r3, #0]
 8005c22:	f042 0201 	orr.w	r2, r2, #1
 8005c26:	601a      	str	r2, [r3, #0]

    hi2c->State = HAL_I2C_STATE_READY;
 8005c28:	687b      	ldr	r3, [r7, #4]
 8005c2a:	2220      	movs	r2, #32
 8005c2c:	f883 203d 	strb.w	r2, [r3, #61]	; 0x3d

    return HAL_OK;
 8005c30:	2300      	movs	r3, #0
 8005c32:	e000      	b.n	8005c36 <HAL_I2CEx_ConfigDigitalFilter+0x72>
  }
  else
  {
    return HAL_BUSY;
 8005c34:	2302      	movs	r3, #2
  }
}
 8005c36:	4618      	mov	r0, r3
 8005c38:	3714      	adds	r7, #20
 8005c3a:	46bd      	mov	sp, r7
 8005c3c:	f85d 7b04 	ldr.w	r7, [sp], #4
 8005c40:	4770      	bx	lr
	...

08005c44 <HAL_PWR_EnableBkUpAccess>:
  *         in backup domain protection disabling/enabling after programming the
  *         DBP bit" section.
  * @retval None
  */
void HAL_PWR_EnableBkUpAccess(void)
{
 8005c44:	b480      	push	{r7}
 8005c46:	b083      	sub	sp, #12
 8005c48:	af00      	add	r7, sp, #0
  __IO uint32_t dummyread;
  *(__IO uint32_t *) CR_DBP_BB = (uint32_t)ENABLE;
 8005c4a:	4b06      	ldr	r3, [pc, #24]	; (8005c64 <HAL_PWR_EnableBkUpAccess+0x20>)
 8005c4c:	2201      	movs	r2, #1
 8005c4e:	601a      	str	r2, [r3, #0]
  dummyread = PWR->CR;
 8005c50:	4b05      	ldr	r3, [pc, #20]	; (8005c68 <HAL_PWR_EnableBkUpAccess+0x24>)
 8005c52:	681b      	ldr	r3, [r3, #0]
 8005c54:	607b      	str	r3, [r7, #4]
  UNUSED(dummyread);
 8005c56:	687b      	ldr	r3, [r7, #4]
}
 8005c58:	bf00      	nop
 8005c5a:	370c      	adds	r7, #12
 8005c5c:	46bd      	mov	sp, r7
 8005c5e:	f85d 7b04 	ldr.w	r7, [sp], #4
 8005c62:	4770      	bx	lr
 8005c64:	420e0020 	.word	0x420e0020
 8005c68:	40007000 	.word	0x40007000

08005c6c <HAL_PWR_DisableBkUpAccess>:
  *         in backup domain protection disabling/enabling after programming the
  *         DBP bit" section.
  * @retval None
  */
void HAL_PWR_DisableBkUpAccess(void)
{
 8005c6c:	b480      	push	{r7}
 8005c6e:	b083      	sub	sp, #12
 8005c70:	af00      	add	r7, sp, #0
  __IO uint32_t dummyread;
  *(__IO uint32_t *) CR_DBP_BB = (uint32_t)DISABLE;
 8005c72:	4b06      	ldr	r3, [pc, #24]	; (8005c8c <HAL_PWR_DisableBkUpAccess+0x20>)
 8005c74:	2200      	movs	r2, #0
 8005c76:	601a      	str	r2, [r3, #0]
  dummyread = PWR->CR;
 8005c78:	4b05      	ldr	r3, [pc, #20]	; (8005c90 <HAL_PWR_DisableBkUpAccess+0x24>)
 8005c7a:	681b      	ldr	r3, [r3, #0]
 8005c7c:	607b      	str	r3, [r7, #4]
  UNUSED(dummyread);
 8005c7e:	687b      	ldr	r3, [r7, #4]
}
 8005c80:	bf00      	nop
 8005c82:	370c      	adds	r7, #12
 8005c84:	46bd      	mov	sp, r7
 8005c86:	f85d 7b04 	ldr.w	r7, [sp], #4
 8005c8a:	4770      	bx	lr
 8005c8c:	420e0020 	.word	0x420e0020
 8005c90:	40007000 	.word	0x40007000

08005c94 <HAL_RCC_OscConfig>:
  *         supported by this API. User should request a transition to HSE Off
  *         first and then HSE On or HSE Bypass.
  * @retval HAL status
  */
__weak HAL_StatusTypeDef HAL_RCC_OscConfig(RCC_OscInitTypeDef  *RCC_OscInitStruct)
{
 8005c94:	b580      	push	{r7, lr}
 8005c96:	b086      	sub	sp, #24
 8005c98:	af00      	add	r7, sp, #0
 8005c9a:	6078      	str	r0, [r7, #4]
  uint32_t tickstart, pll_config;

  /* Check Null pointer */
  if(RCC_OscInitStruct == NULL)
 8005c9c:	687b      	ldr	r3, [r7, #4]
 8005c9e:	2b00      	cmp	r3, #0
 8005ca0:	d101      	bne.n	8005ca6 <HAL_RCC_OscConfig+0x12>
  {
    return HAL_ERROR;
 8005ca2:	2301      	movs	r3, #1
 8005ca4:	e267      	b.n	8006176 <HAL_RCC_OscConfig+0x4e2>
  }

  /* Check the parameters */
  assert_param(IS_RCC_OSCILLATORTYPE(RCC_OscInitStruct->OscillatorType));
  /*------------------------------- HSE Configuration ------------------------*/
  if(((RCC_OscInitStruct->OscillatorType) & RCC_OSCILLATORTYPE_HSE) == RCC_OSCILLATORTYPE_HSE)
 8005ca6:	687b      	ldr	r3, [r7, #4]
 8005ca8:	681b      	ldr	r3, [r3, #0]
 8005caa:	f003 0301 	and.w	r3, r3, #1
 8005cae:	2b00      	cmp	r3, #0
 8005cb0:	d075      	beq.n	8005d9e <HAL_RCC_OscConfig+0x10a>
  {
    /* Check the parameters */
    assert_param(IS_RCC_HSE(RCC_OscInitStruct->HSEState));
    /* When the HSE is used as system clock or clock source for PLL in these cases HSE will not disabled */
    if((__HAL_RCC_GET_SYSCLK_SOURCE() == RCC_CFGR_SWS_HSE) ||\
 8005cb2:	4b88      	ldr	r3, [pc, #544]	; (8005ed4 <HAL_RCC_OscConfig+0x240>)
 8005cb4:	689b      	ldr	r3, [r3, #8]
 8005cb6:	f003 030c 	and.w	r3, r3, #12
 8005cba:	2b04      	cmp	r3, #4
 8005cbc:	d00c      	beq.n	8005cd8 <HAL_RCC_OscConfig+0x44>
      ((__HAL_RCC_GET_SYSCLK_SOURCE() == RCC_CFGR_SWS_PLL) && ((RCC->PLLCFGR & RCC_PLLCFGR_PLLSRC) == RCC_PLLCFGR_PLLSRC_HSE)))
 8005cbe:	4b85      	ldr	r3, [pc, #532]	; (8005ed4 <HAL_RCC_OscConfig+0x240>)
 8005cc0:	689b      	ldr	r3, [r3, #8]
 8005cc2:	f003 030c 	and.w	r3, r3, #12
    if((__HAL_RCC_GET_SYSCLK_SOURCE() == RCC_CFGR_SWS_HSE) ||\
 8005cc6:	2b08      	cmp	r3, #8
 8005cc8:	d112      	bne.n	8005cf0 <HAL_RCC_OscConfig+0x5c>
      ((__HAL_RCC_GET_SYSCLK_SOURCE() == RCC_CFGR_SWS_PLL) && ((RCC->PLLCFGR & RCC_PLLCFGR_PLLSRC) == RCC_PLLCFGR_PLLSRC_HSE)))
 8005cca:	4b82      	ldr	r3, [pc, #520]	; (8005ed4 <HAL_RCC_OscConfig+0x240>)
 8005ccc:	685b      	ldr	r3, [r3, #4]
 8005cce:	f403 0380 	and.w	r3, r3, #4194304	; 0x400000
 8005cd2:	f5b3 0f80 	cmp.w	r3, #4194304	; 0x400000
 8005cd6:	d10b      	bne.n	8005cf0 <HAL_RCC_OscConfig+0x5c>
    {
      if((__HAL_RCC_GET_FLAG(RCC_FLAG_HSERDY) != RESET) && (RCC_OscInitStruct->HSEState == RCC_HSE_OFF))
 8005cd8:	4b7e      	ldr	r3, [pc, #504]	; (8005ed4 <HAL_RCC_OscConfig+0x240>)
 8005cda:	681b      	ldr	r3, [r3, #0]
 8005cdc:	f403 3300 	and.w	r3, r3, #131072	; 0x20000
 8005ce0:	2b00      	cmp	r3, #0
 8005ce2:	d05b      	beq.n	8005d9c <HAL_RCC_OscConfig+0x108>
 8005ce4:	687b      	ldr	r3, [r7, #4]
 8005ce6:	685b      	ldr	r3, [r3, #4]
 8005ce8:	2b00      	cmp	r3, #0
 8005cea:	d157      	bne.n	8005d9c <HAL_RCC_OscConfig+0x108>
      {
        return HAL_ERROR;
 8005cec:	2301      	movs	r3, #1
 8005cee:	e242      	b.n	8006176 <HAL_RCC_OscConfig+0x4e2>
      }
    }
    else
    {
      /* Set the new HSE configuration ---------------------------------------*/
      __HAL_RCC_HSE_CONFIG(RCC_OscInitStruct->HSEState);
 8005cf0:	687b      	ldr	r3, [r7, #4]
 8005cf2:	685b      	ldr	r3, [r3, #4]
 8005cf4:	f5b3 3f80 	cmp.w	r3, #65536	; 0x10000
 8005cf8:	d106      	bne.n	8005d08 <HAL_RCC_OscConfig+0x74>
 8005cfa:	4b76      	ldr	r3, [pc, #472]	; (8005ed4 <HAL_RCC_OscConfig+0x240>)
 8005cfc:	681b      	ldr	r3, [r3, #0]
 8005cfe:	4a75      	ldr	r2, [pc, #468]	; (8005ed4 <HAL_RCC_OscConfig+0x240>)
 8005d00:	f443 3380 	orr.w	r3, r3, #65536	; 0x10000
 8005d04:	6013      	str	r3, [r2, #0]
 8005d06:	e01d      	b.n	8005d44 <HAL_RCC_OscConfig+0xb0>
 8005d08:	687b      	ldr	r3, [r7, #4]
 8005d0a:	685b      	ldr	r3, [r3, #4]
 8005d0c:	f5b3 2fa0 	cmp.w	r3, #327680	; 0x50000
 8005d10:	d10c      	bne.n	8005d2c <HAL_RCC_OscConfig+0x98>
 8005d12:	4b70      	ldr	r3, [pc, #448]	; (8005ed4 <HAL_RCC_OscConfig+0x240>)
 8005d14:	681b      	ldr	r3, [r3, #0]
 8005d16:	4a6f      	ldr	r2, [pc, #444]	; (8005ed4 <HAL_RCC_OscConfig+0x240>)
 8005d18:	f443 2380 	orr.w	r3, r3, #262144	; 0x40000
 8005d1c:	6013      	str	r3, [r2, #0]
 8005d1e:	4b6d      	ldr	r3, [pc, #436]	; (8005ed4 <HAL_RCC_OscConfig+0x240>)
 8005d20:	681b      	ldr	r3, [r3, #0]
 8005d22:	4a6c      	ldr	r2, [pc, #432]	; (8005ed4 <HAL_RCC_OscConfig+0x240>)
 8005d24:	f443 3380 	orr.w	r3, r3, #65536	; 0x10000
 8005d28:	6013      	str	r3, [r2, #0]
 8005d2a:	e00b      	b.n	8005d44 <HAL_RCC_OscConfig+0xb0>
 8005d2c:	4b69      	ldr	r3, [pc, #420]	; (8005ed4 <HAL_RCC_OscConfig+0x240>)
 8005d2e:	681b      	ldr	r3, [r3, #0]
 8005d30:	4a68      	ldr	r2, [pc, #416]	; (8005ed4 <HAL_RCC_OscConfig+0x240>)
 8005d32:	f423 3380 	bic.w	r3, r3, #65536	; 0x10000
 8005d36:	6013      	str	r3, [r2, #0]
 8005d38:	4b66      	ldr	r3, [pc, #408]	; (8005ed4 <HAL_RCC_OscConfig+0x240>)
 8005d3a:	681b      	ldr	r3, [r3, #0]
 8005d3c:	4a65      	ldr	r2, [pc, #404]	; (8005ed4 <HAL_RCC_OscConfig+0x240>)
 8005d3e:	f423 2380 	bic.w	r3, r3, #262144	; 0x40000
 8005d42:	6013      	str	r3, [r2, #0]

      /* Check the HSE State */
      if((RCC_OscInitStruct->HSEState) != RCC_HSE_OFF)
 8005d44:	687b      	ldr	r3, [r7, #4]
 8005d46:	685b      	ldr	r3, [r3, #4]
 8005d48:	2b00      	cmp	r3, #0
 8005d4a:	d013      	beq.n	8005d74 <HAL_RCC_OscConfig+0xe0>
      {
        /* Get Start Tick */
        tickstart = HAL_GetTick();
 8005d4c:	f7fd f948 	bl	8002fe0 <HAL_GetTick>
 8005d50:	6138      	str	r0, [r7, #16]

        /* Wait till HSE is ready */
        while(__HAL_RCC_GET_FLAG(RCC_FLAG_HSERDY) == RESET)
 8005d52:	e008      	b.n	8005d66 <HAL_RCC_OscConfig+0xd2>
        {
          if((HAL_GetTick() - tickstart ) > HSE_TIMEOUT_VALUE)
 8005d54:	f7fd f944 	bl	8002fe0 <HAL_GetTick>
 8005d58:	4602      	mov	r2, r0
 8005d5a:	693b      	ldr	r3, [r7, #16]
 8005d5c:	1ad3      	subs	r3, r2, r3
 8005d5e:	2b64      	cmp	r3, #100	; 0x64
 8005d60:	d901      	bls.n	8005d66 <HAL_RCC_OscConfig+0xd2>
          {
            return HAL_TIMEOUT;
 8005d62:	2303      	movs	r3, #3
 8005d64:	e207      	b.n	8006176 <HAL_RCC_OscConfig+0x4e2>
        while(__HAL_RCC_GET_FLAG(RCC_FLAG_HSERDY) == RESET)
 8005d66:	4b5b      	ldr	r3, [pc, #364]	; (8005ed4 <HAL_RCC_OscConfig+0x240>)
 8005d68:	681b      	ldr	r3, [r3, #0]
 8005d6a:	f403 3300 	and.w	r3, r3, #131072	; 0x20000
 8005d6e:	2b00      	cmp	r3, #0
 8005d70:	d0f0      	beq.n	8005d54 <HAL_RCC_OscConfig+0xc0>
 8005d72:	e014      	b.n	8005d9e <HAL_RCC_OscConfig+0x10a>
        }
      }
      else
      {
        /* Get Start Tick */
        tickstart = HAL_GetTick();
 8005d74:	f7fd f934 	bl	8002fe0 <HAL_GetTick>
 8005d78:	6138      	str	r0, [r7, #16]

        /* Wait till HSE is bypassed or disabled */
        while(__HAL_RCC_GET_FLAG(RCC_FLAG_HSERDY) != RESET)
 8005d7a:	e008      	b.n	8005d8e <HAL_RCC_OscConfig+0xfa>
        {
          if((HAL_GetTick() - tickstart ) > HSE_TIMEOUT_VALUE)
 8005d7c:	f7fd f930 	bl	8002fe0 <HAL_GetTick>
 8005d80:	4602      	mov	r2, r0
 8005d82:	693b      	ldr	r3, [r7, #16]
 8005d84:	1ad3      	subs	r3, r2, r3
 8005d86:	2b64      	cmp	r3, #100	; 0x64
 8005d88:	d901      	bls.n	8005d8e <HAL_RCC_OscConfig+0xfa>
          {
            return HAL_TIMEOUT;
 8005d8a:	2303      	movs	r3, #3
 8005d8c:	e1f3      	b.n	8006176 <HAL_RCC_OscConfig+0x4e2>
        while(__HAL_RCC_GET_FLAG(RCC_FLAG_HSERDY) != RESET)
 8005d8e:	4b51      	ldr	r3, [pc, #324]	; (8005ed4 <HAL_RCC_OscConfig+0x240>)
 8005d90:	681b      	ldr	r3, [r3, #0]
 8005d92:	f403 3300 	and.w	r3, r3, #131072	; 0x20000
 8005d96:	2b00      	cmp	r3, #0
 8005d98:	d1f0      	bne.n	8005d7c <HAL_RCC_OscConfig+0xe8>
 8005d9a:	e000      	b.n	8005d9e <HAL_RCC_OscConfig+0x10a>
      if((__HAL_RCC_GET_FLAG(RCC_FLAG_HSERDY) != RESET) && (RCC_OscInitStruct->HSEState == RCC_HSE_OFF))
 8005d9c:	bf00      	nop
        }
      }
    }
  }
  /*----------------------------- HSI Configuration --------------------------*/
  if(((RCC_OscInitStruct->OscillatorType) & RCC_OSCILLATORTYPE_HSI) == RCC_OSCILLATORTYPE_HSI)
 8005d9e:	687b      	ldr	r3, [r7, #4]
 8005da0:	681b      	ldr	r3, [r3, #0]
 8005da2:	f003 0302 	and.w	r3, r3, #2
 8005da6:	2b00      	cmp	r3, #0
 8005da8:	d063      	beq.n	8005e72 <HAL_RCC_OscConfig+0x1de>
    /* Check the parameters */
    assert_param(IS_RCC_HSI(RCC_OscInitStruct->HSIState));
    assert_param(IS_RCC_CALIBRATION_VALUE(RCC_OscInitStruct->HSICalibrationValue));

    /* Check if HSI is used as system clock or as PLL source when PLL is selected as system clock */
    if((__HAL_RCC_GET_SYSCLK_SOURCE() == RCC_CFGR_SWS_HSI) ||\
 8005daa:	4b4a      	ldr	r3, [pc, #296]	; (8005ed4 <HAL_RCC_OscConfig+0x240>)
 8005dac:	689b      	ldr	r3, [r3, #8]
 8005dae:	f003 030c 	and.w	r3, r3, #12
 8005db2:	2b00      	cmp	r3, #0
 8005db4:	d00b      	beq.n	8005dce <HAL_RCC_OscConfig+0x13a>
      ((__HAL_RCC_GET_SYSCLK_SOURCE() == RCC_CFGR_SWS_PLL) && ((RCC->PLLCFGR & RCC_PLLCFGR_PLLSRC) == RCC_PLLCFGR_PLLSRC_HSI)))
 8005db6:	4b47      	ldr	r3, [pc, #284]	; (8005ed4 <HAL_RCC_OscConfig+0x240>)
 8005db8:	689b      	ldr	r3, [r3, #8]
 8005dba:	f003 030c 	and.w	r3, r3, #12
    if((__HAL_RCC_GET_SYSCLK_SOURCE() == RCC_CFGR_SWS_HSI) ||\
 8005dbe:	2b08      	cmp	r3, #8
 8005dc0:	d11c      	bne.n	8005dfc <HAL_RCC_OscConfig+0x168>
      ((__HAL_RCC_GET_SYSCLK_SOURCE() == RCC_CFGR_SWS_PLL) && ((RCC->PLLCFGR & RCC_PLLCFGR_PLLSRC) == RCC_PLLCFGR_PLLSRC_HSI)))
 8005dc2:	4b44      	ldr	r3, [pc, #272]	; (8005ed4 <HAL_RCC_OscConfig+0x240>)
 8005dc4:	685b      	ldr	r3, [r3, #4]
 8005dc6:	f403 0380 	and.w	r3, r3, #4194304	; 0x400000
 8005dca:	2b00      	cmp	r3, #0
 8005dcc:	d116      	bne.n	8005dfc <HAL_RCC_OscConfig+0x168>
    {
      /* When HSI is used as system clock it will not disabled */
      if((__HAL_RCC_GET_FLAG(RCC_FLAG_HSIRDY) != RESET) && (RCC_OscInitStruct->HSIState != RCC_HSI_ON))
 8005dce:	4b41      	ldr	r3, [pc, #260]	; (8005ed4 <HAL_RCC_OscConfig+0x240>)
 8005dd0:	681b      	ldr	r3, [r3, #0]
 8005dd2:	f003 0302 	and.w	r3, r3, #2
 8005dd6:	2b00      	cmp	r3, #0
 8005dd8:	d005      	beq.n	8005de6 <HAL_RCC_OscConfig+0x152>
 8005dda:	687b      	ldr	r3, [r7, #4]
 8005ddc:	68db      	ldr	r3, [r3, #12]
 8005dde:	2b01      	cmp	r3, #1
 8005de0:	d001      	beq.n	8005de6 <HAL_RCC_OscConfig+0x152>
      {
        return HAL_ERROR;
 8005de2:	2301      	movs	r3, #1
 8005de4:	e1c7      	b.n	8006176 <HAL_RCC_OscConfig+0x4e2>
      }
      /* Otherwise, just the calibration is allowed */
      else
      {
        /* Adjusts the Internal High Speed oscillator (HSI) calibration value.*/
        __HAL_RCC_HSI_CALIBRATIONVALUE_ADJUST(RCC_OscInitStruct->HSICalibrationValue);
 8005de6:	4b3b      	ldr	r3, [pc, #236]	; (8005ed4 <HAL_RCC_OscConfig+0x240>)
 8005de8:	681b      	ldr	r3, [r3, #0]
 8005dea:	f023 02f8 	bic.w	r2, r3, #248	; 0xf8
 8005dee:	687b      	ldr	r3, [r7, #4]
 8005df0:	691b      	ldr	r3, [r3, #16]
 8005df2:	00db      	lsls	r3, r3, #3
 8005df4:	4937      	ldr	r1, [pc, #220]	; (8005ed4 <HAL_RCC_OscConfig+0x240>)
 8005df6:	4313      	orrs	r3, r2
 8005df8:	600b      	str	r3, [r1, #0]
      if((__HAL_RCC_GET_FLAG(RCC_FLAG_HSIRDY) != RESET) && (RCC_OscInitStruct->HSIState != RCC_HSI_ON))
 8005dfa:	e03a      	b.n	8005e72 <HAL_RCC_OscConfig+0x1de>
      }
    }
    else
    {
      /* Check the HSI State */
      if((RCC_OscInitStruct->HSIState)!= RCC_HSI_OFF)
 8005dfc:	687b      	ldr	r3, [r7, #4]
 8005dfe:	68db      	ldr	r3, [r3, #12]
 8005e00:	2b00      	cmp	r3, #0
 8005e02:	d020      	beq.n	8005e46 <HAL_RCC_OscConfig+0x1b2>
      {
        /* Enable the Internal High Speed oscillator (HSI). */
        __HAL_RCC_HSI_ENABLE();
 8005e04:	4b34      	ldr	r3, [pc, #208]	; (8005ed8 <HAL_RCC_OscConfig+0x244>)
 8005e06:	2201      	movs	r2, #1
 8005e08:	601a      	str	r2, [r3, #0]

        /* Get Start Tick*/
        tickstart = HAL_GetTick();
 8005e0a:	f7fd f8e9 	bl	8002fe0 <HAL_GetTick>
 8005e0e:	6138      	str	r0, [r7, #16]

        /* Wait till HSI is ready */
        while(__HAL_RCC_GET_FLAG(RCC_FLAG_HSIRDY) == RESET)
 8005e10:	e008      	b.n	8005e24 <HAL_RCC_OscConfig+0x190>
        {
          if((HAL_GetTick() - tickstart ) > HSI_TIMEOUT_VALUE)
 8005e12:	f7fd f8e5 	bl	8002fe0 <HAL_GetTick>
 8005e16:	4602      	mov	r2, r0
 8005e18:	693b      	ldr	r3, [r7, #16]
 8005e1a:	1ad3      	subs	r3, r2, r3
 8005e1c:	2b02      	cmp	r3, #2
 8005e1e:	d901      	bls.n	8005e24 <HAL_RCC_OscConfig+0x190>
          {
            return HAL_TIMEOUT;
 8005e20:	2303      	movs	r3, #3
 8005e22:	e1a8      	b.n	8006176 <HAL_RCC_OscConfig+0x4e2>
        while(__HAL_RCC_GET_FLAG(RCC_FLAG_HSIRDY) == RESET)
 8005e24:	4b2b      	ldr	r3, [pc, #172]	; (8005ed4 <HAL_RCC_OscConfig+0x240>)
 8005e26:	681b      	ldr	r3, [r3, #0]
 8005e28:	f003 0302 	and.w	r3, r3, #2
 8005e2c:	2b00      	cmp	r3, #0
 8005e2e:	d0f0      	beq.n	8005e12 <HAL_RCC_OscConfig+0x17e>
          }
        }

        /* Adjusts the Internal High Speed oscillator (HSI) calibration value. */
        __HAL_RCC_HSI_CALIBRATIONVALUE_ADJUST(RCC_OscInitStruct->HSICalibrationValue);
 8005e30:	4b28      	ldr	r3, [pc, #160]	; (8005ed4 <HAL_RCC_OscConfig+0x240>)
 8005e32:	681b      	ldr	r3, [r3, #0]
 8005e34:	f023 02f8 	bic.w	r2, r3, #248	; 0xf8
 8005e38:	687b      	ldr	r3, [r7, #4]
 8005e3a:	691b      	ldr	r3, [r3, #16]
 8005e3c:	00db      	lsls	r3, r3, #3
 8005e3e:	4925      	ldr	r1, [pc, #148]	; (8005ed4 <HAL_RCC_OscConfig+0x240>)
 8005e40:	4313      	orrs	r3, r2
 8005e42:	600b      	str	r3, [r1, #0]
 8005e44:	e015      	b.n	8005e72 <HAL_RCC_OscConfig+0x1de>
      }
      else
      {
        /* Disable the Internal High Speed oscillator (HSI). */
        __HAL_RCC_HSI_DISABLE();
 8005e46:	4b24      	ldr	r3, [pc, #144]	; (8005ed8 <HAL_RCC_OscConfig+0x244>)
 8005e48:	2200      	movs	r2, #0
 8005e4a:	601a      	str	r2, [r3, #0]

        /* Get Start Tick*/
        tickstart = HAL_GetTick();
 8005e4c:	f7fd f8c8 	bl	8002fe0 <HAL_GetTick>
 8005e50:	6138      	str	r0, [r7, #16]

        /* Wait till HSI is ready */
        while(__HAL_RCC_GET_FLAG(RCC_FLAG_HSIRDY) != RESET)
 8005e52:	e008      	b.n	8005e66 <HAL_RCC_OscConfig+0x1d2>
        {
          if((HAL_GetTick() - tickstart ) > HSI_TIMEOUT_VALUE)
 8005e54:	f7fd f8c4 	bl	8002fe0 <HAL_GetTick>
 8005e58:	4602      	mov	r2, r0
 8005e5a:	693b      	ldr	r3, [r7, #16]
 8005e5c:	1ad3      	subs	r3, r2, r3
 8005e5e:	2b02      	cmp	r3, #2
 8005e60:	d901      	bls.n	8005e66 <HAL_RCC_OscConfig+0x1d2>
          {
            return HAL_TIMEOUT;
 8005e62:	2303      	movs	r3, #3
 8005e64:	e187      	b.n	8006176 <HAL_RCC_OscConfig+0x4e2>
        while(__HAL_RCC_GET_FLAG(RCC_FLAG_HSIRDY) != RESET)
 8005e66:	4b1b      	ldr	r3, [pc, #108]	; (8005ed4 <HAL_RCC_OscConfig+0x240>)
 8005e68:	681b      	ldr	r3, [r3, #0]
 8005e6a:	f003 0302 	and.w	r3, r3, #2
 8005e6e:	2b00      	cmp	r3, #0
 8005e70:	d1f0      	bne.n	8005e54 <HAL_RCC_OscConfig+0x1c0>
        }
      }
    }
  }
  /*------------------------------ LSI Configuration -------------------------*/
  if(((RCC_OscInitStruct->OscillatorType) & RCC_OSCILLATORTYPE_LSI) == RCC_OSCILLATORTYPE_LSI)
 8005e72:	687b      	ldr	r3, [r7, #4]
 8005e74:	681b      	ldr	r3, [r3, #0]
 8005e76:	f003 0308 	and.w	r3, r3, #8
 8005e7a:	2b00      	cmp	r3, #0
 8005e7c:	d036      	beq.n	8005eec <HAL_RCC_OscConfig+0x258>
  {
    /* Check the parameters */
    assert_param(IS_RCC_LSI(RCC_OscInitStruct->LSIState));

    /* Check the LSI State */
    if((RCC_OscInitStruct->LSIState)!= RCC_LSI_OFF)
 8005e7e:	687b      	ldr	r3, [r7, #4]
 8005e80:	695b      	ldr	r3, [r3, #20]
 8005e82:	2b00      	cmp	r3, #0
 8005e84:	d016      	beq.n	8005eb4 <HAL_RCC_OscConfig+0x220>
    {
      /* Enable the Internal Low Speed oscillator (LSI). */
      __HAL_RCC_LSI_ENABLE();
 8005e86:	4b15      	ldr	r3, [pc, #84]	; (8005edc <HAL_RCC_OscConfig+0x248>)
 8005e88:	2201      	movs	r2, #1
 8005e8a:	601a      	str	r2, [r3, #0]

      /* Get Start Tick*/
      tickstart = HAL_GetTick();
 8005e8c:	f7fd f8a8 	bl	8002fe0 <HAL_GetTick>
 8005e90:	6138      	str	r0, [r7, #16]

      /* Wait till LSI is ready */
      while(__HAL_RCC_GET_FLAG(RCC_FLAG_LSIRDY) == RESET)
 8005e92:	e008      	b.n	8005ea6 <HAL_RCC_OscConfig+0x212>
      {
        if((HAL_GetTick() - tickstart ) > LSI_TIMEOUT_VALUE)
 8005e94:	f7fd f8a4 	bl	8002fe0 <HAL_GetTick>
 8005e98:	4602      	mov	r2, r0
 8005e9a:	693b      	ldr	r3, [r7, #16]
 8005e9c:	1ad3      	subs	r3, r2, r3
 8005e9e:	2b02      	cmp	r3, #2
 8005ea0:	d901      	bls.n	8005ea6 <HAL_RCC_OscConfig+0x212>
        {
          return HAL_TIMEOUT;
 8005ea2:	2303      	movs	r3, #3
 8005ea4:	e167      	b.n	8006176 <HAL_RCC_OscConfig+0x4e2>
      while(__HAL_RCC_GET_FLAG(RCC_FLAG_LSIRDY) == RESET)
 8005ea6:	4b0b      	ldr	r3, [pc, #44]	; (8005ed4 <HAL_RCC_OscConfig+0x240>)
 8005ea8:	6f5b      	ldr	r3, [r3, #116]	; 0x74
 8005eaa:	f003 0302 	and.w	r3, r3, #2
 8005eae:	2b00      	cmp	r3, #0
 8005eb0:	d0f0      	beq.n	8005e94 <HAL_RCC_OscConfig+0x200>
 8005eb2:	e01b      	b.n	8005eec <HAL_RCC_OscConfig+0x258>
      }
    }
    else
    {
      /* Disable the Internal Low Speed oscillator (LSI). */
      __HAL_RCC_LSI_DISABLE();
 8005eb4:	4b09      	ldr	r3, [pc, #36]	; (8005edc <HAL_RCC_OscConfig+0x248>)
 8005eb6:	2200      	movs	r2, #0
 8005eb8:	601a      	str	r2, [r3, #0]

      /* Get Start Tick */
      tickstart = HAL_GetTick();
 8005eba:	f7fd f891 	bl	8002fe0 <HAL_GetTick>
 8005ebe:	6138      	str	r0, [r7, #16]

      /* Wait till LSI is ready */
      while(__HAL_RCC_GET_FLAG(RCC_FLAG_LSIRDY) != RESET)
 8005ec0:	e00e      	b.n	8005ee0 <HAL_RCC_OscConfig+0x24c>
      {
        if((HAL_GetTick() - tickstart ) > LSI_TIMEOUT_VALUE)
 8005ec2:	f7fd f88d 	bl	8002fe0 <HAL_GetTick>
 8005ec6:	4602      	mov	r2, r0
 8005ec8:	693b      	ldr	r3, [r7, #16]
 8005eca:	1ad3      	subs	r3, r2, r3
 8005ecc:	2b02      	cmp	r3, #2
 8005ece:	d907      	bls.n	8005ee0 <HAL_RCC_OscConfig+0x24c>
        {
          return HAL_TIMEOUT;
 8005ed0:	2303      	movs	r3, #3
 8005ed2:	e150      	b.n	8006176 <HAL_RCC_OscConfig+0x4e2>
 8005ed4:	40023800 	.word	0x40023800
 8005ed8:	42470000 	.word	0x42470000
 8005edc:	42470e80 	.word	0x42470e80
      while(__HAL_RCC_GET_FLAG(RCC_FLAG_LSIRDY) != RESET)
 8005ee0:	4b88      	ldr	r3, [pc, #544]	; (8006104 <HAL_RCC_OscConfig+0x470>)
 8005ee2:	6f5b      	ldr	r3, [r3, #116]	; 0x74
 8005ee4:	f003 0302 	and.w	r3, r3, #2
 8005ee8:	2b00      	cmp	r3, #0
 8005eea:	d1ea      	bne.n	8005ec2 <HAL_RCC_OscConfig+0x22e>
        }
      }
    }
  }
  /*------------------------------ LSE Configuration -------------------------*/
  if(((RCC_OscInitStruct->OscillatorType) & RCC_OSCILLATORTYPE_LSE) == RCC_OSCILLATORTYPE_LSE)
 8005eec:	687b      	ldr	r3, [r7, #4]
 8005eee:	681b      	ldr	r3, [r3, #0]
 8005ef0:	f003 0304 	and.w	r3, r3, #4
 8005ef4:	2b00      	cmp	r3, #0
 8005ef6:	f000 8097 	beq.w	8006028 <HAL_RCC_OscConfig+0x394>
  {
    FlagStatus       pwrclkchanged = RESET;
 8005efa:	2300      	movs	r3, #0
 8005efc:	75fb      	strb	r3, [r7, #23]
    /* Check the parameters */
    assert_param(IS_RCC_LSE(RCC_OscInitStruct->LSEState));

    /* Update LSE configuration in Backup Domain control register    */
    /* Requires to enable write access to Backup Domain of necessary */
    if(__HAL_RCC_PWR_IS_CLK_DISABLED())
 8005efe:	4b81      	ldr	r3, [pc, #516]	; (8006104 <HAL_RCC_OscConfig+0x470>)
 8005f00:	6c1b      	ldr	r3, [r3, #64]	; 0x40
 8005f02:	f003 5380 	and.w	r3, r3, #268435456	; 0x10000000
 8005f06:	2b00      	cmp	r3, #0
 8005f08:	d10f      	bne.n	8005f2a <HAL_RCC_OscConfig+0x296>
    {
      __HAL_RCC_PWR_CLK_ENABLE();
 8005f0a:	2300      	movs	r3, #0
 8005f0c:	60bb      	str	r3, [r7, #8]
 8005f0e:	4b7d      	ldr	r3, [pc, #500]	; (8006104 <HAL_RCC_OscConfig+0x470>)
 8005f10:	6c1b      	ldr	r3, [r3, #64]	; 0x40
 8005f12:	4a7c      	ldr	r2, [pc, #496]	; (8006104 <HAL_RCC_OscConfig+0x470>)
 8005f14:	f043 5380 	orr.w	r3, r3, #268435456	; 0x10000000
 8005f18:	6413      	str	r3, [r2, #64]	; 0x40
 8005f1a:	4b7a      	ldr	r3, [pc, #488]	; (8006104 <HAL_RCC_OscConfig+0x470>)
 8005f1c:	6c1b      	ldr	r3, [r3, #64]	; 0x40
 8005f1e:	f003 5380 	and.w	r3, r3, #268435456	; 0x10000000
 8005f22:	60bb      	str	r3, [r7, #8]
 8005f24:	68bb      	ldr	r3, [r7, #8]
      pwrclkchanged = SET;
 8005f26:	2301      	movs	r3, #1
 8005f28:	75fb      	strb	r3, [r7, #23]
    }

    if(HAL_IS_BIT_CLR(PWR->CR, PWR_CR_DBP))
 8005f2a:	4b77      	ldr	r3, [pc, #476]	; (8006108 <HAL_RCC_OscConfig+0x474>)
 8005f2c:	681b      	ldr	r3, [r3, #0]
 8005f2e:	f403 7380 	and.w	r3, r3, #256	; 0x100
 8005f32:	2b00      	cmp	r3, #0
 8005f34:	d118      	bne.n	8005f68 <HAL_RCC_OscConfig+0x2d4>
    {
      /* Enable write access to Backup domain */
      SET_BIT(PWR->CR, PWR_CR_DBP);
 8005f36:	4b74      	ldr	r3, [pc, #464]	; (8006108 <HAL_RCC_OscConfig+0x474>)
 8005f38:	681b      	ldr	r3, [r3, #0]
 8005f3a:	4a73      	ldr	r2, [pc, #460]	; (8006108 <HAL_RCC_OscConfig+0x474>)
 8005f3c:	f443 7380 	orr.w	r3, r3, #256	; 0x100
 8005f40:	6013      	str	r3, [r2, #0]

      /* Wait for Backup domain Write protection disable */
      tickstart = HAL_GetTick();
 8005f42:	f7fd f84d 	bl	8002fe0 <HAL_GetTick>
 8005f46:	6138      	str	r0, [r7, #16]

      while(HAL_IS_BIT_CLR(PWR->CR, PWR_CR_DBP))
 8005f48:	e008      	b.n	8005f5c <HAL_RCC_OscConfig+0x2c8>
      {
        if((HAL_GetTick() - tickstart) > RCC_DBP_TIMEOUT_VALUE)
 8005f4a:	f7fd f849 	bl	8002fe0 <HAL_GetTick>
 8005f4e:	4602      	mov	r2, r0
 8005f50:	693b      	ldr	r3, [r7, #16]
 8005f52:	1ad3      	subs	r3, r2, r3
 8005f54:	2b02      	cmp	r3, #2
 8005f56:	d901      	bls.n	8005f5c <HAL_RCC_OscConfig+0x2c8>
        {
          return HAL_TIMEOUT;
 8005f58:	2303      	movs	r3, #3
 8005f5a:	e10c      	b.n	8006176 <HAL_RCC_OscConfig+0x4e2>
      while(HAL_IS_BIT_CLR(PWR->CR, PWR_CR_DBP))
 8005f5c:	4b6a      	ldr	r3, [pc, #424]	; (8006108 <HAL_RCC_OscConfig+0x474>)
 8005f5e:	681b      	ldr	r3, [r3, #0]
 8005f60:	f403 7380 	and.w	r3, r3, #256	; 0x100
 8005f64:	2b00      	cmp	r3, #0
 8005f66:	d0f0      	beq.n	8005f4a <HAL_RCC_OscConfig+0x2b6>
        }
      }
    }

    /* Set the new LSE configuration -----------------------------------------*/
    __HAL_RCC_LSE_CONFIG(RCC_OscInitStruct->LSEState);
 8005f68:	687b      	ldr	r3, [r7, #4]
 8005f6a:	689b      	ldr	r3, [r3, #8]
 8005f6c:	2b01      	cmp	r3, #1
 8005f6e:	d106      	bne.n	8005f7e <HAL_RCC_OscConfig+0x2ea>
 8005f70:	4b64      	ldr	r3, [pc, #400]	; (8006104 <HAL_RCC_OscConfig+0x470>)
 8005f72:	6f1b      	ldr	r3, [r3, #112]	; 0x70
 8005f74:	4a63      	ldr	r2, [pc, #396]	; (8006104 <HAL_RCC_OscConfig+0x470>)
 8005f76:	f043 0301 	orr.w	r3, r3, #1
 8005f7a:	6713      	str	r3, [r2, #112]	; 0x70
 8005f7c:	e01c      	b.n	8005fb8 <HAL_RCC_OscConfig+0x324>
 8005f7e:	687b      	ldr	r3, [r7, #4]
 8005f80:	689b      	ldr	r3, [r3, #8]
 8005f82:	2b05      	cmp	r3, #5
 8005f84:	d10c      	bne.n	8005fa0 <HAL_RCC_OscConfig+0x30c>
 8005f86:	4b5f      	ldr	r3, [pc, #380]	; (8006104 <HAL_RCC_OscConfig+0x470>)
 8005f88:	6f1b      	ldr	r3, [r3, #112]	; 0x70
 8005f8a:	4a5e      	ldr	r2, [pc, #376]	; (8006104 <HAL_RCC_OscConfig+0x470>)
 8005f8c:	f043 0304 	orr.w	r3, r3, #4
 8005f90:	6713      	str	r3, [r2, #112]	; 0x70
 8005f92:	4b5c      	ldr	r3, [pc, #368]	; (8006104 <HAL_RCC_OscConfig+0x470>)
 8005f94:	6f1b      	ldr	r3, [r3, #112]	; 0x70
 8005f96:	4a5b      	ldr	r2, [pc, #364]	; (8006104 <HAL_RCC_OscConfig+0x470>)
 8005f98:	f043 0301 	orr.w	r3, r3, #1
 8005f9c:	6713      	str	r3, [r2, #112]	; 0x70
 8005f9e:	e00b      	b.n	8005fb8 <HAL_RCC_OscConfig+0x324>
 8005fa0:	4b58      	ldr	r3, [pc, #352]	; (8006104 <HAL_RCC_OscConfig+0x470>)
 8005fa2:	6f1b      	ldr	r3, [r3, #112]	; 0x70
 8005fa4:	4a57      	ldr	r2, [pc, #348]	; (8006104 <HAL_RCC_OscConfig+0x470>)
 8005fa6:	f023 0301 	bic.w	r3, r3, #1
 8005faa:	6713      	str	r3, [r2, #112]	; 0x70
 8005fac:	4b55      	ldr	r3, [pc, #340]	; (8006104 <HAL_RCC_OscConfig+0x470>)
 8005fae:	6f1b      	ldr	r3, [r3, #112]	; 0x70
 8005fb0:	4a54      	ldr	r2, [pc, #336]	; (8006104 <HAL_RCC_OscConfig+0x470>)
 8005fb2:	f023 0304 	bic.w	r3, r3, #4
 8005fb6:	6713      	str	r3, [r2, #112]	; 0x70
    /* Check the LSE State */
    if((RCC_OscInitStruct->LSEState) != RCC_LSE_OFF)
 8005fb8:	687b      	ldr	r3, [r7, #4]
 8005fba:	689b      	ldr	r3, [r3, #8]
 8005fbc:	2b00      	cmp	r3, #0
 8005fbe:	d015      	beq.n	8005fec <HAL_RCC_OscConfig+0x358>
    {
      /* Get Start Tick*/
      tickstart = HAL_GetTick();
 8005fc0:	f7fd f80e 	bl	8002fe0 <HAL_GetTick>
 8005fc4:	6138      	str	r0, [r7, #16]

      /* Wait till LSE is ready */
      while(__HAL_RCC_GET_FLAG(RCC_FLAG_LSERDY) == RESET)
 8005fc6:	e00a      	b.n	8005fde <HAL_RCC_OscConfig+0x34a>
      {
        if((HAL_GetTick() - tickstart ) > RCC_LSE_TIMEOUT_VALUE)
 8005fc8:	f7fd f80a 	bl	8002fe0 <HAL_GetTick>
 8005fcc:	4602      	mov	r2, r0
 8005fce:	693b      	ldr	r3, [r7, #16]
 8005fd0:	1ad3      	subs	r3, r2, r3
 8005fd2:	f241 3288 	movw	r2, #5000	; 0x1388
 8005fd6:	4293      	cmp	r3, r2
 8005fd8:	d901      	bls.n	8005fde <HAL_RCC_OscConfig+0x34a>
        {
          return HAL_TIMEOUT;
 8005fda:	2303      	movs	r3, #3
 8005fdc:	e0cb      	b.n	8006176 <HAL_RCC_OscConfig+0x4e2>
      while(__HAL_RCC_GET_FLAG(RCC_FLAG_LSERDY) == RESET)
 8005fde:	4b49      	ldr	r3, [pc, #292]	; (8006104 <HAL_RCC_OscConfig+0x470>)
 8005fe0:	6f1b      	ldr	r3, [r3, #112]	; 0x70
 8005fe2:	f003 0302 	and.w	r3, r3, #2
 8005fe6:	2b00      	cmp	r3, #0
 8005fe8:	d0ee      	beq.n	8005fc8 <HAL_RCC_OscConfig+0x334>
 8005fea:	e014      	b.n	8006016 <HAL_RCC_OscConfig+0x382>
      }
    }
    else
    {
      /* Get Start Tick */
      tickstart = HAL_GetTick();
 8005fec:	f7fc fff8 	bl	8002fe0 <HAL_GetTick>
 8005ff0:	6138      	str	r0, [r7, #16]

      /* Wait till LSE is ready */
      while(__HAL_RCC_GET_FLAG(RCC_FLAG_LSERDY) != RESET)
 8005ff2:	e00a      	b.n	800600a <HAL_RCC_OscConfig+0x376>
      {
        if((HAL_GetTick() - tickstart ) > RCC_LSE_TIMEOUT_VALUE)
 8005ff4:	f7fc fff4 	bl	8002fe0 <HAL_GetTick>
 8005ff8:	4602      	mov	r2, r0
 8005ffa:	693b      	ldr	r3, [r7, #16]
 8005ffc:	1ad3      	subs	r3, r2, r3
 8005ffe:	f241 3288 	movw	r2, #5000	; 0x1388
 8006002:	4293      	cmp	r3, r2
 8006004:	d901      	bls.n	800600a <HAL_RCC_OscConfig+0x376>
        {
          return HAL_TIMEOUT;
 8006006:	2303      	movs	r3, #3
 8006008:	e0b5      	b.n	8006176 <HAL_RCC_OscConfig+0x4e2>
      while(__HAL_RCC_GET_FLAG(RCC_FLAG_LSERDY) != RESET)
 800600a:	4b3e      	ldr	r3, [pc, #248]	; (8006104 <HAL_RCC_OscConfig+0x470>)
 800600c:	6f1b      	ldr	r3, [r3, #112]	; 0x70
 800600e:	f003 0302 	and.w	r3, r3, #2
 8006012:	2b00      	cmp	r3, #0
 8006014:	d1ee      	bne.n	8005ff4 <HAL_RCC_OscConfig+0x360>
        }
      }
    }

    /* Restore clock configuration if changed */
    if(pwrclkchanged == SET)
 8006016:	7dfb      	ldrb	r3, [r7, #23]
 8006018:	2b01      	cmp	r3, #1
 800601a:	d105      	bne.n	8006028 <HAL_RCC_OscConfig+0x394>
    {
      __HAL_RCC_PWR_CLK_DISABLE();
 800601c:	4b39      	ldr	r3, [pc, #228]	; (8006104 <HAL_RCC_OscConfig+0x470>)
 800601e:	6c1b      	ldr	r3, [r3, #64]	; 0x40
 8006020:	4a38      	ldr	r2, [pc, #224]	; (8006104 <HAL_RCC_OscConfig+0x470>)
 8006022:	f023 5380 	bic.w	r3, r3, #268435456	; 0x10000000
 8006026:	6413      	str	r3, [r2, #64]	; 0x40
    }
  }
  /*-------------------------------- PLL Configuration -----------------------*/
  /* Check the parameters */
  assert_param(IS_RCC_PLL(RCC_OscInitStruct->PLL.PLLState));
  if ((RCC_OscInitStruct->PLL.PLLState) != RCC_PLL_NONE)
 8006028:	687b      	ldr	r3, [r7, #4]
 800602a:	699b      	ldr	r3, [r3, #24]
 800602c:	2b00      	cmp	r3, #0
 800602e:	f000 80a1 	beq.w	8006174 <HAL_RCC_OscConfig+0x4e0>
  {
    /* Check if the PLL is used as system clock or not */
    if(__HAL_RCC_GET_SYSCLK_SOURCE() != RCC_CFGR_SWS_PLL)
 8006032:	4b34      	ldr	r3, [pc, #208]	; (8006104 <HAL_RCC_OscConfig+0x470>)
 8006034:	689b      	ldr	r3, [r3, #8]
 8006036:	f003 030c 	and.w	r3, r3, #12
 800603a:	2b08      	cmp	r3, #8
 800603c:	d05c      	beq.n	80060f8 <HAL_RCC_OscConfig+0x464>
    {
      if((RCC_OscInitStruct->PLL.PLLState) == RCC_PLL_ON)
 800603e:	687b      	ldr	r3, [r7, #4]
 8006040:	699b      	ldr	r3, [r3, #24]
 8006042:	2b02      	cmp	r3, #2
 8006044:	d141      	bne.n	80060ca <HAL_RCC_OscConfig+0x436>
        assert_param(IS_RCC_PLLN_VALUE(RCC_OscInitStruct->PLL.PLLN));
        assert_param(IS_RCC_PLLP_VALUE(RCC_OscInitStruct->PLL.PLLP));
        assert_param(IS_RCC_PLLQ_VALUE(RCC_OscInitStruct->PLL.PLLQ));

        /* Disable the main PLL. */
        __HAL_RCC_PLL_DISABLE();
 8006046:	4b31      	ldr	r3, [pc, #196]	; (800610c <HAL_RCC_OscConfig+0x478>)
 8006048:	2200      	movs	r2, #0
 800604a:	601a      	str	r2, [r3, #0]

        /* Get Start Tick */
        tickstart = HAL_GetTick();
 800604c:	f7fc ffc8 	bl	8002fe0 <HAL_GetTick>
 8006050:	6138      	str	r0, [r7, #16]

        /* Wait till PLL is disabled */
        while(__HAL_RCC_GET_FLAG(RCC_FLAG_PLLRDY) != RESET)
 8006052:	e008      	b.n	8006066 <HAL_RCC_OscConfig+0x3d2>
        {
          if((HAL_GetTick() - tickstart ) > PLL_TIMEOUT_VALUE)
 8006054:	f7fc ffc4 	bl	8002fe0 <HAL_GetTick>
 8006058:	4602      	mov	r2, r0
 800605a:	693b      	ldr	r3, [r7, #16]
 800605c:	1ad3      	subs	r3, r2, r3
 800605e:	2b02      	cmp	r3, #2
 8006060:	d901      	bls.n	8006066 <HAL_RCC_OscConfig+0x3d2>
          {
            return HAL_TIMEOUT;
 8006062:	2303      	movs	r3, #3
 8006064:	e087      	b.n	8006176 <HAL_RCC_OscConfig+0x4e2>
        while(__HAL_RCC_GET_FLAG(RCC_FLAG_PLLRDY) != RESET)
 8006066:	4b27      	ldr	r3, [pc, #156]	; (8006104 <HAL_RCC_OscConfig+0x470>)
 8006068:	681b      	ldr	r3, [r3, #0]
 800606a:	f003 7300 	and.w	r3, r3, #33554432	; 0x2000000
 800606e:	2b00      	cmp	r3, #0
 8006070:	d1f0      	bne.n	8006054 <HAL_RCC_OscConfig+0x3c0>
          }
        }

        /* Configure the main PLL clock source, multiplication and division factors. */
        WRITE_REG(RCC->PLLCFGR, (RCC_OscInitStruct->PLL.PLLSource                                            | \
 8006072:	687b      	ldr	r3, [r7, #4]
 8006074:	69da      	ldr	r2, [r3, #28]
 8006076:	687b      	ldr	r3, [r7, #4]
 8006078:	6a1b      	ldr	r3, [r3, #32]
 800607a:	431a      	orrs	r2, r3
 800607c:	687b      	ldr	r3, [r7, #4]
 800607e:	6a5b      	ldr	r3, [r3, #36]	; 0x24
 8006080:	019b      	lsls	r3, r3, #6
 8006082:	431a      	orrs	r2, r3
 8006084:	687b      	ldr	r3, [r7, #4]
 8006086:	6a9b      	ldr	r3, [r3, #40]	; 0x28
 8006088:	085b      	lsrs	r3, r3, #1
 800608a:	3b01      	subs	r3, #1
 800608c:	041b      	lsls	r3, r3, #16
 800608e:	431a      	orrs	r2, r3
 8006090:	687b      	ldr	r3, [r7, #4]
 8006092:	6adb      	ldr	r3, [r3, #44]	; 0x2c
 8006094:	061b      	lsls	r3, r3, #24
 8006096:	491b      	ldr	r1, [pc, #108]	; (8006104 <HAL_RCC_OscConfig+0x470>)
 8006098:	4313      	orrs	r3, r2
 800609a:	604b      	str	r3, [r1, #4]
                                 RCC_OscInitStruct->PLL.PLLM                                                 | \
                                 (RCC_OscInitStruct->PLL.PLLN << RCC_PLLCFGR_PLLN_Pos)             | \
                                 (((RCC_OscInitStruct->PLL.PLLP >> 1U) - 1U) << RCC_PLLCFGR_PLLP_Pos) | \
                                 (RCC_OscInitStruct->PLL.PLLQ << RCC_PLLCFGR_PLLQ_Pos)));
        /* Enable the main PLL. */
        __HAL_RCC_PLL_ENABLE();
 800609c:	4b1b      	ldr	r3, [pc, #108]	; (800610c <HAL_RCC_OscConfig+0x478>)
 800609e:	2201      	movs	r2, #1
 80060a0:	601a      	str	r2, [r3, #0]

        /* Get Start Tick */
        tickstart = HAL_GetTick();
 80060a2:	f7fc ff9d 	bl	8002fe0 <HAL_GetTick>
 80060a6:	6138      	str	r0, [r7, #16]

        /* Wait till PLL is ready */
        while(__HAL_RCC_GET_FLAG(RCC_FLAG_PLLRDY) == RESET)
 80060a8:	e008      	b.n	80060bc <HAL_RCC_OscConfig+0x428>
        {
          if((HAL_GetTick() - tickstart ) > PLL_TIMEOUT_VALUE)
 80060aa:	f7fc ff99 	bl	8002fe0 <HAL_GetTick>
 80060ae:	4602      	mov	r2, r0
 80060b0:	693b      	ldr	r3, [r7, #16]
 80060b2:	1ad3      	subs	r3, r2, r3
 80060b4:	2b02      	cmp	r3, #2
 80060b6:	d901      	bls.n	80060bc <HAL_RCC_OscConfig+0x428>
          {
            return HAL_TIMEOUT;
 80060b8:	2303      	movs	r3, #3
 80060ba:	e05c      	b.n	8006176 <HAL_RCC_OscConfig+0x4e2>
        while(__HAL_RCC_GET_FLAG(RCC_FLAG_PLLRDY) == RESET)
 80060bc:	4b11      	ldr	r3, [pc, #68]	; (8006104 <HAL_RCC_OscConfig+0x470>)
 80060be:	681b      	ldr	r3, [r3, #0]
 80060c0:	f003 7300 	and.w	r3, r3, #33554432	; 0x2000000
 80060c4:	2b00      	cmp	r3, #0
 80060c6:	d0f0      	beq.n	80060aa <HAL_RCC_OscConfig+0x416>
 80060c8:	e054      	b.n	8006174 <HAL_RCC_OscConfig+0x4e0>
        }
      }
      else
      {
        /* Disable the main PLL. */
        __HAL_RCC_PLL_DISABLE();
 80060ca:	4b10      	ldr	r3, [pc, #64]	; (800610c <HAL_RCC_OscConfig+0x478>)
 80060cc:	2200      	movs	r2, #0
 80060ce:	601a      	str	r2, [r3, #0]

        /* Get Start Tick */
        tickstart = HAL_GetTick();
 80060d0:	f7fc ff86 	bl	8002fe0 <HAL_GetTick>
 80060d4:	6138      	str	r0, [r7, #16]

        /* Wait till PLL is disabled */
        while(__HAL_RCC_GET_FLAG(RCC_FLAG_PLLRDY) != RESET)
 80060d6:	e008      	b.n	80060ea <HAL_RCC_OscConfig+0x456>
        {
          if((HAL_GetTick() - tickstart ) > PLL_TIMEOUT_VALUE)
 80060d8:	f7fc ff82 	bl	8002fe0 <HAL_GetTick>
 80060dc:	4602      	mov	r2, r0
 80060de:	693b      	ldr	r3, [r7, #16]
 80060e0:	1ad3      	subs	r3, r2, r3
 80060e2:	2b02      	cmp	r3, #2
 80060e4:	d901      	bls.n	80060ea <HAL_RCC_OscConfig+0x456>
          {
            return HAL_TIMEOUT;
 80060e6:	2303      	movs	r3, #3
 80060e8:	e045      	b.n	8006176 <HAL_RCC_OscConfig+0x4e2>
        while(__HAL_RCC_GET_FLAG(RCC_FLAG_PLLRDY) != RESET)
 80060ea:	4b06      	ldr	r3, [pc, #24]	; (8006104 <HAL_RCC_OscConfig+0x470>)
 80060ec:	681b      	ldr	r3, [r3, #0]
 80060ee:	f003 7300 	and.w	r3, r3, #33554432	; 0x2000000
 80060f2:	2b00      	cmp	r3, #0
 80060f4:	d1f0      	bne.n	80060d8 <HAL_RCC_OscConfig+0x444>
 80060f6:	e03d      	b.n	8006174 <HAL_RCC_OscConfig+0x4e0>
      }
    }
    else
    {
      /* Check if there is a request to disable the PLL used as System clock source */
      if((RCC_OscInitStruct->PLL.PLLState) == RCC_PLL_OFF)
 80060f8:	687b      	ldr	r3, [r7, #4]
 80060fa:	699b      	ldr	r3, [r3, #24]
 80060fc:	2b01      	cmp	r3, #1
 80060fe:	d107      	bne.n	8006110 <HAL_RCC_OscConfig+0x47c>
      {
        return HAL_ERROR;
 8006100:	2301      	movs	r3, #1
 8006102:	e038      	b.n	8006176 <HAL_RCC_OscConfig+0x4e2>
 8006104:	40023800 	.word	0x40023800
 8006108:	40007000 	.word	0x40007000
 800610c:	42470060 	.word	0x42470060
      }
      else
      {
        /* Do not return HAL_ERROR if request repeats the current configuration */
        pll_config = RCC->PLLCFGR;
 8006110:	4b1b      	ldr	r3, [pc, #108]	; (8006180 <HAL_RCC_OscConfig+0x4ec>)
 8006112:	685b      	ldr	r3, [r3, #4]
 8006114:	60fb      	str	r3, [r7, #12]
            (READ_BIT(pll_config, RCC_PLLCFGR_PLLN) != (RCC_OscInitStruct->PLL.PLLN) << RCC_PLLCFGR_PLLN_Pos) ||
            (READ_BIT(pll_config, RCC_PLLCFGR_PLLP) != (((RCC_OscInitStruct->PLL.PLLP >> 1U) - 1U)) << RCC_PLLCFGR_PLLP_Pos) ||
            (READ_BIT(pll_config, RCC_PLLCFGR_PLLQ) != (RCC_OscInitStruct->PLL.PLLQ << RCC_PLLCFGR_PLLQ_Pos)) ||
            (READ_BIT(pll_config, RCC_PLLCFGR_PLLR) != (RCC_OscInitStruct->PLL.PLLR << RCC_PLLCFGR_PLLR_Pos)))
#else
        if (((RCC_OscInitStruct->PLL.PLLState) == RCC_PLL_OFF) ||
 8006116:	687b      	ldr	r3, [r7, #4]
 8006118:	699b      	ldr	r3, [r3, #24]
 800611a:	2b01      	cmp	r3, #1
 800611c:	d028      	beq.n	8006170 <HAL_RCC_OscConfig+0x4dc>
            (READ_BIT(pll_config, RCC_PLLCFGR_PLLSRC) != RCC_OscInitStruct->PLL.PLLSource) ||
 800611e:	68fb      	ldr	r3, [r7, #12]
 8006120:	f403 0280 	and.w	r2, r3, #4194304	; 0x400000
 8006124:	687b      	ldr	r3, [r7, #4]
 8006126:	69db      	ldr	r3, [r3, #28]
        if (((RCC_OscInitStruct->PLL.PLLState) == RCC_PLL_OFF) ||
 8006128:	429a      	cmp	r2, r3
 800612a:	d121      	bne.n	8006170 <HAL_RCC_OscConfig+0x4dc>
            (READ_BIT(pll_config, RCC_PLLCFGR_PLLM) != (RCC_OscInitStruct->PLL.PLLM) << RCC_PLLCFGR_PLLM_Pos) ||
 800612c:	68fb      	ldr	r3, [r7, #12]
 800612e:	f003 023f 	and.w	r2, r3, #63	; 0x3f
 8006132:	687b      	ldr	r3, [r7, #4]
 8006134:	6a1b      	ldr	r3, [r3, #32]
            (READ_BIT(pll_config, RCC_PLLCFGR_PLLSRC) != RCC_OscInitStruct->PLL.PLLSource) ||
 8006136:	429a      	cmp	r2, r3
 8006138:	d11a      	bne.n	8006170 <HAL_RCC_OscConfig+0x4dc>
            (READ_BIT(pll_config, RCC_PLLCFGR_PLLN) != (RCC_OscInitStruct->PLL.PLLN) << RCC_PLLCFGR_PLLN_Pos) ||
 800613a:	68fa      	ldr	r2, [r7, #12]
 800613c:	f647 73c0 	movw	r3, #32704	; 0x7fc0
 8006140:	4013      	ands	r3, r2
 8006142:	687a      	ldr	r2, [r7, #4]
 8006144:	6a52      	ldr	r2, [r2, #36]	; 0x24
 8006146:	0192      	lsls	r2, r2, #6
            (READ_BIT(pll_config, RCC_PLLCFGR_PLLM) != (RCC_OscInitStruct->PLL.PLLM) << RCC_PLLCFGR_PLLM_Pos) ||
 8006148:	4293      	cmp	r3, r2
 800614a:	d111      	bne.n	8006170 <HAL_RCC_OscConfig+0x4dc>
            (READ_BIT(pll_config, RCC_PLLCFGR_PLLP) != (((RCC_OscInitStruct->PLL.PLLP >> 1U) - 1U)) << RCC_PLLCFGR_PLLP_Pos) ||
 800614c:	68fb      	ldr	r3, [r7, #12]
 800614e:	f403 3240 	and.w	r2, r3, #196608	; 0x30000
 8006152:	687b      	ldr	r3, [r7, #4]
 8006154:	6a9b      	ldr	r3, [r3, #40]	; 0x28
 8006156:	085b      	lsrs	r3, r3, #1
 8006158:	3b01      	subs	r3, #1
 800615a:	041b      	lsls	r3, r3, #16
            (READ_BIT(pll_config, RCC_PLLCFGR_PLLN) != (RCC_OscInitStruct->PLL.PLLN) << RCC_PLLCFGR_PLLN_Pos) ||
 800615c:	429a      	cmp	r2, r3
 800615e:	d107      	bne.n	8006170 <HAL_RCC_OscConfig+0x4dc>
            (READ_BIT(pll_config, RCC_PLLCFGR_PLLQ) != (RCC_OscInitStruct->PLL.PLLQ << RCC_PLLCFGR_PLLQ_Pos)))
 8006160:	68fb      	ldr	r3, [r7, #12]
 8006162:	f003 6270 	and.w	r2, r3, #251658240	; 0xf000000
 8006166:	687b      	ldr	r3, [r7, #4]
 8006168:	6adb      	ldr	r3, [r3, #44]	; 0x2c
 800616a:	061b      	lsls	r3, r3, #24
            (READ_BIT(pll_config, RCC_PLLCFGR_PLLP) != (((RCC_OscInitStruct->PLL.PLLP >> 1U) - 1U)) << RCC_PLLCFGR_PLLP_Pos) ||
 800616c:	429a      	cmp	r2, r3
 800616e:	d001      	beq.n	8006174 <HAL_RCC_OscConfig+0x4e0>
#endif
        {
          return HAL_ERROR;
 8006170:	2301      	movs	r3, #1
 8006172:	e000      	b.n	8006176 <HAL_RCC_OscConfig+0x4e2>
        }
      }
    }
  }
  return HAL_OK;
 8006174:	2300      	movs	r3, #0
}
 8006176:	4618      	mov	r0, r3
 8006178:	3718      	adds	r7, #24
 800617a:	46bd      	mov	sp, r7
 800617c:	bd80      	pop	{r7, pc}
 800617e:	bf00      	nop
 8006180:	40023800 	.word	0x40023800

08006184 <HAL_RCC_ClockConfig>:
  *         HPRE[3:0] bits to ensure that HCLK not exceed the maximum allowed frequency
  *         (for more details refer to section above "Initialization/de-initialization functions")
  * @retval None
  */
HAL_StatusTypeDef HAL_RCC_ClockConfig(RCC_ClkInitTypeDef  *RCC_ClkInitStruct, uint32_t FLatency)
{
 8006184:	b580      	push	{r7, lr}
 8006186:	b084      	sub	sp, #16
 8006188:	af00      	add	r7, sp, #0
 800618a:	6078      	str	r0, [r7, #4]
 800618c:	6039      	str	r1, [r7, #0]
  uint32_t tickstart;

  /* Check Null pointer */
  if(RCC_ClkInitStruct == NULL)
 800618e:	687b      	ldr	r3, [r7, #4]
 8006190:	2b00      	cmp	r3, #0
 8006192:	d101      	bne.n	8006198 <HAL_RCC_ClockConfig+0x14>
  {
    return HAL_ERROR;
 8006194:	2301      	movs	r3, #1
 8006196:	e0cc      	b.n	8006332 <HAL_RCC_ClockConfig+0x1ae>
  /* To correctly read data from FLASH memory, the number of wait states (LATENCY)
    must be correctly programmed according to the frequency of the CPU clock
    (HCLK) and the supply voltage of the device. */

  /* Increasing the number of wait states because of higher CPU frequency */
  if(FLatency > __HAL_FLASH_GET_LATENCY())
 8006198:	4b68      	ldr	r3, [pc, #416]	; (800633c <HAL_RCC_ClockConfig+0x1b8>)
 800619a:	681b      	ldr	r3, [r3, #0]
 800619c:	f003 030f 	and.w	r3, r3, #15
 80061a0:	683a      	ldr	r2, [r7, #0]
 80061a2:	429a      	cmp	r2, r3
 80061a4:	d90c      	bls.n	80061c0 <HAL_RCC_ClockConfig+0x3c>
  {
    /* Program the new number of wait states to the LATENCY bits in the FLASH_ACR register */
    __HAL_FLASH_SET_LATENCY(FLatency);
 80061a6:	4b65      	ldr	r3, [pc, #404]	; (800633c <HAL_RCC_ClockConfig+0x1b8>)
 80061a8:	683a      	ldr	r2, [r7, #0]
 80061aa:	b2d2      	uxtb	r2, r2
 80061ac:	701a      	strb	r2, [r3, #0]

    /* Check that the new number of wait states is taken into account to access the Flash
    memory by reading the FLASH_ACR register */
    if(__HAL_FLASH_GET_LATENCY() != FLatency)
 80061ae:	4b63      	ldr	r3, [pc, #396]	; (800633c <HAL_RCC_ClockConfig+0x1b8>)
 80061b0:	681b      	ldr	r3, [r3, #0]
 80061b2:	f003 030f 	and.w	r3, r3, #15
 80061b6:	683a      	ldr	r2, [r7, #0]
 80061b8:	429a      	cmp	r2, r3
 80061ba:	d001      	beq.n	80061c0 <HAL_RCC_ClockConfig+0x3c>
    {
      return HAL_ERROR;
 80061bc:	2301      	movs	r3, #1
 80061be:	e0b8      	b.n	8006332 <HAL_RCC_ClockConfig+0x1ae>
    }
  }

  /*-------------------------- HCLK Configuration --------------------------*/
  if(((RCC_ClkInitStruct->ClockType) & RCC_CLOCKTYPE_HCLK) == RCC_CLOCKTYPE_HCLK)
 80061c0:	687b      	ldr	r3, [r7, #4]
 80061c2:	681b      	ldr	r3, [r3, #0]
 80061c4:	f003 0302 	and.w	r3, r3, #2
 80061c8:	2b00      	cmp	r3, #0
 80061ca:	d020      	beq.n	800620e <HAL_RCC_ClockConfig+0x8a>
  {
    /* Set the highest APBx dividers in order to ensure that we do not go through
       a non-spec phase whatever we decrease or increase HCLK. */
    if(((RCC_ClkInitStruct->ClockType) & RCC_CLOCKTYPE_PCLK1) == RCC_CLOCKTYPE_PCLK1)
 80061cc:	687b      	ldr	r3, [r7, #4]
 80061ce:	681b      	ldr	r3, [r3, #0]
 80061d0:	f003 0304 	and.w	r3, r3, #4
 80061d4:	2b00      	cmp	r3, #0
 80061d6:	d005      	beq.n	80061e4 <HAL_RCC_ClockConfig+0x60>
    {
      MODIFY_REG(RCC->CFGR, RCC_CFGR_PPRE1, RCC_HCLK_DIV16);
 80061d8:	4b59      	ldr	r3, [pc, #356]	; (8006340 <HAL_RCC_ClockConfig+0x1bc>)
 80061da:	689b      	ldr	r3, [r3, #8]
 80061dc:	4a58      	ldr	r2, [pc, #352]	; (8006340 <HAL_RCC_ClockConfig+0x1bc>)
 80061de:	f443 53e0 	orr.w	r3, r3, #7168	; 0x1c00
 80061e2:	6093      	str	r3, [r2, #8]
    }

    if(((RCC_ClkInitStruct->ClockType) & RCC_CLOCKTYPE_PCLK2) == RCC_CLOCKTYPE_PCLK2)
 80061e4:	687b      	ldr	r3, [r7, #4]
 80061e6:	681b      	ldr	r3, [r3, #0]
 80061e8:	f003 0308 	and.w	r3, r3, #8
 80061ec:	2b00      	cmp	r3, #0
 80061ee:	d005      	beq.n	80061fc <HAL_RCC_ClockConfig+0x78>
    {
      MODIFY_REG(RCC->CFGR, RCC_CFGR_PPRE2, (RCC_HCLK_DIV16 << 3));
 80061f0:	4b53      	ldr	r3, [pc, #332]	; (8006340 <HAL_RCC_ClockConfig+0x1bc>)
 80061f2:	689b      	ldr	r3, [r3, #8]
 80061f4:	4a52      	ldr	r2, [pc, #328]	; (8006340 <HAL_RCC_ClockConfig+0x1bc>)
 80061f6:	f443 4360 	orr.w	r3, r3, #57344	; 0xe000
 80061fa:	6093      	str	r3, [r2, #8]
    }

    assert_param(IS_RCC_HCLK(RCC_ClkInitStruct->AHBCLKDivider));
    MODIFY_REG(RCC->CFGR, RCC_CFGR_HPRE, RCC_ClkInitStruct->AHBCLKDivider);
 80061fc:	4b50      	ldr	r3, [pc, #320]	; (8006340 <HAL_RCC_ClockConfig+0x1bc>)
 80061fe:	689b      	ldr	r3, [r3, #8]
 8006200:	f023 02f0 	bic.w	r2, r3, #240	; 0xf0
 8006204:	687b      	ldr	r3, [r7, #4]
 8006206:	689b      	ldr	r3, [r3, #8]
 8006208:	494d      	ldr	r1, [pc, #308]	; (8006340 <HAL_RCC_ClockConfig+0x1bc>)
 800620a:	4313      	orrs	r3, r2
 800620c:	608b      	str	r3, [r1, #8]
  }

  /*------------------------- SYSCLK Configuration ---------------------------*/
  if(((RCC_ClkInitStruct->ClockType) & RCC_CLOCKTYPE_SYSCLK) == RCC_CLOCKTYPE_SYSCLK)
 800620e:	687b      	ldr	r3, [r7, #4]
 8006210:	681b      	ldr	r3, [r3, #0]
 8006212:	f003 0301 	and.w	r3, r3, #1
 8006216:	2b00      	cmp	r3, #0
 8006218:	d044      	beq.n	80062a4 <HAL_RCC_ClockConfig+0x120>
  {
    assert_param(IS_RCC_SYSCLKSOURCE(RCC_ClkInitStruct->SYSCLKSource));

    /* HSE is selected as System Clock Source */
    if(RCC_ClkInitStruct->SYSCLKSource == RCC_SYSCLKSOURCE_HSE)
 800621a:	687b      	ldr	r3, [r7, #4]
 800621c:	685b      	ldr	r3, [r3, #4]
 800621e:	2b01      	cmp	r3, #1
 8006220:	d107      	bne.n	8006232 <HAL_RCC_ClockConfig+0xae>
    {
      /* Check the HSE ready flag */
      if(__HAL_RCC_GET_FLAG(RCC_FLAG_HSERDY) == RESET)
 8006222:	4b47      	ldr	r3, [pc, #284]	; (8006340 <HAL_RCC_ClockConfig+0x1bc>)
 8006224:	681b      	ldr	r3, [r3, #0]
 8006226:	f403 3300 	and.w	r3, r3, #131072	; 0x20000
 800622a:	2b00      	cmp	r3, #0
 800622c:	d119      	bne.n	8006262 <HAL_RCC_ClockConfig+0xde>
      {
        return HAL_ERROR;
 800622e:	2301      	movs	r3, #1
 8006230:	e07f      	b.n	8006332 <HAL_RCC_ClockConfig+0x1ae>
      }
    }
    /* PLL is selected as System Clock Source */
    else if((RCC_ClkInitStruct->SYSCLKSource == RCC_SYSCLKSOURCE_PLLCLK)   ||
 8006232:	687b      	ldr	r3, [r7, #4]
 8006234:	685b      	ldr	r3, [r3, #4]
 8006236:	2b02      	cmp	r3, #2
 8006238:	d003      	beq.n	8006242 <HAL_RCC_ClockConfig+0xbe>
            (RCC_ClkInitStruct->SYSCLKSource == RCC_SYSCLKSOURCE_PLLRCLK))
 800623a:	687b      	ldr	r3, [r7, #4]
 800623c:	685b      	ldr	r3, [r3, #4]
    else if((RCC_ClkInitStruct->SYSCLKSource == RCC_SYSCLKSOURCE_PLLCLK)   ||
 800623e:	2b03      	cmp	r3, #3
 8006240:	d107      	bne.n	8006252 <HAL_RCC_ClockConfig+0xce>
    {
      /* Check the PLL ready flag */
      if(__HAL_RCC_GET_FLAG(RCC_FLAG_PLLRDY) == RESET)
 8006242:	4b3f      	ldr	r3, [pc, #252]	; (8006340 <HAL_RCC_ClockConfig+0x1bc>)
 8006244:	681b      	ldr	r3, [r3, #0]
 8006246:	f003 7300 	and.w	r3, r3, #33554432	; 0x2000000
 800624a:	2b00      	cmp	r3, #0
 800624c:	d109      	bne.n	8006262 <HAL_RCC_ClockConfig+0xde>
      {
        return HAL_ERROR;
 800624e:	2301      	movs	r3, #1
 8006250:	e06f      	b.n	8006332 <HAL_RCC_ClockConfig+0x1ae>
    }
    /* HSI is selected as System Clock Source */
    else
    {
      /* Check the HSI ready flag */
      if(__HAL_RCC_GET_FLAG(RCC_FLAG_HSIRDY) == RESET)
 8006252:	4b3b      	ldr	r3, [pc, #236]	; (8006340 <HAL_RCC_ClockConfig+0x1bc>)
 8006254:	681b      	ldr	r3, [r3, #0]
 8006256:	f003 0302 	and.w	r3, r3, #2
 800625a:	2b00      	cmp	r3, #0
 800625c:	d101      	bne.n	8006262 <HAL_RCC_ClockConfig+0xde>
      {
        return HAL_ERROR;
 800625e:	2301      	movs	r3, #1
 8006260:	e067      	b.n	8006332 <HAL_RCC_ClockConfig+0x1ae>
      }
    }

    __HAL_RCC_SYSCLK_CONFIG(RCC_ClkInitStruct->SYSCLKSource);
 8006262:	4b37      	ldr	r3, [pc, #220]	; (8006340 <HAL_RCC_ClockConfig+0x1bc>)
 8006264:	689b      	ldr	r3, [r3, #8]
 8006266:	f023 0203 	bic.w	r2, r3, #3
 800626a:	687b      	ldr	r3, [r7, #4]
 800626c:	685b      	ldr	r3, [r3, #4]
 800626e:	4934      	ldr	r1, [pc, #208]	; (8006340 <HAL_RCC_ClockConfig+0x1bc>)
 8006270:	4313      	orrs	r3, r2
 8006272:	608b      	str	r3, [r1, #8]

    /* Get Start Tick */
    tickstart = HAL_GetTick();
 8006274:	f7fc feb4 	bl	8002fe0 <HAL_GetTick>
 8006278:	60f8      	str	r0, [r7, #12]

    while (__HAL_RCC_GET_SYSCLK_SOURCE() != (RCC_ClkInitStruct->SYSCLKSource << RCC_CFGR_SWS_Pos))
 800627a:	e00a      	b.n	8006292 <HAL_RCC_ClockConfig+0x10e>
    {
      if ((HAL_GetTick() - tickstart) > CLOCKSWITCH_TIMEOUT_VALUE)
 800627c:	f7fc feb0 	bl	8002fe0 <HAL_GetTick>
 8006280:	4602      	mov	r2, r0
 8006282:	68fb      	ldr	r3, [r7, #12]
 8006284:	1ad3      	subs	r3, r2, r3
 8006286:	f241 3288 	movw	r2, #5000	; 0x1388
 800628a:	4293      	cmp	r3, r2
 800628c:	d901      	bls.n	8006292 <HAL_RCC_ClockConfig+0x10e>
      {
        return HAL_TIMEOUT;
 800628e:	2303      	movs	r3, #3
 8006290:	e04f      	b.n	8006332 <HAL_RCC_ClockConfig+0x1ae>
    while (__HAL_RCC_GET_SYSCLK_SOURCE() != (RCC_ClkInitStruct->SYSCLKSource << RCC_CFGR_SWS_Pos))
 8006292:	4b2b      	ldr	r3, [pc, #172]	; (8006340 <HAL_RCC_ClockConfig+0x1bc>)
 8006294:	689b      	ldr	r3, [r3, #8]
 8006296:	f003 020c 	and.w	r2, r3, #12
 800629a:	687b      	ldr	r3, [r7, #4]
 800629c:	685b      	ldr	r3, [r3, #4]
 800629e:	009b      	lsls	r3, r3, #2
 80062a0:	429a      	cmp	r2, r3
 80062a2:	d1eb      	bne.n	800627c <HAL_RCC_ClockConfig+0xf8>
      }
    }
  }

  /* Decreasing the number of wait states because of lower CPU frequency */
  if(FLatency < __HAL_FLASH_GET_LATENCY())
 80062a4:	4b25      	ldr	r3, [pc, #148]	; (800633c <HAL_RCC_ClockConfig+0x1b8>)
 80062a6:	681b      	ldr	r3, [r3, #0]
 80062a8:	f003 030f 	and.w	r3, r3, #15
 80062ac:	683a      	ldr	r2, [r7, #0]
 80062ae:	429a      	cmp	r2, r3
 80062b0:	d20c      	bcs.n	80062cc <HAL_RCC_ClockConfig+0x148>
  {
     /* Program the new number of wait states to the LATENCY bits in the FLASH_ACR register */
    __HAL_FLASH_SET_LATENCY(FLatency);
 80062b2:	4b22      	ldr	r3, [pc, #136]	; (800633c <HAL_RCC_ClockConfig+0x1b8>)
 80062b4:	683a      	ldr	r2, [r7, #0]
 80062b6:	b2d2      	uxtb	r2, r2
 80062b8:	701a      	strb	r2, [r3, #0]

    /* Check that the new number of wait states is taken into account to access the Flash
    memory by reading the FLASH_ACR register */
    if(__HAL_FLASH_GET_LATENCY() != FLatency)
 80062ba:	4b20      	ldr	r3, [pc, #128]	; (800633c <HAL_RCC_ClockConfig+0x1b8>)
 80062bc:	681b      	ldr	r3, [r3, #0]
 80062be:	f003 030f 	and.w	r3, r3, #15
 80062c2:	683a      	ldr	r2, [r7, #0]
 80062c4:	429a      	cmp	r2, r3
 80062c6:	d001      	beq.n	80062cc <HAL_RCC_ClockConfig+0x148>
    {
      return HAL_ERROR;
 80062c8:	2301      	movs	r3, #1
 80062ca:	e032      	b.n	8006332 <HAL_RCC_ClockConfig+0x1ae>
    }
  }

  /*-------------------------- PCLK1 Configuration ---------------------------*/
  if(((RCC_ClkInitStruct->ClockType) & RCC_CLOCKTYPE_PCLK1) == RCC_CLOCKTYPE_PCLK1)
 80062cc:	687b      	ldr	r3, [r7, #4]
 80062ce:	681b      	ldr	r3, [r3, #0]
 80062d0:	f003 0304 	and.w	r3, r3, #4
 80062d4:	2b00      	cmp	r3, #0
 80062d6:	d008      	beq.n	80062ea <HAL_RCC_ClockConfig+0x166>
  {
    assert_param(IS_RCC_PCLK(RCC_ClkInitStruct->APB1CLKDivider));
    MODIFY_REG(RCC->CFGR, RCC_CFGR_PPRE1, RCC_ClkInitStruct->APB1CLKDivider);
 80062d8:	4b19      	ldr	r3, [pc, #100]	; (8006340 <HAL_RCC_ClockConfig+0x1bc>)
 80062da:	689b      	ldr	r3, [r3, #8]
 80062dc:	f423 52e0 	bic.w	r2, r3, #7168	; 0x1c00
 80062e0:	687b      	ldr	r3, [r7, #4]
 80062e2:	68db      	ldr	r3, [r3, #12]
 80062e4:	4916      	ldr	r1, [pc, #88]	; (8006340 <HAL_RCC_ClockConfig+0x1bc>)
 80062e6:	4313      	orrs	r3, r2
 80062e8:	608b      	str	r3, [r1, #8]
  }

  /*-------------------------- PCLK2 Configuration ---------------------------*/
  if(((RCC_ClkInitStruct->ClockType) & RCC_CLOCKTYPE_PCLK2) == RCC_CLOCKTYPE_PCLK2)
 80062ea:	687b      	ldr	r3, [r7, #4]
 80062ec:	681b      	ldr	r3, [r3, #0]
 80062ee:	f003 0308 	and.w	r3, r3, #8
 80062f2:	2b00      	cmp	r3, #0
 80062f4:	d009      	beq.n	800630a <HAL_RCC_ClockConfig+0x186>
  {
    assert_param(IS_RCC_PCLK(RCC_ClkInitStruct->APB2CLKDivider));
    MODIFY_REG(RCC->CFGR, RCC_CFGR_PPRE2, ((RCC_ClkInitStruct->APB2CLKDivider) << 3U));
 80062f6:	4b12      	ldr	r3, [pc, #72]	; (8006340 <HAL_RCC_ClockConfig+0x1bc>)
 80062f8:	689b      	ldr	r3, [r3, #8]
 80062fa:	f423 4260 	bic.w	r2, r3, #57344	; 0xe000
 80062fe:	687b      	ldr	r3, [r7, #4]
 8006300:	691b      	ldr	r3, [r3, #16]
 8006302:	00db      	lsls	r3, r3, #3
 8006304:	490e      	ldr	r1, [pc, #56]	; (8006340 <HAL_RCC_ClockConfig+0x1bc>)
 8006306:	4313      	orrs	r3, r2
 8006308:	608b      	str	r3, [r1, #8]
  }

  /* Update the SystemCoreClock global variable */
  SystemCoreClock = HAL_RCC_GetSysClockFreq() >> AHBPrescTable[(RCC->CFGR & RCC_CFGR_HPRE)>> RCC_CFGR_HPRE_Pos];
 800630a:	f000 f821 	bl	8006350 <HAL_RCC_GetSysClockFreq>
 800630e:	4602      	mov	r2, r0
 8006310:	4b0b      	ldr	r3, [pc, #44]	; (8006340 <HAL_RCC_ClockConfig+0x1bc>)
 8006312:	689b      	ldr	r3, [r3, #8]
 8006314:	091b      	lsrs	r3, r3, #4
 8006316:	f003 030f 	and.w	r3, r3, #15
 800631a:	490a      	ldr	r1, [pc, #40]	; (8006344 <HAL_RCC_ClockConfig+0x1c0>)
 800631c:	5ccb      	ldrb	r3, [r1, r3]
 800631e:	fa22 f303 	lsr.w	r3, r2, r3
 8006322:	4a09      	ldr	r2, [pc, #36]	; (8006348 <HAL_RCC_ClockConfig+0x1c4>)
 8006324:	6013      	str	r3, [r2, #0]

  /* Configure the source of time base considering new system clocks settings */
  HAL_InitTick (uwTickPrio);
 8006326:	4b09      	ldr	r3, [pc, #36]	; (800634c <HAL_RCC_ClockConfig+0x1c8>)
 8006328:	681b      	ldr	r3, [r3, #0]
 800632a:	4618      	mov	r0, r3
 800632c:	f7fc fe14 	bl	8002f58 <HAL_InitTick>

  return HAL_OK;
 8006330:	2300      	movs	r3, #0
}
 8006332:	4618      	mov	r0, r3
 8006334:	3710      	adds	r7, #16
 8006336:	46bd      	mov	sp, r7
 8006338:	bd80      	pop	{r7, pc}
 800633a:	bf00      	nop
 800633c:	40023c00 	.word	0x40023c00
 8006340:	40023800 	.word	0x40023800
 8006344:	08009508 	.word	0x08009508
 8006348:	2000001c 	.word	0x2000001c
 800634c:	20000020 	.word	0x20000020

08006350 <HAL_RCC_GetSysClockFreq>:
  *
  *
  * @retval SYSCLK frequency
  */
__weak uint32_t HAL_RCC_GetSysClockFreq(void)
{
 8006350:	e92d 4fb0 	stmdb	sp!, {r4, r5, r7, r8, r9, sl, fp, lr}
 8006354:	b090      	sub	sp, #64	; 0x40
 8006356:	af00      	add	r7, sp, #0
  uint32_t pllm = 0U, pllvco = 0U, pllp = 0U;
 8006358:	2300      	movs	r3, #0
 800635a:	637b      	str	r3, [r7, #52]	; 0x34
 800635c:	2300      	movs	r3, #0
 800635e:	63fb      	str	r3, [r7, #60]	; 0x3c
 8006360:	2300      	movs	r3, #0
 8006362:	633b      	str	r3, [r7, #48]	; 0x30
  uint32_t sysclockfreq = 0U;
 8006364:	2300      	movs	r3, #0
 8006366:	63bb      	str	r3, [r7, #56]	; 0x38

  /* Get SYSCLK source -------------------------------------------------------*/
  switch (RCC->CFGR & RCC_CFGR_SWS)
 8006368:	4b59      	ldr	r3, [pc, #356]	; (80064d0 <HAL_RCC_GetSysClockFreq+0x180>)
 800636a:	689b      	ldr	r3, [r3, #8]
 800636c:	f003 030c 	and.w	r3, r3, #12
 8006370:	2b08      	cmp	r3, #8
 8006372:	d00d      	beq.n	8006390 <HAL_RCC_GetSysClockFreq+0x40>
 8006374:	2b08      	cmp	r3, #8
 8006376:	f200 80a1 	bhi.w	80064bc <HAL_RCC_GetSysClockFreq+0x16c>
 800637a:	2b00      	cmp	r3, #0
 800637c:	d002      	beq.n	8006384 <HAL_RCC_GetSysClockFreq+0x34>
 800637e:	2b04      	cmp	r3, #4
 8006380:	d003      	beq.n	800638a <HAL_RCC_GetSysClockFreq+0x3a>
 8006382:	e09b      	b.n	80064bc <HAL_RCC_GetSysClockFreq+0x16c>
  {
    case RCC_CFGR_SWS_HSI:  /* HSI used as system clock source */
    {
      sysclockfreq = HSI_VALUE;
 8006384:	4b53      	ldr	r3, [pc, #332]	; (80064d4 <HAL_RCC_GetSysClockFreq+0x184>)
 8006386:	63bb      	str	r3, [r7, #56]	; 0x38
       break;
 8006388:	e09b      	b.n	80064c2 <HAL_RCC_GetSysClockFreq+0x172>
    }
    case RCC_CFGR_SWS_HSE:  /* HSE used as system clock  source */
    {
      sysclockfreq = HSE_VALUE;
 800638a:	4b53      	ldr	r3, [pc, #332]	; (80064d8 <HAL_RCC_GetSysClockFreq+0x188>)
 800638c:	63bb      	str	r3, [r7, #56]	; 0x38
      break;
 800638e:	e098      	b.n	80064c2 <HAL_RCC_GetSysClockFreq+0x172>
    }
    case RCC_CFGR_SWS_PLL:  /* PLL used as system clock  source */
    {
      /* PLL_VCO = (HSE_VALUE or HSI_VALUE / PLLM) * PLLN
      SYSCLK = PLL_VCO / PLLP */
      pllm = RCC->PLLCFGR & RCC_PLLCFGR_PLLM;
 8006390:	4b4f      	ldr	r3, [pc, #316]	; (80064d0 <HAL_RCC_GetSysClockFreq+0x180>)
 8006392:	685b      	ldr	r3, [r3, #4]
 8006394:	f003 033f 	and.w	r3, r3, #63	; 0x3f
 8006398:	637b      	str	r3, [r7, #52]	; 0x34
      if(__HAL_RCC_GET_PLL_OSCSOURCE() != RCC_PLLSOURCE_HSI)
 800639a:	4b4d      	ldr	r3, [pc, #308]	; (80064d0 <HAL_RCC_GetSysClockFreq+0x180>)
 800639c:	685b      	ldr	r3, [r3, #4]
 800639e:	f403 0380 	and.w	r3, r3, #4194304	; 0x400000
 80063a2:	2b00      	cmp	r3, #0
 80063a4:	d028      	beq.n	80063f8 <HAL_RCC_GetSysClockFreq+0xa8>
      {
        /* HSE used as PLL clock source */
        pllvco = (uint32_t) ((((uint64_t) HSE_VALUE * ((uint64_t) ((RCC->PLLCFGR & RCC_PLLCFGR_PLLN) >> RCC_PLLCFGR_PLLN_Pos)))) / (uint64_t)pllm);
 80063a6:	4b4a      	ldr	r3, [pc, #296]	; (80064d0 <HAL_RCC_GetSysClockFreq+0x180>)
 80063a8:	685b      	ldr	r3, [r3, #4]
 80063aa:	099b      	lsrs	r3, r3, #6
 80063ac:	2200      	movs	r2, #0
 80063ae:	623b      	str	r3, [r7, #32]
 80063b0:	627a      	str	r2, [r7, #36]	; 0x24
 80063b2:	6a3b      	ldr	r3, [r7, #32]
 80063b4:	f3c3 0008 	ubfx	r0, r3, #0, #9
 80063b8:	2100      	movs	r1, #0
 80063ba:	4b47      	ldr	r3, [pc, #284]	; (80064d8 <HAL_RCC_GetSysClockFreq+0x188>)
 80063bc:	fb03 f201 	mul.w	r2, r3, r1
 80063c0:	2300      	movs	r3, #0
 80063c2:	fb00 f303 	mul.w	r3, r0, r3
 80063c6:	4413      	add	r3, r2
 80063c8:	4a43      	ldr	r2, [pc, #268]	; (80064d8 <HAL_RCC_GetSysClockFreq+0x188>)
 80063ca:	fba0 1202 	umull	r1, r2, r0, r2
 80063ce:	62fa      	str	r2, [r7, #44]	; 0x2c
 80063d0:	460a      	mov	r2, r1
 80063d2:	62ba      	str	r2, [r7, #40]	; 0x28
 80063d4:	6afa      	ldr	r2, [r7, #44]	; 0x2c
 80063d6:	4413      	add	r3, r2
 80063d8:	62fb      	str	r3, [r7, #44]	; 0x2c
 80063da:	6b7b      	ldr	r3, [r7, #52]	; 0x34
 80063dc:	2200      	movs	r2, #0
 80063de:	61bb      	str	r3, [r7, #24]
 80063e0:	61fa      	str	r2, [r7, #28]
 80063e2:	e9d7 2306 	ldrd	r2, r3, [r7, #24]
 80063e6:	e9d7 010a 	ldrd	r0, r1, [r7, #40]	; 0x28
 80063ea:	f7f9 ff07 	bl	80001fc <__aeabi_uldivmod>
 80063ee:	4602      	mov	r2, r0
 80063f0:	460b      	mov	r3, r1
 80063f2:	4613      	mov	r3, r2
 80063f4:	63fb      	str	r3, [r7, #60]	; 0x3c
 80063f6:	e053      	b.n	80064a0 <HAL_RCC_GetSysClockFreq+0x150>
      }
      else
      {
        /* HSI used as PLL clock source */
        pllvco = (uint32_t) ((((uint64_t) HSI_VALUE * ((uint64_t) ((RCC->PLLCFGR & RCC_PLLCFGR_PLLN) >> RCC_PLLCFGR_PLLN_Pos)))) / (uint64_t)pllm);
 80063f8:	4b35      	ldr	r3, [pc, #212]	; (80064d0 <HAL_RCC_GetSysClockFreq+0x180>)
 80063fa:	685b      	ldr	r3, [r3, #4]
 80063fc:	099b      	lsrs	r3, r3, #6
 80063fe:	2200      	movs	r2, #0
 8006400:	613b      	str	r3, [r7, #16]
 8006402:	617a      	str	r2, [r7, #20]
 8006404:	693b      	ldr	r3, [r7, #16]
 8006406:	f3c3 0a08 	ubfx	sl, r3, #0, #9
 800640a:	f04f 0b00 	mov.w	fp, #0
 800640e:	4652      	mov	r2, sl
 8006410:	465b      	mov	r3, fp
 8006412:	f04f 0000 	mov.w	r0, #0
 8006416:	f04f 0100 	mov.w	r1, #0
 800641a:	0159      	lsls	r1, r3, #5
 800641c:	ea41 61d2 	orr.w	r1, r1, r2, lsr #27
 8006420:	0150      	lsls	r0, r2, #5
 8006422:	4602      	mov	r2, r0
 8006424:	460b      	mov	r3, r1
 8006426:	ebb2 080a 	subs.w	r8, r2, sl
 800642a:	eb63 090b 	sbc.w	r9, r3, fp
 800642e:	f04f 0200 	mov.w	r2, #0
 8006432:	f04f 0300 	mov.w	r3, #0
 8006436:	ea4f 1389 	mov.w	r3, r9, lsl #6
 800643a:	ea43 6398 	orr.w	r3, r3, r8, lsr #26
 800643e:	ea4f 1288 	mov.w	r2, r8, lsl #6
 8006442:	ebb2 0408 	subs.w	r4, r2, r8
 8006446:	eb63 0509 	sbc.w	r5, r3, r9
 800644a:	f04f 0200 	mov.w	r2, #0
 800644e:	f04f 0300 	mov.w	r3, #0
 8006452:	00eb      	lsls	r3, r5, #3
 8006454:	ea43 7354 	orr.w	r3, r3, r4, lsr #29
 8006458:	00e2      	lsls	r2, r4, #3
 800645a:	4614      	mov	r4, r2
 800645c:	461d      	mov	r5, r3
 800645e:	eb14 030a 	adds.w	r3, r4, sl
 8006462:	603b      	str	r3, [r7, #0]
 8006464:	eb45 030b 	adc.w	r3, r5, fp
 8006468:	607b      	str	r3, [r7, #4]
 800646a:	f04f 0200 	mov.w	r2, #0
 800646e:	f04f 0300 	mov.w	r3, #0
 8006472:	e9d7 4500 	ldrd	r4, r5, [r7]
 8006476:	4629      	mov	r1, r5
 8006478:	028b      	lsls	r3, r1, #10
 800647a:	4621      	mov	r1, r4
 800647c:	ea43 5391 	orr.w	r3, r3, r1, lsr #22
 8006480:	4621      	mov	r1, r4
 8006482:	028a      	lsls	r2, r1, #10
 8006484:	4610      	mov	r0, r2
 8006486:	4619      	mov	r1, r3
 8006488:	6b7b      	ldr	r3, [r7, #52]	; 0x34
 800648a:	2200      	movs	r2, #0
 800648c:	60bb      	str	r3, [r7, #8]
 800648e:	60fa      	str	r2, [r7, #12]
 8006490:	e9d7 2302 	ldrd	r2, r3, [r7, #8]
 8006494:	f7f9 feb2 	bl	80001fc <__aeabi_uldivmod>
 8006498:	4602      	mov	r2, r0
 800649a:	460b      	mov	r3, r1
 800649c:	4613      	mov	r3, r2
 800649e:	63fb      	str	r3, [r7, #60]	; 0x3c
      }
      pllp = ((((RCC->PLLCFGR & RCC_PLLCFGR_PLLP) >> RCC_PLLCFGR_PLLP_Pos) + 1U) *2U);
 80064a0:	4b0b      	ldr	r3, [pc, #44]	; (80064d0 <HAL_RCC_GetSysClockFreq+0x180>)
 80064a2:	685b      	ldr	r3, [r3, #4]
 80064a4:	0c1b      	lsrs	r3, r3, #16
 80064a6:	f003 0303 	and.w	r3, r3, #3
 80064aa:	3301      	adds	r3, #1
 80064ac:	005b      	lsls	r3, r3, #1
 80064ae:	633b      	str	r3, [r7, #48]	; 0x30

      sysclockfreq = pllvco/pllp;
 80064b0:	6bfa      	ldr	r2, [r7, #60]	; 0x3c
 80064b2:	6b3b      	ldr	r3, [r7, #48]	; 0x30
 80064b4:	fbb2 f3f3 	udiv	r3, r2, r3
 80064b8:	63bb      	str	r3, [r7, #56]	; 0x38
      break;
 80064ba:	e002      	b.n	80064c2 <HAL_RCC_GetSysClockFreq+0x172>
    }
    default:
    {
      sysclockfreq = HSI_VALUE;
 80064bc:	4b05      	ldr	r3, [pc, #20]	; (80064d4 <HAL_RCC_GetSysClockFreq+0x184>)
 80064be:	63bb      	str	r3, [r7, #56]	; 0x38
      break;
 80064c0:	bf00      	nop
    }
  }
  return sysclockfreq;
 80064c2:	6bbb      	ldr	r3, [r7, #56]	; 0x38
}
 80064c4:	4618      	mov	r0, r3
 80064c6:	3740      	adds	r7, #64	; 0x40
 80064c8:	46bd      	mov	sp, r7
 80064ca:	e8bd 8fb0 	ldmia.w	sp!, {r4, r5, r7, r8, r9, sl, fp, pc}
 80064ce:	bf00      	nop
 80064d0:	40023800 	.word	0x40023800
 80064d4:	00f42400 	.word	0x00f42400
 80064d8:	017d7840 	.word	0x017d7840

080064dc <HAL_RCC_GetHCLKFreq>:
  * @note   The SystemCoreClock CMSIS variable is used to store System Clock Frequency
  *         and updated within this function
  * @retval HCLK frequency
  */
uint32_t HAL_RCC_GetHCLKFreq(void)
{
 80064dc:	b480      	push	{r7}
 80064de:	af00      	add	r7, sp, #0
  return SystemCoreClock;
 80064e0:	4b03      	ldr	r3, [pc, #12]	; (80064f0 <HAL_RCC_GetHCLKFreq+0x14>)
 80064e2:	681b      	ldr	r3, [r3, #0]
}
 80064e4:	4618      	mov	r0, r3
 80064e6:	46bd      	mov	sp, r7
 80064e8:	f85d 7b04 	ldr.w	r7, [sp], #4
 80064ec:	4770      	bx	lr
 80064ee:	bf00      	nop
 80064f0:	2000001c 	.word	0x2000001c

080064f4 <HAL_RCC_GetPCLK1Freq>:
  * @note   Each time PCLK1 changes, this function must be called to update the
  *         right PCLK1 value. Otherwise, any configuration based on this function will be incorrect.
  * @retval PCLK1 frequency
  */
uint32_t HAL_RCC_GetPCLK1Freq(void)
{
 80064f4:	b580      	push	{r7, lr}
 80064f6:	af00      	add	r7, sp, #0
  /* Get HCLK source and Compute PCLK1 frequency ---------------------------*/
  return (HAL_RCC_GetHCLKFreq() >> APBPrescTable[(RCC->CFGR & RCC_CFGR_PPRE1)>> RCC_CFGR_PPRE1_Pos]);
 80064f8:	f7ff fff0 	bl	80064dc <HAL_RCC_GetHCLKFreq>
 80064fc:	4602      	mov	r2, r0
 80064fe:	4b05      	ldr	r3, [pc, #20]	; (8006514 <HAL_RCC_GetPCLK1Freq+0x20>)
 8006500:	689b      	ldr	r3, [r3, #8]
 8006502:	0a9b      	lsrs	r3, r3, #10
 8006504:	f003 0307 	and.w	r3, r3, #7
 8006508:	4903      	ldr	r1, [pc, #12]	; (8006518 <HAL_RCC_GetPCLK1Freq+0x24>)
 800650a:	5ccb      	ldrb	r3, [r1, r3]
 800650c:	fa22 f303 	lsr.w	r3, r2, r3
}
 8006510:	4618      	mov	r0, r3
 8006512:	bd80      	pop	{r7, pc}
 8006514:	40023800 	.word	0x40023800
 8006518:	08009518 	.word	0x08009518

0800651c <HAL_RCC_GetPCLK2Freq>:
  * @note   Each time PCLK2 changes, this function must be called to update the
  *         right PCLK2 value. Otherwise, any configuration based on this function will be incorrect.
  * @retval PCLK2 frequency
  */
uint32_t HAL_RCC_GetPCLK2Freq(void)
{
 800651c:	b580      	push	{r7, lr}
 800651e:	af00      	add	r7, sp, #0
  /* Get HCLK source and Compute PCLK2 frequency ---------------------------*/
  return (HAL_RCC_GetHCLKFreq()>> APBPrescTable[(RCC->CFGR & RCC_CFGR_PPRE2)>> RCC_CFGR_PPRE2_Pos]);
 8006520:	f7ff ffdc 	bl	80064dc <HAL_RCC_GetHCLKFreq>
 8006524:	4602      	mov	r2, r0
 8006526:	4b05      	ldr	r3, [pc, #20]	; (800653c <HAL_RCC_GetPCLK2Freq+0x20>)
 8006528:	689b      	ldr	r3, [r3, #8]
 800652a:	0b5b      	lsrs	r3, r3, #13
 800652c:	f003 0307 	and.w	r3, r3, #7
 8006530:	4903      	ldr	r1, [pc, #12]	; (8006540 <HAL_RCC_GetPCLK2Freq+0x24>)
 8006532:	5ccb      	ldrb	r3, [r1, r3]
 8006534:	fa22 f303 	lsr.w	r3, r2, r3
}
 8006538:	4618      	mov	r0, r3
 800653a:	bd80      	pop	{r7, pc}
 800653c:	40023800 	.word	0x40023800
 8006540:	08009518 	.word	0x08009518

08006544 <HAL_RCCEx_PeriphCLKConfig>:
  *         the backup registers) and RCC_BDCR register are set to their reset values.
  *
  * @retval HAL status
  */
HAL_StatusTypeDef HAL_RCCEx_PeriphCLKConfig(RCC_PeriphCLKInitTypeDef  *PeriphClkInit)
{
 8006544:	b580      	push	{r7, lr}
 8006546:	b086      	sub	sp, #24
 8006548:	af00      	add	r7, sp, #0
 800654a:	6078      	str	r0, [r7, #4]
  uint32_t tickstart = 0U;
 800654c:	2300      	movs	r3, #0
 800654e:	617b      	str	r3, [r7, #20]
  uint32_t tmpreg1 = 0U;
 8006550:	2300      	movs	r3, #0
 8006552:	613b      	str	r3, [r7, #16]

  /*----------------------- SAI/I2S Configuration (PLLI2S) -------------------*/
  /*----------------------- Common configuration SAI/I2S ---------------------*/
  /* In Case of SAI or I2S Clock Configuration through PLLI2S, PLLI2SN division
     factor is common parameters for both peripherals */
  if((((PeriphClkInit->PeriphClockSelection) & RCC_PERIPHCLK_I2S) == RCC_PERIPHCLK_I2S) ||
 8006554:	687b      	ldr	r3, [r7, #4]
 8006556:	681b      	ldr	r3, [r3, #0]
 8006558:	f003 0301 	and.w	r3, r3, #1
 800655c:	2b00      	cmp	r3, #0
 800655e:	d10b      	bne.n	8006578 <HAL_RCCEx_PeriphCLKConfig+0x34>
     (((PeriphClkInit->PeriphClockSelection) & RCC_PERIPHCLK_SAI_PLLI2S) == RCC_PERIPHCLK_SAI_PLLI2S) ||
 8006560:	687b      	ldr	r3, [r7, #4]
 8006562:	681b      	ldr	r3, [r3, #0]
 8006564:	f003 0302 	and.w	r3, r3, #2
  if((((PeriphClkInit->PeriphClockSelection) & RCC_PERIPHCLK_I2S) == RCC_PERIPHCLK_I2S) ||
 8006568:	2b00      	cmp	r3, #0
 800656a:	d105      	bne.n	8006578 <HAL_RCCEx_PeriphCLKConfig+0x34>
     (((PeriphClkInit->PeriphClockSelection) & RCC_PERIPHCLK_PLLI2S) == RCC_PERIPHCLK_PLLI2S))
 800656c:	687b      	ldr	r3, [r7, #4]
 800656e:	681b      	ldr	r3, [r3, #0]
 8006570:	f003 0340 	and.w	r3, r3, #64	; 0x40
     (((PeriphClkInit->PeriphClockSelection) & RCC_PERIPHCLK_SAI_PLLI2S) == RCC_PERIPHCLK_SAI_PLLI2S) ||
 8006574:	2b00      	cmp	r3, #0
 8006576:	d075      	beq.n	8006664 <HAL_RCCEx_PeriphCLKConfig+0x120>
  {
    /* check for Parameters */
    assert_param(IS_RCC_PLLI2SN_VALUE(PeriphClkInit->PLLI2S.PLLI2SN));

    /* Disable the PLLI2S */
    __HAL_RCC_PLLI2S_DISABLE();
 8006578:	4b91      	ldr	r3, [pc, #580]	; (80067c0 <HAL_RCCEx_PeriphCLKConfig+0x27c>)
 800657a:	2200      	movs	r2, #0
 800657c:	601a      	str	r2, [r3, #0]
    /* Get tick */
    tickstart = HAL_GetTick();
 800657e:	f7fc fd2f 	bl	8002fe0 <HAL_GetTick>
 8006582:	6178      	str	r0, [r7, #20]
    /* Wait till PLLI2S is disabled */
    while(__HAL_RCC_GET_FLAG(RCC_FLAG_PLLI2SRDY)  != RESET)
 8006584:	e008      	b.n	8006598 <HAL_RCCEx_PeriphCLKConfig+0x54>
    {
      if((HAL_GetTick() - tickstart ) > PLLI2S_TIMEOUT_VALUE)
 8006586:	f7fc fd2b 	bl	8002fe0 <HAL_GetTick>
 800658a:	4602      	mov	r2, r0
 800658c:	697b      	ldr	r3, [r7, #20]
 800658e:	1ad3      	subs	r3, r2, r3
 8006590:	2b02      	cmp	r3, #2
 8006592:	d901      	bls.n	8006598 <HAL_RCCEx_PeriphCLKConfig+0x54>
      {
        /* return in case of Timeout detected */
        return HAL_TIMEOUT;
 8006594:	2303      	movs	r3, #3
 8006596:	e189      	b.n	80068ac <HAL_RCCEx_PeriphCLKConfig+0x368>
    while(__HAL_RCC_GET_FLAG(RCC_FLAG_PLLI2SRDY)  != RESET)
 8006598:	4b8a      	ldr	r3, [pc, #552]	; (80067c4 <HAL_RCCEx_PeriphCLKConfig+0x280>)
 800659a:	681b      	ldr	r3, [r3, #0]
 800659c:	f003 6300 	and.w	r3, r3, #134217728	; 0x8000000
 80065a0:	2b00      	cmp	r3, #0
 80065a2:	d1f0      	bne.n	8006586 <HAL_RCCEx_PeriphCLKConfig+0x42>
    }

    /*---------------------------- I2S configuration -------------------------*/
    /* In Case of I2S Clock Configuration through PLLI2S, PLLI2SR must be added
      only for I2S configuration */
    if(((PeriphClkInit->PeriphClockSelection) & RCC_PERIPHCLK_I2S) == (RCC_PERIPHCLK_I2S))
 80065a4:	687b      	ldr	r3, [r7, #4]
 80065a6:	681b      	ldr	r3, [r3, #0]
 80065a8:	f003 0301 	and.w	r3, r3, #1
 80065ac:	2b00      	cmp	r3, #0
 80065ae:	d009      	beq.n	80065c4 <HAL_RCCEx_PeriphCLKConfig+0x80>
      /* check for Parameters */
      assert_param(IS_RCC_PLLI2SR_VALUE(PeriphClkInit->PLLI2S.PLLI2SR));
      /* Configure the PLLI2S division factors */
      /* PLLI2S_VCO = f(VCO clock) = f(PLLI2S clock input) * (PLLI2SN/PLLM) */
      /* I2SCLK = f(PLLI2S clock output) = f(VCO clock) / PLLI2SR */
      __HAL_RCC_PLLI2S_CONFIG(PeriphClkInit->PLLI2S.PLLI2SN , PeriphClkInit->PLLI2S.PLLI2SR);
 80065b0:	687b      	ldr	r3, [r7, #4]
 80065b2:	685b      	ldr	r3, [r3, #4]
 80065b4:	019a      	lsls	r2, r3, #6
 80065b6:	687b      	ldr	r3, [r7, #4]
 80065b8:	689b      	ldr	r3, [r3, #8]
 80065ba:	071b      	lsls	r3, r3, #28
 80065bc:	4981      	ldr	r1, [pc, #516]	; (80067c4 <HAL_RCCEx_PeriphCLKConfig+0x280>)
 80065be:	4313      	orrs	r3, r2
 80065c0:	f8c1 3084 	str.w	r3, [r1, #132]	; 0x84
    }

    /*---------------------------- SAI configuration -------------------------*/
    /* In Case of SAI Clock Configuration through PLLI2S, PLLI2SQ and PLLI2S_DIVQ must
       be added only for SAI configuration */
    if(((PeriphClkInit->PeriphClockSelection) & RCC_PERIPHCLK_SAI_PLLI2S) == (RCC_PERIPHCLK_SAI_PLLI2S))
 80065c4:	687b      	ldr	r3, [r7, #4]
 80065c6:	681b      	ldr	r3, [r3, #0]
 80065c8:	f003 0302 	and.w	r3, r3, #2
 80065cc:	2b00      	cmp	r3, #0
 80065ce:	d01f      	beq.n	8006610 <HAL_RCCEx_PeriphCLKConfig+0xcc>
      /* Check the PLLI2S division factors */
      assert_param(IS_RCC_PLLI2SQ_VALUE(PeriphClkInit->PLLI2S.PLLI2SQ));
      assert_param(IS_RCC_PLLI2S_DIVQ_VALUE(PeriphClkInit->PLLI2SDivQ));

      /* Read PLLI2SR value from PLLI2SCFGR register (this value is not need for SAI configuration) */
      tmpreg1 = ((RCC->PLLI2SCFGR & RCC_PLLI2SCFGR_PLLI2SR) >> RCC_PLLI2SCFGR_PLLI2SR_Pos);
 80065d0:	4b7c      	ldr	r3, [pc, #496]	; (80067c4 <HAL_RCCEx_PeriphCLKConfig+0x280>)
 80065d2:	f8d3 3084 	ldr.w	r3, [r3, #132]	; 0x84
 80065d6:	0f1b      	lsrs	r3, r3, #28
 80065d8:	f003 0307 	and.w	r3, r3, #7
 80065dc:	613b      	str	r3, [r7, #16]
      /* Configure the PLLI2S division factors */
      /* PLLI2S_VCO Input  = PLL_SOURCE/PLLM */
      /* PLLI2S_VCO Output = PLLI2S_VCO Input * PLLI2SN */
      /* SAI_CLK(first level) = PLLI2S_VCO Output/PLLI2SQ */
      __HAL_RCC_PLLI2S_SAICLK_CONFIG(PeriphClkInit->PLLI2S.PLLI2SN , PeriphClkInit->PLLI2S.PLLI2SQ , tmpreg1);
 80065de:	687b      	ldr	r3, [r7, #4]
 80065e0:	685b      	ldr	r3, [r3, #4]
 80065e2:	019a      	lsls	r2, r3, #6
 80065e4:	687b      	ldr	r3, [r7, #4]
 80065e6:	68db      	ldr	r3, [r3, #12]
 80065e8:	061b      	lsls	r3, r3, #24
 80065ea:	431a      	orrs	r2, r3
 80065ec:	693b      	ldr	r3, [r7, #16]
 80065ee:	071b      	lsls	r3, r3, #28
 80065f0:	4974      	ldr	r1, [pc, #464]	; (80067c4 <HAL_RCCEx_PeriphCLKConfig+0x280>)
 80065f2:	4313      	orrs	r3, r2
 80065f4:	f8c1 3084 	str.w	r3, [r1, #132]	; 0x84
      /* SAI_CLK_x = SAI_CLK(first level)/PLLI2SDIVQ */
      __HAL_RCC_PLLI2S_PLLSAICLKDIVQ_CONFIG(PeriphClkInit->PLLI2SDivQ);
 80065f8:	4b72      	ldr	r3, [pc, #456]	; (80067c4 <HAL_RCCEx_PeriphCLKConfig+0x280>)
 80065fa:	f8d3 308c 	ldr.w	r3, [r3, #140]	; 0x8c
 80065fe:	f023 021f 	bic.w	r2, r3, #31
 8006602:	687b      	ldr	r3, [r7, #4]
 8006604:	69db      	ldr	r3, [r3, #28]
 8006606:	3b01      	subs	r3, #1
 8006608:	496e      	ldr	r1, [pc, #440]	; (80067c4 <HAL_RCCEx_PeriphCLKConfig+0x280>)
 800660a:	4313      	orrs	r3, r2
 800660c:	f8c1 308c 	str.w	r3, [r1, #140]	; 0x8c
    }

    /*----------------- In Case of PLLI2S is just selected  -----------------*/
    if((PeriphClkInit->PeriphClockSelection & RCC_PERIPHCLK_PLLI2S) == RCC_PERIPHCLK_PLLI2S)
 8006610:	687b      	ldr	r3, [r7, #4]
 8006612:	681b      	ldr	r3, [r3, #0]
 8006614:	f003 0340 	and.w	r3, r3, #64	; 0x40
 8006618:	2b00      	cmp	r3, #0
 800661a:	d00d      	beq.n	8006638 <HAL_RCCEx_PeriphCLKConfig+0xf4>
      /* Check for Parameters */
      assert_param(IS_RCC_PLLI2SQ_VALUE(PeriphClkInit->PLLI2S.PLLI2SQ));
      assert_param(IS_RCC_PLLI2SR_VALUE(PeriphClkInit->PLLI2S.PLLI2SR));

      /* Configure the PLLI2S multiplication and division factors */
      __HAL_RCC_PLLI2S_SAICLK_CONFIG(PeriphClkInit->PLLI2S.PLLI2SN, PeriphClkInit->PLLI2S.PLLI2SQ, PeriphClkInit->PLLI2S.PLLI2SR);
 800661c:	687b      	ldr	r3, [r7, #4]
 800661e:	685b      	ldr	r3, [r3, #4]
 8006620:	019a      	lsls	r2, r3, #6
 8006622:	687b      	ldr	r3, [r7, #4]
 8006624:	68db      	ldr	r3, [r3, #12]
 8006626:	061b      	lsls	r3, r3, #24
 8006628:	431a      	orrs	r2, r3
 800662a:	687b      	ldr	r3, [r7, #4]
 800662c:	689b      	ldr	r3, [r3, #8]
 800662e:	071b      	lsls	r3, r3, #28
 8006630:	4964      	ldr	r1, [pc, #400]	; (80067c4 <HAL_RCCEx_PeriphCLKConfig+0x280>)
 8006632:	4313      	orrs	r3, r2
 8006634:	f8c1 3084 	str.w	r3, [r1, #132]	; 0x84
    }

    /* Enable the PLLI2S */
    __HAL_RCC_PLLI2S_ENABLE();
 8006638:	4b61      	ldr	r3, [pc, #388]	; (80067c0 <HAL_RCCEx_PeriphCLKConfig+0x27c>)
 800663a:	2201      	movs	r2, #1
 800663c:	601a      	str	r2, [r3, #0]
    /* Get tick */
    tickstart = HAL_GetTick();
 800663e:	f7fc fccf 	bl	8002fe0 <HAL_GetTick>
 8006642:	6178      	str	r0, [r7, #20]
    /* Wait till PLLI2S is ready */
    while(__HAL_RCC_GET_FLAG(RCC_FLAG_PLLI2SRDY)  == RESET)
 8006644:	e008      	b.n	8006658 <HAL_RCCEx_PeriphCLKConfig+0x114>
    {
      if((HAL_GetTick() - tickstart ) > PLLI2S_TIMEOUT_VALUE)
 8006646:	f7fc fccb 	bl	8002fe0 <HAL_GetTick>
 800664a:	4602      	mov	r2, r0
 800664c:	697b      	ldr	r3, [r7, #20]
 800664e:	1ad3      	subs	r3, r2, r3
 8006650:	2b02      	cmp	r3, #2
 8006652:	d901      	bls.n	8006658 <HAL_RCCEx_PeriphCLKConfig+0x114>
      {
        /* return in case of Timeout detected */
        return HAL_TIMEOUT;
 8006654:	2303      	movs	r3, #3
 8006656:	e129      	b.n	80068ac <HAL_RCCEx_PeriphCLKConfig+0x368>
    while(__HAL_RCC_GET_FLAG(RCC_FLAG_PLLI2SRDY)  == RESET)
 8006658:	4b5a      	ldr	r3, [pc, #360]	; (80067c4 <HAL_RCCEx_PeriphCLKConfig+0x280>)
 800665a:	681b      	ldr	r3, [r3, #0]
 800665c:	f003 6300 	and.w	r3, r3, #134217728	; 0x8000000
 8006660:	2b00      	cmp	r3, #0
 8006662:	d0f0      	beq.n	8006646 <HAL_RCCEx_PeriphCLKConfig+0x102>

  /*----------------------- SAI/LTDC Configuration (PLLSAI) ------------------*/
  /*----------------------- Common configuration SAI/LTDC --------------------*/
  /* In Case of SAI or LTDC Clock Configuration through PLLSAI, PLLSAIN division
     factor is common parameters for both peripherals */
  if((((PeriphClkInit->PeriphClockSelection) & RCC_PERIPHCLK_SAI_PLLSAI) == RCC_PERIPHCLK_SAI_PLLSAI) ||
 8006664:	687b      	ldr	r3, [r7, #4]
 8006666:	681b      	ldr	r3, [r3, #0]
 8006668:	f003 0304 	and.w	r3, r3, #4
 800666c:	2b00      	cmp	r3, #0
 800666e:	d105      	bne.n	800667c <HAL_RCCEx_PeriphCLKConfig+0x138>
     (((PeriphClkInit->PeriphClockSelection) & RCC_PERIPHCLK_LTDC) == RCC_PERIPHCLK_LTDC))
 8006670:	687b      	ldr	r3, [r7, #4]
 8006672:	681b      	ldr	r3, [r3, #0]
 8006674:	f003 0308 	and.w	r3, r3, #8
  if((((PeriphClkInit->PeriphClockSelection) & RCC_PERIPHCLK_SAI_PLLSAI) == RCC_PERIPHCLK_SAI_PLLSAI) ||
 8006678:	2b00      	cmp	r3, #0
 800667a:	d079      	beq.n	8006770 <HAL_RCCEx_PeriphCLKConfig+0x22c>
  {
    /* Check the PLLSAI division factors */
    assert_param(IS_RCC_PLLSAIN_VALUE(PeriphClkInit->PLLSAI.PLLSAIN));

    /* Disable PLLSAI Clock */
    __HAL_RCC_PLLSAI_DISABLE();
 800667c:	4b52      	ldr	r3, [pc, #328]	; (80067c8 <HAL_RCCEx_PeriphCLKConfig+0x284>)
 800667e:	2200      	movs	r2, #0
 8006680:	601a      	str	r2, [r3, #0]
    /* Get tick */
    tickstart = HAL_GetTick();
 8006682:	f7fc fcad 	bl	8002fe0 <HAL_GetTick>
 8006686:	6178      	str	r0, [r7, #20]
    /* Wait till PLLSAI is disabled */
    while(__HAL_RCC_PLLSAI_GET_FLAG() != RESET)
 8006688:	e008      	b.n	800669c <HAL_RCCEx_PeriphCLKConfig+0x158>
    {
      if((HAL_GetTick() - tickstart ) > PLLSAI_TIMEOUT_VALUE)
 800668a:	f7fc fca9 	bl	8002fe0 <HAL_GetTick>
 800668e:	4602      	mov	r2, r0
 8006690:	697b      	ldr	r3, [r7, #20]
 8006692:	1ad3      	subs	r3, r2, r3
 8006694:	2b02      	cmp	r3, #2
 8006696:	d901      	bls.n	800669c <HAL_RCCEx_PeriphCLKConfig+0x158>
      {
        /* return in case of Timeout detected */
        return HAL_TIMEOUT;
 8006698:	2303      	movs	r3, #3
 800669a:	e107      	b.n	80068ac <HAL_RCCEx_PeriphCLKConfig+0x368>
    while(__HAL_RCC_PLLSAI_GET_FLAG() != RESET)
 800669c:	4b49      	ldr	r3, [pc, #292]	; (80067c4 <HAL_RCCEx_PeriphCLKConfig+0x280>)
 800669e:	681b      	ldr	r3, [r3, #0]
 80066a0:	f003 5300 	and.w	r3, r3, #536870912	; 0x20000000
 80066a4:	f1b3 5f00 	cmp.w	r3, #536870912	; 0x20000000
 80066a8:	d0ef      	beq.n	800668a <HAL_RCCEx_PeriphCLKConfig+0x146>
    }

    /*---------------------------- SAI configuration -------------------------*/
    /* In Case of SAI Clock Configuration through PLLSAI, PLLSAIQ and PLLSAI_DIVQ must
       be added only for SAI configuration */
    if(((PeriphClkInit->PeriphClockSelection) & RCC_PERIPHCLK_SAI_PLLSAI) == (RCC_PERIPHCLK_SAI_PLLSAI))
 80066aa:	687b      	ldr	r3, [r7, #4]
 80066ac:	681b      	ldr	r3, [r3, #0]
 80066ae:	f003 0304 	and.w	r3, r3, #4
 80066b2:	2b00      	cmp	r3, #0
 80066b4:	d020      	beq.n	80066f8 <HAL_RCCEx_PeriphCLKConfig+0x1b4>
    {
      assert_param(IS_RCC_PLLSAIQ_VALUE(PeriphClkInit->PLLSAI.PLLSAIQ));
      assert_param(IS_RCC_PLLSAI_DIVQ_VALUE(PeriphClkInit->PLLSAIDivQ));

      /* Read PLLSAIR value from PLLSAICFGR register (this value is not need for SAI configuration) */
      tmpreg1 = ((RCC->PLLSAICFGR & RCC_PLLSAICFGR_PLLSAIR) >> RCC_PLLSAICFGR_PLLSAIR_Pos);
 80066b6:	4b43      	ldr	r3, [pc, #268]	; (80067c4 <HAL_RCCEx_PeriphCLKConfig+0x280>)
 80066b8:	f8d3 3088 	ldr.w	r3, [r3, #136]	; 0x88
 80066bc:	0f1b      	lsrs	r3, r3, #28
 80066be:	f003 0307 	and.w	r3, r3, #7
 80066c2:	613b      	str	r3, [r7, #16]
      /* PLLSAI_VCO Input  = PLL_SOURCE/PLLM */
      /* PLLSAI_VCO Output = PLLSAI_VCO Input * PLLSAIN */
      /* SAI_CLK(first level) = PLLSAI_VCO Output/PLLSAIQ */
      __HAL_RCC_PLLSAI_CONFIG(PeriphClkInit->PLLSAI.PLLSAIN , PeriphClkInit->PLLSAI.PLLSAIQ, tmpreg1);
 80066c4:	687b      	ldr	r3, [r7, #4]
 80066c6:	691b      	ldr	r3, [r3, #16]
 80066c8:	019a      	lsls	r2, r3, #6
 80066ca:	687b      	ldr	r3, [r7, #4]
 80066cc:	695b      	ldr	r3, [r3, #20]
 80066ce:	061b      	lsls	r3, r3, #24
 80066d0:	431a      	orrs	r2, r3
 80066d2:	693b      	ldr	r3, [r7, #16]
 80066d4:	071b      	lsls	r3, r3, #28
 80066d6:	493b      	ldr	r1, [pc, #236]	; (80067c4 <HAL_RCCEx_PeriphCLKConfig+0x280>)
 80066d8:	4313      	orrs	r3, r2
 80066da:	f8c1 3088 	str.w	r3, [r1, #136]	; 0x88
      /* SAI_CLK_x = SAI_CLK(first level)/PLLSAIDIVQ */
      __HAL_RCC_PLLSAI_PLLSAICLKDIVQ_CONFIG(PeriphClkInit->PLLSAIDivQ);
 80066de:	4b39      	ldr	r3, [pc, #228]	; (80067c4 <HAL_RCCEx_PeriphCLKConfig+0x280>)
 80066e0:	f8d3 308c 	ldr.w	r3, [r3, #140]	; 0x8c
 80066e4:	f423 52f8 	bic.w	r2, r3, #7936	; 0x1f00
 80066e8:	687b      	ldr	r3, [r7, #4]
 80066ea:	6a1b      	ldr	r3, [r3, #32]
 80066ec:	3b01      	subs	r3, #1
 80066ee:	021b      	lsls	r3, r3, #8
 80066f0:	4934      	ldr	r1, [pc, #208]	; (80067c4 <HAL_RCCEx_PeriphCLKConfig+0x280>)
 80066f2:	4313      	orrs	r3, r2
 80066f4:	f8c1 308c 	str.w	r3, [r1, #140]	; 0x8c
    }

    /*---------------------------- LTDC configuration ------------------------*/
    if(((PeriphClkInit->PeriphClockSelection) & RCC_PERIPHCLK_LTDC) == (RCC_PERIPHCLK_LTDC))
 80066f8:	687b      	ldr	r3, [r7, #4]
 80066fa:	681b      	ldr	r3, [r3, #0]
 80066fc:	f003 0308 	and.w	r3, r3, #8
 8006700:	2b00      	cmp	r3, #0
 8006702:	d01e      	beq.n	8006742 <HAL_RCCEx_PeriphCLKConfig+0x1fe>
    {
      assert_param(IS_RCC_PLLSAIR_VALUE(PeriphClkInit->PLLSAI.PLLSAIR));
      assert_param(IS_RCC_PLLSAI_DIVR_VALUE(PeriphClkInit->PLLSAIDivR));

      /* Read PLLSAIR value from PLLSAICFGR register (this value is not need for SAI configuration) */
      tmpreg1 = ((RCC->PLLSAICFGR & RCC_PLLSAICFGR_PLLSAIQ) >> RCC_PLLSAICFGR_PLLSAIQ_Pos);
 8006704:	4b2f      	ldr	r3, [pc, #188]	; (80067c4 <HAL_RCCEx_PeriphCLKConfig+0x280>)
 8006706:	f8d3 3088 	ldr.w	r3, [r3, #136]	; 0x88
 800670a:	0e1b      	lsrs	r3, r3, #24
 800670c:	f003 030f 	and.w	r3, r3, #15
 8006710:	613b      	str	r3, [r7, #16]
      /* PLLSAI_VCO Input  = PLL_SOURCE/PLLM */
      /* PLLSAI_VCO Output = PLLSAI_VCO Input * PLLSAIN */
      /* LTDC_CLK(first level) = PLLSAI_VCO Output/PLLSAIR */
      __HAL_RCC_PLLSAI_CONFIG(PeriphClkInit->PLLSAI.PLLSAIN , tmpreg1, PeriphClkInit->PLLSAI.PLLSAIR);
 8006712:	687b      	ldr	r3, [r7, #4]
 8006714:	691b      	ldr	r3, [r3, #16]
 8006716:	019a      	lsls	r2, r3, #6
 8006718:	693b      	ldr	r3, [r7, #16]
 800671a:	061b      	lsls	r3, r3, #24
 800671c:	431a      	orrs	r2, r3
 800671e:	687b      	ldr	r3, [r7, #4]
 8006720:	699b      	ldr	r3, [r3, #24]
 8006722:	071b      	lsls	r3, r3, #28
 8006724:	4927      	ldr	r1, [pc, #156]	; (80067c4 <HAL_RCCEx_PeriphCLKConfig+0x280>)
 8006726:	4313      	orrs	r3, r2
 8006728:	f8c1 3088 	str.w	r3, [r1, #136]	; 0x88
      /* LTDC_CLK = LTDC_CLK(first level)/PLLSAIDIVR */
      __HAL_RCC_PLLSAI_PLLSAICLKDIVR_CONFIG(PeriphClkInit->PLLSAIDivR);
 800672c:	4b25      	ldr	r3, [pc, #148]	; (80067c4 <HAL_RCCEx_PeriphCLKConfig+0x280>)
 800672e:	f8d3 308c 	ldr.w	r3, [r3, #140]	; 0x8c
 8006732:	f423 3240 	bic.w	r2, r3, #196608	; 0x30000
 8006736:	687b      	ldr	r3, [r7, #4]
 8006738:	6a5b      	ldr	r3, [r3, #36]	; 0x24
 800673a:	4922      	ldr	r1, [pc, #136]	; (80067c4 <HAL_RCCEx_PeriphCLKConfig+0x280>)
 800673c:	4313      	orrs	r3, r2
 800673e:	f8c1 308c 	str.w	r3, [r1, #140]	; 0x8c
    }
    /* Enable PLLSAI Clock */
    __HAL_RCC_PLLSAI_ENABLE();
 8006742:	4b21      	ldr	r3, [pc, #132]	; (80067c8 <HAL_RCCEx_PeriphCLKConfig+0x284>)
 8006744:	2201      	movs	r2, #1
 8006746:	601a      	str	r2, [r3, #0]
    /* Get tick */
    tickstart = HAL_GetTick();
 8006748:	f7fc fc4a 	bl	8002fe0 <HAL_GetTick>
 800674c:	6178      	str	r0, [r7, #20]
    /* Wait till PLLSAI is ready */
    while(__HAL_RCC_PLLSAI_GET_FLAG() == RESET)
 800674e:	e008      	b.n	8006762 <HAL_RCCEx_PeriphCLKConfig+0x21e>
    {
      if((HAL_GetTick() - tickstart ) > PLLSAI_TIMEOUT_VALUE)
 8006750:	f7fc fc46 	bl	8002fe0 <HAL_GetTick>
 8006754:	4602      	mov	r2, r0
 8006756:	697b      	ldr	r3, [r7, #20]
 8006758:	1ad3      	subs	r3, r2, r3
 800675a:	2b02      	cmp	r3, #2
 800675c:	d901      	bls.n	8006762 <HAL_RCCEx_PeriphCLKConfig+0x21e>
      {
        /* return in case of Timeout detected */
        return HAL_TIMEOUT;
 800675e:	2303      	movs	r3, #3
 8006760:	e0a4      	b.n	80068ac <HAL_RCCEx_PeriphCLKConfig+0x368>
    while(__HAL_RCC_PLLSAI_GET_FLAG() == RESET)
 8006762:	4b18      	ldr	r3, [pc, #96]	; (80067c4 <HAL_RCCEx_PeriphCLKConfig+0x280>)
 8006764:	681b      	ldr	r3, [r3, #0]
 8006766:	f003 5300 	and.w	r3, r3, #536870912	; 0x20000000
 800676a:	f1b3 5f00 	cmp.w	r3, #536870912	; 0x20000000
 800676e:	d1ef      	bne.n	8006750 <HAL_RCCEx_PeriphCLKConfig+0x20c>
    }
  }
  /*--------------------------------------------------------------------------*/

  /*---------------------------- RTC configuration ---------------------------*/
  if(((PeriphClkInit->PeriphClockSelection) & RCC_PERIPHCLK_RTC) == (RCC_PERIPHCLK_RTC))
 8006770:	687b      	ldr	r3, [r7, #4]
 8006772:	681b      	ldr	r3, [r3, #0]
 8006774:	f003 0320 	and.w	r3, r3, #32
 8006778:	2b00      	cmp	r3, #0
 800677a:	f000 808b 	beq.w	8006894 <HAL_RCCEx_PeriphCLKConfig+0x350>
  {
    /* Check for RTC Parameters used to output RTCCLK */
    assert_param(IS_RCC_RTCCLKSOURCE(PeriphClkInit->RTCClockSelection));

    /* Enable Power Clock*/
    __HAL_RCC_PWR_CLK_ENABLE();
 800677e:	2300      	movs	r3, #0
 8006780:	60fb      	str	r3, [r7, #12]
 8006782:	4b10      	ldr	r3, [pc, #64]	; (80067c4 <HAL_RCCEx_PeriphCLKConfig+0x280>)
 8006784:	6c1b      	ldr	r3, [r3, #64]	; 0x40
 8006786:	4a0f      	ldr	r2, [pc, #60]	; (80067c4 <HAL_RCCEx_PeriphCLKConfig+0x280>)
 8006788:	f043 5380 	orr.w	r3, r3, #268435456	; 0x10000000
 800678c:	6413      	str	r3, [r2, #64]	; 0x40
 800678e:	4b0d      	ldr	r3, [pc, #52]	; (80067c4 <HAL_RCCEx_PeriphCLKConfig+0x280>)
 8006790:	6c1b      	ldr	r3, [r3, #64]	; 0x40
 8006792:	f003 5380 	and.w	r3, r3, #268435456	; 0x10000000
 8006796:	60fb      	str	r3, [r7, #12]
 8006798:	68fb      	ldr	r3, [r7, #12]

    /* Enable write access to Backup domain */
    PWR->CR |= PWR_CR_DBP;
 800679a:	4b0c      	ldr	r3, [pc, #48]	; (80067cc <HAL_RCCEx_PeriphCLKConfig+0x288>)
 800679c:	681b      	ldr	r3, [r3, #0]
 800679e:	4a0b      	ldr	r2, [pc, #44]	; (80067cc <HAL_RCCEx_PeriphCLKConfig+0x288>)
 80067a0:	f443 7380 	orr.w	r3, r3, #256	; 0x100
 80067a4:	6013      	str	r3, [r2, #0]

    /* Get tick */
    tickstart = HAL_GetTick();
 80067a6:	f7fc fc1b 	bl	8002fe0 <HAL_GetTick>
 80067aa:	6178      	str	r0, [r7, #20]

    while((PWR->CR & PWR_CR_DBP) == RESET)
 80067ac:	e010      	b.n	80067d0 <HAL_RCCEx_PeriphCLKConfig+0x28c>
    {
      if((HAL_GetTick() - tickstart ) > RCC_DBP_TIMEOUT_VALUE)
 80067ae:	f7fc fc17 	bl	8002fe0 <HAL_GetTick>
 80067b2:	4602      	mov	r2, r0
 80067b4:	697b      	ldr	r3, [r7, #20]
 80067b6:	1ad3      	subs	r3, r2, r3
 80067b8:	2b02      	cmp	r3, #2
 80067ba:	d909      	bls.n	80067d0 <HAL_RCCEx_PeriphCLKConfig+0x28c>
      {
        return HAL_TIMEOUT;
 80067bc:	2303      	movs	r3, #3
 80067be:	e075      	b.n	80068ac <HAL_RCCEx_PeriphCLKConfig+0x368>
 80067c0:	42470068 	.word	0x42470068
 80067c4:	40023800 	.word	0x40023800
 80067c8:	42470070 	.word	0x42470070
 80067cc:	40007000 	.word	0x40007000
    while((PWR->CR & PWR_CR_DBP) == RESET)
 80067d0:	4b38      	ldr	r3, [pc, #224]	; (80068b4 <HAL_RCCEx_PeriphCLKConfig+0x370>)
 80067d2:	681b      	ldr	r3, [r3, #0]
 80067d4:	f403 7380 	and.w	r3, r3, #256	; 0x100
 80067d8:	2b00      	cmp	r3, #0
 80067da:	d0e8      	beq.n	80067ae <HAL_RCCEx_PeriphCLKConfig+0x26a>
      }
    }
    /* Reset the Backup domain only if the RTC Clock source selection is modified from reset value */
    tmpreg1 = (RCC->BDCR & RCC_BDCR_RTCSEL);
 80067dc:	4b36      	ldr	r3, [pc, #216]	; (80068b8 <HAL_RCCEx_PeriphCLKConfig+0x374>)
 80067de:	6f1b      	ldr	r3, [r3, #112]	; 0x70
 80067e0:	f403 7340 	and.w	r3, r3, #768	; 0x300
 80067e4:	613b      	str	r3, [r7, #16]
    if((tmpreg1 != 0x00000000U) && ((tmpreg1) != (PeriphClkInit->RTCClockSelection & RCC_BDCR_RTCSEL)))
 80067e6:	693b      	ldr	r3, [r7, #16]
 80067e8:	2b00      	cmp	r3, #0
 80067ea:	d02f      	beq.n	800684c <HAL_RCCEx_PeriphCLKConfig+0x308>
 80067ec:	687b      	ldr	r3, [r7, #4]
 80067ee:	6a9b      	ldr	r3, [r3, #40]	; 0x28
 80067f0:	f403 7340 	and.w	r3, r3, #768	; 0x300
 80067f4:	693a      	ldr	r2, [r7, #16]
 80067f6:	429a      	cmp	r2, r3
 80067f8:	d028      	beq.n	800684c <HAL_RCCEx_PeriphCLKConfig+0x308>
    {
      /* Store the content of BDCR register before the reset of Backup Domain */
      tmpreg1 = (RCC->BDCR & ~(RCC_BDCR_RTCSEL));
 80067fa:	4b2f      	ldr	r3, [pc, #188]	; (80068b8 <HAL_RCCEx_PeriphCLKConfig+0x374>)
 80067fc:	6f1b      	ldr	r3, [r3, #112]	; 0x70
 80067fe:	f423 7340 	bic.w	r3, r3, #768	; 0x300
 8006802:	613b      	str	r3, [r7, #16]
      /* RTC Clock selection can be changed only if the Backup Domain is reset */
      __HAL_RCC_BACKUPRESET_FORCE();
 8006804:	4b2d      	ldr	r3, [pc, #180]	; (80068bc <HAL_RCCEx_PeriphCLKConfig+0x378>)
 8006806:	2201      	movs	r2, #1
 8006808:	601a      	str	r2, [r3, #0]
      __HAL_RCC_BACKUPRESET_RELEASE();
 800680a:	4b2c      	ldr	r3, [pc, #176]	; (80068bc <HAL_RCCEx_PeriphCLKConfig+0x378>)
 800680c:	2200      	movs	r2, #0
 800680e:	601a      	str	r2, [r3, #0]
      /* Restore the Content of BDCR register */
      RCC->BDCR = tmpreg1;
 8006810:	4a29      	ldr	r2, [pc, #164]	; (80068b8 <HAL_RCCEx_PeriphCLKConfig+0x374>)
 8006812:	693b      	ldr	r3, [r7, #16]
 8006814:	6713      	str	r3, [r2, #112]	; 0x70

      /* Wait for LSE reactivation if LSE was enable prior to Backup Domain reset */
      if(HAL_IS_BIT_SET(RCC->BDCR, RCC_BDCR_LSEON))
 8006816:	4b28      	ldr	r3, [pc, #160]	; (80068b8 <HAL_RCCEx_PeriphCLKConfig+0x374>)
 8006818:	6f1b      	ldr	r3, [r3, #112]	; 0x70
 800681a:	f003 0301 	and.w	r3, r3, #1
 800681e:	2b01      	cmp	r3, #1
 8006820:	d114      	bne.n	800684c <HAL_RCCEx_PeriphCLKConfig+0x308>
      {
        /* Get tick */
        tickstart = HAL_GetTick();
 8006822:	f7fc fbdd 	bl	8002fe0 <HAL_GetTick>
 8006826:	6178      	str	r0, [r7, #20]

        /* Wait till LSE is ready */
        while(__HAL_RCC_GET_FLAG(RCC_FLAG_LSERDY) == RESET)
 8006828:	e00a      	b.n	8006840 <HAL_RCCEx_PeriphCLKConfig+0x2fc>
        {
          if((HAL_GetTick() - tickstart ) > RCC_LSE_TIMEOUT_VALUE)
 800682a:	f7fc fbd9 	bl	8002fe0 <HAL_GetTick>
 800682e:	4602      	mov	r2, r0
 8006830:	697b      	ldr	r3, [r7, #20]
 8006832:	1ad3      	subs	r3, r2, r3
 8006834:	f241 3288 	movw	r2, #5000	; 0x1388
 8006838:	4293      	cmp	r3, r2
 800683a:	d901      	bls.n	8006840 <HAL_RCCEx_PeriphCLKConfig+0x2fc>
          {
            return HAL_TIMEOUT;
 800683c:	2303      	movs	r3, #3
 800683e:	e035      	b.n	80068ac <HAL_RCCEx_PeriphCLKConfig+0x368>
        while(__HAL_RCC_GET_FLAG(RCC_FLAG_LSERDY) == RESET)
 8006840:	4b1d      	ldr	r3, [pc, #116]	; (80068b8 <HAL_RCCEx_PeriphCLKConfig+0x374>)
 8006842:	6f1b      	ldr	r3, [r3, #112]	; 0x70
 8006844:	f003 0302 	and.w	r3, r3, #2
 8006848:	2b00      	cmp	r3, #0
 800684a:	d0ee      	beq.n	800682a <HAL_RCCEx_PeriphCLKConfig+0x2e6>
          }
        }
      }
    }
    __HAL_RCC_RTC_CONFIG(PeriphClkInit->RTCClockSelection);
 800684c:	687b      	ldr	r3, [r7, #4]
 800684e:	6a9b      	ldr	r3, [r3, #40]	; 0x28
 8006850:	f403 7340 	and.w	r3, r3, #768	; 0x300
 8006854:	f5b3 7f40 	cmp.w	r3, #768	; 0x300
 8006858:	d10d      	bne.n	8006876 <HAL_RCCEx_PeriphCLKConfig+0x332>
 800685a:	4b17      	ldr	r3, [pc, #92]	; (80068b8 <HAL_RCCEx_PeriphCLKConfig+0x374>)
 800685c:	689b      	ldr	r3, [r3, #8]
 800685e:	f423 12f8 	bic.w	r2, r3, #2031616	; 0x1f0000
 8006862:	687b      	ldr	r3, [r7, #4]
 8006864:	6a9b      	ldr	r3, [r3, #40]	; 0x28
 8006866:	f023 4370 	bic.w	r3, r3, #4026531840	; 0xf0000000
 800686a:	f423 7340 	bic.w	r3, r3, #768	; 0x300
 800686e:	4912      	ldr	r1, [pc, #72]	; (80068b8 <HAL_RCCEx_PeriphCLKConfig+0x374>)
 8006870:	4313      	orrs	r3, r2
 8006872:	608b      	str	r3, [r1, #8]
 8006874:	e005      	b.n	8006882 <HAL_RCCEx_PeriphCLKConfig+0x33e>
 8006876:	4b10      	ldr	r3, [pc, #64]	; (80068b8 <HAL_RCCEx_PeriphCLKConfig+0x374>)
 8006878:	689b      	ldr	r3, [r3, #8]
 800687a:	4a0f      	ldr	r2, [pc, #60]	; (80068b8 <HAL_RCCEx_PeriphCLKConfig+0x374>)
 800687c:	f423 13f8 	bic.w	r3, r3, #2031616	; 0x1f0000
 8006880:	6093      	str	r3, [r2, #8]
 8006882:	4b0d      	ldr	r3, [pc, #52]	; (80068b8 <HAL_RCCEx_PeriphCLKConfig+0x374>)
 8006884:	6f1a      	ldr	r2, [r3, #112]	; 0x70
 8006886:	687b      	ldr	r3, [r7, #4]
 8006888:	6a9b      	ldr	r3, [r3, #40]	; 0x28
 800688a:	f3c3 030b 	ubfx	r3, r3, #0, #12
 800688e:	490a      	ldr	r1, [pc, #40]	; (80068b8 <HAL_RCCEx_PeriphCLKConfig+0x374>)
 8006890:	4313      	orrs	r3, r2
 8006892:	670b      	str	r3, [r1, #112]	; 0x70
  }
  /*--------------------------------------------------------------------------*/

  /*---------------------------- TIM configuration ---------------------------*/
  if(((PeriphClkInit->PeriphClockSelection) & RCC_PERIPHCLK_TIM) == (RCC_PERIPHCLK_TIM))
 8006894:	687b      	ldr	r3, [r7, #4]
 8006896:	681b      	ldr	r3, [r3, #0]
 8006898:	f003 0310 	and.w	r3, r3, #16
 800689c:	2b00      	cmp	r3, #0
 800689e:	d004      	beq.n	80068aa <HAL_RCCEx_PeriphCLKConfig+0x366>
  {
    __HAL_RCC_TIMCLKPRESCALER(PeriphClkInit->TIMPresSelection);
 80068a0:	687b      	ldr	r3, [r7, #4]
 80068a2:	f893 202c 	ldrb.w	r2, [r3, #44]	; 0x2c
 80068a6:	4b06      	ldr	r3, [pc, #24]	; (80068c0 <HAL_RCCEx_PeriphCLKConfig+0x37c>)
 80068a8:	601a      	str	r2, [r3, #0]
  }
  return HAL_OK;
 80068aa:	2300      	movs	r3, #0
}
 80068ac:	4618      	mov	r0, r3
 80068ae:	3718      	adds	r7, #24
 80068b0:	46bd      	mov	sp, r7
 80068b2:	bd80      	pop	{r7, pc}
 80068b4:	40007000 	.word	0x40007000
 80068b8:	40023800 	.word	0x40023800
 80068bc:	42470e40 	.word	0x42470e40
 80068c0:	424711e0 	.word	0x424711e0

080068c4 <HAL_RTC_Init>:
  * @param  hrtc pointer to a RTC_HandleTypeDef structure that contains
  *                the configuration information for RTC.
  * @retval HAL status
  */
HAL_StatusTypeDef HAL_RTC_Init(RTC_HandleTypeDef *hrtc)
{
 80068c4:	b580      	push	{r7, lr}
 80068c6:	b084      	sub	sp, #16
 80068c8:	af00      	add	r7, sp, #0
 80068ca:	6078      	str	r0, [r7, #4]
  HAL_StatusTypeDef status = HAL_ERROR;
 80068cc:	2301      	movs	r3, #1
 80068ce:	73fb      	strb	r3, [r7, #15]

  /* Check RTC handler validity */
  if (hrtc == NULL)
 80068d0:	687b      	ldr	r3, [r7, #4]
 80068d2:	2b00      	cmp	r3, #0
 80068d4:	d101      	bne.n	80068da <HAL_RTC_Init+0x16>
  {
    return HAL_ERROR;
 80068d6:	2301      	movs	r3, #1
 80068d8:	e073      	b.n	80069c2 <HAL_RTC_Init+0xfe>
    {
      hrtc->MspDeInitCallback = HAL_RTC_MspDeInit;
    }
  }
#else /* USE_HAL_RTC_REGISTER_CALLBACKS */
  if (hrtc->State == HAL_RTC_STATE_RESET)
 80068da:	687b      	ldr	r3, [r7, #4]
 80068dc:	7f5b      	ldrb	r3, [r3, #29]
 80068de:	b2db      	uxtb	r3, r3
 80068e0:	2b00      	cmp	r3, #0
 80068e2:	d105      	bne.n	80068f0 <HAL_RTC_Init+0x2c>
  {
    /* Allocate lock resource and initialize it */
    hrtc->Lock = HAL_UNLOCKED;
 80068e4:	687b      	ldr	r3, [r7, #4]
 80068e6:	2200      	movs	r2, #0
 80068e8:	771a      	strb	r2, [r3, #28]

    /* Initialize RTC MSP */
    HAL_RTC_MspInit(hrtc);
 80068ea:	6878      	ldr	r0, [r7, #4]
 80068ec:	f7fb ffd2 	bl	8002894 <HAL_RTC_MspInit>
  }
#endif /* USE_HAL_RTC_REGISTER_CALLBACKS */

  /* Set RTC state */
  hrtc->State = HAL_RTC_STATE_BUSY;
 80068f0:	687b      	ldr	r3, [r7, #4]
 80068f2:	2202      	movs	r2, #2
 80068f4:	775a      	strb	r2, [r3, #29]

  /* Check whether the calendar needs to be initialized */
  if (__HAL_RTC_IS_CALENDAR_INITIALIZED(hrtc) == 0U)
 80068f6:	687b      	ldr	r3, [r7, #4]
 80068f8:	681b      	ldr	r3, [r3, #0]
 80068fa:	68db      	ldr	r3, [r3, #12]
 80068fc:	f003 0310 	and.w	r3, r3, #16
 8006900:	2b10      	cmp	r3, #16
 8006902:	d055      	beq.n	80069b0 <HAL_RTC_Init+0xec>
  {
    /* Disable the write protection for RTC registers */
    __HAL_RTC_WRITEPROTECTION_DISABLE(hrtc);
 8006904:	687b      	ldr	r3, [r7, #4]
 8006906:	681b      	ldr	r3, [r3, #0]
 8006908:	22ca      	movs	r2, #202	; 0xca
 800690a:	625a      	str	r2, [r3, #36]	; 0x24
 800690c:	687b      	ldr	r3, [r7, #4]
 800690e:	681b      	ldr	r3, [r3, #0]
 8006910:	2253      	movs	r2, #83	; 0x53
 8006912:	625a      	str	r2, [r3, #36]	; 0x24

    /* Enter Initialization mode */
    status = RTC_EnterInitMode(hrtc);
 8006914:	6878      	ldr	r0, [r7, #4]
 8006916:	f000 fa49 	bl	8006dac <RTC_EnterInitMode>
 800691a:	4603      	mov	r3, r0
 800691c:	73fb      	strb	r3, [r7, #15]

    if (status == HAL_OK)
 800691e:	7bfb      	ldrb	r3, [r7, #15]
 8006920:	2b00      	cmp	r3, #0
 8006922:	d12c      	bne.n	800697e <HAL_RTC_Init+0xba>
    {
      /* Clear RTC_CR FMT, OSEL and POL Bits */
      hrtc->Instance->CR &= ((uint32_t)~(RTC_CR_FMT | RTC_CR_OSEL | RTC_CR_POL));
 8006924:	687b      	ldr	r3, [r7, #4]
 8006926:	681b      	ldr	r3, [r3, #0]
 8006928:	689b      	ldr	r3, [r3, #8]
 800692a:	687a      	ldr	r2, [r7, #4]
 800692c:	6812      	ldr	r2, [r2, #0]
 800692e:	f423 03e0 	bic.w	r3, r3, #7340032	; 0x700000
 8006932:	f023 0340 	bic.w	r3, r3, #64	; 0x40
 8006936:	6093      	str	r3, [r2, #8]
      /* Set RTC_CR register */
      hrtc->Instance->CR |= (uint32_t)(hrtc->Init.HourFormat | hrtc->Init.OutPut | hrtc->Init.OutPutPolarity);
 8006938:	687b      	ldr	r3, [r7, #4]
 800693a:	681b      	ldr	r3, [r3, #0]
 800693c:	6899      	ldr	r1, [r3, #8]
 800693e:	687b      	ldr	r3, [r7, #4]
 8006940:	685a      	ldr	r2, [r3, #4]
 8006942:	687b      	ldr	r3, [r7, #4]
 8006944:	691b      	ldr	r3, [r3, #16]
 8006946:	431a      	orrs	r2, r3
 8006948:	687b      	ldr	r3, [r7, #4]
 800694a:	695b      	ldr	r3, [r3, #20]
 800694c:	431a      	orrs	r2, r3
 800694e:	687b      	ldr	r3, [r7, #4]
 8006950:	681b      	ldr	r3, [r3, #0]
 8006952:	430a      	orrs	r2, r1
 8006954:	609a      	str	r2, [r3, #8]

      /* Configure the RTC PRER */
      hrtc->Instance->PRER = (uint32_t)(hrtc->Init.SynchPrediv);
 8006956:	687b      	ldr	r3, [r7, #4]
 8006958:	681b      	ldr	r3, [r3, #0]
 800695a:	687a      	ldr	r2, [r7, #4]
 800695c:	68d2      	ldr	r2, [r2, #12]
 800695e:	611a      	str	r2, [r3, #16]
      hrtc->Instance->PRER |= (uint32_t)(hrtc->Init.AsynchPrediv << RTC_PRER_PREDIV_A_Pos);
 8006960:	687b      	ldr	r3, [r7, #4]
 8006962:	681b      	ldr	r3, [r3, #0]
 8006964:	6919      	ldr	r1, [r3, #16]
 8006966:	687b      	ldr	r3, [r7, #4]
 8006968:	689b      	ldr	r3, [r3, #8]
 800696a:	041a      	lsls	r2, r3, #16
 800696c:	687b      	ldr	r3, [r7, #4]
 800696e:	681b      	ldr	r3, [r3, #0]
 8006970:	430a      	orrs	r2, r1
 8006972:	611a      	str	r2, [r3, #16]

      /* Exit Initialization mode */
      status = RTC_ExitInitMode(hrtc);
 8006974:	6878      	ldr	r0, [r7, #4]
 8006976:	f000 fa50 	bl	8006e1a <RTC_ExitInitMode>
 800697a:	4603      	mov	r3, r0
 800697c:	73fb      	strb	r3, [r7, #15]
    }

    if (status == HAL_OK)
 800697e:	7bfb      	ldrb	r3, [r7, #15]
 8006980:	2b00      	cmp	r3, #0
 8006982:	d110      	bne.n	80069a6 <HAL_RTC_Init+0xe2>
    {
      hrtc->Instance->TAFCR &= (uint32_t)~RTC_OUTPUT_TYPE_PUSHPULL;
 8006984:	687b      	ldr	r3, [r7, #4]
 8006986:	681b      	ldr	r3, [r3, #0]
 8006988:	6c1a      	ldr	r2, [r3, #64]	; 0x40
 800698a:	687b      	ldr	r3, [r7, #4]
 800698c:	681b      	ldr	r3, [r3, #0]
 800698e:	f422 2280 	bic.w	r2, r2, #262144	; 0x40000
 8006992:	641a      	str	r2, [r3, #64]	; 0x40
      hrtc->Instance->TAFCR |= (uint32_t)(hrtc->Init.OutPutType);
 8006994:	687b      	ldr	r3, [r7, #4]
 8006996:	681b      	ldr	r3, [r3, #0]
 8006998:	6c19      	ldr	r1, [r3, #64]	; 0x40
 800699a:	687b      	ldr	r3, [r7, #4]
 800699c:	699a      	ldr	r2, [r3, #24]
 800699e:	687b      	ldr	r3, [r7, #4]
 80069a0:	681b      	ldr	r3, [r3, #0]
 80069a2:	430a      	orrs	r2, r1
 80069a4:	641a      	str	r2, [r3, #64]	; 0x40
    }

    /* Enable the write protection for RTC registers */
    __HAL_RTC_WRITEPROTECTION_ENABLE(hrtc);
 80069a6:	687b      	ldr	r3, [r7, #4]
 80069a8:	681b      	ldr	r3, [r3, #0]
 80069aa:	22ff      	movs	r2, #255	; 0xff
 80069ac:	625a      	str	r2, [r3, #36]	; 0x24
 80069ae:	e001      	b.n	80069b4 <HAL_RTC_Init+0xf0>
  }
  else
  {
    /* The calendar is already initialized */
    status = HAL_OK;
 80069b0:	2300      	movs	r3, #0
 80069b2:	73fb      	strb	r3, [r7, #15]
  }

  if (status == HAL_OK)
 80069b4:	7bfb      	ldrb	r3, [r7, #15]
 80069b6:	2b00      	cmp	r3, #0
 80069b8:	d102      	bne.n	80069c0 <HAL_RTC_Init+0xfc>
  {
    hrtc->State = HAL_RTC_STATE_READY;
 80069ba:	687b      	ldr	r3, [r7, #4]
 80069bc:	2201      	movs	r2, #1
 80069be:	775a      	strb	r2, [r3, #29]
  }

  return status;
 80069c0:	7bfb      	ldrb	r3, [r7, #15]
}
 80069c2:	4618      	mov	r0, r3
 80069c4:	3710      	adds	r7, #16
 80069c6:	46bd      	mov	sp, r7
 80069c8:	bd80      	pop	{r7, pc}

080069ca <HAL_RTC_SetTime>:
  *            @arg RTC_FORMAT_BIN: Binary data format
  *            @arg RTC_FORMAT_BCD: BCD data format
  * @retval HAL status
  */
HAL_StatusTypeDef HAL_RTC_SetTime(RTC_HandleTypeDef *hrtc, RTC_TimeTypeDef *sTime, uint32_t Format)
{
 80069ca:	b590      	push	{r4, r7, lr}
 80069cc:	b087      	sub	sp, #28
 80069ce:	af00      	add	r7, sp, #0
 80069d0:	60f8      	str	r0, [r7, #12]
 80069d2:	60b9      	str	r1, [r7, #8]
 80069d4:	607a      	str	r2, [r7, #4]
  uint32_t tmpreg = 0U;
 80069d6:	2300      	movs	r3, #0
 80069d8:	617b      	str	r3, [r7, #20]
  assert_param(IS_RTC_FORMAT(Format));
  assert_param(IS_RTC_DAYLIGHT_SAVING(sTime->DayLightSaving));
  assert_param(IS_RTC_STORE_OPERATION(sTime->StoreOperation));

  /* Process Locked */
  __HAL_LOCK(hrtc);
 80069da:	68fb      	ldr	r3, [r7, #12]
 80069dc:	7f1b      	ldrb	r3, [r3, #28]
 80069de:	2b01      	cmp	r3, #1
 80069e0:	d101      	bne.n	80069e6 <HAL_RTC_SetTime+0x1c>
 80069e2:	2302      	movs	r3, #2
 80069e4:	e087      	b.n	8006af6 <HAL_RTC_SetTime+0x12c>
 80069e6:	68fb      	ldr	r3, [r7, #12]
 80069e8:	2201      	movs	r2, #1
 80069ea:	771a      	strb	r2, [r3, #28]

  hrtc->State = HAL_RTC_STATE_BUSY;
 80069ec:	68fb      	ldr	r3, [r7, #12]
 80069ee:	2202      	movs	r2, #2
 80069f0:	775a      	strb	r2, [r3, #29]

  if (Format == RTC_FORMAT_BIN)
 80069f2:	687b      	ldr	r3, [r7, #4]
 80069f4:	2b00      	cmp	r3, #0
 80069f6:	d126      	bne.n	8006a46 <HAL_RTC_SetTime+0x7c>
  {
    if ((hrtc->Instance->CR & RTC_CR_FMT) != 0U)
 80069f8:	68fb      	ldr	r3, [r7, #12]
 80069fa:	681b      	ldr	r3, [r3, #0]
 80069fc:	689b      	ldr	r3, [r3, #8]
 80069fe:	f003 0340 	and.w	r3, r3, #64	; 0x40
 8006a02:	2b00      	cmp	r3, #0
 8006a04:	d102      	bne.n	8006a0c <HAL_RTC_SetTime+0x42>
      assert_param(IS_RTC_HOUR12(sTime->Hours));
      assert_param(IS_RTC_HOURFORMAT12(sTime->TimeFormat));
    }
    else
    {
      sTime->TimeFormat = 0x00U;
 8006a06:	68bb      	ldr	r3, [r7, #8]
 8006a08:	2200      	movs	r2, #0
 8006a0a:	70da      	strb	r2, [r3, #3]
      assert_param(IS_RTC_HOUR24(sTime->Hours));
    }
    assert_param(IS_RTC_MINUTES(sTime->Minutes));
    assert_param(IS_RTC_SECONDS(sTime->Seconds));

    tmpreg = (uint32_t)(( (uint32_t)RTC_ByteToBcd2(sTime->Hours)   << RTC_TR_HU_Pos)  | \
 8006a0c:	68bb      	ldr	r3, [r7, #8]
 8006a0e:	781b      	ldrb	r3, [r3, #0]
 8006a10:	4618      	mov	r0, r3
 8006a12:	f000 fa27 	bl	8006e64 <RTC_ByteToBcd2>
 8006a16:	4603      	mov	r3, r0
 8006a18:	041c      	lsls	r4, r3, #16
                        ( (uint32_t)RTC_ByteToBcd2(sTime->Minutes) << RTC_TR_MNU_Pos) | \
 8006a1a:	68bb      	ldr	r3, [r7, #8]
 8006a1c:	785b      	ldrb	r3, [r3, #1]
 8006a1e:	4618      	mov	r0, r3
 8006a20:	f000 fa20 	bl	8006e64 <RTC_ByteToBcd2>
 8006a24:	4603      	mov	r3, r0
 8006a26:	021b      	lsls	r3, r3, #8
    tmpreg = (uint32_t)(( (uint32_t)RTC_ByteToBcd2(sTime->Hours)   << RTC_TR_HU_Pos)  | \
 8006a28:	431c      	orrs	r4, r3
                        ( (uint32_t)RTC_ByteToBcd2(sTime->Seconds))                   | \
 8006a2a:	68bb      	ldr	r3, [r7, #8]
 8006a2c:	789b      	ldrb	r3, [r3, #2]
 8006a2e:	4618      	mov	r0, r3
 8006a30:	f000 fa18 	bl	8006e64 <RTC_ByteToBcd2>
 8006a34:	4603      	mov	r3, r0
                        ( (uint32_t)RTC_ByteToBcd2(sTime->Minutes) << RTC_TR_MNU_Pos) | \
 8006a36:	ea44 0203 	orr.w	r2, r4, r3
                        (((uint32_t)sTime->TimeFormat)             << RTC_TR_PM_Pos));
 8006a3a:	68bb      	ldr	r3, [r7, #8]
 8006a3c:	78db      	ldrb	r3, [r3, #3]
 8006a3e:	059b      	lsls	r3, r3, #22
    tmpreg = (uint32_t)(( (uint32_t)RTC_ByteToBcd2(sTime->Hours)   << RTC_TR_HU_Pos)  | \
 8006a40:	4313      	orrs	r3, r2
 8006a42:	617b      	str	r3, [r7, #20]
 8006a44:	e018      	b.n	8006a78 <HAL_RTC_SetTime+0xae>
  }
  else
  {
    if ((hrtc->Instance->CR & RTC_CR_FMT) != 0U)
 8006a46:	68fb      	ldr	r3, [r7, #12]
 8006a48:	681b      	ldr	r3, [r3, #0]
 8006a4a:	689b      	ldr	r3, [r3, #8]
 8006a4c:	f003 0340 	and.w	r3, r3, #64	; 0x40
 8006a50:	2b00      	cmp	r3, #0
 8006a52:	d102      	bne.n	8006a5a <HAL_RTC_SetTime+0x90>
      assert_param(IS_RTC_HOUR12(RTC_Bcd2ToByte(sTime->Hours)));
      assert_param(IS_RTC_HOURFORMAT12(sTime->TimeFormat));
    }
    else
    {
      sTime->TimeFormat = 0x00U;
 8006a54:	68bb      	ldr	r3, [r7, #8]
 8006a56:	2200      	movs	r2, #0
 8006a58:	70da      	strb	r2, [r3, #3]
      assert_param(IS_RTC_HOUR24(RTC_Bcd2ToByte(sTime->Hours)));
    }
    assert_param(IS_RTC_MINUTES(RTC_Bcd2ToByte(sTime->Minutes)));
    assert_param(IS_RTC_SECONDS(RTC_Bcd2ToByte(sTime->Seconds)));
    tmpreg = (((uint32_t)(sTime->Hours)      << RTC_TR_HU_Pos)  | \
 8006a5a:	68bb      	ldr	r3, [r7, #8]
 8006a5c:	781b      	ldrb	r3, [r3, #0]
 8006a5e:	041a      	lsls	r2, r3, #16
              ((uint32_t)(sTime->Minutes)    << RTC_TR_MNU_Pos) | \
 8006a60:	68bb      	ldr	r3, [r7, #8]
 8006a62:	785b      	ldrb	r3, [r3, #1]
 8006a64:	021b      	lsls	r3, r3, #8
    tmpreg = (((uint32_t)(sTime->Hours)      << RTC_TR_HU_Pos)  | \
 8006a66:	4313      	orrs	r3, r2
              ((uint32_t) sTime->Seconds)                       | \
 8006a68:	68ba      	ldr	r2, [r7, #8]
 8006a6a:	7892      	ldrb	r2, [r2, #2]
              ((uint32_t)(sTime->Minutes)    << RTC_TR_MNU_Pos) | \
 8006a6c:	431a      	orrs	r2, r3
              ((uint32_t)(sTime->TimeFormat) << RTC_TR_PM_Pos));
 8006a6e:	68bb      	ldr	r3, [r7, #8]
 8006a70:	78db      	ldrb	r3, [r3, #3]
 8006a72:	059b      	lsls	r3, r3, #22
    tmpreg = (((uint32_t)(sTime->Hours)      << RTC_TR_HU_Pos)  | \
 8006a74:	4313      	orrs	r3, r2
 8006a76:	617b      	str	r3, [r7, #20]
  }

  /* Disable the write protection for RTC registers */
  __HAL_RTC_WRITEPROTECTION_DISABLE(hrtc);
 8006a78:	68fb      	ldr	r3, [r7, #12]
 8006a7a:	681b      	ldr	r3, [r3, #0]
 8006a7c:	22ca      	movs	r2, #202	; 0xca
 8006a7e:	625a      	str	r2, [r3, #36]	; 0x24
 8006a80:	68fb      	ldr	r3, [r7, #12]
 8006a82:	681b      	ldr	r3, [r3, #0]
 8006a84:	2253      	movs	r2, #83	; 0x53
 8006a86:	625a      	str	r2, [r3, #36]	; 0x24

  /* Enter Initialization mode */
  status = RTC_EnterInitMode(hrtc);
 8006a88:	68f8      	ldr	r0, [r7, #12]
 8006a8a:	f000 f98f 	bl	8006dac <RTC_EnterInitMode>
 8006a8e:	4603      	mov	r3, r0
 8006a90:	74fb      	strb	r3, [r7, #19]

  if (status == HAL_OK)
 8006a92:	7cfb      	ldrb	r3, [r7, #19]
 8006a94:	2b00      	cmp	r3, #0
 8006a96:	d120      	bne.n	8006ada <HAL_RTC_SetTime+0x110>
  {
    /* Set the RTC_TR register */
    hrtc->Instance->TR = (uint32_t)(tmpreg & RTC_TR_RESERVED_MASK);
 8006a98:	68fb      	ldr	r3, [r7, #12]
 8006a9a:	681a      	ldr	r2, [r3, #0]
 8006a9c:	697b      	ldr	r3, [r7, #20]
 8006a9e:	f003 337f 	and.w	r3, r3, #2139062143	; 0x7f7f7f7f
 8006aa2:	f023 43fe 	bic.w	r3, r3, #2130706432	; 0x7f000000
 8006aa6:	6013      	str	r3, [r2, #0]

    /* Clear the bits to be configured (Deprecated. Use HAL_RTC_DST_xxx functions instead) */
    hrtc->Instance->CR &= (uint32_t)~RTC_CR_BKP;
 8006aa8:	68fb      	ldr	r3, [r7, #12]
 8006aaa:	681b      	ldr	r3, [r3, #0]
 8006aac:	689a      	ldr	r2, [r3, #8]
 8006aae:	68fb      	ldr	r3, [r7, #12]
 8006ab0:	681b      	ldr	r3, [r3, #0]
 8006ab2:	f422 2280 	bic.w	r2, r2, #262144	; 0x40000
 8006ab6:	609a      	str	r2, [r3, #8]

    /* Configure the RTC_CR register (Deprecated. Use HAL_RTC_DST_xxx functions instead) */
    hrtc->Instance->CR |= (uint32_t)(sTime->DayLightSaving | sTime->StoreOperation);
 8006ab8:	68fb      	ldr	r3, [r7, #12]
 8006aba:	681b      	ldr	r3, [r3, #0]
 8006abc:	6899      	ldr	r1, [r3, #8]
 8006abe:	68bb      	ldr	r3, [r7, #8]
 8006ac0:	68da      	ldr	r2, [r3, #12]
 8006ac2:	68bb      	ldr	r3, [r7, #8]
 8006ac4:	691b      	ldr	r3, [r3, #16]
 8006ac6:	431a      	orrs	r2, r3
 8006ac8:	68fb      	ldr	r3, [r7, #12]
 8006aca:	681b      	ldr	r3, [r3, #0]
 8006acc:	430a      	orrs	r2, r1
 8006ace:	609a      	str	r2, [r3, #8]

    /* Exit Initialization mode */
    status = RTC_ExitInitMode(hrtc);
 8006ad0:	68f8      	ldr	r0, [r7, #12]
 8006ad2:	f000 f9a2 	bl	8006e1a <RTC_ExitInitMode>
 8006ad6:	4603      	mov	r3, r0
 8006ad8:	74fb      	strb	r3, [r7, #19]
  }

  if (status == HAL_OK)
 8006ada:	7cfb      	ldrb	r3, [r7, #19]
 8006adc:	2b00      	cmp	r3, #0
 8006ade:	d102      	bne.n	8006ae6 <HAL_RTC_SetTime+0x11c>
  {
    hrtc->State = HAL_RTC_STATE_READY;
 8006ae0:	68fb      	ldr	r3, [r7, #12]
 8006ae2:	2201      	movs	r2, #1
 8006ae4:	775a      	strb	r2, [r3, #29]
  }

  /* Enable the write protection for RTC registers */
  __HAL_RTC_WRITEPROTECTION_ENABLE(hrtc);
 8006ae6:	68fb      	ldr	r3, [r7, #12]
 8006ae8:	681b      	ldr	r3, [r3, #0]
 8006aea:	22ff      	movs	r2, #255	; 0xff
 8006aec:	625a      	str	r2, [r3, #36]	; 0x24

  /* Process Unlocked */
  __HAL_UNLOCK(hrtc);
 8006aee:	68fb      	ldr	r3, [r7, #12]
 8006af0:	2200      	movs	r2, #0
 8006af2:	771a      	strb	r2, [r3, #28]

  return status;
 8006af4:	7cfb      	ldrb	r3, [r7, #19]
}
 8006af6:	4618      	mov	r0, r3
 8006af8:	371c      	adds	r7, #28
 8006afa:	46bd      	mov	sp, r7
 8006afc:	bd90      	pop	{r4, r7, pc}

08006afe <HAL_RTC_GetTime>:
  *        until current date is read to ensure consistency between the time and
  *        date values.
  * @retval HAL status
  */
HAL_StatusTypeDef HAL_RTC_GetTime(RTC_HandleTypeDef *hrtc, RTC_TimeTypeDef *sTime, uint32_t Format)
{
 8006afe:	b580      	push	{r7, lr}
 8006b00:	b086      	sub	sp, #24
 8006b02:	af00      	add	r7, sp, #0
 8006b04:	60f8      	str	r0, [r7, #12]
 8006b06:	60b9      	str	r1, [r7, #8]
 8006b08:	607a      	str	r2, [r7, #4]
  uint32_t tmpreg = 0U;
 8006b0a:	2300      	movs	r3, #0
 8006b0c:	617b      	str	r3, [r7, #20]

  /* Check the parameters */
  assert_param(IS_RTC_FORMAT(Format));

  /* Get subseconds value from the corresponding register */
  sTime->SubSeconds = (uint32_t)(hrtc->Instance->SSR);
 8006b0e:	68fb      	ldr	r3, [r7, #12]
 8006b10:	681b      	ldr	r3, [r3, #0]
 8006b12:	6a9a      	ldr	r2, [r3, #40]	; 0x28
 8006b14:	68bb      	ldr	r3, [r7, #8]
 8006b16:	605a      	str	r2, [r3, #4]

  /* Get SecondFraction structure field from the corresponding register field*/
  sTime->SecondFraction = (uint32_t)(hrtc->Instance->PRER & RTC_PRER_PREDIV_S);
 8006b18:	68fb      	ldr	r3, [r7, #12]
 8006b1a:	681b      	ldr	r3, [r3, #0]
 8006b1c:	691b      	ldr	r3, [r3, #16]
 8006b1e:	f3c3 020e 	ubfx	r2, r3, #0, #15
 8006b22:	68bb      	ldr	r3, [r7, #8]
 8006b24:	609a      	str	r2, [r3, #8]

  /* Get the TR register */
  tmpreg = (uint32_t)(hrtc->Instance->TR & RTC_TR_RESERVED_MASK);
 8006b26:	68fb      	ldr	r3, [r7, #12]
 8006b28:	681b      	ldr	r3, [r3, #0]
 8006b2a:	681b      	ldr	r3, [r3, #0]
 8006b2c:	f003 337f 	and.w	r3, r3, #2139062143	; 0x7f7f7f7f
 8006b30:	f023 43fe 	bic.w	r3, r3, #2130706432	; 0x7f000000
 8006b34:	617b      	str	r3, [r7, #20]

  /* Fill the structure fields with the read parameters */
  sTime->Hours      = (uint8_t)((tmpreg & (RTC_TR_HT  | RTC_TR_HU))  >> RTC_TR_HU_Pos);
 8006b36:	697b      	ldr	r3, [r7, #20]
 8006b38:	0c1b      	lsrs	r3, r3, #16
 8006b3a:	b2db      	uxtb	r3, r3
 8006b3c:	f003 033f 	and.w	r3, r3, #63	; 0x3f
 8006b40:	b2da      	uxtb	r2, r3
 8006b42:	68bb      	ldr	r3, [r7, #8]
 8006b44:	701a      	strb	r2, [r3, #0]
  sTime->Minutes    = (uint8_t)((tmpreg & (RTC_TR_MNT | RTC_TR_MNU)) >> RTC_TR_MNU_Pos);
 8006b46:	697b      	ldr	r3, [r7, #20]
 8006b48:	0a1b      	lsrs	r3, r3, #8
 8006b4a:	b2db      	uxtb	r3, r3
 8006b4c:	f003 037f 	and.w	r3, r3, #127	; 0x7f
 8006b50:	b2da      	uxtb	r2, r3
 8006b52:	68bb      	ldr	r3, [r7, #8]
 8006b54:	705a      	strb	r2, [r3, #1]
  sTime->Seconds    = (uint8_t)( tmpreg & (RTC_TR_ST  | RTC_TR_SU));
 8006b56:	697b      	ldr	r3, [r7, #20]
 8006b58:	b2db      	uxtb	r3, r3
 8006b5a:	f003 037f 	and.w	r3, r3, #127	; 0x7f
 8006b5e:	b2da      	uxtb	r2, r3
 8006b60:	68bb      	ldr	r3, [r7, #8]
 8006b62:	709a      	strb	r2, [r3, #2]
  sTime->TimeFormat = (uint8_t)((tmpreg & (RTC_TR_PM))               >> RTC_TR_PM_Pos);
 8006b64:	697b      	ldr	r3, [r7, #20]
 8006b66:	0d9b      	lsrs	r3, r3, #22
 8006b68:	b2db      	uxtb	r3, r3
 8006b6a:	f003 0301 	and.w	r3, r3, #1
 8006b6e:	b2da      	uxtb	r2, r3
 8006b70:	68bb      	ldr	r3, [r7, #8]
 8006b72:	70da      	strb	r2, [r3, #3]

  /* Check the input parameters format */
  if (Format == RTC_FORMAT_BIN)
 8006b74:	687b      	ldr	r3, [r7, #4]
 8006b76:	2b00      	cmp	r3, #0
 8006b78:	d11a      	bne.n	8006bb0 <HAL_RTC_GetTime+0xb2>
  {
    /* Convert the time structure parameters to Binary format */
    sTime->Hours = (uint8_t)RTC_Bcd2ToByte(sTime->Hours);
 8006b7a:	68bb      	ldr	r3, [r7, #8]
 8006b7c:	781b      	ldrb	r3, [r3, #0]
 8006b7e:	4618      	mov	r0, r3
 8006b80:	f000 f98e 	bl	8006ea0 <RTC_Bcd2ToByte>
 8006b84:	4603      	mov	r3, r0
 8006b86:	461a      	mov	r2, r3
 8006b88:	68bb      	ldr	r3, [r7, #8]
 8006b8a:	701a      	strb	r2, [r3, #0]
    sTime->Minutes = (uint8_t)RTC_Bcd2ToByte(sTime->Minutes);
 8006b8c:	68bb      	ldr	r3, [r7, #8]
 8006b8e:	785b      	ldrb	r3, [r3, #1]
 8006b90:	4618      	mov	r0, r3
 8006b92:	f000 f985 	bl	8006ea0 <RTC_Bcd2ToByte>
 8006b96:	4603      	mov	r3, r0
 8006b98:	461a      	mov	r2, r3
 8006b9a:	68bb      	ldr	r3, [r7, #8]
 8006b9c:	705a      	strb	r2, [r3, #1]
    sTime->Seconds = (uint8_t)RTC_Bcd2ToByte(sTime->Seconds);
 8006b9e:	68bb      	ldr	r3, [r7, #8]
 8006ba0:	789b      	ldrb	r3, [r3, #2]
 8006ba2:	4618      	mov	r0, r3
 8006ba4:	f000 f97c 	bl	8006ea0 <RTC_Bcd2ToByte>
 8006ba8:	4603      	mov	r3, r0
 8006baa:	461a      	mov	r2, r3
 8006bac:	68bb      	ldr	r3, [r7, #8]
 8006bae:	709a      	strb	r2, [r3, #2]
  }

  return HAL_OK;
 8006bb0:	2300      	movs	r3, #0
}
 8006bb2:	4618      	mov	r0, r3
 8006bb4:	3718      	adds	r7, #24
 8006bb6:	46bd      	mov	sp, r7
 8006bb8:	bd80      	pop	{r7, pc}

08006bba <HAL_RTC_SetDate>:
  *            @arg RTC_FORMAT_BIN: Binary data format
  *            @arg RTC_FORMAT_BCD: BCD data format
  * @retval HAL status
  */
HAL_StatusTypeDef HAL_RTC_SetDate(RTC_HandleTypeDef *hrtc, RTC_DateTypeDef *sDate, uint32_t Format)
{
 8006bba:	b590      	push	{r4, r7, lr}
 8006bbc:	b087      	sub	sp, #28
 8006bbe:	af00      	add	r7, sp, #0
 8006bc0:	60f8      	str	r0, [r7, #12]
 8006bc2:	60b9      	str	r1, [r7, #8]
 8006bc4:	607a      	str	r2, [r7, #4]
  uint32_t datetmpreg = 0U;
 8006bc6:	2300      	movs	r3, #0
 8006bc8:	617b      	str	r3, [r7, #20]

  /* Check the parameters */
  assert_param(IS_RTC_FORMAT(Format));

  /* Process Locked */
  __HAL_LOCK(hrtc);
 8006bca:	68fb      	ldr	r3, [r7, #12]
 8006bcc:	7f1b      	ldrb	r3, [r3, #28]
 8006bce:	2b01      	cmp	r3, #1
 8006bd0:	d101      	bne.n	8006bd6 <HAL_RTC_SetDate+0x1c>
 8006bd2:	2302      	movs	r3, #2
 8006bd4:	e071      	b.n	8006cba <HAL_RTC_SetDate+0x100>
 8006bd6:	68fb      	ldr	r3, [r7, #12]
 8006bd8:	2201      	movs	r2, #1
 8006bda:	771a      	strb	r2, [r3, #28]

  hrtc->State = HAL_RTC_STATE_BUSY;
 8006bdc:	68fb      	ldr	r3, [r7, #12]
 8006bde:	2202      	movs	r2, #2
 8006be0:	775a      	strb	r2, [r3, #29]

  if ((Format == RTC_FORMAT_BIN) && ((sDate->Month & 0x10U) == 0x10U))
 8006be2:	687b      	ldr	r3, [r7, #4]
 8006be4:	2b00      	cmp	r3, #0
 8006be6:	d10e      	bne.n	8006c06 <HAL_RTC_SetDate+0x4c>
 8006be8:	68bb      	ldr	r3, [r7, #8]
 8006bea:	785b      	ldrb	r3, [r3, #1]
 8006bec:	f003 0310 	and.w	r3, r3, #16
 8006bf0:	2b00      	cmp	r3, #0
 8006bf2:	d008      	beq.n	8006c06 <HAL_RTC_SetDate+0x4c>
  {
    sDate->Month = (uint8_t)((sDate->Month & (uint8_t)~(0x10U)) + (uint8_t)0x0AU);
 8006bf4:	68bb      	ldr	r3, [r7, #8]
 8006bf6:	785b      	ldrb	r3, [r3, #1]
 8006bf8:	f023 0310 	bic.w	r3, r3, #16
 8006bfc:	b2db      	uxtb	r3, r3
 8006bfe:	330a      	adds	r3, #10
 8006c00:	b2da      	uxtb	r2, r3
 8006c02:	68bb      	ldr	r3, [r7, #8]
 8006c04:	705a      	strb	r2, [r3, #1]
  }

  assert_param(IS_RTC_WEEKDAY(sDate->WeekDay));

  if (Format == RTC_FORMAT_BIN)
 8006c06:	687b      	ldr	r3, [r7, #4]
 8006c08:	2b00      	cmp	r3, #0
 8006c0a:	d11c      	bne.n	8006c46 <HAL_RTC_SetDate+0x8c>
  {
    assert_param(IS_RTC_YEAR(sDate->Year));
    assert_param(IS_RTC_MONTH(sDate->Month));
    assert_param(IS_RTC_DATE(sDate->Date));

    datetmpreg = (((uint32_t)RTC_ByteToBcd2(sDate->Year)  << RTC_DR_YU_Pos) | \
 8006c0c:	68bb      	ldr	r3, [r7, #8]
 8006c0e:	78db      	ldrb	r3, [r3, #3]
 8006c10:	4618      	mov	r0, r3
 8006c12:	f000 f927 	bl	8006e64 <RTC_ByteToBcd2>
 8006c16:	4603      	mov	r3, r0
 8006c18:	041c      	lsls	r4, r3, #16
                  ((uint32_t)RTC_ByteToBcd2(sDate->Month) << RTC_DR_MU_Pos) | \
 8006c1a:	68bb      	ldr	r3, [r7, #8]
 8006c1c:	785b      	ldrb	r3, [r3, #1]
 8006c1e:	4618      	mov	r0, r3
 8006c20:	f000 f920 	bl	8006e64 <RTC_ByteToBcd2>
 8006c24:	4603      	mov	r3, r0
 8006c26:	021b      	lsls	r3, r3, #8
    datetmpreg = (((uint32_t)RTC_ByteToBcd2(sDate->Year)  << RTC_DR_YU_Pos) | \
 8006c28:	431c      	orrs	r4, r3
                  ((uint32_t)RTC_ByteToBcd2(sDate->Date))                   | \
 8006c2a:	68bb      	ldr	r3, [r7, #8]
 8006c2c:	789b      	ldrb	r3, [r3, #2]
 8006c2e:	4618      	mov	r0, r3
 8006c30:	f000 f918 	bl	8006e64 <RTC_ByteToBcd2>
 8006c34:	4603      	mov	r3, r0
                  ((uint32_t)RTC_ByteToBcd2(sDate->Month) << RTC_DR_MU_Pos) | \
 8006c36:	ea44 0203 	orr.w	r2, r4, r3
                  ((uint32_t)sDate->WeekDay               << RTC_DR_WDU_Pos));
 8006c3a:	68bb      	ldr	r3, [r7, #8]
 8006c3c:	781b      	ldrb	r3, [r3, #0]
 8006c3e:	035b      	lsls	r3, r3, #13
    datetmpreg = (((uint32_t)RTC_ByteToBcd2(sDate->Year)  << RTC_DR_YU_Pos) | \
 8006c40:	4313      	orrs	r3, r2
 8006c42:	617b      	str	r3, [r7, #20]
 8006c44:	e00e      	b.n	8006c64 <HAL_RTC_SetDate+0xaa>
  {
    assert_param(IS_RTC_YEAR(RTC_Bcd2ToByte(sDate->Year)));
    assert_param(IS_RTC_MONTH(RTC_Bcd2ToByte(sDate->Month)));
    assert_param(IS_RTC_DATE(RTC_Bcd2ToByte(sDate->Date)));

    datetmpreg = ((((uint32_t)sDate->Year)    << RTC_DR_YU_Pos) | \
 8006c46:	68bb      	ldr	r3, [r7, #8]
 8006c48:	78db      	ldrb	r3, [r3, #3]
 8006c4a:	041a      	lsls	r2, r3, #16
                  (((uint32_t)sDate->Month)   << RTC_DR_MU_Pos) | \
 8006c4c:	68bb      	ldr	r3, [r7, #8]
 8006c4e:	785b      	ldrb	r3, [r3, #1]
 8006c50:	021b      	lsls	r3, r3, #8
    datetmpreg = ((((uint32_t)sDate->Year)    << RTC_DR_YU_Pos) | \
 8006c52:	4313      	orrs	r3, r2
                  ((uint32_t) sDate->Date)                      | \
 8006c54:	68ba      	ldr	r2, [r7, #8]
 8006c56:	7892      	ldrb	r2, [r2, #2]
                  (((uint32_t)sDate->Month)   << RTC_DR_MU_Pos) | \
 8006c58:	431a      	orrs	r2, r3
                  (((uint32_t)sDate->WeekDay) << RTC_DR_WDU_Pos));
 8006c5a:	68bb      	ldr	r3, [r7, #8]
 8006c5c:	781b      	ldrb	r3, [r3, #0]
 8006c5e:	035b      	lsls	r3, r3, #13
    datetmpreg = ((((uint32_t)sDate->Year)    << RTC_DR_YU_Pos) | \
 8006c60:	4313      	orrs	r3, r2
 8006c62:	617b      	str	r3, [r7, #20]
  }

  /* Disable the write protection for RTC registers */
  __HAL_RTC_WRITEPROTECTION_DISABLE(hrtc);
 8006c64:	68fb      	ldr	r3, [r7, #12]
 8006c66:	681b      	ldr	r3, [r3, #0]
 8006c68:	22ca      	movs	r2, #202	; 0xca
 8006c6a:	625a      	str	r2, [r3, #36]	; 0x24
 8006c6c:	68fb      	ldr	r3, [r7, #12]
 8006c6e:	681b      	ldr	r3, [r3, #0]
 8006c70:	2253      	movs	r2, #83	; 0x53
 8006c72:	625a      	str	r2, [r3, #36]	; 0x24

  /* Enter Initialization mode */
  status = RTC_EnterInitMode(hrtc);
 8006c74:	68f8      	ldr	r0, [r7, #12]
 8006c76:	f000 f899 	bl	8006dac <RTC_EnterInitMode>
 8006c7a:	4603      	mov	r3, r0
 8006c7c:	74fb      	strb	r3, [r7, #19]

  if (status == HAL_OK)
 8006c7e:	7cfb      	ldrb	r3, [r7, #19]
 8006c80:	2b00      	cmp	r3, #0
 8006c82:	d10c      	bne.n	8006c9e <HAL_RTC_SetDate+0xe4>
  {
    /* Set the RTC_DR register */
    hrtc->Instance->DR = (uint32_t)(datetmpreg & RTC_DR_RESERVED_MASK);
 8006c84:	68fb      	ldr	r3, [r7, #12]
 8006c86:	681a      	ldr	r2, [r3, #0]
 8006c88:	697b      	ldr	r3, [r7, #20]
 8006c8a:	f023 437f 	bic.w	r3, r3, #4278190080	; 0xff000000
 8006c8e:	f023 03c0 	bic.w	r3, r3, #192	; 0xc0
 8006c92:	6053      	str	r3, [r2, #4]

    /* Exit Initialization mode */
    status = RTC_ExitInitMode(hrtc);
 8006c94:	68f8      	ldr	r0, [r7, #12]
 8006c96:	f000 f8c0 	bl	8006e1a <RTC_ExitInitMode>
 8006c9a:	4603      	mov	r3, r0
 8006c9c:	74fb      	strb	r3, [r7, #19]
  }

  if (status == HAL_OK)
 8006c9e:	7cfb      	ldrb	r3, [r7, #19]
 8006ca0:	2b00      	cmp	r3, #0
 8006ca2:	d102      	bne.n	8006caa <HAL_RTC_SetDate+0xf0>
  {
    hrtc->State = HAL_RTC_STATE_READY;
 8006ca4:	68fb      	ldr	r3, [r7, #12]
 8006ca6:	2201      	movs	r2, #1
 8006ca8:	775a      	strb	r2, [r3, #29]
  }

  /* Enable the write protection for RTC registers */
  __HAL_RTC_WRITEPROTECTION_ENABLE(hrtc);
 8006caa:	68fb      	ldr	r3, [r7, #12]
 8006cac:	681b      	ldr	r3, [r3, #0]
 8006cae:	22ff      	movs	r2, #255	; 0xff
 8006cb0:	625a      	str	r2, [r3, #36]	; 0x24

  /* Process Unlocked */
  __HAL_UNLOCK(hrtc);
 8006cb2:	68fb      	ldr	r3, [r7, #12]
 8006cb4:	2200      	movs	r2, #0
 8006cb6:	771a      	strb	r2, [r3, #28]

  return status;
 8006cb8:	7cfb      	ldrb	r3, [r7, #19]
}
 8006cba:	4618      	mov	r0, r3
 8006cbc:	371c      	adds	r7, #28
 8006cbe:	46bd      	mov	sp, r7
 8006cc0:	bd90      	pop	{r4, r7, pc}

08006cc2 <HAL_RTC_GetDate>:
  *        until current date is read to ensure consistency between the time and
  *        date values.
  * @retval HAL status
  */
HAL_StatusTypeDef HAL_RTC_GetDate(RTC_HandleTypeDef *hrtc, RTC_DateTypeDef *sDate, uint32_t Format)
{
 8006cc2:	b580      	push	{r7, lr}
 8006cc4:	b086      	sub	sp, #24
 8006cc6:	af00      	add	r7, sp, #0
 8006cc8:	60f8      	str	r0, [r7, #12]
 8006cca:	60b9      	str	r1, [r7, #8]
 8006ccc:	607a      	str	r2, [r7, #4]
  uint32_t datetmpreg = 0U;
 8006cce:	2300      	movs	r3, #0
 8006cd0:	617b      	str	r3, [r7, #20]

  /* Check the parameters */
  assert_param(IS_RTC_FORMAT(Format));

  /* Get the DR register */
  datetmpreg = (uint32_t)(hrtc->Instance->DR & RTC_DR_RESERVED_MASK);
 8006cd2:	68fb      	ldr	r3, [r7, #12]
 8006cd4:	681b      	ldr	r3, [r3, #0]
 8006cd6:	685b      	ldr	r3, [r3, #4]
 8006cd8:	f023 437f 	bic.w	r3, r3, #4278190080	; 0xff000000
 8006cdc:	f023 03c0 	bic.w	r3, r3, #192	; 0xc0
 8006ce0:	617b      	str	r3, [r7, #20]

  /* Fill the structure fields with the read parameters */
  sDate->Year    = (uint8_t)((datetmpreg & (RTC_DR_YT | RTC_DR_YU)) >> RTC_DR_YU_Pos);
 8006ce2:	697b      	ldr	r3, [r7, #20]
 8006ce4:	0c1b      	lsrs	r3, r3, #16
 8006ce6:	b2da      	uxtb	r2, r3
 8006ce8:	68bb      	ldr	r3, [r7, #8]
 8006cea:	70da      	strb	r2, [r3, #3]
  sDate->Month   = (uint8_t)((datetmpreg & (RTC_DR_MT | RTC_DR_MU)) >> RTC_DR_MU_Pos);
 8006cec:	697b      	ldr	r3, [r7, #20]
 8006cee:	0a1b      	lsrs	r3, r3, #8
 8006cf0:	b2db      	uxtb	r3, r3
 8006cf2:	f003 031f 	and.w	r3, r3, #31
 8006cf6:	b2da      	uxtb	r2, r3
 8006cf8:	68bb      	ldr	r3, [r7, #8]
 8006cfa:	705a      	strb	r2, [r3, #1]
  sDate->Date    = (uint8_t) (datetmpreg & (RTC_DR_DT | RTC_DR_DU));
 8006cfc:	697b      	ldr	r3, [r7, #20]
 8006cfe:	b2db      	uxtb	r3, r3
 8006d00:	f003 033f 	and.w	r3, r3, #63	; 0x3f
 8006d04:	b2da      	uxtb	r2, r3
 8006d06:	68bb      	ldr	r3, [r7, #8]
 8006d08:	709a      	strb	r2, [r3, #2]
  sDate->WeekDay = (uint8_t)((datetmpreg & (RTC_DR_WDU))            >> RTC_DR_WDU_Pos);
 8006d0a:	697b      	ldr	r3, [r7, #20]
 8006d0c:	0b5b      	lsrs	r3, r3, #13
 8006d0e:	b2db      	uxtb	r3, r3
 8006d10:	f003 0307 	and.w	r3, r3, #7
 8006d14:	b2da      	uxtb	r2, r3
 8006d16:	68bb      	ldr	r3, [r7, #8]
 8006d18:	701a      	strb	r2, [r3, #0]

  /* Check the input parameters format */
  if (Format == RTC_FORMAT_BIN)
 8006d1a:	687b      	ldr	r3, [r7, #4]
 8006d1c:	2b00      	cmp	r3, #0
 8006d1e:	d11a      	bne.n	8006d56 <HAL_RTC_GetDate+0x94>
  {
    /* Convert the date structure parameters to Binary format */
    sDate->Year  = (uint8_t)RTC_Bcd2ToByte(sDate->Year);
 8006d20:	68bb      	ldr	r3, [r7, #8]
 8006d22:	78db      	ldrb	r3, [r3, #3]
 8006d24:	4618      	mov	r0, r3
 8006d26:	f000 f8bb 	bl	8006ea0 <RTC_Bcd2ToByte>
 8006d2a:	4603      	mov	r3, r0
 8006d2c:	461a      	mov	r2, r3
 8006d2e:	68bb      	ldr	r3, [r7, #8]
 8006d30:	70da      	strb	r2, [r3, #3]
    sDate->Month = (uint8_t)RTC_Bcd2ToByte(sDate->Month);
 8006d32:	68bb      	ldr	r3, [r7, #8]
 8006d34:	785b      	ldrb	r3, [r3, #1]
 8006d36:	4618      	mov	r0, r3
 8006d38:	f000 f8b2 	bl	8006ea0 <RTC_Bcd2ToByte>
 8006d3c:	4603      	mov	r3, r0
 8006d3e:	461a      	mov	r2, r3
 8006d40:	68bb      	ldr	r3, [r7, #8]
 8006d42:	705a      	strb	r2, [r3, #1]
    sDate->Date  = (uint8_t)RTC_Bcd2ToByte(sDate->Date);
 8006d44:	68bb      	ldr	r3, [r7, #8]
 8006d46:	789b      	ldrb	r3, [r3, #2]
 8006d48:	4618      	mov	r0, r3
 8006d4a:	f000 f8a9 	bl	8006ea0 <RTC_Bcd2ToByte>
 8006d4e:	4603      	mov	r3, r0
 8006d50:	461a      	mov	r2, r3
 8006d52:	68bb      	ldr	r3, [r7, #8]
 8006d54:	709a      	strb	r2, [r3, #2]
  }
  return HAL_OK;
 8006d56:	2300      	movs	r3, #0
}
 8006d58:	4618      	mov	r0, r3
 8006d5a:	3718      	adds	r7, #24
 8006d5c:	46bd      	mov	sp, r7
 8006d5e:	bd80      	pop	{r7, pc}

08006d60 <HAL_RTC_WaitForSynchro>:
  * @param  hrtc pointer to a RTC_HandleTypeDef structure that contains
  *                the configuration information for RTC.
  * @retval HAL status
  */
HAL_StatusTypeDef HAL_RTC_WaitForSynchro(RTC_HandleTypeDef *hrtc)
{
 8006d60:	b580      	push	{r7, lr}
 8006d62:	b084      	sub	sp, #16
 8006d64:	af00      	add	r7, sp, #0
 8006d66:	6078      	str	r0, [r7, #4]
  uint32_t tickstart = 0U;
 8006d68:	2300      	movs	r3, #0
 8006d6a:	60fb      	str	r3, [r7, #12]

  /* Clear RSF flag, keep reserved bits at reset values (setting other flags has no effect) */
  hrtc->Instance->ISR = ((uint32_t)(RTC_RSF_MASK & RTC_ISR_RESERVED_MASK));
 8006d6c:	687b      	ldr	r3, [r7, #4]
 8006d6e:	681b      	ldr	r3, [r3, #0]
 8006d70:	4a0d      	ldr	r2, [pc, #52]	; (8006da8 <HAL_RTC_WaitForSynchro+0x48>)
 8006d72:	60da      	str	r2, [r3, #12]

  /* Get tick */
  tickstart = HAL_GetTick();
 8006d74:	f7fc f934 	bl	8002fe0 <HAL_GetTick>
 8006d78:	60f8      	str	r0, [r7, #12]

  /* Wait the registers to be synchronised */
  while ((hrtc->Instance->ISR & RTC_ISR_RSF) == 0U)
 8006d7a:	e009      	b.n	8006d90 <HAL_RTC_WaitForSynchro+0x30>
  {
    if ((HAL_GetTick() - tickstart) > RTC_TIMEOUT_VALUE)
 8006d7c:	f7fc f930 	bl	8002fe0 <HAL_GetTick>
 8006d80:	4602      	mov	r2, r0
 8006d82:	68fb      	ldr	r3, [r7, #12]
 8006d84:	1ad3      	subs	r3, r2, r3
 8006d86:	f5b3 7f7a 	cmp.w	r3, #1000	; 0x3e8
 8006d8a:	d901      	bls.n	8006d90 <HAL_RTC_WaitForSynchro+0x30>
    {
      return HAL_TIMEOUT;
 8006d8c:	2303      	movs	r3, #3
 8006d8e:	e007      	b.n	8006da0 <HAL_RTC_WaitForSynchro+0x40>
  while ((hrtc->Instance->ISR & RTC_ISR_RSF) == 0U)
 8006d90:	687b      	ldr	r3, [r7, #4]
 8006d92:	681b      	ldr	r3, [r3, #0]
 8006d94:	68db      	ldr	r3, [r3, #12]
 8006d96:	f003 0320 	and.w	r3, r3, #32
 8006d9a:	2b00      	cmp	r3, #0
 8006d9c:	d0ee      	beq.n	8006d7c <HAL_RTC_WaitForSynchro+0x1c>
    }
  }

  return HAL_OK;
 8006d9e:	2300      	movs	r3, #0
}
 8006da0:	4618      	mov	r0, r3
 8006da2:	3710      	adds	r7, #16
 8006da4:	46bd      	mov	sp, r7
 8006da6:	bd80      	pop	{r7, pc}
 8006da8:	00017f5f 	.word	0x00017f5f

08006dac <RTC_EnterInitMode>:
  * @param  hrtc pointer to a RTC_HandleTypeDef structure that contains
  *                the configuration information for RTC.
  * @retval HAL status
  */
HAL_StatusTypeDef RTC_EnterInitMode(RTC_HandleTypeDef *hrtc)
{
 8006dac:	b580      	push	{r7, lr}
 8006dae:	b084      	sub	sp, #16
 8006db0:	af00      	add	r7, sp, #0
 8006db2:	6078      	str	r0, [r7, #4]
  uint32_t tickstart = 0U;
 8006db4:	2300      	movs	r3, #0
 8006db6:	60bb      	str	r3, [r7, #8]
  HAL_StatusTypeDef status = HAL_OK;
 8006db8:	2300      	movs	r3, #0
 8006dba:	73fb      	strb	r3, [r7, #15]

  /* Check that Initialization mode is not already set */
  if (READ_BIT(hrtc->Instance->ISR, RTC_ISR_INITF) == 0U)
 8006dbc:	687b      	ldr	r3, [r7, #4]
 8006dbe:	681b      	ldr	r3, [r3, #0]
 8006dc0:	68db      	ldr	r3, [r3, #12]
 8006dc2:	f003 0340 	and.w	r3, r3, #64	; 0x40
 8006dc6:	2b00      	cmp	r3, #0
 8006dc8:	d122      	bne.n	8006e10 <RTC_EnterInitMode+0x64>
  {
    /* Set INIT bit to enter Initialization mode */
    SET_BIT(hrtc->Instance->ISR, RTC_ISR_INIT);
 8006dca:	687b      	ldr	r3, [r7, #4]
 8006dcc:	681b      	ldr	r3, [r3, #0]
 8006dce:	68da      	ldr	r2, [r3, #12]
 8006dd0:	687b      	ldr	r3, [r7, #4]
 8006dd2:	681b      	ldr	r3, [r3, #0]
 8006dd4:	f042 0280 	orr.w	r2, r2, #128	; 0x80
 8006dd8:	60da      	str	r2, [r3, #12]

    /* Get tick */
    tickstart = HAL_GetTick();
 8006dda:	f7fc f901 	bl	8002fe0 <HAL_GetTick>
 8006dde:	60b8      	str	r0, [r7, #8]

    /* Wait till RTC is in INIT state and if timeout is reached exit */
    while ((READ_BIT(hrtc->Instance->ISR, RTC_ISR_INITF) == 0U) && (status != HAL_ERROR))
 8006de0:	e00c      	b.n	8006dfc <RTC_EnterInitMode+0x50>
    {
      if ((HAL_GetTick() - tickstart) > RTC_TIMEOUT_VALUE)
 8006de2:	f7fc f8fd 	bl	8002fe0 <HAL_GetTick>
 8006de6:	4602      	mov	r2, r0
 8006de8:	68bb      	ldr	r3, [r7, #8]
 8006dea:	1ad3      	subs	r3, r2, r3
 8006dec:	f5b3 7f7a 	cmp.w	r3, #1000	; 0x3e8
 8006df0:	d904      	bls.n	8006dfc <RTC_EnterInitMode+0x50>
      {
        /* Set RTC state */
        hrtc->State = HAL_RTC_STATE_ERROR;
 8006df2:	687b      	ldr	r3, [r7, #4]
 8006df4:	2204      	movs	r2, #4
 8006df6:	775a      	strb	r2, [r3, #29]
        status = HAL_ERROR;
 8006df8:	2301      	movs	r3, #1
 8006dfa:	73fb      	strb	r3, [r7, #15]
    while ((READ_BIT(hrtc->Instance->ISR, RTC_ISR_INITF) == 0U) && (status != HAL_ERROR))
 8006dfc:	687b      	ldr	r3, [r7, #4]
 8006dfe:	681b      	ldr	r3, [r3, #0]
 8006e00:	68db      	ldr	r3, [r3, #12]
 8006e02:	f003 0340 	and.w	r3, r3, #64	; 0x40
 8006e06:	2b00      	cmp	r3, #0
 8006e08:	d102      	bne.n	8006e10 <RTC_EnterInitMode+0x64>
 8006e0a:	7bfb      	ldrb	r3, [r7, #15]
 8006e0c:	2b01      	cmp	r3, #1
 8006e0e:	d1e8      	bne.n	8006de2 <RTC_EnterInitMode+0x36>
      }
    }
  }

  return status;
 8006e10:	7bfb      	ldrb	r3, [r7, #15]
}
 8006e12:	4618      	mov	r0, r3
 8006e14:	3710      	adds	r7, #16
 8006e16:	46bd      	mov	sp, r7
 8006e18:	bd80      	pop	{r7, pc}

08006e1a <RTC_ExitInitMode>:
  * @param  hrtc pointer to a RTC_HandleTypeDef structure that contains
  *                the configuration information for RTC.
  * @retval HAL status
  */
HAL_StatusTypeDef RTC_ExitInitMode(RTC_HandleTypeDef *hrtc)
{
 8006e1a:	b580      	push	{r7, lr}
 8006e1c:	b084      	sub	sp, #16
 8006e1e:	af00      	add	r7, sp, #0
 8006e20:	6078      	str	r0, [r7, #4]
  HAL_StatusTypeDef status = HAL_OK;
 8006e22:	2300      	movs	r3, #0
 8006e24:	73fb      	strb	r3, [r7, #15]

  /* Clear INIT bit to exit Initialization mode */
  CLEAR_BIT(hrtc->Instance->ISR, RTC_ISR_INIT);
 8006e26:	687b      	ldr	r3, [r7, #4]
 8006e28:	681b      	ldr	r3, [r3, #0]
 8006e2a:	68da      	ldr	r2, [r3, #12]
 8006e2c:	687b      	ldr	r3, [r7, #4]
 8006e2e:	681b      	ldr	r3, [r3, #0]
 8006e30:	f022 0280 	bic.w	r2, r2, #128	; 0x80
 8006e34:	60da      	str	r2, [r3, #12]

  /* If CR_BYPSHAD bit = 0, wait for synchro */
  if (READ_BIT(hrtc->Instance->CR, RTC_CR_BYPSHAD) == 0U)
 8006e36:	687b      	ldr	r3, [r7, #4]
 8006e38:	681b      	ldr	r3, [r3, #0]
 8006e3a:	689b      	ldr	r3, [r3, #8]
 8006e3c:	f003 0320 	and.w	r3, r3, #32
 8006e40:	2b00      	cmp	r3, #0
 8006e42:	d10a      	bne.n	8006e5a <RTC_ExitInitMode+0x40>
  {
    if (HAL_RTC_WaitForSynchro(hrtc) != HAL_OK)
 8006e44:	6878      	ldr	r0, [r7, #4]
 8006e46:	f7ff ff8b 	bl	8006d60 <HAL_RTC_WaitForSynchro>
 8006e4a:	4603      	mov	r3, r0
 8006e4c:	2b00      	cmp	r3, #0
 8006e4e:	d004      	beq.n	8006e5a <RTC_ExitInitMode+0x40>
    {
      /* Set RTC state */
      hrtc->State = HAL_RTC_STATE_ERROR;
 8006e50:	687b      	ldr	r3, [r7, #4]
 8006e52:	2204      	movs	r2, #4
 8006e54:	775a      	strb	r2, [r3, #29]
      status = HAL_ERROR;
 8006e56:	2301      	movs	r3, #1
 8006e58:	73fb      	strb	r3, [r7, #15]
    }
  }

  return status;
 8006e5a:	7bfb      	ldrb	r3, [r7, #15]
}
 8006e5c:	4618      	mov	r0, r3
 8006e5e:	3710      	adds	r7, #16
 8006e60:	46bd      	mov	sp, r7
 8006e62:	bd80      	pop	{r7, pc}

08006e64 <RTC_ByteToBcd2>:
  * @brief  Converts a 2-digit number from decimal to BCD format.
  * @param  number decimal-formatted number (from 0 to 99) to be converted
  * @retval Converted byte
  */
uint8_t RTC_ByteToBcd2(uint8_t number)
{
 8006e64:	b480      	push	{r7}
 8006e66:	b085      	sub	sp, #20
 8006e68:	af00      	add	r7, sp, #0
 8006e6a:	4603      	mov	r3, r0
 8006e6c:	71fb      	strb	r3, [r7, #7]
  uint32_t bcdhigh = 0U;
 8006e6e:	2300      	movs	r3, #0
 8006e70:	60fb      	str	r3, [r7, #12]

  while (number >= 10U)
 8006e72:	e005      	b.n	8006e80 <RTC_ByteToBcd2+0x1c>
  {
    bcdhigh++;
 8006e74:	68fb      	ldr	r3, [r7, #12]
 8006e76:	3301      	adds	r3, #1
 8006e78:	60fb      	str	r3, [r7, #12]
    number -= 10U;
 8006e7a:	79fb      	ldrb	r3, [r7, #7]
 8006e7c:	3b0a      	subs	r3, #10
 8006e7e:	71fb      	strb	r3, [r7, #7]
  while (number >= 10U)
 8006e80:	79fb      	ldrb	r3, [r7, #7]
 8006e82:	2b09      	cmp	r3, #9
 8006e84:	d8f6      	bhi.n	8006e74 <RTC_ByteToBcd2+0x10>
  }

  return ((uint8_t)(bcdhigh << 4U) | number);
 8006e86:	68fb      	ldr	r3, [r7, #12]
 8006e88:	b2db      	uxtb	r3, r3
 8006e8a:	011b      	lsls	r3, r3, #4
 8006e8c:	b2da      	uxtb	r2, r3
 8006e8e:	79fb      	ldrb	r3, [r7, #7]
 8006e90:	4313      	orrs	r3, r2
 8006e92:	b2db      	uxtb	r3, r3
}
 8006e94:	4618      	mov	r0, r3
 8006e96:	3714      	adds	r7, #20
 8006e98:	46bd      	mov	sp, r7
 8006e9a:	f85d 7b04 	ldr.w	r7, [sp], #4
 8006e9e:	4770      	bx	lr

08006ea0 <RTC_Bcd2ToByte>:
  * @brief  Converts a 2-digit number from BCD to decimal format.
  * @param  number BCD-formatted number (from 00 to 99) to be converted
  * @retval Converted word
  */
uint8_t RTC_Bcd2ToByte(uint8_t number)
{
 8006ea0:	b480      	push	{r7}
 8006ea2:	b085      	sub	sp, #20
 8006ea4:	af00      	add	r7, sp, #0
 8006ea6:	4603      	mov	r3, r0
 8006ea8:	71fb      	strb	r3, [r7, #7]
  uint32_t tens = 0U;
 8006eaa:	2300      	movs	r3, #0
 8006eac:	60fb      	str	r3, [r7, #12]
  tens = (((uint32_t)number & 0xF0U) >> 4U) * 10U;
 8006eae:	79fb      	ldrb	r3, [r7, #7]
 8006eb0:	091b      	lsrs	r3, r3, #4
 8006eb2:	b2db      	uxtb	r3, r3
 8006eb4:	461a      	mov	r2, r3
 8006eb6:	4613      	mov	r3, r2
 8006eb8:	009b      	lsls	r3, r3, #2
 8006eba:	4413      	add	r3, r2
 8006ebc:	005b      	lsls	r3, r3, #1
 8006ebe:	60fb      	str	r3, [r7, #12]
  return (uint8_t)(tens + ((uint32_t)number & 0x0FU));
 8006ec0:	68fb      	ldr	r3, [r7, #12]
 8006ec2:	b2da      	uxtb	r2, r3
 8006ec4:	79fb      	ldrb	r3, [r7, #7]
 8006ec6:	f003 030f 	and.w	r3, r3, #15
 8006eca:	b2db      	uxtb	r3, r3
 8006ecc:	4413      	add	r3, r2
 8006ece:	b2db      	uxtb	r3, r3
}
 8006ed0:	4618      	mov	r0, r3
 8006ed2:	3714      	adds	r7, #20
 8006ed4:	46bd      	mov	sp, r7
 8006ed6:	f85d 7b04 	ldr.w	r7, [sp], #4
 8006eda:	4770      	bx	lr

08006edc <HAL_SPI_Init>:
  * @param  hspi pointer to a SPI_HandleTypeDef structure that contains
  *               the configuration information for SPI module.
  * @retval HAL status
  */
HAL_StatusTypeDef HAL_SPI_Init(SPI_HandleTypeDef *hspi)
{
 8006edc:	b580      	push	{r7, lr}
 8006ede:	b082      	sub	sp, #8
 8006ee0:	af00      	add	r7, sp, #0
 8006ee2:	6078      	str	r0, [r7, #4]
  /* Check the SPI handle allocation */
  if (hspi == NULL)
 8006ee4:	687b      	ldr	r3, [r7, #4]
 8006ee6:	2b00      	cmp	r3, #0
 8006ee8:	d101      	bne.n	8006eee <HAL_SPI_Init+0x12>
  {
    return HAL_ERROR;
 8006eea:	2301      	movs	r3, #1
 8006eec:	e07b      	b.n	8006fe6 <HAL_SPI_Init+0x10a>
  assert_param(IS_SPI_DATASIZE(hspi->Init.DataSize));
  assert_param(IS_SPI_NSS(hspi->Init.NSS));
  assert_param(IS_SPI_BAUDRATE_PRESCALER(hspi->Init.BaudRatePrescaler));
  assert_param(IS_SPI_FIRST_BIT(hspi->Init.FirstBit));
  assert_param(IS_SPI_TIMODE(hspi->Init.TIMode));
  if (hspi->Init.TIMode == SPI_TIMODE_DISABLE)
 8006eee:	687b      	ldr	r3, [r7, #4]
 8006ef0:	6a5b      	ldr	r3, [r3, #36]	; 0x24
 8006ef2:	2b00      	cmp	r3, #0
 8006ef4:	d108      	bne.n	8006f08 <HAL_SPI_Init+0x2c>
  {
    assert_param(IS_SPI_CPOL(hspi->Init.CLKPolarity));
    assert_param(IS_SPI_CPHA(hspi->Init.CLKPhase));

    if (hspi->Init.Mode == SPI_MODE_MASTER)
 8006ef6:	687b      	ldr	r3, [r7, #4]
 8006ef8:	685b      	ldr	r3, [r3, #4]
 8006efa:	f5b3 7f82 	cmp.w	r3, #260	; 0x104
 8006efe:	d009      	beq.n	8006f14 <HAL_SPI_Init+0x38>
      assert_param(IS_SPI_BAUDRATE_PRESCALER(hspi->Init.BaudRatePrescaler));
    }
    else
    {
      /* Baudrate prescaler not use in Motoraola Slave mode. force to default value */
      hspi->Init.BaudRatePrescaler = SPI_BAUDRATEPRESCALER_2;
 8006f00:	687b      	ldr	r3, [r7, #4]
 8006f02:	2200      	movs	r2, #0
 8006f04:	61da      	str	r2, [r3, #28]
 8006f06:	e005      	b.n	8006f14 <HAL_SPI_Init+0x38>
  else
  {
    assert_param(IS_SPI_BAUDRATE_PRESCALER(hspi->Init.BaudRatePrescaler));

    /* Force polarity and phase to TI protocaol requirements */
    hspi->Init.CLKPolarity = SPI_POLARITY_LOW;
 8006f08:	687b      	ldr	r3, [r7, #4]
 8006f0a:	2200      	movs	r2, #0
 8006f0c:	611a      	str	r2, [r3, #16]
    hspi->Init.CLKPhase    = SPI_PHASE_1EDGE;
 8006f0e:	687b      	ldr	r3, [r7, #4]
 8006f10:	2200      	movs	r2, #0
 8006f12:	615a      	str	r2, [r3, #20]
  if (hspi->Init.CRCCalculation == SPI_CRCCALCULATION_ENABLE)
  {
    assert_param(IS_SPI_CRC_POLYNOMIAL(hspi->Init.CRCPolynomial));
  }
#else
  hspi->Init.CRCCalculation = SPI_CRCCALCULATION_DISABLE;
 8006f14:	687b      	ldr	r3, [r7, #4]
 8006f16:	2200      	movs	r2, #0
 8006f18:	629a      	str	r2, [r3, #40]	; 0x28
#endif /* USE_SPI_CRC */

  if (hspi->State == HAL_SPI_STATE_RESET)
 8006f1a:	687b      	ldr	r3, [r7, #4]
 8006f1c:	f893 3051 	ldrb.w	r3, [r3, #81]	; 0x51
 8006f20:	b2db      	uxtb	r3, r3
 8006f22:	2b00      	cmp	r3, #0
 8006f24:	d106      	bne.n	8006f34 <HAL_SPI_Init+0x58>
  {
    /* Allocate lock resource and initialize it */
    hspi->Lock = HAL_UNLOCKED;
 8006f26:	687b      	ldr	r3, [r7, #4]
 8006f28:	2200      	movs	r2, #0
 8006f2a:	f883 2050 	strb.w	r2, [r3, #80]	; 0x50

    /* Init the low level hardware : GPIO, CLOCK, NVIC... */
    hspi->MspInitCallback(hspi);
#else
    /* Init the low level hardware : GPIO, CLOCK, NVIC... */
    HAL_SPI_MspInit(hspi);
 8006f2e:	6878      	ldr	r0, [r7, #4]
 8006f30:	f7fb fcda 	bl	80028e8 <HAL_SPI_MspInit>
#endif /* USE_HAL_SPI_REGISTER_CALLBACKS */
  }

  hspi->State = HAL_SPI_STATE_BUSY;
 8006f34:	687b      	ldr	r3, [r7, #4]
 8006f36:	2202      	movs	r2, #2
 8006f38:	f883 2051 	strb.w	r2, [r3, #81]	; 0x51

  /* Disable the selected SPI peripheral */
  __HAL_SPI_DISABLE(hspi);
 8006f3c:	687b      	ldr	r3, [r7, #4]
 8006f3e:	681b      	ldr	r3, [r3, #0]
 8006f40:	681a      	ldr	r2, [r3, #0]
 8006f42:	687b      	ldr	r3, [r7, #4]
 8006f44:	681b      	ldr	r3, [r3, #0]
 8006f46:	f022 0240 	bic.w	r2, r2, #64	; 0x40
 8006f4a:	601a      	str	r2, [r3, #0]

  /*----------------------- SPIx CR1 & CR2 Configuration ---------------------*/
  /* Configure : SPI Mode, Communication Mode, Data size, Clock polarity and phase, NSS management,
  Communication speed, First bit and CRC calculation state */
  WRITE_REG(hspi->Instance->CR1, ((hspi->Init.Mode & (SPI_CR1_MSTR | SPI_CR1_SSI)) |
 8006f4c:	687b      	ldr	r3, [r7, #4]
 8006f4e:	685b      	ldr	r3, [r3, #4]
 8006f50:	f403 7282 	and.w	r2, r3, #260	; 0x104
 8006f54:	687b      	ldr	r3, [r7, #4]
 8006f56:	689b      	ldr	r3, [r3, #8]
 8006f58:	f403 4304 	and.w	r3, r3, #33792	; 0x8400
 8006f5c:	431a      	orrs	r2, r3
 8006f5e:	687b      	ldr	r3, [r7, #4]
 8006f60:	68db      	ldr	r3, [r3, #12]
 8006f62:	f403 6300 	and.w	r3, r3, #2048	; 0x800
 8006f66:	431a      	orrs	r2, r3
 8006f68:	687b      	ldr	r3, [r7, #4]
 8006f6a:	691b      	ldr	r3, [r3, #16]
 8006f6c:	f003 0302 	and.w	r3, r3, #2
 8006f70:	431a      	orrs	r2, r3
 8006f72:	687b      	ldr	r3, [r7, #4]
 8006f74:	695b      	ldr	r3, [r3, #20]
 8006f76:	f003 0301 	and.w	r3, r3, #1
 8006f7a:	431a      	orrs	r2, r3
 8006f7c:	687b      	ldr	r3, [r7, #4]
 8006f7e:	699b      	ldr	r3, [r3, #24]
 8006f80:	f403 7300 	and.w	r3, r3, #512	; 0x200
 8006f84:	431a      	orrs	r2, r3
 8006f86:	687b      	ldr	r3, [r7, #4]
 8006f88:	69db      	ldr	r3, [r3, #28]
 8006f8a:	f003 0338 	and.w	r3, r3, #56	; 0x38
 8006f8e:	431a      	orrs	r2, r3
 8006f90:	687b      	ldr	r3, [r7, #4]
 8006f92:	6a1b      	ldr	r3, [r3, #32]
 8006f94:	f003 0380 	and.w	r3, r3, #128	; 0x80
 8006f98:	ea42 0103 	orr.w	r1, r2, r3
 8006f9c:	687b      	ldr	r3, [r7, #4]
 8006f9e:	6a9b      	ldr	r3, [r3, #40]	; 0x28
 8006fa0:	f403 5200 	and.w	r2, r3, #8192	; 0x2000
 8006fa4:	687b      	ldr	r3, [r7, #4]
 8006fa6:	681b      	ldr	r3, [r3, #0]
 8006fa8:	430a      	orrs	r2, r1
 8006faa:	601a      	str	r2, [r3, #0]
                                  (hspi->Init.BaudRatePrescaler & SPI_CR1_BR_Msk) |
                                  (hspi->Init.FirstBit  & SPI_CR1_LSBFIRST) |
                                  (hspi->Init.CRCCalculation & SPI_CR1_CRCEN)));

  /* Configure : NSS management, TI Mode */
  WRITE_REG(hspi->Instance->CR2, (((hspi->Init.NSS >> 16U) & SPI_CR2_SSOE) | (hspi->Init.TIMode & SPI_CR2_FRF)));
 8006fac:	687b      	ldr	r3, [r7, #4]
 8006fae:	699b      	ldr	r3, [r3, #24]
 8006fb0:	0c1b      	lsrs	r3, r3, #16
 8006fb2:	f003 0104 	and.w	r1, r3, #4
 8006fb6:	687b      	ldr	r3, [r7, #4]
 8006fb8:	6a5b      	ldr	r3, [r3, #36]	; 0x24
 8006fba:	f003 0210 	and.w	r2, r3, #16
 8006fbe:	687b      	ldr	r3, [r7, #4]
 8006fc0:	681b      	ldr	r3, [r3, #0]
 8006fc2:	430a      	orrs	r2, r1
 8006fc4:	605a      	str	r2, [r3, #4]
  }
#endif /* USE_SPI_CRC */

#if defined(SPI_I2SCFGR_I2SMOD)
  /* Activate the SPI mode (Make sure that I2SMOD bit in I2SCFGR register is reset) */
  CLEAR_BIT(hspi->Instance->I2SCFGR, SPI_I2SCFGR_I2SMOD);
 8006fc6:	687b      	ldr	r3, [r7, #4]
 8006fc8:	681b      	ldr	r3, [r3, #0]
 8006fca:	69da      	ldr	r2, [r3, #28]
 8006fcc:	687b      	ldr	r3, [r7, #4]
 8006fce:	681b      	ldr	r3, [r3, #0]
 8006fd0:	f422 6200 	bic.w	r2, r2, #2048	; 0x800
 8006fd4:	61da      	str	r2, [r3, #28]
#endif /* SPI_I2SCFGR_I2SMOD */

  hspi->ErrorCode = HAL_SPI_ERROR_NONE;
 8006fd6:	687b      	ldr	r3, [r7, #4]
 8006fd8:	2200      	movs	r2, #0
 8006fda:	655a      	str	r2, [r3, #84]	; 0x54
  hspi->State     = HAL_SPI_STATE_READY;
 8006fdc:	687b      	ldr	r3, [r7, #4]
 8006fde:	2201      	movs	r2, #1
 8006fe0:	f883 2051 	strb.w	r2, [r3, #81]	; 0x51

  return HAL_OK;
 8006fe4:	2300      	movs	r3, #0
}
 8006fe6:	4618      	mov	r0, r3
 8006fe8:	3708      	adds	r7, #8
 8006fea:	46bd      	mov	sp, r7
 8006fec:	bd80      	pop	{r7, pc}

08006fee <HAL_SPI_Transmit>:
  * @param  Size amount of data to be sent
  * @param  Timeout Timeout duration
  * @retval HAL status
  */
HAL_StatusTypeDef HAL_SPI_Transmit(SPI_HandleTypeDef *hspi, uint8_t *pData, uint16_t Size, uint32_t Timeout)
{
 8006fee:	b580      	push	{r7, lr}
 8006ff0:	b088      	sub	sp, #32
 8006ff2:	af00      	add	r7, sp, #0
 8006ff4:	60f8      	str	r0, [r7, #12]
 8006ff6:	60b9      	str	r1, [r7, #8]
 8006ff8:	603b      	str	r3, [r7, #0]
 8006ffa:	4613      	mov	r3, r2
 8006ffc:	80fb      	strh	r3, [r7, #6]
  uint32_t tickstart;
  HAL_StatusTypeDef errorcode = HAL_OK;
 8006ffe:	2300      	movs	r3, #0
 8007000:	77fb      	strb	r3, [r7, #31]

  /* Check Direction parameter */
  assert_param(IS_SPI_DIRECTION_2LINES_OR_1LINE(hspi->Init.Direction));

  /* Process Locked */
  __HAL_LOCK(hspi);
 8007002:	68fb      	ldr	r3, [r7, #12]
 8007004:	f893 3050 	ldrb.w	r3, [r3, #80]	; 0x50
 8007008:	2b01      	cmp	r3, #1
 800700a:	d101      	bne.n	8007010 <HAL_SPI_Transmit+0x22>
 800700c:	2302      	movs	r3, #2
 800700e:	e12d      	b.n	800726c <HAL_SPI_Transmit+0x27e>
 8007010:	68fb      	ldr	r3, [r7, #12]
 8007012:	2201      	movs	r2, #1
 8007014:	f883 2050 	strb.w	r2, [r3, #80]	; 0x50

  /* Init tickstart for timeout management*/
  tickstart = HAL_GetTick();
 8007018:	f7fb ffe2 	bl	8002fe0 <HAL_GetTick>
 800701c:	61b8      	str	r0, [r7, #24]
  initial_TxXferCount = Size;
 800701e:	88fb      	ldrh	r3, [r7, #6]
 8007020:	82fb      	strh	r3, [r7, #22]

  if (hspi->State != HAL_SPI_STATE_READY)
 8007022:	68fb      	ldr	r3, [r7, #12]
 8007024:	f893 3051 	ldrb.w	r3, [r3, #81]	; 0x51
 8007028:	b2db      	uxtb	r3, r3
 800702a:	2b01      	cmp	r3, #1
 800702c:	d002      	beq.n	8007034 <HAL_SPI_Transmit+0x46>
  {
    errorcode = HAL_BUSY;
 800702e:	2302      	movs	r3, #2
 8007030:	77fb      	strb	r3, [r7, #31]
    goto error;
 8007032:	e116      	b.n	8007262 <HAL_SPI_Transmit+0x274>
  }

  if ((pData == NULL) || (Size == 0U))
 8007034:	68bb      	ldr	r3, [r7, #8]
 8007036:	2b00      	cmp	r3, #0
 8007038:	d002      	beq.n	8007040 <HAL_SPI_Transmit+0x52>
 800703a:	88fb      	ldrh	r3, [r7, #6]
 800703c:	2b00      	cmp	r3, #0
 800703e:	d102      	bne.n	8007046 <HAL_SPI_Transmit+0x58>
  {
    errorcode = HAL_ERROR;
 8007040:	2301      	movs	r3, #1
 8007042:	77fb      	strb	r3, [r7, #31]
    goto error;
 8007044:	e10d      	b.n	8007262 <HAL_SPI_Transmit+0x274>
  }

  /* Set the transaction information */
  hspi->State       = HAL_SPI_STATE_BUSY_TX;
 8007046:	68fb      	ldr	r3, [r7, #12]
 8007048:	2203      	movs	r2, #3
 800704a:	f883 2051 	strb.w	r2, [r3, #81]	; 0x51
  hspi->ErrorCode   = HAL_SPI_ERROR_NONE;
 800704e:	68fb      	ldr	r3, [r7, #12]
 8007050:	2200      	movs	r2, #0
 8007052:	655a      	str	r2, [r3, #84]	; 0x54
  hspi->pTxBuffPtr  = (uint8_t *)pData;
 8007054:	68fb      	ldr	r3, [r7, #12]
 8007056:	68ba      	ldr	r2, [r7, #8]
 8007058:	631a      	str	r2, [r3, #48]	; 0x30
  hspi->TxXferSize  = Size;
 800705a:	68fb      	ldr	r3, [r7, #12]
 800705c:	88fa      	ldrh	r2, [r7, #6]
 800705e:	869a      	strh	r2, [r3, #52]	; 0x34
  hspi->TxXferCount = Size;
 8007060:	68fb      	ldr	r3, [r7, #12]
 8007062:	88fa      	ldrh	r2, [r7, #6]
 8007064:	86da      	strh	r2, [r3, #54]	; 0x36

  /*Init field not used in handle to zero */
  hspi->pRxBuffPtr  = (uint8_t *)NULL;
 8007066:	68fb      	ldr	r3, [r7, #12]
 8007068:	2200      	movs	r2, #0
 800706a:	639a      	str	r2, [r3, #56]	; 0x38
  hspi->RxXferSize  = 0U;
 800706c:	68fb      	ldr	r3, [r7, #12]
 800706e:	2200      	movs	r2, #0
 8007070:	879a      	strh	r2, [r3, #60]	; 0x3c
  hspi->RxXferCount = 0U;
 8007072:	68fb      	ldr	r3, [r7, #12]
 8007074:	2200      	movs	r2, #0
 8007076:	87da      	strh	r2, [r3, #62]	; 0x3e
  hspi->TxISR       = NULL;
 8007078:	68fb      	ldr	r3, [r7, #12]
 800707a:	2200      	movs	r2, #0
 800707c:	645a      	str	r2, [r3, #68]	; 0x44
  hspi->RxISR       = NULL;
 800707e:	68fb      	ldr	r3, [r7, #12]
 8007080:	2200      	movs	r2, #0
 8007082:	641a      	str	r2, [r3, #64]	; 0x40

  /* Configure communication direction : 1Line */
  if (hspi->Init.Direction == SPI_DIRECTION_1LINE)
 8007084:	68fb      	ldr	r3, [r7, #12]
 8007086:	689b      	ldr	r3, [r3, #8]
 8007088:	f5b3 4f00 	cmp.w	r3, #32768	; 0x8000
 800708c:	d10f      	bne.n	80070ae <HAL_SPI_Transmit+0xc0>
  {
    /* Disable SPI Peripheral before set 1Line direction (BIDIOE bit) */
    __HAL_SPI_DISABLE(hspi);
 800708e:	68fb      	ldr	r3, [r7, #12]
 8007090:	681b      	ldr	r3, [r3, #0]
 8007092:	681a      	ldr	r2, [r3, #0]
 8007094:	68fb      	ldr	r3, [r7, #12]
 8007096:	681b      	ldr	r3, [r3, #0]
 8007098:	f022 0240 	bic.w	r2, r2, #64	; 0x40
 800709c:	601a      	str	r2, [r3, #0]
    SPI_1LINE_TX(hspi);
 800709e:	68fb      	ldr	r3, [r7, #12]
 80070a0:	681b      	ldr	r3, [r3, #0]
 80070a2:	681a      	ldr	r2, [r3, #0]
 80070a4:	68fb      	ldr	r3, [r7, #12]
 80070a6:	681b      	ldr	r3, [r3, #0]
 80070a8:	f442 4280 	orr.w	r2, r2, #16384	; 0x4000
 80070ac:	601a      	str	r2, [r3, #0]
    SPI_RESET_CRC(hspi);
  }
#endif /* USE_SPI_CRC */

  /* Check if the SPI is already enabled */
  if ((hspi->Instance->CR1 & SPI_CR1_SPE) != SPI_CR1_SPE)
 80070ae:	68fb      	ldr	r3, [r7, #12]
 80070b0:	681b      	ldr	r3, [r3, #0]
 80070b2:	681b      	ldr	r3, [r3, #0]
 80070b4:	f003 0340 	and.w	r3, r3, #64	; 0x40
 80070b8:	2b40      	cmp	r3, #64	; 0x40
 80070ba:	d007      	beq.n	80070cc <HAL_SPI_Transmit+0xde>
  {
    /* Enable SPI peripheral */
    __HAL_SPI_ENABLE(hspi);
 80070bc:	68fb      	ldr	r3, [r7, #12]
 80070be:	681b      	ldr	r3, [r3, #0]
 80070c0:	681a      	ldr	r2, [r3, #0]
 80070c2:	68fb      	ldr	r3, [r7, #12]
 80070c4:	681b      	ldr	r3, [r3, #0]
 80070c6:	f042 0240 	orr.w	r2, r2, #64	; 0x40
 80070ca:	601a      	str	r2, [r3, #0]
  }

  /* Transmit data in 16 Bit mode */
  if (hspi->Init.DataSize == SPI_DATASIZE_16BIT)
 80070cc:	68fb      	ldr	r3, [r7, #12]
 80070ce:	68db      	ldr	r3, [r3, #12]
 80070d0:	f5b3 6f00 	cmp.w	r3, #2048	; 0x800
 80070d4:	d14f      	bne.n	8007176 <HAL_SPI_Transmit+0x188>
  {
    if ((hspi->Init.Mode == SPI_MODE_SLAVE) || (initial_TxXferCount == 0x01U))
 80070d6:	68fb      	ldr	r3, [r7, #12]
 80070d8:	685b      	ldr	r3, [r3, #4]
 80070da:	2b00      	cmp	r3, #0
 80070dc:	d002      	beq.n	80070e4 <HAL_SPI_Transmit+0xf6>
 80070de:	8afb      	ldrh	r3, [r7, #22]
 80070e0:	2b01      	cmp	r3, #1
 80070e2:	d142      	bne.n	800716a <HAL_SPI_Transmit+0x17c>
    {
      hspi->Instance->DR = *((uint16_t *)hspi->pTxBuffPtr);
 80070e4:	68fb      	ldr	r3, [r7, #12]
 80070e6:	6b1b      	ldr	r3, [r3, #48]	; 0x30
 80070e8:	881a      	ldrh	r2, [r3, #0]
 80070ea:	68fb      	ldr	r3, [r7, #12]
 80070ec:	681b      	ldr	r3, [r3, #0]
 80070ee:	60da      	str	r2, [r3, #12]
      hspi->pTxBuffPtr += sizeof(uint16_t);
 80070f0:	68fb      	ldr	r3, [r7, #12]
 80070f2:	6b1b      	ldr	r3, [r3, #48]	; 0x30
 80070f4:	1c9a      	adds	r2, r3, #2
 80070f6:	68fb      	ldr	r3, [r7, #12]
 80070f8:	631a      	str	r2, [r3, #48]	; 0x30
      hspi->TxXferCount--;
 80070fa:	68fb      	ldr	r3, [r7, #12]
 80070fc:	8edb      	ldrh	r3, [r3, #54]	; 0x36
 80070fe:	b29b      	uxth	r3, r3
 8007100:	3b01      	subs	r3, #1
 8007102:	b29a      	uxth	r2, r3
 8007104:	68fb      	ldr	r3, [r7, #12]
 8007106:	86da      	strh	r2, [r3, #54]	; 0x36
    }
    /* Transmit data in 16 Bit mode */
    while (hspi->TxXferCount > 0U)
 8007108:	e02f      	b.n	800716a <HAL_SPI_Transmit+0x17c>
    {
      /* Wait until TXE flag is set to send data */
      if (__HAL_SPI_GET_FLAG(hspi, SPI_FLAG_TXE))
 800710a:	68fb      	ldr	r3, [r7, #12]
 800710c:	681b      	ldr	r3, [r3, #0]
 800710e:	689b      	ldr	r3, [r3, #8]
 8007110:	f003 0302 	and.w	r3, r3, #2
 8007114:	2b02      	cmp	r3, #2
 8007116:	d112      	bne.n	800713e <HAL_SPI_Transmit+0x150>
      {
        hspi->Instance->DR = *((uint16_t *)hspi->pTxBuffPtr);
 8007118:	68fb      	ldr	r3, [r7, #12]
 800711a:	6b1b      	ldr	r3, [r3, #48]	; 0x30
 800711c:	881a      	ldrh	r2, [r3, #0]
 800711e:	68fb      	ldr	r3, [r7, #12]
 8007120:	681b      	ldr	r3, [r3, #0]
 8007122:	60da      	str	r2, [r3, #12]
        hspi->pTxBuffPtr += sizeof(uint16_t);
 8007124:	68fb      	ldr	r3, [r7, #12]
 8007126:	6b1b      	ldr	r3, [r3, #48]	; 0x30
 8007128:	1c9a      	adds	r2, r3, #2
 800712a:	68fb      	ldr	r3, [r7, #12]
 800712c:	631a      	str	r2, [r3, #48]	; 0x30
        hspi->TxXferCount--;
 800712e:	68fb      	ldr	r3, [r7, #12]
 8007130:	8edb      	ldrh	r3, [r3, #54]	; 0x36
 8007132:	b29b      	uxth	r3, r3
 8007134:	3b01      	subs	r3, #1
 8007136:	b29a      	uxth	r2, r3
 8007138:	68fb      	ldr	r3, [r7, #12]
 800713a:	86da      	strh	r2, [r3, #54]	; 0x36
 800713c:	e015      	b.n	800716a <HAL_SPI_Transmit+0x17c>
      }
      else
      {
        /* Timeout management */
        if ((((HAL_GetTick() - tickstart) >=  Timeout) && (Timeout != HAL_MAX_DELAY)) || (Timeout == 0U))
 800713e:	f7fb ff4f 	bl	8002fe0 <HAL_GetTick>
 8007142:	4602      	mov	r2, r0
 8007144:	69bb      	ldr	r3, [r7, #24]
 8007146:	1ad3      	subs	r3, r2, r3
 8007148:	683a      	ldr	r2, [r7, #0]
 800714a:	429a      	cmp	r2, r3
 800714c:	d803      	bhi.n	8007156 <HAL_SPI_Transmit+0x168>
 800714e:	683b      	ldr	r3, [r7, #0]
 8007150:	f1b3 3fff 	cmp.w	r3, #4294967295	; 0xffffffff
 8007154:	d102      	bne.n	800715c <HAL_SPI_Transmit+0x16e>
 8007156:	683b      	ldr	r3, [r7, #0]
 8007158:	2b00      	cmp	r3, #0
 800715a:	d106      	bne.n	800716a <HAL_SPI_Transmit+0x17c>
        {
          errorcode = HAL_TIMEOUT;
 800715c:	2303      	movs	r3, #3
 800715e:	77fb      	strb	r3, [r7, #31]
          hspi->State = HAL_SPI_STATE_READY;
 8007160:	68fb      	ldr	r3, [r7, #12]
 8007162:	2201      	movs	r2, #1
 8007164:	f883 2051 	strb.w	r2, [r3, #81]	; 0x51
          goto error;
 8007168:	e07b      	b.n	8007262 <HAL_SPI_Transmit+0x274>
    while (hspi->TxXferCount > 0U)
 800716a:	68fb      	ldr	r3, [r7, #12]
 800716c:	8edb      	ldrh	r3, [r3, #54]	; 0x36
 800716e:	b29b      	uxth	r3, r3
 8007170:	2b00      	cmp	r3, #0
 8007172:	d1ca      	bne.n	800710a <HAL_SPI_Transmit+0x11c>
 8007174:	e050      	b.n	8007218 <HAL_SPI_Transmit+0x22a>
    }
  }
  /* Transmit data in 8 Bit mode */
  else
  {
    if ((hspi->Init.Mode == SPI_MODE_SLAVE) || (initial_TxXferCount == 0x01U))
 8007176:	68fb      	ldr	r3, [r7, #12]
 8007178:	685b      	ldr	r3, [r3, #4]
 800717a:	2b00      	cmp	r3, #0
 800717c:	d002      	beq.n	8007184 <HAL_SPI_Transmit+0x196>
 800717e:	8afb      	ldrh	r3, [r7, #22]
 8007180:	2b01      	cmp	r3, #1
 8007182:	d144      	bne.n	800720e <HAL_SPI_Transmit+0x220>
    {
      *((__IO uint8_t *)&hspi->Instance->DR) = (*hspi->pTxBuffPtr);
 8007184:	68fb      	ldr	r3, [r7, #12]
 8007186:	6b1a      	ldr	r2, [r3, #48]	; 0x30
 8007188:	68fb      	ldr	r3, [r7, #12]
 800718a:	681b      	ldr	r3, [r3, #0]
 800718c:	330c      	adds	r3, #12
 800718e:	7812      	ldrb	r2, [r2, #0]
 8007190:	701a      	strb	r2, [r3, #0]
      hspi->pTxBuffPtr += sizeof(uint8_t);
 8007192:	68fb      	ldr	r3, [r7, #12]
 8007194:	6b1b      	ldr	r3, [r3, #48]	; 0x30
 8007196:	1c5a      	adds	r2, r3, #1
 8007198:	68fb      	ldr	r3, [r7, #12]
 800719a:	631a      	str	r2, [r3, #48]	; 0x30
      hspi->TxXferCount--;
 800719c:	68fb      	ldr	r3, [r7, #12]
 800719e:	8edb      	ldrh	r3, [r3, #54]	; 0x36
 80071a0:	b29b      	uxth	r3, r3
 80071a2:	3b01      	subs	r3, #1
 80071a4:	b29a      	uxth	r2, r3
 80071a6:	68fb      	ldr	r3, [r7, #12]
 80071a8:	86da      	strh	r2, [r3, #54]	; 0x36
    }
    while (hspi->TxXferCount > 0U)
 80071aa:	e030      	b.n	800720e <HAL_SPI_Transmit+0x220>
    {
      /* Wait until TXE flag is set to send data */
      if (__HAL_SPI_GET_FLAG(hspi, SPI_FLAG_TXE))
 80071ac:	68fb      	ldr	r3, [r7, #12]
 80071ae:	681b      	ldr	r3, [r3, #0]
 80071b0:	689b      	ldr	r3, [r3, #8]
 80071b2:	f003 0302 	and.w	r3, r3, #2
 80071b6:	2b02      	cmp	r3, #2
 80071b8:	d113      	bne.n	80071e2 <HAL_SPI_Transmit+0x1f4>
      {
        *((__IO uint8_t *)&hspi->Instance->DR) = (*hspi->pTxBuffPtr);
 80071ba:	68fb      	ldr	r3, [r7, #12]
 80071bc:	6b1a      	ldr	r2, [r3, #48]	; 0x30
 80071be:	68fb      	ldr	r3, [r7, #12]
 80071c0:	681b      	ldr	r3, [r3, #0]
 80071c2:	330c      	adds	r3, #12
 80071c4:	7812      	ldrb	r2, [r2, #0]
 80071c6:	701a      	strb	r2, [r3, #0]
        hspi->pTxBuffPtr += sizeof(uint8_t);
 80071c8:	68fb      	ldr	r3, [r7, #12]
 80071ca:	6b1b      	ldr	r3, [r3, #48]	; 0x30
 80071cc:	1c5a      	adds	r2, r3, #1
 80071ce:	68fb      	ldr	r3, [r7, #12]
 80071d0:	631a      	str	r2, [r3, #48]	; 0x30
        hspi->TxXferCount--;
 80071d2:	68fb      	ldr	r3, [r7, #12]
 80071d4:	8edb      	ldrh	r3, [r3, #54]	; 0x36
 80071d6:	b29b      	uxth	r3, r3
 80071d8:	3b01      	subs	r3, #1
 80071da:	b29a      	uxth	r2, r3
 80071dc:	68fb      	ldr	r3, [r7, #12]
 80071de:	86da      	strh	r2, [r3, #54]	; 0x36
 80071e0:	e015      	b.n	800720e <HAL_SPI_Transmit+0x220>
      }
      else
      {
        /* Timeout management */
        if ((((HAL_GetTick() - tickstart) >=  Timeout) && (Timeout != HAL_MAX_DELAY)) || (Timeout == 0U))
 80071e2:	f7fb fefd 	bl	8002fe0 <HAL_GetTick>
 80071e6:	4602      	mov	r2, r0
 80071e8:	69bb      	ldr	r3, [r7, #24]
 80071ea:	1ad3      	subs	r3, r2, r3
 80071ec:	683a      	ldr	r2, [r7, #0]
 80071ee:	429a      	cmp	r2, r3
 80071f0:	d803      	bhi.n	80071fa <HAL_SPI_Transmit+0x20c>
 80071f2:	683b      	ldr	r3, [r7, #0]
 80071f4:	f1b3 3fff 	cmp.w	r3, #4294967295	; 0xffffffff
 80071f8:	d102      	bne.n	8007200 <HAL_SPI_Transmit+0x212>
 80071fa:	683b      	ldr	r3, [r7, #0]
 80071fc:	2b00      	cmp	r3, #0
 80071fe:	d106      	bne.n	800720e <HAL_SPI_Transmit+0x220>
        {
          errorcode = HAL_TIMEOUT;
 8007200:	2303      	movs	r3, #3
 8007202:	77fb      	strb	r3, [r7, #31]
          hspi->State = HAL_SPI_STATE_READY;
 8007204:	68fb      	ldr	r3, [r7, #12]
 8007206:	2201      	movs	r2, #1
 8007208:	f883 2051 	strb.w	r2, [r3, #81]	; 0x51
          goto error;
 800720c:	e029      	b.n	8007262 <HAL_SPI_Transmit+0x274>
    while (hspi->TxXferCount > 0U)
 800720e:	68fb      	ldr	r3, [r7, #12]
 8007210:	8edb      	ldrh	r3, [r3, #54]	; 0x36
 8007212:	b29b      	uxth	r3, r3
 8007214:	2b00      	cmp	r3, #0
 8007216:	d1c9      	bne.n	80071ac <HAL_SPI_Transmit+0x1be>
    SET_BIT(hspi->Instance->CR1, SPI_CR1_CRCNEXT);
  }
#endif /* USE_SPI_CRC */

  /* Check the end of the transaction */
  if (SPI_EndRxTxTransaction(hspi, Timeout, tickstart) != HAL_OK)
 8007218:	69ba      	ldr	r2, [r7, #24]
 800721a:	6839      	ldr	r1, [r7, #0]
 800721c:	68f8      	ldr	r0, [r7, #12]
 800721e:	f000 fd27 	bl	8007c70 <SPI_EndRxTxTransaction>
 8007222:	4603      	mov	r3, r0
 8007224:	2b00      	cmp	r3, #0
 8007226:	d002      	beq.n	800722e <HAL_SPI_Transmit+0x240>
  {
    hspi->ErrorCode = HAL_SPI_ERROR_FLAG;
 8007228:	68fb      	ldr	r3, [r7, #12]
 800722a:	2220      	movs	r2, #32
 800722c:	655a      	str	r2, [r3, #84]	; 0x54
  }

  /* Clear overrun flag in 2 Lines communication mode because received is not read */
  if (hspi->Init.Direction == SPI_DIRECTION_2LINES)
 800722e:	68fb      	ldr	r3, [r7, #12]
 8007230:	689b      	ldr	r3, [r3, #8]
 8007232:	2b00      	cmp	r3, #0
 8007234:	d10a      	bne.n	800724c <HAL_SPI_Transmit+0x25e>
  {
    __HAL_SPI_CLEAR_OVRFLAG(hspi);
 8007236:	2300      	movs	r3, #0
 8007238:	613b      	str	r3, [r7, #16]
 800723a:	68fb      	ldr	r3, [r7, #12]
 800723c:	681b      	ldr	r3, [r3, #0]
 800723e:	68db      	ldr	r3, [r3, #12]
 8007240:	613b      	str	r3, [r7, #16]
 8007242:	68fb      	ldr	r3, [r7, #12]
 8007244:	681b      	ldr	r3, [r3, #0]
 8007246:	689b      	ldr	r3, [r3, #8]
 8007248:	613b      	str	r3, [r7, #16]
 800724a:	693b      	ldr	r3, [r7, #16]
  }

  if (hspi->ErrorCode != HAL_SPI_ERROR_NONE)
 800724c:	68fb      	ldr	r3, [r7, #12]
 800724e:	6d5b      	ldr	r3, [r3, #84]	; 0x54
 8007250:	2b00      	cmp	r3, #0
 8007252:	d002      	beq.n	800725a <HAL_SPI_Transmit+0x26c>
  {
    errorcode = HAL_ERROR;
 8007254:	2301      	movs	r3, #1
 8007256:	77fb      	strb	r3, [r7, #31]
 8007258:	e003      	b.n	8007262 <HAL_SPI_Transmit+0x274>
  }
  else
  {
    hspi->State = HAL_SPI_STATE_READY;
 800725a:	68fb      	ldr	r3, [r7, #12]
 800725c:	2201      	movs	r2, #1
 800725e:	f883 2051 	strb.w	r2, [r3, #81]	; 0x51
  }

error:
  /* Process Unlocked */
  __HAL_UNLOCK(hspi);
 8007262:	68fb      	ldr	r3, [r7, #12]
 8007264:	2200      	movs	r2, #0
 8007266:	f883 2050 	strb.w	r2, [r3, #80]	; 0x50
  return errorcode;
 800726a:	7ffb      	ldrb	r3, [r7, #31]
}
 800726c:	4618      	mov	r0, r3
 800726e:	3720      	adds	r7, #32
 8007270:	46bd      	mov	sp, r7
 8007272:	bd80      	pop	{r7, pc}

08007274 <HAL_SPI_Receive>:
  * @param  Size amount of data to be received
  * @param  Timeout Timeout duration
  * @retval HAL status
  */
HAL_StatusTypeDef HAL_SPI_Receive(SPI_HandleTypeDef *hspi, uint8_t *pData, uint16_t Size, uint32_t Timeout)
{
 8007274:	b580      	push	{r7, lr}
 8007276:	b088      	sub	sp, #32
 8007278:	af02      	add	r7, sp, #8
 800727a:	60f8      	str	r0, [r7, #12]
 800727c:	60b9      	str	r1, [r7, #8]
 800727e:	603b      	str	r3, [r7, #0]
 8007280:	4613      	mov	r3, r2
 8007282:	80fb      	strh	r3, [r7, #6]
#if (USE_SPI_CRC != 0U)
  __IO uint32_t tmpreg = 0U;
#endif /* USE_SPI_CRC */
  uint32_t tickstart;
  HAL_StatusTypeDef errorcode = HAL_OK;
 8007284:	2300      	movs	r3, #0
 8007286:	75fb      	strb	r3, [r7, #23]

  if (hspi->State != HAL_SPI_STATE_READY)
 8007288:	68fb      	ldr	r3, [r7, #12]
 800728a:	f893 3051 	ldrb.w	r3, [r3, #81]	; 0x51
 800728e:	b2db      	uxtb	r3, r3
 8007290:	2b01      	cmp	r3, #1
 8007292:	d002      	beq.n	800729a <HAL_SPI_Receive+0x26>
  {
    errorcode = HAL_BUSY;
 8007294:	2302      	movs	r3, #2
 8007296:	75fb      	strb	r3, [r7, #23]
    goto error;
 8007298:	e0fb      	b.n	8007492 <HAL_SPI_Receive+0x21e>
  }

  if ((hspi->Init.Mode == SPI_MODE_MASTER) && (hspi->Init.Direction == SPI_DIRECTION_2LINES))
 800729a:	68fb      	ldr	r3, [r7, #12]
 800729c:	685b      	ldr	r3, [r3, #4]
 800729e:	f5b3 7f82 	cmp.w	r3, #260	; 0x104
 80072a2:	d112      	bne.n	80072ca <HAL_SPI_Receive+0x56>
 80072a4:	68fb      	ldr	r3, [r7, #12]
 80072a6:	689b      	ldr	r3, [r3, #8]
 80072a8:	2b00      	cmp	r3, #0
 80072aa:	d10e      	bne.n	80072ca <HAL_SPI_Receive+0x56>
  {
    hspi->State = HAL_SPI_STATE_BUSY_RX;
 80072ac:	68fb      	ldr	r3, [r7, #12]
 80072ae:	2204      	movs	r2, #4
 80072b0:	f883 2051 	strb.w	r2, [r3, #81]	; 0x51
    /* Call transmit-receive function to send Dummy data on Tx line and generate clock on CLK line */
    return HAL_SPI_TransmitReceive(hspi, pData, pData, Size, Timeout);
 80072b4:	88fa      	ldrh	r2, [r7, #6]
 80072b6:	683b      	ldr	r3, [r7, #0]
 80072b8:	9300      	str	r3, [sp, #0]
 80072ba:	4613      	mov	r3, r2
 80072bc:	68ba      	ldr	r2, [r7, #8]
 80072be:	68b9      	ldr	r1, [r7, #8]
 80072c0:	68f8      	ldr	r0, [r7, #12]
 80072c2:	f000 f8ef 	bl	80074a4 <HAL_SPI_TransmitReceive>
 80072c6:	4603      	mov	r3, r0
 80072c8:	e0e8      	b.n	800749c <HAL_SPI_Receive+0x228>
  }

  /* Process Locked */
  __HAL_LOCK(hspi);
 80072ca:	68fb      	ldr	r3, [r7, #12]
 80072cc:	f893 3050 	ldrb.w	r3, [r3, #80]	; 0x50
 80072d0:	2b01      	cmp	r3, #1
 80072d2:	d101      	bne.n	80072d8 <HAL_SPI_Receive+0x64>
 80072d4:	2302      	movs	r3, #2
 80072d6:	e0e1      	b.n	800749c <HAL_SPI_Receive+0x228>
 80072d8:	68fb      	ldr	r3, [r7, #12]
 80072da:	2201      	movs	r2, #1
 80072dc:	f883 2050 	strb.w	r2, [r3, #80]	; 0x50

  /* Init tickstart for timeout management*/
  tickstart = HAL_GetTick();
 80072e0:	f7fb fe7e 	bl	8002fe0 <HAL_GetTick>
 80072e4:	6138      	str	r0, [r7, #16]

  if ((pData == NULL) || (Size == 0U))
 80072e6:	68bb      	ldr	r3, [r7, #8]
 80072e8:	2b00      	cmp	r3, #0
 80072ea:	d002      	beq.n	80072f2 <HAL_SPI_Receive+0x7e>
 80072ec:	88fb      	ldrh	r3, [r7, #6]
 80072ee:	2b00      	cmp	r3, #0
 80072f0:	d102      	bne.n	80072f8 <HAL_SPI_Receive+0x84>
  {
    errorcode = HAL_ERROR;
 80072f2:	2301      	movs	r3, #1
 80072f4:	75fb      	strb	r3, [r7, #23]
    goto error;
 80072f6:	e0cc      	b.n	8007492 <HAL_SPI_Receive+0x21e>
  }

  /* Set the transaction information */
  hspi->State       = HAL_SPI_STATE_BUSY_RX;
 80072f8:	68fb      	ldr	r3, [r7, #12]
 80072fa:	2204      	movs	r2, #4
 80072fc:	f883 2051 	strb.w	r2, [r3, #81]	; 0x51
  hspi->ErrorCode   = HAL_SPI_ERROR_NONE;
 8007300:	68fb      	ldr	r3, [r7, #12]
 8007302:	2200      	movs	r2, #0
 8007304:	655a      	str	r2, [r3, #84]	; 0x54
  hspi->pRxBuffPtr  = (uint8_t *)pData;
 8007306:	68fb      	ldr	r3, [r7, #12]
 8007308:	68ba      	ldr	r2, [r7, #8]
 800730a:	639a      	str	r2, [r3, #56]	; 0x38
  hspi->RxXferSize  = Size;
 800730c:	68fb      	ldr	r3, [r7, #12]
 800730e:	88fa      	ldrh	r2, [r7, #6]
 8007310:	879a      	strh	r2, [r3, #60]	; 0x3c
  hspi->RxXferCount = Size;
 8007312:	68fb      	ldr	r3, [r7, #12]
 8007314:	88fa      	ldrh	r2, [r7, #6]
 8007316:	87da      	strh	r2, [r3, #62]	; 0x3e

  /*Init field not used in handle to zero */
  hspi->pTxBuffPtr  = (uint8_t *)NULL;
 8007318:	68fb      	ldr	r3, [r7, #12]
 800731a:	2200      	movs	r2, #0
 800731c:	631a      	str	r2, [r3, #48]	; 0x30
  hspi->TxXferSize  = 0U;
 800731e:	68fb      	ldr	r3, [r7, #12]
 8007320:	2200      	movs	r2, #0
 8007322:	869a      	strh	r2, [r3, #52]	; 0x34
  hspi->TxXferCount = 0U;
 8007324:	68fb      	ldr	r3, [r7, #12]
 8007326:	2200      	movs	r2, #0
 8007328:	86da      	strh	r2, [r3, #54]	; 0x36
  hspi->RxISR       = NULL;
 800732a:	68fb      	ldr	r3, [r7, #12]
 800732c:	2200      	movs	r2, #0
 800732e:	641a      	str	r2, [r3, #64]	; 0x40
  hspi->TxISR       = NULL;
 8007330:	68fb      	ldr	r3, [r7, #12]
 8007332:	2200      	movs	r2, #0
 8007334:	645a      	str	r2, [r3, #68]	; 0x44
    hspi->RxXferCount--;
  }
#endif /* USE_SPI_CRC */

  /* Configure communication direction: 1Line */
  if (hspi->Init.Direction == SPI_DIRECTION_1LINE)
 8007336:	68fb      	ldr	r3, [r7, #12]
 8007338:	689b      	ldr	r3, [r3, #8]
 800733a:	f5b3 4f00 	cmp.w	r3, #32768	; 0x8000
 800733e:	d10f      	bne.n	8007360 <HAL_SPI_Receive+0xec>
  {
    /* Disable SPI Peripheral before set 1Line direction (BIDIOE bit) */
    __HAL_SPI_DISABLE(hspi);
 8007340:	68fb      	ldr	r3, [r7, #12]
 8007342:	681b      	ldr	r3, [r3, #0]
 8007344:	681a      	ldr	r2, [r3, #0]
 8007346:	68fb      	ldr	r3, [r7, #12]
 8007348:	681b      	ldr	r3, [r3, #0]
 800734a:	f022 0240 	bic.w	r2, r2, #64	; 0x40
 800734e:	601a      	str	r2, [r3, #0]
    SPI_1LINE_RX(hspi);
 8007350:	68fb      	ldr	r3, [r7, #12]
 8007352:	681b      	ldr	r3, [r3, #0]
 8007354:	681a      	ldr	r2, [r3, #0]
 8007356:	68fb      	ldr	r3, [r7, #12]
 8007358:	681b      	ldr	r3, [r3, #0]
 800735a:	f422 4280 	bic.w	r2, r2, #16384	; 0x4000
 800735e:	601a      	str	r2, [r3, #0]
  }

  /* Check if the SPI is already enabled */
  if ((hspi->Instance->CR1 & SPI_CR1_SPE) != SPI_CR1_SPE)
 8007360:	68fb      	ldr	r3, [r7, #12]
 8007362:	681b      	ldr	r3, [r3, #0]
 8007364:	681b      	ldr	r3, [r3, #0]
 8007366:	f003 0340 	and.w	r3, r3, #64	; 0x40
 800736a:	2b40      	cmp	r3, #64	; 0x40
 800736c:	d007      	beq.n	800737e <HAL_SPI_Receive+0x10a>
  {
    /* Enable SPI peripheral */
    __HAL_SPI_ENABLE(hspi);
 800736e:	68fb      	ldr	r3, [r7, #12]
 8007370:	681b      	ldr	r3, [r3, #0]
 8007372:	681a      	ldr	r2, [r3, #0]
 8007374:	68fb      	ldr	r3, [r7, #12]
 8007376:	681b      	ldr	r3, [r3, #0]
 8007378:	f042 0240 	orr.w	r2, r2, #64	; 0x40
 800737c:	601a      	str	r2, [r3, #0]
  }

  /* Receive data in 8 Bit mode */
  if (hspi->Init.DataSize == SPI_DATASIZE_8BIT)
 800737e:	68fb      	ldr	r3, [r7, #12]
 8007380:	68db      	ldr	r3, [r3, #12]
 8007382:	2b00      	cmp	r3, #0
 8007384:	d16a      	bne.n	800745c <HAL_SPI_Receive+0x1e8>
  {
    /* Transfer loop */
    while (hspi->RxXferCount > 0U)
 8007386:	e032      	b.n	80073ee <HAL_SPI_Receive+0x17a>
    {
      /* Check the RXNE flag */
      if (__HAL_SPI_GET_FLAG(hspi, SPI_FLAG_RXNE))
 8007388:	68fb      	ldr	r3, [r7, #12]
 800738a:	681b      	ldr	r3, [r3, #0]
 800738c:	689b      	ldr	r3, [r3, #8]
 800738e:	f003 0301 	and.w	r3, r3, #1
 8007392:	2b01      	cmp	r3, #1
 8007394:	d115      	bne.n	80073c2 <HAL_SPI_Receive+0x14e>
      {
        /* read the received data */
        (* (uint8_t *)hspi->pRxBuffPtr) = *(__IO uint8_t *)&hspi->Instance->DR;
 8007396:	68fb      	ldr	r3, [r7, #12]
 8007398:	681b      	ldr	r3, [r3, #0]
 800739a:	f103 020c 	add.w	r2, r3, #12
 800739e:	68fb      	ldr	r3, [r7, #12]
 80073a0:	6b9b      	ldr	r3, [r3, #56]	; 0x38
 80073a2:	7812      	ldrb	r2, [r2, #0]
 80073a4:	b2d2      	uxtb	r2, r2
 80073a6:	701a      	strb	r2, [r3, #0]
        hspi->pRxBuffPtr += sizeof(uint8_t);
 80073a8:	68fb      	ldr	r3, [r7, #12]
 80073aa:	6b9b      	ldr	r3, [r3, #56]	; 0x38
 80073ac:	1c5a      	adds	r2, r3, #1
 80073ae:	68fb      	ldr	r3, [r7, #12]
 80073b0:	639a      	str	r2, [r3, #56]	; 0x38
        hspi->RxXferCount--;
 80073b2:	68fb      	ldr	r3, [r7, #12]
 80073b4:	8fdb      	ldrh	r3, [r3, #62]	; 0x3e
 80073b6:	b29b      	uxth	r3, r3
 80073b8:	3b01      	subs	r3, #1
 80073ba:	b29a      	uxth	r2, r3
 80073bc:	68fb      	ldr	r3, [r7, #12]
 80073be:	87da      	strh	r2, [r3, #62]	; 0x3e
 80073c0:	e015      	b.n	80073ee <HAL_SPI_Receive+0x17a>
      }
      else
      {
        /* Timeout management */
        if ((((HAL_GetTick() - tickstart) >=  Timeout) && (Timeout != HAL_MAX_DELAY)) || (Timeout == 0U))
 80073c2:	f7fb fe0d 	bl	8002fe0 <HAL_GetTick>
 80073c6:	4602      	mov	r2, r0
 80073c8:	693b      	ldr	r3, [r7, #16]
 80073ca:	1ad3      	subs	r3, r2, r3
 80073cc:	683a      	ldr	r2, [r7, #0]
 80073ce:	429a      	cmp	r2, r3
 80073d0:	d803      	bhi.n	80073da <HAL_SPI_Receive+0x166>
 80073d2:	683b      	ldr	r3, [r7, #0]
 80073d4:	f1b3 3fff 	cmp.w	r3, #4294967295	; 0xffffffff
 80073d8:	d102      	bne.n	80073e0 <HAL_SPI_Receive+0x16c>
 80073da:	683b      	ldr	r3, [r7, #0]
 80073dc:	2b00      	cmp	r3, #0
 80073de:	d106      	bne.n	80073ee <HAL_SPI_Receive+0x17a>
        {
          errorcode = HAL_TIMEOUT;
 80073e0:	2303      	movs	r3, #3
 80073e2:	75fb      	strb	r3, [r7, #23]
          hspi->State = HAL_SPI_STATE_READY;
 80073e4:	68fb      	ldr	r3, [r7, #12]
 80073e6:	2201      	movs	r2, #1
 80073e8:	f883 2051 	strb.w	r2, [r3, #81]	; 0x51
          goto error;
 80073ec:	e051      	b.n	8007492 <HAL_SPI_Receive+0x21e>
    while (hspi->RxXferCount > 0U)
 80073ee:	68fb      	ldr	r3, [r7, #12]
 80073f0:	8fdb      	ldrh	r3, [r3, #62]	; 0x3e
 80073f2:	b29b      	uxth	r3, r3
 80073f4:	2b00      	cmp	r3, #0
 80073f6:	d1c7      	bne.n	8007388 <HAL_SPI_Receive+0x114>
 80073f8:	e035      	b.n	8007466 <HAL_SPI_Receive+0x1f2>
  {
    /* Transfer loop */
    while (hspi->RxXferCount > 0U)
    {
      /* Check the RXNE flag */
      if (__HAL_SPI_GET_FLAG(hspi, SPI_FLAG_RXNE))
 80073fa:	68fb      	ldr	r3, [r7, #12]
 80073fc:	681b      	ldr	r3, [r3, #0]
 80073fe:	689b      	ldr	r3, [r3, #8]
 8007400:	f003 0301 	and.w	r3, r3, #1
 8007404:	2b01      	cmp	r3, #1
 8007406:	d113      	bne.n	8007430 <HAL_SPI_Receive+0x1bc>
      {
        *((uint16_t *)hspi->pRxBuffPtr) = (uint16_t)hspi->Instance->DR;
 8007408:	68fb      	ldr	r3, [r7, #12]
 800740a:	681b      	ldr	r3, [r3, #0]
 800740c:	68da      	ldr	r2, [r3, #12]
 800740e:	68fb      	ldr	r3, [r7, #12]
 8007410:	6b9b      	ldr	r3, [r3, #56]	; 0x38
 8007412:	b292      	uxth	r2, r2
 8007414:	801a      	strh	r2, [r3, #0]
        hspi->pRxBuffPtr += sizeof(uint16_t);
 8007416:	68fb      	ldr	r3, [r7, #12]
 8007418:	6b9b      	ldr	r3, [r3, #56]	; 0x38
 800741a:	1c9a      	adds	r2, r3, #2
 800741c:	68fb      	ldr	r3, [r7, #12]
 800741e:	639a      	str	r2, [r3, #56]	; 0x38
        hspi->RxXferCount--;
 8007420:	68fb      	ldr	r3, [r7, #12]
 8007422:	8fdb      	ldrh	r3, [r3, #62]	; 0x3e
 8007424:	b29b      	uxth	r3, r3
 8007426:	3b01      	subs	r3, #1
 8007428:	b29a      	uxth	r2, r3
 800742a:	68fb      	ldr	r3, [r7, #12]
 800742c:	87da      	strh	r2, [r3, #62]	; 0x3e
 800742e:	e015      	b.n	800745c <HAL_SPI_Receive+0x1e8>
      }
      else
      {
        /* Timeout management */
        if ((((HAL_GetTick() - tickstart) >=  Timeout) && (Timeout != HAL_MAX_DELAY)) || (Timeout == 0U))
 8007430:	f7fb fdd6 	bl	8002fe0 <HAL_GetTick>
 8007434:	4602      	mov	r2, r0
 8007436:	693b      	ldr	r3, [r7, #16]
 8007438:	1ad3      	subs	r3, r2, r3
 800743a:	683a      	ldr	r2, [r7, #0]
 800743c:	429a      	cmp	r2, r3
 800743e:	d803      	bhi.n	8007448 <HAL_SPI_Receive+0x1d4>
 8007440:	683b      	ldr	r3, [r7, #0]
 8007442:	f1b3 3fff 	cmp.w	r3, #4294967295	; 0xffffffff
 8007446:	d102      	bne.n	800744e <HAL_SPI_Receive+0x1da>
 8007448:	683b      	ldr	r3, [r7, #0]
 800744a:	2b00      	cmp	r3, #0
 800744c:	d106      	bne.n	800745c <HAL_SPI_Receive+0x1e8>
        {
          errorcode = HAL_TIMEOUT;
 800744e:	2303      	movs	r3, #3
 8007450:	75fb      	strb	r3, [r7, #23]
          hspi->State = HAL_SPI_STATE_READY;
 8007452:	68fb      	ldr	r3, [r7, #12]
 8007454:	2201      	movs	r2, #1
 8007456:	f883 2051 	strb.w	r2, [r3, #81]	; 0x51
          goto error;
 800745a:	e01a      	b.n	8007492 <HAL_SPI_Receive+0x21e>
    while (hspi->RxXferCount > 0U)
 800745c:	68fb      	ldr	r3, [r7, #12]
 800745e:	8fdb      	ldrh	r3, [r3, #62]	; 0x3e
 8007460:	b29b      	uxth	r3, r3
 8007462:	2b00      	cmp	r3, #0
 8007464:	d1c9      	bne.n	80073fa <HAL_SPI_Receive+0x186>
    UNUSED(tmpreg);
  }
#endif /* USE_SPI_CRC */

  /* Check the end of the transaction */
  if (SPI_EndRxTransaction(hspi, Timeout, tickstart) != HAL_OK)
 8007466:	693a      	ldr	r2, [r7, #16]
 8007468:	6839      	ldr	r1, [r7, #0]
 800746a:	68f8      	ldr	r0, [r7, #12]
 800746c:	f000 fb9a 	bl	8007ba4 <SPI_EndRxTransaction>
 8007470:	4603      	mov	r3, r0
 8007472:	2b00      	cmp	r3, #0
 8007474:	d002      	beq.n	800747c <HAL_SPI_Receive+0x208>
  {
    hspi->ErrorCode = HAL_SPI_ERROR_FLAG;
 8007476:	68fb      	ldr	r3, [r7, #12]
 8007478:	2220      	movs	r2, #32
 800747a:	655a      	str	r2, [r3, #84]	; 0x54
    SET_BIT(hspi->ErrorCode, HAL_SPI_ERROR_CRC);
    __HAL_SPI_CLEAR_CRCERRFLAG(hspi);
  }
#endif /* USE_SPI_CRC */

  if (hspi->ErrorCode != HAL_SPI_ERROR_NONE)
 800747c:	68fb      	ldr	r3, [r7, #12]
 800747e:	6d5b      	ldr	r3, [r3, #84]	; 0x54
 8007480:	2b00      	cmp	r3, #0
 8007482:	d002      	beq.n	800748a <HAL_SPI_Receive+0x216>
  {
    errorcode = HAL_ERROR;
 8007484:	2301      	movs	r3, #1
 8007486:	75fb      	strb	r3, [r7, #23]
 8007488:	e003      	b.n	8007492 <HAL_SPI_Receive+0x21e>
  }
  else
  {
    hspi->State = HAL_SPI_STATE_READY;
 800748a:	68fb      	ldr	r3, [r7, #12]
 800748c:	2201      	movs	r2, #1
 800748e:	f883 2051 	strb.w	r2, [r3, #81]	; 0x51
  }

error :
  __HAL_UNLOCK(hspi);
 8007492:	68fb      	ldr	r3, [r7, #12]
 8007494:	2200      	movs	r2, #0
 8007496:	f883 2050 	strb.w	r2, [r3, #80]	; 0x50
  return errorcode;
 800749a:	7dfb      	ldrb	r3, [r7, #23]
}
 800749c:	4618      	mov	r0, r3
 800749e:	3718      	adds	r7, #24
 80074a0:	46bd      	mov	sp, r7
 80074a2:	bd80      	pop	{r7, pc}

080074a4 <HAL_SPI_TransmitReceive>:
  * @param  Timeout Timeout duration
  * @retval HAL status
  */
HAL_StatusTypeDef HAL_SPI_TransmitReceive(SPI_HandleTypeDef *hspi, uint8_t *pTxData, uint8_t *pRxData, uint16_t Size,
                                          uint32_t Timeout)
{
 80074a4:	b580      	push	{r7, lr}
 80074a6:	b08c      	sub	sp, #48	; 0x30
 80074a8:	af00      	add	r7, sp, #0
 80074aa:	60f8      	str	r0, [r7, #12]
 80074ac:	60b9      	str	r1, [r7, #8]
 80074ae:	607a      	str	r2, [r7, #4]
 80074b0:	807b      	strh	r3, [r7, #2]
#if (USE_SPI_CRC != 0U)
  __IO uint32_t tmpreg = 0U;
#endif /* USE_SPI_CRC */

  /* Variable used to alternate Rx and Tx during transfer */
  uint32_t             txallowed = 1U;
 80074b2:	2301      	movs	r3, #1
 80074b4:	62fb      	str	r3, [r7, #44]	; 0x2c
  HAL_StatusTypeDef    errorcode = HAL_OK;
 80074b6:	2300      	movs	r3, #0
 80074b8:	f887 302b 	strb.w	r3, [r7, #43]	; 0x2b

  /* Check Direction parameter */
  assert_param(IS_SPI_DIRECTION_2LINES(hspi->Init.Direction));

  /* Process Locked */
  __HAL_LOCK(hspi);
 80074bc:	68fb      	ldr	r3, [r7, #12]
 80074be:	f893 3050 	ldrb.w	r3, [r3, #80]	; 0x50
 80074c2:	2b01      	cmp	r3, #1
 80074c4:	d101      	bne.n	80074ca <HAL_SPI_TransmitReceive+0x26>
 80074c6:	2302      	movs	r3, #2
 80074c8:	e198      	b.n	80077fc <HAL_SPI_TransmitReceive+0x358>
 80074ca:	68fb      	ldr	r3, [r7, #12]
 80074cc:	2201      	movs	r2, #1
 80074ce:	f883 2050 	strb.w	r2, [r3, #80]	; 0x50

  /* Init tickstart for timeout management*/
  tickstart = HAL_GetTick();
 80074d2:	f7fb fd85 	bl	8002fe0 <HAL_GetTick>
 80074d6:	6278      	str	r0, [r7, #36]	; 0x24

  /* Init temporary variables */
  tmp_state           = hspi->State;
 80074d8:	68fb      	ldr	r3, [r7, #12]
 80074da:	f893 3051 	ldrb.w	r3, [r3, #81]	; 0x51
 80074de:	f887 3023 	strb.w	r3, [r7, #35]	; 0x23
  tmp_mode            = hspi->Init.Mode;
 80074e2:	68fb      	ldr	r3, [r7, #12]
 80074e4:	685b      	ldr	r3, [r3, #4]
 80074e6:	61fb      	str	r3, [r7, #28]
  initial_TxXferCount = Size;
 80074e8:	887b      	ldrh	r3, [r7, #2]
 80074ea:	837b      	strh	r3, [r7, #26]

  if (!((tmp_state == HAL_SPI_STATE_READY) || \
 80074ec:	f897 3023 	ldrb.w	r3, [r7, #35]	; 0x23
 80074f0:	2b01      	cmp	r3, #1
 80074f2:	d00f      	beq.n	8007514 <HAL_SPI_TransmitReceive+0x70>
 80074f4:	69fb      	ldr	r3, [r7, #28]
 80074f6:	f5b3 7f82 	cmp.w	r3, #260	; 0x104
 80074fa:	d107      	bne.n	800750c <HAL_SPI_TransmitReceive+0x68>
        ((tmp_mode == SPI_MODE_MASTER) && (hspi->Init.Direction == SPI_DIRECTION_2LINES) && (tmp_state == HAL_SPI_STATE_BUSY_RX))))
 80074fc:	68fb      	ldr	r3, [r7, #12]
 80074fe:	689b      	ldr	r3, [r3, #8]
 8007500:	2b00      	cmp	r3, #0
 8007502:	d103      	bne.n	800750c <HAL_SPI_TransmitReceive+0x68>
 8007504:	f897 3023 	ldrb.w	r3, [r7, #35]	; 0x23
 8007508:	2b04      	cmp	r3, #4
 800750a:	d003      	beq.n	8007514 <HAL_SPI_TransmitReceive+0x70>
  {
    errorcode = HAL_BUSY;
 800750c:	2302      	movs	r3, #2
 800750e:	f887 302b 	strb.w	r3, [r7, #43]	; 0x2b
    goto error;
 8007512:	e16d      	b.n	80077f0 <HAL_SPI_TransmitReceive+0x34c>
  }

  if ((pTxData == NULL) || (pRxData == NULL) || (Size == 0U))
 8007514:	68bb      	ldr	r3, [r7, #8]
 8007516:	2b00      	cmp	r3, #0
 8007518:	d005      	beq.n	8007526 <HAL_SPI_TransmitReceive+0x82>
 800751a:	687b      	ldr	r3, [r7, #4]
 800751c:	2b00      	cmp	r3, #0
 800751e:	d002      	beq.n	8007526 <HAL_SPI_TransmitReceive+0x82>
 8007520:	887b      	ldrh	r3, [r7, #2]
 8007522:	2b00      	cmp	r3, #0
 8007524:	d103      	bne.n	800752e <HAL_SPI_TransmitReceive+0x8a>
  {
    errorcode = HAL_ERROR;
 8007526:	2301      	movs	r3, #1
 8007528:	f887 302b 	strb.w	r3, [r7, #43]	; 0x2b
    goto error;
 800752c:	e160      	b.n	80077f0 <HAL_SPI_TransmitReceive+0x34c>
  }

  /* Don't overwrite in case of HAL_SPI_STATE_BUSY_RX */
  if (hspi->State != HAL_SPI_STATE_BUSY_RX)
 800752e:	68fb      	ldr	r3, [r7, #12]
 8007530:	f893 3051 	ldrb.w	r3, [r3, #81]	; 0x51
 8007534:	b2db      	uxtb	r3, r3
 8007536:	2b04      	cmp	r3, #4
 8007538:	d003      	beq.n	8007542 <HAL_SPI_TransmitReceive+0x9e>
  {
    hspi->State = HAL_SPI_STATE_BUSY_TX_RX;
 800753a:	68fb      	ldr	r3, [r7, #12]
 800753c:	2205      	movs	r2, #5
 800753e:	f883 2051 	strb.w	r2, [r3, #81]	; 0x51
  }

  /* Set the transaction information */
  hspi->ErrorCode   = HAL_SPI_ERROR_NONE;
 8007542:	68fb      	ldr	r3, [r7, #12]
 8007544:	2200      	movs	r2, #0
 8007546:	655a      	str	r2, [r3, #84]	; 0x54
  hspi->pRxBuffPtr  = (uint8_t *)pRxData;
 8007548:	68fb      	ldr	r3, [r7, #12]
 800754a:	687a      	ldr	r2, [r7, #4]
 800754c:	639a      	str	r2, [r3, #56]	; 0x38
  hspi->RxXferCount = Size;
 800754e:	68fb      	ldr	r3, [r7, #12]
 8007550:	887a      	ldrh	r2, [r7, #2]
 8007552:	87da      	strh	r2, [r3, #62]	; 0x3e
  hspi->RxXferSize  = Size;
 8007554:	68fb      	ldr	r3, [r7, #12]
 8007556:	887a      	ldrh	r2, [r7, #2]
 8007558:	879a      	strh	r2, [r3, #60]	; 0x3c
  hspi->pTxBuffPtr  = (uint8_t *)pTxData;
 800755a:	68fb      	ldr	r3, [r7, #12]
 800755c:	68ba      	ldr	r2, [r7, #8]
 800755e:	631a      	str	r2, [r3, #48]	; 0x30
  hspi->TxXferCount = Size;
 8007560:	68fb      	ldr	r3, [r7, #12]
 8007562:	887a      	ldrh	r2, [r7, #2]
 8007564:	86da      	strh	r2, [r3, #54]	; 0x36
  hspi->TxXferSize  = Size;
 8007566:	68fb      	ldr	r3, [r7, #12]
 8007568:	887a      	ldrh	r2, [r7, #2]
 800756a:	869a      	strh	r2, [r3, #52]	; 0x34

  /*Init field not used in handle to zero */
  hspi->RxISR       = NULL;
 800756c:	68fb      	ldr	r3, [r7, #12]
 800756e:	2200      	movs	r2, #0
 8007570:	641a      	str	r2, [r3, #64]	; 0x40
  hspi->TxISR       = NULL;
 8007572:	68fb      	ldr	r3, [r7, #12]
 8007574:	2200      	movs	r2, #0
 8007576:	645a      	str	r2, [r3, #68]	; 0x44
    SPI_RESET_CRC(hspi);
  }
#endif /* USE_SPI_CRC */

  /* Check if the SPI is already enabled */
  if ((hspi->Instance->CR1 & SPI_CR1_SPE) != SPI_CR1_SPE)
 8007578:	68fb      	ldr	r3, [r7, #12]
 800757a:	681b      	ldr	r3, [r3, #0]
 800757c:	681b      	ldr	r3, [r3, #0]
 800757e:	f003 0340 	and.w	r3, r3, #64	; 0x40
 8007582:	2b40      	cmp	r3, #64	; 0x40
 8007584:	d007      	beq.n	8007596 <HAL_SPI_TransmitReceive+0xf2>
  {
    /* Enable SPI peripheral */
    __HAL_SPI_ENABLE(hspi);
 8007586:	68fb      	ldr	r3, [r7, #12]
 8007588:	681b      	ldr	r3, [r3, #0]
 800758a:	681a      	ldr	r2, [r3, #0]
 800758c:	68fb      	ldr	r3, [r7, #12]
 800758e:	681b      	ldr	r3, [r3, #0]
 8007590:	f042 0240 	orr.w	r2, r2, #64	; 0x40
 8007594:	601a      	str	r2, [r3, #0]
  }

  /* Transmit and Receive data in 16 Bit mode */
  if (hspi->Init.DataSize == SPI_DATASIZE_16BIT)
 8007596:	68fb      	ldr	r3, [r7, #12]
 8007598:	68db      	ldr	r3, [r3, #12]
 800759a:	f5b3 6f00 	cmp.w	r3, #2048	; 0x800
 800759e:	d17c      	bne.n	800769a <HAL_SPI_TransmitReceive+0x1f6>
  {
    if ((hspi->Init.Mode == SPI_MODE_SLAVE) || (initial_TxXferCount == 0x01U))
 80075a0:	68fb      	ldr	r3, [r7, #12]
 80075a2:	685b      	ldr	r3, [r3, #4]
 80075a4:	2b00      	cmp	r3, #0
 80075a6:	d002      	beq.n	80075ae <HAL_SPI_TransmitReceive+0x10a>
 80075a8:	8b7b      	ldrh	r3, [r7, #26]
 80075aa:	2b01      	cmp	r3, #1
 80075ac:	d16a      	bne.n	8007684 <HAL_SPI_TransmitReceive+0x1e0>
    {
      hspi->Instance->DR = *((uint16_t *)hspi->pTxBuffPtr);
 80075ae:	68fb      	ldr	r3, [r7, #12]
 80075b0:	6b1b      	ldr	r3, [r3, #48]	; 0x30
 80075b2:	881a      	ldrh	r2, [r3, #0]
 80075b4:	68fb      	ldr	r3, [r7, #12]
 80075b6:	681b      	ldr	r3, [r3, #0]
 80075b8:	60da      	str	r2, [r3, #12]
      hspi->pTxBuffPtr += sizeof(uint16_t);
 80075ba:	68fb      	ldr	r3, [r7, #12]
 80075bc:	6b1b      	ldr	r3, [r3, #48]	; 0x30
 80075be:	1c9a      	adds	r2, r3, #2
 80075c0:	68fb      	ldr	r3, [r7, #12]
 80075c2:	631a      	str	r2, [r3, #48]	; 0x30
      hspi->TxXferCount--;
 80075c4:	68fb      	ldr	r3, [r7, #12]
 80075c6:	8edb      	ldrh	r3, [r3, #54]	; 0x36
 80075c8:	b29b      	uxth	r3, r3
 80075ca:	3b01      	subs	r3, #1
 80075cc:	b29a      	uxth	r2, r3
 80075ce:	68fb      	ldr	r3, [r7, #12]
 80075d0:	86da      	strh	r2, [r3, #54]	; 0x36
        SET_BIT(hspi->Instance->CR1, SPI_CR1_CRCNEXT);
      }
#endif /* USE_SPI_CRC */

    }
    while ((hspi->TxXferCount > 0U) || (hspi->RxXferCount > 0U))
 80075d2:	e057      	b.n	8007684 <HAL_SPI_TransmitReceive+0x1e0>
    {
      /* Check TXE flag */
      if ((__HAL_SPI_GET_FLAG(hspi, SPI_FLAG_TXE)) && (hspi->TxXferCount > 0U) && (txallowed == 1U))
 80075d4:	68fb      	ldr	r3, [r7, #12]
 80075d6:	681b      	ldr	r3, [r3, #0]
 80075d8:	689b      	ldr	r3, [r3, #8]
 80075da:	f003 0302 	and.w	r3, r3, #2
 80075de:	2b02      	cmp	r3, #2
 80075e0:	d11b      	bne.n	800761a <HAL_SPI_TransmitReceive+0x176>
 80075e2:	68fb      	ldr	r3, [r7, #12]
 80075e4:	8edb      	ldrh	r3, [r3, #54]	; 0x36
 80075e6:	b29b      	uxth	r3, r3
 80075e8:	2b00      	cmp	r3, #0
 80075ea:	d016      	beq.n	800761a <HAL_SPI_TransmitReceive+0x176>
 80075ec:	6afb      	ldr	r3, [r7, #44]	; 0x2c
 80075ee:	2b01      	cmp	r3, #1
 80075f0:	d113      	bne.n	800761a <HAL_SPI_TransmitReceive+0x176>
      {
        hspi->Instance->DR = *((uint16_t *)hspi->pTxBuffPtr);
 80075f2:	68fb      	ldr	r3, [r7, #12]
 80075f4:	6b1b      	ldr	r3, [r3, #48]	; 0x30
 80075f6:	881a      	ldrh	r2, [r3, #0]
 80075f8:	68fb      	ldr	r3, [r7, #12]
 80075fa:	681b      	ldr	r3, [r3, #0]
 80075fc:	60da      	str	r2, [r3, #12]
        hspi->pTxBuffPtr += sizeof(uint16_t);
 80075fe:	68fb      	ldr	r3, [r7, #12]
 8007600:	6b1b      	ldr	r3, [r3, #48]	; 0x30
 8007602:	1c9a      	adds	r2, r3, #2
 8007604:	68fb      	ldr	r3, [r7, #12]
 8007606:	631a      	str	r2, [r3, #48]	; 0x30
        hspi->TxXferCount--;
 8007608:	68fb      	ldr	r3, [r7, #12]
 800760a:	8edb      	ldrh	r3, [r3, #54]	; 0x36
 800760c:	b29b      	uxth	r3, r3
 800760e:	3b01      	subs	r3, #1
 8007610:	b29a      	uxth	r2, r3
 8007612:	68fb      	ldr	r3, [r7, #12]
 8007614:	86da      	strh	r2, [r3, #54]	; 0x36
        /* Next Data is a reception (Rx). Tx not allowed */
        txallowed = 0U;
 8007616:	2300      	movs	r3, #0
 8007618:	62fb      	str	r3, [r7, #44]	; 0x2c
        }
#endif /* USE_SPI_CRC */
      }

      /* Check RXNE flag */
      if ((__HAL_SPI_GET_FLAG(hspi, SPI_FLAG_RXNE)) && (hspi->RxXferCount > 0U))
 800761a:	68fb      	ldr	r3, [r7, #12]
 800761c:	681b      	ldr	r3, [r3, #0]
 800761e:	689b      	ldr	r3, [r3, #8]
 8007620:	f003 0301 	and.w	r3, r3, #1
 8007624:	2b01      	cmp	r3, #1
 8007626:	d119      	bne.n	800765c <HAL_SPI_TransmitReceive+0x1b8>
 8007628:	68fb      	ldr	r3, [r7, #12]
 800762a:	8fdb      	ldrh	r3, [r3, #62]	; 0x3e
 800762c:	b29b      	uxth	r3, r3
 800762e:	2b00      	cmp	r3, #0
 8007630:	d014      	beq.n	800765c <HAL_SPI_TransmitReceive+0x1b8>
      {
        *((uint16_t *)hspi->pRxBuffPtr) = (uint16_t)hspi->Instance->DR;
 8007632:	68fb      	ldr	r3, [r7, #12]
 8007634:	681b      	ldr	r3, [r3, #0]
 8007636:	68da      	ldr	r2, [r3, #12]
 8007638:	68fb      	ldr	r3, [r7, #12]
 800763a:	6b9b      	ldr	r3, [r3, #56]	; 0x38
 800763c:	b292      	uxth	r2, r2
 800763e:	801a      	strh	r2, [r3, #0]
        hspi->pRxBuffPtr += sizeof(uint16_t);
 8007640:	68fb      	ldr	r3, [r7, #12]
 8007642:	6b9b      	ldr	r3, [r3, #56]	; 0x38
 8007644:	1c9a      	adds	r2, r3, #2
 8007646:	68fb      	ldr	r3, [r7, #12]
 8007648:	639a      	str	r2, [r3, #56]	; 0x38
        hspi->RxXferCount--;
 800764a:	68fb      	ldr	r3, [r7, #12]
 800764c:	8fdb      	ldrh	r3, [r3, #62]	; 0x3e
 800764e:	b29b      	uxth	r3, r3
 8007650:	3b01      	subs	r3, #1
 8007652:	b29a      	uxth	r2, r3
 8007654:	68fb      	ldr	r3, [r7, #12]
 8007656:	87da      	strh	r2, [r3, #62]	; 0x3e
        /* Next Data is a Transmission (Tx). Tx is allowed */
        txallowed = 1U;
 8007658:	2301      	movs	r3, #1
 800765a:	62fb      	str	r3, [r7, #44]	; 0x2c
      }
      if (((HAL_GetTick() - tickstart) >=  Timeout) && (Timeout != HAL_MAX_DELAY))
 800765c:	f7fb fcc0 	bl	8002fe0 <HAL_GetTick>
 8007660:	4602      	mov	r2, r0
 8007662:	6a7b      	ldr	r3, [r7, #36]	; 0x24
 8007664:	1ad3      	subs	r3, r2, r3
 8007666:	6bba      	ldr	r2, [r7, #56]	; 0x38
 8007668:	429a      	cmp	r2, r3
 800766a:	d80b      	bhi.n	8007684 <HAL_SPI_TransmitReceive+0x1e0>
 800766c:	6bbb      	ldr	r3, [r7, #56]	; 0x38
 800766e:	f1b3 3fff 	cmp.w	r3, #4294967295	; 0xffffffff
 8007672:	d007      	beq.n	8007684 <HAL_SPI_TransmitReceive+0x1e0>
      {
        errorcode = HAL_TIMEOUT;
 8007674:	2303      	movs	r3, #3
 8007676:	f887 302b 	strb.w	r3, [r7, #43]	; 0x2b
        hspi->State = HAL_SPI_STATE_READY;
 800767a:	68fb      	ldr	r3, [r7, #12]
 800767c:	2201      	movs	r2, #1
 800767e:	f883 2051 	strb.w	r2, [r3, #81]	; 0x51
        goto error;
 8007682:	e0b5      	b.n	80077f0 <HAL_SPI_TransmitReceive+0x34c>
    while ((hspi->TxXferCount > 0U) || (hspi->RxXferCount > 0U))
 8007684:	68fb      	ldr	r3, [r7, #12]
 8007686:	8edb      	ldrh	r3, [r3, #54]	; 0x36
 8007688:	b29b      	uxth	r3, r3
 800768a:	2b00      	cmp	r3, #0
 800768c:	d1a2      	bne.n	80075d4 <HAL_SPI_TransmitReceive+0x130>
 800768e:	68fb      	ldr	r3, [r7, #12]
 8007690:	8fdb      	ldrh	r3, [r3, #62]	; 0x3e
 8007692:	b29b      	uxth	r3, r3
 8007694:	2b00      	cmp	r3, #0
 8007696:	d19d      	bne.n	80075d4 <HAL_SPI_TransmitReceive+0x130>
 8007698:	e080      	b.n	800779c <HAL_SPI_TransmitReceive+0x2f8>
    }
  }
  /* Transmit and Receive data in 8 Bit mode */
  else
  {
    if ((hspi->Init.Mode == SPI_MODE_SLAVE) || (initial_TxXferCount == 0x01U))
 800769a:	68fb      	ldr	r3, [r7, #12]
 800769c:	685b      	ldr	r3, [r3, #4]
 800769e:	2b00      	cmp	r3, #0
 80076a0:	d002      	beq.n	80076a8 <HAL_SPI_TransmitReceive+0x204>
 80076a2:	8b7b      	ldrh	r3, [r7, #26]
 80076a4:	2b01      	cmp	r3, #1
 80076a6:	d16f      	bne.n	8007788 <HAL_SPI_TransmitReceive+0x2e4>
    {
      *((__IO uint8_t *)&hspi->Instance->DR) = (*hspi->pTxBuffPtr);
 80076a8:	68fb      	ldr	r3, [r7, #12]
 80076aa:	6b1a      	ldr	r2, [r3, #48]	; 0x30
 80076ac:	68fb      	ldr	r3, [r7, #12]
 80076ae:	681b      	ldr	r3, [r3, #0]
 80076b0:	330c      	adds	r3, #12
 80076b2:	7812      	ldrb	r2, [r2, #0]
 80076b4:	701a      	strb	r2, [r3, #0]
      hspi->pTxBuffPtr += sizeof(uint8_t);
 80076b6:	68fb      	ldr	r3, [r7, #12]
 80076b8:	6b1b      	ldr	r3, [r3, #48]	; 0x30
 80076ba:	1c5a      	adds	r2, r3, #1
 80076bc:	68fb      	ldr	r3, [r7, #12]
 80076be:	631a      	str	r2, [r3, #48]	; 0x30
      hspi->TxXferCount--;
 80076c0:	68fb      	ldr	r3, [r7, #12]
 80076c2:	8edb      	ldrh	r3, [r3, #54]	; 0x36
 80076c4:	b29b      	uxth	r3, r3
 80076c6:	3b01      	subs	r3, #1
 80076c8:	b29a      	uxth	r2, r3
 80076ca:	68fb      	ldr	r3, [r7, #12]
 80076cc:	86da      	strh	r2, [r3, #54]	; 0x36
      {
        SET_BIT(hspi->Instance->CR1, SPI_CR1_CRCNEXT);
      }
#endif /* USE_SPI_CRC */
    }
    while ((hspi->TxXferCount > 0U) || (hspi->RxXferCount > 0U))
 80076ce:	e05b      	b.n	8007788 <HAL_SPI_TransmitReceive+0x2e4>
    {
      /* Check TXE flag */
      if ((__HAL_SPI_GET_FLAG(hspi, SPI_FLAG_TXE)) && (hspi->TxXferCount > 0U) && (txallowed == 1U))
 80076d0:	68fb      	ldr	r3, [r7, #12]
 80076d2:	681b      	ldr	r3, [r3, #0]
 80076d4:	689b      	ldr	r3, [r3, #8]
 80076d6:	f003 0302 	and.w	r3, r3, #2
 80076da:	2b02      	cmp	r3, #2
 80076dc:	d11c      	bne.n	8007718 <HAL_SPI_TransmitReceive+0x274>
 80076de:	68fb      	ldr	r3, [r7, #12]
 80076e0:	8edb      	ldrh	r3, [r3, #54]	; 0x36
 80076e2:	b29b      	uxth	r3, r3
 80076e4:	2b00      	cmp	r3, #0
 80076e6:	d017      	beq.n	8007718 <HAL_SPI_TransmitReceive+0x274>
 80076e8:	6afb      	ldr	r3, [r7, #44]	; 0x2c
 80076ea:	2b01      	cmp	r3, #1
 80076ec:	d114      	bne.n	8007718 <HAL_SPI_TransmitReceive+0x274>
      {
        *(__IO uint8_t *)&hspi->Instance->DR = (*hspi->pTxBuffPtr);
 80076ee:	68fb      	ldr	r3, [r7, #12]
 80076f0:	6b1a      	ldr	r2, [r3, #48]	; 0x30
 80076f2:	68fb      	ldr	r3, [r7, #12]
 80076f4:	681b      	ldr	r3, [r3, #0]
 80076f6:	330c      	adds	r3, #12
 80076f8:	7812      	ldrb	r2, [r2, #0]
 80076fa:	701a      	strb	r2, [r3, #0]
        hspi->pTxBuffPtr++;
 80076fc:	68fb      	ldr	r3, [r7, #12]
 80076fe:	6b1b      	ldr	r3, [r3, #48]	; 0x30
 8007700:	1c5a      	adds	r2, r3, #1
 8007702:	68fb      	ldr	r3, [r7, #12]
 8007704:	631a      	str	r2, [r3, #48]	; 0x30
        hspi->TxXferCount--;
 8007706:	68fb      	ldr	r3, [r7, #12]
 8007708:	8edb      	ldrh	r3, [r3, #54]	; 0x36
 800770a:	b29b      	uxth	r3, r3
 800770c:	3b01      	subs	r3, #1
 800770e:	b29a      	uxth	r2, r3
 8007710:	68fb      	ldr	r3, [r7, #12]
 8007712:	86da      	strh	r2, [r3, #54]	; 0x36
        /* Next Data is a reception (Rx). Tx not allowed */
        txallowed = 0U;
 8007714:	2300      	movs	r3, #0
 8007716:	62fb      	str	r3, [r7, #44]	; 0x2c
        }
#endif /* USE_SPI_CRC */
      }

      /* Wait until RXNE flag is reset */
      if ((__HAL_SPI_GET_FLAG(hspi, SPI_FLAG_RXNE)) && (hspi->RxXferCount > 0U))
 8007718:	68fb      	ldr	r3, [r7, #12]
 800771a:	681b      	ldr	r3, [r3, #0]
 800771c:	689b      	ldr	r3, [r3, #8]
 800771e:	f003 0301 	and.w	r3, r3, #1
 8007722:	2b01      	cmp	r3, #1
 8007724:	d119      	bne.n	800775a <HAL_SPI_TransmitReceive+0x2b6>
 8007726:	68fb      	ldr	r3, [r7, #12]
 8007728:	8fdb      	ldrh	r3, [r3, #62]	; 0x3e
 800772a:	b29b      	uxth	r3, r3
 800772c:	2b00      	cmp	r3, #0
 800772e:	d014      	beq.n	800775a <HAL_SPI_TransmitReceive+0x2b6>
      {
        (*(uint8_t *)hspi->pRxBuffPtr) = hspi->Instance->DR;
 8007730:	68fb      	ldr	r3, [r7, #12]
 8007732:	681b      	ldr	r3, [r3, #0]
 8007734:	68da      	ldr	r2, [r3, #12]
 8007736:	68fb      	ldr	r3, [r7, #12]
 8007738:	6b9b      	ldr	r3, [r3, #56]	; 0x38
 800773a:	b2d2      	uxtb	r2, r2
 800773c:	701a      	strb	r2, [r3, #0]
        hspi->pRxBuffPtr++;
 800773e:	68fb      	ldr	r3, [r7, #12]
 8007740:	6b9b      	ldr	r3, [r3, #56]	; 0x38
 8007742:	1c5a      	adds	r2, r3, #1
 8007744:	68fb      	ldr	r3, [r7, #12]
 8007746:	639a      	str	r2, [r3, #56]	; 0x38
        hspi->RxXferCount--;
 8007748:	68fb      	ldr	r3, [r7, #12]
 800774a:	8fdb      	ldrh	r3, [r3, #62]	; 0x3e
 800774c:	b29b      	uxth	r3, r3
 800774e:	3b01      	subs	r3, #1
 8007750:	b29a      	uxth	r2, r3
 8007752:	68fb      	ldr	r3, [r7, #12]
 8007754:	87da      	strh	r2, [r3, #62]	; 0x3e
        /* Next Data is a Transmission (Tx). Tx is allowed */
        txallowed = 1U;
 8007756:	2301      	movs	r3, #1
 8007758:	62fb      	str	r3, [r7, #44]	; 0x2c
      }
      if ((((HAL_GetTick() - tickstart) >=  Timeout) && ((Timeout != HAL_MAX_DELAY))) || (Timeout == 0U))
 800775a:	f7fb fc41 	bl	8002fe0 <HAL_GetTick>
 800775e:	4602      	mov	r2, r0
 8007760:	6a7b      	ldr	r3, [r7, #36]	; 0x24
 8007762:	1ad3      	subs	r3, r2, r3
 8007764:	6bba      	ldr	r2, [r7, #56]	; 0x38
 8007766:	429a      	cmp	r2, r3
 8007768:	d803      	bhi.n	8007772 <HAL_SPI_TransmitReceive+0x2ce>
 800776a:	6bbb      	ldr	r3, [r7, #56]	; 0x38
 800776c:	f1b3 3fff 	cmp.w	r3, #4294967295	; 0xffffffff
 8007770:	d102      	bne.n	8007778 <HAL_SPI_TransmitReceive+0x2d4>
 8007772:	6bbb      	ldr	r3, [r7, #56]	; 0x38
 8007774:	2b00      	cmp	r3, #0
 8007776:	d107      	bne.n	8007788 <HAL_SPI_TransmitReceive+0x2e4>
      {
        errorcode = HAL_TIMEOUT;
 8007778:	2303      	movs	r3, #3
 800777a:	f887 302b 	strb.w	r3, [r7, #43]	; 0x2b
        hspi->State = HAL_SPI_STATE_READY;
 800777e:	68fb      	ldr	r3, [r7, #12]
 8007780:	2201      	movs	r2, #1
 8007782:	f883 2051 	strb.w	r2, [r3, #81]	; 0x51
        goto error;
 8007786:	e033      	b.n	80077f0 <HAL_SPI_TransmitReceive+0x34c>
    while ((hspi->TxXferCount > 0U) || (hspi->RxXferCount > 0U))
 8007788:	68fb      	ldr	r3, [r7, #12]
 800778a:	8edb      	ldrh	r3, [r3, #54]	; 0x36
 800778c:	b29b      	uxth	r3, r3
 800778e:	2b00      	cmp	r3, #0
 8007790:	d19e      	bne.n	80076d0 <HAL_SPI_TransmitReceive+0x22c>
 8007792:	68fb      	ldr	r3, [r7, #12]
 8007794:	8fdb      	ldrh	r3, [r3, #62]	; 0x3e
 8007796:	b29b      	uxth	r3, r3
 8007798:	2b00      	cmp	r3, #0
 800779a:	d199      	bne.n	80076d0 <HAL_SPI_TransmitReceive+0x22c>
    errorcode = HAL_ERROR;
  }
#endif /* USE_SPI_CRC */

  /* Check the end of the transaction */
  if (SPI_EndRxTxTransaction(hspi, Timeout, tickstart) != HAL_OK)
 800779c:	6a7a      	ldr	r2, [r7, #36]	; 0x24
 800779e:	6bb9      	ldr	r1, [r7, #56]	; 0x38
 80077a0:	68f8      	ldr	r0, [r7, #12]
 80077a2:	f000 fa65 	bl	8007c70 <SPI_EndRxTxTransaction>
 80077a6:	4603      	mov	r3, r0
 80077a8:	2b00      	cmp	r3, #0
 80077aa:	d006      	beq.n	80077ba <HAL_SPI_TransmitReceive+0x316>
  {
    errorcode = HAL_ERROR;
 80077ac:	2301      	movs	r3, #1
 80077ae:	f887 302b 	strb.w	r3, [r7, #43]	; 0x2b
    hspi->ErrorCode = HAL_SPI_ERROR_FLAG;
 80077b2:	68fb      	ldr	r3, [r7, #12]
 80077b4:	2220      	movs	r2, #32
 80077b6:	655a      	str	r2, [r3, #84]	; 0x54
    goto error;
 80077b8:	e01a      	b.n	80077f0 <HAL_SPI_TransmitReceive+0x34c>
  }

  /* Clear overrun flag in 2 Lines communication mode because received is not read */
  if (hspi->Init.Direction == SPI_DIRECTION_2LINES)
 80077ba:	68fb      	ldr	r3, [r7, #12]
 80077bc:	689b      	ldr	r3, [r3, #8]
 80077be:	2b00      	cmp	r3, #0
 80077c0:	d10a      	bne.n	80077d8 <HAL_SPI_TransmitReceive+0x334>
  {
    __HAL_SPI_CLEAR_OVRFLAG(hspi);
 80077c2:	2300      	movs	r3, #0
 80077c4:	617b      	str	r3, [r7, #20]
 80077c6:	68fb      	ldr	r3, [r7, #12]
 80077c8:	681b      	ldr	r3, [r3, #0]
 80077ca:	68db      	ldr	r3, [r3, #12]
 80077cc:	617b      	str	r3, [r7, #20]
 80077ce:	68fb      	ldr	r3, [r7, #12]
 80077d0:	681b      	ldr	r3, [r3, #0]
 80077d2:	689b      	ldr	r3, [r3, #8]
 80077d4:	617b      	str	r3, [r7, #20]
 80077d6:	697b      	ldr	r3, [r7, #20]
  }

  if (hspi->ErrorCode != HAL_SPI_ERROR_NONE)
 80077d8:	68fb      	ldr	r3, [r7, #12]
 80077da:	6d5b      	ldr	r3, [r3, #84]	; 0x54
 80077dc:	2b00      	cmp	r3, #0
 80077de:	d003      	beq.n	80077e8 <HAL_SPI_TransmitReceive+0x344>
  {
    errorcode = HAL_ERROR;
 80077e0:	2301      	movs	r3, #1
 80077e2:	f887 302b 	strb.w	r3, [r7, #43]	; 0x2b
 80077e6:	e003      	b.n	80077f0 <HAL_SPI_TransmitReceive+0x34c>
  }
  else
  {
    hspi->State = HAL_SPI_STATE_READY;
 80077e8:	68fb      	ldr	r3, [r7, #12]
 80077ea:	2201      	movs	r2, #1
 80077ec:	f883 2051 	strb.w	r2, [r3, #81]	; 0x51
  }
  
error :
  __HAL_UNLOCK(hspi);
 80077f0:	68fb      	ldr	r3, [r7, #12]
 80077f2:	2200      	movs	r2, #0
 80077f4:	f883 2050 	strb.w	r2, [r3, #80]	; 0x50
  return errorcode;
 80077f8:	f897 302b 	ldrb.w	r3, [r7, #43]	; 0x2b
}
 80077fc:	4618      	mov	r0, r3
 80077fe:	3730      	adds	r7, #48	; 0x30
 8007800:	46bd      	mov	sp, r7
 8007802:	bd80      	pop	{r7, pc}

08007804 <HAL_SPI_Transmit_DMA>:
  * @param  pData pointer to data buffer
  * @param  Size amount of data to be sent
  * @retval HAL status
  */
HAL_StatusTypeDef HAL_SPI_Transmit_DMA(SPI_HandleTypeDef *hspi, uint8_t *pData, uint16_t Size)
{
 8007804:	b580      	push	{r7, lr}
 8007806:	b086      	sub	sp, #24
 8007808:	af00      	add	r7, sp, #0
 800780a:	60f8      	str	r0, [r7, #12]
 800780c:	60b9      	str	r1, [r7, #8]
 800780e:	4613      	mov	r3, r2
 8007810:	80fb      	strh	r3, [r7, #6]
  HAL_StatusTypeDef errorcode = HAL_OK;
 8007812:	2300      	movs	r3, #0
 8007814:	75fb      	strb	r3, [r7, #23]

  /* Check Direction parameter */
  assert_param(IS_SPI_DIRECTION_2LINES_OR_1LINE(hspi->Init.Direction));

  /* Process Locked */
  __HAL_LOCK(hspi);
 8007816:	68fb      	ldr	r3, [r7, #12]
 8007818:	f893 3050 	ldrb.w	r3, [r3, #80]	; 0x50
 800781c:	2b01      	cmp	r3, #1
 800781e:	d101      	bne.n	8007824 <HAL_SPI_Transmit_DMA+0x20>
 8007820:	2302      	movs	r3, #2
 8007822:	e097      	b.n	8007954 <HAL_SPI_Transmit_DMA+0x150>
 8007824:	68fb      	ldr	r3, [r7, #12]
 8007826:	2201      	movs	r2, #1
 8007828:	f883 2050 	strb.w	r2, [r3, #80]	; 0x50

  if (hspi->State != HAL_SPI_STATE_READY)
 800782c:	68fb      	ldr	r3, [r7, #12]
 800782e:	f893 3051 	ldrb.w	r3, [r3, #81]	; 0x51
 8007832:	b2db      	uxtb	r3, r3
 8007834:	2b01      	cmp	r3, #1
 8007836:	d002      	beq.n	800783e <HAL_SPI_Transmit_DMA+0x3a>
  {
    errorcode = HAL_BUSY;
 8007838:	2302      	movs	r3, #2
 800783a:	75fb      	strb	r3, [r7, #23]
    goto error;
 800783c:	e085      	b.n	800794a <HAL_SPI_Transmit_DMA+0x146>
  }

  if ((pData == NULL) || (Size == 0U))
 800783e:	68bb      	ldr	r3, [r7, #8]
 8007840:	2b00      	cmp	r3, #0
 8007842:	d002      	beq.n	800784a <HAL_SPI_Transmit_DMA+0x46>
 8007844:	88fb      	ldrh	r3, [r7, #6]
 8007846:	2b00      	cmp	r3, #0
 8007848:	d102      	bne.n	8007850 <HAL_SPI_Transmit_DMA+0x4c>
  {
    errorcode = HAL_ERROR;
 800784a:	2301      	movs	r3, #1
 800784c:	75fb      	strb	r3, [r7, #23]
    goto error;
 800784e:	e07c      	b.n	800794a <HAL_SPI_Transmit_DMA+0x146>
  }

  /* Set the transaction information */
  hspi->State       = HAL_SPI_STATE_BUSY_TX;
 8007850:	68fb      	ldr	r3, [r7, #12]
 8007852:	2203      	movs	r2, #3
 8007854:	f883 2051 	strb.w	r2, [r3, #81]	; 0x51
  hspi->ErrorCode   = HAL_SPI_ERROR_NONE;
 8007858:	68fb      	ldr	r3, [r7, #12]
 800785a:	2200      	movs	r2, #0
 800785c:	655a      	str	r2, [r3, #84]	; 0x54
  hspi->pTxBuffPtr  = (uint8_t *)pData;
 800785e:	68fb      	ldr	r3, [r7, #12]
 8007860:	68ba      	ldr	r2, [r7, #8]
 8007862:	631a      	str	r2, [r3, #48]	; 0x30
  hspi->TxXferSize  = Size;
 8007864:	68fb      	ldr	r3, [r7, #12]
 8007866:	88fa      	ldrh	r2, [r7, #6]
 8007868:	869a      	strh	r2, [r3, #52]	; 0x34
  hspi->TxXferCount = Size;
 800786a:	68fb      	ldr	r3, [r7, #12]
 800786c:	88fa      	ldrh	r2, [r7, #6]
 800786e:	86da      	strh	r2, [r3, #54]	; 0x36

  /* Init field not used in handle to zero */
  hspi->pRxBuffPtr  = (uint8_t *)NULL;
 8007870:	68fb      	ldr	r3, [r7, #12]
 8007872:	2200      	movs	r2, #0
 8007874:	639a      	str	r2, [r3, #56]	; 0x38
  hspi->TxISR       = NULL;
 8007876:	68fb      	ldr	r3, [r7, #12]
 8007878:	2200      	movs	r2, #0
 800787a:	645a      	str	r2, [r3, #68]	; 0x44
  hspi->RxISR       = NULL;
 800787c:	68fb      	ldr	r3, [r7, #12]
 800787e:	2200      	movs	r2, #0
 8007880:	641a      	str	r2, [r3, #64]	; 0x40
  hspi->RxXferSize  = 0U;
 8007882:	68fb      	ldr	r3, [r7, #12]
 8007884:	2200      	movs	r2, #0
 8007886:	879a      	strh	r2, [r3, #60]	; 0x3c
  hspi->RxXferCount = 0U;
 8007888:	68fb      	ldr	r3, [r7, #12]
 800788a:	2200      	movs	r2, #0
 800788c:	87da      	strh	r2, [r3, #62]	; 0x3e

  /* Configure communication direction : 1Line */
  if (hspi->Init.Direction == SPI_DIRECTION_1LINE)
 800788e:	68fb      	ldr	r3, [r7, #12]
 8007890:	689b      	ldr	r3, [r3, #8]
 8007892:	f5b3 4f00 	cmp.w	r3, #32768	; 0x8000
 8007896:	d10f      	bne.n	80078b8 <HAL_SPI_Transmit_DMA+0xb4>
  {
    /* Disable SPI Peripheral before set 1Line direction (BIDIOE bit) */
    __HAL_SPI_DISABLE(hspi);
 8007898:	68fb      	ldr	r3, [r7, #12]
 800789a:	681b      	ldr	r3, [r3, #0]
 800789c:	681a      	ldr	r2, [r3, #0]
 800789e:	68fb      	ldr	r3, [r7, #12]
 80078a0:	681b      	ldr	r3, [r3, #0]
 80078a2:	f022 0240 	bic.w	r2, r2, #64	; 0x40
 80078a6:	601a      	str	r2, [r3, #0]
    SPI_1LINE_TX(hspi);
 80078a8:	68fb      	ldr	r3, [r7, #12]
 80078aa:	681b      	ldr	r3, [r3, #0]
 80078ac:	681a      	ldr	r2, [r3, #0]
 80078ae:	68fb      	ldr	r3, [r7, #12]
 80078b0:	681b      	ldr	r3, [r3, #0]
 80078b2:	f442 4280 	orr.w	r2, r2, #16384	; 0x4000
 80078b6:	601a      	str	r2, [r3, #0]
    SPI_RESET_CRC(hspi);
  }
#endif /* USE_SPI_CRC */

  /* Set the SPI TxDMA Half transfer complete callback */
  hspi->hdmatx->XferHalfCpltCallback = SPI_DMAHalfTransmitCplt;
 80078b8:	68fb      	ldr	r3, [r7, #12]
 80078ba:	6c9b      	ldr	r3, [r3, #72]	; 0x48
 80078bc:	4a27      	ldr	r2, [pc, #156]	; (800795c <HAL_SPI_Transmit_DMA+0x158>)
 80078be:	641a      	str	r2, [r3, #64]	; 0x40

  /* Set the SPI TxDMA transfer complete callback */
  hspi->hdmatx->XferCpltCallback = SPI_DMATransmitCplt;
 80078c0:	68fb      	ldr	r3, [r7, #12]
 80078c2:	6c9b      	ldr	r3, [r3, #72]	; 0x48
 80078c4:	4a26      	ldr	r2, [pc, #152]	; (8007960 <HAL_SPI_Transmit_DMA+0x15c>)
 80078c6:	63da      	str	r2, [r3, #60]	; 0x3c

  /* Set the DMA error callback */
  hspi->hdmatx->XferErrorCallback = SPI_DMAError;
 80078c8:	68fb      	ldr	r3, [r7, #12]
 80078ca:	6c9b      	ldr	r3, [r3, #72]	; 0x48
 80078cc:	4a25      	ldr	r2, [pc, #148]	; (8007964 <HAL_SPI_Transmit_DMA+0x160>)
 80078ce:	64da      	str	r2, [r3, #76]	; 0x4c

  /* Set the DMA AbortCpltCallback */
  hspi->hdmatx->XferAbortCallback = NULL;
 80078d0:	68fb      	ldr	r3, [r7, #12]
 80078d2:	6c9b      	ldr	r3, [r3, #72]	; 0x48
 80078d4:	2200      	movs	r2, #0
 80078d6:	651a      	str	r2, [r3, #80]	; 0x50

  /* Enable the Tx DMA Stream/Channel */
  if (HAL_OK != HAL_DMA_Start_IT(hspi->hdmatx, (uint32_t)hspi->pTxBuffPtr, (uint32_t)&hspi->Instance->DR,
 80078d8:	68fb      	ldr	r3, [r7, #12]
 80078da:	6c98      	ldr	r0, [r3, #72]	; 0x48
 80078dc:	68fb      	ldr	r3, [r7, #12]
 80078de:	6b1b      	ldr	r3, [r3, #48]	; 0x30
 80078e0:	4619      	mov	r1, r3
 80078e2:	68fb      	ldr	r3, [r7, #12]
 80078e4:	681b      	ldr	r3, [r3, #0]
 80078e6:	330c      	adds	r3, #12
 80078e8:	461a      	mov	r2, r3
                                 hspi->TxXferCount))
 80078ea:	68fb      	ldr	r3, [r7, #12]
 80078ec:	8edb      	ldrh	r3, [r3, #54]	; 0x36
 80078ee:	b29b      	uxth	r3, r3
  if (HAL_OK != HAL_DMA_Start_IT(hspi->hdmatx, (uint32_t)hspi->pTxBuffPtr, (uint32_t)&hspi->Instance->DR,
 80078f0:	f7fc fbce 	bl	8004090 <HAL_DMA_Start_IT>
 80078f4:	4603      	mov	r3, r0
 80078f6:	2b00      	cmp	r3, #0
 80078f8:	d008      	beq.n	800790c <HAL_SPI_Transmit_DMA+0x108>
  {
    /* Update SPI error code */
    SET_BIT(hspi->ErrorCode, HAL_SPI_ERROR_DMA);
 80078fa:	68fb      	ldr	r3, [r7, #12]
 80078fc:	6d5b      	ldr	r3, [r3, #84]	; 0x54
 80078fe:	f043 0210 	orr.w	r2, r3, #16
 8007902:	68fb      	ldr	r3, [r7, #12]
 8007904:	655a      	str	r2, [r3, #84]	; 0x54
    errorcode = HAL_ERROR;
 8007906:	2301      	movs	r3, #1
 8007908:	75fb      	strb	r3, [r7, #23]

    goto error;
 800790a:	e01e      	b.n	800794a <HAL_SPI_Transmit_DMA+0x146>
  }

  /* Check if the SPI is already enabled */
  if ((hspi->Instance->CR1 & SPI_CR1_SPE) != SPI_CR1_SPE)
 800790c:	68fb      	ldr	r3, [r7, #12]
 800790e:	681b      	ldr	r3, [r3, #0]
 8007910:	681b      	ldr	r3, [r3, #0]
 8007912:	f003 0340 	and.w	r3, r3, #64	; 0x40
 8007916:	2b40      	cmp	r3, #64	; 0x40
 8007918:	d007      	beq.n	800792a <HAL_SPI_Transmit_DMA+0x126>
  {
    /* Enable SPI peripheral */
    __HAL_SPI_ENABLE(hspi);
 800791a:	68fb      	ldr	r3, [r7, #12]
 800791c:	681b      	ldr	r3, [r3, #0]
 800791e:	681a      	ldr	r2, [r3, #0]
 8007920:	68fb      	ldr	r3, [r7, #12]
 8007922:	681b      	ldr	r3, [r3, #0]
 8007924:	f042 0240 	orr.w	r2, r2, #64	; 0x40
 8007928:	601a      	str	r2, [r3, #0]
  }

  /* Enable the SPI Error Interrupt Bit */
  __HAL_SPI_ENABLE_IT(hspi, (SPI_IT_ERR));
 800792a:	68fb      	ldr	r3, [r7, #12]
 800792c:	681b      	ldr	r3, [r3, #0]
 800792e:	685a      	ldr	r2, [r3, #4]
 8007930:	68fb      	ldr	r3, [r7, #12]
 8007932:	681b      	ldr	r3, [r3, #0]
 8007934:	f042 0220 	orr.w	r2, r2, #32
 8007938:	605a      	str	r2, [r3, #4]

  /* Enable Tx DMA Request */
  SET_BIT(hspi->Instance->CR2, SPI_CR2_TXDMAEN);
 800793a:	68fb      	ldr	r3, [r7, #12]
 800793c:	681b      	ldr	r3, [r3, #0]
 800793e:	685a      	ldr	r2, [r3, #4]
 8007940:	68fb      	ldr	r3, [r7, #12]
 8007942:	681b      	ldr	r3, [r3, #0]
 8007944:	f042 0202 	orr.w	r2, r2, #2
 8007948:	605a      	str	r2, [r3, #4]

error :
  /* Process Unlocked */
  __HAL_UNLOCK(hspi);
 800794a:	68fb      	ldr	r3, [r7, #12]
 800794c:	2200      	movs	r2, #0
 800794e:	f883 2050 	strb.w	r2, [r3, #80]	; 0x50
  return errorcode;
 8007952:	7dfb      	ldrb	r3, [r7, #23]
}
 8007954:	4618      	mov	r0, r3
 8007956:	3718      	adds	r7, #24
 8007958:	46bd      	mov	sp, r7
 800795a:	bd80      	pop	{r7, pc}
 800795c:	08007a39 	.word	0x08007a39
 8007960:	08007991 	.word	0x08007991
 8007964:	08007a55 	.word	0x08007a55

08007968 <HAL_SPI_TxHalfCpltCallback>:
  * @param  hspi pointer to a SPI_HandleTypeDef structure that contains
  *               the configuration information for SPI module.
  * @retval None
  */
__weak void HAL_SPI_TxHalfCpltCallback(SPI_HandleTypeDef *hspi)
{
 8007968:	b480      	push	{r7}
 800796a:	b083      	sub	sp, #12
 800796c:	af00      	add	r7, sp, #0
 800796e:	6078      	str	r0, [r7, #4]
  UNUSED(hspi);

  /* NOTE : This function should not be modified, when the callback is needed,
            the HAL_SPI_TxHalfCpltCallback should be implemented in the user file
   */
}
 8007970:	bf00      	nop
 8007972:	370c      	adds	r7, #12
 8007974:	46bd      	mov	sp, r7
 8007976:	f85d 7b04 	ldr.w	r7, [sp], #4
 800797a:	4770      	bx	lr

0800797c <HAL_SPI_ErrorCallback>:
  * @param  hspi pointer to a SPI_HandleTypeDef structure that contains
  *               the configuration information for SPI module.
  * @retval None
  */
__weak void HAL_SPI_ErrorCallback(SPI_HandleTypeDef *hspi)
{
 800797c:	b480      	push	{r7}
 800797e:	b083      	sub	sp, #12
 8007980:	af00      	add	r7, sp, #0
 8007982:	6078      	str	r0, [r7, #4]
            the HAL_SPI_ErrorCallback should be implemented in the user file
   */
  /* NOTE : The ErrorCode parameter in the hspi handle is updated by the SPI processes
            and user can use HAL_SPI_GetError() API to check the latest error occurred
   */
}
 8007984:	bf00      	nop
 8007986:	370c      	adds	r7, #12
 8007988:	46bd      	mov	sp, r7
 800798a:	f85d 7b04 	ldr.w	r7, [sp], #4
 800798e:	4770      	bx	lr

08007990 <SPI_DMATransmitCplt>:
  * @param  hdma pointer to a DMA_HandleTypeDef structure that contains
  *               the configuration information for the specified DMA module.
  * @retval None
  */
static void SPI_DMATransmitCplt(DMA_HandleTypeDef *hdma)
{
 8007990:	b580      	push	{r7, lr}
 8007992:	b086      	sub	sp, #24
 8007994:	af00      	add	r7, sp, #0
 8007996:	6078      	str	r0, [r7, #4]
  SPI_HandleTypeDef *hspi = (SPI_HandleTypeDef *)(((DMA_HandleTypeDef *)hdma)->Parent); /* Derogation MISRAC2012-Rule-11.5 */
 8007998:	687b      	ldr	r3, [r7, #4]
 800799a:	6b9b      	ldr	r3, [r3, #56]	; 0x38
 800799c:	617b      	str	r3, [r7, #20]
  uint32_t tickstart;

  /* Init tickstart for timeout management*/
  tickstart = HAL_GetTick();
 800799e:	f7fb fb1f 	bl	8002fe0 <HAL_GetTick>
 80079a2:	6138      	str	r0, [r7, #16]

  /* DMA Normal Mode */
  if ((hdma->Instance->CR & DMA_SxCR_CIRC) != DMA_SxCR_CIRC)
 80079a4:	687b      	ldr	r3, [r7, #4]
 80079a6:	681b      	ldr	r3, [r3, #0]
 80079a8:	681b      	ldr	r3, [r3, #0]
 80079aa:	f403 7380 	and.w	r3, r3, #256	; 0x100
 80079ae:	f5b3 7f80 	cmp.w	r3, #256	; 0x100
 80079b2:	d03b      	beq.n	8007a2c <SPI_DMATransmitCplt+0x9c>
  {
    /* Disable ERR interrupt */
    __HAL_SPI_DISABLE_IT(hspi, SPI_IT_ERR);
 80079b4:	697b      	ldr	r3, [r7, #20]
 80079b6:	681b      	ldr	r3, [r3, #0]
 80079b8:	685a      	ldr	r2, [r3, #4]
 80079ba:	697b      	ldr	r3, [r7, #20]
 80079bc:	681b      	ldr	r3, [r3, #0]
 80079be:	f022 0220 	bic.w	r2, r2, #32
 80079c2:	605a      	str	r2, [r3, #4]

    /* Disable Tx DMA Request */
    CLEAR_BIT(hspi->Instance->CR2, SPI_CR2_TXDMAEN);
 80079c4:	697b      	ldr	r3, [r7, #20]
 80079c6:	681b      	ldr	r3, [r3, #0]
 80079c8:	685a      	ldr	r2, [r3, #4]
 80079ca:	697b      	ldr	r3, [r7, #20]
 80079cc:	681b      	ldr	r3, [r3, #0]
 80079ce:	f022 0202 	bic.w	r2, r2, #2
 80079d2:	605a      	str	r2, [r3, #4]

    /* Check the end of the transaction */
    if (SPI_EndRxTxTransaction(hspi, SPI_DEFAULT_TIMEOUT, tickstart) != HAL_OK)
 80079d4:	693a      	ldr	r2, [r7, #16]
 80079d6:	2164      	movs	r1, #100	; 0x64
 80079d8:	6978      	ldr	r0, [r7, #20]
 80079da:	f000 f949 	bl	8007c70 <SPI_EndRxTxTransaction>
 80079de:	4603      	mov	r3, r0
 80079e0:	2b00      	cmp	r3, #0
 80079e2:	d005      	beq.n	80079f0 <SPI_DMATransmitCplt+0x60>
    {
      SET_BIT(hspi->ErrorCode, HAL_SPI_ERROR_FLAG);
 80079e4:	697b      	ldr	r3, [r7, #20]
 80079e6:	6d5b      	ldr	r3, [r3, #84]	; 0x54
 80079e8:	f043 0220 	orr.w	r2, r3, #32
 80079ec:	697b      	ldr	r3, [r7, #20]
 80079ee:	655a      	str	r2, [r3, #84]	; 0x54
    }

    /* Clear overrun flag in 2 Lines communication mode because received data is not read */
    if (hspi->Init.Direction == SPI_DIRECTION_2LINES)
 80079f0:	697b      	ldr	r3, [r7, #20]
 80079f2:	689b      	ldr	r3, [r3, #8]
 80079f4:	2b00      	cmp	r3, #0
 80079f6:	d10a      	bne.n	8007a0e <SPI_DMATransmitCplt+0x7e>
    {
      __HAL_SPI_CLEAR_OVRFLAG(hspi);
 80079f8:	2300      	movs	r3, #0
 80079fa:	60fb      	str	r3, [r7, #12]
 80079fc:	697b      	ldr	r3, [r7, #20]
 80079fe:	681b      	ldr	r3, [r3, #0]
 8007a00:	68db      	ldr	r3, [r3, #12]
 8007a02:	60fb      	str	r3, [r7, #12]
 8007a04:	697b      	ldr	r3, [r7, #20]
 8007a06:	681b      	ldr	r3, [r3, #0]
 8007a08:	689b      	ldr	r3, [r3, #8]
 8007a0a:	60fb      	str	r3, [r7, #12]
 8007a0c:	68fb      	ldr	r3, [r7, #12]
    }

    hspi->TxXferCount = 0U;
 8007a0e:	697b      	ldr	r3, [r7, #20]
 8007a10:	2200      	movs	r2, #0
 8007a12:	86da      	strh	r2, [r3, #54]	; 0x36
    hspi->State = HAL_SPI_STATE_READY;
 8007a14:	697b      	ldr	r3, [r7, #20]
 8007a16:	2201      	movs	r2, #1
 8007a18:	f883 2051 	strb.w	r2, [r3, #81]	; 0x51

    if (hspi->ErrorCode != HAL_SPI_ERROR_NONE)
 8007a1c:	697b      	ldr	r3, [r7, #20]
 8007a1e:	6d5b      	ldr	r3, [r3, #84]	; 0x54
 8007a20:	2b00      	cmp	r3, #0
 8007a22:	d003      	beq.n	8007a2c <SPI_DMATransmitCplt+0x9c>
    {
      /* Call user error callback */
#if (USE_HAL_SPI_REGISTER_CALLBACKS == 1U)
      hspi->ErrorCallback(hspi);
#else
      HAL_SPI_ErrorCallback(hspi);
 8007a24:	6978      	ldr	r0, [r7, #20]
 8007a26:	f7ff ffa9 	bl	800797c <HAL_SPI_ErrorCallback>
#endif /* USE_HAL_SPI_REGISTER_CALLBACKS */
      return;
 8007a2a:	e002      	b.n	8007a32 <SPI_DMATransmitCplt+0xa2>
  }
  /* Call user Tx complete callback */
#if (USE_HAL_SPI_REGISTER_CALLBACKS == 1U)
  hspi->TxCpltCallback(hspi);
#else
  HAL_SPI_TxCpltCallback(hspi);
 8007a2c:	6978      	ldr	r0, [r7, #20]
 8007a2e:	f7fb f9a1 	bl	8002d74 <HAL_SPI_TxCpltCallback>
#endif /* USE_HAL_SPI_REGISTER_CALLBACKS */
}
 8007a32:	3718      	adds	r7, #24
 8007a34:	46bd      	mov	sp, r7
 8007a36:	bd80      	pop	{r7, pc}

08007a38 <SPI_DMAHalfTransmitCplt>:
  * @param  hdma pointer to a DMA_HandleTypeDef structure that contains
  *               the configuration information for the specified DMA module.
  * @retval None
  */
static void SPI_DMAHalfTransmitCplt(DMA_HandleTypeDef *hdma)
{
 8007a38:	b580      	push	{r7, lr}
 8007a3a:	b084      	sub	sp, #16
 8007a3c:	af00      	add	r7, sp, #0
 8007a3e:	6078      	str	r0, [r7, #4]
  SPI_HandleTypeDef *hspi = (SPI_HandleTypeDef *)(((DMA_HandleTypeDef *)hdma)->Parent); /* Derogation MISRAC2012-Rule-11.5 */
 8007a40:	687b      	ldr	r3, [r7, #4]
 8007a42:	6b9b      	ldr	r3, [r3, #56]	; 0x38
 8007a44:	60fb      	str	r3, [r7, #12]

  /* Call user Tx half complete callback */
#if (USE_HAL_SPI_REGISTER_CALLBACKS == 1U)
  hspi->TxHalfCpltCallback(hspi);
#else
  HAL_SPI_TxHalfCpltCallback(hspi);
 8007a46:	68f8      	ldr	r0, [r7, #12]
 8007a48:	f7ff ff8e 	bl	8007968 <HAL_SPI_TxHalfCpltCallback>
#endif /* USE_HAL_SPI_REGISTER_CALLBACKS */
}
 8007a4c:	bf00      	nop
 8007a4e:	3710      	adds	r7, #16
 8007a50:	46bd      	mov	sp, r7
 8007a52:	bd80      	pop	{r7, pc}

08007a54 <SPI_DMAError>:
  * @param  hdma pointer to a DMA_HandleTypeDef structure that contains
  *               the configuration information for the specified DMA module.
  * @retval None
  */
static void SPI_DMAError(DMA_HandleTypeDef *hdma)
{
 8007a54:	b580      	push	{r7, lr}
 8007a56:	b084      	sub	sp, #16
 8007a58:	af00      	add	r7, sp, #0
 8007a5a:	6078      	str	r0, [r7, #4]
  SPI_HandleTypeDef *hspi = (SPI_HandleTypeDef *)(((DMA_HandleTypeDef *)hdma)->Parent); /* Derogation MISRAC2012-Rule-11.5 */
 8007a5c:	687b      	ldr	r3, [r7, #4]
 8007a5e:	6b9b      	ldr	r3, [r3, #56]	; 0x38
 8007a60:	60fb      	str	r3, [r7, #12]

  /* Stop the disable DMA transfer on SPI side */
  CLEAR_BIT(hspi->Instance->CR2, SPI_CR2_TXDMAEN | SPI_CR2_RXDMAEN);
 8007a62:	68fb      	ldr	r3, [r7, #12]
 8007a64:	681b      	ldr	r3, [r3, #0]
 8007a66:	685a      	ldr	r2, [r3, #4]
 8007a68:	68fb      	ldr	r3, [r7, #12]
 8007a6a:	681b      	ldr	r3, [r3, #0]
 8007a6c:	f022 0203 	bic.w	r2, r2, #3
 8007a70:	605a      	str	r2, [r3, #4]

  SET_BIT(hspi->ErrorCode, HAL_SPI_ERROR_DMA);
 8007a72:	68fb      	ldr	r3, [r7, #12]
 8007a74:	6d5b      	ldr	r3, [r3, #84]	; 0x54
 8007a76:	f043 0210 	orr.w	r2, r3, #16
 8007a7a:	68fb      	ldr	r3, [r7, #12]
 8007a7c:	655a      	str	r2, [r3, #84]	; 0x54
  hspi->State = HAL_SPI_STATE_READY;
 8007a7e:	68fb      	ldr	r3, [r7, #12]
 8007a80:	2201      	movs	r2, #1
 8007a82:	f883 2051 	strb.w	r2, [r3, #81]	; 0x51
  /* Call user error callback */
#if (USE_HAL_SPI_REGISTER_CALLBACKS == 1U)
  hspi->ErrorCallback(hspi);
#else
  HAL_SPI_ErrorCallback(hspi);
 8007a86:	68f8      	ldr	r0, [r7, #12]
 8007a88:	f7ff ff78 	bl	800797c <HAL_SPI_ErrorCallback>
#endif /* USE_HAL_SPI_REGISTER_CALLBACKS */
}
 8007a8c:	bf00      	nop
 8007a8e:	3710      	adds	r7, #16
 8007a90:	46bd      	mov	sp, r7
 8007a92:	bd80      	pop	{r7, pc}

08007a94 <SPI_WaitFlagStateUntilTimeout>:
  * @param  Tickstart tick start value
  * @retval HAL status
  */
static HAL_StatusTypeDef SPI_WaitFlagStateUntilTimeout(SPI_HandleTypeDef *hspi, uint32_t Flag, FlagStatus State,
                                                       uint32_t Timeout, uint32_t Tickstart)
{
 8007a94:	b580      	push	{r7, lr}
 8007a96:	b088      	sub	sp, #32
 8007a98:	af00      	add	r7, sp, #0
 8007a9a:	60f8      	str	r0, [r7, #12]
 8007a9c:	60b9      	str	r1, [r7, #8]
 8007a9e:	603b      	str	r3, [r7, #0]
 8007aa0:	4613      	mov	r3, r2
 8007aa2:	71fb      	strb	r3, [r7, #7]
  __IO uint32_t count;
  uint32_t tmp_timeout;
  uint32_t tmp_tickstart;

  /* Adjust Timeout value  in case of end of transfer */
  tmp_timeout   = Timeout - (HAL_GetTick() - Tickstart);
 8007aa4:	f7fb fa9c 	bl	8002fe0 <HAL_GetTick>
 8007aa8:	4602      	mov	r2, r0
 8007aaa:	6abb      	ldr	r3, [r7, #40]	; 0x28
 8007aac:	1a9b      	subs	r3, r3, r2
 8007aae:	683a      	ldr	r2, [r7, #0]
 8007ab0:	4413      	add	r3, r2
 8007ab2:	61fb      	str	r3, [r7, #28]
  tmp_tickstart = HAL_GetTick();
 8007ab4:	f7fb fa94 	bl	8002fe0 <HAL_GetTick>
 8007ab8:	61b8      	str	r0, [r7, #24]

  /* Calculate Timeout based on a software loop to avoid blocking issue if Systick is disabled */
  count = tmp_timeout * ((SystemCoreClock * 32U) >> 20U);
 8007aba:	4b39      	ldr	r3, [pc, #228]	; (8007ba0 <SPI_WaitFlagStateUntilTimeout+0x10c>)
 8007abc:	681b      	ldr	r3, [r3, #0]
 8007abe:	015b      	lsls	r3, r3, #5
 8007ac0:	0d1b      	lsrs	r3, r3, #20
 8007ac2:	69fa      	ldr	r2, [r7, #28]
 8007ac4:	fb02 f303 	mul.w	r3, r2, r3
 8007ac8:	617b      	str	r3, [r7, #20]

  while ((__HAL_SPI_GET_FLAG(hspi, Flag) ? SET : RESET) != State)
 8007aca:	e054      	b.n	8007b76 <SPI_WaitFlagStateUntilTimeout+0xe2>
  {
    if (Timeout != HAL_MAX_DELAY)
 8007acc:	683b      	ldr	r3, [r7, #0]
 8007ace:	f1b3 3fff 	cmp.w	r3, #4294967295	; 0xffffffff
 8007ad2:	d050      	beq.n	8007b76 <SPI_WaitFlagStateUntilTimeout+0xe2>
    {
      if (((HAL_GetTick() - tmp_tickstart) >= tmp_timeout) || (tmp_timeout == 0U))
 8007ad4:	f7fb fa84 	bl	8002fe0 <HAL_GetTick>
 8007ad8:	4602      	mov	r2, r0
 8007ada:	69bb      	ldr	r3, [r7, #24]
 8007adc:	1ad3      	subs	r3, r2, r3
 8007ade:	69fa      	ldr	r2, [r7, #28]
 8007ae0:	429a      	cmp	r2, r3
 8007ae2:	d902      	bls.n	8007aea <SPI_WaitFlagStateUntilTimeout+0x56>
 8007ae4:	69fb      	ldr	r3, [r7, #28]
 8007ae6:	2b00      	cmp	r3, #0
 8007ae8:	d13d      	bne.n	8007b66 <SPI_WaitFlagStateUntilTimeout+0xd2>
        /* Disable the SPI and reset the CRC: the CRC value should be cleared
           on both master and slave sides in order to resynchronize the master
           and slave for their respective CRC calculation */

        /* Disable TXE, RXNE and ERR interrupts for the interrupt process */
        __HAL_SPI_DISABLE_IT(hspi, (SPI_IT_TXE | SPI_IT_RXNE | SPI_IT_ERR));
 8007aea:	68fb      	ldr	r3, [r7, #12]
 8007aec:	681b      	ldr	r3, [r3, #0]
 8007aee:	685a      	ldr	r2, [r3, #4]
 8007af0:	68fb      	ldr	r3, [r7, #12]
 8007af2:	681b      	ldr	r3, [r3, #0]
 8007af4:	f022 02e0 	bic.w	r2, r2, #224	; 0xe0
 8007af8:	605a      	str	r2, [r3, #4]

        if ((hspi->Init.Mode == SPI_MODE_MASTER) && ((hspi->Init.Direction == SPI_DIRECTION_1LINE)
 8007afa:	68fb      	ldr	r3, [r7, #12]
 8007afc:	685b      	ldr	r3, [r3, #4]
 8007afe:	f5b3 7f82 	cmp.w	r3, #260	; 0x104
 8007b02:	d111      	bne.n	8007b28 <SPI_WaitFlagStateUntilTimeout+0x94>
 8007b04:	68fb      	ldr	r3, [r7, #12]
 8007b06:	689b      	ldr	r3, [r3, #8]
 8007b08:	f5b3 4f00 	cmp.w	r3, #32768	; 0x8000
 8007b0c:	d004      	beq.n	8007b18 <SPI_WaitFlagStateUntilTimeout+0x84>
                                                     || (hspi->Init.Direction == SPI_DIRECTION_2LINES_RXONLY)))
 8007b0e:	68fb      	ldr	r3, [r7, #12]
 8007b10:	689b      	ldr	r3, [r3, #8]
 8007b12:	f5b3 6f80 	cmp.w	r3, #1024	; 0x400
 8007b16:	d107      	bne.n	8007b28 <SPI_WaitFlagStateUntilTimeout+0x94>
        {
          /* Disable SPI peripheral */
          __HAL_SPI_DISABLE(hspi);
 8007b18:	68fb      	ldr	r3, [r7, #12]
 8007b1a:	681b      	ldr	r3, [r3, #0]
 8007b1c:	681a      	ldr	r2, [r3, #0]
 8007b1e:	68fb      	ldr	r3, [r7, #12]
 8007b20:	681b      	ldr	r3, [r3, #0]
 8007b22:	f022 0240 	bic.w	r2, r2, #64	; 0x40
 8007b26:	601a      	str	r2, [r3, #0]
        }

        /* Reset CRC Calculation */
        if (hspi->Init.CRCCalculation == SPI_CRCCALCULATION_ENABLE)
 8007b28:	68fb      	ldr	r3, [r7, #12]
 8007b2a:	6a9b      	ldr	r3, [r3, #40]	; 0x28
 8007b2c:	f5b3 5f00 	cmp.w	r3, #8192	; 0x2000
 8007b30:	d10f      	bne.n	8007b52 <SPI_WaitFlagStateUntilTimeout+0xbe>
        {
          SPI_RESET_CRC(hspi);
 8007b32:	68fb      	ldr	r3, [r7, #12]
 8007b34:	681b      	ldr	r3, [r3, #0]
 8007b36:	681a      	ldr	r2, [r3, #0]
 8007b38:	68fb      	ldr	r3, [r7, #12]
 8007b3a:	681b      	ldr	r3, [r3, #0]
 8007b3c:	f422 5200 	bic.w	r2, r2, #8192	; 0x2000
 8007b40:	601a      	str	r2, [r3, #0]
 8007b42:	68fb      	ldr	r3, [r7, #12]
 8007b44:	681b      	ldr	r3, [r3, #0]
 8007b46:	681a      	ldr	r2, [r3, #0]
 8007b48:	68fb      	ldr	r3, [r7, #12]
 8007b4a:	681b      	ldr	r3, [r3, #0]
 8007b4c:	f442 5200 	orr.w	r2, r2, #8192	; 0x2000
 8007b50:	601a      	str	r2, [r3, #0]
        }

        hspi->State = HAL_SPI_STATE_READY;
 8007b52:	68fb      	ldr	r3, [r7, #12]
 8007b54:	2201      	movs	r2, #1
 8007b56:	f883 2051 	strb.w	r2, [r3, #81]	; 0x51

        /* Process Unlocked */
        __HAL_UNLOCK(hspi);
 8007b5a:	68fb      	ldr	r3, [r7, #12]
 8007b5c:	2200      	movs	r2, #0
 8007b5e:	f883 2050 	strb.w	r2, [r3, #80]	; 0x50

        return HAL_TIMEOUT;
 8007b62:	2303      	movs	r3, #3
 8007b64:	e017      	b.n	8007b96 <SPI_WaitFlagStateUntilTimeout+0x102>
      }
      /* If Systick is disabled or not incremented, deactivate timeout to go in disable loop procedure */
      if (count == 0U)
 8007b66:	697b      	ldr	r3, [r7, #20]
 8007b68:	2b00      	cmp	r3, #0
 8007b6a:	d101      	bne.n	8007b70 <SPI_WaitFlagStateUntilTimeout+0xdc>
      {
        tmp_timeout = 0U;
 8007b6c:	2300      	movs	r3, #0
 8007b6e:	61fb      	str	r3, [r7, #28]
      }
      count--;
 8007b70:	697b      	ldr	r3, [r7, #20]
 8007b72:	3b01      	subs	r3, #1
 8007b74:	617b      	str	r3, [r7, #20]
  while ((__HAL_SPI_GET_FLAG(hspi, Flag) ? SET : RESET) != State)
 8007b76:	68fb      	ldr	r3, [r7, #12]
 8007b78:	681b      	ldr	r3, [r3, #0]
 8007b7a:	689a      	ldr	r2, [r3, #8]
 8007b7c:	68bb      	ldr	r3, [r7, #8]
 8007b7e:	4013      	ands	r3, r2
 8007b80:	68ba      	ldr	r2, [r7, #8]
 8007b82:	429a      	cmp	r2, r3
 8007b84:	bf0c      	ite	eq
 8007b86:	2301      	moveq	r3, #1
 8007b88:	2300      	movne	r3, #0
 8007b8a:	b2db      	uxtb	r3, r3
 8007b8c:	461a      	mov	r2, r3
 8007b8e:	79fb      	ldrb	r3, [r7, #7]
 8007b90:	429a      	cmp	r2, r3
 8007b92:	d19b      	bne.n	8007acc <SPI_WaitFlagStateUntilTimeout+0x38>
    }
  }

  return HAL_OK;
 8007b94:	2300      	movs	r3, #0
}
 8007b96:	4618      	mov	r0, r3
 8007b98:	3720      	adds	r7, #32
 8007b9a:	46bd      	mov	sp, r7
 8007b9c:	bd80      	pop	{r7, pc}
 8007b9e:	bf00      	nop
 8007ba0:	2000001c 	.word	0x2000001c

08007ba4 <SPI_EndRxTransaction>:
  * @param  Timeout Timeout duration
  * @param  Tickstart tick start value
  * @retval HAL status
  */
static HAL_StatusTypeDef SPI_EndRxTransaction(SPI_HandleTypeDef *hspi,  uint32_t Timeout, uint32_t Tickstart)
{
 8007ba4:	b580      	push	{r7, lr}
 8007ba6:	b086      	sub	sp, #24
 8007ba8:	af02      	add	r7, sp, #8
 8007baa:	60f8      	str	r0, [r7, #12]
 8007bac:	60b9      	str	r1, [r7, #8]
 8007bae:	607a      	str	r2, [r7, #4]
  if ((hspi->Init.Mode == SPI_MODE_MASTER) && ((hspi->Init.Direction == SPI_DIRECTION_1LINE)
 8007bb0:	68fb      	ldr	r3, [r7, #12]
 8007bb2:	685b      	ldr	r3, [r3, #4]
 8007bb4:	f5b3 7f82 	cmp.w	r3, #260	; 0x104
 8007bb8:	d111      	bne.n	8007bde <SPI_EndRxTransaction+0x3a>
 8007bba:	68fb      	ldr	r3, [r7, #12]
 8007bbc:	689b      	ldr	r3, [r3, #8]
 8007bbe:	f5b3 4f00 	cmp.w	r3, #32768	; 0x8000
 8007bc2:	d004      	beq.n	8007bce <SPI_EndRxTransaction+0x2a>
                                               || (hspi->Init.Direction == SPI_DIRECTION_2LINES_RXONLY)))
 8007bc4:	68fb      	ldr	r3, [r7, #12]
 8007bc6:	689b      	ldr	r3, [r3, #8]
 8007bc8:	f5b3 6f80 	cmp.w	r3, #1024	; 0x400
 8007bcc:	d107      	bne.n	8007bde <SPI_EndRxTransaction+0x3a>
  {
    /* Disable SPI peripheral */
    __HAL_SPI_DISABLE(hspi);
 8007bce:	68fb      	ldr	r3, [r7, #12]
 8007bd0:	681b      	ldr	r3, [r3, #0]
 8007bd2:	681a      	ldr	r2, [r3, #0]
 8007bd4:	68fb      	ldr	r3, [r7, #12]
 8007bd6:	681b      	ldr	r3, [r3, #0]
 8007bd8:	f022 0240 	bic.w	r2, r2, #64	; 0x40
 8007bdc:	601a      	str	r2, [r3, #0]
  }

  /* Erratasheet: BSY bit may stay high at the end of a data transfer in Slave mode */
  if (hspi->Init.Mode == SPI_MODE_MASTER)
 8007bde:	68fb      	ldr	r3, [r7, #12]
 8007be0:	685b      	ldr	r3, [r3, #4]
 8007be2:	f5b3 7f82 	cmp.w	r3, #260	; 0x104
 8007be6:	d12a      	bne.n	8007c3e <SPI_EndRxTransaction+0x9a>
  {
    if (hspi->Init.Direction != SPI_DIRECTION_2LINES_RXONLY)
 8007be8:	68fb      	ldr	r3, [r7, #12]
 8007bea:	689b      	ldr	r3, [r3, #8]
 8007bec:	f5b3 6f80 	cmp.w	r3, #1024	; 0x400
 8007bf0:	d012      	beq.n	8007c18 <SPI_EndRxTransaction+0x74>
    {
      /* Control the BSY flag */
      if (SPI_WaitFlagStateUntilTimeout(hspi, SPI_FLAG_BSY, RESET, Timeout, Tickstart) != HAL_OK)
 8007bf2:	687b      	ldr	r3, [r7, #4]
 8007bf4:	9300      	str	r3, [sp, #0]
 8007bf6:	68bb      	ldr	r3, [r7, #8]
 8007bf8:	2200      	movs	r2, #0
 8007bfa:	2180      	movs	r1, #128	; 0x80
 8007bfc:	68f8      	ldr	r0, [r7, #12]
 8007bfe:	f7ff ff49 	bl	8007a94 <SPI_WaitFlagStateUntilTimeout>
 8007c02:	4603      	mov	r3, r0
 8007c04:	2b00      	cmp	r3, #0
 8007c06:	d02d      	beq.n	8007c64 <SPI_EndRxTransaction+0xc0>
      {
        SET_BIT(hspi->ErrorCode, HAL_SPI_ERROR_FLAG);
 8007c08:	68fb      	ldr	r3, [r7, #12]
 8007c0a:	6d5b      	ldr	r3, [r3, #84]	; 0x54
 8007c0c:	f043 0220 	orr.w	r2, r3, #32
 8007c10:	68fb      	ldr	r3, [r7, #12]
 8007c12:	655a      	str	r2, [r3, #84]	; 0x54
        return HAL_TIMEOUT;
 8007c14:	2303      	movs	r3, #3
 8007c16:	e026      	b.n	8007c66 <SPI_EndRxTransaction+0xc2>
      }
    }
    else
    {
      /* Wait the RXNE reset */
      if (SPI_WaitFlagStateUntilTimeout(hspi, SPI_FLAG_RXNE, RESET, Timeout, Tickstart) != HAL_OK)
 8007c18:	687b      	ldr	r3, [r7, #4]
 8007c1a:	9300      	str	r3, [sp, #0]
 8007c1c:	68bb      	ldr	r3, [r7, #8]
 8007c1e:	2200      	movs	r2, #0
 8007c20:	2101      	movs	r1, #1
 8007c22:	68f8      	ldr	r0, [r7, #12]
 8007c24:	f7ff ff36 	bl	8007a94 <SPI_WaitFlagStateUntilTimeout>
 8007c28:	4603      	mov	r3, r0
 8007c2a:	2b00      	cmp	r3, #0
 8007c2c:	d01a      	beq.n	8007c64 <SPI_EndRxTransaction+0xc0>
      {
        SET_BIT(hspi->ErrorCode, HAL_SPI_ERROR_FLAG);
 8007c2e:	68fb      	ldr	r3, [r7, #12]
 8007c30:	6d5b      	ldr	r3, [r3, #84]	; 0x54
 8007c32:	f043 0220 	orr.w	r2, r3, #32
 8007c36:	68fb      	ldr	r3, [r7, #12]
 8007c38:	655a      	str	r2, [r3, #84]	; 0x54
        return HAL_TIMEOUT;
 8007c3a:	2303      	movs	r3, #3
 8007c3c:	e013      	b.n	8007c66 <SPI_EndRxTransaction+0xc2>
    }
  }
  else
  {
    /* Wait the RXNE reset */
    if (SPI_WaitFlagStateUntilTimeout(hspi, SPI_FLAG_RXNE, RESET, Timeout, Tickstart) != HAL_OK)
 8007c3e:	687b      	ldr	r3, [r7, #4]
 8007c40:	9300      	str	r3, [sp, #0]
 8007c42:	68bb      	ldr	r3, [r7, #8]
 8007c44:	2200      	movs	r2, #0
 8007c46:	2101      	movs	r1, #1
 8007c48:	68f8      	ldr	r0, [r7, #12]
 8007c4a:	f7ff ff23 	bl	8007a94 <SPI_WaitFlagStateUntilTimeout>
 8007c4e:	4603      	mov	r3, r0
 8007c50:	2b00      	cmp	r3, #0
 8007c52:	d007      	beq.n	8007c64 <SPI_EndRxTransaction+0xc0>
    {
      SET_BIT(hspi->ErrorCode, HAL_SPI_ERROR_FLAG);
 8007c54:	68fb      	ldr	r3, [r7, #12]
 8007c56:	6d5b      	ldr	r3, [r3, #84]	; 0x54
 8007c58:	f043 0220 	orr.w	r2, r3, #32
 8007c5c:	68fb      	ldr	r3, [r7, #12]
 8007c5e:	655a      	str	r2, [r3, #84]	; 0x54
      return HAL_TIMEOUT;
 8007c60:	2303      	movs	r3, #3
 8007c62:	e000      	b.n	8007c66 <SPI_EndRxTransaction+0xc2>
    }
  }
  return HAL_OK;
 8007c64:	2300      	movs	r3, #0
}
 8007c66:	4618      	mov	r0, r3
 8007c68:	3710      	adds	r7, #16
 8007c6a:	46bd      	mov	sp, r7
 8007c6c:	bd80      	pop	{r7, pc}
	...

08007c70 <SPI_EndRxTxTransaction>:
  * @param  Timeout Timeout duration
  * @param  Tickstart tick start value
  * @retval HAL status
  */
static HAL_StatusTypeDef SPI_EndRxTxTransaction(SPI_HandleTypeDef *hspi, uint32_t Timeout, uint32_t Tickstart)
{
 8007c70:	b580      	push	{r7, lr}
 8007c72:	b088      	sub	sp, #32
 8007c74:	af02      	add	r7, sp, #8
 8007c76:	60f8      	str	r0, [r7, #12]
 8007c78:	60b9      	str	r1, [r7, #8]
 8007c7a:	607a      	str	r2, [r7, #4]
  /* Wait until TXE flag */
  if(SPI_WaitFlagStateUntilTimeout(hspi, SPI_FLAG_TXE, SET, Timeout, Tickstart) != HAL_OK)
 8007c7c:	687b      	ldr	r3, [r7, #4]
 8007c7e:	9300      	str	r3, [sp, #0]
 8007c80:	68bb      	ldr	r3, [r7, #8]
 8007c82:	2201      	movs	r2, #1
 8007c84:	2102      	movs	r1, #2
 8007c86:	68f8      	ldr	r0, [r7, #12]
 8007c88:	f7ff ff04 	bl	8007a94 <SPI_WaitFlagStateUntilTimeout>
 8007c8c:	4603      	mov	r3, r0
 8007c8e:	2b00      	cmp	r3, #0
 8007c90:	d007      	beq.n	8007ca2 <SPI_EndRxTxTransaction+0x32>
  {
    SET_BIT(hspi->ErrorCode, HAL_SPI_ERROR_FLAG);
 8007c92:	68fb      	ldr	r3, [r7, #12]
 8007c94:	6d5b      	ldr	r3, [r3, #84]	; 0x54
 8007c96:	f043 0220 	orr.w	r2, r3, #32
 8007c9a:	68fb      	ldr	r3, [r7, #12]
 8007c9c:	655a      	str	r2, [r3, #84]	; 0x54
    return HAL_TIMEOUT;
 8007c9e:	2303      	movs	r3, #3
 8007ca0:	e032      	b.n	8007d08 <SPI_EndRxTxTransaction+0x98>
  }

  /* Timeout in s */
  __IO uint32_t count = SPI_BSY_FLAG_WORKAROUND_TIMEOUT * (SystemCoreClock / 24U / 1000000U);
 8007ca2:	4b1b      	ldr	r3, [pc, #108]	; (8007d10 <SPI_EndRxTxTransaction+0xa0>)
 8007ca4:	681b      	ldr	r3, [r3, #0]
 8007ca6:	4a1b      	ldr	r2, [pc, #108]	; (8007d14 <SPI_EndRxTxTransaction+0xa4>)
 8007ca8:	fba2 2303 	umull	r2, r3, r2, r3
 8007cac:	0d5b      	lsrs	r3, r3, #21
 8007cae:	f44f 727a 	mov.w	r2, #1000	; 0x3e8
 8007cb2:	fb02 f303 	mul.w	r3, r2, r3
 8007cb6:	617b      	str	r3, [r7, #20]
  /* Erratasheet: BSY bit may stay high at the end of a data transfer in Slave mode */
  if (hspi->Init.Mode == SPI_MODE_MASTER)
 8007cb8:	68fb      	ldr	r3, [r7, #12]
 8007cba:	685b      	ldr	r3, [r3, #4]
 8007cbc:	f5b3 7f82 	cmp.w	r3, #260	; 0x104
 8007cc0:	d112      	bne.n	8007ce8 <SPI_EndRxTxTransaction+0x78>
  {
    /* Control the BSY flag */
    if (SPI_WaitFlagStateUntilTimeout(hspi, SPI_FLAG_BSY, RESET, Timeout, Tickstart) != HAL_OK)
 8007cc2:	687b      	ldr	r3, [r7, #4]
 8007cc4:	9300      	str	r3, [sp, #0]
 8007cc6:	68bb      	ldr	r3, [r7, #8]
 8007cc8:	2200      	movs	r2, #0
 8007cca:	2180      	movs	r1, #128	; 0x80
 8007ccc:	68f8      	ldr	r0, [r7, #12]
 8007cce:	f7ff fee1 	bl	8007a94 <SPI_WaitFlagStateUntilTimeout>
 8007cd2:	4603      	mov	r3, r0
 8007cd4:	2b00      	cmp	r3, #0
 8007cd6:	d016      	beq.n	8007d06 <SPI_EndRxTxTransaction+0x96>
    {
      SET_BIT(hspi->ErrorCode, HAL_SPI_ERROR_FLAG);
 8007cd8:	68fb      	ldr	r3, [r7, #12]
 8007cda:	6d5b      	ldr	r3, [r3, #84]	; 0x54
 8007cdc:	f043 0220 	orr.w	r2, r3, #32
 8007ce0:	68fb      	ldr	r3, [r7, #12]
 8007ce2:	655a      	str	r2, [r3, #84]	; 0x54
      return HAL_TIMEOUT;
 8007ce4:	2303      	movs	r3, #3
 8007ce6:	e00f      	b.n	8007d08 <SPI_EndRxTxTransaction+0x98>
    * User have to calculate the timeout value to fit with the time of 1 byte transfer.
    * This time is directly link with the SPI clock from Master device.
    */
    do
    {
      if (count == 0U)
 8007ce8:	697b      	ldr	r3, [r7, #20]
 8007cea:	2b00      	cmp	r3, #0
 8007cec:	d00a      	beq.n	8007d04 <SPI_EndRxTxTransaction+0x94>
      {
        break;
      }
      count--;
 8007cee:	697b      	ldr	r3, [r7, #20]
 8007cf0:	3b01      	subs	r3, #1
 8007cf2:	617b      	str	r3, [r7, #20]
    } while (__HAL_SPI_GET_FLAG(hspi, SPI_FLAG_BSY) != RESET);
 8007cf4:	68fb      	ldr	r3, [r7, #12]
 8007cf6:	681b      	ldr	r3, [r3, #0]
 8007cf8:	689b      	ldr	r3, [r3, #8]
 8007cfa:	f003 0380 	and.w	r3, r3, #128	; 0x80
 8007cfe:	2b80      	cmp	r3, #128	; 0x80
 8007d00:	d0f2      	beq.n	8007ce8 <SPI_EndRxTxTransaction+0x78>
 8007d02:	e000      	b.n	8007d06 <SPI_EndRxTxTransaction+0x96>
        break;
 8007d04:	bf00      	nop
  }

  return HAL_OK;
 8007d06:	2300      	movs	r3, #0
}
 8007d08:	4618      	mov	r0, r3
 8007d0a:	3718      	adds	r7, #24
 8007d0c:	46bd      	mov	sp, r7
 8007d0e:	bd80      	pop	{r7, pc}
 8007d10:	2000001c 	.word	0x2000001c
 8007d14:	165e9f81 	.word	0x165e9f81

08007d18 <HAL_TIM_Base_Init>:
  *         Ex: call @ref HAL_TIM_Base_DeInit() before HAL_TIM_Base_Init()
  * @param  htim TIM Base handle
  * @retval HAL status
  */
HAL_StatusTypeDef HAL_TIM_Base_Init(TIM_HandleTypeDef *htim)
{
 8007d18:	b580      	push	{r7, lr}
 8007d1a:	b082      	sub	sp, #8
 8007d1c:	af00      	add	r7, sp, #0
 8007d1e:	6078      	str	r0, [r7, #4]
  /* Check the TIM handle allocation */
  if (htim == NULL)
 8007d20:	687b      	ldr	r3, [r7, #4]
 8007d22:	2b00      	cmp	r3, #0
 8007d24:	d101      	bne.n	8007d2a <HAL_TIM_Base_Init+0x12>
  {
    return HAL_ERROR;
 8007d26:	2301      	movs	r3, #1
 8007d28:	e041      	b.n	8007dae <HAL_TIM_Base_Init+0x96>
  assert_param(IS_TIM_COUNTER_MODE(htim->Init.CounterMode));
  assert_param(IS_TIM_CLOCKDIVISION_DIV(htim->Init.ClockDivision));
  assert_param(IS_TIM_PERIOD(htim, htim->Init.Period));
  assert_param(IS_TIM_AUTORELOAD_PRELOAD(htim->Init.AutoReloadPreload));

  if (htim->State == HAL_TIM_STATE_RESET)
 8007d2a:	687b      	ldr	r3, [r7, #4]
 8007d2c:	f893 303d 	ldrb.w	r3, [r3, #61]	; 0x3d
 8007d30:	b2db      	uxtb	r3, r3
 8007d32:	2b00      	cmp	r3, #0
 8007d34:	d106      	bne.n	8007d44 <HAL_TIM_Base_Init+0x2c>
  {
    /* Allocate lock resource and initialize it */
    htim->Lock = HAL_UNLOCKED;
 8007d36:	687b      	ldr	r3, [r7, #4]
 8007d38:	2200      	movs	r2, #0
 8007d3a:	f883 203c 	strb.w	r2, [r3, #60]	; 0x3c
    }
    /* Init the low level hardware : GPIO, CLOCK, NVIC */
    htim->Base_MspInitCallback(htim);
#else
    /* Init the low level hardware : GPIO, CLOCK, NVIC */
    HAL_TIM_Base_MspInit(htim);
 8007d3e:	6878      	ldr	r0, [r7, #4]
 8007d40:	f7fa fed4 	bl	8002aec <HAL_TIM_Base_MspInit>
#endif /* USE_HAL_TIM_REGISTER_CALLBACKS */
  }

  /* Set the TIM state */
  htim->State = HAL_TIM_STATE_BUSY;
 8007d44:	687b      	ldr	r3, [r7, #4]
 8007d46:	2202      	movs	r2, #2
 8007d48:	f883 203d 	strb.w	r2, [r3, #61]	; 0x3d

  /* Set the Time Base configuration */
  TIM_Base_SetConfig(htim->Instance, &htim->Init);
 8007d4c:	687b      	ldr	r3, [r7, #4]
 8007d4e:	681a      	ldr	r2, [r3, #0]
 8007d50:	687b      	ldr	r3, [r7, #4]
 8007d52:	3304      	adds	r3, #4
 8007d54:	4619      	mov	r1, r3
 8007d56:	4610      	mov	r0, r2
 8007d58:	f000 f9c0 	bl	80080dc <TIM_Base_SetConfig>

  /* Initialize the DMA burst operation state */
  htim->DMABurstState = HAL_DMA_BURST_STATE_READY;
 8007d5c:	687b      	ldr	r3, [r7, #4]
 8007d5e:	2201      	movs	r2, #1
 8007d60:	f883 2046 	strb.w	r2, [r3, #70]	; 0x46

  /* Initialize the TIM channels state */
  TIM_CHANNEL_STATE_SET_ALL(htim, HAL_TIM_CHANNEL_STATE_READY);
 8007d64:	687b      	ldr	r3, [r7, #4]
 8007d66:	2201      	movs	r2, #1
 8007d68:	f883 203e 	strb.w	r2, [r3, #62]	; 0x3e
 8007d6c:	687b      	ldr	r3, [r7, #4]
 8007d6e:	2201      	movs	r2, #1
 8007d70:	f883 203f 	strb.w	r2, [r3, #63]	; 0x3f
 8007d74:	687b      	ldr	r3, [r7, #4]
 8007d76:	2201      	movs	r2, #1
 8007d78:	f883 2040 	strb.w	r2, [r3, #64]	; 0x40
 8007d7c:	687b      	ldr	r3, [r7, #4]
 8007d7e:	2201      	movs	r2, #1
 8007d80:	f883 2041 	strb.w	r2, [r3, #65]	; 0x41
  TIM_CHANNEL_N_STATE_SET_ALL(htim, HAL_TIM_CHANNEL_STATE_READY);
 8007d84:	687b      	ldr	r3, [r7, #4]
 8007d86:	2201      	movs	r2, #1
 8007d88:	f883 2042 	strb.w	r2, [r3, #66]	; 0x42
 8007d8c:	687b      	ldr	r3, [r7, #4]
 8007d8e:	2201      	movs	r2, #1
 8007d90:	f883 2043 	strb.w	r2, [r3, #67]	; 0x43
 8007d94:	687b      	ldr	r3, [r7, #4]
 8007d96:	2201      	movs	r2, #1
 8007d98:	f883 2044 	strb.w	r2, [r3, #68]	; 0x44
 8007d9c:	687b      	ldr	r3, [r7, #4]
 8007d9e:	2201      	movs	r2, #1
 8007da0:	f883 2045 	strb.w	r2, [r3, #69]	; 0x45

  /* Initialize the TIM state*/
  htim->State = HAL_TIM_STATE_READY;
 8007da4:	687b      	ldr	r3, [r7, #4]
 8007da6:	2201      	movs	r2, #1
 8007da8:	f883 203d 	strb.w	r2, [r3, #61]	; 0x3d

  return HAL_OK;
 8007dac:	2300      	movs	r3, #0
}
 8007dae:	4618      	mov	r0, r3
 8007db0:	3708      	adds	r7, #8
 8007db2:	46bd      	mov	sp, r7
 8007db4:	bd80      	pop	{r7, pc}
	...

08007db8 <HAL_TIM_Base_Start_IT>:
  * @brief  Starts the TIM Base generation in interrupt mode.
  * @param  htim TIM Base handle
  * @retval HAL status
  */
HAL_StatusTypeDef HAL_TIM_Base_Start_IT(TIM_HandleTypeDef *htim)
{
 8007db8:	b480      	push	{r7}
 8007dba:	b085      	sub	sp, #20
 8007dbc:	af00      	add	r7, sp, #0
 8007dbe:	6078      	str	r0, [r7, #4]

  /* Check the parameters */
  assert_param(IS_TIM_INSTANCE(htim->Instance));

  /* Check the TIM state */
  if (htim->State != HAL_TIM_STATE_READY)
 8007dc0:	687b      	ldr	r3, [r7, #4]
 8007dc2:	f893 303d 	ldrb.w	r3, [r3, #61]	; 0x3d
 8007dc6:	b2db      	uxtb	r3, r3
 8007dc8:	2b01      	cmp	r3, #1
 8007dca:	d001      	beq.n	8007dd0 <HAL_TIM_Base_Start_IT+0x18>
  {
    return HAL_ERROR;
 8007dcc:	2301      	movs	r3, #1
 8007dce:	e04e      	b.n	8007e6e <HAL_TIM_Base_Start_IT+0xb6>
  }

  /* Set the TIM state */
  htim->State = HAL_TIM_STATE_BUSY;
 8007dd0:	687b      	ldr	r3, [r7, #4]
 8007dd2:	2202      	movs	r2, #2
 8007dd4:	f883 203d 	strb.w	r2, [r3, #61]	; 0x3d

  /* Enable the TIM Update interrupt */
  __HAL_TIM_ENABLE_IT(htim, TIM_IT_UPDATE);
 8007dd8:	687b      	ldr	r3, [r7, #4]
 8007dda:	681b      	ldr	r3, [r3, #0]
 8007ddc:	68da      	ldr	r2, [r3, #12]
 8007dde:	687b      	ldr	r3, [r7, #4]
 8007de0:	681b      	ldr	r3, [r3, #0]
 8007de2:	f042 0201 	orr.w	r2, r2, #1
 8007de6:	60da      	str	r2, [r3, #12]

  /* Enable the Peripheral, except in trigger mode where enable is automatically done with trigger */
  if (IS_TIM_SLAVE_INSTANCE(htim->Instance))
 8007de8:	687b      	ldr	r3, [r7, #4]
 8007dea:	681b      	ldr	r3, [r3, #0]
 8007dec:	4a23      	ldr	r2, [pc, #140]	; (8007e7c <HAL_TIM_Base_Start_IT+0xc4>)
 8007dee:	4293      	cmp	r3, r2
 8007df0:	d022      	beq.n	8007e38 <HAL_TIM_Base_Start_IT+0x80>
 8007df2:	687b      	ldr	r3, [r7, #4]
 8007df4:	681b      	ldr	r3, [r3, #0]
 8007df6:	f1b3 4f80 	cmp.w	r3, #1073741824	; 0x40000000
 8007dfa:	d01d      	beq.n	8007e38 <HAL_TIM_Base_Start_IT+0x80>
 8007dfc:	687b      	ldr	r3, [r7, #4]
 8007dfe:	681b      	ldr	r3, [r3, #0]
 8007e00:	4a1f      	ldr	r2, [pc, #124]	; (8007e80 <HAL_TIM_Base_Start_IT+0xc8>)
 8007e02:	4293      	cmp	r3, r2
 8007e04:	d018      	beq.n	8007e38 <HAL_TIM_Base_Start_IT+0x80>
 8007e06:	687b      	ldr	r3, [r7, #4]
 8007e08:	681b      	ldr	r3, [r3, #0]
 8007e0a:	4a1e      	ldr	r2, [pc, #120]	; (8007e84 <HAL_TIM_Base_Start_IT+0xcc>)
 8007e0c:	4293      	cmp	r3, r2
 8007e0e:	d013      	beq.n	8007e38 <HAL_TIM_Base_Start_IT+0x80>
 8007e10:	687b      	ldr	r3, [r7, #4]
 8007e12:	681b      	ldr	r3, [r3, #0]
 8007e14:	4a1c      	ldr	r2, [pc, #112]	; (8007e88 <HAL_TIM_Base_Start_IT+0xd0>)
 8007e16:	4293      	cmp	r3, r2
 8007e18:	d00e      	beq.n	8007e38 <HAL_TIM_Base_Start_IT+0x80>
 8007e1a:	687b      	ldr	r3, [r7, #4]
 8007e1c:	681b      	ldr	r3, [r3, #0]
 8007e1e:	4a1b      	ldr	r2, [pc, #108]	; (8007e8c <HAL_TIM_Base_Start_IT+0xd4>)
 8007e20:	4293      	cmp	r3, r2
 8007e22:	d009      	beq.n	8007e38 <HAL_TIM_Base_Start_IT+0x80>
 8007e24:	687b      	ldr	r3, [r7, #4]
 8007e26:	681b      	ldr	r3, [r3, #0]
 8007e28:	4a19      	ldr	r2, [pc, #100]	; (8007e90 <HAL_TIM_Base_Start_IT+0xd8>)
 8007e2a:	4293      	cmp	r3, r2
 8007e2c:	d004      	beq.n	8007e38 <HAL_TIM_Base_Start_IT+0x80>
 8007e2e:	687b      	ldr	r3, [r7, #4]
 8007e30:	681b      	ldr	r3, [r3, #0]
 8007e32:	4a18      	ldr	r2, [pc, #96]	; (8007e94 <HAL_TIM_Base_Start_IT+0xdc>)
 8007e34:	4293      	cmp	r3, r2
 8007e36:	d111      	bne.n	8007e5c <HAL_TIM_Base_Start_IT+0xa4>
  {
    tmpsmcr = htim->Instance->SMCR & TIM_SMCR_SMS;
 8007e38:	687b      	ldr	r3, [r7, #4]
 8007e3a:	681b      	ldr	r3, [r3, #0]
 8007e3c:	689b      	ldr	r3, [r3, #8]
 8007e3e:	f003 0307 	and.w	r3, r3, #7
 8007e42:	60fb      	str	r3, [r7, #12]
    if (!IS_TIM_SLAVEMODE_TRIGGER_ENABLED(tmpsmcr))
 8007e44:	68fb      	ldr	r3, [r7, #12]
 8007e46:	2b06      	cmp	r3, #6
 8007e48:	d010      	beq.n	8007e6c <HAL_TIM_Base_Start_IT+0xb4>
    {
      __HAL_TIM_ENABLE(htim);
 8007e4a:	687b      	ldr	r3, [r7, #4]
 8007e4c:	681b      	ldr	r3, [r3, #0]
 8007e4e:	681a      	ldr	r2, [r3, #0]
 8007e50:	687b      	ldr	r3, [r7, #4]
 8007e52:	681b      	ldr	r3, [r3, #0]
 8007e54:	f042 0201 	orr.w	r2, r2, #1
 8007e58:	601a      	str	r2, [r3, #0]
    if (!IS_TIM_SLAVEMODE_TRIGGER_ENABLED(tmpsmcr))
 8007e5a:	e007      	b.n	8007e6c <HAL_TIM_Base_Start_IT+0xb4>
    }
  }
  else
  {
    __HAL_TIM_ENABLE(htim);
 8007e5c:	687b      	ldr	r3, [r7, #4]
 8007e5e:	681b      	ldr	r3, [r3, #0]
 8007e60:	681a      	ldr	r2, [r3, #0]
 8007e62:	687b      	ldr	r3, [r7, #4]
 8007e64:	681b      	ldr	r3, [r3, #0]
 8007e66:	f042 0201 	orr.w	r2, r2, #1
 8007e6a:	601a      	str	r2, [r3, #0]
  }

  /* Return function status */
  return HAL_OK;
 8007e6c:	2300      	movs	r3, #0
}
 8007e6e:	4618      	mov	r0, r3
 8007e70:	3714      	adds	r7, #20
 8007e72:	46bd      	mov	sp, r7
 8007e74:	f85d 7b04 	ldr.w	r7, [sp], #4
 8007e78:	4770      	bx	lr
 8007e7a:	bf00      	nop
 8007e7c:	40010000 	.word	0x40010000
 8007e80:	40000400 	.word	0x40000400
 8007e84:	40000800 	.word	0x40000800
 8007e88:	40000c00 	.word	0x40000c00
 8007e8c:	40010400 	.word	0x40010400
 8007e90:	40014000 	.word	0x40014000
 8007e94:	40001800 	.word	0x40001800

08007e98 <HAL_TIM_IRQHandler>:
  * @brief  This function handles TIM interrupts requests.
  * @param  htim TIM  handle
  * @retval None
  */
void HAL_TIM_IRQHandler(TIM_HandleTypeDef *htim)
{
 8007e98:	b580      	push	{r7, lr}
 8007e9a:	b084      	sub	sp, #16
 8007e9c:	af00      	add	r7, sp, #0
 8007e9e:	6078      	str	r0, [r7, #4]
  uint32_t itsource = htim->Instance->DIER;
 8007ea0:	687b      	ldr	r3, [r7, #4]
 8007ea2:	681b      	ldr	r3, [r3, #0]
 8007ea4:	68db      	ldr	r3, [r3, #12]
 8007ea6:	60fb      	str	r3, [r7, #12]
  uint32_t itflag   = htim->Instance->SR;
 8007ea8:	687b      	ldr	r3, [r7, #4]
 8007eaa:	681b      	ldr	r3, [r3, #0]
 8007eac:	691b      	ldr	r3, [r3, #16]
 8007eae:	60bb      	str	r3, [r7, #8]

  /* Capture compare 1 event */
  if ((itflag & (TIM_FLAG_CC1)) == (TIM_FLAG_CC1))
 8007eb0:	68bb      	ldr	r3, [r7, #8]
 8007eb2:	f003 0302 	and.w	r3, r3, #2
 8007eb6:	2b00      	cmp	r3, #0
 8007eb8:	d020      	beq.n	8007efc <HAL_TIM_IRQHandler+0x64>
  {
    if ((itsource & (TIM_IT_CC1)) == (TIM_IT_CC1))
 8007eba:	68fb      	ldr	r3, [r7, #12]
 8007ebc:	f003 0302 	and.w	r3, r3, #2
 8007ec0:	2b00      	cmp	r3, #0
 8007ec2:	d01b      	beq.n	8007efc <HAL_TIM_IRQHandler+0x64>
    {
      {
        __HAL_TIM_CLEAR_FLAG(htim, TIM_FLAG_CC1);
 8007ec4:	687b      	ldr	r3, [r7, #4]
 8007ec6:	681b      	ldr	r3, [r3, #0]
 8007ec8:	f06f 0202 	mvn.w	r2, #2
 8007ecc:	611a      	str	r2, [r3, #16]
        htim->Channel = HAL_TIM_ACTIVE_CHANNEL_1;
 8007ece:	687b      	ldr	r3, [r7, #4]
 8007ed0:	2201      	movs	r2, #1
 8007ed2:	771a      	strb	r2, [r3, #28]

        /* Input capture event */
        if ((htim->Instance->CCMR1 & TIM_CCMR1_CC1S) != 0x00U)
 8007ed4:	687b      	ldr	r3, [r7, #4]
 8007ed6:	681b      	ldr	r3, [r3, #0]
 8007ed8:	699b      	ldr	r3, [r3, #24]
 8007eda:	f003 0303 	and.w	r3, r3, #3
 8007ede:	2b00      	cmp	r3, #0
 8007ee0:	d003      	beq.n	8007eea <HAL_TIM_IRQHandler+0x52>
        {
#if (USE_HAL_TIM_REGISTER_CALLBACKS == 1)
          htim->IC_CaptureCallback(htim);
#else
          HAL_TIM_IC_CaptureCallback(htim);
 8007ee2:	6878      	ldr	r0, [r7, #4]
 8007ee4:	f000 f8dc 	bl	80080a0 <HAL_TIM_IC_CaptureCallback>
 8007ee8:	e005      	b.n	8007ef6 <HAL_TIM_IRQHandler+0x5e>
        {
#if (USE_HAL_TIM_REGISTER_CALLBACKS == 1)
          htim->OC_DelayElapsedCallback(htim);
          htim->PWM_PulseFinishedCallback(htim);
#else
          HAL_TIM_OC_DelayElapsedCallback(htim);
 8007eea:	6878      	ldr	r0, [r7, #4]
 8007eec:	f000 f8ce 	bl	800808c <HAL_TIM_OC_DelayElapsedCallback>
          HAL_TIM_PWM_PulseFinishedCallback(htim);
 8007ef0:	6878      	ldr	r0, [r7, #4]
 8007ef2:	f000 f8df 	bl	80080b4 <HAL_TIM_PWM_PulseFinishedCallback>
#endif /* USE_HAL_TIM_REGISTER_CALLBACKS */
        }
        htim->Channel = HAL_TIM_ACTIVE_CHANNEL_CLEARED;
 8007ef6:	687b      	ldr	r3, [r7, #4]
 8007ef8:	2200      	movs	r2, #0
 8007efa:	771a      	strb	r2, [r3, #28]
      }
    }
  }
  /* Capture compare 2 event */
  if ((itflag & (TIM_FLAG_CC2)) == (TIM_FLAG_CC2))
 8007efc:	68bb      	ldr	r3, [r7, #8]
 8007efe:	f003 0304 	and.w	r3, r3, #4
 8007f02:	2b00      	cmp	r3, #0
 8007f04:	d020      	beq.n	8007f48 <HAL_TIM_IRQHandler+0xb0>
  {
    if ((itsource & (TIM_IT_CC2)) == (TIM_IT_CC2))
 8007f06:	68fb      	ldr	r3, [r7, #12]
 8007f08:	f003 0304 	and.w	r3, r3, #4
 8007f0c:	2b00      	cmp	r3, #0
 8007f0e:	d01b      	beq.n	8007f48 <HAL_TIM_IRQHandler+0xb0>
    {
      __HAL_TIM_CLEAR_FLAG(htim, TIM_FLAG_CC2);
 8007f10:	687b      	ldr	r3, [r7, #4]
 8007f12:	681b      	ldr	r3, [r3, #0]
 8007f14:	f06f 0204 	mvn.w	r2, #4
 8007f18:	611a      	str	r2, [r3, #16]
      htim->Channel = HAL_TIM_ACTIVE_CHANNEL_2;
 8007f1a:	687b      	ldr	r3, [r7, #4]
 8007f1c:	2202      	movs	r2, #2
 8007f1e:	771a      	strb	r2, [r3, #28]
      /* Input capture event */
      if ((htim->Instance->CCMR1 & TIM_CCMR1_CC2S) != 0x00U)
 8007f20:	687b      	ldr	r3, [r7, #4]
 8007f22:	681b      	ldr	r3, [r3, #0]
 8007f24:	699b      	ldr	r3, [r3, #24]
 8007f26:	f403 7340 	and.w	r3, r3, #768	; 0x300
 8007f2a:	2b00      	cmp	r3, #0
 8007f2c:	d003      	beq.n	8007f36 <HAL_TIM_IRQHandler+0x9e>
      {
#if (USE_HAL_TIM_REGISTER_CALLBACKS == 1)
        htim->IC_CaptureCallback(htim);
#else
        HAL_TIM_IC_CaptureCallback(htim);
 8007f2e:	6878      	ldr	r0, [r7, #4]
 8007f30:	f000 f8b6 	bl	80080a0 <HAL_TIM_IC_CaptureCallback>
 8007f34:	e005      	b.n	8007f42 <HAL_TIM_IRQHandler+0xaa>
      {
#if (USE_HAL_TIM_REGISTER_CALLBACKS == 1)
        htim->OC_DelayElapsedCallback(htim);
        htim->PWM_PulseFinishedCallback(htim);
#else
        HAL_TIM_OC_DelayElapsedCallback(htim);
 8007f36:	6878      	ldr	r0, [r7, #4]
 8007f38:	f000 f8a8 	bl	800808c <HAL_TIM_OC_DelayElapsedCallback>
        HAL_TIM_PWM_PulseFinishedCallback(htim);
 8007f3c:	6878      	ldr	r0, [r7, #4]
 8007f3e:	f000 f8b9 	bl	80080b4 <HAL_TIM_PWM_PulseFinishedCallback>
#endif /* USE_HAL_TIM_REGISTER_CALLBACKS */
      }
      htim->Channel = HAL_TIM_ACTIVE_CHANNEL_CLEARED;
 8007f42:	687b      	ldr	r3, [r7, #4]
 8007f44:	2200      	movs	r2, #0
 8007f46:	771a      	strb	r2, [r3, #28]
    }
  }
  /* Capture compare 3 event */
  if ((itflag & (TIM_FLAG_CC3)) == (TIM_FLAG_CC3))
 8007f48:	68bb      	ldr	r3, [r7, #8]
 8007f4a:	f003 0308 	and.w	r3, r3, #8
 8007f4e:	2b00      	cmp	r3, #0
 8007f50:	d020      	beq.n	8007f94 <HAL_TIM_IRQHandler+0xfc>
  {
    if ((itsource & (TIM_IT_CC3)) == (TIM_IT_CC3))
 8007f52:	68fb      	ldr	r3, [r7, #12]
 8007f54:	f003 0308 	and.w	r3, r3, #8
 8007f58:	2b00      	cmp	r3, #0
 8007f5a:	d01b      	beq.n	8007f94 <HAL_TIM_IRQHandler+0xfc>
    {
      __HAL_TIM_CLEAR_FLAG(htim, TIM_FLAG_CC3);
 8007f5c:	687b      	ldr	r3, [r7, #4]
 8007f5e:	681b      	ldr	r3, [r3, #0]
 8007f60:	f06f 0208 	mvn.w	r2, #8
 8007f64:	611a      	str	r2, [r3, #16]
      htim->Channel = HAL_TIM_ACTIVE_CHANNEL_3;
 8007f66:	687b      	ldr	r3, [r7, #4]
 8007f68:	2204      	movs	r2, #4
 8007f6a:	771a      	strb	r2, [r3, #28]
      /* Input capture event */
      if ((htim->Instance->CCMR2 & TIM_CCMR2_CC3S) != 0x00U)
 8007f6c:	687b      	ldr	r3, [r7, #4]
 8007f6e:	681b      	ldr	r3, [r3, #0]
 8007f70:	69db      	ldr	r3, [r3, #28]
 8007f72:	f003 0303 	and.w	r3, r3, #3
 8007f76:	2b00      	cmp	r3, #0
 8007f78:	d003      	beq.n	8007f82 <HAL_TIM_IRQHandler+0xea>
      {
#if (USE_HAL_TIM_REGISTER_CALLBACKS == 1)
        htim->IC_CaptureCallback(htim);
#else
        HAL_TIM_IC_CaptureCallback(htim);
 8007f7a:	6878      	ldr	r0, [r7, #4]
 8007f7c:	f000 f890 	bl	80080a0 <HAL_TIM_IC_CaptureCallback>
 8007f80:	e005      	b.n	8007f8e <HAL_TIM_IRQHandler+0xf6>
      {
#if (USE_HAL_TIM_REGISTER_CALLBACKS == 1)
        htim->OC_DelayElapsedCallback(htim);
        htim->PWM_PulseFinishedCallback(htim);
#else
        HAL_TIM_OC_DelayElapsedCallback(htim);
 8007f82:	6878      	ldr	r0, [r7, #4]
 8007f84:	f000 f882 	bl	800808c <HAL_TIM_OC_DelayElapsedCallback>
        HAL_TIM_PWM_PulseFinishedCallback(htim);
 8007f88:	6878      	ldr	r0, [r7, #4]
 8007f8a:	f000 f893 	bl	80080b4 <HAL_TIM_PWM_PulseFinishedCallback>
#endif /* USE_HAL_TIM_REGISTER_CALLBACKS */
      }
      htim->Channel = HAL_TIM_ACTIVE_CHANNEL_CLEARED;
 8007f8e:	687b      	ldr	r3, [r7, #4]
 8007f90:	2200      	movs	r2, #0
 8007f92:	771a      	strb	r2, [r3, #28]
    }
  }
  /* Capture compare 4 event */
  if ((itflag & (TIM_FLAG_CC4)) == (TIM_FLAG_CC4))
 8007f94:	68bb      	ldr	r3, [r7, #8]
 8007f96:	f003 0310 	and.w	r3, r3, #16
 8007f9a:	2b00      	cmp	r3, #0
 8007f9c:	d020      	beq.n	8007fe0 <HAL_TIM_IRQHandler+0x148>
  {
    if ((itsource & (TIM_IT_CC4)) == (TIM_IT_CC4))
 8007f9e:	68fb      	ldr	r3, [r7, #12]
 8007fa0:	f003 0310 	and.w	r3, r3, #16
 8007fa4:	2b00      	cmp	r3, #0
 8007fa6:	d01b      	beq.n	8007fe0 <HAL_TIM_IRQHandler+0x148>
    {
      __HAL_TIM_CLEAR_FLAG(htim, TIM_FLAG_CC4);
 8007fa8:	687b      	ldr	r3, [r7, #4]
 8007faa:	681b      	ldr	r3, [r3, #0]
 8007fac:	f06f 0210 	mvn.w	r2, #16
 8007fb0:	611a      	str	r2, [r3, #16]
      htim->Channel = HAL_TIM_ACTIVE_CHANNEL_4;
 8007fb2:	687b      	ldr	r3, [r7, #4]
 8007fb4:	2208      	movs	r2, #8
 8007fb6:	771a      	strb	r2, [r3, #28]
      /* Input capture event */
      if ((htim->Instance->CCMR2 & TIM_CCMR2_CC4S) != 0x00U)
 8007fb8:	687b      	ldr	r3, [r7, #4]
 8007fba:	681b      	ldr	r3, [r3, #0]
 8007fbc:	69db      	ldr	r3, [r3, #28]
 8007fbe:	f403 7340 	and.w	r3, r3, #768	; 0x300
 8007fc2:	2b00      	cmp	r3, #0
 8007fc4:	d003      	beq.n	8007fce <HAL_TIM_IRQHandler+0x136>
      {
#if (USE_HAL_TIM_REGISTER_CALLBACKS == 1)
        htim->IC_CaptureCallback(htim);
#else
        HAL_TIM_IC_CaptureCallback(htim);
 8007fc6:	6878      	ldr	r0, [r7, #4]
 8007fc8:	f000 f86a 	bl	80080a0 <HAL_TIM_IC_CaptureCallback>
 8007fcc:	e005      	b.n	8007fda <HAL_TIM_IRQHandler+0x142>
      {
#if (USE_HAL_TIM_REGISTER_CALLBACKS == 1)
        htim->OC_DelayElapsedCallback(htim);
        htim->PWM_PulseFinishedCallback(htim);
#else
        HAL_TIM_OC_DelayElapsedCallback(htim);
 8007fce:	6878      	ldr	r0, [r7, #4]
 8007fd0:	f000 f85c 	bl	800808c <HAL_TIM_OC_DelayElapsedCallback>
        HAL_TIM_PWM_PulseFinishedCallback(htim);
 8007fd4:	6878      	ldr	r0, [r7, #4]
 8007fd6:	f000 f86d 	bl	80080b4 <HAL_TIM_PWM_PulseFinishedCallback>
#endif /* USE_HAL_TIM_REGISTER_CALLBACKS */
      }
      htim->Channel = HAL_TIM_ACTIVE_CHANNEL_CLEARED;
 8007fda:	687b      	ldr	r3, [r7, #4]
 8007fdc:	2200      	movs	r2, #0
 8007fde:	771a      	strb	r2, [r3, #28]
    }
  }
  /* TIM Update event */
  if ((itflag & (TIM_FLAG_UPDATE)) == (TIM_FLAG_UPDATE))
 8007fe0:	68bb      	ldr	r3, [r7, #8]
 8007fe2:	f003 0301 	and.w	r3, r3, #1
 8007fe6:	2b00      	cmp	r3, #0
 8007fe8:	d00c      	beq.n	8008004 <HAL_TIM_IRQHandler+0x16c>
  {
    if ((itsource & (TIM_IT_UPDATE)) == (TIM_IT_UPDATE))
 8007fea:	68fb      	ldr	r3, [r7, #12]
 8007fec:	f003 0301 	and.w	r3, r3, #1
 8007ff0:	2b00      	cmp	r3, #0
 8007ff2:	d007      	beq.n	8008004 <HAL_TIM_IRQHandler+0x16c>
    {
      __HAL_TIM_CLEAR_FLAG(htim, TIM_FLAG_UPDATE);
 8007ff4:	687b      	ldr	r3, [r7, #4]
 8007ff6:	681b      	ldr	r3, [r3, #0]
 8007ff8:	f06f 0201 	mvn.w	r2, #1
 8007ffc:	611a      	str	r2, [r3, #16]
#if (USE_HAL_TIM_REGISTER_CALLBACKS == 1)
      htim->PeriodElapsedCallback(htim);
#else
      HAL_TIM_PeriodElapsedCallback(htim);
 8007ffe:	6878      	ldr	r0, [r7, #4]
 8008000:	f000 f83a 	bl	8008078 <HAL_TIM_PeriodElapsedCallback>
#endif /* USE_HAL_TIM_REGISTER_CALLBACKS */
    }
  }
  /* TIM Break input event */
  if ((itflag & (TIM_FLAG_BREAK)) == (TIM_FLAG_BREAK))
 8008004:	68bb      	ldr	r3, [r7, #8]
 8008006:	f003 0380 	and.w	r3, r3, #128	; 0x80
 800800a:	2b00      	cmp	r3, #0
 800800c:	d00c      	beq.n	8008028 <HAL_TIM_IRQHandler+0x190>
  {
    if ((itsource & (TIM_IT_BREAK)) == (TIM_IT_BREAK))
 800800e:	68fb      	ldr	r3, [r7, #12]
 8008010:	f003 0380 	and.w	r3, r3, #128	; 0x80
 8008014:	2b00      	cmp	r3, #0
 8008016:	d007      	beq.n	8008028 <HAL_TIM_IRQHandler+0x190>
    {
      __HAL_TIM_CLEAR_FLAG(htim, TIM_FLAG_BREAK);
 8008018:	687b      	ldr	r3, [r7, #4]
 800801a:	681b      	ldr	r3, [r3, #0]
 800801c:	f06f 0280 	mvn.w	r2, #128	; 0x80
 8008020:	611a      	str	r2, [r3, #16]
#if (USE_HAL_TIM_REGISTER_CALLBACKS == 1)
      htim->BreakCallback(htim);
#else
      HAL_TIMEx_BreakCallback(htim);
 8008022:	6878      	ldr	r0, [r7, #4]
 8008024:	f000 f98c 	bl	8008340 <HAL_TIMEx_BreakCallback>
#endif /* USE_HAL_TIM_REGISTER_CALLBACKS */
    }
  }
  /* TIM Trigger detection event */
  if ((itflag & (TIM_FLAG_TRIGGER)) == (TIM_FLAG_TRIGGER))
 8008028:	68bb      	ldr	r3, [r7, #8]
 800802a:	f003 0340 	and.w	r3, r3, #64	; 0x40
 800802e:	2b00      	cmp	r3, #0
 8008030:	d00c      	beq.n	800804c <HAL_TIM_IRQHandler+0x1b4>
  {
    if ((itsource & (TIM_IT_TRIGGER)) == (TIM_IT_TRIGGER))
 8008032:	68fb      	ldr	r3, [r7, #12]
 8008034:	f003 0340 	and.w	r3, r3, #64	; 0x40
 8008038:	2b00      	cmp	r3, #0
 800803a:	d007      	beq.n	800804c <HAL_TIM_IRQHandler+0x1b4>
    {
      __HAL_TIM_CLEAR_FLAG(htim, TIM_FLAG_TRIGGER);
 800803c:	687b      	ldr	r3, [r7, #4]
 800803e:	681b      	ldr	r3, [r3, #0]
 8008040:	f06f 0240 	mvn.w	r2, #64	; 0x40
 8008044:	611a      	str	r2, [r3, #16]
#if (USE_HAL_TIM_REGISTER_CALLBACKS == 1)
      htim->TriggerCallback(htim);
#else
      HAL_TIM_TriggerCallback(htim);
 8008046:	6878      	ldr	r0, [r7, #4]
 8008048:	f000 f83e 	bl	80080c8 <HAL_TIM_TriggerCallback>
#endif /* USE_HAL_TIM_REGISTER_CALLBACKS */
    }
  }
  /* TIM commutation event */
  if ((itflag & (TIM_FLAG_COM)) == (TIM_FLAG_COM))
 800804c:	68bb      	ldr	r3, [r7, #8]
 800804e:	f003 0320 	and.w	r3, r3, #32
 8008052:	2b00      	cmp	r3, #0
 8008054:	d00c      	beq.n	8008070 <HAL_TIM_IRQHandler+0x1d8>
  {
    if ((itsource & (TIM_IT_COM)) == (TIM_IT_COM))
 8008056:	68fb      	ldr	r3, [r7, #12]
 8008058:	f003 0320 	and.w	r3, r3, #32
 800805c:	2b00      	cmp	r3, #0
 800805e:	d007      	beq.n	8008070 <HAL_TIM_IRQHandler+0x1d8>
    {
      __HAL_TIM_CLEAR_FLAG(htim, TIM_FLAG_COM);
 8008060:	687b      	ldr	r3, [r7, #4]
 8008062:	681b      	ldr	r3, [r3, #0]
 8008064:	f06f 0220 	mvn.w	r2, #32
 8008068:	611a      	str	r2, [r3, #16]
#if (USE_HAL_TIM_REGISTER_CALLBACKS == 1)
      htim->CommutationCallback(htim);
#else
      HAL_TIMEx_CommutCallback(htim);
 800806a:	6878      	ldr	r0, [r7, #4]
 800806c:	f000 f95e 	bl	800832c <HAL_TIMEx_CommutCallback>
#endif /* USE_HAL_TIM_REGISTER_CALLBACKS */
    }
  }
}
 8008070:	bf00      	nop
 8008072:	3710      	adds	r7, #16
 8008074:	46bd      	mov	sp, r7
 8008076:	bd80      	pop	{r7, pc}

08008078 <HAL_TIM_PeriodElapsedCallback>:
  * @brief  Period elapsed callback in non-blocking mode
  * @param  htim TIM handle
  * @retval None
  */
__weak void HAL_TIM_PeriodElapsedCallback(TIM_HandleTypeDef *htim)
{
 8008078:	b480      	push	{r7}
 800807a:	b083      	sub	sp, #12
 800807c:	af00      	add	r7, sp, #0
 800807e:	6078      	str	r0, [r7, #4]
  UNUSED(htim);

  /* NOTE : This function should not be modified, when the callback is needed,
            the HAL_TIM_PeriodElapsedCallback could be implemented in the user file
   */
}
 8008080:	bf00      	nop
 8008082:	370c      	adds	r7, #12
 8008084:	46bd      	mov	sp, r7
 8008086:	f85d 7b04 	ldr.w	r7, [sp], #4
 800808a:	4770      	bx	lr

0800808c <HAL_TIM_OC_DelayElapsedCallback>:
  * @brief  Output Compare callback in non-blocking mode
  * @param  htim TIM OC handle
  * @retval None
  */
__weak void HAL_TIM_OC_DelayElapsedCallback(TIM_HandleTypeDef *htim)
{
 800808c:	b480      	push	{r7}
 800808e:	b083      	sub	sp, #12
 8008090:	af00      	add	r7, sp, #0
 8008092:	6078      	str	r0, [r7, #4]
  UNUSED(htim);

  /* NOTE : This function should not be modified, when the callback is needed,
            the HAL_TIM_OC_DelayElapsedCallback could be implemented in the user file
   */
}
 8008094:	bf00      	nop
 8008096:	370c      	adds	r7, #12
 8008098:	46bd      	mov	sp, r7
 800809a:	f85d 7b04 	ldr.w	r7, [sp], #4
 800809e:	4770      	bx	lr

080080a0 <HAL_TIM_IC_CaptureCallback>:
  * @brief  Input Capture callback in non-blocking mode
  * @param  htim TIM IC handle
  * @retval None
  */
__weak void HAL_TIM_IC_CaptureCallback(TIM_HandleTypeDef *htim)
{
 80080a0:	b480      	push	{r7}
 80080a2:	b083      	sub	sp, #12
 80080a4:	af00      	add	r7, sp, #0
 80080a6:	6078      	str	r0, [r7, #4]
  UNUSED(htim);

  /* NOTE : This function should not be modified, when the callback is needed,
            the HAL_TIM_IC_CaptureCallback could be implemented in the user file
   */
}
 80080a8:	bf00      	nop
 80080aa:	370c      	adds	r7, #12
 80080ac:	46bd      	mov	sp, r7
 80080ae:	f85d 7b04 	ldr.w	r7, [sp], #4
 80080b2:	4770      	bx	lr

080080b4 <HAL_TIM_PWM_PulseFinishedCallback>:
  * @brief  PWM Pulse finished callback in non-blocking mode
  * @param  htim TIM handle
  * @retval None
  */
__weak void HAL_TIM_PWM_PulseFinishedCallback(TIM_HandleTypeDef *htim)
{
 80080b4:	b480      	push	{r7}
 80080b6:	b083      	sub	sp, #12
 80080b8:	af00      	add	r7, sp, #0
 80080ba:	6078      	str	r0, [r7, #4]
  UNUSED(htim);

  /* NOTE : This function should not be modified, when the callback is needed,
            the HAL_TIM_PWM_PulseFinishedCallback could be implemented in the user file
   */
}
 80080bc:	bf00      	nop
 80080be:	370c      	adds	r7, #12
 80080c0:	46bd      	mov	sp, r7
 80080c2:	f85d 7b04 	ldr.w	r7, [sp], #4
 80080c6:	4770      	bx	lr

080080c8 <HAL_TIM_TriggerCallback>:
  * @brief  Hall Trigger detection callback in non-blocking mode
  * @param  htim TIM handle
  * @retval None
  */
__weak void HAL_TIM_TriggerCallback(TIM_HandleTypeDef *htim)
{
 80080c8:	b480      	push	{r7}
 80080ca:	b083      	sub	sp, #12
 80080cc:	af00      	add	r7, sp, #0
 80080ce:	6078      	str	r0, [r7, #4]
  UNUSED(htim);

  /* NOTE : This function should not be modified, when the callback is needed,
            the HAL_TIM_TriggerCallback could be implemented in the user file
   */
}
 80080d0:	bf00      	nop
 80080d2:	370c      	adds	r7, #12
 80080d4:	46bd      	mov	sp, r7
 80080d6:	f85d 7b04 	ldr.w	r7, [sp], #4
 80080da:	4770      	bx	lr

080080dc <TIM_Base_SetConfig>:
  * @param  TIMx TIM peripheral
  * @param  Structure TIM Base configuration structure
  * @retval None
  */
void TIM_Base_SetConfig(TIM_TypeDef *TIMx, const TIM_Base_InitTypeDef *Structure)
{
 80080dc:	b480      	push	{r7}
 80080de:	b085      	sub	sp, #20
 80080e0:	af00      	add	r7, sp, #0
 80080e2:	6078      	str	r0, [r7, #4]
 80080e4:	6039      	str	r1, [r7, #0]
  uint32_t tmpcr1;
  tmpcr1 = TIMx->CR1;
 80080e6:	687b      	ldr	r3, [r7, #4]
 80080e8:	681b      	ldr	r3, [r3, #0]
 80080ea:	60fb      	str	r3, [r7, #12]

  /* Set TIM Time Base Unit parameters ---------------------------------------*/
  if (IS_TIM_COUNTER_MODE_SELECT_INSTANCE(TIMx))
 80080ec:	687b      	ldr	r3, [r7, #4]
 80080ee:	4a46      	ldr	r2, [pc, #280]	; (8008208 <TIM_Base_SetConfig+0x12c>)
 80080f0:	4293      	cmp	r3, r2
 80080f2:	d013      	beq.n	800811c <TIM_Base_SetConfig+0x40>
 80080f4:	687b      	ldr	r3, [r7, #4]
 80080f6:	f1b3 4f80 	cmp.w	r3, #1073741824	; 0x40000000
 80080fa:	d00f      	beq.n	800811c <TIM_Base_SetConfig+0x40>
 80080fc:	687b      	ldr	r3, [r7, #4]
 80080fe:	4a43      	ldr	r2, [pc, #268]	; (800820c <TIM_Base_SetConfig+0x130>)
 8008100:	4293      	cmp	r3, r2
 8008102:	d00b      	beq.n	800811c <TIM_Base_SetConfig+0x40>
 8008104:	687b      	ldr	r3, [r7, #4]
 8008106:	4a42      	ldr	r2, [pc, #264]	; (8008210 <TIM_Base_SetConfig+0x134>)
 8008108:	4293      	cmp	r3, r2
 800810a:	d007      	beq.n	800811c <TIM_Base_SetConfig+0x40>
 800810c:	687b      	ldr	r3, [r7, #4]
 800810e:	4a41      	ldr	r2, [pc, #260]	; (8008214 <TIM_Base_SetConfig+0x138>)
 8008110:	4293      	cmp	r3, r2
 8008112:	d003      	beq.n	800811c <TIM_Base_SetConfig+0x40>
 8008114:	687b      	ldr	r3, [r7, #4]
 8008116:	4a40      	ldr	r2, [pc, #256]	; (8008218 <TIM_Base_SetConfig+0x13c>)
 8008118:	4293      	cmp	r3, r2
 800811a:	d108      	bne.n	800812e <TIM_Base_SetConfig+0x52>
  {
    /* Select the Counter Mode */
    tmpcr1 &= ~(TIM_CR1_DIR | TIM_CR1_CMS);
 800811c:	68fb      	ldr	r3, [r7, #12]
 800811e:	f023 0370 	bic.w	r3, r3, #112	; 0x70
 8008122:	60fb      	str	r3, [r7, #12]
    tmpcr1 |= Structure->CounterMode;
 8008124:	683b      	ldr	r3, [r7, #0]
 8008126:	685b      	ldr	r3, [r3, #4]
 8008128:	68fa      	ldr	r2, [r7, #12]
 800812a:	4313      	orrs	r3, r2
 800812c:	60fb      	str	r3, [r7, #12]
  }

  if (IS_TIM_CLOCK_DIVISION_INSTANCE(TIMx))
 800812e:	687b      	ldr	r3, [r7, #4]
 8008130:	4a35      	ldr	r2, [pc, #212]	; (8008208 <TIM_Base_SetConfig+0x12c>)
 8008132:	4293      	cmp	r3, r2
 8008134:	d02b      	beq.n	800818e <TIM_Base_SetConfig+0xb2>
 8008136:	687b      	ldr	r3, [r7, #4]
 8008138:	f1b3 4f80 	cmp.w	r3, #1073741824	; 0x40000000
 800813c:	d027      	beq.n	800818e <TIM_Base_SetConfig+0xb2>
 800813e:	687b      	ldr	r3, [r7, #4]
 8008140:	4a32      	ldr	r2, [pc, #200]	; (800820c <TIM_Base_SetConfig+0x130>)
 8008142:	4293      	cmp	r3, r2
 8008144:	d023      	beq.n	800818e <TIM_Base_SetConfig+0xb2>
 8008146:	687b      	ldr	r3, [r7, #4]
 8008148:	4a31      	ldr	r2, [pc, #196]	; (8008210 <TIM_Base_SetConfig+0x134>)
 800814a:	4293      	cmp	r3, r2
 800814c:	d01f      	beq.n	800818e <TIM_Base_SetConfig+0xb2>
 800814e:	687b      	ldr	r3, [r7, #4]
 8008150:	4a30      	ldr	r2, [pc, #192]	; (8008214 <TIM_Base_SetConfig+0x138>)
 8008152:	4293      	cmp	r3, r2
 8008154:	d01b      	beq.n	800818e <TIM_Base_SetConfig+0xb2>
 8008156:	687b      	ldr	r3, [r7, #4]
 8008158:	4a2f      	ldr	r2, [pc, #188]	; (8008218 <TIM_Base_SetConfig+0x13c>)
 800815a:	4293      	cmp	r3, r2
 800815c:	d017      	beq.n	800818e <TIM_Base_SetConfig+0xb2>
 800815e:	687b      	ldr	r3, [r7, #4]
 8008160:	4a2e      	ldr	r2, [pc, #184]	; (800821c <TIM_Base_SetConfig+0x140>)
 8008162:	4293      	cmp	r3, r2
 8008164:	d013      	beq.n	800818e <TIM_Base_SetConfig+0xb2>
 8008166:	687b      	ldr	r3, [r7, #4]
 8008168:	4a2d      	ldr	r2, [pc, #180]	; (8008220 <TIM_Base_SetConfig+0x144>)
 800816a:	4293      	cmp	r3, r2
 800816c:	d00f      	beq.n	800818e <TIM_Base_SetConfig+0xb2>
 800816e:	687b      	ldr	r3, [r7, #4]
 8008170:	4a2c      	ldr	r2, [pc, #176]	; (8008224 <TIM_Base_SetConfig+0x148>)
 8008172:	4293      	cmp	r3, r2
 8008174:	d00b      	beq.n	800818e <TIM_Base_SetConfig+0xb2>
 8008176:	687b      	ldr	r3, [r7, #4]
 8008178:	4a2b      	ldr	r2, [pc, #172]	; (8008228 <TIM_Base_SetConfig+0x14c>)
 800817a:	4293      	cmp	r3, r2
 800817c:	d007      	beq.n	800818e <TIM_Base_SetConfig+0xb2>
 800817e:	687b      	ldr	r3, [r7, #4]
 8008180:	4a2a      	ldr	r2, [pc, #168]	; (800822c <TIM_Base_SetConfig+0x150>)
 8008182:	4293      	cmp	r3, r2
 8008184:	d003      	beq.n	800818e <TIM_Base_SetConfig+0xb2>
 8008186:	687b      	ldr	r3, [r7, #4]
 8008188:	4a29      	ldr	r2, [pc, #164]	; (8008230 <TIM_Base_SetConfig+0x154>)
 800818a:	4293      	cmp	r3, r2
 800818c:	d108      	bne.n	80081a0 <TIM_Base_SetConfig+0xc4>
  {
    /* Set the clock division */
    tmpcr1 &= ~TIM_CR1_CKD;
 800818e:	68fb      	ldr	r3, [r7, #12]
 8008190:	f423 7340 	bic.w	r3, r3, #768	; 0x300
 8008194:	60fb      	str	r3, [r7, #12]
    tmpcr1 |= (uint32_t)Structure->ClockDivision;
 8008196:	683b      	ldr	r3, [r7, #0]
 8008198:	68db      	ldr	r3, [r3, #12]
 800819a:	68fa      	ldr	r2, [r7, #12]
 800819c:	4313      	orrs	r3, r2
 800819e:	60fb      	str	r3, [r7, #12]
  }

  /* Set the auto-reload preload */
  MODIFY_REG(tmpcr1, TIM_CR1_ARPE, Structure->AutoReloadPreload);
 80081a0:	68fb      	ldr	r3, [r7, #12]
 80081a2:	f023 0280 	bic.w	r2, r3, #128	; 0x80
 80081a6:	683b      	ldr	r3, [r7, #0]
 80081a8:	695b      	ldr	r3, [r3, #20]
 80081aa:	4313      	orrs	r3, r2
 80081ac:	60fb      	str	r3, [r7, #12]

  TIMx->CR1 = tmpcr1;
 80081ae:	687b      	ldr	r3, [r7, #4]
 80081b0:	68fa      	ldr	r2, [r7, #12]
 80081b2:	601a      	str	r2, [r3, #0]

  /* Set the Autoreload value */
  TIMx->ARR = (uint32_t)Structure->Period ;
 80081b4:	683b      	ldr	r3, [r7, #0]
 80081b6:	689a      	ldr	r2, [r3, #8]
 80081b8:	687b      	ldr	r3, [r7, #4]
 80081ba:	62da      	str	r2, [r3, #44]	; 0x2c

  /* Set the Prescaler value */
  TIMx->PSC = Structure->Prescaler;
 80081bc:	683b      	ldr	r3, [r7, #0]
 80081be:	681a      	ldr	r2, [r3, #0]
 80081c0:	687b      	ldr	r3, [r7, #4]
 80081c2:	629a      	str	r2, [r3, #40]	; 0x28

  if (IS_TIM_REPETITION_COUNTER_INSTANCE(TIMx))
 80081c4:	687b      	ldr	r3, [r7, #4]
 80081c6:	4a10      	ldr	r2, [pc, #64]	; (8008208 <TIM_Base_SetConfig+0x12c>)
 80081c8:	4293      	cmp	r3, r2
 80081ca:	d003      	beq.n	80081d4 <TIM_Base_SetConfig+0xf8>
 80081cc:	687b      	ldr	r3, [r7, #4]
 80081ce:	4a12      	ldr	r2, [pc, #72]	; (8008218 <TIM_Base_SetConfig+0x13c>)
 80081d0:	4293      	cmp	r3, r2
 80081d2:	d103      	bne.n	80081dc <TIM_Base_SetConfig+0x100>
  {
    /* Set the Repetition Counter value */
    TIMx->RCR = Structure->RepetitionCounter;
 80081d4:	683b      	ldr	r3, [r7, #0]
 80081d6:	691a      	ldr	r2, [r3, #16]
 80081d8:	687b      	ldr	r3, [r7, #4]
 80081da:	631a      	str	r2, [r3, #48]	; 0x30
  }

  /* Generate an update event to reload the Prescaler
     and the repetition counter (only for advanced timer) value immediately */
  TIMx->EGR = TIM_EGR_UG;
 80081dc:	687b      	ldr	r3, [r7, #4]
 80081de:	2201      	movs	r2, #1
 80081e0:	615a      	str	r2, [r3, #20]

  /* Check if the update flag is set after the Update Generation, if so clear the UIF flag */
  if (HAL_IS_BIT_SET(TIMx->SR, TIM_FLAG_UPDATE))
 80081e2:	687b      	ldr	r3, [r7, #4]
 80081e4:	691b      	ldr	r3, [r3, #16]
 80081e6:	f003 0301 	and.w	r3, r3, #1
 80081ea:	2b01      	cmp	r3, #1
 80081ec:	d105      	bne.n	80081fa <TIM_Base_SetConfig+0x11e>
  {
    /* Clear the update flag */
    CLEAR_BIT(TIMx->SR, TIM_FLAG_UPDATE);
 80081ee:	687b      	ldr	r3, [r7, #4]
 80081f0:	691b      	ldr	r3, [r3, #16]
 80081f2:	f023 0201 	bic.w	r2, r3, #1
 80081f6:	687b      	ldr	r3, [r7, #4]
 80081f8:	611a      	str	r2, [r3, #16]
  }
}
 80081fa:	bf00      	nop
 80081fc:	3714      	adds	r7, #20
 80081fe:	46bd      	mov	sp, r7
 8008200:	f85d 7b04 	ldr.w	r7, [sp], #4
 8008204:	4770      	bx	lr
 8008206:	bf00      	nop
 8008208:	40010000 	.word	0x40010000
 800820c:	40000400 	.word	0x40000400
 8008210:	40000800 	.word	0x40000800
 8008214:	40000c00 	.word	0x40000c00
 8008218:	40010400 	.word	0x40010400
 800821c:	40014000 	.word	0x40014000
 8008220:	40014400 	.word	0x40014400
 8008224:	40014800 	.word	0x40014800
 8008228:	40001800 	.word	0x40001800
 800822c:	40001c00 	.word	0x40001c00
 8008230:	40002000 	.word	0x40002000

08008234 <HAL_TIMEx_MasterConfigSynchronization>:
  *         mode.
  * @retval HAL status
  */
HAL_StatusTypeDef HAL_TIMEx_MasterConfigSynchronization(TIM_HandleTypeDef *htim,
                                                        const TIM_MasterConfigTypeDef *sMasterConfig)
{
 8008234:	b480      	push	{r7}
 8008236:	b085      	sub	sp, #20
 8008238:	af00      	add	r7, sp, #0
 800823a:	6078      	str	r0, [r7, #4]
 800823c:	6039      	str	r1, [r7, #0]
  assert_param(IS_TIM_MASTER_INSTANCE(htim->Instance));
  assert_param(IS_TIM_TRGO_SOURCE(sMasterConfig->MasterOutputTrigger));
  assert_param(IS_TIM_MSM_STATE(sMasterConfig->MasterSlaveMode));

  /* Check input state */
  __HAL_LOCK(htim);
 800823e:	687b      	ldr	r3, [r7, #4]
 8008240:	f893 303c 	ldrb.w	r3, [r3, #60]	; 0x3c
 8008244:	2b01      	cmp	r3, #1
 8008246:	d101      	bne.n	800824c <HAL_TIMEx_MasterConfigSynchronization+0x18>
 8008248:	2302      	movs	r3, #2
 800824a:	e05a      	b.n	8008302 <HAL_TIMEx_MasterConfigSynchronization+0xce>
 800824c:	687b      	ldr	r3, [r7, #4]
 800824e:	2201      	movs	r2, #1
 8008250:	f883 203c 	strb.w	r2, [r3, #60]	; 0x3c

  /* Change the handler state */
  htim->State = HAL_TIM_STATE_BUSY;
 8008254:	687b      	ldr	r3, [r7, #4]
 8008256:	2202      	movs	r2, #2
 8008258:	f883 203d 	strb.w	r2, [r3, #61]	; 0x3d

  /* Get the TIMx CR2 register value */
  tmpcr2 = htim->Instance->CR2;
 800825c:	687b      	ldr	r3, [r7, #4]
 800825e:	681b      	ldr	r3, [r3, #0]
 8008260:	685b      	ldr	r3, [r3, #4]
 8008262:	60fb      	str	r3, [r7, #12]

  /* Get the TIMx SMCR register value */
  tmpsmcr = htim->Instance->SMCR;
 8008264:	687b      	ldr	r3, [r7, #4]
 8008266:	681b      	ldr	r3, [r3, #0]
 8008268:	689b      	ldr	r3, [r3, #8]
 800826a:	60bb      	str	r3, [r7, #8]

  /* Reset the MMS Bits */
  tmpcr2 &= ~TIM_CR2_MMS;
 800826c:	68fb      	ldr	r3, [r7, #12]
 800826e:	f023 0370 	bic.w	r3, r3, #112	; 0x70
 8008272:	60fb      	str	r3, [r7, #12]
  /* Select the TRGO source */
  tmpcr2 |=  sMasterConfig->MasterOutputTrigger;
 8008274:	683b      	ldr	r3, [r7, #0]
 8008276:	681b      	ldr	r3, [r3, #0]
 8008278:	68fa      	ldr	r2, [r7, #12]
 800827a:	4313      	orrs	r3, r2
 800827c:	60fb      	str	r3, [r7, #12]

  /* Update TIMx CR2 */
  htim->Instance->CR2 = tmpcr2;
 800827e:	687b      	ldr	r3, [r7, #4]
 8008280:	681b      	ldr	r3, [r3, #0]
 8008282:	68fa      	ldr	r2, [r7, #12]
 8008284:	605a      	str	r2, [r3, #4]

  if (IS_TIM_SLAVE_INSTANCE(htim->Instance))
 8008286:	687b      	ldr	r3, [r7, #4]
 8008288:	681b      	ldr	r3, [r3, #0]
 800828a:	4a21      	ldr	r2, [pc, #132]	; (8008310 <HAL_TIMEx_MasterConfigSynchronization+0xdc>)
 800828c:	4293      	cmp	r3, r2
 800828e:	d022      	beq.n	80082d6 <HAL_TIMEx_MasterConfigSynchronization+0xa2>
 8008290:	687b      	ldr	r3, [r7, #4]
 8008292:	681b      	ldr	r3, [r3, #0]
 8008294:	f1b3 4f80 	cmp.w	r3, #1073741824	; 0x40000000
 8008298:	d01d      	beq.n	80082d6 <HAL_TIMEx_MasterConfigSynchronization+0xa2>
 800829a:	687b      	ldr	r3, [r7, #4]
 800829c:	681b      	ldr	r3, [r3, #0]
 800829e:	4a1d      	ldr	r2, [pc, #116]	; (8008314 <HAL_TIMEx_MasterConfigSynchronization+0xe0>)
 80082a0:	4293      	cmp	r3, r2
 80082a2:	d018      	beq.n	80082d6 <HAL_TIMEx_MasterConfigSynchronization+0xa2>
 80082a4:	687b      	ldr	r3, [r7, #4]
 80082a6:	681b      	ldr	r3, [r3, #0]
 80082a8:	4a1b      	ldr	r2, [pc, #108]	; (8008318 <HAL_TIMEx_MasterConfigSynchronization+0xe4>)
 80082aa:	4293      	cmp	r3, r2
 80082ac:	d013      	beq.n	80082d6 <HAL_TIMEx_MasterConfigSynchronization+0xa2>
 80082ae:	687b      	ldr	r3, [r7, #4]
 80082b0:	681b      	ldr	r3, [r3, #0]
 80082b2:	4a1a      	ldr	r2, [pc, #104]	; (800831c <HAL_TIMEx_MasterConfigSynchronization+0xe8>)
 80082b4:	4293      	cmp	r3, r2
 80082b6:	d00e      	beq.n	80082d6 <HAL_TIMEx_MasterConfigSynchronization+0xa2>
 80082b8:	687b      	ldr	r3, [r7, #4]
 80082ba:	681b      	ldr	r3, [r3, #0]
 80082bc:	4a18      	ldr	r2, [pc, #96]	; (8008320 <HAL_TIMEx_MasterConfigSynchronization+0xec>)
 80082be:	4293      	cmp	r3, r2
 80082c0:	d009      	beq.n	80082d6 <HAL_TIMEx_MasterConfigSynchronization+0xa2>
 80082c2:	687b      	ldr	r3, [r7, #4]
 80082c4:	681b      	ldr	r3, [r3, #0]
 80082c6:	4a17      	ldr	r2, [pc, #92]	; (8008324 <HAL_TIMEx_MasterConfigSynchronization+0xf0>)
 80082c8:	4293      	cmp	r3, r2
 80082ca:	d004      	beq.n	80082d6 <HAL_TIMEx_MasterConfigSynchronization+0xa2>
 80082cc:	687b      	ldr	r3, [r7, #4]
 80082ce:	681b      	ldr	r3, [r3, #0]
 80082d0:	4a15      	ldr	r2, [pc, #84]	; (8008328 <HAL_TIMEx_MasterConfigSynchronization+0xf4>)
 80082d2:	4293      	cmp	r3, r2
 80082d4:	d10c      	bne.n	80082f0 <HAL_TIMEx_MasterConfigSynchronization+0xbc>
  {
    /* Reset the MSM Bit */
    tmpsmcr &= ~TIM_SMCR_MSM;
 80082d6:	68bb      	ldr	r3, [r7, #8]
 80082d8:	f023 0380 	bic.w	r3, r3, #128	; 0x80
 80082dc:	60bb      	str	r3, [r7, #8]
    /* Set master mode */
    tmpsmcr |= sMasterConfig->MasterSlaveMode;
 80082de:	683b      	ldr	r3, [r7, #0]
 80082e0:	685b      	ldr	r3, [r3, #4]
 80082e2:	68ba      	ldr	r2, [r7, #8]
 80082e4:	4313      	orrs	r3, r2
 80082e6:	60bb      	str	r3, [r7, #8]

    /* Update TIMx SMCR */
    htim->Instance->SMCR = tmpsmcr;
 80082e8:	687b      	ldr	r3, [r7, #4]
 80082ea:	681b      	ldr	r3, [r3, #0]
 80082ec:	68ba      	ldr	r2, [r7, #8]
 80082ee:	609a      	str	r2, [r3, #8]
  }

  /* Change the htim state */
  htim->State = HAL_TIM_STATE_READY;
 80082f0:	687b      	ldr	r3, [r7, #4]
 80082f2:	2201      	movs	r2, #1
 80082f4:	f883 203d 	strb.w	r2, [r3, #61]	; 0x3d

  __HAL_UNLOCK(htim);
 80082f8:	687b      	ldr	r3, [r7, #4]
 80082fa:	2200      	movs	r2, #0
 80082fc:	f883 203c 	strb.w	r2, [r3, #60]	; 0x3c

  return HAL_OK;
 8008300:	2300      	movs	r3, #0
}
 8008302:	4618      	mov	r0, r3
 8008304:	3714      	adds	r7, #20
 8008306:	46bd      	mov	sp, r7
 8008308:	f85d 7b04 	ldr.w	r7, [sp], #4
 800830c:	4770      	bx	lr
 800830e:	bf00      	nop
 8008310:	40010000 	.word	0x40010000
 8008314:	40000400 	.word	0x40000400
 8008318:	40000800 	.word	0x40000800
 800831c:	40000c00 	.word	0x40000c00
 8008320:	40010400 	.word	0x40010400
 8008324:	40014000 	.word	0x40014000
 8008328:	40001800 	.word	0x40001800

0800832c <HAL_TIMEx_CommutCallback>:
  * @brief  Commutation callback in non-blocking mode
  * @param  htim TIM handle
  * @retval None
  */
__weak void HAL_TIMEx_CommutCallback(TIM_HandleTypeDef *htim)
{
 800832c:	b480      	push	{r7}
 800832e:	b083      	sub	sp, #12
 8008330:	af00      	add	r7, sp, #0
 8008332:	6078      	str	r0, [r7, #4]
  UNUSED(htim);

  /* NOTE : This function should not be modified, when the callback is needed,
            the HAL_TIMEx_CommutCallback could be implemented in the user file
   */
}
 8008334:	bf00      	nop
 8008336:	370c      	adds	r7, #12
 8008338:	46bd      	mov	sp, r7
 800833a:	f85d 7b04 	ldr.w	r7, [sp], #4
 800833e:	4770      	bx	lr

08008340 <HAL_TIMEx_BreakCallback>:
  * @brief  Break detection callback in non-blocking mode
  * @param  htim TIM handle
  * @retval None
  */
__weak void HAL_TIMEx_BreakCallback(TIM_HandleTypeDef *htim)
{
 8008340:	b480      	push	{r7}
 8008342:	b083      	sub	sp, #12
 8008344:	af00      	add	r7, sp, #0
 8008346:	6078      	str	r0, [r7, #4]
  UNUSED(htim);

  /* NOTE : This function should not be modified, when the callback is needed,
            the HAL_TIMEx_BreakCallback could be implemented in the user file
   */
}
 8008348:	bf00      	nop
 800834a:	370c      	adds	r7, #12
 800834c:	46bd      	mov	sp, r7
 800834e:	f85d 7b04 	ldr.w	r7, [sp], #4
 8008352:	4770      	bx	lr

08008354 <HAL_UART_Init>:
  * @param  huart  Pointer to a UART_HandleTypeDef structure that contains
  *                the configuration information for the specified UART module.
  * @retval HAL status
  */
HAL_StatusTypeDef HAL_UART_Init(UART_HandleTypeDef *huart)
{
 8008354:	b580      	push	{r7, lr}
 8008356:	b082      	sub	sp, #8
 8008358:	af00      	add	r7, sp, #0
 800835a:	6078      	str	r0, [r7, #4]
  /* Check the UART handle allocation */
  if (huart == NULL)
 800835c:	687b      	ldr	r3, [r7, #4]
 800835e:	2b00      	cmp	r3, #0
 8008360:	d101      	bne.n	8008366 <HAL_UART_Init+0x12>
  {
    return HAL_ERROR;
 8008362:	2301      	movs	r3, #1
 8008364:	e042      	b.n	80083ec <HAL_UART_Init+0x98>
    assert_param(IS_UART_INSTANCE(huart->Instance));
  }
  assert_param(IS_UART_WORD_LENGTH(huart->Init.WordLength));
  assert_param(IS_UART_OVERSAMPLING(huart->Init.OverSampling));

  if (huart->gState == HAL_UART_STATE_RESET)
 8008366:	687b      	ldr	r3, [r7, #4]
 8008368:	f893 3041 	ldrb.w	r3, [r3, #65]	; 0x41
 800836c:	b2db      	uxtb	r3, r3
 800836e:	2b00      	cmp	r3, #0
 8008370:	d106      	bne.n	8008380 <HAL_UART_Init+0x2c>
  {
    /* Allocate lock resource and initialize it */
    huart->Lock = HAL_UNLOCKED;
 8008372:	687b      	ldr	r3, [r7, #4]
 8008374:	2200      	movs	r2, #0
 8008376:	f883 2040 	strb.w	r2, [r3, #64]	; 0x40

    /* Init the low level hardware */
    huart->MspInitCallback(huart);
#else
    /* Init the low level hardware : GPIO, CLOCK */
    HAL_UART_MspInit(huart);
 800837a:	6878      	ldr	r0, [r7, #4]
 800837c:	f7fa fbfc 	bl	8002b78 <HAL_UART_MspInit>
#endif /* (USE_HAL_UART_REGISTER_CALLBACKS) */
  }

  huart->gState = HAL_UART_STATE_BUSY;
 8008380:	687b      	ldr	r3, [r7, #4]
 8008382:	2224      	movs	r2, #36	; 0x24
 8008384:	f883 2041 	strb.w	r2, [r3, #65]	; 0x41

  /* Disable the peripheral */
  __HAL_UART_DISABLE(huart);
 8008388:	687b      	ldr	r3, [r7, #4]
 800838a:	681b      	ldr	r3, [r3, #0]
 800838c:	68da      	ldr	r2, [r3, #12]
 800838e:	687b      	ldr	r3, [r7, #4]
 8008390:	681b      	ldr	r3, [r3, #0]
 8008392:	f422 5200 	bic.w	r2, r2, #8192	; 0x2000
 8008396:	60da      	str	r2, [r3, #12]

  /* Set the UART Communication parameters */
  UART_SetConfig(huart);
 8008398:	6878      	ldr	r0, [r7, #4]
 800839a:	f000 fdbd 	bl	8008f18 <UART_SetConfig>

  /* In asynchronous mode, the following bits must be kept cleared:
     - LINEN and CLKEN bits in the USART_CR2 register,
     - SCEN, HDSEL and IREN  bits in the USART_CR3 register.*/
  CLEAR_BIT(huart->Instance->CR2, (USART_CR2_LINEN | USART_CR2_CLKEN));
 800839e:	687b      	ldr	r3, [r7, #4]
 80083a0:	681b      	ldr	r3, [r3, #0]
 80083a2:	691a      	ldr	r2, [r3, #16]
 80083a4:	687b      	ldr	r3, [r7, #4]
 80083a6:	681b      	ldr	r3, [r3, #0]
 80083a8:	f422 4290 	bic.w	r2, r2, #18432	; 0x4800
 80083ac:	611a      	str	r2, [r3, #16]
  CLEAR_BIT(huart->Instance->CR3, (USART_CR3_SCEN | USART_CR3_HDSEL | USART_CR3_IREN));
 80083ae:	687b      	ldr	r3, [r7, #4]
 80083b0:	681b      	ldr	r3, [r3, #0]
 80083b2:	695a      	ldr	r2, [r3, #20]
 80083b4:	687b      	ldr	r3, [r7, #4]
 80083b6:	681b      	ldr	r3, [r3, #0]
 80083b8:	f022 022a 	bic.w	r2, r2, #42	; 0x2a
 80083bc:	615a      	str	r2, [r3, #20]

  /* Enable the peripheral */
  __HAL_UART_ENABLE(huart);
 80083be:	687b      	ldr	r3, [r7, #4]
 80083c0:	681b      	ldr	r3, [r3, #0]
 80083c2:	68da      	ldr	r2, [r3, #12]
 80083c4:	687b      	ldr	r3, [r7, #4]
 80083c6:	681b      	ldr	r3, [r3, #0]
 80083c8:	f442 5200 	orr.w	r2, r2, #8192	; 0x2000
 80083cc:	60da      	str	r2, [r3, #12]

  /* Initialize the UART state */
  huart->ErrorCode = HAL_UART_ERROR_NONE;
 80083ce:	687b      	ldr	r3, [r7, #4]
 80083d0:	2200      	movs	r2, #0
 80083d2:	645a      	str	r2, [r3, #68]	; 0x44
  huart->gState = HAL_UART_STATE_READY;
 80083d4:	687b      	ldr	r3, [r7, #4]
 80083d6:	2220      	movs	r2, #32
 80083d8:	f883 2041 	strb.w	r2, [r3, #65]	; 0x41
  huart->RxState = HAL_UART_STATE_READY;
 80083dc:	687b      	ldr	r3, [r7, #4]
 80083de:	2220      	movs	r2, #32
 80083e0:	f883 2042 	strb.w	r2, [r3, #66]	; 0x42
  huart->RxEventType = HAL_UART_RXEVENT_TC;
 80083e4:	687b      	ldr	r3, [r7, #4]
 80083e6:	2200      	movs	r2, #0
 80083e8:	635a      	str	r2, [r3, #52]	; 0x34

  return HAL_OK;
 80083ea:	2300      	movs	r3, #0
}
 80083ec:	4618      	mov	r0, r3
 80083ee:	3708      	adds	r7, #8
 80083f0:	46bd      	mov	sp, r7
 80083f2:	bd80      	pop	{r7, pc}

080083f4 <HAL_UART_Transmit>:
  * @param  Size  Amount of data elements (u8 or u16) to be sent
  * @param  Timeout Timeout duration
  * @retval HAL status
  */
HAL_StatusTypeDef HAL_UART_Transmit(UART_HandleTypeDef *huart, const uint8_t *pData, uint16_t Size, uint32_t Timeout)
{
 80083f4:	b580      	push	{r7, lr}
 80083f6:	b08a      	sub	sp, #40	; 0x28
 80083f8:	af02      	add	r7, sp, #8
 80083fa:	60f8      	str	r0, [r7, #12]
 80083fc:	60b9      	str	r1, [r7, #8]
 80083fe:	603b      	str	r3, [r7, #0]
 8008400:	4613      	mov	r3, r2
 8008402:	80fb      	strh	r3, [r7, #6]
  const uint8_t  *pdata8bits;
  const uint16_t *pdata16bits;
  uint32_t tickstart = 0U;
 8008404:	2300      	movs	r3, #0
 8008406:	617b      	str	r3, [r7, #20]

  /* Check that a Tx process is not already ongoing */
  if (huart->gState == HAL_UART_STATE_READY)
 8008408:	68fb      	ldr	r3, [r7, #12]
 800840a:	f893 3041 	ldrb.w	r3, [r3, #65]	; 0x41
 800840e:	b2db      	uxtb	r3, r3
 8008410:	2b20      	cmp	r3, #32
 8008412:	d175      	bne.n	8008500 <HAL_UART_Transmit+0x10c>
  {
    if ((pData == NULL) || (Size == 0U))
 8008414:	68bb      	ldr	r3, [r7, #8]
 8008416:	2b00      	cmp	r3, #0
 8008418:	d002      	beq.n	8008420 <HAL_UART_Transmit+0x2c>
 800841a:	88fb      	ldrh	r3, [r7, #6]
 800841c:	2b00      	cmp	r3, #0
 800841e:	d101      	bne.n	8008424 <HAL_UART_Transmit+0x30>
    {
      return  HAL_ERROR;
 8008420:	2301      	movs	r3, #1
 8008422:	e06e      	b.n	8008502 <HAL_UART_Transmit+0x10e>
    }

    huart->ErrorCode = HAL_UART_ERROR_NONE;
 8008424:	68fb      	ldr	r3, [r7, #12]
 8008426:	2200      	movs	r2, #0
 8008428:	645a      	str	r2, [r3, #68]	; 0x44
    huart->gState = HAL_UART_STATE_BUSY_TX;
 800842a:	68fb      	ldr	r3, [r7, #12]
 800842c:	2221      	movs	r2, #33	; 0x21
 800842e:	f883 2041 	strb.w	r2, [r3, #65]	; 0x41

    /* Init tickstart for timeout management */
    tickstart = HAL_GetTick();
 8008432:	f7fa fdd5 	bl	8002fe0 <HAL_GetTick>
 8008436:	6178      	str	r0, [r7, #20]

    huart->TxXferSize = Size;
 8008438:	68fb      	ldr	r3, [r7, #12]
 800843a:	88fa      	ldrh	r2, [r7, #6]
 800843c:	849a      	strh	r2, [r3, #36]	; 0x24
    huart->TxXferCount = Size;
 800843e:	68fb      	ldr	r3, [r7, #12]
 8008440:	88fa      	ldrh	r2, [r7, #6]
 8008442:	84da      	strh	r2, [r3, #38]	; 0x26

    /* In case of 9bits/No Parity transfer, pData needs to be handled as a uint16_t pointer */
    if ((huart->Init.WordLength == UART_WORDLENGTH_9B) && (huart->Init.Parity == UART_PARITY_NONE))
 8008444:	68fb      	ldr	r3, [r7, #12]
 8008446:	689b      	ldr	r3, [r3, #8]
 8008448:	f5b3 5f80 	cmp.w	r3, #4096	; 0x1000
 800844c:	d108      	bne.n	8008460 <HAL_UART_Transmit+0x6c>
 800844e:	68fb      	ldr	r3, [r7, #12]
 8008450:	691b      	ldr	r3, [r3, #16]
 8008452:	2b00      	cmp	r3, #0
 8008454:	d104      	bne.n	8008460 <HAL_UART_Transmit+0x6c>
    {
      pdata8bits  = NULL;
 8008456:	2300      	movs	r3, #0
 8008458:	61fb      	str	r3, [r7, #28]
      pdata16bits = (const uint16_t *) pData;
 800845a:	68bb      	ldr	r3, [r7, #8]
 800845c:	61bb      	str	r3, [r7, #24]
 800845e:	e003      	b.n	8008468 <HAL_UART_Transmit+0x74>
    }
    else
    {
      pdata8bits  = pData;
 8008460:	68bb      	ldr	r3, [r7, #8]
 8008462:	61fb      	str	r3, [r7, #28]
      pdata16bits = NULL;
 8008464:	2300      	movs	r3, #0
 8008466:	61bb      	str	r3, [r7, #24]
    }

    while (huart->TxXferCount > 0U)
 8008468:	e02e      	b.n	80084c8 <HAL_UART_Transmit+0xd4>
    {
      if (UART_WaitOnFlagUntilTimeout(huart, UART_FLAG_TXE, RESET, tickstart, Timeout) != HAL_OK)
 800846a:	683b      	ldr	r3, [r7, #0]
 800846c:	9300      	str	r3, [sp, #0]
 800846e:	697b      	ldr	r3, [r7, #20]
 8008470:	2200      	movs	r2, #0
 8008472:	2180      	movs	r1, #128	; 0x80
 8008474:	68f8      	ldr	r0, [r7, #12]
 8008476:	f000 fb1f 	bl	8008ab8 <UART_WaitOnFlagUntilTimeout>
 800847a:	4603      	mov	r3, r0
 800847c:	2b00      	cmp	r3, #0
 800847e:	d005      	beq.n	800848c <HAL_UART_Transmit+0x98>
      {
        huart->gState = HAL_UART_STATE_READY;
 8008480:	68fb      	ldr	r3, [r7, #12]
 8008482:	2220      	movs	r2, #32
 8008484:	f883 2041 	strb.w	r2, [r3, #65]	; 0x41

        return HAL_TIMEOUT;
 8008488:	2303      	movs	r3, #3
 800848a:	e03a      	b.n	8008502 <HAL_UART_Transmit+0x10e>
      }
      if (pdata8bits == NULL)
 800848c:	69fb      	ldr	r3, [r7, #28]
 800848e:	2b00      	cmp	r3, #0
 8008490:	d10b      	bne.n	80084aa <HAL_UART_Transmit+0xb6>
      {
        huart->Instance->DR = (uint16_t)(*pdata16bits & 0x01FFU);
 8008492:	69bb      	ldr	r3, [r7, #24]
 8008494:	881b      	ldrh	r3, [r3, #0]
 8008496:	461a      	mov	r2, r3
 8008498:	68fb      	ldr	r3, [r7, #12]
 800849a:	681b      	ldr	r3, [r3, #0]
 800849c:	f3c2 0208 	ubfx	r2, r2, #0, #9
 80084a0:	605a      	str	r2, [r3, #4]
        pdata16bits++;
 80084a2:	69bb      	ldr	r3, [r7, #24]
 80084a4:	3302      	adds	r3, #2
 80084a6:	61bb      	str	r3, [r7, #24]
 80084a8:	e007      	b.n	80084ba <HAL_UART_Transmit+0xc6>
      }
      else
      {
        huart->Instance->DR = (uint8_t)(*pdata8bits & 0xFFU);
 80084aa:	69fb      	ldr	r3, [r7, #28]
 80084ac:	781a      	ldrb	r2, [r3, #0]
 80084ae:	68fb      	ldr	r3, [r7, #12]
 80084b0:	681b      	ldr	r3, [r3, #0]
 80084b2:	605a      	str	r2, [r3, #4]
        pdata8bits++;
 80084b4:	69fb      	ldr	r3, [r7, #28]
 80084b6:	3301      	adds	r3, #1
 80084b8:	61fb      	str	r3, [r7, #28]
      }
      huart->TxXferCount--;
 80084ba:	68fb      	ldr	r3, [r7, #12]
 80084bc:	8cdb      	ldrh	r3, [r3, #38]	; 0x26
 80084be:	b29b      	uxth	r3, r3
 80084c0:	3b01      	subs	r3, #1
 80084c2:	b29a      	uxth	r2, r3
 80084c4:	68fb      	ldr	r3, [r7, #12]
 80084c6:	84da      	strh	r2, [r3, #38]	; 0x26
    while (huart->TxXferCount > 0U)
 80084c8:	68fb      	ldr	r3, [r7, #12]
 80084ca:	8cdb      	ldrh	r3, [r3, #38]	; 0x26
 80084cc:	b29b      	uxth	r3, r3
 80084ce:	2b00      	cmp	r3, #0
 80084d0:	d1cb      	bne.n	800846a <HAL_UART_Transmit+0x76>
    }

    if (UART_WaitOnFlagUntilTimeout(huart, UART_FLAG_TC, RESET, tickstart, Timeout) != HAL_OK)
 80084d2:	683b      	ldr	r3, [r7, #0]
 80084d4:	9300      	str	r3, [sp, #0]
 80084d6:	697b      	ldr	r3, [r7, #20]
 80084d8:	2200      	movs	r2, #0
 80084da:	2140      	movs	r1, #64	; 0x40
 80084dc:	68f8      	ldr	r0, [r7, #12]
 80084de:	f000 faeb 	bl	8008ab8 <UART_WaitOnFlagUntilTimeout>
 80084e2:	4603      	mov	r3, r0
 80084e4:	2b00      	cmp	r3, #0
 80084e6:	d005      	beq.n	80084f4 <HAL_UART_Transmit+0x100>
    {
      huart->gState = HAL_UART_STATE_READY;
 80084e8:	68fb      	ldr	r3, [r7, #12]
 80084ea:	2220      	movs	r2, #32
 80084ec:	f883 2041 	strb.w	r2, [r3, #65]	; 0x41

      return HAL_TIMEOUT;
 80084f0:	2303      	movs	r3, #3
 80084f2:	e006      	b.n	8008502 <HAL_UART_Transmit+0x10e>
    }

    /* At end of Tx process, restore huart->gState to Ready */
    huart->gState = HAL_UART_STATE_READY;
 80084f4:	68fb      	ldr	r3, [r7, #12]
 80084f6:	2220      	movs	r2, #32
 80084f8:	f883 2041 	strb.w	r2, [r3, #65]	; 0x41

    return HAL_OK;
 80084fc:	2300      	movs	r3, #0
 80084fe:	e000      	b.n	8008502 <HAL_UART_Transmit+0x10e>
  }
  else
  {
    return HAL_BUSY;
 8008500:	2302      	movs	r3, #2
  }
}
 8008502:	4618      	mov	r0, r3
 8008504:	3720      	adds	r7, #32
 8008506:	46bd      	mov	sp, r7
 8008508:	bd80      	pop	{r7, pc}

0800850a <HAL_UART_Receive_IT>:
  * @param  pData Pointer to data buffer (u8 or u16 data elements).
  * @param  Size  Amount of data elements (u8 or u16) to be received.
  * @retval HAL status
  */
HAL_StatusTypeDef HAL_UART_Receive_IT(UART_HandleTypeDef *huart, uint8_t *pData, uint16_t Size)
{
 800850a:	b580      	push	{r7, lr}
 800850c:	b084      	sub	sp, #16
 800850e:	af00      	add	r7, sp, #0
 8008510:	60f8      	str	r0, [r7, #12]
 8008512:	60b9      	str	r1, [r7, #8]
 8008514:	4613      	mov	r3, r2
 8008516:	80fb      	strh	r3, [r7, #6]
  /* Check that a Rx process is not already ongoing */
  if (huart->RxState == HAL_UART_STATE_READY)
 8008518:	68fb      	ldr	r3, [r7, #12]
 800851a:	f893 3042 	ldrb.w	r3, [r3, #66]	; 0x42
 800851e:	b2db      	uxtb	r3, r3
 8008520:	2b20      	cmp	r3, #32
 8008522:	d112      	bne.n	800854a <HAL_UART_Receive_IT+0x40>
  {
    if ((pData == NULL) || (Size == 0U))
 8008524:	68bb      	ldr	r3, [r7, #8]
 8008526:	2b00      	cmp	r3, #0
 8008528:	d002      	beq.n	8008530 <HAL_UART_Receive_IT+0x26>
 800852a:	88fb      	ldrh	r3, [r7, #6]
 800852c:	2b00      	cmp	r3, #0
 800852e:	d101      	bne.n	8008534 <HAL_UART_Receive_IT+0x2a>
    {
      return HAL_ERROR;
 8008530:	2301      	movs	r3, #1
 8008532:	e00b      	b.n	800854c <HAL_UART_Receive_IT+0x42>
    }

    /* Set Reception type to Standard reception */
    huart->ReceptionType = HAL_UART_RECEPTION_STANDARD;
 8008534:	68fb      	ldr	r3, [r7, #12]
 8008536:	2200      	movs	r2, #0
 8008538:	631a      	str	r2, [r3, #48]	; 0x30

    return (UART_Start_Receive_IT(huart, pData, Size));
 800853a:	88fb      	ldrh	r3, [r7, #6]
 800853c:	461a      	mov	r2, r3
 800853e:	68b9      	ldr	r1, [r7, #8]
 8008540:	68f8      	ldr	r0, [r7, #12]
 8008542:	f000 fb12 	bl	8008b6a <UART_Start_Receive_IT>
 8008546:	4603      	mov	r3, r0
 8008548:	e000      	b.n	800854c <HAL_UART_Receive_IT+0x42>
  }
  else
  {
    return HAL_BUSY;
 800854a:	2302      	movs	r3, #2
  }
}
 800854c:	4618      	mov	r0, r3
 800854e:	3710      	adds	r7, #16
 8008550:	46bd      	mov	sp, r7
 8008552:	bd80      	pop	{r7, pc}

08008554 <HAL_UART_IRQHandler>:
  * @param  huart  Pointer to a UART_HandleTypeDef structure that contains
  *                the configuration information for the specified UART module.
  * @retval None
  */
void HAL_UART_IRQHandler(UART_HandleTypeDef *huart)
{
 8008554:	b580      	push	{r7, lr}
 8008556:	b0ba      	sub	sp, #232	; 0xe8
 8008558:	af00      	add	r7, sp, #0
 800855a:	6078      	str	r0, [r7, #4]
  uint32_t isrflags   = READ_REG(huart->Instance->SR);
 800855c:	687b      	ldr	r3, [r7, #4]
 800855e:	681b      	ldr	r3, [r3, #0]
 8008560:	681b      	ldr	r3, [r3, #0]
 8008562:	f8c7 30e4 	str.w	r3, [r7, #228]	; 0xe4
  uint32_t cr1its     = READ_REG(huart->Instance->CR1);
 8008566:	687b      	ldr	r3, [r7, #4]
 8008568:	681b      	ldr	r3, [r3, #0]
 800856a:	68db      	ldr	r3, [r3, #12]
 800856c:	f8c7 30e0 	str.w	r3, [r7, #224]	; 0xe0
  uint32_t cr3its     = READ_REG(huart->Instance->CR3);
 8008570:	687b      	ldr	r3, [r7, #4]
 8008572:	681b      	ldr	r3, [r3, #0]
 8008574:	695b      	ldr	r3, [r3, #20]
 8008576:	f8c7 30dc 	str.w	r3, [r7, #220]	; 0xdc
  uint32_t errorflags = 0x00U;
 800857a:	2300      	movs	r3, #0
 800857c:	f8c7 30d8 	str.w	r3, [r7, #216]	; 0xd8
  uint32_t dmarequest = 0x00U;
 8008580:	2300      	movs	r3, #0
 8008582:	f8c7 30d4 	str.w	r3, [r7, #212]	; 0xd4

  /* If no error occurs */
  errorflags = (isrflags & (uint32_t)(USART_SR_PE | USART_SR_FE | USART_SR_ORE | USART_SR_NE));
 8008586:	f8d7 30e4 	ldr.w	r3, [r7, #228]	; 0xe4
 800858a:	f003 030f 	and.w	r3, r3, #15
 800858e:	f8c7 30d8 	str.w	r3, [r7, #216]	; 0xd8
  if (errorflags == RESET)
 8008592:	f8d7 30d8 	ldr.w	r3, [r7, #216]	; 0xd8
 8008596:	2b00      	cmp	r3, #0
 8008598:	d10f      	bne.n	80085ba <HAL_UART_IRQHandler+0x66>
  {
    /* UART in mode Receiver -------------------------------------------------*/
    if (((isrflags & USART_SR_RXNE) != RESET) && ((cr1its & USART_CR1_RXNEIE) != RESET))
 800859a:	f8d7 30e4 	ldr.w	r3, [r7, #228]	; 0xe4
 800859e:	f003 0320 	and.w	r3, r3, #32
 80085a2:	2b00      	cmp	r3, #0
 80085a4:	d009      	beq.n	80085ba <HAL_UART_IRQHandler+0x66>
 80085a6:	f8d7 30e0 	ldr.w	r3, [r7, #224]	; 0xe0
 80085aa:	f003 0320 	and.w	r3, r3, #32
 80085ae:	2b00      	cmp	r3, #0
 80085b0:	d003      	beq.n	80085ba <HAL_UART_IRQHandler+0x66>
    {
      UART_Receive_IT(huart);
 80085b2:	6878      	ldr	r0, [r7, #4]
 80085b4:	f000 fbf2 	bl	8008d9c <UART_Receive_IT>
      return;
 80085b8:	e25b      	b.n	8008a72 <HAL_UART_IRQHandler+0x51e>
    }
  }

  /* If some errors occur */
  if ((errorflags != RESET) && (((cr3its & USART_CR3_EIE) != RESET)
 80085ba:	f8d7 30d8 	ldr.w	r3, [r7, #216]	; 0xd8
 80085be:	2b00      	cmp	r3, #0
 80085c0:	f000 80de 	beq.w	8008780 <HAL_UART_IRQHandler+0x22c>
 80085c4:	f8d7 30dc 	ldr.w	r3, [r7, #220]	; 0xdc
 80085c8:	f003 0301 	and.w	r3, r3, #1
 80085cc:	2b00      	cmp	r3, #0
 80085ce:	d106      	bne.n	80085de <HAL_UART_IRQHandler+0x8a>
                                || ((cr1its & (USART_CR1_RXNEIE | USART_CR1_PEIE)) != RESET)))
 80085d0:	f8d7 30e0 	ldr.w	r3, [r7, #224]	; 0xe0
 80085d4:	f403 7390 	and.w	r3, r3, #288	; 0x120
 80085d8:	2b00      	cmp	r3, #0
 80085da:	f000 80d1 	beq.w	8008780 <HAL_UART_IRQHandler+0x22c>
  {
    /* UART parity error interrupt occurred ----------------------------------*/
    if (((isrflags & USART_SR_PE) != RESET) && ((cr1its & USART_CR1_PEIE) != RESET))
 80085de:	f8d7 30e4 	ldr.w	r3, [r7, #228]	; 0xe4
 80085e2:	f003 0301 	and.w	r3, r3, #1
 80085e6:	2b00      	cmp	r3, #0
 80085e8:	d00b      	beq.n	8008602 <HAL_UART_IRQHandler+0xae>
 80085ea:	f8d7 30e0 	ldr.w	r3, [r7, #224]	; 0xe0
 80085ee:	f403 7380 	and.w	r3, r3, #256	; 0x100
 80085f2:	2b00      	cmp	r3, #0
 80085f4:	d005      	beq.n	8008602 <HAL_UART_IRQHandler+0xae>
    {
      huart->ErrorCode |= HAL_UART_ERROR_PE;
 80085f6:	687b      	ldr	r3, [r7, #4]
 80085f8:	6c5b      	ldr	r3, [r3, #68]	; 0x44
 80085fa:	f043 0201 	orr.w	r2, r3, #1
 80085fe:	687b      	ldr	r3, [r7, #4]
 8008600:	645a      	str	r2, [r3, #68]	; 0x44
    }

    /* UART noise error interrupt occurred -----------------------------------*/
    if (((isrflags & USART_SR_NE) != RESET) && ((cr3its & USART_CR3_EIE) != RESET))
 8008602:	f8d7 30e4 	ldr.w	r3, [r7, #228]	; 0xe4
 8008606:	f003 0304 	and.w	r3, r3, #4
 800860a:	2b00      	cmp	r3, #0
 800860c:	d00b      	beq.n	8008626 <HAL_UART_IRQHandler+0xd2>
 800860e:	f8d7 30dc 	ldr.w	r3, [r7, #220]	; 0xdc
 8008612:	f003 0301 	and.w	r3, r3, #1
 8008616:	2b00      	cmp	r3, #0
 8008618:	d005      	beq.n	8008626 <HAL_UART_IRQHandler+0xd2>
    {
      huart->ErrorCode |= HAL_UART_ERROR_NE;
 800861a:	687b      	ldr	r3, [r7, #4]
 800861c:	6c5b      	ldr	r3, [r3, #68]	; 0x44
 800861e:	f043 0202 	orr.w	r2, r3, #2
 8008622:	687b      	ldr	r3, [r7, #4]
 8008624:	645a      	str	r2, [r3, #68]	; 0x44
    }

    /* UART frame error interrupt occurred -----------------------------------*/
    if (((isrflags & USART_SR_FE) != RESET) && ((cr3its & USART_CR3_EIE) != RESET))
 8008626:	f8d7 30e4 	ldr.w	r3, [r7, #228]	; 0xe4
 800862a:	f003 0302 	and.w	r3, r3, #2
 800862e:	2b00      	cmp	r3, #0
 8008630:	d00b      	beq.n	800864a <HAL_UART_IRQHandler+0xf6>
 8008632:	f8d7 30dc 	ldr.w	r3, [r7, #220]	; 0xdc
 8008636:	f003 0301 	and.w	r3, r3, #1
 800863a:	2b00      	cmp	r3, #0
 800863c:	d005      	beq.n	800864a <HAL_UART_IRQHandler+0xf6>
    {
      huart->ErrorCode |= HAL_UART_ERROR_FE;
 800863e:	687b      	ldr	r3, [r7, #4]
 8008640:	6c5b      	ldr	r3, [r3, #68]	; 0x44
 8008642:	f043 0204 	orr.w	r2, r3, #4
 8008646:	687b      	ldr	r3, [r7, #4]
 8008648:	645a      	str	r2, [r3, #68]	; 0x44
    }

    /* UART Over-Run interrupt occurred --------------------------------------*/
    if (((isrflags & USART_SR_ORE) != RESET) && (((cr1its & USART_CR1_RXNEIE) != RESET)
 800864a:	f8d7 30e4 	ldr.w	r3, [r7, #228]	; 0xe4
 800864e:	f003 0308 	and.w	r3, r3, #8
 8008652:	2b00      	cmp	r3, #0
 8008654:	d011      	beq.n	800867a <HAL_UART_IRQHandler+0x126>
 8008656:	f8d7 30e0 	ldr.w	r3, [r7, #224]	; 0xe0
 800865a:	f003 0320 	and.w	r3, r3, #32
 800865e:	2b00      	cmp	r3, #0
 8008660:	d105      	bne.n	800866e <HAL_UART_IRQHandler+0x11a>
                                                 || ((cr3its & USART_CR3_EIE) != RESET)))
 8008662:	f8d7 30dc 	ldr.w	r3, [r7, #220]	; 0xdc
 8008666:	f003 0301 	and.w	r3, r3, #1
 800866a:	2b00      	cmp	r3, #0
 800866c:	d005      	beq.n	800867a <HAL_UART_IRQHandler+0x126>
    {
      huart->ErrorCode |= HAL_UART_ERROR_ORE;
 800866e:	687b      	ldr	r3, [r7, #4]
 8008670:	6c5b      	ldr	r3, [r3, #68]	; 0x44
 8008672:	f043 0208 	orr.w	r2, r3, #8
 8008676:	687b      	ldr	r3, [r7, #4]
 8008678:	645a      	str	r2, [r3, #68]	; 0x44
    }

    /* Call UART Error Call back function if need be --------------------------*/
    if (huart->ErrorCode != HAL_UART_ERROR_NONE)
 800867a:	687b      	ldr	r3, [r7, #4]
 800867c:	6c5b      	ldr	r3, [r3, #68]	; 0x44
 800867e:	2b00      	cmp	r3, #0
 8008680:	f000 81f2 	beq.w	8008a68 <HAL_UART_IRQHandler+0x514>
    {
      /* UART in mode Receiver -----------------------------------------------*/
      if (((isrflags & USART_SR_RXNE) != RESET) && ((cr1its & USART_CR1_RXNEIE) != RESET))
 8008684:	f8d7 30e4 	ldr.w	r3, [r7, #228]	; 0xe4
 8008688:	f003 0320 	and.w	r3, r3, #32
 800868c:	2b00      	cmp	r3, #0
 800868e:	d008      	beq.n	80086a2 <HAL_UART_IRQHandler+0x14e>
 8008690:	f8d7 30e0 	ldr.w	r3, [r7, #224]	; 0xe0
 8008694:	f003 0320 	and.w	r3, r3, #32
 8008698:	2b00      	cmp	r3, #0
 800869a:	d002      	beq.n	80086a2 <HAL_UART_IRQHandler+0x14e>
      {
        UART_Receive_IT(huart);
 800869c:	6878      	ldr	r0, [r7, #4]
 800869e:	f000 fb7d 	bl	8008d9c <UART_Receive_IT>
      }

      /* If Overrun error occurs, or if any error occurs in DMA mode reception,
         consider error as blocking */
      dmarequest = HAL_IS_BIT_SET(huart->Instance->CR3, USART_CR3_DMAR);
 80086a2:	687b      	ldr	r3, [r7, #4]
 80086a4:	681b      	ldr	r3, [r3, #0]
 80086a6:	695b      	ldr	r3, [r3, #20]
 80086a8:	f003 0340 	and.w	r3, r3, #64	; 0x40
 80086ac:	2b40      	cmp	r3, #64	; 0x40
 80086ae:	bf0c      	ite	eq
 80086b0:	2301      	moveq	r3, #1
 80086b2:	2300      	movne	r3, #0
 80086b4:	b2db      	uxtb	r3, r3
 80086b6:	f8c7 30d4 	str.w	r3, [r7, #212]	; 0xd4
      if (((huart->ErrorCode & HAL_UART_ERROR_ORE) != RESET) || dmarequest)
 80086ba:	687b      	ldr	r3, [r7, #4]
 80086bc:	6c5b      	ldr	r3, [r3, #68]	; 0x44
 80086be:	f003 0308 	and.w	r3, r3, #8
 80086c2:	2b00      	cmp	r3, #0
 80086c4:	d103      	bne.n	80086ce <HAL_UART_IRQHandler+0x17a>
 80086c6:	f8d7 30d4 	ldr.w	r3, [r7, #212]	; 0xd4
 80086ca:	2b00      	cmp	r3, #0
 80086cc:	d04f      	beq.n	800876e <HAL_UART_IRQHandler+0x21a>
      {
        /* Blocking error : transfer is aborted
           Set the UART state ready to be able to start again the process,
           Disable Rx Interrupts, and disable Rx DMA request, if ongoing */
        UART_EndRxTransfer(huart);
 80086ce:	6878      	ldr	r0, [r7, #4]
 80086d0:	f000 fa85 	bl	8008bde <UART_EndRxTransfer>

        /* Disable the UART DMA Rx request if enabled */
        if (HAL_IS_BIT_SET(huart->Instance->CR3, USART_CR3_DMAR))
 80086d4:	687b      	ldr	r3, [r7, #4]
 80086d6:	681b      	ldr	r3, [r3, #0]
 80086d8:	695b      	ldr	r3, [r3, #20]
 80086da:	f003 0340 	and.w	r3, r3, #64	; 0x40
 80086de:	2b40      	cmp	r3, #64	; 0x40
 80086e0:	d141      	bne.n	8008766 <HAL_UART_IRQHandler+0x212>
        {
          ATOMIC_CLEAR_BIT(huart->Instance->CR3, USART_CR3_DMAR);
 80086e2:	687b      	ldr	r3, [r7, #4]
 80086e4:	681b      	ldr	r3, [r3, #0]
 80086e6:	3314      	adds	r3, #20
 80086e8:	f8c7 309c 	str.w	r3, [r7, #156]	; 0x9c
   __ASM volatile ("ldrex %0, %1" : "=r" (result) : "Q" (*addr) );
 80086ec:	f8d7 309c 	ldr.w	r3, [r7, #156]	; 0x9c
 80086f0:	e853 3f00 	ldrex	r3, [r3]
 80086f4:	f8c7 3098 	str.w	r3, [r7, #152]	; 0x98
   return(result);
 80086f8:	f8d7 3098 	ldr.w	r3, [r7, #152]	; 0x98
 80086fc:	f023 0340 	bic.w	r3, r3, #64	; 0x40
 8008700:	f8c7 30d0 	str.w	r3, [r7, #208]	; 0xd0
 8008704:	687b      	ldr	r3, [r7, #4]
 8008706:	681b      	ldr	r3, [r3, #0]
 8008708:	3314      	adds	r3, #20
 800870a:	f8d7 20d0 	ldr.w	r2, [r7, #208]	; 0xd0
 800870e:	f8c7 20a8 	str.w	r2, [r7, #168]	; 0xa8
 8008712:	f8c7 30a4 	str.w	r3, [r7, #164]	; 0xa4
   __ASM volatile ("strex %0, %2, %1" : "=&r" (result), "=Q" (*addr) : "r" (value) );
 8008716:	f8d7 10a4 	ldr.w	r1, [r7, #164]	; 0xa4
 800871a:	f8d7 20a8 	ldr.w	r2, [r7, #168]	; 0xa8
 800871e:	e841 2300 	strex	r3, r2, [r1]
 8008722:	f8c7 30a0 	str.w	r3, [r7, #160]	; 0xa0
   return(result);
 8008726:	f8d7 30a0 	ldr.w	r3, [r7, #160]	; 0xa0
 800872a:	2b00      	cmp	r3, #0
 800872c:	d1d9      	bne.n	80086e2 <HAL_UART_IRQHandler+0x18e>

          /* Abort the UART DMA Rx stream */
          if (huart->hdmarx != NULL)
 800872e:	687b      	ldr	r3, [r7, #4]
 8008730:	6bdb      	ldr	r3, [r3, #60]	; 0x3c
 8008732:	2b00      	cmp	r3, #0
 8008734:	d013      	beq.n	800875e <HAL_UART_IRQHandler+0x20a>
          {
            /* Set the UART DMA Abort callback :
               will lead to call HAL_UART_ErrorCallback() at end of DMA abort procedure */
            huart->hdmarx->XferAbortCallback = UART_DMAAbortOnError;
 8008736:	687b      	ldr	r3, [r7, #4]
 8008738:	6bdb      	ldr	r3, [r3, #60]	; 0x3c
 800873a:	4a7e      	ldr	r2, [pc, #504]	; (8008934 <HAL_UART_IRQHandler+0x3e0>)
 800873c:	651a      	str	r2, [r3, #80]	; 0x50
            if (HAL_DMA_Abort_IT(huart->hdmarx) != HAL_OK)
 800873e:	687b      	ldr	r3, [r7, #4]
 8008740:	6bdb      	ldr	r3, [r3, #60]	; 0x3c
 8008742:	4618      	mov	r0, r3
 8008744:	f7fb fd6c 	bl	8004220 <HAL_DMA_Abort_IT>
 8008748:	4603      	mov	r3, r0
 800874a:	2b00      	cmp	r3, #0
 800874c:	d016      	beq.n	800877c <HAL_UART_IRQHandler+0x228>
            {
              /* Call Directly XferAbortCallback function in case of error */
              huart->hdmarx->XferAbortCallback(huart->hdmarx);
 800874e:	687b      	ldr	r3, [r7, #4]
 8008750:	6bdb      	ldr	r3, [r3, #60]	; 0x3c
 8008752:	6d1b      	ldr	r3, [r3, #80]	; 0x50
 8008754:	687a      	ldr	r2, [r7, #4]
 8008756:	6bd2      	ldr	r2, [r2, #60]	; 0x3c
 8008758:	4610      	mov	r0, r2
 800875a:	4798      	blx	r3
        if (HAL_IS_BIT_SET(huart->Instance->CR3, USART_CR3_DMAR))
 800875c:	e00e      	b.n	800877c <HAL_UART_IRQHandler+0x228>
#if (USE_HAL_UART_REGISTER_CALLBACKS == 1)
            /*Call registered error callback*/
            huart->ErrorCallback(huart);
#else
            /*Call legacy weak error callback*/
            HAL_UART_ErrorCallback(huart);
 800875e:	6878      	ldr	r0, [r7, #4]
 8008760:	f000 f994 	bl	8008a8c <HAL_UART_ErrorCallback>
        if (HAL_IS_BIT_SET(huart->Instance->CR3, USART_CR3_DMAR))
 8008764:	e00a      	b.n	800877c <HAL_UART_IRQHandler+0x228>
#if (USE_HAL_UART_REGISTER_CALLBACKS == 1)
          /*Call registered error callback*/
          huart->ErrorCallback(huart);
#else
          /*Call legacy weak error callback*/
          HAL_UART_ErrorCallback(huart);
 8008766:	6878      	ldr	r0, [r7, #4]
 8008768:	f000 f990 	bl	8008a8c <HAL_UART_ErrorCallback>
        if (HAL_IS_BIT_SET(huart->Instance->CR3, USART_CR3_DMAR))
 800876c:	e006      	b.n	800877c <HAL_UART_IRQHandler+0x228>
#if (USE_HAL_UART_REGISTER_CALLBACKS == 1)
        /*Call registered error callback*/
        huart->ErrorCallback(huart);
#else
        /*Call legacy weak error callback*/
        HAL_UART_ErrorCallback(huart);
 800876e:	6878      	ldr	r0, [r7, #4]
 8008770:	f000 f98c 	bl	8008a8c <HAL_UART_ErrorCallback>
#endif /* USE_HAL_UART_REGISTER_CALLBACKS */

        huart->ErrorCode = HAL_UART_ERROR_NONE;
 8008774:	687b      	ldr	r3, [r7, #4]
 8008776:	2200      	movs	r2, #0
 8008778:	645a      	str	r2, [r3, #68]	; 0x44
      }
    }
    return;
 800877a:	e175      	b.n	8008a68 <HAL_UART_IRQHandler+0x514>
        if (HAL_IS_BIT_SET(huart->Instance->CR3, USART_CR3_DMAR))
 800877c:	bf00      	nop
    return;
 800877e:	e173      	b.n	8008a68 <HAL_UART_IRQHandler+0x514>
  } /* End if some error occurs */

  /* Check current reception Mode :
     If Reception till IDLE event has been selected : */
  if ((huart->ReceptionType == HAL_UART_RECEPTION_TOIDLE)
 8008780:	687b      	ldr	r3, [r7, #4]
 8008782:	6b1b      	ldr	r3, [r3, #48]	; 0x30
 8008784:	2b01      	cmp	r3, #1
 8008786:	f040 814f 	bne.w	8008a28 <HAL_UART_IRQHandler+0x4d4>
      && ((isrflags & USART_SR_IDLE) != 0U)
 800878a:	f8d7 30e4 	ldr.w	r3, [r7, #228]	; 0xe4
 800878e:	f003 0310 	and.w	r3, r3, #16
 8008792:	2b00      	cmp	r3, #0
 8008794:	f000 8148 	beq.w	8008a28 <HAL_UART_IRQHandler+0x4d4>
      && ((cr1its & USART_SR_IDLE) != 0U))
 8008798:	f8d7 30e0 	ldr.w	r3, [r7, #224]	; 0xe0
 800879c:	f003 0310 	and.w	r3, r3, #16
 80087a0:	2b00      	cmp	r3, #0
 80087a2:	f000 8141 	beq.w	8008a28 <HAL_UART_IRQHandler+0x4d4>
  {
    __HAL_UART_CLEAR_IDLEFLAG(huart);
 80087a6:	2300      	movs	r3, #0
 80087a8:	60bb      	str	r3, [r7, #8]
 80087aa:	687b      	ldr	r3, [r7, #4]
 80087ac:	681b      	ldr	r3, [r3, #0]
 80087ae:	681b      	ldr	r3, [r3, #0]
 80087b0:	60bb      	str	r3, [r7, #8]
 80087b2:	687b      	ldr	r3, [r7, #4]
 80087b4:	681b      	ldr	r3, [r3, #0]
 80087b6:	685b      	ldr	r3, [r3, #4]
 80087b8:	60bb      	str	r3, [r7, #8]
 80087ba:	68bb      	ldr	r3, [r7, #8]

    /* Check if DMA mode is enabled in UART */
    if (HAL_IS_BIT_SET(huart->Instance->CR3, USART_CR3_DMAR))
 80087bc:	687b      	ldr	r3, [r7, #4]
 80087be:	681b      	ldr	r3, [r3, #0]
 80087c0:	695b      	ldr	r3, [r3, #20]
 80087c2:	f003 0340 	and.w	r3, r3, #64	; 0x40
 80087c6:	2b40      	cmp	r3, #64	; 0x40
 80087c8:	f040 80b6 	bne.w	8008938 <HAL_UART_IRQHandler+0x3e4>
    {
      /* DMA mode enabled */
      /* Check received length : If all expected data are received, do nothing,
         (DMA cplt callback will be called).
         Otherwise, if at least one data has already been received, IDLE event is to be notified to user */
      uint16_t nb_remaining_rx_data = (uint16_t) __HAL_DMA_GET_COUNTER(huart->hdmarx);
 80087cc:	687b      	ldr	r3, [r7, #4]
 80087ce:	6bdb      	ldr	r3, [r3, #60]	; 0x3c
 80087d0:	681b      	ldr	r3, [r3, #0]
 80087d2:	685b      	ldr	r3, [r3, #4]
 80087d4:	f8a7 30be 	strh.w	r3, [r7, #190]	; 0xbe
      if ((nb_remaining_rx_data > 0U)
 80087d8:	f8b7 30be 	ldrh.w	r3, [r7, #190]	; 0xbe
 80087dc:	2b00      	cmp	r3, #0
 80087de:	f000 8145 	beq.w	8008a6c <HAL_UART_IRQHandler+0x518>
          && (nb_remaining_rx_data < huart->RxXferSize))
 80087e2:	687b      	ldr	r3, [r7, #4]
 80087e4:	8d9b      	ldrh	r3, [r3, #44]	; 0x2c
 80087e6:	f8b7 20be 	ldrh.w	r2, [r7, #190]	; 0xbe
 80087ea:	429a      	cmp	r2, r3
 80087ec:	f080 813e 	bcs.w	8008a6c <HAL_UART_IRQHandler+0x518>
      {
        /* Reception is not complete */
        huart->RxXferCount = nb_remaining_rx_data;
 80087f0:	687b      	ldr	r3, [r7, #4]
 80087f2:	f8b7 20be 	ldrh.w	r2, [r7, #190]	; 0xbe
 80087f6:	85da      	strh	r2, [r3, #46]	; 0x2e

        /* In Normal mode, end DMA xfer and HAL UART Rx process*/
        if (huart->hdmarx->Init.Mode != DMA_CIRCULAR)
 80087f8:	687b      	ldr	r3, [r7, #4]
 80087fa:	6bdb      	ldr	r3, [r3, #60]	; 0x3c
 80087fc:	69db      	ldr	r3, [r3, #28]
 80087fe:	f5b3 7f80 	cmp.w	r3, #256	; 0x100
 8008802:	f000 8088 	beq.w	8008916 <HAL_UART_IRQHandler+0x3c2>
        {
          /* Disable PE and ERR (Frame error, noise error, overrun error) interrupts */
          ATOMIC_CLEAR_BIT(huart->Instance->CR1, USART_CR1_PEIE);
 8008806:	687b      	ldr	r3, [r7, #4]
 8008808:	681b      	ldr	r3, [r3, #0]
 800880a:	330c      	adds	r3, #12
 800880c:	f8c7 3088 	str.w	r3, [r7, #136]	; 0x88
   __ASM volatile ("ldrex %0, %1" : "=r" (result) : "Q" (*addr) );
 8008810:	f8d7 3088 	ldr.w	r3, [r7, #136]	; 0x88
 8008814:	e853 3f00 	ldrex	r3, [r3]
 8008818:	f8c7 3084 	str.w	r3, [r7, #132]	; 0x84
   return(result);
 800881c:	f8d7 3084 	ldr.w	r3, [r7, #132]	; 0x84
 8008820:	f423 7380 	bic.w	r3, r3, #256	; 0x100
 8008824:	f8c7 30b8 	str.w	r3, [r7, #184]	; 0xb8
 8008828:	687b      	ldr	r3, [r7, #4]
 800882a:	681b      	ldr	r3, [r3, #0]
 800882c:	330c      	adds	r3, #12
 800882e:	f8d7 20b8 	ldr.w	r2, [r7, #184]	; 0xb8
 8008832:	f8c7 2094 	str.w	r2, [r7, #148]	; 0x94
 8008836:	f8c7 3090 	str.w	r3, [r7, #144]	; 0x90
   __ASM volatile ("strex %0, %2, %1" : "=&r" (result), "=Q" (*addr) : "r" (value) );
 800883a:	f8d7 1090 	ldr.w	r1, [r7, #144]	; 0x90
 800883e:	f8d7 2094 	ldr.w	r2, [r7, #148]	; 0x94
 8008842:	e841 2300 	strex	r3, r2, [r1]
 8008846:	f8c7 308c 	str.w	r3, [r7, #140]	; 0x8c
   return(result);
 800884a:	f8d7 308c 	ldr.w	r3, [r7, #140]	; 0x8c
 800884e:	2b00      	cmp	r3, #0
 8008850:	d1d9      	bne.n	8008806 <HAL_UART_IRQHandler+0x2b2>
          ATOMIC_CLEAR_BIT(huart->Instance->CR3, USART_CR3_EIE);
 8008852:	687b      	ldr	r3, [r7, #4]
 8008854:	681b      	ldr	r3, [r3, #0]
 8008856:	3314      	adds	r3, #20
 8008858:	677b      	str	r3, [r7, #116]	; 0x74
   __ASM volatile ("ldrex %0, %1" : "=r" (result) : "Q" (*addr) );
 800885a:	6f7b      	ldr	r3, [r7, #116]	; 0x74
 800885c:	e853 3f00 	ldrex	r3, [r3]
 8008860:	673b      	str	r3, [r7, #112]	; 0x70
   return(result);
 8008862:	6f3b      	ldr	r3, [r7, #112]	; 0x70
 8008864:	f023 0301 	bic.w	r3, r3, #1
 8008868:	f8c7 30b4 	str.w	r3, [r7, #180]	; 0xb4
 800886c:	687b      	ldr	r3, [r7, #4]
 800886e:	681b      	ldr	r3, [r3, #0]
 8008870:	3314      	adds	r3, #20
 8008872:	f8d7 20b4 	ldr.w	r2, [r7, #180]	; 0xb4
 8008876:	f8c7 2080 	str.w	r2, [r7, #128]	; 0x80
 800887a:	67fb      	str	r3, [r7, #124]	; 0x7c
   __ASM volatile ("strex %0, %2, %1" : "=&r" (result), "=Q" (*addr) : "r" (value) );
 800887c:	6ff9      	ldr	r1, [r7, #124]	; 0x7c
 800887e:	f8d7 2080 	ldr.w	r2, [r7, #128]	; 0x80
 8008882:	e841 2300 	strex	r3, r2, [r1]
 8008886:	67bb      	str	r3, [r7, #120]	; 0x78
   return(result);
 8008888:	6fbb      	ldr	r3, [r7, #120]	; 0x78
 800888a:	2b00      	cmp	r3, #0
 800888c:	d1e1      	bne.n	8008852 <HAL_UART_IRQHandler+0x2fe>

          /* Disable the DMA transfer for the receiver request by resetting the DMAR bit
             in the UART CR3 register */
          ATOMIC_CLEAR_BIT(huart->Instance->CR3, USART_CR3_DMAR);
 800888e:	687b      	ldr	r3, [r7, #4]
 8008890:	681b      	ldr	r3, [r3, #0]
 8008892:	3314      	adds	r3, #20
 8008894:	663b      	str	r3, [r7, #96]	; 0x60
   __ASM volatile ("ldrex %0, %1" : "=r" (result) : "Q" (*addr) );
 8008896:	6e3b      	ldr	r3, [r7, #96]	; 0x60
 8008898:	e853 3f00 	ldrex	r3, [r3]
 800889c:	65fb      	str	r3, [r7, #92]	; 0x5c
   return(result);
 800889e:	6dfb      	ldr	r3, [r7, #92]	; 0x5c
 80088a0:	f023 0340 	bic.w	r3, r3, #64	; 0x40
 80088a4:	f8c7 30b0 	str.w	r3, [r7, #176]	; 0xb0
 80088a8:	687b      	ldr	r3, [r7, #4]
 80088aa:	681b      	ldr	r3, [r3, #0]
 80088ac:	3314      	adds	r3, #20
 80088ae:	f8d7 20b0 	ldr.w	r2, [r7, #176]	; 0xb0
 80088b2:	66fa      	str	r2, [r7, #108]	; 0x6c
 80088b4:	66bb      	str	r3, [r7, #104]	; 0x68
   __ASM volatile ("strex %0, %2, %1" : "=&r" (result), "=Q" (*addr) : "r" (value) );
 80088b6:	6eb9      	ldr	r1, [r7, #104]	; 0x68
 80088b8:	6efa      	ldr	r2, [r7, #108]	; 0x6c
 80088ba:	e841 2300 	strex	r3, r2, [r1]
 80088be:	667b      	str	r3, [r7, #100]	; 0x64
   return(result);
 80088c0:	6e7b      	ldr	r3, [r7, #100]	; 0x64
 80088c2:	2b00      	cmp	r3, #0
 80088c4:	d1e3      	bne.n	800888e <HAL_UART_IRQHandler+0x33a>

          /* At end of Rx process, restore huart->RxState to Ready */
          huart->RxState = HAL_UART_STATE_READY;
 80088c6:	687b      	ldr	r3, [r7, #4]
 80088c8:	2220      	movs	r2, #32
 80088ca:	f883 2042 	strb.w	r2, [r3, #66]	; 0x42
          huart->ReceptionType = HAL_UART_RECEPTION_STANDARD;
 80088ce:	687b      	ldr	r3, [r7, #4]
 80088d0:	2200      	movs	r2, #0
 80088d2:	631a      	str	r2, [r3, #48]	; 0x30

          ATOMIC_CLEAR_BIT(huart->Instance->CR1, USART_CR1_IDLEIE);
 80088d4:	687b      	ldr	r3, [r7, #4]
 80088d6:	681b      	ldr	r3, [r3, #0]
 80088d8:	330c      	adds	r3, #12
 80088da:	64fb      	str	r3, [r7, #76]	; 0x4c
   __ASM volatile ("ldrex %0, %1" : "=r" (result) : "Q" (*addr) );
 80088dc:	6cfb      	ldr	r3, [r7, #76]	; 0x4c
 80088de:	e853 3f00 	ldrex	r3, [r3]
 80088e2:	64bb      	str	r3, [r7, #72]	; 0x48
   return(result);
 80088e4:	6cbb      	ldr	r3, [r7, #72]	; 0x48
 80088e6:	f023 0310 	bic.w	r3, r3, #16
 80088ea:	f8c7 30ac 	str.w	r3, [r7, #172]	; 0xac
 80088ee:	687b      	ldr	r3, [r7, #4]
 80088f0:	681b      	ldr	r3, [r3, #0]
 80088f2:	330c      	adds	r3, #12
 80088f4:	f8d7 20ac 	ldr.w	r2, [r7, #172]	; 0xac
 80088f8:	65ba      	str	r2, [r7, #88]	; 0x58
 80088fa:	657b      	str	r3, [r7, #84]	; 0x54
   __ASM volatile ("strex %0, %2, %1" : "=&r" (result), "=Q" (*addr) : "r" (value) );
 80088fc:	6d79      	ldr	r1, [r7, #84]	; 0x54
 80088fe:	6dba      	ldr	r2, [r7, #88]	; 0x58
 8008900:	e841 2300 	strex	r3, r2, [r1]
 8008904:	653b      	str	r3, [r7, #80]	; 0x50
   return(result);
 8008906:	6d3b      	ldr	r3, [r7, #80]	; 0x50
 8008908:	2b00      	cmp	r3, #0
 800890a:	d1e3      	bne.n	80088d4 <HAL_UART_IRQHandler+0x380>

          /* Last bytes received, so no need as the abort is immediate */
          (void)HAL_DMA_Abort(huart->hdmarx);
 800890c:	687b      	ldr	r3, [r7, #4]
 800890e:	6bdb      	ldr	r3, [r3, #60]	; 0x3c
 8008910:	4618      	mov	r0, r3
 8008912:	f7fb fc15 	bl	8004140 <HAL_DMA_Abort>
        }

        /* Initialize type of RxEvent that correspond to RxEvent callback execution;
        In this case, Rx Event type is Idle Event */
        huart->RxEventType = HAL_UART_RXEVENT_IDLE;
 8008916:	687b      	ldr	r3, [r7, #4]
 8008918:	2202      	movs	r2, #2
 800891a:	635a      	str	r2, [r3, #52]	; 0x34
#if (USE_HAL_UART_REGISTER_CALLBACKS == 1)
        /*Call registered Rx Event callback*/
        huart->RxEventCallback(huart, (huart->RxXferSize - huart->RxXferCount));
#else
        /*Call legacy weak Rx Event callback*/
        HAL_UARTEx_RxEventCallback(huart, (huart->RxXferSize - huart->RxXferCount));
 800891c:	687b      	ldr	r3, [r7, #4]
 800891e:	8d9a      	ldrh	r2, [r3, #44]	; 0x2c
 8008920:	687b      	ldr	r3, [r7, #4]
 8008922:	8ddb      	ldrh	r3, [r3, #46]	; 0x2e
 8008924:	b29b      	uxth	r3, r3
 8008926:	1ad3      	subs	r3, r2, r3
 8008928:	b29b      	uxth	r3, r3
 800892a:	4619      	mov	r1, r3
 800892c:	6878      	ldr	r0, [r7, #4]
 800892e:	f000 f8b7 	bl	8008aa0 <HAL_UARTEx_RxEventCallback>
#endif /* USE_HAL_UART_REGISTER_CALLBACKS */
      }
      return;
 8008932:	e09b      	b.n	8008a6c <HAL_UART_IRQHandler+0x518>
 8008934:	08008ca5 	.word	0x08008ca5
    else
    {
      /* DMA mode not enabled */
      /* Check received length : If all expected data are received, do nothing.
         Otherwise, if at least one data has already been received, IDLE event is to be notified to user */
      uint16_t nb_rx_data = huart->RxXferSize - huart->RxXferCount;
 8008938:	687b      	ldr	r3, [r7, #4]
 800893a:	8d9a      	ldrh	r2, [r3, #44]	; 0x2c
 800893c:	687b      	ldr	r3, [r7, #4]
 800893e:	8ddb      	ldrh	r3, [r3, #46]	; 0x2e
 8008940:	b29b      	uxth	r3, r3
 8008942:	1ad3      	subs	r3, r2, r3
 8008944:	f8a7 30ce 	strh.w	r3, [r7, #206]	; 0xce
      if ((huart->RxXferCount > 0U)
 8008948:	687b      	ldr	r3, [r7, #4]
 800894a:	8ddb      	ldrh	r3, [r3, #46]	; 0x2e
 800894c:	b29b      	uxth	r3, r3
 800894e:	2b00      	cmp	r3, #0
 8008950:	f000 808e 	beq.w	8008a70 <HAL_UART_IRQHandler+0x51c>
          && (nb_rx_data > 0U))
 8008954:	f8b7 30ce 	ldrh.w	r3, [r7, #206]	; 0xce
 8008958:	2b00      	cmp	r3, #0
 800895a:	f000 8089 	beq.w	8008a70 <HAL_UART_IRQHandler+0x51c>
      {
        /* Disable the UART Parity Error Interrupt and RXNE interrupts */
        ATOMIC_CLEAR_BIT(huart->Instance->CR1, (USART_CR1_RXNEIE | USART_CR1_PEIE));
 800895e:	687b      	ldr	r3, [r7, #4]
 8008960:	681b      	ldr	r3, [r3, #0]
 8008962:	330c      	adds	r3, #12
 8008964:	63bb      	str	r3, [r7, #56]	; 0x38
   __ASM volatile ("ldrex %0, %1" : "=r" (result) : "Q" (*addr) );
 8008966:	6bbb      	ldr	r3, [r7, #56]	; 0x38
 8008968:	e853 3f00 	ldrex	r3, [r3]
 800896c:	637b      	str	r3, [r7, #52]	; 0x34
   return(result);
 800896e:	6b7b      	ldr	r3, [r7, #52]	; 0x34
 8008970:	f423 7390 	bic.w	r3, r3, #288	; 0x120
 8008974:	f8c7 30c8 	str.w	r3, [r7, #200]	; 0xc8
 8008978:	687b      	ldr	r3, [r7, #4]
 800897a:	681b      	ldr	r3, [r3, #0]
 800897c:	330c      	adds	r3, #12
 800897e:	f8d7 20c8 	ldr.w	r2, [r7, #200]	; 0xc8
 8008982:	647a      	str	r2, [r7, #68]	; 0x44
 8008984:	643b      	str	r3, [r7, #64]	; 0x40
   __ASM volatile ("strex %0, %2, %1" : "=&r" (result), "=Q" (*addr) : "r" (value) );
 8008986:	6c39      	ldr	r1, [r7, #64]	; 0x40
 8008988:	6c7a      	ldr	r2, [r7, #68]	; 0x44
 800898a:	e841 2300 	strex	r3, r2, [r1]
 800898e:	63fb      	str	r3, [r7, #60]	; 0x3c
   return(result);
 8008990:	6bfb      	ldr	r3, [r7, #60]	; 0x3c
 8008992:	2b00      	cmp	r3, #0
 8008994:	d1e3      	bne.n	800895e <HAL_UART_IRQHandler+0x40a>

        /* Disable the UART Error Interrupt: (Frame error, noise error, overrun error) */
        ATOMIC_CLEAR_BIT(huart->Instance->CR3, USART_CR3_EIE);
 8008996:	687b      	ldr	r3, [r7, #4]
 8008998:	681b      	ldr	r3, [r3, #0]
 800899a:	3314      	adds	r3, #20
 800899c:	627b      	str	r3, [r7, #36]	; 0x24
   __ASM volatile ("ldrex %0, %1" : "=r" (result) : "Q" (*addr) );
 800899e:	6a7b      	ldr	r3, [r7, #36]	; 0x24
 80089a0:	e853 3f00 	ldrex	r3, [r3]
 80089a4:	623b      	str	r3, [r7, #32]
   return(result);
 80089a6:	6a3b      	ldr	r3, [r7, #32]
 80089a8:	f023 0301 	bic.w	r3, r3, #1
 80089ac:	f8c7 30c4 	str.w	r3, [r7, #196]	; 0xc4
 80089b0:	687b      	ldr	r3, [r7, #4]
 80089b2:	681b      	ldr	r3, [r3, #0]
 80089b4:	3314      	adds	r3, #20
 80089b6:	f8d7 20c4 	ldr.w	r2, [r7, #196]	; 0xc4
 80089ba:	633a      	str	r2, [r7, #48]	; 0x30
 80089bc:	62fb      	str	r3, [r7, #44]	; 0x2c
   __ASM volatile ("strex %0, %2, %1" : "=&r" (result), "=Q" (*addr) : "r" (value) );
 80089be:	6af9      	ldr	r1, [r7, #44]	; 0x2c
 80089c0:	6b3a      	ldr	r2, [r7, #48]	; 0x30
 80089c2:	e841 2300 	strex	r3, r2, [r1]
 80089c6:	62bb      	str	r3, [r7, #40]	; 0x28
   return(result);
 80089c8:	6abb      	ldr	r3, [r7, #40]	; 0x28
 80089ca:	2b00      	cmp	r3, #0
 80089cc:	d1e3      	bne.n	8008996 <HAL_UART_IRQHandler+0x442>

        /* Rx process is completed, restore huart->RxState to Ready */
        huart->RxState = HAL_UART_STATE_READY;
 80089ce:	687b      	ldr	r3, [r7, #4]
 80089d0:	2220      	movs	r2, #32
 80089d2:	f883 2042 	strb.w	r2, [r3, #66]	; 0x42
        huart->ReceptionType = HAL_UART_RECEPTION_STANDARD;
 80089d6:	687b      	ldr	r3, [r7, #4]
 80089d8:	2200      	movs	r2, #0
 80089da:	631a      	str	r2, [r3, #48]	; 0x30

        ATOMIC_CLEAR_BIT(huart->Instance->CR1, USART_CR1_IDLEIE);
 80089dc:	687b      	ldr	r3, [r7, #4]
 80089de:	681b      	ldr	r3, [r3, #0]
 80089e0:	330c      	adds	r3, #12
 80089e2:	613b      	str	r3, [r7, #16]
   __ASM volatile ("ldrex %0, %1" : "=r" (result) : "Q" (*addr) );
 80089e4:	693b      	ldr	r3, [r7, #16]
 80089e6:	e853 3f00 	ldrex	r3, [r3]
 80089ea:	60fb      	str	r3, [r7, #12]
   return(result);
 80089ec:	68fb      	ldr	r3, [r7, #12]
 80089ee:	f023 0310 	bic.w	r3, r3, #16
 80089f2:	f8c7 30c0 	str.w	r3, [r7, #192]	; 0xc0
 80089f6:	687b      	ldr	r3, [r7, #4]
 80089f8:	681b      	ldr	r3, [r3, #0]
 80089fa:	330c      	adds	r3, #12
 80089fc:	f8d7 20c0 	ldr.w	r2, [r7, #192]	; 0xc0
 8008a00:	61fa      	str	r2, [r7, #28]
 8008a02:	61bb      	str	r3, [r7, #24]
   __ASM volatile ("strex %0, %2, %1" : "=&r" (result), "=Q" (*addr) : "r" (value) );
 8008a04:	69b9      	ldr	r1, [r7, #24]
 8008a06:	69fa      	ldr	r2, [r7, #28]
 8008a08:	e841 2300 	strex	r3, r2, [r1]
 8008a0c:	617b      	str	r3, [r7, #20]
   return(result);
 8008a0e:	697b      	ldr	r3, [r7, #20]
 8008a10:	2b00      	cmp	r3, #0
 8008a12:	d1e3      	bne.n	80089dc <HAL_UART_IRQHandler+0x488>

        /* Initialize type of RxEvent that correspond to RxEvent callback execution;
           In this case, Rx Event type is Idle Event */
        huart->RxEventType = HAL_UART_RXEVENT_IDLE;
 8008a14:	687b      	ldr	r3, [r7, #4]
 8008a16:	2202      	movs	r2, #2
 8008a18:	635a      	str	r2, [r3, #52]	; 0x34
#if (USE_HAL_UART_REGISTER_CALLBACKS == 1)
        /*Call registered Rx complete callback*/
        huart->RxEventCallback(huart, nb_rx_data);
#else
        /*Call legacy weak Rx Event callback*/
        HAL_UARTEx_RxEventCallback(huart, nb_rx_data);
 8008a1a:	f8b7 30ce 	ldrh.w	r3, [r7, #206]	; 0xce
 8008a1e:	4619      	mov	r1, r3
 8008a20:	6878      	ldr	r0, [r7, #4]
 8008a22:	f000 f83d 	bl	8008aa0 <HAL_UARTEx_RxEventCallback>
#endif /* USE_HAL_UART_REGISTER_CALLBACKS */
      }
      return;
 8008a26:	e023      	b.n	8008a70 <HAL_UART_IRQHandler+0x51c>
    }
  }

  /* UART in mode Transmitter ------------------------------------------------*/
  if (((isrflags & USART_SR_TXE) != RESET) && ((cr1its & USART_CR1_TXEIE) != RESET))
 8008a28:	f8d7 30e4 	ldr.w	r3, [r7, #228]	; 0xe4
 8008a2c:	f003 0380 	and.w	r3, r3, #128	; 0x80
 8008a30:	2b00      	cmp	r3, #0
 8008a32:	d009      	beq.n	8008a48 <HAL_UART_IRQHandler+0x4f4>
 8008a34:	f8d7 30e0 	ldr.w	r3, [r7, #224]	; 0xe0
 8008a38:	f003 0380 	and.w	r3, r3, #128	; 0x80
 8008a3c:	2b00      	cmp	r3, #0
 8008a3e:	d003      	beq.n	8008a48 <HAL_UART_IRQHandler+0x4f4>
  {
    UART_Transmit_IT(huart);
 8008a40:	6878      	ldr	r0, [r7, #4]
 8008a42:	f000 f943 	bl	8008ccc <UART_Transmit_IT>
    return;
 8008a46:	e014      	b.n	8008a72 <HAL_UART_IRQHandler+0x51e>
  }

  /* UART in mode Transmitter end --------------------------------------------*/
  if (((isrflags & USART_SR_TC) != RESET) && ((cr1its & USART_CR1_TCIE) != RESET))
 8008a48:	f8d7 30e4 	ldr.w	r3, [r7, #228]	; 0xe4
 8008a4c:	f003 0340 	and.w	r3, r3, #64	; 0x40
 8008a50:	2b00      	cmp	r3, #0
 8008a52:	d00e      	beq.n	8008a72 <HAL_UART_IRQHandler+0x51e>
 8008a54:	f8d7 30e0 	ldr.w	r3, [r7, #224]	; 0xe0
 8008a58:	f003 0340 	and.w	r3, r3, #64	; 0x40
 8008a5c:	2b00      	cmp	r3, #0
 8008a5e:	d008      	beq.n	8008a72 <HAL_UART_IRQHandler+0x51e>
  {
    UART_EndTransmit_IT(huart);
 8008a60:	6878      	ldr	r0, [r7, #4]
 8008a62:	f000 f983 	bl	8008d6c <UART_EndTransmit_IT>
    return;
 8008a66:	e004      	b.n	8008a72 <HAL_UART_IRQHandler+0x51e>
    return;
 8008a68:	bf00      	nop
 8008a6a:	e002      	b.n	8008a72 <HAL_UART_IRQHandler+0x51e>
      return;
 8008a6c:	bf00      	nop
 8008a6e:	e000      	b.n	8008a72 <HAL_UART_IRQHandler+0x51e>
      return;
 8008a70:	bf00      	nop
  }
}
 8008a72:	37e8      	adds	r7, #232	; 0xe8
 8008a74:	46bd      	mov	sp, r7
 8008a76:	bd80      	pop	{r7, pc}

08008a78 <HAL_UART_TxCpltCallback>:
  * @param  huart  Pointer to a UART_HandleTypeDef structure that contains
  *                the configuration information for the specified UART module.
  * @retval None
  */
__weak void HAL_UART_TxCpltCallback(UART_HandleTypeDef *huart)
{
 8008a78:	b480      	push	{r7}
 8008a7a:	b083      	sub	sp, #12
 8008a7c:	af00      	add	r7, sp, #0
 8008a7e:	6078      	str	r0, [r7, #4]
  /* Prevent unused argument(s) compilation warning */
  UNUSED(huart);
  /* NOTE: This function should not be modified, when the callback is needed,
           the HAL_UART_TxCpltCallback could be implemented in the user file
   */
}
 8008a80:	bf00      	nop
 8008a82:	370c      	adds	r7, #12
 8008a84:	46bd      	mov	sp, r7
 8008a86:	f85d 7b04 	ldr.w	r7, [sp], #4
 8008a8a:	4770      	bx	lr

08008a8c <HAL_UART_ErrorCallback>:
  * @param  huart  Pointer to a UART_HandleTypeDef structure that contains
  *                the configuration information for the specified UART module.
  * @retval None
  */
__weak void HAL_UART_ErrorCallback(UART_HandleTypeDef *huart)
{
 8008a8c:	b480      	push	{r7}
 8008a8e:	b083      	sub	sp, #12
 8008a90:	af00      	add	r7, sp, #0
 8008a92:	6078      	str	r0, [r7, #4]
  /* Prevent unused argument(s) compilation warning */
  UNUSED(huart);
  /* NOTE: This function should not be modified, when the callback is needed,
           the HAL_UART_ErrorCallback could be implemented in the user file
   */
}
 8008a94:	bf00      	nop
 8008a96:	370c      	adds	r7, #12
 8008a98:	46bd      	mov	sp, r7
 8008a9a:	f85d 7b04 	ldr.w	r7, [sp], #4
 8008a9e:	4770      	bx	lr

08008aa0 <HAL_UARTEx_RxEventCallback>:
  * @param  Size  Number of data available in application reception buffer (indicates a position in
  *               reception buffer until which, data are available)
  * @retval None
  */
__weak void HAL_UARTEx_RxEventCallback(UART_HandleTypeDef *huart, uint16_t Size)
{
 8008aa0:	b480      	push	{r7}
 8008aa2:	b083      	sub	sp, #12
 8008aa4:	af00      	add	r7, sp, #0
 8008aa6:	6078      	str	r0, [r7, #4]
 8008aa8:	460b      	mov	r3, r1
 8008aaa:	807b      	strh	r3, [r7, #2]
  UNUSED(Size);

  /* NOTE : This function should not be modified, when the callback is needed,
            the HAL_UARTEx_RxEventCallback can be implemented in the user file.
   */
}
 8008aac:	bf00      	nop
 8008aae:	370c      	adds	r7, #12
 8008ab0:	46bd      	mov	sp, r7
 8008ab2:	f85d 7b04 	ldr.w	r7, [sp], #4
 8008ab6:	4770      	bx	lr

08008ab8 <UART_WaitOnFlagUntilTimeout>:
  * @param  Timeout Timeout duration
  * @retval HAL status
  */
static HAL_StatusTypeDef UART_WaitOnFlagUntilTimeout(UART_HandleTypeDef *huart, uint32_t Flag, FlagStatus Status,
                                                     uint32_t Tickstart, uint32_t Timeout)
{
 8008ab8:	b580      	push	{r7, lr}
 8008aba:	b086      	sub	sp, #24
 8008abc:	af00      	add	r7, sp, #0
 8008abe:	60f8      	str	r0, [r7, #12]
 8008ac0:	60b9      	str	r1, [r7, #8]
 8008ac2:	603b      	str	r3, [r7, #0]
 8008ac4:	4613      	mov	r3, r2
 8008ac6:	71fb      	strb	r3, [r7, #7]
  /* Wait until flag is set */
  while ((__HAL_UART_GET_FLAG(huart, Flag) ? SET : RESET) == Status)
 8008ac8:	e03b      	b.n	8008b42 <UART_WaitOnFlagUntilTimeout+0x8a>
  {
    /* Check for the Timeout */
    if (Timeout != HAL_MAX_DELAY)
 8008aca:	6a3b      	ldr	r3, [r7, #32]
 8008acc:	f1b3 3fff 	cmp.w	r3, #4294967295	; 0xffffffff
 8008ad0:	d037      	beq.n	8008b42 <UART_WaitOnFlagUntilTimeout+0x8a>
    {
      if (((HAL_GetTick() - Tickstart) > Timeout) || (Timeout == 0U))
 8008ad2:	f7fa fa85 	bl	8002fe0 <HAL_GetTick>
 8008ad6:	4602      	mov	r2, r0
 8008ad8:	683b      	ldr	r3, [r7, #0]
 8008ada:	1ad3      	subs	r3, r2, r3
 8008adc:	6a3a      	ldr	r2, [r7, #32]
 8008ade:	429a      	cmp	r2, r3
 8008ae0:	d302      	bcc.n	8008ae8 <UART_WaitOnFlagUntilTimeout+0x30>
 8008ae2:	6a3b      	ldr	r3, [r7, #32]
 8008ae4:	2b00      	cmp	r3, #0
 8008ae6:	d101      	bne.n	8008aec <UART_WaitOnFlagUntilTimeout+0x34>
      {

        return HAL_TIMEOUT;
 8008ae8:	2303      	movs	r3, #3
 8008aea:	e03a      	b.n	8008b62 <UART_WaitOnFlagUntilTimeout+0xaa>
      }

      if ((READ_BIT(huart->Instance->CR1, USART_CR1_RE) != 0U) && (Flag != UART_FLAG_TXE) && (Flag != UART_FLAG_TC))
 8008aec:	68fb      	ldr	r3, [r7, #12]
 8008aee:	681b      	ldr	r3, [r3, #0]
 8008af0:	68db      	ldr	r3, [r3, #12]
 8008af2:	f003 0304 	and.w	r3, r3, #4
 8008af6:	2b00      	cmp	r3, #0
 8008af8:	d023      	beq.n	8008b42 <UART_WaitOnFlagUntilTimeout+0x8a>
 8008afa:	68bb      	ldr	r3, [r7, #8]
 8008afc:	2b80      	cmp	r3, #128	; 0x80
 8008afe:	d020      	beq.n	8008b42 <UART_WaitOnFlagUntilTimeout+0x8a>
 8008b00:	68bb      	ldr	r3, [r7, #8]
 8008b02:	2b40      	cmp	r3, #64	; 0x40
 8008b04:	d01d      	beq.n	8008b42 <UART_WaitOnFlagUntilTimeout+0x8a>
      {
        if (__HAL_UART_GET_FLAG(huart, UART_FLAG_ORE) == SET)
 8008b06:	68fb      	ldr	r3, [r7, #12]
 8008b08:	681b      	ldr	r3, [r3, #0]
 8008b0a:	681b      	ldr	r3, [r3, #0]
 8008b0c:	f003 0308 	and.w	r3, r3, #8
 8008b10:	2b08      	cmp	r3, #8
 8008b12:	d116      	bne.n	8008b42 <UART_WaitOnFlagUntilTimeout+0x8a>
        {
          /* Clear Overrun Error flag*/
          __HAL_UART_CLEAR_OREFLAG(huart);
 8008b14:	2300      	movs	r3, #0
 8008b16:	617b      	str	r3, [r7, #20]
 8008b18:	68fb      	ldr	r3, [r7, #12]
 8008b1a:	681b      	ldr	r3, [r3, #0]
 8008b1c:	681b      	ldr	r3, [r3, #0]
 8008b1e:	617b      	str	r3, [r7, #20]
 8008b20:	68fb      	ldr	r3, [r7, #12]
 8008b22:	681b      	ldr	r3, [r3, #0]
 8008b24:	685b      	ldr	r3, [r3, #4]
 8008b26:	617b      	str	r3, [r7, #20]
 8008b28:	697b      	ldr	r3, [r7, #20]

          /* Blocking error : transfer is aborted
          Set the UART state ready to be able to start again the process,
          Disable Rx Interrupts if ongoing */
          UART_EndRxTransfer(huart);
 8008b2a:	68f8      	ldr	r0, [r7, #12]
 8008b2c:	f000 f857 	bl	8008bde <UART_EndRxTransfer>

          huart->ErrorCode = HAL_UART_ERROR_ORE;
 8008b30:	68fb      	ldr	r3, [r7, #12]
 8008b32:	2208      	movs	r2, #8
 8008b34:	645a      	str	r2, [r3, #68]	; 0x44

          /* Process Unlocked */
          __HAL_UNLOCK(huart);
 8008b36:	68fb      	ldr	r3, [r7, #12]
 8008b38:	2200      	movs	r2, #0
 8008b3a:	f883 2040 	strb.w	r2, [r3, #64]	; 0x40

          return HAL_ERROR;
 8008b3e:	2301      	movs	r3, #1
 8008b40:	e00f      	b.n	8008b62 <UART_WaitOnFlagUntilTimeout+0xaa>
  while ((__HAL_UART_GET_FLAG(huart, Flag) ? SET : RESET) == Status)
 8008b42:	68fb      	ldr	r3, [r7, #12]
 8008b44:	681b      	ldr	r3, [r3, #0]
 8008b46:	681a      	ldr	r2, [r3, #0]
 8008b48:	68bb      	ldr	r3, [r7, #8]
 8008b4a:	4013      	ands	r3, r2
 8008b4c:	68ba      	ldr	r2, [r7, #8]
 8008b4e:	429a      	cmp	r2, r3
 8008b50:	bf0c      	ite	eq
 8008b52:	2301      	moveq	r3, #1
 8008b54:	2300      	movne	r3, #0
 8008b56:	b2db      	uxtb	r3, r3
 8008b58:	461a      	mov	r2, r3
 8008b5a:	79fb      	ldrb	r3, [r7, #7]
 8008b5c:	429a      	cmp	r2, r3
 8008b5e:	d0b4      	beq.n	8008aca <UART_WaitOnFlagUntilTimeout+0x12>
        }
      }
    }
  }
  return HAL_OK;
 8008b60:	2300      	movs	r3, #0
}
 8008b62:	4618      	mov	r0, r3
 8008b64:	3718      	adds	r7, #24
 8008b66:	46bd      	mov	sp, r7
 8008b68:	bd80      	pop	{r7, pc}

08008b6a <UART_Start_Receive_IT>:
  * @param  pData Pointer to data buffer (u8 or u16 data elements).
  * @param  Size  Amount of data elements (u8 or u16) to be received.
  * @retval HAL status
  */
HAL_StatusTypeDef UART_Start_Receive_IT(UART_HandleTypeDef *huart, uint8_t *pData, uint16_t Size)
{
 8008b6a:	b480      	push	{r7}
 8008b6c:	b085      	sub	sp, #20
 8008b6e:	af00      	add	r7, sp, #0
 8008b70:	60f8      	str	r0, [r7, #12]
 8008b72:	60b9      	str	r1, [r7, #8]
 8008b74:	4613      	mov	r3, r2
 8008b76:	80fb      	strh	r3, [r7, #6]
  huart->pRxBuffPtr = pData;
 8008b78:	68fb      	ldr	r3, [r7, #12]
 8008b7a:	68ba      	ldr	r2, [r7, #8]
 8008b7c:	629a      	str	r2, [r3, #40]	; 0x28
  huart->RxXferSize = Size;
 8008b7e:	68fb      	ldr	r3, [r7, #12]
 8008b80:	88fa      	ldrh	r2, [r7, #6]
 8008b82:	859a      	strh	r2, [r3, #44]	; 0x2c
  huart->RxXferCount = Size;
 8008b84:	68fb      	ldr	r3, [r7, #12]
 8008b86:	88fa      	ldrh	r2, [r7, #6]
 8008b88:	85da      	strh	r2, [r3, #46]	; 0x2e

  huart->ErrorCode = HAL_UART_ERROR_NONE;
 8008b8a:	68fb      	ldr	r3, [r7, #12]
 8008b8c:	2200      	movs	r2, #0
 8008b8e:	645a      	str	r2, [r3, #68]	; 0x44
  huart->RxState = HAL_UART_STATE_BUSY_RX;
 8008b90:	68fb      	ldr	r3, [r7, #12]
 8008b92:	2222      	movs	r2, #34	; 0x22
 8008b94:	f883 2042 	strb.w	r2, [r3, #66]	; 0x42

  if (huart->Init.Parity != UART_PARITY_NONE)
 8008b98:	68fb      	ldr	r3, [r7, #12]
 8008b9a:	691b      	ldr	r3, [r3, #16]
 8008b9c:	2b00      	cmp	r3, #0
 8008b9e:	d007      	beq.n	8008bb0 <UART_Start_Receive_IT+0x46>
  {
    /* Enable the UART Parity Error Interrupt */
    __HAL_UART_ENABLE_IT(huart, UART_IT_PE);
 8008ba0:	68fb      	ldr	r3, [r7, #12]
 8008ba2:	681b      	ldr	r3, [r3, #0]
 8008ba4:	68da      	ldr	r2, [r3, #12]
 8008ba6:	68fb      	ldr	r3, [r7, #12]
 8008ba8:	681b      	ldr	r3, [r3, #0]
 8008baa:	f442 7280 	orr.w	r2, r2, #256	; 0x100
 8008bae:	60da      	str	r2, [r3, #12]
  }

  /* Enable the UART Error Interrupt: (Frame error, noise error, overrun error) */
  __HAL_UART_ENABLE_IT(huart, UART_IT_ERR);
 8008bb0:	68fb      	ldr	r3, [r7, #12]
 8008bb2:	681b      	ldr	r3, [r3, #0]
 8008bb4:	695a      	ldr	r2, [r3, #20]
 8008bb6:	68fb      	ldr	r3, [r7, #12]
 8008bb8:	681b      	ldr	r3, [r3, #0]
 8008bba:	f042 0201 	orr.w	r2, r2, #1
 8008bbe:	615a      	str	r2, [r3, #20]

  /* Enable the UART Data Register not empty Interrupt */
  __HAL_UART_ENABLE_IT(huart, UART_IT_RXNE);
 8008bc0:	68fb      	ldr	r3, [r7, #12]
 8008bc2:	681b      	ldr	r3, [r3, #0]
 8008bc4:	68da      	ldr	r2, [r3, #12]
 8008bc6:	68fb      	ldr	r3, [r7, #12]
 8008bc8:	681b      	ldr	r3, [r3, #0]
 8008bca:	f042 0220 	orr.w	r2, r2, #32
 8008bce:	60da      	str	r2, [r3, #12]

  return HAL_OK;
 8008bd0:	2300      	movs	r3, #0
}
 8008bd2:	4618      	mov	r0, r3
 8008bd4:	3714      	adds	r7, #20
 8008bd6:	46bd      	mov	sp, r7
 8008bd8:	f85d 7b04 	ldr.w	r7, [sp], #4
 8008bdc:	4770      	bx	lr

08008bde <UART_EndRxTransfer>:
  * @brief  End ongoing Rx transfer on UART peripheral (following error detection or Reception completion).
  * @param  huart UART handle.
  * @retval None
  */
static void UART_EndRxTransfer(UART_HandleTypeDef *huart)
{
 8008bde:	b480      	push	{r7}
 8008be0:	b095      	sub	sp, #84	; 0x54
 8008be2:	af00      	add	r7, sp, #0
 8008be4:	6078      	str	r0, [r7, #4]
  /* Disable RXNE, PE and ERR (Frame error, noise error, overrun error) interrupts */
  ATOMIC_CLEAR_BIT(huart->Instance->CR1, (USART_CR1_RXNEIE | USART_CR1_PEIE));
 8008be6:	687b      	ldr	r3, [r7, #4]
 8008be8:	681b      	ldr	r3, [r3, #0]
 8008bea:	330c      	adds	r3, #12
 8008bec:	637b      	str	r3, [r7, #52]	; 0x34
   __ASM volatile ("ldrex %0, %1" : "=r" (result) : "Q" (*addr) );
 8008bee:	6b7b      	ldr	r3, [r7, #52]	; 0x34
 8008bf0:	e853 3f00 	ldrex	r3, [r3]
 8008bf4:	633b      	str	r3, [r7, #48]	; 0x30
   return(result);
 8008bf6:	6b3b      	ldr	r3, [r7, #48]	; 0x30
 8008bf8:	f423 7390 	bic.w	r3, r3, #288	; 0x120
 8008bfc:	64fb      	str	r3, [r7, #76]	; 0x4c
 8008bfe:	687b      	ldr	r3, [r7, #4]
 8008c00:	681b      	ldr	r3, [r3, #0]
 8008c02:	330c      	adds	r3, #12
 8008c04:	6cfa      	ldr	r2, [r7, #76]	; 0x4c
 8008c06:	643a      	str	r2, [r7, #64]	; 0x40
 8008c08:	63fb      	str	r3, [r7, #60]	; 0x3c
   __ASM volatile ("strex %0, %2, %1" : "=&r" (result), "=Q" (*addr) : "r" (value) );
 8008c0a:	6bf9      	ldr	r1, [r7, #60]	; 0x3c
 8008c0c:	6c3a      	ldr	r2, [r7, #64]	; 0x40
 8008c0e:	e841 2300 	strex	r3, r2, [r1]
 8008c12:	63bb      	str	r3, [r7, #56]	; 0x38
   return(result);
 8008c14:	6bbb      	ldr	r3, [r7, #56]	; 0x38
 8008c16:	2b00      	cmp	r3, #0
 8008c18:	d1e5      	bne.n	8008be6 <UART_EndRxTransfer+0x8>
  ATOMIC_CLEAR_BIT(huart->Instance->CR3, USART_CR3_EIE);
 8008c1a:	687b      	ldr	r3, [r7, #4]
 8008c1c:	681b      	ldr	r3, [r3, #0]
 8008c1e:	3314      	adds	r3, #20
 8008c20:	623b      	str	r3, [r7, #32]
   __ASM volatile ("ldrex %0, %1" : "=r" (result) : "Q" (*addr) );
 8008c22:	6a3b      	ldr	r3, [r7, #32]
 8008c24:	e853 3f00 	ldrex	r3, [r3]
 8008c28:	61fb      	str	r3, [r7, #28]
   return(result);
 8008c2a:	69fb      	ldr	r3, [r7, #28]
 8008c2c:	f023 0301 	bic.w	r3, r3, #1
 8008c30:	64bb      	str	r3, [r7, #72]	; 0x48
 8008c32:	687b      	ldr	r3, [r7, #4]
 8008c34:	681b      	ldr	r3, [r3, #0]
 8008c36:	3314      	adds	r3, #20
 8008c38:	6cba      	ldr	r2, [r7, #72]	; 0x48
 8008c3a:	62fa      	str	r2, [r7, #44]	; 0x2c
 8008c3c:	62bb      	str	r3, [r7, #40]	; 0x28
   __ASM volatile ("strex %0, %2, %1" : "=&r" (result), "=Q" (*addr) : "r" (value) );
 8008c3e:	6ab9      	ldr	r1, [r7, #40]	; 0x28
 8008c40:	6afa      	ldr	r2, [r7, #44]	; 0x2c
 8008c42:	e841 2300 	strex	r3, r2, [r1]
 8008c46:	627b      	str	r3, [r7, #36]	; 0x24
   return(result);
 8008c48:	6a7b      	ldr	r3, [r7, #36]	; 0x24
 8008c4a:	2b00      	cmp	r3, #0
 8008c4c:	d1e5      	bne.n	8008c1a <UART_EndRxTransfer+0x3c>

  /* In case of reception waiting for IDLE event, disable also the IDLE IE interrupt source */
  if (huart->ReceptionType == HAL_UART_RECEPTION_TOIDLE)
 8008c4e:	687b      	ldr	r3, [r7, #4]
 8008c50:	6b1b      	ldr	r3, [r3, #48]	; 0x30
 8008c52:	2b01      	cmp	r3, #1
 8008c54:	d119      	bne.n	8008c8a <UART_EndRxTransfer+0xac>
  {
    ATOMIC_CLEAR_BIT(huart->Instance->CR1, USART_CR1_IDLEIE);
 8008c56:	687b      	ldr	r3, [r7, #4]
 8008c58:	681b      	ldr	r3, [r3, #0]
 8008c5a:	330c      	adds	r3, #12
 8008c5c:	60fb      	str	r3, [r7, #12]
   __ASM volatile ("ldrex %0, %1" : "=r" (result) : "Q" (*addr) );
 8008c5e:	68fb      	ldr	r3, [r7, #12]
 8008c60:	e853 3f00 	ldrex	r3, [r3]
 8008c64:	60bb      	str	r3, [r7, #8]
   return(result);
 8008c66:	68bb      	ldr	r3, [r7, #8]
 8008c68:	f023 0310 	bic.w	r3, r3, #16
 8008c6c:	647b      	str	r3, [r7, #68]	; 0x44
 8008c6e:	687b      	ldr	r3, [r7, #4]
 8008c70:	681b      	ldr	r3, [r3, #0]
 8008c72:	330c      	adds	r3, #12
 8008c74:	6c7a      	ldr	r2, [r7, #68]	; 0x44
 8008c76:	61ba      	str	r2, [r7, #24]
 8008c78:	617b      	str	r3, [r7, #20]
   __ASM volatile ("strex %0, %2, %1" : "=&r" (result), "=Q" (*addr) : "r" (value) );
 8008c7a:	6979      	ldr	r1, [r7, #20]
 8008c7c:	69ba      	ldr	r2, [r7, #24]
 8008c7e:	e841 2300 	strex	r3, r2, [r1]
 8008c82:	613b      	str	r3, [r7, #16]
   return(result);
 8008c84:	693b      	ldr	r3, [r7, #16]
 8008c86:	2b00      	cmp	r3, #0
 8008c88:	d1e5      	bne.n	8008c56 <UART_EndRxTransfer+0x78>
  }

  /* At end of Rx process, restore huart->RxState to Ready */
  huart->RxState = HAL_UART_STATE_READY;
 8008c8a:	687b      	ldr	r3, [r7, #4]
 8008c8c:	2220      	movs	r2, #32
 8008c8e:	f883 2042 	strb.w	r2, [r3, #66]	; 0x42
  huart->ReceptionType = HAL_UART_RECEPTION_STANDARD;
 8008c92:	687b      	ldr	r3, [r7, #4]
 8008c94:	2200      	movs	r2, #0
 8008c96:	631a      	str	r2, [r3, #48]	; 0x30
}
 8008c98:	bf00      	nop
 8008c9a:	3754      	adds	r7, #84	; 0x54
 8008c9c:	46bd      	mov	sp, r7
 8008c9e:	f85d 7b04 	ldr.w	r7, [sp], #4
 8008ca2:	4770      	bx	lr

08008ca4 <UART_DMAAbortOnError>:
  * @param  hdma  Pointer to a DMA_HandleTypeDef structure that contains
  *               the configuration information for the specified DMA module.
  * @retval None
  */
static void UART_DMAAbortOnError(DMA_HandleTypeDef *hdma)
{
 8008ca4:	b580      	push	{r7, lr}
 8008ca6:	b084      	sub	sp, #16
 8008ca8:	af00      	add	r7, sp, #0
 8008caa:	6078      	str	r0, [r7, #4]
  UART_HandleTypeDef *huart = (UART_HandleTypeDef *)((DMA_HandleTypeDef *)hdma)->Parent;
 8008cac:	687b      	ldr	r3, [r7, #4]
 8008cae:	6b9b      	ldr	r3, [r3, #56]	; 0x38
 8008cb0:	60fb      	str	r3, [r7, #12]
  huart->RxXferCount = 0x00U;
 8008cb2:	68fb      	ldr	r3, [r7, #12]
 8008cb4:	2200      	movs	r2, #0
 8008cb6:	85da      	strh	r2, [r3, #46]	; 0x2e
  huart->TxXferCount = 0x00U;
 8008cb8:	68fb      	ldr	r3, [r7, #12]
 8008cba:	2200      	movs	r2, #0
 8008cbc:	84da      	strh	r2, [r3, #38]	; 0x26
#if (USE_HAL_UART_REGISTER_CALLBACKS == 1)
  /*Call registered error callback*/
  huart->ErrorCallback(huart);
#else
  /*Call legacy weak error callback*/
  HAL_UART_ErrorCallback(huart);
 8008cbe:	68f8      	ldr	r0, [r7, #12]
 8008cc0:	f7ff fee4 	bl	8008a8c <HAL_UART_ErrorCallback>
#endif /* USE_HAL_UART_REGISTER_CALLBACKS */
}
 8008cc4:	bf00      	nop
 8008cc6:	3710      	adds	r7, #16
 8008cc8:	46bd      	mov	sp, r7
 8008cca:	bd80      	pop	{r7, pc}

08008ccc <UART_Transmit_IT>:
  * @param  huart  Pointer to a UART_HandleTypeDef structure that contains
  *                the configuration information for the specified UART module.
  * @retval HAL status
  */
static HAL_StatusTypeDef UART_Transmit_IT(UART_HandleTypeDef *huart)
{
 8008ccc:	b480      	push	{r7}
 8008cce:	b085      	sub	sp, #20
 8008cd0:	af00      	add	r7, sp, #0
 8008cd2:	6078      	str	r0, [r7, #4]
  const uint16_t *tmp;

  /* Check that a Tx process is ongoing */
  if (huart->gState == HAL_UART_STATE_BUSY_TX)
 8008cd4:	687b      	ldr	r3, [r7, #4]
 8008cd6:	f893 3041 	ldrb.w	r3, [r3, #65]	; 0x41
 8008cda:	b2db      	uxtb	r3, r3
 8008cdc:	2b21      	cmp	r3, #33	; 0x21
 8008cde:	d13e      	bne.n	8008d5e <UART_Transmit_IT+0x92>
  {
    if ((huart->Init.WordLength == UART_WORDLENGTH_9B) && (huart->Init.Parity == UART_PARITY_NONE))
 8008ce0:	687b      	ldr	r3, [r7, #4]
 8008ce2:	689b      	ldr	r3, [r3, #8]
 8008ce4:	f5b3 5f80 	cmp.w	r3, #4096	; 0x1000
 8008ce8:	d114      	bne.n	8008d14 <UART_Transmit_IT+0x48>
 8008cea:	687b      	ldr	r3, [r7, #4]
 8008cec:	691b      	ldr	r3, [r3, #16]
 8008cee:	2b00      	cmp	r3, #0
 8008cf0:	d110      	bne.n	8008d14 <UART_Transmit_IT+0x48>
    {
      tmp = (const uint16_t *) huart->pTxBuffPtr;
 8008cf2:	687b      	ldr	r3, [r7, #4]
 8008cf4:	6a1b      	ldr	r3, [r3, #32]
 8008cf6:	60fb      	str	r3, [r7, #12]
      huart->Instance->DR = (uint16_t)(*tmp & (uint16_t)0x01FF);
 8008cf8:	68fb      	ldr	r3, [r7, #12]
 8008cfa:	881b      	ldrh	r3, [r3, #0]
 8008cfc:	461a      	mov	r2, r3
 8008cfe:	687b      	ldr	r3, [r7, #4]
 8008d00:	681b      	ldr	r3, [r3, #0]
 8008d02:	f3c2 0208 	ubfx	r2, r2, #0, #9
 8008d06:	605a      	str	r2, [r3, #4]
      huart->pTxBuffPtr += 2U;
 8008d08:	687b      	ldr	r3, [r7, #4]
 8008d0a:	6a1b      	ldr	r3, [r3, #32]
 8008d0c:	1c9a      	adds	r2, r3, #2
 8008d0e:	687b      	ldr	r3, [r7, #4]
 8008d10:	621a      	str	r2, [r3, #32]
 8008d12:	e008      	b.n	8008d26 <UART_Transmit_IT+0x5a>
    }
    else
    {
      huart->Instance->DR = (uint8_t)(*huart->pTxBuffPtr++ & (uint8_t)0x00FF);
 8008d14:	687b      	ldr	r3, [r7, #4]
 8008d16:	6a1b      	ldr	r3, [r3, #32]
 8008d18:	1c59      	adds	r1, r3, #1
 8008d1a:	687a      	ldr	r2, [r7, #4]
 8008d1c:	6211      	str	r1, [r2, #32]
 8008d1e:	781a      	ldrb	r2, [r3, #0]
 8008d20:	687b      	ldr	r3, [r7, #4]
 8008d22:	681b      	ldr	r3, [r3, #0]
 8008d24:	605a      	str	r2, [r3, #4]
    }

    if (--huart->TxXferCount == 0U)
 8008d26:	687b      	ldr	r3, [r7, #4]
 8008d28:	8cdb      	ldrh	r3, [r3, #38]	; 0x26
 8008d2a:	b29b      	uxth	r3, r3
 8008d2c:	3b01      	subs	r3, #1
 8008d2e:	b29b      	uxth	r3, r3
 8008d30:	687a      	ldr	r2, [r7, #4]
 8008d32:	4619      	mov	r1, r3
 8008d34:	84d1      	strh	r1, [r2, #38]	; 0x26
 8008d36:	2b00      	cmp	r3, #0
 8008d38:	d10f      	bne.n	8008d5a <UART_Transmit_IT+0x8e>
    {
      /* Disable the UART Transmit Data Register Empty Interrupt */
      __HAL_UART_DISABLE_IT(huart, UART_IT_TXE);
 8008d3a:	687b      	ldr	r3, [r7, #4]
 8008d3c:	681b      	ldr	r3, [r3, #0]
 8008d3e:	68da      	ldr	r2, [r3, #12]
 8008d40:	687b      	ldr	r3, [r7, #4]
 8008d42:	681b      	ldr	r3, [r3, #0]
 8008d44:	f022 0280 	bic.w	r2, r2, #128	; 0x80
 8008d48:	60da      	str	r2, [r3, #12]

      /* Enable the UART Transmit Complete Interrupt */
      __HAL_UART_ENABLE_IT(huart, UART_IT_TC);
 8008d4a:	687b      	ldr	r3, [r7, #4]
 8008d4c:	681b      	ldr	r3, [r3, #0]
 8008d4e:	68da      	ldr	r2, [r3, #12]
 8008d50:	687b      	ldr	r3, [r7, #4]
 8008d52:	681b      	ldr	r3, [r3, #0]
 8008d54:	f042 0240 	orr.w	r2, r2, #64	; 0x40
 8008d58:	60da      	str	r2, [r3, #12]
    }
    return HAL_OK;
 8008d5a:	2300      	movs	r3, #0
 8008d5c:	e000      	b.n	8008d60 <UART_Transmit_IT+0x94>
  }
  else
  {
    return HAL_BUSY;
 8008d5e:	2302      	movs	r3, #2
  }
}
 8008d60:	4618      	mov	r0, r3
 8008d62:	3714      	adds	r7, #20
 8008d64:	46bd      	mov	sp, r7
 8008d66:	f85d 7b04 	ldr.w	r7, [sp], #4
 8008d6a:	4770      	bx	lr

08008d6c <UART_EndTransmit_IT>:
  * @param  huart  Pointer to a UART_HandleTypeDef structure that contains
  *                the configuration information for the specified UART module.
  * @retval HAL status
  */
static HAL_StatusTypeDef UART_EndTransmit_IT(UART_HandleTypeDef *huart)
{
 8008d6c:	b580      	push	{r7, lr}
 8008d6e:	b082      	sub	sp, #8
 8008d70:	af00      	add	r7, sp, #0
 8008d72:	6078      	str	r0, [r7, #4]
  /* Disable the UART Transmit Complete Interrupt */
  __HAL_UART_DISABLE_IT(huart, UART_IT_TC);
 8008d74:	687b      	ldr	r3, [r7, #4]
 8008d76:	681b      	ldr	r3, [r3, #0]
 8008d78:	68da      	ldr	r2, [r3, #12]
 8008d7a:	687b      	ldr	r3, [r7, #4]
 8008d7c:	681b      	ldr	r3, [r3, #0]
 8008d7e:	f022 0240 	bic.w	r2, r2, #64	; 0x40
 8008d82:	60da      	str	r2, [r3, #12]

  /* Tx process is ended, restore huart->gState to Ready */
  huart->gState = HAL_UART_STATE_READY;
 8008d84:	687b      	ldr	r3, [r7, #4]
 8008d86:	2220      	movs	r2, #32
 8008d88:	f883 2041 	strb.w	r2, [r3, #65]	; 0x41
#if (USE_HAL_UART_REGISTER_CALLBACKS == 1)
  /*Call registered Tx complete callback*/
  huart->TxCpltCallback(huart);
#else
  /*Call legacy weak Tx complete callback*/
  HAL_UART_TxCpltCallback(huart);
 8008d8c:	6878      	ldr	r0, [r7, #4]
 8008d8e:	f7ff fe73 	bl	8008a78 <HAL_UART_TxCpltCallback>
#endif /* USE_HAL_UART_REGISTER_CALLBACKS */

  return HAL_OK;
 8008d92:	2300      	movs	r3, #0
}
 8008d94:	4618      	mov	r0, r3
 8008d96:	3708      	adds	r7, #8
 8008d98:	46bd      	mov	sp, r7
 8008d9a:	bd80      	pop	{r7, pc}

08008d9c <UART_Receive_IT>:
  * @param  huart  Pointer to a UART_HandleTypeDef structure that contains
  *                the configuration information for the specified UART module.
  * @retval HAL status
  */
static HAL_StatusTypeDef UART_Receive_IT(UART_HandleTypeDef *huart)
{
 8008d9c:	b580      	push	{r7, lr}
 8008d9e:	b08c      	sub	sp, #48	; 0x30
 8008da0:	af00      	add	r7, sp, #0
 8008da2:	6078      	str	r0, [r7, #4]
  uint8_t  *pdata8bits;
  uint16_t *pdata16bits;

  /* Check that a Rx process is ongoing */
  if (huart->RxState == HAL_UART_STATE_BUSY_RX)
 8008da4:	687b      	ldr	r3, [r7, #4]
 8008da6:	f893 3042 	ldrb.w	r3, [r3, #66]	; 0x42
 8008daa:	b2db      	uxtb	r3, r3
 8008dac:	2b22      	cmp	r3, #34	; 0x22
 8008dae:	f040 80ae 	bne.w	8008f0e <UART_Receive_IT+0x172>
  {
    if ((huart->Init.WordLength == UART_WORDLENGTH_9B) && (huart->Init.Parity == UART_PARITY_NONE))
 8008db2:	687b      	ldr	r3, [r7, #4]
 8008db4:	689b      	ldr	r3, [r3, #8]
 8008db6:	f5b3 5f80 	cmp.w	r3, #4096	; 0x1000
 8008dba:	d117      	bne.n	8008dec <UART_Receive_IT+0x50>
 8008dbc:	687b      	ldr	r3, [r7, #4]
 8008dbe:	691b      	ldr	r3, [r3, #16]
 8008dc0:	2b00      	cmp	r3, #0
 8008dc2:	d113      	bne.n	8008dec <UART_Receive_IT+0x50>
    {
      pdata8bits  = NULL;
 8008dc4:	2300      	movs	r3, #0
 8008dc6:	62fb      	str	r3, [r7, #44]	; 0x2c
      pdata16bits = (uint16_t *) huart->pRxBuffPtr;
 8008dc8:	687b      	ldr	r3, [r7, #4]
 8008dca:	6a9b      	ldr	r3, [r3, #40]	; 0x28
 8008dcc:	62bb      	str	r3, [r7, #40]	; 0x28
      *pdata16bits = (uint16_t)(huart->Instance->DR & (uint16_t)0x01FF);
 8008dce:	687b      	ldr	r3, [r7, #4]
 8008dd0:	681b      	ldr	r3, [r3, #0]
 8008dd2:	685b      	ldr	r3, [r3, #4]
 8008dd4:	b29b      	uxth	r3, r3
 8008dd6:	f3c3 0308 	ubfx	r3, r3, #0, #9
 8008dda:	b29a      	uxth	r2, r3
 8008ddc:	6abb      	ldr	r3, [r7, #40]	; 0x28
 8008dde:	801a      	strh	r2, [r3, #0]
      huart->pRxBuffPtr += 2U;
 8008de0:	687b      	ldr	r3, [r7, #4]
 8008de2:	6a9b      	ldr	r3, [r3, #40]	; 0x28
 8008de4:	1c9a      	adds	r2, r3, #2
 8008de6:	687b      	ldr	r3, [r7, #4]
 8008de8:	629a      	str	r2, [r3, #40]	; 0x28
 8008dea:	e026      	b.n	8008e3a <UART_Receive_IT+0x9e>
    }
    else
    {
      pdata8bits = (uint8_t *) huart->pRxBuffPtr;
 8008dec:	687b      	ldr	r3, [r7, #4]
 8008dee:	6a9b      	ldr	r3, [r3, #40]	; 0x28
 8008df0:	62fb      	str	r3, [r7, #44]	; 0x2c
      pdata16bits  = NULL;
 8008df2:	2300      	movs	r3, #0
 8008df4:	62bb      	str	r3, [r7, #40]	; 0x28

      if ((huart->Init.WordLength == UART_WORDLENGTH_9B) || ((huart->Init.WordLength == UART_WORDLENGTH_8B) && (huart->Init.Parity == UART_PARITY_NONE)))
 8008df6:	687b      	ldr	r3, [r7, #4]
 8008df8:	689b      	ldr	r3, [r3, #8]
 8008dfa:	f5b3 5f80 	cmp.w	r3, #4096	; 0x1000
 8008dfe:	d007      	beq.n	8008e10 <UART_Receive_IT+0x74>
 8008e00:	687b      	ldr	r3, [r7, #4]
 8008e02:	689b      	ldr	r3, [r3, #8]
 8008e04:	2b00      	cmp	r3, #0
 8008e06:	d10a      	bne.n	8008e1e <UART_Receive_IT+0x82>
 8008e08:	687b      	ldr	r3, [r7, #4]
 8008e0a:	691b      	ldr	r3, [r3, #16]
 8008e0c:	2b00      	cmp	r3, #0
 8008e0e:	d106      	bne.n	8008e1e <UART_Receive_IT+0x82>
      {
        *pdata8bits = (uint8_t)(huart->Instance->DR & (uint8_t)0x00FF);
 8008e10:	687b      	ldr	r3, [r7, #4]
 8008e12:	681b      	ldr	r3, [r3, #0]
 8008e14:	685b      	ldr	r3, [r3, #4]
 8008e16:	b2da      	uxtb	r2, r3
 8008e18:	6afb      	ldr	r3, [r7, #44]	; 0x2c
 8008e1a:	701a      	strb	r2, [r3, #0]
 8008e1c:	e008      	b.n	8008e30 <UART_Receive_IT+0x94>
      }
      else
      {
        *pdata8bits = (uint8_t)(huart->Instance->DR & (uint8_t)0x007F);
 8008e1e:	687b      	ldr	r3, [r7, #4]
 8008e20:	681b      	ldr	r3, [r3, #0]
 8008e22:	685b      	ldr	r3, [r3, #4]
 8008e24:	b2db      	uxtb	r3, r3
 8008e26:	f003 037f 	and.w	r3, r3, #127	; 0x7f
 8008e2a:	b2da      	uxtb	r2, r3
 8008e2c:	6afb      	ldr	r3, [r7, #44]	; 0x2c
 8008e2e:	701a      	strb	r2, [r3, #0]
      }
      huart->pRxBuffPtr += 1U;
 8008e30:	687b      	ldr	r3, [r7, #4]
 8008e32:	6a9b      	ldr	r3, [r3, #40]	; 0x28
 8008e34:	1c5a      	adds	r2, r3, #1
 8008e36:	687b      	ldr	r3, [r7, #4]
 8008e38:	629a      	str	r2, [r3, #40]	; 0x28
    }

    if (--huart->RxXferCount == 0U)
 8008e3a:	687b      	ldr	r3, [r7, #4]
 8008e3c:	8ddb      	ldrh	r3, [r3, #46]	; 0x2e
 8008e3e:	b29b      	uxth	r3, r3
 8008e40:	3b01      	subs	r3, #1
 8008e42:	b29b      	uxth	r3, r3
 8008e44:	687a      	ldr	r2, [r7, #4]
 8008e46:	4619      	mov	r1, r3
 8008e48:	85d1      	strh	r1, [r2, #46]	; 0x2e
 8008e4a:	2b00      	cmp	r3, #0
 8008e4c:	d15d      	bne.n	8008f0a <UART_Receive_IT+0x16e>
    {
      /* Disable the UART Data Register not empty Interrupt */
      __HAL_UART_DISABLE_IT(huart, UART_IT_RXNE);
 8008e4e:	687b      	ldr	r3, [r7, #4]
 8008e50:	681b      	ldr	r3, [r3, #0]
 8008e52:	68da      	ldr	r2, [r3, #12]
 8008e54:	687b      	ldr	r3, [r7, #4]
 8008e56:	681b      	ldr	r3, [r3, #0]
 8008e58:	f022 0220 	bic.w	r2, r2, #32
 8008e5c:	60da      	str	r2, [r3, #12]

      /* Disable the UART Parity Error Interrupt */
      __HAL_UART_DISABLE_IT(huart, UART_IT_PE);
 8008e5e:	687b      	ldr	r3, [r7, #4]
 8008e60:	681b      	ldr	r3, [r3, #0]
 8008e62:	68da      	ldr	r2, [r3, #12]
 8008e64:	687b      	ldr	r3, [r7, #4]
 8008e66:	681b      	ldr	r3, [r3, #0]
 8008e68:	f422 7280 	bic.w	r2, r2, #256	; 0x100
 8008e6c:	60da      	str	r2, [r3, #12]

      /* Disable the UART Error Interrupt: (Frame error, noise error, overrun error) */
      __HAL_UART_DISABLE_IT(huart, UART_IT_ERR);
 8008e6e:	687b      	ldr	r3, [r7, #4]
 8008e70:	681b      	ldr	r3, [r3, #0]
 8008e72:	695a      	ldr	r2, [r3, #20]
 8008e74:	687b      	ldr	r3, [r7, #4]
 8008e76:	681b      	ldr	r3, [r3, #0]
 8008e78:	f022 0201 	bic.w	r2, r2, #1
 8008e7c:	615a      	str	r2, [r3, #20]

      /* Rx process is completed, restore huart->RxState to Ready */
      huart->RxState = HAL_UART_STATE_READY;
 8008e7e:	687b      	ldr	r3, [r7, #4]
 8008e80:	2220      	movs	r2, #32
 8008e82:	f883 2042 	strb.w	r2, [r3, #66]	; 0x42

      /* Initialize type of RxEvent to Transfer Complete */
      huart->RxEventType = HAL_UART_RXEVENT_TC;
 8008e86:	687b      	ldr	r3, [r7, #4]
 8008e88:	2200      	movs	r2, #0
 8008e8a:	635a      	str	r2, [r3, #52]	; 0x34

      /* Check current reception Mode :
         If Reception till IDLE event has been selected : */
      if (huart->ReceptionType == HAL_UART_RECEPTION_TOIDLE)
 8008e8c:	687b      	ldr	r3, [r7, #4]
 8008e8e:	6b1b      	ldr	r3, [r3, #48]	; 0x30
 8008e90:	2b01      	cmp	r3, #1
 8008e92:	d135      	bne.n	8008f00 <UART_Receive_IT+0x164>
      {
        /* Set reception type to Standard */
        huart->ReceptionType = HAL_UART_RECEPTION_STANDARD;
 8008e94:	687b      	ldr	r3, [r7, #4]
 8008e96:	2200      	movs	r2, #0
 8008e98:	631a      	str	r2, [r3, #48]	; 0x30

        /* Disable IDLE interrupt */
        ATOMIC_CLEAR_BIT(huart->Instance->CR1, USART_CR1_IDLEIE);
 8008e9a:	687b      	ldr	r3, [r7, #4]
 8008e9c:	681b      	ldr	r3, [r3, #0]
 8008e9e:	330c      	adds	r3, #12
 8008ea0:	617b      	str	r3, [r7, #20]
   __ASM volatile ("ldrex %0, %1" : "=r" (result) : "Q" (*addr) );
 8008ea2:	697b      	ldr	r3, [r7, #20]
 8008ea4:	e853 3f00 	ldrex	r3, [r3]
 8008ea8:	613b      	str	r3, [r7, #16]
   return(result);
 8008eaa:	693b      	ldr	r3, [r7, #16]
 8008eac:	f023 0310 	bic.w	r3, r3, #16
 8008eb0:	627b      	str	r3, [r7, #36]	; 0x24
 8008eb2:	687b      	ldr	r3, [r7, #4]
 8008eb4:	681b      	ldr	r3, [r3, #0]
 8008eb6:	330c      	adds	r3, #12
 8008eb8:	6a7a      	ldr	r2, [r7, #36]	; 0x24
 8008eba:	623a      	str	r2, [r7, #32]
 8008ebc:	61fb      	str	r3, [r7, #28]
   __ASM volatile ("strex %0, %2, %1" : "=&r" (result), "=Q" (*addr) : "r" (value) );
 8008ebe:	69f9      	ldr	r1, [r7, #28]
 8008ec0:	6a3a      	ldr	r2, [r7, #32]
 8008ec2:	e841 2300 	strex	r3, r2, [r1]
 8008ec6:	61bb      	str	r3, [r7, #24]
   return(result);
 8008ec8:	69bb      	ldr	r3, [r7, #24]
 8008eca:	2b00      	cmp	r3, #0
 8008ecc:	d1e5      	bne.n	8008e9a <UART_Receive_IT+0xfe>

        /* Check if IDLE flag is set */
        if (__HAL_UART_GET_FLAG(huart, UART_FLAG_IDLE))
 8008ece:	687b      	ldr	r3, [r7, #4]
 8008ed0:	681b      	ldr	r3, [r3, #0]
 8008ed2:	681b      	ldr	r3, [r3, #0]
 8008ed4:	f003 0310 	and.w	r3, r3, #16
 8008ed8:	2b10      	cmp	r3, #16
 8008eda:	d10a      	bne.n	8008ef2 <UART_Receive_IT+0x156>
        {
          /* Clear IDLE flag in ISR */
          __HAL_UART_CLEAR_IDLEFLAG(huart);
 8008edc:	2300      	movs	r3, #0
 8008ede:	60fb      	str	r3, [r7, #12]
 8008ee0:	687b      	ldr	r3, [r7, #4]
 8008ee2:	681b      	ldr	r3, [r3, #0]
 8008ee4:	681b      	ldr	r3, [r3, #0]
 8008ee6:	60fb      	str	r3, [r7, #12]
 8008ee8:	687b      	ldr	r3, [r7, #4]
 8008eea:	681b      	ldr	r3, [r3, #0]
 8008eec:	685b      	ldr	r3, [r3, #4]
 8008eee:	60fb      	str	r3, [r7, #12]
 8008ef0:	68fb      	ldr	r3, [r7, #12]
#if (USE_HAL_UART_REGISTER_CALLBACKS == 1)
        /*Call registered Rx Event callback*/
        huart->RxEventCallback(huart, huart->RxXferSize);
#else
        /*Call legacy weak Rx Event callback*/
        HAL_UARTEx_RxEventCallback(huart, huart->RxXferSize);
 8008ef2:	687b      	ldr	r3, [r7, #4]
 8008ef4:	8d9b      	ldrh	r3, [r3, #44]	; 0x2c
 8008ef6:	4619      	mov	r1, r3
 8008ef8:	6878      	ldr	r0, [r7, #4]
 8008efa:	f7ff fdd1 	bl	8008aa0 <HAL_UARTEx_RxEventCallback>
 8008efe:	e002      	b.n	8008f06 <UART_Receive_IT+0x16a>
#if (USE_HAL_UART_REGISTER_CALLBACKS == 1)
        /*Call registered Rx complete callback*/
        huart->RxCpltCallback(huart);
#else
        /*Call legacy weak Rx complete callback*/
        HAL_UART_RxCpltCallback(huart);
 8008f00:	6878      	ldr	r0, [r7, #4]
 8008f02:	f7f9 ff7b 	bl	8002dfc <HAL_UART_RxCpltCallback>
#endif /* USE_HAL_UART_REGISTER_CALLBACKS */
      }

      return HAL_OK;
 8008f06:	2300      	movs	r3, #0
 8008f08:	e002      	b.n	8008f10 <UART_Receive_IT+0x174>
    }
    return HAL_OK;
 8008f0a:	2300      	movs	r3, #0
 8008f0c:	e000      	b.n	8008f10 <UART_Receive_IT+0x174>
  }
  else
  {
    return HAL_BUSY;
 8008f0e:	2302      	movs	r3, #2
  }
}
 8008f10:	4618      	mov	r0, r3
 8008f12:	3730      	adds	r7, #48	; 0x30
 8008f14:	46bd      	mov	sp, r7
 8008f16:	bd80      	pop	{r7, pc}

08008f18 <UART_SetConfig>:
  * @param  huart  Pointer to a UART_HandleTypeDef structure that contains
  *                the configuration information for the specified UART module.
  * @retval None
  */
static void UART_SetConfig(UART_HandleTypeDef *huart)
{
 8008f18:	e92d 4fb0 	stmdb	sp!, {r4, r5, r7, r8, r9, sl, fp, lr}
 8008f1c:	b0c0      	sub	sp, #256	; 0x100
 8008f1e:	af00      	add	r7, sp, #0
 8008f20:	f8c7 00f4 	str.w	r0, [r7, #244]	; 0xf4
  assert_param(IS_UART_MODE(huart->Init.Mode));

  /*-------------------------- USART CR2 Configuration -----------------------*/
  /* Configure the UART Stop Bits: Set STOP[13:12] bits
     according to huart->Init.StopBits value */
  MODIFY_REG(huart->Instance->CR2, USART_CR2_STOP, huart->Init.StopBits);
 8008f24:	f8d7 30f4 	ldr.w	r3, [r7, #244]	; 0xf4
 8008f28:	681b      	ldr	r3, [r3, #0]
 8008f2a:	691b      	ldr	r3, [r3, #16]
 8008f2c:	f423 5040 	bic.w	r0, r3, #12288	; 0x3000
 8008f30:	f8d7 30f4 	ldr.w	r3, [r7, #244]	; 0xf4
 8008f34:	68d9      	ldr	r1, [r3, #12]
 8008f36:	f8d7 30f4 	ldr.w	r3, [r7, #244]	; 0xf4
 8008f3a:	681a      	ldr	r2, [r3, #0]
 8008f3c:	ea40 0301 	orr.w	r3, r0, r1
 8008f40:	6113      	str	r3, [r2, #16]
     Set the M bits according to huart->Init.WordLength value
     Set PCE and PS bits according to huart->Init.Parity value
     Set TE and RE bits according to huart->Init.Mode value
     Set OVER8 bit according to huart->Init.OverSampling value */

  tmpreg = (uint32_t)huart->Init.WordLength | huart->Init.Parity | huart->Init.Mode | huart->Init.OverSampling;
 8008f42:	f8d7 30f4 	ldr.w	r3, [r7, #244]	; 0xf4
 8008f46:	689a      	ldr	r2, [r3, #8]
 8008f48:	f8d7 30f4 	ldr.w	r3, [r7, #244]	; 0xf4
 8008f4c:	691b      	ldr	r3, [r3, #16]
 8008f4e:	431a      	orrs	r2, r3
 8008f50:	f8d7 30f4 	ldr.w	r3, [r7, #244]	; 0xf4
 8008f54:	695b      	ldr	r3, [r3, #20]
 8008f56:	431a      	orrs	r2, r3
 8008f58:	f8d7 30f4 	ldr.w	r3, [r7, #244]	; 0xf4
 8008f5c:	69db      	ldr	r3, [r3, #28]
 8008f5e:	4313      	orrs	r3, r2
 8008f60:	f8c7 30f8 	str.w	r3, [r7, #248]	; 0xf8
  MODIFY_REG(huart->Instance->CR1,
 8008f64:	f8d7 30f4 	ldr.w	r3, [r7, #244]	; 0xf4
 8008f68:	681b      	ldr	r3, [r3, #0]
 8008f6a:	68db      	ldr	r3, [r3, #12]
 8008f6c:	f423 4116 	bic.w	r1, r3, #38400	; 0x9600
 8008f70:	f021 010c 	bic.w	r1, r1, #12
 8008f74:	f8d7 30f4 	ldr.w	r3, [r7, #244]	; 0xf4
 8008f78:	681a      	ldr	r2, [r3, #0]
 8008f7a:	f8d7 30f8 	ldr.w	r3, [r7, #248]	; 0xf8
 8008f7e:	430b      	orrs	r3, r1
 8008f80:	60d3      	str	r3, [r2, #12]
             (uint32_t)(USART_CR1_M | USART_CR1_PCE | USART_CR1_PS | USART_CR1_TE | USART_CR1_RE | USART_CR1_OVER8),
             tmpreg);

  /*-------------------------- USART CR3 Configuration -----------------------*/
  /* Configure the UART HFC: Set CTSE and RTSE bits according to huart->Init.HwFlowCtl value */
  MODIFY_REG(huart->Instance->CR3, (USART_CR3_RTSE | USART_CR3_CTSE), huart->Init.HwFlowCtl);
 8008f82:	f8d7 30f4 	ldr.w	r3, [r7, #244]	; 0xf4
 8008f86:	681b      	ldr	r3, [r3, #0]
 8008f88:	695b      	ldr	r3, [r3, #20]
 8008f8a:	f423 7040 	bic.w	r0, r3, #768	; 0x300
 8008f8e:	f8d7 30f4 	ldr.w	r3, [r7, #244]	; 0xf4
 8008f92:	6999      	ldr	r1, [r3, #24]
 8008f94:	f8d7 30f4 	ldr.w	r3, [r7, #244]	; 0xf4
 8008f98:	681a      	ldr	r2, [r3, #0]
 8008f9a:	ea40 0301 	orr.w	r3, r0, r1
 8008f9e:	6153      	str	r3, [r2, #20]
    if ((huart->Instance == USART1) || (huart->Instance == USART6) || (huart->Instance == UART9) || (huart->Instance == UART10))
    {
      pclk = HAL_RCC_GetPCLK2Freq();
    }
#elif defined(USART6)
    if ((huart->Instance == USART1) || (huart->Instance == USART6))
 8008fa0:	f8d7 30f4 	ldr.w	r3, [r7, #244]	; 0xf4
 8008fa4:	681a      	ldr	r2, [r3, #0]
 8008fa6:	4b8f      	ldr	r3, [pc, #572]	; (80091e4 <UART_SetConfig+0x2cc>)
 8008fa8:	429a      	cmp	r2, r3
 8008faa:	d005      	beq.n	8008fb8 <UART_SetConfig+0xa0>
 8008fac:	f8d7 30f4 	ldr.w	r3, [r7, #244]	; 0xf4
 8008fb0:	681a      	ldr	r2, [r3, #0]
 8008fb2:	4b8d      	ldr	r3, [pc, #564]	; (80091e8 <UART_SetConfig+0x2d0>)
 8008fb4:	429a      	cmp	r2, r3
 8008fb6:	d104      	bne.n	8008fc2 <UART_SetConfig+0xaa>
    {
      pclk = HAL_RCC_GetPCLK2Freq();
 8008fb8:	f7fd fab0 	bl	800651c <HAL_RCC_GetPCLK2Freq>
 8008fbc:	f8c7 00fc 	str.w	r0, [r7, #252]	; 0xfc
 8008fc0:	e003      	b.n	8008fca <UART_SetConfig+0xb2>
      pclk = HAL_RCC_GetPCLK2Freq();
    }
#endif /* USART6 */
    else
    {
      pclk = HAL_RCC_GetPCLK1Freq();
 8008fc2:	f7fd fa97 	bl	80064f4 <HAL_RCC_GetPCLK1Freq>
 8008fc6:	f8c7 00fc 	str.w	r0, [r7, #252]	; 0xfc
    }
  /*-------------------------- USART BRR Configuration ---------------------*/
  if (huart->Init.OverSampling == UART_OVERSAMPLING_8)
 8008fca:	f8d7 30f4 	ldr.w	r3, [r7, #244]	; 0xf4
 8008fce:	69db      	ldr	r3, [r3, #28]
 8008fd0:	f5b3 4f00 	cmp.w	r3, #32768	; 0x8000
 8008fd4:	f040 810c 	bne.w	80091f0 <UART_SetConfig+0x2d8>
  {
    huart->Instance->BRR = UART_BRR_SAMPLING8(pclk, huart->Init.BaudRate);
 8008fd8:	f8d7 30fc 	ldr.w	r3, [r7, #252]	; 0xfc
 8008fdc:	2200      	movs	r2, #0
 8008fde:	f8c7 30e8 	str.w	r3, [r7, #232]	; 0xe8
 8008fe2:	f8c7 20ec 	str.w	r2, [r7, #236]	; 0xec
 8008fe6:	e9d7 453a 	ldrd	r4, r5, [r7, #232]	; 0xe8
 8008fea:	4622      	mov	r2, r4
 8008fec:	462b      	mov	r3, r5
 8008fee:	1891      	adds	r1, r2, r2
 8008ff0:	65b9      	str	r1, [r7, #88]	; 0x58
 8008ff2:	415b      	adcs	r3, r3
 8008ff4:	65fb      	str	r3, [r7, #92]	; 0x5c
 8008ff6:	e9d7 2316 	ldrd	r2, r3, [r7, #88]	; 0x58
 8008ffa:	4621      	mov	r1, r4
 8008ffc:	eb12 0801 	adds.w	r8, r2, r1
 8009000:	4629      	mov	r1, r5
 8009002:	eb43 0901 	adc.w	r9, r3, r1
 8009006:	f04f 0200 	mov.w	r2, #0
 800900a:	f04f 0300 	mov.w	r3, #0
 800900e:	ea4f 03c9 	mov.w	r3, r9, lsl #3
 8009012:	ea43 7358 	orr.w	r3, r3, r8, lsr #29
 8009016:	ea4f 02c8 	mov.w	r2, r8, lsl #3
 800901a:	4690      	mov	r8, r2
 800901c:	4699      	mov	r9, r3
 800901e:	4623      	mov	r3, r4
 8009020:	eb18 0303 	adds.w	r3, r8, r3
 8009024:	f8c7 30e0 	str.w	r3, [r7, #224]	; 0xe0
 8009028:	462b      	mov	r3, r5
 800902a:	eb49 0303 	adc.w	r3, r9, r3
 800902e:	f8c7 30e4 	str.w	r3, [r7, #228]	; 0xe4
 8009032:	f8d7 30f4 	ldr.w	r3, [r7, #244]	; 0xf4
 8009036:	685b      	ldr	r3, [r3, #4]
 8009038:	2200      	movs	r2, #0
 800903a:	f8c7 30d8 	str.w	r3, [r7, #216]	; 0xd8
 800903e:	f8c7 20dc 	str.w	r2, [r7, #220]	; 0xdc
 8009042:	e9d7 1236 	ldrd	r1, r2, [r7, #216]	; 0xd8
 8009046:	460b      	mov	r3, r1
 8009048:	18db      	adds	r3, r3, r3
 800904a:	653b      	str	r3, [r7, #80]	; 0x50
 800904c:	4613      	mov	r3, r2
 800904e:	eb42 0303 	adc.w	r3, r2, r3
 8009052:	657b      	str	r3, [r7, #84]	; 0x54
 8009054:	e9d7 2314 	ldrd	r2, r3, [r7, #80]	; 0x50
 8009058:	e9d7 0138 	ldrd	r0, r1, [r7, #224]	; 0xe0
 800905c:	f7f7 f8ce 	bl	80001fc <__aeabi_uldivmod>
 8009060:	4602      	mov	r2, r0
 8009062:	460b      	mov	r3, r1
 8009064:	4b61      	ldr	r3, [pc, #388]	; (80091ec <UART_SetConfig+0x2d4>)
 8009066:	fba3 2302 	umull	r2, r3, r3, r2
 800906a:	095b      	lsrs	r3, r3, #5
 800906c:	011c      	lsls	r4, r3, #4
 800906e:	f8d7 30fc 	ldr.w	r3, [r7, #252]	; 0xfc
 8009072:	2200      	movs	r2, #0
 8009074:	f8c7 30d0 	str.w	r3, [r7, #208]	; 0xd0
 8009078:	f8c7 20d4 	str.w	r2, [r7, #212]	; 0xd4
 800907c:	e9d7 8934 	ldrd	r8, r9, [r7, #208]	; 0xd0
 8009080:	4642      	mov	r2, r8
 8009082:	464b      	mov	r3, r9
 8009084:	1891      	adds	r1, r2, r2
 8009086:	64b9      	str	r1, [r7, #72]	; 0x48
 8009088:	415b      	adcs	r3, r3
 800908a:	64fb      	str	r3, [r7, #76]	; 0x4c
 800908c:	e9d7 2312 	ldrd	r2, r3, [r7, #72]	; 0x48
 8009090:	4641      	mov	r1, r8
 8009092:	eb12 0a01 	adds.w	sl, r2, r1
 8009096:	4649      	mov	r1, r9
 8009098:	eb43 0b01 	adc.w	fp, r3, r1
 800909c:	f04f 0200 	mov.w	r2, #0
 80090a0:	f04f 0300 	mov.w	r3, #0
 80090a4:	ea4f 03cb 	mov.w	r3, fp, lsl #3
 80090a8:	ea43 735a 	orr.w	r3, r3, sl, lsr #29
 80090ac:	ea4f 02ca 	mov.w	r2, sl, lsl #3
 80090b0:	4692      	mov	sl, r2
 80090b2:	469b      	mov	fp, r3
 80090b4:	4643      	mov	r3, r8
 80090b6:	eb1a 0303 	adds.w	r3, sl, r3
 80090ba:	f8c7 30c8 	str.w	r3, [r7, #200]	; 0xc8
 80090be:	464b      	mov	r3, r9
 80090c0:	eb4b 0303 	adc.w	r3, fp, r3
 80090c4:	f8c7 30cc 	str.w	r3, [r7, #204]	; 0xcc
 80090c8:	f8d7 30f4 	ldr.w	r3, [r7, #244]	; 0xf4
 80090cc:	685b      	ldr	r3, [r3, #4]
 80090ce:	2200      	movs	r2, #0
 80090d0:	f8c7 30c0 	str.w	r3, [r7, #192]	; 0xc0
 80090d4:	f8c7 20c4 	str.w	r2, [r7, #196]	; 0xc4
 80090d8:	e9d7 1230 	ldrd	r1, r2, [r7, #192]	; 0xc0
 80090dc:	460b      	mov	r3, r1
 80090de:	18db      	adds	r3, r3, r3
 80090e0:	643b      	str	r3, [r7, #64]	; 0x40
 80090e2:	4613      	mov	r3, r2
 80090e4:	eb42 0303 	adc.w	r3, r2, r3
 80090e8:	647b      	str	r3, [r7, #68]	; 0x44
 80090ea:	e9d7 2310 	ldrd	r2, r3, [r7, #64]	; 0x40
 80090ee:	e9d7 0132 	ldrd	r0, r1, [r7, #200]	; 0xc8
 80090f2:	f7f7 f883 	bl	80001fc <__aeabi_uldivmod>
 80090f6:	4602      	mov	r2, r0
 80090f8:	460b      	mov	r3, r1
 80090fa:	4611      	mov	r1, r2
 80090fc:	4b3b      	ldr	r3, [pc, #236]	; (80091ec <UART_SetConfig+0x2d4>)
 80090fe:	fba3 2301 	umull	r2, r3, r3, r1
 8009102:	095b      	lsrs	r3, r3, #5
 8009104:	2264      	movs	r2, #100	; 0x64
 8009106:	fb02 f303 	mul.w	r3, r2, r3
 800910a:	1acb      	subs	r3, r1, r3
 800910c:	00db      	lsls	r3, r3, #3
 800910e:	f103 0232 	add.w	r2, r3, #50	; 0x32
 8009112:	4b36      	ldr	r3, [pc, #216]	; (80091ec <UART_SetConfig+0x2d4>)
 8009114:	fba3 2302 	umull	r2, r3, r3, r2
 8009118:	095b      	lsrs	r3, r3, #5
 800911a:	005b      	lsls	r3, r3, #1
 800911c:	f403 73f8 	and.w	r3, r3, #496	; 0x1f0
 8009120:	441c      	add	r4, r3
 8009122:	f8d7 30fc 	ldr.w	r3, [r7, #252]	; 0xfc
 8009126:	2200      	movs	r2, #0
 8009128:	f8c7 30b8 	str.w	r3, [r7, #184]	; 0xb8
 800912c:	f8c7 20bc 	str.w	r2, [r7, #188]	; 0xbc
 8009130:	e9d7 892e 	ldrd	r8, r9, [r7, #184]	; 0xb8
 8009134:	4642      	mov	r2, r8
 8009136:	464b      	mov	r3, r9
 8009138:	1891      	adds	r1, r2, r2
 800913a:	63b9      	str	r1, [r7, #56]	; 0x38
 800913c:	415b      	adcs	r3, r3
 800913e:	63fb      	str	r3, [r7, #60]	; 0x3c
 8009140:	e9d7 230e 	ldrd	r2, r3, [r7, #56]	; 0x38
 8009144:	4641      	mov	r1, r8
 8009146:	1851      	adds	r1, r2, r1
 8009148:	6339      	str	r1, [r7, #48]	; 0x30
 800914a:	4649      	mov	r1, r9
 800914c:	414b      	adcs	r3, r1
 800914e:	637b      	str	r3, [r7, #52]	; 0x34
 8009150:	f04f 0200 	mov.w	r2, #0
 8009154:	f04f 0300 	mov.w	r3, #0
 8009158:	e9d7 ab0c 	ldrd	sl, fp, [r7, #48]	; 0x30
 800915c:	4659      	mov	r1, fp
 800915e:	00cb      	lsls	r3, r1, #3
 8009160:	4651      	mov	r1, sl
 8009162:	ea43 7351 	orr.w	r3, r3, r1, lsr #29
 8009166:	4651      	mov	r1, sl
 8009168:	00ca      	lsls	r2, r1, #3
 800916a:	4610      	mov	r0, r2
 800916c:	4619      	mov	r1, r3
 800916e:	4603      	mov	r3, r0
 8009170:	4642      	mov	r2, r8
 8009172:	189b      	adds	r3, r3, r2
 8009174:	f8c7 30b0 	str.w	r3, [r7, #176]	; 0xb0
 8009178:	464b      	mov	r3, r9
 800917a:	460a      	mov	r2, r1
 800917c:	eb42 0303 	adc.w	r3, r2, r3
 8009180:	f8c7 30b4 	str.w	r3, [r7, #180]	; 0xb4
 8009184:	f8d7 30f4 	ldr.w	r3, [r7, #244]	; 0xf4
 8009188:	685b      	ldr	r3, [r3, #4]
 800918a:	2200      	movs	r2, #0
 800918c:	f8c7 30a8 	str.w	r3, [r7, #168]	; 0xa8
 8009190:	f8c7 20ac 	str.w	r2, [r7, #172]	; 0xac
 8009194:	e9d7 122a 	ldrd	r1, r2, [r7, #168]	; 0xa8
 8009198:	460b      	mov	r3, r1
 800919a:	18db      	adds	r3, r3, r3
 800919c:	62bb      	str	r3, [r7, #40]	; 0x28
 800919e:	4613      	mov	r3, r2
 80091a0:	eb42 0303 	adc.w	r3, r2, r3
 80091a4:	62fb      	str	r3, [r7, #44]	; 0x2c
 80091a6:	e9d7 230a 	ldrd	r2, r3, [r7, #40]	; 0x28
 80091aa:	e9d7 012c 	ldrd	r0, r1, [r7, #176]	; 0xb0
 80091ae:	f7f7 f825 	bl	80001fc <__aeabi_uldivmod>
 80091b2:	4602      	mov	r2, r0
 80091b4:	460b      	mov	r3, r1
 80091b6:	4b0d      	ldr	r3, [pc, #52]	; (80091ec <UART_SetConfig+0x2d4>)
 80091b8:	fba3 1302 	umull	r1, r3, r3, r2
 80091bc:	095b      	lsrs	r3, r3, #5
 80091be:	2164      	movs	r1, #100	; 0x64
 80091c0:	fb01 f303 	mul.w	r3, r1, r3
 80091c4:	1ad3      	subs	r3, r2, r3
 80091c6:	00db      	lsls	r3, r3, #3
 80091c8:	3332      	adds	r3, #50	; 0x32
 80091ca:	4a08      	ldr	r2, [pc, #32]	; (80091ec <UART_SetConfig+0x2d4>)
 80091cc:	fba2 2303 	umull	r2, r3, r2, r3
 80091d0:	095b      	lsrs	r3, r3, #5
 80091d2:	f003 0207 	and.w	r2, r3, #7
 80091d6:	f8d7 30f4 	ldr.w	r3, [r7, #244]	; 0xf4
 80091da:	681b      	ldr	r3, [r3, #0]
 80091dc:	4422      	add	r2, r4
 80091de:	609a      	str	r2, [r3, #8]
  }
  else
  {
    huart->Instance->BRR = UART_BRR_SAMPLING16(pclk, huart->Init.BaudRate);
  }
}
 80091e0:	e106      	b.n	80093f0 <UART_SetConfig+0x4d8>
 80091e2:	bf00      	nop
 80091e4:	40011000 	.word	0x40011000
 80091e8:	40011400 	.word	0x40011400
 80091ec:	51eb851f 	.word	0x51eb851f
    huart->Instance->BRR = UART_BRR_SAMPLING16(pclk, huart->Init.BaudRate);
 80091f0:	f8d7 30fc 	ldr.w	r3, [r7, #252]	; 0xfc
 80091f4:	2200      	movs	r2, #0
 80091f6:	f8c7 30a0 	str.w	r3, [r7, #160]	; 0xa0
 80091fa:	f8c7 20a4 	str.w	r2, [r7, #164]	; 0xa4
 80091fe:	e9d7 8928 	ldrd	r8, r9, [r7, #160]	; 0xa0
 8009202:	4642      	mov	r2, r8
 8009204:	464b      	mov	r3, r9
 8009206:	1891      	adds	r1, r2, r2
 8009208:	6239      	str	r1, [r7, #32]
 800920a:	415b      	adcs	r3, r3
 800920c:	627b      	str	r3, [r7, #36]	; 0x24
 800920e:	e9d7 2308 	ldrd	r2, r3, [r7, #32]
 8009212:	4641      	mov	r1, r8
 8009214:	1854      	adds	r4, r2, r1
 8009216:	4649      	mov	r1, r9
 8009218:	eb43 0501 	adc.w	r5, r3, r1
 800921c:	f04f 0200 	mov.w	r2, #0
 8009220:	f04f 0300 	mov.w	r3, #0
 8009224:	00eb      	lsls	r3, r5, #3
 8009226:	ea43 7354 	orr.w	r3, r3, r4, lsr #29
 800922a:	00e2      	lsls	r2, r4, #3
 800922c:	4614      	mov	r4, r2
 800922e:	461d      	mov	r5, r3
 8009230:	4643      	mov	r3, r8
 8009232:	18e3      	adds	r3, r4, r3
 8009234:	f8c7 3098 	str.w	r3, [r7, #152]	; 0x98
 8009238:	464b      	mov	r3, r9
 800923a:	eb45 0303 	adc.w	r3, r5, r3
 800923e:	f8c7 309c 	str.w	r3, [r7, #156]	; 0x9c
 8009242:	f8d7 30f4 	ldr.w	r3, [r7, #244]	; 0xf4
 8009246:	685b      	ldr	r3, [r3, #4]
 8009248:	2200      	movs	r2, #0
 800924a:	f8c7 3090 	str.w	r3, [r7, #144]	; 0x90
 800924e:	f8c7 2094 	str.w	r2, [r7, #148]	; 0x94
 8009252:	f04f 0200 	mov.w	r2, #0
 8009256:	f04f 0300 	mov.w	r3, #0
 800925a:	e9d7 4524 	ldrd	r4, r5, [r7, #144]	; 0x90
 800925e:	4629      	mov	r1, r5
 8009260:	008b      	lsls	r3, r1, #2
 8009262:	4621      	mov	r1, r4
 8009264:	ea43 7391 	orr.w	r3, r3, r1, lsr #30
 8009268:	4621      	mov	r1, r4
 800926a:	008a      	lsls	r2, r1, #2
 800926c:	e9d7 0126 	ldrd	r0, r1, [r7, #152]	; 0x98
 8009270:	f7f6 ffc4 	bl	80001fc <__aeabi_uldivmod>
 8009274:	4602      	mov	r2, r0
 8009276:	460b      	mov	r3, r1
 8009278:	4b60      	ldr	r3, [pc, #384]	; (80093fc <UART_SetConfig+0x4e4>)
 800927a:	fba3 2302 	umull	r2, r3, r3, r2
 800927e:	095b      	lsrs	r3, r3, #5
 8009280:	011c      	lsls	r4, r3, #4
 8009282:	f8d7 30fc 	ldr.w	r3, [r7, #252]	; 0xfc
 8009286:	2200      	movs	r2, #0
 8009288:	f8c7 3088 	str.w	r3, [r7, #136]	; 0x88
 800928c:	f8c7 208c 	str.w	r2, [r7, #140]	; 0x8c
 8009290:	e9d7 8922 	ldrd	r8, r9, [r7, #136]	; 0x88
 8009294:	4642      	mov	r2, r8
 8009296:	464b      	mov	r3, r9
 8009298:	1891      	adds	r1, r2, r2
 800929a:	61b9      	str	r1, [r7, #24]
 800929c:	415b      	adcs	r3, r3
 800929e:	61fb      	str	r3, [r7, #28]
 80092a0:	e9d7 2306 	ldrd	r2, r3, [r7, #24]
 80092a4:	4641      	mov	r1, r8
 80092a6:	1851      	adds	r1, r2, r1
 80092a8:	6139      	str	r1, [r7, #16]
 80092aa:	4649      	mov	r1, r9
 80092ac:	414b      	adcs	r3, r1
 80092ae:	617b      	str	r3, [r7, #20]
 80092b0:	f04f 0200 	mov.w	r2, #0
 80092b4:	f04f 0300 	mov.w	r3, #0
 80092b8:	e9d7 ab04 	ldrd	sl, fp, [r7, #16]
 80092bc:	4659      	mov	r1, fp
 80092be:	00cb      	lsls	r3, r1, #3
 80092c0:	4651      	mov	r1, sl
 80092c2:	ea43 7351 	orr.w	r3, r3, r1, lsr #29
 80092c6:	4651      	mov	r1, sl
 80092c8:	00ca      	lsls	r2, r1, #3
 80092ca:	4610      	mov	r0, r2
 80092cc:	4619      	mov	r1, r3
 80092ce:	4603      	mov	r3, r0
 80092d0:	4642      	mov	r2, r8
 80092d2:	189b      	adds	r3, r3, r2
 80092d4:	f8c7 3080 	str.w	r3, [r7, #128]	; 0x80
 80092d8:	464b      	mov	r3, r9
 80092da:	460a      	mov	r2, r1
 80092dc:	eb42 0303 	adc.w	r3, r2, r3
 80092e0:	f8c7 3084 	str.w	r3, [r7, #132]	; 0x84
 80092e4:	f8d7 30f4 	ldr.w	r3, [r7, #244]	; 0xf4
 80092e8:	685b      	ldr	r3, [r3, #4]
 80092ea:	2200      	movs	r2, #0
 80092ec:	67bb      	str	r3, [r7, #120]	; 0x78
 80092ee:	67fa      	str	r2, [r7, #124]	; 0x7c
 80092f0:	f04f 0200 	mov.w	r2, #0
 80092f4:	f04f 0300 	mov.w	r3, #0
 80092f8:	e9d7 891e 	ldrd	r8, r9, [r7, #120]	; 0x78
 80092fc:	4649      	mov	r1, r9
 80092fe:	008b      	lsls	r3, r1, #2
 8009300:	4641      	mov	r1, r8
 8009302:	ea43 7391 	orr.w	r3, r3, r1, lsr #30
 8009306:	4641      	mov	r1, r8
 8009308:	008a      	lsls	r2, r1, #2
 800930a:	e9d7 0120 	ldrd	r0, r1, [r7, #128]	; 0x80
 800930e:	f7f6 ff75 	bl	80001fc <__aeabi_uldivmod>
 8009312:	4602      	mov	r2, r0
 8009314:	460b      	mov	r3, r1
 8009316:	4611      	mov	r1, r2
 8009318:	4b38      	ldr	r3, [pc, #224]	; (80093fc <UART_SetConfig+0x4e4>)
 800931a:	fba3 2301 	umull	r2, r3, r3, r1
 800931e:	095b      	lsrs	r3, r3, #5
 8009320:	2264      	movs	r2, #100	; 0x64
 8009322:	fb02 f303 	mul.w	r3, r2, r3
 8009326:	1acb      	subs	r3, r1, r3
 8009328:	011b      	lsls	r3, r3, #4
 800932a:	3332      	adds	r3, #50	; 0x32
 800932c:	4a33      	ldr	r2, [pc, #204]	; (80093fc <UART_SetConfig+0x4e4>)
 800932e:	fba2 2303 	umull	r2, r3, r2, r3
 8009332:	095b      	lsrs	r3, r3, #5
 8009334:	f003 03f0 	and.w	r3, r3, #240	; 0xf0
 8009338:	441c      	add	r4, r3
 800933a:	f8d7 30fc 	ldr.w	r3, [r7, #252]	; 0xfc
 800933e:	2200      	movs	r2, #0
 8009340:	673b      	str	r3, [r7, #112]	; 0x70
 8009342:	677a      	str	r2, [r7, #116]	; 0x74
 8009344:	e9d7 891c 	ldrd	r8, r9, [r7, #112]	; 0x70
 8009348:	4642      	mov	r2, r8
 800934a:	464b      	mov	r3, r9
 800934c:	1891      	adds	r1, r2, r2
 800934e:	60b9      	str	r1, [r7, #8]
 8009350:	415b      	adcs	r3, r3
 8009352:	60fb      	str	r3, [r7, #12]
 8009354:	e9d7 2302 	ldrd	r2, r3, [r7, #8]
 8009358:	4641      	mov	r1, r8
 800935a:	1851      	adds	r1, r2, r1
 800935c:	6039      	str	r1, [r7, #0]
 800935e:	4649      	mov	r1, r9
 8009360:	414b      	adcs	r3, r1
 8009362:	607b      	str	r3, [r7, #4]
 8009364:	f04f 0200 	mov.w	r2, #0
 8009368:	f04f 0300 	mov.w	r3, #0
 800936c:	e9d7 ab00 	ldrd	sl, fp, [r7]
 8009370:	4659      	mov	r1, fp
 8009372:	00cb      	lsls	r3, r1, #3
 8009374:	4651      	mov	r1, sl
 8009376:	ea43 7351 	orr.w	r3, r3, r1, lsr #29
 800937a:	4651      	mov	r1, sl
 800937c:	00ca      	lsls	r2, r1, #3
 800937e:	4610      	mov	r0, r2
 8009380:	4619      	mov	r1, r3
 8009382:	4603      	mov	r3, r0
 8009384:	4642      	mov	r2, r8
 8009386:	189b      	adds	r3, r3, r2
 8009388:	66bb      	str	r3, [r7, #104]	; 0x68
 800938a:	464b      	mov	r3, r9
 800938c:	460a      	mov	r2, r1
 800938e:	eb42 0303 	adc.w	r3, r2, r3
 8009392:	66fb      	str	r3, [r7, #108]	; 0x6c
 8009394:	f8d7 30f4 	ldr.w	r3, [r7, #244]	; 0xf4
 8009398:	685b      	ldr	r3, [r3, #4]
 800939a:	2200      	movs	r2, #0
 800939c:	663b      	str	r3, [r7, #96]	; 0x60
 800939e:	667a      	str	r2, [r7, #100]	; 0x64
 80093a0:	f04f 0200 	mov.w	r2, #0
 80093a4:	f04f 0300 	mov.w	r3, #0
 80093a8:	e9d7 8918 	ldrd	r8, r9, [r7, #96]	; 0x60
 80093ac:	4649      	mov	r1, r9
 80093ae:	008b      	lsls	r3, r1, #2
 80093b0:	4641      	mov	r1, r8
 80093b2:	ea43 7391 	orr.w	r3, r3, r1, lsr #30
 80093b6:	4641      	mov	r1, r8
 80093b8:	008a      	lsls	r2, r1, #2
 80093ba:	e9d7 011a 	ldrd	r0, r1, [r7, #104]	; 0x68
 80093be:	f7f6 ff1d 	bl	80001fc <__aeabi_uldivmod>
 80093c2:	4602      	mov	r2, r0
 80093c4:	460b      	mov	r3, r1
 80093c6:	4b0d      	ldr	r3, [pc, #52]	; (80093fc <UART_SetConfig+0x4e4>)
 80093c8:	fba3 1302 	umull	r1, r3, r3, r2
 80093cc:	095b      	lsrs	r3, r3, #5
 80093ce:	2164      	movs	r1, #100	; 0x64
 80093d0:	fb01 f303 	mul.w	r3, r1, r3
 80093d4:	1ad3      	subs	r3, r2, r3
 80093d6:	011b      	lsls	r3, r3, #4
 80093d8:	3332      	adds	r3, #50	; 0x32
 80093da:	4a08      	ldr	r2, [pc, #32]	; (80093fc <UART_SetConfig+0x4e4>)
 80093dc:	fba2 2303 	umull	r2, r3, r2, r3
 80093e0:	095b      	lsrs	r3, r3, #5
 80093e2:	f003 020f 	and.w	r2, r3, #15
 80093e6:	f8d7 30f4 	ldr.w	r3, [r7, #244]	; 0xf4
 80093ea:	681b      	ldr	r3, [r3, #0]
 80093ec:	4422      	add	r2, r4
 80093ee:	609a      	str	r2, [r3, #8]
}
 80093f0:	bf00      	nop
 80093f2:	f507 7780 	add.w	r7, r7, #256	; 0x100
 80093f6:	46bd      	mov	sp, r7
 80093f8:	e8bd 8fb0 	ldmia.w	sp!, {r4, r5, r7, r8, r9, sl, fp, pc}
 80093fc:	51eb851f 	.word	0x51eb851f

08009400 <memset>:
 8009400:	4402      	add	r2, r0
 8009402:	4603      	mov	r3, r0
 8009404:	4293      	cmp	r3, r2
 8009406:	d100      	bne.n	800940a <memset+0xa>
 8009408:	4770      	bx	lr
 800940a:	f803 1b01 	strb.w	r1, [r3], #1
 800940e:	e7f9      	b.n	8009404 <memset+0x4>

08009410 <__libc_init_array>:
 8009410:	b570      	push	{r4, r5, r6, lr}
 8009412:	4d0d      	ldr	r5, [pc, #52]	; (8009448 <__libc_init_array+0x38>)
 8009414:	4c0d      	ldr	r4, [pc, #52]	; (800944c <__libc_init_array+0x3c>)
 8009416:	1b64      	subs	r4, r4, r5
 8009418:	10a4      	asrs	r4, r4, #2
 800941a:	2600      	movs	r6, #0
 800941c:	42a6      	cmp	r6, r4
 800941e:	d109      	bne.n	8009434 <__libc_init_array+0x24>
 8009420:	4d0b      	ldr	r5, [pc, #44]	; (8009450 <__libc_init_array+0x40>)
 8009422:	4c0c      	ldr	r4, [pc, #48]	; (8009454 <__libc_init_array+0x44>)
 8009424:	f000 f818 	bl	8009458 <_init>
 8009428:	1b64      	subs	r4, r4, r5
 800942a:	10a4      	asrs	r4, r4, #2
 800942c:	2600      	movs	r6, #0
 800942e:	42a6      	cmp	r6, r4
 8009430:	d105      	bne.n	800943e <__libc_init_array+0x2e>
 8009432:	bd70      	pop	{r4, r5, r6, pc}
 8009434:	f855 3b04 	ldr.w	r3, [r5], #4
 8009438:	4798      	blx	r3
 800943a:	3601      	adds	r6, #1
 800943c:	e7ee      	b.n	800941c <__libc_init_array+0xc>
 800943e:	f855 3b04 	ldr.w	r3, [r5], #4
 8009442:	4798      	blx	r3
 8009444:	3601      	adds	r6, #1
 8009446:	e7f2      	b.n	800942e <__libc_init_array+0x1e>
 8009448:	08009530 	.word	0x08009530
 800944c:	08009530 	.word	0x08009530
 8009450:	08009530 	.word	0x08009530
 8009454:	08009534 	.word	0x08009534

08009458 <_init>:
 8009458:	b5f8      	push	{r3, r4, r5, r6, r7, lr}
 800945a:	bf00      	nop
 800945c:	bcf8      	pop	{r3, r4, r5, r6, r7}
 800945e:	bc08      	pop	{r3}
 8009460:	469e      	mov	lr, r3
 8009462:	4770      	bx	lr

08009464 <_fini>:
 8009464:	b5f8      	push	{r3, r4, r5, r6, r7, lr}
 8009466:	bf00      	nop
 8009468:	bcf8      	pop	{r3, r4, r5, r6, r7}
 800946a:	bc08      	pop	{r3}
 800946c:	469e      	mov	lr, r3
 800946e:	4770      	bx	lr
