
AuroraV_Payload_F439.elf:     file format elf32-littlearm

Sections:
Idx Name          Size      VMA       LMA       File off  Algn
  0 .isr_vector   000001ac  08000000  08000000  00010000  2**0
                  CONTENTS, ALLOC, LOAD, READONLY, DATA
  1 .text         00007210  080001ac  080001ac  000101ac  2**2
                  CONTENTS, ALLOC, LOAD, READONLY, CODE
  2 .rodata       000000b0  080073bc  080073bc  000173bc  2**2
                  CONTENTS, ALLOC, LOAD, READONLY, DATA
  3 .ARM.extab    00000000  0800746c  0800746c  00020024  2**0
                  CONTENTS
  4 .ARM          00000008  0800746c  0800746c  0001746c  2**2
                  CONTENTS, ALLOC, LOAD, READONLY, DATA
  5 .preinit_array 00000000  08007474  08007474  00020024  2**0
                  CONTENTS, ALLOC, LOAD, DATA
  6 .init_array   00000004  08007474  08007474  00017474  2**2
                  CONTENTS, ALLOC, LOAD, DATA
  7 .fini_array   00000004  08007478  08007478  00017478  2**2
                  CONTENTS, ALLOC, LOAD, DATA
  8 .data         00000024  20000000  0800747c  00020000  2**2
                  CONTENTS, ALLOC, LOAD, DATA
  9 .ccmram       00000000  10000000  10000000  00020024  2**0
                  CONTENTS
 10 .bss          0000049c  20000024  20000024  00020024  2**2
                  ALLOC
 11 ._user_heap_stack 00000600  200004c0  200004c0  00020024  2**0
                  ALLOC
 12 .ARM.attributes 00000030  00000000  00000000  00020024  2**0
                  CONTENTS, READONLY
 13 .comment      00000043  00000000  00000000  00020054  2**0
                  CONTENTS, READONLY
 14 .debug_info   00019b51  00000000  00000000  00020097  2**0
                  CONTENTS, READONLY, DEBUGGING, OCTETS
 15 .debug_abbrev 000039ab  00000000  00000000  00039be8  2**0
                  CONTENTS, READONLY, DEBUGGING, OCTETS
 16 .debug_aranges 00001500  00000000  00000000  0003d598  2**3
                  CONTENTS, READONLY, DEBUGGING, OCTETS
 17 .debug_rnglists 0000105c  00000000  00000000  0003ea98  2**0
                  CONTENTS, READONLY, DEBUGGING, OCTETS
 18 .debug_macro  000273e4  00000000  00000000  0003faf4  2**0
                  CONTENTS, READONLY, DEBUGGING, OCTETS
 19 .debug_line   0001b9c0  00000000  00000000  00066ed8  2**0
                  CONTENTS, READONLY, DEBUGGING, OCTETS
 20 .debug_str    000e71ab  00000000  00000000  00082898  2**0
                  CONTENTS, READONLY, DEBUGGING, OCTETS
 21 .debug_frame  0000573c  00000000  00000000  00169a44  2**2
                  CONTENTS, READONLY, DEBUGGING, OCTETS
 22 .debug_line_str 00000060  00000000  00000000  0016f180  2**0
                  CONTENTS, READONLY, DEBUGGING, OCTETS

Disassembly of section .text:

080001ac <__do_global_dtors_aux>:
 80001ac:	b510      	push	{r4, lr}
 80001ae:	4c05      	ldr	r4, [pc, #20]	; (80001c4 <__do_global_dtors_aux+0x18>)
 80001b0:	7823      	ldrb	r3, [r4, #0]
 80001b2:	b933      	cbnz	r3, 80001c2 <__do_global_dtors_aux+0x16>
 80001b4:	4b04      	ldr	r3, [pc, #16]	; (80001c8 <__do_global_dtors_aux+0x1c>)
 80001b6:	b113      	cbz	r3, 80001be <__do_global_dtors_aux+0x12>
 80001b8:	4804      	ldr	r0, [pc, #16]	; (80001cc <__do_global_dtors_aux+0x20>)
 80001ba:	f3af 8000 	nop.w
 80001be:	2301      	movs	r3, #1
 80001c0:	7023      	strb	r3, [r4, #0]
 80001c2:	bd10      	pop	{r4, pc}
 80001c4:	20000024 	.word	0x20000024
 80001c8:	00000000 	.word	0x00000000
 80001cc:	080073a4 	.word	0x080073a4

080001d0 <frame_dummy>:
 80001d0:	b508      	push	{r3, lr}
 80001d2:	4b03      	ldr	r3, [pc, #12]	; (80001e0 <frame_dummy+0x10>)
 80001d4:	b11b      	cbz	r3, 80001de <frame_dummy+0xe>
 80001d6:	4903      	ldr	r1, [pc, #12]	; (80001e4 <frame_dummy+0x14>)
 80001d8:	4803      	ldr	r0, [pc, #12]	; (80001e8 <frame_dummy+0x18>)
 80001da:	f3af 8000 	nop.w
 80001de:	bd08      	pop	{r3, pc}
 80001e0:	00000000 	.word	0x00000000
 80001e4:	20000028 	.word	0x20000028
 80001e8:	080073a4 	.word	0x080073a4

080001ec <strlen>:
 80001ec:	4603      	mov	r3, r0
 80001ee:	f813 2b01 	ldrb.w	r2, [r3], #1
 80001f2:	2a00      	cmp	r2, #0
 80001f4:	d1fb      	bne.n	80001ee <strlen+0x2>
 80001f6:	1a18      	subs	r0, r3, r0
 80001f8:	3801      	subs	r0, #1
 80001fa:	4770      	bx	lr

080001fc <__aeabi_uldivmod>:
 80001fc:	b953      	cbnz	r3, 8000214 <__aeabi_uldivmod+0x18>
 80001fe:	b94a      	cbnz	r2, 8000214 <__aeabi_uldivmod+0x18>
 8000200:	2900      	cmp	r1, #0
 8000202:	bf08      	it	eq
 8000204:	2800      	cmpeq	r0, #0
 8000206:	bf1c      	itt	ne
 8000208:	f04f 31ff 	movne.w	r1, #4294967295	; 0xffffffff
 800020c:	f04f 30ff 	movne.w	r0, #4294967295	; 0xffffffff
 8000210:	f000 b970 	b.w	80004f4 <__aeabi_idiv0>
 8000214:	f1ad 0c08 	sub.w	ip, sp, #8
 8000218:	e96d ce04 	strd	ip, lr, [sp, #-16]!
 800021c:	f000 f806 	bl	800022c <__udivmoddi4>
 8000220:	f8dd e004 	ldr.w	lr, [sp, #4]
 8000224:	e9dd 2302 	ldrd	r2, r3, [sp, #8]
 8000228:	b004      	add	sp, #16
 800022a:	4770      	bx	lr

0800022c <__udivmoddi4>:
 800022c:	e92d 47f0 	stmdb	sp!, {r4, r5, r6, r7, r8, r9, sl, lr}
 8000230:	9e08      	ldr	r6, [sp, #32]
 8000232:	460d      	mov	r5, r1
 8000234:	4604      	mov	r4, r0
 8000236:	460f      	mov	r7, r1
 8000238:	2b00      	cmp	r3, #0
 800023a:	d14a      	bne.n	80002d2 <__udivmoddi4+0xa6>
 800023c:	428a      	cmp	r2, r1
 800023e:	4694      	mov	ip, r2
 8000240:	d965      	bls.n	800030e <__udivmoddi4+0xe2>
 8000242:	fab2 f382 	clz	r3, r2
 8000246:	b143      	cbz	r3, 800025a <__udivmoddi4+0x2e>
 8000248:	fa02 fc03 	lsl.w	ip, r2, r3
 800024c:	f1c3 0220 	rsb	r2, r3, #32
 8000250:	409f      	lsls	r7, r3
 8000252:	fa20 f202 	lsr.w	r2, r0, r2
 8000256:	4317      	orrs	r7, r2
 8000258:	409c      	lsls	r4, r3
 800025a:	ea4f 4e1c 	mov.w	lr, ip, lsr #16
 800025e:	fa1f f58c 	uxth.w	r5, ip
 8000262:	fbb7 f1fe 	udiv	r1, r7, lr
 8000266:	0c22      	lsrs	r2, r4, #16
 8000268:	fb0e 7711 	mls	r7, lr, r1, r7
 800026c:	ea42 4207 	orr.w	r2, r2, r7, lsl #16
 8000270:	fb01 f005 	mul.w	r0, r1, r5
 8000274:	4290      	cmp	r0, r2
 8000276:	d90a      	bls.n	800028e <__udivmoddi4+0x62>
 8000278:	eb1c 0202 	adds.w	r2, ip, r2
 800027c:	f101 37ff 	add.w	r7, r1, #4294967295	; 0xffffffff
 8000280:	f080 811c 	bcs.w	80004bc <__udivmoddi4+0x290>
 8000284:	4290      	cmp	r0, r2
 8000286:	f240 8119 	bls.w	80004bc <__udivmoddi4+0x290>
 800028a:	3902      	subs	r1, #2
 800028c:	4462      	add	r2, ip
 800028e:	1a12      	subs	r2, r2, r0
 8000290:	b2a4      	uxth	r4, r4
 8000292:	fbb2 f0fe 	udiv	r0, r2, lr
 8000296:	fb0e 2210 	mls	r2, lr, r0, r2
 800029a:	ea44 4402 	orr.w	r4, r4, r2, lsl #16
 800029e:	fb00 f505 	mul.w	r5, r0, r5
 80002a2:	42a5      	cmp	r5, r4
 80002a4:	d90a      	bls.n	80002bc <__udivmoddi4+0x90>
 80002a6:	eb1c 0404 	adds.w	r4, ip, r4
 80002aa:	f100 32ff 	add.w	r2, r0, #4294967295	; 0xffffffff
 80002ae:	f080 8107 	bcs.w	80004c0 <__udivmoddi4+0x294>
 80002b2:	42a5      	cmp	r5, r4
 80002b4:	f240 8104 	bls.w	80004c0 <__udivmoddi4+0x294>
 80002b8:	4464      	add	r4, ip
 80002ba:	3802      	subs	r0, #2
 80002bc:	ea40 4001 	orr.w	r0, r0, r1, lsl #16
 80002c0:	1b64      	subs	r4, r4, r5
 80002c2:	2100      	movs	r1, #0
 80002c4:	b11e      	cbz	r6, 80002ce <__udivmoddi4+0xa2>
 80002c6:	40dc      	lsrs	r4, r3
 80002c8:	2300      	movs	r3, #0
 80002ca:	e9c6 4300 	strd	r4, r3, [r6]
 80002ce:	e8bd 87f0 	ldmia.w	sp!, {r4, r5, r6, r7, r8, r9, sl, pc}
 80002d2:	428b      	cmp	r3, r1
 80002d4:	d908      	bls.n	80002e8 <__udivmoddi4+0xbc>
 80002d6:	2e00      	cmp	r6, #0
 80002d8:	f000 80ed 	beq.w	80004b6 <__udivmoddi4+0x28a>
 80002dc:	2100      	movs	r1, #0
 80002de:	e9c6 0500 	strd	r0, r5, [r6]
 80002e2:	4608      	mov	r0, r1
 80002e4:	e8bd 87f0 	ldmia.w	sp!, {r4, r5, r6, r7, r8, r9, sl, pc}
 80002e8:	fab3 f183 	clz	r1, r3
 80002ec:	2900      	cmp	r1, #0
 80002ee:	d149      	bne.n	8000384 <__udivmoddi4+0x158>
 80002f0:	42ab      	cmp	r3, r5
 80002f2:	d302      	bcc.n	80002fa <__udivmoddi4+0xce>
 80002f4:	4282      	cmp	r2, r0
 80002f6:	f200 80f8 	bhi.w	80004ea <__udivmoddi4+0x2be>
 80002fa:	1a84      	subs	r4, r0, r2
 80002fc:	eb65 0203 	sbc.w	r2, r5, r3
 8000300:	2001      	movs	r0, #1
 8000302:	4617      	mov	r7, r2
 8000304:	2e00      	cmp	r6, #0
 8000306:	d0e2      	beq.n	80002ce <__udivmoddi4+0xa2>
 8000308:	e9c6 4700 	strd	r4, r7, [r6]
 800030c:	e7df      	b.n	80002ce <__udivmoddi4+0xa2>
 800030e:	b902      	cbnz	r2, 8000312 <__udivmoddi4+0xe6>
 8000310:	deff      	udf	#255	; 0xff
 8000312:	fab2 f382 	clz	r3, r2
 8000316:	2b00      	cmp	r3, #0
 8000318:	f040 8090 	bne.w	800043c <__udivmoddi4+0x210>
 800031c:	1a8a      	subs	r2, r1, r2
 800031e:	ea4f 471c 	mov.w	r7, ip, lsr #16
 8000322:	fa1f fe8c 	uxth.w	lr, ip
 8000326:	2101      	movs	r1, #1
 8000328:	fbb2 f5f7 	udiv	r5, r2, r7
 800032c:	fb07 2015 	mls	r0, r7, r5, r2
 8000330:	0c22      	lsrs	r2, r4, #16
 8000332:	ea42 4200 	orr.w	r2, r2, r0, lsl #16
 8000336:	fb0e f005 	mul.w	r0, lr, r5
 800033a:	4290      	cmp	r0, r2
 800033c:	d908      	bls.n	8000350 <__udivmoddi4+0x124>
 800033e:	eb1c 0202 	adds.w	r2, ip, r2
 8000342:	f105 38ff 	add.w	r8, r5, #4294967295	; 0xffffffff
 8000346:	d202      	bcs.n	800034e <__udivmoddi4+0x122>
 8000348:	4290      	cmp	r0, r2
 800034a:	f200 80cb 	bhi.w	80004e4 <__udivmoddi4+0x2b8>
 800034e:	4645      	mov	r5, r8
 8000350:	1a12      	subs	r2, r2, r0
 8000352:	b2a4      	uxth	r4, r4
 8000354:	fbb2 f0f7 	udiv	r0, r2, r7
 8000358:	fb07 2210 	mls	r2, r7, r0, r2
 800035c:	ea44 4402 	orr.w	r4, r4, r2, lsl #16
 8000360:	fb0e fe00 	mul.w	lr, lr, r0
 8000364:	45a6      	cmp	lr, r4
 8000366:	d908      	bls.n	800037a <__udivmoddi4+0x14e>
 8000368:	eb1c 0404 	adds.w	r4, ip, r4
 800036c:	f100 32ff 	add.w	r2, r0, #4294967295	; 0xffffffff
 8000370:	d202      	bcs.n	8000378 <__udivmoddi4+0x14c>
 8000372:	45a6      	cmp	lr, r4
 8000374:	f200 80bb 	bhi.w	80004ee <__udivmoddi4+0x2c2>
 8000378:	4610      	mov	r0, r2
 800037a:	eba4 040e 	sub.w	r4, r4, lr
 800037e:	ea40 4005 	orr.w	r0, r0, r5, lsl #16
 8000382:	e79f      	b.n	80002c4 <__udivmoddi4+0x98>
 8000384:	f1c1 0720 	rsb	r7, r1, #32
 8000388:	408b      	lsls	r3, r1
 800038a:	fa22 fc07 	lsr.w	ip, r2, r7
 800038e:	ea4c 0c03 	orr.w	ip, ip, r3
 8000392:	fa05 f401 	lsl.w	r4, r5, r1
 8000396:	fa20 f307 	lsr.w	r3, r0, r7
 800039a:	40fd      	lsrs	r5, r7
 800039c:	ea4f 491c 	mov.w	r9, ip, lsr #16
 80003a0:	4323      	orrs	r3, r4
 80003a2:	fbb5 f8f9 	udiv	r8, r5, r9
 80003a6:	fa1f fe8c 	uxth.w	lr, ip
 80003aa:	fb09 5518 	mls	r5, r9, r8, r5
 80003ae:	0c1c      	lsrs	r4, r3, #16
 80003b0:	ea44 4405 	orr.w	r4, r4, r5, lsl #16
 80003b4:	fb08 f50e 	mul.w	r5, r8, lr
 80003b8:	42a5      	cmp	r5, r4
 80003ba:	fa02 f201 	lsl.w	r2, r2, r1
 80003be:	fa00 f001 	lsl.w	r0, r0, r1
 80003c2:	d90b      	bls.n	80003dc <__udivmoddi4+0x1b0>
 80003c4:	eb1c 0404 	adds.w	r4, ip, r4
 80003c8:	f108 3aff 	add.w	sl, r8, #4294967295	; 0xffffffff
 80003cc:	f080 8088 	bcs.w	80004e0 <__udivmoddi4+0x2b4>
 80003d0:	42a5      	cmp	r5, r4
 80003d2:	f240 8085 	bls.w	80004e0 <__udivmoddi4+0x2b4>
 80003d6:	f1a8 0802 	sub.w	r8, r8, #2
 80003da:	4464      	add	r4, ip
 80003dc:	1b64      	subs	r4, r4, r5
 80003de:	b29d      	uxth	r5, r3
 80003e0:	fbb4 f3f9 	udiv	r3, r4, r9
 80003e4:	fb09 4413 	mls	r4, r9, r3, r4
 80003e8:	ea45 4404 	orr.w	r4, r5, r4, lsl #16
 80003ec:	fb03 fe0e 	mul.w	lr, r3, lr
 80003f0:	45a6      	cmp	lr, r4
 80003f2:	d908      	bls.n	8000406 <__udivmoddi4+0x1da>
 80003f4:	eb1c 0404 	adds.w	r4, ip, r4
 80003f8:	f103 35ff 	add.w	r5, r3, #4294967295	; 0xffffffff
 80003fc:	d26c      	bcs.n	80004d8 <__udivmoddi4+0x2ac>
 80003fe:	45a6      	cmp	lr, r4
 8000400:	d96a      	bls.n	80004d8 <__udivmoddi4+0x2ac>
 8000402:	3b02      	subs	r3, #2
 8000404:	4464      	add	r4, ip
 8000406:	ea43 4308 	orr.w	r3, r3, r8, lsl #16
 800040a:	fba3 9502 	umull	r9, r5, r3, r2
 800040e:	eba4 040e 	sub.w	r4, r4, lr
 8000412:	42ac      	cmp	r4, r5
 8000414:	46c8      	mov	r8, r9
 8000416:	46ae      	mov	lr, r5
 8000418:	d356      	bcc.n	80004c8 <__udivmoddi4+0x29c>
 800041a:	d053      	beq.n	80004c4 <__udivmoddi4+0x298>
 800041c:	b156      	cbz	r6, 8000434 <__udivmoddi4+0x208>
 800041e:	ebb0 0208 	subs.w	r2, r0, r8
 8000422:	eb64 040e 	sbc.w	r4, r4, lr
 8000426:	fa04 f707 	lsl.w	r7, r4, r7
 800042a:	40ca      	lsrs	r2, r1
 800042c:	40cc      	lsrs	r4, r1
 800042e:	4317      	orrs	r7, r2
 8000430:	e9c6 7400 	strd	r7, r4, [r6]
 8000434:	4618      	mov	r0, r3
 8000436:	2100      	movs	r1, #0
 8000438:	e8bd 87f0 	ldmia.w	sp!, {r4, r5, r6, r7, r8, r9, sl, pc}
 800043c:	f1c3 0120 	rsb	r1, r3, #32
 8000440:	fa02 fc03 	lsl.w	ip, r2, r3
 8000444:	fa20 f201 	lsr.w	r2, r0, r1
 8000448:	fa25 f101 	lsr.w	r1, r5, r1
 800044c:	409d      	lsls	r5, r3
 800044e:	432a      	orrs	r2, r5
 8000450:	ea4f 471c 	mov.w	r7, ip, lsr #16
 8000454:	fa1f fe8c 	uxth.w	lr, ip
 8000458:	fbb1 f0f7 	udiv	r0, r1, r7
 800045c:	fb07 1510 	mls	r5, r7, r0, r1
 8000460:	0c11      	lsrs	r1, r2, #16
 8000462:	ea41 4105 	orr.w	r1, r1, r5, lsl #16
 8000466:	fb00 f50e 	mul.w	r5, r0, lr
 800046a:	428d      	cmp	r5, r1
 800046c:	fa04 f403 	lsl.w	r4, r4, r3
 8000470:	d908      	bls.n	8000484 <__udivmoddi4+0x258>
 8000472:	eb1c 0101 	adds.w	r1, ip, r1
 8000476:	f100 38ff 	add.w	r8, r0, #4294967295	; 0xffffffff
 800047a:	d22f      	bcs.n	80004dc <__udivmoddi4+0x2b0>
 800047c:	428d      	cmp	r5, r1
 800047e:	d92d      	bls.n	80004dc <__udivmoddi4+0x2b0>
 8000480:	3802      	subs	r0, #2
 8000482:	4461      	add	r1, ip
 8000484:	1b49      	subs	r1, r1, r5
 8000486:	b292      	uxth	r2, r2
 8000488:	fbb1 f5f7 	udiv	r5, r1, r7
 800048c:	fb07 1115 	mls	r1, r7, r5, r1
 8000490:	ea42 4201 	orr.w	r2, r2, r1, lsl #16
 8000494:	fb05 f10e 	mul.w	r1, r5, lr
 8000498:	4291      	cmp	r1, r2
 800049a:	d908      	bls.n	80004ae <__udivmoddi4+0x282>
 800049c:	eb1c 0202 	adds.w	r2, ip, r2
 80004a0:	f105 38ff 	add.w	r8, r5, #4294967295	; 0xffffffff
 80004a4:	d216      	bcs.n	80004d4 <__udivmoddi4+0x2a8>
 80004a6:	4291      	cmp	r1, r2
 80004a8:	d914      	bls.n	80004d4 <__udivmoddi4+0x2a8>
 80004aa:	3d02      	subs	r5, #2
 80004ac:	4462      	add	r2, ip
 80004ae:	1a52      	subs	r2, r2, r1
 80004b0:	ea45 4100 	orr.w	r1, r5, r0, lsl #16
 80004b4:	e738      	b.n	8000328 <__udivmoddi4+0xfc>
 80004b6:	4631      	mov	r1, r6
 80004b8:	4630      	mov	r0, r6
 80004ba:	e708      	b.n	80002ce <__udivmoddi4+0xa2>
 80004bc:	4639      	mov	r1, r7
 80004be:	e6e6      	b.n	800028e <__udivmoddi4+0x62>
 80004c0:	4610      	mov	r0, r2
 80004c2:	e6fb      	b.n	80002bc <__udivmoddi4+0x90>
 80004c4:	4548      	cmp	r0, r9
 80004c6:	d2a9      	bcs.n	800041c <__udivmoddi4+0x1f0>
 80004c8:	ebb9 0802 	subs.w	r8, r9, r2
 80004cc:	eb65 0e0c 	sbc.w	lr, r5, ip
 80004d0:	3b01      	subs	r3, #1
 80004d2:	e7a3      	b.n	800041c <__udivmoddi4+0x1f0>
 80004d4:	4645      	mov	r5, r8
 80004d6:	e7ea      	b.n	80004ae <__udivmoddi4+0x282>
 80004d8:	462b      	mov	r3, r5
 80004da:	e794      	b.n	8000406 <__udivmoddi4+0x1da>
 80004dc:	4640      	mov	r0, r8
 80004de:	e7d1      	b.n	8000484 <__udivmoddi4+0x258>
 80004e0:	46d0      	mov	r8, sl
 80004e2:	e77b      	b.n	80003dc <__udivmoddi4+0x1b0>
 80004e4:	3d02      	subs	r5, #2
 80004e6:	4462      	add	r2, ip
 80004e8:	e732      	b.n	8000350 <__udivmoddi4+0x124>
 80004ea:	4608      	mov	r0, r1
 80004ec:	e70a      	b.n	8000304 <__udivmoddi4+0xd8>
 80004ee:	4464      	add	r4, ip
 80004f0:	3802      	subs	r0, #2
 80004f2:	e742      	b.n	800037a <__udivmoddi4+0x14e>

080004f4 <__aeabi_idiv0>:
 80004f4:	4770      	bx	lr
 80004f6:	bf00      	nop

080004f8 <init_accel>:
uint8_t OUT_Y_L 				= 0x2A;
uint8_t OUT_Y_H 				= 0x2B;
uint8_t OUT_Z_L 				= 0x2C;
uint8_t OUT_Z_H 				= 0x2D;

HAL_StatusTypeDef init_accel(I2C_HandleTypeDef* hi2c) {
 80004f8:	b580      	push	{r7, lr}
 80004fa:	b084      	sub	sp, #16
 80004fc:	af00      	add	r7, sp, #0
 80004fe:	6078      	str	r0, [r7, #4]
	HAL_StatusTypeDef ret;

	// Write Control Register 1
	ret = i2c_write_reg(hi2c, H3LIS331DL_ADDR, &CTRL_REG1, MASK_1kHz);
 8000500:	2118      	movs	r1, #24
 8000502:	233f      	movs	r3, #63	; 0x3f
 8000504:	4a09      	ldr	r2, [pc, #36]	; (800052c <init_accel+0x34>)
 8000506:	6878      	ldr	r0, [r7, #4]
 8000508:	f000 fb7f 	bl	8000c0a <i2c_write_reg>
 800050c:	4603      	mov	r3, r0
 800050e:	73fb      	strb	r3, [r7, #15]

	// Write Control Register 4
	ret = i2c_write_reg(hi2c, H3LIS331DL_ADDR, &CTRL_REG4, MASK_100G);
 8000510:	2118      	movs	r1, #24
 8000512:	2300      	movs	r3, #0
 8000514:	4a06      	ldr	r2, [pc, #24]	; (8000530 <init_accel+0x38>)
 8000516:	6878      	ldr	r0, [r7, #4]
 8000518:	f000 fb77 	bl	8000c0a <i2c_write_reg>
 800051c:	4603      	mov	r3, r0
 800051e:	73fb      	strb	r3, [r7, #15]
	return ret;
 8000520:	7bfb      	ldrb	r3, [r7, #15]
}
 8000522:	4618      	mov	r0, r3
 8000524:	3710      	adds	r7, #16
 8000526:	46bd      	mov	sp, r7
 8000528:	bd80      	pop	{r7, pc}
 800052a:	bf00      	nop
 800052c:	20000000 	.word	0x20000000
 8000530:	20000001 	.word	0x20000001

08000534 <readAccelerometer>:

void readAccelerometer(uint8_t values[6], I2C_HandleTypeDef* hi2c) {
 8000534:	b580      	push	{r7, lr}
 8000536:	b084      	sub	sp, #16
 8000538:	af02      	add	r7, sp, #8
 800053a:	6078      	str	r0, [r7, #4]
 800053c:	6039      	str	r1, [r7, #0]
	i2c_burst_read(hi2c, H3LIS331DL_ADDR, OUT_X_L, 6, values);
 800053e:	2118      	movs	r1, #24
 8000540:	4b05      	ldr	r3, [pc, #20]	; (8000558 <readAccelerometer+0x24>)
 8000542:	781a      	ldrb	r2, [r3, #0]
 8000544:	687b      	ldr	r3, [r7, #4]
 8000546:	9300      	str	r3, [sp, #0]
 8000548:	2306      	movs	r3, #6
 800054a:	6838      	ldr	r0, [r7, #0]
 800054c:	f000 fb28 	bl	8000ba0 <i2c_burst_read>
}
 8000550:	bf00      	nop
 8000552:	3708      	adds	r7, #8
 8000554:	46bd      	mov	sp, r7
 8000556:	bd80      	pop	{r7, pc}
 8000558:	20000003 	.word	0x20000003

0800055c <readAccel_whoami>:

uint8_t readAccel_whoami(I2C_HandleTypeDef* hi2c) {
 800055c:	b580      	push	{r7, lr}
 800055e:	b084      	sub	sp, #16
 8000560:	af00      	add	r7, sp, #0
 8000562:	6078      	str	r0, [r7, #4]
	uint8_t data = 0x00;
 8000564:	2300      	movs	r3, #0
 8000566:	73fb      	strb	r3, [r7, #15]
	i2c_read_reg(hi2c, &data, H3LIS331DL_ADDR, &WHOAMI);
 8000568:	2218      	movs	r2, #24
 800056a:	f107 010f 	add.w	r1, r7, #15
 800056e:	4b04      	ldr	r3, [pc, #16]	; (8000580 <readAccel_whoami+0x24>)
 8000570:	6878      	ldr	r0, [r7, #4]
 8000572:	f000 faec 	bl	8000b4e <i2c_read_reg>

	return data;
 8000576:	7bfb      	ldrb	r3, [r7, #15]
}
 8000578:	4618      	mov	r0, r3
 800057a:	3710      	adds	r7, #16
 800057c:	46bd      	mov	sp, r7
 800057e:	bd80      	pop	{r7, pc}
 8000580:	20000002 	.word	0x20000002

08000584 <init_bme280>:
uint8_t OUT_HUM_H 			= 0xFD;
uint8_t CALIB_ST_1			= 0x88;
uint8_t CALIB_ST_2			= 0xE1;


HAL_StatusTypeDef init_bme280(I2C_HandleTypeDef* hi2c, uint8_t bme) {
 8000584:	b580      	push	{r7, lr}
 8000586:	b084      	sub	sp, #16
 8000588:	af00      	add	r7, sp, #0
 800058a:	6078      	str	r0, [r7, #4]
 800058c:	460b      	mov	r3, r1
 800058e:	70fb      	strb	r3, [r7, #3]
	uint8_t bme_addr = getBME280Config(bme).bme_addr;
 8000590:	78fb      	ldrb	r3, [r7, #3]
 8000592:	4618      	mov	r0, r3
 8000594:	f000 f8e0 	bl	8000758 <getBME280Config>
 8000598:	4603      	mov	r3, r0
 800059a:	73fb      	strb	r3, [r7, #15]
	HAL_StatusTypeDef ret;
	uint8_t control_reg = 0x00;
 800059c:	2300      	movs	r3, #0
 800059e:	737b      	strb	r3, [r7, #13]

	// Reset the sensor
	ret =  i2c_write_reg(hi2c, bme_addr, &RST_REG, RST);
 80005a0:	7bf9      	ldrb	r1, [r7, #15]
 80005a2:	23b6      	movs	r3, #182	; 0xb6
 80005a4:	4a19      	ldr	r2, [pc, #100]	; (800060c <init_bme280+0x88>)
 80005a6:	6878      	ldr	r0, [r7, #4]
 80005a8:	f000 fb2f 	bl	8000c0a <i2c_write_reg>
 80005ac:	4603      	mov	r3, r0
 80005ae:	73bb      	strb	r3, [r7, #14]

	// Set humidity control register
	i2c_read_reg(hi2c, &control_reg, bme_addr, &CTRL_HUM_REG);
 80005b0:	7bfa      	ldrb	r2, [r7, #15]
 80005b2:	f107 010d 	add.w	r1, r7, #13
 80005b6:	4b16      	ldr	r3, [pc, #88]	; (8000610 <init_bme280+0x8c>)
 80005b8:	6878      	ldr	r0, [r7, #4]
 80005ba:	f000 fac8 	bl	8000b4e <i2c_read_reg>
	control_reg = control_reg & 0xF8;
 80005be:	7b7b      	ldrb	r3, [r7, #13]
 80005c0:	f023 0307 	bic.w	r3, r3, #7
 80005c4:	b2db      	uxtb	r3, r3
 80005c6:	737b      	strb	r3, [r7, #13]
	control_reg = control_reg | CTRL_HUM_MSK;
 80005c8:	7b7b      	ldrb	r3, [r7, #13]
 80005ca:	f043 0301 	orr.w	r3, r3, #1
 80005ce:	b2db      	uxtb	r3, r3
 80005d0:	737b      	strb	r3, [r7, #13]
	ret = i2c_write_reg(hi2c, bme_addr, &CTRL_HUM_REG, control_reg);
 80005d2:	7b7b      	ldrb	r3, [r7, #13]
 80005d4:	7bf9      	ldrb	r1, [r7, #15]
 80005d6:	4a0e      	ldr	r2, [pc, #56]	; (8000610 <init_bme280+0x8c>)
 80005d8:	6878      	ldr	r0, [r7, #4]
 80005da:	f000 fb16 	bl	8000c0a <i2c_write_reg>
 80005de:	4603      	mov	r3, r0
 80005e0:	73bb      	strb	r3, [r7, #14]

	// Set measure control register
	ret = i2c_write_reg(hi2c, bme_addr, &CTRL_MEAS_REG, CTRL_MEAS_MSK);
 80005e2:	7bf9      	ldrb	r1, [r7, #15]
 80005e4:	2327      	movs	r3, #39	; 0x27
 80005e6:	4a0b      	ldr	r2, [pc, #44]	; (8000614 <init_bme280+0x90>)
 80005e8:	6878      	ldr	r0, [r7, #4]
 80005ea:	f000 fb0e 	bl	8000c0a <i2c_write_reg>
 80005ee:	4603      	mov	r3, r0
 80005f0:	73bb      	strb	r3, [r7, #14]

	// Set the config register
	ret = i2c_write_reg(hi2c, bme_addr, &CONF_REG, CONF_MSK);
 80005f2:	7bf9      	ldrb	r1, [r7, #15]
 80005f4:	2300      	movs	r3, #0
 80005f6:	4a08      	ldr	r2, [pc, #32]	; (8000618 <init_bme280+0x94>)
 80005f8:	6878      	ldr	r0, [r7, #4]
 80005fa:	f000 fb06 	bl	8000c0a <i2c_write_reg>
 80005fe:	4603      	mov	r3, r0
 8000600:	73bb      	strb	r3, [r7, #14]

	return ret;
 8000602:	7bbb      	ldrb	r3, [r7, #14]
}
 8000604:	4618      	mov	r0, r3
 8000606:	3710      	adds	r7, #16
 8000608:	46bd      	mov	sp, r7
 800060a:	bd80      	pop	{r7, pc}
 800060c:	20000005 	.word	0x20000005
 8000610:	20000006 	.word	0x20000006
 8000614:	20000007 	.word	0x20000007
 8000618:	20000008 	.word	0x20000008

0800061c <readTempHumPres>:

void readTempHumPres(uint8_t values[6], I2C_HandleTypeDef* hi2c, uint8_t bme) {
 800061c:	b580      	push	{r7, lr}
 800061e:	b08a      	sub	sp, #40	; 0x28
 8000620:	af02      	add	r7, sp, #8
 8000622:	60f8      	str	r0, [r7, #12]
 8000624:	60b9      	str	r1, [r7, #8]
 8000626:	4613      	mov	r3, r2
 8000628:	71fb      	strb	r3, [r7, #7]
	uint8_t readings[8] = {0, 0, 0, 0, 0, 0, 0, 0};
 800062a:	4a27      	ldr	r2, [pc, #156]	; (80006c8 <readTempHumPres+0xac>)
 800062c:	f107 0314 	add.w	r3, r7, #20
 8000630:	e892 0003 	ldmia.w	r2, {r0, r1}
 8000634:	e883 0003 	stmia.w	r3, {r0, r1}
	uint8_t bme_addr = getBME280Config(bme).bme_addr;
 8000638:	79fb      	ldrb	r3, [r7, #7]
 800063a:	4618      	mov	r0, r3
 800063c:	f000 f88c 	bl	8000758 <getBME280Config>
 8000640:	4603      	mov	r3, r0
 8000642:	777b      	strb	r3, [r7, #29]
	i2c_burst_read(hi2c, bme_addr, OUT_PRESS_H, 8, readings);
 8000644:	4b21      	ldr	r3, [pc, #132]	; (80006cc <readTempHumPres+0xb0>)
 8000646:	781a      	ldrb	r2, [r3, #0]
 8000648:	7f79      	ldrb	r1, [r7, #29]
 800064a:	f107 0314 	add.w	r3, r7, #20
 800064e:	9300      	str	r3, [sp, #0]
 8000650:	2308      	movs	r3, #8
 8000652:	68b8      	ldr	r0, [r7, #8]
 8000654:	f000 faa4 	bl	8000ba0 <i2c_burst_read>

	// Clear the 0 values on the xlsb registers
	uint8_t j = 0;
 8000658:	2300      	movs	r3, #0
 800065a:	77fb      	strb	r3, [r7, #31]
    for(uint8_t i = 0; i < 8; i++) {
 800065c:	2300      	movs	r3, #0
 800065e:	77bb      	strb	r3, [r7, #30]
 8000660:	e014      	b.n	800068c <readTempHumPres+0x70>
        if(i != 2 && i != 5) {  // if the index is not 2 or 5
 8000662:	7fbb      	ldrb	r3, [r7, #30]
 8000664:	2b02      	cmp	r3, #2
 8000666:	d00e      	beq.n	8000686 <readTempHumPres+0x6a>
 8000668:	7fbb      	ldrb	r3, [r7, #30]
 800066a:	2b05      	cmp	r3, #5
 800066c:	d00b      	beq.n	8000686 <readTempHumPres+0x6a>
        	values[j] = readings[i];
 800066e:	7fba      	ldrb	r2, [r7, #30]
 8000670:	7ffb      	ldrb	r3, [r7, #31]
 8000672:	68f9      	ldr	r1, [r7, #12]
 8000674:	440b      	add	r3, r1
 8000676:	3220      	adds	r2, #32
 8000678:	443a      	add	r2, r7
 800067a:	f812 2c0c 	ldrb.w	r2, [r2, #-12]
 800067e:	701a      	strb	r2, [r3, #0]
            j++;
 8000680:	7ffb      	ldrb	r3, [r7, #31]
 8000682:	3301      	adds	r3, #1
 8000684:	77fb      	strb	r3, [r7, #31]
    for(uint8_t i = 0; i < 8; i++) {
 8000686:	7fbb      	ldrb	r3, [r7, #30]
 8000688:	3301      	adds	r3, #1
 800068a:	77bb      	strb	r3, [r7, #30]
 800068c:	7fbb      	ldrb	r3, [r7, #30]
 800068e:	2b07      	cmp	r3, #7
 8000690:	d9e7      	bls.n	8000662 <readTempHumPres+0x46>
        }
    }

    // Swap elements to make the array little endian
    swap(&values[0], &values[1]);
 8000692:	68fb      	ldr	r3, [r7, #12]
 8000694:	3301      	adds	r3, #1
 8000696:	4619      	mov	r1, r3
 8000698:	68f8      	ldr	r0, [r7, #12]
 800069a:	f000 f874 	bl	8000786 <swap>
    swap(&values[2], &values[3]);
 800069e:	68fb      	ldr	r3, [r7, #12]
 80006a0:	1c9a      	adds	r2, r3, #2
 80006a2:	68fb      	ldr	r3, [r7, #12]
 80006a4:	3303      	adds	r3, #3
 80006a6:	4619      	mov	r1, r3
 80006a8:	4610      	mov	r0, r2
 80006aa:	f000 f86c 	bl	8000786 <swap>
    swap(&values[4], &values[5]);
 80006ae:	68fb      	ldr	r3, [r7, #12]
 80006b0:	1d1a      	adds	r2, r3, #4
 80006b2:	68fb      	ldr	r3, [r7, #12]
 80006b4:	3305      	adds	r3, #5
 80006b6:	4619      	mov	r1, r3
 80006b8:	4610      	mov	r0, r2
 80006ba:	f000 f864 	bl	8000786 <swap>
}
 80006be:	bf00      	nop
 80006c0:	3720      	adds	r7, #32
 80006c2:	46bd      	mov	sp, r7
 80006c4:	bd80      	pop	{r7, pc}
 80006c6:	bf00      	nop
 80006c8:	080073bc 	.word	0x080073bc
 80006cc:	20000009 	.word	0x20000009

080006d0 <readBME280_id_reg>:

uint8_t readBME280_id_reg(I2C_HandleTypeDef* hi2c, uint8_t bme) {
 80006d0:	b580      	push	{r7, lr}
 80006d2:	b084      	sub	sp, #16
 80006d4:	af00      	add	r7, sp, #0
 80006d6:	6078      	str	r0, [r7, #4]
 80006d8:	460b      	mov	r3, r1
 80006da:	70fb      	strb	r3, [r7, #3]
	uint8_t bme_addr = getBME280Config(bme).bme_addr;
 80006dc:	78fb      	ldrb	r3, [r7, #3]
 80006de:	4618      	mov	r0, r3
 80006e0:	f000 f83a 	bl	8000758 <getBME280Config>
 80006e4:	4603      	mov	r3, r0
 80006e6:	73fb      	strb	r3, [r7, #15]
	uint8_t data = 0x00;
 80006e8:	2300      	movs	r3, #0
 80006ea:	73bb      	strb	r3, [r7, #14]
	i2c_read_reg(hi2c, &data, bme_addr, &ID_REG);
 80006ec:	7bfa      	ldrb	r2, [r7, #15]
 80006ee:	f107 010e 	add.w	r1, r7, #14
 80006f2:	4b04      	ldr	r3, [pc, #16]	; (8000704 <readBME280_id_reg+0x34>)
 80006f4:	6878      	ldr	r0, [r7, #4]
 80006f6:	f000 fa2a 	bl	8000b4e <i2c_read_reg>

	return data;
 80006fa:	7bbb      	ldrb	r3, [r7, #14]
}
 80006fc:	4618      	mov	r0, r3
 80006fe:	3710      	adds	r7, #16
 8000700:	46bd      	mov	sp, r7
 8000702:	bd80      	pop	{r7, pc}
 8000704:	20000004 	.word	0x20000004

08000708 <readBME280_calib>:

void readBME280_calib(I2C_HandleTypeDef* hi2c, uint8_t bme, uint8_t calibration1[CALIB_CNT_1], uint8_t calibration2[CALIB_CNT_2]) {
 8000708:	b580      	push	{r7, lr}
 800070a:	b088      	sub	sp, #32
 800070c:	af02      	add	r7, sp, #8
 800070e:	60f8      	str	r0, [r7, #12]
 8000710:	607a      	str	r2, [r7, #4]
 8000712:	603b      	str	r3, [r7, #0]
 8000714:	460b      	mov	r3, r1
 8000716:	72fb      	strb	r3, [r7, #11]
	uint8_t bme_addr = getBME280Config(bme).bme_addr;
 8000718:	7afb      	ldrb	r3, [r7, #11]
 800071a:	4618      	mov	r0, r3
 800071c:	f000 f81c 	bl	8000758 <getBME280Config>
 8000720:	4603      	mov	r3, r0
 8000722:	75fb      	strb	r3, [r7, #23]
	i2c_burst_read(hi2c, bme_addr, CALIB_ST_1, CALIB_CNT_1, calibration1);
 8000724:	4b0a      	ldr	r3, [pc, #40]	; (8000750 <readBME280_calib+0x48>)
 8000726:	781a      	ldrb	r2, [r3, #0]
 8000728:	7df9      	ldrb	r1, [r7, #23]
 800072a:	687b      	ldr	r3, [r7, #4]
 800072c:	9300      	str	r3, [sp, #0]
 800072e:	2319      	movs	r3, #25
 8000730:	68f8      	ldr	r0, [r7, #12]
 8000732:	f000 fa35 	bl	8000ba0 <i2c_burst_read>
	i2c_burst_read(hi2c, bme_addr, CALIB_ST_2, CALIB_CNT_2, calibration2);
 8000736:	4b07      	ldr	r3, [pc, #28]	; (8000754 <readBME280_calib+0x4c>)
 8000738:	781a      	ldrb	r2, [r3, #0]
 800073a:	7df9      	ldrb	r1, [r7, #23]
 800073c:	683b      	ldr	r3, [r7, #0]
 800073e:	9300      	str	r3, [sp, #0]
 8000740:	2307      	movs	r3, #7
 8000742:	68f8      	ldr	r0, [r7, #12]
 8000744:	f000 fa2c 	bl	8000ba0 <i2c_burst_read>
}
 8000748:	bf00      	nop
 800074a:	3718      	adds	r7, #24
 800074c:	46bd      	mov	sp, r7
 800074e:	bd80      	pop	{r7, pc}
 8000750:	2000000a 	.word	0x2000000a
 8000754:	2000000b 	.word	0x2000000b

08000758 <getBME280Config>:

BME280_Config getBME280Config(uint8_t bme) {
 8000758:	b480      	push	{r7}
 800075a:	b085      	sub	sp, #20
 800075c:	af00      	add	r7, sp, #0
 800075e:	4603      	mov	r3, r0
 8000760:	71fb      	strb	r3, [r7, #7]
	BME280_Config config;
	if (bme == 0) {
 8000762:	79fb      	ldrb	r3, [r7, #7]
 8000764:	2b00      	cmp	r3, #0
 8000766:	d102      	bne.n	800076e <getBME280Config+0x16>
		config.bme_addr = BME280_ADDR_0;
 8000768:	2376      	movs	r3, #118	; 0x76
 800076a:	733b      	strb	r3, [r7, #12]
 800076c:	e004      	b.n	8000778 <getBME280Config+0x20>
	} else if (bme == 1) {
 800076e:	79fb      	ldrb	r3, [r7, #7]
 8000770:	2b01      	cmp	r3, #1
 8000772:	d101      	bne.n	8000778 <getBME280Config+0x20>
		config.bme_addr = BME280_ADDR_1;
 8000774:	2377      	movs	r3, #119	; 0x77
 8000776:	733b      	strb	r3, [r7, #12]
	}
    return config;
 8000778:	7b3b      	ldrb	r3, [r7, #12]
}
 800077a:	4618      	mov	r0, r3
 800077c:	3714      	adds	r7, #20
 800077e:	46bd      	mov	sp, r7
 8000780:	f85d 7b04 	ldr.w	r7, [sp], #4
 8000784:	4770      	bx	lr

08000786 <swap>:

void swap(uint8_t* a, uint8_t* b) {
 8000786:	b480      	push	{r7}
 8000788:	b085      	sub	sp, #20
 800078a:	af00      	add	r7, sp, #0
 800078c:	6078      	str	r0, [r7, #4]
 800078e:	6039      	str	r1, [r7, #0]
    uint8_t temp = *a;
 8000790:	687b      	ldr	r3, [r7, #4]
 8000792:	781b      	ldrb	r3, [r3, #0]
 8000794:	73fb      	strb	r3, [r7, #15]
    *a = *b;
 8000796:	683b      	ldr	r3, [r7, #0]
 8000798:	781a      	ldrb	r2, [r3, #0]
 800079a:	687b      	ldr	r3, [r7, #4]
 800079c:	701a      	strb	r2, [r3, #0]
    *b = temp;
 800079e:	683b      	ldr	r3, [r7, #0]
 80007a0:	7bfa      	ldrb	r2, [r7, #15]
 80007a2:	701a      	strb	r2, [r3, #0]
}
 80007a4:	bf00      	nop
 80007a6:	3714      	adds	r7, #20
 80007a8:	46bd      	mov	sp, r7
 80007aa:	f85d 7b04 	ldr.w	r7, [sp], #4
 80007ae:	4770      	bx	lr

080007b0 <check_busy>:
uint8_t FLASH_32K_ERS	= 0x52;			// Erase all memory within a 32K-byte block
uint8_t FLASH_ERASE		= 0xC7;			// Erase the entire chip
uint8_t RST_EN			= 0x66;			// Reset enable
uint8_t DEV_RST			= 0x99;			// Reset device

uint8_t check_busy(SPI_HandleTypeDef *hspi, GPIO_Config config, int timeout) {
 80007b0:	b580      	push	{r7, lr}
 80007b2:	b088      	sub	sp, #32
 80007b4:	af00      	add	r7, sp, #0
 80007b6:	60f8      	str	r0, [r7, #12]
 80007b8:	1d38      	adds	r0, r7, #4
 80007ba:	e880 0006 	stmia.w	r0, {r1, r2}
 80007be:	603b      	str	r3, [r7, #0]
	uint8_t ret_val = 0x00;
 80007c0:	2300      	movs	r3, #0
 80007c2:	77fb      	strb	r3, [r7, #31]

    // Get the current time
	uint32_t startTick = HAL_GetTick();
 80007c4:	f001 ff2a 	bl	800261c <HAL_GetTick>
 80007c8:	61b8      	str	r0, [r7, #24]

	// Read the status register to ensure no write is currently in progress
	uint8_t busy = 0x01;
 80007ca:	2301      	movs	r3, #1
 80007cc:	77bb      	strb	r3, [r7, #30]
	while(busy) {
 80007ce:	e015      	b.n	80007fc <check_busy+0x4c>
		// Check if there is a write in progress
		busy = (check_status_register(hspi, config) & 0x01);
 80007d0:	1d3b      	adds	r3, r7, #4
 80007d2:	e893 0006 	ldmia.w	r3, {r1, r2}
 80007d6:	68f8      	ldr	r0, [r7, #12]
 80007d8:	f000 f818 	bl	800080c <check_status_register>
 80007dc:	4603      	mov	r3, r0
 80007de:	f003 0301 	and.w	r3, r3, #1
 80007e2:	77bb      	strb	r3, [r7, #30]

		uint32_t currTick = HAL_GetTick();
 80007e4:	f001 ff1a 	bl	800261c <HAL_GetTick>
 80007e8:	6178      	str	r0, [r7, #20]

        // Check if the timeout has been reached
		if ((currTick - startTick) >= timeout) {
 80007ea:	697a      	ldr	r2, [r7, #20]
 80007ec:	69bb      	ldr	r3, [r7, #24]
 80007ee:	1ad2      	subs	r2, r2, r3
 80007f0:	683b      	ldr	r3, [r7, #0]
 80007f2:	429a      	cmp	r2, r3
 80007f4:	d302      	bcc.n	80007fc <check_busy+0x4c>
        	ret_val = 0x01;
 80007f6:	2301      	movs	r3, #1
 80007f8:	77fb      	strb	r3, [r7, #31]
            break;
 80007fa:	e002      	b.n	8000802 <check_busy+0x52>
	while(busy) {
 80007fc:	7fbb      	ldrb	r3, [r7, #30]
 80007fe:	2b00      	cmp	r3, #0
 8000800:	d1e6      	bne.n	80007d0 <check_busy+0x20>
        }
	}

	return ret_val;
 8000802:	7ffb      	ldrb	r3, [r7, #31]
}
 8000804:	4618      	mov	r0, r3
 8000806:	3720      	adds	r7, #32
 8000808:	46bd      	mov	sp, r7
 800080a:	bd80      	pop	{r7, pc}

0800080c <check_status_register>:

uint8_t check_status_register(SPI_HandleTypeDef *hspi, GPIO_Config config) {
 800080c:	b580      	push	{r7, lr}
 800080e:	b088      	sub	sp, #32
 8000810:	af02      	add	r7, sp, #8
 8000812:	60f8      	str	r0, [r7, #12]
 8000814:	1d3b      	adds	r3, r7, #4
 8000816:	e883 0006 	stmia.w	r3, {r1, r2}
	uint8_t status_reg = 0x00;
 800081a:	2300      	movs	r3, #0
 800081c:	75fb      	strb	r3, [r7, #23]
	spi_sendOp_readByte(&FLASH_READSR1, hspi, &status_reg, config.GPIOx, config.GPIO_Pin);
 800081e:	6879      	ldr	r1, [r7, #4]
 8000820:	893b      	ldrh	r3, [r7, #8]
 8000822:	f107 0217 	add.w	r2, r7, #23
 8000826:	9300      	str	r3, [sp, #0]
 8000828:	460b      	mov	r3, r1
 800082a:	68f9      	ldr	r1, [r7, #12]
 800082c:	4803      	ldr	r0, [pc, #12]	; (800083c <check_status_register+0x30>)
 800082e:	f001 fb07 	bl	8001e40 <spi_sendOp_readByte>
	return status_reg;
 8000832:	7dfb      	ldrb	r3, [r7, #23]
}
 8000834:	4618      	mov	r0, r3
 8000836:	3718      	adds	r7, #24
 8000838:	46bd      	mov	sp, r7
 800083a:	bd80      	pop	{r7, pc}
 800083c:	2000000e 	.word	0x2000000e

08000840 <erase_chip_spi>:
 *      Author: aidencontini
 */

#include "data_output_spi.h"

HAL_StatusTypeDef erase_chip_spi(SPI_HandleTypeDef *hspi, GPIO_Config config) {
 8000840:	b580      	push	{r7, lr}
 8000842:	b084      	sub	sp, #16
 8000844:	af00      	add	r7, sp, #0
 8000846:	60f8      	str	r0, [r7, #12]
 8000848:	1d3b      	adds	r3, r7, #4
 800084a:	e883 0006 	stmia.w	r3, {r1, r2}
	check_busy(hspi, config, BSY_TIMEOUT_MS);
 800084e:	2305      	movs	r3, #5
 8000850:	1d3a      	adds	r2, r7, #4
 8000852:	ca06      	ldmia	r2, {r1, r2}
 8000854:	68f8      	ldr	r0, [r7, #12]
 8000856:	f7ff ffab 	bl	80007b0 <check_busy>

	write_enable_spi(hspi, config);
 800085a:	1d3b      	adds	r3, r7, #4
 800085c:	e893 0006 	ldmia.w	r3, {r1, r2}
 8000860:	68f8      	ldr	r0, [r7, #12]
 8000862:	f000 f815 	bl	8000890 <write_enable_spi>
	perform_operation(&FLASH_ERASE, hspi, config.GPIOx, config.GPIO_Pin);
 8000866:	687a      	ldr	r2, [r7, #4]
 8000868:	893b      	ldrh	r3, [r7, #8]
 800086a:	68f9      	ldr	r1, [r7, #12]
 800086c:	4806      	ldr	r0, [pc, #24]	; (8000888 <erase_chip_spi+0x48>)
 800086e:	f001 fb0d 	bl	8001e8c <perform_operation>

	check_busy(hspi, config, CHIP_ERASE_TO);
 8000872:	4b06      	ldr	r3, [pc, #24]	; (800088c <erase_chip_spi+0x4c>)
 8000874:	1d3a      	adds	r2, r7, #4
 8000876:	ca06      	ldmia	r2, {r1, r2}
 8000878:	68f8      	ldr	r0, [r7, #12]
 800087a:	f7ff ff99 	bl	80007b0 <check_busy>

	return HAL_OK;
 800087e:	2300      	movs	r3, #0
}
 8000880:	4618      	mov	r0, r3
 8000882:	3710      	adds	r7, #16
 8000884:	46bd      	mov	sp, r7
 8000886:	bd80      	pop	{r7, pc}
 8000888:	20000011 	.word	0x20000011
 800088c:	00030d40 	.word	0x00030d40

08000890 <write_enable_spi>:
	check_busy(hspi, config, BLK_ERS_32K_TO);

	return HAL_OK;
}

void write_enable_spi(SPI_HandleTypeDef *hspi, GPIO_Config config) {
 8000890:	b580      	push	{r7, lr}
 8000892:	b084      	sub	sp, #16
 8000894:	af00      	add	r7, sp, #0
 8000896:	60f8      	str	r0, [r7, #12]
 8000898:	1d3b      	adds	r3, r7, #4
 800089a:	e883 0006 	stmia.w	r3, {r1, r2}
	perform_operation(&FLASH_WREN, hspi, config.GPIOx, config.GPIO_Pin);
 800089e:	687a      	ldr	r2, [r7, #4]
 80008a0:	893b      	ldrh	r3, [r7, #8]
 80008a2:	68f9      	ldr	r1, [r7, #12]
 80008a4:	4803      	ldr	r0, [pc, #12]	; (80008b4 <write_enable_spi+0x24>)
 80008a6:	f001 faf1 	bl	8001e8c <perform_operation>
}
 80008aa:	bf00      	nop
 80008ac:	3710      	adds	r7, #16
 80008ae:	46bd      	mov	sp, r7
 80008b0:	bd80      	pop	{r7, pc}
 80008b2:	bf00      	nop
 80008b4:	2000000c 	.word	0x2000000c

080008b8 <software_reset>:

void write_disable_spi(SPI_HandleTypeDef *hspi, GPIO_Config config) {
	perform_operation(&FLASH_WRDIS, hspi, config.GPIOx, config.GPIO_Pin);
}

void software_reset(SPI_HandleTypeDef *hspi, GPIO_Config config) {
 80008b8:	b580      	push	{r7, lr}
 80008ba:	b084      	sub	sp, #16
 80008bc:	af00      	add	r7, sp, #0
 80008be:	60f8      	str	r0, [r7, #12]
 80008c0:	1d3b      	adds	r3, r7, #4
 80008c2:	e883 0006 	stmia.w	r3, {r1, r2}

	check_busy(hspi, config, BSY_TIMEOUT_MS);
 80008c6:	2305      	movs	r3, #5
 80008c8:	1d3a      	adds	r2, r7, #4
 80008ca:	ca06      	ldmia	r2, {r1, r2}
 80008cc:	68f8      	ldr	r0, [r7, #12]
 80008ce:	f7ff ff6f 	bl	80007b0 <check_busy>

	perform_operation(&RST_EN, hspi, config.GPIOx, config.GPIO_Pin);
 80008d2:	687a      	ldr	r2, [r7, #4]
 80008d4:	893b      	ldrh	r3, [r7, #8]
 80008d6:	68f9      	ldr	r1, [r7, #12]
 80008d8:	4807      	ldr	r0, [pc, #28]	; (80008f8 <software_reset+0x40>)
 80008da:	f001 fad7 	bl	8001e8c <perform_operation>
	perform_operation(&DEV_RST, hspi, config.GPIOx, config.GPIO_Pin);
 80008de:	687a      	ldr	r2, [r7, #4]
 80008e0:	893b      	ldrh	r3, [r7, #8]
 80008e2:	68f9      	ldr	r1, [r7, #12]
 80008e4:	4805      	ldr	r0, [pc, #20]	; (80008fc <software_reset+0x44>)
 80008e6:	f001 fad1 	bl	8001e8c <perform_operation>

	HAL_Delay(5);
 80008ea:	2005      	movs	r0, #5
 80008ec:	f001 fea2 	bl	8002634 <HAL_Delay>
}
 80008f0:	bf00      	nop
 80008f2:	3710      	adds	r7, #16
 80008f4:	46bd      	mov	sp, r7
 80008f6:	bd80      	pop	{r7, pc}
 80008f8:	20000012 	.word	0x20000012
 80008fc:	20000013 	.word	0x20000013

08000900 <write_data_spi>:

uint8_t write_data_spi(uint8_t page[PAGE_SIZE], SPI_HandleTypeDef *hspi, uint32_t addr, GPIO_Config config) {
 8000900:	b082      	sub	sp, #8
 8000902:	b580      	push	{r7, lr}
 8000904:	b088      	sub	sp, #32
 8000906:	af04      	add	r7, sp, #16
 8000908:	60f8      	str	r0, [r7, #12]
 800090a:	60b9      	str	r1, [r7, #8]
 800090c:	607a      	str	r2, [r7, #4]
 800090e:	61fb      	str	r3, [r7, #28]
	check_busy(hspi, config, BSY_TIMEOUT_MS);
 8000910:	2305      	movs	r3, #5
 8000912:	f107 021c 	add.w	r2, r7, #28
 8000916:	ca06      	ldmia	r2, {r1, r2}
 8000918:	68b8      	ldr	r0, [r7, #8]
 800091a:	f7ff ff49 	bl	80007b0 <check_busy>

	// Send the write enable signal
	write_enable_spi(hspi, config);
 800091e:	f107 031c 	add.w	r3, r7, #28
 8000922:	e893 0006 	ldmia.w	r3, {r1, r2}
 8000926:	68b8      	ldr	r0, [r7, #8]
 8000928:	f7ff ffb2 	bl	8000890 <write_enable_spi>
	spi_write_data(&FLASH_PGWR, PAGE_SIZE, page, hspi, addr, config.GPIOx, config.GPIO_Pin);
 800092c:	69fb      	ldr	r3, [r7, #28]
 800092e:	8c3a      	ldrh	r2, [r7, #32]
 8000930:	9202      	str	r2, [sp, #8]
 8000932:	9301      	str	r3, [sp, #4]
 8000934:	687b      	ldr	r3, [r7, #4]
 8000936:	9300      	str	r3, [sp, #0]
 8000938:	68bb      	ldr	r3, [r7, #8]
 800093a:	68fa      	ldr	r2, [r7, #12]
 800093c:	f44f 7180 	mov.w	r1, #256	; 0x100
 8000940:	4805      	ldr	r0, [pc, #20]	; (8000958 <write_data_spi+0x58>)
 8000942:	f001 fb0a 	bl	8001f5a <spi_write_data>

	return 0;
 8000946:	2300      	movs	r3, #0
}
 8000948:	4618      	mov	r0, r3
 800094a:	3710      	adds	r7, #16
 800094c:	46bd      	mov	sp, r7
 800094e:	e8bd 4080 	ldmia.w	sp!, {r7, lr}
 8000952:	b002      	add	sp, #8
 8000954:	4770      	bx	lr
 8000956:	bf00      	nop
 8000958:	2000000d 	.word	0x2000000d

0800095c <find_next_blank_page>:
 *      Author: aidencontini
 */

#include "data_read_spi.h"

uint32_t find_next_blank_page(SPI_HandleTypeDef *hspi, GPIO_PinState *end_of_flash_ptr, GPIO_Config config) {
 800095c:	e92d 43f0 	stmdb	sp!, {r4, r5, r6, r7, r8, r9, lr}
 8000960:	b091      	sub	sp, #68	; 0x44
 8000962:	af04      	add	r7, sp, #16
 8000964:	60f8      	str	r0, [r7, #12]
 8000966:	60b9      	str	r1, [r7, #8]
 8000968:	4639      	mov	r1, r7
 800096a:	e881 000c 	stmia.w	r1, {r2, r3}
 800096e:	466b      	mov	r3, sp
 8000970:	461e      	mov	r6, r3
	uint8_t firstBytes = 4;
 8000972:	2304      	movs	r3, #4
 8000974:	77fb      	strb	r3, [r7, #31]

	uint8_t page_start[firstBytes];
 8000976:	7ff9      	ldrb	r1, [r7, #31]
 8000978:	460b      	mov	r3, r1
 800097a:	3b01      	subs	r3, #1
 800097c:	61bb      	str	r3, [r7, #24]
 800097e:	b2cb      	uxtb	r3, r1
 8000980:	2200      	movs	r2, #0
 8000982:	4698      	mov	r8, r3
 8000984:	4691      	mov	r9, r2
 8000986:	f04f 0200 	mov.w	r2, #0
 800098a:	f04f 0300 	mov.w	r3, #0
 800098e:	ea4f 03c9 	mov.w	r3, r9, lsl #3
 8000992:	ea43 7358 	orr.w	r3, r3, r8, lsr #29
 8000996:	ea4f 02c8 	mov.w	r2, r8, lsl #3
 800099a:	b2cb      	uxtb	r3, r1
 800099c:	2200      	movs	r2, #0
 800099e:	461c      	mov	r4, r3
 80009a0:	4615      	mov	r5, r2
 80009a2:	f04f 0200 	mov.w	r2, #0
 80009a6:	f04f 0300 	mov.w	r3, #0
 80009aa:	00eb      	lsls	r3, r5, #3
 80009ac:	ea43 7354 	orr.w	r3, r3, r4, lsr #29
 80009b0:	00e2      	lsls	r2, r4, #3
 80009b2:	460b      	mov	r3, r1
 80009b4:	3307      	adds	r3, #7
 80009b6:	08db      	lsrs	r3, r3, #3
 80009b8:	00db      	lsls	r3, r3, #3
 80009ba:	ebad 0d03 	sub.w	sp, sp, r3
 80009be:	ab04      	add	r3, sp, #16
 80009c0:	3300      	adds	r3, #0
 80009c2:	617b      	str	r3, [r7, #20]
	for (int i = 0; i < firstBytes; i++) {
 80009c4:	2300      	movs	r3, #0
 80009c6:	62fb      	str	r3, [r7, #44]	; 0x2c
 80009c8:	e007      	b.n	80009da <find_next_blank_page+0x7e>
		page_start[i] = 0;
 80009ca:	697a      	ldr	r2, [r7, #20]
 80009cc:	6afb      	ldr	r3, [r7, #44]	; 0x2c
 80009ce:	4413      	add	r3, r2
 80009d0:	2200      	movs	r2, #0
 80009d2:	701a      	strb	r2, [r3, #0]
	for (int i = 0; i < firstBytes; i++) {
 80009d4:	6afb      	ldr	r3, [r7, #44]	; 0x2c
 80009d6:	3301      	adds	r3, #1
 80009d8:	62fb      	str	r3, [r7, #44]	; 0x2c
 80009da:	7ffb      	ldrb	r3, [r7, #31]
 80009dc:	6afa      	ldr	r2, [r7, #44]	; 0x2c
 80009de:	429a      	cmp	r2, r3
 80009e0:	dbf3      	blt.n	80009ca <find_next_blank_page+0x6e>
	}

	uint32_t page_start_concat = (page_start[0] << 24) | (page_start[1] << 16) | (page_start[2] << 8) | page_start[3];
 80009e2:	697b      	ldr	r3, [r7, #20]
 80009e4:	781b      	ldrb	r3, [r3, #0]
 80009e6:	061a      	lsls	r2, r3, #24
 80009e8:	697b      	ldr	r3, [r7, #20]
 80009ea:	785b      	ldrb	r3, [r3, #1]
 80009ec:	041b      	lsls	r3, r3, #16
 80009ee:	431a      	orrs	r2, r3
 80009f0:	697b      	ldr	r3, [r7, #20]
 80009f2:	789b      	ldrb	r3, [r3, #2]
 80009f4:	021b      	lsls	r3, r3, #8
 80009f6:	4313      	orrs	r3, r2
 80009f8:	697a      	ldr	r2, [r7, #20]
 80009fa:	78d2      	ldrb	r2, [r2, #3]
 80009fc:	4313      	orrs	r3, r2
 80009fe:	62bb      	str	r3, [r7, #40]	; 0x28
	uint32_t temp = 0;
 8000a00:	2300      	movs	r3, #0
 8000a02:	627b      	str	r3, [r7, #36]	; 0x24
	uint32_t page_address = temp;
 8000a04:	6a7b      	ldr	r3, [r7, #36]	; 0x24
 8000a06:	623b      	str	r3, [r7, #32]

	while ((page_start_concat != 0xFFFFFFFF) || (temp == NUM_OF_PAGES)) {
 8000a08:	e027      	b.n	8000a5a <find_next_blank_page+0xfe>
		page_address = temp;
 8000a0a:	6a7b      	ldr	r3, [r7, #36]	; 0x24
 8000a0c:	623b      	str	r3, [r7, #32]

		check_busy(hspi, config, BSY_TIMEOUT_MS);
 8000a0e:	2305      	movs	r3, #5
 8000a10:	463a      	mov	r2, r7
 8000a12:	ca06      	ldmia	r2, {r1, r2}
 8000a14:	68f8      	ldr	r0, [r7, #12]
 8000a16:	f7ff fecb 	bl	80007b0 <check_busy>

		spi_read_data(&FLASH_READEN, firstBytes, page_start, hspi, page_address, config.GPIOx, config.GPIO_Pin);
 8000a1a:	7ffb      	ldrb	r3, [r7, #31]
 8000a1c:	b299      	uxth	r1, r3
 8000a1e:	683b      	ldr	r3, [r7, #0]
 8000a20:	88ba      	ldrh	r2, [r7, #4]
 8000a22:	9202      	str	r2, [sp, #8]
 8000a24:	9301      	str	r3, [sp, #4]
 8000a26:	6a3b      	ldr	r3, [r7, #32]
 8000a28:	9300      	str	r3, [sp, #0]
 8000a2a:	68fb      	ldr	r3, [r7, #12]
 8000a2c:	697a      	ldr	r2, [r7, #20]
 8000a2e:	4816      	ldr	r0, [pc, #88]	; (8000a88 <find_next_blank_page+0x12c>)
 8000a30:	f001 fa4c 	bl	8001ecc <spi_read_data>

		page_start_concat = (page_start[0] << 24) | (page_start[1] << 16) | (page_start[2] << 8) | page_start[3];
 8000a34:	697b      	ldr	r3, [r7, #20]
 8000a36:	781b      	ldrb	r3, [r3, #0]
 8000a38:	061a      	lsls	r2, r3, #24
 8000a3a:	697b      	ldr	r3, [r7, #20]
 8000a3c:	785b      	ldrb	r3, [r3, #1]
 8000a3e:	041b      	lsls	r3, r3, #16
 8000a40:	431a      	orrs	r2, r3
 8000a42:	697b      	ldr	r3, [r7, #20]
 8000a44:	789b      	ldrb	r3, [r3, #2]
 8000a46:	021b      	lsls	r3, r3, #8
 8000a48:	4313      	orrs	r3, r2
 8000a4a:	697a      	ldr	r2, [r7, #20]
 8000a4c:	78d2      	ldrb	r2, [r2, #3]
 8000a4e:	4313      	orrs	r3, r2
 8000a50:	62bb      	str	r3, [r7, #40]	; 0x28
		temp += PAGE_SIZE;
 8000a52:	6a7b      	ldr	r3, [r7, #36]	; 0x24
 8000a54:	f503 7380 	add.w	r3, r3, #256	; 0x100
 8000a58:	627b      	str	r3, [r7, #36]	; 0x24
	while ((page_start_concat != 0xFFFFFFFF) || (temp == NUM_OF_PAGES)) {
 8000a5a:	6abb      	ldr	r3, [r7, #40]	; 0x28
 8000a5c:	f1b3 3fff 	cmp.w	r3, #4294967295	; 0xffffffff
 8000a60:	d1d3      	bne.n	8000a0a <find_next_blank_page+0xae>
 8000a62:	6a7b      	ldr	r3, [r7, #36]	; 0x24
 8000a64:	f5b3 3f80 	cmp.w	r3, #65536	; 0x10000
 8000a68:	d0cf      	beq.n	8000a0a <find_next_blank_page+0xae>
	}

	if (page_address == (NUM_OF_PAGES * PAGE_SIZE)) {
 8000a6a:	6a3b      	ldr	r3, [r7, #32]
 8000a6c:	f1b3 7f80 	cmp.w	r3, #16777216	; 0x1000000
 8000a70:	d102      	bne.n	8000a78 <find_next_blank_page+0x11c>
		*end_of_flash_ptr = GPIO_PIN_RESET;
 8000a72:	68bb      	ldr	r3, [r7, #8]
 8000a74:	2200      	movs	r2, #0
 8000a76:	701a      	strb	r2, [r3, #0]
	}
	return page_address;
 8000a78:	6a3b      	ldr	r3, [r7, #32]
 8000a7a:	46b5      	mov	sp, r6
}
 8000a7c:	4618      	mov	r0, r3
 8000a7e:	3734      	adds	r7, #52	; 0x34
 8000a80:	46bd      	mov	sp, r7
 8000a82:	e8bd 83f0 	ldmia.w	sp!, {r4, r5, r6, r7, r8, r9, pc}
 8000a86:	bf00      	nop
 8000a88:	2000000f 	.word	0x2000000f

08000a8c <read_page_spi>:

void read_page_spi(uint8_t data_read[PAGE_SIZE], SPI_HandleTypeDef *hspi, uint32_t addr, GPIO_Config config) {
 8000a8c:	b082      	sub	sp, #8
 8000a8e:	b580      	push	{r7, lr}
 8000a90:	b088      	sub	sp, #32
 8000a92:	af04      	add	r7, sp, #16
 8000a94:	60f8      	str	r0, [r7, #12]
 8000a96:	60b9      	str	r1, [r7, #8]
 8000a98:	607a      	str	r2, [r7, #4]
 8000a9a:	61fb      	str	r3, [r7, #28]

	// Read the status register to ensure no write is currently in progress
	check_busy(hspi, config, BSY_TIMEOUT_MS);
 8000a9c:	2305      	movs	r3, #5
 8000a9e:	f107 021c 	add.w	r2, r7, #28
 8000aa2:	ca06      	ldmia	r2, {r1, r2}
 8000aa4:	68b8      	ldr	r0, [r7, #8]
 8000aa6:	f7ff fe83 	bl	80007b0 <check_busy>
	spi_read_data(&FLASH_READEN, PAGE_SIZE, data_read, hspi, addr, config.GPIOx, config.GPIO_Pin);
 8000aaa:	69fb      	ldr	r3, [r7, #28]
 8000aac:	8c3a      	ldrh	r2, [r7, #32]
 8000aae:	9202      	str	r2, [sp, #8]
 8000ab0:	9301      	str	r3, [sp, #4]
 8000ab2:	687b      	ldr	r3, [r7, #4]
 8000ab4:	9300      	str	r3, [sp, #0]
 8000ab6:	68bb      	ldr	r3, [r7, #8]
 8000ab8:	68fa      	ldr	r2, [r7, #12]
 8000aba:	f44f 7180 	mov.w	r1, #256	; 0x100
 8000abe:	4805      	ldr	r0, [pc, #20]	; (8000ad4 <read_page_spi+0x48>)
 8000ac0:	f001 fa04 	bl	8001ecc <spi_read_data>
}
 8000ac4:	bf00      	nop
 8000ac6:	3710      	adds	r7, #16
 8000ac8:	46bd      	mov	sp, r7
 8000aca:	e8bd 4080 	ldmia.w	sp!, {r7, lr}
 8000ace:	b002      	add	sp, #8
 8000ad0:	4770      	bx	lr
 8000ad2:	bf00      	nop
 8000ad4:	2000000f 	.word	0x2000000f

08000ad8 <read_manufacturer_id>:

void read_manufacturer_id(uint8_t manu[2], SPI_HandleTypeDef *hspi, GPIO_Config config) {
 8000ad8:	b580      	push	{r7, lr}
 8000ada:	b08a      	sub	sp, #40	; 0x28
 8000adc:	af04      	add	r7, sp, #16
 8000ade:	60f8      	str	r0, [r7, #12]
 8000ae0:	60b9      	str	r1, [r7, #8]
 8000ae2:	4639      	mov	r1, r7
 8000ae4:	e881 000c 	stmia.w	r1, {r2, r3}

	// Read the status register to ensure no write is currently in progress
	check_busy(hspi, config, BSY_TIMEOUT_MS);
 8000ae8:	2305      	movs	r3, #5
 8000aea:	463a      	mov	r2, r7
 8000aec:	ca06      	ldmia	r2, {r1, r2}
 8000aee:	68b8      	ldr	r0, [r7, #8]
 8000af0:	f7ff fe5e 	bl	80007b0 <check_busy>

	// Read the entire contents of a page starting from the given address
	uint8_t addr = 0x00;
 8000af4:	2300      	movs	r3, #0
 8000af6:	75fb      	strb	r3, [r7, #23]
	spi_read_data(&FLASH_READ_MANU, 2, manu, hspi, addr, config.GPIOx, config.GPIO_Pin);
 8000af8:	7dfb      	ldrb	r3, [r7, #23]
 8000afa:	683a      	ldr	r2, [r7, #0]
 8000afc:	88b9      	ldrh	r1, [r7, #4]
 8000afe:	9102      	str	r1, [sp, #8]
 8000b00:	9201      	str	r2, [sp, #4]
 8000b02:	9300      	str	r3, [sp, #0]
 8000b04:	68bb      	ldr	r3, [r7, #8]
 8000b06:	68fa      	ldr	r2, [r7, #12]
 8000b08:	2102      	movs	r1, #2
 8000b0a:	4803      	ldr	r0, [pc, #12]	; (8000b18 <read_manufacturer_id+0x40>)
 8000b0c:	f001 f9de 	bl	8001ecc <spi_read_data>
}
 8000b10:	bf00      	nop
 8000b12:	3718      	adds	r7, #24
 8000b14:	46bd      	mov	sp, r7
 8000b16:	bd80      	pop	{r7, pc}
 8000b18:	20000010 	.word	0x20000010

08000b1c <create_GPIO_Config>:
 */

#include "gpio_struct.h"

// Function to initialize the GPIO_Config struct
GPIO_Config create_GPIO_Config(GPIO_TypeDef* GPIOx, uint16_t GPIO_Pin) {
 8000b1c:	b480      	push	{r7}
 8000b1e:	b087      	sub	sp, #28
 8000b20:	af00      	add	r7, sp, #0
 8000b22:	60f8      	str	r0, [r7, #12]
 8000b24:	60b9      	str	r1, [r7, #8]
 8000b26:	4613      	mov	r3, r2
 8000b28:	80fb      	strh	r3, [r7, #6]
    GPIO_Config new_config;
    new_config.GPIOx = GPIOx;
 8000b2a:	68bb      	ldr	r3, [r7, #8]
 8000b2c:	613b      	str	r3, [r7, #16]
    new_config.GPIO_Pin = GPIO_Pin;
 8000b2e:	88fb      	ldrh	r3, [r7, #6]
 8000b30:	82bb      	strh	r3, [r7, #20]
    return new_config;
 8000b32:	68fb      	ldr	r3, [r7, #12]
 8000b34:	461a      	mov	r2, r3
 8000b36:	f107 0310 	add.w	r3, r7, #16
 8000b3a:	e893 0003 	ldmia.w	r3, {r0, r1}
 8000b3e:	e882 0003 	stmia.w	r2, {r0, r1}
}
 8000b42:	68f8      	ldr	r0, [r7, #12]
 8000b44:	371c      	adds	r7, #28
 8000b46:	46bd      	mov	sp, r7
 8000b48:	f85d 7b04 	ldr.w	r7, [sp], #4
 8000b4c:	4770      	bx	lr

08000b4e <i2c_read_reg>:
 *      Author: aidencontini
 */

#include "i2c_driver.h"

HAL_StatusTypeDef i2c_read_reg(I2C_HandleTypeDef* hi2c, uint8_t* data_ptr, uint8_t dev_addr, uint8_t* register_addr) {
 8000b4e:	b580      	push	{r7, lr}
 8000b50:	b088      	sub	sp, #32
 8000b52:	af02      	add	r7, sp, #8
 8000b54:	60f8      	str	r0, [r7, #12]
 8000b56:	60b9      	str	r1, [r7, #8]
 8000b58:	603b      	str	r3, [r7, #0]
 8000b5a:	4613      	mov	r3, r2
 8000b5c:	71fb      	strb	r3, [r7, #7]
	HAL_I2C_Master_Transmit(hi2c, (dev_addr << 1) & 0xFE, register_addr, 1, I2C_TIMEOUT_SML);
 8000b5e:	79fb      	ldrb	r3, [r7, #7]
 8000b60:	005b      	lsls	r3, r3, #1
 8000b62:	b29b      	uxth	r3, r3
 8000b64:	b2db      	uxtb	r3, r3
 8000b66:	b299      	uxth	r1, r3
 8000b68:	2301      	movs	r3, #1
 8000b6a:	9300      	str	r3, [sp, #0]
 8000b6c:	2301      	movs	r3, #1
 8000b6e:	683a      	ldr	r2, [r7, #0]
 8000b70:	68f8      	ldr	r0, [r7, #12]
 8000b72:	f002 fa4b 	bl	800300c <HAL_I2C_Master_Transmit>
	HAL_StatusTypeDef hal_status = HAL_I2C_Master_Receive(hi2c, (dev_addr << 1) | 0x01, data_ptr, 1, I2C_TIMEOUT_SML);
 8000b76:	79fb      	ldrb	r3, [r7, #7]
 8000b78:	005b      	lsls	r3, r3, #1
 8000b7a:	b21b      	sxth	r3, r3
 8000b7c:	f043 0301 	orr.w	r3, r3, #1
 8000b80:	b21b      	sxth	r3, r3
 8000b82:	b299      	uxth	r1, r3
 8000b84:	2301      	movs	r3, #1
 8000b86:	9300      	str	r3, [sp, #0]
 8000b88:	2301      	movs	r3, #1
 8000b8a:	68ba      	ldr	r2, [r7, #8]
 8000b8c:	68f8      	ldr	r0, [r7, #12]
 8000b8e:	f002 fb3b 	bl	8003208 <HAL_I2C_Master_Receive>
 8000b92:	4603      	mov	r3, r0
 8000b94:	75fb      	strb	r3, [r7, #23]

	return hal_status;
 8000b96:	7dfb      	ldrb	r3, [r7, #23]
}
 8000b98:	4618      	mov	r0, r3
 8000b9a:	3718      	adds	r7, #24
 8000b9c:	46bd      	mov	sp, r7
 8000b9e:	bd80      	pop	{r7, pc}

08000ba0 <i2c_burst_read>:

HAL_StatusTypeDef i2c_burst_read(I2C_HandleTypeDef* hi2c, uint8_t dev_addr, uint8_t register_addr, uint8_t size, uint8_t data_buffer[size]) {
 8000ba0:	b580      	push	{r7, lr}
 8000ba2:	b086      	sub	sp, #24
 8000ba4:	af02      	add	r7, sp, #8
 8000ba6:	6078      	str	r0, [r7, #4]
 8000ba8:	4608      	mov	r0, r1
 8000baa:	4611      	mov	r1, r2
 8000bac:	461a      	mov	r2, r3
 8000bae:	4603      	mov	r3, r0
 8000bb0:	70fb      	strb	r3, [r7, #3]
 8000bb2:	460b      	mov	r3, r1
 8000bb4:	70bb      	strb	r3, [r7, #2]
 8000bb6:	4613      	mov	r3, r2
 8000bb8:	707b      	strb	r3, [r7, #1]
	// In order to read multiple bytes, it is necessary to assert the most significant bit of the sub-address field.
	uint8_t addr = register_addr | 0x80;
 8000bba:	78bb      	ldrb	r3, [r7, #2]
 8000bbc:	f063 037f 	orn	r3, r3, #127	; 0x7f
 8000bc0:	b2db      	uxtb	r3, r3
 8000bc2:	73bb      	strb	r3, [r7, #14]
	HAL_I2C_Master_Transmit(hi2c, (dev_addr << 1) & 0xFE, &addr, 1, I2C_TIMEOUT_SML);
 8000bc4:	78fb      	ldrb	r3, [r7, #3]
 8000bc6:	005b      	lsls	r3, r3, #1
 8000bc8:	b29b      	uxth	r3, r3
 8000bca:	b2db      	uxtb	r3, r3
 8000bcc:	b299      	uxth	r1, r3
 8000bce:	f107 020e 	add.w	r2, r7, #14
 8000bd2:	2301      	movs	r3, #1
 8000bd4:	9300      	str	r3, [sp, #0]
 8000bd6:	2301      	movs	r3, #1
 8000bd8:	6878      	ldr	r0, [r7, #4]
 8000bda:	f002 fa17 	bl	800300c <HAL_I2C_Master_Transmit>
	HAL_StatusTypeDef hal_status =  HAL_I2C_Master_Receive(hi2c, (dev_addr << 1) | 0x01, data_buffer, size, I2C_TIMEOUT_LRG);
 8000bde:	78fb      	ldrb	r3, [r7, #3]
 8000be0:	005b      	lsls	r3, r3, #1
 8000be2:	b21b      	sxth	r3, r3
 8000be4:	f043 0301 	orr.w	r3, r3, #1
 8000be8:	b21b      	sxth	r3, r3
 8000bea:	b299      	uxth	r1, r3
 8000bec:	787b      	ldrb	r3, [r7, #1]
 8000bee:	b29b      	uxth	r3, r3
 8000bf0:	220a      	movs	r2, #10
 8000bf2:	9200      	str	r2, [sp, #0]
 8000bf4:	69ba      	ldr	r2, [r7, #24]
 8000bf6:	6878      	ldr	r0, [r7, #4]
 8000bf8:	f002 fb06 	bl	8003208 <HAL_I2C_Master_Receive>
 8000bfc:	4603      	mov	r3, r0
 8000bfe:	73fb      	strb	r3, [r7, #15]

	return hal_status;
 8000c00:	7bfb      	ldrb	r3, [r7, #15]
}
 8000c02:	4618      	mov	r0, r3
 8000c04:	3710      	adds	r7, #16
 8000c06:	46bd      	mov	sp, r7
 8000c08:	bd80      	pop	{r7, pc}

08000c0a <i2c_write_reg>:

HAL_StatusTypeDef i2c_write_reg(I2C_HandleTypeDef* hi2c, uint8_t dev_addr, uint8_t* register_addr, uint8_t data) {
 8000c0a:	b580      	push	{r7, lr}
 8000c0c:	b088      	sub	sp, #32
 8000c0e:	af02      	add	r7, sp, #8
 8000c10:	60f8      	str	r0, [r7, #12]
 8000c12:	607a      	str	r2, [r7, #4]
 8000c14:	461a      	mov	r2, r3
 8000c16:	460b      	mov	r3, r1
 8000c18:	72fb      	strb	r3, [r7, #11]
 8000c1a:	4613      	mov	r3, r2
 8000c1c:	72bb      	strb	r3, [r7, #10]
	uint8_t data_tx[2] = {*register_addr, data};
 8000c1e:	687b      	ldr	r3, [r7, #4]
 8000c20:	781b      	ldrb	r3, [r3, #0]
 8000c22:	753b      	strb	r3, [r7, #20]
 8000c24:	7abb      	ldrb	r3, [r7, #10]
 8000c26:	757b      	strb	r3, [r7, #21]
	HAL_StatusTypeDef hal_status = HAL_I2C_Master_Transmit(hi2c, (dev_addr << 1) & 0xFE, data_tx, 2, I2C_TIMEOUT_SML);
 8000c28:	7afb      	ldrb	r3, [r7, #11]
 8000c2a:	005b      	lsls	r3, r3, #1
 8000c2c:	b29b      	uxth	r3, r3
 8000c2e:	b2db      	uxtb	r3, r3
 8000c30:	b299      	uxth	r1, r3
 8000c32:	f107 0214 	add.w	r2, r7, #20
 8000c36:	2301      	movs	r3, #1
 8000c38:	9300      	str	r3, [sp, #0]
 8000c3a:	2302      	movs	r3, #2
 8000c3c:	68f8      	ldr	r0, [r7, #12]
 8000c3e:	f002 f9e5 	bl	800300c <HAL_I2C_Master_Transmit>
 8000c42:	4603      	mov	r3, r0
 8000c44:	75fb      	strb	r3, [r7, #23]

	return hal_status;
 8000c46:	7dfb      	ldrb	r3, [r7, #23]
}
 8000c48:	4618      	mov	r0, r3
 8000c4a:	3718      	adds	r7, #24
 8000c4c:	46bd      	mov	sp, r7
 8000c4e:	bd80      	pop	{r7, pc}

08000c50 <main>:
/**
  * @brief  The application entry point.
  * @retval int
  */
int main(void)
{
 8000c50:	b580      	push	{r7, lr}
 8000c52:	af00      	add	r7, sp, #0
  /* USER CODE END 1 */

  /* MCU Configuration--------------------------------------------------------*/

  /* Reset of all peripherals, Initializes the Flash interface and the Systick. */
  HAL_Init();
 8000c54:	f001 fc7c 	bl	8002550 <HAL_Init>
  /* USER CODE BEGIN Init */

  /* USER CODE END Init */

  /* Configure the system clock */
  SystemClock_Config();
 8000c58:	f000 f842 	bl	8000ce0 <SystemClock_Config>
  /* USER CODE BEGIN SysInit */

  /* USER CODE END SysInit */

  /* Initialize all configured peripherals */
  MX_GPIO_Init();
 8000c5c:	f000 fa14 	bl	8001088 <MX_GPIO_Init>
  MX_I2C1_Init();
 8000c60:	f000 f8a0 	bl	8000da4 <MX_I2C1_Init>
  MX_RTC_Init();
 8000c64:	f000 f91e 	bl	8000ea4 <MX_RTC_Init>
  MX_SPI1_Init();
 8000c68:	f000 f942 	bl	8000ef0 <MX_SPI1_Init>
  MX_TIM6_Init();
 8000c6c:	f000 f9ac 	bl	8000fc8 <MX_TIM6_Init>
  MX_USART2_UART_Init();
 8000c70:	f000 f9e0 	bl	8001034 <MX_USART2_UART_Init>
  MX_I2C2_Init();
 8000c74:	f000 f8d6 	bl	8000e24 <MX_I2C2_Init>
  MX_SPI2_Init();
 8000c78:	f000 f970 	bl	8000f5c <MX_SPI2_Init>
  /* USER CODE BEGIN 2 */
  systemInit();
 8000c7c:	f000 fafa 	bl	8001274 <systemInit>
  while (1)
  {
    /* USER CODE END WHILE */

    /* USER CODE BEGIN 3 */
	  if(uart2_rec_flag == 0x01) {
 8000c80:	4b11      	ldr	r3, [pc, #68]	; (8000cc8 <main+0x78>)
 8000c82:	781b      	ldrb	r3, [r3, #0]
 8000c84:	2b01      	cmp	r3, #1
 8000c86:	d101      	bne.n	8000c8c <main+0x3c>
		  handleUART();
 8000c88:	f000 fc24 	bl	80014d4 <handleUART>
	  }

	  if(tim6_overflow_flag == 0x01) {
 8000c8c:	4b0f      	ldr	r3, [pc, #60]	; (8000ccc <main+0x7c>)
 8000c8e:	781b      	ldrb	r3, [r3, #0]
 8000c90:	2b01      	cmp	r3, #1
 8000c92:	d1f5      	bne.n	8000c80 <main+0x30>
		  HAL_GPIO_TogglePin(led_orange.GPIOx, led_orange.GPIO_Pin);		// Toggle LED
 8000c94:	4b0e      	ldr	r3, [pc, #56]	; (8000cd0 <main+0x80>)
 8000c96:	681b      	ldr	r3, [r3, #0]
 8000c98:	4a0d      	ldr	r2, [pc, #52]	; (8000cd0 <main+0x80>)
 8000c9a:	8892      	ldrh	r2, [r2, #4]
 8000c9c:	4611      	mov	r1, r2
 8000c9e:	4618      	mov	r0, r3
 8000ca0:	f002 f855 	bl	8002d4e <HAL_GPIO_TogglePin>
		  readAllSensors(&hi2c1, &hi2c2, &hrtc);
 8000ca4:	4a0b      	ldr	r2, [pc, #44]	; (8000cd4 <main+0x84>)
 8000ca6:	490c      	ldr	r1, [pc, #48]	; (8000cd8 <main+0x88>)
 8000ca8:	480c      	ldr	r0, [pc, #48]	; (8000cdc <main+0x8c>)
 8000caa:	f000 ff9d 	bl	8001be8 <readAllSensors>
		  tim6_overflow_flag = 0x00;
 8000cae:	4b07      	ldr	r3, [pc, #28]	; (8000ccc <main+0x7c>)
 8000cb0:	2200      	movs	r2, #0
 8000cb2:	701a      	strb	r2, [r3, #0]
		  HAL_GPIO_TogglePin(led_orange.GPIOx, led_orange.GPIO_Pin);		// Toggle LED
 8000cb4:	4b06      	ldr	r3, [pc, #24]	; (8000cd0 <main+0x80>)
 8000cb6:	681b      	ldr	r3, [r3, #0]
 8000cb8:	4a05      	ldr	r2, [pc, #20]	; (8000cd0 <main+0x80>)
 8000cba:	8892      	ldrh	r2, [r2, #4]
 8000cbc:	4611      	mov	r1, r2
 8000cbe:	4618      	mov	r0, r3
 8000cc0:	f002 f845 	bl	8002d4e <HAL_GPIO_TogglePin>
	  if(uart2_rec_flag == 0x01) {
 8000cc4:	e7dc      	b.n	8000c80 <main+0x30>
 8000cc6:	bf00      	nop
 8000cc8:	2000024a 	.word	0x2000024a
 8000ccc:	2000024b 	.word	0x2000024b
 8000cd0:	20000470 	.word	0x20000470
 8000cd4:	200000e8 	.word	0x200000e8
 8000cd8:	20000094 	.word	0x20000094
 8000cdc:	20000040 	.word	0x20000040

08000ce0 <SystemClock_Config>:
/**
  * @brief System Clock Configuration
  * @retval None
  */
void SystemClock_Config(void)
{
 8000ce0:	b580      	push	{r7, lr}
 8000ce2:	b094      	sub	sp, #80	; 0x50
 8000ce4:	af00      	add	r7, sp, #0
  RCC_OscInitTypeDef RCC_OscInitStruct = {0};
 8000ce6:	f107 0320 	add.w	r3, r7, #32
 8000cea:	2230      	movs	r2, #48	; 0x30
 8000cec:	2100      	movs	r1, #0
 8000cee:	4618      	mov	r0, r3
 8000cf0:	f006 fb2c 	bl	800734c <memset>
  RCC_ClkInitTypeDef RCC_ClkInitStruct = {0};
 8000cf4:	f107 030c 	add.w	r3, r7, #12
 8000cf8:	2200      	movs	r2, #0
 8000cfa:	601a      	str	r2, [r3, #0]
 8000cfc:	605a      	str	r2, [r3, #4]
 8000cfe:	609a      	str	r2, [r3, #8]
 8000d00:	60da      	str	r2, [r3, #12]
 8000d02:	611a      	str	r2, [r3, #16]

  /** Configure the main internal regulator output voltage
  */
  __HAL_RCC_PWR_CLK_ENABLE();
 8000d04:	2300      	movs	r3, #0
 8000d06:	60bb      	str	r3, [r7, #8]
 8000d08:	4b24      	ldr	r3, [pc, #144]	; (8000d9c <SystemClock_Config+0xbc>)
 8000d0a:	6c1b      	ldr	r3, [r3, #64]	; 0x40
 8000d0c:	4a23      	ldr	r2, [pc, #140]	; (8000d9c <SystemClock_Config+0xbc>)
 8000d0e:	f043 5380 	orr.w	r3, r3, #268435456	; 0x10000000
 8000d12:	6413      	str	r3, [r2, #64]	; 0x40
 8000d14:	4b21      	ldr	r3, [pc, #132]	; (8000d9c <SystemClock_Config+0xbc>)
 8000d16:	6c1b      	ldr	r3, [r3, #64]	; 0x40
 8000d18:	f003 5380 	and.w	r3, r3, #268435456	; 0x10000000
 8000d1c:	60bb      	str	r3, [r7, #8]
 8000d1e:	68bb      	ldr	r3, [r7, #8]
  __HAL_PWR_VOLTAGESCALING_CONFIG(PWR_REGULATOR_VOLTAGE_SCALE3);
 8000d20:	2300      	movs	r3, #0
 8000d22:	607b      	str	r3, [r7, #4]
 8000d24:	4b1e      	ldr	r3, [pc, #120]	; (8000da0 <SystemClock_Config+0xc0>)
 8000d26:	681b      	ldr	r3, [r3, #0]
 8000d28:	f423 4340 	bic.w	r3, r3, #49152	; 0xc000
 8000d2c:	4a1c      	ldr	r2, [pc, #112]	; (8000da0 <SystemClock_Config+0xc0>)
 8000d2e:	f443 4380 	orr.w	r3, r3, #16384	; 0x4000
 8000d32:	6013      	str	r3, [r2, #0]
 8000d34:	4b1a      	ldr	r3, [pc, #104]	; (8000da0 <SystemClock_Config+0xc0>)
 8000d36:	681b      	ldr	r3, [r3, #0]
 8000d38:	f403 4340 	and.w	r3, r3, #49152	; 0xc000
 8000d3c:	607b      	str	r3, [r7, #4]
 8000d3e:	687b      	ldr	r3, [r7, #4]

  /** Initializes the RCC Oscillators according to the specified parameters
  * in the RCC_OscInitTypeDef structure.
  */
  RCC_OscInitStruct.OscillatorType = RCC_OSCILLATORTYPE_HSI|RCC_OSCILLATORTYPE_LSI;
 8000d40:	230a      	movs	r3, #10
 8000d42:	623b      	str	r3, [r7, #32]
  RCC_OscInitStruct.HSIState = RCC_HSI_ON;
 8000d44:	2301      	movs	r3, #1
 8000d46:	62fb      	str	r3, [r7, #44]	; 0x2c
  RCC_OscInitStruct.HSICalibrationValue = RCC_HSICALIBRATION_DEFAULT;
 8000d48:	2310      	movs	r3, #16
 8000d4a:	633b      	str	r3, [r7, #48]	; 0x30
  RCC_OscInitStruct.LSIState = RCC_LSI_ON;
 8000d4c:	2301      	movs	r3, #1
 8000d4e:	637b      	str	r3, [r7, #52]	; 0x34
  RCC_OscInitStruct.PLL.PLLState = RCC_PLL_NONE;
 8000d50:	2300      	movs	r3, #0
 8000d52:	63bb      	str	r3, [r7, #56]	; 0x38
  if (HAL_RCC_OscConfig(&RCC_OscInitStruct) != HAL_OK)
 8000d54:	f107 0320 	add.w	r3, r7, #32
 8000d58:	4618      	mov	r0, r3
 8000d5a:	f003 f889 	bl	8003e70 <HAL_RCC_OscConfig>
 8000d5e:	4603      	mov	r3, r0
 8000d60:	2b00      	cmp	r3, #0
 8000d62:	d001      	beq.n	8000d68 <SystemClock_Config+0x88>
  {
    Error_Handler();
 8000d64:	f000 fcf3 	bl	800174e <Error_Handler>
  }

  /** Initializes the CPU, AHB and APB buses clocks
  */
  RCC_ClkInitStruct.ClockType = RCC_CLOCKTYPE_HCLK|RCC_CLOCKTYPE_SYSCLK
 8000d68:	230f      	movs	r3, #15
 8000d6a:	60fb      	str	r3, [r7, #12]
                              |RCC_CLOCKTYPE_PCLK1|RCC_CLOCKTYPE_PCLK2;
  RCC_ClkInitStruct.SYSCLKSource = RCC_SYSCLKSOURCE_HSI;
 8000d6c:	2300      	movs	r3, #0
 8000d6e:	613b      	str	r3, [r7, #16]
  RCC_ClkInitStruct.AHBCLKDivider = RCC_SYSCLK_DIV1;
 8000d70:	2300      	movs	r3, #0
 8000d72:	617b      	str	r3, [r7, #20]
  RCC_ClkInitStruct.APB1CLKDivider = RCC_HCLK_DIV1;
 8000d74:	2300      	movs	r3, #0
 8000d76:	61bb      	str	r3, [r7, #24]
  RCC_ClkInitStruct.APB2CLKDivider = RCC_HCLK_DIV1;
 8000d78:	2300      	movs	r3, #0
 8000d7a:	61fb      	str	r3, [r7, #28]

  if (HAL_RCC_ClockConfig(&RCC_ClkInitStruct, FLASH_LATENCY_0) != HAL_OK)
 8000d7c:	f107 030c 	add.w	r3, r7, #12
 8000d80:	2100      	movs	r1, #0
 8000d82:	4618      	mov	r0, r3
 8000d84:	f003 faec 	bl	8004360 <HAL_RCC_ClockConfig>
 8000d88:	4603      	mov	r3, r0
 8000d8a:	2b00      	cmp	r3, #0
 8000d8c:	d001      	beq.n	8000d92 <SystemClock_Config+0xb2>
  {
    Error_Handler();
 8000d8e:	f000 fcde 	bl	800174e <Error_Handler>
  }
}
 8000d92:	bf00      	nop
 8000d94:	3750      	adds	r7, #80	; 0x50
 8000d96:	46bd      	mov	sp, r7
 8000d98:	bd80      	pop	{r7, pc}
 8000d9a:	bf00      	nop
 8000d9c:	40023800 	.word	0x40023800
 8000da0:	40007000 	.word	0x40007000

08000da4 <MX_I2C1_Init>:
  * @brief I2C1 Initialization Function
  * @param None
  * @retval None
  */
static void MX_I2C1_Init(void)
{
 8000da4:	b580      	push	{r7, lr}
 8000da6:	af00      	add	r7, sp, #0
  /* USER CODE END I2C1_Init 0 */

  /* USER CODE BEGIN I2C1_Init 1 */

  /* USER CODE END I2C1_Init 1 */
  hi2c1.Instance = I2C1;
 8000da8:	4b1b      	ldr	r3, [pc, #108]	; (8000e18 <MX_I2C1_Init+0x74>)
 8000daa:	4a1c      	ldr	r2, [pc, #112]	; (8000e1c <MX_I2C1_Init+0x78>)
 8000dac:	601a      	str	r2, [r3, #0]
  hi2c1.Init.ClockSpeed = 100000;
 8000dae:	4b1a      	ldr	r3, [pc, #104]	; (8000e18 <MX_I2C1_Init+0x74>)
 8000db0:	4a1b      	ldr	r2, [pc, #108]	; (8000e20 <MX_I2C1_Init+0x7c>)
 8000db2:	605a      	str	r2, [r3, #4]
  hi2c1.Init.DutyCycle = I2C_DUTYCYCLE_2;
 8000db4:	4b18      	ldr	r3, [pc, #96]	; (8000e18 <MX_I2C1_Init+0x74>)
 8000db6:	2200      	movs	r2, #0
 8000db8:	609a      	str	r2, [r3, #8]
  hi2c1.Init.OwnAddress1 = 0;
 8000dba:	4b17      	ldr	r3, [pc, #92]	; (8000e18 <MX_I2C1_Init+0x74>)
 8000dbc:	2200      	movs	r2, #0
 8000dbe:	60da      	str	r2, [r3, #12]
  hi2c1.Init.AddressingMode = I2C_ADDRESSINGMODE_7BIT;
 8000dc0:	4b15      	ldr	r3, [pc, #84]	; (8000e18 <MX_I2C1_Init+0x74>)
 8000dc2:	f44f 4280 	mov.w	r2, #16384	; 0x4000
 8000dc6:	611a      	str	r2, [r3, #16]
  hi2c1.Init.DualAddressMode = I2C_DUALADDRESS_DISABLE;
 8000dc8:	4b13      	ldr	r3, [pc, #76]	; (8000e18 <MX_I2C1_Init+0x74>)
 8000dca:	2200      	movs	r2, #0
 8000dcc:	615a      	str	r2, [r3, #20]
  hi2c1.Init.OwnAddress2 = 0;
 8000dce:	4b12      	ldr	r3, [pc, #72]	; (8000e18 <MX_I2C1_Init+0x74>)
 8000dd0:	2200      	movs	r2, #0
 8000dd2:	619a      	str	r2, [r3, #24]
  hi2c1.Init.GeneralCallMode = I2C_GENERALCALL_DISABLE;
 8000dd4:	4b10      	ldr	r3, [pc, #64]	; (8000e18 <MX_I2C1_Init+0x74>)
 8000dd6:	2200      	movs	r2, #0
 8000dd8:	61da      	str	r2, [r3, #28]
  hi2c1.Init.NoStretchMode = I2C_NOSTRETCH_DISABLE;
 8000dda:	4b0f      	ldr	r3, [pc, #60]	; (8000e18 <MX_I2C1_Init+0x74>)
 8000ddc:	2200      	movs	r2, #0
 8000dde:	621a      	str	r2, [r3, #32]
  if (HAL_I2C_Init(&hi2c1) != HAL_OK)
 8000de0:	480d      	ldr	r0, [pc, #52]	; (8000e18 <MX_I2C1_Init+0x74>)
 8000de2:	f001 ffcf 	bl	8002d84 <HAL_I2C_Init>
 8000de6:	4603      	mov	r3, r0
 8000de8:	2b00      	cmp	r3, #0
 8000dea:	d001      	beq.n	8000df0 <MX_I2C1_Init+0x4c>
  {
    Error_Handler();
 8000dec:	f000 fcaf 	bl	800174e <Error_Handler>
  }

  /** Configure Analogue filter
  */
  if (HAL_I2CEx_ConfigAnalogFilter(&hi2c1, I2C_ANALOGFILTER_ENABLE) != HAL_OK)
 8000df0:	2100      	movs	r1, #0
 8000df2:	4809      	ldr	r0, [pc, #36]	; (8000e18 <MX_I2C1_Init+0x74>)
 8000df4:	f002 ffc0 	bl	8003d78 <HAL_I2CEx_ConfigAnalogFilter>
 8000df8:	4603      	mov	r3, r0
 8000dfa:	2b00      	cmp	r3, #0
 8000dfc:	d001      	beq.n	8000e02 <MX_I2C1_Init+0x5e>
  {
    Error_Handler();
 8000dfe:	f000 fca6 	bl	800174e <Error_Handler>
  }

  /** Configure Digital filter
  */
  if (HAL_I2CEx_ConfigDigitalFilter(&hi2c1, 0) != HAL_OK)
 8000e02:	2100      	movs	r1, #0
 8000e04:	4804      	ldr	r0, [pc, #16]	; (8000e18 <MX_I2C1_Init+0x74>)
 8000e06:	f002 fff3 	bl	8003df0 <HAL_I2CEx_ConfigDigitalFilter>
 8000e0a:	4603      	mov	r3, r0
 8000e0c:	2b00      	cmp	r3, #0
 8000e0e:	d001      	beq.n	8000e14 <MX_I2C1_Init+0x70>
  {
    Error_Handler();
 8000e10:	f000 fc9d 	bl	800174e <Error_Handler>
  }
  /* USER CODE BEGIN I2C1_Init 2 */

  /* USER CODE END I2C1_Init 2 */

}
 8000e14:	bf00      	nop
 8000e16:	bd80      	pop	{r7, pc}
 8000e18:	20000040 	.word	0x20000040
 8000e1c:	40005400 	.word	0x40005400
 8000e20:	000186a0 	.word	0x000186a0

08000e24 <MX_I2C2_Init>:
  * @brief I2C2 Initialization Function
  * @param None
  * @retval None
  */
static void MX_I2C2_Init(void)
{
 8000e24:	b580      	push	{r7, lr}
 8000e26:	af00      	add	r7, sp, #0
  /* USER CODE END I2C2_Init 0 */

  /* USER CODE BEGIN I2C2_Init 1 */

  /* USER CODE END I2C2_Init 1 */
  hi2c2.Instance = I2C2;
 8000e28:	4b1b      	ldr	r3, [pc, #108]	; (8000e98 <MX_I2C2_Init+0x74>)
 8000e2a:	4a1c      	ldr	r2, [pc, #112]	; (8000e9c <MX_I2C2_Init+0x78>)
 8000e2c:	601a      	str	r2, [r3, #0]
  hi2c2.Init.ClockSpeed = 100000;
 8000e2e:	4b1a      	ldr	r3, [pc, #104]	; (8000e98 <MX_I2C2_Init+0x74>)
 8000e30:	4a1b      	ldr	r2, [pc, #108]	; (8000ea0 <MX_I2C2_Init+0x7c>)
 8000e32:	605a      	str	r2, [r3, #4]
  hi2c2.Init.DutyCycle = I2C_DUTYCYCLE_2;
 8000e34:	4b18      	ldr	r3, [pc, #96]	; (8000e98 <MX_I2C2_Init+0x74>)
 8000e36:	2200      	movs	r2, #0
 8000e38:	609a      	str	r2, [r3, #8]
  hi2c2.Init.OwnAddress1 = 0;
 8000e3a:	4b17      	ldr	r3, [pc, #92]	; (8000e98 <MX_I2C2_Init+0x74>)
 8000e3c:	2200      	movs	r2, #0
 8000e3e:	60da      	str	r2, [r3, #12]
  hi2c2.Init.AddressingMode = I2C_ADDRESSINGMODE_7BIT;
 8000e40:	4b15      	ldr	r3, [pc, #84]	; (8000e98 <MX_I2C2_Init+0x74>)
 8000e42:	f44f 4280 	mov.w	r2, #16384	; 0x4000
 8000e46:	611a      	str	r2, [r3, #16]
  hi2c2.Init.DualAddressMode = I2C_DUALADDRESS_DISABLE;
 8000e48:	4b13      	ldr	r3, [pc, #76]	; (8000e98 <MX_I2C2_Init+0x74>)
 8000e4a:	2200      	movs	r2, #0
 8000e4c:	615a      	str	r2, [r3, #20]
  hi2c2.Init.OwnAddress2 = 0;
 8000e4e:	4b12      	ldr	r3, [pc, #72]	; (8000e98 <MX_I2C2_Init+0x74>)
 8000e50:	2200      	movs	r2, #0
 8000e52:	619a      	str	r2, [r3, #24]
  hi2c2.Init.GeneralCallMode = I2C_GENERALCALL_DISABLE;
 8000e54:	4b10      	ldr	r3, [pc, #64]	; (8000e98 <MX_I2C2_Init+0x74>)
 8000e56:	2200      	movs	r2, #0
 8000e58:	61da      	str	r2, [r3, #28]
  hi2c2.Init.NoStretchMode = I2C_NOSTRETCH_DISABLE;
 8000e5a:	4b0f      	ldr	r3, [pc, #60]	; (8000e98 <MX_I2C2_Init+0x74>)
 8000e5c:	2200      	movs	r2, #0
 8000e5e:	621a      	str	r2, [r3, #32]
  if (HAL_I2C_Init(&hi2c2) != HAL_OK)
 8000e60:	480d      	ldr	r0, [pc, #52]	; (8000e98 <MX_I2C2_Init+0x74>)
 8000e62:	f001 ff8f 	bl	8002d84 <HAL_I2C_Init>
 8000e66:	4603      	mov	r3, r0
 8000e68:	2b00      	cmp	r3, #0
 8000e6a:	d001      	beq.n	8000e70 <MX_I2C2_Init+0x4c>
  {
    Error_Handler();
 8000e6c:	f000 fc6f 	bl	800174e <Error_Handler>
  }

  /** Configure Analogue filter
  */
  if (HAL_I2CEx_ConfigAnalogFilter(&hi2c2, I2C_ANALOGFILTER_ENABLE) != HAL_OK)
 8000e70:	2100      	movs	r1, #0
 8000e72:	4809      	ldr	r0, [pc, #36]	; (8000e98 <MX_I2C2_Init+0x74>)
 8000e74:	f002 ff80 	bl	8003d78 <HAL_I2CEx_ConfigAnalogFilter>
 8000e78:	4603      	mov	r3, r0
 8000e7a:	2b00      	cmp	r3, #0
 8000e7c:	d001      	beq.n	8000e82 <MX_I2C2_Init+0x5e>
  {
    Error_Handler();
 8000e7e:	f000 fc66 	bl	800174e <Error_Handler>
  }

  /** Configure Digital filter
  */
  if (HAL_I2CEx_ConfigDigitalFilter(&hi2c2, 0) != HAL_OK)
 8000e82:	2100      	movs	r1, #0
 8000e84:	4804      	ldr	r0, [pc, #16]	; (8000e98 <MX_I2C2_Init+0x74>)
 8000e86:	f002 ffb3 	bl	8003df0 <HAL_I2CEx_ConfigDigitalFilter>
 8000e8a:	4603      	mov	r3, r0
 8000e8c:	2b00      	cmp	r3, #0
 8000e8e:	d001      	beq.n	8000e94 <MX_I2C2_Init+0x70>
  {
    Error_Handler();
 8000e90:	f000 fc5d 	bl	800174e <Error_Handler>
  }
  /* USER CODE BEGIN I2C2_Init 2 */

  /* USER CODE END I2C2_Init 2 */

}
 8000e94:	bf00      	nop
 8000e96:	bd80      	pop	{r7, pc}
 8000e98:	20000094 	.word	0x20000094
 8000e9c:	40005800 	.word	0x40005800
 8000ea0:	000186a0 	.word	0x000186a0

08000ea4 <MX_RTC_Init>:
  * @brief RTC Initialization Function
  * @param None
  * @retval None
  */
static void MX_RTC_Init(void)
{
 8000ea4:	b580      	push	{r7, lr}
 8000ea6:	af00      	add	r7, sp, #0

  /* USER CODE END RTC_Init 1 */

  /** Initialize RTC Only
  */
  hrtc.Instance = RTC;
 8000ea8:	4b0f      	ldr	r3, [pc, #60]	; (8000ee8 <MX_RTC_Init+0x44>)
 8000eaa:	4a10      	ldr	r2, [pc, #64]	; (8000eec <MX_RTC_Init+0x48>)
 8000eac:	601a      	str	r2, [r3, #0]
  hrtc.Init.HourFormat = RTC_HOURFORMAT_24;
 8000eae:	4b0e      	ldr	r3, [pc, #56]	; (8000ee8 <MX_RTC_Init+0x44>)
 8000eb0:	2200      	movs	r2, #0
 8000eb2:	605a      	str	r2, [r3, #4]
  hrtc.Init.AsynchPrediv = 127;
 8000eb4:	4b0c      	ldr	r3, [pc, #48]	; (8000ee8 <MX_RTC_Init+0x44>)
 8000eb6:	227f      	movs	r2, #127	; 0x7f
 8000eb8:	609a      	str	r2, [r3, #8]
  hrtc.Init.SynchPrediv = 255;
 8000eba:	4b0b      	ldr	r3, [pc, #44]	; (8000ee8 <MX_RTC_Init+0x44>)
 8000ebc:	22ff      	movs	r2, #255	; 0xff
 8000ebe:	60da      	str	r2, [r3, #12]
  hrtc.Init.OutPut = RTC_OUTPUT_DISABLE;
 8000ec0:	4b09      	ldr	r3, [pc, #36]	; (8000ee8 <MX_RTC_Init+0x44>)
 8000ec2:	2200      	movs	r2, #0
 8000ec4:	611a      	str	r2, [r3, #16]
  hrtc.Init.OutPutPolarity = RTC_OUTPUT_POLARITY_HIGH;
 8000ec6:	4b08      	ldr	r3, [pc, #32]	; (8000ee8 <MX_RTC_Init+0x44>)
 8000ec8:	2200      	movs	r2, #0
 8000eca:	615a      	str	r2, [r3, #20]
  hrtc.Init.OutPutType = RTC_OUTPUT_TYPE_OPENDRAIN;
 8000ecc:	4b06      	ldr	r3, [pc, #24]	; (8000ee8 <MX_RTC_Init+0x44>)
 8000ece:	2200      	movs	r2, #0
 8000ed0:	619a      	str	r2, [r3, #24]
  if (HAL_RTC_Init(&hrtc) != HAL_OK)
 8000ed2:	4805      	ldr	r0, [pc, #20]	; (8000ee8 <MX_RTC_Init+0x44>)
 8000ed4:	f003 fde4 	bl	8004aa0 <HAL_RTC_Init>
 8000ed8:	4603      	mov	r3, r0
 8000eda:	2b00      	cmp	r3, #0
 8000edc:	d001      	beq.n	8000ee2 <MX_RTC_Init+0x3e>
  {
    Error_Handler();
 8000ede:	f000 fc36 	bl	800174e <Error_Handler>
  }
  /* USER CODE BEGIN RTC_Init 2 */

  /* USER CODE END RTC_Init 2 */

}
 8000ee2:	bf00      	nop
 8000ee4:	bd80      	pop	{r7, pc}
 8000ee6:	bf00      	nop
 8000ee8:	200000e8 	.word	0x200000e8
 8000eec:	40002800 	.word	0x40002800

08000ef0 <MX_SPI1_Init>:
  * @brief SPI1 Initialization Function
  * @param None
  * @retval None
  */
static void MX_SPI1_Init(void)
{
 8000ef0:	b580      	push	{r7, lr}
 8000ef2:	af00      	add	r7, sp, #0

  /* USER CODE BEGIN SPI1_Init 1 */

  /* USER CODE END SPI1_Init 1 */
  /* SPI1 parameter configuration*/
  hspi1.Instance = SPI1;
 8000ef4:	4b17      	ldr	r3, [pc, #92]	; (8000f54 <MX_SPI1_Init+0x64>)
 8000ef6:	4a18      	ldr	r2, [pc, #96]	; (8000f58 <MX_SPI1_Init+0x68>)
 8000ef8:	601a      	str	r2, [r3, #0]
  hspi1.Init.Mode = SPI_MODE_MASTER;
 8000efa:	4b16      	ldr	r3, [pc, #88]	; (8000f54 <MX_SPI1_Init+0x64>)
 8000efc:	f44f 7282 	mov.w	r2, #260	; 0x104
 8000f00:	605a      	str	r2, [r3, #4]
  hspi1.Init.Direction = SPI_DIRECTION_2LINES;
 8000f02:	4b14      	ldr	r3, [pc, #80]	; (8000f54 <MX_SPI1_Init+0x64>)
 8000f04:	2200      	movs	r2, #0
 8000f06:	609a      	str	r2, [r3, #8]
  hspi1.Init.DataSize = SPI_DATASIZE_8BIT;
 8000f08:	4b12      	ldr	r3, [pc, #72]	; (8000f54 <MX_SPI1_Init+0x64>)
 8000f0a:	2200      	movs	r2, #0
 8000f0c:	60da      	str	r2, [r3, #12]
  hspi1.Init.CLKPolarity = SPI_POLARITY_LOW;
 8000f0e:	4b11      	ldr	r3, [pc, #68]	; (8000f54 <MX_SPI1_Init+0x64>)
 8000f10:	2200      	movs	r2, #0
 8000f12:	611a      	str	r2, [r3, #16]
  hspi1.Init.CLKPhase = SPI_PHASE_1EDGE;
 8000f14:	4b0f      	ldr	r3, [pc, #60]	; (8000f54 <MX_SPI1_Init+0x64>)
 8000f16:	2200      	movs	r2, #0
 8000f18:	615a      	str	r2, [r3, #20]
  hspi1.Init.NSS = SPI_NSS_SOFT;
 8000f1a:	4b0e      	ldr	r3, [pc, #56]	; (8000f54 <MX_SPI1_Init+0x64>)
 8000f1c:	f44f 7200 	mov.w	r2, #512	; 0x200
 8000f20:	619a      	str	r2, [r3, #24]
  hspi1.Init.BaudRatePrescaler = SPI_BAUDRATEPRESCALER_2;
 8000f22:	4b0c      	ldr	r3, [pc, #48]	; (8000f54 <MX_SPI1_Init+0x64>)
 8000f24:	2200      	movs	r2, #0
 8000f26:	61da      	str	r2, [r3, #28]
  hspi1.Init.FirstBit = SPI_FIRSTBIT_MSB;
 8000f28:	4b0a      	ldr	r3, [pc, #40]	; (8000f54 <MX_SPI1_Init+0x64>)
 8000f2a:	2200      	movs	r2, #0
 8000f2c:	621a      	str	r2, [r3, #32]
  hspi1.Init.TIMode = SPI_TIMODE_DISABLE;
 8000f2e:	4b09      	ldr	r3, [pc, #36]	; (8000f54 <MX_SPI1_Init+0x64>)
 8000f30:	2200      	movs	r2, #0
 8000f32:	625a      	str	r2, [r3, #36]	; 0x24
  hspi1.Init.CRCCalculation = SPI_CRCCALCULATION_DISABLE;
 8000f34:	4b07      	ldr	r3, [pc, #28]	; (8000f54 <MX_SPI1_Init+0x64>)
 8000f36:	2200      	movs	r2, #0
 8000f38:	629a      	str	r2, [r3, #40]	; 0x28
  hspi1.Init.CRCPolynomial = 10;
 8000f3a:	4b06      	ldr	r3, [pc, #24]	; (8000f54 <MX_SPI1_Init+0x64>)
 8000f3c:	220a      	movs	r2, #10
 8000f3e:	62da      	str	r2, [r3, #44]	; 0x2c
  if (HAL_SPI_Init(&hspi1) != HAL_OK)
 8000f40:	4804      	ldr	r0, [pc, #16]	; (8000f54 <MX_SPI1_Init+0x64>)
 8000f42:	f004 f8b9 	bl	80050b8 <HAL_SPI_Init>
 8000f46:	4603      	mov	r3, r0
 8000f48:	2b00      	cmp	r3, #0
 8000f4a:	d001      	beq.n	8000f50 <MX_SPI1_Init+0x60>
  {
    Error_Handler();
 8000f4c:	f000 fbff 	bl	800174e <Error_Handler>
  }
  /* USER CODE BEGIN SPI1_Init 2 */

  /* USER CODE END SPI1_Init 2 */

}
 8000f50:	bf00      	nop
 8000f52:	bd80      	pop	{r7, pc}
 8000f54:	20000108 	.word	0x20000108
 8000f58:	40013000 	.word	0x40013000

08000f5c <MX_SPI2_Init>:
  * @brief SPI2 Initialization Function
  * @param None
  * @retval None
  */
static void MX_SPI2_Init(void)
{
 8000f5c:	b580      	push	{r7, lr}
 8000f5e:	af00      	add	r7, sp, #0

  /* USER CODE BEGIN SPI2_Init 1 */

  /* USER CODE END SPI2_Init 1 */
  /* SPI2 parameter configuration*/
  hspi2.Instance = SPI2;
 8000f60:	4b17      	ldr	r3, [pc, #92]	; (8000fc0 <MX_SPI2_Init+0x64>)
 8000f62:	4a18      	ldr	r2, [pc, #96]	; (8000fc4 <MX_SPI2_Init+0x68>)
 8000f64:	601a      	str	r2, [r3, #0]
  hspi2.Init.Mode = SPI_MODE_MASTER;
 8000f66:	4b16      	ldr	r3, [pc, #88]	; (8000fc0 <MX_SPI2_Init+0x64>)
 8000f68:	f44f 7282 	mov.w	r2, #260	; 0x104
 8000f6c:	605a      	str	r2, [r3, #4]
  hspi2.Init.Direction = SPI_DIRECTION_2LINES;
 8000f6e:	4b14      	ldr	r3, [pc, #80]	; (8000fc0 <MX_SPI2_Init+0x64>)
 8000f70:	2200      	movs	r2, #0
 8000f72:	609a      	str	r2, [r3, #8]
  hspi2.Init.DataSize = SPI_DATASIZE_8BIT;
 8000f74:	4b12      	ldr	r3, [pc, #72]	; (8000fc0 <MX_SPI2_Init+0x64>)
 8000f76:	2200      	movs	r2, #0
 8000f78:	60da      	str	r2, [r3, #12]
  hspi2.Init.CLKPolarity = SPI_POLARITY_LOW;
 8000f7a:	4b11      	ldr	r3, [pc, #68]	; (8000fc0 <MX_SPI2_Init+0x64>)
 8000f7c:	2200      	movs	r2, #0
 8000f7e:	611a      	str	r2, [r3, #16]
  hspi2.Init.CLKPhase = SPI_PHASE_1EDGE;
 8000f80:	4b0f      	ldr	r3, [pc, #60]	; (8000fc0 <MX_SPI2_Init+0x64>)
 8000f82:	2200      	movs	r2, #0
 8000f84:	615a      	str	r2, [r3, #20]
  hspi2.Init.NSS = SPI_NSS_SOFT;
 8000f86:	4b0e      	ldr	r3, [pc, #56]	; (8000fc0 <MX_SPI2_Init+0x64>)
 8000f88:	f44f 7200 	mov.w	r2, #512	; 0x200
 8000f8c:	619a      	str	r2, [r3, #24]
  hspi2.Init.BaudRatePrescaler = SPI_BAUDRATEPRESCALER_2;
 8000f8e:	4b0c      	ldr	r3, [pc, #48]	; (8000fc0 <MX_SPI2_Init+0x64>)
 8000f90:	2200      	movs	r2, #0
 8000f92:	61da      	str	r2, [r3, #28]
  hspi2.Init.FirstBit = SPI_FIRSTBIT_MSB;
 8000f94:	4b0a      	ldr	r3, [pc, #40]	; (8000fc0 <MX_SPI2_Init+0x64>)
 8000f96:	2200      	movs	r2, #0
 8000f98:	621a      	str	r2, [r3, #32]
  hspi2.Init.TIMode = SPI_TIMODE_DISABLE;
 8000f9a:	4b09      	ldr	r3, [pc, #36]	; (8000fc0 <MX_SPI2_Init+0x64>)
 8000f9c:	2200      	movs	r2, #0
 8000f9e:	625a      	str	r2, [r3, #36]	; 0x24
  hspi2.Init.CRCCalculation = SPI_CRCCALCULATION_DISABLE;
 8000fa0:	4b07      	ldr	r3, [pc, #28]	; (8000fc0 <MX_SPI2_Init+0x64>)
 8000fa2:	2200      	movs	r2, #0
 8000fa4:	629a      	str	r2, [r3, #40]	; 0x28
  hspi2.Init.CRCPolynomial = 10;
 8000fa6:	4b06      	ldr	r3, [pc, #24]	; (8000fc0 <MX_SPI2_Init+0x64>)
 8000fa8:	220a      	movs	r2, #10
 8000faa:	62da      	str	r2, [r3, #44]	; 0x2c
  if (HAL_SPI_Init(&hspi2) != HAL_OK)
 8000fac:	4804      	ldr	r0, [pc, #16]	; (8000fc0 <MX_SPI2_Init+0x64>)
 8000fae:	f004 f883 	bl	80050b8 <HAL_SPI_Init>
 8000fb2:	4603      	mov	r3, r0
 8000fb4:	2b00      	cmp	r3, #0
 8000fb6:	d001      	beq.n	8000fbc <MX_SPI2_Init+0x60>
  {
    Error_Handler();
 8000fb8:	f000 fbc9 	bl	800174e <Error_Handler>
  }
  /* USER CODE BEGIN SPI2_Init 2 */

  /* USER CODE END SPI2_Init 2 */

}
 8000fbc:	bf00      	nop
 8000fbe:	bd80      	pop	{r7, pc}
 8000fc0:	20000160 	.word	0x20000160
 8000fc4:	40003800 	.word	0x40003800

08000fc8 <MX_TIM6_Init>:
  * @brief TIM6 Initialization Function
  * @param None
  * @retval None
  */
static void MX_TIM6_Init(void)
{
 8000fc8:	b580      	push	{r7, lr}
 8000fca:	b082      	sub	sp, #8
 8000fcc:	af00      	add	r7, sp, #0

  /* USER CODE BEGIN TIM6_Init 0 */

  /* USER CODE END TIM6_Init 0 */

  TIM_MasterConfigTypeDef sMasterConfig = {0};
 8000fce:	463b      	mov	r3, r7
 8000fd0:	2200      	movs	r2, #0
 8000fd2:	601a      	str	r2, [r3, #0]
 8000fd4:	605a      	str	r2, [r3, #4]

  /* USER CODE BEGIN TIM6_Init 1 */

  /* USER CODE END TIM6_Init 1 */
  htim6.Instance = TIM6;
 8000fd6:	4b15      	ldr	r3, [pc, #84]	; (800102c <MX_TIM6_Init+0x64>)
 8000fd8:	4a15      	ldr	r2, [pc, #84]	; (8001030 <MX_TIM6_Init+0x68>)
 8000fda:	601a      	str	r2, [r3, #0]
  htim6.Init.Prescaler = 15999;
 8000fdc:	4b13      	ldr	r3, [pc, #76]	; (800102c <MX_TIM6_Init+0x64>)
 8000fde:	f643 627f 	movw	r2, #15999	; 0x3e7f
 8000fe2:	605a      	str	r2, [r3, #4]
  htim6.Init.CounterMode = TIM_COUNTERMODE_UP;
 8000fe4:	4b11      	ldr	r3, [pc, #68]	; (800102c <MX_TIM6_Init+0x64>)
 8000fe6:	2200      	movs	r2, #0
 8000fe8:	609a      	str	r2, [r3, #8]
  htim6.Init.Period = 1000;
 8000fea:	4b10      	ldr	r3, [pc, #64]	; (800102c <MX_TIM6_Init+0x64>)
 8000fec:	f44f 727a 	mov.w	r2, #1000	; 0x3e8
 8000ff0:	60da      	str	r2, [r3, #12]
  htim6.Init.AutoReloadPreload = TIM_AUTORELOAD_PRELOAD_DISABLE;
 8000ff2:	4b0e      	ldr	r3, [pc, #56]	; (800102c <MX_TIM6_Init+0x64>)
 8000ff4:	2200      	movs	r2, #0
 8000ff6:	619a      	str	r2, [r3, #24]
  if (HAL_TIM_Base_Init(&htim6) != HAL_OK)
 8000ff8:	480c      	ldr	r0, [pc, #48]	; (800102c <MX_TIM6_Init+0x64>)
 8000ffa:	f004 fe33 	bl	8005c64 <HAL_TIM_Base_Init>
 8000ffe:	4603      	mov	r3, r0
 8001000:	2b00      	cmp	r3, #0
 8001002:	d001      	beq.n	8001008 <MX_TIM6_Init+0x40>
  {
    Error_Handler();
 8001004:	f000 fba3 	bl	800174e <Error_Handler>
  }
  sMasterConfig.MasterOutputTrigger = TIM_TRGO_RESET;
 8001008:	2300      	movs	r3, #0
 800100a:	603b      	str	r3, [r7, #0]
  sMasterConfig.MasterSlaveMode = TIM_MASTERSLAVEMODE_DISABLE;
 800100c:	2300      	movs	r3, #0
 800100e:	607b      	str	r3, [r7, #4]
  if (HAL_TIMEx_MasterConfigSynchronization(&htim6, &sMasterConfig) != HAL_OK)
 8001010:	463b      	mov	r3, r7
 8001012:	4619      	mov	r1, r3
 8001014:	4805      	ldr	r0, [pc, #20]	; (800102c <MX_TIM6_Init+0x64>)
 8001016:	f005 f8b3 	bl	8006180 <HAL_TIMEx_MasterConfigSynchronization>
 800101a:	4603      	mov	r3, r0
 800101c:	2b00      	cmp	r3, #0
 800101e:	d001      	beq.n	8001024 <MX_TIM6_Init+0x5c>
  {
    Error_Handler();
 8001020:	f000 fb95 	bl	800174e <Error_Handler>
  }
  /* USER CODE BEGIN TIM6_Init 2 */

  /* USER CODE END TIM6_Init 2 */

}
 8001024:	bf00      	nop
 8001026:	3708      	adds	r7, #8
 8001028:	46bd      	mov	sp, r7
 800102a:	bd80      	pop	{r7, pc}
 800102c:	200001b8 	.word	0x200001b8
 8001030:	40001000 	.word	0x40001000

08001034 <MX_USART2_UART_Init>:
  * @brief USART2 Initialization Function
  * @param None
  * @retval None
  */
static void MX_USART2_UART_Init(void)
{
 8001034:	b580      	push	{r7, lr}
 8001036:	af00      	add	r7, sp, #0
  /* USER CODE END USART2_Init 0 */

  /* USER CODE BEGIN USART2_Init 1 */

  /* USER CODE END USART2_Init 1 */
  huart2.Instance = USART2;
 8001038:	4b11      	ldr	r3, [pc, #68]	; (8001080 <MX_USART2_UART_Init+0x4c>)
 800103a:	4a12      	ldr	r2, [pc, #72]	; (8001084 <MX_USART2_UART_Init+0x50>)
 800103c:	601a      	str	r2, [r3, #0]
  huart2.Init.BaudRate = 9600;
 800103e:	4b10      	ldr	r3, [pc, #64]	; (8001080 <MX_USART2_UART_Init+0x4c>)
 8001040:	f44f 5216 	mov.w	r2, #9600	; 0x2580
 8001044:	605a      	str	r2, [r3, #4]
  huart2.Init.WordLength = UART_WORDLENGTH_8B;
 8001046:	4b0e      	ldr	r3, [pc, #56]	; (8001080 <MX_USART2_UART_Init+0x4c>)
 8001048:	2200      	movs	r2, #0
 800104a:	609a      	str	r2, [r3, #8]
  huart2.Init.StopBits = UART_STOPBITS_1;
 800104c:	4b0c      	ldr	r3, [pc, #48]	; (8001080 <MX_USART2_UART_Init+0x4c>)
 800104e:	2200      	movs	r2, #0
 8001050:	60da      	str	r2, [r3, #12]
  huart2.Init.Parity = UART_PARITY_NONE;
 8001052:	4b0b      	ldr	r3, [pc, #44]	; (8001080 <MX_USART2_UART_Init+0x4c>)
 8001054:	2200      	movs	r2, #0
 8001056:	611a      	str	r2, [r3, #16]
  huart2.Init.Mode = UART_MODE_TX_RX;
 8001058:	4b09      	ldr	r3, [pc, #36]	; (8001080 <MX_USART2_UART_Init+0x4c>)
 800105a:	220c      	movs	r2, #12
 800105c:	615a      	str	r2, [r3, #20]
  huart2.Init.HwFlowCtl = UART_HWCONTROL_NONE;
 800105e:	4b08      	ldr	r3, [pc, #32]	; (8001080 <MX_USART2_UART_Init+0x4c>)
 8001060:	2200      	movs	r2, #0
 8001062:	619a      	str	r2, [r3, #24]
  huart2.Init.OverSampling = UART_OVERSAMPLING_16;
 8001064:	4b06      	ldr	r3, [pc, #24]	; (8001080 <MX_USART2_UART_Init+0x4c>)
 8001066:	2200      	movs	r2, #0
 8001068:	61da      	str	r2, [r3, #28]
  if (HAL_UART_Init(&huart2) != HAL_OK)
 800106a:	4805      	ldr	r0, [pc, #20]	; (8001080 <MX_USART2_UART_Init+0x4c>)
 800106c:	f005 f918 	bl	80062a0 <HAL_UART_Init>
 8001070:	4603      	mov	r3, r0
 8001072:	2b00      	cmp	r3, #0
 8001074:	d001      	beq.n	800107a <MX_USART2_UART_Init+0x46>
  {
    Error_Handler();
 8001076:	f000 fb6a 	bl	800174e <Error_Handler>
  }
  /* USER CODE BEGIN USART2_Init 2 */

  /* USER CODE END USART2_Init 2 */

}
 800107a:	bf00      	nop
 800107c:	bd80      	pop	{r7, pc}
 800107e:	bf00      	nop
 8001080:	20000200 	.word	0x20000200
 8001084:	40004400 	.word	0x40004400

08001088 <MX_GPIO_Init>:
  * @brief GPIO Initialization Function
  * @param None
  * @retval None
  */
static void MX_GPIO_Init(void)
{
 8001088:	b580      	push	{r7, lr}
 800108a:	b08a      	sub	sp, #40	; 0x28
 800108c:	af00      	add	r7, sp, #0
  GPIO_InitTypeDef GPIO_InitStruct = {0};
 800108e:	f107 0314 	add.w	r3, r7, #20
 8001092:	2200      	movs	r2, #0
 8001094:	601a      	str	r2, [r3, #0]
 8001096:	605a      	str	r2, [r3, #4]
 8001098:	609a      	str	r2, [r3, #8]
 800109a:	60da      	str	r2, [r3, #12]
 800109c:	611a      	str	r2, [r3, #16]
/* USER CODE BEGIN MX_GPIO_Init_1 */
/* USER CODE END MX_GPIO_Init_1 */

  /* GPIO Ports Clock Enable */
  __HAL_RCC_GPIOC_CLK_ENABLE();
 800109e:	2300      	movs	r3, #0
 80010a0:	613b      	str	r3, [r7, #16]
 80010a2:	4b5f      	ldr	r3, [pc, #380]	; (8001220 <MX_GPIO_Init+0x198>)
 80010a4:	6b1b      	ldr	r3, [r3, #48]	; 0x30
 80010a6:	4a5e      	ldr	r2, [pc, #376]	; (8001220 <MX_GPIO_Init+0x198>)
 80010a8:	f043 0304 	orr.w	r3, r3, #4
 80010ac:	6313      	str	r3, [r2, #48]	; 0x30
 80010ae:	4b5c      	ldr	r3, [pc, #368]	; (8001220 <MX_GPIO_Init+0x198>)
 80010b0:	6b1b      	ldr	r3, [r3, #48]	; 0x30
 80010b2:	f003 0304 	and.w	r3, r3, #4
 80010b6:	613b      	str	r3, [r7, #16]
 80010b8:	693b      	ldr	r3, [r7, #16]
  __HAL_RCC_GPIOH_CLK_ENABLE();
 80010ba:	2300      	movs	r3, #0
 80010bc:	60fb      	str	r3, [r7, #12]
 80010be:	4b58      	ldr	r3, [pc, #352]	; (8001220 <MX_GPIO_Init+0x198>)
 80010c0:	6b1b      	ldr	r3, [r3, #48]	; 0x30
 80010c2:	4a57      	ldr	r2, [pc, #348]	; (8001220 <MX_GPIO_Init+0x198>)
 80010c4:	f043 0380 	orr.w	r3, r3, #128	; 0x80
 80010c8:	6313      	str	r3, [r2, #48]	; 0x30
 80010ca:	4b55      	ldr	r3, [pc, #340]	; (8001220 <MX_GPIO_Init+0x198>)
 80010cc:	6b1b      	ldr	r3, [r3, #48]	; 0x30
 80010ce:	f003 0380 	and.w	r3, r3, #128	; 0x80
 80010d2:	60fb      	str	r3, [r7, #12]
 80010d4:	68fb      	ldr	r3, [r7, #12]
  __HAL_RCC_GPIOA_CLK_ENABLE();
 80010d6:	2300      	movs	r3, #0
 80010d8:	60bb      	str	r3, [r7, #8]
 80010da:	4b51      	ldr	r3, [pc, #324]	; (8001220 <MX_GPIO_Init+0x198>)
 80010dc:	6b1b      	ldr	r3, [r3, #48]	; 0x30
 80010de:	4a50      	ldr	r2, [pc, #320]	; (8001220 <MX_GPIO_Init+0x198>)
 80010e0:	f043 0301 	orr.w	r3, r3, #1
 80010e4:	6313      	str	r3, [r2, #48]	; 0x30
 80010e6:	4b4e      	ldr	r3, [pc, #312]	; (8001220 <MX_GPIO_Init+0x198>)
 80010e8:	6b1b      	ldr	r3, [r3, #48]	; 0x30
 80010ea:	f003 0301 	and.w	r3, r3, #1
 80010ee:	60bb      	str	r3, [r7, #8]
 80010f0:	68bb      	ldr	r3, [r7, #8]
  __HAL_RCC_GPIOB_CLK_ENABLE();
 80010f2:	2300      	movs	r3, #0
 80010f4:	607b      	str	r3, [r7, #4]
 80010f6:	4b4a      	ldr	r3, [pc, #296]	; (8001220 <MX_GPIO_Init+0x198>)
 80010f8:	6b1b      	ldr	r3, [r3, #48]	; 0x30
 80010fa:	4a49      	ldr	r2, [pc, #292]	; (8001220 <MX_GPIO_Init+0x198>)
 80010fc:	f043 0302 	orr.w	r3, r3, #2
 8001100:	6313      	str	r3, [r2, #48]	; 0x30
 8001102:	4b47      	ldr	r3, [pc, #284]	; (8001220 <MX_GPIO_Init+0x198>)
 8001104:	6b1b      	ldr	r3, [r3, #48]	; 0x30
 8001106:	f003 0302 	and.w	r3, r3, #2
 800110a:	607b      	str	r3, [r7, #4]
 800110c:	687b      	ldr	r3, [r7, #4]
  __HAL_RCC_GPIOD_CLK_ENABLE();
 800110e:	2300      	movs	r3, #0
 8001110:	603b      	str	r3, [r7, #0]
 8001112:	4b43      	ldr	r3, [pc, #268]	; (8001220 <MX_GPIO_Init+0x198>)
 8001114:	6b1b      	ldr	r3, [r3, #48]	; 0x30
 8001116:	4a42      	ldr	r2, [pc, #264]	; (8001220 <MX_GPIO_Init+0x198>)
 8001118:	f043 0308 	orr.w	r3, r3, #8
 800111c:	6313      	str	r3, [r2, #48]	; 0x30
 800111e:	4b40      	ldr	r3, [pc, #256]	; (8001220 <MX_GPIO_Init+0x198>)
 8001120:	6b1b      	ldr	r3, [r3, #48]	; 0x30
 8001122:	f003 0308 	and.w	r3, r3, #8
 8001126:	603b      	str	r3, [r7, #0]
 8001128:	683b      	ldr	r3, [r7, #0]

  /*Configure GPIO pin Output Level */
  HAL_GPIO_WritePin(SPI2_WP_GPIO_Port, SPI2_WP_Pin, GPIO_PIN_RESET);
 800112a:	2200      	movs	r2, #0
 800112c:	2101      	movs	r1, #1
 800112e:	483d      	ldr	r0, [pc, #244]	; (8001224 <MX_GPIO_Init+0x19c>)
 8001130:	f001 fdf4 	bl	8002d1c <HAL_GPIO_WritePin>

  /*Configure GPIO pin Output Level */
  HAL_GPIO_WritePin(GPIOB, SPI2_CS_Pin|LED3_Pin|LED2_Pin, GPIO_PIN_RESET);
 8001134:	2200      	movs	r2, #0
 8001136:	f44f 41a1 	mov.w	r1, #20608	; 0x5080
 800113a:	483b      	ldr	r0, [pc, #236]	; (8001228 <MX_GPIO_Init+0x1a0>)
 800113c:	f001 fdee 	bl	8002d1c <HAL_GPIO_WritePin>

  /*Configure GPIO pin Output Level */
  HAL_GPIO_WritePin(GPIOD, SPI1_WP_Pin|SPI1_CS_Pin, GPIO_PIN_RESET);
 8001140:	2200      	movs	r2, #0
 8001142:	f244 0104 	movw	r1, #16388	; 0x4004
 8001146:	4839      	ldr	r0, [pc, #228]	; (800122c <MX_GPIO_Init+0x1a4>)
 8001148:	f001 fde8 	bl	8002d1c <HAL_GPIO_WritePin>

  /*Configure GPIO pin : SPI2_WP_Pin */
  GPIO_InitStruct.Pin = SPI2_WP_Pin;
 800114c:	2301      	movs	r3, #1
 800114e:	617b      	str	r3, [r7, #20]
  GPIO_InitStruct.Mode = GPIO_MODE_OUTPUT_PP;
 8001150:	2301      	movs	r3, #1
 8001152:	61bb      	str	r3, [r7, #24]
  GPIO_InitStruct.Pull = GPIO_PULLUP;
 8001154:	2301      	movs	r3, #1
 8001156:	61fb      	str	r3, [r7, #28]
  GPIO_InitStruct.Speed = GPIO_SPEED_FREQ_LOW;
 8001158:	2300      	movs	r3, #0
 800115a:	623b      	str	r3, [r7, #32]
  HAL_GPIO_Init(SPI2_WP_GPIO_Port, &GPIO_InitStruct);
 800115c:	f107 0314 	add.w	r3, r7, #20
 8001160:	4619      	mov	r1, r3
 8001162:	4830      	ldr	r0, [pc, #192]	; (8001224 <MX_GPIO_Init+0x19c>)
 8001164:	f001 fc2e 	bl	80029c4 <HAL_GPIO_Init>

  /*Configure GPIO pin : JMP_Flight_Pin */
  GPIO_InitStruct.Pin = JMP_Flight_Pin;
 8001168:	2302      	movs	r3, #2
 800116a:	617b      	str	r3, [r7, #20]
  GPIO_InitStruct.Mode = GPIO_MODE_INPUT;
 800116c:	2300      	movs	r3, #0
 800116e:	61bb      	str	r3, [r7, #24]
  GPIO_InitStruct.Pull = GPIO_PULLDOWN;
 8001170:	2302      	movs	r3, #2
 8001172:	61fb      	str	r3, [r7, #28]
  HAL_GPIO_Init(JMP_Flight_GPIO_Port, &GPIO_InitStruct);
 8001174:	f107 0314 	add.w	r3, r7, #20
 8001178:	4619      	mov	r1, r3
 800117a:	482b      	ldr	r0, [pc, #172]	; (8001228 <MX_GPIO_Init+0x1a0>)
 800117c:	f001 fc22 	bl	80029c4 <HAL_GPIO_Init>

  /*Configure GPIO pin : SPI2_CS_Pin */
  GPIO_InitStruct.Pin = SPI2_CS_Pin;
 8001180:	f44f 5380 	mov.w	r3, #4096	; 0x1000
 8001184:	617b      	str	r3, [r7, #20]
  GPIO_InitStruct.Mode = GPIO_MODE_OUTPUT_PP;
 8001186:	2301      	movs	r3, #1
 8001188:	61bb      	str	r3, [r7, #24]
  GPIO_InitStruct.Pull = GPIO_PULLUP;
 800118a:	2301      	movs	r3, #1
 800118c:	61fb      	str	r3, [r7, #28]
  GPIO_InitStruct.Speed = GPIO_SPEED_FREQ_LOW;
 800118e:	2300      	movs	r3, #0
 8001190:	623b      	str	r3, [r7, #32]
  HAL_GPIO_Init(SPI2_CS_GPIO_Port, &GPIO_InitStruct);
 8001192:	f107 0314 	add.w	r3, r7, #20
 8001196:	4619      	mov	r1, r3
 8001198:	4823      	ldr	r0, [pc, #140]	; (8001228 <MX_GPIO_Init+0x1a0>)
 800119a:	f001 fc13 	bl	80029c4 <HAL_GPIO_Init>

  /*Configure GPIO pins : LED3_Pin LED2_Pin */
  GPIO_InitStruct.Pin = LED3_Pin|LED2_Pin;
 800119e:	f44f 4381 	mov.w	r3, #16512	; 0x4080
 80011a2:	617b      	str	r3, [r7, #20]
  GPIO_InitStruct.Mode = GPIO_MODE_OUTPUT_PP;
 80011a4:	2301      	movs	r3, #1
 80011a6:	61bb      	str	r3, [r7, #24]
  GPIO_InitStruct.Pull = GPIO_PULLDOWN;
 80011a8:	2302      	movs	r3, #2
 80011aa:	61fb      	str	r3, [r7, #28]
  GPIO_InitStruct.Speed = GPIO_SPEED_FREQ_LOW;
 80011ac:	2300      	movs	r3, #0
 80011ae:	623b      	str	r3, [r7, #32]
  HAL_GPIO_Init(GPIOB, &GPIO_InitStruct);
 80011b0:	f107 0314 	add.w	r3, r7, #20
 80011b4:	4619      	mov	r1, r3
 80011b6:	481c      	ldr	r0, [pc, #112]	; (8001228 <MX_GPIO_Init+0x1a0>)
 80011b8:	f001 fc04 	bl	80029c4 <HAL_GPIO_Init>

  /*Configure GPIO pin : SPI1_WP_Pin */
  GPIO_InitStruct.Pin = SPI1_WP_Pin;
 80011bc:	f44f 4380 	mov.w	r3, #16384	; 0x4000
 80011c0:	617b      	str	r3, [r7, #20]
  GPIO_InitStruct.Mode = GPIO_MODE_OUTPUT_PP;
 80011c2:	2301      	movs	r3, #1
 80011c4:	61bb      	str	r3, [r7, #24]
  GPIO_InitStruct.Pull = GPIO_PULLUP;
 80011c6:	2301      	movs	r3, #1
 80011c8:	61fb      	str	r3, [r7, #28]
  GPIO_InitStruct.Speed = GPIO_SPEED_FREQ_LOW;
 80011ca:	2300      	movs	r3, #0
 80011cc:	623b      	str	r3, [r7, #32]
  HAL_GPIO_Init(SPI1_WP_GPIO_Port, &GPIO_InitStruct);
 80011ce:	f107 0314 	add.w	r3, r7, #20
 80011d2:	4619      	mov	r1, r3
 80011d4:	4815      	ldr	r0, [pc, #84]	; (800122c <MX_GPIO_Init+0x1a4>)
 80011d6:	f001 fbf5 	bl	80029c4 <HAL_GPIO_Init>

  /*Configure GPIO pins : PA11 PA12 */
  GPIO_InitStruct.Pin = GPIO_PIN_11|GPIO_PIN_12;
 80011da:	f44f 53c0 	mov.w	r3, #6144	; 0x1800
 80011de:	617b      	str	r3, [r7, #20]
  GPIO_InitStruct.Mode = GPIO_MODE_AF_PP;
 80011e0:	2302      	movs	r3, #2
 80011e2:	61bb      	str	r3, [r7, #24]
  GPIO_InitStruct.Pull = GPIO_NOPULL;
 80011e4:	2300      	movs	r3, #0
 80011e6:	61fb      	str	r3, [r7, #28]
  GPIO_InitStruct.Speed = GPIO_SPEED_FREQ_VERY_HIGH;
 80011e8:	2303      	movs	r3, #3
 80011ea:	623b      	str	r3, [r7, #32]
  GPIO_InitStruct.Alternate = GPIO_AF9_CAN1;
 80011ec:	2309      	movs	r3, #9
 80011ee:	627b      	str	r3, [r7, #36]	; 0x24
  HAL_GPIO_Init(GPIOA, &GPIO_InitStruct);
 80011f0:	f107 0314 	add.w	r3, r7, #20
 80011f4:	4619      	mov	r1, r3
 80011f6:	480e      	ldr	r0, [pc, #56]	; (8001230 <MX_GPIO_Init+0x1a8>)
 80011f8:	f001 fbe4 	bl	80029c4 <HAL_GPIO_Init>

  /*Configure GPIO pin : SPI1_CS_Pin */
  GPIO_InitStruct.Pin = SPI1_CS_Pin;
 80011fc:	2304      	movs	r3, #4
 80011fe:	617b      	str	r3, [r7, #20]
  GPIO_InitStruct.Mode = GPIO_MODE_OUTPUT_PP;
 8001200:	2301      	movs	r3, #1
 8001202:	61bb      	str	r3, [r7, #24]
  GPIO_InitStruct.Pull = GPIO_NOPULL;
 8001204:	2300      	movs	r3, #0
 8001206:	61fb      	str	r3, [r7, #28]
  GPIO_InitStruct.Speed = GPIO_SPEED_FREQ_LOW;
 8001208:	2300      	movs	r3, #0
 800120a:	623b      	str	r3, [r7, #32]
  HAL_GPIO_Init(SPI1_CS_GPIO_Port, &GPIO_InitStruct);
 800120c:	f107 0314 	add.w	r3, r7, #20
 8001210:	4619      	mov	r1, r3
 8001212:	4806      	ldr	r0, [pc, #24]	; (800122c <MX_GPIO_Init+0x1a4>)
 8001214:	f001 fbd6 	bl	80029c4 <HAL_GPIO_Init>

/* USER CODE BEGIN MX_GPIO_Init_2 */
/* USER CODE END MX_GPIO_Init_2 */
}
 8001218:	bf00      	nop
 800121a:	3728      	adds	r7, #40	; 0x28
 800121c:	46bd      	mov	sp, r7
 800121e:	bd80      	pop	{r7, pc}
 8001220:	40023800 	.word	0x40023800
 8001224:	40020800 	.word	0x40020800
 8001228:	40020400 	.word	0x40020400
 800122c:	40020c00 	.word	0x40020c00
 8001230:	40020000 	.word	0x40020000

08001234 <clean_data_buffer>:

/* USER CODE BEGIN 4 */
void clean_data_buffer(uint8_t bufferRef) {
 8001234:	b480      	push	{r7}
 8001236:	b085      	sub	sp, #20
 8001238:	af00      	add	r7, sp, #0
 800123a:	4603      	mov	r3, r0
 800123c:	71fb      	strb	r3, [r7, #7]
    for (int i = 0; i < PAGE_SIZE; ++i) {
 800123e:	2300      	movs	r3, #0
 8001240:	60fb      	str	r3, [r7, #12]
 8001242:	e00a      	b.n	800125a <clean_data_buffer+0x26>
        	data_buffer[bufferRef][i] = 0xFF;  // Initialize each element to 0xFF
 8001244:	79fb      	ldrb	r3, [r7, #7]
 8001246:	4a0a      	ldr	r2, [pc, #40]	; (8001270 <clean_data_buffer+0x3c>)
 8001248:	021b      	lsls	r3, r3, #8
 800124a:	441a      	add	r2, r3
 800124c:	68fb      	ldr	r3, [r7, #12]
 800124e:	4413      	add	r3, r2
 8001250:	22ff      	movs	r2, #255	; 0xff
 8001252:	701a      	strb	r2, [r3, #0]
    for (int i = 0; i < PAGE_SIZE; ++i) {
 8001254:	68fb      	ldr	r3, [r7, #12]
 8001256:	3301      	adds	r3, #1
 8001258:	60fb      	str	r3, [r7, #12]
 800125a:	68fb      	ldr	r3, [r7, #12]
 800125c:	2bff      	cmp	r3, #255	; 0xff
 800125e:	ddf1      	ble.n	8001244 <clean_data_buffer+0x10>
    }
}
 8001260:	bf00      	nop
 8001262:	bf00      	nop
 8001264:	3714      	adds	r7, #20
 8001266:	46bd      	mov	sp, r7
 8001268:	f85d 7b04 	ldr.w	r7, [sp], #4
 800126c:	4770      	bx	lr
 800126e:	bf00      	nop
 8001270:	2000024c 	.word	0x2000024c

08001274 <systemInit>:

void systemInit() {
 8001274:	b580      	push	{r7, lr}
 8001276:	b082      	sub	sp, #8
 8001278:	af00      	add	r7, sp, #0
	gpio_set_config();
 800127a:	f000 f8b1 	bl	80013e0 <gpio_set_config>

	HAL_GPIO_WritePin(led_orange.GPIOx, led_orange.GPIO_Pin, GPIO_PIN_RESET);	// Turn LED off
 800127e:	4b44      	ldr	r3, [pc, #272]	; (8001390 <systemInit+0x11c>)
 8001280:	681b      	ldr	r3, [r3, #0]
 8001282:	4a43      	ldr	r2, [pc, #268]	; (8001390 <systemInit+0x11c>)
 8001284:	8891      	ldrh	r1, [r2, #4]
 8001286:	2200      	movs	r2, #0
 8001288:	4618      	mov	r0, r3
 800128a:	f001 fd47 	bl	8002d1c <HAL_GPIO_WritePin>
	HAL_GPIO_WritePin(cs_spi1.GPIOx, cs_spi1.GPIO_Pin, GPIO_PIN_SET);		// SET SPI CS High to disable bus 1
 800128e:	4b41      	ldr	r3, [pc, #260]	; (8001394 <systemInit+0x120>)
 8001290:	681b      	ldr	r3, [r3, #0]
 8001292:	4a40      	ldr	r2, [pc, #256]	; (8001394 <systemInit+0x120>)
 8001294:	8891      	ldrh	r1, [r2, #4]
 8001296:	2201      	movs	r2, #1
 8001298:	4618      	mov	r0, r3
 800129a:	f001 fd3f 	bl	8002d1c <HAL_GPIO_WritePin>
	HAL_GPIO_WritePin(cs_spi2.GPIOx, cs_spi2.GPIO_Pin, GPIO_PIN_SET);		// SET SPI CS High to disable bus 2
 800129e:	4b3e      	ldr	r3, [pc, #248]	; (8001398 <systemInit+0x124>)
 80012a0:	681b      	ldr	r3, [r3, #0]
 80012a2:	4a3d      	ldr	r2, [pc, #244]	; (8001398 <systemInit+0x124>)
 80012a4:	8891      	ldrh	r1, [r2, #4]
 80012a6:	2201      	movs	r2, #1
 80012a8:	4618      	mov	r0, r3
 80012aa:	f001 fd37 	bl	8002d1c <HAL_GPIO_WritePin>

	// Clean the data buffer and set all values to 0xFF
	next_blank_page0 = 0;
 80012ae:	4b3b      	ldr	r3, [pc, #236]	; (800139c <systemInit+0x128>)
 80012b0:	2200      	movs	r2, #0
 80012b2:	601a      	str	r2, [r3, #0]
	next_blank_page1 = 0;
 80012b4:	4b3a      	ldr	r3, [pc, #232]	; (80013a0 <systemInit+0x12c>)
 80012b6:	2200      	movs	r2, #0
 80012b8:	601a      	str	r2, [r3, #0]
	clean_data_buffer(0);
 80012ba:	2000      	movs	r0, #0
 80012bc:	f7ff ffba 	bl	8001234 <clean_data_buffer>
	clean_data_buffer(1);
 80012c0:	2001      	movs	r0, #1
 80012c2:	f7ff ffb7 	bl	8001234 <clean_data_buffer>

	for (uint8_t i = 0; i < 6; i++) {
 80012c6:	2300      	movs	r3, #0
 80012c8:	71fb      	strb	r3, [r7, #7]
 80012ca:	e00e      	b.n	80012ea <systemInit+0x76>
		accel_data[i] = 0x00;
 80012cc:	79fb      	ldrb	r3, [r7, #7]
 80012ce:	4a35      	ldr	r2, [pc, #212]	; (80013a4 <systemInit+0x130>)
 80012d0:	2100      	movs	r1, #0
 80012d2:	54d1      	strb	r1, [r2, r3]
		bme280_data_1[i] = 0x00;
 80012d4:	79fb      	ldrb	r3, [r7, #7]
 80012d6:	4a34      	ldr	r2, [pc, #208]	; (80013a8 <systemInit+0x134>)
 80012d8:	2100      	movs	r1, #0
 80012da:	54d1      	strb	r1, [r2, r3]
		bme280_data_2[i] = 0x00;
 80012dc:	79fb      	ldrb	r3, [r7, #7]
 80012de:	4a33      	ldr	r2, [pc, #204]	; (80013ac <systemInit+0x138>)
 80012e0:	2100      	movs	r1, #0
 80012e2:	54d1      	strb	r1, [r2, r3]
	for (uint8_t i = 0; i < 6; i++) {
 80012e4:	79fb      	ldrb	r3, [r7, #7]
 80012e6:	3301      	adds	r3, #1
 80012e8:	71fb      	strb	r3, [r7, #7]
 80012ea:	79fb      	ldrb	r3, [r7, #7]
 80012ec:	2b05      	cmp	r3, #5
 80012ee:	d9ed      	bls.n	80012cc <systemInit+0x58>
	}

	// Initialise the peripherals
	init_accel(&hi2c1);
 80012f0:	482f      	ldr	r0, [pc, #188]	; (80013b0 <systemInit+0x13c>)
 80012f2:	f7ff f901 	bl	80004f8 <init_accel>
	init_bme280(&hi2c2, 0);
 80012f6:	2100      	movs	r1, #0
 80012f8:	482e      	ldr	r0, [pc, #184]	; (80013b4 <systemInit+0x140>)
 80012fa:	f7ff f943 	bl	8000584 <init_bme280>
	init_bme280(&hi2c2, 1);
 80012fe:	2101      	movs	r1, #1
 8001300:	482c      	ldr	r0, [pc, #176]	; (80013b4 <systemInit+0x140>)
 8001302:	f7ff f93f 	bl	8000584 <init_bme280>
	software_reset(&hspi1, cs_spi1);
 8001306:	4b23      	ldr	r3, [pc, #140]	; (8001394 <systemInit+0x120>)
 8001308:	e893 0006 	ldmia.w	r3, {r1, r2}
 800130c:	482a      	ldr	r0, [pc, #168]	; (80013b8 <systemInit+0x144>)
 800130e:	f7ff fad3 	bl	80008b8 <software_reset>
	software_reset(&hspi2, cs_spi2);
 8001312:	4b21      	ldr	r3, [pc, #132]	; (8001398 <systemInit+0x124>)
 8001314:	e893 0006 	ldmia.w	r3, {r1, r2}
 8001318:	4828      	ldr	r0, [pc, #160]	; (80013bc <systemInit+0x148>)
 800131a:	f7ff facd 	bl	80008b8 <software_reset>

	next_blank_page0 = find_next_blank_page(&hspi1, &end_of_flash, cs_spi1);
 800131e:	4b1d      	ldr	r3, [pc, #116]	; (8001394 <systemInit+0x120>)
 8001320:	cb0c      	ldmia	r3, {r2, r3}
 8001322:	4927      	ldr	r1, [pc, #156]	; (80013c0 <systemInit+0x14c>)
 8001324:	4824      	ldr	r0, [pc, #144]	; (80013b8 <systemInit+0x144>)
 8001326:	f7ff fb19 	bl	800095c <find_next_blank_page>
 800132a:	4603      	mov	r3, r0
 800132c:	4a1b      	ldr	r2, [pc, #108]	; (800139c <systemInit+0x128>)
 800132e:	6013      	str	r3, [r2, #0]
	next_blank_page1 = find_next_blank_page(&hspi2, &end_of_flash, cs_spi2);
 8001330:	4b19      	ldr	r3, [pc, #100]	; (8001398 <systemInit+0x124>)
 8001332:	cb0c      	ldmia	r3, {r2, r3}
 8001334:	4922      	ldr	r1, [pc, #136]	; (80013c0 <systemInit+0x14c>)
 8001336:	4821      	ldr	r0, [pc, #132]	; (80013bc <systemInit+0x148>)
 8001338:	f7ff fb10 	bl	800095c <find_next_blank_page>
 800133c:	4603      	mov	r3, r0
 800133e:	4a18      	ldr	r2, [pc, #96]	; (80013a0 <systemInit+0x12c>)
 8001340:	6013      	str	r3, [r2, #0]

	buffer_ref = 0;
 8001342:	4b20      	ldr	r3, [pc, #128]	; (80013c4 <systemInit+0x150>)
 8001344:	2200      	movs	r2, #0
 8001346:	701a      	strb	r2, [r3, #0]
	byte_tracker = 0;
 8001348:	4b1f      	ldr	r3, [pc, #124]	; (80013c8 <systemInit+0x154>)
 800134a:	2200      	movs	r2, #0
 800134c:	801a      	strh	r2, [r3, #0]
	end_of_flash = GPIO_PIN_SET;
 800134e:	4b1c      	ldr	r3, [pc, #112]	; (80013c0 <systemInit+0x14c>)
 8001350:	2201      	movs	r2, #1
 8001352:	701a      	strb	r2, [r3, #0]
	uart2_rec_flag = 0;
 8001354:	4b1d      	ldr	r3, [pc, #116]	; (80013cc <systemInit+0x158>)
 8001356:	2200      	movs	r2, #0
 8001358:	701a      	strb	r2, [r3, #0]

	send_uart_hex(&huart2, systemStatus(&hspi1, &hspi2, &hi2c1, &hi2c2));
 800135a:	4b16      	ldr	r3, [pc, #88]	; (80013b4 <systemInit+0x140>)
 800135c:	4a14      	ldr	r2, [pc, #80]	; (80013b0 <systemInit+0x13c>)
 800135e:	4917      	ldr	r1, [pc, #92]	; (80013bc <systemInit+0x148>)
 8001360:	4815      	ldr	r0, [pc, #84]	; (80013b8 <systemInit+0x144>)
 8001362:	f000 f9f9 	bl	8001758 <systemStatus>
 8001366:	4603      	mov	r3, r0
 8001368:	4619      	mov	r1, r3
 800136a:	4819      	ldr	r0, [pc, #100]	; (80013d0 <systemInit+0x15c>)
 800136c:	f001 f8b1 	bl	80024d2 <send_uart_hex>

	// Initiate clocks and interrupts
	HAL_UART_Receive_IT(&huart2, UARTRxData, 2);
 8001370:	2202      	movs	r2, #2
 8001372:	4918      	ldr	r1, [pc, #96]	; (80013d4 <systemInit+0x160>)
 8001374:	4816      	ldr	r0, [pc, #88]	; (80013d0 <systemInit+0x15c>)
 8001376:	f005 f86e 	bl	8006456 <HAL_UART_Receive_IT>
	initialise_rtc_default(&hrtc);
 800137a:	4817      	ldr	r0, [pc, #92]	; (80013d8 <systemInit+0x164>)
 800137c:	f000 fcf2 	bl	8001d64 <initialise_rtc_default>
	HAL_TIM_Base_Start_IT(&htim6);
 8001380:	4816      	ldr	r0, [pc, #88]	; (80013dc <systemInit+0x168>)
 8001382:	f004 fcbf 	bl	8005d04 <HAL_TIM_Base_Start_IT>
}
 8001386:	bf00      	nop
 8001388:	3708      	adds	r7, #8
 800138a:	46bd      	mov	sp, r7
 800138c:	bd80      	pop	{r7, pc}
 800138e:	bf00      	nop
 8001390:	20000470 	.word	0x20000470
 8001394:	20000480 	.word	0x20000480
 8001398:	20000490 	.word	0x20000490
 800139c:	20000464 	.word	0x20000464
 80013a0:	20000468 	.word	0x20000468
 80013a4:	2000044c 	.word	0x2000044c
 80013a8:	20000454 	.word	0x20000454
 80013ac:	2000045c 	.word	0x2000045c
 80013b0:	20000040 	.word	0x20000040
 80013b4:	20000094 	.word	0x20000094
 80013b8:	20000108 	.word	0x20000108
 80013bc:	20000160 	.word	0x20000160
 80013c0:	2000046e 	.word	0x2000046e
 80013c4:	20000462 	.word	0x20000462
 80013c8:	2000046c 	.word	0x2000046c
 80013cc:	2000024a 	.word	0x2000024a
 80013d0:	20000200 	.word	0x20000200
 80013d4:	20000248 	.word	0x20000248
 80013d8:	200000e8 	.word	0x200000e8
 80013dc:	200001b8 	.word	0x200001b8

080013e0 <gpio_set_config>:

void gpio_set_config() {
 80013e0:	b590      	push	{r4, r7, lr}
 80013e2:	b083      	sub	sp, #12
 80013e4:	af00      	add	r7, sp, #0
	// Orange LED (Heartbeat LED)
	led_orange = create_GPIO_Config(GPIOB, GPIO_PIN_14);
 80013e6:	4c30      	ldr	r4, [pc, #192]	; (80014a8 <gpio_set_config+0xc8>)
 80013e8:	463b      	mov	r3, r7
 80013ea:	f44f 4280 	mov.w	r2, #16384	; 0x4000
 80013ee:	492f      	ldr	r1, [pc, #188]	; (80014ac <gpio_set_config+0xcc>)
 80013f0:	4618      	mov	r0, r3
 80013f2:	f7ff fb93 	bl	8000b1c <create_GPIO_Config>
 80013f6:	4622      	mov	r2, r4
 80013f8:	463b      	mov	r3, r7
 80013fa:	e893 0003 	ldmia.w	r3, {r0, r1}
 80013fe:	e882 0003 	stmia.w	r2, {r0, r1}

	// Green LED (Hard Drive LED)
	led_green = create_GPIO_Config(GPIOB, GPIO_PIN_7);
 8001402:	4c2b      	ldr	r4, [pc, #172]	; (80014b0 <gpio_set_config+0xd0>)
 8001404:	463b      	mov	r3, r7
 8001406:	2280      	movs	r2, #128	; 0x80
 8001408:	4928      	ldr	r1, [pc, #160]	; (80014ac <gpio_set_config+0xcc>)
 800140a:	4618      	mov	r0, r3
 800140c:	f7ff fb86 	bl	8000b1c <create_GPIO_Config>
 8001410:	4622      	mov	r2, r4
 8001412:	463b      	mov	r3, r7
 8001414:	e893 0003 	ldmia.w	r3, {r0, r1}
 8001418:	e882 0003 	stmia.w	r2, {r0, r1}

	// SPI Flash 0 CS and WP
	cs_spi1 = create_GPIO_Config(GPIOD, GPIO_PIN_2);		// Change for SRAD
 800141c:	4c25      	ldr	r4, [pc, #148]	; (80014b4 <gpio_set_config+0xd4>)
 800141e:	463b      	mov	r3, r7
 8001420:	2204      	movs	r2, #4
 8001422:	4925      	ldr	r1, [pc, #148]	; (80014b8 <gpio_set_config+0xd8>)
 8001424:	4618      	mov	r0, r3
 8001426:	f7ff fb79 	bl	8000b1c <create_GPIO_Config>
 800142a:	4622      	mov	r2, r4
 800142c:	463b      	mov	r3, r7
 800142e:	e893 0003 	ldmia.w	r3, {r0, r1}
 8001432:	e882 0003 	stmia.w	r2, {r0, r1}
	wp_spi1 = create_GPIO_Config(GPIOA, GPIO_PIN_4);
 8001436:	4c21      	ldr	r4, [pc, #132]	; (80014bc <gpio_set_config+0xdc>)
 8001438:	463b      	mov	r3, r7
 800143a:	2210      	movs	r2, #16
 800143c:	4920      	ldr	r1, [pc, #128]	; (80014c0 <gpio_set_config+0xe0>)
 800143e:	4618      	mov	r0, r3
 8001440:	f7ff fb6c 	bl	8000b1c <create_GPIO_Config>
 8001444:	4622      	mov	r2, r4
 8001446:	463b      	mov	r3, r7
 8001448:	e893 0003 	ldmia.w	r3, {r0, r1}
 800144c:	e882 0003 	stmia.w	r2, {r0, r1}

	// SPI Flash 1 CS and WP
	cs_spi2 = create_GPIO_Config(GPIOB, GPIO_PIN_12);		// Change for SRAD
 8001450:	4c1c      	ldr	r4, [pc, #112]	; (80014c4 <gpio_set_config+0xe4>)
 8001452:	463b      	mov	r3, r7
 8001454:	f44f 5280 	mov.w	r2, #4096	; 0x1000
 8001458:	4914      	ldr	r1, [pc, #80]	; (80014ac <gpio_set_config+0xcc>)
 800145a:	4618      	mov	r0, r3
 800145c:	f7ff fb5e 	bl	8000b1c <create_GPIO_Config>
 8001460:	4622      	mov	r2, r4
 8001462:	463b      	mov	r3, r7
 8001464:	e893 0003 	ldmia.w	r3, {r0, r1}
 8001468:	e882 0003 	stmia.w	r2, {r0, r1}
	wp_spi2 = create_GPIO_Config(GPIOC, GPIO_PIN_0);
 800146c:	4c16      	ldr	r4, [pc, #88]	; (80014c8 <gpio_set_config+0xe8>)
 800146e:	463b      	mov	r3, r7
 8001470:	2201      	movs	r2, #1
 8001472:	4916      	ldr	r1, [pc, #88]	; (80014cc <gpio_set_config+0xec>)
 8001474:	4618      	mov	r0, r3
 8001476:	f7ff fb51 	bl	8000b1c <create_GPIO_Config>
 800147a:	4622      	mov	r2, r4
 800147c:	463b      	mov	r3, r7
 800147e:	e893 0003 	ldmia.w	r3, {r0, r1}
 8001482:	e882 0003 	stmia.w	r2, {r0, r1}

	// Flight Jumper GPIO Input
	jmp_flight = create_GPIO_Config(GPIOB, GPIO_PIN_1);
 8001486:	4c12      	ldr	r4, [pc, #72]	; (80014d0 <gpio_set_config+0xf0>)
 8001488:	463b      	mov	r3, r7
 800148a:	2202      	movs	r2, #2
 800148c:	4907      	ldr	r1, [pc, #28]	; (80014ac <gpio_set_config+0xcc>)
 800148e:	4618      	mov	r0, r3
 8001490:	f7ff fb44 	bl	8000b1c <create_GPIO_Config>
 8001494:	4622      	mov	r2, r4
 8001496:	463b      	mov	r3, r7
 8001498:	e893 0003 	ldmia.w	r3, {r0, r1}
 800149c:	e882 0003 	stmia.w	r2, {r0, r1}
}
 80014a0:	bf00      	nop
 80014a2:	370c      	adds	r7, #12
 80014a4:	46bd      	mov	sp, r7
 80014a6:	bd90      	pop	{r4, r7, pc}
 80014a8:	20000470 	.word	0x20000470
 80014ac:	40020400 	.word	0x40020400
 80014b0:	20000478 	.word	0x20000478
 80014b4:	20000480 	.word	0x20000480
 80014b8:	40020c00 	.word	0x40020c00
 80014bc:	20000488 	.word	0x20000488
 80014c0:	40020000 	.word	0x40020000
 80014c4:	20000490 	.word	0x20000490
 80014c8:	20000498 	.word	0x20000498
 80014cc:	40020800 	.word	0x40020800
 80014d0:	200004a0 	.word	0x200004a0

080014d4 <handleUART>:

void handleUART() {
 80014d4:	b580      	push	{r7, lr}
 80014d6:	b082      	sub	sp, #8
 80014d8:	af00      	add	r7, sp, #0
	UART_HandleTypeDef *huart = &huart2;
 80014da:	4b87      	ldr	r3, [pc, #540]	; (80016f8 <handleUART+0x224>)
 80014dc:	607b      	str	r3, [r7, #4]

	// Send Heartbeat to UART (data_rx[0] = "h")
	if (UARTRxData[0] == 0x68) {
 80014de:	4b87      	ldr	r3, [pc, #540]	; (80016fc <handleUART+0x228>)
 80014e0:	781b      	ldrb	r3, [r3, #0]
 80014e2:	2b68      	cmp	r3, #104	; 0x68
 80014e4:	d10e      	bne.n	8001504 <handleUART+0x30>
		heartbeatUART(huart);
 80014e6:	6878      	ldr	r0, [r7, #4]
 80014e8:	f000 f988 	bl	80017fc <heartbeatUART>
		send_uart_hex(huart, systemStatus(&hspi1, &hspi2, &hi2c1, &hi2c2));
 80014ec:	4b84      	ldr	r3, [pc, #528]	; (8001700 <handleUART+0x22c>)
 80014ee:	4a85      	ldr	r2, [pc, #532]	; (8001704 <handleUART+0x230>)
 80014f0:	4985      	ldr	r1, [pc, #532]	; (8001708 <handleUART+0x234>)
 80014f2:	4886      	ldr	r0, [pc, #536]	; (800170c <handleUART+0x238>)
 80014f4:	f000 f930 	bl	8001758 <systemStatus>
 80014f8:	4603      	mov	r3, r0
 80014fa:	4619      	mov	r1, r3
 80014fc:	6878      	ldr	r0, [r7, #4]
 80014fe:	f000 ffe8 	bl	80024d2 <send_uart_hex>
 8001502:	e0eb      	b.n	80016dc <handleUART+0x208>
	}

/***************************** SPI Flash ************************************************/
	// Erase specified flash chip (data_rx[0]  = "e")
	else if (UARTRxData[0] == 0x65) {
 8001504:	4b7d      	ldr	r3, [pc, #500]	; (80016fc <handleUART+0x228>)
 8001506:	781b      	ldrb	r3, [r3, #0]
 8001508:	2b65      	cmp	r3, #101	; 0x65
 800150a:	d11e      	bne.n	800154a <handleUART+0x76>
		if(decodeASCII(UARTRxData[1]) == 0) {
 800150c:	4b7b      	ldr	r3, [pc, #492]	; (80016fc <handleUART+0x228>)
 800150e:	785b      	ldrb	r3, [r3, #1]
 8001510:	4618      	mov	r0, r3
 8001512:	f000 f903 	bl	800171c <decodeASCII>
 8001516:	4603      	mov	r3, r0
 8001518:	2b00      	cmp	r3, #0
 800151a:	d106      	bne.n	800152a <handleUART+0x56>
			eraseFlashSPI(&hspi1, huart, cs_spi1);
 800151c:	4b7c      	ldr	r3, [pc, #496]	; (8001710 <handleUART+0x23c>)
 800151e:	cb0c      	ldmia	r3, {r2, r3}
 8001520:	6879      	ldr	r1, [r7, #4]
 8001522:	487a      	ldr	r0, [pc, #488]	; (800170c <handleUART+0x238>)
 8001524:	f000 f976 	bl	8001814 <eraseFlashSPI>
 8001528:	e0d8      	b.n	80016dc <handleUART+0x208>
		} else if (decodeASCII(UARTRxData[1]) == 1) {
 800152a:	4b74      	ldr	r3, [pc, #464]	; (80016fc <handleUART+0x228>)
 800152c:	785b      	ldrb	r3, [r3, #1]
 800152e:	4618      	mov	r0, r3
 8001530:	f000 f8f4 	bl	800171c <decodeASCII>
 8001534:	4603      	mov	r3, r0
 8001536:	2b01      	cmp	r3, #1
 8001538:	f040 80d0 	bne.w	80016dc <handleUART+0x208>
			eraseFlashSPI(&hspi2, huart, cs_spi2);
 800153c:	4b75      	ldr	r3, [pc, #468]	; (8001714 <handleUART+0x240>)
 800153e:	cb0c      	ldmia	r3, {r2, r3}
 8001540:	6879      	ldr	r1, [r7, #4]
 8001542:	4871      	ldr	r0, [pc, #452]	; (8001708 <handleUART+0x234>)
 8001544:	f000 f966 	bl	8001814 <eraseFlashSPI>
 8001548:	e0c8      	b.n	80016dc <handleUART+0x208>
		}
	}

	// Read data from specified flash chip (data_rx[0] = "r")
	else if (UARTRxData[0] == 0x72) {
 800154a:	4b6c      	ldr	r3, [pc, #432]	; (80016fc <handleUART+0x228>)
 800154c:	781b      	ldrb	r3, [r3, #0]
 800154e:	2b72      	cmp	r3, #114	; 0x72
 8001550:	d11e      	bne.n	8001590 <handleUART+0xbc>
		if(decodeASCII(UARTRxData[1]) == 0) {
 8001552:	4b6a      	ldr	r3, [pc, #424]	; (80016fc <handleUART+0x228>)
 8001554:	785b      	ldrb	r3, [r3, #1]
 8001556:	4618      	mov	r0, r3
 8001558:	f000 f8e0 	bl	800171c <decodeASCII>
 800155c:	4603      	mov	r3, r0
 800155e:	2b00      	cmp	r3, #0
 8001560:	d106      	bne.n	8001570 <handleUART+0x9c>
			readFlashToUART(&hspi1, huart, cs_spi1);
 8001562:	4b6b      	ldr	r3, [pc, #428]	; (8001710 <handleUART+0x23c>)
 8001564:	cb0c      	ldmia	r3, {r2, r3}
 8001566:	6879      	ldr	r1, [r7, #4]
 8001568:	4868      	ldr	r0, [pc, #416]	; (800170c <handleUART+0x238>)
 800156a:	f000 f98f 	bl	800188c <readFlashToUART>
 800156e:	e0b5      	b.n	80016dc <handleUART+0x208>
		} else if (decodeASCII(UARTRxData[1]) == 1) {
 8001570:	4b62      	ldr	r3, [pc, #392]	; (80016fc <handleUART+0x228>)
 8001572:	785b      	ldrb	r3, [r3, #1]
 8001574:	4618      	mov	r0, r3
 8001576:	f000 f8d1 	bl	800171c <decodeASCII>
 800157a:	4603      	mov	r3, r0
 800157c:	2b01      	cmp	r3, #1
 800157e:	f040 80ad 	bne.w	80016dc <handleUART+0x208>
			readFlashToUART(&hspi2, huart, cs_spi2);
 8001582:	4b64      	ldr	r3, [pc, #400]	; (8001714 <handleUART+0x240>)
 8001584:	cb0c      	ldmia	r3, {r2, r3}
 8001586:	6879      	ldr	r1, [r7, #4]
 8001588:	485f      	ldr	r0, [pc, #380]	; (8001708 <handleUART+0x234>)
 800158a:	f000 f97f 	bl	800188c <readFlashToUART>
 800158e:	e0a5      	b.n	80016dc <handleUART+0x208>
		}
	}

	// Read Manufacturer over SPI (data_rx[0] = "m")
	else if (UARTRxData[0] == 0x6d) {
 8001590:	4b5a      	ldr	r3, [pc, #360]	; (80016fc <handleUART+0x228>)
 8001592:	781b      	ldrb	r3, [r3, #0]
 8001594:	2b6d      	cmp	r3, #109	; 0x6d
 8001596:	d11e      	bne.n	80015d6 <handleUART+0x102>
		if(decodeASCII(UARTRxData[1]) == 0) {
 8001598:	4b58      	ldr	r3, [pc, #352]	; (80016fc <handleUART+0x228>)
 800159a:	785b      	ldrb	r3, [r3, #1]
 800159c:	4618      	mov	r0, r3
 800159e:	f000 f8bd 	bl	800171c <decodeASCII>
 80015a2:	4603      	mov	r3, r0
 80015a4:	2b00      	cmp	r3, #0
 80015a6:	d106      	bne.n	80015b6 <handleUART+0xe2>
			readFlashManuSPI(&hspi1, huart, cs_spi1);
 80015a8:	4b59      	ldr	r3, [pc, #356]	; (8001710 <handleUART+0x23c>)
 80015aa:	cb0c      	ldmia	r3, {r2, r3}
 80015ac:	6879      	ldr	r1, [r7, #4]
 80015ae:	4857      	ldr	r0, [pc, #348]	; (800170c <handleUART+0x238>)
 80015b0:	f000 f9d8 	bl	8001964 <readFlashManuSPI>
 80015b4:	e092      	b.n	80016dc <handleUART+0x208>
		} else if (decodeASCII(UARTRxData[1]) == 1) {
 80015b6:	4b51      	ldr	r3, [pc, #324]	; (80016fc <handleUART+0x228>)
 80015b8:	785b      	ldrb	r3, [r3, #1]
 80015ba:	4618      	mov	r0, r3
 80015bc:	f000 f8ae 	bl	800171c <decodeASCII>
 80015c0:	4603      	mov	r3, r0
 80015c2:	2b01      	cmp	r3, #1
 80015c4:	f040 808a 	bne.w	80016dc <handleUART+0x208>
			readFlashManuSPI(&hspi2, huart, cs_spi2);
 80015c8:	4b52      	ldr	r3, [pc, #328]	; (8001714 <handleUART+0x240>)
 80015ca:	cb0c      	ldmia	r3, {r2, r3}
 80015cc:	6879      	ldr	r1, [r7, #4]
 80015ce:	484e      	ldr	r0, [pc, #312]	; (8001708 <handleUART+0x234>)
 80015d0:	f000 f9c8 	bl	8001964 <readFlashManuSPI>
 80015d4:	e082      	b.n	80016dc <handleUART+0x208>
		}
	}

	// Write a page over SPI (data_rx[0] = "w")
	else if (UARTRxData[0] == 0x77) {
 80015d6:	4b49      	ldr	r3, [pc, #292]	; (80016fc <handleUART+0x228>)
 80015d8:	781b      	ldrb	r3, [r3, #0]
 80015da:	2b77      	cmp	r3, #119	; 0x77
 80015dc:	d11d      	bne.n	800161a <handleUART+0x146>
		if(decodeASCII(UARTRxData[1]) == 0) {
 80015de:	4b47      	ldr	r3, [pc, #284]	; (80016fc <handleUART+0x228>)
 80015e0:	785b      	ldrb	r3, [r3, #1]
 80015e2:	4618      	mov	r0, r3
 80015e4:	f000 f89a 	bl	800171c <decodeASCII>
 80015e8:	4603      	mov	r3, r0
 80015ea:	2b00      	cmp	r3, #0
 80015ec:	d106      	bne.n	80015fc <handleUART+0x128>
			writePageSPI_W(&hspi1, huart, cs_spi1);
 80015ee:	4b48      	ldr	r3, [pc, #288]	; (8001710 <handleUART+0x23c>)
 80015f0:	cb0c      	ldmia	r3, {r2, r3}
 80015f2:	6879      	ldr	r1, [r7, #4]
 80015f4:	4845      	ldr	r0, [pc, #276]	; (800170c <handleUART+0x238>)
 80015f6:	f000 f9d5 	bl	80019a4 <writePageSPI_W>
 80015fa:	e06f      	b.n	80016dc <handleUART+0x208>
		} else if (decodeASCII(UARTRxData[1]) == 1) {
 80015fc:	4b3f      	ldr	r3, [pc, #252]	; (80016fc <handleUART+0x228>)
 80015fe:	785b      	ldrb	r3, [r3, #1]
 8001600:	4618      	mov	r0, r3
 8001602:	f000 f88b 	bl	800171c <decodeASCII>
 8001606:	4603      	mov	r3, r0
 8001608:	2b01      	cmp	r3, #1
 800160a:	d167      	bne.n	80016dc <handleUART+0x208>
			writePageSPI_W(&hspi2, huart, cs_spi2);
 800160c:	4b41      	ldr	r3, [pc, #260]	; (8001714 <handleUART+0x240>)
 800160e:	cb0c      	ldmia	r3, {r2, r3}
 8001610:	6879      	ldr	r1, [r7, #4]
 8001612:	483d      	ldr	r0, [pc, #244]	; (8001708 <handleUART+0x234>)
 8001614:	f000 f9c6 	bl	80019a4 <writePageSPI_W>
 8001618:	e060      	b.n	80016dc <handleUART+0x208>
		}
	}

	// Software reset flash chip over SPI (data_rx[0] = "x")
	else if (UARTRxData[0] == 0x78) {
 800161a:	4b38      	ldr	r3, [pc, #224]	; (80016fc <handleUART+0x228>)
 800161c:	781b      	ldrb	r3, [r3, #0]
 800161e:	2b78      	cmp	r3, #120	; 0x78
 8001620:	d11d      	bne.n	800165e <handleUART+0x18a>
		if(decodeASCII(UARTRxData[1]) == 0) {
 8001622:	4b36      	ldr	r3, [pc, #216]	; (80016fc <handleUART+0x228>)
 8001624:	785b      	ldrb	r3, [r3, #1]
 8001626:	4618      	mov	r0, r3
 8001628:	f000 f878 	bl	800171c <decodeASCII>
 800162c:	4603      	mov	r3, r0
 800162e:	2b00      	cmp	r3, #0
 8001630:	d106      	bne.n	8001640 <handleUART+0x16c>
			resetSPIFlash(&hspi1, huart, cs_spi1);
 8001632:	4b37      	ldr	r3, [pc, #220]	; (8001710 <handleUART+0x23c>)
 8001634:	cb0c      	ldmia	r3, {r2, r3}
 8001636:	6879      	ldr	r1, [r7, #4]
 8001638:	4834      	ldr	r0, [pc, #208]	; (800170c <handleUART+0x238>)
 800163a:	f000 fa07 	bl	8001a4c <resetSPIFlash>
 800163e:	e04d      	b.n	80016dc <handleUART+0x208>
		} else if (decodeASCII(UARTRxData[1]) == 1) {
 8001640:	4b2e      	ldr	r3, [pc, #184]	; (80016fc <handleUART+0x228>)
 8001642:	785b      	ldrb	r3, [r3, #1]
 8001644:	4618      	mov	r0, r3
 8001646:	f000 f869 	bl	800171c <decodeASCII>
 800164a:	4603      	mov	r3, r0
 800164c:	2b01      	cmp	r3, #1
 800164e:	d145      	bne.n	80016dc <handleUART+0x208>
			resetSPIFlash(&hspi2, huart, cs_spi2);
 8001650:	4b30      	ldr	r3, [pc, #192]	; (8001714 <handleUART+0x240>)
 8001652:	cb0c      	ldmia	r3, {r2, r3}
 8001654:	6879      	ldr	r1, [r7, #4]
 8001656:	482c      	ldr	r0, [pc, #176]	; (8001708 <handleUART+0x234>)
 8001658:	f000 f9f8 	bl	8001a4c <resetSPIFlash>
 800165c:	e03e      	b.n	80016dc <handleUART+0x208>
		}
	}

/*********************************** I2C Accelerometer ***********************************/
	// Read Accelerometer WhoAmI (data_rx[0] = "c")
	else if (UARTRxData[0] == 0x63) {
 800165e:	4b27      	ldr	r3, [pc, #156]	; (80016fc <handleUART+0x228>)
 8001660:	781b      	ldrb	r3, [r3, #0]
 8001662:	2b63      	cmp	r3, #99	; 0x63
 8001664:	d104      	bne.n	8001670 <handleUART+0x19c>
		checkAccelWhoAmI(&hi2c1, huart);
 8001666:	6879      	ldr	r1, [r7, #4]
 8001668:	4826      	ldr	r0, [pc, #152]	; (8001704 <handleUART+0x230>)
 800166a:	f000 fa07 	bl	8001a7c <checkAccelWhoAmI>
 800166e:	e035      	b.n	80016dc <handleUART+0x208>
	}

	// Read the accelerometer and print to the UART[0] (data_rx [0] = "a")
	else if (UARTRxData[0] == 0x61) {
 8001670:	4b22      	ldr	r3, [pc, #136]	; (80016fc <handleUART+0x228>)
 8001672:	781b      	ldrb	r3, [r3, #0]
 8001674:	2b61      	cmp	r3, #97	; 0x61
 8001676:	d103      	bne.n	8001680 <handleUART+0x1ac>
		accelToUART(huart);
 8001678:	6878      	ldr	r0, [r7, #4]
 800167a:	f000 fa13 	bl	8001aa4 <accelToUART>
 800167e:	e02d      	b.n	80016dc <handleUART+0x208>
	}

/********************************** I2C BME280 *******************************************/
	// Read the temp sensor ID and print to the UART[0] (data_rx [0]= "b")
	else if (UARTRxData[0] == 0x62) {
 8001680:	4b1e      	ldr	r3, [pc, #120]	; (80016fc <handleUART+0x228>)
 8001682:	781b      	ldrb	r3, [r3, #0]
 8001684:	2b62      	cmp	r3, #98	; 0x62
 8001686:	d10b      	bne.n	80016a0 <handleUART+0x1cc>
		readTempSensorID(&hi2c2, huart, decodeASCII(UARTRxData[1]));
 8001688:	4b1c      	ldr	r3, [pc, #112]	; (80016fc <handleUART+0x228>)
 800168a:	785b      	ldrb	r3, [r3, #1]
 800168c:	4618      	mov	r0, r3
 800168e:	f000 f845 	bl	800171c <decodeASCII>
 8001692:	4603      	mov	r3, r0
 8001694:	461a      	mov	r2, r3
 8001696:	6879      	ldr	r1, [r7, #4]
 8001698:	4819      	ldr	r0, [pc, #100]	; (8001700 <handleUART+0x22c>)
 800169a:	f000 fa1f 	bl	8001adc <readTempSensorID>
 800169e:	e01d      	b.n	80016dc <handleUART+0x208>
	}

	// Read the temp sensor calibration registers and print to the UART (data_rx[0] = "p")
	else if (UARTRxData[0] == 0x70) {
 80016a0:	4b16      	ldr	r3, [pc, #88]	; (80016fc <handleUART+0x228>)
 80016a2:	781b      	ldrb	r3, [r3, #0]
 80016a4:	2b70      	cmp	r3, #112	; 0x70
 80016a6:	d10b      	bne.n	80016c0 <handleUART+0x1ec>
		readTempCalibration(&hi2c2, huart, decodeASCII(UARTRxData[1]));
 80016a8:	4b14      	ldr	r3, [pc, #80]	; (80016fc <handleUART+0x228>)
 80016aa:	785b      	ldrb	r3, [r3, #1]
 80016ac:	4618      	mov	r0, r3
 80016ae:	f000 f835 	bl	800171c <decodeASCII>
 80016b2:	4603      	mov	r3, r0
 80016b4:	461a      	mov	r2, r3
 80016b6:	6879      	ldr	r1, [r7, #4]
 80016b8:	4811      	ldr	r0, [pc, #68]	; (8001700 <handleUART+0x22c>)
 80016ba:	f000 fa24 	bl	8001b06 <readTempCalibration>
 80016be:	e00d      	b.n	80016dc <handleUART+0x208>
	}

	// Read the temp sensor and print to the UART[0] (data_rx [0]= "t")
	else if (UARTRxData[0] == 0x74) {
 80016c0:	4b0e      	ldr	r3, [pc, #56]	; (80016fc <handleUART+0x228>)
 80016c2:	781b      	ldrb	r3, [r3, #0]
 80016c4:	2b74      	cmp	r3, #116	; 0x74
 80016c6:	d109      	bne.n	80016dc <handleUART+0x208>
		readTempSensor(huart, decodeASCII(UARTRxData[1]));
 80016c8:	4b0c      	ldr	r3, [pc, #48]	; (80016fc <handleUART+0x228>)
 80016ca:	785b      	ldrb	r3, [r3, #1]
 80016cc:	4618      	mov	r0, r3
 80016ce:	f000 f825 	bl	800171c <decodeASCII>
 80016d2:	4603      	mov	r3, r0
 80016d4:	4619      	mov	r1, r3
 80016d6:	6878      	ldr	r0, [r7, #4]
 80016d8:	f000 fa4e 	bl	8001b78 <readTempSensor>
	}

	uart2_rec_flag = 0x00;
 80016dc:	4b0e      	ldr	r3, [pc, #56]	; (8001718 <handleUART+0x244>)
 80016de:	2200      	movs	r2, #0
 80016e0:	701a      	strb	r2, [r3, #0]
	UARTRxData[0] = 0x00;
 80016e2:	4b06      	ldr	r3, [pc, #24]	; (80016fc <handleUART+0x228>)
 80016e4:	2200      	movs	r2, #0
 80016e6:	701a      	strb	r2, [r3, #0]
	UARTRxData[1] = 0x00;
 80016e8:	4b04      	ldr	r3, [pc, #16]	; (80016fc <handleUART+0x228>)
 80016ea:	2200      	movs	r2, #0
 80016ec:	705a      	strb	r2, [r3, #1]
}
 80016ee:	bf00      	nop
 80016f0:	3708      	adds	r7, #8
 80016f2:	46bd      	mov	sp, r7
 80016f4:	bd80      	pop	{r7, pc}
 80016f6:	bf00      	nop
 80016f8:	20000200 	.word	0x20000200
 80016fc:	20000248 	.word	0x20000248
 8001700:	20000094 	.word	0x20000094
 8001704:	20000040 	.word	0x20000040
 8001708:	20000160 	.word	0x20000160
 800170c:	20000108 	.word	0x20000108
 8001710:	20000480 	.word	0x20000480
 8001714:	20000490 	.word	0x20000490
 8001718:	2000024a 	.word	0x2000024a

0800171c <decodeASCII>:

uint8_t decodeASCII(uint8_t asciiVal) {
 800171c:	b480      	push	{r7}
 800171e:	b085      	sub	sp, #20
 8001720:	af00      	add	r7, sp, #0
 8001722:	4603      	mov	r3, r0
 8001724:	71fb      	strb	r3, [r7, #7]
	int returnVal = -1;
 8001726:	f04f 33ff 	mov.w	r3, #4294967295	; 0xffffffff
 800172a:	60fb      	str	r3, [r7, #12]
	if ((asciiVal >= 48) && (asciiVal <= 57)) {
 800172c:	79fb      	ldrb	r3, [r7, #7]
 800172e:	2b2f      	cmp	r3, #47	; 0x2f
 8001730:	d905      	bls.n	800173e <decodeASCII+0x22>
 8001732:	79fb      	ldrb	r3, [r7, #7]
 8001734:	2b39      	cmp	r3, #57	; 0x39
 8001736:	d802      	bhi.n	800173e <decodeASCII+0x22>
		returnVal = asciiVal - 48;
 8001738:	79fb      	ldrb	r3, [r7, #7]
 800173a:	3b30      	subs	r3, #48	; 0x30
 800173c:	60fb      	str	r3, [r7, #12]
	}
	return returnVal;
 800173e:	68fb      	ldr	r3, [r7, #12]
 8001740:	b2db      	uxtb	r3, r3
}
 8001742:	4618      	mov	r0, r3
 8001744:	3714      	adds	r7, #20
 8001746:	46bd      	mov	sp, r7
 8001748:	f85d 7b04 	ldr.w	r7, [sp], #4
 800174c:	4770      	bx	lr

0800174e <Error_Handler>:
/**
  * @brief  This function is executed in case of error occurrence.
  * @retval None
  */
void Error_Handler(void)
{
 800174e:	b480      	push	{r7}
 8001750:	af00      	add	r7, sp, #0
  \details Disables IRQ interrupts by setting special-purpose register PRIMASK.
           Can only be executed in Privileged modes.
 */
__STATIC_FORCEINLINE void __disable_irq(void)
{
  __ASM volatile ("cpsid i" : : : "memory");
 8001752:	b672      	cpsid	i
}
 8001754:	bf00      	nop
  /* USER CODE BEGIN Error_Handler_Debug */
  /* User can add his own implementation to report the HAL error return state */
  __disable_irq();
  while (1)
 8001756:	e7fe      	b.n	8001756 <Error_Handler+0x8>

08001758 <systemStatus>:

#include "peripheral_driver.h"
/***************************************************************************************************************
 * Generic Functions
 */
uint8_t systemStatus(SPI_HandleTypeDef *hspi1, SPI_HandleTypeDef *hspi2, I2C_HandleTypeDef* hi2c1, I2C_HandleTypeDef* hi2c2) {
 8001758:	b580      	push	{r7, lr}
 800175a:	b086      	sub	sp, #24
 800175c:	af00      	add	r7, sp, #0
 800175e:	60f8      	str	r0, [r7, #12]
 8001760:	60b9      	str	r1, [r7, #8]
 8001762:	607a      	str	r2, [r7, #4]
 8001764:	603b      	str	r3, [r7, #0]
	uint8_t retVal = 0x00;
 8001766:	2300      	movs	r3, #0
 8001768:	75fb      	strb	r3, [r7, #23]

	// Check BME280_1
	if(readBME280_id_reg(hi2c2, 1) != 0x60) {			// Expected 0x60
 800176a:	2101      	movs	r1, #1
 800176c:	6838      	ldr	r0, [r7, #0]
 800176e:	f7fe ffaf 	bl	80006d0 <readBME280_id_reg>
 8001772:	4603      	mov	r3, r0
 8001774:	2b60      	cmp	r3, #96	; 0x60
 8001776:	d003      	beq.n	8001780 <systemStatus+0x28>
		retVal  = retVal | 0x10;
 8001778:	7dfb      	ldrb	r3, [r7, #23]
 800177a:	f043 0310 	orr.w	r3, r3, #16
 800177e:	75fb      	strb	r3, [r7, #23]
	}

	// Check BME280_0
	if(readBME280_id_reg(hi2c2, 0) != 0x60) {			// Expected 0x60
 8001780:	2100      	movs	r1, #0
 8001782:	6838      	ldr	r0, [r7, #0]
 8001784:	f7fe ffa4 	bl	80006d0 <readBME280_id_reg>
 8001788:	4603      	mov	r3, r0
 800178a:	2b60      	cmp	r3, #96	; 0x60
 800178c:	d003      	beq.n	8001796 <systemStatus+0x3e>
		retVal  = retVal | 0x08;
 800178e:	7dfb      	ldrb	r3, [r7, #23]
 8001790:	f043 0308 	orr.w	r3, r3, #8
 8001794:	75fb      	strb	r3, [r7, #23]
	}

	// Check Accelerometer
	if(readAccel_whoami(hi2c1) != 0x32) {				// Expected 0x32
 8001796:	6878      	ldr	r0, [r7, #4]
 8001798:	f7fe fee0 	bl	800055c <readAccel_whoami>
 800179c:	4603      	mov	r3, r0
 800179e:	2b32      	cmp	r3, #50	; 0x32
 80017a0:	d003      	beq.n	80017aa <systemStatus+0x52>
		retVal  = retVal | 0x04;
 80017a2:	7dfb      	ldrb	r3, [r7, #23]
 80017a4:	f043 0304 	orr.w	r3, r3, #4
 80017a8:	75fb      	strb	r3, [r7, #23]
	}

	// Check SPIFlash_1
	uint8_t manu[2] = {0, 0};
 80017aa:	2300      	movs	r3, #0
 80017ac:	82bb      	strh	r3, [r7, #20]
	read_manufacturer_id(manu, hspi2, cs_spi2);
 80017ae:	4b11      	ldr	r3, [pc, #68]	; (80017f4 <systemStatus+0x9c>)
 80017b0:	f107 0014 	add.w	r0, r7, #20
 80017b4:	cb0c      	ldmia	r3, {r2, r3}
 80017b6:	68b9      	ldr	r1, [r7, #8]
 80017b8:	f7ff f98e 	bl	8000ad8 <read_manufacturer_id>
	if(manu[0] != 0xEF) {								// Expected 0xEF
 80017bc:	7d3b      	ldrb	r3, [r7, #20]
 80017be:	2bef      	cmp	r3, #239	; 0xef
 80017c0:	d003      	beq.n	80017ca <systemStatus+0x72>
		retVal  = retVal | 0x02;
 80017c2:	7dfb      	ldrb	r3, [r7, #23]
 80017c4:	f043 0302 	orr.w	r3, r3, #2
 80017c8:	75fb      	strb	r3, [r7, #23]
	}

	// Check SPIFlash_0
	uint8_t manu0[2] = {0, 0};
 80017ca:	2300      	movs	r3, #0
 80017cc:	823b      	strh	r3, [r7, #16]
	read_manufacturer_id(manu0, hspi1, cs_spi1);
 80017ce:	4b0a      	ldr	r3, [pc, #40]	; (80017f8 <systemStatus+0xa0>)
 80017d0:	f107 0010 	add.w	r0, r7, #16
 80017d4:	cb0c      	ldmia	r3, {r2, r3}
 80017d6:	68f9      	ldr	r1, [r7, #12]
 80017d8:	f7ff f97e 	bl	8000ad8 <read_manufacturer_id>
	if(manu0[0] != 0xEF) {								// Expected 0xEF
 80017dc:	7c3b      	ldrb	r3, [r7, #16]
 80017de:	2bef      	cmp	r3, #239	; 0xef
 80017e0:	d003      	beq.n	80017ea <systemStatus+0x92>
		retVal  = retVal | 0x01;
 80017e2:	7dfb      	ldrb	r3, [r7, #23]
 80017e4:	f043 0301 	orr.w	r3, r3, #1
 80017e8:	75fb      	strb	r3, [r7, #23]
	}
	return retVal;
 80017ea:	7dfb      	ldrb	r3, [r7, #23]
}
 80017ec:	4618      	mov	r0, r3
 80017ee:	3718      	adds	r7, #24
 80017f0:	46bd      	mov	sp, r7
 80017f2:	bd80      	pop	{r7, pc}
 80017f4:	20000490 	.word	0x20000490
 80017f8:	20000480 	.word	0x20000480

080017fc <heartbeatUART>:

void heartbeatUART(UART_HandleTypeDef *huart) {
 80017fc:	b580      	push	{r7, lr}
 80017fe:	b082      	sub	sp, #8
 8001800:	af00      	add	r7, sp, #0
 8001802:	6078      	str	r0, [r7, #4]
	send_uart_hex(huart, 0x51);			// Transmit the heartbeat as device ID (0x51 = Q)
 8001804:	2151      	movs	r1, #81	; 0x51
 8001806:	6878      	ldr	r0, [r7, #4]
 8001808:	f000 fe63 	bl	80024d2 <send_uart_hex>
}
 800180c:	bf00      	nop
 800180e:	3708      	adds	r7, #8
 8001810:	46bd      	mov	sp, r7
 8001812:	bd80      	pop	{r7, pc}

08001814 <eraseFlashSPI>:

/***************************************************************************************************************
 * SPI Flash Functions
 */
void eraseFlashSPI(SPI_HandleTypeDef *hspi, UART_HandleTypeDef *huart, GPIO_Config config) {
 8001814:	b580      	push	{r7, lr}
 8001816:	b084      	sub	sp, #16
 8001818:	af00      	add	r7, sp, #0
 800181a:	60f8      	str	r0, [r7, #12]
 800181c:	60b9      	str	r1, [r7, #8]
 800181e:	4639      	mov	r1, r7
 8001820:	e881 000c 	stmia.w	r1, {r2, r3}
	HAL_GPIO_WritePin(GPIOB, GPIO_PIN_7, GPIO_PIN_SET);		// Activate the "write out" LED
 8001824:	2201      	movs	r2, #1
 8001826:	2180      	movs	r1, #128	; 0x80
 8001828:	4813      	ldr	r0, [pc, #76]	; (8001878 <eraseFlashSPI+0x64>)
 800182a:	f001 fa77 	bl	8002d1c <HAL_GPIO_WritePin>
	if (erase_chip_spi(hspi, config) == HAL_OK) {
 800182e:	463b      	mov	r3, r7
 8001830:	e893 0006 	ldmia.w	r3, {r1, r2}
 8001834:	68f8      	ldr	r0, [r7, #12]
 8001836:	f7ff f803 	bl	8000840 <erase_chip_spi>
 800183a:	4603      	mov	r3, r0
 800183c:	2b00      	cmp	r3, #0
 800183e:	d10d      	bne.n	800185c <eraseFlashSPI+0x48>
		send_uart_string(huart, "Successful Chip Erase\r\n");
 8001840:	490e      	ldr	r1, [pc, #56]	; (800187c <eraseFlashSPI+0x68>)
 8001842:	68b8      	ldr	r0, [r7, #8]
 8001844:	f000 fe31 	bl	80024aa <send_uart_string>
		next_blank_page0 = find_next_blank_page(hspi, &end_of_flash, config);
 8001848:	463b      	mov	r3, r7
 800184a:	cb0c      	ldmia	r3, {r2, r3}
 800184c:	490c      	ldr	r1, [pc, #48]	; (8001880 <eraseFlashSPI+0x6c>)
 800184e:	68f8      	ldr	r0, [r7, #12]
 8001850:	f7ff f884 	bl	800095c <find_next_blank_page>
 8001854:	4603      	mov	r3, r0
 8001856:	4a0b      	ldr	r2, [pc, #44]	; (8001884 <eraseFlashSPI+0x70>)
 8001858:	6013      	str	r3, [r2, #0]
 800185a:	e003      	b.n	8001864 <eraseFlashSPI+0x50>
	} else {
		send_uart_string(huart, "Error during chip erase. Please check the connection and try again.\r\n");
 800185c:	490a      	ldr	r1, [pc, #40]	; (8001888 <eraseFlashSPI+0x74>)
 800185e:	68b8      	ldr	r0, [r7, #8]
 8001860:	f000 fe23 	bl	80024aa <send_uart_string>
	}
	HAL_GPIO_WritePin(GPIOB, GPIO_PIN_7,GPIO_PIN_RESET);	// Deactivate the "write out" LED
 8001864:	2200      	movs	r2, #0
 8001866:	2180      	movs	r1, #128	; 0x80
 8001868:	4803      	ldr	r0, [pc, #12]	; (8001878 <eraseFlashSPI+0x64>)
 800186a:	f001 fa57 	bl	8002d1c <HAL_GPIO_WritePin>
}
 800186e:	bf00      	nop
 8001870:	3710      	adds	r7, #16
 8001872:	46bd      	mov	sp, r7
 8001874:	bd80      	pop	{r7, pc}
 8001876:	bf00      	nop
 8001878:	40020400 	.word	0x40020400
 800187c:	080073c4 	.word	0x080073c4
 8001880:	2000046e 	.word	0x2000046e
 8001884:	20000464 	.word	0x20000464
 8001888:	080073dc 	.word	0x080073dc

0800188c <readFlashToUART>:

void readFlashToUART(SPI_HandleTypeDef *hspi, UART_HandleTypeDef *huart, GPIO_Config config) {
 800188c:	b590      	push	{r4, r7, lr}
 800188e:	b0cb      	sub	sp, #300	; 0x12c
 8001890:	af02      	add	r7, sp, #8
 8001892:	f507 7490 	add.w	r4, r7, #288	; 0x120
 8001896:	f5a4 748a 	sub.w	r4, r4, #276	; 0x114
 800189a:	6020      	str	r0, [r4, #0]
 800189c:	f507 7090 	add.w	r0, r7, #288	; 0x120
 80018a0:	f5a0 708c 	sub.w	r0, r0, #280	; 0x118
 80018a4:	6001      	str	r1, [r0, #0]
 80018a6:	f507 7190 	add.w	r1, r7, #288	; 0x120
 80018aa:	f5a1 7190 	sub.w	r1, r1, #288	; 0x120
 80018ae:	e881 000c 	stmia.w	r1, {r2, r3}
	uint32_t num_of_pages = next_blank_page0;
 80018b2:	4b2a      	ldr	r3, [pc, #168]	; (800195c <readFlashToUART+0xd0>)
 80018b4:	681b      	ldr	r3, [r3, #0]
 80018b6:	f8c7 311c 	str.w	r3, [r7, #284]	; 0x11c
	if(num_of_pages == 0) {
 80018ba:	f8d7 311c 	ldr.w	r3, [r7, #284]	; 0x11c
 80018be:	2b00      	cmp	r3, #0
 80018c0:	d103      	bne.n	80018ca <readFlashToUART+0x3e>
		num_of_pages = PAGE_SIZE;
 80018c2:	f44f 7380 	mov.w	r3, #256	; 0x100
 80018c6:	f8c7 311c 	str.w	r3, [r7, #284]	; 0x11c
	}
	num_of_pages = num_of_pages/PAGE_SIZE;
 80018ca:	f8d7 311c 	ldr.w	r3, [r7, #284]	; 0x11c
 80018ce:	0a1b      	lsrs	r3, r3, #8
 80018d0:	f8c7 311c 	str.w	r3, [r7, #284]	; 0x11c
	uint32_t address = 0;
 80018d4:	2300      	movs	r3, #0
 80018d6:	f8c7 3118 	str.w	r3, [r7, #280]	; 0x118
	HAL_GPIO_WritePin(GPIOB, GPIO_PIN_7,GPIO_PIN_SET);		// Activate the "write out" LED
 80018da:	2201      	movs	r2, #1
 80018dc:	2180      	movs	r1, #128	; 0x80
 80018de:	4820      	ldr	r0, [pc, #128]	; (8001960 <readFlashToUART+0xd4>)
 80018e0:	f001 fa1c 	bl	8002d1c <HAL_GPIO_WritePin>

	for (int i = 0; i < (num_of_pages); i++) {
 80018e4:	2300      	movs	r3, #0
 80018e6:	f8c7 3114 	str.w	r3, [r7, #276]	; 0x114
 80018ea:	e026      	b.n	800193a <readFlashToUART+0xae>
		uint8_t page[PAGE_SIZE];
		read_page_spi(page, hspi, address, config);
 80018ec:	f507 7390 	add.w	r3, r7, #288	; 0x120
 80018f0:	f5a3 7390 	sub.w	r3, r3, #288	; 0x120
 80018f4:	f507 7290 	add.w	r2, r7, #288	; 0x120
 80018f8:	f5a2 718a 	sub.w	r1, r2, #276	; 0x114
 80018fc:	f107 0014 	add.w	r0, r7, #20
 8001900:	685a      	ldr	r2, [r3, #4]
 8001902:	9200      	str	r2, [sp, #0]
 8001904:	681b      	ldr	r3, [r3, #0]
 8001906:	f8d7 2118 	ldr.w	r2, [r7, #280]	; 0x118
 800190a:	6809      	ldr	r1, [r1, #0]
 800190c:	f7ff f8be 	bl	8000a8c <read_page_spi>
		uart_transmit_page(huart, page);						// Transmit the data//
 8001910:	f107 0214 	add.w	r2, r7, #20
 8001914:	f507 7390 	add.w	r3, r7, #288	; 0x120
 8001918:	f5a3 738c 	sub.w	r3, r3, #280	; 0x118
 800191c:	4611      	mov	r1, r2
 800191e:	6818      	ldr	r0, [r3, #0]
 8001920:	f000 fdb2 	bl	8002488 <uart_transmit_page>
		address += PAGE_SIZE;
 8001924:	f8d7 3118 	ldr.w	r3, [r7, #280]	; 0x118
 8001928:	f503 7380 	add.w	r3, r3, #256	; 0x100
 800192c:	f8c7 3118 	str.w	r3, [r7, #280]	; 0x118
	for (int i = 0; i < (num_of_pages); i++) {
 8001930:	f8d7 3114 	ldr.w	r3, [r7, #276]	; 0x114
 8001934:	3301      	adds	r3, #1
 8001936:	f8c7 3114 	str.w	r3, [r7, #276]	; 0x114
 800193a:	f8d7 3114 	ldr.w	r3, [r7, #276]	; 0x114
 800193e:	f8d7 211c 	ldr.w	r2, [r7, #284]	; 0x11c
 8001942:	429a      	cmp	r2, r3
 8001944:	d8d2      	bhi.n	80018ec <readFlashToUART+0x60>
	}

	HAL_GPIO_WritePin(GPIOB, GPIO_PIN_7,GPIO_PIN_RESET);	// Deactivate the "write out" LED
 8001946:	2200      	movs	r2, #0
 8001948:	2180      	movs	r1, #128	; 0x80
 800194a:	4805      	ldr	r0, [pc, #20]	; (8001960 <readFlashToUART+0xd4>)
 800194c:	f001 f9e6 	bl	8002d1c <HAL_GPIO_WritePin>
}
 8001950:	bf00      	nop
 8001952:	f507 7792 	add.w	r7, r7, #292	; 0x124
 8001956:	46bd      	mov	sp, r7
 8001958:	bd90      	pop	{r4, r7, pc}
 800195a:	bf00      	nop
 800195c:	20000464 	.word	0x20000464
 8001960:	40020400 	.word	0x40020400

08001964 <readFlashManuSPI>:

void readFlashManuSPI(SPI_HandleTypeDef *hspi, UART_HandleTypeDef *huart, GPIO_Config config) {
 8001964:	b580      	push	{r7, lr}
 8001966:	b086      	sub	sp, #24
 8001968:	af00      	add	r7, sp, #0
 800196a:	60f8      	str	r0, [r7, #12]
 800196c:	60b9      	str	r1, [r7, #8]
 800196e:	4639      	mov	r1, r7
 8001970:	e881 000c 	stmia.w	r1, {r2, r3}
	uint8_t manu[2] = {0, 0};
 8001974:	2300      	movs	r3, #0
 8001976:	82bb      	strh	r3, [r7, #20]
	read_manufacturer_id(manu, hspi, config);
 8001978:	f107 0014 	add.w	r0, r7, #20
 800197c:	463b      	mov	r3, r7
 800197e:	cb0c      	ldmia	r3, {r2, r3}
 8001980:	68f9      	ldr	r1, [r7, #12]
 8001982:	f7ff f8a9 	bl	8000ad8 <read_manufacturer_id>
	send_uart_hex(huart, manu[0]);
 8001986:	7d3b      	ldrb	r3, [r7, #20]
 8001988:	4619      	mov	r1, r3
 800198a:	68b8      	ldr	r0, [r7, #8]
 800198c:	f000 fda1 	bl	80024d2 <send_uart_hex>
	send_uart_hex(huart, manu[1]);
 8001990:	7d7b      	ldrb	r3, [r7, #21]
 8001992:	4619      	mov	r1, r3
 8001994:	68b8      	ldr	r0, [r7, #8]
 8001996:	f000 fd9c 	bl	80024d2 <send_uart_hex>
}
 800199a:	bf00      	nop
 800199c:	3718      	adds	r7, #24
 800199e:	46bd      	mov	sp, r7
 80019a0:	bd80      	pop	{r7, pc}
	...

080019a4 <writePageSPI_W>:

void writePageSPI_W(SPI_HandleTypeDef *hspi, UART_HandleTypeDef *huart, GPIO_Config config) {
 80019a4:	b590      	push	{r4, r7, lr}
 80019a6:	b0c9      	sub	sp, #292	; 0x124
 80019a8:	af02      	add	r7, sp, #8
 80019aa:	f507 748c 	add.w	r4, r7, #280	; 0x118
 80019ae:	f5a4 7486 	sub.w	r4, r4, #268	; 0x10c
 80019b2:	6020      	str	r0, [r4, #0]
 80019b4:	f507 708c 	add.w	r0, r7, #280	; 0x118
 80019b8:	f5a0 7088 	sub.w	r0, r0, #272	; 0x110
 80019bc:	6001      	str	r1, [r0, #0]
 80019be:	f507 718c 	add.w	r1, r7, #280	; 0x118
 80019c2:	f5a1 718c 	sub.w	r1, r1, #280	; 0x118
 80019c6:	e881 000c 	stmia.w	r1, {r2, r3}
	uint8_t data_out[PAGE_SIZE];
	for (int i = 0; i < PAGE_SIZE; i++) {
 80019ca:	2300      	movs	r3, #0
 80019cc:	f8c7 3114 	str.w	r3, [r7, #276]	; 0x114
 80019d0:	e00d      	b.n	80019ee <writePageSPI_W+0x4a>
		data_out[i] = 0x77;		// Make all data in the page 'w'
 80019d2:	f507 738c 	add.w	r3, r7, #280	; 0x118
 80019d6:	f5a3 7282 	sub.w	r2, r3, #260	; 0x104
 80019da:	f8d7 3114 	ldr.w	r3, [r7, #276]	; 0x114
 80019de:	4413      	add	r3, r2
 80019e0:	2277      	movs	r2, #119	; 0x77
 80019e2:	701a      	strb	r2, [r3, #0]
	for (int i = 0; i < PAGE_SIZE; i++) {
 80019e4:	f8d7 3114 	ldr.w	r3, [r7, #276]	; 0x114
 80019e8:	3301      	adds	r3, #1
 80019ea:	f8c7 3114 	str.w	r3, [r7, #276]	; 0x114
 80019ee:	f8d7 3114 	ldr.w	r3, [r7, #276]	; 0x114
 80019f2:	2bff      	cmp	r3, #255	; 0xff
 80019f4:	dded      	ble.n	80019d2 <writePageSPI_W+0x2e>
	}
	write_data_spi(data_out, hspi, next_blank_page0, config);
 80019f6:	4b13      	ldr	r3, [pc, #76]	; (8001a44 <writePageSPI_W+0xa0>)
 80019f8:	681c      	ldr	r4, [r3, #0]
 80019fa:	f507 738c 	add.w	r3, r7, #280	; 0x118
 80019fe:	f5a3 738c 	sub.w	r3, r3, #280	; 0x118
 8001a02:	f507 728c 	add.w	r2, r7, #280	; 0x118
 8001a06:	f5a2 7186 	sub.w	r1, r2, #268	; 0x10c
 8001a0a:	f107 0014 	add.w	r0, r7, #20
 8001a0e:	685a      	ldr	r2, [r3, #4]
 8001a10:	9200      	str	r2, [sp, #0]
 8001a12:	681b      	ldr	r3, [r3, #0]
 8001a14:	4622      	mov	r2, r4
 8001a16:	6809      	ldr	r1, [r1, #0]
 8001a18:	f7fe ff72 	bl	8000900 <write_data_spi>
	next_blank_page0 += PAGE_SIZE;
 8001a1c:	4b09      	ldr	r3, [pc, #36]	; (8001a44 <writePageSPI_W+0xa0>)
 8001a1e:	681b      	ldr	r3, [r3, #0]
 8001a20:	f503 7380 	add.w	r3, r3, #256	; 0x100
 8001a24:	4a07      	ldr	r2, [pc, #28]	; (8001a44 <writePageSPI_W+0xa0>)
 8001a26:	6013      	str	r3, [r2, #0]

	send_uart_string(huart, "Successful Page Written\r\n");
 8001a28:	f507 738c 	add.w	r3, r7, #280	; 0x118
 8001a2c:	f5a3 7388 	sub.w	r3, r3, #272	; 0x110
 8001a30:	4905      	ldr	r1, [pc, #20]	; (8001a48 <writePageSPI_W+0xa4>)
 8001a32:	6818      	ldr	r0, [r3, #0]
 8001a34:	f000 fd39 	bl	80024aa <send_uart_string>
}
 8001a38:	bf00      	nop
 8001a3a:	f507 778e 	add.w	r7, r7, #284	; 0x11c
 8001a3e:	46bd      	mov	sp, r7
 8001a40:	bd90      	pop	{r4, r7, pc}
 8001a42:	bf00      	nop
 8001a44:	20000464 	.word	0x20000464
 8001a48:	08007424 	.word	0x08007424

08001a4c <resetSPIFlash>:

void resetSPIFlash(SPI_HandleTypeDef *hspi, UART_HandleTypeDef *huart, GPIO_Config config) {
 8001a4c:	b580      	push	{r7, lr}
 8001a4e:	b084      	sub	sp, #16
 8001a50:	af00      	add	r7, sp, #0
 8001a52:	60f8      	str	r0, [r7, #12]
 8001a54:	60b9      	str	r1, [r7, #8]
 8001a56:	4639      	mov	r1, r7
 8001a58:	e881 000c 	stmia.w	r1, {r2, r3}
	software_reset(hspi, config);
 8001a5c:	463b      	mov	r3, r7
 8001a5e:	e893 0006 	ldmia.w	r3, {r1, r2}
 8001a62:	68f8      	ldr	r0, [r7, #12]
 8001a64:	f7fe ff28 	bl	80008b8 <software_reset>
	send_uart_string(huart, "Flash Chip Reset\r\n");
 8001a68:	4903      	ldr	r1, [pc, #12]	; (8001a78 <resetSPIFlash+0x2c>)
 8001a6a:	68b8      	ldr	r0, [r7, #8]
 8001a6c:	f000 fd1d 	bl	80024aa <send_uart_string>
}
 8001a70:	bf00      	nop
 8001a72:	3710      	adds	r7, #16
 8001a74:	46bd      	mov	sp, r7
 8001a76:	bd80      	pop	{r7, pc}
 8001a78:	08007440 	.word	0x08007440

08001a7c <checkAccelWhoAmI>:

/***************************************************************************************************************
 * I2C Accelerometer Functions
 */
void checkAccelWhoAmI(I2C_HandleTypeDef* hi2c, UART_HandleTypeDef *huart) {
 8001a7c:	b580      	push	{r7, lr}
 8001a7e:	b084      	sub	sp, #16
 8001a80:	af00      	add	r7, sp, #0
 8001a82:	6078      	str	r0, [r7, #4]
 8001a84:	6039      	str	r1, [r7, #0]
	uint8_t whoami = readAccel_whoami(hi2c);
 8001a86:	6878      	ldr	r0, [r7, #4]
 8001a88:	f7fe fd68 	bl	800055c <readAccel_whoami>
 8001a8c:	4603      	mov	r3, r0
 8001a8e:	73fb      	strb	r3, [r7, #15]
	send_uart_hex(huart, whoami);
 8001a90:	7bfb      	ldrb	r3, [r7, #15]
 8001a92:	4619      	mov	r1, r3
 8001a94:	6838      	ldr	r0, [r7, #0]
 8001a96:	f000 fd1c 	bl	80024d2 <send_uart_hex>
}
 8001a9a:	bf00      	nop
 8001a9c:	3710      	adds	r7, #16
 8001a9e:	46bd      	mov	sp, r7
 8001aa0:	bd80      	pop	{r7, pc}
	...

08001aa4 <accelToUART>:

void accelToUART(UART_HandleTypeDef *huart) {
 8001aa4:	b580      	push	{r7, lr}
 8001aa6:	b084      	sub	sp, #16
 8001aa8:	af00      	add	r7, sp, #0
 8001aaa:	6078      	str	r0, [r7, #4]
	for (int i = 0; i < 6; i++) {
 8001aac:	2300      	movs	r3, #0
 8001aae:	60fb      	str	r3, [r7, #12]
 8001ab0:	e00a      	b.n	8001ac8 <accelToUART+0x24>
		send_uart_hex(huart, accel_data[i]);
 8001ab2:	4a09      	ldr	r2, [pc, #36]	; (8001ad8 <accelToUART+0x34>)
 8001ab4:	68fb      	ldr	r3, [r7, #12]
 8001ab6:	4413      	add	r3, r2
 8001ab8:	781b      	ldrb	r3, [r3, #0]
 8001aba:	4619      	mov	r1, r3
 8001abc:	6878      	ldr	r0, [r7, #4]
 8001abe:	f000 fd08 	bl	80024d2 <send_uart_hex>
	for (int i = 0; i < 6; i++) {
 8001ac2:	68fb      	ldr	r3, [r7, #12]
 8001ac4:	3301      	adds	r3, #1
 8001ac6:	60fb      	str	r3, [r7, #12]
 8001ac8:	68fb      	ldr	r3, [r7, #12]
 8001aca:	2b05      	cmp	r3, #5
 8001acc:	ddf1      	ble.n	8001ab2 <accelToUART+0xe>
	}
}
 8001ace:	bf00      	nop
 8001ad0:	bf00      	nop
 8001ad2:	3710      	adds	r7, #16
 8001ad4:	46bd      	mov	sp, r7
 8001ad6:	bd80      	pop	{r7, pc}
 8001ad8:	2000044c 	.word	0x2000044c

08001adc <readTempSensorID>:

/***************************************************************************************************************
 * I2C BME280 Sensor Functions
 */
void readTempSensorID(I2C_HandleTypeDef* hi2c, UART_HandleTypeDef *huart, uint8_t tempNo) {
 8001adc:	b580      	push	{r7, lr}
 8001ade:	b084      	sub	sp, #16
 8001ae0:	af00      	add	r7, sp, #0
 8001ae2:	60f8      	str	r0, [r7, #12]
 8001ae4:	60b9      	str	r1, [r7, #8]
 8001ae6:	4613      	mov	r3, r2
 8001ae8:	71fb      	strb	r3, [r7, #7]
	send_uart_hex(huart, readBME280_id_reg(hi2c, tempNo));
 8001aea:	79fb      	ldrb	r3, [r7, #7]
 8001aec:	4619      	mov	r1, r3
 8001aee:	68f8      	ldr	r0, [r7, #12]
 8001af0:	f7fe fdee 	bl	80006d0 <readBME280_id_reg>
 8001af4:	4603      	mov	r3, r0
 8001af6:	4619      	mov	r1, r3
 8001af8:	68b8      	ldr	r0, [r7, #8]
 8001afa:	f000 fcea 	bl	80024d2 <send_uart_hex>
}
 8001afe:	bf00      	nop
 8001b00:	3710      	adds	r7, #16
 8001b02:	46bd      	mov	sp, r7
 8001b04:	bd80      	pop	{r7, pc}

08001b06 <readTempCalibration>:

void readTempCalibration(I2C_HandleTypeDef* hi2c, UART_HandleTypeDef *huart, uint8_t tempNo) {
 8001b06:	b580      	push	{r7, lr}
 8001b08:	b090      	sub	sp, #64	; 0x40
 8001b0a:	af00      	add	r7, sp, #0
 8001b0c:	60f8      	str	r0, [r7, #12]
 8001b0e:	60b9      	str	r1, [r7, #8]
 8001b10:	4613      	mov	r3, r2
 8001b12:	71fb      	strb	r3, [r7, #7]
	uint8_t calibration1[25];
	uint8_t calibration2[7];
	readBME280_calib(hi2c, tempNo, calibration1, calibration2);
 8001b14:	f107 0314 	add.w	r3, r7, #20
 8001b18:	f107 021c 	add.w	r2, r7, #28
 8001b1c:	79f9      	ldrb	r1, [r7, #7]
 8001b1e:	68f8      	ldr	r0, [r7, #12]
 8001b20:	f7fe fdf2 	bl	8000708 <readBME280_calib>

	for (int i = 0; i < 25; i++) {
 8001b24:	2300      	movs	r3, #0
 8001b26:	63fb      	str	r3, [r7, #60]	; 0x3c
 8001b28:	e00b      	b.n	8001b42 <readTempCalibration+0x3c>
	  send_uart_hex(huart, calibration1[i]);
 8001b2a:	f107 021c 	add.w	r2, r7, #28
 8001b2e:	6bfb      	ldr	r3, [r7, #60]	; 0x3c
 8001b30:	4413      	add	r3, r2
 8001b32:	781b      	ldrb	r3, [r3, #0]
 8001b34:	4619      	mov	r1, r3
 8001b36:	68b8      	ldr	r0, [r7, #8]
 8001b38:	f000 fccb 	bl	80024d2 <send_uart_hex>
	for (int i = 0; i < 25; i++) {
 8001b3c:	6bfb      	ldr	r3, [r7, #60]	; 0x3c
 8001b3e:	3301      	adds	r3, #1
 8001b40:	63fb      	str	r3, [r7, #60]	; 0x3c
 8001b42:	6bfb      	ldr	r3, [r7, #60]	; 0x3c
 8001b44:	2b18      	cmp	r3, #24
 8001b46:	ddf0      	ble.n	8001b2a <readTempCalibration+0x24>
	}

	for (int i = 0; i < 7; i++) {
 8001b48:	2300      	movs	r3, #0
 8001b4a:	63bb      	str	r3, [r7, #56]	; 0x38
 8001b4c:	e00b      	b.n	8001b66 <readTempCalibration+0x60>
	  send_uart_hex(huart, calibration2[i]);
 8001b4e:	f107 0214 	add.w	r2, r7, #20
 8001b52:	6bbb      	ldr	r3, [r7, #56]	; 0x38
 8001b54:	4413      	add	r3, r2
 8001b56:	781b      	ldrb	r3, [r3, #0]
 8001b58:	4619      	mov	r1, r3
 8001b5a:	68b8      	ldr	r0, [r7, #8]
 8001b5c:	f000 fcb9 	bl	80024d2 <send_uart_hex>
	for (int i = 0; i < 7; i++) {
 8001b60:	6bbb      	ldr	r3, [r7, #56]	; 0x38
 8001b62:	3301      	adds	r3, #1
 8001b64:	63bb      	str	r3, [r7, #56]	; 0x38
 8001b66:	6bbb      	ldr	r3, [r7, #56]	; 0x38
 8001b68:	2b06      	cmp	r3, #6
 8001b6a:	ddf0      	ble.n	8001b4e <readTempCalibration+0x48>
	}
}
 8001b6c:	bf00      	nop
 8001b6e:	bf00      	nop
 8001b70:	3740      	adds	r7, #64	; 0x40
 8001b72:	46bd      	mov	sp, r7
 8001b74:	bd80      	pop	{r7, pc}
	...

08001b78 <readTempSensor>:

void readTempSensor(UART_HandleTypeDef *huart, uint8_t tempNo) {
 8001b78:	b580      	push	{r7, lr}
 8001b7a:	b084      	sub	sp, #16
 8001b7c:	af00      	add	r7, sp, #0
 8001b7e:	6078      	str	r0, [r7, #4]
 8001b80:	460b      	mov	r3, r1
 8001b82:	70fb      	strb	r3, [r7, #3]
	if (tempNo == 0) {
 8001b84:	78fb      	ldrb	r3, [r7, #3]
 8001b86:	2b00      	cmp	r3, #0
 8001b88:	d111      	bne.n	8001bae <readTempSensor+0x36>
		for (int i = 0; i < 6; i++) {
 8001b8a:	2300      	movs	r3, #0
 8001b8c:	60fb      	str	r3, [r7, #12]
 8001b8e:	e00a      	b.n	8001ba6 <readTempSensor+0x2e>
			send_uart_hex(huart, bme280_data_1[i]);
 8001b90:	4a13      	ldr	r2, [pc, #76]	; (8001be0 <readTempSensor+0x68>)
 8001b92:	68fb      	ldr	r3, [r7, #12]
 8001b94:	4413      	add	r3, r2
 8001b96:	781b      	ldrb	r3, [r3, #0]
 8001b98:	4619      	mov	r1, r3
 8001b9a:	6878      	ldr	r0, [r7, #4]
 8001b9c:	f000 fc99 	bl	80024d2 <send_uart_hex>
		for (int i = 0; i < 6; i++) {
 8001ba0:	68fb      	ldr	r3, [r7, #12]
 8001ba2:	3301      	adds	r3, #1
 8001ba4:	60fb      	str	r3, [r7, #12]
 8001ba6:	68fb      	ldr	r3, [r7, #12]
 8001ba8:	2b05      	cmp	r3, #5
 8001baa:	ddf1      	ble.n	8001b90 <readTempSensor+0x18>
	} else if (tempNo == 1) {
		for (int i = 0; i < 6; i++) {
			send_uart_hex(huart, bme280_data_2[i]);
		}
	}
}
 8001bac:	e013      	b.n	8001bd6 <readTempSensor+0x5e>
	} else if (tempNo == 1) {
 8001bae:	78fb      	ldrb	r3, [r7, #3]
 8001bb0:	2b01      	cmp	r3, #1
 8001bb2:	d110      	bne.n	8001bd6 <readTempSensor+0x5e>
		for (int i = 0; i < 6; i++) {
 8001bb4:	2300      	movs	r3, #0
 8001bb6:	60bb      	str	r3, [r7, #8]
 8001bb8:	e00a      	b.n	8001bd0 <readTempSensor+0x58>
			send_uart_hex(huart, bme280_data_2[i]);
 8001bba:	4a0a      	ldr	r2, [pc, #40]	; (8001be4 <readTempSensor+0x6c>)
 8001bbc:	68bb      	ldr	r3, [r7, #8]
 8001bbe:	4413      	add	r3, r2
 8001bc0:	781b      	ldrb	r3, [r3, #0]
 8001bc2:	4619      	mov	r1, r3
 8001bc4:	6878      	ldr	r0, [r7, #4]
 8001bc6:	f000 fc84 	bl	80024d2 <send_uart_hex>
		for (int i = 0; i < 6; i++) {
 8001bca:	68bb      	ldr	r3, [r7, #8]
 8001bcc:	3301      	adds	r3, #1
 8001bce:	60bb      	str	r3, [r7, #8]
 8001bd0:	68bb      	ldr	r3, [r7, #8]
 8001bd2:	2b05      	cmp	r3, #5
 8001bd4:	ddf1      	ble.n	8001bba <readTempSensor+0x42>
}
 8001bd6:	bf00      	nop
 8001bd8:	3710      	adds	r7, #16
 8001bda:	46bd      	mov	sp, r7
 8001bdc:	bd80      	pop	{r7, pc}
 8001bde:	bf00      	nop
 8001be0:	20000454 	.word	0x20000454
 8001be4:	2000045c 	.word	0x2000045c

08001be8 <readAllSensors>:

/***************************************************************************************************************
 * Process All Sensors
 */
void readAllSensors(I2C_HandleTypeDef* hi2c_accel, I2C_HandleTypeDef* hi2c_temp, RTC_HandleTypeDef* hrtc) {
 8001be8:	b590      	push	{r4, r7, lr}
 8001bea:	b08b      	sub	sp, #44	; 0x2c
 8001bec:	af00      	add	r7, sp, #0
 8001bee:	60f8      	str	r0, [r7, #12]
 8001bf0:	60b9      	str	r1, [r7, #8]
 8001bf2:	607a      	str	r2, [r7, #4]
	// Read Accelerometer Data
	readAccelerometer(accel_data, hi2c_accel);
 8001bf4:	68f9      	ldr	r1, [r7, #12]
 8001bf6:	4855      	ldr	r0, [pc, #340]	; (8001d4c <readAllSensors+0x164>)
 8001bf8:	f7fe fc9c 	bl	8000534 <readAccelerometer>

	// Read BME280 Data
	readTempHumPres(bme280_data_1, hi2c_temp, 0);
 8001bfc:	2200      	movs	r2, #0
 8001bfe:	68b9      	ldr	r1, [r7, #8]
 8001c00:	4853      	ldr	r0, [pc, #332]	; (8001d50 <readAllSensors+0x168>)
 8001c02:	f7fe fd0b 	bl	800061c <readTempHumPres>
	readTempHumPres(bme280_data_2, hi2c_temp, 1);
 8001c06:	2201      	movs	r2, #1
 8001c08:	68b9      	ldr	r1, [r7, #8]
 8001c0a:	4852      	ldr	r0, [pc, #328]	; (8001d54 <readAllSensors+0x16c>)
 8001c0c:	f7fe fd06 	bl	800061c <readTempHumPres>

	uint16_t time = getTimestampMilliseconds(hrtc);
 8001c10:	6878      	ldr	r0, [r7, #4]
 8001c12:	f000 f8c1 	bl	8001d98 <getTimestampMilliseconds>
 8001c16:	4603      	mov	r3, r0
 8001c18:	82fb      	strh	r3, [r7, #22]
	uint8_t array_ptr = 0;
 8001c1a:	2300      	movs	r3, #0
 8001c1c:	f887 3027 	strb.w	r3, [r7, #39]	; 0x27
	// Store the time in the buffer if there is space
	if (byte_tracker < (PAGE_SIZE - READ_SIZE)) {
 8001c20:	4b4d      	ldr	r3, [pc, #308]	; (8001d58 <readAllSensors+0x170>)
 8001c22:	881b      	ldrh	r3, [r3, #0]
 8001c24:	2be7      	cmp	r3, #231	; 0xe7
 8001c26:	f200 808c 	bhi.w	8001d42 <readAllSensors+0x15a>
		data_buffer[buffer_ref][byte_tracker + 0] = (uint8_t) ((time >> 8) & 0xFF);
 8001c2a:	8afb      	ldrh	r3, [r7, #22]
 8001c2c:	0a1b      	lsrs	r3, r3, #8
 8001c2e:	b29a      	uxth	r2, r3
 8001c30:	4b4a      	ldr	r3, [pc, #296]	; (8001d5c <readAllSensors+0x174>)
 8001c32:	781b      	ldrb	r3, [r3, #0]
 8001c34:	461c      	mov	r4, r3
 8001c36:	4b48      	ldr	r3, [pc, #288]	; (8001d58 <readAllSensors+0x170>)
 8001c38:	881b      	ldrh	r3, [r3, #0]
 8001c3a:	4618      	mov	r0, r3
 8001c3c:	b2d1      	uxtb	r1, r2
 8001c3e:	4a48      	ldr	r2, [pc, #288]	; (8001d60 <readAllSensors+0x178>)
 8001c40:	0223      	lsls	r3, r4, #8
 8001c42:	4413      	add	r3, r2
 8001c44:	4403      	add	r3, r0
 8001c46:	460a      	mov	r2, r1
 8001c48:	701a      	strb	r2, [r3, #0]
		data_buffer[buffer_ref][byte_tracker + 1] = (uint8_t) (time & 0xFF); // Least significant byte (LSB)
 8001c4a:	4b44      	ldr	r3, [pc, #272]	; (8001d5c <readAllSensors+0x174>)
 8001c4c:	781b      	ldrb	r3, [r3, #0]
 8001c4e:	461a      	mov	r2, r3
 8001c50:	4b41      	ldr	r3, [pc, #260]	; (8001d58 <readAllSensors+0x170>)
 8001c52:	881b      	ldrh	r3, [r3, #0]
 8001c54:	3301      	adds	r3, #1
 8001c56:	8af9      	ldrh	r1, [r7, #22]
 8001c58:	b2c8      	uxtb	r0, r1
 8001c5a:	4941      	ldr	r1, [pc, #260]	; (8001d60 <readAllSensors+0x178>)
 8001c5c:	0212      	lsls	r2, r2, #8
 8001c5e:	440a      	add	r2, r1
 8001c60:	4413      	add	r3, r2
 8001c62:	4602      	mov	r2, r0
 8001c64:	701a      	strb	r2, [r3, #0]

		array_ptr += 2;
 8001c66:	f897 3027 	ldrb.w	r3, [r7, #39]	; 0x27
 8001c6a:	3302      	adds	r3, #2
 8001c6c:	f887 3027 	strb.w	r3, [r7, #39]	; 0x27
		for (int i = 0; i < 6; i++) {
 8001c70:	2300      	movs	r3, #0
 8001c72:	623b      	str	r3, [r7, #32]
 8001c74:	e01a      	b.n	8001cac <readAllSensors+0xc4>
		  data_buffer[buffer_ref][byte_tracker + array_ptr] = accel_data[i];
 8001c76:	4b39      	ldr	r3, [pc, #228]	; (8001d5c <readAllSensors+0x174>)
 8001c78:	781b      	ldrb	r3, [r3, #0]
 8001c7a:	461c      	mov	r4, r3
 8001c7c:	4b36      	ldr	r3, [pc, #216]	; (8001d58 <readAllSensors+0x170>)
 8001c7e:	881b      	ldrh	r3, [r3, #0]
 8001c80:	461a      	mov	r2, r3
 8001c82:	f897 3027 	ldrb.w	r3, [r7, #39]	; 0x27
 8001c86:	4413      	add	r3, r2
 8001c88:	4930      	ldr	r1, [pc, #192]	; (8001d4c <readAllSensors+0x164>)
 8001c8a:	6a3a      	ldr	r2, [r7, #32]
 8001c8c:	440a      	add	r2, r1
 8001c8e:	7810      	ldrb	r0, [r2, #0]
 8001c90:	4933      	ldr	r1, [pc, #204]	; (8001d60 <readAllSensors+0x178>)
 8001c92:	0222      	lsls	r2, r4, #8
 8001c94:	440a      	add	r2, r1
 8001c96:	4413      	add	r3, r2
 8001c98:	4602      	mov	r2, r0
 8001c9a:	701a      	strb	r2, [r3, #0]
		  array_ptr += 1;
 8001c9c:	f897 3027 	ldrb.w	r3, [r7, #39]	; 0x27
 8001ca0:	3301      	adds	r3, #1
 8001ca2:	f887 3027 	strb.w	r3, [r7, #39]	; 0x27
		for (int i = 0; i < 6; i++) {
 8001ca6:	6a3b      	ldr	r3, [r7, #32]
 8001ca8:	3301      	adds	r3, #1
 8001caa:	623b      	str	r3, [r7, #32]
 8001cac:	6a3b      	ldr	r3, [r7, #32]
 8001cae:	2b05      	cmp	r3, #5
 8001cb0:	dde1      	ble.n	8001c76 <readAllSensors+0x8e>
		}

		for (int i = 0; i < 8; i++) {
 8001cb2:	2300      	movs	r3, #0
 8001cb4:	61fb      	str	r3, [r7, #28]
 8001cb6:	e01a      	b.n	8001cee <readAllSensors+0x106>
		  data_buffer[buffer_ref][byte_tracker + array_ptr] = bme280_data_1[i];
 8001cb8:	4b28      	ldr	r3, [pc, #160]	; (8001d5c <readAllSensors+0x174>)
 8001cba:	781b      	ldrb	r3, [r3, #0]
 8001cbc:	461c      	mov	r4, r3
 8001cbe:	4b26      	ldr	r3, [pc, #152]	; (8001d58 <readAllSensors+0x170>)
 8001cc0:	881b      	ldrh	r3, [r3, #0]
 8001cc2:	461a      	mov	r2, r3
 8001cc4:	f897 3027 	ldrb.w	r3, [r7, #39]	; 0x27
 8001cc8:	4413      	add	r3, r2
 8001cca:	4921      	ldr	r1, [pc, #132]	; (8001d50 <readAllSensors+0x168>)
 8001ccc:	69fa      	ldr	r2, [r7, #28]
 8001cce:	440a      	add	r2, r1
 8001cd0:	7810      	ldrb	r0, [r2, #0]
 8001cd2:	4923      	ldr	r1, [pc, #140]	; (8001d60 <readAllSensors+0x178>)
 8001cd4:	0222      	lsls	r2, r4, #8
 8001cd6:	440a      	add	r2, r1
 8001cd8:	4413      	add	r3, r2
 8001cda:	4602      	mov	r2, r0
 8001cdc:	701a      	strb	r2, [r3, #0]
		  array_ptr += 1;
 8001cde:	f897 3027 	ldrb.w	r3, [r7, #39]	; 0x27
 8001ce2:	3301      	adds	r3, #1
 8001ce4:	f887 3027 	strb.w	r3, [r7, #39]	; 0x27
		for (int i = 0; i < 8; i++) {
 8001ce8:	69fb      	ldr	r3, [r7, #28]
 8001cea:	3301      	adds	r3, #1
 8001cec:	61fb      	str	r3, [r7, #28]
 8001cee:	69fb      	ldr	r3, [r7, #28]
 8001cf0:	2b07      	cmp	r3, #7
 8001cf2:	dde1      	ble.n	8001cb8 <readAllSensors+0xd0>
		}

		for (int i = 0; i < 8; i++) {
 8001cf4:	2300      	movs	r3, #0
 8001cf6:	61bb      	str	r3, [r7, #24]
 8001cf8:	e01a      	b.n	8001d30 <readAllSensors+0x148>
		  data_buffer[buffer_ref][byte_tracker + array_ptr] = bme280_data_2[i];
 8001cfa:	4b18      	ldr	r3, [pc, #96]	; (8001d5c <readAllSensors+0x174>)
 8001cfc:	781b      	ldrb	r3, [r3, #0]
 8001cfe:	461c      	mov	r4, r3
 8001d00:	4b15      	ldr	r3, [pc, #84]	; (8001d58 <readAllSensors+0x170>)
 8001d02:	881b      	ldrh	r3, [r3, #0]
 8001d04:	461a      	mov	r2, r3
 8001d06:	f897 3027 	ldrb.w	r3, [r7, #39]	; 0x27
 8001d0a:	4413      	add	r3, r2
 8001d0c:	4911      	ldr	r1, [pc, #68]	; (8001d54 <readAllSensors+0x16c>)
 8001d0e:	69ba      	ldr	r2, [r7, #24]
 8001d10:	440a      	add	r2, r1
 8001d12:	7810      	ldrb	r0, [r2, #0]
 8001d14:	4912      	ldr	r1, [pc, #72]	; (8001d60 <readAllSensors+0x178>)
 8001d16:	0222      	lsls	r2, r4, #8
 8001d18:	440a      	add	r2, r1
 8001d1a:	4413      	add	r3, r2
 8001d1c:	4602      	mov	r2, r0
 8001d1e:	701a      	strb	r2, [r3, #0]
		  array_ptr += 1;
 8001d20:	f897 3027 	ldrb.w	r3, [r7, #39]	; 0x27
 8001d24:	3301      	adds	r3, #1
 8001d26:	f887 3027 	strb.w	r3, [r7, #39]	; 0x27
		for (int i = 0; i < 8; i++) {
 8001d2a:	69bb      	ldr	r3, [r7, #24]
 8001d2c:	3301      	adds	r3, #1
 8001d2e:	61bb      	str	r3, [r7, #24]
 8001d30:	69bb      	ldr	r3, [r7, #24]
 8001d32:	2b07      	cmp	r3, #7
 8001d34:	dde1      	ble.n	8001cfa <readAllSensors+0x112>
		}

		byte_tracker = byte_tracker + 24;
 8001d36:	4b08      	ldr	r3, [pc, #32]	; (8001d58 <readAllSensors+0x170>)
 8001d38:	881b      	ldrh	r3, [r3, #0]
 8001d3a:	3318      	adds	r3, #24
 8001d3c:	b29a      	uxth	r2, r3
 8001d3e:	4b06      	ldr	r3, [pc, #24]	; (8001d58 <readAllSensors+0x170>)
 8001d40:	801a      	strh	r2, [r3, #0]
	}
}
 8001d42:	bf00      	nop
 8001d44:	372c      	adds	r7, #44	; 0x2c
 8001d46:	46bd      	mov	sp, r7
 8001d48:	bd90      	pop	{r4, r7, pc}
 8001d4a:	bf00      	nop
 8001d4c:	2000044c 	.word	0x2000044c
 8001d50:	20000454 	.word	0x20000454
 8001d54:	2000045c 	.word	0x2000045c
 8001d58:	2000046c 	.word	0x2000046c
 8001d5c:	20000462 	.word	0x20000462
 8001d60:	2000024c 	.word	0x2000024c

08001d64 <initialise_rtc_default>:
    .Month = RTC_MONTH_JANUARY, // Set default month (e.g., January)
    .Date = 1, // Set default day of the month
    .Year = 24 // Set default year (e.g., 2021)
};

void initialise_rtc_default(RTC_HandleTypeDef* hrtc) {
 8001d64:	b580      	push	{r7, lr}
 8001d66:	b082      	sub	sp, #8
 8001d68:	af00      	add	r7, sp, #0
 8001d6a:	6078      	str	r0, [r7, #4]
	// Reset RTC on boot
	HAL_RTC_MspInit(hrtc); // Initialize RTC hardware
 8001d6c:	6878      	ldr	r0, [r7, #4]
 8001d6e:	f000 f9e1 	bl	8002134 <HAL_RTC_MspInit>
	HAL_RTC_SetTime(hrtc, &defaultTime, RTC_FORMAT_BIN); // Set default time
 8001d72:	2200      	movs	r2, #0
 8001d74:	4906      	ldr	r1, [pc, #24]	; (8001d90 <initialise_rtc_default+0x2c>)
 8001d76:	6878      	ldr	r0, [r7, #4]
 8001d78:	f002 ff15 	bl	8004ba6 <HAL_RTC_SetTime>
	HAL_RTC_SetDate(hrtc, &defaultDate, RTC_FORMAT_BIN); // Set default date
 8001d7c:	2200      	movs	r2, #0
 8001d7e:	4905      	ldr	r1, [pc, #20]	; (8001d94 <initialise_rtc_default+0x30>)
 8001d80:	6878      	ldr	r0, [r7, #4]
 8001d82:	f003 f808 	bl	8004d96 <HAL_RTC_SetDate>
}
 8001d86:	bf00      	nop
 8001d88:	3708      	adds	r7, #8
 8001d8a:	46bd      	mov	sp, r7
 8001d8c:	bd80      	pop	{r7, pc}
 8001d8e:	bf00      	nop
 8001d90:	200004a8 	.word	0x200004a8
 8001d94:	20000014 	.word	0x20000014

08001d98 <getTimestampMilliseconds>:

uint32_t getTimestampMilliseconds(RTC_HandleTypeDef* hrtc) {
 8001d98:	b580      	push	{r7, lr}
 8001d9a:	b08c      	sub	sp, #48	; 0x30
 8001d9c:	af00      	add	r7, sp, #0
 8001d9e:	6078      	str	r0, [r7, #4]
    RTC_TimeTypeDef rtcTime;
    RTC_DateTypeDef rtcDate;

    // Read RTC time and date
    HAL_RTC_GetTime(hrtc, &rtcTime, RTC_FORMAT_BIN);
 8001da0:	f107 0310 	add.w	r3, r7, #16
 8001da4:	2200      	movs	r2, #0
 8001da6:	4619      	mov	r1, r3
 8001da8:	6878      	ldr	r0, [r7, #4]
 8001daa:	f002 ff96 	bl	8004cda <HAL_RTC_GetTime>
    HAL_RTC_GetDate(hrtc, &rtcDate, RTC_FORMAT_BIN);
 8001dae:	f107 030c 	add.w	r3, r7, #12
 8001db2:	2200      	movs	r2, #0
 8001db4:	4619      	mov	r1, r3
 8001db6:	6878      	ldr	r0, [r7, #4]
 8001db8:	f003 f871 	bl	8004e9e <HAL_RTC_GetDate>

    // Calculate timestamp in milliseconds
    uint32_t timestampSeconds = rtcTime.Seconds + rtcTime.Minutes * 60 + rtcTime.Hours * 3600;
 8001dbc:	7cbb      	ldrb	r3, [r7, #18]
 8001dbe:	4619      	mov	r1, r3
 8001dc0:	7c7b      	ldrb	r3, [r7, #17]
 8001dc2:	461a      	mov	r2, r3
 8001dc4:	4613      	mov	r3, r2
 8001dc6:	011b      	lsls	r3, r3, #4
 8001dc8:	1a9b      	subs	r3, r3, r2
 8001dca:	009b      	lsls	r3, r3, #2
 8001dcc:	18ca      	adds	r2, r1, r3
 8001dce:	7c3b      	ldrb	r3, [r7, #16]
 8001dd0:	4619      	mov	r1, r3
 8001dd2:	f44f 6361 	mov.w	r3, #3600	; 0xe10
 8001dd6:	fb01 f303 	mul.w	r3, r1, r3
 8001dda:	4413      	add	r3, r2
 8001ddc:	62fb      	str	r3, [r7, #44]	; 0x2c
    uint32_t timestampMilliseconds = timestampSeconds * 1000;
 8001dde:	6afb      	ldr	r3, [r7, #44]	; 0x2c
 8001de0:	f44f 727a 	mov.w	r2, #1000	; 0x3e8
 8001de4:	fb02 f303 	mul.w	r3, r2, r3
 8001de8:	62bb      	str	r3, [r7, #40]	; 0x28
    float subsecondsFraction = (float)(rtcTime.SecondFraction - rtcTime.SubSeconds) / (rtcTime.SecondFraction + 1);
 8001dea:	69ba      	ldr	r2, [r7, #24]
 8001dec:	697b      	ldr	r3, [r7, #20]
 8001dee:	1ad3      	subs	r3, r2, r3
 8001df0:	ee07 3a90 	vmov	s15, r3
 8001df4:	eef8 6a67 	vcvt.f32.u32	s13, s15
 8001df8:	69bb      	ldr	r3, [r7, #24]
 8001dfa:	3301      	adds	r3, #1
 8001dfc:	ee07 3a90 	vmov	s15, r3
 8001e00:	eeb8 7a67 	vcvt.f32.u32	s14, s15
 8001e04:	eec6 7a87 	vdiv.f32	s15, s13, s14
 8001e08:	edc7 7a09 	vstr	s15, [r7, #36]	; 0x24
    timestampMilliseconds += subsecondsFraction * 1000;
 8001e0c:	6abb      	ldr	r3, [r7, #40]	; 0x28
 8001e0e:	ee07 3a90 	vmov	s15, r3
 8001e12:	eeb8 7a67 	vcvt.f32.u32	s14, s15
 8001e16:	edd7 7a09 	vldr	s15, [r7, #36]	; 0x24
 8001e1a:	eddf 6a08 	vldr	s13, [pc, #32]	; 8001e3c <getTimestampMilliseconds+0xa4>
 8001e1e:	ee67 7aa6 	vmul.f32	s15, s15, s13
 8001e22:	ee77 7a27 	vadd.f32	s15, s14, s15
 8001e26:	eefc 7ae7 	vcvt.u32.f32	s15, s15
 8001e2a:	ee17 3a90 	vmov	r3, s15
 8001e2e:	62bb      	str	r3, [r7, #40]	; 0x28

    return timestampMilliseconds;
 8001e30:	6abb      	ldr	r3, [r7, #40]	; 0x28
}
 8001e32:	4618      	mov	r0, r3
 8001e34:	3730      	adds	r7, #48	; 0x30
 8001e36:	46bd      	mov	sp, r7
 8001e38:	bd80      	pop	{r7, pc}
 8001e3a:	bf00      	nop
 8001e3c:	447a0000 	.word	0x447a0000

08001e40 <spi_sendOp_readByte>:
#ifndef SRC_SPI_DRIVER_C_
#define SRC_SPI_DRIVER_C_

#include "spi_driver.h"

HAL_StatusTypeDef spi_sendOp_readByte(uint8_t* opcode, SPI_HandleTypeDef *hspi, uint8_t* data_ptr, GPIO_TypeDef* GPIOx, uint16_t GPIO_Pin_CS) {
 8001e40:	b580      	push	{r7, lr}
 8001e42:	b086      	sub	sp, #24
 8001e44:	af00      	add	r7, sp, #0
 8001e46:	60f8      	str	r0, [r7, #12]
 8001e48:	60b9      	str	r1, [r7, #8]
 8001e4a:	607a      	str	r2, [r7, #4]
 8001e4c:	603b      	str	r3, [r7, #0]
	HAL_StatusTypeDef status;
	HAL_GPIO_WritePin(GPIOx, GPIO_Pin_CS, GPIO_PIN_RESET);	// Set the chip select pin to low to initiate SPI comms
 8001e4e:	8c3b      	ldrh	r3, [r7, #32]
 8001e50:	2200      	movs	r2, #0
 8001e52:	4619      	mov	r1, r3
 8001e54:	6838      	ldr	r0, [r7, #0]
 8001e56:	f000 ff61 	bl	8002d1c <HAL_GPIO_WritePin>
	HAL_SPI_Transmit(hspi, opcode, 1, TIMEOUT_SML);			// Write the write enable value to the Flash to initial reading
 8001e5a:	2302      	movs	r3, #2
 8001e5c:	2201      	movs	r2, #1
 8001e5e:	68f9      	ldr	r1, [r7, #12]
 8001e60:	68b8      	ldr	r0, [r7, #8]
 8001e62:	f003 f9b2 	bl	80051ca <HAL_SPI_Transmit>
	status = HAL_SPI_Receive(hspi, data_ptr, 1, TIMEOUT_SML);
 8001e66:	2302      	movs	r3, #2
 8001e68:	2201      	movs	r2, #1
 8001e6a:	6879      	ldr	r1, [r7, #4]
 8001e6c:	68b8      	ldr	r0, [r7, #8]
 8001e6e:	f003 faef 	bl	8005450 <HAL_SPI_Receive>
 8001e72:	4603      	mov	r3, r0
 8001e74:	75fb      	strb	r3, [r7, #23]
	HAL_GPIO_WritePin(GPIOx, GPIO_Pin_CS, GPIO_PIN_SET);
 8001e76:	8c3b      	ldrh	r3, [r7, #32]
 8001e78:	2201      	movs	r2, #1
 8001e7a:	4619      	mov	r1, r3
 8001e7c:	6838      	ldr	r0, [r7, #0]
 8001e7e:	f000 ff4d 	bl	8002d1c <HAL_GPIO_WritePin>
	return status;
 8001e82:	7dfb      	ldrb	r3, [r7, #23]
}
 8001e84:	4618      	mov	r0, r3
 8001e86:	3718      	adds	r7, #24
 8001e88:	46bd      	mov	sp, r7
 8001e8a:	bd80      	pop	{r7, pc}

08001e8c <perform_operation>:

HAL_StatusTypeDef perform_operation(uint8_t* opcode, SPI_HandleTypeDef *hspi, GPIO_TypeDef* GPIOx, uint16_t GPIO_Pin_CS) {
 8001e8c:	b580      	push	{r7, lr}
 8001e8e:	b086      	sub	sp, #24
 8001e90:	af00      	add	r7, sp, #0
 8001e92:	60f8      	str	r0, [r7, #12]
 8001e94:	60b9      	str	r1, [r7, #8]
 8001e96:	607a      	str	r2, [r7, #4]
 8001e98:	807b      	strh	r3, [r7, #2]
	HAL_StatusTypeDef status;
	HAL_GPIO_WritePin(GPIOx, GPIO_Pin_CS, GPIO_PIN_RESET);				// Set the chip select pin to low to initiate SPI comms
 8001e9a:	887b      	ldrh	r3, [r7, #2]
 8001e9c:	2200      	movs	r2, #0
 8001e9e:	4619      	mov	r1, r3
 8001ea0:	6878      	ldr	r0, [r7, #4]
 8001ea2:	f000 ff3b 	bl	8002d1c <HAL_GPIO_WritePin>
	status = HAL_SPI_Transmit(hspi, opcode, 1, TIMEOUT_SML);				// Write the opcode value
 8001ea6:	2302      	movs	r3, #2
 8001ea8:	2201      	movs	r2, #1
 8001eaa:	68f9      	ldr	r1, [r7, #12]
 8001eac:	68b8      	ldr	r0, [r7, #8]
 8001eae:	f003 f98c 	bl	80051ca <HAL_SPI_Transmit>
 8001eb2:	4603      	mov	r3, r0
 8001eb4:	75fb      	strb	r3, [r7, #23]
	HAL_GPIO_WritePin(GPIOx, GPIO_Pin_CS, GPIO_PIN_SET);
 8001eb6:	887b      	ldrh	r3, [r7, #2]
 8001eb8:	2201      	movs	r2, #1
 8001eba:	4619      	mov	r1, r3
 8001ebc:	6878      	ldr	r0, [r7, #4]
 8001ebe:	f000 ff2d 	bl	8002d1c <HAL_GPIO_WritePin>

	return status;
 8001ec2:	7dfb      	ldrb	r3, [r7, #23]
}
 8001ec4:	4618      	mov	r0, r3
 8001ec6:	3718      	adds	r7, #24
 8001ec8:	46bd      	mov	sp, r7
 8001eca:	bd80      	pop	{r7, pc}

08001ecc <spi_read_data>:


HAL_StatusTypeDef spi_read_data(uint8_t* opcode, uint16_t data_size, uint8_t data_read[data_size], SPI_HandleTypeDef *hspi, uint32_t addr, GPIO_TypeDef* GPIOx, uint16_t GPIO_Pin_CS) {
 8001ecc:	b580      	push	{r7, lr}
 8001ece:	b086      	sub	sp, #24
 8001ed0:	af00      	add	r7, sp, #0
 8001ed2:	60f8      	str	r0, [r7, #12]
 8001ed4:	607a      	str	r2, [r7, #4]
 8001ed6:	603b      	str	r3, [r7, #0]
 8001ed8:	460b      	mov	r3, r1
 8001eda:	817b      	strh	r3, [r7, #10]
	HAL_StatusTypeDef status;

	// Split the 24 bit address into three 8 bit ints
	uint8_t addrL = addr & 0xFF;  // Get the low byte
 8001edc:	6a3b      	ldr	r3, [r7, #32]
 8001ede:	b2db      	uxtb	r3, r3
 8001ee0:	75bb      	strb	r3, [r7, #22]
	uint8_t addrM = (addr >> 8) & 0xFF;  // Get the middle byte
 8001ee2:	6a3b      	ldr	r3, [r7, #32]
 8001ee4:	0a1b      	lsrs	r3, r3, #8
 8001ee6:	b2db      	uxtb	r3, r3
 8001ee8:	757b      	strb	r3, [r7, #21]
	uint8_t addrH = (addr >> 16) & 0xFF;  // Get the high byte
 8001eea:	6a3b      	ldr	r3, [r7, #32]
 8001eec:	0c1b      	lsrs	r3, r3, #16
 8001eee:	b2db      	uxtb	r3, r3
 8001ef0:	753b      	strb	r3, [r7, #20]

	// Read the data denoted by the given address
	HAL_GPIO_WritePin(GPIOx, GPIO_Pin_CS, GPIO_PIN_RESET);
 8001ef2:	8d3b      	ldrh	r3, [r7, #40]	; 0x28
 8001ef4:	2200      	movs	r2, #0
 8001ef6:	4619      	mov	r1, r3
 8001ef8:	6a78      	ldr	r0, [r7, #36]	; 0x24
 8001efa:	f000 ff0f 	bl	8002d1c <HAL_GPIO_WritePin>
	HAL_SPI_Transmit(hspi, opcode, 1, TIMEOUT_SML);	// Write the read enable value
 8001efe:	2302      	movs	r3, #2
 8001f00:	2201      	movs	r2, #1
 8001f02:	68f9      	ldr	r1, [r7, #12]
 8001f04:	6838      	ldr	r0, [r7, #0]
 8001f06:	f003 f960 	bl	80051ca <HAL_SPI_Transmit>

	// Transmit the 24 bit address of the page to initialise read from
	HAL_SPI_Transmit(hspi, &addrH, 1, TIMEOUT_SML);
 8001f0a:	f107 0114 	add.w	r1, r7, #20
 8001f0e:	2302      	movs	r3, #2
 8001f10:	2201      	movs	r2, #1
 8001f12:	6838      	ldr	r0, [r7, #0]
 8001f14:	f003 f959 	bl	80051ca <HAL_SPI_Transmit>
	HAL_SPI_Transmit(hspi, &addrM, 1, TIMEOUT_SML);
 8001f18:	f107 0115 	add.w	r1, r7, #21
 8001f1c:	2302      	movs	r3, #2
 8001f1e:	2201      	movs	r2, #1
 8001f20:	6838      	ldr	r0, [r7, #0]
 8001f22:	f003 f952 	bl	80051ca <HAL_SPI_Transmit>
	HAL_SPI_Transmit(hspi, &addrL, 1, TIMEOUT_SML);
 8001f26:	f107 0116 	add.w	r1, r7, #22
 8001f2a:	2302      	movs	r3, #2
 8001f2c:	2201      	movs	r2, #1
 8001f2e:	6838      	ldr	r0, [r7, #0]
 8001f30:	f003 f94b 	bl	80051ca <HAL_SPI_Transmit>

	status = HAL_SPI_Receive(hspi, data_read, data_size, TIMEOUT_LRG);
 8001f34:	897a      	ldrh	r2, [r7, #10]
 8001f36:	2364      	movs	r3, #100	; 0x64
 8001f38:	6879      	ldr	r1, [r7, #4]
 8001f3a:	6838      	ldr	r0, [r7, #0]
 8001f3c:	f003 fa88 	bl	8005450 <HAL_SPI_Receive>
 8001f40:	4603      	mov	r3, r0
 8001f42:	75fb      	strb	r3, [r7, #23]
	HAL_GPIO_WritePin(GPIOx, GPIO_Pin_CS, GPIO_PIN_SET);
 8001f44:	8d3b      	ldrh	r3, [r7, #40]	; 0x28
 8001f46:	2201      	movs	r2, #1
 8001f48:	4619      	mov	r1, r3
 8001f4a:	6a78      	ldr	r0, [r7, #36]	; 0x24
 8001f4c:	f000 fee6 	bl	8002d1c <HAL_GPIO_WritePin>

	return status;
 8001f50:	7dfb      	ldrb	r3, [r7, #23]
}
 8001f52:	4618      	mov	r0, r3
 8001f54:	3718      	adds	r7, #24
 8001f56:	46bd      	mov	sp, r7
 8001f58:	bd80      	pop	{r7, pc}

08001f5a <spi_write_data>:

HAL_StatusTypeDef spi_write_data(uint8_t* opcode, uint16_t data_size, uint8_t data_write[data_size], SPI_HandleTypeDef *hspi, uint32_t addr, GPIO_TypeDef* GPIOx, uint16_t GPIO_Pin_CS) {
 8001f5a:	b580      	push	{r7, lr}
 8001f5c:	b086      	sub	sp, #24
 8001f5e:	af00      	add	r7, sp, #0
 8001f60:	60f8      	str	r0, [r7, #12]
 8001f62:	607a      	str	r2, [r7, #4]
 8001f64:	603b      	str	r3, [r7, #0]
 8001f66:	460b      	mov	r3, r1
 8001f68:	817b      	strh	r3, [r7, #10]
	HAL_StatusTypeDef status;

	// Split the 24 bit address into three 8 bit ints
	uint8_t addrL = addr & 0xFF;  			// Get the low byte
 8001f6a:	6a3b      	ldr	r3, [r7, #32]
 8001f6c:	b2db      	uxtb	r3, r3
 8001f6e:	75bb      	strb	r3, [r7, #22]
	uint8_t addrM = (addr >> 8) & 0xFF;  	// Get the middle byte
 8001f70:	6a3b      	ldr	r3, [r7, #32]
 8001f72:	0a1b      	lsrs	r3, r3, #8
 8001f74:	b2db      	uxtb	r3, r3
 8001f76:	757b      	strb	r3, [r7, #21]
	uint8_t addrH = (addr >> 16) & 0xFF;  	// Get the high byte
 8001f78:	6a3b      	ldr	r3, [r7, #32]
 8001f7a:	0c1b      	lsrs	r3, r3, #16
 8001f7c:	b2db      	uxtb	r3, r3
 8001f7e:	753b      	strb	r3, [r7, #20]

	// Send the PageWrite command
	HAL_GPIO_WritePin(GPIOx, GPIO_Pin_CS, GPIO_PIN_RESET);	// Set the chip select pin to low to initiate SPI comms
 8001f80:	8d3b      	ldrh	r3, [r7, #40]	; 0x28
 8001f82:	2200      	movs	r2, #0
 8001f84:	4619      	mov	r1, r3
 8001f86:	6a78      	ldr	r0, [r7, #36]	; 0x24
 8001f88:	f000 fec8 	bl	8002d1c <HAL_GPIO_WritePin>
	HAL_SPI_Transmit(hspi, opcode, 1, TIMEOUT_SML);					// Write the write enable value to the Flash to initial writing
 8001f8c:	2302      	movs	r3, #2
 8001f8e:	2201      	movs	r2, #1
 8001f90:	68f9      	ldr	r1, [r7, #12]
 8001f92:	6838      	ldr	r0, [r7, #0]
 8001f94:	f003 f919 	bl	80051ca <HAL_SPI_Transmit>

	// Transmit the 24 bit address of the page to write to
	HAL_SPI_Transmit(hspi, &addrH, 1, TIMEOUT_SML);
 8001f98:	f107 0114 	add.w	r1, r7, #20
 8001f9c:	2302      	movs	r3, #2
 8001f9e:	2201      	movs	r2, #1
 8001fa0:	6838      	ldr	r0, [r7, #0]
 8001fa2:	f003 f912 	bl	80051ca <HAL_SPI_Transmit>
	HAL_SPI_Transmit(hspi, &addrM, 1, TIMEOUT_SML);
 8001fa6:	f107 0115 	add.w	r1, r7, #21
 8001faa:	2302      	movs	r3, #2
 8001fac:	2201      	movs	r2, #1
 8001fae:	6838      	ldr	r0, [r7, #0]
 8001fb0:	f003 f90b 	bl	80051ca <HAL_SPI_Transmit>
	HAL_SPI_Transmit(hspi, &addrL, 1, TIMEOUT_SML);
 8001fb4:	f107 0116 	add.w	r1, r7, #22
 8001fb8:	2302      	movs	r3, #2
 8001fba:	2201      	movs	r2, #1
 8001fbc:	6838      	ldr	r0, [r7, #0]
 8001fbe:	f003 f904 	bl	80051ca <HAL_SPI_Transmit>

	// Transmit the data to be written
	status = HAL_SPI_Transmit(hspi, data_write, data_size, TIMEOUT_LRG);
 8001fc2:	897a      	ldrh	r2, [r7, #10]
 8001fc4:	2364      	movs	r3, #100	; 0x64
 8001fc6:	6879      	ldr	r1, [r7, #4]
 8001fc8:	6838      	ldr	r0, [r7, #0]
 8001fca:	f003 f8fe 	bl	80051ca <HAL_SPI_Transmit>
 8001fce:	4603      	mov	r3, r0
 8001fd0:	75fb      	strb	r3, [r7, #23]
	HAL_GPIO_WritePin(GPIOx, GPIO_Pin_CS, GPIO_PIN_SET);	// Set the chip select pin to high to remove the Flash from the SPI bus
 8001fd2:	8d3b      	ldrh	r3, [r7, #40]	; 0x28
 8001fd4:	2201      	movs	r2, #1
 8001fd6:	4619      	mov	r1, r3
 8001fd8:	6a78      	ldr	r0, [r7, #36]	; 0x24
 8001fda:	f000 fe9f 	bl	8002d1c <HAL_GPIO_WritePin>

	return status;
 8001fde:	7dfb      	ldrb	r3, [r7, #23]
}
 8001fe0:	4618      	mov	r0, r3
 8001fe2:	3718      	adds	r7, #24
 8001fe4:	46bd      	mov	sp, r7
 8001fe6:	bd80      	pop	{r7, pc}

08001fe8 <HAL_MspInit>:
/* USER CODE END 0 */
/**
  * Initializes the Global MSP.
  */
void HAL_MspInit(void)
{
 8001fe8:	b480      	push	{r7}
 8001fea:	b083      	sub	sp, #12
 8001fec:	af00      	add	r7, sp, #0
  /* USER CODE BEGIN MspInit 0 */

  /* USER CODE END MspInit 0 */

  __HAL_RCC_SYSCFG_CLK_ENABLE();
 8001fee:	2300      	movs	r3, #0
 8001ff0:	607b      	str	r3, [r7, #4]
 8001ff2:	4b10      	ldr	r3, [pc, #64]	; (8002034 <HAL_MspInit+0x4c>)
 8001ff4:	6c5b      	ldr	r3, [r3, #68]	; 0x44
 8001ff6:	4a0f      	ldr	r2, [pc, #60]	; (8002034 <HAL_MspInit+0x4c>)
 8001ff8:	f443 4380 	orr.w	r3, r3, #16384	; 0x4000
 8001ffc:	6453      	str	r3, [r2, #68]	; 0x44
 8001ffe:	4b0d      	ldr	r3, [pc, #52]	; (8002034 <HAL_MspInit+0x4c>)
 8002000:	6c5b      	ldr	r3, [r3, #68]	; 0x44
 8002002:	f403 4380 	and.w	r3, r3, #16384	; 0x4000
 8002006:	607b      	str	r3, [r7, #4]
 8002008:	687b      	ldr	r3, [r7, #4]
  __HAL_RCC_PWR_CLK_ENABLE();
 800200a:	2300      	movs	r3, #0
 800200c:	603b      	str	r3, [r7, #0]
 800200e:	4b09      	ldr	r3, [pc, #36]	; (8002034 <HAL_MspInit+0x4c>)
 8002010:	6c1b      	ldr	r3, [r3, #64]	; 0x40
 8002012:	4a08      	ldr	r2, [pc, #32]	; (8002034 <HAL_MspInit+0x4c>)
 8002014:	f043 5380 	orr.w	r3, r3, #268435456	; 0x10000000
 8002018:	6413      	str	r3, [r2, #64]	; 0x40
 800201a:	4b06      	ldr	r3, [pc, #24]	; (8002034 <HAL_MspInit+0x4c>)
 800201c:	6c1b      	ldr	r3, [r3, #64]	; 0x40
 800201e:	f003 5380 	and.w	r3, r3, #268435456	; 0x10000000
 8002022:	603b      	str	r3, [r7, #0]
 8002024:	683b      	ldr	r3, [r7, #0]
  /* System interrupt init*/

  /* USER CODE BEGIN MspInit 1 */

  /* USER CODE END MspInit 1 */
}
 8002026:	bf00      	nop
 8002028:	370c      	adds	r7, #12
 800202a:	46bd      	mov	sp, r7
 800202c:	f85d 7b04 	ldr.w	r7, [sp], #4
 8002030:	4770      	bx	lr
 8002032:	bf00      	nop
 8002034:	40023800 	.word	0x40023800

08002038 <HAL_I2C_MspInit>:
* This function configures the hardware resources used in this example
* @param hi2c: I2C handle pointer
* @retval None
*/
void HAL_I2C_MspInit(I2C_HandleTypeDef* hi2c)
{
 8002038:	b580      	push	{r7, lr}
 800203a:	b08c      	sub	sp, #48	; 0x30
 800203c:	af00      	add	r7, sp, #0
 800203e:	6078      	str	r0, [r7, #4]
  GPIO_InitTypeDef GPIO_InitStruct = {0};
 8002040:	f107 031c 	add.w	r3, r7, #28
 8002044:	2200      	movs	r2, #0
 8002046:	601a      	str	r2, [r3, #0]
 8002048:	605a      	str	r2, [r3, #4]
 800204a:	609a      	str	r2, [r3, #8]
 800204c:	60da      	str	r2, [r3, #12]
 800204e:	611a      	str	r2, [r3, #16]
  if(hi2c->Instance==I2C1)
 8002050:	687b      	ldr	r3, [r7, #4]
 8002052:	681b      	ldr	r3, [r3, #0]
 8002054:	4a33      	ldr	r2, [pc, #204]	; (8002124 <HAL_I2C_MspInit+0xec>)
 8002056:	4293      	cmp	r3, r2
 8002058:	d12d      	bne.n	80020b6 <HAL_I2C_MspInit+0x7e>
  {
  /* USER CODE BEGIN I2C1_MspInit 0 */

  /* USER CODE END I2C1_MspInit 0 */

    __HAL_RCC_GPIOB_CLK_ENABLE();
 800205a:	2300      	movs	r3, #0
 800205c:	61bb      	str	r3, [r7, #24]
 800205e:	4b32      	ldr	r3, [pc, #200]	; (8002128 <HAL_I2C_MspInit+0xf0>)
 8002060:	6b1b      	ldr	r3, [r3, #48]	; 0x30
 8002062:	4a31      	ldr	r2, [pc, #196]	; (8002128 <HAL_I2C_MspInit+0xf0>)
 8002064:	f043 0302 	orr.w	r3, r3, #2
 8002068:	6313      	str	r3, [r2, #48]	; 0x30
 800206a:	4b2f      	ldr	r3, [pc, #188]	; (8002128 <HAL_I2C_MspInit+0xf0>)
 800206c:	6b1b      	ldr	r3, [r3, #48]	; 0x30
 800206e:	f003 0302 	and.w	r3, r3, #2
 8002072:	61bb      	str	r3, [r7, #24]
 8002074:	69bb      	ldr	r3, [r7, #24]
    /**I2C1 GPIO Configuration
    PB8     ------> I2C1_SCL
    PB9     ------> I2C1_SDA
    */
    GPIO_InitStruct.Pin = GPIO_PIN_8|GPIO_PIN_9;
 8002076:	f44f 7340 	mov.w	r3, #768	; 0x300
 800207a:	61fb      	str	r3, [r7, #28]
    GPIO_InitStruct.Mode = GPIO_MODE_AF_OD;
 800207c:	2312      	movs	r3, #18
 800207e:	623b      	str	r3, [r7, #32]
    GPIO_InitStruct.Pull = GPIO_NOPULL;
 8002080:	2300      	movs	r3, #0
 8002082:	627b      	str	r3, [r7, #36]	; 0x24
    GPIO_InitStruct.Speed = GPIO_SPEED_FREQ_VERY_HIGH;
 8002084:	2303      	movs	r3, #3
 8002086:	62bb      	str	r3, [r7, #40]	; 0x28
    GPIO_InitStruct.Alternate = GPIO_AF4_I2C1;
 8002088:	2304      	movs	r3, #4
 800208a:	62fb      	str	r3, [r7, #44]	; 0x2c
    HAL_GPIO_Init(GPIOB, &GPIO_InitStruct);
 800208c:	f107 031c 	add.w	r3, r7, #28
 8002090:	4619      	mov	r1, r3
 8002092:	4826      	ldr	r0, [pc, #152]	; (800212c <HAL_I2C_MspInit+0xf4>)
 8002094:	f000 fc96 	bl	80029c4 <HAL_GPIO_Init>

    /* Peripheral clock enable */
    __HAL_RCC_I2C1_CLK_ENABLE();
 8002098:	2300      	movs	r3, #0
 800209a:	617b      	str	r3, [r7, #20]
 800209c:	4b22      	ldr	r3, [pc, #136]	; (8002128 <HAL_I2C_MspInit+0xf0>)
 800209e:	6c1b      	ldr	r3, [r3, #64]	; 0x40
 80020a0:	4a21      	ldr	r2, [pc, #132]	; (8002128 <HAL_I2C_MspInit+0xf0>)
 80020a2:	f443 1300 	orr.w	r3, r3, #2097152	; 0x200000
 80020a6:	6413      	str	r3, [r2, #64]	; 0x40
 80020a8:	4b1f      	ldr	r3, [pc, #124]	; (8002128 <HAL_I2C_MspInit+0xf0>)
 80020aa:	6c1b      	ldr	r3, [r3, #64]	; 0x40
 80020ac:	f403 1300 	and.w	r3, r3, #2097152	; 0x200000
 80020b0:	617b      	str	r3, [r7, #20]
 80020b2:	697b      	ldr	r3, [r7, #20]
  /* USER CODE BEGIN I2C2_MspInit 1 */

  /* USER CODE END I2C2_MspInit 1 */
  }

}
 80020b4:	e031      	b.n	800211a <HAL_I2C_MspInit+0xe2>
  else if(hi2c->Instance==I2C2)
 80020b6:	687b      	ldr	r3, [r7, #4]
 80020b8:	681b      	ldr	r3, [r3, #0]
 80020ba:	4a1d      	ldr	r2, [pc, #116]	; (8002130 <HAL_I2C_MspInit+0xf8>)
 80020bc:	4293      	cmp	r3, r2
 80020be:	d12c      	bne.n	800211a <HAL_I2C_MspInit+0xe2>
    __HAL_RCC_GPIOB_CLK_ENABLE();
 80020c0:	2300      	movs	r3, #0
 80020c2:	613b      	str	r3, [r7, #16]
 80020c4:	4b18      	ldr	r3, [pc, #96]	; (8002128 <HAL_I2C_MspInit+0xf0>)
 80020c6:	6b1b      	ldr	r3, [r3, #48]	; 0x30
 80020c8:	4a17      	ldr	r2, [pc, #92]	; (8002128 <HAL_I2C_MspInit+0xf0>)
 80020ca:	f043 0302 	orr.w	r3, r3, #2
 80020ce:	6313      	str	r3, [r2, #48]	; 0x30
 80020d0:	4b15      	ldr	r3, [pc, #84]	; (8002128 <HAL_I2C_MspInit+0xf0>)
 80020d2:	6b1b      	ldr	r3, [r3, #48]	; 0x30
 80020d4:	f003 0302 	and.w	r3, r3, #2
 80020d8:	613b      	str	r3, [r7, #16]
 80020da:	693b      	ldr	r3, [r7, #16]
    GPIO_InitStruct.Pin = GPIO_PIN_10|GPIO_PIN_11;
 80020dc:	f44f 6340 	mov.w	r3, #3072	; 0xc00
 80020e0:	61fb      	str	r3, [r7, #28]
    GPIO_InitStruct.Mode = GPIO_MODE_AF_OD;
 80020e2:	2312      	movs	r3, #18
 80020e4:	623b      	str	r3, [r7, #32]
    GPIO_InitStruct.Pull = GPIO_NOPULL;
 80020e6:	2300      	movs	r3, #0
 80020e8:	627b      	str	r3, [r7, #36]	; 0x24
    GPIO_InitStruct.Speed = GPIO_SPEED_FREQ_VERY_HIGH;
 80020ea:	2303      	movs	r3, #3
 80020ec:	62bb      	str	r3, [r7, #40]	; 0x28
    GPIO_InitStruct.Alternate = GPIO_AF4_I2C2;
 80020ee:	2304      	movs	r3, #4
 80020f0:	62fb      	str	r3, [r7, #44]	; 0x2c
    HAL_GPIO_Init(GPIOB, &GPIO_InitStruct);
 80020f2:	f107 031c 	add.w	r3, r7, #28
 80020f6:	4619      	mov	r1, r3
 80020f8:	480c      	ldr	r0, [pc, #48]	; (800212c <HAL_I2C_MspInit+0xf4>)
 80020fa:	f000 fc63 	bl	80029c4 <HAL_GPIO_Init>
    __HAL_RCC_I2C2_CLK_ENABLE();
 80020fe:	2300      	movs	r3, #0
 8002100:	60fb      	str	r3, [r7, #12]
 8002102:	4b09      	ldr	r3, [pc, #36]	; (8002128 <HAL_I2C_MspInit+0xf0>)
 8002104:	6c1b      	ldr	r3, [r3, #64]	; 0x40
 8002106:	4a08      	ldr	r2, [pc, #32]	; (8002128 <HAL_I2C_MspInit+0xf0>)
 8002108:	f443 0380 	orr.w	r3, r3, #4194304	; 0x400000
 800210c:	6413      	str	r3, [r2, #64]	; 0x40
 800210e:	4b06      	ldr	r3, [pc, #24]	; (8002128 <HAL_I2C_MspInit+0xf0>)
 8002110:	6c1b      	ldr	r3, [r3, #64]	; 0x40
 8002112:	f403 0380 	and.w	r3, r3, #4194304	; 0x400000
 8002116:	60fb      	str	r3, [r7, #12]
 8002118:	68fb      	ldr	r3, [r7, #12]
}
 800211a:	bf00      	nop
 800211c:	3730      	adds	r7, #48	; 0x30
 800211e:	46bd      	mov	sp, r7
 8002120:	bd80      	pop	{r7, pc}
 8002122:	bf00      	nop
 8002124:	40005400 	.word	0x40005400
 8002128:	40023800 	.word	0x40023800
 800212c:	40020400 	.word	0x40020400
 8002130:	40005800 	.word	0x40005800

08002134 <HAL_RTC_MspInit>:
* This function configures the hardware resources used in this example
* @param hrtc: RTC handle pointer
* @retval None
*/
void HAL_RTC_MspInit(RTC_HandleTypeDef* hrtc)
{
 8002134:	b580      	push	{r7, lr}
 8002136:	b08e      	sub	sp, #56	; 0x38
 8002138:	af00      	add	r7, sp, #0
 800213a:	6078      	str	r0, [r7, #4]
  RCC_PeriphCLKInitTypeDef PeriphClkInitStruct = {0};
 800213c:	f107 0308 	add.w	r3, r7, #8
 8002140:	2230      	movs	r2, #48	; 0x30
 8002142:	2100      	movs	r1, #0
 8002144:	4618      	mov	r0, r3
 8002146:	f005 f901 	bl	800734c <memset>
  if(hrtc->Instance==RTC)
 800214a:	687b      	ldr	r3, [r7, #4]
 800214c:	681b      	ldr	r3, [r3, #0]
 800214e:	4a0c      	ldr	r2, [pc, #48]	; (8002180 <HAL_RTC_MspInit+0x4c>)
 8002150:	4293      	cmp	r3, r2
 8002152:	d111      	bne.n	8002178 <HAL_RTC_MspInit+0x44>

  /* USER CODE END RTC_MspInit 0 */

  /** Initializes the peripherals clock
  */
    PeriphClkInitStruct.PeriphClockSelection = RCC_PERIPHCLK_RTC;
 8002154:	2320      	movs	r3, #32
 8002156:	60bb      	str	r3, [r7, #8]
    PeriphClkInitStruct.RTCClockSelection = RCC_RTCCLKSOURCE_LSI;
 8002158:	f44f 7300 	mov.w	r3, #512	; 0x200
 800215c:	633b      	str	r3, [r7, #48]	; 0x30
    if (HAL_RCCEx_PeriphCLKConfig(&PeriphClkInitStruct) != HAL_OK)
 800215e:	f107 0308 	add.w	r3, r7, #8
 8002162:	4618      	mov	r0, r3
 8002164:	f002 fadc 	bl	8004720 <HAL_RCCEx_PeriphCLKConfig>
 8002168:	4603      	mov	r3, r0
 800216a:	2b00      	cmp	r3, #0
 800216c:	d001      	beq.n	8002172 <HAL_RTC_MspInit+0x3e>
    {
      Error_Handler();
 800216e:	f7ff faee 	bl	800174e <Error_Handler>
    }

    /* Peripheral clock enable */
    __HAL_RCC_RTC_ENABLE();
 8002172:	4b04      	ldr	r3, [pc, #16]	; (8002184 <HAL_RTC_MspInit+0x50>)
 8002174:	2201      	movs	r2, #1
 8002176:	601a      	str	r2, [r3, #0]
  /* USER CODE BEGIN RTC_MspInit 1 */

  /* USER CODE END RTC_MspInit 1 */
  }

}
 8002178:	bf00      	nop
 800217a:	3738      	adds	r7, #56	; 0x38
 800217c:	46bd      	mov	sp, r7
 800217e:	bd80      	pop	{r7, pc}
 8002180:	40002800 	.word	0x40002800
 8002184:	42470e3c 	.word	0x42470e3c

08002188 <HAL_SPI_MspInit>:
* This function configures the hardware resources used in this example
* @param hspi: SPI handle pointer
* @retval None
*/
void HAL_SPI_MspInit(SPI_HandleTypeDef* hspi)
{
 8002188:	b580      	push	{r7, lr}
 800218a:	b08c      	sub	sp, #48	; 0x30
 800218c:	af00      	add	r7, sp, #0
 800218e:	6078      	str	r0, [r7, #4]
  GPIO_InitTypeDef GPIO_InitStruct = {0};
 8002190:	f107 031c 	add.w	r3, r7, #28
 8002194:	2200      	movs	r2, #0
 8002196:	601a      	str	r2, [r3, #0]
 8002198:	605a      	str	r2, [r3, #4]
 800219a:	609a      	str	r2, [r3, #8]
 800219c:	60da      	str	r2, [r3, #12]
 800219e:	611a      	str	r2, [r3, #16]
  if(hspi->Instance==SPI1)
 80021a0:	687b      	ldr	r3, [r7, #4]
 80021a2:	681b      	ldr	r3, [r3, #0]
 80021a4:	4a41      	ldr	r2, [pc, #260]	; (80022ac <HAL_SPI_MspInit+0x124>)
 80021a6:	4293      	cmp	r3, r2
 80021a8:	d12c      	bne.n	8002204 <HAL_SPI_MspInit+0x7c>
  {
  /* USER CODE BEGIN SPI1_MspInit 0 */

  /* USER CODE END SPI1_MspInit 0 */
    /* Peripheral clock enable */
    __HAL_RCC_SPI1_CLK_ENABLE();
 80021aa:	2300      	movs	r3, #0
 80021ac:	61bb      	str	r3, [r7, #24]
 80021ae:	4b40      	ldr	r3, [pc, #256]	; (80022b0 <HAL_SPI_MspInit+0x128>)
 80021b0:	6c5b      	ldr	r3, [r3, #68]	; 0x44
 80021b2:	4a3f      	ldr	r2, [pc, #252]	; (80022b0 <HAL_SPI_MspInit+0x128>)
 80021b4:	f443 5380 	orr.w	r3, r3, #4096	; 0x1000
 80021b8:	6453      	str	r3, [r2, #68]	; 0x44
 80021ba:	4b3d      	ldr	r3, [pc, #244]	; (80022b0 <HAL_SPI_MspInit+0x128>)
 80021bc:	6c5b      	ldr	r3, [r3, #68]	; 0x44
 80021be:	f403 5380 	and.w	r3, r3, #4096	; 0x1000
 80021c2:	61bb      	str	r3, [r7, #24]
 80021c4:	69bb      	ldr	r3, [r7, #24]

    __HAL_RCC_GPIOA_CLK_ENABLE();
 80021c6:	2300      	movs	r3, #0
 80021c8:	617b      	str	r3, [r7, #20]
 80021ca:	4b39      	ldr	r3, [pc, #228]	; (80022b0 <HAL_SPI_MspInit+0x128>)
 80021cc:	6b1b      	ldr	r3, [r3, #48]	; 0x30
 80021ce:	4a38      	ldr	r2, [pc, #224]	; (80022b0 <HAL_SPI_MspInit+0x128>)
 80021d0:	f043 0301 	orr.w	r3, r3, #1
 80021d4:	6313      	str	r3, [r2, #48]	; 0x30
 80021d6:	4b36      	ldr	r3, [pc, #216]	; (80022b0 <HAL_SPI_MspInit+0x128>)
 80021d8:	6b1b      	ldr	r3, [r3, #48]	; 0x30
 80021da:	f003 0301 	and.w	r3, r3, #1
 80021de:	617b      	str	r3, [r7, #20]
 80021e0:	697b      	ldr	r3, [r7, #20]
    /**SPI1 GPIO Configuration
    PA5     ------> SPI1_SCK
    PA6     ------> SPI1_MISO
    PA7     ------> SPI1_MOSI
    */
    GPIO_InitStruct.Pin = GPIO_PIN_5|GPIO_PIN_6|GPIO_PIN_7;
 80021e2:	23e0      	movs	r3, #224	; 0xe0
 80021e4:	61fb      	str	r3, [r7, #28]
    GPIO_InitStruct.Mode = GPIO_MODE_AF_PP;
 80021e6:	2302      	movs	r3, #2
 80021e8:	623b      	str	r3, [r7, #32]
    GPIO_InitStruct.Pull = GPIO_NOPULL;
 80021ea:	2300      	movs	r3, #0
 80021ec:	627b      	str	r3, [r7, #36]	; 0x24
    GPIO_InitStruct.Speed = GPIO_SPEED_FREQ_VERY_HIGH;
 80021ee:	2303      	movs	r3, #3
 80021f0:	62bb      	str	r3, [r7, #40]	; 0x28
    GPIO_InitStruct.Alternate = GPIO_AF5_SPI1;
 80021f2:	2305      	movs	r3, #5
 80021f4:	62fb      	str	r3, [r7, #44]	; 0x2c
    HAL_GPIO_Init(GPIOA, &GPIO_InitStruct);
 80021f6:	f107 031c 	add.w	r3, r7, #28
 80021fa:	4619      	mov	r1, r3
 80021fc:	482d      	ldr	r0, [pc, #180]	; (80022b4 <HAL_SPI_MspInit+0x12c>)
 80021fe:	f000 fbe1 	bl	80029c4 <HAL_GPIO_Init>
  /* USER CODE BEGIN SPI2_MspInit 1 */

  /* USER CODE END SPI2_MspInit 1 */
  }

}
 8002202:	e04e      	b.n	80022a2 <HAL_SPI_MspInit+0x11a>
  else if(hspi->Instance==SPI2)
 8002204:	687b      	ldr	r3, [r7, #4]
 8002206:	681b      	ldr	r3, [r3, #0]
 8002208:	4a2b      	ldr	r2, [pc, #172]	; (80022b8 <HAL_SPI_MspInit+0x130>)
 800220a:	4293      	cmp	r3, r2
 800220c:	d149      	bne.n	80022a2 <HAL_SPI_MspInit+0x11a>
    __HAL_RCC_SPI2_CLK_ENABLE();
 800220e:	2300      	movs	r3, #0
 8002210:	613b      	str	r3, [r7, #16]
 8002212:	4b27      	ldr	r3, [pc, #156]	; (80022b0 <HAL_SPI_MspInit+0x128>)
 8002214:	6c1b      	ldr	r3, [r3, #64]	; 0x40
 8002216:	4a26      	ldr	r2, [pc, #152]	; (80022b0 <HAL_SPI_MspInit+0x128>)
 8002218:	f443 4380 	orr.w	r3, r3, #16384	; 0x4000
 800221c:	6413      	str	r3, [r2, #64]	; 0x40
 800221e:	4b24      	ldr	r3, [pc, #144]	; (80022b0 <HAL_SPI_MspInit+0x128>)
 8002220:	6c1b      	ldr	r3, [r3, #64]	; 0x40
 8002222:	f403 4380 	and.w	r3, r3, #16384	; 0x4000
 8002226:	613b      	str	r3, [r7, #16]
 8002228:	693b      	ldr	r3, [r7, #16]
    __HAL_RCC_GPIOC_CLK_ENABLE();
 800222a:	2300      	movs	r3, #0
 800222c:	60fb      	str	r3, [r7, #12]
 800222e:	4b20      	ldr	r3, [pc, #128]	; (80022b0 <HAL_SPI_MspInit+0x128>)
 8002230:	6b1b      	ldr	r3, [r3, #48]	; 0x30
 8002232:	4a1f      	ldr	r2, [pc, #124]	; (80022b0 <HAL_SPI_MspInit+0x128>)
 8002234:	f043 0304 	orr.w	r3, r3, #4
 8002238:	6313      	str	r3, [r2, #48]	; 0x30
 800223a:	4b1d      	ldr	r3, [pc, #116]	; (80022b0 <HAL_SPI_MspInit+0x128>)
 800223c:	6b1b      	ldr	r3, [r3, #48]	; 0x30
 800223e:	f003 0304 	and.w	r3, r3, #4
 8002242:	60fb      	str	r3, [r7, #12]
 8002244:	68fb      	ldr	r3, [r7, #12]
    __HAL_RCC_GPIOD_CLK_ENABLE();
 8002246:	2300      	movs	r3, #0
 8002248:	60bb      	str	r3, [r7, #8]
 800224a:	4b19      	ldr	r3, [pc, #100]	; (80022b0 <HAL_SPI_MspInit+0x128>)
 800224c:	6b1b      	ldr	r3, [r3, #48]	; 0x30
 800224e:	4a18      	ldr	r2, [pc, #96]	; (80022b0 <HAL_SPI_MspInit+0x128>)
 8002250:	f043 0308 	orr.w	r3, r3, #8
 8002254:	6313      	str	r3, [r2, #48]	; 0x30
 8002256:	4b16      	ldr	r3, [pc, #88]	; (80022b0 <HAL_SPI_MspInit+0x128>)
 8002258:	6b1b      	ldr	r3, [r3, #48]	; 0x30
 800225a:	f003 0308 	and.w	r3, r3, #8
 800225e:	60bb      	str	r3, [r7, #8]
 8002260:	68bb      	ldr	r3, [r7, #8]
    GPIO_InitStruct.Pin = GPIO_PIN_2|GPIO_PIN_3;
 8002262:	230c      	movs	r3, #12
 8002264:	61fb      	str	r3, [r7, #28]
    GPIO_InitStruct.Mode = GPIO_MODE_AF_PP;
 8002266:	2302      	movs	r3, #2
 8002268:	623b      	str	r3, [r7, #32]
    GPIO_InitStruct.Pull = GPIO_NOPULL;
 800226a:	2300      	movs	r3, #0
 800226c:	627b      	str	r3, [r7, #36]	; 0x24
    GPIO_InitStruct.Speed = GPIO_SPEED_FREQ_VERY_HIGH;
 800226e:	2303      	movs	r3, #3
 8002270:	62bb      	str	r3, [r7, #40]	; 0x28
    GPIO_InitStruct.Alternate = GPIO_AF5_SPI2;
 8002272:	2305      	movs	r3, #5
 8002274:	62fb      	str	r3, [r7, #44]	; 0x2c
    HAL_GPIO_Init(GPIOC, &GPIO_InitStruct);
 8002276:	f107 031c 	add.w	r3, r7, #28
 800227a:	4619      	mov	r1, r3
 800227c:	480f      	ldr	r0, [pc, #60]	; (80022bc <HAL_SPI_MspInit+0x134>)
 800227e:	f000 fba1 	bl	80029c4 <HAL_GPIO_Init>
    GPIO_InitStruct.Pin = GPIO_PIN_3;
 8002282:	2308      	movs	r3, #8
 8002284:	61fb      	str	r3, [r7, #28]
    GPIO_InitStruct.Mode = GPIO_MODE_AF_PP;
 8002286:	2302      	movs	r3, #2
 8002288:	623b      	str	r3, [r7, #32]
    GPIO_InitStruct.Pull = GPIO_NOPULL;
 800228a:	2300      	movs	r3, #0
 800228c:	627b      	str	r3, [r7, #36]	; 0x24
    GPIO_InitStruct.Speed = GPIO_SPEED_FREQ_VERY_HIGH;
 800228e:	2303      	movs	r3, #3
 8002290:	62bb      	str	r3, [r7, #40]	; 0x28
    GPIO_InitStruct.Alternate = GPIO_AF5_SPI2;
 8002292:	2305      	movs	r3, #5
 8002294:	62fb      	str	r3, [r7, #44]	; 0x2c
    HAL_GPIO_Init(GPIOD, &GPIO_InitStruct);
 8002296:	f107 031c 	add.w	r3, r7, #28
 800229a:	4619      	mov	r1, r3
 800229c:	4808      	ldr	r0, [pc, #32]	; (80022c0 <HAL_SPI_MspInit+0x138>)
 800229e:	f000 fb91 	bl	80029c4 <HAL_GPIO_Init>
}
 80022a2:	bf00      	nop
 80022a4:	3730      	adds	r7, #48	; 0x30
 80022a6:	46bd      	mov	sp, r7
 80022a8:	bd80      	pop	{r7, pc}
 80022aa:	bf00      	nop
 80022ac:	40013000 	.word	0x40013000
 80022b0:	40023800 	.word	0x40023800
 80022b4:	40020000 	.word	0x40020000
 80022b8:	40003800 	.word	0x40003800
 80022bc:	40020800 	.word	0x40020800
 80022c0:	40020c00 	.word	0x40020c00

080022c4 <HAL_TIM_Base_MspInit>:
* This function configures the hardware resources used in this example
* @param htim_base: TIM_Base handle pointer
* @retval None
*/
void HAL_TIM_Base_MspInit(TIM_HandleTypeDef* htim_base)
{
 80022c4:	b580      	push	{r7, lr}
 80022c6:	b084      	sub	sp, #16
 80022c8:	af00      	add	r7, sp, #0
 80022ca:	6078      	str	r0, [r7, #4]
  if(htim_base->Instance==TIM6)
 80022cc:	687b      	ldr	r3, [r7, #4]
 80022ce:	681b      	ldr	r3, [r3, #0]
 80022d0:	4a0e      	ldr	r2, [pc, #56]	; (800230c <HAL_TIM_Base_MspInit+0x48>)
 80022d2:	4293      	cmp	r3, r2
 80022d4:	d115      	bne.n	8002302 <HAL_TIM_Base_MspInit+0x3e>
  {
  /* USER CODE BEGIN TIM6_MspInit 0 */

  /* USER CODE END TIM6_MspInit 0 */
    /* Peripheral clock enable */
    __HAL_RCC_TIM6_CLK_ENABLE();
 80022d6:	2300      	movs	r3, #0
 80022d8:	60fb      	str	r3, [r7, #12]
 80022da:	4b0d      	ldr	r3, [pc, #52]	; (8002310 <HAL_TIM_Base_MspInit+0x4c>)
 80022dc:	6c1b      	ldr	r3, [r3, #64]	; 0x40
 80022de:	4a0c      	ldr	r2, [pc, #48]	; (8002310 <HAL_TIM_Base_MspInit+0x4c>)
 80022e0:	f043 0310 	orr.w	r3, r3, #16
 80022e4:	6413      	str	r3, [r2, #64]	; 0x40
 80022e6:	4b0a      	ldr	r3, [pc, #40]	; (8002310 <HAL_TIM_Base_MspInit+0x4c>)
 80022e8:	6c1b      	ldr	r3, [r3, #64]	; 0x40
 80022ea:	f003 0310 	and.w	r3, r3, #16
 80022ee:	60fb      	str	r3, [r7, #12]
 80022f0:	68fb      	ldr	r3, [r7, #12]
    /* TIM6 interrupt Init */
    HAL_NVIC_SetPriority(TIM6_DAC_IRQn, 0, 0);
 80022f2:	2200      	movs	r2, #0
 80022f4:	2100      	movs	r1, #0
 80022f6:	2036      	movs	r0, #54	; 0x36
 80022f8:	f000 fa9b 	bl	8002832 <HAL_NVIC_SetPriority>
    HAL_NVIC_EnableIRQ(TIM6_DAC_IRQn);
 80022fc:	2036      	movs	r0, #54	; 0x36
 80022fe:	f000 fab4 	bl	800286a <HAL_NVIC_EnableIRQ>
  /* USER CODE BEGIN TIM6_MspInit 1 */

  /* USER CODE END TIM6_MspInit 1 */
  }

}
 8002302:	bf00      	nop
 8002304:	3710      	adds	r7, #16
 8002306:	46bd      	mov	sp, r7
 8002308:	bd80      	pop	{r7, pc}
 800230a:	bf00      	nop
 800230c:	40001000 	.word	0x40001000
 8002310:	40023800 	.word	0x40023800

08002314 <HAL_UART_MspInit>:
* This function configures the hardware resources used in this example
* @param huart: UART handle pointer
* @retval None
*/
void HAL_UART_MspInit(UART_HandleTypeDef* huart)
{
 8002314:	b580      	push	{r7, lr}
 8002316:	b08a      	sub	sp, #40	; 0x28
 8002318:	af00      	add	r7, sp, #0
 800231a:	6078      	str	r0, [r7, #4]
  GPIO_InitTypeDef GPIO_InitStruct = {0};
 800231c:	f107 0314 	add.w	r3, r7, #20
 8002320:	2200      	movs	r2, #0
 8002322:	601a      	str	r2, [r3, #0]
 8002324:	605a      	str	r2, [r3, #4]
 8002326:	609a      	str	r2, [r3, #8]
 8002328:	60da      	str	r2, [r3, #12]
 800232a:	611a      	str	r2, [r3, #16]
  if(huart->Instance==USART2)
 800232c:	687b      	ldr	r3, [r7, #4]
 800232e:	681b      	ldr	r3, [r3, #0]
 8002330:	4a1d      	ldr	r2, [pc, #116]	; (80023a8 <HAL_UART_MspInit+0x94>)
 8002332:	4293      	cmp	r3, r2
 8002334:	d133      	bne.n	800239e <HAL_UART_MspInit+0x8a>
  {
  /* USER CODE BEGIN USART2_MspInit 0 */

  /* USER CODE END USART2_MspInit 0 */
    /* Peripheral clock enable */
    __HAL_RCC_USART2_CLK_ENABLE();
 8002336:	2300      	movs	r3, #0
 8002338:	613b      	str	r3, [r7, #16]
 800233a:	4b1c      	ldr	r3, [pc, #112]	; (80023ac <HAL_UART_MspInit+0x98>)
 800233c:	6c1b      	ldr	r3, [r3, #64]	; 0x40
 800233e:	4a1b      	ldr	r2, [pc, #108]	; (80023ac <HAL_UART_MspInit+0x98>)
 8002340:	f443 3300 	orr.w	r3, r3, #131072	; 0x20000
 8002344:	6413      	str	r3, [r2, #64]	; 0x40
 8002346:	4b19      	ldr	r3, [pc, #100]	; (80023ac <HAL_UART_MspInit+0x98>)
 8002348:	6c1b      	ldr	r3, [r3, #64]	; 0x40
 800234a:	f403 3300 	and.w	r3, r3, #131072	; 0x20000
 800234e:	613b      	str	r3, [r7, #16]
 8002350:	693b      	ldr	r3, [r7, #16]

    __HAL_RCC_GPIOD_CLK_ENABLE();
 8002352:	2300      	movs	r3, #0
 8002354:	60fb      	str	r3, [r7, #12]
 8002356:	4b15      	ldr	r3, [pc, #84]	; (80023ac <HAL_UART_MspInit+0x98>)
 8002358:	6b1b      	ldr	r3, [r3, #48]	; 0x30
 800235a:	4a14      	ldr	r2, [pc, #80]	; (80023ac <HAL_UART_MspInit+0x98>)
 800235c:	f043 0308 	orr.w	r3, r3, #8
 8002360:	6313      	str	r3, [r2, #48]	; 0x30
 8002362:	4b12      	ldr	r3, [pc, #72]	; (80023ac <HAL_UART_MspInit+0x98>)
 8002364:	6b1b      	ldr	r3, [r3, #48]	; 0x30
 8002366:	f003 0308 	and.w	r3, r3, #8
 800236a:	60fb      	str	r3, [r7, #12]
 800236c:	68fb      	ldr	r3, [r7, #12]
    /**USART2 GPIO Configuration
    PD5     ------> USART2_TX
    PD6     ------> USART2_RX
    */
    GPIO_InitStruct.Pin = GPIO_PIN_5|GPIO_PIN_6;
 800236e:	2360      	movs	r3, #96	; 0x60
 8002370:	617b      	str	r3, [r7, #20]
    GPIO_InitStruct.Mode = GPIO_MODE_AF_PP;
 8002372:	2302      	movs	r3, #2
 8002374:	61bb      	str	r3, [r7, #24]
    GPIO_InitStruct.Pull = GPIO_NOPULL;
 8002376:	2300      	movs	r3, #0
 8002378:	61fb      	str	r3, [r7, #28]
    GPIO_InitStruct.Speed = GPIO_SPEED_FREQ_VERY_HIGH;
 800237a:	2303      	movs	r3, #3
 800237c:	623b      	str	r3, [r7, #32]
    GPIO_InitStruct.Alternate = GPIO_AF7_USART2;
 800237e:	2307      	movs	r3, #7
 8002380:	627b      	str	r3, [r7, #36]	; 0x24
    HAL_GPIO_Init(GPIOD, &GPIO_InitStruct);
 8002382:	f107 0314 	add.w	r3, r7, #20
 8002386:	4619      	mov	r1, r3
 8002388:	4809      	ldr	r0, [pc, #36]	; (80023b0 <HAL_UART_MspInit+0x9c>)
 800238a:	f000 fb1b 	bl	80029c4 <HAL_GPIO_Init>

    /* USART2 interrupt Init */
    HAL_NVIC_SetPriority(USART2_IRQn, 0, 0);
 800238e:	2200      	movs	r2, #0
 8002390:	2100      	movs	r1, #0
 8002392:	2026      	movs	r0, #38	; 0x26
 8002394:	f000 fa4d 	bl	8002832 <HAL_NVIC_SetPriority>
    HAL_NVIC_EnableIRQ(USART2_IRQn);
 8002398:	2026      	movs	r0, #38	; 0x26
 800239a:	f000 fa66 	bl	800286a <HAL_NVIC_EnableIRQ>
  /* USER CODE BEGIN USART2_MspInit 1 */

  /* USER CODE END USART2_MspInit 1 */
  }

}
 800239e:	bf00      	nop
 80023a0:	3728      	adds	r7, #40	; 0x28
 80023a2:	46bd      	mov	sp, r7
 80023a4:	bd80      	pop	{r7, pc}
 80023a6:	bf00      	nop
 80023a8:	40004400 	.word	0x40004400
 80023ac:	40023800 	.word	0x40023800
 80023b0:	40020c00 	.word	0x40020c00

080023b4 <NMI_Handler>:
/******************************************************************************/
/**
  * @brief This function handles Non maskable interrupt.
  */
void NMI_Handler(void)
{
 80023b4:	b480      	push	{r7}
 80023b6:	af00      	add	r7, sp, #0
  /* USER CODE BEGIN NonMaskableInt_IRQn 0 */

  /* USER CODE END NonMaskableInt_IRQn 0 */
  /* USER CODE BEGIN NonMaskableInt_IRQn 1 */
  while (1)
 80023b8:	e7fe      	b.n	80023b8 <NMI_Handler+0x4>

080023ba <HardFault_Handler>:

/**
  * @brief This function handles Hard fault interrupt.
  */
void HardFault_Handler(void)
{
 80023ba:	b480      	push	{r7}
 80023bc:	af00      	add	r7, sp, #0
  /* USER CODE BEGIN HardFault_IRQn 0 */

  /* USER CODE END HardFault_IRQn 0 */
  while (1)
 80023be:	e7fe      	b.n	80023be <HardFault_Handler+0x4>

080023c0 <MemManage_Handler>:

/**
  * @brief This function handles Memory management fault.
  */
void MemManage_Handler(void)
{
 80023c0:	b480      	push	{r7}
 80023c2:	af00      	add	r7, sp, #0
  /* USER CODE BEGIN MemoryManagement_IRQn 0 */

  /* USER CODE END MemoryManagement_IRQn 0 */
  while (1)
 80023c4:	e7fe      	b.n	80023c4 <MemManage_Handler+0x4>

080023c6 <BusFault_Handler>:

/**
  * @brief This function handles Pre-fetch fault, memory access fault.
  */
void BusFault_Handler(void)
{
 80023c6:	b480      	push	{r7}
 80023c8:	af00      	add	r7, sp, #0
  /* USER CODE BEGIN BusFault_IRQn 0 */

  /* USER CODE END BusFault_IRQn 0 */
  while (1)
 80023ca:	e7fe      	b.n	80023ca <BusFault_Handler+0x4>

080023cc <UsageFault_Handler>:

/**
  * @brief This function handles Undefined instruction or illegal state.
  */
void UsageFault_Handler(void)
{
 80023cc:	b480      	push	{r7}
 80023ce:	af00      	add	r7, sp, #0
  /* USER CODE BEGIN UsageFault_IRQn 0 */

  /* USER CODE END UsageFault_IRQn 0 */
  while (1)
 80023d0:	e7fe      	b.n	80023d0 <UsageFault_Handler+0x4>

080023d2 <SVC_Handler>:

/**
  * @brief This function handles System service call via SWI instruction.
  */
void SVC_Handler(void)
{
 80023d2:	b480      	push	{r7}
 80023d4:	af00      	add	r7, sp, #0

  /* USER CODE END SVCall_IRQn 0 */
  /* USER CODE BEGIN SVCall_IRQn 1 */

  /* USER CODE END SVCall_IRQn 1 */
}
 80023d6:	bf00      	nop
 80023d8:	46bd      	mov	sp, r7
 80023da:	f85d 7b04 	ldr.w	r7, [sp], #4
 80023de:	4770      	bx	lr

080023e0 <DebugMon_Handler>:

/**
  * @brief This function handles Debug monitor.
  */
void DebugMon_Handler(void)
{
 80023e0:	b480      	push	{r7}
 80023e2:	af00      	add	r7, sp, #0

  /* USER CODE END DebugMonitor_IRQn 0 */
  /* USER CODE BEGIN DebugMonitor_IRQn 1 */

  /* USER CODE END DebugMonitor_IRQn 1 */
}
 80023e4:	bf00      	nop
 80023e6:	46bd      	mov	sp, r7
 80023e8:	f85d 7b04 	ldr.w	r7, [sp], #4
 80023ec:	4770      	bx	lr

080023ee <PendSV_Handler>:

/**
  * @brief This function handles Pendable request for system service.
  */
void PendSV_Handler(void)
{
 80023ee:	b480      	push	{r7}
 80023f0:	af00      	add	r7, sp, #0

  /* USER CODE END PendSV_IRQn 0 */
  /* USER CODE BEGIN PendSV_IRQn 1 */

  /* USER CODE END PendSV_IRQn 1 */
}
 80023f2:	bf00      	nop
 80023f4:	46bd      	mov	sp, r7
 80023f6:	f85d 7b04 	ldr.w	r7, [sp], #4
 80023fa:	4770      	bx	lr

080023fc <SysTick_Handler>:

/**
  * @brief This function handles System tick timer.
  */
void SysTick_Handler(void)
{
 80023fc:	b580      	push	{r7, lr}
 80023fe:	af00      	add	r7, sp, #0
  /* USER CODE BEGIN SysTick_IRQn 0 */

  /* USER CODE END SysTick_IRQn 0 */
  HAL_IncTick();
 8002400:	f000 f8f8 	bl	80025f4 <HAL_IncTick>
  /* USER CODE BEGIN SysTick_IRQn 1 */

  /* USER CODE END SysTick_IRQn 1 */
}
 8002404:	bf00      	nop
 8002406:	bd80      	pop	{r7, pc}

08002408 <USART2_IRQHandler>:

/**
  * @brief This function handles USART2 global interrupt.
  */
void USART2_IRQHandler(void)
{
 8002408:	b580      	push	{r7, lr}
 800240a:	af00      	add	r7, sp, #0
  /* USER CODE BEGIN USART2_IRQn 0 */

  /* USER CODE END USART2_IRQn 0 */
  HAL_UART_IRQHandler(&huart2);
 800240c:	4802      	ldr	r0, [pc, #8]	; (8002418 <USART2_IRQHandler+0x10>)
 800240e:	f004 f847 	bl	80064a0 <HAL_UART_IRQHandler>
  /* USER CODE BEGIN USART2_IRQn 1 */

  /* USER CODE END USART2_IRQn 1 */
}
 8002412:	bf00      	nop
 8002414:	bd80      	pop	{r7, pc}
 8002416:	bf00      	nop
 8002418:	20000200 	.word	0x20000200

0800241c <TIM6_DAC_IRQHandler>:

/**
  * @brief This function handles TIM6 global interrupt, DAC1 and DAC2 underrun error interrupts.
  */
void TIM6_DAC_IRQHandler(void)
{
 800241c:	b580      	push	{r7, lr}
 800241e:	af00      	add	r7, sp, #0
  /* USER CODE BEGIN TIM6_DAC_IRQn 0 */

  /* USER CODE END TIM6_DAC_IRQn 0 */
  HAL_TIM_IRQHandler(&htim6);
 8002420:	4803      	ldr	r0, [pc, #12]	; (8002430 <TIM6_DAC_IRQHandler+0x14>)
 8002422:	f003 fcdf 	bl	8005de4 <HAL_TIM_IRQHandler>
  /* USER CODE BEGIN TIM6_DAC_IRQn 1 */
  tim6_overflow_flag = 0x01;
 8002426:	4b03      	ldr	r3, [pc, #12]	; (8002434 <TIM6_DAC_IRQHandler+0x18>)
 8002428:	2201      	movs	r2, #1
 800242a:	701a      	strb	r2, [r3, #0]
  /* USER CODE END TIM6_DAC_IRQn 1 */
}
 800242c:	bf00      	nop
 800242e:	bd80      	pop	{r7, pc}
 8002430:	200001b8 	.word	0x200001b8
 8002434:	2000024b 	.word	0x2000024b

08002438 <HAL_UART_RxCpltCallback>:

/* USER CODE BEGIN 1 */
void HAL_UART_RxCpltCallback(UART_HandleTypeDef *huart) {
 8002438:	b580      	push	{r7, lr}
 800243a:	b082      	sub	sp, #8
 800243c:	af00      	add	r7, sp, #0
 800243e:	6078      	str	r0, [r7, #4]
	uart2_rec_flag = 0x01;
 8002440:	4b05      	ldr	r3, [pc, #20]	; (8002458 <HAL_UART_RxCpltCallback+0x20>)
 8002442:	2201      	movs	r2, #1
 8002444:	701a      	strb	r2, [r3, #0]
	HAL_UART_Receive_IT(&huart2, UARTRxData, 2);
 8002446:	2202      	movs	r2, #2
 8002448:	4904      	ldr	r1, [pc, #16]	; (800245c <HAL_UART_RxCpltCallback+0x24>)
 800244a:	4805      	ldr	r0, [pc, #20]	; (8002460 <HAL_UART_RxCpltCallback+0x28>)
 800244c:	f004 f803 	bl	8006456 <HAL_UART_Receive_IT>
}
 8002450:	bf00      	nop
 8002452:	3708      	adds	r7, #8
 8002454:	46bd      	mov	sp, r7
 8002456:	bd80      	pop	{r7, pc}
 8002458:	2000024a 	.word	0x2000024a
 800245c:	20000248 	.word	0x20000248
 8002460:	20000200 	.word	0x20000200

08002464 <SystemInit>:
  *         configuration.
  * @param  None
  * @retval None
  */
void SystemInit(void)
{
 8002464:	b480      	push	{r7}
 8002466:	af00      	add	r7, sp, #0
  /* FPU settings ------------------------------------------------------------*/
  #if (__FPU_PRESENT == 1) && (__FPU_USED == 1)
    SCB->CPACR |= ((3UL << 10*2)|(3UL << 11*2));  /* set CP10 and CP11 Full Access */
 8002468:	4b06      	ldr	r3, [pc, #24]	; (8002484 <SystemInit+0x20>)
 800246a:	f8d3 3088 	ldr.w	r3, [r3, #136]	; 0x88
 800246e:	4a05      	ldr	r2, [pc, #20]	; (8002484 <SystemInit+0x20>)
 8002470:	f443 0370 	orr.w	r3, r3, #15728640	; 0xf00000
 8002474:	f8c2 3088 	str.w	r3, [r2, #136]	; 0x88

  /* Configure the Vector Table location -------------------------------------*/
#if defined(USER_VECT_TAB_ADDRESS)
  SCB->VTOR = VECT_TAB_BASE_ADDRESS | VECT_TAB_OFFSET; /* Vector Table Relocation in Internal SRAM */
#endif /* USER_VECT_TAB_ADDRESS */
}
 8002478:	bf00      	nop
 800247a:	46bd      	mov	sp, r7
 800247c:	f85d 7b04 	ldr.w	r7, [sp], #4
 8002480:	4770      	bx	lr
 8002482:	bf00      	nop
 8002484:	e000ed00 	.word	0xe000ed00

08002488 <uart_transmit_page>:

#include "uart_transmit.h"
/**
 * Transmit one single page over the UART interface
 */
void uart_transmit_page(UART_HandleTypeDef *huart, uint8_t page[PAGE_SIZE]) {
 8002488:	b580      	push	{r7, lr}
 800248a:	b082      	sub	sp, #8
 800248c:	af00      	add	r7, sp, #0
 800248e:	6078      	str	r0, [r7, #4]
 8002490:	6039      	str	r1, [r7, #0]
	HAL_UART_Transmit(huart, page, PAGE_SIZE, HAL_MAX_DELAY);
 8002492:	f04f 33ff 	mov.w	r3, #4294967295	; 0xffffffff
 8002496:	f44f 7280 	mov.w	r2, #256	; 0x100
 800249a:	6839      	ldr	r1, [r7, #0]
 800249c:	6878      	ldr	r0, [r7, #4]
 800249e:	f003 ff4f 	bl	8006340 <HAL_UART_Transmit>
}
 80024a2:	bf00      	nop
 80024a4:	3708      	adds	r7, #8
 80024a6:	46bd      	mov	sp, r7
 80024a8:	bd80      	pop	{r7, pc}

080024aa <send_uart_string>:

void send_uart_string(UART_HandleTypeDef *huart, const char *str) {
 80024aa:	b580      	push	{r7, lr}
 80024ac:	b082      	sub	sp, #8
 80024ae:	af00      	add	r7, sp, #0
 80024b0:	6078      	str	r0, [r7, #4]
 80024b2:	6039      	str	r1, [r7, #0]
    HAL_UART_Transmit(huart, (uint8_t *)str, strlen(str), HAL_MAX_DELAY);
 80024b4:	6838      	ldr	r0, [r7, #0]
 80024b6:	f7fd fe99 	bl	80001ec <strlen>
 80024ba:	4603      	mov	r3, r0
 80024bc:	b29a      	uxth	r2, r3
 80024be:	f04f 33ff 	mov.w	r3, #4294967295	; 0xffffffff
 80024c2:	6839      	ldr	r1, [r7, #0]
 80024c4:	6878      	ldr	r0, [r7, #4]
 80024c6:	f003 ff3b 	bl	8006340 <HAL_UART_Transmit>
}
 80024ca:	bf00      	nop
 80024cc:	3708      	adds	r7, #8
 80024ce:	46bd      	mov	sp, r7
 80024d0:	bd80      	pop	{r7, pc}

080024d2 <send_uart_hex>:
	// Call the send_uart_string function to send the value to UART
	send_uart_string(huart, value_str);
	send_uart_string(huart, "\r\n");
}

void send_uart_hex(UART_HandleTypeDef *huart, uint8_t value) {
 80024d2:	b580      	push	{r7, lr}
 80024d4:	b084      	sub	sp, #16
 80024d6:	af00      	add	r7, sp, #0
 80024d8:	6078      	str	r0, [r7, #4]
 80024da:	460b      	mov	r3, r1
 80024dc:	70fb      	strb	r3, [r7, #3]
	uint8_t buffer[1];
	buffer[0] = value;
 80024de:	78fb      	ldrb	r3, [r7, #3]
 80024e0:	733b      	strb	r3, [r7, #12]
	HAL_UART_Transmit(huart, buffer, 1, HAL_MAX_DELAY);
 80024e2:	f107 010c 	add.w	r1, r7, #12
 80024e6:	f04f 33ff 	mov.w	r3, #4294967295	; 0xffffffff
 80024ea:	2201      	movs	r2, #1
 80024ec:	6878      	ldr	r0, [r7, #4]
 80024ee:	f003 ff27 	bl	8006340 <HAL_UART_Transmit>
}
 80024f2:	bf00      	nop
 80024f4:	3710      	adds	r7, #16
 80024f6:	46bd      	mov	sp, r7
 80024f8:	bd80      	pop	{r7, pc}
	...

080024fc <Reset_Handler>:

    .section  .text.Reset_Handler
  .weak  Reset_Handler
  .type  Reset_Handler, %function
Reset_Handler:  
  ldr   sp, =_estack     /* set stack pointer */
 80024fc:	f8df d034 	ldr.w	sp, [pc, #52]	; 8002534 <LoopFillZerobss+0xe>
  
/* Call the clock system initialization function.*/
  bl  SystemInit  
 8002500:	f7ff ffb0 	bl	8002464 <SystemInit>

/* Copy the data segment initializers from flash to SRAM */  
  ldr r0, =_sdata
 8002504:	480c      	ldr	r0, [pc, #48]	; (8002538 <LoopFillZerobss+0x12>)
  ldr r1, =_edata
 8002506:	490d      	ldr	r1, [pc, #52]	; (800253c <LoopFillZerobss+0x16>)
  ldr r2, =_sidata
 8002508:	4a0d      	ldr	r2, [pc, #52]	; (8002540 <LoopFillZerobss+0x1a>)
  movs r3, #0
 800250a:	2300      	movs	r3, #0
  b LoopCopyDataInit
 800250c:	e002      	b.n	8002514 <LoopCopyDataInit>

0800250e <CopyDataInit>:

CopyDataInit:
  ldr r4, [r2, r3]
 800250e:	58d4      	ldr	r4, [r2, r3]
  str r4, [r0, r3]
 8002510:	50c4      	str	r4, [r0, r3]
  adds r3, r3, #4
 8002512:	3304      	adds	r3, #4

08002514 <LoopCopyDataInit>:

LoopCopyDataInit:
  adds r4, r0, r3
 8002514:	18c4      	adds	r4, r0, r3
  cmp r4, r1
 8002516:	428c      	cmp	r4, r1
  bcc CopyDataInit
 8002518:	d3f9      	bcc.n	800250e <CopyDataInit>
  
/* Zero fill the bss segment. */
  ldr r2, =_sbss
 800251a:	4a0a      	ldr	r2, [pc, #40]	; (8002544 <LoopFillZerobss+0x1e>)
  ldr r4, =_ebss
 800251c:	4c0a      	ldr	r4, [pc, #40]	; (8002548 <LoopFillZerobss+0x22>)
  movs r3, #0
 800251e:	2300      	movs	r3, #0
  b LoopFillZerobss
 8002520:	e001      	b.n	8002526 <LoopFillZerobss>

08002522 <FillZerobss>:

FillZerobss:
  str  r3, [r2]
 8002522:	6013      	str	r3, [r2, #0]
  adds r2, r2, #4
 8002524:	3204      	adds	r2, #4

08002526 <LoopFillZerobss>:

LoopFillZerobss:
  cmp r2, r4
 8002526:	42a2      	cmp	r2, r4
  bcc FillZerobss
 8002528:	d3fb      	bcc.n	8002522 <FillZerobss>

/* Call static constructors */
    bl __libc_init_array
 800252a:	f004 ff17 	bl	800735c <__libc_init_array>
/* Call the application's entry point.*/
  bl  main
 800252e:	f7fe fb8f 	bl	8000c50 <main>
  bx  lr    
 8002532:	4770      	bx	lr
  ldr   sp, =_estack     /* set stack pointer */
 8002534:	20030000 	.word	0x20030000
  ldr r0, =_sdata
 8002538:	20000000 	.word	0x20000000
  ldr r1, =_edata
 800253c:	20000024 	.word	0x20000024
  ldr r2, =_sidata
 8002540:	0800747c 	.word	0x0800747c
  ldr r2, =_sbss
 8002544:	20000024 	.word	0x20000024
  ldr r4, =_ebss
 8002548:	200004c0 	.word	0x200004c0

0800254c <ADC_IRQHandler>:
 * @retval None       
*/
    .section  .text.Default_Handler,"ax",%progbits
Default_Handler:
Infinite_Loop:
  b  Infinite_Loop
 800254c:	e7fe      	b.n	800254c <ADC_IRQHandler>
	...

08002550 <HAL_Init>:
  *         need to ensure that the SysTick time base is always set to 1 millisecond
  *         to have correct HAL operation.
  * @retval HAL status
  */
HAL_StatusTypeDef HAL_Init(void)
{
 8002550:	b580      	push	{r7, lr}
 8002552:	af00      	add	r7, sp, #0
  /* Configure Flash prefetch, Instruction cache, Data cache */ 
#if (INSTRUCTION_CACHE_ENABLE != 0U)
  __HAL_FLASH_INSTRUCTION_CACHE_ENABLE();
 8002554:	4b0e      	ldr	r3, [pc, #56]	; (8002590 <HAL_Init+0x40>)
 8002556:	681b      	ldr	r3, [r3, #0]
 8002558:	4a0d      	ldr	r2, [pc, #52]	; (8002590 <HAL_Init+0x40>)
 800255a:	f443 7300 	orr.w	r3, r3, #512	; 0x200
 800255e:	6013      	str	r3, [r2, #0]
#endif /* INSTRUCTION_CACHE_ENABLE */

#if (DATA_CACHE_ENABLE != 0U)
  __HAL_FLASH_DATA_CACHE_ENABLE();
 8002560:	4b0b      	ldr	r3, [pc, #44]	; (8002590 <HAL_Init+0x40>)
 8002562:	681b      	ldr	r3, [r3, #0]
 8002564:	4a0a      	ldr	r2, [pc, #40]	; (8002590 <HAL_Init+0x40>)
 8002566:	f443 6380 	orr.w	r3, r3, #1024	; 0x400
 800256a:	6013      	str	r3, [r2, #0]
#endif /* DATA_CACHE_ENABLE */

#if (PREFETCH_ENABLE != 0U)
  __HAL_FLASH_PREFETCH_BUFFER_ENABLE();
 800256c:	4b08      	ldr	r3, [pc, #32]	; (8002590 <HAL_Init+0x40>)
 800256e:	681b      	ldr	r3, [r3, #0]
 8002570:	4a07      	ldr	r2, [pc, #28]	; (8002590 <HAL_Init+0x40>)
 8002572:	f443 7380 	orr.w	r3, r3, #256	; 0x100
 8002576:	6013      	str	r3, [r2, #0]
#endif /* PREFETCH_ENABLE */

  /* Set Interrupt Group Priority */
  HAL_NVIC_SetPriorityGrouping(NVIC_PRIORITYGROUP_4);
 8002578:	2003      	movs	r0, #3
 800257a:	f000 f94f 	bl	800281c <HAL_NVIC_SetPriorityGrouping>

  /* Use systick as time base source and configure 1ms tick (default clock after Reset is HSI) */
  HAL_InitTick(TICK_INT_PRIORITY);
 800257e:	200f      	movs	r0, #15
 8002580:	f000 f808 	bl	8002594 <HAL_InitTick>

  /* Init the low level hardware */
  HAL_MspInit();
 8002584:	f7ff fd30 	bl	8001fe8 <HAL_MspInit>

  /* Return function status */
  return HAL_OK;
 8002588:	2300      	movs	r3, #0
}
 800258a:	4618      	mov	r0, r3
 800258c:	bd80      	pop	{r7, pc}
 800258e:	bf00      	nop
 8002590:	40023c00 	.word	0x40023c00

08002594 <HAL_InitTick>:
  *       implementation  in user file.
  * @param TickPriority Tick interrupt priority.
  * @retval HAL status
  */
__weak HAL_StatusTypeDef HAL_InitTick(uint32_t TickPriority)
{
 8002594:	b580      	push	{r7, lr}
 8002596:	b082      	sub	sp, #8
 8002598:	af00      	add	r7, sp, #0
 800259a:	6078      	str	r0, [r7, #4]
  /* Configure the SysTick to have interrupt in 1ms time basis*/
  if (HAL_SYSTICK_Config(SystemCoreClock / (1000U / uwTickFreq)) > 0U)
 800259c:	4b12      	ldr	r3, [pc, #72]	; (80025e8 <HAL_InitTick+0x54>)
 800259e:	681a      	ldr	r2, [r3, #0]
 80025a0:	4b12      	ldr	r3, [pc, #72]	; (80025ec <HAL_InitTick+0x58>)
 80025a2:	781b      	ldrb	r3, [r3, #0]
 80025a4:	4619      	mov	r1, r3
 80025a6:	f44f 737a 	mov.w	r3, #1000	; 0x3e8
 80025aa:	fbb3 f3f1 	udiv	r3, r3, r1
 80025ae:	fbb2 f3f3 	udiv	r3, r2, r3
 80025b2:	4618      	mov	r0, r3
 80025b4:	f000 f967 	bl	8002886 <HAL_SYSTICK_Config>
 80025b8:	4603      	mov	r3, r0
 80025ba:	2b00      	cmp	r3, #0
 80025bc:	d001      	beq.n	80025c2 <HAL_InitTick+0x2e>
  {
    return HAL_ERROR;
 80025be:	2301      	movs	r3, #1
 80025c0:	e00e      	b.n	80025e0 <HAL_InitTick+0x4c>
  }

  /* Configure the SysTick IRQ priority */
  if (TickPriority < (1UL << __NVIC_PRIO_BITS))
 80025c2:	687b      	ldr	r3, [r7, #4]
 80025c4:	2b0f      	cmp	r3, #15
 80025c6:	d80a      	bhi.n	80025de <HAL_InitTick+0x4a>
  {
    HAL_NVIC_SetPriority(SysTick_IRQn, TickPriority, 0U);
 80025c8:	2200      	movs	r2, #0
 80025ca:	6879      	ldr	r1, [r7, #4]
 80025cc:	f04f 30ff 	mov.w	r0, #4294967295	; 0xffffffff
 80025d0:	f000 f92f 	bl	8002832 <HAL_NVIC_SetPriority>
    uwTickPrio = TickPriority;
 80025d4:	4a06      	ldr	r2, [pc, #24]	; (80025f0 <HAL_InitTick+0x5c>)
 80025d6:	687b      	ldr	r3, [r7, #4]
 80025d8:	6013      	str	r3, [r2, #0]
  {
    return HAL_ERROR;
  }

  /* Return function status */
  return HAL_OK;
 80025da:	2300      	movs	r3, #0
 80025dc:	e000      	b.n	80025e0 <HAL_InitTick+0x4c>
    return HAL_ERROR;
 80025de:	2301      	movs	r3, #1
}
 80025e0:	4618      	mov	r0, r3
 80025e2:	3708      	adds	r7, #8
 80025e4:	46bd      	mov	sp, r7
 80025e6:	bd80      	pop	{r7, pc}
 80025e8:	20000018 	.word	0x20000018
 80025ec:	20000020 	.word	0x20000020
 80025f0:	2000001c 	.word	0x2000001c

080025f4 <HAL_IncTick>:
 * @note This function is declared as __weak to be overwritten in case of other 
  *      implementations in user file.
  * @retval None
  */
__weak void HAL_IncTick(void)
{
 80025f4:	b480      	push	{r7}
 80025f6:	af00      	add	r7, sp, #0
  uwTick += uwTickFreq;
 80025f8:	4b06      	ldr	r3, [pc, #24]	; (8002614 <HAL_IncTick+0x20>)
 80025fa:	781b      	ldrb	r3, [r3, #0]
 80025fc:	461a      	mov	r2, r3
 80025fe:	4b06      	ldr	r3, [pc, #24]	; (8002618 <HAL_IncTick+0x24>)
 8002600:	681b      	ldr	r3, [r3, #0]
 8002602:	4413      	add	r3, r2
 8002604:	4a04      	ldr	r2, [pc, #16]	; (8002618 <HAL_IncTick+0x24>)
 8002606:	6013      	str	r3, [r2, #0]
}
 8002608:	bf00      	nop
 800260a:	46bd      	mov	sp, r7
 800260c:	f85d 7b04 	ldr.w	r7, [sp], #4
 8002610:	4770      	bx	lr
 8002612:	bf00      	nop
 8002614:	20000020 	.word	0x20000020
 8002618:	200004bc 	.word	0x200004bc

0800261c <HAL_GetTick>:
  * @note This function is declared as __weak to be overwritten in case of other 
  *       implementations in user file.
  * @retval tick value
  */
__weak uint32_t HAL_GetTick(void)
{
 800261c:	b480      	push	{r7}
 800261e:	af00      	add	r7, sp, #0
  return uwTick;
 8002620:	4b03      	ldr	r3, [pc, #12]	; (8002630 <HAL_GetTick+0x14>)
 8002622:	681b      	ldr	r3, [r3, #0]
}
 8002624:	4618      	mov	r0, r3
 8002626:	46bd      	mov	sp, r7
 8002628:	f85d 7b04 	ldr.w	r7, [sp], #4
 800262c:	4770      	bx	lr
 800262e:	bf00      	nop
 8002630:	200004bc 	.word	0x200004bc

08002634 <HAL_Delay>:
  *       implementations in user file.
  * @param Delay specifies the delay time length, in milliseconds.
  * @retval None
  */
__weak void HAL_Delay(uint32_t Delay)
{
 8002634:	b580      	push	{r7, lr}
 8002636:	b084      	sub	sp, #16
 8002638:	af00      	add	r7, sp, #0
 800263a:	6078      	str	r0, [r7, #4]
  uint32_t tickstart = HAL_GetTick();
 800263c:	f7ff ffee 	bl	800261c <HAL_GetTick>
 8002640:	60b8      	str	r0, [r7, #8]
  uint32_t wait = Delay;
 8002642:	687b      	ldr	r3, [r7, #4]
 8002644:	60fb      	str	r3, [r7, #12]

  /* Add a freq to guarantee minimum wait */
  if (wait < HAL_MAX_DELAY)
 8002646:	68fb      	ldr	r3, [r7, #12]
 8002648:	f1b3 3fff 	cmp.w	r3, #4294967295	; 0xffffffff
 800264c:	d005      	beq.n	800265a <HAL_Delay+0x26>
  {
    wait += (uint32_t)(uwTickFreq);
 800264e:	4b0a      	ldr	r3, [pc, #40]	; (8002678 <HAL_Delay+0x44>)
 8002650:	781b      	ldrb	r3, [r3, #0]
 8002652:	461a      	mov	r2, r3
 8002654:	68fb      	ldr	r3, [r7, #12]
 8002656:	4413      	add	r3, r2
 8002658:	60fb      	str	r3, [r7, #12]
  }

  while((HAL_GetTick() - tickstart) < wait)
 800265a:	bf00      	nop
 800265c:	f7ff ffde 	bl	800261c <HAL_GetTick>
 8002660:	4602      	mov	r2, r0
 8002662:	68bb      	ldr	r3, [r7, #8]
 8002664:	1ad3      	subs	r3, r2, r3
 8002666:	68fa      	ldr	r2, [r7, #12]
 8002668:	429a      	cmp	r2, r3
 800266a:	d8f7      	bhi.n	800265c <HAL_Delay+0x28>
  {
  }
}
 800266c:	bf00      	nop
 800266e:	bf00      	nop
 8002670:	3710      	adds	r7, #16
 8002672:	46bd      	mov	sp, r7
 8002674:	bd80      	pop	{r7, pc}
 8002676:	bf00      	nop
 8002678:	20000020 	.word	0x20000020

0800267c <__NVIC_SetPriorityGrouping>:
           In case of a conflict between priority grouping and available
           priority bits (__NVIC_PRIO_BITS), the smallest possible priority group is set.
  \param [in]      PriorityGroup  Priority grouping field.
 */
__STATIC_INLINE void __NVIC_SetPriorityGrouping(uint32_t PriorityGroup)
{
 800267c:	b480      	push	{r7}
 800267e:	b085      	sub	sp, #20
 8002680:	af00      	add	r7, sp, #0
 8002682:	6078      	str	r0, [r7, #4]
  uint32_t reg_value;
  uint32_t PriorityGroupTmp = (PriorityGroup & (uint32_t)0x07UL);             /* only values 0..7 are used          */
 8002684:	687b      	ldr	r3, [r7, #4]
 8002686:	f003 0307 	and.w	r3, r3, #7
 800268a:	60fb      	str	r3, [r7, #12]

  reg_value  =  SCB->AIRCR;                                                   /* read old register configuration    */
 800268c:	4b0c      	ldr	r3, [pc, #48]	; (80026c0 <__NVIC_SetPriorityGrouping+0x44>)
 800268e:	68db      	ldr	r3, [r3, #12]
 8002690:	60bb      	str	r3, [r7, #8]
  reg_value &= ~((uint32_t)(SCB_AIRCR_VECTKEY_Msk | SCB_AIRCR_PRIGROUP_Msk)); /* clear bits to change               */
 8002692:	68ba      	ldr	r2, [r7, #8]
 8002694:	f64f 03ff 	movw	r3, #63743	; 0xf8ff
 8002698:	4013      	ands	r3, r2
 800269a:	60bb      	str	r3, [r7, #8]
  reg_value  =  (reg_value                                   |
                ((uint32_t)0x5FAUL << SCB_AIRCR_VECTKEY_Pos) |
                (PriorityGroupTmp << SCB_AIRCR_PRIGROUP_Pos)  );              /* Insert write key and priority group */
 800269c:	68fb      	ldr	r3, [r7, #12]
 800269e:	021a      	lsls	r2, r3, #8
                ((uint32_t)0x5FAUL << SCB_AIRCR_VECTKEY_Pos) |
 80026a0:	68bb      	ldr	r3, [r7, #8]
 80026a2:	4313      	orrs	r3, r2
  reg_value  =  (reg_value                                   |
 80026a4:	f043 63bf 	orr.w	r3, r3, #100139008	; 0x5f80000
 80026a8:	f443 3300 	orr.w	r3, r3, #131072	; 0x20000
 80026ac:	60bb      	str	r3, [r7, #8]
  SCB->AIRCR =  reg_value;
 80026ae:	4a04      	ldr	r2, [pc, #16]	; (80026c0 <__NVIC_SetPriorityGrouping+0x44>)
 80026b0:	68bb      	ldr	r3, [r7, #8]
 80026b2:	60d3      	str	r3, [r2, #12]
}
 80026b4:	bf00      	nop
 80026b6:	3714      	adds	r7, #20
 80026b8:	46bd      	mov	sp, r7
 80026ba:	f85d 7b04 	ldr.w	r7, [sp], #4
 80026be:	4770      	bx	lr
 80026c0:	e000ed00 	.word	0xe000ed00

080026c4 <__NVIC_GetPriorityGrouping>:
  \brief   Get Priority Grouping
  \details Reads the priority grouping field from the NVIC Interrupt Controller.
  \return                Priority grouping field (SCB->AIRCR [10:8] PRIGROUP field).
 */
__STATIC_INLINE uint32_t __NVIC_GetPriorityGrouping(void)
{
 80026c4:	b480      	push	{r7}
 80026c6:	af00      	add	r7, sp, #0
  return ((uint32_t)((SCB->AIRCR & SCB_AIRCR_PRIGROUP_Msk) >> SCB_AIRCR_PRIGROUP_Pos));
 80026c8:	4b04      	ldr	r3, [pc, #16]	; (80026dc <__NVIC_GetPriorityGrouping+0x18>)
 80026ca:	68db      	ldr	r3, [r3, #12]
 80026cc:	0a1b      	lsrs	r3, r3, #8
 80026ce:	f003 0307 	and.w	r3, r3, #7
}
 80026d2:	4618      	mov	r0, r3
 80026d4:	46bd      	mov	sp, r7
 80026d6:	f85d 7b04 	ldr.w	r7, [sp], #4
 80026da:	4770      	bx	lr
 80026dc:	e000ed00 	.word	0xe000ed00

080026e0 <__NVIC_EnableIRQ>:
  \details Enables a device specific interrupt in the NVIC interrupt controller.
  \param [in]      IRQn  Device specific interrupt number.
  \note    IRQn must not be negative.
 */
__STATIC_INLINE void __NVIC_EnableIRQ(IRQn_Type IRQn)
{
 80026e0:	b480      	push	{r7}
 80026e2:	b083      	sub	sp, #12
 80026e4:	af00      	add	r7, sp, #0
 80026e6:	4603      	mov	r3, r0
 80026e8:	71fb      	strb	r3, [r7, #7]
  if ((int32_t)(IRQn) >= 0)
 80026ea:	f997 3007 	ldrsb.w	r3, [r7, #7]
 80026ee:	2b00      	cmp	r3, #0
 80026f0:	db0b      	blt.n	800270a <__NVIC_EnableIRQ+0x2a>
  {
    __COMPILER_BARRIER();
    NVIC->ISER[(((uint32_t)IRQn) >> 5UL)] = (uint32_t)(1UL << (((uint32_t)IRQn) & 0x1FUL));
 80026f2:	79fb      	ldrb	r3, [r7, #7]
 80026f4:	f003 021f 	and.w	r2, r3, #31
 80026f8:	4907      	ldr	r1, [pc, #28]	; (8002718 <__NVIC_EnableIRQ+0x38>)
 80026fa:	f997 3007 	ldrsb.w	r3, [r7, #7]
 80026fe:	095b      	lsrs	r3, r3, #5
 8002700:	2001      	movs	r0, #1
 8002702:	fa00 f202 	lsl.w	r2, r0, r2
 8002706:	f841 2023 	str.w	r2, [r1, r3, lsl #2]
    __COMPILER_BARRIER();
  }
}
 800270a:	bf00      	nop
 800270c:	370c      	adds	r7, #12
 800270e:	46bd      	mov	sp, r7
 8002710:	f85d 7b04 	ldr.w	r7, [sp], #4
 8002714:	4770      	bx	lr
 8002716:	bf00      	nop
 8002718:	e000e100 	.word	0xe000e100

0800271c <__NVIC_SetPriority>:
  \param [in]      IRQn  Interrupt number.
  \param [in]  priority  Priority to set.
  \note    The priority cannot be set for every processor exception.
 */
__STATIC_INLINE void __NVIC_SetPriority(IRQn_Type IRQn, uint32_t priority)
{
 800271c:	b480      	push	{r7}
 800271e:	b083      	sub	sp, #12
 8002720:	af00      	add	r7, sp, #0
 8002722:	4603      	mov	r3, r0
 8002724:	6039      	str	r1, [r7, #0]
 8002726:	71fb      	strb	r3, [r7, #7]
  if ((int32_t)(IRQn) >= 0)
 8002728:	f997 3007 	ldrsb.w	r3, [r7, #7]
 800272c:	2b00      	cmp	r3, #0
 800272e:	db0a      	blt.n	8002746 <__NVIC_SetPriority+0x2a>
  {
    NVIC->IP[((uint32_t)IRQn)]               = (uint8_t)((priority << (8U - __NVIC_PRIO_BITS)) & (uint32_t)0xFFUL);
 8002730:	683b      	ldr	r3, [r7, #0]
 8002732:	b2da      	uxtb	r2, r3
 8002734:	490c      	ldr	r1, [pc, #48]	; (8002768 <__NVIC_SetPriority+0x4c>)
 8002736:	f997 3007 	ldrsb.w	r3, [r7, #7]
 800273a:	0112      	lsls	r2, r2, #4
 800273c:	b2d2      	uxtb	r2, r2
 800273e:	440b      	add	r3, r1
 8002740:	f883 2300 	strb.w	r2, [r3, #768]	; 0x300
  }
  else
  {
    SCB->SHP[(((uint32_t)IRQn) & 0xFUL)-4UL] = (uint8_t)((priority << (8U - __NVIC_PRIO_BITS)) & (uint32_t)0xFFUL);
  }
}
 8002744:	e00a      	b.n	800275c <__NVIC_SetPriority+0x40>
    SCB->SHP[(((uint32_t)IRQn) & 0xFUL)-4UL] = (uint8_t)((priority << (8U - __NVIC_PRIO_BITS)) & (uint32_t)0xFFUL);
 8002746:	683b      	ldr	r3, [r7, #0]
 8002748:	b2da      	uxtb	r2, r3
 800274a:	4908      	ldr	r1, [pc, #32]	; (800276c <__NVIC_SetPriority+0x50>)
 800274c:	79fb      	ldrb	r3, [r7, #7]
 800274e:	f003 030f 	and.w	r3, r3, #15
 8002752:	3b04      	subs	r3, #4
 8002754:	0112      	lsls	r2, r2, #4
 8002756:	b2d2      	uxtb	r2, r2
 8002758:	440b      	add	r3, r1
 800275a:	761a      	strb	r2, [r3, #24]
}
 800275c:	bf00      	nop
 800275e:	370c      	adds	r7, #12
 8002760:	46bd      	mov	sp, r7
 8002762:	f85d 7b04 	ldr.w	r7, [sp], #4
 8002766:	4770      	bx	lr
 8002768:	e000e100 	.word	0xe000e100
 800276c:	e000ed00 	.word	0xe000ed00

08002770 <NVIC_EncodePriority>:
  \param [in]   PreemptPriority  Preemptive priority value (starting from 0).
  \param [in]       SubPriority  Subpriority value (starting from 0).
  \return                        Encoded priority. Value can be used in the function \ref NVIC_SetPriority().
 */
__STATIC_INLINE uint32_t NVIC_EncodePriority (uint32_t PriorityGroup, uint32_t PreemptPriority, uint32_t SubPriority)
{
 8002770:	b480      	push	{r7}
 8002772:	b089      	sub	sp, #36	; 0x24
 8002774:	af00      	add	r7, sp, #0
 8002776:	60f8      	str	r0, [r7, #12]
 8002778:	60b9      	str	r1, [r7, #8]
 800277a:	607a      	str	r2, [r7, #4]
  uint32_t PriorityGroupTmp = (PriorityGroup & (uint32_t)0x07UL);   /* only values 0..7 are used          */
 800277c:	68fb      	ldr	r3, [r7, #12]
 800277e:	f003 0307 	and.w	r3, r3, #7
 8002782:	61fb      	str	r3, [r7, #28]
  uint32_t PreemptPriorityBits;
  uint32_t SubPriorityBits;

  PreemptPriorityBits = ((7UL - PriorityGroupTmp) > (uint32_t)(__NVIC_PRIO_BITS)) ? (uint32_t)(__NVIC_PRIO_BITS) : (uint32_t)(7UL - PriorityGroupTmp);
 8002784:	69fb      	ldr	r3, [r7, #28]
 8002786:	f1c3 0307 	rsb	r3, r3, #7
 800278a:	2b04      	cmp	r3, #4
 800278c:	bf28      	it	cs
 800278e:	2304      	movcs	r3, #4
 8002790:	61bb      	str	r3, [r7, #24]
  SubPriorityBits     = ((PriorityGroupTmp + (uint32_t)(__NVIC_PRIO_BITS)) < (uint32_t)7UL) ? (uint32_t)0UL : (uint32_t)((PriorityGroupTmp - 7UL) + (uint32_t)(__NVIC_PRIO_BITS));
 8002792:	69fb      	ldr	r3, [r7, #28]
 8002794:	3304      	adds	r3, #4
 8002796:	2b06      	cmp	r3, #6
 8002798:	d902      	bls.n	80027a0 <NVIC_EncodePriority+0x30>
 800279a:	69fb      	ldr	r3, [r7, #28]
 800279c:	3b03      	subs	r3, #3
 800279e:	e000      	b.n	80027a2 <NVIC_EncodePriority+0x32>
 80027a0:	2300      	movs	r3, #0
 80027a2:	617b      	str	r3, [r7, #20]

  return (
           ((PreemptPriority & (uint32_t)((1UL << (PreemptPriorityBits)) - 1UL)) << SubPriorityBits) |
 80027a4:	f04f 32ff 	mov.w	r2, #4294967295	; 0xffffffff
 80027a8:	69bb      	ldr	r3, [r7, #24]
 80027aa:	fa02 f303 	lsl.w	r3, r2, r3
 80027ae:	43da      	mvns	r2, r3
 80027b0:	68bb      	ldr	r3, [r7, #8]
 80027b2:	401a      	ands	r2, r3
 80027b4:	697b      	ldr	r3, [r7, #20]
 80027b6:	409a      	lsls	r2, r3
           ((SubPriority     & (uint32_t)((1UL << (SubPriorityBits    )) - 1UL)))
 80027b8:	f04f 31ff 	mov.w	r1, #4294967295	; 0xffffffff
 80027bc:	697b      	ldr	r3, [r7, #20]
 80027be:	fa01 f303 	lsl.w	r3, r1, r3
 80027c2:	43d9      	mvns	r1, r3
 80027c4:	687b      	ldr	r3, [r7, #4]
 80027c6:	400b      	ands	r3, r1
           ((PreemptPriority & (uint32_t)((1UL << (PreemptPriorityBits)) - 1UL)) << SubPriorityBits) |
 80027c8:	4313      	orrs	r3, r2
         );
}
 80027ca:	4618      	mov	r0, r3
 80027cc:	3724      	adds	r7, #36	; 0x24
 80027ce:	46bd      	mov	sp, r7
 80027d0:	f85d 7b04 	ldr.w	r7, [sp], #4
 80027d4:	4770      	bx	lr
	...

080027d8 <SysTick_Config>:
  \note    When the variable <b>__Vendor_SysTickConfig</b> is set to 1, then the
           function <b>SysTick_Config</b> is not included. In this case, the file <b><i>device</i>.h</b>
           must contain a vendor-specific implementation of this function.
 */
__STATIC_INLINE uint32_t SysTick_Config(uint32_t ticks)
{
 80027d8:	b580      	push	{r7, lr}
 80027da:	b082      	sub	sp, #8
 80027dc:	af00      	add	r7, sp, #0
 80027de:	6078      	str	r0, [r7, #4]
  if ((ticks - 1UL) > SysTick_LOAD_RELOAD_Msk)
 80027e0:	687b      	ldr	r3, [r7, #4]
 80027e2:	3b01      	subs	r3, #1
 80027e4:	f1b3 7f80 	cmp.w	r3, #16777216	; 0x1000000
 80027e8:	d301      	bcc.n	80027ee <SysTick_Config+0x16>
  {
    return (1UL);                                                   /* Reload value impossible */
 80027ea:	2301      	movs	r3, #1
 80027ec:	e00f      	b.n	800280e <SysTick_Config+0x36>
  }

  SysTick->LOAD  = (uint32_t)(ticks - 1UL);                         /* set reload register */
 80027ee:	4a0a      	ldr	r2, [pc, #40]	; (8002818 <SysTick_Config+0x40>)
 80027f0:	687b      	ldr	r3, [r7, #4]
 80027f2:	3b01      	subs	r3, #1
 80027f4:	6053      	str	r3, [r2, #4]
  NVIC_SetPriority (SysTick_IRQn, (1UL << __NVIC_PRIO_BITS) - 1UL); /* set Priority for Systick Interrupt */
 80027f6:	210f      	movs	r1, #15
 80027f8:	f04f 30ff 	mov.w	r0, #4294967295	; 0xffffffff
 80027fc:	f7ff ff8e 	bl	800271c <__NVIC_SetPriority>
  SysTick->VAL   = 0UL;                                             /* Load the SysTick Counter Value */
 8002800:	4b05      	ldr	r3, [pc, #20]	; (8002818 <SysTick_Config+0x40>)
 8002802:	2200      	movs	r2, #0
 8002804:	609a      	str	r2, [r3, #8]
  SysTick->CTRL  = SysTick_CTRL_CLKSOURCE_Msk |
 8002806:	4b04      	ldr	r3, [pc, #16]	; (8002818 <SysTick_Config+0x40>)
 8002808:	2207      	movs	r2, #7
 800280a:	601a      	str	r2, [r3, #0]
                   SysTick_CTRL_TICKINT_Msk   |
                   SysTick_CTRL_ENABLE_Msk;                         /* Enable SysTick IRQ and SysTick Timer */
  return (0UL);                                                     /* Function successful */
 800280c:	2300      	movs	r3, #0
}
 800280e:	4618      	mov	r0, r3
 8002810:	3708      	adds	r7, #8
 8002812:	46bd      	mov	sp, r7
 8002814:	bd80      	pop	{r7, pc}
 8002816:	bf00      	nop
 8002818:	e000e010 	.word	0xe000e010

0800281c <HAL_NVIC_SetPriorityGrouping>:
  * @note   When the NVIC_PriorityGroup_0 is selected, IRQ preemption is no more possible. 
  *         The pending IRQ priority will be managed only by the subpriority. 
  * @retval None
  */
void HAL_NVIC_SetPriorityGrouping(uint32_t PriorityGroup)
{
 800281c:	b580      	push	{r7, lr}
 800281e:	b082      	sub	sp, #8
 8002820:	af00      	add	r7, sp, #0
 8002822:	6078      	str	r0, [r7, #4]
  /* Check the parameters */
  assert_param(IS_NVIC_PRIORITY_GROUP(PriorityGroup));
  
  /* Set the PRIGROUP[10:8] bits according to the PriorityGroup parameter value */
  NVIC_SetPriorityGrouping(PriorityGroup);
 8002824:	6878      	ldr	r0, [r7, #4]
 8002826:	f7ff ff29 	bl	800267c <__NVIC_SetPriorityGrouping>
}
 800282a:	bf00      	nop
 800282c:	3708      	adds	r7, #8
 800282e:	46bd      	mov	sp, r7
 8002830:	bd80      	pop	{r7, pc}

08002832 <HAL_NVIC_SetPriority>:
  *         This parameter can be a value between 0 and 15
  *         A lower priority value indicates a higher priority.          
  * @retval None
  */
void HAL_NVIC_SetPriority(IRQn_Type IRQn, uint32_t PreemptPriority, uint32_t SubPriority)
{ 
 8002832:	b580      	push	{r7, lr}
 8002834:	b086      	sub	sp, #24
 8002836:	af00      	add	r7, sp, #0
 8002838:	4603      	mov	r3, r0
 800283a:	60b9      	str	r1, [r7, #8]
 800283c:	607a      	str	r2, [r7, #4]
 800283e:	73fb      	strb	r3, [r7, #15]
  uint32_t prioritygroup = 0x00U;
 8002840:	2300      	movs	r3, #0
 8002842:	617b      	str	r3, [r7, #20]
  
  /* Check the parameters */
  assert_param(IS_NVIC_SUB_PRIORITY(SubPriority));
  assert_param(IS_NVIC_PREEMPTION_PRIORITY(PreemptPriority));
  
  prioritygroup = NVIC_GetPriorityGrouping();
 8002844:	f7ff ff3e 	bl	80026c4 <__NVIC_GetPriorityGrouping>
 8002848:	6178      	str	r0, [r7, #20]
  
  NVIC_SetPriority(IRQn, NVIC_EncodePriority(prioritygroup, PreemptPriority, SubPriority));
 800284a:	687a      	ldr	r2, [r7, #4]
 800284c:	68b9      	ldr	r1, [r7, #8]
 800284e:	6978      	ldr	r0, [r7, #20]
 8002850:	f7ff ff8e 	bl	8002770 <NVIC_EncodePriority>
 8002854:	4602      	mov	r2, r0
 8002856:	f997 300f 	ldrsb.w	r3, [r7, #15]
 800285a:	4611      	mov	r1, r2
 800285c:	4618      	mov	r0, r3
 800285e:	f7ff ff5d 	bl	800271c <__NVIC_SetPriority>
}
 8002862:	bf00      	nop
 8002864:	3718      	adds	r7, #24
 8002866:	46bd      	mov	sp, r7
 8002868:	bd80      	pop	{r7, pc}

0800286a <HAL_NVIC_EnableIRQ>:
  *         This parameter can be an enumerator of IRQn_Type enumeration
  *         (For the complete STM32 Devices IRQ Channels list, please refer to the appropriate CMSIS device file (stm32f4xxxx.h))
  * @retval None
  */
void HAL_NVIC_EnableIRQ(IRQn_Type IRQn)
{
 800286a:	b580      	push	{r7, lr}
 800286c:	b082      	sub	sp, #8
 800286e:	af00      	add	r7, sp, #0
 8002870:	4603      	mov	r3, r0
 8002872:	71fb      	strb	r3, [r7, #7]
  /* Check the parameters */
  assert_param(IS_NVIC_DEVICE_IRQ(IRQn));
  
  /* Enable interrupt */
  NVIC_EnableIRQ(IRQn);
 8002874:	f997 3007 	ldrsb.w	r3, [r7, #7]
 8002878:	4618      	mov	r0, r3
 800287a:	f7ff ff31 	bl	80026e0 <__NVIC_EnableIRQ>
}
 800287e:	bf00      	nop
 8002880:	3708      	adds	r7, #8
 8002882:	46bd      	mov	sp, r7
 8002884:	bd80      	pop	{r7, pc}

08002886 <HAL_SYSTICK_Config>:
  * @param  TicksNumb Specifies the ticks Number of ticks between two interrupts.
  * @retval status:  - 0  Function succeeded.
  *                  - 1  Function failed.
  */
uint32_t HAL_SYSTICK_Config(uint32_t TicksNumb)
{
 8002886:	b580      	push	{r7, lr}
 8002888:	b082      	sub	sp, #8
 800288a:	af00      	add	r7, sp, #0
 800288c:	6078      	str	r0, [r7, #4]
   return SysTick_Config(TicksNumb);
 800288e:	6878      	ldr	r0, [r7, #4]
 8002890:	f7ff ffa2 	bl	80027d8 <SysTick_Config>
 8002894:	4603      	mov	r3, r0
}
 8002896:	4618      	mov	r0, r3
 8002898:	3708      	adds	r7, #8
 800289a:	46bd      	mov	sp, r7
 800289c:	bd80      	pop	{r7, pc}

0800289e <HAL_DMA_Abort>:
  *        and the Stream will be effectively disabled only after the transfer of
  *        this single data is finished.  
  * @retval HAL status
  */
HAL_StatusTypeDef HAL_DMA_Abort(DMA_HandleTypeDef *hdma)
{
 800289e:	b580      	push	{r7, lr}
 80028a0:	b084      	sub	sp, #16
 80028a2:	af00      	add	r7, sp, #0
 80028a4:	6078      	str	r0, [r7, #4]
  /* calculate DMA base and stream number */
  DMA_Base_Registers *regs = (DMA_Base_Registers *)hdma->StreamBaseAddress;
 80028a6:	687b      	ldr	r3, [r7, #4]
 80028a8:	6d9b      	ldr	r3, [r3, #88]	; 0x58
 80028aa:	60fb      	str	r3, [r7, #12]
  
  uint32_t tickstart = HAL_GetTick();
 80028ac:	f7ff feb6 	bl	800261c <HAL_GetTick>
 80028b0:	60b8      	str	r0, [r7, #8]
  
  if(hdma->State != HAL_DMA_STATE_BUSY)
 80028b2:	687b      	ldr	r3, [r7, #4]
 80028b4:	f893 3035 	ldrb.w	r3, [r3, #53]	; 0x35
 80028b8:	b2db      	uxtb	r3, r3
 80028ba:	2b02      	cmp	r3, #2
 80028bc:	d008      	beq.n	80028d0 <HAL_DMA_Abort+0x32>
  {
    hdma->ErrorCode = HAL_DMA_ERROR_NO_XFER;
 80028be:	687b      	ldr	r3, [r7, #4]
 80028c0:	2280      	movs	r2, #128	; 0x80
 80028c2:	655a      	str	r2, [r3, #84]	; 0x54
    
    /* Process Unlocked */
    __HAL_UNLOCK(hdma);
 80028c4:	687b      	ldr	r3, [r7, #4]
 80028c6:	2200      	movs	r2, #0
 80028c8:	f883 2034 	strb.w	r2, [r3, #52]	; 0x34
    
    return HAL_ERROR;
 80028cc:	2301      	movs	r3, #1
 80028ce:	e052      	b.n	8002976 <HAL_DMA_Abort+0xd8>
  }
  else
  {
    /* Disable all the transfer interrupts */
    hdma->Instance->CR  &= ~(DMA_IT_TC | DMA_IT_TE | DMA_IT_DME);
 80028d0:	687b      	ldr	r3, [r7, #4]
 80028d2:	681b      	ldr	r3, [r3, #0]
 80028d4:	681a      	ldr	r2, [r3, #0]
 80028d6:	687b      	ldr	r3, [r7, #4]
 80028d8:	681b      	ldr	r3, [r3, #0]
 80028da:	f022 0216 	bic.w	r2, r2, #22
 80028de:	601a      	str	r2, [r3, #0]
    hdma->Instance->FCR &= ~(DMA_IT_FE);
 80028e0:	687b      	ldr	r3, [r7, #4]
 80028e2:	681b      	ldr	r3, [r3, #0]
 80028e4:	695a      	ldr	r2, [r3, #20]
 80028e6:	687b      	ldr	r3, [r7, #4]
 80028e8:	681b      	ldr	r3, [r3, #0]
 80028ea:	f022 0280 	bic.w	r2, r2, #128	; 0x80
 80028ee:	615a      	str	r2, [r3, #20]
    
    if((hdma->XferHalfCpltCallback != NULL) || (hdma->XferM1HalfCpltCallback != NULL))
 80028f0:	687b      	ldr	r3, [r7, #4]
 80028f2:	6c1b      	ldr	r3, [r3, #64]	; 0x40
 80028f4:	2b00      	cmp	r3, #0
 80028f6:	d103      	bne.n	8002900 <HAL_DMA_Abort+0x62>
 80028f8:	687b      	ldr	r3, [r7, #4]
 80028fa:	6c9b      	ldr	r3, [r3, #72]	; 0x48
 80028fc:	2b00      	cmp	r3, #0
 80028fe:	d007      	beq.n	8002910 <HAL_DMA_Abort+0x72>
    {
      hdma->Instance->CR  &= ~(DMA_IT_HT);
 8002900:	687b      	ldr	r3, [r7, #4]
 8002902:	681b      	ldr	r3, [r3, #0]
 8002904:	681a      	ldr	r2, [r3, #0]
 8002906:	687b      	ldr	r3, [r7, #4]
 8002908:	681b      	ldr	r3, [r3, #0]
 800290a:	f022 0208 	bic.w	r2, r2, #8
 800290e:	601a      	str	r2, [r3, #0]
    }
    
    /* Disable the stream */
    __HAL_DMA_DISABLE(hdma);
 8002910:	687b      	ldr	r3, [r7, #4]
 8002912:	681b      	ldr	r3, [r3, #0]
 8002914:	681a      	ldr	r2, [r3, #0]
 8002916:	687b      	ldr	r3, [r7, #4]
 8002918:	681b      	ldr	r3, [r3, #0]
 800291a:	f022 0201 	bic.w	r2, r2, #1
 800291e:	601a      	str	r2, [r3, #0]
    
    /* Check if the DMA Stream is effectively disabled */
    while((hdma->Instance->CR & DMA_SxCR_EN) != RESET)
 8002920:	e013      	b.n	800294a <HAL_DMA_Abort+0xac>
    {
      /* Check for the Timeout */
      if((HAL_GetTick() - tickstart ) > HAL_TIMEOUT_DMA_ABORT)
 8002922:	f7ff fe7b 	bl	800261c <HAL_GetTick>
 8002926:	4602      	mov	r2, r0
 8002928:	68bb      	ldr	r3, [r7, #8]
 800292a:	1ad3      	subs	r3, r2, r3
 800292c:	2b05      	cmp	r3, #5
 800292e:	d90c      	bls.n	800294a <HAL_DMA_Abort+0xac>
      {
        /* Update error code */
        hdma->ErrorCode = HAL_DMA_ERROR_TIMEOUT;
 8002930:	687b      	ldr	r3, [r7, #4]
 8002932:	2220      	movs	r2, #32
 8002934:	655a      	str	r2, [r3, #84]	; 0x54
        
        /* Change the DMA state */
        hdma->State = HAL_DMA_STATE_TIMEOUT;
 8002936:	687b      	ldr	r3, [r7, #4]
 8002938:	2203      	movs	r2, #3
 800293a:	f883 2035 	strb.w	r2, [r3, #53]	; 0x35
        
        /* Process Unlocked */
        __HAL_UNLOCK(hdma);
 800293e:	687b      	ldr	r3, [r7, #4]
 8002940:	2200      	movs	r2, #0
 8002942:	f883 2034 	strb.w	r2, [r3, #52]	; 0x34
        
        return HAL_TIMEOUT;
 8002946:	2303      	movs	r3, #3
 8002948:	e015      	b.n	8002976 <HAL_DMA_Abort+0xd8>
    while((hdma->Instance->CR & DMA_SxCR_EN) != RESET)
 800294a:	687b      	ldr	r3, [r7, #4]
 800294c:	681b      	ldr	r3, [r3, #0]
 800294e:	681b      	ldr	r3, [r3, #0]
 8002950:	f003 0301 	and.w	r3, r3, #1
 8002954:	2b00      	cmp	r3, #0
 8002956:	d1e4      	bne.n	8002922 <HAL_DMA_Abort+0x84>
      }
    }
    
    /* Clear all interrupt flags at correct offset within the register */
    regs->IFCR = 0x3FU << hdma->StreamIndex;
 8002958:	687b      	ldr	r3, [r7, #4]
 800295a:	6ddb      	ldr	r3, [r3, #92]	; 0x5c
 800295c:	223f      	movs	r2, #63	; 0x3f
 800295e:	409a      	lsls	r2, r3
 8002960:	68fb      	ldr	r3, [r7, #12]
 8002962:	609a      	str	r2, [r3, #8]
    
    /* Change the DMA state*/
    hdma->State = HAL_DMA_STATE_READY;
 8002964:	687b      	ldr	r3, [r7, #4]
 8002966:	2201      	movs	r2, #1
 8002968:	f883 2035 	strb.w	r2, [r3, #53]	; 0x35
    
    /* Process Unlocked */
    __HAL_UNLOCK(hdma);
 800296c:	687b      	ldr	r3, [r7, #4]
 800296e:	2200      	movs	r2, #0
 8002970:	f883 2034 	strb.w	r2, [r3, #52]	; 0x34
  }
  return HAL_OK;
 8002974:	2300      	movs	r3, #0
}
 8002976:	4618      	mov	r0, r3
 8002978:	3710      	adds	r7, #16
 800297a:	46bd      	mov	sp, r7
 800297c:	bd80      	pop	{r7, pc}

0800297e <HAL_DMA_Abort_IT>:
  * @param  hdma   pointer to a DMA_HandleTypeDef structure that contains
  *                 the configuration information for the specified DMA Stream.
  * @retval HAL status
  */
HAL_StatusTypeDef HAL_DMA_Abort_IT(DMA_HandleTypeDef *hdma)
{
 800297e:	b480      	push	{r7}
 8002980:	b083      	sub	sp, #12
 8002982:	af00      	add	r7, sp, #0
 8002984:	6078      	str	r0, [r7, #4]
  if(hdma->State != HAL_DMA_STATE_BUSY)
 8002986:	687b      	ldr	r3, [r7, #4]
 8002988:	f893 3035 	ldrb.w	r3, [r3, #53]	; 0x35
 800298c:	b2db      	uxtb	r3, r3
 800298e:	2b02      	cmp	r3, #2
 8002990:	d004      	beq.n	800299c <HAL_DMA_Abort_IT+0x1e>
  {
    hdma->ErrorCode = HAL_DMA_ERROR_NO_XFER;
 8002992:	687b      	ldr	r3, [r7, #4]
 8002994:	2280      	movs	r2, #128	; 0x80
 8002996:	655a      	str	r2, [r3, #84]	; 0x54
    return HAL_ERROR;
 8002998:	2301      	movs	r3, #1
 800299a:	e00c      	b.n	80029b6 <HAL_DMA_Abort_IT+0x38>
  }
  else
  {
    /* Set Abort State  */
    hdma->State = HAL_DMA_STATE_ABORT;
 800299c:	687b      	ldr	r3, [r7, #4]
 800299e:	2205      	movs	r2, #5
 80029a0:	f883 2035 	strb.w	r2, [r3, #53]	; 0x35
    
    /* Disable the stream */
    __HAL_DMA_DISABLE(hdma);
 80029a4:	687b      	ldr	r3, [r7, #4]
 80029a6:	681b      	ldr	r3, [r3, #0]
 80029a8:	681a      	ldr	r2, [r3, #0]
 80029aa:	687b      	ldr	r3, [r7, #4]
 80029ac:	681b      	ldr	r3, [r3, #0]
 80029ae:	f022 0201 	bic.w	r2, r2, #1
 80029b2:	601a      	str	r2, [r3, #0]
  }

  return HAL_OK;
 80029b4:	2300      	movs	r3, #0
}
 80029b6:	4618      	mov	r0, r3
 80029b8:	370c      	adds	r7, #12
 80029ba:	46bd      	mov	sp, r7
 80029bc:	f85d 7b04 	ldr.w	r7, [sp], #4
 80029c0:	4770      	bx	lr
	...

080029c4 <HAL_GPIO_Init>:
  * @param  GPIO_Init pointer to a GPIO_InitTypeDef structure that contains
  *         the configuration information for the specified GPIO peripheral.
  * @retval None
  */
void HAL_GPIO_Init(GPIO_TypeDef  *GPIOx, GPIO_InitTypeDef *GPIO_Init)
{
 80029c4:	b480      	push	{r7}
 80029c6:	b089      	sub	sp, #36	; 0x24
 80029c8:	af00      	add	r7, sp, #0
 80029ca:	6078      	str	r0, [r7, #4]
 80029cc:	6039      	str	r1, [r7, #0]
  uint32_t position;
  uint32_t ioposition = 0x00U;
 80029ce:	2300      	movs	r3, #0
 80029d0:	617b      	str	r3, [r7, #20]
  uint32_t iocurrent = 0x00U;
 80029d2:	2300      	movs	r3, #0
 80029d4:	613b      	str	r3, [r7, #16]
  uint32_t temp = 0x00U;
 80029d6:	2300      	movs	r3, #0
 80029d8:	61bb      	str	r3, [r7, #24]
  assert_param(IS_GPIO_ALL_INSTANCE(GPIOx));
  assert_param(IS_GPIO_PIN(GPIO_Init->Pin));
  assert_param(IS_GPIO_MODE(GPIO_Init->Mode));

  /* Configure the port pins */
  for(position = 0U; position < GPIO_NUMBER; position++)
 80029da:	2300      	movs	r3, #0
 80029dc:	61fb      	str	r3, [r7, #28]
 80029de:	e177      	b.n	8002cd0 <HAL_GPIO_Init+0x30c>
  {
    /* Get the IO position */
    ioposition = 0x01U << position;
 80029e0:	2201      	movs	r2, #1
 80029e2:	69fb      	ldr	r3, [r7, #28]
 80029e4:	fa02 f303 	lsl.w	r3, r2, r3
 80029e8:	617b      	str	r3, [r7, #20]
    /* Get the current IO position */
    iocurrent = (uint32_t)(GPIO_Init->Pin) & ioposition;
 80029ea:	683b      	ldr	r3, [r7, #0]
 80029ec:	681b      	ldr	r3, [r3, #0]
 80029ee:	697a      	ldr	r2, [r7, #20]
 80029f0:	4013      	ands	r3, r2
 80029f2:	613b      	str	r3, [r7, #16]

    if(iocurrent == ioposition)
 80029f4:	693a      	ldr	r2, [r7, #16]
 80029f6:	697b      	ldr	r3, [r7, #20]
 80029f8:	429a      	cmp	r2, r3
 80029fa:	f040 8166 	bne.w	8002cca <HAL_GPIO_Init+0x306>
    {
      /*--------------------- GPIO Mode Configuration ------------------------*/
      /* In case of Output or Alternate function mode selection */
      if(((GPIO_Init->Mode & GPIO_MODE) == MODE_OUTPUT) || \
 80029fe:	683b      	ldr	r3, [r7, #0]
 8002a00:	685b      	ldr	r3, [r3, #4]
 8002a02:	f003 0303 	and.w	r3, r3, #3
 8002a06:	2b01      	cmp	r3, #1
 8002a08:	d005      	beq.n	8002a16 <HAL_GPIO_Init+0x52>
          (GPIO_Init->Mode & GPIO_MODE) == MODE_AF)
 8002a0a:	683b      	ldr	r3, [r7, #0]
 8002a0c:	685b      	ldr	r3, [r3, #4]
 8002a0e:	f003 0303 	and.w	r3, r3, #3
      if(((GPIO_Init->Mode & GPIO_MODE) == MODE_OUTPUT) || \
 8002a12:	2b02      	cmp	r3, #2
 8002a14:	d130      	bne.n	8002a78 <HAL_GPIO_Init+0xb4>
      {
        /* Check the Speed parameter */
        assert_param(IS_GPIO_SPEED(GPIO_Init->Speed));
        /* Configure the IO Speed */
        temp = GPIOx->OSPEEDR; 
 8002a16:	687b      	ldr	r3, [r7, #4]
 8002a18:	689b      	ldr	r3, [r3, #8]
 8002a1a:	61bb      	str	r3, [r7, #24]
        temp &= ~(GPIO_OSPEEDER_OSPEEDR0 << (position * 2U));
 8002a1c:	69fb      	ldr	r3, [r7, #28]
 8002a1e:	005b      	lsls	r3, r3, #1
 8002a20:	2203      	movs	r2, #3
 8002a22:	fa02 f303 	lsl.w	r3, r2, r3
 8002a26:	43db      	mvns	r3, r3
 8002a28:	69ba      	ldr	r2, [r7, #24]
 8002a2a:	4013      	ands	r3, r2
 8002a2c:	61bb      	str	r3, [r7, #24]
        temp |= (GPIO_Init->Speed << (position * 2U));
 8002a2e:	683b      	ldr	r3, [r7, #0]
 8002a30:	68da      	ldr	r2, [r3, #12]
 8002a32:	69fb      	ldr	r3, [r7, #28]
 8002a34:	005b      	lsls	r3, r3, #1
 8002a36:	fa02 f303 	lsl.w	r3, r2, r3
 8002a3a:	69ba      	ldr	r2, [r7, #24]
 8002a3c:	4313      	orrs	r3, r2
 8002a3e:	61bb      	str	r3, [r7, #24]
        GPIOx->OSPEEDR = temp;
 8002a40:	687b      	ldr	r3, [r7, #4]
 8002a42:	69ba      	ldr	r2, [r7, #24]
 8002a44:	609a      	str	r2, [r3, #8]

        /* Configure the IO Output Type */
        temp = GPIOx->OTYPER;
 8002a46:	687b      	ldr	r3, [r7, #4]
 8002a48:	685b      	ldr	r3, [r3, #4]
 8002a4a:	61bb      	str	r3, [r7, #24]
        temp &= ~(GPIO_OTYPER_OT_0 << position) ;
 8002a4c:	2201      	movs	r2, #1
 8002a4e:	69fb      	ldr	r3, [r7, #28]
 8002a50:	fa02 f303 	lsl.w	r3, r2, r3
 8002a54:	43db      	mvns	r3, r3
 8002a56:	69ba      	ldr	r2, [r7, #24]
 8002a58:	4013      	ands	r3, r2
 8002a5a:	61bb      	str	r3, [r7, #24]
        temp |= (((GPIO_Init->Mode & OUTPUT_TYPE) >> OUTPUT_TYPE_Pos) << position);
 8002a5c:	683b      	ldr	r3, [r7, #0]
 8002a5e:	685b      	ldr	r3, [r3, #4]
 8002a60:	091b      	lsrs	r3, r3, #4
 8002a62:	f003 0201 	and.w	r2, r3, #1
 8002a66:	69fb      	ldr	r3, [r7, #28]
 8002a68:	fa02 f303 	lsl.w	r3, r2, r3
 8002a6c:	69ba      	ldr	r2, [r7, #24]
 8002a6e:	4313      	orrs	r3, r2
 8002a70:	61bb      	str	r3, [r7, #24]
        GPIOx->OTYPER = temp;
 8002a72:	687b      	ldr	r3, [r7, #4]
 8002a74:	69ba      	ldr	r2, [r7, #24]
 8002a76:	605a      	str	r2, [r3, #4]
       }

      if((GPIO_Init->Mode & GPIO_MODE) != MODE_ANALOG)
 8002a78:	683b      	ldr	r3, [r7, #0]
 8002a7a:	685b      	ldr	r3, [r3, #4]
 8002a7c:	f003 0303 	and.w	r3, r3, #3
 8002a80:	2b03      	cmp	r3, #3
 8002a82:	d017      	beq.n	8002ab4 <HAL_GPIO_Init+0xf0>
      {
        /* Check the parameters */
        assert_param(IS_GPIO_PULL(GPIO_Init->Pull));
        
        /* Activate the Pull-up or Pull down resistor for the current IO */
        temp = GPIOx->PUPDR;
 8002a84:	687b      	ldr	r3, [r7, #4]
 8002a86:	68db      	ldr	r3, [r3, #12]
 8002a88:	61bb      	str	r3, [r7, #24]
        temp &= ~(GPIO_PUPDR_PUPDR0 << (position * 2U));
 8002a8a:	69fb      	ldr	r3, [r7, #28]
 8002a8c:	005b      	lsls	r3, r3, #1
 8002a8e:	2203      	movs	r2, #3
 8002a90:	fa02 f303 	lsl.w	r3, r2, r3
 8002a94:	43db      	mvns	r3, r3
 8002a96:	69ba      	ldr	r2, [r7, #24]
 8002a98:	4013      	ands	r3, r2
 8002a9a:	61bb      	str	r3, [r7, #24]
        temp |= ((GPIO_Init->Pull) << (position * 2U));
 8002a9c:	683b      	ldr	r3, [r7, #0]
 8002a9e:	689a      	ldr	r2, [r3, #8]
 8002aa0:	69fb      	ldr	r3, [r7, #28]
 8002aa2:	005b      	lsls	r3, r3, #1
 8002aa4:	fa02 f303 	lsl.w	r3, r2, r3
 8002aa8:	69ba      	ldr	r2, [r7, #24]
 8002aaa:	4313      	orrs	r3, r2
 8002aac:	61bb      	str	r3, [r7, #24]
        GPIOx->PUPDR = temp;
 8002aae:	687b      	ldr	r3, [r7, #4]
 8002ab0:	69ba      	ldr	r2, [r7, #24]
 8002ab2:	60da      	str	r2, [r3, #12]
      }

      /* In case of Alternate function mode selection */
      if((GPIO_Init->Mode & GPIO_MODE) == MODE_AF)
 8002ab4:	683b      	ldr	r3, [r7, #0]
 8002ab6:	685b      	ldr	r3, [r3, #4]
 8002ab8:	f003 0303 	and.w	r3, r3, #3
 8002abc:	2b02      	cmp	r3, #2
 8002abe:	d123      	bne.n	8002b08 <HAL_GPIO_Init+0x144>
      {
        /* Check the Alternate function parameter */
        assert_param(IS_GPIO_AF(GPIO_Init->Alternate));
        /* Configure Alternate function mapped with the current IO */
        temp = GPIOx->AFR[position >> 3U];
 8002ac0:	69fb      	ldr	r3, [r7, #28]
 8002ac2:	08da      	lsrs	r2, r3, #3
 8002ac4:	687b      	ldr	r3, [r7, #4]
 8002ac6:	3208      	adds	r2, #8
 8002ac8:	f853 3022 	ldr.w	r3, [r3, r2, lsl #2]
 8002acc:	61bb      	str	r3, [r7, #24]
        temp &= ~(0xFU << ((uint32_t)(position & 0x07U) * 4U)) ;
 8002ace:	69fb      	ldr	r3, [r7, #28]
 8002ad0:	f003 0307 	and.w	r3, r3, #7
 8002ad4:	009b      	lsls	r3, r3, #2
 8002ad6:	220f      	movs	r2, #15
 8002ad8:	fa02 f303 	lsl.w	r3, r2, r3
 8002adc:	43db      	mvns	r3, r3
 8002ade:	69ba      	ldr	r2, [r7, #24]
 8002ae0:	4013      	ands	r3, r2
 8002ae2:	61bb      	str	r3, [r7, #24]
        temp |= ((uint32_t)(GPIO_Init->Alternate) << (((uint32_t)position & 0x07U) * 4U));
 8002ae4:	683b      	ldr	r3, [r7, #0]
 8002ae6:	691a      	ldr	r2, [r3, #16]
 8002ae8:	69fb      	ldr	r3, [r7, #28]
 8002aea:	f003 0307 	and.w	r3, r3, #7
 8002aee:	009b      	lsls	r3, r3, #2
 8002af0:	fa02 f303 	lsl.w	r3, r2, r3
 8002af4:	69ba      	ldr	r2, [r7, #24]
 8002af6:	4313      	orrs	r3, r2
 8002af8:	61bb      	str	r3, [r7, #24]
        GPIOx->AFR[position >> 3U] = temp;
 8002afa:	69fb      	ldr	r3, [r7, #28]
 8002afc:	08da      	lsrs	r2, r3, #3
 8002afe:	687b      	ldr	r3, [r7, #4]
 8002b00:	3208      	adds	r2, #8
 8002b02:	69b9      	ldr	r1, [r7, #24]
 8002b04:	f843 1022 	str.w	r1, [r3, r2, lsl #2]
      }

      /* Configure IO Direction mode (Input, Output, Alternate or Analog) */
      temp = GPIOx->MODER;
 8002b08:	687b      	ldr	r3, [r7, #4]
 8002b0a:	681b      	ldr	r3, [r3, #0]
 8002b0c:	61bb      	str	r3, [r7, #24]
      temp &= ~(GPIO_MODER_MODER0 << (position * 2U));
 8002b0e:	69fb      	ldr	r3, [r7, #28]
 8002b10:	005b      	lsls	r3, r3, #1
 8002b12:	2203      	movs	r2, #3
 8002b14:	fa02 f303 	lsl.w	r3, r2, r3
 8002b18:	43db      	mvns	r3, r3
 8002b1a:	69ba      	ldr	r2, [r7, #24]
 8002b1c:	4013      	ands	r3, r2
 8002b1e:	61bb      	str	r3, [r7, #24]
      temp |= ((GPIO_Init->Mode & GPIO_MODE) << (position * 2U));
 8002b20:	683b      	ldr	r3, [r7, #0]
 8002b22:	685b      	ldr	r3, [r3, #4]
 8002b24:	f003 0203 	and.w	r2, r3, #3
 8002b28:	69fb      	ldr	r3, [r7, #28]
 8002b2a:	005b      	lsls	r3, r3, #1
 8002b2c:	fa02 f303 	lsl.w	r3, r2, r3
 8002b30:	69ba      	ldr	r2, [r7, #24]
 8002b32:	4313      	orrs	r3, r2
 8002b34:	61bb      	str	r3, [r7, #24]
      GPIOx->MODER = temp;
 8002b36:	687b      	ldr	r3, [r7, #4]
 8002b38:	69ba      	ldr	r2, [r7, #24]
 8002b3a:	601a      	str	r2, [r3, #0]

      /*--------------------- EXTI Mode Configuration ------------------------*/
      /* Configure the External Interrupt or event for the current IO */
      if((GPIO_Init->Mode & EXTI_MODE) != 0x00U)
 8002b3c:	683b      	ldr	r3, [r7, #0]
 8002b3e:	685b      	ldr	r3, [r3, #4]
 8002b40:	f403 3340 	and.w	r3, r3, #196608	; 0x30000
 8002b44:	2b00      	cmp	r3, #0
 8002b46:	f000 80c0 	beq.w	8002cca <HAL_GPIO_Init+0x306>
      {
        /* Enable SYSCFG Clock */
        __HAL_RCC_SYSCFG_CLK_ENABLE();
 8002b4a:	2300      	movs	r3, #0
 8002b4c:	60fb      	str	r3, [r7, #12]
 8002b4e:	4b66      	ldr	r3, [pc, #408]	; (8002ce8 <HAL_GPIO_Init+0x324>)
 8002b50:	6c5b      	ldr	r3, [r3, #68]	; 0x44
 8002b52:	4a65      	ldr	r2, [pc, #404]	; (8002ce8 <HAL_GPIO_Init+0x324>)
 8002b54:	f443 4380 	orr.w	r3, r3, #16384	; 0x4000
 8002b58:	6453      	str	r3, [r2, #68]	; 0x44
 8002b5a:	4b63      	ldr	r3, [pc, #396]	; (8002ce8 <HAL_GPIO_Init+0x324>)
 8002b5c:	6c5b      	ldr	r3, [r3, #68]	; 0x44
 8002b5e:	f403 4380 	and.w	r3, r3, #16384	; 0x4000
 8002b62:	60fb      	str	r3, [r7, #12]
 8002b64:	68fb      	ldr	r3, [r7, #12]

        temp = SYSCFG->EXTICR[position >> 2U];
 8002b66:	4a61      	ldr	r2, [pc, #388]	; (8002cec <HAL_GPIO_Init+0x328>)
 8002b68:	69fb      	ldr	r3, [r7, #28]
 8002b6a:	089b      	lsrs	r3, r3, #2
 8002b6c:	3302      	adds	r3, #2
 8002b6e:	f852 3023 	ldr.w	r3, [r2, r3, lsl #2]
 8002b72:	61bb      	str	r3, [r7, #24]
        temp &= ~(0x0FU << (4U * (position & 0x03U)));
 8002b74:	69fb      	ldr	r3, [r7, #28]
 8002b76:	f003 0303 	and.w	r3, r3, #3
 8002b7a:	009b      	lsls	r3, r3, #2
 8002b7c:	220f      	movs	r2, #15
 8002b7e:	fa02 f303 	lsl.w	r3, r2, r3
 8002b82:	43db      	mvns	r3, r3
 8002b84:	69ba      	ldr	r2, [r7, #24]
 8002b86:	4013      	ands	r3, r2
 8002b88:	61bb      	str	r3, [r7, #24]
        temp |= ((uint32_t)(GPIO_GET_INDEX(GPIOx)) << (4U * (position & 0x03U)));
 8002b8a:	687b      	ldr	r3, [r7, #4]
 8002b8c:	4a58      	ldr	r2, [pc, #352]	; (8002cf0 <HAL_GPIO_Init+0x32c>)
 8002b8e:	4293      	cmp	r3, r2
 8002b90:	d037      	beq.n	8002c02 <HAL_GPIO_Init+0x23e>
 8002b92:	687b      	ldr	r3, [r7, #4]
 8002b94:	4a57      	ldr	r2, [pc, #348]	; (8002cf4 <HAL_GPIO_Init+0x330>)
 8002b96:	4293      	cmp	r3, r2
 8002b98:	d031      	beq.n	8002bfe <HAL_GPIO_Init+0x23a>
 8002b9a:	687b      	ldr	r3, [r7, #4]
 8002b9c:	4a56      	ldr	r2, [pc, #344]	; (8002cf8 <HAL_GPIO_Init+0x334>)
 8002b9e:	4293      	cmp	r3, r2
 8002ba0:	d02b      	beq.n	8002bfa <HAL_GPIO_Init+0x236>
 8002ba2:	687b      	ldr	r3, [r7, #4]
 8002ba4:	4a55      	ldr	r2, [pc, #340]	; (8002cfc <HAL_GPIO_Init+0x338>)
 8002ba6:	4293      	cmp	r3, r2
 8002ba8:	d025      	beq.n	8002bf6 <HAL_GPIO_Init+0x232>
 8002baa:	687b      	ldr	r3, [r7, #4]
 8002bac:	4a54      	ldr	r2, [pc, #336]	; (8002d00 <HAL_GPIO_Init+0x33c>)
 8002bae:	4293      	cmp	r3, r2
 8002bb0:	d01f      	beq.n	8002bf2 <HAL_GPIO_Init+0x22e>
 8002bb2:	687b      	ldr	r3, [r7, #4]
 8002bb4:	4a53      	ldr	r2, [pc, #332]	; (8002d04 <HAL_GPIO_Init+0x340>)
 8002bb6:	4293      	cmp	r3, r2
 8002bb8:	d019      	beq.n	8002bee <HAL_GPIO_Init+0x22a>
 8002bba:	687b      	ldr	r3, [r7, #4]
 8002bbc:	4a52      	ldr	r2, [pc, #328]	; (8002d08 <HAL_GPIO_Init+0x344>)
 8002bbe:	4293      	cmp	r3, r2
 8002bc0:	d013      	beq.n	8002bea <HAL_GPIO_Init+0x226>
 8002bc2:	687b      	ldr	r3, [r7, #4]
 8002bc4:	4a51      	ldr	r2, [pc, #324]	; (8002d0c <HAL_GPIO_Init+0x348>)
 8002bc6:	4293      	cmp	r3, r2
 8002bc8:	d00d      	beq.n	8002be6 <HAL_GPIO_Init+0x222>
 8002bca:	687b      	ldr	r3, [r7, #4]
 8002bcc:	4a50      	ldr	r2, [pc, #320]	; (8002d10 <HAL_GPIO_Init+0x34c>)
 8002bce:	4293      	cmp	r3, r2
 8002bd0:	d007      	beq.n	8002be2 <HAL_GPIO_Init+0x21e>
 8002bd2:	687b      	ldr	r3, [r7, #4]
 8002bd4:	4a4f      	ldr	r2, [pc, #316]	; (8002d14 <HAL_GPIO_Init+0x350>)
 8002bd6:	4293      	cmp	r3, r2
 8002bd8:	d101      	bne.n	8002bde <HAL_GPIO_Init+0x21a>
 8002bda:	2309      	movs	r3, #9
 8002bdc:	e012      	b.n	8002c04 <HAL_GPIO_Init+0x240>
 8002bde:	230a      	movs	r3, #10
 8002be0:	e010      	b.n	8002c04 <HAL_GPIO_Init+0x240>
 8002be2:	2308      	movs	r3, #8
 8002be4:	e00e      	b.n	8002c04 <HAL_GPIO_Init+0x240>
 8002be6:	2307      	movs	r3, #7
 8002be8:	e00c      	b.n	8002c04 <HAL_GPIO_Init+0x240>
 8002bea:	2306      	movs	r3, #6
 8002bec:	e00a      	b.n	8002c04 <HAL_GPIO_Init+0x240>
 8002bee:	2305      	movs	r3, #5
 8002bf0:	e008      	b.n	8002c04 <HAL_GPIO_Init+0x240>
 8002bf2:	2304      	movs	r3, #4
 8002bf4:	e006      	b.n	8002c04 <HAL_GPIO_Init+0x240>
 8002bf6:	2303      	movs	r3, #3
 8002bf8:	e004      	b.n	8002c04 <HAL_GPIO_Init+0x240>
 8002bfa:	2302      	movs	r3, #2
 8002bfc:	e002      	b.n	8002c04 <HAL_GPIO_Init+0x240>
 8002bfe:	2301      	movs	r3, #1
 8002c00:	e000      	b.n	8002c04 <HAL_GPIO_Init+0x240>
 8002c02:	2300      	movs	r3, #0
 8002c04:	69fa      	ldr	r2, [r7, #28]
 8002c06:	f002 0203 	and.w	r2, r2, #3
 8002c0a:	0092      	lsls	r2, r2, #2
 8002c0c:	4093      	lsls	r3, r2
 8002c0e:	69ba      	ldr	r2, [r7, #24]
 8002c10:	4313      	orrs	r3, r2
 8002c12:	61bb      	str	r3, [r7, #24]
        SYSCFG->EXTICR[position >> 2U] = temp;
 8002c14:	4935      	ldr	r1, [pc, #212]	; (8002cec <HAL_GPIO_Init+0x328>)
 8002c16:	69fb      	ldr	r3, [r7, #28]
 8002c18:	089b      	lsrs	r3, r3, #2
 8002c1a:	3302      	adds	r3, #2
 8002c1c:	69ba      	ldr	r2, [r7, #24]
 8002c1e:	f841 2023 	str.w	r2, [r1, r3, lsl #2]

        /* Clear Rising Falling edge configuration */
        temp = EXTI->RTSR;
 8002c22:	4b3d      	ldr	r3, [pc, #244]	; (8002d18 <HAL_GPIO_Init+0x354>)
 8002c24:	689b      	ldr	r3, [r3, #8]
 8002c26:	61bb      	str	r3, [r7, #24]
        temp &= ~((uint32_t)iocurrent);
 8002c28:	693b      	ldr	r3, [r7, #16]
 8002c2a:	43db      	mvns	r3, r3
 8002c2c:	69ba      	ldr	r2, [r7, #24]
 8002c2e:	4013      	ands	r3, r2
 8002c30:	61bb      	str	r3, [r7, #24]
        if((GPIO_Init->Mode & TRIGGER_RISING) != 0x00U)
 8002c32:	683b      	ldr	r3, [r7, #0]
 8002c34:	685b      	ldr	r3, [r3, #4]
 8002c36:	f403 1380 	and.w	r3, r3, #1048576	; 0x100000
 8002c3a:	2b00      	cmp	r3, #0
 8002c3c:	d003      	beq.n	8002c46 <HAL_GPIO_Init+0x282>
        {
          temp |= iocurrent;
 8002c3e:	69ba      	ldr	r2, [r7, #24]
 8002c40:	693b      	ldr	r3, [r7, #16]
 8002c42:	4313      	orrs	r3, r2
 8002c44:	61bb      	str	r3, [r7, #24]
        }
        EXTI->RTSR = temp;
 8002c46:	4a34      	ldr	r2, [pc, #208]	; (8002d18 <HAL_GPIO_Init+0x354>)
 8002c48:	69bb      	ldr	r3, [r7, #24]
 8002c4a:	6093      	str	r3, [r2, #8]

        temp = EXTI->FTSR;
 8002c4c:	4b32      	ldr	r3, [pc, #200]	; (8002d18 <HAL_GPIO_Init+0x354>)
 8002c4e:	68db      	ldr	r3, [r3, #12]
 8002c50:	61bb      	str	r3, [r7, #24]
        temp &= ~((uint32_t)iocurrent);
 8002c52:	693b      	ldr	r3, [r7, #16]
 8002c54:	43db      	mvns	r3, r3
 8002c56:	69ba      	ldr	r2, [r7, #24]
 8002c58:	4013      	ands	r3, r2
 8002c5a:	61bb      	str	r3, [r7, #24]
        if((GPIO_Init->Mode & TRIGGER_FALLING) != 0x00U)
 8002c5c:	683b      	ldr	r3, [r7, #0]
 8002c5e:	685b      	ldr	r3, [r3, #4]
 8002c60:	f403 1300 	and.w	r3, r3, #2097152	; 0x200000
 8002c64:	2b00      	cmp	r3, #0
 8002c66:	d003      	beq.n	8002c70 <HAL_GPIO_Init+0x2ac>
        {
          temp |= iocurrent;
 8002c68:	69ba      	ldr	r2, [r7, #24]
 8002c6a:	693b      	ldr	r3, [r7, #16]
 8002c6c:	4313      	orrs	r3, r2
 8002c6e:	61bb      	str	r3, [r7, #24]
        }
        EXTI->FTSR = temp;
 8002c70:	4a29      	ldr	r2, [pc, #164]	; (8002d18 <HAL_GPIO_Init+0x354>)
 8002c72:	69bb      	ldr	r3, [r7, #24]
 8002c74:	60d3      	str	r3, [r2, #12]

        temp = EXTI->EMR;
 8002c76:	4b28      	ldr	r3, [pc, #160]	; (8002d18 <HAL_GPIO_Init+0x354>)
 8002c78:	685b      	ldr	r3, [r3, #4]
 8002c7a:	61bb      	str	r3, [r7, #24]
        temp &= ~((uint32_t)iocurrent);
 8002c7c:	693b      	ldr	r3, [r7, #16]
 8002c7e:	43db      	mvns	r3, r3
 8002c80:	69ba      	ldr	r2, [r7, #24]
 8002c82:	4013      	ands	r3, r2
 8002c84:	61bb      	str	r3, [r7, #24]
        if((GPIO_Init->Mode & EXTI_EVT) != 0x00U)
 8002c86:	683b      	ldr	r3, [r7, #0]
 8002c88:	685b      	ldr	r3, [r3, #4]
 8002c8a:	f403 3300 	and.w	r3, r3, #131072	; 0x20000
 8002c8e:	2b00      	cmp	r3, #0
 8002c90:	d003      	beq.n	8002c9a <HAL_GPIO_Init+0x2d6>
        {
          temp |= iocurrent;
 8002c92:	69ba      	ldr	r2, [r7, #24]
 8002c94:	693b      	ldr	r3, [r7, #16]
 8002c96:	4313      	orrs	r3, r2
 8002c98:	61bb      	str	r3, [r7, #24]
        }
        EXTI->EMR = temp;
 8002c9a:	4a1f      	ldr	r2, [pc, #124]	; (8002d18 <HAL_GPIO_Init+0x354>)
 8002c9c:	69bb      	ldr	r3, [r7, #24]
 8002c9e:	6053      	str	r3, [r2, #4]

        /* Clear EXTI line configuration */
        temp = EXTI->IMR;
 8002ca0:	4b1d      	ldr	r3, [pc, #116]	; (8002d18 <HAL_GPIO_Init+0x354>)
 8002ca2:	681b      	ldr	r3, [r3, #0]
 8002ca4:	61bb      	str	r3, [r7, #24]
        temp &= ~((uint32_t)iocurrent);
 8002ca6:	693b      	ldr	r3, [r7, #16]
 8002ca8:	43db      	mvns	r3, r3
 8002caa:	69ba      	ldr	r2, [r7, #24]
 8002cac:	4013      	ands	r3, r2
 8002cae:	61bb      	str	r3, [r7, #24]
        if((GPIO_Init->Mode & EXTI_IT) != 0x00U)
 8002cb0:	683b      	ldr	r3, [r7, #0]
 8002cb2:	685b      	ldr	r3, [r3, #4]
 8002cb4:	f403 3380 	and.w	r3, r3, #65536	; 0x10000
 8002cb8:	2b00      	cmp	r3, #0
 8002cba:	d003      	beq.n	8002cc4 <HAL_GPIO_Init+0x300>
        {
          temp |= iocurrent;
 8002cbc:	69ba      	ldr	r2, [r7, #24]
 8002cbe:	693b      	ldr	r3, [r7, #16]
 8002cc0:	4313      	orrs	r3, r2
 8002cc2:	61bb      	str	r3, [r7, #24]
        }
        EXTI->IMR = temp;
 8002cc4:	4a14      	ldr	r2, [pc, #80]	; (8002d18 <HAL_GPIO_Init+0x354>)
 8002cc6:	69bb      	ldr	r3, [r7, #24]
 8002cc8:	6013      	str	r3, [r2, #0]
  for(position = 0U; position < GPIO_NUMBER; position++)
 8002cca:	69fb      	ldr	r3, [r7, #28]
 8002ccc:	3301      	adds	r3, #1
 8002cce:	61fb      	str	r3, [r7, #28]
 8002cd0:	69fb      	ldr	r3, [r7, #28]
 8002cd2:	2b0f      	cmp	r3, #15
 8002cd4:	f67f ae84 	bls.w	80029e0 <HAL_GPIO_Init+0x1c>
      }
    }
  }
}
 8002cd8:	bf00      	nop
 8002cda:	bf00      	nop
 8002cdc:	3724      	adds	r7, #36	; 0x24
 8002cde:	46bd      	mov	sp, r7
 8002ce0:	f85d 7b04 	ldr.w	r7, [sp], #4
 8002ce4:	4770      	bx	lr
 8002ce6:	bf00      	nop
 8002ce8:	40023800 	.word	0x40023800
 8002cec:	40013800 	.word	0x40013800
 8002cf0:	40020000 	.word	0x40020000
 8002cf4:	40020400 	.word	0x40020400
 8002cf8:	40020800 	.word	0x40020800
 8002cfc:	40020c00 	.word	0x40020c00
 8002d00:	40021000 	.word	0x40021000
 8002d04:	40021400 	.word	0x40021400
 8002d08:	40021800 	.word	0x40021800
 8002d0c:	40021c00 	.word	0x40021c00
 8002d10:	40022000 	.word	0x40022000
 8002d14:	40022400 	.word	0x40022400
 8002d18:	40013c00 	.word	0x40013c00

08002d1c <HAL_GPIO_WritePin>:
  *            @arg GPIO_PIN_RESET: to clear the port pin
  *            @arg GPIO_PIN_SET: to set the port pin
  * @retval None
  */
void HAL_GPIO_WritePin(GPIO_TypeDef* GPIOx, uint16_t GPIO_Pin, GPIO_PinState PinState)
{
 8002d1c:	b480      	push	{r7}
 8002d1e:	b083      	sub	sp, #12
 8002d20:	af00      	add	r7, sp, #0
 8002d22:	6078      	str	r0, [r7, #4]
 8002d24:	460b      	mov	r3, r1
 8002d26:	807b      	strh	r3, [r7, #2]
 8002d28:	4613      	mov	r3, r2
 8002d2a:	707b      	strb	r3, [r7, #1]
  /* Check the parameters */
  assert_param(IS_GPIO_PIN(GPIO_Pin));
  assert_param(IS_GPIO_PIN_ACTION(PinState));

  if(PinState != GPIO_PIN_RESET)
 8002d2c:	787b      	ldrb	r3, [r7, #1]
 8002d2e:	2b00      	cmp	r3, #0
 8002d30:	d003      	beq.n	8002d3a <HAL_GPIO_WritePin+0x1e>
  {
    GPIOx->BSRR = GPIO_Pin;
 8002d32:	887a      	ldrh	r2, [r7, #2]
 8002d34:	687b      	ldr	r3, [r7, #4]
 8002d36:	619a      	str	r2, [r3, #24]
  }
  else
  {
    GPIOx->BSRR = (uint32_t)GPIO_Pin << 16U;
  }
}
 8002d38:	e003      	b.n	8002d42 <HAL_GPIO_WritePin+0x26>
    GPIOx->BSRR = (uint32_t)GPIO_Pin << 16U;
 8002d3a:	887b      	ldrh	r3, [r7, #2]
 8002d3c:	041a      	lsls	r2, r3, #16
 8002d3e:	687b      	ldr	r3, [r7, #4]
 8002d40:	619a      	str	r2, [r3, #24]
}
 8002d42:	bf00      	nop
 8002d44:	370c      	adds	r7, #12
 8002d46:	46bd      	mov	sp, r7
 8002d48:	f85d 7b04 	ldr.w	r7, [sp], #4
 8002d4c:	4770      	bx	lr

08002d4e <HAL_GPIO_TogglePin>:
  *                      x can be (A..I) to select the GPIO peripheral for STM32F40XX and STM32F427X devices.
  * @param  GPIO_Pin Specifies the pins to be toggled.
  * @retval None
  */
void HAL_GPIO_TogglePin(GPIO_TypeDef* GPIOx, uint16_t GPIO_Pin)
{
 8002d4e:	b480      	push	{r7}
 8002d50:	b085      	sub	sp, #20
 8002d52:	af00      	add	r7, sp, #0
 8002d54:	6078      	str	r0, [r7, #4]
 8002d56:	460b      	mov	r3, r1
 8002d58:	807b      	strh	r3, [r7, #2]

  /* Check the parameters */
  assert_param(IS_GPIO_PIN(GPIO_Pin));

  /* get current Output Data Register value */
  odr = GPIOx->ODR;
 8002d5a:	687b      	ldr	r3, [r7, #4]
 8002d5c:	695b      	ldr	r3, [r3, #20]
 8002d5e:	60fb      	str	r3, [r7, #12]

  /* Set selected pins that were at low level, and reset ones that were high */
  GPIOx->BSRR = ((odr & GPIO_Pin) << GPIO_NUMBER) | (~odr & GPIO_Pin);
 8002d60:	887a      	ldrh	r2, [r7, #2]
 8002d62:	68fb      	ldr	r3, [r7, #12]
 8002d64:	4013      	ands	r3, r2
 8002d66:	041a      	lsls	r2, r3, #16
 8002d68:	68fb      	ldr	r3, [r7, #12]
 8002d6a:	43d9      	mvns	r1, r3
 8002d6c:	887b      	ldrh	r3, [r7, #2]
 8002d6e:	400b      	ands	r3, r1
 8002d70:	431a      	orrs	r2, r3
 8002d72:	687b      	ldr	r3, [r7, #4]
 8002d74:	619a      	str	r2, [r3, #24]
}
 8002d76:	bf00      	nop
 8002d78:	3714      	adds	r7, #20
 8002d7a:	46bd      	mov	sp, r7
 8002d7c:	f85d 7b04 	ldr.w	r7, [sp], #4
 8002d80:	4770      	bx	lr
	...

08002d84 <HAL_I2C_Init>:
  * @param  hi2c Pointer to a I2C_HandleTypeDef structure that contains
  *                the configuration information for the specified I2C.
  * @retval HAL status
  */
HAL_StatusTypeDef HAL_I2C_Init(I2C_HandleTypeDef *hi2c)
{
 8002d84:	b580      	push	{r7, lr}
 8002d86:	b084      	sub	sp, #16
 8002d88:	af00      	add	r7, sp, #0
 8002d8a:	6078      	str	r0, [r7, #4]
  uint32_t freqrange;
  uint32_t pclk1;

  /* Check the I2C handle allocation */
  if (hi2c == NULL)
 8002d8c:	687b      	ldr	r3, [r7, #4]
 8002d8e:	2b00      	cmp	r3, #0
 8002d90:	d101      	bne.n	8002d96 <HAL_I2C_Init+0x12>
  {
    return HAL_ERROR;
 8002d92:	2301      	movs	r3, #1
 8002d94:	e12b      	b.n	8002fee <HAL_I2C_Init+0x26a>
  assert_param(IS_I2C_DUAL_ADDRESS(hi2c->Init.DualAddressMode));
  assert_param(IS_I2C_OWN_ADDRESS2(hi2c->Init.OwnAddress2));
  assert_param(IS_I2C_GENERAL_CALL(hi2c->Init.GeneralCallMode));
  assert_param(IS_I2C_NO_STRETCH(hi2c->Init.NoStretchMode));

  if (hi2c->State == HAL_I2C_STATE_RESET)
 8002d96:	687b      	ldr	r3, [r7, #4]
 8002d98:	f893 303d 	ldrb.w	r3, [r3, #61]	; 0x3d
 8002d9c:	b2db      	uxtb	r3, r3
 8002d9e:	2b00      	cmp	r3, #0
 8002da0:	d106      	bne.n	8002db0 <HAL_I2C_Init+0x2c>
  {
    /* Allocate lock resource and initialize it */
    hi2c->Lock = HAL_UNLOCKED;
 8002da2:	687b      	ldr	r3, [r7, #4]
 8002da4:	2200      	movs	r2, #0
 8002da6:	f883 203c 	strb.w	r2, [r3, #60]	; 0x3c

    /* Init the low level hardware : GPIO, CLOCK, NVIC */
    hi2c->MspInitCallback(hi2c);
#else
    /* Init the low level hardware : GPIO, CLOCK, NVIC */
    HAL_I2C_MspInit(hi2c);
 8002daa:	6878      	ldr	r0, [r7, #4]
 8002dac:	f7ff f944 	bl	8002038 <HAL_I2C_MspInit>
#endif /* USE_HAL_I2C_REGISTER_CALLBACKS */
  }

  hi2c->State = HAL_I2C_STATE_BUSY;
 8002db0:	687b      	ldr	r3, [r7, #4]
 8002db2:	2224      	movs	r2, #36	; 0x24
 8002db4:	f883 203d 	strb.w	r2, [r3, #61]	; 0x3d

  /* Disable the selected I2C peripheral */
  __HAL_I2C_DISABLE(hi2c);
 8002db8:	687b      	ldr	r3, [r7, #4]
 8002dba:	681b      	ldr	r3, [r3, #0]
 8002dbc:	681a      	ldr	r2, [r3, #0]
 8002dbe:	687b      	ldr	r3, [r7, #4]
 8002dc0:	681b      	ldr	r3, [r3, #0]
 8002dc2:	f022 0201 	bic.w	r2, r2, #1
 8002dc6:	601a      	str	r2, [r3, #0]

  /*Reset I2C*/
  hi2c->Instance->CR1 |= I2C_CR1_SWRST;
 8002dc8:	687b      	ldr	r3, [r7, #4]
 8002dca:	681b      	ldr	r3, [r3, #0]
 8002dcc:	681a      	ldr	r2, [r3, #0]
 8002dce:	687b      	ldr	r3, [r7, #4]
 8002dd0:	681b      	ldr	r3, [r3, #0]
 8002dd2:	f442 4200 	orr.w	r2, r2, #32768	; 0x8000
 8002dd6:	601a      	str	r2, [r3, #0]
  hi2c->Instance->CR1 &= ~I2C_CR1_SWRST;
 8002dd8:	687b      	ldr	r3, [r7, #4]
 8002dda:	681b      	ldr	r3, [r3, #0]
 8002ddc:	681a      	ldr	r2, [r3, #0]
 8002dde:	687b      	ldr	r3, [r7, #4]
 8002de0:	681b      	ldr	r3, [r3, #0]
 8002de2:	f422 4200 	bic.w	r2, r2, #32768	; 0x8000
 8002de6:	601a      	str	r2, [r3, #0]

  /* Get PCLK1 frequency */
  pclk1 = HAL_RCC_GetPCLK1Freq();
 8002de8:	f001 fc72 	bl	80046d0 <HAL_RCC_GetPCLK1Freq>
 8002dec:	60f8      	str	r0, [r7, #12]

  /* Check the minimum allowed PCLK1 frequency */
  if (I2C_MIN_PCLK_FREQ(pclk1, hi2c->Init.ClockSpeed) == 1U)
 8002dee:	687b      	ldr	r3, [r7, #4]
 8002df0:	685b      	ldr	r3, [r3, #4]
 8002df2:	4a81      	ldr	r2, [pc, #516]	; (8002ff8 <HAL_I2C_Init+0x274>)
 8002df4:	4293      	cmp	r3, r2
 8002df6:	d807      	bhi.n	8002e08 <HAL_I2C_Init+0x84>
 8002df8:	68fb      	ldr	r3, [r7, #12]
 8002dfa:	4a80      	ldr	r2, [pc, #512]	; (8002ffc <HAL_I2C_Init+0x278>)
 8002dfc:	4293      	cmp	r3, r2
 8002dfe:	bf94      	ite	ls
 8002e00:	2301      	movls	r3, #1
 8002e02:	2300      	movhi	r3, #0
 8002e04:	b2db      	uxtb	r3, r3
 8002e06:	e006      	b.n	8002e16 <HAL_I2C_Init+0x92>
 8002e08:	68fb      	ldr	r3, [r7, #12]
 8002e0a:	4a7d      	ldr	r2, [pc, #500]	; (8003000 <HAL_I2C_Init+0x27c>)
 8002e0c:	4293      	cmp	r3, r2
 8002e0e:	bf94      	ite	ls
 8002e10:	2301      	movls	r3, #1
 8002e12:	2300      	movhi	r3, #0
 8002e14:	b2db      	uxtb	r3, r3
 8002e16:	2b00      	cmp	r3, #0
 8002e18:	d001      	beq.n	8002e1e <HAL_I2C_Init+0x9a>
  {
    return HAL_ERROR;
 8002e1a:	2301      	movs	r3, #1
 8002e1c:	e0e7      	b.n	8002fee <HAL_I2C_Init+0x26a>
  }

  /* Calculate frequency range */
  freqrange = I2C_FREQRANGE(pclk1);
 8002e1e:	68fb      	ldr	r3, [r7, #12]
 8002e20:	4a78      	ldr	r2, [pc, #480]	; (8003004 <HAL_I2C_Init+0x280>)
 8002e22:	fba2 2303 	umull	r2, r3, r2, r3
 8002e26:	0c9b      	lsrs	r3, r3, #18
 8002e28:	60bb      	str	r3, [r7, #8]

  /*---------------------------- I2Cx CR2 Configuration ----------------------*/
  /* Configure I2Cx: Frequency range */
  MODIFY_REG(hi2c->Instance->CR2, I2C_CR2_FREQ, freqrange);
 8002e2a:	687b      	ldr	r3, [r7, #4]
 8002e2c:	681b      	ldr	r3, [r3, #0]
 8002e2e:	685b      	ldr	r3, [r3, #4]
 8002e30:	f023 013f 	bic.w	r1, r3, #63	; 0x3f
 8002e34:	687b      	ldr	r3, [r7, #4]
 8002e36:	681b      	ldr	r3, [r3, #0]
 8002e38:	68ba      	ldr	r2, [r7, #8]
 8002e3a:	430a      	orrs	r2, r1
 8002e3c:	605a      	str	r2, [r3, #4]

  /*---------------------------- I2Cx TRISE Configuration --------------------*/
  /* Configure I2Cx: Rise Time */
  MODIFY_REG(hi2c->Instance->TRISE, I2C_TRISE_TRISE, I2C_RISE_TIME(freqrange, hi2c->Init.ClockSpeed));
 8002e3e:	687b      	ldr	r3, [r7, #4]
 8002e40:	681b      	ldr	r3, [r3, #0]
 8002e42:	6a1b      	ldr	r3, [r3, #32]
 8002e44:	f023 013f 	bic.w	r1, r3, #63	; 0x3f
 8002e48:	687b      	ldr	r3, [r7, #4]
 8002e4a:	685b      	ldr	r3, [r3, #4]
 8002e4c:	4a6a      	ldr	r2, [pc, #424]	; (8002ff8 <HAL_I2C_Init+0x274>)
 8002e4e:	4293      	cmp	r3, r2
 8002e50:	d802      	bhi.n	8002e58 <HAL_I2C_Init+0xd4>
 8002e52:	68bb      	ldr	r3, [r7, #8]
 8002e54:	3301      	adds	r3, #1
 8002e56:	e009      	b.n	8002e6c <HAL_I2C_Init+0xe8>
 8002e58:	68bb      	ldr	r3, [r7, #8]
 8002e5a:	f44f 7296 	mov.w	r2, #300	; 0x12c
 8002e5e:	fb02 f303 	mul.w	r3, r2, r3
 8002e62:	4a69      	ldr	r2, [pc, #420]	; (8003008 <HAL_I2C_Init+0x284>)
 8002e64:	fba2 2303 	umull	r2, r3, r2, r3
 8002e68:	099b      	lsrs	r3, r3, #6
 8002e6a:	3301      	adds	r3, #1
 8002e6c:	687a      	ldr	r2, [r7, #4]
 8002e6e:	6812      	ldr	r2, [r2, #0]
 8002e70:	430b      	orrs	r3, r1
 8002e72:	6213      	str	r3, [r2, #32]

  /*---------------------------- I2Cx CCR Configuration ----------------------*/
  /* Configure I2Cx: Speed */
  MODIFY_REG(hi2c->Instance->CCR, (I2C_CCR_FS | I2C_CCR_DUTY | I2C_CCR_CCR), I2C_SPEED(pclk1, hi2c->Init.ClockSpeed, hi2c->Init.DutyCycle));
 8002e74:	687b      	ldr	r3, [r7, #4]
 8002e76:	681b      	ldr	r3, [r3, #0]
 8002e78:	69db      	ldr	r3, [r3, #28]
 8002e7a:	f423 424f 	bic.w	r2, r3, #52992	; 0xcf00
 8002e7e:	f022 02ff 	bic.w	r2, r2, #255	; 0xff
 8002e82:	687b      	ldr	r3, [r7, #4]
 8002e84:	685b      	ldr	r3, [r3, #4]
 8002e86:	495c      	ldr	r1, [pc, #368]	; (8002ff8 <HAL_I2C_Init+0x274>)
 8002e88:	428b      	cmp	r3, r1
 8002e8a:	d819      	bhi.n	8002ec0 <HAL_I2C_Init+0x13c>
 8002e8c:	68fb      	ldr	r3, [r7, #12]
 8002e8e:	1e59      	subs	r1, r3, #1
 8002e90:	687b      	ldr	r3, [r7, #4]
 8002e92:	685b      	ldr	r3, [r3, #4]
 8002e94:	005b      	lsls	r3, r3, #1
 8002e96:	fbb1 f3f3 	udiv	r3, r1, r3
 8002e9a:	1c59      	adds	r1, r3, #1
 8002e9c:	f640 73fc 	movw	r3, #4092	; 0xffc
 8002ea0:	400b      	ands	r3, r1
 8002ea2:	2b00      	cmp	r3, #0
 8002ea4:	d00a      	beq.n	8002ebc <HAL_I2C_Init+0x138>
 8002ea6:	68fb      	ldr	r3, [r7, #12]
 8002ea8:	1e59      	subs	r1, r3, #1
 8002eaa:	687b      	ldr	r3, [r7, #4]
 8002eac:	685b      	ldr	r3, [r3, #4]
 8002eae:	005b      	lsls	r3, r3, #1
 8002eb0:	fbb1 f3f3 	udiv	r3, r1, r3
 8002eb4:	3301      	adds	r3, #1
 8002eb6:	f3c3 030b 	ubfx	r3, r3, #0, #12
 8002eba:	e051      	b.n	8002f60 <HAL_I2C_Init+0x1dc>
 8002ebc:	2304      	movs	r3, #4
 8002ebe:	e04f      	b.n	8002f60 <HAL_I2C_Init+0x1dc>
 8002ec0:	687b      	ldr	r3, [r7, #4]
 8002ec2:	689b      	ldr	r3, [r3, #8]
 8002ec4:	2b00      	cmp	r3, #0
 8002ec6:	d111      	bne.n	8002eec <HAL_I2C_Init+0x168>
 8002ec8:	68fb      	ldr	r3, [r7, #12]
 8002eca:	1e58      	subs	r0, r3, #1
 8002ecc:	687b      	ldr	r3, [r7, #4]
 8002ece:	6859      	ldr	r1, [r3, #4]
 8002ed0:	460b      	mov	r3, r1
 8002ed2:	005b      	lsls	r3, r3, #1
 8002ed4:	440b      	add	r3, r1
 8002ed6:	fbb0 f3f3 	udiv	r3, r0, r3
 8002eda:	3301      	adds	r3, #1
 8002edc:	f3c3 030b 	ubfx	r3, r3, #0, #12
 8002ee0:	2b00      	cmp	r3, #0
 8002ee2:	bf0c      	ite	eq
 8002ee4:	2301      	moveq	r3, #1
 8002ee6:	2300      	movne	r3, #0
 8002ee8:	b2db      	uxtb	r3, r3
 8002eea:	e012      	b.n	8002f12 <HAL_I2C_Init+0x18e>
 8002eec:	68fb      	ldr	r3, [r7, #12]
 8002eee:	1e58      	subs	r0, r3, #1
 8002ef0:	687b      	ldr	r3, [r7, #4]
 8002ef2:	6859      	ldr	r1, [r3, #4]
 8002ef4:	460b      	mov	r3, r1
 8002ef6:	009b      	lsls	r3, r3, #2
 8002ef8:	440b      	add	r3, r1
 8002efa:	0099      	lsls	r1, r3, #2
 8002efc:	440b      	add	r3, r1
 8002efe:	fbb0 f3f3 	udiv	r3, r0, r3
 8002f02:	3301      	adds	r3, #1
 8002f04:	f3c3 030b 	ubfx	r3, r3, #0, #12
 8002f08:	2b00      	cmp	r3, #0
 8002f0a:	bf0c      	ite	eq
 8002f0c:	2301      	moveq	r3, #1
 8002f0e:	2300      	movne	r3, #0
 8002f10:	b2db      	uxtb	r3, r3
 8002f12:	2b00      	cmp	r3, #0
 8002f14:	d001      	beq.n	8002f1a <HAL_I2C_Init+0x196>
 8002f16:	2301      	movs	r3, #1
 8002f18:	e022      	b.n	8002f60 <HAL_I2C_Init+0x1dc>
 8002f1a:	687b      	ldr	r3, [r7, #4]
 8002f1c:	689b      	ldr	r3, [r3, #8]
 8002f1e:	2b00      	cmp	r3, #0
 8002f20:	d10e      	bne.n	8002f40 <HAL_I2C_Init+0x1bc>
 8002f22:	68fb      	ldr	r3, [r7, #12]
 8002f24:	1e58      	subs	r0, r3, #1
 8002f26:	687b      	ldr	r3, [r7, #4]
 8002f28:	6859      	ldr	r1, [r3, #4]
 8002f2a:	460b      	mov	r3, r1
 8002f2c:	005b      	lsls	r3, r3, #1
 8002f2e:	440b      	add	r3, r1
 8002f30:	fbb0 f3f3 	udiv	r3, r0, r3
 8002f34:	3301      	adds	r3, #1
 8002f36:	f3c3 030b 	ubfx	r3, r3, #0, #12
 8002f3a:	f443 4300 	orr.w	r3, r3, #32768	; 0x8000
 8002f3e:	e00f      	b.n	8002f60 <HAL_I2C_Init+0x1dc>
 8002f40:	68fb      	ldr	r3, [r7, #12]
 8002f42:	1e58      	subs	r0, r3, #1
 8002f44:	687b      	ldr	r3, [r7, #4]
 8002f46:	6859      	ldr	r1, [r3, #4]
 8002f48:	460b      	mov	r3, r1
 8002f4a:	009b      	lsls	r3, r3, #2
 8002f4c:	440b      	add	r3, r1
 8002f4e:	0099      	lsls	r1, r3, #2
 8002f50:	440b      	add	r3, r1
 8002f52:	fbb0 f3f3 	udiv	r3, r0, r3
 8002f56:	3301      	adds	r3, #1
 8002f58:	f3c3 030b 	ubfx	r3, r3, #0, #12
 8002f5c:	f443 4340 	orr.w	r3, r3, #49152	; 0xc000
 8002f60:	6879      	ldr	r1, [r7, #4]
 8002f62:	6809      	ldr	r1, [r1, #0]
 8002f64:	4313      	orrs	r3, r2
 8002f66:	61cb      	str	r3, [r1, #28]

  /*---------------------------- I2Cx CR1 Configuration ----------------------*/
  /* Configure I2Cx: Generalcall and NoStretch mode */
  MODIFY_REG(hi2c->Instance->CR1, (I2C_CR1_ENGC | I2C_CR1_NOSTRETCH), (hi2c->Init.GeneralCallMode | hi2c->Init.NoStretchMode));
 8002f68:	687b      	ldr	r3, [r7, #4]
 8002f6a:	681b      	ldr	r3, [r3, #0]
 8002f6c:	681b      	ldr	r3, [r3, #0]
 8002f6e:	f023 01c0 	bic.w	r1, r3, #192	; 0xc0
 8002f72:	687b      	ldr	r3, [r7, #4]
 8002f74:	69da      	ldr	r2, [r3, #28]
 8002f76:	687b      	ldr	r3, [r7, #4]
 8002f78:	6a1b      	ldr	r3, [r3, #32]
 8002f7a:	431a      	orrs	r2, r3
 8002f7c:	687b      	ldr	r3, [r7, #4]
 8002f7e:	681b      	ldr	r3, [r3, #0]
 8002f80:	430a      	orrs	r2, r1
 8002f82:	601a      	str	r2, [r3, #0]

  /*---------------------------- I2Cx OAR1 Configuration ---------------------*/
  /* Configure I2Cx: Own Address1 and addressing mode */
  MODIFY_REG(hi2c->Instance->OAR1, (I2C_OAR1_ADDMODE | I2C_OAR1_ADD8_9 | I2C_OAR1_ADD1_7 | I2C_OAR1_ADD0), (hi2c->Init.AddressingMode | hi2c->Init.OwnAddress1));
 8002f84:	687b      	ldr	r3, [r7, #4]
 8002f86:	681b      	ldr	r3, [r3, #0]
 8002f88:	689b      	ldr	r3, [r3, #8]
 8002f8a:	f423 4303 	bic.w	r3, r3, #33536	; 0x8300
 8002f8e:	f023 03ff 	bic.w	r3, r3, #255	; 0xff
 8002f92:	687a      	ldr	r2, [r7, #4]
 8002f94:	6911      	ldr	r1, [r2, #16]
 8002f96:	687a      	ldr	r2, [r7, #4]
 8002f98:	68d2      	ldr	r2, [r2, #12]
 8002f9a:	4311      	orrs	r1, r2
 8002f9c:	687a      	ldr	r2, [r7, #4]
 8002f9e:	6812      	ldr	r2, [r2, #0]
 8002fa0:	430b      	orrs	r3, r1
 8002fa2:	6093      	str	r3, [r2, #8]

  /*---------------------------- I2Cx OAR2 Configuration ---------------------*/
  /* Configure I2Cx: Dual mode and Own Address2 */
  MODIFY_REG(hi2c->Instance->OAR2, (I2C_OAR2_ENDUAL | I2C_OAR2_ADD2), (hi2c->Init.DualAddressMode | hi2c->Init.OwnAddress2));
 8002fa4:	687b      	ldr	r3, [r7, #4]
 8002fa6:	681b      	ldr	r3, [r3, #0]
 8002fa8:	68db      	ldr	r3, [r3, #12]
 8002faa:	f023 01ff 	bic.w	r1, r3, #255	; 0xff
 8002fae:	687b      	ldr	r3, [r7, #4]
 8002fb0:	695a      	ldr	r2, [r3, #20]
 8002fb2:	687b      	ldr	r3, [r7, #4]
 8002fb4:	699b      	ldr	r3, [r3, #24]
 8002fb6:	431a      	orrs	r2, r3
 8002fb8:	687b      	ldr	r3, [r7, #4]
 8002fba:	681b      	ldr	r3, [r3, #0]
 8002fbc:	430a      	orrs	r2, r1
 8002fbe:	60da      	str	r2, [r3, #12]

  /* Enable the selected I2C peripheral */
  __HAL_I2C_ENABLE(hi2c);
 8002fc0:	687b      	ldr	r3, [r7, #4]
 8002fc2:	681b      	ldr	r3, [r3, #0]
 8002fc4:	681a      	ldr	r2, [r3, #0]
 8002fc6:	687b      	ldr	r3, [r7, #4]
 8002fc8:	681b      	ldr	r3, [r3, #0]
 8002fca:	f042 0201 	orr.w	r2, r2, #1
 8002fce:	601a      	str	r2, [r3, #0]

  hi2c->ErrorCode = HAL_I2C_ERROR_NONE;
 8002fd0:	687b      	ldr	r3, [r7, #4]
 8002fd2:	2200      	movs	r2, #0
 8002fd4:	641a      	str	r2, [r3, #64]	; 0x40
  hi2c->State = HAL_I2C_STATE_READY;
 8002fd6:	687b      	ldr	r3, [r7, #4]
 8002fd8:	2220      	movs	r2, #32
 8002fda:	f883 203d 	strb.w	r2, [r3, #61]	; 0x3d
  hi2c->PreviousState = I2C_STATE_NONE;
 8002fde:	687b      	ldr	r3, [r7, #4]
 8002fe0:	2200      	movs	r2, #0
 8002fe2:	631a      	str	r2, [r3, #48]	; 0x30
  hi2c->Mode = HAL_I2C_MODE_NONE;
 8002fe4:	687b      	ldr	r3, [r7, #4]
 8002fe6:	2200      	movs	r2, #0
 8002fe8:	f883 203e 	strb.w	r2, [r3, #62]	; 0x3e

  return HAL_OK;
 8002fec:	2300      	movs	r3, #0
}
 8002fee:	4618      	mov	r0, r3
 8002ff0:	3710      	adds	r7, #16
 8002ff2:	46bd      	mov	sp, r7
 8002ff4:	bd80      	pop	{r7, pc}
 8002ff6:	bf00      	nop
 8002ff8:	000186a0 	.word	0x000186a0
 8002ffc:	001e847f 	.word	0x001e847f
 8003000:	003d08ff 	.word	0x003d08ff
 8003004:	431bde83 	.word	0x431bde83
 8003008:	10624dd3 	.word	0x10624dd3

0800300c <HAL_I2C_Master_Transmit>:
  * @param  Size Amount of data to be sent
  * @param  Timeout Timeout duration
  * @retval HAL status
  */
HAL_StatusTypeDef HAL_I2C_Master_Transmit(I2C_HandleTypeDef *hi2c, uint16_t DevAddress, uint8_t *pData, uint16_t Size, uint32_t Timeout)
{
 800300c:	b580      	push	{r7, lr}
 800300e:	b088      	sub	sp, #32
 8003010:	af02      	add	r7, sp, #8
 8003012:	60f8      	str	r0, [r7, #12]
 8003014:	607a      	str	r2, [r7, #4]
 8003016:	461a      	mov	r2, r3
 8003018:	460b      	mov	r3, r1
 800301a:	817b      	strh	r3, [r7, #10]
 800301c:	4613      	mov	r3, r2
 800301e:	813b      	strh	r3, [r7, #8]
  /* Init tickstart for timeout management*/
  uint32_t tickstart = HAL_GetTick();
 8003020:	f7ff fafc 	bl	800261c <HAL_GetTick>
 8003024:	6178      	str	r0, [r7, #20]

  if (hi2c->State == HAL_I2C_STATE_READY)
 8003026:	68fb      	ldr	r3, [r7, #12]
 8003028:	f893 303d 	ldrb.w	r3, [r3, #61]	; 0x3d
 800302c:	b2db      	uxtb	r3, r3
 800302e:	2b20      	cmp	r3, #32
 8003030:	f040 80e0 	bne.w	80031f4 <HAL_I2C_Master_Transmit+0x1e8>
  {
    /* Wait until BUSY flag is reset */
    if (I2C_WaitOnFlagUntilTimeout(hi2c, I2C_FLAG_BUSY, SET, I2C_TIMEOUT_BUSY_FLAG, tickstart) != HAL_OK)
 8003034:	697b      	ldr	r3, [r7, #20]
 8003036:	9300      	str	r3, [sp, #0]
 8003038:	2319      	movs	r3, #25
 800303a:	2201      	movs	r2, #1
 800303c:	4970      	ldr	r1, [pc, #448]	; (8003200 <HAL_I2C_Master_Transmit+0x1f4>)
 800303e:	68f8      	ldr	r0, [r7, #12]
 8003040:	f000 fc64 	bl	800390c <I2C_WaitOnFlagUntilTimeout>
 8003044:	4603      	mov	r3, r0
 8003046:	2b00      	cmp	r3, #0
 8003048:	d001      	beq.n	800304e <HAL_I2C_Master_Transmit+0x42>
    {
      return HAL_BUSY;
 800304a:	2302      	movs	r3, #2
 800304c:	e0d3      	b.n	80031f6 <HAL_I2C_Master_Transmit+0x1ea>
    }

    /* Process Locked */
    __HAL_LOCK(hi2c);
 800304e:	68fb      	ldr	r3, [r7, #12]
 8003050:	f893 303c 	ldrb.w	r3, [r3, #60]	; 0x3c
 8003054:	2b01      	cmp	r3, #1
 8003056:	d101      	bne.n	800305c <HAL_I2C_Master_Transmit+0x50>
 8003058:	2302      	movs	r3, #2
 800305a:	e0cc      	b.n	80031f6 <HAL_I2C_Master_Transmit+0x1ea>
 800305c:	68fb      	ldr	r3, [r7, #12]
 800305e:	2201      	movs	r2, #1
 8003060:	f883 203c 	strb.w	r2, [r3, #60]	; 0x3c

    /* Check if the I2C is already enabled */
    if ((hi2c->Instance->CR1 & I2C_CR1_PE) != I2C_CR1_PE)
 8003064:	68fb      	ldr	r3, [r7, #12]
 8003066:	681b      	ldr	r3, [r3, #0]
 8003068:	681b      	ldr	r3, [r3, #0]
 800306a:	f003 0301 	and.w	r3, r3, #1
 800306e:	2b01      	cmp	r3, #1
 8003070:	d007      	beq.n	8003082 <HAL_I2C_Master_Transmit+0x76>
    {
      /* Enable I2C peripheral */
      __HAL_I2C_ENABLE(hi2c);
 8003072:	68fb      	ldr	r3, [r7, #12]
 8003074:	681b      	ldr	r3, [r3, #0]
 8003076:	681a      	ldr	r2, [r3, #0]
 8003078:	68fb      	ldr	r3, [r7, #12]
 800307a:	681b      	ldr	r3, [r3, #0]
 800307c:	f042 0201 	orr.w	r2, r2, #1
 8003080:	601a      	str	r2, [r3, #0]
    }

    /* Disable Pos */
    CLEAR_BIT(hi2c->Instance->CR1, I2C_CR1_POS);
 8003082:	68fb      	ldr	r3, [r7, #12]
 8003084:	681b      	ldr	r3, [r3, #0]
 8003086:	681a      	ldr	r2, [r3, #0]
 8003088:	68fb      	ldr	r3, [r7, #12]
 800308a:	681b      	ldr	r3, [r3, #0]
 800308c:	f422 6200 	bic.w	r2, r2, #2048	; 0x800
 8003090:	601a      	str	r2, [r3, #0]

    hi2c->State       = HAL_I2C_STATE_BUSY_TX;
 8003092:	68fb      	ldr	r3, [r7, #12]
 8003094:	2221      	movs	r2, #33	; 0x21
 8003096:	f883 203d 	strb.w	r2, [r3, #61]	; 0x3d
    hi2c->Mode        = HAL_I2C_MODE_MASTER;
 800309a:	68fb      	ldr	r3, [r7, #12]
 800309c:	2210      	movs	r2, #16
 800309e:	f883 203e 	strb.w	r2, [r3, #62]	; 0x3e
    hi2c->ErrorCode   = HAL_I2C_ERROR_NONE;
 80030a2:	68fb      	ldr	r3, [r7, #12]
 80030a4:	2200      	movs	r2, #0
 80030a6:	641a      	str	r2, [r3, #64]	; 0x40

    /* Prepare transfer parameters */
    hi2c->pBuffPtr    = pData;
 80030a8:	68fb      	ldr	r3, [r7, #12]
 80030aa:	687a      	ldr	r2, [r7, #4]
 80030ac:	625a      	str	r2, [r3, #36]	; 0x24
    hi2c->XferCount   = Size;
 80030ae:	68fb      	ldr	r3, [r7, #12]
 80030b0:	893a      	ldrh	r2, [r7, #8]
 80030b2:	855a      	strh	r2, [r3, #42]	; 0x2a
    hi2c->XferSize    = hi2c->XferCount;
 80030b4:	68fb      	ldr	r3, [r7, #12]
 80030b6:	8d5b      	ldrh	r3, [r3, #42]	; 0x2a
 80030b8:	b29a      	uxth	r2, r3
 80030ba:	68fb      	ldr	r3, [r7, #12]
 80030bc:	851a      	strh	r2, [r3, #40]	; 0x28
    hi2c->XferOptions = I2C_NO_OPTION_FRAME;
 80030be:	68fb      	ldr	r3, [r7, #12]
 80030c0:	4a50      	ldr	r2, [pc, #320]	; (8003204 <HAL_I2C_Master_Transmit+0x1f8>)
 80030c2:	62da      	str	r2, [r3, #44]	; 0x2c

    /* Send Slave Address */
    if (I2C_MasterRequestWrite(hi2c, DevAddress, Timeout, tickstart) != HAL_OK)
 80030c4:	8979      	ldrh	r1, [r7, #10]
 80030c6:	697b      	ldr	r3, [r7, #20]
 80030c8:	6a3a      	ldr	r2, [r7, #32]
 80030ca:	68f8      	ldr	r0, [r7, #12]
 80030cc:	f000 face 	bl	800366c <I2C_MasterRequestWrite>
 80030d0:	4603      	mov	r3, r0
 80030d2:	2b00      	cmp	r3, #0
 80030d4:	d001      	beq.n	80030da <HAL_I2C_Master_Transmit+0xce>
    {
      return HAL_ERROR;
 80030d6:	2301      	movs	r3, #1
 80030d8:	e08d      	b.n	80031f6 <HAL_I2C_Master_Transmit+0x1ea>
    }

    /* Clear ADDR flag */
    __HAL_I2C_CLEAR_ADDRFLAG(hi2c);
 80030da:	2300      	movs	r3, #0
 80030dc:	613b      	str	r3, [r7, #16]
 80030de:	68fb      	ldr	r3, [r7, #12]
 80030e0:	681b      	ldr	r3, [r3, #0]
 80030e2:	695b      	ldr	r3, [r3, #20]
 80030e4:	613b      	str	r3, [r7, #16]
 80030e6:	68fb      	ldr	r3, [r7, #12]
 80030e8:	681b      	ldr	r3, [r3, #0]
 80030ea:	699b      	ldr	r3, [r3, #24]
 80030ec:	613b      	str	r3, [r7, #16]
 80030ee:	693b      	ldr	r3, [r7, #16]

    while (hi2c->XferSize > 0U)
 80030f0:	e066      	b.n	80031c0 <HAL_I2C_Master_Transmit+0x1b4>
    {
      /* Wait until TXE flag is set */
      if (I2C_WaitOnTXEFlagUntilTimeout(hi2c, Timeout, tickstart) != HAL_OK)
 80030f2:	697a      	ldr	r2, [r7, #20]
 80030f4:	6a39      	ldr	r1, [r7, #32]
 80030f6:	68f8      	ldr	r0, [r7, #12]
 80030f8:	f000 fd22 	bl	8003b40 <I2C_WaitOnTXEFlagUntilTimeout>
 80030fc:	4603      	mov	r3, r0
 80030fe:	2b00      	cmp	r3, #0
 8003100:	d00d      	beq.n	800311e <HAL_I2C_Master_Transmit+0x112>
      {
        if (hi2c->ErrorCode == HAL_I2C_ERROR_AF)
 8003102:	68fb      	ldr	r3, [r7, #12]
 8003104:	6c1b      	ldr	r3, [r3, #64]	; 0x40
 8003106:	2b04      	cmp	r3, #4
 8003108:	d107      	bne.n	800311a <HAL_I2C_Master_Transmit+0x10e>
        {
          /* Generate Stop */
          SET_BIT(hi2c->Instance->CR1, I2C_CR1_STOP);
 800310a:	68fb      	ldr	r3, [r7, #12]
 800310c:	681b      	ldr	r3, [r3, #0]
 800310e:	681a      	ldr	r2, [r3, #0]
 8003110:	68fb      	ldr	r3, [r7, #12]
 8003112:	681b      	ldr	r3, [r3, #0]
 8003114:	f442 7200 	orr.w	r2, r2, #512	; 0x200
 8003118:	601a      	str	r2, [r3, #0]
        }
        return HAL_ERROR;
 800311a:	2301      	movs	r3, #1
 800311c:	e06b      	b.n	80031f6 <HAL_I2C_Master_Transmit+0x1ea>
      }

      /* Write data to DR */
      hi2c->Instance->DR = *hi2c->pBuffPtr;
 800311e:	68fb      	ldr	r3, [r7, #12]
 8003120:	6a5b      	ldr	r3, [r3, #36]	; 0x24
 8003122:	781a      	ldrb	r2, [r3, #0]
 8003124:	68fb      	ldr	r3, [r7, #12]
 8003126:	681b      	ldr	r3, [r3, #0]
 8003128:	611a      	str	r2, [r3, #16]

      /* Increment Buffer pointer */
      hi2c->pBuffPtr++;
 800312a:	68fb      	ldr	r3, [r7, #12]
 800312c:	6a5b      	ldr	r3, [r3, #36]	; 0x24
 800312e:	1c5a      	adds	r2, r3, #1
 8003130:	68fb      	ldr	r3, [r7, #12]
 8003132:	625a      	str	r2, [r3, #36]	; 0x24

      /* Update counter */
      hi2c->XferCount--;
 8003134:	68fb      	ldr	r3, [r7, #12]
 8003136:	8d5b      	ldrh	r3, [r3, #42]	; 0x2a
 8003138:	b29b      	uxth	r3, r3
 800313a:	3b01      	subs	r3, #1
 800313c:	b29a      	uxth	r2, r3
 800313e:	68fb      	ldr	r3, [r7, #12]
 8003140:	855a      	strh	r2, [r3, #42]	; 0x2a
      hi2c->XferSize--;
 8003142:	68fb      	ldr	r3, [r7, #12]
 8003144:	8d1b      	ldrh	r3, [r3, #40]	; 0x28
 8003146:	3b01      	subs	r3, #1
 8003148:	b29a      	uxth	r2, r3
 800314a:	68fb      	ldr	r3, [r7, #12]
 800314c:	851a      	strh	r2, [r3, #40]	; 0x28

      if ((__HAL_I2C_GET_FLAG(hi2c, I2C_FLAG_BTF) == SET) && (hi2c->XferSize != 0U))
 800314e:	68fb      	ldr	r3, [r7, #12]
 8003150:	681b      	ldr	r3, [r3, #0]
 8003152:	695b      	ldr	r3, [r3, #20]
 8003154:	f003 0304 	and.w	r3, r3, #4
 8003158:	2b04      	cmp	r3, #4
 800315a:	d11b      	bne.n	8003194 <HAL_I2C_Master_Transmit+0x188>
 800315c:	68fb      	ldr	r3, [r7, #12]
 800315e:	8d1b      	ldrh	r3, [r3, #40]	; 0x28
 8003160:	2b00      	cmp	r3, #0
 8003162:	d017      	beq.n	8003194 <HAL_I2C_Master_Transmit+0x188>
      {
        /* Write data to DR */
        hi2c->Instance->DR = *hi2c->pBuffPtr;
 8003164:	68fb      	ldr	r3, [r7, #12]
 8003166:	6a5b      	ldr	r3, [r3, #36]	; 0x24
 8003168:	781a      	ldrb	r2, [r3, #0]
 800316a:	68fb      	ldr	r3, [r7, #12]
 800316c:	681b      	ldr	r3, [r3, #0]
 800316e:	611a      	str	r2, [r3, #16]

        /* Increment Buffer pointer */
        hi2c->pBuffPtr++;
 8003170:	68fb      	ldr	r3, [r7, #12]
 8003172:	6a5b      	ldr	r3, [r3, #36]	; 0x24
 8003174:	1c5a      	adds	r2, r3, #1
 8003176:	68fb      	ldr	r3, [r7, #12]
 8003178:	625a      	str	r2, [r3, #36]	; 0x24

        /* Update counter */
        hi2c->XferCount--;
 800317a:	68fb      	ldr	r3, [r7, #12]
 800317c:	8d5b      	ldrh	r3, [r3, #42]	; 0x2a
 800317e:	b29b      	uxth	r3, r3
 8003180:	3b01      	subs	r3, #1
 8003182:	b29a      	uxth	r2, r3
 8003184:	68fb      	ldr	r3, [r7, #12]
 8003186:	855a      	strh	r2, [r3, #42]	; 0x2a
        hi2c->XferSize--;
 8003188:	68fb      	ldr	r3, [r7, #12]
 800318a:	8d1b      	ldrh	r3, [r3, #40]	; 0x28
 800318c:	3b01      	subs	r3, #1
 800318e:	b29a      	uxth	r2, r3
 8003190:	68fb      	ldr	r3, [r7, #12]
 8003192:	851a      	strh	r2, [r3, #40]	; 0x28
      }

      /* Wait until BTF flag is set */
      if (I2C_WaitOnBTFFlagUntilTimeout(hi2c, Timeout, tickstart) != HAL_OK)
 8003194:	697a      	ldr	r2, [r7, #20]
 8003196:	6a39      	ldr	r1, [r7, #32]
 8003198:	68f8      	ldr	r0, [r7, #12]
 800319a:	f000 fd19 	bl	8003bd0 <I2C_WaitOnBTFFlagUntilTimeout>
 800319e:	4603      	mov	r3, r0
 80031a0:	2b00      	cmp	r3, #0
 80031a2:	d00d      	beq.n	80031c0 <HAL_I2C_Master_Transmit+0x1b4>
      {
        if (hi2c->ErrorCode == HAL_I2C_ERROR_AF)
 80031a4:	68fb      	ldr	r3, [r7, #12]
 80031a6:	6c1b      	ldr	r3, [r3, #64]	; 0x40
 80031a8:	2b04      	cmp	r3, #4
 80031aa:	d107      	bne.n	80031bc <HAL_I2C_Master_Transmit+0x1b0>
        {
          /* Generate Stop */
          SET_BIT(hi2c->Instance->CR1, I2C_CR1_STOP);
 80031ac:	68fb      	ldr	r3, [r7, #12]
 80031ae:	681b      	ldr	r3, [r3, #0]
 80031b0:	681a      	ldr	r2, [r3, #0]
 80031b2:	68fb      	ldr	r3, [r7, #12]
 80031b4:	681b      	ldr	r3, [r3, #0]
 80031b6:	f442 7200 	orr.w	r2, r2, #512	; 0x200
 80031ba:	601a      	str	r2, [r3, #0]
        }
        return HAL_ERROR;
 80031bc:	2301      	movs	r3, #1
 80031be:	e01a      	b.n	80031f6 <HAL_I2C_Master_Transmit+0x1ea>
    while (hi2c->XferSize > 0U)
 80031c0:	68fb      	ldr	r3, [r7, #12]
 80031c2:	8d1b      	ldrh	r3, [r3, #40]	; 0x28
 80031c4:	2b00      	cmp	r3, #0
 80031c6:	d194      	bne.n	80030f2 <HAL_I2C_Master_Transmit+0xe6>
      }
    }

    /* Generate Stop */
    SET_BIT(hi2c->Instance->CR1, I2C_CR1_STOP);
 80031c8:	68fb      	ldr	r3, [r7, #12]
 80031ca:	681b      	ldr	r3, [r3, #0]
 80031cc:	681a      	ldr	r2, [r3, #0]
 80031ce:	68fb      	ldr	r3, [r7, #12]
 80031d0:	681b      	ldr	r3, [r3, #0]
 80031d2:	f442 7200 	orr.w	r2, r2, #512	; 0x200
 80031d6:	601a      	str	r2, [r3, #0]

    hi2c->State = HAL_I2C_STATE_READY;
 80031d8:	68fb      	ldr	r3, [r7, #12]
 80031da:	2220      	movs	r2, #32
 80031dc:	f883 203d 	strb.w	r2, [r3, #61]	; 0x3d
    hi2c->Mode = HAL_I2C_MODE_NONE;
 80031e0:	68fb      	ldr	r3, [r7, #12]
 80031e2:	2200      	movs	r2, #0
 80031e4:	f883 203e 	strb.w	r2, [r3, #62]	; 0x3e

    /* Process Unlocked */
    __HAL_UNLOCK(hi2c);
 80031e8:	68fb      	ldr	r3, [r7, #12]
 80031ea:	2200      	movs	r2, #0
 80031ec:	f883 203c 	strb.w	r2, [r3, #60]	; 0x3c

    return HAL_OK;
 80031f0:	2300      	movs	r3, #0
 80031f2:	e000      	b.n	80031f6 <HAL_I2C_Master_Transmit+0x1ea>
  }
  else
  {
    return HAL_BUSY;
 80031f4:	2302      	movs	r3, #2
  }
}
 80031f6:	4618      	mov	r0, r3
 80031f8:	3718      	adds	r7, #24
 80031fa:	46bd      	mov	sp, r7
 80031fc:	bd80      	pop	{r7, pc}
 80031fe:	bf00      	nop
 8003200:	00100002 	.word	0x00100002
 8003204:	ffff0000 	.word	0xffff0000

08003208 <HAL_I2C_Master_Receive>:
  * @param  Size Amount of data to be sent
  * @param  Timeout Timeout duration
  * @retval HAL status
  */
HAL_StatusTypeDef HAL_I2C_Master_Receive(I2C_HandleTypeDef *hi2c, uint16_t DevAddress, uint8_t *pData, uint16_t Size, uint32_t Timeout)
{
 8003208:	b580      	push	{r7, lr}
 800320a:	b08c      	sub	sp, #48	; 0x30
 800320c:	af02      	add	r7, sp, #8
 800320e:	60f8      	str	r0, [r7, #12]
 8003210:	607a      	str	r2, [r7, #4]
 8003212:	461a      	mov	r2, r3
 8003214:	460b      	mov	r3, r1
 8003216:	817b      	strh	r3, [r7, #10]
 8003218:	4613      	mov	r3, r2
 800321a:	813b      	strh	r3, [r7, #8]
  /* Init tickstart for timeout management*/
  uint32_t tickstart = HAL_GetTick();
 800321c:	f7ff f9fe 	bl	800261c <HAL_GetTick>
 8003220:	6278      	str	r0, [r7, #36]	; 0x24

  if (hi2c->State == HAL_I2C_STATE_READY)
 8003222:	68fb      	ldr	r3, [r7, #12]
 8003224:	f893 303d 	ldrb.w	r3, [r3, #61]	; 0x3d
 8003228:	b2db      	uxtb	r3, r3
 800322a:	2b20      	cmp	r3, #32
 800322c:	f040 8217 	bne.w	800365e <HAL_I2C_Master_Receive+0x456>
  {
    /* Wait until BUSY flag is reset */
    if (I2C_WaitOnFlagUntilTimeout(hi2c, I2C_FLAG_BUSY, SET, I2C_TIMEOUT_BUSY_FLAG, tickstart) != HAL_OK)
 8003230:	6a7b      	ldr	r3, [r7, #36]	; 0x24
 8003232:	9300      	str	r3, [sp, #0]
 8003234:	2319      	movs	r3, #25
 8003236:	2201      	movs	r2, #1
 8003238:	497c      	ldr	r1, [pc, #496]	; (800342c <HAL_I2C_Master_Receive+0x224>)
 800323a:	68f8      	ldr	r0, [r7, #12]
 800323c:	f000 fb66 	bl	800390c <I2C_WaitOnFlagUntilTimeout>
 8003240:	4603      	mov	r3, r0
 8003242:	2b00      	cmp	r3, #0
 8003244:	d001      	beq.n	800324a <HAL_I2C_Master_Receive+0x42>
    {
      return HAL_BUSY;
 8003246:	2302      	movs	r3, #2
 8003248:	e20a      	b.n	8003660 <HAL_I2C_Master_Receive+0x458>
    }

    /* Process Locked */
    __HAL_LOCK(hi2c);
 800324a:	68fb      	ldr	r3, [r7, #12]
 800324c:	f893 303c 	ldrb.w	r3, [r3, #60]	; 0x3c
 8003250:	2b01      	cmp	r3, #1
 8003252:	d101      	bne.n	8003258 <HAL_I2C_Master_Receive+0x50>
 8003254:	2302      	movs	r3, #2
 8003256:	e203      	b.n	8003660 <HAL_I2C_Master_Receive+0x458>
 8003258:	68fb      	ldr	r3, [r7, #12]
 800325a:	2201      	movs	r2, #1
 800325c:	f883 203c 	strb.w	r2, [r3, #60]	; 0x3c

    /* Check if the I2C is already enabled */
    if ((hi2c->Instance->CR1 & I2C_CR1_PE) != I2C_CR1_PE)
 8003260:	68fb      	ldr	r3, [r7, #12]
 8003262:	681b      	ldr	r3, [r3, #0]
 8003264:	681b      	ldr	r3, [r3, #0]
 8003266:	f003 0301 	and.w	r3, r3, #1
 800326a:	2b01      	cmp	r3, #1
 800326c:	d007      	beq.n	800327e <HAL_I2C_Master_Receive+0x76>
    {
      /* Enable I2C peripheral */
      __HAL_I2C_ENABLE(hi2c);
 800326e:	68fb      	ldr	r3, [r7, #12]
 8003270:	681b      	ldr	r3, [r3, #0]
 8003272:	681a      	ldr	r2, [r3, #0]
 8003274:	68fb      	ldr	r3, [r7, #12]
 8003276:	681b      	ldr	r3, [r3, #0]
 8003278:	f042 0201 	orr.w	r2, r2, #1
 800327c:	601a      	str	r2, [r3, #0]
    }

    /* Disable Pos */
    CLEAR_BIT(hi2c->Instance->CR1, I2C_CR1_POS);
 800327e:	68fb      	ldr	r3, [r7, #12]
 8003280:	681b      	ldr	r3, [r3, #0]
 8003282:	681a      	ldr	r2, [r3, #0]
 8003284:	68fb      	ldr	r3, [r7, #12]
 8003286:	681b      	ldr	r3, [r3, #0]
 8003288:	f422 6200 	bic.w	r2, r2, #2048	; 0x800
 800328c:	601a      	str	r2, [r3, #0]

    hi2c->State       = HAL_I2C_STATE_BUSY_RX;
 800328e:	68fb      	ldr	r3, [r7, #12]
 8003290:	2222      	movs	r2, #34	; 0x22
 8003292:	f883 203d 	strb.w	r2, [r3, #61]	; 0x3d
    hi2c->Mode        = HAL_I2C_MODE_MASTER;
 8003296:	68fb      	ldr	r3, [r7, #12]
 8003298:	2210      	movs	r2, #16
 800329a:	f883 203e 	strb.w	r2, [r3, #62]	; 0x3e
    hi2c->ErrorCode   = HAL_I2C_ERROR_NONE;
 800329e:	68fb      	ldr	r3, [r7, #12]
 80032a0:	2200      	movs	r2, #0
 80032a2:	641a      	str	r2, [r3, #64]	; 0x40

    /* Prepare transfer parameters */
    hi2c->pBuffPtr    = pData;
 80032a4:	68fb      	ldr	r3, [r7, #12]
 80032a6:	687a      	ldr	r2, [r7, #4]
 80032a8:	625a      	str	r2, [r3, #36]	; 0x24
    hi2c->XferCount   = Size;
 80032aa:	68fb      	ldr	r3, [r7, #12]
 80032ac:	893a      	ldrh	r2, [r7, #8]
 80032ae:	855a      	strh	r2, [r3, #42]	; 0x2a
    hi2c->XferSize    = hi2c->XferCount;
 80032b0:	68fb      	ldr	r3, [r7, #12]
 80032b2:	8d5b      	ldrh	r3, [r3, #42]	; 0x2a
 80032b4:	b29a      	uxth	r2, r3
 80032b6:	68fb      	ldr	r3, [r7, #12]
 80032b8:	851a      	strh	r2, [r3, #40]	; 0x28
    hi2c->XferOptions = I2C_NO_OPTION_FRAME;
 80032ba:	68fb      	ldr	r3, [r7, #12]
 80032bc:	4a5c      	ldr	r2, [pc, #368]	; (8003430 <HAL_I2C_Master_Receive+0x228>)
 80032be:	62da      	str	r2, [r3, #44]	; 0x2c

    /* Send Slave Address */
    if (I2C_MasterRequestRead(hi2c, DevAddress, Timeout, tickstart) != HAL_OK)
 80032c0:	8979      	ldrh	r1, [r7, #10]
 80032c2:	6a7b      	ldr	r3, [r7, #36]	; 0x24
 80032c4:	6b3a      	ldr	r2, [r7, #48]	; 0x30
 80032c6:	68f8      	ldr	r0, [r7, #12]
 80032c8:	f000 fa52 	bl	8003770 <I2C_MasterRequestRead>
 80032cc:	4603      	mov	r3, r0
 80032ce:	2b00      	cmp	r3, #0
 80032d0:	d001      	beq.n	80032d6 <HAL_I2C_Master_Receive+0xce>
    {
      return HAL_ERROR;
 80032d2:	2301      	movs	r3, #1
 80032d4:	e1c4      	b.n	8003660 <HAL_I2C_Master_Receive+0x458>
    }

    if (hi2c->XferSize == 0U)
 80032d6:	68fb      	ldr	r3, [r7, #12]
 80032d8:	8d1b      	ldrh	r3, [r3, #40]	; 0x28
 80032da:	2b00      	cmp	r3, #0
 80032dc:	d113      	bne.n	8003306 <HAL_I2C_Master_Receive+0xfe>
    {
      /* Clear ADDR flag */
      __HAL_I2C_CLEAR_ADDRFLAG(hi2c);
 80032de:	2300      	movs	r3, #0
 80032e0:	623b      	str	r3, [r7, #32]
 80032e2:	68fb      	ldr	r3, [r7, #12]
 80032e4:	681b      	ldr	r3, [r3, #0]
 80032e6:	695b      	ldr	r3, [r3, #20]
 80032e8:	623b      	str	r3, [r7, #32]
 80032ea:	68fb      	ldr	r3, [r7, #12]
 80032ec:	681b      	ldr	r3, [r3, #0]
 80032ee:	699b      	ldr	r3, [r3, #24]
 80032f0:	623b      	str	r3, [r7, #32]
 80032f2:	6a3b      	ldr	r3, [r7, #32]

      /* Generate Stop */
      SET_BIT(hi2c->Instance->CR1, I2C_CR1_STOP);
 80032f4:	68fb      	ldr	r3, [r7, #12]
 80032f6:	681b      	ldr	r3, [r3, #0]
 80032f8:	681a      	ldr	r2, [r3, #0]
 80032fa:	68fb      	ldr	r3, [r7, #12]
 80032fc:	681b      	ldr	r3, [r3, #0]
 80032fe:	f442 7200 	orr.w	r2, r2, #512	; 0x200
 8003302:	601a      	str	r2, [r3, #0]
 8003304:	e198      	b.n	8003638 <HAL_I2C_Master_Receive+0x430>
    }
    else if (hi2c->XferSize == 1U)
 8003306:	68fb      	ldr	r3, [r7, #12]
 8003308:	8d1b      	ldrh	r3, [r3, #40]	; 0x28
 800330a:	2b01      	cmp	r3, #1
 800330c:	d11b      	bne.n	8003346 <HAL_I2C_Master_Receive+0x13e>
    {
      /* Disable Acknowledge */
      CLEAR_BIT(hi2c->Instance->CR1, I2C_CR1_ACK);
 800330e:	68fb      	ldr	r3, [r7, #12]
 8003310:	681b      	ldr	r3, [r3, #0]
 8003312:	681a      	ldr	r2, [r3, #0]
 8003314:	68fb      	ldr	r3, [r7, #12]
 8003316:	681b      	ldr	r3, [r3, #0]
 8003318:	f422 6280 	bic.w	r2, r2, #1024	; 0x400
 800331c:	601a      	str	r2, [r3, #0]

      /* Clear ADDR flag */
      __HAL_I2C_CLEAR_ADDRFLAG(hi2c);
 800331e:	2300      	movs	r3, #0
 8003320:	61fb      	str	r3, [r7, #28]
 8003322:	68fb      	ldr	r3, [r7, #12]
 8003324:	681b      	ldr	r3, [r3, #0]
 8003326:	695b      	ldr	r3, [r3, #20]
 8003328:	61fb      	str	r3, [r7, #28]
 800332a:	68fb      	ldr	r3, [r7, #12]
 800332c:	681b      	ldr	r3, [r3, #0]
 800332e:	699b      	ldr	r3, [r3, #24]
 8003330:	61fb      	str	r3, [r7, #28]
 8003332:	69fb      	ldr	r3, [r7, #28]

      /* Generate Stop */
      SET_BIT(hi2c->Instance->CR1, I2C_CR1_STOP);
 8003334:	68fb      	ldr	r3, [r7, #12]
 8003336:	681b      	ldr	r3, [r3, #0]
 8003338:	681a      	ldr	r2, [r3, #0]
 800333a:	68fb      	ldr	r3, [r7, #12]
 800333c:	681b      	ldr	r3, [r3, #0]
 800333e:	f442 7200 	orr.w	r2, r2, #512	; 0x200
 8003342:	601a      	str	r2, [r3, #0]
 8003344:	e178      	b.n	8003638 <HAL_I2C_Master_Receive+0x430>
    }
    else if (hi2c->XferSize == 2U)
 8003346:	68fb      	ldr	r3, [r7, #12]
 8003348:	8d1b      	ldrh	r3, [r3, #40]	; 0x28
 800334a:	2b02      	cmp	r3, #2
 800334c:	d11b      	bne.n	8003386 <HAL_I2C_Master_Receive+0x17e>
    {
      /* Disable Acknowledge */
      CLEAR_BIT(hi2c->Instance->CR1, I2C_CR1_ACK);
 800334e:	68fb      	ldr	r3, [r7, #12]
 8003350:	681b      	ldr	r3, [r3, #0]
 8003352:	681a      	ldr	r2, [r3, #0]
 8003354:	68fb      	ldr	r3, [r7, #12]
 8003356:	681b      	ldr	r3, [r3, #0]
 8003358:	f422 6280 	bic.w	r2, r2, #1024	; 0x400
 800335c:	601a      	str	r2, [r3, #0]

      /* Enable Pos */
      SET_BIT(hi2c->Instance->CR1, I2C_CR1_POS);
 800335e:	68fb      	ldr	r3, [r7, #12]
 8003360:	681b      	ldr	r3, [r3, #0]
 8003362:	681a      	ldr	r2, [r3, #0]
 8003364:	68fb      	ldr	r3, [r7, #12]
 8003366:	681b      	ldr	r3, [r3, #0]
 8003368:	f442 6200 	orr.w	r2, r2, #2048	; 0x800
 800336c:	601a      	str	r2, [r3, #0]

      /* Clear ADDR flag */
      __HAL_I2C_CLEAR_ADDRFLAG(hi2c);
 800336e:	2300      	movs	r3, #0
 8003370:	61bb      	str	r3, [r7, #24]
 8003372:	68fb      	ldr	r3, [r7, #12]
 8003374:	681b      	ldr	r3, [r3, #0]
 8003376:	695b      	ldr	r3, [r3, #20]
 8003378:	61bb      	str	r3, [r7, #24]
 800337a:	68fb      	ldr	r3, [r7, #12]
 800337c:	681b      	ldr	r3, [r3, #0]
 800337e:	699b      	ldr	r3, [r3, #24]
 8003380:	61bb      	str	r3, [r7, #24]
 8003382:	69bb      	ldr	r3, [r7, #24]
 8003384:	e158      	b.n	8003638 <HAL_I2C_Master_Receive+0x430>
    }
    else
    {
      /* Enable Acknowledge */
      SET_BIT(hi2c->Instance->CR1, I2C_CR1_ACK);
 8003386:	68fb      	ldr	r3, [r7, #12]
 8003388:	681b      	ldr	r3, [r3, #0]
 800338a:	681a      	ldr	r2, [r3, #0]
 800338c:	68fb      	ldr	r3, [r7, #12]
 800338e:	681b      	ldr	r3, [r3, #0]
 8003390:	f442 6280 	orr.w	r2, r2, #1024	; 0x400
 8003394:	601a      	str	r2, [r3, #0]

      /* Clear ADDR flag */
      __HAL_I2C_CLEAR_ADDRFLAG(hi2c);
 8003396:	2300      	movs	r3, #0
 8003398:	617b      	str	r3, [r7, #20]
 800339a:	68fb      	ldr	r3, [r7, #12]
 800339c:	681b      	ldr	r3, [r3, #0]
 800339e:	695b      	ldr	r3, [r3, #20]
 80033a0:	617b      	str	r3, [r7, #20]
 80033a2:	68fb      	ldr	r3, [r7, #12]
 80033a4:	681b      	ldr	r3, [r3, #0]
 80033a6:	699b      	ldr	r3, [r3, #24]
 80033a8:	617b      	str	r3, [r7, #20]
 80033aa:	697b      	ldr	r3, [r7, #20]
    }

    while (hi2c->XferSize > 0U)
 80033ac:	e144      	b.n	8003638 <HAL_I2C_Master_Receive+0x430>
    {
      if (hi2c->XferSize <= 3U)
 80033ae:	68fb      	ldr	r3, [r7, #12]
 80033b0:	8d1b      	ldrh	r3, [r3, #40]	; 0x28
 80033b2:	2b03      	cmp	r3, #3
 80033b4:	f200 80f1 	bhi.w	800359a <HAL_I2C_Master_Receive+0x392>
      {
        /* One byte */
        if (hi2c->XferSize == 1U)
 80033b8:	68fb      	ldr	r3, [r7, #12]
 80033ba:	8d1b      	ldrh	r3, [r3, #40]	; 0x28
 80033bc:	2b01      	cmp	r3, #1
 80033be:	d123      	bne.n	8003408 <HAL_I2C_Master_Receive+0x200>
        {
          /* Wait until RXNE flag is set */
          if (I2C_WaitOnRXNEFlagUntilTimeout(hi2c, Timeout, tickstart) != HAL_OK)
 80033c0:	6a7a      	ldr	r2, [r7, #36]	; 0x24
 80033c2:	6b39      	ldr	r1, [r7, #48]	; 0x30
 80033c4:	68f8      	ldr	r0, [r7, #12]
 80033c6:	f000 fc4b 	bl	8003c60 <I2C_WaitOnRXNEFlagUntilTimeout>
 80033ca:	4603      	mov	r3, r0
 80033cc:	2b00      	cmp	r3, #0
 80033ce:	d001      	beq.n	80033d4 <HAL_I2C_Master_Receive+0x1cc>
          {
            return HAL_ERROR;
 80033d0:	2301      	movs	r3, #1
 80033d2:	e145      	b.n	8003660 <HAL_I2C_Master_Receive+0x458>
          }

          /* Read data from DR */
          *hi2c->pBuffPtr = (uint8_t)hi2c->Instance->DR;
 80033d4:	68fb      	ldr	r3, [r7, #12]
 80033d6:	681b      	ldr	r3, [r3, #0]
 80033d8:	691a      	ldr	r2, [r3, #16]
 80033da:	68fb      	ldr	r3, [r7, #12]
 80033dc:	6a5b      	ldr	r3, [r3, #36]	; 0x24
 80033de:	b2d2      	uxtb	r2, r2
 80033e0:	701a      	strb	r2, [r3, #0]

          /* Increment Buffer pointer */
          hi2c->pBuffPtr++;
 80033e2:	68fb      	ldr	r3, [r7, #12]
 80033e4:	6a5b      	ldr	r3, [r3, #36]	; 0x24
 80033e6:	1c5a      	adds	r2, r3, #1
 80033e8:	68fb      	ldr	r3, [r7, #12]
 80033ea:	625a      	str	r2, [r3, #36]	; 0x24

          /* Update counter */
          hi2c->XferSize--;
 80033ec:	68fb      	ldr	r3, [r7, #12]
 80033ee:	8d1b      	ldrh	r3, [r3, #40]	; 0x28
 80033f0:	3b01      	subs	r3, #1
 80033f2:	b29a      	uxth	r2, r3
 80033f4:	68fb      	ldr	r3, [r7, #12]
 80033f6:	851a      	strh	r2, [r3, #40]	; 0x28
          hi2c->XferCount--;
 80033f8:	68fb      	ldr	r3, [r7, #12]
 80033fa:	8d5b      	ldrh	r3, [r3, #42]	; 0x2a
 80033fc:	b29b      	uxth	r3, r3
 80033fe:	3b01      	subs	r3, #1
 8003400:	b29a      	uxth	r2, r3
 8003402:	68fb      	ldr	r3, [r7, #12]
 8003404:	855a      	strh	r2, [r3, #42]	; 0x2a
 8003406:	e117      	b.n	8003638 <HAL_I2C_Master_Receive+0x430>
        }
        /* Two bytes */
        else if (hi2c->XferSize == 2U)
 8003408:	68fb      	ldr	r3, [r7, #12]
 800340a:	8d1b      	ldrh	r3, [r3, #40]	; 0x28
 800340c:	2b02      	cmp	r3, #2
 800340e:	d14e      	bne.n	80034ae <HAL_I2C_Master_Receive+0x2a6>
        {
          /* Wait until BTF flag is set */
          if (I2C_WaitOnFlagUntilTimeout(hi2c, I2C_FLAG_BTF, RESET, Timeout, tickstart) != HAL_OK)
 8003410:	6a7b      	ldr	r3, [r7, #36]	; 0x24
 8003412:	9300      	str	r3, [sp, #0]
 8003414:	6b3b      	ldr	r3, [r7, #48]	; 0x30
 8003416:	2200      	movs	r2, #0
 8003418:	4906      	ldr	r1, [pc, #24]	; (8003434 <HAL_I2C_Master_Receive+0x22c>)
 800341a:	68f8      	ldr	r0, [r7, #12]
 800341c:	f000 fa76 	bl	800390c <I2C_WaitOnFlagUntilTimeout>
 8003420:	4603      	mov	r3, r0
 8003422:	2b00      	cmp	r3, #0
 8003424:	d008      	beq.n	8003438 <HAL_I2C_Master_Receive+0x230>
          {
            return HAL_ERROR;
 8003426:	2301      	movs	r3, #1
 8003428:	e11a      	b.n	8003660 <HAL_I2C_Master_Receive+0x458>
 800342a:	bf00      	nop
 800342c:	00100002 	.word	0x00100002
 8003430:	ffff0000 	.word	0xffff0000
 8003434:	00010004 	.word	0x00010004
          }

          /* Generate Stop */
          SET_BIT(hi2c->Instance->CR1, I2C_CR1_STOP);
 8003438:	68fb      	ldr	r3, [r7, #12]
 800343a:	681b      	ldr	r3, [r3, #0]
 800343c:	681a      	ldr	r2, [r3, #0]
 800343e:	68fb      	ldr	r3, [r7, #12]
 8003440:	681b      	ldr	r3, [r3, #0]
 8003442:	f442 7200 	orr.w	r2, r2, #512	; 0x200
 8003446:	601a      	str	r2, [r3, #0]

          /* Read data from DR */
          *hi2c->pBuffPtr = (uint8_t)hi2c->Instance->DR;
 8003448:	68fb      	ldr	r3, [r7, #12]
 800344a:	681b      	ldr	r3, [r3, #0]
 800344c:	691a      	ldr	r2, [r3, #16]
 800344e:	68fb      	ldr	r3, [r7, #12]
 8003450:	6a5b      	ldr	r3, [r3, #36]	; 0x24
 8003452:	b2d2      	uxtb	r2, r2
 8003454:	701a      	strb	r2, [r3, #0]

          /* Increment Buffer pointer */
          hi2c->pBuffPtr++;
 8003456:	68fb      	ldr	r3, [r7, #12]
 8003458:	6a5b      	ldr	r3, [r3, #36]	; 0x24
 800345a:	1c5a      	adds	r2, r3, #1
 800345c:	68fb      	ldr	r3, [r7, #12]
 800345e:	625a      	str	r2, [r3, #36]	; 0x24

          /* Update counter */
          hi2c->XferSize--;
 8003460:	68fb      	ldr	r3, [r7, #12]
 8003462:	8d1b      	ldrh	r3, [r3, #40]	; 0x28
 8003464:	3b01      	subs	r3, #1
 8003466:	b29a      	uxth	r2, r3
 8003468:	68fb      	ldr	r3, [r7, #12]
 800346a:	851a      	strh	r2, [r3, #40]	; 0x28
          hi2c->XferCount--;
 800346c:	68fb      	ldr	r3, [r7, #12]
 800346e:	8d5b      	ldrh	r3, [r3, #42]	; 0x2a
 8003470:	b29b      	uxth	r3, r3
 8003472:	3b01      	subs	r3, #1
 8003474:	b29a      	uxth	r2, r3
 8003476:	68fb      	ldr	r3, [r7, #12]
 8003478:	855a      	strh	r2, [r3, #42]	; 0x2a

          /* Read data from DR */
          *hi2c->pBuffPtr = (uint8_t)hi2c->Instance->DR;
 800347a:	68fb      	ldr	r3, [r7, #12]
 800347c:	681b      	ldr	r3, [r3, #0]
 800347e:	691a      	ldr	r2, [r3, #16]
 8003480:	68fb      	ldr	r3, [r7, #12]
 8003482:	6a5b      	ldr	r3, [r3, #36]	; 0x24
 8003484:	b2d2      	uxtb	r2, r2
 8003486:	701a      	strb	r2, [r3, #0]

          /* Increment Buffer pointer */
          hi2c->pBuffPtr++;
 8003488:	68fb      	ldr	r3, [r7, #12]
 800348a:	6a5b      	ldr	r3, [r3, #36]	; 0x24
 800348c:	1c5a      	adds	r2, r3, #1
 800348e:	68fb      	ldr	r3, [r7, #12]
 8003490:	625a      	str	r2, [r3, #36]	; 0x24

          /* Update counter */
          hi2c->XferSize--;
 8003492:	68fb      	ldr	r3, [r7, #12]
 8003494:	8d1b      	ldrh	r3, [r3, #40]	; 0x28
 8003496:	3b01      	subs	r3, #1
 8003498:	b29a      	uxth	r2, r3
 800349a:	68fb      	ldr	r3, [r7, #12]
 800349c:	851a      	strh	r2, [r3, #40]	; 0x28
          hi2c->XferCount--;
 800349e:	68fb      	ldr	r3, [r7, #12]
 80034a0:	8d5b      	ldrh	r3, [r3, #42]	; 0x2a
 80034a2:	b29b      	uxth	r3, r3
 80034a4:	3b01      	subs	r3, #1
 80034a6:	b29a      	uxth	r2, r3
 80034a8:	68fb      	ldr	r3, [r7, #12]
 80034aa:	855a      	strh	r2, [r3, #42]	; 0x2a
 80034ac:	e0c4      	b.n	8003638 <HAL_I2C_Master_Receive+0x430>
        }
        /* 3 Last bytes */
        else
        {
          /* Wait until BTF flag is set */
          if (I2C_WaitOnFlagUntilTimeout(hi2c, I2C_FLAG_BTF, RESET, Timeout, tickstart) != HAL_OK)
 80034ae:	6a7b      	ldr	r3, [r7, #36]	; 0x24
 80034b0:	9300      	str	r3, [sp, #0]
 80034b2:	6b3b      	ldr	r3, [r7, #48]	; 0x30
 80034b4:	2200      	movs	r2, #0
 80034b6:	496c      	ldr	r1, [pc, #432]	; (8003668 <HAL_I2C_Master_Receive+0x460>)
 80034b8:	68f8      	ldr	r0, [r7, #12]
 80034ba:	f000 fa27 	bl	800390c <I2C_WaitOnFlagUntilTimeout>
 80034be:	4603      	mov	r3, r0
 80034c0:	2b00      	cmp	r3, #0
 80034c2:	d001      	beq.n	80034c8 <HAL_I2C_Master_Receive+0x2c0>
          {
            return HAL_ERROR;
 80034c4:	2301      	movs	r3, #1
 80034c6:	e0cb      	b.n	8003660 <HAL_I2C_Master_Receive+0x458>
          }

          /* Disable Acknowledge */
          CLEAR_BIT(hi2c->Instance->CR1, I2C_CR1_ACK);
 80034c8:	68fb      	ldr	r3, [r7, #12]
 80034ca:	681b      	ldr	r3, [r3, #0]
 80034cc:	681a      	ldr	r2, [r3, #0]
 80034ce:	68fb      	ldr	r3, [r7, #12]
 80034d0:	681b      	ldr	r3, [r3, #0]
 80034d2:	f422 6280 	bic.w	r2, r2, #1024	; 0x400
 80034d6:	601a      	str	r2, [r3, #0]

          /* Read data from DR */
          *hi2c->pBuffPtr = (uint8_t)hi2c->Instance->DR;
 80034d8:	68fb      	ldr	r3, [r7, #12]
 80034da:	681b      	ldr	r3, [r3, #0]
 80034dc:	691a      	ldr	r2, [r3, #16]
 80034de:	68fb      	ldr	r3, [r7, #12]
 80034e0:	6a5b      	ldr	r3, [r3, #36]	; 0x24
 80034e2:	b2d2      	uxtb	r2, r2
 80034e4:	701a      	strb	r2, [r3, #0]

          /* Increment Buffer pointer */
          hi2c->pBuffPtr++;
 80034e6:	68fb      	ldr	r3, [r7, #12]
 80034e8:	6a5b      	ldr	r3, [r3, #36]	; 0x24
 80034ea:	1c5a      	adds	r2, r3, #1
 80034ec:	68fb      	ldr	r3, [r7, #12]
 80034ee:	625a      	str	r2, [r3, #36]	; 0x24

          /* Update counter */
          hi2c->XferSize--;
 80034f0:	68fb      	ldr	r3, [r7, #12]
 80034f2:	8d1b      	ldrh	r3, [r3, #40]	; 0x28
 80034f4:	3b01      	subs	r3, #1
 80034f6:	b29a      	uxth	r2, r3
 80034f8:	68fb      	ldr	r3, [r7, #12]
 80034fa:	851a      	strh	r2, [r3, #40]	; 0x28
          hi2c->XferCount--;
 80034fc:	68fb      	ldr	r3, [r7, #12]
 80034fe:	8d5b      	ldrh	r3, [r3, #42]	; 0x2a
 8003500:	b29b      	uxth	r3, r3
 8003502:	3b01      	subs	r3, #1
 8003504:	b29a      	uxth	r2, r3
 8003506:	68fb      	ldr	r3, [r7, #12]
 8003508:	855a      	strh	r2, [r3, #42]	; 0x2a

          /* Wait until BTF flag is set */
          if (I2C_WaitOnFlagUntilTimeout(hi2c, I2C_FLAG_BTF, RESET, Timeout, tickstart) != HAL_OK)
 800350a:	6a7b      	ldr	r3, [r7, #36]	; 0x24
 800350c:	9300      	str	r3, [sp, #0]
 800350e:	6b3b      	ldr	r3, [r7, #48]	; 0x30
 8003510:	2200      	movs	r2, #0
 8003512:	4955      	ldr	r1, [pc, #340]	; (8003668 <HAL_I2C_Master_Receive+0x460>)
 8003514:	68f8      	ldr	r0, [r7, #12]
 8003516:	f000 f9f9 	bl	800390c <I2C_WaitOnFlagUntilTimeout>
 800351a:	4603      	mov	r3, r0
 800351c:	2b00      	cmp	r3, #0
 800351e:	d001      	beq.n	8003524 <HAL_I2C_Master_Receive+0x31c>
          {
            return HAL_ERROR;
 8003520:	2301      	movs	r3, #1
 8003522:	e09d      	b.n	8003660 <HAL_I2C_Master_Receive+0x458>
          }

          /* Generate Stop */
          SET_BIT(hi2c->Instance->CR1, I2C_CR1_STOP);
 8003524:	68fb      	ldr	r3, [r7, #12]
 8003526:	681b      	ldr	r3, [r3, #0]
 8003528:	681a      	ldr	r2, [r3, #0]
 800352a:	68fb      	ldr	r3, [r7, #12]
 800352c:	681b      	ldr	r3, [r3, #0]
 800352e:	f442 7200 	orr.w	r2, r2, #512	; 0x200
 8003532:	601a      	str	r2, [r3, #0]

          /* Read data from DR */
          *hi2c->pBuffPtr = (uint8_t)hi2c->Instance->DR;
 8003534:	68fb      	ldr	r3, [r7, #12]
 8003536:	681b      	ldr	r3, [r3, #0]
 8003538:	691a      	ldr	r2, [r3, #16]
 800353a:	68fb      	ldr	r3, [r7, #12]
 800353c:	6a5b      	ldr	r3, [r3, #36]	; 0x24
 800353e:	b2d2      	uxtb	r2, r2
 8003540:	701a      	strb	r2, [r3, #0]

          /* Increment Buffer pointer */
          hi2c->pBuffPtr++;
 8003542:	68fb      	ldr	r3, [r7, #12]
 8003544:	6a5b      	ldr	r3, [r3, #36]	; 0x24
 8003546:	1c5a      	adds	r2, r3, #1
 8003548:	68fb      	ldr	r3, [r7, #12]
 800354a:	625a      	str	r2, [r3, #36]	; 0x24

          /* Update counter */
          hi2c->XferSize--;
 800354c:	68fb      	ldr	r3, [r7, #12]
 800354e:	8d1b      	ldrh	r3, [r3, #40]	; 0x28
 8003550:	3b01      	subs	r3, #1
 8003552:	b29a      	uxth	r2, r3
 8003554:	68fb      	ldr	r3, [r7, #12]
 8003556:	851a      	strh	r2, [r3, #40]	; 0x28
          hi2c->XferCount--;
 8003558:	68fb      	ldr	r3, [r7, #12]
 800355a:	8d5b      	ldrh	r3, [r3, #42]	; 0x2a
 800355c:	b29b      	uxth	r3, r3
 800355e:	3b01      	subs	r3, #1
 8003560:	b29a      	uxth	r2, r3
 8003562:	68fb      	ldr	r3, [r7, #12]
 8003564:	855a      	strh	r2, [r3, #42]	; 0x2a

          /* Read data from DR */
          *hi2c->pBuffPtr = (uint8_t)hi2c->Instance->DR;
 8003566:	68fb      	ldr	r3, [r7, #12]
 8003568:	681b      	ldr	r3, [r3, #0]
 800356a:	691a      	ldr	r2, [r3, #16]
 800356c:	68fb      	ldr	r3, [r7, #12]
 800356e:	6a5b      	ldr	r3, [r3, #36]	; 0x24
 8003570:	b2d2      	uxtb	r2, r2
 8003572:	701a      	strb	r2, [r3, #0]

          /* Increment Buffer pointer */
          hi2c->pBuffPtr++;
 8003574:	68fb      	ldr	r3, [r7, #12]
 8003576:	6a5b      	ldr	r3, [r3, #36]	; 0x24
 8003578:	1c5a      	adds	r2, r3, #1
 800357a:	68fb      	ldr	r3, [r7, #12]
 800357c:	625a      	str	r2, [r3, #36]	; 0x24

          /* Update counter */
          hi2c->XferSize--;
 800357e:	68fb      	ldr	r3, [r7, #12]
 8003580:	8d1b      	ldrh	r3, [r3, #40]	; 0x28
 8003582:	3b01      	subs	r3, #1
 8003584:	b29a      	uxth	r2, r3
 8003586:	68fb      	ldr	r3, [r7, #12]
 8003588:	851a      	strh	r2, [r3, #40]	; 0x28
          hi2c->XferCount--;
 800358a:	68fb      	ldr	r3, [r7, #12]
 800358c:	8d5b      	ldrh	r3, [r3, #42]	; 0x2a
 800358e:	b29b      	uxth	r3, r3
 8003590:	3b01      	subs	r3, #1
 8003592:	b29a      	uxth	r2, r3
 8003594:	68fb      	ldr	r3, [r7, #12]
 8003596:	855a      	strh	r2, [r3, #42]	; 0x2a
 8003598:	e04e      	b.n	8003638 <HAL_I2C_Master_Receive+0x430>
        }
      }
      else
      {
        /* Wait until RXNE flag is set */
        if (I2C_WaitOnRXNEFlagUntilTimeout(hi2c, Timeout, tickstart) != HAL_OK)
 800359a:	6a7a      	ldr	r2, [r7, #36]	; 0x24
 800359c:	6b39      	ldr	r1, [r7, #48]	; 0x30
 800359e:	68f8      	ldr	r0, [r7, #12]
 80035a0:	f000 fb5e 	bl	8003c60 <I2C_WaitOnRXNEFlagUntilTimeout>
 80035a4:	4603      	mov	r3, r0
 80035a6:	2b00      	cmp	r3, #0
 80035a8:	d001      	beq.n	80035ae <HAL_I2C_Master_Receive+0x3a6>
        {
          return HAL_ERROR;
 80035aa:	2301      	movs	r3, #1
 80035ac:	e058      	b.n	8003660 <HAL_I2C_Master_Receive+0x458>
        }

        /* Read data from DR */
        *hi2c->pBuffPtr = (uint8_t)hi2c->Instance->DR;
 80035ae:	68fb      	ldr	r3, [r7, #12]
 80035b0:	681b      	ldr	r3, [r3, #0]
 80035b2:	691a      	ldr	r2, [r3, #16]
 80035b4:	68fb      	ldr	r3, [r7, #12]
 80035b6:	6a5b      	ldr	r3, [r3, #36]	; 0x24
 80035b8:	b2d2      	uxtb	r2, r2
 80035ba:	701a      	strb	r2, [r3, #0]

        /* Increment Buffer pointer */
        hi2c->pBuffPtr++;
 80035bc:	68fb      	ldr	r3, [r7, #12]
 80035be:	6a5b      	ldr	r3, [r3, #36]	; 0x24
 80035c0:	1c5a      	adds	r2, r3, #1
 80035c2:	68fb      	ldr	r3, [r7, #12]
 80035c4:	625a      	str	r2, [r3, #36]	; 0x24

        /* Update counter */
        hi2c->XferSize--;
 80035c6:	68fb      	ldr	r3, [r7, #12]
 80035c8:	8d1b      	ldrh	r3, [r3, #40]	; 0x28
 80035ca:	3b01      	subs	r3, #1
 80035cc:	b29a      	uxth	r2, r3
 80035ce:	68fb      	ldr	r3, [r7, #12]
 80035d0:	851a      	strh	r2, [r3, #40]	; 0x28
        hi2c->XferCount--;
 80035d2:	68fb      	ldr	r3, [r7, #12]
 80035d4:	8d5b      	ldrh	r3, [r3, #42]	; 0x2a
 80035d6:	b29b      	uxth	r3, r3
 80035d8:	3b01      	subs	r3, #1
 80035da:	b29a      	uxth	r2, r3
 80035dc:	68fb      	ldr	r3, [r7, #12]
 80035de:	855a      	strh	r2, [r3, #42]	; 0x2a

        if (__HAL_I2C_GET_FLAG(hi2c, I2C_FLAG_BTF) == SET)
 80035e0:	68fb      	ldr	r3, [r7, #12]
 80035e2:	681b      	ldr	r3, [r3, #0]
 80035e4:	695b      	ldr	r3, [r3, #20]
 80035e6:	f003 0304 	and.w	r3, r3, #4
 80035ea:	2b04      	cmp	r3, #4
 80035ec:	d124      	bne.n	8003638 <HAL_I2C_Master_Receive+0x430>
        {

          if (hi2c->XferSize == 3U)
 80035ee:	68fb      	ldr	r3, [r7, #12]
 80035f0:	8d1b      	ldrh	r3, [r3, #40]	; 0x28
 80035f2:	2b03      	cmp	r3, #3
 80035f4:	d107      	bne.n	8003606 <HAL_I2C_Master_Receive+0x3fe>
          {
            /* Disable Acknowledge */
            CLEAR_BIT(hi2c->Instance->CR1, I2C_CR1_ACK);
 80035f6:	68fb      	ldr	r3, [r7, #12]
 80035f8:	681b      	ldr	r3, [r3, #0]
 80035fa:	681a      	ldr	r2, [r3, #0]
 80035fc:	68fb      	ldr	r3, [r7, #12]
 80035fe:	681b      	ldr	r3, [r3, #0]
 8003600:	f422 6280 	bic.w	r2, r2, #1024	; 0x400
 8003604:	601a      	str	r2, [r3, #0]
          }

          /* Read data from DR */
          *hi2c->pBuffPtr = (uint8_t)hi2c->Instance->DR;
 8003606:	68fb      	ldr	r3, [r7, #12]
 8003608:	681b      	ldr	r3, [r3, #0]
 800360a:	691a      	ldr	r2, [r3, #16]
 800360c:	68fb      	ldr	r3, [r7, #12]
 800360e:	6a5b      	ldr	r3, [r3, #36]	; 0x24
 8003610:	b2d2      	uxtb	r2, r2
 8003612:	701a      	strb	r2, [r3, #0]

          /* Increment Buffer pointer */
          hi2c->pBuffPtr++;
 8003614:	68fb      	ldr	r3, [r7, #12]
 8003616:	6a5b      	ldr	r3, [r3, #36]	; 0x24
 8003618:	1c5a      	adds	r2, r3, #1
 800361a:	68fb      	ldr	r3, [r7, #12]
 800361c:	625a      	str	r2, [r3, #36]	; 0x24

          /* Update counter */
          hi2c->XferSize--;
 800361e:	68fb      	ldr	r3, [r7, #12]
 8003620:	8d1b      	ldrh	r3, [r3, #40]	; 0x28
 8003622:	3b01      	subs	r3, #1
 8003624:	b29a      	uxth	r2, r3
 8003626:	68fb      	ldr	r3, [r7, #12]
 8003628:	851a      	strh	r2, [r3, #40]	; 0x28
          hi2c->XferCount--;
 800362a:	68fb      	ldr	r3, [r7, #12]
 800362c:	8d5b      	ldrh	r3, [r3, #42]	; 0x2a
 800362e:	b29b      	uxth	r3, r3
 8003630:	3b01      	subs	r3, #1
 8003632:	b29a      	uxth	r2, r3
 8003634:	68fb      	ldr	r3, [r7, #12]
 8003636:	855a      	strh	r2, [r3, #42]	; 0x2a
    while (hi2c->XferSize > 0U)
 8003638:	68fb      	ldr	r3, [r7, #12]
 800363a:	8d1b      	ldrh	r3, [r3, #40]	; 0x28
 800363c:	2b00      	cmp	r3, #0
 800363e:	f47f aeb6 	bne.w	80033ae <HAL_I2C_Master_Receive+0x1a6>
        }
      }
    }

    hi2c->State = HAL_I2C_STATE_READY;
 8003642:	68fb      	ldr	r3, [r7, #12]
 8003644:	2220      	movs	r2, #32
 8003646:	f883 203d 	strb.w	r2, [r3, #61]	; 0x3d
    hi2c->Mode = HAL_I2C_MODE_NONE;
 800364a:	68fb      	ldr	r3, [r7, #12]
 800364c:	2200      	movs	r2, #0
 800364e:	f883 203e 	strb.w	r2, [r3, #62]	; 0x3e

    /* Process Unlocked */
    __HAL_UNLOCK(hi2c);
 8003652:	68fb      	ldr	r3, [r7, #12]
 8003654:	2200      	movs	r2, #0
 8003656:	f883 203c 	strb.w	r2, [r3, #60]	; 0x3c

    return HAL_OK;
 800365a:	2300      	movs	r3, #0
 800365c:	e000      	b.n	8003660 <HAL_I2C_Master_Receive+0x458>
  }
  else
  {
    return HAL_BUSY;
 800365e:	2302      	movs	r3, #2
  }
}
 8003660:	4618      	mov	r0, r3
 8003662:	3728      	adds	r7, #40	; 0x28
 8003664:	46bd      	mov	sp, r7
 8003666:	bd80      	pop	{r7, pc}
 8003668:	00010004 	.word	0x00010004

0800366c <I2C_MasterRequestWrite>:
  * @param  Timeout Timeout duration
  * @param  Tickstart Tick start value
  * @retval HAL status
  */
static HAL_StatusTypeDef I2C_MasterRequestWrite(I2C_HandleTypeDef *hi2c, uint16_t DevAddress, uint32_t Timeout, uint32_t Tickstart)
{
 800366c:	b580      	push	{r7, lr}
 800366e:	b088      	sub	sp, #32
 8003670:	af02      	add	r7, sp, #8
 8003672:	60f8      	str	r0, [r7, #12]
 8003674:	607a      	str	r2, [r7, #4]
 8003676:	603b      	str	r3, [r7, #0]
 8003678:	460b      	mov	r3, r1
 800367a:	817b      	strh	r3, [r7, #10]
  /* Declaration of temporary variable to prevent undefined behavior of volatile usage */
  uint32_t CurrentXferOptions = hi2c->XferOptions;
 800367c:	68fb      	ldr	r3, [r7, #12]
 800367e:	6adb      	ldr	r3, [r3, #44]	; 0x2c
 8003680:	617b      	str	r3, [r7, #20]

  /* Generate Start condition if first transfer */
  if ((CurrentXferOptions == I2C_FIRST_AND_LAST_FRAME) || (CurrentXferOptions == I2C_FIRST_FRAME) || (CurrentXferOptions == I2C_NO_OPTION_FRAME))
 8003682:	697b      	ldr	r3, [r7, #20]
 8003684:	2b08      	cmp	r3, #8
 8003686:	d006      	beq.n	8003696 <I2C_MasterRequestWrite+0x2a>
 8003688:	697b      	ldr	r3, [r7, #20]
 800368a:	2b01      	cmp	r3, #1
 800368c:	d003      	beq.n	8003696 <I2C_MasterRequestWrite+0x2a>
 800368e:	697b      	ldr	r3, [r7, #20]
 8003690:	f513 3f80 	cmn.w	r3, #65536	; 0x10000
 8003694:	d108      	bne.n	80036a8 <I2C_MasterRequestWrite+0x3c>
  {
    /* Generate Start */
    SET_BIT(hi2c->Instance->CR1, I2C_CR1_START);
 8003696:	68fb      	ldr	r3, [r7, #12]
 8003698:	681b      	ldr	r3, [r3, #0]
 800369a:	681a      	ldr	r2, [r3, #0]
 800369c:	68fb      	ldr	r3, [r7, #12]
 800369e:	681b      	ldr	r3, [r3, #0]
 80036a0:	f442 7280 	orr.w	r2, r2, #256	; 0x100
 80036a4:	601a      	str	r2, [r3, #0]
 80036a6:	e00b      	b.n	80036c0 <I2C_MasterRequestWrite+0x54>
  }
  else if (hi2c->PreviousState == I2C_STATE_MASTER_BUSY_RX)
 80036a8:	68fb      	ldr	r3, [r7, #12]
 80036aa:	6b1b      	ldr	r3, [r3, #48]	; 0x30
 80036ac:	2b12      	cmp	r3, #18
 80036ae:	d107      	bne.n	80036c0 <I2C_MasterRequestWrite+0x54>
  {
    /* Generate ReStart */
    SET_BIT(hi2c->Instance->CR1, I2C_CR1_START);
 80036b0:	68fb      	ldr	r3, [r7, #12]
 80036b2:	681b      	ldr	r3, [r3, #0]
 80036b4:	681a      	ldr	r2, [r3, #0]
 80036b6:	68fb      	ldr	r3, [r7, #12]
 80036b8:	681b      	ldr	r3, [r3, #0]
 80036ba:	f442 7280 	orr.w	r2, r2, #256	; 0x100
 80036be:	601a      	str	r2, [r3, #0]
  {
    /* Do nothing */
  }

  /* Wait until SB flag is set */
  if (I2C_WaitOnFlagUntilTimeout(hi2c, I2C_FLAG_SB, RESET, Timeout, Tickstart) != HAL_OK)
 80036c0:	683b      	ldr	r3, [r7, #0]
 80036c2:	9300      	str	r3, [sp, #0]
 80036c4:	687b      	ldr	r3, [r7, #4]
 80036c6:	2200      	movs	r2, #0
 80036c8:	f04f 1101 	mov.w	r1, #65537	; 0x10001
 80036cc:	68f8      	ldr	r0, [r7, #12]
 80036ce:	f000 f91d 	bl	800390c <I2C_WaitOnFlagUntilTimeout>
 80036d2:	4603      	mov	r3, r0
 80036d4:	2b00      	cmp	r3, #0
 80036d6:	d00d      	beq.n	80036f4 <I2C_MasterRequestWrite+0x88>
  {
    if (READ_BIT(hi2c->Instance->CR1, I2C_CR1_START) == I2C_CR1_START)
 80036d8:	68fb      	ldr	r3, [r7, #12]
 80036da:	681b      	ldr	r3, [r3, #0]
 80036dc:	681b      	ldr	r3, [r3, #0]
 80036de:	f403 7380 	and.w	r3, r3, #256	; 0x100
 80036e2:	f5b3 7f80 	cmp.w	r3, #256	; 0x100
 80036e6:	d103      	bne.n	80036f0 <I2C_MasterRequestWrite+0x84>
    {
      hi2c->ErrorCode = HAL_I2C_WRONG_START;
 80036e8:	68fb      	ldr	r3, [r7, #12]
 80036ea:	f44f 7200 	mov.w	r2, #512	; 0x200
 80036ee:	641a      	str	r2, [r3, #64]	; 0x40
    }
    return HAL_TIMEOUT;
 80036f0:	2303      	movs	r3, #3
 80036f2:	e035      	b.n	8003760 <I2C_MasterRequestWrite+0xf4>
  }

  if (hi2c->Init.AddressingMode == I2C_ADDRESSINGMODE_7BIT)
 80036f4:	68fb      	ldr	r3, [r7, #12]
 80036f6:	691b      	ldr	r3, [r3, #16]
 80036f8:	f5b3 4f80 	cmp.w	r3, #16384	; 0x4000
 80036fc:	d108      	bne.n	8003710 <I2C_MasterRequestWrite+0xa4>
  {
    /* Send slave address */
    hi2c->Instance->DR = I2C_7BIT_ADD_WRITE(DevAddress);
 80036fe:	897b      	ldrh	r3, [r7, #10]
 8003700:	b2db      	uxtb	r3, r3
 8003702:	461a      	mov	r2, r3
 8003704:	68fb      	ldr	r3, [r7, #12]
 8003706:	681b      	ldr	r3, [r3, #0]
 8003708:	f002 02fe 	and.w	r2, r2, #254	; 0xfe
 800370c:	611a      	str	r2, [r3, #16]
 800370e:	e01b      	b.n	8003748 <I2C_MasterRequestWrite+0xdc>
  }
  else
  {
    /* Send header of slave address */
    hi2c->Instance->DR = I2C_10BIT_HEADER_WRITE(DevAddress);
 8003710:	897b      	ldrh	r3, [r7, #10]
 8003712:	11db      	asrs	r3, r3, #7
 8003714:	b2db      	uxtb	r3, r3
 8003716:	f003 0306 	and.w	r3, r3, #6
 800371a:	b2db      	uxtb	r3, r3
 800371c:	f063 030f 	orn	r3, r3, #15
 8003720:	b2da      	uxtb	r2, r3
 8003722:	68fb      	ldr	r3, [r7, #12]
 8003724:	681b      	ldr	r3, [r3, #0]
 8003726:	611a      	str	r2, [r3, #16]

    /* Wait until ADD10 flag is set */
    if (I2C_WaitOnMasterAddressFlagUntilTimeout(hi2c, I2C_FLAG_ADD10, Timeout, Tickstart) != HAL_OK)
 8003728:	683b      	ldr	r3, [r7, #0]
 800372a:	687a      	ldr	r2, [r7, #4]
 800372c:	490e      	ldr	r1, [pc, #56]	; (8003768 <I2C_MasterRequestWrite+0xfc>)
 800372e:	68f8      	ldr	r0, [r7, #12]
 8003730:	f000 f966 	bl	8003a00 <I2C_WaitOnMasterAddressFlagUntilTimeout>
 8003734:	4603      	mov	r3, r0
 8003736:	2b00      	cmp	r3, #0
 8003738:	d001      	beq.n	800373e <I2C_MasterRequestWrite+0xd2>
    {
      return HAL_ERROR;
 800373a:	2301      	movs	r3, #1
 800373c:	e010      	b.n	8003760 <I2C_MasterRequestWrite+0xf4>
    }

    /* Send slave address */
    hi2c->Instance->DR = I2C_10BIT_ADDRESS(DevAddress);
 800373e:	897b      	ldrh	r3, [r7, #10]
 8003740:	b2da      	uxtb	r2, r3
 8003742:	68fb      	ldr	r3, [r7, #12]
 8003744:	681b      	ldr	r3, [r3, #0]
 8003746:	611a      	str	r2, [r3, #16]
  }

  /* Wait until ADDR flag is set */
  if (I2C_WaitOnMasterAddressFlagUntilTimeout(hi2c, I2C_FLAG_ADDR, Timeout, Tickstart) != HAL_OK)
 8003748:	683b      	ldr	r3, [r7, #0]
 800374a:	687a      	ldr	r2, [r7, #4]
 800374c:	4907      	ldr	r1, [pc, #28]	; (800376c <I2C_MasterRequestWrite+0x100>)
 800374e:	68f8      	ldr	r0, [r7, #12]
 8003750:	f000 f956 	bl	8003a00 <I2C_WaitOnMasterAddressFlagUntilTimeout>
 8003754:	4603      	mov	r3, r0
 8003756:	2b00      	cmp	r3, #0
 8003758:	d001      	beq.n	800375e <I2C_MasterRequestWrite+0xf2>
  {
    return HAL_ERROR;
 800375a:	2301      	movs	r3, #1
 800375c:	e000      	b.n	8003760 <I2C_MasterRequestWrite+0xf4>
  }

  return HAL_OK;
 800375e:	2300      	movs	r3, #0
}
 8003760:	4618      	mov	r0, r3
 8003762:	3718      	adds	r7, #24
 8003764:	46bd      	mov	sp, r7
 8003766:	bd80      	pop	{r7, pc}
 8003768:	00010008 	.word	0x00010008
 800376c:	00010002 	.word	0x00010002

08003770 <I2C_MasterRequestRead>:
  * @param  Timeout Timeout duration
  * @param  Tickstart Tick start value
  * @retval HAL status
  */
static HAL_StatusTypeDef I2C_MasterRequestRead(I2C_HandleTypeDef *hi2c, uint16_t DevAddress, uint32_t Timeout, uint32_t Tickstart)
{
 8003770:	b580      	push	{r7, lr}
 8003772:	b088      	sub	sp, #32
 8003774:	af02      	add	r7, sp, #8
 8003776:	60f8      	str	r0, [r7, #12]
 8003778:	607a      	str	r2, [r7, #4]
 800377a:	603b      	str	r3, [r7, #0]
 800377c:	460b      	mov	r3, r1
 800377e:	817b      	strh	r3, [r7, #10]
  /* Declaration of temporary variable to prevent undefined behavior of volatile usage */
  uint32_t CurrentXferOptions = hi2c->XferOptions;
 8003780:	68fb      	ldr	r3, [r7, #12]
 8003782:	6adb      	ldr	r3, [r3, #44]	; 0x2c
 8003784:	617b      	str	r3, [r7, #20]

  /* Enable Acknowledge */
  SET_BIT(hi2c->Instance->CR1, I2C_CR1_ACK);
 8003786:	68fb      	ldr	r3, [r7, #12]
 8003788:	681b      	ldr	r3, [r3, #0]
 800378a:	681a      	ldr	r2, [r3, #0]
 800378c:	68fb      	ldr	r3, [r7, #12]
 800378e:	681b      	ldr	r3, [r3, #0]
 8003790:	f442 6280 	orr.w	r2, r2, #1024	; 0x400
 8003794:	601a      	str	r2, [r3, #0]

  /* Generate Start condition if first transfer */
  if ((CurrentXferOptions == I2C_FIRST_AND_LAST_FRAME) || (CurrentXferOptions == I2C_FIRST_FRAME)  || (CurrentXferOptions == I2C_NO_OPTION_FRAME))
 8003796:	697b      	ldr	r3, [r7, #20]
 8003798:	2b08      	cmp	r3, #8
 800379a:	d006      	beq.n	80037aa <I2C_MasterRequestRead+0x3a>
 800379c:	697b      	ldr	r3, [r7, #20]
 800379e:	2b01      	cmp	r3, #1
 80037a0:	d003      	beq.n	80037aa <I2C_MasterRequestRead+0x3a>
 80037a2:	697b      	ldr	r3, [r7, #20]
 80037a4:	f513 3f80 	cmn.w	r3, #65536	; 0x10000
 80037a8:	d108      	bne.n	80037bc <I2C_MasterRequestRead+0x4c>
  {
    /* Generate Start */
    SET_BIT(hi2c->Instance->CR1, I2C_CR1_START);
 80037aa:	68fb      	ldr	r3, [r7, #12]
 80037ac:	681b      	ldr	r3, [r3, #0]
 80037ae:	681a      	ldr	r2, [r3, #0]
 80037b0:	68fb      	ldr	r3, [r7, #12]
 80037b2:	681b      	ldr	r3, [r3, #0]
 80037b4:	f442 7280 	orr.w	r2, r2, #256	; 0x100
 80037b8:	601a      	str	r2, [r3, #0]
 80037ba:	e00b      	b.n	80037d4 <I2C_MasterRequestRead+0x64>
  }
  else if (hi2c->PreviousState == I2C_STATE_MASTER_BUSY_TX)
 80037bc:	68fb      	ldr	r3, [r7, #12]
 80037be:	6b1b      	ldr	r3, [r3, #48]	; 0x30
 80037c0:	2b11      	cmp	r3, #17
 80037c2:	d107      	bne.n	80037d4 <I2C_MasterRequestRead+0x64>
  {
    /* Generate ReStart */
    SET_BIT(hi2c->Instance->CR1, I2C_CR1_START);
 80037c4:	68fb      	ldr	r3, [r7, #12]
 80037c6:	681b      	ldr	r3, [r3, #0]
 80037c8:	681a      	ldr	r2, [r3, #0]
 80037ca:	68fb      	ldr	r3, [r7, #12]
 80037cc:	681b      	ldr	r3, [r3, #0]
 80037ce:	f442 7280 	orr.w	r2, r2, #256	; 0x100
 80037d2:	601a      	str	r2, [r3, #0]
  {
    /* Do nothing */
  }

  /* Wait until SB flag is set */
  if (I2C_WaitOnFlagUntilTimeout(hi2c, I2C_FLAG_SB, RESET, Timeout, Tickstart) != HAL_OK)
 80037d4:	683b      	ldr	r3, [r7, #0]
 80037d6:	9300      	str	r3, [sp, #0]
 80037d8:	687b      	ldr	r3, [r7, #4]
 80037da:	2200      	movs	r2, #0
 80037dc:	f04f 1101 	mov.w	r1, #65537	; 0x10001
 80037e0:	68f8      	ldr	r0, [r7, #12]
 80037e2:	f000 f893 	bl	800390c <I2C_WaitOnFlagUntilTimeout>
 80037e6:	4603      	mov	r3, r0
 80037e8:	2b00      	cmp	r3, #0
 80037ea:	d00d      	beq.n	8003808 <I2C_MasterRequestRead+0x98>
  {
    if (READ_BIT(hi2c->Instance->CR1, I2C_CR1_START) == I2C_CR1_START)
 80037ec:	68fb      	ldr	r3, [r7, #12]
 80037ee:	681b      	ldr	r3, [r3, #0]
 80037f0:	681b      	ldr	r3, [r3, #0]
 80037f2:	f403 7380 	and.w	r3, r3, #256	; 0x100
 80037f6:	f5b3 7f80 	cmp.w	r3, #256	; 0x100
 80037fa:	d103      	bne.n	8003804 <I2C_MasterRequestRead+0x94>
    {
      hi2c->ErrorCode = HAL_I2C_WRONG_START;
 80037fc:	68fb      	ldr	r3, [r7, #12]
 80037fe:	f44f 7200 	mov.w	r2, #512	; 0x200
 8003802:	641a      	str	r2, [r3, #64]	; 0x40
    }
    return HAL_TIMEOUT;
 8003804:	2303      	movs	r3, #3
 8003806:	e079      	b.n	80038fc <I2C_MasterRequestRead+0x18c>
  }

  if (hi2c->Init.AddressingMode == I2C_ADDRESSINGMODE_7BIT)
 8003808:	68fb      	ldr	r3, [r7, #12]
 800380a:	691b      	ldr	r3, [r3, #16]
 800380c:	f5b3 4f80 	cmp.w	r3, #16384	; 0x4000
 8003810:	d108      	bne.n	8003824 <I2C_MasterRequestRead+0xb4>
  {
    /* Send slave address */
    hi2c->Instance->DR = I2C_7BIT_ADD_READ(DevAddress);
 8003812:	897b      	ldrh	r3, [r7, #10]
 8003814:	b2db      	uxtb	r3, r3
 8003816:	f043 0301 	orr.w	r3, r3, #1
 800381a:	b2da      	uxtb	r2, r3
 800381c:	68fb      	ldr	r3, [r7, #12]
 800381e:	681b      	ldr	r3, [r3, #0]
 8003820:	611a      	str	r2, [r3, #16]
 8003822:	e05f      	b.n	80038e4 <I2C_MasterRequestRead+0x174>
  }
  else
  {
    /* Send header of slave address */
    hi2c->Instance->DR = I2C_10BIT_HEADER_WRITE(DevAddress);
 8003824:	897b      	ldrh	r3, [r7, #10]
 8003826:	11db      	asrs	r3, r3, #7
 8003828:	b2db      	uxtb	r3, r3
 800382a:	f003 0306 	and.w	r3, r3, #6
 800382e:	b2db      	uxtb	r3, r3
 8003830:	f063 030f 	orn	r3, r3, #15
 8003834:	b2da      	uxtb	r2, r3
 8003836:	68fb      	ldr	r3, [r7, #12]
 8003838:	681b      	ldr	r3, [r3, #0]
 800383a:	611a      	str	r2, [r3, #16]

    /* Wait until ADD10 flag is set */
    if (I2C_WaitOnMasterAddressFlagUntilTimeout(hi2c, I2C_FLAG_ADD10, Timeout, Tickstart) != HAL_OK)
 800383c:	683b      	ldr	r3, [r7, #0]
 800383e:	687a      	ldr	r2, [r7, #4]
 8003840:	4930      	ldr	r1, [pc, #192]	; (8003904 <I2C_MasterRequestRead+0x194>)
 8003842:	68f8      	ldr	r0, [r7, #12]
 8003844:	f000 f8dc 	bl	8003a00 <I2C_WaitOnMasterAddressFlagUntilTimeout>
 8003848:	4603      	mov	r3, r0
 800384a:	2b00      	cmp	r3, #0
 800384c:	d001      	beq.n	8003852 <I2C_MasterRequestRead+0xe2>
    {
      return HAL_ERROR;
 800384e:	2301      	movs	r3, #1
 8003850:	e054      	b.n	80038fc <I2C_MasterRequestRead+0x18c>
    }

    /* Send slave address */
    hi2c->Instance->DR = I2C_10BIT_ADDRESS(DevAddress);
 8003852:	897b      	ldrh	r3, [r7, #10]
 8003854:	b2da      	uxtb	r2, r3
 8003856:	68fb      	ldr	r3, [r7, #12]
 8003858:	681b      	ldr	r3, [r3, #0]
 800385a:	611a      	str	r2, [r3, #16]

    /* Wait until ADDR flag is set */
    if (I2C_WaitOnMasterAddressFlagUntilTimeout(hi2c, I2C_FLAG_ADDR, Timeout, Tickstart) != HAL_OK)
 800385c:	683b      	ldr	r3, [r7, #0]
 800385e:	687a      	ldr	r2, [r7, #4]
 8003860:	4929      	ldr	r1, [pc, #164]	; (8003908 <I2C_MasterRequestRead+0x198>)
 8003862:	68f8      	ldr	r0, [r7, #12]
 8003864:	f000 f8cc 	bl	8003a00 <I2C_WaitOnMasterAddressFlagUntilTimeout>
 8003868:	4603      	mov	r3, r0
 800386a:	2b00      	cmp	r3, #0
 800386c:	d001      	beq.n	8003872 <I2C_MasterRequestRead+0x102>
    {
      return HAL_ERROR;
 800386e:	2301      	movs	r3, #1
 8003870:	e044      	b.n	80038fc <I2C_MasterRequestRead+0x18c>
    }

    /* Clear ADDR flag */
    __HAL_I2C_CLEAR_ADDRFLAG(hi2c);
 8003872:	2300      	movs	r3, #0
 8003874:	613b      	str	r3, [r7, #16]
 8003876:	68fb      	ldr	r3, [r7, #12]
 8003878:	681b      	ldr	r3, [r3, #0]
 800387a:	695b      	ldr	r3, [r3, #20]
 800387c:	613b      	str	r3, [r7, #16]
 800387e:	68fb      	ldr	r3, [r7, #12]
 8003880:	681b      	ldr	r3, [r3, #0]
 8003882:	699b      	ldr	r3, [r3, #24]
 8003884:	613b      	str	r3, [r7, #16]
 8003886:	693b      	ldr	r3, [r7, #16]

    /* Generate Restart */
    SET_BIT(hi2c->Instance->CR1, I2C_CR1_START);
 8003888:	68fb      	ldr	r3, [r7, #12]
 800388a:	681b      	ldr	r3, [r3, #0]
 800388c:	681a      	ldr	r2, [r3, #0]
 800388e:	68fb      	ldr	r3, [r7, #12]
 8003890:	681b      	ldr	r3, [r3, #0]
 8003892:	f442 7280 	orr.w	r2, r2, #256	; 0x100
 8003896:	601a      	str	r2, [r3, #0]

    /* Wait until SB flag is set */
    if (I2C_WaitOnFlagUntilTimeout(hi2c, I2C_FLAG_SB, RESET, Timeout, Tickstart) != HAL_OK)
 8003898:	683b      	ldr	r3, [r7, #0]
 800389a:	9300      	str	r3, [sp, #0]
 800389c:	687b      	ldr	r3, [r7, #4]
 800389e:	2200      	movs	r2, #0
 80038a0:	f04f 1101 	mov.w	r1, #65537	; 0x10001
 80038a4:	68f8      	ldr	r0, [r7, #12]
 80038a6:	f000 f831 	bl	800390c <I2C_WaitOnFlagUntilTimeout>
 80038aa:	4603      	mov	r3, r0
 80038ac:	2b00      	cmp	r3, #0
 80038ae:	d00d      	beq.n	80038cc <I2C_MasterRequestRead+0x15c>
    {
      if (READ_BIT(hi2c->Instance->CR1, I2C_CR1_START) == I2C_CR1_START)
 80038b0:	68fb      	ldr	r3, [r7, #12]
 80038b2:	681b      	ldr	r3, [r3, #0]
 80038b4:	681b      	ldr	r3, [r3, #0]
 80038b6:	f403 7380 	and.w	r3, r3, #256	; 0x100
 80038ba:	f5b3 7f80 	cmp.w	r3, #256	; 0x100
 80038be:	d103      	bne.n	80038c8 <I2C_MasterRequestRead+0x158>
      {
        hi2c->ErrorCode = HAL_I2C_WRONG_START;
 80038c0:	68fb      	ldr	r3, [r7, #12]
 80038c2:	f44f 7200 	mov.w	r2, #512	; 0x200
 80038c6:	641a      	str	r2, [r3, #64]	; 0x40
      }
      return HAL_TIMEOUT;
 80038c8:	2303      	movs	r3, #3
 80038ca:	e017      	b.n	80038fc <I2C_MasterRequestRead+0x18c>
    }

    /* Send header of slave address */
    hi2c->Instance->DR = I2C_10BIT_HEADER_READ(DevAddress);
 80038cc:	897b      	ldrh	r3, [r7, #10]
 80038ce:	11db      	asrs	r3, r3, #7
 80038d0:	b2db      	uxtb	r3, r3
 80038d2:	f003 0306 	and.w	r3, r3, #6
 80038d6:	b2db      	uxtb	r3, r3
 80038d8:	f063 030e 	orn	r3, r3, #14
 80038dc:	b2da      	uxtb	r2, r3
 80038de:	68fb      	ldr	r3, [r7, #12]
 80038e0:	681b      	ldr	r3, [r3, #0]
 80038e2:	611a      	str	r2, [r3, #16]
  }

  /* Wait until ADDR flag is set */
  if (I2C_WaitOnMasterAddressFlagUntilTimeout(hi2c, I2C_FLAG_ADDR, Timeout, Tickstart) != HAL_OK)
 80038e4:	683b      	ldr	r3, [r7, #0]
 80038e6:	687a      	ldr	r2, [r7, #4]
 80038e8:	4907      	ldr	r1, [pc, #28]	; (8003908 <I2C_MasterRequestRead+0x198>)
 80038ea:	68f8      	ldr	r0, [r7, #12]
 80038ec:	f000 f888 	bl	8003a00 <I2C_WaitOnMasterAddressFlagUntilTimeout>
 80038f0:	4603      	mov	r3, r0
 80038f2:	2b00      	cmp	r3, #0
 80038f4:	d001      	beq.n	80038fa <I2C_MasterRequestRead+0x18a>
  {
    return HAL_ERROR;
 80038f6:	2301      	movs	r3, #1
 80038f8:	e000      	b.n	80038fc <I2C_MasterRequestRead+0x18c>
  }

  return HAL_OK;
 80038fa:	2300      	movs	r3, #0
}
 80038fc:	4618      	mov	r0, r3
 80038fe:	3718      	adds	r7, #24
 8003900:	46bd      	mov	sp, r7
 8003902:	bd80      	pop	{r7, pc}
 8003904:	00010008 	.word	0x00010008
 8003908:	00010002 	.word	0x00010002

0800390c <I2C_WaitOnFlagUntilTimeout>:
  * @param  Timeout Timeout duration
  * @param  Tickstart Tick start value
  * @retval HAL status
  */
static HAL_StatusTypeDef I2C_WaitOnFlagUntilTimeout(I2C_HandleTypeDef *hi2c, uint32_t Flag, FlagStatus Status, uint32_t Timeout, uint32_t Tickstart)
{
 800390c:	b580      	push	{r7, lr}
 800390e:	b084      	sub	sp, #16
 8003910:	af00      	add	r7, sp, #0
 8003912:	60f8      	str	r0, [r7, #12]
 8003914:	60b9      	str	r1, [r7, #8]
 8003916:	603b      	str	r3, [r7, #0]
 8003918:	4613      	mov	r3, r2
 800391a:	71fb      	strb	r3, [r7, #7]
  /* Wait until flag is set */
  while (__HAL_I2C_GET_FLAG(hi2c, Flag) == Status)
 800391c:	e048      	b.n	80039b0 <I2C_WaitOnFlagUntilTimeout+0xa4>
  {
    /* Check for the Timeout */
    if (Timeout != HAL_MAX_DELAY)
 800391e:	683b      	ldr	r3, [r7, #0]
 8003920:	f1b3 3fff 	cmp.w	r3, #4294967295	; 0xffffffff
 8003924:	d044      	beq.n	80039b0 <I2C_WaitOnFlagUntilTimeout+0xa4>
    {
      if (((HAL_GetTick() - Tickstart) > Timeout) || (Timeout == 0U))
 8003926:	f7fe fe79 	bl	800261c <HAL_GetTick>
 800392a:	4602      	mov	r2, r0
 800392c:	69bb      	ldr	r3, [r7, #24]
 800392e:	1ad3      	subs	r3, r2, r3
 8003930:	683a      	ldr	r2, [r7, #0]
 8003932:	429a      	cmp	r2, r3
 8003934:	d302      	bcc.n	800393c <I2C_WaitOnFlagUntilTimeout+0x30>
 8003936:	683b      	ldr	r3, [r7, #0]
 8003938:	2b00      	cmp	r3, #0
 800393a:	d139      	bne.n	80039b0 <I2C_WaitOnFlagUntilTimeout+0xa4>
      {
        if ((__HAL_I2C_GET_FLAG(hi2c, Flag) == Status))
 800393c:	68bb      	ldr	r3, [r7, #8]
 800393e:	0c1b      	lsrs	r3, r3, #16
 8003940:	b2db      	uxtb	r3, r3
 8003942:	2b01      	cmp	r3, #1
 8003944:	d10d      	bne.n	8003962 <I2C_WaitOnFlagUntilTimeout+0x56>
 8003946:	68fb      	ldr	r3, [r7, #12]
 8003948:	681b      	ldr	r3, [r3, #0]
 800394a:	695b      	ldr	r3, [r3, #20]
 800394c:	43da      	mvns	r2, r3
 800394e:	68bb      	ldr	r3, [r7, #8]
 8003950:	4013      	ands	r3, r2
 8003952:	b29b      	uxth	r3, r3
 8003954:	2b00      	cmp	r3, #0
 8003956:	bf0c      	ite	eq
 8003958:	2301      	moveq	r3, #1
 800395a:	2300      	movne	r3, #0
 800395c:	b2db      	uxtb	r3, r3
 800395e:	461a      	mov	r2, r3
 8003960:	e00c      	b.n	800397c <I2C_WaitOnFlagUntilTimeout+0x70>
 8003962:	68fb      	ldr	r3, [r7, #12]
 8003964:	681b      	ldr	r3, [r3, #0]
 8003966:	699b      	ldr	r3, [r3, #24]
 8003968:	43da      	mvns	r2, r3
 800396a:	68bb      	ldr	r3, [r7, #8]
 800396c:	4013      	ands	r3, r2
 800396e:	b29b      	uxth	r3, r3
 8003970:	2b00      	cmp	r3, #0
 8003972:	bf0c      	ite	eq
 8003974:	2301      	moveq	r3, #1
 8003976:	2300      	movne	r3, #0
 8003978:	b2db      	uxtb	r3, r3
 800397a:	461a      	mov	r2, r3
 800397c:	79fb      	ldrb	r3, [r7, #7]
 800397e:	429a      	cmp	r2, r3
 8003980:	d116      	bne.n	80039b0 <I2C_WaitOnFlagUntilTimeout+0xa4>
        {
          hi2c->PreviousState     = I2C_STATE_NONE;
 8003982:	68fb      	ldr	r3, [r7, #12]
 8003984:	2200      	movs	r2, #0
 8003986:	631a      	str	r2, [r3, #48]	; 0x30
          hi2c->State             = HAL_I2C_STATE_READY;
 8003988:	68fb      	ldr	r3, [r7, #12]
 800398a:	2220      	movs	r2, #32
 800398c:	f883 203d 	strb.w	r2, [r3, #61]	; 0x3d
          hi2c->Mode              = HAL_I2C_MODE_NONE;
 8003990:	68fb      	ldr	r3, [r7, #12]
 8003992:	2200      	movs	r2, #0
 8003994:	f883 203e 	strb.w	r2, [r3, #62]	; 0x3e
          hi2c->ErrorCode         |= HAL_I2C_ERROR_TIMEOUT;
 8003998:	68fb      	ldr	r3, [r7, #12]
 800399a:	6c1b      	ldr	r3, [r3, #64]	; 0x40
 800399c:	f043 0220 	orr.w	r2, r3, #32
 80039a0:	68fb      	ldr	r3, [r7, #12]
 80039a2:	641a      	str	r2, [r3, #64]	; 0x40

          /* Process Unlocked */
          __HAL_UNLOCK(hi2c);
 80039a4:	68fb      	ldr	r3, [r7, #12]
 80039a6:	2200      	movs	r2, #0
 80039a8:	f883 203c 	strb.w	r2, [r3, #60]	; 0x3c

          return HAL_ERROR;
 80039ac:	2301      	movs	r3, #1
 80039ae:	e023      	b.n	80039f8 <I2C_WaitOnFlagUntilTimeout+0xec>
  while (__HAL_I2C_GET_FLAG(hi2c, Flag) == Status)
 80039b0:	68bb      	ldr	r3, [r7, #8]
 80039b2:	0c1b      	lsrs	r3, r3, #16
 80039b4:	b2db      	uxtb	r3, r3
 80039b6:	2b01      	cmp	r3, #1
 80039b8:	d10d      	bne.n	80039d6 <I2C_WaitOnFlagUntilTimeout+0xca>
 80039ba:	68fb      	ldr	r3, [r7, #12]
 80039bc:	681b      	ldr	r3, [r3, #0]
 80039be:	695b      	ldr	r3, [r3, #20]
 80039c0:	43da      	mvns	r2, r3
 80039c2:	68bb      	ldr	r3, [r7, #8]
 80039c4:	4013      	ands	r3, r2
 80039c6:	b29b      	uxth	r3, r3
 80039c8:	2b00      	cmp	r3, #0
 80039ca:	bf0c      	ite	eq
 80039cc:	2301      	moveq	r3, #1
 80039ce:	2300      	movne	r3, #0
 80039d0:	b2db      	uxtb	r3, r3
 80039d2:	461a      	mov	r2, r3
 80039d4:	e00c      	b.n	80039f0 <I2C_WaitOnFlagUntilTimeout+0xe4>
 80039d6:	68fb      	ldr	r3, [r7, #12]
 80039d8:	681b      	ldr	r3, [r3, #0]
 80039da:	699b      	ldr	r3, [r3, #24]
 80039dc:	43da      	mvns	r2, r3
 80039de:	68bb      	ldr	r3, [r7, #8]
 80039e0:	4013      	ands	r3, r2
 80039e2:	b29b      	uxth	r3, r3
 80039e4:	2b00      	cmp	r3, #0
 80039e6:	bf0c      	ite	eq
 80039e8:	2301      	moveq	r3, #1
 80039ea:	2300      	movne	r3, #0
 80039ec:	b2db      	uxtb	r3, r3
 80039ee:	461a      	mov	r2, r3
 80039f0:	79fb      	ldrb	r3, [r7, #7]
 80039f2:	429a      	cmp	r2, r3
 80039f4:	d093      	beq.n	800391e <I2C_WaitOnFlagUntilTimeout+0x12>
        }
      }
    }
  }
  return HAL_OK;
 80039f6:	2300      	movs	r3, #0
}
 80039f8:	4618      	mov	r0, r3
 80039fa:	3710      	adds	r7, #16
 80039fc:	46bd      	mov	sp, r7
 80039fe:	bd80      	pop	{r7, pc}

08003a00 <I2C_WaitOnMasterAddressFlagUntilTimeout>:
  * @param  Timeout Timeout duration
  * @param  Tickstart Tick start value
  * @retval HAL status
  */
static HAL_StatusTypeDef I2C_WaitOnMasterAddressFlagUntilTimeout(I2C_HandleTypeDef *hi2c, uint32_t Flag, uint32_t Timeout, uint32_t Tickstart)
{
 8003a00:	b580      	push	{r7, lr}
 8003a02:	b084      	sub	sp, #16
 8003a04:	af00      	add	r7, sp, #0
 8003a06:	60f8      	str	r0, [r7, #12]
 8003a08:	60b9      	str	r1, [r7, #8]
 8003a0a:	607a      	str	r2, [r7, #4]
 8003a0c:	603b      	str	r3, [r7, #0]
  while (__HAL_I2C_GET_FLAG(hi2c, Flag) == RESET)
 8003a0e:	e071      	b.n	8003af4 <I2C_WaitOnMasterAddressFlagUntilTimeout+0xf4>
  {
    if (__HAL_I2C_GET_FLAG(hi2c, I2C_FLAG_AF) == SET)
 8003a10:	68fb      	ldr	r3, [r7, #12]
 8003a12:	681b      	ldr	r3, [r3, #0]
 8003a14:	695b      	ldr	r3, [r3, #20]
 8003a16:	f403 6380 	and.w	r3, r3, #1024	; 0x400
 8003a1a:	f5b3 6f80 	cmp.w	r3, #1024	; 0x400
 8003a1e:	d123      	bne.n	8003a68 <I2C_WaitOnMasterAddressFlagUntilTimeout+0x68>
    {
      /* Generate Stop */
      SET_BIT(hi2c->Instance->CR1, I2C_CR1_STOP);
 8003a20:	68fb      	ldr	r3, [r7, #12]
 8003a22:	681b      	ldr	r3, [r3, #0]
 8003a24:	681a      	ldr	r2, [r3, #0]
 8003a26:	68fb      	ldr	r3, [r7, #12]
 8003a28:	681b      	ldr	r3, [r3, #0]
 8003a2a:	f442 7200 	orr.w	r2, r2, #512	; 0x200
 8003a2e:	601a      	str	r2, [r3, #0]

      /* Clear AF Flag */
      __HAL_I2C_CLEAR_FLAG(hi2c, I2C_FLAG_AF);
 8003a30:	68fb      	ldr	r3, [r7, #12]
 8003a32:	681b      	ldr	r3, [r3, #0]
 8003a34:	f46f 6280 	mvn.w	r2, #1024	; 0x400
 8003a38:	615a      	str	r2, [r3, #20]

      hi2c->PreviousState       = I2C_STATE_NONE;
 8003a3a:	68fb      	ldr	r3, [r7, #12]
 8003a3c:	2200      	movs	r2, #0
 8003a3e:	631a      	str	r2, [r3, #48]	; 0x30
      hi2c->State               = HAL_I2C_STATE_READY;
 8003a40:	68fb      	ldr	r3, [r7, #12]
 8003a42:	2220      	movs	r2, #32
 8003a44:	f883 203d 	strb.w	r2, [r3, #61]	; 0x3d
      hi2c->Mode                = HAL_I2C_MODE_NONE;
 8003a48:	68fb      	ldr	r3, [r7, #12]
 8003a4a:	2200      	movs	r2, #0
 8003a4c:	f883 203e 	strb.w	r2, [r3, #62]	; 0x3e
      hi2c->ErrorCode           |= HAL_I2C_ERROR_AF;
 8003a50:	68fb      	ldr	r3, [r7, #12]
 8003a52:	6c1b      	ldr	r3, [r3, #64]	; 0x40
 8003a54:	f043 0204 	orr.w	r2, r3, #4
 8003a58:	68fb      	ldr	r3, [r7, #12]
 8003a5a:	641a      	str	r2, [r3, #64]	; 0x40

      /* Process Unlocked */
      __HAL_UNLOCK(hi2c);
 8003a5c:	68fb      	ldr	r3, [r7, #12]
 8003a5e:	2200      	movs	r2, #0
 8003a60:	f883 203c 	strb.w	r2, [r3, #60]	; 0x3c

      return HAL_ERROR;
 8003a64:	2301      	movs	r3, #1
 8003a66:	e067      	b.n	8003b38 <I2C_WaitOnMasterAddressFlagUntilTimeout+0x138>
    }

    /* Check for the Timeout */
    if (Timeout != HAL_MAX_DELAY)
 8003a68:	687b      	ldr	r3, [r7, #4]
 8003a6a:	f1b3 3fff 	cmp.w	r3, #4294967295	; 0xffffffff
 8003a6e:	d041      	beq.n	8003af4 <I2C_WaitOnMasterAddressFlagUntilTimeout+0xf4>
    {
      if (((HAL_GetTick() - Tickstart) > Timeout) || (Timeout == 0U))
 8003a70:	f7fe fdd4 	bl	800261c <HAL_GetTick>
 8003a74:	4602      	mov	r2, r0
 8003a76:	683b      	ldr	r3, [r7, #0]
 8003a78:	1ad3      	subs	r3, r2, r3
 8003a7a:	687a      	ldr	r2, [r7, #4]
 8003a7c:	429a      	cmp	r2, r3
 8003a7e:	d302      	bcc.n	8003a86 <I2C_WaitOnMasterAddressFlagUntilTimeout+0x86>
 8003a80:	687b      	ldr	r3, [r7, #4]
 8003a82:	2b00      	cmp	r3, #0
 8003a84:	d136      	bne.n	8003af4 <I2C_WaitOnMasterAddressFlagUntilTimeout+0xf4>
      {
        if ((__HAL_I2C_GET_FLAG(hi2c, Flag) == RESET))
 8003a86:	68bb      	ldr	r3, [r7, #8]
 8003a88:	0c1b      	lsrs	r3, r3, #16
 8003a8a:	b2db      	uxtb	r3, r3
 8003a8c:	2b01      	cmp	r3, #1
 8003a8e:	d10c      	bne.n	8003aaa <I2C_WaitOnMasterAddressFlagUntilTimeout+0xaa>
 8003a90:	68fb      	ldr	r3, [r7, #12]
 8003a92:	681b      	ldr	r3, [r3, #0]
 8003a94:	695b      	ldr	r3, [r3, #20]
 8003a96:	43da      	mvns	r2, r3
 8003a98:	68bb      	ldr	r3, [r7, #8]
 8003a9a:	4013      	ands	r3, r2
 8003a9c:	b29b      	uxth	r3, r3
 8003a9e:	2b00      	cmp	r3, #0
 8003aa0:	bf14      	ite	ne
 8003aa2:	2301      	movne	r3, #1
 8003aa4:	2300      	moveq	r3, #0
 8003aa6:	b2db      	uxtb	r3, r3
 8003aa8:	e00b      	b.n	8003ac2 <I2C_WaitOnMasterAddressFlagUntilTimeout+0xc2>
 8003aaa:	68fb      	ldr	r3, [r7, #12]
 8003aac:	681b      	ldr	r3, [r3, #0]
 8003aae:	699b      	ldr	r3, [r3, #24]
 8003ab0:	43da      	mvns	r2, r3
 8003ab2:	68bb      	ldr	r3, [r7, #8]
 8003ab4:	4013      	ands	r3, r2
 8003ab6:	b29b      	uxth	r3, r3
 8003ab8:	2b00      	cmp	r3, #0
 8003aba:	bf14      	ite	ne
 8003abc:	2301      	movne	r3, #1
 8003abe:	2300      	moveq	r3, #0
 8003ac0:	b2db      	uxtb	r3, r3
 8003ac2:	2b00      	cmp	r3, #0
 8003ac4:	d016      	beq.n	8003af4 <I2C_WaitOnMasterAddressFlagUntilTimeout+0xf4>
        {
          hi2c->PreviousState       = I2C_STATE_NONE;
 8003ac6:	68fb      	ldr	r3, [r7, #12]
 8003ac8:	2200      	movs	r2, #0
 8003aca:	631a      	str	r2, [r3, #48]	; 0x30
          hi2c->State               = HAL_I2C_STATE_READY;
 8003acc:	68fb      	ldr	r3, [r7, #12]
 8003ace:	2220      	movs	r2, #32
 8003ad0:	f883 203d 	strb.w	r2, [r3, #61]	; 0x3d
          hi2c->Mode                = HAL_I2C_MODE_NONE;
 8003ad4:	68fb      	ldr	r3, [r7, #12]
 8003ad6:	2200      	movs	r2, #0
 8003ad8:	f883 203e 	strb.w	r2, [r3, #62]	; 0x3e
          hi2c->ErrorCode           |= HAL_I2C_ERROR_TIMEOUT;
 8003adc:	68fb      	ldr	r3, [r7, #12]
 8003ade:	6c1b      	ldr	r3, [r3, #64]	; 0x40
 8003ae0:	f043 0220 	orr.w	r2, r3, #32
 8003ae4:	68fb      	ldr	r3, [r7, #12]
 8003ae6:	641a      	str	r2, [r3, #64]	; 0x40

          /* Process Unlocked */
          __HAL_UNLOCK(hi2c);
 8003ae8:	68fb      	ldr	r3, [r7, #12]
 8003aea:	2200      	movs	r2, #0
 8003aec:	f883 203c 	strb.w	r2, [r3, #60]	; 0x3c

          return HAL_ERROR;
 8003af0:	2301      	movs	r3, #1
 8003af2:	e021      	b.n	8003b38 <I2C_WaitOnMasterAddressFlagUntilTimeout+0x138>
  while (__HAL_I2C_GET_FLAG(hi2c, Flag) == RESET)
 8003af4:	68bb      	ldr	r3, [r7, #8]
 8003af6:	0c1b      	lsrs	r3, r3, #16
 8003af8:	b2db      	uxtb	r3, r3
 8003afa:	2b01      	cmp	r3, #1
 8003afc:	d10c      	bne.n	8003b18 <I2C_WaitOnMasterAddressFlagUntilTimeout+0x118>
 8003afe:	68fb      	ldr	r3, [r7, #12]
 8003b00:	681b      	ldr	r3, [r3, #0]
 8003b02:	695b      	ldr	r3, [r3, #20]
 8003b04:	43da      	mvns	r2, r3
 8003b06:	68bb      	ldr	r3, [r7, #8]
 8003b08:	4013      	ands	r3, r2
 8003b0a:	b29b      	uxth	r3, r3
 8003b0c:	2b00      	cmp	r3, #0
 8003b0e:	bf14      	ite	ne
 8003b10:	2301      	movne	r3, #1
 8003b12:	2300      	moveq	r3, #0
 8003b14:	b2db      	uxtb	r3, r3
 8003b16:	e00b      	b.n	8003b30 <I2C_WaitOnMasterAddressFlagUntilTimeout+0x130>
 8003b18:	68fb      	ldr	r3, [r7, #12]
 8003b1a:	681b      	ldr	r3, [r3, #0]
 8003b1c:	699b      	ldr	r3, [r3, #24]
 8003b1e:	43da      	mvns	r2, r3
 8003b20:	68bb      	ldr	r3, [r7, #8]
 8003b22:	4013      	ands	r3, r2
 8003b24:	b29b      	uxth	r3, r3
 8003b26:	2b00      	cmp	r3, #0
 8003b28:	bf14      	ite	ne
 8003b2a:	2301      	movne	r3, #1
 8003b2c:	2300      	moveq	r3, #0
 8003b2e:	b2db      	uxtb	r3, r3
 8003b30:	2b00      	cmp	r3, #0
 8003b32:	f47f af6d 	bne.w	8003a10 <I2C_WaitOnMasterAddressFlagUntilTimeout+0x10>
        }
      }
    }
  }
  return HAL_OK;
 8003b36:	2300      	movs	r3, #0
}
 8003b38:	4618      	mov	r0, r3
 8003b3a:	3710      	adds	r7, #16
 8003b3c:	46bd      	mov	sp, r7
 8003b3e:	bd80      	pop	{r7, pc}

08003b40 <I2C_WaitOnTXEFlagUntilTimeout>:
  * @param  Timeout Timeout duration
  * @param  Tickstart Tick start value
  * @retval HAL status
  */
static HAL_StatusTypeDef I2C_WaitOnTXEFlagUntilTimeout(I2C_HandleTypeDef *hi2c, uint32_t Timeout, uint32_t Tickstart)
{
 8003b40:	b580      	push	{r7, lr}
 8003b42:	b084      	sub	sp, #16
 8003b44:	af00      	add	r7, sp, #0
 8003b46:	60f8      	str	r0, [r7, #12]
 8003b48:	60b9      	str	r1, [r7, #8]
 8003b4a:	607a      	str	r2, [r7, #4]
  while (__HAL_I2C_GET_FLAG(hi2c, I2C_FLAG_TXE) == RESET)
 8003b4c:	e034      	b.n	8003bb8 <I2C_WaitOnTXEFlagUntilTimeout+0x78>
  {
    /* Check if a NACK is detected */
    if (I2C_IsAcknowledgeFailed(hi2c) != HAL_OK)
 8003b4e:	68f8      	ldr	r0, [r7, #12]
 8003b50:	f000 f8e3 	bl	8003d1a <I2C_IsAcknowledgeFailed>
 8003b54:	4603      	mov	r3, r0
 8003b56:	2b00      	cmp	r3, #0
 8003b58:	d001      	beq.n	8003b5e <I2C_WaitOnTXEFlagUntilTimeout+0x1e>
    {
      return HAL_ERROR;
 8003b5a:	2301      	movs	r3, #1
 8003b5c:	e034      	b.n	8003bc8 <I2C_WaitOnTXEFlagUntilTimeout+0x88>
    }

    /* Check for the Timeout */
    if (Timeout != HAL_MAX_DELAY)
 8003b5e:	68bb      	ldr	r3, [r7, #8]
 8003b60:	f1b3 3fff 	cmp.w	r3, #4294967295	; 0xffffffff
 8003b64:	d028      	beq.n	8003bb8 <I2C_WaitOnTXEFlagUntilTimeout+0x78>
    {
      if (((HAL_GetTick() - Tickstart) > Timeout) || (Timeout == 0U))
 8003b66:	f7fe fd59 	bl	800261c <HAL_GetTick>
 8003b6a:	4602      	mov	r2, r0
 8003b6c:	687b      	ldr	r3, [r7, #4]
 8003b6e:	1ad3      	subs	r3, r2, r3
 8003b70:	68ba      	ldr	r2, [r7, #8]
 8003b72:	429a      	cmp	r2, r3
 8003b74:	d302      	bcc.n	8003b7c <I2C_WaitOnTXEFlagUntilTimeout+0x3c>
 8003b76:	68bb      	ldr	r3, [r7, #8]
 8003b78:	2b00      	cmp	r3, #0
 8003b7a:	d11d      	bne.n	8003bb8 <I2C_WaitOnTXEFlagUntilTimeout+0x78>
      {
        if ((__HAL_I2C_GET_FLAG(hi2c, I2C_FLAG_TXE) == RESET))
 8003b7c:	68fb      	ldr	r3, [r7, #12]
 8003b7e:	681b      	ldr	r3, [r3, #0]
 8003b80:	695b      	ldr	r3, [r3, #20]
 8003b82:	f003 0380 	and.w	r3, r3, #128	; 0x80
 8003b86:	2b80      	cmp	r3, #128	; 0x80
 8003b88:	d016      	beq.n	8003bb8 <I2C_WaitOnTXEFlagUntilTimeout+0x78>
        {
          hi2c->PreviousState       = I2C_STATE_NONE;
 8003b8a:	68fb      	ldr	r3, [r7, #12]
 8003b8c:	2200      	movs	r2, #0
 8003b8e:	631a      	str	r2, [r3, #48]	; 0x30
          hi2c->State               = HAL_I2C_STATE_READY;
 8003b90:	68fb      	ldr	r3, [r7, #12]
 8003b92:	2220      	movs	r2, #32
 8003b94:	f883 203d 	strb.w	r2, [r3, #61]	; 0x3d
          hi2c->Mode                = HAL_I2C_MODE_NONE;
 8003b98:	68fb      	ldr	r3, [r7, #12]
 8003b9a:	2200      	movs	r2, #0
 8003b9c:	f883 203e 	strb.w	r2, [r3, #62]	; 0x3e
          hi2c->ErrorCode           |= HAL_I2C_ERROR_TIMEOUT;
 8003ba0:	68fb      	ldr	r3, [r7, #12]
 8003ba2:	6c1b      	ldr	r3, [r3, #64]	; 0x40
 8003ba4:	f043 0220 	orr.w	r2, r3, #32
 8003ba8:	68fb      	ldr	r3, [r7, #12]
 8003baa:	641a      	str	r2, [r3, #64]	; 0x40

          /* Process Unlocked */
          __HAL_UNLOCK(hi2c);
 8003bac:	68fb      	ldr	r3, [r7, #12]
 8003bae:	2200      	movs	r2, #0
 8003bb0:	f883 203c 	strb.w	r2, [r3, #60]	; 0x3c

          return HAL_ERROR;
 8003bb4:	2301      	movs	r3, #1
 8003bb6:	e007      	b.n	8003bc8 <I2C_WaitOnTXEFlagUntilTimeout+0x88>
  while (__HAL_I2C_GET_FLAG(hi2c, I2C_FLAG_TXE) == RESET)
 8003bb8:	68fb      	ldr	r3, [r7, #12]
 8003bba:	681b      	ldr	r3, [r3, #0]
 8003bbc:	695b      	ldr	r3, [r3, #20]
 8003bbe:	f003 0380 	and.w	r3, r3, #128	; 0x80
 8003bc2:	2b80      	cmp	r3, #128	; 0x80
 8003bc4:	d1c3      	bne.n	8003b4e <I2C_WaitOnTXEFlagUntilTimeout+0xe>
        }
      }
    }
  }
  return HAL_OK;
 8003bc6:	2300      	movs	r3, #0
}
 8003bc8:	4618      	mov	r0, r3
 8003bca:	3710      	adds	r7, #16
 8003bcc:	46bd      	mov	sp, r7
 8003bce:	bd80      	pop	{r7, pc}

08003bd0 <I2C_WaitOnBTFFlagUntilTimeout>:
  * @param  Timeout Timeout duration
  * @param  Tickstart Tick start value
  * @retval HAL status
  */
static HAL_StatusTypeDef I2C_WaitOnBTFFlagUntilTimeout(I2C_HandleTypeDef *hi2c, uint32_t Timeout, uint32_t Tickstart)
{
 8003bd0:	b580      	push	{r7, lr}
 8003bd2:	b084      	sub	sp, #16
 8003bd4:	af00      	add	r7, sp, #0
 8003bd6:	60f8      	str	r0, [r7, #12]
 8003bd8:	60b9      	str	r1, [r7, #8]
 8003bda:	607a      	str	r2, [r7, #4]
  while (__HAL_I2C_GET_FLAG(hi2c, I2C_FLAG_BTF) == RESET)
 8003bdc:	e034      	b.n	8003c48 <I2C_WaitOnBTFFlagUntilTimeout+0x78>
  {
    /* Check if a NACK is detected */
    if (I2C_IsAcknowledgeFailed(hi2c) != HAL_OK)
 8003bde:	68f8      	ldr	r0, [r7, #12]
 8003be0:	f000 f89b 	bl	8003d1a <I2C_IsAcknowledgeFailed>
 8003be4:	4603      	mov	r3, r0
 8003be6:	2b00      	cmp	r3, #0
 8003be8:	d001      	beq.n	8003bee <I2C_WaitOnBTFFlagUntilTimeout+0x1e>
    {
      return HAL_ERROR;
 8003bea:	2301      	movs	r3, #1
 8003bec:	e034      	b.n	8003c58 <I2C_WaitOnBTFFlagUntilTimeout+0x88>
    }

    /* Check for the Timeout */
    if (Timeout != HAL_MAX_DELAY)
 8003bee:	68bb      	ldr	r3, [r7, #8]
 8003bf0:	f1b3 3fff 	cmp.w	r3, #4294967295	; 0xffffffff
 8003bf4:	d028      	beq.n	8003c48 <I2C_WaitOnBTFFlagUntilTimeout+0x78>
    {
      if (((HAL_GetTick() - Tickstart) > Timeout) || (Timeout == 0U))
 8003bf6:	f7fe fd11 	bl	800261c <HAL_GetTick>
 8003bfa:	4602      	mov	r2, r0
 8003bfc:	687b      	ldr	r3, [r7, #4]
 8003bfe:	1ad3      	subs	r3, r2, r3
 8003c00:	68ba      	ldr	r2, [r7, #8]
 8003c02:	429a      	cmp	r2, r3
 8003c04:	d302      	bcc.n	8003c0c <I2C_WaitOnBTFFlagUntilTimeout+0x3c>
 8003c06:	68bb      	ldr	r3, [r7, #8]
 8003c08:	2b00      	cmp	r3, #0
 8003c0a:	d11d      	bne.n	8003c48 <I2C_WaitOnBTFFlagUntilTimeout+0x78>
      {
        if ((__HAL_I2C_GET_FLAG(hi2c, I2C_FLAG_BTF) == RESET))
 8003c0c:	68fb      	ldr	r3, [r7, #12]
 8003c0e:	681b      	ldr	r3, [r3, #0]
 8003c10:	695b      	ldr	r3, [r3, #20]
 8003c12:	f003 0304 	and.w	r3, r3, #4
 8003c16:	2b04      	cmp	r3, #4
 8003c18:	d016      	beq.n	8003c48 <I2C_WaitOnBTFFlagUntilTimeout+0x78>
        {
          hi2c->PreviousState       = I2C_STATE_NONE;
 8003c1a:	68fb      	ldr	r3, [r7, #12]
 8003c1c:	2200      	movs	r2, #0
 8003c1e:	631a      	str	r2, [r3, #48]	; 0x30
          hi2c->State               = HAL_I2C_STATE_READY;
 8003c20:	68fb      	ldr	r3, [r7, #12]
 8003c22:	2220      	movs	r2, #32
 8003c24:	f883 203d 	strb.w	r2, [r3, #61]	; 0x3d
          hi2c->Mode                = HAL_I2C_MODE_NONE;
 8003c28:	68fb      	ldr	r3, [r7, #12]
 8003c2a:	2200      	movs	r2, #0
 8003c2c:	f883 203e 	strb.w	r2, [r3, #62]	; 0x3e
          hi2c->ErrorCode           |= HAL_I2C_ERROR_TIMEOUT;
 8003c30:	68fb      	ldr	r3, [r7, #12]
 8003c32:	6c1b      	ldr	r3, [r3, #64]	; 0x40
 8003c34:	f043 0220 	orr.w	r2, r3, #32
 8003c38:	68fb      	ldr	r3, [r7, #12]
 8003c3a:	641a      	str	r2, [r3, #64]	; 0x40

          /* Process Unlocked */
          __HAL_UNLOCK(hi2c);
 8003c3c:	68fb      	ldr	r3, [r7, #12]
 8003c3e:	2200      	movs	r2, #0
 8003c40:	f883 203c 	strb.w	r2, [r3, #60]	; 0x3c

          return HAL_ERROR;
 8003c44:	2301      	movs	r3, #1
 8003c46:	e007      	b.n	8003c58 <I2C_WaitOnBTFFlagUntilTimeout+0x88>
  while (__HAL_I2C_GET_FLAG(hi2c, I2C_FLAG_BTF) == RESET)
 8003c48:	68fb      	ldr	r3, [r7, #12]
 8003c4a:	681b      	ldr	r3, [r3, #0]
 8003c4c:	695b      	ldr	r3, [r3, #20]
 8003c4e:	f003 0304 	and.w	r3, r3, #4
 8003c52:	2b04      	cmp	r3, #4
 8003c54:	d1c3      	bne.n	8003bde <I2C_WaitOnBTFFlagUntilTimeout+0xe>
        }
      }
    }
  }
  return HAL_OK;
 8003c56:	2300      	movs	r3, #0
}
 8003c58:	4618      	mov	r0, r3
 8003c5a:	3710      	adds	r7, #16
 8003c5c:	46bd      	mov	sp, r7
 8003c5e:	bd80      	pop	{r7, pc}

08003c60 <I2C_WaitOnRXNEFlagUntilTimeout>:
  * @param  Timeout Timeout duration
  * @param  Tickstart Tick start value
  * @retval HAL status
  */
static HAL_StatusTypeDef I2C_WaitOnRXNEFlagUntilTimeout(I2C_HandleTypeDef *hi2c, uint32_t Timeout, uint32_t Tickstart)
{
 8003c60:	b580      	push	{r7, lr}
 8003c62:	b084      	sub	sp, #16
 8003c64:	af00      	add	r7, sp, #0
 8003c66:	60f8      	str	r0, [r7, #12]
 8003c68:	60b9      	str	r1, [r7, #8]
 8003c6a:	607a      	str	r2, [r7, #4]

  while (__HAL_I2C_GET_FLAG(hi2c, I2C_FLAG_RXNE) == RESET)
 8003c6c:	e049      	b.n	8003d02 <I2C_WaitOnRXNEFlagUntilTimeout+0xa2>
  {
    /* Check if a STOPF is detected */
    if (__HAL_I2C_GET_FLAG(hi2c, I2C_FLAG_STOPF) == SET)
 8003c6e:	68fb      	ldr	r3, [r7, #12]
 8003c70:	681b      	ldr	r3, [r3, #0]
 8003c72:	695b      	ldr	r3, [r3, #20]
 8003c74:	f003 0310 	and.w	r3, r3, #16
 8003c78:	2b10      	cmp	r3, #16
 8003c7a:	d119      	bne.n	8003cb0 <I2C_WaitOnRXNEFlagUntilTimeout+0x50>
    {
      /* Clear STOP Flag */
      __HAL_I2C_CLEAR_FLAG(hi2c, I2C_FLAG_STOPF);
 8003c7c:	68fb      	ldr	r3, [r7, #12]
 8003c7e:	681b      	ldr	r3, [r3, #0]
 8003c80:	f06f 0210 	mvn.w	r2, #16
 8003c84:	615a      	str	r2, [r3, #20]

      hi2c->PreviousState       = I2C_STATE_NONE;
 8003c86:	68fb      	ldr	r3, [r7, #12]
 8003c88:	2200      	movs	r2, #0
 8003c8a:	631a      	str	r2, [r3, #48]	; 0x30
      hi2c->State               = HAL_I2C_STATE_READY;
 8003c8c:	68fb      	ldr	r3, [r7, #12]
 8003c8e:	2220      	movs	r2, #32
 8003c90:	f883 203d 	strb.w	r2, [r3, #61]	; 0x3d
      hi2c->Mode                = HAL_I2C_MODE_NONE;
 8003c94:	68fb      	ldr	r3, [r7, #12]
 8003c96:	2200      	movs	r2, #0
 8003c98:	f883 203e 	strb.w	r2, [r3, #62]	; 0x3e
      hi2c->ErrorCode           |= HAL_I2C_ERROR_NONE;
 8003c9c:	68fb      	ldr	r3, [r7, #12]
 8003c9e:	6c1a      	ldr	r2, [r3, #64]	; 0x40
 8003ca0:	68fb      	ldr	r3, [r7, #12]
 8003ca2:	641a      	str	r2, [r3, #64]	; 0x40

      /* Process Unlocked */
      __HAL_UNLOCK(hi2c);
 8003ca4:	68fb      	ldr	r3, [r7, #12]
 8003ca6:	2200      	movs	r2, #0
 8003ca8:	f883 203c 	strb.w	r2, [r3, #60]	; 0x3c

      return HAL_ERROR;
 8003cac:	2301      	movs	r3, #1
 8003cae:	e030      	b.n	8003d12 <I2C_WaitOnRXNEFlagUntilTimeout+0xb2>
    }

    /* Check for the Timeout */
    if (((HAL_GetTick() - Tickstart) > Timeout) || (Timeout == 0U))
 8003cb0:	f7fe fcb4 	bl	800261c <HAL_GetTick>
 8003cb4:	4602      	mov	r2, r0
 8003cb6:	687b      	ldr	r3, [r7, #4]
 8003cb8:	1ad3      	subs	r3, r2, r3
 8003cba:	68ba      	ldr	r2, [r7, #8]
 8003cbc:	429a      	cmp	r2, r3
 8003cbe:	d302      	bcc.n	8003cc6 <I2C_WaitOnRXNEFlagUntilTimeout+0x66>
 8003cc0:	68bb      	ldr	r3, [r7, #8]
 8003cc2:	2b00      	cmp	r3, #0
 8003cc4:	d11d      	bne.n	8003d02 <I2C_WaitOnRXNEFlagUntilTimeout+0xa2>
    {
      if ((__HAL_I2C_GET_FLAG(hi2c, I2C_FLAG_RXNE) == RESET))
 8003cc6:	68fb      	ldr	r3, [r7, #12]
 8003cc8:	681b      	ldr	r3, [r3, #0]
 8003cca:	695b      	ldr	r3, [r3, #20]
 8003ccc:	f003 0340 	and.w	r3, r3, #64	; 0x40
 8003cd0:	2b40      	cmp	r3, #64	; 0x40
 8003cd2:	d016      	beq.n	8003d02 <I2C_WaitOnRXNEFlagUntilTimeout+0xa2>
      {
        hi2c->PreviousState       = I2C_STATE_NONE;
 8003cd4:	68fb      	ldr	r3, [r7, #12]
 8003cd6:	2200      	movs	r2, #0
 8003cd8:	631a      	str	r2, [r3, #48]	; 0x30
        hi2c->State               = HAL_I2C_STATE_READY;
 8003cda:	68fb      	ldr	r3, [r7, #12]
 8003cdc:	2220      	movs	r2, #32
 8003cde:	f883 203d 	strb.w	r2, [r3, #61]	; 0x3d
        hi2c->Mode                = HAL_I2C_MODE_NONE;
 8003ce2:	68fb      	ldr	r3, [r7, #12]
 8003ce4:	2200      	movs	r2, #0
 8003ce6:	f883 203e 	strb.w	r2, [r3, #62]	; 0x3e
        hi2c->ErrorCode           |= HAL_I2C_ERROR_TIMEOUT;
 8003cea:	68fb      	ldr	r3, [r7, #12]
 8003cec:	6c1b      	ldr	r3, [r3, #64]	; 0x40
 8003cee:	f043 0220 	orr.w	r2, r3, #32
 8003cf2:	68fb      	ldr	r3, [r7, #12]
 8003cf4:	641a      	str	r2, [r3, #64]	; 0x40

        /* Process Unlocked */
        __HAL_UNLOCK(hi2c);
 8003cf6:	68fb      	ldr	r3, [r7, #12]
 8003cf8:	2200      	movs	r2, #0
 8003cfa:	f883 203c 	strb.w	r2, [r3, #60]	; 0x3c

        return HAL_ERROR;
 8003cfe:	2301      	movs	r3, #1
 8003d00:	e007      	b.n	8003d12 <I2C_WaitOnRXNEFlagUntilTimeout+0xb2>
  while (__HAL_I2C_GET_FLAG(hi2c, I2C_FLAG_RXNE) == RESET)
 8003d02:	68fb      	ldr	r3, [r7, #12]
 8003d04:	681b      	ldr	r3, [r3, #0]
 8003d06:	695b      	ldr	r3, [r3, #20]
 8003d08:	f003 0340 	and.w	r3, r3, #64	; 0x40
 8003d0c:	2b40      	cmp	r3, #64	; 0x40
 8003d0e:	d1ae      	bne.n	8003c6e <I2C_WaitOnRXNEFlagUntilTimeout+0xe>
      }
    }
  }
  return HAL_OK;
 8003d10:	2300      	movs	r3, #0
}
 8003d12:	4618      	mov	r0, r3
 8003d14:	3710      	adds	r7, #16
 8003d16:	46bd      	mov	sp, r7
 8003d18:	bd80      	pop	{r7, pc}

08003d1a <I2C_IsAcknowledgeFailed>:
  * @param  hi2c Pointer to a I2C_HandleTypeDef structure that contains
  *                the configuration information for the specified I2C.
  * @retval HAL status
  */
static HAL_StatusTypeDef I2C_IsAcknowledgeFailed(I2C_HandleTypeDef *hi2c)
{
 8003d1a:	b480      	push	{r7}
 8003d1c:	b083      	sub	sp, #12
 8003d1e:	af00      	add	r7, sp, #0
 8003d20:	6078      	str	r0, [r7, #4]
  if (__HAL_I2C_GET_FLAG(hi2c, I2C_FLAG_AF) == SET)
 8003d22:	687b      	ldr	r3, [r7, #4]
 8003d24:	681b      	ldr	r3, [r3, #0]
 8003d26:	695b      	ldr	r3, [r3, #20]
 8003d28:	f403 6380 	and.w	r3, r3, #1024	; 0x400
 8003d2c:	f5b3 6f80 	cmp.w	r3, #1024	; 0x400
 8003d30:	d11b      	bne.n	8003d6a <I2C_IsAcknowledgeFailed+0x50>
  {
    /* Clear NACKF Flag */
    __HAL_I2C_CLEAR_FLAG(hi2c, I2C_FLAG_AF);
 8003d32:	687b      	ldr	r3, [r7, #4]
 8003d34:	681b      	ldr	r3, [r3, #0]
 8003d36:	f46f 6280 	mvn.w	r2, #1024	; 0x400
 8003d3a:	615a      	str	r2, [r3, #20]

    hi2c->PreviousState       = I2C_STATE_NONE;
 8003d3c:	687b      	ldr	r3, [r7, #4]
 8003d3e:	2200      	movs	r2, #0
 8003d40:	631a      	str	r2, [r3, #48]	; 0x30
    hi2c->State               = HAL_I2C_STATE_READY;
 8003d42:	687b      	ldr	r3, [r7, #4]
 8003d44:	2220      	movs	r2, #32
 8003d46:	f883 203d 	strb.w	r2, [r3, #61]	; 0x3d
    hi2c->Mode                = HAL_I2C_MODE_NONE;
 8003d4a:	687b      	ldr	r3, [r7, #4]
 8003d4c:	2200      	movs	r2, #0
 8003d4e:	f883 203e 	strb.w	r2, [r3, #62]	; 0x3e
    hi2c->ErrorCode           |= HAL_I2C_ERROR_AF;
 8003d52:	687b      	ldr	r3, [r7, #4]
 8003d54:	6c1b      	ldr	r3, [r3, #64]	; 0x40
 8003d56:	f043 0204 	orr.w	r2, r3, #4
 8003d5a:	687b      	ldr	r3, [r7, #4]
 8003d5c:	641a      	str	r2, [r3, #64]	; 0x40

    /* Process Unlocked */
    __HAL_UNLOCK(hi2c);
 8003d5e:	687b      	ldr	r3, [r7, #4]
 8003d60:	2200      	movs	r2, #0
 8003d62:	f883 203c 	strb.w	r2, [r3, #60]	; 0x3c

    return HAL_ERROR;
 8003d66:	2301      	movs	r3, #1
 8003d68:	e000      	b.n	8003d6c <I2C_IsAcknowledgeFailed+0x52>
  }
  return HAL_OK;
 8003d6a:	2300      	movs	r3, #0
}
 8003d6c:	4618      	mov	r0, r3
 8003d6e:	370c      	adds	r7, #12
 8003d70:	46bd      	mov	sp, r7
 8003d72:	f85d 7b04 	ldr.w	r7, [sp], #4
 8003d76:	4770      	bx	lr

08003d78 <HAL_I2CEx_ConfigAnalogFilter>:
  *                the configuration information for the specified I2Cx peripheral.
  * @param  AnalogFilter new state of the Analog filter.
  * @retval HAL status
  */
HAL_StatusTypeDef HAL_I2CEx_ConfigAnalogFilter(I2C_HandleTypeDef *hi2c, uint32_t AnalogFilter)
{
 8003d78:	b480      	push	{r7}
 8003d7a:	b083      	sub	sp, #12
 8003d7c:	af00      	add	r7, sp, #0
 8003d7e:	6078      	str	r0, [r7, #4]
 8003d80:	6039      	str	r1, [r7, #0]
  /* Check the parameters */
  assert_param(IS_I2C_ALL_INSTANCE(hi2c->Instance));
  assert_param(IS_I2C_ANALOG_FILTER(AnalogFilter));

  if (hi2c->State == HAL_I2C_STATE_READY)
 8003d82:	687b      	ldr	r3, [r7, #4]
 8003d84:	f893 303d 	ldrb.w	r3, [r3, #61]	; 0x3d
 8003d88:	b2db      	uxtb	r3, r3
 8003d8a:	2b20      	cmp	r3, #32
 8003d8c:	d129      	bne.n	8003de2 <HAL_I2CEx_ConfigAnalogFilter+0x6a>
  {
    hi2c->State = HAL_I2C_STATE_BUSY;
 8003d8e:	687b      	ldr	r3, [r7, #4]
 8003d90:	2224      	movs	r2, #36	; 0x24
 8003d92:	f883 203d 	strb.w	r2, [r3, #61]	; 0x3d

    /* Disable the selected I2C peripheral */
    __HAL_I2C_DISABLE(hi2c);
 8003d96:	687b      	ldr	r3, [r7, #4]
 8003d98:	681b      	ldr	r3, [r3, #0]
 8003d9a:	681a      	ldr	r2, [r3, #0]
 8003d9c:	687b      	ldr	r3, [r7, #4]
 8003d9e:	681b      	ldr	r3, [r3, #0]
 8003da0:	f022 0201 	bic.w	r2, r2, #1
 8003da4:	601a      	str	r2, [r3, #0]

    /* Reset I2Cx ANOFF bit */
    hi2c->Instance->FLTR &= ~(I2C_FLTR_ANOFF);
 8003da6:	687b      	ldr	r3, [r7, #4]
 8003da8:	681b      	ldr	r3, [r3, #0]
 8003daa:	6a5a      	ldr	r2, [r3, #36]	; 0x24
 8003dac:	687b      	ldr	r3, [r7, #4]
 8003dae:	681b      	ldr	r3, [r3, #0]
 8003db0:	f022 0210 	bic.w	r2, r2, #16
 8003db4:	625a      	str	r2, [r3, #36]	; 0x24

    /* Disable the analog filter */
    hi2c->Instance->FLTR |= AnalogFilter;
 8003db6:	687b      	ldr	r3, [r7, #4]
 8003db8:	681b      	ldr	r3, [r3, #0]
 8003dba:	6a59      	ldr	r1, [r3, #36]	; 0x24
 8003dbc:	687b      	ldr	r3, [r7, #4]
 8003dbe:	681b      	ldr	r3, [r3, #0]
 8003dc0:	683a      	ldr	r2, [r7, #0]
 8003dc2:	430a      	orrs	r2, r1
 8003dc4:	625a      	str	r2, [r3, #36]	; 0x24

    __HAL_I2C_ENABLE(hi2c);
 8003dc6:	687b      	ldr	r3, [r7, #4]
 8003dc8:	681b      	ldr	r3, [r3, #0]
 8003dca:	681a      	ldr	r2, [r3, #0]
 8003dcc:	687b      	ldr	r3, [r7, #4]
 8003dce:	681b      	ldr	r3, [r3, #0]
 8003dd0:	f042 0201 	orr.w	r2, r2, #1
 8003dd4:	601a      	str	r2, [r3, #0]

    hi2c->State = HAL_I2C_STATE_READY;
 8003dd6:	687b      	ldr	r3, [r7, #4]
 8003dd8:	2220      	movs	r2, #32
 8003dda:	f883 203d 	strb.w	r2, [r3, #61]	; 0x3d

    return HAL_OK;
 8003dde:	2300      	movs	r3, #0
 8003de0:	e000      	b.n	8003de4 <HAL_I2CEx_ConfigAnalogFilter+0x6c>
  }
  else
  {
    return HAL_BUSY;
 8003de2:	2302      	movs	r3, #2
  }
}
 8003de4:	4618      	mov	r0, r3
 8003de6:	370c      	adds	r7, #12
 8003de8:	46bd      	mov	sp, r7
 8003dea:	f85d 7b04 	ldr.w	r7, [sp], #4
 8003dee:	4770      	bx	lr

08003df0 <HAL_I2CEx_ConfigDigitalFilter>:
  *                the configuration information for the specified I2Cx peripheral.
  * @param  DigitalFilter Coefficient of digital noise filter between 0x00 and 0x0F.
  * @retval HAL status
  */
HAL_StatusTypeDef HAL_I2CEx_ConfigDigitalFilter(I2C_HandleTypeDef *hi2c, uint32_t DigitalFilter)
{
 8003df0:	b480      	push	{r7}
 8003df2:	b085      	sub	sp, #20
 8003df4:	af00      	add	r7, sp, #0
 8003df6:	6078      	str	r0, [r7, #4]
 8003df8:	6039      	str	r1, [r7, #0]
  uint16_t tmpreg = 0;
 8003dfa:	2300      	movs	r3, #0
 8003dfc:	81fb      	strh	r3, [r7, #14]

  /* Check the parameters */
  assert_param(IS_I2C_ALL_INSTANCE(hi2c->Instance));
  assert_param(IS_I2C_DIGITAL_FILTER(DigitalFilter));

  if (hi2c->State == HAL_I2C_STATE_READY)
 8003dfe:	687b      	ldr	r3, [r7, #4]
 8003e00:	f893 303d 	ldrb.w	r3, [r3, #61]	; 0x3d
 8003e04:	b2db      	uxtb	r3, r3
 8003e06:	2b20      	cmp	r3, #32
 8003e08:	d12a      	bne.n	8003e60 <HAL_I2CEx_ConfigDigitalFilter+0x70>
  {
    hi2c->State = HAL_I2C_STATE_BUSY;
 8003e0a:	687b      	ldr	r3, [r7, #4]
 8003e0c:	2224      	movs	r2, #36	; 0x24
 8003e0e:	f883 203d 	strb.w	r2, [r3, #61]	; 0x3d

    /* Disable the selected I2C peripheral */
    __HAL_I2C_DISABLE(hi2c);
 8003e12:	687b      	ldr	r3, [r7, #4]
 8003e14:	681b      	ldr	r3, [r3, #0]
 8003e16:	681a      	ldr	r2, [r3, #0]
 8003e18:	687b      	ldr	r3, [r7, #4]
 8003e1a:	681b      	ldr	r3, [r3, #0]
 8003e1c:	f022 0201 	bic.w	r2, r2, #1
 8003e20:	601a      	str	r2, [r3, #0]

    /* Get the old register value */
    tmpreg = hi2c->Instance->FLTR;
 8003e22:	687b      	ldr	r3, [r7, #4]
 8003e24:	681b      	ldr	r3, [r3, #0]
 8003e26:	6a5b      	ldr	r3, [r3, #36]	; 0x24
 8003e28:	81fb      	strh	r3, [r7, #14]

    /* Reset I2Cx DNF bit [3:0] */
    tmpreg &= ~(I2C_FLTR_DNF);
 8003e2a:	89fb      	ldrh	r3, [r7, #14]
 8003e2c:	f023 030f 	bic.w	r3, r3, #15
 8003e30:	81fb      	strh	r3, [r7, #14]

    /* Set I2Cx DNF coefficient */
    tmpreg |= DigitalFilter;
 8003e32:	683b      	ldr	r3, [r7, #0]
 8003e34:	b29a      	uxth	r2, r3
 8003e36:	89fb      	ldrh	r3, [r7, #14]
 8003e38:	4313      	orrs	r3, r2
 8003e3a:	81fb      	strh	r3, [r7, #14]

    /* Store the new register value */
    hi2c->Instance->FLTR = tmpreg;
 8003e3c:	687b      	ldr	r3, [r7, #4]
 8003e3e:	681b      	ldr	r3, [r3, #0]
 8003e40:	89fa      	ldrh	r2, [r7, #14]
 8003e42:	625a      	str	r2, [r3, #36]	; 0x24

    __HAL_I2C_ENABLE(hi2c);
 8003e44:	687b      	ldr	r3, [r7, #4]
 8003e46:	681b      	ldr	r3, [r3, #0]
 8003e48:	681a      	ldr	r2, [r3, #0]
 8003e4a:	687b      	ldr	r3, [r7, #4]
 8003e4c:	681b      	ldr	r3, [r3, #0]
 8003e4e:	f042 0201 	orr.w	r2, r2, #1
 8003e52:	601a      	str	r2, [r3, #0]

    hi2c->State = HAL_I2C_STATE_READY;
 8003e54:	687b      	ldr	r3, [r7, #4]
 8003e56:	2220      	movs	r2, #32
 8003e58:	f883 203d 	strb.w	r2, [r3, #61]	; 0x3d

    return HAL_OK;
 8003e5c:	2300      	movs	r3, #0
 8003e5e:	e000      	b.n	8003e62 <HAL_I2CEx_ConfigDigitalFilter+0x72>
  }
  else
  {
    return HAL_BUSY;
 8003e60:	2302      	movs	r3, #2
  }
}
 8003e62:	4618      	mov	r0, r3
 8003e64:	3714      	adds	r7, #20
 8003e66:	46bd      	mov	sp, r7
 8003e68:	f85d 7b04 	ldr.w	r7, [sp], #4
 8003e6c:	4770      	bx	lr
	...

08003e70 <HAL_RCC_OscConfig>:
  *         supported by this API. User should request a transition to HSE Off
  *         first and then HSE On or HSE Bypass.
  * @retval HAL status
  */
__weak HAL_StatusTypeDef HAL_RCC_OscConfig(RCC_OscInitTypeDef  *RCC_OscInitStruct)
{
 8003e70:	b580      	push	{r7, lr}
 8003e72:	b086      	sub	sp, #24
 8003e74:	af00      	add	r7, sp, #0
 8003e76:	6078      	str	r0, [r7, #4]
  uint32_t tickstart, pll_config;

  /* Check Null pointer */
  if(RCC_OscInitStruct == NULL)
 8003e78:	687b      	ldr	r3, [r7, #4]
 8003e7a:	2b00      	cmp	r3, #0
 8003e7c:	d101      	bne.n	8003e82 <HAL_RCC_OscConfig+0x12>
  {
    return HAL_ERROR;
 8003e7e:	2301      	movs	r3, #1
 8003e80:	e267      	b.n	8004352 <HAL_RCC_OscConfig+0x4e2>
  }

  /* Check the parameters */
  assert_param(IS_RCC_OSCILLATORTYPE(RCC_OscInitStruct->OscillatorType));
  /*------------------------------- HSE Configuration ------------------------*/
  if(((RCC_OscInitStruct->OscillatorType) & RCC_OSCILLATORTYPE_HSE) == RCC_OSCILLATORTYPE_HSE)
 8003e82:	687b      	ldr	r3, [r7, #4]
 8003e84:	681b      	ldr	r3, [r3, #0]
 8003e86:	f003 0301 	and.w	r3, r3, #1
 8003e8a:	2b00      	cmp	r3, #0
 8003e8c:	d075      	beq.n	8003f7a <HAL_RCC_OscConfig+0x10a>
  {
    /* Check the parameters */
    assert_param(IS_RCC_HSE(RCC_OscInitStruct->HSEState));
    /* When the HSE is used as system clock or clock source for PLL in these cases HSE will not disabled */
    if((__HAL_RCC_GET_SYSCLK_SOURCE() == RCC_CFGR_SWS_HSE) ||\
 8003e8e:	4b88      	ldr	r3, [pc, #544]	; (80040b0 <HAL_RCC_OscConfig+0x240>)
 8003e90:	689b      	ldr	r3, [r3, #8]
 8003e92:	f003 030c 	and.w	r3, r3, #12
 8003e96:	2b04      	cmp	r3, #4
 8003e98:	d00c      	beq.n	8003eb4 <HAL_RCC_OscConfig+0x44>
      ((__HAL_RCC_GET_SYSCLK_SOURCE() == RCC_CFGR_SWS_PLL) && ((RCC->PLLCFGR & RCC_PLLCFGR_PLLSRC) == RCC_PLLCFGR_PLLSRC_HSE)))
 8003e9a:	4b85      	ldr	r3, [pc, #532]	; (80040b0 <HAL_RCC_OscConfig+0x240>)
 8003e9c:	689b      	ldr	r3, [r3, #8]
 8003e9e:	f003 030c 	and.w	r3, r3, #12
    if((__HAL_RCC_GET_SYSCLK_SOURCE() == RCC_CFGR_SWS_HSE) ||\
 8003ea2:	2b08      	cmp	r3, #8
 8003ea4:	d112      	bne.n	8003ecc <HAL_RCC_OscConfig+0x5c>
      ((__HAL_RCC_GET_SYSCLK_SOURCE() == RCC_CFGR_SWS_PLL) && ((RCC->PLLCFGR & RCC_PLLCFGR_PLLSRC) == RCC_PLLCFGR_PLLSRC_HSE)))
 8003ea6:	4b82      	ldr	r3, [pc, #520]	; (80040b0 <HAL_RCC_OscConfig+0x240>)
 8003ea8:	685b      	ldr	r3, [r3, #4]
 8003eaa:	f403 0380 	and.w	r3, r3, #4194304	; 0x400000
 8003eae:	f5b3 0f80 	cmp.w	r3, #4194304	; 0x400000
 8003eb2:	d10b      	bne.n	8003ecc <HAL_RCC_OscConfig+0x5c>
    {
      if((__HAL_RCC_GET_FLAG(RCC_FLAG_HSERDY) != RESET) && (RCC_OscInitStruct->HSEState == RCC_HSE_OFF))
 8003eb4:	4b7e      	ldr	r3, [pc, #504]	; (80040b0 <HAL_RCC_OscConfig+0x240>)
 8003eb6:	681b      	ldr	r3, [r3, #0]
 8003eb8:	f403 3300 	and.w	r3, r3, #131072	; 0x20000
 8003ebc:	2b00      	cmp	r3, #0
 8003ebe:	d05b      	beq.n	8003f78 <HAL_RCC_OscConfig+0x108>
 8003ec0:	687b      	ldr	r3, [r7, #4]
 8003ec2:	685b      	ldr	r3, [r3, #4]
 8003ec4:	2b00      	cmp	r3, #0
 8003ec6:	d157      	bne.n	8003f78 <HAL_RCC_OscConfig+0x108>
      {
        return HAL_ERROR;
 8003ec8:	2301      	movs	r3, #1
 8003eca:	e242      	b.n	8004352 <HAL_RCC_OscConfig+0x4e2>
      }
    }
    else
    {
      /* Set the new HSE configuration ---------------------------------------*/
      __HAL_RCC_HSE_CONFIG(RCC_OscInitStruct->HSEState);
 8003ecc:	687b      	ldr	r3, [r7, #4]
 8003ece:	685b      	ldr	r3, [r3, #4]
 8003ed0:	f5b3 3f80 	cmp.w	r3, #65536	; 0x10000
 8003ed4:	d106      	bne.n	8003ee4 <HAL_RCC_OscConfig+0x74>
 8003ed6:	4b76      	ldr	r3, [pc, #472]	; (80040b0 <HAL_RCC_OscConfig+0x240>)
 8003ed8:	681b      	ldr	r3, [r3, #0]
 8003eda:	4a75      	ldr	r2, [pc, #468]	; (80040b0 <HAL_RCC_OscConfig+0x240>)
 8003edc:	f443 3380 	orr.w	r3, r3, #65536	; 0x10000
 8003ee0:	6013      	str	r3, [r2, #0]
 8003ee2:	e01d      	b.n	8003f20 <HAL_RCC_OscConfig+0xb0>
 8003ee4:	687b      	ldr	r3, [r7, #4]
 8003ee6:	685b      	ldr	r3, [r3, #4]
 8003ee8:	f5b3 2fa0 	cmp.w	r3, #327680	; 0x50000
 8003eec:	d10c      	bne.n	8003f08 <HAL_RCC_OscConfig+0x98>
 8003eee:	4b70      	ldr	r3, [pc, #448]	; (80040b0 <HAL_RCC_OscConfig+0x240>)
 8003ef0:	681b      	ldr	r3, [r3, #0]
 8003ef2:	4a6f      	ldr	r2, [pc, #444]	; (80040b0 <HAL_RCC_OscConfig+0x240>)
 8003ef4:	f443 2380 	orr.w	r3, r3, #262144	; 0x40000
 8003ef8:	6013      	str	r3, [r2, #0]
 8003efa:	4b6d      	ldr	r3, [pc, #436]	; (80040b0 <HAL_RCC_OscConfig+0x240>)
 8003efc:	681b      	ldr	r3, [r3, #0]
 8003efe:	4a6c      	ldr	r2, [pc, #432]	; (80040b0 <HAL_RCC_OscConfig+0x240>)
 8003f00:	f443 3380 	orr.w	r3, r3, #65536	; 0x10000
 8003f04:	6013      	str	r3, [r2, #0]
 8003f06:	e00b      	b.n	8003f20 <HAL_RCC_OscConfig+0xb0>
 8003f08:	4b69      	ldr	r3, [pc, #420]	; (80040b0 <HAL_RCC_OscConfig+0x240>)
 8003f0a:	681b      	ldr	r3, [r3, #0]
 8003f0c:	4a68      	ldr	r2, [pc, #416]	; (80040b0 <HAL_RCC_OscConfig+0x240>)
 8003f0e:	f423 3380 	bic.w	r3, r3, #65536	; 0x10000
 8003f12:	6013      	str	r3, [r2, #0]
 8003f14:	4b66      	ldr	r3, [pc, #408]	; (80040b0 <HAL_RCC_OscConfig+0x240>)
 8003f16:	681b      	ldr	r3, [r3, #0]
 8003f18:	4a65      	ldr	r2, [pc, #404]	; (80040b0 <HAL_RCC_OscConfig+0x240>)
 8003f1a:	f423 2380 	bic.w	r3, r3, #262144	; 0x40000
 8003f1e:	6013      	str	r3, [r2, #0]

      /* Check the HSE State */
      if((RCC_OscInitStruct->HSEState) != RCC_HSE_OFF)
 8003f20:	687b      	ldr	r3, [r7, #4]
 8003f22:	685b      	ldr	r3, [r3, #4]
 8003f24:	2b00      	cmp	r3, #0
 8003f26:	d013      	beq.n	8003f50 <HAL_RCC_OscConfig+0xe0>
      {
        /* Get Start Tick */
        tickstart = HAL_GetTick();
 8003f28:	f7fe fb78 	bl	800261c <HAL_GetTick>
 8003f2c:	6138      	str	r0, [r7, #16]

        /* Wait till HSE is ready */
        while(__HAL_RCC_GET_FLAG(RCC_FLAG_HSERDY) == RESET)
 8003f2e:	e008      	b.n	8003f42 <HAL_RCC_OscConfig+0xd2>
        {
          if((HAL_GetTick() - tickstart ) > HSE_TIMEOUT_VALUE)
 8003f30:	f7fe fb74 	bl	800261c <HAL_GetTick>
 8003f34:	4602      	mov	r2, r0
 8003f36:	693b      	ldr	r3, [r7, #16]
 8003f38:	1ad3      	subs	r3, r2, r3
 8003f3a:	2b64      	cmp	r3, #100	; 0x64
 8003f3c:	d901      	bls.n	8003f42 <HAL_RCC_OscConfig+0xd2>
          {
            return HAL_TIMEOUT;
 8003f3e:	2303      	movs	r3, #3
 8003f40:	e207      	b.n	8004352 <HAL_RCC_OscConfig+0x4e2>
        while(__HAL_RCC_GET_FLAG(RCC_FLAG_HSERDY) == RESET)
 8003f42:	4b5b      	ldr	r3, [pc, #364]	; (80040b0 <HAL_RCC_OscConfig+0x240>)
 8003f44:	681b      	ldr	r3, [r3, #0]
 8003f46:	f403 3300 	and.w	r3, r3, #131072	; 0x20000
 8003f4a:	2b00      	cmp	r3, #0
 8003f4c:	d0f0      	beq.n	8003f30 <HAL_RCC_OscConfig+0xc0>
 8003f4e:	e014      	b.n	8003f7a <HAL_RCC_OscConfig+0x10a>
        }
      }
      else
      {
        /* Get Start Tick */
        tickstart = HAL_GetTick();
 8003f50:	f7fe fb64 	bl	800261c <HAL_GetTick>
 8003f54:	6138      	str	r0, [r7, #16]

        /* Wait till HSE is bypassed or disabled */
        while(__HAL_RCC_GET_FLAG(RCC_FLAG_HSERDY) != RESET)
 8003f56:	e008      	b.n	8003f6a <HAL_RCC_OscConfig+0xfa>
        {
          if((HAL_GetTick() - tickstart ) > HSE_TIMEOUT_VALUE)
 8003f58:	f7fe fb60 	bl	800261c <HAL_GetTick>
 8003f5c:	4602      	mov	r2, r0
 8003f5e:	693b      	ldr	r3, [r7, #16]
 8003f60:	1ad3      	subs	r3, r2, r3
 8003f62:	2b64      	cmp	r3, #100	; 0x64
 8003f64:	d901      	bls.n	8003f6a <HAL_RCC_OscConfig+0xfa>
          {
            return HAL_TIMEOUT;
 8003f66:	2303      	movs	r3, #3
 8003f68:	e1f3      	b.n	8004352 <HAL_RCC_OscConfig+0x4e2>
        while(__HAL_RCC_GET_FLAG(RCC_FLAG_HSERDY) != RESET)
 8003f6a:	4b51      	ldr	r3, [pc, #324]	; (80040b0 <HAL_RCC_OscConfig+0x240>)
 8003f6c:	681b      	ldr	r3, [r3, #0]
 8003f6e:	f403 3300 	and.w	r3, r3, #131072	; 0x20000
 8003f72:	2b00      	cmp	r3, #0
 8003f74:	d1f0      	bne.n	8003f58 <HAL_RCC_OscConfig+0xe8>
 8003f76:	e000      	b.n	8003f7a <HAL_RCC_OscConfig+0x10a>
      if((__HAL_RCC_GET_FLAG(RCC_FLAG_HSERDY) != RESET) && (RCC_OscInitStruct->HSEState == RCC_HSE_OFF))
 8003f78:	bf00      	nop
        }
      }
    }
  }
  /*----------------------------- HSI Configuration --------------------------*/
  if(((RCC_OscInitStruct->OscillatorType) & RCC_OSCILLATORTYPE_HSI) == RCC_OSCILLATORTYPE_HSI)
 8003f7a:	687b      	ldr	r3, [r7, #4]
 8003f7c:	681b      	ldr	r3, [r3, #0]
 8003f7e:	f003 0302 	and.w	r3, r3, #2
 8003f82:	2b00      	cmp	r3, #0
 8003f84:	d063      	beq.n	800404e <HAL_RCC_OscConfig+0x1de>
    /* Check the parameters */
    assert_param(IS_RCC_HSI(RCC_OscInitStruct->HSIState));
    assert_param(IS_RCC_CALIBRATION_VALUE(RCC_OscInitStruct->HSICalibrationValue));

    /* Check if HSI is used as system clock or as PLL source when PLL is selected as system clock */
    if((__HAL_RCC_GET_SYSCLK_SOURCE() == RCC_CFGR_SWS_HSI) ||\
 8003f86:	4b4a      	ldr	r3, [pc, #296]	; (80040b0 <HAL_RCC_OscConfig+0x240>)
 8003f88:	689b      	ldr	r3, [r3, #8]
 8003f8a:	f003 030c 	and.w	r3, r3, #12
 8003f8e:	2b00      	cmp	r3, #0
 8003f90:	d00b      	beq.n	8003faa <HAL_RCC_OscConfig+0x13a>
      ((__HAL_RCC_GET_SYSCLK_SOURCE() == RCC_CFGR_SWS_PLL) && ((RCC->PLLCFGR & RCC_PLLCFGR_PLLSRC) == RCC_PLLCFGR_PLLSRC_HSI)))
 8003f92:	4b47      	ldr	r3, [pc, #284]	; (80040b0 <HAL_RCC_OscConfig+0x240>)
 8003f94:	689b      	ldr	r3, [r3, #8]
 8003f96:	f003 030c 	and.w	r3, r3, #12
    if((__HAL_RCC_GET_SYSCLK_SOURCE() == RCC_CFGR_SWS_HSI) ||\
 8003f9a:	2b08      	cmp	r3, #8
 8003f9c:	d11c      	bne.n	8003fd8 <HAL_RCC_OscConfig+0x168>
      ((__HAL_RCC_GET_SYSCLK_SOURCE() == RCC_CFGR_SWS_PLL) && ((RCC->PLLCFGR & RCC_PLLCFGR_PLLSRC) == RCC_PLLCFGR_PLLSRC_HSI)))
 8003f9e:	4b44      	ldr	r3, [pc, #272]	; (80040b0 <HAL_RCC_OscConfig+0x240>)
 8003fa0:	685b      	ldr	r3, [r3, #4]
 8003fa2:	f403 0380 	and.w	r3, r3, #4194304	; 0x400000
 8003fa6:	2b00      	cmp	r3, #0
 8003fa8:	d116      	bne.n	8003fd8 <HAL_RCC_OscConfig+0x168>
    {
      /* When HSI is used as system clock it will not disabled */
      if((__HAL_RCC_GET_FLAG(RCC_FLAG_HSIRDY) != RESET) && (RCC_OscInitStruct->HSIState != RCC_HSI_ON))
 8003faa:	4b41      	ldr	r3, [pc, #260]	; (80040b0 <HAL_RCC_OscConfig+0x240>)
 8003fac:	681b      	ldr	r3, [r3, #0]
 8003fae:	f003 0302 	and.w	r3, r3, #2
 8003fb2:	2b00      	cmp	r3, #0
 8003fb4:	d005      	beq.n	8003fc2 <HAL_RCC_OscConfig+0x152>
 8003fb6:	687b      	ldr	r3, [r7, #4]
 8003fb8:	68db      	ldr	r3, [r3, #12]
 8003fba:	2b01      	cmp	r3, #1
 8003fbc:	d001      	beq.n	8003fc2 <HAL_RCC_OscConfig+0x152>
      {
        return HAL_ERROR;
 8003fbe:	2301      	movs	r3, #1
 8003fc0:	e1c7      	b.n	8004352 <HAL_RCC_OscConfig+0x4e2>
      }
      /* Otherwise, just the calibration is allowed */
      else
      {
        /* Adjusts the Internal High Speed oscillator (HSI) calibration value.*/
        __HAL_RCC_HSI_CALIBRATIONVALUE_ADJUST(RCC_OscInitStruct->HSICalibrationValue);
 8003fc2:	4b3b      	ldr	r3, [pc, #236]	; (80040b0 <HAL_RCC_OscConfig+0x240>)
 8003fc4:	681b      	ldr	r3, [r3, #0]
 8003fc6:	f023 02f8 	bic.w	r2, r3, #248	; 0xf8
 8003fca:	687b      	ldr	r3, [r7, #4]
 8003fcc:	691b      	ldr	r3, [r3, #16]
 8003fce:	00db      	lsls	r3, r3, #3
 8003fd0:	4937      	ldr	r1, [pc, #220]	; (80040b0 <HAL_RCC_OscConfig+0x240>)
 8003fd2:	4313      	orrs	r3, r2
 8003fd4:	600b      	str	r3, [r1, #0]
      if((__HAL_RCC_GET_FLAG(RCC_FLAG_HSIRDY) != RESET) && (RCC_OscInitStruct->HSIState != RCC_HSI_ON))
 8003fd6:	e03a      	b.n	800404e <HAL_RCC_OscConfig+0x1de>
      }
    }
    else
    {
      /* Check the HSI State */
      if((RCC_OscInitStruct->HSIState)!= RCC_HSI_OFF)
 8003fd8:	687b      	ldr	r3, [r7, #4]
 8003fda:	68db      	ldr	r3, [r3, #12]
 8003fdc:	2b00      	cmp	r3, #0
 8003fde:	d020      	beq.n	8004022 <HAL_RCC_OscConfig+0x1b2>
      {
        /* Enable the Internal High Speed oscillator (HSI). */
        __HAL_RCC_HSI_ENABLE();
 8003fe0:	4b34      	ldr	r3, [pc, #208]	; (80040b4 <HAL_RCC_OscConfig+0x244>)
 8003fe2:	2201      	movs	r2, #1
 8003fe4:	601a      	str	r2, [r3, #0]

        /* Get Start Tick*/
        tickstart = HAL_GetTick();
 8003fe6:	f7fe fb19 	bl	800261c <HAL_GetTick>
 8003fea:	6138      	str	r0, [r7, #16]

        /* Wait till HSI is ready */
        while(__HAL_RCC_GET_FLAG(RCC_FLAG_HSIRDY) == RESET)
 8003fec:	e008      	b.n	8004000 <HAL_RCC_OscConfig+0x190>
        {
          if((HAL_GetTick() - tickstart ) > HSI_TIMEOUT_VALUE)
 8003fee:	f7fe fb15 	bl	800261c <HAL_GetTick>
 8003ff2:	4602      	mov	r2, r0
 8003ff4:	693b      	ldr	r3, [r7, #16]
 8003ff6:	1ad3      	subs	r3, r2, r3
 8003ff8:	2b02      	cmp	r3, #2
 8003ffa:	d901      	bls.n	8004000 <HAL_RCC_OscConfig+0x190>
          {
            return HAL_TIMEOUT;
 8003ffc:	2303      	movs	r3, #3
 8003ffe:	e1a8      	b.n	8004352 <HAL_RCC_OscConfig+0x4e2>
        while(__HAL_RCC_GET_FLAG(RCC_FLAG_HSIRDY) == RESET)
 8004000:	4b2b      	ldr	r3, [pc, #172]	; (80040b0 <HAL_RCC_OscConfig+0x240>)
 8004002:	681b      	ldr	r3, [r3, #0]
 8004004:	f003 0302 	and.w	r3, r3, #2
 8004008:	2b00      	cmp	r3, #0
 800400a:	d0f0      	beq.n	8003fee <HAL_RCC_OscConfig+0x17e>
          }
        }

        /* Adjusts the Internal High Speed oscillator (HSI) calibration value. */
        __HAL_RCC_HSI_CALIBRATIONVALUE_ADJUST(RCC_OscInitStruct->HSICalibrationValue);
 800400c:	4b28      	ldr	r3, [pc, #160]	; (80040b0 <HAL_RCC_OscConfig+0x240>)
 800400e:	681b      	ldr	r3, [r3, #0]
 8004010:	f023 02f8 	bic.w	r2, r3, #248	; 0xf8
 8004014:	687b      	ldr	r3, [r7, #4]
 8004016:	691b      	ldr	r3, [r3, #16]
 8004018:	00db      	lsls	r3, r3, #3
 800401a:	4925      	ldr	r1, [pc, #148]	; (80040b0 <HAL_RCC_OscConfig+0x240>)
 800401c:	4313      	orrs	r3, r2
 800401e:	600b      	str	r3, [r1, #0]
 8004020:	e015      	b.n	800404e <HAL_RCC_OscConfig+0x1de>
      }
      else
      {
        /* Disable the Internal High Speed oscillator (HSI). */
        __HAL_RCC_HSI_DISABLE();
 8004022:	4b24      	ldr	r3, [pc, #144]	; (80040b4 <HAL_RCC_OscConfig+0x244>)
 8004024:	2200      	movs	r2, #0
 8004026:	601a      	str	r2, [r3, #0]

        /* Get Start Tick*/
        tickstart = HAL_GetTick();
 8004028:	f7fe faf8 	bl	800261c <HAL_GetTick>
 800402c:	6138      	str	r0, [r7, #16]

        /* Wait till HSI is ready */
        while(__HAL_RCC_GET_FLAG(RCC_FLAG_HSIRDY) != RESET)
 800402e:	e008      	b.n	8004042 <HAL_RCC_OscConfig+0x1d2>
        {
          if((HAL_GetTick() - tickstart ) > HSI_TIMEOUT_VALUE)
 8004030:	f7fe faf4 	bl	800261c <HAL_GetTick>
 8004034:	4602      	mov	r2, r0
 8004036:	693b      	ldr	r3, [r7, #16]
 8004038:	1ad3      	subs	r3, r2, r3
 800403a:	2b02      	cmp	r3, #2
 800403c:	d901      	bls.n	8004042 <HAL_RCC_OscConfig+0x1d2>
          {
            return HAL_TIMEOUT;
 800403e:	2303      	movs	r3, #3
 8004040:	e187      	b.n	8004352 <HAL_RCC_OscConfig+0x4e2>
        while(__HAL_RCC_GET_FLAG(RCC_FLAG_HSIRDY) != RESET)
 8004042:	4b1b      	ldr	r3, [pc, #108]	; (80040b0 <HAL_RCC_OscConfig+0x240>)
 8004044:	681b      	ldr	r3, [r3, #0]
 8004046:	f003 0302 	and.w	r3, r3, #2
 800404a:	2b00      	cmp	r3, #0
 800404c:	d1f0      	bne.n	8004030 <HAL_RCC_OscConfig+0x1c0>
        }
      }
    }
  }
  /*------------------------------ LSI Configuration -------------------------*/
  if(((RCC_OscInitStruct->OscillatorType) & RCC_OSCILLATORTYPE_LSI) == RCC_OSCILLATORTYPE_LSI)
 800404e:	687b      	ldr	r3, [r7, #4]
 8004050:	681b      	ldr	r3, [r3, #0]
 8004052:	f003 0308 	and.w	r3, r3, #8
 8004056:	2b00      	cmp	r3, #0
 8004058:	d036      	beq.n	80040c8 <HAL_RCC_OscConfig+0x258>
  {
    /* Check the parameters */
    assert_param(IS_RCC_LSI(RCC_OscInitStruct->LSIState));

    /* Check the LSI State */
    if((RCC_OscInitStruct->LSIState)!= RCC_LSI_OFF)
 800405a:	687b      	ldr	r3, [r7, #4]
 800405c:	695b      	ldr	r3, [r3, #20]
 800405e:	2b00      	cmp	r3, #0
 8004060:	d016      	beq.n	8004090 <HAL_RCC_OscConfig+0x220>
    {
      /* Enable the Internal Low Speed oscillator (LSI). */
      __HAL_RCC_LSI_ENABLE();
 8004062:	4b15      	ldr	r3, [pc, #84]	; (80040b8 <HAL_RCC_OscConfig+0x248>)
 8004064:	2201      	movs	r2, #1
 8004066:	601a      	str	r2, [r3, #0]

      /* Get Start Tick*/
      tickstart = HAL_GetTick();
 8004068:	f7fe fad8 	bl	800261c <HAL_GetTick>
 800406c:	6138      	str	r0, [r7, #16]

      /* Wait till LSI is ready */
      while(__HAL_RCC_GET_FLAG(RCC_FLAG_LSIRDY) == RESET)
 800406e:	e008      	b.n	8004082 <HAL_RCC_OscConfig+0x212>
      {
        if((HAL_GetTick() - tickstart ) > LSI_TIMEOUT_VALUE)
 8004070:	f7fe fad4 	bl	800261c <HAL_GetTick>
 8004074:	4602      	mov	r2, r0
 8004076:	693b      	ldr	r3, [r7, #16]
 8004078:	1ad3      	subs	r3, r2, r3
 800407a:	2b02      	cmp	r3, #2
 800407c:	d901      	bls.n	8004082 <HAL_RCC_OscConfig+0x212>
        {
          return HAL_TIMEOUT;
 800407e:	2303      	movs	r3, #3
 8004080:	e167      	b.n	8004352 <HAL_RCC_OscConfig+0x4e2>
      while(__HAL_RCC_GET_FLAG(RCC_FLAG_LSIRDY) == RESET)
 8004082:	4b0b      	ldr	r3, [pc, #44]	; (80040b0 <HAL_RCC_OscConfig+0x240>)
 8004084:	6f5b      	ldr	r3, [r3, #116]	; 0x74
 8004086:	f003 0302 	and.w	r3, r3, #2
 800408a:	2b00      	cmp	r3, #0
 800408c:	d0f0      	beq.n	8004070 <HAL_RCC_OscConfig+0x200>
 800408e:	e01b      	b.n	80040c8 <HAL_RCC_OscConfig+0x258>
      }
    }
    else
    {
      /* Disable the Internal Low Speed oscillator (LSI). */
      __HAL_RCC_LSI_DISABLE();
 8004090:	4b09      	ldr	r3, [pc, #36]	; (80040b8 <HAL_RCC_OscConfig+0x248>)
 8004092:	2200      	movs	r2, #0
 8004094:	601a      	str	r2, [r3, #0]

      /* Get Start Tick */
      tickstart = HAL_GetTick();
 8004096:	f7fe fac1 	bl	800261c <HAL_GetTick>
 800409a:	6138      	str	r0, [r7, #16]

      /* Wait till LSI is ready */
      while(__HAL_RCC_GET_FLAG(RCC_FLAG_LSIRDY) != RESET)
 800409c:	e00e      	b.n	80040bc <HAL_RCC_OscConfig+0x24c>
      {
        if((HAL_GetTick() - tickstart ) > LSI_TIMEOUT_VALUE)
 800409e:	f7fe fabd 	bl	800261c <HAL_GetTick>
 80040a2:	4602      	mov	r2, r0
 80040a4:	693b      	ldr	r3, [r7, #16]
 80040a6:	1ad3      	subs	r3, r2, r3
 80040a8:	2b02      	cmp	r3, #2
 80040aa:	d907      	bls.n	80040bc <HAL_RCC_OscConfig+0x24c>
        {
          return HAL_TIMEOUT;
 80040ac:	2303      	movs	r3, #3
 80040ae:	e150      	b.n	8004352 <HAL_RCC_OscConfig+0x4e2>
 80040b0:	40023800 	.word	0x40023800
 80040b4:	42470000 	.word	0x42470000
 80040b8:	42470e80 	.word	0x42470e80
      while(__HAL_RCC_GET_FLAG(RCC_FLAG_LSIRDY) != RESET)
 80040bc:	4b88      	ldr	r3, [pc, #544]	; (80042e0 <HAL_RCC_OscConfig+0x470>)
 80040be:	6f5b      	ldr	r3, [r3, #116]	; 0x74
 80040c0:	f003 0302 	and.w	r3, r3, #2
 80040c4:	2b00      	cmp	r3, #0
 80040c6:	d1ea      	bne.n	800409e <HAL_RCC_OscConfig+0x22e>
        }
      }
    }
  }
  /*------------------------------ LSE Configuration -------------------------*/
  if(((RCC_OscInitStruct->OscillatorType) & RCC_OSCILLATORTYPE_LSE) == RCC_OSCILLATORTYPE_LSE)
 80040c8:	687b      	ldr	r3, [r7, #4]
 80040ca:	681b      	ldr	r3, [r3, #0]
 80040cc:	f003 0304 	and.w	r3, r3, #4
 80040d0:	2b00      	cmp	r3, #0
 80040d2:	f000 8097 	beq.w	8004204 <HAL_RCC_OscConfig+0x394>
  {
    FlagStatus       pwrclkchanged = RESET;
 80040d6:	2300      	movs	r3, #0
 80040d8:	75fb      	strb	r3, [r7, #23]
    /* Check the parameters */
    assert_param(IS_RCC_LSE(RCC_OscInitStruct->LSEState));

    /* Update LSE configuration in Backup Domain control register    */
    /* Requires to enable write access to Backup Domain of necessary */
    if(__HAL_RCC_PWR_IS_CLK_DISABLED())
 80040da:	4b81      	ldr	r3, [pc, #516]	; (80042e0 <HAL_RCC_OscConfig+0x470>)
 80040dc:	6c1b      	ldr	r3, [r3, #64]	; 0x40
 80040de:	f003 5380 	and.w	r3, r3, #268435456	; 0x10000000
 80040e2:	2b00      	cmp	r3, #0
 80040e4:	d10f      	bne.n	8004106 <HAL_RCC_OscConfig+0x296>
    {
      __HAL_RCC_PWR_CLK_ENABLE();
 80040e6:	2300      	movs	r3, #0
 80040e8:	60bb      	str	r3, [r7, #8]
 80040ea:	4b7d      	ldr	r3, [pc, #500]	; (80042e0 <HAL_RCC_OscConfig+0x470>)
 80040ec:	6c1b      	ldr	r3, [r3, #64]	; 0x40
 80040ee:	4a7c      	ldr	r2, [pc, #496]	; (80042e0 <HAL_RCC_OscConfig+0x470>)
 80040f0:	f043 5380 	orr.w	r3, r3, #268435456	; 0x10000000
 80040f4:	6413      	str	r3, [r2, #64]	; 0x40
 80040f6:	4b7a      	ldr	r3, [pc, #488]	; (80042e0 <HAL_RCC_OscConfig+0x470>)
 80040f8:	6c1b      	ldr	r3, [r3, #64]	; 0x40
 80040fa:	f003 5380 	and.w	r3, r3, #268435456	; 0x10000000
 80040fe:	60bb      	str	r3, [r7, #8]
 8004100:	68bb      	ldr	r3, [r7, #8]
      pwrclkchanged = SET;
 8004102:	2301      	movs	r3, #1
 8004104:	75fb      	strb	r3, [r7, #23]
    }

    if(HAL_IS_BIT_CLR(PWR->CR, PWR_CR_DBP))
 8004106:	4b77      	ldr	r3, [pc, #476]	; (80042e4 <HAL_RCC_OscConfig+0x474>)
 8004108:	681b      	ldr	r3, [r3, #0]
 800410a:	f403 7380 	and.w	r3, r3, #256	; 0x100
 800410e:	2b00      	cmp	r3, #0
 8004110:	d118      	bne.n	8004144 <HAL_RCC_OscConfig+0x2d4>
    {
      /* Enable write access to Backup domain */
      SET_BIT(PWR->CR, PWR_CR_DBP);
 8004112:	4b74      	ldr	r3, [pc, #464]	; (80042e4 <HAL_RCC_OscConfig+0x474>)
 8004114:	681b      	ldr	r3, [r3, #0]
 8004116:	4a73      	ldr	r2, [pc, #460]	; (80042e4 <HAL_RCC_OscConfig+0x474>)
 8004118:	f443 7380 	orr.w	r3, r3, #256	; 0x100
 800411c:	6013      	str	r3, [r2, #0]

      /* Wait for Backup domain Write protection disable */
      tickstart = HAL_GetTick();
 800411e:	f7fe fa7d 	bl	800261c <HAL_GetTick>
 8004122:	6138      	str	r0, [r7, #16]

      while(HAL_IS_BIT_CLR(PWR->CR, PWR_CR_DBP))
 8004124:	e008      	b.n	8004138 <HAL_RCC_OscConfig+0x2c8>
      {
        if((HAL_GetTick() - tickstart) > RCC_DBP_TIMEOUT_VALUE)
 8004126:	f7fe fa79 	bl	800261c <HAL_GetTick>
 800412a:	4602      	mov	r2, r0
 800412c:	693b      	ldr	r3, [r7, #16]
 800412e:	1ad3      	subs	r3, r2, r3
 8004130:	2b02      	cmp	r3, #2
 8004132:	d901      	bls.n	8004138 <HAL_RCC_OscConfig+0x2c8>
        {
          return HAL_TIMEOUT;
 8004134:	2303      	movs	r3, #3
 8004136:	e10c      	b.n	8004352 <HAL_RCC_OscConfig+0x4e2>
      while(HAL_IS_BIT_CLR(PWR->CR, PWR_CR_DBP))
 8004138:	4b6a      	ldr	r3, [pc, #424]	; (80042e4 <HAL_RCC_OscConfig+0x474>)
 800413a:	681b      	ldr	r3, [r3, #0]
 800413c:	f403 7380 	and.w	r3, r3, #256	; 0x100
 8004140:	2b00      	cmp	r3, #0
 8004142:	d0f0      	beq.n	8004126 <HAL_RCC_OscConfig+0x2b6>
        }
      }
    }

    /* Set the new LSE configuration -----------------------------------------*/
    __HAL_RCC_LSE_CONFIG(RCC_OscInitStruct->LSEState);
 8004144:	687b      	ldr	r3, [r7, #4]
 8004146:	689b      	ldr	r3, [r3, #8]
 8004148:	2b01      	cmp	r3, #1
 800414a:	d106      	bne.n	800415a <HAL_RCC_OscConfig+0x2ea>
 800414c:	4b64      	ldr	r3, [pc, #400]	; (80042e0 <HAL_RCC_OscConfig+0x470>)
 800414e:	6f1b      	ldr	r3, [r3, #112]	; 0x70
 8004150:	4a63      	ldr	r2, [pc, #396]	; (80042e0 <HAL_RCC_OscConfig+0x470>)
 8004152:	f043 0301 	orr.w	r3, r3, #1
 8004156:	6713      	str	r3, [r2, #112]	; 0x70
 8004158:	e01c      	b.n	8004194 <HAL_RCC_OscConfig+0x324>
 800415a:	687b      	ldr	r3, [r7, #4]
 800415c:	689b      	ldr	r3, [r3, #8]
 800415e:	2b05      	cmp	r3, #5
 8004160:	d10c      	bne.n	800417c <HAL_RCC_OscConfig+0x30c>
 8004162:	4b5f      	ldr	r3, [pc, #380]	; (80042e0 <HAL_RCC_OscConfig+0x470>)
 8004164:	6f1b      	ldr	r3, [r3, #112]	; 0x70
 8004166:	4a5e      	ldr	r2, [pc, #376]	; (80042e0 <HAL_RCC_OscConfig+0x470>)
 8004168:	f043 0304 	orr.w	r3, r3, #4
 800416c:	6713      	str	r3, [r2, #112]	; 0x70
 800416e:	4b5c      	ldr	r3, [pc, #368]	; (80042e0 <HAL_RCC_OscConfig+0x470>)
 8004170:	6f1b      	ldr	r3, [r3, #112]	; 0x70
 8004172:	4a5b      	ldr	r2, [pc, #364]	; (80042e0 <HAL_RCC_OscConfig+0x470>)
 8004174:	f043 0301 	orr.w	r3, r3, #1
 8004178:	6713      	str	r3, [r2, #112]	; 0x70
 800417a:	e00b      	b.n	8004194 <HAL_RCC_OscConfig+0x324>
 800417c:	4b58      	ldr	r3, [pc, #352]	; (80042e0 <HAL_RCC_OscConfig+0x470>)
 800417e:	6f1b      	ldr	r3, [r3, #112]	; 0x70
 8004180:	4a57      	ldr	r2, [pc, #348]	; (80042e0 <HAL_RCC_OscConfig+0x470>)
 8004182:	f023 0301 	bic.w	r3, r3, #1
 8004186:	6713      	str	r3, [r2, #112]	; 0x70
 8004188:	4b55      	ldr	r3, [pc, #340]	; (80042e0 <HAL_RCC_OscConfig+0x470>)
 800418a:	6f1b      	ldr	r3, [r3, #112]	; 0x70
 800418c:	4a54      	ldr	r2, [pc, #336]	; (80042e0 <HAL_RCC_OscConfig+0x470>)
 800418e:	f023 0304 	bic.w	r3, r3, #4
 8004192:	6713      	str	r3, [r2, #112]	; 0x70
    /* Check the LSE State */
    if((RCC_OscInitStruct->LSEState) != RCC_LSE_OFF)
 8004194:	687b      	ldr	r3, [r7, #4]
 8004196:	689b      	ldr	r3, [r3, #8]
 8004198:	2b00      	cmp	r3, #0
 800419a:	d015      	beq.n	80041c8 <HAL_RCC_OscConfig+0x358>
    {
      /* Get Start Tick*/
      tickstart = HAL_GetTick();
 800419c:	f7fe fa3e 	bl	800261c <HAL_GetTick>
 80041a0:	6138      	str	r0, [r7, #16]

      /* Wait till LSE is ready */
      while(__HAL_RCC_GET_FLAG(RCC_FLAG_LSERDY) == RESET)
 80041a2:	e00a      	b.n	80041ba <HAL_RCC_OscConfig+0x34a>
      {
        if((HAL_GetTick() - tickstart ) > RCC_LSE_TIMEOUT_VALUE)
 80041a4:	f7fe fa3a 	bl	800261c <HAL_GetTick>
 80041a8:	4602      	mov	r2, r0
 80041aa:	693b      	ldr	r3, [r7, #16]
 80041ac:	1ad3      	subs	r3, r2, r3
 80041ae:	f241 3288 	movw	r2, #5000	; 0x1388
 80041b2:	4293      	cmp	r3, r2
 80041b4:	d901      	bls.n	80041ba <HAL_RCC_OscConfig+0x34a>
        {
          return HAL_TIMEOUT;
 80041b6:	2303      	movs	r3, #3
 80041b8:	e0cb      	b.n	8004352 <HAL_RCC_OscConfig+0x4e2>
      while(__HAL_RCC_GET_FLAG(RCC_FLAG_LSERDY) == RESET)
 80041ba:	4b49      	ldr	r3, [pc, #292]	; (80042e0 <HAL_RCC_OscConfig+0x470>)
 80041bc:	6f1b      	ldr	r3, [r3, #112]	; 0x70
 80041be:	f003 0302 	and.w	r3, r3, #2
 80041c2:	2b00      	cmp	r3, #0
 80041c4:	d0ee      	beq.n	80041a4 <HAL_RCC_OscConfig+0x334>
 80041c6:	e014      	b.n	80041f2 <HAL_RCC_OscConfig+0x382>
      }
    }
    else
    {
      /* Get Start Tick */
      tickstart = HAL_GetTick();
 80041c8:	f7fe fa28 	bl	800261c <HAL_GetTick>
 80041cc:	6138      	str	r0, [r7, #16]

      /* Wait till LSE is ready */
      while(__HAL_RCC_GET_FLAG(RCC_FLAG_LSERDY) != RESET)
 80041ce:	e00a      	b.n	80041e6 <HAL_RCC_OscConfig+0x376>
      {
        if((HAL_GetTick() - tickstart ) > RCC_LSE_TIMEOUT_VALUE)
 80041d0:	f7fe fa24 	bl	800261c <HAL_GetTick>
 80041d4:	4602      	mov	r2, r0
 80041d6:	693b      	ldr	r3, [r7, #16]
 80041d8:	1ad3      	subs	r3, r2, r3
 80041da:	f241 3288 	movw	r2, #5000	; 0x1388
 80041de:	4293      	cmp	r3, r2
 80041e0:	d901      	bls.n	80041e6 <HAL_RCC_OscConfig+0x376>
        {
          return HAL_TIMEOUT;
 80041e2:	2303      	movs	r3, #3
 80041e4:	e0b5      	b.n	8004352 <HAL_RCC_OscConfig+0x4e2>
      while(__HAL_RCC_GET_FLAG(RCC_FLAG_LSERDY) != RESET)
 80041e6:	4b3e      	ldr	r3, [pc, #248]	; (80042e0 <HAL_RCC_OscConfig+0x470>)
 80041e8:	6f1b      	ldr	r3, [r3, #112]	; 0x70
 80041ea:	f003 0302 	and.w	r3, r3, #2
 80041ee:	2b00      	cmp	r3, #0
 80041f0:	d1ee      	bne.n	80041d0 <HAL_RCC_OscConfig+0x360>
        }
      }
    }

    /* Restore clock configuration if changed */
    if(pwrclkchanged == SET)
 80041f2:	7dfb      	ldrb	r3, [r7, #23]
 80041f4:	2b01      	cmp	r3, #1
 80041f6:	d105      	bne.n	8004204 <HAL_RCC_OscConfig+0x394>
    {
      __HAL_RCC_PWR_CLK_DISABLE();
 80041f8:	4b39      	ldr	r3, [pc, #228]	; (80042e0 <HAL_RCC_OscConfig+0x470>)
 80041fa:	6c1b      	ldr	r3, [r3, #64]	; 0x40
 80041fc:	4a38      	ldr	r2, [pc, #224]	; (80042e0 <HAL_RCC_OscConfig+0x470>)
 80041fe:	f023 5380 	bic.w	r3, r3, #268435456	; 0x10000000
 8004202:	6413      	str	r3, [r2, #64]	; 0x40
    }
  }
  /*-------------------------------- PLL Configuration -----------------------*/
  /* Check the parameters */
  assert_param(IS_RCC_PLL(RCC_OscInitStruct->PLL.PLLState));
  if ((RCC_OscInitStruct->PLL.PLLState) != RCC_PLL_NONE)
 8004204:	687b      	ldr	r3, [r7, #4]
 8004206:	699b      	ldr	r3, [r3, #24]
 8004208:	2b00      	cmp	r3, #0
 800420a:	f000 80a1 	beq.w	8004350 <HAL_RCC_OscConfig+0x4e0>
  {
    /* Check if the PLL is used as system clock or not */
    if(__HAL_RCC_GET_SYSCLK_SOURCE() != RCC_CFGR_SWS_PLL)
 800420e:	4b34      	ldr	r3, [pc, #208]	; (80042e0 <HAL_RCC_OscConfig+0x470>)
 8004210:	689b      	ldr	r3, [r3, #8]
 8004212:	f003 030c 	and.w	r3, r3, #12
 8004216:	2b08      	cmp	r3, #8
 8004218:	d05c      	beq.n	80042d4 <HAL_RCC_OscConfig+0x464>
    {
      if((RCC_OscInitStruct->PLL.PLLState) == RCC_PLL_ON)
 800421a:	687b      	ldr	r3, [r7, #4]
 800421c:	699b      	ldr	r3, [r3, #24]
 800421e:	2b02      	cmp	r3, #2
 8004220:	d141      	bne.n	80042a6 <HAL_RCC_OscConfig+0x436>
        assert_param(IS_RCC_PLLN_VALUE(RCC_OscInitStruct->PLL.PLLN));
        assert_param(IS_RCC_PLLP_VALUE(RCC_OscInitStruct->PLL.PLLP));
        assert_param(IS_RCC_PLLQ_VALUE(RCC_OscInitStruct->PLL.PLLQ));

        /* Disable the main PLL. */
        __HAL_RCC_PLL_DISABLE();
 8004222:	4b31      	ldr	r3, [pc, #196]	; (80042e8 <HAL_RCC_OscConfig+0x478>)
 8004224:	2200      	movs	r2, #0
 8004226:	601a      	str	r2, [r3, #0]

        /* Get Start Tick */
        tickstart = HAL_GetTick();
 8004228:	f7fe f9f8 	bl	800261c <HAL_GetTick>
 800422c:	6138      	str	r0, [r7, #16]

        /* Wait till PLL is disabled */
        while(__HAL_RCC_GET_FLAG(RCC_FLAG_PLLRDY) != RESET)
 800422e:	e008      	b.n	8004242 <HAL_RCC_OscConfig+0x3d2>
        {
          if((HAL_GetTick() - tickstart ) > PLL_TIMEOUT_VALUE)
 8004230:	f7fe f9f4 	bl	800261c <HAL_GetTick>
 8004234:	4602      	mov	r2, r0
 8004236:	693b      	ldr	r3, [r7, #16]
 8004238:	1ad3      	subs	r3, r2, r3
 800423a:	2b02      	cmp	r3, #2
 800423c:	d901      	bls.n	8004242 <HAL_RCC_OscConfig+0x3d2>
          {
            return HAL_TIMEOUT;
 800423e:	2303      	movs	r3, #3
 8004240:	e087      	b.n	8004352 <HAL_RCC_OscConfig+0x4e2>
        while(__HAL_RCC_GET_FLAG(RCC_FLAG_PLLRDY) != RESET)
 8004242:	4b27      	ldr	r3, [pc, #156]	; (80042e0 <HAL_RCC_OscConfig+0x470>)
 8004244:	681b      	ldr	r3, [r3, #0]
 8004246:	f003 7300 	and.w	r3, r3, #33554432	; 0x2000000
 800424a:	2b00      	cmp	r3, #0
 800424c:	d1f0      	bne.n	8004230 <HAL_RCC_OscConfig+0x3c0>
          }
        }

        /* Configure the main PLL clock source, multiplication and division factors. */
        WRITE_REG(RCC->PLLCFGR, (RCC_OscInitStruct->PLL.PLLSource                                            | \
 800424e:	687b      	ldr	r3, [r7, #4]
 8004250:	69da      	ldr	r2, [r3, #28]
 8004252:	687b      	ldr	r3, [r7, #4]
 8004254:	6a1b      	ldr	r3, [r3, #32]
 8004256:	431a      	orrs	r2, r3
 8004258:	687b      	ldr	r3, [r7, #4]
 800425a:	6a5b      	ldr	r3, [r3, #36]	; 0x24
 800425c:	019b      	lsls	r3, r3, #6
 800425e:	431a      	orrs	r2, r3
 8004260:	687b      	ldr	r3, [r7, #4]
 8004262:	6a9b      	ldr	r3, [r3, #40]	; 0x28
 8004264:	085b      	lsrs	r3, r3, #1
 8004266:	3b01      	subs	r3, #1
 8004268:	041b      	lsls	r3, r3, #16
 800426a:	431a      	orrs	r2, r3
 800426c:	687b      	ldr	r3, [r7, #4]
 800426e:	6adb      	ldr	r3, [r3, #44]	; 0x2c
 8004270:	061b      	lsls	r3, r3, #24
 8004272:	491b      	ldr	r1, [pc, #108]	; (80042e0 <HAL_RCC_OscConfig+0x470>)
 8004274:	4313      	orrs	r3, r2
 8004276:	604b      	str	r3, [r1, #4]
                                 RCC_OscInitStruct->PLL.PLLM                                                 | \
                                 (RCC_OscInitStruct->PLL.PLLN << RCC_PLLCFGR_PLLN_Pos)             | \
                                 (((RCC_OscInitStruct->PLL.PLLP >> 1U) - 1U) << RCC_PLLCFGR_PLLP_Pos) | \
                                 (RCC_OscInitStruct->PLL.PLLQ << RCC_PLLCFGR_PLLQ_Pos)));
        /* Enable the main PLL. */
        __HAL_RCC_PLL_ENABLE();
 8004278:	4b1b      	ldr	r3, [pc, #108]	; (80042e8 <HAL_RCC_OscConfig+0x478>)
 800427a:	2201      	movs	r2, #1
 800427c:	601a      	str	r2, [r3, #0]

        /* Get Start Tick */
        tickstart = HAL_GetTick();
 800427e:	f7fe f9cd 	bl	800261c <HAL_GetTick>
 8004282:	6138      	str	r0, [r7, #16]

        /* Wait till PLL is ready */
        while(__HAL_RCC_GET_FLAG(RCC_FLAG_PLLRDY) == RESET)
 8004284:	e008      	b.n	8004298 <HAL_RCC_OscConfig+0x428>
        {
          if((HAL_GetTick() - tickstart ) > PLL_TIMEOUT_VALUE)
 8004286:	f7fe f9c9 	bl	800261c <HAL_GetTick>
 800428a:	4602      	mov	r2, r0
 800428c:	693b      	ldr	r3, [r7, #16]
 800428e:	1ad3      	subs	r3, r2, r3
 8004290:	2b02      	cmp	r3, #2
 8004292:	d901      	bls.n	8004298 <HAL_RCC_OscConfig+0x428>
          {
            return HAL_TIMEOUT;
 8004294:	2303      	movs	r3, #3
 8004296:	e05c      	b.n	8004352 <HAL_RCC_OscConfig+0x4e2>
        while(__HAL_RCC_GET_FLAG(RCC_FLAG_PLLRDY) == RESET)
 8004298:	4b11      	ldr	r3, [pc, #68]	; (80042e0 <HAL_RCC_OscConfig+0x470>)
 800429a:	681b      	ldr	r3, [r3, #0]
 800429c:	f003 7300 	and.w	r3, r3, #33554432	; 0x2000000
 80042a0:	2b00      	cmp	r3, #0
 80042a2:	d0f0      	beq.n	8004286 <HAL_RCC_OscConfig+0x416>
 80042a4:	e054      	b.n	8004350 <HAL_RCC_OscConfig+0x4e0>
        }
      }
      else
      {
        /* Disable the main PLL. */
        __HAL_RCC_PLL_DISABLE();
 80042a6:	4b10      	ldr	r3, [pc, #64]	; (80042e8 <HAL_RCC_OscConfig+0x478>)
 80042a8:	2200      	movs	r2, #0
 80042aa:	601a      	str	r2, [r3, #0]

        /* Get Start Tick */
        tickstart = HAL_GetTick();
 80042ac:	f7fe f9b6 	bl	800261c <HAL_GetTick>
 80042b0:	6138      	str	r0, [r7, #16]

        /* Wait till PLL is disabled */
        while(__HAL_RCC_GET_FLAG(RCC_FLAG_PLLRDY) != RESET)
 80042b2:	e008      	b.n	80042c6 <HAL_RCC_OscConfig+0x456>
        {
          if((HAL_GetTick() - tickstart ) > PLL_TIMEOUT_VALUE)
 80042b4:	f7fe f9b2 	bl	800261c <HAL_GetTick>
 80042b8:	4602      	mov	r2, r0
 80042ba:	693b      	ldr	r3, [r7, #16]
 80042bc:	1ad3      	subs	r3, r2, r3
 80042be:	2b02      	cmp	r3, #2
 80042c0:	d901      	bls.n	80042c6 <HAL_RCC_OscConfig+0x456>
          {
            return HAL_TIMEOUT;
 80042c2:	2303      	movs	r3, #3
 80042c4:	e045      	b.n	8004352 <HAL_RCC_OscConfig+0x4e2>
        while(__HAL_RCC_GET_FLAG(RCC_FLAG_PLLRDY) != RESET)
 80042c6:	4b06      	ldr	r3, [pc, #24]	; (80042e0 <HAL_RCC_OscConfig+0x470>)
 80042c8:	681b      	ldr	r3, [r3, #0]
 80042ca:	f003 7300 	and.w	r3, r3, #33554432	; 0x2000000
 80042ce:	2b00      	cmp	r3, #0
 80042d0:	d1f0      	bne.n	80042b4 <HAL_RCC_OscConfig+0x444>
 80042d2:	e03d      	b.n	8004350 <HAL_RCC_OscConfig+0x4e0>
      }
    }
    else
    {
      /* Check if there is a request to disable the PLL used as System clock source */
      if((RCC_OscInitStruct->PLL.PLLState) == RCC_PLL_OFF)
 80042d4:	687b      	ldr	r3, [r7, #4]
 80042d6:	699b      	ldr	r3, [r3, #24]
 80042d8:	2b01      	cmp	r3, #1
 80042da:	d107      	bne.n	80042ec <HAL_RCC_OscConfig+0x47c>
      {
        return HAL_ERROR;
 80042dc:	2301      	movs	r3, #1
 80042de:	e038      	b.n	8004352 <HAL_RCC_OscConfig+0x4e2>
 80042e0:	40023800 	.word	0x40023800
 80042e4:	40007000 	.word	0x40007000
 80042e8:	42470060 	.word	0x42470060
      }
      else
      {
        /* Do not return HAL_ERROR if request repeats the current configuration */
        pll_config = RCC->PLLCFGR;
 80042ec:	4b1b      	ldr	r3, [pc, #108]	; (800435c <HAL_RCC_OscConfig+0x4ec>)
 80042ee:	685b      	ldr	r3, [r3, #4]
 80042f0:	60fb      	str	r3, [r7, #12]
            (READ_BIT(pll_config, RCC_PLLCFGR_PLLN) != (RCC_OscInitStruct->PLL.PLLN) << RCC_PLLCFGR_PLLN_Pos) ||
            (READ_BIT(pll_config, RCC_PLLCFGR_PLLP) != (((RCC_OscInitStruct->PLL.PLLP >> 1U) - 1U)) << RCC_PLLCFGR_PLLP_Pos) ||
            (READ_BIT(pll_config, RCC_PLLCFGR_PLLQ) != (RCC_OscInitStruct->PLL.PLLQ << RCC_PLLCFGR_PLLQ_Pos)) ||
            (READ_BIT(pll_config, RCC_PLLCFGR_PLLR) != (RCC_OscInitStruct->PLL.PLLR << RCC_PLLCFGR_PLLR_Pos)))
#else
        if (((RCC_OscInitStruct->PLL.PLLState) == RCC_PLL_OFF) ||
 80042f2:	687b      	ldr	r3, [r7, #4]
 80042f4:	699b      	ldr	r3, [r3, #24]
 80042f6:	2b01      	cmp	r3, #1
 80042f8:	d028      	beq.n	800434c <HAL_RCC_OscConfig+0x4dc>
            (READ_BIT(pll_config, RCC_PLLCFGR_PLLSRC) != RCC_OscInitStruct->PLL.PLLSource) ||
 80042fa:	68fb      	ldr	r3, [r7, #12]
 80042fc:	f403 0280 	and.w	r2, r3, #4194304	; 0x400000
 8004300:	687b      	ldr	r3, [r7, #4]
 8004302:	69db      	ldr	r3, [r3, #28]
        if (((RCC_OscInitStruct->PLL.PLLState) == RCC_PLL_OFF) ||
 8004304:	429a      	cmp	r2, r3
 8004306:	d121      	bne.n	800434c <HAL_RCC_OscConfig+0x4dc>
            (READ_BIT(pll_config, RCC_PLLCFGR_PLLM) != (RCC_OscInitStruct->PLL.PLLM) << RCC_PLLCFGR_PLLM_Pos) ||
 8004308:	68fb      	ldr	r3, [r7, #12]
 800430a:	f003 023f 	and.w	r2, r3, #63	; 0x3f
 800430e:	687b      	ldr	r3, [r7, #4]
 8004310:	6a1b      	ldr	r3, [r3, #32]
            (READ_BIT(pll_config, RCC_PLLCFGR_PLLSRC) != RCC_OscInitStruct->PLL.PLLSource) ||
 8004312:	429a      	cmp	r2, r3
 8004314:	d11a      	bne.n	800434c <HAL_RCC_OscConfig+0x4dc>
            (READ_BIT(pll_config, RCC_PLLCFGR_PLLN) != (RCC_OscInitStruct->PLL.PLLN) << RCC_PLLCFGR_PLLN_Pos) ||
 8004316:	68fa      	ldr	r2, [r7, #12]
 8004318:	f647 73c0 	movw	r3, #32704	; 0x7fc0
 800431c:	4013      	ands	r3, r2
 800431e:	687a      	ldr	r2, [r7, #4]
 8004320:	6a52      	ldr	r2, [r2, #36]	; 0x24
 8004322:	0192      	lsls	r2, r2, #6
            (READ_BIT(pll_config, RCC_PLLCFGR_PLLM) != (RCC_OscInitStruct->PLL.PLLM) << RCC_PLLCFGR_PLLM_Pos) ||
 8004324:	4293      	cmp	r3, r2
 8004326:	d111      	bne.n	800434c <HAL_RCC_OscConfig+0x4dc>
            (READ_BIT(pll_config, RCC_PLLCFGR_PLLP) != (((RCC_OscInitStruct->PLL.PLLP >> 1U) - 1U)) << RCC_PLLCFGR_PLLP_Pos) ||
 8004328:	68fb      	ldr	r3, [r7, #12]
 800432a:	f403 3240 	and.w	r2, r3, #196608	; 0x30000
 800432e:	687b      	ldr	r3, [r7, #4]
 8004330:	6a9b      	ldr	r3, [r3, #40]	; 0x28
 8004332:	085b      	lsrs	r3, r3, #1
 8004334:	3b01      	subs	r3, #1
 8004336:	041b      	lsls	r3, r3, #16
            (READ_BIT(pll_config, RCC_PLLCFGR_PLLN) != (RCC_OscInitStruct->PLL.PLLN) << RCC_PLLCFGR_PLLN_Pos) ||
 8004338:	429a      	cmp	r2, r3
 800433a:	d107      	bne.n	800434c <HAL_RCC_OscConfig+0x4dc>
            (READ_BIT(pll_config, RCC_PLLCFGR_PLLQ) != (RCC_OscInitStruct->PLL.PLLQ << RCC_PLLCFGR_PLLQ_Pos)))
 800433c:	68fb      	ldr	r3, [r7, #12]
 800433e:	f003 6270 	and.w	r2, r3, #251658240	; 0xf000000
 8004342:	687b      	ldr	r3, [r7, #4]
 8004344:	6adb      	ldr	r3, [r3, #44]	; 0x2c
 8004346:	061b      	lsls	r3, r3, #24
            (READ_BIT(pll_config, RCC_PLLCFGR_PLLP) != (((RCC_OscInitStruct->PLL.PLLP >> 1U) - 1U)) << RCC_PLLCFGR_PLLP_Pos) ||
 8004348:	429a      	cmp	r2, r3
 800434a:	d001      	beq.n	8004350 <HAL_RCC_OscConfig+0x4e0>
#endif
        {
          return HAL_ERROR;
 800434c:	2301      	movs	r3, #1
 800434e:	e000      	b.n	8004352 <HAL_RCC_OscConfig+0x4e2>
        }
      }
    }
  }
  return HAL_OK;
 8004350:	2300      	movs	r3, #0
}
 8004352:	4618      	mov	r0, r3
 8004354:	3718      	adds	r7, #24
 8004356:	46bd      	mov	sp, r7
 8004358:	bd80      	pop	{r7, pc}
 800435a:	bf00      	nop
 800435c:	40023800 	.word	0x40023800

08004360 <HAL_RCC_ClockConfig>:
  *         HPRE[3:0] bits to ensure that HCLK not exceed the maximum allowed frequency
  *         (for more details refer to section above "Initialization/de-initialization functions")
  * @retval None
  */
HAL_StatusTypeDef HAL_RCC_ClockConfig(RCC_ClkInitTypeDef  *RCC_ClkInitStruct, uint32_t FLatency)
{
 8004360:	b580      	push	{r7, lr}
 8004362:	b084      	sub	sp, #16
 8004364:	af00      	add	r7, sp, #0
 8004366:	6078      	str	r0, [r7, #4]
 8004368:	6039      	str	r1, [r7, #0]
  uint32_t tickstart;

  /* Check Null pointer */
  if(RCC_ClkInitStruct == NULL)
 800436a:	687b      	ldr	r3, [r7, #4]
 800436c:	2b00      	cmp	r3, #0
 800436e:	d101      	bne.n	8004374 <HAL_RCC_ClockConfig+0x14>
  {
    return HAL_ERROR;
 8004370:	2301      	movs	r3, #1
 8004372:	e0cc      	b.n	800450e <HAL_RCC_ClockConfig+0x1ae>
  /* To correctly read data from FLASH memory, the number of wait states (LATENCY)
    must be correctly programmed according to the frequency of the CPU clock
    (HCLK) and the supply voltage of the device. */

  /* Increasing the number of wait states because of higher CPU frequency */
  if(FLatency > __HAL_FLASH_GET_LATENCY())
 8004374:	4b68      	ldr	r3, [pc, #416]	; (8004518 <HAL_RCC_ClockConfig+0x1b8>)
 8004376:	681b      	ldr	r3, [r3, #0]
 8004378:	f003 030f 	and.w	r3, r3, #15
 800437c:	683a      	ldr	r2, [r7, #0]
 800437e:	429a      	cmp	r2, r3
 8004380:	d90c      	bls.n	800439c <HAL_RCC_ClockConfig+0x3c>
  {
    /* Program the new number of wait states to the LATENCY bits in the FLASH_ACR register */
    __HAL_FLASH_SET_LATENCY(FLatency);
 8004382:	4b65      	ldr	r3, [pc, #404]	; (8004518 <HAL_RCC_ClockConfig+0x1b8>)
 8004384:	683a      	ldr	r2, [r7, #0]
 8004386:	b2d2      	uxtb	r2, r2
 8004388:	701a      	strb	r2, [r3, #0]

    /* Check that the new number of wait states is taken into account to access the Flash
    memory by reading the FLASH_ACR register */
    if(__HAL_FLASH_GET_LATENCY() != FLatency)
 800438a:	4b63      	ldr	r3, [pc, #396]	; (8004518 <HAL_RCC_ClockConfig+0x1b8>)
 800438c:	681b      	ldr	r3, [r3, #0]
 800438e:	f003 030f 	and.w	r3, r3, #15
 8004392:	683a      	ldr	r2, [r7, #0]
 8004394:	429a      	cmp	r2, r3
 8004396:	d001      	beq.n	800439c <HAL_RCC_ClockConfig+0x3c>
    {
      return HAL_ERROR;
 8004398:	2301      	movs	r3, #1
 800439a:	e0b8      	b.n	800450e <HAL_RCC_ClockConfig+0x1ae>
    }
  }

  /*-------------------------- HCLK Configuration --------------------------*/
  if(((RCC_ClkInitStruct->ClockType) & RCC_CLOCKTYPE_HCLK) == RCC_CLOCKTYPE_HCLK)
 800439c:	687b      	ldr	r3, [r7, #4]
 800439e:	681b      	ldr	r3, [r3, #0]
 80043a0:	f003 0302 	and.w	r3, r3, #2
 80043a4:	2b00      	cmp	r3, #0
 80043a6:	d020      	beq.n	80043ea <HAL_RCC_ClockConfig+0x8a>
  {
    /* Set the highest APBx dividers in order to ensure that we do not go through
       a non-spec phase whatever we decrease or increase HCLK. */
    if(((RCC_ClkInitStruct->ClockType) & RCC_CLOCKTYPE_PCLK1) == RCC_CLOCKTYPE_PCLK1)
 80043a8:	687b      	ldr	r3, [r7, #4]
 80043aa:	681b      	ldr	r3, [r3, #0]
 80043ac:	f003 0304 	and.w	r3, r3, #4
 80043b0:	2b00      	cmp	r3, #0
 80043b2:	d005      	beq.n	80043c0 <HAL_RCC_ClockConfig+0x60>
    {
      MODIFY_REG(RCC->CFGR, RCC_CFGR_PPRE1, RCC_HCLK_DIV16);
 80043b4:	4b59      	ldr	r3, [pc, #356]	; (800451c <HAL_RCC_ClockConfig+0x1bc>)
 80043b6:	689b      	ldr	r3, [r3, #8]
 80043b8:	4a58      	ldr	r2, [pc, #352]	; (800451c <HAL_RCC_ClockConfig+0x1bc>)
 80043ba:	f443 53e0 	orr.w	r3, r3, #7168	; 0x1c00
 80043be:	6093      	str	r3, [r2, #8]
    }

    if(((RCC_ClkInitStruct->ClockType) & RCC_CLOCKTYPE_PCLK2) == RCC_CLOCKTYPE_PCLK2)
 80043c0:	687b      	ldr	r3, [r7, #4]
 80043c2:	681b      	ldr	r3, [r3, #0]
 80043c4:	f003 0308 	and.w	r3, r3, #8
 80043c8:	2b00      	cmp	r3, #0
 80043ca:	d005      	beq.n	80043d8 <HAL_RCC_ClockConfig+0x78>
    {
      MODIFY_REG(RCC->CFGR, RCC_CFGR_PPRE2, (RCC_HCLK_DIV16 << 3));
 80043cc:	4b53      	ldr	r3, [pc, #332]	; (800451c <HAL_RCC_ClockConfig+0x1bc>)
 80043ce:	689b      	ldr	r3, [r3, #8]
 80043d0:	4a52      	ldr	r2, [pc, #328]	; (800451c <HAL_RCC_ClockConfig+0x1bc>)
 80043d2:	f443 4360 	orr.w	r3, r3, #57344	; 0xe000
 80043d6:	6093      	str	r3, [r2, #8]
    }

    assert_param(IS_RCC_HCLK(RCC_ClkInitStruct->AHBCLKDivider));
    MODIFY_REG(RCC->CFGR, RCC_CFGR_HPRE, RCC_ClkInitStruct->AHBCLKDivider);
 80043d8:	4b50      	ldr	r3, [pc, #320]	; (800451c <HAL_RCC_ClockConfig+0x1bc>)
 80043da:	689b      	ldr	r3, [r3, #8]
 80043dc:	f023 02f0 	bic.w	r2, r3, #240	; 0xf0
 80043e0:	687b      	ldr	r3, [r7, #4]
 80043e2:	689b      	ldr	r3, [r3, #8]
 80043e4:	494d      	ldr	r1, [pc, #308]	; (800451c <HAL_RCC_ClockConfig+0x1bc>)
 80043e6:	4313      	orrs	r3, r2
 80043e8:	608b      	str	r3, [r1, #8]
  }

  /*------------------------- SYSCLK Configuration ---------------------------*/
  if(((RCC_ClkInitStruct->ClockType) & RCC_CLOCKTYPE_SYSCLK) == RCC_CLOCKTYPE_SYSCLK)
 80043ea:	687b      	ldr	r3, [r7, #4]
 80043ec:	681b      	ldr	r3, [r3, #0]
 80043ee:	f003 0301 	and.w	r3, r3, #1
 80043f2:	2b00      	cmp	r3, #0
 80043f4:	d044      	beq.n	8004480 <HAL_RCC_ClockConfig+0x120>
  {
    assert_param(IS_RCC_SYSCLKSOURCE(RCC_ClkInitStruct->SYSCLKSource));

    /* HSE is selected as System Clock Source */
    if(RCC_ClkInitStruct->SYSCLKSource == RCC_SYSCLKSOURCE_HSE)
 80043f6:	687b      	ldr	r3, [r7, #4]
 80043f8:	685b      	ldr	r3, [r3, #4]
 80043fa:	2b01      	cmp	r3, #1
 80043fc:	d107      	bne.n	800440e <HAL_RCC_ClockConfig+0xae>
    {
      /* Check the HSE ready flag */
      if(__HAL_RCC_GET_FLAG(RCC_FLAG_HSERDY) == RESET)
 80043fe:	4b47      	ldr	r3, [pc, #284]	; (800451c <HAL_RCC_ClockConfig+0x1bc>)
 8004400:	681b      	ldr	r3, [r3, #0]
 8004402:	f403 3300 	and.w	r3, r3, #131072	; 0x20000
 8004406:	2b00      	cmp	r3, #0
 8004408:	d119      	bne.n	800443e <HAL_RCC_ClockConfig+0xde>
      {
        return HAL_ERROR;
 800440a:	2301      	movs	r3, #1
 800440c:	e07f      	b.n	800450e <HAL_RCC_ClockConfig+0x1ae>
      }
    }
    /* PLL is selected as System Clock Source */
    else if((RCC_ClkInitStruct->SYSCLKSource == RCC_SYSCLKSOURCE_PLLCLK)   ||
 800440e:	687b      	ldr	r3, [r7, #4]
 8004410:	685b      	ldr	r3, [r3, #4]
 8004412:	2b02      	cmp	r3, #2
 8004414:	d003      	beq.n	800441e <HAL_RCC_ClockConfig+0xbe>
            (RCC_ClkInitStruct->SYSCLKSource == RCC_SYSCLKSOURCE_PLLRCLK))
 8004416:	687b      	ldr	r3, [r7, #4]
 8004418:	685b      	ldr	r3, [r3, #4]
    else if((RCC_ClkInitStruct->SYSCLKSource == RCC_SYSCLKSOURCE_PLLCLK)   ||
 800441a:	2b03      	cmp	r3, #3
 800441c:	d107      	bne.n	800442e <HAL_RCC_ClockConfig+0xce>
    {
      /* Check the PLL ready flag */
      if(__HAL_RCC_GET_FLAG(RCC_FLAG_PLLRDY) == RESET)
 800441e:	4b3f      	ldr	r3, [pc, #252]	; (800451c <HAL_RCC_ClockConfig+0x1bc>)
 8004420:	681b      	ldr	r3, [r3, #0]
 8004422:	f003 7300 	and.w	r3, r3, #33554432	; 0x2000000
 8004426:	2b00      	cmp	r3, #0
 8004428:	d109      	bne.n	800443e <HAL_RCC_ClockConfig+0xde>
      {
        return HAL_ERROR;
 800442a:	2301      	movs	r3, #1
 800442c:	e06f      	b.n	800450e <HAL_RCC_ClockConfig+0x1ae>
    }
    /* HSI is selected as System Clock Source */
    else
    {
      /* Check the HSI ready flag */
      if(__HAL_RCC_GET_FLAG(RCC_FLAG_HSIRDY) == RESET)
 800442e:	4b3b      	ldr	r3, [pc, #236]	; (800451c <HAL_RCC_ClockConfig+0x1bc>)
 8004430:	681b      	ldr	r3, [r3, #0]
 8004432:	f003 0302 	and.w	r3, r3, #2
 8004436:	2b00      	cmp	r3, #0
 8004438:	d101      	bne.n	800443e <HAL_RCC_ClockConfig+0xde>
      {
        return HAL_ERROR;
 800443a:	2301      	movs	r3, #1
 800443c:	e067      	b.n	800450e <HAL_RCC_ClockConfig+0x1ae>
      }
    }

    __HAL_RCC_SYSCLK_CONFIG(RCC_ClkInitStruct->SYSCLKSource);
 800443e:	4b37      	ldr	r3, [pc, #220]	; (800451c <HAL_RCC_ClockConfig+0x1bc>)
 8004440:	689b      	ldr	r3, [r3, #8]
 8004442:	f023 0203 	bic.w	r2, r3, #3
 8004446:	687b      	ldr	r3, [r7, #4]
 8004448:	685b      	ldr	r3, [r3, #4]
 800444a:	4934      	ldr	r1, [pc, #208]	; (800451c <HAL_RCC_ClockConfig+0x1bc>)
 800444c:	4313      	orrs	r3, r2
 800444e:	608b      	str	r3, [r1, #8]

    /* Get Start Tick */
    tickstart = HAL_GetTick();
 8004450:	f7fe f8e4 	bl	800261c <HAL_GetTick>
 8004454:	60f8      	str	r0, [r7, #12]

    while (__HAL_RCC_GET_SYSCLK_SOURCE() != (RCC_ClkInitStruct->SYSCLKSource << RCC_CFGR_SWS_Pos))
 8004456:	e00a      	b.n	800446e <HAL_RCC_ClockConfig+0x10e>
    {
      if ((HAL_GetTick() - tickstart) > CLOCKSWITCH_TIMEOUT_VALUE)
 8004458:	f7fe f8e0 	bl	800261c <HAL_GetTick>
 800445c:	4602      	mov	r2, r0
 800445e:	68fb      	ldr	r3, [r7, #12]
 8004460:	1ad3      	subs	r3, r2, r3
 8004462:	f241 3288 	movw	r2, #5000	; 0x1388
 8004466:	4293      	cmp	r3, r2
 8004468:	d901      	bls.n	800446e <HAL_RCC_ClockConfig+0x10e>
      {
        return HAL_TIMEOUT;
 800446a:	2303      	movs	r3, #3
 800446c:	e04f      	b.n	800450e <HAL_RCC_ClockConfig+0x1ae>
    while (__HAL_RCC_GET_SYSCLK_SOURCE() != (RCC_ClkInitStruct->SYSCLKSource << RCC_CFGR_SWS_Pos))
 800446e:	4b2b      	ldr	r3, [pc, #172]	; (800451c <HAL_RCC_ClockConfig+0x1bc>)
 8004470:	689b      	ldr	r3, [r3, #8]
 8004472:	f003 020c 	and.w	r2, r3, #12
 8004476:	687b      	ldr	r3, [r7, #4]
 8004478:	685b      	ldr	r3, [r3, #4]
 800447a:	009b      	lsls	r3, r3, #2
 800447c:	429a      	cmp	r2, r3
 800447e:	d1eb      	bne.n	8004458 <HAL_RCC_ClockConfig+0xf8>
      }
    }
  }

  /* Decreasing the number of wait states because of lower CPU frequency */
  if(FLatency < __HAL_FLASH_GET_LATENCY())
 8004480:	4b25      	ldr	r3, [pc, #148]	; (8004518 <HAL_RCC_ClockConfig+0x1b8>)
 8004482:	681b      	ldr	r3, [r3, #0]
 8004484:	f003 030f 	and.w	r3, r3, #15
 8004488:	683a      	ldr	r2, [r7, #0]
 800448a:	429a      	cmp	r2, r3
 800448c:	d20c      	bcs.n	80044a8 <HAL_RCC_ClockConfig+0x148>
  {
     /* Program the new number of wait states to the LATENCY bits in the FLASH_ACR register */
    __HAL_FLASH_SET_LATENCY(FLatency);
 800448e:	4b22      	ldr	r3, [pc, #136]	; (8004518 <HAL_RCC_ClockConfig+0x1b8>)
 8004490:	683a      	ldr	r2, [r7, #0]
 8004492:	b2d2      	uxtb	r2, r2
 8004494:	701a      	strb	r2, [r3, #0]

    /* Check that the new number of wait states is taken into account to access the Flash
    memory by reading the FLASH_ACR register */
    if(__HAL_FLASH_GET_LATENCY() != FLatency)
 8004496:	4b20      	ldr	r3, [pc, #128]	; (8004518 <HAL_RCC_ClockConfig+0x1b8>)
 8004498:	681b      	ldr	r3, [r3, #0]
 800449a:	f003 030f 	and.w	r3, r3, #15
 800449e:	683a      	ldr	r2, [r7, #0]
 80044a0:	429a      	cmp	r2, r3
 80044a2:	d001      	beq.n	80044a8 <HAL_RCC_ClockConfig+0x148>
    {
      return HAL_ERROR;
 80044a4:	2301      	movs	r3, #1
 80044a6:	e032      	b.n	800450e <HAL_RCC_ClockConfig+0x1ae>
    }
  }

  /*-------------------------- PCLK1 Configuration ---------------------------*/
  if(((RCC_ClkInitStruct->ClockType) & RCC_CLOCKTYPE_PCLK1) == RCC_CLOCKTYPE_PCLK1)
 80044a8:	687b      	ldr	r3, [r7, #4]
 80044aa:	681b      	ldr	r3, [r3, #0]
 80044ac:	f003 0304 	and.w	r3, r3, #4
 80044b0:	2b00      	cmp	r3, #0
 80044b2:	d008      	beq.n	80044c6 <HAL_RCC_ClockConfig+0x166>
  {
    assert_param(IS_RCC_PCLK(RCC_ClkInitStruct->APB1CLKDivider));
    MODIFY_REG(RCC->CFGR, RCC_CFGR_PPRE1, RCC_ClkInitStruct->APB1CLKDivider);
 80044b4:	4b19      	ldr	r3, [pc, #100]	; (800451c <HAL_RCC_ClockConfig+0x1bc>)
 80044b6:	689b      	ldr	r3, [r3, #8]
 80044b8:	f423 52e0 	bic.w	r2, r3, #7168	; 0x1c00
 80044bc:	687b      	ldr	r3, [r7, #4]
 80044be:	68db      	ldr	r3, [r3, #12]
 80044c0:	4916      	ldr	r1, [pc, #88]	; (800451c <HAL_RCC_ClockConfig+0x1bc>)
 80044c2:	4313      	orrs	r3, r2
 80044c4:	608b      	str	r3, [r1, #8]
  }

  /*-------------------------- PCLK2 Configuration ---------------------------*/
  if(((RCC_ClkInitStruct->ClockType) & RCC_CLOCKTYPE_PCLK2) == RCC_CLOCKTYPE_PCLK2)
 80044c6:	687b      	ldr	r3, [r7, #4]
 80044c8:	681b      	ldr	r3, [r3, #0]
 80044ca:	f003 0308 	and.w	r3, r3, #8
 80044ce:	2b00      	cmp	r3, #0
 80044d0:	d009      	beq.n	80044e6 <HAL_RCC_ClockConfig+0x186>
  {
    assert_param(IS_RCC_PCLK(RCC_ClkInitStruct->APB2CLKDivider));
    MODIFY_REG(RCC->CFGR, RCC_CFGR_PPRE2, ((RCC_ClkInitStruct->APB2CLKDivider) << 3U));
 80044d2:	4b12      	ldr	r3, [pc, #72]	; (800451c <HAL_RCC_ClockConfig+0x1bc>)
 80044d4:	689b      	ldr	r3, [r3, #8]
 80044d6:	f423 4260 	bic.w	r2, r3, #57344	; 0xe000
 80044da:	687b      	ldr	r3, [r7, #4]
 80044dc:	691b      	ldr	r3, [r3, #16]
 80044de:	00db      	lsls	r3, r3, #3
 80044e0:	490e      	ldr	r1, [pc, #56]	; (800451c <HAL_RCC_ClockConfig+0x1bc>)
 80044e2:	4313      	orrs	r3, r2
 80044e4:	608b      	str	r3, [r1, #8]
  }

  /* Update the SystemCoreClock global variable */
  SystemCoreClock = HAL_RCC_GetSysClockFreq() >> AHBPrescTable[(RCC->CFGR & RCC_CFGR_HPRE)>> RCC_CFGR_HPRE_Pos];
 80044e6:	f000 f821 	bl	800452c <HAL_RCC_GetSysClockFreq>
 80044ea:	4602      	mov	r2, r0
 80044ec:	4b0b      	ldr	r3, [pc, #44]	; (800451c <HAL_RCC_ClockConfig+0x1bc>)
 80044ee:	689b      	ldr	r3, [r3, #8]
 80044f0:	091b      	lsrs	r3, r3, #4
 80044f2:	f003 030f 	and.w	r3, r3, #15
 80044f6:	490a      	ldr	r1, [pc, #40]	; (8004520 <HAL_RCC_ClockConfig+0x1c0>)
 80044f8:	5ccb      	ldrb	r3, [r1, r3]
 80044fa:	fa22 f303 	lsr.w	r3, r2, r3
 80044fe:	4a09      	ldr	r2, [pc, #36]	; (8004524 <HAL_RCC_ClockConfig+0x1c4>)
 8004500:	6013      	str	r3, [r2, #0]

  /* Configure the source of time base considering new system clocks settings */
  HAL_InitTick (uwTickPrio);
 8004502:	4b09      	ldr	r3, [pc, #36]	; (8004528 <HAL_RCC_ClockConfig+0x1c8>)
 8004504:	681b      	ldr	r3, [r3, #0]
 8004506:	4618      	mov	r0, r3
 8004508:	f7fe f844 	bl	8002594 <HAL_InitTick>

  return HAL_OK;
 800450c:	2300      	movs	r3, #0
}
 800450e:	4618      	mov	r0, r3
 8004510:	3710      	adds	r7, #16
 8004512:	46bd      	mov	sp, r7
 8004514:	bd80      	pop	{r7, pc}
 8004516:	bf00      	nop
 8004518:	40023c00 	.word	0x40023c00
 800451c:	40023800 	.word	0x40023800
 8004520:	08007454 	.word	0x08007454
 8004524:	20000018 	.word	0x20000018
 8004528:	2000001c 	.word	0x2000001c

0800452c <HAL_RCC_GetSysClockFreq>:
  *
  *
  * @retval SYSCLK frequency
  */
__weak uint32_t HAL_RCC_GetSysClockFreq(void)
{
 800452c:	e92d 4fb0 	stmdb	sp!, {r4, r5, r7, r8, r9, sl, fp, lr}
 8004530:	b090      	sub	sp, #64	; 0x40
 8004532:	af00      	add	r7, sp, #0
  uint32_t pllm = 0U, pllvco = 0U, pllp = 0U;
 8004534:	2300      	movs	r3, #0
 8004536:	637b      	str	r3, [r7, #52]	; 0x34
 8004538:	2300      	movs	r3, #0
 800453a:	63fb      	str	r3, [r7, #60]	; 0x3c
 800453c:	2300      	movs	r3, #0
 800453e:	633b      	str	r3, [r7, #48]	; 0x30
  uint32_t sysclockfreq = 0U;
 8004540:	2300      	movs	r3, #0
 8004542:	63bb      	str	r3, [r7, #56]	; 0x38

  /* Get SYSCLK source -------------------------------------------------------*/
  switch (RCC->CFGR & RCC_CFGR_SWS)
 8004544:	4b59      	ldr	r3, [pc, #356]	; (80046ac <HAL_RCC_GetSysClockFreq+0x180>)
 8004546:	689b      	ldr	r3, [r3, #8]
 8004548:	f003 030c 	and.w	r3, r3, #12
 800454c:	2b08      	cmp	r3, #8
 800454e:	d00d      	beq.n	800456c <HAL_RCC_GetSysClockFreq+0x40>
 8004550:	2b08      	cmp	r3, #8
 8004552:	f200 80a1 	bhi.w	8004698 <HAL_RCC_GetSysClockFreq+0x16c>
 8004556:	2b00      	cmp	r3, #0
 8004558:	d002      	beq.n	8004560 <HAL_RCC_GetSysClockFreq+0x34>
 800455a:	2b04      	cmp	r3, #4
 800455c:	d003      	beq.n	8004566 <HAL_RCC_GetSysClockFreq+0x3a>
 800455e:	e09b      	b.n	8004698 <HAL_RCC_GetSysClockFreq+0x16c>
  {
    case RCC_CFGR_SWS_HSI:  /* HSI used as system clock source */
    {
      sysclockfreq = HSI_VALUE;
 8004560:	4b53      	ldr	r3, [pc, #332]	; (80046b0 <HAL_RCC_GetSysClockFreq+0x184>)
 8004562:	63bb      	str	r3, [r7, #56]	; 0x38
       break;
 8004564:	e09b      	b.n	800469e <HAL_RCC_GetSysClockFreq+0x172>
    }
    case RCC_CFGR_SWS_HSE:  /* HSE used as system clock  source */
    {
      sysclockfreq = HSE_VALUE;
 8004566:	4b53      	ldr	r3, [pc, #332]	; (80046b4 <HAL_RCC_GetSysClockFreq+0x188>)
 8004568:	63bb      	str	r3, [r7, #56]	; 0x38
      break;
 800456a:	e098      	b.n	800469e <HAL_RCC_GetSysClockFreq+0x172>
    }
    case RCC_CFGR_SWS_PLL:  /* PLL used as system clock  source */
    {
      /* PLL_VCO = (HSE_VALUE or HSI_VALUE / PLLM) * PLLN
      SYSCLK = PLL_VCO / PLLP */
      pllm = RCC->PLLCFGR & RCC_PLLCFGR_PLLM;
 800456c:	4b4f      	ldr	r3, [pc, #316]	; (80046ac <HAL_RCC_GetSysClockFreq+0x180>)
 800456e:	685b      	ldr	r3, [r3, #4]
 8004570:	f003 033f 	and.w	r3, r3, #63	; 0x3f
 8004574:	637b      	str	r3, [r7, #52]	; 0x34
      if(__HAL_RCC_GET_PLL_OSCSOURCE() != RCC_PLLSOURCE_HSI)
 8004576:	4b4d      	ldr	r3, [pc, #308]	; (80046ac <HAL_RCC_GetSysClockFreq+0x180>)
 8004578:	685b      	ldr	r3, [r3, #4]
 800457a:	f403 0380 	and.w	r3, r3, #4194304	; 0x400000
 800457e:	2b00      	cmp	r3, #0
 8004580:	d028      	beq.n	80045d4 <HAL_RCC_GetSysClockFreq+0xa8>
      {
        /* HSE used as PLL clock source */
        pllvco = (uint32_t) ((((uint64_t) HSE_VALUE * ((uint64_t) ((RCC->PLLCFGR & RCC_PLLCFGR_PLLN) >> RCC_PLLCFGR_PLLN_Pos)))) / (uint64_t)pllm);
 8004582:	4b4a      	ldr	r3, [pc, #296]	; (80046ac <HAL_RCC_GetSysClockFreq+0x180>)
 8004584:	685b      	ldr	r3, [r3, #4]
 8004586:	099b      	lsrs	r3, r3, #6
 8004588:	2200      	movs	r2, #0
 800458a:	623b      	str	r3, [r7, #32]
 800458c:	627a      	str	r2, [r7, #36]	; 0x24
 800458e:	6a3b      	ldr	r3, [r7, #32]
 8004590:	f3c3 0008 	ubfx	r0, r3, #0, #9
 8004594:	2100      	movs	r1, #0
 8004596:	4b47      	ldr	r3, [pc, #284]	; (80046b4 <HAL_RCC_GetSysClockFreq+0x188>)
 8004598:	fb03 f201 	mul.w	r2, r3, r1
 800459c:	2300      	movs	r3, #0
 800459e:	fb00 f303 	mul.w	r3, r0, r3
 80045a2:	4413      	add	r3, r2
 80045a4:	4a43      	ldr	r2, [pc, #268]	; (80046b4 <HAL_RCC_GetSysClockFreq+0x188>)
 80045a6:	fba0 1202 	umull	r1, r2, r0, r2
 80045aa:	62fa      	str	r2, [r7, #44]	; 0x2c
 80045ac:	460a      	mov	r2, r1
 80045ae:	62ba      	str	r2, [r7, #40]	; 0x28
 80045b0:	6afa      	ldr	r2, [r7, #44]	; 0x2c
 80045b2:	4413      	add	r3, r2
 80045b4:	62fb      	str	r3, [r7, #44]	; 0x2c
 80045b6:	6b7b      	ldr	r3, [r7, #52]	; 0x34
 80045b8:	2200      	movs	r2, #0
 80045ba:	61bb      	str	r3, [r7, #24]
 80045bc:	61fa      	str	r2, [r7, #28]
 80045be:	e9d7 2306 	ldrd	r2, r3, [r7, #24]
 80045c2:	e9d7 010a 	ldrd	r0, r1, [r7, #40]	; 0x28
 80045c6:	f7fb fe19 	bl	80001fc <__aeabi_uldivmod>
 80045ca:	4602      	mov	r2, r0
 80045cc:	460b      	mov	r3, r1
 80045ce:	4613      	mov	r3, r2
 80045d0:	63fb      	str	r3, [r7, #60]	; 0x3c
 80045d2:	e053      	b.n	800467c <HAL_RCC_GetSysClockFreq+0x150>
      }
      else
      {
        /* HSI used as PLL clock source */
        pllvco = (uint32_t) ((((uint64_t) HSI_VALUE * ((uint64_t) ((RCC->PLLCFGR & RCC_PLLCFGR_PLLN) >> RCC_PLLCFGR_PLLN_Pos)))) / (uint64_t)pllm);
 80045d4:	4b35      	ldr	r3, [pc, #212]	; (80046ac <HAL_RCC_GetSysClockFreq+0x180>)
 80045d6:	685b      	ldr	r3, [r3, #4]
 80045d8:	099b      	lsrs	r3, r3, #6
 80045da:	2200      	movs	r2, #0
 80045dc:	613b      	str	r3, [r7, #16]
 80045de:	617a      	str	r2, [r7, #20]
 80045e0:	693b      	ldr	r3, [r7, #16]
 80045e2:	f3c3 0a08 	ubfx	sl, r3, #0, #9
 80045e6:	f04f 0b00 	mov.w	fp, #0
 80045ea:	4652      	mov	r2, sl
 80045ec:	465b      	mov	r3, fp
 80045ee:	f04f 0000 	mov.w	r0, #0
 80045f2:	f04f 0100 	mov.w	r1, #0
 80045f6:	0159      	lsls	r1, r3, #5
 80045f8:	ea41 61d2 	orr.w	r1, r1, r2, lsr #27
 80045fc:	0150      	lsls	r0, r2, #5
 80045fe:	4602      	mov	r2, r0
 8004600:	460b      	mov	r3, r1
 8004602:	ebb2 080a 	subs.w	r8, r2, sl
 8004606:	eb63 090b 	sbc.w	r9, r3, fp
 800460a:	f04f 0200 	mov.w	r2, #0
 800460e:	f04f 0300 	mov.w	r3, #0
 8004612:	ea4f 1389 	mov.w	r3, r9, lsl #6
 8004616:	ea43 6398 	orr.w	r3, r3, r8, lsr #26
 800461a:	ea4f 1288 	mov.w	r2, r8, lsl #6
 800461e:	ebb2 0408 	subs.w	r4, r2, r8
 8004622:	eb63 0509 	sbc.w	r5, r3, r9
 8004626:	f04f 0200 	mov.w	r2, #0
 800462a:	f04f 0300 	mov.w	r3, #0
 800462e:	00eb      	lsls	r3, r5, #3
 8004630:	ea43 7354 	orr.w	r3, r3, r4, lsr #29
 8004634:	00e2      	lsls	r2, r4, #3
 8004636:	4614      	mov	r4, r2
 8004638:	461d      	mov	r5, r3
 800463a:	eb14 030a 	adds.w	r3, r4, sl
 800463e:	603b      	str	r3, [r7, #0]
 8004640:	eb45 030b 	adc.w	r3, r5, fp
 8004644:	607b      	str	r3, [r7, #4]
 8004646:	f04f 0200 	mov.w	r2, #0
 800464a:	f04f 0300 	mov.w	r3, #0
 800464e:	e9d7 4500 	ldrd	r4, r5, [r7]
 8004652:	4629      	mov	r1, r5
 8004654:	028b      	lsls	r3, r1, #10
 8004656:	4621      	mov	r1, r4
 8004658:	ea43 5391 	orr.w	r3, r3, r1, lsr #22
 800465c:	4621      	mov	r1, r4
 800465e:	028a      	lsls	r2, r1, #10
 8004660:	4610      	mov	r0, r2
 8004662:	4619      	mov	r1, r3
 8004664:	6b7b      	ldr	r3, [r7, #52]	; 0x34
 8004666:	2200      	movs	r2, #0
 8004668:	60bb      	str	r3, [r7, #8]
 800466a:	60fa      	str	r2, [r7, #12]
 800466c:	e9d7 2302 	ldrd	r2, r3, [r7, #8]
 8004670:	f7fb fdc4 	bl	80001fc <__aeabi_uldivmod>
 8004674:	4602      	mov	r2, r0
 8004676:	460b      	mov	r3, r1
 8004678:	4613      	mov	r3, r2
 800467a:	63fb      	str	r3, [r7, #60]	; 0x3c
      }
      pllp = ((((RCC->PLLCFGR & RCC_PLLCFGR_PLLP) >> RCC_PLLCFGR_PLLP_Pos) + 1U) *2U);
 800467c:	4b0b      	ldr	r3, [pc, #44]	; (80046ac <HAL_RCC_GetSysClockFreq+0x180>)
 800467e:	685b      	ldr	r3, [r3, #4]
 8004680:	0c1b      	lsrs	r3, r3, #16
 8004682:	f003 0303 	and.w	r3, r3, #3
 8004686:	3301      	adds	r3, #1
 8004688:	005b      	lsls	r3, r3, #1
 800468a:	633b      	str	r3, [r7, #48]	; 0x30

      sysclockfreq = pllvco/pllp;
 800468c:	6bfa      	ldr	r2, [r7, #60]	; 0x3c
 800468e:	6b3b      	ldr	r3, [r7, #48]	; 0x30
 8004690:	fbb2 f3f3 	udiv	r3, r2, r3
 8004694:	63bb      	str	r3, [r7, #56]	; 0x38
      break;
 8004696:	e002      	b.n	800469e <HAL_RCC_GetSysClockFreq+0x172>
    }
    default:
    {
      sysclockfreq = HSI_VALUE;
 8004698:	4b05      	ldr	r3, [pc, #20]	; (80046b0 <HAL_RCC_GetSysClockFreq+0x184>)
 800469a:	63bb      	str	r3, [r7, #56]	; 0x38
      break;
 800469c:	bf00      	nop
    }
  }
  return sysclockfreq;
 800469e:	6bbb      	ldr	r3, [r7, #56]	; 0x38
}
 80046a0:	4618      	mov	r0, r3
 80046a2:	3740      	adds	r7, #64	; 0x40
 80046a4:	46bd      	mov	sp, r7
 80046a6:	e8bd 8fb0 	ldmia.w	sp!, {r4, r5, r7, r8, r9, sl, fp, pc}
 80046aa:	bf00      	nop
 80046ac:	40023800 	.word	0x40023800
 80046b0:	00f42400 	.word	0x00f42400
 80046b4:	017d7840 	.word	0x017d7840

080046b8 <HAL_RCC_GetHCLKFreq>:
  * @note   The SystemCoreClock CMSIS variable is used to store System Clock Frequency
  *         and updated within this function
  * @retval HCLK frequency
  */
uint32_t HAL_RCC_GetHCLKFreq(void)
{
 80046b8:	b480      	push	{r7}
 80046ba:	af00      	add	r7, sp, #0
  return SystemCoreClock;
 80046bc:	4b03      	ldr	r3, [pc, #12]	; (80046cc <HAL_RCC_GetHCLKFreq+0x14>)
 80046be:	681b      	ldr	r3, [r3, #0]
}
 80046c0:	4618      	mov	r0, r3
 80046c2:	46bd      	mov	sp, r7
 80046c4:	f85d 7b04 	ldr.w	r7, [sp], #4
 80046c8:	4770      	bx	lr
 80046ca:	bf00      	nop
 80046cc:	20000018 	.word	0x20000018

080046d0 <HAL_RCC_GetPCLK1Freq>:
  * @note   Each time PCLK1 changes, this function must be called to update the
  *         right PCLK1 value. Otherwise, any configuration based on this function will be incorrect.
  * @retval PCLK1 frequency
  */
uint32_t HAL_RCC_GetPCLK1Freq(void)
{
 80046d0:	b580      	push	{r7, lr}
 80046d2:	af00      	add	r7, sp, #0
  /* Get HCLK source and Compute PCLK1 frequency ---------------------------*/
  return (HAL_RCC_GetHCLKFreq() >> APBPrescTable[(RCC->CFGR & RCC_CFGR_PPRE1)>> RCC_CFGR_PPRE1_Pos]);
 80046d4:	f7ff fff0 	bl	80046b8 <HAL_RCC_GetHCLKFreq>
 80046d8:	4602      	mov	r2, r0
 80046da:	4b05      	ldr	r3, [pc, #20]	; (80046f0 <HAL_RCC_GetPCLK1Freq+0x20>)
 80046dc:	689b      	ldr	r3, [r3, #8]
 80046de:	0a9b      	lsrs	r3, r3, #10
 80046e0:	f003 0307 	and.w	r3, r3, #7
 80046e4:	4903      	ldr	r1, [pc, #12]	; (80046f4 <HAL_RCC_GetPCLK1Freq+0x24>)
 80046e6:	5ccb      	ldrb	r3, [r1, r3]
 80046e8:	fa22 f303 	lsr.w	r3, r2, r3
}
 80046ec:	4618      	mov	r0, r3
 80046ee:	bd80      	pop	{r7, pc}
 80046f0:	40023800 	.word	0x40023800
 80046f4:	08007464 	.word	0x08007464

080046f8 <HAL_RCC_GetPCLK2Freq>:
  * @note   Each time PCLK2 changes, this function must be called to update the
  *         right PCLK2 value. Otherwise, any configuration based on this function will be incorrect.
  * @retval PCLK2 frequency
  */
uint32_t HAL_RCC_GetPCLK2Freq(void)
{
 80046f8:	b580      	push	{r7, lr}
 80046fa:	af00      	add	r7, sp, #0
  /* Get HCLK source and Compute PCLK2 frequency ---------------------------*/
  return (HAL_RCC_GetHCLKFreq()>> APBPrescTable[(RCC->CFGR & RCC_CFGR_PPRE2)>> RCC_CFGR_PPRE2_Pos]);
 80046fc:	f7ff ffdc 	bl	80046b8 <HAL_RCC_GetHCLKFreq>
 8004700:	4602      	mov	r2, r0
 8004702:	4b05      	ldr	r3, [pc, #20]	; (8004718 <HAL_RCC_GetPCLK2Freq+0x20>)
 8004704:	689b      	ldr	r3, [r3, #8]
 8004706:	0b5b      	lsrs	r3, r3, #13
 8004708:	f003 0307 	and.w	r3, r3, #7
 800470c:	4903      	ldr	r1, [pc, #12]	; (800471c <HAL_RCC_GetPCLK2Freq+0x24>)
 800470e:	5ccb      	ldrb	r3, [r1, r3]
 8004710:	fa22 f303 	lsr.w	r3, r2, r3
}
 8004714:	4618      	mov	r0, r3
 8004716:	bd80      	pop	{r7, pc}
 8004718:	40023800 	.word	0x40023800
 800471c:	08007464 	.word	0x08007464

08004720 <HAL_RCCEx_PeriphCLKConfig>:
  *         the backup registers) and RCC_BDCR register are set to their reset values.
  *
  * @retval HAL status
  */
HAL_StatusTypeDef HAL_RCCEx_PeriphCLKConfig(RCC_PeriphCLKInitTypeDef  *PeriphClkInit)
{
 8004720:	b580      	push	{r7, lr}
 8004722:	b086      	sub	sp, #24
 8004724:	af00      	add	r7, sp, #0
 8004726:	6078      	str	r0, [r7, #4]
  uint32_t tickstart = 0U;
 8004728:	2300      	movs	r3, #0
 800472a:	617b      	str	r3, [r7, #20]
  uint32_t tmpreg1 = 0U;
 800472c:	2300      	movs	r3, #0
 800472e:	613b      	str	r3, [r7, #16]

  /*----------------------- SAI/I2S Configuration (PLLI2S) -------------------*/
  /*----------------------- Common configuration SAI/I2S ---------------------*/
  /* In Case of SAI or I2S Clock Configuration through PLLI2S, PLLI2SN division
     factor is common parameters for both peripherals */
  if((((PeriphClkInit->PeriphClockSelection) & RCC_PERIPHCLK_I2S) == RCC_PERIPHCLK_I2S) ||
 8004730:	687b      	ldr	r3, [r7, #4]
 8004732:	681b      	ldr	r3, [r3, #0]
 8004734:	f003 0301 	and.w	r3, r3, #1
 8004738:	2b00      	cmp	r3, #0
 800473a:	d10b      	bne.n	8004754 <HAL_RCCEx_PeriphCLKConfig+0x34>
     (((PeriphClkInit->PeriphClockSelection) & RCC_PERIPHCLK_SAI_PLLI2S) == RCC_PERIPHCLK_SAI_PLLI2S) ||
 800473c:	687b      	ldr	r3, [r7, #4]
 800473e:	681b      	ldr	r3, [r3, #0]
 8004740:	f003 0302 	and.w	r3, r3, #2
  if((((PeriphClkInit->PeriphClockSelection) & RCC_PERIPHCLK_I2S) == RCC_PERIPHCLK_I2S) ||
 8004744:	2b00      	cmp	r3, #0
 8004746:	d105      	bne.n	8004754 <HAL_RCCEx_PeriphCLKConfig+0x34>
     (((PeriphClkInit->PeriphClockSelection) & RCC_PERIPHCLK_PLLI2S) == RCC_PERIPHCLK_PLLI2S))
 8004748:	687b      	ldr	r3, [r7, #4]
 800474a:	681b      	ldr	r3, [r3, #0]
 800474c:	f003 0340 	and.w	r3, r3, #64	; 0x40
     (((PeriphClkInit->PeriphClockSelection) & RCC_PERIPHCLK_SAI_PLLI2S) == RCC_PERIPHCLK_SAI_PLLI2S) ||
 8004750:	2b00      	cmp	r3, #0
 8004752:	d075      	beq.n	8004840 <HAL_RCCEx_PeriphCLKConfig+0x120>
  {
    /* check for Parameters */
    assert_param(IS_RCC_PLLI2SN_VALUE(PeriphClkInit->PLLI2S.PLLI2SN));

    /* Disable the PLLI2S */
    __HAL_RCC_PLLI2S_DISABLE();
 8004754:	4b91      	ldr	r3, [pc, #580]	; (800499c <HAL_RCCEx_PeriphCLKConfig+0x27c>)
 8004756:	2200      	movs	r2, #0
 8004758:	601a      	str	r2, [r3, #0]
    /* Get tick */
    tickstart = HAL_GetTick();
 800475a:	f7fd ff5f 	bl	800261c <HAL_GetTick>
 800475e:	6178      	str	r0, [r7, #20]
    /* Wait till PLLI2S is disabled */
    while(__HAL_RCC_GET_FLAG(RCC_FLAG_PLLI2SRDY)  != RESET)
 8004760:	e008      	b.n	8004774 <HAL_RCCEx_PeriphCLKConfig+0x54>
    {
      if((HAL_GetTick() - tickstart ) > PLLI2S_TIMEOUT_VALUE)
 8004762:	f7fd ff5b 	bl	800261c <HAL_GetTick>
 8004766:	4602      	mov	r2, r0
 8004768:	697b      	ldr	r3, [r7, #20]
 800476a:	1ad3      	subs	r3, r2, r3
 800476c:	2b02      	cmp	r3, #2
 800476e:	d901      	bls.n	8004774 <HAL_RCCEx_PeriphCLKConfig+0x54>
      {
        /* return in case of Timeout detected */
        return HAL_TIMEOUT;
 8004770:	2303      	movs	r3, #3
 8004772:	e189      	b.n	8004a88 <HAL_RCCEx_PeriphCLKConfig+0x368>
    while(__HAL_RCC_GET_FLAG(RCC_FLAG_PLLI2SRDY)  != RESET)
 8004774:	4b8a      	ldr	r3, [pc, #552]	; (80049a0 <HAL_RCCEx_PeriphCLKConfig+0x280>)
 8004776:	681b      	ldr	r3, [r3, #0]
 8004778:	f003 6300 	and.w	r3, r3, #134217728	; 0x8000000
 800477c:	2b00      	cmp	r3, #0
 800477e:	d1f0      	bne.n	8004762 <HAL_RCCEx_PeriphCLKConfig+0x42>
    }

    /*---------------------------- I2S configuration -------------------------*/
    /* In Case of I2S Clock Configuration through PLLI2S, PLLI2SR must be added
      only for I2S configuration */
    if(((PeriphClkInit->PeriphClockSelection) & RCC_PERIPHCLK_I2S) == (RCC_PERIPHCLK_I2S))
 8004780:	687b      	ldr	r3, [r7, #4]
 8004782:	681b      	ldr	r3, [r3, #0]
 8004784:	f003 0301 	and.w	r3, r3, #1
 8004788:	2b00      	cmp	r3, #0
 800478a:	d009      	beq.n	80047a0 <HAL_RCCEx_PeriphCLKConfig+0x80>
      /* check for Parameters */
      assert_param(IS_RCC_PLLI2SR_VALUE(PeriphClkInit->PLLI2S.PLLI2SR));
      /* Configure the PLLI2S division factors */
      /* PLLI2S_VCO = f(VCO clock) = f(PLLI2S clock input) * (PLLI2SN/PLLM) */
      /* I2SCLK = f(PLLI2S clock output) = f(VCO clock) / PLLI2SR */
      __HAL_RCC_PLLI2S_CONFIG(PeriphClkInit->PLLI2S.PLLI2SN , PeriphClkInit->PLLI2S.PLLI2SR);
 800478c:	687b      	ldr	r3, [r7, #4]
 800478e:	685b      	ldr	r3, [r3, #4]
 8004790:	019a      	lsls	r2, r3, #6
 8004792:	687b      	ldr	r3, [r7, #4]
 8004794:	689b      	ldr	r3, [r3, #8]
 8004796:	071b      	lsls	r3, r3, #28
 8004798:	4981      	ldr	r1, [pc, #516]	; (80049a0 <HAL_RCCEx_PeriphCLKConfig+0x280>)
 800479a:	4313      	orrs	r3, r2
 800479c:	f8c1 3084 	str.w	r3, [r1, #132]	; 0x84
    }

    /*---------------------------- SAI configuration -------------------------*/
    /* In Case of SAI Clock Configuration through PLLI2S, PLLI2SQ and PLLI2S_DIVQ must
       be added only for SAI configuration */
    if(((PeriphClkInit->PeriphClockSelection) & RCC_PERIPHCLK_SAI_PLLI2S) == (RCC_PERIPHCLK_SAI_PLLI2S))
 80047a0:	687b      	ldr	r3, [r7, #4]
 80047a2:	681b      	ldr	r3, [r3, #0]
 80047a4:	f003 0302 	and.w	r3, r3, #2
 80047a8:	2b00      	cmp	r3, #0
 80047aa:	d01f      	beq.n	80047ec <HAL_RCCEx_PeriphCLKConfig+0xcc>
      /* Check the PLLI2S division factors */
      assert_param(IS_RCC_PLLI2SQ_VALUE(PeriphClkInit->PLLI2S.PLLI2SQ));
      assert_param(IS_RCC_PLLI2S_DIVQ_VALUE(PeriphClkInit->PLLI2SDivQ));

      /* Read PLLI2SR value from PLLI2SCFGR register (this value is not need for SAI configuration) */
      tmpreg1 = ((RCC->PLLI2SCFGR & RCC_PLLI2SCFGR_PLLI2SR) >> RCC_PLLI2SCFGR_PLLI2SR_Pos);
 80047ac:	4b7c      	ldr	r3, [pc, #496]	; (80049a0 <HAL_RCCEx_PeriphCLKConfig+0x280>)
 80047ae:	f8d3 3084 	ldr.w	r3, [r3, #132]	; 0x84
 80047b2:	0f1b      	lsrs	r3, r3, #28
 80047b4:	f003 0307 	and.w	r3, r3, #7
 80047b8:	613b      	str	r3, [r7, #16]
      /* Configure the PLLI2S division factors */
      /* PLLI2S_VCO Input  = PLL_SOURCE/PLLM */
      /* PLLI2S_VCO Output = PLLI2S_VCO Input * PLLI2SN */
      /* SAI_CLK(first level) = PLLI2S_VCO Output/PLLI2SQ */
      __HAL_RCC_PLLI2S_SAICLK_CONFIG(PeriphClkInit->PLLI2S.PLLI2SN , PeriphClkInit->PLLI2S.PLLI2SQ , tmpreg1);
 80047ba:	687b      	ldr	r3, [r7, #4]
 80047bc:	685b      	ldr	r3, [r3, #4]
 80047be:	019a      	lsls	r2, r3, #6
 80047c0:	687b      	ldr	r3, [r7, #4]
 80047c2:	68db      	ldr	r3, [r3, #12]
 80047c4:	061b      	lsls	r3, r3, #24
 80047c6:	431a      	orrs	r2, r3
 80047c8:	693b      	ldr	r3, [r7, #16]
 80047ca:	071b      	lsls	r3, r3, #28
 80047cc:	4974      	ldr	r1, [pc, #464]	; (80049a0 <HAL_RCCEx_PeriphCLKConfig+0x280>)
 80047ce:	4313      	orrs	r3, r2
 80047d0:	f8c1 3084 	str.w	r3, [r1, #132]	; 0x84
      /* SAI_CLK_x = SAI_CLK(first level)/PLLI2SDIVQ */
      __HAL_RCC_PLLI2S_PLLSAICLKDIVQ_CONFIG(PeriphClkInit->PLLI2SDivQ);
 80047d4:	4b72      	ldr	r3, [pc, #456]	; (80049a0 <HAL_RCCEx_PeriphCLKConfig+0x280>)
 80047d6:	f8d3 308c 	ldr.w	r3, [r3, #140]	; 0x8c
 80047da:	f023 021f 	bic.w	r2, r3, #31
 80047de:	687b      	ldr	r3, [r7, #4]
 80047e0:	69db      	ldr	r3, [r3, #28]
 80047e2:	3b01      	subs	r3, #1
 80047e4:	496e      	ldr	r1, [pc, #440]	; (80049a0 <HAL_RCCEx_PeriphCLKConfig+0x280>)
 80047e6:	4313      	orrs	r3, r2
 80047e8:	f8c1 308c 	str.w	r3, [r1, #140]	; 0x8c
    }

    /*----------------- In Case of PLLI2S is just selected  -----------------*/
    if((PeriphClkInit->PeriphClockSelection & RCC_PERIPHCLK_PLLI2S) == RCC_PERIPHCLK_PLLI2S)
 80047ec:	687b      	ldr	r3, [r7, #4]
 80047ee:	681b      	ldr	r3, [r3, #0]
 80047f0:	f003 0340 	and.w	r3, r3, #64	; 0x40
 80047f4:	2b00      	cmp	r3, #0
 80047f6:	d00d      	beq.n	8004814 <HAL_RCCEx_PeriphCLKConfig+0xf4>
      /* Check for Parameters */
      assert_param(IS_RCC_PLLI2SQ_VALUE(PeriphClkInit->PLLI2S.PLLI2SQ));
      assert_param(IS_RCC_PLLI2SR_VALUE(PeriphClkInit->PLLI2S.PLLI2SR));

      /* Configure the PLLI2S multiplication and division factors */
      __HAL_RCC_PLLI2S_SAICLK_CONFIG(PeriphClkInit->PLLI2S.PLLI2SN, PeriphClkInit->PLLI2S.PLLI2SQ, PeriphClkInit->PLLI2S.PLLI2SR);
 80047f8:	687b      	ldr	r3, [r7, #4]
 80047fa:	685b      	ldr	r3, [r3, #4]
 80047fc:	019a      	lsls	r2, r3, #6
 80047fe:	687b      	ldr	r3, [r7, #4]
 8004800:	68db      	ldr	r3, [r3, #12]
 8004802:	061b      	lsls	r3, r3, #24
 8004804:	431a      	orrs	r2, r3
 8004806:	687b      	ldr	r3, [r7, #4]
 8004808:	689b      	ldr	r3, [r3, #8]
 800480a:	071b      	lsls	r3, r3, #28
 800480c:	4964      	ldr	r1, [pc, #400]	; (80049a0 <HAL_RCCEx_PeriphCLKConfig+0x280>)
 800480e:	4313      	orrs	r3, r2
 8004810:	f8c1 3084 	str.w	r3, [r1, #132]	; 0x84
    }

    /* Enable the PLLI2S */
    __HAL_RCC_PLLI2S_ENABLE();
 8004814:	4b61      	ldr	r3, [pc, #388]	; (800499c <HAL_RCCEx_PeriphCLKConfig+0x27c>)
 8004816:	2201      	movs	r2, #1
 8004818:	601a      	str	r2, [r3, #0]
    /* Get tick */
    tickstart = HAL_GetTick();
 800481a:	f7fd feff 	bl	800261c <HAL_GetTick>
 800481e:	6178      	str	r0, [r7, #20]
    /* Wait till PLLI2S is ready */
    while(__HAL_RCC_GET_FLAG(RCC_FLAG_PLLI2SRDY)  == RESET)
 8004820:	e008      	b.n	8004834 <HAL_RCCEx_PeriphCLKConfig+0x114>
    {
      if((HAL_GetTick() - tickstart ) > PLLI2S_TIMEOUT_VALUE)
 8004822:	f7fd fefb 	bl	800261c <HAL_GetTick>
 8004826:	4602      	mov	r2, r0
 8004828:	697b      	ldr	r3, [r7, #20]
 800482a:	1ad3      	subs	r3, r2, r3
 800482c:	2b02      	cmp	r3, #2
 800482e:	d901      	bls.n	8004834 <HAL_RCCEx_PeriphCLKConfig+0x114>
      {
        /* return in case of Timeout detected */
        return HAL_TIMEOUT;
 8004830:	2303      	movs	r3, #3
 8004832:	e129      	b.n	8004a88 <HAL_RCCEx_PeriphCLKConfig+0x368>
    while(__HAL_RCC_GET_FLAG(RCC_FLAG_PLLI2SRDY)  == RESET)
 8004834:	4b5a      	ldr	r3, [pc, #360]	; (80049a0 <HAL_RCCEx_PeriphCLKConfig+0x280>)
 8004836:	681b      	ldr	r3, [r3, #0]
 8004838:	f003 6300 	and.w	r3, r3, #134217728	; 0x8000000
 800483c:	2b00      	cmp	r3, #0
 800483e:	d0f0      	beq.n	8004822 <HAL_RCCEx_PeriphCLKConfig+0x102>

  /*----------------------- SAI/LTDC Configuration (PLLSAI) ------------------*/
  /*----------------------- Common configuration SAI/LTDC --------------------*/
  /* In Case of SAI or LTDC Clock Configuration through PLLSAI, PLLSAIN division
     factor is common parameters for both peripherals */
  if((((PeriphClkInit->PeriphClockSelection) & RCC_PERIPHCLK_SAI_PLLSAI) == RCC_PERIPHCLK_SAI_PLLSAI) ||
 8004840:	687b      	ldr	r3, [r7, #4]
 8004842:	681b      	ldr	r3, [r3, #0]
 8004844:	f003 0304 	and.w	r3, r3, #4
 8004848:	2b00      	cmp	r3, #0
 800484a:	d105      	bne.n	8004858 <HAL_RCCEx_PeriphCLKConfig+0x138>
     (((PeriphClkInit->PeriphClockSelection) & RCC_PERIPHCLK_LTDC) == RCC_PERIPHCLK_LTDC))
 800484c:	687b      	ldr	r3, [r7, #4]
 800484e:	681b      	ldr	r3, [r3, #0]
 8004850:	f003 0308 	and.w	r3, r3, #8
  if((((PeriphClkInit->PeriphClockSelection) & RCC_PERIPHCLK_SAI_PLLSAI) == RCC_PERIPHCLK_SAI_PLLSAI) ||
 8004854:	2b00      	cmp	r3, #0
 8004856:	d079      	beq.n	800494c <HAL_RCCEx_PeriphCLKConfig+0x22c>
  {
    /* Check the PLLSAI division factors */
    assert_param(IS_RCC_PLLSAIN_VALUE(PeriphClkInit->PLLSAI.PLLSAIN));

    /* Disable PLLSAI Clock */
    __HAL_RCC_PLLSAI_DISABLE();
 8004858:	4b52      	ldr	r3, [pc, #328]	; (80049a4 <HAL_RCCEx_PeriphCLKConfig+0x284>)
 800485a:	2200      	movs	r2, #0
 800485c:	601a      	str	r2, [r3, #0]
    /* Get tick */
    tickstart = HAL_GetTick();
 800485e:	f7fd fedd 	bl	800261c <HAL_GetTick>
 8004862:	6178      	str	r0, [r7, #20]
    /* Wait till PLLSAI is disabled */
    while(__HAL_RCC_PLLSAI_GET_FLAG() != RESET)
 8004864:	e008      	b.n	8004878 <HAL_RCCEx_PeriphCLKConfig+0x158>
    {
      if((HAL_GetTick() - tickstart ) > PLLSAI_TIMEOUT_VALUE)
 8004866:	f7fd fed9 	bl	800261c <HAL_GetTick>
 800486a:	4602      	mov	r2, r0
 800486c:	697b      	ldr	r3, [r7, #20]
 800486e:	1ad3      	subs	r3, r2, r3
 8004870:	2b02      	cmp	r3, #2
 8004872:	d901      	bls.n	8004878 <HAL_RCCEx_PeriphCLKConfig+0x158>
      {
        /* return in case of Timeout detected */
        return HAL_TIMEOUT;
 8004874:	2303      	movs	r3, #3
 8004876:	e107      	b.n	8004a88 <HAL_RCCEx_PeriphCLKConfig+0x368>
    while(__HAL_RCC_PLLSAI_GET_FLAG() != RESET)
 8004878:	4b49      	ldr	r3, [pc, #292]	; (80049a0 <HAL_RCCEx_PeriphCLKConfig+0x280>)
 800487a:	681b      	ldr	r3, [r3, #0]
 800487c:	f003 5300 	and.w	r3, r3, #536870912	; 0x20000000
 8004880:	f1b3 5f00 	cmp.w	r3, #536870912	; 0x20000000
 8004884:	d0ef      	beq.n	8004866 <HAL_RCCEx_PeriphCLKConfig+0x146>
    }

    /*---------------------------- SAI configuration -------------------------*/
    /* In Case of SAI Clock Configuration through PLLSAI, PLLSAIQ and PLLSAI_DIVQ must
       be added only for SAI configuration */
    if(((PeriphClkInit->PeriphClockSelection) & RCC_PERIPHCLK_SAI_PLLSAI) == (RCC_PERIPHCLK_SAI_PLLSAI))
 8004886:	687b      	ldr	r3, [r7, #4]
 8004888:	681b      	ldr	r3, [r3, #0]
 800488a:	f003 0304 	and.w	r3, r3, #4
 800488e:	2b00      	cmp	r3, #0
 8004890:	d020      	beq.n	80048d4 <HAL_RCCEx_PeriphCLKConfig+0x1b4>
    {
      assert_param(IS_RCC_PLLSAIQ_VALUE(PeriphClkInit->PLLSAI.PLLSAIQ));
      assert_param(IS_RCC_PLLSAI_DIVQ_VALUE(PeriphClkInit->PLLSAIDivQ));

      /* Read PLLSAIR value from PLLSAICFGR register (this value is not need for SAI configuration) */
      tmpreg1 = ((RCC->PLLSAICFGR & RCC_PLLSAICFGR_PLLSAIR) >> RCC_PLLSAICFGR_PLLSAIR_Pos);
 8004892:	4b43      	ldr	r3, [pc, #268]	; (80049a0 <HAL_RCCEx_PeriphCLKConfig+0x280>)
 8004894:	f8d3 3088 	ldr.w	r3, [r3, #136]	; 0x88
 8004898:	0f1b      	lsrs	r3, r3, #28
 800489a:	f003 0307 	and.w	r3, r3, #7
 800489e:	613b      	str	r3, [r7, #16]
      /* PLLSAI_VCO Input  = PLL_SOURCE/PLLM */
      /* PLLSAI_VCO Output = PLLSAI_VCO Input * PLLSAIN */
      /* SAI_CLK(first level) = PLLSAI_VCO Output/PLLSAIQ */
      __HAL_RCC_PLLSAI_CONFIG(PeriphClkInit->PLLSAI.PLLSAIN , PeriphClkInit->PLLSAI.PLLSAIQ, tmpreg1);
 80048a0:	687b      	ldr	r3, [r7, #4]
 80048a2:	691b      	ldr	r3, [r3, #16]
 80048a4:	019a      	lsls	r2, r3, #6
 80048a6:	687b      	ldr	r3, [r7, #4]
 80048a8:	695b      	ldr	r3, [r3, #20]
 80048aa:	061b      	lsls	r3, r3, #24
 80048ac:	431a      	orrs	r2, r3
 80048ae:	693b      	ldr	r3, [r7, #16]
 80048b0:	071b      	lsls	r3, r3, #28
 80048b2:	493b      	ldr	r1, [pc, #236]	; (80049a0 <HAL_RCCEx_PeriphCLKConfig+0x280>)
 80048b4:	4313      	orrs	r3, r2
 80048b6:	f8c1 3088 	str.w	r3, [r1, #136]	; 0x88
      /* SAI_CLK_x = SAI_CLK(first level)/PLLSAIDIVQ */
      __HAL_RCC_PLLSAI_PLLSAICLKDIVQ_CONFIG(PeriphClkInit->PLLSAIDivQ);
 80048ba:	4b39      	ldr	r3, [pc, #228]	; (80049a0 <HAL_RCCEx_PeriphCLKConfig+0x280>)
 80048bc:	f8d3 308c 	ldr.w	r3, [r3, #140]	; 0x8c
 80048c0:	f423 52f8 	bic.w	r2, r3, #7936	; 0x1f00
 80048c4:	687b      	ldr	r3, [r7, #4]
 80048c6:	6a1b      	ldr	r3, [r3, #32]
 80048c8:	3b01      	subs	r3, #1
 80048ca:	021b      	lsls	r3, r3, #8
 80048cc:	4934      	ldr	r1, [pc, #208]	; (80049a0 <HAL_RCCEx_PeriphCLKConfig+0x280>)
 80048ce:	4313      	orrs	r3, r2
 80048d0:	f8c1 308c 	str.w	r3, [r1, #140]	; 0x8c
    }

    /*---------------------------- LTDC configuration ------------------------*/
    if(((PeriphClkInit->PeriphClockSelection) & RCC_PERIPHCLK_LTDC) == (RCC_PERIPHCLK_LTDC))
 80048d4:	687b      	ldr	r3, [r7, #4]
 80048d6:	681b      	ldr	r3, [r3, #0]
 80048d8:	f003 0308 	and.w	r3, r3, #8
 80048dc:	2b00      	cmp	r3, #0
 80048de:	d01e      	beq.n	800491e <HAL_RCCEx_PeriphCLKConfig+0x1fe>
    {
      assert_param(IS_RCC_PLLSAIR_VALUE(PeriphClkInit->PLLSAI.PLLSAIR));
      assert_param(IS_RCC_PLLSAI_DIVR_VALUE(PeriphClkInit->PLLSAIDivR));

      /* Read PLLSAIR value from PLLSAICFGR register (this value is not need for SAI configuration) */
      tmpreg1 = ((RCC->PLLSAICFGR & RCC_PLLSAICFGR_PLLSAIQ) >> RCC_PLLSAICFGR_PLLSAIQ_Pos);
 80048e0:	4b2f      	ldr	r3, [pc, #188]	; (80049a0 <HAL_RCCEx_PeriphCLKConfig+0x280>)
 80048e2:	f8d3 3088 	ldr.w	r3, [r3, #136]	; 0x88
 80048e6:	0e1b      	lsrs	r3, r3, #24
 80048e8:	f003 030f 	and.w	r3, r3, #15
 80048ec:	613b      	str	r3, [r7, #16]
      /* PLLSAI_VCO Input  = PLL_SOURCE/PLLM */
      /* PLLSAI_VCO Output = PLLSAI_VCO Input * PLLSAIN */
      /* LTDC_CLK(first level) = PLLSAI_VCO Output/PLLSAIR */
      __HAL_RCC_PLLSAI_CONFIG(PeriphClkInit->PLLSAI.PLLSAIN , tmpreg1, PeriphClkInit->PLLSAI.PLLSAIR);
 80048ee:	687b      	ldr	r3, [r7, #4]
 80048f0:	691b      	ldr	r3, [r3, #16]
 80048f2:	019a      	lsls	r2, r3, #6
 80048f4:	693b      	ldr	r3, [r7, #16]
 80048f6:	061b      	lsls	r3, r3, #24
 80048f8:	431a      	orrs	r2, r3
 80048fa:	687b      	ldr	r3, [r7, #4]
 80048fc:	699b      	ldr	r3, [r3, #24]
 80048fe:	071b      	lsls	r3, r3, #28
 8004900:	4927      	ldr	r1, [pc, #156]	; (80049a0 <HAL_RCCEx_PeriphCLKConfig+0x280>)
 8004902:	4313      	orrs	r3, r2
 8004904:	f8c1 3088 	str.w	r3, [r1, #136]	; 0x88
      /* LTDC_CLK = LTDC_CLK(first level)/PLLSAIDIVR */
      __HAL_RCC_PLLSAI_PLLSAICLKDIVR_CONFIG(PeriphClkInit->PLLSAIDivR);
 8004908:	4b25      	ldr	r3, [pc, #148]	; (80049a0 <HAL_RCCEx_PeriphCLKConfig+0x280>)
 800490a:	f8d3 308c 	ldr.w	r3, [r3, #140]	; 0x8c
 800490e:	f423 3240 	bic.w	r2, r3, #196608	; 0x30000
 8004912:	687b      	ldr	r3, [r7, #4]
 8004914:	6a5b      	ldr	r3, [r3, #36]	; 0x24
 8004916:	4922      	ldr	r1, [pc, #136]	; (80049a0 <HAL_RCCEx_PeriphCLKConfig+0x280>)
 8004918:	4313      	orrs	r3, r2
 800491a:	f8c1 308c 	str.w	r3, [r1, #140]	; 0x8c
    }
    /* Enable PLLSAI Clock */
    __HAL_RCC_PLLSAI_ENABLE();
 800491e:	4b21      	ldr	r3, [pc, #132]	; (80049a4 <HAL_RCCEx_PeriphCLKConfig+0x284>)
 8004920:	2201      	movs	r2, #1
 8004922:	601a      	str	r2, [r3, #0]
    /* Get tick */
    tickstart = HAL_GetTick();
 8004924:	f7fd fe7a 	bl	800261c <HAL_GetTick>
 8004928:	6178      	str	r0, [r7, #20]
    /* Wait till PLLSAI is ready */
    while(__HAL_RCC_PLLSAI_GET_FLAG() == RESET)
 800492a:	e008      	b.n	800493e <HAL_RCCEx_PeriphCLKConfig+0x21e>
    {
      if((HAL_GetTick() - tickstart ) > PLLSAI_TIMEOUT_VALUE)
 800492c:	f7fd fe76 	bl	800261c <HAL_GetTick>
 8004930:	4602      	mov	r2, r0
 8004932:	697b      	ldr	r3, [r7, #20]
 8004934:	1ad3      	subs	r3, r2, r3
 8004936:	2b02      	cmp	r3, #2
 8004938:	d901      	bls.n	800493e <HAL_RCCEx_PeriphCLKConfig+0x21e>
      {
        /* return in case of Timeout detected */
        return HAL_TIMEOUT;
 800493a:	2303      	movs	r3, #3
 800493c:	e0a4      	b.n	8004a88 <HAL_RCCEx_PeriphCLKConfig+0x368>
    while(__HAL_RCC_PLLSAI_GET_FLAG() == RESET)
 800493e:	4b18      	ldr	r3, [pc, #96]	; (80049a0 <HAL_RCCEx_PeriphCLKConfig+0x280>)
 8004940:	681b      	ldr	r3, [r3, #0]
 8004942:	f003 5300 	and.w	r3, r3, #536870912	; 0x20000000
 8004946:	f1b3 5f00 	cmp.w	r3, #536870912	; 0x20000000
 800494a:	d1ef      	bne.n	800492c <HAL_RCCEx_PeriphCLKConfig+0x20c>
    }
  }
  /*--------------------------------------------------------------------------*/

  /*---------------------------- RTC configuration ---------------------------*/
  if(((PeriphClkInit->PeriphClockSelection) & RCC_PERIPHCLK_RTC) == (RCC_PERIPHCLK_RTC))
 800494c:	687b      	ldr	r3, [r7, #4]
 800494e:	681b      	ldr	r3, [r3, #0]
 8004950:	f003 0320 	and.w	r3, r3, #32
 8004954:	2b00      	cmp	r3, #0
 8004956:	f000 808b 	beq.w	8004a70 <HAL_RCCEx_PeriphCLKConfig+0x350>
  {
    /* Check for RTC Parameters used to output RTCCLK */
    assert_param(IS_RCC_RTCCLKSOURCE(PeriphClkInit->RTCClockSelection));

    /* Enable Power Clock*/
    __HAL_RCC_PWR_CLK_ENABLE();
 800495a:	2300      	movs	r3, #0
 800495c:	60fb      	str	r3, [r7, #12]
 800495e:	4b10      	ldr	r3, [pc, #64]	; (80049a0 <HAL_RCCEx_PeriphCLKConfig+0x280>)
 8004960:	6c1b      	ldr	r3, [r3, #64]	; 0x40
 8004962:	4a0f      	ldr	r2, [pc, #60]	; (80049a0 <HAL_RCCEx_PeriphCLKConfig+0x280>)
 8004964:	f043 5380 	orr.w	r3, r3, #268435456	; 0x10000000
 8004968:	6413      	str	r3, [r2, #64]	; 0x40
 800496a:	4b0d      	ldr	r3, [pc, #52]	; (80049a0 <HAL_RCCEx_PeriphCLKConfig+0x280>)
 800496c:	6c1b      	ldr	r3, [r3, #64]	; 0x40
 800496e:	f003 5380 	and.w	r3, r3, #268435456	; 0x10000000
 8004972:	60fb      	str	r3, [r7, #12]
 8004974:	68fb      	ldr	r3, [r7, #12]

    /* Enable write access to Backup domain */
    PWR->CR |= PWR_CR_DBP;
 8004976:	4b0c      	ldr	r3, [pc, #48]	; (80049a8 <HAL_RCCEx_PeriphCLKConfig+0x288>)
 8004978:	681b      	ldr	r3, [r3, #0]
 800497a:	4a0b      	ldr	r2, [pc, #44]	; (80049a8 <HAL_RCCEx_PeriphCLKConfig+0x288>)
 800497c:	f443 7380 	orr.w	r3, r3, #256	; 0x100
 8004980:	6013      	str	r3, [r2, #0]

    /* Get tick */
    tickstart = HAL_GetTick();
 8004982:	f7fd fe4b 	bl	800261c <HAL_GetTick>
 8004986:	6178      	str	r0, [r7, #20]

    while((PWR->CR & PWR_CR_DBP) == RESET)
 8004988:	e010      	b.n	80049ac <HAL_RCCEx_PeriphCLKConfig+0x28c>
    {
      if((HAL_GetTick() - tickstart ) > RCC_DBP_TIMEOUT_VALUE)
 800498a:	f7fd fe47 	bl	800261c <HAL_GetTick>
 800498e:	4602      	mov	r2, r0
 8004990:	697b      	ldr	r3, [r7, #20]
 8004992:	1ad3      	subs	r3, r2, r3
 8004994:	2b02      	cmp	r3, #2
 8004996:	d909      	bls.n	80049ac <HAL_RCCEx_PeriphCLKConfig+0x28c>
      {
        return HAL_TIMEOUT;
 8004998:	2303      	movs	r3, #3
 800499a:	e075      	b.n	8004a88 <HAL_RCCEx_PeriphCLKConfig+0x368>
 800499c:	42470068 	.word	0x42470068
 80049a0:	40023800 	.word	0x40023800
 80049a4:	42470070 	.word	0x42470070
 80049a8:	40007000 	.word	0x40007000
    while((PWR->CR & PWR_CR_DBP) == RESET)
 80049ac:	4b38      	ldr	r3, [pc, #224]	; (8004a90 <HAL_RCCEx_PeriphCLKConfig+0x370>)
 80049ae:	681b      	ldr	r3, [r3, #0]
 80049b0:	f403 7380 	and.w	r3, r3, #256	; 0x100
 80049b4:	2b00      	cmp	r3, #0
 80049b6:	d0e8      	beq.n	800498a <HAL_RCCEx_PeriphCLKConfig+0x26a>
      }
    }
    /* Reset the Backup domain only if the RTC Clock source selection is modified from reset value */
    tmpreg1 = (RCC->BDCR & RCC_BDCR_RTCSEL);
 80049b8:	4b36      	ldr	r3, [pc, #216]	; (8004a94 <HAL_RCCEx_PeriphCLKConfig+0x374>)
 80049ba:	6f1b      	ldr	r3, [r3, #112]	; 0x70
 80049bc:	f403 7340 	and.w	r3, r3, #768	; 0x300
 80049c0:	613b      	str	r3, [r7, #16]
    if((tmpreg1 != 0x00000000U) && ((tmpreg1) != (PeriphClkInit->RTCClockSelection & RCC_BDCR_RTCSEL)))
 80049c2:	693b      	ldr	r3, [r7, #16]
 80049c4:	2b00      	cmp	r3, #0
 80049c6:	d02f      	beq.n	8004a28 <HAL_RCCEx_PeriphCLKConfig+0x308>
 80049c8:	687b      	ldr	r3, [r7, #4]
 80049ca:	6a9b      	ldr	r3, [r3, #40]	; 0x28
 80049cc:	f403 7340 	and.w	r3, r3, #768	; 0x300
 80049d0:	693a      	ldr	r2, [r7, #16]
 80049d2:	429a      	cmp	r2, r3
 80049d4:	d028      	beq.n	8004a28 <HAL_RCCEx_PeriphCLKConfig+0x308>
    {
      /* Store the content of BDCR register before the reset of Backup Domain */
      tmpreg1 = (RCC->BDCR & ~(RCC_BDCR_RTCSEL));
 80049d6:	4b2f      	ldr	r3, [pc, #188]	; (8004a94 <HAL_RCCEx_PeriphCLKConfig+0x374>)
 80049d8:	6f1b      	ldr	r3, [r3, #112]	; 0x70
 80049da:	f423 7340 	bic.w	r3, r3, #768	; 0x300
 80049de:	613b      	str	r3, [r7, #16]
      /* RTC Clock selection can be changed only if the Backup Domain is reset */
      __HAL_RCC_BACKUPRESET_FORCE();
 80049e0:	4b2d      	ldr	r3, [pc, #180]	; (8004a98 <HAL_RCCEx_PeriphCLKConfig+0x378>)
 80049e2:	2201      	movs	r2, #1
 80049e4:	601a      	str	r2, [r3, #0]
      __HAL_RCC_BACKUPRESET_RELEASE();
 80049e6:	4b2c      	ldr	r3, [pc, #176]	; (8004a98 <HAL_RCCEx_PeriphCLKConfig+0x378>)
 80049e8:	2200      	movs	r2, #0
 80049ea:	601a      	str	r2, [r3, #0]
      /* Restore the Content of BDCR register */
      RCC->BDCR = tmpreg1;
 80049ec:	4a29      	ldr	r2, [pc, #164]	; (8004a94 <HAL_RCCEx_PeriphCLKConfig+0x374>)
 80049ee:	693b      	ldr	r3, [r7, #16]
 80049f0:	6713      	str	r3, [r2, #112]	; 0x70

      /* Wait for LSE reactivation if LSE was enable prior to Backup Domain reset */
      if(HAL_IS_BIT_SET(RCC->BDCR, RCC_BDCR_LSEON))
 80049f2:	4b28      	ldr	r3, [pc, #160]	; (8004a94 <HAL_RCCEx_PeriphCLKConfig+0x374>)
 80049f4:	6f1b      	ldr	r3, [r3, #112]	; 0x70
 80049f6:	f003 0301 	and.w	r3, r3, #1
 80049fa:	2b01      	cmp	r3, #1
 80049fc:	d114      	bne.n	8004a28 <HAL_RCCEx_PeriphCLKConfig+0x308>
      {
        /* Get tick */
        tickstart = HAL_GetTick();
 80049fe:	f7fd fe0d 	bl	800261c <HAL_GetTick>
 8004a02:	6178      	str	r0, [r7, #20]

        /* Wait till LSE is ready */
        while(__HAL_RCC_GET_FLAG(RCC_FLAG_LSERDY) == RESET)
 8004a04:	e00a      	b.n	8004a1c <HAL_RCCEx_PeriphCLKConfig+0x2fc>
        {
          if((HAL_GetTick() - tickstart ) > RCC_LSE_TIMEOUT_VALUE)
 8004a06:	f7fd fe09 	bl	800261c <HAL_GetTick>
 8004a0a:	4602      	mov	r2, r0
 8004a0c:	697b      	ldr	r3, [r7, #20]
 8004a0e:	1ad3      	subs	r3, r2, r3
 8004a10:	f241 3288 	movw	r2, #5000	; 0x1388
 8004a14:	4293      	cmp	r3, r2
 8004a16:	d901      	bls.n	8004a1c <HAL_RCCEx_PeriphCLKConfig+0x2fc>
          {
            return HAL_TIMEOUT;
 8004a18:	2303      	movs	r3, #3
 8004a1a:	e035      	b.n	8004a88 <HAL_RCCEx_PeriphCLKConfig+0x368>
        while(__HAL_RCC_GET_FLAG(RCC_FLAG_LSERDY) == RESET)
 8004a1c:	4b1d      	ldr	r3, [pc, #116]	; (8004a94 <HAL_RCCEx_PeriphCLKConfig+0x374>)
 8004a1e:	6f1b      	ldr	r3, [r3, #112]	; 0x70
 8004a20:	f003 0302 	and.w	r3, r3, #2
 8004a24:	2b00      	cmp	r3, #0
 8004a26:	d0ee      	beq.n	8004a06 <HAL_RCCEx_PeriphCLKConfig+0x2e6>
          }
        }
      }
    }
    __HAL_RCC_RTC_CONFIG(PeriphClkInit->RTCClockSelection);
 8004a28:	687b      	ldr	r3, [r7, #4]
 8004a2a:	6a9b      	ldr	r3, [r3, #40]	; 0x28
 8004a2c:	f403 7340 	and.w	r3, r3, #768	; 0x300
 8004a30:	f5b3 7f40 	cmp.w	r3, #768	; 0x300
 8004a34:	d10d      	bne.n	8004a52 <HAL_RCCEx_PeriphCLKConfig+0x332>
 8004a36:	4b17      	ldr	r3, [pc, #92]	; (8004a94 <HAL_RCCEx_PeriphCLKConfig+0x374>)
 8004a38:	689b      	ldr	r3, [r3, #8]
 8004a3a:	f423 12f8 	bic.w	r2, r3, #2031616	; 0x1f0000
 8004a3e:	687b      	ldr	r3, [r7, #4]
 8004a40:	6a9b      	ldr	r3, [r3, #40]	; 0x28
 8004a42:	f023 4370 	bic.w	r3, r3, #4026531840	; 0xf0000000
 8004a46:	f423 7340 	bic.w	r3, r3, #768	; 0x300
 8004a4a:	4912      	ldr	r1, [pc, #72]	; (8004a94 <HAL_RCCEx_PeriphCLKConfig+0x374>)
 8004a4c:	4313      	orrs	r3, r2
 8004a4e:	608b      	str	r3, [r1, #8]
 8004a50:	e005      	b.n	8004a5e <HAL_RCCEx_PeriphCLKConfig+0x33e>
 8004a52:	4b10      	ldr	r3, [pc, #64]	; (8004a94 <HAL_RCCEx_PeriphCLKConfig+0x374>)
 8004a54:	689b      	ldr	r3, [r3, #8]
 8004a56:	4a0f      	ldr	r2, [pc, #60]	; (8004a94 <HAL_RCCEx_PeriphCLKConfig+0x374>)
 8004a58:	f423 13f8 	bic.w	r3, r3, #2031616	; 0x1f0000
 8004a5c:	6093      	str	r3, [r2, #8]
 8004a5e:	4b0d      	ldr	r3, [pc, #52]	; (8004a94 <HAL_RCCEx_PeriphCLKConfig+0x374>)
 8004a60:	6f1a      	ldr	r2, [r3, #112]	; 0x70
 8004a62:	687b      	ldr	r3, [r7, #4]
 8004a64:	6a9b      	ldr	r3, [r3, #40]	; 0x28
 8004a66:	f3c3 030b 	ubfx	r3, r3, #0, #12
 8004a6a:	490a      	ldr	r1, [pc, #40]	; (8004a94 <HAL_RCCEx_PeriphCLKConfig+0x374>)
 8004a6c:	4313      	orrs	r3, r2
 8004a6e:	670b      	str	r3, [r1, #112]	; 0x70
  }
  /*--------------------------------------------------------------------------*/

  /*---------------------------- TIM configuration ---------------------------*/
  if(((PeriphClkInit->PeriphClockSelection) & RCC_PERIPHCLK_TIM) == (RCC_PERIPHCLK_TIM))
 8004a70:	687b      	ldr	r3, [r7, #4]
 8004a72:	681b      	ldr	r3, [r3, #0]
 8004a74:	f003 0310 	and.w	r3, r3, #16
 8004a78:	2b00      	cmp	r3, #0
 8004a7a:	d004      	beq.n	8004a86 <HAL_RCCEx_PeriphCLKConfig+0x366>
  {
    __HAL_RCC_TIMCLKPRESCALER(PeriphClkInit->TIMPresSelection);
 8004a7c:	687b      	ldr	r3, [r7, #4]
 8004a7e:	f893 202c 	ldrb.w	r2, [r3, #44]	; 0x2c
 8004a82:	4b06      	ldr	r3, [pc, #24]	; (8004a9c <HAL_RCCEx_PeriphCLKConfig+0x37c>)
 8004a84:	601a      	str	r2, [r3, #0]
  }
  return HAL_OK;
 8004a86:	2300      	movs	r3, #0
}
 8004a88:	4618      	mov	r0, r3
 8004a8a:	3718      	adds	r7, #24
 8004a8c:	46bd      	mov	sp, r7
 8004a8e:	bd80      	pop	{r7, pc}
 8004a90:	40007000 	.word	0x40007000
 8004a94:	40023800 	.word	0x40023800
 8004a98:	42470e40 	.word	0x42470e40
 8004a9c:	424711e0 	.word	0x424711e0

08004aa0 <HAL_RTC_Init>:
  * @param  hrtc pointer to a RTC_HandleTypeDef structure that contains
  *                the configuration information for RTC.
  * @retval HAL status
  */
HAL_StatusTypeDef HAL_RTC_Init(RTC_HandleTypeDef *hrtc)
{
 8004aa0:	b580      	push	{r7, lr}
 8004aa2:	b084      	sub	sp, #16
 8004aa4:	af00      	add	r7, sp, #0
 8004aa6:	6078      	str	r0, [r7, #4]
  HAL_StatusTypeDef status = HAL_ERROR;
 8004aa8:	2301      	movs	r3, #1
 8004aaa:	73fb      	strb	r3, [r7, #15]

  /* Check RTC handler validity */
  if (hrtc == NULL)
 8004aac:	687b      	ldr	r3, [r7, #4]
 8004aae:	2b00      	cmp	r3, #0
 8004ab0:	d101      	bne.n	8004ab6 <HAL_RTC_Init+0x16>
  {
    return HAL_ERROR;
 8004ab2:	2301      	movs	r3, #1
 8004ab4:	e073      	b.n	8004b9e <HAL_RTC_Init+0xfe>
    {
      hrtc->MspDeInitCallback = HAL_RTC_MspDeInit;
    }
  }
#else /* USE_HAL_RTC_REGISTER_CALLBACKS */
  if (hrtc->State == HAL_RTC_STATE_RESET)
 8004ab6:	687b      	ldr	r3, [r7, #4]
 8004ab8:	7f5b      	ldrb	r3, [r3, #29]
 8004aba:	b2db      	uxtb	r3, r3
 8004abc:	2b00      	cmp	r3, #0
 8004abe:	d105      	bne.n	8004acc <HAL_RTC_Init+0x2c>
  {
    /* Allocate lock resource and initialize it */
    hrtc->Lock = HAL_UNLOCKED;
 8004ac0:	687b      	ldr	r3, [r7, #4]
 8004ac2:	2200      	movs	r2, #0
 8004ac4:	771a      	strb	r2, [r3, #28]

    /* Initialize RTC MSP */
    HAL_RTC_MspInit(hrtc);
 8004ac6:	6878      	ldr	r0, [r7, #4]
 8004ac8:	f7fd fb34 	bl	8002134 <HAL_RTC_MspInit>
  }
#endif /* USE_HAL_RTC_REGISTER_CALLBACKS */

  /* Set RTC state */
  hrtc->State = HAL_RTC_STATE_BUSY;
 8004acc:	687b      	ldr	r3, [r7, #4]
 8004ace:	2202      	movs	r2, #2
 8004ad0:	775a      	strb	r2, [r3, #29]

  /* Check whether the calendar needs to be initialized */
  if (__HAL_RTC_IS_CALENDAR_INITIALIZED(hrtc) == 0U)
 8004ad2:	687b      	ldr	r3, [r7, #4]
 8004ad4:	681b      	ldr	r3, [r3, #0]
 8004ad6:	68db      	ldr	r3, [r3, #12]
 8004ad8:	f003 0310 	and.w	r3, r3, #16
 8004adc:	2b10      	cmp	r3, #16
 8004ade:	d055      	beq.n	8004b8c <HAL_RTC_Init+0xec>
  {
    /* Disable the write protection for RTC registers */
    __HAL_RTC_WRITEPROTECTION_DISABLE(hrtc);
 8004ae0:	687b      	ldr	r3, [r7, #4]
 8004ae2:	681b      	ldr	r3, [r3, #0]
 8004ae4:	22ca      	movs	r2, #202	; 0xca
 8004ae6:	625a      	str	r2, [r3, #36]	; 0x24
 8004ae8:	687b      	ldr	r3, [r7, #4]
 8004aea:	681b      	ldr	r3, [r3, #0]
 8004aec:	2253      	movs	r2, #83	; 0x53
 8004aee:	625a      	str	r2, [r3, #36]	; 0x24

    /* Enter Initialization mode */
    status = RTC_EnterInitMode(hrtc);
 8004af0:	6878      	ldr	r0, [r7, #4]
 8004af2:	f000 fa49 	bl	8004f88 <RTC_EnterInitMode>
 8004af6:	4603      	mov	r3, r0
 8004af8:	73fb      	strb	r3, [r7, #15]

    if (status == HAL_OK)
 8004afa:	7bfb      	ldrb	r3, [r7, #15]
 8004afc:	2b00      	cmp	r3, #0
 8004afe:	d12c      	bne.n	8004b5a <HAL_RTC_Init+0xba>
    {
      /* Clear RTC_CR FMT, OSEL and POL Bits */
      hrtc->Instance->CR &= ((uint32_t)~(RTC_CR_FMT | RTC_CR_OSEL | RTC_CR_POL));
 8004b00:	687b      	ldr	r3, [r7, #4]
 8004b02:	681b      	ldr	r3, [r3, #0]
 8004b04:	689b      	ldr	r3, [r3, #8]
 8004b06:	687a      	ldr	r2, [r7, #4]
 8004b08:	6812      	ldr	r2, [r2, #0]
 8004b0a:	f423 03e0 	bic.w	r3, r3, #7340032	; 0x700000
 8004b0e:	f023 0340 	bic.w	r3, r3, #64	; 0x40
 8004b12:	6093      	str	r3, [r2, #8]
      /* Set RTC_CR register */
      hrtc->Instance->CR |= (uint32_t)(hrtc->Init.HourFormat | hrtc->Init.OutPut | hrtc->Init.OutPutPolarity);
 8004b14:	687b      	ldr	r3, [r7, #4]
 8004b16:	681b      	ldr	r3, [r3, #0]
 8004b18:	6899      	ldr	r1, [r3, #8]
 8004b1a:	687b      	ldr	r3, [r7, #4]
 8004b1c:	685a      	ldr	r2, [r3, #4]
 8004b1e:	687b      	ldr	r3, [r7, #4]
 8004b20:	691b      	ldr	r3, [r3, #16]
 8004b22:	431a      	orrs	r2, r3
 8004b24:	687b      	ldr	r3, [r7, #4]
 8004b26:	695b      	ldr	r3, [r3, #20]
 8004b28:	431a      	orrs	r2, r3
 8004b2a:	687b      	ldr	r3, [r7, #4]
 8004b2c:	681b      	ldr	r3, [r3, #0]
 8004b2e:	430a      	orrs	r2, r1
 8004b30:	609a      	str	r2, [r3, #8]

      /* Configure the RTC PRER */
      hrtc->Instance->PRER = (uint32_t)(hrtc->Init.SynchPrediv);
 8004b32:	687b      	ldr	r3, [r7, #4]
 8004b34:	681b      	ldr	r3, [r3, #0]
 8004b36:	687a      	ldr	r2, [r7, #4]
 8004b38:	68d2      	ldr	r2, [r2, #12]
 8004b3a:	611a      	str	r2, [r3, #16]
      hrtc->Instance->PRER |= (uint32_t)(hrtc->Init.AsynchPrediv << RTC_PRER_PREDIV_A_Pos);
 8004b3c:	687b      	ldr	r3, [r7, #4]
 8004b3e:	681b      	ldr	r3, [r3, #0]
 8004b40:	6919      	ldr	r1, [r3, #16]
 8004b42:	687b      	ldr	r3, [r7, #4]
 8004b44:	689b      	ldr	r3, [r3, #8]
 8004b46:	041a      	lsls	r2, r3, #16
 8004b48:	687b      	ldr	r3, [r7, #4]
 8004b4a:	681b      	ldr	r3, [r3, #0]
 8004b4c:	430a      	orrs	r2, r1
 8004b4e:	611a      	str	r2, [r3, #16]

      /* Exit Initialization mode */
      status = RTC_ExitInitMode(hrtc);
 8004b50:	6878      	ldr	r0, [r7, #4]
 8004b52:	f000 fa50 	bl	8004ff6 <RTC_ExitInitMode>
 8004b56:	4603      	mov	r3, r0
 8004b58:	73fb      	strb	r3, [r7, #15]
    }

    if (status == HAL_OK)
 8004b5a:	7bfb      	ldrb	r3, [r7, #15]
 8004b5c:	2b00      	cmp	r3, #0
 8004b5e:	d110      	bne.n	8004b82 <HAL_RTC_Init+0xe2>
    {
      hrtc->Instance->TAFCR &= (uint32_t)~RTC_OUTPUT_TYPE_PUSHPULL;
 8004b60:	687b      	ldr	r3, [r7, #4]
 8004b62:	681b      	ldr	r3, [r3, #0]
 8004b64:	6c1a      	ldr	r2, [r3, #64]	; 0x40
 8004b66:	687b      	ldr	r3, [r7, #4]
 8004b68:	681b      	ldr	r3, [r3, #0]
 8004b6a:	f422 2280 	bic.w	r2, r2, #262144	; 0x40000
 8004b6e:	641a      	str	r2, [r3, #64]	; 0x40
      hrtc->Instance->TAFCR |= (uint32_t)(hrtc->Init.OutPutType);
 8004b70:	687b      	ldr	r3, [r7, #4]
 8004b72:	681b      	ldr	r3, [r3, #0]
 8004b74:	6c19      	ldr	r1, [r3, #64]	; 0x40
 8004b76:	687b      	ldr	r3, [r7, #4]
 8004b78:	699a      	ldr	r2, [r3, #24]
 8004b7a:	687b      	ldr	r3, [r7, #4]
 8004b7c:	681b      	ldr	r3, [r3, #0]
 8004b7e:	430a      	orrs	r2, r1
 8004b80:	641a      	str	r2, [r3, #64]	; 0x40
    }

    /* Enable the write protection for RTC registers */
    __HAL_RTC_WRITEPROTECTION_ENABLE(hrtc);
 8004b82:	687b      	ldr	r3, [r7, #4]
 8004b84:	681b      	ldr	r3, [r3, #0]
 8004b86:	22ff      	movs	r2, #255	; 0xff
 8004b88:	625a      	str	r2, [r3, #36]	; 0x24
 8004b8a:	e001      	b.n	8004b90 <HAL_RTC_Init+0xf0>
  }
  else
  {
    /* The calendar is already initialized */
    status = HAL_OK;
 8004b8c:	2300      	movs	r3, #0
 8004b8e:	73fb      	strb	r3, [r7, #15]
  }

  if (status == HAL_OK)
 8004b90:	7bfb      	ldrb	r3, [r7, #15]
 8004b92:	2b00      	cmp	r3, #0
 8004b94:	d102      	bne.n	8004b9c <HAL_RTC_Init+0xfc>
  {
    hrtc->State = HAL_RTC_STATE_READY;
 8004b96:	687b      	ldr	r3, [r7, #4]
 8004b98:	2201      	movs	r2, #1
 8004b9a:	775a      	strb	r2, [r3, #29]
  }

  return status;
 8004b9c:	7bfb      	ldrb	r3, [r7, #15]
}
 8004b9e:	4618      	mov	r0, r3
 8004ba0:	3710      	adds	r7, #16
 8004ba2:	46bd      	mov	sp, r7
 8004ba4:	bd80      	pop	{r7, pc}

08004ba6 <HAL_RTC_SetTime>:
  *            @arg RTC_FORMAT_BIN: Binary data format
  *            @arg RTC_FORMAT_BCD: BCD data format
  * @retval HAL status
  */
HAL_StatusTypeDef HAL_RTC_SetTime(RTC_HandleTypeDef *hrtc, RTC_TimeTypeDef *sTime, uint32_t Format)
{
 8004ba6:	b590      	push	{r4, r7, lr}
 8004ba8:	b087      	sub	sp, #28
 8004baa:	af00      	add	r7, sp, #0
 8004bac:	60f8      	str	r0, [r7, #12]
 8004bae:	60b9      	str	r1, [r7, #8]
 8004bb0:	607a      	str	r2, [r7, #4]
  uint32_t tmpreg = 0U;
 8004bb2:	2300      	movs	r3, #0
 8004bb4:	617b      	str	r3, [r7, #20]
  assert_param(IS_RTC_FORMAT(Format));
  assert_param(IS_RTC_DAYLIGHT_SAVING(sTime->DayLightSaving));
  assert_param(IS_RTC_STORE_OPERATION(sTime->StoreOperation));

  /* Process Locked */
  __HAL_LOCK(hrtc);
 8004bb6:	68fb      	ldr	r3, [r7, #12]
 8004bb8:	7f1b      	ldrb	r3, [r3, #28]
 8004bba:	2b01      	cmp	r3, #1
 8004bbc:	d101      	bne.n	8004bc2 <HAL_RTC_SetTime+0x1c>
 8004bbe:	2302      	movs	r3, #2
 8004bc0:	e087      	b.n	8004cd2 <HAL_RTC_SetTime+0x12c>
 8004bc2:	68fb      	ldr	r3, [r7, #12]
 8004bc4:	2201      	movs	r2, #1
 8004bc6:	771a      	strb	r2, [r3, #28]

  hrtc->State = HAL_RTC_STATE_BUSY;
 8004bc8:	68fb      	ldr	r3, [r7, #12]
 8004bca:	2202      	movs	r2, #2
 8004bcc:	775a      	strb	r2, [r3, #29]

  if (Format == RTC_FORMAT_BIN)
 8004bce:	687b      	ldr	r3, [r7, #4]
 8004bd0:	2b00      	cmp	r3, #0
 8004bd2:	d126      	bne.n	8004c22 <HAL_RTC_SetTime+0x7c>
  {
    if ((hrtc->Instance->CR & RTC_CR_FMT) != 0U)
 8004bd4:	68fb      	ldr	r3, [r7, #12]
 8004bd6:	681b      	ldr	r3, [r3, #0]
 8004bd8:	689b      	ldr	r3, [r3, #8]
 8004bda:	f003 0340 	and.w	r3, r3, #64	; 0x40
 8004bde:	2b00      	cmp	r3, #0
 8004be0:	d102      	bne.n	8004be8 <HAL_RTC_SetTime+0x42>
      assert_param(IS_RTC_HOUR12(sTime->Hours));
      assert_param(IS_RTC_HOURFORMAT12(sTime->TimeFormat));
    }
    else
    {
      sTime->TimeFormat = 0x00U;
 8004be2:	68bb      	ldr	r3, [r7, #8]
 8004be4:	2200      	movs	r2, #0
 8004be6:	70da      	strb	r2, [r3, #3]
      assert_param(IS_RTC_HOUR24(sTime->Hours));
    }
    assert_param(IS_RTC_MINUTES(sTime->Minutes));
    assert_param(IS_RTC_SECONDS(sTime->Seconds));

    tmpreg = (uint32_t)(( (uint32_t)RTC_ByteToBcd2(sTime->Hours)   << RTC_TR_HU_Pos)  | \
 8004be8:	68bb      	ldr	r3, [r7, #8]
 8004bea:	781b      	ldrb	r3, [r3, #0]
 8004bec:	4618      	mov	r0, r3
 8004bee:	f000 fa27 	bl	8005040 <RTC_ByteToBcd2>
 8004bf2:	4603      	mov	r3, r0
 8004bf4:	041c      	lsls	r4, r3, #16
                        ( (uint32_t)RTC_ByteToBcd2(sTime->Minutes) << RTC_TR_MNU_Pos) | \
 8004bf6:	68bb      	ldr	r3, [r7, #8]
 8004bf8:	785b      	ldrb	r3, [r3, #1]
 8004bfa:	4618      	mov	r0, r3
 8004bfc:	f000 fa20 	bl	8005040 <RTC_ByteToBcd2>
 8004c00:	4603      	mov	r3, r0
 8004c02:	021b      	lsls	r3, r3, #8
    tmpreg = (uint32_t)(( (uint32_t)RTC_ByteToBcd2(sTime->Hours)   << RTC_TR_HU_Pos)  | \
 8004c04:	431c      	orrs	r4, r3
                        ( (uint32_t)RTC_ByteToBcd2(sTime->Seconds))                   | \
 8004c06:	68bb      	ldr	r3, [r7, #8]
 8004c08:	789b      	ldrb	r3, [r3, #2]
 8004c0a:	4618      	mov	r0, r3
 8004c0c:	f000 fa18 	bl	8005040 <RTC_ByteToBcd2>
 8004c10:	4603      	mov	r3, r0
                        ( (uint32_t)RTC_ByteToBcd2(sTime->Minutes) << RTC_TR_MNU_Pos) | \
 8004c12:	ea44 0203 	orr.w	r2, r4, r3
                        (((uint32_t)sTime->TimeFormat)             << RTC_TR_PM_Pos));
 8004c16:	68bb      	ldr	r3, [r7, #8]
 8004c18:	78db      	ldrb	r3, [r3, #3]
 8004c1a:	059b      	lsls	r3, r3, #22
    tmpreg = (uint32_t)(( (uint32_t)RTC_ByteToBcd2(sTime->Hours)   << RTC_TR_HU_Pos)  | \
 8004c1c:	4313      	orrs	r3, r2
 8004c1e:	617b      	str	r3, [r7, #20]
 8004c20:	e018      	b.n	8004c54 <HAL_RTC_SetTime+0xae>
  }
  else
  {
    if ((hrtc->Instance->CR & RTC_CR_FMT) != 0U)
 8004c22:	68fb      	ldr	r3, [r7, #12]
 8004c24:	681b      	ldr	r3, [r3, #0]
 8004c26:	689b      	ldr	r3, [r3, #8]
 8004c28:	f003 0340 	and.w	r3, r3, #64	; 0x40
 8004c2c:	2b00      	cmp	r3, #0
 8004c2e:	d102      	bne.n	8004c36 <HAL_RTC_SetTime+0x90>
      assert_param(IS_RTC_HOUR12(RTC_Bcd2ToByte(sTime->Hours)));
      assert_param(IS_RTC_HOURFORMAT12(sTime->TimeFormat));
    }
    else
    {
      sTime->TimeFormat = 0x00U;
 8004c30:	68bb      	ldr	r3, [r7, #8]
 8004c32:	2200      	movs	r2, #0
 8004c34:	70da      	strb	r2, [r3, #3]
      assert_param(IS_RTC_HOUR24(RTC_Bcd2ToByte(sTime->Hours)));
    }
    assert_param(IS_RTC_MINUTES(RTC_Bcd2ToByte(sTime->Minutes)));
    assert_param(IS_RTC_SECONDS(RTC_Bcd2ToByte(sTime->Seconds)));
    tmpreg = (((uint32_t)(sTime->Hours)      << RTC_TR_HU_Pos)  | \
 8004c36:	68bb      	ldr	r3, [r7, #8]
 8004c38:	781b      	ldrb	r3, [r3, #0]
 8004c3a:	041a      	lsls	r2, r3, #16
              ((uint32_t)(sTime->Minutes)    << RTC_TR_MNU_Pos) | \
 8004c3c:	68bb      	ldr	r3, [r7, #8]
 8004c3e:	785b      	ldrb	r3, [r3, #1]
 8004c40:	021b      	lsls	r3, r3, #8
    tmpreg = (((uint32_t)(sTime->Hours)      << RTC_TR_HU_Pos)  | \
 8004c42:	4313      	orrs	r3, r2
              ((uint32_t) sTime->Seconds)                       | \
 8004c44:	68ba      	ldr	r2, [r7, #8]
 8004c46:	7892      	ldrb	r2, [r2, #2]
              ((uint32_t)(sTime->Minutes)    << RTC_TR_MNU_Pos) | \
 8004c48:	431a      	orrs	r2, r3
              ((uint32_t)(sTime->TimeFormat) << RTC_TR_PM_Pos));
 8004c4a:	68bb      	ldr	r3, [r7, #8]
 8004c4c:	78db      	ldrb	r3, [r3, #3]
 8004c4e:	059b      	lsls	r3, r3, #22
    tmpreg = (((uint32_t)(sTime->Hours)      << RTC_TR_HU_Pos)  | \
 8004c50:	4313      	orrs	r3, r2
 8004c52:	617b      	str	r3, [r7, #20]
  }

  /* Disable the write protection for RTC registers */
  __HAL_RTC_WRITEPROTECTION_DISABLE(hrtc);
 8004c54:	68fb      	ldr	r3, [r7, #12]
 8004c56:	681b      	ldr	r3, [r3, #0]
 8004c58:	22ca      	movs	r2, #202	; 0xca
 8004c5a:	625a      	str	r2, [r3, #36]	; 0x24
 8004c5c:	68fb      	ldr	r3, [r7, #12]
 8004c5e:	681b      	ldr	r3, [r3, #0]
 8004c60:	2253      	movs	r2, #83	; 0x53
 8004c62:	625a      	str	r2, [r3, #36]	; 0x24

  /* Enter Initialization mode */
  status = RTC_EnterInitMode(hrtc);
 8004c64:	68f8      	ldr	r0, [r7, #12]
 8004c66:	f000 f98f 	bl	8004f88 <RTC_EnterInitMode>
 8004c6a:	4603      	mov	r3, r0
 8004c6c:	74fb      	strb	r3, [r7, #19]

  if (status == HAL_OK)
 8004c6e:	7cfb      	ldrb	r3, [r7, #19]
 8004c70:	2b00      	cmp	r3, #0
 8004c72:	d120      	bne.n	8004cb6 <HAL_RTC_SetTime+0x110>
  {
    /* Set the RTC_TR register */
    hrtc->Instance->TR = (uint32_t)(tmpreg & RTC_TR_RESERVED_MASK);
 8004c74:	68fb      	ldr	r3, [r7, #12]
 8004c76:	681a      	ldr	r2, [r3, #0]
 8004c78:	697b      	ldr	r3, [r7, #20]
 8004c7a:	f003 337f 	and.w	r3, r3, #2139062143	; 0x7f7f7f7f
 8004c7e:	f023 43fe 	bic.w	r3, r3, #2130706432	; 0x7f000000
 8004c82:	6013      	str	r3, [r2, #0]

    /* Clear the bits to be configured (Deprecated. Use HAL_RTC_DST_xxx functions instead) */
    hrtc->Instance->CR &= (uint32_t)~RTC_CR_BKP;
 8004c84:	68fb      	ldr	r3, [r7, #12]
 8004c86:	681b      	ldr	r3, [r3, #0]
 8004c88:	689a      	ldr	r2, [r3, #8]
 8004c8a:	68fb      	ldr	r3, [r7, #12]
 8004c8c:	681b      	ldr	r3, [r3, #0]
 8004c8e:	f422 2280 	bic.w	r2, r2, #262144	; 0x40000
 8004c92:	609a      	str	r2, [r3, #8]

    /* Configure the RTC_CR register (Deprecated. Use HAL_RTC_DST_xxx functions instead) */
    hrtc->Instance->CR |= (uint32_t)(sTime->DayLightSaving | sTime->StoreOperation);
 8004c94:	68fb      	ldr	r3, [r7, #12]
 8004c96:	681b      	ldr	r3, [r3, #0]
 8004c98:	6899      	ldr	r1, [r3, #8]
 8004c9a:	68bb      	ldr	r3, [r7, #8]
 8004c9c:	68da      	ldr	r2, [r3, #12]
 8004c9e:	68bb      	ldr	r3, [r7, #8]
 8004ca0:	691b      	ldr	r3, [r3, #16]
 8004ca2:	431a      	orrs	r2, r3
 8004ca4:	68fb      	ldr	r3, [r7, #12]
 8004ca6:	681b      	ldr	r3, [r3, #0]
 8004ca8:	430a      	orrs	r2, r1
 8004caa:	609a      	str	r2, [r3, #8]

    /* Exit Initialization mode */
    status = RTC_ExitInitMode(hrtc);
 8004cac:	68f8      	ldr	r0, [r7, #12]
 8004cae:	f000 f9a2 	bl	8004ff6 <RTC_ExitInitMode>
 8004cb2:	4603      	mov	r3, r0
 8004cb4:	74fb      	strb	r3, [r7, #19]
  }

  if (status == HAL_OK)
 8004cb6:	7cfb      	ldrb	r3, [r7, #19]
 8004cb8:	2b00      	cmp	r3, #0
 8004cba:	d102      	bne.n	8004cc2 <HAL_RTC_SetTime+0x11c>
  {
    hrtc->State = HAL_RTC_STATE_READY;
 8004cbc:	68fb      	ldr	r3, [r7, #12]
 8004cbe:	2201      	movs	r2, #1
 8004cc0:	775a      	strb	r2, [r3, #29]
  }

  /* Enable the write protection for RTC registers */
  __HAL_RTC_WRITEPROTECTION_ENABLE(hrtc);
 8004cc2:	68fb      	ldr	r3, [r7, #12]
 8004cc4:	681b      	ldr	r3, [r3, #0]
 8004cc6:	22ff      	movs	r2, #255	; 0xff
 8004cc8:	625a      	str	r2, [r3, #36]	; 0x24

  /* Process Unlocked */
  __HAL_UNLOCK(hrtc);
 8004cca:	68fb      	ldr	r3, [r7, #12]
 8004ccc:	2200      	movs	r2, #0
 8004cce:	771a      	strb	r2, [r3, #28]

  return status;
 8004cd0:	7cfb      	ldrb	r3, [r7, #19]
}
 8004cd2:	4618      	mov	r0, r3
 8004cd4:	371c      	adds	r7, #28
 8004cd6:	46bd      	mov	sp, r7
 8004cd8:	bd90      	pop	{r4, r7, pc}

08004cda <HAL_RTC_GetTime>:
  *        until current date is read to ensure consistency between the time and
  *        date values.
  * @retval HAL status
  */
HAL_StatusTypeDef HAL_RTC_GetTime(RTC_HandleTypeDef *hrtc, RTC_TimeTypeDef *sTime, uint32_t Format)
{
 8004cda:	b580      	push	{r7, lr}
 8004cdc:	b086      	sub	sp, #24
 8004cde:	af00      	add	r7, sp, #0
 8004ce0:	60f8      	str	r0, [r7, #12]
 8004ce2:	60b9      	str	r1, [r7, #8]
 8004ce4:	607a      	str	r2, [r7, #4]
  uint32_t tmpreg = 0U;
 8004ce6:	2300      	movs	r3, #0
 8004ce8:	617b      	str	r3, [r7, #20]

  /* Check the parameters */
  assert_param(IS_RTC_FORMAT(Format));

  /* Get subseconds value from the corresponding register */
  sTime->SubSeconds = (uint32_t)(hrtc->Instance->SSR);
 8004cea:	68fb      	ldr	r3, [r7, #12]
 8004cec:	681b      	ldr	r3, [r3, #0]
 8004cee:	6a9a      	ldr	r2, [r3, #40]	; 0x28
 8004cf0:	68bb      	ldr	r3, [r7, #8]
 8004cf2:	605a      	str	r2, [r3, #4]

  /* Get SecondFraction structure field from the corresponding register field*/
  sTime->SecondFraction = (uint32_t)(hrtc->Instance->PRER & RTC_PRER_PREDIV_S);
 8004cf4:	68fb      	ldr	r3, [r7, #12]
 8004cf6:	681b      	ldr	r3, [r3, #0]
 8004cf8:	691b      	ldr	r3, [r3, #16]
 8004cfa:	f3c3 020e 	ubfx	r2, r3, #0, #15
 8004cfe:	68bb      	ldr	r3, [r7, #8]
 8004d00:	609a      	str	r2, [r3, #8]

  /* Get the TR register */
  tmpreg = (uint32_t)(hrtc->Instance->TR & RTC_TR_RESERVED_MASK);
 8004d02:	68fb      	ldr	r3, [r7, #12]
 8004d04:	681b      	ldr	r3, [r3, #0]
 8004d06:	681b      	ldr	r3, [r3, #0]
 8004d08:	f003 337f 	and.w	r3, r3, #2139062143	; 0x7f7f7f7f
 8004d0c:	f023 43fe 	bic.w	r3, r3, #2130706432	; 0x7f000000
 8004d10:	617b      	str	r3, [r7, #20]

  /* Fill the structure fields with the read parameters */
  sTime->Hours      = (uint8_t)((tmpreg & (RTC_TR_HT  | RTC_TR_HU))  >> RTC_TR_HU_Pos);
 8004d12:	697b      	ldr	r3, [r7, #20]
 8004d14:	0c1b      	lsrs	r3, r3, #16
 8004d16:	b2db      	uxtb	r3, r3
 8004d18:	f003 033f 	and.w	r3, r3, #63	; 0x3f
 8004d1c:	b2da      	uxtb	r2, r3
 8004d1e:	68bb      	ldr	r3, [r7, #8]
 8004d20:	701a      	strb	r2, [r3, #0]
  sTime->Minutes    = (uint8_t)((tmpreg & (RTC_TR_MNT | RTC_TR_MNU)) >> RTC_TR_MNU_Pos);
 8004d22:	697b      	ldr	r3, [r7, #20]
 8004d24:	0a1b      	lsrs	r3, r3, #8
 8004d26:	b2db      	uxtb	r3, r3
 8004d28:	f003 037f 	and.w	r3, r3, #127	; 0x7f
 8004d2c:	b2da      	uxtb	r2, r3
 8004d2e:	68bb      	ldr	r3, [r7, #8]
 8004d30:	705a      	strb	r2, [r3, #1]
  sTime->Seconds    = (uint8_t)( tmpreg & (RTC_TR_ST  | RTC_TR_SU));
 8004d32:	697b      	ldr	r3, [r7, #20]
 8004d34:	b2db      	uxtb	r3, r3
 8004d36:	f003 037f 	and.w	r3, r3, #127	; 0x7f
 8004d3a:	b2da      	uxtb	r2, r3
 8004d3c:	68bb      	ldr	r3, [r7, #8]
 8004d3e:	709a      	strb	r2, [r3, #2]
  sTime->TimeFormat = (uint8_t)((tmpreg & (RTC_TR_PM))               >> RTC_TR_PM_Pos);
 8004d40:	697b      	ldr	r3, [r7, #20]
 8004d42:	0d9b      	lsrs	r3, r3, #22
 8004d44:	b2db      	uxtb	r3, r3
 8004d46:	f003 0301 	and.w	r3, r3, #1
 8004d4a:	b2da      	uxtb	r2, r3
 8004d4c:	68bb      	ldr	r3, [r7, #8]
 8004d4e:	70da      	strb	r2, [r3, #3]

  /* Check the input parameters format */
  if (Format == RTC_FORMAT_BIN)
 8004d50:	687b      	ldr	r3, [r7, #4]
 8004d52:	2b00      	cmp	r3, #0
 8004d54:	d11a      	bne.n	8004d8c <HAL_RTC_GetTime+0xb2>
  {
    /* Convert the time structure parameters to Binary format */
    sTime->Hours = (uint8_t)RTC_Bcd2ToByte(sTime->Hours);
 8004d56:	68bb      	ldr	r3, [r7, #8]
 8004d58:	781b      	ldrb	r3, [r3, #0]
 8004d5a:	4618      	mov	r0, r3
 8004d5c:	f000 f98e 	bl	800507c <RTC_Bcd2ToByte>
 8004d60:	4603      	mov	r3, r0
 8004d62:	461a      	mov	r2, r3
 8004d64:	68bb      	ldr	r3, [r7, #8]
 8004d66:	701a      	strb	r2, [r3, #0]
    sTime->Minutes = (uint8_t)RTC_Bcd2ToByte(sTime->Minutes);
 8004d68:	68bb      	ldr	r3, [r7, #8]
 8004d6a:	785b      	ldrb	r3, [r3, #1]
 8004d6c:	4618      	mov	r0, r3
 8004d6e:	f000 f985 	bl	800507c <RTC_Bcd2ToByte>
 8004d72:	4603      	mov	r3, r0
 8004d74:	461a      	mov	r2, r3
 8004d76:	68bb      	ldr	r3, [r7, #8]
 8004d78:	705a      	strb	r2, [r3, #1]
    sTime->Seconds = (uint8_t)RTC_Bcd2ToByte(sTime->Seconds);
 8004d7a:	68bb      	ldr	r3, [r7, #8]
 8004d7c:	789b      	ldrb	r3, [r3, #2]
 8004d7e:	4618      	mov	r0, r3
 8004d80:	f000 f97c 	bl	800507c <RTC_Bcd2ToByte>
 8004d84:	4603      	mov	r3, r0
 8004d86:	461a      	mov	r2, r3
 8004d88:	68bb      	ldr	r3, [r7, #8]
 8004d8a:	709a      	strb	r2, [r3, #2]
  }

  return HAL_OK;
 8004d8c:	2300      	movs	r3, #0
}
 8004d8e:	4618      	mov	r0, r3
 8004d90:	3718      	adds	r7, #24
 8004d92:	46bd      	mov	sp, r7
 8004d94:	bd80      	pop	{r7, pc}

08004d96 <HAL_RTC_SetDate>:
  *            @arg RTC_FORMAT_BIN: Binary data format
  *            @arg RTC_FORMAT_BCD: BCD data format
  * @retval HAL status
  */
HAL_StatusTypeDef HAL_RTC_SetDate(RTC_HandleTypeDef *hrtc, RTC_DateTypeDef *sDate, uint32_t Format)
{
 8004d96:	b590      	push	{r4, r7, lr}
 8004d98:	b087      	sub	sp, #28
 8004d9a:	af00      	add	r7, sp, #0
 8004d9c:	60f8      	str	r0, [r7, #12]
 8004d9e:	60b9      	str	r1, [r7, #8]
 8004da0:	607a      	str	r2, [r7, #4]
  uint32_t datetmpreg = 0U;
 8004da2:	2300      	movs	r3, #0
 8004da4:	617b      	str	r3, [r7, #20]

  /* Check the parameters */
  assert_param(IS_RTC_FORMAT(Format));

  /* Process Locked */
  __HAL_LOCK(hrtc);
 8004da6:	68fb      	ldr	r3, [r7, #12]
 8004da8:	7f1b      	ldrb	r3, [r3, #28]
 8004daa:	2b01      	cmp	r3, #1
 8004dac:	d101      	bne.n	8004db2 <HAL_RTC_SetDate+0x1c>
 8004dae:	2302      	movs	r3, #2
 8004db0:	e071      	b.n	8004e96 <HAL_RTC_SetDate+0x100>
 8004db2:	68fb      	ldr	r3, [r7, #12]
 8004db4:	2201      	movs	r2, #1
 8004db6:	771a      	strb	r2, [r3, #28]

  hrtc->State = HAL_RTC_STATE_BUSY;
 8004db8:	68fb      	ldr	r3, [r7, #12]
 8004dba:	2202      	movs	r2, #2
 8004dbc:	775a      	strb	r2, [r3, #29]

  if ((Format == RTC_FORMAT_BIN) && ((sDate->Month & 0x10U) == 0x10U))
 8004dbe:	687b      	ldr	r3, [r7, #4]
 8004dc0:	2b00      	cmp	r3, #0
 8004dc2:	d10e      	bne.n	8004de2 <HAL_RTC_SetDate+0x4c>
 8004dc4:	68bb      	ldr	r3, [r7, #8]
 8004dc6:	785b      	ldrb	r3, [r3, #1]
 8004dc8:	f003 0310 	and.w	r3, r3, #16
 8004dcc:	2b00      	cmp	r3, #0
 8004dce:	d008      	beq.n	8004de2 <HAL_RTC_SetDate+0x4c>
  {
    sDate->Month = (uint8_t)((sDate->Month & (uint8_t)~(0x10U)) + (uint8_t)0x0AU);
 8004dd0:	68bb      	ldr	r3, [r7, #8]
 8004dd2:	785b      	ldrb	r3, [r3, #1]
 8004dd4:	f023 0310 	bic.w	r3, r3, #16
 8004dd8:	b2db      	uxtb	r3, r3
 8004dda:	330a      	adds	r3, #10
 8004ddc:	b2da      	uxtb	r2, r3
 8004dde:	68bb      	ldr	r3, [r7, #8]
 8004de0:	705a      	strb	r2, [r3, #1]
  }

  assert_param(IS_RTC_WEEKDAY(sDate->WeekDay));

  if (Format == RTC_FORMAT_BIN)
 8004de2:	687b      	ldr	r3, [r7, #4]
 8004de4:	2b00      	cmp	r3, #0
 8004de6:	d11c      	bne.n	8004e22 <HAL_RTC_SetDate+0x8c>
  {
    assert_param(IS_RTC_YEAR(sDate->Year));
    assert_param(IS_RTC_MONTH(sDate->Month));
    assert_param(IS_RTC_DATE(sDate->Date));

    datetmpreg = (((uint32_t)RTC_ByteToBcd2(sDate->Year)  << RTC_DR_YU_Pos) | \
 8004de8:	68bb      	ldr	r3, [r7, #8]
 8004dea:	78db      	ldrb	r3, [r3, #3]
 8004dec:	4618      	mov	r0, r3
 8004dee:	f000 f927 	bl	8005040 <RTC_ByteToBcd2>
 8004df2:	4603      	mov	r3, r0
 8004df4:	041c      	lsls	r4, r3, #16
                  ((uint32_t)RTC_ByteToBcd2(sDate->Month) << RTC_DR_MU_Pos) | \
 8004df6:	68bb      	ldr	r3, [r7, #8]
 8004df8:	785b      	ldrb	r3, [r3, #1]
 8004dfa:	4618      	mov	r0, r3
 8004dfc:	f000 f920 	bl	8005040 <RTC_ByteToBcd2>
 8004e00:	4603      	mov	r3, r0
 8004e02:	021b      	lsls	r3, r3, #8
    datetmpreg = (((uint32_t)RTC_ByteToBcd2(sDate->Year)  << RTC_DR_YU_Pos) | \
 8004e04:	431c      	orrs	r4, r3
                  ((uint32_t)RTC_ByteToBcd2(sDate->Date))                   | \
 8004e06:	68bb      	ldr	r3, [r7, #8]
 8004e08:	789b      	ldrb	r3, [r3, #2]
 8004e0a:	4618      	mov	r0, r3
 8004e0c:	f000 f918 	bl	8005040 <RTC_ByteToBcd2>
 8004e10:	4603      	mov	r3, r0
                  ((uint32_t)RTC_ByteToBcd2(sDate->Month) << RTC_DR_MU_Pos) | \
 8004e12:	ea44 0203 	orr.w	r2, r4, r3
                  ((uint32_t)sDate->WeekDay               << RTC_DR_WDU_Pos));
 8004e16:	68bb      	ldr	r3, [r7, #8]
 8004e18:	781b      	ldrb	r3, [r3, #0]
 8004e1a:	035b      	lsls	r3, r3, #13
    datetmpreg = (((uint32_t)RTC_ByteToBcd2(sDate->Year)  << RTC_DR_YU_Pos) | \
 8004e1c:	4313      	orrs	r3, r2
 8004e1e:	617b      	str	r3, [r7, #20]
 8004e20:	e00e      	b.n	8004e40 <HAL_RTC_SetDate+0xaa>
  {
    assert_param(IS_RTC_YEAR(RTC_Bcd2ToByte(sDate->Year)));
    assert_param(IS_RTC_MONTH(RTC_Bcd2ToByte(sDate->Month)));
    assert_param(IS_RTC_DATE(RTC_Bcd2ToByte(sDate->Date)));

    datetmpreg = ((((uint32_t)sDate->Year)    << RTC_DR_YU_Pos) | \
 8004e22:	68bb      	ldr	r3, [r7, #8]
 8004e24:	78db      	ldrb	r3, [r3, #3]
 8004e26:	041a      	lsls	r2, r3, #16
                  (((uint32_t)sDate->Month)   << RTC_DR_MU_Pos) | \
 8004e28:	68bb      	ldr	r3, [r7, #8]
 8004e2a:	785b      	ldrb	r3, [r3, #1]
 8004e2c:	021b      	lsls	r3, r3, #8
    datetmpreg = ((((uint32_t)sDate->Year)    << RTC_DR_YU_Pos) | \
 8004e2e:	4313      	orrs	r3, r2
                  ((uint32_t) sDate->Date)                      | \
 8004e30:	68ba      	ldr	r2, [r7, #8]
 8004e32:	7892      	ldrb	r2, [r2, #2]
                  (((uint32_t)sDate->Month)   << RTC_DR_MU_Pos) | \
 8004e34:	431a      	orrs	r2, r3
                  (((uint32_t)sDate->WeekDay) << RTC_DR_WDU_Pos));
 8004e36:	68bb      	ldr	r3, [r7, #8]
 8004e38:	781b      	ldrb	r3, [r3, #0]
 8004e3a:	035b      	lsls	r3, r3, #13
    datetmpreg = ((((uint32_t)sDate->Year)    << RTC_DR_YU_Pos) | \
 8004e3c:	4313      	orrs	r3, r2
 8004e3e:	617b      	str	r3, [r7, #20]
  }

  /* Disable the write protection for RTC registers */
  __HAL_RTC_WRITEPROTECTION_DISABLE(hrtc);
 8004e40:	68fb      	ldr	r3, [r7, #12]
 8004e42:	681b      	ldr	r3, [r3, #0]
 8004e44:	22ca      	movs	r2, #202	; 0xca
 8004e46:	625a      	str	r2, [r3, #36]	; 0x24
 8004e48:	68fb      	ldr	r3, [r7, #12]
 8004e4a:	681b      	ldr	r3, [r3, #0]
 8004e4c:	2253      	movs	r2, #83	; 0x53
 8004e4e:	625a      	str	r2, [r3, #36]	; 0x24

  /* Enter Initialization mode */
  status = RTC_EnterInitMode(hrtc);
 8004e50:	68f8      	ldr	r0, [r7, #12]
 8004e52:	f000 f899 	bl	8004f88 <RTC_EnterInitMode>
 8004e56:	4603      	mov	r3, r0
 8004e58:	74fb      	strb	r3, [r7, #19]

  if (status == HAL_OK)
 8004e5a:	7cfb      	ldrb	r3, [r7, #19]
 8004e5c:	2b00      	cmp	r3, #0
 8004e5e:	d10c      	bne.n	8004e7a <HAL_RTC_SetDate+0xe4>
  {
    /* Set the RTC_DR register */
    hrtc->Instance->DR = (uint32_t)(datetmpreg & RTC_DR_RESERVED_MASK);
 8004e60:	68fb      	ldr	r3, [r7, #12]
 8004e62:	681a      	ldr	r2, [r3, #0]
 8004e64:	697b      	ldr	r3, [r7, #20]
 8004e66:	f023 437f 	bic.w	r3, r3, #4278190080	; 0xff000000
 8004e6a:	f023 03c0 	bic.w	r3, r3, #192	; 0xc0
 8004e6e:	6053      	str	r3, [r2, #4]

    /* Exit Initialization mode */
    status = RTC_ExitInitMode(hrtc);
 8004e70:	68f8      	ldr	r0, [r7, #12]
 8004e72:	f000 f8c0 	bl	8004ff6 <RTC_ExitInitMode>
 8004e76:	4603      	mov	r3, r0
 8004e78:	74fb      	strb	r3, [r7, #19]
  }

  if (status == HAL_OK)
 8004e7a:	7cfb      	ldrb	r3, [r7, #19]
 8004e7c:	2b00      	cmp	r3, #0
 8004e7e:	d102      	bne.n	8004e86 <HAL_RTC_SetDate+0xf0>
  {
    hrtc->State = HAL_RTC_STATE_READY;
 8004e80:	68fb      	ldr	r3, [r7, #12]
 8004e82:	2201      	movs	r2, #1
 8004e84:	775a      	strb	r2, [r3, #29]
  }

  /* Enable the write protection for RTC registers */
  __HAL_RTC_WRITEPROTECTION_ENABLE(hrtc);
 8004e86:	68fb      	ldr	r3, [r7, #12]
 8004e88:	681b      	ldr	r3, [r3, #0]
 8004e8a:	22ff      	movs	r2, #255	; 0xff
 8004e8c:	625a      	str	r2, [r3, #36]	; 0x24

  /* Process Unlocked */
  __HAL_UNLOCK(hrtc);
 8004e8e:	68fb      	ldr	r3, [r7, #12]
 8004e90:	2200      	movs	r2, #0
 8004e92:	771a      	strb	r2, [r3, #28]

  return status;
 8004e94:	7cfb      	ldrb	r3, [r7, #19]
}
 8004e96:	4618      	mov	r0, r3
 8004e98:	371c      	adds	r7, #28
 8004e9a:	46bd      	mov	sp, r7
 8004e9c:	bd90      	pop	{r4, r7, pc}

08004e9e <HAL_RTC_GetDate>:
  *        until current date is read to ensure consistency between the time and
  *        date values.
  * @retval HAL status
  */
HAL_StatusTypeDef HAL_RTC_GetDate(RTC_HandleTypeDef *hrtc, RTC_DateTypeDef *sDate, uint32_t Format)
{
 8004e9e:	b580      	push	{r7, lr}
 8004ea0:	b086      	sub	sp, #24
 8004ea2:	af00      	add	r7, sp, #0
 8004ea4:	60f8      	str	r0, [r7, #12]
 8004ea6:	60b9      	str	r1, [r7, #8]
 8004ea8:	607a      	str	r2, [r7, #4]
  uint32_t datetmpreg = 0U;
 8004eaa:	2300      	movs	r3, #0
 8004eac:	617b      	str	r3, [r7, #20]

  /* Check the parameters */
  assert_param(IS_RTC_FORMAT(Format));

  /* Get the DR register */
  datetmpreg = (uint32_t)(hrtc->Instance->DR & RTC_DR_RESERVED_MASK);
 8004eae:	68fb      	ldr	r3, [r7, #12]
 8004eb0:	681b      	ldr	r3, [r3, #0]
 8004eb2:	685b      	ldr	r3, [r3, #4]
 8004eb4:	f023 437f 	bic.w	r3, r3, #4278190080	; 0xff000000
 8004eb8:	f023 03c0 	bic.w	r3, r3, #192	; 0xc0
 8004ebc:	617b      	str	r3, [r7, #20]

  /* Fill the structure fields with the read parameters */
  sDate->Year    = (uint8_t)((datetmpreg & (RTC_DR_YT | RTC_DR_YU)) >> RTC_DR_YU_Pos);
 8004ebe:	697b      	ldr	r3, [r7, #20]
 8004ec0:	0c1b      	lsrs	r3, r3, #16
 8004ec2:	b2da      	uxtb	r2, r3
 8004ec4:	68bb      	ldr	r3, [r7, #8]
 8004ec6:	70da      	strb	r2, [r3, #3]
  sDate->Month   = (uint8_t)((datetmpreg & (RTC_DR_MT | RTC_DR_MU)) >> RTC_DR_MU_Pos);
 8004ec8:	697b      	ldr	r3, [r7, #20]
 8004eca:	0a1b      	lsrs	r3, r3, #8
 8004ecc:	b2db      	uxtb	r3, r3
 8004ece:	f003 031f 	and.w	r3, r3, #31
 8004ed2:	b2da      	uxtb	r2, r3
 8004ed4:	68bb      	ldr	r3, [r7, #8]
 8004ed6:	705a      	strb	r2, [r3, #1]
  sDate->Date    = (uint8_t) (datetmpreg & (RTC_DR_DT | RTC_DR_DU));
 8004ed8:	697b      	ldr	r3, [r7, #20]
 8004eda:	b2db      	uxtb	r3, r3
 8004edc:	f003 033f 	and.w	r3, r3, #63	; 0x3f
 8004ee0:	b2da      	uxtb	r2, r3
 8004ee2:	68bb      	ldr	r3, [r7, #8]
 8004ee4:	709a      	strb	r2, [r3, #2]
  sDate->WeekDay = (uint8_t)((datetmpreg & (RTC_DR_WDU))            >> RTC_DR_WDU_Pos);
 8004ee6:	697b      	ldr	r3, [r7, #20]
 8004ee8:	0b5b      	lsrs	r3, r3, #13
 8004eea:	b2db      	uxtb	r3, r3
 8004eec:	f003 0307 	and.w	r3, r3, #7
 8004ef0:	b2da      	uxtb	r2, r3
 8004ef2:	68bb      	ldr	r3, [r7, #8]
 8004ef4:	701a      	strb	r2, [r3, #0]

  /* Check the input parameters format */
  if (Format == RTC_FORMAT_BIN)
 8004ef6:	687b      	ldr	r3, [r7, #4]
 8004ef8:	2b00      	cmp	r3, #0
 8004efa:	d11a      	bne.n	8004f32 <HAL_RTC_GetDate+0x94>
  {
    /* Convert the date structure parameters to Binary format */
    sDate->Year  = (uint8_t)RTC_Bcd2ToByte(sDate->Year);
 8004efc:	68bb      	ldr	r3, [r7, #8]
 8004efe:	78db      	ldrb	r3, [r3, #3]
 8004f00:	4618      	mov	r0, r3
 8004f02:	f000 f8bb 	bl	800507c <RTC_Bcd2ToByte>
 8004f06:	4603      	mov	r3, r0
 8004f08:	461a      	mov	r2, r3
 8004f0a:	68bb      	ldr	r3, [r7, #8]
 8004f0c:	70da      	strb	r2, [r3, #3]
    sDate->Month = (uint8_t)RTC_Bcd2ToByte(sDate->Month);
 8004f0e:	68bb      	ldr	r3, [r7, #8]
 8004f10:	785b      	ldrb	r3, [r3, #1]
 8004f12:	4618      	mov	r0, r3
 8004f14:	f000 f8b2 	bl	800507c <RTC_Bcd2ToByte>
 8004f18:	4603      	mov	r3, r0
 8004f1a:	461a      	mov	r2, r3
 8004f1c:	68bb      	ldr	r3, [r7, #8]
 8004f1e:	705a      	strb	r2, [r3, #1]
    sDate->Date  = (uint8_t)RTC_Bcd2ToByte(sDate->Date);
 8004f20:	68bb      	ldr	r3, [r7, #8]
 8004f22:	789b      	ldrb	r3, [r3, #2]
 8004f24:	4618      	mov	r0, r3
 8004f26:	f000 f8a9 	bl	800507c <RTC_Bcd2ToByte>
 8004f2a:	4603      	mov	r3, r0
 8004f2c:	461a      	mov	r2, r3
 8004f2e:	68bb      	ldr	r3, [r7, #8]
 8004f30:	709a      	strb	r2, [r3, #2]
  }
  return HAL_OK;
 8004f32:	2300      	movs	r3, #0
}
 8004f34:	4618      	mov	r0, r3
 8004f36:	3718      	adds	r7, #24
 8004f38:	46bd      	mov	sp, r7
 8004f3a:	bd80      	pop	{r7, pc}

08004f3c <HAL_RTC_WaitForSynchro>:
  * @param  hrtc pointer to a RTC_HandleTypeDef structure that contains
  *                the configuration information for RTC.
  * @retval HAL status
  */
HAL_StatusTypeDef HAL_RTC_WaitForSynchro(RTC_HandleTypeDef *hrtc)
{
 8004f3c:	b580      	push	{r7, lr}
 8004f3e:	b084      	sub	sp, #16
 8004f40:	af00      	add	r7, sp, #0
 8004f42:	6078      	str	r0, [r7, #4]
  uint32_t tickstart = 0U;
 8004f44:	2300      	movs	r3, #0
 8004f46:	60fb      	str	r3, [r7, #12]

  /* Clear RSF flag, keep reserved bits at reset values (setting other flags has no effect) */
  hrtc->Instance->ISR = ((uint32_t)(RTC_RSF_MASK & RTC_ISR_RESERVED_MASK));
 8004f48:	687b      	ldr	r3, [r7, #4]
 8004f4a:	681b      	ldr	r3, [r3, #0]
 8004f4c:	4a0d      	ldr	r2, [pc, #52]	; (8004f84 <HAL_RTC_WaitForSynchro+0x48>)
 8004f4e:	60da      	str	r2, [r3, #12]

  /* Get tick */
  tickstart = HAL_GetTick();
 8004f50:	f7fd fb64 	bl	800261c <HAL_GetTick>
 8004f54:	60f8      	str	r0, [r7, #12]

  /* Wait the registers to be synchronised */
  while ((hrtc->Instance->ISR & RTC_ISR_RSF) == 0U)
 8004f56:	e009      	b.n	8004f6c <HAL_RTC_WaitForSynchro+0x30>
  {
    if ((HAL_GetTick() - tickstart) > RTC_TIMEOUT_VALUE)
 8004f58:	f7fd fb60 	bl	800261c <HAL_GetTick>
 8004f5c:	4602      	mov	r2, r0
 8004f5e:	68fb      	ldr	r3, [r7, #12]
 8004f60:	1ad3      	subs	r3, r2, r3
 8004f62:	f5b3 7f7a 	cmp.w	r3, #1000	; 0x3e8
 8004f66:	d901      	bls.n	8004f6c <HAL_RTC_WaitForSynchro+0x30>
    {
      return HAL_TIMEOUT;
 8004f68:	2303      	movs	r3, #3
 8004f6a:	e007      	b.n	8004f7c <HAL_RTC_WaitForSynchro+0x40>
  while ((hrtc->Instance->ISR & RTC_ISR_RSF) == 0U)
 8004f6c:	687b      	ldr	r3, [r7, #4]
 8004f6e:	681b      	ldr	r3, [r3, #0]
 8004f70:	68db      	ldr	r3, [r3, #12]
 8004f72:	f003 0320 	and.w	r3, r3, #32
 8004f76:	2b00      	cmp	r3, #0
 8004f78:	d0ee      	beq.n	8004f58 <HAL_RTC_WaitForSynchro+0x1c>
    }
  }

  return HAL_OK;
 8004f7a:	2300      	movs	r3, #0
}
 8004f7c:	4618      	mov	r0, r3
 8004f7e:	3710      	adds	r7, #16
 8004f80:	46bd      	mov	sp, r7
 8004f82:	bd80      	pop	{r7, pc}
 8004f84:	00017f5f 	.word	0x00017f5f

08004f88 <RTC_EnterInitMode>:
  * @param  hrtc pointer to a RTC_HandleTypeDef structure that contains
  *                the configuration information for RTC.
  * @retval HAL status
  */
HAL_StatusTypeDef RTC_EnterInitMode(RTC_HandleTypeDef *hrtc)
{
 8004f88:	b580      	push	{r7, lr}
 8004f8a:	b084      	sub	sp, #16
 8004f8c:	af00      	add	r7, sp, #0
 8004f8e:	6078      	str	r0, [r7, #4]
  uint32_t tickstart = 0U;
 8004f90:	2300      	movs	r3, #0
 8004f92:	60bb      	str	r3, [r7, #8]
  HAL_StatusTypeDef status = HAL_OK;
 8004f94:	2300      	movs	r3, #0
 8004f96:	73fb      	strb	r3, [r7, #15]

  /* Check that Initialization mode is not already set */
  if (READ_BIT(hrtc->Instance->ISR, RTC_ISR_INITF) == 0U)
 8004f98:	687b      	ldr	r3, [r7, #4]
 8004f9a:	681b      	ldr	r3, [r3, #0]
 8004f9c:	68db      	ldr	r3, [r3, #12]
 8004f9e:	f003 0340 	and.w	r3, r3, #64	; 0x40
 8004fa2:	2b00      	cmp	r3, #0
 8004fa4:	d122      	bne.n	8004fec <RTC_EnterInitMode+0x64>
  {
    /* Set INIT bit to enter Initialization mode */
    SET_BIT(hrtc->Instance->ISR, RTC_ISR_INIT);
 8004fa6:	687b      	ldr	r3, [r7, #4]
 8004fa8:	681b      	ldr	r3, [r3, #0]
 8004faa:	68da      	ldr	r2, [r3, #12]
 8004fac:	687b      	ldr	r3, [r7, #4]
 8004fae:	681b      	ldr	r3, [r3, #0]
 8004fb0:	f042 0280 	orr.w	r2, r2, #128	; 0x80
 8004fb4:	60da      	str	r2, [r3, #12]

    /* Get tick */
    tickstart = HAL_GetTick();
 8004fb6:	f7fd fb31 	bl	800261c <HAL_GetTick>
 8004fba:	60b8      	str	r0, [r7, #8]

    /* Wait till RTC is in INIT state and if timeout is reached exit */
    while ((READ_BIT(hrtc->Instance->ISR, RTC_ISR_INITF) == 0U) && (status != HAL_ERROR))
 8004fbc:	e00c      	b.n	8004fd8 <RTC_EnterInitMode+0x50>
    {
      if ((HAL_GetTick() - tickstart) > RTC_TIMEOUT_VALUE)
 8004fbe:	f7fd fb2d 	bl	800261c <HAL_GetTick>
 8004fc2:	4602      	mov	r2, r0
 8004fc4:	68bb      	ldr	r3, [r7, #8]
 8004fc6:	1ad3      	subs	r3, r2, r3
 8004fc8:	f5b3 7f7a 	cmp.w	r3, #1000	; 0x3e8
 8004fcc:	d904      	bls.n	8004fd8 <RTC_EnterInitMode+0x50>
      {
        /* Set RTC state */
        hrtc->State = HAL_RTC_STATE_ERROR;
 8004fce:	687b      	ldr	r3, [r7, #4]
 8004fd0:	2204      	movs	r2, #4
 8004fd2:	775a      	strb	r2, [r3, #29]
        status = HAL_ERROR;
 8004fd4:	2301      	movs	r3, #1
 8004fd6:	73fb      	strb	r3, [r7, #15]
    while ((READ_BIT(hrtc->Instance->ISR, RTC_ISR_INITF) == 0U) && (status != HAL_ERROR))
 8004fd8:	687b      	ldr	r3, [r7, #4]
 8004fda:	681b      	ldr	r3, [r3, #0]
 8004fdc:	68db      	ldr	r3, [r3, #12]
 8004fde:	f003 0340 	and.w	r3, r3, #64	; 0x40
 8004fe2:	2b00      	cmp	r3, #0
 8004fe4:	d102      	bne.n	8004fec <RTC_EnterInitMode+0x64>
 8004fe6:	7bfb      	ldrb	r3, [r7, #15]
 8004fe8:	2b01      	cmp	r3, #1
 8004fea:	d1e8      	bne.n	8004fbe <RTC_EnterInitMode+0x36>
      }
    }
  }

  return status;
 8004fec:	7bfb      	ldrb	r3, [r7, #15]
}
 8004fee:	4618      	mov	r0, r3
 8004ff0:	3710      	adds	r7, #16
 8004ff2:	46bd      	mov	sp, r7
 8004ff4:	bd80      	pop	{r7, pc}

08004ff6 <RTC_ExitInitMode>:
  * @param  hrtc pointer to a RTC_HandleTypeDef structure that contains
  *                the configuration information for RTC.
  * @retval HAL status
  */
HAL_StatusTypeDef RTC_ExitInitMode(RTC_HandleTypeDef *hrtc)
{
 8004ff6:	b580      	push	{r7, lr}
 8004ff8:	b084      	sub	sp, #16
 8004ffa:	af00      	add	r7, sp, #0
 8004ffc:	6078      	str	r0, [r7, #4]
  HAL_StatusTypeDef status = HAL_OK;
 8004ffe:	2300      	movs	r3, #0
 8005000:	73fb      	strb	r3, [r7, #15]

  /* Clear INIT bit to exit Initialization mode */
  CLEAR_BIT(hrtc->Instance->ISR, RTC_ISR_INIT);
 8005002:	687b      	ldr	r3, [r7, #4]
 8005004:	681b      	ldr	r3, [r3, #0]
 8005006:	68da      	ldr	r2, [r3, #12]
 8005008:	687b      	ldr	r3, [r7, #4]
 800500a:	681b      	ldr	r3, [r3, #0]
 800500c:	f022 0280 	bic.w	r2, r2, #128	; 0x80
 8005010:	60da      	str	r2, [r3, #12]

  /* If CR_BYPSHAD bit = 0, wait for synchro */
  if (READ_BIT(hrtc->Instance->CR, RTC_CR_BYPSHAD) == 0U)
 8005012:	687b      	ldr	r3, [r7, #4]
 8005014:	681b      	ldr	r3, [r3, #0]
 8005016:	689b      	ldr	r3, [r3, #8]
 8005018:	f003 0320 	and.w	r3, r3, #32
 800501c:	2b00      	cmp	r3, #0
 800501e:	d10a      	bne.n	8005036 <RTC_ExitInitMode+0x40>
  {
    if (HAL_RTC_WaitForSynchro(hrtc) != HAL_OK)
 8005020:	6878      	ldr	r0, [r7, #4]
 8005022:	f7ff ff8b 	bl	8004f3c <HAL_RTC_WaitForSynchro>
 8005026:	4603      	mov	r3, r0
 8005028:	2b00      	cmp	r3, #0
 800502a:	d004      	beq.n	8005036 <RTC_ExitInitMode+0x40>
    {
      /* Set RTC state */
      hrtc->State = HAL_RTC_STATE_ERROR;
 800502c:	687b      	ldr	r3, [r7, #4]
 800502e:	2204      	movs	r2, #4
 8005030:	775a      	strb	r2, [r3, #29]
      status = HAL_ERROR;
 8005032:	2301      	movs	r3, #1
 8005034:	73fb      	strb	r3, [r7, #15]
    }
  }

  return status;
 8005036:	7bfb      	ldrb	r3, [r7, #15]
}
 8005038:	4618      	mov	r0, r3
 800503a:	3710      	adds	r7, #16
 800503c:	46bd      	mov	sp, r7
 800503e:	bd80      	pop	{r7, pc}

08005040 <RTC_ByteToBcd2>:
  * @brief  Converts a 2-digit number from decimal to BCD format.
  * @param  number decimal-formatted number (from 0 to 99) to be converted
  * @retval Converted byte
  */
uint8_t RTC_ByteToBcd2(uint8_t number)
{
 8005040:	b480      	push	{r7}
 8005042:	b085      	sub	sp, #20
 8005044:	af00      	add	r7, sp, #0
 8005046:	4603      	mov	r3, r0
 8005048:	71fb      	strb	r3, [r7, #7]
  uint32_t bcdhigh = 0U;
 800504a:	2300      	movs	r3, #0
 800504c:	60fb      	str	r3, [r7, #12]

  while (number >= 10U)
 800504e:	e005      	b.n	800505c <RTC_ByteToBcd2+0x1c>
  {
    bcdhigh++;
 8005050:	68fb      	ldr	r3, [r7, #12]
 8005052:	3301      	adds	r3, #1
 8005054:	60fb      	str	r3, [r7, #12]
    number -= 10U;
 8005056:	79fb      	ldrb	r3, [r7, #7]
 8005058:	3b0a      	subs	r3, #10
 800505a:	71fb      	strb	r3, [r7, #7]
  while (number >= 10U)
 800505c:	79fb      	ldrb	r3, [r7, #7]
 800505e:	2b09      	cmp	r3, #9
 8005060:	d8f6      	bhi.n	8005050 <RTC_ByteToBcd2+0x10>
  }

  return ((uint8_t)(bcdhigh << 4U) | number);
 8005062:	68fb      	ldr	r3, [r7, #12]
 8005064:	b2db      	uxtb	r3, r3
 8005066:	011b      	lsls	r3, r3, #4
 8005068:	b2da      	uxtb	r2, r3
 800506a:	79fb      	ldrb	r3, [r7, #7]
 800506c:	4313      	orrs	r3, r2
 800506e:	b2db      	uxtb	r3, r3
}
 8005070:	4618      	mov	r0, r3
 8005072:	3714      	adds	r7, #20
 8005074:	46bd      	mov	sp, r7
 8005076:	f85d 7b04 	ldr.w	r7, [sp], #4
 800507a:	4770      	bx	lr

0800507c <RTC_Bcd2ToByte>:
  * @brief  Converts a 2-digit number from BCD to decimal format.
  * @param  number BCD-formatted number (from 00 to 99) to be converted
  * @retval Converted word
  */
uint8_t RTC_Bcd2ToByte(uint8_t number)
{
 800507c:	b480      	push	{r7}
 800507e:	b085      	sub	sp, #20
 8005080:	af00      	add	r7, sp, #0
 8005082:	4603      	mov	r3, r0
 8005084:	71fb      	strb	r3, [r7, #7]
  uint32_t tens = 0U;
 8005086:	2300      	movs	r3, #0
 8005088:	60fb      	str	r3, [r7, #12]
  tens = (((uint32_t)number & 0xF0U) >> 4U) * 10U;
 800508a:	79fb      	ldrb	r3, [r7, #7]
 800508c:	091b      	lsrs	r3, r3, #4
 800508e:	b2db      	uxtb	r3, r3
 8005090:	461a      	mov	r2, r3
 8005092:	4613      	mov	r3, r2
 8005094:	009b      	lsls	r3, r3, #2
 8005096:	4413      	add	r3, r2
 8005098:	005b      	lsls	r3, r3, #1
 800509a:	60fb      	str	r3, [r7, #12]
  return (uint8_t)(tens + ((uint32_t)number & 0x0FU));
 800509c:	68fb      	ldr	r3, [r7, #12]
 800509e:	b2da      	uxtb	r2, r3
 80050a0:	79fb      	ldrb	r3, [r7, #7]
 80050a2:	f003 030f 	and.w	r3, r3, #15
 80050a6:	b2db      	uxtb	r3, r3
 80050a8:	4413      	add	r3, r2
 80050aa:	b2db      	uxtb	r3, r3
}
 80050ac:	4618      	mov	r0, r3
 80050ae:	3714      	adds	r7, #20
 80050b0:	46bd      	mov	sp, r7
 80050b2:	f85d 7b04 	ldr.w	r7, [sp], #4
 80050b6:	4770      	bx	lr

080050b8 <HAL_SPI_Init>:
  * @param  hspi pointer to a SPI_HandleTypeDef structure that contains
  *               the configuration information for SPI module.
  * @retval HAL status
  */
HAL_StatusTypeDef HAL_SPI_Init(SPI_HandleTypeDef *hspi)
{
 80050b8:	b580      	push	{r7, lr}
 80050ba:	b082      	sub	sp, #8
 80050bc:	af00      	add	r7, sp, #0
 80050be:	6078      	str	r0, [r7, #4]
  /* Check the SPI handle allocation */
  if (hspi == NULL)
 80050c0:	687b      	ldr	r3, [r7, #4]
 80050c2:	2b00      	cmp	r3, #0
 80050c4:	d101      	bne.n	80050ca <HAL_SPI_Init+0x12>
  {
    return HAL_ERROR;
 80050c6:	2301      	movs	r3, #1
 80050c8:	e07b      	b.n	80051c2 <HAL_SPI_Init+0x10a>
  assert_param(IS_SPI_DATASIZE(hspi->Init.DataSize));
  assert_param(IS_SPI_NSS(hspi->Init.NSS));
  assert_param(IS_SPI_BAUDRATE_PRESCALER(hspi->Init.BaudRatePrescaler));
  assert_param(IS_SPI_FIRST_BIT(hspi->Init.FirstBit));
  assert_param(IS_SPI_TIMODE(hspi->Init.TIMode));
  if (hspi->Init.TIMode == SPI_TIMODE_DISABLE)
 80050ca:	687b      	ldr	r3, [r7, #4]
 80050cc:	6a5b      	ldr	r3, [r3, #36]	; 0x24
 80050ce:	2b00      	cmp	r3, #0
 80050d0:	d108      	bne.n	80050e4 <HAL_SPI_Init+0x2c>
  {
    assert_param(IS_SPI_CPOL(hspi->Init.CLKPolarity));
    assert_param(IS_SPI_CPHA(hspi->Init.CLKPhase));

    if (hspi->Init.Mode == SPI_MODE_MASTER)
 80050d2:	687b      	ldr	r3, [r7, #4]
 80050d4:	685b      	ldr	r3, [r3, #4]
 80050d6:	f5b3 7f82 	cmp.w	r3, #260	; 0x104
 80050da:	d009      	beq.n	80050f0 <HAL_SPI_Init+0x38>
      assert_param(IS_SPI_BAUDRATE_PRESCALER(hspi->Init.BaudRatePrescaler));
    }
    else
    {
      /* Baudrate prescaler not use in Motoraola Slave mode. force to default value */
      hspi->Init.BaudRatePrescaler = SPI_BAUDRATEPRESCALER_2;
 80050dc:	687b      	ldr	r3, [r7, #4]
 80050de:	2200      	movs	r2, #0
 80050e0:	61da      	str	r2, [r3, #28]
 80050e2:	e005      	b.n	80050f0 <HAL_SPI_Init+0x38>
  else
  {
    assert_param(IS_SPI_BAUDRATE_PRESCALER(hspi->Init.BaudRatePrescaler));

    /* Force polarity and phase to TI protocaol requirements */
    hspi->Init.CLKPolarity = SPI_POLARITY_LOW;
 80050e4:	687b      	ldr	r3, [r7, #4]
 80050e6:	2200      	movs	r2, #0
 80050e8:	611a      	str	r2, [r3, #16]
    hspi->Init.CLKPhase    = SPI_PHASE_1EDGE;
 80050ea:	687b      	ldr	r3, [r7, #4]
 80050ec:	2200      	movs	r2, #0
 80050ee:	615a      	str	r2, [r3, #20]
  if (hspi->Init.CRCCalculation == SPI_CRCCALCULATION_ENABLE)
  {
    assert_param(IS_SPI_CRC_POLYNOMIAL(hspi->Init.CRCPolynomial));
  }
#else
  hspi->Init.CRCCalculation = SPI_CRCCALCULATION_DISABLE;
 80050f0:	687b      	ldr	r3, [r7, #4]
 80050f2:	2200      	movs	r2, #0
 80050f4:	629a      	str	r2, [r3, #40]	; 0x28
#endif /* USE_SPI_CRC */

  if (hspi->State == HAL_SPI_STATE_RESET)
 80050f6:	687b      	ldr	r3, [r7, #4]
 80050f8:	f893 3051 	ldrb.w	r3, [r3, #81]	; 0x51
 80050fc:	b2db      	uxtb	r3, r3
 80050fe:	2b00      	cmp	r3, #0
 8005100:	d106      	bne.n	8005110 <HAL_SPI_Init+0x58>
  {
    /* Allocate lock resource and initialize it */
    hspi->Lock = HAL_UNLOCKED;
 8005102:	687b      	ldr	r3, [r7, #4]
 8005104:	2200      	movs	r2, #0
 8005106:	f883 2050 	strb.w	r2, [r3, #80]	; 0x50

    /* Init the low level hardware : GPIO, CLOCK, NVIC... */
    hspi->MspInitCallback(hspi);
#else
    /* Init the low level hardware : GPIO, CLOCK, NVIC... */
    HAL_SPI_MspInit(hspi);
 800510a:	6878      	ldr	r0, [r7, #4]
 800510c:	f7fd f83c 	bl	8002188 <HAL_SPI_MspInit>
#endif /* USE_HAL_SPI_REGISTER_CALLBACKS */
  }

  hspi->State = HAL_SPI_STATE_BUSY;
 8005110:	687b      	ldr	r3, [r7, #4]
 8005112:	2202      	movs	r2, #2
 8005114:	f883 2051 	strb.w	r2, [r3, #81]	; 0x51

  /* Disable the selected SPI peripheral */
  __HAL_SPI_DISABLE(hspi);
 8005118:	687b      	ldr	r3, [r7, #4]
 800511a:	681b      	ldr	r3, [r3, #0]
 800511c:	681a      	ldr	r2, [r3, #0]
 800511e:	687b      	ldr	r3, [r7, #4]
 8005120:	681b      	ldr	r3, [r3, #0]
 8005122:	f022 0240 	bic.w	r2, r2, #64	; 0x40
 8005126:	601a      	str	r2, [r3, #0]

  /*----------------------- SPIx CR1 & CR2 Configuration ---------------------*/
  /* Configure : SPI Mode, Communication Mode, Data size, Clock polarity and phase, NSS management,
  Communication speed, First bit and CRC calculation state */
  WRITE_REG(hspi->Instance->CR1, ((hspi->Init.Mode & (SPI_CR1_MSTR | SPI_CR1_SSI)) |
 8005128:	687b      	ldr	r3, [r7, #4]
 800512a:	685b      	ldr	r3, [r3, #4]
 800512c:	f403 7282 	and.w	r2, r3, #260	; 0x104
 8005130:	687b      	ldr	r3, [r7, #4]
 8005132:	689b      	ldr	r3, [r3, #8]
 8005134:	f403 4304 	and.w	r3, r3, #33792	; 0x8400
 8005138:	431a      	orrs	r2, r3
 800513a:	687b      	ldr	r3, [r7, #4]
 800513c:	68db      	ldr	r3, [r3, #12]
 800513e:	f403 6300 	and.w	r3, r3, #2048	; 0x800
 8005142:	431a      	orrs	r2, r3
 8005144:	687b      	ldr	r3, [r7, #4]
 8005146:	691b      	ldr	r3, [r3, #16]
 8005148:	f003 0302 	and.w	r3, r3, #2
 800514c:	431a      	orrs	r2, r3
 800514e:	687b      	ldr	r3, [r7, #4]
 8005150:	695b      	ldr	r3, [r3, #20]
 8005152:	f003 0301 	and.w	r3, r3, #1
 8005156:	431a      	orrs	r2, r3
 8005158:	687b      	ldr	r3, [r7, #4]
 800515a:	699b      	ldr	r3, [r3, #24]
 800515c:	f403 7300 	and.w	r3, r3, #512	; 0x200
 8005160:	431a      	orrs	r2, r3
 8005162:	687b      	ldr	r3, [r7, #4]
 8005164:	69db      	ldr	r3, [r3, #28]
 8005166:	f003 0338 	and.w	r3, r3, #56	; 0x38
 800516a:	431a      	orrs	r2, r3
 800516c:	687b      	ldr	r3, [r7, #4]
 800516e:	6a1b      	ldr	r3, [r3, #32]
 8005170:	f003 0380 	and.w	r3, r3, #128	; 0x80
 8005174:	ea42 0103 	orr.w	r1, r2, r3
 8005178:	687b      	ldr	r3, [r7, #4]
 800517a:	6a9b      	ldr	r3, [r3, #40]	; 0x28
 800517c:	f403 5200 	and.w	r2, r3, #8192	; 0x2000
 8005180:	687b      	ldr	r3, [r7, #4]
 8005182:	681b      	ldr	r3, [r3, #0]
 8005184:	430a      	orrs	r2, r1
 8005186:	601a      	str	r2, [r3, #0]
                                  (hspi->Init.BaudRatePrescaler & SPI_CR1_BR_Msk) |
                                  (hspi->Init.FirstBit  & SPI_CR1_LSBFIRST) |
                                  (hspi->Init.CRCCalculation & SPI_CR1_CRCEN)));

  /* Configure : NSS management, TI Mode */
  WRITE_REG(hspi->Instance->CR2, (((hspi->Init.NSS >> 16U) & SPI_CR2_SSOE) | (hspi->Init.TIMode & SPI_CR2_FRF)));
 8005188:	687b      	ldr	r3, [r7, #4]
 800518a:	699b      	ldr	r3, [r3, #24]
 800518c:	0c1b      	lsrs	r3, r3, #16
 800518e:	f003 0104 	and.w	r1, r3, #4
 8005192:	687b      	ldr	r3, [r7, #4]
 8005194:	6a5b      	ldr	r3, [r3, #36]	; 0x24
 8005196:	f003 0210 	and.w	r2, r3, #16
 800519a:	687b      	ldr	r3, [r7, #4]
 800519c:	681b      	ldr	r3, [r3, #0]
 800519e:	430a      	orrs	r2, r1
 80051a0:	605a      	str	r2, [r3, #4]
  }
#endif /* USE_SPI_CRC */

#if defined(SPI_I2SCFGR_I2SMOD)
  /* Activate the SPI mode (Make sure that I2SMOD bit in I2SCFGR register is reset) */
  CLEAR_BIT(hspi->Instance->I2SCFGR, SPI_I2SCFGR_I2SMOD);
 80051a2:	687b      	ldr	r3, [r7, #4]
 80051a4:	681b      	ldr	r3, [r3, #0]
 80051a6:	69da      	ldr	r2, [r3, #28]
 80051a8:	687b      	ldr	r3, [r7, #4]
 80051aa:	681b      	ldr	r3, [r3, #0]
 80051ac:	f422 6200 	bic.w	r2, r2, #2048	; 0x800
 80051b0:	61da      	str	r2, [r3, #28]
#endif /* SPI_I2SCFGR_I2SMOD */

  hspi->ErrorCode = HAL_SPI_ERROR_NONE;
 80051b2:	687b      	ldr	r3, [r7, #4]
 80051b4:	2200      	movs	r2, #0
 80051b6:	655a      	str	r2, [r3, #84]	; 0x54
  hspi->State     = HAL_SPI_STATE_READY;
 80051b8:	687b      	ldr	r3, [r7, #4]
 80051ba:	2201      	movs	r2, #1
 80051bc:	f883 2051 	strb.w	r2, [r3, #81]	; 0x51

  return HAL_OK;
 80051c0:	2300      	movs	r3, #0
}
 80051c2:	4618      	mov	r0, r3
 80051c4:	3708      	adds	r7, #8
 80051c6:	46bd      	mov	sp, r7
 80051c8:	bd80      	pop	{r7, pc}

080051ca <HAL_SPI_Transmit>:
  * @param  Size amount of data to be sent
  * @param  Timeout Timeout duration
  * @retval HAL status
  */
HAL_StatusTypeDef HAL_SPI_Transmit(SPI_HandleTypeDef *hspi, uint8_t *pData, uint16_t Size, uint32_t Timeout)
{
 80051ca:	b580      	push	{r7, lr}
 80051cc:	b088      	sub	sp, #32
 80051ce:	af00      	add	r7, sp, #0
 80051d0:	60f8      	str	r0, [r7, #12]
 80051d2:	60b9      	str	r1, [r7, #8]
 80051d4:	603b      	str	r3, [r7, #0]
 80051d6:	4613      	mov	r3, r2
 80051d8:	80fb      	strh	r3, [r7, #6]
  uint32_t tickstart;
  HAL_StatusTypeDef errorcode = HAL_OK;
 80051da:	2300      	movs	r3, #0
 80051dc:	77fb      	strb	r3, [r7, #31]

  /* Check Direction parameter */
  assert_param(IS_SPI_DIRECTION_2LINES_OR_1LINE(hspi->Init.Direction));

  /* Process Locked */
  __HAL_LOCK(hspi);
 80051de:	68fb      	ldr	r3, [r7, #12]
 80051e0:	f893 3050 	ldrb.w	r3, [r3, #80]	; 0x50
 80051e4:	2b01      	cmp	r3, #1
 80051e6:	d101      	bne.n	80051ec <HAL_SPI_Transmit+0x22>
 80051e8:	2302      	movs	r3, #2
 80051ea:	e12d      	b.n	8005448 <HAL_SPI_Transmit+0x27e>
 80051ec:	68fb      	ldr	r3, [r7, #12]
 80051ee:	2201      	movs	r2, #1
 80051f0:	f883 2050 	strb.w	r2, [r3, #80]	; 0x50

  /* Init tickstart for timeout management*/
  tickstart = HAL_GetTick();
 80051f4:	f7fd fa12 	bl	800261c <HAL_GetTick>
 80051f8:	61b8      	str	r0, [r7, #24]
  initial_TxXferCount = Size;
 80051fa:	88fb      	ldrh	r3, [r7, #6]
 80051fc:	82fb      	strh	r3, [r7, #22]

  if (hspi->State != HAL_SPI_STATE_READY)
 80051fe:	68fb      	ldr	r3, [r7, #12]
 8005200:	f893 3051 	ldrb.w	r3, [r3, #81]	; 0x51
 8005204:	b2db      	uxtb	r3, r3
 8005206:	2b01      	cmp	r3, #1
 8005208:	d002      	beq.n	8005210 <HAL_SPI_Transmit+0x46>
  {
    errorcode = HAL_BUSY;
 800520a:	2302      	movs	r3, #2
 800520c:	77fb      	strb	r3, [r7, #31]
    goto error;
 800520e:	e116      	b.n	800543e <HAL_SPI_Transmit+0x274>
  }

  if ((pData == NULL) || (Size == 0U))
 8005210:	68bb      	ldr	r3, [r7, #8]
 8005212:	2b00      	cmp	r3, #0
 8005214:	d002      	beq.n	800521c <HAL_SPI_Transmit+0x52>
 8005216:	88fb      	ldrh	r3, [r7, #6]
 8005218:	2b00      	cmp	r3, #0
 800521a:	d102      	bne.n	8005222 <HAL_SPI_Transmit+0x58>
  {
    errorcode = HAL_ERROR;
 800521c:	2301      	movs	r3, #1
 800521e:	77fb      	strb	r3, [r7, #31]
    goto error;
 8005220:	e10d      	b.n	800543e <HAL_SPI_Transmit+0x274>
  }

  /* Set the transaction information */
  hspi->State       = HAL_SPI_STATE_BUSY_TX;
 8005222:	68fb      	ldr	r3, [r7, #12]
 8005224:	2203      	movs	r2, #3
 8005226:	f883 2051 	strb.w	r2, [r3, #81]	; 0x51
  hspi->ErrorCode   = HAL_SPI_ERROR_NONE;
 800522a:	68fb      	ldr	r3, [r7, #12]
 800522c:	2200      	movs	r2, #0
 800522e:	655a      	str	r2, [r3, #84]	; 0x54
  hspi->pTxBuffPtr  = (uint8_t *)pData;
 8005230:	68fb      	ldr	r3, [r7, #12]
 8005232:	68ba      	ldr	r2, [r7, #8]
 8005234:	631a      	str	r2, [r3, #48]	; 0x30
  hspi->TxXferSize  = Size;
 8005236:	68fb      	ldr	r3, [r7, #12]
 8005238:	88fa      	ldrh	r2, [r7, #6]
 800523a:	869a      	strh	r2, [r3, #52]	; 0x34
  hspi->TxXferCount = Size;
 800523c:	68fb      	ldr	r3, [r7, #12]
 800523e:	88fa      	ldrh	r2, [r7, #6]
 8005240:	86da      	strh	r2, [r3, #54]	; 0x36

  /*Init field not used in handle to zero */
  hspi->pRxBuffPtr  = (uint8_t *)NULL;
 8005242:	68fb      	ldr	r3, [r7, #12]
 8005244:	2200      	movs	r2, #0
 8005246:	639a      	str	r2, [r3, #56]	; 0x38
  hspi->RxXferSize  = 0U;
 8005248:	68fb      	ldr	r3, [r7, #12]
 800524a:	2200      	movs	r2, #0
 800524c:	879a      	strh	r2, [r3, #60]	; 0x3c
  hspi->RxXferCount = 0U;
 800524e:	68fb      	ldr	r3, [r7, #12]
 8005250:	2200      	movs	r2, #0
 8005252:	87da      	strh	r2, [r3, #62]	; 0x3e
  hspi->TxISR       = NULL;
 8005254:	68fb      	ldr	r3, [r7, #12]
 8005256:	2200      	movs	r2, #0
 8005258:	645a      	str	r2, [r3, #68]	; 0x44
  hspi->RxISR       = NULL;
 800525a:	68fb      	ldr	r3, [r7, #12]
 800525c:	2200      	movs	r2, #0
 800525e:	641a      	str	r2, [r3, #64]	; 0x40

  /* Configure communication direction : 1Line */
  if (hspi->Init.Direction == SPI_DIRECTION_1LINE)
 8005260:	68fb      	ldr	r3, [r7, #12]
 8005262:	689b      	ldr	r3, [r3, #8]
 8005264:	f5b3 4f00 	cmp.w	r3, #32768	; 0x8000
 8005268:	d10f      	bne.n	800528a <HAL_SPI_Transmit+0xc0>
  {
    /* Disable SPI Peripheral before set 1Line direction (BIDIOE bit) */
    __HAL_SPI_DISABLE(hspi);
 800526a:	68fb      	ldr	r3, [r7, #12]
 800526c:	681b      	ldr	r3, [r3, #0]
 800526e:	681a      	ldr	r2, [r3, #0]
 8005270:	68fb      	ldr	r3, [r7, #12]
 8005272:	681b      	ldr	r3, [r3, #0]
 8005274:	f022 0240 	bic.w	r2, r2, #64	; 0x40
 8005278:	601a      	str	r2, [r3, #0]
    SPI_1LINE_TX(hspi);
 800527a:	68fb      	ldr	r3, [r7, #12]
 800527c:	681b      	ldr	r3, [r3, #0]
 800527e:	681a      	ldr	r2, [r3, #0]
 8005280:	68fb      	ldr	r3, [r7, #12]
 8005282:	681b      	ldr	r3, [r3, #0]
 8005284:	f442 4280 	orr.w	r2, r2, #16384	; 0x4000
 8005288:	601a      	str	r2, [r3, #0]
    SPI_RESET_CRC(hspi);
  }
#endif /* USE_SPI_CRC */

  /* Check if the SPI is already enabled */
  if ((hspi->Instance->CR1 & SPI_CR1_SPE) != SPI_CR1_SPE)
 800528a:	68fb      	ldr	r3, [r7, #12]
 800528c:	681b      	ldr	r3, [r3, #0]
 800528e:	681b      	ldr	r3, [r3, #0]
 8005290:	f003 0340 	and.w	r3, r3, #64	; 0x40
 8005294:	2b40      	cmp	r3, #64	; 0x40
 8005296:	d007      	beq.n	80052a8 <HAL_SPI_Transmit+0xde>
  {
    /* Enable SPI peripheral */
    __HAL_SPI_ENABLE(hspi);
 8005298:	68fb      	ldr	r3, [r7, #12]
 800529a:	681b      	ldr	r3, [r3, #0]
 800529c:	681a      	ldr	r2, [r3, #0]
 800529e:	68fb      	ldr	r3, [r7, #12]
 80052a0:	681b      	ldr	r3, [r3, #0]
 80052a2:	f042 0240 	orr.w	r2, r2, #64	; 0x40
 80052a6:	601a      	str	r2, [r3, #0]
  }

  /* Transmit data in 16 Bit mode */
  if (hspi->Init.DataSize == SPI_DATASIZE_16BIT)
 80052a8:	68fb      	ldr	r3, [r7, #12]
 80052aa:	68db      	ldr	r3, [r3, #12]
 80052ac:	f5b3 6f00 	cmp.w	r3, #2048	; 0x800
 80052b0:	d14f      	bne.n	8005352 <HAL_SPI_Transmit+0x188>
  {
    if ((hspi->Init.Mode == SPI_MODE_SLAVE) || (initial_TxXferCount == 0x01U))
 80052b2:	68fb      	ldr	r3, [r7, #12]
 80052b4:	685b      	ldr	r3, [r3, #4]
 80052b6:	2b00      	cmp	r3, #0
 80052b8:	d002      	beq.n	80052c0 <HAL_SPI_Transmit+0xf6>
 80052ba:	8afb      	ldrh	r3, [r7, #22]
 80052bc:	2b01      	cmp	r3, #1
 80052be:	d142      	bne.n	8005346 <HAL_SPI_Transmit+0x17c>
    {
      hspi->Instance->DR = *((uint16_t *)hspi->pTxBuffPtr);
 80052c0:	68fb      	ldr	r3, [r7, #12]
 80052c2:	6b1b      	ldr	r3, [r3, #48]	; 0x30
 80052c4:	881a      	ldrh	r2, [r3, #0]
 80052c6:	68fb      	ldr	r3, [r7, #12]
 80052c8:	681b      	ldr	r3, [r3, #0]
 80052ca:	60da      	str	r2, [r3, #12]
      hspi->pTxBuffPtr += sizeof(uint16_t);
 80052cc:	68fb      	ldr	r3, [r7, #12]
 80052ce:	6b1b      	ldr	r3, [r3, #48]	; 0x30
 80052d0:	1c9a      	adds	r2, r3, #2
 80052d2:	68fb      	ldr	r3, [r7, #12]
 80052d4:	631a      	str	r2, [r3, #48]	; 0x30
      hspi->TxXferCount--;
 80052d6:	68fb      	ldr	r3, [r7, #12]
 80052d8:	8edb      	ldrh	r3, [r3, #54]	; 0x36
 80052da:	b29b      	uxth	r3, r3
 80052dc:	3b01      	subs	r3, #1
 80052de:	b29a      	uxth	r2, r3
 80052e0:	68fb      	ldr	r3, [r7, #12]
 80052e2:	86da      	strh	r2, [r3, #54]	; 0x36
    }
    /* Transmit data in 16 Bit mode */
    while (hspi->TxXferCount > 0U)
 80052e4:	e02f      	b.n	8005346 <HAL_SPI_Transmit+0x17c>
    {
      /* Wait until TXE flag is set to send data */
      if (__HAL_SPI_GET_FLAG(hspi, SPI_FLAG_TXE))
 80052e6:	68fb      	ldr	r3, [r7, #12]
 80052e8:	681b      	ldr	r3, [r3, #0]
 80052ea:	689b      	ldr	r3, [r3, #8]
 80052ec:	f003 0302 	and.w	r3, r3, #2
 80052f0:	2b02      	cmp	r3, #2
 80052f2:	d112      	bne.n	800531a <HAL_SPI_Transmit+0x150>
      {
        hspi->Instance->DR = *((uint16_t *)hspi->pTxBuffPtr);
 80052f4:	68fb      	ldr	r3, [r7, #12]
 80052f6:	6b1b      	ldr	r3, [r3, #48]	; 0x30
 80052f8:	881a      	ldrh	r2, [r3, #0]
 80052fa:	68fb      	ldr	r3, [r7, #12]
 80052fc:	681b      	ldr	r3, [r3, #0]
 80052fe:	60da      	str	r2, [r3, #12]
        hspi->pTxBuffPtr += sizeof(uint16_t);
 8005300:	68fb      	ldr	r3, [r7, #12]
 8005302:	6b1b      	ldr	r3, [r3, #48]	; 0x30
 8005304:	1c9a      	adds	r2, r3, #2
 8005306:	68fb      	ldr	r3, [r7, #12]
 8005308:	631a      	str	r2, [r3, #48]	; 0x30
        hspi->TxXferCount--;
 800530a:	68fb      	ldr	r3, [r7, #12]
 800530c:	8edb      	ldrh	r3, [r3, #54]	; 0x36
 800530e:	b29b      	uxth	r3, r3
 8005310:	3b01      	subs	r3, #1
 8005312:	b29a      	uxth	r2, r3
 8005314:	68fb      	ldr	r3, [r7, #12]
 8005316:	86da      	strh	r2, [r3, #54]	; 0x36
 8005318:	e015      	b.n	8005346 <HAL_SPI_Transmit+0x17c>
      }
      else
      {
        /* Timeout management */
        if ((((HAL_GetTick() - tickstart) >=  Timeout) && (Timeout != HAL_MAX_DELAY)) || (Timeout == 0U))
 800531a:	f7fd f97f 	bl	800261c <HAL_GetTick>
 800531e:	4602      	mov	r2, r0
 8005320:	69bb      	ldr	r3, [r7, #24]
 8005322:	1ad3      	subs	r3, r2, r3
 8005324:	683a      	ldr	r2, [r7, #0]
 8005326:	429a      	cmp	r2, r3
 8005328:	d803      	bhi.n	8005332 <HAL_SPI_Transmit+0x168>
 800532a:	683b      	ldr	r3, [r7, #0]
 800532c:	f1b3 3fff 	cmp.w	r3, #4294967295	; 0xffffffff
 8005330:	d102      	bne.n	8005338 <HAL_SPI_Transmit+0x16e>
 8005332:	683b      	ldr	r3, [r7, #0]
 8005334:	2b00      	cmp	r3, #0
 8005336:	d106      	bne.n	8005346 <HAL_SPI_Transmit+0x17c>
        {
          errorcode = HAL_TIMEOUT;
 8005338:	2303      	movs	r3, #3
 800533a:	77fb      	strb	r3, [r7, #31]
          hspi->State = HAL_SPI_STATE_READY;
 800533c:	68fb      	ldr	r3, [r7, #12]
 800533e:	2201      	movs	r2, #1
 8005340:	f883 2051 	strb.w	r2, [r3, #81]	; 0x51
          goto error;
 8005344:	e07b      	b.n	800543e <HAL_SPI_Transmit+0x274>
    while (hspi->TxXferCount > 0U)
 8005346:	68fb      	ldr	r3, [r7, #12]
 8005348:	8edb      	ldrh	r3, [r3, #54]	; 0x36
 800534a:	b29b      	uxth	r3, r3
 800534c:	2b00      	cmp	r3, #0
 800534e:	d1ca      	bne.n	80052e6 <HAL_SPI_Transmit+0x11c>
 8005350:	e050      	b.n	80053f4 <HAL_SPI_Transmit+0x22a>
    }
  }
  /* Transmit data in 8 Bit mode */
  else
  {
    if ((hspi->Init.Mode == SPI_MODE_SLAVE) || (initial_TxXferCount == 0x01U))
 8005352:	68fb      	ldr	r3, [r7, #12]
 8005354:	685b      	ldr	r3, [r3, #4]
 8005356:	2b00      	cmp	r3, #0
 8005358:	d002      	beq.n	8005360 <HAL_SPI_Transmit+0x196>
 800535a:	8afb      	ldrh	r3, [r7, #22]
 800535c:	2b01      	cmp	r3, #1
 800535e:	d144      	bne.n	80053ea <HAL_SPI_Transmit+0x220>
    {
      *((__IO uint8_t *)&hspi->Instance->DR) = (*hspi->pTxBuffPtr);
 8005360:	68fb      	ldr	r3, [r7, #12]
 8005362:	6b1a      	ldr	r2, [r3, #48]	; 0x30
 8005364:	68fb      	ldr	r3, [r7, #12]
 8005366:	681b      	ldr	r3, [r3, #0]
 8005368:	330c      	adds	r3, #12
 800536a:	7812      	ldrb	r2, [r2, #0]
 800536c:	701a      	strb	r2, [r3, #0]
      hspi->pTxBuffPtr += sizeof(uint8_t);
 800536e:	68fb      	ldr	r3, [r7, #12]
 8005370:	6b1b      	ldr	r3, [r3, #48]	; 0x30
 8005372:	1c5a      	adds	r2, r3, #1
 8005374:	68fb      	ldr	r3, [r7, #12]
 8005376:	631a      	str	r2, [r3, #48]	; 0x30
      hspi->TxXferCount--;
 8005378:	68fb      	ldr	r3, [r7, #12]
 800537a:	8edb      	ldrh	r3, [r3, #54]	; 0x36
 800537c:	b29b      	uxth	r3, r3
 800537e:	3b01      	subs	r3, #1
 8005380:	b29a      	uxth	r2, r3
 8005382:	68fb      	ldr	r3, [r7, #12]
 8005384:	86da      	strh	r2, [r3, #54]	; 0x36
    }
    while (hspi->TxXferCount > 0U)
 8005386:	e030      	b.n	80053ea <HAL_SPI_Transmit+0x220>
    {
      /* Wait until TXE flag is set to send data */
      if (__HAL_SPI_GET_FLAG(hspi, SPI_FLAG_TXE))
 8005388:	68fb      	ldr	r3, [r7, #12]
 800538a:	681b      	ldr	r3, [r3, #0]
 800538c:	689b      	ldr	r3, [r3, #8]
 800538e:	f003 0302 	and.w	r3, r3, #2
 8005392:	2b02      	cmp	r3, #2
 8005394:	d113      	bne.n	80053be <HAL_SPI_Transmit+0x1f4>
      {
        *((__IO uint8_t *)&hspi->Instance->DR) = (*hspi->pTxBuffPtr);
 8005396:	68fb      	ldr	r3, [r7, #12]
 8005398:	6b1a      	ldr	r2, [r3, #48]	; 0x30
 800539a:	68fb      	ldr	r3, [r7, #12]
 800539c:	681b      	ldr	r3, [r3, #0]
 800539e:	330c      	adds	r3, #12
 80053a0:	7812      	ldrb	r2, [r2, #0]
 80053a2:	701a      	strb	r2, [r3, #0]
        hspi->pTxBuffPtr += sizeof(uint8_t);
 80053a4:	68fb      	ldr	r3, [r7, #12]
 80053a6:	6b1b      	ldr	r3, [r3, #48]	; 0x30
 80053a8:	1c5a      	adds	r2, r3, #1
 80053aa:	68fb      	ldr	r3, [r7, #12]
 80053ac:	631a      	str	r2, [r3, #48]	; 0x30
        hspi->TxXferCount--;
 80053ae:	68fb      	ldr	r3, [r7, #12]
 80053b0:	8edb      	ldrh	r3, [r3, #54]	; 0x36
 80053b2:	b29b      	uxth	r3, r3
 80053b4:	3b01      	subs	r3, #1
 80053b6:	b29a      	uxth	r2, r3
 80053b8:	68fb      	ldr	r3, [r7, #12]
 80053ba:	86da      	strh	r2, [r3, #54]	; 0x36
 80053bc:	e015      	b.n	80053ea <HAL_SPI_Transmit+0x220>
      }
      else
      {
        /* Timeout management */
        if ((((HAL_GetTick() - tickstart) >=  Timeout) && (Timeout != HAL_MAX_DELAY)) || (Timeout == 0U))
 80053be:	f7fd f92d 	bl	800261c <HAL_GetTick>
 80053c2:	4602      	mov	r2, r0
 80053c4:	69bb      	ldr	r3, [r7, #24]
 80053c6:	1ad3      	subs	r3, r2, r3
 80053c8:	683a      	ldr	r2, [r7, #0]
 80053ca:	429a      	cmp	r2, r3
 80053cc:	d803      	bhi.n	80053d6 <HAL_SPI_Transmit+0x20c>
 80053ce:	683b      	ldr	r3, [r7, #0]
 80053d0:	f1b3 3fff 	cmp.w	r3, #4294967295	; 0xffffffff
 80053d4:	d102      	bne.n	80053dc <HAL_SPI_Transmit+0x212>
 80053d6:	683b      	ldr	r3, [r7, #0]
 80053d8:	2b00      	cmp	r3, #0
 80053da:	d106      	bne.n	80053ea <HAL_SPI_Transmit+0x220>
        {
          errorcode = HAL_TIMEOUT;
 80053dc:	2303      	movs	r3, #3
 80053de:	77fb      	strb	r3, [r7, #31]
          hspi->State = HAL_SPI_STATE_READY;
 80053e0:	68fb      	ldr	r3, [r7, #12]
 80053e2:	2201      	movs	r2, #1
 80053e4:	f883 2051 	strb.w	r2, [r3, #81]	; 0x51
          goto error;
 80053e8:	e029      	b.n	800543e <HAL_SPI_Transmit+0x274>
    while (hspi->TxXferCount > 0U)
 80053ea:	68fb      	ldr	r3, [r7, #12]
 80053ec:	8edb      	ldrh	r3, [r3, #54]	; 0x36
 80053ee:	b29b      	uxth	r3, r3
 80053f0:	2b00      	cmp	r3, #0
 80053f2:	d1c9      	bne.n	8005388 <HAL_SPI_Transmit+0x1be>
    SET_BIT(hspi->Instance->CR1, SPI_CR1_CRCNEXT);
  }
#endif /* USE_SPI_CRC */

  /* Check the end of the transaction */
  if (SPI_EndRxTxTransaction(hspi, Timeout, tickstart) != HAL_OK)
 80053f4:	69ba      	ldr	r2, [r7, #24]
 80053f6:	6839      	ldr	r1, [r7, #0]
 80053f8:	68f8      	ldr	r0, [r7, #12]
 80053fa:	f000 fbdf 	bl	8005bbc <SPI_EndRxTxTransaction>
 80053fe:	4603      	mov	r3, r0
 8005400:	2b00      	cmp	r3, #0
 8005402:	d002      	beq.n	800540a <HAL_SPI_Transmit+0x240>
  {
    hspi->ErrorCode = HAL_SPI_ERROR_FLAG;
 8005404:	68fb      	ldr	r3, [r7, #12]
 8005406:	2220      	movs	r2, #32
 8005408:	655a      	str	r2, [r3, #84]	; 0x54
  }

  /* Clear overrun flag in 2 Lines communication mode because received is not read */
  if (hspi->Init.Direction == SPI_DIRECTION_2LINES)
 800540a:	68fb      	ldr	r3, [r7, #12]
 800540c:	689b      	ldr	r3, [r3, #8]
 800540e:	2b00      	cmp	r3, #0
 8005410:	d10a      	bne.n	8005428 <HAL_SPI_Transmit+0x25e>
  {
    __HAL_SPI_CLEAR_OVRFLAG(hspi);
 8005412:	2300      	movs	r3, #0
 8005414:	613b      	str	r3, [r7, #16]
 8005416:	68fb      	ldr	r3, [r7, #12]
 8005418:	681b      	ldr	r3, [r3, #0]
 800541a:	68db      	ldr	r3, [r3, #12]
 800541c:	613b      	str	r3, [r7, #16]
 800541e:	68fb      	ldr	r3, [r7, #12]
 8005420:	681b      	ldr	r3, [r3, #0]
 8005422:	689b      	ldr	r3, [r3, #8]
 8005424:	613b      	str	r3, [r7, #16]
 8005426:	693b      	ldr	r3, [r7, #16]
  }

  if (hspi->ErrorCode != HAL_SPI_ERROR_NONE)
 8005428:	68fb      	ldr	r3, [r7, #12]
 800542a:	6d5b      	ldr	r3, [r3, #84]	; 0x54
 800542c:	2b00      	cmp	r3, #0
 800542e:	d002      	beq.n	8005436 <HAL_SPI_Transmit+0x26c>
  {
    errorcode = HAL_ERROR;
 8005430:	2301      	movs	r3, #1
 8005432:	77fb      	strb	r3, [r7, #31]
 8005434:	e003      	b.n	800543e <HAL_SPI_Transmit+0x274>
  }
  else
  {
    hspi->State = HAL_SPI_STATE_READY;
 8005436:	68fb      	ldr	r3, [r7, #12]
 8005438:	2201      	movs	r2, #1
 800543a:	f883 2051 	strb.w	r2, [r3, #81]	; 0x51
  }

error:
  /* Process Unlocked */
  __HAL_UNLOCK(hspi);
 800543e:	68fb      	ldr	r3, [r7, #12]
 8005440:	2200      	movs	r2, #0
 8005442:	f883 2050 	strb.w	r2, [r3, #80]	; 0x50
  return errorcode;
 8005446:	7ffb      	ldrb	r3, [r7, #31]
}
 8005448:	4618      	mov	r0, r3
 800544a:	3720      	adds	r7, #32
 800544c:	46bd      	mov	sp, r7
 800544e:	bd80      	pop	{r7, pc}

08005450 <HAL_SPI_Receive>:
  * @param  Size amount of data to be received
  * @param  Timeout Timeout duration
  * @retval HAL status
  */
HAL_StatusTypeDef HAL_SPI_Receive(SPI_HandleTypeDef *hspi, uint8_t *pData, uint16_t Size, uint32_t Timeout)
{
 8005450:	b580      	push	{r7, lr}
 8005452:	b088      	sub	sp, #32
 8005454:	af02      	add	r7, sp, #8
 8005456:	60f8      	str	r0, [r7, #12]
 8005458:	60b9      	str	r1, [r7, #8]
 800545a:	603b      	str	r3, [r7, #0]
 800545c:	4613      	mov	r3, r2
 800545e:	80fb      	strh	r3, [r7, #6]
#if (USE_SPI_CRC != 0U)
  __IO uint32_t tmpreg = 0U;
#endif /* USE_SPI_CRC */
  uint32_t tickstart;
  HAL_StatusTypeDef errorcode = HAL_OK;
 8005460:	2300      	movs	r3, #0
 8005462:	75fb      	strb	r3, [r7, #23]

  if (hspi->State != HAL_SPI_STATE_READY)
 8005464:	68fb      	ldr	r3, [r7, #12]
 8005466:	f893 3051 	ldrb.w	r3, [r3, #81]	; 0x51
 800546a:	b2db      	uxtb	r3, r3
 800546c:	2b01      	cmp	r3, #1
 800546e:	d002      	beq.n	8005476 <HAL_SPI_Receive+0x26>
  {
    errorcode = HAL_BUSY;
 8005470:	2302      	movs	r3, #2
 8005472:	75fb      	strb	r3, [r7, #23]
    goto error;
 8005474:	e0fb      	b.n	800566e <HAL_SPI_Receive+0x21e>
  }

  if ((hspi->Init.Mode == SPI_MODE_MASTER) && (hspi->Init.Direction == SPI_DIRECTION_2LINES))
 8005476:	68fb      	ldr	r3, [r7, #12]
 8005478:	685b      	ldr	r3, [r3, #4]
 800547a:	f5b3 7f82 	cmp.w	r3, #260	; 0x104
 800547e:	d112      	bne.n	80054a6 <HAL_SPI_Receive+0x56>
 8005480:	68fb      	ldr	r3, [r7, #12]
 8005482:	689b      	ldr	r3, [r3, #8]
 8005484:	2b00      	cmp	r3, #0
 8005486:	d10e      	bne.n	80054a6 <HAL_SPI_Receive+0x56>
  {
    hspi->State = HAL_SPI_STATE_BUSY_RX;
 8005488:	68fb      	ldr	r3, [r7, #12]
 800548a:	2204      	movs	r2, #4
 800548c:	f883 2051 	strb.w	r2, [r3, #81]	; 0x51
    /* Call transmit-receive function to send Dummy data on Tx line and generate clock on CLK line */
    return HAL_SPI_TransmitReceive(hspi, pData, pData, Size, Timeout);
 8005490:	88fa      	ldrh	r2, [r7, #6]
 8005492:	683b      	ldr	r3, [r7, #0]
 8005494:	9300      	str	r3, [sp, #0]
 8005496:	4613      	mov	r3, r2
 8005498:	68ba      	ldr	r2, [r7, #8]
 800549a:	68b9      	ldr	r1, [r7, #8]
 800549c:	68f8      	ldr	r0, [r7, #12]
 800549e:	f000 f8ef 	bl	8005680 <HAL_SPI_TransmitReceive>
 80054a2:	4603      	mov	r3, r0
 80054a4:	e0e8      	b.n	8005678 <HAL_SPI_Receive+0x228>
  }

  /* Process Locked */
  __HAL_LOCK(hspi);
 80054a6:	68fb      	ldr	r3, [r7, #12]
 80054a8:	f893 3050 	ldrb.w	r3, [r3, #80]	; 0x50
 80054ac:	2b01      	cmp	r3, #1
 80054ae:	d101      	bne.n	80054b4 <HAL_SPI_Receive+0x64>
 80054b0:	2302      	movs	r3, #2
 80054b2:	e0e1      	b.n	8005678 <HAL_SPI_Receive+0x228>
 80054b4:	68fb      	ldr	r3, [r7, #12]
 80054b6:	2201      	movs	r2, #1
 80054b8:	f883 2050 	strb.w	r2, [r3, #80]	; 0x50

  /* Init tickstart for timeout management*/
  tickstart = HAL_GetTick();
 80054bc:	f7fd f8ae 	bl	800261c <HAL_GetTick>
 80054c0:	6138      	str	r0, [r7, #16]

  if ((pData == NULL) || (Size == 0U))
 80054c2:	68bb      	ldr	r3, [r7, #8]
 80054c4:	2b00      	cmp	r3, #0
 80054c6:	d002      	beq.n	80054ce <HAL_SPI_Receive+0x7e>
 80054c8:	88fb      	ldrh	r3, [r7, #6]
 80054ca:	2b00      	cmp	r3, #0
 80054cc:	d102      	bne.n	80054d4 <HAL_SPI_Receive+0x84>
  {
    errorcode = HAL_ERROR;
 80054ce:	2301      	movs	r3, #1
 80054d0:	75fb      	strb	r3, [r7, #23]
    goto error;
 80054d2:	e0cc      	b.n	800566e <HAL_SPI_Receive+0x21e>
  }

  /* Set the transaction information */
  hspi->State       = HAL_SPI_STATE_BUSY_RX;
 80054d4:	68fb      	ldr	r3, [r7, #12]
 80054d6:	2204      	movs	r2, #4
 80054d8:	f883 2051 	strb.w	r2, [r3, #81]	; 0x51
  hspi->ErrorCode   = HAL_SPI_ERROR_NONE;
 80054dc:	68fb      	ldr	r3, [r7, #12]
 80054de:	2200      	movs	r2, #0
 80054e0:	655a      	str	r2, [r3, #84]	; 0x54
  hspi->pRxBuffPtr  = (uint8_t *)pData;
 80054e2:	68fb      	ldr	r3, [r7, #12]
 80054e4:	68ba      	ldr	r2, [r7, #8]
 80054e6:	639a      	str	r2, [r3, #56]	; 0x38
  hspi->RxXferSize  = Size;
 80054e8:	68fb      	ldr	r3, [r7, #12]
 80054ea:	88fa      	ldrh	r2, [r7, #6]
 80054ec:	879a      	strh	r2, [r3, #60]	; 0x3c
  hspi->RxXferCount = Size;
 80054ee:	68fb      	ldr	r3, [r7, #12]
 80054f0:	88fa      	ldrh	r2, [r7, #6]
 80054f2:	87da      	strh	r2, [r3, #62]	; 0x3e

  /*Init field not used in handle to zero */
  hspi->pTxBuffPtr  = (uint8_t *)NULL;
 80054f4:	68fb      	ldr	r3, [r7, #12]
 80054f6:	2200      	movs	r2, #0
 80054f8:	631a      	str	r2, [r3, #48]	; 0x30
  hspi->TxXferSize  = 0U;
 80054fa:	68fb      	ldr	r3, [r7, #12]
 80054fc:	2200      	movs	r2, #0
 80054fe:	869a      	strh	r2, [r3, #52]	; 0x34
  hspi->TxXferCount = 0U;
 8005500:	68fb      	ldr	r3, [r7, #12]
 8005502:	2200      	movs	r2, #0
 8005504:	86da      	strh	r2, [r3, #54]	; 0x36
  hspi->RxISR       = NULL;
 8005506:	68fb      	ldr	r3, [r7, #12]
 8005508:	2200      	movs	r2, #0
 800550a:	641a      	str	r2, [r3, #64]	; 0x40
  hspi->TxISR       = NULL;
 800550c:	68fb      	ldr	r3, [r7, #12]
 800550e:	2200      	movs	r2, #0
 8005510:	645a      	str	r2, [r3, #68]	; 0x44
    hspi->RxXferCount--;
  }
#endif /* USE_SPI_CRC */

  /* Configure communication direction: 1Line */
  if (hspi->Init.Direction == SPI_DIRECTION_1LINE)
 8005512:	68fb      	ldr	r3, [r7, #12]
 8005514:	689b      	ldr	r3, [r3, #8]
 8005516:	f5b3 4f00 	cmp.w	r3, #32768	; 0x8000
 800551a:	d10f      	bne.n	800553c <HAL_SPI_Receive+0xec>
  {
    /* Disable SPI Peripheral before set 1Line direction (BIDIOE bit) */
    __HAL_SPI_DISABLE(hspi);
 800551c:	68fb      	ldr	r3, [r7, #12]
 800551e:	681b      	ldr	r3, [r3, #0]
 8005520:	681a      	ldr	r2, [r3, #0]
 8005522:	68fb      	ldr	r3, [r7, #12]
 8005524:	681b      	ldr	r3, [r3, #0]
 8005526:	f022 0240 	bic.w	r2, r2, #64	; 0x40
 800552a:	601a      	str	r2, [r3, #0]
    SPI_1LINE_RX(hspi);
 800552c:	68fb      	ldr	r3, [r7, #12]
 800552e:	681b      	ldr	r3, [r3, #0]
 8005530:	681a      	ldr	r2, [r3, #0]
 8005532:	68fb      	ldr	r3, [r7, #12]
 8005534:	681b      	ldr	r3, [r3, #0]
 8005536:	f422 4280 	bic.w	r2, r2, #16384	; 0x4000
 800553a:	601a      	str	r2, [r3, #0]
  }

  /* Check if the SPI is already enabled */
  if ((hspi->Instance->CR1 & SPI_CR1_SPE) != SPI_CR1_SPE)
 800553c:	68fb      	ldr	r3, [r7, #12]
 800553e:	681b      	ldr	r3, [r3, #0]
 8005540:	681b      	ldr	r3, [r3, #0]
 8005542:	f003 0340 	and.w	r3, r3, #64	; 0x40
 8005546:	2b40      	cmp	r3, #64	; 0x40
 8005548:	d007      	beq.n	800555a <HAL_SPI_Receive+0x10a>
  {
    /* Enable SPI peripheral */
    __HAL_SPI_ENABLE(hspi);
 800554a:	68fb      	ldr	r3, [r7, #12]
 800554c:	681b      	ldr	r3, [r3, #0]
 800554e:	681a      	ldr	r2, [r3, #0]
 8005550:	68fb      	ldr	r3, [r7, #12]
 8005552:	681b      	ldr	r3, [r3, #0]
 8005554:	f042 0240 	orr.w	r2, r2, #64	; 0x40
 8005558:	601a      	str	r2, [r3, #0]
  }

  /* Receive data in 8 Bit mode */
  if (hspi->Init.DataSize == SPI_DATASIZE_8BIT)
 800555a:	68fb      	ldr	r3, [r7, #12]
 800555c:	68db      	ldr	r3, [r3, #12]
 800555e:	2b00      	cmp	r3, #0
 8005560:	d16a      	bne.n	8005638 <HAL_SPI_Receive+0x1e8>
  {
    /* Transfer loop */
    while (hspi->RxXferCount > 0U)
 8005562:	e032      	b.n	80055ca <HAL_SPI_Receive+0x17a>
    {
      /* Check the RXNE flag */
      if (__HAL_SPI_GET_FLAG(hspi, SPI_FLAG_RXNE))
 8005564:	68fb      	ldr	r3, [r7, #12]
 8005566:	681b      	ldr	r3, [r3, #0]
 8005568:	689b      	ldr	r3, [r3, #8]
 800556a:	f003 0301 	and.w	r3, r3, #1
 800556e:	2b01      	cmp	r3, #1
 8005570:	d115      	bne.n	800559e <HAL_SPI_Receive+0x14e>
      {
        /* read the received data */
        (* (uint8_t *)hspi->pRxBuffPtr) = *(__IO uint8_t *)&hspi->Instance->DR;
 8005572:	68fb      	ldr	r3, [r7, #12]
 8005574:	681b      	ldr	r3, [r3, #0]
 8005576:	f103 020c 	add.w	r2, r3, #12
 800557a:	68fb      	ldr	r3, [r7, #12]
 800557c:	6b9b      	ldr	r3, [r3, #56]	; 0x38
 800557e:	7812      	ldrb	r2, [r2, #0]
 8005580:	b2d2      	uxtb	r2, r2
 8005582:	701a      	strb	r2, [r3, #0]
        hspi->pRxBuffPtr += sizeof(uint8_t);
 8005584:	68fb      	ldr	r3, [r7, #12]
 8005586:	6b9b      	ldr	r3, [r3, #56]	; 0x38
 8005588:	1c5a      	adds	r2, r3, #1
 800558a:	68fb      	ldr	r3, [r7, #12]
 800558c:	639a      	str	r2, [r3, #56]	; 0x38
        hspi->RxXferCount--;
 800558e:	68fb      	ldr	r3, [r7, #12]
 8005590:	8fdb      	ldrh	r3, [r3, #62]	; 0x3e
 8005592:	b29b      	uxth	r3, r3
 8005594:	3b01      	subs	r3, #1
 8005596:	b29a      	uxth	r2, r3
 8005598:	68fb      	ldr	r3, [r7, #12]
 800559a:	87da      	strh	r2, [r3, #62]	; 0x3e
 800559c:	e015      	b.n	80055ca <HAL_SPI_Receive+0x17a>
      }
      else
      {
        /* Timeout management */
        if ((((HAL_GetTick() - tickstart) >=  Timeout) && (Timeout != HAL_MAX_DELAY)) || (Timeout == 0U))
 800559e:	f7fd f83d 	bl	800261c <HAL_GetTick>
 80055a2:	4602      	mov	r2, r0
 80055a4:	693b      	ldr	r3, [r7, #16]
 80055a6:	1ad3      	subs	r3, r2, r3
 80055a8:	683a      	ldr	r2, [r7, #0]
 80055aa:	429a      	cmp	r2, r3
 80055ac:	d803      	bhi.n	80055b6 <HAL_SPI_Receive+0x166>
 80055ae:	683b      	ldr	r3, [r7, #0]
 80055b0:	f1b3 3fff 	cmp.w	r3, #4294967295	; 0xffffffff
 80055b4:	d102      	bne.n	80055bc <HAL_SPI_Receive+0x16c>
 80055b6:	683b      	ldr	r3, [r7, #0]
 80055b8:	2b00      	cmp	r3, #0
 80055ba:	d106      	bne.n	80055ca <HAL_SPI_Receive+0x17a>
        {
          errorcode = HAL_TIMEOUT;
 80055bc:	2303      	movs	r3, #3
 80055be:	75fb      	strb	r3, [r7, #23]
          hspi->State = HAL_SPI_STATE_READY;
 80055c0:	68fb      	ldr	r3, [r7, #12]
 80055c2:	2201      	movs	r2, #1
 80055c4:	f883 2051 	strb.w	r2, [r3, #81]	; 0x51
          goto error;
 80055c8:	e051      	b.n	800566e <HAL_SPI_Receive+0x21e>
    while (hspi->RxXferCount > 0U)
 80055ca:	68fb      	ldr	r3, [r7, #12]
 80055cc:	8fdb      	ldrh	r3, [r3, #62]	; 0x3e
 80055ce:	b29b      	uxth	r3, r3
 80055d0:	2b00      	cmp	r3, #0
 80055d2:	d1c7      	bne.n	8005564 <HAL_SPI_Receive+0x114>
 80055d4:	e035      	b.n	8005642 <HAL_SPI_Receive+0x1f2>
  {
    /* Transfer loop */
    while (hspi->RxXferCount > 0U)
    {
      /* Check the RXNE flag */
      if (__HAL_SPI_GET_FLAG(hspi, SPI_FLAG_RXNE))
 80055d6:	68fb      	ldr	r3, [r7, #12]
 80055d8:	681b      	ldr	r3, [r3, #0]
 80055da:	689b      	ldr	r3, [r3, #8]
 80055dc:	f003 0301 	and.w	r3, r3, #1
 80055e0:	2b01      	cmp	r3, #1
 80055e2:	d113      	bne.n	800560c <HAL_SPI_Receive+0x1bc>
      {
        *((uint16_t *)hspi->pRxBuffPtr) = (uint16_t)hspi->Instance->DR;
 80055e4:	68fb      	ldr	r3, [r7, #12]
 80055e6:	681b      	ldr	r3, [r3, #0]
 80055e8:	68da      	ldr	r2, [r3, #12]
 80055ea:	68fb      	ldr	r3, [r7, #12]
 80055ec:	6b9b      	ldr	r3, [r3, #56]	; 0x38
 80055ee:	b292      	uxth	r2, r2
 80055f0:	801a      	strh	r2, [r3, #0]
        hspi->pRxBuffPtr += sizeof(uint16_t);
 80055f2:	68fb      	ldr	r3, [r7, #12]
 80055f4:	6b9b      	ldr	r3, [r3, #56]	; 0x38
 80055f6:	1c9a      	adds	r2, r3, #2
 80055f8:	68fb      	ldr	r3, [r7, #12]
 80055fa:	639a      	str	r2, [r3, #56]	; 0x38
        hspi->RxXferCount--;
 80055fc:	68fb      	ldr	r3, [r7, #12]
 80055fe:	8fdb      	ldrh	r3, [r3, #62]	; 0x3e
 8005600:	b29b      	uxth	r3, r3
 8005602:	3b01      	subs	r3, #1
 8005604:	b29a      	uxth	r2, r3
 8005606:	68fb      	ldr	r3, [r7, #12]
 8005608:	87da      	strh	r2, [r3, #62]	; 0x3e
 800560a:	e015      	b.n	8005638 <HAL_SPI_Receive+0x1e8>
      }
      else
      {
        /* Timeout management */
        if ((((HAL_GetTick() - tickstart) >=  Timeout) && (Timeout != HAL_MAX_DELAY)) || (Timeout == 0U))
 800560c:	f7fd f806 	bl	800261c <HAL_GetTick>
 8005610:	4602      	mov	r2, r0
 8005612:	693b      	ldr	r3, [r7, #16]
 8005614:	1ad3      	subs	r3, r2, r3
 8005616:	683a      	ldr	r2, [r7, #0]
 8005618:	429a      	cmp	r2, r3
 800561a:	d803      	bhi.n	8005624 <HAL_SPI_Receive+0x1d4>
 800561c:	683b      	ldr	r3, [r7, #0]
 800561e:	f1b3 3fff 	cmp.w	r3, #4294967295	; 0xffffffff
 8005622:	d102      	bne.n	800562a <HAL_SPI_Receive+0x1da>
 8005624:	683b      	ldr	r3, [r7, #0]
 8005626:	2b00      	cmp	r3, #0
 8005628:	d106      	bne.n	8005638 <HAL_SPI_Receive+0x1e8>
        {
          errorcode = HAL_TIMEOUT;
 800562a:	2303      	movs	r3, #3
 800562c:	75fb      	strb	r3, [r7, #23]
          hspi->State = HAL_SPI_STATE_READY;
 800562e:	68fb      	ldr	r3, [r7, #12]
 8005630:	2201      	movs	r2, #1
 8005632:	f883 2051 	strb.w	r2, [r3, #81]	; 0x51
          goto error;
 8005636:	e01a      	b.n	800566e <HAL_SPI_Receive+0x21e>
    while (hspi->RxXferCount > 0U)
 8005638:	68fb      	ldr	r3, [r7, #12]
 800563a:	8fdb      	ldrh	r3, [r3, #62]	; 0x3e
 800563c:	b29b      	uxth	r3, r3
 800563e:	2b00      	cmp	r3, #0
 8005640:	d1c9      	bne.n	80055d6 <HAL_SPI_Receive+0x186>
    UNUSED(tmpreg);
  }
#endif /* USE_SPI_CRC */

  /* Check the end of the transaction */
  if (SPI_EndRxTransaction(hspi, Timeout, tickstart) != HAL_OK)
 8005642:	693a      	ldr	r2, [r7, #16]
 8005644:	6839      	ldr	r1, [r7, #0]
 8005646:	68f8      	ldr	r0, [r7, #12]
 8005648:	f000 fa52 	bl	8005af0 <SPI_EndRxTransaction>
 800564c:	4603      	mov	r3, r0
 800564e:	2b00      	cmp	r3, #0
 8005650:	d002      	beq.n	8005658 <HAL_SPI_Receive+0x208>
  {
    hspi->ErrorCode = HAL_SPI_ERROR_FLAG;
 8005652:	68fb      	ldr	r3, [r7, #12]
 8005654:	2220      	movs	r2, #32
 8005656:	655a      	str	r2, [r3, #84]	; 0x54
    SET_BIT(hspi->ErrorCode, HAL_SPI_ERROR_CRC);
    __HAL_SPI_CLEAR_CRCERRFLAG(hspi);
  }
#endif /* USE_SPI_CRC */

  if (hspi->ErrorCode != HAL_SPI_ERROR_NONE)
 8005658:	68fb      	ldr	r3, [r7, #12]
 800565a:	6d5b      	ldr	r3, [r3, #84]	; 0x54
 800565c:	2b00      	cmp	r3, #0
 800565e:	d002      	beq.n	8005666 <HAL_SPI_Receive+0x216>
  {
    errorcode = HAL_ERROR;
 8005660:	2301      	movs	r3, #1
 8005662:	75fb      	strb	r3, [r7, #23]
 8005664:	e003      	b.n	800566e <HAL_SPI_Receive+0x21e>
  }
  else
  {
    hspi->State = HAL_SPI_STATE_READY;
 8005666:	68fb      	ldr	r3, [r7, #12]
 8005668:	2201      	movs	r2, #1
 800566a:	f883 2051 	strb.w	r2, [r3, #81]	; 0x51
  }

error :
  __HAL_UNLOCK(hspi);
 800566e:	68fb      	ldr	r3, [r7, #12]
 8005670:	2200      	movs	r2, #0
 8005672:	f883 2050 	strb.w	r2, [r3, #80]	; 0x50
  return errorcode;
 8005676:	7dfb      	ldrb	r3, [r7, #23]
}
 8005678:	4618      	mov	r0, r3
 800567a:	3718      	adds	r7, #24
 800567c:	46bd      	mov	sp, r7
 800567e:	bd80      	pop	{r7, pc}

08005680 <HAL_SPI_TransmitReceive>:
  * @param  Timeout Timeout duration
  * @retval HAL status
  */
HAL_StatusTypeDef HAL_SPI_TransmitReceive(SPI_HandleTypeDef *hspi, uint8_t *pTxData, uint8_t *pRxData, uint16_t Size,
                                          uint32_t Timeout)
{
 8005680:	b580      	push	{r7, lr}
 8005682:	b08c      	sub	sp, #48	; 0x30
 8005684:	af00      	add	r7, sp, #0
 8005686:	60f8      	str	r0, [r7, #12]
 8005688:	60b9      	str	r1, [r7, #8]
 800568a:	607a      	str	r2, [r7, #4]
 800568c:	807b      	strh	r3, [r7, #2]
#if (USE_SPI_CRC != 0U)
  __IO uint32_t tmpreg = 0U;
#endif /* USE_SPI_CRC */

  /* Variable used to alternate Rx and Tx during transfer */
  uint32_t             txallowed = 1U;
 800568e:	2301      	movs	r3, #1
 8005690:	62fb      	str	r3, [r7, #44]	; 0x2c
  HAL_StatusTypeDef    errorcode = HAL_OK;
 8005692:	2300      	movs	r3, #0
 8005694:	f887 302b 	strb.w	r3, [r7, #43]	; 0x2b

  /* Check Direction parameter */
  assert_param(IS_SPI_DIRECTION_2LINES(hspi->Init.Direction));

  /* Process Locked */
  __HAL_LOCK(hspi);
 8005698:	68fb      	ldr	r3, [r7, #12]
 800569a:	f893 3050 	ldrb.w	r3, [r3, #80]	; 0x50
 800569e:	2b01      	cmp	r3, #1
 80056a0:	d101      	bne.n	80056a6 <HAL_SPI_TransmitReceive+0x26>
 80056a2:	2302      	movs	r3, #2
 80056a4:	e198      	b.n	80059d8 <HAL_SPI_TransmitReceive+0x358>
 80056a6:	68fb      	ldr	r3, [r7, #12]
 80056a8:	2201      	movs	r2, #1
 80056aa:	f883 2050 	strb.w	r2, [r3, #80]	; 0x50

  /* Init tickstart for timeout management*/
  tickstart = HAL_GetTick();
 80056ae:	f7fc ffb5 	bl	800261c <HAL_GetTick>
 80056b2:	6278      	str	r0, [r7, #36]	; 0x24

  /* Init temporary variables */
  tmp_state           = hspi->State;
 80056b4:	68fb      	ldr	r3, [r7, #12]
 80056b6:	f893 3051 	ldrb.w	r3, [r3, #81]	; 0x51
 80056ba:	f887 3023 	strb.w	r3, [r7, #35]	; 0x23
  tmp_mode            = hspi->Init.Mode;
 80056be:	68fb      	ldr	r3, [r7, #12]
 80056c0:	685b      	ldr	r3, [r3, #4]
 80056c2:	61fb      	str	r3, [r7, #28]
  initial_TxXferCount = Size;
 80056c4:	887b      	ldrh	r3, [r7, #2]
 80056c6:	837b      	strh	r3, [r7, #26]

  if (!((tmp_state == HAL_SPI_STATE_READY) || \
 80056c8:	f897 3023 	ldrb.w	r3, [r7, #35]	; 0x23
 80056cc:	2b01      	cmp	r3, #1
 80056ce:	d00f      	beq.n	80056f0 <HAL_SPI_TransmitReceive+0x70>
 80056d0:	69fb      	ldr	r3, [r7, #28]
 80056d2:	f5b3 7f82 	cmp.w	r3, #260	; 0x104
 80056d6:	d107      	bne.n	80056e8 <HAL_SPI_TransmitReceive+0x68>
        ((tmp_mode == SPI_MODE_MASTER) && (hspi->Init.Direction == SPI_DIRECTION_2LINES) && (tmp_state == HAL_SPI_STATE_BUSY_RX))))
 80056d8:	68fb      	ldr	r3, [r7, #12]
 80056da:	689b      	ldr	r3, [r3, #8]
 80056dc:	2b00      	cmp	r3, #0
 80056de:	d103      	bne.n	80056e8 <HAL_SPI_TransmitReceive+0x68>
 80056e0:	f897 3023 	ldrb.w	r3, [r7, #35]	; 0x23
 80056e4:	2b04      	cmp	r3, #4
 80056e6:	d003      	beq.n	80056f0 <HAL_SPI_TransmitReceive+0x70>
  {
    errorcode = HAL_BUSY;
 80056e8:	2302      	movs	r3, #2
 80056ea:	f887 302b 	strb.w	r3, [r7, #43]	; 0x2b
    goto error;
 80056ee:	e16d      	b.n	80059cc <HAL_SPI_TransmitReceive+0x34c>
  }

  if ((pTxData == NULL) || (pRxData == NULL) || (Size == 0U))
 80056f0:	68bb      	ldr	r3, [r7, #8]
 80056f2:	2b00      	cmp	r3, #0
 80056f4:	d005      	beq.n	8005702 <HAL_SPI_TransmitReceive+0x82>
 80056f6:	687b      	ldr	r3, [r7, #4]
 80056f8:	2b00      	cmp	r3, #0
 80056fa:	d002      	beq.n	8005702 <HAL_SPI_TransmitReceive+0x82>
 80056fc:	887b      	ldrh	r3, [r7, #2]
 80056fe:	2b00      	cmp	r3, #0
 8005700:	d103      	bne.n	800570a <HAL_SPI_TransmitReceive+0x8a>
  {
    errorcode = HAL_ERROR;
 8005702:	2301      	movs	r3, #1
 8005704:	f887 302b 	strb.w	r3, [r7, #43]	; 0x2b
    goto error;
 8005708:	e160      	b.n	80059cc <HAL_SPI_TransmitReceive+0x34c>
  }

  /* Don't overwrite in case of HAL_SPI_STATE_BUSY_RX */
  if (hspi->State != HAL_SPI_STATE_BUSY_RX)
 800570a:	68fb      	ldr	r3, [r7, #12]
 800570c:	f893 3051 	ldrb.w	r3, [r3, #81]	; 0x51
 8005710:	b2db      	uxtb	r3, r3
 8005712:	2b04      	cmp	r3, #4
 8005714:	d003      	beq.n	800571e <HAL_SPI_TransmitReceive+0x9e>
  {
    hspi->State = HAL_SPI_STATE_BUSY_TX_RX;
 8005716:	68fb      	ldr	r3, [r7, #12]
 8005718:	2205      	movs	r2, #5
 800571a:	f883 2051 	strb.w	r2, [r3, #81]	; 0x51
  }

  /* Set the transaction information */
  hspi->ErrorCode   = HAL_SPI_ERROR_NONE;
 800571e:	68fb      	ldr	r3, [r7, #12]
 8005720:	2200      	movs	r2, #0
 8005722:	655a      	str	r2, [r3, #84]	; 0x54
  hspi->pRxBuffPtr  = (uint8_t *)pRxData;
 8005724:	68fb      	ldr	r3, [r7, #12]
 8005726:	687a      	ldr	r2, [r7, #4]
 8005728:	639a      	str	r2, [r3, #56]	; 0x38
  hspi->RxXferCount = Size;
 800572a:	68fb      	ldr	r3, [r7, #12]
 800572c:	887a      	ldrh	r2, [r7, #2]
 800572e:	87da      	strh	r2, [r3, #62]	; 0x3e
  hspi->RxXferSize  = Size;
 8005730:	68fb      	ldr	r3, [r7, #12]
 8005732:	887a      	ldrh	r2, [r7, #2]
 8005734:	879a      	strh	r2, [r3, #60]	; 0x3c
  hspi->pTxBuffPtr  = (uint8_t *)pTxData;
 8005736:	68fb      	ldr	r3, [r7, #12]
 8005738:	68ba      	ldr	r2, [r7, #8]
 800573a:	631a      	str	r2, [r3, #48]	; 0x30
  hspi->TxXferCount = Size;
 800573c:	68fb      	ldr	r3, [r7, #12]
 800573e:	887a      	ldrh	r2, [r7, #2]
 8005740:	86da      	strh	r2, [r3, #54]	; 0x36
  hspi->TxXferSize  = Size;
 8005742:	68fb      	ldr	r3, [r7, #12]
 8005744:	887a      	ldrh	r2, [r7, #2]
 8005746:	869a      	strh	r2, [r3, #52]	; 0x34

  /*Init field not used in handle to zero */
  hspi->RxISR       = NULL;
 8005748:	68fb      	ldr	r3, [r7, #12]
 800574a:	2200      	movs	r2, #0
 800574c:	641a      	str	r2, [r3, #64]	; 0x40
  hspi->TxISR       = NULL;
 800574e:	68fb      	ldr	r3, [r7, #12]
 8005750:	2200      	movs	r2, #0
 8005752:	645a      	str	r2, [r3, #68]	; 0x44
    SPI_RESET_CRC(hspi);
  }
#endif /* USE_SPI_CRC */

  /* Check if the SPI is already enabled */
  if ((hspi->Instance->CR1 & SPI_CR1_SPE) != SPI_CR1_SPE)
 8005754:	68fb      	ldr	r3, [r7, #12]
 8005756:	681b      	ldr	r3, [r3, #0]
 8005758:	681b      	ldr	r3, [r3, #0]
 800575a:	f003 0340 	and.w	r3, r3, #64	; 0x40
 800575e:	2b40      	cmp	r3, #64	; 0x40
 8005760:	d007      	beq.n	8005772 <HAL_SPI_TransmitReceive+0xf2>
  {
    /* Enable SPI peripheral */
    __HAL_SPI_ENABLE(hspi);
 8005762:	68fb      	ldr	r3, [r7, #12]
 8005764:	681b      	ldr	r3, [r3, #0]
 8005766:	681a      	ldr	r2, [r3, #0]
 8005768:	68fb      	ldr	r3, [r7, #12]
 800576a:	681b      	ldr	r3, [r3, #0]
 800576c:	f042 0240 	orr.w	r2, r2, #64	; 0x40
 8005770:	601a      	str	r2, [r3, #0]
  }

  /* Transmit and Receive data in 16 Bit mode */
  if (hspi->Init.DataSize == SPI_DATASIZE_16BIT)
 8005772:	68fb      	ldr	r3, [r7, #12]
 8005774:	68db      	ldr	r3, [r3, #12]
 8005776:	f5b3 6f00 	cmp.w	r3, #2048	; 0x800
 800577a:	d17c      	bne.n	8005876 <HAL_SPI_TransmitReceive+0x1f6>
  {
    if ((hspi->Init.Mode == SPI_MODE_SLAVE) || (initial_TxXferCount == 0x01U))
 800577c:	68fb      	ldr	r3, [r7, #12]
 800577e:	685b      	ldr	r3, [r3, #4]
 8005780:	2b00      	cmp	r3, #0
 8005782:	d002      	beq.n	800578a <HAL_SPI_TransmitReceive+0x10a>
 8005784:	8b7b      	ldrh	r3, [r7, #26]
 8005786:	2b01      	cmp	r3, #1
 8005788:	d16a      	bne.n	8005860 <HAL_SPI_TransmitReceive+0x1e0>
    {
      hspi->Instance->DR = *((uint16_t *)hspi->pTxBuffPtr);
 800578a:	68fb      	ldr	r3, [r7, #12]
 800578c:	6b1b      	ldr	r3, [r3, #48]	; 0x30
 800578e:	881a      	ldrh	r2, [r3, #0]
 8005790:	68fb      	ldr	r3, [r7, #12]
 8005792:	681b      	ldr	r3, [r3, #0]
 8005794:	60da      	str	r2, [r3, #12]
      hspi->pTxBuffPtr += sizeof(uint16_t);
 8005796:	68fb      	ldr	r3, [r7, #12]
 8005798:	6b1b      	ldr	r3, [r3, #48]	; 0x30
 800579a:	1c9a      	adds	r2, r3, #2
 800579c:	68fb      	ldr	r3, [r7, #12]
 800579e:	631a      	str	r2, [r3, #48]	; 0x30
      hspi->TxXferCount--;
 80057a0:	68fb      	ldr	r3, [r7, #12]
 80057a2:	8edb      	ldrh	r3, [r3, #54]	; 0x36
 80057a4:	b29b      	uxth	r3, r3
 80057a6:	3b01      	subs	r3, #1
 80057a8:	b29a      	uxth	r2, r3
 80057aa:	68fb      	ldr	r3, [r7, #12]
 80057ac:	86da      	strh	r2, [r3, #54]	; 0x36
        SET_BIT(hspi->Instance->CR1, SPI_CR1_CRCNEXT);
      }
#endif /* USE_SPI_CRC */

    }
    while ((hspi->TxXferCount > 0U) || (hspi->RxXferCount > 0U))
 80057ae:	e057      	b.n	8005860 <HAL_SPI_TransmitReceive+0x1e0>
    {
      /* Check TXE flag */
      if ((__HAL_SPI_GET_FLAG(hspi, SPI_FLAG_TXE)) && (hspi->TxXferCount > 0U) && (txallowed == 1U))
 80057b0:	68fb      	ldr	r3, [r7, #12]
 80057b2:	681b      	ldr	r3, [r3, #0]
 80057b4:	689b      	ldr	r3, [r3, #8]
 80057b6:	f003 0302 	and.w	r3, r3, #2
 80057ba:	2b02      	cmp	r3, #2
 80057bc:	d11b      	bne.n	80057f6 <HAL_SPI_TransmitReceive+0x176>
 80057be:	68fb      	ldr	r3, [r7, #12]
 80057c0:	8edb      	ldrh	r3, [r3, #54]	; 0x36
 80057c2:	b29b      	uxth	r3, r3
 80057c4:	2b00      	cmp	r3, #0
 80057c6:	d016      	beq.n	80057f6 <HAL_SPI_TransmitReceive+0x176>
 80057c8:	6afb      	ldr	r3, [r7, #44]	; 0x2c
 80057ca:	2b01      	cmp	r3, #1
 80057cc:	d113      	bne.n	80057f6 <HAL_SPI_TransmitReceive+0x176>
      {
        hspi->Instance->DR = *((uint16_t *)hspi->pTxBuffPtr);
 80057ce:	68fb      	ldr	r3, [r7, #12]
 80057d0:	6b1b      	ldr	r3, [r3, #48]	; 0x30
 80057d2:	881a      	ldrh	r2, [r3, #0]
 80057d4:	68fb      	ldr	r3, [r7, #12]
 80057d6:	681b      	ldr	r3, [r3, #0]
 80057d8:	60da      	str	r2, [r3, #12]
        hspi->pTxBuffPtr += sizeof(uint16_t);
 80057da:	68fb      	ldr	r3, [r7, #12]
 80057dc:	6b1b      	ldr	r3, [r3, #48]	; 0x30
 80057de:	1c9a      	adds	r2, r3, #2
 80057e0:	68fb      	ldr	r3, [r7, #12]
 80057e2:	631a      	str	r2, [r3, #48]	; 0x30
        hspi->TxXferCount--;
 80057e4:	68fb      	ldr	r3, [r7, #12]
 80057e6:	8edb      	ldrh	r3, [r3, #54]	; 0x36
 80057e8:	b29b      	uxth	r3, r3
 80057ea:	3b01      	subs	r3, #1
 80057ec:	b29a      	uxth	r2, r3
 80057ee:	68fb      	ldr	r3, [r7, #12]
 80057f0:	86da      	strh	r2, [r3, #54]	; 0x36
        /* Next Data is a reception (Rx). Tx not allowed */
        txallowed = 0U;
 80057f2:	2300      	movs	r3, #0
 80057f4:	62fb      	str	r3, [r7, #44]	; 0x2c
        }
#endif /* USE_SPI_CRC */
      }

      /* Check RXNE flag */
      if ((__HAL_SPI_GET_FLAG(hspi, SPI_FLAG_RXNE)) && (hspi->RxXferCount > 0U))
 80057f6:	68fb      	ldr	r3, [r7, #12]
 80057f8:	681b      	ldr	r3, [r3, #0]
 80057fa:	689b      	ldr	r3, [r3, #8]
 80057fc:	f003 0301 	and.w	r3, r3, #1
 8005800:	2b01      	cmp	r3, #1
 8005802:	d119      	bne.n	8005838 <HAL_SPI_TransmitReceive+0x1b8>
 8005804:	68fb      	ldr	r3, [r7, #12]
 8005806:	8fdb      	ldrh	r3, [r3, #62]	; 0x3e
 8005808:	b29b      	uxth	r3, r3
 800580a:	2b00      	cmp	r3, #0
 800580c:	d014      	beq.n	8005838 <HAL_SPI_TransmitReceive+0x1b8>
      {
        *((uint16_t *)hspi->pRxBuffPtr) = (uint16_t)hspi->Instance->DR;
 800580e:	68fb      	ldr	r3, [r7, #12]
 8005810:	681b      	ldr	r3, [r3, #0]
 8005812:	68da      	ldr	r2, [r3, #12]
 8005814:	68fb      	ldr	r3, [r7, #12]
 8005816:	6b9b      	ldr	r3, [r3, #56]	; 0x38
 8005818:	b292      	uxth	r2, r2
 800581a:	801a      	strh	r2, [r3, #0]
        hspi->pRxBuffPtr += sizeof(uint16_t);
 800581c:	68fb      	ldr	r3, [r7, #12]
 800581e:	6b9b      	ldr	r3, [r3, #56]	; 0x38
 8005820:	1c9a      	adds	r2, r3, #2
 8005822:	68fb      	ldr	r3, [r7, #12]
 8005824:	639a      	str	r2, [r3, #56]	; 0x38
        hspi->RxXferCount--;
 8005826:	68fb      	ldr	r3, [r7, #12]
 8005828:	8fdb      	ldrh	r3, [r3, #62]	; 0x3e
 800582a:	b29b      	uxth	r3, r3
 800582c:	3b01      	subs	r3, #1
 800582e:	b29a      	uxth	r2, r3
 8005830:	68fb      	ldr	r3, [r7, #12]
 8005832:	87da      	strh	r2, [r3, #62]	; 0x3e
        /* Next Data is a Transmission (Tx). Tx is allowed */
        txallowed = 1U;
 8005834:	2301      	movs	r3, #1
 8005836:	62fb      	str	r3, [r7, #44]	; 0x2c
      }
      if (((HAL_GetTick() - tickstart) >=  Timeout) && (Timeout != HAL_MAX_DELAY))
 8005838:	f7fc fef0 	bl	800261c <HAL_GetTick>
 800583c:	4602      	mov	r2, r0
 800583e:	6a7b      	ldr	r3, [r7, #36]	; 0x24
 8005840:	1ad3      	subs	r3, r2, r3
 8005842:	6bba      	ldr	r2, [r7, #56]	; 0x38
 8005844:	429a      	cmp	r2, r3
 8005846:	d80b      	bhi.n	8005860 <HAL_SPI_TransmitReceive+0x1e0>
 8005848:	6bbb      	ldr	r3, [r7, #56]	; 0x38
 800584a:	f1b3 3fff 	cmp.w	r3, #4294967295	; 0xffffffff
 800584e:	d007      	beq.n	8005860 <HAL_SPI_TransmitReceive+0x1e0>
      {
        errorcode = HAL_TIMEOUT;
 8005850:	2303      	movs	r3, #3
 8005852:	f887 302b 	strb.w	r3, [r7, #43]	; 0x2b
        hspi->State = HAL_SPI_STATE_READY;
 8005856:	68fb      	ldr	r3, [r7, #12]
 8005858:	2201      	movs	r2, #1
 800585a:	f883 2051 	strb.w	r2, [r3, #81]	; 0x51
        goto error;
 800585e:	e0b5      	b.n	80059cc <HAL_SPI_TransmitReceive+0x34c>
    while ((hspi->TxXferCount > 0U) || (hspi->RxXferCount > 0U))
 8005860:	68fb      	ldr	r3, [r7, #12]
 8005862:	8edb      	ldrh	r3, [r3, #54]	; 0x36
 8005864:	b29b      	uxth	r3, r3
 8005866:	2b00      	cmp	r3, #0
 8005868:	d1a2      	bne.n	80057b0 <HAL_SPI_TransmitReceive+0x130>
 800586a:	68fb      	ldr	r3, [r7, #12]
 800586c:	8fdb      	ldrh	r3, [r3, #62]	; 0x3e
 800586e:	b29b      	uxth	r3, r3
 8005870:	2b00      	cmp	r3, #0
 8005872:	d19d      	bne.n	80057b0 <HAL_SPI_TransmitReceive+0x130>
 8005874:	e080      	b.n	8005978 <HAL_SPI_TransmitReceive+0x2f8>
    }
  }
  /* Transmit and Receive data in 8 Bit mode */
  else
  {
    if ((hspi->Init.Mode == SPI_MODE_SLAVE) || (initial_TxXferCount == 0x01U))
 8005876:	68fb      	ldr	r3, [r7, #12]
 8005878:	685b      	ldr	r3, [r3, #4]
 800587a:	2b00      	cmp	r3, #0
 800587c:	d002      	beq.n	8005884 <HAL_SPI_TransmitReceive+0x204>
 800587e:	8b7b      	ldrh	r3, [r7, #26]
 8005880:	2b01      	cmp	r3, #1
 8005882:	d16f      	bne.n	8005964 <HAL_SPI_TransmitReceive+0x2e4>
    {
      *((__IO uint8_t *)&hspi->Instance->DR) = (*hspi->pTxBuffPtr);
 8005884:	68fb      	ldr	r3, [r7, #12]
 8005886:	6b1a      	ldr	r2, [r3, #48]	; 0x30
 8005888:	68fb      	ldr	r3, [r7, #12]
 800588a:	681b      	ldr	r3, [r3, #0]
 800588c:	330c      	adds	r3, #12
 800588e:	7812      	ldrb	r2, [r2, #0]
 8005890:	701a      	strb	r2, [r3, #0]
      hspi->pTxBuffPtr += sizeof(uint8_t);
 8005892:	68fb      	ldr	r3, [r7, #12]
 8005894:	6b1b      	ldr	r3, [r3, #48]	; 0x30
 8005896:	1c5a      	adds	r2, r3, #1
 8005898:	68fb      	ldr	r3, [r7, #12]
 800589a:	631a      	str	r2, [r3, #48]	; 0x30
      hspi->TxXferCount--;
 800589c:	68fb      	ldr	r3, [r7, #12]
 800589e:	8edb      	ldrh	r3, [r3, #54]	; 0x36
 80058a0:	b29b      	uxth	r3, r3
 80058a2:	3b01      	subs	r3, #1
 80058a4:	b29a      	uxth	r2, r3
 80058a6:	68fb      	ldr	r3, [r7, #12]
 80058a8:	86da      	strh	r2, [r3, #54]	; 0x36
      {
        SET_BIT(hspi->Instance->CR1, SPI_CR1_CRCNEXT);
      }
#endif /* USE_SPI_CRC */
    }
    while ((hspi->TxXferCount > 0U) || (hspi->RxXferCount > 0U))
 80058aa:	e05b      	b.n	8005964 <HAL_SPI_TransmitReceive+0x2e4>
    {
      /* Check TXE flag */
      if ((__HAL_SPI_GET_FLAG(hspi, SPI_FLAG_TXE)) && (hspi->TxXferCount > 0U) && (txallowed == 1U))
 80058ac:	68fb      	ldr	r3, [r7, #12]
 80058ae:	681b      	ldr	r3, [r3, #0]
 80058b0:	689b      	ldr	r3, [r3, #8]
 80058b2:	f003 0302 	and.w	r3, r3, #2
 80058b6:	2b02      	cmp	r3, #2
 80058b8:	d11c      	bne.n	80058f4 <HAL_SPI_TransmitReceive+0x274>
 80058ba:	68fb      	ldr	r3, [r7, #12]
 80058bc:	8edb      	ldrh	r3, [r3, #54]	; 0x36
 80058be:	b29b      	uxth	r3, r3
 80058c0:	2b00      	cmp	r3, #0
 80058c2:	d017      	beq.n	80058f4 <HAL_SPI_TransmitReceive+0x274>
 80058c4:	6afb      	ldr	r3, [r7, #44]	; 0x2c
 80058c6:	2b01      	cmp	r3, #1
 80058c8:	d114      	bne.n	80058f4 <HAL_SPI_TransmitReceive+0x274>
      {
        *(__IO uint8_t *)&hspi->Instance->DR = (*hspi->pTxBuffPtr);
 80058ca:	68fb      	ldr	r3, [r7, #12]
 80058cc:	6b1a      	ldr	r2, [r3, #48]	; 0x30
 80058ce:	68fb      	ldr	r3, [r7, #12]
 80058d0:	681b      	ldr	r3, [r3, #0]
 80058d2:	330c      	adds	r3, #12
 80058d4:	7812      	ldrb	r2, [r2, #0]
 80058d6:	701a      	strb	r2, [r3, #0]
        hspi->pTxBuffPtr++;
 80058d8:	68fb      	ldr	r3, [r7, #12]
 80058da:	6b1b      	ldr	r3, [r3, #48]	; 0x30
 80058dc:	1c5a      	adds	r2, r3, #1
 80058de:	68fb      	ldr	r3, [r7, #12]
 80058e0:	631a      	str	r2, [r3, #48]	; 0x30
        hspi->TxXferCount--;
 80058e2:	68fb      	ldr	r3, [r7, #12]
 80058e4:	8edb      	ldrh	r3, [r3, #54]	; 0x36
 80058e6:	b29b      	uxth	r3, r3
 80058e8:	3b01      	subs	r3, #1
 80058ea:	b29a      	uxth	r2, r3
 80058ec:	68fb      	ldr	r3, [r7, #12]
 80058ee:	86da      	strh	r2, [r3, #54]	; 0x36
        /* Next Data is a reception (Rx). Tx not allowed */
        txallowed = 0U;
 80058f0:	2300      	movs	r3, #0
 80058f2:	62fb      	str	r3, [r7, #44]	; 0x2c
        }
#endif /* USE_SPI_CRC */
      }

      /* Wait until RXNE flag is reset */
      if ((__HAL_SPI_GET_FLAG(hspi, SPI_FLAG_RXNE)) && (hspi->RxXferCount > 0U))
 80058f4:	68fb      	ldr	r3, [r7, #12]
 80058f6:	681b      	ldr	r3, [r3, #0]
 80058f8:	689b      	ldr	r3, [r3, #8]
 80058fa:	f003 0301 	and.w	r3, r3, #1
 80058fe:	2b01      	cmp	r3, #1
 8005900:	d119      	bne.n	8005936 <HAL_SPI_TransmitReceive+0x2b6>
 8005902:	68fb      	ldr	r3, [r7, #12]
 8005904:	8fdb      	ldrh	r3, [r3, #62]	; 0x3e
 8005906:	b29b      	uxth	r3, r3
 8005908:	2b00      	cmp	r3, #0
 800590a:	d014      	beq.n	8005936 <HAL_SPI_TransmitReceive+0x2b6>
      {
        (*(uint8_t *)hspi->pRxBuffPtr) = hspi->Instance->DR;
 800590c:	68fb      	ldr	r3, [r7, #12]
 800590e:	681b      	ldr	r3, [r3, #0]
 8005910:	68da      	ldr	r2, [r3, #12]
 8005912:	68fb      	ldr	r3, [r7, #12]
 8005914:	6b9b      	ldr	r3, [r3, #56]	; 0x38
 8005916:	b2d2      	uxtb	r2, r2
 8005918:	701a      	strb	r2, [r3, #0]
        hspi->pRxBuffPtr++;
 800591a:	68fb      	ldr	r3, [r7, #12]
 800591c:	6b9b      	ldr	r3, [r3, #56]	; 0x38
 800591e:	1c5a      	adds	r2, r3, #1
 8005920:	68fb      	ldr	r3, [r7, #12]
 8005922:	639a      	str	r2, [r3, #56]	; 0x38
        hspi->RxXferCount--;
 8005924:	68fb      	ldr	r3, [r7, #12]
 8005926:	8fdb      	ldrh	r3, [r3, #62]	; 0x3e
 8005928:	b29b      	uxth	r3, r3
 800592a:	3b01      	subs	r3, #1
 800592c:	b29a      	uxth	r2, r3
 800592e:	68fb      	ldr	r3, [r7, #12]
 8005930:	87da      	strh	r2, [r3, #62]	; 0x3e
        /* Next Data is a Transmission (Tx). Tx is allowed */
        txallowed = 1U;
 8005932:	2301      	movs	r3, #1
 8005934:	62fb      	str	r3, [r7, #44]	; 0x2c
      }
      if ((((HAL_GetTick() - tickstart) >=  Timeout) && ((Timeout != HAL_MAX_DELAY))) || (Timeout == 0U))
 8005936:	f7fc fe71 	bl	800261c <HAL_GetTick>
 800593a:	4602      	mov	r2, r0
 800593c:	6a7b      	ldr	r3, [r7, #36]	; 0x24
 800593e:	1ad3      	subs	r3, r2, r3
 8005940:	6bba      	ldr	r2, [r7, #56]	; 0x38
 8005942:	429a      	cmp	r2, r3
 8005944:	d803      	bhi.n	800594e <HAL_SPI_TransmitReceive+0x2ce>
 8005946:	6bbb      	ldr	r3, [r7, #56]	; 0x38
 8005948:	f1b3 3fff 	cmp.w	r3, #4294967295	; 0xffffffff
 800594c:	d102      	bne.n	8005954 <HAL_SPI_TransmitReceive+0x2d4>
 800594e:	6bbb      	ldr	r3, [r7, #56]	; 0x38
 8005950:	2b00      	cmp	r3, #0
 8005952:	d107      	bne.n	8005964 <HAL_SPI_TransmitReceive+0x2e4>
      {
        errorcode = HAL_TIMEOUT;
 8005954:	2303      	movs	r3, #3
 8005956:	f887 302b 	strb.w	r3, [r7, #43]	; 0x2b
        hspi->State = HAL_SPI_STATE_READY;
 800595a:	68fb      	ldr	r3, [r7, #12]
 800595c:	2201      	movs	r2, #1
 800595e:	f883 2051 	strb.w	r2, [r3, #81]	; 0x51
        goto error;
 8005962:	e033      	b.n	80059cc <HAL_SPI_TransmitReceive+0x34c>
    while ((hspi->TxXferCount > 0U) || (hspi->RxXferCount > 0U))
 8005964:	68fb      	ldr	r3, [r7, #12]
 8005966:	8edb      	ldrh	r3, [r3, #54]	; 0x36
 8005968:	b29b      	uxth	r3, r3
 800596a:	2b00      	cmp	r3, #0
 800596c:	d19e      	bne.n	80058ac <HAL_SPI_TransmitReceive+0x22c>
 800596e:	68fb      	ldr	r3, [r7, #12]
 8005970:	8fdb      	ldrh	r3, [r3, #62]	; 0x3e
 8005972:	b29b      	uxth	r3, r3
 8005974:	2b00      	cmp	r3, #0
 8005976:	d199      	bne.n	80058ac <HAL_SPI_TransmitReceive+0x22c>
    errorcode = HAL_ERROR;
  }
#endif /* USE_SPI_CRC */

  /* Check the end of the transaction */
  if (SPI_EndRxTxTransaction(hspi, Timeout, tickstart) != HAL_OK)
 8005978:	6a7a      	ldr	r2, [r7, #36]	; 0x24
 800597a:	6bb9      	ldr	r1, [r7, #56]	; 0x38
 800597c:	68f8      	ldr	r0, [r7, #12]
 800597e:	f000 f91d 	bl	8005bbc <SPI_EndRxTxTransaction>
 8005982:	4603      	mov	r3, r0
 8005984:	2b00      	cmp	r3, #0
 8005986:	d006      	beq.n	8005996 <HAL_SPI_TransmitReceive+0x316>
  {
    errorcode = HAL_ERROR;
 8005988:	2301      	movs	r3, #1
 800598a:	f887 302b 	strb.w	r3, [r7, #43]	; 0x2b
    hspi->ErrorCode = HAL_SPI_ERROR_FLAG;
 800598e:	68fb      	ldr	r3, [r7, #12]
 8005990:	2220      	movs	r2, #32
 8005992:	655a      	str	r2, [r3, #84]	; 0x54
    goto error;
 8005994:	e01a      	b.n	80059cc <HAL_SPI_TransmitReceive+0x34c>
  }

  /* Clear overrun flag in 2 Lines communication mode because received is not read */
  if (hspi->Init.Direction == SPI_DIRECTION_2LINES)
 8005996:	68fb      	ldr	r3, [r7, #12]
 8005998:	689b      	ldr	r3, [r3, #8]
 800599a:	2b00      	cmp	r3, #0
 800599c:	d10a      	bne.n	80059b4 <HAL_SPI_TransmitReceive+0x334>
  {
    __HAL_SPI_CLEAR_OVRFLAG(hspi);
 800599e:	2300      	movs	r3, #0
 80059a0:	617b      	str	r3, [r7, #20]
 80059a2:	68fb      	ldr	r3, [r7, #12]
 80059a4:	681b      	ldr	r3, [r3, #0]
 80059a6:	68db      	ldr	r3, [r3, #12]
 80059a8:	617b      	str	r3, [r7, #20]
 80059aa:	68fb      	ldr	r3, [r7, #12]
 80059ac:	681b      	ldr	r3, [r3, #0]
 80059ae:	689b      	ldr	r3, [r3, #8]
 80059b0:	617b      	str	r3, [r7, #20]
 80059b2:	697b      	ldr	r3, [r7, #20]
  }

  if (hspi->ErrorCode != HAL_SPI_ERROR_NONE)
 80059b4:	68fb      	ldr	r3, [r7, #12]
 80059b6:	6d5b      	ldr	r3, [r3, #84]	; 0x54
 80059b8:	2b00      	cmp	r3, #0
 80059ba:	d003      	beq.n	80059c4 <HAL_SPI_TransmitReceive+0x344>
  {
    errorcode = HAL_ERROR;
 80059bc:	2301      	movs	r3, #1
 80059be:	f887 302b 	strb.w	r3, [r7, #43]	; 0x2b
 80059c2:	e003      	b.n	80059cc <HAL_SPI_TransmitReceive+0x34c>
  }
  else
  {
    hspi->State = HAL_SPI_STATE_READY;
 80059c4:	68fb      	ldr	r3, [r7, #12]
 80059c6:	2201      	movs	r2, #1
 80059c8:	f883 2051 	strb.w	r2, [r3, #81]	; 0x51
  }
  
error :
  __HAL_UNLOCK(hspi);
 80059cc:	68fb      	ldr	r3, [r7, #12]
 80059ce:	2200      	movs	r2, #0
 80059d0:	f883 2050 	strb.w	r2, [r3, #80]	; 0x50
  return errorcode;
 80059d4:	f897 302b 	ldrb.w	r3, [r7, #43]	; 0x2b
}
 80059d8:	4618      	mov	r0, r3
 80059da:	3730      	adds	r7, #48	; 0x30
 80059dc:	46bd      	mov	sp, r7
 80059de:	bd80      	pop	{r7, pc}

080059e0 <SPI_WaitFlagStateUntilTimeout>:
  * @param  Tickstart tick start value
  * @retval HAL status
  */
static HAL_StatusTypeDef SPI_WaitFlagStateUntilTimeout(SPI_HandleTypeDef *hspi, uint32_t Flag, FlagStatus State,
                                                       uint32_t Timeout, uint32_t Tickstart)
{
 80059e0:	b580      	push	{r7, lr}
 80059e2:	b088      	sub	sp, #32
 80059e4:	af00      	add	r7, sp, #0
 80059e6:	60f8      	str	r0, [r7, #12]
 80059e8:	60b9      	str	r1, [r7, #8]
 80059ea:	603b      	str	r3, [r7, #0]
 80059ec:	4613      	mov	r3, r2
 80059ee:	71fb      	strb	r3, [r7, #7]
  __IO uint32_t count;
  uint32_t tmp_timeout;
  uint32_t tmp_tickstart;

  /* Adjust Timeout value  in case of end of transfer */
  tmp_timeout   = Timeout - (HAL_GetTick() - Tickstart);
 80059f0:	f7fc fe14 	bl	800261c <HAL_GetTick>
 80059f4:	4602      	mov	r2, r0
 80059f6:	6abb      	ldr	r3, [r7, #40]	; 0x28
 80059f8:	1a9b      	subs	r3, r3, r2
 80059fa:	683a      	ldr	r2, [r7, #0]
 80059fc:	4413      	add	r3, r2
 80059fe:	61fb      	str	r3, [r7, #28]
  tmp_tickstart = HAL_GetTick();
 8005a00:	f7fc fe0c 	bl	800261c <HAL_GetTick>
 8005a04:	61b8      	str	r0, [r7, #24]

  /* Calculate Timeout based on a software loop to avoid blocking issue if Systick is disabled */
  count = tmp_timeout * ((SystemCoreClock * 32U) >> 20U);
 8005a06:	4b39      	ldr	r3, [pc, #228]	; (8005aec <SPI_WaitFlagStateUntilTimeout+0x10c>)
 8005a08:	681b      	ldr	r3, [r3, #0]
 8005a0a:	015b      	lsls	r3, r3, #5
 8005a0c:	0d1b      	lsrs	r3, r3, #20
 8005a0e:	69fa      	ldr	r2, [r7, #28]
 8005a10:	fb02 f303 	mul.w	r3, r2, r3
 8005a14:	617b      	str	r3, [r7, #20]

  while ((__HAL_SPI_GET_FLAG(hspi, Flag) ? SET : RESET) != State)
 8005a16:	e054      	b.n	8005ac2 <SPI_WaitFlagStateUntilTimeout+0xe2>
  {
    if (Timeout != HAL_MAX_DELAY)
 8005a18:	683b      	ldr	r3, [r7, #0]
 8005a1a:	f1b3 3fff 	cmp.w	r3, #4294967295	; 0xffffffff
 8005a1e:	d050      	beq.n	8005ac2 <SPI_WaitFlagStateUntilTimeout+0xe2>
    {
      if (((HAL_GetTick() - tmp_tickstart) >= tmp_timeout) || (tmp_timeout == 0U))
 8005a20:	f7fc fdfc 	bl	800261c <HAL_GetTick>
 8005a24:	4602      	mov	r2, r0
 8005a26:	69bb      	ldr	r3, [r7, #24]
 8005a28:	1ad3      	subs	r3, r2, r3
 8005a2a:	69fa      	ldr	r2, [r7, #28]
 8005a2c:	429a      	cmp	r2, r3
 8005a2e:	d902      	bls.n	8005a36 <SPI_WaitFlagStateUntilTimeout+0x56>
 8005a30:	69fb      	ldr	r3, [r7, #28]
 8005a32:	2b00      	cmp	r3, #0
 8005a34:	d13d      	bne.n	8005ab2 <SPI_WaitFlagStateUntilTimeout+0xd2>
        /* Disable the SPI and reset the CRC: the CRC value should be cleared
           on both master and slave sides in order to resynchronize the master
           and slave for their respective CRC calculation */

        /* Disable TXE, RXNE and ERR interrupts for the interrupt process */
        __HAL_SPI_DISABLE_IT(hspi, (SPI_IT_TXE | SPI_IT_RXNE | SPI_IT_ERR));
 8005a36:	68fb      	ldr	r3, [r7, #12]
 8005a38:	681b      	ldr	r3, [r3, #0]
 8005a3a:	685a      	ldr	r2, [r3, #4]
 8005a3c:	68fb      	ldr	r3, [r7, #12]
 8005a3e:	681b      	ldr	r3, [r3, #0]
 8005a40:	f022 02e0 	bic.w	r2, r2, #224	; 0xe0
 8005a44:	605a      	str	r2, [r3, #4]

        if ((hspi->Init.Mode == SPI_MODE_MASTER) && ((hspi->Init.Direction == SPI_DIRECTION_1LINE)
 8005a46:	68fb      	ldr	r3, [r7, #12]
 8005a48:	685b      	ldr	r3, [r3, #4]
 8005a4a:	f5b3 7f82 	cmp.w	r3, #260	; 0x104
 8005a4e:	d111      	bne.n	8005a74 <SPI_WaitFlagStateUntilTimeout+0x94>
 8005a50:	68fb      	ldr	r3, [r7, #12]
 8005a52:	689b      	ldr	r3, [r3, #8]
 8005a54:	f5b3 4f00 	cmp.w	r3, #32768	; 0x8000
 8005a58:	d004      	beq.n	8005a64 <SPI_WaitFlagStateUntilTimeout+0x84>
                                                     || (hspi->Init.Direction == SPI_DIRECTION_2LINES_RXONLY)))
 8005a5a:	68fb      	ldr	r3, [r7, #12]
 8005a5c:	689b      	ldr	r3, [r3, #8]
 8005a5e:	f5b3 6f80 	cmp.w	r3, #1024	; 0x400
 8005a62:	d107      	bne.n	8005a74 <SPI_WaitFlagStateUntilTimeout+0x94>
        {
          /* Disable SPI peripheral */
          __HAL_SPI_DISABLE(hspi);
 8005a64:	68fb      	ldr	r3, [r7, #12]
 8005a66:	681b      	ldr	r3, [r3, #0]
 8005a68:	681a      	ldr	r2, [r3, #0]
 8005a6a:	68fb      	ldr	r3, [r7, #12]
 8005a6c:	681b      	ldr	r3, [r3, #0]
 8005a6e:	f022 0240 	bic.w	r2, r2, #64	; 0x40
 8005a72:	601a      	str	r2, [r3, #0]
        }

        /* Reset CRC Calculation */
        if (hspi->Init.CRCCalculation == SPI_CRCCALCULATION_ENABLE)
 8005a74:	68fb      	ldr	r3, [r7, #12]
 8005a76:	6a9b      	ldr	r3, [r3, #40]	; 0x28
 8005a78:	f5b3 5f00 	cmp.w	r3, #8192	; 0x2000
 8005a7c:	d10f      	bne.n	8005a9e <SPI_WaitFlagStateUntilTimeout+0xbe>
        {
          SPI_RESET_CRC(hspi);
 8005a7e:	68fb      	ldr	r3, [r7, #12]
 8005a80:	681b      	ldr	r3, [r3, #0]
 8005a82:	681a      	ldr	r2, [r3, #0]
 8005a84:	68fb      	ldr	r3, [r7, #12]
 8005a86:	681b      	ldr	r3, [r3, #0]
 8005a88:	f422 5200 	bic.w	r2, r2, #8192	; 0x2000
 8005a8c:	601a      	str	r2, [r3, #0]
 8005a8e:	68fb      	ldr	r3, [r7, #12]
 8005a90:	681b      	ldr	r3, [r3, #0]
 8005a92:	681a      	ldr	r2, [r3, #0]
 8005a94:	68fb      	ldr	r3, [r7, #12]
 8005a96:	681b      	ldr	r3, [r3, #0]
 8005a98:	f442 5200 	orr.w	r2, r2, #8192	; 0x2000
 8005a9c:	601a      	str	r2, [r3, #0]
        }

        hspi->State = HAL_SPI_STATE_READY;
 8005a9e:	68fb      	ldr	r3, [r7, #12]
 8005aa0:	2201      	movs	r2, #1
 8005aa2:	f883 2051 	strb.w	r2, [r3, #81]	; 0x51

        /* Process Unlocked */
        __HAL_UNLOCK(hspi);
 8005aa6:	68fb      	ldr	r3, [r7, #12]
 8005aa8:	2200      	movs	r2, #0
 8005aaa:	f883 2050 	strb.w	r2, [r3, #80]	; 0x50

        return HAL_TIMEOUT;
 8005aae:	2303      	movs	r3, #3
 8005ab0:	e017      	b.n	8005ae2 <SPI_WaitFlagStateUntilTimeout+0x102>
      }
      /* If Systick is disabled or not incremented, deactivate timeout to go in disable loop procedure */
      if (count == 0U)
 8005ab2:	697b      	ldr	r3, [r7, #20]
 8005ab4:	2b00      	cmp	r3, #0
 8005ab6:	d101      	bne.n	8005abc <SPI_WaitFlagStateUntilTimeout+0xdc>
      {
        tmp_timeout = 0U;
 8005ab8:	2300      	movs	r3, #0
 8005aba:	61fb      	str	r3, [r7, #28]
      }
      count--;
 8005abc:	697b      	ldr	r3, [r7, #20]
 8005abe:	3b01      	subs	r3, #1
 8005ac0:	617b      	str	r3, [r7, #20]
  while ((__HAL_SPI_GET_FLAG(hspi, Flag) ? SET : RESET) != State)
 8005ac2:	68fb      	ldr	r3, [r7, #12]
 8005ac4:	681b      	ldr	r3, [r3, #0]
 8005ac6:	689a      	ldr	r2, [r3, #8]
 8005ac8:	68bb      	ldr	r3, [r7, #8]
 8005aca:	4013      	ands	r3, r2
 8005acc:	68ba      	ldr	r2, [r7, #8]
 8005ace:	429a      	cmp	r2, r3
 8005ad0:	bf0c      	ite	eq
 8005ad2:	2301      	moveq	r3, #1
 8005ad4:	2300      	movne	r3, #0
 8005ad6:	b2db      	uxtb	r3, r3
 8005ad8:	461a      	mov	r2, r3
 8005ada:	79fb      	ldrb	r3, [r7, #7]
 8005adc:	429a      	cmp	r2, r3
 8005ade:	d19b      	bne.n	8005a18 <SPI_WaitFlagStateUntilTimeout+0x38>
    }
  }

  return HAL_OK;
 8005ae0:	2300      	movs	r3, #0
}
 8005ae2:	4618      	mov	r0, r3
 8005ae4:	3720      	adds	r7, #32
 8005ae6:	46bd      	mov	sp, r7
 8005ae8:	bd80      	pop	{r7, pc}
 8005aea:	bf00      	nop
 8005aec:	20000018 	.word	0x20000018

08005af0 <SPI_EndRxTransaction>:
  * @param  Timeout Timeout duration
  * @param  Tickstart tick start value
  * @retval HAL status
  */
static HAL_StatusTypeDef SPI_EndRxTransaction(SPI_HandleTypeDef *hspi,  uint32_t Timeout, uint32_t Tickstart)
{
 8005af0:	b580      	push	{r7, lr}
 8005af2:	b086      	sub	sp, #24
 8005af4:	af02      	add	r7, sp, #8
 8005af6:	60f8      	str	r0, [r7, #12]
 8005af8:	60b9      	str	r1, [r7, #8]
 8005afa:	607a      	str	r2, [r7, #4]
  if ((hspi->Init.Mode == SPI_MODE_MASTER) && ((hspi->Init.Direction == SPI_DIRECTION_1LINE)
 8005afc:	68fb      	ldr	r3, [r7, #12]
 8005afe:	685b      	ldr	r3, [r3, #4]
 8005b00:	f5b3 7f82 	cmp.w	r3, #260	; 0x104
 8005b04:	d111      	bne.n	8005b2a <SPI_EndRxTransaction+0x3a>
 8005b06:	68fb      	ldr	r3, [r7, #12]
 8005b08:	689b      	ldr	r3, [r3, #8]
 8005b0a:	f5b3 4f00 	cmp.w	r3, #32768	; 0x8000
 8005b0e:	d004      	beq.n	8005b1a <SPI_EndRxTransaction+0x2a>
                                               || (hspi->Init.Direction == SPI_DIRECTION_2LINES_RXONLY)))
 8005b10:	68fb      	ldr	r3, [r7, #12]
 8005b12:	689b      	ldr	r3, [r3, #8]
 8005b14:	f5b3 6f80 	cmp.w	r3, #1024	; 0x400
 8005b18:	d107      	bne.n	8005b2a <SPI_EndRxTransaction+0x3a>
  {
    /* Disable SPI peripheral */
    __HAL_SPI_DISABLE(hspi);
 8005b1a:	68fb      	ldr	r3, [r7, #12]
 8005b1c:	681b      	ldr	r3, [r3, #0]
 8005b1e:	681a      	ldr	r2, [r3, #0]
 8005b20:	68fb      	ldr	r3, [r7, #12]
 8005b22:	681b      	ldr	r3, [r3, #0]
 8005b24:	f022 0240 	bic.w	r2, r2, #64	; 0x40
 8005b28:	601a      	str	r2, [r3, #0]
  }

  /* Erratasheet: BSY bit may stay high at the end of a data transfer in Slave mode */
  if (hspi->Init.Mode == SPI_MODE_MASTER)
 8005b2a:	68fb      	ldr	r3, [r7, #12]
 8005b2c:	685b      	ldr	r3, [r3, #4]
 8005b2e:	f5b3 7f82 	cmp.w	r3, #260	; 0x104
 8005b32:	d12a      	bne.n	8005b8a <SPI_EndRxTransaction+0x9a>
  {
    if (hspi->Init.Direction != SPI_DIRECTION_2LINES_RXONLY)
 8005b34:	68fb      	ldr	r3, [r7, #12]
 8005b36:	689b      	ldr	r3, [r3, #8]
 8005b38:	f5b3 6f80 	cmp.w	r3, #1024	; 0x400
 8005b3c:	d012      	beq.n	8005b64 <SPI_EndRxTransaction+0x74>
    {
      /* Control the BSY flag */
      if (SPI_WaitFlagStateUntilTimeout(hspi, SPI_FLAG_BSY, RESET, Timeout, Tickstart) != HAL_OK)
 8005b3e:	687b      	ldr	r3, [r7, #4]
 8005b40:	9300      	str	r3, [sp, #0]
 8005b42:	68bb      	ldr	r3, [r7, #8]
 8005b44:	2200      	movs	r2, #0
 8005b46:	2180      	movs	r1, #128	; 0x80
 8005b48:	68f8      	ldr	r0, [r7, #12]
 8005b4a:	f7ff ff49 	bl	80059e0 <SPI_WaitFlagStateUntilTimeout>
 8005b4e:	4603      	mov	r3, r0
 8005b50:	2b00      	cmp	r3, #0
 8005b52:	d02d      	beq.n	8005bb0 <SPI_EndRxTransaction+0xc0>
      {
        SET_BIT(hspi->ErrorCode, HAL_SPI_ERROR_FLAG);
 8005b54:	68fb      	ldr	r3, [r7, #12]
 8005b56:	6d5b      	ldr	r3, [r3, #84]	; 0x54
 8005b58:	f043 0220 	orr.w	r2, r3, #32
 8005b5c:	68fb      	ldr	r3, [r7, #12]
 8005b5e:	655a      	str	r2, [r3, #84]	; 0x54
        return HAL_TIMEOUT;
 8005b60:	2303      	movs	r3, #3
 8005b62:	e026      	b.n	8005bb2 <SPI_EndRxTransaction+0xc2>
      }
    }
    else
    {
      /* Wait the RXNE reset */
      if (SPI_WaitFlagStateUntilTimeout(hspi, SPI_FLAG_RXNE, RESET, Timeout, Tickstart) != HAL_OK)
 8005b64:	687b      	ldr	r3, [r7, #4]
 8005b66:	9300      	str	r3, [sp, #0]
 8005b68:	68bb      	ldr	r3, [r7, #8]
 8005b6a:	2200      	movs	r2, #0
 8005b6c:	2101      	movs	r1, #1
 8005b6e:	68f8      	ldr	r0, [r7, #12]
 8005b70:	f7ff ff36 	bl	80059e0 <SPI_WaitFlagStateUntilTimeout>
 8005b74:	4603      	mov	r3, r0
 8005b76:	2b00      	cmp	r3, #0
 8005b78:	d01a      	beq.n	8005bb0 <SPI_EndRxTransaction+0xc0>
      {
        SET_BIT(hspi->ErrorCode, HAL_SPI_ERROR_FLAG);
 8005b7a:	68fb      	ldr	r3, [r7, #12]
 8005b7c:	6d5b      	ldr	r3, [r3, #84]	; 0x54
 8005b7e:	f043 0220 	orr.w	r2, r3, #32
 8005b82:	68fb      	ldr	r3, [r7, #12]
 8005b84:	655a      	str	r2, [r3, #84]	; 0x54
        return HAL_TIMEOUT;
 8005b86:	2303      	movs	r3, #3
 8005b88:	e013      	b.n	8005bb2 <SPI_EndRxTransaction+0xc2>
    }
  }
  else
  {
    /* Wait the RXNE reset */
    if (SPI_WaitFlagStateUntilTimeout(hspi, SPI_FLAG_RXNE, RESET, Timeout, Tickstart) != HAL_OK)
 8005b8a:	687b      	ldr	r3, [r7, #4]
 8005b8c:	9300      	str	r3, [sp, #0]
 8005b8e:	68bb      	ldr	r3, [r7, #8]
 8005b90:	2200      	movs	r2, #0
 8005b92:	2101      	movs	r1, #1
 8005b94:	68f8      	ldr	r0, [r7, #12]
 8005b96:	f7ff ff23 	bl	80059e0 <SPI_WaitFlagStateUntilTimeout>
 8005b9a:	4603      	mov	r3, r0
 8005b9c:	2b00      	cmp	r3, #0
 8005b9e:	d007      	beq.n	8005bb0 <SPI_EndRxTransaction+0xc0>
    {
      SET_BIT(hspi->ErrorCode, HAL_SPI_ERROR_FLAG);
 8005ba0:	68fb      	ldr	r3, [r7, #12]
 8005ba2:	6d5b      	ldr	r3, [r3, #84]	; 0x54
 8005ba4:	f043 0220 	orr.w	r2, r3, #32
 8005ba8:	68fb      	ldr	r3, [r7, #12]
 8005baa:	655a      	str	r2, [r3, #84]	; 0x54
      return HAL_TIMEOUT;
 8005bac:	2303      	movs	r3, #3
 8005bae:	e000      	b.n	8005bb2 <SPI_EndRxTransaction+0xc2>
    }
  }
  return HAL_OK;
 8005bb0:	2300      	movs	r3, #0
}
 8005bb2:	4618      	mov	r0, r3
 8005bb4:	3710      	adds	r7, #16
 8005bb6:	46bd      	mov	sp, r7
 8005bb8:	bd80      	pop	{r7, pc}
	...

08005bbc <SPI_EndRxTxTransaction>:
  * @param  Timeout Timeout duration
  * @param  Tickstart tick start value
  * @retval HAL status
  */
static HAL_StatusTypeDef SPI_EndRxTxTransaction(SPI_HandleTypeDef *hspi, uint32_t Timeout, uint32_t Tickstart)
{
 8005bbc:	b580      	push	{r7, lr}
 8005bbe:	b088      	sub	sp, #32
 8005bc0:	af02      	add	r7, sp, #8
 8005bc2:	60f8      	str	r0, [r7, #12]
 8005bc4:	60b9      	str	r1, [r7, #8]
 8005bc6:	607a      	str	r2, [r7, #4]
  /* Wait until TXE flag */
  if(SPI_WaitFlagStateUntilTimeout(hspi, SPI_FLAG_TXE, SET, Timeout, Tickstart) != HAL_OK)
 8005bc8:	687b      	ldr	r3, [r7, #4]
 8005bca:	9300      	str	r3, [sp, #0]
 8005bcc:	68bb      	ldr	r3, [r7, #8]
 8005bce:	2201      	movs	r2, #1
 8005bd0:	2102      	movs	r1, #2
 8005bd2:	68f8      	ldr	r0, [r7, #12]
 8005bd4:	f7ff ff04 	bl	80059e0 <SPI_WaitFlagStateUntilTimeout>
 8005bd8:	4603      	mov	r3, r0
 8005bda:	2b00      	cmp	r3, #0
 8005bdc:	d007      	beq.n	8005bee <SPI_EndRxTxTransaction+0x32>
  {
    SET_BIT(hspi->ErrorCode, HAL_SPI_ERROR_FLAG);
 8005bde:	68fb      	ldr	r3, [r7, #12]
 8005be0:	6d5b      	ldr	r3, [r3, #84]	; 0x54
 8005be2:	f043 0220 	orr.w	r2, r3, #32
 8005be6:	68fb      	ldr	r3, [r7, #12]
 8005be8:	655a      	str	r2, [r3, #84]	; 0x54
    return HAL_TIMEOUT;
 8005bea:	2303      	movs	r3, #3
 8005bec:	e032      	b.n	8005c54 <SPI_EndRxTxTransaction+0x98>
  }

  /* Timeout in s */
  __IO uint32_t count = SPI_BSY_FLAG_WORKAROUND_TIMEOUT * (SystemCoreClock / 24U / 1000000U);
 8005bee:	4b1b      	ldr	r3, [pc, #108]	; (8005c5c <SPI_EndRxTxTransaction+0xa0>)
 8005bf0:	681b      	ldr	r3, [r3, #0]
 8005bf2:	4a1b      	ldr	r2, [pc, #108]	; (8005c60 <SPI_EndRxTxTransaction+0xa4>)
 8005bf4:	fba2 2303 	umull	r2, r3, r2, r3
 8005bf8:	0d5b      	lsrs	r3, r3, #21
 8005bfa:	f44f 727a 	mov.w	r2, #1000	; 0x3e8
 8005bfe:	fb02 f303 	mul.w	r3, r2, r3
 8005c02:	617b      	str	r3, [r7, #20]
  /* Erratasheet: BSY bit may stay high at the end of a data transfer in Slave mode */
  if (hspi->Init.Mode == SPI_MODE_MASTER)
 8005c04:	68fb      	ldr	r3, [r7, #12]
 8005c06:	685b      	ldr	r3, [r3, #4]
 8005c08:	f5b3 7f82 	cmp.w	r3, #260	; 0x104
 8005c0c:	d112      	bne.n	8005c34 <SPI_EndRxTxTransaction+0x78>
  {
    /* Control the BSY flag */
    if (SPI_WaitFlagStateUntilTimeout(hspi, SPI_FLAG_BSY, RESET, Timeout, Tickstart) != HAL_OK)
 8005c0e:	687b      	ldr	r3, [r7, #4]
 8005c10:	9300      	str	r3, [sp, #0]
 8005c12:	68bb      	ldr	r3, [r7, #8]
 8005c14:	2200      	movs	r2, #0
 8005c16:	2180      	movs	r1, #128	; 0x80
 8005c18:	68f8      	ldr	r0, [r7, #12]
 8005c1a:	f7ff fee1 	bl	80059e0 <SPI_WaitFlagStateUntilTimeout>
 8005c1e:	4603      	mov	r3, r0
 8005c20:	2b00      	cmp	r3, #0
 8005c22:	d016      	beq.n	8005c52 <SPI_EndRxTxTransaction+0x96>
    {
      SET_BIT(hspi->ErrorCode, HAL_SPI_ERROR_FLAG);
 8005c24:	68fb      	ldr	r3, [r7, #12]
 8005c26:	6d5b      	ldr	r3, [r3, #84]	; 0x54
 8005c28:	f043 0220 	orr.w	r2, r3, #32
 8005c2c:	68fb      	ldr	r3, [r7, #12]
 8005c2e:	655a      	str	r2, [r3, #84]	; 0x54
      return HAL_TIMEOUT;
 8005c30:	2303      	movs	r3, #3
 8005c32:	e00f      	b.n	8005c54 <SPI_EndRxTxTransaction+0x98>
    * User have to calculate the timeout value to fit with the time of 1 byte transfer.
    * This time is directly link with the SPI clock from Master device.
    */
    do
    {
      if (count == 0U)
 8005c34:	697b      	ldr	r3, [r7, #20]
 8005c36:	2b00      	cmp	r3, #0
 8005c38:	d00a      	beq.n	8005c50 <SPI_EndRxTxTransaction+0x94>
      {
        break;
      }
      count--;
 8005c3a:	697b      	ldr	r3, [r7, #20]
 8005c3c:	3b01      	subs	r3, #1
 8005c3e:	617b      	str	r3, [r7, #20]
    } while (__HAL_SPI_GET_FLAG(hspi, SPI_FLAG_BSY) != RESET);
 8005c40:	68fb      	ldr	r3, [r7, #12]
 8005c42:	681b      	ldr	r3, [r3, #0]
 8005c44:	689b      	ldr	r3, [r3, #8]
 8005c46:	f003 0380 	and.w	r3, r3, #128	; 0x80
 8005c4a:	2b80      	cmp	r3, #128	; 0x80
 8005c4c:	d0f2      	beq.n	8005c34 <SPI_EndRxTxTransaction+0x78>
 8005c4e:	e000      	b.n	8005c52 <SPI_EndRxTxTransaction+0x96>
        break;
 8005c50:	bf00      	nop
  }

  return HAL_OK;
 8005c52:	2300      	movs	r3, #0
}
 8005c54:	4618      	mov	r0, r3
 8005c56:	3718      	adds	r7, #24
 8005c58:	46bd      	mov	sp, r7
 8005c5a:	bd80      	pop	{r7, pc}
 8005c5c:	20000018 	.word	0x20000018
 8005c60:	165e9f81 	.word	0x165e9f81

08005c64 <HAL_TIM_Base_Init>:
  *         Ex: call @ref HAL_TIM_Base_DeInit() before HAL_TIM_Base_Init()
  * @param  htim TIM Base handle
  * @retval HAL status
  */
HAL_StatusTypeDef HAL_TIM_Base_Init(TIM_HandleTypeDef *htim)
{
 8005c64:	b580      	push	{r7, lr}
 8005c66:	b082      	sub	sp, #8
 8005c68:	af00      	add	r7, sp, #0
 8005c6a:	6078      	str	r0, [r7, #4]
  /* Check the TIM handle allocation */
  if (htim == NULL)
 8005c6c:	687b      	ldr	r3, [r7, #4]
 8005c6e:	2b00      	cmp	r3, #0
 8005c70:	d101      	bne.n	8005c76 <HAL_TIM_Base_Init+0x12>
  {
    return HAL_ERROR;
 8005c72:	2301      	movs	r3, #1
 8005c74:	e041      	b.n	8005cfa <HAL_TIM_Base_Init+0x96>
  assert_param(IS_TIM_COUNTER_MODE(htim->Init.CounterMode));
  assert_param(IS_TIM_CLOCKDIVISION_DIV(htim->Init.ClockDivision));
  assert_param(IS_TIM_PERIOD(htim, htim->Init.Period));
  assert_param(IS_TIM_AUTORELOAD_PRELOAD(htim->Init.AutoReloadPreload));

  if (htim->State == HAL_TIM_STATE_RESET)
 8005c76:	687b      	ldr	r3, [r7, #4]
 8005c78:	f893 303d 	ldrb.w	r3, [r3, #61]	; 0x3d
 8005c7c:	b2db      	uxtb	r3, r3
 8005c7e:	2b00      	cmp	r3, #0
 8005c80:	d106      	bne.n	8005c90 <HAL_TIM_Base_Init+0x2c>
  {
    /* Allocate lock resource and initialize it */
    htim->Lock = HAL_UNLOCKED;
 8005c82:	687b      	ldr	r3, [r7, #4]
 8005c84:	2200      	movs	r2, #0
 8005c86:	f883 203c 	strb.w	r2, [r3, #60]	; 0x3c
    }
    /* Init the low level hardware : GPIO, CLOCK, NVIC */
    htim->Base_MspInitCallback(htim);
#else
    /* Init the low level hardware : GPIO, CLOCK, NVIC */
    HAL_TIM_Base_MspInit(htim);
 8005c8a:	6878      	ldr	r0, [r7, #4]
 8005c8c:	f7fc fb1a 	bl	80022c4 <HAL_TIM_Base_MspInit>
#endif /* USE_HAL_TIM_REGISTER_CALLBACKS */
  }

  /* Set the TIM state */
  htim->State = HAL_TIM_STATE_BUSY;
 8005c90:	687b      	ldr	r3, [r7, #4]
 8005c92:	2202      	movs	r2, #2
 8005c94:	f883 203d 	strb.w	r2, [r3, #61]	; 0x3d

  /* Set the Time Base configuration */
  TIM_Base_SetConfig(htim->Instance, &htim->Init);
 8005c98:	687b      	ldr	r3, [r7, #4]
 8005c9a:	681a      	ldr	r2, [r3, #0]
 8005c9c:	687b      	ldr	r3, [r7, #4]
 8005c9e:	3304      	adds	r3, #4
 8005ca0:	4619      	mov	r1, r3
 8005ca2:	4610      	mov	r0, r2
 8005ca4:	f000 f9c0 	bl	8006028 <TIM_Base_SetConfig>

  /* Initialize the DMA burst operation state */
  htim->DMABurstState = HAL_DMA_BURST_STATE_READY;
 8005ca8:	687b      	ldr	r3, [r7, #4]
 8005caa:	2201      	movs	r2, #1
 8005cac:	f883 2046 	strb.w	r2, [r3, #70]	; 0x46

  /* Initialize the TIM channels state */
  TIM_CHANNEL_STATE_SET_ALL(htim, HAL_TIM_CHANNEL_STATE_READY);
 8005cb0:	687b      	ldr	r3, [r7, #4]
 8005cb2:	2201      	movs	r2, #1
 8005cb4:	f883 203e 	strb.w	r2, [r3, #62]	; 0x3e
 8005cb8:	687b      	ldr	r3, [r7, #4]
 8005cba:	2201      	movs	r2, #1
 8005cbc:	f883 203f 	strb.w	r2, [r3, #63]	; 0x3f
 8005cc0:	687b      	ldr	r3, [r7, #4]
 8005cc2:	2201      	movs	r2, #1
 8005cc4:	f883 2040 	strb.w	r2, [r3, #64]	; 0x40
 8005cc8:	687b      	ldr	r3, [r7, #4]
 8005cca:	2201      	movs	r2, #1
 8005ccc:	f883 2041 	strb.w	r2, [r3, #65]	; 0x41
  TIM_CHANNEL_N_STATE_SET_ALL(htim, HAL_TIM_CHANNEL_STATE_READY);
 8005cd0:	687b      	ldr	r3, [r7, #4]
 8005cd2:	2201      	movs	r2, #1
 8005cd4:	f883 2042 	strb.w	r2, [r3, #66]	; 0x42
 8005cd8:	687b      	ldr	r3, [r7, #4]
 8005cda:	2201      	movs	r2, #1
 8005cdc:	f883 2043 	strb.w	r2, [r3, #67]	; 0x43
 8005ce0:	687b      	ldr	r3, [r7, #4]
 8005ce2:	2201      	movs	r2, #1
 8005ce4:	f883 2044 	strb.w	r2, [r3, #68]	; 0x44
 8005ce8:	687b      	ldr	r3, [r7, #4]
 8005cea:	2201      	movs	r2, #1
 8005cec:	f883 2045 	strb.w	r2, [r3, #69]	; 0x45

  /* Initialize the TIM state*/
  htim->State = HAL_TIM_STATE_READY;
 8005cf0:	687b      	ldr	r3, [r7, #4]
 8005cf2:	2201      	movs	r2, #1
 8005cf4:	f883 203d 	strb.w	r2, [r3, #61]	; 0x3d

  return HAL_OK;
 8005cf8:	2300      	movs	r3, #0
}
 8005cfa:	4618      	mov	r0, r3
 8005cfc:	3708      	adds	r7, #8
 8005cfe:	46bd      	mov	sp, r7
 8005d00:	bd80      	pop	{r7, pc}
	...

08005d04 <HAL_TIM_Base_Start_IT>:
  * @brief  Starts the TIM Base generation in interrupt mode.
  * @param  htim TIM Base handle
  * @retval HAL status
  */
HAL_StatusTypeDef HAL_TIM_Base_Start_IT(TIM_HandleTypeDef *htim)
{
 8005d04:	b480      	push	{r7}
 8005d06:	b085      	sub	sp, #20
 8005d08:	af00      	add	r7, sp, #0
 8005d0a:	6078      	str	r0, [r7, #4]

  /* Check the parameters */
  assert_param(IS_TIM_INSTANCE(htim->Instance));

  /* Check the TIM state */
  if (htim->State != HAL_TIM_STATE_READY)
 8005d0c:	687b      	ldr	r3, [r7, #4]
 8005d0e:	f893 303d 	ldrb.w	r3, [r3, #61]	; 0x3d
 8005d12:	b2db      	uxtb	r3, r3
 8005d14:	2b01      	cmp	r3, #1
 8005d16:	d001      	beq.n	8005d1c <HAL_TIM_Base_Start_IT+0x18>
  {
    return HAL_ERROR;
 8005d18:	2301      	movs	r3, #1
 8005d1a:	e04e      	b.n	8005dba <HAL_TIM_Base_Start_IT+0xb6>
  }

  /* Set the TIM state */
  htim->State = HAL_TIM_STATE_BUSY;
 8005d1c:	687b      	ldr	r3, [r7, #4]
 8005d1e:	2202      	movs	r2, #2
 8005d20:	f883 203d 	strb.w	r2, [r3, #61]	; 0x3d

  /* Enable the TIM Update interrupt */
  __HAL_TIM_ENABLE_IT(htim, TIM_IT_UPDATE);
 8005d24:	687b      	ldr	r3, [r7, #4]
 8005d26:	681b      	ldr	r3, [r3, #0]
 8005d28:	68da      	ldr	r2, [r3, #12]
 8005d2a:	687b      	ldr	r3, [r7, #4]
 8005d2c:	681b      	ldr	r3, [r3, #0]
 8005d2e:	f042 0201 	orr.w	r2, r2, #1
 8005d32:	60da      	str	r2, [r3, #12]

  /* Enable the Peripheral, except in trigger mode where enable is automatically done with trigger */
  if (IS_TIM_SLAVE_INSTANCE(htim->Instance))
 8005d34:	687b      	ldr	r3, [r7, #4]
 8005d36:	681b      	ldr	r3, [r3, #0]
 8005d38:	4a23      	ldr	r2, [pc, #140]	; (8005dc8 <HAL_TIM_Base_Start_IT+0xc4>)
 8005d3a:	4293      	cmp	r3, r2
 8005d3c:	d022      	beq.n	8005d84 <HAL_TIM_Base_Start_IT+0x80>
 8005d3e:	687b      	ldr	r3, [r7, #4]
 8005d40:	681b      	ldr	r3, [r3, #0]
 8005d42:	f1b3 4f80 	cmp.w	r3, #1073741824	; 0x40000000
 8005d46:	d01d      	beq.n	8005d84 <HAL_TIM_Base_Start_IT+0x80>
 8005d48:	687b      	ldr	r3, [r7, #4]
 8005d4a:	681b      	ldr	r3, [r3, #0]
 8005d4c:	4a1f      	ldr	r2, [pc, #124]	; (8005dcc <HAL_TIM_Base_Start_IT+0xc8>)
 8005d4e:	4293      	cmp	r3, r2
 8005d50:	d018      	beq.n	8005d84 <HAL_TIM_Base_Start_IT+0x80>
 8005d52:	687b      	ldr	r3, [r7, #4]
 8005d54:	681b      	ldr	r3, [r3, #0]
 8005d56:	4a1e      	ldr	r2, [pc, #120]	; (8005dd0 <HAL_TIM_Base_Start_IT+0xcc>)
 8005d58:	4293      	cmp	r3, r2
 8005d5a:	d013      	beq.n	8005d84 <HAL_TIM_Base_Start_IT+0x80>
 8005d5c:	687b      	ldr	r3, [r7, #4]
 8005d5e:	681b      	ldr	r3, [r3, #0]
 8005d60:	4a1c      	ldr	r2, [pc, #112]	; (8005dd4 <HAL_TIM_Base_Start_IT+0xd0>)
 8005d62:	4293      	cmp	r3, r2
 8005d64:	d00e      	beq.n	8005d84 <HAL_TIM_Base_Start_IT+0x80>
 8005d66:	687b      	ldr	r3, [r7, #4]
 8005d68:	681b      	ldr	r3, [r3, #0]
 8005d6a:	4a1b      	ldr	r2, [pc, #108]	; (8005dd8 <HAL_TIM_Base_Start_IT+0xd4>)
 8005d6c:	4293      	cmp	r3, r2
 8005d6e:	d009      	beq.n	8005d84 <HAL_TIM_Base_Start_IT+0x80>
 8005d70:	687b      	ldr	r3, [r7, #4]
 8005d72:	681b      	ldr	r3, [r3, #0]
 8005d74:	4a19      	ldr	r2, [pc, #100]	; (8005ddc <HAL_TIM_Base_Start_IT+0xd8>)
 8005d76:	4293      	cmp	r3, r2
 8005d78:	d004      	beq.n	8005d84 <HAL_TIM_Base_Start_IT+0x80>
 8005d7a:	687b      	ldr	r3, [r7, #4]
 8005d7c:	681b      	ldr	r3, [r3, #0]
 8005d7e:	4a18      	ldr	r2, [pc, #96]	; (8005de0 <HAL_TIM_Base_Start_IT+0xdc>)
 8005d80:	4293      	cmp	r3, r2
 8005d82:	d111      	bne.n	8005da8 <HAL_TIM_Base_Start_IT+0xa4>
  {
    tmpsmcr = htim->Instance->SMCR & TIM_SMCR_SMS;
 8005d84:	687b      	ldr	r3, [r7, #4]
 8005d86:	681b      	ldr	r3, [r3, #0]
 8005d88:	689b      	ldr	r3, [r3, #8]
 8005d8a:	f003 0307 	and.w	r3, r3, #7
 8005d8e:	60fb      	str	r3, [r7, #12]
    if (!IS_TIM_SLAVEMODE_TRIGGER_ENABLED(tmpsmcr))
 8005d90:	68fb      	ldr	r3, [r7, #12]
 8005d92:	2b06      	cmp	r3, #6
 8005d94:	d010      	beq.n	8005db8 <HAL_TIM_Base_Start_IT+0xb4>
    {
      __HAL_TIM_ENABLE(htim);
 8005d96:	687b      	ldr	r3, [r7, #4]
 8005d98:	681b      	ldr	r3, [r3, #0]
 8005d9a:	681a      	ldr	r2, [r3, #0]
 8005d9c:	687b      	ldr	r3, [r7, #4]
 8005d9e:	681b      	ldr	r3, [r3, #0]
 8005da0:	f042 0201 	orr.w	r2, r2, #1
 8005da4:	601a      	str	r2, [r3, #0]
    if (!IS_TIM_SLAVEMODE_TRIGGER_ENABLED(tmpsmcr))
 8005da6:	e007      	b.n	8005db8 <HAL_TIM_Base_Start_IT+0xb4>
    }
  }
  else
  {
    __HAL_TIM_ENABLE(htim);
 8005da8:	687b      	ldr	r3, [r7, #4]
 8005daa:	681b      	ldr	r3, [r3, #0]
 8005dac:	681a      	ldr	r2, [r3, #0]
 8005dae:	687b      	ldr	r3, [r7, #4]
 8005db0:	681b      	ldr	r3, [r3, #0]
 8005db2:	f042 0201 	orr.w	r2, r2, #1
 8005db6:	601a      	str	r2, [r3, #0]
  }

  /* Return function status */
  return HAL_OK;
 8005db8:	2300      	movs	r3, #0
}
 8005dba:	4618      	mov	r0, r3
 8005dbc:	3714      	adds	r7, #20
 8005dbe:	46bd      	mov	sp, r7
 8005dc0:	f85d 7b04 	ldr.w	r7, [sp], #4
 8005dc4:	4770      	bx	lr
 8005dc6:	bf00      	nop
 8005dc8:	40010000 	.word	0x40010000
 8005dcc:	40000400 	.word	0x40000400
 8005dd0:	40000800 	.word	0x40000800
 8005dd4:	40000c00 	.word	0x40000c00
 8005dd8:	40010400 	.word	0x40010400
 8005ddc:	40014000 	.word	0x40014000
 8005de0:	40001800 	.word	0x40001800

08005de4 <HAL_TIM_IRQHandler>:
  * @brief  This function handles TIM interrupts requests.
  * @param  htim TIM  handle
  * @retval None
  */
void HAL_TIM_IRQHandler(TIM_HandleTypeDef *htim)
{
 8005de4:	b580      	push	{r7, lr}
 8005de6:	b084      	sub	sp, #16
 8005de8:	af00      	add	r7, sp, #0
 8005dea:	6078      	str	r0, [r7, #4]
  uint32_t itsource = htim->Instance->DIER;
 8005dec:	687b      	ldr	r3, [r7, #4]
 8005dee:	681b      	ldr	r3, [r3, #0]
 8005df0:	68db      	ldr	r3, [r3, #12]
 8005df2:	60fb      	str	r3, [r7, #12]
  uint32_t itflag   = htim->Instance->SR;
 8005df4:	687b      	ldr	r3, [r7, #4]
 8005df6:	681b      	ldr	r3, [r3, #0]
 8005df8:	691b      	ldr	r3, [r3, #16]
 8005dfa:	60bb      	str	r3, [r7, #8]

  /* Capture compare 1 event */
  if ((itflag & (TIM_FLAG_CC1)) == (TIM_FLAG_CC1))
 8005dfc:	68bb      	ldr	r3, [r7, #8]
 8005dfe:	f003 0302 	and.w	r3, r3, #2
 8005e02:	2b00      	cmp	r3, #0
 8005e04:	d020      	beq.n	8005e48 <HAL_TIM_IRQHandler+0x64>
  {
    if ((itsource & (TIM_IT_CC1)) == (TIM_IT_CC1))
 8005e06:	68fb      	ldr	r3, [r7, #12]
 8005e08:	f003 0302 	and.w	r3, r3, #2
 8005e0c:	2b00      	cmp	r3, #0
 8005e0e:	d01b      	beq.n	8005e48 <HAL_TIM_IRQHandler+0x64>
    {
      {
        __HAL_TIM_CLEAR_FLAG(htim, TIM_FLAG_CC1);
 8005e10:	687b      	ldr	r3, [r7, #4]
 8005e12:	681b      	ldr	r3, [r3, #0]
 8005e14:	f06f 0202 	mvn.w	r2, #2
 8005e18:	611a      	str	r2, [r3, #16]
        htim->Channel = HAL_TIM_ACTIVE_CHANNEL_1;
 8005e1a:	687b      	ldr	r3, [r7, #4]
 8005e1c:	2201      	movs	r2, #1
 8005e1e:	771a      	strb	r2, [r3, #28]

        /* Input capture event */
        if ((htim->Instance->CCMR1 & TIM_CCMR1_CC1S) != 0x00U)
 8005e20:	687b      	ldr	r3, [r7, #4]
 8005e22:	681b      	ldr	r3, [r3, #0]
 8005e24:	699b      	ldr	r3, [r3, #24]
 8005e26:	f003 0303 	and.w	r3, r3, #3
 8005e2a:	2b00      	cmp	r3, #0
 8005e2c:	d003      	beq.n	8005e36 <HAL_TIM_IRQHandler+0x52>
        {
#if (USE_HAL_TIM_REGISTER_CALLBACKS == 1)
          htim->IC_CaptureCallback(htim);
#else
          HAL_TIM_IC_CaptureCallback(htim);
 8005e2e:	6878      	ldr	r0, [r7, #4]
 8005e30:	f000 f8dc 	bl	8005fec <HAL_TIM_IC_CaptureCallback>
 8005e34:	e005      	b.n	8005e42 <HAL_TIM_IRQHandler+0x5e>
        {
#if (USE_HAL_TIM_REGISTER_CALLBACKS == 1)
          htim->OC_DelayElapsedCallback(htim);
          htim->PWM_PulseFinishedCallback(htim);
#else
          HAL_TIM_OC_DelayElapsedCallback(htim);
 8005e36:	6878      	ldr	r0, [r7, #4]
 8005e38:	f000 f8ce 	bl	8005fd8 <HAL_TIM_OC_DelayElapsedCallback>
          HAL_TIM_PWM_PulseFinishedCallback(htim);
 8005e3c:	6878      	ldr	r0, [r7, #4]
 8005e3e:	f000 f8df 	bl	8006000 <HAL_TIM_PWM_PulseFinishedCallback>
#endif /* USE_HAL_TIM_REGISTER_CALLBACKS */
        }
        htim->Channel = HAL_TIM_ACTIVE_CHANNEL_CLEARED;
 8005e42:	687b      	ldr	r3, [r7, #4]
 8005e44:	2200      	movs	r2, #0
 8005e46:	771a      	strb	r2, [r3, #28]
      }
    }
  }
  /* Capture compare 2 event */
  if ((itflag & (TIM_FLAG_CC2)) == (TIM_FLAG_CC2))
 8005e48:	68bb      	ldr	r3, [r7, #8]
 8005e4a:	f003 0304 	and.w	r3, r3, #4
 8005e4e:	2b00      	cmp	r3, #0
 8005e50:	d020      	beq.n	8005e94 <HAL_TIM_IRQHandler+0xb0>
  {
    if ((itsource & (TIM_IT_CC2)) == (TIM_IT_CC2))
 8005e52:	68fb      	ldr	r3, [r7, #12]
 8005e54:	f003 0304 	and.w	r3, r3, #4
 8005e58:	2b00      	cmp	r3, #0
 8005e5a:	d01b      	beq.n	8005e94 <HAL_TIM_IRQHandler+0xb0>
    {
      __HAL_TIM_CLEAR_FLAG(htim, TIM_FLAG_CC2);
 8005e5c:	687b      	ldr	r3, [r7, #4]
 8005e5e:	681b      	ldr	r3, [r3, #0]
 8005e60:	f06f 0204 	mvn.w	r2, #4
 8005e64:	611a      	str	r2, [r3, #16]
      htim->Channel = HAL_TIM_ACTIVE_CHANNEL_2;
 8005e66:	687b      	ldr	r3, [r7, #4]
 8005e68:	2202      	movs	r2, #2
 8005e6a:	771a      	strb	r2, [r3, #28]
      /* Input capture event */
      if ((htim->Instance->CCMR1 & TIM_CCMR1_CC2S) != 0x00U)
 8005e6c:	687b      	ldr	r3, [r7, #4]
 8005e6e:	681b      	ldr	r3, [r3, #0]
 8005e70:	699b      	ldr	r3, [r3, #24]
 8005e72:	f403 7340 	and.w	r3, r3, #768	; 0x300
 8005e76:	2b00      	cmp	r3, #0
 8005e78:	d003      	beq.n	8005e82 <HAL_TIM_IRQHandler+0x9e>
      {
#if (USE_HAL_TIM_REGISTER_CALLBACKS == 1)
        htim->IC_CaptureCallback(htim);
#else
        HAL_TIM_IC_CaptureCallback(htim);
 8005e7a:	6878      	ldr	r0, [r7, #4]
 8005e7c:	f000 f8b6 	bl	8005fec <HAL_TIM_IC_CaptureCallback>
 8005e80:	e005      	b.n	8005e8e <HAL_TIM_IRQHandler+0xaa>
      {
#if (USE_HAL_TIM_REGISTER_CALLBACKS == 1)
        htim->OC_DelayElapsedCallback(htim);
        htim->PWM_PulseFinishedCallback(htim);
#else
        HAL_TIM_OC_DelayElapsedCallback(htim);
 8005e82:	6878      	ldr	r0, [r7, #4]
 8005e84:	f000 f8a8 	bl	8005fd8 <HAL_TIM_OC_DelayElapsedCallback>
        HAL_TIM_PWM_PulseFinishedCallback(htim);
 8005e88:	6878      	ldr	r0, [r7, #4]
 8005e8a:	f000 f8b9 	bl	8006000 <HAL_TIM_PWM_PulseFinishedCallback>
#endif /* USE_HAL_TIM_REGISTER_CALLBACKS */
      }
      htim->Channel = HAL_TIM_ACTIVE_CHANNEL_CLEARED;
 8005e8e:	687b      	ldr	r3, [r7, #4]
 8005e90:	2200      	movs	r2, #0
 8005e92:	771a      	strb	r2, [r3, #28]
    }
  }
  /* Capture compare 3 event */
  if ((itflag & (TIM_FLAG_CC3)) == (TIM_FLAG_CC3))
 8005e94:	68bb      	ldr	r3, [r7, #8]
 8005e96:	f003 0308 	and.w	r3, r3, #8
 8005e9a:	2b00      	cmp	r3, #0
 8005e9c:	d020      	beq.n	8005ee0 <HAL_TIM_IRQHandler+0xfc>
  {
    if ((itsource & (TIM_IT_CC3)) == (TIM_IT_CC3))
 8005e9e:	68fb      	ldr	r3, [r7, #12]
 8005ea0:	f003 0308 	and.w	r3, r3, #8
 8005ea4:	2b00      	cmp	r3, #0
 8005ea6:	d01b      	beq.n	8005ee0 <HAL_TIM_IRQHandler+0xfc>
    {
      __HAL_TIM_CLEAR_FLAG(htim, TIM_FLAG_CC3);
 8005ea8:	687b      	ldr	r3, [r7, #4]
 8005eaa:	681b      	ldr	r3, [r3, #0]
 8005eac:	f06f 0208 	mvn.w	r2, #8
 8005eb0:	611a      	str	r2, [r3, #16]
      htim->Channel = HAL_TIM_ACTIVE_CHANNEL_3;
 8005eb2:	687b      	ldr	r3, [r7, #4]
 8005eb4:	2204      	movs	r2, #4
 8005eb6:	771a      	strb	r2, [r3, #28]
      /* Input capture event */
      if ((htim->Instance->CCMR2 & TIM_CCMR2_CC3S) != 0x00U)
 8005eb8:	687b      	ldr	r3, [r7, #4]
 8005eba:	681b      	ldr	r3, [r3, #0]
 8005ebc:	69db      	ldr	r3, [r3, #28]
 8005ebe:	f003 0303 	and.w	r3, r3, #3
 8005ec2:	2b00      	cmp	r3, #0
 8005ec4:	d003      	beq.n	8005ece <HAL_TIM_IRQHandler+0xea>
      {
#if (USE_HAL_TIM_REGISTER_CALLBACKS == 1)
        htim->IC_CaptureCallback(htim);
#else
        HAL_TIM_IC_CaptureCallback(htim);
 8005ec6:	6878      	ldr	r0, [r7, #4]
 8005ec8:	f000 f890 	bl	8005fec <HAL_TIM_IC_CaptureCallback>
 8005ecc:	e005      	b.n	8005eda <HAL_TIM_IRQHandler+0xf6>
      {
#if (USE_HAL_TIM_REGISTER_CALLBACKS == 1)
        htim->OC_DelayElapsedCallback(htim);
        htim->PWM_PulseFinishedCallback(htim);
#else
        HAL_TIM_OC_DelayElapsedCallback(htim);
 8005ece:	6878      	ldr	r0, [r7, #4]
 8005ed0:	f000 f882 	bl	8005fd8 <HAL_TIM_OC_DelayElapsedCallback>
        HAL_TIM_PWM_PulseFinishedCallback(htim);
 8005ed4:	6878      	ldr	r0, [r7, #4]
 8005ed6:	f000 f893 	bl	8006000 <HAL_TIM_PWM_PulseFinishedCallback>
#endif /* USE_HAL_TIM_REGISTER_CALLBACKS */
      }
      htim->Channel = HAL_TIM_ACTIVE_CHANNEL_CLEARED;
 8005eda:	687b      	ldr	r3, [r7, #4]
 8005edc:	2200      	movs	r2, #0
 8005ede:	771a      	strb	r2, [r3, #28]
    }
  }
  /* Capture compare 4 event */
  if ((itflag & (TIM_FLAG_CC4)) == (TIM_FLAG_CC4))
 8005ee0:	68bb      	ldr	r3, [r7, #8]
 8005ee2:	f003 0310 	and.w	r3, r3, #16
 8005ee6:	2b00      	cmp	r3, #0
 8005ee8:	d020      	beq.n	8005f2c <HAL_TIM_IRQHandler+0x148>
  {
    if ((itsource & (TIM_IT_CC4)) == (TIM_IT_CC4))
 8005eea:	68fb      	ldr	r3, [r7, #12]
 8005eec:	f003 0310 	and.w	r3, r3, #16
 8005ef0:	2b00      	cmp	r3, #0
 8005ef2:	d01b      	beq.n	8005f2c <HAL_TIM_IRQHandler+0x148>
    {
      __HAL_TIM_CLEAR_FLAG(htim, TIM_FLAG_CC4);
 8005ef4:	687b      	ldr	r3, [r7, #4]
 8005ef6:	681b      	ldr	r3, [r3, #0]
 8005ef8:	f06f 0210 	mvn.w	r2, #16
 8005efc:	611a      	str	r2, [r3, #16]
      htim->Channel = HAL_TIM_ACTIVE_CHANNEL_4;
 8005efe:	687b      	ldr	r3, [r7, #4]
 8005f00:	2208      	movs	r2, #8
 8005f02:	771a      	strb	r2, [r3, #28]
      /* Input capture event */
      if ((htim->Instance->CCMR2 & TIM_CCMR2_CC4S) != 0x00U)
 8005f04:	687b      	ldr	r3, [r7, #4]
 8005f06:	681b      	ldr	r3, [r3, #0]
 8005f08:	69db      	ldr	r3, [r3, #28]
 8005f0a:	f403 7340 	and.w	r3, r3, #768	; 0x300
 8005f0e:	2b00      	cmp	r3, #0
 8005f10:	d003      	beq.n	8005f1a <HAL_TIM_IRQHandler+0x136>
      {
#if (USE_HAL_TIM_REGISTER_CALLBACKS == 1)
        htim->IC_CaptureCallback(htim);
#else
        HAL_TIM_IC_CaptureCallback(htim);
 8005f12:	6878      	ldr	r0, [r7, #4]
 8005f14:	f000 f86a 	bl	8005fec <HAL_TIM_IC_CaptureCallback>
 8005f18:	e005      	b.n	8005f26 <HAL_TIM_IRQHandler+0x142>
      {
#if (USE_HAL_TIM_REGISTER_CALLBACKS == 1)
        htim->OC_DelayElapsedCallback(htim);
        htim->PWM_PulseFinishedCallback(htim);
#else
        HAL_TIM_OC_DelayElapsedCallback(htim);
 8005f1a:	6878      	ldr	r0, [r7, #4]
 8005f1c:	f000 f85c 	bl	8005fd8 <HAL_TIM_OC_DelayElapsedCallback>
        HAL_TIM_PWM_PulseFinishedCallback(htim);
 8005f20:	6878      	ldr	r0, [r7, #4]
 8005f22:	f000 f86d 	bl	8006000 <HAL_TIM_PWM_PulseFinishedCallback>
#endif /* USE_HAL_TIM_REGISTER_CALLBACKS */
      }
      htim->Channel = HAL_TIM_ACTIVE_CHANNEL_CLEARED;
 8005f26:	687b      	ldr	r3, [r7, #4]
 8005f28:	2200      	movs	r2, #0
 8005f2a:	771a      	strb	r2, [r3, #28]
    }
  }
  /* TIM Update event */
  if ((itflag & (TIM_FLAG_UPDATE)) == (TIM_FLAG_UPDATE))
 8005f2c:	68bb      	ldr	r3, [r7, #8]
 8005f2e:	f003 0301 	and.w	r3, r3, #1
 8005f32:	2b00      	cmp	r3, #0
 8005f34:	d00c      	beq.n	8005f50 <HAL_TIM_IRQHandler+0x16c>
  {
    if ((itsource & (TIM_IT_UPDATE)) == (TIM_IT_UPDATE))
 8005f36:	68fb      	ldr	r3, [r7, #12]
 8005f38:	f003 0301 	and.w	r3, r3, #1
 8005f3c:	2b00      	cmp	r3, #0
 8005f3e:	d007      	beq.n	8005f50 <HAL_TIM_IRQHandler+0x16c>
    {
      __HAL_TIM_CLEAR_FLAG(htim, TIM_FLAG_UPDATE);
 8005f40:	687b      	ldr	r3, [r7, #4]
 8005f42:	681b      	ldr	r3, [r3, #0]
 8005f44:	f06f 0201 	mvn.w	r2, #1
 8005f48:	611a      	str	r2, [r3, #16]
#if (USE_HAL_TIM_REGISTER_CALLBACKS == 1)
      htim->PeriodElapsedCallback(htim);
#else
      HAL_TIM_PeriodElapsedCallback(htim);
 8005f4a:	6878      	ldr	r0, [r7, #4]
 8005f4c:	f000 f83a 	bl	8005fc4 <HAL_TIM_PeriodElapsedCallback>
#endif /* USE_HAL_TIM_REGISTER_CALLBACKS */
    }
  }
  /* TIM Break input event */
  if ((itflag & (TIM_FLAG_BREAK)) == (TIM_FLAG_BREAK))
 8005f50:	68bb      	ldr	r3, [r7, #8]
 8005f52:	f003 0380 	and.w	r3, r3, #128	; 0x80
 8005f56:	2b00      	cmp	r3, #0
 8005f58:	d00c      	beq.n	8005f74 <HAL_TIM_IRQHandler+0x190>
  {
    if ((itsource & (TIM_IT_BREAK)) == (TIM_IT_BREAK))
 8005f5a:	68fb      	ldr	r3, [r7, #12]
 8005f5c:	f003 0380 	and.w	r3, r3, #128	; 0x80
 8005f60:	2b00      	cmp	r3, #0
 8005f62:	d007      	beq.n	8005f74 <HAL_TIM_IRQHandler+0x190>
    {
      __HAL_TIM_CLEAR_FLAG(htim, TIM_FLAG_BREAK);
 8005f64:	687b      	ldr	r3, [r7, #4]
 8005f66:	681b      	ldr	r3, [r3, #0]
 8005f68:	f06f 0280 	mvn.w	r2, #128	; 0x80
 8005f6c:	611a      	str	r2, [r3, #16]
#if (USE_HAL_TIM_REGISTER_CALLBACKS == 1)
      htim->BreakCallback(htim);
#else
      HAL_TIMEx_BreakCallback(htim);
 8005f6e:	6878      	ldr	r0, [r7, #4]
 8005f70:	f000 f98c 	bl	800628c <HAL_TIMEx_BreakCallback>
#endif /* USE_HAL_TIM_REGISTER_CALLBACKS */
    }
  }
  /* TIM Trigger detection event */
  if ((itflag & (TIM_FLAG_TRIGGER)) == (TIM_FLAG_TRIGGER))
 8005f74:	68bb      	ldr	r3, [r7, #8]
 8005f76:	f003 0340 	and.w	r3, r3, #64	; 0x40
 8005f7a:	2b00      	cmp	r3, #0
 8005f7c:	d00c      	beq.n	8005f98 <HAL_TIM_IRQHandler+0x1b4>
  {
    if ((itsource & (TIM_IT_TRIGGER)) == (TIM_IT_TRIGGER))
 8005f7e:	68fb      	ldr	r3, [r7, #12]
 8005f80:	f003 0340 	and.w	r3, r3, #64	; 0x40
 8005f84:	2b00      	cmp	r3, #0
 8005f86:	d007      	beq.n	8005f98 <HAL_TIM_IRQHandler+0x1b4>
    {
      __HAL_TIM_CLEAR_FLAG(htim, TIM_FLAG_TRIGGER);
 8005f88:	687b      	ldr	r3, [r7, #4]
 8005f8a:	681b      	ldr	r3, [r3, #0]
 8005f8c:	f06f 0240 	mvn.w	r2, #64	; 0x40
 8005f90:	611a      	str	r2, [r3, #16]
#if (USE_HAL_TIM_REGISTER_CALLBACKS == 1)
      htim->TriggerCallback(htim);
#else
      HAL_TIM_TriggerCallback(htim);
 8005f92:	6878      	ldr	r0, [r7, #4]
 8005f94:	f000 f83e 	bl	8006014 <HAL_TIM_TriggerCallback>
#endif /* USE_HAL_TIM_REGISTER_CALLBACKS */
    }
  }
  /* TIM commutation event */
  if ((itflag & (TIM_FLAG_COM)) == (TIM_FLAG_COM))
 8005f98:	68bb      	ldr	r3, [r7, #8]
 8005f9a:	f003 0320 	and.w	r3, r3, #32
 8005f9e:	2b00      	cmp	r3, #0
 8005fa0:	d00c      	beq.n	8005fbc <HAL_TIM_IRQHandler+0x1d8>
  {
    if ((itsource & (TIM_IT_COM)) == (TIM_IT_COM))
 8005fa2:	68fb      	ldr	r3, [r7, #12]
 8005fa4:	f003 0320 	and.w	r3, r3, #32
 8005fa8:	2b00      	cmp	r3, #0
 8005faa:	d007      	beq.n	8005fbc <HAL_TIM_IRQHandler+0x1d8>
    {
      __HAL_TIM_CLEAR_FLAG(htim, TIM_FLAG_COM);
 8005fac:	687b      	ldr	r3, [r7, #4]
 8005fae:	681b      	ldr	r3, [r3, #0]
 8005fb0:	f06f 0220 	mvn.w	r2, #32
 8005fb4:	611a      	str	r2, [r3, #16]
#if (USE_HAL_TIM_REGISTER_CALLBACKS == 1)
      htim->CommutationCallback(htim);
#else
      HAL_TIMEx_CommutCallback(htim);
 8005fb6:	6878      	ldr	r0, [r7, #4]
 8005fb8:	f000 f95e 	bl	8006278 <HAL_TIMEx_CommutCallback>
#endif /* USE_HAL_TIM_REGISTER_CALLBACKS */
    }
  }
}
 8005fbc:	bf00      	nop
 8005fbe:	3710      	adds	r7, #16
 8005fc0:	46bd      	mov	sp, r7
 8005fc2:	bd80      	pop	{r7, pc}

08005fc4 <HAL_TIM_PeriodElapsedCallback>:
  * @brief  Period elapsed callback in non-blocking mode
  * @param  htim TIM handle
  * @retval None
  */
__weak void HAL_TIM_PeriodElapsedCallback(TIM_HandleTypeDef *htim)
{
 8005fc4:	b480      	push	{r7}
 8005fc6:	b083      	sub	sp, #12
 8005fc8:	af00      	add	r7, sp, #0
 8005fca:	6078      	str	r0, [r7, #4]
  UNUSED(htim);

  /* NOTE : This function should not be modified, when the callback is needed,
            the HAL_TIM_PeriodElapsedCallback could be implemented in the user file
   */
}
 8005fcc:	bf00      	nop
 8005fce:	370c      	adds	r7, #12
 8005fd0:	46bd      	mov	sp, r7
 8005fd2:	f85d 7b04 	ldr.w	r7, [sp], #4
 8005fd6:	4770      	bx	lr

08005fd8 <HAL_TIM_OC_DelayElapsedCallback>:
  * @brief  Output Compare callback in non-blocking mode
  * @param  htim TIM OC handle
  * @retval None
  */
__weak void HAL_TIM_OC_DelayElapsedCallback(TIM_HandleTypeDef *htim)
{
 8005fd8:	b480      	push	{r7}
 8005fda:	b083      	sub	sp, #12
 8005fdc:	af00      	add	r7, sp, #0
 8005fde:	6078      	str	r0, [r7, #4]
  UNUSED(htim);

  /* NOTE : This function should not be modified, when the callback is needed,
            the HAL_TIM_OC_DelayElapsedCallback could be implemented in the user file
   */
}
 8005fe0:	bf00      	nop
 8005fe2:	370c      	adds	r7, #12
 8005fe4:	46bd      	mov	sp, r7
 8005fe6:	f85d 7b04 	ldr.w	r7, [sp], #4
 8005fea:	4770      	bx	lr

08005fec <HAL_TIM_IC_CaptureCallback>:
  * @brief  Input Capture callback in non-blocking mode
  * @param  htim TIM IC handle
  * @retval None
  */
__weak void HAL_TIM_IC_CaptureCallback(TIM_HandleTypeDef *htim)
{
 8005fec:	b480      	push	{r7}
 8005fee:	b083      	sub	sp, #12
 8005ff0:	af00      	add	r7, sp, #0
 8005ff2:	6078      	str	r0, [r7, #4]
  UNUSED(htim);

  /* NOTE : This function should not be modified, when the callback is needed,
            the HAL_TIM_IC_CaptureCallback could be implemented in the user file
   */
}
 8005ff4:	bf00      	nop
 8005ff6:	370c      	adds	r7, #12
 8005ff8:	46bd      	mov	sp, r7
 8005ffa:	f85d 7b04 	ldr.w	r7, [sp], #4
 8005ffe:	4770      	bx	lr

08006000 <HAL_TIM_PWM_PulseFinishedCallback>:
  * @brief  PWM Pulse finished callback in non-blocking mode
  * @param  htim TIM handle
  * @retval None
  */
__weak void HAL_TIM_PWM_PulseFinishedCallback(TIM_HandleTypeDef *htim)
{
 8006000:	b480      	push	{r7}
 8006002:	b083      	sub	sp, #12
 8006004:	af00      	add	r7, sp, #0
 8006006:	6078      	str	r0, [r7, #4]
  UNUSED(htim);

  /* NOTE : This function should not be modified, when the callback is needed,
            the HAL_TIM_PWM_PulseFinishedCallback could be implemented in the user file
   */
}
 8006008:	bf00      	nop
 800600a:	370c      	adds	r7, #12
 800600c:	46bd      	mov	sp, r7
 800600e:	f85d 7b04 	ldr.w	r7, [sp], #4
 8006012:	4770      	bx	lr

08006014 <HAL_TIM_TriggerCallback>:
  * @brief  Hall Trigger detection callback in non-blocking mode
  * @param  htim TIM handle
  * @retval None
  */
__weak void HAL_TIM_TriggerCallback(TIM_HandleTypeDef *htim)
{
 8006014:	b480      	push	{r7}
 8006016:	b083      	sub	sp, #12
 8006018:	af00      	add	r7, sp, #0
 800601a:	6078      	str	r0, [r7, #4]
  UNUSED(htim);

  /* NOTE : This function should not be modified, when the callback is needed,
            the HAL_TIM_TriggerCallback could be implemented in the user file
   */
}
 800601c:	bf00      	nop
 800601e:	370c      	adds	r7, #12
 8006020:	46bd      	mov	sp, r7
 8006022:	f85d 7b04 	ldr.w	r7, [sp], #4
 8006026:	4770      	bx	lr

08006028 <TIM_Base_SetConfig>:
  * @param  TIMx TIM peripheral
  * @param  Structure TIM Base configuration structure
  * @retval None
  */
void TIM_Base_SetConfig(TIM_TypeDef *TIMx, const TIM_Base_InitTypeDef *Structure)
{
 8006028:	b480      	push	{r7}
 800602a:	b085      	sub	sp, #20
 800602c:	af00      	add	r7, sp, #0
 800602e:	6078      	str	r0, [r7, #4]
 8006030:	6039      	str	r1, [r7, #0]
  uint32_t tmpcr1;
  tmpcr1 = TIMx->CR1;
 8006032:	687b      	ldr	r3, [r7, #4]
 8006034:	681b      	ldr	r3, [r3, #0]
 8006036:	60fb      	str	r3, [r7, #12]

  /* Set TIM Time Base Unit parameters ---------------------------------------*/
  if (IS_TIM_COUNTER_MODE_SELECT_INSTANCE(TIMx))
 8006038:	687b      	ldr	r3, [r7, #4]
 800603a:	4a46      	ldr	r2, [pc, #280]	; (8006154 <TIM_Base_SetConfig+0x12c>)
 800603c:	4293      	cmp	r3, r2
 800603e:	d013      	beq.n	8006068 <TIM_Base_SetConfig+0x40>
 8006040:	687b      	ldr	r3, [r7, #4]
 8006042:	f1b3 4f80 	cmp.w	r3, #1073741824	; 0x40000000
 8006046:	d00f      	beq.n	8006068 <TIM_Base_SetConfig+0x40>
 8006048:	687b      	ldr	r3, [r7, #4]
 800604a:	4a43      	ldr	r2, [pc, #268]	; (8006158 <TIM_Base_SetConfig+0x130>)
 800604c:	4293      	cmp	r3, r2
 800604e:	d00b      	beq.n	8006068 <TIM_Base_SetConfig+0x40>
 8006050:	687b      	ldr	r3, [r7, #4]
 8006052:	4a42      	ldr	r2, [pc, #264]	; (800615c <TIM_Base_SetConfig+0x134>)
 8006054:	4293      	cmp	r3, r2
 8006056:	d007      	beq.n	8006068 <TIM_Base_SetConfig+0x40>
 8006058:	687b      	ldr	r3, [r7, #4]
 800605a:	4a41      	ldr	r2, [pc, #260]	; (8006160 <TIM_Base_SetConfig+0x138>)
 800605c:	4293      	cmp	r3, r2
 800605e:	d003      	beq.n	8006068 <TIM_Base_SetConfig+0x40>
 8006060:	687b      	ldr	r3, [r7, #4]
 8006062:	4a40      	ldr	r2, [pc, #256]	; (8006164 <TIM_Base_SetConfig+0x13c>)
 8006064:	4293      	cmp	r3, r2
 8006066:	d108      	bne.n	800607a <TIM_Base_SetConfig+0x52>
  {
    /* Select the Counter Mode */
    tmpcr1 &= ~(TIM_CR1_DIR | TIM_CR1_CMS);
 8006068:	68fb      	ldr	r3, [r7, #12]
 800606a:	f023 0370 	bic.w	r3, r3, #112	; 0x70
 800606e:	60fb      	str	r3, [r7, #12]
    tmpcr1 |= Structure->CounterMode;
 8006070:	683b      	ldr	r3, [r7, #0]
 8006072:	685b      	ldr	r3, [r3, #4]
 8006074:	68fa      	ldr	r2, [r7, #12]
 8006076:	4313      	orrs	r3, r2
 8006078:	60fb      	str	r3, [r7, #12]
  }

  if (IS_TIM_CLOCK_DIVISION_INSTANCE(TIMx))
 800607a:	687b      	ldr	r3, [r7, #4]
 800607c:	4a35      	ldr	r2, [pc, #212]	; (8006154 <TIM_Base_SetConfig+0x12c>)
 800607e:	4293      	cmp	r3, r2
 8006080:	d02b      	beq.n	80060da <TIM_Base_SetConfig+0xb2>
 8006082:	687b      	ldr	r3, [r7, #4]
 8006084:	f1b3 4f80 	cmp.w	r3, #1073741824	; 0x40000000
 8006088:	d027      	beq.n	80060da <TIM_Base_SetConfig+0xb2>
 800608a:	687b      	ldr	r3, [r7, #4]
 800608c:	4a32      	ldr	r2, [pc, #200]	; (8006158 <TIM_Base_SetConfig+0x130>)
 800608e:	4293      	cmp	r3, r2
 8006090:	d023      	beq.n	80060da <TIM_Base_SetConfig+0xb2>
 8006092:	687b      	ldr	r3, [r7, #4]
 8006094:	4a31      	ldr	r2, [pc, #196]	; (800615c <TIM_Base_SetConfig+0x134>)
 8006096:	4293      	cmp	r3, r2
 8006098:	d01f      	beq.n	80060da <TIM_Base_SetConfig+0xb2>
 800609a:	687b      	ldr	r3, [r7, #4]
 800609c:	4a30      	ldr	r2, [pc, #192]	; (8006160 <TIM_Base_SetConfig+0x138>)
 800609e:	4293      	cmp	r3, r2
 80060a0:	d01b      	beq.n	80060da <TIM_Base_SetConfig+0xb2>
 80060a2:	687b      	ldr	r3, [r7, #4]
 80060a4:	4a2f      	ldr	r2, [pc, #188]	; (8006164 <TIM_Base_SetConfig+0x13c>)
 80060a6:	4293      	cmp	r3, r2
 80060a8:	d017      	beq.n	80060da <TIM_Base_SetConfig+0xb2>
 80060aa:	687b      	ldr	r3, [r7, #4]
 80060ac:	4a2e      	ldr	r2, [pc, #184]	; (8006168 <TIM_Base_SetConfig+0x140>)
 80060ae:	4293      	cmp	r3, r2
 80060b0:	d013      	beq.n	80060da <TIM_Base_SetConfig+0xb2>
 80060b2:	687b      	ldr	r3, [r7, #4]
 80060b4:	4a2d      	ldr	r2, [pc, #180]	; (800616c <TIM_Base_SetConfig+0x144>)
 80060b6:	4293      	cmp	r3, r2
 80060b8:	d00f      	beq.n	80060da <TIM_Base_SetConfig+0xb2>
 80060ba:	687b      	ldr	r3, [r7, #4]
 80060bc:	4a2c      	ldr	r2, [pc, #176]	; (8006170 <TIM_Base_SetConfig+0x148>)
 80060be:	4293      	cmp	r3, r2
 80060c0:	d00b      	beq.n	80060da <TIM_Base_SetConfig+0xb2>
 80060c2:	687b      	ldr	r3, [r7, #4]
 80060c4:	4a2b      	ldr	r2, [pc, #172]	; (8006174 <TIM_Base_SetConfig+0x14c>)
 80060c6:	4293      	cmp	r3, r2
 80060c8:	d007      	beq.n	80060da <TIM_Base_SetConfig+0xb2>
 80060ca:	687b      	ldr	r3, [r7, #4]
 80060cc:	4a2a      	ldr	r2, [pc, #168]	; (8006178 <TIM_Base_SetConfig+0x150>)
 80060ce:	4293      	cmp	r3, r2
 80060d0:	d003      	beq.n	80060da <TIM_Base_SetConfig+0xb2>
 80060d2:	687b      	ldr	r3, [r7, #4]
 80060d4:	4a29      	ldr	r2, [pc, #164]	; (800617c <TIM_Base_SetConfig+0x154>)
 80060d6:	4293      	cmp	r3, r2
 80060d8:	d108      	bne.n	80060ec <TIM_Base_SetConfig+0xc4>
  {
    /* Set the clock division */
    tmpcr1 &= ~TIM_CR1_CKD;
 80060da:	68fb      	ldr	r3, [r7, #12]
 80060dc:	f423 7340 	bic.w	r3, r3, #768	; 0x300
 80060e0:	60fb      	str	r3, [r7, #12]
    tmpcr1 |= (uint32_t)Structure->ClockDivision;
 80060e2:	683b      	ldr	r3, [r7, #0]
 80060e4:	68db      	ldr	r3, [r3, #12]
 80060e6:	68fa      	ldr	r2, [r7, #12]
 80060e8:	4313      	orrs	r3, r2
 80060ea:	60fb      	str	r3, [r7, #12]
  }

  /* Set the auto-reload preload */
  MODIFY_REG(tmpcr1, TIM_CR1_ARPE, Structure->AutoReloadPreload);
 80060ec:	68fb      	ldr	r3, [r7, #12]
 80060ee:	f023 0280 	bic.w	r2, r3, #128	; 0x80
 80060f2:	683b      	ldr	r3, [r7, #0]
 80060f4:	695b      	ldr	r3, [r3, #20]
 80060f6:	4313      	orrs	r3, r2
 80060f8:	60fb      	str	r3, [r7, #12]

  TIMx->CR1 = tmpcr1;
 80060fa:	687b      	ldr	r3, [r7, #4]
 80060fc:	68fa      	ldr	r2, [r7, #12]
 80060fe:	601a      	str	r2, [r3, #0]

  /* Set the Autoreload value */
  TIMx->ARR = (uint32_t)Structure->Period ;
 8006100:	683b      	ldr	r3, [r7, #0]
 8006102:	689a      	ldr	r2, [r3, #8]
 8006104:	687b      	ldr	r3, [r7, #4]
 8006106:	62da      	str	r2, [r3, #44]	; 0x2c

  /* Set the Prescaler value */
  TIMx->PSC = Structure->Prescaler;
 8006108:	683b      	ldr	r3, [r7, #0]
 800610a:	681a      	ldr	r2, [r3, #0]
 800610c:	687b      	ldr	r3, [r7, #4]
 800610e:	629a      	str	r2, [r3, #40]	; 0x28

  if (IS_TIM_REPETITION_COUNTER_INSTANCE(TIMx))
 8006110:	687b      	ldr	r3, [r7, #4]
 8006112:	4a10      	ldr	r2, [pc, #64]	; (8006154 <TIM_Base_SetConfig+0x12c>)
 8006114:	4293      	cmp	r3, r2
 8006116:	d003      	beq.n	8006120 <TIM_Base_SetConfig+0xf8>
 8006118:	687b      	ldr	r3, [r7, #4]
 800611a:	4a12      	ldr	r2, [pc, #72]	; (8006164 <TIM_Base_SetConfig+0x13c>)
 800611c:	4293      	cmp	r3, r2
 800611e:	d103      	bne.n	8006128 <TIM_Base_SetConfig+0x100>
  {
    /* Set the Repetition Counter value */
    TIMx->RCR = Structure->RepetitionCounter;
 8006120:	683b      	ldr	r3, [r7, #0]
 8006122:	691a      	ldr	r2, [r3, #16]
 8006124:	687b      	ldr	r3, [r7, #4]
 8006126:	631a      	str	r2, [r3, #48]	; 0x30
  }

  /* Generate an update event to reload the Prescaler
     and the repetition counter (only for advanced timer) value immediately */
  TIMx->EGR = TIM_EGR_UG;
 8006128:	687b      	ldr	r3, [r7, #4]
 800612a:	2201      	movs	r2, #1
 800612c:	615a      	str	r2, [r3, #20]

  /* Check if the update flag is set after the Update Generation, if so clear the UIF flag */
  if (HAL_IS_BIT_SET(TIMx->SR, TIM_FLAG_UPDATE))
 800612e:	687b      	ldr	r3, [r7, #4]
 8006130:	691b      	ldr	r3, [r3, #16]
 8006132:	f003 0301 	and.w	r3, r3, #1
 8006136:	2b01      	cmp	r3, #1
 8006138:	d105      	bne.n	8006146 <TIM_Base_SetConfig+0x11e>
  {
    /* Clear the update flag */
    CLEAR_BIT(TIMx->SR, TIM_FLAG_UPDATE);
 800613a:	687b      	ldr	r3, [r7, #4]
 800613c:	691b      	ldr	r3, [r3, #16]
 800613e:	f023 0201 	bic.w	r2, r3, #1
 8006142:	687b      	ldr	r3, [r7, #4]
 8006144:	611a      	str	r2, [r3, #16]
  }
}
 8006146:	bf00      	nop
 8006148:	3714      	adds	r7, #20
 800614a:	46bd      	mov	sp, r7
 800614c:	f85d 7b04 	ldr.w	r7, [sp], #4
 8006150:	4770      	bx	lr
 8006152:	bf00      	nop
 8006154:	40010000 	.word	0x40010000
 8006158:	40000400 	.word	0x40000400
 800615c:	40000800 	.word	0x40000800
 8006160:	40000c00 	.word	0x40000c00
 8006164:	40010400 	.word	0x40010400
 8006168:	40014000 	.word	0x40014000
 800616c:	40014400 	.word	0x40014400
 8006170:	40014800 	.word	0x40014800
 8006174:	40001800 	.word	0x40001800
 8006178:	40001c00 	.word	0x40001c00
 800617c:	40002000 	.word	0x40002000

08006180 <HAL_TIMEx_MasterConfigSynchronization>:
  *         mode.
  * @retval HAL status
  */
HAL_StatusTypeDef HAL_TIMEx_MasterConfigSynchronization(TIM_HandleTypeDef *htim,
                                                        const TIM_MasterConfigTypeDef *sMasterConfig)
{
 8006180:	b480      	push	{r7}
 8006182:	b085      	sub	sp, #20
 8006184:	af00      	add	r7, sp, #0
 8006186:	6078      	str	r0, [r7, #4]
 8006188:	6039      	str	r1, [r7, #0]
  assert_param(IS_TIM_MASTER_INSTANCE(htim->Instance));
  assert_param(IS_TIM_TRGO_SOURCE(sMasterConfig->MasterOutputTrigger));
  assert_param(IS_TIM_MSM_STATE(sMasterConfig->MasterSlaveMode));

  /* Check input state */
  __HAL_LOCK(htim);
 800618a:	687b      	ldr	r3, [r7, #4]
 800618c:	f893 303c 	ldrb.w	r3, [r3, #60]	; 0x3c
 8006190:	2b01      	cmp	r3, #1
 8006192:	d101      	bne.n	8006198 <HAL_TIMEx_MasterConfigSynchronization+0x18>
 8006194:	2302      	movs	r3, #2
 8006196:	e05a      	b.n	800624e <HAL_TIMEx_MasterConfigSynchronization+0xce>
 8006198:	687b      	ldr	r3, [r7, #4]
 800619a:	2201      	movs	r2, #1
 800619c:	f883 203c 	strb.w	r2, [r3, #60]	; 0x3c

  /* Change the handler state */
  htim->State = HAL_TIM_STATE_BUSY;
 80061a0:	687b      	ldr	r3, [r7, #4]
 80061a2:	2202      	movs	r2, #2
 80061a4:	f883 203d 	strb.w	r2, [r3, #61]	; 0x3d

  /* Get the TIMx CR2 register value */
  tmpcr2 = htim->Instance->CR2;
 80061a8:	687b      	ldr	r3, [r7, #4]
 80061aa:	681b      	ldr	r3, [r3, #0]
 80061ac:	685b      	ldr	r3, [r3, #4]
 80061ae:	60fb      	str	r3, [r7, #12]

  /* Get the TIMx SMCR register value */
  tmpsmcr = htim->Instance->SMCR;
 80061b0:	687b      	ldr	r3, [r7, #4]
 80061b2:	681b      	ldr	r3, [r3, #0]
 80061b4:	689b      	ldr	r3, [r3, #8]
 80061b6:	60bb      	str	r3, [r7, #8]

  /* Reset the MMS Bits */
  tmpcr2 &= ~TIM_CR2_MMS;
 80061b8:	68fb      	ldr	r3, [r7, #12]
 80061ba:	f023 0370 	bic.w	r3, r3, #112	; 0x70
 80061be:	60fb      	str	r3, [r7, #12]
  /* Select the TRGO source */
  tmpcr2 |=  sMasterConfig->MasterOutputTrigger;
 80061c0:	683b      	ldr	r3, [r7, #0]
 80061c2:	681b      	ldr	r3, [r3, #0]
 80061c4:	68fa      	ldr	r2, [r7, #12]
 80061c6:	4313      	orrs	r3, r2
 80061c8:	60fb      	str	r3, [r7, #12]

  /* Update TIMx CR2 */
  htim->Instance->CR2 = tmpcr2;
 80061ca:	687b      	ldr	r3, [r7, #4]
 80061cc:	681b      	ldr	r3, [r3, #0]
 80061ce:	68fa      	ldr	r2, [r7, #12]
 80061d0:	605a      	str	r2, [r3, #4]

  if (IS_TIM_SLAVE_INSTANCE(htim->Instance))
 80061d2:	687b      	ldr	r3, [r7, #4]
 80061d4:	681b      	ldr	r3, [r3, #0]
 80061d6:	4a21      	ldr	r2, [pc, #132]	; (800625c <HAL_TIMEx_MasterConfigSynchronization+0xdc>)
 80061d8:	4293      	cmp	r3, r2
 80061da:	d022      	beq.n	8006222 <HAL_TIMEx_MasterConfigSynchronization+0xa2>
 80061dc:	687b      	ldr	r3, [r7, #4]
 80061de:	681b      	ldr	r3, [r3, #0]
 80061e0:	f1b3 4f80 	cmp.w	r3, #1073741824	; 0x40000000
 80061e4:	d01d      	beq.n	8006222 <HAL_TIMEx_MasterConfigSynchronization+0xa2>
 80061e6:	687b      	ldr	r3, [r7, #4]
 80061e8:	681b      	ldr	r3, [r3, #0]
 80061ea:	4a1d      	ldr	r2, [pc, #116]	; (8006260 <HAL_TIMEx_MasterConfigSynchronization+0xe0>)
 80061ec:	4293      	cmp	r3, r2
 80061ee:	d018      	beq.n	8006222 <HAL_TIMEx_MasterConfigSynchronization+0xa2>
 80061f0:	687b      	ldr	r3, [r7, #4]
 80061f2:	681b      	ldr	r3, [r3, #0]
 80061f4:	4a1b      	ldr	r2, [pc, #108]	; (8006264 <HAL_TIMEx_MasterConfigSynchronization+0xe4>)
 80061f6:	4293      	cmp	r3, r2
 80061f8:	d013      	beq.n	8006222 <HAL_TIMEx_MasterConfigSynchronization+0xa2>
 80061fa:	687b      	ldr	r3, [r7, #4]
 80061fc:	681b      	ldr	r3, [r3, #0]
 80061fe:	4a1a      	ldr	r2, [pc, #104]	; (8006268 <HAL_TIMEx_MasterConfigSynchronization+0xe8>)
 8006200:	4293      	cmp	r3, r2
 8006202:	d00e      	beq.n	8006222 <HAL_TIMEx_MasterConfigSynchronization+0xa2>
 8006204:	687b      	ldr	r3, [r7, #4]
 8006206:	681b      	ldr	r3, [r3, #0]
 8006208:	4a18      	ldr	r2, [pc, #96]	; (800626c <HAL_TIMEx_MasterConfigSynchronization+0xec>)
 800620a:	4293      	cmp	r3, r2
 800620c:	d009      	beq.n	8006222 <HAL_TIMEx_MasterConfigSynchronization+0xa2>
 800620e:	687b      	ldr	r3, [r7, #4]
 8006210:	681b      	ldr	r3, [r3, #0]
 8006212:	4a17      	ldr	r2, [pc, #92]	; (8006270 <HAL_TIMEx_MasterConfigSynchronization+0xf0>)
 8006214:	4293      	cmp	r3, r2
 8006216:	d004      	beq.n	8006222 <HAL_TIMEx_MasterConfigSynchronization+0xa2>
 8006218:	687b      	ldr	r3, [r7, #4]
 800621a:	681b      	ldr	r3, [r3, #0]
 800621c:	4a15      	ldr	r2, [pc, #84]	; (8006274 <HAL_TIMEx_MasterConfigSynchronization+0xf4>)
 800621e:	4293      	cmp	r3, r2
 8006220:	d10c      	bne.n	800623c <HAL_TIMEx_MasterConfigSynchronization+0xbc>
  {
    /* Reset the MSM Bit */
    tmpsmcr &= ~TIM_SMCR_MSM;
 8006222:	68bb      	ldr	r3, [r7, #8]
 8006224:	f023 0380 	bic.w	r3, r3, #128	; 0x80
 8006228:	60bb      	str	r3, [r7, #8]
    /* Set master mode */
    tmpsmcr |= sMasterConfig->MasterSlaveMode;
 800622a:	683b      	ldr	r3, [r7, #0]
 800622c:	685b      	ldr	r3, [r3, #4]
 800622e:	68ba      	ldr	r2, [r7, #8]
 8006230:	4313      	orrs	r3, r2
 8006232:	60bb      	str	r3, [r7, #8]

    /* Update TIMx SMCR */
    htim->Instance->SMCR = tmpsmcr;
 8006234:	687b      	ldr	r3, [r7, #4]
 8006236:	681b      	ldr	r3, [r3, #0]
 8006238:	68ba      	ldr	r2, [r7, #8]
 800623a:	609a      	str	r2, [r3, #8]
  }

  /* Change the htim state */
  htim->State = HAL_TIM_STATE_READY;
 800623c:	687b      	ldr	r3, [r7, #4]
 800623e:	2201      	movs	r2, #1
 8006240:	f883 203d 	strb.w	r2, [r3, #61]	; 0x3d

  __HAL_UNLOCK(htim);
 8006244:	687b      	ldr	r3, [r7, #4]
 8006246:	2200      	movs	r2, #0
 8006248:	f883 203c 	strb.w	r2, [r3, #60]	; 0x3c

  return HAL_OK;
 800624c:	2300      	movs	r3, #0
}
 800624e:	4618      	mov	r0, r3
 8006250:	3714      	adds	r7, #20
 8006252:	46bd      	mov	sp, r7
 8006254:	f85d 7b04 	ldr.w	r7, [sp], #4
 8006258:	4770      	bx	lr
 800625a:	bf00      	nop
 800625c:	40010000 	.word	0x40010000
 8006260:	40000400 	.word	0x40000400
 8006264:	40000800 	.word	0x40000800
 8006268:	40000c00 	.word	0x40000c00
 800626c:	40010400 	.word	0x40010400
 8006270:	40014000 	.word	0x40014000
 8006274:	40001800 	.word	0x40001800

08006278 <HAL_TIMEx_CommutCallback>:
  * @brief  Commutation callback in non-blocking mode
  * @param  htim TIM handle
  * @retval None
  */
__weak void HAL_TIMEx_CommutCallback(TIM_HandleTypeDef *htim)
{
 8006278:	b480      	push	{r7}
 800627a:	b083      	sub	sp, #12
 800627c:	af00      	add	r7, sp, #0
 800627e:	6078      	str	r0, [r7, #4]
  UNUSED(htim);

  /* NOTE : This function should not be modified, when the callback is needed,
            the HAL_TIMEx_CommutCallback could be implemented in the user file
   */
}
 8006280:	bf00      	nop
 8006282:	370c      	adds	r7, #12
 8006284:	46bd      	mov	sp, r7
 8006286:	f85d 7b04 	ldr.w	r7, [sp], #4
 800628a:	4770      	bx	lr

0800628c <HAL_TIMEx_BreakCallback>:
  * @brief  Break detection callback in non-blocking mode
  * @param  htim TIM handle
  * @retval None
  */
__weak void HAL_TIMEx_BreakCallback(TIM_HandleTypeDef *htim)
{
 800628c:	b480      	push	{r7}
 800628e:	b083      	sub	sp, #12
 8006290:	af00      	add	r7, sp, #0
 8006292:	6078      	str	r0, [r7, #4]
  UNUSED(htim);

  /* NOTE : This function should not be modified, when the callback is needed,
            the HAL_TIMEx_BreakCallback could be implemented in the user file
   */
}
 8006294:	bf00      	nop
 8006296:	370c      	adds	r7, #12
 8006298:	46bd      	mov	sp, r7
 800629a:	f85d 7b04 	ldr.w	r7, [sp], #4
 800629e:	4770      	bx	lr

080062a0 <HAL_UART_Init>:
  * @param  huart  Pointer to a UART_HandleTypeDef structure that contains
  *                the configuration information for the specified UART module.
  * @retval HAL status
  */
HAL_StatusTypeDef HAL_UART_Init(UART_HandleTypeDef *huart)
{
 80062a0:	b580      	push	{r7, lr}
 80062a2:	b082      	sub	sp, #8
 80062a4:	af00      	add	r7, sp, #0
 80062a6:	6078      	str	r0, [r7, #4]
  /* Check the UART handle allocation */
  if (huart == NULL)
 80062a8:	687b      	ldr	r3, [r7, #4]
 80062aa:	2b00      	cmp	r3, #0
 80062ac:	d101      	bne.n	80062b2 <HAL_UART_Init+0x12>
  {
    return HAL_ERROR;
 80062ae:	2301      	movs	r3, #1
 80062b0:	e042      	b.n	8006338 <HAL_UART_Init+0x98>
    assert_param(IS_UART_INSTANCE(huart->Instance));
  }
  assert_param(IS_UART_WORD_LENGTH(huart->Init.WordLength));
  assert_param(IS_UART_OVERSAMPLING(huart->Init.OverSampling));

  if (huart->gState == HAL_UART_STATE_RESET)
 80062b2:	687b      	ldr	r3, [r7, #4]
 80062b4:	f893 3041 	ldrb.w	r3, [r3, #65]	; 0x41
 80062b8:	b2db      	uxtb	r3, r3
 80062ba:	2b00      	cmp	r3, #0
 80062bc:	d106      	bne.n	80062cc <HAL_UART_Init+0x2c>
  {
    /* Allocate lock resource and initialize it */
    huart->Lock = HAL_UNLOCKED;
 80062be:	687b      	ldr	r3, [r7, #4]
 80062c0:	2200      	movs	r2, #0
 80062c2:	f883 2040 	strb.w	r2, [r3, #64]	; 0x40

    /* Init the low level hardware */
    huart->MspInitCallback(huart);
#else
    /* Init the low level hardware : GPIO, CLOCK */
    HAL_UART_MspInit(huart);
 80062c6:	6878      	ldr	r0, [r7, #4]
 80062c8:	f7fc f824 	bl	8002314 <HAL_UART_MspInit>
#endif /* (USE_HAL_UART_REGISTER_CALLBACKS) */
  }

  huart->gState = HAL_UART_STATE_BUSY;
 80062cc:	687b      	ldr	r3, [r7, #4]
 80062ce:	2224      	movs	r2, #36	; 0x24
 80062d0:	f883 2041 	strb.w	r2, [r3, #65]	; 0x41

  /* Disable the peripheral */
  __HAL_UART_DISABLE(huart);
 80062d4:	687b      	ldr	r3, [r7, #4]
 80062d6:	681b      	ldr	r3, [r3, #0]
 80062d8:	68da      	ldr	r2, [r3, #12]
 80062da:	687b      	ldr	r3, [r7, #4]
 80062dc:	681b      	ldr	r3, [r3, #0]
 80062de:	f422 5200 	bic.w	r2, r2, #8192	; 0x2000
 80062e2:	60da      	str	r2, [r3, #12]

  /* Set the UART Communication parameters */
  UART_SetConfig(huart);
 80062e4:	6878      	ldr	r0, [r7, #4]
 80062e6:	f000 fdbd 	bl	8006e64 <UART_SetConfig>

  /* In asynchronous mode, the following bits must be kept cleared:
     - LINEN and CLKEN bits in the USART_CR2 register,
     - SCEN, HDSEL and IREN  bits in the USART_CR3 register.*/
  CLEAR_BIT(huart->Instance->CR2, (USART_CR2_LINEN | USART_CR2_CLKEN));
 80062ea:	687b      	ldr	r3, [r7, #4]
 80062ec:	681b      	ldr	r3, [r3, #0]
 80062ee:	691a      	ldr	r2, [r3, #16]
 80062f0:	687b      	ldr	r3, [r7, #4]
 80062f2:	681b      	ldr	r3, [r3, #0]
 80062f4:	f422 4290 	bic.w	r2, r2, #18432	; 0x4800
 80062f8:	611a      	str	r2, [r3, #16]
  CLEAR_BIT(huart->Instance->CR3, (USART_CR3_SCEN | USART_CR3_HDSEL | USART_CR3_IREN));
 80062fa:	687b      	ldr	r3, [r7, #4]
 80062fc:	681b      	ldr	r3, [r3, #0]
 80062fe:	695a      	ldr	r2, [r3, #20]
 8006300:	687b      	ldr	r3, [r7, #4]
 8006302:	681b      	ldr	r3, [r3, #0]
 8006304:	f022 022a 	bic.w	r2, r2, #42	; 0x2a
 8006308:	615a      	str	r2, [r3, #20]

  /* Enable the peripheral */
  __HAL_UART_ENABLE(huart);
 800630a:	687b      	ldr	r3, [r7, #4]
 800630c:	681b      	ldr	r3, [r3, #0]
 800630e:	68da      	ldr	r2, [r3, #12]
 8006310:	687b      	ldr	r3, [r7, #4]
 8006312:	681b      	ldr	r3, [r3, #0]
 8006314:	f442 5200 	orr.w	r2, r2, #8192	; 0x2000
 8006318:	60da      	str	r2, [r3, #12]

  /* Initialize the UART state */
  huart->ErrorCode = HAL_UART_ERROR_NONE;
 800631a:	687b      	ldr	r3, [r7, #4]
 800631c:	2200      	movs	r2, #0
 800631e:	645a      	str	r2, [r3, #68]	; 0x44
  huart->gState = HAL_UART_STATE_READY;
 8006320:	687b      	ldr	r3, [r7, #4]
 8006322:	2220      	movs	r2, #32
 8006324:	f883 2041 	strb.w	r2, [r3, #65]	; 0x41
  huart->RxState = HAL_UART_STATE_READY;
 8006328:	687b      	ldr	r3, [r7, #4]
 800632a:	2220      	movs	r2, #32
 800632c:	f883 2042 	strb.w	r2, [r3, #66]	; 0x42
  huart->RxEventType = HAL_UART_RXEVENT_TC;
 8006330:	687b      	ldr	r3, [r7, #4]
 8006332:	2200      	movs	r2, #0
 8006334:	635a      	str	r2, [r3, #52]	; 0x34

  return HAL_OK;
 8006336:	2300      	movs	r3, #0
}
 8006338:	4618      	mov	r0, r3
 800633a:	3708      	adds	r7, #8
 800633c:	46bd      	mov	sp, r7
 800633e:	bd80      	pop	{r7, pc}

08006340 <HAL_UART_Transmit>:
  * @param  Size  Amount of data elements (u8 or u16) to be sent
  * @param  Timeout Timeout duration
  * @retval HAL status
  */
HAL_StatusTypeDef HAL_UART_Transmit(UART_HandleTypeDef *huart, const uint8_t *pData, uint16_t Size, uint32_t Timeout)
{
 8006340:	b580      	push	{r7, lr}
 8006342:	b08a      	sub	sp, #40	; 0x28
 8006344:	af02      	add	r7, sp, #8
 8006346:	60f8      	str	r0, [r7, #12]
 8006348:	60b9      	str	r1, [r7, #8]
 800634a:	603b      	str	r3, [r7, #0]
 800634c:	4613      	mov	r3, r2
 800634e:	80fb      	strh	r3, [r7, #6]
  const uint8_t  *pdata8bits;
  const uint16_t *pdata16bits;
  uint32_t tickstart = 0U;
 8006350:	2300      	movs	r3, #0
 8006352:	617b      	str	r3, [r7, #20]

  /* Check that a Tx process is not already ongoing */
  if (huart->gState == HAL_UART_STATE_READY)
 8006354:	68fb      	ldr	r3, [r7, #12]
 8006356:	f893 3041 	ldrb.w	r3, [r3, #65]	; 0x41
 800635a:	b2db      	uxtb	r3, r3
 800635c:	2b20      	cmp	r3, #32
 800635e:	d175      	bne.n	800644c <HAL_UART_Transmit+0x10c>
  {
    if ((pData == NULL) || (Size == 0U))
 8006360:	68bb      	ldr	r3, [r7, #8]
 8006362:	2b00      	cmp	r3, #0
 8006364:	d002      	beq.n	800636c <HAL_UART_Transmit+0x2c>
 8006366:	88fb      	ldrh	r3, [r7, #6]
 8006368:	2b00      	cmp	r3, #0
 800636a:	d101      	bne.n	8006370 <HAL_UART_Transmit+0x30>
    {
      return  HAL_ERROR;
 800636c:	2301      	movs	r3, #1
 800636e:	e06e      	b.n	800644e <HAL_UART_Transmit+0x10e>
    }

    huart->ErrorCode = HAL_UART_ERROR_NONE;
 8006370:	68fb      	ldr	r3, [r7, #12]
 8006372:	2200      	movs	r2, #0
 8006374:	645a      	str	r2, [r3, #68]	; 0x44
    huart->gState = HAL_UART_STATE_BUSY_TX;
 8006376:	68fb      	ldr	r3, [r7, #12]
 8006378:	2221      	movs	r2, #33	; 0x21
 800637a:	f883 2041 	strb.w	r2, [r3, #65]	; 0x41

    /* Init tickstart for timeout management */
    tickstart = HAL_GetTick();
 800637e:	f7fc f94d 	bl	800261c <HAL_GetTick>
 8006382:	6178      	str	r0, [r7, #20]

    huart->TxXferSize = Size;
 8006384:	68fb      	ldr	r3, [r7, #12]
 8006386:	88fa      	ldrh	r2, [r7, #6]
 8006388:	849a      	strh	r2, [r3, #36]	; 0x24
    huart->TxXferCount = Size;
 800638a:	68fb      	ldr	r3, [r7, #12]
 800638c:	88fa      	ldrh	r2, [r7, #6]
 800638e:	84da      	strh	r2, [r3, #38]	; 0x26

    /* In case of 9bits/No Parity transfer, pData needs to be handled as a uint16_t pointer */
    if ((huart->Init.WordLength == UART_WORDLENGTH_9B) && (huart->Init.Parity == UART_PARITY_NONE))
 8006390:	68fb      	ldr	r3, [r7, #12]
 8006392:	689b      	ldr	r3, [r3, #8]
 8006394:	f5b3 5f80 	cmp.w	r3, #4096	; 0x1000
 8006398:	d108      	bne.n	80063ac <HAL_UART_Transmit+0x6c>
 800639a:	68fb      	ldr	r3, [r7, #12]
 800639c:	691b      	ldr	r3, [r3, #16]
 800639e:	2b00      	cmp	r3, #0
 80063a0:	d104      	bne.n	80063ac <HAL_UART_Transmit+0x6c>
    {
      pdata8bits  = NULL;
 80063a2:	2300      	movs	r3, #0
 80063a4:	61fb      	str	r3, [r7, #28]
      pdata16bits = (const uint16_t *) pData;
 80063a6:	68bb      	ldr	r3, [r7, #8]
 80063a8:	61bb      	str	r3, [r7, #24]
 80063aa:	e003      	b.n	80063b4 <HAL_UART_Transmit+0x74>
    }
    else
    {
      pdata8bits  = pData;
 80063ac:	68bb      	ldr	r3, [r7, #8]
 80063ae:	61fb      	str	r3, [r7, #28]
      pdata16bits = NULL;
 80063b0:	2300      	movs	r3, #0
 80063b2:	61bb      	str	r3, [r7, #24]
    }

    while (huart->TxXferCount > 0U)
 80063b4:	e02e      	b.n	8006414 <HAL_UART_Transmit+0xd4>
    {
      if (UART_WaitOnFlagUntilTimeout(huart, UART_FLAG_TXE, RESET, tickstart, Timeout) != HAL_OK)
 80063b6:	683b      	ldr	r3, [r7, #0]
 80063b8:	9300      	str	r3, [sp, #0]
 80063ba:	697b      	ldr	r3, [r7, #20]
 80063bc:	2200      	movs	r2, #0
 80063be:	2180      	movs	r1, #128	; 0x80
 80063c0:	68f8      	ldr	r0, [r7, #12]
 80063c2:	f000 fb1f 	bl	8006a04 <UART_WaitOnFlagUntilTimeout>
 80063c6:	4603      	mov	r3, r0
 80063c8:	2b00      	cmp	r3, #0
 80063ca:	d005      	beq.n	80063d8 <HAL_UART_Transmit+0x98>
      {
        huart->gState = HAL_UART_STATE_READY;
 80063cc:	68fb      	ldr	r3, [r7, #12]
 80063ce:	2220      	movs	r2, #32
 80063d0:	f883 2041 	strb.w	r2, [r3, #65]	; 0x41

        return HAL_TIMEOUT;
 80063d4:	2303      	movs	r3, #3
 80063d6:	e03a      	b.n	800644e <HAL_UART_Transmit+0x10e>
      }
      if (pdata8bits == NULL)
 80063d8:	69fb      	ldr	r3, [r7, #28]
 80063da:	2b00      	cmp	r3, #0
 80063dc:	d10b      	bne.n	80063f6 <HAL_UART_Transmit+0xb6>
      {
        huart->Instance->DR = (uint16_t)(*pdata16bits & 0x01FFU);
 80063de:	69bb      	ldr	r3, [r7, #24]
 80063e0:	881b      	ldrh	r3, [r3, #0]
 80063e2:	461a      	mov	r2, r3
 80063e4:	68fb      	ldr	r3, [r7, #12]
 80063e6:	681b      	ldr	r3, [r3, #0]
 80063e8:	f3c2 0208 	ubfx	r2, r2, #0, #9
 80063ec:	605a      	str	r2, [r3, #4]
        pdata16bits++;
 80063ee:	69bb      	ldr	r3, [r7, #24]
 80063f0:	3302      	adds	r3, #2
 80063f2:	61bb      	str	r3, [r7, #24]
 80063f4:	e007      	b.n	8006406 <HAL_UART_Transmit+0xc6>
      }
      else
      {
        huart->Instance->DR = (uint8_t)(*pdata8bits & 0xFFU);
 80063f6:	69fb      	ldr	r3, [r7, #28]
 80063f8:	781a      	ldrb	r2, [r3, #0]
 80063fa:	68fb      	ldr	r3, [r7, #12]
 80063fc:	681b      	ldr	r3, [r3, #0]
 80063fe:	605a      	str	r2, [r3, #4]
        pdata8bits++;
 8006400:	69fb      	ldr	r3, [r7, #28]
 8006402:	3301      	adds	r3, #1
 8006404:	61fb      	str	r3, [r7, #28]
      }
      huart->TxXferCount--;
 8006406:	68fb      	ldr	r3, [r7, #12]
 8006408:	8cdb      	ldrh	r3, [r3, #38]	; 0x26
 800640a:	b29b      	uxth	r3, r3
 800640c:	3b01      	subs	r3, #1
 800640e:	b29a      	uxth	r2, r3
 8006410:	68fb      	ldr	r3, [r7, #12]
 8006412:	84da      	strh	r2, [r3, #38]	; 0x26
    while (huart->TxXferCount > 0U)
 8006414:	68fb      	ldr	r3, [r7, #12]
 8006416:	8cdb      	ldrh	r3, [r3, #38]	; 0x26
 8006418:	b29b      	uxth	r3, r3
 800641a:	2b00      	cmp	r3, #0
 800641c:	d1cb      	bne.n	80063b6 <HAL_UART_Transmit+0x76>
    }

    if (UART_WaitOnFlagUntilTimeout(huart, UART_FLAG_TC, RESET, tickstart, Timeout) != HAL_OK)
 800641e:	683b      	ldr	r3, [r7, #0]
 8006420:	9300      	str	r3, [sp, #0]
 8006422:	697b      	ldr	r3, [r7, #20]
 8006424:	2200      	movs	r2, #0
 8006426:	2140      	movs	r1, #64	; 0x40
 8006428:	68f8      	ldr	r0, [r7, #12]
 800642a:	f000 faeb 	bl	8006a04 <UART_WaitOnFlagUntilTimeout>
 800642e:	4603      	mov	r3, r0
 8006430:	2b00      	cmp	r3, #0
 8006432:	d005      	beq.n	8006440 <HAL_UART_Transmit+0x100>
    {
      huart->gState = HAL_UART_STATE_READY;
 8006434:	68fb      	ldr	r3, [r7, #12]
 8006436:	2220      	movs	r2, #32
 8006438:	f883 2041 	strb.w	r2, [r3, #65]	; 0x41

      return HAL_TIMEOUT;
 800643c:	2303      	movs	r3, #3
 800643e:	e006      	b.n	800644e <HAL_UART_Transmit+0x10e>
    }

    /* At end of Tx process, restore huart->gState to Ready */
    huart->gState = HAL_UART_STATE_READY;
 8006440:	68fb      	ldr	r3, [r7, #12]
 8006442:	2220      	movs	r2, #32
 8006444:	f883 2041 	strb.w	r2, [r3, #65]	; 0x41

    return HAL_OK;
 8006448:	2300      	movs	r3, #0
 800644a:	e000      	b.n	800644e <HAL_UART_Transmit+0x10e>
  }
  else
  {
    return HAL_BUSY;
 800644c:	2302      	movs	r3, #2
  }
}
 800644e:	4618      	mov	r0, r3
 8006450:	3720      	adds	r7, #32
 8006452:	46bd      	mov	sp, r7
 8006454:	bd80      	pop	{r7, pc}

08006456 <HAL_UART_Receive_IT>:
  * @param  pData Pointer to data buffer (u8 or u16 data elements).
  * @param  Size  Amount of data elements (u8 or u16) to be received.
  * @retval HAL status
  */
HAL_StatusTypeDef HAL_UART_Receive_IT(UART_HandleTypeDef *huart, uint8_t *pData, uint16_t Size)
{
 8006456:	b580      	push	{r7, lr}
 8006458:	b084      	sub	sp, #16
 800645a:	af00      	add	r7, sp, #0
 800645c:	60f8      	str	r0, [r7, #12]
 800645e:	60b9      	str	r1, [r7, #8]
 8006460:	4613      	mov	r3, r2
 8006462:	80fb      	strh	r3, [r7, #6]
  /* Check that a Rx process is not already ongoing */
  if (huart->RxState == HAL_UART_STATE_READY)
 8006464:	68fb      	ldr	r3, [r7, #12]
 8006466:	f893 3042 	ldrb.w	r3, [r3, #66]	; 0x42
 800646a:	b2db      	uxtb	r3, r3
 800646c:	2b20      	cmp	r3, #32
 800646e:	d112      	bne.n	8006496 <HAL_UART_Receive_IT+0x40>
  {
    if ((pData == NULL) || (Size == 0U))
 8006470:	68bb      	ldr	r3, [r7, #8]
 8006472:	2b00      	cmp	r3, #0
 8006474:	d002      	beq.n	800647c <HAL_UART_Receive_IT+0x26>
 8006476:	88fb      	ldrh	r3, [r7, #6]
 8006478:	2b00      	cmp	r3, #0
 800647a:	d101      	bne.n	8006480 <HAL_UART_Receive_IT+0x2a>
    {
      return HAL_ERROR;
 800647c:	2301      	movs	r3, #1
 800647e:	e00b      	b.n	8006498 <HAL_UART_Receive_IT+0x42>
    }

    /* Set Reception type to Standard reception */
    huart->ReceptionType = HAL_UART_RECEPTION_STANDARD;
 8006480:	68fb      	ldr	r3, [r7, #12]
 8006482:	2200      	movs	r2, #0
 8006484:	631a      	str	r2, [r3, #48]	; 0x30

    return (UART_Start_Receive_IT(huart, pData, Size));
 8006486:	88fb      	ldrh	r3, [r7, #6]
 8006488:	461a      	mov	r2, r3
 800648a:	68b9      	ldr	r1, [r7, #8]
 800648c:	68f8      	ldr	r0, [r7, #12]
 800648e:	f000 fb12 	bl	8006ab6 <UART_Start_Receive_IT>
 8006492:	4603      	mov	r3, r0
 8006494:	e000      	b.n	8006498 <HAL_UART_Receive_IT+0x42>
  }
  else
  {
    return HAL_BUSY;
 8006496:	2302      	movs	r3, #2
  }
}
 8006498:	4618      	mov	r0, r3
 800649a:	3710      	adds	r7, #16
 800649c:	46bd      	mov	sp, r7
 800649e:	bd80      	pop	{r7, pc}

080064a0 <HAL_UART_IRQHandler>:
  * @param  huart  Pointer to a UART_HandleTypeDef structure that contains
  *                the configuration information for the specified UART module.
  * @retval None
  */
void HAL_UART_IRQHandler(UART_HandleTypeDef *huart)
{
 80064a0:	b580      	push	{r7, lr}
 80064a2:	b0ba      	sub	sp, #232	; 0xe8
 80064a4:	af00      	add	r7, sp, #0
 80064a6:	6078      	str	r0, [r7, #4]
  uint32_t isrflags   = READ_REG(huart->Instance->SR);
 80064a8:	687b      	ldr	r3, [r7, #4]
 80064aa:	681b      	ldr	r3, [r3, #0]
 80064ac:	681b      	ldr	r3, [r3, #0]
 80064ae:	f8c7 30e4 	str.w	r3, [r7, #228]	; 0xe4
  uint32_t cr1its     = READ_REG(huart->Instance->CR1);
 80064b2:	687b      	ldr	r3, [r7, #4]
 80064b4:	681b      	ldr	r3, [r3, #0]
 80064b6:	68db      	ldr	r3, [r3, #12]
 80064b8:	f8c7 30e0 	str.w	r3, [r7, #224]	; 0xe0
  uint32_t cr3its     = READ_REG(huart->Instance->CR3);
 80064bc:	687b      	ldr	r3, [r7, #4]
 80064be:	681b      	ldr	r3, [r3, #0]
 80064c0:	695b      	ldr	r3, [r3, #20]
 80064c2:	f8c7 30dc 	str.w	r3, [r7, #220]	; 0xdc
  uint32_t errorflags = 0x00U;
 80064c6:	2300      	movs	r3, #0
 80064c8:	f8c7 30d8 	str.w	r3, [r7, #216]	; 0xd8
  uint32_t dmarequest = 0x00U;
 80064cc:	2300      	movs	r3, #0
 80064ce:	f8c7 30d4 	str.w	r3, [r7, #212]	; 0xd4

  /* If no error occurs */
  errorflags = (isrflags & (uint32_t)(USART_SR_PE | USART_SR_FE | USART_SR_ORE | USART_SR_NE));
 80064d2:	f8d7 30e4 	ldr.w	r3, [r7, #228]	; 0xe4
 80064d6:	f003 030f 	and.w	r3, r3, #15
 80064da:	f8c7 30d8 	str.w	r3, [r7, #216]	; 0xd8
  if (errorflags == RESET)
 80064de:	f8d7 30d8 	ldr.w	r3, [r7, #216]	; 0xd8
 80064e2:	2b00      	cmp	r3, #0
 80064e4:	d10f      	bne.n	8006506 <HAL_UART_IRQHandler+0x66>
  {
    /* UART in mode Receiver -------------------------------------------------*/
    if (((isrflags & USART_SR_RXNE) != RESET) && ((cr1its & USART_CR1_RXNEIE) != RESET))
 80064e6:	f8d7 30e4 	ldr.w	r3, [r7, #228]	; 0xe4
 80064ea:	f003 0320 	and.w	r3, r3, #32
 80064ee:	2b00      	cmp	r3, #0
 80064f0:	d009      	beq.n	8006506 <HAL_UART_IRQHandler+0x66>
 80064f2:	f8d7 30e0 	ldr.w	r3, [r7, #224]	; 0xe0
 80064f6:	f003 0320 	and.w	r3, r3, #32
 80064fa:	2b00      	cmp	r3, #0
 80064fc:	d003      	beq.n	8006506 <HAL_UART_IRQHandler+0x66>
    {
      UART_Receive_IT(huart);
 80064fe:	6878      	ldr	r0, [r7, #4]
 8006500:	f000 fbf2 	bl	8006ce8 <UART_Receive_IT>
      return;
 8006504:	e25b      	b.n	80069be <HAL_UART_IRQHandler+0x51e>
    }
  }

  /* If some errors occur */
  if ((errorflags != RESET) && (((cr3its & USART_CR3_EIE) != RESET)
 8006506:	f8d7 30d8 	ldr.w	r3, [r7, #216]	; 0xd8
 800650a:	2b00      	cmp	r3, #0
 800650c:	f000 80de 	beq.w	80066cc <HAL_UART_IRQHandler+0x22c>
 8006510:	f8d7 30dc 	ldr.w	r3, [r7, #220]	; 0xdc
 8006514:	f003 0301 	and.w	r3, r3, #1
 8006518:	2b00      	cmp	r3, #0
 800651a:	d106      	bne.n	800652a <HAL_UART_IRQHandler+0x8a>
                                || ((cr1its & (USART_CR1_RXNEIE | USART_CR1_PEIE)) != RESET)))
 800651c:	f8d7 30e0 	ldr.w	r3, [r7, #224]	; 0xe0
 8006520:	f403 7390 	and.w	r3, r3, #288	; 0x120
 8006524:	2b00      	cmp	r3, #0
 8006526:	f000 80d1 	beq.w	80066cc <HAL_UART_IRQHandler+0x22c>
  {
    /* UART parity error interrupt occurred ----------------------------------*/
    if (((isrflags & USART_SR_PE) != RESET) && ((cr1its & USART_CR1_PEIE) != RESET))
 800652a:	f8d7 30e4 	ldr.w	r3, [r7, #228]	; 0xe4
 800652e:	f003 0301 	and.w	r3, r3, #1
 8006532:	2b00      	cmp	r3, #0
 8006534:	d00b      	beq.n	800654e <HAL_UART_IRQHandler+0xae>
 8006536:	f8d7 30e0 	ldr.w	r3, [r7, #224]	; 0xe0
 800653a:	f403 7380 	and.w	r3, r3, #256	; 0x100
 800653e:	2b00      	cmp	r3, #0
 8006540:	d005      	beq.n	800654e <HAL_UART_IRQHandler+0xae>
    {
      huart->ErrorCode |= HAL_UART_ERROR_PE;
 8006542:	687b      	ldr	r3, [r7, #4]
 8006544:	6c5b      	ldr	r3, [r3, #68]	; 0x44
 8006546:	f043 0201 	orr.w	r2, r3, #1
 800654a:	687b      	ldr	r3, [r7, #4]
 800654c:	645a      	str	r2, [r3, #68]	; 0x44
    }

    /* UART noise error interrupt occurred -----------------------------------*/
    if (((isrflags & USART_SR_NE) != RESET) && ((cr3its & USART_CR3_EIE) != RESET))
 800654e:	f8d7 30e4 	ldr.w	r3, [r7, #228]	; 0xe4
 8006552:	f003 0304 	and.w	r3, r3, #4
 8006556:	2b00      	cmp	r3, #0
 8006558:	d00b      	beq.n	8006572 <HAL_UART_IRQHandler+0xd2>
 800655a:	f8d7 30dc 	ldr.w	r3, [r7, #220]	; 0xdc
 800655e:	f003 0301 	and.w	r3, r3, #1
 8006562:	2b00      	cmp	r3, #0
 8006564:	d005      	beq.n	8006572 <HAL_UART_IRQHandler+0xd2>
    {
      huart->ErrorCode |= HAL_UART_ERROR_NE;
 8006566:	687b      	ldr	r3, [r7, #4]
 8006568:	6c5b      	ldr	r3, [r3, #68]	; 0x44
 800656a:	f043 0202 	orr.w	r2, r3, #2
 800656e:	687b      	ldr	r3, [r7, #4]
 8006570:	645a      	str	r2, [r3, #68]	; 0x44
    }

    /* UART frame error interrupt occurred -----------------------------------*/
    if (((isrflags & USART_SR_FE) != RESET) && ((cr3its & USART_CR3_EIE) != RESET))
 8006572:	f8d7 30e4 	ldr.w	r3, [r7, #228]	; 0xe4
 8006576:	f003 0302 	and.w	r3, r3, #2
 800657a:	2b00      	cmp	r3, #0
 800657c:	d00b      	beq.n	8006596 <HAL_UART_IRQHandler+0xf6>
 800657e:	f8d7 30dc 	ldr.w	r3, [r7, #220]	; 0xdc
 8006582:	f003 0301 	and.w	r3, r3, #1
 8006586:	2b00      	cmp	r3, #0
 8006588:	d005      	beq.n	8006596 <HAL_UART_IRQHandler+0xf6>
    {
      huart->ErrorCode |= HAL_UART_ERROR_FE;
 800658a:	687b      	ldr	r3, [r7, #4]
 800658c:	6c5b      	ldr	r3, [r3, #68]	; 0x44
 800658e:	f043 0204 	orr.w	r2, r3, #4
 8006592:	687b      	ldr	r3, [r7, #4]
 8006594:	645a      	str	r2, [r3, #68]	; 0x44
    }

    /* UART Over-Run interrupt occurred --------------------------------------*/
    if (((isrflags & USART_SR_ORE) != RESET) && (((cr1its & USART_CR1_RXNEIE) != RESET)
 8006596:	f8d7 30e4 	ldr.w	r3, [r7, #228]	; 0xe4
 800659a:	f003 0308 	and.w	r3, r3, #8
 800659e:	2b00      	cmp	r3, #0
 80065a0:	d011      	beq.n	80065c6 <HAL_UART_IRQHandler+0x126>
 80065a2:	f8d7 30e0 	ldr.w	r3, [r7, #224]	; 0xe0
 80065a6:	f003 0320 	and.w	r3, r3, #32
 80065aa:	2b00      	cmp	r3, #0
 80065ac:	d105      	bne.n	80065ba <HAL_UART_IRQHandler+0x11a>
                                                 || ((cr3its & USART_CR3_EIE) != RESET)))
 80065ae:	f8d7 30dc 	ldr.w	r3, [r7, #220]	; 0xdc
 80065b2:	f003 0301 	and.w	r3, r3, #1
 80065b6:	2b00      	cmp	r3, #0
 80065b8:	d005      	beq.n	80065c6 <HAL_UART_IRQHandler+0x126>
    {
      huart->ErrorCode |= HAL_UART_ERROR_ORE;
 80065ba:	687b      	ldr	r3, [r7, #4]
 80065bc:	6c5b      	ldr	r3, [r3, #68]	; 0x44
 80065be:	f043 0208 	orr.w	r2, r3, #8
 80065c2:	687b      	ldr	r3, [r7, #4]
 80065c4:	645a      	str	r2, [r3, #68]	; 0x44
    }

    /* Call UART Error Call back function if need be --------------------------*/
    if (huart->ErrorCode != HAL_UART_ERROR_NONE)
 80065c6:	687b      	ldr	r3, [r7, #4]
 80065c8:	6c5b      	ldr	r3, [r3, #68]	; 0x44
 80065ca:	2b00      	cmp	r3, #0
 80065cc:	f000 81f2 	beq.w	80069b4 <HAL_UART_IRQHandler+0x514>
    {
      /* UART in mode Receiver -----------------------------------------------*/
      if (((isrflags & USART_SR_RXNE) != RESET) && ((cr1its & USART_CR1_RXNEIE) != RESET))
 80065d0:	f8d7 30e4 	ldr.w	r3, [r7, #228]	; 0xe4
 80065d4:	f003 0320 	and.w	r3, r3, #32
 80065d8:	2b00      	cmp	r3, #0
 80065da:	d008      	beq.n	80065ee <HAL_UART_IRQHandler+0x14e>
 80065dc:	f8d7 30e0 	ldr.w	r3, [r7, #224]	; 0xe0
 80065e0:	f003 0320 	and.w	r3, r3, #32
 80065e4:	2b00      	cmp	r3, #0
 80065e6:	d002      	beq.n	80065ee <HAL_UART_IRQHandler+0x14e>
      {
        UART_Receive_IT(huart);
 80065e8:	6878      	ldr	r0, [r7, #4]
 80065ea:	f000 fb7d 	bl	8006ce8 <UART_Receive_IT>
      }

      /* If Overrun error occurs, or if any error occurs in DMA mode reception,
         consider error as blocking */
      dmarequest = HAL_IS_BIT_SET(huart->Instance->CR3, USART_CR3_DMAR);
 80065ee:	687b      	ldr	r3, [r7, #4]
 80065f0:	681b      	ldr	r3, [r3, #0]
 80065f2:	695b      	ldr	r3, [r3, #20]
 80065f4:	f003 0340 	and.w	r3, r3, #64	; 0x40
 80065f8:	2b40      	cmp	r3, #64	; 0x40
 80065fa:	bf0c      	ite	eq
 80065fc:	2301      	moveq	r3, #1
 80065fe:	2300      	movne	r3, #0
 8006600:	b2db      	uxtb	r3, r3
 8006602:	f8c7 30d4 	str.w	r3, [r7, #212]	; 0xd4
      if (((huart->ErrorCode & HAL_UART_ERROR_ORE) != RESET) || dmarequest)
 8006606:	687b      	ldr	r3, [r7, #4]
 8006608:	6c5b      	ldr	r3, [r3, #68]	; 0x44
 800660a:	f003 0308 	and.w	r3, r3, #8
 800660e:	2b00      	cmp	r3, #0
 8006610:	d103      	bne.n	800661a <HAL_UART_IRQHandler+0x17a>
 8006612:	f8d7 30d4 	ldr.w	r3, [r7, #212]	; 0xd4
 8006616:	2b00      	cmp	r3, #0
 8006618:	d04f      	beq.n	80066ba <HAL_UART_IRQHandler+0x21a>
      {
        /* Blocking error : transfer is aborted
           Set the UART state ready to be able to start again the process,
           Disable Rx Interrupts, and disable Rx DMA request, if ongoing */
        UART_EndRxTransfer(huart);
 800661a:	6878      	ldr	r0, [r7, #4]
 800661c:	f000 fa85 	bl	8006b2a <UART_EndRxTransfer>

        /* Disable the UART DMA Rx request if enabled */
        if (HAL_IS_BIT_SET(huart->Instance->CR3, USART_CR3_DMAR))
 8006620:	687b      	ldr	r3, [r7, #4]
 8006622:	681b      	ldr	r3, [r3, #0]
 8006624:	695b      	ldr	r3, [r3, #20]
 8006626:	f003 0340 	and.w	r3, r3, #64	; 0x40
 800662a:	2b40      	cmp	r3, #64	; 0x40
 800662c:	d141      	bne.n	80066b2 <HAL_UART_IRQHandler+0x212>
        {
          ATOMIC_CLEAR_BIT(huart->Instance->CR3, USART_CR3_DMAR);
 800662e:	687b      	ldr	r3, [r7, #4]
 8006630:	681b      	ldr	r3, [r3, #0]
 8006632:	3314      	adds	r3, #20
 8006634:	f8c7 309c 	str.w	r3, [r7, #156]	; 0x9c
   __ASM volatile ("ldrex %0, %1" : "=r" (result) : "Q" (*addr) );
 8006638:	f8d7 309c 	ldr.w	r3, [r7, #156]	; 0x9c
 800663c:	e853 3f00 	ldrex	r3, [r3]
 8006640:	f8c7 3098 	str.w	r3, [r7, #152]	; 0x98
   return(result);
 8006644:	f8d7 3098 	ldr.w	r3, [r7, #152]	; 0x98
 8006648:	f023 0340 	bic.w	r3, r3, #64	; 0x40
 800664c:	f8c7 30d0 	str.w	r3, [r7, #208]	; 0xd0
 8006650:	687b      	ldr	r3, [r7, #4]
 8006652:	681b      	ldr	r3, [r3, #0]
 8006654:	3314      	adds	r3, #20
 8006656:	f8d7 20d0 	ldr.w	r2, [r7, #208]	; 0xd0
 800665a:	f8c7 20a8 	str.w	r2, [r7, #168]	; 0xa8
 800665e:	f8c7 30a4 	str.w	r3, [r7, #164]	; 0xa4
   __ASM volatile ("strex %0, %2, %1" : "=&r" (result), "=Q" (*addr) : "r" (value) );
 8006662:	f8d7 10a4 	ldr.w	r1, [r7, #164]	; 0xa4
 8006666:	f8d7 20a8 	ldr.w	r2, [r7, #168]	; 0xa8
 800666a:	e841 2300 	strex	r3, r2, [r1]
 800666e:	f8c7 30a0 	str.w	r3, [r7, #160]	; 0xa0
   return(result);
 8006672:	f8d7 30a0 	ldr.w	r3, [r7, #160]	; 0xa0
 8006676:	2b00      	cmp	r3, #0
 8006678:	d1d9      	bne.n	800662e <HAL_UART_IRQHandler+0x18e>

          /* Abort the UART DMA Rx stream */
          if (huart->hdmarx != NULL)
 800667a:	687b      	ldr	r3, [r7, #4]
 800667c:	6bdb      	ldr	r3, [r3, #60]	; 0x3c
 800667e:	2b00      	cmp	r3, #0
 8006680:	d013      	beq.n	80066aa <HAL_UART_IRQHandler+0x20a>
          {
            /* Set the UART DMA Abort callback :
               will lead to call HAL_UART_ErrorCallback() at end of DMA abort procedure */
            huart->hdmarx->XferAbortCallback = UART_DMAAbortOnError;
 8006682:	687b      	ldr	r3, [r7, #4]
 8006684:	6bdb      	ldr	r3, [r3, #60]	; 0x3c
 8006686:	4a7e      	ldr	r2, [pc, #504]	; (8006880 <HAL_UART_IRQHandler+0x3e0>)
 8006688:	651a      	str	r2, [r3, #80]	; 0x50
            if (HAL_DMA_Abort_IT(huart->hdmarx) != HAL_OK)
 800668a:	687b      	ldr	r3, [r7, #4]
 800668c:	6bdb      	ldr	r3, [r3, #60]	; 0x3c
 800668e:	4618      	mov	r0, r3
 8006690:	f7fc f975 	bl	800297e <HAL_DMA_Abort_IT>
 8006694:	4603      	mov	r3, r0
 8006696:	2b00      	cmp	r3, #0
 8006698:	d016      	beq.n	80066c8 <HAL_UART_IRQHandler+0x228>
            {
              /* Call Directly XferAbortCallback function in case of error */
              huart->hdmarx->XferAbortCallback(huart->hdmarx);
 800669a:	687b      	ldr	r3, [r7, #4]
 800669c:	6bdb      	ldr	r3, [r3, #60]	; 0x3c
 800669e:	6d1b      	ldr	r3, [r3, #80]	; 0x50
 80066a0:	687a      	ldr	r2, [r7, #4]
 80066a2:	6bd2      	ldr	r2, [r2, #60]	; 0x3c
 80066a4:	4610      	mov	r0, r2
 80066a6:	4798      	blx	r3
        if (HAL_IS_BIT_SET(huart->Instance->CR3, USART_CR3_DMAR))
 80066a8:	e00e      	b.n	80066c8 <HAL_UART_IRQHandler+0x228>
#if (USE_HAL_UART_REGISTER_CALLBACKS == 1)
            /*Call registered error callback*/
            huart->ErrorCallback(huart);
#else
            /*Call legacy weak error callback*/
            HAL_UART_ErrorCallback(huart);
 80066aa:	6878      	ldr	r0, [r7, #4]
 80066ac:	f000 f994 	bl	80069d8 <HAL_UART_ErrorCallback>
        if (HAL_IS_BIT_SET(huart->Instance->CR3, USART_CR3_DMAR))
 80066b0:	e00a      	b.n	80066c8 <HAL_UART_IRQHandler+0x228>
#if (USE_HAL_UART_REGISTER_CALLBACKS == 1)
          /*Call registered error callback*/
          huart->ErrorCallback(huart);
#else
          /*Call legacy weak error callback*/
          HAL_UART_ErrorCallback(huart);
 80066b2:	6878      	ldr	r0, [r7, #4]
 80066b4:	f000 f990 	bl	80069d8 <HAL_UART_ErrorCallback>
        if (HAL_IS_BIT_SET(huart->Instance->CR3, USART_CR3_DMAR))
 80066b8:	e006      	b.n	80066c8 <HAL_UART_IRQHandler+0x228>
#if (USE_HAL_UART_REGISTER_CALLBACKS == 1)
        /*Call registered error callback*/
        huart->ErrorCallback(huart);
#else
        /*Call legacy weak error callback*/
        HAL_UART_ErrorCallback(huart);
 80066ba:	6878      	ldr	r0, [r7, #4]
 80066bc:	f000 f98c 	bl	80069d8 <HAL_UART_ErrorCallback>
#endif /* USE_HAL_UART_REGISTER_CALLBACKS */

        huart->ErrorCode = HAL_UART_ERROR_NONE;
 80066c0:	687b      	ldr	r3, [r7, #4]
 80066c2:	2200      	movs	r2, #0
 80066c4:	645a      	str	r2, [r3, #68]	; 0x44
      }
    }
    return;
 80066c6:	e175      	b.n	80069b4 <HAL_UART_IRQHandler+0x514>
        if (HAL_IS_BIT_SET(huart->Instance->CR3, USART_CR3_DMAR))
 80066c8:	bf00      	nop
    return;
 80066ca:	e173      	b.n	80069b4 <HAL_UART_IRQHandler+0x514>
  } /* End if some error occurs */

  /* Check current reception Mode :
     If Reception till IDLE event has been selected : */
  if ((huart->ReceptionType == HAL_UART_RECEPTION_TOIDLE)
 80066cc:	687b      	ldr	r3, [r7, #4]
 80066ce:	6b1b      	ldr	r3, [r3, #48]	; 0x30
 80066d0:	2b01      	cmp	r3, #1
 80066d2:	f040 814f 	bne.w	8006974 <HAL_UART_IRQHandler+0x4d4>
      && ((isrflags & USART_SR_IDLE) != 0U)
 80066d6:	f8d7 30e4 	ldr.w	r3, [r7, #228]	; 0xe4
 80066da:	f003 0310 	and.w	r3, r3, #16
 80066de:	2b00      	cmp	r3, #0
 80066e0:	f000 8148 	beq.w	8006974 <HAL_UART_IRQHandler+0x4d4>
      && ((cr1its & USART_SR_IDLE) != 0U))
 80066e4:	f8d7 30e0 	ldr.w	r3, [r7, #224]	; 0xe0
 80066e8:	f003 0310 	and.w	r3, r3, #16
 80066ec:	2b00      	cmp	r3, #0
 80066ee:	f000 8141 	beq.w	8006974 <HAL_UART_IRQHandler+0x4d4>
  {
    __HAL_UART_CLEAR_IDLEFLAG(huart);
 80066f2:	2300      	movs	r3, #0
 80066f4:	60bb      	str	r3, [r7, #8]
 80066f6:	687b      	ldr	r3, [r7, #4]
 80066f8:	681b      	ldr	r3, [r3, #0]
 80066fa:	681b      	ldr	r3, [r3, #0]
 80066fc:	60bb      	str	r3, [r7, #8]
 80066fe:	687b      	ldr	r3, [r7, #4]
 8006700:	681b      	ldr	r3, [r3, #0]
 8006702:	685b      	ldr	r3, [r3, #4]
 8006704:	60bb      	str	r3, [r7, #8]
 8006706:	68bb      	ldr	r3, [r7, #8]

    /* Check if DMA mode is enabled in UART */
    if (HAL_IS_BIT_SET(huart->Instance->CR3, USART_CR3_DMAR))
 8006708:	687b      	ldr	r3, [r7, #4]
 800670a:	681b      	ldr	r3, [r3, #0]
 800670c:	695b      	ldr	r3, [r3, #20]
 800670e:	f003 0340 	and.w	r3, r3, #64	; 0x40
 8006712:	2b40      	cmp	r3, #64	; 0x40
 8006714:	f040 80b6 	bne.w	8006884 <HAL_UART_IRQHandler+0x3e4>
    {
      /* DMA mode enabled */
      /* Check received length : If all expected data are received, do nothing,
         (DMA cplt callback will be called).
         Otherwise, if at least one data has already been received, IDLE event is to be notified to user */
      uint16_t nb_remaining_rx_data = (uint16_t) __HAL_DMA_GET_COUNTER(huart->hdmarx);
 8006718:	687b      	ldr	r3, [r7, #4]
 800671a:	6bdb      	ldr	r3, [r3, #60]	; 0x3c
 800671c:	681b      	ldr	r3, [r3, #0]
 800671e:	685b      	ldr	r3, [r3, #4]
 8006720:	f8a7 30be 	strh.w	r3, [r7, #190]	; 0xbe
      if ((nb_remaining_rx_data > 0U)
 8006724:	f8b7 30be 	ldrh.w	r3, [r7, #190]	; 0xbe
 8006728:	2b00      	cmp	r3, #0
 800672a:	f000 8145 	beq.w	80069b8 <HAL_UART_IRQHandler+0x518>
          && (nb_remaining_rx_data < huart->RxXferSize))
 800672e:	687b      	ldr	r3, [r7, #4]
 8006730:	8d9b      	ldrh	r3, [r3, #44]	; 0x2c
 8006732:	f8b7 20be 	ldrh.w	r2, [r7, #190]	; 0xbe
 8006736:	429a      	cmp	r2, r3
 8006738:	f080 813e 	bcs.w	80069b8 <HAL_UART_IRQHandler+0x518>
      {
        /* Reception is not complete */
        huart->RxXferCount = nb_remaining_rx_data;
 800673c:	687b      	ldr	r3, [r7, #4]
 800673e:	f8b7 20be 	ldrh.w	r2, [r7, #190]	; 0xbe
 8006742:	85da      	strh	r2, [r3, #46]	; 0x2e

        /* In Normal mode, end DMA xfer and HAL UART Rx process*/
        if (huart->hdmarx->Init.Mode != DMA_CIRCULAR)
 8006744:	687b      	ldr	r3, [r7, #4]
 8006746:	6bdb      	ldr	r3, [r3, #60]	; 0x3c
 8006748:	69db      	ldr	r3, [r3, #28]
 800674a:	f5b3 7f80 	cmp.w	r3, #256	; 0x100
 800674e:	f000 8088 	beq.w	8006862 <HAL_UART_IRQHandler+0x3c2>
        {
          /* Disable PE and ERR (Frame error, noise error, overrun error) interrupts */
          ATOMIC_CLEAR_BIT(huart->Instance->CR1, USART_CR1_PEIE);
 8006752:	687b      	ldr	r3, [r7, #4]
 8006754:	681b      	ldr	r3, [r3, #0]
 8006756:	330c      	adds	r3, #12
 8006758:	f8c7 3088 	str.w	r3, [r7, #136]	; 0x88
   __ASM volatile ("ldrex %0, %1" : "=r" (result) : "Q" (*addr) );
 800675c:	f8d7 3088 	ldr.w	r3, [r7, #136]	; 0x88
 8006760:	e853 3f00 	ldrex	r3, [r3]
 8006764:	f8c7 3084 	str.w	r3, [r7, #132]	; 0x84
   return(result);
 8006768:	f8d7 3084 	ldr.w	r3, [r7, #132]	; 0x84
 800676c:	f423 7380 	bic.w	r3, r3, #256	; 0x100
 8006770:	f8c7 30b8 	str.w	r3, [r7, #184]	; 0xb8
 8006774:	687b      	ldr	r3, [r7, #4]
 8006776:	681b      	ldr	r3, [r3, #0]
 8006778:	330c      	adds	r3, #12
 800677a:	f8d7 20b8 	ldr.w	r2, [r7, #184]	; 0xb8
 800677e:	f8c7 2094 	str.w	r2, [r7, #148]	; 0x94
 8006782:	f8c7 3090 	str.w	r3, [r7, #144]	; 0x90
   __ASM volatile ("strex %0, %2, %1" : "=&r" (result), "=Q" (*addr) : "r" (value) );
 8006786:	f8d7 1090 	ldr.w	r1, [r7, #144]	; 0x90
 800678a:	f8d7 2094 	ldr.w	r2, [r7, #148]	; 0x94
 800678e:	e841 2300 	strex	r3, r2, [r1]
 8006792:	f8c7 308c 	str.w	r3, [r7, #140]	; 0x8c
   return(result);
 8006796:	f8d7 308c 	ldr.w	r3, [r7, #140]	; 0x8c
 800679a:	2b00      	cmp	r3, #0
 800679c:	d1d9      	bne.n	8006752 <HAL_UART_IRQHandler+0x2b2>
          ATOMIC_CLEAR_BIT(huart->Instance->CR3, USART_CR3_EIE);
 800679e:	687b      	ldr	r3, [r7, #4]
 80067a0:	681b      	ldr	r3, [r3, #0]
 80067a2:	3314      	adds	r3, #20
 80067a4:	677b      	str	r3, [r7, #116]	; 0x74
   __ASM volatile ("ldrex %0, %1" : "=r" (result) : "Q" (*addr) );
 80067a6:	6f7b      	ldr	r3, [r7, #116]	; 0x74
 80067a8:	e853 3f00 	ldrex	r3, [r3]
 80067ac:	673b      	str	r3, [r7, #112]	; 0x70
   return(result);
 80067ae:	6f3b      	ldr	r3, [r7, #112]	; 0x70
 80067b0:	f023 0301 	bic.w	r3, r3, #1
 80067b4:	f8c7 30b4 	str.w	r3, [r7, #180]	; 0xb4
 80067b8:	687b      	ldr	r3, [r7, #4]
 80067ba:	681b      	ldr	r3, [r3, #0]
 80067bc:	3314      	adds	r3, #20
 80067be:	f8d7 20b4 	ldr.w	r2, [r7, #180]	; 0xb4
 80067c2:	f8c7 2080 	str.w	r2, [r7, #128]	; 0x80
 80067c6:	67fb      	str	r3, [r7, #124]	; 0x7c
   __ASM volatile ("strex %0, %2, %1" : "=&r" (result), "=Q" (*addr) : "r" (value) );
 80067c8:	6ff9      	ldr	r1, [r7, #124]	; 0x7c
 80067ca:	f8d7 2080 	ldr.w	r2, [r7, #128]	; 0x80
 80067ce:	e841 2300 	strex	r3, r2, [r1]
 80067d2:	67bb      	str	r3, [r7, #120]	; 0x78
   return(result);
 80067d4:	6fbb      	ldr	r3, [r7, #120]	; 0x78
 80067d6:	2b00      	cmp	r3, #0
 80067d8:	d1e1      	bne.n	800679e <HAL_UART_IRQHandler+0x2fe>

          /* Disable the DMA transfer for the receiver request by resetting the DMAR bit
             in the UART CR3 register */
          ATOMIC_CLEAR_BIT(huart->Instance->CR3, USART_CR3_DMAR);
 80067da:	687b      	ldr	r3, [r7, #4]
 80067dc:	681b      	ldr	r3, [r3, #0]
 80067de:	3314      	adds	r3, #20
 80067e0:	663b      	str	r3, [r7, #96]	; 0x60
   __ASM volatile ("ldrex %0, %1" : "=r" (result) : "Q" (*addr) );
 80067e2:	6e3b      	ldr	r3, [r7, #96]	; 0x60
 80067e4:	e853 3f00 	ldrex	r3, [r3]
 80067e8:	65fb      	str	r3, [r7, #92]	; 0x5c
   return(result);
 80067ea:	6dfb      	ldr	r3, [r7, #92]	; 0x5c
 80067ec:	f023 0340 	bic.w	r3, r3, #64	; 0x40
 80067f0:	f8c7 30b0 	str.w	r3, [r7, #176]	; 0xb0
 80067f4:	687b      	ldr	r3, [r7, #4]
 80067f6:	681b      	ldr	r3, [r3, #0]
 80067f8:	3314      	adds	r3, #20
 80067fa:	f8d7 20b0 	ldr.w	r2, [r7, #176]	; 0xb0
 80067fe:	66fa      	str	r2, [r7, #108]	; 0x6c
 8006800:	66bb      	str	r3, [r7, #104]	; 0x68
   __ASM volatile ("strex %0, %2, %1" : "=&r" (result), "=Q" (*addr) : "r" (value) );
 8006802:	6eb9      	ldr	r1, [r7, #104]	; 0x68
 8006804:	6efa      	ldr	r2, [r7, #108]	; 0x6c
 8006806:	e841 2300 	strex	r3, r2, [r1]
 800680a:	667b      	str	r3, [r7, #100]	; 0x64
   return(result);
 800680c:	6e7b      	ldr	r3, [r7, #100]	; 0x64
 800680e:	2b00      	cmp	r3, #0
 8006810:	d1e3      	bne.n	80067da <HAL_UART_IRQHandler+0x33a>

          /* At end of Rx process, restore huart->RxState to Ready */
          huart->RxState = HAL_UART_STATE_READY;
 8006812:	687b      	ldr	r3, [r7, #4]
 8006814:	2220      	movs	r2, #32
 8006816:	f883 2042 	strb.w	r2, [r3, #66]	; 0x42
          huart->ReceptionType = HAL_UART_RECEPTION_STANDARD;
 800681a:	687b      	ldr	r3, [r7, #4]
 800681c:	2200      	movs	r2, #0
 800681e:	631a      	str	r2, [r3, #48]	; 0x30

          ATOMIC_CLEAR_BIT(huart->Instance->CR1, USART_CR1_IDLEIE);
 8006820:	687b      	ldr	r3, [r7, #4]
 8006822:	681b      	ldr	r3, [r3, #0]
 8006824:	330c      	adds	r3, #12
 8006826:	64fb      	str	r3, [r7, #76]	; 0x4c
   __ASM volatile ("ldrex %0, %1" : "=r" (result) : "Q" (*addr) );
 8006828:	6cfb      	ldr	r3, [r7, #76]	; 0x4c
 800682a:	e853 3f00 	ldrex	r3, [r3]
 800682e:	64bb      	str	r3, [r7, #72]	; 0x48
   return(result);
 8006830:	6cbb      	ldr	r3, [r7, #72]	; 0x48
 8006832:	f023 0310 	bic.w	r3, r3, #16
 8006836:	f8c7 30ac 	str.w	r3, [r7, #172]	; 0xac
 800683a:	687b      	ldr	r3, [r7, #4]
 800683c:	681b      	ldr	r3, [r3, #0]
 800683e:	330c      	adds	r3, #12
 8006840:	f8d7 20ac 	ldr.w	r2, [r7, #172]	; 0xac
 8006844:	65ba      	str	r2, [r7, #88]	; 0x58
 8006846:	657b      	str	r3, [r7, #84]	; 0x54
   __ASM volatile ("strex %0, %2, %1" : "=&r" (result), "=Q" (*addr) : "r" (value) );
 8006848:	6d79      	ldr	r1, [r7, #84]	; 0x54
 800684a:	6dba      	ldr	r2, [r7, #88]	; 0x58
 800684c:	e841 2300 	strex	r3, r2, [r1]
 8006850:	653b      	str	r3, [r7, #80]	; 0x50
   return(result);
 8006852:	6d3b      	ldr	r3, [r7, #80]	; 0x50
 8006854:	2b00      	cmp	r3, #0
 8006856:	d1e3      	bne.n	8006820 <HAL_UART_IRQHandler+0x380>

          /* Last bytes received, so no need as the abort is immediate */
          (void)HAL_DMA_Abort(huart->hdmarx);
 8006858:	687b      	ldr	r3, [r7, #4]
 800685a:	6bdb      	ldr	r3, [r3, #60]	; 0x3c
 800685c:	4618      	mov	r0, r3
 800685e:	f7fc f81e 	bl	800289e <HAL_DMA_Abort>
        }

        /* Initialize type of RxEvent that correspond to RxEvent callback execution;
        In this case, Rx Event type is Idle Event */
        huart->RxEventType = HAL_UART_RXEVENT_IDLE;
 8006862:	687b      	ldr	r3, [r7, #4]
 8006864:	2202      	movs	r2, #2
 8006866:	635a      	str	r2, [r3, #52]	; 0x34
#if (USE_HAL_UART_REGISTER_CALLBACKS == 1)
        /*Call registered Rx Event callback*/
        huart->RxEventCallback(huart, (huart->RxXferSize - huart->RxXferCount));
#else
        /*Call legacy weak Rx Event callback*/
        HAL_UARTEx_RxEventCallback(huart, (huart->RxXferSize - huart->RxXferCount));
 8006868:	687b      	ldr	r3, [r7, #4]
 800686a:	8d9a      	ldrh	r2, [r3, #44]	; 0x2c
 800686c:	687b      	ldr	r3, [r7, #4]
 800686e:	8ddb      	ldrh	r3, [r3, #46]	; 0x2e
 8006870:	b29b      	uxth	r3, r3
 8006872:	1ad3      	subs	r3, r2, r3
 8006874:	b29b      	uxth	r3, r3
 8006876:	4619      	mov	r1, r3
 8006878:	6878      	ldr	r0, [r7, #4]
 800687a:	f000 f8b7 	bl	80069ec <HAL_UARTEx_RxEventCallback>
#endif /* USE_HAL_UART_REGISTER_CALLBACKS */
      }
      return;
 800687e:	e09b      	b.n	80069b8 <HAL_UART_IRQHandler+0x518>
 8006880:	08006bf1 	.word	0x08006bf1
    else
    {
      /* DMA mode not enabled */
      /* Check received length : If all expected data are received, do nothing.
         Otherwise, if at least one data has already been received, IDLE event is to be notified to user */
      uint16_t nb_rx_data = huart->RxXferSize - huart->RxXferCount;
 8006884:	687b      	ldr	r3, [r7, #4]
 8006886:	8d9a      	ldrh	r2, [r3, #44]	; 0x2c
 8006888:	687b      	ldr	r3, [r7, #4]
 800688a:	8ddb      	ldrh	r3, [r3, #46]	; 0x2e
 800688c:	b29b      	uxth	r3, r3
 800688e:	1ad3      	subs	r3, r2, r3
 8006890:	f8a7 30ce 	strh.w	r3, [r7, #206]	; 0xce
      if ((huart->RxXferCount > 0U)
 8006894:	687b      	ldr	r3, [r7, #4]
 8006896:	8ddb      	ldrh	r3, [r3, #46]	; 0x2e
 8006898:	b29b      	uxth	r3, r3
 800689a:	2b00      	cmp	r3, #0
 800689c:	f000 808e 	beq.w	80069bc <HAL_UART_IRQHandler+0x51c>
          && (nb_rx_data > 0U))
 80068a0:	f8b7 30ce 	ldrh.w	r3, [r7, #206]	; 0xce
 80068a4:	2b00      	cmp	r3, #0
 80068a6:	f000 8089 	beq.w	80069bc <HAL_UART_IRQHandler+0x51c>
      {
        /* Disable the UART Parity Error Interrupt and RXNE interrupts */
        ATOMIC_CLEAR_BIT(huart->Instance->CR1, (USART_CR1_RXNEIE | USART_CR1_PEIE));
 80068aa:	687b      	ldr	r3, [r7, #4]
 80068ac:	681b      	ldr	r3, [r3, #0]
 80068ae:	330c      	adds	r3, #12
 80068b0:	63bb      	str	r3, [r7, #56]	; 0x38
   __ASM volatile ("ldrex %0, %1" : "=r" (result) : "Q" (*addr) );
 80068b2:	6bbb      	ldr	r3, [r7, #56]	; 0x38
 80068b4:	e853 3f00 	ldrex	r3, [r3]
 80068b8:	637b      	str	r3, [r7, #52]	; 0x34
   return(result);
 80068ba:	6b7b      	ldr	r3, [r7, #52]	; 0x34
 80068bc:	f423 7390 	bic.w	r3, r3, #288	; 0x120
 80068c0:	f8c7 30c8 	str.w	r3, [r7, #200]	; 0xc8
 80068c4:	687b      	ldr	r3, [r7, #4]
 80068c6:	681b      	ldr	r3, [r3, #0]
 80068c8:	330c      	adds	r3, #12
 80068ca:	f8d7 20c8 	ldr.w	r2, [r7, #200]	; 0xc8
 80068ce:	647a      	str	r2, [r7, #68]	; 0x44
 80068d0:	643b      	str	r3, [r7, #64]	; 0x40
   __ASM volatile ("strex %0, %2, %1" : "=&r" (result), "=Q" (*addr) : "r" (value) );
 80068d2:	6c39      	ldr	r1, [r7, #64]	; 0x40
 80068d4:	6c7a      	ldr	r2, [r7, #68]	; 0x44
 80068d6:	e841 2300 	strex	r3, r2, [r1]
 80068da:	63fb      	str	r3, [r7, #60]	; 0x3c
   return(result);
 80068dc:	6bfb      	ldr	r3, [r7, #60]	; 0x3c
 80068de:	2b00      	cmp	r3, #0
 80068e0:	d1e3      	bne.n	80068aa <HAL_UART_IRQHandler+0x40a>

        /* Disable the UART Error Interrupt: (Frame error, noise error, overrun error) */
        ATOMIC_CLEAR_BIT(huart->Instance->CR3, USART_CR3_EIE);
 80068e2:	687b      	ldr	r3, [r7, #4]
 80068e4:	681b      	ldr	r3, [r3, #0]
 80068e6:	3314      	adds	r3, #20
 80068e8:	627b      	str	r3, [r7, #36]	; 0x24
   __ASM volatile ("ldrex %0, %1" : "=r" (result) : "Q" (*addr) );
 80068ea:	6a7b      	ldr	r3, [r7, #36]	; 0x24
 80068ec:	e853 3f00 	ldrex	r3, [r3]
 80068f0:	623b      	str	r3, [r7, #32]
   return(result);
 80068f2:	6a3b      	ldr	r3, [r7, #32]
 80068f4:	f023 0301 	bic.w	r3, r3, #1
 80068f8:	f8c7 30c4 	str.w	r3, [r7, #196]	; 0xc4
 80068fc:	687b      	ldr	r3, [r7, #4]
 80068fe:	681b      	ldr	r3, [r3, #0]
 8006900:	3314      	adds	r3, #20
 8006902:	f8d7 20c4 	ldr.w	r2, [r7, #196]	; 0xc4
 8006906:	633a      	str	r2, [r7, #48]	; 0x30
 8006908:	62fb      	str	r3, [r7, #44]	; 0x2c
   __ASM volatile ("strex %0, %2, %1" : "=&r" (result), "=Q" (*addr) : "r" (value) );
 800690a:	6af9      	ldr	r1, [r7, #44]	; 0x2c
 800690c:	6b3a      	ldr	r2, [r7, #48]	; 0x30
 800690e:	e841 2300 	strex	r3, r2, [r1]
 8006912:	62bb      	str	r3, [r7, #40]	; 0x28
   return(result);
 8006914:	6abb      	ldr	r3, [r7, #40]	; 0x28
 8006916:	2b00      	cmp	r3, #0
 8006918:	d1e3      	bne.n	80068e2 <HAL_UART_IRQHandler+0x442>

        /* Rx process is completed, restore huart->RxState to Ready */
        huart->RxState = HAL_UART_STATE_READY;
 800691a:	687b      	ldr	r3, [r7, #4]
 800691c:	2220      	movs	r2, #32
 800691e:	f883 2042 	strb.w	r2, [r3, #66]	; 0x42
        huart->ReceptionType = HAL_UART_RECEPTION_STANDARD;
 8006922:	687b      	ldr	r3, [r7, #4]
 8006924:	2200      	movs	r2, #0
 8006926:	631a      	str	r2, [r3, #48]	; 0x30

        ATOMIC_CLEAR_BIT(huart->Instance->CR1, USART_CR1_IDLEIE);
 8006928:	687b      	ldr	r3, [r7, #4]
 800692a:	681b      	ldr	r3, [r3, #0]
 800692c:	330c      	adds	r3, #12
 800692e:	613b      	str	r3, [r7, #16]
   __ASM volatile ("ldrex %0, %1" : "=r" (result) : "Q" (*addr) );
 8006930:	693b      	ldr	r3, [r7, #16]
 8006932:	e853 3f00 	ldrex	r3, [r3]
 8006936:	60fb      	str	r3, [r7, #12]
   return(result);
 8006938:	68fb      	ldr	r3, [r7, #12]
 800693a:	f023 0310 	bic.w	r3, r3, #16
 800693e:	f8c7 30c0 	str.w	r3, [r7, #192]	; 0xc0
 8006942:	687b      	ldr	r3, [r7, #4]
 8006944:	681b      	ldr	r3, [r3, #0]
 8006946:	330c      	adds	r3, #12
 8006948:	f8d7 20c0 	ldr.w	r2, [r7, #192]	; 0xc0
 800694c:	61fa      	str	r2, [r7, #28]
 800694e:	61bb      	str	r3, [r7, #24]
   __ASM volatile ("strex %0, %2, %1" : "=&r" (result), "=Q" (*addr) : "r" (value) );
 8006950:	69b9      	ldr	r1, [r7, #24]
 8006952:	69fa      	ldr	r2, [r7, #28]
 8006954:	e841 2300 	strex	r3, r2, [r1]
 8006958:	617b      	str	r3, [r7, #20]
   return(result);
 800695a:	697b      	ldr	r3, [r7, #20]
 800695c:	2b00      	cmp	r3, #0
 800695e:	d1e3      	bne.n	8006928 <HAL_UART_IRQHandler+0x488>

        /* Initialize type of RxEvent that correspond to RxEvent callback execution;
           In this case, Rx Event type is Idle Event */
        huart->RxEventType = HAL_UART_RXEVENT_IDLE;
 8006960:	687b      	ldr	r3, [r7, #4]
 8006962:	2202      	movs	r2, #2
 8006964:	635a      	str	r2, [r3, #52]	; 0x34
#if (USE_HAL_UART_REGISTER_CALLBACKS == 1)
        /*Call registered Rx complete callback*/
        huart->RxEventCallback(huart, nb_rx_data);
#else
        /*Call legacy weak Rx Event callback*/
        HAL_UARTEx_RxEventCallback(huart, nb_rx_data);
 8006966:	f8b7 30ce 	ldrh.w	r3, [r7, #206]	; 0xce
 800696a:	4619      	mov	r1, r3
 800696c:	6878      	ldr	r0, [r7, #4]
 800696e:	f000 f83d 	bl	80069ec <HAL_UARTEx_RxEventCallback>
#endif /* USE_HAL_UART_REGISTER_CALLBACKS */
      }
      return;
 8006972:	e023      	b.n	80069bc <HAL_UART_IRQHandler+0x51c>
    }
  }

  /* UART in mode Transmitter ------------------------------------------------*/
  if (((isrflags & USART_SR_TXE) != RESET) && ((cr1its & USART_CR1_TXEIE) != RESET))
 8006974:	f8d7 30e4 	ldr.w	r3, [r7, #228]	; 0xe4
 8006978:	f003 0380 	and.w	r3, r3, #128	; 0x80
 800697c:	2b00      	cmp	r3, #0
 800697e:	d009      	beq.n	8006994 <HAL_UART_IRQHandler+0x4f4>
 8006980:	f8d7 30e0 	ldr.w	r3, [r7, #224]	; 0xe0
 8006984:	f003 0380 	and.w	r3, r3, #128	; 0x80
 8006988:	2b00      	cmp	r3, #0
 800698a:	d003      	beq.n	8006994 <HAL_UART_IRQHandler+0x4f4>
  {
    UART_Transmit_IT(huart);
 800698c:	6878      	ldr	r0, [r7, #4]
 800698e:	f000 f943 	bl	8006c18 <UART_Transmit_IT>
    return;
 8006992:	e014      	b.n	80069be <HAL_UART_IRQHandler+0x51e>
  }

  /* UART in mode Transmitter end --------------------------------------------*/
  if (((isrflags & USART_SR_TC) != RESET) && ((cr1its & USART_CR1_TCIE) != RESET))
 8006994:	f8d7 30e4 	ldr.w	r3, [r7, #228]	; 0xe4
 8006998:	f003 0340 	and.w	r3, r3, #64	; 0x40
 800699c:	2b00      	cmp	r3, #0
 800699e:	d00e      	beq.n	80069be <HAL_UART_IRQHandler+0x51e>
 80069a0:	f8d7 30e0 	ldr.w	r3, [r7, #224]	; 0xe0
 80069a4:	f003 0340 	and.w	r3, r3, #64	; 0x40
 80069a8:	2b00      	cmp	r3, #0
 80069aa:	d008      	beq.n	80069be <HAL_UART_IRQHandler+0x51e>
  {
    UART_EndTransmit_IT(huart);
 80069ac:	6878      	ldr	r0, [r7, #4]
 80069ae:	f000 f983 	bl	8006cb8 <UART_EndTransmit_IT>
    return;
 80069b2:	e004      	b.n	80069be <HAL_UART_IRQHandler+0x51e>
    return;
 80069b4:	bf00      	nop
 80069b6:	e002      	b.n	80069be <HAL_UART_IRQHandler+0x51e>
      return;
 80069b8:	bf00      	nop
 80069ba:	e000      	b.n	80069be <HAL_UART_IRQHandler+0x51e>
      return;
 80069bc:	bf00      	nop
  }
}
 80069be:	37e8      	adds	r7, #232	; 0xe8
 80069c0:	46bd      	mov	sp, r7
 80069c2:	bd80      	pop	{r7, pc}

080069c4 <HAL_UART_TxCpltCallback>:
  * @param  huart  Pointer to a UART_HandleTypeDef structure that contains
  *                the configuration information for the specified UART module.
  * @retval None
  */
__weak void HAL_UART_TxCpltCallback(UART_HandleTypeDef *huart)
{
 80069c4:	b480      	push	{r7}
 80069c6:	b083      	sub	sp, #12
 80069c8:	af00      	add	r7, sp, #0
 80069ca:	6078      	str	r0, [r7, #4]
  /* Prevent unused argument(s) compilation warning */
  UNUSED(huart);
  /* NOTE: This function should not be modified, when the callback is needed,
           the HAL_UART_TxCpltCallback could be implemented in the user file
   */
}
 80069cc:	bf00      	nop
 80069ce:	370c      	adds	r7, #12
 80069d0:	46bd      	mov	sp, r7
 80069d2:	f85d 7b04 	ldr.w	r7, [sp], #4
 80069d6:	4770      	bx	lr

080069d8 <HAL_UART_ErrorCallback>:
  * @param  huart  Pointer to a UART_HandleTypeDef structure that contains
  *                the configuration information for the specified UART module.
  * @retval None
  */
__weak void HAL_UART_ErrorCallback(UART_HandleTypeDef *huart)
{
 80069d8:	b480      	push	{r7}
 80069da:	b083      	sub	sp, #12
 80069dc:	af00      	add	r7, sp, #0
 80069de:	6078      	str	r0, [r7, #4]
  /* Prevent unused argument(s) compilation warning */
  UNUSED(huart);
  /* NOTE: This function should not be modified, when the callback is needed,
           the HAL_UART_ErrorCallback could be implemented in the user file
   */
}
 80069e0:	bf00      	nop
 80069e2:	370c      	adds	r7, #12
 80069e4:	46bd      	mov	sp, r7
 80069e6:	f85d 7b04 	ldr.w	r7, [sp], #4
 80069ea:	4770      	bx	lr

080069ec <HAL_UARTEx_RxEventCallback>:
  * @param  Size  Number of data available in application reception buffer (indicates a position in
  *               reception buffer until which, data are available)
  * @retval None
  */
__weak void HAL_UARTEx_RxEventCallback(UART_HandleTypeDef *huart, uint16_t Size)
{
 80069ec:	b480      	push	{r7}
 80069ee:	b083      	sub	sp, #12
 80069f0:	af00      	add	r7, sp, #0
 80069f2:	6078      	str	r0, [r7, #4]
 80069f4:	460b      	mov	r3, r1
 80069f6:	807b      	strh	r3, [r7, #2]
  UNUSED(Size);

  /* NOTE : This function should not be modified, when the callback is needed,
            the HAL_UARTEx_RxEventCallback can be implemented in the user file.
   */
}
 80069f8:	bf00      	nop
 80069fa:	370c      	adds	r7, #12
 80069fc:	46bd      	mov	sp, r7
 80069fe:	f85d 7b04 	ldr.w	r7, [sp], #4
 8006a02:	4770      	bx	lr

08006a04 <UART_WaitOnFlagUntilTimeout>:
  * @param  Timeout Timeout duration
  * @retval HAL status
  */
static HAL_StatusTypeDef UART_WaitOnFlagUntilTimeout(UART_HandleTypeDef *huart, uint32_t Flag, FlagStatus Status,
                                                     uint32_t Tickstart, uint32_t Timeout)
{
 8006a04:	b580      	push	{r7, lr}
 8006a06:	b086      	sub	sp, #24
 8006a08:	af00      	add	r7, sp, #0
 8006a0a:	60f8      	str	r0, [r7, #12]
 8006a0c:	60b9      	str	r1, [r7, #8]
 8006a0e:	603b      	str	r3, [r7, #0]
 8006a10:	4613      	mov	r3, r2
 8006a12:	71fb      	strb	r3, [r7, #7]
  /* Wait until flag is set */
  while ((__HAL_UART_GET_FLAG(huart, Flag) ? SET : RESET) == Status)
 8006a14:	e03b      	b.n	8006a8e <UART_WaitOnFlagUntilTimeout+0x8a>
  {
    /* Check for the Timeout */
    if (Timeout != HAL_MAX_DELAY)
 8006a16:	6a3b      	ldr	r3, [r7, #32]
 8006a18:	f1b3 3fff 	cmp.w	r3, #4294967295	; 0xffffffff
 8006a1c:	d037      	beq.n	8006a8e <UART_WaitOnFlagUntilTimeout+0x8a>
    {
      if (((HAL_GetTick() - Tickstart) > Timeout) || (Timeout == 0U))
 8006a1e:	f7fb fdfd 	bl	800261c <HAL_GetTick>
 8006a22:	4602      	mov	r2, r0
 8006a24:	683b      	ldr	r3, [r7, #0]
 8006a26:	1ad3      	subs	r3, r2, r3
 8006a28:	6a3a      	ldr	r2, [r7, #32]
 8006a2a:	429a      	cmp	r2, r3
 8006a2c:	d302      	bcc.n	8006a34 <UART_WaitOnFlagUntilTimeout+0x30>
 8006a2e:	6a3b      	ldr	r3, [r7, #32]
 8006a30:	2b00      	cmp	r3, #0
 8006a32:	d101      	bne.n	8006a38 <UART_WaitOnFlagUntilTimeout+0x34>
      {

        return HAL_TIMEOUT;
 8006a34:	2303      	movs	r3, #3
 8006a36:	e03a      	b.n	8006aae <UART_WaitOnFlagUntilTimeout+0xaa>
      }

      if ((READ_BIT(huart->Instance->CR1, USART_CR1_RE) != 0U) && (Flag != UART_FLAG_TXE) && (Flag != UART_FLAG_TC))
 8006a38:	68fb      	ldr	r3, [r7, #12]
 8006a3a:	681b      	ldr	r3, [r3, #0]
 8006a3c:	68db      	ldr	r3, [r3, #12]
 8006a3e:	f003 0304 	and.w	r3, r3, #4
 8006a42:	2b00      	cmp	r3, #0
 8006a44:	d023      	beq.n	8006a8e <UART_WaitOnFlagUntilTimeout+0x8a>
 8006a46:	68bb      	ldr	r3, [r7, #8]
 8006a48:	2b80      	cmp	r3, #128	; 0x80
 8006a4a:	d020      	beq.n	8006a8e <UART_WaitOnFlagUntilTimeout+0x8a>
 8006a4c:	68bb      	ldr	r3, [r7, #8]
 8006a4e:	2b40      	cmp	r3, #64	; 0x40
 8006a50:	d01d      	beq.n	8006a8e <UART_WaitOnFlagUntilTimeout+0x8a>
      {
        if (__HAL_UART_GET_FLAG(huart, UART_FLAG_ORE) == SET)
 8006a52:	68fb      	ldr	r3, [r7, #12]
 8006a54:	681b      	ldr	r3, [r3, #0]
 8006a56:	681b      	ldr	r3, [r3, #0]
 8006a58:	f003 0308 	and.w	r3, r3, #8
 8006a5c:	2b08      	cmp	r3, #8
 8006a5e:	d116      	bne.n	8006a8e <UART_WaitOnFlagUntilTimeout+0x8a>
        {
          /* Clear Overrun Error flag*/
          __HAL_UART_CLEAR_OREFLAG(huart);
 8006a60:	2300      	movs	r3, #0
 8006a62:	617b      	str	r3, [r7, #20]
 8006a64:	68fb      	ldr	r3, [r7, #12]
 8006a66:	681b      	ldr	r3, [r3, #0]
 8006a68:	681b      	ldr	r3, [r3, #0]
 8006a6a:	617b      	str	r3, [r7, #20]
 8006a6c:	68fb      	ldr	r3, [r7, #12]
 8006a6e:	681b      	ldr	r3, [r3, #0]
 8006a70:	685b      	ldr	r3, [r3, #4]
 8006a72:	617b      	str	r3, [r7, #20]
 8006a74:	697b      	ldr	r3, [r7, #20]

          /* Blocking error : transfer is aborted
          Set the UART state ready to be able to start again the process,
          Disable Rx Interrupts if ongoing */
          UART_EndRxTransfer(huart);
 8006a76:	68f8      	ldr	r0, [r7, #12]
 8006a78:	f000 f857 	bl	8006b2a <UART_EndRxTransfer>

          huart->ErrorCode = HAL_UART_ERROR_ORE;
 8006a7c:	68fb      	ldr	r3, [r7, #12]
 8006a7e:	2208      	movs	r2, #8
 8006a80:	645a      	str	r2, [r3, #68]	; 0x44

          /* Process Unlocked */
          __HAL_UNLOCK(huart);
 8006a82:	68fb      	ldr	r3, [r7, #12]
 8006a84:	2200      	movs	r2, #0
 8006a86:	f883 2040 	strb.w	r2, [r3, #64]	; 0x40

          return HAL_ERROR;
 8006a8a:	2301      	movs	r3, #1
 8006a8c:	e00f      	b.n	8006aae <UART_WaitOnFlagUntilTimeout+0xaa>
  while ((__HAL_UART_GET_FLAG(huart, Flag) ? SET : RESET) == Status)
 8006a8e:	68fb      	ldr	r3, [r7, #12]
 8006a90:	681b      	ldr	r3, [r3, #0]
 8006a92:	681a      	ldr	r2, [r3, #0]
 8006a94:	68bb      	ldr	r3, [r7, #8]
 8006a96:	4013      	ands	r3, r2
 8006a98:	68ba      	ldr	r2, [r7, #8]
 8006a9a:	429a      	cmp	r2, r3
 8006a9c:	bf0c      	ite	eq
 8006a9e:	2301      	moveq	r3, #1
 8006aa0:	2300      	movne	r3, #0
 8006aa2:	b2db      	uxtb	r3, r3
 8006aa4:	461a      	mov	r2, r3
 8006aa6:	79fb      	ldrb	r3, [r7, #7]
 8006aa8:	429a      	cmp	r2, r3
 8006aaa:	d0b4      	beq.n	8006a16 <UART_WaitOnFlagUntilTimeout+0x12>
        }
      }
    }
  }
  return HAL_OK;
 8006aac:	2300      	movs	r3, #0
}
 8006aae:	4618      	mov	r0, r3
 8006ab0:	3718      	adds	r7, #24
 8006ab2:	46bd      	mov	sp, r7
 8006ab4:	bd80      	pop	{r7, pc}

08006ab6 <UART_Start_Receive_IT>:
  * @param  pData Pointer to data buffer (u8 or u16 data elements).
  * @param  Size  Amount of data elements (u8 or u16) to be received.
  * @retval HAL status
  */
HAL_StatusTypeDef UART_Start_Receive_IT(UART_HandleTypeDef *huart, uint8_t *pData, uint16_t Size)
{
 8006ab6:	b480      	push	{r7}
 8006ab8:	b085      	sub	sp, #20
 8006aba:	af00      	add	r7, sp, #0
 8006abc:	60f8      	str	r0, [r7, #12]
 8006abe:	60b9      	str	r1, [r7, #8]
 8006ac0:	4613      	mov	r3, r2
 8006ac2:	80fb      	strh	r3, [r7, #6]
  huart->pRxBuffPtr = pData;
 8006ac4:	68fb      	ldr	r3, [r7, #12]
 8006ac6:	68ba      	ldr	r2, [r7, #8]
 8006ac8:	629a      	str	r2, [r3, #40]	; 0x28
  huart->RxXferSize = Size;
 8006aca:	68fb      	ldr	r3, [r7, #12]
 8006acc:	88fa      	ldrh	r2, [r7, #6]
 8006ace:	859a      	strh	r2, [r3, #44]	; 0x2c
  huart->RxXferCount = Size;
 8006ad0:	68fb      	ldr	r3, [r7, #12]
 8006ad2:	88fa      	ldrh	r2, [r7, #6]
 8006ad4:	85da      	strh	r2, [r3, #46]	; 0x2e

  huart->ErrorCode = HAL_UART_ERROR_NONE;
 8006ad6:	68fb      	ldr	r3, [r7, #12]
 8006ad8:	2200      	movs	r2, #0
 8006ada:	645a      	str	r2, [r3, #68]	; 0x44
  huart->RxState = HAL_UART_STATE_BUSY_RX;
 8006adc:	68fb      	ldr	r3, [r7, #12]
 8006ade:	2222      	movs	r2, #34	; 0x22
 8006ae0:	f883 2042 	strb.w	r2, [r3, #66]	; 0x42

  if (huart->Init.Parity != UART_PARITY_NONE)
 8006ae4:	68fb      	ldr	r3, [r7, #12]
 8006ae6:	691b      	ldr	r3, [r3, #16]
 8006ae8:	2b00      	cmp	r3, #0
 8006aea:	d007      	beq.n	8006afc <UART_Start_Receive_IT+0x46>
  {
    /* Enable the UART Parity Error Interrupt */
    __HAL_UART_ENABLE_IT(huart, UART_IT_PE);
 8006aec:	68fb      	ldr	r3, [r7, #12]
 8006aee:	681b      	ldr	r3, [r3, #0]
 8006af0:	68da      	ldr	r2, [r3, #12]
 8006af2:	68fb      	ldr	r3, [r7, #12]
 8006af4:	681b      	ldr	r3, [r3, #0]
 8006af6:	f442 7280 	orr.w	r2, r2, #256	; 0x100
 8006afa:	60da      	str	r2, [r3, #12]
  }

  /* Enable the UART Error Interrupt: (Frame error, noise error, overrun error) */
  __HAL_UART_ENABLE_IT(huart, UART_IT_ERR);
 8006afc:	68fb      	ldr	r3, [r7, #12]
 8006afe:	681b      	ldr	r3, [r3, #0]
 8006b00:	695a      	ldr	r2, [r3, #20]
 8006b02:	68fb      	ldr	r3, [r7, #12]
 8006b04:	681b      	ldr	r3, [r3, #0]
 8006b06:	f042 0201 	orr.w	r2, r2, #1
 8006b0a:	615a      	str	r2, [r3, #20]

  /* Enable the UART Data Register not empty Interrupt */
  __HAL_UART_ENABLE_IT(huart, UART_IT_RXNE);
 8006b0c:	68fb      	ldr	r3, [r7, #12]
 8006b0e:	681b      	ldr	r3, [r3, #0]
 8006b10:	68da      	ldr	r2, [r3, #12]
 8006b12:	68fb      	ldr	r3, [r7, #12]
 8006b14:	681b      	ldr	r3, [r3, #0]
 8006b16:	f042 0220 	orr.w	r2, r2, #32
 8006b1a:	60da      	str	r2, [r3, #12]

  return HAL_OK;
 8006b1c:	2300      	movs	r3, #0
}
 8006b1e:	4618      	mov	r0, r3
 8006b20:	3714      	adds	r7, #20
 8006b22:	46bd      	mov	sp, r7
 8006b24:	f85d 7b04 	ldr.w	r7, [sp], #4
 8006b28:	4770      	bx	lr

08006b2a <UART_EndRxTransfer>:
  * @brief  End ongoing Rx transfer on UART peripheral (following error detection or Reception completion).
  * @param  huart UART handle.
  * @retval None
  */
static void UART_EndRxTransfer(UART_HandleTypeDef *huart)
{
 8006b2a:	b480      	push	{r7}
 8006b2c:	b095      	sub	sp, #84	; 0x54
 8006b2e:	af00      	add	r7, sp, #0
 8006b30:	6078      	str	r0, [r7, #4]
  /* Disable RXNE, PE and ERR (Frame error, noise error, overrun error) interrupts */
  ATOMIC_CLEAR_BIT(huart->Instance->CR1, (USART_CR1_RXNEIE | USART_CR1_PEIE));
 8006b32:	687b      	ldr	r3, [r7, #4]
 8006b34:	681b      	ldr	r3, [r3, #0]
 8006b36:	330c      	adds	r3, #12
 8006b38:	637b      	str	r3, [r7, #52]	; 0x34
   __ASM volatile ("ldrex %0, %1" : "=r" (result) : "Q" (*addr) );
 8006b3a:	6b7b      	ldr	r3, [r7, #52]	; 0x34
 8006b3c:	e853 3f00 	ldrex	r3, [r3]
 8006b40:	633b      	str	r3, [r7, #48]	; 0x30
   return(result);
 8006b42:	6b3b      	ldr	r3, [r7, #48]	; 0x30
 8006b44:	f423 7390 	bic.w	r3, r3, #288	; 0x120
 8006b48:	64fb      	str	r3, [r7, #76]	; 0x4c
 8006b4a:	687b      	ldr	r3, [r7, #4]
 8006b4c:	681b      	ldr	r3, [r3, #0]
 8006b4e:	330c      	adds	r3, #12
 8006b50:	6cfa      	ldr	r2, [r7, #76]	; 0x4c
 8006b52:	643a      	str	r2, [r7, #64]	; 0x40
 8006b54:	63fb      	str	r3, [r7, #60]	; 0x3c
   __ASM volatile ("strex %0, %2, %1" : "=&r" (result), "=Q" (*addr) : "r" (value) );
 8006b56:	6bf9      	ldr	r1, [r7, #60]	; 0x3c
 8006b58:	6c3a      	ldr	r2, [r7, #64]	; 0x40
 8006b5a:	e841 2300 	strex	r3, r2, [r1]
 8006b5e:	63bb      	str	r3, [r7, #56]	; 0x38
   return(result);
 8006b60:	6bbb      	ldr	r3, [r7, #56]	; 0x38
 8006b62:	2b00      	cmp	r3, #0
 8006b64:	d1e5      	bne.n	8006b32 <UART_EndRxTransfer+0x8>
  ATOMIC_CLEAR_BIT(huart->Instance->CR3, USART_CR3_EIE);
 8006b66:	687b      	ldr	r3, [r7, #4]
 8006b68:	681b      	ldr	r3, [r3, #0]
 8006b6a:	3314      	adds	r3, #20
 8006b6c:	623b      	str	r3, [r7, #32]
   __ASM volatile ("ldrex %0, %1" : "=r" (result) : "Q" (*addr) );
 8006b6e:	6a3b      	ldr	r3, [r7, #32]
 8006b70:	e853 3f00 	ldrex	r3, [r3]
 8006b74:	61fb      	str	r3, [r7, #28]
   return(result);
 8006b76:	69fb      	ldr	r3, [r7, #28]
 8006b78:	f023 0301 	bic.w	r3, r3, #1
 8006b7c:	64bb      	str	r3, [r7, #72]	; 0x48
 8006b7e:	687b      	ldr	r3, [r7, #4]
 8006b80:	681b      	ldr	r3, [r3, #0]
 8006b82:	3314      	adds	r3, #20
 8006b84:	6cba      	ldr	r2, [r7, #72]	; 0x48
 8006b86:	62fa      	str	r2, [r7, #44]	; 0x2c
 8006b88:	62bb      	str	r3, [r7, #40]	; 0x28
   __ASM volatile ("strex %0, %2, %1" : "=&r" (result), "=Q" (*addr) : "r" (value) );
 8006b8a:	6ab9      	ldr	r1, [r7, #40]	; 0x28
 8006b8c:	6afa      	ldr	r2, [r7, #44]	; 0x2c
 8006b8e:	e841 2300 	strex	r3, r2, [r1]
 8006b92:	627b      	str	r3, [r7, #36]	; 0x24
   return(result);
 8006b94:	6a7b      	ldr	r3, [r7, #36]	; 0x24
 8006b96:	2b00      	cmp	r3, #0
 8006b98:	d1e5      	bne.n	8006b66 <UART_EndRxTransfer+0x3c>

  /* In case of reception waiting for IDLE event, disable also the IDLE IE interrupt source */
  if (huart->ReceptionType == HAL_UART_RECEPTION_TOIDLE)
 8006b9a:	687b      	ldr	r3, [r7, #4]
 8006b9c:	6b1b      	ldr	r3, [r3, #48]	; 0x30
 8006b9e:	2b01      	cmp	r3, #1
 8006ba0:	d119      	bne.n	8006bd6 <UART_EndRxTransfer+0xac>
  {
    ATOMIC_CLEAR_BIT(huart->Instance->CR1, USART_CR1_IDLEIE);
 8006ba2:	687b      	ldr	r3, [r7, #4]
 8006ba4:	681b      	ldr	r3, [r3, #0]
 8006ba6:	330c      	adds	r3, #12
 8006ba8:	60fb      	str	r3, [r7, #12]
   __ASM volatile ("ldrex %0, %1" : "=r" (result) : "Q" (*addr) );
 8006baa:	68fb      	ldr	r3, [r7, #12]
 8006bac:	e853 3f00 	ldrex	r3, [r3]
 8006bb0:	60bb      	str	r3, [r7, #8]
   return(result);
 8006bb2:	68bb      	ldr	r3, [r7, #8]
 8006bb4:	f023 0310 	bic.w	r3, r3, #16
 8006bb8:	647b      	str	r3, [r7, #68]	; 0x44
 8006bba:	687b      	ldr	r3, [r7, #4]
 8006bbc:	681b      	ldr	r3, [r3, #0]
 8006bbe:	330c      	adds	r3, #12
 8006bc0:	6c7a      	ldr	r2, [r7, #68]	; 0x44
 8006bc2:	61ba      	str	r2, [r7, #24]
 8006bc4:	617b      	str	r3, [r7, #20]
   __ASM volatile ("strex %0, %2, %1" : "=&r" (result), "=Q" (*addr) : "r" (value) );
 8006bc6:	6979      	ldr	r1, [r7, #20]
 8006bc8:	69ba      	ldr	r2, [r7, #24]
 8006bca:	e841 2300 	strex	r3, r2, [r1]
 8006bce:	613b      	str	r3, [r7, #16]
   return(result);
 8006bd0:	693b      	ldr	r3, [r7, #16]
 8006bd2:	2b00      	cmp	r3, #0
 8006bd4:	d1e5      	bne.n	8006ba2 <UART_EndRxTransfer+0x78>
  }

  /* At end of Rx process, restore huart->RxState to Ready */
  huart->RxState = HAL_UART_STATE_READY;
 8006bd6:	687b      	ldr	r3, [r7, #4]
 8006bd8:	2220      	movs	r2, #32
 8006bda:	f883 2042 	strb.w	r2, [r3, #66]	; 0x42
  huart->ReceptionType = HAL_UART_RECEPTION_STANDARD;
 8006bde:	687b      	ldr	r3, [r7, #4]
 8006be0:	2200      	movs	r2, #0
 8006be2:	631a      	str	r2, [r3, #48]	; 0x30
}
 8006be4:	bf00      	nop
 8006be6:	3754      	adds	r7, #84	; 0x54
 8006be8:	46bd      	mov	sp, r7
 8006bea:	f85d 7b04 	ldr.w	r7, [sp], #4
 8006bee:	4770      	bx	lr

08006bf0 <UART_DMAAbortOnError>:
  * @param  hdma  Pointer to a DMA_HandleTypeDef structure that contains
  *               the configuration information for the specified DMA module.
  * @retval None
  */
static void UART_DMAAbortOnError(DMA_HandleTypeDef *hdma)
{
 8006bf0:	b580      	push	{r7, lr}
 8006bf2:	b084      	sub	sp, #16
 8006bf4:	af00      	add	r7, sp, #0
 8006bf6:	6078      	str	r0, [r7, #4]
  UART_HandleTypeDef *huart = (UART_HandleTypeDef *)((DMA_HandleTypeDef *)hdma)->Parent;
 8006bf8:	687b      	ldr	r3, [r7, #4]
 8006bfa:	6b9b      	ldr	r3, [r3, #56]	; 0x38
 8006bfc:	60fb      	str	r3, [r7, #12]
  huart->RxXferCount = 0x00U;
 8006bfe:	68fb      	ldr	r3, [r7, #12]
 8006c00:	2200      	movs	r2, #0
 8006c02:	85da      	strh	r2, [r3, #46]	; 0x2e
  huart->TxXferCount = 0x00U;
 8006c04:	68fb      	ldr	r3, [r7, #12]
 8006c06:	2200      	movs	r2, #0
 8006c08:	84da      	strh	r2, [r3, #38]	; 0x26
#if (USE_HAL_UART_REGISTER_CALLBACKS == 1)
  /*Call registered error callback*/
  huart->ErrorCallback(huart);
#else
  /*Call legacy weak error callback*/
  HAL_UART_ErrorCallback(huart);
 8006c0a:	68f8      	ldr	r0, [r7, #12]
 8006c0c:	f7ff fee4 	bl	80069d8 <HAL_UART_ErrorCallback>
#endif /* USE_HAL_UART_REGISTER_CALLBACKS */
}
 8006c10:	bf00      	nop
 8006c12:	3710      	adds	r7, #16
 8006c14:	46bd      	mov	sp, r7
 8006c16:	bd80      	pop	{r7, pc}

08006c18 <UART_Transmit_IT>:
  * @param  huart  Pointer to a UART_HandleTypeDef structure that contains
  *                the configuration information for the specified UART module.
  * @retval HAL status
  */
static HAL_StatusTypeDef UART_Transmit_IT(UART_HandleTypeDef *huart)
{
 8006c18:	b480      	push	{r7}
 8006c1a:	b085      	sub	sp, #20
 8006c1c:	af00      	add	r7, sp, #0
 8006c1e:	6078      	str	r0, [r7, #4]
  const uint16_t *tmp;

  /* Check that a Tx process is ongoing */
  if (huart->gState == HAL_UART_STATE_BUSY_TX)
 8006c20:	687b      	ldr	r3, [r7, #4]
 8006c22:	f893 3041 	ldrb.w	r3, [r3, #65]	; 0x41
 8006c26:	b2db      	uxtb	r3, r3
 8006c28:	2b21      	cmp	r3, #33	; 0x21
 8006c2a:	d13e      	bne.n	8006caa <UART_Transmit_IT+0x92>
  {
    if ((huart->Init.WordLength == UART_WORDLENGTH_9B) && (huart->Init.Parity == UART_PARITY_NONE))
 8006c2c:	687b      	ldr	r3, [r7, #4]
 8006c2e:	689b      	ldr	r3, [r3, #8]
 8006c30:	f5b3 5f80 	cmp.w	r3, #4096	; 0x1000
 8006c34:	d114      	bne.n	8006c60 <UART_Transmit_IT+0x48>
 8006c36:	687b      	ldr	r3, [r7, #4]
 8006c38:	691b      	ldr	r3, [r3, #16]
 8006c3a:	2b00      	cmp	r3, #0
 8006c3c:	d110      	bne.n	8006c60 <UART_Transmit_IT+0x48>
    {
      tmp = (const uint16_t *) huart->pTxBuffPtr;
 8006c3e:	687b      	ldr	r3, [r7, #4]
 8006c40:	6a1b      	ldr	r3, [r3, #32]
 8006c42:	60fb      	str	r3, [r7, #12]
      huart->Instance->DR = (uint16_t)(*tmp & (uint16_t)0x01FF);
 8006c44:	68fb      	ldr	r3, [r7, #12]
 8006c46:	881b      	ldrh	r3, [r3, #0]
 8006c48:	461a      	mov	r2, r3
 8006c4a:	687b      	ldr	r3, [r7, #4]
 8006c4c:	681b      	ldr	r3, [r3, #0]
 8006c4e:	f3c2 0208 	ubfx	r2, r2, #0, #9
 8006c52:	605a      	str	r2, [r3, #4]
      huart->pTxBuffPtr += 2U;
 8006c54:	687b      	ldr	r3, [r7, #4]
 8006c56:	6a1b      	ldr	r3, [r3, #32]
 8006c58:	1c9a      	adds	r2, r3, #2
 8006c5a:	687b      	ldr	r3, [r7, #4]
 8006c5c:	621a      	str	r2, [r3, #32]
 8006c5e:	e008      	b.n	8006c72 <UART_Transmit_IT+0x5a>
    }
    else
    {
      huart->Instance->DR = (uint8_t)(*huart->pTxBuffPtr++ & (uint8_t)0x00FF);
 8006c60:	687b      	ldr	r3, [r7, #4]
 8006c62:	6a1b      	ldr	r3, [r3, #32]
 8006c64:	1c59      	adds	r1, r3, #1
 8006c66:	687a      	ldr	r2, [r7, #4]
 8006c68:	6211      	str	r1, [r2, #32]
 8006c6a:	781a      	ldrb	r2, [r3, #0]
 8006c6c:	687b      	ldr	r3, [r7, #4]
 8006c6e:	681b      	ldr	r3, [r3, #0]
 8006c70:	605a      	str	r2, [r3, #4]
    }

    if (--huart->TxXferCount == 0U)
 8006c72:	687b      	ldr	r3, [r7, #4]
 8006c74:	8cdb      	ldrh	r3, [r3, #38]	; 0x26
 8006c76:	b29b      	uxth	r3, r3
 8006c78:	3b01      	subs	r3, #1
 8006c7a:	b29b      	uxth	r3, r3
 8006c7c:	687a      	ldr	r2, [r7, #4]
 8006c7e:	4619      	mov	r1, r3
 8006c80:	84d1      	strh	r1, [r2, #38]	; 0x26
 8006c82:	2b00      	cmp	r3, #0
 8006c84:	d10f      	bne.n	8006ca6 <UART_Transmit_IT+0x8e>
    {
      /* Disable the UART Transmit Data Register Empty Interrupt */
      __HAL_UART_DISABLE_IT(huart, UART_IT_TXE);
 8006c86:	687b      	ldr	r3, [r7, #4]
 8006c88:	681b      	ldr	r3, [r3, #0]
 8006c8a:	68da      	ldr	r2, [r3, #12]
 8006c8c:	687b      	ldr	r3, [r7, #4]
 8006c8e:	681b      	ldr	r3, [r3, #0]
 8006c90:	f022 0280 	bic.w	r2, r2, #128	; 0x80
 8006c94:	60da      	str	r2, [r3, #12]

      /* Enable the UART Transmit Complete Interrupt */
      __HAL_UART_ENABLE_IT(huart, UART_IT_TC);
 8006c96:	687b      	ldr	r3, [r7, #4]
 8006c98:	681b      	ldr	r3, [r3, #0]
 8006c9a:	68da      	ldr	r2, [r3, #12]
 8006c9c:	687b      	ldr	r3, [r7, #4]
 8006c9e:	681b      	ldr	r3, [r3, #0]
 8006ca0:	f042 0240 	orr.w	r2, r2, #64	; 0x40
 8006ca4:	60da      	str	r2, [r3, #12]
    }
    return HAL_OK;
 8006ca6:	2300      	movs	r3, #0
 8006ca8:	e000      	b.n	8006cac <UART_Transmit_IT+0x94>
  }
  else
  {
    return HAL_BUSY;
 8006caa:	2302      	movs	r3, #2
  }
}
 8006cac:	4618      	mov	r0, r3
 8006cae:	3714      	adds	r7, #20
 8006cb0:	46bd      	mov	sp, r7
 8006cb2:	f85d 7b04 	ldr.w	r7, [sp], #4
 8006cb6:	4770      	bx	lr

08006cb8 <UART_EndTransmit_IT>:
  * @param  huart  Pointer to a UART_HandleTypeDef structure that contains
  *                the configuration information for the specified UART module.
  * @retval HAL status
  */
static HAL_StatusTypeDef UART_EndTransmit_IT(UART_HandleTypeDef *huart)
{
 8006cb8:	b580      	push	{r7, lr}
 8006cba:	b082      	sub	sp, #8
 8006cbc:	af00      	add	r7, sp, #0
 8006cbe:	6078      	str	r0, [r7, #4]
  /* Disable the UART Transmit Complete Interrupt */
  __HAL_UART_DISABLE_IT(huart, UART_IT_TC);
 8006cc0:	687b      	ldr	r3, [r7, #4]
 8006cc2:	681b      	ldr	r3, [r3, #0]
 8006cc4:	68da      	ldr	r2, [r3, #12]
 8006cc6:	687b      	ldr	r3, [r7, #4]
 8006cc8:	681b      	ldr	r3, [r3, #0]
 8006cca:	f022 0240 	bic.w	r2, r2, #64	; 0x40
 8006cce:	60da      	str	r2, [r3, #12]

  /* Tx process is ended, restore huart->gState to Ready */
  huart->gState = HAL_UART_STATE_READY;
 8006cd0:	687b      	ldr	r3, [r7, #4]
 8006cd2:	2220      	movs	r2, #32
 8006cd4:	f883 2041 	strb.w	r2, [r3, #65]	; 0x41
#if (USE_HAL_UART_REGISTER_CALLBACKS == 1)
  /*Call registered Tx complete callback*/
  huart->TxCpltCallback(huart);
#else
  /*Call legacy weak Tx complete callback*/
  HAL_UART_TxCpltCallback(huart);
 8006cd8:	6878      	ldr	r0, [r7, #4]
 8006cda:	f7ff fe73 	bl	80069c4 <HAL_UART_TxCpltCallback>
#endif /* USE_HAL_UART_REGISTER_CALLBACKS */

  return HAL_OK;
 8006cde:	2300      	movs	r3, #0
}
 8006ce0:	4618      	mov	r0, r3
 8006ce2:	3708      	adds	r7, #8
 8006ce4:	46bd      	mov	sp, r7
 8006ce6:	bd80      	pop	{r7, pc}

08006ce8 <UART_Receive_IT>:
  * @param  huart  Pointer to a UART_HandleTypeDef structure that contains
  *                the configuration information for the specified UART module.
  * @retval HAL status
  */
static HAL_StatusTypeDef UART_Receive_IT(UART_HandleTypeDef *huart)
{
 8006ce8:	b580      	push	{r7, lr}
 8006cea:	b08c      	sub	sp, #48	; 0x30
 8006cec:	af00      	add	r7, sp, #0
 8006cee:	6078      	str	r0, [r7, #4]
  uint8_t  *pdata8bits;
  uint16_t *pdata16bits;

  /* Check that a Rx process is ongoing */
  if (huart->RxState == HAL_UART_STATE_BUSY_RX)
 8006cf0:	687b      	ldr	r3, [r7, #4]
 8006cf2:	f893 3042 	ldrb.w	r3, [r3, #66]	; 0x42
 8006cf6:	b2db      	uxtb	r3, r3
 8006cf8:	2b22      	cmp	r3, #34	; 0x22
 8006cfa:	f040 80ae 	bne.w	8006e5a <UART_Receive_IT+0x172>
  {
    if ((huart->Init.WordLength == UART_WORDLENGTH_9B) && (huart->Init.Parity == UART_PARITY_NONE))
 8006cfe:	687b      	ldr	r3, [r7, #4]
 8006d00:	689b      	ldr	r3, [r3, #8]
 8006d02:	f5b3 5f80 	cmp.w	r3, #4096	; 0x1000
 8006d06:	d117      	bne.n	8006d38 <UART_Receive_IT+0x50>
 8006d08:	687b      	ldr	r3, [r7, #4]
 8006d0a:	691b      	ldr	r3, [r3, #16]
 8006d0c:	2b00      	cmp	r3, #0
 8006d0e:	d113      	bne.n	8006d38 <UART_Receive_IT+0x50>
    {
      pdata8bits  = NULL;
 8006d10:	2300      	movs	r3, #0
 8006d12:	62fb      	str	r3, [r7, #44]	; 0x2c
      pdata16bits = (uint16_t *) huart->pRxBuffPtr;
 8006d14:	687b      	ldr	r3, [r7, #4]
 8006d16:	6a9b      	ldr	r3, [r3, #40]	; 0x28
 8006d18:	62bb      	str	r3, [r7, #40]	; 0x28
      *pdata16bits = (uint16_t)(huart->Instance->DR & (uint16_t)0x01FF);
 8006d1a:	687b      	ldr	r3, [r7, #4]
 8006d1c:	681b      	ldr	r3, [r3, #0]
 8006d1e:	685b      	ldr	r3, [r3, #4]
 8006d20:	b29b      	uxth	r3, r3
 8006d22:	f3c3 0308 	ubfx	r3, r3, #0, #9
 8006d26:	b29a      	uxth	r2, r3
 8006d28:	6abb      	ldr	r3, [r7, #40]	; 0x28
 8006d2a:	801a      	strh	r2, [r3, #0]
      huart->pRxBuffPtr += 2U;
 8006d2c:	687b      	ldr	r3, [r7, #4]
 8006d2e:	6a9b      	ldr	r3, [r3, #40]	; 0x28
 8006d30:	1c9a      	adds	r2, r3, #2
 8006d32:	687b      	ldr	r3, [r7, #4]
 8006d34:	629a      	str	r2, [r3, #40]	; 0x28
 8006d36:	e026      	b.n	8006d86 <UART_Receive_IT+0x9e>
    }
    else
    {
      pdata8bits = (uint8_t *) huart->pRxBuffPtr;
 8006d38:	687b      	ldr	r3, [r7, #4]
 8006d3a:	6a9b      	ldr	r3, [r3, #40]	; 0x28
 8006d3c:	62fb      	str	r3, [r7, #44]	; 0x2c
      pdata16bits  = NULL;
 8006d3e:	2300      	movs	r3, #0
 8006d40:	62bb      	str	r3, [r7, #40]	; 0x28

      if ((huart->Init.WordLength == UART_WORDLENGTH_9B) || ((huart->Init.WordLength == UART_WORDLENGTH_8B) && (huart->Init.Parity == UART_PARITY_NONE)))
 8006d42:	687b      	ldr	r3, [r7, #4]
 8006d44:	689b      	ldr	r3, [r3, #8]
 8006d46:	f5b3 5f80 	cmp.w	r3, #4096	; 0x1000
 8006d4a:	d007      	beq.n	8006d5c <UART_Receive_IT+0x74>
 8006d4c:	687b      	ldr	r3, [r7, #4]
 8006d4e:	689b      	ldr	r3, [r3, #8]
 8006d50:	2b00      	cmp	r3, #0
 8006d52:	d10a      	bne.n	8006d6a <UART_Receive_IT+0x82>
 8006d54:	687b      	ldr	r3, [r7, #4]
 8006d56:	691b      	ldr	r3, [r3, #16]
 8006d58:	2b00      	cmp	r3, #0
 8006d5a:	d106      	bne.n	8006d6a <UART_Receive_IT+0x82>
      {
        *pdata8bits = (uint8_t)(huart->Instance->DR & (uint8_t)0x00FF);
 8006d5c:	687b      	ldr	r3, [r7, #4]
 8006d5e:	681b      	ldr	r3, [r3, #0]
 8006d60:	685b      	ldr	r3, [r3, #4]
 8006d62:	b2da      	uxtb	r2, r3
 8006d64:	6afb      	ldr	r3, [r7, #44]	; 0x2c
 8006d66:	701a      	strb	r2, [r3, #0]
 8006d68:	e008      	b.n	8006d7c <UART_Receive_IT+0x94>
      }
      else
      {
        *pdata8bits = (uint8_t)(huart->Instance->DR & (uint8_t)0x007F);
 8006d6a:	687b      	ldr	r3, [r7, #4]
 8006d6c:	681b      	ldr	r3, [r3, #0]
 8006d6e:	685b      	ldr	r3, [r3, #4]
 8006d70:	b2db      	uxtb	r3, r3
 8006d72:	f003 037f 	and.w	r3, r3, #127	; 0x7f
 8006d76:	b2da      	uxtb	r2, r3
 8006d78:	6afb      	ldr	r3, [r7, #44]	; 0x2c
 8006d7a:	701a      	strb	r2, [r3, #0]
      }
      huart->pRxBuffPtr += 1U;
 8006d7c:	687b      	ldr	r3, [r7, #4]
 8006d7e:	6a9b      	ldr	r3, [r3, #40]	; 0x28
 8006d80:	1c5a      	adds	r2, r3, #1
 8006d82:	687b      	ldr	r3, [r7, #4]
 8006d84:	629a      	str	r2, [r3, #40]	; 0x28
    }

    if (--huart->RxXferCount == 0U)
 8006d86:	687b      	ldr	r3, [r7, #4]
 8006d88:	8ddb      	ldrh	r3, [r3, #46]	; 0x2e
 8006d8a:	b29b      	uxth	r3, r3
 8006d8c:	3b01      	subs	r3, #1
 8006d8e:	b29b      	uxth	r3, r3
 8006d90:	687a      	ldr	r2, [r7, #4]
 8006d92:	4619      	mov	r1, r3
 8006d94:	85d1      	strh	r1, [r2, #46]	; 0x2e
 8006d96:	2b00      	cmp	r3, #0
 8006d98:	d15d      	bne.n	8006e56 <UART_Receive_IT+0x16e>
    {
      /* Disable the UART Data Register not empty Interrupt */
      __HAL_UART_DISABLE_IT(huart, UART_IT_RXNE);
 8006d9a:	687b      	ldr	r3, [r7, #4]
 8006d9c:	681b      	ldr	r3, [r3, #0]
 8006d9e:	68da      	ldr	r2, [r3, #12]
 8006da0:	687b      	ldr	r3, [r7, #4]
 8006da2:	681b      	ldr	r3, [r3, #0]
 8006da4:	f022 0220 	bic.w	r2, r2, #32
 8006da8:	60da      	str	r2, [r3, #12]

      /* Disable the UART Parity Error Interrupt */
      __HAL_UART_DISABLE_IT(huart, UART_IT_PE);
 8006daa:	687b      	ldr	r3, [r7, #4]
 8006dac:	681b      	ldr	r3, [r3, #0]
 8006dae:	68da      	ldr	r2, [r3, #12]
 8006db0:	687b      	ldr	r3, [r7, #4]
 8006db2:	681b      	ldr	r3, [r3, #0]
 8006db4:	f422 7280 	bic.w	r2, r2, #256	; 0x100
 8006db8:	60da      	str	r2, [r3, #12]

      /* Disable the UART Error Interrupt: (Frame error, noise error, overrun error) */
      __HAL_UART_DISABLE_IT(huart, UART_IT_ERR);
 8006dba:	687b      	ldr	r3, [r7, #4]
 8006dbc:	681b      	ldr	r3, [r3, #0]
 8006dbe:	695a      	ldr	r2, [r3, #20]
 8006dc0:	687b      	ldr	r3, [r7, #4]
 8006dc2:	681b      	ldr	r3, [r3, #0]
 8006dc4:	f022 0201 	bic.w	r2, r2, #1
 8006dc8:	615a      	str	r2, [r3, #20]

      /* Rx process is completed, restore huart->RxState to Ready */
      huart->RxState = HAL_UART_STATE_READY;
 8006dca:	687b      	ldr	r3, [r7, #4]
 8006dcc:	2220      	movs	r2, #32
 8006dce:	f883 2042 	strb.w	r2, [r3, #66]	; 0x42

      /* Initialize type of RxEvent to Transfer Complete */
      huart->RxEventType = HAL_UART_RXEVENT_TC;
 8006dd2:	687b      	ldr	r3, [r7, #4]
 8006dd4:	2200      	movs	r2, #0
 8006dd6:	635a      	str	r2, [r3, #52]	; 0x34

      /* Check current reception Mode :
         If Reception till IDLE event has been selected : */
      if (huart->ReceptionType == HAL_UART_RECEPTION_TOIDLE)
 8006dd8:	687b      	ldr	r3, [r7, #4]
 8006dda:	6b1b      	ldr	r3, [r3, #48]	; 0x30
 8006ddc:	2b01      	cmp	r3, #1
 8006dde:	d135      	bne.n	8006e4c <UART_Receive_IT+0x164>
      {
        /* Set reception type to Standard */
        huart->ReceptionType = HAL_UART_RECEPTION_STANDARD;
 8006de0:	687b      	ldr	r3, [r7, #4]
 8006de2:	2200      	movs	r2, #0
 8006de4:	631a      	str	r2, [r3, #48]	; 0x30

        /* Disable IDLE interrupt */
        ATOMIC_CLEAR_BIT(huart->Instance->CR1, USART_CR1_IDLEIE);
 8006de6:	687b      	ldr	r3, [r7, #4]
 8006de8:	681b      	ldr	r3, [r3, #0]
 8006dea:	330c      	adds	r3, #12
 8006dec:	617b      	str	r3, [r7, #20]
   __ASM volatile ("ldrex %0, %1" : "=r" (result) : "Q" (*addr) );
 8006dee:	697b      	ldr	r3, [r7, #20]
 8006df0:	e853 3f00 	ldrex	r3, [r3]
 8006df4:	613b      	str	r3, [r7, #16]
   return(result);
 8006df6:	693b      	ldr	r3, [r7, #16]
 8006df8:	f023 0310 	bic.w	r3, r3, #16
 8006dfc:	627b      	str	r3, [r7, #36]	; 0x24
 8006dfe:	687b      	ldr	r3, [r7, #4]
 8006e00:	681b      	ldr	r3, [r3, #0]
 8006e02:	330c      	adds	r3, #12
 8006e04:	6a7a      	ldr	r2, [r7, #36]	; 0x24
 8006e06:	623a      	str	r2, [r7, #32]
 8006e08:	61fb      	str	r3, [r7, #28]
   __ASM volatile ("strex %0, %2, %1" : "=&r" (result), "=Q" (*addr) : "r" (value) );
 8006e0a:	69f9      	ldr	r1, [r7, #28]
 8006e0c:	6a3a      	ldr	r2, [r7, #32]
 8006e0e:	e841 2300 	strex	r3, r2, [r1]
 8006e12:	61bb      	str	r3, [r7, #24]
   return(result);
 8006e14:	69bb      	ldr	r3, [r7, #24]
 8006e16:	2b00      	cmp	r3, #0
 8006e18:	d1e5      	bne.n	8006de6 <UART_Receive_IT+0xfe>

        /* Check if IDLE flag is set */
        if (__HAL_UART_GET_FLAG(huart, UART_FLAG_IDLE))
 8006e1a:	687b      	ldr	r3, [r7, #4]
 8006e1c:	681b      	ldr	r3, [r3, #0]
 8006e1e:	681b      	ldr	r3, [r3, #0]
 8006e20:	f003 0310 	and.w	r3, r3, #16
 8006e24:	2b10      	cmp	r3, #16
 8006e26:	d10a      	bne.n	8006e3e <UART_Receive_IT+0x156>
        {
          /* Clear IDLE flag in ISR */
          __HAL_UART_CLEAR_IDLEFLAG(huart);
 8006e28:	2300      	movs	r3, #0
 8006e2a:	60fb      	str	r3, [r7, #12]
 8006e2c:	687b      	ldr	r3, [r7, #4]
 8006e2e:	681b      	ldr	r3, [r3, #0]
 8006e30:	681b      	ldr	r3, [r3, #0]
 8006e32:	60fb      	str	r3, [r7, #12]
 8006e34:	687b      	ldr	r3, [r7, #4]
 8006e36:	681b      	ldr	r3, [r3, #0]
 8006e38:	685b      	ldr	r3, [r3, #4]
 8006e3a:	60fb      	str	r3, [r7, #12]
 8006e3c:	68fb      	ldr	r3, [r7, #12]
#if (USE_HAL_UART_REGISTER_CALLBACKS == 1)
        /*Call registered Rx Event callback*/
        huart->RxEventCallback(huart, huart->RxXferSize);
#else
        /*Call legacy weak Rx Event callback*/
        HAL_UARTEx_RxEventCallback(huart, huart->RxXferSize);
 8006e3e:	687b      	ldr	r3, [r7, #4]
 8006e40:	8d9b      	ldrh	r3, [r3, #44]	; 0x2c
 8006e42:	4619      	mov	r1, r3
 8006e44:	6878      	ldr	r0, [r7, #4]
 8006e46:	f7ff fdd1 	bl	80069ec <HAL_UARTEx_RxEventCallback>
 8006e4a:	e002      	b.n	8006e52 <UART_Receive_IT+0x16a>
#if (USE_HAL_UART_REGISTER_CALLBACKS == 1)
        /*Call registered Rx complete callback*/
        huart->RxCpltCallback(huart);
#else
        /*Call legacy weak Rx complete callback*/
        HAL_UART_RxCpltCallback(huart);
 8006e4c:	6878      	ldr	r0, [r7, #4]
 8006e4e:	f7fb faf3 	bl	8002438 <HAL_UART_RxCpltCallback>
#endif /* USE_HAL_UART_REGISTER_CALLBACKS */
      }

      return HAL_OK;
 8006e52:	2300      	movs	r3, #0
 8006e54:	e002      	b.n	8006e5c <UART_Receive_IT+0x174>
    }
    return HAL_OK;
 8006e56:	2300      	movs	r3, #0
 8006e58:	e000      	b.n	8006e5c <UART_Receive_IT+0x174>
  }
  else
  {
    return HAL_BUSY;
 8006e5a:	2302      	movs	r3, #2
  }
}
 8006e5c:	4618      	mov	r0, r3
 8006e5e:	3730      	adds	r7, #48	; 0x30
 8006e60:	46bd      	mov	sp, r7
 8006e62:	bd80      	pop	{r7, pc}

08006e64 <UART_SetConfig>:
  * @param  huart  Pointer to a UART_HandleTypeDef structure that contains
  *                the configuration information for the specified UART module.
  * @retval None
  */
static void UART_SetConfig(UART_HandleTypeDef *huart)
{
 8006e64:	e92d 4fb0 	stmdb	sp!, {r4, r5, r7, r8, r9, sl, fp, lr}
 8006e68:	b0c0      	sub	sp, #256	; 0x100
 8006e6a:	af00      	add	r7, sp, #0
 8006e6c:	f8c7 00f4 	str.w	r0, [r7, #244]	; 0xf4
  assert_param(IS_UART_MODE(huart->Init.Mode));

  /*-------------------------- USART CR2 Configuration -----------------------*/
  /* Configure the UART Stop Bits: Set STOP[13:12] bits
     according to huart->Init.StopBits value */
  MODIFY_REG(huart->Instance->CR2, USART_CR2_STOP, huart->Init.StopBits);
 8006e70:	f8d7 30f4 	ldr.w	r3, [r7, #244]	; 0xf4
 8006e74:	681b      	ldr	r3, [r3, #0]
 8006e76:	691b      	ldr	r3, [r3, #16]
 8006e78:	f423 5040 	bic.w	r0, r3, #12288	; 0x3000
 8006e7c:	f8d7 30f4 	ldr.w	r3, [r7, #244]	; 0xf4
 8006e80:	68d9      	ldr	r1, [r3, #12]
 8006e82:	f8d7 30f4 	ldr.w	r3, [r7, #244]	; 0xf4
 8006e86:	681a      	ldr	r2, [r3, #0]
 8006e88:	ea40 0301 	orr.w	r3, r0, r1
 8006e8c:	6113      	str	r3, [r2, #16]
     Set the M bits according to huart->Init.WordLength value
     Set PCE and PS bits according to huart->Init.Parity value
     Set TE and RE bits according to huart->Init.Mode value
     Set OVER8 bit according to huart->Init.OverSampling value */

  tmpreg = (uint32_t)huart->Init.WordLength | huart->Init.Parity | huart->Init.Mode | huart->Init.OverSampling;
 8006e8e:	f8d7 30f4 	ldr.w	r3, [r7, #244]	; 0xf4
 8006e92:	689a      	ldr	r2, [r3, #8]
 8006e94:	f8d7 30f4 	ldr.w	r3, [r7, #244]	; 0xf4
 8006e98:	691b      	ldr	r3, [r3, #16]
 8006e9a:	431a      	orrs	r2, r3
 8006e9c:	f8d7 30f4 	ldr.w	r3, [r7, #244]	; 0xf4
 8006ea0:	695b      	ldr	r3, [r3, #20]
 8006ea2:	431a      	orrs	r2, r3
 8006ea4:	f8d7 30f4 	ldr.w	r3, [r7, #244]	; 0xf4
 8006ea8:	69db      	ldr	r3, [r3, #28]
 8006eaa:	4313      	orrs	r3, r2
 8006eac:	f8c7 30f8 	str.w	r3, [r7, #248]	; 0xf8
  MODIFY_REG(huart->Instance->CR1,
 8006eb0:	f8d7 30f4 	ldr.w	r3, [r7, #244]	; 0xf4
 8006eb4:	681b      	ldr	r3, [r3, #0]
 8006eb6:	68db      	ldr	r3, [r3, #12]
 8006eb8:	f423 4116 	bic.w	r1, r3, #38400	; 0x9600
 8006ebc:	f021 010c 	bic.w	r1, r1, #12
 8006ec0:	f8d7 30f4 	ldr.w	r3, [r7, #244]	; 0xf4
 8006ec4:	681a      	ldr	r2, [r3, #0]
 8006ec6:	f8d7 30f8 	ldr.w	r3, [r7, #248]	; 0xf8
 8006eca:	430b      	orrs	r3, r1
 8006ecc:	60d3      	str	r3, [r2, #12]
             (uint32_t)(USART_CR1_M | USART_CR1_PCE | USART_CR1_PS | USART_CR1_TE | USART_CR1_RE | USART_CR1_OVER8),
             tmpreg);

  /*-------------------------- USART CR3 Configuration -----------------------*/
  /* Configure the UART HFC: Set CTSE and RTSE bits according to huart->Init.HwFlowCtl value */
  MODIFY_REG(huart->Instance->CR3, (USART_CR3_RTSE | USART_CR3_CTSE), huart->Init.HwFlowCtl);
 8006ece:	f8d7 30f4 	ldr.w	r3, [r7, #244]	; 0xf4
 8006ed2:	681b      	ldr	r3, [r3, #0]
 8006ed4:	695b      	ldr	r3, [r3, #20]
 8006ed6:	f423 7040 	bic.w	r0, r3, #768	; 0x300
 8006eda:	f8d7 30f4 	ldr.w	r3, [r7, #244]	; 0xf4
 8006ede:	6999      	ldr	r1, [r3, #24]
 8006ee0:	f8d7 30f4 	ldr.w	r3, [r7, #244]	; 0xf4
 8006ee4:	681a      	ldr	r2, [r3, #0]
 8006ee6:	ea40 0301 	orr.w	r3, r0, r1
 8006eea:	6153      	str	r3, [r2, #20]
    if ((huart->Instance == USART1) || (huart->Instance == USART6) || (huart->Instance == UART9) || (huart->Instance == UART10))
    {
      pclk = HAL_RCC_GetPCLK2Freq();
    }
#elif defined(USART6)
    if ((huart->Instance == USART1) || (huart->Instance == USART6))
 8006eec:	f8d7 30f4 	ldr.w	r3, [r7, #244]	; 0xf4
 8006ef0:	681a      	ldr	r2, [r3, #0]
 8006ef2:	4b8f      	ldr	r3, [pc, #572]	; (8007130 <UART_SetConfig+0x2cc>)
 8006ef4:	429a      	cmp	r2, r3
 8006ef6:	d005      	beq.n	8006f04 <UART_SetConfig+0xa0>
 8006ef8:	f8d7 30f4 	ldr.w	r3, [r7, #244]	; 0xf4
 8006efc:	681a      	ldr	r2, [r3, #0]
 8006efe:	4b8d      	ldr	r3, [pc, #564]	; (8007134 <UART_SetConfig+0x2d0>)
 8006f00:	429a      	cmp	r2, r3
 8006f02:	d104      	bne.n	8006f0e <UART_SetConfig+0xaa>
    {
      pclk = HAL_RCC_GetPCLK2Freq();
 8006f04:	f7fd fbf8 	bl	80046f8 <HAL_RCC_GetPCLK2Freq>
 8006f08:	f8c7 00fc 	str.w	r0, [r7, #252]	; 0xfc
 8006f0c:	e003      	b.n	8006f16 <UART_SetConfig+0xb2>
      pclk = HAL_RCC_GetPCLK2Freq();
    }
#endif /* USART6 */
    else
    {
      pclk = HAL_RCC_GetPCLK1Freq();
 8006f0e:	f7fd fbdf 	bl	80046d0 <HAL_RCC_GetPCLK1Freq>
 8006f12:	f8c7 00fc 	str.w	r0, [r7, #252]	; 0xfc
    }
  /*-------------------------- USART BRR Configuration ---------------------*/
  if (huart->Init.OverSampling == UART_OVERSAMPLING_8)
 8006f16:	f8d7 30f4 	ldr.w	r3, [r7, #244]	; 0xf4
 8006f1a:	69db      	ldr	r3, [r3, #28]
 8006f1c:	f5b3 4f00 	cmp.w	r3, #32768	; 0x8000
 8006f20:	f040 810c 	bne.w	800713c <UART_SetConfig+0x2d8>
  {
    huart->Instance->BRR = UART_BRR_SAMPLING8(pclk, huart->Init.BaudRate);
 8006f24:	f8d7 30fc 	ldr.w	r3, [r7, #252]	; 0xfc
 8006f28:	2200      	movs	r2, #0
 8006f2a:	f8c7 30e8 	str.w	r3, [r7, #232]	; 0xe8
 8006f2e:	f8c7 20ec 	str.w	r2, [r7, #236]	; 0xec
 8006f32:	e9d7 453a 	ldrd	r4, r5, [r7, #232]	; 0xe8
 8006f36:	4622      	mov	r2, r4
 8006f38:	462b      	mov	r3, r5
 8006f3a:	1891      	adds	r1, r2, r2
 8006f3c:	65b9      	str	r1, [r7, #88]	; 0x58
 8006f3e:	415b      	adcs	r3, r3
 8006f40:	65fb      	str	r3, [r7, #92]	; 0x5c
 8006f42:	e9d7 2316 	ldrd	r2, r3, [r7, #88]	; 0x58
 8006f46:	4621      	mov	r1, r4
 8006f48:	eb12 0801 	adds.w	r8, r2, r1
 8006f4c:	4629      	mov	r1, r5
 8006f4e:	eb43 0901 	adc.w	r9, r3, r1
 8006f52:	f04f 0200 	mov.w	r2, #0
 8006f56:	f04f 0300 	mov.w	r3, #0
 8006f5a:	ea4f 03c9 	mov.w	r3, r9, lsl #3
 8006f5e:	ea43 7358 	orr.w	r3, r3, r8, lsr #29
 8006f62:	ea4f 02c8 	mov.w	r2, r8, lsl #3
 8006f66:	4690      	mov	r8, r2
 8006f68:	4699      	mov	r9, r3
 8006f6a:	4623      	mov	r3, r4
 8006f6c:	eb18 0303 	adds.w	r3, r8, r3
 8006f70:	f8c7 30e0 	str.w	r3, [r7, #224]	; 0xe0
 8006f74:	462b      	mov	r3, r5
 8006f76:	eb49 0303 	adc.w	r3, r9, r3
 8006f7a:	f8c7 30e4 	str.w	r3, [r7, #228]	; 0xe4
 8006f7e:	f8d7 30f4 	ldr.w	r3, [r7, #244]	; 0xf4
 8006f82:	685b      	ldr	r3, [r3, #4]
 8006f84:	2200      	movs	r2, #0
 8006f86:	f8c7 30d8 	str.w	r3, [r7, #216]	; 0xd8
 8006f8a:	f8c7 20dc 	str.w	r2, [r7, #220]	; 0xdc
 8006f8e:	e9d7 1236 	ldrd	r1, r2, [r7, #216]	; 0xd8
 8006f92:	460b      	mov	r3, r1
 8006f94:	18db      	adds	r3, r3, r3
 8006f96:	653b      	str	r3, [r7, #80]	; 0x50
 8006f98:	4613      	mov	r3, r2
 8006f9a:	eb42 0303 	adc.w	r3, r2, r3
 8006f9e:	657b      	str	r3, [r7, #84]	; 0x54
 8006fa0:	e9d7 2314 	ldrd	r2, r3, [r7, #80]	; 0x50
 8006fa4:	e9d7 0138 	ldrd	r0, r1, [r7, #224]	; 0xe0
 8006fa8:	f7f9 f928 	bl	80001fc <__aeabi_uldivmod>
 8006fac:	4602      	mov	r2, r0
 8006fae:	460b      	mov	r3, r1
 8006fb0:	4b61      	ldr	r3, [pc, #388]	; (8007138 <UART_SetConfig+0x2d4>)
 8006fb2:	fba3 2302 	umull	r2, r3, r3, r2
 8006fb6:	095b      	lsrs	r3, r3, #5
 8006fb8:	011c      	lsls	r4, r3, #4
 8006fba:	f8d7 30fc 	ldr.w	r3, [r7, #252]	; 0xfc
 8006fbe:	2200      	movs	r2, #0
 8006fc0:	f8c7 30d0 	str.w	r3, [r7, #208]	; 0xd0
 8006fc4:	f8c7 20d4 	str.w	r2, [r7, #212]	; 0xd4
 8006fc8:	e9d7 8934 	ldrd	r8, r9, [r7, #208]	; 0xd0
 8006fcc:	4642      	mov	r2, r8
 8006fce:	464b      	mov	r3, r9
 8006fd0:	1891      	adds	r1, r2, r2
 8006fd2:	64b9      	str	r1, [r7, #72]	; 0x48
 8006fd4:	415b      	adcs	r3, r3
 8006fd6:	64fb      	str	r3, [r7, #76]	; 0x4c
 8006fd8:	e9d7 2312 	ldrd	r2, r3, [r7, #72]	; 0x48
 8006fdc:	4641      	mov	r1, r8
 8006fde:	eb12 0a01 	adds.w	sl, r2, r1
 8006fe2:	4649      	mov	r1, r9
 8006fe4:	eb43 0b01 	adc.w	fp, r3, r1
 8006fe8:	f04f 0200 	mov.w	r2, #0
 8006fec:	f04f 0300 	mov.w	r3, #0
 8006ff0:	ea4f 03cb 	mov.w	r3, fp, lsl #3
 8006ff4:	ea43 735a 	orr.w	r3, r3, sl, lsr #29
 8006ff8:	ea4f 02ca 	mov.w	r2, sl, lsl #3
 8006ffc:	4692      	mov	sl, r2
 8006ffe:	469b      	mov	fp, r3
 8007000:	4643      	mov	r3, r8
 8007002:	eb1a 0303 	adds.w	r3, sl, r3
 8007006:	f8c7 30c8 	str.w	r3, [r7, #200]	; 0xc8
 800700a:	464b      	mov	r3, r9
 800700c:	eb4b 0303 	adc.w	r3, fp, r3
 8007010:	f8c7 30cc 	str.w	r3, [r7, #204]	; 0xcc
 8007014:	f8d7 30f4 	ldr.w	r3, [r7, #244]	; 0xf4
 8007018:	685b      	ldr	r3, [r3, #4]
 800701a:	2200      	movs	r2, #0
 800701c:	f8c7 30c0 	str.w	r3, [r7, #192]	; 0xc0
 8007020:	f8c7 20c4 	str.w	r2, [r7, #196]	; 0xc4
 8007024:	e9d7 1230 	ldrd	r1, r2, [r7, #192]	; 0xc0
 8007028:	460b      	mov	r3, r1
 800702a:	18db      	adds	r3, r3, r3
 800702c:	643b      	str	r3, [r7, #64]	; 0x40
 800702e:	4613      	mov	r3, r2
 8007030:	eb42 0303 	adc.w	r3, r2, r3
 8007034:	647b      	str	r3, [r7, #68]	; 0x44
 8007036:	e9d7 2310 	ldrd	r2, r3, [r7, #64]	; 0x40
 800703a:	e9d7 0132 	ldrd	r0, r1, [r7, #200]	; 0xc8
 800703e:	f7f9 f8dd 	bl	80001fc <__aeabi_uldivmod>
 8007042:	4602      	mov	r2, r0
 8007044:	460b      	mov	r3, r1
 8007046:	4611      	mov	r1, r2
 8007048:	4b3b      	ldr	r3, [pc, #236]	; (8007138 <UART_SetConfig+0x2d4>)
 800704a:	fba3 2301 	umull	r2, r3, r3, r1
 800704e:	095b      	lsrs	r3, r3, #5
 8007050:	2264      	movs	r2, #100	; 0x64
 8007052:	fb02 f303 	mul.w	r3, r2, r3
 8007056:	1acb      	subs	r3, r1, r3
 8007058:	00db      	lsls	r3, r3, #3
 800705a:	f103 0232 	add.w	r2, r3, #50	; 0x32
 800705e:	4b36      	ldr	r3, [pc, #216]	; (8007138 <UART_SetConfig+0x2d4>)
 8007060:	fba3 2302 	umull	r2, r3, r3, r2
 8007064:	095b      	lsrs	r3, r3, #5
 8007066:	005b      	lsls	r3, r3, #1
 8007068:	f403 73f8 	and.w	r3, r3, #496	; 0x1f0
 800706c:	441c      	add	r4, r3
 800706e:	f8d7 30fc 	ldr.w	r3, [r7, #252]	; 0xfc
 8007072:	2200      	movs	r2, #0
 8007074:	f8c7 30b8 	str.w	r3, [r7, #184]	; 0xb8
 8007078:	f8c7 20bc 	str.w	r2, [r7, #188]	; 0xbc
 800707c:	e9d7 892e 	ldrd	r8, r9, [r7, #184]	; 0xb8
 8007080:	4642      	mov	r2, r8
 8007082:	464b      	mov	r3, r9
 8007084:	1891      	adds	r1, r2, r2
 8007086:	63b9      	str	r1, [r7, #56]	; 0x38
 8007088:	415b      	adcs	r3, r3
 800708a:	63fb      	str	r3, [r7, #60]	; 0x3c
 800708c:	e9d7 230e 	ldrd	r2, r3, [r7, #56]	; 0x38
 8007090:	4641      	mov	r1, r8
 8007092:	1851      	adds	r1, r2, r1
 8007094:	6339      	str	r1, [r7, #48]	; 0x30
 8007096:	4649      	mov	r1, r9
 8007098:	414b      	adcs	r3, r1
 800709a:	637b      	str	r3, [r7, #52]	; 0x34
 800709c:	f04f 0200 	mov.w	r2, #0
 80070a0:	f04f 0300 	mov.w	r3, #0
 80070a4:	e9d7 ab0c 	ldrd	sl, fp, [r7, #48]	; 0x30
 80070a8:	4659      	mov	r1, fp
 80070aa:	00cb      	lsls	r3, r1, #3
 80070ac:	4651      	mov	r1, sl
 80070ae:	ea43 7351 	orr.w	r3, r3, r1, lsr #29
 80070b2:	4651      	mov	r1, sl
 80070b4:	00ca      	lsls	r2, r1, #3
 80070b6:	4610      	mov	r0, r2
 80070b8:	4619      	mov	r1, r3
 80070ba:	4603      	mov	r3, r0
 80070bc:	4642      	mov	r2, r8
 80070be:	189b      	adds	r3, r3, r2
 80070c0:	f8c7 30b0 	str.w	r3, [r7, #176]	; 0xb0
 80070c4:	464b      	mov	r3, r9
 80070c6:	460a      	mov	r2, r1
 80070c8:	eb42 0303 	adc.w	r3, r2, r3
 80070cc:	f8c7 30b4 	str.w	r3, [r7, #180]	; 0xb4
 80070d0:	f8d7 30f4 	ldr.w	r3, [r7, #244]	; 0xf4
 80070d4:	685b      	ldr	r3, [r3, #4]
 80070d6:	2200      	movs	r2, #0
 80070d8:	f8c7 30a8 	str.w	r3, [r7, #168]	; 0xa8
 80070dc:	f8c7 20ac 	str.w	r2, [r7, #172]	; 0xac
 80070e0:	e9d7 122a 	ldrd	r1, r2, [r7, #168]	; 0xa8
 80070e4:	460b      	mov	r3, r1
 80070e6:	18db      	adds	r3, r3, r3
 80070e8:	62bb      	str	r3, [r7, #40]	; 0x28
 80070ea:	4613      	mov	r3, r2
 80070ec:	eb42 0303 	adc.w	r3, r2, r3
 80070f0:	62fb      	str	r3, [r7, #44]	; 0x2c
 80070f2:	e9d7 230a 	ldrd	r2, r3, [r7, #40]	; 0x28
 80070f6:	e9d7 012c 	ldrd	r0, r1, [r7, #176]	; 0xb0
 80070fa:	f7f9 f87f 	bl	80001fc <__aeabi_uldivmod>
 80070fe:	4602      	mov	r2, r0
 8007100:	460b      	mov	r3, r1
 8007102:	4b0d      	ldr	r3, [pc, #52]	; (8007138 <UART_SetConfig+0x2d4>)
 8007104:	fba3 1302 	umull	r1, r3, r3, r2
 8007108:	095b      	lsrs	r3, r3, #5
 800710a:	2164      	movs	r1, #100	; 0x64
 800710c:	fb01 f303 	mul.w	r3, r1, r3
 8007110:	1ad3      	subs	r3, r2, r3
 8007112:	00db      	lsls	r3, r3, #3
 8007114:	3332      	adds	r3, #50	; 0x32
 8007116:	4a08      	ldr	r2, [pc, #32]	; (8007138 <UART_SetConfig+0x2d4>)
 8007118:	fba2 2303 	umull	r2, r3, r2, r3
 800711c:	095b      	lsrs	r3, r3, #5
 800711e:	f003 0207 	and.w	r2, r3, #7
 8007122:	f8d7 30f4 	ldr.w	r3, [r7, #244]	; 0xf4
 8007126:	681b      	ldr	r3, [r3, #0]
 8007128:	4422      	add	r2, r4
 800712a:	609a      	str	r2, [r3, #8]
  }
  else
  {
    huart->Instance->BRR = UART_BRR_SAMPLING16(pclk, huart->Init.BaudRate);
  }
}
 800712c:	e106      	b.n	800733c <UART_SetConfig+0x4d8>
 800712e:	bf00      	nop
 8007130:	40011000 	.word	0x40011000
 8007134:	40011400 	.word	0x40011400
 8007138:	51eb851f 	.word	0x51eb851f
    huart->Instance->BRR = UART_BRR_SAMPLING16(pclk, huart->Init.BaudRate);
 800713c:	f8d7 30fc 	ldr.w	r3, [r7, #252]	; 0xfc
 8007140:	2200      	movs	r2, #0
 8007142:	f8c7 30a0 	str.w	r3, [r7, #160]	; 0xa0
 8007146:	f8c7 20a4 	str.w	r2, [r7, #164]	; 0xa4
 800714a:	e9d7 8928 	ldrd	r8, r9, [r7, #160]	; 0xa0
 800714e:	4642      	mov	r2, r8
 8007150:	464b      	mov	r3, r9
 8007152:	1891      	adds	r1, r2, r2
 8007154:	6239      	str	r1, [r7, #32]
 8007156:	415b      	adcs	r3, r3
 8007158:	627b      	str	r3, [r7, #36]	; 0x24
 800715a:	e9d7 2308 	ldrd	r2, r3, [r7, #32]
 800715e:	4641      	mov	r1, r8
 8007160:	1854      	adds	r4, r2, r1
 8007162:	4649      	mov	r1, r9
 8007164:	eb43 0501 	adc.w	r5, r3, r1
 8007168:	f04f 0200 	mov.w	r2, #0
 800716c:	f04f 0300 	mov.w	r3, #0
 8007170:	00eb      	lsls	r3, r5, #3
 8007172:	ea43 7354 	orr.w	r3, r3, r4, lsr #29
 8007176:	00e2      	lsls	r2, r4, #3
 8007178:	4614      	mov	r4, r2
 800717a:	461d      	mov	r5, r3
 800717c:	4643      	mov	r3, r8
 800717e:	18e3      	adds	r3, r4, r3
 8007180:	f8c7 3098 	str.w	r3, [r7, #152]	; 0x98
 8007184:	464b      	mov	r3, r9
 8007186:	eb45 0303 	adc.w	r3, r5, r3
 800718a:	f8c7 309c 	str.w	r3, [r7, #156]	; 0x9c
 800718e:	f8d7 30f4 	ldr.w	r3, [r7, #244]	; 0xf4
 8007192:	685b      	ldr	r3, [r3, #4]
 8007194:	2200      	movs	r2, #0
 8007196:	f8c7 3090 	str.w	r3, [r7, #144]	; 0x90
 800719a:	f8c7 2094 	str.w	r2, [r7, #148]	; 0x94
 800719e:	f04f 0200 	mov.w	r2, #0
 80071a2:	f04f 0300 	mov.w	r3, #0
 80071a6:	e9d7 4524 	ldrd	r4, r5, [r7, #144]	; 0x90
 80071aa:	4629      	mov	r1, r5
 80071ac:	008b      	lsls	r3, r1, #2
 80071ae:	4621      	mov	r1, r4
 80071b0:	ea43 7391 	orr.w	r3, r3, r1, lsr #30
 80071b4:	4621      	mov	r1, r4
 80071b6:	008a      	lsls	r2, r1, #2
 80071b8:	e9d7 0126 	ldrd	r0, r1, [r7, #152]	; 0x98
 80071bc:	f7f9 f81e 	bl	80001fc <__aeabi_uldivmod>
 80071c0:	4602      	mov	r2, r0
 80071c2:	460b      	mov	r3, r1
 80071c4:	4b60      	ldr	r3, [pc, #384]	; (8007348 <UART_SetConfig+0x4e4>)
 80071c6:	fba3 2302 	umull	r2, r3, r3, r2
 80071ca:	095b      	lsrs	r3, r3, #5
 80071cc:	011c      	lsls	r4, r3, #4
 80071ce:	f8d7 30fc 	ldr.w	r3, [r7, #252]	; 0xfc
 80071d2:	2200      	movs	r2, #0
 80071d4:	f8c7 3088 	str.w	r3, [r7, #136]	; 0x88
 80071d8:	f8c7 208c 	str.w	r2, [r7, #140]	; 0x8c
 80071dc:	e9d7 8922 	ldrd	r8, r9, [r7, #136]	; 0x88
 80071e0:	4642      	mov	r2, r8
 80071e2:	464b      	mov	r3, r9
 80071e4:	1891      	adds	r1, r2, r2
 80071e6:	61b9      	str	r1, [r7, #24]
 80071e8:	415b      	adcs	r3, r3
 80071ea:	61fb      	str	r3, [r7, #28]
 80071ec:	e9d7 2306 	ldrd	r2, r3, [r7, #24]
 80071f0:	4641      	mov	r1, r8
 80071f2:	1851      	adds	r1, r2, r1
 80071f4:	6139      	str	r1, [r7, #16]
 80071f6:	4649      	mov	r1, r9
 80071f8:	414b      	adcs	r3, r1
 80071fa:	617b      	str	r3, [r7, #20]
 80071fc:	f04f 0200 	mov.w	r2, #0
 8007200:	f04f 0300 	mov.w	r3, #0
 8007204:	e9d7 ab04 	ldrd	sl, fp, [r7, #16]
 8007208:	4659      	mov	r1, fp
 800720a:	00cb      	lsls	r3, r1, #3
 800720c:	4651      	mov	r1, sl
 800720e:	ea43 7351 	orr.w	r3, r3, r1, lsr #29
 8007212:	4651      	mov	r1, sl
 8007214:	00ca      	lsls	r2, r1, #3
 8007216:	4610      	mov	r0, r2
 8007218:	4619      	mov	r1, r3
 800721a:	4603      	mov	r3, r0
 800721c:	4642      	mov	r2, r8
 800721e:	189b      	adds	r3, r3, r2
 8007220:	f8c7 3080 	str.w	r3, [r7, #128]	; 0x80
 8007224:	464b      	mov	r3, r9
 8007226:	460a      	mov	r2, r1
 8007228:	eb42 0303 	adc.w	r3, r2, r3
 800722c:	f8c7 3084 	str.w	r3, [r7, #132]	; 0x84
 8007230:	f8d7 30f4 	ldr.w	r3, [r7, #244]	; 0xf4
 8007234:	685b      	ldr	r3, [r3, #4]
 8007236:	2200      	movs	r2, #0
 8007238:	67bb      	str	r3, [r7, #120]	; 0x78
 800723a:	67fa      	str	r2, [r7, #124]	; 0x7c
 800723c:	f04f 0200 	mov.w	r2, #0
 8007240:	f04f 0300 	mov.w	r3, #0
 8007244:	e9d7 891e 	ldrd	r8, r9, [r7, #120]	; 0x78
 8007248:	4649      	mov	r1, r9
 800724a:	008b      	lsls	r3, r1, #2
 800724c:	4641      	mov	r1, r8
 800724e:	ea43 7391 	orr.w	r3, r3, r1, lsr #30
 8007252:	4641      	mov	r1, r8
 8007254:	008a      	lsls	r2, r1, #2
 8007256:	e9d7 0120 	ldrd	r0, r1, [r7, #128]	; 0x80
 800725a:	f7f8 ffcf 	bl	80001fc <__aeabi_uldivmod>
 800725e:	4602      	mov	r2, r0
 8007260:	460b      	mov	r3, r1
 8007262:	4611      	mov	r1, r2
 8007264:	4b38      	ldr	r3, [pc, #224]	; (8007348 <UART_SetConfig+0x4e4>)
 8007266:	fba3 2301 	umull	r2, r3, r3, r1
 800726a:	095b      	lsrs	r3, r3, #5
 800726c:	2264      	movs	r2, #100	; 0x64
 800726e:	fb02 f303 	mul.w	r3, r2, r3
 8007272:	1acb      	subs	r3, r1, r3
 8007274:	011b      	lsls	r3, r3, #4
 8007276:	3332      	adds	r3, #50	; 0x32
 8007278:	4a33      	ldr	r2, [pc, #204]	; (8007348 <UART_SetConfig+0x4e4>)
 800727a:	fba2 2303 	umull	r2, r3, r2, r3
 800727e:	095b      	lsrs	r3, r3, #5
 8007280:	f003 03f0 	and.w	r3, r3, #240	; 0xf0
 8007284:	441c      	add	r4, r3
 8007286:	f8d7 30fc 	ldr.w	r3, [r7, #252]	; 0xfc
 800728a:	2200      	movs	r2, #0
 800728c:	673b      	str	r3, [r7, #112]	; 0x70
 800728e:	677a      	str	r2, [r7, #116]	; 0x74
 8007290:	e9d7 891c 	ldrd	r8, r9, [r7, #112]	; 0x70
 8007294:	4642      	mov	r2, r8
 8007296:	464b      	mov	r3, r9
 8007298:	1891      	adds	r1, r2, r2
 800729a:	60b9      	str	r1, [r7, #8]
 800729c:	415b      	adcs	r3, r3
 800729e:	60fb      	str	r3, [r7, #12]
 80072a0:	e9d7 2302 	ldrd	r2, r3, [r7, #8]
 80072a4:	4641      	mov	r1, r8
 80072a6:	1851      	adds	r1, r2, r1
 80072a8:	6039      	str	r1, [r7, #0]
 80072aa:	4649      	mov	r1, r9
 80072ac:	414b      	adcs	r3, r1
 80072ae:	607b      	str	r3, [r7, #4]
 80072b0:	f04f 0200 	mov.w	r2, #0
 80072b4:	f04f 0300 	mov.w	r3, #0
 80072b8:	e9d7 ab00 	ldrd	sl, fp, [r7]
 80072bc:	4659      	mov	r1, fp
 80072be:	00cb      	lsls	r3, r1, #3
 80072c0:	4651      	mov	r1, sl
 80072c2:	ea43 7351 	orr.w	r3, r3, r1, lsr #29
 80072c6:	4651      	mov	r1, sl
 80072c8:	00ca      	lsls	r2, r1, #3
 80072ca:	4610      	mov	r0, r2
 80072cc:	4619      	mov	r1, r3
 80072ce:	4603      	mov	r3, r0
 80072d0:	4642      	mov	r2, r8
 80072d2:	189b      	adds	r3, r3, r2
 80072d4:	66bb      	str	r3, [r7, #104]	; 0x68
 80072d6:	464b      	mov	r3, r9
 80072d8:	460a      	mov	r2, r1
 80072da:	eb42 0303 	adc.w	r3, r2, r3
 80072de:	66fb      	str	r3, [r7, #108]	; 0x6c
 80072e0:	f8d7 30f4 	ldr.w	r3, [r7, #244]	; 0xf4
 80072e4:	685b      	ldr	r3, [r3, #4]
 80072e6:	2200      	movs	r2, #0
 80072e8:	663b      	str	r3, [r7, #96]	; 0x60
 80072ea:	667a      	str	r2, [r7, #100]	; 0x64
 80072ec:	f04f 0200 	mov.w	r2, #0
 80072f0:	f04f 0300 	mov.w	r3, #0
 80072f4:	e9d7 8918 	ldrd	r8, r9, [r7, #96]	; 0x60
 80072f8:	4649      	mov	r1, r9
 80072fa:	008b      	lsls	r3, r1, #2
 80072fc:	4641      	mov	r1, r8
 80072fe:	ea43 7391 	orr.w	r3, r3, r1, lsr #30
 8007302:	4641      	mov	r1, r8
 8007304:	008a      	lsls	r2, r1, #2
 8007306:	e9d7 011a 	ldrd	r0, r1, [r7, #104]	; 0x68
 800730a:	f7f8 ff77 	bl	80001fc <__aeabi_uldivmod>
 800730e:	4602      	mov	r2, r0
 8007310:	460b      	mov	r3, r1
 8007312:	4b0d      	ldr	r3, [pc, #52]	; (8007348 <UART_SetConfig+0x4e4>)
 8007314:	fba3 1302 	umull	r1, r3, r3, r2
 8007318:	095b      	lsrs	r3, r3, #5
 800731a:	2164      	movs	r1, #100	; 0x64
 800731c:	fb01 f303 	mul.w	r3, r1, r3
 8007320:	1ad3      	subs	r3, r2, r3
 8007322:	011b      	lsls	r3, r3, #4
 8007324:	3332      	adds	r3, #50	; 0x32
 8007326:	4a08      	ldr	r2, [pc, #32]	; (8007348 <UART_SetConfig+0x4e4>)
 8007328:	fba2 2303 	umull	r2, r3, r2, r3
 800732c:	095b      	lsrs	r3, r3, #5
 800732e:	f003 020f 	and.w	r2, r3, #15
 8007332:	f8d7 30f4 	ldr.w	r3, [r7, #244]	; 0xf4
 8007336:	681b      	ldr	r3, [r3, #0]
 8007338:	4422      	add	r2, r4
 800733a:	609a      	str	r2, [r3, #8]
}
 800733c:	bf00      	nop
 800733e:	f507 7780 	add.w	r7, r7, #256	; 0x100
 8007342:	46bd      	mov	sp, r7
 8007344:	e8bd 8fb0 	ldmia.w	sp!, {r4, r5, r7, r8, r9, sl, fp, pc}
 8007348:	51eb851f 	.word	0x51eb851f

0800734c <memset>:
 800734c:	4402      	add	r2, r0
 800734e:	4603      	mov	r3, r0
 8007350:	4293      	cmp	r3, r2
 8007352:	d100      	bne.n	8007356 <memset+0xa>
 8007354:	4770      	bx	lr
 8007356:	f803 1b01 	strb.w	r1, [r3], #1
 800735a:	e7f9      	b.n	8007350 <memset+0x4>

0800735c <__libc_init_array>:
 800735c:	b570      	push	{r4, r5, r6, lr}
 800735e:	4d0d      	ldr	r5, [pc, #52]	; (8007394 <__libc_init_array+0x38>)
 8007360:	4c0d      	ldr	r4, [pc, #52]	; (8007398 <__libc_init_array+0x3c>)
 8007362:	1b64      	subs	r4, r4, r5
 8007364:	10a4      	asrs	r4, r4, #2
 8007366:	2600      	movs	r6, #0
 8007368:	42a6      	cmp	r6, r4
 800736a:	d109      	bne.n	8007380 <__libc_init_array+0x24>
 800736c:	4d0b      	ldr	r5, [pc, #44]	; (800739c <__libc_init_array+0x40>)
 800736e:	4c0c      	ldr	r4, [pc, #48]	; (80073a0 <__libc_init_array+0x44>)
 8007370:	f000 f818 	bl	80073a4 <_init>
 8007374:	1b64      	subs	r4, r4, r5
 8007376:	10a4      	asrs	r4, r4, #2
 8007378:	2600      	movs	r6, #0
 800737a:	42a6      	cmp	r6, r4
 800737c:	d105      	bne.n	800738a <__libc_init_array+0x2e>
 800737e:	bd70      	pop	{r4, r5, r6, pc}
 8007380:	f855 3b04 	ldr.w	r3, [r5], #4
 8007384:	4798      	blx	r3
 8007386:	3601      	adds	r6, #1
 8007388:	e7ee      	b.n	8007368 <__libc_init_array+0xc>
 800738a:	f855 3b04 	ldr.w	r3, [r5], #4
 800738e:	4798      	blx	r3
 8007390:	3601      	adds	r6, #1
 8007392:	e7f2      	b.n	800737a <__libc_init_array+0x1e>
 8007394:	08007474 	.word	0x08007474
 8007398:	08007474 	.word	0x08007474
 800739c:	08007474 	.word	0x08007474
 80073a0:	08007478 	.word	0x08007478

080073a4 <_init>:
 80073a4:	b5f8      	push	{r3, r4, r5, r6, r7, lr}
 80073a6:	bf00      	nop
 80073a8:	bcf8      	pop	{r3, r4, r5, r6, r7}
 80073aa:	bc08      	pop	{r3}
 80073ac:	469e      	mov	lr, r3
 80073ae:	4770      	bx	lr

080073b0 <_fini>:
 80073b0:	b5f8      	push	{r3, r4, r5, r6, r7, lr}
 80073b2:	bf00      	nop
 80073b4:	bcf8      	pop	{r3, r4, r5, r6, r7}
 80073b6:	bc08      	pop	{r3}
 80073b8:	469e      	mov	lr, r3
 80073ba:	4770      	bx	lr
