
AuroraV_Payload_F439.elf:     file format elf32-littlearm

Sections:
Idx Name          Size      VMA       LMA       File off  Algn
  0 .isr_vector   000001ac  08000000  08000000  00010000  2**0
                  CONTENTS, ALLOC, LOAD, READONLY, DATA
  1 .text         00007438  080001ac  080001ac  000101ac  2**2
                  CONTENTS, ALLOC, LOAD, READONLY, CODE
  2 .rodata       000000b0  080075e4  080075e4  000175e4  2**2
                  CONTENTS, ALLOC, LOAD, READONLY, DATA
  3 .ARM.extab    00000000  08007694  08007694  00020024  2**0
                  CONTENTS
  4 .ARM          00000008  08007694  08007694  00017694  2**2
                  CONTENTS, ALLOC, LOAD, READONLY, DATA
  5 .preinit_array 00000000  0800769c  0800769c  00020024  2**0
                  CONTENTS, ALLOC, LOAD, DATA
  6 .init_array   00000004  0800769c  0800769c  0001769c  2**2
                  CONTENTS, ALLOC, LOAD, DATA
  7 .fini_array   00000004  080076a0  080076a0  000176a0  2**2
                  CONTENTS, ALLOC, LOAD, DATA
  8 .data         00000024  20000000  080076a4  00020000  2**2
                  CONTENTS, ALLOC, LOAD, DATA
  9 .ccmram       00000000  10000000  10000000  00020024  2**0
                  CONTENTS
 10 .bss          00000464  20000024  20000024  00020024  2**2
                  ALLOC
 11 ._user_heap_stack 00000600  20000488  20000488  00020024  2**0
                  ALLOC
 12 .ARM.attributes 00000030  00000000  00000000  00020024  2**0
                  CONTENTS, READONLY
 13 .comment      00000043  00000000  00000000  00020054  2**0
                  CONTENTS, READONLY
 14 .debug_info   0001a1c5  00000000  00000000  00020097  2**0
                  CONTENTS, READONLY, DEBUGGING, OCTETS
 15 .debug_abbrev 000038e3  00000000  00000000  0003a25c  2**0
                  CONTENTS, READONLY, DEBUGGING, OCTETS
 16 .debug_aranges 000014e0  00000000  00000000  0003db40  2**3
                  CONTENTS, READONLY, DEBUGGING, OCTETS
 17 .debug_rnglists 00001049  00000000  00000000  0003f020  2**0
                  CONTENTS, READONLY, DEBUGGING, OCTETS
 18 .debug_macro  00027180  00000000  00000000  00040069  2**0
                  CONTENTS, READONLY, DEBUGGING, OCTETS
 19 .debug_line   0001b262  00000000  00000000  000671e9  2**0
                  CONTENTS, READONLY, DEBUGGING, OCTETS
 20 .debug_str    000e711d  00000000  00000000  0008244b  2**0
                  CONTENTS, READONLY, DEBUGGING, OCTETS
 21 .debug_frame  000056e4  00000000  00000000  00169568  2**2
                  CONTENTS, READONLY, DEBUGGING, OCTETS
 22 .debug_line_str 00000060  00000000  00000000  0016ec4c  2**0
                  CONTENTS, READONLY, DEBUGGING, OCTETS

Disassembly of section .text:

080001ac <__do_global_dtors_aux>:
 80001ac:	b510      	push	{r4, lr}
 80001ae:	4c05      	ldr	r4, [pc, #20]	; (80001c4 <__do_global_dtors_aux+0x18>)
 80001b0:	7823      	ldrb	r3, [r4, #0]
 80001b2:	b933      	cbnz	r3, 80001c2 <__do_global_dtors_aux+0x16>
 80001b4:	4b04      	ldr	r3, [pc, #16]	; (80001c8 <__do_global_dtors_aux+0x1c>)
 80001b6:	b113      	cbz	r3, 80001be <__do_global_dtors_aux+0x12>
 80001b8:	4804      	ldr	r0, [pc, #16]	; (80001cc <__do_global_dtors_aux+0x20>)
 80001ba:	f3af 8000 	nop.w
 80001be:	2301      	movs	r3, #1
 80001c0:	7023      	strb	r3, [r4, #0]
 80001c2:	bd10      	pop	{r4, pc}
 80001c4:	20000024 	.word	0x20000024
 80001c8:	00000000 	.word	0x00000000
 80001cc:	080075cc 	.word	0x080075cc

080001d0 <frame_dummy>:
 80001d0:	b508      	push	{r3, lr}
 80001d2:	4b03      	ldr	r3, [pc, #12]	; (80001e0 <frame_dummy+0x10>)
 80001d4:	b11b      	cbz	r3, 80001de <frame_dummy+0xe>
 80001d6:	4903      	ldr	r1, [pc, #12]	; (80001e4 <frame_dummy+0x14>)
 80001d8:	4803      	ldr	r0, [pc, #12]	; (80001e8 <frame_dummy+0x18>)
 80001da:	f3af 8000 	nop.w
 80001de:	bd08      	pop	{r3, pc}
 80001e0:	00000000 	.word	0x00000000
 80001e4:	20000028 	.word	0x20000028
 80001e8:	080075cc 	.word	0x080075cc

080001ec <strlen>:
 80001ec:	4603      	mov	r3, r0
 80001ee:	f813 2b01 	ldrb.w	r2, [r3], #1
 80001f2:	2a00      	cmp	r2, #0
 80001f4:	d1fb      	bne.n	80001ee <strlen+0x2>
 80001f6:	1a18      	subs	r0, r3, r0
 80001f8:	3801      	subs	r0, #1
 80001fa:	4770      	bx	lr

080001fc <__aeabi_uldivmod>:
 80001fc:	b953      	cbnz	r3, 8000214 <__aeabi_uldivmod+0x18>
 80001fe:	b94a      	cbnz	r2, 8000214 <__aeabi_uldivmod+0x18>
 8000200:	2900      	cmp	r1, #0
 8000202:	bf08      	it	eq
 8000204:	2800      	cmpeq	r0, #0
 8000206:	bf1c      	itt	ne
 8000208:	f04f 31ff 	movne.w	r1, #4294967295	; 0xffffffff
 800020c:	f04f 30ff 	movne.w	r0, #4294967295	; 0xffffffff
 8000210:	f000 b970 	b.w	80004f4 <__aeabi_idiv0>
 8000214:	f1ad 0c08 	sub.w	ip, sp, #8
 8000218:	e96d ce04 	strd	ip, lr, [sp, #-16]!
 800021c:	f000 f806 	bl	800022c <__udivmoddi4>
 8000220:	f8dd e004 	ldr.w	lr, [sp, #4]
 8000224:	e9dd 2302 	ldrd	r2, r3, [sp, #8]
 8000228:	b004      	add	sp, #16
 800022a:	4770      	bx	lr

0800022c <__udivmoddi4>:
 800022c:	e92d 47f0 	stmdb	sp!, {r4, r5, r6, r7, r8, r9, sl, lr}
 8000230:	9e08      	ldr	r6, [sp, #32]
 8000232:	460d      	mov	r5, r1
 8000234:	4604      	mov	r4, r0
 8000236:	460f      	mov	r7, r1
 8000238:	2b00      	cmp	r3, #0
 800023a:	d14a      	bne.n	80002d2 <__udivmoddi4+0xa6>
 800023c:	428a      	cmp	r2, r1
 800023e:	4694      	mov	ip, r2
 8000240:	d965      	bls.n	800030e <__udivmoddi4+0xe2>
 8000242:	fab2 f382 	clz	r3, r2
 8000246:	b143      	cbz	r3, 800025a <__udivmoddi4+0x2e>
 8000248:	fa02 fc03 	lsl.w	ip, r2, r3
 800024c:	f1c3 0220 	rsb	r2, r3, #32
 8000250:	409f      	lsls	r7, r3
 8000252:	fa20 f202 	lsr.w	r2, r0, r2
 8000256:	4317      	orrs	r7, r2
 8000258:	409c      	lsls	r4, r3
 800025a:	ea4f 4e1c 	mov.w	lr, ip, lsr #16
 800025e:	fa1f f58c 	uxth.w	r5, ip
 8000262:	fbb7 f1fe 	udiv	r1, r7, lr
 8000266:	0c22      	lsrs	r2, r4, #16
 8000268:	fb0e 7711 	mls	r7, lr, r1, r7
 800026c:	ea42 4207 	orr.w	r2, r2, r7, lsl #16
 8000270:	fb01 f005 	mul.w	r0, r1, r5
 8000274:	4290      	cmp	r0, r2
 8000276:	d90a      	bls.n	800028e <__udivmoddi4+0x62>
 8000278:	eb1c 0202 	adds.w	r2, ip, r2
 800027c:	f101 37ff 	add.w	r7, r1, #4294967295	; 0xffffffff
 8000280:	f080 811c 	bcs.w	80004bc <__udivmoddi4+0x290>
 8000284:	4290      	cmp	r0, r2
 8000286:	f240 8119 	bls.w	80004bc <__udivmoddi4+0x290>
 800028a:	3902      	subs	r1, #2
 800028c:	4462      	add	r2, ip
 800028e:	1a12      	subs	r2, r2, r0
 8000290:	b2a4      	uxth	r4, r4
 8000292:	fbb2 f0fe 	udiv	r0, r2, lr
 8000296:	fb0e 2210 	mls	r2, lr, r0, r2
 800029a:	ea44 4402 	orr.w	r4, r4, r2, lsl #16
 800029e:	fb00 f505 	mul.w	r5, r0, r5
 80002a2:	42a5      	cmp	r5, r4
 80002a4:	d90a      	bls.n	80002bc <__udivmoddi4+0x90>
 80002a6:	eb1c 0404 	adds.w	r4, ip, r4
 80002aa:	f100 32ff 	add.w	r2, r0, #4294967295	; 0xffffffff
 80002ae:	f080 8107 	bcs.w	80004c0 <__udivmoddi4+0x294>
 80002b2:	42a5      	cmp	r5, r4
 80002b4:	f240 8104 	bls.w	80004c0 <__udivmoddi4+0x294>
 80002b8:	4464      	add	r4, ip
 80002ba:	3802      	subs	r0, #2
 80002bc:	ea40 4001 	orr.w	r0, r0, r1, lsl #16
 80002c0:	1b64      	subs	r4, r4, r5
 80002c2:	2100      	movs	r1, #0
 80002c4:	b11e      	cbz	r6, 80002ce <__udivmoddi4+0xa2>
 80002c6:	40dc      	lsrs	r4, r3
 80002c8:	2300      	movs	r3, #0
 80002ca:	e9c6 4300 	strd	r4, r3, [r6]
 80002ce:	e8bd 87f0 	ldmia.w	sp!, {r4, r5, r6, r7, r8, r9, sl, pc}
 80002d2:	428b      	cmp	r3, r1
 80002d4:	d908      	bls.n	80002e8 <__udivmoddi4+0xbc>
 80002d6:	2e00      	cmp	r6, #0
 80002d8:	f000 80ed 	beq.w	80004b6 <__udivmoddi4+0x28a>
 80002dc:	2100      	movs	r1, #0
 80002de:	e9c6 0500 	strd	r0, r5, [r6]
 80002e2:	4608      	mov	r0, r1
 80002e4:	e8bd 87f0 	ldmia.w	sp!, {r4, r5, r6, r7, r8, r9, sl, pc}
 80002e8:	fab3 f183 	clz	r1, r3
 80002ec:	2900      	cmp	r1, #0
 80002ee:	d149      	bne.n	8000384 <__udivmoddi4+0x158>
 80002f0:	42ab      	cmp	r3, r5
 80002f2:	d302      	bcc.n	80002fa <__udivmoddi4+0xce>
 80002f4:	4282      	cmp	r2, r0
 80002f6:	f200 80f8 	bhi.w	80004ea <__udivmoddi4+0x2be>
 80002fa:	1a84      	subs	r4, r0, r2
 80002fc:	eb65 0203 	sbc.w	r2, r5, r3
 8000300:	2001      	movs	r0, #1
 8000302:	4617      	mov	r7, r2
 8000304:	2e00      	cmp	r6, #0
 8000306:	d0e2      	beq.n	80002ce <__udivmoddi4+0xa2>
 8000308:	e9c6 4700 	strd	r4, r7, [r6]
 800030c:	e7df      	b.n	80002ce <__udivmoddi4+0xa2>
 800030e:	b902      	cbnz	r2, 8000312 <__udivmoddi4+0xe6>
 8000310:	deff      	udf	#255	; 0xff
 8000312:	fab2 f382 	clz	r3, r2
 8000316:	2b00      	cmp	r3, #0
 8000318:	f040 8090 	bne.w	800043c <__udivmoddi4+0x210>
 800031c:	1a8a      	subs	r2, r1, r2
 800031e:	ea4f 471c 	mov.w	r7, ip, lsr #16
 8000322:	fa1f fe8c 	uxth.w	lr, ip
 8000326:	2101      	movs	r1, #1
 8000328:	fbb2 f5f7 	udiv	r5, r2, r7
 800032c:	fb07 2015 	mls	r0, r7, r5, r2
 8000330:	0c22      	lsrs	r2, r4, #16
 8000332:	ea42 4200 	orr.w	r2, r2, r0, lsl #16
 8000336:	fb0e f005 	mul.w	r0, lr, r5
 800033a:	4290      	cmp	r0, r2
 800033c:	d908      	bls.n	8000350 <__udivmoddi4+0x124>
 800033e:	eb1c 0202 	adds.w	r2, ip, r2
 8000342:	f105 38ff 	add.w	r8, r5, #4294967295	; 0xffffffff
 8000346:	d202      	bcs.n	800034e <__udivmoddi4+0x122>
 8000348:	4290      	cmp	r0, r2
 800034a:	f200 80cb 	bhi.w	80004e4 <__udivmoddi4+0x2b8>
 800034e:	4645      	mov	r5, r8
 8000350:	1a12      	subs	r2, r2, r0
 8000352:	b2a4      	uxth	r4, r4
 8000354:	fbb2 f0f7 	udiv	r0, r2, r7
 8000358:	fb07 2210 	mls	r2, r7, r0, r2
 800035c:	ea44 4402 	orr.w	r4, r4, r2, lsl #16
 8000360:	fb0e fe00 	mul.w	lr, lr, r0
 8000364:	45a6      	cmp	lr, r4
 8000366:	d908      	bls.n	800037a <__udivmoddi4+0x14e>
 8000368:	eb1c 0404 	adds.w	r4, ip, r4
 800036c:	f100 32ff 	add.w	r2, r0, #4294967295	; 0xffffffff
 8000370:	d202      	bcs.n	8000378 <__udivmoddi4+0x14c>
 8000372:	45a6      	cmp	lr, r4
 8000374:	f200 80bb 	bhi.w	80004ee <__udivmoddi4+0x2c2>
 8000378:	4610      	mov	r0, r2
 800037a:	eba4 040e 	sub.w	r4, r4, lr
 800037e:	ea40 4005 	orr.w	r0, r0, r5, lsl #16
 8000382:	e79f      	b.n	80002c4 <__udivmoddi4+0x98>
 8000384:	f1c1 0720 	rsb	r7, r1, #32
 8000388:	408b      	lsls	r3, r1
 800038a:	fa22 fc07 	lsr.w	ip, r2, r7
 800038e:	ea4c 0c03 	orr.w	ip, ip, r3
 8000392:	fa05 f401 	lsl.w	r4, r5, r1
 8000396:	fa20 f307 	lsr.w	r3, r0, r7
 800039a:	40fd      	lsrs	r5, r7
 800039c:	ea4f 491c 	mov.w	r9, ip, lsr #16
 80003a0:	4323      	orrs	r3, r4
 80003a2:	fbb5 f8f9 	udiv	r8, r5, r9
 80003a6:	fa1f fe8c 	uxth.w	lr, ip
 80003aa:	fb09 5518 	mls	r5, r9, r8, r5
 80003ae:	0c1c      	lsrs	r4, r3, #16
 80003b0:	ea44 4405 	orr.w	r4, r4, r5, lsl #16
 80003b4:	fb08 f50e 	mul.w	r5, r8, lr
 80003b8:	42a5      	cmp	r5, r4
 80003ba:	fa02 f201 	lsl.w	r2, r2, r1
 80003be:	fa00 f001 	lsl.w	r0, r0, r1
 80003c2:	d90b      	bls.n	80003dc <__udivmoddi4+0x1b0>
 80003c4:	eb1c 0404 	adds.w	r4, ip, r4
 80003c8:	f108 3aff 	add.w	sl, r8, #4294967295	; 0xffffffff
 80003cc:	f080 8088 	bcs.w	80004e0 <__udivmoddi4+0x2b4>
 80003d0:	42a5      	cmp	r5, r4
 80003d2:	f240 8085 	bls.w	80004e0 <__udivmoddi4+0x2b4>
 80003d6:	f1a8 0802 	sub.w	r8, r8, #2
 80003da:	4464      	add	r4, ip
 80003dc:	1b64      	subs	r4, r4, r5
 80003de:	b29d      	uxth	r5, r3
 80003e0:	fbb4 f3f9 	udiv	r3, r4, r9
 80003e4:	fb09 4413 	mls	r4, r9, r3, r4
 80003e8:	ea45 4404 	orr.w	r4, r5, r4, lsl #16
 80003ec:	fb03 fe0e 	mul.w	lr, r3, lr
 80003f0:	45a6      	cmp	lr, r4
 80003f2:	d908      	bls.n	8000406 <__udivmoddi4+0x1da>
 80003f4:	eb1c 0404 	adds.w	r4, ip, r4
 80003f8:	f103 35ff 	add.w	r5, r3, #4294967295	; 0xffffffff
 80003fc:	d26c      	bcs.n	80004d8 <__udivmoddi4+0x2ac>
 80003fe:	45a6      	cmp	lr, r4
 8000400:	d96a      	bls.n	80004d8 <__udivmoddi4+0x2ac>
 8000402:	3b02      	subs	r3, #2
 8000404:	4464      	add	r4, ip
 8000406:	ea43 4308 	orr.w	r3, r3, r8, lsl #16
 800040a:	fba3 9502 	umull	r9, r5, r3, r2
 800040e:	eba4 040e 	sub.w	r4, r4, lr
 8000412:	42ac      	cmp	r4, r5
 8000414:	46c8      	mov	r8, r9
 8000416:	46ae      	mov	lr, r5
 8000418:	d356      	bcc.n	80004c8 <__udivmoddi4+0x29c>
 800041a:	d053      	beq.n	80004c4 <__udivmoddi4+0x298>
 800041c:	b156      	cbz	r6, 8000434 <__udivmoddi4+0x208>
 800041e:	ebb0 0208 	subs.w	r2, r0, r8
 8000422:	eb64 040e 	sbc.w	r4, r4, lr
 8000426:	fa04 f707 	lsl.w	r7, r4, r7
 800042a:	40ca      	lsrs	r2, r1
 800042c:	40cc      	lsrs	r4, r1
 800042e:	4317      	orrs	r7, r2
 8000430:	e9c6 7400 	strd	r7, r4, [r6]
 8000434:	4618      	mov	r0, r3
 8000436:	2100      	movs	r1, #0
 8000438:	e8bd 87f0 	ldmia.w	sp!, {r4, r5, r6, r7, r8, r9, sl, pc}
 800043c:	f1c3 0120 	rsb	r1, r3, #32
 8000440:	fa02 fc03 	lsl.w	ip, r2, r3
 8000444:	fa20 f201 	lsr.w	r2, r0, r1
 8000448:	fa25 f101 	lsr.w	r1, r5, r1
 800044c:	409d      	lsls	r5, r3
 800044e:	432a      	orrs	r2, r5
 8000450:	ea4f 471c 	mov.w	r7, ip, lsr #16
 8000454:	fa1f fe8c 	uxth.w	lr, ip
 8000458:	fbb1 f0f7 	udiv	r0, r1, r7
 800045c:	fb07 1510 	mls	r5, r7, r0, r1
 8000460:	0c11      	lsrs	r1, r2, #16
 8000462:	ea41 4105 	orr.w	r1, r1, r5, lsl #16
 8000466:	fb00 f50e 	mul.w	r5, r0, lr
 800046a:	428d      	cmp	r5, r1
 800046c:	fa04 f403 	lsl.w	r4, r4, r3
 8000470:	d908      	bls.n	8000484 <__udivmoddi4+0x258>
 8000472:	eb1c 0101 	adds.w	r1, ip, r1
 8000476:	f100 38ff 	add.w	r8, r0, #4294967295	; 0xffffffff
 800047a:	d22f      	bcs.n	80004dc <__udivmoddi4+0x2b0>
 800047c:	428d      	cmp	r5, r1
 800047e:	d92d      	bls.n	80004dc <__udivmoddi4+0x2b0>
 8000480:	3802      	subs	r0, #2
 8000482:	4461      	add	r1, ip
 8000484:	1b49      	subs	r1, r1, r5
 8000486:	b292      	uxth	r2, r2
 8000488:	fbb1 f5f7 	udiv	r5, r1, r7
 800048c:	fb07 1115 	mls	r1, r7, r5, r1
 8000490:	ea42 4201 	orr.w	r2, r2, r1, lsl #16
 8000494:	fb05 f10e 	mul.w	r1, r5, lr
 8000498:	4291      	cmp	r1, r2
 800049a:	d908      	bls.n	80004ae <__udivmoddi4+0x282>
 800049c:	eb1c 0202 	adds.w	r2, ip, r2
 80004a0:	f105 38ff 	add.w	r8, r5, #4294967295	; 0xffffffff
 80004a4:	d216      	bcs.n	80004d4 <__udivmoddi4+0x2a8>
 80004a6:	4291      	cmp	r1, r2
 80004a8:	d914      	bls.n	80004d4 <__udivmoddi4+0x2a8>
 80004aa:	3d02      	subs	r5, #2
 80004ac:	4462      	add	r2, ip
 80004ae:	1a52      	subs	r2, r2, r1
 80004b0:	ea45 4100 	orr.w	r1, r5, r0, lsl #16
 80004b4:	e738      	b.n	8000328 <__udivmoddi4+0xfc>
 80004b6:	4631      	mov	r1, r6
 80004b8:	4630      	mov	r0, r6
 80004ba:	e708      	b.n	80002ce <__udivmoddi4+0xa2>
 80004bc:	4639      	mov	r1, r7
 80004be:	e6e6      	b.n	800028e <__udivmoddi4+0x62>
 80004c0:	4610      	mov	r0, r2
 80004c2:	e6fb      	b.n	80002bc <__udivmoddi4+0x90>
 80004c4:	4548      	cmp	r0, r9
 80004c6:	d2a9      	bcs.n	800041c <__udivmoddi4+0x1f0>
 80004c8:	ebb9 0802 	subs.w	r8, r9, r2
 80004cc:	eb65 0e0c 	sbc.w	lr, r5, ip
 80004d0:	3b01      	subs	r3, #1
 80004d2:	e7a3      	b.n	800041c <__udivmoddi4+0x1f0>
 80004d4:	4645      	mov	r5, r8
 80004d6:	e7ea      	b.n	80004ae <__udivmoddi4+0x282>
 80004d8:	462b      	mov	r3, r5
 80004da:	e794      	b.n	8000406 <__udivmoddi4+0x1da>
 80004dc:	4640      	mov	r0, r8
 80004de:	e7d1      	b.n	8000484 <__udivmoddi4+0x258>
 80004e0:	46d0      	mov	r8, sl
 80004e2:	e77b      	b.n	80003dc <__udivmoddi4+0x1b0>
 80004e4:	3d02      	subs	r5, #2
 80004e6:	4462      	add	r2, ip
 80004e8:	e732      	b.n	8000350 <__udivmoddi4+0x124>
 80004ea:	4608      	mov	r0, r1
 80004ec:	e70a      	b.n	8000304 <__udivmoddi4+0xd8>
 80004ee:	4464      	add	r4, ip
 80004f0:	3802      	subs	r0, #2
 80004f2:	e742      	b.n	800037a <__udivmoddi4+0x14e>

080004f4 <__aeabi_idiv0>:
 80004f4:	4770      	bx	lr
 80004f6:	bf00      	nop

080004f8 <init_accel>:
uint8_t OUT_Y_L 				= 0x2A;
uint8_t OUT_Y_H 				= 0x2B;
uint8_t OUT_Z_L 				= 0x2C;
uint8_t OUT_Z_H 				= 0x2D;

HAL_StatusTypeDef init_accel(I2C_HandleTypeDef* hi2c) {
 80004f8:	b580      	push	{r7, lr}
 80004fa:	b084      	sub	sp, #16
 80004fc:	af00      	add	r7, sp, #0
 80004fe:	6078      	str	r0, [r7, #4]
	HAL_StatusTypeDef ret;

	// Write Control Register 1
	ret = i2c_write_reg(hi2c, H3LIS331DL_ADDR, &CTRL_REG1, MASK_1kHz);
 8000500:	2118      	movs	r1, #24
 8000502:	233f      	movs	r3, #63	; 0x3f
 8000504:	4a09      	ldr	r2, [pc, #36]	; (800052c <init_accel+0x34>)
 8000506:	6878      	ldr	r0, [r7, #4]
 8000508:	f000 fbd4 	bl	8000cb4 <i2c_write_reg>
 800050c:	4603      	mov	r3, r0
 800050e:	73fb      	strb	r3, [r7, #15]

	// Write Control Register 4
	ret = i2c_write_reg(hi2c, H3LIS331DL_ADDR, &CTRL_REG4, MASK_100G);
 8000510:	2118      	movs	r1, #24
 8000512:	2300      	movs	r3, #0
 8000514:	4a06      	ldr	r2, [pc, #24]	; (8000530 <init_accel+0x38>)
 8000516:	6878      	ldr	r0, [r7, #4]
 8000518:	f000 fbcc 	bl	8000cb4 <i2c_write_reg>
 800051c:	4603      	mov	r3, r0
 800051e:	73fb      	strb	r3, [r7, #15]
	return ret;
 8000520:	7bfb      	ldrb	r3, [r7, #15]
}
 8000522:	4618      	mov	r0, r3
 8000524:	3710      	adds	r7, #16
 8000526:	46bd      	mov	sp, r7
 8000528:	bd80      	pop	{r7, pc}
 800052a:	bf00      	nop
 800052c:	20000000 	.word	0x20000000
 8000530:	20000001 	.word	0x20000001

08000534 <readAccelerometer>:

void readAccelerometer(uint8_t values[6], I2C_HandleTypeDef* hi2c) {
 8000534:	b580      	push	{r7, lr}
 8000536:	b084      	sub	sp, #16
 8000538:	af02      	add	r7, sp, #8
 800053a:	6078      	str	r0, [r7, #4]
 800053c:	6039      	str	r1, [r7, #0]
	i2c_burst_read(hi2c, H3LIS331DL_ADDR, OUT_X_L, 6, values);
 800053e:	2118      	movs	r1, #24
 8000540:	4b05      	ldr	r3, [pc, #20]	; (8000558 <readAccelerometer+0x24>)
 8000542:	781a      	ldrb	r2, [r3, #0]
 8000544:	687b      	ldr	r3, [r7, #4]
 8000546:	9300      	str	r3, [sp, #0]
 8000548:	2306      	movs	r3, #6
 800054a:	6838      	ldr	r0, [r7, #0]
 800054c:	f000 fb6e 	bl	8000c2c <i2c_burst_read>
}
 8000550:	bf00      	nop
 8000552:	3708      	adds	r7, #8
 8000554:	46bd      	mov	sp, r7
 8000556:	bd80      	pop	{r7, pc}
 8000558:	20000003 	.word	0x20000003

0800055c <readAccel_whoami>:

uint8_t readAccel_whoami(I2C_HandleTypeDef* hi2c) {
 800055c:	b580      	push	{r7, lr}
 800055e:	b084      	sub	sp, #16
 8000560:	af00      	add	r7, sp, #0
 8000562:	6078      	str	r0, [r7, #4]
	uint8_t data = 0x00;
 8000564:	2300      	movs	r3, #0
 8000566:	73fb      	strb	r3, [r7, #15]
	i2c_read_reg(hi2c, &data, H3LIS331DL_ADDR, &WHOAMI);
 8000568:	2218      	movs	r2, #24
 800056a:	f107 010f 	add.w	r1, r7, #15
 800056e:	4b04      	ldr	r3, [pc, #16]	; (8000580 <readAccel_whoami+0x24>)
 8000570:	6878      	ldr	r0, [r7, #4]
 8000572:	f000 fb23 	bl	8000bbc <i2c_read_reg>

	return data;
 8000576:	7bfb      	ldrb	r3, [r7, #15]
}
 8000578:	4618      	mov	r0, r3
 800057a:	3710      	adds	r7, #16
 800057c:	46bd      	mov	sp, r7
 800057e:	bd80      	pop	{r7, pc}
 8000580:	20000002 	.word	0x20000002

08000584 <init_bme280>:
uint8_t OUT_HUM_H 			= 0xFD;
uint8_t CALIB_ST_1			= 0x88;
uint8_t CALIB_ST_2			= 0xE1;


HAL_StatusTypeDef init_bme280(I2C_HandleTypeDef* hi2c, uint8_t bme) {
 8000584:	b580      	push	{r7, lr}
 8000586:	b084      	sub	sp, #16
 8000588:	af00      	add	r7, sp, #0
 800058a:	6078      	str	r0, [r7, #4]
 800058c:	460b      	mov	r3, r1
 800058e:	70fb      	strb	r3, [r7, #3]
	uint8_t bme_addr = getBME280Config(bme).bme_addr;
 8000590:	78fb      	ldrb	r3, [r7, #3]
 8000592:	4618      	mov	r0, r3
 8000594:	f000 f8e0 	bl	8000758 <getBME280Config>
 8000598:	4603      	mov	r3, r0
 800059a:	73fb      	strb	r3, [r7, #15]
	HAL_StatusTypeDef ret;
	uint8_t control_reg = 0x00;
 800059c:	2300      	movs	r3, #0
 800059e:	737b      	strb	r3, [r7, #13]

	// Reset the sensor
	ret =  i2c_write_reg(hi2c, bme_addr, &RST_REG, RST);
 80005a0:	7bf9      	ldrb	r1, [r7, #15]
 80005a2:	23b6      	movs	r3, #182	; 0xb6
 80005a4:	4a19      	ldr	r2, [pc, #100]	; (800060c <init_bme280+0x88>)
 80005a6:	6878      	ldr	r0, [r7, #4]
 80005a8:	f000 fb84 	bl	8000cb4 <i2c_write_reg>
 80005ac:	4603      	mov	r3, r0
 80005ae:	73bb      	strb	r3, [r7, #14]

	// Set humidity control register
	i2c_read_reg(hi2c, &control_reg, bme_addr, &CTRL_HUM_REG);
 80005b0:	7bfa      	ldrb	r2, [r7, #15]
 80005b2:	f107 010d 	add.w	r1, r7, #13
 80005b6:	4b16      	ldr	r3, [pc, #88]	; (8000610 <init_bme280+0x8c>)
 80005b8:	6878      	ldr	r0, [r7, #4]
 80005ba:	f000 faff 	bl	8000bbc <i2c_read_reg>
	control_reg = control_reg & 0xF8;
 80005be:	7b7b      	ldrb	r3, [r7, #13]
 80005c0:	f023 0307 	bic.w	r3, r3, #7
 80005c4:	b2db      	uxtb	r3, r3
 80005c6:	737b      	strb	r3, [r7, #13]
	control_reg = control_reg | CTRL_HUM_MSK;
 80005c8:	7b7b      	ldrb	r3, [r7, #13]
 80005ca:	f043 0301 	orr.w	r3, r3, #1
 80005ce:	b2db      	uxtb	r3, r3
 80005d0:	737b      	strb	r3, [r7, #13]
	ret = i2c_write_reg(hi2c, bme_addr, &CTRL_HUM_REG, control_reg);
 80005d2:	7b7b      	ldrb	r3, [r7, #13]
 80005d4:	7bf9      	ldrb	r1, [r7, #15]
 80005d6:	4a0e      	ldr	r2, [pc, #56]	; (8000610 <init_bme280+0x8c>)
 80005d8:	6878      	ldr	r0, [r7, #4]
 80005da:	f000 fb6b 	bl	8000cb4 <i2c_write_reg>
 80005de:	4603      	mov	r3, r0
 80005e0:	73bb      	strb	r3, [r7, #14]

	// Set measure control register
	ret = i2c_write_reg(hi2c, bme_addr, &CTRL_MEAS_REG, CTRL_MEAS_MSK);
 80005e2:	7bf9      	ldrb	r1, [r7, #15]
 80005e4:	2327      	movs	r3, #39	; 0x27
 80005e6:	4a0b      	ldr	r2, [pc, #44]	; (8000614 <init_bme280+0x90>)
 80005e8:	6878      	ldr	r0, [r7, #4]
 80005ea:	f000 fb63 	bl	8000cb4 <i2c_write_reg>
 80005ee:	4603      	mov	r3, r0
 80005f0:	73bb      	strb	r3, [r7, #14]

	// Set the config register
	ret = i2c_write_reg(hi2c, bme_addr, &CONF_REG, CONF_MSK);
 80005f2:	7bf9      	ldrb	r1, [r7, #15]
 80005f4:	2300      	movs	r3, #0
 80005f6:	4a08      	ldr	r2, [pc, #32]	; (8000618 <init_bme280+0x94>)
 80005f8:	6878      	ldr	r0, [r7, #4]
 80005fa:	f000 fb5b 	bl	8000cb4 <i2c_write_reg>
 80005fe:	4603      	mov	r3, r0
 8000600:	73bb      	strb	r3, [r7, #14]

	return ret;
 8000602:	7bbb      	ldrb	r3, [r7, #14]
}
 8000604:	4618      	mov	r0, r3
 8000606:	3710      	adds	r7, #16
 8000608:	46bd      	mov	sp, r7
 800060a:	bd80      	pop	{r7, pc}
 800060c:	20000005 	.word	0x20000005
 8000610:	20000006 	.word	0x20000006
 8000614:	20000007 	.word	0x20000007
 8000618:	20000008 	.word	0x20000008

0800061c <readTempHumPres>:

void readTempHumPres(uint8_t values[6], I2C_HandleTypeDef* hi2c, uint8_t bme) {
 800061c:	b580      	push	{r7, lr}
 800061e:	b08a      	sub	sp, #40	; 0x28
 8000620:	af02      	add	r7, sp, #8
 8000622:	60f8      	str	r0, [r7, #12]
 8000624:	60b9      	str	r1, [r7, #8]
 8000626:	4613      	mov	r3, r2
 8000628:	71fb      	strb	r3, [r7, #7]
	uint8_t readings[8] = {0, 0, 0, 0, 0, 0, 0, 0};
 800062a:	4a27      	ldr	r2, [pc, #156]	; (80006c8 <readTempHumPres+0xac>)
 800062c:	f107 0314 	add.w	r3, r7, #20
 8000630:	e892 0003 	ldmia.w	r2, {r0, r1}
 8000634:	e883 0003 	stmia.w	r3, {r0, r1}
	uint8_t bme_addr = getBME280Config(bme).bme_addr;
 8000638:	79fb      	ldrb	r3, [r7, #7]
 800063a:	4618      	mov	r0, r3
 800063c:	f000 f88c 	bl	8000758 <getBME280Config>
 8000640:	4603      	mov	r3, r0
 8000642:	777b      	strb	r3, [r7, #29]
	i2c_burst_read(hi2c, bme_addr, OUT_PRESS_H, 8, readings);
 8000644:	4b21      	ldr	r3, [pc, #132]	; (80006cc <readTempHumPres+0xb0>)
 8000646:	781a      	ldrb	r2, [r3, #0]
 8000648:	7f79      	ldrb	r1, [r7, #29]
 800064a:	f107 0314 	add.w	r3, r7, #20
 800064e:	9300      	str	r3, [sp, #0]
 8000650:	2308      	movs	r3, #8
 8000652:	68b8      	ldr	r0, [r7, #8]
 8000654:	f000 faea 	bl	8000c2c <i2c_burst_read>

	// Clear the 0 values on the xlsb registers
	uint8_t j = 0;
 8000658:	2300      	movs	r3, #0
 800065a:	77fb      	strb	r3, [r7, #31]
    for(uint8_t i = 0; i < 8; i++) {
 800065c:	2300      	movs	r3, #0
 800065e:	77bb      	strb	r3, [r7, #30]
 8000660:	e014      	b.n	800068c <readTempHumPres+0x70>
        if(i != 2 && i != 5) {  // if the index is not 2 or 5
 8000662:	7fbb      	ldrb	r3, [r7, #30]
 8000664:	2b02      	cmp	r3, #2
 8000666:	d00e      	beq.n	8000686 <readTempHumPres+0x6a>
 8000668:	7fbb      	ldrb	r3, [r7, #30]
 800066a:	2b05      	cmp	r3, #5
 800066c:	d00b      	beq.n	8000686 <readTempHumPres+0x6a>
        	values[j] = readings[i];
 800066e:	7fba      	ldrb	r2, [r7, #30]
 8000670:	7ffb      	ldrb	r3, [r7, #31]
 8000672:	68f9      	ldr	r1, [r7, #12]
 8000674:	440b      	add	r3, r1
 8000676:	3220      	adds	r2, #32
 8000678:	443a      	add	r2, r7
 800067a:	f812 2c0c 	ldrb.w	r2, [r2, #-12]
 800067e:	701a      	strb	r2, [r3, #0]
            j++;
 8000680:	7ffb      	ldrb	r3, [r7, #31]
 8000682:	3301      	adds	r3, #1
 8000684:	77fb      	strb	r3, [r7, #31]
    for(uint8_t i = 0; i < 8; i++) {
 8000686:	7fbb      	ldrb	r3, [r7, #30]
 8000688:	3301      	adds	r3, #1
 800068a:	77bb      	strb	r3, [r7, #30]
 800068c:	7fbb      	ldrb	r3, [r7, #30]
 800068e:	2b07      	cmp	r3, #7
 8000690:	d9e7      	bls.n	8000662 <readTempHumPres+0x46>
        }
    }

    // Swap elements to make the array little endian
    swap(&values[0], &values[1]);
 8000692:	68fb      	ldr	r3, [r7, #12]
 8000694:	3301      	adds	r3, #1
 8000696:	4619      	mov	r1, r3
 8000698:	68f8      	ldr	r0, [r7, #12]
 800069a:	f000 f874 	bl	8000786 <swap>
    swap(&values[2], &values[3]);
 800069e:	68fb      	ldr	r3, [r7, #12]
 80006a0:	1c9a      	adds	r2, r3, #2
 80006a2:	68fb      	ldr	r3, [r7, #12]
 80006a4:	3303      	adds	r3, #3
 80006a6:	4619      	mov	r1, r3
 80006a8:	4610      	mov	r0, r2
 80006aa:	f000 f86c 	bl	8000786 <swap>
    swap(&values[4], &values[5]);
 80006ae:	68fb      	ldr	r3, [r7, #12]
 80006b0:	1d1a      	adds	r2, r3, #4
 80006b2:	68fb      	ldr	r3, [r7, #12]
 80006b4:	3305      	adds	r3, #5
 80006b6:	4619      	mov	r1, r3
 80006b8:	4610      	mov	r0, r2
 80006ba:	f000 f864 	bl	8000786 <swap>
}
 80006be:	bf00      	nop
 80006c0:	3720      	adds	r7, #32
 80006c2:	46bd      	mov	sp, r7
 80006c4:	bd80      	pop	{r7, pc}
 80006c6:	bf00      	nop
 80006c8:	080075e4 	.word	0x080075e4
 80006cc:	20000009 	.word	0x20000009

080006d0 <readBME280_id_reg>:

uint8_t readBME280_id_reg(I2C_HandleTypeDef* hi2c, uint8_t bme) {
 80006d0:	b580      	push	{r7, lr}
 80006d2:	b084      	sub	sp, #16
 80006d4:	af00      	add	r7, sp, #0
 80006d6:	6078      	str	r0, [r7, #4]
 80006d8:	460b      	mov	r3, r1
 80006da:	70fb      	strb	r3, [r7, #3]
	uint8_t bme_addr = getBME280Config(bme).bme_addr;
 80006dc:	78fb      	ldrb	r3, [r7, #3]
 80006de:	4618      	mov	r0, r3
 80006e0:	f000 f83a 	bl	8000758 <getBME280Config>
 80006e4:	4603      	mov	r3, r0
 80006e6:	73fb      	strb	r3, [r7, #15]
	uint8_t data = 0x00;
 80006e8:	2300      	movs	r3, #0
 80006ea:	73bb      	strb	r3, [r7, #14]
	i2c_read_reg(hi2c, &data, bme_addr, &ID_REG);
 80006ec:	7bfa      	ldrb	r2, [r7, #15]
 80006ee:	f107 010e 	add.w	r1, r7, #14
 80006f2:	4b04      	ldr	r3, [pc, #16]	; (8000704 <readBME280_id_reg+0x34>)
 80006f4:	6878      	ldr	r0, [r7, #4]
 80006f6:	f000 fa61 	bl	8000bbc <i2c_read_reg>

	return data;
 80006fa:	7bbb      	ldrb	r3, [r7, #14]
}
 80006fc:	4618      	mov	r0, r3
 80006fe:	3710      	adds	r7, #16
 8000700:	46bd      	mov	sp, r7
 8000702:	bd80      	pop	{r7, pc}
 8000704:	20000004 	.word	0x20000004

08000708 <readBME280_calib>:

void readBME280_calib(I2C_HandleTypeDef* hi2c, uint8_t bme, uint8_t calibration1[CALIB_CNT_1], uint8_t calibration2[CALIB_CNT_2]) {
 8000708:	b580      	push	{r7, lr}
 800070a:	b088      	sub	sp, #32
 800070c:	af02      	add	r7, sp, #8
 800070e:	60f8      	str	r0, [r7, #12]
 8000710:	607a      	str	r2, [r7, #4]
 8000712:	603b      	str	r3, [r7, #0]
 8000714:	460b      	mov	r3, r1
 8000716:	72fb      	strb	r3, [r7, #11]
	uint8_t bme_addr = getBME280Config(bme).bme_addr;
 8000718:	7afb      	ldrb	r3, [r7, #11]
 800071a:	4618      	mov	r0, r3
 800071c:	f000 f81c 	bl	8000758 <getBME280Config>
 8000720:	4603      	mov	r3, r0
 8000722:	75fb      	strb	r3, [r7, #23]
	i2c_burst_read(hi2c, bme_addr, CALIB_ST_1, CALIB_CNT_1, calibration1);
 8000724:	4b0a      	ldr	r3, [pc, #40]	; (8000750 <readBME280_calib+0x48>)
 8000726:	781a      	ldrb	r2, [r3, #0]
 8000728:	7df9      	ldrb	r1, [r7, #23]
 800072a:	687b      	ldr	r3, [r7, #4]
 800072c:	9300      	str	r3, [sp, #0]
 800072e:	2319      	movs	r3, #25
 8000730:	68f8      	ldr	r0, [r7, #12]
 8000732:	f000 fa7b 	bl	8000c2c <i2c_burst_read>
	i2c_burst_read(hi2c, bme_addr, CALIB_ST_2, CALIB_CNT_2, calibration2);
 8000736:	4b07      	ldr	r3, [pc, #28]	; (8000754 <readBME280_calib+0x4c>)
 8000738:	781a      	ldrb	r2, [r3, #0]
 800073a:	7df9      	ldrb	r1, [r7, #23]
 800073c:	683b      	ldr	r3, [r7, #0]
 800073e:	9300      	str	r3, [sp, #0]
 8000740:	2307      	movs	r3, #7
 8000742:	68f8      	ldr	r0, [r7, #12]
 8000744:	f000 fa72 	bl	8000c2c <i2c_burst_read>
}
 8000748:	bf00      	nop
 800074a:	3718      	adds	r7, #24
 800074c:	46bd      	mov	sp, r7
 800074e:	bd80      	pop	{r7, pc}
 8000750:	2000000a 	.word	0x2000000a
 8000754:	2000000b 	.word	0x2000000b

08000758 <getBME280Config>:

BME280_Config getBME280Config(uint8_t bme) {
 8000758:	b480      	push	{r7}
 800075a:	b085      	sub	sp, #20
 800075c:	af00      	add	r7, sp, #0
 800075e:	4603      	mov	r3, r0
 8000760:	71fb      	strb	r3, [r7, #7]
	BME280_Config config;
	if (bme == 0) {
 8000762:	79fb      	ldrb	r3, [r7, #7]
 8000764:	2b00      	cmp	r3, #0
 8000766:	d102      	bne.n	800076e <getBME280Config+0x16>
		config.bme_addr = BME280_ADDR_0;
 8000768:	2376      	movs	r3, #118	; 0x76
 800076a:	733b      	strb	r3, [r7, #12]
 800076c:	e004      	b.n	8000778 <getBME280Config+0x20>
	} else if (bme == 1) {
 800076e:	79fb      	ldrb	r3, [r7, #7]
 8000770:	2b01      	cmp	r3, #1
 8000772:	d101      	bne.n	8000778 <getBME280Config+0x20>
		config.bme_addr = BME280_ADDR_1;
 8000774:	2377      	movs	r3, #119	; 0x77
 8000776:	733b      	strb	r3, [r7, #12]
	}
    return config;
 8000778:	7b3b      	ldrb	r3, [r7, #12]
}
 800077a:	4618      	mov	r0, r3
 800077c:	3714      	adds	r7, #20
 800077e:	46bd      	mov	sp, r7
 8000780:	f85d 7b04 	ldr.w	r7, [sp], #4
 8000784:	4770      	bx	lr

08000786 <swap>:

void swap(uint8_t* a, uint8_t* b) {
 8000786:	b480      	push	{r7}
 8000788:	b085      	sub	sp, #20
 800078a:	af00      	add	r7, sp, #0
 800078c:	6078      	str	r0, [r7, #4]
 800078e:	6039      	str	r1, [r7, #0]
    uint8_t temp = *a;
 8000790:	687b      	ldr	r3, [r7, #4]
 8000792:	781b      	ldrb	r3, [r3, #0]
 8000794:	73fb      	strb	r3, [r7, #15]
    *a = *b;
 8000796:	683b      	ldr	r3, [r7, #0]
 8000798:	781a      	ldrb	r2, [r3, #0]
 800079a:	687b      	ldr	r3, [r7, #4]
 800079c:	701a      	strb	r2, [r3, #0]
    *b = temp;
 800079e:	683b      	ldr	r3, [r7, #0]
 80007a0:	7bfa      	ldrb	r2, [r7, #15]
 80007a2:	701a      	strb	r2, [r3, #0]
}
 80007a4:	bf00      	nop
 80007a6:	3714      	adds	r7, #20
 80007a8:	46bd      	mov	sp, r7
 80007aa:	f85d 7b04 	ldr.w	r7, [sp], #4
 80007ae:	4770      	bx	lr

080007b0 <getGPIOConfig>:
uint8_t FLASH_32K_ERS	= 0x52;			// Erase all memory within a 32K-byte block
uint8_t FLASH_ERASE		= 0xC7;			// Erase the entire chip
uint8_t RST_EN			= 0x66;			// Reset enable
uint8_t DEV_RST			= 0x99;			// Reset device

GPIO_Config getGPIOConfig(uint8_t flashNo) {
 80007b0:	b480      	push	{r7}
 80007b2:	b085      	sub	sp, #20
 80007b4:	af00      	add	r7, sp, #0
 80007b6:	6078      	str	r0, [r7, #4]
 80007b8:	460b      	mov	r3, r1
 80007ba:	70fb      	strb	r3, [r7, #3]
    GPIO_Config config;

    if (flashNo == 0) {
 80007bc:	78fb      	ldrb	r3, [r7, #3]
 80007be:	2b00      	cmp	r3, #0
 80007c0:	d104      	bne.n	80007cc <getGPIOConfig+0x1c>
        config.GPIOx = GPIOD;
 80007c2:	4b0d      	ldr	r3, [pc, #52]	; (80007f8 <getGPIOConfig+0x48>)
 80007c4:	60bb      	str	r3, [r7, #8]
        config.GPIO_Pin_CS = GPIO_PIN_2;
 80007c6:	2304      	movs	r3, #4
 80007c8:	81bb      	strh	r3, [r7, #12]
 80007ca:	e007      	b.n	80007dc <getGPIOConfig+0x2c>
    } else if (flashNo == 1) {
 80007cc:	78fb      	ldrb	r3, [r7, #3]
 80007ce:	2b01      	cmp	r3, #1
 80007d0:	d104      	bne.n	80007dc <getGPIOConfig+0x2c>
        config.GPIOx = GPIOB;
 80007d2:	4b0a      	ldr	r3, [pc, #40]	; (80007fc <getGPIOConfig+0x4c>)
 80007d4:	60bb      	str	r3, [r7, #8]
        config.GPIO_Pin_CS = GPIO_PIN_12;
 80007d6:	f44f 5380 	mov.w	r3, #4096	; 0x1000
 80007da:	81bb      	strh	r3, [r7, #12]
    }

    return config;
 80007dc:	687b      	ldr	r3, [r7, #4]
 80007de:	461a      	mov	r2, r3
 80007e0:	f107 0308 	add.w	r3, r7, #8
 80007e4:	e893 0003 	ldmia.w	r3, {r0, r1}
 80007e8:	e882 0003 	stmia.w	r2, {r0, r1}
}
 80007ec:	6878      	ldr	r0, [r7, #4]
 80007ee:	3714      	adds	r7, #20
 80007f0:	46bd      	mov	sp, r7
 80007f2:	f85d 7b04 	ldr.w	r7, [sp], #4
 80007f6:	4770      	bx	lr
 80007f8:	40020c00 	.word	0x40020c00
 80007fc:	40020400 	.word	0x40020400

08000800 <check_busy>:

uint8_t check_busy(SPI_HandleTypeDef *hspi, uint8_t flashNo, int timeout) {
 8000800:	b580      	push	{r7, lr}
 8000802:	b088      	sub	sp, #32
 8000804:	af00      	add	r7, sp, #0
 8000806:	60f8      	str	r0, [r7, #12]
 8000808:	460b      	mov	r3, r1
 800080a:	607a      	str	r2, [r7, #4]
 800080c:	72fb      	strb	r3, [r7, #11]
	uint8_t ret_val = 0x00;
 800080e:	2300      	movs	r3, #0
 8000810:	77fb      	strb	r3, [r7, #31]

    // Get the current time
	uint32_t startTick = HAL_GetTick();
 8000812:	f001 fee9 	bl	80025e8 <HAL_GetTick>
 8000816:	61b8      	str	r0, [r7, #24]

	// Read the status register to ensure no write is currently in progress
	uint8_t busy = 0x01;
 8000818:	2301      	movs	r3, #1
 800081a:	77bb      	strb	r3, [r7, #30]
	while(busy) {
 800081c:	e014      	b.n	8000848 <check_busy+0x48>
		// Check if there is a write in progress
		busy = (check_status_register(hspi, flashNo) & 0x01);
 800081e:	7afb      	ldrb	r3, [r7, #11]
 8000820:	4619      	mov	r1, r3
 8000822:	68f8      	ldr	r0, [r7, #12]
 8000824:	f000 f818 	bl	8000858 <check_status_register>
 8000828:	4603      	mov	r3, r0
 800082a:	f003 0301 	and.w	r3, r3, #1
 800082e:	77bb      	strb	r3, [r7, #30]

		uint32_t currTick = HAL_GetTick();
 8000830:	f001 feda 	bl	80025e8 <HAL_GetTick>
 8000834:	6178      	str	r0, [r7, #20]

        // Check if the timeout has been reached
		if ((currTick - startTick) >= timeout) {
 8000836:	697a      	ldr	r2, [r7, #20]
 8000838:	69bb      	ldr	r3, [r7, #24]
 800083a:	1ad2      	subs	r2, r2, r3
 800083c:	687b      	ldr	r3, [r7, #4]
 800083e:	429a      	cmp	r2, r3
 8000840:	d302      	bcc.n	8000848 <check_busy+0x48>
        	ret_val = 0x01;
 8000842:	2301      	movs	r3, #1
 8000844:	77fb      	strb	r3, [r7, #31]
            break;
 8000846:	e002      	b.n	800084e <check_busy+0x4e>
	while(busy) {
 8000848:	7fbb      	ldrb	r3, [r7, #30]
 800084a:	2b00      	cmp	r3, #0
 800084c:	d1e7      	bne.n	800081e <check_busy+0x1e>
        }
	}

	return ret_val;
 800084e:	7ffb      	ldrb	r3, [r7, #31]
}
 8000850:	4618      	mov	r0, r3
 8000852:	3720      	adds	r7, #32
 8000854:	46bd      	mov	sp, r7
 8000856:	bd80      	pop	{r7, pc}

08000858 <check_status_register>:

uint8_t check_status_register(SPI_HandleTypeDef *hspi, uint8_t flashNo) {
 8000858:	b580      	push	{r7, lr}
 800085a:	b088      	sub	sp, #32
 800085c:	af02      	add	r7, sp, #8
 800085e:	6078      	str	r0, [r7, #4]
 8000860:	460b      	mov	r3, r1
 8000862:	70fb      	strb	r3, [r7, #3]
	GPIO_Config config = getGPIOConfig(flashNo);
 8000864:	f107 0310 	add.w	r3, r7, #16
 8000868:	78fa      	ldrb	r2, [r7, #3]
 800086a:	4611      	mov	r1, r2
 800086c:	4618      	mov	r0, r3
 800086e:	f7ff ff9f 	bl	80007b0 <getGPIOConfig>
	uint8_t status_reg = 0x00;
 8000872:	2300      	movs	r3, #0
 8000874:	73fb      	strb	r3, [r7, #15]
	spi_sendOp_readByte(&FLASH_READSR1, hspi, &status_reg, config.GPIOx, config.GPIO_Pin_CS);
 8000876:	6939      	ldr	r1, [r7, #16]
 8000878:	8abb      	ldrh	r3, [r7, #20]
 800087a:	f107 020f 	add.w	r2, r7, #15
 800087e:	9300      	str	r3, [sp, #0]
 8000880:	460b      	mov	r3, r1
 8000882:	6879      	ldr	r1, [r7, #4]
 8000884:	4803      	ldr	r0, [pc, #12]	; (8000894 <check_status_register+0x3c>)
 8000886:	f001 fabb 	bl	8001e00 <spi_sendOp_readByte>
	return status_reg;
 800088a:	7bfb      	ldrb	r3, [r7, #15]
}
 800088c:	4618      	mov	r0, r3
 800088e:	3718      	adds	r7, #24
 8000890:	46bd      	mov	sp, r7
 8000892:	bd80      	pop	{r7, pc}
 8000894:	2000000e 	.word	0x2000000e

08000898 <erase_chip_spi>:
 *      Author: aidencontini
 */

#include "data_output_spi.h"

HAL_StatusTypeDef erase_chip_spi(SPI_HandleTypeDef *hspi, uint8_t flashNo) {
 8000898:	b580      	push	{r7, lr}
 800089a:	b084      	sub	sp, #16
 800089c:	af00      	add	r7, sp, #0
 800089e:	6078      	str	r0, [r7, #4]
 80008a0:	460b      	mov	r3, r1
 80008a2:	70fb      	strb	r3, [r7, #3]
	GPIO_Config config = getGPIOConfig(flashNo);
 80008a4:	f107 0308 	add.w	r3, r7, #8
 80008a8:	78fa      	ldrb	r2, [r7, #3]
 80008aa:	4611      	mov	r1, r2
 80008ac:	4618      	mov	r0, r3
 80008ae:	f7ff ff7f 	bl	80007b0 <getGPIOConfig>

	check_busy(hspi, flashNo, BSY_TIMEOUT_MS);
 80008b2:	78fb      	ldrb	r3, [r7, #3]
 80008b4:	2205      	movs	r2, #5
 80008b6:	4619      	mov	r1, r3
 80008b8:	6878      	ldr	r0, [r7, #4]
 80008ba:	f7ff ffa1 	bl	8000800 <check_busy>

	write_enable_spi(hspi, flashNo);
 80008be:	78fb      	ldrb	r3, [r7, #3]
 80008c0:	4619      	mov	r1, r3
 80008c2:	6878      	ldr	r0, [r7, #4]
 80008c4:	f000 f816 	bl	80008f4 <write_enable_spi>
	perform_operation(&FLASH_ERASE, hspi, config.GPIOx, config.GPIO_Pin_CS);
 80008c8:	68ba      	ldr	r2, [r7, #8]
 80008ca:	89bb      	ldrh	r3, [r7, #12]
 80008cc:	6879      	ldr	r1, [r7, #4]
 80008ce:	4807      	ldr	r0, [pc, #28]	; (80008ec <erase_chip_spi+0x54>)
 80008d0:	f001 fabc 	bl	8001e4c <perform_operation>

	check_busy(hspi, flashNo, CHIP_ERASE_TO);
 80008d4:	78fb      	ldrb	r3, [r7, #3]
 80008d6:	4a06      	ldr	r2, [pc, #24]	; (80008f0 <erase_chip_spi+0x58>)
 80008d8:	4619      	mov	r1, r3
 80008da:	6878      	ldr	r0, [r7, #4]
 80008dc:	f7ff ff90 	bl	8000800 <check_busy>

	return HAL_OK;
 80008e0:	2300      	movs	r3, #0
}
 80008e2:	4618      	mov	r0, r3
 80008e4:	3710      	adds	r7, #16
 80008e6:	46bd      	mov	sp, r7
 80008e8:	bd80      	pop	{r7, pc}
 80008ea:	bf00      	nop
 80008ec:	20000011 	.word	0x20000011
 80008f0:	00030d40 	.word	0x00030d40

080008f4 <write_enable_spi>:
	check_busy(hspi, flashNo, BLK_ERS_32K_TO);

	return HAL_OK;
}

void write_enable_spi(SPI_HandleTypeDef *hspi, uint8_t flashNo) {
 80008f4:	b580      	push	{r7, lr}
 80008f6:	b084      	sub	sp, #16
 80008f8:	af00      	add	r7, sp, #0
 80008fa:	6078      	str	r0, [r7, #4]
 80008fc:	460b      	mov	r3, r1
 80008fe:	70fb      	strb	r3, [r7, #3]
	GPIO_Config config = getGPIOConfig(flashNo);
 8000900:	f107 0308 	add.w	r3, r7, #8
 8000904:	78fa      	ldrb	r2, [r7, #3]
 8000906:	4611      	mov	r1, r2
 8000908:	4618      	mov	r0, r3
 800090a:	f7ff ff51 	bl	80007b0 <getGPIOConfig>
	perform_operation(&FLASH_WREN, hspi, config.GPIOx, config.GPIO_Pin_CS);
 800090e:	68ba      	ldr	r2, [r7, #8]
 8000910:	89bb      	ldrh	r3, [r7, #12]
 8000912:	6879      	ldr	r1, [r7, #4]
 8000914:	4803      	ldr	r0, [pc, #12]	; (8000924 <write_enable_spi+0x30>)
 8000916:	f001 fa99 	bl	8001e4c <perform_operation>
}
 800091a:	bf00      	nop
 800091c:	3710      	adds	r7, #16
 800091e:	46bd      	mov	sp, r7
 8000920:	bd80      	pop	{r7, pc}
 8000922:	bf00      	nop
 8000924:	2000000c 	.word	0x2000000c

08000928 <software_reset>:
void write_disable_spi(SPI_HandleTypeDef *hspi, uint8_t flashNo) {
	GPIO_Config config = getGPIOConfig(flashNo);
	perform_operation(&FLASH_WRDIS, hspi, config.GPIOx, config.GPIO_Pin_CS);
}

void software_reset(SPI_HandleTypeDef *hspi, uint8_t flashNo) {
 8000928:	b580      	push	{r7, lr}
 800092a:	b084      	sub	sp, #16
 800092c:	af00      	add	r7, sp, #0
 800092e:	6078      	str	r0, [r7, #4]
 8000930:	460b      	mov	r3, r1
 8000932:	70fb      	strb	r3, [r7, #3]
	GPIO_Config config = getGPIOConfig(flashNo);
 8000934:	f107 0308 	add.w	r3, r7, #8
 8000938:	78fa      	ldrb	r2, [r7, #3]
 800093a:	4611      	mov	r1, r2
 800093c:	4618      	mov	r0, r3
 800093e:	f7ff ff37 	bl	80007b0 <getGPIOConfig>

	check_busy(hspi, flashNo, BSY_TIMEOUT_MS);
 8000942:	78fb      	ldrb	r3, [r7, #3]
 8000944:	2205      	movs	r2, #5
 8000946:	4619      	mov	r1, r3
 8000948:	6878      	ldr	r0, [r7, #4]
 800094a:	f7ff ff59 	bl	8000800 <check_busy>

	perform_operation(&RST_EN, hspi, config.GPIOx, config.GPIO_Pin_CS);
 800094e:	68ba      	ldr	r2, [r7, #8]
 8000950:	89bb      	ldrh	r3, [r7, #12]
 8000952:	6879      	ldr	r1, [r7, #4]
 8000954:	4807      	ldr	r0, [pc, #28]	; (8000974 <software_reset+0x4c>)
 8000956:	f001 fa79 	bl	8001e4c <perform_operation>
	perform_operation(&DEV_RST, hspi, config.GPIOx, config.GPIO_Pin_CS);
 800095a:	68ba      	ldr	r2, [r7, #8]
 800095c:	89bb      	ldrh	r3, [r7, #12]
 800095e:	6879      	ldr	r1, [r7, #4]
 8000960:	4805      	ldr	r0, [pc, #20]	; (8000978 <software_reset+0x50>)
 8000962:	f001 fa73 	bl	8001e4c <perform_operation>

	HAL_Delay(5);
 8000966:	2005      	movs	r0, #5
 8000968:	f001 fe4a 	bl	8002600 <HAL_Delay>
}
 800096c:	bf00      	nop
 800096e:	3710      	adds	r7, #16
 8000970:	46bd      	mov	sp, r7
 8000972:	bd80      	pop	{r7, pc}
 8000974:	20000012 	.word	0x20000012
 8000978:	20000013 	.word	0x20000013

0800097c <write_data_spi>:

uint8_t write_data_spi(uint8_t page[PAGE_SIZE], SPI_HandleTypeDef *hspi, uint32_t addr, uint8_t flashNo) {
 800097c:	b580      	push	{r7, lr}
 800097e:	b08a      	sub	sp, #40	; 0x28
 8000980:	af04      	add	r7, sp, #16
 8000982:	60f8      	str	r0, [r7, #12]
 8000984:	60b9      	str	r1, [r7, #8]
 8000986:	607a      	str	r2, [r7, #4]
 8000988:	70fb      	strb	r3, [r7, #3]
	GPIO_Config config = getGPIOConfig(flashNo);
 800098a:	f107 0310 	add.w	r3, r7, #16
 800098e:	78fa      	ldrb	r2, [r7, #3]
 8000990:	4611      	mov	r1, r2
 8000992:	4618      	mov	r0, r3
 8000994:	f7ff ff0c 	bl	80007b0 <getGPIOConfig>

	check_busy(hspi, flashNo, BSY_TIMEOUT_MS);
 8000998:	78fb      	ldrb	r3, [r7, #3]
 800099a:	2205      	movs	r2, #5
 800099c:	4619      	mov	r1, r3
 800099e:	68b8      	ldr	r0, [r7, #8]
 80009a0:	f7ff ff2e 	bl	8000800 <check_busy>

	// Send the write enable signal
	write_enable_spi(hspi, flashNo);
 80009a4:	78fb      	ldrb	r3, [r7, #3]
 80009a6:	4619      	mov	r1, r3
 80009a8:	68b8      	ldr	r0, [r7, #8]
 80009aa:	f7ff ffa3 	bl	80008f4 <write_enable_spi>
	spi_write_data(&FLASH_PGWR, PAGE_SIZE, page, hspi, addr, config.GPIOx, config.GPIO_Pin_CS);
 80009ae:	693b      	ldr	r3, [r7, #16]
 80009b0:	8aba      	ldrh	r2, [r7, #20]
 80009b2:	9202      	str	r2, [sp, #8]
 80009b4:	9301      	str	r3, [sp, #4]
 80009b6:	687b      	ldr	r3, [r7, #4]
 80009b8:	9300      	str	r3, [sp, #0]
 80009ba:	68bb      	ldr	r3, [r7, #8]
 80009bc:	68fa      	ldr	r2, [r7, #12]
 80009be:	f44f 7180 	mov.w	r1, #256	; 0x100
 80009c2:	4804      	ldr	r0, [pc, #16]	; (80009d4 <write_data_spi+0x58>)
 80009c4:	f001 faa9 	bl	8001f1a <spi_write_data>

	return 0;
 80009c8:	2300      	movs	r3, #0
}
 80009ca:	4618      	mov	r0, r3
 80009cc:	3718      	adds	r7, #24
 80009ce:	46bd      	mov	sp, r7
 80009d0:	bd80      	pop	{r7, pc}
 80009d2:	bf00      	nop
 80009d4:	2000000d 	.word	0x2000000d

080009d8 <find_next_blank_page>:
 *      Author: aidencontini
 */

#include "data_read_spi.h"

uint32_t find_next_blank_page(SPI_HandleTypeDef *hspi, GPIO_PinState *end_of_flash_ptr, uint8_t flashNo) {
 80009d8:	e92d 43f0 	stmdb	sp!, {r4, r5, r6, r7, r8, r9, lr}
 80009dc:	b093      	sub	sp, #76	; 0x4c
 80009de:	af04      	add	r7, sp, #16
 80009e0:	60f8      	str	r0, [r7, #12]
 80009e2:	60b9      	str	r1, [r7, #8]
 80009e4:	4613      	mov	r3, r2
 80009e6:	71fb      	strb	r3, [r7, #7]
 80009e8:	466b      	mov	r3, sp
 80009ea:	461e      	mov	r6, r3
	uint8_t firstBytes = 4;
 80009ec:	2304      	movs	r3, #4
 80009ee:	f887 3027 	strb.w	r3, [r7, #39]	; 0x27
	GPIO_Config config = getGPIOConfig(flashNo);
 80009f2:	f107 0314 	add.w	r3, r7, #20
 80009f6:	79fa      	ldrb	r2, [r7, #7]
 80009f8:	4611      	mov	r1, r2
 80009fa:	4618      	mov	r0, r3
 80009fc:	f7ff fed8 	bl	80007b0 <getGPIOConfig>

	uint8_t page_start[firstBytes];
 8000a00:	f897 1027 	ldrb.w	r1, [r7, #39]	; 0x27
 8000a04:	460b      	mov	r3, r1
 8000a06:	3b01      	subs	r3, #1
 8000a08:	623b      	str	r3, [r7, #32]
 8000a0a:	b2cb      	uxtb	r3, r1
 8000a0c:	2200      	movs	r2, #0
 8000a0e:	4698      	mov	r8, r3
 8000a10:	4691      	mov	r9, r2
 8000a12:	f04f 0200 	mov.w	r2, #0
 8000a16:	f04f 0300 	mov.w	r3, #0
 8000a1a:	ea4f 03c9 	mov.w	r3, r9, lsl #3
 8000a1e:	ea43 7358 	orr.w	r3, r3, r8, lsr #29
 8000a22:	ea4f 02c8 	mov.w	r2, r8, lsl #3
 8000a26:	b2cb      	uxtb	r3, r1
 8000a28:	2200      	movs	r2, #0
 8000a2a:	461c      	mov	r4, r3
 8000a2c:	4615      	mov	r5, r2
 8000a2e:	f04f 0200 	mov.w	r2, #0
 8000a32:	f04f 0300 	mov.w	r3, #0
 8000a36:	00eb      	lsls	r3, r5, #3
 8000a38:	ea43 7354 	orr.w	r3, r3, r4, lsr #29
 8000a3c:	00e2      	lsls	r2, r4, #3
 8000a3e:	460b      	mov	r3, r1
 8000a40:	3307      	adds	r3, #7
 8000a42:	08db      	lsrs	r3, r3, #3
 8000a44:	00db      	lsls	r3, r3, #3
 8000a46:	ebad 0d03 	sub.w	sp, sp, r3
 8000a4a:	ab04      	add	r3, sp, #16
 8000a4c:	3300      	adds	r3, #0
 8000a4e:	61fb      	str	r3, [r7, #28]
	for (int i = 0; i < firstBytes; i++) {
 8000a50:	2300      	movs	r3, #0
 8000a52:	637b      	str	r3, [r7, #52]	; 0x34
 8000a54:	e007      	b.n	8000a66 <find_next_blank_page+0x8e>
		page_start[i] = 0;
 8000a56:	69fa      	ldr	r2, [r7, #28]
 8000a58:	6b7b      	ldr	r3, [r7, #52]	; 0x34
 8000a5a:	4413      	add	r3, r2
 8000a5c:	2200      	movs	r2, #0
 8000a5e:	701a      	strb	r2, [r3, #0]
	for (int i = 0; i < firstBytes; i++) {
 8000a60:	6b7b      	ldr	r3, [r7, #52]	; 0x34
 8000a62:	3301      	adds	r3, #1
 8000a64:	637b      	str	r3, [r7, #52]	; 0x34
 8000a66:	f897 3027 	ldrb.w	r3, [r7, #39]	; 0x27
 8000a6a:	6b7a      	ldr	r2, [r7, #52]	; 0x34
 8000a6c:	429a      	cmp	r2, r3
 8000a6e:	dbf2      	blt.n	8000a56 <find_next_blank_page+0x7e>
	}

	uint32_t page_start_concat = (page_start[0] << 24) | (page_start[1] << 16) | (page_start[2] << 8) | page_start[3];
 8000a70:	69fb      	ldr	r3, [r7, #28]
 8000a72:	781b      	ldrb	r3, [r3, #0]
 8000a74:	061a      	lsls	r2, r3, #24
 8000a76:	69fb      	ldr	r3, [r7, #28]
 8000a78:	785b      	ldrb	r3, [r3, #1]
 8000a7a:	041b      	lsls	r3, r3, #16
 8000a7c:	431a      	orrs	r2, r3
 8000a7e:	69fb      	ldr	r3, [r7, #28]
 8000a80:	789b      	ldrb	r3, [r3, #2]
 8000a82:	021b      	lsls	r3, r3, #8
 8000a84:	4313      	orrs	r3, r2
 8000a86:	69fa      	ldr	r2, [r7, #28]
 8000a88:	78d2      	ldrb	r2, [r2, #3]
 8000a8a:	4313      	orrs	r3, r2
 8000a8c:	633b      	str	r3, [r7, #48]	; 0x30
	uint32_t temp = 0;
 8000a8e:	2300      	movs	r3, #0
 8000a90:	62fb      	str	r3, [r7, #44]	; 0x2c
	uint32_t page_address = temp;
 8000a92:	6afb      	ldr	r3, [r7, #44]	; 0x2c
 8000a94:	62bb      	str	r3, [r7, #40]	; 0x28

	while ((page_start_concat != 0xFFFFFFFF) || (temp == NUM_OF_PAGES)) {
 8000a96:	e028      	b.n	8000aea <find_next_blank_page+0x112>
		page_address = temp;
 8000a98:	6afb      	ldr	r3, [r7, #44]	; 0x2c
 8000a9a:	62bb      	str	r3, [r7, #40]	; 0x28

		check_busy(hspi, flashNo, BSY_TIMEOUT_MS);
 8000a9c:	79fb      	ldrb	r3, [r7, #7]
 8000a9e:	2205      	movs	r2, #5
 8000aa0:	4619      	mov	r1, r3
 8000aa2:	68f8      	ldr	r0, [r7, #12]
 8000aa4:	f7ff feac 	bl	8000800 <check_busy>

		spi_read_data(&FLASH_READEN, firstBytes, page_start, hspi, page_address, config.GPIOx, config.GPIO_Pin_CS);
 8000aa8:	f897 3027 	ldrb.w	r3, [r7, #39]	; 0x27
 8000aac:	b299      	uxth	r1, r3
 8000aae:	697b      	ldr	r3, [r7, #20]
 8000ab0:	8b3a      	ldrh	r2, [r7, #24]
 8000ab2:	9202      	str	r2, [sp, #8]
 8000ab4:	9301      	str	r3, [sp, #4]
 8000ab6:	6abb      	ldr	r3, [r7, #40]	; 0x28
 8000ab8:	9300      	str	r3, [sp, #0]
 8000aba:	68fb      	ldr	r3, [r7, #12]
 8000abc:	69fa      	ldr	r2, [r7, #28]
 8000abe:	4816      	ldr	r0, [pc, #88]	; (8000b18 <find_next_blank_page+0x140>)
 8000ac0:	f001 f9e4 	bl	8001e8c <spi_read_data>

		page_start_concat = (page_start[0] << 24) | (page_start[1] << 16) | (page_start[2] << 8) | page_start[3];
 8000ac4:	69fb      	ldr	r3, [r7, #28]
 8000ac6:	781b      	ldrb	r3, [r3, #0]
 8000ac8:	061a      	lsls	r2, r3, #24
 8000aca:	69fb      	ldr	r3, [r7, #28]
 8000acc:	785b      	ldrb	r3, [r3, #1]
 8000ace:	041b      	lsls	r3, r3, #16
 8000ad0:	431a      	orrs	r2, r3
 8000ad2:	69fb      	ldr	r3, [r7, #28]
 8000ad4:	789b      	ldrb	r3, [r3, #2]
 8000ad6:	021b      	lsls	r3, r3, #8
 8000ad8:	4313      	orrs	r3, r2
 8000ada:	69fa      	ldr	r2, [r7, #28]
 8000adc:	78d2      	ldrb	r2, [r2, #3]
 8000ade:	4313      	orrs	r3, r2
 8000ae0:	633b      	str	r3, [r7, #48]	; 0x30
		temp += PAGE_SIZE;
 8000ae2:	6afb      	ldr	r3, [r7, #44]	; 0x2c
 8000ae4:	f503 7380 	add.w	r3, r3, #256	; 0x100
 8000ae8:	62fb      	str	r3, [r7, #44]	; 0x2c
	while ((page_start_concat != 0xFFFFFFFF) || (temp == NUM_OF_PAGES)) {
 8000aea:	6b3b      	ldr	r3, [r7, #48]	; 0x30
 8000aec:	f1b3 3fff 	cmp.w	r3, #4294967295	; 0xffffffff
 8000af0:	d1d2      	bne.n	8000a98 <find_next_blank_page+0xc0>
 8000af2:	6afb      	ldr	r3, [r7, #44]	; 0x2c
 8000af4:	f5b3 3f80 	cmp.w	r3, #65536	; 0x10000
 8000af8:	d0ce      	beq.n	8000a98 <find_next_blank_page+0xc0>
	}

	if (page_address == (NUM_OF_PAGES * PAGE_SIZE)) {
 8000afa:	6abb      	ldr	r3, [r7, #40]	; 0x28
 8000afc:	f1b3 7f80 	cmp.w	r3, #16777216	; 0x1000000
 8000b00:	d102      	bne.n	8000b08 <find_next_blank_page+0x130>
		*end_of_flash_ptr = GPIO_PIN_RESET;
 8000b02:	68bb      	ldr	r3, [r7, #8]
 8000b04:	2200      	movs	r2, #0
 8000b06:	701a      	strb	r2, [r3, #0]
	}
	return page_address;
 8000b08:	6abb      	ldr	r3, [r7, #40]	; 0x28
 8000b0a:	46b5      	mov	sp, r6
}
 8000b0c:	4618      	mov	r0, r3
 8000b0e:	373c      	adds	r7, #60	; 0x3c
 8000b10:	46bd      	mov	sp, r7
 8000b12:	e8bd 83f0 	ldmia.w	sp!, {r4, r5, r6, r7, r8, r9, pc}
 8000b16:	bf00      	nop
 8000b18:	2000000f 	.word	0x2000000f

08000b1c <read_page_spi>:

void read_page_spi(uint8_t data_read[PAGE_SIZE], SPI_HandleTypeDef *hspi, uint32_t addr, uint8_t flashNo) {
 8000b1c:	b580      	push	{r7, lr}
 8000b1e:	b08a      	sub	sp, #40	; 0x28
 8000b20:	af04      	add	r7, sp, #16
 8000b22:	60f8      	str	r0, [r7, #12]
 8000b24:	60b9      	str	r1, [r7, #8]
 8000b26:	607a      	str	r2, [r7, #4]
 8000b28:	70fb      	strb	r3, [r7, #3]
	GPIO_Config config = getGPIOConfig(flashNo);
 8000b2a:	f107 0310 	add.w	r3, r7, #16
 8000b2e:	78fa      	ldrb	r2, [r7, #3]
 8000b30:	4611      	mov	r1, r2
 8000b32:	4618      	mov	r0, r3
 8000b34:	f7ff fe3c 	bl	80007b0 <getGPIOConfig>

	// Read the status register to ensure no write is currently in progress
	check_busy(hspi, flashNo, BSY_TIMEOUT_MS);
 8000b38:	78fb      	ldrb	r3, [r7, #3]
 8000b3a:	2205      	movs	r2, #5
 8000b3c:	4619      	mov	r1, r3
 8000b3e:	68b8      	ldr	r0, [r7, #8]
 8000b40:	f7ff fe5e 	bl	8000800 <check_busy>
	spi_read_data(&FLASH_READEN, PAGE_SIZE, data_read, hspi, addr, config.GPIOx, config.GPIO_Pin_CS);
 8000b44:	693b      	ldr	r3, [r7, #16]
 8000b46:	8aba      	ldrh	r2, [r7, #20]
 8000b48:	9202      	str	r2, [sp, #8]
 8000b4a:	9301      	str	r3, [sp, #4]
 8000b4c:	687b      	ldr	r3, [r7, #4]
 8000b4e:	9300      	str	r3, [sp, #0]
 8000b50:	68bb      	ldr	r3, [r7, #8]
 8000b52:	68fa      	ldr	r2, [r7, #12]
 8000b54:	f44f 7180 	mov.w	r1, #256	; 0x100
 8000b58:	4803      	ldr	r0, [pc, #12]	; (8000b68 <read_page_spi+0x4c>)
 8000b5a:	f001 f997 	bl	8001e8c <spi_read_data>
}
 8000b5e:	bf00      	nop
 8000b60:	3718      	adds	r7, #24
 8000b62:	46bd      	mov	sp, r7
 8000b64:	bd80      	pop	{r7, pc}
 8000b66:	bf00      	nop
 8000b68:	2000000f 	.word	0x2000000f

08000b6c <read_manufacturer_id>:

void read_manufacturer_id(uint8_t manu[2], SPI_HandleTypeDef *hspi, uint8_t flashNo) {
 8000b6c:	b580      	push	{r7, lr}
 8000b6e:	b08c      	sub	sp, #48	; 0x30
 8000b70:	af04      	add	r7, sp, #16
 8000b72:	60f8      	str	r0, [r7, #12]
 8000b74:	60b9      	str	r1, [r7, #8]
 8000b76:	4613      	mov	r3, r2
 8000b78:	71fb      	strb	r3, [r7, #7]
	GPIO_Config config = getGPIOConfig(flashNo);
 8000b7a:	f107 0314 	add.w	r3, r7, #20
 8000b7e:	79fa      	ldrb	r2, [r7, #7]
 8000b80:	4611      	mov	r1, r2
 8000b82:	4618      	mov	r0, r3
 8000b84:	f7ff fe14 	bl	80007b0 <getGPIOConfig>

	// Read the status register to ensure no write is currently in progress
	check_busy(hspi, flashNo, BSY_TIMEOUT_MS);
 8000b88:	79fb      	ldrb	r3, [r7, #7]
 8000b8a:	2205      	movs	r2, #5
 8000b8c:	4619      	mov	r1, r3
 8000b8e:	68b8      	ldr	r0, [r7, #8]
 8000b90:	f7ff fe36 	bl	8000800 <check_busy>

	// Read the entire contents of a page starting from the given address
	uint8_t addr = 0x00;
 8000b94:	2300      	movs	r3, #0
 8000b96:	77fb      	strb	r3, [r7, #31]
	spi_read_data(&FLASH_READ_MANU, 2, manu, hspi, addr, config.GPIOx, config.GPIO_Pin_CS);
 8000b98:	7ffb      	ldrb	r3, [r7, #31]
 8000b9a:	697a      	ldr	r2, [r7, #20]
 8000b9c:	8b39      	ldrh	r1, [r7, #24]
 8000b9e:	9102      	str	r1, [sp, #8]
 8000ba0:	9201      	str	r2, [sp, #4]
 8000ba2:	9300      	str	r3, [sp, #0]
 8000ba4:	68bb      	ldr	r3, [r7, #8]
 8000ba6:	68fa      	ldr	r2, [r7, #12]
 8000ba8:	2102      	movs	r1, #2
 8000baa:	4803      	ldr	r0, [pc, #12]	; (8000bb8 <read_manufacturer_id+0x4c>)
 8000bac:	f001 f96e 	bl	8001e8c <spi_read_data>
}
 8000bb0:	bf00      	nop
 8000bb2:	3720      	adds	r7, #32
 8000bb4:	46bd      	mov	sp, r7
 8000bb6:	bd80      	pop	{r7, pc}
 8000bb8:	20000010 	.word	0x20000010

08000bbc <i2c_read_reg>:
 *      Author: aidencontini
 */

#include "i2c_driver.h"

HAL_StatusTypeDef i2c_read_reg(I2C_HandleTypeDef* hi2c, uint8_t* data_ptr, uint8_t dev_addr, uint8_t* register_addr) {
 8000bbc:	b580      	push	{r7, lr}
 8000bbe:	b088      	sub	sp, #32
 8000bc0:	af02      	add	r7, sp, #8
 8000bc2:	60f8      	str	r0, [r7, #12]
 8000bc4:	60b9      	str	r1, [r7, #8]
 8000bc6:	603b      	str	r3, [r7, #0]
 8000bc8:	4613      	mov	r3, r2
 8000bca:	71fb      	strb	r3, [r7, #7]
	HAL_StatusTypeDef hal_status = HAL_I2C_IsDeviceReady(hi2c, (dev_addr << 1) & 0xFE, 10, I2C_TIMEOUT_LRG);
 8000bcc:	79fb      	ldrb	r3, [r7, #7]
 8000bce:	005b      	lsls	r3, r3, #1
 8000bd0:	b29b      	uxth	r3, r3
 8000bd2:	b2db      	uxtb	r3, r3
 8000bd4:	b299      	uxth	r1, r3
 8000bd6:	230a      	movs	r3, #10
 8000bd8:	220a      	movs	r2, #10
 8000bda:	68f8      	ldr	r0, [r7, #12]
 8000bdc:	f002 fd2c 	bl	8003638 <HAL_I2C_IsDeviceReady>
 8000be0:	4603      	mov	r3, r0
 8000be2:	75fb      	strb	r3, [r7, #23]

	if (hal_status == HAL_OK) {
 8000be4:	7dfb      	ldrb	r3, [r7, #23]
 8000be6:	2b00      	cmp	r3, #0
 8000be8:	d11b      	bne.n	8000c22 <i2c_read_reg+0x66>
		HAL_I2C_Master_Transmit(hi2c, (dev_addr << 1) & 0xFE, register_addr, 1, I2C_TIMEOUT_SML);
 8000bea:	79fb      	ldrb	r3, [r7, #7]
 8000bec:	005b      	lsls	r3, r3, #1
 8000bee:	b29b      	uxth	r3, r3
 8000bf0:	b2db      	uxtb	r3, r3
 8000bf2:	b299      	uxth	r1, r3
 8000bf4:	2301      	movs	r3, #1
 8000bf6:	9300      	str	r3, [sp, #0]
 8000bf8:	2301      	movs	r3, #1
 8000bfa:	683a      	ldr	r2, [r7, #0]
 8000bfc:	68f8      	ldr	r0, [r7, #12]
 8000bfe:	f002 f9eb 	bl	8002fd8 <HAL_I2C_Master_Transmit>
		hal_status = HAL_I2C_Master_Receive(hi2c, (dev_addr << 1) | 0x01, data_ptr, 1, I2C_TIMEOUT_SML);
 8000c02:	79fb      	ldrb	r3, [r7, #7]
 8000c04:	005b      	lsls	r3, r3, #1
 8000c06:	b21b      	sxth	r3, r3
 8000c08:	f043 0301 	orr.w	r3, r3, #1
 8000c0c:	b21b      	sxth	r3, r3
 8000c0e:	b299      	uxth	r1, r3
 8000c10:	2301      	movs	r3, #1
 8000c12:	9300      	str	r3, [sp, #0]
 8000c14:	2301      	movs	r3, #1
 8000c16:	68ba      	ldr	r2, [r7, #8]
 8000c18:	68f8      	ldr	r0, [r7, #12]
 8000c1a:	f002 fadb 	bl	80031d4 <HAL_I2C_Master_Receive>
 8000c1e:	4603      	mov	r3, r0
 8000c20:	75fb      	strb	r3, [r7, #23]
	}

	return hal_status;
 8000c22:	7dfb      	ldrb	r3, [r7, #23]
}
 8000c24:	4618      	mov	r0, r3
 8000c26:	3718      	adds	r7, #24
 8000c28:	46bd      	mov	sp, r7
 8000c2a:	bd80      	pop	{r7, pc}

08000c2c <i2c_burst_read>:

HAL_StatusTypeDef i2c_burst_read(I2C_HandleTypeDef* hi2c, uint8_t dev_addr, uint8_t register_addr, uint8_t size, uint8_t data_buffer[size]) {
 8000c2c:	b580      	push	{r7, lr}
 8000c2e:	b086      	sub	sp, #24
 8000c30:	af02      	add	r7, sp, #8
 8000c32:	6078      	str	r0, [r7, #4]
 8000c34:	4608      	mov	r0, r1
 8000c36:	4611      	mov	r1, r2
 8000c38:	461a      	mov	r2, r3
 8000c3a:	4603      	mov	r3, r0
 8000c3c:	70fb      	strb	r3, [r7, #3]
 8000c3e:	460b      	mov	r3, r1
 8000c40:	70bb      	strb	r3, [r7, #2]
 8000c42:	4613      	mov	r3, r2
 8000c44:	707b      	strb	r3, [r7, #1]
	HAL_StatusTypeDef hal_status = HAL_I2C_IsDeviceReady(hi2c, (dev_addr << 1) & 0xFE, 10, I2C_TIMEOUT_LRG);
 8000c46:	78fb      	ldrb	r3, [r7, #3]
 8000c48:	005b      	lsls	r3, r3, #1
 8000c4a:	b29b      	uxth	r3, r3
 8000c4c:	b2db      	uxtb	r3, r3
 8000c4e:	b299      	uxth	r1, r3
 8000c50:	230a      	movs	r3, #10
 8000c52:	220a      	movs	r2, #10
 8000c54:	6878      	ldr	r0, [r7, #4]
 8000c56:	f002 fcef 	bl	8003638 <HAL_I2C_IsDeviceReady>
 8000c5a:	4603      	mov	r3, r0
 8000c5c:	73fb      	strb	r3, [r7, #15]

	if (hal_status == HAL_OK) {
 8000c5e:	7bfb      	ldrb	r3, [r7, #15]
 8000c60:	2b00      	cmp	r3, #0
 8000c62:	d122      	bne.n	8000caa <i2c_burst_read+0x7e>
		// In order to read multiple bytes, it is necessary to assert the most significant bit of the sub-address field.
		uint8_t addr = register_addr | 0x80;
 8000c64:	78bb      	ldrb	r3, [r7, #2]
 8000c66:	f063 037f 	orn	r3, r3, #127	; 0x7f
 8000c6a:	b2db      	uxtb	r3, r3
 8000c6c:	73bb      	strb	r3, [r7, #14]
		HAL_I2C_Master_Transmit(hi2c, (dev_addr << 1) & 0xFE, &addr, 1, I2C_TIMEOUT_SML);
 8000c6e:	78fb      	ldrb	r3, [r7, #3]
 8000c70:	005b      	lsls	r3, r3, #1
 8000c72:	b29b      	uxth	r3, r3
 8000c74:	b2db      	uxtb	r3, r3
 8000c76:	b299      	uxth	r1, r3
 8000c78:	f107 020e 	add.w	r2, r7, #14
 8000c7c:	2301      	movs	r3, #1
 8000c7e:	9300      	str	r3, [sp, #0]
 8000c80:	2301      	movs	r3, #1
 8000c82:	6878      	ldr	r0, [r7, #4]
 8000c84:	f002 f9a8 	bl	8002fd8 <HAL_I2C_Master_Transmit>
		hal_status =  HAL_I2C_Master_Receive(hi2c, (dev_addr << 1) | 0x01, data_buffer, size, I2C_TIMEOUT_LRG);
 8000c88:	78fb      	ldrb	r3, [r7, #3]
 8000c8a:	005b      	lsls	r3, r3, #1
 8000c8c:	b21b      	sxth	r3, r3
 8000c8e:	f043 0301 	orr.w	r3, r3, #1
 8000c92:	b21b      	sxth	r3, r3
 8000c94:	b299      	uxth	r1, r3
 8000c96:	787b      	ldrb	r3, [r7, #1]
 8000c98:	b29b      	uxth	r3, r3
 8000c9a:	220a      	movs	r2, #10
 8000c9c:	9200      	str	r2, [sp, #0]
 8000c9e:	69ba      	ldr	r2, [r7, #24]
 8000ca0:	6878      	ldr	r0, [r7, #4]
 8000ca2:	f002 fa97 	bl	80031d4 <HAL_I2C_Master_Receive>
 8000ca6:	4603      	mov	r3, r0
 8000ca8:	73fb      	strb	r3, [r7, #15]
	}

	return hal_status;
 8000caa:	7bfb      	ldrb	r3, [r7, #15]
}
 8000cac:	4618      	mov	r0, r3
 8000cae:	3710      	adds	r7, #16
 8000cb0:	46bd      	mov	sp, r7
 8000cb2:	bd80      	pop	{r7, pc}

08000cb4 <i2c_write_reg>:

HAL_StatusTypeDef i2c_write_reg(I2C_HandleTypeDef* hi2c, uint8_t dev_addr, uint8_t* register_addr, uint8_t data) {
 8000cb4:	b580      	push	{r7, lr}
 8000cb6:	b088      	sub	sp, #32
 8000cb8:	af02      	add	r7, sp, #8
 8000cba:	60f8      	str	r0, [r7, #12]
 8000cbc:	607a      	str	r2, [r7, #4]
 8000cbe:	461a      	mov	r2, r3
 8000cc0:	460b      	mov	r3, r1
 8000cc2:	72fb      	strb	r3, [r7, #11]
 8000cc4:	4613      	mov	r3, r2
 8000cc6:	72bb      	strb	r3, [r7, #10]
	HAL_StatusTypeDef hal_status = HAL_I2C_IsDeviceReady(hi2c, (dev_addr << 1) & 0xFE, 10, I2C_TIMEOUT_LRG);
 8000cc8:	7afb      	ldrb	r3, [r7, #11]
 8000cca:	005b      	lsls	r3, r3, #1
 8000ccc:	b29b      	uxth	r3, r3
 8000cce:	b2db      	uxtb	r3, r3
 8000cd0:	b299      	uxth	r1, r3
 8000cd2:	230a      	movs	r3, #10
 8000cd4:	220a      	movs	r2, #10
 8000cd6:	68f8      	ldr	r0, [r7, #12]
 8000cd8:	f002 fcae 	bl	8003638 <HAL_I2C_IsDeviceReady>
 8000cdc:	4603      	mov	r3, r0
 8000cde:	75fb      	strb	r3, [r7, #23]

	if (hal_status == HAL_OK) {
 8000ce0:	7dfb      	ldrb	r3, [r7, #23]
 8000ce2:	2b00      	cmp	r3, #0
 8000ce4:	d113      	bne.n	8000d0e <i2c_write_reg+0x5a>
		uint8_t data_tx[2] = {*register_addr, data};
 8000ce6:	687b      	ldr	r3, [r7, #4]
 8000ce8:	781b      	ldrb	r3, [r3, #0]
 8000cea:	753b      	strb	r3, [r7, #20]
 8000cec:	7abb      	ldrb	r3, [r7, #10]
 8000cee:	757b      	strb	r3, [r7, #21]
		hal_status = HAL_I2C_Master_Transmit(hi2c, (dev_addr << 1) & 0xFE, data_tx, 2, I2C_TIMEOUT_SML);
 8000cf0:	7afb      	ldrb	r3, [r7, #11]
 8000cf2:	005b      	lsls	r3, r3, #1
 8000cf4:	b29b      	uxth	r3, r3
 8000cf6:	b2db      	uxtb	r3, r3
 8000cf8:	b299      	uxth	r1, r3
 8000cfa:	f107 0214 	add.w	r2, r7, #20
 8000cfe:	2301      	movs	r3, #1
 8000d00:	9300      	str	r3, [sp, #0]
 8000d02:	2302      	movs	r3, #2
 8000d04:	68f8      	ldr	r0, [r7, #12]
 8000d06:	f002 f967 	bl	8002fd8 <HAL_I2C_Master_Transmit>
 8000d0a:	4603      	mov	r3, r0
 8000d0c:	75fb      	strb	r3, [r7, #23]
	}

	return hal_status;
 8000d0e:	7dfb      	ldrb	r3, [r7, #23]
}
 8000d10:	4618      	mov	r0, r3
 8000d12:	3718      	adds	r7, #24
 8000d14:	46bd      	mov	sp, r7
 8000d16:	bd80      	pop	{r7, pc}

08000d18 <main>:
/**
  * @brief  The application entry point.
  * @retval int
  */
int main(void)
{
 8000d18:	b580      	push	{r7, lr}
 8000d1a:	af00      	add	r7, sp, #0
  /* USER CODE END 1 */

  /* MCU Configuration--------------------------------------------------------*/

  /* Reset of all peripherals, Initializes the Flash interface and the Systick. */
  HAL_Init();
 8000d1c:	f001 fbfe 	bl	800251c <HAL_Init>
  /* USER CODE BEGIN Init */

  /* USER CODE END Init */

  /* Configure the system clock */
  SystemClock_Config();
 8000d20:	f000 f81c 	bl	8000d5c <SystemClock_Config>
  /* USER CODE BEGIN SysInit */

  /* USER CODE END SysInit */

  /* Initialize all configured peripherals */
  MX_GPIO_Init();
 8000d24:	f000 f9ee 	bl	8001104 <MX_GPIO_Init>
  MX_I2C1_Init();
 8000d28:	f000 f87a 	bl	8000e20 <MX_I2C1_Init>
  MX_RTC_Init();
 8000d2c:	f000 f8f8 	bl	8000f20 <MX_RTC_Init>
  MX_SPI1_Init();
 8000d30:	f000 f91c 	bl	8000f6c <MX_SPI1_Init>
  MX_TIM6_Init();
 8000d34:	f000 f986 	bl	8001044 <MX_TIM6_Init>
  MX_USART2_UART_Init();
 8000d38:	f000 f9ba 	bl	80010b0 <MX_USART2_UART_Init>
  MX_I2C2_Init();
 8000d3c:	f000 f8b0 	bl	8000ea0 <MX_I2C2_Init>
  MX_SPI2_Init();
 8000d40:	f000 f94a 	bl	8000fd8 <MX_SPI2_Init>
  /* USER CODE BEGIN 2 */
  systemInit();
 8000d44:	f000 fad4 	bl	80012f0 <systemInit>
  while (1)
  {
    /* USER CODE END WHILE */

    /* USER CODE BEGIN 3 */
	  if(uart_rec_flag == 0x01) {
 8000d48:	4b03      	ldr	r3, [pc, #12]	; (8000d58 <main+0x40>)
 8000d4a:	781b      	ldrb	r3, [r3, #0]
 8000d4c:	2b01      	cmp	r3, #1
 8000d4e:	d1fb      	bne.n	8000d48 <main+0x30>
		  handleUART();
 8000d50:	f000 fb78 	bl	8001444 <handleUART>
	  if(uart_rec_flag == 0x01) {
 8000d54:	e7f8      	b.n	8000d48 <main+0x30>
 8000d56:	bf00      	nop
 8000d58:	2000024a 	.word	0x2000024a

08000d5c <SystemClock_Config>:
/**
  * @brief System Clock Configuration
  * @retval None
  */
void SystemClock_Config(void)
{
 8000d5c:	b580      	push	{r7, lr}
 8000d5e:	b094      	sub	sp, #80	; 0x50
 8000d60:	af00      	add	r7, sp, #0
  RCC_OscInitTypeDef RCC_OscInitStruct = {0};
 8000d62:	f107 0320 	add.w	r3, r7, #32
 8000d66:	2230      	movs	r2, #48	; 0x30
 8000d68:	2100      	movs	r1, #0
 8000d6a:	4618      	mov	r0, r3
 8000d6c:	f006 fc02 	bl	8007574 <memset>
  RCC_ClkInitTypeDef RCC_ClkInitStruct = {0};
 8000d70:	f107 030c 	add.w	r3, r7, #12
 8000d74:	2200      	movs	r2, #0
 8000d76:	601a      	str	r2, [r3, #0]
 8000d78:	605a      	str	r2, [r3, #4]
 8000d7a:	609a      	str	r2, [r3, #8]
 8000d7c:	60da      	str	r2, [r3, #12]
 8000d7e:	611a      	str	r2, [r3, #16]

  /** Configure the main internal regulator output voltage
  */
  __HAL_RCC_PWR_CLK_ENABLE();
 8000d80:	2300      	movs	r3, #0
 8000d82:	60bb      	str	r3, [r7, #8]
 8000d84:	4b24      	ldr	r3, [pc, #144]	; (8000e18 <SystemClock_Config+0xbc>)
 8000d86:	6c1b      	ldr	r3, [r3, #64]	; 0x40
 8000d88:	4a23      	ldr	r2, [pc, #140]	; (8000e18 <SystemClock_Config+0xbc>)
 8000d8a:	f043 5380 	orr.w	r3, r3, #268435456	; 0x10000000
 8000d8e:	6413      	str	r3, [r2, #64]	; 0x40
 8000d90:	4b21      	ldr	r3, [pc, #132]	; (8000e18 <SystemClock_Config+0xbc>)
 8000d92:	6c1b      	ldr	r3, [r3, #64]	; 0x40
 8000d94:	f003 5380 	and.w	r3, r3, #268435456	; 0x10000000
 8000d98:	60bb      	str	r3, [r7, #8]
 8000d9a:	68bb      	ldr	r3, [r7, #8]
  __HAL_PWR_VOLTAGESCALING_CONFIG(PWR_REGULATOR_VOLTAGE_SCALE3);
 8000d9c:	2300      	movs	r3, #0
 8000d9e:	607b      	str	r3, [r7, #4]
 8000da0:	4b1e      	ldr	r3, [pc, #120]	; (8000e1c <SystemClock_Config+0xc0>)
 8000da2:	681b      	ldr	r3, [r3, #0]
 8000da4:	f423 4340 	bic.w	r3, r3, #49152	; 0xc000
 8000da8:	4a1c      	ldr	r2, [pc, #112]	; (8000e1c <SystemClock_Config+0xc0>)
 8000daa:	f443 4380 	orr.w	r3, r3, #16384	; 0x4000
 8000dae:	6013      	str	r3, [r2, #0]
 8000db0:	4b1a      	ldr	r3, [pc, #104]	; (8000e1c <SystemClock_Config+0xc0>)
 8000db2:	681b      	ldr	r3, [r3, #0]
 8000db4:	f403 4340 	and.w	r3, r3, #49152	; 0xc000
 8000db8:	607b      	str	r3, [r7, #4]
 8000dba:	687b      	ldr	r3, [r7, #4]

  /** Initializes the RCC Oscillators according to the specified parameters
  * in the RCC_OscInitTypeDef structure.
  */
  RCC_OscInitStruct.OscillatorType = RCC_OSCILLATORTYPE_HSI|RCC_OSCILLATORTYPE_LSI;
 8000dbc:	230a      	movs	r3, #10
 8000dbe:	623b      	str	r3, [r7, #32]
  RCC_OscInitStruct.HSIState = RCC_HSI_ON;
 8000dc0:	2301      	movs	r3, #1
 8000dc2:	62fb      	str	r3, [r7, #44]	; 0x2c
  RCC_OscInitStruct.HSICalibrationValue = RCC_HSICALIBRATION_DEFAULT;
 8000dc4:	2310      	movs	r3, #16
 8000dc6:	633b      	str	r3, [r7, #48]	; 0x30
  RCC_OscInitStruct.LSIState = RCC_LSI_ON;
 8000dc8:	2301      	movs	r3, #1
 8000dca:	637b      	str	r3, [r7, #52]	; 0x34
  RCC_OscInitStruct.PLL.PLLState = RCC_PLL_NONE;
 8000dcc:	2300      	movs	r3, #0
 8000dce:	63bb      	str	r3, [r7, #56]	; 0x38
  if (HAL_RCC_OscConfig(&RCC_OscInitStruct) != HAL_OK)
 8000dd0:	f107 0320 	add.w	r3, r7, #32
 8000dd4:	4618      	mov	r0, r3
 8000dd6:	f003 f95f 	bl	8004098 <HAL_RCC_OscConfig>
 8000dda:	4603      	mov	r3, r0
 8000ddc:	2b00      	cmp	r3, #0
 8000dde:	d001      	beq.n	8000de4 <SystemClock_Config+0x88>
  {
    Error_Handler();
 8000de0:	f000 fc9b 	bl	800171a <Error_Handler>
  }

  /** Initializes the CPU, AHB and APB buses clocks
  */
  RCC_ClkInitStruct.ClockType = RCC_CLOCKTYPE_HCLK|RCC_CLOCKTYPE_SYSCLK
 8000de4:	230f      	movs	r3, #15
 8000de6:	60fb      	str	r3, [r7, #12]
                              |RCC_CLOCKTYPE_PCLK1|RCC_CLOCKTYPE_PCLK2;
  RCC_ClkInitStruct.SYSCLKSource = RCC_SYSCLKSOURCE_HSI;
 8000de8:	2300      	movs	r3, #0
 8000dea:	613b      	str	r3, [r7, #16]
  RCC_ClkInitStruct.AHBCLKDivider = RCC_SYSCLK_DIV1;
 8000dec:	2300      	movs	r3, #0
 8000dee:	617b      	str	r3, [r7, #20]
  RCC_ClkInitStruct.APB1CLKDivider = RCC_HCLK_DIV1;
 8000df0:	2300      	movs	r3, #0
 8000df2:	61bb      	str	r3, [r7, #24]
  RCC_ClkInitStruct.APB2CLKDivider = RCC_HCLK_DIV1;
 8000df4:	2300      	movs	r3, #0
 8000df6:	61fb      	str	r3, [r7, #28]

  if (HAL_RCC_ClockConfig(&RCC_ClkInitStruct, FLASH_LATENCY_0) != HAL_OK)
 8000df8:	f107 030c 	add.w	r3, r7, #12
 8000dfc:	2100      	movs	r1, #0
 8000dfe:	4618      	mov	r0, r3
 8000e00:	f003 fbc2 	bl	8004588 <HAL_RCC_ClockConfig>
 8000e04:	4603      	mov	r3, r0
 8000e06:	2b00      	cmp	r3, #0
 8000e08:	d001      	beq.n	8000e0e <SystemClock_Config+0xb2>
  {
    Error_Handler();
 8000e0a:	f000 fc86 	bl	800171a <Error_Handler>
  }
}
 8000e0e:	bf00      	nop
 8000e10:	3750      	adds	r7, #80	; 0x50
 8000e12:	46bd      	mov	sp, r7
 8000e14:	bd80      	pop	{r7, pc}
 8000e16:	bf00      	nop
 8000e18:	40023800 	.word	0x40023800
 8000e1c:	40007000 	.word	0x40007000

08000e20 <MX_I2C1_Init>:
  * @brief I2C1 Initialization Function
  * @param None
  * @retval None
  */
static void MX_I2C1_Init(void)
{
 8000e20:	b580      	push	{r7, lr}
 8000e22:	af00      	add	r7, sp, #0
  /* USER CODE END I2C1_Init 0 */

  /* USER CODE BEGIN I2C1_Init 1 */

  /* USER CODE END I2C1_Init 1 */
  hi2c1.Instance = I2C1;
 8000e24:	4b1b      	ldr	r3, [pc, #108]	; (8000e94 <MX_I2C1_Init+0x74>)
 8000e26:	4a1c      	ldr	r2, [pc, #112]	; (8000e98 <MX_I2C1_Init+0x78>)
 8000e28:	601a      	str	r2, [r3, #0]
  hi2c1.Init.ClockSpeed = 100000;
 8000e2a:	4b1a      	ldr	r3, [pc, #104]	; (8000e94 <MX_I2C1_Init+0x74>)
 8000e2c:	4a1b      	ldr	r2, [pc, #108]	; (8000e9c <MX_I2C1_Init+0x7c>)
 8000e2e:	605a      	str	r2, [r3, #4]
  hi2c1.Init.DutyCycle = I2C_DUTYCYCLE_2;
 8000e30:	4b18      	ldr	r3, [pc, #96]	; (8000e94 <MX_I2C1_Init+0x74>)
 8000e32:	2200      	movs	r2, #0
 8000e34:	609a      	str	r2, [r3, #8]
  hi2c1.Init.OwnAddress1 = 0;
 8000e36:	4b17      	ldr	r3, [pc, #92]	; (8000e94 <MX_I2C1_Init+0x74>)
 8000e38:	2200      	movs	r2, #0
 8000e3a:	60da      	str	r2, [r3, #12]
  hi2c1.Init.AddressingMode = I2C_ADDRESSINGMODE_7BIT;
 8000e3c:	4b15      	ldr	r3, [pc, #84]	; (8000e94 <MX_I2C1_Init+0x74>)
 8000e3e:	f44f 4280 	mov.w	r2, #16384	; 0x4000
 8000e42:	611a      	str	r2, [r3, #16]
  hi2c1.Init.DualAddressMode = I2C_DUALADDRESS_DISABLE;
 8000e44:	4b13      	ldr	r3, [pc, #76]	; (8000e94 <MX_I2C1_Init+0x74>)
 8000e46:	2200      	movs	r2, #0
 8000e48:	615a      	str	r2, [r3, #20]
  hi2c1.Init.OwnAddress2 = 0;
 8000e4a:	4b12      	ldr	r3, [pc, #72]	; (8000e94 <MX_I2C1_Init+0x74>)
 8000e4c:	2200      	movs	r2, #0
 8000e4e:	619a      	str	r2, [r3, #24]
  hi2c1.Init.GeneralCallMode = I2C_GENERALCALL_DISABLE;
 8000e50:	4b10      	ldr	r3, [pc, #64]	; (8000e94 <MX_I2C1_Init+0x74>)
 8000e52:	2200      	movs	r2, #0
 8000e54:	61da      	str	r2, [r3, #28]
  hi2c1.Init.NoStretchMode = I2C_NOSTRETCH_DISABLE;
 8000e56:	4b0f      	ldr	r3, [pc, #60]	; (8000e94 <MX_I2C1_Init+0x74>)
 8000e58:	2200      	movs	r2, #0
 8000e5a:	621a      	str	r2, [r3, #32]
  if (HAL_I2C_Init(&hi2c1) != HAL_OK)
 8000e5c:	480d      	ldr	r0, [pc, #52]	; (8000e94 <MX_I2C1_Init+0x74>)
 8000e5e:	f001 ff77 	bl	8002d50 <HAL_I2C_Init>
 8000e62:	4603      	mov	r3, r0
 8000e64:	2b00      	cmp	r3, #0
 8000e66:	d001      	beq.n	8000e6c <MX_I2C1_Init+0x4c>
  {
    Error_Handler();
 8000e68:	f000 fc57 	bl	800171a <Error_Handler>
  }

  /** Configure Analogue filter
  */
  if (HAL_I2CEx_ConfigAnalogFilter(&hi2c1, I2C_ANALOGFILTER_ENABLE) != HAL_OK)
 8000e6c:	2100      	movs	r1, #0
 8000e6e:	4809      	ldr	r0, [pc, #36]	; (8000e94 <MX_I2C1_Init+0x74>)
 8000e70:	f003 f896 	bl	8003fa0 <HAL_I2CEx_ConfigAnalogFilter>
 8000e74:	4603      	mov	r3, r0
 8000e76:	2b00      	cmp	r3, #0
 8000e78:	d001      	beq.n	8000e7e <MX_I2C1_Init+0x5e>
  {
    Error_Handler();
 8000e7a:	f000 fc4e 	bl	800171a <Error_Handler>
  }

  /** Configure Digital filter
  */
  if (HAL_I2CEx_ConfigDigitalFilter(&hi2c1, 0) != HAL_OK)
 8000e7e:	2100      	movs	r1, #0
 8000e80:	4804      	ldr	r0, [pc, #16]	; (8000e94 <MX_I2C1_Init+0x74>)
 8000e82:	f003 f8c9 	bl	8004018 <HAL_I2CEx_ConfigDigitalFilter>
 8000e86:	4603      	mov	r3, r0
 8000e88:	2b00      	cmp	r3, #0
 8000e8a:	d001      	beq.n	8000e90 <MX_I2C1_Init+0x70>
  {
    Error_Handler();
 8000e8c:	f000 fc45 	bl	800171a <Error_Handler>
  }
  /* USER CODE BEGIN I2C1_Init 2 */

  /* USER CODE END I2C1_Init 2 */

}
 8000e90:	bf00      	nop
 8000e92:	bd80      	pop	{r7, pc}
 8000e94:	20000040 	.word	0x20000040
 8000e98:	40005400 	.word	0x40005400
 8000e9c:	000186a0 	.word	0x000186a0

08000ea0 <MX_I2C2_Init>:
  * @brief I2C2 Initialization Function
  * @param None
  * @retval None
  */
static void MX_I2C2_Init(void)
{
 8000ea0:	b580      	push	{r7, lr}
 8000ea2:	af00      	add	r7, sp, #0
  /* USER CODE END I2C2_Init 0 */

  /* USER CODE BEGIN I2C2_Init 1 */

  /* USER CODE END I2C2_Init 1 */
  hi2c2.Instance = I2C2;
 8000ea4:	4b1b      	ldr	r3, [pc, #108]	; (8000f14 <MX_I2C2_Init+0x74>)
 8000ea6:	4a1c      	ldr	r2, [pc, #112]	; (8000f18 <MX_I2C2_Init+0x78>)
 8000ea8:	601a      	str	r2, [r3, #0]
  hi2c2.Init.ClockSpeed = 100000;
 8000eaa:	4b1a      	ldr	r3, [pc, #104]	; (8000f14 <MX_I2C2_Init+0x74>)
 8000eac:	4a1b      	ldr	r2, [pc, #108]	; (8000f1c <MX_I2C2_Init+0x7c>)
 8000eae:	605a      	str	r2, [r3, #4]
  hi2c2.Init.DutyCycle = I2C_DUTYCYCLE_2;
 8000eb0:	4b18      	ldr	r3, [pc, #96]	; (8000f14 <MX_I2C2_Init+0x74>)
 8000eb2:	2200      	movs	r2, #0
 8000eb4:	609a      	str	r2, [r3, #8]
  hi2c2.Init.OwnAddress1 = 0;
 8000eb6:	4b17      	ldr	r3, [pc, #92]	; (8000f14 <MX_I2C2_Init+0x74>)
 8000eb8:	2200      	movs	r2, #0
 8000eba:	60da      	str	r2, [r3, #12]
  hi2c2.Init.AddressingMode = I2C_ADDRESSINGMODE_7BIT;
 8000ebc:	4b15      	ldr	r3, [pc, #84]	; (8000f14 <MX_I2C2_Init+0x74>)
 8000ebe:	f44f 4280 	mov.w	r2, #16384	; 0x4000
 8000ec2:	611a      	str	r2, [r3, #16]
  hi2c2.Init.DualAddressMode = I2C_DUALADDRESS_DISABLE;
 8000ec4:	4b13      	ldr	r3, [pc, #76]	; (8000f14 <MX_I2C2_Init+0x74>)
 8000ec6:	2200      	movs	r2, #0
 8000ec8:	615a      	str	r2, [r3, #20]
  hi2c2.Init.OwnAddress2 = 0;
 8000eca:	4b12      	ldr	r3, [pc, #72]	; (8000f14 <MX_I2C2_Init+0x74>)
 8000ecc:	2200      	movs	r2, #0
 8000ece:	619a      	str	r2, [r3, #24]
  hi2c2.Init.GeneralCallMode = I2C_GENERALCALL_DISABLE;
 8000ed0:	4b10      	ldr	r3, [pc, #64]	; (8000f14 <MX_I2C2_Init+0x74>)
 8000ed2:	2200      	movs	r2, #0
 8000ed4:	61da      	str	r2, [r3, #28]
  hi2c2.Init.NoStretchMode = I2C_NOSTRETCH_DISABLE;
 8000ed6:	4b0f      	ldr	r3, [pc, #60]	; (8000f14 <MX_I2C2_Init+0x74>)
 8000ed8:	2200      	movs	r2, #0
 8000eda:	621a      	str	r2, [r3, #32]
  if (HAL_I2C_Init(&hi2c2) != HAL_OK)
 8000edc:	480d      	ldr	r0, [pc, #52]	; (8000f14 <MX_I2C2_Init+0x74>)
 8000ede:	f001 ff37 	bl	8002d50 <HAL_I2C_Init>
 8000ee2:	4603      	mov	r3, r0
 8000ee4:	2b00      	cmp	r3, #0
 8000ee6:	d001      	beq.n	8000eec <MX_I2C2_Init+0x4c>
  {
    Error_Handler();
 8000ee8:	f000 fc17 	bl	800171a <Error_Handler>
  }

  /** Configure Analogue filter
  */
  if (HAL_I2CEx_ConfigAnalogFilter(&hi2c2, I2C_ANALOGFILTER_ENABLE) != HAL_OK)
 8000eec:	2100      	movs	r1, #0
 8000eee:	4809      	ldr	r0, [pc, #36]	; (8000f14 <MX_I2C2_Init+0x74>)
 8000ef0:	f003 f856 	bl	8003fa0 <HAL_I2CEx_ConfigAnalogFilter>
 8000ef4:	4603      	mov	r3, r0
 8000ef6:	2b00      	cmp	r3, #0
 8000ef8:	d001      	beq.n	8000efe <MX_I2C2_Init+0x5e>
  {
    Error_Handler();
 8000efa:	f000 fc0e 	bl	800171a <Error_Handler>
  }

  /** Configure Digital filter
  */
  if (HAL_I2CEx_ConfigDigitalFilter(&hi2c2, 0) != HAL_OK)
 8000efe:	2100      	movs	r1, #0
 8000f00:	4804      	ldr	r0, [pc, #16]	; (8000f14 <MX_I2C2_Init+0x74>)
 8000f02:	f003 f889 	bl	8004018 <HAL_I2CEx_ConfigDigitalFilter>
 8000f06:	4603      	mov	r3, r0
 8000f08:	2b00      	cmp	r3, #0
 8000f0a:	d001      	beq.n	8000f10 <MX_I2C2_Init+0x70>
  {
    Error_Handler();
 8000f0c:	f000 fc05 	bl	800171a <Error_Handler>
  }
  /* USER CODE BEGIN I2C2_Init 2 */

  /* USER CODE END I2C2_Init 2 */

}
 8000f10:	bf00      	nop
 8000f12:	bd80      	pop	{r7, pc}
 8000f14:	20000094 	.word	0x20000094
 8000f18:	40005800 	.word	0x40005800
 8000f1c:	000186a0 	.word	0x000186a0

08000f20 <MX_RTC_Init>:
  * @brief RTC Initialization Function
  * @param None
  * @retval None
  */
static void MX_RTC_Init(void)
{
 8000f20:	b580      	push	{r7, lr}
 8000f22:	af00      	add	r7, sp, #0

  /* USER CODE END RTC_Init 1 */

  /** Initialize RTC Only
  */
  hrtc.Instance = RTC;
 8000f24:	4b0f      	ldr	r3, [pc, #60]	; (8000f64 <MX_RTC_Init+0x44>)
 8000f26:	4a10      	ldr	r2, [pc, #64]	; (8000f68 <MX_RTC_Init+0x48>)
 8000f28:	601a      	str	r2, [r3, #0]
  hrtc.Init.HourFormat = RTC_HOURFORMAT_24;
 8000f2a:	4b0e      	ldr	r3, [pc, #56]	; (8000f64 <MX_RTC_Init+0x44>)
 8000f2c:	2200      	movs	r2, #0
 8000f2e:	605a      	str	r2, [r3, #4]
  hrtc.Init.AsynchPrediv = 127;
 8000f30:	4b0c      	ldr	r3, [pc, #48]	; (8000f64 <MX_RTC_Init+0x44>)
 8000f32:	227f      	movs	r2, #127	; 0x7f
 8000f34:	609a      	str	r2, [r3, #8]
  hrtc.Init.SynchPrediv = 255;
 8000f36:	4b0b      	ldr	r3, [pc, #44]	; (8000f64 <MX_RTC_Init+0x44>)
 8000f38:	22ff      	movs	r2, #255	; 0xff
 8000f3a:	60da      	str	r2, [r3, #12]
  hrtc.Init.OutPut = RTC_OUTPUT_DISABLE;
 8000f3c:	4b09      	ldr	r3, [pc, #36]	; (8000f64 <MX_RTC_Init+0x44>)
 8000f3e:	2200      	movs	r2, #0
 8000f40:	611a      	str	r2, [r3, #16]
  hrtc.Init.OutPutPolarity = RTC_OUTPUT_POLARITY_HIGH;
 8000f42:	4b08      	ldr	r3, [pc, #32]	; (8000f64 <MX_RTC_Init+0x44>)
 8000f44:	2200      	movs	r2, #0
 8000f46:	615a      	str	r2, [r3, #20]
  hrtc.Init.OutPutType = RTC_OUTPUT_TYPE_OPENDRAIN;
 8000f48:	4b06      	ldr	r3, [pc, #24]	; (8000f64 <MX_RTC_Init+0x44>)
 8000f4a:	2200      	movs	r2, #0
 8000f4c:	619a      	str	r2, [r3, #24]
  if (HAL_RTC_Init(&hrtc) != HAL_OK)
 8000f4e:	4805      	ldr	r0, [pc, #20]	; (8000f64 <MX_RTC_Init+0x44>)
 8000f50:	f003 feba 	bl	8004cc8 <HAL_RTC_Init>
 8000f54:	4603      	mov	r3, r0
 8000f56:	2b00      	cmp	r3, #0
 8000f58:	d001      	beq.n	8000f5e <MX_RTC_Init+0x3e>
  {
    Error_Handler();
 8000f5a:	f000 fbde 	bl	800171a <Error_Handler>
  }
  /* USER CODE BEGIN RTC_Init 2 */

  /* USER CODE END RTC_Init 2 */

}
 8000f5e:	bf00      	nop
 8000f60:	bd80      	pop	{r7, pc}
 8000f62:	bf00      	nop
 8000f64:	200000e8 	.word	0x200000e8
 8000f68:	40002800 	.word	0x40002800

08000f6c <MX_SPI1_Init>:
  * @brief SPI1 Initialization Function
  * @param None
  * @retval None
  */
static void MX_SPI1_Init(void)
{
 8000f6c:	b580      	push	{r7, lr}
 8000f6e:	af00      	add	r7, sp, #0

  /* USER CODE BEGIN SPI1_Init 1 */

  /* USER CODE END SPI1_Init 1 */
  /* SPI1 parameter configuration*/
  hspi1.Instance = SPI1;
 8000f70:	4b17      	ldr	r3, [pc, #92]	; (8000fd0 <MX_SPI1_Init+0x64>)
 8000f72:	4a18      	ldr	r2, [pc, #96]	; (8000fd4 <MX_SPI1_Init+0x68>)
 8000f74:	601a      	str	r2, [r3, #0]
  hspi1.Init.Mode = SPI_MODE_MASTER;
 8000f76:	4b16      	ldr	r3, [pc, #88]	; (8000fd0 <MX_SPI1_Init+0x64>)
 8000f78:	f44f 7282 	mov.w	r2, #260	; 0x104
 8000f7c:	605a      	str	r2, [r3, #4]
  hspi1.Init.Direction = SPI_DIRECTION_2LINES;
 8000f7e:	4b14      	ldr	r3, [pc, #80]	; (8000fd0 <MX_SPI1_Init+0x64>)
 8000f80:	2200      	movs	r2, #0
 8000f82:	609a      	str	r2, [r3, #8]
  hspi1.Init.DataSize = SPI_DATASIZE_8BIT;
 8000f84:	4b12      	ldr	r3, [pc, #72]	; (8000fd0 <MX_SPI1_Init+0x64>)
 8000f86:	2200      	movs	r2, #0
 8000f88:	60da      	str	r2, [r3, #12]
  hspi1.Init.CLKPolarity = SPI_POLARITY_LOW;
 8000f8a:	4b11      	ldr	r3, [pc, #68]	; (8000fd0 <MX_SPI1_Init+0x64>)
 8000f8c:	2200      	movs	r2, #0
 8000f8e:	611a      	str	r2, [r3, #16]
  hspi1.Init.CLKPhase = SPI_PHASE_1EDGE;
 8000f90:	4b0f      	ldr	r3, [pc, #60]	; (8000fd0 <MX_SPI1_Init+0x64>)
 8000f92:	2200      	movs	r2, #0
 8000f94:	615a      	str	r2, [r3, #20]
  hspi1.Init.NSS = SPI_NSS_SOFT;
 8000f96:	4b0e      	ldr	r3, [pc, #56]	; (8000fd0 <MX_SPI1_Init+0x64>)
 8000f98:	f44f 7200 	mov.w	r2, #512	; 0x200
 8000f9c:	619a      	str	r2, [r3, #24]
  hspi1.Init.BaudRatePrescaler = SPI_BAUDRATEPRESCALER_2;
 8000f9e:	4b0c      	ldr	r3, [pc, #48]	; (8000fd0 <MX_SPI1_Init+0x64>)
 8000fa0:	2200      	movs	r2, #0
 8000fa2:	61da      	str	r2, [r3, #28]
  hspi1.Init.FirstBit = SPI_FIRSTBIT_MSB;
 8000fa4:	4b0a      	ldr	r3, [pc, #40]	; (8000fd0 <MX_SPI1_Init+0x64>)
 8000fa6:	2200      	movs	r2, #0
 8000fa8:	621a      	str	r2, [r3, #32]
  hspi1.Init.TIMode = SPI_TIMODE_DISABLE;
 8000faa:	4b09      	ldr	r3, [pc, #36]	; (8000fd0 <MX_SPI1_Init+0x64>)
 8000fac:	2200      	movs	r2, #0
 8000fae:	625a      	str	r2, [r3, #36]	; 0x24
  hspi1.Init.CRCCalculation = SPI_CRCCALCULATION_DISABLE;
 8000fb0:	4b07      	ldr	r3, [pc, #28]	; (8000fd0 <MX_SPI1_Init+0x64>)
 8000fb2:	2200      	movs	r2, #0
 8000fb4:	629a      	str	r2, [r3, #40]	; 0x28
  hspi1.Init.CRCPolynomial = 10;
 8000fb6:	4b06      	ldr	r3, [pc, #24]	; (8000fd0 <MX_SPI1_Init+0x64>)
 8000fb8:	220a      	movs	r2, #10
 8000fba:	62da      	str	r2, [r3, #44]	; 0x2c
  if (HAL_SPI_Init(&hspi1) != HAL_OK)
 8000fbc:	4804      	ldr	r0, [pc, #16]	; (8000fd0 <MX_SPI1_Init+0x64>)
 8000fbe:	f004 f98f 	bl	80052e0 <HAL_SPI_Init>
 8000fc2:	4603      	mov	r3, r0
 8000fc4:	2b00      	cmp	r3, #0
 8000fc6:	d001      	beq.n	8000fcc <MX_SPI1_Init+0x60>
  {
    Error_Handler();
 8000fc8:	f000 fba7 	bl	800171a <Error_Handler>
  }
  /* USER CODE BEGIN SPI1_Init 2 */

  /* USER CODE END SPI1_Init 2 */

}
 8000fcc:	bf00      	nop
 8000fce:	bd80      	pop	{r7, pc}
 8000fd0:	20000108 	.word	0x20000108
 8000fd4:	40013000 	.word	0x40013000

08000fd8 <MX_SPI2_Init>:
  * @brief SPI2 Initialization Function
  * @param None
  * @retval None
  */
static void MX_SPI2_Init(void)
{
 8000fd8:	b580      	push	{r7, lr}
 8000fda:	af00      	add	r7, sp, #0

  /* USER CODE BEGIN SPI2_Init 1 */

  /* USER CODE END SPI2_Init 1 */
  /* SPI2 parameter configuration*/
  hspi2.Instance = SPI2;
 8000fdc:	4b17      	ldr	r3, [pc, #92]	; (800103c <MX_SPI2_Init+0x64>)
 8000fde:	4a18      	ldr	r2, [pc, #96]	; (8001040 <MX_SPI2_Init+0x68>)
 8000fe0:	601a      	str	r2, [r3, #0]
  hspi2.Init.Mode = SPI_MODE_MASTER;
 8000fe2:	4b16      	ldr	r3, [pc, #88]	; (800103c <MX_SPI2_Init+0x64>)
 8000fe4:	f44f 7282 	mov.w	r2, #260	; 0x104
 8000fe8:	605a      	str	r2, [r3, #4]
  hspi2.Init.Direction = SPI_DIRECTION_2LINES;
 8000fea:	4b14      	ldr	r3, [pc, #80]	; (800103c <MX_SPI2_Init+0x64>)
 8000fec:	2200      	movs	r2, #0
 8000fee:	609a      	str	r2, [r3, #8]
  hspi2.Init.DataSize = SPI_DATASIZE_8BIT;
 8000ff0:	4b12      	ldr	r3, [pc, #72]	; (800103c <MX_SPI2_Init+0x64>)
 8000ff2:	2200      	movs	r2, #0
 8000ff4:	60da      	str	r2, [r3, #12]
  hspi2.Init.CLKPolarity = SPI_POLARITY_LOW;
 8000ff6:	4b11      	ldr	r3, [pc, #68]	; (800103c <MX_SPI2_Init+0x64>)
 8000ff8:	2200      	movs	r2, #0
 8000ffa:	611a      	str	r2, [r3, #16]
  hspi2.Init.CLKPhase = SPI_PHASE_1EDGE;
 8000ffc:	4b0f      	ldr	r3, [pc, #60]	; (800103c <MX_SPI2_Init+0x64>)
 8000ffe:	2200      	movs	r2, #0
 8001000:	615a      	str	r2, [r3, #20]
  hspi2.Init.NSS = SPI_NSS_SOFT;
 8001002:	4b0e      	ldr	r3, [pc, #56]	; (800103c <MX_SPI2_Init+0x64>)
 8001004:	f44f 7200 	mov.w	r2, #512	; 0x200
 8001008:	619a      	str	r2, [r3, #24]
  hspi2.Init.BaudRatePrescaler = SPI_BAUDRATEPRESCALER_2;
 800100a:	4b0c      	ldr	r3, [pc, #48]	; (800103c <MX_SPI2_Init+0x64>)
 800100c:	2200      	movs	r2, #0
 800100e:	61da      	str	r2, [r3, #28]
  hspi2.Init.FirstBit = SPI_FIRSTBIT_MSB;
 8001010:	4b0a      	ldr	r3, [pc, #40]	; (800103c <MX_SPI2_Init+0x64>)
 8001012:	2200      	movs	r2, #0
 8001014:	621a      	str	r2, [r3, #32]
  hspi2.Init.TIMode = SPI_TIMODE_DISABLE;
 8001016:	4b09      	ldr	r3, [pc, #36]	; (800103c <MX_SPI2_Init+0x64>)
 8001018:	2200      	movs	r2, #0
 800101a:	625a      	str	r2, [r3, #36]	; 0x24
  hspi2.Init.CRCCalculation = SPI_CRCCALCULATION_DISABLE;
 800101c:	4b07      	ldr	r3, [pc, #28]	; (800103c <MX_SPI2_Init+0x64>)
 800101e:	2200      	movs	r2, #0
 8001020:	629a      	str	r2, [r3, #40]	; 0x28
  hspi2.Init.CRCPolynomial = 10;
 8001022:	4b06      	ldr	r3, [pc, #24]	; (800103c <MX_SPI2_Init+0x64>)
 8001024:	220a      	movs	r2, #10
 8001026:	62da      	str	r2, [r3, #44]	; 0x2c
  if (HAL_SPI_Init(&hspi2) != HAL_OK)
 8001028:	4804      	ldr	r0, [pc, #16]	; (800103c <MX_SPI2_Init+0x64>)
 800102a:	f004 f959 	bl	80052e0 <HAL_SPI_Init>
 800102e:	4603      	mov	r3, r0
 8001030:	2b00      	cmp	r3, #0
 8001032:	d001      	beq.n	8001038 <MX_SPI2_Init+0x60>
  {
    Error_Handler();
 8001034:	f000 fb71 	bl	800171a <Error_Handler>
  }
  /* USER CODE BEGIN SPI2_Init 2 */

  /* USER CODE END SPI2_Init 2 */

}
 8001038:	bf00      	nop
 800103a:	bd80      	pop	{r7, pc}
 800103c:	20000160 	.word	0x20000160
 8001040:	40003800 	.word	0x40003800

08001044 <MX_TIM6_Init>:
  * @brief TIM6 Initialization Function
  * @param None
  * @retval None
  */
static void MX_TIM6_Init(void)
{
 8001044:	b580      	push	{r7, lr}
 8001046:	b082      	sub	sp, #8
 8001048:	af00      	add	r7, sp, #0

  /* USER CODE BEGIN TIM6_Init 0 */

  /* USER CODE END TIM6_Init 0 */

  TIM_MasterConfigTypeDef sMasterConfig = {0};
 800104a:	463b      	mov	r3, r7
 800104c:	2200      	movs	r2, #0
 800104e:	601a      	str	r2, [r3, #0]
 8001050:	605a      	str	r2, [r3, #4]

  /* USER CODE BEGIN TIM6_Init 1 */

  /* USER CODE END TIM6_Init 1 */
  htim6.Instance = TIM6;
 8001052:	4b15      	ldr	r3, [pc, #84]	; (80010a8 <MX_TIM6_Init+0x64>)
 8001054:	4a15      	ldr	r2, [pc, #84]	; (80010ac <MX_TIM6_Init+0x68>)
 8001056:	601a      	str	r2, [r3, #0]
  htim6.Init.Prescaler = 15999;
 8001058:	4b13      	ldr	r3, [pc, #76]	; (80010a8 <MX_TIM6_Init+0x64>)
 800105a:	f643 627f 	movw	r2, #15999	; 0x3e7f
 800105e:	605a      	str	r2, [r3, #4]
  htim6.Init.CounterMode = TIM_COUNTERMODE_UP;
 8001060:	4b11      	ldr	r3, [pc, #68]	; (80010a8 <MX_TIM6_Init+0x64>)
 8001062:	2200      	movs	r2, #0
 8001064:	609a      	str	r2, [r3, #8]
  htim6.Init.Period = 1000;
 8001066:	4b10      	ldr	r3, [pc, #64]	; (80010a8 <MX_TIM6_Init+0x64>)
 8001068:	f44f 727a 	mov.w	r2, #1000	; 0x3e8
 800106c:	60da      	str	r2, [r3, #12]
  htim6.Init.AutoReloadPreload = TIM_AUTORELOAD_PRELOAD_DISABLE;
 800106e:	4b0e      	ldr	r3, [pc, #56]	; (80010a8 <MX_TIM6_Init+0x64>)
 8001070:	2200      	movs	r2, #0
 8001072:	619a      	str	r2, [r3, #24]
  if (HAL_TIM_Base_Init(&htim6) != HAL_OK)
 8001074:	480c      	ldr	r0, [pc, #48]	; (80010a8 <MX_TIM6_Init+0x64>)
 8001076:	f004 ff09 	bl	8005e8c <HAL_TIM_Base_Init>
 800107a:	4603      	mov	r3, r0
 800107c:	2b00      	cmp	r3, #0
 800107e:	d001      	beq.n	8001084 <MX_TIM6_Init+0x40>
  {
    Error_Handler();
 8001080:	f000 fb4b 	bl	800171a <Error_Handler>
  }
  sMasterConfig.MasterOutputTrigger = TIM_TRGO_RESET;
 8001084:	2300      	movs	r3, #0
 8001086:	603b      	str	r3, [r7, #0]
  sMasterConfig.MasterSlaveMode = TIM_MASTERSLAVEMODE_DISABLE;
 8001088:	2300      	movs	r3, #0
 800108a:	607b      	str	r3, [r7, #4]
  if (HAL_TIMEx_MasterConfigSynchronization(&htim6, &sMasterConfig) != HAL_OK)
 800108c:	463b      	mov	r3, r7
 800108e:	4619      	mov	r1, r3
 8001090:	4805      	ldr	r0, [pc, #20]	; (80010a8 <MX_TIM6_Init+0x64>)
 8001092:	f005 f989 	bl	80063a8 <HAL_TIMEx_MasterConfigSynchronization>
 8001096:	4603      	mov	r3, r0
 8001098:	2b00      	cmp	r3, #0
 800109a:	d001      	beq.n	80010a0 <MX_TIM6_Init+0x5c>
  {
    Error_Handler();
 800109c:	f000 fb3d 	bl	800171a <Error_Handler>
  }
  /* USER CODE BEGIN TIM6_Init 2 */

  /* USER CODE END TIM6_Init 2 */

}
 80010a0:	bf00      	nop
 80010a2:	3708      	adds	r7, #8
 80010a4:	46bd      	mov	sp, r7
 80010a6:	bd80      	pop	{r7, pc}
 80010a8:	200001b8 	.word	0x200001b8
 80010ac:	40001000 	.word	0x40001000

080010b0 <MX_USART2_UART_Init>:
  * @brief USART2 Initialization Function
  * @param None
  * @retval None
  */
static void MX_USART2_UART_Init(void)
{
 80010b0:	b580      	push	{r7, lr}
 80010b2:	af00      	add	r7, sp, #0
  /* USER CODE END USART2_Init 0 */

  /* USER CODE BEGIN USART2_Init 1 */

  /* USER CODE END USART2_Init 1 */
  huart2.Instance = USART2;
 80010b4:	4b11      	ldr	r3, [pc, #68]	; (80010fc <MX_USART2_UART_Init+0x4c>)
 80010b6:	4a12      	ldr	r2, [pc, #72]	; (8001100 <MX_USART2_UART_Init+0x50>)
 80010b8:	601a      	str	r2, [r3, #0]
  huart2.Init.BaudRate = 9600;
 80010ba:	4b10      	ldr	r3, [pc, #64]	; (80010fc <MX_USART2_UART_Init+0x4c>)
 80010bc:	f44f 5216 	mov.w	r2, #9600	; 0x2580
 80010c0:	605a      	str	r2, [r3, #4]
  huart2.Init.WordLength = UART_WORDLENGTH_8B;
 80010c2:	4b0e      	ldr	r3, [pc, #56]	; (80010fc <MX_USART2_UART_Init+0x4c>)
 80010c4:	2200      	movs	r2, #0
 80010c6:	609a      	str	r2, [r3, #8]
  huart2.Init.StopBits = UART_STOPBITS_1;
 80010c8:	4b0c      	ldr	r3, [pc, #48]	; (80010fc <MX_USART2_UART_Init+0x4c>)
 80010ca:	2200      	movs	r2, #0
 80010cc:	60da      	str	r2, [r3, #12]
  huart2.Init.Parity = UART_PARITY_NONE;
 80010ce:	4b0b      	ldr	r3, [pc, #44]	; (80010fc <MX_USART2_UART_Init+0x4c>)
 80010d0:	2200      	movs	r2, #0
 80010d2:	611a      	str	r2, [r3, #16]
  huart2.Init.Mode = UART_MODE_TX_RX;
 80010d4:	4b09      	ldr	r3, [pc, #36]	; (80010fc <MX_USART2_UART_Init+0x4c>)
 80010d6:	220c      	movs	r2, #12
 80010d8:	615a      	str	r2, [r3, #20]
  huart2.Init.HwFlowCtl = UART_HWCONTROL_NONE;
 80010da:	4b08      	ldr	r3, [pc, #32]	; (80010fc <MX_USART2_UART_Init+0x4c>)
 80010dc:	2200      	movs	r2, #0
 80010de:	619a      	str	r2, [r3, #24]
  huart2.Init.OverSampling = UART_OVERSAMPLING_16;
 80010e0:	4b06      	ldr	r3, [pc, #24]	; (80010fc <MX_USART2_UART_Init+0x4c>)
 80010e2:	2200      	movs	r2, #0
 80010e4:	61da      	str	r2, [r3, #28]
  if (HAL_UART_Init(&huart2) != HAL_OK)
 80010e6:	4805      	ldr	r0, [pc, #20]	; (80010fc <MX_USART2_UART_Init+0x4c>)
 80010e8:	f005 f9ee 	bl	80064c8 <HAL_UART_Init>
 80010ec:	4603      	mov	r3, r0
 80010ee:	2b00      	cmp	r3, #0
 80010f0:	d001      	beq.n	80010f6 <MX_USART2_UART_Init+0x46>
  {
    Error_Handler();
 80010f2:	f000 fb12 	bl	800171a <Error_Handler>
  }
  /* USER CODE BEGIN USART2_Init 2 */

  /* USER CODE END USART2_Init 2 */

}
 80010f6:	bf00      	nop
 80010f8:	bd80      	pop	{r7, pc}
 80010fa:	bf00      	nop
 80010fc:	20000200 	.word	0x20000200
 8001100:	40004400 	.word	0x40004400

08001104 <MX_GPIO_Init>:
  * @brief GPIO Initialization Function
  * @param None
  * @retval None
  */
static void MX_GPIO_Init(void)
{
 8001104:	b580      	push	{r7, lr}
 8001106:	b08a      	sub	sp, #40	; 0x28
 8001108:	af00      	add	r7, sp, #0
  GPIO_InitTypeDef GPIO_InitStruct = {0};
 800110a:	f107 0314 	add.w	r3, r7, #20
 800110e:	2200      	movs	r2, #0
 8001110:	601a      	str	r2, [r3, #0]
 8001112:	605a      	str	r2, [r3, #4]
 8001114:	609a      	str	r2, [r3, #8]
 8001116:	60da      	str	r2, [r3, #12]
 8001118:	611a      	str	r2, [r3, #16]
/* USER CODE BEGIN MX_GPIO_Init_1 */
/* USER CODE END MX_GPIO_Init_1 */

  /* GPIO Ports Clock Enable */
  __HAL_RCC_GPIOC_CLK_ENABLE();
 800111a:	2300      	movs	r3, #0
 800111c:	613b      	str	r3, [r7, #16]
 800111e:	4b5f      	ldr	r3, [pc, #380]	; (800129c <MX_GPIO_Init+0x198>)
 8001120:	6b1b      	ldr	r3, [r3, #48]	; 0x30
 8001122:	4a5e      	ldr	r2, [pc, #376]	; (800129c <MX_GPIO_Init+0x198>)
 8001124:	f043 0304 	orr.w	r3, r3, #4
 8001128:	6313      	str	r3, [r2, #48]	; 0x30
 800112a:	4b5c      	ldr	r3, [pc, #368]	; (800129c <MX_GPIO_Init+0x198>)
 800112c:	6b1b      	ldr	r3, [r3, #48]	; 0x30
 800112e:	f003 0304 	and.w	r3, r3, #4
 8001132:	613b      	str	r3, [r7, #16]
 8001134:	693b      	ldr	r3, [r7, #16]
  __HAL_RCC_GPIOH_CLK_ENABLE();
 8001136:	2300      	movs	r3, #0
 8001138:	60fb      	str	r3, [r7, #12]
 800113a:	4b58      	ldr	r3, [pc, #352]	; (800129c <MX_GPIO_Init+0x198>)
 800113c:	6b1b      	ldr	r3, [r3, #48]	; 0x30
 800113e:	4a57      	ldr	r2, [pc, #348]	; (800129c <MX_GPIO_Init+0x198>)
 8001140:	f043 0380 	orr.w	r3, r3, #128	; 0x80
 8001144:	6313      	str	r3, [r2, #48]	; 0x30
 8001146:	4b55      	ldr	r3, [pc, #340]	; (800129c <MX_GPIO_Init+0x198>)
 8001148:	6b1b      	ldr	r3, [r3, #48]	; 0x30
 800114a:	f003 0380 	and.w	r3, r3, #128	; 0x80
 800114e:	60fb      	str	r3, [r7, #12]
 8001150:	68fb      	ldr	r3, [r7, #12]
  __HAL_RCC_GPIOA_CLK_ENABLE();
 8001152:	2300      	movs	r3, #0
 8001154:	60bb      	str	r3, [r7, #8]
 8001156:	4b51      	ldr	r3, [pc, #324]	; (800129c <MX_GPIO_Init+0x198>)
 8001158:	6b1b      	ldr	r3, [r3, #48]	; 0x30
 800115a:	4a50      	ldr	r2, [pc, #320]	; (800129c <MX_GPIO_Init+0x198>)
 800115c:	f043 0301 	orr.w	r3, r3, #1
 8001160:	6313      	str	r3, [r2, #48]	; 0x30
 8001162:	4b4e      	ldr	r3, [pc, #312]	; (800129c <MX_GPIO_Init+0x198>)
 8001164:	6b1b      	ldr	r3, [r3, #48]	; 0x30
 8001166:	f003 0301 	and.w	r3, r3, #1
 800116a:	60bb      	str	r3, [r7, #8]
 800116c:	68bb      	ldr	r3, [r7, #8]
  __HAL_RCC_GPIOB_CLK_ENABLE();
 800116e:	2300      	movs	r3, #0
 8001170:	607b      	str	r3, [r7, #4]
 8001172:	4b4a      	ldr	r3, [pc, #296]	; (800129c <MX_GPIO_Init+0x198>)
 8001174:	6b1b      	ldr	r3, [r3, #48]	; 0x30
 8001176:	4a49      	ldr	r2, [pc, #292]	; (800129c <MX_GPIO_Init+0x198>)
 8001178:	f043 0302 	orr.w	r3, r3, #2
 800117c:	6313      	str	r3, [r2, #48]	; 0x30
 800117e:	4b47      	ldr	r3, [pc, #284]	; (800129c <MX_GPIO_Init+0x198>)
 8001180:	6b1b      	ldr	r3, [r3, #48]	; 0x30
 8001182:	f003 0302 	and.w	r3, r3, #2
 8001186:	607b      	str	r3, [r7, #4]
 8001188:	687b      	ldr	r3, [r7, #4]
  __HAL_RCC_GPIOD_CLK_ENABLE();
 800118a:	2300      	movs	r3, #0
 800118c:	603b      	str	r3, [r7, #0]
 800118e:	4b43      	ldr	r3, [pc, #268]	; (800129c <MX_GPIO_Init+0x198>)
 8001190:	6b1b      	ldr	r3, [r3, #48]	; 0x30
 8001192:	4a42      	ldr	r2, [pc, #264]	; (800129c <MX_GPIO_Init+0x198>)
 8001194:	f043 0308 	orr.w	r3, r3, #8
 8001198:	6313      	str	r3, [r2, #48]	; 0x30
 800119a:	4b40      	ldr	r3, [pc, #256]	; (800129c <MX_GPIO_Init+0x198>)
 800119c:	6b1b      	ldr	r3, [r3, #48]	; 0x30
 800119e:	f003 0308 	and.w	r3, r3, #8
 80011a2:	603b      	str	r3, [r7, #0]
 80011a4:	683b      	ldr	r3, [r7, #0]

  /*Configure GPIO pin Output Level */
  HAL_GPIO_WritePin(SPI2_WP_GPIO_Port, SPI2_WP_Pin, GPIO_PIN_RESET);
 80011a6:	2200      	movs	r2, #0
 80011a8:	2101      	movs	r1, #1
 80011aa:	483d      	ldr	r0, [pc, #244]	; (80012a0 <MX_GPIO_Init+0x19c>)
 80011ac:	f001 fd9c 	bl	8002ce8 <HAL_GPIO_WritePin>

  /*Configure GPIO pin Output Level */
  HAL_GPIO_WritePin(GPIOB, SPI2_CS_Pin|LED3_Pin|LED2_Pin, GPIO_PIN_RESET);
 80011b0:	2200      	movs	r2, #0
 80011b2:	f44f 41a1 	mov.w	r1, #20608	; 0x5080
 80011b6:	483b      	ldr	r0, [pc, #236]	; (80012a4 <MX_GPIO_Init+0x1a0>)
 80011b8:	f001 fd96 	bl	8002ce8 <HAL_GPIO_WritePin>

  /*Configure GPIO pin Output Level */
  HAL_GPIO_WritePin(GPIOD, SPI1_WP_Pin|SPI1_CS_Pin, GPIO_PIN_RESET);
 80011bc:	2200      	movs	r2, #0
 80011be:	f244 0104 	movw	r1, #16388	; 0x4004
 80011c2:	4839      	ldr	r0, [pc, #228]	; (80012a8 <MX_GPIO_Init+0x1a4>)
 80011c4:	f001 fd90 	bl	8002ce8 <HAL_GPIO_WritePin>

  /*Configure GPIO pin : SPI2_WP_Pin */
  GPIO_InitStruct.Pin = SPI2_WP_Pin;
 80011c8:	2301      	movs	r3, #1
 80011ca:	617b      	str	r3, [r7, #20]
  GPIO_InitStruct.Mode = GPIO_MODE_OUTPUT_PP;
 80011cc:	2301      	movs	r3, #1
 80011ce:	61bb      	str	r3, [r7, #24]
  GPIO_InitStruct.Pull = GPIO_PULLUP;
 80011d0:	2301      	movs	r3, #1
 80011d2:	61fb      	str	r3, [r7, #28]
  GPIO_InitStruct.Speed = GPIO_SPEED_FREQ_LOW;
 80011d4:	2300      	movs	r3, #0
 80011d6:	623b      	str	r3, [r7, #32]
  HAL_GPIO_Init(SPI2_WP_GPIO_Port, &GPIO_InitStruct);
 80011d8:	f107 0314 	add.w	r3, r7, #20
 80011dc:	4619      	mov	r1, r3
 80011de:	4830      	ldr	r0, [pc, #192]	; (80012a0 <MX_GPIO_Init+0x19c>)
 80011e0:	f001 fbd6 	bl	8002990 <HAL_GPIO_Init>

  /*Configure GPIO pin : JMP_Flight_Pin */
  GPIO_InitStruct.Pin = JMP_Flight_Pin;
 80011e4:	2302      	movs	r3, #2
 80011e6:	617b      	str	r3, [r7, #20]
  GPIO_InitStruct.Mode = GPIO_MODE_INPUT;
 80011e8:	2300      	movs	r3, #0
 80011ea:	61bb      	str	r3, [r7, #24]
  GPIO_InitStruct.Pull = GPIO_PULLDOWN;
 80011ec:	2302      	movs	r3, #2
 80011ee:	61fb      	str	r3, [r7, #28]
  HAL_GPIO_Init(JMP_Flight_GPIO_Port, &GPIO_InitStruct);
 80011f0:	f107 0314 	add.w	r3, r7, #20
 80011f4:	4619      	mov	r1, r3
 80011f6:	482b      	ldr	r0, [pc, #172]	; (80012a4 <MX_GPIO_Init+0x1a0>)
 80011f8:	f001 fbca 	bl	8002990 <HAL_GPIO_Init>

  /*Configure GPIO pin : SPI2_CS_Pin */
  GPIO_InitStruct.Pin = SPI2_CS_Pin;
 80011fc:	f44f 5380 	mov.w	r3, #4096	; 0x1000
 8001200:	617b      	str	r3, [r7, #20]
  GPIO_InitStruct.Mode = GPIO_MODE_OUTPUT_PP;
 8001202:	2301      	movs	r3, #1
 8001204:	61bb      	str	r3, [r7, #24]
  GPIO_InitStruct.Pull = GPIO_PULLUP;
 8001206:	2301      	movs	r3, #1
 8001208:	61fb      	str	r3, [r7, #28]
  GPIO_InitStruct.Speed = GPIO_SPEED_FREQ_LOW;
 800120a:	2300      	movs	r3, #0
 800120c:	623b      	str	r3, [r7, #32]
  HAL_GPIO_Init(SPI2_CS_GPIO_Port, &GPIO_InitStruct);
 800120e:	f107 0314 	add.w	r3, r7, #20
 8001212:	4619      	mov	r1, r3
 8001214:	4823      	ldr	r0, [pc, #140]	; (80012a4 <MX_GPIO_Init+0x1a0>)
 8001216:	f001 fbbb 	bl	8002990 <HAL_GPIO_Init>

  /*Configure GPIO pins : LED3_Pin LED2_Pin */
  GPIO_InitStruct.Pin = LED3_Pin|LED2_Pin;
 800121a:	f44f 4381 	mov.w	r3, #16512	; 0x4080
 800121e:	617b      	str	r3, [r7, #20]
  GPIO_InitStruct.Mode = GPIO_MODE_OUTPUT_PP;
 8001220:	2301      	movs	r3, #1
 8001222:	61bb      	str	r3, [r7, #24]
  GPIO_InitStruct.Pull = GPIO_PULLDOWN;
 8001224:	2302      	movs	r3, #2
 8001226:	61fb      	str	r3, [r7, #28]
  GPIO_InitStruct.Speed = GPIO_SPEED_FREQ_LOW;
 8001228:	2300      	movs	r3, #0
 800122a:	623b      	str	r3, [r7, #32]
  HAL_GPIO_Init(GPIOB, &GPIO_InitStruct);
 800122c:	f107 0314 	add.w	r3, r7, #20
 8001230:	4619      	mov	r1, r3
 8001232:	481c      	ldr	r0, [pc, #112]	; (80012a4 <MX_GPIO_Init+0x1a0>)
 8001234:	f001 fbac 	bl	8002990 <HAL_GPIO_Init>

  /*Configure GPIO pin : SPI1_WP_Pin */
  GPIO_InitStruct.Pin = SPI1_WP_Pin;
 8001238:	f44f 4380 	mov.w	r3, #16384	; 0x4000
 800123c:	617b      	str	r3, [r7, #20]
  GPIO_InitStruct.Mode = GPIO_MODE_OUTPUT_PP;
 800123e:	2301      	movs	r3, #1
 8001240:	61bb      	str	r3, [r7, #24]
  GPIO_InitStruct.Pull = GPIO_PULLUP;
 8001242:	2301      	movs	r3, #1
 8001244:	61fb      	str	r3, [r7, #28]
  GPIO_InitStruct.Speed = GPIO_SPEED_FREQ_LOW;
 8001246:	2300      	movs	r3, #0
 8001248:	623b      	str	r3, [r7, #32]
  HAL_GPIO_Init(SPI1_WP_GPIO_Port, &GPIO_InitStruct);
 800124a:	f107 0314 	add.w	r3, r7, #20
 800124e:	4619      	mov	r1, r3
 8001250:	4815      	ldr	r0, [pc, #84]	; (80012a8 <MX_GPIO_Init+0x1a4>)
 8001252:	f001 fb9d 	bl	8002990 <HAL_GPIO_Init>

  /*Configure GPIO pins : PA11 PA12 */
  GPIO_InitStruct.Pin = GPIO_PIN_11|GPIO_PIN_12;
 8001256:	f44f 53c0 	mov.w	r3, #6144	; 0x1800
 800125a:	617b      	str	r3, [r7, #20]
  GPIO_InitStruct.Mode = GPIO_MODE_AF_PP;
 800125c:	2302      	movs	r3, #2
 800125e:	61bb      	str	r3, [r7, #24]
  GPIO_InitStruct.Pull = GPIO_NOPULL;
 8001260:	2300      	movs	r3, #0
 8001262:	61fb      	str	r3, [r7, #28]
  GPIO_InitStruct.Speed = GPIO_SPEED_FREQ_VERY_HIGH;
 8001264:	2303      	movs	r3, #3
 8001266:	623b      	str	r3, [r7, #32]
  GPIO_InitStruct.Alternate = GPIO_AF9_CAN1;
 8001268:	2309      	movs	r3, #9
 800126a:	627b      	str	r3, [r7, #36]	; 0x24
  HAL_GPIO_Init(GPIOA, &GPIO_InitStruct);
 800126c:	f107 0314 	add.w	r3, r7, #20
 8001270:	4619      	mov	r1, r3
 8001272:	480e      	ldr	r0, [pc, #56]	; (80012ac <MX_GPIO_Init+0x1a8>)
 8001274:	f001 fb8c 	bl	8002990 <HAL_GPIO_Init>

  /*Configure GPIO pin : SPI1_CS_Pin */
  GPIO_InitStruct.Pin = SPI1_CS_Pin;
 8001278:	2304      	movs	r3, #4
 800127a:	617b      	str	r3, [r7, #20]
  GPIO_InitStruct.Mode = GPIO_MODE_OUTPUT_PP;
 800127c:	2301      	movs	r3, #1
 800127e:	61bb      	str	r3, [r7, #24]
  GPIO_InitStruct.Pull = GPIO_NOPULL;
 8001280:	2300      	movs	r3, #0
 8001282:	61fb      	str	r3, [r7, #28]
  GPIO_InitStruct.Speed = GPIO_SPEED_FREQ_LOW;
 8001284:	2300      	movs	r3, #0
 8001286:	623b      	str	r3, [r7, #32]
  HAL_GPIO_Init(SPI1_CS_GPIO_Port, &GPIO_InitStruct);
 8001288:	f107 0314 	add.w	r3, r7, #20
 800128c:	4619      	mov	r1, r3
 800128e:	4806      	ldr	r0, [pc, #24]	; (80012a8 <MX_GPIO_Init+0x1a4>)
 8001290:	f001 fb7e 	bl	8002990 <HAL_GPIO_Init>

/* USER CODE BEGIN MX_GPIO_Init_2 */
/* USER CODE END MX_GPIO_Init_2 */
}
 8001294:	bf00      	nop
 8001296:	3728      	adds	r7, #40	; 0x28
 8001298:	46bd      	mov	sp, r7
 800129a:	bd80      	pop	{r7, pc}
 800129c:	40023800 	.word	0x40023800
 80012a0:	40020800 	.word	0x40020800
 80012a4:	40020400 	.word	0x40020400
 80012a8:	40020c00 	.word	0x40020c00
 80012ac:	40020000 	.word	0x40020000

080012b0 <clean_data_buffer>:

/* USER CODE BEGIN 4 */
void clean_data_buffer(uint8_t bufferRef) {
 80012b0:	b480      	push	{r7}
 80012b2:	b085      	sub	sp, #20
 80012b4:	af00      	add	r7, sp, #0
 80012b6:	4603      	mov	r3, r0
 80012b8:	71fb      	strb	r3, [r7, #7]
    for (int i = 0; i < PAGE_SIZE; ++i) {
 80012ba:	2300      	movs	r3, #0
 80012bc:	60fb      	str	r3, [r7, #12]
 80012be:	e00a      	b.n	80012d6 <clean_data_buffer+0x26>
        	data_buffer[bufferRef][i] = 0xFF;  // Initialize each element to 0xFF
 80012c0:	79fb      	ldrb	r3, [r7, #7]
 80012c2:	4a0a      	ldr	r2, [pc, #40]	; (80012ec <clean_data_buffer+0x3c>)
 80012c4:	021b      	lsls	r3, r3, #8
 80012c6:	441a      	add	r2, r3
 80012c8:	68fb      	ldr	r3, [r7, #12]
 80012ca:	4413      	add	r3, r2
 80012cc:	22ff      	movs	r2, #255	; 0xff
 80012ce:	701a      	strb	r2, [r3, #0]
    for (int i = 0; i < PAGE_SIZE; ++i) {
 80012d0:	68fb      	ldr	r3, [r7, #12]
 80012d2:	3301      	adds	r3, #1
 80012d4:	60fb      	str	r3, [r7, #12]
 80012d6:	68fb      	ldr	r3, [r7, #12]
 80012d8:	2bff      	cmp	r3, #255	; 0xff
 80012da:	ddf1      	ble.n	80012c0 <clean_data_buffer+0x10>
    }
}
 80012dc:	bf00      	nop
 80012de:	bf00      	nop
 80012e0:	3714      	adds	r7, #20
 80012e2:	46bd      	mov	sp, r7
 80012e4:	f85d 7b04 	ldr.w	r7, [sp], #4
 80012e8:	4770      	bx	lr
 80012ea:	bf00      	nop
 80012ec:	2000024c 	.word	0x2000024c

080012f0 <systemInit>:

void systemInit() {
 80012f0:	b580      	push	{r7, lr}
 80012f2:	b082      	sub	sp, #8
 80012f4:	af00      	add	r7, sp, #0
	  HAL_GPIO_WritePin(GPIOB, GPIO_PIN_7, GPIO_PIN_RESET);		// Turn LED off
 80012f6:	2200      	movs	r2, #0
 80012f8:	2180      	movs	r1, #128	; 0x80
 80012fa:	483e      	ldr	r0, [pc, #248]	; (80013f4 <systemInit+0x104>)
 80012fc:	f001 fcf4 	bl	8002ce8 <HAL_GPIO_WritePin>
	  HAL_GPIO_WritePin(GPIOD, GPIO_PIN_2, GPIO_PIN_SET);		// SET SPI CS High to disable bus 1
 8001300:	2201      	movs	r2, #1
 8001302:	2104      	movs	r1, #4
 8001304:	483c      	ldr	r0, [pc, #240]	; (80013f8 <systemInit+0x108>)
 8001306:	f001 fcef 	bl	8002ce8 <HAL_GPIO_WritePin>
	  HAL_GPIO_WritePin(GPIOC, GPIO_PIN_1, GPIO_PIN_SET);		// SET SPI CS High to disable bus 2
 800130a:	2201      	movs	r2, #1
 800130c:	2102      	movs	r1, #2
 800130e:	483b      	ldr	r0, [pc, #236]	; (80013fc <systemInit+0x10c>)
 8001310:	f001 fcea 	bl	8002ce8 <HAL_GPIO_WritePin>

	  // Clean the data buffer and set all values to 0xFF
	  next_blank_page0 = 0;
 8001314:	4b3a      	ldr	r3, [pc, #232]	; (8001400 <systemInit+0x110>)
 8001316:	2200      	movs	r2, #0
 8001318:	601a      	str	r2, [r3, #0]
	  next_blank_page1 = 0;
 800131a:	4b3a      	ldr	r3, [pc, #232]	; (8001404 <systemInit+0x114>)
 800131c:	2200      	movs	r2, #0
 800131e:	601a      	str	r2, [r3, #0]
	  clean_data_buffer(0);
 8001320:	2000      	movs	r0, #0
 8001322:	f7ff ffc5 	bl	80012b0 <clean_data_buffer>
	  clean_data_buffer(1);
 8001326:	2001      	movs	r0, #1
 8001328:	f7ff ffc2 	bl	80012b0 <clean_data_buffer>

	  for (uint8_t i = 0; i < 6; i++) {
 800132c:	2300      	movs	r3, #0
 800132e:	71fb      	strb	r3, [r7, #7]
 8001330:	e00e      	b.n	8001350 <systemInit+0x60>
		  accel_data[i] = 0x00;
 8001332:	79fb      	ldrb	r3, [r7, #7]
 8001334:	4a34      	ldr	r2, [pc, #208]	; (8001408 <systemInit+0x118>)
 8001336:	2100      	movs	r1, #0
 8001338:	54d1      	strb	r1, [r2, r3]
		  bme280_data_1[i] = 0x00;
 800133a:	79fb      	ldrb	r3, [r7, #7]
 800133c:	4a33      	ldr	r2, [pc, #204]	; (800140c <systemInit+0x11c>)
 800133e:	2100      	movs	r1, #0
 8001340:	54d1      	strb	r1, [r2, r3]
		  bme280_data_2[i] = 0x00;
 8001342:	79fb      	ldrb	r3, [r7, #7]
 8001344:	4a32      	ldr	r2, [pc, #200]	; (8001410 <systemInit+0x120>)
 8001346:	2100      	movs	r1, #0
 8001348:	54d1      	strb	r1, [r2, r3]
	  for (uint8_t i = 0; i < 6; i++) {
 800134a:	79fb      	ldrb	r3, [r7, #7]
 800134c:	3301      	adds	r3, #1
 800134e:	71fb      	strb	r3, [r7, #7]
 8001350:	79fb      	ldrb	r3, [r7, #7]
 8001352:	2b05      	cmp	r3, #5
 8001354:	d9ed      	bls.n	8001332 <systemInit+0x42>
	  }

	  // Initialise the peripherals
	  init_accel(&hi2c1);
 8001356:	482f      	ldr	r0, [pc, #188]	; (8001414 <systemInit+0x124>)
 8001358:	f7ff f8ce 	bl	80004f8 <init_accel>
	  init_bme280(&hi2c2, 0);
 800135c:	2100      	movs	r1, #0
 800135e:	482e      	ldr	r0, [pc, #184]	; (8001418 <systemInit+0x128>)
 8001360:	f7ff f910 	bl	8000584 <init_bme280>
	  init_bme280(&hi2c2, 1);
 8001364:	2101      	movs	r1, #1
 8001366:	482c      	ldr	r0, [pc, #176]	; (8001418 <systemInit+0x128>)
 8001368:	f7ff f90c 	bl	8000584 <init_bme280>
	  software_reset(&hspi1, 0);
 800136c:	2100      	movs	r1, #0
 800136e:	482b      	ldr	r0, [pc, #172]	; (800141c <systemInit+0x12c>)
 8001370:	f7ff fada 	bl	8000928 <software_reset>
	  software_reset(&hspi2, 1);
 8001374:	2101      	movs	r1, #1
 8001376:	482a      	ldr	r0, [pc, #168]	; (8001420 <systemInit+0x130>)
 8001378:	f7ff fad6 	bl	8000928 <software_reset>

	  next_blank_page0 = find_next_blank_page(&hspi1, &end_of_flash, 0);
 800137c:	2200      	movs	r2, #0
 800137e:	4929      	ldr	r1, [pc, #164]	; (8001424 <systemInit+0x134>)
 8001380:	4826      	ldr	r0, [pc, #152]	; (800141c <systemInit+0x12c>)
 8001382:	f7ff fb29 	bl	80009d8 <find_next_blank_page>
 8001386:	4603      	mov	r3, r0
 8001388:	4a1d      	ldr	r2, [pc, #116]	; (8001400 <systemInit+0x110>)
 800138a:	6013      	str	r3, [r2, #0]
	  next_blank_page1 = find_next_blank_page(&hspi2, &end_of_flash, 1);
 800138c:	2201      	movs	r2, #1
 800138e:	4925      	ldr	r1, [pc, #148]	; (8001424 <systemInit+0x134>)
 8001390:	4823      	ldr	r0, [pc, #140]	; (8001420 <systemInit+0x130>)
 8001392:	f7ff fb21 	bl	80009d8 <find_next_blank_page>
 8001396:	4603      	mov	r3, r0
 8001398:	4a1a      	ldr	r2, [pc, #104]	; (8001404 <systemInit+0x114>)
 800139a:	6013      	str	r3, [r2, #0]

	  buffer_ref = 0;
 800139c:	4b22      	ldr	r3, [pc, #136]	; (8001428 <systemInit+0x138>)
 800139e:	2200      	movs	r2, #0
 80013a0:	701a      	strb	r2, [r3, #0]
	  byte_tracker = 0;
 80013a2:	4b22      	ldr	r3, [pc, #136]	; (800142c <systemInit+0x13c>)
 80013a4:	2200      	movs	r2, #0
 80013a6:	801a      	strh	r2, [r3, #0]
	  end_of_flash = GPIO_PIN_SET;
 80013a8:	4b1e      	ldr	r3, [pc, #120]	; (8001424 <systemInit+0x134>)
 80013aa:	2201      	movs	r2, #1
 80013ac:	701a      	strb	r2, [r3, #0]
	  uart_rec_flag = 0;
 80013ae:	4b20      	ldr	r3, [pc, #128]	; (8001430 <systemInit+0x140>)
 80013b0:	2200      	movs	r2, #0
 80013b2:	701a      	strb	r2, [r3, #0]

	  send_uart_hex(&huart2, systemStatus(&hspi1, &hspi2, &hi2c1, &hi2c2));
 80013b4:	4b18      	ldr	r3, [pc, #96]	; (8001418 <systemInit+0x128>)
 80013b6:	4a17      	ldr	r2, [pc, #92]	; (8001414 <systemInit+0x124>)
 80013b8:	4919      	ldr	r1, [pc, #100]	; (8001420 <systemInit+0x130>)
 80013ba:	4818      	ldr	r0, [pc, #96]	; (800141c <systemInit+0x12c>)
 80013bc:	f000 f9b2 	bl	8001724 <systemStatus>
 80013c0:	4603      	mov	r3, r0
 80013c2:	4619      	mov	r1, r3
 80013c4:	481b      	ldr	r0, [pc, #108]	; (8001434 <systemInit+0x144>)
 80013c6:	f001 f86a 	bl	800249e <send_uart_hex>

	  // Initiate clocks and interrupts
	  HAL_NVIC_SetPriority(SysTick_IRQn, 0, 0); // Set SysTick to highest priority
 80013ca:	2200      	movs	r2, #0
 80013cc:	2100      	movs	r1, #0
 80013ce:	f04f 30ff 	mov.w	r0, #4294967295	; 0xffffffff
 80013d2:	f001 fa14 	bl	80027fe <HAL_NVIC_SetPriority>
	  HAL_UART_Receive_IT(&huart2, UARTRxData, 2);
 80013d6:	2202      	movs	r2, #2
 80013d8:	4917      	ldr	r1, [pc, #92]	; (8001438 <systemInit+0x148>)
 80013da:	4816      	ldr	r0, [pc, #88]	; (8001434 <systemInit+0x144>)
 80013dc:	f005 f94f 	bl	800667e <HAL_UART_Receive_IT>
	  initialise_rtc_default(&hrtc);
 80013e0:	4816      	ldr	r0, [pc, #88]	; (800143c <systemInit+0x14c>)
 80013e2:	f000 fc9f 	bl	8001d24 <initialise_rtc_default>
	  HAL_TIM_Base_Start_IT(&htim6);
 80013e6:	4816      	ldr	r0, [pc, #88]	; (8001440 <systemInit+0x150>)
 80013e8:	f004 fda0 	bl	8005f2c <HAL_TIM_Base_Start_IT>
}
 80013ec:	bf00      	nop
 80013ee:	3708      	adds	r7, #8
 80013f0:	46bd      	mov	sp, r7
 80013f2:	bd80      	pop	{r7, pc}
 80013f4:	40020400 	.word	0x40020400
 80013f8:	40020c00 	.word	0x40020c00
 80013fc:	40020800 	.word	0x40020800
 8001400:	20000464 	.word	0x20000464
 8001404:	20000468 	.word	0x20000468
 8001408:	2000044c 	.word	0x2000044c
 800140c:	20000454 	.word	0x20000454
 8001410:	2000045c 	.word	0x2000045c
 8001414:	20000040 	.word	0x20000040
 8001418:	20000094 	.word	0x20000094
 800141c:	20000108 	.word	0x20000108
 8001420:	20000160 	.word	0x20000160
 8001424:	2000046e 	.word	0x2000046e
 8001428:	20000462 	.word	0x20000462
 800142c:	2000046c 	.word	0x2000046c
 8001430:	2000024a 	.word	0x2000024a
 8001434:	20000200 	.word	0x20000200
 8001438:	20000248 	.word	0x20000248
 800143c:	200000e8 	.word	0x200000e8
 8001440:	200001b8 	.word	0x200001b8

08001444 <handleUART>:

void handleUART() {
 8001444:	b580      	push	{r7, lr}
 8001446:	b082      	sub	sp, #8
 8001448:	af00      	add	r7, sp, #0
	UART_HandleTypeDef *huart = &huart2;
 800144a:	4ba0      	ldr	r3, [pc, #640]	; (80016cc <handleUART+0x288>)
 800144c:	607b      	str	r3, [r7, #4]

	// Send Heartbeat to UART (data_rx[0] = "h")
	if (UARTRxData[0] == 0x68) {
 800144e:	4ba0      	ldr	r3, [pc, #640]	; (80016d0 <handleUART+0x28c>)
 8001450:	781b      	ldrb	r3, [r3, #0]
 8001452:	2b68      	cmp	r3, #104	; 0x68
 8001454:	d10e      	bne.n	8001474 <handleUART+0x30>
		heartbeatUART(huart);
 8001456:	6878      	ldr	r0, [r7, #4]
 8001458:	f000 f9b2 	bl	80017c0 <heartbeatUART>
		send_uart_hex(huart, systemStatus(&hspi1, &hspi2, &hi2c1, &hi2c2));
 800145c:	4b9d      	ldr	r3, [pc, #628]	; (80016d4 <handleUART+0x290>)
 800145e:	4a9e      	ldr	r2, [pc, #632]	; (80016d8 <handleUART+0x294>)
 8001460:	499e      	ldr	r1, [pc, #632]	; (80016dc <handleUART+0x298>)
 8001462:	489f      	ldr	r0, [pc, #636]	; (80016e0 <handleUART+0x29c>)
 8001464:	f000 f95e 	bl	8001724 <systemStatus>
 8001468:	4603      	mov	r3, r0
 800146a:	4619      	mov	r1, r3
 800146c:	6878      	ldr	r0, [r7, #4]
 800146e:	f001 f816 	bl	800249e <send_uart_hex>
 8001472:	e11d      	b.n	80016b0 <handleUART+0x26c>
	}

/***************************** SPI Flash ************************************************/
	// Erase specified flash chip (data_rx[0]  = "e")
	else if (UARTRxData[0] == 0x65) {
 8001474:	4b96      	ldr	r3, [pc, #600]	; (80016d0 <handleUART+0x28c>)
 8001476:	781b      	ldrb	r3, [r3, #0]
 8001478:	2b65      	cmp	r3, #101	; 0x65
 800147a:	d128      	bne.n	80014ce <handleUART+0x8a>
		if(decodeASCII(UARTRxData[1]) == 0) {
 800147c:	4b94      	ldr	r3, [pc, #592]	; (80016d0 <handleUART+0x28c>)
 800147e:	785b      	ldrb	r3, [r3, #1]
 8001480:	4618      	mov	r0, r3
 8001482:	f000 f931 	bl	80016e8 <decodeASCII>
 8001486:	4603      	mov	r3, r0
 8001488:	2b00      	cmp	r3, #0
 800148a:	d10b      	bne.n	80014a4 <handleUART+0x60>
			eraseFlashSPI(&hspi1, huart, decodeASCII(UARTRxData[1]));
 800148c:	4b90      	ldr	r3, [pc, #576]	; (80016d0 <handleUART+0x28c>)
 800148e:	785b      	ldrb	r3, [r3, #1]
 8001490:	4618      	mov	r0, r3
 8001492:	f000 f929 	bl	80016e8 <decodeASCII>
 8001496:	4603      	mov	r3, r0
 8001498:	461a      	mov	r2, r3
 800149a:	6879      	ldr	r1, [r7, #4]
 800149c:	4890      	ldr	r0, [pc, #576]	; (80016e0 <handleUART+0x29c>)
 800149e:	f000 f99b 	bl	80017d8 <eraseFlashSPI>
 80014a2:	e105      	b.n	80016b0 <handleUART+0x26c>
		} else if (decodeASCII(UARTRxData[1]) == 1) {
 80014a4:	4b8a      	ldr	r3, [pc, #552]	; (80016d0 <handleUART+0x28c>)
 80014a6:	785b      	ldrb	r3, [r3, #1]
 80014a8:	4618      	mov	r0, r3
 80014aa:	f000 f91d 	bl	80016e8 <decodeASCII>
 80014ae:	4603      	mov	r3, r0
 80014b0:	2b01      	cmp	r3, #1
 80014b2:	f040 80fd 	bne.w	80016b0 <handleUART+0x26c>
			eraseFlashSPI(&hspi2, huart, decodeASCII(UARTRxData[1]));
 80014b6:	4b86      	ldr	r3, [pc, #536]	; (80016d0 <handleUART+0x28c>)
 80014b8:	785b      	ldrb	r3, [r3, #1]
 80014ba:	4618      	mov	r0, r3
 80014bc:	f000 f914 	bl	80016e8 <decodeASCII>
 80014c0:	4603      	mov	r3, r0
 80014c2:	461a      	mov	r2, r3
 80014c4:	6879      	ldr	r1, [r7, #4]
 80014c6:	4885      	ldr	r0, [pc, #532]	; (80016dc <handleUART+0x298>)
 80014c8:	f000 f986 	bl	80017d8 <eraseFlashSPI>
 80014cc:	e0f0      	b.n	80016b0 <handleUART+0x26c>
		}
	}

	// Read data from specified flash chip (data_rx[0] = "r")
	else if (UARTRxData[0] == 0x72) {
 80014ce:	4b80      	ldr	r3, [pc, #512]	; (80016d0 <handleUART+0x28c>)
 80014d0:	781b      	ldrb	r3, [r3, #0]
 80014d2:	2b72      	cmp	r3, #114	; 0x72
 80014d4:	d128      	bne.n	8001528 <handleUART+0xe4>
		if(decodeASCII(UARTRxData[1]) == 0) {
 80014d6:	4b7e      	ldr	r3, [pc, #504]	; (80016d0 <handleUART+0x28c>)
 80014d8:	785b      	ldrb	r3, [r3, #1]
 80014da:	4618      	mov	r0, r3
 80014dc:	f000 f904 	bl	80016e8 <decodeASCII>
 80014e0:	4603      	mov	r3, r0
 80014e2:	2b00      	cmp	r3, #0
 80014e4:	d10b      	bne.n	80014fe <handleUART+0xba>
			readFlashToUART(&hspi1, huart, decodeASCII(UARTRxData[1]));
 80014e6:	4b7a      	ldr	r3, [pc, #488]	; (80016d0 <handleUART+0x28c>)
 80014e8:	785b      	ldrb	r3, [r3, #1]
 80014ea:	4618      	mov	r0, r3
 80014ec:	f000 f8fc 	bl	80016e8 <decodeASCII>
 80014f0:	4603      	mov	r3, r0
 80014f2:	461a      	mov	r2, r3
 80014f4:	6879      	ldr	r1, [r7, #4]
 80014f6:	487a      	ldr	r0, [pc, #488]	; (80016e0 <handleUART+0x29c>)
 80014f8:	f000 f9ae 	bl	8001858 <readFlashToUART>
 80014fc:	e0d8      	b.n	80016b0 <handleUART+0x26c>
		} else if (decodeASCII(UARTRxData[1]) == 1) {
 80014fe:	4b74      	ldr	r3, [pc, #464]	; (80016d0 <handleUART+0x28c>)
 8001500:	785b      	ldrb	r3, [r3, #1]
 8001502:	4618      	mov	r0, r3
 8001504:	f000 f8f0 	bl	80016e8 <decodeASCII>
 8001508:	4603      	mov	r3, r0
 800150a:	2b01      	cmp	r3, #1
 800150c:	f040 80d0 	bne.w	80016b0 <handleUART+0x26c>
			readFlashToUART(&hspi2, huart, decodeASCII(UARTRxData[1]));
 8001510:	4b6f      	ldr	r3, [pc, #444]	; (80016d0 <handleUART+0x28c>)
 8001512:	785b      	ldrb	r3, [r3, #1]
 8001514:	4618      	mov	r0, r3
 8001516:	f000 f8e7 	bl	80016e8 <decodeASCII>
 800151a:	4603      	mov	r3, r0
 800151c:	461a      	mov	r2, r3
 800151e:	6879      	ldr	r1, [r7, #4]
 8001520:	486e      	ldr	r0, [pc, #440]	; (80016dc <handleUART+0x298>)
 8001522:	f000 f999 	bl	8001858 <readFlashToUART>
 8001526:	e0c3      	b.n	80016b0 <handleUART+0x26c>
		}
	}

	// Read Manufacturer over SPI (data_rx[0] = "m")
	else if (UARTRxData[0] == 0x6d) {
 8001528:	4b69      	ldr	r3, [pc, #420]	; (80016d0 <handleUART+0x28c>)
 800152a:	781b      	ldrb	r3, [r3, #0]
 800152c:	2b6d      	cmp	r3, #109	; 0x6d
 800152e:	d128      	bne.n	8001582 <handleUART+0x13e>
		if(decodeASCII(UARTRxData[1]) == 0) {
 8001530:	4b67      	ldr	r3, [pc, #412]	; (80016d0 <handleUART+0x28c>)
 8001532:	785b      	ldrb	r3, [r3, #1]
 8001534:	4618      	mov	r0, r3
 8001536:	f000 f8d7 	bl	80016e8 <decodeASCII>
 800153a:	4603      	mov	r3, r0
 800153c:	2b00      	cmp	r3, #0
 800153e:	d10b      	bne.n	8001558 <handleUART+0x114>
			readFlashManuSPI(&hspi1, huart, decodeASCII(UARTRxData[1]));
 8001540:	4b63      	ldr	r3, [pc, #396]	; (80016d0 <handleUART+0x28c>)
 8001542:	785b      	ldrb	r3, [r3, #1]
 8001544:	4618      	mov	r0, r3
 8001546:	f000 f8cf 	bl	80016e8 <decodeASCII>
 800154a:	4603      	mov	r3, r0
 800154c:	461a      	mov	r2, r3
 800154e:	6879      	ldr	r1, [r7, #4]
 8001550:	4863      	ldr	r0, [pc, #396]	; (80016e0 <handleUART+0x29c>)
 8001552:	f000 f9e9 	bl	8001928 <readFlashManuSPI>
 8001556:	e0ab      	b.n	80016b0 <handleUART+0x26c>
		} else if (decodeASCII(UARTRxData[1]) == 1) {
 8001558:	4b5d      	ldr	r3, [pc, #372]	; (80016d0 <handleUART+0x28c>)
 800155a:	785b      	ldrb	r3, [r3, #1]
 800155c:	4618      	mov	r0, r3
 800155e:	f000 f8c3 	bl	80016e8 <decodeASCII>
 8001562:	4603      	mov	r3, r0
 8001564:	2b01      	cmp	r3, #1
 8001566:	f040 80a3 	bne.w	80016b0 <handleUART+0x26c>
			readFlashManuSPI(&hspi2, huart, decodeASCII(UARTRxData[1]));
 800156a:	4b59      	ldr	r3, [pc, #356]	; (80016d0 <handleUART+0x28c>)
 800156c:	785b      	ldrb	r3, [r3, #1]
 800156e:	4618      	mov	r0, r3
 8001570:	f000 f8ba 	bl	80016e8 <decodeASCII>
 8001574:	4603      	mov	r3, r0
 8001576:	461a      	mov	r2, r3
 8001578:	6879      	ldr	r1, [r7, #4]
 800157a:	4858      	ldr	r0, [pc, #352]	; (80016dc <handleUART+0x298>)
 800157c:	f000 f9d4 	bl	8001928 <readFlashManuSPI>
 8001580:	e096      	b.n	80016b0 <handleUART+0x26c>
		}
	}

	// Write a page over SPI (data_rx[0] = "w")
	else if (UARTRxData[0] == 0x77) {
 8001582:	4b53      	ldr	r3, [pc, #332]	; (80016d0 <handleUART+0x28c>)
 8001584:	781b      	ldrb	r3, [r3, #0]
 8001586:	2b77      	cmp	r3, #119	; 0x77
 8001588:	d127      	bne.n	80015da <handleUART+0x196>
		if(decodeASCII(UARTRxData[1]) == 0) {
 800158a:	4b51      	ldr	r3, [pc, #324]	; (80016d0 <handleUART+0x28c>)
 800158c:	785b      	ldrb	r3, [r3, #1]
 800158e:	4618      	mov	r0, r3
 8001590:	f000 f8aa 	bl	80016e8 <decodeASCII>
 8001594:	4603      	mov	r3, r0
 8001596:	2b00      	cmp	r3, #0
 8001598:	d10b      	bne.n	80015b2 <handleUART+0x16e>
			writePageSPI_W(&hspi1, huart, decodeASCII(UARTRxData[1]));
 800159a:	4b4d      	ldr	r3, [pc, #308]	; (80016d0 <handleUART+0x28c>)
 800159c:	785b      	ldrb	r3, [r3, #1]
 800159e:	4618      	mov	r0, r3
 80015a0:	f000 f8a2 	bl	80016e8 <decodeASCII>
 80015a4:	4603      	mov	r3, r0
 80015a6:	461a      	mov	r2, r3
 80015a8:	6879      	ldr	r1, [r7, #4]
 80015aa:	484d      	ldr	r0, [pc, #308]	; (80016e0 <handleUART+0x29c>)
 80015ac:	f000 f9da 	bl	8001964 <writePageSPI_W>
 80015b0:	e07e      	b.n	80016b0 <handleUART+0x26c>
		} else if (decodeASCII(UARTRxData[1]) == 1) {
 80015b2:	4b47      	ldr	r3, [pc, #284]	; (80016d0 <handleUART+0x28c>)
 80015b4:	785b      	ldrb	r3, [r3, #1]
 80015b6:	4618      	mov	r0, r3
 80015b8:	f000 f896 	bl	80016e8 <decodeASCII>
 80015bc:	4603      	mov	r3, r0
 80015be:	2b01      	cmp	r3, #1
 80015c0:	d176      	bne.n	80016b0 <handleUART+0x26c>
			writePageSPI_W(&hspi2, huart, decodeASCII(UARTRxData[1]));
 80015c2:	4b43      	ldr	r3, [pc, #268]	; (80016d0 <handleUART+0x28c>)
 80015c4:	785b      	ldrb	r3, [r3, #1]
 80015c6:	4618      	mov	r0, r3
 80015c8:	f000 f88e 	bl	80016e8 <decodeASCII>
 80015cc:	4603      	mov	r3, r0
 80015ce:	461a      	mov	r2, r3
 80015d0:	6879      	ldr	r1, [r7, #4]
 80015d2:	4842      	ldr	r0, [pc, #264]	; (80016dc <handleUART+0x298>)
 80015d4:	f000 f9c6 	bl	8001964 <writePageSPI_W>
 80015d8:	e06a      	b.n	80016b0 <handleUART+0x26c>
		}
	}

	// Software reset flash chip over SPI (data_rx[0] = "x")
	else if (UARTRxData[0] == 0x78) {
 80015da:	4b3d      	ldr	r3, [pc, #244]	; (80016d0 <handleUART+0x28c>)
 80015dc:	781b      	ldrb	r3, [r3, #0]
 80015de:	2b78      	cmp	r3, #120	; 0x78
 80015e0:	d127      	bne.n	8001632 <handleUART+0x1ee>
		if(decodeASCII(UARTRxData[1]) == 0) {
 80015e2:	4b3b      	ldr	r3, [pc, #236]	; (80016d0 <handleUART+0x28c>)
 80015e4:	785b      	ldrb	r3, [r3, #1]
 80015e6:	4618      	mov	r0, r3
 80015e8:	f000 f87e 	bl	80016e8 <decodeASCII>
 80015ec:	4603      	mov	r3, r0
 80015ee:	2b00      	cmp	r3, #0
 80015f0:	d10b      	bne.n	800160a <handleUART+0x1c6>
			resetSPIFlash(&hspi1, huart, decodeASCII(UARTRxData[1]));
 80015f2:	4b37      	ldr	r3, [pc, #220]	; (80016d0 <handleUART+0x28c>)
 80015f4:	785b      	ldrb	r3, [r3, #1]
 80015f6:	4618      	mov	r0, r3
 80015f8:	f000 f876 	bl	80016e8 <decodeASCII>
 80015fc:	4603      	mov	r3, r0
 80015fe:	461a      	mov	r2, r3
 8001600:	6879      	ldr	r1, [r7, #4]
 8001602:	4837      	ldr	r0, [pc, #220]	; (80016e0 <handleUART+0x29c>)
 8001604:	f000 f9fe 	bl	8001a04 <resetSPIFlash>
 8001608:	e052      	b.n	80016b0 <handleUART+0x26c>
		} else if (decodeASCII(UARTRxData[1]) == 1) {
 800160a:	4b31      	ldr	r3, [pc, #196]	; (80016d0 <handleUART+0x28c>)
 800160c:	785b      	ldrb	r3, [r3, #1]
 800160e:	4618      	mov	r0, r3
 8001610:	f000 f86a 	bl	80016e8 <decodeASCII>
 8001614:	4603      	mov	r3, r0
 8001616:	2b01      	cmp	r3, #1
 8001618:	d14a      	bne.n	80016b0 <handleUART+0x26c>
			resetSPIFlash(&hspi2, huart, decodeASCII(UARTRxData[1]));
 800161a:	4b2d      	ldr	r3, [pc, #180]	; (80016d0 <handleUART+0x28c>)
 800161c:	785b      	ldrb	r3, [r3, #1]
 800161e:	4618      	mov	r0, r3
 8001620:	f000 f862 	bl	80016e8 <decodeASCII>
 8001624:	4603      	mov	r3, r0
 8001626:	461a      	mov	r2, r3
 8001628:	6879      	ldr	r1, [r7, #4]
 800162a:	482c      	ldr	r0, [pc, #176]	; (80016dc <handleUART+0x298>)
 800162c:	f000 f9ea 	bl	8001a04 <resetSPIFlash>
 8001630:	e03e      	b.n	80016b0 <handleUART+0x26c>
		}
	}

/*********************************** I2C Accelerometer ***********************************/
	// Read Accelerometer WhoAmI (data_rx[0] = "c")
	else if (UARTRxData[0] == 0x63) {
 8001632:	4b27      	ldr	r3, [pc, #156]	; (80016d0 <handleUART+0x28c>)
 8001634:	781b      	ldrb	r3, [r3, #0]
 8001636:	2b63      	cmp	r3, #99	; 0x63
 8001638:	d104      	bne.n	8001644 <handleUART+0x200>
		checkAccelWhoAmI(&hi2c1, huart);
 800163a:	6879      	ldr	r1, [r7, #4]
 800163c:	4826      	ldr	r0, [pc, #152]	; (80016d8 <handleUART+0x294>)
 800163e:	f000 f9f7 	bl	8001a30 <checkAccelWhoAmI>
 8001642:	e035      	b.n	80016b0 <handleUART+0x26c>
	}

	// Read the accelerometer and print to the UART[0] (data_rx [0] = "a")
	else if (UARTRxData[0] == 0x61) {
 8001644:	4b22      	ldr	r3, [pc, #136]	; (80016d0 <handleUART+0x28c>)
 8001646:	781b      	ldrb	r3, [r3, #0]
 8001648:	2b61      	cmp	r3, #97	; 0x61
 800164a:	d103      	bne.n	8001654 <handleUART+0x210>
		accelToUART(huart);
 800164c:	6878      	ldr	r0, [r7, #4]
 800164e:	f000 fa03 	bl	8001a58 <accelToUART>
 8001652:	e02d      	b.n	80016b0 <handleUART+0x26c>
	}

/********************************** I2C BME280 *******************************************/
	// Read the temp sensor ID and print to the UART[0] (data_rx [0]= "b")
	else if (UARTRxData[0] == 0x62) {
 8001654:	4b1e      	ldr	r3, [pc, #120]	; (80016d0 <handleUART+0x28c>)
 8001656:	781b      	ldrb	r3, [r3, #0]
 8001658:	2b62      	cmp	r3, #98	; 0x62
 800165a:	d10b      	bne.n	8001674 <handleUART+0x230>
		readTempSensorID(&hi2c2, huart, decodeASCII(UARTRxData[1]));
 800165c:	4b1c      	ldr	r3, [pc, #112]	; (80016d0 <handleUART+0x28c>)
 800165e:	785b      	ldrb	r3, [r3, #1]
 8001660:	4618      	mov	r0, r3
 8001662:	f000 f841 	bl	80016e8 <decodeASCII>
 8001666:	4603      	mov	r3, r0
 8001668:	461a      	mov	r2, r3
 800166a:	6879      	ldr	r1, [r7, #4]
 800166c:	4819      	ldr	r0, [pc, #100]	; (80016d4 <handleUART+0x290>)
 800166e:	f000 fa0f 	bl	8001a90 <readTempSensorID>
 8001672:	e01d      	b.n	80016b0 <handleUART+0x26c>
	}

	// Read the temp sensor calibration registers and print to the UART (data_rx[0] = "p")
	else if (UARTRxData[0] == 0x70) {
 8001674:	4b16      	ldr	r3, [pc, #88]	; (80016d0 <handleUART+0x28c>)
 8001676:	781b      	ldrb	r3, [r3, #0]
 8001678:	2b70      	cmp	r3, #112	; 0x70
 800167a:	d10b      	bne.n	8001694 <handleUART+0x250>
		readTempCalibration(&hi2c2, huart, decodeASCII(UARTRxData[1]));
 800167c:	4b14      	ldr	r3, [pc, #80]	; (80016d0 <handleUART+0x28c>)
 800167e:	785b      	ldrb	r3, [r3, #1]
 8001680:	4618      	mov	r0, r3
 8001682:	f000 f831 	bl	80016e8 <decodeASCII>
 8001686:	4603      	mov	r3, r0
 8001688:	461a      	mov	r2, r3
 800168a:	6879      	ldr	r1, [r7, #4]
 800168c:	4811      	ldr	r0, [pc, #68]	; (80016d4 <handleUART+0x290>)
 800168e:	f000 fa14 	bl	8001aba <readTempCalibration>
 8001692:	e00d      	b.n	80016b0 <handleUART+0x26c>
	}

	// Read the temp sensor and print to the UART[0] (data_rx [0]= "t")
	else if (UARTRxData[0] == 0x74) {
 8001694:	4b0e      	ldr	r3, [pc, #56]	; (80016d0 <handleUART+0x28c>)
 8001696:	781b      	ldrb	r3, [r3, #0]
 8001698:	2b74      	cmp	r3, #116	; 0x74
 800169a:	d109      	bne.n	80016b0 <handleUART+0x26c>
		readTempSensor(huart, decodeASCII(UARTRxData[1]));
 800169c:	4b0c      	ldr	r3, [pc, #48]	; (80016d0 <handleUART+0x28c>)
 800169e:	785b      	ldrb	r3, [r3, #1]
 80016a0:	4618      	mov	r0, r3
 80016a2:	f000 f821 	bl	80016e8 <decodeASCII>
 80016a6:	4603      	mov	r3, r0
 80016a8:	4619      	mov	r1, r3
 80016aa:	6878      	ldr	r0, [r7, #4]
 80016ac:	f000 fa3e 	bl	8001b2c <readTempSensor>
	}

	uart_rec_flag = 0x00;
 80016b0:	4b0c      	ldr	r3, [pc, #48]	; (80016e4 <handleUART+0x2a0>)
 80016b2:	2200      	movs	r2, #0
 80016b4:	701a      	strb	r2, [r3, #0]
	UARTRxData[0] = 0x00;
 80016b6:	4b06      	ldr	r3, [pc, #24]	; (80016d0 <handleUART+0x28c>)
 80016b8:	2200      	movs	r2, #0
 80016ba:	701a      	strb	r2, [r3, #0]
	UARTRxData[1] = 0x00;
 80016bc:	4b04      	ldr	r3, [pc, #16]	; (80016d0 <handleUART+0x28c>)
 80016be:	2200      	movs	r2, #0
 80016c0:	705a      	strb	r2, [r3, #1]
}
 80016c2:	bf00      	nop
 80016c4:	3708      	adds	r7, #8
 80016c6:	46bd      	mov	sp, r7
 80016c8:	bd80      	pop	{r7, pc}
 80016ca:	bf00      	nop
 80016cc:	20000200 	.word	0x20000200
 80016d0:	20000248 	.word	0x20000248
 80016d4:	20000094 	.word	0x20000094
 80016d8:	20000040 	.word	0x20000040
 80016dc:	20000160 	.word	0x20000160
 80016e0:	20000108 	.word	0x20000108
 80016e4:	2000024a 	.word	0x2000024a

080016e8 <decodeASCII>:

uint8_t decodeASCII(uint8_t asciiVal) {
 80016e8:	b480      	push	{r7}
 80016ea:	b085      	sub	sp, #20
 80016ec:	af00      	add	r7, sp, #0
 80016ee:	4603      	mov	r3, r0
 80016f0:	71fb      	strb	r3, [r7, #7]
	int returnVal = -1;
 80016f2:	f04f 33ff 	mov.w	r3, #4294967295	; 0xffffffff
 80016f6:	60fb      	str	r3, [r7, #12]
	if ((asciiVal >= 48) && (asciiVal <= 57)) {
 80016f8:	79fb      	ldrb	r3, [r7, #7]
 80016fa:	2b2f      	cmp	r3, #47	; 0x2f
 80016fc:	d905      	bls.n	800170a <decodeASCII+0x22>
 80016fe:	79fb      	ldrb	r3, [r7, #7]
 8001700:	2b39      	cmp	r3, #57	; 0x39
 8001702:	d802      	bhi.n	800170a <decodeASCII+0x22>
		returnVal = asciiVal - 48;
 8001704:	79fb      	ldrb	r3, [r7, #7]
 8001706:	3b30      	subs	r3, #48	; 0x30
 8001708:	60fb      	str	r3, [r7, #12]
	}
	return returnVal;
 800170a:	68fb      	ldr	r3, [r7, #12]
 800170c:	b2db      	uxtb	r3, r3
}
 800170e:	4618      	mov	r0, r3
 8001710:	3714      	adds	r7, #20
 8001712:	46bd      	mov	sp, r7
 8001714:	f85d 7b04 	ldr.w	r7, [sp], #4
 8001718:	4770      	bx	lr

0800171a <Error_Handler>:
/**
  * @brief  This function is executed in case of error occurrence.
  * @retval None
  */
void Error_Handler(void)
{
 800171a:	b480      	push	{r7}
 800171c:	af00      	add	r7, sp, #0
  \details Disables IRQ interrupts by setting special-purpose register PRIMASK.
           Can only be executed in Privileged modes.
 */
__STATIC_FORCEINLINE void __disable_irq(void)
{
  __ASM volatile ("cpsid i" : : : "memory");
 800171e:	b672      	cpsid	i
}
 8001720:	bf00      	nop
  /* USER CODE BEGIN Error_Handler_Debug */
  /* User can add his own implementation to report the HAL error return state */
  __disable_irq();
  while (1)
 8001722:	e7fe      	b.n	8001722 <Error_Handler+0x8>

08001724 <systemStatus>:

#include "peripheral_driver.h"
/***************************************************************************************************************
 * Generic Functions
 */
uint8_t systemStatus(SPI_HandleTypeDef *hspi1, SPI_HandleTypeDef *hspi2, I2C_HandleTypeDef* hi2c1, I2C_HandleTypeDef* hi2c2) {
 8001724:	b580      	push	{r7, lr}
 8001726:	b086      	sub	sp, #24
 8001728:	af00      	add	r7, sp, #0
 800172a:	60f8      	str	r0, [r7, #12]
 800172c:	60b9      	str	r1, [r7, #8]
 800172e:	607a      	str	r2, [r7, #4]
 8001730:	603b      	str	r3, [r7, #0]
	uint8_t retVal = 0x00;
 8001732:	2300      	movs	r3, #0
 8001734:	75fb      	strb	r3, [r7, #23]

	// Check BME280_1
	if(readBME280_id_reg(hi2c2, 1) != 0x60) {			// Expected 0x60
 8001736:	2101      	movs	r1, #1
 8001738:	6838      	ldr	r0, [r7, #0]
 800173a:	f7fe ffc9 	bl	80006d0 <readBME280_id_reg>
 800173e:	4603      	mov	r3, r0
 8001740:	2b60      	cmp	r3, #96	; 0x60
 8001742:	d003      	beq.n	800174c <systemStatus+0x28>
		retVal  = retVal | 0x10;
 8001744:	7dfb      	ldrb	r3, [r7, #23]
 8001746:	f043 0310 	orr.w	r3, r3, #16
 800174a:	75fb      	strb	r3, [r7, #23]
	}

	// Check BME280_0
	if(readBME280_id_reg(hi2c2, 0) != 0x60) {			// Expected 0x60
 800174c:	2100      	movs	r1, #0
 800174e:	6838      	ldr	r0, [r7, #0]
 8001750:	f7fe ffbe 	bl	80006d0 <readBME280_id_reg>
 8001754:	4603      	mov	r3, r0
 8001756:	2b60      	cmp	r3, #96	; 0x60
 8001758:	d003      	beq.n	8001762 <systemStatus+0x3e>
		retVal  = retVal | 0x08;
 800175a:	7dfb      	ldrb	r3, [r7, #23]
 800175c:	f043 0308 	orr.w	r3, r3, #8
 8001760:	75fb      	strb	r3, [r7, #23]
	}

	// Check Accelerometer
	if(readAccel_whoami(hi2c1) != 0x32) {				// Expected 0x32
 8001762:	6878      	ldr	r0, [r7, #4]
 8001764:	f7fe fefa 	bl	800055c <readAccel_whoami>
 8001768:	4603      	mov	r3, r0
 800176a:	2b32      	cmp	r3, #50	; 0x32
 800176c:	d003      	beq.n	8001776 <systemStatus+0x52>
		retVal  = retVal | 0x04;
 800176e:	7dfb      	ldrb	r3, [r7, #23]
 8001770:	f043 0304 	orr.w	r3, r3, #4
 8001774:	75fb      	strb	r3, [r7, #23]
	}

	// Check SPIFlash_1
	uint8_t manu[2] = {0, 0};
 8001776:	2300      	movs	r3, #0
 8001778:	82bb      	strh	r3, [r7, #20]
	read_manufacturer_id(manu, hspi2, 1);
 800177a:	f107 0314 	add.w	r3, r7, #20
 800177e:	2201      	movs	r2, #1
 8001780:	68b9      	ldr	r1, [r7, #8]
 8001782:	4618      	mov	r0, r3
 8001784:	f7ff f9f2 	bl	8000b6c <read_manufacturer_id>
	if(manu[0] != 0xEF) {								// Expected 0xEF
 8001788:	7d3b      	ldrb	r3, [r7, #20]
 800178a:	2bef      	cmp	r3, #239	; 0xef
 800178c:	d003      	beq.n	8001796 <systemStatus+0x72>
		retVal  = retVal | 0x02;
 800178e:	7dfb      	ldrb	r3, [r7, #23]
 8001790:	f043 0302 	orr.w	r3, r3, #2
 8001794:	75fb      	strb	r3, [r7, #23]
	}

	// Check SPIFlash_0
	uint8_t manu0[2] = {0, 0};
 8001796:	2300      	movs	r3, #0
 8001798:	823b      	strh	r3, [r7, #16]
	read_manufacturer_id(manu0, hspi1, 0);
 800179a:	f107 0310 	add.w	r3, r7, #16
 800179e:	2200      	movs	r2, #0
 80017a0:	68f9      	ldr	r1, [r7, #12]
 80017a2:	4618      	mov	r0, r3
 80017a4:	f7ff f9e2 	bl	8000b6c <read_manufacturer_id>
	if(manu0[0] != 0xEF) {								// Expected 0xEF
 80017a8:	7c3b      	ldrb	r3, [r7, #16]
 80017aa:	2bef      	cmp	r3, #239	; 0xef
 80017ac:	d003      	beq.n	80017b6 <systemStatus+0x92>
		retVal  = retVal | 0x01;
 80017ae:	7dfb      	ldrb	r3, [r7, #23]
 80017b0:	f043 0301 	orr.w	r3, r3, #1
 80017b4:	75fb      	strb	r3, [r7, #23]
	}
	return retVal;
 80017b6:	7dfb      	ldrb	r3, [r7, #23]
}
 80017b8:	4618      	mov	r0, r3
 80017ba:	3718      	adds	r7, #24
 80017bc:	46bd      	mov	sp, r7
 80017be:	bd80      	pop	{r7, pc}

080017c0 <heartbeatUART>:

void heartbeatUART(UART_HandleTypeDef *huart) {
 80017c0:	b580      	push	{r7, lr}
 80017c2:	b082      	sub	sp, #8
 80017c4:	af00      	add	r7, sp, #0
 80017c6:	6078      	str	r0, [r7, #4]
	send_uart_hex(huart, 0x51);			// Transmit the heartbeat as devicd ID (0x51 = Q)
 80017c8:	2151      	movs	r1, #81	; 0x51
 80017ca:	6878      	ldr	r0, [r7, #4]
 80017cc:	f000 fe67 	bl	800249e <send_uart_hex>
}
 80017d0:	bf00      	nop
 80017d2:	3708      	adds	r7, #8
 80017d4:	46bd      	mov	sp, r7
 80017d6:	bd80      	pop	{r7, pc}

080017d8 <eraseFlashSPI>:

/***************************************************************************************************************
 * SPI Flash Functions
 */
void eraseFlashSPI(SPI_HandleTypeDef *hspi, UART_HandleTypeDef *huart, uint8_t flashNo) {
 80017d8:	b580      	push	{r7, lr}
 80017da:	b084      	sub	sp, #16
 80017dc:	af00      	add	r7, sp, #0
 80017de:	60f8      	str	r0, [r7, #12]
 80017e0:	60b9      	str	r1, [r7, #8]
 80017e2:	4613      	mov	r3, r2
 80017e4:	71fb      	strb	r3, [r7, #7]
	if (flashNo == 0 || flashNo == 1) {
 80017e6:	79fb      	ldrb	r3, [r7, #7]
 80017e8:	2b00      	cmp	r3, #0
 80017ea:	d002      	beq.n	80017f2 <eraseFlashSPI+0x1a>
 80017ec:	79fb      	ldrb	r3, [r7, #7]
 80017ee:	2b01      	cmp	r3, #1
 80017f0:	d123      	bne.n	800183a <eraseFlashSPI+0x62>
		HAL_GPIO_WritePin(GPIOB, GPIO_PIN_7,GPIO_PIN_SET);		// Activate the "write out" LED
 80017f2:	2201      	movs	r2, #1
 80017f4:	2180      	movs	r1, #128	; 0x80
 80017f6:	4813      	ldr	r0, [pc, #76]	; (8001844 <eraseFlashSPI+0x6c>)
 80017f8:	f001 fa76 	bl	8002ce8 <HAL_GPIO_WritePin>
		if (erase_chip_spi(hspi, flashNo) == HAL_OK) {
 80017fc:	79fb      	ldrb	r3, [r7, #7]
 80017fe:	4619      	mov	r1, r3
 8001800:	68f8      	ldr	r0, [r7, #12]
 8001802:	f7ff f849 	bl	8000898 <erase_chip_spi>
 8001806:	4603      	mov	r3, r0
 8001808:	2b00      	cmp	r3, #0
 800180a:	d10d      	bne.n	8001828 <eraseFlashSPI+0x50>
			send_uart_string(huart, "Successful Chip Erase\r\n");
 800180c:	490e      	ldr	r1, [pc, #56]	; (8001848 <eraseFlashSPI+0x70>)
 800180e:	68b8      	ldr	r0, [r7, #8]
 8001810:	f000 fe31 	bl	8002476 <send_uart_string>
			next_blank_page0 = find_next_blank_page(hspi, &end_of_flash, flashNo);
 8001814:	79fb      	ldrb	r3, [r7, #7]
 8001816:	461a      	mov	r2, r3
 8001818:	490c      	ldr	r1, [pc, #48]	; (800184c <eraseFlashSPI+0x74>)
 800181a:	68f8      	ldr	r0, [r7, #12]
 800181c:	f7ff f8dc 	bl	80009d8 <find_next_blank_page>
 8001820:	4603      	mov	r3, r0
 8001822:	4a0b      	ldr	r2, [pc, #44]	; (8001850 <eraseFlashSPI+0x78>)
 8001824:	6013      	str	r3, [r2, #0]
 8001826:	e003      	b.n	8001830 <eraseFlashSPI+0x58>
		} else {
			send_uart_string(huart, "Error during chip erase. Please check the connection and try again.\r\n");
 8001828:	490a      	ldr	r1, [pc, #40]	; (8001854 <eraseFlashSPI+0x7c>)
 800182a:	68b8      	ldr	r0, [r7, #8]
 800182c:	f000 fe23 	bl	8002476 <send_uart_string>
		}
		HAL_GPIO_WritePin(GPIOB, GPIO_PIN_7,GPIO_PIN_RESET);	// Deactivate the "write out" LED
 8001830:	2200      	movs	r2, #0
 8001832:	2180      	movs	r1, #128	; 0x80
 8001834:	4803      	ldr	r0, [pc, #12]	; (8001844 <eraseFlashSPI+0x6c>)
 8001836:	f001 fa57 	bl	8002ce8 <HAL_GPIO_WritePin>
	}
}
 800183a:	bf00      	nop
 800183c:	3710      	adds	r7, #16
 800183e:	46bd      	mov	sp, r7
 8001840:	bd80      	pop	{r7, pc}
 8001842:	bf00      	nop
 8001844:	40020400 	.word	0x40020400
 8001848:	080075ec 	.word	0x080075ec
 800184c:	2000046e 	.word	0x2000046e
 8001850:	20000464 	.word	0x20000464
 8001854:	08007604 	.word	0x08007604

08001858 <readFlashToUART>:

void readFlashToUART(SPI_HandleTypeDef *hspi, UART_HandleTypeDef *huart, uint8_t flashNo) {
 8001858:	b580      	push	{r7, lr}
 800185a:	b0c8      	sub	sp, #288	; 0x120
 800185c:	af00      	add	r7, sp, #0
 800185e:	f507 7390 	add.w	r3, r7, #288	; 0x120
 8001862:	f5a3 738a 	sub.w	r3, r3, #276	; 0x114
 8001866:	6018      	str	r0, [r3, #0]
 8001868:	f507 7390 	add.w	r3, r7, #288	; 0x120
 800186c:	f5a3 738c 	sub.w	r3, r3, #280	; 0x118
 8001870:	6019      	str	r1, [r3, #0]
 8001872:	f507 7390 	add.w	r3, r7, #288	; 0x120
 8001876:	f2a3 1319 	subw	r3, r3, #281	; 0x119
 800187a:	701a      	strb	r2, [r3, #0]
	uint32_t num_of_pages = next_blank_page0;
 800187c:	4b28      	ldr	r3, [pc, #160]	; (8001920 <readFlashToUART+0xc8>)
 800187e:	681b      	ldr	r3, [r3, #0]
 8001880:	f8c7 311c 	str.w	r3, [r7, #284]	; 0x11c
	if(num_of_pages == 0) {
 8001884:	f8d7 311c 	ldr.w	r3, [r7, #284]	; 0x11c
 8001888:	2b00      	cmp	r3, #0
 800188a:	d103      	bne.n	8001894 <readFlashToUART+0x3c>
		num_of_pages = PAGE_SIZE;
 800188c:	f44f 7380 	mov.w	r3, #256	; 0x100
 8001890:	f8c7 311c 	str.w	r3, [r7, #284]	; 0x11c
	}
	num_of_pages = num_of_pages/PAGE_SIZE;
 8001894:	f8d7 311c 	ldr.w	r3, [r7, #284]	; 0x11c
 8001898:	0a1b      	lsrs	r3, r3, #8
 800189a:	f8c7 311c 	str.w	r3, [r7, #284]	; 0x11c
	uint32_t address = 0;
 800189e:	2300      	movs	r3, #0
 80018a0:	f8c7 3118 	str.w	r3, [r7, #280]	; 0x118
	HAL_GPIO_WritePin(GPIOB, GPIO_PIN_7,GPIO_PIN_SET);		// Activate the "write out" LED
 80018a4:	2201      	movs	r2, #1
 80018a6:	2180      	movs	r1, #128	; 0x80
 80018a8:	481e      	ldr	r0, [pc, #120]	; (8001924 <readFlashToUART+0xcc>)
 80018aa:	f001 fa1d 	bl	8002ce8 <HAL_GPIO_WritePin>

	for (int i = 0; i < (num_of_pages); i++) {
 80018ae:	2300      	movs	r3, #0
 80018b0:	f8c7 3114 	str.w	r3, [r7, #276]	; 0x114
 80018b4:	e024      	b.n	8001900 <readFlashToUART+0xa8>
		uint8_t page[PAGE_SIZE];
		read_page_spi(page, hspi, address, flashNo);
 80018b6:	f507 7390 	add.w	r3, r7, #288	; 0x120
 80018ba:	f2a3 1319 	subw	r3, r3, #281	; 0x119
 80018be:	781b      	ldrb	r3, [r3, #0]
 80018c0:	f507 7290 	add.w	r2, r7, #288	; 0x120
 80018c4:	f5a2 718a 	sub.w	r1, r2, #276	; 0x114
 80018c8:	f107 0014 	add.w	r0, r7, #20
 80018cc:	f8d7 2118 	ldr.w	r2, [r7, #280]	; 0x118
 80018d0:	6809      	ldr	r1, [r1, #0]
 80018d2:	f7ff f923 	bl	8000b1c <read_page_spi>
		uart_transmit_page(huart, page);						// Transmit the data//
 80018d6:	f107 0214 	add.w	r2, r7, #20
 80018da:	f507 7390 	add.w	r3, r7, #288	; 0x120
 80018de:	f5a3 738c 	sub.w	r3, r3, #280	; 0x118
 80018e2:	4611      	mov	r1, r2
 80018e4:	6818      	ldr	r0, [r3, #0]
 80018e6:	f000 fdb5 	bl	8002454 <uart_transmit_page>
		address += PAGE_SIZE;
 80018ea:	f8d7 3118 	ldr.w	r3, [r7, #280]	; 0x118
 80018ee:	f503 7380 	add.w	r3, r3, #256	; 0x100
 80018f2:	f8c7 3118 	str.w	r3, [r7, #280]	; 0x118
	for (int i = 0; i < (num_of_pages); i++) {
 80018f6:	f8d7 3114 	ldr.w	r3, [r7, #276]	; 0x114
 80018fa:	3301      	adds	r3, #1
 80018fc:	f8c7 3114 	str.w	r3, [r7, #276]	; 0x114
 8001900:	f8d7 3114 	ldr.w	r3, [r7, #276]	; 0x114
 8001904:	f8d7 211c 	ldr.w	r2, [r7, #284]	; 0x11c
 8001908:	429a      	cmp	r2, r3
 800190a:	d8d4      	bhi.n	80018b6 <readFlashToUART+0x5e>
	}

	HAL_GPIO_WritePin(GPIOB, GPIO_PIN_7,GPIO_PIN_RESET);	// Deactivate the "write out" LED
 800190c:	2200      	movs	r2, #0
 800190e:	2180      	movs	r1, #128	; 0x80
 8001910:	4804      	ldr	r0, [pc, #16]	; (8001924 <readFlashToUART+0xcc>)
 8001912:	f001 f9e9 	bl	8002ce8 <HAL_GPIO_WritePin>
}
 8001916:	bf00      	nop
 8001918:	f507 7790 	add.w	r7, r7, #288	; 0x120
 800191c:	46bd      	mov	sp, r7
 800191e:	bd80      	pop	{r7, pc}
 8001920:	20000464 	.word	0x20000464
 8001924:	40020400 	.word	0x40020400

08001928 <readFlashManuSPI>:

void readFlashManuSPI(SPI_HandleTypeDef *hspi, UART_HandleTypeDef *huart, uint8_t flashNo) {
 8001928:	b580      	push	{r7, lr}
 800192a:	b086      	sub	sp, #24
 800192c:	af00      	add	r7, sp, #0
 800192e:	60f8      	str	r0, [r7, #12]
 8001930:	60b9      	str	r1, [r7, #8]
 8001932:	4613      	mov	r3, r2
 8001934:	71fb      	strb	r3, [r7, #7]
	uint8_t manu[2] = {0, 0};
 8001936:	2300      	movs	r3, #0
 8001938:	82bb      	strh	r3, [r7, #20]
	read_manufacturer_id(manu, hspi, flashNo);
 800193a:	79fa      	ldrb	r2, [r7, #7]
 800193c:	f107 0314 	add.w	r3, r7, #20
 8001940:	68f9      	ldr	r1, [r7, #12]
 8001942:	4618      	mov	r0, r3
 8001944:	f7ff f912 	bl	8000b6c <read_manufacturer_id>
	send_uart_hex(huart, manu[0]);
 8001948:	7d3b      	ldrb	r3, [r7, #20]
 800194a:	4619      	mov	r1, r3
 800194c:	68b8      	ldr	r0, [r7, #8]
 800194e:	f000 fda6 	bl	800249e <send_uart_hex>
	send_uart_hex(huart, manu[1]);
 8001952:	7d7b      	ldrb	r3, [r7, #21]
 8001954:	4619      	mov	r1, r3
 8001956:	68b8      	ldr	r0, [r7, #8]
 8001958:	f000 fda1 	bl	800249e <send_uart_hex>
}
 800195c:	bf00      	nop
 800195e:	3718      	adds	r7, #24
 8001960:	46bd      	mov	sp, r7
 8001962:	bd80      	pop	{r7, pc}

08001964 <writePageSPI_W>:

void writePageSPI_W(SPI_HandleTypeDef *hspi, UART_HandleTypeDef *huart, uint8_t flashNo) {
 8001964:	b580      	push	{r7, lr}
 8001966:	b0c6      	sub	sp, #280	; 0x118
 8001968:	af00      	add	r7, sp, #0
 800196a:	f507 738c 	add.w	r3, r7, #280	; 0x118
 800196e:	f5a3 7386 	sub.w	r3, r3, #268	; 0x10c
 8001972:	6018      	str	r0, [r3, #0]
 8001974:	f507 738c 	add.w	r3, r7, #280	; 0x118
 8001978:	f5a3 7388 	sub.w	r3, r3, #272	; 0x110
 800197c:	6019      	str	r1, [r3, #0]
 800197e:	f507 738c 	add.w	r3, r7, #280	; 0x118
 8001982:	f2a3 1311 	subw	r3, r3, #273	; 0x111
 8001986:	701a      	strb	r2, [r3, #0]
	uint8_t data_out[PAGE_SIZE];
	for (int i = 0; i < PAGE_SIZE; i++) {
 8001988:	2300      	movs	r3, #0
 800198a:	f8c7 3114 	str.w	r3, [r7, #276]	; 0x114
 800198e:	e00d      	b.n	80019ac <writePageSPI_W+0x48>
		data_out[i] = 0x77;		// Make all data in the page 'w'
 8001990:	f507 738c 	add.w	r3, r7, #280	; 0x118
 8001994:	f5a3 7282 	sub.w	r2, r3, #260	; 0x104
 8001998:	f8d7 3114 	ldr.w	r3, [r7, #276]	; 0x114
 800199c:	4413      	add	r3, r2
 800199e:	2277      	movs	r2, #119	; 0x77
 80019a0:	701a      	strb	r2, [r3, #0]
	for (int i = 0; i < PAGE_SIZE; i++) {
 80019a2:	f8d7 3114 	ldr.w	r3, [r7, #276]	; 0x114
 80019a6:	3301      	adds	r3, #1
 80019a8:	f8c7 3114 	str.w	r3, [r7, #276]	; 0x114
 80019ac:	f8d7 3114 	ldr.w	r3, [r7, #276]	; 0x114
 80019b0:	2bff      	cmp	r3, #255	; 0xff
 80019b2:	dded      	ble.n	8001990 <writePageSPI_W+0x2c>
	}
	write_data_spi(data_out, hspi, next_blank_page0, flashNo);
 80019b4:	4b11      	ldr	r3, [pc, #68]	; (80019fc <writePageSPI_W+0x98>)
 80019b6:	681a      	ldr	r2, [r3, #0]
 80019b8:	f507 738c 	add.w	r3, r7, #280	; 0x118
 80019bc:	f2a3 1311 	subw	r3, r3, #273	; 0x111
 80019c0:	781b      	ldrb	r3, [r3, #0]
 80019c2:	f507 718c 	add.w	r1, r7, #280	; 0x118
 80019c6:	f5a1 7186 	sub.w	r1, r1, #268	; 0x10c
 80019ca:	f107 0014 	add.w	r0, r7, #20
 80019ce:	6809      	ldr	r1, [r1, #0]
 80019d0:	f7fe ffd4 	bl	800097c <write_data_spi>
	next_blank_page0 += PAGE_SIZE;
 80019d4:	4b09      	ldr	r3, [pc, #36]	; (80019fc <writePageSPI_W+0x98>)
 80019d6:	681b      	ldr	r3, [r3, #0]
 80019d8:	f503 7380 	add.w	r3, r3, #256	; 0x100
 80019dc:	4a07      	ldr	r2, [pc, #28]	; (80019fc <writePageSPI_W+0x98>)
 80019de:	6013      	str	r3, [r2, #0]

	send_uart_string(huart, "Successful Page Written\r\n");
 80019e0:	f507 738c 	add.w	r3, r7, #280	; 0x118
 80019e4:	f5a3 7388 	sub.w	r3, r3, #272	; 0x110
 80019e8:	4905      	ldr	r1, [pc, #20]	; (8001a00 <writePageSPI_W+0x9c>)
 80019ea:	6818      	ldr	r0, [r3, #0]
 80019ec:	f000 fd43 	bl	8002476 <send_uart_string>
}
 80019f0:	bf00      	nop
 80019f2:	f507 778c 	add.w	r7, r7, #280	; 0x118
 80019f6:	46bd      	mov	sp, r7
 80019f8:	bd80      	pop	{r7, pc}
 80019fa:	bf00      	nop
 80019fc:	20000464 	.word	0x20000464
 8001a00:	0800764c 	.word	0x0800764c

08001a04 <resetSPIFlash>:

void resetSPIFlash(SPI_HandleTypeDef *hspi, UART_HandleTypeDef *huart, uint8_t flashNo) {
 8001a04:	b580      	push	{r7, lr}
 8001a06:	b084      	sub	sp, #16
 8001a08:	af00      	add	r7, sp, #0
 8001a0a:	60f8      	str	r0, [r7, #12]
 8001a0c:	60b9      	str	r1, [r7, #8]
 8001a0e:	4613      	mov	r3, r2
 8001a10:	71fb      	strb	r3, [r7, #7]
	software_reset(hspi, flashNo);
 8001a12:	79fb      	ldrb	r3, [r7, #7]
 8001a14:	4619      	mov	r1, r3
 8001a16:	68f8      	ldr	r0, [r7, #12]
 8001a18:	f7fe ff86 	bl	8000928 <software_reset>
	send_uart_string(huart, "Flash Chip Reset\r\n");
 8001a1c:	4903      	ldr	r1, [pc, #12]	; (8001a2c <resetSPIFlash+0x28>)
 8001a1e:	68b8      	ldr	r0, [r7, #8]
 8001a20:	f000 fd29 	bl	8002476 <send_uart_string>
}
 8001a24:	bf00      	nop
 8001a26:	3710      	adds	r7, #16
 8001a28:	46bd      	mov	sp, r7
 8001a2a:	bd80      	pop	{r7, pc}
 8001a2c:	08007668 	.word	0x08007668

08001a30 <checkAccelWhoAmI>:

/***************************************************************************************************************
 * I2C Accelerometer Functions
 */
void checkAccelWhoAmI(I2C_HandleTypeDef* hi2c, UART_HandleTypeDef *huart) {
 8001a30:	b580      	push	{r7, lr}
 8001a32:	b084      	sub	sp, #16
 8001a34:	af00      	add	r7, sp, #0
 8001a36:	6078      	str	r0, [r7, #4]
 8001a38:	6039      	str	r1, [r7, #0]
	uint8_t whoami = readAccel_whoami(hi2c);
 8001a3a:	6878      	ldr	r0, [r7, #4]
 8001a3c:	f7fe fd8e 	bl	800055c <readAccel_whoami>
 8001a40:	4603      	mov	r3, r0
 8001a42:	73fb      	strb	r3, [r7, #15]
	send_uart_hex(huart, whoami);
 8001a44:	7bfb      	ldrb	r3, [r7, #15]
 8001a46:	4619      	mov	r1, r3
 8001a48:	6838      	ldr	r0, [r7, #0]
 8001a4a:	f000 fd28 	bl	800249e <send_uart_hex>
}
 8001a4e:	bf00      	nop
 8001a50:	3710      	adds	r7, #16
 8001a52:	46bd      	mov	sp, r7
 8001a54:	bd80      	pop	{r7, pc}
	...

08001a58 <accelToUART>:

void accelToUART(UART_HandleTypeDef *huart) {
 8001a58:	b580      	push	{r7, lr}
 8001a5a:	b084      	sub	sp, #16
 8001a5c:	af00      	add	r7, sp, #0
 8001a5e:	6078      	str	r0, [r7, #4]
	for (int i = 0; i < 6; i++) {
 8001a60:	2300      	movs	r3, #0
 8001a62:	60fb      	str	r3, [r7, #12]
 8001a64:	e00a      	b.n	8001a7c <accelToUART+0x24>
		send_uart_hex(huart, accel_data[i]);
 8001a66:	4a09      	ldr	r2, [pc, #36]	; (8001a8c <accelToUART+0x34>)
 8001a68:	68fb      	ldr	r3, [r7, #12]
 8001a6a:	4413      	add	r3, r2
 8001a6c:	781b      	ldrb	r3, [r3, #0]
 8001a6e:	4619      	mov	r1, r3
 8001a70:	6878      	ldr	r0, [r7, #4]
 8001a72:	f000 fd14 	bl	800249e <send_uart_hex>
	for (int i = 0; i < 6; i++) {
 8001a76:	68fb      	ldr	r3, [r7, #12]
 8001a78:	3301      	adds	r3, #1
 8001a7a:	60fb      	str	r3, [r7, #12]
 8001a7c:	68fb      	ldr	r3, [r7, #12]
 8001a7e:	2b05      	cmp	r3, #5
 8001a80:	ddf1      	ble.n	8001a66 <accelToUART+0xe>
	}
}
 8001a82:	bf00      	nop
 8001a84:	bf00      	nop
 8001a86:	3710      	adds	r7, #16
 8001a88:	46bd      	mov	sp, r7
 8001a8a:	bd80      	pop	{r7, pc}
 8001a8c:	2000044c 	.word	0x2000044c

08001a90 <readTempSensorID>:

/***************************************************************************************************************
 * I2C BME280 Sensor Functions
 */
void readTempSensorID(I2C_HandleTypeDef* hi2c, UART_HandleTypeDef *huart, uint8_t tempNo) {
 8001a90:	b580      	push	{r7, lr}
 8001a92:	b084      	sub	sp, #16
 8001a94:	af00      	add	r7, sp, #0
 8001a96:	60f8      	str	r0, [r7, #12]
 8001a98:	60b9      	str	r1, [r7, #8]
 8001a9a:	4613      	mov	r3, r2
 8001a9c:	71fb      	strb	r3, [r7, #7]
	send_uart_hex(huart, readBME280_id_reg(hi2c, tempNo));
 8001a9e:	79fb      	ldrb	r3, [r7, #7]
 8001aa0:	4619      	mov	r1, r3
 8001aa2:	68f8      	ldr	r0, [r7, #12]
 8001aa4:	f7fe fe14 	bl	80006d0 <readBME280_id_reg>
 8001aa8:	4603      	mov	r3, r0
 8001aaa:	4619      	mov	r1, r3
 8001aac:	68b8      	ldr	r0, [r7, #8]
 8001aae:	f000 fcf6 	bl	800249e <send_uart_hex>
}
 8001ab2:	bf00      	nop
 8001ab4:	3710      	adds	r7, #16
 8001ab6:	46bd      	mov	sp, r7
 8001ab8:	bd80      	pop	{r7, pc}

08001aba <readTempCalibration>:

void readTempCalibration(I2C_HandleTypeDef* hi2c, UART_HandleTypeDef *huart, uint8_t tempNo) {
 8001aba:	b580      	push	{r7, lr}
 8001abc:	b090      	sub	sp, #64	; 0x40
 8001abe:	af00      	add	r7, sp, #0
 8001ac0:	60f8      	str	r0, [r7, #12]
 8001ac2:	60b9      	str	r1, [r7, #8]
 8001ac4:	4613      	mov	r3, r2
 8001ac6:	71fb      	strb	r3, [r7, #7]
	uint8_t calibration1[25];
	uint8_t calibration2[7];
	readBME280_calib(hi2c, tempNo, calibration1, calibration2);
 8001ac8:	f107 0314 	add.w	r3, r7, #20
 8001acc:	f107 021c 	add.w	r2, r7, #28
 8001ad0:	79f9      	ldrb	r1, [r7, #7]
 8001ad2:	68f8      	ldr	r0, [r7, #12]
 8001ad4:	f7fe fe18 	bl	8000708 <readBME280_calib>

	for (int i = 0; i < 25; i++) {
 8001ad8:	2300      	movs	r3, #0
 8001ada:	63fb      	str	r3, [r7, #60]	; 0x3c
 8001adc:	e00b      	b.n	8001af6 <readTempCalibration+0x3c>
	  send_uart_hex(huart, calibration1[i]);
 8001ade:	f107 021c 	add.w	r2, r7, #28
 8001ae2:	6bfb      	ldr	r3, [r7, #60]	; 0x3c
 8001ae4:	4413      	add	r3, r2
 8001ae6:	781b      	ldrb	r3, [r3, #0]
 8001ae8:	4619      	mov	r1, r3
 8001aea:	68b8      	ldr	r0, [r7, #8]
 8001aec:	f000 fcd7 	bl	800249e <send_uart_hex>
	for (int i = 0; i < 25; i++) {
 8001af0:	6bfb      	ldr	r3, [r7, #60]	; 0x3c
 8001af2:	3301      	adds	r3, #1
 8001af4:	63fb      	str	r3, [r7, #60]	; 0x3c
 8001af6:	6bfb      	ldr	r3, [r7, #60]	; 0x3c
 8001af8:	2b18      	cmp	r3, #24
 8001afa:	ddf0      	ble.n	8001ade <readTempCalibration+0x24>
	}

	for (int i = 0; i < 7; i++) {
 8001afc:	2300      	movs	r3, #0
 8001afe:	63bb      	str	r3, [r7, #56]	; 0x38
 8001b00:	e00b      	b.n	8001b1a <readTempCalibration+0x60>
	  send_uart_hex(huart, calibration2[i]);
 8001b02:	f107 0214 	add.w	r2, r7, #20
 8001b06:	6bbb      	ldr	r3, [r7, #56]	; 0x38
 8001b08:	4413      	add	r3, r2
 8001b0a:	781b      	ldrb	r3, [r3, #0]
 8001b0c:	4619      	mov	r1, r3
 8001b0e:	68b8      	ldr	r0, [r7, #8]
 8001b10:	f000 fcc5 	bl	800249e <send_uart_hex>
	for (int i = 0; i < 7; i++) {
 8001b14:	6bbb      	ldr	r3, [r7, #56]	; 0x38
 8001b16:	3301      	adds	r3, #1
 8001b18:	63bb      	str	r3, [r7, #56]	; 0x38
 8001b1a:	6bbb      	ldr	r3, [r7, #56]	; 0x38
 8001b1c:	2b06      	cmp	r3, #6
 8001b1e:	ddf0      	ble.n	8001b02 <readTempCalibration+0x48>
	}
}
 8001b20:	bf00      	nop
 8001b22:	bf00      	nop
 8001b24:	3740      	adds	r7, #64	; 0x40
 8001b26:	46bd      	mov	sp, r7
 8001b28:	bd80      	pop	{r7, pc}
	...

08001b2c <readTempSensor>:

void readTempSensor(UART_HandleTypeDef *huart, uint8_t tempNo) {
 8001b2c:	b580      	push	{r7, lr}
 8001b2e:	b084      	sub	sp, #16
 8001b30:	af00      	add	r7, sp, #0
 8001b32:	6078      	str	r0, [r7, #4]
 8001b34:	460b      	mov	r3, r1
 8001b36:	70fb      	strb	r3, [r7, #3]
	if (tempNo == 0) {
 8001b38:	78fb      	ldrb	r3, [r7, #3]
 8001b3a:	2b00      	cmp	r3, #0
 8001b3c:	d111      	bne.n	8001b62 <readTempSensor+0x36>
		for (int i = 0; i < 6; i++) {
 8001b3e:	2300      	movs	r3, #0
 8001b40:	60fb      	str	r3, [r7, #12]
 8001b42:	e00a      	b.n	8001b5a <readTempSensor+0x2e>
			send_uart_hex(huart, bme280_data_1[i]);
 8001b44:	4a13      	ldr	r2, [pc, #76]	; (8001b94 <readTempSensor+0x68>)
 8001b46:	68fb      	ldr	r3, [r7, #12]
 8001b48:	4413      	add	r3, r2
 8001b4a:	781b      	ldrb	r3, [r3, #0]
 8001b4c:	4619      	mov	r1, r3
 8001b4e:	6878      	ldr	r0, [r7, #4]
 8001b50:	f000 fca5 	bl	800249e <send_uart_hex>
		for (int i = 0; i < 6; i++) {
 8001b54:	68fb      	ldr	r3, [r7, #12]
 8001b56:	3301      	adds	r3, #1
 8001b58:	60fb      	str	r3, [r7, #12]
 8001b5a:	68fb      	ldr	r3, [r7, #12]
 8001b5c:	2b05      	cmp	r3, #5
 8001b5e:	ddf1      	ble.n	8001b44 <readTempSensor+0x18>
	} else if (tempNo == 1) {
		for (int i = 0; i < 6; i++) {
			send_uart_hex(huart, bme280_data_2[i]);
		}
	}
}
 8001b60:	e013      	b.n	8001b8a <readTempSensor+0x5e>
	} else if (tempNo == 1) {
 8001b62:	78fb      	ldrb	r3, [r7, #3]
 8001b64:	2b01      	cmp	r3, #1
 8001b66:	d110      	bne.n	8001b8a <readTempSensor+0x5e>
		for (int i = 0; i < 6; i++) {
 8001b68:	2300      	movs	r3, #0
 8001b6a:	60bb      	str	r3, [r7, #8]
 8001b6c:	e00a      	b.n	8001b84 <readTempSensor+0x58>
			send_uart_hex(huart, bme280_data_2[i]);
 8001b6e:	4a0a      	ldr	r2, [pc, #40]	; (8001b98 <readTempSensor+0x6c>)
 8001b70:	68bb      	ldr	r3, [r7, #8]
 8001b72:	4413      	add	r3, r2
 8001b74:	781b      	ldrb	r3, [r3, #0]
 8001b76:	4619      	mov	r1, r3
 8001b78:	6878      	ldr	r0, [r7, #4]
 8001b7a:	f000 fc90 	bl	800249e <send_uart_hex>
		for (int i = 0; i < 6; i++) {
 8001b7e:	68bb      	ldr	r3, [r7, #8]
 8001b80:	3301      	adds	r3, #1
 8001b82:	60bb      	str	r3, [r7, #8]
 8001b84:	68bb      	ldr	r3, [r7, #8]
 8001b86:	2b05      	cmp	r3, #5
 8001b88:	ddf1      	ble.n	8001b6e <readTempSensor+0x42>
}
 8001b8a:	bf00      	nop
 8001b8c:	3710      	adds	r7, #16
 8001b8e:	46bd      	mov	sp, r7
 8001b90:	bd80      	pop	{r7, pc}
 8001b92:	bf00      	nop
 8001b94:	20000454 	.word	0x20000454
 8001b98:	2000045c 	.word	0x2000045c

08001b9c <readAllSensors>:

/***************************************************************************************************************
 * Process All Sensors
 */
void readAllSensors(I2C_HandleTypeDef* hi2c_accel, I2C_HandleTypeDef* hi2c_temp, RTC_HandleTypeDef* hrtc) {
 8001b9c:	b590      	push	{r4, r7, lr}
 8001b9e:	b08b      	sub	sp, #44	; 0x2c
 8001ba0:	af00      	add	r7, sp, #0
 8001ba2:	60f8      	str	r0, [r7, #12]
 8001ba4:	60b9      	str	r1, [r7, #8]
 8001ba6:	607a      	str	r2, [r7, #4]
	HAL_GPIO_TogglePin(GPIOB, GPIO_PIN_14);		// Toggle LED
 8001ba8:	f44f 4180 	mov.w	r1, #16384	; 0x4000
 8001bac:	4856      	ldr	r0, [pc, #344]	; (8001d08 <readAllSensors+0x16c>)
 8001bae:	f001 f8b4 	bl	8002d1a <HAL_GPIO_TogglePin>

	// Read Accelerometer Data
	readAccelerometer(accel_data, hi2c_accel);
 8001bb2:	68f9      	ldr	r1, [r7, #12]
 8001bb4:	4855      	ldr	r0, [pc, #340]	; (8001d0c <readAllSensors+0x170>)
 8001bb6:	f7fe fcbd 	bl	8000534 <readAccelerometer>

	readTempHumPres(bme280_data_1, hi2c_temp, 0);
 8001bba:	2200      	movs	r2, #0
 8001bbc:	68b9      	ldr	r1, [r7, #8]
 8001bbe:	4854      	ldr	r0, [pc, #336]	; (8001d10 <readAllSensors+0x174>)
 8001bc0:	f7fe fd2c 	bl	800061c <readTempHumPres>
	readTempHumPres(bme280_data_2, hi2c_temp, 1);
 8001bc4:	2201      	movs	r2, #1
 8001bc6:	68b9      	ldr	r1, [r7, #8]
 8001bc8:	4852      	ldr	r0, [pc, #328]	; (8001d14 <readAllSensors+0x178>)
 8001bca:	f7fe fd27 	bl	800061c <readTempHumPres>

	uint16_t time = getTimestampMilliseconds(hrtc);
 8001bce:	6878      	ldr	r0, [r7, #4]
 8001bd0:	f000 f8c2 	bl	8001d58 <getTimestampMilliseconds>
 8001bd4:	4603      	mov	r3, r0
 8001bd6:	82fb      	strh	r3, [r7, #22]
	uint8_t array_ptr = 0;
 8001bd8:	2300      	movs	r3, #0
 8001bda:	f887 3027 	strb.w	r3, [r7, #39]	; 0x27
	// Store the time in the buffer if there is space
	if (byte_tracker < (PAGE_SIZE - READ_SIZE)) {
 8001bde:	4b4e      	ldr	r3, [pc, #312]	; (8001d18 <readAllSensors+0x17c>)
 8001be0:	881b      	ldrh	r3, [r3, #0]
 8001be2:	2be7      	cmp	r3, #231	; 0xe7
 8001be4:	f200 808c 	bhi.w	8001d00 <readAllSensors+0x164>
		data_buffer[buffer_ref][byte_tracker + 0] = (uint8_t) ((time >> 8) & 0xFF);
 8001be8:	8afb      	ldrh	r3, [r7, #22]
 8001bea:	0a1b      	lsrs	r3, r3, #8
 8001bec:	b29a      	uxth	r2, r3
 8001bee:	4b4b      	ldr	r3, [pc, #300]	; (8001d1c <readAllSensors+0x180>)
 8001bf0:	781b      	ldrb	r3, [r3, #0]
 8001bf2:	461c      	mov	r4, r3
 8001bf4:	4b48      	ldr	r3, [pc, #288]	; (8001d18 <readAllSensors+0x17c>)
 8001bf6:	881b      	ldrh	r3, [r3, #0]
 8001bf8:	4618      	mov	r0, r3
 8001bfa:	b2d1      	uxtb	r1, r2
 8001bfc:	4a48      	ldr	r2, [pc, #288]	; (8001d20 <readAllSensors+0x184>)
 8001bfe:	0223      	lsls	r3, r4, #8
 8001c00:	4413      	add	r3, r2
 8001c02:	4403      	add	r3, r0
 8001c04:	460a      	mov	r2, r1
 8001c06:	701a      	strb	r2, [r3, #0]
		data_buffer[buffer_ref][byte_tracker + 1] = (uint8_t) (time & 0xFF); // Least significant byte (LSB)
 8001c08:	4b44      	ldr	r3, [pc, #272]	; (8001d1c <readAllSensors+0x180>)
 8001c0a:	781b      	ldrb	r3, [r3, #0]
 8001c0c:	461a      	mov	r2, r3
 8001c0e:	4b42      	ldr	r3, [pc, #264]	; (8001d18 <readAllSensors+0x17c>)
 8001c10:	881b      	ldrh	r3, [r3, #0]
 8001c12:	3301      	adds	r3, #1
 8001c14:	8af9      	ldrh	r1, [r7, #22]
 8001c16:	b2c8      	uxtb	r0, r1
 8001c18:	4941      	ldr	r1, [pc, #260]	; (8001d20 <readAllSensors+0x184>)
 8001c1a:	0212      	lsls	r2, r2, #8
 8001c1c:	440a      	add	r2, r1
 8001c1e:	4413      	add	r3, r2
 8001c20:	4602      	mov	r2, r0
 8001c22:	701a      	strb	r2, [r3, #0]

		array_ptr += 2;
 8001c24:	f897 3027 	ldrb.w	r3, [r7, #39]	; 0x27
 8001c28:	3302      	adds	r3, #2
 8001c2a:	f887 3027 	strb.w	r3, [r7, #39]	; 0x27
		for (int i = 0; i < 6; i++) {
 8001c2e:	2300      	movs	r3, #0
 8001c30:	623b      	str	r3, [r7, #32]
 8001c32:	e01a      	b.n	8001c6a <readAllSensors+0xce>
		  data_buffer[buffer_ref][byte_tracker + array_ptr] = accel_data[i];
 8001c34:	4b39      	ldr	r3, [pc, #228]	; (8001d1c <readAllSensors+0x180>)
 8001c36:	781b      	ldrb	r3, [r3, #0]
 8001c38:	461c      	mov	r4, r3
 8001c3a:	4b37      	ldr	r3, [pc, #220]	; (8001d18 <readAllSensors+0x17c>)
 8001c3c:	881b      	ldrh	r3, [r3, #0]
 8001c3e:	461a      	mov	r2, r3
 8001c40:	f897 3027 	ldrb.w	r3, [r7, #39]	; 0x27
 8001c44:	4413      	add	r3, r2
 8001c46:	4931      	ldr	r1, [pc, #196]	; (8001d0c <readAllSensors+0x170>)
 8001c48:	6a3a      	ldr	r2, [r7, #32]
 8001c4a:	440a      	add	r2, r1
 8001c4c:	7810      	ldrb	r0, [r2, #0]
 8001c4e:	4934      	ldr	r1, [pc, #208]	; (8001d20 <readAllSensors+0x184>)
 8001c50:	0222      	lsls	r2, r4, #8
 8001c52:	440a      	add	r2, r1
 8001c54:	4413      	add	r3, r2
 8001c56:	4602      	mov	r2, r0
 8001c58:	701a      	strb	r2, [r3, #0]
		  array_ptr += 1;
 8001c5a:	f897 3027 	ldrb.w	r3, [r7, #39]	; 0x27
 8001c5e:	3301      	adds	r3, #1
 8001c60:	f887 3027 	strb.w	r3, [r7, #39]	; 0x27
		for (int i = 0; i < 6; i++) {
 8001c64:	6a3b      	ldr	r3, [r7, #32]
 8001c66:	3301      	adds	r3, #1
 8001c68:	623b      	str	r3, [r7, #32]
 8001c6a:	6a3b      	ldr	r3, [r7, #32]
 8001c6c:	2b05      	cmp	r3, #5
 8001c6e:	dde1      	ble.n	8001c34 <readAllSensors+0x98>
		}

		for (int i = 0; i < 8; i++) {
 8001c70:	2300      	movs	r3, #0
 8001c72:	61fb      	str	r3, [r7, #28]
 8001c74:	e01a      	b.n	8001cac <readAllSensors+0x110>
		  data_buffer[buffer_ref][byte_tracker + array_ptr] = bme280_data_1[i];
 8001c76:	4b29      	ldr	r3, [pc, #164]	; (8001d1c <readAllSensors+0x180>)
 8001c78:	781b      	ldrb	r3, [r3, #0]
 8001c7a:	461c      	mov	r4, r3
 8001c7c:	4b26      	ldr	r3, [pc, #152]	; (8001d18 <readAllSensors+0x17c>)
 8001c7e:	881b      	ldrh	r3, [r3, #0]
 8001c80:	461a      	mov	r2, r3
 8001c82:	f897 3027 	ldrb.w	r3, [r7, #39]	; 0x27
 8001c86:	4413      	add	r3, r2
 8001c88:	4921      	ldr	r1, [pc, #132]	; (8001d10 <readAllSensors+0x174>)
 8001c8a:	69fa      	ldr	r2, [r7, #28]
 8001c8c:	440a      	add	r2, r1
 8001c8e:	7810      	ldrb	r0, [r2, #0]
 8001c90:	4923      	ldr	r1, [pc, #140]	; (8001d20 <readAllSensors+0x184>)
 8001c92:	0222      	lsls	r2, r4, #8
 8001c94:	440a      	add	r2, r1
 8001c96:	4413      	add	r3, r2
 8001c98:	4602      	mov	r2, r0
 8001c9a:	701a      	strb	r2, [r3, #0]
		  array_ptr += 1;
 8001c9c:	f897 3027 	ldrb.w	r3, [r7, #39]	; 0x27
 8001ca0:	3301      	adds	r3, #1
 8001ca2:	f887 3027 	strb.w	r3, [r7, #39]	; 0x27
		for (int i = 0; i < 8; i++) {
 8001ca6:	69fb      	ldr	r3, [r7, #28]
 8001ca8:	3301      	adds	r3, #1
 8001caa:	61fb      	str	r3, [r7, #28]
 8001cac:	69fb      	ldr	r3, [r7, #28]
 8001cae:	2b07      	cmp	r3, #7
 8001cb0:	dde1      	ble.n	8001c76 <readAllSensors+0xda>
		}

		for (int i = 0; i < 8; i++) {
 8001cb2:	2300      	movs	r3, #0
 8001cb4:	61bb      	str	r3, [r7, #24]
 8001cb6:	e01a      	b.n	8001cee <readAllSensors+0x152>
		  data_buffer[buffer_ref][byte_tracker + array_ptr] = bme280_data_2[i];
 8001cb8:	4b18      	ldr	r3, [pc, #96]	; (8001d1c <readAllSensors+0x180>)
 8001cba:	781b      	ldrb	r3, [r3, #0]
 8001cbc:	461c      	mov	r4, r3
 8001cbe:	4b16      	ldr	r3, [pc, #88]	; (8001d18 <readAllSensors+0x17c>)
 8001cc0:	881b      	ldrh	r3, [r3, #0]
 8001cc2:	461a      	mov	r2, r3
 8001cc4:	f897 3027 	ldrb.w	r3, [r7, #39]	; 0x27
 8001cc8:	4413      	add	r3, r2
 8001cca:	4912      	ldr	r1, [pc, #72]	; (8001d14 <readAllSensors+0x178>)
 8001ccc:	69ba      	ldr	r2, [r7, #24]
 8001cce:	440a      	add	r2, r1
 8001cd0:	7810      	ldrb	r0, [r2, #0]
 8001cd2:	4913      	ldr	r1, [pc, #76]	; (8001d20 <readAllSensors+0x184>)
 8001cd4:	0222      	lsls	r2, r4, #8
 8001cd6:	440a      	add	r2, r1
 8001cd8:	4413      	add	r3, r2
 8001cda:	4602      	mov	r2, r0
 8001cdc:	701a      	strb	r2, [r3, #0]
		  array_ptr += 1;
 8001cde:	f897 3027 	ldrb.w	r3, [r7, #39]	; 0x27
 8001ce2:	3301      	adds	r3, #1
 8001ce4:	f887 3027 	strb.w	r3, [r7, #39]	; 0x27
		for (int i = 0; i < 8; i++) {
 8001ce8:	69bb      	ldr	r3, [r7, #24]
 8001cea:	3301      	adds	r3, #1
 8001cec:	61bb      	str	r3, [r7, #24]
 8001cee:	69bb      	ldr	r3, [r7, #24]
 8001cf0:	2b07      	cmp	r3, #7
 8001cf2:	dde1      	ble.n	8001cb8 <readAllSensors+0x11c>
		}

		byte_tracker = byte_tracker + 24;
 8001cf4:	4b08      	ldr	r3, [pc, #32]	; (8001d18 <readAllSensors+0x17c>)
 8001cf6:	881b      	ldrh	r3, [r3, #0]
 8001cf8:	3318      	adds	r3, #24
 8001cfa:	b29a      	uxth	r2, r3
 8001cfc:	4b06      	ldr	r3, [pc, #24]	; (8001d18 <readAllSensors+0x17c>)
 8001cfe:	801a      	strh	r2, [r3, #0]
	}
}
 8001d00:	bf00      	nop
 8001d02:	372c      	adds	r7, #44	; 0x2c
 8001d04:	46bd      	mov	sp, r7
 8001d06:	bd90      	pop	{r4, r7, pc}
 8001d08:	40020400 	.word	0x40020400
 8001d0c:	2000044c 	.word	0x2000044c
 8001d10:	20000454 	.word	0x20000454
 8001d14:	2000045c 	.word	0x2000045c
 8001d18:	2000046c 	.word	0x2000046c
 8001d1c:	20000462 	.word	0x20000462
 8001d20:	2000024c 	.word	0x2000024c

08001d24 <initialise_rtc_default>:
    .Month = RTC_MONTH_JANUARY, // Set default month (e.g., January)
    .Date = 1, // Set default day of the month
    .Year = 24 // Set default year (e.g., 2021)
};

void initialise_rtc_default(RTC_HandleTypeDef* hrtc) {
 8001d24:	b580      	push	{r7, lr}
 8001d26:	b082      	sub	sp, #8
 8001d28:	af00      	add	r7, sp, #0
 8001d2a:	6078      	str	r0, [r7, #4]
	// Reset RTC on boot
	HAL_RTC_MspInit(hrtc); // Initialize RTC hardware
 8001d2c:	6878      	ldr	r0, [r7, #4]
 8001d2e:	f000 f9e1 	bl	80020f4 <HAL_RTC_MspInit>
	HAL_RTC_SetTime(hrtc, &defaultTime, RTC_FORMAT_BIN); // Set default time
 8001d32:	2200      	movs	r2, #0
 8001d34:	4906      	ldr	r1, [pc, #24]	; (8001d50 <initialise_rtc_default+0x2c>)
 8001d36:	6878      	ldr	r0, [r7, #4]
 8001d38:	f003 f849 	bl	8004dce <HAL_RTC_SetTime>
	HAL_RTC_SetDate(hrtc, &defaultDate, RTC_FORMAT_BIN); // Set default date
 8001d3c:	2200      	movs	r2, #0
 8001d3e:	4905      	ldr	r1, [pc, #20]	; (8001d54 <initialise_rtc_default+0x30>)
 8001d40:	6878      	ldr	r0, [r7, #4]
 8001d42:	f003 f93c 	bl	8004fbe <HAL_RTC_SetDate>
}
 8001d46:	bf00      	nop
 8001d48:	3708      	adds	r7, #8
 8001d4a:	46bd      	mov	sp, r7
 8001d4c:	bd80      	pop	{r7, pc}
 8001d4e:	bf00      	nop
 8001d50:	20000470 	.word	0x20000470
 8001d54:	20000014 	.word	0x20000014

08001d58 <getTimestampMilliseconds>:

uint32_t getTimestampMilliseconds(RTC_HandleTypeDef* hrtc) {
 8001d58:	b580      	push	{r7, lr}
 8001d5a:	b08c      	sub	sp, #48	; 0x30
 8001d5c:	af00      	add	r7, sp, #0
 8001d5e:	6078      	str	r0, [r7, #4]
    RTC_TimeTypeDef rtcTime;
    RTC_DateTypeDef rtcDate;

    // Read RTC time and date
    HAL_RTC_GetTime(hrtc, &rtcTime, RTC_FORMAT_BIN);
 8001d60:	f107 0310 	add.w	r3, r7, #16
 8001d64:	2200      	movs	r2, #0
 8001d66:	4619      	mov	r1, r3
 8001d68:	6878      	ldr	r0, [r7, #4]
 8001d6a:	f003 f8ca 	bl	8004f02 <HAL_RTC_GetTime>
    HAL_RTC_GetDate(hrtc, &rtcDate, RTC_FORMAT_BIN);
 8001d6e:	f107 030c 	add.w	r3, r7, #12
 8001d72:	2200      	movs	r2, #0
 8001d74:	4619      	mov	r1, r3
 8001d76:	6878      	ldr	r0, [r7, #4]
 8001d78:	f003 f9a5 	bl	80050c6 <HAL_RTC_GetDate>

    // Calculate timestamp in milliseconds
    uint32_t timestampSeconds = rtcTime.Seconds + rtcTime.Minutes * 60 + rtcTime.Hours * 3600;
 8001d7c:	7cbb      	ldrb	r3, [r7, #18]
 8001d7e:	4619      	mov	r1, r3
 8001d80:	7c7b      	ldrb	r3, [r7, #17]
 8001d82:	461a      	mov	r2, r3
 8001d84:	4613      	mov	r3, r2
 8001d86:	011b      	lsls	r3, r3, #4
 8001d88:	1a9b      	subs	r3, r3, r2
 8001d8a:	009b      	lsls	r3, r3, #2
 8001d8c:	18ca      	adds	r2, r1, r3
 8001d8e:	7c3b      	ldrb	r3, [r7, #16]
 8001d90:	4619      	mov	r1, r3
 8001d92:	f44f 6361 	mov.w	r3, #3600	; 0xe10
 8001d96:	fb01 f303 	mul.w	r3, r1, r3
 8001d9a:	4413      	add	r3, r2
 8001d9c:	62fb      	str	r3, [r7, #44]	; 0x2c
    uint32_t timestampMilliseconds = timestampSeconds * 1000;
 8001d9e:	6afb      	ldr	r3, [r7, #44]	; 0x2c
 8001da0:	f44f 727a 	mov.w	r2, #1000	; 0x3e8
 8001da4:	fb02 f303 	mul.w	r3, r2, r3
 8001da8:	62bb      	str	r3, [r7, #40]	; 0x28
    float subsecondsFraction = (float)(rtcTime.SecondFraction - rtcTime.SubSeconds) / (rtcTime.SecondFraction + 1);
 8001daa:	69ba      	ldr	r2, [r7, #24]
 8001dac:	697b      	ldr	r3, [r7, #20]
 8001dae:	1ad3      	subs	r3, r2, r3
 8001db0:	ee07 3a90 	vmov	s15, r3
 8001db4:	eef8 6a67 	vcvt.f32.u32	s13, s15
 8001db8:	69bb      	ldr	r3, [r7, #24]
 8001dba:	3301      	adds	r3, #1
 8001dbc:	ee07 3a90 	vmov	s15, r3
 8001dc0:	eeb8 7a67 	vcvt.f32.u32	s14, s15
 8001dc4:	eec6 7a87 	vdiv.f32	s15, s13, s14
 8001dc8:	edc7 7a09 	vstr	s15, [r7, #36]	; 0x24
    timestampMilliseconds += subsecondsFraction * 1000;
 8001dcc:	6abb      	ldr	r3, [r7, #40]	; 0x28
 8001dce:	ee07 3a90 	vmov	s15, r3
 8001dd2:	eeb8 7a67 	vcvt.f32.u32	s14, s15
 8001dd6:	edd7 7a09 	vldr	s15, [r7, #36]	; 0x24
 8001dda:	eddf 6a08 	vldr	s13, [pc, #32]	; 8001dfc <getTimestampMilliseconds+0xa4>
 8001dde:	ee67 7aa6 	vmul.f32	s15, s15, s13
 8001de2:	ee77 7a27 	vadd.f32	s15, s14, s15
 8001de6:	eefc 7ae7 	vcvt.u32.f32	s15, s15
 8001dea:	ee17 3a90 	vmov	r3, s15
 8001dee:	62bb      	str	r3, [r7, #40]	; 0x28

    return timestampMilliseconds;
 8001df0:	6abb      	ldr	r3, [r7, #40]	; 0x28
}
 8001df2:	4618      	mov	r0, r3
 8001df4:	3730      	adds	r7, #48	; 0x30
 8001df6:	46bd      	mov	sp, r7
 8001df8:	bd80      	pop	{r7, pc}
 8001dfa:	bf00      	nop
 8001dfc:	447a0000 	.word	0x447a0000

08001e00 <spi_sendOp_readByte>:
#ifndef SRC_SPI_DRIVER_C_
#define SRC_SPI_DRIVER_C_

#include "spi_driver.h"

HAL_StatusTypeDef spi_sendOp_readByte(uint8_t* opcode, SPI_HandleTypeDef *hspi, uint8_t* data_ptr, GPIO_TypeDef* GPIOx, uint16_t GPIO_Pin_CS) {
 8001e00:	b580      	push	{r7, lr}
 8001e02:	b086      	sub	sp, #24
 8001e04:	af00      	add	r7, sp, #0
 8001e06:	60f8      	str	r0, [r7, #12]
 8001e08:	60b9      	str	r1, [r7, #8]
 8001e0a:	607a      	str	r2, [r7, #4]
 8001e0c:	603b      	str	r3, [r7, #0]
	HAL_StatusTypeDef status;
	HAL_GPIO_WritePin(GPIOx, GPIO_Pin_CS, GPIO_PIN_RESET);	// Set the chip select pin to low to initiate SPI comms
 8001e0e:	8c3b      	ldrh	r3, [r7, #32]
 8001e10:	2200      	movs	r2, #0
 8001e12:	4619      	mov	r1, r3
 8001e14:	6838      	ldr	r0, [r7, #0]
 8001e16:	f000 ff67 	bl	8002ce8 <HAL_GPIO_WritePin>
	HAL_SPI_Transmit(hspi, opcode, 1, TIMEOUT_SML);			// Write the write enable value to the Flash to initial reading
 8001e1a:	2302      	movs	r3, #2
 8001e1c:	2201      	movs	r2, #1
 8001e1e:	68f9      	ldr	r1, [r7, #12]
 8001e20:	68b8      	ldr	r0, [r7, #8]
 8001e22:	f003 fae6 	bl	80053f2 <HAL_SPI_Transmit>
	status = HAL_SPI_Receive(hspi, data_ptr, 1, TIMEOUT_SML);
 8001e26:	2302      	movs	r3, #2
 8001e28:	2201      	movs	r2, #1
 8001e2a:	6879      	ldr	r1, [r7, #4]
 8001e2c:	68b8      	ldr	r0, [r7, #8]
 8001e2e:	f003 fc23 	bl	8005678 <HAL_SPI_Receive>
 8001e32:	4603      	mov	r3, r0
 8001e34:	75fb      	strb	r3, [r7, #23]
	HAL_GPIO_WritePin(GPIOx, GPIO_Pin_CS, GPIO_PIN_SET);
 8001e36:	8c3b      	ldrh	r3, [r7, #32]
 8001e38:	2201      	movs	r2, #1
 8001e3a:	4619      	mov	r1, r3
 8001e3c:	6838      	ldr	r0, [r7, #0]
 8001e3e:	f000 ff53 	bl	8002ce8 <HAL_GPIO_WritePin>
	return status;
 8001e42:	7dfb      	ldrb	r3, [r7, #23]
}
 8001e44:	4618      	mov	r0, r3
 8001e46:	3718      	adds	r7, #24
 8001e48:	46bd      	mov	sp, r7
 8001e4a:	bd80      	pop	{r7, pc}

08001e4c <perform_operation>:

HAL_StatusTypeDef perform_operation(uint8_t* opcode, SPI_HandleTypeDef *hspi, GPIO_TypeDef* GPIOx, uint16_t GPIO_Pin_CS) {
 8001e4c:	b580      	push	{r7, lr}
 8001e4e:	b086      	sub	sp, #24
 8001e50:	af00      	add	r7, sp, #0
 8001e52:	60f8      	str	r0, [r7, #12]
 8001e54:	60b9      	str	r1, [r7, #8]
 8001e56:	607a      	str	r2, [r7, #4]
 8001e58:	807b      	strh	r3, [r7, #2]
	HAL_StatusTypeDef status;
	HAL_GPIO_WritePin(GPIOx, GPIO_Pin_CS, GPIO_PIN_RESET);				// Set the chip select pin to low to initiate SPI comms
 8001e5a:	887b      	ldrh	r3, [r7, #2]
 8001e5c:	2200      	movs	r2, #0
 8001e5e:	4619      	mov	r1, r3
 8001e60:	6878      	ldr	r0, [r7, #4]
 8001e62:	f000 ff41 	bl	8002ce8 <HAL_GPIO_WritePin>
	status = HAL_SPI_Transmit(hspi, opcode, 1, TIMEOUT_SML);				// Write the opcode value
 8001e66:	2302      	movs	r3, #2
 8001e68:	2201      	movs	r2, #1
 8001e6a:	68f9      	ldr	r1, [r7, #12]
 8001e6c:	68b8      	ldr	r0, [r7, #8]
 8001e6e:	f003 fac0 	bl	80053f2 <HAL_SPI_Transmit>
 8001e72:	4603      	mov	r3, r0
 8001e74:	75fb      	strb	r3, [r7, #23]
	HAL_GPIO_WritePin(GPIOx, GPIO_Pin_CS, GPIO_PIN_SET);
 8001e76:	887b      	ldrh	r3, [r7, #2]
 8001e78:	2201      	movs	r2, #1
 8001e7a:	4619      	mov	r1, r3
 8001e7c:	6878      	ldr	r0, [r7, #4]
 8001e7e:	f000 ff33 	bl	8002ce8 <HAL_GPIO_WritePin>

	return status;
 8001e82:	7dfb      	ldrb	r3, [r7, #23]
}
 8001e84:	4618      	mov	r0, r3
 8001e86:	3718      	adds	r7, #24
 8001e88:	46bd      	mov	sp, r7
 8001e8a:	bd80      	pop	{r7, pc}

08001e8c <spi_read_data>:


HAL_StatusTypeDef spi_read_data(uint8_t* opcode, uint16_t data_size, uint8_t data_read[data_size], SPI_HandleTypeDef *hspi, uint32_t addr, GPIO_TypeDef* GPIOx, uint16_t GPIO_Pin_CS) {
 8001e8c:	b580      	push	{r7, lr}
 8001e8e:	b086      	sub	sp, #24
 8001e90:	af00      	add	r7, sp, #0
 8001e92:	60f8      	str	r0, [r7, #12]
 8001e94:	607a      	str	r2, [r7, #4]
 8001e96:	603b      	str	r3, [r7, #0]
 8001e98:	460b      	mov	r3, r1
 8001e9a:	817b      	strh	r3, [r7, #10]
	HAL_StatusTypeDef status;

	// Split the 24 bit address into three 8 bit ints
	uint8_t addrL = addr & 0xFF;  // Get the low byte
 8001e9c:	6a3b      	ldr	r3, [r7, #32]
 8001e9e:	b2db      	uxtb	r3, r3
 8001ea0:	75bb      	strb	r3, [r7, #22]
	uint8_t addrM = (addr >> 8) & 0xFF;  // Get the middle byte
 8001ea2:	6a3b      	ldr	r3, [r7, #32]
 8001ea4:	0a1b      	lsrs	r3, r3, #8
 8001ea6:	b2db      	uxtb	r3, r3
 8001ea8:	757b      	strb	r3, [r7, #21]
	uint8_t addrH = (addr >> 16) & 0xFF;  // Get the high byte
 8001eaa:	6a3b      	ldr	r3, [r7, #32]
 8001eac:	0c1b      	lsrs	r3, r3, #16
 8001eae:	b2db      	uxtb	r3, r3
 8001eb0:	753b      	strb	r3, [r7, #20]

	// Read the data denoted by the given address
	HAL_GPIO_WritePin(GPIOx, GPIO_Pin_CS, GPIO_PIN_RESET);
 8001eb2:	8d3b      	ldrh	r3, [r7, #40]	; 0x28
 8001eb4:	2200      	movs	r2, #0
 8001eb6:	4619      	mov	r1, r3
 8001eb8:	6a78      	ldr	r0, [r7, #36]	; 0x24
 8001eba:	f000 ff15 	bl	8002ce8 <HAL_GPIO_WritePin>
	HAL_SPI_Transmit(hspi, opcode, 1, TIMEOUT_SML);	// Write the read enable value
 8001ebe:	2302      	movs	r3, #2
 8001ec0:	2201      	movs	r2, #1
 8001ec2:	68f9      	ldr	r1, [r7, #12]
 8001ec4:	6838      	ldr	r0, [r7, #0]
 8001ec6:	f003 fa94 	bl	80053f2 <HAL_SPI_Transmit>

	// Transmit the 24 bit address of the page to initialise read from
	HAL_SPI_Transmit(hspi, &addrH, 1, TIMEOUT_SML);
 8001eca:	f107 0114 	add.w	r1, r7, #20
 8001ece:	2302      	movs	r3, #2
 8001ed0:	2201      	movs	r2, #1
 8001ed2:	6838      	ldr	r0, [r7, #0]
 8001ed4:	f003 fa8d 	bl	80053f2 <HAL_SPI_Transmit>
	HAL_SPI_Transmit(hspi, &addrM, 1, TIMEOUT_SML);
 8001ed8:	f107 0115 	add.w	r1, r7, #21
 8001edc:	2302      	movs	r3, #2
 8001ede:	2201      	movs	r2, #1
 8001ee0:	6838      	ldr	r0, [r7, #0]
 8001ee2:	f003 fa86 	bl	80053f2 <HAL_SPI_Transmit>
	HAL_SPI_Transmit(hspi, &addrL, 1, TIMEOUT_SML);
 8001ee6:	f107 0116 	add.w	r1, r7, #22
 8001eea:	2302      	movs	r3, #2
 8001eec:	2201      	movs	r2, #1
 8001eee:	6838      	ldr	r0, [r7, #0]
 8001ef0:	f003 fa7f 	bl	80053f2 <HAL_SPI_Transmit>

	status = HAL_SPI_Receive(hspi, data_read, data_size, TIMEOUT_LRG);
 8001ef4:	897a      	ldrh	r2, [r7, #10]
 8001ef6:	2364      	movs	r3, #100	; 0x64
 8001ef8:	6879      	ldr	r1, [r7, #4]
 8001efa:	6838      	ldr	r0, [r7, #0]
 8001efc:	f003 fbbc 	bl	8005678 <HAL_SPI_Receive>
 8001f00:	4603      	mov	r3, r0
 8001f02:	75fb      	strb	r3, [r7, #23]
	HAL_GPIO_WritePin(GPIOx, GPIO_Pin_CS, GPIO_PIN_SET);
 8001f04:	8d3b      	ldrh	r3, [r7, #40]	; 0x28
 8001f06:	2201      	movs	r2, #1
 8001f08:	4619      	mov	r1, r3
 8001f0a:	6a78      	ldr	r0, [r7, #36]	; 0x24
 8001f0c:	f000 feec 	bl	8002ce8 <HAL_GPIO_WritePin>

	return status;
 8001f10:	7dfb      	ldrb	r3, [r7, #23]
}
 8001f12:	4618      	mov	r0, r3
 8001f14:	3718      	adds	r7, #24
 8001f16:	46bd      	mov	sp, r7
 8001f18:	bd80      	pop	{r7, pc}

08001f1a <spi_write_data>:

HAL_StatusTypeDef spi_write_data(uint8_t* opcode, uint16_t data_size, uint8_t data_write[data_size], SPI_HandleTypeDef *hspi, uint32_t addr, GPIO_TypeDef* GPIOx, uint16_t GPIO_Pin_CS) {
 8001f1a:	b580      	push	{r7, lr}
 8001f1c:	b086      	sub	sp, #24
 8001f1e:	af00      	add	r7, sp, #0
 8001f20:	60f8      	str	r0, [r7, #12]
 8001f22:	607a      	str	r2, [r7, #4]
 8001f24:	603b      	str	r3, [r7, #0]
 8001f26:	460b      	mov	r3, r1
 8001f28:	817b      	strh	r3, [r7, #10]
	HAL_StatusTypeDef status;

	// Split the 24 bit address into three 8 bit ints
	uint8_t addrL = addr & 0xFF;  			// Get the low byte
 8001f2a:	6a3b      	ldr	r3, [r7, #32]
 8001f2c:	b2db      	uxtb	r3, r3
 8001f2e:	75bb      	strb	r3, [r7, #22]
	uint8_t addrM = (addr >> 8) & 0xFF;  	// Get the middle byte
 8001f30:	6a3b      	ldr	r3, [r7, #32]
 8001f32:	0a1b      	lsrs	r3, r3, #8
 8001f34:	b2db      	uxtb	r3, r3
 8001f36:	757b      	strb	r3, [r7, #21]
	uint8_t addrH = (addr >> 16) & 0xFF;  	// Get the high byte
 8001f38:	6a3b      	ldr	r3, [r7, #32]
 8001f3a:	0c1b      	lsrs	r3, r3, #16
 8001f3c:	b2db      	uxtb	r3, r3
 8001f3e:	753b      	strb	r3, [r7, #20]

	// Send the PageWrite command
	HAL_GPIO_WritePin(GPIOx, GPIO_Pin_CS, GPIO_PIN_RESET);	// Set the chip select pin to low to initiate SPI comms
 8001f40:	8d3b      	ldrh	r3, [r7, #40]	; 0x28
 8001f42:	2200      	movs	r2, #0
 8001f44:	4619      	mov	r1, r3
 8001f46:	6a78      	ldr	r0, [r7, #36]	; 0x24
 8001f48:	f000 fece 	bl	8002ce8 <HAL_GPIO_WritePin>
	HAL_SPI_Transmit(hspi, opcode, 1, TIMEOUT_SML);					// Write the write enable value to the Flash to initial writing
 8001f4c:	2302      	movs	r3, #2
 8001f4e:	2201      	movs	r2, #1
 8001f50:	68f9      	ldr	r1, [r7, #12]
 8001f52:	6838      	ldr	r0, [r7, #0]
 8001f54:	f003 fa4d 	bl	80053f2 <HAL_SPI_Transmit>

	// Transmit the 24 bit address of the page to write to
	HAL_SPI_Transmit(hspi, &addrH, 1, TIMEOUT_SML);
 8001f58:	f107 0114 	add.w	r1, r7, #20
 8001f5c:	2302      	movs	r3, #2
 8001f5e:	2201      	movs	r2, #1
 8001f60:	6838      	ldr	r0, [r7, #0]
 8001f62:	f003 fa46 	bl	80053f2 <HAL_SPI_Transmit>
	HAL_SPI_Transmit(hspi, &addrM, 1, TIMEOUT_SML);
 8001f66:	f107 0115 	add.w	r1, r7, #21
 8001f6a:	2302      	movs	r3, #2
 8001f6c:	2201      	movs	r2, #1
 8001f6e:	6838      	ldr	r0, [r7, #0]
 8001f70:	f003 fa3f 	bl	80053f2 <HAL_SPI_Transmit>
	HAL_SPI_Transmit(hspi, &addrL, 1, TIMEOUT_SML);
 8001f74:	f107 0116 	add.w	r1, r7, #22
 8001f78:	2302      	movs	r3, #2
 8001f7a:	2201      	movs	r2, #1
 8001f7c:	6838      	ldr	r0, [r7, #0]
 8001f7e:	f003 fa38 	bl	80053f2 <HAL_SPI_Transmit>

	// Transmit the data to be written
	status = HAL_SPI_Transmit(hspi, data_write, data_size, TIMEOUT_LRG);
 8001f82:	897a      	ldrh	r2, [r7, #10]
 8001f84:	2364      	movs	r3, #100	; 0x64
 8001f86:	6879      	ldr	r1, [r7, #4]
 8001f88:	6838      	ldr	r0, [r7, #0]
 8001f8a:	f003 fa32 	bl	80053f2 <HAL_SPI_Transmit>
 8001f8e:	4603      	mov	r3, r0
 8001f90:	75fb      	strb	r3, [r7, #23]
	HAL_GPIO_WritePin(GPIOx, GPIO_Pin_CS, GPIO_PIN_SET);	// Set the chip select pin to high to remove the Flash from the SPI bus
 8001f92:	8d3b      	ldrh	r3, [r7, #40]	; 0x28
 8001f94:	2201      	movs	r2, #1
 8001f96:	4619      	mov	r1, r3
 8001f98:	6a78      	ldr	r0, [r7, #36]	; 0x24
 8001f9a:	f000 fea5 	bl	8002ce8 <HAL_GPIO_WritePin>

	return status;
 8001f9e:	7dfb      	ldrb	r3, [r7, #23]
}
 8001fa0:	4618      	mov	r0, r3
 8001fa2:	3718      	adds	r7, #24
 8001fa4:	46bd      	mov	sp, r7
 8001fa6:	bd80      	pop	{r7, pc}

08001fa8 <HAL_MspInit>:
/* USER CODE END 0 */
/**
  * Initializes the Global MSP.
  */
void HAL_MspInit(void)
{
 8001fa8:	b480      	push	{r7}
 8001faa:	b083      	sub	sp, #12
 8001fac:	af00      	add	r7, sp, #0
  /* USER CODE BEGIN MspInit 0 */

  /* USER CODE END MspInit 0 */

  __HAL_RCC_SYSCFG_CLK_ENABLE();
 8001fae:	2300      	movs	r3, #0
 8001fb0:	607b      	str	r3, [r7, #4]
 8001fb2:	4b10      	ldr	r3, [pc, #64]	; (8001ff4 <HAL_MspInit+0x4c>)
 8001fb4:	6c5b      	ldr	r3, [r3, #68]	; 0x44
 8001fb6:	4a0f      	ldr	r2, [pc, #60]	; (8001ff4 <HAL_MspInit+0x4c>)
 8001fb8:	f443 4380 	orr.w	r3, r3, #16384	; 0x4000
 8001fbc:	6453      	str	r3, [r2, #68]	; 0x44
 8001fbe:	4b0d      	ldr	r3, [pc, #52]	; (8001ff4 <HAL_MspInit+0x4c>)
 8001fc0:	6c5b      	ldr	r3, [r3, #68]	; 0x44
 8001fc2:	f403 4380 	and.w	r3, r3, #16384	; 0x4000
 8001fc6:	607b      	str	r3, [r7, #4]
 8001fc8:	687b      	ldr	r3, [r7, #4]
  __HAL_RCC_PWR_CLK_ENABLE();
 8001fca:	2300      	movs	r3, #0
 8001fcc:	603b      	str	r3, [r7, #0]
 8001fce:	4b09      	ldr	r3, [pc, #36]	; (8001ff4 <HAL_MspInit+0x4c>)
 8001fd0:	6c1b      	ldr	r3, [r3, #64]	; 0x40
 8001fd2:	4a08      	ldr	r2, [pc, #32]	; (8001ff4 <HAL_MspInit+0x4c>)
 8001fd4:	f043 5380 	orr.w	r3, r3, #268435456	; 0x10000000
 8001fd8:	6413      	str	r3, [r2, #64]	; 0x40
 8001fda:	4b06      	ldr	r3, [pc, #24]	; (8001ff4 <HAL_MspInit+0x4c>)
 8001fdc:	6c1b      	ldr	r3, [r3, #64]	; 0x40
 8001fde:	f003 5380 	and.w	r3, r3, #268435456	; 0x10000000
 8001fe2:	603b      	str	r3, [r7, #0]
 8001fe4:	683b      	ldr	r3, [r7, #0]
  /* System interrupt init*/

  /* USER CODE BEGIN MspInit 1 */

  /* USER CODE END MspInit 1 */
}
 8001fe6:	bf00      	nop
 8001fe8:	370c      	adds	r7, #12
 8001fea:	46bd      	mov	sp, r7
 8001fec:	f85d 7b04 	ldr.w	r7, [sp], #4
 8001ff0:	4770      	bx	lr
 8001ff2:	bf00      	nop
 8001ff4:	40023800 	.word	0x40023800

08001ff8 <HAL_I2C_MspInit>:
* This function configures the hardware resources used in this example
* @param hi2c: I2C handle pointer
* @retval None
*/
void HAL_I2C_MspInit(I2C_HandleTypeDef* hi2c)
{
 8001ff8:	b580      	push	{r7, lr}
 8001ffa:	b08c      	sub	sp, #48	; 0x30
 8001ffc:	af00      	add	r7, sp, #0
 8001ffe:	6078      	str	r0, [r7, #4]
  GPIO_InitTypeDef GPIO_InitStruct = {0};
 8002000:	f107 031c 	add.w	r3, r7, #28
 8002004:	2200      	movs	r2, #0
 8002006:	601a      	str	r2, [r3, #0]
 8002008:	605a      	str	r2, [r3, #4]
 800200a:	609a      	str	r2, [r3, #8]
 800200c:	60da      	str	r2, [r3, #12]
 800200e:	611a      	str	r2, [r3, #16]
  if(hi2c->Instance==I2C1)
 8002010:	687b      	ldr	r3, [r7, #4]
 8002012:	681b      	ldr	r3, [r3, #0]
 8002014:	4a33      	ldr	r2, [pc, #204]	; (80020e4 <HAL_I2C_MspInit+0xec>)
 8002016:	4293      	cmp	r3, r2
 8002018:	d12d      	bne.n	8002076 <HAL_I2C_MspInit+0x7e>
  {
  /* USER CODE BEGIN I2C1_MspInit 0 */

  /* USER CODE END I2C1_MspInit 0 */

    __HAL_RCC_GPIOB_CLK_ENABLE();
 800201a:	2300      	movs	r3, #0
 800201c:	61bb      	str	r3, [r7, #24]
 800201e:	4b32      	ldr	r3, [pc, #200]	; (80020e8 <HAL_I2C_MspInit+0xf0>)
 8002020:	6b1b      	ldr	r3, [r3, #48]	; 0x30
 8002022:	4a31      	ldr	r2, [pc, #196]	; (80020e8 <HAL_I2C_MspInit+0xf0>)
 8002024:	f043 0302 	orr.w	r3, r3, #2
 8002028:	6313      	str	r3, [r2, #48]	; 0x30
 800202a:	4b2f      	ldr	r3, [pc, #188]	; (80020e8 <HAL_I2C_MspInit+0xf0>)
 800202c:	6b1b      	ldr	r3, [r3, #48]	; 0x30
 800202e:	f003 0302 	and.w	r3, r3, #2
 8002032:	61bb      	str	r3, [r7, #24]
 8002034:	69bb      	ldr	r3, [r7, #24]
    /**I2C1 GPIO Configuration
    PB8     ------> I2C1_SCL
    PB9     ------> I2C1_SDA
    */
    GPIO_InitStruct.Pin = GPIO_PIN_8|GPIO_PIN_9;
 8002036:	f44f 7340 	mov.w	r3, #768	; 0x300
 800203a:	61fb      	str	r3, [r7, #28]
    GPIO_InitStruct.Mode = GPIO_MODE_AF_OD;
 800203c:	2312      	movs	r3, #18
 800203e:	623b      	str	r3, [r7, #32]
    GPIO_InitStruct.Pull = GPIO_NOPULL;
 8002040:	2300      	movs	r3, #0
 8002042:	627b      	str	r3, [r7, #36]	; 0x24
    GPIO_InitStruct.Speed = GPIO_SPEED_FREQ_VERY_HIGH;
 8002044:	2303      	movs	r3, #3
 8002046:	62bb      	str	r3, [r7, #40]	; 0x28
    GPIO_InitStruct.Alternate = GPIO_AF4_I2C1;
 8002048:	2304      	movs	r3, #4
 800204a:	62fb      	str	r3, [r7, #44]	; 0x2c
    HAL_GPIO_Init(GPIOB, &GPIO_InitStruct);
 800204c:	f107 031c 	add.w	r3, r7, #28
 8002050:	4619      	mov	r1, r3
 8002052:	4826      	ldr	r0, [pc, #152]	; (80020ec <HAL_I2C_MspInit+0xf4>)
 8002054:	f000 fc9c 	bl	8002990 <HAL_GPIO_Init>

    /* Peripheral clock enable */
    __HAL_RCC_I2C1_CLK_ENABLE();
 8002058:	2300      	movs	r3, #0
 800205a:	617b      	str	r3, [r7, #20]
 800205c:	4b22      	ldr	r3, [pc, #136]	; (80020e8 <HAL_I2C_MspInit+0xf0>)
 800205e:	6c1b      	ldr	r3, [r3, #64]	; 0x40
 8002060:	4a21      	ldr	r2, [pc, #132]	; (80020e8 <HAL_I2C_MspInit+0xf0>)
 8002062:	f443 1300 	orr.w	r3, r3, #2097152	; 0x200000
 8002066:	6413      	str	r3, [r2, #64]	; 0x40
 8002068:	4b1f      	ldr	r3, [pc, #124]	; (80020e8 <HAL_I2C_MspInit+0xf0>)
 800206a:	6c1b      	ldr	r3, [r3, #64]	; 0x40
 800206c:	f403 1300 	and.w	r3, r3, #2097152	; 0x200000
 8002070:	617b      	str	r3, [r7, #20]
 8002072:	697b      	ldr	r3, [r7, #20]
  /* USER CODE BEGIN I2C2_MspInit 1 */

  /* USER CODE END I2C2_MspInit 1 */
  }

}
 8002074:	e031      	b.n	80020da <HAL_I2C_MspInit+0xe2>
  else if(hi2c->Instance==I2C2)
 8002076:	687b      	ldr	r3, [r7, #4]
 8002078:	681b      	ldr	r3, [r3, #0]
 800207a:	4a1d      	ldr	r2, [pc, #116]	; (80020f0 <HAL_I2C_MspInit+0xf8>)
 800207c:	4293      	cmp	r3, r2
 800207e:	d12c      	bne.n	80020da <HAL_I2C_MspInit+0xe2>
    __HAL_RCC_GPIOB_CLK_ENABLE();
 8002080:	2300      	movs	r3, #0
 8002082:	613b      	str	r3, [r7, #16]
 8002084:	4b18      	ldr	r3, [pc, #96]	; (80020e8 <HAL_I2C_MspInit+0xf0>)
 8002086:	6b1b      	ldr	r3, [r3, #48]	; 0x30
 8002088:	4a17      	ldr	r2, [pc, #92]	; (80020e8 <HAL_I2C_MspInit+0xf0>)
 800208a:	f043 0302 	orr.w	r3, r3, #2
 800208e:	6313      	str	r3, [r2, #48]	; 0x30
 8002090:	4b15      	ldr	r3, [pc, #84]	; (80020e8 <HAL_I2C_MspInit+0xf0>)
 8002092:	6b1b      	ldr	r3, [r3, #48]	; 0x30
 8002094:	f003 0302 	and.w	r3, r3, #2
 8002098:	613b      	str	r3, [r7, #16]
 800209a:	693b      	ldr	r3, [r7, #16]
    GPIO_InitStruct.Pin = GPIO_PIN_10|GPIO_PIN_11;
 800209c:	f44f 6340 	mov.w	r3, #3072	; 0xc00
 80020a0:	61fb      	str	r3, [r7, #28]
    GPIO_InitStruct.Mode = GPIO_MODE_AF_OD;
 80020a2:	2312      	movs	r3, #18
 80020a4:	623b      	str	r3, [r7, #32]
    GPIO_InitStruct.Pull = GPIO_NOPULL;
 80020a6:	2300      	movs	r3, #0
 80020a8:	627b      	str	r3, [r7, #36]	; 0x24
    GPIO_InitStruct.Speed = GPIO_SPEED_FREQ_VERY_HIGH;
 80020aa:	2303      	movs	r3, #3
 80020ac:	62bb      	str	r3, [r7, #40]	; 0x28
    GPIO_InitStruct.Alternate = GPIO_AF4_I2C2;
 80020ae:	2304      	movs	r3, #4
 80020b0:	62fb      	str	r3, [r7, #44]	; 0x2c
    HAL_GPIO_Init(GPIOB, &GPIO_InitStruct);
 80020b2:	f107 031c 	add.w	r3, r7, #28
 80020b6:	4619      	mov	r1, r3
 80020b8:	480c      	ldr	r0, [pc, #48]	; (80020ec <HAL_I2C_MspInit+0xf4>)
 80020ba:	f000 fc69 	bl	8002990 <HAL_GPIO_Init>
    __HAL_RCC_I2C2_CLK_ENABLE();
 80020be:	2300      	movs	r3, #0
 80020c0:	60fb      	str	r3, [r7, #12]
 80020c2:	4b09      	ldr	r3, [pc, #36]	; (80020e8 <HAL_I2C_MspInit+0xf0>)
 80020c4:	6c1b      	ldr	r3, [r3, #64]	; 0x40
 80020c6:	4a08      	ldr	r2, [pc, #32]	; (80020e8 <HAL_I2C_MspInit+0xf0>)
 80020c8:	f443 0380 	orr.w	r3, r3, #4194304	; 0x400000
 80020cc:	6413      	str	r3, [r2, #64]	; 0x40
 80020ce:	4b06      	ldr	r3, [pc, #24]	; (80020e8 <HAL_I2C_MspInit+0xf0>)
 80020d0:	6c1b      	ldr	r3, [r3, #64]	; 0x40
 80020d2:	f403 0380 	and.w	r3, r3, #4194304	; 0x400000
 80020d6:	60fb      	str	r3, [r7, #12]
 80020d8:	68fb      	ldr	r3, [r7, #12]
}
 80020da:	bf00      	nop
 80020dc:	3730      	adds	r7, #48	; 0x30
 80020de:	46bd      	mov	sp, r7
 80020e0:	bd80      	pop	{r7, pc}
 80020e2:	bf00      	nop
 80020e4:	40005400 	.word	0x40005400
 80020e8:	40023800 	.word	0x40023800
 80020ec:	40020400 	.word	0x40020400
 80020f0:	40005800 	.word	0x40005800

080020f4 <HAL_RTC_MspInit>:
* This function configures the hardware resources used in this example
* @param hrtc: RTC handle pointer
* @retval None
*/
void HAL_RTC_MspInit(RTC_HandleTypeDef* hrtc)
{
 80020f4:	b580      	push	{r7, lr}
 80020f6:	b08e      	sub	sp, #56	; 0x38
 80020f8:	af00      	add	r7, sp, #0
 80020fa:	6078      	str	r0, [r7, #4]
  RCC_PeriphCLKInitTypeDef PeriphClkInitStruct = {0};
 80020fc:	f107 0308 	add.w	r3, r7, #8
 8002100:	2230      	movs	r2, #48	; 0x30
 8002102:	2100      	movs	r1, #0
 8002104:	4618      	mov	r0, r3
 8002106:	f005 fa35 	bl	8007574 <memset>
  if(hrtc->Instance==RTC)
 800210a:	687b      	ldr	r3, [r7, #4]
 800210c:	681b      	ldr	r3, [r3, #0]
 800210e:	4a0c      	ldr	r2, [pc, #48]	; (8002140 <HAL_RTC_MspInit+0x4c>)
 8002110:	4293      	cmp	r3, r2
 8002112:	d111      	bne.n	8002138 <HAL_RTC_MspInit+0x44>

  /* USER CODE END RTC_MspInit 0 */

  /** Initializes the peripherals clock
  */
    PeriphClkInitStruct.PeriphClockSelection = RCC_PERIPHCLK_RTC;
 8002114:	2320      	movs	r3, #32
 8002116:	60bb      	str	r3, [r7, #8]
    PeriphClkInitStruct.RTCClockSelection = RCC_RTCCLKSOURCE_LSI;
 8002118:	f44f 7300 	mov.w	r3, #512	; 0x200
 800211c:	633b      	str	r3, [r7, #48]	; 0x30
    if (HAL_RCCEx_PeriphCLKConfig(&PeriphClkInitStruct) != HAL_OK)
 800211e:	f107 0308 	add.w	r3, r7, #8
 8002122:	4618      	mov	r0, r3
 8002124:	f002 fc10 	bl	8004948 <HAL_RCCEx_PeriphCLKConfig>
 8002128:	4603      	mov	r3, r0
 800212a:	2b00      	cmp	r3, #0
 800212c:	d001      	beq.n	8002132 <HAL_RTC_MspInit+0x3e>
    {
      Error_Handler();
 800212e:	f7ff faf4 	bl	800171a <Error_Handler>
    }

    /* Peripheral clock enable */
    __HAL_RCC_RTC_ENABLE();
 8002132:	4b04      	ldr	r3, [pc, #16]	; (8002144 <HAL_RTC_MspInit+0x50>)
 8002134:	2201      	movs	r2, #1
 8002136:	601a      	str	r2, [r3, #0]
  /* USER CODE BEGIN RTC_MspInit 1 */

  /* USER CODE END RTC_MspInit 1 */
  }

}
 8002138:	bf00      	nop
 800213a:	3738      	adds	r7, #56	; 0x38
 800213c:	46bd      	mov	sp, r7
 800213e:	bd80      	pop	{r7, pc}
 8002140:	40002800 	.word	0x40002800
 8002144:	42470e3c 	.word	0x42470e3c

08002148 <HAL_SPI_MspInit>:
* This function configures the hardware resources used in this example
* @param hspi: SPI handle pointer
* @retval None
*/
void HAL_SPI_MspInit(SPI_HandleTypeDef* hspi)
{
 8002148:	b580      	push	{r7, lr}
 800214a:	b08c      	sub	sp, #48	; 0x30
 800214c:	af00      	add	r7, sp, #0
 800214e:	6078      	str	r0, [r7, #4]
  GPIO_InitTypeDef GPIO_InitStruct = {0};
 8002150:	f107 031c 	add.w	r3, r7, #28
 8002154:	2200      	movs	r2, #0
 8002156:	601a      	str	r2, [r3, #0]
 8002158:	605a      	str	r2, [r3, #4]
 800215a:	609a      	str	r2, [r3, #8]
 800215c:	60da      	str	r2, [r3, #12]
 800215e:	611a      	str	r2, [r3, #16]
  if(hspi->Instance==SPI1)
 8002160:	687b      	ldr	r3, [r7, #4]
 8002162:	681b      	ldr	r3, [r3, #0]
 8002164:	4a41      	ldr	r2, [pc, #260]	; (800226c <HAL_SPI_MspInit+0x124>)
 8002166:	4293      	cmp	r3, r2
 8002168:	d12c      	bne.n	80021c4 <HAL_SPI_MspInit+0x7c>
  {
  /* USER CODE BEGIN SPI1_MspInit 0 */

  /* USER CODE END SPI1_MspInit 0 */
    /* Peripheral clock enable */
    __HAL_RCC_SPI1_CLK_ENABLE();
 800216a:	2300      	movs	r3, #0
 800216c:	61bb      	str	r3, [r7, #24]
 800216e:	4b40      	ldr	r3, [pc, #256]	; (8002270 <HAL_SPI_MspInit+0x128>)
 8002170:	6c5b      	ldr	r3, [r3, #68]	; 0x44
 8002172:	4a3f      	ldr	r2, [pc, #252]	; (8002270 <HAL_SPI_MspInit+0x128>)
 8002174:	f443 5380 	orr.w	r3, r3, #4096	; 0x1000
 8002178:	6453      	str	r3, [r2, #68]	; 0x44
 800217a:	4b3d      	ldr	r3, [pc, #244]	; (8002270 <HAL_SPI_MspInit+0x128>)
 800217c:	6c5b      	ldr	r3, [r3, #68]	; 0x44
 800217e:	f403 5380 	and.w	r3, r3, #4096	; 0x1000
 8002182:	61bb      	str	r3, [r7, #24]
 8002184:	69bb      	ldr	r3, [r7, #24]

    __HAL_RCC_GPIOA_CLK_ENABLE();
 8002186:	2300      	movs	r3, #0
 8002188:	617b      	str	r3, [r7, #20]
 800218a:	4b39      	ldr	r3, [pc, #228]	; (8002270 <HAL_SPI_MspInit+0x128>)
 800218c:	6b1b      	ldr	r3, [r3, #48]	; 0x30
 800218e:	4a38      	ldr	r2, [pc, #224]	; (8002270 <HAL_SPI_MspInit+0x128>)
 8002190:	f043 0301 	orr.w	r3, r3, #1
 8002194:	6313      	str	r3, [r2, #48]	; 0x30
 8002196:	4b36      	ldr	r3, [pc, #216]	; (8002270 <HAL_SPI_MspInit+0x128>)
 8002198:	6b1b      	ldr	r3, [r3, #48]	; 0x30
 800219a:	f003 0301 	and.w	r3, r3, #1
 800219e:	617b      	str	r3, [r7, #20]
 80021a0:	697b      	ldr	r3, [r7, #20]
    /**SPI1 GPIO Configuration
    PA5     ------> SPI1_SCK
    PA6     ------> SPI1_MISO
    PA7     ------> SPI1_MOSI
    */
    GPIO_InitStruct.Pin = GPIO_PIN_5|GPIO_PIN_6|GPIO_PIN_7;
 80021a2:	23e0      	movs	r3, #224	; 0xe0
 80021a4:	61fb      	str	r3, [r7, #28]
    GPIO_InitStruct.Mode = GPIO_MODE_AF_PP;
 80021a6:	2302      	movs	r3, #2
 80021a8:	623b      	str	r3, [r7, #32]
    GPIO_InitStruct.Pull = GPIO_NOPULL;
 80021aa:	2300      	movs	r3, #0
 80021ac:	627b      	str	r3, [r7, #36]	; 0x24
    GPIO_InitStruct.Speed = GPIO_SPEED_FREQ_VERY_HIGH;
 80021ae:	2303      	movs	r3, #3
 80021b0:	62bb      	str	r3, [r7, #40]	; 0x28
    GPIO_InitStruct.Alternate = GPIO_AF5_SPI1;
 80021b2:	2305      	movs	r3, #5
 80021b4:	62fb      	str	r3, [r7, #44]	; 0x2c
    HAL_GPIO_Init(GPIOA, &GPIO_InitStruct);
 80021b6:	f107 031c 	add.w	r3, r7, #28
 80021ba:	4619      	mov	r1, r3
 80021bc:	482d      	ldr	r0, [pc, #180]	; (8002274 <HAL_SPI_MspInit+0x12c>)
 80021be:	f000 fbe7 	bl	8002990 <HAL_GPIO_Init>
  /* USER CODE BEGIN SPI2_MspInit 1 */

  /* USER CODE END SPI2_MspInit 1 */
  }

}
 80021c2:	e04e      	b.n	8002262 <HAL_SPI_MspInit+0x11a>
  else if(hspi->Instance==SPI2)
 80021c4:	687b      	ldr	r3, [r7, #4]
 80021c6:	681b      	ldr	r3, [r3, #0]
 80021c8:	4a2b      	ldr	r2, [pc, #172]	; (8002278 <HAL_SPI_MspInit+0x130>)
 80021ca:	4293      	cmp	r3, r2
 80021cc:	d149      	bne.n	8002262 <HAL_SPI_MspInit+0x11a>
    __HAL_RCC_SPI2_CLK_ENABLE();
 80021ce:	2300      	movs	r3, #0
 80021d0:	613b      	str	r3, [r7, #16]
 80021d2:	4b27      	ldr	r3, [pc, #156]	; (8002270 <HAL_SPI_MspInit+0x128>)
 80021d4:	6c1b      	ldr	r3, [r3, #64]	; 0x40
 80021d6:	4a26      	ldr	r2, [pc, #152]	; (8002270 <HAL_SPI_MspInit+0x128>)
 80021d8:	f443 4380 	orr.w	r3, r3, #16384	; 0x4000
 80021dc:	6413      	str	r3, [r2, #64]	; 0x40
 80021de:	4b24      	ldr	r3, [pc, #144]	; (8002270 <HAL_SPI_MspInit+0x128>)
 80021e0:	6c1b      	ldr	r3, [r3, #64]	; 0x40
 80021e2:	f403 4380 	and.w	r3, r3, #16384	; 0x4000
 80021e6:	613b      	str	r3, [r7, #16]
 80021e8:	693b      	ldr	r3, [r7, #16]
    __HAL_RCC_GPIOC_CLK_ENABLE();
 80021ea:	2300      	movs	r3, #0
 80021ec:	60fb      	str	r3, [r7, #12]
 80021ee:	4b20      	ldr	r3, [pc, #128]	; (8002270 <HAL_SPI_MspInit+0x128>)
 80021f0:	6b1b      	ldr	r3, [r3, #48]	; 0x30
 80021f2:	4a1f      	ldr	r2, [pc, #124]	; (8002270 <HAL_SPI_MspInit+0x128>)
 80021f4:	f043 0304 	orr.w	r3, r3, #4
 80021f8:	6313      	str	r3, [r2, #48]	; 0x30
 80021fa:	4b1d      	ldr	r3, [pc, #116]	; (8002270 <HAL_SPI_MspInit+0x128>)
 80021fc:	6b1b      	ldr	r3, [r3, #48]	; 0x30
 80021fe:	f003 0304 	and.w	r3, r3, #4
 8002202:	60fb      	str	r3, [r7, #12]
 8002204:	68fb      	ldr	r3, [r7, #12]
    __HAL_RCC_GPIOD_CLK_ENABLE();
 8002206:	2300      	movs	r3, #0
 8002208:	60bb      	str	r3, [r7, #8]
 800220a:	4b19      	ldr	r3, [pc, #100]	; (8002270 <HAL_SPI_MspInit+0x128>)
 800220c:	6b1b      	ldr	r3, [r3, #48]	; 0x30
 800220e:	4a18      	ldr	r2, [pc, #96]	; (8002270 <HAL_SPI_MspInit+0x128>)
 8002210:	f043 0308 	orr.w	r3, r3, #8
 8002214:	6313      	str	r3, [r2, #48]	; 0x30
 8002216:	4b16      	ldr	r3, [pc, #88]	; (8002270 <HAL_SPI_MspInit+0x128>)
 8002218:	6b1b      	ldr	r3, [r3, #48]	; 0x30
 800221a:	f003 0308 	and.w	r3, r3, #8
 800221e:	60bb      	str	r3, [r7, #8]
 8002220:	68bb      	ldr	r3, [r7, #8]
    GPIO_InitStruct.Pin = GPIO_PIN_2|GPIO_PIN_3;
 8002222:	230c      	movs	r3, #12
 8002224:	61fb      	str	r3, [r7, #28]
    GPIO_InitStruct.Mode = GPIO_MODE_AF_PP;
 8002226:	2302      	movs	r3, #2
 8002228:	623b      	str	r3, [r7, #32]
    GPIO_InitStruct.Pull = GPIO_NOPULL;
 800222a:	2300      	movs	r3, #0
 800222c:	627b      	str	r3, [r7, #36]	; 0x24
    GPIO_InitStruct.Speed = GPIO_SPEED_FREQ_VERY_HIGH;
 800222e:	2303      	movs	r3, #3
 8002230:	62bb      	str	r3, [r7, #40]	; 0x28
    GPIO_InitStruct.Alternate = GPIO_AF5_SPI2;
 8002232:	2305      	movs	r3, #5
 8002234:	62fb      	str	r3, [r7, #44]	; 0x2c
    HAL_GPIO_Init(GPIOC, &GPIO_InitStruct);
 8002236:	f107 031c 	add.w	r3, r7, #28
 800223a:	4619      	mov	r1, r3
 800223c:	480f      	ldr	r0, [pc, #60]	; (800227c <HAL_SPI_MspInit+0x134>)
 800223e:	f000 fba7 	bl	8002990 <HAL_GPIO_Init>
    GPIO_InitStruct.Pin = GPIO_PIN_3;
 8002242:	2308      	movs	r3, #8
 8002244:	61fb      	str	r3, [r7, #28]
    GPIO_InitStruct.Mode = GPIO_MODE_AF_PP;
 8002246:	2302      	movs	r3, #2
 8002248:	623b      	str	r3, [r7, #32]
    GPIO_InitStruct.Pull = GPIO_NOPULL;
 800224a:	2300      	movs	r3, #0
 800224c:	627b      	str	r3, [r7, #36]	; 0x24
    GPIO_InitStruct.Speed = GPIO_SPEED_FREQ_VERY_HIGH;
 800224e:	2303      	movs	r3, #3
 8002250:	62bb      	str	r3, [r7, #40]	; 0x28
    GPIO_InitStruct.Alternate = GPIO_AF5_SPI2;
 8002252:	2305      	movs	r3, #5
 8002254:	62fb      	str	r3, [r7, #44]	; 0x2c
    HAL_GPIO_Init(GPIOD, &GPIO_InitStruct);
 8002256:	f107 031c 	add.w	r3, r7, #28
 800225a:	4619      	mov	r1, r3
 800225c:	4808      	ldr	r0, [pc, #32]	; (8002280 <HAL_SPI_MspInit+0x138>)
 800225e:	f000 fb97 	bl	8002990 <HAL_GPIO_Init>
}
 8002262:	bf00      	nop
 8002264:	3730      	adds	r7, #48	; 0x30
 8002266:	46bd      	mov	sp, r7
 8002268:	bd80      	pop	{r7, pc}
 800226a:	bf00      	nop
 800226c:	40013000 	.word	0x40013000
 8002270:	40023800 	.word	0x40023800
 8002274:	40020000 	.word	0x40020000
 8002278:	40003800 	.word	0x40003800
 800227c:	40020800 	.word	0x40020800
 8002280:	40020c00 	.word	0x40020c00

08002284 <HAL_TIM_Base_MspInit>:
* This function configures the hardware resources used in this example
* @param htim_base: TIM_Base handle pointer
* @retval None
*/
void HAL_TIM_Base_MspInit(TIM_HandleTypeDef* htim_base)
{
 8002284:	b580      	push	{r7, lr}
 8002286:	b084      	sub	sp, #16
 8002288:	af00      	add	r7, sp, #0
 800228a:	6078      	str	r0, [r7, #4]
  if(htim_base->Instance==TIM6)
 800228c:	687b      	ldr	r3, [r7, #4]
 800228e:	681b      	ldr	r3, [r3, #0]
 8002290:	4a0e      	ldr	r2, [pc, #56]	; (80022cc <HAL_TIM_Base_MspInit+0x48>)
 8002292:	4293      	cmp	r3, r2
 8002294:	d115      	bne.n	80022c2 <HAL_TIM_Base_MspInit+0x3e>
  {
  /* USER CODE BEGIN TIM6_MspInit 0 */

  /* USER CODE END TIM6_MspInit 0 */
    /* Peripheral clock enable */
    __HAL_RCC_TIM6_CLK_ENABLE();
 8002296:	2300      	movs	r3, #0
 8002298:	60fb      	str	r3, [r7, #12]
 800229a:	4b0d      	ldr	r3, [pc, #52]	; (80022d0 <HAL_TIM_Base_MspInit+0x4c>)
 800229c:	6c1b      	ldr	r3, [r3, #64]	; 0x40
 800229e:	4a0c      	ldr	r2, [pc, #48]	; (80022d0 <HAL_TIM_Base_MspInit+0x4c>)
 80022a0:	f043 0310 	orr.w	r3, r3, #16
 80022a4:	6413      	str	r3, [r2, #64]	; 0x40
 80022a6:	4b0a      	ldr	r3, [pc, #40]	; (80022d0 <HAL_TIM_Base_MspInit+0x4c>)
 80022a8:	6c1b      	ldr	r3, [r3, #64]	; 0x40
 80022aa:	f003 0310 	and.w	r3, r3, #16
 80022ae:	60fb      	str	r3, [r7, #12]
 80022b0:	68fb      	ldr	r3, [r7, #12]
    /* TIM6 interrupt Init */
    HAL_NVIC_SetPriority(TIM6_DAC_IRQn, 0, 0);
 80022b2:	2200      	movs	r2, #0
 80022b4:	2100      	movs	r1, #0
 80022b6:	2036      	movs	r0, #54	; 0x36
 80022b8:	f000 faa1 	bl	80027fe <HAL_NVIC_SetPriority>
    HAL_NVIC_EnableIRQ(TIM6_DAC_IRQn);
 80022bc:	2036      	movs	r0, #54	; 0x36
 80022be:	f000 faba 	bl	8002836 <HAL_NVIC_EnableIRQ>
  /* USER CODE BEGIN TIM6_MspInit 1 */

  /* USER CODE END TIM6_MspInit 1 */
  }

}
 80022c2:	bf00      	nop
 80022c4:	3710      	adds	r7, #16
 80022c6:	46bd      	mov	sp, r7
 80022c8:	bd80      	pop	{r7, pc}
 80022ca:	bf00      	nop
 80022cc:	40001000 	.word	0x40001000
 80022d0:	40023800 	.word	0x40023800

080022d4 <HAL_UART_MspInit>:
* This function configures the hardware resources used in this example
* @param huart: UART handle pointer
* @retval None
*/
void HAL_UART_MspInit(UART_HandleTypeDef* huart)
{
 80022d4:	b580      	push	{r7, lr}
 80022d6:	b08a      	sub	sp, #40	; 0x28
 80022d8:	af00      	add	r7, sp, #0
 80022da:	6078      	str	r0, [r7, #4]
  GPIO_InitTypeDef GPIO_InitStruct = {0};
 80022dc:	f107 0314 	add.w	r3, r7, #20
 80022e0:	2200      	movs	r2, #0
 80022e2:	601a      	str	r2, [r3, #0]
 80022e4:	605a      	str	r2, [r3, #4]
 80022e6:	609a      	str	r2, [r3, #8]
 80022e8:	60da      	str	r2, [r3, #12]
 80022ea:	611a      	str	r2, [r3, #16]
  if(huart->Instance==USART2)
 80022ec:	687b      	ldr	r3, [r7, #4]
 80022ee:	681b      	ldr	r3, [r3, #0]
 80022f0:	4a1d      	ldr	r2, [pc, #116]	; (8002368 <HAL_UART_MspInit+0x94>)
 80022f2:	4293      	cmp	r3, r2
 80022f4:	d133      	bne.n	800235e <HAL_UART_MspInit+0x8a>
  {
  /* USER CODE BEGIN USART2_MspInit 0 */

  /* USER CODE END USART2_MspInit 0 */
    /* Peripheral clock enable */
    __HAL_RCC_USART2_CLK_ENABLE();
 80022f6:	2300      	movs	r3, #0
 80022f8:	613b      	str	r3, [r7, #16]
 80022fa:	4b1c      	ldr	r3, [pc, #112]	; (800236c <HAL_UART_MspInit+0x98>)
 80022fc:	6c1b      	ldr	r3, [r3, #64]	; 0x40
 80022fe:	4a1b      	ldr	r2, [pc, #108]	; (800236c <HAL_UART_MspInit+0x98>)
 8002300:	f443 3300 	orr.w	r3, r3, #131072	; 0x20000
 8002304:	6413      	str	r3, [r2, #64]	; 0x40
 8002306:	4b19      	ldr	r3, [pc, #100]	; (800236c <HAL_UART_MspInit+0x98>)
 8002308:	6c1b      	ldr	r3, [r3, #64]	; 0x40
 800230a:	f403 3300 	and.w	r3, r3, #131072	; 0x20000
 800230e:	613b      	str	r3, [r7, #16]
 8002310:	693b      	ldr	r3, [r7, #16]

    __HAL_RCC_GPIOD_CLK_ENABLE();
 8002312:	2300      	movs	r3, #0
 8002314:	60fb      	str	r3, [r7, #12]
 8002316:	4b15      	ldr	r3, [pc, #84]	; (800236c <HAL_UART_MspInit+0x98>)
 8002318:	6b1b      	ldr	r3, [r3, #48]	; 0x30
 800231a:	4a14      	ldr	r2, [pc, #80]	; (800236c <HAL_UART_MspInit+0x98>)
 800231c:	f043 0308 	orr.w	r3, r3, #8
 8002320:	6313      	str	r3, [r2, #48]	; 0x30
 8002322:	4b12      	ldr	r3, [pc, #72]	; (800236c <HAL_UART_MspInit+0x98>)
 8002324:	6b1b      	ldr	r3, [r3, #48]	; 0x30
 8002326:	f003 0308 	and.w	r3, r3, #8
 800232a:	60fb      	str	r3, [r7, #12]
 800232c:	68fb      	ldr	r3, [r7, #12]
    /**USART2 GPIO Configuration
    PD5     ------> USART2_TX
    PD6     ------> USART2_RX
    */
    GPIO_InitStruct.Pin = GPIO_PIN_5|GPIO_PIN_6;
 800232e:	2360      	movs	r3, #96	; 0x60
 8002330:	617b      	str	r3, [r7, #20]
    GPIO_InitStruct.Mode = GPIO_MODE_AF_PP;
 8002332:	2302      	movs	r3, #2
 8002334:	61bb      	str	r3, [r7, #24]
    GPIO_InitStruct.Pull = GPIO_NOPULL;
 8002336:	2300      	movs	r3, #0
 8002338:	61fb      	str	r3, [r7, #28]
    GPIO_InitStruct.Speed = GPIO_SPEED_FREQ_VERY_HIGH;
 800233a:	2303      	movs	r3, #3
 800233c:	623b      	str	r3, [r7, #32]
    GPIO_InitStruct.Alternate = GPIO_AF7_USART2;
 800233e:	2307      	movs	r3, #7
 8002340:	627b      	str	r3, [r7, #36]	; 0x24
    HAL_GPIO_Init(GPIOD, &GPIO_InitStruct);
 8002342:	f107 0314 	add.w	r3, r7, #20
 8002346:	4619      	mov	r1, r3
 8002348:	4809      	ldr	r0, [pc, #36]	; (8002370 <HAL_UART_MspInit+0x9c>)
 800234a:	f000 fb21 	bl	8002990 <HAL_GPIO_Init>

    /* USART2 interrupt Init */
    HAL_NVIC_SetPriority(USART2_IRQn, 0, 0);
 800234e:	2200      	movs	r2, #0
 8002350:	2100      	movs	r1, #0
 8002352:	2026      	movs	r0, #38	; 0x26
 8002354:	f000 fa53 	bl	80027fe <HAL_NVIC_SetPriority>
    HAL_NVIC_EnableIRQ(USART2_IRQn);
 8002358:	2026      	movs	r0, #38	; 0x26
 800235a:	f000 fa6c 	bl	8002836 <HAL_NVIC_EnableIRQ>
  /* USER CODE BEGIN USART2_MspInit 1 */

  /* USER CODE END USART2_MspInit 1 */
  }

}
 800235e:	bf00      	nop
 8002360:	3728      	adds	r7, #40	; 0x28
 8002362:	46bd      	mov	sp, r7
 8002364:	bd80      	pop	{r7, pc}
 8002366:	bf00      	nop
 8002368:	40004400 	.word	0x40004400
 800236c:	40023800 	.word	0x40023800
 8002370:	40020c00 	.word	0x40020c00

08002374 <NMI_Handler>:
/******************************************************************************/
/**
  * @brief This function handles Non maskable interrupt.
  */
void NMI_Handler(void)
{
 8002374:	b480      	push	{r7}
 8002376:	af00      	add	r7, sp, #0
  /* USER CODE BEGIN NonMaskableInt_IRQn 0 */

  /* USER CODE END NonMaskableInt_IRQn 0 */
  /* USER CODE BEGIN NonMaskableInt_IRQn 1 */
  while (1)
 8002378:	e7fe      	b.n	8002378 <NMI_Handler+0x4>

0800237a <HardFault_Handler>:

/**
  * @brief This function handles Hard fault interrupt.
  */
void HardFault_Handler(void)
{
 800237a:	b480      	push	{r7}
 800237c:	af00      	add	r7, sp, #0
  /* USER CODE BEGIN HardFault_IRQn 0 */

  /* USER CODE END HardFault_IRQn 0 */
  while (1)
 800237e:	e7fe      	b.n	800237e <HardFault_Handler+0x4>

08002380 <MemManage_Handler>:

/**
  * @brief This function handles Memory management fault.
  */
void MemManage_Handler(void)
{
 8002380:	b480      	push	{r7}
 8002382:	af00      	add	r7, sp, #0
  /* USER CODE BEGIN MemoryManagement_IRQn 0 */

  /* USER CODE END MemoryManagement_IRQn 0 */
  while (1)
 8002384:	e7fe      	b.n	8002384 <MemManage_Handler+0x4>

08002386 <BusFault_Handler>:

/**
  * @brief This function handles Pre-fetch fault, memory access fault.
  */
void BusFault_Handler(void)
{
 8002386:	b480      	push	{r7}
 8002388:	af00      	add	r7, sp, #0
  /* USER CODE BEGIN BusFault_IRQn 0 */

  /* USER CODE END BusFault_IRQn 0 */
  while (1)
 800238a:	e7fe      	b.n	800238a <BusFault_Handler+0x4>

0800238c <UsageFault_Handler>:

/**
  * @brief This function handles Undefined instruction or illegal state.
  */
void UsageFault_Handler(void)
{
 800238c:	b480      	push	{r7}
 800238e:	af00      	add	r7, sp, #0
  /* USER CODE BEGIN UsageFault_IRQn 0 */

  /* USER CODE END UsageFault_IRQn 0 */
  while (1)
 8002390:	e7fe      	b.n	8002390 <UsageFault_Handler+0x4>

08002392 <SVC_Handler>:

/**
  * @brief This function handles System service call via SWI instruction.
  */
void SVC_Handler(void)
{
 8002392:	b480      	push	{r7}
 8002394:	af00      	add	r7, sp, #0

  /* USER CODE END SVCall_IRQn 0 */
  /* USER CODE BEGIN SVCall_IRQn 1 */

  /* USER CODE END SVCall_IRQn 1 */
}
 8002396:	bf00      	nop
 8002398:	46bd      	mov	sp, r7
 800239a:	f85d 7b04 	ldr.w	r7, [sp], #4
 800239e:	4770      	bx	lr

080023a0 <DebugMon_Handler>:

/**
  * @brief This function handles Debug monitor.
  */
void DebugMon_Handler(void)
{
 80023a0:	b480      	push	{r7}
 80023a2:	af00      	add	r7, sp, #0

  /* USER CODE END DebugMonitor_IRQn 0 */
  /* USER CODE BEGIN DebugMonitor_IRQn 1 */

  /* USER CODE END DebugMonitor_IRQn 1 */
}
 80023a4:	bf00      	nop
 80023a6:	46bd      	mov	sp, r7
 80023a8:	f85d 7b04 	ldr.w	r7, [sp], #4
 80023ac:	4770      	bx	lr

080023ae <PendSV_Handler>:

/**
  * @brief This function handles Pendable request for system service.
  */
void PendSV_Handler(void)
{
 80023ae:	b480      	push	{r7}
 80023b0:	af00      	add	r7, sp, #0

  /* USER CODE END PendSV_IRQn 0 */
  /* USER CODE BEGIN PendSV_IRQn 1 */

  /* USER CODE END PendSV_IRQn 1 */
}
 80023b2:	bf00      	nop
 80023b4:	46bd      	mov	sp, r7
 80023b6:	f85d 7b04 	ldr.w	r7, [sp], #4
 80023ba:	4770      	bx	lr

080023bc <SysTick_Handler>:

/**
  * @brief This function handles System tick timer.
  */
void SysTick_Handler(void)
{
 80023bc:	b580      	push	{r7, lr}
 80023be:	af00      	add	r7, sp, #0
  /* USER CODE BEGIN SysTick_IRQn 0 */

  /* USER CODE END SysTick_IRQn 0 */
  HAL_IncTick();
 80023c0:	f000 f8fe 	bl	80025c0 <HAL_IncTick>
  /* USER CODE BEGIN SysTick_IRQn 1 */

  /* USER CODE END SysTick_IRQn 1 */
}
 80023c4:	bf00      	nop
 80023c6:	bd80      	pop	{r7, pc}

080023c8 <USART2_IRQHandler>:

/**
  * @brief This function handles USART2 global interrupt.
  */
void USART2_IRQHandler(void)
{
 80023c8:	b580      	push	{r7, lr}
 80023ca:	af00      	add	r7, sp, #0
  /* USER CODE BEGIN USART2_IRQn 0 */

  /* USER CODE END USART2_IRQn 0 */
  HAL_UART_IRQHandler(&huart2);
 80023cc:	4802      	ldr	r0, [pc, #8]	; (80023d8 <USART2_IRQHandler+0x10>)
 80023ce:	f004 f97b 	bl	80066c8 <HAL_UART_IRQHandler>
  /* USER CODE BEGIN USART2_IRQn 1 */

  /* USER CODE END USART2_IRQn 1 */
}
 80023d2:	bf00      	nop
 80023d4:	bd80      	pop	{r7, pc}
 80023d6:	bf00      	nop
 80023d8:	20000200 	.word	0x20000200

080023dc <TIM6_DAC_IRQHandler>:

/**
  * @brief This function handles TIM6 global interrupt, DAC1 and DAC2 underrun error interrupts.
  */
void TIM6_DAC_IRQHandler(void)
{
 80023dc:	b580      	push	{r7, lr}
 80023de:	af00      	add	r7, sp, #0
  /* USER CODE BEGIN TIM6_DAC_IRQn 0 */

  /* USER CODE END TIM6_DAC_IRQn 0 */
  HAL_TIM_IRQHandler(&htim6);
 80023e0:	4804      	ldr	r0, [pc, #16]	; (80023f4 <TIM6_DAC_IRQHandler+0x18>)
 80023e2:	f003 fe13 	bl	800600c <HAL_TIM_IRQHandler>
  /* USER CODE BEGIN TIM6_DAC_IRQn 1 */
  readAllSensors(&hi2c1, &hi2c2, &hrtc);
 80023e6:	4a04      	ldr	r2, [pc, #16]	; (80023f8 <TIM6_DAC_IRQHandler+0x1c>)
 80023e8:	4904      	ldr	r1, [pc, #16]	; (80023fc <TIM6_DAC_IRQHandler+0x20>)
 80023ea:	4805      	ldr	r0, [pc, #20]	; (8002400 <TIM6_DAC_IRQHandler+0x24>)
 80023ec:	f7ff fbd6 	bl	8001b9c <readAllSensors>
  /* USER CODE END TIM6_DAC_IRQn 1 */
}
 80023f0:	bf00      	nop
 80023f2:	bd80      	pop	{r7, pc}
 80023f4:	200001b8 	.word	0x200001b8
 80023f8:	200000e8 	.word	0x200000e8
 80023fc:	20000094 	.word	0x20000094
 8002400:	20000040 	.word	0x20000040

08002404 <HAL_UART_RxCpltCallback>:

/* USER CODE BEGIN 1 */
void HAL_UART_RxCpltCallback(UART_HandleTypeDef *huart) {
 8002404:	b580      	push	{r7, lr}
 8002406:	b082      	sub	sp, #8
 8002408:	af00      	add	r7, sp, #0
 800240a:	6078      	str	r0, [r7, #4]
	uart_rec_flag = 0x01;
 800240c:	4b05      	ldr	r3, [pc, #20]	; (8002424 <HAL_UART_RxCpltCallback+0x20>)
 800240e:	2201      	movs	r2, #1
 8002410:	701a      	strb	r2, [r3, #0]
	HAL_UART_Receive_IT(&huart2, UARTRxData, 2);
 8002412:	2202      	movs	r2, #2
 8002414:	4904      	ldr	r1, [pc, #16]	; (8002428 <HAL_UART_RxCpltCallback+0x24>)
 8002416:	4805      	ldr	r0, [pc, #20]	; (800242c <HAL_UART_RxCpltCallback+0x28>)
 8002418:	f004 f931 	bl	800667e <HAL_UART_Receive_IT>
}
 800241c:	bf00      	nop
 800241e:	3708      	adds	r7, #8
 8002420:	46bd      	mov	sp, r7
 8002422:	bd80      	pop	{r7, pc}
 8002424:	2000024a 	.word	0x2000024a
 8002428:	20000248 	.word	0x20000248
 800242c:	20000200 	.word	0x20000200

08002430 <SystemInit>:
  *         configuration.
  * @param  None
  * @retval None
  */
void SystemInit(void)
{
 8002430:	b480      	push	{r7}
 8002432:	af00      	add	r7, sp, #0
  /* FPU settings ------------------------------------------------------------*/
  #if (__FPU_PRESENT == 1) && (__FPU_USED == 1)
    SCB->CPACR |= ((3UL << 10*2)|(3UL << 11*2));  /* set CP10 and CP11 Full Access */
 8002434:	4b06      	ldr	r3, [pc, #24]	; (8002450 <SystemInit+0x20>)
 8002436:	f8d3 3088 	ldr.w	r3, [r3, #136]	; 0x88
 800243a:	4a05      	ldr	r2, [pc, #20]	; (8002450 <SystemInit+0x20>)
 800243c:	f443 0370 	orr.w	r3, r3, #15728640	; 0xf00000
 8002440:	f8c2 3088 	str.w	r3, [r2, #136]	; 0x88

  /* Configure the Vector Table location -------------------------------------*/
#if defined(USER_VECT_TAB_ADDRESS)
  SCB->VTOR = VECT_TAB_BASE_ADDRESS | VECT_TAB_OFFSET; /* Vector Table Relocation in Internal SRAM */
#endif /* USER_VECT_TAB_ADDRESS */
}
 8002444:	bf00      	nop
 8002446:	46bd      	mov	sp, r7
 8002448:	f85d 7b04 	ldr.w	r7, [sp], #4
 800244c:	4770      	bx	lr
 800244e:	bf00      	nop
 8002450:	e000ed00 	.word	0xe000ed00

08002454 <uart_transmit_page>:

#include "uart_transmit.h"
/**
 * Transmit one single page over the UART interface
 */
void uart_transmit_page(UART_HandleTypeDef *huart, uint8_t page[PAGE_SIZE]) {
 8002454:	b580      	push	{r7, lr}
 8002456:	b082      	sub	sp, #8
 8002458:	af00      	add	r7, sp, #0
 800245a:	6078      	str	r0, [r7, #4]
 800245c:	6039      	str	r1, [r7, #0]
	HAL_UART_Transmit(huart, page, PAGE_SIZE, HAL_MAX_DELAY);
 800245e:	f04f 33ff 	mov.w	r3, #4294967295	; 0xffffffff
 8002462:	f44f 7280 	mov.w	r2, #256	; 0x100
 8002466:	6839      	ldr	r1, [r7, #0]
 8002468:	6878      	ldr	r0, [r7, #4]
 800246a:	f004 f87d 	bl	8006568 <HAL_UART_Transmit>
}
 800246e:	bf00      	nop
 8002470:	3708      	adds	r7, #8
 8002472:	46bd      	mov	sp, r7
 8002474:	bd80      	pop	{r7, pc}

08002476 <send_uart_string>:

void send_uart_string(UART_HandleTypeDef *huart, const char *str) {
 8002476:	b580      	push	{r7, lr}
 8002478:	b082      	sub	sp, #8
 800247a:	af00      	add	r7, sp, #0
 800247c:	6078      	str	r0, [r7, #4]
 800247e:	6039      	str	r1, [r7, #0]
    HAL_UART_Transmit(huart, (uint8_t *)str, strlen(str), HAL_MAX_DELAY);
 8002480:	6838      	ldr	r0, [r7, #0]
 8002482:	f7fd feb3 	bl	80001ec <strlen>
 8002486:	4603      	mov	r3, r0
 8002488:	b29a      	uxth	r2, r3
 800248a:	f04f 33ff 	mov.w	r3, #4294967295	; 0xffffffff
 800248e:	6839      	ldr	r1, [r7, #0]
 8002490:	6878      	ldr	r0, [r7, #4]
 8002492:	f004 f869 	bl	8006568 <HAL_UART_Transmit>
}
 8002496:	bf00      	nop
 8002498:	3708      	adds	r7, #8
 800249a:	46bd      	mov	sp, r7
 800249c:	bd80      	pop	{r7, pc}

0800249e <send_uart_hex>:
	// Call the send_uart_string function to send the value to UART
	send_uart_string(huart, value_str);
	send_uart_string(huart, "\r\n");
}

void send_uart_hex(UART_HandleTypeDef *huart, uint8_t value) {
 800249e:	b580      	push	{r7, lr}
 80024a0:	b084      	sub	sp, #16
 80024a2:	af00      	add	r7, sp, #0
 80024a4:	6078      	str	r0, [r7, #4]
 80024a6:	460b      	mov	r3, r1
 80024a8:	70fb      	strb	r3, [r7, #3]
	uint8_t buffer[1];
	buffer[0] = value;
 80024aa:	78fb      	ldrb	r3, [r7, #3]
 80024ac:	733b      	strb	r3, [r7, #12]
	HAL_UART_Transmit(huart, buffer, 1, HAL_MAX_DELAY);
 80024ae:	f107 010c 	add.w	r1, r7, #12
 80024b2:	f04f 33ff 	mov.w	r3, #4294967295	; 0xffffffff
 80024b6:	2201      	movs	r2, #1
 80024b8:	6878      	ldr	r0, [r7, #4]
 80024ba:	f004 f855 	bl	8006568 <HAL_UART_Transmit>
}
 80024be:	bf00      	nop
 80024c0:	3710      	adds	r7, #16
 80024c2:	46bd      	mov	sp, r7
 80024c4:	bd80      	pop	{r7, pc}
	...

080024c8 <Reset_Handler>:

    .section  .text.Reset_Handler
  .weak  Reset_Handler
  .type  Reset_Handler, %function
Reset_Handler:  
  ldr   sp, =_estack     /* set stack pointer */
 80024c8:	f8df d034 	ldr.w	sp, [pc, #52]	; 8002500 <LoopFillZerobss+0xe>
  
/* Call the clock system initialization function.*/
  bl  SystemInit  
 80024cc:	f7ff ffb0 	bl	8002430 <SystemInit>

/* Copy the data segment initializers from flash to SRAM */  
  ldr r0, =_sdata
 80024d0:	480c      	ldr	r0, [pc, #48]	; (8002504 <LoopFillZerobss+0x12>)
  ldr r1, =_edata
 80024d2:	490d      	ldr	r1, [pc, #52]	; (8002508 <LoopFillZerobss+0x16>)
  ldr r2, =_sidata
 80024d4:	4a0d      	ldr	r2, [pc, #52]	; (800250c <LoopFillZerobss+0x1a>)
  movs r3, #0
 80024d6:	2300      	movs	r3, #0
  b LoopCopyDataInit
 80024d8:	e002      	b.n	80024e0 <LoopCopyDataInit>

080024da <CopyDataInit>:

CopyDataInit:
  ldr r4, [r2, r3]
 80024da:	58d4      	ldr	r4, [r2, r3]
  str r4, [r0, r3]
 80024dc:	50c4      	str	r4, [r0, r3]
  adds r3, r3, #4
 80024de:	3304      	adds	r3, #4

080024e0 <LoopCopyDataInit>:

LoopCopyDataInit:
  adds r4, r0, r3
 80024e0:	18c4      	adds	r4, r0, r3
  cmp r4, r1
 80024e2:	428c      	cmp	r4, r1
  bcc CopyDataInit
 80024e4:	d3f9      	bcc.n	80024da <CopyDataInit>
  
/* Zero fill the bss segment. */
  ldr r2, =_sbss
 80024e6:	4a0a      	ldr	r2, [pc, #40]	; (8002510 <LoopFillZerobss+0x1e>)
  ldr r4, =_ebss
 80024e8:	4c0a      	ldr	r4, [pc, #40]	; (8002514 <LoopFillZerobss+0x22>)
  movs r3, #0
 80024ea:	2300      	movs	r3, #0
  b LoopFillZerobss
 80024ec:	e001      	b.n	80024f2 <LoopFillZerobss>

080024ee <FillZerobss>:

FillZerobss:
  str  r3, [r2]
 80024ee:	6013      	str	r3, [r2, #0]
  adds r2, r2, #4
 80024f0:	3204      	adds	r2, #4

080024f2 <LoopFillZerobss>:

LoopFillZerobss:
  cmp r2, r4
 80024f2:	42a2      	cmp	r2, r4
  bcc FillZerobss
 80024f4:	d3fb      	bcc.n	80024ee <FillZerobss>

/* Call static constructors */
    bl __libc_init_array
 80024f6:	f005 f845 	bl	8007584 <__libc_init_array>
/* Call the application's entry point.*/
  bl  main
 80024fa:	f7fe fc0d 	bl	8000d18 <main>
  bx  lr    
 80024fe:	4770      	bx	lr
  ldr   sp, =_estack     /* set stack pointer */
 8002500:	20030000 	.word	0x20030000
  ldr r0, =_sdata
 8002504:	20000000 	.word	0x20000000
  ldr r1, =_edata
 8002508:	20000024 	.word	0x20000024
  ldr r2, =_sidata
 800250c:	080076a4 	.word	0x080076a4
  ldr r2, =_sbss
 8002510:	20000024 	.word	0x20000024
  ldr r4, =_ebss
 8002514:	20000488 	.word	0x20000488

08002518 <ADC_IRQHandler>:
 * @retval None       
*/
    .section  .text.Default_Handler,"ax",%progbits
Default_Handler:
Infinite_Loop:
  b  Infinite_Loop
 8002518:	e7fe      	b.n	8002518 <ADC_IRQHandler>
	...

0800251c <HAL_Init>:
  *         need to ensure that the SysTick time base is always set to 1 millisecond
  *         to have correct HAL operation.
  * @retval HAL status
  */
HAL_StatusTypeDef HAL_Init(void)
{
 800251c:	b580      	push	{r7, lr}
 800251e:	af00      	add	r7, sp, #0
  /* Configure Flash prefetch, Instruction cache, Data cache */ 
#if (INSTRUCTION_CACHE_ENABLE != 0U)
  __HAL_FLASH_INSTRUCTION_CACHE_ENABLE();
 8002520:	4b0e      	ldr	r3, [pc, #56]	; (800255c <HAL_Init+0x40>)
 8002522:	681b      	ldr	r3, [r3, #0]
 8002524:	4a0d      	ldr	r2, [pc, #52]	; (800255c <HAL_Init+0x40>)
 8002526:	f443 7300 	orr.w	r3, r3, #512	; 0x200
 800252a:	6013      	str	r3, [r2, #0]
#endif /* INSTRUCTION_CACHE_ENABLE */

#if (DATA_CACHE_ENABLE != 0U)
  __HAL_FLASH_DATA_CACHE_ENABLE();
 800252c:	4b0b      	ldr	r3, [pc, #44]	; (800255c <HAL_Init+0x40>)
 800252e:	681b      	ldr	r3, [r3, #0]
 8002530:	4a0a      	ldr	r2, [pc, #40]	; (800255c <HAL_Init+0x40>)
 8002532:	f443 6380 	orr.w	r3, r3, #1024	; 0x400
 8002536:	6013      	str	r3, [r2, #0]
#endif /* DATA_CACHE_ENABLE */

#if (PREFETCH_ENABLE != 0U)
  __HAL_FLASH_PREFETCH_BUFFER_ENABLE();
 8002538:	4b08      	ldr	r3, [pc, #32]	; (800255c <HAL_Init+0x40>)
 800253a:	681b      	ldr	r3, [r3, #0]
 800253c:	4a07      	ldr	r2, [pc, #28]	; (800255c <HAL_Init+0x40>)
 800253e:	f443 7380 	orr.w	r3, r3, #256	; 0x100
 8002542:	6013      	str	r3, [r2, #0]
#endif /* PREFETCH_ENABLE */

  /* Set Interrupt Group Priority */
  HAL_NVIC_SetPriorityGrouping(NVIC_PRIORITYGROUP_4);
 8002544:	2003      	movs	r0, #3
 8002546:	f000 f94f 	bl	80027e8 <HAL_NVIC_SetPriorityGrouping>

  /* Use systick as time base source and configure 1ms tick (default clock after Reset is HSI) */
  HAL_InitTick(TICK_INT_PRIORITY);
 800254a:	200f      	movs	r0, #15
 800254c:	f000 f808 	bl	8002560 <HAL_InitTick>

  /* Init the low level hardware */
  HAL_MspInit();
 8002550:	f7ff fd2a 	bl	8001fa8 <HAL_MspInit>

  /* Return function status */
  return HAL_OK;
 8002554:	2300      	movs	r3, #0
}
 8002556:	4618      	mov	r0, r3
 8002558:	bd80      	pop	{r7, pc}
 800255a:	bf00      	nop
 800255c:	40023c00 	.word	0x40023c00

08002560 <HAL_InitTick>:
  *       implementation  in user file.
  * @param TickPriority Tick interrupt priority.
  * @retval HAL status
  */
__weak HAL_StatusTypeDef HAL_InitTick(uint32_t TickPriority)
{
 8002560:	b580      	push	{r7, lr}
 8002562:	b082      	sub	sp, #8
 8002564:	af00      	add	r7, sp, #0
 8002566:	6078      	str	r0, [r7, #4]
  /* Configure the SysTick to have interrupt in 1ms time basis*/
  if (HAL_SYSTICK_Config(SystemCoreClock / (1000U / uwTickFreq)) > 0U)
 8002568:	4b12      	ldr	r3, [pc, #72]	; (80025b4 <HAL_InitTick+0x54>)
 800256a:	681a      	ldr	r2, [r3, #0]
 800256c:	4b12      	ldr	r3, [pc, #72]	; (80025b8 <HAL_InitTick+0x58>)
 800256e:	781b      	ldrb	r3, [r3, #0]
 8002570:	4619      	mov	r1, r3
 8002572:	f44f 737a 	mov.w	r3, #1000	; 0x3e8
 8002576:	fbb3 f3f1 	udiv	r3, r3, r1
 800257a:	fbb2 f3f3 	udiv	r3, r2, r3
 800257e:	4618      	mov	r0, r3
 8002580:	f000 f967 	bl	8002852 <HAL_SYSTICK_Config>
 8002584:	4603      	mov	r3, r0
 8002586:	2b00      	cmp	r3, #0
 8002588:	d001      	beq.n	800258e <HAL_InitTick+0x2e>
  {
    return HAL_ERROR;
 800258a:	2301      	movs	r3, #1
 800258c:	e00e      	b.n	80025ac <HAL_InitTick+0x4c>
  }

  /* Configure the SysTick IRQ priority */
  if (TickPriority < (1UL << __NVIC_PRIO_BITS))
 800258e:	687b      	ldr	r3, [r7, #4]
 8002590:	2b0f      	cmp	r3, #15
 8002592:	d80a      	bhi.n	80025aa <HAL_InitTick+0x4a>
  {
    HAL_NVIC_SetPriority(SysTick_IRQn, TickPriority, 0U);
 8002594:	2200      	movs	r2, #0
 8002596:	6879      	ldr	r1, [r7, #4]
 8002598:	f04f 30ff 	mov.w	r0, #4294967295	; 0xffffffff
 800259c:	f000 f92f 	bl	80027fe <HAL_NVIC_SetPriority>
    uwTickPrio = TickPriority;
 80025a0:	4a06      	ldr	r2, [pc, #24]	; (80025bc <HAL_InitTick+0x5c>)
 80025a2:	687b      	ldr	r3, [r7, #4]
 80025a4:	6013      	str	r3, [r2, #0]
  {
    return HAL_ERROR;
  }

  /* Return function status */
  return HAL_OK;
 80025a6:	2300      	movs	r3, #0
 80025a8:	e000      	b.n	80025ac <HAL_InitTick+0x4c>
    return HAL_ERROR;
 80025aa:	2301      	movs	r3, #1
}
 80025ac:	4618      	mov	r0, r3
 80025ae:	3708      	adds	r7, #8
 80025b0:	46bd      	mov	sp, r7
 80025b2:	bd80      	pop	{r7, pc}
 80025b4:	20000018 	.word	0x20000018
 80025b8:	20000020 	.word	0x20000020
 80025bc:	2000001c 	.word	0x2000001c

080025c0 <HAL_IncTick>:
 * @note This function is declared as __weak to be overwritten in case of other 
  *      implementations in user file.
  * @retval None
  */
__weak void HAL_IncTick(void)
{
 80025c0:	b480      	push	{r7}
 80025c2:	af00      	add	r7, sp, #0
  uwTick += uwTickFreq;
 80025c4:	4b06      	ldr	r3, [pc, #24]	; (80025e0 <HAL_IncTick+0x20>)
 80025c6:	781b      	ldrb	r3, [r3, #0]
 80025c8:	461a      	mov	r2, r3
 80025ca:	4b06      	ldr	r3, [pc, #24]	; (80025e4 <HAL_IncTick+0x24>)
 80025cc:	681b      	ldr	r3, [r3, #0]
 80025ce:	4413      	add	r3, r2
 80025d0:	4a04      	ldr	r2, [pc, #16]	; (80025e4 <HAL_IncTick+0x24>)
 80025d2:	6013      	str	r3, [r2, #0]
}
 80025d4:	bf00      	nop
 80025d6:	46bd      	mov	sp, r7
 80025d8:	f85d 7b04 	ldr.w	r7, [sp], #4
 80025dc:	4770      	bx	lr
 80025de:	bf00      	nop
 80025e0:	20000020 	.word	0x20000020
 80025e4:	20000484 	.word	0x20000484

080025e8 <HAL_GetTick>:
  * @note This function is declared as __weak to be overwritten in case of other 
  *       implementations in user file.
  * @retval tick value
  */
__weak uint32_t HAL_GetTick(void)
{
 80025e8:	b480      	push	{r7}
 80025ea:	af00      	add	r7, sp, #0
  return uwTick;
 80025ec:	4b03      	ldr	r3, [pc, #12]	; (80025fc <HAL_GetTick+0x14>)
 80025ee:	681b      	ldr	r3, [r3, #0]
}
 80025f0:	4618      	mov	r0, r3
 80025f2:	46bd      	mov	sp, r7
 80025f4:	f85d 7b04 	ldr.w	r7, [sp], #4
 80025f8:	4770      	bx	lr
 80025fa:	bf00      	nop
 80025fc:	20000484 	.word	0x20000484

08002600 <HAL_Delay>:
  *       implementations in user file.
  * @param Delay specifies the delay time length, in milliseconds.
  * @retval None
  */
__weak void HAL_Delay(uint32_t Delay)
{
 8002600:	b580      	push	{r7, lr}
 8002602:	b084      	sub	sp, #16
 8002604:	af00      	add	r7, sp, #0
 8002606:	6078      	str	r0, [r7, #4]
  uint32_t tickstart = HAL_GetTick();
 8002608:	f7ff ffee 	bl	80025e8 <HAL_GetTick>
 800260c:	60b8      	str	r0, [r7, #8]
  uint32_t wait = Delay;
 800260e:	687b      	ldr	r3, [r7, #4]
 8002610:	60fb      	str	r3, [r7, #12]

  /* Add a freq to guarantee minimum wait */
  if (wait < HAL_MAX_DELAY)
 8002612:	68fb      	ldr	r3, [r7, #12]
 8002614:	f1b3 3fff 	cmp.w	r3, #4294967295	; 0xffffffff
 8002618:	d005      	beq.n	8002626 <HAL_Delay+0x26>
  {
    wait += (uint32_t)(uwTickFreq);
 800261a:	4b0a      	ldr	r3, [pc, #40]	; (8002644 <HAL_Delay+0x44>)
 800261c:	781b      	ldrb	r3, [r3, #0]
 800261e:	461a      	mov	r2, r3
 8002620:	68fb      	ldr	r3, [r7, #12]
 8002622:	4413      	add	r3, r2
 8002624:	60fb      	str	r3, [r7, #12]
  }

  while((HAL_GetTick() - tickstart) < wait)
 8002626:	bf00      	nop
 8002628:	f7ff ffde 	bl	80025e8 <HAL_GetTick>
 800262c:	4602      	mov	r2, r0
 800262e:	68bb      	ldr	r3, [r7, #8]
 8002630:	1ad3      	subs	r3, r2, r3
 8002632:	68fa      	ldr	r2, [r7, #12]
 8002634:	429a      	cmp	r2, r3
 8002636:	d8f7      	bhi.n	8002628 <HAL_Delay+0x28>
  {
  }
}
 8002638:	bf00      	nop
 800263a:	bf00      	nop
 800263c:	3710      	adds	r7, #16
 800263e:	46bd      	mov	sp, r7
 8002640:	bd80      	pop	{r7, pc}
 8002642:	bf00      	nop
 8002644:	20000020 	.word	0x20000020

08002648 <__NVIC_SetPriorityGrouping>:
           In case of a conflict between priority grouping and available
           priority bits (__NVIC_PRIO_BITS), the smallest possible priority group is set.
  \param [in]      PriorityGroup  Priority grouping field.
 */
__STATIC_INLINE void __NVIC_SetPriorityGrouping(uint32_t PriorityGroup)
{
 8002648:	b480      	push	{r7}
 800264a:	b085      	sub	sp, #20
 800264c:	af00      	add	r7, sp, #0
 800264e:	6078      	str	r0, [r7, #4]
  uint32_t reg_value;
  uint32_t PriorityGroupTmp = (PriorityGroup & (uint32_t)0x07UL);             /* only values 0..7 are used          */
 8002650:	687b      	ldr	r3, [r7, #4]
 8002652:	f003 0307 	and.w	r3, r3, #7
 8002656:	60fb      	str	r3, [r7, #12]

  reg_value  =  SCB->AIRCR;                                                   /* read old register configuration    */
 8002658:	4b0c      	ldr	r3, [pc, #48]	; (800268c <__NVIC_SetPriorityGrouping+0x44>)
 800265a:	68db      	ldr	r3, [r3, #12]
 800265c:	60bb      	str	r3, [r7, #8]
  reg_value &= ~((uint32_t)(SCB_AIRCR_VECTKEY_Msk | SCB_AIRCR_PRIGROUP_Msk)); /* clear bits to change               */
 800265e:	68ba      	ldr	r2, [r7, #8]
 8002660:	f64f 03ff 	movw	r3, #63743	; 0xf8ff
 8002664:	4013      	ands	r3, r2
 8002666:	60bb      	str	r3, [r7, #8]
  reg_value  =  (reg_value                                   |
                ((uint32_t)0x5FAUL << SCB_AIRCR_VECTKEY_Pos) |
                (PriorityGroupTmp << SCB_AIRCR_PRIGROUP_Pos)  );              /* Insert write key and priority group */
 8002668:	68fb      	ldr	r3, [r7, #12]
 800266a:	021a      	lsls	r2, r3, #8
                ((uint32_t)0x5FAUL << SCB_AIRCR_VECTKEY_Pos) |
 800266c:	68bb      	ldr	r3, [r7, #8]
 800266e:	4313      	orrs	r3, r2
  reg_value  =  (reg_value                                   |
 8002670:	f043 63bf 	orr.w	r3, r3, #100139008	; 0x5f80000
 8002674:	f443 3300 	orr.w	r3, r3, #131072	; 0x20000
 8002678:	60bb      	str	r3, [r7, #8]
  SCB->AIRCR =  reg_value;
 800267a:	4a04      	ldr	r2, [pc, #16]	; (800268c <__NVIC_SetPriorityGrouping+0x44>)
 800267c:	68bb      	ldr	r3, [r7, #8]
 800267e:	60d3      	str	r3, [r2, #12]
}
 8002680:	bf00      	nop
 8002682:	3714      	adds	r7, #20
 8002684:	46bd      	mov	sp, r7
 8002686:	f85d 7b04 	ldr.w	r7, [sp], #4
 800268a:	4770      	bx	lr
 800268c:	e000ed00 	.word	0xe000ed00

08002690 <__NVIC_GetPriorityGrouping>:
  \brief   Get Priority Grouping
  \details Reads the priority grouping field from the NVIC Interrupt Controller.
  \return                Priority grouping field (SCB->AIRCR [10:8] PRIGROUP field).
 */
__STATIC_INLINE uint32_t __NVIC_GetPriorityGrouping(void)
{
 8002690:	b480      	push	{r7}
 8002692:	af00      	add	r7, sp, #0
  return ((uint32_t)((SCB->AIRCR & SCB_AIRCR_PRIGROUP_Msk) >> SCB_AIRCR_PRIGROUP_Pos));
 8002694:	4b04      	ldr	r3, [pc, #16]	; (80026a8 <__NVIC_GetPriorityGrouping+0x18>)
 8002696:	68db      	ldr	r3, [r3, #12]
 8002698:	0a1b      	lsrs	r3, r3, #8
 800269a:	f003 0307 	and.w	r3, r3, #7
}
 800269e:	4618      	mov	r0, r3
 80026a0:	46bd      	mov	sp, r7
 80026a2:	f85d 7b04 	ldr.w	r7, [sp], #4
 80026a6:	4770      	bx	lr
 80026a8:	e000ed00 	.word	0xe000ed00

080026ac <__NVIC_EnableIRQ>:
  \details Enables a device specific interrupt in the NVIC interrupt controller.
  \param [in]      IRQn  Device specific interrupt number.
  \note    IRQn must not be negative.
 */
__STATIC_INLINE void __NVIC_EnableIRQ(IRQn_Type IRQn)
{
 80026ac:	b480      	push	{r7}
 80026ae:	b083      	sub	sp, #12
 80026b0:	af00      	add	r7, sp, #0
 80026b2:	4603      	mov	r3, r0
 80026b4:	71fb      	strb	r3, [r7, #7]
  if ((int32_t)(IRQn) >= 0)
 80026b6:	f997 3007 	ldrsb.w	r3, [r7, #7]
 80026ba:	2b00      	cmp	r3, #0
 80026bc:	db0b      	blt.n	80026d6 <__NVIC_EnableIRQ+0x2a>
  {
    __COMPILER_BARRIER();
    NVIC->ISER[(((uint32_t)IRQn) >> 5UL)] = (uint32_t)(1UL << (((uint32_t)IRQn) & 0x1FUL));
 80026be:	79fb      	ldrb	r3, [r7, #7]
 80026c0:	f003 021f 	and.w	r2, r3, #31
 80026c4:	4907      	ldr	r1, [pc, #28]	; (80026e4 <__NVIC_EnableIRQ+0x38>)
 80026c6:	f997 3007 	ldrsb.w	r3, [r7, #7]
 80026ca:	095b      	lsrs	r3, r3, #5
 80026cc:	2001      	movs	r0, #1
 80026ce:	fa00 f202 	lsl.w	r2, r0, r2
 80026d2:	f841 2023 	str.w	r2, [r1, r3, lsl #2]
    __COMPILER_BARRIER();
  }
}
 80026d6:	bf00      	nop
 80026d8:	370c      	adds	r7, #12
 80026da:	46bd      	mov	sp, r7
 80026dc:	f85d 7b04 	ldr.w	r7, [sp], #4
 80026e0:	4770      	bx	lr
 80026e2:	bf00      	nop
 80026e4:	e000e100 	.word	0xe000e100

080026e8 <__NVIC_SetPriority>:
  \param [in]      IRQn  Interrupt number.
  \param [in]  priority  Priority to set.
  \note    The priority cannot be set for every processor exception.
 */
__STATIC_INLINE void __NVIC_SetPriority(IRQn_Type IRQn, uint32_t priority)
{
 80026e8:	b480      	push	{r7}
 80026ea:	b083      	sub	sp, #12
 80026ec:	af00      	add	r7, sp, #0
 80026ee:	4603      	mov	r3, r0
 80026f0:	6039      	str	r1, [r7, #0]
 80026f2:	71fb      	strb	r3, [r7, #7]
  if ((int32_t)(IRQn) >= 0)
 80026f4:	f997 3007 	ldrsb.w	r3, [r7, #7]
 80026f8:	2b00      	cmp	r3, #0
 80026fa:	db0a      	blt.n	8002712 <__NVIC_SetPriority+0x2a>
  {
    NVIC->IP[((uint32_t)IRQn)]               = (uint8_t)((priority << (8U - __NVIC_PRIO_BITS)) & (uint32_t)0xFFUL);
 80026fc:	683b      	ldr	r3, [r7, #0]
 80026fe:	b2da      	uxtb	r2, r3
 8002700:	490c      	ldr	r1, [pc, #48]	; (8002734 <__NVIC_SetPriority+0x4c>)
 8002702:	f997 3007 	ldrsb.w	r3, [r7, #7]
 8002706:	0112      	lsls	r2, r2, #4
 8002708:	b2d2      	uxtb	r2, r2
 800270a:	440b      	add	r3, r1
 800270c:	f883 2300 	strb.w	r2, [r3, #768]	; 0x300
  }
  else
  {
    SCB->SHP[(((uint32_t)IRQn) & 0xFUL)-4UL] = (uint8_t)((priority << (8U - __NVIC_PRIO_BITS)) & (uint32_t)0xFFUL);
  }
}
 8002710:	e00a      	b.n	8002728 <__NVIC_SetPriority+0x40>
    SCB->SHP[(((uint32_t)IRQn) & 0xFUL)-4UL] = (uint8_t)((priority << (8U - __NVIC_PRIO_BITS)) & (uint32_t)0xFFUL);
 8002712:	683b      	ldr	r3, [r7, #0]
 8002714:	b2da      	uxtb	r2, r3
 8002716:	4908      	ldr	r1, [pc, #32]	; (8002738 <__NVIC_SetPriority+0x50>)
 8002718:	79fb      	ldrb	r3, [r7, #7]
 800271a:	f003 030f 	and.w	r3, r3, #15
 800271e:	3b04      	subs	r3, #4
 8002720:	0112      	lsls	r2, r2, #4
 8002722:	b2d2      	uxtb	r2, r2
 8002724:	440b      	add	r3, r1
 8002726:	761a      	strb	r2, [r3, #24]
}
 8002728:	bf00      	nop
 800272a:	370c      	adds	r7, #12
 800272c:	46bd      	mov	sp, r7
 800272e:	f85d 7b04 	ldr.w	r7, [sp], #4
 8002732:	4770      	bx	lr
 8002734:	e000e100 	.word	0xe000e100
 8002738:	e000ed00 	.word	0xe000ed00

0800273c <NVIC_EncodePriority>:
  \param [in]   PreemptPriority  Preemptive priority value (starting from 0).
  \param [in]       SubPriority  Subpriority value (starting from 0).
  \return                        Encoded priority. Value can be used in the function \ref NVIC_SetPriority().
 */
__STATIC_INLINE uint32_t NVIC_EncodePriority (uint32_t PriorityGroup, uint32_t PreemptPriority, uint32_t SubPriority)
{
 800273c:	b480      	push	{r7}
 800273e:	b089      	sub	sp, #36	; 0x24
 8002740:	af00      	add	r7, sp, #0
 8002742:	60f8      	str	r0, [r7, #12]
 8002744:	60b9      	str	r1, [r7, #8]
 8002746:	607a      	str	r2, [r7, #4]
  uint32_t PriorityGroupTmp = (PriorityGroup & (uint32_t)0x07UL);   /* only values 0..7 are used          */
 8002748:	68fb      	ldr	r3, [r7, #12]
 800274a:	f003 0307 	and.w	r3, r3, #7
 800274e:	61fb      	str	r3, [r7, #28]
  uint32_t PreemptPriorityBits;
  uint32_t SubPriorityBits;

  PreemptPriorityBits = ((7UL - PriorityGroupTmp) > (uint32_t)(__NVIC_PRIO_BITS)) ? (uint32_t)(__NVIC_PRIO_BITS) : (uint32_t)(7UL - PriorityGroupTmp);
 8002750:	69fb      	ldr	r3, [r7, #28]
 8002752:	f1c3 0307 	rsb	r3, r3, #7
 8002756:	2b04      	cmp	r3, #4
 8002758:	bf28      	it	cs
 800275a:	2304      	movcs	r3, #4
 800275c:	61bb      	str	r3, [r7, #24]
  SubPriorityBits     = ((PriorityGroupTmp + (uint32_t)(__NVIC_PRIO_BITS)) < (uint32_t)7UL) ? (uint32_t)0UL : (uint32_t)((PriorityGroupTmp - 7UL) + (uint32_t)(__NVIC_PRIO_BITS));
 800275e:	69fb      	ldr	r3, [r7, #28]
 8002760:	3304      	adds	r3, #4
 8002762:	2b06      	cmp	r3, #6
 8002764:	d902      	bls.n	800276c <NVIC_EncodePriority+0x30>
 8002766:	69fb      	ldr	r3, [r7, #28]
 8002768:	3b03      	subs	r3, #3
 800276a:	e000      	b.n	800276e <NVIC_EncodePriority+0x32>
 800276c:	2300      	movs	r3, #0
 800276e:	617b      	str	r3, [r7, #20]

  return (
           ((PreemptPriority & (uint32_t)((1UL << (PreemptPriorityBits)) - 1UL)) << SubPriorityBits) |
 8002770:	f04f 32ff 	mov.w	r2, #4294967295	; 0xffffffff
 8002774:	69bb      	ldr	r3, [r7, #24]
 8002776:	fa02 f303 	lsl.w	r3, r2, r3
 800277a:	43da      	mvns	r2, r3
 800277c:	68bb      	ldr	r3, [r7, #8]
 800277e:	401a      	ands	r2, r3
 8002780:	697b      	ldr	r3, [r7, #20]
 8002782:	409a      	lsls	r2, r3
           ((SubPriority     & (uint32_t)((1UL << (SubPriorityBits    )) - 1UL)))
 8002784:	f04f 31ff 	mov.w	r1, #4294967295	; 0xffffffff
 8002788:	697b      	ldr	r3, [r7, #20]
 800278a:	fa01 f303 	lsl.w	r3, r1, r3
 800278e:	43d9      	mvns	r1, r3
 8002790:	687b      	ldr	r3, [r7, #4]
 8002792:	400b      	ands	r3, r1
           ((PreemptPriority & (uint32_t)((1UL << (PreemptPriorityBits)) - 1UL)) << SubPriorityBits) |
 8002794:	4313      	orrs	r3, r2
         );
}
 8002796:	4618      	mov	r0, r3
 8002798:	3724      	adds	r7, #36	; 0x24
 800279a:	46bd      	mov	sp, r7
 800279c:	f85d 7b04 	ldr.w	r7, [sp], #4
 80027a0:	4770      	bx	lr
	...

080027a4 <SysTick_Config>:
  \note    When the variable <b>__Vendor_SysTickConfig</b> is set to 1, then the
           function <b>SysTick_Config</b> is not included. In this case, the file <b><i>device</i>.h</b>
           must contain a vendor-specific implementation of this function.
 */
__STATIC_INLINE uint32_t SysTick_Config(uint32_t ticks)
{
 80027a4:	b580      	push	{r7, lr}
 80027a6:	b082      	sub	sp, #8
 80027a8:	af00      	add	r7, sp, #0
 80027aa:	6078      	str	r0, [r7, #4]
  if ((ticks - 1UL) > SysTick_LOAD_RELOAD_Msk)
 80027ac:	687b      	ldr	r3, [r7, #4]
 80027ae:	3b01      	subs	r3, #1
 80027b0:	f1b3 7f80 	cmp.w	r3, #16777216	; 0x1000000
 80027b4:	d301      	bcc.n	80027ba <SysTick_Config+0x16>
  {
    return (1UL);                                                   /* Reload value impossible */
 80027b6:	2301      	movs	r3, #1
 80027b8:	e00f      	b.n	80027da <SysTick_Config+0x36>
  }

  SysTick->LOAD  = (uint32_t)(ticks - 1UL);                         /* set reload register */
 80027ba:	4a0a      	ldr	r2, [pc, #40]	; (80027e4 <SysTick_Config+0x40>)
 80027bc:	687b      	ldr	r3, [r7, #4]
 80027be:	3b01      	subs	r3, #1
 80027c0:	6053      	str	r3, [r2, #4]
  NVIC_SetPriority (SysTick_IRQn, (1UL << __NVIC_PRIO_BITS) - 1UL); /* set Priority for Systick Interrupt */
 80027c2:	210f      	movs	r1, #15
 80027c4:	f04f 30ff 	mov.w	r0, #4294967295	; 0xffffffff
 80027c8:	f7ff ff8e 	bl	80026e8 <__NVIC_SetPriority>
  SysTick->VAL   = 0UL;                                             /* Load the SysTick Counter Value */
 80027cc:	4b05      	ldr	r3, [pc, #20]	; (80027e4 <SysTick_Config+0x40>)
 80027ce:	2200      	movs	r2, #0
 80027d0:	609a      	str	r2, [r3, #8]
  SysTick->CTRL  = SysTick_CTRL_CLKSOURCE_Msk |
 80027d2:	4b04      	ldr	r3, [pc, #16]	; (80027e4 <SysTick_Config+0x40>)
 80027d4:	2207      	movs	r2, #7
 80027d6:	601a      	str	r2, [r3, #0]
                   SysTick_CTRL_TICKINT_Msk   |
                   SysTick_CTRL_ENABLE_Msk;                         /* Enable SysTick IRQ and SysTick Timer */
  return (0UL);                                                     /* Function successful */
 80027d8:	2300      	movs	r3, #0
}
 80027da:	4618      	mov	r0, r3
 80027dc:	3708      	adds	r7, #8
 80027de:	46bd      	mov	sp, r7
 80027e0:	bd80      	pop	{r7, pc}
 80027e2:	bf00      	nop
 80027e4:	e000e010 	.word	0xe000e010

080027e8 <HAL_NVIC_SetPriorityGrouping>:
  * @note   When the NVIC_PriorityGroup_0 is selected, IRQ preemption is no more possible. 
  *         The pending IRQ priority will be managed only by the subpriority. 
  * @retval None
  */
void HAL_NVIC_SetPriorityGrouping(uint32_t PriorityGroup)
{
 80027e8:	b580      	push	{r7, lr}
 80027ea:	b082      	sub	sp, #8
 80027ec:	af00      	add	r7, sp, #0
 80027ee:	6078      	str	r0, [r7, #4]
  /* Check the parameters */
  assert_param(IS_NVIC_PRIORITY_GROUP(PriorityGroup));
  
  /* Set the PRIGROUP[10:8] bits according to the PriorityGroup parameter value */
  NVIC_SetPriorityGrouping(PriorityGroup);
 80027f0:	6878      	ldr	r0, [r7, #4]
 80027f2:	f7ff ff29 	bl	8002648 <__NVIC_SetPriorityGrouping>
}
 80027f6:	bf00      	nop
 80027f8:	3708      	adds	r7, #8
 80027fa:	46bd      	mov	sp, r7
 80027fc:	bd80      	pop	{r7, pc}

080027fe <HAL_NVIC_SetPriority>:
  *         This parameter can be a value between 0 and 15
  *         A lower priority value indicates a higher priority.          
  * @retval None
  */
void HAL_NVIC_SetPriority(IRQn_Type IRQn, uint32_t PreemptPriority, uint32_t SubPriority)
{ 
 80027fe:	b580      	push	{r7, lr}
 8002800:	b086      	sub	sp, #24
 8002802:	af00      	add	r7, sp, #0
 8002804:	4603      	mov	r3, r0
 8002806:	60b9      	str	r1, [r7, #8]
 8002808:	607a      	str	r2, [r7, #4]
 800280a:	73fb      	strb	r3, [r7, #15]
  uint32_t prioritygroup = 0x00U;
 800280c:	2300      	movs	r3, #0
 800280e:	617b      	str	r3, [r7, #20]
  
  /* Check the parameters */
  assert_param(IS_NVIC_SUB_PRIORITY(SubPriority));
  assert_param(IS_NVIC_PREEMPTION_PRIORITY(PreemptPriority));
  
  prioritygroup = NVIC_GetPriorityGrouping();
 8002810:	f7ff ff3e 	bl	8002690 <__NVIC_GetPriorityGrouping>
 8002814:	6178      	str	r0, [r7, #20]
  
  NVIC_SetPriority(IRQn, NVIC_EncodePriority(prioritygroup, PreemptPriority, SubPriority));
 8002816:	687a      	ldr	r2, [r7, #4]
 8002818:	68b9      	ldr	r1, [r7, #8]
 800281a:	6978      	ldr	r0, [r7, #20]
 800281c:	f7ff ff8e 	bl	800273c <NVIC_EncodePriority>
 8002820:	4602      	mov	r2, r0
 8002822:	f997 300f 	ldrsb.w	r3, [r7, #15]
 8002826:	4611      	mov	r1, r2
 8002828:	4618      	mov	r0, r3
 800282a:	f7ff ff5d 	bl	80026e8 <__NVIC_SetPriority>
}
 800282e:	bf00      	nop
 8002830:	3718      	adds	r7, #24
 8002832:	46bd      	mov	sp, r7
 8002834:	bd80      	pop	{r7, pc}

08002836 <HAL_NVIC_EnableIRQ>:
  *         This parameter can be an enumerator of IRQn_Type enumeration
  *         (For the complete STM32 Devices IRQ Channels list, please refer to the appropriate CMSIS device file (stm32f4xxxx.h))
  * @retval None
  */
void HAL_NVIC_EnableIRQ(IRQn_Type IRQn)
{
 8002836:	b580      	push	{r7, lr}
 8002838:	b082      	sub	sp, #8
 800283a:	af00      	add	r7, sp, #0
 800283c:	4603      	mov	r3, r0
 800283e:	71fb      	strb	r3, [r7, #7]
  /* Check the parameters */
  assert_param(IS_NVIC_DEVICE_IRQ(IRQn));
  
  /* Enable interrupt */
  NVIC_EnableIRQ(IRQn);
 8002840:	f997 3007 	ldrsb.w	r3, [r7, #7]
 8002844:	4618      	mov	r0, r3
 8002846:	f7ff ff31 	bl	80026ac <__NVIC_EnableIRQ>
}
 800284a:	bf00      	nop
 800284c:	3708      	adds	r7, #8
 800284e:	46bd      	mov	sp, r7
 8002850:	bd80      	pop	{r7, pc}

08002852 <HAL_SYSTICK_Config>:
  * @param  TicksNumb Specifies the ticks Number of ticks between two interrupts.
  * @retval status:  - 0  Function succeeded.
  *                  - 1  Function failed.
  */
uint32_t HAL_SYSTICK_Config(uint32_t TicksNumb)
{
 8002852:	b580      	push	{r7, lr}
 8002854:	b082      	sub	sp, #8
 8002856:	af00      	add	r7, sp, #0
 8002858:	6078      	str	r0, [r7, #4]
   return SysTick_Config(TicksNumb);
 800285a:	6878      	ldr	r0, [r7, #4]
 800285c:	f7ff ffa2 	bl	80027a4 <SysTick_Config>
 8002860:	4603      	mov	r3, r0
}
 8002862:	4618      	mov	r0, r3
 8002864:	3708      	adds	r7, #8
 8002866:	46bd      	mov	sp, r7
 8002868:	bd80      	pop	{r7, pc}

0800286a <HAL_DMA_Abort>:
  *        and the Stream will be effectively disabled only after the transfer of
  *        this single data is finished.  
  * @retval HAL status
  */
HAL_StatusTypeDef HAL_DMA_Abort(DMA_HandleTypeDef *hdma)
{
 800286a:	b580      	push	{r7, lr}
 800286c:	b084      	sub	sp, #16
 800286e:	af00      	add	r7, sp, #0
 8002870:	6078      	str	r0, [r7, #4]
  /* calculate DMA base and stream number */
  DMA_Base_Registers *regs = (DMA_Base_Registers *)hdma->StreamBaseAddress;
 8002872:	687b      	ldr	r3, [r7, #4]
 8002874:	6d9b      	ldr	r3, [r3, #88]	; 0x58
 8002876:	60fb      	str	r3, [r7, #12]
  
  uint32_t tickstart = HAL_GetTick();
 8002878:	f7ff feb6 	bl	80025e8 <HAL_GetTick>
 800287c:	60b8      	str	r0, [r7, #8]
  
  if(hdma->State != HAL_DMA_STATE_BUSY)
 800287e:	687b      	ldr	r3, [r7, #4]
 8002880:	f893 3035 	ldrb.w	r3, [r3, #53]	; 0x35
 8002884:	b2db      	uxtb	r3, r3
 8002886:	2b02      	cmp	r3, #2
 8002888:	d008      	beq.n	800289c <HAL_DMA_Abort+0x32>
  {
    hdma->ErrorCode = HAL_DMA_ERROR_NO_XFER;
 800288a:	687b      	ldr	r3, [r7, #4]
 800288c:	2280      	movs	r2, #128	; 0x80
 800288e:	655a      	str	r2, [r3, #84]	; 0x54
    
    /* Process Unlocked */
    __HAL_UNLOCK(hdma);
 8002890:	687b      	ldr	r3, [r7, #4]
 8002892:	2200      	movs	r2, #0
 8002894:	f883 2034 	strb.w	r2, [r3, #52]	; 0x34
    
    return HAL_ERROR;
 8002898:	2301      	movs	r3, #1
 800289a:	e052      	b.n	8002942 <HAL_DMA_Abort+0xd8>
  }
  else
  {
    /* Disable all the transfer interrupts */
    hdma->Instance->CR  &= ~(DMA_IT_TC | DMA_IT_TE | DMA_IT_DME);
 800289c:	687b      	ldr	r3, [r7, #4]
 800289e:	681b      	ldr	r3, [r3, #0]
 80028a0:	681a      	ldr	r2, [r3, #0]
 80028a2:	687b      	ldr	r3, [r7, #4]
 80028a4:	681b      	ldr	r3, [r3, #0]
 80028a6:	f022 0216 	bic.w	r2, r2, #22
 80028aa:	601a      	str	r2, [r3, #0]
    hdma->Instance->FCR &= ~(DMA_IT_FE);
 80028ac:	687b      	ldr	r3, [r7, #4]
 80028ae:	681b      	ldr	r3, [r3, #0]
 80028b0:	695a      	ldr	r2, [r3, #20]
 80028b2:	687b      	ldr	r3, [r7, #4]
 80028b4:	681b      	ldr	r3, [r3, #0]
 80028b6:	f022 0280 	bic.w	r2, r2, #128	; 0x80
 80028ba:	615a      	str	r2, [r3, #20]
    
    if((hdma->XferHalfCpltCallback != NULL) || (hdma->XferM1HalfCpltCallback != NULL))
 80028bc:	687b      	ldr	r3, [r7, #4]
 80028be:	6c1b      	ldr	r3, [r3, #64]	; 0x40
 80028c0:	2b00      	cmp	r3, #0
 80028c2:	d103      	bne.n	80028cc <HAL_DMA_Abort+0x62>
 80028c4:	687b      	ldr	r3, [r7, #4]
 80028c6:	6c9b      	ldr	r3, [r3, #72]	; 0x48
 80028c8:	2b00      	cmp	r3, #0
 80028ca:	d007      	beq.n	80028dc <HAL_DMA_Abort+0x72>
    {
      hdma->Instance->CR  &= ~(DMA_IT_HT);
 80028cc:	687b      	ldr	r3, [r7, #4]
 80028ce:	681b      	ldr	r3, [r3, #0]
 80028d0:	681a      	ldr	r2, [r3, #0]
 80028d2:	687b      	ldr	r3, [r7, #4]
 80028d4:	681b      	ldr	r3, [r3, #0]
 80028d6:	f022 0208 	bic.w	r2, r2, #8
 80028da:	601a      	str	r2, [r3, #0]
    }
    
    /* Disable the stream */
    __HAL_DMA_DISABLE(hdma);
 80028dc:	687b      	ldr	r3, [r7, #4]
 80028de:	681b      	ldr	r3, [r3, #0]
 80028e0:	681a      	ldr	r2, [r3, #0]
 80028e2:	687b      	ldr	r3, [r7, #4]
 80028e4:	681b      	ldr	r3, [r3, #0]
 80028e6:	f022 0201 	bic.w	r2, r2, #1
 80028ea:	601a      	str	r2, [r3, #0]
    
    /* Check if the DMA Stream is effectively disabled */
    while((hdma->Instance->CR & DMA_SxCR_EN) != RESET)
 80028ec:	e013      	b.n	8002916 <HAL_DMA_Abort+0xac>
    {
      /* Check for the Timeout */
      if((HAL_GetTick() - tickstart ) > HAL_TIMEOUT_DMA_ABORT)
 80028ee:	f7ff fe7b 	bl	80025e8 <HAL_GetTick>
 80028f2:	4602      	mov	r2, r0
 80028f4:	68bb      	ldr	r3, [r7, #8]
 80028f6:	1ad3      	subs	r3, r2, r3
 80028f8:	2b05      	cmp	r3, #5
 80028fa:	d90c      	bls.n	8002916 <HAL_DMA_Abort+0xac>
      {
        /* Update error code */
        hdma->ErrorCode = HAL_DMA_ERROR_TIMEOUT;
 80028fc:	687b      	ldr	r3, [r7, #4]
 80028fe:	2220      	movs	r2, #32
 8002900:	655a      	str	r2, [r3, #84]	; 0x54
        
        /* Change the DMA state */
        hdma->State = HAL_DMA_STATE_TIMEOUT;
 8002902:	687b      	ldr	r3, [r7, #4]
 8002904:	2203      	movs	r2, #3
 8002906:	f883 2035 	strb.w	r2, [r3, #53]	; 0x35
        
        /* Process Unlocked */
        __HAL_UNLOCK(hdma);
 800290a:	687b      	ldr	r3, [r7, #4]
 800290c:	2200      	movs	r2, #0
 800290e:	f883 2034 	strb.w	r2, [r3, #52]	; 0x34
        
        return HAL_TIMEOUT;
 8002912:	2303      	movs	r3, #3
 8002914:	e015      	b.n	8002942 <HAL_DMA_Abort+0xd8>
    while((hdma->Instance->CR & DMA_SxCR_EN) != RESET)
 8002916:	687b      	ldr	r3, [r7, #4]
 8002918:	681b      	ldr	r3, [r3, #0]
 800291a:	681b      	ldr	r3, [r3, #0]
 800291c:	f003 0301 	and.w	r3, r3, #1
 8002920:	2b00      	cmp	r3, #0
 8002922:	d1e4      	bne.n	80028ee <HAL_DMA_Abort+0x84>
      }
    }
    
    /* Clear all interrupt flags at correct offset within the register */
    regs->IFCR = 0x3FU << hdma->StreamIndex;
 8002924:	687b      	ldr	r3, [r7, #4]
 8002926:	6ddb      	ldr	r3, [r3, #92]	; 0x5c
 8002928:	223f      	movs	r2, #63	; 0x3f
 800292a:	409a      	lsls	r2, r3
 800292c:	68fb      	ldr	r3, [r7, #12]
 800292e:	609a      	str	r2, [r3, #8]
    
    /* Change the DMA state*/
    hdma->State = HAL_DMA_STATE_READY;
 8002930:	687b      	ldr	r3, [r7, #4]
 8002932:	2201      	movs	r2, #1
 8002934:	f883 2035 	strb.w	r2, [r3, #53]	; 0x35
    
    /* Process Unlocked */
    __HAL_UNLOCK(hdma);
 8002938:	687b      	ldr	r3, [r7, #4]
 800293a:	2200      	movs	r2, #0
 800293c:	f883 2034 	strb.w	r2, [r3, #52]	; 0x34
  }
  return HAL_OK;
 8002940:	2300      	movs	r3, #0
}
 8002942:	4618      	mov	r0, r3
 8002944:	3710      	adds	r7, #16
 8002946:	46bd      	mov	sp, r7
 8002948:	bd80      	pop	{r7, pc}

0800294a <HAL_DMA_Abort_IT>:
  * @param  hdma   pointer to a DMA_HandleTypeDef structure that contains
  *                 the configuration information for the specified DMA Stream.
  * @retval HAL status
  */
HAL_StatusTypeDef HAL_DMA_Abort_IT(DMA_HandleTypeDef *hdma)
{
 800294a:	b480      	push	{r7}
 800294c:	b083      	sub	sp, #12
 800294e:	af00      	add	r7, sp, #0
 8002950:	6078      	str	r0, [r7, #4]
  if(hdma->State != HAL_DMA_STATE_BUSY)
 8002952:	687b      	ldr	r3, [r7, #4]
 8002954:	f893 3035 	ldrb.w	r3, [r3, #53]	; 0x35
 8002958:	b2db      	uxtb	r3, r3
 800295a:	2b02      	cmp	r3, #2
 800295c:	d004      	beq.n	8002968 <HAL_DMA_Abort_IT+0x1e>
  {
    hdma->ErrorCode = HAL_DMA_ERROR_NO_XFER;
 800295e:	687b      	ldr	r3, [r7, #4]
 8002960:	2280      	movs	r2, #128	; 0x80
 8002962:	655a      	str	r2, [r3, #84]	; 0x54
    return HAL_ERROR;
 8002964:	2301      	movs	r3, #1
 8002966:	e00c      	b.n	8002982 <HAL_DMA_Abort_IT+0x38>
  }
  else
  {
    /* Set Abort State  */
    hdma->State = HAL_DMA_STATE_ABORT;
 8002968:	687b      	ldr	r3, [r7, #4]
 800296a:	2205      	movs	r2, #5
 800296c:	f883 2035 	strb.w	r2, [r3, #53]	; 0x35
    
    /* Disable the stream */
    __HAL_DMA_DISABLE(hdma);
 8002970:	687b      	ldr	r3, [r7, #4]
 8002972:	681b      	ldr	r3, [r3, #0]
 8002974:	681a      	ldr	r2, [r3, #0]
 8002976:	687b      	ldr	r3, [r7, #4]
 8002978:	681b      	ldr	r3, [r3, #0]
 800297a:	f022 0201 	bic.w	r2, r2, #1
 800297e:	601a      	str	r2, [r3, #0]
  }

  return HAL_OK;
 8002980:	2300      	movs	r3, #0
}
 8002982:	4618      	mov	r0, r3
 8002984:	370c      	adds	r7, #12
 8002986:	46bd      	mov	sp, r7
 8002988:	f85d 7b04 	ldr.w	r7, [sp], #4
 800298c:	4770      	bx	lr
	...

08002990 <HAL_GPIO_Init>:
  * @param  GPIO_Init pointer to a GPIO_InitTypeDef structure that contains
  *         the configuration information for the specified GPIO peripheral.
  * @retval None
  */
void HAL_GPIO_Init(GPIO_TypeDef  *GPIOx, GPIO_InitTypeDef *GPIO_Init)
{
 8002990:	b480      	push	{r7}
 8002992:	b089      	sub	sp, #36	; 0x24
 8002994:	af00      	add	r7, sp, #0
 8002996:	6078      	str	r0, [r7, #4]
 8002998:	6039      	str	r1, [r7, #0]
  uint32_t position;
  uint32_t ioposition = 0x00U;
 800299a:	2300      	movs	r3, #0
 800299c:	617b      	str	r3, [r7, #20]
  uint32_t iocurrent = 0x00U;
 800299e:	2300      	movs	r3, #0
 80029a0:	613b      	str	r3, [r7, #16]
  uint32_t temp = 0x00U;
 80029a2:	2300      	movs	r3, #0
 80029a4:	61bb      	str	r3, [r7, #24]
  assert_param(IS_GPIO_ALL_INSTANCE(GPIOx));
  assert_param(IS_GPIO_PIN(GPIO_Init->Pin));
  assert_param(IS_GPIO_MODE(GPIO_Init->Mode));

  /* Configure the port pins */
  for(position = 0U; position < GPIO_NUMBER; position++)
 80029a6:	2300      	movs	r3, #0
 80029a8:	61fb      	str	r3, [r7, #28]
 80029aa:	e177      	b.n	8002c9c <HAL_GPIO_Init+0x30c>
  {
    /* Get the IO position */
    ioposition = 0x01U << position;
 80029ac:	2201      	movs	r2, #1
 80029ae:	69fb      	ldr	r3, [r7, #28]
 80029b0:	fa02 f303 	lsl.w	r3, r2, r3
 80029b4:	617b      	str	r3, [r7, #20]
    /* Get the current IO position */
    iocurrent = (uint32_t)(GPIO_Init->Pin) & ioposition;
 80029b6:	683b      	ldr	r3, [r7, #0]
 80029b8:	681b      	ldr	r3, [r3, #0]
 80029ba:	697a      	ldr	r2, [r7, #20]
 80029bc:	4013      	ands	r3, r2
 80029be:	613b      	str	r3, [r7, #16]

    if(iocurrent == ioposition)
 80029c0:	693a      	ldr	r2, [r7, #16]
 80029c2:	697b      	ldr	r3, [r7, #20]
 80029c4:	429a      	cmp	r2, r3
 80029c6:	f040 8166 	bne.w	8002c96 <HAL_GPIO_Init+0x306>
    {
      /*--------------------- GPIO Mode Configuration ------------------------*/
      /* In case of Output or Alternate function mode selection */
      if(((GPIO_Init->Mode & GPIO_MODE) == MODE_OUTPUT) || \
 80029ca:	683b      	ldr	r3, [r7, #0]
 80029cc:	685b      	ldr	r3, [r3, #4]
 80029ce:	f003 0303 	and.w	r3, r3, #3
 80029d2:	2b01      	cmp	r3, #1
 80029d4:	d005      	beq.n	80029e2 <HAL_GPIO_Init+0x52>
          (GPIO_Init->Mode & GPIO_MODE) == MODE_AF)
 80029d6:	683b      	ldr	r3, [r7, #0]
 80029d8:	685b      	ldr	r3, [r3, #4]
 80029da:	f003 0303 	and.w	r3, r3, #3
      if(((GPIO_Init->Mode & GPIO_MODE) == MODE_OUTPUT) || \
 80029de:	2b02      	cmp	r3, #2
 80029e0:	d130      	bne.n	8002a44 <HAL_GPIO_Init+0xb4>
      {
        /* Check the Speed parameter */
        assert_param(IS_GPIO_SPEED(GPIO_Init->Speed));
        /* Configure the IO Speed */
        temp = GPIOx->OSPEEDR; 
 80029e2:	687b      	ldr	r3, [r7, #4]
 80029e4:	689b      	ldr	r3, [r3, #8]
 80029e6:	61bb      	str	r3, [r7, #24]
        temp &= ~(GPIO_OSPEEDER_OSPEEDR0 << (position * 2U));
 80029e8:	69fb      	ldr	r3, [r7, #28]
 80029ea:	005b      	lsls	r3, r3, #1
 80029ec:	2203      	movs	r2, #3
 80029ee:	fa02 f303 	lsl.w	r3, r2, r3
 80029f2:	43db      	mvns	r3, r3
 80029f4:	69ba      	ldr	r2, [r7, #24]
 80029f6:	4013      	ands	r3, r2
 80029f8:	61bb      	str	r3, [r7, #24]
        temp |= (GPIO_Init->Speed << (position * 2U));
 80029fa:	683b      	ldr	r3, [r7, #0]
 80029fc:	68da      	ldr	r2, [r3, #12]
 80029fe:	69fb      	ldr	r3, [r7, #28]
 8002a00:	005b      	lsls	r3, r3, #1
 8002a02:	fa02 f303 	lsl.w	r3, r2, r3
 8002a06:	69ba      	ldr	r2, [r7, #24]
 8002a08:	4313      	orrs	r3, r2
 8002a0a:	61bb      	str	r3, [r7, #24]
        GPIOx->OSPEEDR = temp;
 8002a0c:	687b      	ldr	r3, [r7, #4]
 8002a0e:	69ba      	ldr	r2, [r7, #24]
 8002a10:	609a      	str	r2, [r3, #8]

        /* Configure the IO Output Type */
        temp = GPIOx->OTYPER;
 8002a12:	687b      	ldr	r3, [r7, #4]
 8002a14:	685b      	ldr	r3, [r3, #4]
 8002a16:	61bb      	str	r3, [r7, #24]
        temp &= ~(GPIO_OTYPER_OT_0 << position) ;
 8002a18:	2201      	movs	r2, #1
 8002a1a:	69fb      	ldr	r3, [r7, #28]
 8002a1c:	fa02 f303 	lsl.w	r3, r2, r3
 8002a20:	43db      	mvns	r3, r3
 8002a22:	69ba      	ldr	r2, [r7, #24]
 8002a24:	4013      	ands	r3, r2
 8002a26:	61bb      	str	r3, [r7, #24]
        temp |= (((GPIO_Init->Mode & OUTPUT_TYPE) >> OUTPUT_TYPE_Pos) << position);
 8002a28:	683b      	ldr	r3, [r7, #0]
 8002a2a:	685b      	ldr	r3, [r3, #4]
 8002a2c:	091b      	lsrs	r3, r3, #4
 8002a2e:	f003 0201 	and.w	r2, r3, #1
 8002a32:	69fb      	ldr	r3, [r7, #28]
 8002a34:	fa02 f303 	lsl.w	r3, r2, r3
 8002a38:	69ba      	ldr	r2, [r7, #24]
 8002a3a:	4313      	orrs	r3, r2
 8002a3c:	61bb      	str	r3, [r7, #24]
        GPIOx->OTYPER = temp;
 8002a3e:	687b      	ldr	r3, [r7, #4]
 8002a40:	69ba      	ldr	r2, [r7, #24]
 8002a42:	605a      	str	r2, [r3, #4]
       }

      if((GPIO_Init->Mode & GPIO_MODE) != MODE_ANALOG)
 8002a44:	683b      	ldr	r3, [r7, #0]
 8002a46:	685b      	ldr	r3, [r3, #4]
 8002a48:	f003 0303 	and.w	r3, r3, #3
 8002a4c:	2b03      	cmp	r3, #3
 8002a4e:	d017      	beq.n	8002a80 <HAL_GPIO_Init+0xf0>
      {
        /* Check the parameters */
        assert_param(IS_GPIO_PULL(GPIO_Init->Pull));
        
        /* Activate the Pull-up or Pull down resistor for the current IO */
        temp = GPIOx->PUPDR;
 8002a50:	687b      	ldr	r3, [r7, #4]
 8002a52:	68db      	ldr	r3, [r3, #12]
 8002a54:	61bb      	str	r3, [r7, #24]
        temp &= ~(GPIO_PUPDR_PUPDR0 << (position * 2U));
 8002a56:	69fb      	ldr	r3, [r7, #28]
 8002a58:	005b      	lsls	r3, r3, #1
 8002a5a:	2203      	movs	r2, #3
 8002a5c:	fa02 f303 	lsl.w	r3, r2, r3
 8002a60:	43db      	mvns	r3, r3
 8002a62:	69ba      	ldr	r2, [r7, #24]
 8002a64:	4013      	ands	r3, r2
 8002a66:	61bb      	str	r3, [r7, #24]
        temp |= ((GPIO_Init->Pull) << (position * 2U));
 8002a68:	683b      	ldr	r3, [r7, #0]
 8002a6a:	689a      	ldr	r2, [r3, #8]
 8002a6c:	69fb      	ldr	r3, [r7, #28]
 8002a6e:	005b      	lsls	r3, r3, #1
 8002a70:	fa02 f303 	lsl.w	r3, r2, r3
 8002a74:	69ba      	ldr	r2, [r7, #24]
 8002a76:	4313      	orrs	r3, r2
 8002a78:	61bb      	str	r3, [r7, #24]
        GPIOx->PUPDR = temp;
 8002a7a:	687b      	ldr	r3, [r7, #4]
 8002a7c:	69ba      	ldr	r2, [r7, #24]
 8002a7e:	60da      	str	r2, [r3, #12]
      }

      /* In case of Alternate function mode selection */
      if((GPIO_Init->Mode & GPIO_MODE) == MODE_AF)
 8002a80:	683b      	ldr	r3, [r7, #0]
 8002a82:	685b      	ldr	r3, [r3, #4]
 8002a84:	f003 0303 	and.w	r3, r3, #3
 8002a88:	2b02      	cmp	r3, #2
 8002a8a:	d123      	bne.n	8002ad4 <HAL_GPIO_Init+0x144>
      {
        /* Check the Alternate function parameter */
        assert_param(IS_GPIO_AF(GPIO_Init->Alternate));
        /* Configure Alternate function mapped with the current IO */
        temp = GPIOx->AFR[position >> 3U];
 8002a8c:	69fb      	ldr	r3, [r7, #28]
 8002a8e:	08da      	lsrs	r2, r3, #3
 8002a90:	687b      	ldr	r3, [r7, #4]
 8002a92:	3208      	adds	r2, #8
 8002a94:	f853 3022 	ldr.w	r3, [r3, r2, lsl #2]
 8002a98:	61bb      	str	r3, [r7, #24]
        temp &= ~(0xFU << ((uint32_t)(position & 0x07U) * 4U)) ;
 8002a9a:	69fb      	ldr	r3, [r7, #28]
 8002a9c:	f003 0307 	and.w	r3, r3, #7
 8002aa0:	009b      	lsls	r3, r3, #2
 8002aa2:	220f      	movs	r2, #15
 8002aa4:	fa02 f303 	lsl.w	r3, r2, r3
 8002aa8:	43db      	mvns	r3, r3
 8002aaa:	69ba      	ldr	r2, [r7, #24]
 8002aac:	4013      	ands	r3, r2
 8002aae:	61bb      	str	r3, [r7, #24]
        temp |= ((uint32_t)(GPIO_Init->Alternate) << (((uint32_t)position & 0x07U) * 4U));
 8002ab0:	683b      	ldr	r3, [r7, #0]
 8002ab2:	691a      	ldr	r2, [r3, #16]
 8002ab4:	69fb      	ldr	r3, [r7, #28]
 8002ab6:	f003 0307 	and.w	r3, r3, #7
 8002aba:	009b      	lsls	r3, r3, #2
 8002abc:	fa02 f303 	lsl.w	r3, r2, r3
 8002ac0:	69ba      	ldr	r2, [r7, #24]
 8002ac2:	4313      	orrs	r3, r2
 8002ac4:	61bb      	str	r3, [r7, #24]
        GPIOx->AFR[position >> 3U] = temp;
 8002ac6:	69fb      	ldr	r3, [r7, #28]
 8002ac8:	08da      	lsrs	r2, r3, #3
 8002aca:	687b      	ldr	r3, [r7, #4]
 8002acc:	3208      	adds	r2, #8
 8002ace:	69b9      	ldr	r1, [r7, #24]
 8002ad0:	f843 1022 	str.w	r1, [r3, r2, lsl #2]
      }

      /* Configure IO Direction mode (Input, Output, Alternate or Analog) */
      temp = GPIOx->MODER;
 8002ad4:	687b      	ldr	r3, [r7, #4]
 8002ad6:	681b      	ldr	r3, [r3, #0]
 8002ad8:	61bb      	str	r3, [r7, #24]
      temp &= ~(GPIO_MODER_MODER0 << (position * 2U));
 8002ada:	69fb      	ldr	r3, [r7, #28]
 8002adc:	005b      	lsls	r3, r3, #1
 8002ade:	2203      	movs	r2, #3
 8002ae0:	fa02 f303 	lsl.w	r3, r2, r3
 8002ae4:	43db      	mvns	r3, r3
 8002ae6:	69ba      	ldr	r2, [r7, #24]
 8002ae8:	4013      	ands	r3, r2
 8002aea:	61bb      	str	r3, [r7, #24]
      temp |= ((GPIO_Init->Mode & GPIO_MODE) << (position * 2U));
 8002aec:	683b      	ldr	r3, [r7, #0]
 8002aee:	685b      	ldr	r3, [r3, #4]
 8002af0:	f003 0203 	and.w	r2, r3, #3
 8002af4:	69fb      	ldr	r3, [r7, #28]
 8002af6:	005b      	lsls	r3, r3, #1
 8002af8:	fa02 f303 	lsl.w	r3, r2, r3
 8002afc:	69ba      	ldr	r2, [r7, #24]
 8002afe:	4313      	orrs	r3, r2
 8002b00:	61bb      	str	r3, [r7, #24]
      GPIOx->MODER = temp;
 8002b02:	687b      	ldr	r3, [r7, #4]
 8002b04:	69ba      	ldr	r2, [r7, #24]
 8002b06:	601a      	str	r2, [r3, #0]

      /*--------------------- EXTI Mode Configuration ------------------------*/
      /* Configure the External Interrupt or event for the current IO */
      if((GPIO_Init->Mode & EXTI_MODE) != 0x00U)
 8002b08:	683b      	ldr	r3, [r7, #0]
 8002b0a:	685b      	ldr	r3, [r3, #4]
 8002b0c:	f403 3340 	and.w	r3, r3, #196608	; 0x30000
 8002b10:	2b00      	cmp	r3, #0
 8002b12:	f000 80c0 	beq.w	8002c96 <HAL_GPIO_Init+0x306>
      {
        /* Enable SYSCFG Clock */
        __HAL_RCC_SYSCFG_CLK_ENABLE();
 8002b16:	2300      	movs	r3, #0
 8002b18:	60fb      	str	r3, [r7, #12]
 8002b1a:	4b66      	ldr	r3, [pc, #408]	; (8002cb4 <HAL_GPIO_Init+0x324>)
 8002b1c:	6c5b      	ldr	r3, [r3, #68]	; 0x44
 8002b1e:	4a65      	ldr	r2, [pc, #404]	; (8002cb4 <HAL_GPIO_Init+0x324>)
 8002b20:	f443 4380 	orr.w	r3, r3, #16384	; 0x4000
 8002b24:	6453      	str	r3, [r2, #68]	; 0x44
 8002b26:	4b63      	ldr	r3, [pc, #396]	; (8002cb4 <HAL_GPIO_Init+0x324>)
 8002b28:	6c5b      	ldr	r3, [r3, #68]	; 0x44
 8002b2a:	f403 4380 	and.w	r3, r3, #16384	; 0x4000
 8002b2e:	60fb      	str	r3, [r7, #12]
 8002b30:	68fb      	ldr	r3, [r7, #12]

        temp = SYSCFG->EXTICR[position >> 2U];
 8002b32:	4a61      	ldr	r2, [pc, #388]	; (8002cb8 <HAL_GPIO_Init+0x328>)
 8002b34:	69fb      	ldr	r3, [r7, #28]
 8002b36:	089b      	lsrs	r3, r3, #2
 8002b38:	3302      	adds	r3, #2
 8002b3a:	f852 3023 	ldr.w	r3, [r2, r3, lsl #2]
 8002b3e:	61bb      	str	r3, [r7, #24]
        temp &= ~(0x0FU << (4U * (position & 0x03U)));
 8002b40:	69fb      	ldr	r3, [r7, #28]
 8002b42:	f003 0303 	and.w	r3, r3, #3
 8002b46:	009b      	lsls	r3, r3, #2
 8002b48:	220f      	movs	r2, #15
 8002b4a:	fa02 f303 	lsl.w	r3, r2, r3
 8002b4e:	43db      	mvns	r3, r3
 8002b50:	69ba      	ldr	r2, [r7, #24]
 8002b52:	4013      	ands	r3, r2
 8002b54:	61bb      	str	r3, [r7, #24]
        temp |= ((uint32_t)(GPIO_GET_INDEX(GPIOx)) << (4U * (position & 0x03U)));
 8002b56:	687b      	ldr	r3, [r7, #4]
 8002b58:	4a58      	ldr	r2, [pc, #352]	; (8002cbc <HAL_GPIO_Init+0x32c>)
 8002b5a:	4293      	cmp	r3, r2
 8002b5c:	d037      	beq.n	8002bce <HAL_GPIO_Init+0x23e>
 8002b5e:	687b      	ldr	r3, [r7, #4]
 8002b60:	4a57      	ldr	r2, [pc, #348]	; (8002cc0 <HAL_GPIO_Init+0x330>)
 8002b62:	4293      	cmp	r3, r2
 8002b64:	d031      	beq.n	8002bca <HAL_GPIO_Init+0x23a>
 8002b66:	687b      	ldr	r3, [r7, #4]
 8002b68:	4a56      	ldr	r2, [pc, #344]	; (8002cc4 <HAL_GPIO_Init+0x334>)
 8002b6a:	4293      	cmp	r3, r2
 8002b6c:	d02b      	beq.n	8002bc6 <HAL_GPIO_Init+0x236>
 8002b6e:	687b      	ldr	r3, [r7, #4]
 8002b70:	4a55      	ldr	r2, [pc, #340]	; (8002cc8 <HAL_GPIO_Init+0x338>)
 8002b72:	4293      	cmp	r3, r2
 8002b74:	d025      	beq.n	8002bc2 <HAL_GPIO_Init+0x232>
 8002b76:	687b      	ldr	r3, [r7, #4]
 8002b78:	4a54      	ldr	r2, [pc, #336]	; (8002ccc <HAL_GPIO_Init+0x33c>)
 8002b7a:	4293      	cmp	r3, r2
 8002b7c:	d01f      	beq.n	8002bbe <HAL_GPIO_Init+0x22e>
 8002b7e:	687b      	ldr	r3, [r7, #4]
 8002b80:	4a53      	ldr	r2, [pc, #332]	; (8002cd0 <HAL_GPIO_Init+0x340>)
 8002b82:	4293      	cmp	r3, r2
 8002b84:	d019      	beq.n	8002bba <HAL_GPIO_Init+0x22a>
 8002b86:	687b      	ldr	r3, [r7, #4]
 8002b88:	4a52      	ldr	r2, [pc, #328]	; (8002cd4 <HAL_GPIO_Init+0x344>)
 8002b8a:	4293      	cmp	r3, r2
 8002b8c:	d013      	beq.n	8002bb6 <HAL_GPIO_Init+0x226>
 8002b8e:	687b      	ldr	r3, [r7, #4]
 8002b90:	4a51      	ldr	r2, [pc, #324]	; (8002cd8 <HAL_GPIO_Init+0x348>)
 8002b92:	4293      	cmp	r3, r2
 8002b94:	d00d      	beq.n	8002bb2 <HAL_GPIO_Init+0x222>
 8002b96:	687b      	ldr	r3, [r7, #4]
 8002b98:	4a50      	ldr	r2, [pc, #320]	; (8002cdc <HAL_GPIO_Init+0x34c>)
 8002b9a:	4293      	cmp	r3, r2
 8002b9c:	d007      	beq.n	8002bae <HAL_GPIO_Init+0x21e>
 8002b9e:	687b      	ldr	r3, [r7, #4]
 8002ba0:	4a4f      	ldr	r2, [pc, #316]	; (8002ce0 <HAL_GPIO_Init+0x350>)
 8002ba2:	4293      	cmp	r3, r2
 8002ba4:	d101      	bne.n	8002baa <HAL_GPIO_Init+0x21a>
 8002ba6:	2309      	movs	r3, #9
 8002ba8:	e012      	b.n	8002bd0 <HAL_GPIO_Init+0x240>
 8002baa:	230a      	movs	r3, #10
 8002bac:	e010      	b.n	8002bd0 <HAL_GPIO_Init+0x240>
 8002bae:	2308      	movs	r3, #8
 8002bb0:	e00e      	b.n	8002bd0 <HAL_GPIO_Init+0x240>
 8002bb2:	2307      	movs	r3, #7
 8002bb4:	e00c      	b.n	8002bd0 <HAL_GPIO_Init+0x240>
 8002bb6:	2306      	movs	r3, #6
 8002bb8:	e00a      	b.n	8002bd0 <HAL_GPIO_Init+0x240>
 8002bba:	2305      	movs	r3, #5
 8002bbc:	e008      	b.n	8002bd0 <HAL_GPIO_Init+0x240>
 8002bbe:	2304      	movs	r3, #4
 8002bc0:	e006      	b.n	8002bd0 <HAL_GPIO_Init+0x240>
 8002bc2:	2303      	movs	r3, #3
 8002bc4:	e004      	b.n	8002bd0 <HAL_GPIO_Init+0x240>
 8002bc6:	2302      	movs	r3, #2
 8002bc8:	e002      	b.n	8002bd0 <HAL_GPIO_Init+0x240>
 8002bca:	2301      	movs	r3, #1
 8002bcc:	e000      	b.n	8002bd0 <HAL_GPIO_Init+0x240>
 8002bce:	2300      	movs	r3, #0
 8002bd0:	69fa      	ldr	r2, [r7, #28]
 8002bd2:	f002 0203 	and.w	r2, r2, #3
 8002bd6:	0092      	lsls	r2, r2, #2
 8002bd8:	4093      	lsls	r3, r2
 8002bda:	69ba      	ldr	r2, [r7, #24]
 8002bdc:	4313      	orrs	r3, r2
 8002bde:	61bb      	str	r3, [r7, #24]
        SYSCFG->EXTICR[position >> 2U] = temp;
 8002be0:	4935      	ldr	r1, [pc, #212]	; (8002cb8 <HAL_GPIO_Init+0x328>)
 8002be2:	69fb      	ldr	r3, [r7, #28]
 8002be4:	089b      	lsrs	r3, r3, #2
 8002be6:	3302      	adds	r3, #2
 8002be8:	69ba      	ldr	r2, [r7, #24]
 8002bea:	f841 2023 	str.w	r2, [r1, r3, lsl #2]

        /* Clear Rising Falling edge configuration */
        temp = EXTI->RTSR;
 8002bee:	4b3d      	ldr	r3, [pc, #244]	; (8002ce4 <HAL_GPIO_Init+0x354>)
 8002bf0:	689b      	ldr	r3, [r3, #8]
 8002bf2:	61bb      	str	r3, [r7, #24]
        temp &= ~((uint32_t)iocurrent);
 8002bf4:	693b      	ldr	r3, [r7, #16]
 8002bf6:	43db      	mvns	r3, r3
 8002bf8:	69ba      	ldr	r2, [r7, #24]
 8002bfa:	4013      	ands	r3, r2
 8002bfc:	61bb      	str	r3, [r7, #24]
        if((GPIO_Init->Mode & TRIGGER_RISING) != 0x00U)
 8002bfe:	683b      	ldr	r3, [r7, #0]
 8002c00:	685b      	ldr	r3, [r3, #4]
 8002c02:	f403 1380 	and.w	r3, r3, #1048576	; 0x100000
 8002c06:	2b00      	cmp	r3, #0
 8002c08:	d003      	beq.n	8002c12 <HAL_GPIO_Init+0x282>
        {
          temp |= iocurrent;
 8002c0a:	69ba      	ldr	r2, [r7, #24]
 8002c0c:	693b      	ldr	r3, [r7, #16]
 8002c0e:	4313      	orrs	r3, r2
 8002c10:	61bb      	str	r3, [r7, #24]
        }
        EXTI->RTSR = temp;
 8002c12:	4a34      	ldr	r2, [pc, #208]	; (8002ce4 <HAL_GPIO_Init+0x354>)
 8002c14:	69bb      	ldr	r3, [r7, #24]
 8002c16:	6093      	str	r3, [r2, #8]

        temp = EXTI->FTSR;
 8002c18:	4b32      	ldr	r3, [pc, #200]	; (8002ce4 <HAL_GPIO_Init+0x354>)
 8002c1a:	68db      	ldr	r3, [r3, #12]
 8002c1c:	61bb      	str	r3, [r7, #24]
        temp &= ~((uint32_t)iocurrent);
 8002c1e:	693b      	ldr	r3, [r7, #16]
 8002c20:	43db      	mvns	r3, r3
 8002c22:	69ba      	ldr	r2, [r7, #24]
 8002c24:	4013      	ands	r3, r2
 8002c26:	61bb      	str	r3, [r7, #24]
        if((GPIO_Init->Mode & TRIGGER_FALLING) != 0x00U)
 8002c28:	683b      	ldr	r3, [r7, #0]
 8002c2a:	685b      	ldr	r3, [r3, #4]
 8002c2c:	f403 1300 	and.w	r3, r3, #2097152	; 0x200000
 8002c30:	2b00      	cmp	r3, #0
 8002c32:	d003      	beq.n	8002c3c <HAL_GPIO_Init+0x2ac>
        {
          temp |= iocurrent;
 8002c34:	69ba      	ldr	r2, [r7, #24]
 8002c36:	693b      	ldr	r3, [r7, #16]
 8002c38:	4313      	orrs	r3, r2
 8002c3a:	61bb      	str	r3, [r7, #24]
        }
        EXTI->FTSR = temp;
 8002c3c:	4a29      	ldr	r2, [pc, #164]	; (8002ce4 <HAL_GPIO_Init+0x354>)
 8002c3e:	69bb      	ldr	r3, [r7, #24]
 8002c40:	60d3      	str	r3, [r2, #12]

        temp = EXTI->EMR;
 8002c42:	4b28      	ldr	r3, [pc, #160]	; (8002ce4 <HAL_GPIO_Init+0x354>)
 8002c44:	685b      	ldr	r3, [r3, #4]
 8002c46:	61bb      	str	r3, [r7, #24]
        temp &= ~((uint32_t)iocurrent);
 8002c48:	693b      	ldr	r3, [r7, #16]
 8002c4a:	43db      	mvns	r3, r3
 8002c4c:	69ba      	ldr	r2, [r7, #24]
 8002c4e:	4013      	ands	r3, r2
 8002c50:	61bb      	str	r3, [r7, #24]
        if((GPIO_Init->Mode & EXTI_EVT) != 0x00U)
 8002c52:	683b      	ldr	r3, [r7, #0]
 8002c54:	685b      	ldr	r3, [r3, #4]
 8002c56:	f403 3300 	and.w	r3, r3, #131072	; 0x20000
 8002c5a:	2b00      	cmp	r3, #0
 8002c5c:	d003      	beq.n	8002c66 <HAL_GPIO_Init+0x2d6>
        {
          temp |= iocurrent;
 8002c5e:	69ba      	ldr	r2, [r7, #24]
 8002c60:	693b      	ldr	r3, [r7, #16]
 8002c62:	4313      	orrs	r3, r2
 8002c64:	61bb      	str	r3, [r7, #24]
        }
        EXTI->EMR = temp;
 8002c66:	4a1f      	ldr	r2, [pc, #124]	; (8002ce4 <HAL_GPIO_Init+0x354>)
 8002c68:	69bb      	ldr	r3, [r7, #24]
 8002c6a:	6053      	str	r3, [r2, #4]

        /* Clear EXTI line configuration */
        temp = EXTI->IMR;
 8002c6c:	4b1d      	ldr	r3, [pc, #116]	; (8002ce4 <HAL_GPIO_Init+0x354>)
 8002c6e:	681b      	ldr	r3, [r3, #0]
 8002c70:	61bb      	str	r3, [r7, #24]
        temp &= ~((uint32_t)iocurrent);
 8002c72:	693b      	ldr	r3, [r7, #16]
 8002c74:	43db      	mvns	r3, r3
 8002c76:	69ba      	ldr	r2, [r7, #24]
 8002c78:	4013      	ands	r3, r2
 8002c7a:	61bb      	str	r3, [r7, #24]
        if((GPIO_Init->Mode & EXTI_IT) != 0x00U)
 8002c7c:	683b      	ldr	r3, [r7, #0]
 8002c7e:	685b      	ldr	r3, [r3, #4]
 8002c80:	f403 3380 	and.w	r3, r3, #65536	; 0x10000
 8002c84:	2b00      	cmp	r3, #0
 8002c86:	d003      	beq.n	8002c90 <HAL_GPIO_Init+0x300>
        {
          temp |= iocurrent;
 8002c88:	69ba      	ldr	r2, [r7, #24]
 8002c8a:	693b      	ldr	r3, [r7, #16]
 8002c8c:	4313      	orrs	r3, r2
 8002c8e:	61bb      	str	r3, [r7, #24]
        }
        EXTI->IMR = temp;
 8002c90:	4a14      	ldr	r2, [pc, #80]	; (8002ce4 <HAL_GPIO_Init+0x354>)
 8002c92:	69bb      	ldr	r3, [r7, #24]
 8002c94:	6013      	str	r3, [r2, #0]
  for(position = 0U; position < GPIO_NUMBER; position++)
 8002c96:	69fb      	ldr	r3, [r7, #28]
 8002c98:	3301      	adds	r3, #1
 8002c9a:	61fb      	str	r3, [r7, #28]
 8002c9c:	69fb      	ldr	r3, [r7, #28]
 8002c9e:	2b0f      	cmp	r3, #15
 8002ca0:	f67f ae84 	bls.w	80029ac <HAL_GPIO_Init+0x1c>
      }
    }
  }
}
 8002ca4:	bf00      	nop
 8002ca6:	bf00      	nop
 8002ca8:	3724      	adds	r7, #36	; 0x24
 8002caa:	46bd      	mov	sp, r7
 8002cac:	f85d 7b04 	ldr.w	r7, [sp], #4
 8002cb0:	4770      	bx	lr
 8002cb2:	bf00      	nop
 8002cb4:	40023800 	.word	0x40023800
 8002cb8:	40013800 	.word	0x40013800
 8002cbc:	40020000 	.word	0x40020000
 8002cc0:	40020400 	.word	0x40020400
 8002cc4:	40020800 	.word	0x40020800
 8002cc8:	40020c00 	.word	0x40020c00
 8002ccc:	40021000 	.word	0x40021000
 8002cd0:	40021400 	.word	0x40021400
 8002cd4:	40021800 	.word	0x40021800
 8002cd8:	40021c00 	.word	0x40021c00
 8002cdc:	40022000 	.word	0x40022000
 8002ce0:	40022400 	.word	0x40022400
 8002ce4:	40013c00 	.word	0x40013c00

08002ce8 <HAL_GPIO_WritePin>:
  *            @arg GPIO_PIN_RESET: to clear the port pin
  *            @arg GPIO_PIN_SET: to set the port pin
  * @retval None
  */
void HAL_GPIO_WritePin(GPIO_TypeDef* GPIOx, uint16_t GPIO_Pin, GPIO_PinState PinState)
{
 8002ce8:	b480      	push	{r7}
 8002cea:	b083      	sub	sp, #12
 8002cec:	af00      	add	r7, sp, #0
 8002cee:	6078      	str	r0, [r7, #4]
 8002cf0:	460b      	mov	r3, r1
 8002cf2:	807b      	strh	r3, [r7, #2]
 8002cf4:	4613      	mov	r3, r2
 8002cf6:	707b      	strb	r3, [r7, #1]
  /* Check the parameters */
  assert_param(IS_GPIO_PIN(GPIO_Pin));
  assert_param(IS_GPIO_PIN_ACTION(PinState));

  if(PinState != GPIO_PIN_RESET)
 8002cf8:	787b      	ldrb	r3, [r7, #1]
 8002cfa:	2b00      	cmp	r3, #0
 8002cfc:	d003      	beq.n	8002d06 <HAL_GPIO_WritePin+0x1e>
  {
    GPIOx->BSRR = GPIO_Pin;
 8002cfe:	887a      	ldrh	r2, [r7, #2]
 8002d00:	687b      	ldr	r3, [r7, #4]
 8002d02:	619a      	str	r2, [r3, #24]
  }
  else
  {
    GPIOx->BSRR = (uint32_t)GPIO_Pin << 16U;
  }
}
 8002d04:	e003      	b.n	8002d0e <HAL_GPIO_WritePin+0x26>
    GPIOx->BSRR = (uint32_t)GPIO_Pin << 16U;
 8002d06:	887b      	ldrh	r3, [r7, #2]
 8002d08:	041a      	lsls	r2, r3, #16
 8002d0a:	687b      	ldr	r3, [r7, #4]
 8002d0c:	619a      	str	r2, [r3, #24]
}
 8002d0e:	bf00      	nop
 8002d10:	370c      	adds	r7, #12
 8002d12:	46bd      	mov	sp, r7
 8002d14:	f85d 7b04 	ldr.w	r7, [sp], #4
 8002d18:	4770      	bx	lr

08002d1a <HAL_GPIO_TogglePin>:
  *                      x can be (A..I) to select the GPIO peripheral for STM32F40XX and STM32F427X devices.
  * @param  GPIO_Pin Specifies the pins to be toggled.
  * @retval None
  */
void HAL_GPIO_TogglePin(GPIO_TypeDef* GPIOx, uint16_t GPIO_Pin)
{
 8002d1a:	b480      	push	{r7}
 8002d1c:	b085      	sub	sp, #20
 8002d1e:	af00      	add	r7, sp, #0
 8002d20:	6078      	str	r0, [r7, #4]
 8002d22:	460b      	mov	r3, r1
 8002d24:	807b      	strh	r3, [r7, #2]

  /* Check the parameters */
  assert_param(IS_GPIO_PIN(GPIO_Pin));

  /* get current Output Data Register value */
  odr = GPIOx->ODR;
 8002d26:	687b      	ldr	r3, [r7, #4]
 8002d28:	695b      	ldr	r3, [r3, #20]
 8002d2a:	60fb      	str	r3, [r7, #12]

  /* Set selected pins that were at low level, and reset ones that were high */
  GPIOx->BSRR = ((odr & GPIO_Pin) << GPIO_NUMBER) | (~odr & GPIO_Pin);
 8002d2c:	887a      	ldrh	r2, [r7, #2]
 8002d2e:	68fb      	ldr	r3, [r7, #12]
 8002d30:	4013      	ands	r3, r2
 8002d32:	041a      	lsls	r2, r3, #16
 8002d34:	68fb      	ldr	r3, [r7, #12]
 8002d36:	43d9      	mvns	r1, r3
 8002d38:	887b      	ldrh	r3, [r7, #2]
 8002d3a:	400b      	ands	r3, r1
 8002d3c:	431a      	orrs	r2, r3
 8002d3e:	687b      	ldr	r3, [r7, #4]
 8002d40:	619a      	str	r2, [r3, #24]
}
 8002d42:	bf00      	nop
 8002d44:	3714      	adds	r7, #20
 8002d46:	46bd      	mov	sp, r7
 8002d48:	f85d 7b04 	ldr.w	r7, [sp], #4
 8002d4c:	4770      	bx	lr
	...

08002d50 <HAL_I2C_Init>:
  * @param  hi2c Pointer to a I2C_HandleTypeDef structure that contains
  *                the configuration information for the specified I2C.
  * @retval HAL status
  */
HAL_StatusTypeDef HAL_I2C_Init(I2C_HandleTypeDef *hi2c)
{
 8002d50:	b580      	push	{r7, lr}
 8002d52:	b084      	sub	sp, #16
 8002d54:	af00      	add	r7, sp, #0
 8002d56:	6078      	str	r0, [r7, #4]
  uint32_t freqrange;
  uint32_t pclk1;

  /* Check the I2C handle allocation */
  if (hi2c == NULL)
 8002d58:	687b      	ldr	r3, [r7, #4]
 8002d5a:	2b00      	cmp	r3, #0
 8002d5c:	d101      	bne.n	8002d62 <HAL_I2C_Init+0x12>
  {
    return HAL_ERROR;
 8002d5e:	2301      	movs	r3, #1
 8002d60:	e12b      	b.n	8002fba <HAL_I2C_Init+0x26a>
  assert_param(IS_I2C_DUAL_ADDRESS(hi2c->Init.DualAddressMode));
  assert_param(IS_I2C_OWN_ADDRESS2(hi2c->Init.OwnAddress2));
  assert_param(IS_I2C_GENERAL_CALL(hi2c->Init.GeneralCallMode));
  assert_param(IS_I2C_NO_STRETCH(hi2c->Init.NoStretchMode));

  if (hi2c->State == HAL_I2C_STATE_RESET)
 8002d62:	687b      	ldr	r3, [r7, #4]
 8002d64:	f893 303d 	ldrb.w	r3, [r3, #61]	; 0x3d
 8002d68:	b2db      	uxtb	r3, r3
 8002d6a:	2b00      	cmp	r3, #0
 8002d6c:	d106      	bne.n	8002d7c <HAL_I2C_Init+0x2c>
  {
    /* Allocate lock resource and initialize it */
    hi2c->Lock = HAL_UNLOCKED;
 8002d6e:	687b      	ldr	r3, [r7, #4]
 8002d70:	2200      	movs	r2, #0
 8002d72:	f883 203c 	strb.w	r2, [r3, #60]	; 0x3c

    /* Init the low level hardware : GPIO, CLOCK, NVIC */
    hi2c->MspInitCallback(hi2c);
#else
    /* Init the low level hardware : GPIO, CLOCK, NVIC */
    HAL_I2C_MspInit(hi2c);
 8002d76:	6878      	ldr	r0, [r7, #4]
 8002d78:	f7ff f93e 	bl	8001ff8 <HAL_I2C_MspInit>
#endif /* USE_HAL_I2C_REGISTER_CALLBACKS */
  }

  hi2c->State = HAL_I2C_STATE_BUSY;
 8002d7c:	687b      	ldr	r3, [r7, #4]
 8002d7e:	2224      	movs	r2, #36	; 0x24
 8002d80:	f883 203d 	strb.w	r2, [r3, #61]	; 0x3d

  /* Disable the selected I2C peripheral */
  __HAL_I2C_DISABLE(hi2c);
 8002d84:	687b      	ldr	r3, [r7, #4]
 8002d86:	681b      	ldr	r3, [r3, #0]
 8002d88:	681a      	ldr	r2, [r3, #0]
 8002d8a:	687b      	ldr	r3, [r7, #4]
 8002d8c:	681b      	ldr	r3, [r3, #0]
 8002d8e:	f022 0201 	bic.w	r2, r2, #1
 8002d92:	601a      	str	r2, [r3, #0]

  /*Reset I2C*/
  hi2c->Instance->CR1 |= I2C_CR1_SWRST;
 8002d94:	687b      	ldr	r3, [r7, #4]
 8002d96:	681b      	ldr	r3, [r3, #0]
 8002d98:	681a      	ldr	r2, [r3, #0]
 8002d9a:	687b      	ldr	r3, [r7, #4]
 8002d9c:	681b      	ldr	r3, [r3, #0]
 8002d9e:	f442 4200 	orr.w	r2, r2, #32768	; 0x8000
 8002da2:	601a      	str	r2, [r3, #0]
  hi2c->Instance->CR1 &= ~I2C_CR1_SWRST;
 8002da4:	687b      	ldr	r3, [r7, #4]
 8002da6:	681b      	ldr	r3, [r3, #0]
 8002da8:	681a      	ldr	r2, [r3, #0]
 8002daa:	687b      	ldr	r3, [r7, #4]
 8002dac:	681b      	ldr	r3, [r3, #0]
 8002dae:	f422 4200 	bic.w	r2, r2, #32768	; 0x8000
 8002db2:	601a      	str	r2, [r3, #0]

  /* Get PCLK1 frequency */
  pclk1 = HAL_RCC_GetPCLK1Freq();
 8002db4:	f001 fda0 	bl	80048f8 <HAL_RCC_GetPCLK1Freq>
 8002db8:	60f8      	str	r0, [r7, #12]

  /* Check the minimum allowed PCLK1 frequency */
  if (I2C_MIN_PCLK_FREQ(pclk1, hi2c->Init.ClockSpeed) == 1U)
 8002dba:	687b      	ldr	r3, [r7, #4]
 8002dbc:	685b      	ldr	r3, [r3, #4]
 8002dbe:	4a81      	ldr	r2, [pc, #516]	; (8002fc4 <HAL_I2C_Init+0x274>)
 8002dc0:	4293      	cmp	r3, r2
 8002dc2:	d807      	bhi.n	8002dd4 <HAL_I2C_Init+0x84>
 8002dc4:	68fb      	ldr	r3, [r7, #12]
 8002dc6:	4a80      	ldr	r2, [pc, #512]	; (8002fc8 <HAL_I2C_Init+0x278>)
 8002dc8:	4293      	cmp	r3, r2
 8002dca:	bf94      	ite	ls
 8002dcc:	2301      	movls	r3, #1
 8002dce:	2300      	movhi	r3, #0
 8002dd0:	b2db      	uxtb	r3, r3
 8002dd2:	e006      	b.n	8002de2 <HAL_I2C_Init+0x92>
 8002dd4:	68fb      	ldr	r3, [r7, #12]
 8002dd6:	4a7d      	ldr	r2, [pc, #500]	; (8002fcc <HAL_I2C_Init+0x27c>)
 8002dd8:	4293      	cmp	r3, r2
 8002dda:	bf94      	ite	ls
 8002ddc:	2301      	movls	r3, #1
 8002dde:	2300      	movhi	r3, #0
 8002de0:	b2db      	uxtb	r3, r3
 8002de2:	2b00      	cmp	r3, #0
 8002de4:	d001      	beq.n	8002dea <HAL_I2C_Init+0x9a>
  {
    return HAL_ERROR;
 8002de6:	2301      	movs	r3, #1
 8002de8:	e0e7      	b.n	8002fba <HAL_I2C_Init+0x26a>
  }

  /* Calculate frequency range */
  freqrange = I2C_FREQRANGE(pclk1);
 8002dea:	68fb      	ldr	r3, [r7, #12]
 8002dec:	4a78      	ldr	r2, [pc, #480]	; (8002fd0 <HAL_I2C_Init+0x280>)
 8002dee:	fba2 2303 	umull	r2, r3, r2, r3
 8002df2:	0c9b      	lsrs	r3, r3, #18
 8002df4:	60bb      	str	r3, [r7, #8]

  /*---------------------------- I2Cx CR2 Configuration ----------------------*/
  /* Configure I2Cx: Frequency range */
  MODIFY_REG(hi2c->Instance->CR2, I2C_CR2_FREQ, freqrange);
 8002df6:	687b      	ldr	r3, [r7, #4]
 8002df8:	681b      	ldr	r3, [r3, #0]
 8002dfa:	685b      	ldr	r3, [r3, #4]
 8002dfc:	f023 013f 	bic.w	r1, r3, #63	; 0x3f
 8002e00:	687b      	ldr	r3, [r7, #4]
 8002e02:	681b      	ldr	r3, [r3, #0]
 8002e04:	68ba      	ldr	r2, [r7, #8]
 8002e06:	430a      	orrs	r2, r1
 8002e08:	605a      	str	r2, [r3, #4]

  /*---------------------------- I2Cx TRISE Configuration --------------------*/
  /* Configure I2Cx: Rise Time */
  MODIFY_REG(hi2c->Instance->TRISE, I2C_TRISE_TRISE, I2C_RISE_TIME(freqrange, hi2c->Init.ClockSpeed));
 8002e0a:	687b      	ldr	r3, [r7, #4]
 8002e0c:	681b      	ldr	r3, [r3, #0]
 8002e0e:	6a1b      	ldr	r3, [r3, #32]
 8002e10:	f023 013f 	bic.w	r1, r3, #63	; 0x3f
 8002e14:	687b      	ldr	r3, [r7, #4]
 8002e16:	685b      	ldr	r3, [r3, #4]
 8002e18:	4a6a      	ldr	r2, [pc, #424]	; (8002fc4 <HAL_I2C_Init+0x274>)
 8002e1a:	4293      	cmp	r3, r2
 8002e1c:	d802      	bhi.n	8002e24 <HAL_I2C_Init+0xd4>
 8002e1e:	68bb      	ldr	r3, [r7, #8]
 8002e20:	3301      	adds	r3, #1
 8002e22:	e009      	b.n	8002e38 <HAL_I2C_Init+0xe8>
 8002e24:	68bb      	ldr	r3, [r7, #8]
 8002e26:	f44f 7296 	mov.w	r2, #300	; 0x12c
 8002e2a:	fb02 f303 	mul.w	r3, r2, r3
 8002e2e:	4a69      	ldr	r2, [pc, #420]	; (8002fd4 <HAL_I2C_Init+0x284>)
 8002e30:	fba2 2303 	umull	r2, r3, r2, r3
 8002e34:	099b      	lsrs	r3, r3, #6
 8002e36:	3301      	adds	r3, #1
 8002e38:	687a      	ldr	r2, [r7, #4]
 8002e3a:	6812      	ldr	r2, [r2, #0]
 8002e3c:	430b      	orrs	r3, r1
 8002e3e:	6213      	str	r3, [r2, #32]

  /*---------------------------- I2Cx CCR Configuration ----------------------*/
  /* Configure I2Cx: Speed */
  MODIFY_REG(hi2c->Instance->CCR, (I2C_CCR_FS | I2C_CCR_DUTY | I2C_CCR_CCR), I2C_SPEED(pclk1, hi2c->Init.ClockSpeed, hi2c->Init.DutyCycle));
 8002e40:	687b      	ldr	r3, [r7, #4]
 8002e42:	681b      	ldr	r3, [r3, #0]
 8002e44:	69db      	ldr	r3, [r3, #28]
 8002e46:	f423 424f 	bic.w	r2, r3, #52992	; 0xcf00
 8002e4a:	f022 02ff 	bic.w	r2, r2, #255	; 0xff
 8002e4e:	687b      	ldr	r3, [r7, #4]
 8002e50:	685b      	ldr	r3, [r3, #4]
 8002e52:	495c      	ldr	r1, [pc, #368]	; (8002fc4 <HAL_I2C_Init+0x274>)
 8002e54:	428b      	cmp	r3, r1
 8002e56:	d819      	bhi.n	8002e8c <HAL_I2C_Init+0x13c>
 8002e58:	68fb      	ldr	r3, [r7, #12]
 8002e5a:	1e59      	subs	r1, r3, #1
 8002e5c:	687b      	ldr	r3, [r7, #4]
 8002e5e:	685b      	ldr	r3, [r3, #4]
 8002e60:	005b      	lsls	r3, r3, #1
 8002e62:	fbb1 f3f3 	udiv	r3, r1, r3
 8002e66:	1c59      	adds	r1, r3, #1
 8002e68:	f640 73fc 	movw	r3, #4092	; 0xffc
 8002e6c:	400b      	ands	r3, r1
 8002e6e:	2b00      	cmp	r3, #0
 8002e70:	d00a      	beq.n	8002e88 <HAL_I2C_Init+0x138>
 8002e72:	68fb      	ldr	r3, [r7, #12]
 8002e74:	1e59      	subs	r1, r3, #1
 8002e76:	687b      	ldr	r3, [r7, #4]
 8002e78:	685b      	ldr	r3, [r3, #4]
 8002e7a:	005b      	lsls	r3, r3, #1
 8002e7c:	fbb1 f3f3 	udiv	r3, r1, r3
 8002e80:	3301      	adds	r3, #1
 8002e82:	f3c3 030b 	ubfx	r3, r3, #0, #12
 8002e86:	e051      	b.n	8002f2c <HAL_I2C_Init+0x1dc>
 8002e88:	2304      	movs	r3, #4
 8002e8a:	e04f      	b.n	8002f2c <HAL_I2C_Init+0x1dc>
 8002e8c:	687b      	ldr	r3, [r7, #4]
 8002e8e:	689b      	ldr	r3, [r3, #8]
 8002e90:	2b00      	cmp	r3, #0
 8002e92:	d111      	bne.n	8002eb8 <HAL_I2C_Init+0x168>
 8002e94:	68fb      	ldr	r3, [r7, #12]
 8002e96:	1e58      	subs	r0, r3, #1
 8002e98:	687b      	ldr	r3, [r7, #4]
 8002e9a:	6859      	ldr	r1, [r3, #4]
 8002e9c:	460b      	mov	r3, r1
 8002e9e:	005b      	lsls	r3, r3, #1
 8002ea0:	440b      	add	r3, r1
 8002ea2:	fbb0 f3f3 	udiv	r3, r0, r3
 8002ea6:	3301      	adds	r3, #1
 8002ea8:	f3c3 030b 	ubfx	r3, r3, #0, #12
 8002eac:	2b00      	cmp	r3, #0
 8002eae:	bf0c      	ite	eq
 8002eb0:	2301      	moveq	r3, #1
 8002eb2:	2300      	movne	r3, #0
 8002eb4:	b2db      	uxtb	r3, r3
 8002eb6:	e012      	b.n	8002ede <HAL_I2C_Init+0x18e>
 8002eb8:	68fb      	ldr	r3, [r7, #12]
 8002eba:	1e58      	subs	r0, r3, #1
 8002ebc:	687b      	ldr	r3, [r7, #4]
 8002ebe:	6859      	ldr	r1, [r3, #4]
 8002ec0:	460b      	mov	r3, r1
 8002ec2:	009b      	lsls	r3, r3, #2
 8002ec4:	440b      	add	r3, r1
 8002ec6:	0099      	lsls	r1, r3, #2
 8002ec8:	440b      	add	r3, r1
 8002eca:	fbb0 f3f3 	udiv	r3, r0, r3
 8002ece:	3301      	adds	r3, #1
 8002ed0:	f3c3 030b 	ubfx	r3, r3, #0, #12
 8002ed4:	2b00      	cmp	r3, #0
 8002ed6:	bf0c      	ite	eq
 8002ed8:	2301      	moveq	r3, #1
 8002eda:	2300      	movne	r3, #0
 8002edc:	b2db      	uxtb	r3, r3
 8002ede:	2b00      	cmp	r3, #0
 8002ee0:	d001      	beq.n	8002ee6 <HAL_I2C_Init+0x196>
 8002ee2:	2301      	movs	r3, #1
 8002ee4:	e022      	b.n	8002f2c <HAL_I2C_Init+0x1dc>
 8002ee6:	687b      	ldr	r3, [r7, #4]
 8002ee8:	689b      	ldr	r3, [r3, #8]
 8002eea:	2b00      	cmp	r3, #0
 8002eec:	d10e      	bne.n	8002f0c <HAL_I2C_Init+0x1bc>
 8002eee:	68fb      	ldr	r3, [r7, #12]
 8002ef0:	1e58      	subs	r0, r3, #1
 8002ef2:	687b      	ldr	r3, [r7, #4]
 8002ef4:	6859      	ldr	r1, [r3, #4]
 8002ef6:	460b      	mov	r3, r1
 8002ef8:	005b      	lsls	r3, r3, #1
 8002efa:	440b      	add	r3, r1
 8002efc:	fbb0 f3f3 	udiv	r3, r0, r3
 8002f00:	3301      	adds	r3, #1
 8002f02:	f3c3 030b 	ubfx	r3, r3, #0, #12
 8002f06:	f443 4300 	orr.w	r3, r3, #32768	; 0x8000
 8002f0a:	e00f      	b.n	8002f2c <HAL_I2C_Init+0x1dc>
 8002f0c:	68fb      	ldr	r3, [r7, #12]
 8002f0e:	1e58      	subs	r0, r3, #1
 8002f10:	687b      	ldr	r3, [r7, #4]
 8002f12:	6859      	ldr	r1, [r3, #4]
 8002f14:	460b      	mov	r3, r1
 8002f16:	009b      	lsls	r3, r3, #2
 8002f18:	440b      	add	r3, r1
 8002f1a:	0099      	lsls	r1, r3, #2
 8002f1c:	440b      	add	r3, r1
 8002f1e:	fbb0 f3f3 	udiv	r3, r0, r3
 8002f22:	3301      	adds	r3, #1
 8002f24:	f3c3 030b 	ubfx	r3, r3, #0, #12
 8002f28:	f443 4340 	orr.w	r3, r3, #49152	; 0xc000
 8002f2c:	6879      	ldr	r1, [r7, #4]
 8002f2e:	6809      	ldr	r1, [r1, #0]
 8002f30:	4313      	orrs	r3, r2
 8002f32:	61cb      	str	r3, [r1, #28]

  /*---------------------------- I2Cx CR1 Configuration ----------------------*/
  /* Configure I2Cx: Generalcall and NoStretch mode */
  MODIFY_REG(hi2c->Instance->CR1, (I2C_CR1_ENGC | I2C_CR1_NOSTRETCH), (hi2c->Init.GeneralCallMode | hi2c->Init.NoStretchMode));
 8002f34:	687b      	ldr	r3, [r7, #4]
 8002f36:	681b      	ldr	r3, [r3, #0]
 8002f38:	681b      	ldr	r3, [r3, #0]
 8002f3a:	f023 01c0 	bic.w	r1, r3, #192	; 0xc0
 8002f3e:	687b      	ldr	r3, [r7, #4]
 8002f40:	69da      	ldr	r2, [r3, #28]
 8002f42:	687b      	ldr	r3, [r7, #4]
 8002f44:	6a1b      	ldr	r3, [r3, #32]
 8002f46:	431a      	orrs	r2, r3
 8002f48:	687b      	ldr	r3, [r7, #4]
 8002f4a:	681b      	ldr	r3, [r3, #0]
 8002f4c:	430a      	orrs	r2, r1
 8002f4e:	601a      	str	r2, [r3, #0]

  /*---------------------------- I2Cx OAR1 Configuration ---------------------*/
  /* Configure I2Cx: Own Address1 and addressing mode */
  MODIFY_REG(hi2c->Instance->OAR1, (I2C_OAR1_ADDMODE | I2C_OAR1_ADD8_9 | I2C_OAR1_ADD1_7 | I2C_OAR1_ADD0), (hi2c->Init.AddressingMode | hi2c->Init.OwnAddress1));
 8002f50:	687b      	ldr	r3, [r7, #4]
 8002f52:	681b      	ldr	r3, [r3, #0]
 8002f54:	689b      	ldr	r3, [r3, #8]
 8002f56:	f423 4303 	bic.w	r3, r3, #33536	; 0x8300
 8002f5a:	f023 03ff 	bic.w	r3, r3, #255	; 0xff
 8002f5e:	687a      	ldr	r2, [r7, #4]
 8002f60:	6911      	ldr	r1, [r2, #16]
 8002f62:	687a      	ldr	r2, [r7, #4]
 8002f64:	68d2      	ldr	r2, [r2, #12]
 8002f66:	4311      	orrs	r1, r2
 8002f68:	687a      	ldr	r2, [r7, #4]
 8002f6a:	6812      	ldr	r2, [r2, #0]
 8002f6c:	430b      	orrs	r3, r1
 8002f6e:	6093      	str	r3, [r2, #8]

  /*---------------------------- I2Cx OAR2 Configuration ---------------------*/
  /* Configure I2Cx: Dual mode and Own Address2 */
  MODIFY_REG(hi2c->Instance->OAR2, (I2C_OAR2_ENDUAL | I2C_OAR2_ADD2), (hi2c->Init.DualAddressMode | hi2c->Init.OwnAddress2));
 8002f70:	687b      	ldr	r3, [r7, #4]
 8002f72:	681b      	ldr	r3, [r3, #0]
 8002f74:	68db      	ldr	r3, [r3, #12]
 8002f76:	f023 01ff 	bic.w	r1, r3, #255	; 0xff
 8002f7a:	687b      	ldr	r3, [r7, #4]
 8002f7c:	695a      	ldr	r2, [r3, #20]
 8002f7e:	687b      	ldr	r3, [r7, #4]
 8002f80:	699b      	ldr	r3, [r3, #24]
 8002f82:	431a      	orrs	r2, r3
 8002f84:	687b      	ldr	r3, [r7, #4]
 8002f86:	681b      	ldr	r3, [r3, #0]
 8002f88:	430a      	orrs	r2, r1
 8002f8a:	60da      	str	r2, [r3, #12]

  /* Enable the selected I2C peripheral */
  __HAL_I2C_ENABLE(hi2c);
 8002f8c:	687b      	ldr	r3, [r7, #4]
 8002f8e:	681b      	ldr	r3, [r3, #0]
 8002f90:	681a      	ldr	r2, [r3, #0]
 8002f92:	687b      	ldr	r3, [r7, #4]
 8002f94:	681b      	ldr	r3, [r3, #0]
 8002f96:	f042 0201 	orr.w	r2, r2, #1
 8002f9a:	601a      	str	r2, [r3, #0]

  hi2c->ErrorCode = HAL_I2C_ERROR_NONE;
 8002f9c:	687b      	ldr	r3, [r7, #4]
 8002f9e:	2200      	movs	r2, #0
 8002fa0:	641a      	str	r2, [r3, #64]	; 0x40
  hi2c->State = HAL_I2C_STATE_READY;
 8002fa2:	687b      	ldr	r3, [r7, #4]
 8002fa4:	2220      	movs	r2, #32
 8002fa6:	f883 203d 	strb.w	r2, [r3, #61]	; 0x3d
  hi2c->PreviousState = I2C_STATE_NONE;
 8002faa:	687b      	ldr	r3, [r7, #4]
 8002fac:	2200      	movs	r2, #0
 8002fae:	631a      	str	r2, [r3, #48]	; 0x30
  hi2c->Mode = HAL_I2C_MODE_NONE;
 8002fb0:	687b      	ldr	r3, [r7, #4]
 8002fb2:	2200      	movs	r2, #0
 8002fb4:	f883 203e 	strb.w	r2, [r3, #62]	; 0x3e

  return HAL_OK;
 8002fb8:	2300      	movs	r3, #0
}
 8002fba:	4618      	mov	r0, r3
 8002fbc:	3710      	adds	r7, #16
 8002fbe:	46bd      	mov	sp, r7
 8002fc0:	bd80      	pop	{r7, pc}
 8002fc2:	bf00      	nop
 8002fc4:	000186a0 	.word	0x000186a0
 8002fc8:	001e847f 	.word	0x001e847f
 8002fcc:	003d08ff 	.word	0x003d08ff
 8002fd0:	431bde83 	.word	0x431bde83
 8002fd4:	10624dd3 	.word	0x10624dd3

08002fd8 <HAL_I2C_Master_Transmit>:
  * @param  Size Amount of data to be sent
  * @param  Timeout Timeout duration
  * @retval HAL status
  */
HAL_StatusTypeDef HAL_I2C_Master_Transmit(I2C_HandleTypeDef *hi2c, uint16_t DevAddress, uint8_t *pData, uint16_t Size, uint32_t Timeout)
{
 8002fd8:	b580      	push	{r7, lr}
 8002fda:	b088      	sub	sp, #32
 8002fdc:	af02      	add	r7, sp, #8
 8002fde:	60f8      	str	r0, [r7, #12]
 8002fe0:	607a      	str	r2, [r7, #4]
 8002fe2:	461a      	mov	r2, r3
 8002fe4:	460b      	mov	r3, r1
 8002fe6:	817b      	strh	r3, [r7, #10]
 8002fe8:	4613      	mov	r3, r2
 8002fea:	813b      	strh	r3, [r7, #8]
  /* Init tickstart for timeout management*/
  uint32_t tickstart = HAL_GetTick();
 8002fec:	f7ff fafc 	bl	80025e8 <HAL_GetTick>
 8002ff0:	6178      	str	r0, [r7, #20]

  if (hi2c->State == HAL_I2C_STATE_READY)
 8002ff2:	68fb      	ldr	r3, [r7, #12]
 8002ff4:	f893 303d 	ldrb.w	r3, [r3, #61]	; 0x3d
 8002ff8:	b2db      	uxtb	r3, r3
 8002ffa:	2b20      	cmp	r3, #32
 8002ffc:	f040 80e0 	bne.w	80031c0 <HAL_I2C_Master_Transmit+0x1e8>
  {
    /* Wait until BUSY flag is reset */
    if (I2C_WaitOnFlagUntilTimeout(hi2c, I2C_FLAG_BUSY, SET, I2C_TIMEOUT_BUSY_FLAG, tickstart) != HAL_OK)
 8003000:	697b      	ldr	r3, [r7, #20]
 8003002:	9300      	str	r3, [sp, #0]
 8003004:	2319      	movs	r3, #25
 8003006:	2201      	movs	r2, #1
 8003008:	4970      	ldr	r1, [pc, #448]	; (80031cc <HAL_I2C_Master_Transmit+0x1f4>)
 800300a:	68f8      	ldr	r0, [r7, #12]
 800300c:	f000 fd92 	bl	8003b34 <I2C_WaitOnFlagUntilTimeout>
 8003010:	4603      	mov	r3, r0
 8003012:	2b00      	cmp	r3, #0
 8003014:	d001      	beq.n	800301a <HAL_I2C_Master_Transmit+0x42>
    {
      return HAL_BUSY;
 8003016:	2302      	movs	r3, #2
 8003018:	e0d3      	b.n	80031c2 <HAL_I2C_Master_Transmit+0x1ea>
    }

    /* Process Locked */
    __HAL_LOCK(hi2c);
 800301a:	68fb      	ldr	r3, [r7, #12]
 800301c:	f893 303c 	ldrb.w	r3, [r3, #60]	; 0x3c
 8003020:	2b01      	cmp	r3, #1
 8003022:	d101      	bne.n	8003028 <HAL_I2C_Master_Transmit+0x50>
 8003024:	2302      	movs	r3, #2
 8003026:	e0cc      	b.n	80031c2 <HAL_I2C_Master_Transmit+0x1ea>
 8003028:	68fb      	ldr	r3, [r7, #12]
 800302a:	2201      	movs	r2, #1
 800302c:	f883 203c 	strb.w	r2, [r3, #60]	; 0x3c

    /* Check if the I2C is already enabled */
    if ((hi2c->Instance->CR1 & I2C_CR1_PE) != I2C_CR1_PE)
 8003030:	68fb      	ldr	r3, [r7, #12]
 8003032:	681b      	ldr	r3, [r3, #0]
 8003034:	681b      	ldr	r3, [r3, #0]
 8003036:	f003 0301 	and.w	r3, r3, #1
 800303a:	2b01      	cmp	r3, #1
 800303c:	d007      	beq.n	800304e <HAL_I2C_Master_Transmit+0x76>
    {
      /* Enable I2C peripheral */
      __HAL_I2C_ENABLE(hi2c);
 800303e:	68fb      	ldr	r3, [r7, #12]
 8003040:	681b      	ldr	r3, [r3, #0]
 8003042:	681a      	ldr	r2, [r3, #0]
 8003044:	68fb      	ldr	r3, [r7, #12]
 8003046:	681b      	ldr	r3, [r3, #0]
 8003048:	f042 0201 	orr.w	r2, r2, #1
 800304c:	601a      	str	r2, [r3, #0]
    }

    /* Disable Pos */
    CLEAR_BIT(hi2c->Instance->CR1, I2C_CR1_POS);
 800304e:	68fb      	ldr	r3, [r7, #12]
 8003050:	681b      	ldr	r3, [r3, #0]
 8003052:	681a      	ldr	r2, [r3, #0]
 8003054:	68fb      	ldr	r3, [r7, #12]
 8003056:	681b      	ldr	r3, [r3, #0]
 8003058:	f422 6200 	bic.w	r2, r2, #2048	; 0x800
 800305c:	601a      	str	r2, [r3, #0]

    hi2c->State       = HAL_I2C_STATE_BUSY_TX;
 800305e:	68fb      	ldr	r3, [r7, #12]
 8003060:	2221      	movs	r2, #33	; 0x21
 8003062:	f883 203d 	strb.w	r2, [r3, #61]	; 0x3d
    hi2c->Mode        = HAL_I2C_MODE_MASTER;
 8003066:	68fb      	ldr	r3, [r7, #12]
 8003068:	2210      	movs	r2, #16
 800306a:	f883 203e 	strb.w	r2, [r3, #62]	; 0x3e
    hi2c->ErrorCode   = HAL_I2C_ERROR_NONE;
 800306e:	68fb      	ldr	r3, [r7, #12]
 8003070:	2200      	movs	r2, #0
 8003072:	641a      	str	r2, [r3, #64]	; 0x40

    /* Prepare transfer parameters */
    hi2c->pBuffPtr    = pData;
 8003074:	68fb      	ldr	r3, [r7, #12]
 8003076:	687a      	ldr	r2, [r7, #4]
 8003078:	625a      	str	r2, [r3, #36]	; 0x24
    hi2c->XferCount   = Size;
 800307a:	68fb      	ldr	r3, [r7, #12]
 800307c:	893a      	ldrh	r2, [r7, #8]
 800307e:	855a      	strh	r2, [r3, #42]	; 0x2a
    hi2c->XferSize    = hi2c->XferCount;
 8003080:	68fb      	ldr	r3, [r7, #12]
 8003082:	8d5b      	ldrh	r3, [r3, #42]	; 0x2a
 8003084:	b29a      	uxth	r2, r3
 8003086:	68fb      	ldr	r3, [r7, #12]
 8003088:	851a      	strh	r2, [r3, #40]	; 0x28
    hi2c->XferOptions = I2C_NO_OPTION_FRAME;
 800308a:	68fb      	ldr	r3, [r7, #12]
 800308c:	4a50      	ldr	r2, [pc, #320]	; (80031d0 <HAL_I2C_Master_Transmit+0x1f8>)
 800308e:	62da      	str	r2, [r3, #44]	; 0x2c

    /* Send Slave Address */
    if (I2C_MasterRequestWrite(hi2c, DevAddress, Timeout, tickstart) != HAL_OK)
 8003090:	8979      	ldrh	r1, [r7, #10]
 8003092:	697b      	ldr	r3, [r7, #20]
 8003094:	6a3a      	ldr	r2, [r7, #32]
 8003096:	68f8      	ldr	r0, [r7, #12]
 8003098:	f000 fbfc 	bl	8003894 <I2C_MasterRequestWrite>
 800309c:	4603      	mov	r3, r0
 800309e:	2b00      	cmp	r3, #0
 80030a0:	d001      	beq.n	80030a6 <HAL_I2C_Master_Transmit+0xce>
    {
      return HAL_ERROR;
 80030a2:	2301      	movs	r3, #1
 80030a4:	e08d      	b.n	80031c2 <HAL_I2C_Master_Transmit+0x1ea>
    }

    /* Clear ADDR flag */
    __HAL_I2C_CLEAR_ADDRFLAG(hi2c);
 80030a6:	2300      	movs	r3, #0
 80030a8:	613b      	str	r3, [r7, #16]
 80030aa:	68fb      	ldr	r3, [r7, #12]
 80030ac:	681b      	ldr	r3, [r3, #0]
 80030ae:	695b      	ldr	r3, [r3, #20]
 80030b0:	613b      	str	r3, [r7, #16]
 80030b2:	68fb      	ldr	r3, [r7, #12]
 80030b4:	681b      	ldr	r3, [r3, #0]
 80030b6:	699b      	ldr	r3, [r3, #24]
 80030b8:	613b      	str	r3, [r7, #16]
 80030ba:	693b      	ldr	r3, [r7, #16]

    while (hi2c->XferSize > 0U)
 80030bc:	e066      	b.n	800318c <HAL_I2C_Master_Transmit+0x1b4>
    {
      /* Wait until TXE flag is set */
      if (I2C_WaitOnTXEFlagUntilTimeout(hi2c, Timeout, tickstart) != HAL_OK)
 80030be:	697a      	ldr	r2, [r7, #20]
 80030c0:	6a39      	ldr	r1, [r7, #32]
 80030c2:	68f8      	ldr	r0, [r7, #12]
 80030c4:	f000 fe50 	bl	8003d68 <I2C_WaitOnTXEFlagUntilTimeout>
 80030c8:	4603      	mov	r3, r0
 80030ca:	2b00      	cmp	r3, #0
 80030cc:	d00d      	beq.n	80030ea <HAL_I2C_Master_Transmit+0x112>
      {
        if (hi2c->ErrorCode == HAL_I2C_ERROR_AF)
 80030ce:	68fb      	ldr	r3, [r7, #12]
 80030d0:	6c1b      	ldr	r3, [r3, #64]	; 0x40
 80030d2:	2b04      	cmp	r3, #4
 80030d4:	d107      	bne.n	80030e6 <HAL_I2C_Master_Transmit+0x10e>
        {
          /* Generate Stop */
          SET_BIT(hi2c->Instance->CR1, I2C_CR1_STOP);
 80030d6:	68fb      	ldr	r3, [r7, #12]
 80030d8:	681b      	ldr	r3, [r3, #0]
 80030da:	681a      	ldr	r2, [r3, #0]
 80030dc:	68fb      	ldr	r3, [r7, #12]
 80030de:	681b      	ldr	r3, [r3, #0]
 80030e0:	f442 7200 	orr.w	r2, r2, #512	; 0x200
 80030e4:	601a      	str	r2, [r3, #0]
        }
        return HAL_ERROR;
 80030e6:	2301      	movs	r3, #1
 80030e8:	e06b      	b.n	80031c2 <HAL_I2C_Master_Transmit+0x1ea>
      }

      /* Write data to DR */
      hi2c->Instance->DR = *hi2c->pBuffPtr;
 80030ea:	68fb      	ldr	r3, [r7, #12]
 80030ec:	6a5b      	ldr	r3, [r3, #36]	; 0x24
 80030ee:	781a      	ldrb	r2, [r3, #0]
 80030f0:	68fb      	ldr	r3, [r7, #12]
 80030f2:	681b      	ldr	r3, [r3, #0]
 80030f4:	611a      	str	r2, [r3, #16]

      /* Increment Buffer pointer */
      hi2c->pBuffPtr++;
 80030f6:	68fb      	ldr	r3, [r7, #12]
 80030f8:	6a5b      	ldr	r3, [r3, #36]	; 0x24
 80030fa:	1c5a      	adds	r2, r3, #1
 80030fc:	68fb      	ldr	r3, [r7, #12]
 80030fe:	625a      	str	r2, [r3, #36]	; 0x24

      /* Update counter */
      hi2c->XferCount--;
 8003100:	68fb      	ldr	r3, [r7, #12]
 8003102:	8d5b      	ldrh	r3, [r3, #42]	; 0x2a
 8003104:	b29b      	uxth	r3, r3
 8003106:	3b01      	subs	r3, #1
 8003108:	b29a      	uxth	r2, r3
 800310a:	68fb      	ldr	r3, [r7, #12]
 800310c:	855a      	strh	r2, [r3, #42]	; 0x2a
      hi2c->XferSize--;
 800310e:	68fb      	ldr	r3, [r7, #12]
 8003110:	8d1b      	ldrh	r3, [r3, #40]	; 0x28
 8003112:	3b01      	subs	r3, #1
 8003114:	b29a      	uxth	r2, r3
 8003116:	68fb      	ldr	r3, [r7, #12]
 8003118:	851a      	strh	r2, [r3, #40]	; 0x28

      if ((__HAL_I2C_GET_FLAG(hi2c, I2C_FLAG_BTF) == SET) && (hi2c->XferSize != 0U))
 800311a:	68fb      	ldr	r3, [r7, #12]
 800311c:	681b      	ldr	r3, [r3, #0]
 800311e:	695b      	ldr	r3, [r3, #20]
 8003120:	f003 0304 	and.w	r3, r3, #4
 8003124:	2b04      	cmp	r3, #4
 8003126:	d11b      	bne.n	8003160 <HAL_I2C_Master_Transmit+0x188>
 8003128:	68fb      	ldr	r3, [r7, #12]
 800312a:	8d1b      	ldrh	r3, [r3, #40]	; 0x28
 800312c:	2b00      	cmp	r3, #0
 800312e:	d017      	beq.n	8003160 <HAL_I2C_Master_Transmit+0x188>
      {
        /* Write data to DR */
        hi2c->Instance->DR = *hi2c->pBuffPtr;
 8003130:	68fb      	ldr	r3, [r7, #12]
 8003132:	6a5b      	ldr	r3, [r3, #36]	; 0x24
 8003134:	781a      	ldrb	r2, [r3, #0]
 8003136:	68fb      	ldr	r3, [r7, #12]
 8003138:	681b      	ldr	r3, [r3, #0]
 800313a:	611a      	str	r2, [r3, #16]

        /* Increment Buffer pointer */
        hi2c->pBuffPtr++;
 800313c:	68fb      	ldr	r3, [r7, #12]
 800313e:	6a5b      	ldr	r3, [r3, #36]	; 0x24
 8003140:	1c5a      	adds	r2, r3, #1
 8003142:	68fb      	ldr	r3, [r7, #12]
 8003144:	625a      	str	r2, [r3, #36]	; 0x24

        /* Update counter */
        hi2c->XferCount--;
 8003146:	68fb      	ldr	r3, [r7, #12]
 8003148:	8d5b      	ldrh	r3, [r3, #42]	; 0x2a
 800314a:	b29b      	uxth	r3, r3
 800314c:	3b01      	subs	r3, #1
 800314e:	b29a      	uxth	r2, r3
 8003150:	68fb      	ldr	r3, [r7, #12]
 8003152:	855a      	strh	r2, [r3, #42]	; 0x2a
        hi2c->XferSize--;
 8003154:	68fb      	ldr	r3, [r7, #12]
 8003156:	8d1b      	ldrh	r3, [r3, #40]	; 0x28
 8003158:	3b01      	subs	r3, #1
 800315a:	b29a      	uxth	r2, r3
 800315c:	68fb      	ldr	r3, [r7, #12]
 800315e:	851a      	strh	r2, [r3, #40]	; 0x28
      }

      /* Wait until BTF flag is set */
      if (I2C_WaitOnBTFFlagUntilTimeout(hi2c, Timeout, tickstart) != HAL_OK)
 8003160:	697a      	ldr	r2, [r7, #20]
 8003162:	6a39      	ldr	r1, [r7, #32]
 8003164:	68f8      	ldr	r0, [r7, #12]
 8003166:	f000 fe47 	bl	8003df8 <I2C_WaitOnBTFFlagUntilTimeout>
 800316a:	4603      	mov	r3, r0
 800316c:	2b00      	cmp	r3, #0
 800316e:	d00d      	beq.n	800318c <HAL_I2C_Master_Transmit+0x1b4>
      {
        if (hi2c->ErrorCode == HAL_I2C_ERROR_AF)
 8003170:	68fb      	ldr	r3, [r7, #12]
 8003172:	6c1b      	ldr	r3, [r3, #64]	; 0x40
 8003174:	2b04      	cmp	r3, #4
 8003176:	d107      	bne.n	8003188 <HAL_I2C_Master_Transmit+0x1b0>
        {
          /* Generate Stop */
          SET_BIT(hi2c->Instance->CR1, I2C_CR1_STOP);
 8003178:	68fb      	ldr	r3, [r7, #12]
 800317a:	681b      	ldr	r3, [r3, #0]
 800317c:	681a      	ldr	r2, [r3, #0]
 800317e:	68fb      	ldr	r3, [r7, #12]
 8003180:	681b      	ldr	r3, [r3, #0]
 8003182:	f442 7200 	orr.w	r2, r2, #512	; 0x200
 8003186:	601a      	str	r2, [r3, #0]
        }
        return HAL_ERROR;
 8003188:	2301      	movs	r3, #1
 800318a:	e01a      	b.n	80031c2 <HAL_I2C_Master_Transmit+0x1ea>
    while (hi2c->XferSize > 0U)
 800318c:	68fb      	ldr	r3, [r7, #12]
 800318e:	8d1b      	ldrh	r3, [r3, #40]	; 0x28
 8003190:	2b00      	cmp	r3, #0
 8003192:	d194      	bne.n	80030be <HAL_I2C_Master_Transmit+0xe6>
      }
    }

    /* Generate Stop */
    SET_BIT(hi2c->Instance->CR1, I2C_CR1_STOP);
 8003194:	68fb      	ldr	r3, [r7, #12]
 8003196:	681b      	ldr	r3, [r3, #0]
 8003198:	681a      	ldr	r2, [r3, #0]
 800319a:	68fb      	ldr	r3, [r7, #12]
 800319c:	681b      	ldr	r3, [r3, #0]
 800319e:	f442 7200 	orr.w	r2, r2, #512	; 0x200
 80031a2:	601a      	str	r2, [r3, #0]

    hi2c->State = HAL_I2C_STATE_READY;
 80031a4:	68fb      	ldr	r3, [r7, #12]
 80031a6:	2220      	movs	r2, #32
 80031a8:	f883 203d 	strb.w	r2, [r3, #61]	; 0x3d
    hi2c->Mode = HAL_I2C_MODE_NONE;
 80031ac:	68fb      	ldr	r3, [r7, #12]
 80031ae:	2200      	movs	r2, #0
 80031b0:	f883 203e 	strb.w	r2, [r3, #62]	; 0x3e

    /* Process Unlocked */
    __HAL_UNLOCK(hi2c);
 80031b4:	68fb      	ldr	r3, [r7, #12]
 80031b6:	2200      	movs	r2, #0
 80031b8:	f883 203c 	strb.w	r2, [r3, #60]	; 0x3c

    return HAL_OK;
 80031bc:	2300      	movs	r3, #0
 80031be:	e000      	b.n	80031c2 <HAL_I2C_Master_Transmit+0x1ea>
  }
  else
  {
    return HAL_BUSY;
 80031c0:	2302      	movs	r3, #2
  }
}
 80031c2:	4618      	mov	r0, r3
 80031c4:	3718      	adds	r7, #24
 80031c6:	46bd      	mov	sp, r7
 80031c8:	bd80      	pop	{r7, pc}
 80031ca:	bf00      	nop
 80031cc:	00100002 	.word	0x00100002
 80031d0:	ffff0000 	.word	0xffff0000

080031d4 <HAL_I2C_Master_Receive>:
  * @param  Size Amount of data to be sent
  * @param  Timeout Timeout duration
  * @retval HAL status
  */
HAL_StatusTypeDef HAL_I2C_Master_Receive(I2C_HandleTypeDef *hi2c, uint16_t DevAddress, uint8_t *pData, uint16_t Size, uint32_t Timeout)
{
 80031d4:	b580      	push	{r7, lr}
 80031d6:	b08c      	sub	sp, #48	; 0x30
 80031d8:	af02      	add	r7, sp, #8
 80031da:	60f8      	str	r0, [r7, #12]
 80031dc:	607a      	str	r2, [r7, #4]
 80031de:	461a      	mov	r2, r3
 80031e0:	460b      	mov	r3, r1
 80031e2:	817b      	strh	r3, [r7, #10]
 80031e4:	4613      	mov	r3, r2
 80031e6:	813b      	strh	r3, [r7, #8]
  /* Init tickstart for timeout management*/
  uint32_t tickstart = HAL_GetTick();
 80031e8:	f7ff f9fe 	bl	80025e8 <HAL_GetTick>
 80031ec:	6278      	str	r0, [r7, #36]	; 0x24

  if (hi2c->State == HAL_I2C_STATE_READY)
 80031ee:	68fb      	ldr	r3, [r7, #12]
 80031f0:	f893 303d 	ldrb.w	r3, [r3, #61]	; 0x3d
 80031f4:	b2db      	uxtb	r3, r3
 80031f6:	2b20      	cmp	r3, #32
 80031f8:	f040 8217 	bne.w	800362a <HAL_I2C_Master_Receive+0x456>
  {
    /* Wait until BUSY flag is reset */
    if (I2C_WaitOnFlagUntilTimeout(hi2c, I2C_FLAG_BUSY, SET, I2C_TIMEOUT_BUSY_FLAG, tickstart) != HAL_OK)
 80031fc:	6a7b      	ldr	r3, [r7, #36]	; 0x24
 80031fe:	9300      	str	r3, [sp, #0]
 8003200:	2319      	movs	r3, #25
 8003202:	2201      	movs	r2, #1
 8003204:	497c      	ldr	r1, [pc, #496]	; (80033f8 <HAL_I2C_Master_Receive+0x224>)
 8003206:	68f8      	ldr	r0, [r7, #12]
 8003208:	f000 fc94 	bl	8003b34 <I2C_WaitOnFlagUntilTimeout>
 800320c:	4603      	mov	r3, r0
 800320e:	2b00      	cmp	r3, #0
 8003210:	d001      	beq.n	8003216 <HAL_I2C_Master_Receive+0x42>
    {
      return HAL_BUSY;
 8003212:	2302      	movs	r3, #2
 8003214:	e20a      	b.n	800362c <HAL_I2C_Master_Receive+0x458>
    }

    /* Process Locked */
    __HAL_LOCK(hi2c);
 8003216:	68fb      	ldr	r3, [r7, #12]
 8003218:	f893 303c 	ldrb.w	r3, [r3, #60]	; 0x3c
 800321c:	2b01      	cmp	r3, #1
 800321e:	d101      	bne.n	8003224 <HAL_I2C_Master_Receive+0x50>
 8003220:	2302      	movs	r3, #2
 8003222:	e203      	b.n	800362c <HAL_I2C_Master_Receive+0x458>
 8003224:	68fb      	ldr	r3, [r7, #12]
 8003226:	2201      	movs	r2, #1
 8003228:	f883 203c 	strb.w	r2, [r3, #60]	; 0x3c

    /* Check if the I2C is already enabled */
    if ((hi2c->Instance->CR1 & I2C_CR1_PE) != I2C_CR1_PE)
 800322c:	68fb      	ldr	r3, [r7, #12]
 800322e:	681b      	ldr	r3, [r3, #0]
 8003230:	681b      	ldr	r3, [r3, #0]
 8003232:	f003 0301 	and.w	r3, r3, #1
 8003236:	2b01      	cmp	r3, #1
 8003238:	d007      	beq.n	800324a <HAL_I2C_Master_Receive+0x76>
    {
      /* Enable I2C peripheral */
      __HAL_I2C_ENABLE(hi2c);
 800323a:	68fb      	ldr	r3, [r7, #12]
 800323c:	681b      	ldr	r3, [r3, #0]
 800323e:	681a      	ldr	r2, [r3, #0]
 8003240:	68fb      	ldr	r3, [r7, #12]
 8003242:	681b      	ldr	r3, [r3, #0]
 8003244:	f042 0201 	orr.w	r2, r2, #1
 8003248:	601a      	str	r2, [r3, #0]
    }

    /* Disable Pos */
    CLEAR_BIT(hi2c->Instance->CR1, I2C_CR1_POS);
 800324a:	68fb      	ldr	r3, [r7, #12]
 800324c:	681b      	ldr	r3, [r3, #0]
 800324e:	681a      	ldr	r2, [r3, #0]
 8003250:	68fb      	ldr	r3, [r7, #12]
 8003252:	681b      	ldr	r3, [r3, #0]
 8003254:	f422 6200 	bic.w	r2, r2, #2048	; 0x800
 8003258:	601a      	str	r2, [r3, #0]

    hi2c->State       = HAL_I2C_STATE_BUSY_RX;
 800325a:	68fb      	ldr	r3, [r7, #12]
 800325c:	2222      	movs	r2, #34	; 0x22
 800325e:	f883 203d 	strb.w	r2, [r3, #61]	; 0x3d
    hi2c->Mode        = HAL_I2C_MODE_MASTER;
 8003262:	68fb      	ldr	r3, [r7, #12]
 8003264:	2210      	movs	r2, #16
 8003266:	f883 203e 	strb.w	r2, [r3, #62]	; 0x3e
    hi2c->ErrorCode   = HAL_I2C_ERROR_NONE;
 800326a:	68fb      	ldr	r3, [r7, #12]
 800326c:	2200      	movs	r2, #0
 800326e:	641a      	str	r2, [r3, #64]	; 0x40

    /* Prepare transfer parameters */
    hi2c->pBuffPtr    = pData;
 8003270:	68fb      	ldr	r3, [r7, #12]
 8003272:	687a      	ldr	r2, [r7, #4]
 8003274:	625a      	str	r2, [r3, #36]	; 0x24
    hi2c->XferCount   = Size;
 8003276:	68fb      	ldr	r3, [r7, #12]
 8003278:	893a      	ldrh	r2, [r7, #8]
 800327a:	855a      	strh	r2, [r3, #42]	; 0x2a
    hi2c->XferSize    = hi2c->XferCount;
 800327c:	68fb      	ldr	r3, [r7, #12]
 800327e:	8d5b      	ldrh	r3, [r3, #42]	; 0x2a
 8003280:	b29a      	uxth	r2, r3
 8003282:	68fb      	ldr	r3, [r7, #12]
 8003284:	851a      	strh	r2, [r3, #40]	; 0x28
    hi2c->XferOptions = I2C_NO_OPTION_FRAME;
 8003286:	68fb      	ldr	r3, [r7, #12]
 8003288:	4a5c      	ldr	r2, [pc, #368]	; (80033fc <HAL_I2C_Master_Receive+0x228>)
 800328a:	62da      	str	r2, [r3, #44]	; 0x2c

    /* Send Slave Address */
    if (I2C_MasterRequestRead(hi2c, DevAddress, Timeout, tickstart) != HAL_OK)
 800328c:	8979      	ldrh	r1, [r7, #10]
 800328e:	6a7b      	ldr	r3, [r7, #36]	; 0x24
 8003290:	6b3a      	ldr	r2, [r7, #48]	; 0x30
 8003292:	68f8      	ldr	r0, [r7, #12]
 8003294:	f000 fb80 	bl	8003998 <I2C_MasterRequestRead>
 8003298:	4603      	mov	r3, r0
 800329a:	2b00      	cmp	r3, #0
 800329c:	d001      	beq.n	80032a2 <HAL_I2C_Master_Receive+0xce>
    {
      return HAL_ERROR;
 800329e:	2301      	movs	r3, #1
 80032a0:	e1c4      	b.n	800362c <HAL_I2C_Master_Receive+0x458>
    }

    if (hi2c->XferSize == 0U)
 80032a2:	68fb      	ldr	r3, [r7, #12]
 80032a4:	8d1b      	ldrh	r3, [r3, #40]	; 0x28
 80032a6:	2b00      	cmp	r3, #0
 80032a8:	d113      	bne.n	80032d2 <HAL_I2C_Master_Receive+0xfe>
    {
      /* Clear ADDR flag */
      __HAL_I2C_CLEAR_ADDRFLAG(hi2c);
 80032aa:	2300      	movs	r3, #0
 80032ac:	623b      	str	r3, [r7, #32]
 80032ae:	68fb      	ldr	r3, [r7, #12]
 80032b0:	681b      	ldr	r3, [r3, #0]
 80032b2:	695b      	ldr	r3, [r3, #20]
 80032b4:	623b      	str	r3, [r7, #32]
 80032b6:	68fb      	ldr	r3, [r7, #12]
 80032b8:	681b      	ldr	r3, [r3, #0]
 80032ba:	699b      	ldr	r3, [r3, #24]
 80032bc:	623b      	str	r3, [r7, #32]
 80032be:	6a3b      	ldr	r3, [r7, #32]

      /* Generate Stop */
      SET_BIT(hi2c->Instance->CR1, I2C_CR1_STOP);
 80032c0:	68fb      	ldr	r3, [r7, #12]
 80032c2:	681b      	ldr	r3, [r3, #0]
 80032c4:	681a      	ldr	r2, [r3, #0]
 80032c6:	68fb      	ldr	r3, [r7, #12]
 80032c8:	681b      	ldr	r3, [r3, #0]
 80032ca:	f442 7200 	orr.w	r2, r2, #512	; 0x200
 80032ce:	601a      	str	r2, [r3, #0]
 80032d0:	e198      	b.n	8003604 <HAL_I2C_Master_Receive+0x430>
    }
    else if (hi2c->XferSize == 1U)
 80032d2:	68fb      	ldr	r3, [r7, #12]
 80032d4:	8d1b      	ldrh	r3, [r3, #40]	; 0x28
 80032d6:	2b01      	cmp	r3, #1
 80032d8:	d11b      	bne.n	8003312 <HAL_I2C_Master_Receive+0x13e>
    {
      /* Disable Acknowledge */
      CLEAR_BIT(hi2c->Instance->CR1, I2C_CR1_ACK);
 80032da:	68fb      	ldr	r3, [r7, #12]
 80032dc:	681b      	ldr	r3, [r3, #0]
 80032de:	681a      	ldr	r2, [r3, #0]
 80032e0:	68fb      	ldr	r3, [r7, #12]
 80032e2:	681b      	ldr	r3, [r3, #0]
 80032e4:	f422 6280 	bic.w	r2, r2, #1024	; 0x400
 80032e8:	601a      	str	r2, [r3, #0]

      /* Clear ADDR flag */
      __HAL_I2C_CLEAR_ADDRFLAG(hi2c);
 80032ea:	2300      	movs	r3, #0
 80032ec:	61fb      	str	r3, [r7, #28]
 80032ee:	68fb      	ldr	r3, [r7, #12]
 80032f0:	681b      	ldr	r3, [r3, #0]
 80032f2:	695b      	ldr	r3, [r3, #20]
 80032f4:	61fb      	str	r3, [r7, #28]
 80032f6:	68fb      	ldr	r3, [r7, #12]
 80032f8:	681b      	ldr	r3, [r3, #0]
 80032fa:	699b      	ldr	r3, [r3, #24]
 80032fc:	61fb      	str	r3, [r7, #28]
 80032fe:	69fb      	ldr	r3, [r7, #28]

      /* Generate Stop */
      SET_BIT(hi2c->Instance->CR1, I2C_CR1_STOP);
 8003300:	68fb      	ldr	r3, [r7, #12]
 8003302:	681b      	ldr	r3, [r3, #0]
 8003304:	681a      	ldr	r2, [r3, #0]
 8003306:	68fb      	ldr	r3, [r7, #12]
 8003308:	681b      	ldr	r3, [r3, #0]
 800330a:	f442 7200 	orr.w	r2, r2, #512	; 0x200
 800330e:	601a      	str	r2, [r3, #0]
 8003310:	e178      	b.n	8003604 <HAL_I2C_Master_Receive+0x430>
    }
    else if (hi2c->XferSize == 2U)
 8003312:	68fb      	ldr	r3, [r7, #12]
 8003314:	8d1b      	ldrh	r3, [r3, #40]	; 0x28
 8003316:	2b02      	cmp	r3, #2
 8003318:	d11b      	bne.n	8003352 <HAL_I2C_Master_Receive+0x17e>
    {
      /* Disable Acknowledge */
      CLEAR_BIT(hi2c->Instance->CR1, I2C_CR1_ACK);
 800331a:	68fb      	ldr	r3, [r7, #12]
 800331c:	681b      	ldr	r3, [r3, #0]
 800331e:	681a      	ldr	r2, [r3, #0]
 8003320:	68fb      	ldr	r3, [r7, #12]
 8003322:	681b      	ldr	r3, [r3, #0]
 8003324:	f422 6280 	bic.w	r2, r2, #1024	; 0x400
 8003328:	601a      	str	r2, [r3, #0]

      /* Enable Pos */
      SET_BIT(hi2c->Instance->CR1, I2C_CR1_POS);
 800332a:	68fb      	ldr	r3, [r7, #12]
 800332c:	681b      	ldr	r3, [r3, #0]
 800332e:	681a      	ldr	r2, [r3, #0]
 8003330:	68fb      	ldr	r3, [r7, #12]
 8003332:	681b      	ldr	r3, [r3, #0]
 8003334:	f442 6200 	orr.w	r2, r2, #2048	; 0x800
 8003338:	601a      	str	r2, [r3, #0]

      /* Clear ADDR flag */
      __HAL_I2C_CLEAR_ADDRFLAG(hi2c);
 800333a:	2300      	movs	r3, #0
 800333c:	61bb      	str	r3, [r7, #24]
 800333e:	68fb      	ldr	r3, [r7, #12]
 8003340:	681b      	ldr	r3, [r3, #0]
 8003342:	695b      	ldr	r3, [r3, #20]
 8003344:	61bb      	str	r3, [r7, #24]
 8003346:	68fb      	ldr	r3, [r7, #12]
 8003348:	681b      	ldr	r3, [r3, #0]
 800334a:	699b      	ldr	r3, [r3, #24]
 800334c:	61bb      	str	r3, [r7, #24]
 800334e:	69bb      	ldr	r3, [r7, #24]
 8003350:	e158      	b.n	8003604 <HAL_I2C_Master_Receive+0x430>
    }
    else
    {
      /* Enable Acknowledge */
      SET_BIT(hi2c->Instance->CR1, I2C_CR1_ACK);
 8003352:	68fb      	ldr	r3, [r7, #12]
 8003354:	681b      	ldr	r3, [r3, #0]
 8003356:	681a      	ldr	r2, [r3, #0]
 8003358:	68fb      	ldr	r3, [r7, #12]
 800335a:	681b      	ldr	r3, [r3, #0]
 800335c:	f442 6280 	orr.w	r2, r2, #1024	; 0x400
 8003360:	601a      	str	r2, [r3, #0]

      /* Clear ADDR flag */
      __HAL_I2C_CLEAR_ADDRFLAG(hi2c);
 8003362:	2300      	movs	r3, #0
 8003364:	617b      	str	r3, [r7, #20]
 8003366:	68fb      	ldr	r3, [r7, #12]
 8003368:	681b      	ldr	r3, [r3, #0]
 800336a:	695b      	ldr	r3, [r3, #20]
 800336c:	617b      	str	r3, [r7, #20]
 800336e:	68fb      	ldr	r3, [r7, #12]
 8003370:	681b      	ldr	r3, [r3, #0]
 8003372:	699b      	ldr	r3, [r3, #24]
 8003374:	617b      	str	r3, [r7, #20]
 8003376:	697b      	ldr	r3, [r7, #20]
    }

    while (hi2c->XferSize > 0U)
 8003378:	e144      	b.n	8003604 <HAL_I2C_Master_Receive+0x430>
    {
      if (hi2c->XferSize <= 3U)
 800337a:	68fb      	ldr	r3, [r7, #12]
 800337c:	8d1b      	ldrh	r3, [r3, #40]	; 0x28
 800337e:	2b03      	cmp	r3, #3
 8003380:	f200 80f1 	bhi.w	8003566 <HAL_I2C_Master_Receive+0x392>
      {
        /* One byte */
        if (hi2c->XferSize == 1U)
 8003384:	68fb      	ldr	r3, [r7, #12]
 8003386:	8d1b      	ldrh	r3, [r3, #40]	; 0x28
 8003388:	2b01      	cmp	r3, #1
 800338a:	d123      	bne.n	80033d4 <HAL_I2C_Master_Receive+0x200>
        {
          /* Wait until RXNE flag is set */
          if (I2C_WaitOnRXNEFlagUntilTimeout(hi2c, Timeout, tickstart) != HAL_OK)
 800338c:	6a7a      	ldr	r2, [r7, #36]	; 0x24
 800338e:	6b39      	ldr	r1, [r7, #48]	; 0x30
 8003390:	68f8      	ldr	r0, [r7, #12]
 8003392:	f000 fd79 	bl	8003e88 <I2C_WaitOnRXNEFlagUntilTimeout>
 8003396:	4603      	mov	r3, r0
 8003398:	2b00      	cmp	r3, #0
 800339a:	d001      	beq.n	80033a0 <HAL_I2C_Master_Receive+0x1cc>
          {
            return HAL_ERROR;
 800339c:	2301      	movs	r3, #1
 800339e:	e145      	b.n	800362c <HAL_I2C_Master_Receive+0x458>
          }

          /* Read data from DR */
          *hi2c->pBuffPtr = (uint8_t)hi2c->Instance->DR;
 80033a0:	68fb      	ldr	r3, [r7, #12]
 80033a2:	681b      	ldr	r3, [r3, #0]
 80033a4:	691a      	ldr	r2, [r3, #16]
 80033a6:	68fb      	ldr	r3, [r7, #12]
 80033a8:	6a5b      	ldr	r3, [r3, #36]	; 0x24
 80033aa:	b2d2      	uxtb	r2, r2
 80033ac:	701a      	strb	r2, [r3, #0]

          /* Increment Buffer pointer */
          hi2c->pBuffPtr++;
 80033ae:	68fb      	ldr	r3, [r7, #12]
 80033b0:	6a5b      	ldr	r3, [r3, #36]	; 0x24
 80033b2:	1c5a      	adds	r2, r3, #1
 80033b4:	68fb      	ldr	r3, [r7, #12]
 80033b6:	625a      	str	r2, [r3, #36]	; 0x24

          /* Update counter */
          hi2c->XferSize--;
 80033b8:	68fb      	ldr	r3, [r7, #12]
 80033ba:	8d1b      	ldrh	r3, [r3, #40]	; 0x28
 80033bc:	3b01      	subs	r3, #1
 80033be:	b29a      	uxth	r2, r3
 80033c0:	68fb      	ldr	r3, [r7, #12]
 80033c2:	851a      	strh	r2, [r3, #40]	; 0x28
          hi2c->XferCount--;
 80033c4:	68fb      	ldr	r3, [r7, #12]
 80033c6:	8d5b      	ldrh	r3, [r3, #42]	; 0x2a
 80033c8:	b29b      	uxth	r3, r3
 80033ca:	3b01      	subs	r3, #1
 80033cc:	b29a      	uxth	r2, r3
 80033ce:	68fb      	ldr	r3, [r7, #12]
 80033d0:	855a      	strh	r2, [r3, #42]	; 0x2a
 80033d2:	e117      	b.n	8003604 <HAL_I2C_Master_Receive+0x430>
        }
        /* Two bytes */
        else if (hi2c->XferSize == 2U)
 80033d4:	68fb      	ldr	r3, [r7, #12]
 80033d6:	8d1b      	ldrh	r3, [r3, #40]	; 0x28
 80033d8:	2b02      	cmp	r3, #2
 80033da:	d14e      	bne.n	800347a <HAL_I2C_Master_Receive+0x2a6>
        {
          /* Wait until BTF flag is set */
          if (I2C_WaitOnFlagUntilTimeout(hi2c, I2C_FLAG_BTF, RESET, Timeout, tickstart) != HAL_OK)
 80033dc:	6a7b      	ldr	r3, [r7, #36]	; 0x24
 80033de:	9300      	str	r3, [sp, #0]
 80033e0:	6b3b      	ldr	r3, [r7, #48]	; 0x30
 80033e2:	2200      	movs	r2, #0
 80033e4:	4906      	ldr	r1, [pc, #24]	; (8003400 <HAL_I2C_Master_Receive+0x22c>)
 80033e6:	68f8      	ldr	r0, [r7, #12]
 80033e8:	f000 fba4 	bl	8003b34 <I2C_WaitOnFlagUntilTimeout>
 80033ec:	4603      	mov	r3, r0
 80033ee:	2b00      	cmp	r3, #0
 80033f0:	d008      	beq.n	8003404 <HAL_I2C_Master_Receive+0x230>
          {
            return HAL_ERROR;
 80033f2:	2301      	movs	r3, #1
 80033f4:	e11a      	b.n	800362c <HAL_I2C_Master_Receive+0x458>
 80033f6:	bf00      	nop
 80033f8:	00100002 	.word	0x00100002
 80033fc:	ffff0000 	.word	0xffff0000
 8003400:	00010004 	.word	0x00010004
          }

          /* Generate Stop */
          SET_BIT(hi2c->Instance->CR1, I2C_CR1_STOP);
 8003404:	68fb      	ldr	r3, [r7, #12]
 8003406:	681b      	ldr	r3, [r3, #0]
 8003408:	681a      	ldr	r2, [r3, #0]
 800340a:	68fb      	ldr	r3, [r7, #12]
 800340c:	681b      	ldr	r3, [r3, #0]
 800340e:	f442 7200 	orr.w	r2, r2, #512	; 0x200
 8003412:	601a      	str	r2, [r3, #0]

          /* Read data from DR */
          *hi2c->pBuffPtr = (uint8_t)hi2c->Instance->DR;
 8003414:	68fb      	ldr	r3, [r7, #12]
 8003416:	681b      	ldr	r3, [r3, #0]
 8003418:	691a      	ldr	r2, [r3, #16]
 800341a:	68fb      	ldr	r3, [r7, #12]
 800341c:	6a5b      	ldr	r3, [r3, #36]	; 0x24
 800341e:	b2d2      	uxtb	r2, r2
 8003420:	701a      	strb	r2, [r3, #0]

          /* Increment Buffer pointer */
          hi2c->pBuffPtr++;
 8003422:	68fb      	ldr	r3, [r7, #12]
 8003424:	6a5b      	ldr	r3, [r3, #36]	; 0x24
 8003426:	1c5a      	adds	r2, r3, #1
 8003428:	68fb      	ldr	r3, [r7, #12]
 800342a:	625a      	str	r2, [r3, #36]	; 0x24

          /* Update counter */
          hi2c->XferSize--;
 800342c:	68fb      	ldr	r3, [r7, #12]
 800342e:	8d1b      	ldrh	r3, [r3, #40]	; 0x28
 8003430:	3b01      	subs	r3, #1
 8003432:	b29a      	uxth	r2, r3
 8003434:	68fb      	ldr	r3, [r7, #12]
 8003436:	851a      	strh	r2, [r3, #40]	; 0x28
          hi2c->XferCount--;
 8003438:	68fb      	ldr	r3, [r7, #12]
 800343a:	8d5b      	ldrh	r3, [r3, #42]	; 0x2a
 800343c:	b29b      	uxth	r3, r3
 800343e:	3b01      	subs	r3, #1
 8003440:	b29a      	uxth	r2, r3
 8003442:	68fb      	ldr	r3, [r7, #12]
 8003444:	855a      	strh	r2, [r3, #42]	; 0x2a

          /* Read data from DR */
          *hi2c->pBuffPtr = (uint8_t)hi2c->Instance->DR;
 8003446:	68fb      	ldr	r3, [r7, #12]
 8003448:	681b      	ldr	r3, [r3, #0]
 800344a:	691a      	ldr	r2, [r3, #16]
 800344c:	68fb      	ldr	r3, [r7, #12]
 800344e:	6a5b      	ldr	r3, [r3, #36]	; 0x24
 8003450:	b2d2      	uxtb	r2, r2
 8003452:	701a      	strb	r2, [r3, #0]

          /* Increment Buffer pointer */
          hi2c->pBuffPtr++;
 8003454:	68fb      	ldr	r3, [r7, #12]
 8003456:	6a5b      	ldr	r3, [r3, #36]	; 0x24
 8003458:	1c5a      	adds	r2, r3, #1
 800345a:	68fb      	ldr	r3, [r7, #12]
 800345c:	625a      	str	r2, [r3, #36]	; 0x24

          /* Update counter */
          hi2c->XferSize--;
 800345e:	68fb      	ldr	r3, [r7, #12]
 8003460:	8d1b      	ldrh	r3, [r3, #40]	; 0x28
 8003462:	3b01      	subs	r3, #1
 8003464:	b29a      	uxth	r2, r3
 8003466:	68fb      	ldr	r3, [r7, #12]
 8003468:	851a      	strh	r2, [r3, #40]	; 0x28
          hi2c->XferCount--;
 800346a:	68fb      	ldr	r3, [r7, #12]
 800346c:	8d5b      	ldrh	r3, [r3, #42]	; 0x2a
 800346e:	b29b      	uxth	r3, r3
 8003470:	3b01      	subs	r3, #1
 8003472:	b29a      	uxth	r2, r3
 8003474:	68fb      	ldr	r3, [r7, #12]
 8003476:	855a      	strh	r2, [r3, #42]	; 0x2a
 8003478:	e0c4      	b.n	8003604 <HAL_I2C_Master_Receive+0x430>
        }
        /* 3 Last bytes */
        else
        {
          /* Wait until BTF flag is set */
          if (I2C_WaitOnFlagUntilTimeout(hi2c, I2C_FLAG_BTF, RESET, Timeout, tickstart) != HAL_OK)
 800347a:	6a7b      	ldr	r3, [r7, #36]	; 0x24
 800347c:	9300      	str	r3, [sp, #0]
 800347e:	6b3b      	ldr	r3, [r7, #48]	; 0x30
 8003480:	2200      	movs	r2, #0
 8003482:	496c      	ldr	r1, [pc, #432]	; (8003634 <HAL_I2C_Master_Receive+0x460>)
 8003484:	68f8      	ldr	r0, [r7, #12]
 8003486:	f000 fb55 	bl	8003b34 <I2C_WaitOnFlagUntilTimeout>
 800348a:	4603      	mov	r3, r0
 800348c:	2b00      	cmp	r3, #0
 800348e:	d001      	beq.n	8003494 <HAL_I2C_Master_Receive+0x2c0>
          {
            return HAL_ERROR;
 8003490:	2301      	movs	r3, #1
 8003492:	e0cb      	b.n	800362c <HAL_I2C_Master_Receive+0x458>
          }

          /* Disable Acknowledge */
          CLEAR_BIT(hi2c->Instance->CR1, I2C_CR1_ACK);
 8003494:	68fb      	ldr	r3, [r7, #12]
 8003496:	681b      	ldr	r3, [r3, #0]
 8003498:	681a      	ldr	r2, [r3, #0]
 800349a:	68fb      	ldr	r3, [r7, #12]
 800349c:	681b      	ldr	r3, [r3, #0]
 800349e:	f422 6280 	bic.w	r2, r2, #1024	; 0x400
 80034a2:	601a      	str	r2, [r3, #0]

          /* Read data from DR */
          *hi2c->pBuffPtr = (uint8_t)hi2c->Instance->DR;
 80034a4:	68fb      	ldr	r3, [r7, #12]
 80034a6:	681b      	ldr	r3, [r3, #0]
 80034a8:	691a      	ldr	r2, [r3, #16]
 80034aa:	68fb      	ldr	r3, [r7, #12]
 80034ac:	6a5b      	ldr	r3, [r3, #36]	; 0x24
 80034ae:	b2d2      	uxtb	r2, r2
 80034b0:	701a      	strb	r2, [r3, #0]

          /* Increment Buffer pointer */
          hi2c->pBuffPtr++;
 80034b2:	68fb      	ldr	r3, [r7, #12]
 80034b4:	6a5b      	ldr	r3, [r3, #36]	; 0x24
 80034b6:	1c5a      	adds	r2, r3, #1
 80034b8:	68fb      	ldr	r3, [r7, #12]
 80034ba:	625a      	str	r2, [r3, #36]	; 0x24

          /* Update counter */
          hi2c->XferSize--;
 80034bc:	68fb      	ldr	r3, [r7, #12]
 80034be:	8d1b      	ldrh	r3, [r3, #40]	; 0x28
 80034c0:	3b01      	subs	r3, #1
 80034c2:	b29a      	uxth	r2, r3
 80034c4:	68fb      	ldr	r3, [r7, #12]
 80034c6:	851a      	strh	r2, [r3, #40]	; 0x28
          hi2c->XferCount--;
 80034c8:	68fb      	ldr	r3, [r7, #12]
 80034ca:	8d5b      	ldrh	r3, [r3, #42]	; 0x2a
 80034cc:	b29b      	uxth	r3, r3
 80034ce:	3b01      	subs	r3, #1
 80034d0:	b29a      	uxth	r2, r3
 80034d2:	68fb      	ldr	r3, [r7, #12]
 80034d4:	855a      	strh	r2, [r3, #42]	; 0x2a

          /* Wait until BTF flag is set */
          if (I2C_WaitOnFlagUntilTimeout(hi2c, I2C_FLAG_BTF, RESET, Timeout, tickstart) != HAL_OK)
 80034d6:	6a7b      	ldr	r3, [r7, #36]	; 0x24
 80034d8:	9300      	str	r3, [sp, #0]
 80034da:	6b3b      	ldr	r3, [r7, #48]	; 0x30
 80034dc:	2200      	movs	r2, #0
 80034de:	4955      	ldr	r1, [pc, #340]	; (8003634 <HAL_I2C_Master_Receive+0x460>)
 80034e0:	68f8      	ldr	r0, [r7, #12]
 80034e2:	f000 fb27 	bl	8003b34 <I2C_WaitOnFlagUntilTimeout>
 80034e6:	4603      	mov	r3, r0
 80034e8:	2b00      	cmp	r3, #0
 80034ea:	d001      	beq.n	80034f0 <HAL_I2C_Master_Receive+0x31c>
          {
            return HAL_ERROR;
 80034ec:	2301      	movs	r3, #1
 80034ee:	e09d      	b.n	800362c <HAL_I2C_Master_Receive+0x458>
          }

          /* Generate Stop */
          SET_BIT(hi2c->Instance->CR1, I2C_CR1_STOP);
 80034f0:	68fb      	ldr	r3, [r7, #12]
 80034f2:	681b      	ldr	r3, [r3, #0]
 80034f4:	681a      	ldr	r2, [r3, #0]
 80034f6:	68fb      	ldr	r3, [r7, #12]
 80034f8:	681b      	ldr	r3, [r3, #0]
 80034fa:	f442 7200 	orr.w	r2, r2, #512	; 0x200
 80034fe:	601a      	str	r2, [r3, #0]

          /* Read data from DR */
          *hi2c->pBuffPtr = (uint8_t)hi2c->Instance->DR;
 8003500:	68fb      	ldr	r3, [r7, #12]
 8003502:	681b      	ldr	r3, [r3, #0]
 8003504:	691a      	ldr	r2, [r3, #16]
 8003506:	68fb      	ldr	r3, [r7, #12]
 8003508:	6a5b      	ldr	r3, [r3, #36]	; 0x24
 800350a:	b2d2      	uxtb	r2, r2
 800350c:	701a      	strb	r2, [r3, #0]

          /* Increment Buffer pointer */
          hi2c->pBuffPtr++;
 800350e:	68fb      	ldr	r3, [r7, #12]
 8003510:	6a5b      	ldr	r3, [r3, #36]	; 0x24
 8003512:	1c5a      	adds	r2, r3, #1
 8003514:	68fb      	ldr	r3, [r7, #12]
 8003516:	625a      	str	r2, [r3, #36]	; 0x24

          /* Update counter */
          hi2c->XferSize--;
 8003518:	68fb      	ldr	r3, [r7, #12]
 800351a:	8d1b      	ldrh	r3, [r3, #40]	; 0x28
 800351c:	3b01      	subs	r3, #1
 800351e:	b29a      	uxth	r2, r3
 8003520:	68fb      	ldr	r3, [r7, #12]
 8003522:	851a      	strh	r2, [r3, #40]	; 0x28
          hi2c->XferCount--;
 8003524:	68fb      	ldr	r3, [r7, #12]
 8003526:	8d5b      	ldrh	r3, [r3, #42]	; 0x2a
 8003528:	b29b      	uxth	r3, r3
 800352a:	3b01      	subs	r3, #1
 800352c:	b29a      	uxth	r2, r3
 800352e:	68fb      	ldr	r3, [r7, #12]
 8003530:	855a      	strh	r2, [r3, #42]	; 0x2a

          /* Read data from DR */
          *hi2c->pBuffPtr = (uint8_t)hi2c->Instance->DR;
 8003532:	68fb      	ldr	r3, [r7, #12]
 8003534:	681b      	ldr	r3, [r3, #0]
 8003536:	691a      	ldr	r2, [r3, #16]
 8003538:	68fb      	ldr	r3, [r7, #12]
 800353a:	6a5b      	ldr	r3, [r3, #36]	; 0x24
 800353c:	b2d2      	uxtb	r2, r2
 800353e:	701a      	strb	r2, [r3, #0]

          /* Increment Buffer pointer */
          hi2c->pBuffPtr++;
 8003540:	68fb      	ldr	r3, [r7, #12]
 8003542:	6a5b      	ldr	r3, [r3, #36]	; 0x24
 8003544:	1c5a      	adds	r2, r3, #1
 8003546:	68fb      	ldr	r3, [r7, #12]
 8003548:	625a      	str	r2, [r3, #36]	; 0x24

          /* Update counter */
          hi2c->XferSize--;
 800354a:	68fb      	ldr	r3, [r7, #12]
 800354c:	8d1b      	ldrh	r3, [r3, #40]	; 0x28
 800354e:	3b01      	subs	r3, #1
 8003550:	b29a      	uxth	r2, r3
 8003552:	68fb      	ldr	r3, [r7, #12]
 8003554:	851a      	strh	r2, [r3, #40]	; 0x28
          hi2c->XferCount--;
 8003556:	68fb      	ldr	r3, [r7, #12]
 8003558:	8d5b      	ldrh	r3, [r3, #42]	; 0x2a
 800355a:	b29b      	uxth	r3, r3
 800355c:	3b01      	subs	r3, #1
 800355e:	b29a      	uxth	r2, r3
 8003560:	68fb      	ldr	r3, [r7, #12]
 8003562:	855a      	strh	r2, [r3, #42]	; 0x2a
 8003564:	e04e      	b.n	8003604 <HAL_I2C_Master_Receive+0x430>
        }
      }
      else
      {
        /* Wait until RXNE flag is set */
        if (I2C_WaitOnRXNEFlagUntilTimeout(hi2c, Timeout, tickstart) != HAL_OK)
 8003566:	6a7a      	ldr	r2, [r7, #36]	; 0x24
 8003568:	6b39      	ldr	r1, [r7, #48]	; 0x30
 800356a:	68f8      	ldr	r0, [r7, #12]
 800356c:	f000 fc8c 	bl	8003e88 <I2C_WaitOnRXNEFlagUntilTimeout>
 8003570:	4603      	mov	r3, r0
 8003572:	2b00      	cmp	r3, #0
 8003574:	d001      	beq.n	800357a <HAL_I2C_Master_Receive+0x3a6>
        {
          return HAL_ERROR;
 8003576:	2301      	movs	r3, #1
 8003578:	e058      	b.n	800362c <HAL_I2C_Master_Receive+0x458>
        }

        /* Read data from DR */
        *hi2c->pBuffPtr = (uint8_t)hi2c->Instance->DR;
 800357a:	68fb      	ldr	r3, [r7, #12]
 800357c:	681b      	ldr	r3, [r3, #0]
 800357e:	691a      	ldr	r2, [r3, #16]
 8003580:	68fb      	ldr	r3, [r7, #12]
 8003582:	6a5b      	ldr	r3, [r3, #36]	; 0x24
 8003584:	b2d2      	uxtb	r2, r2
 8003586:	701a      	strb	r2, [r3, #0]

        /* Increment Buffer pointer */
        hi2c->pBuffPtr++;
 8003588:	68fb      	ldr	r3, [r7, #12]
 800358a:	6a5b      	ldr	r3, [r3, #36]	; 0x24
 800358c:	1c5a      	adds	r2, r3, #1
 800358e:	68fb      	ldr	r3, [r7, #12]
 8003590:	625a      	str	r2, [r3, #36]	; 0x24

        /* Update counter */
        hi2c->XferSize--;
 8003592:	68fb      	ldr	r3, [r7, #12]
 8003594:	8d1b      	ldrh	r3, [r3, #40]	; 0x28
 8003596:	3b01      	subs	r3, #1
 8003598:	b29a      	uxth	r2, r3
 800359a:	68fb      	ldr	r3, [r7, #12]
 800359c:	851a      	strh	r2, [r3, #40]	; 0x28
        hi2c->XferCount--;
 800359e:	68fb      	ldr	r3, [r7, #12]
 80035a0:	8d5b      	ldrh	r3, [r3, #42]	; 0x2a
 80035a2:	b29b      	uxth	r3, r3
 80035a4:	3b01      	subs	r3, #1
 80035a6:	b29a      	uxth	r2, r3
 80035a8:	68fb      	ldr	r3, [r7, #12]
 80035aa:	855a      	strh	r2, [r3, #42]	; 0x2a

        if (__HAL_I2C_GET_FLAG(hi2c, I2C_FLAG_BTF) == SET)
 80035ac:	68fb      	ldr	r3, [r7, #12]
 80035ae:	681b      	ldr	r3, [r3, #0]
 80035b0:	695b      	ldr	r3, [r3, #20]
 80035b2:	f003 0304 	and.w	r3, r3, #4
 80035b6:	2b04      	cmp	r3, #4
 80035b8:	d124      	bne.n	8003604 <HAL_I2C_Master_Receive+0x430>
        {

          if (hi2c->XferSize == 3U)
 80035ba:	68fb      	ldr	r3, [r7, #12]
 80035bc:	8d1b      	ldrh	r3, [r3, #40]	; 0x28
 80035be:	2b03      	cmp	r3, #3
 80035c0:	d107      	bne.n	80035d2 <HAL_I2C_Master_Receive+0x3fe>
          {
            /* Disable Acknowledge */
            CLEAR_BIT(hi2c->Instance->CR1, I2C_CR1_ACK);
 80035c2:	68fb      	ldr	r3, [r7, #12]
 80035c4:	681b      	ldr	r3, [r3, #0]
 80035c6:	681a      	ldr	r2, [r3, #0]
 80035c8:	68fb      	ldr	r3, [r7, #12]
 80035ca:	681b      	ldr	r3, [r3, #0]
 80035cc:	f422 6280 	bic.w	r2, r2, #1024	; 0x400
 80035d0:	601a      	str	r2, [r3, #0]
          }

          /* Read data from DR */
          *hi2c->pBuffPtr = (uint8_t)hi2c->Instance->DR;
 80035d2:	68fb      	ldr	r3, [r7, #12]
 80035d4:	681b      	ldr	r3, [r3, #0]
 80035d6:	691a      	ldr	r2, [r3, #16]
 80035d8:	68fb      	ldr	r3, [r7, #12]
 80035da:	6a5b      	ldr	r3, [r3, #36]	; 0x24
 80035dc:	b2d2      	uxtb	r2, r2
 80035de:	701a      	strb	r2, [r3, #0]

          /* Increment Buffer pointer */
          hi2c->pBuffPtr++;
 80035e0:	68fb      	ldr	r3, [r7, #12]
 80035e2:	6a5b      	ldr	r3, [r3, #36]	; 0x24
 80035e4:	1c5a      	adds	r2, r3, #1
 80035e6:	68fb      	ldr	r3, [r7, #12]
 80035e8:	625a      	str	r2, [r3, #36]	; 0x24

          /* Update counter */
          hi2c->XferSize--;
 80035ea:	68fb      	ldr	r3, [r7, #12]
 80035ec:	8d1b      	ldrh	r3, [r3, #40]	; 0x28
 80035ee:	3b01      	subs	r3, #1
 80035f0:	b29a      	uxth	r2, r3
 80035f2:	68fb      	ldr	r3, [r7, #12]
 80035f4:	851a      	strh	r2, [r3, #40]	; 0x28
          hi2c->XferCount--;
 80035f6:	68fb      	ldr	r3, [r7, #12]
 80035f8:	8d5b      	ldrh	r3, [r3, #42]	; 0x2a
 80035fa:	b29b      	uxth	r3, r3
 80035fc:	3b01      	subs	r3, #1
 80035fe:	b29a      	uxth	r2, r3
 8003600:	68fb      	ldr	r3, [r7, #12]
 8003602:	855a      	strh	r2, [r3, #42]	; 0x2a
    while (hi2c->XferSize > 0U)
 8003604:	68fb      	ldr	r3, [r7, #12]
 8003606:	8d1b      	ldrh	r3, [r3, #40]	; 0x28
 8003608:	2b00      	cmp	r3, #0
 800360a:	f47f aeb6 	bne.w	800337a <HAL_I2C_Master_Receive+0x1a6>
        }
      }
    }

    hi2c->State = HAL_I2C_STATE_READY;
 800360e:	68fb      	ldr	r3, [r7, #12]
 8003610:	2220      	movs	r2, #32
 8003612:	f883 203d 	strb.w	r2, [r3, #61]	; 0x3d
    hi2c->Mode = HAL_I2C_MODE_NONE;
 8003616:	68fb      	ldr	r3, [r7, #12]
 8003618:	2200      	movs	r2, #0
 800361a:	f883 203e 	strb.w	r2, [r3, #62]	; 0x3e

    /* Process Unlocked */
    __HAL_UNLOCK(hi2c);
 800361e:	68fb      	ldr	r3, [r7, #12]
 8003620:	2200      	movs	r2, #0
 8003622:	f883 203c 	strb.w	r2, [r3, #60]	; 0x3c

    return HAL_OK;
 8003626:	2300      	movs	r3, #0
 8003628:	e000      	b.n	800362c <HAL_I2C_Master_Receive+0x458>
  }
  else
  {
    return HAL_BUSY;
 800362a:	2302      	movs	r3, #2
  }
}
 800362c:	4618      	mov	r0, r3
 800362e:	3728      	adds	r7, #40	; 0x28
 8003630:	46bd      	mov	sp, r7
 8003632:	bd80      	pop	{r7, pc}
 8003634:	00010004 	.word	0x00010004

08003638 <HAL_I2C_IsDeviceReady>:
  * @param  Trials Number of trials
  * @param  Timeout Timeout duration
  * @retval HAL status
  */
HAL_StatusTypeDef HAL_I2C_IsDeviceReady(I2C_HandleTypeDef *hi2c, uint16_t DevAddress, uint32_t Trials, uint32_t Timeout)
{
 8003638:	b580      	push	{r7, lr}
 800363a:	b08a      	sub	sp, #40	; 0x28
 800363c:	af02      	add	r7, sp, #8
 800363e:	60f8      	str	r0, [r7, #12]
 8003640:	607a      	str	r2, [r7, #4]
 8003642:	603b      	str	r3, [r7, #0]
 8003644:	460b      	mov	r3, r1
 8003646:	817b      	strh	r3, [r7, #10]
  /* Get tick */
  uint32_t tickstart = HAL_GetTick();
 8003648:	f7fe ffce 	bl	80025e8 <HAL_GetTick>
 800364c:	61f8      	str	r0, [r7, #28]
  uint32_t I2C_Trials = 0U;
 800364e:	2300      	movs	r3, #0
 8003650:	61bb      	str	r3, [r7, #24]
  FlagStatus tmp1;
  FlagStatus tmp2;

  if (hi2c->State == HAL_I2C_STATE_READY)
 8003652:	68fb      	ldr	r3, [r7, #12]
 8003654:	f893 303d 	ldrb.w	r3, [r3, #61]	; 0x3d
 8003658:	b2db      	uxtb	r3, r3
 800365a:	2b20      	cmp	r3, #32
 800365c:	f040 8111 	bne.w	8003882 <HAL_I2C_IsDeviceReady+0x24a>
  {
    /* Wait until BUSY flag is reset */
    if (I2C_WaitOnFlagUntilTimeout(hi2c, I2C_FLAG_BUSY, SET, I2C_TIMEOUT_BUSY_FLAG, tickstart) != HAL_OK)
 8003660:	69fb      	ldr	r3, [r7, #28]
 8003662:	9300      	str	r3, [sp, #0]
 8003664:	2319      	movs	r3, #25
 8003666:	2201      	movs	r2, #1
 8003668:	4988      	ldr	r1, [pc, #544]	; (800388c <HAL_I2C_IsDeviceReady+0x254>)
 800366a:	68f8      	ldr	r0, [r7, #12]
 800366c:	f000 fa62 	bl	8003b34 <I2C_WaitOnFlagUntilTimeout>
 8003670:	4603      	mov	r3, r0
 8003672:	2b00      	cmp	r3, #0
 8003674:	d001      	beq.n	800367a <HAL_I2C_IsDeviceReady+0x42>
    {
      return HAL_BUSY;
 8003676:	2302      	movs	r3, #2
 8003678:	e104      	b.n	8003884 <HAL_I2C_IsDeviceReady+0x24c>
    }

    /* Process Locked */
    __HAL_LOCK(hi2c);
 800367a:	68fb      	ldr	r3, [r7, #12]
 800367c:	f893 303c 	ldrb.w	r3, [r3, #60]	; 0x3c
 8003680:	2b01      	cmp	r3, #1
 8003682:	d101      	bne.n	8003688 <HAL_I2C_IsDeviceReady+0x50>
 8003684:	2302      	movs	r3, #2
 8003686:	e0fd      	b.n	8003884 <HAL_I2C_IsDeviceReady+0x24c>
 8003688:	68fb      	ldr	r3, [r7, #12]
 800368a:	2201      	movs	r2, #1
 800368c:	f883 203c 	strb.w	r2, [r3, #60]	; 0x3c

    /* Check if the I2C is already enabled */
    if ((hi2c->Instance->CR1 & I2C_CR1_PE) != I2C_CR1_PE)
 8003690:	68fb      	ldr	r3, [r7, #12]
 8003692:	681b      	ldr	r3, [r3, #0]
 8003694:	681b      	ldr	r3, [r3, #0]
 8003696:	f003 0301 	and.w	r3, r3, #1
 800369a:	2b01      	cmp	r3, #1
 800369c:	d007      	beq.n	80036ae <HAL_I2C_IsDeviceReady+0x76>
    {
      /* Enable I2C peripheral */
      __HAL_I2C_ENABLE(hi2c);
 800369e:	68fb      	ldr	r3, [r7, #12]
 80036a0:	681b      	ldr	r3, [r3, #0]
 80036a2:	681a      	ldr	r2, [r3, #0]
 80036a4:	68fb      	ldr	r3, [r7, #12]
 80036a6:	681b      	ldr	r3, [r3, #0]
 80036a8:	f042 0201 	orr.w	r2, r2, #1
 80036ac:	601a      	str	r2, [r3, #0]
    }

    /* Disable Pos */
    CLEAR_BIT(hi2c->Instance->CR1, I2C_CR1_POS);
 80036ae:	68fb      	ldr	r3, [r7, #12]
 80036b0:	681b      	ldr	r3, [r3, #0]
 80036b2:	681a      	ldr	r2, [r3, #0]
 80036b4:	68fb      	ldr	r3, [r7, #12]
 80036b6:	681b      	ldr	r3, [r3, #0]
 80036b8:	f422 6200 	bic.w	r2, r2, #2048	; 0x800
 80036bc:	601a      	str	r2, [r3, #0]

    hi2c->State = HAL_I2C_STATE_BUSY;
 80036be:	68fb      	ldr	r3, [r7, #12]
 80036c0:	2224      	movs	r2, #36	; 0x24
 80036c2:	f883 203d 	strb.w	r2, [r3, #61]	; 0x3d
    hi2c->ErrorCode = HAL_I2C_ERROR_NONE;
 80036c6:	68fb      	ldr	r3, [r7, #12]
 80036c8:	2200      	movs	r2, #0
 80036ca:	641a      	str	r2, [r3, #64]	; 0x40
    hi2c->XferOptions = I2C_NO_OPTION_FRAME;
 80036cc:	68fb      	ldr	r3, [r7, #12]
 80036ce:	4a70      	ldr	r2, [pc, #448]	; (8003890 <HAL_I2C_IsDeviceReady+0x258>)
 80036d0:	62da      	str	r2, [r3, #44]	; 0x2c

    do
    {
      /* Generate Start */
      SET_BIT(hi2c->Instance->CR1, I2C_CR1_START);
 80036d2:	68fb      	ldr	r3, [r7, #12]
 80036d4:	681b      	ldr	r3, [r3, #0]
 80036d6:	681a      	ldr	r2, [r3, #0]
 80036d8:	68fb      	ldr	r3, [r7, #12]
 80036da:	681b      	ldr	r3, [r3, #0]
 80036dc:	f442 7280 	orr.w	r2, r2, #256	; 0x100
 80036e0:	601a      	str	r2, [r3, #0]

      /* Wait until SB flag is set */
      if (I2C_WaitOnFlagUntilTimeout(hi2c, I2C_FLAG_SB, RESET, Timeout, tickstart) != HAL_OK)
 80036e2:	69fb      	ldr	r3, [r7, #28]
 80036e4:	9300      	str	r3, [sp, #0]
 80036e6:	683b      	ldr	r3, [r7, #0]
 80036e8:	2200      	movs	r2, #0
 80036ea:	f04f 1101 	mov.w	r1, #65537	; 0x10001
 80036ee:	68f8      	ldr	r0, [r7, #12]
 80036f0:	f000 fa20 	bl	8003b34 <I2C_WaitOnFlagUntilTimeout>
 80036f4:	4603      	mov	r3, r0
 80036f6:	2b00      	cmp	r3, #0
 80036f8:	d00d      	beq.n	8003716 <HAL_I2C_IsDeviceReady+0xde>
      {
        if (READ_BIT(hi2c->Instance->CR1, I2C_CR1_START) == I2C_CR1_START)
 80036fa:	68fb      	ldr	r3, [r7, #12]
 80036fc:	681b      	ldr	r3, [r3, #0]
 80036fe:	681b      	ldr	r3, [r3, #0]
 8003700:	f403 7380 	and.w	r3, r3, #256	; 0x100
 8003704:	f5b3 7f80 	cmp.w	r3, #256	; 0x100
 8003708:	d103      	bne.n	8003712 <HAL_I2C_IsDeviceReady+0xda>
        {
          hi2c->ErrorCode = HAL_I2C_WRONG_START;
 800370a:	68fb      	ldr	r3, [r7, #12]
 800370c:	f44f 7200 	mov.w	r2, #512	; 0x200
 8003710:	641a      	str	r2, [r3, #64]	; 0x40
        }
        return HAL_TIMEOUT;
 8003712:	2303      	movs	r3, #3
 8003714:	e0b6      	b.n	8003884 <HAL_I2C_IsDeviceReady+0x24c>
      }

      /* Send slave address */
      hi2c->Instance->DR = I2C_7BIT_ADD_WRITE(DevAddress);
 8003716:	897b      	ldrh	r3, [r7, #10]
 8003718:	b2db      	uxtb	r3, r3
 800371a:	461a      	mov	r2, r3
 800371c:	68fb      	ldr	r3, [r7, #12]
 800371e:	681b      	ldr	r3, [r3, #0]
 8003720:	f002 02fe 	and.w	r2, r2, #254	; 0xfe
 8003724:	611a      	str	r2, [r3, #16]

      /* Wait until ADDR or AF flag are set */
      /* Get tick */
      tickstart = HAL_GetTick();
 8003726:	f7fe ff5f 	bl	80025e8 <HAL_GetTick>
 800372a:	61f8      	str	r0, [r7, #28]

      tmp1 = __HAL_I2C_GET_FLAG(hi2c, I2C_FLAG_ADDR);
 800372c:	68fb      	ldr	r3, [r7, #12]
 800372e:	681b      	ldr	r3, [r3, #0]
 8003730:	695b      	ldr	r3, [r3, #20]
 8003732:	f003 0302 	and.w	r3, r3, #2
 8003736:	2b02      	cmp	r3, #2
 8003738:	bf0c      	ite	eq
 800373a:	2301      	moveq	r3, #1
 800373c:	2300      	movne	r3, #0
 800373e:	b2db      	uxtb	r3, r3
 8003740:	75fb      	strb	r3, [r7, #23]
      tmp2 = __HAL_I2C_GET_FLAG(hi2c, I2C_FLAG_AF);
 8003742:	68fb      	ldr	r3, [r7, #12]
 8003744:	681b      	ldr	r3, [r3, #0]
 8003746:	695b      	ldr	r3, [r3, #20]
 8003748:	f403 6380 	and.w	r3, r3, #1024	; 0x400
 800374c:	f5b3 6f80 	cmp.w	r3, #1024	; 0x400
 8003750:	bf0c      	ite	eq
 8003752:	2301      	moveq	r3, #1
 8003754:	2300      	movne	r3, #0
 8003756:	b2db      	uxtb	r3, r3
 8003758:	75bb      	strb	r3, [r7, #22]
      while ((hi2c->State != HAL_I2C_STATE_TIMEOUT) && (tmp1 == RESET) && (tmp2 == RESET))
 800375a:	e025      	b.n	80037a8 <HAL_I2C_IsDeviceReady+0x170>
      {
        if (((HAL_GetTick() - tickstart) > Timeout) || (Timeout == 0U))
 800375c:	f7fe ff44 	bl	80025e8 <HAL_GetTick>
 8003760:	4602      	mov	r2, r0
 8003762:	69fb      	ldr	r3, [r7, #28]
 8003764:	1ad3      	subs	r3, r2, r3
 8003766:	683a      	ldr	r2, [r7, #0]
 8003768:	429a      	cmp	r2, r3
 800376a:	d302      	bcc.n	8003772 <HAL_I2C_IsDeviceReady+0x13a>
 800376c:	683b      	ldr	r3, [r7, #0]
 800376e:	2b00      	cmp	r3, #0
 8003770:	d103      	bne.n	800377a <HAL_I2C_IsDeviceReady+0x142>
        {
          hi2c->State = HAL_I2C_STATE_TIMEOUT;
 8003772:	68fb      	ldr	r3, [r7, #12]
 8003774:	22a0      	movs	r2, #160	; 0xa0
 8003776:	f883 203d 	strb.w	r2, [r3, #61]	; 0x3d
        }
        tmp1 = __HAL_I2C_GET_FLAG(hi2c, I2C_FLAG_ADDR);
 800377a:	68fb      	ldr	r3, [r7, #12]
 800377c:	681b      	ldr	r3, [r3, #0]
 800377e:	695b      	ldr	r3, [r3, #20]
 8003780:	f003 0302 	and.w	r3, r3, #2
 8003784:	2b02      	cmp	r3, #2
 8003786:	bf0c      	ite	eq
 8003788:	2301      	moveq	r3, #1
 800378a:	2300      	movne	r3, #0
 800378c:	b2db      	uxtb	r3, r3
 800378e:	75fb      	strb	r3, [r7, #23]
        tmp2 = __HAL_I2C_GET_FLAG(hi2c, I2C_FLAG_AF);
 8003790:	68fb      	ldr	r3, [r7, #12]
 8003792:	681b      	ldr	r3, [r3, #0]
 8003794:	695b      	ldr	r3, [r3, #20]
 8003796:	f403 6380 	and.w	r3, r3, #1024	; 0x400
 800379a:	f5b3 6f80 	cmp.w	r3, #1024	; 0x400
 800379e:	bf0c      	ite	eq
 80037a0:	2301      	moveq	r3, #1
 80037a2:	2300      	movne	r3, #0
 80037a4:	b2db      	uxtb	r3, r3
 80037a6:	75bb      	strb	r3, [r7, #22]
      while ((hi2c->State != HAL_I2C_STATE_TIMEOUT) && (tmp1 == RESET) && (tmp2 == RESET))
 80037a8:	68fb      	ldr	r3, [r7, #12]
 80037aa:	f893 303d 	ldrb.w	r3, [r3, #61]	; 0x3d
 80037ae:	b2db      	uxtb	r3, r3
 80037b0:	2ba0      	cmp	r3, #160	; 0xa0
 80037b2:	d005      	beq.n	80037c0 <HAL_I2C_IsDeviceReady+0x188>
 80037b4:	7dfb      	ldrb	r3, [r7, #23]
 80037b6:	2b00      	cmp	r3, #0
 80037b8:	d102      	bne.n	80037c0 <HAL_I2C_IsDeviceReady+0x188>
 80037ba:	7dbb      	ldrb	r3, [r7, #22]
 80037bc:	2b00      	cmp	r3, #0
 80037be:	d0cd      	beq.n	800375c <HAL_I2C_IsDeviceReady+0x124>
      }

      hi2c->State = HAL_I2C_STATE_READY;
 80037c0:	68fb      	ldr	r3, [r7, #12]
 80037c2:	2220      	movs	r2, #32
 80037c4:	f883 203d 	strb.w	r2, [r3, #61]	; 0x3d

      /* Check if the ADDR flag has been set */
      if (__HAL_I2C_GET_FLAG(hi2c, I2C_FLAG_ADDR) == SET)
 80037c8:	68fb      	ldr	r3, [r7, #12]
 80037ca:	681b      	ldr	r3, [r3, #0]
 80037cc:	695b      	ldr	r3, [r3, #20]
 80037ce:	f003 0302 	and.w	r3, r3, #2
 80037d2:	2b02      	cmp	r3, #2
 80037d4:	d129      	bne.n	800382a <HAL_I2C_IsDeviceReady+0x1f2>
      {
        /* Generate Stop */
        SET_BIT(hi2c->Instance->CR1, I2C_CR1_STOP);
 80037d6:	68fb      	ldr	r3, [r7, #12]
 80037d8:	681b      	ldr	r3, [r3, #0]
 80037da:	681a      	ldr	r2, [r3, #0]
 80037dc:	68fb      	ldr	r3, [r7, #12]
 80037de:	681b      	ldr	r3, [r3, #0]
 80037e0:	f442 7200 	orr.w	r2, r2, #512	; 0x200
 80037e4:	601a      	str	r2, [r3, #0]

        /* Clear ADDR Flag */
        __HAL_I2C_CLEAR_ADDRFLAG(hi2c);
 80037e6:	2300      	movs	r3, #0
 80037e8:	613b      	str	r3, [r7, #16]
 80037ea:	68fb      	ldr	r3, [r7, #12]
 80037ec:	681b      	ldr	r3, [r3, #0]
 80037ee:	695b      	ldr	r3, [r3, #20]
 80037f0:	613b      	str	r3, [r7, #16]
 80037f2:	68fb      	ldr	r3, [r7, #12]
 80037f4:	681b      	ldr	r3, [r3, #0]
 80037f6:	699b      	ldr	r3, [r3, #24]
 80037f8:	613b      	str	r3, [r7, #16]
 80037fa:	693b      	ldr	r3, [r7, #16]

        /* Wait until BUSY flag is reset */
        if (I2C_WaitOnFlagUntilTimeout(hi2c, I2C_FLAG_BUSY, SET, I2C_TIMEOUT_BUSY_FLAG, tickstart) != HAL_OK)
 80037fc:	69fb      	ldr	r3, [r7, #28]
 80037fe:	9300      	str	r3, [sp, #0]
 8003800:	2319      	movs	r3, #25
 8003802:	2201      	movs	r2, #1
 8003804:	4921      	ldr	r1, [pc, #132]	; (800388c <HAL_I2C_IsDeviceReady+0x254>)
 8003806:	68f8      	ldr	r0, [r7, #12]
 8003808:	f000 f994 	bl	8003b34 <I2C_WaitOnFlagUntilTimeout>
 800380c:	4603      	mov	r3, r0
 800380e:	2b00      	cmp	r3, #0
 8003810:	d001      	beq.n	8003816 <HAL_I2C_IsDeviceReady+0x1de>
        {
          return HAL_ERROR;
 8003812:	2301      	movs	r3, #1
 8003814:	e036      	b.n	8003884 <HAL_I2C_IsDeviceReady+0x24c>
        }

        hi2c->State = HAL_I2C_STATE_READY;
 8003816:	68fb      	ldr	r3, [r7, #12]
 8003818:	2220      	movs	r2, #32
 800381a:	f883 203d 	strb.w	r2, [r3, #61]	; 0x3d

        /* Process Unlocked */
        __HAL_UNLOCK(hi2c);
 800381e:	68fb      	ldr	r3, [r7, #12]
 8003820:	2200      	movs	r2, #0
 8003822:	f883 203c 	strb.w	r2, [r3, #60]	; 0x3c

        return HAL_OK;
 8003826:	2300      	movs	r3, #0
 8003828:	e02c      	b.n	8003884 <HAL_I2C_IsDeviceReady+0x24c>
      }
      else
      {
        /* Generate Stop */
        SET_BIT(hi2c->Instance->CR1, I2C_CR1_STOP);
 800382a:	68fb      	ldr	r3, [r7, #12]
 800382c:	681b      	ldr	r3, [r3, #0]
 800382e:	681a      	ldr	r2, [r3, #0]
 8003830:	68fb      	ldr	r3, [r7, #12]
 8003832:	681b      	ldr	r3, [r3, #0]
 8003834:	f442 7200 	orr.w	r2, r2, #512	; 0x200
 8003838:	601a      	str	r2, [r3, #0]

        /* Clear AF Flag */
        __HAL_I2C_CLEAR_FLAG(hi2c, I2C_FLAG_AF);
 800383a:	68fb      	ldr	r3, [r7, #12]
 800383c:	681b      	ldr	r3, [r3, #0]
 800383e:	f46f 6280 	mvn.w	r2, #1024	; 0x400
 8003842:	615a      	str	r2, [r3, #20]

        /* Wait until BUSY flag is reset */
        if (I2C_WaitOnFlagUntilTimeout(hi2c, I2C_FLAG_BUSY, SET, I2C_TIMEOUT_BUSY_FLAG, tickstart) != HAL_OK)
 8003844:	69fb      	ldr	r3, [r7, #28]
 8003846:	9300      	str	r3, [sp, #0]
 8003848:	2319      	movs	r3, #25
 800384a:	2201      	movs	r2, #1
 800384c:	490f      	ldr	r1, [pc, #60]	; (800388c <HAL_I2C_IsDeviceReady+0x254>)
 800384e:	68f8      	ldr	r0, [r7, #12]
 8003850:	f000 f970 	bl	8003b34 <I2C_WaitOnFlagUntilTimeout>
 8003854:	4603      	mov	r3, r0
 8003856:	2b00      	cmp	r3, #0
 8003858:	d001      	beq.n	800385e <HAL_I2C_IsDeviceReady+0x226>
        {
          return HAL_ERROR;
 800385a:	2301      	movs	r3, #1
 800385c:	e012      	b.n	8003884 <HAL_I2C_IsDeviceReady+0x24c>
        }
      }

      /* Increment Trials */
      I2C_Trials++;
 800385e:	69bb      	ldr	r3, [r7, #24]
 8003860:	3301      	adds	r3, #1
 8003862:	61bb      	str	r3, [r7, #24]
    }
    while (I2C_Trials < Trials);
 8003864:	69ba      	ldr	r2, [r7, #24]
 8003866:	687b      	ldr	r3, [r7, #4]
 8003868:	429a      	cmp	r2, r3
 800386a:	f4ff af32 	bcc.w	80036d2 <HAL_I2C_IsDeviceReady+0x9a>

    hi2c->State = HAL_I2C_STATE_READY;
 800386e:	68fb      	ldr	r3, [r7, #12]
 8003870:	2220      	movs	r2, #32
 8003872:	f883 203d 	strb.w	r2, [r3, #61]	; 0x3d

    /* Process Unlocked */
    __HAL_UNLOCK(hi2c);
 8003876:	68fb      	ldr	r3, [r7, #12]
 8003878:	2200      	movs	r2, #0
 800387a:	f883 203c 	strb.w	r2, [r3, #60]	; 0x3c

    return HAL_ERROR;
 800387e:	2301      	movs	r3, #1
 8003880:	e000      	b.n	8003884 <HAL_I2C_IsDeviceReady+0x24c>
  }
  else
  {
    return HAL_BUSY;
 8003882:	2302      	movs	r3, #2
  }
}
 8003884:	4618      	mov	r0, r3
 8003886:	3720      	adds	r7, #32
 8003888:	46bd      	mov	sp, r7
 800388a:	bd80      	pop	{r7, pc}
 800388c:	00100002 	.word	0x00100002
 8003890:	ffff0000 	.word	0xffff0000

08003894 <I2C_MasterRequestWrite>:
  * @param  Timeout Timeout duration
  * @param  Tickstart Tick start value
  * @retval HAL status
  */
static HAL_StatusTypeDef I2C_MasterRequestWrite(I2C_HandleTypeDef *hi2c, uint16_t DevAddress, uint32_t Timeout, uint32_t Tickstart)
{
 8003894:	b580      	push	{r7, lr}
 8003896:	b088      	sub	sp, #32
 8003898:	af02      	add	r7, sp, #8
 800389a:	60f8      	str	r0, [r7, #12]
 800389c:	607a      	str	r2, [r7, #4]
 800389e:	603b      	str	r3, [r7, #0]
 80038a0:	460b      	mov	r3, r1
 80038a2:	817b      	strh	r3, [r7, #10]
  /* Declaration of temporary variable to prevent undefined behavior of volatile usage */
  uint32_t CurrentXferOptions = hi2c->XferOptions;
 80038a4:	68fb      	ldr	r3, [r7, #12]
 80038a6:	6adb      	ldr	r3, [r3, #44]	; 0x2c
 80038a8:	617b      	str	r3, [r7, #20]

  /* Generate Start condition if first transfer */
  if ((CurrentXferOptions == I2C_FIRST_AND_LAST_FRAME) || (CurrentXferOptions == I2C_FIRST_FRAME) || (CurrentXferOptions == I2C_NO_OPTION_FRAME))
 80038aa:	697b      	ldr	r3, [r7, #20]
 80038ac:	2b08      	cmp	r3, #8
 80038ae:	d006      	beq.n	80038be <I2C_MasterRequestWrite+0x2a>
 80038b0:	697b      	ldr	r3, [r7, #20]
 80038b2:	2b01      	cmp	r3, #1
 80038b4:	d003      	beq.n	80038be <I2C_MasterRequestWrite+0x2a>
 80038b6:	697b      	ldr	r3, [r7, #20]
 80038b8:	f513 3f80 	cmn.w	r3, #65536	; 0x10000
 80038bc:	d108      	bne.n	80038d0 <I2C_MasterRequestWrite+0x3c>
  {
    /* Generate Start */
    SET_BIT(hi2c->Instance->CR1, I2C_CR1_START);
 80038be:	68fb      	ldr	r3, [r7, #12]
 80038c0:	681b      	ldr	r3, [r3, #0]
 80038c2:	681a      	ldr	r2, [r3, #0]
 80038c4:	68fb      	ldr	r3, [r7, #12]
 80038c6:	681b      	ldr	r3, [r3, #0]
 80038c8:	f442 7280 	orr.w	r2, r2, #256	; 0x100
 80038cc:	601a      	str	r2, [r3, #0]
 80038ce:	e00b      	b.n	80038e8 <I2C_MasterRequestWrite+0x54>
  }
  else if (hi2c->PreviousState == I2C_STATE_MASTER_BUSY_RX)
 80038d0:	68fb      	ldr	r3, [r7, #12]
 80038d2:	6b1b      	ldr	r3, [r3, #48]	; 0x30
 80038d4:	2b12      	cmp	r3, #18
 80038d6:	d107      	bne.n	80038e8 <I2C_MasterRequestWrite+0x54>
  {
    /* Generate ReStart */
    SET_BIT(hi2c->Instance->CR1, I2C_CR1_START);
 80038d8:	68fb      	ldr	r3, [r7, #12]
 80038da:	681b      	ldr	r3, [r3, #0]
 80038dc:	681a      	ldr	r2, [r3, #0]
 80038de:	68fb      	ldr	r3, [r7, #12]
 80038e0:	681b      	ldr	r3, [r3, #0]
 80038e2:	f442 7280 	orr.w	r2, r2, #256	; 0x100
 80038e6:	601a      	str	r2, [r3, #0]
  {
    /* Do nothing */
  }

  /* Wait until SB flag is set */
  if (I2C_WaitOnFlagUntilTimeout(hi2c, I2C_FLAG_SB, RESET, Timeout, Tickstart) != HAL_OK)
 80038e8:	683b      	ldr	r3, [r7, #0]
 80038ea:	9300      	str	r3, [sp, #0]
 80038ec:	687b      	ldr	r3, [r7, #4]
 80038ee:	2200      	movs	r2, #0
 80038f0:	f04f 1101 	mov.w	r1, #65537	; 0x10001
 80038f4:	68f8      	ldr	r0, [r7, #12]
 80038f6:	f000 f91d 	bl	8003b34 <I2C_WaitOnFlagUntilTimeout>
 80038fa:	4603      	mov	r3, r0
 80038fc:	2b00      	cmp	r3, #0
 80038fe:	d00d      	beq.n	800391c <I2C_MasterRequestWrite+0x88>
  {
    if (READ_BIT(hi2c->Instance->CR1, I2C_CR1_START) == I2C_CR1_START)
 8003900:	68fb      	ldr	r3, [r7, #12]
 8003902:	681b      	ldr	r3, [r3, #0]
 8003904:	681b      	ldr	r3, [r3, #0]
 8003906:	f403 7380 	and.w	r3, r3, #256	; 0x100
 800390a:	f5b3 7f80 	cmp.w	r3, #256	; 0x100
 800390e:	d103      	bne.n	8003918 <I2C_MasterRequestWrite+0x84>
    {
      hi2c->ErrorCode = HAL_I2C_WRONG_START;
 8003910:	68fb      	ldr	r3, [r7, #12]
 8003912:	f44f 7200 	mov.w	r2, #512	; 0x200
 8003916:	641a      	str	r2, [r3, #64]	; 0x40
    }
    return HAL_TIMEOUT;
 8003918:	2303      	movs	r3, #3
 800391a:	e035      	b.n	8003988 <I2C_MasterRequestWrite+0xf4>
  }

  if (hi2c->Init.AddressingMode == I2C_ADDRESSINGMODE_7BIT)
 800391c:	68fb      	ldr	r3, [r7, #12]
 800391e:	691b      	ldr	r3, [r3, #16]
 8003920:	f5b3 4f80 	cmp.w	r3, #16384	; 0x4000
 8003924:	d108      	bne.n	8003938 <I2C_MasterRequestWrite+0xa4>
  {
    /* Send slave address */
    hi2c->Instance->DR = I2C_7BIT_ADD_WRITE(DevAddress);
 8003926:	897b      	ldrh	r3, [r7, #10]
 8003928:	b2db      	uxtb	r3, r3
 800392a:	461a      	mov	r2, r3
 800392c:	68fb      	ldr	r3, [r7, #12]
 800392e:	681b      	ldr	r3, [r3, #0]
 8003930:	f002 02fe 	and.w	r2, r2, #254	; 0xfe
 8003934:	611a      	str	r2, [r3, #16]
 8003936:	e01b      	b.n	8003970 <I2C_MasterRequestWrite+0xdc>
  }
  else
  {
    /* Send header of slave address */
    hi2c->Instance->DR = I2C_10BIT_HEADER_WRITE(DevAddress);
 8003938:	897b      	ldrh	r3, [r7, #10]
 800393a:	11db      	asrs	r3, r3, #7
 800393c:	b2db      	uxtb	r3, r3
 800393e:	f003 0306 	and.w	r3, r3, #6
 8003942:	b2db      	uxtb	r3, r3
 8003944:	f063 030f 	orn	r3, r3, #15
 8003948:	b2da      	uxtb	r2, r3
 800394a:	68fb      	ldr	r3, [r7, #12]
 800394c:	681b      	ldr	r3, [r3, #0]
 800394e:	611a      	str	r2, [r3, #16]

    /* Wait until ADD10 flag is set */
    if (I2C_WaitOnMasterAddressFlagUntilTimeout(hi2c, I2C_FLAG_ADD10, Timeout, Tickstart) != HAL_OK)
 8003950:	683b      	ldr	r3, [r7, #0]
 8003952:	687a      	ldr	r2, [r7, #4]
 8003954:	490e      	ldr	r1, [pc, #56]	; (8003990 <I2C_MasterRequestWrite+0xfc>)
 8003956:	68f8      	ldr	r0, [r7, #12]
 8003958:	f000 f966 	bl	8003c28 <I2C_WaitOnMasterAddressFlagUntilTimeout>
 800395c:	4603      	mov	r3, r0
 800395e:	2b00      	cmp	r3, #0
 8003960:	d001      	beq.n	8003966 <I2C_MasterRequestWrite+0xd2>
    {
      return HAL_ERROR;
 8003962:	2301      	movs	r3, #1
 8003964:	e010      	b.n	8003988 <I2C_MasterRequestWrite+0xf4>
    }

    /* Send slave address */
    hi2c->Instance->DR = I2C_10BIT_ADDRESS(DevAddress);
 8003966:	897b      	ldrh	r3, [r7, #10]
 8003968:	b2da      	uxtb	r2, r3
 800396a:	68fb      	ldr	r3, [r7, #12]
 800396c:	681b      	ldr	r3, [r3, #0]
 800396e:	611a      	str	r2, [r3, #16]
  }

  /* Wait until ADDR flag is set */
  if (I2C_WaitOnMasterAddressFlagUntilTimeout(hi2c, I2C_FLAG_ADDR, Timeout, Tickstart) != HAL_OK)
 8003970:	683b      	ldr	r3, [r7, #0]
 8003972:	687a      	ldr	r2, [r7, #4]
 8003974:	4907      	ldr	r1, [pc, #28]	; (8003994 <I2C_MasterRequestWrite+0x100>)
 8003976:	68f8      	ldr	r0, [r7, #12]
 8003978:	f000 f956 	bl	8003c28 <I2C_WaitOnMasterAddressFlagUntilTimeout>
 800397c:	4603      	mov	r3, r0
 800397e:	2b00      	cmp	r3, #0
 8003980:	d001      	beq.n	8003986 <I2C_MasterRequestWrite+0xf2>
  {
    return HAL_ERROR;
 8003982:	2301      	movs	r3, #1
 8003984:	e000      	b.n	8003988 <I2C_MasterRequestWrite+0xf4>
  }

  return HAL_OK;
 8003986:	2300      	movs	r3, #0
}
 8003988:	4618      	mov	r0, r3
 800398a:	3718      	adds	r7, #24
 800398c:	46bd      	mov	sp, r7
 800398e:	bd80      	pop	{r7, pc}
 8003990:	00010008 	.word	0x00010008
 8003994:	00010002 	.word	0x00010002

08003998 <I2C_MasterRequestRead>:
  * @param  Timeout Timeout duration
  * @param  Tickstart Tick start value
  * @retval HAL status
  */
static HAL_StatusTypeDef I2C_MasterRequestRead(I2C_HandleTypeDef *hi2c, uint16_t DevAddress, uint32_t Timeout, uint32_t Tickstart)
{
 8003998:	b580      	push	{r7, lr}
 800399a:	b088      	sub	sp, #32
 800399c:	af02      	add	r7, sp, #8
 800399e:	60f8      	str	r0, [r7, #12]
 80039a0:	607a      	str	r2, [r7, #4]
 80039a2:	603b      	str	r3, [r7, #0]
 80039a4:	460b      	mov	r3, r1
 80039a6:	817b      	strh	r3, [r7, #10]
  /* Declaration of temporary variable to prevent undefined behavior of volatile usage */
  uint32_t CurrentXferOptions = hi2c->XferOptions;
 80039a8:	68fb      	ldr	r3, [r7, #12]
 80039aa:	6adb      	ldr	r3, [r3, #44]	; 0x2c
 80039ac:	617b      	str	r3, [r7, #20]

  /* Enable Acknowledge */
  SET_BIT(hi2c->Instance->CR1, I2C_CR1_ACK);
 80039ae:	68fb      	ldr	r3, [r7, #12]
 80039b0:	681b      	ldr	r3, [r3, #0]
 80039b2:	681a      	ldr	r2, [r3, #0]
 80039b4:	68fb      	ldr	r3, [r7, #12]
 80039b6:	681b      	ldr	r3, [r3, #0]
 80039b8:	f442 6280 	orr.w	r2, r2, #1024	; 0x400
 80039bc:	601a      	str	r2, [r3, #0]

  /* Generate Start condition if first transfer */
  if ((CurrentXferOptions == I2C_FIRST_AND_LAST_FRAME) || (CurrentXferOptions == I2C_FIRST_FRAME)  || (CurrentXferOptions == I2C_NO_OPTION_FRAME))
 80039be:	697b      	ldr	r3, [r7, #20]
 80039c0:	2b08      	cmp	r3, #8
 80039c2:	d006      	beq.n	80039d2 <I2C_MasterRequestRead+0x3a>
 80039c4:	697b      	ldr	r3, [r7, #20]
 80039c6:	2b01      	cmp	r3, #1
 80039c8:	d003      	beq.n	80039d2 <I2C_MasterRequestRead+0x3a>
 80039ca:	697b      	ldr	r3, [r7, #20]
 80039cc:	f513 3f80 	cmn.w	r3, #65536	; 0x10000
 80039d0:	d108      	bne.n	80039e4 <I2C_MasterRequestRead+0x4c>
  {
    /* Generate Start */
    SET_BIT(hi2c->Instance->CR1, I2C_CR1_START);
 80039d2:	68fb      	ldr	r3, [r7, #12]
 80039d4:	681b      	ldr	r3, [r3, #0]
 80039d6:	681a      	ldr	r2, [r3, #0]
 80039d8:	68fb      	ldr	r3, [r7, #12]
 80039da:	681b      	ldr	r3, [r3, #0]
 80039dc:	f442 7280 	orr.w	r2, r2, #256	; 0x100
 80039e0:	601a      	str	r2, [r3, #0]
 80039e2:	e00b      	b.n	80039fc <I2C_MasterRequestRead+0x64>
  }
  else if (hi2c->PreviousState == I2C_STATE_MASTER_BUSY_TX)
 80039e4:	68fb      	ldr	r3, [r7, #12]
 80039e6:	6b1b      	ldr	r3, [r3, #48]	; 0x30
 80039e8:	2b11      	cmp	r3, #17
 80039ea:	d107      	bne.n	80039fc <I2C_MasterRequestRead+0x64>
  {
    /* Generate ReStart */
    SET_BIT(hi2c->Instance->CR1, I2C_CR1_START);
 80039ec:	68fb      	ldr	r3, [r7, #12]
 80039ee:	681b      	ldr	r3, [r3, #0]
 80039f0:	681a      	ldr	r2, [r3, #0]
 80039f2:	68fb      	ldr	r3, [r7, #12]
 80039f4:	681b      	ldr	r3, [r3, #0]
 80039f6:	f442 7280 	orr.w	r2, r2, #256	; 0x100
 80039fa:	601a      	str	r2, [r3, #0]
  {
    /* Do nothing */
  }

  /* Wait until SB flag is set */
  if (I2C_WaitOnFlagUntilTimeout(hi2c, I2C_FLAG_SB, RESET, Timeout, Tickstart) != HAL_OK)
 80039fc:	683b      	ldr	r3, [r7, #0]
 80039fe:	9300      	str	r3, [sp, #0]
 8003a00:	687b      	ldr	r3, [r7, #4]
 8003a02:	2200      	movs	r2, #0
 8003a04:	f04f 1101 	mov.w	r1, #65537	; 0x10001
 8003a08:	68f8      	ldr	r0, [r7, #12]
 8003a0a:	f000 f893 	bl	8003b34 <I2C_WaitOnFlagUntilTimeout>
 8003a0e:	4603      	mov	r3, r0
 8003a10:	2b00      	cmp	r3, #0
 8003a12:	d00d      	beq.n	8003a30 <I2C_MasterRequestRead+0x98>
  {
    if (READ_BIT(hi2c->Instance->CR1, I2C_CR1_START) == I2C_CR1_START)
 8003a14:	68fb      	ldr	r3, [r7, #12]
 8003a16:	681b      	ldr	r3, [r3, #0]
 8003a18:	681b      	ldr	r3, [r3, #0]
 8003a1a:	f403 7380 	and.w	r3, r3, #256	; 0x100
 8003a1e:	f5b3 7f80 	cmp.w	r3, #256	; 0x100
 8003a22:	d103      	bne.n	8003a2c <I2C_MasterRequestRead+0x94>
    {
      hi2c->ErrorCode = HAL_I2C_WRONG_START;
 8003a24:	68fb      	ldr	r3, [r7, #12]
 8003a26:	f44f 7200 	mov.w	r2, #512	; 0x200
 8003a2a:	641a      	str	r2, [r3, #64]	; 0x40
    }
    return HAL_TIMEOUT;
 8003a2c:	2303      	movs	r3, #3
 8003a2e:	e079      	b.n	8003b24 <I2C_MasterRequestRead+0x18c>
  }

  if (hi2c->Init.AddressingMode == I2C_ADDRESSINGMODE_7BIT)
 8003a30:	68fb      	ldr	r3, [r7, #12]
 8003a32:	691b      	ldr	r3, [r3, #16]
 8003a34:	f5b3 4f80 	cmp.w	r3, #16384	; 0x4000
 8003a38:	d108      	bne.n	8003a4c <I2C_MasterRequestRead+0xb4>
  {
    /* Send slave address */
    hi2c->Instance->DR = I2C_7BIT_ADD_READ(DevAddress);
 8003a3a:	897b      	ldrh	r3, [r7, #10]
 8003a3c:	b2db      	uxtb	r3, r3
 8003a3e:	f043 0301 	orr.w	r3, r3, #1
 8003a42:	b2da      	uxtb	r2, r3
 8003a44:	68fb      	ldr	r3, [r7, #12]
 8003a46:	681b      	ldr	r3, [r3, #0]
 8003a48:	611a      	str	r2, [r3, #16]
 8003a4a:	e05f      	b.n	8003b0c <I2C_MasterRequestRead+0x174>
  }
  else
  {
    /* Send header of slave address */
    hi2c->Instance->DR = I2C_10BIT_HEADER_WRITE(DevAddress);
 8003a4c:	897b      	ldrh	r3, [r7, #10]
 8003a4e:	11db      	asrs	r3, r3, #7
 8003a50:	b2db      	uxtb	r3, r3
 8003a52:	f003 0306 	and.w	r3, r3, #6
 8003a56:	b2db      	uxtb	r3, r3
 8003a58:	f063 030f 	orn	r3, r3, #15
 8003a5c:	b2da      	uxtb	r2, r3
 8003a5e:	68fb      	ldr	r3, [r7, #12]
 8003a60:	681b      	ldr	r3, [r3, #0]
 8003a62:	611a      	str	r2, [r3, #16]

    /* Wait until ADD10 flag is set */
    if (I2C_WaitOnMasterAddressFlagUntilTimeout(hi2c, I2C_FLAG_ADD10, Timeout, Tickstart) != HAL_OK)
 8003a64:	683b      	ldr	r3, [r7, #0]
 8003a66:	687a      	ldr	r2, [r7, #4]
 8003a68:	4930      	ldr	r1, [pc, #192]	; (8003b2c <I2C_MasterRequestRead+0x194>)
 8003a6a:	68f8      	ldr	r0, [r7, #12]
 8003a6c:	f000 f8dc 	bl	8003c28 <I2C_WaitOnMasterAddressFlagUntilTimeout>
 8003a70:	4603      	mov	r3, r0
 8003a72:	2b00      	cmp	r3, #0
 8003a74:	d001      	beq.n	8003a7a <I2C_MasterRequestRead+0xe2>
    {
      return HAL_ERROR;
 8003a76:	2301      	movs	r3, #1
 8003a78:	e054      	b.n	8003b24 <I2C_MasterRequestRead+0x18c>
    }

    /* Send slave address */
    hi2c->Instance->DR = I2C_10BIT_ADDRESS(DevAddress);
 8003a7a:	897b      	ldrh	r3, [r7, #10]
 8003a7c:	b2da      	uxtb	r2, r3
 8003a7e:	68fb      	ldr	r3, [r7, #12]
 8003a80:	681b      	ldr	r3, [r3, #0]
 8003a82:	611a      	str	r2, [r3, #16]

    /* Wait until ADDR flag is set */
    if (I2C_WaitOnMasterAddressFlagUntilTimeout(hi2c, I2C_FLAG_ADDR, Timeout, Tickstart) != HAL_OK)
 8003a84:	683b      	ldr	r3, [r7, #0]
 8003a86:	687a      	ldr	r2, [r7, #4]
 8003a88:	4929      	ldr	r1, [pc, #164]	; (8003b30 <I2C_MasterRequestRead+0x198>)
 8003a8a:	68f8      	ldr	r0, [r7, #12]
 8003a8c:	f000 f8cc 	bl	8003c28 <I2C_WaitOnMasterAddressFlagUntilTimeout>
 8003a90:	4603      	mov	r3, r0
 8003a92:	2b00      	cmp	r3, #0
 8003a94:	d001      	beq.n	8003a9a <I2C_MasterRequestRead+0x102>
    {
      return HAL_ERROR;
 8003a96:	2301      	movs	r3, #1
 8003a98:	e044      	b.n	8003b24 <I2C_MasterRequestRead+0x18c>
    }

    /* Clear ADDR flag */
    __HAL_I2C_CLEAR_ADDRFLAG(hi2c);
 8003a9a:	2300      	movs	r3, #0
 8003a9c:	613b      	str	r3, [r7, #16]
 8003a9e:	68fb      	ldr	r3, [r7, #12]
 8003aa0:	681b      	ldr	r3, [r3, #0]
 8003aa2:	695b      	ldr	r3, [r3, #20]
 8003aa4:	613b      	str	r3, [r7, #16]
 8003aa6:	68fb      	ldr	r3, [r7, #12]
 8003aa8:	681b      	ldr	r3, [r3, #0]
 8003aaa:	699b      	ldr	r3, [r3, #24]
 8003aac:	613b      	str	r3, [r7, #16]
 8003aae:	693b      	ldr	r3, [r7, #16]

    /* Generate Restart */
    SET_BIT(hi2c->Instance->CR1, I2C_CR1_START);
 8003ab0:	68fb      	ldr	r3, [r7, #12]
 8003ab2:	681b      	ldr	r3, [r3, #0]
 8003ab4:	681a      	ldr	r2, [r3, #0]
 8003ab6:	68fb      	ldr	r3, [r7, #12]
 8003ab8:	681b      	ldr	r3, [r3, #0]
 8003aba:	f442 7280 	orr.w	r2, r2, #256	; 0x100
 8003abe:	601a      	str	r2, [r3, #0]

    /* Wait until SB flag is set */
    if (I2C_WaitOnFlagUntilTimeout(hi2c, I2C_FLAG_SB, RESET, Timeout, Tickstart) != HAL_OK)
 8003ac0:	683b      	ldr	r3, [r7, #0]
 8003ac2:	9300      	str	r3, [sp, #0]
 8003ac4:	687b      	ldr	r3, [r7, #4]
 8003ac6:	2200      	movs	r2, #0
 8003ac8:	f04f 1101 	mov.w	r1, #65537	; 0x10001
 8003acc:	68f8      	ldr	r0, [r7, #12]
 8003ace:	f000 f831 	bl	8003b34 <I2C_WaitOnFlagUntilTimeout>
 8003ad2:	4603      	mov	r3, r0
 8003ad4:	2b00      	cmp	r3, #0
 8003ad6:	d00d      	beq.n	8003af4 <I2C_MasterRequestRead+0x15c>
    {
      if (READ_BIT(hi2c->Instance->CR1, I2C_CR1_START) == I2C_CR1_START)
 8003ad8:	68fb      	ldr	r3, [r7, #12]
 8003ada:	681b      	ldr	r3, [r3, #0]
 8003adc:	681b      	ldr	r3, [r3, #0]
 8003ade:	f403 7380 	and.w	r3, r3, #256	; 0x100
 8003ae2:	f5b3 7f80 	cmp.w	r3, #256	; 0x100
 8003ae6:	d103      	bne.n	8003af0 <I2C_MasterRequestRead+0x158>
      {
        hi2c->ErrorCode = HAL_I2C_WRONG_START;
 8003ae8:	68fb      	ldr	r3, [r7, #12]
 8003aea:	f44f 7200 	mov.w	r2, #512	; 0x200
 8003aee:	641a      	str	r2, [r3, #64]	; 0x40
      }
      return HAL_TIMEOUT;
 8003af0:	2303      	movs	r3, #3
 8003af2:	e017      	b.n	8003b24 <I2C_MasterRequestRead+0x18c>
    }

    /* Send header of slave address */
    hi2c->Instance->DR = I2C_10BIT_HEADER_READ(DevAddress);
 8003af4:	897b      	ldrh	r3, [r7, #10]
 8003af6:	11db      	asrs	r3, r3, #7
 8003af8:	b2db      	uxtb	r3, r3
 8003afa:	f003 0306 	and.w	r3, r3, #6
 8003afe:	b2db      	uxtb	r3, r3
 8003b00:	f063 030e 	orn	r3, r3, #14
 8003b04:	b2da      	uxtb	r2, r3
 8003b06:	68fb      	ldr	r3, [r7, #12]
 8003b08:	681b      	ldr	r3, [r3, #0]
 8003b0a:	611a      	str	r2, [r3, #16]
  }

  /* Wait until ADDR flag is set */
  if (I2C_WaitOnMasterAddressFlagUntilTimeout(hi2c, I2C_FLAG_ADDR, Timeout, Tickstart) != HAL_OK)
 8003b0c:	683b      	ldr	r3, [r7, #0]
 8003b0e:	687a      	ldr	r2, [r7, #4]
 8003b10:	4907      	ldr	r1, [pc, #28]	; (8003b30 <I2C_MasterRequestRead+0x198>)
 8003b12:	68f8      	ldr	r0, [r7, #12]
 8003b14:	f000 f888 	bl	8003c28 <I2C_WaitOnMasterAddressFlagUntilTimeout>
 8003b18:	4603      	mov	r3, r0
 8003b1a:	2b00      	cmp	r3, #0
 8003b1c:	d001      	beq.n	8003b22 <I2C_MasterRequestRead+0x18a>
  {
    return HAL_ERROR;
 8003b1e:	2301      	movs	r3, #1
 8003b20:	e000      	b.n	8003b24 <I2C_MasterRequestRead+0x18c>
  }

  return HAL_OK;
 8003b22:	2300      	movs	r3, #0
}
 8003b24:	4618      	mov	r0, r3
 8003b26:	3718      	adds	r7, #24
 8003b28:	46bd      	mov	sp, r7
 8003b2a:	bd80      	pop	{r7, pc}
 8003b2c:	00010008 	.word	0x00010008
 8003b30:	00010002 	.word	0x00010002

08003b34 <I2C_WaitOnFlagUntilTimeout>:
  * @param  Timeout Timeout duration
  * @param  Tickstart Tick start value
  * @retval HAL status
  */
static HAL_StatusTypeDef I2C_WaitOnFlagUntilTimeout(I2C_HandleTypeDef *hi2c, uint32_t Flag, FlagStatus Status, uint32_t Timeout, uint32_t Tickstart)
{
 8003b34:	b580      	push	{r7, lr}
 8003b36:	b084      	sub	sp, #16
 8003b38:	af00      	add	r7, sp, #0
 8003b3a:	60f8      	str	r0, [r7, #12]
 8003b3c:	60b9      	str	r1, [r7, #8]
 8003b3e:	603b      	str	r3, [r7, #0]
 8003b40:	4613      	mov	r3, r2
 8003b42:	71fb      	strb	r3, [r7, #7]
  /* Wait until flag is set */
  while (__HAL_I2C_GET_FLAG(hi2c, Flag) == Status)
 8003b44:	e048      	b.n	8003bd8 <I2C_WaitOnFlagUntilTimeout+0xa4>
  {
    /* Check for the Timeout */
    if (Timeout != HAL_MAX_DELAY)
 8003b46:	683b      	ldr	r3, [r7, #0]
 8003b48:	f1b3 3fff 	cmp.w	r3, #4294967295	; 0xffffffff
 8003b4c:	d044      	beq.n	8003bd8 <I2C_WaitOnFlagUntilTimeout+0xa4>
    {
      if (((HAL_GetTick() - Tickstart) > Timeout) || (Timeout == 0U))
 8003b4e:	f7fe fd4b 	bl	80025e8 <HAL_GetTick>
 8003b52:	4602      	mov	r2, r0
 8003b54:	69bb      	ldr	r3, [r7, #24]
 8003b56:	1ad3      	subs	r3, r2, r3
 8003b58:	683a      	ldr	r2, [r7, #0]
 8003b5a:	429a      	cmp	r2, r3
 8003b5c:	d302      	bcc.n	8003b64 <I2C_WaitOnFlagUntilTimeout+0x30>
 8003b5e:	683b      	ldr	r3, [r7, #0]
 8003b60:	2b00      	cmp	r3, #0
 8003b62:	d139      	bne.n	8003bd8 <I2C_WaitOnFlagUntilTimeout+0xa4>
      {
        if ((__HAL_I2C_GET_FLAG(hi2c, Flag) == Status))
 8003b64:	68bb      	ldr	r3, [r7, #8]
 8003b66:	0c1b      	lsrs	r3, r3, #16
 8003b68:	b2db      	uxtb	r3, r3
 8003b6a:	2b01      	cmp	r3, #1
 8003b6c:	d10d      	bne.n	8003b8a <I2C_WaitOnFlagUntilTimeout+0x56>
 8003b6e:	68fb      	ldr	r3, [r7, #12]
 8003b70:	681b      	ldr	r3, [r3, #0]
 8003b72:	695b      	ldr	r3, [r3, #20]
 8003b74:	43da      	mvns	r2, r3
 8003b76:	68bb      	ldr	r3, [r7, #8]
 8003b78:	4013      	ands	r3, r2
 8003b7a:	b29b      	uxth	r3, r3
 8003b7c:	2b00      	cmp	r3, #0
 8003b7e:	bf0c      	ite	eq
 8003b80:	2301      	moveq	r3, #1
 8003b82:	2300      	movne	r3, #0
 8003b84:	b2db      	uxtb	r3, r3
 8003b86:	461a      	mov	r2, r3
 8003b88:	e00c      	b.n	8003ba4 <I2C_WaitOnFlagUntilTimeout+0x70>
 8003b8a:	68fb      	ldr	r3, [r7, #12]
 8003b8c:	681b      	ldr	r3, [r3, #0]
 8003b8e:	699b      	ldr	r3, [r3, #24]
 8003b90:	43da      	mvns	r2, r3
 8003b92:	68bb      	ldr	r3, [r7, #8]
 8003b94:	4013      	ands	r3, r2
 8003b96:	b29b      	uxth	r3, r3
 8003b98:	2b00      	cmp	r3, #0
 8003b9a:	bf0c      	ite	eq
 8003b9c:	2301      	moveq	r3, #1
 8003b9e:	2300      	movne	r3, #0
 8003ba0:	b2db      	uxtb	r3, r3
 8003ba2:	461a      	mov	r2, r3
 8003ba4:	79fb      	ldrb	r3, [r7, #7]
 8003ba6:	429a      	cmp	r2, r3
 8003ba8:	d116      	bne.n	8003bd8 <I2C_WaitOnFlagUntilTimeout+0xa4>
        {
          hi2c->PreviousState     = I2C_STATE_NONE;
 8003baa:	68fb      	ldr	r3, [r7, #12]
 8003bac:	2200      	movs	r2, #0
 8003bae:	631a      	str	r2, [r3, #48]	; 0x30
          hi2c->State             = HAL_I2C_STATE_READY;
 8003bb0:	68fb      	ldr	r3, [r7, #12]
 8003bb2:	2220      	movs	r2, #32
 8003bb4:	f883 203d 	strb.w	r2, [r3, #61]	; 0x3d
          hi2c->Mode              = HAL_I2C_MODE_NONE;
 8003bb8:	68fb      	ldr	r3, [r7, #12]
 8003bba:	2200      	movs	r2, #0
 8003bbc:	f883 203e 	strb.w	r2, [r3, #62]	; 0x3e
          hi2c->ErrorCode         |= HAL_I2C_ERROR_TIMEOUT;
 8003bc0:	68fb      	ldr	r3, [r7, #12]
 8003bc2:	6c1b      	ldr	r3, [r3, #64]	; 0x40
 8003bc4:	f043 0220 	orr.w	r2, r3, #32
 8003bc8:	68fb      	ldr	r3, [r7, #12]
 8003bca:	641a      	str	r2, [r3, #64]	; 0x40

          /* Process Unlocked */
          __HAL_UNLOCK(hi2c);
 8003bcc:	68fb      	ldr	r3, [r7, #12]
 8003bce:	2200      	movs	r2, #0
 8003bd0:	f883 203c 	strb.w	r2, [r3, #60]	; 0x3c

          return HAL_ERROR;
 8003bd4:	2301      	movs	r3, #1
 8003bd6:	e023      	b.n	8003c20 <I2C_WaitOnFlagUntilTimeout+0xec>
  while (__HAL_I2C_GET_FLAG(hi2c, Flag) == Status)
 8003bd8:	68bb      	ldr	r3, [r7, #8]
 8003bda:	0c1b      	lsrs	r3, r3, #16
 8003bdc:	b2db      	uxtb	r3, r3
 8003bde:	2b01      	cmp	r3, #1
 8003be0:	d10d      	bne.n	8003bfe <I2C_WaitOnFlagUntilTimeout+0xca>
 8003be2:	68fb      	ldr	r3, [r7, #12]
 8003be4:	681b      	ldr	r3, [r3, #0]
 8003be6:	695b      	ldr	r3, [r3, #20]
 8003be8:	43da      	mvns	r2, r3
 8003bea:	68bb      	ldr	r3, [r7, #8]
 8003bec:	4013      	ands	r3, r2
 8003bee:	b29b      	uxth	r3, r3
 8003bf0:	2b00      	cmp	r3, #0
 8003bf2:	bf0c      	ite	eq
 8003bf4:	2301      	moveq	r3, #1
 8003bf6:	2300      	movne	r3, #0
 8003bf8:	b2db      	uxtb	r3, r3
 8003bfa:	461a      	mov	r2, r3
 8003bfc:	e00c      	b.n	8003c18 <I2C_WaitOnFlagUntilTimeout+0xe4>
 8003bfe:	68fb      	ldr	r3, [r7, #12]
 8003c00:	681b      	ldr	r3, [r3, #0]
 8003c02:	699b      	ldr	r3, [r3, #24]
 8003c04:	43da      	mvns	r2, r3
 8003c06:	68bb      	ldr	r3, [r7, #8]
 8003c08:	4013      	ands	r3, r2
 8003c0a:	b29b      	uxth	r3, r3
 8003c0c:	2b00      	cmp	r3, #0
 8003c0e:	bf0c      	ite	eq
 8003c10:	2301      	moveq	r3, #1
 8003c12:	2300      	movne	r3, #0
 8003c14:	b2db      	uxtb	r3, r3
 8003c16:	461a      	mov	r2, r3
 8003c18:	79fb      	ldrb	r3, [r7, #7]
 8003c1a:	429a      	cmp	r2, r3
 8003c1c:	d093      	beq.n	8003b46 <I2C_WaitOnFlagUntilTimeout+0x12>
        }
      }
    }
  }
  return HAL_OK;
 8003c1e:	2300      	movs	r3, #0
}
 8003c20:	4618      	mov	r0, r3
 8003c22:	3710      	adds	r7, #16
 8003c24:	46bd      	mov	sp, r7
 8003c26:	bd80      	pop	{r7, pc}

08003c28 <I2C_WaitOnMasterAddressFlagUntilTimeout>:
  * @param  Timeout Timeout duration
  * @param  Tickstart Tick start value
  * @retval HAL status
  */
static HAL_StatusTypeDef I2C_WaitOnMasterAddressFlagUntilTimeout(I2C_HandleTypeDef *hi2c, uint32_t Flag, uint32_t Timeout, uint32_t Tickstart)
{
 8003c28:	b580      	push	{r7, lr}
 8003c2a:	b084      	sub	sp, #16
 8003c2c:	af00      	add	r7, sp, #0
 8003c2e:	60f8      	str	r0, [r7, #12]
 8003c30:	60b9      	str	r1, [r7, #8]
 8003c32:	607a      	str	r2, [r7, #4]
 8003c34:	603b      	str	r3, [r7, #0]
  while (__HAL_I2C_GET_FLAG(hi2c, Flag) == RESET)
 8003c36:	e071      	b.n	8003d1c <I2C_WaitOnMasterAddressFlagUntilTimeout+0xf4>
  {
    if (__HAL_I2C_GET_FLAG(hi2c, I2C_FLAG_AF) == SET)
 8003c38:	68fb      	ldr	r3, [r7, #12]
 8003c3a:	681b      	ldr	r3, [r3, #0]
 8003c3c:	695b      	ldr	r3, [r3, #20]
 8003c3e:	f403 6380 	and.w	r3, r3, #1024	; 0x400
 8003c42:	f5b3 6f80 	cmp.w	r3, #1024	; 0x400
 8003c46:	d123      	bne.n	8003c90 <I2C_WaitOnMasterAddressFlagUntilTimeout+0x68>
    {
      /* Generate Stop */
      SET_BIT(hi2c->Instance->CR1, I2C_CR1_STOP);
 8003c48:	68fb      	ldr	r3, [r7, #12]
 8003c4a:	681b      	ldr	r3, [r3, #0]
 8003c4c:	681a      	ldr	r2, [r3, #0]
 8003c4e:	68fb      	ldr	r3, [r7, #12]
 8003c50:	681b      	ldr	r3, [r3, #0]
 8003c52:	f442 7200 	orr.w	r2, r2, #512	; 0x200
 8003c56:	601a      	str	r2, [r3, #0]

      /* Clear AF Flag */
      __HAL_I2C_CLEAR_FLAG(hi2c, I2C_FLAG_AF);
 8003c58:	68fb      	ldr	r3, [r7, #12]
 8003c5a:	681b      	ldr	r3, [r3, #0]
 8003c5c:	f46f 6280 	mvn.w	r2, #1024	; 0x400
 8003c60:	615a      	str	r2, [r3, #20]

      hi2c->PreviousState       = I2C_STATE_NONE;
 8003c62:	68fb      	ldr	r3, [r7, #12]
 8003c64:	2200      	movs	r2, #0
 8003c66:	631a      	str	r2, [r3, #48]	; 0x30
      hi2c->State               = HAL_I2C_STATE_READY;
 8003c68:	68fb      	ldr	r3, [r7, #12]
 8003c6a:	2220      	movs	r2, #32
 8003c6c:	f883 203d 	strb.w	r2, [r3, #61]	; 0x3d
      hi2c->Mode                = HAL_I2C_MODE_NONE;
 8003c70:	68fb      	ldr	r3, [r7, #12]
 8003c72:	2200      	movs	r2, #0
 8003c74:	f883 203e 	strb.w	r2, [r3, #62]	; 0x3e
      hi2c->ErrorCode           |= HAL_I2C_ERROR_AF;
 8003c78:	68fb      	ldr	r3, [r7, #12]
 8003c7a:	6c1b      	ldr	r3, [r3, #64]	; 0x40
 8003c7c:	f043 0204 	orr.w	r2, r3, #4
 8003c80:	68fb      	ldr	r3, [r7, #12]
 8003c82:	641a      	str	r2, [r3, #64]	; 0x40

      /* Process Unlocked */
      __HAL_UNLOCK(hi2c);
 8003c84:	68fb      	ldr	r3, [r7, #12]
 8003c86:	2200      	movs	r2, #0
 8003c88:	f883 203c 	strb.w	r2, [r3, #60]	; 0x3c

      return HAL_ERROR;
 8003c8c:	2301      	movs	r3, #1
 8003c8e:	e067      	b.n	8003d60 <I2C_WaitOnMasterAddressFlagUntilTimeout+0x138>
    }

    /* Check for the Timeout */
    if (Timeout != HAL_MAX_DELAY)
 8003c90:	687b      	ldr	r3, [r7, #4]
 8003c92:	f1b3 3fff 	cmp.w	r3, #4294967295	; 0xffffffff
 8003c96:	d041      	beq.n	8003d1c <I2C_WaitOnMasterAddressFlagUntilTimeout+0xf4>
    {
      if (((HAL_GetTick() - Tickstart) > Timeout) || (Timeout == 0U))
 8003c98:	f7fe fca6 	bl	80025e8 <HAL_GetTick>
 8003c9c:	4602      	mov	r2, r0
 8003c9e:	683b      	ldr	r3, [r7, #0]
 8003ca0:	1ad3      	subs	r3, r2, r3
 8003ca2:	687a      	ldr	r2, [r7, #4]
 8003ca4:	429a      	cmp	r2, r3
 8003ca6:	d302      	bcc.n	8003cae <I2C_WaitOnMasterAddressFlagUntilTimeout+0x86>
 8003ca8:	687b      	ldr	r3, [r7, #4]
 8003caa:	2b00      	cmp	r3, #0
 8003cac:	d136      	bne.n	8003d1c <I2C_WaitOnMasterAddressFlagUntilTimeout+0xf4>
      {
        if ((__HAL_I2C_GET_FLAG(hi2c, Flag) == RESET))
 8003cae:	68bb      	ldr	r3, [r7, #8]
 8003cb0:	0c1b      	lsrs	r3, r3, #16
 8003cb2:	b2db      	uxtb	r3, r3
 8003cb4:	2b01      	cmp	r3, #1
 8003cb6:	d10c      	bne.n	8003cd2 <I2C_WaitOnMasterAddressFlagUntilTimeout+0xaa>
 8003cb8:	68fb      	ldr	r3, [r7, #12]
 8003cba:	681b      	ldr	r3, [r3, #0]
 8003cbc:	695b      	ldr	r3, [r3, #20]
 8003cbe:	43da      	mvns	r2, r3
 8003cc0:	68bb      	ldr	r3, [r7, #8]
 8003cc2:	4013      	ands	r3, r2
 8003cc4:	b29b      	uxth	r3, r3
 8003cc6:	2b00      	cmp	r3, #0
 8003cc8:	bf14      	ite	ne
 8003cca:	2301      	movne	r3, #1
 8003ccc:	2300      	moveq	r3, #0
 8003cce:	b2db      	uxtb	r3, r3
 8003cd0:	e00b      	b.n	8003cea <I2C_WaitOnMasterAddressFlagUntilTimeout+0xc2>
 8003cd2:	68fb      	ldr	r3, [r7, #12]
 8003cd4:	681b      	ldr	r3, [r3, #0]
 8003cd6:	699b      	ldr	r3, [r3, #24]
 8003cd8:	43da      	mvns	r2, r3
 8003cda:	68bb      	ldr	r3, [r7, #8]
 8003cdc:	4013      	ands	r3, r2
 8003cde:	b29b      	uxth	r3, r3
 8003ce0:	2b00      	cmp	r3, #0
 8003ce2:	bf14      	ite	ne
 8003ce4:	2301      	movne	r3, #1
 8003ce6:	2300      	moveq	r3, #0
 8003ce8:	b2db      	uxtb	r3, r3
 8003cea:	2b00      	cmp	r3, #0
 8003cec:	d016      	beq.n	8003d1c <I2C_WaitOnMasterAddressFlagUntilTimeout+0xf4>
        {
          hi2c->PreviousState       = I2C_STATE_NONE;
 8003cee:	68fb      	ldr	r3, [r7, #12]
 8003cf0:	2200      	movs	r2, #0
 8003cf2:	631a      	str	r2, [r3, #48]	; 0x30
          hi2c->State               = HAL_I2C_STATE_READY;
 8003cf4:	68fb      	ldr	r3, [r7, #12]
 8003cf6:	2220      	movs	r2, #32
 8003cf8:	f883 203d 	strb.w	r2, [r3, #61]	; 0x3d
          hi2c->Mode                = HAL_I2C_MODE_NONE;
 8003cfc:	68fb      	ldr	r3, [r7, #12]
 8003cfe:	2200      	movs	r2, #0
 8003d00:	f883 203e 	strb.w	r2, [r3, #62]	; 0x3e
          hi2c->ErrorCode           |= HAL_I2C_ERROR_TIMEOUT;
 8003d04:	68fb      	ldr	r3, [r7, #12]
 8003d06:	6c1b      	ldr	r3, [r3, #64]	; 0x40
 8003d08:	f043 0220 	orr.w	r2, r3, #32
 8003d0c:	68fb      	ldr	r3, [r7, #12]
 8003d0e:	641a      	str	r2, [r3, #64]	; 0x40

          /* Process Unlocked */
          __HAL_UNLOCK(hi2c);
 8003d10:	68fb      	ldr	r3, [r7, #12]
 8003d12:	2200      	movs	r2, #0
 8003d14:	f883 203c 	strb.w	r2, [r3, #60]	; 0x3c

          return HAL_ERROR;
 8003d18:	2301      	movs	r3, #1
 8003d1a:	e021      	b.n	8003d60 <I2C_WaitOnMasterAddressFlagUntilTimeout+0x138>
  while (__HAL_I2C_GET_FLAG(hi2c, Flag) == RESET)
 8003d1c:	68bb      	ldr	r3, [r7, #8]
 8003d1e:	0c1b      	lsrs	r3, r3, #16
 8003d20:	b2db      	uxtb	r3, r3
 8003d22:	2b01      	cmp	r3, #1
 8003d24:	d10c      	bne.n	8003d40 <I2C_WaitOnMasterAddressFlagUntilTimeout+0x118>
 8003d26:	68fb      	ldr	r3, [r7, #12]
 8003d28:	681b      	ldr	r3, [r3, #0]
 8003d2a:	695b      	ldr	r3, [r3, #20]
 8003d2c:	43da      	mvns	r2, r3
 8003d2e:	68bb      	ldr	r3, [r7, #8]
 8003d30:	4013      	ands	r3, r2
 8003d32:	b29b      	uxth	r3, r3
 8003d34:	2b00      	cmp	r3, #0
 8003d36:	bf14      	ite	ne
 8003d38:	2301      	movne	r3, #1
 8003d3a:	2300      	moveq	r3, #0
 8003d3c:	b2db      	uxtb	r3, r3
 8003d3e:	e00b      	b.n	8003d58 <I2C_WaitOnMasterAddressFlagUntilTimeout+0x130>
 8003d40:	68fb      	ldr	r3, [r7, #12]
 8003d42:	681b      	ldr	r3, [r3, #0]
 8003d44:	699b      	ldr	r3, [r3, #24]
 8003d46:	43da      	mvns	r2, r3
 8003d48:	68bb      	ldr	r3, [r7, #8]
 8003d4a:	4013      	ands	r3, r2
 8003d4c:	b29b      	uxth	r3, r3
 8003d4e:	2b00      	cmp	r3, #0
 8003d50:	bf14      	ite	ne
 8003d52:	2301      	movne	r3, #1
 8003d54:	2300      	moveq	r3, #0
 8003d56:	b2db      	uxtb	r3, r3
 8003d58:	2b00      	cmp	r3, #0
 8003d5a:	f47f af6d 	bne.w	8003c38 <I2C_WaitOnMasterAddressFlagUntilTimeout+0x10>
        }
      }
    }
  }
  return HAL_OK;
 8003d5e:	2300      	movs	r3, #0
}
 8003d60:	4618      	mov	r0, r3
 8003d62:	3710      	adds	r7, #16
 8003d64:	46bd      	mov	sp, r7
 8003d66:	bd80      	pop	{r7, pc}

08003d68 <I2C_WaitOnTXEFlagUntilTimeout>:
  * @param  Timeout Timeout duration
  * @param  Tickstart Tick start value
  * @retval HAL status
  */
static HAL_StatusTypeDef I2C_WaitOnTXEFlagUntilTimeout(I2C_HandleTypeDef *hi2c, uint32_t Timeout, uint32_t Tickstart)
{
 8003d68:	b580      	push	{r7, lr}
 8003d6a:	b084      	sub	sp, #16
 8003d6c:	af00      	add	r7, sp, #0
 8003d6e:	60f8      	str	r0, [r7, #12]
 8003d70:	60b9      	str	r1, [r7, #8]
 8003d72:	607a      	str	r2, [r7, #4]
  while (__HAL_I2C_GET_FLAG(hi2c, I2C_FLAG_TXE) == RESET)
 8003d74:	e034      	b.n	8003de0 <I2C_WaitOnTXEFlagUntilTimeout+0x78>
  {
    /* Check if a NACK is detected */
    if (I2C_IsAcknowledgeFailed(hi2c) != HAL_OK)
 8003d76:	68f8      	ldr	r0, [r7, #12]
 8003d78:	f000 f8e3 	bl	8003f42 <I2C_IsAcknowledgeFailed>
 8003d7c:	4603      	mov	r3, r0
 8003d7e:	2b00      	cmp	r3, #0
 8003d80:	d001      	beq.n	8003d86 <I2C_WaitOnTXEFlagUntilTimeout+0x1e>
    {
      return HAL_ERROR;
 8003d82:	2301      	movs	r3, #1
 8003d84:	e034      	b.n	8003df0 <I2C_WaitOnTXEFlagUntilTimeout+0x88>
    }

    /* Check for the Timeout */
    if (Timeout != HAL_MAX_DELAY)
 8003d86:	68bb      	ldr	r3, [r7, #8]
 8003d88:	f1b3 3fff 	cmp.w	r3, #4294967295	; 0xffffffff
 8003d8c:	d028      	beq.n	8003de0 <I2C_WaitOnTXEFlagUntilTimeout+0x78>
    {
      if (((HAL_GetTick() - Tickstart) > Timeout) || (Timeout == 0U))
 8003d8e:	f7fe fc2b 	bl	80025e8 <HAL_GetTick>
 8003d92:	4602      	mov	r2, r0
 8003d94:	687b      	ldr	r3, [r7, #4]
 8003d96:	1ad3      	subs	r3, r2, r3
 8003d98:	68ba      	ldr	r2, [r7, #8]
 8003d9a:	429a      	cmp	r2, r3
 8003d9c:	d302      	bcc.n	8003da4 <I2C_WaitOnTXEFlagUntilTimeout+0x3c>
 8003d9e:	68bb      	ldr	r3, [r7, #8]
 8003da0:	2b00      	cmp	r3, #0
 8003da2:	d11d      	bne.n	8003de0 <I2C_WaitOnTXEFlagUntilTimeout+0x78>
      {
        if ((__HAL_I2C_GET_FLAG(hi2c, I2C_FLAG_TXE) == RESET))
 8003da4:	68fb      	ldr	r3, [r7, #12]
 8003da6:	681b      	ldr	r3, [r3, #0]
 8003da8:	695b      	ldr	r3, [r3, #20]
 8003daa:	f003 0380 	and.w	r3, r3, #128	; 0x80
 8003dae:	2b80      	cmp	r3, #128	; 0x80
 8003db0:	d016      	beq.n	8003de0 <I2C_WaitOnTXEFlagUntilTimeout+0x78>
        {
          hi2c->PreviousState       = I2C_STATE_NONE;
 8003db2:	68fb      	ldr	r3, [r7, #12]
 8003db4:	2200      	movs	r2, #0
 8003db6:	631a      	str	r2, [r3, #48]	; 0x30
          hi2c->State               = HAL_I2C_STATE_READY;
 8003db8:	68fb      	ldr	r3, [r7, #12]
 8003dba:	2220      	movs	r2, #32
 8003dbc:	f883 203d 	strb.w	r2, [r3, #61]	; 0x3d
          hi2c->Mode                = HAL_I2C_MODE_NONE;
 8003dc0:	68fb      	ldr	r3, [r7, #12]
 8003dc2:	2200      	movs	r2, #0
 8003dc4:	f883 203e 	strb.w	r2, [r3, #62]	; 0x3e
          hi2c->ErrorCode           |= HAL_I2C_ERROR_TIMEOUT;
 8003dc8:	68fb      	ldr	r3, [r7, #12]
 8003dca:	6c1b      	ldr	r3, [r3, #64]	; 0x40
 8003dcc:	f043 0220 	orr.w	r2, r3, #32
 8003dd0:	68fb      	ldr	r3, [r7, #12]
 8003dd2:	641a      	str	r2, [r3, #64]	; 0x40

          /* Process Unlocked */
          __HAL_UNLOCK(hi2c);
 8003dd4:	68fb      	ldr	r3, [r7, #12]
 8003dd6:	2200      	movs	r2, #0
 8003dd8:	f883 203c 	strb.w	r2, [r3, #60]	; 0x3c

          return HAL_ERROR;
 8003ddc:	2301      	movs	r3, #1
 8003dde:	e007      	b.n	8003df0 <I2C_WaitOnTXEFlagUntilTimeout+0x88>
  while (__HAL_I2C_GET_FLAG(hi2c, I2C_FLAG_TXE) == RESET)
 8003de0:	68fb      	ldr	r3, [r7, #12]
 8003de2:	681b      	ldr	r3, [r3, #0]
 8003de4:	695b      	ldr	r3, [r3, #20]
 8003de6:	f003 0380 	and.w	r3, r3, #128	; 0x80
 8003dea:	2b80      	cmp	r3, #128	; 0x80
 8003dec:	d1c3      	bne.n	8003d76 <I2C_WaitOnTXEFlagUntilTimeout+0xe>
        }
      }
    }
  }
  return HAL_OK;
 8003dee:	2300      	movs	r3, #0
}
 8003df0:	4618      	mov	r0, r3
 8003df2:	3710      	adds	r7, #16
 8003df4:	46bd      	mov	sp, r7
 8003df6:	bd80      	pop	{r7, pc}

08003df8 <I2C_WaitOnBTFFlagUntilTimeout>:
  * @param  Timeout Timeout duration
  * @param  Tickstart Tick start value
  * @retval HAL status
  */
static HAL_StatusTypeDef I2C_WaitOnBTFFlagUntilTimeout(I2C_HandleTypeDef *hi2c, uint32_t Timeout, uint32_t Tickstart)
{
 8003df8:	b580      	push	{r7, lr}
 8003dfa:	b084      	sub	sp, #16
 8003dfc:	af00      	add	r7, sp, #0
 8003dfe:	60f8      	str	r0, [r7, #12]
 8003e00:	60b9      	str	r1, [r7, #8]
 8003e02:	607a      	str	r2, [r7, #4]
  while (__HAL_I2C_GET_FLAG(hi2c, I2C_FLAG_BTF) == RESET)
 8003e04:	e034      	b.n	8003e70 <I2C_WaitOnBTFFlagUntilTimeout+0x78>
  {
    /* Check if a NACK is detected */
    if (I2C_IsAcknowledgeFailed(hi2c) != HAL_OK)
 8003e06:	68f8      	ldr	r0, [r7, #12]
 8003e08:	f000 f89b 	bl	8003f42 <I2C_IsAcknowledgeFailed>
 8003e0c:	4603      	mov	r3, r0
 8003e0e:	2b00      	cmp	r3, #0
 8003e10:	d001      	beq.n	8003e16 <I2C_WaitOnBTFFlagUntilTimeout+0x1e>
    {
      return HAL_ERROR;
 8003e12:	2301      	movs	r3, #1
 8003e14:	e034      	b.n	8003e80 <I2C_WaitOnBTFFlagUntilTimeout+0x88>
    }

    /* Check for the Timeout */
    if (Timeout != HAL_MAX_DELAY)
 8003e16:	68bb      	ldr	r3, [r7, #8]
 8003e18:	f1b3 3fff 	cmp.w	r3, #4294967295	; 0xffffffff
 8003e1c:	d028      	beq.n	8003e70 <I2C_WaitOnBTFFlagUntilTimeout+0x78>
    {
      if (((HAL_GetTick() - Tickstart) > Timeout) || (Timeout == 0U))
 8003e1e:	f7fe fbe3 	bl	80025e8 <HAL_GetTick>
 8003e22:	4602      	mov	r2, r0
 8003e24:	687b      	ldr	r3, [r7, #4]
 8003e26:	1ad3      	subs	r3, r2, r3
 8003e28:	68ba      	ldr	r2, [r7, #8]
 8003e2a:	429a      	cmp	r2, r3
 8003e2c:	d302      	bcc.n	8003e34 <I2C_WaitOnBTFFlagUntilTimeout+0x3c>
 8003e2e:	68bb      	ldr	r3, [r7, #8]
 8003e30:	2b00      	cmp	r3, #0
 8003e32:	d11d      	bne.n	8003e70 <I2C_WaitOnBTFFlagUntilTimeout+0x78>
      {
        if ((__HAL_I2C_GET_FLAG(hi2c, I2C_FLAG_BTF) == RESET))
 8003e34:	68fb      	ldr	r3, [r7, #12]
 8003e36:	681b      	ldr	r3, [r3, #0]
 8003e38:	695b      	ldr	r3, [r3, #20]
 8003e3a:	f003 0304 	and.w	r3, r3, #4
 8003e3e:	2b04      	cmp	r3, #4
 8003e40:	d016      	beq.n	8003e70 <I2C_WaitOnBTFFlagUntilTimeout+0x78>
        {
          hi2c->PreviousState       = I2C_STATE_NONE;
 8003e42:	68fb      	ldr	r3, [r7, #12]
 8003e44:	2200      	movs	r2, #0
 8003e46:	631a      	str	r2, [r3, #48]	; 0x30
          hi2c->State               = HAL_I2C_STATE_READY;
 8003e48:	68fb      	ldr	r3, [r7, #12]
 8003e4a:	2220      	movs	r2, #32
 8003e4c:	f883 203d 	strb.w	r2, [r3, #61]	; 0x3d
          hi2c->Mode                = HAL_I2C_MODE_NONE;
 8003e50:	68fb      	ldr	r3, [r7, #12]
 8003e52:	2200      	movs	r2, #0
 8003e54:	f883 203e 	strb.w	r2, [r3, #62]	; 0x3e
          hi2c->ErrorCode           |= HAL_I2C_ERROR_TIMEOUT;
 8003e58:	68fb      	ldr	r3, [r7, #12]
 8003e5a:	6c1b      	ldr	r3, [r3, #64]	; 0x40
 8003e5c:	f043 0220 	orr.w	r2, r3, #32
 8003e60:	68fb      	ldr	r3, [r7, #12]
 8003e62:	641a      	str	r2, [r3, #64]	; 0x40

          /* Process Unlocked */
          __HAL_UNLOCK(hi2c);
 8003e64:	68fb      	ldr	r3, [r7, #12]
 8003e66:	2200      	movs	r2, #0
 8003e68:	f883 203c 	strb.w	r2, [r3, #60]	; 0x3c

          return HAL_ERROR;
 8003e6c:	2301      	movs	r3, #1
 8003e6e:	e007      	b.n	8003e80 <I2C_WaitOnBTFFlagUntilTimeout+0x88>
  while (__HAL_I2C_GET_FLAG(hi2c, I2C_FLAG_BTF) == RESET)
 8003e70:	68fb      	ldr	r3, [r7, #12]
 8003e72:	681b      	ldr	r3, [r3, #0]
 8003e74:	695b      	ldr	r3, [r3, #20]
 8003e76:	f003 0304 	and.w	r3, r3, #4
 8003e7a:	2b04      	cmp	r3, #4
 8003e7c:	d1c3      	bne.n	8003e06 <I2C_WaitOnBTFFlagUntilTimeout+0xe>
        }
      }
    }
  }
  return HAL_OK;
 8003e7e:	2300      	movs	r3, #0
}
 8003e80:	4618      	mov	r0, r3
 8003e82:	3710      	adds	r7, #16
 8003e84:	46bd      	mov	sp, r7
 8003e86:	bd80      	pop	{r7, pc}

08003e88 <I2C_WaitOnRXNEFlagUntilTimeout>:
  * @param  Timeout Timeout duration
  * @param  Tickstart Tick start value
  * @retval HAL status
  */
static HAL_StatusTypeDef I2C_WaitOnRXNEFlagUntilTimeout(I2C_HandleTypeDef *hi2c, uint32_t Timeout, uint32_t Tickstart)
{
 8003e88:	b580      	push	{r7, lr}
 8003e8a:	b084      	sub	sp, #16
 8003e8c:	af00      	add	r7, sp, #0
 8003e8e:	60f8      	str	r0, [r7, #12]
 8003e90:	60b9      	str	r1, [r7, #8]
 8003e92:	607a      	str	r2, [r7, #4]

  while (__HAL_I2C_GET_FLAG(hi2c, I2C_FLAG_RXNE) == RESET)
 8003e94:	e049      	b.n	8003f2a <I2C_WaitOnRXNEFlagUntilTimeout+0xa2>
  {
    /* Check if a STOPF is detected */
    if (__HAL_I2C_GET_FLAG(hi2c, I2C_FLAG_STOPF) == SET)
 8003e96:	68fb      	ldr	r3, [r7, #12]
 8003e98:	681b      	ldr	r3, [r3, #0]
 8003e9a:	695b      	ldr	r3, [r3, #20]
 8003e9c:	f003 0310 	and.w	r3, r3, #16
 8003ea0:	2b10      	cmp	r3, #16
 8003ea2:	d119      	bne.n	8003ed8 <I2C_WaitOnRXNEFlagUntilTimeout+0x50>
    {
      /* Clear STOP Flag */
      __HAL_I2C_CLEAR_FLAG(hi2c, I2C_FLAG_STOPF);
 8003ea4:	68fb      	ldr	r3, [r7, #12]
 8003ea6:	681b      	ldr	r3, [r3, #0]
 8003ea8:	f06f 0210 	mvn.w	r2, #16
 8003eac:	615a      	str	r2, [r3, #20]

      hi2c->PreviousState       = I2C_STATE_NONE;
 8003eae:	68fb      	ldr	r3, [r7, #12]
 8003eb0:	2200      	movs	r2, #0
 8003eb2:	631a      	str	r2, [r3, #48]	; 0x30
      hi2c->State               = HAL_I2C_STATE_READY;
 8003eb4:	68fb      	ldr	r3, [r7, #12]
 8003eb6:	2220      	movs	r2, #32
 8003eb8:	f883 203d 	strb.w	r2, [r3, #61]	; 0x3d
      hi2c->Mode                = HAL_I2C_MODE_NONE;
 8003ebc:	68fb      	ldr	r3, [r7, #12]
 8003ebe:	2200      	movs	r2, #0
 8003ec0:	f883 203e 	strb.w	r2, [r3, #62]	; 0x3e
      hi2c->ErrorCode           |= HAL_I2C_ERROR_NONE;
 8003ec4:	68fb      	ldr	r3, [r7, #12]
 8003ec6:	6c1a      	ldr	r2, [r3, #64]	; 0x40
 8003ec8:	68fb      	ldr	r3, [r7, #12]
 8003eca:	641a      	str	r2, [r3, #64]	; 0x40

      /* Process Unlocked */
      __HAL_UNLOCK(hi2c);
 8003ecc:	68fb      	ldr	r3, [r7, #12]
 8003ece:	2200      	movs	r2, #0
 8003ed0:	f883 203c 	strb.w	r2, [r3, #60]	; 0x3c

      return HAL_ERROR;
 8003ed4:	2301      	movs	r3, #1
 8003ed6:	e030      	b.n	8003f3a <I2C_WaitOnRXNEFlagUntilTimeout+0xb2>
    }

    /* Check for the Timeout */
    if (((HAL_GetTick() - Tickstart) > Timeout) || (Timeout == 0U))
 8003ed8:	f7fe fb86 	bl	80025e8 <HAL_GetTick>
 8003edc:	4602      	mov	r2, r0
 8003ede:	687b      	ldr	r3, [r7, #4]
 8003ee0:	1ad3      	subs	r3, r2, r3
 8003ee2:	68ba      	ldr	r2, [r7, #8]
 8003ee4:	429a      	cmp	r2, r3
 8003ee6:	d302      	bcc.n	8003eee <I2C_WaitOnRXNEFlagUntilTimeout+0x66>
 8003ee8:	68bb      	ldr	r3, [r7, #8]
 8003eea:	2b00      	cmp	r3, #0
 8003eec:	d11d      	bne.n	8003f2a <I2C_WaitOnRXNEFlagUntilTimeout+0xa2>
    {
      if ((__HAL_I2C_GET_FLAG(hi2c, I2C_FLAG_RXNE) == RESET))
 8003eee:	68fb      	ldr	r3, [r7, #12]
 8003ef0:	681b      	ldr	r3, [r3, #0]
 8003ef2:	695b      	ldr	r3, [r3, #20]
 8003ef4:	f003 0340 	and.w	r3, r3, #64	; 0x40
 8003ef8:	2b40      	cmp	r3, #64	; 0x40
 8003efa:	d016      	beq.n	8003f2a <I2C_WaitOnRXNEFlagUntilTimeout+0xa2>
      {
        hi2c->PreviousState       = I2C_STATE_NONE;
 8003efc:	68fb      	ldr	r3, [r7, #12]
 8003efe:	2200      	movs	r2, #0
 8003f00:	631a      	str	r2, [r3, #48]	; 0x30
        hi2c->State               = HAL_I2C_STATE_READY;
 8003f02:	68fb      	ldr	r3, [r7, #12]
 8003f04:	2220      	movs	r2, #32
 8003f06:	f883 203d 	strb.w	r2, [r3, #61]	; 0x3d
        hi2c->Mode                = HAL_I2C_MODE_NONE;
 8003f0a:	68fb      	ldr	r3, [r7, #12]
 8003f0c:	2200      	movs	r2, #0
 8003f0e:	f883 203e 	strb.w	r2, [r3, #62]	; 0x3e
        hi2c->ErrorCode           |= HAL_I2C_ERROR_TIMEOUT;
 8003f12:	68fb      	ldr	r3, [r7, #12]
 8003f14:	6c1b      	ldr	r3, [r3, #64]	; 0x40
 8003f16:	f043 0220 	orr.w	r2, r3, #32
 8003f1a:	68fb      	ldr	r3, [r7, #12]
 8003f1c:	641a      	str	r2, [r3, #64]	; 0x40

        /* Process Unlocked */
        __HAL_UNLOCK(hi2c);
 8003f1e:	68fb      	ldr	r3, [r7, #12]
 8003f20:	2200      	movs	r2, #0
 8003f22:	f883 203c 	strb.w	r2, [r3, #60]	; 0x3c

        return HAL_ERROR;
 8003f26:	2301      	movs	r3, #1
 8003f28:	e007      	b.n	8003f3a <I2C_WaitOnRXNEFlagUntilTimeout+0xb2>
  while (__HAL_I2C_GET_FLAG(hi2c, I2C_FLAG_RXNE) == RESET)
 8003f2a:	68fb      	ldr	r3, [r7, #12]
 8003f2c:	681b      	ldr	r3, [r3, #0]
 8003f2e:	695b      	ldr	r3, [r3, #20]
 8003f30:	f003 0340 	and.w	r3, r3, #64	; 0x40
 8003f34:	2b40      	cmp	r3, #64	; 0x40
 8003f36:	d1ae      	bne.n	8003e96 <I2C_WaitOnRXNEFlagUntilTimeout+0xe>
      }
    }
  }
  return HAL_OK;
 8003f38:	2300      	movs	r3, #0
}
 8003f3a:	4618      	mov	r0, r3
 8003f3c:	3710      	adds	r7, #16
 8003f3e:	46bd      	mov	sp, r7
 8003f40:	bd80      	pop	{r7, pc}

08003f42 <I2C_IsAcknowledgeFailed>:
  * @param  hi2c Pointer to a I2C_HandleTypeDef structure that contains
  *                the configuration information for the specified I2C.
  * @retval HAL status
  */
static HAL_StatusTypeDef I2C_IsAcknowledgeFailed(I2C_HandleTypeDef *hi2c)
{
 8003f42:	b480      	push	{r7}
 8003f44:	b083      	sub	sp, #12
 8003f46:	af00      	add	r7, sp, #0
 8003f48:	6078      	str	r0, [r7, #4]
  if (__HAL_I2C_GET_FLAG(hi2c, I2C_FLAG_AF) == SET)
 8003f4a:	687b      	ldr	r3, [r7, #4]
 8003f4c:	681b      	ldr	r3, [r3, #0]
 8003f4e:	695b      	ldr	r3, [r3, #20]
 8003f50:	f403 6380 	and.w	r3, r3, #1024	; 0x400
 8003f54:	f5b3 6f80 	cmp.w	r3, #1024	; 0x400
 8003f58:	d11b      	bne.n	8003f92 <I2C_IsAcknowledgeFailed+0x50>
  {
    /* Clear NACKF Flag */
    __HAL_I2C_CLEAR_FLAG(hi2c, I2C_FLAG_AF);
 8003f5a:	687b      	ldr	r3, [r7, #4]
 8003f5c:	681b      	ldr	r3, [r3, #0]
 8003f5e:	f46f 6280 	mvn.w	r2, #1024	; 0x400
 8003f62:	615a      	str	r2, [r3, #20]

    hi2c->PreviousState       = I2C_STATE_NONE;
 8003f64:	687b      	ldr	r3, [r7, #4]
 8003f66:	2200      	movs	r2, #0
 8003f68:	631a      	str	r2, [r3, #48]	; 0x30
    hi2c->State               = HAL_I2C_STATE_READY;
 8003f6a:	687b      	ldr	r3, [r7, #4]
 8003f6c:	2220      	movs	r2, #32
 8003f6e:	f883 203d 	strb.w	r2, [r3, #61]	; 0x3d
    hi2c->Mode                = HAL_I2C_MODE_NONE;
 8003f72:	687b      	ldr	r3, [r7, #4]
 8003f74:	2200      	movs	r2, #0
 8003f76:	f883 203e 	strb.w	r2, [r3, #62]	; 0x3e
    hi2c->ErrorCode           |= HAL_I2C_ERROR_AF;
 8003f7a:	687b      	ldr	r3, [r7, #4]
 8003f7c:	6c1b      	ldr	r3, [r3, #64]	; 0x40
 8003f7e:	f043 0204 	orr.w	r2, r3, #4
 8003f82:	687b      	ldr	r3, [r7, #4]
 8003f84:	641a      	str	r2, [r3, #64]	; 0x40

    /* Process Unlocked */
    __HAL_UNLOCK(hi2c);
 8003f86:	687b      	ldr	r3, [r7, #4]
 8003f88:	2200      	movs	r2, #0
 8003f8a:	f883 203c 	strb.w	r2, [r3, #60]	; 0x3c

    return HAL_ERROR;
 8003f8e:	2301      	movs	r3, #1
 8003f90:	e000      	b.n	8003f94 <I2C_IsAcknowledgeFailed+0x52>
  }
  return HAL_OK;
 8003f92:	2300      	movs	r3, #0
}
 8003f94:	4618      	mov	r0, r3
 8003f96:	370c      	adds	r7, #12
 8003f98:	46bd      	mov	sp, r7
 8003f9a:	f85d 7b04 	ldr.w	r7, [sp], #4
 8003f9e:	4770      	bx	lr

08003fa0 <HAL_I2CEx_ConfigAnalogFilter>:
  *                the configuration information for the specified I2Cx peripheral.
  * @param  AnalogFilter new state of the Analog filter.
  * @retval HAL status
  */
HAL_StatusTypeDef HAL_I2CEx_ConfigAnalogFilter(I2C_HandleTypeDef *hi2c, uint32_t AnalogFilter)
{
 8003fa0:	b480      	push	{r7}
 8003fa2:	b083      	sub	sp, #12
 8003fa4:	af00      	add	r7, sp, #0
 8003fa6:	6078      	str	r0, [r7, #4]
 8003fa8:	6039      	str	r1, [r7, #0]
  /* Check the parameters */
  assert_param(IS_I2C_ALL_INSTANCE(hi2c->Instance));
  assert_param(IS_I2C_ANALOG_FILTER(AnalogFilter));

  if (hi2c->State == HAL_I2C_STATE_READY)
 8003faa:	687b      	ldr	r3, [r7, #4]
 8003fac:	f893 303d 	ldrb.w	r3, [r3, #61]	; 0x3d
 8003fb0:	b2db      	uxtb	r3, r3
 8003fb2:	2b20      	cmp	r3, #32
 8003fb4:	d129      	bne.n	800400a <HAL_I2CEx_ConfigAnalogFilter+0x6a>
  {
    hi2c->State = HAL_I2C_STATE_BUSY;
 8003fb6:	687b      	ldr	r3, [r7, #4]
 8003fb8:	2224      	movs	r2, #36	; 0x24
 8003fba:	f883 203d 	strb.w	r2, [r3, #61]	; 0x3d

    /* Disable the selected I2C peripheral */
    __HAL_I2C_DISABLE(hi2c);
 8003fbe:	687b      	ldr	r3, [r7, #4]
 8003fc0:	681b      	ldr	r3, [r3, #0]
 8003fc2:	681a      	ldr	r2, [r3, #0]
 8003fc4:	687b      	ldr	r3, [r7, #4]
 8003fc6:	681b      	ldr	r3, [r3, #0]
 8003fc8:	f022 0201 	bic.w	r2, r2, #1
 8003fcc:	601a      	str	r2, [r3, #0]

    /* Reset I2Cx ANOFF bit */
    hi2c->Instance->FLTR &= ~(I2C_FLTR_ANOFF);
 8003fce:	687b      	ldr	r3, [r7, #4]
 8003fd0:	681b      	ldr	r3, [r3, #0]
 8003fd2:	6a5a      	ldr	r2, [r3, #36]	; 0x24
 8003fd4:	687b      	ldr	r3, [r7, #4]
 8003fd6:	681b      	ldr	r3, [r3, #0]
 8003fd8:	f022 0210 	bic.w	r2, r2, #16
 8003fdc:	625a      	str	r2, [r3, #36]	; 0x24

    /* Disable the analog filter */
    hi2c->Instance->FLTR |= AnalogFilter;
 8003fde:	687b      	ldr	r3, [r7, #4]
 8003fe0:	681b      	ldr	r3, [r3, #0]
 8003fe2:	6a59      	ldr	r1, [r3, #36]	; 0x24
 8003fe4:	687b      	ldr	r3, [r7, #4]
 8003fe6:	681b      	ldr	r3, [r3, #0]
 8003fe8:	683a      	ldr	r2, [r7, #0]
 8003fea:	430a      	orrs	r2, r1
 8003fec:	625a      	str	r2, [r3, #36]	; 0x24

    __HAL_I2C_ENABLE(hi2c);
 8003fee:	687b      	ldr	r3, [r7, #4]
 8003ff0:	681b      	ldr	r3, [r3, #0]
 8003ff2:	681a      	ldr	r2, [r3, #0]
 8003ff4:	687b      	ldr	r3, [r7, #4]
 8003ff6:	681b      	ldr	r3, [r3, #0]
 8003ff8:	f042 0201 	orr.w	r2, r2, #1
 8003ffc:	601a      	str	r2, [r3, #0]

    hi2c->State = HAL_I2C_STATE_READY;
 8003ffe:	687b      	ldr	r3, [r7, #4]
 8004000:	2220      	movs	r2, #32
 8004002:	f883 203d 	strb.w	r2, [r3, #61]	; 0x3d

    return HAL_OK;
 8004006:	2300      	movs	r3, #0
 8004008:	e000      	b.n	800400c <HAL_I2CEx_ConfigAnalogFilter+0x6c>
  }
  else
  {
    return HAL_BUSY;
 800400a:	2302      	movs	r3, #2
  }
}
 800400c:	4618      	mov	r0, r3
 800400e:	370c      	adds	r7, #12
 8004010:	46bd      	mov	sp, r7
 8004012:	f85d 7b04 	ldr.w	r7, [sp], #4
 8004016:	4770      	bx	lr

08004018 <HAL_I2CEx_ConfigDigitalFilter>:
  *                the configuration information for the specified I2Cx peripheral.
  * @param  DigitalFilter Coefficient of digital noise filter between 0x00 and 0x0F.
  * @retval HAL status
  */
HAL_StatusTypeDef HAL_I2CEx_ConfigDigitalFilter(I2C_HandleTypeDef *hi2c, uint32_t DigitalFilter)
{
 8004018:	b480      	push	{r7}
 800401a:	b085      	sub	sp, #20
 800401c:	af00      	add	r7, sp, #0
 800401e:	6078      	str	r0, [r7, #4]
 8004020:	6039      	str	r1, [r7, #0]
  uint16_t tmpreg = 0;
 8004022:	2300      	movs	r3, #0
 8004024:	81fb      	strh	r3, [r7, #14]

  /* Check the parameters */
  assert_param(IS_I2C_ALL_INSTANCE(hi2c->Instance));
  assert_param(IS_I2C_DIGITAL_FILTER(DigitalFilter));

  if (hi2c->State == HAL_I2C_STATE_READY)
 8004026:	687b      	ldr	r3, [r7, #4]
 8004028:	f893 303d 	ldrb.w	r3, [r3, #61]	; 0x3d
 800402c:	b2db      	uxtb	r3, r3
 800402e:	2b20      	cmp	r3, #32
 8004030:	d12a      	bne.n	8004088 <HAL_I2CEx_ConfigDigitalFilter+0x70>
  {
    hi2c->State = HAL_I2C_STATE_BUSY;
 8004032:	687b      	ldr	r3, [r7, #4]
 8004034:	2224      	movs	r2, #36	; 0x24
 8004036:	f883 203d 	strb.w	r2, [r3, #61]	; 0x3d

    /* Disable the selected I2C peripheral */
    __HAL_I2C_DISABLE(hi2c);
 800403a:	687b      	ldr	r3, [r7, #4]
 800403c:	681b      	ldr	r3, [r3, #0]
 800403e:	681a      	ldr	r2, [r3, #0]
 8004040:	687b      	ldr	r3, [r7, #4]
 8004042:	681b      	ldr	r3, [r3, #0]
 8004044:	f022 0201 	bic.w	r2, r2, #1
 8004048:	601a      	str	r2, [r3, #0]

    /* Get the old register value */
    tmpreg = hi2c->Instance->FLTR;
 800404a:	687b      	ldr	r3, [r7, #4]
 800404c:	681b      	ldr	r3, [r3, #0]
 800404e:	6a5b      	ldr	r3, [r3, #36]	; 0x24
 8004050:	81fb      	strh	r3, [r7, #14]

    /* Reset I2Cx DNF bit [3:0] */
    tmpreg &= ~(I2C_FLTR_DNF);
 8004052:	89fb      	ldrh	r3, [r7, #14]
 8004054:	f023 030f 	bic.w	r3, r3, #15
 8004058:	81fb      	strh	r3, [r7, #14]

    /* Set I2Cx DNF coefficient */
    tmpreg |= DigitalFilter;
 800405a:	683b      	ldr	r3, [r7, #0]
 800405c:	b29a      	uxth	r2, r3
 800405e:	89fb      	ldrh	r3, [r7, #14]
 8004060:	4313      	orrs	r3, r2
 8004062:	81fb      	strh	r3, [r7, #14]

    /* Store the new register value */
    hi2c->Instance->FLTR = tmpreg;
 8004064:	687b      	ldr	r3, [r7, #4]
 8004066:	681b      	ldr	r3, [r3, #0]
 8004068:	89fa      	ldrh	r2, [r7, #14]
 800406a:	625a      	str	r2, [r3, #36]	; 0x24

    __HAL_I2C_ENABLE(hi2c);
 800406c:	687b      	ldr	r3, [r7, #4]
 800406e:	681b      	ldr	r3, [r3, #0]
 8004070:	681a      	ldr	r2, [r3, #0]
 8004072:	687b      	ldr	r3, [r7, #4]
 8004074:	681b      	ldr	r3, [r3, #0]
 8004076:	f042 0201 	orr.w	r2, r2, #1
 800407a:	601a      	str	r2, [r3, #0]

    hi2c->State = HAL_I2C_STATE_READY;
 800407c:	687b      	ldr	r3, [r7, #4]
 800407e:	2220      	movs	r2, #32
 8004080:	f883 203d 	strb.w	r2, [r3, #61]	; 0x3d

    return HAL_OK;
 8004084:	2300      	movs	r3, #0
 8004086:	e000      	b.n	800408a <HAL_I2CEx_ConfigDigitalFilter+0x72>
  }
  else
  {
    return HAL_BUSY;
 8004088:	2302      	movs	r3, #2
  }
}
 800408a:	4618      	mov	r0, r3
 800408c:	3714      	adds	r7, #20
 800408e:	46bd      	mov	sp, r7
 8004090:	f85d 7b04 	ldr.w	r7, [sp], #4
 8004094:	4770      	bx	lr
	...

08004098 <HAL_RCC_OscConfig>:
  *         supported by this API. User should request a transition to HSE Off
  *         first and then HSE On or HSE Bypass.
  * @retval HAL status
  */
__weak HAL_StatusTypeDef HAL_RCC_OscConfig(RCC_OscInitTypeDef  *RCC_OscInitStruct)
{
 8004098:	b580      	push	{r7, lr}
 800409a:	b086      	sub	sp, #24
 800409c:	af00      	add	r7, sp, #0
 800409e:	6078      	str	r0, [r7, #4]
  uint32_t tickstart, pll_config;

  /* Check Null pointer */
  if(RCC_OscInitStruct == NULL)
 80040a0:	687b      	ldr	r3, [r7, #4]
 80040a2:	2b00      	cmp	r3, #0
 80040a4:	d101      	bne.n	80040aa <HAL_RCC_OscConfig+0x12>
  {
    return HAL_ERROR;
 80040a6:	2301      	movs	r3, #1
 80040a8:	e267      	b.n	800457a <HAL_RCC_OscConfig+0x4e2>
  }

  /* Check the parameters */
  assert_param(IS_RCC_OSCILLATORTYPE(RCC_OscInitStruct->OscillatorType));
  /*------------------------------- HSE Configuration ------------------------*/
  if(((RCC_OscInitStruct->OscillatorType) & RCC_OSCILLATORTYPE_HSE) == RCC_OSCILLATORTYPE_HSE)
 80040aa:	687b      	ldr	r3, [r7, #4]
 80040ac:	681b      	ldr	r3, [r3, #0]
 80040ae:	f003 0301 	and.w	r3, r3, #1
 80040b2:	2b00      	cmp	r3, #0
 80040b4:	d075      	beq.n	80041a2 <HAL_RCC_OscConfig+0x10a>
  {
    /* Check the parameters */
    assert_param(IS_RCC_HSE(RCC_OscInitStruct->HSEState));
    /* When the HSE is used as system clock or clock source for PLL in these cases HSE will not disabled */
    if((__HAL_RCC_GET_SYSCLK_SOURCE() == RCC_CFGR_SWS_HSE) ||\
 80040b6:	4b88      	ldr	r3, [pc, #544]	; (80042d8 <HAL_RCC_OscConfig+0x240>)
 80040b8:	689b      	ldr	r3, [r3, #8]
 80040ba:	f003 030c 	and.w	r3, r3, #12
 80040be:	2b04      	cmp	r3, #4
 80040c0:	d00c      	beq.n	80040dc <HAL_RCC_OscConfig+0x44>
      ((__HAL_RCC_GET_SYSCLK_SOURCE() == RCC_CFGR_SWS_PLL) && ((RCC->PLLCFGR & RCC_PLLCFGR_PLLSRC) == RCC_PLLCFGR_PLLSRC_HSE)))
 80040c2:	4b85      	ldr	r3, [pc, #532]	; (80042d8 <HAL_RCC_OscConfig+0x240>)
 80040c4:	689b      	ldr	r3, [r3, #8]
 80040c6:	f003 030c 	and.w	r3, r3, #12
    if((__HAL_RCC_GET_SYSCLK_SOURCE() == RCC_CFGR_SWS_HSE) ||\
 80040ca:	2b08      	cmp	r3, #8
 80040cc:	d112      	bne.n	80040f4 <HAL_RCC_OscConfig+0x5c>
      ((__HAL_RCC_GET_SYSCLK_SOURCE() == RCC_CFGR_SWS_PLL) && ((RCC->PLLCFGR & RCC_PLLCFGR_PLLSRC) == RCC_PLLCFGR_PLLSRC_HSE)))
 80040ce:	4b82      	ldr	r3, [pc, #520]	; (80042d8 <HAL_RCC_OscConfig+0x240>)
 80040d0:	685b      	ldr	r3, [r3, #4]
 80040d2:	f403 0380 	and.w	r3, r3, #4194304	; 0x400000
 80040d6:	f5b3 0f80 	cmp.w	r3, #4194304	; 0x400000
 80040da:	d10b      	bne.n	80040f4 <HAL_RCC_OscConfig+0x5c>
    {
      if((__HAL_RCC_GET_FLAG(RCC_FLAG_HSERDY) != RESET) && (RCC_OscInitStruct->HSEState == RCC_HSE_OFF))
 80040dc:	4b7e      	ldr	r3, [pc, #504]	; (80042d8 <HAL_RCC_OscConfig+0x240>)
 80040de:	681b      	ldr	r3, [r3, #0]
 80040e0:	f403 3300 	and.w	r3, r3, #131072	; 0x20000
 80040e4:	2b00      	cmp	r3, #0
 80040e6:	d05b      	beq.n	80041a0 <HAL_RCC_OscConfig+0x108>
 80040e8:	687b      	ldr	r3, [r7, #4]
 80040ea:	685b      	ldr	r3, [r3, #4]
 80040ec:	2b00      	cmp	r3, #0
 80040ee:	d157      	bne.n	80041a0 <HAL_RCC_OscConfig+0x108>
      {
        return HAL_ERROR;
 80040f0:	2301      	movs	r3, #1
 80040f2:	e242      	b.n	800457a <HAL_RCC_OscConfig+0x4e2>
      }
    }
    else
    {
      /* Set the new HSE configuration ---------------------------------------*/
      __HAL_RCC_HSE_CONFIG(RCC_OscInitStruct->HSEState);
 80040f4:	687b      	ldr	r3, [r7, #4]
 80040f6:	685b      	ldr	r3, [r3, #4]
 80040f8:	f5b3 3f80 	cmp.w	r3, #65536	; 0x10000
 80040fc:	d106      	bne.n	800410c <HAL_RCC_OscConfig+0x74>
 80040fe:	4b76      	ldr	r3, [pc, #472]	; (80042d8 <HAL_RCC_OscConfig+0x240>)
 8004100:	681b      	ldr	r3, [r3, #0]
 8004102:	4a75      	ldr	r2, [pc, #468]	; (80042d8 <HAL_RCC_OscConfig+0x240>)
 8004104:	f443 3380 	orr.w	r3, r3, #65536	; 0x10000
 8004108:	6013      	str	r3, [r2, #0]
 800410a:	e01d      	b.n	8004148 <HAL_RCC_OscConfig+0xb0>
 800410c:	687b      	ldr	r3, [r7, #4]
 800410e:	685b      	ldr	r3, [r3, #4]
 8004110:	f5b3 2fa0 	cmp.w	r3, #327680	; 0x50000
 8004114:	d10c      	bne.n	8004130 <HAL_RCC_OscConfig+0x98>
 8004116:	4b70      	ldr	r3, [pc, #448]	; (80042d8 <HAL_RCC_OscConfig+0x240>)
 8004118:	681b      	ldr	r3, [r3, #0]
 800411a:	4a6f      	ldr	r2, [pc, #444]	; (80042d8 <HAL_RCC_OscConfig+0x240>)
 800411c:	f443 2380 	orr.w	r3, r3, #262144	; 0x40000
 8004120:	6013      	str	r3, [r2, #0]
 8004122:	4b6d      	ldr	r3, [pc, #436]	; (80042d8 <HAL_RCC_OscConfig+0x240>)
 8004124:	681b      	ldr	r3, [r3, #0]
 8004126:	4a6c      	ldr	r2, [pc, #432]	; (80042d8 <HAL_RCC_OscConfig+0x240>)
 8004128:	f443 3380 	orr.w	r3, r3, #65536	; 0x10000
 800412c:	6013      	str	r3, [r2, #0]
 800412e:	e00b      	b.n	8004148 <HAL_RCC_OscConfig+0xb0>
 8004130:	4b69      	ldr	r3, [pc, #420]	; (80042d8 <HAL_RCC_OscConfig+0x240>)
 8004132:	681b      	ldr	r3, [r3, #0]
 8004134:	4a68      	ldr	r2, [pc, #416]	; (80042d8 <HAL_RCC_OscConfig+0x240>)
 8004136:	f423 3380 	bic.w	r3, r3, #65536	; 0x10000
 800413a:	6013      	str	r3, [r2, #0]
 800413c:	4b66      	ldr	r3, [pc, #408]	; (80042d8 <HAL_RCC_OscConfig+0x240>)
 800413e:	681b      	ldr	r3, [r3, #0]
 8004140:	4a65      	ldr	r2, [pc, #404]	; (80042d8 <HAL_RCC_OscConfig+0x240>)
 8004142:	f423 2380 	bic.w	r3, r3, #262144	; 0x40000
 8004146:	6013      	str	r3, [r2, #0]

      /* Check the HSE State */
      if((RCC_OscInitStruct->HSEState) != RCC_HSE_OFF)
 8004148:	687b      	ldr	r3, [r7, #4]
 800414a:	685b      	ldr	r3, [r3, #4]
 800414c:	2b00      	cmp	r3, #0
 800414e:	d013      	beq.n	8004178 <HAL_RCC_OscConfig+0xe0>
      {
        /* Get Start Tick */
        tickstart = HAL_GetTick();
 8004150:	f7fe fa4a 	bl	80025e8 <HAL_GetTick>
 8004154:	6138      	str	r0, [r7, #16]

        /* Wait till HSE is ready */
        while(__HAL_RCC_GET_FLAG(RCC_FLAG_HSERDY) == RESET)
 8004156:	e008      	b.n	800416a <HAL_RCC_OscConfig+0xd2>
        {
          if((HAL_GetTick() - tickstart ) > HSE_TIMEOUT_VALUE)
 8004158:	f7fe fa46 	bl	80025e8 <HAL_GetTick>
 800415c:	4602      	mov	r2, r0
 800415e:	693b      	ldr	r3, [r7, #16]
 8004160:	1ad3      	subs	r3, r2, r3
 8004162:	2b64      	cmp	r3, #100	; 0x64
 8004164:	d901      	bls.n	800416a <HAL_RCC_OscConfig+0xd2>
          {
            return HAL_TIMEOUT;
 8004166:	2303      	movs	r3, #3
 8004168:	e207      	b.n	800457a <HAL_RCC_OscConfig+0x4e2>
        while(__HAL_RCC_GET_FLAG(RCC_FLAG_HSERDY) == RESET)
 800416a:	4b5b      	ldr	r3, [pc, #364]	; (80042d8 <HAL_RCC_OscConfig+0x240>)
 800416c:	681b      	ldr	r3, [r3, #0]
 800416e:	f403 3300 	and.w	r3, r3, #131072	; 0x20000
 8004172:	2b00      	cmp	r3, #0
 8004174:	d0f0      	beq.n	8004158 <HAL_RCC_OscConfig+0xc0>
 8004176:	e014      	b.n	80041a2 <HAL_RCC_OscConfig+0x10a>
        }
      }
      else
      {
        /* Get Start Tick */
        tickstart = HAL_GetTick();
 8004178:	f7fe fa36 	bl	80025e8 <HAL_GetTick>
 800417c:	6138      	str	r0, [r7, #16]

        /* Wait till HSE is bypassed or disabled */
        while(__HAL_RCC_GET_FLAG(RCC_FLAG_HSERDY) != RESET)
 800417e:	e008      	b.n	8004192 <HAL_RCC_OscConfig+0xfa>
        {
          if((HAL_GetTick() - tickstart ) > HSE_TIMEOUT_VALUE)
 8004180:	f7fe fa32 	bl	80025e8 <HAL_GetTick>
 8004184:	4602      	mov	r2, r0
 8004186:	693b      	ldr	r3, [r7, #16]
 8004188:	1ad3      	subs	r3, r2, r3
 800418a:	2b64      	cmp	r3, #100	; 0x64
 800418c:	d901      	bls.n	8004192 <HAL_RCC_OscConfig+0xfa>
          {
            return HAL_TIMEOUT;
 800418e:	2303      	movs	r3, #3
 8004190:	e1f3      	b.n	800457a <HAL_RCC_OscConfig+0x4e2>
        while(__HAL_RCC_GET_FLAG(RCC_FLAG_HSERDY) != RESET)
 8004192:	4b51      	ldr	r3, [pc, #324]	; (80042d8 <HAL_RCC_OscConfig+0x240>)
 8004194:	681b      	ldr	r3, [r3, #0]
 8004196:	f403 3300 	and.w	r3, r3, #131072	; 0x20000
 800419a:	2b00      	cmp	r3, #0
 800419c:	d1f0      	bne.n	8004180 <HAL_RCC_OscConfig+0xe8>
 800419e:	e000      	b.n	80041a2 <HAL_RCC_OscConfig+0x10a>
      if((__HAL_RCC_GET_FLAG(RCC_FLAG_HSERDY) != RESET) && (RCC_OscInitStruct->HSEState == RCC_HSE_OFF))
 80041a0:	bf00      	nop
        }
      }
    }
  }
  /*----------------------------- HSI Configuration --------------------------*/
  if(((RCC_OscInitStruct->OscillatorType) & RCC_OSCILLATORTYPE_HSI) == RCC_OSCILLATORTYPE_HSI)
 80041a2:	687b      	ldr	r3, [r7, #4]
 80041a4:	681b      	ldr	r3, [r3, #0]
 80041a6:	f003 0302 	and.w	r3, r3, #2
 80041aa:	2b00      	cmp	r3, #0
 80041ac:	d063      	beq.n	8004276 <HAL_RCC_OscConfig+0x1de>
    /* Check the parameters */
    assert_param(IS_RCC_HSI(RCC_OscInitStruct->HSIState));
    assert_param(IS_RCC_CALIBRATION_VALUE(RCC_OscInitStruct->HSICalibrationValue));

    /* Check if HSI is used as system clock or as PLL source when PLL is selected as system clock */
    if((__HAL_RCC_GET_SYSCLK_SOURCE() == RCC_CFGR_SWS_HSI) ||\
 80041ae:	4b4a      	ldr	r3, [pc, #296]	; (80042d8 <HAL_RCC_OscConfig+0x240>)
 80041b0:	689b      	ldr	r3, [r3, #8]
 80041b2:	f003 030c 	and.w	r3, r3, #12
 80041b6:	2b00      	cmp	r3, #0
 80041b8:	d00b      	beq.n	80041d2 <HAL_RCC_OscConfig+0x13a>
      ((__HAL_RCC_GET_SYSCLK_SOURCE() == RCC_CFGR_SWS_PLL) && ((RCC->PLLCFGR & RCC_PLLCFGR_PLLSRC) == RCC_PLLCFGR_PLLSRC_HSI)))
 80041ba:	4b47      	ldr	r3, [pc, #284]	; (80042d8 <HAL_RCC_OscConfig+0x240>)
 80041bc:	689b      	ldr	r3, [r3, #8]
 80041be:	f003 030c 	and.w	r3, r3, #12
    if((__HAL_RCC_GET_SYSCLK_SOURCE() == RCC_CFGR_SWS_HSI) ||\
 80041c2:	2b08      	cmp	r3, #8
 80041c4:	d11c      	bne.n	8004200 <HAL_RCC_OscConfig+0x168>
      ((__HAL_RCC_GET_SYSCLK_SOURCE() == RCC_CFGR_SWS_PLL) && ((RCC->PLLCFGR & RCC_PLLCFGR_PLLSRC) == RCC_PLLCFGR_PLLSRC_HSI)))
 80041c6:	4b44      	ldr	r3, [pc, #272]	; (80042d8 <HAL_RCC_OscConfig+0x240>)
 80041c8:	685b      	ldr	r3, [r3, #4]
 80041ca:	f403 0380 	and.w	r3, r3, #4194304	; 0x400000
 80041ce:	2b00      	cmp	r3, #0
 80041d0:	d116      	bne.n	8004200 <HAL_RCC_OscConfig+0x168>
    {
      /* When HSI is used as system clock it will not disabled */
      if((__HAL_RCC_GET_FLAG(RCC_FLAG_HSIRDY) != RESET) && (RCC_OscInitStruct->HSIState != RCC_HSI_ON))
 80041d2:	4b41      	ldr	r3, [pc, #260]	; (80042d8 <HAL_RCC_OscConfig+0x240>)
 80041d4:	681b      	ldr	r3, [r3, #0]
 80041d6:	f003 0302 	and.w	r3, r3, #2
 80041da:	2b00      	cmp	r3, #0
 80041dc:	d005      	beq.n	80041ea <HAL_RCC_OscConfig+0x152>
 80041de:	687b      	ldr	r3, [r7, #4]
 80041e0:	68db      	ldr	r3, [r3, #12]
 80041e2:	2b01      	cmp	r3, #1
 80041e4:	d001      	beq.n	80041ea <HAL_RCC_OscConfig+0x152>
      {
        return HAL_ERROR;
 80041e6:	2301      	movs	r3, #1
 80041e8:	e1c7      	b.n	800457a <HAL_RCC_OscConfig+0x4e2>
      }
      /* Otherwise, just the calibration is allowed */
      else
      {
        /* Adjusts the Internal High Speed oscillator (HSI) calibration value.*/
        __HAL_RCC_HSI_CALIBRATIONVALUE_ADJUST(RCC_OscInitStruct->HSICalibrationValue);
 80041ea:	4b3b      	ldr	r3, [pc, #236]	; (80042d8 <HAL_RCC_OscConfig+0x240>)
 80041ec:	681b      	ldr	r3, [r3, #0]
 80041ee:	f023 02f8 	bic.w	r2, r3, #248	; 0xf8
 80041f2:	687b      	ldr	r3, [r7, #4]
 80041f4:	691b      	ldr	r3, [r3, #16]
 80041f6:	00db      	lsls	r3, r3, #3
 80041f8:	4937      	ldr	r1, [pc, #220]	; (80042d8 <HAL_RCC_OscConfig+0x240>)
 80041fa:	4313      	orrs	r3, r2
 80041fc:	600b      	str	r3, [r1, #0]
      if((__HAL_RCC_GET_FLAG(RCC_FLAG_HSIRDY) != RESET) && (RCC_OscInitStruct->HSIState != RCC_HSI_ON))
 80041fe:	e03a      	b.n	8004276 <HAL_RCC_OscConfig+0x1de>
      }
    }
    else
    {
      /* Check the HSI State */
      if((RCC_OscInitStruct->HSIState)!= RCC_HSI_OFF)
 8004200:	687b      	ldr	r3, [r7, #4]
 8004202:	68db      	ldr	r3, [r3, #12]
 8004204:	2b00      	cmp	r3, #0
 8004206:	d020      	beq.n	800424a <HAL_RCC_OscConfig+0x1b2>
      {
        /* Enable the Internal High Speed oscillator (HSI). */
        __HAL_RCC_HSI_ENABLE();
 8004208:	4b34      	ldr	r3, [pc, #208]	; (80042dc <HAL_RCC_OscConfig+0x244>)
 800420a:	2201      	movs	r2, #1
 800420c:	601a      	str	r2, [r3, #0]

        /* Get Start Tick*/
        tickstart = HAL_GetTick();
 800420e:	f7fe f9eb 	bl	80025e8 <HAL_GetTick>
 8004212:	6138      	str	r0, [r7, #16]

        /* Wait till HSI is ready */
        while(__HAL_RCC_GET_FLAG(RCC_FLAG_HSIRDY) == RESET)
 8004214:	e008      	b.n	8004228 <HAL_RCC_OscConfig+0x190>
        {
          if((HAL_GetTick() - tickstart ) > HSI_TIMEOUT_VALUE)
 8004216:	f7fe f9e7 	bl	80025e8 <HAL_GetTick>
 800421a:	4602      	mov	r2, r0
 800421c:	693b      	ldr	r3, [r7, #16]
 800421e:	1ad3      	subs	r3, r2, r3
 8004220:	2b02      	cmp	r3, #2
 8004222:	d901      	bls.n	8004228 <HAL_RCC_OscConfig+0x190>
          {
            return HAL_TIMEOUT;
 8004224:	2303      	movs	r3, #3
 8004226:	e1a8      	b.n	800457a <HAL_RCC_OscConfig+0x4e2>
        while(__HAL_RCC_GET_FLAG(RCC_FLAG_HSIRDY) == RESET)
 8004228:	4b2b      	ldr	r3, [pc, #172]	; (80042d8 <HAL_RCC_OscConfig+0x240>)
 800422a:	681b      	ldr	r3, [r3, #0]
 800422c:	f003 0302 	and.w	r3, r3, #2
 8004230:	2b00      	cmp	r3, #0
 8004232:	d0f0      	beq.n	8004216 <HAL_RCC_OscConfig+0x17e>
          }
        }

        /* Adjusts the Internal High Speed oscillator (HSI) calibration value. */
        __HAL_RCC_HSI_CALIBRATIONVALUE_ADJUST(RCC_OscInitStruct->HSICalibrationValue);
 8004234:	4b28      	ldr	r3, [pc, #160]	; (80042d8 <HAL_RCC_OscConfig+0x240>)
 8004236:	681b      	ldr	r3, [r3, #0]
 8004238:	f023 02f8 	bic.w	r2, r3, #248	; 0xf8
 800423c:	687b      	ldr	r3, [r7, #4]
 800423e:	691b      	ldr	r3, [r3, #16]
 8004240:	00db      	lsls	r3, r3, #3
 8004242:	4925      	ldr	r1, [pc, #148]	; (80042d8 <HAL_RCC_OscConfig+0x240>)
 8004244:	4313      	orrs	r3, r2
 8004246:	600b      	str	r3, [r1, #0]
 8004248:	e015      	b.n	8004276 <HAL_RCC_OscConfig+0x1de>
      }
      else
      {
        /* Disable the Internal High Speed oscillator (HSI). */
        __HAL_RCC_HSI_DISABLE();
 800424a:	4b24      	ldr	r3, [pc, #144]	; (80042dc <HAL_RCC_OscConfig+0x244>)
 800424c:	2200      	movs	r2, #0
 800424e:	601a      	str	r2, [r3, #0]

        /* Get Start Tick*/
        tickstart = HAL_GetTick();
 8004250:	f7fe f9ca 	bl	80025e8 <HAL_GetTick>
 8004254:	6138      	str	r0, [r7, #16]

        /* Wait till HSI is ready */
        while(__HAL_RCC_GET_FLAG(RCC_FLAG_HSIRDY) != RESET)
 8004256:	e008      	b.n	800426a <HAL_RCC_OscConfig+0x1d2>
        {
          if((HAL_GetTick() - tickstart ) > HSI_TIMEOUT_VALUE)
 8004258:	f7fe f9c6 	bl	80025e8 <HAL_GetTick>
 800425c:	4602      	mov	r2, r0
 800425e:	693b      	ldr	r3, [r7, #16]
 8004260:	1ad3      	subs	r3, r2, r3
 8004262:	2b02      	cmp	r3, #2
 8004264:	d901      	bls.n	800426a <HAL_RCC_OscConfig+0x1d2>
          {
            return HAL_TIMEOUT;
 8004266:	2303      	movs	r3, #3
 8004268:	e187      	b.n	800457a <HAL_RCC_OscConfig+0x4e2>
        while(__HAL_RCC_GET_FLAG(RCC_FLAG_HSIRDY) != RESET)
 800426a:	4b1b      	ldr	r3, [pc, #108]	; (80042d8 <HAL_RCC_OscConfig+0x240>)
 800426c:	681b      	ldr	r3, [r3, #0]
 800426e:	f003 0302 	and.w	r3, r3, #2
 8004272:	2b00      	cmp	r3, #0
 8004274:	d1f0      	bne.n	8004258 <HAL_RCC_OscConfig+0x1c0>
        }
      }
    }
  }
  /*------------------------------ LSI Configuration -------------------------*/
  if(((RCC_OscInitStruct->OscillatorType) & RCC_OSCILLATORTYPE_LSI) == RCC_OSCILLATORTYPE_LSI)
 8004276:	687b      	ldr	r3, [r7, #4]
 8004278:	681b      	ldr	r3, [r3, #0]
 800427a:	f003 0308 	and.w	r3, r3, #8
 800427e:	2b00      	cmp	r3, #0
 8004280:	d036      	beq.n	80042f0 <HAL_RCC_OscConfig+0x258>
  {
    /* Check the parameters */
    assert_param(IS_RCC_LSI(RCC_OscInitStruct->LSIState));

    /* Check the LSI State */
    if((RCC_OscInitStruct->LSIState)!= RCC_LSI_OFF)
 8004282:	687b      	ldr	r3, [r7, #4]
 8004284:	695b      	ldr	r3, [r3, #20]
 8004286:	2b00      	cmp	r3, #0
 8004288:	d016      	beq.n	80042b8 <HAL_RCC_OscConfig+0x220>
    {
      /* Enable the Internal Low Speed oscillator (LSI). */
      __HAL_RCC_LSI_ENABLE();
 800428a:	4b15      	ldr	r3, [pc, #84]	; (80042e0 <HAL_RCC_OscConfig+0x248>)
 800428c:	2201      	movs	r2, #1
 800428e:	601a      	str	r2, [r3, #0]

      /* Get Start Tick*/
      tickstart = HAL_GetTick();
 8004290:	f7fe f9aa 	bl	80025e8 <HAL_GetTick>
 8004294:	6138      	str	r0, [r7, #16]

      /* Wait till LSI is ready */
      while(__HAL_RCC_GET_FLAG(RCC_FLAG_LSIRDY) == RESET)
 8004296:	e008      	b.n	80042aa <HAL_RCC_OscConfig+0x212>
      {
        if((HAL_GetTick() - tickstart ) > LSI_TIMEOUT_VALUE)
 8004298:	f7fe f9a6 	bl	80025e8 <HAL_GetTick>
 800429c:	4602      	mov	r2, r0
 800429e:	693b      	ldr	r3, [r7, #16]
 80042a0:	1ad3      	subs	r3, r2, r3
 80042a2:	2b02      	cmp	r3, #2
 80042a4:	d901      	bls.n	80042aa <HAL_RCC_OscConfig+0x212>
        {
          return HAL_TIMEOUT;
 80042a6:	2303      	movs	r3, #3
 80042a8:	e167      	b.n	800457a <HAL_RCC_OscConfig+0x4e2>
      while(__HAL_RCC_GET_FLAG(RCC_FLAG_LSIRDY) == RESET)
 80042aa:	4b0b      	ldr	r3, [pc, #44]	; (80042d8 <HAL_RCC_OscConfig+0x240>)
 80042ac:	6f5b      	ldr	r3, [r3, #116]	; 0x74
 80042ae:	f003 0302 	and.w	r3, r3, #2
 80042b2:	2b00      	cmp	r3, #0
 80042b4:	d0f0      	beq.n	8004298 <HAL_RCC_OscConfig+0x200>
 80042b6:	e01b      	b.n	80042f0 <HAL_RCC_OscConfig+0x258>
      }
    }
    else
    {
      /* Disable the Internal Low Speed oscillator (LSI). */
      __HAL_RCC_LSI_DISABLE();
 80042b8:	4b09      	ldr	r3, [pc, #36]	; (80042e0 <HAL_RCC_OscConfig+0x248>)
 80042ba:	2200      	movs	r2, #0
 80042bc:	601a      	str	r2, [r3, #0]

      /* Get Start Tick */
      tickstart = HAL_GetTick();
 80042be:	f7fe f993 	bl	80025e8 <HAL_GetTick>
 80042c2:	6138      	str	r0, [r7, #16]

      /* Wait till LSI is ready */
      while(__HAL_RCC_GET_FLAG(RCC_FLAG_LSIRDY) != RESET)
 80042c4:	e00e      	b.n	80042e4 <HAL_RCC_OscConfig+0x24c>
      {
        if((HAL_GetTick() - tickstart ) > LSI_TIMEOUT_VALUE)
 80042c6:	f7fe f98f 	bl	80025e8 <HAL_GetTick>
 80042ca:	4602      	mov	r2, r0
 80042cc:	693b      	ldr	r3, [r7, #16]
 80042ce:	1ad3      	subs	r3, r2, r3
 80042d0:	2b02      	cmp	r3, #2
 80042d2:	d907      	bls.n	80042e4 <HAL_RCC_OscConfig+0x24c>
        {
          return HAL_TIMEOUT;
 80042d4:	2303      	movs	r3, #3
 80042d6:	e150      	b.n	800457a <HAL_RCC_OscConfig+0x4e2>
 80042d8:	40023800 	.word	0x40023800
 80042dc:	42470000 	.word	0x42470000
 80042e0:	42470e80 	.word	0x42470e80
      while(__HAL_RCC_GET_FLAG(RCC_FLAG_LSIRDY) != RESET)
 80042e4:	4b88      	ldr	r3, [pc, #544]	; (8004508 <HAL_RCC_OscConfig+0x470>)
 80042e6:	6f5b      	ldr	r3, [r3, #116]	; 0x74
 80042e8:	f003 0302 	and.w	r3, r3, #2
 80042ec:	2b00      	cmp	r3, #0
 80042ee:	d1ea      	bne.n	80042c6 <HAL_RCC_OscConfig+0x22e>
        }
      }
    }
  }
  /*------------------------------ LSE Configuration -------------------------*/
  if(((RCC_OscInitStruct->OscillatorType) & RCC_OSCILLATORTYPE_LSE) == RCC_OSCILLATORTYPE_LSE)
 80042f0:	687b      	ldr	r3, [r7, #4]
 80042f2:	681b      	ldr	r3, [r3, #0]
 80042f4:	f003 0304 	and.w	r3, r3, #4
 80042f8:	2b00      	cmp	r3, #0
 80042fa:	f000 8097 	beq.w	800442c <HAL_RCC_OscConfig+0x394>
  {
    FlagStatus       pwrclkchanged = RESET;
 80042fe:	2300      	movs	r3, #0
 8004300:	75fb      	strb	r3, [r7, #23]
    /* Check the parameters */
    assert_param(IS_RCC_LSE(RCC_OscInitStruct->LSEState));

    /* Update LSE configuration in Backup Domain control register    */
    /* Requires to enable write access to Backup Domain of necessary */
    if(__HAL_RCC_PWR_IS_CLK_DISABLED())
 8004302:	4b81      	ldr	r3, [pc, #516]	; (8004508 <HAL_RCC_OscConfig+0x470>)
 8004304:	6c1b      	ldr	r3, [r3, #64]	; 0x40
 8004306:	f003 5380 	and.w	r3, r3, #268435456	; 0x10000000
 800430a:	2b00      	cmp	r3, #0
 800430c:	d10f      	bne.n	800432e <HAL_RCC_OscConfig+0x296>
    {
      __HAL_RCC_PWR_CLK_ENABLE();
 800430e:	2300      	movs	r3, #0
 8004310:	60bb      	str	r3, [r7, #8]
 8004312:	4b7d      	ldr	r3, [pc, #500]	; (8004508 <HAL_RCC_OscConfig+0x470>)
 8004314:	6c1b      	ldr	r3, [r3, #64]	; 0x40
 8004316:	4a7c      	ldr	r2, [pc, #496]	; (8004508 <HAL_RCC_OscConfig+0x470>)
 8004318:	f043 5380 	orr.w	r3, r3, #268435456	; 0x10000000
 800431c:	6413      	str	r3, [r2, #64]	; 0x40
 800431e:	4b7a      	ldr	r3, [pc, #488]	; (8004508 <HAL_RCC_OscConfig+0x470>)
 8004320:	6c1b      	ldr	r3, [r3, #64]	; 0x40
 8004322:	f003 5380 	and.w	r3, r3, #268435456	; 0x10000000
 8004326:	60bb      	str	r3, [r7, #8]
 8004328:	68bb      	ldr	r3, [r7, #8]
      pwrclkchanged = SET;
 800432a:	2301      	movs	r3, #1
 800432c:	75fb      	strb	r3, [r7, #23]
    }

    if(HAL_IS_BIT_CLR(PWR->CR, PWR_CR_DBP))
 800432e:	4b77      	ldr	r3, [pc, #476]	; (800450c <HAL_RCC_OscConfig+0x474>)
 8004330:	681b      	ldr	r3, [r3, #0]
 8004332:	f403 7380 	and.w	r3, r3, #256	; 0x100
 8004336:	2b00      	cmp	r3, #0
 8004338:	d118      	bne.n	800436c <HAL_RCC_OscConfig+0x2d4>
    {
      /* Enable write access to Backup domain */
      SET_BIT(PWR->CR, PWR_CR_DBP);
 800433a:	4b74      	ldr	r3, [pc, #464]	; (800450c <HAL_RCC_OscConfig+0x474>)
 800433c:	681b      	ldr	r3, [r3, #0]
 800433e:	4a73      	ldr	r2, [pc, #460]	; (800450c <HAL_RCC_OscConfig+0x474>)
 8004340:	f443 7380 	orr.w	r3, r3, #256	; 0x100
 8004344:	6013      	str	r3, [r2, #0]

      /* Wait for Backup domain Write protection disable */
      tickstart = HAL_GetTick();
 8004346:	f7fe f94f 	bl	80025e8 <HAL_GetTick>
 800434a:	6138      	str	r0, [r7, #16]

      while(HAL_IS_BIT_CLR(PWR->CR, PWR_CR_DBP))
 800434c:	e008      	b.n	8004360 <HAL_RCC_OscConfig+0x2c8>
      {
        if((HAL_GetTick() - tickstart) > RCC_DBP_TIMEOUT_VALUE)
 800434e:	f7fe f94b 	bl	80025e8 <HAL_GetTick>
 8004352:	4602      	mov	r2, r0
 8004354:	693b      	ldr	r3, [r7, #16]
 8004356:	1ad3      	subs	r3, r2, r3
 8004358:	2b02      	cmp	r3, #2
 800435a:	d901      	bls.n	8004360 <HAL_RCC_OscConfig+0x2c8>
        {
          return HAL_TIMEOUT;
 800435c:	2303      	movs	r3, #3
 800435e:	e10c      	b.n	800457a <HAL_RCC_OscConfig+0x4e2>
      while(HAL_IS_BIT_CLR(PWR->CR, PWR_CR_DBP))
 8004360:	4b6a      	ldr	r3, [pc, #424]	; (800450c <HAL_RCC_OscConfig+0x474>)
 8004362:	681b      	ldr	r3, [r3, #0]
 8004364:	f403 7380 	and.w	r3, r3, #256	; 0x100
 8004368:	2b00      	cmp	r3, #0
 800436a:	d0f0      	beq.n	800434e <HAL_RCC_OscConfig+0x2b6>
        }
      }
    }

    /* Set the new LSE configuration -----------------------------------------*/
    __HAL_RCC_LSE_CONFIG(RCC_OscInitStruct->LSEState);
 800436c:	687b      	ldr	r3, [r7, #4]
 800436e:	689b      	ldr	r3, [r3, #8]
 8004370:	2b01      	cmp	r3, #1
 8004372:	d106      	bne.n	8004382 <HAL_RCC_OscConfig+0x2ea>
 8004374:	4b64      	ldr	r3, [pc, #400]	; (8004508 <HAL_RCC_OscConfig+0x470>)
 8004376:	6f1b      	ldr	r3, [r3, #112]	; 0x70
 8004378:	4a63      	ldr	r2, [pc, #396]	; (8004508 <HAL_RCC_OscConfig+0x470>)
 800437a:	f043 0301 	orr.w	r3, r3, #1
 800437e:	6713      	str	r3, [r2, #112]	; 0x70
 8004380:	e01c      	b.n	80043bc <HAL_RCC_OscConfig+0x324>
 8004382:	687b      	ldr	r3, [r7, #4]
 8004384:	689b      	ldr	r3, [r3, #8]
 8004386:	2b05      	cmp	r3, #5
 8004388:	d10c      	bne.n	80043a4 <HAL_RCC_OscConfig+0x30c>
 800438a:	4b5f      	ldr	r3, [pc, #380]	; (8004508 <HAL_RCC_OscConfig+0x470>)
 800438c:	6f1b      	ldr	r3, [r3, #112]	; 0x70
 800438e:	4a5e      	ldr	r2, [pc, #376]	; (8004508 <HAL_RCC_OscConfig+0x470>)
 8004390:	f043 0304 	orr.w	r3, r3, #4
 8004394:	6713      	str	r3, [r2, #112]	; 0x70
 8004396:	4b5c      	ldr	r3, [pc, #368]	; (8004508 <HAL_RCC_OscConfig+0x470>)
 8004398:	6f1b      	ldr	r3, [r3, #112]	; 0x70
 800439a:	4a5b      	ldr	r2, [pc, #364]	; (8004508 <HAL_RCC_OscConfig+0x470>)
 800439c:	f043 0301 	orr.w	r3, r3, #1
 80043a0:	6713      	str	r3, [r2, #112]	; 0x70
 80043a2:	e00b      	b.n	80043bc <HAL_RCC_OscConfig+0x324>
 80043a4:	4b58      	ldr	r3, [pc, #352]	; (8004508 <HAL_RCC_OscConfig+0x470>)
 80043a6:	6f1b      	ldr	r3, [r3, #112]	; 0x70
 80043a8:	4a57      	ldr	r2, [pc, #348]	; (8004508 <HAL_RCC_OscConfig+0x470>)
 80043aa:	f023 0301 	bic.w	r3, r3, #1
 80043ae:	6713      	str	r3, [r2, #112]	; 0x70
 80043b0:	4b55      	ldr	r3, [pc, #340]	; (8004508 <HAL_RCC_OscConfig+0x470>)
 80043b2:	6f1b      	ldr	r3, [r3, #112]	; 0x70
 80043b4:	4a54      	ldr	r2, [pc, #336]	; (8004508 <HAL_RCC_OscConfig+0x470>)
 80043b6:	f023 0304 	bic.w	r3, r3, #4
 80043ba:	6713      	str	r3, [r2, #112]	; 0x70
    /* Check the LSE State */
    if((RCC_OscInitStruct->LSEState) != RCC_LSE_OFF)
 80043bc:	687b      	ldr	r3, [r7, #4]
 80043be:	689b      	ldr	r3, [r3, #8]
 80043c0:	2b00      	cmp	r3, #0
 80043c2:	d015      	beq.n	80043f0 <HAL_RCC_OscConfig+0x358>
    {
      /* Get Start Tick*/
      tickstart = HAL_GetTick();
 80043c4:	f7fe f910 	bl	80025e8 <HAL_GetTick>
 80043c8:	6138      	str	r0, [r7, #16]

      /* Wait till LSE is ready */
      while(__HAL_RCC_GET_FLAG(RCC_FLAG_LSERDY) == RESET)
 80043ca:	e00a      	b.n	80043e2 <HAL_RCC_OscConfig+0x34a>
      {
        if((HAL_GetTick() - tickstart ) > RCC_LSE_TIMEOUT_VALUE)
 80043cc:	f7fe f90c 	bl	80025e8 <HAL_GetTick>
 80043d0:	4602      	mov	r2, r0
 80043d2:	693b      	ldr	r3, [r7, #16]
 80043d4:	1ad3      	subs	r3, r2, r3
 80043d6:	f241 3288 	movw	r2, #5000	; 0x1388
 80043da:	4293      	cmp	r3, r2
 80043dc:	d901      	bls.n	80043e2 <HAL_RCC_OscConfig+0x34a>
        {
          return HAL_TIMEOUT;
 80043de:	2303      	movs	r3, #3
 80043e0:	e0cb      	b.n	800457a <HAL_RCC_OscConfig+0x4e2>
      while(__HAL_RCC_GET_FLAG(RCC_FLAG_LSERDY) == RESET)
 80043e2:	4b49      	ldr	r3, [pc, #292]	; (8004508 <HAL_RCC_OscConfig+0x470>)
 80043e4:	6f1b      	ldr	r3, [r3, #112]	; 0x70
 80043e6:	f003 0302 	and.w	r3, r3, #2
 80043ea:	2b00      	cmp	r3, #0
 80043ec:	d0ee      	beq.n	80043cc <HAL_RCC_OscConfig+0x334>
 80043ee:	e014      	b.n	800441a <HAL_RCC_OscConfig+0x382>
      }
    }
    else
    {
      /* Get Start Tick */
      tickstart = HAL_GetTick();
 80043f0:	f7fe f8fa 	bl	80025e8 <HAL_GetTick>
 80043f4:	6138      	str	r0, [r7, #16]

      /* Wait till LSE is ready */
      while(__HAL_RCC_GET_FLAG(RCC_FLAG_LSERDY) != RESET)
 80043f6:	e00a      	b.n	800440e <HAL_RCC_OscConfig+0x376>
      {
        if((HAL_GetTick() - tickstart ) > RCC_LSE_TIMEOUT_VALUE)
 80043f8:	f7fe f8f6 	bl	80025e8 <HAL_GetTick>
 80043fc:	4602      	mov	r2, r0
 80043fe:	693b      	ldr	r3, [r7, #16]
 8004400:	1ad3      	subs	r3, r2, r3
 8004402:	f241 3288 	movw	r2, #5000	; 0x1388
 8004406:	4293      	cmp	r3, r2
 8004408:	d901      	bls.n	800440e <HAL_RCC_OscConfig+0x376>
        {
          return HAL_TIMEOUT;
 800440a:	2303      	movs	r3, #3
 800440c:	e0b5      	b.n	800457a <HAL_RCC_OscConfig+0x4e2>
      while(__HAL_RCC_GET_FLAG(RCC_FLAG_LSERDY) != RESET)
 800440e:	4b3e      	ldr	r3, [pc, #248]	; (8004508 <HAL_RCC_OscConfig+0x470>)
 8004410:	6f1b      	ldr	r3, [r3, #112]	; 0x70
 8004412:	f003 0302 	and.w	r3, r3, #2
 8004416:	2b00      	cmp	r3, #0
 8004418:	d1ee      	bne.n	80043f8 <HAL_RCC_OscConfig+0x360>
        }
      }
    }

    /* Restore clock configuration if changed */
    if(pwrclkchanged == SET)
 800441a:	7dfb      	ldrb	r3, [r7, #23]
 800441c:	2b01      	cmp	r3, #1
 800441e:	d105      	bne.n	800442c <HAL_RCC_OscConfig+0x394>
    {
      __HAL_RCC_PWR_CLK_DISABLE();
 8004420:	4b39      	ldr	r3, [pc, #228]	; (8004508 <HAL_RCC_OscConfig+0x470>)
 8004422:	6c1b      	ldr	r3, [r3, #64]	; 0x40
 8004424:	4a38      	ldr	r2, [pc, #224]	; (8004508 <HAL_RCC_OscConfig+0x470>)
 8004426:	f023 5380 	bic.w	r3, r3, #268435456	; 0x10000000
 800442a:	6413      	str	r3, [r2, #64]	; 0x40
    }
  }
  /*-------------------------------- PLL Configuration -----------------------*/
  /* Check the parameters */
  assert_param(IS_RCC_PLL(RCC_OscInitStruct->PLL.PLLState));
  if ((RCC_OscInitStruct->PLL.PLLState) != RCC_PLL_NONE)
 800442c:	687b      	ldr	r3, [r7, #4]
 800442e:	699b      	ldr	r3, [r3, #24]
 8004430:	2b00      	cmp	r3, #0
 8004432:	f000 80a1 	beq.w	8004578 <HAL_RCC_OscConfig+0x4e0>
  {
    /* Check if the PLL is used as system clock or not */
    if(__HAL_RCC_GET_SYSCLK_SOURCE() != RCC_CFGR_SWS_PLL)
 8004436:	4b34      	ldr	r3, [pc, #208]	; (8004508 <HAL_RCC_OscConfig+0x470>)
 8004438:	689b      	ldr	r3, [r3, #8]
 800443a:	f003 030c 	and.w	r3, r3, #12
 800443e:	2b08      	cmp	r3, #8
 8004440:	d05c      	beq.n	80044fc <HAL_RCC_OscConfig+0x464>
    {
      if((RCC_OscInitStruct->PLL.PLLState) == RCC_PLL_ON)
 8004442:	687b      	ldr	r3, [r7, #4]
 8004444:	699b      	ldr	r3, [r3, #24]
 8004446:	2b02      	cmp	r3, #2
 8004448:	d141      	bne.n	80044ce <HAL_RCC_OscConfig+0x436>
        assert_param(IS_RCC_PLLN_VALUE(RCC_OscInitStruct->PLL.PLLN));
        assert_param(IS_RCC_PLLP_VALUE(RCC_OscInitStruct->PLL.PLLP));
        assert_param(IS_RCC_PLLQ_VALUE(RCC_OscInitStruct->PLL.PLLQ));

        /* Disable the main PLL. */
        __HAL_RCC_PLL_DISABLE();
 800444a:	4b31      	ldr	r3, [pc, #196]	; (8004510 <HAL_RCC_OscConfig+0x478>)
 800444c:	2200      	movs	r2, #0
 800444e:	601a      	str	r2, [r3, #0]

        /* Get Start Tick */
        tickstart = HAL_GetTick();
 8004450:	f7fe f8ca 	bl	80025e8 <HAL_GetTick>
 8004454:	6138      	str	r0, [r7, #16]

        /* Wait till PLL is disabled */
        while(__HAL_RCC_GET_FLAG(RCC_FLAG_PLLRDY) != RESET)
 8004456:	e008      	b.n	800446a <HAL_RCC_OscConfig+0x3d2>
        {
          if((HAL_GetTick() - tickstart ) > PLL_TIMEOUT_VALUE)
 8004458:	f7fe f8c6 	bl	80025e8 <HAL_GetTick>
 800445c:	4602      	mov	r2, r0
 800445e:	693b      	ldr	r3, [r7, #16]
 8004460:	1ad3      	subs	r3, r2, r3
 8004462:	2b02      	cmp	r3, #2
 8004464:	d901      	bls.n	800446a <HAL_RCC_OscConfig+0x3d2>
          {
            return HAL_TIMEOUT;
 8004466:	2303      	movs	r3, #3
 8004468:	e087      	b.n	800457a <HAL_RCC_OscConfig+0x4e2>
        while(__HAL_RCC_GET_FLAG(RCC_FLAG_PLLRDY) != RESET)
 800446a:	4b27      	ldr	r3, [pc, #156]	; (8004508 <HAL_RCC_OscConfig+0x470>)
 800446c:	681b      	ldr	r3, [r3, #0]
 800446e:	f003 7300 	and.w	r3, r3, #33554432	; 0x2000000
 8004472:	2b00      	cmp	r3, #0
 8004474:	d1f0      	bne.n	8004458 <HAL_RCC_OscConfig+0x3c0>
          }
        }

        /* Configure the main PLL clock source, multiplication and division factors. */
        WRITE_REG(RCC->PLLCFGR, (RCC_OscInitStruct->PLL.PLLSource                                            | \
 8004476:	687b      	ldr	r3, [r7, #4]
 8004478:	69da      	ldr	r2, [r3, #28]
 800447a:	687b      	ldr	r3, [r7, #4]
 800447c:	6a1b      	ldr	r3, [r3, #32]
 800447e:	431a      	orrs	r2, r3
 8004480:	687b      	ldr	r3, [r7, #4]
 8004482:	6a5b      	ldr	r3, [r3, #36]	; 0x24
 8004484:	019b      	lsls	r3, r3, #6
 8004486:	431a      	orrs	r2, r3
 8004488:	687b      	ldr	r3, [r7, #4]
 800448a:	6a9b      	ldr	r3, [r3, #40]	; 0x28
 800448c:	085b      	lsrs	r3, r3, #1
 800448e:	3b01      	subs	r3, #1
 8004490:	041b      	lsls	r3, r3, #16
 8004492:	431a      	orrs	r2, r3
 8004494:	687b      	ldr	r3, [r7, #4]
 8004496:	6adb      	ldr	r3, [r3, #44]	; 0x2c
 8004498:	061b      	lsls	r3, r3, #24
 800449a:	491b      	ldr	r1, [pc, #108]	; (8004508 <HAL_RCC_OscConfig+0x470>)
 800449c:	4313      	orrs	r3, r2
 800449e:	604b      	str	r3, [r1, #4]
                                 RCC_OscInitStruct->PLL.PLLM                                                 | \
                                 (RCC_OscInitStruct->PLL.PLLN << RCC_PLLCFGR_PLLN_Pos)             | \
                                 (((RCC_OscInitStruct->PLL.PLLP >> 1U) - 1U) << RCC_PLLCFGR_PLLP_Pos) | \
                                 (RCC_OscInitStruct->PLL.PLLQ << RCC_PLLCFGR_PLLQ_Pos)));
        /* Enable the main PLL. */
        __HAL_RCC_PLL_ENABLE();
 80044a0:	4b1b      	ldr	r3, [pc, #108]	; (8004510 <HAL_RCC_OscConfig+0x478>)
 80044a2:	2201      	movs	r2, #1
 80044a4:	601a      	str	r2, [r3, #0]

        /* Get Start Tick */
        tickstart = HAL_GetTick();
 80044a6:	f7fe f89f 	bl	80025e8 <HAL_GetTick>
 80044aa:	6138      	str	r0, [r7, #16]

        /* Wait till PLL is ready */
        while(__HAL_RCC_GET_FLAG(RCC_FLAG_PLLRDY) == RESET)
 80044ac:	e008      	b.n	80044c0 <HAL_RCC_OscConfig+0x428>
        {
          if((HAL_GetTick() - tickstart ) > PLL_TIMEOUT_VALUE)
 80044ae:	f7fe f89b 	bl	80025e8 <HAL_GetTick>
 80044b2:	4602      	mov	r2, r0
 80044b4:	693b      	ldr	r3, [r7, #16]
 80044b6:	1ad3      	subs	r3, r2, r3
 80044b8:	2b02      	cmp	r3, #2
 80044ba:	d901      	bls.n	80044c0 <HAL_RCC_OscConfig+0x428>
          {
            return HAL_TIMEOUT;
 80044bc:	2303      	movs	r3, #3
 80044be:	e05c      	b.n	800457a <HAL_RCC_OscConfig+0x4e2>
        while(__HAL_RCC_GET_FLAG(RCC_FLAG_PLLRDY) == RESET)
 80044c0:	4b11      	ldr	r3, [pc, #68]	; (8004508 <HAL_RCC_OscConfig+0x470>)
 80044c2:	681b      	ldr	r3, [r3, #0]
 80044c4:	f003 7300 	and.w	r3, r3, #33554432	; 0x2000000
 80044c8:	2b00      	cmp	r3, #0
 80044ca:	d0f0      	beq.n	80044ae <HAL_RCC_OscConfig+0x416>
 80044cc:	e054      	b.n	8004578 <HAL_RCC_OscConfig+0x4e0>
        }
      }
      else
      {
        /* Disable the main PLL. */
        __HAL_RCC_PLL_DISABLE();
 80044ce:	4b10      	ldr	r3, [pc, #64]	; (8004510 <HAL_RCC_OscConfig+0x478>)
 80044d0:	2200      	movs	r2, #0
 80044d2:	601a      	str	r2, [r3, #0]

        /* Get Start Tick */
        tickstart = HAL_GetTick();
 80044d4:	f7fe f888 	bl	80025e8 <HAL_GetTick>
 80044d8:	6138      	str	r0, [r7, #16]

        /* Wait till PLL is disabled */
        while(__HAL_RCC_GET_FLAG(RCC_FLAG_PLLRDY) != RESET)
 80044da:	e008      	b.n	80044ee <HAL_RCC_OscConfig+0x456>
        {
          if((HAL_GetTick() - tickstart ) > PLL_TIMEOUT_VALUE)
 80044dc:	f7fe f884 	bl	80025e8 <HAL_GetTick>
 80044e0:	4602      	mov	r2, r0
 80044e2:	693b      	ldr	r3, [r7, #16]
 80044e4:	1ad3      	subs	r3, r2, r3
 80044e6:	2b02      	cmp	r3, #2
 80044e8:	d901      	bls.n	80044ee <HAL_RCC_OscConfig+0x456>
          {
            return HAL_TIMEOUT;
 80044ea:	2303      	movs	r3, #3
 80044ec:	e045      	b.n	800457a <HAL_RCC_OscConfig+0x4e2>
        while(__HAL_RCC_GET_FLAG(RCC_FLAG_PLLRDY) != RESET)
 80044ee:	4b06      	ldr	r3, [pc, #24]	; (8004508 <HAL_RCC_OscConfig+0x470>)
 80044f0:	681b      	ldr	r3, [r3, #0]
 80044f2:	f003 7300 	and.w	r3, r3, #33554432	; 0x2000000
 80044f6:	2b00      	cmp	r3, #0
 80044f8:	d1f0      	bne.n	80044dc <HAL_RCC_OscConfig+0x444>
 80044fa:	e03d      	b.n	8004578 <HAL_RCC_OscConfig+0x4e0>
      }
    }
    else
    {
      /* Check if there is a request to disable the PLL used as System clock source */
      if((RCC_OscInitStruct->PLL.PLLState) == RCC_PLL_OFF)
 80044fc:	687b      	ldr	r3, [r7, #4]
 80044fe:	699b      	ldr	r3, [r3, #24]
 8004500:	2b01      	cmp	r3, #1
 8004502:	d107      	bne.n	8004514 <HAL_RCC_OscConfig+0x47c>
      {
        return HAL_ERROR;
 8004504:	2301      	movs	r3, #1
 8004506:	e038      	b.n	800457a <HAL_RCC_OscConfig+0x4e2>
 8004508:	40023800 	.word	0x40023800
 800450c:	40007000 	.word	0x40007000
 8004510:	42470060 	.word	0x42470060
      }
      else
      {
        /* Do not return HAL_ERROR if request repeats the current configuration */
        pll_config = RCC->PLLCFGR;
 8004514:	4b1b      	ldr	r3, [pc, #108]	; (8004584 <HAL_RCC_OscConfig+0x4ec>)
 8004516:	685b      	ldr	r3, [r3, #4]
 8004518:	60fb      	str	r3, [r7, #12]
            (READ_BIT(pll_config, RCC_PLLCFGR_PLLN) != (RCC_OscInitStruct->PLL.PLLN) << RCC_PLLCFGR_PLLN_Pos) ||
            (READ_BIT(pll_config, RCC_PLLCFGR_PLLP) != (((RCC_OscInitStruct->PLL.PLLP >> 1U) - 1U)) << RCC_PLLCFGR_PLLP_Pos) ||
            (READ_BIT(pll_config, RCC_PLLCFGR_PLLQ) != (RCC_OscInitStruct->PLL.PLLQ << RCC_PLLCFGR_PLLQ_Pos)) ||
            (READ_BIT(pll_config, RCC_PLLCFGR_PLLR) != (RCC_OscInitStruct->PLL.PLLR << RCC_PLLCFGR_PLLR_Pos)))
#else
        if (((RCC_OscInitStruct->PLL.PLLState) == RCC_PLL_OFF) ||
 800451a:	687b      	ldr	r3, [r7, #4]
 800451c:	699b      	ldr	r3, [r3, #24]
 800451e:	2b01      	cmp	r3, #1
 8004520:	d028      	beq.n	8004574 <HAL_RCC_OscConfig+0x4dc>
            (READ_BIT(pll_config, RCC_PLLCFGR_PLLSRC) != RCC_OscInitStruct->PLL.PLLSource) ||
 8004522:	68fb      	ldr	r3, [r7, #12]
 8004524:	f403 0280 	and.w	r2, r3, #4194304	; 0x400000
 8004528:	687b      	ldr	r3, [r7, #4]
 800452a:	69db      	ldr	r3, [r3, #28]
        if (((RCC_OscInitStruct->PLL.PLLState) == RCC_PLL_OFF) ||
 800452c:	429a      	cmp	r2, r3
 800452e:	d121      	bne.n	8004574 <HAL_RCC_OscConfig+0x4dc>
            (READ_BIT(pll_config, RCC_PLLCFGR_PLLM) != (RCC_OscInitStruct->PLL.PLLM) << RCC_PLLCFGR_PLLM_Pos) ||
 8004530:	68fb      	ldr	r3, [r7, #12]
 8004532:	f003 023f 	and.w	r2, r3, #63	; 0x3f
 8004536:	687b      	ldr	r3, [r7, #4]
 8004538:	6a1b      	ldr	r3, [r3, #32]
            (READ_BIT(pll_config, RCC_PLLCFGR_PLLSRC) != RCC_OscInitStruct->PLL.PLLSource) ||
 800453a:	429a      	cmp	r2, r3
 800453c:	d11a      	bne.n	8004574 <HAL_RCC_OscConfig+0x4dc>
            (READ_BIT(pll_config, RCC_PLLCFGR_PLLN) != (RCC_OscInitStruct->PLL.PLLN) << RCC_PLLCFGR_PLLN_Pos) ||
 800453e:	68fa      	ldr	r2, [r7, #12]
 8004540:	f647 73c0 	movw	r3, #32704	; 0x7fc0
 8004544:	4013      	ands	r3, r2
 8004546:	687a      	ldr	r2, [r7, #4]
 8004548:	6a52      	ldr	r2, [r2, #36]	; 0x24
 800454a:	0192      	lsls	r2, r2, #6
            (READ_BIT(pll_config, RCC_PLLCFGR_PLLM) != (RCC_OscInitStruct->PLL.PLLM) << RCC_PLLCFGR_PLLM_Pos) ||
 800454c:	4293      	cmp	r3, r2
 800454e:	d111      	bne.n	8004574 <HAL_RCC_OscConfig+0x4dc>
            (READ_BIT(pll_config, RCC_PLLCFGR_PLLP) != (((RCC_OscInitStruct->PLL.PLLP >> 1U) - 1U)) << RCC_PLLCFGR_PLLP_Pos) ||
 8004550:	68fb      	ldr	r3, [r7, #12]
 8004552:	f403 3240 	and.w	r2, r3, #196608	; 0x30000
 8004556:	687b      	ldr	r3, [r7, #4]
 8004558:	6a9b      	ldr	r3, [r3, #40]	; 0x28
 800455a:	085b      	lsrs	r3, r3, #1
 800455c:	3b01      	subs	r3, #1
 800455e:	041b      	lsls	r3, r3, #16
            (READ_BIT(pll_config, RCC_PLLCFGR_PLLN) != (RCC_OscInitStruct->PLL.PLLN) << RCC_PLLCFGR_PLLN_Pos) ||
 8004560:	429a      	cmp	r2, r3
 8004562:	d107      	bne.n	8004574 <HAL_RCC_OscConfig+0x4dc>
            (READ_BIT(pll_config, RCC_PLLCFGR_PLLQ) != (RCC_OscInitStruct->PLL.PLLQ << RCC_PLLCFGR_PLLQ_Pos)))
 8004564:	68fb      	ldr	r3, [r7, #12]
 8004566:	f003 6270 	and.w	r2, r3, #251658240	; 0xf000000
 800456a:	687b      	ldr	r3, [r7, #4]
 800456c:	6adb      	ldr	r3, [r3, #44]	; 0x2c
 800456e:	061b      	lsls	r3, r3, #24
            (READ_BIT(pll_config, RCC_PLLCFGR_PLLP) != (((RCC_OscInitStruct->PLL.PLLP >> 1U) - 1U)) << RCC_PLLCFGR_PLLP_Pos) ||
 8004570:	429a      	cmp	r2, r3
 8004572:	d001      	beq.n	8004578 <HAL_RCC_OscConfig+0x4e0>
#endif
        {
          return HAL_ERROR;
 8004574:	2301      	movs	r3, #1
 8004576:	e000      	b.n	800457a <HAL_RCC_OscConfig+0x4e2>
        }
      }
    }
  }
  return HAL_OK;
 8004578:	2300      	movs	r3, #0
}
 800457a:	4618      	mov	r0, r3
 800457c:	3718      	adds	r7, #24
 800457e:	46bd      	mov	sp, r7
 8004580:	bd80      	pop	{r7, pc}
 8004582:	bf00      	nop
 8004584:	40023800 	.word	0x40023800

08004588 <HAL_RCC_ClockConfig>:
  *         HPRE[3:0] bits to ensure that HCLK not exceed the maximum allowed frequency
  *         (for more details refer to section above "Initialization/de-initialization functions")
  * @retval None
  */
HAL_StatusTypeDef HAL_RCC_ClockConfig(RCC_ClkInitTypeDef  *RCC_ClkInitStruct, uint32_t FLatency)
{
 8004588:	b580      	push	{r7, lr}
 800458a:	b084      	sub	sp, #16
 800458c:	af00      	add	r7, sp, #0
 800458e:	6078      	str	r0, [r7, #4]
 8004590:	6039      	str	r1, [r7, #0]
  uint32_t tickstart;

  /* Check Null pointer */
  if(RCC_ClkInitStruct == NULL)
 8004592:	687b      	ldr	r3, [r7, #4]
 8004594:	2b00      	cmp	r3, #0
 8004596:	d101      	bne.n	800459c <HAL_RCC_ClockConfig+0x14>
  {
    return HAL_ERROR;
 8004598:	2301      	movs	r3, #1
 800459a:	e0cc      	b.n	8004736 <HAL_RCC_ClockConfig+0x1ae>
  /* To correctly read data from FLASH memory, the number of wait states (LATENCY)
    must be correctly programmed according to the frequency of the CPU clock
    (HCLK) and the supply voltage of the device. */

  /* Increasing the number of wait states because of higher CPU frequency */
  if(FLatency > __HAL_FLASH_GET_LATENCY())
 800459c:	4b68      	ldr	r3, [pc, #416]	; (8004740 <HAL_RCC_ClockConfig+0x1b8>)
 800459e:	681b      	ldr	r3, [r3, #0]
 80045a0:	f003 030f 	and.w	r3, r3, #15
 80045a4:	683a      	ldr	r2, [r7, #0]
 80045a6:	429a      	cmp	r2, r3
 80045a8:	d90c      	bls.n	80045c4 <HAL_RCC_ClockConfig+0x3c>
  {
    /* Program the new number of wait states to the LATENCY bits in the FLASH_ACR register */
    __HAL_FLASH_SET_LATENCY(FLatency);
 80045aa:	4b65      	ldr	r3, [pc, #404]	; (8004740 <HAL_RCC_ClockConfig+0x1b8>)
 80045ac:	683a      	ldr	r2, [r7, #0]
 80045ae:	b2d2      	uxtb	r2, r2
 80045b0:	701a      	strb	r2, [r3, #0]

    /* Check that the new number of wait states is taken into account to access the Flash
    memory by reading the FLASH_ACR register */
    if(__HAL_FLASH_GET_LATENCY() != FLatency)
 80045b2:	4b63      	ldr	r3, [pc, #396]	; (8004740 <HAL_RCC_ClockConfig+0x1b8>)
 80045b4:	681b      	ldr	r3, [r3, #0]
 80045b6:	f003 030f 	and.w	r3, r3, #15
 80045ba:	683a      	ldr	r2, [r7, #0]
 80045bc:	429a      	cmp	r2, r3
 80045be:	d001      	beq.n	80045c4 <HAL_RCC_ClockConfig+0x3c>
    {
      return HAL_ERROR;
 80045c0:	2301      	movs	r3, #1
 80045c2:	e0b8      	b.n	8004736 <HAL_RCC_ClockConfig+0x1ae>
    }
  }

  /*-------------------------- HCLK Configuration --------------------------*/
  if(((RCC_ClkInitStruct->ClockType) & RCC_CLOCKTYPE_HCLK) == RCC_CLOCKTYPE_HCLK)
 80045c4:	687b      	ldr	r3, [r7, #4]
 80045c6:	681b      	ldr	r3, [r3, #0]
 80045c8:	f003 0302 	and.w	r3, r3, #2
 80045cc:	2b00      	cmp	r3, #0
 80045ce:	d020      	beq.n	8004612 <HAL_RCC_ClockConfig+0x8a>
  {
    /* Set the highest APBx dividers in order to ensure that we do not go through
       a non-spec phase whatever we decrease or increase HCLK. */
    if(((RCC_ClkInitStruct->ClockType) & RCC_CLOCKTYPE_PCLK1) == RCC_CLOCKTYPE_PCLK1)
 80045d0:	687b      	ldr	r3, [r7, #4]
 80045d2:	681b      	ldr	r3, [r3, #0]
 80045d4:	f003 0304 	and.w	r3, r3, #4
 80045d8:	2b00      	cmp	r3, #0
 80045da:	d005      	beq.n	80045e8 <HAL_RCC_ClockConfig+0x60>
    {
      MODIFY_REG(RCC->CFGR, RCC_CFGR_PPRE1, RCC_HCLK_DIV16);
 80045dc:	4b59      	ldr	r3, [pc, #356]	; (8004744 <HAL_RCC_ClockConfig+0x1bc>)
 80045de:	689b      	ldr	r3, [r3, #8]
 80045e0:	4a58      	ldr	r2, [pc, #352]	; (8004744 <HAL_RCC_ClockConfig+0x1bc>)
 80045e2:	f443 53e0 	orr.w	r3, r3, #7168	; 0x1c00
 80045e6:	6093      	str	r3, [r2, #8]
    }

    if(((RCC_ClkInitStruct->ClockType) & RCC_CLOCKTYPE_PCLK2) == RCC_CLOCKTYPE_PCLK2)
 80045e8:	687b      	ldr	r3, [r7, #4]
 80045ea:	681b      	ldr	r3, [r3, #0]
 80045ec:	f003 0308 	and.w	r3, r3, #8
 80045f0:	2b00      	cmp	r3, #0
 80045f2:	d005      	beq.n	8004600 <HAL_RCC_ClockConfig+0x78>
    {
      MODIFY_REG(RCC->CFGR, RCC_CFGR_PPRE2, (RCC_HCLK_DIV16 << 3));
 80045f4:	4b53      	ldr	r3, [pc, #332]	; (8004744 <HAL_RCC_ClockConfig+0x1bc>)
 80045f6:	689b      	ldr	r3, [r3, #8]
 80045f8:	4a52      	ldr	r2, [pc, #328]	; (8004744 <HAL_RCC_ClockConfig+0x1bc>)
 80045fa:	f443 4360 	orr.w	r3, r3, #57344	; 0xe000
 80045fe:	6093      	str	r3, [r2, #8]
    }

    assert_param(IS_RCC_HCLK(RCC_ClkInitStruct->AHBCLKDivider));
    MODIFY_REG(RCC->CFGR, RCC_CFGR_HPRE, RCC_ClkInitStruct->AHBCLKDivider);
 8004600:	4b50      	ldr	r3, [pc, #320]	; (8004744 <HAL_RCC_ClockConfig+0x1bc>)
 8004602:	689b      	ldr	r3, [r3, #8]
 8004604:	f023 02f0 	bic.w	r2, r3, #240	; 0xf0
 8004608:	687b      	ldr	r3, [r7, #4]
 800460a:	689b      	ldr	r3, [r3, #8]
 800460c:	494d      	ldr	r1, [pc, #308]	; (8004744 <HAL_RCC_ClockConfig+0x1bc>)
 800460e:	4313      	orrs	r3, r2
 8004610:	608b      	str	r3, [r1, #8]
  }

  /*------------------------- SYSCLK Configuration ---------------------------*/
  if(((RCC_ClkInitStruct->ClockType) & RCC_CLOCKTYPE_SYSCLK) == RCC_CLOCKTYPE_SYSCLK)
 8004612:	687b      	ldr	r3, [r7, #4]
 8004614:	681b      	ldr	r3, [r3, #0]
 8004616:	f003 0301 	and.w	r3, r3, #1
 800461a:	2b00      	cmp	r3, #0
 800461c:	d044      	beq.n	80046a8 <HAL_RCC_ClockConfig+0x120>
  {
    assert_param(IS_RCC_SYSCLKSOURCE(RCC_ClkInitStruct->SYSCLKSource));

    /* HSE is selected as System Clock Source */
    if(RCC_ClkInitStruct->SYSCLKSource == RCC_SYSCLKSOURCE_HSE)
 800461e:	687b      	ldr	r3, [r7, #4]
 8004620:	685b      	ldr	r3, [r3, #4]
 8004622:	2b01      	cmp	r3, #1
 8004624:	d107      	bne.n	8004636 <HAL_RCC_ClockConfig+0xae>
    {
      /* Check the HSE ready flag */
      if(__HAL_RCC_GET_FLAG(RCC_FLAG_HSERDY) == RESET)
 8004626:	4b47      	ldr	r3, [pc, #284]	; (8004744 <HAL_RCC_ClockConfig+0x1bc>)
 8004628:	681b      	ldr	r3, [r3, #0]
 800462a:	f403 3300 	and.w	r3, r3, #131072	; 0x20000
 800462e:	2b00      	cmp	r3, #0
 8004630:	d119      	bne.n	8004666 <HAL_RCC_ClockConfig+0xde>
      {
        return HAL_ERROR;
 8004632:	2301      	movs	r3, #1
 8004634:	e07f      	b.n	8004736 <HAL_RCC_ClockConfig+0x1ae>
      }
    }
    /* PLL is selected as System Clock Source */
    else if((RCC_ClkInitStruct->SYSCLKSource == RCC_SYSCLKSOURCE_PLLCLK)   ||
 8004636:	687b      	ldr	r3, [r7, #4]
 8004638:	685b      	ldr	r3, [r3, #4]
 800463a:	2b02      	cmp	r3, #2
 800463c:	d003      	beq.n	8004646 <HAL_RCC_ClockConfig+0xbe>
            (RCC_ClkInitStruct->SYSCLKSource == RCC_SYSCLKSOURCE_PLLRCLK))
 800463e:	687b      	ldr	r3, [r7, #4]
 8004640:	685b      	ldr	r3, [r3, #4]
    else if((RCC_ClkInitStruct->SYSCLKSource == RCC_SYSCLKSOURCE_PLLCLK)   ||
 8004642:	2b03      	cmp	r3, #3
 8004644:	d107      	bne.n	8004656 <HAL_RCC_ClockConfig+0xce>
    {
      /* Check the PLL ready flag */
      if(__HAL_RCC_GET_FLAG(RCC_FLAG_PLLRDY) == RESET)
 8004646:	4b3f      	ldr	r3, [pc, #252]	; (8004744 <HAL_RCC_ClockConfig+0x1bc>)
 8004648:	681b      	ldr	r3, [r3, #0]
 800464a:	f003 7300 	and.w	r3, r3, #33554432	; 0x2000000
 800464e:	2b00      	cmp	r3, #0
 8004650:	d109      	bne.n	8004666 <HAL_RCC_ClockConfig+0xde>
      {
        return HAL_ERROR;
 8004652:	2301      	movs	r3, #1
 8004654:	e06f      	b.n	8004736 <HAL_RCC_ClockConfig+0x1ae>
    }
    /* HSI is selected as System Clock Source */
    else
    {
      /* Check the HSI ready flag */
      if(__HAL_RCC_GET_FLAG(RCC_FLAG_HSIRDY) == RESET)
 8004656:	4b3b      	ldr	r3, [pc, #236]	; (8004744 <HAL_RCC_ClockConfig+0x1bc>)
 8004658:	681b      	ldr	r3, [r3, #0]
 800465a:	f003 0302 	and.w	r3, r3, #2
 800465e:	2b00      	cmp	r3, #0
 8004660:	d101      	bne.n	8004666 <HAL_RCC_ClockConfig+0xde>
      {
        return HAL_ERROR;
 8004662:	2301      	movs	r3, #1
 8004664:	e067      	b.n	8004736 <HAL_RCC_ClockConfig+0x1ae>
      }
    }

    __HAL_RCC_SYSCLK_CONFIG(RCC_ClkInitStruct->SYSCLKSource);
 8004666:	4b37      	ldr	r3, [pc, #220]	; (8004744 <HAL_RCC_ClockConfig+0x1bc>)
 8004668:	689b      	ldr	r3, [r3, #8]
 800466a:	f023 0203 	bic.w	r2, r3, #3
 800466e:	687b      	ldr	r3, [r7, #4]
 8004670:	685b      	ldr	r3, [r3, #4]
 8004672:	4934      	ldr	r1, [pc, #208]	; (8004744 <HAL_RCC_ClockConfig+0x1bc>)
 8004674:	4313      	orrs	r3, r2
 8004676:	608b      	str	r3, [r1, #8]

    /* Get Start Tick */
    tickstart = HAL_GetTick();
 8004678:	f7fd ffb6 	bl	80025e8 <HAL_GetTick>
 800467c:	60f8      	str	r0, [r7, #12]

    while (__HAL_RCC_GET_SYSCLK_SOURCE() != (RCC_ClkInitStruct->SYSCLKSource << RCC_CFGR_SWS_Pos))
 800467e:	e00a      	b.n	8004696 <HAL_RCC_ClockConfig+0x10e>
    {
      if ((HAL_GetTick() - tickstart) > CLOCKSWITCH_TIMEOUT_VALUE)
 8004680:	f7fd ffb2 	bl	80025e8 <HAL_GetTick>
 8004684:	4602      	mov	r2, r0
 8004686:	68fb      	ldr	r3, [r7, #12]
 8004688:	1ad3      	subs	r3, r2, r3
 800468a:	f241 3288 	movw	r2, #5000	; 0x1388
 800468e:	4293      	cmp	r3, r2
 8004690:	d901      	bls.n	8004696 <HAL_RCC_ClockConfig+0x10e>
      {
        return HAL_TIMEOUT;
 8004692:	2303      	movs	r3, #3
 8004694:	e04f      	b.n	8004736 <HAL_RCC_ClockConfig+0x1ae>
    while (__HAL_RCC_GET_SYSCLK_SOURCE() != (RCC_ClkInitStruct->SYSCLKSource << RCC_CFGR_SWS_Pos))
 8004696:	4b2b      	ldr	r3, [pc, #172]	; (8004744 <HAL_RCC_ClockConfig+0x1bc>)
 8004698:	689b      	ldr	r3, [r3, #8]
 800469a:	f003 020c 	and.w	r2, r3, #12
 800469e:	687b      	ldr	r3, [r7, #4]
 80046a0:	685b      	ldr	r3, [r3, #4]
 80046a2:	009b      	lsls	r3, r3, #2
 80046a4:	429a      	cmp	r2, r3
 80046a6:	d1eb      	bne.n	8004680 <HAL_RCC_ClockConfig+0xf8>
      }
    }
  }

  /* Decreasing the number of wait states because of lower CPU frequency */
  if(FLatency < __HAL_FLASH_GET_LATENCY())
 80046a8:	4b25      	ldr	r3, [pc, #148]	; (8004740 <HAL_RCC_ClockConfig+0x1b8>)
 80046aa:	681b      	ldr	r3, [r3, #0]
 80046ac:	f003 030f 	and.w	r3, r3, #15
 80046b0:	683a      	ldr	r2, [r7, #0]
 80046b2:	429a      	cmp	r2, r3
 80046b4:	d20c      	bcs.n	80046d0 <HAL_RCC_ClockConfig+0x148>
  {
     /* Program the new number of wait states to the LATENCY bits in the FLASH_ACR register */
    __HAL_FLASH_SET_LATENCY(FLatency);
 80046b6:	4b22      	ldr	r3, [pc, #136]	; (8004740 <HAL_RCC_ClockConfig+0x1b8>)
 80046b8:	683a      	ldr	r2, [r7, #0]
 80046ba:	b2d2      	uxtb	r2, r2
 80046bc:	701a      	strb	r2, [r3, #0]

    /* Check that the new number of wait states is taken into account to access the Flash
    memory by reading the FLASH_ACR register */
    if(__HAL_FLASH_GET_LATENCY() != FLatency)
 80046be:	4b20      	ldr	r3, [pc, #128]	; (8004740 <HAL_RCC_ClockConfig+0x1b8>)
 80046c0:	681b      	ldr	r3, [r3, #0]
 80046c2:	f003 030f 	and.w	r3, r3, #15
 80046c6:	683a      	ldr	r2, [r7, #0]
 80046c8:	429a      	cmp	r2, r3
 80046ca:	d001      	beq.n	80046d0 <HAL_RCC_ClockConfig+0x148>
    {
      return HAL_ERROR;
 80046cc:	2301      	movs	r3, #1
 80046ce:	e032      	b.n	8004736 <HAL_RCC_ClockConfig+0x1ae>
    }
  }

  /*-------------------------- PCLK1 Configuration ---------------------------*/
  if(((RCC_ClkInitStruct->ClockType) & RCC_CLOCKTYPE_PCLK1) == RCC_CLOCKTYPE_PCLK1)
 80046d0:	687b      	ldr	r3, [r7, #4]
 80046d2:	681b      	ldr	r3, [r3, #0]
 80046d4:	f003 0304 	and.w	r3, r3, #4
 80046d8:	2b00      	cmp	r3, #0
 80046da:	d008      	beq.n	80046ee <HAL_RCC_ClockConfig+0x166>
  {
    assert_param(IS_RCC_PCLK(RCC_ClkInitStruct->APB1CLKDivider));
    MODIFY_REG(RCC->CFGR, RCC_CFGR_PPRE1, RCC_ClkInitStruct->APB1CLKDivider);
 80046dc:	4b19      	ldr	r3, [pc, #100]	; (8004744 <HAL_RCC_ClockConfig+0x1bc>)
 80046de:	689b      	ldr	r3, [r3, #8]
 80046e0:	f423 52e0 	bic.w	r2, r3, #7168	; 0x1c00
 80046e4:	687b      	ldr	r3, [r7, #4]
 80046e6:	68db      	ldr	r3, [r3, #12]
 80046e8:	4916      	ldr	r1, [pc, #88]	; (8004744 <HAL_RCC_ClockConfig+0x1bc>)
 80046ea:	4313      	orrs	r3, r2
 80046ec:	608b      	str	r3, [r1, #8]
  }

  /*-------------------------- PCLK2 Configuration ---------------------------*/
  if(((RCC_ClkInitStruct->ClockType) & RCC_CLOCKTYPE_PCLK2) == RCC_CLOCKTYPE_PCLK2)
 80046ee:	687b      	ldr	r3, [r7, #4]
 80046f0:	681b      	ldr	r3, [r3, #0]
 80046f2:	f003 0308 	and.w	r3, r3, #8
 80046f6:	2b00      	cmp	r3, #0
 80046f8:	d009      	beq.n	800470e <HAL_RCC_ClockConfig+0x186>
  {
    assert_param(IS_RCC_PCLK(RCC_ClkInitStruct->APB2CLKDivider));
    MODIFY_REG(RCC->CFGR, RCC_CFGR_PPRE2, ((RCC_ClkInitStruct->APB2CLKDivider) << 3U));
 80046fa:	4b12      	ldr	r3, [pc, #72]	; (8004744 <HAL_RCC_ClockConfig+0x1bc>)
 80046fc:	689b      	ldr	r3, [r3, #8]
 80046fe:	f423 4260 	bic.w	r2, r3, #57344	; 0xe000
 8004702:	687b      	ldr	r3, [r7, #4]
 8004704:	691b      	ldr	r3, [r3, #16]
 8004706:	00db      	lsls	r3, r3, #3
 8004708:	490e      	ldr	r1, [pc, #56]	; (8004744 <HAL_RCC_ClockConfig+0x1bc>)
 800470a:	4313      	orrs	r3, r2
 800470c:	608b      	str	r3, [r1, #8]
  }

  /* Update the SystemCoreClock global variable */
  SystemCoreClock = HAL_RCC_GetSysClockFreq() >> AHBPrescTable[(RCC->CFGR & RCC_CFGR_HPRE)>> RCC_CFGR_HPRE_Pos];
 800470e:	f000 f821 	bl	8004754 <HAL_RCC_GetSysClockFreq>
 8004712:	4602      	mov	r2, r0
 8004714:	4b0b      	ldr	r3, [pc, #44]	; (8004744 <HAL_RCC_ClockConfig+0x1bc>)
 8004716:	689b      	ldr	r3, [r3, #8]
 8004718:	091b      	lsrs	r3, r3, #4
 800471a:	f003 030f 	and.w	r3, r3, #15
 800471e:	490a      	ldr	r1, [pc, #40]	; (8004748 <HAL_RCC_ClockConfig+0x1c0>)
 8004720:	5ccb      	ldrb	r3, [r1, r3]
 8004722:	fa22 f303 	lsr.w	r3, r2, r3
 8004726:	4a09      	ldr	r2, [pc, #36]	; (800474c <HAL_RCC_ClockConfig+0x1c4>)
 8004728:	6013      	str	r3, [r2, #0]

  /* Configure the source of time base considering new system clocks settings */
  HAL_InitTick (uwTickPrio);
 800472a:	4b09      	ldr	r3, [pc, #36]	; (8004750 <HAL_RCC_ClockConfig+0x1c8>)
 800472c:	681b      	ldr	r3, [r3, #0]
 800472e:	4618      	mov	r0, r3
 8004730:	f7fd ff16 	bl	8002560 <HAL_InitTick>

  return HAL_OK;
 8004734:	2300      	movs	r3, #0
}
 8004736:	4618      	mov	r0, r3
 8004738:	3710      	adds	r7, #16
 800473a:	46bd      	mov	sp, r7
 800473c:	bd80      	pop	{r7, pc}
 800473e:	bf00      	nop
 8004740:	40023c00 	.word	0x40023c00
 8004744:	40023800 	.word	0x40023800
 8004748:	0800767c 	.word	0x0800767c
 800474c:	20000018 	.word	0x20000018
 8004750:	2000001c 	.word	0x2000001c

08004754 <HAL_RCC_GetSysClockFreq>:
  *
  *
  * @retval SYSCLK frequency
  */
__weak uint32_t HAL_RCC_GetSysClockFreq(void)
{
 8004754:	e92d 4fb0 	stmdb	sp!, {r4, r5, r7, r8, r9, sl, fp, lr}
 8004758:	b090      	sub	sp, #64	; 0x40
 800475a:	af00      	add	r7, sp, #0
  uint32_t pllm = 0U, pllvco = 0U, pllp = 0U;
 800475c:	2300      	movs	r3, #0
 800475e:	637b      	str	r3, [r7, #52]	; 0x34
 8004760:	2300      	movs	r3, #0
 8004762:	63fb      	str	r3, [r7, #60]	; 0x3c
 8004764:	2300      	movs	r3, #0
 8004766:	633b      	str	r3, [r7, #48]	; 0x30
  uint32_t sysclockfreq = 0U;
 8004768:	2300      	movs	r3, #0
 800476a:	63bb      	str	r3, [r7, #56]	; 0x38

  /* Get SYSCLK source -------------------------------------------------------*/
  switch (RCC->CFGR & RCC_CFGR_SWS)
 800476c:	4b59      	ldr	r3, [pc, #356]	; (80048d4 <HAL_RCC_GetSysClockFreq+0x180>)
 800476e:	689b      	ldr	r3, [r3, #8]
 8004770:	f003 030c 	and.w	r3, r3, #12
 8004774:	2b08      	cmp	r3, #8
 8004776:	d00d      	beq.n	8004794 <HAL_RCC_GetSysClockFreq+0x40>
 8004778:	2b08      	cmp	r3, #8
 800477a:	f200 80a1 	bhi.w	80048c0 <HAL_RCC_GetSysClockFreq+0x16c>
 800477e:	2b00      	cmp	r3, #0
 8004780:	d002      	beq.n	8004788 <HAL_RCC_GetSysClockFreq+0x34>
 8004782:	2b04      	cmp	r3, #4
 8004784:	d003      	beq.n	800478e <HAL_RCC_GetSysClockFreq+0x3a>
 8004786:	e09b      	b.n	80048c0 <HAL_RCC_GetSysClockFreq+0x16c>
  {
    case RCC_CFGR_SWS_HSI:  /* HSI used as system clock source */
    {
      sysclockfreq = HSI_VALUE;
 8004788:	4b53      	ldr	r3, [pc, #332]	; (80048d8 <HAL_RCC_GetSysClockFreq+0x184>)
 800478a:	63bb      	str	r3, [r7, #56]	; 0x38
       break;
 800478c:	e09b      	b.n	80048c6 <HAL_RCC_GetSysClockFreq+0x172>
    }
    case RCC_CFGR_SWS_HSE:  /* HSE used as system clock  source */
    {
      sysclockfreq = HSE_VALUE;
 800478e:	4b53      	ldr	r3, [pc, #332]	; (80048dc <HAL_RCC_GetSysClockFreq+0x188>)
 8004790:	63bb      	str	r3, [r7, #56]	; 0x38
      break;
 8004792:	e098      	b.n	80048c6 <HAL_RCC_GetSysClockFreq+0x172>
    }
    case RCC_CFGR_SWS_PLL:  /* PLL used as system clock  source */
    {
      /* PLL_VCO = (HSE_VALUE or HSI_VALUE / PLLM) * PLLN
      SYSCLK = PLL_VCO / PLLP */
      pllm = RCC->PLLCFGR & RCC_PLLCFGR_PLLM;
 8004794:	4b4f      	ldr	r3, [pc, #316]	; (80048d4 <HAL_RCC_GetSysClockFreq+0x180>)
 8004796:	685b      	ldr	r3, [r3, #4]
 8004798:	f003 033f 	and.w	r3, r3, #63	; 0x3f
 800479c:	637b      	str	r3, [r7, #52]	; 0x34
      if(__HAL_RCC_GET_PLL_OSCSOURCE() != RCC_PLLSOURCE_HSI)
 800479e:	4b4d      	ldr	r3, [pc, #308]	; (80048d4 <HAL_RCC_GetSysClockFreq+0x180>)
 80047a0:	685b      	ldr	r3, [r3, #4]
 80047a2:	f403 0380 	and.w	r3, r3, #4194304	; 0x400000
 80047a6:	2b00      	cmp	r3, #0
 80047a8:	d028      	beq.n	80047fc <HAL_RCC_GetSysClockFreq+0xa8>
      {
        /* HSE used as PLL clock source */
        pllvco = (uint32_t) ((((uint64_t) HSE_VALUE * ((uint64_t) ((RCC->PLLCFGR & RCC_PLLCFGR_PLLN) >> RCC_PLLCFGR_PLLN_Pos)))) / (uint64_t)pllm);
 80047aa:	4b4a      	ldr	r3, [pc, #296]	; (80048d4 <HAL_RCC_GetSysClockFreq+0x180>)
 80047ac:	685b      	ldr	r3, [r3, #4]
 80047ae:	099b      	lsrs	r3, r3, #6
 80047b0:	2200      	movs	r2, #0
 80047b2:	623b      	str	r3, [r7, #32]
 80047b4:	627a      	str	r2, [r7, #36]	; 0x24
 80047b6:	6a3b      	ldr	r3, [r7, #32]
 80047b8:	f3c3 0008 	ubfx	r0, r3, #0, #9
 80047bc:	2100      	movs	r1, #0
 80047be:	4b47      	ldr	r3, [pc, #284]	; (80048dc <HAL_RCC_GetSysClockFreq+0x188>)
 80047c0:	fb03 f201 	mul.w	r2, r3, r1
 80047c4:	2300      	movs	r3, #0
 80047c6:	fb00 f303 	mul.w	r3, r0, r3
 80047ca:	4413      	add	r3, r2
 80047cc:	4a43      	ldr	r2, [pc, #268]	; (80048dc <HAL_RCC_GetSysClockFreq+0x188>)
 80047ce:	fba0 1202 	umull	r1, r2, r0, r2
 80047d2:	62fa      	str	r2, [r7, #44]	; 0x2c
 80047d4:	460a      	mov	r2, r1
 80047d6:	62ba      	str	r2, [r7, #40]	; 0x28
 80047d8:	6afa      	ldr	r2, [r7, #44]	; 0x2c
 80047da:	4413      	add	r3, r2
 80047dc:	62fb      	str	r3, [r7, #44]	; 0x2c
 80047de:	6b7b      	ldr	r3, [r7, #52]	; 0x34
 80047e0:	2200      	movs	r2, #0
 80047e2:	61bb      	str	r3, [r7, #24]
 80047e4:	61fa      	str	r2, [r7, #28]
 80047e6:	e9d7 2306 	ldrd	r2, r3, [r7, #24]
 80047ea:	e9d7 010a 	ldrd	r0, r1, [r7, #40]	; 0x28
 80047ee:	f7fb fd05 	bl	80001fc <__aeabi_uldivmod>
 80047f2:	4602      	mov	r2, r0
 80047f4:	460b      	mov	r3, r1
 80047f6:	4613      	mov	r3, r2
 80047f8:	63fb      	str	r3, [r7, #60]	; 0x3c
 80047fa:	e053      	b.n	80048a4 <HAL_RCC_GetSysClockFreq+0x150>
      }
      else
      {
        /* HSI used as PLL clock source */
        pllvco = (uint32_t) ((((uint64_t) HSI_VALUE * ((uint64_t) ((RCC->PLLCFGR & RCC_PLLCFGR_PLLN) >> RCC_PLLCFGR_PLLN_Pos)))) / (uint64_t)pllm);
 80047fc:	4b35      	ldr	r3, [pc, #212]	; (80048d4 <HAL_RCC_GetSysClockFreq+0x180>)
 80047fe:	685b      	ldr	r3, [r3, #4]
 8004800:	099b      	lsrs	r3, r3, #6
 8004802:	2200      	movs	r2, #0
 8004804:	613b      	str	r3, [r7, #16]
 8004806:	617a      	str	r2, [r7, #20]
 8004808:	693b      	ldr	r3, [r7, #16]
 800480a:	f3c3 0a08 	ubfx	sl, r3, #0, #9
 800480e:	f04f 0b00 	mov.w	fp, #0
 8004812:	4652      	mov	r2, sl
 8004814:	465b      	mov	r3, fp
 8004816:	f04f 0000 	mov.w	r0, #0
 800481a:	f04f 0100 	mov.w	r1, #0
 800481e:	0159      	lsls	r1, r3, #5
 8004820:	ea41 61d2 	orr.w	r1, r1, r2, lsr #27
 8004824:	0150      	lsls	r0, r2, #5
 8004826:	4602      	mov	r2, r0
 8004828:	460b      	mov	r3, r1
 800482a:	ebb2 080a 	subs.w	r8, r2, sl
 800482e:	eb63 090b 	sbc.w	r9, r3, fp
 8004832:	f04f 0200 	mov.w	r2, #0
 8004836:	f04f 0300 	mov.w	r3, #0
 800483a:	ea4f 1389 	mov.w	r3, r9, lsl #6
 800483e:	ea43 6398 	orr.w	r3, r3, r8, lsr #26
 8004842:	ea4f 1288 	mov.w	r2, r8, lsl #6
 8004846:	ebb2 0408 	subs.w	r4, r2, r8
 800484a:	eb63 0509 	sbc.w	r5, r3, r9
 800484e:	f04f 0200 	mov.w	r2, #0
 8004852:	f04f 0300 	mov.w	r3, #0
 8004856:	00eb      	lsls	r3, r5, #3
 8004858:	ea43 7354 	orr.w	r3, r3, r4, lsr #29
 800485c:	00e2      	lsls	r2, r4, #3
 800485e:	4614      	mov	r4, r2
 8004860:	461d      	mov	r5, r3
 8004862:	eb14 030a 	adds.w	r3, r4, sl
 8004866:	603b      	str	r3, [r7, #0]
 8004868:	eb45 030b 	adc.w	r3, r5, fp
 800486c:	607b      	str	r3, [r7, #4]
 800486e:	f04f 0200 	mov.w	r2, #0
 8004872:	f04f 0300 	mov.w	r3, #0
 8004876:	e9d7 4500 	ldrd	r4, r5, [r7]
 800487a:	4629      	mov	r1, r5
 800487c:	028b      	lsls	r3, r1, #10
 800487e:	4621      	mov	r1, r4
 8004880:	ea43 5391 	orr.w	r3, r3, r1, lsr #22
 8004884:	4621      	mov	r1, r4
 8004886:	028a      	lsls	r2, r1, #10
 8004888:	4610      	mov	r0, r2
 800488a:	4619      	mov	r1, r3
 800488c:	6b7b      	ldr	r3, [r7, #52]	; 0x34
 800488e:	2200      	movs	r2, #0
 8004890:	60bb      	str	r3, [r7, #8]
 8004892:	60fa      	str	r2, [r7, #12]
 8004894:	e9d7 2302 	ldrd	r2, r3, [r7, #8]
 8004898:	f7fb fcb0 	bl	80001fc <__aeabi_uldivmod>
 800489c:	4602      	mov	r2, r0
 800489e:	460b      	mov	r3, r1
 80048a0:	4613      	mov	r3, r2
 80048a2:	63fb      	str	r3, [r7, #60]	; 0x3c
      }
      pllp = ((((RCC->PLLCFGR & RCC_PLLCFGR_PLLP) >> RCC_PLLCFGR_PLLP_Pos) + 1U) *2U);
 80048a4:	4b0b      	ldr	r3, [pc, #44]	; (80048d4 <HAL_RCC_GetSysClockFreq+0x180>)
 80048a6:	685b      	ldr	r3, [r3, #4]
 80048a8:	0c1b      	lsrs	r3, r3, #16
 80048aa:	f003 0303 	and.w	r3, r3, #3
 80048ae:	3301      	adds	r3, #1
 80048b0:	005b      	lsls	r3, r3, #1
 80048b2:	633b      	str	r3, [r7, #48]	; 0x30

      sysclockfreq = pllvco/pllp;
 80048b4:	6bfa      	ldr	r2, [r7, #60]	; 0x3c
 80048b6:	6b3b      	ldr	r3, [r7, #48]	; 0x30
 80048b8:	fbb2 f3f3 	udiv	r3, r2, r3
 80048bc:	63bb      	str	r3, [r7, #56]	; 0x38
      break;
 80048be:	e002      	b.n	80048c6 <HAL_RCC_GetSysClockFreq+0x172>
    }
    default:
    {
      sysclockfreq = HSI_VALUE;
 80048c0:	4b05      	ldr	r3, [pc, #20]	; (80048d8 <HAL_RCC_GetSysClockFreq+0x184>)
 80048c2:	63bb      	str	r3, [r7, #56]	; 0x38
      break;
 80048c4:	bf00      	nop
    }
  }
  return sysclockfreq;
 80048c6:	6bbb      	ldr	r3, [r7, #56]	; 0x38
}
 80048c8:	4618      	mov	r0, r3
 80048ca:	3740      	adds	r7, #64	; 0x40
 80048cc:	46bd      	mov	sp, r7
 80048ce:	e8bd 8fb0 	ldmia.w	sp!, {r4, r5, r7, r8, r9, sl, fp, pc}
 80048d2:	bf00      	nop
 80048d4:	40023800 	.word	0x40023800
 80048d8:	00f42400 	.word	0x00f42400
 80048dc:	017d7840 	.word	0x017d7840

080048e0 <HAL_RCC_GetHCLKFreq>:
  * @note   The SystemCoreClock CMSIS variable is used to store System Clock Frequency
  *         and updated within this function
  * @retval HCLK frequency
  */
uint32_t HAL_RCC_GetHCLKFreq(void)
{
 80048e0:	b480      	push	{r7}
 80048e2:	af00      	add	r7, sp, #0
  return SystemCoreClock;
 80048e4:	4b03      	ldr	r3, [pc, #12]	; (80048f4 <HAL_RCC_GetHCLKFreq+0x14>)
 80048e6:	681b      	ldr	r3, [r3, #0]
}
 80048e8:	4618      	mov	r0, r3
 80048ea:	46bd      	mov	sp, r7
 80048ec:	f85d 7b04 	ldr.w	r7, [sp], #4
 80048f0:	4770      	bx	lr
 80048f2:	bf00      	nop
 80048f4:	20000018 	.word	0x20000018

080048f8 <HAL_RCC_GetPCLK1Freq>:
  * @note   Each time PCLK1 changes, this function must be called to update the
  *         right PCLK1 value. Otherwise, any configuration based on this function will be incorrect.
  * @retval PCLK1 frequency
  */
uint32_t HAL_RCC_GetPCLK1Freq(void)
{
 80048f8:	b580      	push	{r7, lr}
 80048fa:	af00      	add	r7, sp, #0
  /* Get HCLK source and Compute PCLK1 frequency ---------------------------*/
  return (HAL_RCC_GetHCLKFreq() >> APBPrescTable[(RCC->CFGR & RCC_CFGR_PPRE1)>> RCC_CFGR_PPRE1_Pos]);
 80048fc:	f7ff fff0 	bl	80048e0 <HAL_RCC_GetHCLKFreq>
 8004900:	4602      	mov	r2, r0
 8004902:	4b05      	ldr	r3, [pc, #20]	; (8004918 <HAL_RCC_GetPCLK1Freq+0x20>)
 8004904:	689b      	ldr	r3, [r3, #8]
 8004906:	0a9b      	lsrs	r3, r3, #10
 8004908:	f003 0307 	and.w	r3, r3, #7
 800490c:	4903      	ldr	r1, [pc, #12]	; (800491c <HAL_RCC_GetPCLK1Freq+0x24>)
 800490e:	5ccb      	ldrb	r3, [r1, r3]
 8004910:	fa22 f303 	lsr.w	r3, r2, r3
}
 8004914:	4618      	mov	r0, r3
 8004916:	bd80      	pop	{r7, pc}
 8004918:	40023800 	.word	0x40023800
 800491c:	0800768c 	.word	0x0800768c

08004920 <HAL_RCC_GetPCLK2Freq>:
  * @note   Each time PCLK2 changes, this function must be called to update the
  *         right PCLK2 value. Otherwise, any configuration based on this function will be incorrect.
  * @retval PCLK2 frequency
  */
uint32_t HAL_RCC_GetPCLK2Freq(void)
{
 8004920:	b580      	push	{r7, lr}
 8004922:	af00      	add	r7, sp, #0
  /* Get HCLK source and Compute PCLK2 frequency ---------------------------*/
  return (HAL_RCC_GetHCLKFreq()>> APBPrescTable[(RCC->CFGR & RCC_CFGR_PPRE2)>> RCC_CFGR_PPRE2_Pos]);
 8004924:	f7ff ffdc 	bl	80048e0 <HAL_RCC_GetHCLKFreq>
 8004928:	4602      	mov	r2, r0
 800492a:	4b05      	ldr	r3, [pc, #20]	; (8004940 <HAL_RCC_GetPCLK2Freq+0x20>)
 800492c:	689b      	ldr	r3, [r3, #8]
 800492e:	0b5b      	lsrs	r3, r3, #13
 8004930:	f003 0307 	and.w	r3, r3, #7
 8004934:	4903      	ldr	r1, [pc, #12]	; (8004944 <HAL_RCC_GetPCLK2Freq+0x24>)
 8004936:	5ccb      	ldrb	r3, [r1, r3]
 8004938:	fa22 f303 	lsr.w	r3, r2, r3
}
 800493c:	4618      	mov	r0, r3
 800493e:	bd80      	pop	{r7, pc}
 8004940:	40023800 	.word	0x40023800
 8004944:	0800768c 	.word	0x0800768c

08004948 <HAL_RCCEx_PeriphCLKConfig>:
  *         the backup registers) and RCC_BDCR register are set to their reset values.
  *
  * @retval HAL status
  */
HAL_StatusTypeDef HAL_RCCEx_PeriphCLKConfig(RCC_PeriphCLKInitTypeDef  *PeriphClkInit)
{
 8004948:	b580      	push	{r7, lr}
 800494a:	b086      	sub	sp, #24
 800494c:	af00      	add	r7, sp, #0
 800494e:	6078      	str	r0, [r7, #4]
  uint32_t tickstart = 0U;
 8004950:	2300      	movs	r3, #0
 8004952:	617b      	str	r3, [r7, #20]
  uint32_t tmpreg1 = 0U;
 8004954:	2300      	movs	r3, #0
 8004956:	613b      	str	r3, [r7, #16]

  /*----------------------- SAI/I2S Configuration (PLLI2S) -------------------*/
  /*----------------------- Common configuration SAI/I2S ---------------------*/
  /* In Case of SAI or I2S Clock Configuration through PLLI2S, PLLI2SN division
     factor is common parameters for both peripherals */
  if((((PeriphClkInit->PeriphClockSelection) & RCC_PERIPHCLK_I2S) == RCC_PERIPHCLK_I2S) ||
 8004958:	687b      	ldr	r3, [r7, #4]
 800495a:	681b      	ldr	r3, [r3, #0]
 800495c:	f003 0301 	and.w	r3, r3, #1
 8004960:	2b00      	cmp	r3, #0
 8004962:	d10b      	bne.n	800497c <HAL_RCCEx_PeriphCLKConfig+0x34>
     (((PeriphClkInit->PeriphClockSelection) & RCC_PERIPHCLK_SAI_PLLI2S) == RCC_PERIPHCLK_SAI_PLLI2S) ||
 8004964:	687b      	ldr	r3, [r7, #4]
 8004966:	681b      	ldr	r3, [r3, #0]
 8004968:	f003 0302 	and.w	r3, r3, #2
  if((((PeriphClkInit->PeriphClockSelection) & RCC_PERIPHCLK_I2S) == RCC_PERIPHCLK_I2S) ||
 800496c:	2b00      	cmp	r3, #0
 800496e:	d105      	bne.n	800497c <HAL_RCCEx_PeriphCLKConfig+0x34>
     (((PeriphClkInit->PeriphClockSelection) & RCC_PERIPHCLK_PLLI2S) == RCC_PERIPHCLK_PLLI2S))
 8004970:	687b      	ldr	r3, [r7, #4]
 8004972:	681b      	ldr	r3, [r3, #0]
 8004974:	f003 0340 	and.w	r3, r3, #64	; 0x40
     (((PeriphClkInit->PeriphClockSelection) & RCC_PERIPHCLK_SAI_PLLI2S) == RCC_PERIPHCLK_SAI_PLLI2S) ||
 8004978:	2b00      	cmp	r3, #0
 800497a:	d075      	beq.n	8004a68 <HAL_RCCEx_PeriphCLKConfig+0x120>
  {
    /* check for Parameters */
    assert_param(IS_RCC_PLLI2SN_VALUE(PeriphClkInit->PLLI2S.PLLI2SN));

    /* Disable the PLLI2S */
    __HAL_RCC_PLLI2S_DISABLE();
 800497c:	4b91      	ldr	r3, [pc, #580]	; (8004bc4 <HAL_RCCEx_PeriphCLKConfig+0x27c>)
 800497e:	2200      	movs	r2, #0
 8004980:	601a      	str	r2, [r3, #0]
    /* Get tick */
    tickstart = HAL_GetTick();
 8004982:	f7fd fe31 	bl	80025e8 <HAL_GetTick>
 8004986:	6178      	str	r0, [r7, #20]
    /* Wait till PLLI2S is disabled */
    while(__HAL_RCC_GET_FLAG(RCC_FLAG_PLLI2SRDY)  != RESET)
 8004988:	e008      	b.n	800499c <HAL_RCCEx_PeriphCLKConfig+0x54>
    {
      if((HAL_GetTick() - tickstart ) > PLLI2S_TIMEOUT_VALUE)
 800498a:	f7fd fe2d 	bl	80025e8 <HAL_GetTick>
 800498e:	4602      	mov	r2, r0
 8004990:	697b      	ldr	r3, [r7, #20]
 8004992:	1ad3      	subs	r3, r2, r3
 8004994:	2b02      	cmp	r3, #2
 8004996:	d901      	bls.n	800499c <HAL_RCCEx_PeriphCLKConfig+0x54>
      {
        /* return in case of Timeout detected */
        return HAL_TIMEOUT;
 8004998:	2303      	movs	r3, #3
 800499a:	e189      	b.n	8004cb0 <HAL_RCCEx_PeriphCLKConfig+0x368>
    while(__HAL_RCC_GET_FLAG(RCC_FLAG_PLLI2SRDY)  != RESET)
 800499c:	4b8a      	ldr	r3, [pc, #552]	; (8004bc8 <HAL_RCCEx_PeriphCLKConfig+0x280>)
 800499e:	681b      	ldr	r3, [r3, #0]
 80049a0:	f003 6300 	and.w	r3, r3, #134217728	; 0x8000000
 80049a4:	2b00      	cmp	r3, #0
 80049a6:	d1f0      	bne.n	800498a <HAL_RCCEx_PeriphCLKConfig+0x42>
    }

    /*---------------------------- I2S configuration -------------------------*/
    /* In Case of I2S Clock Configuration through PLLI2S, PLLI2SR must be added
      only for I2S configuration */
    if(((PeriphClkInit->PeriphClockSelection) & RCC_PERIPHCLK_I2S) == (RCC_PERIPHCLK_I2S))
 80049a8:	687b      	ldr	r3, [r7, #4]
 80049aa:	681b      	ldr	r3, [r3, #0]
 80049ac:	f003 0301 	and.w	r3, r3, #1
 80049b0:	2b00      	cmp	r3, #0
 80049b2:	d009      	beq.n	80049c8 <HAL_RCCEx_PeriphCLKConfig+0x80>
      /* check for Parameters */
      assert_param(IS_RCC_PLLI2SR_VALUE(PeriphClkInit->PLLI2S.PLLI2SR));
      /* Configure the PLLI2S division factors */
      /* PLLI2S_VCO = f(VCO clock) = f(PLLI2S clock input) * (PLLI2SN/PLLM) */
      /* I2SCLK = f(PLLI2S clock output) = f(VCO clock) / PLLI2SR */
      __HAL_RCC_PLLI2S_CONFIG(PeriphClkInit->PLLI2S.PLLI2SN , PeriphClkInit->PLLI2S.PLLI2SR);
 80049b4:	687b      	ldr	r3, [r7, #4]
 80049b6:	685b      	ldr	r3, [r3, #4]
 80049b8:	019a      	lsls	r2, r3, #6
 80049ba:	687b      	ldr	r3, [r7, #4]
 80049bc:	689b      	ldr	r3, [r3, #8]
 80049be:	071b      	lsls	r3, r3, #28
 80049c0:	4981      	ldr	r1, [pc, #516]	; (8004bc8 <HAL_RCCEx_PeriphCLKConfig+0x280>)
 80049c2:	4313      	orrs	r3, r2
 80049c4:	f8c1 3084 	str.w	r3, [r1, #132]	; 0x84
    }

    /*---------------------------- SAI configuration -------------------------*/
    /* In Case of SAI Clock Configuration through PLLI2S, PLLI2SQ and PLLI2S_DIVQ must
       be added only for SAI configuration */
    if(((PeriphClkInit->PeriphClockSelection) & RCC_PERIPHCLK_SAI_PLLI2S) == (RCC_PERIPHCLK_SAI_PLLI2S))
 80049c8:	687b      	ldr	r3, [r7, #4]
 80049ca:	681b      	ldr	r3, [r3, #0]
 80049cc:	f003 0302 	and.w	r3, r3, #2
 80049d0:	2b00      	cmp	r3, #0
 80049d2:	d01f      	beq.n	8004a14 <HAL_RCCEx_PeriphCLKConfig+0xcc>
      /* Check the PLLI2S division factors */
      assert_param(IS_RCC_PLLI2SQ_VALUE(PeriphClkInit->PLLI2S.PLLI2SQ));
      assert_param(IS_RCC_PLLI2S_DIVQ_VALUE(PeriphClkInit->PLLI2SDivQ));

      /* Read PLLI2SR value from PLLI2SCFGR register (this value is not need for SAI configuration) */
      tmpreg1 = ((RCC->PLLI2SCFGR & RCC_PLLI2SCFGR_PLLI2SR) >> RCC_PLLI2SCFGR_PLLI2SR_Pos);
 80049d4:	4b7c      	ldr	r3, [pc, #496]	; (8004bc8 <HAL_RCCEx_PeriphCLKConfig+0x280>)
 80049d6:	f8d3 3084 	ldr.w	r3, [r3, #132]	; 0x84
 80049da:	0f1b      	lsrs	r3, r3, #28
 80049dc:	f003 0307 	and.w	r3, r3, #7
 80049e0:	613b      	str	r3, [r7, #16]
      /* Configure the PLLI2S division factors */
      /* PLLI2S_VCO Input  = PLL_SOURCE/PLLM */
      /* PLLI2S_VCO Output = PLLI2S_VCO Input * PLLI2SN */
      /* SAI_CLK(first level) = PLLI2S_VCO Output/PLLI2SQ */
      __HAL_RCC_PLLI2S_SAICLK_CONFIG(PeriphClkInit->PLLI2S.PLLI2SN , PeriphClkInit->PLLI2S.PLLI2SQ , tmpreg1);
 80049e2:	687b      	ldr	r3, [r7, #4]
 80049e4:	685b      	ldr	r3, [r3, #4]
 80049e6:	019a      	lsls	r2, r3, #6
 80049e8:	687b      	ldr	r3, [r7, #4]
 80049ea:	68db      	ldr	r3, [r3, #12]
 80049ec:	061b      	lsls	r3, r3, #24
 80049ee:	431a      	orrs	r2, r3
 80049f0:	693b      	ldr	r3, [r7, #16]
 80049f2:	071b      	lsls	r3, r3, #28
 80049f4:	4974      	ldr	r1, [pc, #464]	; (8004bc8 <HAL_RCCEx_PeriphCLKConfig+0x280>)
 80049f6:	4313      	orrs	r3, r2
 80049f8:	f8c1 3084 	str.w	r3, [r1, #132]	; 0x84
      /* SAI_CLK_x = SAI_CLK(first level)/PLLI2SDIVQ */
      __HAL_RCC_PLLI2S_PLLSAICLKDIVQ_CONFIG(PeriphClkInit->PLLI2SDivQ);
 80049fc:	4b72      	ldr	r3, [pc, #456]	; (8004bc8 <HAL_RCCEx_PeriphCLKConfig+0x280>)
 80049fe:	f8d3 308c 	ldr.w	r3, [r3, #140]	; 0x8c
 8004a02:	f023 021f 	bic.w	r2, r3, #31
 8004a06:	687b      	ldr	r3, [r7, #4]
 8004a08:	69db      	ldr	r3, [r3, #28]
 8004a0a:	3b01      	subs	r3, #1
 8004a0c:	496e      	ldr	r1, [pc, #440]	; (8004bc8 <HAL_RCCEx_PeriphCLKConfig+0x280>)
 8004a0e:	4313      	orrs	r3, r2
 8004a10:	f8c1 308c 	str.w	r3, [r1, #140]	; 0x8c
    }

    /*----------------- In Case of PLLI2S is just selected  -----------------*/
    if((PeriphClkInit->PeriphClockSelection & RCC_PERIPHCLK_PLLI2S) == RCC_PERIPHCLK_PLLI2S)
 8004a14:	687b      	ldr	r3, [r7, #4]
 8004a16:	681b      	ldr	r3, [r3, #0]
 8004a18:	f003 0340 	and.w	r3, r3, #64	; 0x40
 8004a1c:	2b00      	cmp	r3, #0
 8004a1e:	d00d      	beq.n	8004a3c <HAL_RCCEx_PeriphCLKConfig+0xf4>
      /* Check for Parameters */
      assert_param(IS_RCC_PLLI2SQ_VALUE(PeriphClkInit->PLLI2S.PLLI2SQ));
      assert_param(IS_RCC_PLLI2SR_VALUE(PeriphClkInit->PLLI2S.PLLI2SR));

      /* Configure the PLLI2S multiplication and division factors */
      __HAL_RCC_PLLI2S_SAICLK_CONFIG(PeriphClkInit->PLLI2S.PLLI2SN, PeriphClkInit->PLLI2S.PLLI2SQ, PeriphClkInit->PLLI2S.PLLI2SR);
 8004a20:	687b      	ldr	r3, [r7, #4]
 8004a22:	685b      	ldr	r3, [r3, #4]
 8004a24:	019a      	lsls	r2, r3, #6
 8004a26:	687b      	ldr	r3, [r7, #4]
 8004a28:	68db      	ldr	r3, [r3, #12]
 8004a2a:	061b      	lsls	r3, r3, #24
 8004a2c:	431a      	orrs	r2, r3
 8004a2e:	687b      	ldr	r3, [r7, #4]
 8004a30:	689b      	ldr	r3, [r3, #8]
 8004a32:	071b      	lsls	r3, r3, #28
 8004a34:	4964      	ldr	r1, [pc, #400]	; (8004bc8 <HAL_RCCEx_PeriphCLKConfig+0x280>)
 8004a36:	4313      	orrs	r3, r2
 8004a38:	f8c1 3084 	str.w	r3, [r1, #132]	; 0x84
    }

    /* Enable the PLLI2S */
    __HAL_RCC_PLLI2S_ENABLE();
 8004a3c:	4b61      	ldr	r3, [pc, #388]	; (8004bc4 <HAL_RCCEx_PeriphCLKConfig+0x27c>)
 8004a3e:	2201      	movs	r2, #1
 8004a40:	601a      	str	r2, [r3, #0]
    /* Get tick */
    tickstart = HAL_GetTick();
 8004a42:	f7fd fdd1 	bl	80025e8 <HAL_GetTick>
 8004a46:	6178      	str	r0, [r7, #20]
    /* Wait till PLLI2S is ready */
    while(__HAL_RCC_GET_FLAG(RCC_FLAG_PLLI2SRDY)  == RESET)
 8004a48:	e008      	b.n	8004a5c <HAL_RCCEx_PeriphCLKConfig+0x114>
    {
      if((HAL_GetTick() - tickstart ) > PLLI2S_TIMEOUT_VALUE)
 8004a4a:	f7fd fdcd 	bl	80025e8 <HAL_GetTick>
 8004a4e:	4602      	mov	r2, r0
 8004a50:	697b      	ldr	r3, [r7, #20]
 8004a52:	1ad3      	subs	r3, r2, r3
 8004a54:	2b02      	cmp	r3, #2
 8004a56:	d901      	bls.n	8004a5c <HAL_RCCEx_PeriphCLKConfig+0x114>
      {
        /* return in case of Timeout detected */
        return HAL_TIMEOUT;
 8004a58:	2303      	movs	r3, #3
 8004a5a:	e129      	b.n	8004cb0 <HAL_RCCEx_PeriphCLKConfig+0x368>
    while(__HAL_RCC_GET_FLAG(RCC_FLAG_PLLI2SRDY)  == RESET)
 8004a5c:	4b5a      	ldr	r3, [pc, #360]	; (8004bc8 <HAL_RCCEx_PeriphCLKConfig+0x280>)
 8004a5e:	681b      	ldr	r3, [r3, #0]
 8004a60:	f003 6300 	and.w	r3, r3, #134217728	; 0x8000000
 8004a64:	2b00      	cmp	r3, #0
 8004a66:	d0f0      	beq.n	8004a4a <HAL_RCCEx_PeriphCLKConfig+0x102>

  /*----------------------- SAI/LTDC Configuration (PLLSAI) ------------------*/
  /*----------------------- Common configuration SAI/LTDC --------------------*/
  /* In Case of SAI or LTDC Clock Configuration through PLLSAI, PLLSAIN division
     factor is common parameters for both peripherals */
  if((((PeriphClkInit->PeriphClockSelection) & RCC_PERIPHCLK_SAI_PLLSAI) == RCC_PERIPHCLK_SAI_PLLSAI) ||
 8004a68:	687b      	ldr	r3, [r7, #4]
 8004a6a:	681b      	ldr	r3, [r3, #0]
 8004a6c:	f003 0304 	and.w	r3, r3, #4
 8004a70:	2b00      	cmp	r3, #0
 8004a72:	d105      	bne.n	8004a80 <HAL_RCCEx_PeriphCLKConfig+0x138>
     (((PeriphClkInit->PeriphClockSelection) & RCC_PERIPHCLK_LTDC) == RCC_PERIPHCLK_LTDC))
 8004a74:	687b      	ldr	r3, [r7, #4]
 8004a76:	681b      	ldr	r3, [r3, #0]
 8004a78:	f003 0308 	and.w	r3, r3, #8
  if((((PeriphClkInit->PeriphClockSelection) & RCC_PERIPHCLK_SAI_PLLSAI) == RCC_PERIPHCLK_SAI_PLLSAI) ||
 8004a7c:	2b00      	cmp	r3, #0
 8004a7e:	d079      	beq.n	8004b74 <HAL_RCCEx_PeriphCLKConfig+0x22c>
  {
    /* Check the PLLSAI division factors */
    assert_param(IS_RCC_PLLSAIN_VALUE(PeriphClkInit->PLLSAI.PLLSAIN));

    /* Disable PLLSAI Clock */
    __HAL_RCC_PLLSAI_DISABLE();
 8004a80:	4b52      	ldr	r3, [pc, #328]	; (8004bcc <HAL_RCCEx_PeriphCLKConfig+0x284>)
 8004a82:	2200      	movs	r2, #0
 8004a84:	601a      	str	r2, [r3, #0]
    /* Get tick */
    tickstart = HAL_GetTick();
 8004a86:	f7fd fdaf 	bl	80025e8 <HAL_GetTick>
 8004a8a:	6178      	str	r0, [r7, #20]
    /* Wait till PLLSAI is disabled */
    while(__HAL_RCC_PLLSAI_GET_FLAG() != RESET)
 8004a8c:	e008      	b.n	8004aa0 <HAL_RCCEx_PeriphCLKConfig+0x158>
    {
      if((HAL_GetTick() - tickstart ) > PLLSAI_TIMEOUT_VALUE)
 8004a8e:	f7fd fdab 	bl	80025e8 <HAL_GetTick>
 8004a92:	4602      	mov	r2, r0
 8004a94:	697b      	ldr	r3, [r7, #20]
 8004a96:	1ad3      	subs	r3, r2, r3
 8004a98:	2b02      	cmp	r3, #2
 8004a9a:	d901      	bls.n	8004aa0 <HAL_RCCEx_PeriphCLKConfig+0x158>
      {
        /* return in case of Timeout detected */
        return HAL_TIMEOUT;
 8004a9c:	2303      	movs	r3, #3
 8004a9e:	e107      	b.n	8004cb0 <HAL_RCCEx_PeriphCLKConfig+0x368>
    while(__HAL_RCC_PLLSAI_GET_FLAG() != RESET)
 8004aa0:	4b49      	ldr	r3, [pc, #292]	; (8004bc8 <HAL_RCCEx_PeriphCLKConfig+0x280>)
 8004aa2:	681b      	ldr	r3, [r3, #0]
 8004aa4:	f003 5300 	and.w	r3, r3, #536870912	; 0x20000000
 8004aa8:	f1b3 5f00 	cmp.w	r3, #536870912	; 0x20000000
 8004aac:	d0ef      	beq.n	8004a8e <HAL_RCCEx_PeriphCLKConfig+0x146>
    }

    /*---------------------------- SAI configuration -------------------------*/
    /* In Case of SAI Clock Configuration through PLLSAI, PLLSAIQ and PLLSAI_DIVQ must
       be added only for SAI configuration */
    if(((PeriphClkInit->PeriphClockSelection) & RCC_PERIPHCLK_SAI_PLLSAI) == (RCC_PERIPHCLK_SAI_PLLSAI))
 8004aae:	687b      	ldr	r3, [r7, #4]
 8004ab0:	681b      	ldr	r3, [r3, #0]
 8004ab2:	f003 0304 	and.w	r3, r3, #4
 8004ab6:	2b00      	cmp	r3, #0
 8004ab8:	d020      	beq.n	8004afc <HAL_RCCEx_PeriphCLKConfig+0x1b4>
    {
      assert_param(IS_RCC_PLLSAIQ_VALUE(PeriphClkInit->PLLSAI.PLLSAIQ));
      assert_param(IS_RCC_PLLSAI_DIVQ_VALUE(PeriphClkInit->PLLSAIDivQ));

      /* Read PLLSAIR value from PLLSAICFGR register (this value is not need for SAI configuration) */
      tmpreg1 = ((RCC->PLLSAICFGR & RCC_PLLSAICFGR_PLLSAIR) >> RCC_PLLSAICFGR_PLLSAIR_Pos);
 8004aba:	4b43      	ldr	r3, [pc, #268]	; (8004bc8 <HAL_RCCEx_PeriphCLKConfig+0x280>)
 8004abc:	f8d3 3088 	ldr.w	r3, [r3, #136]	; 0x88
 8004ac0:	0f1b      	lsrs	r3, r3, #28
 8004ac2:	f003 0307 	and.w	r3, r3, #7
 8004ac6:	613b      	str	r3, [r7, #16]
      /* PLLSAI_VCO Input  = PLL_SOURCE/PLLM */
      /* PLLSAI_VCO Output = PLLSAI_VCO Input * PLLSAIN */
      /* SAI_CLK(first level) = PLLSAI_VCO Output/PLLSAIQ */
      __HAL_RCC_PLLSAI_CONFIG(PeriphClkInit->PLLSAI.PLLSAIN , PeriphClkInit->PLLSAI.PLLSAIQ, tmpreg1);
 8004ac8:	687b      	ldr	r3, [r7, #4]
 8004aca:	691b      	ldr	r3, [r3, #16]
 8004acc:	019a      	lsls	r2, r3, #6
 8004ace:	687b      	ldr	r3, [r7, #4]
 8004ad0:	695b      	ldr	r3, [r3, #20]
 8004ad2:	061b      	lsls	r3, r3, #24
 8004ad4:	431a      	orrs	r2, r3
 8004ad6:	693b      	ldr	r3, [r7, #16]
 8004ad8:	071b      	lsls	r3, r3, #28
 8004ada:	493b      	ldr	r1, [pc, #236]	; (8004bc8 <HAL_RCCEx_PeriphCLKConfig+0x280>)
 8004adc:	4313      	orrs	r3, r2
 8004ade:	f8c1 3088 	str.w	r3, [r1, #136]	; 0x88
      /* SAI_CLK_x = SAI_CLK(first level)/PLLSAIDIVQ */
      __HAL_RCC_PLLSAI_PLLSAICLKDIVQ_CONFIG(PeriphClkInit->PLLSAIDivQ);
 8004ae2:	4b39      	ldr	r3, [pc, #228]	; (8004bc8 <HAL_RCCEx_PeriphCLKConfig+0x280>)
 8004ae4:	f8d3 308c 	ldr.w	r3, [r3, #140]	; 0x8c
 8004ae8:	f423 52f8 	bic.w	r2, r3, #7936	; 0x1f00
 8004aec:	687b      	ldr	r3, [r7, #4]
 8004aee:	6a1b      	ldr	r3, [r3, #32]
 8004af0:	3b01      	subs	r3, #1
 8004af2:	021b      	lsls	r3, r3, #8
 8004af4:	4934      	ldr	r1, [pc, #208]	; (8004bc8 <HAL_RCCEx_PeriphCLKConfig+0x280>)
 8004af6:	4313      	orrs	r3, r2
 8004af8:	f8c1 308c 	str.w	r3, [r1, #140]	; 0x8c
    }

    /*---------------------------- LTDC configuration ------------------------*/
    if(((PeriphClkInit->PeriphClockSelection) & RCC_PERIPHCLK_LTDC) == (RCC_PERIPHCLK_LTDC))
 8004afc:	687b      	ldr	r3, [r7, #4]
 8004afe:	681b      	ldr	r3, [r3, #0]
 8004b00:	f003 0308 	and.w	r3, r3, #8
 8004b04:	2b00      	cmp	r3, #0
 8004b06:	d01e      	beq.n	8004b46 <HAL_RCCEx_PeriphCLKConfig+0x1fe>
    {
      assert_param(IS_RCC_PLLSAIR_VALUE(PeriphClkInit->PLLSAI.PLLSAIR));
      assert_param(IS_RCC_PLLSAI_DIVR_VALUE(PeriphClkInit->PLLSAIDivR));

      /* Read PLLSAIR value from PLLSAICFGR register (this value is not need for SAI configuration) */
      tmpreg1 = ((RCC->PLLSAICFGR & RCC_PLLSAICFGR_PLLSAIQ) >> RCC_PLLSAICFGR_PLLSAIQ_Pos);
 8004b08:	4b2f      	ldr	r3, [pc, #188]	; (8004bc8 <HAL_RCCEx_PeriphCLKConfig+0x280>)
 8004b0a:	f8d3 3088 	ldr.w	r3, [r3, #136]	; 0x88
 8004b0e:	0e1b      	lsrs	r3, r3, #24
 8004b10:	f003 030f 	and.w	r3, r3, #15
 8004b14:	613b      	str	r3, [r7, #16]
      /* PLLSAI_VCO Input  = PLL_SOURCE/PLLM */
      /* PLLSAI_VCO Output = PLLSAI_VCO Input * PLLSAIN */
      /* LTDC_CLK(first level) = PLLSAI_VCO Output/PLLSAIR */
      __HAL_RCC_PLLSAI_CONFIG(PeriphClkInit->PLLSAI.PLLSAIN , tmpreg1, PeriphClkInit->PLLSAI.PLLSAIR);
 8004b16:	687b      	ldr	r3, [r7, #4]
 8004b18:	691b      	ldr	r3, [r3, #16]
 8004b1a:	019a      	lsls	r2, r3, #6
 8004b1c:	693b      	ldr	r3, [r7, #16]
 8004b1e:	061b      	lsls	r3, r3, #24
 8004b20:	431a      	orrs	r2, r3
 8004b22:	687b      	ldr	r3, [r7, #4]
 8004b24:	699b      	ldr	r3, [r3, #24]
 8004b26:	071b      	lsls	r3, r3, #28
 8004b28:	4927      	ldr	r1, [pc, #156]	; (8004bc8 <HAL_RCCEx_PeriphCLKConfig+0x280>)
 8004b2a:	4313      	orrs	r3, r2
 8004b2c:	f8c1 3088 	str.w	r3, [r1, #136]	; 0x88
      /* LTDC_CLK = LTDC_CLK(first level)/PLLSAIDIVR */
      __HAL_RCC_PLLSAI_PLLSAICLKDIVR_CONFIG(PeriphClkInit->PLLSAIDivR);
 8004b30:	4b25      	ldr	r3, [pc, #148]	; (8004bc8 <HAL_RCCEx_PeriphCLKConfig+0x280>)
 8004b32:	f8d3 308c 	ldr.w	r3, [r3, #140]	; 0x8c
 8004b36:	f423 3240 	bic.w	r2, r3, #196608	; 0x30000
 8004b3a:	687b      	ldr	r3, [r7, #4]
 8004b3c:	6a5b      	ldr	r3, [r3, #36]	; 0x24
 8004b3e:	4922      	ldr	r1, [pc, #136]	; (8004bc8 <HAL_RCCEx_PeriphCLKConfig+0x280>)
 8004b40:	4313      	orrs	r3, r2
 8004b42:	f8c1 308c 	str.w	r3, [r1, #140]	; 0x8c
    }
    /* Enable PLLSAI Clock */
    __HAL_RCC_PLLSAI_ENABLE();
 8004b46:	4b21      	ldr	r3, [pc, #132]	; (8004bcc <HAL_RCCEx_PeriphCLKConfig+0x284>)
 8004b48:	2201      	movs	r2, #1
 8004b4a:	601a      	str	r2, [r3, #0]
    /* Get tick */
    tickstart = HAL_GetTick();
 8004b4c:	f7fd fd4c 	bl	80025e8 <HAL_GetTick>
 8004b50:	6178      	str	r0, [r7, #20]
    /* Wait till PLLSAI is ready */
    while(__HAL_RCC_PLLSAI_GET_FLAG() == RESET)
 8004b52:	e008      	b.n	8004b66 <HAL_RCCEx_PeriphCLKConfig+0x21e>
    {
      if((HAL_GetTick() - tickstart ) > PLLSAI_TIMEOUT_VALUE)
 8004b54:	f7fd fd48 	bl	80025e8 <HAL_GetTick>
 8004b58:	4602      	mov	r2, r0
 8004b5a:	697b      	ldr	r3, [r7, #20]
 8004b5c:	1ad3      	subs	r3, r2, r3
 8004b5e:	2b02      	cmp	r3, #2
 8004b60:	d901      	bls.n	8004b66 <HAL_RCCEx_PeriphCLKConfig+0x21e>
      {
        /* return in case of Timeout detected */
        return HAL_TIMEOUT;
 8004b62:	2303      	movs	r3, #3
 8004b64:	e0a4      	b.n	8004cb0 <HAL_RCCEx_PeriphCLKConfig+0x368>
    while(__HAL_RCC_PLLSAI_GET_FLAG() == RESET)
 8004b66:	4b18      	ldr	r3, [pc, #96]	; (8004bc8 <HAL_RCCEx_PeriphCLKConfig+0x280>)
 8004b68:	681b      	ldr	r3, [r3, #0]
 8004b6a:	f003 5300 	and.w	r3, r3, #536870912	; 0x20000000
 8004b6e:	f1b3 5f00 	cmp.w	r3, #536870912	; 0x20000000
 8004b72:	d1ef      	bne.n	8004b54 <HAL_RCCEx_PeriphCLKConfig+0x20c>
    }
  }
  /*--------------------------------------------------------------------------*/

  /*---------------------------- RTC configuration ---------------------------*/
  if(((PeriphClkInit->PeriphClockSelection) & RCC_PERIPHCLK_RTC) == (RCC_PERIPHCLK_RTC))
 8004b74:	687b      	ldr	r3, [r7, #4]
 8004b76:	681b      	ldr	r3, [r3, #0]
 8004b78:	f003 0320 	and.w	r3, r3, #32
 8004b7c:	2b00      	cmp	r3, #0
 8004b7e:	f000 808b 	beq.w	8004c98 <HAL_RCCEx_PeriphCLKConfig+0x350>
  {
    /* Check for RTC Parameters used to output RTCCLK */
    assert_param(IS_RCC_RTCCLKSOURCE(PeriphClkInit->RTCClockSelection));

    /* Enable Power Clock*/
    __HAL_RCC_PWR_CLK_ENABLE();
 8004b82:	2300      	movs	r3, #0
 8004b84:	60fb      	str	r3, [r7, #12]
 8004b86:	4b10      	ldr	r3, [pc, #64]	; (8004bc8 <HAL_RCCEx_PeriphCLKConfig+0x280>)
 8004b88:	6c1b      	ldr	r3, [r3, #64]	; 0x40
 8004b8a:	4a0f      	ldr	r2, [pc, #60]	; (8004bc8 <HAL_RCCEx_PeriphCLKConfig+0x280>)
 8004b8c:	f043 5380 	orr.w	r3, r3, #268435456	; 0x10000000
 8004b90:	6413      	str	r3, [r2, #64]	; 0x40
 8004b92:	4b0d      	ldr	r3, [pc, #52]	; (8004bc8 <HAL_RCCEx_PeriphCLKConfig+0x280>)
 8004b94:	6c1b      	ldr	r3, [r3, #64]	; 0x40
 8004b96:	f003 5380 	and.w	r3, r3, #268435456	; 0x10000000
 8004b9a:	60fb      	str	r3, [r7, #12]
 8004b9c:	68fb      	ldr	r3, [r7, #12]

    /* Enable write access to Backup domain */
    PWR->CR |= PWR_CR_DBP;
 8004b9e:	4b0c      	ldr	r3, [pc, #48]	; (8004bd0 <HAL_RCCEx_PeriphCLKConfig+0x288>)
 8004ba0:	681b      	ldr	r3, [r3, #0]
 8004ba2:	4a0b      	ldr	r2, [pc, #44]	; (8004bd0 <HAL_RCCEx_PeriphCLKConfig+0x288>)
 8004ba4:	f443 7380 	orr.w	r3, r3, #256	; 0x100
 8004ba8:	6013      	str	r3, [r2, #0]

    /* Get tick */
    tickstart = HAL_GetTick();
 8004baa:	f7fd fd1d 	bl	80025e8 <HAL_GetTick>
 8004bae:	6178      	str	r0, [r7, #20]

    while((PWR->CR & PWR_CR_DBP) == RESET)
 8004bb0:	e010      	b.n	8004bd4 <HAL_RCCEx_PeriphCLKConfig+0x28c>
    {
      if((HAL_GetTick() - tickstart ) > RCC_DBP_TIMEOUT_VALUE)
 8004bb2:	f7fd fd19 	bl	80025e8 <HAL_GetTick>
 8004bb6:	4602      	mov	r2, r0
 8004bb8:	697b      	ldr	r3, [r7, #20]
 8004bba:	1ad3      	subs	r3, r2, r3
 8004bbc:	2b02      	cmp	r3, #2
 8004bbe:	d909      	bls.n	8004bd4 <HAL_RCCEx_PeriphCLKConfig+0x28c>
      {
        return HAL_TIMEOUT;
 8004bc0:	2303      	movs	r3, #3
 8004bc2:	e075      	b.n	8004cb0 <HAL_RCCEx_PeriphCLKConfig+0x368>
 8004bc4:	42470068 	.word	0x42470068
 8004bc8:	40023800 	.word	0x40023800
 8004bcc:	42470070 	.word	0x42470070
 8004bd0:	40007000 	.word	0x40007000
    while((PWR->CR & PWR_CR_DBP) == RESET)
 8004bd4:	4b38      	ldr	r3, [pc, #224]	; (8004cb8 <HAL_RCCEx_PeriphCLKConfig+0x370>)
 8004bd6:	681b      	ldr	r3, [r3, #0]
 8004bd8:	f403 7380 	and.w	r3, r3, #256	; 0x100
 8004bdc:	2b00      	cmp	r3, #0
 8004bde:	d0e8      	beq.n	8004bb2 <HAL_RCCEx_PeriphCLKConfig+0x26a>
      }
    }
    /* Reset the Backup domain only if the RTC Clock source selection is modified from reset value */
    tmpreg1 = (RCC->BDCR & RCC_BDCR_RTCSEL);
 8004be0:	4b36      	ldr	r3, [pc, #216]	; (8004cbc <HAL_RCCEx_PeriphCLKConfig+0x374>)
 8004be2:	6f1b      	ldr	r3, [r3, #112]	; 0x70
 8004be4:	f403 7340 	and.w	r3, r3, #768	; 0x300
 8004be8:	613b      	str	r3, [r7, #16]
    if((tmpreg1 != 0x00000000U) && ((tmpreg1) != (PeriphClkInit->RTCClockSelection & RCC_BDCR_RTCSEL)))
 8004bea:	693b      	ldr	r3, [r7, #16]
 8004bec:	2b00      	cmp	r3, #0
 8004bee:	d02f      	beq.n	8004c50 <HAL_RCCEx_PeriphCLKConfig+0x308>
 8004bf0:	687b      	ldr	r3, [r7, #4]
 8004bf2:	6a9b      	ldr	r3, [r3, #40]	; 0x28
 8004bf4:	f403 7340 	and.w	r3, r3, #768	; 0x300
 8004bf8:	693a      	ldr	r2, [r7, #16]
 8004bfa:	429a      	cmp	r2, r3
 8004bfc:	d028      	beq.n	8004c50 <HAL_RCCEx_PeriphCLKConfig+0x308>
    {
      /* Store the content of BDCR register before the reset of Backup Domain */
      tmpreg1 = (RCC->BDCR & ~(RCC_BDCR_RTCSEL));
 8004bfe:	4b2f      	ldr	r3, [pc, #188]	; (8004cbc <HAL_RCCEx_PeriphCLKConfig+0x374>)
 8004c00:	6f1b      	ldr	r3, [r3, #112]	; 0x70
 8004c02:	f423 7340 	bic.w	r3, r3, #768	; 0x300
 8004c06:	613b      	str	r3, [r7, #16]
      /* RTC Clock selection can be changed only if the Backup Domain is reset */
      __HAL_RCC_BACKUPRESET_FORCE();
 8004c08:	4b2d      	ldr	r3, [pc, #180]	; (8004cc0 <HAL_RCCEx_PeriphCLKConfig+0x378>)
 8004c0a:	2201      	movs	r2, #1
 8004c0c:	601a      	str	r2, [r3, #0]
      __HAL_RCC_BACKUPRESET_RELEASE();
 8004c0e:	4b2c      	ldr	r3, [pc, #176]	; (8004cc0 <HAL_RCCEx_PeriphCLKConfig+0x378>)
 8004c10:	2200      	movs	r2, #0
 8004c12:	601a      	str	r2, [r3, #0]
      /* Restore the Content of BDCR register */
      RCC->BDCR = tmpreg1;
 8004c14:	4a29      	ldr	r2, [pc, #164]	; (8004cbc <HAL_RCCEx_PeriphCLKConfig+0x374>)
 8004c16:	693b      	ldr	r3, [r7, #16]
 8004c18:	6713      	str	r3, [r2, #112]	; 0x70

      /* Wait for LSE reactivation if LSE was enable prior to Backup Domain reset */
      if(HAL_IS_BIT_SET(RCC->BDCR, RCC_BDCR_LSEON))
 8004c1a:	4b28      	ldr	r3, [pc, #160]	; (8004cbc <HAL_RCCEx_PeriphCLKConfig+0x374>)
 8004c1c:	6f1b      	ldr	r3, [r3, #112]	; 0x70
 8004c1e:	f003 0301 	and.w	r3, r3, #1
 8004c22:	2b01      	cmp	r3, #1
 8004c24:	d114      	bne.n	8004c50 <HAL_RCCEx_PeriphCLKConfig+0x308>
      {
        /* Get tick */
        tickstart = HAL_GetTick();
 8004c26:	f7fd fcdf 	bl	80025e8 <HAL_GetTick>
 8004c2a:	6178      	str	r0, [r7, #20]

        /* Wait till LSE is ready */
        while(__HAL_RCC_GET_FLAG(RCC_FLAG_LSERDY) == RESET)
 8004c2c:	e00a      	b.n	8004c44 <HAL_RCCEx_PeriphCLKConfig+0x2fc>
        {
          if((HAL_GetTick() - tickstart ) > RCC_LSE_TIMEOUT_VALUE)
 8004c2e:	f7fd fcdb 	bl	80025e8 <HAL_GetTick>
 8004c32:	4602      	mov	r2, r0
 8004c34:	697b      	ldr	r3, [r7, #20]
 8004c36:	1ad3      	subs	r3, r2, r3
 8004c38:	f241 3288 	movw	r2, #5000	; 0x1388
 8004c3c:	4293      	cmp	r3, r2
 8004c3e:	d901      	bls.n	8004c44 <HAL_RCCEx_PeriphCLKConfig+0x2fc>
          {
            return HAL_TIMEOUT;
 8004c40:	2303      	movs	r3, #3
 8004c42:	e035      	b.n	8004cb0 <HAL_RCCEx_PeriphCLKConfig+0x368>
        while(__HAL_RCC_GET_FLAG(RCC_FLAG_LSERDY) == RESET)
 8004c44:	4b1d      	ldr	r3, [pc, #116]	; (8004cbc <HAL_RCCEx_PeriphCLKConfig+0x374>)
 8004c46:	6f1b      	ldr	r3, [r3, #112]	; 0x70
 8004c48:	f003 0302 	and.w	r3, r3, #2
 8004c4c:	2b00      	cmp	r3, #0
 8004c4e:	d0ee      	beq.n	8004c2e <HAL_RCCEx_PeriphCLKConfig+0x2e6>
          }
        }
      }
    }
    __HAL_RCC_RTC_CONFIG(PeriphClkInit->RTCClockSelection);
 8004c50:	687b      	ldr	r3, [r7, #4]
 8004c52:	6a9b      	ldr	r3, [r3, #40]	; 0x28
 8004c54:	f403 7340 	and.w	r3, r3, #768	; 0x300
 8004c58:	f5b3 7f40 	cmp.w	r3, #768	; 0x300
 8004c5c:	d10d      	bne.n	8004c7a <HAL_RCCEx_PeriphCLKConfig+0x332>
 8004c5e:	4b17      	ldr	r3, [pc, #92]	; (8004cbc <HAL_RCCEx_PeriphCLKConfig+0x374>)
 8004c60:	689b      	ldr	r3, [r3, #8]
 8004c62:	f423 12f8 	bic.w	r2, r3, #2031616	; 0x1f0000
 8004c66:	687b      	ldr	r3, [r7, #4]
 8004c68:	6a9b      	ldr	r3, [r3, #40]	; 0x28
 8004c6a:	f023 4370 	bic.w	r3, r3, #4026531840	; 0xf0000000
 8004c6e:	f423 7340 	bic.w	r3, r3, #768	; 0x300
 8004c72:	4912      	ldr	r1, [pc, #72]	; (8004cbc <HAL_RCCEx_PeriphCLKConfig+0x374>)
 8004c74:	4313      	orrs	r3, r2
 8004c76:	608b      	str	r3, [r1, #8]
 8004c78:	e005      	b.n	8004c86 <HAL_RCCEx_PeriphCLKConfig+0x33e>
 8004c7a:	4b10      	ldr	r3, [pc, #64]	; (8004cbc <HAL_RCCEx_PeriphCLKConfig+0x374>)
 8004c7c:	689b      	ldr	r3, [r3, #8]
 8004c7e:	4a0f      	ldr	r2, [pc, #60]	; (8004cbc <HAL_RCCEx_PeriphCLKConfig+0x374>)
 8004c80:	f423 13f8 	bic.w	r3, r3, #2031616	; 0x1f0000
 8004c84:	6093      	str	r3, [r2, #8]
 8004c86:	4b0d      	ldr	r3, [pc, #52]	; (8004cbc <HAL_RCCEx_PeriphCLKConfig+0x374>)
 8004c88:	6f1a      	ldr	r2, [r3, #112]	; 0x70
 8004c8a:	687b      	ldr	r3, [r7, #4]
 8004c8c:	6a9b      	ldr	r3, [r3, #40]	; 0x28
 8004c8e:	f3c3 030b 	ubfx	r3, r3, #0, #12
 8004c92:	490a      	ldr	r1, [pc, #40]	; (8004cbc <HAL_RCCEx_PeriphCLKConfig+0x374>)
 8004c94:	4313      	orrs	r3, r2
 8004c96:	670b      	str	r3, [r1, #112]	; 0x70
  }
  /*--------------------------------------------------------------------------*/

  /*---------------------------- TIM configuration ---------------------------*/
  if(((PeriphClkInit->PeriphClockSelection) & RCC_PERIPHCLK_TIM) == (RCC_PERIPHCLK_TIM))
 8004c98:	687b      	ldr	r3, [r7, #4]
 8004c9a:	681b      	ldr	r3, [r3, #0]
 8004c9c:	f003 0310 	and.w	r3, r3, #16
 8004ca0:	2b00      	cmp	r3, #0
 8004ca2:	d004      	beq.n	8004cae <HAL_RCCEx_PeriphCLKConfig+0x366>
  {
    __HAL_RCC_TIMCLKPRESCALER(PeriphClkInit->TIMPresSelection);
 8004ca4:	687b      	ldr	r3, [r7, #4]
 8004ca6:	f893 202c 	ldrb.w	r2, [r3, #44]	; 0x2c
 8004caa:	4b06      	ldr	r3, [pc, #24]	; (8004cc4 <HAL_RCCEx_PeriphCLKConfig+0x37c>)
 8004cac:	601a      	str	r2, [r3, #0]
  }
  return HAL_OK;
 8004cae:	2300      	movs	r3, #0
}
 8004cb0:	4618      	mov	r0, r3
 8004cb2:	3718      	adds	r7, #24
 8004cb4:	46bd      	mov	sp, r7
 8004cb6:	bd80      	pop	{r7, pc}
 8004cb8:	40007000 	.word	0x40007000
 8004cbc:	40023800 	.word	0x40023800
 8004cc0:	42470e40 	.word	0x42470e40
 8004cc4:	424711e0 	.word	0x424711e0

08004cc8 <HAL_RTC_Init>:
  * @param  hrtc pointer to a RTC_HandleTypeDef structure that contains
  *                the configuration information for RTC.
  * @retval HAL status
  */
HAL_StatusTypeDef HAL_RTC_Init(RTC_HandleTypeDef *hrtc)
{
 8004cc8:	b580      	push	{r7, lr}
 8004cca:	b084      	sub	sp, #16
 8004ccc:	af00      	add	r7, sp, #0
 8004cce:	6078      	str	r0, [r7, #4]
  HAL_StatusTypeDef status = HAL_ERROR;
 8004cd0:	2301      	movs	r3, #1
 8004cd2:	73fb      	strb	r3, [r7, #15]

  /* Check RTC handler validity */
  if (hrtc == NULL)
 8004cd4:	687b      	ldr	r3, [r7, #4]
 8004cd6:	2b00      	cmp	r3, #0
 8004cd8:	d101      	bne.n	8004cde <HAL_RTC_Init+0x16>
  {
    return HAL_ERROR;
 8004cda:	2301      	movs	r3, #1
 8004cdc:	e073      	b.n	8004dc6 <HAL_RTC_Init+0xfe>
    {
      hrtc->MspDeInitCallback = HAL_RTC_MspDeInit;
    }
  }
#else /* USE_HAL_RTC_REGISTER_CALLBACKS */
  if (hrtc->State == HAL_RTC_STATE_RESET)
 8004cde:	687b      	ldr	r3, [r7, #4]
 8004ce0:	7f5b      	ldrb	r3, [r3, #29]
 8004ce2:	b2db      	uxtb	r3, r3
 8004ce4:	2b00      	cmp	r3, #0
 8004ce6:	d105      	bne.n	8004cf4 <HAL_RTC_Init+0x2c>
  {
    /* Allocate lock resource and initialize it */
    hrtc->Lock = HAL_UNLOCKED;
 8004ce8:	687b      	ldr	r3, [r7, #4]
 8004cea:	2200      	movs	r2, #0
 8004cec:	771a      	strb	r2, [r3, #28]

    /* Initialize RTC MSP */
    HAL_RTC_MspInit(hrtc);
 8004cee:	6878      	ldr	r0, [r7, #4]
 8004cf0:	f7fd fa00 	bl	80020f4 <HAL_RTC_MspInit>
  }
#endif /* USE_HAL_RTC_REGISTER_CALLBACKS */

  /* Set RTC state */
  hrtc->State = HAL_RTC_STATE_BUSY;
 8004cf4:	687b      	ldr	r3, [r7, #4]
 8004cf6:	2202      	movs	r2, #2
 8004cf8:	775a      	strb	r2, [r3, #29]

  /* Check whether the calendar needs to be initialized */
  if (__HAL_RTC_IS_CALENDAR_INITIALIZED(hrtc) == 0U)
 8004cfa:	687b      	ldr	r3, [r7, #4]
 8004cfc:	681b      	ldr	r3, [r3, #0]
 8004cfe:	68db      	ldr	r3, [r3, #12]
 8004d00:	f003 0310 	and.w	r3, r3, #16
 8004d04:	2b10      	cmp	r3, #16
 8004d06:	d055      	beq.n	8004db4 <HAL_RTC_Init+0xec>
  {
    /* Disable the write protection for RTC registers */
    __HAL_RTC_WRITEPROTECTION_DISABLE(hrtc);
 8004d08:	687b      	ldr	r3, [r7, #4]
 8004d0a:	681b      	ldr	r3, [r3, #0]
 8004d0c:	22ca      	movs	r2, #202	; 0xca
 8004d0e:	625a      	str	r2, [r3, #36]	; 0x24
 8004d10:	687b      	ldr	r3, [r7, #4]
 8004d12:	681b      	ldr	r3, [r3, #0]
 8004d14:	2253      	movs	r2, #83	; 0x53
 8004d16:	625a      	str	r2, [r3, #36]	; 0x24

    /* Enter Initialization mode */
    status = RTC_EnterInitMode(hrtc);
 8004d18:	6878      	ldr	r0, [r7, #4]
 8004d1a:	f000 fa49 	bl	80051b0 <RTC_EnterInitMode>
 8004d1e:	4603      	mov	r3, r0
 8004d20:	73fb      	strb	r3, [r7, #15]

    if (status == HAL_OK)
 8004d22:	7bfb      	ldrb	r3, [r7, #15]
 8004d24:	2b00      	cmp	r3, #0
 8004d26:	d12c      	bne.n	8004d82 <HAL_RTC_Init+0xba>
    {
      /* Clear RTC_CR FMT, OSEL and POL Bits */
      hrtc->Instance->CR &= ((uint32_t)~(RTC_CR_FMT | RTC_CR_OSEL | RTC_CR_POL));
 8004d28:	687b      	ldr	r3, [r7, #4]
 8004d2a:	681b      	ldr	r3, [r3, #0]
 8004d2c:	689b      	ldr	r3, [r3, #8]
 8004d2e:	687a      	ldr	r2, [r7, #4]
 8004d30:	6812      	ldr	r2, [r2, #0]
 8004d32:	f423 03e0 	bic.w	r3, r3, #7340032	; 0x700000
 8004d36:	f023 0340 	bic.w	r3, r3, #64	; 0x40
 8004d3a:	6093      	str	r3, [r2, #8]
      /* Set RTC_CR register */
      hrtc->Instance->CR |= (uint32_t)(hrtc->Init.HourFormat | hrtc->Init.OutPut | hrtc->Init.OutPutPolarity);
 8004d3c:	687b      	ldr	r3, [r7, #4]
 8004d3e:	681b      	ldr	r3, [r3, #0]
 8004d40:	6899      	ldr	r1, [r3, #8]
 8004d42:	687b      	ldr	r3, [r7, #4]
 8004d44:	685a      	ldr	r2, [r3, #4]
 8004d46:	687b      	ldr	r3, [r7, #4]
 8004d48:	691b      	ldr	r3, [r3, #16]
 8004d4a:	431a      	orrs	r2, r3
 8004d4c:	687b      	ldr	r3, [r7, #4]
 8004d4e:	695b      	ldr	r3, [r3, #20]
 8004d50:	431a      	orrs	r2, r3
 8004d52:	687b      	ldr	r3, [r7, #4]
 8004d54:	681b      	ldr	r3, [r3, #0]
 8004d56:	430a      	orrs	r2, r1
 8004d58:	609a      	str	r2, [r3, #8]

      /* Configure the RTC PRER */
      hrtc->Instance->PRER = (uint32_t)(hrtc->Init.SynchPrediv);
 8004d5a:	687b      	ldr	r3, [r7, #4]
 8004d5c:	681b      	ldr	r3, [r3, #0]
 8004d5e:	687a      	ldr	r2, [r7, #4]
 8004d60:	68d2      	ldr	r2, [r2, #12]
 8004d62:	611a      	str	r2, [r3, #16]
      hrtc->Instance->PRER |= (uint32_t)(hrtc->Init.AsynchPrediv << RTC_PRER_PREDIV_A_Pos);
 8004d64:	687b      	ldr	r3, [r7, #4]
 8004d66:	681b      	ldr	r3, [r3, #0]
 8004d68:	6919      	ldr	r1, [r3, #16]
 8004d6a:	687b      	ldr	r3, [r7, #4]
 8004d6c:	689b      	ldr	r3, [r3, #8]
 8004d6e:	041a      	lsls	r2, r3, #16
 8004d70:	687b      	ldr	r3, [r7, #4]
 8004d72:	681b      	ldr	r3, [r3, #0]
 8004d74:	430a      	orrs	r2, r1
 8004d76:	611a      	str	r2, [r3, #16]

      /* Exit Initialization mode */
      status = RTC_ExitInitMode(hrtc);
 8004d78:	6878      	ldr	r0, [r7, #4]
 8004d7a:	f000 fa50 	bl	800521e <RTC_ExitInitMode>
 8004d7e:	4603      	mov	r3, r0
 8004d80:	73fb      	strb	r3, [r7, #15]
    }

    if (status == HAL_OK)
 8004d82:	7bfb      	ldrb	r3, [r7, #15]
 8004d84:	2b00      	cmp	r3, #0
 8004d86:	d110      	bne.n	8004daa <HAL_RTC_Init+0xe2>
    {
      hrtc->Instance->TAFCR &= (uint32_t)~RTC_OUTPUT_TYPE_PUSHPULL;
 8004d88:	687b      	ldr	r3, [r7, #4]
 8004d8a:	681b      	ldr	r3, [r3, #0]
 8004d8c:	6c1a      	ldr	r2, [r3, #64]	; 0x40
 8004d8e:	687b      	ldr	r3, [r7, #4]
 8004d90:	681b      	ldr	r3, [r3, #0]
 8004d92:	f422 2280 	bic.w	r2, r2, #262144	; 0x40000
 8004d96:	641a      	str	r2, [r3, #64]	; 0x40
      hrtc->Instance->TAFCR |= (uint32_t)(hrtc->Init.OutPutType);
 8004d98:	687b      	ldr	r3, [r7, #4]
 8004d9a:	681b      	ldr	r3, [r3, #0]
 8004d9c:	6c19      	ldr	r1, [r3, #64]	; 0x40
 8004d9e:	687b      	ldr	r3, [r7, #4]
 8004da0:	699a      	ldr	r2, [r3, #24]
 8004da2:	687b      	ldr	r3, [r7, #4]
 8004da4:	681b      	ldr	r3, [r3, #0]
 8004da6:	430a      	orrs	r2, r1
 8004da8:	641a      	str	r2, [r3, #64]	; 0x40
    }

    /* Enable the write protection for RTC registers */
    __HAL_RTC_WRITEPROTECTION_ENABLE(hrtc);
 8004daa:	687b      	ldr	r3, [r7, #4]
 8004dac:	681b      	ldr	r3, [r3, #0]
 8004dae:	22ff      	movs	r2, #255	; 0xff
 8004db0:	625a      	str	r2, [r3, #36]	; 0x24
 8004db2:	e001      	b.n	8004db8 <HAL_RTC_Init+0xf0>
  }
  else
  {
    /* The calendar is already initialized */
    status = HAL_OK;
 8004db4:	2300      	movs	r3, #0
 8004db6:	73fb      	strb	r3, [r7, #15]
  }

  if (status == HAL_OK)
 8004db8:	7bfb      	ldrb	r3, [r7, #15]
 8004dba:	2b00      	cmp	r3, #0
 8004dbc:	d102      	bne.n	8004dc4 <HAL_RTC_Init+0xfc>
  {
    hrtc->State = HAL_RTC_STATE_READY;
 8004dbe:	687b      	ldr	r3, [r7, #4]
 8004dc0:	2201      	movs	r2, #1
 8004dc2:	775a      	strb	r2, [r3, #29]
  }

  return status;
 8004dc4:	7bfb      	ldrb	r3, [r7, #15]
}
 8004dc6:	4618      	mov	r0, r3
 8004dc8:	3710      	adds	r7, #16
 8004dca:	46bd      	mov	sp, r7
 8004dcc:	bd80      	pop	{r7, pc}

08004dce <HAL_RTC_SetTime>:
  *            @arg RTC_FORMAT_BIN: Binary data format
  *            @arg RTC_FORMAT_BCD: BCD data format
  * @retval HAL status
  */
HAL_StatusTypeDef HAL_RTC_SetTime(RTC_HandleTypeDef *hrtc, RTC_TimeTypeDef *sTime, uint32_t Format)
{
 8004dce:	b590      	push	{r4, r7, lr}
 8004dd0:	b087      	sub	sp, #28
 8004dd2:	af00      	add	r7, sp, #0
 8004dd4:	60f8      	str	r0, [r7, #12]
 8004dd6:	60b9      	str	r1, [r7, #8]
 8004dd8:	607a      	str	r2, [r7, #4]
  uint32_t tmpreg = 0U;
 8004dda:	2300      	movs	r3, #0
 8004ddc:	617b      	str	r3, [r7, #20]
  assert_param(IS_RTC_FORMAT(Format));
  assert_param(IS_RTC_DAYLIGHT_SAVING(sTime->DayLightSaving));
  assert_param(IS_RTC_STORE_OPERATION(sTime->StoreOperation));

  /* Process Locked */
  __HAL_LOCK(hrtc);
 8004dde:	68fb      	ldr	r3, [r7, #12]
 8004de0:	7f1b      	ldrb	r3, [r3, #28]
 8004de2:	2b01      	cmp	r3, #1
 8004de4:	d101      	bne.n	8004dea <HAL_RTC_SetTime+0x1c>
 8004de6:	2302      	movs	r3, #2
 8004de8:	e087      	b.n	8004efa <HAL_RTC_SetTime+0x12c>
 8004dea:	68fb      	ldr	r3, [r7, #12]
 8004dec:	2201      	movs	r2, #1
 8004dee:	771a      	strb	r2, [r3, #28]

  hrtc->State = HAL_RTC_STATE_BUSY;
 8004df0:	68fb      	ldr	r3, [r7, #12]
 8004df2:	2202      	movs	r2, #2
 8004df4:	775a      	strb	r2, [r3, #29]

  if (Format == RTC_FORMAT_BIN)
 8004df6:	687b      	ldr	r3, [r7, #4]
 8004df8:	2b00      	cmp	r3, #0
 8004dfa:	d126      	bne.n	8004e4a <HAL_RTC_SetTime+0x7c>
  {
    if ((hrtc->Instance->CR & RTC_CR_FMT) != 0U)
 8004dfc:	68fb      	ldr	r3, [r7, #12]
 8004dfe:	681b      	ldr	r3, [r3, #0]
 8004e00:	689b      	ldr	r3, [r3, #8]
 8004e02:	f003 0340 	and.w	r3, r3, #64	; 0x40
 8004e06:	2b00      	cmp	r3, #0
 8004e08:	d102      	bne.n	8004e10 <HAL_RTC_SetTime+0x42>
      assert_param(IS_RTC_HOUR12(sTime->Hours));
      assert_param(IS_RTC_HOURFORMAT12(sTime->TimeFormat));
    }
    else
    {
      sTime->TimeFormat = 0x00U;
 8004e0a:	68bb      	ldr	r3, [r7, #8]
 8004e0c:	2200      	movs	r2, #0
 8004e0e:	70da      	strb	r2, [r3, #3]
      assert_param(IS_RTC_HOUR24(sTime->Hours));
    }
    assert_param(IS_RTC_MINUTES(sTime->Minutes));
    assert_param(IS_RTC_SECONDS(sTime->Seconds));

    tmpreg = (uint32_t)(( (uint32_t)RTC_ByteToBcd2(sTime->Hours)   << RTC_TR_HU_Pos)  | \
 8004e10:	68bb      	ldr	r3, [r7, #8]
 8004e12:	781b      	ldrb	r3, [r3, #0]
 8004e14:	4618      	mov	r0, r3
 8004e16:	f000 fa27 	bl	8005268 <RTC_ByteToBcd2>
 8004e1a:	4603      	mov	r3, r0
 8004e1c:	041c      	lsls	r4, r3, #16
                        ( (uint32_t)RTC_ByteToBcd2(sTime->Minutes) << RTC_TR_MNU_Pos) | \
 8004e1e:	68bb      	ldr	r3, [r7, #8]
 8004e20:	785b      	ldrb	r3, [r3, #1]
 8004e22:	4618      	mov	r0, r3
 8004e24:	f000 fa20 	bl	8005268 <RTC_ByteToBcd2>
 8004e28:	4603      	mov	r3, r0
 8004e2a:	021b      	lsls	r3, r3, #8
    tmpreg = (uint32_t)(( (uint32_t)RTC_ByteToBcd2(sTime->Hours)   << RTC_TR_HU_Pos)  | \
 8004e2c:	431c      	orrs	r4, r3
                        ( (uint32_t)RTC_ByteToBcd2(sTime->Seconds))                   | \
 8004e2e:	68bb      	ldr	r3, [r7, #8]
 8004e30:	789b      	ldrb	r3, [r3, #2]
 8004e32:	4618      	mov	r0, r3
 8004e34:	f000 fa18 	bl	8005268 <RTC_ByteToBcd2>
 8004e38:	4603      	mov	r3, r0
                        ( (uint32_t)RTC_ByteToBcd2(sTime->Minutes) << RTC_TR_MNU_Pos) | \
 8004e3a:	ea44 0203 	orr.w	r2, r4, r3
                        (((uint32_t)sTime->TimeFormat)             << RTC_TR_PM_Pos));
 8004e3e:	68bb      	ldr	r3, [r7, #8]
 8004e40:	78db      	ldrb	r3, [r3, #3]
 8004e42:	059b      	lsls	r3, r3, #22
    tmpreg = (uint32_t)(( (uint32_t)RTC_ByteToBcd2(sTime->Hours)   << RTC_TR_HU_Pos)  | \
 8004e44:	4313      	orrs	r3, r2
 8004e46:	617b      	str	r3, [r7, #20]
 8004e48:	e018      	b.n	8004e7c <HAL_RTC_SetTime+0xae>
  }
  else
  {
    if ((hrtc->Instance->CR & RTC_CR_FMT) != 0U)
 8004e4a:	68fb      	ldr	r3, [r7, #12]
 8004e4c:	681b      	ldr	r3, [r3, #0]
 8004e4e:	689b      	ldr	r3, [r3, #8]
 8004e50:	f003 0340 	and.w	r3, r3, #64	; 0x40
 8004e54:	2b00      	cmp	r3, #0
 8004e56:	d102      	bne.n	8004e5e <HAL_RTC_SetTime+0x90>
      assert_param(IS_RTC_HOUR12(RTC_Bcd2ToByte(sTime->Hours)));
      assert_param(IS_RTC_HOURFORMAT12(sTime->TimeFormat));
    }
    else
    {
      sTime->TimeFormat = 0x00U;
 8004e58:	68bb      	ldr	r3, [r7, #8]
 8004e5a:	2200      	movs	r2, #0
 8004e5c:	70da      	strb	r2, [r3, #3]
      assert_param(IS_RTC_HOUR24(RTC_Bcd2ToByte(sTime->Hours)));
    }
    assert_param(IS_RTC_MINUTES(RTC_Bcd2ToByte(sTime->Minutes)));
    assert_param(IS_RTC_SECONDS(RTC_Bcd2ToByte(sTime->Seconds)));
    tmpreg = (((uint32_t)(sTime->Hours)      << RTC_TR_HU_Pos)  | \
 8004e5e:	68bb      	ldr	r3, [r7, #8]
 8004e60:	781b      	ldrb	r3, [r3, #0]
 8004e62:	041a      	lsls	r2, r3, #16
              ((uint32_t)(sTime->Minutes)    << RTC_TR_MNU_Pos) | \
 8004e64:	68bb      	ldr	r3, [r7, #8]
 8004e66:	785b      	ldrb	r3, [r3, #1]
 8004e68:	021b      	lsls	r3, r3, #8
    tmpreg = (((uint32_t)(sTime->Hours)      << RTC_TR_HU_Pos)  | \
 8004e6a:	4313      	orrs	r3, r2
              ((uint32_t) sTime->Seconds)                       | \
 8004e6c:	68ba      	ldr	r2, [r7, #8]
 8004e6e:	7892      	ldrb	r2, [r2, #2]
              ((uint32_t)(sTime->Minutes)    << RTC_TR_MNU_Pos) | \
 8004e70:	431a      	orrs	r2, r3
              ((uint32_t)(sTime->TimeFormat) << RTC_TR_PM_Pos));
 8004e72:	68bb      	ldr	r3, [r7, #8]
 8004e74:	78db      	ldrb	r3, [r3, #3]
 8004e76:	059b      	lsls	r3, r3, #22
    tmpreg = (((uint32_t)(sTime->Hours)      << RTC_TR_HU_Pos)  | \
 8004e78:	4313      	orrs	r3, r2
 8004e7a:	617b      	str	r3, [r7, #20]
  }

  /* Disable the write protection for RTC registers */
  __HAL_RTC_WRITEPROTECTION_DISABLE(hrtc);
 8004e7c:	68fb      	ldr	r3, [r7, #12]
 8004e7e:	681b      	ldr	r3, [r3, #0]
 8004e80:	22ca      	movs	r2, #202	; 0xca
 8004e82:	625a      	str	r2, [r3, #36]	; 0x24
 8004e84:	68fb      	ldr	r3, [r7, #12]
 8004e86:	681b      	ldr	r3, [r3, #0]
 8004e88:	2253      	movs	r2, #83	; 0x53
 8004e8a:	625a      	str	r2, [r3, #36]	; 0x24

  /* Enter Initialization mode */
  status = RTC_EnterInitMode(hrtc);
 8004e8c:	68f8      	ldr	r0, [r7, #12]
 8004e8e:	f000 f98f 	bl	80051b0 <RTC_EnterInitMode>
 8004e92:	4603      	mov	r3, r0
 8004e94:	74fb      	strb	r3, [r7, #19]

  if (status == HAL_OK)
 8004e96:	7cfb      	ldrb	r3, [r7, #19]
 8004e98:	2b00      	cmp	r3, #0
 8004e9a:	d120      	bne.n	8004ede <HAL_RTC_SetTime+0x110>
  {
    /* Set the RTC_TR register */
    hrtc->Instance->TR = (uint32_t)(tmpreg & RTC_TR_RESERVED_MASK);
 8004e9c:	68fb      	ldr	r3, [r7, #12]
 8004e9e:	681a      	ldr	r2, [r3, #0]
 8004ea0:	697b      	ldr	r3, [r7, #20]
 8004ea2:	f003 337f 	and.w	r3, r3, #2139062143	; 0x7f7f7f7f
 8004ea6:	f023 43fe 	bic.w	r3, r3, #2130706432	; 0x7f000000
 8004eaa:	6013      	str	r3, [r2, #0]

    /* Clear the bits to be configured (Deprecated. Use HAL_RTC_DST_xxx functions instead) */
    hrtc->Instance->CR &= (uint32_t)~RTC_CR_BKP;
 8004eac:	68fb      	ldr	r3, [r7, #12]
 8004eae:	681b      	ldr	r3, [r3, #0]
 8004eb0:	689a      	ldr	r2, [r3, #8]
 8004eb2:	68fb      	ldr	r3, [r7, #12]
 8004eb4:	681b      	ldr	r3, [r3, #0]
 8004eb6:	f422 2280 	bic.w	r2, r2, #262144	; 0x40000
 8004eba:	609a      	str	r2, [r3, #8]

    /* Configure the RTC_CR register (Deprecated. Use HAL_RTC_DST_xxx functions instead) */
    hrtc->Instance->CR |= (uint32_t)(sTime->DayLightSaving | sTime->StoreOperation);
 8004ebc:	68fb      	ldr	r3, [r7, #12]
 8004ebe:	681b      	ldr	r3, [r3, #0]
 8004ec0:	6899      	ldr	r1, [r3, #8]
 8004ec2:	68bb      	ldr	r3, [r7, #8]
 8004ec4:	68da      	ldr	r2, [r3, #12]
 8004ec6:	68bb      	ldr	r3, [r7, #8]
 8004ec8:	691b      	ldr	r3, [r3, #16]
 8004eca:	431a      	orrs	r2, r3
 8004ecc:	68fb      	ldr	r3, [r7, #12]
 8004ece:	681b      	ldr	r3, [r3, #0]
 8004ed0:	430a      	orrs	r2, r1
 8004ed2:	609a      	str	r2, [r3, #8]

    /* Exit Initialization mode */
    status = RTC_ExitInitMode(hrtc);
 8004ed4:	68f8      	ldr	r0, [r7, #12]
 8004ed6:	f000 f9a2 	bl	800521e <RTC_ExitInitMode>
 8004eda:	4603      	mov	r3, r0
 8004edc:	74fb      	strb	r3, [r7, #19]
  }

  if (status == HAL_OK)
 8004ede:	7cfb      	ldrb	r3, [r7, #19]
 8004ee0:	2b00      	cmp	r3, #0
 8004ee2:	d102      	bne.n	8004eea <HAL_RTC_SetTime+0x11c>
  {
    hrtc->State = HAL_RTC_STATE_READY;
 8004ee4:	68fb      	ldr	r3, [r7, #12]
 8004ee6:	2201      	movs	r2, #1
 8004ee8:	775a      	strb	r2, [r3, #29]
  }

  /* Enable the write protection for RTC registers */
  __HAL_RTC_WRITEPROTECTION_ENABLE(hrtc);
 8004eea:	68fb      	ldr	r3, [r7, #12]
 8004eec:	681b      	ldr	r3, [r3, #0]
 8004eee:	22ff      	movs	r2, #255	; 0xff
 8004ef0:	625a      	str	r2, [r3, #36]	; 0x24

  /* Process Unlocked */
  __HAL_UNLOCK(hrtc);
 8004ef2:	68fb      	ldr	r3, [r7, #12]
 8004ef4:	2200      	movs	r2, #0
 8004ef6:	771a      	strb	r2, [r3, #28]

  return status;
 8004ef8:	7cfb      	ldrb	r3, [r7, #19]
}
 8004efa:	4618      	mov	r0, r3
 8004efc:	371c      	adds	r7, #28
 8004efe:	46bd      	mov	sp, r7
 8004f00:	bd90      	pop	{r4, r7, pc}

08004f02 <HAL_RTC_GetTime>:
  *        until current date is read to ensure consistency between the time and
  *        date values.
  * @retval HAL status
  */
HAL_StatusTypeDef HAL_RTC_GetTime(RTC_HandleTypeDef *hrtc, RTC_TimeTypeDef *sTime, uint32_t Format)
{
 8004f02:	b580      	push	{r7, lr}
 8004f04:	b086      	sub	sp, #24
 8004f06:	af00      	add	r7, sp, #0
 8004f08:	60f8      	str	r0, [r7, #12]
 8004f0a:	60b9      	str	r1, [r7, #8]
 8004f0c:	607a      	str	r2, [r7, #4]
  uint32_t tmpreg = 0U;
 8004f0e:	2300      	movs	r3, #0
 8004f10:	617b      	str	r3, [r7, #20]

  /* Check the parameters */
  assert_param(IS_RTC_FORMAT(Format));

  /* Get subseconds value from the corresponding register */
  sTime->SubSeconds = (uint32_t)(hrtc->Instance->SSR);
 8004f12:	68fb      	ldr	r3, [r7, #12]
 8004f14:	681b      	ldr	r3, [r3, #0]
 8004f16:	6a9a      	ldr	r2, [r3, #40]	; 0x28
 8004f18:	68bb      	ldr	r3, [r7, #8]
 8004f1a:	605a      	str	r2, [r3, #4]

  /* Get SecondFraction structure field from the corresponding register field*/
  sTime->SecondFraction = (uint32_t)(hrtc->Instance->PRER & RTC_PRER_PREDIV_S);
 8004f1c:	68fb      	ldr	r3, [r7, #12]
 8004f1e:	681b      	ldr	r3, [r3, #0]
 8004f20:	691b      	ldr	r3, [r3, #16]
 8004f22:	f3c3 020e 	ubfx	r2, r3, #0, #15
 8004f26:	68bb      	ldr	r3, [r7, #8]
 8004f28:	609a      	str	r2, [r3, #8]

  /* Get the TR register */
  tmpreg = (uint32_t)(hrtc->Instance->TR & RTC_TR_RESERVED_MASK);
 8004f2a:	68fb      	ldr	r3, [r7, #12]
 8004f2c:	681b      	ldr	r3, [r3, #0]
 8004f2e:	681b      	ldr	r3, [r3, #0]
 8004f30:	f003 337f 	and.w	r3, r3, #2139062143	; 0x7f7f7f7f
 8004f34:	f023 43fe 	bic.w	r3, r3, #2130706432	; 0x7f000000
 8004f38:	617b      	str	r3, [r7, #20]

  /* Fill the structure fields with the read parameters */
  sTime->Hours      = (uint8_t)((tmpreg & (RTC_TR_HT  | RTC_TR_HU))  >> RTC_TR_HU_Pos);
 8004f3a:	697b      	ldr	r3, [r7, #20]
 8004f3c:	0c1b      	lsrs	r3, r3, #16
 8004f3e:	b2db      	uxtb	r3, r3
 8004f40:	f003 033f 	and.w	r3, r3, #63	; 0x3f
 8004f44:	b2da      	uxtb	r2, r3
 8004f46:	68bb      	ldr	r3, [r7, #8]
 8004f48:	701a      	strb	r2, [r3, #0]
  sTime->Minutes    = (uint8_t)((tmpreg & (RTC_TR_MNT | RTC_TR_MNU)) >> RTC_TR_MNU_Pos);
 8004f4a:	697b      	ldr	r3, [r7, #20]
 8004f4c:	0a1b      	lsrs	r3, r3, #8
 8004f4e:	b2db      	uxtb	r3, r3
 8004f50:	f003 037f 	and.w	r3, r3, #127	; 0x7f
 8004f54:	b2da      	uxtb	r2, r3
 8004f56:	68bb      	ldr	r3, [r7, #8]
 8004f58:	705a      	strb	r2, [r3, #1]
  sTime->Seconds    = (uint8_t)( tmpreg & (RTC_TR_ST  | RTC_TR_SU));
 8004f5a:	697b      	ldr	r3, [r7, #20]
 8004f5c:	b2db      	uxtb	r3, r3
 8004f5e:	f003 037f 	and.w	r3, r3, #127	; 0x7f
 8004f62:	b2da      	uxtb	r2, r3
 8004f64:	68bb      	ldr	r3, [r7, #8]
 8004f66:	709a      	strb	r2, [r3, #2]
  sTime->TimeFormat = (uint8_t)((tmpreg & (RTC_TR_PM))               >> RTC_TR_PM_Pos);
 8004f68:	697b      	ldr	r3, [r7, #20]
 8004f6a:	0d9b      	lsrs	r3, r3, #22
 8004f6c:	b2db      	uxtb	r3, r3
 8004f6e:	f003 0301 	and.w	r3, r3, #1
 8004f72:	b2da      	uxtb	r2, r3
 8004f74:	68bb      	ldr	r3, [r7, #8]
 8004f76:	70da      	strb	r2, [r3, #3]

  /* Check the input parameters format */
  if (Format == RTC_FORMAT_BIN)
 8004f78:	687b      	ldr	r3, [r7, #4]
 8004f7a:	2b00      	cmp	r3, #0
 8004f7c:	d11a      	bne.n	8004fb4 <HAL_RTC_GetTime+0xb2>
  {
    /* Convert the time structure parameters to Binary format */
    sTime->Hours = (uint8_t)RTC_Bcd2ToByte(sTime->Hours);
 8004f7e:	68bb      	ldr	r3, [r7, #8]
 8004f80:	781b      	ldrb	r3, [r3, #0]
 8004f82:	4618      	mov	r0, r3
 8004f84:	f000 f98e 	bl	80052a4 <RTC_Bcd2ToByte>
 8004f88:	4603      	mov	r3, r0
 8004f8a:	461a      	mov	r2, r3
 8004f8c:	68bb      	ldr	r3, [r7, #8]
 8004f8e:	701a      	strb	r2, [r3, #0]
    sTime->Minutes = (uint8_t)RTC_Bcd2ToByte(sTime->Minutes);
 8004f90:	68bb      	ldr	r3, [r7, #8]
 8004f92:	785b      	ldrb	r3, [r3, #1]
 8004f94:	4618      	mov	r0, r3
 8004f96:	f000 f985 	bl	80052a4 <RTC_Bcd2ToByte>
 8004f9a:	4603      	mov	r3, r0
 8004f9c:	461a      	mov	r2, r3
 8004f9e:	68bb      	ldr	r3, [r7, #8]
 8004fa0:	705a      	strb	r2, [r3, #1]
    sTime->Seconds = (uint8_t)RTC_Bcd2ToByte(sTime->Seconds);
 8004fa2:	68bb      	ldr	r3, [r7, #8]
 8004fa4:	789b      	ldrb	r3, [r3, #2]
 8004fa6:	4618      	mov	r0, r3
 8004fa8:	f000 f97c 	bl	80052a4 <RTC_Bcd2ToByte>
 8004fac:	4603      	mov	r3, r0
 8004fae:	461a      	mov	r2, r3
 8004fb0:	68bb      	ldr	r3, [r7, #8]
 8004fb2:	709a      	strb	r2, [r3, #2]
  }

  return HAL_OK;
 8004fb4:	2300      	movs	r3, #0
}
 8004fb6:	4618      	mov	r0, r3
 8004fb8:	3718      	adds	r7, #24
 8004fba:	46bd      	mov	sp, r7
 8004fbc:	bd80      	pop	{r7, pc}

08004fbe <HAL_RTC_SetDate>:
  *            @arg RTC_FORMAT_BIN: Binary data format
  *            @arg RTC_FORMAT_BCD: BCD data format
  * @retval HAL status
  */
HAL_StatusTypeDef HAL_RTC_SetDate(RTC_HandleTypeDef *hrtc, RTC_DateTypeDef *sDate, uint32_t Format)
{
 8004fbe:	b590      	push	{r4, r7, lr}
 8004fc0:	b087      	sub	sp, #28
 8004fc2:	af00      	add	r7, sp, #0
 8004fc4:	60f8      	str	r0, [r7, #12]
 8004fc6:	60b9      	str	r1, [r7, #8]
 8004fc8:	607a      	str	r2, [r7, #4]
  uint32_t datetmpreg = 0U;
 8004fca:	2300      	movs	r3, #0
 8004fcc:	617b      	str	r3, [r7, #20]

  /* Check the parameters */
  assert_param(IS_RTC_FORMAT(Format));

  /* Process Locked */
  __HAL_LOCK(hrtc);
 8004fce:	68fb      	ldr	r3, [r7, #12]
 8004fd0:	7f1b      	ldrb	r3, [r3, #28]
 8004fd2:	2b01      	cmp	r3, #1
 8004fd4:	d101      	bne.n	8004fda <HAL_RTC_SetDate+0x1c>
 8004fd6:	2302      	movs	r3, #2
 8004fd8:	e071      	b.n	80050be <HAL_RTC_SetDate+0x100>
 8004fda:	68fb      	ldr	r3, [r7, #12]
 8004fdc:	2201      	movs	r2, #1
 8004fde:	771a      	strb	r2, [r3, #28]

  hrtc->State = HAL_RTC_STATE_BUSY;
 8004fe0:	68fb      	ldr	r3, [r7, #12]
 8004fe2:	2202      	movs	r2, #2
 8004fe4:	775a      	strb	r2, [r3, #29]

  if ((Format == RTC_FORMAT_BIN) && ((sDate->Month & 0x10U) == 0x10U))
 8004fe6:	687b      	ldr	r3, [r7, #4]
 8004fe8:	2b00      	cmp	r3, #0
 8004fea:	d10e      	bne.n	800500a <HAL_RTC_SetDate+0x4c>
 8004fec:	68bb      	ldr	r3, [r7, #8]
 8004fee:	785b      	ldrb	r3, [r3, #1]
 8004ff0:	f003 0310 	and.w	r3, r3, #16
 8004ff4:	2b00      	cmp	r3, #0
 8004ff6:	d008      	beq.n	800500a <HAL_RTC_SetDate+0x4c>
  {
    sDate->Month = (uint8_t)((sDate->Month & (uint8_t)~(0x10U)) + (uint8_t)0x0AU);
 8004ff8:	68bb      	ldr	r3, [r7, #8]
 8004ffa:	785b      	ldrb	r3, [r3, #1]
 8004ffc:	f023 0310 	bic.w	r3, r3, #16
 8005000:	b2db      	uxtb	r3, r3
 8005002:	330a      	adds	r3, #10
 8005004:	b2da      	uxtb	r2, r3
 8005006:	68bb      	ldr	r3, [r7, #8]
 8005008:	705a      	strb	r2, [r3, #1]
  }

  assert_param(IS_RTC_WEEKDAY(sDate->WeekDay));

  if (Format == RTC_FORMAT_BIN)
 800500a:	687b      	ldr	r3, [r7, #4]
 800500c:	2b00      	cmp	r3, #0
 800500e:	d11c      	bne.n	800504a <HAL_RTC_SetDate+0x8c>
  {
    assert_param(IS_RTC_YEAR(sDate->Year));
    assert_param(IS_RTC_MONTH(sDate->Month));
    assert_param(IS_RTC_DATE(sDate->Date));

    datetmpreg = (((uint32_t)RTC_ByteToBcd2(sDate->Year)  << RTC_DR_YU_Pos) | \
 8005010:	68bb      	ldr	r3, [r7, #8]
 8005012:	78db      	ldrb	r3, [r3, #3]
 8005014:	4618      	mov	r0, r3
 8005016:	f000 f927 	bl	8005268 <RTC_ByteToBcd2>
 800501a:	4603      	mov	r3, r0
 800501c:	041c      	lsls	r4, r3, #16
                  ((uint32_t)RTC_ByteToBcd2(sDate->Month) << RTC_DR_MU_Pos) | \
 800501e:	68bb      	ldr	r3, [r7, #8]
 8005020:	785b      	ldrb	r3, [r3, #1]
 8005022:	4618      	mov	r0, r3
 8005024:	f000 f920 	bl	8005268 <RTC_ByteToBcd2>
 8005028:	4603      	mov	r3, r0
 800502a:	021b      	lsls	r3, r3, #8
    datetmpreg = (((uint32_t)RTC_ByteToBcd2(sDate->Year)  << RTC_DR_YU_Pos) | \
 800502c:	431c      	orrs	r4, r3
                  ((uint32_t)RTC_ByteToBcd2(sDate->Date))                   | \
 800502e:	68bb      	ldr	r3, [r7, #8]
 8005030:	789b      	ldrb	r3, [r3, #2]
 8005032:	4618      	mov	r0, r3
 8005034:	f000 f918 	bl	8005268 <RTC_ByteToBcd2>
 8005038:	4603      	mov	r3, r0
                  ((uint32_t)RTC_ByteToBcd2(sDate->Month) << RTC_DR_MU_Pos) | \
 800503a:	ea44 0203 	orr.w	r2, r4, r3
                  ((uint32_t)sDate->WeekDay               << RTC_DR_WDU_Pos));
 800503e:	68bb      	ldr	r3, [r7, #8]
 8005040:	781b      	ldrb	r3, [r3, #0]
 8005042:	035b      	lsls	r3, r3, #13
    datetmpreg = (((uint32_t)RTC_ByteToBcd2(sDate->Year)  << RTC_DR_YU_Pos) | \
 8005044:	4313      	orrs	r3, r2
 8005046:	617b      	str	r3, [r7, #20]
 8005048:	e00e      	b.n	8005068 <HAL_RTC_SetDate+0xaa>
  {
    assert_param(IS_RTC_YEAR(RTC_Bcd2ToByte(sDate->Year)));
    assert_param(IS_RTC_MONTH(RTC_Bcd2ToByte(sDate->Month)));
    assert_param(IS_RTC_DATE(RTC_Bcd2ToByte(sDate->Date)));

    datetmpreg = ((((uint32_t)sDate->Year)    << RTC_DR_YU_Pos) | \
 800504a:	68bb      	ldr	r3, [r7, #8]
 800504c:	78db      	ldrb	r3, [r3, #3]
 800504e:	041a      	lsls	r2, r3, #16
                  (((uint32_t)sDate->Month)   << RTC_DR_MU_Pos) | \
 8005050:	68bb      	ldr	r3, [r7, #8]
 8005052:	785b      	ldrb	r3, [r3, #1]
 8005054:	021b      	lsls	r3, r3, #8
    datetmpreg = ((((uint32_t)sDate->Year)    << RTC_DR_YU_Pos) | \
 8005056:	4313      	orrs	r3, r2
                  ((uint32_t) sDate->Date)                      | \
 8005058:	68ba      	ldr	r2, [r7, #8]
 800505a:	7892      	ldrb	r2, [r2, #2]
                  (((uint32_t)sDate->Month)   << RTC_DR_MU_Pos) | \
 800505c:	431a      	orrs	r2, r3
                  (((uint32_t)sDate->WeekDay) << RTC_DR_WDU_Pos));
 800505e:	68bb      	ldr	r3, [r7, #8]
 8005060:	781b      	ldrb	r3, [r3, #0]
 8005062:	035b      	lsls	r3, r3, #13
    datetmpreg = ((((uint32_t)sDate->Year)    << RTC_DR_YU_Pos) | \
 8005064:	4313      	orrs	r3, r2
 8005066:	617b      	str	r3, [r7, #20]
  }

  /* Disable the write protection for RTC registers */
  __HAL_RTC_WRITEPROTECTION_DISABLE(hrtc);
 8005068:	68fb      	ldr	r3, [r7, #12]
 800506a:	681b      	ldr	r3, [r3, #0]
 800506c:	22ca      	movs	r2, #202	; 0xca
 800506e:	625a      	str	r2, [r3, #36]	; 0x24
 8005070:	68fb      	ldr	r3, [r7, #12]
 8005072:	681b      	ldr	r3, [r3, #0]
 8005074:	2253      	movs	r2, #83	; 0x53
 8005076:	625a      	str	r2, [r3, #36]	; 0x24

  /* Enter Initialization mode */
  status = RTC_EnterInitMode(hrtc);
 8005078:	68f8      	ldr	r0, [r7, #12]
 800507a:	f000 f899 	bl	80051b0 <RTC_EnterInitMode>
 800507e:	4603      	mov	r3, r0
 8005080:	74fb      	strb	r3, [r7, #19]

  if (status == HAL_OK)
 8005082:	7cfb      	ldrb	r3, [r7, #19]
 8005084:	2b00      	cmp	r3, #0
 8005086:	d10c      	bne.n	80050a2 <HAL_RTC_SetDate+0xe4>
  {
    /* Set the RTC_DR register */
    hrtc->Instance->DR = (uint32_t)(datetmpreg & RTC_DR_RESERVED_MASK);
 8005088:	68fb      	ldr	r3, [r7, #12]
 800508a:	681a      	ldr	r2, [r3, #0]
 800508c:	697b      	ldr	r3, [r7, #20]
 800508e:	f023 437f 	bic.w	r3, r3, #4278190080	; 0xff000000
 8005092:	f023 03c0 	bic.w	r3, r3, #192	; 0xc0
 8005096:	6053      	str	r3, [r2, #4]

    /* Exit Initialization mode */
    status = RTC_ExitInitMode(hrtc);
 8005098:	68f8      	ldr	r0, [r7, #12]
 800509a:	f000 f8c0 	bl	800521e <RTC_ExitInitMode>
 800509e:	4603      	mov	r3, r0
 80050a0:	74fb      	strb	r3, [r7, #19]
  }

  if (status == HAL_OK)
 80050a2:	7cfb      	ldrb	r3, [r7, #19]
 80050a4:	2b00      	cmp	r3, #0
 80050a6:	d102      	bne.n	80050ae <HAL_RTC_SetDate+0xf0>
  {
    hrtc->State = HAL_RTC_STATE_READY;
 80050a8:	68fb      	ldr	r3, [r7, #12]
 80050aa:	2201      	movs	r2, #1
 80050ac:	775a      	strb	r2, [r3, #29]
  }

  /* Enable the write protection for RTC registers */
  __HAL_RTC_WRITEPROTECTION_ENABLE(hrtc);
 80050ae:	68fb      	ldr	r3, [r7, #12]
 80050b0:	681b      	ldr	r3, [r3, #0]
 80050b2:	22ff      	movs	r2, #255	; 0xff
 80050b4:	625a      	str	r2, [r3, #36]	; 0x24

  /* Process Unlocked */
  __HAL_UNLOCK(hrtc);
 80050b6:	68fb      	ldr	r3, [r7, #12]
 80050b8:	2200      	movs	r2, #0
 80050ba:	771a      	strb	r2, [r3, #28]

  return status;
 80050bc:	7cfb      	ldrb	r3, [r7, #19]
}
 80050be:	4618      	mov	r0, r3
 80050c0:	371c      	adds	r7, #28
 80050c2:	46bd      	mov	sp, r7
 80050c4:	bd90      	pop	{r4, r7, pc}

080050c6 <HAL_RTC_GetDate>:
  *        until current date is read to ensure consistency between the time and
  *        date values.
  * @retval HAL status
  */
HAL_StatusTypeDef HAL_RTC_GetDate(RTC_HandleTypeDef *hrtc, RTC_DateTypeDef *sDate, uint32_t Format)
{
 80050c6:	b580      	push	{r7, lr}
 80050c8:	b086      	sub	sp, #24
 80050ca:	af00      	add	r7, sp, #0
 80050cc:	60f8      	str	r0, [r7, #12]
 80050ce:	60b9      	str	r1, [r7, #8]
 80050d0:	607a      	str	r2, [r7, #4]
  uint32_t datetmpreg = 0U;
 80050d2:	2300      	movs	r3, #0
 80050d4:	617b      	str	r3, [r7, #20]

  /* Check the parameters */
  assert_param(IS_RTC_FORMAT(Format));

  /* Get the DR register */
  datetmpreg = (uint32_t)(hrtc->Instance->DR & RTC_DR_RESERVED_MASK);
 80050d6:	68fb      	ldr	r3, [r7, #12]
 80050d8:	681b      	ldr	r3, [r3, #0]
 80050da:	685b      	ldr	r3, [r3, #4]
 80050dc:	f023 437f 	bic.w	r3, r3, #4278190080	; 0xff000000
 80050e0:	f023 03c0 	bic.w	r3, r3, #192	; 0xc0
 80050e4:	617b      	str	r3, [r7, #20]

  /* Fill the structure fields with the read parameters */
  sDate->Year    = (uint8_t)((datetmpreg & (RTC_DR_YT | RTC_DR_YU)) >> RTC_DR_YU_Pos);
 80050e6:	697b      	ldr	r3, [r7, #20]
 80050e8:	0c1b      	lsrs	r3, r3, #16
 80050ea:	b2da      	uxtb	r2, r3
 80050ec:	68bb      	ldr	r3, [r7, #8]
 80050ee:	70da      	strb	r2, [r3, #3]
  sDate->Month   = (uint8_t)((datetmpreg & (RTC_DR_MT | RTC_DR_MU)) >> RTC_DR_MU_Pos);
 80050f0:	697b      	ldr	r3, [r7, #20]
 80050f2:	0a1b      	lsrs	r3, r3, #8
 80050f4:	b2db      	uxtb	r3, r3
 80050f6:	f003 031f 	and.w	r3, r3, #31
 80050fa:	b2da      	uxtb	r2, r3
 80050fc:	68bb      	ldr	r3, [r7, #8]
 80050fe:	705a      	strb	r2, [r3, #1]
  sDate->Date    = (uint8_t) (datetmpreg & (RTC_DR_DT | RTC_DR_DU));
 8005100:	697b      	ldr	r3, [r7, #20]
 8005102:	b2db      	uxtb	r3, r3
 8005104:	f003 033f 	and.w	r3, r3, #63	; 0x3f
 8005108:	b2da      	uxtb	r2, r3
 800510a:	68bb      	ldr	r3, [r7, #8]
 800510c:	709a      	strb	r2, [r3, #2]
  sDate->WeekDay = (uint8_t)((datetmpreg & (RTC_DR_WDU))            >> RTC_DR_WDU_Pos);
 800510e:	697b      	ldr	r3, [r7, #20]
 8005110:	0b5b      	lsrs	r3, r3, #13
 8005112:	b2db      	uxtb	r3, r3
 8005114:	f003 0307 	and.w	r3, r3, #7
 8005118:	b2da      	uxtb	r2, r3
 800511a:	68bb      	ldr	r3, [r7, #8]
 800511c:	701a      	strb	r2, [r3, #0]

  /* Check the input parameters format */
  if (Format == RTC_FORMAT_BIN)
 800511e:	687b      	ldr	r3, [r7, #4]
 8005120:	2b00      	cmp	r3, #0
 8005122:	d11a      	bne.n	800515a <HAL_RTC_GetDate+0x94>
  {
    /* Convert the date structure parameters to Binary format */
    sDate->Year  = (uint8_t)RTC_Bcd2ToByte(sDate->Year);
 8005124:	68bb      	ldr	r3, [r7, #8]
 8005126:	78db      	ldrb	r3, [r3, #3]
 8005128:	4618      	mov	r0, r3
 800512a:	f000 f8bb 	bl	80052a4 <RTC_Bcd2ToByte>
 800512e:	4603      	mov	r3, r0
 8005130:	461a      	mov	r2, r3
 8005132:	68bb      	ldr	r3, [r7, #8]
 8005134:	70da      	strb	r2, [r3, #3]
    sDate->Month = (uint8_t)RTC_Bcd2ToByte(sDate->Month);
 8005136:	68bb      	ldr	r3, [r7, #8]
 8005138:	785b      	ldrb	r3, [r3, #1]
 800513a:	4618      	mov	r0, r3
 800513c:	f000 f8b2 	bl	80052a4 <RTC_Bcd2ToByte>
 8005140:	4603      	mov	r3, r0
 8005142:	461a      	mov	r2, r3
 8005144:	68bb      	ldr	r3, [r7, #8]
 8005146:	705a      	strb	r2, [r3, #1]
    sDate->Date  = (uint8_t)RTC_Bcd2ToByte(sDate->Date);
 8005148:	68bb      	ldr	r3, [r7, #8]
 800514a:	789b      	ldrb	r3, [r3, #2]
 800514c:	4618      	mov	r0, r3
 800514e:	f000 f8a9 	bl	80052a4 <RTC_Bcd2ToByte>
 8005152:	4603      	mov	r3, r0
 8005154:	461a      	mov	r2, r3
 8005156:	68bb      	ldr	r3, [r7, #8]
 8005158:	709a      	strb	r2, [r3, #2]
  }
  return HAL_OK;
 800515a:	2300      	movs	r3, #0
}
 800515c:	4618      	mov	r0, r3
 800515e:	3718      	adds	r7, #24
 8005160:	46bd      	mov	sp, r7
 8005162:	bd80      	pop	{r7, pc}

08005164 <HAL_RTC_WaitForSynchro>:
  * @param  hrtc pointer to a RTC_HandleTypeDef structure that contains
  *                the configuration information for RTC.
  * @retval HAL status
  */
HAL_StatusTypeDef HAL_RTC_WaitForSynchro(RTC_HandleTypeDef *hrtc)
{
 8005164:	b580      	push	{r7, lr}
 8005166:	b084      	sub	sp, #16
 8005168:	af00      	add	r7, sp, #0
 800516a:	6078      	str	r0, [r7, #4]
  uint32_t tickstart = 0U;
 800516c:	2300      	movs	r3, #0
 800516e:	60fb      	str	r3, [r7, #12]

  /* Clear RSF flag, keep reserved bits at reset values (setting other flags has no effect) */
  hrtc->Instance->ISR = ((uint32_t)(RTC_RSF_MASK & RTC_ISR_RESERVED_MASK));
 8005170:	687b      	ldr	r3, [r7, #4]
 8005172:	681b      	ldr	r3, [r3, #0]
 8005174:	4a0d      	ldr	r2, [pc, #52]	; (80051ac <HAL_RTC_WaitForSynchro+0x48>)
 8005176:	60da      	str	r2, [r3, #12]

  /* Get tick */
  tickstart = HAL_GetTick();
 8005178:	f7fd fa36 	bl	80025e8 <HAL_GetTick>
 800517c:	60f8      	str	r0, [r7, #12]

  /* Wait the registers to be synchronised */
  while ((hrtc->Instance->ISR & RTC_ISR_RSF) == 0U)
 800517e:	e009      	b.n	8005194 <HAL_RTC_WaitForSynchro+0x30>
  {
    if ((HAL_GetTick() - tickstart) > RTC_TIMEOUT_VALUE)
 8005180:	f7fd fa32 	bl	80025e8 <HAL_GetTick>
 8005184:	4602      	mov	r2, r0
 8005186:	68fb      	ldr	r3, [r7, #12]
 8005188:	1ad3      	subs	r3, r2, r3
 800518a:	f5b3 7f7a 	cmp.w	r3, #1000	; 0x3e8
 800518e:	d901      	bls.n	8005194 <HAL_RTC_WaitForSynchro+0x30>
    {
      return HAL_TIMEOUT;
 8005190:	2303      	movs	r3, #3
 8005192:	e007      	b.n	80051a4 <HAL_RTC_WaitForSynchro+0x40>
  while ((hrtc->Instance->ISR & RTC_ISR_RSF) == 0U)
 8005194:	687b      	ldr	r3, [r7, #4]
 8005196:	681b      	ldr	r3, [r3, #0]
 8005198:	68db      	ldr	r3, [r3, #12]
 800519a:	f003 0320 	and.w	r3, r3, #32
 800519e:	2b00      	cmp	r3, #0
 80051a0:	d0ee      	beq.n	8005180 <HAL_RTC_WaitForSynchro+0x1c>
    }
  }

  return HAL_OK;
 80051a2:	2300      	movs	r3, #0
}
 80051a4:	4618      	mov	r0, r3
 80051a6:	3710      	adds	r7, #16
 80051a8:	46bd      	mov	sp, r7
 80051aa:	bd80      	pop	{r7, pc}
 80051ac:	00017f5f 	.word	0x00017f5f

080051b0 <RTC_EnterInitMode>:
  * @param  hrtc pointer to a RTC_HandleTypeDef structure that contains
  *                the configuration information for RTC.
  * @retval HAL status
  */
HAL_StatusTypeDef RTC_EnterInitMode(RTC_HandleTypeDef *hrtc)
{
 80051b0:	b580      	push	{r7, lr}
 80051b2:	b084      	sub	sp, #16
 80051b4:	af00      	add	r7, sp, #0
 80051b6:	6078      	str	r0, [r7, #4]
  uint32_t tickstart = 0U;
 80051b8:	2300      	movs	r3, #0
 80051ba:	60bb      	str	r3, [r7, #8]
  HAL_StatusTypeDef status = HAL_OK;
 80051bc:	2300      	movs	r3, #0
 80051be:	73fb      	strb	r3, [r7, #15]

  /* Check that Initialization mode is not already set */
  if (READ_BIT(hrtc->Instance->ISR, RTC_ISR_INITF) == 0U)
 80051c0:	687b      	ldr	r3, [r7, #4]
 80051c2:	681b      	ldr	r3, [r3, #0]
 80051c4:	68db      	ldr	r3, [r3, #12]
 80051c6:	f003 0340 	and.w	r3, r3, #64	; 0x40
 80051ca:	2b00      	cmp	r3, #0
 80051cc:	d122      	bne.n	8005214 <RTC_EnterInitMode+0x64>
  {
    /* Set INIT bit to enter Initialization mode */
    SET_BIT(hrtc->Instance->ISR, RTC_ISR_INIT);
 80051ce:	687b      	ldr	r3, [r7, #4]
 80051d0:	681b      	ldr	r3, [r3, #0]
 80051d2:	68da      	ldr	r2, [r3, #12]
 80051d4:	687b      	ldr	r3, [r7, #4]
 80051d6:	681b      	ldr	r3, [r3, #0]
 80051d8:	f042 0280 	orr.w	r2, r2, #128	; 0x80
 80051dc:	60da      	str	r2, [r3, #12]

    /* Get tick */
    tickstart = HAL_GetTick();
 80051de:	f7fd fa03 	bl	80025e8 <HAL_GetTick>
 80051e2:	60b8      	str	r0, [r7, #8]

    /* Wait till RTC is in INIT state and if timeout is reached exit */
    while ((READ_BIT(hrtc->Instance->ISR, RTC_ISR_INITF) == 0U) && (status != HAL_ERROR))
 80051e4:	e00c      	b.n	8005200 <RTC_EnterInitMode+0x50>
    {
      if ((HAL_GetTick() - tickstart) > RTC_TIMEOUT_VALUE)
 80051e6:	f7fd f9ff 	bl	80025e8 <HAL_GetTick>
 80051ea:	4602      	mov	r2, r0
 80051ec:	68bb      	ldr	r3, [r7, #8]
 80051ee:	1ad3      	subs	r3, r2, r3
 80051f0:	f5b3 7f7a 	cmp.w	r3, #1000	; 0x3e8
 80051f4:	d904      	bls.n	8005200 <RTC_EnterInitMode+0x50>
      {
        /* Set RTC state */
        hrtc->State = HAL_RTC_STATE_ERROR;
 80051f6:	687b      	ldr	r3, [r7, #4]
 80051f8:	2204      	movs	r2, #4
 80051fa:	775a      	strb	r2, [r3, #29]
        status = HAL_ERROR;
 80051fc:	2301      	movs	r3, #1
 80051fe:	73fb      	strb	r3, [r7, #15]
    while ((READ_BIT(hrtc->Instance->ISR, RTC_ISR_INITF) == 0U) && (status != HAL_ERROR))
 8005200:	687b      	ldr	r3, [r7, #4]
 8005202:	681b      	ldr	r3, [r3, #0]
 8005204:	68db      	ldr	r3, [r3, #12]
 8005206:	f003 0340 	and.w	r3, r3, #64	; 0x40
 800520a:	2b00      	cmp	r3, #0
 800520c:	d102      	bne.n	8005214 <RTC_EnterInitMode+0x64>
 800520e:	7bfb      	ldrb	r3, [r7, #15]
 8005210:	2b01      	cmp	r3, #1
 8005212:	d1e8      	bne.n	80051e6 <RTC_EnterInitMode+0x36>
      }
    }
  }

  return status;
 8005214:	7bfb      	ldrb	r3, [r7, #15]
}
 8005216:	4618      	mov	r0, r3
 8005218:	3710      	adds	r7, #16
 800521a:	46bd      	mov	sp, r7
 800521c:	bd80      	pop	{r7, pc}

0800521e <RTC_ExitInitMode>:
  * @param  hrtc pointer to a RTC_HandleTypeDef structure that contains
  *                the configuration information for RTC.
  * @retval HAL status
  */
HAL_StatusTypeDef RTC_ExitInitMode(RTC_HandleTypeDef *hrtc)
{
 800521e:	b580      	push	{r7, lr}
 8005220:	b084      	sub	sp, #16
 8005222:	af00      	add	r7, sp, #0
 8005224:	6078      	str	r0, [r7, #4]
  HAL_StatusTypeDef status = HAL_OK;
 8005226:	2300      	movs	r3, #0
 8005228:	73fb      	strb	r3, [r7, #15]

  /* Clear INIT bit to exit Initialization mode */
  CLEAR_BIT(hrtc->Instance->ISR, RTC_ISR_INIT);
 800522a:	687b      	ldr	r3, [r7, #4]
 800522c:	681b      	ldr	r3, [r3, #0]
 800522e:	68da      	ldr	r2, [r3, #12]
 8005230:	687b      	ldr	r3, [r7, #4]
 8005232:	681b      	ldr	r3, [r3, #0]
 8005234:	f022 0280 	bic.w	r2, r2, #128	; 0x80
 8005238:	60da      	str	r2, [r3, #12]

  /* If CR_BYPSHAD bit = 0, wait for synchro */
  if (READ_BIT(hrtc->Instance->CR, RTC_CR_BYPSHAD) == 0U)
 800523a:	687b      	ldr	r3, [r7, #4]
 800523c:	681b      	ldr	r3, [r3, #0]
 800523e:	689b      	ldr	r3, [r3, #8]
 8005240:	f003 0320 	and.w	r3, r3, #32
 8005244:	2b00      	cmp	r3, #0
 8005246:	d10a      	bne.n	800525e <RTC_ExitInitMode+0x40>
  {
    if (HAL_RTC_WaitForSynchro(hrtc) != HAL_OK)
 8005248:	6878      	ldr	r0, [r7, #4]
 800524a:	f7ff ff8b 	bl	8005164 <HAL_RTC_WaitForSynchro>
 800524e:	4603      	mov	r3, r0
 8005250:	2b00      	cmp	r3, #0
 8005252:	d004      	beq.n	800525e <RTC_ExitInitMode+0x40>
    {
      /* Set RTC state */
      hrtc->State = HAL_RTC_STATE_ERROR;
 8005254:	687b      	ldr	r3, [r7, #4]
 8005256:	2204      	movs	r2, #4
 8005258:	775a      	strb	r2, [r3, #29]
      status = HAL_ERROR;
 800525a:	2301      	movs	r3, #1
 800525c:	73fb      	strb	r3, [r7, #15]
    }
  }

  return status;
 800525e:	7bfb      	ldrb	r3, [r7, #15]
}
 8005260:	4618      	mov	r0, r3
 8005262:	3710      	adds	r7, #16
 8005264:	46bd      	mov	sp, r7
 8005266:	bd80      	pop	{r7, pc}

08005268 <RTC_ByteToBcd2>:
  * @brief  Converts a 2-digit number from decimal to BCD format.
  * @param  number decimal-formatted number (from 0 to 99) to be converted
  * @retval Converted byte
  */
uint8_t RTC_ByteToBcd2(uint8_t number)
{
 8005268:	b480      	push	{r7}
 800526a:	b085      	sub	sp, #20
 800526c:	af00      	add	r7, sp, #0
 800526e:	4603      	mov	r3, r0
 8005270:	71fb      	strb	r3, [r7, #7]
  uint32_t bcdhigh = 0U;
 8005272:	2300      	movs	r3, #0
 8005274:	60fb      	str	r3, [r7, #12]

  while (number >= 10U)
 8005276:	e005      	b.n	8005284 <RTC_ByteToBcd2+0x1c>
  {
    bcdhigh++;
 8005278:	68fb      	ldr	r3, [r7, #12]
 800527a:	3301      	adds	r3, #1
 800527c:	60fb      	str	r3, [r7, #12]
    number -= 10U;
 800527e:	79fb      	ldrb	r3, [r7, #7]
 8005280:	3b0a      	subs	r3, #10
 8005282:	71fb      	strb	r3, [r7, #7]
  while (number >= 10U)
 8005284:	79fb      	ldrb	r3, [r7, #7]
 8005286:	2b09      	cmp	r3, #9
 8005288:	d8f6      	bhi.n	8005278 <RTC_ByteToBcd2+0x10>
  }

  return ((uint8_t)(bcdhigh << 4U) | number);
 800528a:	68fb      	ldr	r3, [r7, #12]
 800528c:	b2db      	uxtb	r3, r3
 800528e:	011b      	lsls	r3, r3, #4
 8005290:	b2da      	uxtb	r2, r3
 8005292:	79fb      	ldrb	r3, [r7, #7]
 8005294:	4313      	orrs	r3, r2
 8005296:	b2db      	uxtb	r3, r3
}
 8005298:	4618      	mov	r0, r3
 800529a:	3714      	adds	r7, #20
 800529c:	46bd      	mov	sp, r7
 800529e:	f85d 7b04 	ldr.w	r7, [sp], #4
 80052a2:	4770      	bx	lr

080052a4 <RTC_Bcd2ToByte>:
  * @brief  Converts a 2-digit number from BCD to decimal format.
  * @param  number BCD-formatted number (from 00 to 99) to be converted
  * @retval Converted word
  */
uint8_t RTC_Bcd2ToByte(uint8_t number)
{
 80052a4:	b480      	push	{r7}
 80052a6:	b085      	sub	sp, #20
 80052a8:	af00      	add	r7, sp, #0
 80052aa:	4603      	mov	r3, r0
 80052ac:	71fb      	strb	r3, [r7, #7]
  uint32_t tens = 0U;
 80052ae:	2300      	movs	r3, #0
 80052b0:	60fb      	str	r3, [r7, #12]
  tens = (((uint32_t)number & 0xF0U) >> 4U) * 10U;
 80052b2:	79fb      	ldrb	r3, [r7, #7]
 80052b4:	091b      	lsrs	r3, r3, #4
 80052b6:	b2db      	uxtb	r3, r3
 80052b8:	461a      	mov	r2, r3
 80052ba:	4613      	mov	r3, r2
 80052bc:	009b      	lsls	r3, r3, #2
 80052be:	4413      	add	r3, r2
 80052c0:	005b      	lsls	r3, r3, #1
 80052c2:	60fb      	str	r3, [r7, #12]
  return (uint8_t)(tens + ((uint32_t)number & 0x0FU));
 80052c4:	68fb      	ldr	r3, [r7, #12]
 80052c6:	b2da      	uxtb	r2, r3
 80052c8:	79fb      	ldrb	r3, [r7, #7]
 80052ca:	f003 030f 	and.w	r3, r3, #15
 80052ce:	b2db      	uxtb	r3, r3
 80052d0:	4413      	add	r3, r2
 80052d2:	b2db      	uxtb	r3, r3
}
 80052d4:	4618      	mov	r0, r3
 80052d6:	3714      	adds	r7, #20
 80052d8:	46bd      	mov	sp, r7
 80052da:	f85d 7b04 	ldr.w	r7, [sp], #4
 80052de:	4770      	bx	lr

080052e0 <HAL_SPI_Init>:
  * @param  hspi pointer to a SPI_HandleTypeDef structure that contains
  *               the configuration information for SPI module.
  * @retval HAL status
  */
HAL_StatusTypeDef HAL_SPI_Init(SPI_HandleTypeDef *hspi)
{
 80052e0:	b580      	push	{r7, lr}
 80052e2:	b082      	sub	sp, #8
 80052e4:	af00      	add	r7, sp, #0
 80052e6:	6078      	str	r0, [r7, #4]
  /* Check the SPI handle allocation */
  if (hspi == NULL)
 80052e8:	687b      	ldr	r3, [r7, #4]
 80052ea:	2b00      	cmp	r3, #0
 80052ec:	d101      	bne.n	80052f2 <HAL_SPI_Init+0x12>
  {
    return HAL_ERROR;
 80052ee:	2301      	movs	r3, #1
 80052f0:	e07b      	b.n	80053ea <HAL_SPI_Init+0x10a>
  assert_param(IS_SPI_DATASIZE(hspi->Init.DataSize));
  assert_param(IS_SPI_NSS(hspi->Init.NSS));
  assert_param(IS_SPI_BAUDRATE_PRESCALER(hspi->Init.BaudRatePrescaler));
  assert_param(IS_SPI_FIRST_BIT(hspi->Init.FirstBit));
  assert_param(IS_SPI_TIMODE(hspi->Init.TIMode));
  if (hspi->Init.TIMode == SPI_TIMODE_DISABLE)
 80052f2:	687b      	ldr	r3, [r7, #4]
 80052f4:	6a5b      	ldr	r3, [r3, #36]	; 0x24
 80052f6:	2b00      	cmp	r3, #0
 80052f8:	d108      	bne.n	800530c <HAL_SPI_Init+0x2c>
  {
    assert_param(IS_SPI_CPOL(hspi->Init.CLKPolarity));
    assert_param(IS_SPI_CPHA(hspi->Init.CLKPhase));

    if (hspi->Init.Mode == SPI_MODE_MASTER)
 80052fa:	687b      	ldr	r3, [r7, #4]
 80052fc:	685b      	ldr	r3, [r3, #4]
 80052fe:	f5b3 7f82 	cmp.w	r3, #260	; 0x104
 8005302:	d009      	beq.n	8005318 <HAL_SPI_Init+0x38>
      assert_param(IS_SPI_BAUDRATE_PRESCALER(hspi->Init.BaudRatePrescaler));
    }
    else
    {
      /* Baudrate prescaler not use in Motoraola Slave mode. force to default value */
      hspi->Init.BaudRatePrescaler = SPI_BAUDRATEPRESCALER_2;
 8005304:	687b      	ldr	r3, [r7, #4]
 8005306:	2200      	movs	r2, #0
 8005308:	61da      	str	r2, [r3, #28]
 800530a:	e005      	b.n	8005318 <HAL_SPI_Init+0x38>
  else
  {
    assert_param(IS_SPI_BAUDRATE_PRESCALER(hspi->Init.BaudRatePrescaler));

    /* Force polarity and phase to TI protocaol requirements */
    hspi->Init.CLKPolarity = SPI_POLARITY_LOW;
 800530c:	687b      	ldr	r3, [r7, #4]
 800530e:	2200      	movs	r2, #0
 8005310:	611a      	str	r2, [r3, #16]
    hspi->Init.CLKPhase    = SPI_PHASE_1EDGE;
 8005312:	687b      	ldr	r3, [r7, #4]
 8005314:	2200      	movs	r2, #0
 8005316:	615a      	str	r2, [r3, #20]
  if (hspi->Init.CRCCalculation == SPI_CRCCALCULATION_ENABLE)
  {
    assert_param(IS_SPI_CRC_POLYNOMIAL(hspi->Init.CRCPolynomial));
  }
#else
  hspi->Init.CRCCalculation = SPI_CRCCALCULATION_DISABLE;
 8005318:	687b      	ldr	r3, [r7, #4]
 800531a:	2200      	movs	r2, #0
 800531c:	629a      	str	r2, [r3, #40]	; 0x28
#endif /* USE_SPI_CRC */

  if (hspi->State == HAL_SPI_STATE_RESET)
 800531e:	687b      	ldr	r3, [r7, #4]
 8005320:	f893 3051 	ldrb.w	r3, [r3, #81]	; 0x51
 8005324:	b2db      	uxtb	r3, r3
 8005326:	2b00      	cmp	r3, #0
 8005328:	d106      	bne.n	8005338 <HAL_SPI_Init+0x58>
  {
    /* Allocate lock resource and initialize it */
    hspi->Lock = HAL_UNLOCKED;
 800532a:	687b      	ldr	r3, [r7, #4]
 800532c:	2200      	movs	r2, #0
 800532e:	f883 2050 	strb.w	r2, [r3, #80]	; 0x50

    /* Init the low level hardware : GPIO, CLOCK, NVIC... */
    hspi->MspInitCallback(hspi);
#else
    /* Init the low level hardware : GPIO, CLOCK, NVIC... */
    HAL_SPI_MspInit(hspi);
 8005332:	6878      	ldr	r0, [r7, #4]
 8005334:	f7fc ff08 	bl	8002148 <HAL_SPI_MspInit>
#endif /* USE_HAL_SPI_REGISTER_CALLBACKS */
  }

  hspi->State = HAL_SPI_STATE_BUSY;
 8005338:	687b      	ldr	r3, [r7, #4]
 800533a:	2202      	movs	r2, #2
 800533c:	f883 2051 	strb.w	r2, [r3, #81]	; 0x51

  /* Disable the selected SPI peripheral */
  __HAL_SPI_DISABLE(hspi);
 8005340:	687b      	ldr	r3, [r7, #4]
 8005342:	681b      	ldr	r3, [r3, #0]
 8005344:	681a      	ldr	r2, [r3, #0]
 8005346:	687b      	ldr	r3, [r7, #4]
 8005348:	681b      	ldr	r3, [r3, #0]
 800534a:	f022 0240 	bic.w	r2, r2, #64	; 0x40
 800534e:	601a      	str	r2, [r3, #0]

  /*----------------------- SPIx CR1 & CR2 Configuration ---------------------*/
  /* Configure : SPI Mode, Communication Mode, Data size, Clock polarity and phase, NSS management,
  Communication speed, First bit and CRC calculation state */
  WRITE_REG(hspi->Instance->CR1, ((hspi->Init.Mode & (SPI_CR1_MSTR | SPI_CR1_SSI)) |
 8005350:	687b      	ldr	r3, [r7, #4]
 8005352:	685b      	ldr	r3, [r3, #4]
 8005354:	f403 7282 	and.w	r2, r3, #260	; 0x104
 8005358:	687b      	ldr	r3, [r7, #4]
 800535a:	689b      	ldr	r3, [r3, #8]
 800535c:	f403 4304 	and.w	r3, r3, #33792	; 0x8400
 8005360:	431a      	orrs	r2, r3
 8005362:	687b      	ldr	r3, [r7, #4]
 8005364:	68db      	ldr	r3, [r3, #12]
 8005366:	f403 6300 	and.w	r3, r3, #2048	; 0x800
 800536a:	431a      	orrs	r2, r3
 800536c:	687b      	ldr	r3, [r7, #4]
 800536e:	691b      	ldr	r3, [r3, #16]
 8005370:	f003 0302 	and.w	r3, r3, #2
 8005374:	431a      	orrs	r2, r3
 8005376:	687b      	ldr	r3, [r7, #4]
 8005378:	695b      	ldr	r3, [r3, #20]
 800537a:	f003 0301 	and.w	r3, r3, #1
 800537e:	431a      	orrs	r2, r3
 8005380:	687b      	ldr	r3, [r7, #4]
 8005382:	699b      	ldr	r3, [r3, #24]
 8005384:	f403 7300 	and.w	r3, r3, #512	; 0x200
 8005388:	431a      	orrs	r2, r3
 800538a:	687b      	ldr	r3, [r7, #4]
 800538c:	69db      	ldr	r3, [r3, #28]
 800538e:	f003 0338 	and.w	r3, r3, #56	; 0x38
 8005392:	431a      	orrs	r2, r3
 8005394:	687b      	ldr	r3, [r7, #4]
 8005396:	6a1b      	ldr	r3, [r3, #32]
 8005398:	f003 0380 	and.w	r3, r3, #128	; 0x80
 800539c:	ea42 0103 	orr.w	r1, r2, r3
 80053a0:	687b      	ldr	r3, [r7, #4]
 80053a2:	6a9b      	ldr	r3, [r3, #40]	; 0x28
 80053a4:	f403 5200 	and.w	r2, r3, #8192	; 0x2000
 80053a8:	687b      	ldr	r3, [r7, #4]
 80053aa:	681b      	ldr	r3, [r3, #0]
 80053ac:	430a      	orrs	r2, r1
 80053ae:	601a      	str	r2, [r3, #0]
                                  (hspi->Init.BaudRatePrescaler & SPI_CR1_BR_Msk) |
                                  (hspi->Init.FirstBit  & SPI_CR1_LSBFIRST) |
                                  (hspi->Init.CRCCalculation & SPI_CR1_CRCEN)));

  /* Configure : NSS management, TI Mode */
  WRITE_REG(hspi->Instance->CR2, (((hspi->Init.NSS >> 16U) & SPI_CR2_SSOE) | (hspi->Init.TIMode & SPI_CR2_FRF)));
 80053b0:	687b      	ldr	r3, [r7, #4]
 80053b2:	699b      	ldr	r3, [r3, #24]
 80053b4:	0c1b      	lsrs	r3, r3, #16
 80053b6:	f003 0104 	and.w	r1, r3, #4
 80053ba:	687b      	ldr	r3, [r7, #4]
 80053bc:	6a5b      	ldr	r3, [r3, #36]	; 0x24
 80053be:	f003 0210 	and.w	r2, r3, #16
 80053c2:	687b      	ldr	r3, [r7, #4]
 80053c4:	681b      	ldr	r3, [r3, #0]
 80053c6:	430a      	orrs	r2, r1
 80053c8:	605a      	str	r2, [r3, #4]
  }
#endif /* USE_SPI_CRC */

#if defined(SPI_I2SCFGR_I2SMOD)
  /* Activate the SPI mode (Make sure that I2SMOD bit in I2SCFGR register is reset) */
  CLEAR_BIT(hspi->Instance->I2SCFGR, SPI_I2SCFGR_I2SMOD);
 80053ca:	687b      	ldr	r3, [r7, #4]
 80053cc:	681b      	ldr	r3, [r3, #0]
 80053ce:	69da      	ldr	r2, [r3, #28]
 80053d0:	687b      	ldr	r3, [r7, #4]
 80053d2:	681b      	ldr	r3, [r3, #0]
 80053d4:	f422 6200 	bic.w	r2, r2, #2048	; 0x800
 80053d8:	61da      	str	r2, [r3, #28]
#endif /* SPI_I2SCFGR_I2SMOD */

  hspi->ErrorCode = HAL_SPI_ERROR_NONE;
 80053da:	687b      	ldr	r3, [r7, #4]
 80053dc:	2200      	movs	r2, #0
 80053de:	655a      	str	r2, [r3, #84]	; 0x54
  hspi->State     = HAL_SPI_STATE_READY;
 80053e0:	687b      	ldr	r3, [r7, #4]
 80053e2:	2201      	movs	r2, #1
 80053e4:	f883 2051 	strb.w	r2, [r3, #81]	; 0x51

  return HAL_OK;
 80053e8:	2300      	movs	r3, #0
}
 80053ea:	4618      	mov	r0, r3
 80053ec:	3708      	adds	r7, #8
 80053ee:	46bd      	mov	sp, r7
 80053f0:	bd80      	pop	{r7, pc}

080053f2 <HAL_SPI_Transmit>:
  * @param  Size amount of data to be sent
  * @param  Timeout Timeout duration
  * @retval HAL status
  */
HAL_StatusTypeDef HAL_SPI_Transmit(SPI_HandleTypeDef *hspi, uint8_t *pData, uint16_t Size, uint32_t Timeout)
{
 80053f2:	b580      	push	{r7, lr}
 80053f4:	b088      	sub	sp, #32
 80053f6:	af00      	add	r7, sp, #0
 80053f8:	60f8      	str	r0, [r7, #12]
 80053fa:	60b9      	str	r1, [r7, #8]
 80053fc:	603b      	str	r3, [r7, #0]
 80053fe:	4613      	mov	r3, r2
 8005400:	80fb      	strh	r3, [r7, #6]
  uint32_t tickstart;
  HAL_StatusTypeDef errorcode = HAL_OK;
 8005402:	2300      	movs	r3, #0
 8005404:	77fb      	strb	r3, [r7, #31]

  /* Check Direction parameter */
  assert_param(IS_SPI_DIRECTION_2LINES_OR_1LINE(hspi->Init.Direction));

  /* Process Locked */
  __HAL_LOCK(hspi);
 8005406:	68fb      	ldr	r3, [r7, #12]
 8005408:	f893 3050 	ldrb.w	r3, [r3, #80]	; 0x50
 800540c:	2b01      	cmp	r3, #1
 800540e:	d101      	bne.n	8005414 <HAL_SPI_Transmit+0x22>
 8005410:	2302      	movs	r3, #2
 8005412:	e12d      	b.n	8005670 <HAL_SPI_Transmit+0x27e>
 8005414:	68fb      	ldr	r3, [r7, #12]
 8005416:	2201      	movs	r2, #1
 8005418:	f883 2050 	strb.w	r2, [r3, #80]	; 0x50

  /* Init tickstart for timeout management*/
  tickstart = HAL_GetTick();
 800541c:	f7fd f8e4 	bl	80025e8 <HAL_GetTick>
 8005420:	61b8      	str	r0, [r7, #24]
  initial_TxXferCount = Size;
 8005422:	88fb      	ldrh	r3, [r7, #6]
 8005424:	82fb      	strh	r3, [r7, #22]

  if (hspi->State != HAL_SPI_STATE_READY)
 8005426:	68fb      	ldr	r3, [r7, #12]
 8005428:	f893 3051 	ldrb.w	r3, [r3, #81]	; 0x51
 800542c:	b2db      	uxtb	r3, r3
 800542e:	2b01      	cmp	r3, #1
 8005430:	d002      	beq.n	8005438 <HAL_SPI_Transmit+0x46>
  {
    errorcode = HAL_BUSY;
 8005432:	2302      	movs	r3, #2
 8005434:	77fb      	strb	r3, [r7, #31]
    goto error;
 8005436:	e116      	b.n	8005666 <HAL_SPI_Transmit+0x274>
  }

  if ((pData == NULL) || (Size == 0U))
 8005438:	68bb      	ldr	r3, [r7, #8]
 800543a:	2b00      	cmp	r3, #0
 800543c:	d002      	beq.n	8005444 <HAL_SPI_Transmit+0x52>
 800543e:	88fb      	ldrh	r3, [r7, #6]
 8005440:	2b00      	cmp	r3, #0
 8005442:	d102      	bne.n	800544a <HAL_SPI_Transmit+0x58>
  {
    errorcode = HAL_ERROR;
 8005444:	2301      	movs	r3, #1
 8005446:	77fb      	strb	r3, [r7, #31]
    goto error;
 8005448:	e10d      	b.n	8005666 <HAL_SPI_Transmit+0x274>
  }

  /* Set the transaction information */
  hspi->State       = HAL_SPI_STATE_BUSY_TX;
 800544a:	68fb      	ldr	r3, [r7, #12]
 800544c:	2203      	movs	r2, #3
 800544e:	f883 2051 	strb.w	r2, [r3, #81]	; 0x51
  hspi->ErrorCode   = HAL_SPI_ERROR_NONE;
 8005452:	68fb      	ldr	r3, [r7, #12]
 8005454:	2200      	movs	r2, #0
 8005456:	655a      	str	r2, [r3, #84]	; 0x54
  hspi->pTxBuffPtr  = (uint8_t *)pData;
 8005458:	68fb      	ldr	r3, [r7, #12]
 800545a:	68ba      	ldr	r2, [r7, #8]
 800545c:	631a      	str	r2, [r3, #48]	; 0x30
  hspi->TxXferSize  = Size;
 800545e:	68fb      	ldr	r3, [r7, #12]
 8005460:	88fa      	ldrh	r2, [r7, #6]
 8005462:	869a      	strh	r2, [r3, #52]	; 0x34
  hspi->TxXferCount = Size;
 8005464:	68fb      	ldr	r3, [r7, #12]
 8005466:	88fa      	ldrh	r2, [r7, #6]
 8005468:	86da      	strh	r2, [r3, #54]	; 0x36

  /*Init field not used in handle to zero */
  hspi->pRxBuffPtr  = (uint8_t *)NULL;
 800546a:	68fb      	ldr	r3, [r7, #12]
 800546c:	2200      	movs	r2, #0
 800546e:	639a      	str	r2, [r3, #56]	; 0x38
  hspi->RxXferSize  = 0U;
 8005470:	68fb      	ldr	r3, [r7, #12]
 8005472:	2200      	movs	r2, #0
 8005474:	879a      	strh	r2, [r3, #60]	; 0x3c
  hspi->RxXferCount = 0U;
 8005476:	68fb      	ldr	r3, [r7, #12]
 8005478:	2200      	movs	r2, #0
 800547a:	87da      	strh	r2, [r3, #62]	; 0x3e
  hspi->TxISR       = NULL;
 800547c:	68fb      	ldr	r3, [r7, #12]
 800547e:	2200      	movs	r2, #0
 8005480:	645a      	str	r2, [r3, #68]	; 0x44
  hspi->RxISR       = NULL;
 8005482:	68fb      	ldr	r3, [r7, #12]
 8005484:	2200      	movs	r2, #0
 8005486:	641a      	str	r2, [r3, #64]	; 0x40

  /* Configure communication direction : 1Line */
  if (hspi->Init.Direction == SPI_DIRECTION_1LINE)
 8005488:	68fb      	ldr	r3, [r7, #12]
 800548a:	689b      	ldr	r3, [r3, #8]
 800548c:	f5b3 4f00 	cmp.w	r3, #32768	; 0x8000
 8005490:	d10f      	bne.n	80054b2 <HAL_SPI_Transmit+0xc0>
  {
    /* Disable SPI Peripheral before set 1Line direction (BIDIOE bit) */
    __HAL_SPI_DISABLE(hspi);
 8005492:	68fb      	ldr	r3, [r7, #12]
 8005494:	681b      	ldr	r3, [r3, #0]
 8005496:	681a      	ldr	r2, [r3, #0]
 8005498:	68fb      	ldr	r3, [r7, #12]
 800549a:	681b      	ldr	r3, [r3, #0]
 800549c:	f022 0240 	bic.w	r2, r2, #64	; 0x40
 80054a0:	601a      	str	r2, [r3, #0]
    SPI_1LINE_TX(hspi);
 80054a2:	68fb      	ldr	r3, [r7, #12]
 80054a4:	681b      	ldr	r3, [r3, #0]
 80054a6:	681a      	ldr	r2, [r3, #0]
 80054a8:	68fb      	ldr	r3, [r7, #12]
 80054aa:	681b      	ldr	r3, [r3, #0]
 80054ac:	f442 4280 	orr.w	r2, r2, #16384	; 0x4000
 80054b0:	601a      	str	r2, [r3, #0]
    SPI_RESET_CRC(hspi);
  }
#endif /* USE_SPI_CRC */

  /* Check if the SPI is already enabled */
  if ((hspi->Instance->CR1 & SPI_CR1_SPE) != SPI_CR1_SPE)
 80054b2:	68fb      	ldr	r3, [r7, #12]
 80054b4:	681b      	ldr	r3, [r3, #0]
 80054b6:	681b      	ldr	r3, [r3, #0]
 80054b8:	f003 0340 	and.w	r3, r3, #64	; 0x40
 80054bc:	2b40      	cmp	r3, #64	; 0x40
 80054be:	d007      	beq.n	80054d0 <HAL_SPI_Transmit+0xde>
  {
    /* Enable SPI peripheral */
    __HAL_SPI_ENABLE(hspi);
 80054c0:	68fb      	ldr	r3, [r7, #12]
 80054c2:	681b      	ldr	r3, [r3, #0]
 80054c4:	681a      	ldr	r2, [r3, #0]
 80054c6:	68fb      	ldr	r3, [r7, #12]
 80054c8:	681b      	ldr	r3, [r3, #0]
 80054ca:	f042 0240 	orr.w	r2, r2, #64	; 0x40
 80054ce:	601a      	str	r2, [r3, #0]
  }

  /* Transmit data in 16 Bit mode */
  if (hspi->Init.DataSize == SPI_DATASIZE_16BIT)
 80054d0:	68fb      	ldr	r3, [r7, #12]
 80054d2:	68db      	ldr	r3, [r3, #12]
 80054d4:	f5b3 6f00 	cmp.w	r3, #2048	; 0x800
 80054d8:	d14f      	bne.n	800557a <HAL_SPI_Transmit+0x188>
  {
    if ((hspi->Init.Mode == SPI_MODE_SLAVE) || (initial_TxXferCount == 0x01U))
 80054da:	68fb      	ldr	r3, [r7, #12]
 80054dc:	685b      	ldr	r3, [r3, #4]
 80054de:	2b00      	cmp	r3, #0
 80054e0:	d002      	beq.n	80054e8 <HAL_SPI_Transmit+0xf6>
 80054e2:	8afb      	ldrh	r3, [r7, #22]
 80054e4:	2b01      	cmp	r3, #1
 80054e6:	d142      	bne.n	800556e <HAL_SPI_Transmit+0x17c>
    {
      hspi->Instance->DR = *((uint16_t *)hspi->pTxBuffPtr);
 80054e8:	68fb      	ldr	r3, [r7, #12]
 80054ea:	6b1b      	ldr	r3, [r3, #48]	; 0x30
 80054ec:	881a      	ldrh	r2, [r3, #0]
 80054ee:	68fb      	ldr	r3, [r7, #12]
 80054f0:	681b      	ldr	r3, [r3, #0]
 80054f2:	60da      	str	r2, [r3, #12]
      hspi->pTxBuffPtr += sizeof(uint16_t);
 80054f4:	68fb      	ldr	r3, [r7, #12]
 80054f6:	6b1b      	ldr	r3, [r3, #48]	; 0x30
 80054f8:	1c9a      	adds	r2, r3, #2
 80054fa:	68fb      	ldr	r3, [r7, #12]
 80054fc:	631a      	str	r2, [r3, #48]	; 0x30
      hspi->TxXferCount--;
 80054fe:	68fb      	ldr	r3, [r7, #12]
 8005500:	8edb      	ldrh	r3, [r3, #54]	; 0x36
 8005502:	b29b      	uxth	r3, r3
 8005504:	3b01      	subs	r3, #1
 8005506:	b29a      	uxth	r2, r3
 8005508:	68fb      	ldr	r3, [r7, #12]
 800550a:	86da      	strh	r2, [r3, #54]	; 0x36
    }
    /* Transmit data in 16 Bit mode */
    while (hspi->TxXferCount > 0U)
 800550c:	e02f      	b.n	800556e <HAL_SPI_Transmit+0x17c>
    {
      /* Wait until TXE flag is set to send data */
      if (__HAL_SPI_GET_FLAG(hspi, SPI_FLAG_TXE))
 800550e:	68fb      	ldr	r3, [r7, #12]
 8005510:	681b      	ldr	r3, [r3, #0]
 8005512:	689b      	ldr	r3, [r3, #8]
 8005514:	f003 0302 	and.w	r3, r3, #2
 8005518:	2b02      	cmp	r3, #2
 800551a:	d112      	bne.n	8005542 <HAL_SPI_Transmit+0x150>
      {
        hspi->Instance->DR = *((uint16_t *)hspi->pTxBuffPtr);
 800551c:	68fb      	ldr	r3, [r7, #12]
 800551e:	6b1b      	ldr	r3, [r3, #48]	; 0x30
 8005520:	881a      	ldrh	r2, [r3, #0]
 8005522:	68fb      	ldr	r3, [r7, #12]
 8005524:	681b      	ldr	r3, [r3, #0]
 8005526:	60da      	str	r2, [r3, #12]
        hspi->pTxBuffPtr += sizeof(uint16_t);
 8005528:	68fb      	ldr	r3, [r7, #12]
 800552a:	6b1b      	ldr	r3, [r3, #48]	; 0x30
 800552c:	1c9a      	adds	r2, r3, #2
 800552e:	68fb      	ldr	r3, [r7, #12]
 8005530:	631a      	str	r2, [r3, #48]	; 0x30
        hspi->TxXferCount--;
 8005532:	68fb      	ldr	r3, [r7, #12]
 8005534:	8edb      	ldrh	r3, [r3, #54]	; 0x36
 8005536:	b29b      	uxth	r3, r3
 8005538:	3b01      	subs	r3, #1
 800553a:	b29a      	uxth	r2, r3
 800553c:	68fb      	ldr	r3, [r7, #12]
 800553e:	86da      	strh	r2, [r3, #54]	; 0x36
 8005540:	e015      	b.n	800556e <HAL_SPI_Transmit+0x17c>
      }
      else
      {
        /* Timeout management */
        if ((((HAL_GetTick() - tickstart) >=  Timeout) && (Timeout != HAL_MAX_DELAY)) || (Timeout == 0U))
 8005542:	f7fd f851 	bl	80025e8 <HAL_GetTick>
 8005546:	4602      	mov	r2, r0
 8005548:	69bb      	ldr	r3, [r7, #24]
 800554a:	1ad3      	subs	r3, r2, r3
 800554c:	683a      	ldr	r2, [r7, #0]
 800554e:	429a      	cmp	r2, r3
 8005550:	d803      	bhi.n	800555a <HAL_SPI_Transmit+0x168>
 8005552:	683b      	ldr	r3, [r7, #0]
 8005554:	f1b3 3fff 	cmp.w	r3, #4294967295	; 0xffffffff
 8005558:	d102      	bne.n	8005560 <HAL_SPI_Transmit+0x16e>
 800555a:	683b      	ldr	r3, [r7, #0]
 800555c:	2b00      	cmp	r3, #0
 800555e:	d106      	bne.n	800556e <HAL_SPI_Transmit+0x17c>
        {
          errorcode = HAL_TIMEOUT;
 8005560:	2303      	movs	r3, #3
 8005562:	77fb      	strb	r3, [r7, #31]
          hspi->State = HAL_SPI_STATE_READY;
 8005564:	68fb      	ldr	r3, [r7, #12]
 8005566:	2201      	movs	r2, #1
 8005568:	f883 2051 	strb.w	r2, [r3, #81]	; 0x51
          goto error;
 800556c:	e07b      	b.n	8005666 <HAL_SPI_Transmit+0x274>
    while (hspi->TxXferCount > 0U)
 800556e:	68fb      	ldr	r3, [r7, #12]
 8005570:	8edb      	ldrh	r3, [r3, #54]	; 0x36
 8005572:	b29b      	uxth	r3, r3
 8005574:	2b00      	cmp	r3, #0
 8005576:	d1ca      	bne.n	800550e <HAL_SPI_Transmit+0x11c>
 8005578:	e050      	b.n	800561c <HAL_SPI_Transmit+0x22a>
    }
  }
  /* Transmit data in 8 Bit mode */
  else
  {
    if ((hspi->Init.Mode == SPI_MODE_SLAVE) || (initial_TxXferCount == 0x01U))
 800557a:	68fb      	ldr	r3, [r7, #12]
 800557c:	685b      	ldr	r3, [r3, #4]
 800557e:	2b00      	cmp	r3, #0
 8005580:	d002      	beq.n	8005588 <HAL_SPI_Transmit+0x196>
 8005582:	8afb      	ldrh	r3, [r7, #22]
 8005584:	2b01      	cmp	r3, #1
 8005586:	d144      	bne.n	8005612 <HAL_SPI_Transmit+0x220>
    {
      *((__IO uint8_t *)&hspi->Instance->DR) = (*hspi->pTxBuffPtr);
 8005588:	68fb      	ldr	r3, [r7, #12]
 800558a:	6b1a      	ldr	r2, [r3, #48]	; 0x30
 800558c:	68fb      	ldr	r3, [r7, #12]
 800558e:	681b      	ldr	r3, [r3, #0]
 8005590:	330c      	adds	r3, #12
 8005592:	7812      	ldrb	r2, [r2, #0]
 8005594:	701a      	strb	r2, [r3, #0]
      hspi->pTxBuffPtr += sizeof(uint8_t);
 8005596:	68fb      	ldr	r3, [r7, #12]
 8005598:	6b1b      	ldr	r3, [r3, #48]	; 0x30
 800559a:	1c5a      	adds	r2, r3, #1
 800559c:	68fb      	ldr	r3, [r7, #12]
 800559e:	631a      	str	r2, [r3, #48]	; 0x30
      hspi->TxXferCount--;
 80055a0:	68fb      	ldr	r3, [r7, #12]
 80055a2:	8edb      	ldrh	r3, [r3, #54]	; 0x36
 80055a4:	b29b      	uxth	r3, r3
 80055a6:	3b01      	subs	r3, #1
 80055a8:	b29a      	uxth	r2, r3
 80055aa:	68fb      	ldr	r3, [r7, #12]
 80055ac:	86da      	strh	r2, [r3, #54]	; 0x36
    }
    while (hspi->TxXferCount > 0U)
 80055ae:	e030      	b.n	8005612 <HAL_SPI_Transmit+0x220>
    {
      /* Wait until TXE flag is set to send data */
      if (__HAL_SPI_GET_FLAG(hspi, SPI_FLAG_TXE))
 80055b0:	68fb      	ldr	r3, [r7, #12]
 80055b2:	681b      	ldr	r3, [r3, #0]
 80055b4:	689b      	ldr	r3, [r3, #8]
 80055b6:	f003 0302 	and.w	r3, r3, #2
 80055ba:	2b02      	cmp	r3, #2
 80055bc:	d113      	bne.n	80055e6 <HAL_SPI_Transmit+0x1f4>
      {
        *((__IO uint8_t *)&hspi->Instance->DR) = (*hspi->pTxBuffPtr);
 80055be:	68fb      	ldr	r3, [r7, #12]
 80055c0:	6b1a      	ldr	r2, [r3, #48]	; 0x30
 80055c2:	68fb      	ldr	r3, [r7, #12]
 80055c4:	681b      	ldr	r3, [r3, #0]
 80055c6:	330c      	adds	r3, #12
 80055c8:	7812      	ldrb	r2, [r2, #0]
 80055ca:	701a      	strb	r2, [r3, #0]
        hspi->pTxBuffPtr += sizeof(uint8_t);
 80055cc:	68fb      	ldr	r3, [r7, #12]
 80055ce:	6b1b      	ldr	r3, [r3, #48]	; 0x30
 80055d0:	1c5a      	adds	r2, r3, #1
 80055d2:	68fb      	ldr	r3, [r7, #12]
 80055d4:	631a      	str	r2, [r3, #48]	; 0x30
        hspi->TxXferCount--;
 80055d6:	68fb      	ldr	r3, [r7, #12]
 80055d8:	8edb      	ldrh	r3, [r3, #54]	; 0x36
 80055da:	b29b      	uxth	r3, r3
 80055dc:	3b01      	subs	r3, #1
 80055de:	b29a      	uxth	r2, r3
 80055e0:	68fb      	ldr	r3, [r7, #12]
 80055e2:	86da      	strh	r2, [r3, #54]	; 0x36
 80055e4:	e015      	b.n	8005612 <HAL_SPI_Transmit+0x220>
      }
      else
      {
        /* Timeout management */
        if ((((HAL_GetTick() - tickstart) >=  Timeout) && (Timeout != HAL_MAX_DELAY)) || (Timeout == 0U))
 80055e6:	f7fc ffff 	bl	80025e8 <HAL_GetTick>
 80055ea:	4602      	mov	r2, r0
 80055ec:	69bb      	ldr	r3, [r7, #24]
 80055ee:	1ad3      	subs	r3, r2, r3
 80055f0:	683a      	ldr	r2, [r7, #0]
 80055f2:	429a      	cmp	r2, r3
 80055f4:	d803      	bhi.n	80055fe <HAL_SPI_Transmit+0x20c>
 80055f6:	683b      	ldr	r3, [r7, #0]
 80055f8:	f1b3 3fff 	cmp.w	r3, #4294967295	; 0xffffffff
 80055fc:	d102      	bne.n	8005604 <HAL_SPI_Transmit+0x212>
 80055fe:	683b      	ldr	r3, [r7, #0]
 8005600:	2b00      	cmp	r3, #0
 8005602:	d106      	bne.n	8005612 <HAL_SPI_Transmit+0x220>
        {
          errorcode = HAL_TIMEOUT;
 8005604:	2303      	movs	r3, #3
 8005606:	77fb      	strb	r3, [r7, #31]
          hspi->State = HAL_SPI_STATE_READY;
 8005608:	68fb      	ldr	r3, [r7, #12]
 800560a:	2201      	movs	r2, #1
 800560c:	f883 2051 	strb.w	r2, [r3, #81]	; 0x51
          goto error;
 8005610:	e029      	b.n	8005666 <HAL_SPI_Transmit+0x274>
    while (hspi->TxXferCount > 0U)
 8005612:	68fb      	ldr	r3, [r7, #12]
 8005614:	8edb      	ldrh	r3, [r3, #54]	; 0x36
 8005616:	b29b      	uxth	r3, r3
 8005618:	2b00      	cmp	r3, #0
 800561a:	d1c9      	bne.n	80055b0 <HAL_SPI_Transmit+0x1be>
    SET_BIT(hspi->Instance->CR1, SPI_CR1_CRCNEXT);
  }
#endif /* USE_SPI_CRC */

  /* Check the end of the transaction */
  if (SPI_EndRxTxTransaction(hspi, Timeout, tickstart) != HAL_OK)
 800561c:	69ba      	ldr	r2, [r7, #24]
 800561e:	6839      	ldr	r1, [r7, #0]
 8005620:	68f8      	ldr	r0, [r7, #12]
 8005622:	f000 fbdf 	bl	8005de4 <SPI_EndRxTxTransaction>
 8005626:	4603      	mov	r3, r0
 8005628:	2b00      	cmp	r3, #0
 800562a:	d002      	beq.n	8005632 <HAL_SPI_Transmit+0x240>
  {
    hspi->ErrorCode = HAL_SPI_ERROR_FLAG;
 800562c:	68fb      	ldr	r3, [r7, #12]
 800562e:	2220      	movs	r2, #32
 8005630:	655a      	str	r2, [r3, #84]	; 0x54
  }

  /* Clear overrun flag in 2 Lines communication mode because received is not read */
  if (hspi->Init.Direction == SPI_DIRECTION_2LINES)
 8005632:	68fb      	ldr	r3, [r7, #12]
 8005634:	689b      	ldr	r3, [r3, #8]
 8005636:	2b00      	cmp	r3, #0
 8005638:	d10a      	bne.n	8005650 <HAL_SPI_Transmit+0x25e>
  {
    __HAL_SPI_CLEAR_OVRFLAG(hspi);
 800563a:	2300      	movs	r3, #0
 800563c:	613b      	str	r3, [r7, #16]
 800563e:	68fb      	ldr	r3, [r7, #12]
 8005640:	681b      	ldr	r3, [r3, #0]
 8005642:	68db      	ldr	r3, [r3, #12]
 8005644:	613b      	str	r3, [r7, #16]
 8005646:	68fb      	ldr	r3, [r7, #12]
 8005648:	681b      	ldr	r3, [r3, #0]
 800564a:	689b      	ldr	r3, [r3, #8]
 800564c:	613b      	str	r3, [r7, #16]
 800564e:	693b      	ldr	r3, [r7, #16]
  }

  if (hspi->ErrorCode != HAL_SPI_ERROR_NONE)
 8005650:	68fb      	ldr	r3, [r7, #12]
 8005652:	6d5b      	ldr	r3, [r3, #84]	; 0x54
 8005654:	2b00      	cmp	r3, #0
 8005656:	d002      	beq.n	800565e <HAL_SPI_Transmit+0x26c>
  {
    errorcode = HAL_ERROR;
 8005658:	2301      	movs	r3, #1
 800565a:	77fb      	strb	r3, [r7, #31]
 800565c:	e003      	b.n	8005666 <HAL_SPI_Transmit+0x274>
  }
  else
  {
    hspi->State = HAL_SPI_STATE_READY;
 800565e:	68fb      	ldr	r3, [r7, #12]
 8005660:	2201      	movs	r2, #1
 8005662:	f883 2051 	strb.w	r2, [r3, #81]	; 0x51
  }

error:
  /* Process Unlocked */
  __HAL_UNLOCK(hspi);
 8005666:	68fb      	ldr	r3, [r7, #12]
 8005668:	2200      	movs	r2, #0
 800566a:	f883 2050 	strb.w	r2, [r3, #80]	; 0x50
  return errorcode;
 800566e:	7ffb      	ldrb	r3, [r7, #31]
}
 8005670:	4618      	mov	r0, r3
 8005672:	3720      	adds	r7, #32
 8005674:	46bd      	mov	sp, r7
 8005676:	bd80      	pop	{r7, pc}

08005678 <HAL_SPI_Receive>:
  * @param  Size amount of data to be received
  * @param  Timeout Timeout duration
  * @retval HAL status
  */
HAL_StatusTypeDef HAL_SPI_Receive(SPI_HandleTypeDef *hspi, uint8_t *pData, uint16_t Size, uint32_t Timeout)
{
 8005678:	b580      	push	{r7, lr}
 800567a:	b088      	sub	sp, #32
 800567c:	af02      	add	r7, sp, #8
 800567e:	60f8      	str	r0, [r7, #12]
 8005680:	60b9      	str	r1, [r7, #8]
 8005682:	603b      	str	r3, [r7, #0]
 8005684:	4613      	mov	r3, r2
 8005686:	80fb      	strh	r3, [r7, #6]
#if (USE_SPI_CRC != 0U)
  __IO uint32_t tmpreg = 0U;
#endif /* USE_SPI_CRC */
  uint32_t tickstart;
  HAL_StatusTypeDef errorcode = HAL_OK;
 8005688:	2300      	movs	r3, #0
 800568a:	75fb      	strb	r3, [r7, #23]

  if (hspi->State != HAL_SPI_STATE_READY)
 800568c:	68fb      	ldr	r3, [r7, #12]
 800568e:	f893 3051 	ldrb.w	r3, [r3, #81]	; 0x51
 8005692:	b2db      	uxtb	r3, r3
 8005694:	2b01      	cmp	r3, #1
 8005696:	d002      	beq.n	800569e <HAL_SPI_Receive+0x26>
  {
    errorcode = HAL_BUSY;
 8005698:	2302      	movs	r3, #2
 800569a:	75fb      	strb	r3, [r7, #23]
    goto error;
 800569c:	e0fb      	b.n	8005896 <HAL_SPI_Receive+0x21e>
  }

  if ((hspi->Init.Mode == SPI_MODE_MASTER) && (hspi->Init.Direction == SPI_DIRECTION_2LINES))
 800569e:	68fb      	ldr	r3, [r7, #12]
 80056a0:	685b      	ldr	r3, [r3, #4]
 80056a2:	f5b3 7f82 	cmp.w	r3, #260	; 0x104
 80056a6:	d112      	bne.n	80056ce <HAL_SPI_Receive+0x56>
 80056a8:	68fb      	ldr	r3, [r7, #12]
 80056aa:	689b      	ldr	r3, [r3, #8]
 80056ac:	2b00      	cmp	r3, #0
 80056ae:	d10e      	bne.n	80056ce <HAL_SPI_Receive+0x56>
  {
    hspi->State = HAL_SPI_STATE_BUSY_RX;
 80056b0:	68fb      	ldr	r3, [r7, #12]
 80056b2:	2204      	movs	r2, #4
 80056b4:	f883 2051 	strb.w	r2, [r3, #81]	; 0x51
    /* Call transmit-receive function to send Dummy data on Tx line and generate clock on CLK line */
    return HAL_SPI_TransmitReceive(hspi, pData, pData, Size, Timeout);
 80056b8:	88fa      	ldrh	r2, [r7, #6]
 80056ba:	683b      	ldr	r3, [r7, #0]
 80056bc:	9300      	str	r3, [sp, #0]
 80056be:	4613      	mov	r3, r2
 80056c0:	68ba      	ldr	r2, [r7, #8]
 80056c2:	68b9      	ldr	r1, [r7, #8]
 80056c4:	68f8      	ldr	r0, [r7, #12]
 80056c6:	f000 f8ef 	bl	80058a8 <HAL_SPI_TransmitReceive>
 80056ca:	4603      	mov	r3, r0
 80056cc:	e0e8      	b.n	80058a0 <HAL_SPI_Receive+0x228>
  }

  /* Process Locked */
  __HAL_LOCK(hspi);
 80056ce:	68fb      	ldr	r3, [r7, #12]
 80056d0:	f893 3050 	ldrb.w	r3, [r3, #80]	; 0x50
 80056d4:	2b01      	cmp	r3, #1
 80056d6:	d101      	bne.n	80056dc <HAL_SPI_Receive+0x64>
 80056d8:	2302      	movs	r3, #2
 80056da:	e0e1      	b.n	80058a0 <HAL_SPI_Receive+0x228>
 80056dc:	68fb      	ldr	r3, [r7, #12]
 80056de:	2201      	movs	r2, #1
 80056e0:	f883 2050 	strb.w	r2, [r3, #80]	; 0x50

  /* Init tickstart for timeout management*/
  tickstart = HAL_GetTick();
 80056e4:	f7fc ff80 	bl	80025e8 <HAL_GetTick>
 80056e8:	6138      	str	r0, [r7, #16]

  if ((pData == NULL) || (Size == 0U))
 80056ea:	68bb      	ldr	r3, [r7, #8]
 80056ec:	2b00      	cmp	r3, #0
 80056ee:	d002      	beq.n	80056f6 <HAL_SPI_Receive+0x7e>
 80056f0:	88fb      	ldrh	r3, [r7, #6]
 80056f2:	2b00      	cmp	r3, #0
 80056f4:	d102      	bne.n	80056fc <HAL_SPI_Receive+0x84>
  {
    errorcode = HAL_ERROR;
 80056f6:	2301      	movs	r3, #1
 80056f8:	75fb      	strb	r3, [r7, #23]
    goto error;
 80056fa:	e0cc      	b.n	8005896 <HAL_SPI_Receive+0x21e>
  }

  /* Set the transaction information */
  hspi->State       = HAL_SPI_STATE_BUSY_RX;
 80056fc:	68fb      	ldr	r3, [r7, #12]
 80056fe:	2204      	movs	r2, #4
 8005700:	f883 2051 	strb.w	r2, [r3, #81]	; 0x51
  hspi->ErrorCode   = HAL_SPI_ERROR_NONE;
 8005704:	68fb      	ldr	r3, [r7, #12]
 8005706:	2200      	movs	r2, #0
 8005708:	655a      	str	r2, [r3, #84]	; 0x54
  hspi->pRxBuffPtr  = (uint8_t *)pData;
 800570a:	68fb      	ldr	r3, [r7, #12]
 800570c:	68ba      	ldr	r2, [r7, #8]
 800570e:	639a      	str	r2, [r3, #56]	; 0x38
  hspi->RxXferSize  = Size;
 8005710:	68fb      	ldr	r3, [r7, #12]
 8005712:	88fa      	ldrh	r2, [r7, #6]
 8005714:	879a      	strh	r2, [r3, #60]	; 0x3c
  hspi->RxXferCount = Size;
 8005716:	68fb      	ldr	r3, [r7, #12]
 8005718:	88fa      	ldrh	r2, [r7, #6]
 800571a:	87da      	strh	r2, [r3, #62]	; 0x3e

  /*Init field not used in handle to zero */
  hspi->pTxBuffPtr  = (uint8_t *)NULL;
 800571c:	68fb      	ldr	r3, [r7, #12]
 800571e:	2200      	movs	r2, #0
 8005720:	631a      	str	r2, [r3, #48]	; 0x30
  hspi->TxXferSize  = 0U;
 8005722:	68fb      	ldr	r3, [r7, #12]
 8005724:	2200      	movs	r2, #0
 8005726:	869a      	strh	r2, [r3, #52]	; 0x34
  hspi->TxXferCount = 0U;
 8005728:	68fb      	ldr	r3, [r7, #12]
 800572a:	2200      	movs	r2, #0
 800572c:	86da      	strh	r2, [r3, #54]	; 0x36
  hspi->RxISR       = NULL;
 800572e:	68fb      	ldr	r3, [r7, #12]
 8005730:	2200      	movs	r2, #0
 8005732:	641a      	str	r2, [r3, #64]	; 0x40
  hspi->TxISR       = NULL;
 8005734:	68fb      	ldr	r3, [r7, #12]
 8005736:	2200      	movs	r2, #0
 8005738:	645a      	str	r2, [r3, #68]	; 0x44
    hspi->RxXferCount--;
  }
#endif /* USE_SPI_CRC */

  /* Configure communication direction: 1Line */
  if (hspi->Init.Direction == SPI_DIRECTION_1LINE)
 800573a:	68fb      	ldr	r3, [r7, #12]
 800573c:	689b      	ldr	r3, [r3, #8]
 800573e:	f5b3 4f00 	cmp.w	r3, #32768	; 0x8000
 8005742:	d10f      	bne.n	8005764 <HAL_SPI_Receive+0xec>
  {
    /* Disable SPI Peripheral before set 1Line direction (BIDIOE bit) */
    __HAL_SPI_DISABLE(hspi);
 8005744:	68fb      	ldr	r3, [r7, #12]
 8005746:	681b      	ldr	r3, [r3, #0]
 8005748:	681a      	ldr	r2, [r3, #0]
 800574a:	68fb      	ldr	r3, [r7, #12]
 800574c:	681b      	ldr	r3, [r3, #0]
 800574e:	f022 0240 	bic.w	r2, r2, #64	; 0x40
 8005752:	601a      	str	r2, [r3, #0]
    SPI_1LINE_RX(hspi);
 8005754:	68fb      	ldr	r3, [r7, #12]
 8005756:	681b      	ldr	r3, [r3, #0]
 8005758:	681a      	ldr	r2, [r3, #0]
 800575a:	68fb      	ldr	r3, [r7, #12]
 800575c:	681b      	ldr	r3, [r3, #0]
 800575e:	f422 4280 	bic.w	r2, r2, #16384	; 0x4000
 8005762:	601a      	str	r2, [r3, #0]
  }

  /* Check if the SPI is already enabled */
  if ((hspi->Instance->CR1 & SPI_CR1_SPE) != SPI_CR1_SPE)
 8005764:	68fb      	ldr	r3, [r7, #12]
 8005766:	681b      	ldr	r3, [r3, #0]
 8005768:	681b      	ldr	r3, [r3, #0]
 800576a:	f003 0340 	and.w	r3, r3, #64	; 0x40
 800576e:	2b40      	cmp	r3, #64	; 0x40
 8005770:	d007      	beq.n	8005782 <HAL_SPI_Receive+0x10a>
  {
    /* Enable SPI peripheral */
    __HAL_SPI_ENABLE(hspi);
 8005772:	68fb      	ldr	r3, [r7, #12]
 8005774:	681b      	ldr	r3, [r3, #0]
 8005776:	681a      	ldr	r2, [r3, #0]
 8005778:	68fb      	ldr	r3, [r7, #12]
 800577a:	681b      	ldr	r3, [r3, #0]
 800577c:	f042 0240 	orr.w	r2, r2, #64	; 0x40
 8005780:	601a      	str	r2, [r3, #0]
  }

  /* Receive data in 8 Bit mode */
  if (hspi->Init.DataSize == SPI_DATASIZE_8BIT)
 8005782:	68fb      	ldr	r3, [r7, #12]
 8005784:	68db      	ldr	r3, [r3, #12]
 8005786:	2b00      	cmp	r3, #0
 8005788:	d16a      	bne.n	8005860 <HAL_SPI_Receive+0x1e8>
  {
    /* Transfer loop */
    while (hspi->RxXferCount > 0U)
 800578a:	e032      	b.n	80057f2 <HAL_SPI_Receive+0x17a>
    {
      /* Check the RXNE flag */
      if (__HAL_SPI_GET_FLAG(hspi, SPI_FLAG_RXNE))
 800578c:	68fb      	ldr	r3, [r7, #12]
 800578e:	681b      	ldr	r3, [r3, #0]
 8005790:	689b      	ldr	r3, [r3, #8]
 8005792:	f003 0301 	and.w	r3, r3, #1
 8005796:	2b01      	cmp	r3, #1
 8005798:	d115      	bne.n	80057c6 <HAL_SPI_Receive+0x14e>
      {
        /* read the received data */
        (* (uint8_t *)hspi->pRxBuffPtr) = *(__IO uint8_t *)&hspi->Instance->DR;
 800579a:	68fb      	ldr	r3, [r7, #12]
 800579c:	681b      	ldr	r3, [r3, #0]
 800579e:	f103 020c 	add.w	r2, r3, #12
 80057a2:	68fb      	ldr	r3, [r7, #12]
 80057a4:	6b9b      	ldr	r3, [r3, #56]	; 0x38
 80057a6:	7812      	ldrb	r2, [r2, #0]
 80057a8:	b2d2      	uxtb	r2, r2
 80057aa:	701a      	strb	r2, [r3, #0]
        hspi->pRxBuffPtr += sizeof(uint8_t);
 80057ac:	68fb      	ldr	r3, [r7, #12]
 80057ae:	6b9b      	ldr	r3, [r3, #56]	; 0x38
 80057b0:	1c5a      	adds	r2, r3, #1
 80057b2:	68fb      	ldr	r3, [r7, #12]
 80057b4:	639a      	str	r2, [r3, #56]	; 0x38
        hspi->RxXferCount--;
 80057b6:	68fb      	ldr	r3, [r7, #12]
 80057b8:	8fdb      	ldrh	r3, [r3, #62]	; 0x3e
 80057ba:	b29b      	uxth	r3, r3
 80057bc:	3b01      	subs	r3, #1
 80057be:	b29a      	uxth	r2, r3
 80057c0:	68fb      	ldr	r3, [r7, #12]
 80057c2:	87da      	strh	r2, [r3, #62]	; 0x3e
 80057c4:	e015      	b.n	80057f2 <HAL_SPI_Receive+0x17a>
      }
      else
      {
        /* Timeout management */
        if ((((HAL_GetTick() - tickstart) >=  Timeout) && (Timeout != HAL_MAX_DELAY)) || (Timeout == 0U))
 80057c6:	f7fc ff0f 	bl	80025e8 <HAL_GetTick>
 80057ca:	4602      	mov	r2, r0
 80057cc:	693b      	ldr	r3, [r7, #16]
 80057ce:	1ad3      	subs	r3, r2, r3
 80057d0:	683a      	ldr	r2, [r7, #0]
 80057d2:	429a      	cmp	r2, r3
 80057d4:	d803      	bhi.n	80057de <HAL_SPI_Receive+0x166>
 80057d6:	683b      	ldr	r3, [r7, #0]
 80057d8:	f1b3 3fff 	cmp.w	r3, #4294967295	; 0xffffffff
 80057dc:	d102      	bne.n	80057e4 <HAL_SPI_Receive+0x16c>
 80057de:	683b      	ldr	r3, [r7, #0]
 80057e0:	2b00      	cmp	r3, #0
 80057e2:	d106      	bne.n	80057f2 <HAL_SPI_Receive+0x17a>
        {
          errorcode = HAL_TIMEOUT;
 80057e4:	2303      	movs	r3, #3
 80057e6:	75fb      	strb	r3, [r7, #23]
          hspi->State = HAL_SPI_STATE_READY;
 80057e8:	68fb      	ldr	r3, [r7, #12]
 80057ea:	2201      	movs	r2, #1
 80057ec:	f883 2051 	strb.w	r2, [r3, #81]	; 0x51
          goto error;
 80057f0:	e051      	b.n	8005896 <HAL_SPI_Receive+0x21e>
    while (hspi->RxXferCount > 0U)
 80057f2:	68fb      	ldr	r3, [r7, #12]
 80057f4:	8fdb      	ldrh	r3, [r3, #62]	; 0x3e
 80057f6:	b29b      	uxth	r3, r3
 80057f8:	2b00      	cmp	r3, #0
 80057fa:	d1c7      	bne.n	800578c <HAL_SPI_Receive+0x114>
 80057fc:	e035      	b.n	800586a <HAL_SPI_Receive+0x1f2>
  {
    /* Transfer loop */
    while (hspi->RxXferCount > 0U)
    {
      /* Check the RXNE flag */
      if (__HAL_SPI_GET_FLAG(hspi, SPI_FLAG_RXNE))
 80057fe:	68fb      	ldr	r3, [r7, #12]
 8005800:	681b      	ldr	r3, [r3, #0]
 8005802:	689b      	ldr	r3, [r3, #8]
 8005804:	f003 0301 	and.w	r3, r3, #1
 8005808:	2b01      	cmp	r3, #1
 800580a:	d113      	bne.n	8005834 <HAL_SPI_Receive+0x1bc>
      {
        *((uint16_t *)hspi->pRxBuffPtr) = (uint16_t)hspi->Instance->DR;
 800580c:	68fb      	ldr	r3, [r7, #12]
 800580e:	681b      	ldr	r3, [r3, #0]
 8005810:	68da      	ldr	r2, [r3, #12]
 8005812:	68fb      	ldr	r3, [r7, #12]
 8005814:	6b9b      	ldr	r3, [r3, #56]	; 0x38
 8005816:	b292      	uxth	r2, r2
 8005818:	801a      	strh	r2, [r3, #0]
        hspi->pRxBuffPtr += sizeof(uint16_t);
 800581a:	68fb      	ldr	r3, [r7, #12]
 800581c:	6b9b      	ldr	r3, [r3, #56]	; 0x38
 800581e:	1c9a      	adds	r2, r3, #2
 8005820:	68fb      	ldr	r3, [r7, #12]
 8005822:	639a      	str	r2, [r3, #56]	; 0x38
        hspi->RxXferCount--;
 8005824:	68fb      	ldr	r3, [r7, #12]
 8005826:	8fdb      	ldrh	r3, [r3, #62]	; 0x3e
 8005828:	b29b      	uxth	r3, r3
 800582a:	3b01      	subs	r3, #1
 800582c:	b29a      	uxth	r2, r3
 800582e:	68fb      	ldr	r3, [r7, #12]
 8005830:	87da      	strh	r2, [r3, #62]	; 0x3e
 8005832:	e015      	b.n	8005860 <HAL_SPI_Receive+0x1e8>
      }
      else
      {
        /* Timeout management */
        if ((((HAL_GetTick() - tickstart) >=  Timeout) && (Timeout != HAL_MAX_DELAY)) || (Timeout == 0U))
 8005834:	f7fc fed8 	bl	80025e8 <HAL_GetTick>
 8005838:	4602      	mov	r2, r0
 800583a:	693b      	ldr	r3, [r7, #16]
 800583c:	1ad3      	subs	r3, r2, r3
 800583e:	683a      	ldr	r2, [r7, #0]
 8005840:	429a      	cmp	r2, r3
 8005842:	d803      	bhi.n	800584c <HAL_SPI_Receive+0x1d4>
 8005844:	683b      	ldr	r3, [r7, #0]
 8005846:	f1b3 3fff 	cmp.w	r3, #4294967295	; 0xffffffff
 800584a:	d102      	bne.n	8005852 <HAL_SPI_Receive+0x1da>
 800584c:	683b      	ldr	r3, [r7, #0]
 800584e:	2b00      	cmp	r3, #0
 8005850:	d106      	bne.n	8005860 <HAL_SPI_Receive+0x1e8>
        {
          errorcode = HAL_TIMEOUT;
 8005852:	2303      	movs	r3, #3
 8005854:	75fb      	strb	r3, [r7, #23]
          hspi->State = HAL_SPI_STATE_READY;
 8005856:	68fb      	ldr	r3, [r7, #12]
 8005858:	2201      	movs	r2, #1
 800585a:	f883 2051 	strb.w	r2, [r3, #81]	; 0x51
          goto error;
 800585e:	e01a      	b.n	8005896 <HAL_SPI_Receive+0x21e>
    while (hspi->RxXferCount > 0U)
 8005860:	68fb      	ldr	r3, [r7, #12]
 8005862:	8fdb      	ldrh	r3, [r3, #62]	; 0x3e
 8005864:	b29b      	uxth	r3, r3
 8005866:	2b00      	cmp	r3, #0
 8005868:	d1c9      	bne.n	80057fe <HAL_SPI_Receive+0x186>
    UNUSED(tmpreg);
  }
#endif /* USE_SPI_CRC */

  /* Check the end of the transaction */
  if (SPI_EndRxTransaction(hspi, Timeout, tickstart) != HAL_OK)
 800586a:	693a      	ldr	r2, [r7, #16]
 800586c:	6839      	ldr	r1, [r7, #0]
 800586e:	68f8      	ldr	r0, [r7, #12]
 8005870:	f000 fa52 	bl	8005d18 <SPI_EndRxTransaction>
 8005874:	4603      	mov	r3, r0
 8005876:	2b00      	cmp	r3, #0
 8005878:	d002      	beq.n	8005880 <HAL_SPI_Receive+0x208>
  {
    hspi->ErrorCode = HAL_SPI_ERROR_FLAG;
 800587a:	68fb      	ldr	r3, [r7, #12]
 800587c:	2220      	movs	r2, #32
 800587e:	655a      	str	r2, [r3, #84]	; 0x54
    SET_BIT(hspi->ErrorCode, HAL_SPI_ERROR_CRC);
    __HAL_SPI_CLEAR_CRCERRFLAG(hspi);
  }
#endif /* USE_SPI_CRC */

  if (hspi->ErrorCode != HAL_SPI_ERROR_NONE)
 8005880:	68fb      	ldr	r3, [r7, #12]
 8005882:	6d5b      	ldr	r3, [r3, #84]	; 0x54
 8005884:	2b00      	cmp	r3, #0
 8005886:	d002      	beq.n	800588e <HAL_SPI_Receive+0x216>
  {
    errorcode = HAL_ERROR;
 8005888:	2301      	movs	r3, #1
 800588a:	75fb      	strb	r3, [r7, #23]
 800588c:	e003      	b.n	8005896 <HAL_SPI_Receive+0x21e>
  }
  else
  {
    hspi->State = HAL_SPI_STATE_READY;
 800588e:	68fb      	ldr	r3, [r7, #12]
 8005890:	2201      	movs	r2, #1
 8005892:	f883 2051 	strb.w	r2, [r3, #81]	; 0x51
  }

error :
  __HAL_UNLOCK(hspi);
 8005896:	68fb      	ldr	r3, [r7, #12]
 8005898:	2200      	movs	r2, #0
 800589a:	f883 2050 	strb.w	r2, [r3, #80]	; 0x50
  return errorcode;
 800589e:	7dfb      	ldrb	r3, [r7, #23]
}
 80058a0:	4618      	mov	r0, r3
 80058a2:	3718      	adds	r7, #24
 80058a4:	46bd      	mov	sp, r7
 80058a6:	bd80      	pop	{r7, pc}

080058a8 <HAL_SPI_TransmitReceive>:
  * @param  Timeout Timeout duration
  * @retval HAL status
  */
HAL_StatusTypeDef HAL_SPI_TransmitReceive(SPI_HandleTypeDef *hspi, uint8_t *pTxData, uint8_t *pRxData, uint16_t Size,
                                          uint32_t Timeout)
{
 80058a8:	b580      	push	{r7, lr}
 80058aa:	b08c      	sub	sp, #48	; 0x30
 80058ac:	af00      	add	r7, sp, #0
 80058ae:	60f8      	str	r0, [r7, #12]
 80058b0:	60b9      	str	r1, [r7, #8]
 80058b2:	607a      	str	r2, [r7, #4]
 80058b4:	807b      	strh	r3, [r7, #2]
#if (USE_SPI_CRC != 0U)
  __IO uint32_t tmpreg = 0U;
#endif /* USE_SPI_CRC */

  /* Variable used to alternate Rx and Tx during transfer */
  uint32_t             txallowed = 1U;
 80058b6:	2301      	movs	r3, #1
 80058b8:	62fb      	str	r3, [r7, #44]	; 0x2c
  HAL_StatusTypeDef    errorcode = HAL_OK;
 80058ba:	2300      	movs	r3, #0
 80058bc:	f887 302b 	strb.w	r3, [r7, #43]	; 0x2b

  /* Check Direction parameter */
  assert_param(IS_SPI_DIRECTION_2LINES(hspi->Init.Direction));

  /* Process Locked */
  __HAL_LOCK(hspi);
 80058c0:	68fb      	ldr	r3, [r7, #12]
 80058c2:	f893 3050 	ldrb.w	r3, [r3, #80]	; 0x50
 80058c6:	2b01      	cmp	r3, #1
 80058c8:	d101      	bne.n	80058ce <HAL_SPI_TransmitReceive+0x26>
 80058ca:	2302      	movs	r3, #2
 80058cc:	e198      	b.n	8005c00 <HAL_SPI_TransmitReceive+0x358>
 80058ce:	68fb      	ldr	r3, [r7, #12]
 80058d0:	2201      	movs	r2, #1
 80058d2:	f883 2050 	strb.w	r2, [r3, #80]	; 0x50

  /* Init tickstart for timeout management*/
  tickstart = HAL_GetTick();
 80058d6:	f7fc fe87 	bl	80025e8 <HAL_GetTick>
 80058da:	6278      	str	r0, [r7, #36]	; 0x24

  /* Init temporary variables */
  tmp_state           = hspi->State;
 80058dc:	68fb      	ldr	r3, [r7, #12]
 80058de:	f893 3051 	ldrb.w	r3, [r3, #81]	; 0x51
 80058e2:	f887 3023 	strb.w	r3, [r7, #35]	; 0x23
  tmp_mode            = hspi->Init.Mode;
 80058e6:	68fb      	ldr	r3, [r7, #12]
 80058e8:	685b      	ldr	r3, [r3, #4]
 80058ea:	61fb      	str	r3, [r7, #28]
  initial_TxXferCount = Size;
 80058ec:	887b      	ldrh	r3, [r7, #2]
 80058ee:	837b      	strh	r3, [r7, #26]

  if (!((tmp_state == HAL_SPI_STATE_READY) || \
 80058f0:	f897 3023 	ldrb.w	r3, [r7, #35]	; 0x23
 80058f4:	2b01      	cmp	r3, #1
 80058f6:	d00f      	beq.n	8005918 <HAL_SPI_TransmitReceive+0x70>
 80058f8:	69fb      	ldr	r3, [r7, #28]
 80058fa:	f5b3 7f82 	cmp.w	r3, #260	; 0x104
 80058fe:	d107      	bne.n	8005910 <HAL_SPI_TransmitReceive+0x68>
        ((tmp_mode == SPI_MODE_MASTER) && (hspi->Init.Direction == SPI_DIRECTION_2LINES) && (tmp_state == HAL_SPI_STATE_BUSY_RX))))
 8005900:	68fb      	ldr	r3, [r7, #12]
 8005902:	689b      	ldr	r3, [r3, #8]
 8005904:	2b00      	cmp	r3, #0
 8005906:	d103      	bne.n	8005910 <HAL_SPI_TransmitReceive+0x68>
 8005908:	f897 3023 	ldrb.w	r3, [r7, #35]	; 0x23
 800590c:	2b04      	cmp	r3, #4
 800590e:	d003      	beq.n	8005918 <HAL_SPI_TransmitReceive+0x70>
  {
    errorcode = HAL_BUSY;
 8005910:	2302      	movs	r3, #2
 8005912:	f887 302b 	strb.w	r3, [r7, #43]	; 0x2b
    goto error;
 8005916:	e16d      	b.n	8005bf4 <HAL_SPI_TransmitReceive+0x34c>
  }

  if ((pTxData == NULL) || (pRxData == NULL) || (Size == 0U))
 8005918:	68bb      	ldr	r3, [r7, #8]
 800591a:	2b00      	cmp	r3, #0
 800591c:	d005      	beq.n	800592a <HAL_SPI_TransmitReceive+0x82>
 800591e:	687b      	ldr	r3, [r7, #4]
 8005920:	2b00      	cmp	r3, #0
 8005922:	d002      	beq.n	800592a <HAL_SPI_TransmitReceive+0x82>
 8005924:	887b      	ldrh	r3, [r7, #2]
 8005926:	2b00      	cmp	r3, #0
 8005928:	d103      	bne.n	8005932 <HAL_SPI_TransmitReceive+0x8a>
  {
    errorcode = HAL_ERROR;
 800592a:	2301      	movs	r3, #1
 800592c:	f887 302b 	strb.w	r3, [r7, #43]	; 0x2b
    goto error;
 8005930:	e160      	b.n	8005bf4 <HAL_SPI_TransmitReceive+0x34c>
  }

  /* Don't overwrite in case of HAL_SPI_STATE_BUSY_RX */
  if (hspi->State != HAL_SPI_STATE_BUSY_RX)
 8005932:	68fb      	ldr	r3, [r7, #12]
 8005934:	f893 3051 	ldrb.w	r3, [r3, #81]	; 0x51
 8005938:	b2db      	uxtb	r3, r3
 800593a:	2b04      	cmp	r3, #4
 800593c:	d003      	beq.n	8005946 <HAL_SPI_TransmitReceive+0x9e>
  {
    hspi->State = HAL_SPI_STATE_BUSY_TX_RX;
 800593e:	68fb      	ldr	r3, [r7, #12]
 8005940:	2205      	movs	r2, #5
 8005942:	f883 2051 	strb.w	r2, [r3, #81]	; 0x51
  }

  /* Set the transaction information */
  hspi->ErrorCode   = HAL_SPI_ERROR_NONE;
 8005946:	68fb      	ldr	r3, [r7, #12]
 8005948:	2200      	movs	r2, #0
 800594a:	655a      	str	r2, [r3, #84]	; 0x54
  hspi->pRxBuffPtr  = (uint8_t *)pRxData;
 800594c:	68fb      	ldr	r3, [r7, #12]
 800594e:	687a      	ldr	r2, [r7, #4]
 8005950:	639a      	str	r2, [r3, #56]	; 0x38
  hspi->RxXferCount = Size;
 8005952:	68fb      	ldr	r3, [r7, #12]
 8005954:	887a      	ldrh	r2, [r7, #2]
 8005956:	87da      	strh	r2, [r3, #62]	; 0x3e
  hspi->RxXferSize  = Size;
 8005958:	68fb      	ldr	r3, [r7, #12]
 800595a:	887a      	ldrh	r2, [r7, #2]
 800595c:	879a      	strh	r2, [r3, #60]	; 0x3c
  hspi->pTxBuffPtr  = (uint8_t *)pTxData;
 800595e:	68fb      	ldr	r3, [r7, #12]
 8005960:	68ba      	ldr	r2, [r7, #8]
 8005962:	631a      	str	r2, [r3, #48]	; 0x30
  hspi->TxXferCount = Size;
 8005964:	68fb      	ldr	r3, [r7, #12]
 8005966:	887a      	ldrh	r2, [r7, #2]
 8005968:	86da      	strh	r2, [r3, #54]	; 0x36
  hspi->TxXferSize  = Size;
 800596a:	68fb      	ldr	r3, [r7, #12]
 800596c:	887a      	ldrh	r2, [r7, #2]
 800596e:	869a      	strh	r2, [r3, #52]	; 0x34

  /*Init field not used in handle to zero */
  hspi->RxISR       = NULL;
 8005970:	68fb      	ldr	r3, [r7, #12]
 8005972:	2200      	movs	r2, #0
 8005974:	641a      	str	r2, [r3, #64]	; 0x40
  hspi->TxISR       = NULL;
 8005976:	68fb      	ldr	r3, [r7, #12]
 8005978:	2200      	movs	r2, #0
 800597a:	645a      	str	r2, [r3, #68]	; 0x44
    SPI_RESET_CRC(hspi);
  }
#endif /* USE_SPI_CRC */

  /* Check if the SPI is already enabled */
  if ((hspi->Instance->CR1 & SPI_CR1_SPE) != SPI_CR1_SPE)
 800597c:	68fb      	ldr	r3, [r7, #12]
 800597e:	681b      	ldr	r3, [r3, #0]
 8005980:	681b      	ldr	r3, [r3, #0]
 8005982:	f003 0340 	and.w	r3, r3, #64	; 0x40
 8005986:	2b40      	cmp	r3, #64	; 0x40
 8005988:	d007      	beq.n	800599a <HAL_SPI_TransmitReceive+0xf2>
  {
    /* Enable SPI peripheral */
    __HAL_SPI_ENABLE(hspi);
 800598a:	68fb      	ldr	r3, [r7, #12]
 800598c:	681b      	ldr	r3, [r3, #0]
 800598e:	681a      	ldr	r2, [r3, #0]
 8005990:	68fb      	ldr	r3, [r7, #12]
 8005992:	681b      	ldr	r3, [r3, #0]
 8005994:	f042 0240 	orr.w	r2, r2, #64	; 0x40
 8005998:	601a      	str	r2, [r3, #0]
  }

  /* Transmit and Receive data in 16 Bit mode */
  if (hspi->Init.DataSize == SPI_DATASIZE_16BIT)
 800599a:	68fb      	ldr	r3, [r7, #12]
 800599c:	68db      	ldr	r3, [r3, #12]
 800599e:	f5b3 6f00 	cmp.w	r3, #2048	; 0x800
 80059a2:	d17c      	bne.n	8005a9e <HAL_SPI_TransmitReceive+0x1f6>
  {
    if ((hspi->Init.Mode == SPI_MODE_SLAVE) || (initial_TxXferCount == 0x01U))
 80059a4:	68fb      	ldr	r3, [r7, #12]
 80059a6:	685b      	ldr	r3, [r3, #4]
 80059a8:	2b00      	cmp	r3, #0
 80059aa:	d002      	beq.n	80059b2 <HAL_SPI_TransmitReceive+0x10a>
 80059ac:	8b7b      	ldrh	r3, [r7, #26]
 80059ae:	2b01      	cmp	r3, #1
 80059b0:	d16a      	bne.n	8005a88 <HAL_SPI_TransmitReceive+0x1e0>
    {
      hspi->Instance->DR = *((uint16_t *)hspi->pTxBuffPtr);
 80059b2:	68fb      	ldr	r3, [r7, #12]
 80059b4:	6b1b      	ldr	r3, [r3, #48]	; 0x30
 80059b6:	881a      	ldrh	r2, [r3, #0]
 80059b8:	68fb      	ldr	r3, [r7, #12]
 80059ba:	681b      	ldr	r3, [r3, #0]
 80059bc:	60da      	str	r2, [r3, #12]
      hspi->pTxBuffPtr += sizeof(uint16_t);
 80059be:	68fb      	ldr	r3, [r7, #12]
 80059c0:	6b1b      	ldr	r3, [r3, #48]	; 0x30
 80059c2:	1c9a      	adds	r2, r3, #2
 80059c4:	68fb      	ldr	r3, [r7, #12]
 80059c6:	631a      	str	r2, [r3, #48]	; 0x30
      hspi->TxXferCount--;
 80059c8:	68fb      	ldr	r3, [r7, #12]
 80059ca:	8edb      	ldrh	r3, [r3, #54]	; 0x36
 80059cc:	b29b      	uxth	r3, r3
 80059ce:	3b01      	subs	r3, #1
 80059d0:	b29a      	uxth	r2, r3
 80059d2:	68fb      	ldr	r3, [r7, #12]
 80059d4:	86da      	strh	r2, [r3, #54]	; 0x36
        SET_BIT(hspi->Instance->CR1, SPI_CR1_CRCNEXT);
      }
#endif /* USE_SPI_CRC */

    }
    while ((hspi->TxXferCount > 0U) || (hspi->RxXferCount > 0U))
 80059d6:	e057      	b.n	8005a88 <HAL_SPI_TransmitReceive+0x1e0>
    {
      /* Check TXE flag */
      if ((__HAL_SPI_GET_FLAG(hspi, SPI_FLAG_TXE)) && (hspi->TxXferCount > 0U) && (txallowed == 1U))
 80059d8:	68fb      	ldr	r3, [r7, #12]
 80059da:	681b      	ldr	r3, [r3, #0]
 80059dc:	689b      	ldr	r3, [r3, #8]
 80059de:	f003 0302 	and.w	r3, r3, #2
 80059e2:	2b02      	cmp	r3, #2
 80059e4:	d11b      	bne.n	8005a1e <HAL_SPI_TransmitReceive+0x176>
 80059e6:	68fb      	ldr	r3, [r7, #12]
 80059e8:	8edb      	ldrh	r3, [r3, #54]	; 0x36
 80059ea:	b29b      	uxth	r3, r3
 80059ec:	2b00      	cmp	r3, #0
 80059ee:	d016      	beq.n	8005a1e <HAL_SPI_TransmitReceive+0x176>
 80059f0:	6afb      	ldr	r3, [r7, #44]	; 0x2c
 80059f2:	2b01      	cmp	r3, #1
 80059f4:	d113      	bne.n	8005a1e <HAL_SPI_TransmitReceive+0x176>
      {
        hspi->Instance->DR = *((uint16_t *)hspi->pTxBuffPtr);
 80059f6:	68fb      	ldr	r3, [r7, #12]
 80059f8:	6b1b      	ldr	r3, [r3, #48]	; 0x30
 80059fa:	881a      	ldrh	r2, [r3, #0]
 80059fc:	68fb      	ldr	r3, [r7, #12]
 80059fe:	681b      	ldr	r3, [r3, #0]
 8005a00:	60da      	str	r2, [r3, #12]
        hspi->pTxBuffPtr += sizeof(uint16_t);
 8005a02:	68fb      	ldr	r3, [r7, #12]
 8005a04:	6b1b      	ldr	r3, [r3, #48]	; 0x30
 8005a06:	1c9a      	adds	r2, r3, #2
 8005a08:	68fb      	ldr	r3, [r7, #12]
 8005a0a:	631a      	str	r2, [r3, #48]	; 0x30
        hspi->TxXferCount--;
 8005a0c:	68fb      	ldr	r3, [r7, #12]
 8005a0e:	8edb      	ldrh	r3, [r3, #54]	; 0x36
 8005a10:	b29b      	uxth	r3, r3
 8005a12:	3b01      	subs	r3, #1
 8005a14:	b29a      	uxth	r2, r3
 8005a16:	68fb      	ldr	r3, [r7, #12]
 8005a18:	86da      	strh	r2, [r3, #54]	; 0x36
        /* Next Data is a reception (Rx). Tx not allowed */
        txallowed = 0U;
 8005a1a:	2300      	movs	r3, #0
 8005a1c:	62fb      	str	r3, [r7, #44]	; 0x2c
        }
#endif /* USE_SPI_CRC */
      }

      /* Check RXNE flag */
      if ((__HAL_SPI_GET_FLAG(hspi, SPI_FLAG_RXNE)) && (hspi->RxXferCount > 0U))
 8005a1e:	68fb      	ldr	r3, [r7, #12]
 8005a20:	681b      	ldr	r3, [r3, #0]
 8005a22:	689b      	ldr	r3, [r3, #8]
 8005a24:	f003 0301 	and.w	r3, r3, #1
 8005a28:	2b01      	cmp	r3, #1
 8005a2a:	d119      	bne.n	8005a60 <HAL_SPI_TransmitReceive+0x1b8>
 8005a2c:	68fb      	ldr	r3, [r7, #12]
 8005a2e:	8fdb      	ldrh	r3, [r3, #62]	; 0x3e
 8005a30:	b29b      	uxth	r3, r3
 8005a32:	2b00      	cmp	r3, #0
 8005a34:	d014      	beq.n	8005a60 <HAL_SPI_TransmitReceive+0x1b8>
      {
        *((uint16_t *)hspi->pRxBuffPtr) = (uint16_t)hspi->Instance->DR;
 8005a36:	68fb      	ldr	r3, [r7, #12]
 8005a38:	681b      	ldr	r3, [r3, #0]
 8005a3a:	68da      	ldr	r2, [r3, #12]
 8005a3c:	68fb      	ldr	r3, [r7, #12]
 8005a3e:	6b9b      	ldr	r3, [r3, #56]	; 0x38
 8005a40:	b292      	uxth	r2, r2
 8005a42:	801a      	strh	r2, [r3, #0]
        hspi->pRxBuffPtr += sizeof(uint16_t);
 8005a44:	68fb      	ldr	r3, [r7, #12]
 8005a46:	6b9b      	ldr	r3, [r3, #56]	; 0x38
 8005a48:	1c9a      	adds	r2, r3, #2
 8005a4a:	68fb      	ldr	r3, [r7, #12]
 8005a4c:	639a      	str	r2, [r3, #56]	; 0x38
        hspi->RxXferCount--;
 8005a4e:	68fb      	ldr	r3, [r7, #12]
 8005a50:	8fdb      	ldrh	r3, [r3, #62]	; 0x3e
 8005a52:	b29b      	uxth	r3, r3
 8005a54:	3b01      	subs	r3, #1
 8005a56:	b29a      	uxth	r2, r3
 8005a58:	68fb      	ldr	r3, [r7, #12]
 8005a5a:	87da      	strh	r2, [r3, #62]	; 0x3e
        /* Next Data is a Transmission (Tx). Tx is allowed */
        txallowed = 1U;
 8005a5c:	2301      	movs	r3, #1
 8005a5e:	62fb      	str	r3, [r7, #44]	; 0x2c
      }
      if (((HAL_GetTick() - tickstart) >=  Timeout) && (Timeout != HAL_MAX_DELAY))
 8005a60:	f7fc fdc2 	bl	80025e8 <HAL_GetTick>
 8005a64:	4602      	mov	r2, r0
 8005a66:	6a7b      	ldr	r3, [r7, #36]	; 0x24
 8005a68:	1ad3      	subs	r3, r2, r3
 8005a6a:	6bba      	ldr	r2, [r7, #56]	; 0x38
 8005a6c:	429a      	cmp	r2, r3
 8005a6e:	d80b      	bhi.n	8005a88 <HAL_SPI_TransmitReceive+0x1e0>
 8005a70:	6bbb      	ldr	r3, [r7, #56]	; 0x38
 8005a72:	f1b3 3fff 	cmp.w	r3, #4294967295	; 0xffffffff
 8005a76:	d007      	beq.n	8005a88 <HAL_SPI_TransmitReceive+0x1e0>
      {
        errorcode = HAL_TIMEOUT;
 8005a78:	2303      	movs	r3, #3
 8005a7a:	f887 302b 	strb.w	r3, [r7, #43]	; 0x2b
        hspi->State = HAL_SPI_STATE_READY;
 8005a7e:	68fb      	ldr	r3, [r7, #12]
 8005a80:	2201      	movs	r2, #1
 8005a82:	f883 2051 	strb.w	r2, [r3, #81]	; 0x51
        goto error;
 8005a86:	e0b5      	b.n	8005bf4 <HAL_SPI_TransmitReceive+0x34c>
    while ((hspi->TxXferCount > 0U) || (hspi->RxXferCount > 0U))
 8005a88:	68fb      	ldr	r3, [r7, #12]
 8005a8a:	8edb      	ldrh	r3, [r3, #54]	; 0x36
 8005a8c:	b29b      	uxth	r3, r3
 8005a8e:	2b00      	cmp	r3, #0
 8005a90:	d1a2      	bne.n	80059d8 <HAL_SPI_TransmitReceive+0x130>
 8005a92:	68fb      	ldr	r3, [r7, #12]
 8005a94:	8fdb      	ldrh	r3, [r3, #62]	; 0x3e
 8005a96:	b29b      	uxth	r3, r3
 8005a98:	2b00      	cmp	r3, #0
 8005a9a:	d19d      	bne.n	80059d8 <HAL_SPI_TransmitReceive+0x130>
 8005a9c:	e080      	b.n	8005ba0 <HAL_SPI_TransmitReceive+0x2f8>
    }
  }
  /* Transmit and Receive data in 8 Bit mode */
  else
  {
    if ((hspi->Init.Mode == SPI_MODE_SLAVE) || (initial_TxXferCount == 0x01U))
 8005a9e:	68fb      	ldr	r3, [r7, #12]
 8005aa0:	685b      	ldr	r3, [r3, #4]
 8005aa2:	2b00      	cmp	r3, #0
 8005aa4:	d002      	beq.n	8005aac <HAL_SPI_TransmitReceive+0x204>
 8005aa6:	8b7b      	ldrh	r3, [r7, #26]
 8005aa8:	2b01      	cmp	r3, #1
 8005aaa:	d16f      	bne.n	8005b8c <HAL_SPI_TransmitReceive+0x2e4>
    {
      *((__IO uint8_t *)&hspi->Instance->DR) = (*hspi->pTxBuffPtr);
 8005aac:	68fb      	ldr	r3, [r7, #12]
 8005aae:	6b1a      	ldr	r2, [r3, #48]	; 0x30
 8005ab0:	68fb      	ldr	r3, [r7, #12]
 8005ab2:	681b      	ldr	r3, [r3, #0]
 8005ab4:	330c      	adds	r3, #12
 8005ab6:	7812      	ldrb	r2, [r2, #0]
 8005ab8:	701a      	strb	r2, [r3, #0]
      hspi->pTxBuffPtr += sizeof(uint8_t);
 8005aba:	68fb      	ldr	r3, [r7, #12]
 8005abc:	6b1b      	ldr	r3, [r3, #48]	; 0x30
 8005abe:	1c5a      	adds	r2, r3, #1
 8005ac0:	68fb      	ldr	r3, [r7, #12]
 8005ac2:	631a      	str	r2, [r3, #48]	; 0x30
      hspi->TxXferCount--;
 8005ac4:	68fb      	ldr	r3, [r7, #12]
 8005ac6:	8edb      	ldrh	r3, [r3, #54]	; 0x36
 8005ac8:	b29b      	uxth	r3, r3
 8005aca:	3b01      	subs	r3, #1
 8005acc:	b29a      	uxth	r2, r3
 8005ace:	68fb      	ldr	r3, [r7, #12]
 8005ad0:	86da      	strh	r2, [r3, #54]	; 0x36
      {
        SET_BIT(hspi->Instance->CR1, SPI_CR1_CRCNEXT);
      }
#endif /* USE_SPI_CRC */
    }
    while ((hspi->TxXferCount > 0U) || (hspi->RxXferCount > 0U))
 8005ad2:	e05b      	b.n	8005b8c <HAL_SPI_TransmitReceive+0x2e4>
    {
      /* Check TXE flag */
      if ((__HAL_SPI_GET_FLAG(hspi, SPI_FLAG_TXE)) && (hspi->TxXferCount > 0U) && (txallowed == 1U))
 8005ad4:	68fb      	ldr	r3, [r7, #12]
 8005ad6:	681b      	ldr	r3, [r3, #0]
 8005ad8:	689b      	ldr	r3, [r3, #8]
 8005ada:	f003 0302 	and.w	r3, r3, #2
 8005ade:	2b02      	cmp	r3, #2
 8005ae0:	d11c      	bne.n	8005b1c <HAL_SPI_TransmitReceive+0x274>
 8005ae2:	68fb      	ldr	r3, [r7, #12]
 8005ae4:	8edb      	ldrh	r3, [r3, #54]	; 0x36
 8005ae6:	b29b      	uxth	r3, r3
 8005ae8:	2b00      	cmp	r3, #0
 8005aea:	d017      	beq.n	8005b1c <HAL_SPI_TransmitReceive+0x274>
 8005aec:	6afb      	ldr	r3, [r7, #44]	; 0x2c
 8005aee:	2b01      	cmp	r3, #1
 8005af0:	d114      	bne.n	8005b1c <HAL_SPI_TransmitReceive+0x274>
      {
        *(__IO uint8_t *)&hspi->Instance->DR = (*hspi->pTxBuffPtr);
 8005af2:	68fb      	ldr	r3, [r7, #12]
 8005af4:	6b1a      	ldr	r2, [r3, #48]	; 0x30
 8005af6:	68fb      	ldr	r3, [r7, #12]
 8005af8:	681b      	ldr	r3, [r3, #0]
 8005afa:	330c      	adds	r3, #12
 8005afc:	7812      	ldrb	r2, [r2, #0]
 8005afe:	701a      	strb	r2, [r3, #0]
        hspi->pTxBuffPtr++;
 8005b00:	68fb      	ldr	r3, [r7, #12]
 8005b02:	6b1b      	ldr	r3, [r3, #48]	; 0x30
 8005b04:	1c5a      	adds	r2, r3, #1
 8005b06:	68fb      	ldr	r3, [r7, #12]
 8005b08:	631a      	str	r2, [r3, #48]	; 0x30
        hspi->TxXferCount--;
 8005b0a:	68fb      	ldr	r3, [r7, #12]
 8005b0c:	8edb      	ldrh	r3, [r3, #54]	; 0x36
 8005b0e:	b29b      	uxth	r3, r3
 8005b10:	3b01      	subs	r3, #1
 8005b12:	b29a      	uxth	r2, r3
 8005b14:	68fb      	ldr	r3, [r7, #12]
 8005b16:	86da      	strh	r2, [r3, #54]	; 0x36
        /* Next Data is a reception (Rx). Tx not allowed */
        txallowed = 0U;
 8005b18:	2300      	movs	r3, #0
 8005b1a:	62fb      	str	r3, [r7, #44]	; 0x2c
        }
#endif /* USE_SPI_CRC */
      }

      /* Wait until RXNE flag is reset */
      if ((__HAL_SPI_GET_FLAG(hspi, SPI_FLAG_RXNE)) && (hspi->RxXferCount > 0U))
 8005b1c:	68fb      	ldr	r3, [r7, #12]
 8005b1e:	681b      	ldr	r3, [r3, #0]
 8005b20:	689b      	ldr	r3, [r3, #8]
 8005b22:	f003 0301 	and.w	r3, r3, #1
 8005b26:	2b01      	cmp	r3, #1
 8005b28:	d119      	bne.n	8005b5e <HAL_SPI_TransmitReceive+0x2b6>
 8005b2a:	68fb      	ldr	r3, [r7, #12]
 8005b2c:	8fdb      	ldrh	r3, [r3, #62]	; 0x3e
 8005b2e:	b29b      	uxth	r3, r3
 8005b30:	2b00      	cmp	r3, #0
 8005b32:	d014      	beq.n	8005b5e <HAL_SPI_TransmitReceive+0x2b6>
      {
        (*(uint8_t *)hspi->pRxBuffPtr) = hspi->Instance->DR;
 8005b34:	68fb      	ldr	r3, [r7, #12]
 8005b36:	681b      	ldr	r3, [r3, #0]
 8005b38:	68da      	ldr	r2, [r3, #12]
 8005b3a:	68fb      	ldr	r3, [r7, #12]
 8005b3c:	6b9b      	ldr	r3, [r3, #56]	; 0x38
 8005b3e:	b2d2      	uxtb	r2, r2
 8005b40:	701a      	strb	r2, [r3, #0]
        hspi->pRxBuffPtr++;
 8005b42:	68fb      	ldr	r3, [r7, #12]
 8005b44:	6b9b      	ldr	r3, [r3, #56]	; 0x38
 8005b46:	1c5a      	adds	r2, r3, #1
 8005b48:	68fb      	ldr	r3, [r7, #12]
 8005b4a:	639a      	str	r2, [r3, #56]	; 0x38
        hspi->RxXferCount--;
 8005b4c:	68fb      	ldr	r3, [r7, #12]
 8005b4e:	8fdb      	ldrh	r3, [r3, #62]	; 0x3e
 8005b50:	b29b      	uxth	r3, r3
 8005b52:	3b01      	subs	r3, #1
 8005b54:	b29a      	uxth	r2, r3
 8005b56:	68fb      	ldr	r3, [r7, #12]
 8005b58:	87da      	strh	r2, [r3, #62]	; 0x3e
        /* Next Data is a Transmission (Tx). Tx is allowed */
        txallowed = 1U;
 8005b5a:	2301      	movs	r3, #1
 8005b5c:	62fb      	str	r3, [r7, #44]	; 0x2c
      }
      if ((((HAL_GetTick() - tickstart) >=  Timeout) && ((Timeout != HAL_MAX_DELAY))) || (Timeout == 0U))
 8005b5e:	f7fc fd43 	bl	80025e8 <HAL_GetTick>
 8005b62:	4602      	mov	r2, r0
 8005b64:	6a7b      	ldr	r3, [r7, #36]	; 0x24
 8005b66:	1ad3      	subs	r3, r2, r3
 8005b68:	6bba      	ldr	r2, [r7, #56]	; 0x38
 8005b6a:	429a      	cmp	r2, r3
 8005b6c:	d803      	bhi.n	8005b76 <HAL_SPI_TransmitReceive+0x2ce>
 8005b6e:	6bbb      	ldr	r3, [r7, #56]	; 0x38
 8005b70:	f1b3 3fff 	cmp.w	r3, #4294967295	; 0xffffffff
 8005b74:	d102      	bne.n	8005b7c <HAL_SPI_TransmitReceive+0x2d4>
 8005b76:	6bbb      	ldr	r3, [r7, #56]	; 0x38
 8005b78:	2b00      	cmp	r3, #0
 8005b7a:	d107      	bne.n	8005b8c <HAL_SPI_TransmitReceive+0x2e4>
      {
        errorcode = HAL_TIMEOUT;
 8005b7c:	2303      	movs	r3, #3
 8005b7e:	f887 302b 	strb.w	r3, [r7, #43]	; 0x2b
        hspi->State = HAL_SPI_STATE_READY;
 8005b82:	68fb      	ldr	r3, [r7, #12]
 8005b84:	2201      	movs	r2, #1
 8005b86:	f883 2051 	strb.w	r2, [r3, #81]	; 0x51
        goto error;
 8005b8a:	e033      	b.n	8005bf4 <HAL_SPI_TransmitReceive+0x34c>
    while ((hspi->TxXferCount > 0U) || (hspi->RxXferCount > 0U))
 8005b8c:	68fb      	ldr	r3, [r7, #12]
 8005b8e:	8edb      	ldrh	r3, [r3, #54]	; 0x36
 8005b90:	b29b      	uxth	r3, r3
 8005b92:	2b00      	cmp	r3, #0
 8005b94:	d19e      	bne.n	8005ad4 <HAL_SPI_TransmitReceive+0x22c>
 8005b96:	68fb      	ldr	r3, [r7, #12]
 8005b98:	8fdb      	ldrh	r3, [r3, #62]	; 0x3e
 8005b9a:	b29b      	uxth	r3, r3
 8005b9c:	2b00      	cmp	r3, #0
 8005b9e:	d199      	bne.n	8005ad4 <HAL_SPI_TransmitReceive+0x22c>
    errorcode = HAL_ERROR;
  }
#endif /* USE_SPI_CRC */

  /* Check the end of the transaction */
  if (SPI_EndRxTxTransaction(hspi, Timeout, tickstart) != HAL_OK)
 8005ba0:	6a7a      	ldr	r2, [r7, #36]	; 0x24
 8005ba2:	6bb9      	ldr	r1, [r7, #56]	; 0x38
 8005ba4:	68f8      	ldr	r0, [r7, #12]
 8005ba6:	f000 f91d 	bl	8005de4 <SPI_EndRxTxTransaction>
 8005baa:	4603      	mov	r3, r0
 8005bac:	2b00      	cmp	r3, #0
 8005bae:	d006      	beq.n	8005bbe <HAL_SPI_TransmitReceive+0x316>
  {
    errorcode = HAL_ERROR;
 8005bb0:	2301      	movs	r3, #1
 8005bb2:	f887 302b 	strb.w	r3, [r7, #43]	; 0x2b
    hspi->ErrorCode = HAL_SPI_ERROR_FLAG;
 8005bb6:	68fb      	ldr	r3, [r7, #12]
 8005bb8:	2220      	movs	r2, #32
 8005bba:	655a      	str	r2, [r3, #84]	; 0x54
    goto error;
 8005bbc:	e01a      	b.n	8005bf4 <HAL_SPI_TransmitReceive+0x34c>
  }

  /* Clear overrun flag in 2 Lines communication mode because received is not read */
  if (hspi->Init.Direction == SPI_DIRECTION_2LINES)
 8005bbe:	68fb      	ldr	r3, [r7, #12]
 8005bc0:	689b      	ldr	r3, [r3, #8]
 8005bc2:	2b00      	cmp	r3, #0
 8005bc4:	d10a      	bne.n	8005bdc <HAL_SPI_TransmitReceive+0x334>
  {
    __HAL_SPI_CLEAR_OVRFLAG(hspi);
 8005bc6:	2300      	movs	r3, #0
 8005bc8:	617b      	str	r3, [r7, #20]
 8005bca:	68fb      	ldr	r3, [r7, #12]
 8005bcc:	681b      	ldr	r3, [r3, #0]
 8005bce:	68db      	ldr	r3, [r3, #12]
 8005bd0:	617b      	str	r3, [r7, #20]
 8005bd2:	68fb      	ldr	r3, [r7, #12]
 8005bd4:	681b      	ldr	r3, [r3, #0]
 8005bd6:	689b      	ldr	r3, [r3, #8]
 8005bd8:	617b      	str	r3, [r7, #20]
 8005bda:	697b      	ldr	r3, [r7, #20]
  }

  if (hspi->ErrorCode != HAL_SPI_ERROR_NONE)
 8005bdc:	68fb      	ldr	r3, [r7, #12]
 8005bde:	6d5b      	ldr	r3, [r3, #84]	; 0x54
 8005be0:	2b00      	cmp	r3, #0
 8005be2:	d003      	beq.n	8005bec <HAL_SPI_TransmitReceive+0x344>
  {
    errorcode = HAL_ERROR;
 8005be4:	2301      	movs	r3, #1
 8005be6:	f887 302b 	strb.w	r3, [r7, #43]	; 0x2b
 8005bea:	e003      	b.n	8005bf4 <HAL_SPI_TransmitReceive+0x34c>
  }
  else
  {
    hspi->State = HAL_SPI_STATE_READY;
 8005bec:	68fb      	ldr	r3, [r7, #12]
 8005bee:	2201      	movs	r2, #1
 8005bf0:	f883 2051 	strb.w	r2, [r3, #81]	; 0x51
  }
  
error :
  __HAL_UNLOCK(hspi);
 8005bf4:	68fb      	ldr	r3, [r7, #12]
 8005bf6:	2200      	movs	r2, #0
 8005bf8:	f883 2050 	strb.w	r2, [r3, #80]	; 0x50
  return errorcode;
 8005bfc:	f897 302b 	ldrb.w	r3, [r7, #43]	; 0x2b
}
 8005c00:	4618      	mov	r0, r3
 8005c02:	3730      	adds	r7, #48	; 0x30
 8005c04:	46bd      	mov	sp, r7
 8005c06:	bd80      	pop	{r7, pc}

08005c08 <SPI_WaitFlagStateUntilTimeout>:
  * @param  Tickstart tick start value
  * @retval HAL status
  */
static HAL_StatusTypeDef SPI_WaitFlagStateUntilTimeout(SPI_HandleTypeDef *hspi, uint32_t Flag, FlagStatus State,
                                                       uint32_t Timeout, uint32_t Tickstart)
{
 8005c08:	b580      	push	{r7, lr}
 8005c0a:	b088      	sub	sp, #32
 8005c0c:	af00      	add	r7, sp, #0
 8005c0e:	60f8      	str	r0, [r7, #12]
 8005c10:	60b9      	str	r1, [r7, #8]
 8005c12:	603b      	str	r3, [r7, #0]
 8005c14:	4613      	mov	r3, r2
 8005c16:	71fb      	strb	r3, [r7, #7]
  __IO uint32_t count;
  uint32_t tmp_timeout;
  uint32_t tmp_tickstart;

  /* Adjust Timeout value  in case of end of transfer */
  tmp_timeout   = Timeout - (HAL_GetTick() - Tickstart);
 8005c18:	f7fc fce6 	bl	80025e8 <HAL_GetTick>
 8005c1c:	4602      	mov	r2, r0
 8005c1e:	6abb      	ldr	r3, [r7, #40]	; 0x28
 8005c20:	1a9b      	subs	r3, r3, r2
 8005c22:	683a      	ldr	r2, [r7, #0]
 8005c24:	4413      	add	r3, r2
 8005c26:	61fb      	str	r3, [r7, #28]
  tmp_tickstart = HAL_GetTick();
 8005c28:	f7fc fcde 	bl	80025e8 <HAL_GetTick>
 8005c2c:	61b8      	str	r0, [r7, #24]

  /* Calculate Timeout based on a software loop to avoid blocking issue if Systick is disabled */
  count = tmp_timeout * ((SystemCoreClock * 32U) >> 20U);
 8005c2e:	4b39      	ldr	r3, [pc, #228]	; (8005d14 <SPI_WaitFlagStateUntilTimeout+0x10c>)
 8005c30:	681b      	ldr	r3, [r3, #0]
 8005c32:	015b      	lsls	r3, r3, #5
 8005c34:	0d1b      	lsrs	r3, r3, #20
 8005c36:	69fa      	ldr	r2, [r7, #28]
 8005c38:	fb02 f303 	mul.w	r3, r2, r3
 8005c3c:	617b      	str	r3, [r7, #20]

  while ((__HAL_SPI_GET_FLAG(hspi, Flag) ? SET : RESET) != State)
 8005c3e:	e054      	b.n	8005cea <SPI_WaitFlagStateUntilTimeout+0xe2>
  {
    if (Timeout != HAL_MAX_DELAY)
 8005c40:	683b      	ldr	r3, [r7, #0]
 8005c42:	f1b3 3fff 	cmp.w	r3, #4294967295	; 0xffffffff
 8005c46:	d050      	beq.n	8005cea <SPI_WaitFlagStateUntilTimeout+0xe2>
    {
      if (((HAL_GetTick() - tmp_tickstart) >= tmp_timeout) || (tmp_timeout == 0U))
 8005c48:	f7fc fcce 	bl	80025e8 <HAL_GetTick>
 8005c4c:	4602      	mov	r2, r0
 8005c4e:	69bb      	ldr	r3, [r7, #24]
 8005c50:	1ad3      	subs	r3, r2, r3
 8005c52:	69fa      	ldr	r2, [r7, #28]
 8005c54:	429a      	cmp	r2, r3
 8005c56:	d902      	bls.n	8005c5e <SPI_WaitFlagStateUntilTimeout+0x56>
 8005c58:	69fb      	ldr	r3, [r7, #28]
 8005c5a:	2b00      	cmp	r3, #0
 8005c5c:	d13d      	bne.n	8005cda <SPI_WaitFlagStateUntilTimeout+0xd2>
        /* Disable the SPI and reset the CRC: the CRC value should be cleared
           on both master and slave sides in order to resynchronize the master
           and slave for their respective CRC calculation */

        /* Disable TXE, RXNE and ERR interrupts for the interrupt process */
        __HAL_SPI_DISABLE_IT(hspi, (SPI_IT_TXE | SPI_IT_RXNE | SPI_IT_ERR));
 8005c5e:	68fb      	ldr	r3, [r7, #12]
 8005c60:	681b      	ldr	r3, [r3, #0]
 8005c62:	685a      	ldr	r2, [r3, #4]
 8005c64:	68fb      	ldr	r3, [r7, #12]
 8005c66:	681b      	ldr	r3, [r3, #0]
 8005c68:	f022 02e0 	bic.w	r2, r2, #224	; 0xe0
 8005c6c:	605a      	str	r2, [r3, #4]

        if ((hspi->Init.Mode == SPI_MODE_MASTER) && ((hspi->Init.Direction == SPI_DIRECTION_1LINE)
 8005c6e:	68fb      	ldr	r3, [r7, #12]
 8005c70:	685b      	ldr	r3, [r3, #4]
 8005c72:	f5b3 7f82 	cmp.w	r3, #260	; 0x104
 8005c76:	d111      	bne.n	8005c9c <SPI_WaitFlagStateUntilTimeout+0x94>
 8005c78:	68fb      	ldr	r3, [r7, #12]
 8005c7a:	689b      	ldr	r3, [r3, #8]
 8005c7c:	f5b3 4f00 	cmp.w	r3, #32768	; 0x8000
 8005c80:	d004      	beq.n	8005c8c <SPI_WaitFlagStateUntilTimeout+0x84>
                                                     || (hspi->Init.Direction == SPI_DIRECTION_2LINES_RXONLY)))
 8005c82:	68fb      	ldr	r3, [r7, #12]
 8005c84:	689b      	ldr	r3, [r3, #8]
 8005c86:	f5b3 6f80 	cmp.w	r3, #1024	; 0x400
 8005c8a:	d107      	bne.n	8005c9c <SPI_WaitFlagStateUntilTimeout+0x94>
        {
          /* Disable SPI peripheral */
          __HAL_SPI_DISABLE(hspi);
 8005c8c:	68fb      	ldr	r3, [r7, #12]
 8005c8e:	681b      	ldr	r3, [r3, #0]
 8005c90:	681a      	ldr	r2, [r3, #0]
 8005c92:	68fb      	ldr	r3, [r7, #12]
 8005c94:	681b      	ldr	r3, [r3, #0]
 8005c96:	f022 0240 	bic.w	r2, r2, #64	; 0x40
 8005c9a:	601a      	str	r2, [r3, #0]
        }

        /* Reset CRC Calculation */
        if (hspi->Init.CRCCalculation == SPI_CRCCALCULATION_ENABLE)
 8005c9c:	68fb      	ldr	r3, [r7, #12]
 8005c9e:	6a9b      	ldr	r3, [r3, #40]	; 0x28
 8005ca0:	f5b3 5f00 	cmp.w	r3, #8192	; 0x2000
 8005ca4:	d10f      	bne.n	8005cc6 <SPI_WaitFlagStateUntilTimeout+0xbe>
        {
          SPI_RESET_CRC(hspi);
 8005ca6:	68fb      	ldr	r3, [r7, #12]
 8005ca8:	681b      	ldr	r3, [r3, #0]
 8005caa:	681a      	ldr	r2, [r3, #0]
 8005cac:	68fb      	ldr	r3, [r7, #12]
 8005cae:	681b      	ldr	r3, [r3, #0]
 8005cb0:	f422 5200 	bic.w	r2, r2, #8192	; 0x2000
 8005cb4:	601a      	str	r2, [r3, #0]
 8005cb6:	68fb      	ldr	r3, [r7, #12]
 8005cb8:	681b      	ldr	r3, [r3, #0]
 8005cba:	681a      	ldr	r2, [r3, #0]
 8005cbc:	68fb      	ldr	r3, [r7, #12]
 8005cbe:	681b      	ldr	r3, [r3, #0]
 8005cc0:	f442 5200 	orr.w	r2, r2, #8192	; 0x2000
 8005cc4:	601a      	str	r2, [r3, #0]
        }

        hspi->State = HAL_SPI_STATE_READY;
 8005cc6:	68fb      	ldr	r3, [r7, #12]
 8005cc8:	2201      	movs	r2, #1
 8005cca:	f883 2051 	strb.w	r2, [r3, #81]	; 0x51

        /* Process Unlocked */
        __HAL_UNLOCK(hspi);
 8005cce:	68fb      	ldr	r3, [r7, #12]
 8005cd0:	2200      	movs	r2, #0
 8005cd2:	f883 2050 	strb.w	r2, [r3, #80]	; 0x50

        return HAL_TIMEOUT;
 8005cd6:	2303      	movs	r3, #3
 8005cd8:	e017      	b.n	8005d0a <SPI_WaitFlagStateUntilTimeout+0x102>
      }
      /* If Systick is disabled or not incremented, deactivate timeout to go in disable loop procedure */
      if (count == 0U)
 8005cda:	697b      	ldr	r3, [r7, #20]
 8005cdc:	2b00      	cmp	r3, #0
 8005cde:	d101      	bne.n	8005ce4 <SPI_WaitFlagStateUntilTimeout+0xdc>
      {
        tmp_timeout = 0U;
 8005ce0:	2300      	movs	r3, #0
 8005ce2:	61fb      	str	r3, [r7, #28]
      }
      count--;
 8005ce4:	697b      	ldr	r3, [r7, #20]
 8005ce6:	3b01      	subs	r3, #1
 8005ce8:	617b      	str	r3, [r7, #20]
  while ((__HAL_SPI_GET_FLAG(hspi, Flag) ? SET : RESET) != State)
 8005cea:	68fb      	ldr	r3, [r7, #12]
 8005cec:	681b      	ldr	r3, [r3, #0]
 8005cee:	689a      	ldr	r2, [r3, #8]
 8005cf0:	68bb      	ldr	r3, [r7, #8]
 8005cf2:	4013      	ands	r3, r2
 8005cf4:	68ba      	ldr	r2, [r7, #8]
 8005cf6:	429a      	cmp	r2, r3
 8005cf8:	bf0c      	ite	eq
 8005cfa:	2301      	moveq	r3, #1
 8005cfc:	2300      	movne	r3, #0
 8005cfe:	b2db      	uxtb	r3, r3
 8005d00:	461a      	mov	r2, r3
 8005d02:	79fb      	ldrb	r3, [r7, #7]
 8005d04:	429a      	cmp	r2, r3
 8005d06:	d19b      	bne.n	8005c40 <SPI_WaitFlagStateUntilTimeout+0x38>
    }
  }

  return HAL_OK;
 8005d08:	2300      	movs	r3, #0
}
 8005d0a:	4618      	mov	r0, r3
 8005d0c:	3720      	adds	r7, #32
 8005d0e:	46bd      	mov	sp, r7
 8005d10:	bd80      	pop	{r7, pc}
 8005d12:	bf00      	nop
 8005d14:	20000018 	.word	0x20000018

08005d18 <SPI_EndRxTransaction>:
  * @param  Timeout Timeout duration
  * @param  Tickstart tick start value
  * @retval HAL status
  */
static HAL_StatusTypeDef SPI_EndRxTransaction(SPI_HandleTypeDef *hspi,  uint32_t Timeout, uint32_t Tickstart)
{
 8005d18:	b580      	push	{r7, lr}
 8005d1a:	b086      	sub	sp, #24
 8005d1c:	af02      	add	r7, sp, #8
 8005d1e:	60f8      	str	r0, [r7, #12]
 8005d20:	60b9      	str	r1, [r7, #8]
 8005d22:	607a      	str	r2, [r7, #4]
  if ((hspi->Init.Mode == SPI_MODE_MASTER) && ((hspi->Init.Direction == SPI_DIRECTION_1LINE)
 8005d24:	68fb      	ldr	r3, [r7, #12]
 8005d26:	685b      	ldr	r3, [r3, #4]
 8005d28:	f5b3 7f82 	cmp.w	r3, #260	; 0x104
 8005d2c:	d111      	bne.n	8005d52 <SPI_EndRxTransaction+0x3a>
 8005d2e:	68fb      	ldr	r3, [r7, #12]
 8005d30:	689b      	ldr	r3, [r3, #8]
 8005d32:	f5b3 4f00 	cmp.w	r3, #32768	; 0x8000
 8005d36:	d004      	beq.n	8005d42 <SPI_EndRxTransaction+0x2a>
                                               || (hspi->Init.Direction == SPI_DIRECTION_2LINES_RXONLY)))
 8005d38:	68fb      	ldr	r3, [r7, #12]
 8005d3a:	689b      	ldr	r3, [r3, #8]
 8005d3c:	f5b3 6f80 	cmp.w	r3, #1024	; 0x400
 8005d40:	d107      	bne.n	8005d52 <SPI_EndRxTransaction+0x3a>
  {
    /* Disable SPI peripheral */
    __HAL_SPI_DISABLE(hspi);
 8005d42:	68fb      	ldr	r3, [r7, #12]
 8005d44:	681b      	ldr	r3, [r3, #0]
 8005d46:	681a      	ldr	r2, [r3, #0]
 8005d48:	68fb      	ldr	r3, [r7, #12]
 8005d4a:	681b      	ldr	r3, [r3, #0]
 8005d4c:	f022 0240 	bic.w	r2, r2, #64	; 0x40
 8005d50:	601a      	str	r2, [r3, #0]
  }

  /* Erratasheet: BSY bit may stay high at the end of a data transfer in Slave mode */
  if (hspi->Init.Mode == SPI_MODE_MASTER)
 8005d52:	68fb      	ldr	r3, [r7, #12]
 8005d54:	685b      	ldr	r3, [r3, #4]
 8005d56:	f5b3 7f82 	cmp.w	r3, #260	; 0x104
 8005d5a:	d12a      	bne.n	8005db2 <SPI_EndRxTransaction+0x9a>
  {
    if (hspi->Init.Direction != SPI_DIRECTION_2LINES_RXONLY)
 8005d5c:	68fb      	ldr	r3, [r7, #12]
 8005d5e:	689b      	ldr	r3, [r3, #8]
 8005d60:	f5b3 6f80 	cmp.w	r3, #1024	; 0x400
 8005d64:	d012      	beq.n	8005d8c <SPI_EndRxTransaction+0x74>
    {
      /* Control the BSY flag */
      if (SPI_WaitFlagStateUntilTimeout(hspi, SPI_FLAG_BSY, RESET, Timeout, Tickstart) != HAL_OK)
 8005d66:	687b      	ldr	r3, [r7, #4]
 8005d68:	9300      	str	r3, [sp, #0]
 8005d6a:	68bb      	ldr	r3, [r7, #8]
 8005d6c:	2200      	movs	r2, #0
 8005d6e:	2180      	movs	r1, #128	; 0x80
 8005d70:	68f8      	ldr	r0, [r7, #12]
 8005d72:	f7ff ff49 	bl	8005c08 <SPI_WaitFlagStateUntilTimeout>
 8005d76:	4603      	mov	r3, r0
 8005d78:	2b00      	cmp	r3, #0
 8005d7a:	d02d      	beq.n	8005dd8 <SPI_EndRxTransaction+0xc0>
      {
        SET_BIT(hspi->ErrorCode, HAL_SPI_ERROR_FLAG);
 8005d7c:	68fb      	ldr	r3, [r7, #12]
 8005d7e:	6d5b      	ldr	r3, [r3, #84]	; 0x54
 8005d80:	f043 0220 	orr.w	r2, r3, #32
 8005d84:	68fb      	ldr	r3, [r7, #12]
 8005d86:	655a      	str	r2, [r3, #84]	; 0x54
        return HAL_TIMEOUT;
 8005d88:	2303      	movs	r3, #3
 8005d8a:	e026      	b.n	8005dda <SPI_EndRxTransaction+0xc2>
      }
    }
    else
    {
      /* Wait the RXNE reset */
      if (SPI_WaitFlagStateUntilTimeout(hspi, SPI_FLAG_RXNE, RESET, Timeout, Tickstart) != HAL_OK)
 8005d8c:	687b      	ldr	r3, [r7, #4]
 8005d8e:	9300      	str	r3, [sp, #0]
 8005d90:	68bb      	ldr	r3, [r7, #8]
 8005d92:	2200      	movs	r2, #0
 8005d94:	2101      	movs	r1, #1
 8005d96:	68f8      	ldr	r0, [r7, #12]
 8005d98:	f7ff ff36 	bl	8005c08 <SPI_WaitFlagStateUntilTimeout>
 8005d9c:	4603      	mov	r3, r0
 8005d9e:	2b00      	cmp	r3, #0
 8005da0:	d01a      	beq.n	8005dd8 <SPI_EndRxTransaction+0xc0>
      {
        SET_BIT(hspi->ErrorCode, HAL_SPI_ERROR_FLAG);
 8005da2:	68fb      	ldr	r3, [r7, #12]
 8005da4:	6d5b      	ldr	r3, [r3, #84]	; 0x54
 8005da6:	f043 0220 	orr.w	r2, r3, #32
 8005daa:	68fb      	ldr	r3, [r7, #12]
 8005dac:	655a      	str	r2, [r3, #84]	; 0x54
        return HAL_TIMEOUT;
 8005dae:	2303      	movs	r3, #3
 8005db0:	e013      	b.n	8005dda <SPI_EndRxTransaction+0xc2>
    }
  }
  else
  {
    /* Wait the RXNE reset */
    if (SPI_WaitFlagStateUntilTimeout(hspi, SPI_FLAG_RXNE, RESET, Timeout, Tickstart) != HAL_OK)
 8005db2:	687b      	ldr	r3, [r7, #4]
 8005db4:	9300      	str	r3, [sp, #0]
 8005db6:	68bb      	ldr	r3, [r7, #8]
 8005db8:	2200      	movs	r2, #0
 8005dba:	2101      	movs	r1, #1
 8005dbc:	68f8      	ldr	r0, [r7, #12]
 8005dbe:	f7ff ff23 	bl	8005c08 <SPI_WaitFlagStateUntilTimeout>
 8005dc2:	4603      	mov	r3, r0
 8005dc4:	2b00      	cmp	r3, #0
 8005dc6:	d007      	beq.n	8005dd8 <SPI_EndRxTransaction+0xc0>
    {
      SET_BIT(hspi->ErrorCode, HAL_SPI_ERROR_FLAG);
 8005dc8:	68fb      	ldr	r3, [r7, #12]
 8005dca:	6d5b      	ldr	r3, [r3, #84]	; 0x54
 8005dcc:	f043 0220 	orr.w	r2, r3, #32
 8005dd0:	68fb      	ldr	r3, [r7, #12]
 8005dd2:	655a      	str	r2, [r3, #84]	; 0x54
      return HAL_TIMEOUT;
 8005dd4:	2303      	movs	r3, #3
 8005dd6:	e000      	b.n	8005dda <SPI_EndRxTransaction+0xc2>
    }
  }
  return HAL_OK;
 8005dd8:	2300      	movs	r3, #0
}
 8005dda:	4618      	mov	r0, r3
 8005ddc:	3710      	adds	r7, #16
 8005dde:	46bd      	mov	sp, r7
 8005de0:	bd80      	pop	{r7, pc}
	...

08005de4 <SPI_EndRxTxTransaction>:
  * @param  Timeout Timeout duration
  * @param  Tickstart tick start value
  * @retval HAL status
  */
static HAL_StatusTypeDef SPI_EndRxTxTransaction(SPI_HandleTypeDef *hspi, uint32_t Timeout, uint32_t Tickstart)
{
 8005de4:	b580      	push	{r7, lr}
 8005de6:	b088      	sub	sp, #32
 8005de8:	af02      	add	r7, sp, #8
 8005dea:	60f8      	str	r0, [r7, #12]
 8005dec:	60b9      	str	r1, [r7, #8]
 8005dee:	607a      	str	r2, [r7, #4]
  /* Wait until TXE flag */
  if(SPI_WaitFlagStateUntilTimeout(hspi, SPI_FLAG_TXE, SET, Timeout, Tickstart) != HAL_OK)
 8005df0:	687b      	ldr	r3, [r7, #4]
 8005df2:	9300      	str	r3, [sp, #0]
 8005df4:	68bb      	ldr	r3, [r7, #8]
 8005df6:	2201      	movs	r2, #1
 8005df8:	2102      	movs	r1, #2
 8005dfa:	68f8      	ldr	r0, [r7, #12]
 8005dfc:	f7ff ff04 	bl	8005c08 <SPI_WaitFlagStateUntilTimeout>
 8005e00:	4603      	mov	r3, r0
 8005e02:	2b00      	cmp	r3, #0
 8005e04:	d007      	beq.n	8005e16 <SPI_EndRxTxTransaction+0x32>
  {
    SET_BIT(hspi->ErrorCode, HAL_SPI_ERROR_FLAG);
 8005e06:	68fb      	ldr	r3, [r7, #12]
 8005e08:	6d5b      	ldr	r3, [r3, #84]	; 0x54
 8005e0a:	f043 0220 	orr.w	r2, r3, #32
 8005e0e:	68fb      	ldr	r3, [r7, #12]
 8005e10:	655a      	str	r2, [r3, #84]	; 0x54
    return HAL_TIMEOUT;
 8005e12:	2303      	movs	r3, #3
 8005e14:	e032      	b.n	8005e7c <SPI_EndRxTxTransaction+0x98>
  }

  /* Timeout in s */
  __IO uint32_t count = SPI_BSY_FLAG_WORKAROUND_TIMEOUT * (SystemCoreClock / 24U / 1000000U);
 8005e16:	4b1b      	ldr	r3, [pc, #108]	; (8005e84 <SPI_EndRxTxTransaction+0xa0>)
 8005e18:	681b      	ldr	r3, [r3, #0]
 8005e1a:	4a1b      	ldr	r2, [pc, #108]	; (8005e88 <SPI_EndRxTxTransaction+0xa4>)
 8005e1c:	fba2 2303 	umull	r2, r3, r2, r3
 8005e20:	0d5b      	lsrs	r3, r3, #21
 8005e22:	f44f 727a 	mov.w	r2, #1000	; 0x3e8
 8005e26:	fb02 f303 	mul.w	r3, r2, r3
 8005e2a:	617b      	str	r3, [r7, #20]
  /* Erratasheet: BSY bit may stay high at the end of a data transfer in Slave mode */
  if (hspi->Init.Mode == SPI_MODE_MASTER)
 8005e2c:	68fb      	ldr	r3, [r7, #12]
 8005e2e:	685b      	ldr	r3, [r3, #4]
 8005e30:	f5b3 7f82 	cmp.w	r3, #260	; 0x104
 8005e34:	d112      	bne.n	8005e5c <SPI_EndRxTxTransaction+0x78>
  {
    /* Control the BSY flag */
    if (SPI_WaitFlagStateUntilTimeout(hspi, SPI_FLAG_BSY, RESET, Timeout, Tickstart) != HAL_OK)
 8005e36:	687b      	ldr	r3, [r7, #4]
 8005e38:	9300      	str	r3, [sp, #0]
 8005e3a:	68bb      	ldr	r3, [r7, #8]
 8005e3c:	2200      	movs	r2, #0
 8005e3e:	2180      	movs	r1, #128	; 0x80
 8005e40:	68f8      	ldr	r0, [r7, #12]
 8005e42:	f7ff fee1 	bl	8005c08 <SPI_WaitFlagStateUntilTimeout>
 8005e46:	4603      	mov	r3, r0
 8005e48:	2b00      	cmp	r3, #0
 8005e4a:	d016      	beq.n	8005e7a <SPI_EndRxTxTransaction+0x96>
    {
      SET_BIT(hspi->ErrorCode, HAL_SPI_ERROR_FLAG);
 8005e4c:	68fb      	ldr	r3, [r7, #12]
 8005e4e:	6d5b      	ldr	r3, [r3, #84]	; 0x54
 8005e50:	f043 0220 	orr.w	r2, r3, #32
 8005e54:	68fb      	ldr	r3, [r7, #12]
 8005e56:	655a      	str	r2, [r3, #84]	; 0x54
      return HAL_TIMEOUT;
 8005e58:	2303      	movs	r3, #3
 8005e5a:	e00f      	b.n	8005e7c <SPI_EndRxTxTransaction+0x98>
    * User have to calculate the timeout value to fit with the time of 1 byte transfer.
    * This time is directly link with the SPI clock from Master device.
    */
    do
    {
      if (count == 0U)
 8005e5c:	697b      	ldr	r3, [r7, #20]
 8005e5e:	2b00      	cmp	r3, #0
 8005e60:	d00a      	beq.n	8005e78 <SPI_EndRxTxTransaction+0x94>
      {
        break;
      }
      count--;
 8005e62:	697b      	ldr	r3, [r7, #20]
 8005e64:	3b01      	subs	r3, #1
 8005e66:	617b      	str	r3, [r7, #20]
    } while (__HAL_SPI_GET_FLAG(hspi, SPI_FLAG_BSY) != RESET);
 8005e68:	68fb      	ldr	r3, [r7, #12]
 8005e6a:	681b      	ldr	r3, [r3, #0]
 8005e6c:	689b      	ldr	r3, [r3, #8]
 8005e6e:	f003 0380 	and.w	r3, r3, #128	; 0x80
 8005e72:	2b80      	cmp	r3, #128	; 0x80
 8005e74:	d0f2      	beq.n	8005e5c <SPI_EndRxTxTransaction+0x78>
 8005e76:	e000      	b.n	8005e7a <SPI_EndRxTxTransaction+0x96>
        break;
 8005e78:	bf00      	nop
  }

  return HAL_OK;
 8005e7a:	2300      	movs	r3, #0
}
 8005e7c:	4618      	mov	r0, r3
 8005e7e:	3718      	adds	r7, #24
 8005e80:	46bd      	mov	sp, r7
 8005e82:	bd80      	pop	{r7, pc}
 8005e84:	20000018 	.word	0x20000018
 8005e88:	165e9f81 	.word	0x165e9f81

08005e8c <HAL_TIM_Base_Init>:
  *         Ex: call @ref HAL_TIM_Base_DeInit() before HAL_TIM_Base_Init()
  * @param  htim TIM Base handle
  * @retval HAL status
  */
HAL_StatusTypeDef HAL_TIM_Base_Init(TIM_HandleTypeDef *htim)
{
 8005e8c:	b580      	push	{r7, lr}
 8005e8e:	b082      	sub	sp, #8
 8005e90:	af00      	add	r7, sp, #0
 8005e92:	6078      	str	r0, [r7, #4]
  /* Check the TIM handle allocation */
  if (htim == NULL)
 8005e94:	687b      	ldr	r3, [r7, #4]
 8005e96:	2b00      	cmp	r3, #0
 8005e98:	d101      	bne.n	8005e9e <HAL_TIM_Base_Init+0x12>
  {
    return HAL_ERROR;
 8005e9a:	2301      	movs	r3, #1
 8005e9c:	e041      	b.n	8005f22 <HAL_TIM_Base_Init+0x96>
  assert_param(IS_TIM_COUNTER_MODE(htim->Init.CounterMode));
  assert_param(IS_TIM_CLOCKDIVISION_DIV(htim->Init.ClockDivision));
  assert_param(IS_TIM_PERIOD(htim, htim->Init.Period));
  assert_param(IS_TIM_AUTORELOAD_PRELOAD(htim->Init.AutoReloadPreload));

  if (htim->State == HAL_TIM_STATE_RESET)
 8005e9e:	687b      	ldr	r3, [r7, #4]
 8005ea0:	f893 303d 	ldrb.w	r3, [r3, #61]	; 0x3d
 8005ea4:	b2db      	uxtb	r3, r3
 8005ea6:	2b00      	cmp	r3, #0
 8005ea8:	d106      	bne.n	8005eb8 <HAL_TIM_Base_Init+0x2c>
  {
    /* Allocate lock resource and initialize it */
    htim->Lock = HAL_UNLOCKED;
 8005eaa:	687b      	ldr	r3, [r7, #4]
 8005eac:	2200      	movs	r2, #0
 8005eae:	f883 203c 	strb.w	r2, [r3, #60]	; 0x3c
    }
    /* Init the low level hardware : GPIO, CLOCK, NVIC */
    htim->Base_MspInitCallback(htim);
#else
    /* Init the low level hardware : GPIO, CLOCK, NVIC */
    HAL_TIM_Base_MspInit(htim);
 8005eb2:	6878      	ldr	r0, [r7, #4]
 8005eb4:	f7fc f9e6 	bl	8002284 <HAL_TIM_Base_MspInit>
#endif /* USE_HAL_TIM_REGISTER_CALLBACKS */
  }

  /* Set the TIM state */
  htim->State = HAL_TIM_STATE_BUSY;
 8005eb8:	687b      	ldr	r3, [r7, #4]
 8005eba:	2202      	movs	r2, #2
 8005ebc:	f883 203d 	strb.w	r2, [r3, #61]	; 0x3d

  /* Set the Time Base configuration */
  TIM_Base_SetConfig(htim->Instance, &htim->Init);
 8005ec0:	687b      	ldr	r3, [r7, #4]
 8005ec2:	681a      	ldr	r2, [r3, #0]
 8005ec4:	687b      	ldr	r3, [r7, #4]
 8005ec6:	3304      	adds	r3, #4
 8005ec8:	4619      	mov	r1, r3
 8005eca:	4610      	mov	r0, r2
 8005ecc:	f000 f9c0 	bl	8006250 <TIM_Base_SetConfig>

  /* Initialize the DMA burst operation state */
  htim->DMABurstState = HAL_DMA_BURST_STATE_READY;
 8005ed0:	687b      	ldr	r3, [r7, #4]
 8005ed2:	2201      	movs	r2, #1
 8005ed4:	f883 2046 	strb.w	r2, [r3, #70]	; 0x46

  /* Initialize the TIM channels state */
  TIM_CHANNEL_STATE_SET_ALL(htim, HAL_TIM_CHANNEL_STATE_READY);
 8005ed8:	687b      	ldr	r3, [r7, #4]
 8005eda:	2201      	movs	r2, #1
 8005edc:	f883 203e 	strb.w	r2, [r3, #62]	; 0x3e
 8005ee0:	687b      	ldr	r3, [r7, #4]
 8005ee2:	2201      	movs	r2, #1
 8005ee4:	f883 203f 	strb.w	r2, [r3, #63]	; 0x3f
 8005ee8:	687b      	ldr	r3, [r7, #4]
 8005eea:	2201      	movs	r2, #1
 8005eec:	f883 2040 	strb.w	r2, [r3, #64]	; 0x40
 8005ef0:	687b      	ldr	r3, [r7, #4]
 8005ef2:	2201      	movs	r2, #1
 8005ef4:	f883 2041 	strb.w	r2, [r3, #65]	; 0x41
  TIM_CHANNEL_N_STATE_SET_ALL(htim, HAL_TIM_CHANNEL_STATE_READY);
 8005ef8:	687b      	ldr	r3, [r7, #4]
 8005efa:	2201      	movs	r2, #1
 8005efc:	f883 2042 	strb.w	r2, [r3, #66]	; 0x42
 8005f00:	687b      	ldr	r3, [r7, #4]
 8005f02:	2201      	movs	r2, #1
 8005f04:	f883 2043 	strb.w	r2, [r3, #67]	; 0x43
 8005f08:	687b      	ldr	r3, [r7, #4]
 8005f0a:	2201      	movs	r2, #1
 8005f0c:	f883 2044 	strb.w	r2, [r3, #68]	; 0x44
 8005f10:	687b      	ldr	r3, [r7, #4]
 8005f12:	2201      	movs	r2, #1
 8005f14:	f883 2045 	strb.w	r2, [r3, #69]	; 0x45

  /* Initialize the TIM state*/
  htim->State = HAL_TIM_STATE_READY;
 8005f18:	687b      	ldr	r3, [r7, #4]
 8005f1a:	2201      	movs	r2, #1
 8005f1c:	f883 203d 	strb.w	r2, [r3, #61]	; 0x3d

  return HAL_OK;
 8005f20:	2300      	movs	r3, #0
}
 8005f22:	4618      	mov	r0, r3
 8005f24:	3708      	adds	r7, #8
 8005f26:	46bd      	mov	sp, r7
 8005f28:	bd80      	pop	{r7, pc}
	...

08005f2c <HAL_TIM_Base_Start_IT>:
  * @brief  Starts the TIM Base generation in interrupt mode.
  * @param  htim TIM Base handle
  * @retval HAL status
  */
HAL_StatusTypeDef HAL_TIM_Base_Start_IT(TIM_HandleTypeDef *htim)
{
 8005f2c:	b480      	push	{r7}
 8005f2e:	b085      	sub	sp, #20
 8005f30:	af00      	add	r7, sp, #0
 8005f32:	6078      	str	r0, [r7, #4]

  /* Check the parameters */
  assert_param(IS_TIM_INSTANCE(htim->Instance));

  /* Check the TIM state */
  if (htim->State != HAL_TIM_STATE_READY)
 8005f34:	687b      	ldr	r3, [r7, #4]
 8005f36:	f893 303d 	ldrb.w	r3, [r3, #61]	; 0x3d
 8005f3a:	b2db      	uxtb	r3, r3
 8005f3c:	2b01      	cmp	r3, #1
 8005f3e:	d001      	beq.n	8005f44 <HAL_TIM_Base_Start_IT+0x18>
  {
    return HAL_ERROR;
 8005f40:	2301      	movs	r3, #1
 8005f42:	e04e      	b.n	8005fe2 <HAL_TIM_Base_Start_IT+0xb6>
  }

  /* Set the TIM state */
  htim->State = HAL_TIM_STATE_BUSY;
 8005f44:	687b      	ldr	r3, [r7, #4]
 8005f46:	2202      	movs	r2, #2
 8005f48:	f883 203d 	strb.w	r2, [r3, #61]	; 0x3d

  /* Enable the TIM Update interrupt */
  __HAL_TIM_ENABLE_IT(htim, TIM_IT_UPDATE);
 8005f4c:	687b      	ldr	r3, [r7, #4]
 8005f4e:	681b      	ldr	r3, [r3, #0]
 8005f50:	68da      	ldr	r2, [r3, #12]
 8005f52:	687b      	ldr	r3, [r7, #4]
 8005f54:	681b      	ldr	r3, [r3, #0]
 8005f56:	f042 0201 	orr.w	r2, r2, #1
 8005f5a:	60da      	str	r2, [r3, #12]

  /* Enable the Peripheral, except in trigger mode where enable is automatically done with trigger */
  if (IS_TIM_SLAVE_INSTANCE(htim->Instance))
 8005f5c:	687b      	ldr	r3, [r7, #4]
 8005f5e:	681b      	ldr	r3, [r3, #0]
 8005f60:	4a23      	ldr	r2, [pc, #140]	; (8005ff0 <HAL_TIM_Base_Start_IT+0xc4>)
 8005f62:	4293      	cmp	r3, r2
 8005f64:	d022      	beq.n	8005fac <HAL_TIM_Base_Start_IT+0x80>
 8005f66:	687b      	ldr	r3, [r7, #4]
 8005f68:	681b      	ldr	r3, [r3, #0]
 8005f6a:	f1b3 4f80 	cmp.w	r3, #1073741824	; 0x40000000
 8005f6e:	d01d      	beq.n	8005fac <HAL_TIM_Base_Start_IT+0x80>
 8005f70:	687b      	ldr	r3, [r7, #4]
 8005f72:	681b      	ldr	r3, [r3, #0]
 8005f74:	4a1f      	ldr	r2, [pc, #124]	; (8005ff4 <HAL_TIM_Base_Start_IT+0xc8>)
 8005f76:	4293      	cmp	r3, r2
 8005f78:	d018      	beq.n	8005fac <HAL_TIM_Base_Start_IT+0x80>
 8005f7a:	687b      	ldr	r3, [r7, #4]
 8005f7c:	681b      	ldr	r3, [r3, #0]
 8005f7e:	4a1e      	ldr	r2, [pc, #120]	; (8005ff8 <HAL_TIM_Base_Start_IT+0xcc>)
 8005f80:	4293      	cmp	r3, r2
 8005f82:	d013      	beq.n	8005fac <HAL_TIM_Base_Start_IT+0x80>
 8005f84:	687b      	ldr	r3, [r7, #4]
 8005f86:	681b      	ldr	r3, [r3, #0]
 8005f88:	4a1c      	ldr	r2, [pc, #112]	; (8005ffc <HAL_TIM_Base_Start_IT+0xd0>)
 8005f8a:	4293      	cmp	r3, r2
 8005f8c:	d00e      	beq.n	8005fac <HAL_TIM_Base_Start_IT+0x80>
 8005f8e:	687b      	ldr	r3, [r7, #4]
 8005f90:	681b      	ldr	r3, [r3, #0]
 8005f92:	4a1b      	ldr	r2, [pc, #108]	; (8006000 <HAL_TIM_Base_Start_IT+0xd4>)
 8005f94:	4293      	cmp	r3, r2
 8005f96:	d009      	beq.n	8005fac <HAL_TIM_Base_Start_IT+0x80>
 8005f98:	687b      	ldr	r3, [r7, #4]
 8005f9a:	681b      	ldr	r3, [r3, #0]
 8005f9c:	4a19      	ldr	r2, [pc, #100]	; (8006004 <HAL_TIM_Base_Start_IT+0xd8>)
 8005f9e:	4293      	cmp	r3, r2
 8005fa0:	d004      	beq.n	8005fac <HAL_TIM_Base_Start_IT+0x80>
 8005fa2:	687b      	ldr	r3, [r7, #4]
 8005fa4:	681b      	ldr	r3, [r3, #0]
 8005fa6:	4a18      	ldr	r2, [pc, #96]	; (8006008 <HAL_TIM_Base_Start_IT+0xdc>)
 8005fa8:	4293      	cmp	r3, r2
 8005faa:	d111      	bne.n	8005fd0 <HAL_TIM_Base_Start_IT+0xa4>
  {
    tmpsmcr = htim->Instance->SMCR & TIM_SMCR_SMS;
 8005fac:	687b      	ldr	r3, [r7, #4]
 8005fae:	681b      	ldr	r3, [r3, #0]
 8005fb0:	689b      	ldr	r3, [r3, #8]
 8005fb2:	f003 0307 	and.w	r3, r3, #7
 8005fb6:	60fb      	str	r3, [r7, #12]
    if (!IS_TIM_SLAVEMODE_TRIGGER_ENABLED(tmpsmcr))
 8005fb8:	68fb      	ldr	r3, [r7, #12]
 8005fba:	2b06      	cmp	r3, #6
 8005fbc:	d010      	beq.n	8005fe0 <HAL_TIM_Base_Start_IT+0xb4>
    {
      __HAL_TIM_ENABLE(htim);
 8005fbe:	687b      	ldr	r3, [r7, #4]
 8005fc0:	681b      	ldr	r3, [r3, #0]
 8005fc2:	681a      	ldr	r2, [r3, #0]
 8005fc4:	687b      	ldr	r3, [r7, #4]
 8005fc6:	681b      	ldr	r3, [r3, #0]
 8005fc8:	f042 0201 	orr.w	r2, r2, #1
 8005fcc:	601a      	str	r2, [r3, #0]
    if (!IS_TIM_SLAVEMODE_TRIGGER_ENABLED(tmpsmcr))
 8005fce:	e007      	b.n	8005fe0 <HAL_TIM_Base_Start_IT+0xb4>
    }
  }
  else
  {
    __HAL_TIM_ENABLE(htim);
 8005fd0:	687b      	ldr	r3, [r7, #4]
 8005fd2:	681b      	ldr	r3, [r3, #0]
 8005fd4:	681a      	ldr	r2, [r3, #0]
 8005fd6:	687b      	ldr	r3, [r7, #4]
 8005fd8:	681b      	ldr	r3, [r3, #0]
 8005fda:	f042 0201 	orr.w	r2, r2, #1
 8005fde:	601a      	str	r2, [r3, #0]
  }

  /* Return function status */
  return HAL_OK;
 8005fe0:	2300      	movs	r3, #0
}
 8005fe2:	4618      	mov	r0, r3
 8005fe4:	3714      	adds	r7, #20
 8005fe6:	46bd      	mov	sp, r7
 8005fe8:	f85d 7b04 	ldr.w	r7, [sp], #4
 8005fec:	4770      	bx	lr
 8005fee:	bf00      	nop
 8005ff0:	40010000 	.word	0x40010000
 8005ff4:	40000400 	.word	0x40000400
 8005ff8:	40000800 	.word	0x40000800
 8005ffc:	40000c00 	.word	0x40000c00
 8006000:	40010400 	.word	0x40010400
 8006004:	40014000 	.word	0x40014000
 8006008:	40001800 	.word	0x40001800

0800600c <HAL_TIM_IRQHandler>:
  * @brief  This function handles TIM interrupts requests.
  * @param  htim TIM  handle
  * @retval None
  */
void HAL_TIM_IRQHandler(TIM_HandleTypeDef *htim)
{
 800600c:	b580      	push	{r7, lr}
 800600e:	b084      	sub	sp, #16
 8006010:	af00      	add	r7, sp, #0
 8006012:	6078      	str	r0, [r7, #4]
  uint32_t itsource = htim->Instance->DIER;
 8006014:	687b      	ldr	r3, [r7, #4]
 8006016:	681b      	ldr	r3, [r3, #0]
 8006018:	68db      	ldr	r3, [r3, #12]
 800601a:	60fb      	str	r3, [r7, #12]
  uint32_t itflag   = htim->Instance->SR;
 800601c:	687b      	ldr	r3, [r7, #4]
 800601e:	681b      	ldr	r3, [r3, #0]
 8006020:	691b      	ldr	r3, [r3, #16]
 8006022:	60bb      	str	r3, [r7, #8]

  /* Capture compare 1 event */
  if ((itflag & (TIM_FLAG_CC1)) == (TIM_FLAG_CC1))
 8006024:	68bb      	ldr	r3, [r7, #8]
 8006026:	f003 0302 	and.w	r3, r3, #2
 800602a:	2b00      	cmp	r3, #0
 800602c:	d020      	beq.n	8006070 <HAL_TIM_IRQHandler+0x64>
  {
    if ((itsource & (TIM_IT_CC1)) == (TIM_IT_CC1))
 800602e:	68fb      	ldr	r3, [r7, #12]
 8006030:	f003 0302 	and.w	r3, r3, #2
 8006034:	2b00      	cmp	r3, #0
 8006036:	d01b      	beq.n	8006070 <HAL_TIM_IRQHandler+0x64>
    {
      {
        __HAL_TIM_CLEAR_FLAG(htim, TIM_FLAG_CC1);
 8006038:	687b      	ldr	r3, [r7, #4]
 800603a:	681b      	ldr	r3, [r3, #0]
 800603c:	f06f 0202 	mvn.w	r2, #2
 8006040:	611a      	str	r2, [r3, #16]
        htim->Channel = HAL_TIM_ACTIVE_CHANNEL_1;
 8006042:	687b      	ldr	r3, [r7, #4]
 8006044:	2201      	movs	r2, #1
 8006046:	771a      	strb	r2, [r3, #28]

        /* Input capture event */
        if ((htim->Instance->CCMR1 & TIM_CCMR1_CC1S) != 0x00U)
 8006048:	687b      	ldr	r3, [r7, #4]
 800604a:	681b      	ldr	r3, [r3, #0]
 800604c:	699b      	ldr	r3, [r3, #24]
 800604e:	f003 0303 	and.w	r3, r3, #3
 8006052:	2b00      	cmp	r3, #0
 8006054:	d003      	beq.n	800605e <HAL_TIM_IRQHandler+0x52>
        {
#if (USE_HAL_TIM_REGISTER_CALLBACKS == 1)
          htim->IC_CaptureCallback(htim);
#else
          HAL_TIM_IC_CaptureCallback(htim);
 8006056:	6878      	ldr	r0, [r7, #4]
 8006058:	f000 f8dc 	bl	8006214 <HAL_TIM_IC_CaptureCallback>
 800605c:	e005      	b.n	800606a <HAL_TIM_IRQHandler+0x5e>
        {
#if (USE_HAL_TIM_REGISTER_CALLBACKS == 1)
          htim->OC_DelayElapsedCallback(htim);
          htim->PWM_PulseFinishedCallback(htim);
#else
          HAL_TIM_OC_DelayElapsedCallback(htim);
 800605e:	6878      	ldr	r0, [r7, #4]
 8006060:	f000 f8ce 	bl	8006200 <HAL_TIM_OC_DelayElapsedCallback>
          HAL_TIM_PWM_PulseFinishedCallback(htim);
 8006064:	6878      	ldr	r0, [r7, #4]
 8006066:	f000 f8df 	bl	8006228 <HAL_TIM_PWM_PulseFinishedCallback>
#endif /* USE_HAL_TIM_REGISTER_CALLBACKS */
        }
        htim->Channel = HAL_TIM_ACTIVE_CHANNEL_CLEARED;
 800606a:	687b      	ldr	r3, [r7, #4]
 800606c:	2200      	movs	r2, #0
 800606e:	771a      	strb	r2, [r3, #28]
      }
    }
  }
  /* Capture compare 2 event */
  if ((itflag & (TIM_FLAG_CC2)) == (TIM_FLAG_CC2))
 8006070:	68bb      	ldr	r3, [r7, #8]
 8006072:	f003 0304 	and.w	r3, r3, #4
 8006076:	2b00      	cmp	r3, #0
 8006078:	d020      	beq.n	80060bc <HAL_TIM_IRQHandler+0xb0>
  {
    if ((itsource & (TIM_IT_CC2)) == (TIM_IT_CC2))
 800607a:	68fb      	ldr	r3, [r7, #12]
 800607c:	f003 0304 	and.w	r3, r3, #4
 8006080:	2b00      	cmp	r3, #0
 8006082:	d01b      	beq.n	80060bc <HAL_TIM_IRQHandler+0xb0>
    {
      __HAL_TIM_CLEAR_FLAG(htim, TIM_FLAG_CC2);
 8006084:	687b      	ldr	r3, [r7, #4]
 8006086:	681b      	ldr	r3, [r3, #0]
 8006088:	f06f 0204 	mvn.w	r2, #4
 800608c:	611a      	str	r2, [r3, #16]
      htim->Channel = HAL_TIM_ACTIVE_CHANNEL_2;
 800608e:	687b      	ldr	r3, [r7, #4]
 8006090:	2202      	movs	r2, #2
 8006092:	771a      	strb	r2, [r3, #28]
      /* Input capture event */
      if ((htim->Instance->CCMR1 & TIM_CCMR1_CC2S) != 0x00U)
 8006094:	687b      	ldr	r3, [r7, #4]
 8006096:	681b      	ldr	r3, [r3, #0]
 8006098:	699b      	ldr	r3, [r3, #24]
 800609a:	f403 7340 	and.w	r3, r3, #768	; 0x300
 800609e:	2b00      	cmp	r3, #0
 80060a0:	d003      	beq.n	80060aa <HAL_TIM_IRQHandler+0x9e>
      {
#if (USE_HAL_TIM_REGISTER_CALLBACKS == 1)
        htim->IC_CaptureCallback(htim);
#else
        HAL_TIM_IC_CaptureCallback(htim);
 80060a2:	6878      	ldr	r0, [r7, #4]
 80060a4:	f000 f8b6 	bl	8006214 <HAL_TIM_IC_CaptureCallback>
 80060a8:	e005      	b.n	80060b6 <HAL_TIM_IRQHandler+0xaa>
      {
#if (USE_HAL_TIM_REGISTER_CALLBACKS == 1)
        htim->OC_DelayElapsedCallback(htim);
        htim->PWM_PulseFinishedCallback(htim);
#else
        HAL_TIM_OC_DelayElapsedCallback(htim);
 80060aa:	6878      	ldr	r0, [r7, #4]
 80060ac:	f000 f8a8 	bl	8006200 <HAL_TIM_OC_DelayElapsedCallback>
        HAL_TIM_PWM_PulseFinishedCallback(htim);
 80060b0:	6878      	ldr	r0, [r7, #4]
 80060b2:	f000 f8b9 	bl	8006228 <HAL_TIM_PWM_PulseFinishedCallback>
#endif /* USE_HAL_TIM_REGISTER_CALLBACKS */
      }
      htim->Channel = HAL_TIM_ACTIVE_CHANNEL_CLEARED;
 80060b6:	687b      	ldr	r3, [r7, #4]
 80060b8:	2200      	movs	r2, #0
 80060ba:	771a      	strb	r2, [r3, #28]
    }
  }
  /* Capture compare 3 event */
  if ((itflag & (TIM_FLAG_CC3)) == (TIM_FLAG_CC3))
 80060bc:	68bb      	ldr	r3, [r7, #8]
 80060be:	f003 0308 	and.w	r3, r3, #8
 80060c2:	2b00      	cmp	r3, #0
 80060c4:	d020      	beq.n	8006108 <HAL_TIM_IRQHandler+0xfc>
  {
    if ((itsource & (TIM_IT_CC3)) == (TIM_IT_CC3))
 80060c6:	68fb      	ldr	r3, [r7, #12]
 80060c8:	f003 0308 	and.w	r3, r3, #8
 80060cc:	2b00      	cmp	r3, #0
 80060ce:	d01b      	beq.n	8006108 <HAL_TIM_IRQHandler+0xfc>
    {
      __HAL_TIM_CLEAR_FLAG(htim, TIM_FLAG_CC3);
 80060d0:	687b      	ldr	r3, [r7, #4]
 80060d2:	681b      	ldr	r3, [r3, #0]
 80060d4:	f06f 0208 	mvn.w	r2, #8
 80060d8:	611a      	str	r2, [r3, #16]
      htim->Channel = HAL_TIM_ACTIVE_CHANNEL_3;
 80060da:	687b      	ldr	r3, [r7, #4]
 80060dc:	2204      	movs	r2, #4
 80060de:	771a      	strb	r2, [r3, #28]
      /* Input capture event */
      if ((htim->Instance->CCMR2 & TIM_CCMR2_CC3S) != 0x00U)
 80060e0:	687b      	ldr	r3, [r7, #4]
 80060e2:	681b      	ldr	r3, [r3, #0]
 80060e4:	69db      	ldr	r3, [r3, #28]
 80060e6:	f003 0303 	and.w	r3, r3, #3
 80060ea:	2b00      	cmp	r3, #0
 80060ec:	d003      	beq.n	80060f6 <HAL_TIM_IRQHandler+0xea>
      {
#if (USE_HAL_TIM_REGISTER_CALLBACKS == 1)
        htim->IC_CaptureCallback(htim);
#else
        HAL_TIM_IC_CaptureCallback(htim);
 80060ee:	6878      	ldr	r0, [r7, #4]
 80060f0:	f000 f890 	bl	8006214 <HAL_TIM_IC_CaptureCallback>
 80060f4:	e005      	b.n	8006102 <HAL_TIM_IRQHandler+0xf6>
      {
#if (USE_HAL_TIM_REGISTER_CALLBACKS == 1)
        htim->OC_DelayElapsedCallback(htim);
        htim->PWM_PulseFinishedCallback(htim);
#else
        HAL_TIM_OC_DelayElapsedCallback(htim);
 80060f6:	6878      	ldr	r0, [r7, #4]
 80060f8:	f000 f882 	bl	8006200 <HAL_TIM_OC_DelayElapsedCallback>
        HAL_TIM_PWM_PulseFinishedCallback(htim);
 80060fc:	6878      	ldr	r0, [r7, #4]
 80060fe:	f000 f893 	bl	8006228 <HAL_TIM_PWM_PulseFinishedCallback>
#endif /* USE_HAL_TIM_REGISTER_CALLBACKS */
      }
      htim->Channel = HAL_TIM_ACTIVE_CHANNEL_CLEARED;
 8006102:	687b      	ldr	r3, [r7, #4]
 8006104:	2200      	movs	r2, #0
 8006106:	771a      	strb	r2, [r3, #28]
    }
  }
  /* Capture compare 4 event */
  if ((itflag & (TIM_FLAG_CC4)) == (TIM_FLAG_CC4))
 8006108:	68bb      	ldr	r3, [r7, #8]
 800610a:	f003 0310 	and.w	r3, r3, #16
 800610e:	2b00      	cmp	r3, #0
 8006110:	d020      	beq.n	8006154 <HAL_TIM_IRQHandler+0x148>
  {
    if ((itsource & (TIM_IT_CC4)) == (TIM_IT_CC4))
 8006112:	68fb      	ldr	r3, [r7, #12]
 8006114:	f003 0310 	and.w	r3, r3, #16
 8006118:	2b00      	cmp	r3, #0
 800611a:	d01b      	beq.n	8006154 <HAL_TIM_IRQHandler+0x148>
    {
      __HAL_TIM_CLEAR_FLAG(htim, TIM_FLAG_CC4);
 800611c:	687b      	ldr	r3, [r7, #4]
 800611e:	681b      	ldr	r3, [r3, #0]
 8006120:	f06f 0210 	mvn.w	r2, #16
 8006124:	611a      	str	r2, [r3, #16]
      htim->Channel = HAL_TIM_ACTIVE_CHANNEL_4;
 8006126:	687b      	ldr	r3, [r7, #4]
 8006128:	2208      	movs	r2, #8
 800612a:	771a      	strb	r2, [r3, #28]
      /* Input capture event */
      if ((htim->Instance->CCMR2 & TIM_CCMR2_CC4S) != 0x00U)
 800612c:	687b      	ldr	r3, [r7, #4]
 800612e:	681b      	ldr	r3, [r3, #0]
 8006130:	69db      	ldr	r3, [r3, #28]
 8006132:	f403 7340 	and.w	r3, r3, #768	; 0x300
 8006136:	2b00      	cmp	r3, #0
 8006138:	d003      	beq.n	8006142 <HAL_TIM_IRQHandler+0x136>
      {
#if (USE_HAL_TIM_REGISTER_CALLBACKS == 1)
        htim->IC_CaptureCallback(htim);
#else
        HAL_TIM_IC_CaptureCallback(htim);
 800613a:	6878      	ldr	r0, [r7, #4]
 800613c:	f000 f86a 	bl	8006214 <HAL_TIM_IC_CaptureCallback>
 8006140:	e005      	b.n	800614e <HAL_TIM_IRQHandler+0x142>
      {
#if (USE_HAL_TIM_REGISTER_CALLBACKS == 1)
        htim->OC_DelayElapsedCallback(htim);
        htim->PWM_PulseFinishedCallback(htim);
#else
        HAL_TIM_OC_DelayElapsedCallback(htim);
 8006142:	6878      	ldr	r0, [r7, #4]
 8006144:	f000 f85c 	bl	8006200 <HAL_TIM_OC_DelayElapsedCallback>
        HAL_TIM_PWM_PulseFinishedCallback(htim);
 8006148:	6878      	ldr	r0, [r7, #4]
 800614a:	f000 f86d 	bl	8006228 <HAL_TIM_PWM_PulseFinishedCallback>
#endif /* USE_HAL_TIM_REGISTER_CALLBACKS */
      }
      htim->Channel = HAL_TIM_ACTIVE_CHANNEL_CLEARED;
 800614e:	687b      	ldr	r3, [r7, #4]
 8006150:	2200      	movs	r2, #0
 8006152:	771a      	strb	r2, [r3, #28]
    }
  }
  /* TIM Update event */
  if ((itflag & (TIM_FLAG_UPDATE)) == (TIM_FLAG_UPDATE))
 8006154:	68bb      	ldr	r3, [r7, #8]
 8006156:	f003 0301 	and.w	r3, r3, #1
 800615a:	2b00      	cmp	r3, #0
 800615c:	d00c      	beq.n	8006178 <HAL_TIM_IRQHandler+0x16c>
  {
    if ((itsource & (TIM_IT_UPDATE)) == (TIM_IT_UPDATE))
 800615e:	68fb      	ldr	r3, [r7, #12]
 8006160:	f003 0301 	and.w	r3, r3, #1
 8006164:	2b00      	cmp	r3, #0
 8006166:	d007      	beq.n	8006178 <HAL_TIM_IRQHandler+0x16c>
    {
      __HAL_TIM_CLEAR_FLAG(htim, TIM_FLAG_UPDATE);
 8006168:	687b      	ldr	r3, [r7, #4]
 800616a:	681b      	ldr	r3, [r3, #0]
 800616c:	f06f 0201 	mvn.w	r2, #1
 8006170:	611a      	str	r2, [r3, #16]
#if (USE_HAL_TIM_REGISTER_CALLBACKS == 1)
      htim->PeriodElapsedCallback(htim);
#else
      HAL_TIM_PeriodElapsedCallback(htim);
 8006172:	6878      	ldr	r0, [r7, #4]
 8006174:	f000 f83a 	bl	80061ec <HAL_TIM_PeriodElapsedCallback>
#endif /* USE_HAL_TIM_REGISTER_CALLBACKS */
    }
  }
  /* TIM Break input event */
  if ((itflag & (TIM_FLAG_BREAK)) == (TIM_FLAG_BREAK))
 8006178:	68bb      	ldr	r3, [r7, #8]
 800617a:	f003 0380 	and.w	r3, r3, #128	; 0x80
 800617e:	2b00      	cmp	r3, #0
 8006180:	d00c      	beq.n	800619c <HAL_TIM_IRQHandler+0x190>
  {
    if ((itsource & (TIM_IT_BREAK)) == (TIM_IT_BREAK))
 8006182:	68fb      	ldr	r3, [r7, #12]
 8006184:	f003 0380 	and.w	r3, r3, #128	; 0x80
 8006188:	2b00      	cmp	r3, #0
 800618a:	d007      	beq.n	800619c <HAL_TIM_IRQHandler+0x190>
    {
      __HAL_TIM_CLEAR_FLAG(htim, TIM_FLAG_BREAK);
 800618c:	687b      	ldr	r3, [r7, #4]
 800618e:	681b      	ldr	r3, [r3, #0]
 8006190:	f06f 0280 	mvn.w	r2, #128	; 0x80
 8006194:	611a      	str	r2, [r3, #16]
#if (USE_HAL_TIM_REGISTER_CALLBACKS == 1)
      htim->BreakCallback(htim);
#else
      HAL_TIMEx_BreakCallback(htim);
 8006196:	6878      	ldr	r0, [r7, #4]
 8006198:	f000 f98c 	bl	80064b4 <HAL_TIMEx_BreakCallback>
#endif /* USE_HAL_TIM_REGISTER_CALLBACKS */
    }
  }
  /* TIM Trigger detection event */
  if ((itflag & (TIM_FLAG_TRIGGER)) == (TIM_FLAG_TRIGGER))
 800619c:	68bb      	ldr	r3, [r7, #8]
 800619e:	f003 0340 	and.w	r3, r3, #64	; 0x40
 80061a2:	2b00      	cmp	r3, #0
 80061a4:	d00c      	beq.n	80061c0 <HAL_TIM_IRQHandler+0x1b4>
  {
    if ((itsource & (TIM_IT_TRIGGER)) == (TIM_IT_TRIGGER))
 80061a6:	68fb      	ldr	r3, [r7, #12]
 80061a8:	f003 0340 	and.w	r3, r3, #64	; 0x40
 80061ac:	2b00      	cmp	r3, #0
 80061ae:	d007      	beq.n	80061c0 <HAL_TIM_IRQHandler+0x1b4>
    {
      __HAL_TIM_CLEAR_FLAG(htim, TIM_FLAG_TRIGGER);
 80061b0:	687b      	ldr	r3, [r7, #4]
 80061b2:	681b      	ldr	r3, [r3, #0]
 80061b4:	f06f 0240 	mvn.w	r2, #64	; 0x40
 80061b8:	611a      	str	r2, [r3, #16]
#if (USE_HAL_TIM_REGISTER_CALLBACKS == 1)
      htim->TriggerCallback(htim);
#else
      HAL_TIM_TriggerCallback(htim);
 80061ba:	6878      	ldr	r0, [r7, #4]
 80061bc:	f000 f83e 	bl	800623c <HAL_TIM_TriggerCallback>
#endif /* USE_HAL_TIM_REGISTER_CALLBACKS */
    }
  }
  /* TIM commutation event */
  if ((itflag & (TIM_FLAG_COM)) == (TIM_FLAG_COM))
 80061c0:	68bb      	ldr	r3, [r7, #8]
 80061c2:	f003 0320 	and.w	r3, r3, #32
 80061c6:	2b00      	cmp	r3, #0
 80061c8:	d00c      	beq.n	80061e4 <HAL_TIM_IRQHandler+0x1d8>
  {
    if ((itsource & (TIM_IT_COM)) == (TIM_IT_COM))
 80061ca:	68fb      	ldr	r3, [r7, #12]
 80061cc:	f003 0320 	and.w	r3, r3, #32
 80061d0:	2b00      	cmp	r3, #0
 80061d2:	d007      	beq.n	80061e4 <HAL_TIM_IRQHandler+0x1d8>
    {
      __HAL_TIM_CLEAR_FLAG(htim, TIM_FLAG_COM);
 80061d4:	687b      	ldr	r3, [r7, #4]
 80061d6:	681b      	ldr	r3, [r3, #0]
 80061d8:	f06f 0220 	mvn.w	r2, #32
 80061dc:	611a      	str	r2, [r3, #16]
#if (USE_HAL_TIM_REGISTER_CALLBACKS == 1)
      htim->CommutationCallback(htim);
#else
      HAL_TIMEx_CommutCallback(htim);
 80061de:	6878      	ldr	r0, [r7, #4]
 80061e0:	f000 f95e 	bl	80064a0 <HAL_TIMEx_CommutCallback>
#endif /* USE_HAL_TIM_REGISTER_CALLBACKS */
    }
  }
}
 80061e4:	bf00      	nop
 80061e6:	3710      	adds	r7, #16
 80061e8:	46bd      	mov	sp, r7
 80061ea:	bd80      	pop	{r7, pc}

080061ec <HAL_TIM_PeriodElapsedCallback>:
  * @brief  Period elapsed callback in non-blocking mode
  * @param  htim TIM handle
  * @retval None
  */
__weak void HAL_TIM_PeriodElapsedCallback(TIM_HandleTypeDef *htim)
{
 80061ec:	b480      	push	{r7}
 80061ee:	b083      	sub	sp, #12
 80061f0:	af00      	add	r7, sp, #0
 80061f2:	6078      	str	r0, [r7, #4]
  UNUSED(htim);

  /* NOTE : This function should not be modified, when the callback is needed,
            the HAL_TIM_PeriodElapsedCallback could be implemented in the user file
   */
}
 80061f4:	bf00      	nop
 80061f6:	370c      	adds	r7, #12
 80061f8:	46bd      	mov	sp, r7
 80061fa:	f85d 7b04 	ldr.w	r7, [sp], #4
 80061fe:	4770      	bx	lr

08006200 <HAL_TIM_OC_DelayElapsedCallback>:
  * @brief  Output Compare callback in non-blocking mode
  * @param  htim TIM OC handle
  * @retval None
  */
__weak void HAL_TIM_OC_DelayElapsedCallback(TIM_HandleTypeDef *htim)
{
 8006200:	b480      	push	{r7}
 8006202:	b083      	sub	sp, #12
 8006204:	af00      	add	r7, sp, #0
 8006206:	6078      	str	r0, [r7, #4]
  UNUSED(htim);

  /* NOTE : This function should not be modified, when the callback is needed,
            the HAL_TIM_OC_DelayElapsedCallback could be implemented in the user file
   */
}
 8006208:	bf00      	nop
 800620a:	370c      	adds	r7, #12
 800620c:	46bd      	mov	sp, r7
 800620e:	f85d 7b04 	ldr.w	r7, [sp], #4
 8006212:	4770      	bx	lr

08006214 <HAL_TIM_IC_CaptureCallback>:
  * @brief  Input Capture callback in non-blocking mode
  * @param  htim TIM IC handle
  * @retval None
  */
__weak void HAL_TIM_IC_CaptureCallback(TIM_HandleTypeDef *htim)
{
 8006214:	b480      	push	{r7}
 8006216:	b083      	sub	sp, #12
 8006218:	af00      	add	r7, sp, #0
 800621a:	6078      	str	r0, [r7, #4]
  UNUSED(htim);

  /* NOTE : This function should not be modified, when the callback is needed,
            the HAL_TIM_IC_CaptureCallback could be implemented in the user file
   */
}
 800621c:	bf00      	nop
 800621e:	370c      	adds	r7, #12
 8006220:	46bd      	mov	sp, r7
 8006222:	f85d 7b04 	ldr.w	r7, [sp], #4
 8006226:	4770      	bx	lr

08006228 <HAL_TIM_PWM_PulseFinishedCallback>:
  * @brief  PWM Pulse finished callback in non-blocking mode
  * @param  htim TIM handle
  * @retval None
  */
__weak void HAL_TIM_PWM_PulseFinishedCallback(TIM_HandleTypeDef *htim)
{
 8006228:	b480      	push	{r7}
 800622a:	b083      	sub	sp, #12
 800622c:	af00      	add	r7, sp, #0
 800622e:	6078      	str	r0, [r7, #4]
  UNUSED(htim);

  /* NOTE : This function should not be modified, when the callback is needed,
            the HAL_TIM_PWM_PulseFinishedCallback could be implemented in the user file
   */
}
 8006230:	bf00      	nop
 8006232:	370c      	adds	r7, #12
 8006234:	46bd      	mov	sp, r7
 8006236:	f85d 7b04 	ldr.w	r7, [sp], #4
 800623a:	4770      	bx	lr

0800623c <HAL_TIM_TriggerCallback>:
  * @brief  Hall Trigger detection callback in non-blocking mode
  * @param  htim TIM handle
  * @retval None
  */
__weak void HAL_TIM_TriggerCallback(TIM_HandleTypeDef *htim)
{
 800623c:	b480      	push	{r7}
 800623e:	b083      	sub	sp, #12
 8006240:	af00      	add	r7, sp, #0
 8006242:	6078      	str	r0, [r7, #4]
  UNUSED(htim);

  /* NOTE : This function should not be modified, when the callback is needed,
            the HAL_TIM_TriggerCallback could be implemented in the user file
   */
}
 8006244:	bf00      	nop
 8006246:	370c      	adds	r7, #12
 8006248:	46bd      	mov	sp, r7
 800624a:	f85d 7b04 	ldr.w	r7, [sp], #4
 800624e:	4770      	bx	lr

08006250 <TIM_Base_SetConfig>:
  * @param  TIMx TIM peripheral
  * @param  Structure TIM Base configuration structure
  * @retval None
  */
void TIM_Base_SetConfig(TIM_TypeDef *TIMx, const TIM_Base_InitTypeDef *Structure)
{
 8006250:	b480      	push	{r7}
 8006252:	b085      	sub	sp, #20
 8006254:	af00      	add	r7, sp, #0
 8006256:	6078      	str	r0, [r7, #4]
 8006258:	6039      	str	r1, [r7, #0]
  uint32_t tmpcr1;
  tmpcr1 = TIMx->CR1;
 800625a:	687b      	ldr	r3, [r7, #4]
 800625c:	681b      	ldr	r3, [r3, #0]
 800625e:	60fb      	str	r3, [r7, #12]

  /* Set TIM Time Base Unit parameters ---------------------------------------*/
  if (IS_TIM_COUNTER_MODE_SELECT_INSTANCE(TIMx))
 8006260:	687b      	ldr	r3, [r7, #4]
 8006262:	4a46      	ldr	r2, [pc, #280]	; (800637c <TIM_Base_SetConfig+0x12c>)
 8006264:	4293      	cmp	r3, r2
 8006266:	d013      	beq.n	8006290 <TIM_Base_SetConfig+0x40>
 8006268:	687b      	ldr	r3, [r7, #4]
 800626a:	f1b3 4f80 	cmp.w	r3, #1073741824	; 0x40000000
 800626e:	d00f      	beq.n	8006290 <TIM_Base_SetConfig+0x40>
 8006270:	687b      	ldr	r3, [r7, #4]
 8006272:	4a43      	ldr	r2, [pc, #268]	; (8006380 <TIM_Base_SetConfig+0x130>)
 8006274:	4293      	cmp	r3, r2
 8006276:	d00b      	beq.n	8006290 <TIM_Base_SetConfig+0x40>
 8006278:	687b      	ldr	r3, [r7, #4]
 800627a:	4a42      	ldr	r2, [pc, #264]	; (8006384 <TIM_Base_SetConfig+0x134>)
 800627c:	4293      	cmp	r3, r2
 800627e:	d007      	beq.n	8006290 <TIM_Base_SetConfig+0x40>
 8006280:	687b      	ldr	r3, [r7, #4]
 8006282:	4a41      	ldr	r2, [pc, #260]	; (8006388 <TIM_Base_SetConfig+0x138>)
 8006284:	4293      	cmp	r3, r2
 8006286:	d003      	beq.n	8006290 <TIM_Base_SetConfig+0x40>
 8006288:	687b      	ldr	r3, [r7, #4]
 800628a:	4a40      	ldr	r2, [pc, #256]	; (800638c <TIM_Base_SetConfig+0x13c>)
 800628c:	4293      	cmp	r3, r2
 800628e:	d108      	bne.n	80062a2 <TIM_Base_SetConfig+0x52>
  {
    /* Select the Counter Mode */
    tmpcr1 &= ~(TIM_CR1_DIR | TIM_CR1_CMS);
 8006290:	68fb      	ldr	r3, [r7, #12]
 8006292:	f023 0370 	bic.w	r3, r3, #112	; 0x70
 8006296:	60fb      	str	r3, [r7, #12]
    tmpcr1 |= Structure->CounterMode;
 8006298:	683b      	ldr	r3, [r7, #0]
 800629a:	685b      	ldr	r3, [r3, #4]
 800629c:	68fa      	ldr	r2, [r7, #12]
 800629e:	4313      	orrs	r3, r2
 80062a0:	60fb      	str	r3, [r7, #12]
  }

  if (IS_TIM_CLOCK_DIVISION_INSTANCE(TIMx))
 80062a2:	687b      	ldr	r3, [r7, #4]
 80062a4:	4a35      	ldr	r2, [pc, #212]	; (800637c <TIM_Base_SetConfig+0x12c>)
 80062a6:	4293      	cmp	r3, r2
 80062a8:	d02b      	beq.n	8006302 <TIM_Base_SetConfig+0xb2>
 80062aa:	687b      	ldr	r3, [r7, #4]
 80062ac:	f1b3 4f80 	cmp.w	r3, #1073741824	; 0x40000000
 80062b0:	d027      	beq.n	8006302 <TIM_Base_SetConfig+0xb2>
 80062b2:	687b      	ldr	r3, [r7, #4]
 80062b4:	4a32      	ldr	r2, [pc, #200]	; (8006380 <TIM_Base_SetConfig+0x130>)
 80062b6:	4293      	cmp	r3, r2
 80062b8:	d023      	beq.n	8006302 <TIM_Base_SetConfig+0xb2>
 80062ba:	687b      	ldr	r3, [r7, #4]
 80062bc:	4a31      	ldr	r2, [pc, #196]	; (8006384 <TIM_Base_SetConfig+0x134>)
 80062be:	4293      	cmp	r3, r2
 80062c0:	d01f      	beq.n	8006302 <TIM_Base_SetConfig+0xb2>
 80062c2:	687b      	ldr	r3, [r7, #4]
 80062c4:	4a30      	ldr	r2, [pc, #192]	; (8006388 <TIM_Base_SetConfig+0x138>)
 80062c6:	4293      	cmp	r3, r2
 80062c8:	d01b      	beq.n	8006302 <TIM_Base_SetConfig+0xb2>
 80062ca:	687b      	ldr	r3, [r7, #4]
 80062cc:	4a2f      	ldr	r2, [pc, #188]	; (800638c <TIM_Base_SetConfig+0x13c>)
 80062ce:	4293      	cmp	r3, r2
 80062d0:	d017      	beq.n	8006302 <TIM_Base_SetConfig+0xb2>
 80062d2:	687b      	ldr	r3, [r7, #4]
 80062d4:	4a2e      	ldr	r2, [pc, #184]	; (8006390 <TIM_Base_SetConfig+0x140>)
 80062d6:	4293      	cmp	r3, r2
 80062d8:	d013      	beq.n	8006302 <TIM_Base_SetConfig+0xb2>
 80062da:	687b      	ldr	r3, [r7, #4]
 80062dc:	4a2d      	ldr	r2, [pc, #180]	; (8006394 <TIM_Base_SetConfig+0x144>)
 80062de:	4293      	cmp	r3, r2
 80062e0:	d00f      	beq.n	8006302 <TIM_Base_SetConfig+0xb2>
 80062e2:	687b      	ldr	r3, [r7, #4]
 80062e4:	4a2c      	ldr	r2, [pc, #176]	; (8006398 <TIM_Base_SetConfig+0x148>)
 80062e6:	4293      	cmp	r3, r2
 80062e8:	d00b      	beq.n	8006302 <TIM_Base_SetConfig+0xb2>
 80062ea:	687b      	ldr	r3, [r7, #4]
 80062ec:	4a2b      	ldr	r2, [pc, #172]	; (800639c <TIM_Base_SetConfig+0x14c>)
 80062ee:	4293      	cmp	r3, r2
 80062f0:	d007      	beq.n	8006302 <TIM_Base_SetConfig+0xb2>
 80062f2:	687b      	ldr	r3, [r7, #4]
 80062f4:	4a2a      	ldr	r2, [pc, #168]	; (80063a0 <TIM_Base_SetConfig+0x150>)
 80062f6:	4293      	cmp	r3, r2
 80062f8:	d003      	beq.n	8006302 <TIM_Base_SetConfig+0xb2>
 80062fa:	687b      	ldr	r3, [r7, #4]
 80062fc:	4a29      	ldr	r2, [pc, #164]	; (80063a4 <TIM_Base_SetConfig+0x154>)
 80062fe:	4293      	cmp	r3, r2
 8006300:	d108      	bne.n	8006314 <TIM_Base_SetConfig+0xc4>
  {
    /* Set the clock division */
    tmpcr1 &= ~TIM_CR1_CKD;
 8006302:	68fb      	ldr	r3, [r7, #12]
 8006304:	f423 7340 	bic.w	r3, r3, #768	; 0x300
 8006308:	60fb      	str	r3, [r7, #12]
    tmpcr1 |= (uint32_t)Structure->ClockDivision;
 800630a:	683b      	ldr	r3, [r7, #0]
 800630c:	68db      	ldr	r3, [r3, #12]
 800630e:	68fa      	ldr	r2, [r7, #12]
 8006310:	4313      	orrs	r3, r2
 8006312:	60fb      	str	r3, [r7, #12]
  }

  /* Set the auto-reload preload */
  MODIFY_REG(tmpcr1, TIM_CR1_ARPE, Structure->AutoReloadPreload);
 8006314:	68fb      	ldr	r3, [r7, #12]
 8006316:	f023 0280 	bic.w	r2, r3, #128	; 0x80
 800631a:	683b      	ldr	r3, [r7, #0]
 800631c:	695b      	ldr	r3, [r3, #20]
 800631e:	4313      	orrs	r3, r2
 8006320:	60fb      	str	r3, [r7, #12]

  TIMx->CR1 = tmpcr1;
 8006322:	687b      	ldr	r3, [r7, #4]
 8006324:	68fa      	ldr	r2, [r7, #12]
 8006326:	601a      	str	r2, [r3, #0]

  /* Set the Autoreload value */
  TIMx->ARR = (uint32_t)Structure->Period ;
 8006328:	683b      	ldr	r3, [r7, #0]
 800632a:	689a      	ldr	r2, [r3, #8]
 800632c:	687b      	ldr	r3, [r7, #4]
 800632e:	62da      	str	r2, [r3, #44]	; 0x2c

  /* Set the Prescaler value */
  TIMx->PSC = Structure->Prescaler;
 8006330:	683b      	ldr	r3, [r7, #0]
 8006332:	681a      	ldr	r2, [r3, #0]
 8006334:	687b      	ldr	r3, [r7, #4]
 8006336:	629a      	str	r2, [r3, #40]	; 0x28

  if (IS_TIM_REPETITION_COUNTER_INSTANCE(TIMx))
 8006338:	687b      	ldr	r3, [r7, #4]
 800633a:	4a10      	ldr	r2, [pc, #64]	; (800637c <TIM_Base_SetConfig+0x12c>)
 800633c:	4293      	cmp	r3, r2
 800633e:	d003      	beq.n	8006348 <TIM_Base_SetConfig+0xf8>
 8006340:	687b      	ldr	r3, [r7, #4]
 8006342:	4a12      	ldr	r2, [pc, #72]	; (800638c <TIM_Base_SetConfig+0x13c>)
 8006344:	4293      	cmp	r3, r2
 8006346:	d103      	bne.n	8006350 <TIM_Base_SetConfig+0x100>
  {
    /* Set the Repetition Counter value */
    TIMx->RCR = Structure->RepetitionCounter;
 8006348:	683b      	ldr	r3, [r7, #0]
 800634a:	691a      	ldr	r2, [r3, #16]
 800634c:	687b      	ldr	r3, [r7, #4]
 800634e:	631a      	str	r2, [r3, #48]	; 0x30
  }

  /* Generate an update event to reload the Prescaler
     and the repetition counter (only for advanced timer) value immediately */
  TIMx->EGR = TIM_EGR_UG;
 8006350:	687b      	ldr	r3, [r7, #4]
 8006352:	2201      	movs	r2, #1
 8006354:	615a      	str	r2, [r3, #20]

  /* Check if the update flag is set after the Update Generation, if so clear the UIF flag */
  if (HAL_IS_BIT_SET(TIMx->SR, TIM_FLAG_UPDATE))
 8006356:	687b      	ldr	r3, [r7, #4]
 8006358:	691b      	ldr	r3, [r3, #16]
 800635a:	f003 0301 	and.w	r3, r3, #1
 800635e:	2b01      	cmp	r3, #1
 8006360:	d105      	bne.n	800636e <TIM_Base_SetConfig+0x11e>
  {
    /* Clear the update flag */
    CLEAR_BIT(TIMx->SR, TIM_FLAG_UPDATE);
 8006362:	687b      	ldr	r3, [r7, #4]
 8006364:	691b      	ldr	r3, [r3, #16]
 8006366:	f023 0201 	bic.w	r2, r3, #1
 800636a:	687b      	ldr	r3, [r7, #4]
 800636c:	611a      	str	r2, [r3, #16]
  }
}
 800636e:	bf00      	nop
 8006370:	3714      	adds	r7, #20
 8006372:	46bd      	mov	sp, r7
 8006374:	f85d 7b04 	ldr.w	r7, [sp], #4
 8006378:	4770      	bx	lr
 800637a:	bf00      	nop
 800637c:	40010000 	.word	0x40010000
 8006380:	40000400 	.word	0x40000400
 8006384:	40000800 	.word	0x40000800
 8006388:	40000c00 	.word	0x40000c00
 800638c:	40010400 	.word	0x40010400
 8006390:	40014000 	.word	0x40014000
 8006394:	40014400 	.word	0x40014400
 8006398:	40014800 	.word	0x40014800
 800639c:	40001800 	.word	0x40001800
 80063a0:	40001c00 	.word	0x40001c00
 80063a4:	40002000 	.word	0x40002000

080063a8 <HAL_TIMEx_MasterConfigSynchronization>:
  *         mode.
  * @retval HAL status
  */
HAL_StatusTypeDef HAL_TIMEx_MasterConfigSynchronization(TIM_HandleTypeDef *htim,
                                                        const TIM_MasterConfigTypeDef *sMasterConfig)
{
 80063a8:	b480      	push	{r7}
 80063aa:	b085      	sub	sp, #20
 80063ac:	af00      	add	r7, sp, #0
 80063ae:	6078      	str	r0, [r7, #4]
 80063b0:	6039      	str	r1, [r7, #0]
  assert_param(IS_TIM_MASTER_INSTANCE(htim->Instance));
  assert_param(IS_TIM_TRGO_SOURCE(sMasterConfig->MasterOutputTrigger));
  assert_param(IS_TIM_MSM_STATE(sMasterConfig->MasterSlaveMode));

  /* Check input state */
  __HAL_LOCK(htim);
 80063b2:	687b      	ldr	r3, [r7, #4]
 80063b4:	f893 303c 	ldrb.w	r3, [r3, #60]	; 0x3c
 80063b8:	2b01      	cmp	r3, #1
 80063ba:	d101      	bne.n	80063c0 <HAL_TIMEx_MasterConfigSynchronization+0x18>
 80063bc:	2302      	movs	r3, #2
 80063be:	e05a      	b.n	8006476 <HAL_TIMEx_MasterConfigSynchronization+0xce>
 80063c0:	687b      	ldr	r3, [r7, #4]
 80063c2:	2201      	movs	r2, #1
 80063c4:	f883 203c 	strb.w	r2, [r3, #60]	; 0x3c

  /* Change the handler state */
  htim->State = HAL_TIM_STATE_BUSY;
 80063c8:	687b      	ldr	r3, [r7, #4]
 80063ca:	2202      	movs	r2, #2
 80063cc:	f883 203d 	strb.w	r2, [r3, #61]	; 0x3d

  /* Get the TIMx CR2 register value */
  tmpcr2 = htim->Instance->CR2;
 80063d0:	687b      	ldr	r3, [r7, #4]
 80063d2:	681b      	ldr	r3, [r3, #0]
 80063d4:	685b      	ldr	r3, [r3, #4]
 80063d6:	60fb      	str	r3, [r7, #12]

  /* Get the TIMx SMCR register value */
  tmpsmcr = htim->Instance->SMCR;
 80063d8:	687b      	ldr	r3, [r7, #4]
 80063da:	681b      	ldr	r3, [r3, #0]
 80063dc:	689b      	ldr	r3, [r3, #8]
 80063de:	60bb      	str	r3, [r7, #8]

  /* Reset the MMS Bits */
  tmpcr2 &= ~TIM_CR2_MMS;
 80063e0:	68fb      	ldr	r3, [r7, #12]
 80063e2:	f023 0370 	bic.w	r3, r3, #112	; 0x70
 80063e6:	60fb      	str	r3, [r7, #12]
  /* Select the TRGO source */
  tmpcr2 |=  sMasterConfig->MasterOutputTrigger;
 80063e8:	683b      	ldr	r3, [r7, #0]
 80063ea:	681b      	ldr	r3, [r3, #0]
 80063ec:	68fa      	ldr	r2, [r7, #12]
 80063ee:	4313      	orrs	r3, r2
 80063f0:	60fb      	str	r3, [r7, #12]

  /* Update TIMx CR2 */
  htim->Instance->CR2 = tmpcr2;
 80063f2:	687b      	ldr	r3, [r7, #4]
 80063f4:	681b      	ldr	r3, [r3, #0]
 80063f6:	68fa      	ldr	r2, [r7, #12]
 80063f8:	605a      	str	r2, [r3, #4]

  if (IS_TIM_SLAVE_INSTANCE(htim->Instance))
 80063fa:	687b      	ldr	r3, [r7, #4]
 80063fc:	681b      	ldr	r3, [r3, #0]
 80063fe:	4a21      	ldr	r2, [pc, #132]	; (8006484 <HAL_TIMEx_MasterConfigSynchronization+0xdc>)
 8006400:	4293      	cmp	r3, r2
 8006402:	d022      	beq.n	800644a <HAL_TIMEx_MasterConfigSynchronization+0xa2>
 8006404:	687b      	ldr	r3, [r7, #4]
 8006406:	681b      	ldr	r3, [r3, #0]
 8006408:	f1b3 4f80 	cmp.w	r3, #1073741824	; 0x40000000
 800640c:	d01d      	beq.n	800644a <HAL_TIMEx_MasterConfigSynchronization+0xa2>
 800640e:	687b      	ldr	r3, [r7, #4]
 8006410:	681b      	ldr	r3, [r3, #0]
 8006412:	4a1d      	ldr	r2, [pc, #116]	; (8006488 <HAL_TIMEx_MasterConfigSynchronization+0xe0>)
 8006414:	4293      	cmp	r3, r2
 8006416:	d018      	beq.n	800644a <HAL_TIMEx_MasterConfigSynchronization+0xa2>
 8006418:	687b      	ldr	r3, [r7, #4]
 800641a:	681b      	ldr	r3, [r3, #0]
 800641c:	4a1b      	ldr	r2, [pc, #108]	; (800648c <HAL_TIMEx_MasterConfigSynchronization+0xe4>)
 800641e:	4293      	cmp	r3, r2
 8006420:	d013      	beq.n	800644a <HAL_TIMEx_MasterConfigSynchronization+0xa2>
 8006422:	687b      	ldr	r3, [r7, #4]
 8006424:	681b      	ldr	r3, [r3, #0]
 8006426:	4a1a      	ldr	r2, [pc, #104]	; (8006490 <HAL_TIMEx_MasterConfigSynchronization+0xe8>)
 8006428:	4293      	cmp	r3, r2
 800642a:	d00e      	beq.n	800644a <HAL_TIMEx_MasterConfigSynchronization+0xa2>
 800642c:	687b      	ldr	r3, [r7, #4]
 800642e:	681b      	ldr	r3, [r3, #0]
 8006430:	4a18      	ldr	r2, [pc, #96]	; (8006494 <HAL_TIMEx_MasterConfigSynchronization+0xec>)
 8006432:	4293      	cmp	r3, r2
 8006434:	d009      	beq.n	800644a <HAL_TIMEx_MasterConfigSynchronization+0xa2>
 8006436:	687b      	ldr	r3, [r7, #4]
 8006438:	681b      	ldr	r3, [r3, #0]
 800643a:	4a17      	ldr	r2, [pc, #92]	; (8006498 <HAL_TIMEx_MasterConfigSynchronization+0xf0>)
 800643c:	4293      	cmp	r3, r2
 800643e:	d004      	beq.n	800644a <HAL_TIMEx_MasterConfigSynchronization+0xa2>
 8006440:	687b      	ldr	r3, [r7, #4]
 8006442:	681b      	ldr	r3, [r3, #0]
 8006444:	4a15      	ldr	r2, [pc, #84]	; (800649c <HAL_TIMEx_MasterConfigSynchronization+0xf4>)
 8006446:	4293      	cmp	r3, r2
 8006448:	d10c      	bne.n	8006464 <HAL_TIMEx_MasterConfigSynchronization+0xbc>
  {
    /* Reset the MSM Bit */
    tmpsmcr &= ~TIM_SMCR_MSM;
 800644a:	68bb      	ldr	r3, [r7, #8]
 800644c:	f023 0380 	bic.w	r3, r3, #128	; 0x80
 8006450:	60bb      	str	r3, [r7, #8]
    /* Set master mode */
    tmpsmcr |= sMasterConfig->MasterSlaveMode;
 8006452:	683b      	ldr	r3, [r7, #0]
 8006454:	685b      	ldr	r3, [r3, #4]
 8006456:	68ba      	ldr	r2, [r7, #8]
 8006458:	4313      	orrs	r3, r2
 800645a:	60bb      	str	r3, [r7, #8]

    /* Update TIMx SMCR */
    htim->Instance->SMCR = tmpsmcr;
 800645c:	687b      	ldr	r3, [r7, #4]
 800645e:	681b      	ldr	r3, [r3, #0]
 8006460:	68ba      	ldr	r2, [r7, #8]
 8006462:	609a      	str	r2, [r3, #8]
  }

  /* Change the htim state */
  htim->State = HAL_TIM_STATE_READY;
 8006464:	687b      	ldr	r3, [r7, #4]
 8006466:	2201      	movs	r2, #1
 8006468:	f883 203d 	strb.w	r2, [r3, #61]	; 0x3d

  __HAL_UNLOCK(htim);
 800646c:	687b      	ldr	r3, [r7, #4]
 800646e:	2200      	movs	r2, #0
 8006470:	f883 203c 	strb.w	r2, [r3, #60]	; 0x3c

  return HAL_OK;
 8006474:	2300      	movs	r3, #0
}
 8006476:	4618      	mov	r0, r3
 8006478:	3714      	adds	r7, #20
 800647a:	46bd      	mov	sp, r7
 800647c:	f85d 7b04 	ldr.w	r7, [sp], #4
 8006480:	4770      	bx	lr
 8006482:	bf00      	nop
 8006484:	40010000 	.word	0x40010000
 8006488:	40000400 	.word	0x40000400
 800648c:	40000800 	.word	0x40000800
 8006490:	40000c00 	.word	0x40000c00
 8006494:	40010400 	.word	0x40010400
 8006498:	40014000 	.word	0x40014000
 800649c:	40001800 	.word	0x40001800

080064a0 <HAL_TIMEx_CommutCallback>:
  * @brief  Commutation callback in non-blocking mode
  * @param  htim TIM handle
  * @retval None
  */
__weak void HAL_TIMEx_CommutCallback(TIM_HandleTypeDef *htim)
{
 80064a0:	b480      	push	{r7}
 80064a2:	b083      	sub	sp, #12
 80064a4:	af00      	add	r7, sp, #0
 80064a6:	6078      	str	r0, [r7, #4]
  UNUSED(htim);

  /* NOTE : This function should not be modified, when the callback is needed,
            the HAL_TIMEx_CommutCallback could be implemented in the user file
   */
}
 80064a8:	bf00      	nop
 80064aa:	370c      	adds	r7, #12
 80064ac:	46bd      	mov	sp, r7
 80064ae:	f85d 7b04 	ldr.w	r7, [sp], #4
 80064b2:	4770      	bx	lr

080064b4 <HAL_TIMEx_BreakCallback>:
  * @brief  Break detection callback in non-blocking mode
  * @param  htim TIM handle
  * @retval None
  */
__weak void HAL_TIMEx_BreakCallback(TIM_HandleTypeDef *htim)
{
 80064b4:	b480      	push	{r7}
 80064b6:	b083      	sub	sp, #12
 80064b8:	af00      	add	r7, sp, #0
 80064ba:	6078      	str	r0, [r7, #4]
  UNUSED(htim);

  /* NOTE : This function should not be modified, when the callback is needed,
            the HAL_TIMEx_BreakCallback could be implemented in the user file
   */
}
 80064bc:	bf00      	nop
 80064be:	370c      	adds	r7, #12
 80064c0:	46bd      	mov	sp, r7
 80064c2:	f85d 7b04 	ldr.w	r7, [sp], #4
 80064c6:	4770      	bx	lr

080064c8 <HAL_UART_Init>:
  * @param  huart  Pointer to a UART_HandleTypeDef structure that contains
  *                the configuration information for the specified UART module.
  * @retval HAL status
  */
HAL_StatusTypeDef HAL_UART_Init(UART_HandleTypeDef *huart)
{
 80064c8:	b580      	push	{r7, lr}
 80064ca:	b082      	sub	sp, #8
 80064cc:	af00      	add	r7, sp, #0
 80064ce:	6078      	str	r0, [r7, #4]
  /* Check the UART handle allocation */
  if (huart == NULL)
 80064d0:	687b      	ldr	r3, [r7, #4]
 80064d2:	2b00      	cmp	r3, #0
 80064d4:	d101      	bne.n	80064da <HAL_UART_Init+0x12>
  {
    return HAL_ERROR;
 80064d6:	2301      	movs	r3, #1
 80064d8:	e042      	b.n	8006560 <HAL_UART_Init+0x98>
    assert_param(IS_UART_INSTANCE(huart->Instance));
  }
  assert_param(IS_UART_WORD_LENGTH(huart->Init.WordLength));
  assert_param(IS_UART_OVERSAMPLING(huart->Init.OverSampling));

  if (huart->gState == HAL_UART_STATE_RESET)
 80064da:	687b      	ldr	r3, [r7, #4]
 80064dc:	f893 3041 	ldrb.w	r3, [r3, #65]	; 0x41
 80064e0:	b2db      	uxtb	r3, r3
 80064e2:	2b00      	cmp	r3, #0
 80064e4:	d106      	bne.n	80064f4 <HAL_UART_Init+0x2c>
  {
    /* Allocate lock resource and initialize it */
    huart->Lock = HAL_UNLOCKED;
 80064e6:	687b      	ldr	r3, [r7, #4]
 80064e8:	2200      	movs	r2, #0
 80064ea:	f883 2040 	strb.w	r2, [r3, #64]	; 0x40

    /* Init the low level hardware */
    huart->MspInitCallback(huart);
#else
    /* Init the low level hardware : GPIO, CLOCK */
    HAL_UART_MspInit(huart);
 80064ee:	6878      	ldr	r0, [r7, #4]
 80064f0:	f7fb fef0 	bl	80022d4 <HAL_UART_MspInit>
#endif /* (USE_HAL_UART_REGISTER_CALLBACKS) */
  }

  huart->gState = HAL_UART_STATE_BUSY;
 80064f4:	687b      	ldr	r3, [r7, #4]
 80064f6:	2224      	movs	r2, #36	; 0x24
 80064f8:	f883 2041 	strb.w	r2, [r3, #65]	; 0x41

  /* Disable the peripheral */
  __HAL_UART_DISABLE(huart);
 80064fc:	687b      	ldr	r3, [r7, #4]
 80064fe:	681b      	ldr	r3, [r3, #0]
 8006500:	68da      	ldr	r2, [r3, #12]
 8006502:	687b      	ldr	r3, [r7, #4]
 8006504:	681b      	ldr	r3, [r3, #0]
 8006506:	f422 5200 	bic.w	r2, r2, #8192	; 0x2000
 800650a:	60da      	str	r2, [r3, #12]

  /* Set the UART Communication parameters */
  UART_SetConfig(huart);
 800650c:	6878      	ldr	r0, [r7, #4]
 800650e:	f000 fdbd 	bl	800708c <UART_SetConfig>

  /* In asynchronous mode, the following bits must be kept cleared:
     - LINEN and CLKEN bits in the USART_CR2 register,
     - SCEN, HDSEL and IREN  bits in the USART_CR3 register.*/
  CLEAR_BIT(huart->Instance->CR2, (USART_CR2_LINEN | USART_CR2_CLKEN));
 8006512:	687b      	ldr	r3, [r7, #4]
 8006514:	681b      	ldr	r3, [r3, #0]
 8006516:	691a      	ldr	r2, [r3, #16]
 8006518:	687b      	ldr	r3, [r7, #4]
 800651a:	681b      	ldr	r3, [r3, #0]
 800651c:	f422 4290 	bic.w	r2, r2, #18432	; 0x4800
 8006520:	611a      	str	r2, [r3, #16]
  CLEAR_BIT(huart->Instance->CR3, (USART_CR3_SCEN | USART_CR3_HDSEL | USART_CR3_IREN));
 8006522:	687b      	ldr	r3, [r7, #4]
 8006524:	681b      	ldr	r3, [r3, #0]
 8006526:	695a      	ldr	r2, [r3, #20]
 8006528:	687b      	ldr	r3, [r7, #4]
 800652a:	681b      	ldr	r3, [r3, #0]
 800652c:	f022 022a 	bic.w	r2, r2, #42	; 0x2a
 8006530:	615a      	str	r2, [r3, #20]

  /* Enable the peripheral */
  __HAL_UART_ENABLE(huart);
 8006532:	687b      	ldr	r3, [r7, #4]
 8006534:	681b      	ldr	r3, [r3, #0]
 8006536:	68da      	ldr	r2, [r3, #12]
 8006538:	687b      	ldr	r3, [r7, #4]
 800653a:	681b      	ldr	r3, [r3, #0]
 800653c:	f442 5200 	orr.w	r2, r2, #8192	; 0x2000
 8006540:	60da      	str	r2, [r3, #12]

  /* Initialize the UART state */
  huart->ErrorCode = HAL_UART_ERROR_NONE;
 8006542:	687b      	ldr	r3, [r7, #4]
 8006544:	2200      	movs	r2, #0
 8006546:	645a      	str	r2, [r3, #68]	; 0x44
  huart->gState = HAL_UART_STATE_READY;
 8006548:	687b      	ldr	r3, [r7, #4]
 800654a:	2220      	movs	r2, #32
 800654c:	f883 2041 	strb.w	r2, [r3, #65]	; 0x41
  huart->RxState = HAL_UART_STATE_READY;
 8006550:	687b      	ldr	r3, [r7, #4]
 8006552:	2220      	movs	r2, #32
 8006554:	f883 2042 	strb.w	r2, [r3, #66]	; 0x42
  huart->RxEventType = HAL_UART_RXEVENT_TC;
 8006558:	687b      	ldr	r3, [r7, #4]
 800655a:	2200      	movs	r2, #0
 800655c:	635a      	str	r2, [r3, #52]	; 0x34

  return HAL_OK;
 800655e:	2300      	movs	r3, #0
}
 8006560:	4618      	mov	r0, r3
 8006562:	3708      	adds	r7, #8
 8006564:	46bd      	mov	sp, r7
 8006566:	bd80      	pop	{r7, pc}

08006568 <HAL_UART_Transmit>:
  * @param  Size  Amount of data elements (u8 or u16) to be sent
  * @param  Timeout Timeout duration
  * @retval HAL status
  */
HAL_StatusTypeDef HAL_UART_Transmit(UART_HandleTypeDef *huart, const uint8_t *pData, uint16_t Size, uint32_t Timeout)
{
 8006568:	b580      	push	{r7, lr}
 800656a:	b08a      	sub	sp, #40	; 0x28
 800656c:	af02      	add	r7, sp, #8
 800656e:	60f8      	str	r0, [r7, #12]
 8006570:	60b9      	str	r1, [r7, #8]
 8006572:	603b      	str	r3, [r7, #0]
 8006574:	4613      	mov	r3, r2
 8006576:	80fb      	strh	r3, [r7, #6]
  const uint8_t  *pdata8bits;
  const uint16_t *pdata16bits;
  uint32_t tickstart = 0U;
 8006578:	2300      	movs	r3, #0
 800657a:	617b      	str	r3, [r7, #20]

  /* Check that a Tx process is not already ongoing */
  if (huart->gState == HAL_UART_STATE_READY)
 800657c:	68fb      	ldr	r3, [r7, #12]
 800657e:	f893 3041 	ldrb.w	r3, [r3, #65]	; 0x41
 8006582:	b2db      	uxtb	r3, r3
 8006584:	2b20      	cmp	r3, #32
 8006586:	d175      	bne.n	8006674 <HAL_UART_Transmit+0x10c>
  {
    if ((pData == NULL) || (Size == 0U))
 8006588:	68bb      	ldr	r3, [r7, #8]
 800658a:	2b00      	cmp	r3, #0
 800658c:	d002      	beq.n	8006594 <HAL_UART_Transmit+0x2c>
 800658e:	88fb      	ldrh	r3, [r7, #6]
 8006590:	2b00      	cmp	r3, #0
 8006592:	d101      	bne.n	8006598 <HAL_UART_Transmit+0x30>
    {
      return  HAL_ERROR;
 8006594:	2301      	movs	r3, #1
 8006596:	e06e      	b.n	8006676 <HAL_UART_Transmit+0x10e>
    }

    huart->ErrorCode = HAL_UART_ERROR_NONE;
 8006598:	68fb      	ldr	r3, [r7, #12]
 800659a:	2200      	movs	r2, #0
 800659c:	645a      	str	r2, [r3, #68]	; 0x44
    huart->gState = HAL_UART_STATE_BUSY_TX;
 800659e:	68fb      	ldr	r3, [r7, #12]
 80065a0:	2221      	movs	r2, #33	; 0x21
 80065a2:	f883 2041 	strb.w	r2, [r3, #65]	; 0x41

    /* Init tickstart for timeout management */
    tickstart = HAL_GetTick();
 80065a6:	f7fc f81f 	bl	80025e8 <HAL_GetTick>
 80065aa:	6178      	str	r0, [r7, #20]

    huart->TxXferSize = Size;
 80065ac:	68fb      	ldr	r3, [r7, #12]
 80065ae:	88fa      	ldrh	r2, [r7, #6]
 80065b0:	849a      	strh	r2, [r3, #36]	; 0x24
    huart->TxXferCount = Size;
 80065b2:	68fb      	ldr	r3, [r7, #12]
 80065b4:	88fa      	ldrh	r2, [r7, #6]
 80065b6:	84da      	strh	r2, [r3, #38]	; 0x26

    /* In case of 9bits/No Parity transfer, pData needs to be handled as a uint16_t pointer */
    if ((huart->Init.WordLength == UART_WORDLENGTH_9B) && (huart->Init.Parity == UART_PARITY_NONE))
 80065b8:	68fb      	ldr	r3, [r7, #12]
 80065ba:	689b      	ldr	r3, [r3, #8]
 80065bc:	f5b3 5f80 	cmp.w	r3, #4096	; 0x1000
 80065c0:	d108      	bne.n	80065d4 <HAL_UART_Transmit+0x6c>
 80065c2:	68fb      	ldr	r3, [r7, #12]
 80065c4:	691b      	ldr	r3, [r3, #16]
 80065c6:	2b00      	cmp	r3, #0
 80065c8:	d104      	bne.n	80065d4 <HAL_UART_Transmit+0x6c>
    {
      pdata8bits  = NULL;
 80065ca:	2300      	movs	r3, #0
 80065cc:	61fb      	str	r3, [r7, #28]
      pdata16bits = (const uint16_t *) pData;
 80065ce:	68bb      	ldr	r3, [r7, #8]
 80065d0:	61bb      	str	r3, [r7, #24]
 80065d2:	e003      	b.n	80065dc <HAL_UART_Transmit+0x74>
    }
    else
    {
      pdata8bits  = pData;
 80065d4:	68bb      	ldr	r3, [r7, #8]
 80065d6:	61fb      	str	r3, [r7, #28]
      pdata16bits = NULL;
 80065d8:	2300      	movs	r3, #0
 80065da:	61bb      	str	r3, [r7, #24]
    }

    while (huart->TxXferCount > 0U)
 80065dc:	e02e      	b.n	800663c <HAL_UART_Transmit+0xd4>
    {
      if (UART_WaitOnFlagUntilTimeout(huart, UART_FLAG_TXE, RESET, tickstart, Timeout) != HAL_OK)
 80065de:	683b      	ldr	r3, [r7, #0]
 80065e0:	9300      	str	r3, [sp, #0]
 80065e2:	697b      	ldr	r3, [r7, #20]
 80065e4:	2200      	movs	r2, #0
 80065e6:	2180      	movs	r1, #128	; 0x80
 80065e8:	68f8      	ldr	r0, [r7, #12]
 80065ea:	f000 fb1f 	bl	8006c2c <UART_WaitOnFlagUntilTimeout>
 80065ee:	4603      	mov	r3, r0
 80065f0:	2b00      	cmp	r3, #0
 80065f2:	d005      	beq.n	8006600 <HAL_UART_Transmit+0x98>
      {
        huart->gState = HAL_UART_STATE_READY;
 80065f4:	68fb      	ldr	r3, [r7, #12]
 80065f6:	2220      	movs	r2, #32
 80065f8:	f883 2041 	strb.w	r2, [r3, #65]	; 0x41

        return HAL_TIMEOUT;
 80065fc:	2303      	movs	r3, #3
 80065fe:	e03a      	b.n	8006676 <HAL_UART_Transmit+0x10e>
      }
      if (pdata8bits == NULL)
 8006600:	69fb      	ldr	r3, [r7, #28]
 8006602:	2b00      	cmp	r3, #0
 8006604:	d10b      	bne.n	800661e <HAL_UART_Transmit+0xb6>
      {
        huart->Instance->DR = (uint16_t)(*pdata16bits & 0x01FFU);
 8006606:	69bb      	ldr	r3, [r7, #24]
 8006608:	881b      	ldrh	r3, [r3, #0]
 800660a:	461a      	mov	r2, r3
 800660c:	68fb      	ldr	r3, [r7, #12]
 800660e:	681b      	ldr	r3, [r3, #0]
 8006610:	f3c2 0208 	ubfx	r2, r2, #0, #9
 8006614:	605a      	str	r2, [r3, #4]
        pdata16bits++;
 8006616:	69bb      	ldr	r3, [r7, #24]
 8006618:	3302      	adds	r3, #2
 800661a:	61bb      	str	r3, [r7, #24]
 800661c:	e007      	b.n	800662e <HAL_UART_Transmit+0xc6>
      }
      else
      {
        huart->Instance->DR = (uint8_t)(*pdata8bits & 0xFFU);
 800661e:	69fb      	ldr	r3, [r7, #28]
 8006620:	781a      	ldrb	r2, [r3, #0]
 8006622:	68fb      	ldr	r3, [r7, #12]
 8006624:	681b      	ldr	r3, [r3, #0]
 8006626:	605a      	str	r2, [r3, #4]
        pdata8bits++;
 8006628:	69fb      	ldr	r3, [r7, #28]
 800662a:	3301      	adds	r3, #1
 800662c:	61fb      	str	r3, [r7, #28]
      }
      huart->TxXferCount--;
 800662e:	68fb      	ldr	r3, [r7, #12]
 8006630:	8cdb      	ldrh	r3, [r3, #38]	; 0x26
 8006632:	b29b      	uxth	r3, r3
 8006634:	3b01      	subs	r3, #1
 8006636:	b29a      	uxth	r2, r3
 8006638:	68fb      	ldr	r3, [r7, #12]
 800663a:	84da      	strh	r2, [r3, #38]	; 0x26
    while (huart->TxXferCount > 0U)
 800663c:	68fb      	ldr	r3, [r7, #12]
 800663e:	8cdb      	ldrh	r3, [r3, #38]	; 0x26
 8006640:	b29b      	uxth	r3, r3
 8006642:	2b00      	cmp	r3, #0
 8006644:	d1cb      	bne.n	80065de <HAL_UART_Transmit+0x76>
    }

    if (UART_WaitOnFlagUntilTimeout(huart, UART_FLAG_TC, RESET, tickstart, Timeout) != HAL_OK)
 8006646:	683b      	ldr	r3, [r7, #0]
 8006648:	9300      	str	r3, [sp, #0]
 800664a:	697b      	ldr	r3, [r7, #20]
 800664c:	2200      	movs	r2, #0
 800664e:	2140      	movs	r1, #64	; 0x40
 8006650:	68f8      	ldr	r0, [r7, #12]
 8006652:	f000 faeb 	bl	8006c2c <UART_WaitOnFlagUntilTimeout>
 8006656:	4603      	mov	r3, r0
 8006658:	2b00      	cmp	r3, #0
 800665a:	d005      	beq.n	8006668 <HAL_UART_Transmit+0x100>
    {
      huart->gState = HAL_UART_STATE_READY;
 800665c:	68fb      	ldr	r3, [r7, #12]
 800665e:	2220      	movs	r2, #32
 8006660:	f883 2041 	strb.w	r2, [r3, #65]	; 0x41

      return HAL_TIMEOUT;
 8006664:	2303      	movs	r3, #3
 8006666:	e006      	b.n	8006676 <HAL_UART_Transmit+0x10e>
    }

    /* At end of Tx process, restore huart->gState to Ready */
    huart->gState = HAL_UART_STATE_READY;
 8006668:	68fb      	ldr	r3, [r7, #12]
 800666a:	2220      	movs	r2, #32
 800666c:	f883 2041 	strb.w	r2, [r3, #65]	; 0x41

    return HAL_OK;
 8006670:	2300      	movs	r3, #0
 8006672:	e000      	b.n	8006676 <HAL_UART_Transmit+0x10e>
  }
  else
  {
    return HAL_BUSY;
 8006674:	2302      	movs	r3, #2
  }
}
 8006676:	4618      	mov	r0, r3
 8006678:	3720      	adds	r7, #32
 800667a:	46bd      	mov	sp, r7
 800667c:	bd80      	pop	{r7, pc}

0800667e <HAL_UART_Receive_IT>:
  * @param  pData Pointer to data buffer (u8 or u16 data elements).
  * @param  Size  Amount of data elements (u8 or u16) to be received.
  * @retval HAL status
  */
HAL_StatusTypeDef HAL_UART_Receive_IT(UART_HandleTypeDef *huart, uint8_t *pData, uint16_t Size)
{
 800667e:	b580      	push	{r7, lr}
 8006680:	b084      	sub	sp, #16
 8006682:	af00      	add	r7, sp, #0
 8006684:	60f8      	str	r0, [r7, #12]
 8006686:	60b9      	str	r1, [r7, #8]
 8006688:	4613      	mov	r3, r2
 800668a:	80fb      	strh	r3, [r7, #6]
  /* Check that a Rx process is not already ongoing */
  if (huart->RxState == HAL_UART_STATE_READY)
 800668c:	68fb      	ldr	r3, [r7, #12]
 800668e:	f893 3042 	ldrb.w	r3, [r3, #66]	; 0x42
 8006692:	b2db      	uxtb	r3, r3
 8006694:	2b20      	cmp	r3, #32
 8006696:	d112      	bne.n	80066be <HAL_UART_Receive_IT+0x40>
  {
    if ((pData == NULL) || (Size == 0U))
 8006698:	68bb      	ldr	r3, [r7, #8]
 800669a:	2b00      	cmp	r3, #0
 800669c:	d002      	beq.n	80066a4 <HAL_UART_Receive_IT+0x26>
 800669e:	88fb      	ldrh	r3, [r7, #6]
 80066a0:	2b00      	cmp	r3, #0
 80066a2:	d101      	bne.n	80066a8 <HAL_UART_Receive_IT+0x2a>
    {
      return HAL_ERROR;
 80066a4:	2301      	movs	r3, #1
 80066a6:	e00b      	b.n	80066c0 <HAL_UART_Receive_IT+0x42>
    }

    /* Set Reception type to Standard reception */
    huart->ReceptionType = HAL_UART_RECEPTION_STANDARD;
 80066a8:	68fb      	ldr	r3, [r7, #12]
 80066aa:	2200      	movs	r2, #0
 80066ac:	631a      	str	r2, [r3, #48]	; 0x30

    return (UART_Start_Receive_IT(huart, pData, Size));
 80066ae:	88fb      	ldrh	r3, [r7, #6]
 80066b0:	461a      	mov	r2, r3
 80066b2:	68b9      	ldr	r1, [r7, #8]
 80066b4:	68f8      	ldr	r0, [r7, #12]
 80066b6:	f000 fb12 	bl	8006cde <UART_Start_Receive_IT>
 80066ba:	4603      	mov	r3, r0
 80066bc:	e000      	b.n	80066c0 <HAL_UART_Receive_IT+0x42>
  }
  else
  {
    return HAL_BUSY;
 80066be:	2302      	movs	r3, #2
  }
}
 80066c0:	4618      	mov	r0, r3
 80066c2:	3710      	adds	r7, #16
 80066c4:	46bd      	mov	sp, r7
 80066c6:	bd80      	pop	{r7, pc}

080066c8 <HAL_UART_IRQHandler>:
  * @param  huart  Pointer to a UART_HandleTypeDef structure that contains
  *                the configuration information for the specified UART module.
  * @retval None
  */
void HAL_UART_IRQHandler(UART_HandleTypeDef *huart)
{
 80066c8:	b580      	push	{r7, lr}
 80066ca:	b0ba      	sub	sp, #232	; 0xe8
 80066cc:	af00      	add	r7, sp, #0
 80066ce:	6078      	str	r0, [r7, #4]
  uint32_t isrflags   = READ_REG(huart->Instance->SR);
 80066d0:	687b      	ldr	r3, [r7, #4]
 80066d2:	681b      	ldr	r3, [r3, #0]
 80066d4:	681b      	ldr	r3, [r3, #0]
 80066d6:	f8c7 30e4 	str.w	r3, [r7, #228]	; 0xe4
  uint32_t cr1its     = READ_REG(huart->Instance->CR1);
 80066da:	687b      	ldr	r3, [r7, #4]
 80066dc:	681b      	ldr	r3, [r3, #0]
 80066de:	68db      	ldr	r3, [r3, #12]
 80066e0:	f8c7 30e0 	str.w	r3, [r7, #224]	; 0xe0
  uint32_t cr3its     = READ_REG(huart->Instance->CR3);
 80066e4:	687b      	ldr	r3, [r7, #4]
 80066e6:	681b      	ldr	r3, [r3, #0]
 80066e8:	695b      	ldr	r3, [r3, #20]
 80066ea:	f8c7 30dc 	str.w	r3, [r7, #220]	; 0xdc
  uint32_t errorflags = 0x00U;
 80066ee:	2300      	movs	r3, #0
 80066f0:	f8c7 30d8 	str.w	r3, [r7, #216]	; 0xd8
  uint32_t dmarequest = 0x00U;
 80066f4:	2300      	movs	r3, #0
 80066f6:	f8c7 30d4 	str.w	r3, [r7, #212]	; 0xd4

  /* If no error occurs */
  errorflags = (isrflags & (uint32_t)(USART_SR_PE | USART_SR_FE | USART_SR_ORE | USART_SR_NE));
 80066fa:	f8d7 30e4 	ldr.w	r3, [r7, #228]	; 0xe4
 80066fe:	f003 030f 	and.w	r3, r3, #15
 8006702:	f8c7 30d8 	str.w	r3, [r7, #216]	; 0xd8
  if (errorflags == RESET)
 8006706:	f8d7 30d8 	ldr.w	r3, [r7, #216]	; 0xd8
 800670a:	2b00      	cmp	r3, #0
 800670c:	d10f      	bne.n	800672e <HAL_UART_IRQHandler+0x66>
  {
    /* UART in mode Receiver -------------------------------------------------*/
    if (((isrflags & USART_SR_RXNE) != RESET) && ((cr1its & USART_CR1_RXNEIE) != RESET))
 800670e:	f8d7 30e4 	ldr.w	r3, [r7, #228]	; 0xe4
 8006712:	f003 0320 	and.w	r3, r3, #32
 8006716:	2b00      	cmp	r3, #0
 8006718:	d009      	beq.n	800672e <HAL_UART_IRQHandler+0x66>
 800671a:	f8d7 30e0 	ldr.w	r3, [r7, #224]	; 0xe0
 800671e:	f003 0320 	and.w	r3, r3, #32
 8006722:	2b00      	cmp	r3, #0
 8006724:	d003      	beq.n	800672e <HAL_UART_IRQHandler+0x66>
    {
      UART_Receive_IT(huart);
 8006726:	6878      	ldr	r0, [r7, #4]
 8006728:	f000 fbf2 	bl	8006f10 <UART_Receive_IT>
      return;
 800672c:	e25b      	b.n	8006be6 <HAL_UART_IRQHandler+0x51e>
    }
  }

  /* If some errors occur */
  if ((errorflags != RESET) && (((cr3its & USART_CR3_EIE) != RESET)
 800672e:	f8d7 30d8 	ldr.w	r3, [r7, #216]	; 0xd8
 8006732:	2b00      	cmp	r3, #0
 8006734:	f000 80de 	beq.w	80068f4 <HAL_UART_IRQHandler+0x22c>
 8006738:	f8d7 30dc 	ldr.w	r3, [r7, #220]	; 0xdc
 800673c:	f003 0301 	and.w	r3, r3, #1
 8006740:	2b00      	cmp	r3, #0
 8006742:	d106      	bne.n	8006752 <HAL_UART_IRQHandler+0x8a>
                                || ((cr1its & (USART_CR1_RXNEIE | USART_CR1_PEIE)) != RESET)))
 8006744:	f8d7 30e0 	ldr.w	r3, [r7, #224]	; 0xe0
 8006748:	f403 7390 	and.w	r3, r3, #288	; 0x120
 800674c:	2b00      	cmp	r3, #0
 800674e:	f000 80d1 	beq.w	80068f4 <HAL_UART_IRQHandler+0x22c>
  {
    /* UART parity error interrupt occurred ----------------------------------*/
    if (((isrflags & USART_SR_PE) != RESET) && ((cr1its & USART_CR1_PEIE) != RESET))
 8006752:	f8d7 30e4 	ldr.w	r3, [r7, #228]	; 0xe4
 8006756:	f003 0301 	and.w	r3, r3, #1
 800675a:	2b00      	cmp	r3, #0
 800675c:	d00b      	beq.n	8006776 <HAL_UART_IRQHandler+0xae>
 800675e:	f8d7 30e0 	ldr.w	r3, [r7, #224]	; 0xe0
 8006762:	f403 7380 	and.w	r3, r3, #256	; 0x100
 8006766:	2b00      	cmp	r3, #0
 8006768:	d005      	beq.n	8006776 <HAL_UART_IRQHandler+0xae>
    {
      huart->ErrorCode |= HAL_UART_ERROR_PE;
 800676a:	687b      	ldr	r3, [r7, #4]
 800676c:	6c5b      	ldr	r3, [r3, #68]	; 0x44
 800676e:	f043 0201 	orr.w	r2, r3, #1
 8006772:	687b      	ldr	r3, [r7, #4]
 8006774:	645a      	str	r2, [r3, #68]	; 0x44
    }

    /* UART noise error interrupt occurred -----------------------------------*/
    if (((isrflags & USART_SR_NE) != RESET) && ((cr3its & USART_CR3_EIE) != RESET))
 8006776:	f8d7 30e4 	ldr.w	r3, [r7, #228]	; 0xe4
 800677a:	f003 0304 	and.w	r3, r3, #4
 800677e:	2b00      	cmp	r3, #0
 8006780:	d00b      	beq.n	800679a <HAL_UART_IRQHandler+0xd2>
 8006782:	f8d7 30dc 	ldr.w	r3, [r7, #220]	; 0xdc
 8006786:	f003 0301 	and.w	r3, r3, #1
 800678a:	2b00      	cmp	r3, #0
 800678c:	d005      	beq.n	800679a <HAL_UART_IRQHandler+0xd2>
    {
      huart->ErrorCode |= HAL_UART_ERROR_NE;
 800678e:	687b      	ldr	r3, [r7, #4]
 8006790:	6c5b      	ldr	r3, [r3, #68]	; 0x44
 8006792:	f043 0202 	orr.w	r2, r3, #2
 8006796:	687b      	ldr	r3, [r7, #4]
 8006798:	645a      	str	r2, [r3, #68]	; 0x44
    }

    /* UART frame error interrupt occurred -----------------------------------*/
    if (((isrflags & USART_SR_FE) != RESET) && ((cr3its & USART_CR3_EIE) != RESET))
 800679a:	f8d7 30e4 	ldr.w	r3, [r7, #228]	; 0xe4
 800679e:	f003 0302 	and.w	r3, r3, #2
 80067a2:	2b00      	cmp	r3, #0
 80067a4:	d00b      	beq.n	80067be <HAL_UART_IRQHandler+0xf6>
 80067a6:	f8d7 30dc 	ldr.w	r3, [r7, #220]	; 0xdc
 80067aa:	f003 0301 	and.w	r3, r3, #1
 80067ae:	2b00      	cmp	r3, #0
 80067b0:	d005      	beq.n	80067be <HAL_UART_IRQHandler+0xf6>
    {
      huart->ErrorCode |= HAL_UART_ERROR_FE;
 80067b2:	687b      	ldr	r3, [r7, #4]
 80067b4:	6c5b      	ldr	r3, [r3, #68]	; 0x44
 80067b6:	f043 0204 	orr.w	r2, r3, #4
 80067ba:	687b      	ldr	r3, [r7, #4]
 80067bc:	645a      	str	r2, [r3, #68]	; 0x44
    }

    /* UART Over-Run interrupt occurred --------------------------------------*/
    if (((isrflags & USART_SR_ORE) != RESET) && (((cr1its & USART_CR1_RXNEIE) != RESET)
 80067be:	f8d7 30e4 	ldr.w	r3, [r7, #228]	; 0xe4
 80067c2:	f003 0308 	and.w	r3, r3, #8
 80067c6:	2b00      	cmp	r3, #0
 80067c8:	d011      	beq.n	80067ee <HAL_UART_IRQHandler+0x126>
 80067ca:	f8d7 30e0 	ldr.w	r3, [r7, #224]	; 0xe0
 80067ce:	f003 0320 	and.w	r3, r3, #32
 80067d2:	2b00      	cmp	r3, #0
 80067d4:	d105      	bne.n	80067e2 <HAL_UART_IRQHandler+0x11a>
                                                 || ((cr3its & USART_CR3_EIE) != RESET)))
 80067d6:	f8d7 30dc 	ldr.w	r3, [r7, #220]	; 0xdc
 80067da:	f003 0301 	and.w	r3, r3, #1
 80067de:	2b00      	cmp	r3, #0
 80067e0:	d005      	beq.n	80067ee <HAL_UART_IRQHandler+0x126>
    {
      huart->ErrorCode |= HAL_UART_ERROR_ORE;
 80067e2:	687b      	ldr	r3, [r7, #4]
 80067e4:	6c5b      	ldr	r3, [r3, #68]	; 0x44
 80067e6:	f043 0208 	orr.w	r2, r3, #8
 80067ea:	687b      	ldr	r3, [r7, #4]
 80067ec:	645a      	str	r2, [r3, #68]	; 0x44
    }

    /* Call UART Error Call back function if need be --------------------------*/
    if (huart->ErrorCode != HAL_UART_ERROR_NONE)
 80067ee:	687b      	ldr	r3, [r7, #4]
 80067f0:	6c5b      	ldr	r3, [r3, #68]	; 0x44
 80067f2:	2b00      	cmp	r3, #0
 80067f4:	f000 81f2 	beq.w	8006bdc <HAL_UART_IRQHandler+0x514>
    {
      /* UART in mode Receiver -----------------------------------------------*/
      if (((isrflags & USART_SR_RXNE) != RESET) && ((cr1its & USART_CR1_RXNEIE) != RESET))
 80067f8:	f8d7 30e4 	ldr.w	r3, [r7, #228]	; 0xe4
 80067fc:	f003 0320 	and.w	r3, r3, #32
 8006800:	2b00      	cmp	r3, #0
 8006802:	d008      	beq.n	8006816 <HAL_UART_IRQHandler+0x14e>
 8006804:	f8d7 30e0 	ldr.w	r3, [r7, #224]	; 0xe0
 8006808:	f003 0320 	and.w	r3, r3, #32
 800680c:	2b00      	cmp	r3, #0
 800680e:	d002      	beq.n	8006816 <HAL_UART_IRQHandler+0x14e>
      {
        UART_Receive_IT(huart);
 8006810:	6878      	ldr	r0, [r7, #4]
 8006812:	f000 fb7d 	bl	8006f10 <UART_Receive_IT>
      }

      /* If Overrun error occurs, or if any error occurs in DMA mode reception,
         consider error as blocking */
      dmarequest = HAL_IS_BIT_SET(huart->Instance->CR3, USART_CR3_DMAR);
 8006816:	687b      	ldr	r3, [r7, #4]
 8006818:	681b      	ldr	r3, [r3, #0]
 800681a:	695b      	ldr	r3, [r3, #20]
 800681c:	f003 0340 	and.w	r3, r3, #64	; 0x40
 8006820:	2b40      	cmp	r3, #64	; 0x40
 8006822:	bf0c      	ite	eq
 8006824:	2301      	moveq	r3, #1
 8006826:	2300      	movne	r3, #0
 8006828:	b2db      	uxtb	r3, r3
 800682a:	f8c7 30d4 	str.w	r3, [r7, #212]	; 0xd4
      if (((huart->ErrorCode & HAL_UART_ERROR_ORE) != RESET) || dmarequest)
 800682e:	687b      	ldr	r3, [r7, #4]
 8006830:	6c5b      	ldr	r3, [r3, #68]	; 0x44
 8006832:	f003 0308 	and.w	r3, r3, #8
 8006836:	2b00      	cmp	r3, #0
 8006838:	d103      	bne.n	8006842 <HAL_UART_IRQHandler+0x17a>
 800683a:	f8d7 30d4 	ldr.w	r3, [r7, #212]	; 0xd4
 800683e:	2b00      	cmp	r3, #0
 8006840:	d04f      	beq.n	80068e2 <HAL_UART_IRQHandler+0x21a>
      {
        /* Blocking error : transfer is aborted
           Set the UART state ready to be able to start again the process,
           Disable Rx Interrupts, and disable Rx DMA request, if ongoing */
        UART_EndRxTransfer(huart);
 8006842:	6878      	ldr	r0, [r7, #4]
 8006844:	f000 fa85 	bl	8006d52 <UART_EndRxTransfer>

        /* Disable the UART DMA Rx request if enabled */
        if (HAL_IS_BIT_SET(huart->Instance->CR3, USART_CR3_DMAR))
 8006848:	687b      	ldr	r3, [r7, #4]
 800684a:	681b      	ldr	r3, [r3, #0]
 800684c:	695b      	ldr	r3, [r3, #20]
 800684e:	f003 0340 	and.w	r3, r3, #64	; 0x40
 8006852:	2b40      	cmp	r3, #64	; 0x40
 8006854:	d141      	bne.n	80068da <HAL_UART_IRQHandler+0x212>
        {
          ATOMIC_CLEAR_BIT(huart->Instance->CR3, USART_CR3_DMAR);
 8006856:	687b      	ldr	r3, [r7, #4]
 8006858:	681b      	ldr	r3, [r3, #0]
 800685a:	3314      	adds	r3, #20
 800685c:	f8c7 309c 	str.w	r3, [r7, #156]	; 0x9c
   __ASM volatile ("ldrex %0, %1" : "=r" (result) : "Q" (*addr) );
 8006860:	f8d7 309c 	ldr.w	r3, [r7, #156]	; 0x9c
 8006864:	e853 3f00 	ldrex	r3, [r3]
 8006868:	f8c7 3098 	str.w	r3, [r7, #152]	; 0x98
   return(result);
 800686c:	f8d7 3098 	ldr.w	r3, [r7, #152]	; 0x98
 8006870:	f023 0340 	bic.w	r3, r3, #64	; 0x40
 8006874:	f8c7 30d0 	str.w	r3, [r7, #208]	; 0xd0
 8006878:	687b      	ldr	r3, [r7, #4]
 800687a:	681b      	ldr	r3, [r3, #0]
 800687c:	3314      	adds	r3, #20
 800687e:	f8d7 20d0 	ldr.w	r2, [r7, #208]	; 0xd0
 8006882:	f8c7 20a8 	str.w	r2, [r7, #168]	; 0xa8
 8006886:	f8c7 30a4 	str.w	r3, [r7, #164]	; 0xa4
   __ASM volatile ("strex %0, %2, %1" : "=&r" (result), "=Q" (*addr) : "r" (value) );
 800688a:	f8d7 10a4 	ldr.w	r1, [r7, #164]	; 0xa4
 800688e:	f8d7 20a8 	ldr.w	r2, [r7, #168]	; 0xa8
 8006892:	e841 2300 	strex	r3, r2, [r1]
 8006896:	f8c7 30a0 	str.w	r3, [r7, #160]	; 0xa0
   return(result);
 800689a:	f8d7 30a0 	ldr.w	r3, [r7, #160]	; 0xa0
 800689e:	2b00      	cmp	r3, #0
 80068a0:	d1d9      	bne.n	8006856 <HAL_UART_IRQHandler+0x18e>

          /* Abort the UART DMA Rx stream */
          if (huart->hdmarx != NULL)
 80068a2:	687b      	ldr	r3, [r7, #4]
 80068a4:	6bdb      	ldr	r3, [r3, #60]	; 0x3c
 80068a6:	2b00      	cmp	r3, #0
 80068a8:	d013      	beq.n	80068d2 <HAL_UART_IRQHandler+0x20a>
          {
            /* Set the UART DMA Abort callback :
               will lead to call HAL_UART_ErrorCallback() at end of DMA abort procedure */
            huart->hdmarx->XferAbortCallback = UART_DMAAbortOnError;
 80068aa:	687b      	ldr	r3, [r7, #4]
 80068ac:	6bdb      	ldr	r3, [r3, #60]	; 0x3c
 80068ae:	4a7e      	ldr	r2, [pc, #504]	; (8006aa8 <HAL_UART_IRQHandler+0x3e0>)
 80068b0:	651a      	str	r2, [r3, #80]	; 0x50
            if (HAL_DMA_Abort_IT(huart->hdmarx) != HAL_OK)
 80068b2:	687b      	ldr	r3, [r7, #4]
 80068b4:	6bdb      	ldr	r3, [r3, #60]	; 0x3c
 80068b6:	4618      	mov	r0, r3
 80068b8:	f7fc f847 	bl	800294a <HAL_DMA_Abort_IT>
 80068bc:	4603      	mov	r3, r0
 80068be:	2b00      	cmp	r3, #0
 80068c0:	d016      	beq.n	80068f0 <HAL_UART_IRQHandler+0x228>
            {
              /* Call Directly XferAbortCallback function in case of error */
              huart->hdmarx->XferAbortCallback(huart->hdmarx);
 80068c2:	687b      	ldr	r3, [r7, #4]
 80068c4:	6bdb      	ldr	r3, [r3, #60]	; 0x3c
 80068c6:	6d1b      	ldr	r3, [r3, #80]	; 0x50
 80068c8:	687a      	ldr	r2, [r7, #4]
 80068ca:	6bd2      	ldr	r2, [r2, #60]	; 0x3c
 80068cc:	4610      	mov	r0, r2
 80068ce:	4798      	blx	r3
        if (HAL_IS_BIT_SET(huart->Instance->CR3, USART_CR3_DMAR))
 80068d0:	e00e      	b.n	80068f0 <HAL_UART_IRQHandler+0x228>
#if (USE_HAL_UART_REGISTER_CALLBACKS == 1)
            /*Call registered error callback*/
            huart->ErrorCallback(huart);
#else
            /*Call legacy weak error callback*/
            HAL_UART_ErrorCallback(huart);
 80068d2:	6878      	ldr	r0, [r7, #4]
 80068d4:	f000 f994 	bl	8006c00 <HAL_UART_ErrorCallback>
        if (HAL_IS_BIT_SET(huart->Instance->CR3, USART_CR3_DMAR))
 80068d8:	e00a      	b.n	80068f0 <HAL_UART_IRQHandler+0x228>
#if (USE_HAL_UART_REGISTER_CALLBACKS == 1)
          /*Call registered error callback*/
          huart->ErrorCallback(huart);
#else
          /*Call legacy weak error callback*/
          HAL_UART_ErrorCallback(huart);
 80068da:	6878      	ldr	r0, [r7, #4]
 80068dc:	f000 f990 	bl	8006c00 <HAL_UART_ErrorCallback>
        if (HAL_IS_BIT_SET(huart->Instance->CR3, USART_CR3_DMAR))
 80068e0:	e006      	b.n	80068f0 <HAL_UART_IRQHandler+0x228>
#if (USE_HAL_UART_REGISTER_CALLBACKS == 1)
        /*Call registered error callback*/
        huart->ErrorCallback(huart);
#else
        /*Call legacy weak error callback*/
        HAL_UART_ErrorCallback(huart);
 80068e2:	6878      	ldr	r0, [r7, #4]
 80068e4:	f000 f98c 	bl	8006c00 <HAL_UART_ErrorCallback>
#endif /* USE_HAL_UART_REGISTER_CALLBACKS */

        huart->ErrorCode = HAL_UART_ERROR_NONE;
 80068e8:	687b      	ldr	r3, [r7, #4]
 80068ea:	2200      	movs	r2, #0
 80068ec:	645a      	str	r2, [r3, #68]	; 0x44
      }
    }
    return;
 80068ee:	e175      	b.n	8006bdc <HAL_UART_IRQHandler+0x514>
        if (HAL_IS_BIT_SET(huart->Instance->CR3, USART_CR3_DMAR))
 80068f0:	bf00      	nop
    return;
 80068f2:	e173      	b.n	8006bdc <HAL_UART_IRQHandler+0x514>
  } /* End if some error occurs */

  /* Check current reception Mode :
     If Reception till IDLE event has been selected : */
  if ((huart->ReceptionType == HAL_UART_RECEPTION_TOIDLE)
 80068f4:	687b      	ldr	r3, [r7, #4]
 80068f6:	6b1b      	ldr	r3, [r3, #48]	; 0x30
 80068f8:	2b01      	cmp	r3, #1
 80068fa:	f040 814f 	bne.w	8006b9c <HAL_UART_IRQHandler+0x4d4>
      && ((isrflags & USART_SR_IDLE) != 0U)
 80068fe:	f8d7 30e4 	ldr.w	r3, [r7, #228]	; 0xe4
 8006902:	f003 0310 	and.w	r3, r3, #16
 8006906:	2b00      	cmp	r3, #0
 8006908:	f000 8148 	beq.w	8006b9c <HAL_UART_IRQHandler+0x4d4>
      && ((cr1its & USART_SR_IDLE) != 0U))
 800690c:	f8d7 30e0 	ldr.w	r3, [r7, #224]	; 0xe0
 8006910:	f003 0310 	and.w	r3, r3, #16
 8006914:	2b00      	cmp	r3, #0
 8006916:	f000 8141 	beq.w	8006b9c <HAL_UART_IRQHandler+0x4d4>
  {
    __HAL_UART_CLEAR_IDLEFLAG(huart);
 800691a:	2300      	movs	r3, #0
 800691c:	60bb      	str	r3, [r7, #8]
 800691e:	687b      	ldr	r3, [r7, #4]
 8006920:	681b      	ldr	r3, [r3, #0]
 8006922:	681b      	ldr	r3, [r3, #0]
 8006924:	60bb      	str	r3, [r7, #8]
 8006926:	687b      	ldr	r3, [r7, #4]
 8006928:	681b      	ldr	r3, [r3, #0]
 800692a:	685b      	ldr	r3, [r3, #4]
 800692c:	60bb      	str	r3, [r7, #8]
 800692e:	68bb      	ldr	r3, [r7, #8]

    /* Check if DMA mode is enabled in UART */
    if (HAL_IS_BIT_SET(huart->Instance->CR3, USART_CR3_DMAR))
 8006930:	687b      	ldr	r3, [r7, #4]
 8006932:	681b      	ldr	r3, [r3, #0]
 8006934:	695b      	ldr	r3, [r3, #20]
 8006936:	f003 0340 	and.w	r3, r3, #64	; 0x40
 800693a:	2b40      	cmp	r3, #64	; 0x40
 800693c:	f040 80b6 	bne.w	8006aac <HAL_UART_IRQHandler+0x3e4>
    {
      /* DMA mode enabled */
      /* Check received length : If all expected data are received, do nothing,
         (DMA cplt callback will be called).
         Otherwise, if at least one data has already been received, IDLE event is to be notified to user */
      uint16_t nb_remaining_rx_data = (uint16_t) __HAL_DMA_GET_COUNTER(huart->hdmarx);
 8006940:	687b      	ldr	r3, [r7, #4]
 8006942:	6bdb      	ldr	r3, [r3, #60]	; 0x3c
 8006944:	681b      	ldr	r3, [r3, #0]
 8006946:	685b      	ldr	r3, [r3, #4]
 8006948:	f8a7 30be 	strh.w	r3, [r7, #190]	; 0xbe
      if ((nb_remaining_rx_data > 0U)
 800694c:	f8b7 30be 	ldrh.w	r3, [r7, #190]	; 0xbe
 8006950:	2b00      	cmp	r3, #0
 8006952:	f000 8145 	beq.w	8006be0 <HAL_UART_IRQHandler+0x518>
          && (nb_remaining_rx_data < huart->RxXferSize))
 8006956:	687b      	ldr	r3, [r7, #4]
 8006958:	8d9b      	ldrh	r3, [r3, #44]	; 0x2c
 800695a:	f8b7 20be 	ldrh.w	r2, [r7, #190]	; 0xbe
 800695e:	429a      	cmp	r2, r3
 8006960:	f080 813e 	bcs.w	8006be0 <HAL_UART_IRQHandler+0x518>
      {
        /* Reception is not complete */
        huart->RxXferCount = nb_remaining_rx_data;
 8006964:	687b      	ldr	r3, [r7, #4]
 8006966:	f8b7 20be 	ldrh.w	r2, [r7, #190]	; 0xbe
 800696a:	85da      	strh	r2, [r3, #46]	; 0x2e

        /* In Normal mode, end DMA xfer and HAL UART Rx process*/
        if (huart->hdmarx->Init.Mode != DMA_CIRCULAR)
 800696c:	687b      	ldr	r3, [r7, #4]
 800696e:	6bdb      	ldr	r3, [r3, #60]	; 0x3c
 8006970:	69db      	ldr	r3, [r3, #28]
 8006972:	f5b3 7f80 	cmp.w	r3, #256	; 0x100
 8006976:	f000 8088 	beq.w	8006a8a <HAL_UART_IRQHandler+0x3c2>
        {
          /* Disable PE and ERR (Frame error, noise error, overrun error) interrupts */
          ATOMIC_CLEAR_BIT(huart->Instance->CR1, USART_CR1_PEIE);
 800697a:	687b      	ldr	r3, [r7, #4]
 800697c:	681b      	ldr	r3, [r3, #0]
 800697e:	330c      	adds	r3, #12
 8006980:	f8c7 3088 	str.w	r3, [r7, #136]	; 0x88
   __ASM volatile ("ldrex %0, %1" : "=r" (result) : "Q" (*addr) );
 8006984:	f8d7 3088 	ldr.w	r3, [r7, #136]	; 0x88
 8006988:	e853 3f00 	ldrex	r3, [r3]
 800698c:	f8c7 3084 	str.w	r3, [r7, #132]	; 0x84
   return(result);
 8006990:	f8d7 3084 	ldr.w	r3, [r7, #132]	; 0x84
 8006994:	f423 7380 	bic.w	r3, r3, #256	; 0x100
 8006998:	f8c7 30b8 	str.w	r3, [r7, #184]	; 0xb8
 800699c:	687b      	ldr	r3, [r7, #4]
 800699e:	681b      	ldr	r3, [r3, #0]
 80069a0:	330c      	adds	r3, #12
 80069a2:	f8d7 20b8 	ldr.w	r2, [r7, #184]	; 0xb8
 80069a6:	f8c7 2094 	str.w	r2, [r7, #148]	; 0x94
 80069aa:	f8c7 3090 	str.w	r3, [r7, #144]	; 0x90
   __ASM volatile ("strex %0, %2, %1" : "=&r" (result), "=Q" (*addr) : "r" (value) );
 80069ae:	f8d7 1090 	ldr.w	r1, [r7, #144]	; 0x90
 80069b2:	f8d7 2094 	ldr.w	r2, [r7, #148]	; 0x94
 80069b6:	e841 2300 	strex	r3, r2, [r1]
 80069ba:	f8c7 308c 	str.w	r3, [r7, #140]	; 0x8c
   return(result);
 80069be:	f8d7 308c 	ldr.w	r3, [r7, #140]	; 0x8c
 80069c2:	2b00      	cmp	r3, #0
 80069c4:	d1d9      	bne.n	800697a <HAL_UART_IRQHandler+0x2b2>
          ATOMIC_CLEAR_BIT(huart->Instance->CR3, USART_CR3_EIE);
 80069c6:	687b      	ldr	r3, [r7, #4]
 80069c8:	681b      	ldr	r3, [r3, #0]
 80069ca:	3314      	adds	r3, #20
 80069cc:	677b      	str	r3, [r7, #116]	; 0x74
   __ASM volatile ("ldrex %0, %1" : "=r" (result) : "Q" (*addr) );
 80069ce:	6f7b      	ldr	r3, [r7, #116]	; 0x74
 80069d0:	e853 3f00 	ldrex	r3, [r3]
 80069d4:	673b      	str	r3, [r7, #112]	; 0x70
   return(result);
 80069d6:	6f3b      	ldr	r3, [r7, #112]	; 0x70
 80069d8:	f023 0301 	bic.w	r3, r3, #1
 80069dc:	f8c7 30b4 	str.w	r3, [r7, #180]	; 0xb4
 80069e0:	687b      	ldr	r3, [r7, #4]
 80069e2:	681b      	ldr	r3, [r3, #0]
 80069e4:	3314      	adds	r3, #20
 80069e6:	f8d7 20b4 	ldr.w	r2, [r7, #180]	; 0xb4
 80069ea:	f8c7 2080 	str.w	r2, [r7, #128]	; 0x80
 80069ee:	67fb      	str	r3, [r7, #124]	; 0x7c
   __ASM volatile ("strex %0, %2, %1" : "=&r" (result), "=Q" (*addr) : "r" (value) );
 80069f0:	6ff9      	ldr	r1, [r7, #124]	; 0x7c
 80069f2:	f8d7 2080 	ldr.w	r2, [r7, #128]	; 0x80
 80069f6:	e841 2300 	strex	r3, r2, [r1]
 80069fa:	67bb      	str	r3, [r7, #120]	; 0x78
   return(result);
 80069fc:	6fbb      	ldr	r3, [r7, #120]	; 0x78
 80069fe:	2b00      	cmp	r3, #0
 8006a00:	d1e1      	bne.n	80069c6 <HAL_UART_IRQHandler+0x2fe>

          /* Disable the DMA transfer for the receiver request by resetting the DMAR bit
             in the UART CR3 register */
          ATOMIC_CLEAR_BIT(huart->Instance->CR3, USART_CR3_DMAR);
 8006a02:	687b      	ldr	r3, [r7, #4]
 8006a04:	681b      	ldr	r3, [r3, #0]
 8006a06:	3314      	adds	r3, #20
 8006a08:	663b      	str	r3, [r7, #96]	; 0x60
   __ASM volatile ("ldrex %0, %1" : "=r" (result) : "Q" (*addr) );
 8006a0a:	6e3b      	ldr	r3, [r7, #96]	; 0x60
 8006a0c:	e853 3f00 	ldrex	r3, [r3]
 8006a10:	65fb      	str	r3, [r7, #92]	; 0x5c
   return(result);
 8006a12:	6dfb      	ldr	r3, [r7, #92]	; 0x5c
 8006a14:	f023 0340 	bic.w	r3, r3, #64	; 0x40
 8006a18:	f8c7 30b0 	str.w	r3, [r7, #176]	; 0xb0
 8006a1c:	687b      	ldr	r3, [r7, #4]
 8006a1e:	681b      	ldr	r3, [r3, #0]
 8006a20:	3314      	adds	r3, #20
 8006a22:	f8d7 20b0 	ldr.w	r2, [r7, #176]	; 0xb0
 8006a26:	66fa      	str	r2, [r7, #108]	; 0x6c
 8006a28:	66bb      	str	r3, [r7, #104]	; 0x68
   __ASM volatile ("strex %0, %2, %1" : "=&r" (result), "=Q" (*addr) : "r" (value) );
 8006a2a:	6eb9      	ldr	r1, [r7, #104]	; 0x68
 8006a2c:	6efa      	ldr	r2, [r7, #108]	; 0x6c
 8006a2e:	e841 2300 	strex	r3, r2, [r1]
 8006a32:	667b      	str	r3, [r7, #100]	; 0x64
   return(result);
 8006a34:	6e7b      	ldr	r3, [r7, #100]	; 0x64
 8006a36:	2b00      	cmp	r3, #0
 8006a38:	d1e3      	bne.n	8006a02 <HAL_UART_IRQHandler+0x33a>

          /* At end of Rx process, restore huart->RxState to Ready */
          huart->RxState = HAL_UART_STATE_READY;
 8006a3a:	687b      	ldr	r3, [r7, #4]
 8006a3c:	2220      	movs	r2, #32
 8006a3e:	f883 2042 	strb.w	r2, [r3, #66]	; 0x42
          huart->ReceptionType = HAL_UART_RECEPTION_STANDARD;
 8006a42:	687b      	ldr	r3, [r7, #4]
 8006a44:	2200      	movs	r2, #0
 8006a46:	631a      	str	r2, [r3, #48]	; 0x30

          ATOMIC_CLEAR_BIT(huart->Instance->CR1, USART_CR1_IDLEIE);
 8006a48:	687b      	ldr	r3, [r7, #4]
 8006a4a:	681b      	ldr	r3, [r3, #0]
 8006a4c:	330c      	adds	r3, #12
 8006a4e:	64fb      	str	r3, [r7, #76]	; 0x4c
   __ASM volatile ("ldrex %0, %1" : "=r" (result) : "Q" (*addr) );
 8006a50:	6cfb      	ldr	r3, [r7, #76]	; 0x4c
 8006a52:	e853 3f00 	ldrex	r3, [r3]
 8006a56:	64bb      	str	r3, [r7, #72]	; 0x48
   return(result);
 8006a58:	6cbb      	ldr	r3, [r7, #72]	; 0x48
 8006a5a:	f023 0310 	bic.w	r3, r3, #16
 8006a5e:	f8c7 30ac 	str.w	r3, [r7, #172]	; 0xac
 8006a62:	687b      	ldr	r3, [r7, #4]
 8006a64:	681b      	ldr	r3, [r3, #0]
 8006a66:	330c      	adds	r3, #12
 8006a68:	f8d7 20ac 	ldr.w	r2, [r7, #172]	; 0xac
 8006a6c:	65ba      	str	r2, [r7, #88]	; 0x58
 8006a6e:	657b      	str	r3, [r7, #84]	; 0x54
   __ASM volatile ("strex %0, %2, %1" : "=&r" (result), "=Q" (*addr) : "r" (value) );
 8006a70:	6d79      	ldr	r1, [r7, #84]	; 0x54
 8006a72:	6dba      	ldr	r2, [r7, #88]	; 0x58
 8006a74:	e841 2300 	strex	r3, r2, [r1]
 8006a78:	653b      	str	r3, [r7, #80]	; 0x50
   return(result);
 8006a7a:	6d3b      	ldr	r3, [r7, #80]	; 0x50
 8006a7c:	2b00      	cmp	r3, #0
 8006a7e:	d1e3      	bne.n	8006a48 <HAL_UART_IRQHandler+0x380>

          /* Last bytes received, so no need as the abort is immediate */
          (void)HAL_DMA_Abort(huart->hdmarx);
 8006a80:	687b      	ldr	r3, [r7, #4]
 8006a82:	6bdb      	ldr	r3, [r3, #60]	; 0x3c
 8006a84:	4618      	mov	r0, r3
 8006a86:	f7fb fef0 	bl	800286a <HAL_DMA_Abort>
        }

        /* Initialize type of RxEvent that correspond to RxEvent callback execution;
        In this case, Rx Event type is Idle Event */
        huart->RxEventType = HAL_UART_RXEVENT_IDLE;
 8006a8a:	687b      	ldr	r3, [r7, #4]
 8006a8c:	2202      	movs	r2, #2
 8006a8e:	635a      	str	r2, [r3, #52]	; 0x34
#if (USE_HAL_UART_REGISTER_CALLBACKS == 1)
        /*Call registered Rx Event callback*/
        huart->RxEventCallback(huart, (huart->RxXferSize - huart->RxXferCount));
#else
        /*Call legacy weak Rx Event callback*/
        HAL_UARTEx_RxEventCallback(huart, (huart->RxXferSize - huart->RxXferCount));
 8006a90:	687b      	ldr	r3, [r7, #4]
 8006a92:	8d9a      	ldrh	r2, [r3, #44]	; 0x2c
 8006a94:	687b      	ldr	r3, [r7, #4]
 8006a96:	8ddb      	ldrh	r3, [r3, #46]	; 0x2e
 8006a98:	b29b      	uxth	r3, r3
 8006a9a:	1ad3      	subs	r3, r2, r3
 8006a9c:	b29b      	uxth	r3, r3
 8006a9e:	4619      	mov	r1, r3
 8006aa0:	6878      	ldr	r0, [r7, #4]
 8006aa2:	f000 f8b7 	bl	8006c14 <HAL_UARTEx_RxEventCallback>
#endif /* USE_HAL_UART_REGISTER_CALLBACKS */
      }
      return;
 8006aa6:	e09b      	b.n	8006be0 <HAL_UART_IRQHandler+0x518>
 8006aa8:	08006e19 	.word	0x08006e19
    else
    {
      /* DMA mode not enabled */
      /* Check received length : If all expected data are received, do nothing.
         Otherwise, if at least one data has already been received, IDLE event is to be notified to user */
      uint16_t nb_rx_data = huart->RxXferSize - huart->RxXferCount;
 8006aac:	687b      	ldr	r3, [r7, #4]
 8006aae:	8d9a      	ldrh	r2, [r3, #44]	; 0x2c
 8006ab0:	687b      	ldr	r3, [r7, #4]
 8006ab2:	8ddb      	ldrh	r3, [r3, #46]	; 0x2e
 8006ab4:	b29b      	uxth	r3, r3
 8006ab6:	1ad3      	subs	r3, r2, r3
 8006ab8:	f8a7 30ce 	strh.w	r3, [r7, #206]	; 0xce
      if ((huart->RxXferCount > 0U)
 8006abc:	687b      	ldr	r3, [r7, #4]
 8006abe:	8ddb      	ldrh	r3, [r3, #46]	; 0x2e
 8006ac0:	b29b      	uxth	r3, r3
 8006ac2:	2b00      	cmp	r3, #0
 8006ac4:	f000 808e 	beq.w	8006be4 <HAL_UART_IRQHandler+0x51c>
          && (nb_rx_data > 0U))
 8006ac8:	f8b7 30ce 	ldrh.w	r3, [r7, #206]	; 0xce
 8006acc:	2b00      	cmp	r3, #0
 8006ace:	f000 8089 	beq.w	8006be4 <HAL_UART_IRQHandler+0x51c>
      {
        /* Disable the UART Parity Error Interrupt and RXNE interrupts */
        ATOMIC_CLEAR_BIT(huart->Instance->CR1, (USART_CR1_RXNEIE | USART_CR1_PEIE));
 8006ad2:	687b      	ldr	r3, [r7, #4]
 8006ad4:	681b      	ldr	r3, [r3, #0]
 8006ad6:	330c      	adds	r3, #12
 8006ad8:	63bb      	str	r3, [r7, #56]	; 0x38
   __ASM volatile ("ldrex %0, %1" : "=r" (result) : "Q" (*addr) );
 8006ada:	6bbb      	ldr	r3, [r7, #56]	; 0x38
 8006adc:	e853 3f00 	ldrex	r3, [r3]
 8006ae0:	637b      	str	r3, [r7, #52]	; 0x34
   return(result);
 8006ae2:	6b7b      	ldr	r3, [r7, #52]	; 0x34
 8006ae4:	f423 7390 	bic.w	r3, r3, #288	; 0x120
 8006ae8:	f8c7 30c8 	str.w	r3, [r7, #200]	; 0xc8
 8006aec:	687b      	ldr	r3, [r7, #4]
 8006aee:	681b      	ldr	r3, [r3, #0]
 8006af0:	330c      	adds	r3, #12
 8006af2:	f8d7 20c8 	ldr.w	r2, [r7, #200]	; 0xc8
 8006af6:	647a      	str	r2, [r7, #68]	; 0x44
 8006af8:	643b      	str	r3, [r7, #64]	; 0x40
   __ASM volatile ("strex %0, %2, %1" : "=&r" (result), "=Q" (*addr) : "r" (value) );
 8006afa:	6c39      	ldr	r1, [r7, #64]	; 0x40
 8006afc:	6c7a      	ldr	r2, [r7, #68]	; 0x44
 8006afe:	e841 2300 	strex	r3, r2, [r1]
 8006b02:	63fb      	str	r3, [r7, #60]	; 0x3c
   return(result);
 8006b04:	6bfb      	ldr	r3, [r7, #60]	; 0x3c
 8006b06:	2b00      	cmp	r3, #0
 8006b08:	d1e3      	bne.n	8006ad2 <HAL_UART_IRQHandler+0x40a>

        /* Disable the UART Error Interrupt: (Frame error, noise error, overrun error) */
        ATOMIC_CLEAR_BIT(huart->Instance->CR3, USART_CR3_EIE);
 8006b0a:	687b      	ldr	r3, [r7, #4]
 8006b0c:	681b      	ldr	r3, [r3, #0]
 8006b0e:	3314      	adds	r3, #20
 8006b10:	627b      	str	r3, [r7, #36]	; 0x24
   __ASM volatile ("ldrex %0, %1" : "=r" (result) : "Q" (*addr) );
 8006b12:	6a7b      	ldr	r3, [r7, #36]	; 0x24
 8006b14:	e853 3f00 	ldrex	r3, [r3]
 8006b18:	623b      	str	r3, [r7, #32]
   return(result);
 8006b1a:	6a3b      	ldr	r3, [r7, #32]
 8006b1c:	f023 0301 	bic.w	r3, r3, #1
 8006b20:	f8c7 30c4 	str.w	r3, [r7, #196]	; 0xc4
 8006b24:	687b      	ldr	r3, [r7, #4]
 8006b26:	681b      	ldr	r3, [r3, #0]
 8006b28:	3314      	adds	r3, #20
 8006b2a:	f8d7 20c4 	ldr.w	r2, [r7, #196]	; 0xc4
 8006b2e:	633a      	str	r2, [r7, #48]	; 0x30
 8006b30:	62fb      	str	r3, [r7, #44]	; 0x2c
   __ASM volatile ("strex %0, %2, %1" : "=&r" (result), "=Q" (*addr) : "r" (value) );
 8006b32:	6af9      	ldr	r1, [r7, #44]	; 0x2c
 8006b34:	6b3a      	ldr	r2, [r7, #48]	; 0x30
 8006b36:	e841 2300 	strex	r3, r2, [r1]
 8006b3a:	62bb      	str	r3, [r7, #40]	; 0x28
   return(result);
 8006b3c:	6abb      	ldr	r3, [r7, #40]	; 0x28
 8006b3e:	2b00      	cmp	r3, #0
 8006b40:	d1e3      	bne.n	8006b0a <HAL_UART_IRQHandler+0x442>

        /* Rx process is completed, restore huart->RxState to Ready */
        huart->RxState = HAL_UART_STATE_READY;
 8006b42:	687b      	ldr	r3, [r7, #4]
 8006b44:	2220      	movs	r2, #32
 8006b46:	f883 2042 	strb.w	r2, [r3, #66]	; 0x42
        huart->ReceptionType = HAL_UART_RECEPTION_STANDARD;
 8006b4a:	687b      	ldr	r3, [r7, #4]
 8006b4c:	2200      	movs	r2, #0
 8006b4e:	631a      	str	r2, [r3, #48]	; 0x30

        ATOMIC_CLEAR_BIT(huart->Instance->CR1, USART_CR1_IDLEIE);
 8006b50:	687b      	ldr	r3, [r7, #4]
 8006b52:	681b      	ldr	r3, [r3, #0]
 8006b54:	330c      	adds	r3, #12
 8006b56:	613b      	str	r3, [r7, #16]
   __ASM volatile ("ldrex %0, %1" : "=r" (result) : "Q" (*addr) );
 8006b58:	693b      	ldr	r3, [r7, #16]
 8006b5a:	e853 3f00 	ldrex	r3, [r3]
 8006b5e:	60fb      	str	r3, [r7, #12]
   return(result);
 8006b60:	68fb      	ldr	r3, [r7, #12]
 8006b62:	f023 0310 	bic.w	r3, r3, #16
 8006b66:	f8c7 30c0 	str.w	r3, [r7, #192]	; 0xc0
 8006b6a:	687b      	ldr	r3, [r7, #4]
 8006b6c:	681b      	ldr	r3, [r3, #0]
 8006b6e:	330c      	adds	r3, #12
 8006b70:	f8d7 20c0 	ldr.w	r2, [r7, #192]	; 0xc0
 8006b74:	61fa      	str	r2, [r7, #28]
 8006b76:	61bb      	str	r3, [r7, #24]
   __ASM volatile ("strex %0, %2, %1" : "=&r" (result), "=Q" (*addr) : "r" (value) );
 8006b78:	69b9      	ldr	r1, [r7, #24]
 8006b7a:	69fa      	ldr	r2, [r7, #28]
 8006b7c:	e841 2300 	strex	r3, r2, [r1]
 8006b80:	617b      	str	r3, [r7, #20]
   return(result);
 8006b82:	697b      	ldr	r3, [r7, #20]
 8006b84:	2b00      	cmp	r3, #0
 8006b86:	d1e3      	bne.n	8006b50 <HAL_UART_IRQHandler+0x488>

        /* Initialize type of RxEvent that correspond to RxEvent callback execution;
           In this case, Rx Event type is Idle Event */
        huart->RxEventType = HAL_UART_RXEVENT_IDLE;
 8006b88:	687b      	ldr	r3, [r7, #4]
 8006b8a:	2202      	movs	r2, #2
 8006b8c:	635a      	str	r2, [r3, #52]	; 0x34
#if (USE_HAL_UART_REGISTER_CALLBACKS == 1)
        /*Call registered Rx complete callback*/
        huart->RxEventCallback(huart, nb_rx_data);
#else
        /*Call legacy weak Rx Event callback*/
        HAL_UARTEx_RxEventCallback(huart, nb_rx_data);
 8006b8e:	f8b7 30ce 	ldrh.w	r3, [r7, #206]	; 0xce
 8006b92:	4619      	mov	r1, r3
 8006b94:	6878      	ldr	r0, [r7, #4]
 8006b96:	f000 f83d 	bl	8006c14 <HAL_UARTEx_RxEventCallback>
#endif /* USE_HAL_UART_REGISTER_CALLBACKS */
      }
      return;
 8006b9a:	e023      	b.n	8006be4 <HAL_UART_IRQHandler+0x51c>
    }
  }

  /* UART in mode Transmitter ------------------------------------------------*/
  if (((isrflags & USART_SR_TXE) != RESET) && ((cr1its & USART_CR1_TXEIE) != RESET))
 8006b9c:	f8d7 30e4 	ldr.w	r3, [r7, #228]	; 0xe4
 8006ba0:	f003 0380 	and.w	r3, r3, #128	; 0x80
 8006ba4:	2b00      	cmp	r3, #0
 8006ba6:	d009      	beq.n	8006bbc <HAL_UART_IRQHandler+0x4f4>
 8006ba8:	f8d7 30e0 	ldr.w	r3, [r7, #224]	; 0xe0
 8006bac:	f003 0380 	and.w	r3, r3, #128	; 0x80
 8006bb0:	2b00      	cmp	r3, #0
 8006bb2:	d003      	beq.n	8006bbc <HAL_UART_IRQHandler+0x4f4>
  {
    UART_Transmit_IT(huart);
 8006bb4:	6878      	ldr	r0, [r7, #4]
 8006bb6:	f000 f943 	bl	8006e40 <UART_Transmit_IT>
    return;
 8006bba:	e014      	b.n	8006be6 <HAL_UART_IRQHandler+0x51e>
  }

  /* UART in mode Transmitter end --------------------------------------------*/
  if (((isrflags & USART_SR_TC) != RESET) && ((cr1its & USART_CR1_TCIE) != RESET))
 8006bbc:	f8d7 30e4 	ldr.w	r3, [r7, #228]	; 0xe4
 8006bc0:	f003 0340 	and.w	r3, r3, #64	; 0x40
 8006bc4:	2b00      	cmp	r3, #0
 8006bc6:	d00e      	beq.n	8006be6 <HAL_UART_IRQHandler+0x51e>
 8006bc8:	f8d7 30e0 	ldr.w	r3, [r7, #224]	; 0xe0
 8006bcc:	f003 0340 	and.w	r3, r3, #64	; 0x40
 8006bd0:	2b00      	cmp	r3, #0
 8006bd2:	d008      	beq.n	8006be6 <HAL_UART_IRQHandler+0x51e>
  {
    UART_EndTransmit_IT(huart);
 8006bd4:	6878      	ldr	r0, [r7, #4]
 8006bd6:	f000 f983 	bl	8006ee0 <UART_EndTransmit_IT>
    return;
 8006bda:	e004      	b.n	8006be6 <HAL_UART_IRQHandler+0x51e>
    return;
 8006bdc:	bf00      	nop
 8006bde:	e002      	b.n	8006be6 <HAL_UART_IRQHandler+0x51e>
      return;
 8006be0:	bf00      	nop
 8006be2:	e000      	b.n	8006be6 <HAL_UART_IRQHandler+0x51e>
      return;
 8006be4:	bf00      	nop
  }
}
 8006be6:	37e8      	adds	r7, #232	; 0xe8
 8006be8:	46bd      	mov	sp, r7
 8006bea:	bd80      	pop	{r7, pc}

08006bec <HAL_UART_TxCpltCallback>:
  * @param  huart  Pointer to a UART_HandleTypeDef structure that contains
  *                the configuration information for the specified UART module.
  * @retval None
  */
__weak void HAL_UART_TxCpltCallback(UART_HandleTypeDef *huart)
{
 8006bec:	b480      	push	{r7}
 8006bee:	b083      	sub	sp, #12
 8006bf0:	af00      	add	r7, sp, #0
 8006bf2:	6078      	str	r0, [r7, #4]
  /* Prevent unused argument(s) compilation warning */
  UNUSED(huart);
  /* NOTE: This function should not be modified, when the callback is needed,
           the HAL_UART_TxCpltCallback could be implemented in the user file
   */
}
 8006bf4:	bf00      	nop
 8006bf6:	370c      	adds	r7, #12
 8006bf8:	46bd      	mov	sp, r7
 8006bfa:	f85d 7b04 	ldr.w	r7, [sp], #4
 8006bfe:	4770      	bx	lr

08006c00 <HAL_UART_ErrorCallback>:
  * @param  huart  Pointer to a UART_HandleTypeDef structure that contains
  *                the configuration information for the specified UART module.
  * @retval None
  */
__weak void HAL_UART_ErrorCallback(UART_HandleTypeDef *huart)
{
 8006c00:	b480      	push	{r7}
 8006c02:	b083      	sub	sp, #12
 8006c04:	af00      	add	r7, sp, #0
 8006c06:	6078      	str	r0, [r7, #4]
  /* Prevent unused argument(s) compilation warning */
  UNUSED(huart);
  /* NOTE: This function should not be modified, when the callback is needed,
           the HAL_UART_ErrorCallback could be implemented in the user file
   */
}
 8006c08:	bf00      	nop
 8006c0a:	370c      	adds	r7, #12
 8006c0c:	46bd      	mov	sp, r7
 8006c0e:	f85d 7b04 	ldr.w	r7, [sp], #4
 8006c12:	4770      	bx	lr

08006c14 <HAL_UARTEx_RxEventCallback>:
  * @param  Size  Number of data available in application reception buffer (indicates a position in
  *               reception buffer until which, data are available)
  * @retval None
  */
__weak void HAL_UARTEx_RxEventCallback(UART_HandleTypeDef *huart, uint16_t Size)
{
 8006c14:	b480      	push	{r7}
 8006c16:	b083      	sub	sp, #12
 8006c18:	af00      	add	r7, sp, #0
 8006c1a:	6078      	str	r0, [r7, #4]
 8006c1c:	460b      	mov	r3, r1
 8006c1e:	807b      	strh	r3, [r7, #2]
  UNUSED(Size);

  /* NOTE : This function should not be modified, when the callback is needed,
            the HAL_UARTEx_RxEventCallback can be implemented in the user file.
   */
}
 8006c20:	bf00      	nop
 8006c22:	370c      	adds	r7, #12
 8006c24:	46bd      	mov	sp, r7
 8006c26:	f85d 7b04 	ldr.w	r7, [sp], #4
 8006c2a:	4770      	bx	lr

08006c2c <UART_WaitOnFlagUntilTimeout>:
  * @param  Timeout Timeout duration
  * @retval HAL status
  */
static HAL_StatusTypeDef UART_WaitOnFlagUntilTimeout(UART_HandleTypeDef *huart, uint32_t Flag, FlagStatus Status,
                                                     uint32_t Tickstart, uint32_t Timeout)
{
 8006c2c:	b580      	push	{r7, lr}
 8006c2e:	b086      	sub	sp, #24
 8006c30:	af00      	add	r7, sp, #0
 8006c32:	60f8      	str	r0, [r7, #12]
 8006c34:	60b9      	str	r1, [r7, #8]
 8006c36:	603b      	str	r3, [r7, #0]
 8006c38:	4613      	mov	r3, r2
 8006c3a:	71fb      	strb	r3, [r7, #7]
  /* Wait until flag is set */
  while ((__HAL_UART_GET_FLAG(huart, Flag) ? SET : RESET) == Status)
 8006c3c:	e03b      	b.n	8006cb6 <UART_WaitOnFlagUntilTimeout+0x8a>
  {
    /* Check for the Timeout */
    if (Timeout != HAL_MAX_DELAY)
 8006c3e:	6a3b      	ldr	r3, [r7, #32]
 8006c40:	f1b3 3fff 	cmp.w	r3, #4294967295	; 0xffffffff
 8006c44:	d037      	beq.n	8006cb6 <UART_WaitOnFlagUntilTimeout+0x8a>
    {
      if (((HAL_GetTick() - Tickstart) > Timeout) || (Timeout == 0U))
 8006c46:	f7fb fccf 	bl	80025e8 <HAL_GetTick>
 8006c4a:	4602      	mov	r2, r0
 8006c4c:	683b      	ldr	r3, [r7, #0]
 8006c4e:	1ad3      	subs	r3, r2, r3
 8006c50:	6a3a      	ldr	r2, [r7, #32]
 8006c52:	429a      	cmp	r2, r3
 8006c54:	d302      	bcc.n	8006c5c <UART_WaitOnFlagUntilTimeout+0x30>
 8006c56:	6a3b      	ldr	r3, [r7, #32]
 8006c58:	2b00      	cmp	r3, #0
 8006c5a:	d101      	bne.n	8006c60 <UART_WaitOnFlagUntilTimeout+0x34>
      {

        return HAL_TIMEOUT;
 8006c5c:	2303      	movs	r3, #3
 8006c5e:	e03a      	b.n	8006cd6 <UART_WaitOnFlagUntilTimeout+0xaa>
      }

      if ((READ_BIT(huart->Instance->CR1, USART_CR1_RE) != 0U) && (Flag != UART_FLAG_TXE) && (Flag != UART_FLAG_TC))
 8006c60:	68fb      	ldr	r3, [r7, #12]
 8006c62:	681b      	ldr	r3, [r3, #0]
 8006c64:	68db      	ldr	r3, [r3, #12]
 8006c66:	f003 0304 	and.w	r3, r3, #4
 8006c6a:	2b00      	cmp	r3, #0
 8006c6c:	d023      	beq.n	8006cb6 <UART_WaitOnFlagUntilTimeout+0x8a>
 8006c6e:	68bb      	ldr	r3, [r7, #8]
 8006c70:	2b80      	cmp	r3, #128	; 0x80
 8006c72:	d020      	beq.n	8006cb6 <UART_WaitOnFlagUntilTimeout+0x8a>
 8006c74:	68bb      	ldr	r3, [r7, #8]
 8006c76:	2b40      	cmp	r3, #64	; 0x40
 8006c78:	d01d      	beq.n	8006cb6 <UART_WaitOnFlagUntilTimeout+0x8a>
      {
        if (__HAL_UART_GET_FLAG(huart, UART_FLAG_ORE) == SET)
 8006c7a:	68fb      	ldr	r3, [r7, #12]
 8006c7c:	681b      	ldr	r3, [r3, #0]
 8006c7e:	681b      	ldr	r3, [r3, #0]
 8006c80:	f003 0308 	and.w	r3, r3, #8
 8006c84:	2b08      	cmp	r3, #8
 8006c86:	d116      	bne.n	8006cb6 <UART_WaitOnFlagUntilTimeout+0x8a>
        {
          /* Clear Overrun Error flag*/
          __HAL_UART_CLEAR_OREFLAG(huart);
 8006c88:	2300      	movs	r3, #0
 8006c8a:	617b      	str	r3, [r7, #20]
 8006c8c:	68fb      	ldr	r3, [r7, #12]
 8006c8e:	681b      	ldr	r3, [r3, #0]
 8006c90:	681b      	ldr	r3, [r3, #0]
 8006c92:	617b      	str	r3, [r7, #20]
 8006c94:	68fb      	ldr	r3, [r7, #12]
 8006c96:	681b      	ldr	r3, [r3, #0]
 8006c98:	685b      	ldr	r3, [r3, #4]
 8006c9a:	617b      	str	r3, [r7, #20]
 8006c9c:	697b      	ldr	r3, [r7, #20]

          /* Blocking error : transfer is aborted
          Set the UART state ready to be able to start again the process,
          Disable Rx Interrupts if ongoing */
          UART_EndRxTransfer(huart);
 8006c9e:	68f8      	ldr	r0, [r7, #12]
 8006ca0:	f000 f857 	bl	8006d52 <UART_EndRxTransfer>

          huart->ErrorCode = HAL_UART_ERROR_ORE;
 8006ca4:	68fb      	ldr	r3, [r7, #12]
 8006ca6:	2208      	movs	r2, #8
 8006ca8:	645a      	str	r2, [r3, #68]	; 0x44

          /* Process Unlocked */
          __HAL_UNLOCK(huart);
 8006caa:	68fb      	ldr	r3, [r7, #12]
 8006cac:	2200      	movs	r2, #0
 8006cae:	f883 2040 	strb.w	r2, [r3, #64]	; 0x40

          return HAL_ERROR;
 8006cb2:	2301      	movs	r3, #1
 8006cb4:	e00f      	b.n	8006cd6 <UART_WaitOnFlagUntilTimeout+0xaa>
  while ((__HAL_UART_GET_FLAG(huart, Flag) ? SET : RESET) == Status)
 8006cb6:	68fb      	ldr	r3, [r7, #12]
 8006cb8:	681b      	ldr	r3, [r3, #0]
 8006cba:	681a      	ldr	r2, [r3, #0]
 8006cbc:	68bb      	ldr	r3, [r7, #8]
 8006cbe:	4013      	ands	r3, r2
 8006cc0:	68ba      	ldr	r2, [r7, #8]
 8006cc2:	429a      	cmp	r2, r3
 8006cc4:	bf0c      	ite	eq
 8006cc6:	2301      	moveq	r3, #1
 8006cc8:	2300      	movne	r3, #0
 8006cca:	b2db      	uxtb	r3, r3
 8006ccc:	461a      	mov	r2, r3
 8006cce:	79fb      	ldrb	r3, [r7, #7]
 8006cd0:	429a      	cmp	r2, r3
 8006cd2:	d0b4      	beq.n	8006c3e <UART_WaitOnFlagUntilTimeout+0x12>
        }
      }
    }
  }
  return HAL_OK;
 8006cd4:	2300      	movs	r3, #0
}
 8006cd6:	4618      	mov	r0, r3
 8006cd8:	3718      	adds	r7, #24
 8006cda:	46bd      	mov	sp, r7
 8006cdc:	bd80      	pop	{r7, pc}

08006cde <UART_Start_Receive_IT>:
  * @param  pData Pointer to data buffer (u8 or u16 data elements).
  * @param  Size  Amount of data elements (u8 or u16) to be received.
  * @retval HAL status
  */
HAL_StatusTypeDef UART_Start_Receive_IT(UART_HandleTypeDef *huart, uint8_t *pData, uint16_t Size)
{
 8006cde:	b480      	push	{r7}
 8006ce0:	b085      	sub	sp, #20
 8006ce2:	af00      	add	r7, sp, #0
 8006ce4:	60f8      	str	r0, [r7, #12]
 8006ce6:	60b9      	str	r1, [r7, #8]
 8006ce8:	4613      	mov	r3, r2
 8006cea:	80fb      	strh	r3, [r7, #6]
  huart->pRxBuffPtr = pData;
 8006cec:	68fb      	ldr	r3, [r7, #12]
 8006cee:	68ba      	ldr	r2, [r7, #8]
 8006cf0:	629a      	str	r2, [r3, #40]	; 0x28
  huart->RxXferSize = Size;
 8006cf2:	68fb      	ldr	r3, [r7, #12]
 8006cf4:	88fa      	ldrh	r2, [r7, #6]
 8006cf6:	859a      	strh	r2, [r3, #44]	; 0x2c
  huart->RxXferCount = Size;
 8006cf8:	68fb      	ldr	r3, [r7, #12]
 8006cfa:	88fa      	ldrh	r2, [r7, #6]
 8006cfc:	85da      	strh	r2, [r3, #46]	; 0x2e

  huart->ErrorCode = HAL_UART_ERROR_NONE;
 8006cfe:	68fb      	ldr	r3, [r7, #12]
 8006d00:	2200      	movs	r2, #0
 8006d02:	645a      	str	r2, [r3, #68]	; 0x44
  huart->RxState = HAL_UART_STATE_BUSY_RX;
 8006d04:	68fb      	ldr	r3, [r7, #12]
 8006d06:	2222      	movs	r2, #34	; 0x22
 8006d08:	f883 2042 	strb.w	r2, [r3, #66]	; 0x42

  if (huart->Init.Parity != UART_PARITY_NONE)
 8006d0c:	68fb      	ldr	r3, [r7, #12]
 8006d0e:	691b      	ldr	r3, [r3, #16]
 8006d10:	2b00      	cmp	r3, #0
 8006d12:	d007      	beq.n	8006d24 <UART_Start_Receive_IT+0x46>
  {
    /* Enable the UART Parity Error Interrupt */
    __HAL_UART_ENABLE_IT(huart, UART_IT_PE);
 8006d14:	68fb      	ldr	r3, [r7, #12]
 8006d16:	681b      	ldr	r3, [r3, #0]
 8006d18:	68da      	ldr	r2, [r3, #12]
 8006d1a:	68fb      	ldr	r3, [r7, #12]
 8006d1c:	681b      	ldr	r3, [r3, #0]
 8006d1e:	f442 7280 	orr.w	r2, r2, #256	; 0x100
 8006d22:	60da      	str	r2, [r3, #12]
  }

  /* Enable the UART Error Interrupt: (Frame error, noise error, overrun error) */
  __HAL_UART_ENABLE_IT(huart, UART_IT_ERR);
 8006d24:	68fb      	ldr	r3, [r7, #12]
 8006d26:	681b      	ldr	r3, [r3, #0]
 8006d28:	695a      	ldr	r2, [r3, #20]
 8006d2a:	68fb      	ldr	r3, [r7, #12]
 8006d2c:	681b      	ldr	r3, [r3, #0]
 8006d2e:	f042 0201 	orr.w	r2, r2, #1
 8006d32:	615a      	str	r2, [r3, #20]

  /* Enable the UART Data Register not empty Interrupt */
  __HAL_UART_ENABLE_IT(huart, UART_IT_RXNE);
 8006d34:	68fb      	ldr	r3, [r7, #12]
 8006d36:	681b      	ldr	r3, [r3, #0]
 8006d38:	68da      	ldr	r2, [r3, #12]
 8006d3a:	68fb      	ldr	r3, [r7, #12]
 8006d3c:	681b      	ldr	r3, [r3, #0]
 8006d3e:	f042 0220 	orr.w	r2, r2, #32
 8006d42:	60da      	str	r2, [r3, #12]

  return HAL_OK;
 8006d44:	2300      	movs	r3, #0
}
 8006d46:	4618      	mov	r0, r3
 8006d48:	3714      	adds	r7, #20
 8006d4a:	46bd      	mov	sp, r7
 8006d4c:	f85d 7b04 	ldr.w	r7, [sp], #4
 8006d50:	4770      	bx	lr

08006d52 <UART_EndRxTransfer>:
  * @brief  End ongoing Rx transfer on UART peripheral (following error detection or Reception completion).
  * @param  huart UART handle.
  * @retval None
  */
static void UART_EndRxTransfer(UART_HandleTypeDef *huart)
{
 8006d52:	b480      	push	{r7}
 8006d54:	b095      	sub	sp, #84	; 0x54
 8006d56:	af00      	add	r7, sp, #0
 8006d58:	6078      	str	r0, [r7, #4]
  /* Disable RXNE, PE and ERR (Frame error, noise error, overrun error) interrupts */
  ATOMIC_CLEAR_BIT(huart->Instance->CR1, (USART_CR1_RXNEIE | USART_CR1_PEIE));
 8006d5a:	687b      	ldr	r3, [r7, #4]
 8006d5c:	681b      	ldr	r3, [r3, #0]
 8006d5e:	330c      	adds	r3, #12
 8006d60:	637b      	str	r3, [r7, #52]	; 0x34
   __ASM volatile ("ldrex %0, %1" : "=r" (result) : "Q" (*addr) );
 8006d62:	6b7b      	ldr	r3, [r7, #52]	; 0x34
 8006d64:	e853 3f00 	ldrex	r3, [r3]
 8006d68:	633b      	str	r3, [r7, #48]	; 0x30
   return(result);
 8006d6a:	6b3b      	ldr	r3, [r7, #48]	; 0x30
 8006d6c:	f423 7390 	bic.w	r3, r3, #288	; 0x120
 8006d70:	64fb      	str	r3, [r7, #76]	; 0x4c
 8006d72:	687b      	ldr	r3, [r7, #4]
 8006d74:	681b      	ldr	r3, [r3, #0]
 8006d76:	330c      	adds	r3, #12
 8006d78:	6cfa      	ldr	r2, [r7, #76]	; 0x4c
 8006d7a:	643a      	str	r2, [r7, #64]	; 0x40
 8006d7c:	63fb      	str	r3, [r7, #60]	; 0x3c
   __ASM volatile ("strex %0, %2, %1" : "=&r" (result), "=Q" (*addr) : "r" (value) );
 8006d7e:	6bf9      	ldr	r1, [r7, #60]	; 0x3c
 8006d80:	6c3a      	ldr	r2, [r7, #64]	; 0x40
 8006d82:	e841 2300 	strex	r3, r2, [r1]
 8006d86:	63bb      	str	r3, [r7, #56]	; 0x38
   return(result);
 8006d88:	6bbb      	ldr	r3, [r7, #56]	; 0x38
 8006d8a:	2b00      	cmp	r3, #0
 8006d8c:	d1e5      	bne.n	8006d5a <UART_EndRxTransfer+0x8>
  ATOMIC_CLEAR_BIT(huart->Instance->CR3, USART_CR3_EIE);
 8006d8e:	687b      	ldr	r3, [r7, #4]
 8006d90:	681b      	ldr	r3, [r3, #0]
 8006d92:	3314      	adds	r3, #20
 8006d94:	623b      	str	r3, [r7, #32]
   __ASM volatile ("ldrex %0, %1" : "=r" (result) : "Q" (*addr) );
 8006d96:	6a3b      	ldr	r3, [r7, #32]
 8006d98:	e853 3f00 	ldrex	r3, [r3]
 8006d9c:	61fb      	str	r3, [r7, #28]
   return(result);
 8006d9e:	69fb      	ldr	r3, [r7, #28]
 8006da0:	f023 0301 	bic.w	r3, r3, #1
 8006da4:	64bb      	str	r3, [r7, #72]	; 0x48
 8006da6:	687b      	ldr	r3, [r7, #4]
 8006da8:	681b      	ldr	r3, [r3, #0]
 8006daa:	3314      	adds	r3, #20
 8006dac:	6cba      	ldr	r2, [r7, #72]	; 0x48
 8006dae:	62fa      	str	r2, [r7, #44]	; 0x2c
 8006db0:	62bb      	str	r3, [r7, #40]	; 0x28
   __ASM volatile ("strex %0, %2, %1" : "=&r" (result), "=Q" (*addr) : "r" (value) );
 8006db2:	6ab9      	ldr	r1, [r7, #40]	; 0x28
 8006db4:	6afa      	ldr	r2, [r7, #44]	; 0x2c
 8006db6:	e841 2300 	strex	r3, r2, [r1]
 8006dba:	627b      	str	r3, [r7, #36]	; 0x24
   return(result);
 8006dbc:	6a7b      	ldr	r3, [r7, #36]	; 0x24
 8006dbe:	2b00      	cmp	r3, #0
 8006dc0:	d1e5      	bne.n	8006d8e <UART_EndRxTransfer+0x3c>

  /* In case of reception waiting for IDLE event, disable also the IDLE IE interrupt source */
  if (huart->ReceptionType == HAL_UART_RECEPTION_TOIDLE)
 8006dc2:	687b      	ldr	r3, [r7, #4]
 8006dc4:	6b1b      	ldr	r3, [r3, #48]	; 0x30
 8006dc6:	2b01      	cmp	r3, #1
 8006dc8:	d119      	bne.n	8006dfe <UART_EndRxTransfer+0xac>
  {
    ATOMIC_CLEAR_BIT(huart->Instance->CR1, USART_CR1_IDLEIE);
 8006dca:	687b      	ldr	r3, [r7, #4]
 8006dcc:	681b      	ldr	r3, [r3, #0]
 8006dce:	330c      	adds	r3, #12
 8006dd0:	60fb      	str	r3, [r7, #12]
   __ASM volatile ("ldrex %0, %1" : "=r" (result) : "Q" (*addr) );
 8006dd2:	68fb      	ldr	r3, [r7, #12]
 8006dd4:	e853 3f00 	ldrex	r3, [r3]
 8006dd8:	60bb      	str	r3, [r7, #8]
   return(result);
 8006dda:	68bb      	ldr	r3, [r7, #8]
 8006ddc:	f023 0310 	bic.w	r3, r3, #16
 8006de0:	647b      	str	r3, [r7, #68]	; 0x44
 8006de2:	687b      	ldr	r3, [r7, #4]
 8006de4:	681b      	ldr	r3, [r3, #0]
 8006de6:	330c      	adds	r3, #12
 8006de8:	6c7a      	ldr	r2, [r7, #68]	; 0x44
 8006dea:	61ba      	str	r2, [r7, #24]
 8006dec:	617b      	str	r3, [r7, #20]
   __ASM volatile ("strex %0, %2, %1" : "=&r" (result), "=Q" (*addr) : "r" (value) );
 8006dee:	6979      	ldr	r1, [r7, #20]
 8006df0:	69ba      	ldr	r2, [r7, #24]
 8006df2:	e841 2300 	strex	r3, r2, [r1]
 8006df6:	613b      	str	r3, [r7, #16]
   return(result);
 8006df8:	693b      	ldr	r3, [r7, #16]
 8006dfa:	2b00      	cmp	r3, #0
 8006dfc:	d1e5      	bne.n	8006dca <UART_EndRxTransfer+0x78>
  }

  /* At end of Rx process, restore huart->RxState to Ready */
  huart->RxState = HAL_UART_STATE_READY;
 8006dfe:	687b      	ldr	r3, [r7, #4]
 8006e00:	2220      	movs	r2, #32
 8006e02:	f883 2042 	strb.w	r2, [r3, #66]	; 0x42
  huart->ReceptionType = HAL_UART_RECEPTION_STANDARD;
 8006e06:	687b      	ldr	r3, [r7, #4]
 8006e08:	2200      	movs	r2, #0
 8006e0a:	631a      	str	r2, [r3, #48]	; 0x30
}
 8006e0c:	bf00      	nop
 8006e0e:	3754      	adds	r7, #84	; 0x54
 8006e10:	46bd      	mov	sp, r7
 8006e12:	f85d 7b04 	ldr.w	r7, [sp], #4
 8006e16:	4770      	bx	lr

08006e18 <UART_DMAAbortOnError>:
  * @param  hdma  Pointer to a DMA_HandleTypeDef structure that contains
  *               the configuration information for the specified DMA module.
  * @retval None
  */
static void UART_DMAAbortOnError(DMA_HandleTypeDef *hdma)
{
 8006e18:	b580      	push	{r7, lr}
 8006e1a:	b084      	sub	sp, #16
 8006e1c:	af00      	add	r7, sp, #0
 8006e1e:	6078      	str	r0, [r7, #4]
  UART_HandleTypeDef *huart = (UART_HandleTypeDef *)((DMA_HandleTypeDef *)hdma)->Parent;
 8006e20:	687b      	ldr	r3, [r7, #4]
 8006e22:	6b9b      	ldr	r3, [r3, #56]	; 0x38
 8006e24:	60fb      	str	r3, [r7, #12]
  huart->RxXferCount = 0x00U;
 8006e26:	68fb      	ldr	r3, [r7, #12]
 8006e28:	2200      	movs	r2, #0
 8006e2a:	85da      	strh	r2, [r3, #46]	; 0x2e
  huart->TxXferCount = 0x00U;
 8006e2c:	68fb      	ldr	r3, [r7, #12]
 8006e2e:	2200      	movs	r2, #0
 8006e30:	84da      	strh	r2, [r3, #38]	; 0x26
#if (USE_HAL_UART_REGISTER_CALLBACKS == 1)
  /*Call registered error callback*/
  huart->ErrorCallback(huart);
#else
  /*Call legacy weak error callback*/
  HAL_UART_ErrorCallback(huart);
 8006e32:	68f8      	ldr	r0, [r7, #12]
 8006e34:	f7ff fee4 	bl	8006c00 <HAL_UART_ErrorCallback>
#endif /* USE_HAL_UART_REGISTER_CALLBACKS */
}
 8006e38:	bf00      	nop
 8006e3a:	3710      	adds	r7, #16
 8006e3c:	46bd      	mov	sp, r7
 8006e3e:	bd80      	pop	{r7, pc}

08006e40 <UART_Transmit_IT>:
  * @param  huart  Pointer to a UART_HandleTypeDef structure that contains
  *                the configuration information for the specified UART module.
  * @retval HAL status
  */
static HAL_StatusTypeDef UART_Transmit_IT(UART_HandleTypeDef *huart)
{
 8006e40:	b480      	push	{r7}
 8006e42:	b085      	sub	sp, #20
 8006e44:	af00      	add	r7, sp, #0
 8006e46:	6078      	str	r0, [r7, #4]
  const uint16_t *tmp;

  /* Check that a Tx process is ongoing */
  if (huart->gState == HAL_UART_STATE_BUSY_TX)
 8006e48:	687b      	ldr	r3, [r7, #4]
 8006e4a:	f893 3041 	ldrb.w	r3, [r3, #65]	; 0x41
 8006e4e:	b2db      	uxtb	r3, r3
 8006e50:	2b21      	cmp	r3, #33	; 0x21
 8006e52:	d13e      	bne.n	8006ed2 <UART_Transmit_IT+0x92>
  {
    if ((huart->Init.WordLength == UART_WORDLENGTH_9B) && (huart->Init.Parity == UART_PARITY_NONE))
 8006e54:	687b      	ldr	r3, [r7, #4]
 8006e56:	689b      	ldr	r3, [r3, #8]
 8006e58:	f5b3 5f80 	cmp.w	r3, #4096	; 0x1000
 8006e5c:	d114      	bne.n	8006e88 <UART_Transmit_IT+0x48>
 8006e5e:	687b      	ldr	r3, [r7, #4]
 8006e60:	691b      	ldr	r3, [r3, #16]
 8006e62:	2b00      	cmp	r3, #0
 8006e64:	d110      	bne.n	8006e88 <UART_Transmit_IT+0x48>
    {
      tmp = (const uint16_t *) huart->pTxBuffPtr;
 8006e66:	687b      	ldr	r3, [r7, #4]
 8006e68:	6a1b      	ldr	r3, [r3, #32]
 8006e6a:	60fb      	str	r3, [r7, #12]
      huart->Instance->DR = (uint16_t)(*tmp & (uint16_t)0x01FF);
 8006e6c:	68fb      	ldr	r3, [r7, #12]
 8006e6e:	881b      	ldrh	r3, [r3, #0]
 8006e70:	461a      	mov	r2, r3
 8006e72:	687b      	ldr	r3, [r7, #4]
 8006e74:	681b      	ldr	r3, [r3, #0]
 8006e76:	f3c2 0208 	ubfx	r2, r2, #0, #9
 8006e7a:	605a      	str	r2, [r3, #4]
      huart->pTxBuffPtr += 2U;
 8006e7c:	687b      	ldr	r3, [r7, #4]
 8006e7e:	6a1b      	ldr	r3, [r3, #32]
 8006e80:	1c9a      	adds	r2, r3, #2
 8006e82:	687b      	ldr	r3, [r7, #4]
 8006e84:	621a      	str	r2, [r3, #32]
 8006e86:	e008      	b.n	8006e9a <UART_Transmit_IT+0x5a>
    }
    else
    {
      huart->Instance->DR = (uint8_t)(*huart->pTxBuffPtr++ & (uint8_t)0x00FF);
 8006e88:	687b      	ldr	r3, [r7, #4]
 8006e8a:	6a1b      	ldr	r3, [r3, #32]
 8006e8c:	1c59      	adds	r1, r3, #1
 8006e8e:	687a      	ldr	r2, [r7, #4]
 8006e90:	6211      	str	r1, [r2, #32]
 8006e92:	781a      	ldrb	r2, [r3, #0]
 8006e94:	687b      	ldr	r3, [r7, #4]
 8006e96:	681b      	ldr	r3, [r3, #0]
 8006e98:	605a      	str	r2, [r3, #4]
    }

    if (--huart->TxXferCount == 0U)
 8006e9a:	687b      	ldr	r3, [r7, #4]
 8006e9c:	8cdb      	ldrh	r3, [r3, #38]	; 0x26
 8006e9e:	b29b      	uxth	r3, r3
 8006ea0:	3b01      	subs	r3, #1
 8006ea2:	b29b      	uxth	r3, r3
 8006ea4:	687a      	ldr	r2, [r7, #4]
 8006ea6:	4619      	mov	r1, r3
 8006ea8:	84d1      	strh	r1, [r2, #38]	; 0x26
 8006eaa:	2b00      	cmp	r3, #0
 8006eac:	d10f      	bne.n	8006ece <UART_Transmit_IT+0x8e>
    {
      /* Disable the UART Transmit Data Register Empty Interrupt */
      __HAL_UART_DISABLE_IT(huart, UART_IT_TXE);
 8006eae:	687b      	ldr	r3, [r7, #4]
 8006eb0:	681b      	ldr	r3, [r3, #0]
 8006eb2:	68da      	ldr	r2, [r3, #12]
 8006eb4:	687b      	ldr	r3, [r7, #4]
 8006eb6:	681b      	ldr	r3, [r3, #0]
 8006eb8:	f022 0280 	bic.w	r2, r2, #128	; 0x80
 8006ebc:	60da      	str	r2, [r3, #12]

      /* Enable the UART Transmit Complete Interrupt */
      __HAL_UART_ENABLE_IT(huart, UART_IT_TC);
 8006ebe:	687b      	ldr	r3, [r7, #4]
 8006ec0:	681b      	ldr	r3, [r3, #0]
 8006ec2:	68da      	ldr	r2, [r3, #12]
 8006ec4:	687b      	ldr	r3, [r7, #4]
 8006ec6:	681b      	ldr	r3, [r3, #0]
 8006ec8:	f042 0240 	orr.w	r2, r2, #64	; 0x40
 8006ecc:	60da      	str	r2, [r3, #12]
    }
    return HAL_OK;
 8006ece:	2300      	movs	r3, #0
 8006ed0:	e000      	b.n	8006ed4 <UART_Transmit_IT+0x94>
  }
  else
  {
    return HAL_BUSY;
 8006ed2:	2302      	movs	r3, #2
  }
}
 8006ed4:	4618      	mov	r0, r3
 8006ed6:	3714      	adds	r7, #20
 8006ed8:	46bd      	mov	sp, r7
 8006eda:	f85d 7b04 	ldr.w	r7, [sp], #4
 8006ede:	4770      	bx	lr

08006ee0 <UART_EndTransmit_IT>:
  * @param  huart  Pointer to a UART_HandleTypeDef structure that contains
  *                the configuration information for the specified UART module.
  * @retval HAL status
  */
static HAL_StatusTypeDef UART_EndTransmit_IT(UART_HandleTypeDef *huart)
{
 8006ee0:	b580      	push	{r7, lr}
 8006ee2:	b082      	sub	sp, #8
 8006ee4:	af00      	add	r7, sp, #0
 8006ee6:	6078      	str	r0, [r7, #4]
  /* Disable the UART Transmit Complete Interrupt */
  __HAL_UART_DISABLE_IT(huart, UART_IT_TC);
 8006ee8:	687b      	ldr	r3, [r7, #4]
 8006eea:	681b      	ldr	r3, [r3, #0]
 8006eec:	68da      	ldr	r2, [r3, #12]
 8006eee:	687b      	ldr	r3, [r7, #4]
 8006ef0:	681b      	ldr	r3, [r3, #0]
 8006ef2:	f022 0240 	bic.w	r2, r2, #64	; 0x40
 8006ef6:	60da      	str	r2, [r3, #12]

  /* Tx process is ended, restore huart->gState to Ready */
  huart->gState = HAL_UART_STATE_READY;
 8006ef8:	687b      	ldr	r3, [r7, #4]
 8006efa:	2220      	movs	r2, #32
 8006efc:	f883 2041 	strb.w	r2, [r3, #65]	; 0x41
#if (USE_HAL_UART_REGISTER_CALLBACKS == 1)
  /*Call registered Tx complete callback*/
  huart->TxCpltCallback(huart);
#else
  /*Call legacy weak Tx complete callback*/
  HAL_UART_TxCpltCallback(huart);
 8006f00:	6878      	ldr	r0, [r7, #4]
 8006f02:	f7ff fe73 	bl	8006bec <HAL_UART_TxCpltCallback>
#endif /* USE_HAL_UART_REGISTER_CALLBACKS */

  return HAL_OK;
 8006f06:	2300      	movs	r3, #0
}
 8006f08:	4618      	mov	r0, r3
 8006f0a:	3708      	adds	r7, #8
 8006f0c:	46bd      	mov	sp, r7
 8006f0e:	bd80      	pop	{r7, pc}

08006f10 <UART_Receive_IT>:
  * @param  huart  Pointer to a UART_HandleTypeDef structure that contains
  *                the configuration information for the specified UART module.
  * @retval HAL status
  */
static HAL_StatusTypeDef UART_Receive_IT(UART_HandleTypeDef *huart)
{
 8006f10:	b580      	push	{r7, lr}
 8006f12:	b08c      	sub	sp, #48	; 0x30
 8006f14:	af00      	add	r7, sp, #0
 8006f16:	6078      	str	r0, [r7, #4]
  uint8_t  *pdata8bits;
  uint16_t *pdata16bits;

  /* Check that a Rx process is ongoing */
  if (huart->RxState == HAL_UART_STATE_BUSY_RX)
 8006f18:	687b      	ldr	r3, [r7, #4]
 8006f1a:	f893 3042 	ldrb.w	r3, [r3, #66]	; 0x42
 8006f1e:	b2db      	uxtb	r3, r3
 8006f20:	2b22      	cmp	r3, #34	; 0x22
 8006f22:	f040 80ae 	bne.w	8007082 <UART_Receive_IT+0x172>
  {
    if ((huart->Init.WordLength == UART_WORDLENGTH_9B) && (huart->Init.Parity == UART_PARITY_NONE))
 8006f26:	687b      	ldr	r3, [r7, #4]
 8006f28:	689b      	ldr	r3, [r3, #8]
 8006f2a:	f5b3 5f80 	cmp.w	r3, #4096	; 0x1000
 8006f2e:	d117      	bne.n	8006f60 <UART_Receive_IT+0x50>
 8006f30:	687b      	ldr	r3, [r7, #4]
 8006f32:	691b      	ldr	r3, [r3, #16]
 8006f34:	2b00      	cmp	r3, #0
 8006f36:	d113      	bne.n	8006f60 <UART_Receive_IT+0x50>
    {
      pdata8bits  = NULL;
 8006f38:	2300      	movs	r3, #0
 8006f3a:	62fb      	str	r3, [r7, #44]	; 0x2c
      pdata16bits = (uint16_t *) huart->pRxBuffPtr;
 8006f3c:	687b      	ldr	r3, [r7, #4]
 8006f3e:	6a9b      	ldr	r3, [r3, #40]	; 0x28
 8006f40:	62bb      	str	r3, [r7, #40]	; 0x28
      *pdata16bits = (uint16_t)(huart->Instance->DR & (uint16_t)0x01FF);
 8006f42:	687b      	ldr	r3, [r7, #4]
 8006f44:	681b      	ldr	r3, [r3, #0]
 8006f46:	685b      	ldr	r3, [r3, #4]
 8006f48:	b29b      	uxth	r3, r3
 8006f4a:	f3c3 0308 	ubfx	r3, r3, #0, #9
 8006f4e:	b29a      	uxth	r2, r3
 8006f50:	6abb      	ldr	r3, [r7, #40]	; 0x28
 8006f52:	801a      	strh	r2, [r3, #0]
      huart->pRxBuffPtr += 2U;
 8006f54:	687b      	ldr	r3, [r7, #4]
 8006f56:	6a9b      	ldr	r3, [r3, #40]	; 0x28
 8006f58:	1c9a      	adds	r2, r3, #2
 8006f5a:	687b      	ldr	r3, [r7, #4]
 8006f5c:	629a      	str	r2, [r3, #40]	; 0x28
 8006f5e:	e026      	b.n	8006fae <UART_Receive_IT+0x9e>
    }
    else
    {
      pdata8bits = (uint8_t *) huart->pRxBuffPtr;
 8006f60:	687b      	ldr	r3, [r7, #4]
 8006f62:	6a9b      	ldr	r3, [r3, #40]	; 0x28
 8006f64:	62fb      	str	r3, [r7, #44]	; 0x2c
      pdata16bits  = NULL;
 8006f66:	2300      	movs	r3, #0
 8006f68:	62bb      	str	r3, [r7, #40]	; 0x28

      if ((huart->Init.WordLength == UART_WORDLENGTH_9B) || ((huart->Init.WordLength == UART_WORDLENGTH_8B) && (huart->Init.Parity == UART_PARITY_NONE)))
 8006f6a:	687b      	ldr	r3, [r7, #4]
 8006f6c:	689b      	ldr	r3, [r3, #8]
 8006f6e:	f5b3 5f80 	cmp.w	r3, #4096	; 0x1000
 8006f72:	d007      	beq.n	8006f84 <UART_Receive_IT+0x74>
 8006f74:	687b      	ldr	r3, [r7, #4]
 8006f76:	689b      	ldr	r3, [r3, #8]
 8006f78:	2b00      	cmp	r3, #0
 8006f7a:	d10a      	bne.n	8006f92 <UART_Receive_IT+0x82>
 8006f7c:	687b      	ldr	r3, [r7, #4]
 8006f7e:	691b      	ldr	r3, [r3, #16]
 8006f80:	2b00      	cmp	r3, #0
 8006f82:	d106      	bne.n	8006f92 <UART_Receive_IT+0x82>
      {
        *pdata8bits = (uint8_t)(huart->Instance->DR & (uint8_t)0x00FF);
 8006f84:	687b      	ldr	r3, [r7, #4]
 8006f86:	681b      	ldr	r3, [r3, #0]
 8006f88:	685b      	ldr	r3, [r3, #4]
 8006f8a:	b2da      	uxtb	r2, r3
 8006f8c:	6afb      	ldr	r3, [r7, #44]	; 0x2c
 8006f8e:	701a      	strb	r2, [r3, #0]
 8006f90:	e008      	b.n	8006fa4 <UART_Receive_IT+0x94>
      }
      else
      {
        *pdata8bits = (uint8_t)(huart->Instance->DR & (uint8_t)0x007F);
 8006f92:	687b      	ldr	r3, [r7, #4]
 8006f94:	681b      	ldr	r3, [r3, #0]
 8006f96:	685b      	ldr	r3, [r3, #4]
 8006f98:	b2db      	uxtb	r3, r3
 8006f9a:	f003 037f 	and.w	r3, r3, #127	; 0x7f
 8006f9e:	b2da      	uxtb	r2, r3
 8006fa0:	6afb      	ldr	r3, [r7, #44]	; 0x2c
 8006fa2:	701a      	strb	r2, [r3, #0]
      }
      huart->pRxBuffPtr += 1U;
 8006fa4:	687b      	ldr	r3, [r7, #4]
 8006fa6:	6a9b      	ldr	r3, [r3, #40]	; 0x28
 8006fa8:	1c5a      	adds	r2, r3, #1
 8006faa:	687b      	ldr	r3, [r7, #4]
 8006fac:	629a      	str	r2, [r3, #40]	; 0x28
    }

    if (--huart->RxXferCount == 0U)
 8006fae:	687b      	ldr	r3, [r7, #4]
 8006fb0:	8ddb      	ldrh	r3, [r3, #46]	; 0x2e
 8006fb2:	b29b      	uxth	r3, r3
 8006fb4:	3b01      	subs	r3, #1
 8006fb6:	b29b      	uxth	r3, r3
 8006fb8:	687a      	ldr	r2, [r7, #4]
 8006fba:	4619      	mov	r1, r3
 8006fbc:	85d1      	strh	r1, [r2, #46]	; 0x2e
 8006fbe:	2b00      	cmp	r3, #0
 8006fc0:	d15d      	bne.n	800707e <UART_Receive_IT+0x16e>
    {
      /* Disable the UART Data Register not empty Interrupt */
      __HAL_UART_DISABLE_IT(huart, UART_IT_RXNE);
 8006fc2:	687b      	ldr	r3, [r7, #4]
 8006fc4:	681b      	ldr	r3, [r3, #0]
 8006fc6:	68da      	ldr	r2, [r3, #12]
 8006fc8:	687b      	ldr	r3, [r7, #4]
 8006fca:	681b      	ldr	r3, [r3, #0]
 8006fcc:	f022 0220 	bic.w	r2, r2, #32
 8006fd0:	60da      	str	r2, [r3, #12]

      /* Disable the UART Parity Error Interrupt */
      __HAL_UART_DISABLE_IT(huart, UART_IT_PE);
 8006fd2:	687b      	ldr	r3, [r7, #4]
 8006fd4:	681b      	ldr	r3, [r3, #0]
 8006fd6:	68da      	ldr	r2, [r3, #12]
 8006fd8:	687b      	ldr	r3, [r7, #4]
 8006fda:	681b      	ldr	r3, [r3, #0]
 8006fdc:	f422 7280 	bic.w	r2, r2, #256	; 0x100
 8006fe0:	60da      	str	r2, [r3, #12]

      /* Disable the UART Error Interrupt: (Frame error, noise error, overrun error) */
      __HAL_UART_DISABLE_IT(huart, UART_IT_ERR);
 8006fe2:	687b      	ldr	r3, [r7, #4]
 8006fe4:	681b      	ldr	r3, [r3, #0]
 8006fe6:	695a      	ldr	r2, [r3, #20]
 8006fe8:	687b      	ldr	r3, [r7, #4]
 8006fea:	681b      	ldr	r3, [r3, #0]
 8006fec:	f022 0201 	bic.w	r2, r2, #1
 8006ff0:	615a      	str	r2, [r3, #20]

      /* Rx process is completed, restore huart->RxState to Ready */
      huart->RxState = HAL_UART_STATE_READY;
 8006ff2:	687b      	ldr	r3, [r7, #4]
 8006ff4:	2220      	movs	r2, #32
 8006ff6:	f883 2042 	strb.w	r2, [r3, #66]	; 0x42

      /* Initialize type of RxEvent to Transfer Complete */
      huart->RxEventType = HAL_UART_RXEVENT_TC;
 8006ffa:	687b      	ldr	r3, [r7, #4]
 8006ffc:	2200      	movs	r2, #0
 8006ffe:	635a      	str	r2, [r3, #52]	; 0x34

      /* Check current reception Mode :
         If Reception till IDLE event has been selected : */
      if (huart->ReceptionType == HAL_UART_RECEPTION_TOIDLE)
 8007000:	687b      	ldr	r3, [r7, #4]
 8007002:	6b1b      	ldr	r3, [r3, #48]	; 0x30
 8007004:	2b01      	cmp	r3, #1
 8007006:	d135      	bne.n	8007074 <UART_Receive_IT+0x164>
      {
        /* Set reception type to Standard */
        huart->ReceptionType = HAL_UART_RECEPTION_STANDARD;
 8007008:	687b      	ldr	r3, [r7, #4]
 800700a:	2200      	movs	r2, #0
 800700c:	631a      	str	r2, [r3, #48]	; 0x30

        /* Disable IDLE interrupt */
        ATOMIC_CLEAR_BIT(huart->Instance->CR1, USART_CR1_IDLEIE);
 800700e:	687b      	ldr	r3, [r7, #4]
 8007010:	681b      	ldr	r3, [r3, #0]
 8007012:	330c      	adds	r3, #12
 8007014:	617b      	str	r3, [r7, #20]
   __ASM volatile ("ldrex %0, %1" : "=r" (result) : "Q" (*addr) );
 8007016:	697b      	ldr	r3, [r7, #20]
 8007018:	e853 3f00 	ldrex	r3, [r3]
 800701c:	613b      	str	r3, [r7, #16]
   return(result);
 800701e:	693b      	ldr	r3, [r7, #16]
 8007020:	f023 0310 	bic.w	r3, r3, #16
 8007024:	627b      	str	r3, [r7, #36]	; 0x24
 8007026:	687b      	ldr	r3, [r7, #4]
 8007028:	681b      	ldr	r3, [r3, #0]
 800702a:	330c      	adds	r3, #12
 800702c:	6a7a      	ldr	r2, [r7, #36]	; 0x24
 800702e:	623a      	str	r2, [r7, #32]
 8007030:	61fb      	str	r3, [r7, #28]
   __ASM volatile ("strex %0, %2, %1" : "=&r" (result), "=Q" (*addr) : "r" (value) );
 8007032:	69f9      	ldr	r1, [r7, #28]
 8007034:	6a3a      	ldr	r2, [r7, #32]
 8007036:	e841 2300 	strex	r3, r2, [r1]
 800703a:	61bb      	str	r3, [r7, #24]
   return(result);
 800703c:	69bb      	ldr	r3, [r7, #24]
 800703e:	2b00      	cmp	r3, #0
 8007040:	d1e5      	bne.n	800700e <UART_Receive_IT+0xfe>

        /* Check if IDLE flag is set */
        if (__HAL_UART_GET_FLAG(huart, UART_FLAG_IDLE))
 8007042:	687b      	ldr	r3, [r7, #4]
 8007044:	681b      	ldr	r3, [r3, #0]
 8007046:	681b      	ldr	r3, [r3, #0]
 8007048:	f003 0310 	and.w	r3, r3, #16
 800704c:	2b10      	cmp	r3, #16
 800704e:	d10a      	bne.n	8007066 <UART_Receive_IT+0x156>
        {
          /* Clear IDLE flag in ISR */
          __HAL_UART_CLEAR_IDLEFLAG(huart);
 8007050:	2300      	movs	r3, #0
 8007052:	60fb      	str	r3, [r7, #12]
 8007054:	687b      	ldr	r3, [r7, #4]
 8007056:	681b      	ldr	r3, [r3, #0]
 8007058:	681b      	ldr	r3, [r3, #0]
 800705a:	60fb      	str	r3, [r7, #12]
 800705c:	687b      	ldr	r3, [r7, #4]
 800705e:	681b      	ldr	r3, [r3, #0]
 8007060:	685b      	ldr	r3, [r3, #4]
 8007062:	60fb      	str	r3, [r7, #12]
 8007064:	68fb      	ldr	r3, [r7, #12]
#if (USE_HAL_UART_REGISTER_CALLBACKS == 1)
        /*Call registered Rx Event callback*/
        huart->RxEventCallback(huart, huart->RxXferSize);
#else
        /*Call legacy weak Rx Event callback*/
        HAL_UARTEx_RxEventCallback(huart, huart->RxXferSize);
 8007066:	687b      	ldr	r3, [r7, #4]
 8007068:	8d9b      	ldrh	r3, [r3, #44]	; 0x2c
 800706a:	4619      	mov	r1, r3
 800706c:	6878      	ldr	r0, [r7, #4]
 800706e:	f7ff fdd1 	bl	8006c14 <HAL_UARTEx_RxEventCallback>
 8007072:	e002      	b.n	800707a <UART_Receive_IT+0x16a>
#if (USE_HAL_UART_REGISTER_CALLBACKS == 1)
        /*Call registered Rx complete callback*/
        huart->RxCpltCallback(huart);
#else
        /*Call legacy weak Rx complete callback*/
        HAL_UART_RxCpltCallback(huart);
 8007074:	6878      	ldr	r0, [r7, #4]
 8007076:	f7fb f9c5 	bl	8002404 <HAL_UART_RxCpltCallback>
#endif /* USE_HAL_UART_REGISTER_CALLBACKS */
      }

      return HAL_OK;
 800707a:	2300      	movs	r3, #0
 800707c:	e002      	b.n	8007084 <UART_Receive_IT+0x174>
    }
    return HAL_OK;
 800707e:	2300      	movs	r3, #0
 8007080:	e000      	b.n	8007084 <UART_Receive_IT+0x174>
  }
  else
  {
    return HAL_BUSY;
 8007082:	2302      	movs	r3, #2
  }
}
 8007084:	4618      	mov	r0, r3
 8007086:	3730      	adds	r7, #48	; 0x30
 8007088:	46bd      	mov	sp, r7
 800708a:	bd80      	pop	{r7, pc}

0800708c <UART_SetConfig>:
  * @param  huart  Pointer to a UART_HandleTypeDef structure that contains
  *                the configuration information for the specified UART module.
  * @retval None
  */
static void UART_SetConfig(UART_HandleTypeDef *huart)
{
 800708c:	e92d 4fb0 	stmdb	sp!, {r4, r5, r7, r8, r9, sl, fp, lr}
 8007090:	b0c0      	sub	sp, #256	; 0x100
 8007092:	af00      	add	r7, sp, #0
 8007094:	f8c7 00f4 	str.w	r0, [r7, #244]	; 0xf4
  assert_param(IS_UART_MODE(huart->Init.Mode));

  /*-------------------------- USART CR2 Configuration -----------------------*/
  /* Configure the UART Stop Bits: Set STOP[13:12] bits
     according to huart->Init.StopBits value */
  MODIFY_REG(huart->Instance->CR2, USART_CR2_STOP, huart->Init.StopBits);
 8007098:	f8d7 30f4 	ldr.w	r3, [r7, #244]	; 0xf4
 800709c:	681b      	ldr	r3, [r3, #0]
 800709e:	691b      	ldr	r3, [r3, #16]
 80070a0:	f423 5040 	bic.w	r0, r3, #12288	; 0x3000
 80070a4:	f8d7 30f4 	ldr.w	r3, [r7, #244]	; 0xf4
 80070a8:	68d9      	ldr	r1, [r3, #12]
 80070aa:	f8d7 30f4 	ldr.w	r3, [r7, #244]	; 0xf4
 80070ae:	681a      	ldr	r2, [r3, #0]
 80070b0:	ea40 0301 	orr.w	r3, r0, r1
 80070b4:	6113      	str	r3, [r2, #16]
     Set the M bits according to huart->Init.WordLength value
     Set PCE and PS bits according to huart->Init.Parity value
     Set TE and RE bits according to huart->Init.Mode value
     Set OVER8 bit according to huart->Init.OverSampling value */

  tmpreg = (uint32_t)huart->Init.WordLength | huart->Init.Parity | huart->Init.Mode | huart->Init.OverSampling;
 80070b6:	f8d7 30f4 	ldr.w	r3, [r7, #244]	; 0xf4
 80070ba:	689a      	ldr	r2, [r3, #8]
 80070bc:	f8d7 30f4 	ldr.w	r3, [r7, #244]	; 0xf4
 80070c0:	691b      	ldr	r3, [r3, #16]
 80070c2:	431a      	orrs	r2, r3
 80070c4:	f8d7 30f4 	ldr.w	r3, [r7, #244]	; 0xf4
 80070c8:	695b      	ldr	r3, [r3, #20]
 80070ca:	431a      	orrs	r2, r3
 80070cc:	f8d7 30f4 	ldr.w	r3, [r7, #244]	; 0xf4
 80070d0:	69db      	ldr	r3, [r3, #28]
 80070d2:	4313      	orrs	r3, r2
 80070d4:	f8c7 30f8 	str.w	r3, [r7, #248]	; 0xf8
  MODIFY_REG(huart->Instance->CR1,
 80070d8:	f8d7 30f4 	ldr.w	r3, [r7, #244]	; 0xf4
 80070dc:	681b      	ldr	r3, [r3, #0]
 80070de:	68db      	ldr	r3, [r3, #12]
 80070e0:	f423 4116 	bic.w	r1, r3, #38400	; 0x9600
 80070e4:	f021 010c 	bic.w	r1, r1, #12
 80070e8:	f8d7 30f4 	ldr.w	r3, [r7, #244]	; 0xf4
 80070ec:	681a      	ldr	r2, [r3, #0]
 80070ee:	f8d7 30f8 	ldr.w	r3, [r7, #248]	; 0xf8
 80070f2:	430b      	orrs	r3, r1
 80070f4:	60d3      	str	r3, [r2, #12]
             (uint32_t)(USART_CR1_M | USART_CR1_PCE | USART_CR1_PS | USART_CR1_TE | USART_CR1_RE | USART_CR1_OVER8),
             tmpreg);

  /*-------------------------- USART CR3 Configuration -----------------------*/
  /* Configure the UART HFC: Set CTSE and RTSE bits according to huart->Init.HwFlowCtl value */
  MODIFY_REG(huart->Instance->CR3, (USART_CR3_RTSE | USART_CR3_CTSE), huart->Init.HwFlowCtl);
 80070f6:	f8d7 30f4 	ldr.w	r3, [r7, #244]	; 0xf4
 80070fa:	681b      	ldr	r3, [r3, #0]
 80070fc:	695b      	ldr	r3, [r3, #20]
 80070fe:	f423 7040 	bic.w	r0, r3, #768	; 0x300
 8007102:	f8d7 30f4 	ldr.w	r3, [r7, #244]	; 0xf4
 8007106:	6999      	ldr	r1, [r3, #24]
 8007108:	f8d7 30f4 	ldr.w	r3, [r7, #244]	; 0xf4
 800710c:	681a      	ldr	r2, [r3, #0]
 800710e:	ea40 0301 	orr.w	r3, r0, r1
 8007112:	6153      	str	r3, [r2, #20]
    if ((huart->Instance == USART1) || (huart->Instance == USART6) || (huart->Instance == UART9) || (huart->Instance == UART10))
    {
      pclk = HAL_RCC_GetPCLK2Freq();
    }
#elif defined(USART6)
    if ((huart->Instance == USART1) || (huart->Instance == USART6))
 8007114:	f8d7 30f4 	ldr.w	r3, [r7, #244]	; 0xf4
 8007118:	681a      	ldr	r2, [r3, #0]
 800711a:	4b8f      	ldr	r3, [pc, #572]	; (8007358 <UART_SetConfig+0x2cc>)
 800711c:	429a      	cmp	r2, r3
 800711e:	d005      	beq.n	800712c <UART_SetConfig+0xa0>
 8007120:	f8d7 30f4 	ldr.w	r3, [r7, #244]	; 0xf4
 8007124:	681a      	ldr	r2, [r3, #0]
 8007126:	4b8d      	ldr	r3, [pc, #564]	; (800735c <UART_SetConfig+0x2d0>)
 8007128:	429a      	cmp	r2, r3
 800712a:	d104      	bne.n	8007136 <UART_SetConfig+0xaa>
    {
      pclk = HAL_RCC_GetPCLK2Freq();
 800712c:	f7fd fbf8 	bl	8004920 <HAL_RCC_GetPCLK2Freq>
 8007130:	f8c7 00fc 	str.w	r0, [r7, #252]	; 0xfc
 8007134:	e003      	b.n	800713e <UART_SetConfig+0xb2>
      pclk = HAL_RCC_GetPCLK2Freq();
    }
#endif /* USART6 */
    else
    {
      pclk = HAL_RCC_GetPCLK1Freq();
 8007136:	f7fd fbdf 	bl	80048f8 <HAL_RCC_GetPCLK1Freq>
 800713a:	f8c7 00fc 	str.w	r0, [r7, #252]	; 0xfc
    }
  /*-------------------------- USART BRR Configuration ---------------------*/
  if (huart->Init.OverSampling == UART_OVERSAMPLING_8)
 800713e:	f8d7 30f4 	ldr.w	r3, [r7, #244]	; 0xf4
 8007142:	69db      	ldr	r3, [r3, #28]
 8007144:	f5b3 4f00 	cmp.w	r3, #32768	; 0x8000
 8007148:	f040 810c 	bne.w	8007364 <UART_SetConfig+0x2d8>
  {
    huart->Instance->BRR = UART_BRR_SAMPLING8(pclk, huart->Init.BaudRate);
 800714c:	f8d7 30fc 	ldr.w	r3, [r7, #252]	; 0xfc
 8007150:	2200      	movs	r2, #0
 8007152:	f8c7 30e8 	str.w	r3, [r7, #232]	; 0xe8
 8007156:	f8c7 20ec 	str.w	r2, [r7, #236]	; 0xec
 800715a:	e9d7 453a 	ldrd	r4, r5, [r7, #232]	; 0xe8
 800715e:	4622      	mov	r2, r4
 8007160:	462b      	mov	r3, r5
 8007162:	1891      	adds	r1, r2, r2
 8007164:	65b9      	str	r1, [r7, #88]	; 0x58
 8007166:	415b      	adcs	r3, r3
 8007168:	65fb      	str	r3, [r7, #92]	; 0x5c
 800716a:	e9d7 2316 	ldrd	r2, r3, [r7, #88]	; 0x58
 800716e:	4621      	mov	r1, r4
 8007170:	eb12 0801 	adds.w	r8, r2, r1
 8007174:	4629      	mov	r1, r5
 8007176:	eb43 0901 	adc.w	r9, r3, r1
 800717a:	f04f 0200 	mov.w	r2, #0
 800717e:	f04f 0300 	mov.w	r3, #0
 8007182:	ea4f 03c9 	mov.w	r3, r9, lsl #3
 8007186:	ea43 7358 	orr.w	r3, r3, r8, lsr #29
 800718a:	ea4f 02c8 	mov.w	r2, r8, lsl #3
 800718e:	4690      	mov	r8, r2
 8007190:	4699      	mov	r9, r3
 8007192:	4623      	mov	r3, r4
 8007194:	eb18 0303 	adds.w	r3, r8, r3
 8007198:	f8c7 30e0 	str.w	r3, [r7, #224]	; 0xe0
 800719c:	462b      	mov	r3, r5
 800719e:	eb49 0303 	adc.w	r3, r9, r3
 80071a2:	f8c7 30e4 	str.w	r3, [r7, #228]	; 0xe4
 80071a6:	f8d7 30f4 	ldr.w	r3, [r7, #244]	; 0xf4
 80071aa:	685b      	ldr	r3, [r3, #4]
 80071ac:	2200      	movs	r2, #0
 80071ae:	f8c7 30d8 	str.w	r3, [r7, #216]	; 0xd8
 80071b2:	f8c7 20dc 	str.w	r2, [r7, #220]	; 0xdc
 80071b6:	e9d7 1236 	ldrd	r1, r2, [r7, #216]	; 0xd8
 80071ba:	460b      	mov	r3, r1
 80071bc:	18db      	adds	r3, r3, r3
 80071be:	653b      	str	r3, [r7, #80]	; 0x50
 80071c0:	4613      	mov	r3, r2
 80071c2:	eb42 0303 	adc.w	r3, r2, r3
 80071c6:	657b      	str	r3, [r7, #84]	; 0x54
 80071c8:	e9d7 2314 	ldrd	r2, r3, [r7, #80]	; 0x50
 80071cc:	e9d7 0138 	ldrd	r0, r1, [r7, #224]	; 0xe0
 80071d0:	f7f9 f814 	bl	80001fc <__aeabi_uldivmod>
 80071d4:	4602      	mov	r2, r0
 80071d6:	460b      	mov	r3, r1
 80071d8:	4b61      	ldr	r3, [pc, #388]	; (8007360 <UART_SetConfig+0x2d4>)
 80071da:	fba3 2302 	umull	r2, r3, r3, r2
 80071de:	095b      	lsrs	r3, r3, #5
 80071e0:	011c      	lsls	r4, r3, #4
 80071e2:	f8d7 30fc 	ldr.w	r3, [r7, #252]	; 0xfc
 80071e6:	2200      	movs	r2, #0
 80071e8:	f8c7 30d0 	str.w	r3, [r7, #208]	; 0xd0
 80071ec:	f8c7 20d4 	str.w	r2, [r7, #212]	; 0xd4
 80071f0:	e9d7 8934 	ldrd	r8, r9, [r7, #208]	; 0xd0
 80071f4:	4642      	mov	r2, r8
 80071f6:	464b      	mov	r3, r9
 80071f8:	1891      	adds	r1, r2, r2
 80071fa:	64b9      	str	r1, [r7, #72]	; 0x48
 80071fc:	415b      	adcs	r3, r3
 80071fe:	64fb      	str	r3, [r7, #76]	; 0x4c
 8007200:	e9d7 2312 	ldrd	r2, r3, [r7, #72]	; 0x48
 8007204:	4641      	mov	r1, r8
 8007206:	eb12 0a01 	adds.w	sl, r2, r1
 800720a:	4649      	mov	r1, r9
 800720c:	eb43 0b01 	adc.w	fp, r3, r1
 8007210:	f04f 0200 	mov.w	r2, #0
 8007214:	f04f 0300 	mov.w	r3, #0
 8007218:	ea4f 03cb 	mov.w	r3, fp, lsl #3
 800721c:	ea43 735a 	orr.w	r3, r3, sl, lsr #29
 8007220:	ea4f 02ca 	mov.w	r2, sl, lsl #3
 8007224:	4692      	mov	sl, r2
 8007226:	469b      	mov	fp, r3
 8007228:	4643      	mov	r3, r8
 800722a:	eb1a 0303 	adds.w	r3, sl, r3
 800722e:	f8c7 30c8 	str.w	r3, [r7, #200]	; 0xc8
 8007232:	464b      	mov	r3, r9
 8007234:	eb4b 0303 	adc.w	r3, fp, r3
 8007238:	f8c7 30cc 	str.w	r3, [r7, #204]	; 0xcc
 800723c:	f8d7 30f4 	ldr.w	r3, [r7, #244]	; 0xf4
 8007240:	685b      	ldr	r3, [r3, #4]
 8007242:	2200      	movs	r2, #0
 8007244:	f8c7 30c0 	str.w	r3, [r7, #192]	; 0xc0
 8007248:	f8c7 20c4 	str.w	r2, [r7, #196]	; 0xc4
 800724c:	e9d7 1230 	ldrd	r1, r2, [r7, #192]	; 0xc0
 8007250:	460b      	mov	r3, r1
 8007252:	18db      	adds	r3, r3, r3
 8007254:	643b      	str	r3, [r7, #64]	; 0x40
 8007256:	4613      	mov	r3, r2
 8007258:	eb42 0303 	adc.w	r3, r2, r3
 800725c:	647b      	str	r3, [r7, #68]	; 0x44
 800725e:	e9d7 2310 	ldrd	r2, r3, [r7, #64]	; 0x40
 8007262:	e9d7 0132 	ldrd	r0, r1, [r7, #200]	; 0xc8
 8007266:	f7f8 ffc9 	bl	80001fc <__aeabi_uldivmod>
 800726a:	4602      	mov	r2, r0
 800726c:	460b      	mov	r3, r1
 800726e:	4611      	mov	r1, r2
 8007270:	4b3b      	ldr	r3, [pc, #236]	; (8007360 <UART_SetConfig+0x2d4>)
 8007272:	fba3 2301 	umull	r2, r3, r3, r1
 8007276:	095b      	lsrs	r3, r3, #5
 8007278:	2264      	movs	r2, #100	; 0x64
 800727a:	fb02 f303 	mul.w	r3, r2, r3
 800727e:	1acb      	subs	r3, r1, r3
 8007280:	00db      	lsls	r3, r3, #3
 8007282:	f103 0232 	add.w	r2, r3, #50	; 0x32
 8007286:	4b36      	ldr	r3, [pc, #216]	; (8007360 <UART_SetConfig+0x2d4>)
 8007288:	fba3 2302 	umull	r2, r3, r3, r2
 800728c:	095b      	lsrs	r3, r3, #5
 800728e:	005b      	lsls	r3, r3, #1
 8007290:	f403 73f8 	and.w	r3, r3, #496	; 0x1f0
 8007294:	441c      	add	r4, r3
 8007296:	f8d7 30fc 	ldr.w	r3, [r7, #252]	; 0xfc
 800729a:	2200      	movs	r2, #0
 800729c:	f8c7 30b8 	str.w	r3, [r7, #184]	; 0xb8
 80072a0:	f8c7 20bc 	str.w	r2, [r7, #188]	; 0xbc
 80072a4:	e9d7 892e 	ldrd	r8, r9, [r7, #184]	; 0xb8
 80072a8:	4642      	mov	r2, r8
 80072aa:	464b      	mov	r3, r9
 80072ac:	1891      	adds	r1, r2, r2
 80072ae:	63b9      	str	r1, [r7, #56]	; 0x38
 80072b0:	415b      	adcs	r3, r3
 80072b2:	63fb      	str	r3, [r7, #60]	; 0x3c
 80072b4:	e9d7 230e 	ldrd	r2, r3, [r7, #56]	; 0x38
 80072b8:	4641      	mov	r1, r8
 80072ba:	1851      	adds	r1, r2, r1
 80072bc:	6339      	str	r1, [r7, #48]	; 0x30
 80072be:	4649      	mov	r1, r9
 80072c0:	414b      	adcs	r3, r1
 80072c2:	637b      	str	r3, [r7, #52]	; 0x34
 80072c4:	f04f 0200 	mov.w	r2, #0
 80072c8:	f04f 0300 	mov.w	r3, #0
 80072cc:	e9d7 ab0c 	ldrd	sl, fp, [r7, #48]	; 0x30
 80072d0:	4659      	mov	r1, fp
 80072d2:	00cb      	lsls	r3, r1, #3
 80072d4:	4651      	mov	r1, sl
 80072d6:	ea43 7351 	orr.w	r3, r3, r1, lsr #29
 80072da:	4651      	mov	r1, sl
 80072dc:	00ca      	lsls	r2, r1, #3
 80072de:	4610      	mov	r0, r2
 80072e0:	4619      	mov	r1, r3
 80072e2:	4603      	mov	r3, r0
 80072e4:	4642      	mov	r2, r8
 80072e6:	189b      	adds	r3, r3, r2
 80072e8:	f8c7 30b0 	str.w	r3, [r7, #176]	; 0xb0
 80072ec:	464b      	mov	r3, r9
 80072ee:	460a      	mov	r2, r1
 80072f0:	eb42 0303 	adc.w	r3, r2, r3
 80072f4:	f8c7 30b4 	str.w	r3, [r7, #180]	; 0xb4
 80072f8:	f8d7 30f4 	ldr.w	r3, [r7, #244]	; 0xf4
 80072fc:	685b      	ldr	r3, [r3, #4]
 80072fe:	2200      	movs	r2, #0
 8007300:	f8c7 30a8 	str.w	r3, [r7, #168]	; 0xa8
 8007304:	f8c7 20ac 	str.w	r2, [r7, #172]	; 0xac
 8007308:	e9d7 122a 	ldrd	r1, r2, [r7, #168]	; 0xa8
 800730c:	460b      	mov	r3, r1
 800730e:	18db      	adds	r3, r3, r3
 8007310:	62bb      	str	r3, [r7, #40]	; 0x28
 8007312:	4613      	mov	r3, r2
 8007314:	eb42 0303 	adc.w	r3, r2, r3
 8007318:	62fb      	str	r3, [r7, #44]	; 0x2c
 800731a:	e9d7 230a 	ldrd	r2, r3, [r7, #40]	; 0x28
 800731e:	e9d7 012c 	ldrd	r0, r1, [r7, #176]	; 0xb0
 8007322:	f7f8 ff6b 	bl	80001fc <__aeabi_uldivmod>
 8007326:	4602      	mov	r2, r0
 8007328:	460b      	mov	r3, r1
 800732a:	4b0d      	ldr	r3, [pc, #52]	; (8007360 <UART_SetConfig+0x2d4>)
 800732c:	fba3 1302 	umull	r1, r3, r3, r2
 8007330:	095b      	lsrs	r3, r3, #5
 8007332:	2164      	movs	r1, #100	; 0x64
 8007334:	fb01 f303 	mul.w	r3, r1, r3
 8007338:	1ad3      	subs	r3, r2, r3
 800733a:	00db      	lsls	r3, r3, #3
 800733c:	3332      	adds	r3, #50	; 0x32
 800733e:	4a08      	ldr	r2, [pc, #32]	; (8007360 <UART_SetConfig+0x2d4>)
 8007340:	fba2 2303 	umull	r2, r3, r2, r3
 8007344:	095b      	lsrs	r3, r3, #5
 8007346:	f003 0207 	and.w	r2, r3, #7
 800734a:	f8d7 30f4 	ldr.w	r3, [r7, #244]	; 0xf4
 800734e:	681b      	ldr	r3, [r3, #0]
 8007350:	4422      	add	r2, r4
 8007352:	609a      	str	r2, [r3, #8]
  }
  else
  {
    huart->Instance->BRR = UART_BRR_SAMPLING16(pclk, huart->Init.BaudRate);
  }
}
 8007354:	e106      	b.n	8007564 <UART_SetConfig+0x4d8>
 8007356:	bf00      	nop
 8007358:	40011000 	.word	0x40011000
 800735c:	40011400 	.word	0x40011400
 8007360:	51eb851f 	.word	0x51eb851f
    huart->Instance->BRR = UART_BRR_SAMPLING16(pclk, huart->Init.BaudRate);
 8007364:	f8d7 30fc 	ldr.w	r3, [r7, #252]	; 0xfc
 8007368:	2200      	movs	r2, #0
 800736a:	f8c7 30a0 	str.w	r3, [r7, #160]	; 0xa0
 800736e:	f8c7 20a4 	str.w	r2, [r7, #164]	; 0xa4
 8007372:	e9d7 8928 	ldrd	r8, r9, [r7, #160]	; 0xa0
 8007376:	4642      	mov	r2, r8
 8007378:	464b      	mov	r3, r9
 800737a:	1891      	adds	r1, r2, r2
 800737c:	6239      	str	r1, [r7, #32]
 800737e:	415b      	adcs	r3, r3
 8007380:	627b      	str	r3, [r7, #36]	; 0x24
 8007382:	e9d7 2308 	ldrd	r2, r3, [r7, #32]
 8007386:	4641      	mov	r1, r8
 8007388:	1854      	adds	r4, r2, r1
 800738a:	4649      	mov	r1, r9
 800738c:	eb43 0501 	adc.w	r5, r3, r1
 8007390:	f04f 0200 	mov.w	r2, #0
 8007394:	f04f 0300 	mov.w	r3, #0
 8007398:	00eb      	lsls	r3, r5, #3
 800739a:	ea43 7354 	orr.w	r3, r3, r4, lsr #29
 800739e:	00e2      	lsls	r2, r4, #3
 80073a0:	4614      	mov	r4, r2
 80073a2:	461d      	mov	r5, r3
 80073a4:	4643      	mov	r3, r8
 80073a6:	18e3      	adds	r3, r4, r3
 80073a8:	f8c7 3098 	str.w	r3, [r7, #152]	; 0x98
 80073ac:	464b      	mov	r3, r9
 80073ae:	eb45 0303 	adc.w	r3, r5, r3
 80073b2:	f8c7 309c 	str.w	r3, [r7, #156]	; 0x9c
 80073b6:	f8d7 30f4 	ldr.w	r3, [r7, #244]	; 0xf4
 80073ba:	685b      	ldr	r3, [r3, #4]
 80073bc:	2200      	movs	r2, #0
 80073be:	f8c7 3090 	str.w	r3, [r7, #144]	; 0x90
 80073c2:	f8c7 2094 	str.w	r2, [r7, #148]	; 0x94
 80073c6:	f04f 0200 	mov.w	r2, #0
 80073ca:	f04f 0300 	mov.w	r3, #0
 80073ce:	e9d7 4524 	ldrd	r4, r5, [r7, #144]	; 0x90
 80073d2:	4629      	mov	r1, r5
 80073d4:	008b      	lsls	r3, r1, #2
 80073d6:	4621      	mov	r1, r4
 80073d8:	ea43 7391 	orr.w	r3, r3, r1, lsr #30
 80073dc:	4621      	mov	r1, r4
 80073de:	008a      	lsls	r2, r1, #2
 80073e0:	e9d7 0126 	ldrd	r0, r1, [r7, #152]	; 0x98
 80073e4:	f7f8 ff0a 	bl	80001fc <__aeabi_uldivmod>
 80073e8:	4602      	mov	r2, r0
 80073ea:	460b      	mov	r3, r1
 80073ec:	4b60      	ldr	r3, [pc, #384]	; (8007570 <UART_SetConfig+0x4e4>)
 80073ee:	fba3 2302 	umull	r2, r3, r3, r2
 80073f2:	095b      	lsrs	r3, r3, #5
 80073f4:	011c      	lsls	r4, r3, #4
 80073f6:	f8d7 30fc 	ldr.w	r3, [r7, #252]	; 0xfc
 80073fa:	2200      	movs	r2, #0
 80073fc:	f8c7 3088 	str.w	r3, [r7, #136]	; 0x88
 8007400:	f8c7 208c 	str.w	r2, [r7, #140]	; 0x8c
 8007404:	e9d7 8922 	ldrd	r8, r9, [r7, #136]	; 0x88
 8007408:	4642      	mov	r2, r8
 800740a:	464b      	mov	r3, r9
 800740c:	1891      	adds	r1, r2, r2
 800740e:	61b9      	str	r1, [r7, #24]
 8007410:	415b      	adcs	r3, r3
 8007412:	61fb      	str	r3, [r7, #28]
 8007414:	e9d7 2306 	ldrd	r2, r3, [r7, #24]
 8007418:	4641      	mov	r1, r8
 800741a:	1851      	adds	r1, r2, r1
 800741c:	6139      	str	r1, [r7, #16]
 800741e:	4649      	mov	r1, r9
 8007420:	414b      	adcs	r3, r1
 8007422:	617b      	str	r3, [r7, #20]
 8007424:	f04f 0200 	mov.w	r2, #0
 8007428:	f04f 0300 	mov.w	r3, #0
 800742c:	e9d7 ab04 	ldrd	sl, fp, [r7, #16]
 8007430:	4659      	mov	r1, fp
 8007432:	00cb      	lsls	r3, r1, #3
 8007434:	4651      	mov	r1, sl
 8007436:	ea43 7351 	orr.w	r3, r3, r1, lsr #29
 800743a:	4651      	mov	r1, sl
 800743c:	00ca      	lsls	r2, r1, #3
 800743e:	4610      	mov	r0, r2
 8007440:	4619      	mov	r1, r3
 8007442:	4603      	mov	r3, r0
 8007444:	4642      	mov	r2, r8
 8007446:	189b      	adds	r3, r3, r2
 8007448:	f8c7 3080 	str.w	r3, [r7, #128]	; 0x80
 800744c:	464b      	mov	r3, r9
 800744e:	460a      	mov	r2, r1
 8007450:	eb42 0303 	adc.w	r3, r2, r3
 8007454:	f8c7 3084 	str.w	r3, [r7, #132]	; 0x84
 8007458:	f8d7 30f4 	ldr.w	r3, [r7, #244]	; 0xf4
 800745c:	685b      	ldr	r3, [r3, #4]
 800745e:	2200      	movs	r2, #0
 8007460:	67bb      	str	r3, [r7, #120]	; 0x78
 8007462:	67fa      	str	r2, [r7, #124]	; 0x7c
 8007464:	f04f 0200 	mov.w	r2, #0
 8007468:	f04f 0300 	mov.w	r3, #0
 800746c:	e9d7 891e 	ldrd	r8, r9, [r7, #120]	; 0x78
 8007470:	4649      	mov	r1, r9
 8007472:	008b      	lsls	r3, r1, #2
 8007474:	4641      	mov	r1, r8
 8007476:	ea43 7391 	orr.w	r3, r3, r1, lsr #30
 800747a:	4641      	mov	r1, r8
 800747c:	008a      	lsls	r2, r1, #2
 800747e:	e9d7 0120 	ldrd	r0, r1, [r7, #128]	; 0x80
 8007482:	f7f8 febb 	bl	80001fc <__aeabi_uldivmod>
 8007486:	4602      	mov	r2, r0
 8007488:	460b      	mov	r3, r1
 800748a:	4611      	mov	r1, r2
 800748c:	4b38      	ldr	r3, [pc, #224]	; (8007570 <UART_SetConfig+0x4e4>)
 800748e:	fba3 2301 	umull	r2, r3, r3, r1
 8007492:	095b      	lsrs	r3, r3, #5
 8007494:	2264      	movs	r2, #100	; 0x64
 8007496:	fb02 f303 	mul.w	r3, r2, r3
 800749a:	1acb      	subs	r3, r1, r3
 800749c:	011b      	lsls	r3, r3, #4
 800749e:	3332      	adds	r3, #50	; 0x32
 80074a0:	4a33      	ldr	r2, [pc, #204]	; (8007570 <UART_SetConfig+0x4e4>)
 80074a2:	fba2 2303 	umull	r2, r3, r2, r3
 80074a6:	095b      	lsrs	r3, r3, #5
 80074a8:	f003 03f0 	and.w	r3, r3, #240	; 0xf0
 80074ac:	441c      	add	r4, r3
 80074ae:	f8d7 30fc 	ldr.w	r3, [r7, #252]	; 0xfc
 80074b2:	2200      	movs	r2, #0
 80074b4:	673b      	str	r3, [r7, #112]	; 0x70
 80074b6:	677a      	str	r2, [r7, #116]	; 0x74
 80074b8:	e9d7 891c 	ldrd	r8, r9, [r7, #112]	; 0x70
 80074bc:	4642      	mov	r2, r8
 80074be:	464b      	mov	r3, r9
 80074c0:	1891      	adds	r1, r2, r2
 80074c2:	60b9      	str	r1, [r7, #8]
 80074c4:	415b      	adcs	r3, r3
 80074c6:	60fb      	str	r3, [r7, #12]
 80074c8:	e9d7 2302 	ldrd	r2, r3, [r7, #8]
 80074cc:	4641      	mov	r1, r8
 80074ce:	1851      	adds	r1, r2, r1
 80074d0:	6039      	str	r1, [r7, #0]
 80074d2:	4649      	mov	r1, r9
 80074d4:	414b      	adcs	r3, r1
 80074d6:	607b      	str	r3, [r7, #4]
 80074d8:	f04f 0200 	mov.w	r2, #0
 80074dc:	f04f 0300 	mov.w	r3, #0
 80074e0:	e9d7 ab00 	ldrd	sl, fp, [r7]
 80074e4:	4659      	mov	r1, fp
 80074e6:	00cb      	lsls	r3, r1, #3
 80074e8:	4651      	mov	r1, sl
 80074ea:	ea43 7351 	orr.w	r3, r3, r1, lsr #29
 80074ee:	4651      	mov	r1, sl
 80074f0:	00ca      	lsls	r2, r1, #3
 80074f2:	4610      	mov	r0, r2
 80074f4:	4619      	mov	r1, r3
 80074f6:	4603      	mov	r3, r0
 80074f8:	4642      	mov	r2, r8
 80074fa:	189b      	adds	r3, r3, r2
 80074fc:	66bb      	str	r3, [r7, #104]	; 0x68
 80074fe:	464b      	mov	r3, r9
 8007500:	460a      	mov	r2, r1
 8007502:	eb42 0303 	adc.w	r3, r2, r3
 8007506:	66fb      	str	r3, [r7, #108]	; 0x6c
 8007508:	f8d7 30f4 	ldr.w	r3, [r7, #244]	; 0xf4
 800750c:	685b      	ldr	r3, [r3, #4]
 800750e:	2200      	movs	r2, #0
 8007510:	663b      	str	r3, [r7, #96]	; 0x60
 8007512:	667a      	str	r2, [r7, #100]	; 0x64
 8007514:	f04f 0200 	mov.w	r2, #0
 8007518:	f04f 0300 	mov.w	r3, #0
 800751c:	e9d7 8918 	ldrd	r8, r9, [r7, #96]	; 0x60
 8007520:	4649      	mov	r1, r9
 8007522:	008b      	lsls	r3, r1, #2
 8007524:	4641      	mov	r1, r8
 8007526:	ea43 7391 	orr.w	r3, r3, r1, lsr #30
 800752a:	4641      	mov	r1, r8
 800752c:	008a      	lsls	r2, r1, #2
 800752e:	e9d7 011a 	ldrd	r0, r1, [r7, #104]	; 0x68
 8007532:	f7f8 fe63 	bl	80001fc <__aeabi_uldivmod>
 8007536:	4602      	mov	r2, r0
 8007538:	460b      	mov	r3, r1
 800753a:	4b0d      	ldr	r3, [pc, #52]	; (8007570 <UART_SetConfig+0x4e4>)
 800753c:	fba3 1302 	umull	r1, r3, r3, r2
 8007540:	095b      	lsrs	r3, r3, #5
 8007542:	2164      	movs	r1, #100	; 0x64
 8007544:	fb01 f303 	mul.w	r3, r1, r3
 8007548:	1ad3      	subs	r3, r2, r3
 800754a:	011b      	lsls	r3, r3, #4
 800754c:	3332      	adds	r3, #50	; 0x32
 800754e:	4a08      	ldr	r2, [pc, #32]	; (8007570 <UART_SetConfig+0x4e4>)
 8007550:	fba2 2303 	umull	r2, r3, r2, r3
 8007554:	095b      	lsrs	r3, r3, #5
 8007556:	f003 020f 	and.w	r2, r3, #15
 800755a:	f8d7 30f4 	ldr.w	r3, [r7, #244]	; 0xf4
 800755e:	681b      	ldr	r3, [r3, #0]
 8007560:	4422      	add	r2, r4
 8007562:	609a      	str	r2, [r3, #8]
}
 8007564:	bf00      	nop
 8007566:	f507 7780 	add.w	r7, r7, #256	; 0x100
 800756a:	46bd      	mov	sp, r7
 800756c:	e8bd 8fb0 	ldmia.w	sp!, {r4, r5, r7, r8, r9, sl, fp, pc}
 8007570:	51eb851f 	.word	0x51eb851f

08007574 <memset>:
 8007574:	4402      	add	r2, r0
 8007576:	4603      	mov	r3, r0
 8007578:	4293      	cmp	r3, r2
 800757a:	d100      	bne.n	800757e <memset+0xa>
 800757c:	4770      	bx	lr
 800757e:	f803 1b01 	strb.w	r1, [r3], #1
 8007582:	e7f9      	b.n	8007578 <memset+0x4>

08007584 <__libc_init_array>:
 8007584:	b570      	push	{r4, r5, r6, lr}
 8007586:	4d0d      	ldr	r5, [pc, #52]	; (80075bc <__libc_init_array+0x38>)
 8007588:	4c0d      	ldr	r4, [pc, #52]	; (80075c0 <__libc_init_array+0x3c>)
 800758a:	1b64      	subs	r4, r4, r5
 800758c:	10a4      	asrs	r4, r4, #2
 800758e:	2600      	movs	r6, #0
 8007590:	42a6      	cmp	r6, r4
 8007592:	d109      	bne.n	80075a8 <__libc_init_array+0x24>
 8007594:	4d0b      	ldr	r5, [pc, #44]	; (80075c4 <__libc_init_array+0x40>)
 8007596:	4c0c      	ldr	r4, [pc, #48]	; (80075c8 <__libc_init_array+0x44>)
 8007598:	f000 f818 	bl	80075cc <_init>
 800759c:	1b64      	subs	r4, r4, r5
 800759e:	10a4      	asrs	r4, r4, #2
 80075a0:	2600      	movs	r6, #0
 80075a2:	42a6      	cmp	r6, r4
 80075a4:	d105      	bne.n	80075b2 <__libc_init_array+0x2e>
 80075a6:	bd70      	pop	{r4, r5, r6, pc}
 80075a8:	f855 3b04 	ldr.w	r3, [r5], #4
 80075ac:	4798      	blx	r3
 80075ae:	3601      	adds	r6, #1
 80075b0:	e7ee      	b.n	8007590 <__libc_init_array+0xc>
 80075b2:	f855 3b04 	ldr.w	r3, [r5], #4
 80075b6:	4798      	blx	r3
 80075b8:	3601      	adds	r6, #1
 80075ba:	e7f2      	b.n	80075a2 <__libc_init_array+0x1e>
 80075bc:	0800769c 	.word	0x0800769c
 80075c0:	0800769c 	.word	0x0800769c
 80075c4:	0800769c 	.word	0x0800769c
 80075c8:	080076a0 	.word	0x080076a0

080075cc <_init>:
 80075cc:	b5f8      	push	{r3, r4, r5, r6, r7, lr}
 80075ce:	bf00      	nop
 80075d0:	bcf8      	pop	{r3, r4, r5, r6, r7}
 80075d2:	bc08      	pop	{r3}
 80075d4:	469e      	mov	lr, r3
 80075d6:	4770      	bx	lr

080075d8 <_fini>:
 80075d8:	b5f8      	push	{r3, r4, r5, r6, r7, lr}
 80075da:	bf00      	nop
 80075dc:	bcf8      	pop	{r3, r4, r5, r6, r7}
 80075de:	bc08      	pop	{r3}
 80075e0:	469e      	mov	lr, r3
 80075e2:	4770      	bx	lr
