
AuroraV_Payload_F439.elf:     file format elf32-littlearm

Sections:
Idx Name          Size      VMA       LMA       File off  Algn
  0 .isr_vector   000001ac  08000000  08000000  00010000  2**0
                  CONTENTS, ALLOC, LOAD, READONLY, DATA
  1 .text         00006a3c  080001ac  080001ac  000101ac  2**2
                  CONTENTS, ALLOC, LOAD, READONLY, CODE
  2 .rodata       00000088  08006be8  08006be8  00016be8  2**2
                  CONTENTS, ALLOC, LOAD, READONLY, DATA
  3 .ARM.extab    00000000  08006c70  08006c70  00020024  2**0
                  CONTENTS
  4 .ARM          00000008  08006c70  08006c70  00016c70  2**2
                  CONTENTS, ALLOC, LOAD, READONLY, DATA
  5 .preinit_array 00000000  08006c78  08006c78  00020024  2**0
                  CONTENTS, ALLOC, LOAD, DATA
  6 .init_array   00000004  08006c78  08006c78  00016c78  2**2
                  CONTENTS, ALLOC, LOAD, DATA
  7 .fini_array   00000004  08006c7c  08006c7c  00016c7c  2**2
                  CONTENTS, ALLOC, LOAD, DATA
  8 .data         00000024  20000000  08006c80  00020000  2**2
                  CONTENTS, ALLOC, LOAD, DATA
  9 .ccmram       00000000  10000000  10000000  00020024  2**0
                  CONTENTS
 10 .bss          000002f0  20000024  20000024  00020024  2**2
                  ALLOC
 11 ._user_heap_stack 00000604  20000314  20000314  00020024  2**0
                  ALLOC
 12 .ARM.attributes 00000030  00000000  00000000  00020024  2**0
                  CONTENTS, READONLY
 13 .comment      00000043  00000000  00000000  00020054  2**0
                  CONTENTS, READONLY
 14 .debug_info   000186cb  00000000  00000000  00020097  2**0
                  CONTENTS, READONLY, DEBUGGING, OCTETS
 15 .debug_abbrev 00003698  00000000  00000000  00038762  2**0
                  CONTENTS, READONLY, DEBUGGING, OCTETS
 16 .debug_aranges 00001410  00000000  00000000  0003be00  2**3
                  CONTENTS, READONLY, DEBUGGING, OCTETS
 17 .debug_rnglists 00000fae  00000000  00000000  0003d210  2**0
                  CONTENTS, READONLY, DEBUGGING, OCTETS
 18 .debug_macro  000270d9  00000000  00000000  0003e1be  2**0
                  CONTENTS, READONLY, DEBUGGING, OCTETS
 19 .debug_line   0001a8ba  00000000  00000000  00065297  2**0
                  CONTENTS, READONLY, DEBUGGING, OCTETS
 20 .debug_str    000e6ef9  00000000  00000000  0007fb51  2**0
                  CONTENTS, READONLY, DEBUGGING, OCTETS
 21 .debug_frame  00005394  00000000  00000000  00166a4c  2**2
                  CONTENTS, READONLY, DEBUGGING, OCTETS
 22 .debug_line_str 00000060  00000000  00000000  0016bde0  2**0
                  CONTENTS, READONLY, DEBUGGING, OCTETS

Disassembly of section .text:

080001ac <__do_global_dtors_aux>:
 80001ac:	b510      	push	{r4, lr}
 80001ae:	4c05      	ldr	r4, [pc, #20]	; (80001c4 <__do_global_dtors_aux+0x18>)
 80001b0:	7823      	ldrb	r3, [r4, #0]
 80001b2:	b933      	cbnz	r3, 80001c2 <__do_global_dtors_aux+0x16>
 80001b4:	4b04      	ldr	r3, [pc, #16]	; (80001c8 <__do_global_dtors_aux+0x1c>)
 80001b6:	b113      	cbz	r3, 80001be <__do_global_dtors_aux+0x12>
 80001b8:	4804      	ldr	r0, [pc, #16]	; (80001cc <__do_global_dtors_aux+0x20>)
 80001ba:	f3af 8000 	nop.w
 80001be:	2301      	movs	r3, #1
 80001c0:	7023      	strb	r3, [r4, #0]
 80001c2:	bd10      	pop	{r4, pc}
 80001c4:	20000024 	.word	0x20000024
 80001c8:	00000000 	.word	0x00000000
 80001cc:	08006bd0 	.word	0x08006bd0

080001d0 <frame_dummy>:
 80001d0:	b508      	push	{r3, lr}
 80001d2:	4b03      	ldr	r3, [pc, #12]	; (80001e0 <frame_dummy+0x10>)
 80001d4:	b11b      	cbz	r3, 80001de <frame_dummy+0xe>
 80001d6:	4903      	ldr	r1, [pc, #12]	; (80001e4 <frame_dummy+0x14>)
 80001d8:	4803      	ldr	r0, [pc, #12]	; (80001e8 <frame_dummy+0x18>)
 80001da:	f3af 8000 	nop.w
 80001de:	bd08      	pop	{r3, pc}
 80001e0:	00000000 	.word	0x00000000
 80001e4:	20000028 	.word	0x20000028
 80001e8:	08006bd0 	.word	0x08006bd0

080001ec <strlen>:
 80001ec:	4603      	mov	r3, r0
 80001ee:	f813 2b01 	ldrb.w	r2, [r3], #1
 80001f2:	2a00      	cmp	r2, #0
 80001f4:	d1fb      	bne.n	80001ee <strlen+0x2>
 80001f6:	1a18      	subs	r0, r3, r0
 80001f8:	3801      	subs	r0, #1
 80001fa:	4770      	bx	lr

080001fc <__aeabi_uldivmod>:
 80001fc:	b953      	cbnz	r3, 8000214 <__aeabi_uldivmod+0x18>
 80001fe:	b94a      	cbnz	r2, 8000214 <__aeabi_uldivmod+0x18>
 8000200:	2900      	cmp	r1, #0
 8000202:	bf08      	it	eq
 8000204:	2800      	cmpeq	r0, #0
 8000206:	bf1c      	itt	ne
 8000208:	f04f 31ff 	movne.w	r1, #4294967295	; 0xffffffff
 800020c:	f04f 30ff 	movne.w	r0, #4294967295	; 0xffffffff
 8000210:	f000 b970 	b.w	80004f4 <__aeabi_idiv0>
 8000214:	f1ad 0c08 	sub.w	ip, sp, #8
 8000218:	e96d ce04 	strd	ip, lr, [sp, #-16]!
 800021c:	f000 f806 	bl	800022c <__udivmoddi4>
 8000220:	f8dd e004 	ldr.w	lr, [sp, #4]
 8000224:	e9dd 2302 	ldrd	r2, r3, [sp, #8]
 8000228:	b004      	add	sp, #16
 800022a:	4770      	bx	lr

0800022c <__udivmoddi4>:
 800022c:	e92d 47f0 	stmdb	sp!, {r4, r5, r6, r7, r8, r9, sl, lr}
 8000230:	9e08      	ldr	r6, [sp, #32]
 8000232:	460d      	mov	r5, r1
 8000234:	4604      	mov	r4, r0
 8000236:	460f      	mov	r7, r1
 8000238:	2b00      	cmp	r3, #0
 800023a:	d14a      	bne.n	80002d2 <__udivmoddi4+0xa6>
 800023c:	428a      	cmp	r2, r1
 800023e:	4694      	mov	ip, r2
 8000240:	d965      	bls.n	800030e <__udivmoddi4+0xe2>
 8000242:	fab2 f382 	clz	r3, r2
 8000246:	b143      	cbz	r3, 800025a <__udivmoddi4+0x2e>
 8000248:	fa02 fc03 	lsl.w	ip, r2, r3
 800024c:	f1c3 0220 	rsb	r2, r3, #32
 8000250:	409f      	lsls	r7, r3
 8000252:	fa20 f202 	lsr.w	r2, r0, r2
 8000256:	4317      	orrs	r7, r2
 8000258:	409c      	lsls	r4, r3
 800025a:	ea4f 4e1c 	mov.w	lr, ip, lsr #16
 800025e:	fa1f f58c 	uxth.w	r5, ip
 8000262:	fbb7 f1fe 	udiv	r1, r7, lr
 8000266:	0c22      	lsrs	r2, r4, #16
 8000268:	fb0e 7711 	mls	r7, lr, r1, r7
 800026c:	ea42 4207 	orr.w	r2, r2, r7, lsl #16
 8000270:	fb01 f005 	mul.w	r0, r1, r5
 8000274:	4290      	cmp	r0, r2
 8000276:	d90a      	bls.n	800028e <__udivmoddi4+0x62>
 8000278:	eb1c 0202 	adds.w	r2, ip, r2
 800027c:	f101 37ff 	add.w	r7, r1, #4294967295	; 0xffffffff
 8000280:	f080 811c 	bcs.w	80004bc <__udivmoddi4+0x290>
 8000284:	4290      	cmp	r0, r2
 8000286:	f240 8119 	bls.w	80004bc <__udivmoddi4+0x290>
 800028a:	3902      	subs	r1, #2
 800028c:	4462      	add	r2, ip
 800028e:	1a12      	subs	r2, r2, r0
 8000290:	b2a4      	uxth	r4, r4
 8000292:	fbb2 f0fe 	udiv	r0, r2, lr
 8000296:	fb0e 2210 	mls	r2, lr, r0, r2
 800029a:	ea44 4402 	orr.w	r4, r4, r2, lsl #16
 800029e:	fb00 f505 	mul.w	r5, r0, r5
 80002a2:	42a5      	cmp	r5, r4
 80002a4:	d90a      	bls.n	80002bc <__udivmoddi4+0x90>
 80002a6:	eb1c 0404 	adds.w	r4, ip, r4
 80002aa:	f100 32ff 	add.w	r2, r0, #4294967295	; 0xffffffff
 80002ae:	f080 8107 	bcs.w	80004c0 <__udivmoddi4+0x294>
 80002b2:	42a5      	cmp	r5, r4
 80002b4:	f240 8104 	bls.w	80004c0 <__udivmoddi4+0x294>
 80002b8:	4464      	add	r4, ip
 80002ba:	3802      	subs	r0, #2
 80002bc:	ea40 4001 	orr.w	r0, r0, r1, lsl #16
 80002c0:	1b64      	subs	r4, r4, r5
 80002c2:	2100      	movs	r1, #0
 80002c4:	b11e      	cbz	r6, 80002ce <__udivmoddi4+0xa2>
 80002c6:	40dc      	lsrs	r4, r3
 80002c8:	2300      	movs	r3, #0
 80002ca:	e9c6 4300 	strd	r4, r3, [r6]
 80002ce:	e8bd 87f0 	ldmia.w	sp!, {r4, r5, r6, r7, r8, r9, sl, pc}
 80002d2:	428b      	cmp	r3, r1
 80002d4:	d908      	bls.n	80002e8 <__udivmoddi4+0xbc>
 80002d6:	2e00      	cmp	r6, #0
 80002d8:	f000 80ed 	beq.w	80004b6 <__udivmoddi4+0x28a>
 80002dc:	2100      	movs	r1, #0
 80002de:	e9c6 0500 	strd	r0, r5, [r6]
 80002e2:	4608      	mov	r0, r1
 80002e4:	e8bd 87f0 	ldmia.w	sp!, {r4, r5, r6, r7, r8, r9, sl, pc}
 80002e8:	fab3 f183 	clz	r1, r3
 80002ec:	2900      	cmp	r1, #0
 80002ee:	d149      	bne.n	8000384 <__udivmoddi4+0x158>
 80002f0:	42ab      	cmp	r3, r5
 80002f2:	d302      	bcc.n	80002fa <__udivmoddi4+0xce>
 80002f4:	4282      	cmp	r2, r0
 80002f6:	f200 80f8 	bhi.w	80004ea <__udivmoddi4+0x2be>
 80002fa:	1a84      	subs	r4, r0, r2
 80002fc:	eb65 0203 	sbc.w	r2, r5, r3
 8000300:	2001      	movs	r0, #1
 8000302:	4617      	mov	r7, r2
 8000304:	2e00      	cmp	r6, #0
 8000306:	d0e2      	beq.n	80002ce <__udivmoddi4+0xa2>
 8000308:	e9c6 4700 	strd	r4, r7, [r6]
 800030c:	e7df      	b.n	80002ce <__udivmoddi4+0xa2>
 800030e:	b902      	cbnz	r2, 8000312 <__udivmoddi4+0xe6>
 8000310:	deff      	udf	#255	; 0xff
 8000312:	fab2 f382 	clz	r3, r2
 8000316:	2b00      	cmp	r3, #0
 8000318:	f040 8090 	bne.w	800043c <__udivmoddi4+0x210>
 800031c:	1a8a      	subs	r2, r1, r2
 800031e:	ea4f 471c 	mov.w	r7, ip, lsr #16
 8000322:	fa1f fe8c 	uxth.w	lr, ip
 8000326:	2101      	movs	r1, #1
 8000328:	fbb2 f5f7 	udiv	r5, r2, r7
 800032c:	fb07 2015 	mls	r0, r7, r5, r2
 8000330:	0c22      	lsrs	r2, r4, #16
 8000332:	ea42 4200 	orr.w	r2, r2, r0, lsl #16
 8000336:	fb0e f005 	mul.w	r0, lr, r5
 800033a:	4290      	cmp	r0, r2
 800033c:	d908      	bls.n	8000350 <__udivmoddi4+0x124>
 800033e:	eb1c 0202 	adds.w	r2, ip, r2
 8000342:	f105 38ff 	add.w	r8, r5, #4294967295	; 0xffffffff
 8000346:	d202      	bcs.n	800034e <__udivmoddi4+0x122>
 8000348:	4290      	cmp	r0, r2
 800034a:	f200 80cb 	bhi.w	80004e4 <__udivmoddi4+0x2b8>
 800034e:	4645      	mov	r5, r8
 8000350:	1a12      	subs	r2, r2, r0
 8000352:	b2a4      	uxth	r4, r4
 8000354:	fbb2 f0f7 	udiv	r0, r2, r7
 8000358:	fb07 2210 	mls	r2, r7, r0, r2
 800035c:	ea44 4402 	orr.w	r4, r4, r2, lsl #16
 8000360:	fb0e fe00 	mul.w	lr, lr, r0
 8000364:	45a6      	cmp	lr, r4
 8000366:	d908      	bls.n	800037a <__udivmoddi4+0x14e>
 8000368:	eb1c 0404 	adds.w	r4, ip, r4
 800036c:	f100 32ff 	add.w	r2, r0, #4294967295	; 0xffffffff
 8000370:	d202      	bcs.n	8000378 <__udivmoddi4+0x14c>
 8000372:	45a6      	cmp	lr, r4
 8000374:	f200 80bb 	bhi.w	80004ee <__udivmoddi4+0x2c2>
 8000378:	4610      	mov	r0, r2
 800037a:	eba4 040e 	sub.w	r4, r4, lr
 800037e:	ea40 4005 	orr.w	r0, r0, r5, lsl #16
 8000382:	e79f      	b.n	80002c4 <__udivmoddi4+0x98>
 8000384:	f1c1 0720 	rsb	r7, r1, #32
 8000388:	408b      	lsls	r3, r1
 800038a:	fa22 fc07 	lsr.w	ip, r2, r7
 800038e:	ea4c 0c03 	orr.w	ip, ip, r3
 8000392:	fa05 f401 	lsl.w	r4, r5, r1
 8000396:	fa20 f307 	lsr.w	r3, r0, r7
 800039a:	40fd      	lsrs	r5, r7
 800039c:	ea4f 491c 	mov.w	r9, ip, lsr #16
 80003a0:	4323      	orrs	r3, r4
 80003a2:	fbb5 f8f9 	udiv	r8, r5, r9
 80003a6:	fa1f fe8c 	uxth.w	lr, ip
 80003aa:	fb09 5518 	mls	r5, r9, r8, r5
 80003ae:	0c1c      	lsrs	r4, r3, #16
 80003b0:	ea44 4405 	orr.w	r4, r4, r5, lsl #16
 80003b4:	fb08 f50e 	mul.w	r5, r8, lr
 80003b8:	42a5      	cmp	r5, r4
 80003ba:	fa02 f201 	lsl.w	r2, r2, r1
 80003be:	fa00 f001 	lsl.w	r0, r0, r1
 80003c2:	d90b      	bls.n	80003dc <__udivmoddi4+0x1b0>
 80003c4:	eb1c 0404 	adds.w	r4, ip, r4
 80003c8:	f108 3aff 	add.w	sl, r8, #4294967295	; 0xffffffff
 80003cc:	f080 8088 	bcs.w	80004e0 <__udivmoddi4+0x2b4>
 80003d0:	42a5      	cmp	r5, r4
 80003d2:	f240 8085 	bls.w	80004e0 <__udivmoddi4+0x2b4>
 80003d6:	f1a8 0802 	sub.w	r8, r8, #2
 80003da:	4464      	add	r4, ip
 80003dc:	1b64      	subs	r4, r4, r5
 80003de:	b29d      	uxth	r5, r3
 80003e0:	fbb4 f3f9 	udiv	r3, r4, r9
 80003e4:	fb09 4413 	mls	r4, r9, r3, r4
 80003e8:	ea45 4404 	orr.w	r4, r5, r4, lsl #16
 80003ec:	fb03 fe0e 	mul.w	lr, r3, lr
 80003f0:	45a6      	cmp	lr, r4
 80003f2:	d908      	bls.n	8000406 <__udivmoddi4+0x1da>
 80003f4:	eb1c 0404 	adds.w	r4, ip, r4
 80003f8:	f103 35ff 	add.w	r5, r3, #4294967295	; 0xffffffff
 80003fc:	d26c      	bcs.n	80004d8 <__udivmoddi4+0x2ac>
 80003fe:	45a6      	cmp	lr, r4
 8000400:	d96a      	bls.n	80004d8 <__udivmoddi4+0x2ac>
 8000402:	3b02      	subs	r3, #2
 8000404:	4464      	add	r4, ip
 8000406:	ea43 4308 	orr.w	r3, r3, r8, lsl #16
 800040a:	fba3 9502 	umull	r9, r5, r3, r2
 800040e:	eba4 040e 	sub.w	r4, r4, lr
 8000412:	42ac      	cmp	r4, r5
 8000414:	46c8      	mov	r8, r9
 8000416:	46ae      	mov	lr, r5
 8000418:	d356      	bcc.n	80004c8 <__udivmoddi4+0x29c>
 800041a:	d053      	beq.n	80004c4 <__udivmoddi4+0x298>
 800041c:	b156      	cbz	r6, 8000434 <__udivmoddi4+0x208>
 800041e:	ebb0 0208 	subs.w	r2, r0, r8
 8000422:	eb64 040e 	sbc.w	r4, r4, lr
 8000426:	fa04 f707 	lsl.w	r7, r4, r7
 800042a:	40ca      	lsrs	r2, r1
 800042c:	40cc      	lsrs	r4, r1
 800042e:	4317      	orrs	r7, r2
 8000430:	e9c6 7400 	strd	r7, r4, [r6]
 8000434:	4618      	mov	r0, r3
 8000436:	2100      	movs	r1, #0
 8000438:	e8bd 87f0 	ldmia.w	sp!, {r4, r5, r6, r7, r8, r9, sl, pc}
 800043c:	f1c3 0120 	rsb	r1, r3, #32
 8000440:	fa02 fc03 	lsl.w	ip, r2, r3
 8000444:	fa20 f201 	lsr.w	r2, r0, r1
 8000448:	fa25 f101 	lsr.w	r1, r5, r1
 800044c:	409d      	lsls	r5, r3
 800044e:	432a      	orrs	r2, r5
 8000450:	ea4f 471c 	mov.w	r7, ip, lsr #16
 8000454:	fa1f fe8c 	uxth.w	lr, ip
 8000458:	fbb1 f0f7 	udiv	r0, r1, r7
 800045c:	fb07 1510 	mls	r5, r7, r0, r1
 8000460:	0c11      	lsrs	r1, r2, #16
 8000462:	ea41 4105 	orr.w	r1, r1, r5, lsl #16
 8000466:	fb00 f50e 	mul.w	r5, r0, lr
 800046a:	428d      	cmp	r5, r1
 800046c:	fa04 f403 	lsl.w	r4, r4, r3
 8000470:	d908      	bls.n	8000484 <__udivmoddi4+0x258>
 8000472:	eb1c 0101 	adds.w	r1, ip, r1
 8000476:	f100 38ff 	add.w	r8, r0, #4294967295	; 0xffffffff
 800047a:	d22f      	bcs.n	80004dc <__udivmoddi4+0x2b0>
 800047c:	428d      	cmp	r5, r1
 800047e:	d92d      	bls.n	80004dc <__udivmoddi4+0x2b0>
 8000480:	3802      	subs	r0, #2
 8000482:	4461      	add	r1, ip
 8000484:	1b49      	subs	r1, r1, r5
 8000486:	b292      	uxth	r2, r2
 8000488:	fbb1 f5f7 	udiv	r5, r1, r7
 800048c:	fb07 1115 	mls	r1, r7, r5, r1
 8000490:	ea42 4201 	orr.w	r2, r2, r1, lsl #16
 8000494:	fb05 f10e 	mul.w	r1, r5, lr
 8000498:	4291      	cmp	r1, r2
 800049a:	d908      	bls.n	80004ae <__udivmoddi4+0x282>
 800049c:	eb1c 0202 	adds.w	r2, ip, r2
 80004a0:	f105 38ff 	add.w	r8, r5, #4294967295	; 0xffffffff
 80004a4:	d216      	bcs.n	80004d4 <__udivmoddi4+0x2a8>
 80004a6:	4291      	cmp	r1, r2
 80004a8:	d914      	bls.n	80004d4 <__udivmoddi4+0x2a8>
 80004aa:	3d02      	subs	r5, #2
 80004ac:	4462      	add	r2, ip
 80004ae:	1a52      	subs	r2, r2, r1
 80004b0:	ea45 4100 	orr.w	r1, r5, r0, lsl #16
 80004b4:	e738      	b.n	8000328 <__udivmoddi4+0xfc>
 80004b6:	4631      	mov	r1, r6
 80004b8:	4630      	mov	r0, r6
 80004ba:	e708      	b.n	80002ce <__udivmoddi4+0xa2>
 80004bc:	4639      	mov	r1, r7
 80004be:	e6e6      	b.n	800028e <__udivmoddi4+0x62>
 80004c0:	4610      	mov	r0, r2
 80004c2:	e6fb      	b.n	80002bc <__udivmoddi4+0x90>
 80004c4:	4548      	cmp	r0, r9
 80004c6:	d2a9      	bcs.n	800041c <__udivmoddi4+0x1f0>
 80004c8:	ebb9 0802 	subs.w	r8, r9, r2
 80004cc:	eb65 0e0c 	sbc.w	lr, r5, ip
 80004d0:	3b01      	subs	r3, #1
 80004d2:	e7a3      	b.n	800041c <__udivmoddi4+0x1f0>
 80004d4:	4645      	mov	r5, r8
 80004d6:	e7ea      	b.n	80004ae <__udivmoddi4+0x282>
 80004d8:	462b      	mov	r3, r5
 80004da:	e794      	b.n	8000406 <__udivmoddi4+0x1da>
 80004dc:	4640      	mov	r0, r8
 80004de:	e7d1      	b.n	8000484 <__udivmoddi4+0x258>
 80004e0:	46d0      	mov	r8, sl
 80004e2:	e77b      	b.n	80003dc <__udivmoddi4+0x1b0>
 80004e4:	3d02      	subs	r5, #2
 80004e6:	4462      	add	r2, ip
 80004e8:	e732      	b.n	8000350 <__udivmoddi4+0x124>
 80004ea:	4608      	mov	r0, r1
 80004ec:	e70a      	b.n	8000304 <__udivmoddi4+0xd8>
 80004ee:	4464      	add	r4, ip
 80004f0:	3802      	subs	r0, #2
 80004f2:	e742      	b.n	800037a <__udivmoddi4+0x14e>

080004f4 <__aeabi_idiv0>:
 80004f4:	4770      	bx	lr
 80004f6:	bf00      	nop

080004f8 <init_accel>:
uint8_t OUT_Y_L 				= 0x2A;
uint8_t OUT_Y_H 				= 0x2B;
uint8_t OUT_Z_L 				= 0x2C;
uint8_t OUT_Z_H 				= 0x2D;

HAL_StatusTypeDef init_accel(I2C_HandleTypeDef* hi2c) {
 80004f8:	b580      	push	{r7, lr}
 80004fa:	b084      	sub	sp, #16
 80004fc:	af00      	add	r7, sp, #0
 80004fe:	6078      	str	r0, [r7, #4]
	HAL_StatusTypeDef ret;

	// Write Control Register 1
	ret = i2c_write_reg(hi2c, H3LIS331DL_ADDR, &CTRL_REG1, MASK_1kHz);
 8000500:	2118      	movs	r1, #24
 8000502:	233f      	movs	r3, #63	; 0x3f
 8000504:	4a09      	ldr	r2, [pc, #36]	; (800052c <init_accel+0x34>)
 8000506:	6878      	ldr	r0, [r7, #4]
 8000508:	f000 fae8 	bl	8000adc <i2c_write_reg>
 800050c:	4603      	mov	r3, r0
 800050e:	73fb      	strb	r3, [r7, #15]

	// Write Control Register 4
	ret = i2c_write_reg(hi2c, H3LIS331DL_ADDR, &CTRL_REG4, MASK_100G);
 8000510:	2118      	movs	r1, #24
 8000512:	2300      	movs	r3, #0
 8000514:	4a06      	ldr	r2, [pc, #24]	; (8000530 <init_accel+0x38>)
 8000516:	6878      	ldr	r0, [r7, #4]
 8000518:	f000 fae0 	bl	8000adc <i2c_write_reg>
 800051c:	4603      	mov	r3, r0
 800051e:	73fb      	strb	r3, [r7, #15]

	return ret;
 8000520:	7bfb      	ldrb	r3, [r7, #15]
}
 8000522:	4618      	mov	r0, r3
 8000524:	3710      	adds	r7, #16
 8000526:	46bd      	mov	sp, r7
 8000528:	bd80      	pop	{r7, pc}
 800052a:	bf00      	nop
 800052c:	20000000 	.word	0x20000000
 8000530:	20000001 	.word	0x20000001

08000534 <readAccelerometer>:

void readAccelerometer(uint8_t values[6], I2C_HandleTypeDef* hi2c) {
 8000534:	b580      	push	{r7, lr}
 8000536:	b086      	sub	sp, #24
 8000538:	af00      	add	r7, sp, #0
 800053a:	6078      	str	r0, [r7, #4]
 800053c:	6039      	str	r1, [r7, #0]
	uint8_t buf_x[2];
	uint8_t buf_y[2];
	uint8_t buf_z[2];

	// Read X-Axis
	buf_x[0] = i2c_read_reg(hi2c, H3LIS331DL_ADDR, &OUT_X_L);
 800053e:	2318      	movs	r3, #24
 8000540:	4a2c      	ldr	r2, [pc, #176]	; (80005f4 <readAccelerometer+0xc0>)
 8000542:	4619      	mov	r1, r3
 8000544:	6838      	ldr	r0, [r7, #0]
 8000546:	f000 faa1 	bl	8000a8c <i2c_read_reg>
 800054a:	4603      	mov	r3, r0
 800054c:	743b      	strb	r3, [r7, #16]
	buf_x[1] = i2c_read_reg(hi2c, H3LIS331DL_ADDR, &OUT_X_H);
 800054e:	2318      	movs	r3, #24
 8000550:	4a29      	ldr	r2, [pc, #164]	; (80005f8 <readAccelerometer+0xc4>)
 8000552:	4619      	mov	r1, r3
 8000554:	6838      	ldr	r0, [r7, #0]
 8000556:	f000 fa99 	bl	8000a8c <i2c_read_reg>
 800055a:	4603      	mov	r3, r0
 800055c:	747b      	strb	r3, [r7, #17]

	// Read Y-Axis
	buf_y[0] = i2c_read_reg(hi2c, H3LIS331DL_ADDR, &OUT_Y_L);
 800055e:	2318      	movs	r3, #24
 8000560:	4a26      	ldr	r2, [pc, #152]	; (80005fc <readAccelerometer+0xc8>)
 8000562:	4619      	mov	r1, r3
 8000564:	6838      	ldr	r0, [r7, #0]
 8000566:	f000 fa91 	bl	8000a8c <i2c_read_reg>
 800056a:	4603      	mov	r3, r0
 800056c:	733b      	strb	r3, [r7, #12]
	buf_y[1] = i2c_read_reg(hi2c, H3LIS331DL_ADDR, &OUT_Y_H);
 800056e:	2318      	movs	r3, #24
 8000570:	4a23      	ldr	r2, [pc, #140]	; (8000600 <readAccelerometer+0xcc>)
 8000572:	4619      	mov	r1, r3
 8000574:	6838      	ldr	r0, [r7, #0]
 8000576:	f000 fa89 	bl	8000a8c <i2c_read_reg>
 800057a:	4603      	mov	r3, r0
 800057c:	737b      	strb	r3, [r7, #13]

	// Read Z-Axis
	buf_z[0] = i2c_read_reg(hi2c, H3LIS331DL_ADDR, &OUT_Z_L);
 800057e:	2318      	movs	r3, #24
 8000580:	4a20      	ldr	r2, [pc, #128]	; (8000604 <readAccelerometer+0xd0>)
 8000582:	4619      	mov	r1, r3
 8000584:	6838      	ldr	r0, [r7, #0]
 8000586:	f000 fa81 	bl	8000a8c <i2c_read_reg>
 800058a:	4603      	mov	r3, r0
 800058c:	723b      	strb	r3, [r7, #8]
	buf_z[1] = i2c_read_reg(hi2c, H3LIS331DL_ADDR, &OUT_Z_H);
 800058e:	2318      	movs	r3, #24
 8000590:	4a1d      	ldr	r2, [pc, #116]	; (8000608 <readAccelerometer+0xd4>)
 8000592:	4619      	mov	r1, r3
 8000594:	6838      	ldr	r0, [r7, #0]
 8000596:	f000 fa79 	bl	8000a8c <i2c_read_reg>
 800059a:	4603      	mov	r3, r0
 800059c:	727b      	strb	r3, [r7, #9]

	for (int i = 0; i < 2; i++) {
 800059e:	2300      	movs	r3, #0
 80005a0:	617b      	str	r3, [r7, #20]
 80005a2:	e01f      	b.n	80005e4 <readAccelerometer+0xb0>
		values[i] = buf_x[i];
 80005a4:	697b      	ldr	r3, [r7, #20]
 80005a6:	687a      	ldr	r2, [r7, #4]
 80005a8:	4413      	add	r3, r2
 80005aa:	f107 0110 	add.w	r1, r7, #16
 80005ae:	697a      	ldr	r2, [r7, #20]
 80005b0:	440a      	add	r2, r1
 80005b2:	7812      	ldrb	r2, [r2, #0]
 80005b4:	701a      	strb	r2, [r3, #0]
		values[i+2] = buf_y[i];
 80005b6:	697b      	ldr	r3, [r7, #20]
 80005b8:	3302      	adds	r3, #2
 80005ba:	687a      	ldr	r2, [r7, #4]
 80005bc:	4413      	add	r3, r2
 80005be:	f107 010c 	add.w	r1, r7, #12
 80005c2:	697a      	ldr	r2, [r7, #20]
 80005c4:	440a      	add	r2, r1
 80005c6:	7812      	ldrb	r2, [r2, #0]
 80005c8:	701a      	strb	r2, [r3, #0]
		values[i+4] = buf_z[i];
 80005ca:	697b      	ldr	r3, [r7, #20]
 80005cc:	3304      	adds	r3, #4
 80005ce:	687a      	ldr	r2, [r7, #4]
 80005d0:	4413      	add	r3, r2
 80005d2:	f107 0108 	add.w	r1, r7, #8
 80005d6:	697a      	ldr	r2, [r7, #20]
 80005d8:	440a      	add	r2, r1
 80005da:	7812      	ldrb	r2, [r2, #0]
 80005dc:	701a      	strb	r2, [r3, #0]
	for (int i = 0; i < 2; i++) {
 80005de:	697b      	ldr	r3, [r7, #20]
 80005e0:	3301      	adds	r3, #1
 80005e2:	617b      	str	r3, [r7, #20]
 80005e4:	697b      	ldr	r3, [r7, #20]
 80005e6:	2b01      	cmp	r3, #1
 80005e8:	dddc      	ble.n	80005a4 <readAccelerometer+0x70>
	}
}
 80005ea:	bf00      	nop
 80005ec:	bf00      	nop
 80005ee:	3718      	adds	r7, #24
 80005f0:	46bd      	mov	sp, r7
 80005f2:	bd80      	pop	{r7, pc}
 80005f4:	20000003 	.word	0x20000003
 80005f8:	20000004 	.word	0x20000004
 80005fc:	20000005 	.word	0x20000005
 8000600:	20000006 	.word	0x20000006
 8000604:	20000007 	.word	0x20000007
 8000608:	20000008 	.word	0x20000008

0800060c <readAccel_whoami>:

uint8_t readAccel_whoami(I2C_HandleTypeDef* hi2c) {
 800060c:	b580      	push	{r7, lr}
 800060e:	b082      	sub	sp, #8
 8000610:	af00      	add	r7, sp, #0
 8000612:	6078      	str	r0, [r7, #4]
	return i2c_read_reg(hi2c, H3LIS331DL_ADDR, &WHOAMI);
 8000614:	2318      	movs	r3, #24
 8000616:	4a05      	ldr	r2, [pc, #20]	; (800062c <readAccel_whoami+0x20>)
 8000618:	4619      	mov	r1, r3
 800061a:	6878      	ldr	r0, [r7, #4]
 800061c:	f000 fa36 	bl	8000a8c <i2c_read_reg>
 8000620:	4603      	mov	r3, r0
}
 8000622:	4618      	mov	r0, r3
 8000624:	3708      	adds	r7, #8
 8000626:	46bd      	mov	sp, r7
 8000628:	bd80      	pop	{r7, pc}
 800062a:	bf00      	nop
 800062c:	20000002 	.word	0x20000002

08000630 <init_bme280>:
uint8_t OUT_TEMP_H 			= 0xFA;
uint8_t OUT_HUM_L 			= 0xFE;
uint8_t OUT_HUM_H 			= 0xFD;


HAL_StatusTypeDef init_bme280(I2C_HandleTypeDef* hi2c, uint8_t bme) {
 8000630:	b580      	push	{r7, lr}
 8000632:	b084      	sub	sp, #16
 8000634:	af00      	add	r7, sp, #0
 8000636:	6078      	str	r0, [r7, #4]
 8000638:	460b      	mov	r3, r1
 800063a:	70fb      	strb	r3, [r7, #3]
	uint8_t bme_addr = 0;
 800063c:	2300      	movs	r3, #0
 800063e:	73fb      	strb	r3, [r7, #15]
	if (bme == 0) {
 8000640:	78fb      	ldrb	r3, [r7, #3]
 8000642:	2b00      	cmp	r3, #0
 8000644:	d102      	bne.n	800064c <init_bme280+0x1c>
		bme_addr = BME280_ADDR_0;
 8000646:	2376      	movs	r3, #118	; 0x76
 8000648:	73fb      	strb	r3, [r7, #15]
 800064a:	e004      	b.n	8000656 <init_bme280+0x26>
	} else if (bme == 1) {
 800064c:	78fb      	ldrb	r3, [r7, #3]
 800064e:	2b01      	cmp	r3, #1
 8000650:	d101      	bne.n	8000656 <init_bme280+0x26>
		bme_addr = BME280_ADDR_1;
 8000652:	2377      	movs	r3, #119	; 0x77
 8000654:	73fb      	strb	r3, [r7, #15]
	}

	HAL_StatusTypeDef ret;
	uint8_t control_reg = 0x00;
 8000656:	2300      	movs	r3, #0
 8000658:	73bb      	strb	r3, [r7, #14]

	// Reset the sensor
	ret =  i2c_write_reg(hi2c, bme_addr, &RST_REG, RST);
 800065a:	7bf9      	ldrb	r1, [r7, #15]
 800065c:	23b6      	movs	r3, #182	; 0xb6
 800065e:	4a19      	ldr	r2, [pc, #100]	; (80006c4 <init_bme280+0x94>)
 8000660:	6878      	ldr	r0, [r7, #4]
 8000662:	f000 fa3b 	bl	8000adc <i2c_write_reg>
 8000666:	4603      	mov	r3, r0
 8000668:	737b      	strb	r3, [r7, #13]

	// Set humidity control register
	control_reg = i2c_read_reg(hi2c, bme_addr, &CTRL_HUM_REG);
 800066a:	7bfb      	ldrb	r3, [r7, #15]
 800066c:	4a16      	ldr	r2, [pc, #88]	; (80006c8 <init_bme280+0x98>)
 800066e:	4619      	mov	r1, r3
 8000670:	6878      	ldr	r0, [r7, #4]
 8000672:	f000 fa0b 	bl	8000a8c <i2c_read_reg>
 8000676:	4603      	mov	r3, r0
 8000678:	73bb      	strb	r3, [r7, #14]
	control_reg = control_reg & 0xF8;
 800067a:	7bbb      	ldrb	r3, [r7, #14]
 800067c:	f023 0307 	bic.w	r3, r3, #7
 8000680:	73bb      	strb	r3, [r7, #14]
	control_reg = control_reg | CTRL_HUM_MSK;
 8000682:	7bbb      	ldrb	r3, [r7, #14]
 8000684:	f043 0301 	orr.w	r3, r3, #1
 8000688:	73bb      	strb	r3, [r7, #14]
	ret = i2c_write_reg(hi2c, bme_addr, &CTRL_HUM_REG, control_reg);
 800068a:	7bbb      	ldrb	r3, [r7, #14]
 800068c:	7bf9      	ldrb	r1, [r7, #15]
 800068e:	4a0e      	ldr	r2, [pc, #56]	; (80006c8 <init_bme280+0x98>)
 8000690:	6878      	ldr	r0, [r7, #4]
 8000692:	f000 fa23 	bl	8000adc <i2c_write_reg>
 8000696:	4603      	mov	r3, r0
 8000698:	737b      	strb	r3, [r7, #13]

	// Set measure control register
	ret = i2c_write_reg(hi2c, bme_addr, &CTRL_MEAS_REG, CTRL_MEAS_MSK);
 800069a:	7bf9      	ldrb	r1, [r7, #15]
 800069c:	2327      	movs	r3, #39	; 0x27
 800069e:	4a0b      	ldr	r2, [pc, #44]	; (80006cc <init_bme280+0x9c>)
 80006a0:	6878      	ldr	r0, [r7, #4]
 80006a2:	f000 fa1b 	bl	8000adc <i2c_write_reg>
 80006a6:	4603      	mov	r3, r0
 80006a8:	737b      	strb	r3, [r7, #13]

	// Set the config register
	ret = i2c_write_reg(hi2c, bme_addr, &CONF_REG, CONF_MSK);
 80006aa:	7bf9      	ldrb	r1, [r7, #15]
 80006ac:	2300      	movs	r3, #0
 80006ae:	4a08      	ldr	r2, [pc, #32]	; (80006d0 <init_bme280+0xa0>)
 80006b0:	6878      	ldr	r0, [r7, #4]
 80006b2:	f000 fa13 	bl	8000adc <i2c_write_reg>
 80006b6:	4603      	mov	r3, r0
 80006b8:	737b      	strb	r3, [r7, #13]

	return ret;
 80006ba:	7b7b      	ldrb	r3, [r7, #13]
}
 80006bc:	4618      	mov	r0, r3
 80006be:	3710      	adds	r7, #16
 80006c0:	46bd      	mov	sp, r7
 80006c2:	bd80      	pop	{r7, pc}
 80006c4:	2000000a 	.word	0x2000000a
 80006c8:	2000000b 	.word	0x2000000b
 80006cc:	2000000c 	.word	0x2000000c
 80006d0:	2000000d 	.word	0x2000000d

080006d4 <readBME280_id_reg>:

void readTempHumPres(uint8_t values[6], I2C_HandleTypeDef* hi2c) {

}

uint8_t readBME280_id_reg(I2C_HandleTypeDef* hi2c, uint8_t bme) {
 80006d4:	b580      	push	{r7, lr}
 80006d6:	b084      	sub	sp, #16
 80006d8:	af00      	add	r7, sp, #0
 80006da:	6078      	str	r0, [r7, #4]
 80006dc:	460b      	mov	r3, r1
 80006de:	70fb      	strb	r3, [r7, #3]
	uint8_t bme_addr = 0;
 80006e0:	2300      	movs	r3, #0
 80006e2:	73fb      	strb	r3, [r7, #15]
	if (bme == 0) {
 80006e4:	78fb      	ldrb	r3, [r7, #3]
 80006e6:	2b00      	cmp	r3, #0
 80006e8:	d102      	bne.n	80006f0 <readBME280_id_reg+0x1c>
		bme_addr = BME280_ADDR_0;
 80006ea:	2376      	movs	r3, #118	; 0x76
 80006ec:	73fb      	strb	r3, [r7, #15]
 80006ee:	e004      	b.n	80006fa <readBME280_id_reg+0x26>
	} else if (bme == 1) {
 80006f0:	78fb      	ldrb	r3, [r7, #3]
 80006f2:	2b01      	cmp	r3, #1
 80006f4:	d101      	bne.n	80006fa <readBME280_id_reg+0x26>
		bme_addr = BME280_ADDR_1;
 80006f6:	2377      	movs	r3, #119	; 0x77
 80006f8:	73fb      	strb	r3, [r7, #15]
	}

	return i2c_read_reg(hi2c, bme_addr, &ID_REG);
 80006fa:	7bfb      	ldrb	r3, [r7, #15]
 80006fc:	4a04      	ldr	r2, [pc, #16]	; (8000710 <readBME280_id_reg+0x3c>)
 80006fe:	4619      	mov	r1, r3
 8000700:	6878      	ldr	r0, [r7, #4]
 8000702:	f000 f9c3 	bl	8000a8c <i2c_read_reg>
 8000706:	4603      	mov	r3, r0
}
 8000708:	4618      	mov	r0, r3
 800070a:	3710      	adds	r7, #16
 800070c:	46bd      	mov	sp, r7
 800070e:	bd80      	pop	{r7, pc}
 8000710:	20000009 	.word	0x20000009

08000714 <getGPIOConfig>:
uint8_t FLASH_READEN 	= 0x03;			// Read enable to begin reading data
uint8_t FLASH_READ_MANU	= 0x90;			// Instruction code to read the manufacturer ID
uint8_t FLASH_32K_ERS	= 0x52;			// Erase all memory within a 32K-byte block
uint8_t FLASH_ERASE		= 0x60;			// Erase the entire chip

GPIO_Config getGPIOConfig(uint8_t flashNo) {
 8000714:	b480      	push	{r7}
 8000716:	b085      	sub	sp, #20
 8000718:	af00      	add	r7, sp, #0
 800071a:	6078      	str	r0, [r7, #4]
 800071c:	460b      	mov	r3, r1
 800071e:	70fb      	strb	r3, [r7, #3]
    GPIO_Config config;

    if (flashNo == 0) {
 8000720:	78fb      	ldrb	r3, [r7, #3]
 8000722:	2b00      	cmp	r3, #0
 8000724:	d104      	bne.n	8000730 <getGPIOConfig+0x1c>
        config.GPIOx = GPIOD;
 8000726:	4b0d      	ldr	r3, [pc, #52]	; (800075c <getGPIOConfig+0x48>)
 8000728:	60bb      	str	r3, [r7, #8]
        config.GPIO_Pin_CS = GPIO_PIN_2;
 800072a:	2304      	movs	r3, #4
 800072c:	81bb      	strh	r3, [r7, #12]
 800072e:	e007      	b.n	8000740 <getGPIOConfig+0x2c>
    } else if (flashNo == 1) {
 8000730:	78fb      	ldrb	r3, [r7, #3]
 8000732:	2b01      	cmp	r3, #1
 8000734:	d104      	bne.n	8000740 <getGPIOConfig+0x2c>
        config.GPIOx = GPIOB;
 8000736:	4b0a      	ldr	r3, [pc, #40]	; (8000760 <getGPIOConfig+0x4c>)
 8000738:	60bb      	str	r3, [r7, #8]
        config.GPIO_Pin_CS = GPIO_PIN_12;
 800073a:	f44f 5380 	mov.w	r3, #4096	; 0x1000
 800073e:	81bb      	strh	r3, [r7, #12]
    }

    return config;
 8000740:	687b      	ldr	r3, [r7, #4]
 8000742:	461a      	mov	r2, r3
 8000744:	f107 0308 	add.w	r3, r7, #8
 8000748:	e893 0003 	ldmia.w	r3, {r0, r1}
 800074c:	e882 0003 	stmia.w	r2, {r0, r1}
}
 8000750:	6878      	ldr	r0, [r7, #4]
 8000752:	3714      	adds	r7, #20
 8000754:	46bd      	mov	sp, r7
 8000756:	f85d 7b04 	ldr.w	r7, [sp], #4
 800075a:	4770      	bx	lr
 800075c:	40020c00 	.word	0x40020c00
 8000760:	40020400 	.word	0x40020400

08000764 <erase_chip_spi>:
 *      Author: aidencontini
 */

#include "data_output_spi.h"

HAL_StatusTypeDef erase_chip_spi(SPI_HandleTypeDef *hspi, uint8_t flashNo) {
 8000764:	b580      	push	{r7, lr}
 8000766:	b086      	sub	sp, #24
 8000768:	af00      	add	r7, sp, #0
 800076a:	6078      	str	r0, [r7, #4]
 800076c:	460b      	mov	r3, r1
 800076e:	70fb      	strb	r3, [r7, #3]
	GPIO_Config config = getGPIOConfig(flashNo);
 8000770:	f107 030c 	add.w	r3, r7, #12
 8000774:	78fa      	ldrb	r2, [r7, #3]
 8000776:	4611      	mov	r1, r2
 8000778:	4618      	mov	r0, r3
 800077a:	f7ff ffcb 	bl	8000714 <getGPIOConfig>

	uint8_t busy = 0x01;
 800077e:	2301      	movs	r3, #1
 8000780:	75fb      	strb	r3, [r7, #23]
	while(busy) {
 8000782:	e008      	b.n	8000796 <erase_chip_spi+0x32>
		busy = (check_status_register(hspi, flashNo) & 0x01);	// Check if there is a write in progress
 8000784:	78fb      	ldrb	r3, [r7, #3]
 8000786:	4619      	mov	r1, r3
 8000788:	6878      	ldr	r0, [r7, #4]
 800078a:	f000 f887 	bl	800089c <check_status_register>
 800078e:	4603      	mov	r3, r0
 8000790:	f003 0301 	and.w	r3, r3, #1
 8000794:	75fb      	strb	r3, [r7, #23]
	while(busy) {
 8000796:	7dfb      	ldrb	r3, [r7, #23]
 8000798:	2b00      	cmp	r3, #0
 800079a:	d1f3      	bne.n	8000784 <erase_chip_spi+0x20>
	}

	write_enable_spi(hspi, flashNo);
 800079c:	78fb      	ldrb	r3, [r7, #3]
 800079e:	4619      	mov	r1, r3
 80007a0:	6878      	ldr	r0, [r7, #4]
 80007a2:	f000 f81d 	bl	80007e0 <write_enable_spi>
	perform_operation(&FLASH_ERASE, hspi, config.GPIOx, config.GPIO_Pin_CS);
 80007a6:	68fa      	ldr	r2, [r7, #12]
 80007a8:	8a3b      	ldrh	r3, [r7, #16]
 80007aa:	6879      	ldr	r1, [r7, #4]
 80007ac:	480b      	ldr	r0, [pc, #44]	; (80007dc <erase_chip_spi+0x78>)
 80007ae:	f000 fd9e 	bl	80012ee <perform_operation>

	busy = 0x01;
 80007b2:	2301      	movs	r3, #1
 80007b4:	75fb      	strb	r3, [r7, #23]
	while(busy) {
 80007b6:	e008      	b.n	80007ca <erase_chip_spi+0x66>
		busy = (check_status_register(hspi, flashNo) & 0x01);	// Check if there is a write in progress
 80007b8:	78fb      	ldrb	r3, [r7, #3]
 80007ba:	4619      	mov	r1, r3
 80007bc:	6878      	ldr	r0, [r7, #4]
 80007be:	f000 f86d 	bl	800089c <check_status_register>
 80007c2:	4603      	mov	r3, r0
 80007c4:	f003 0301 	and.w	r3, r3, #1
 80007c8:	75fb      	strb	r3, [r7, #23]
	while(busy) {
 80007ca:	7dfb      	ldrb	r3, [r7, #23]
 80007cc:	2b00      	cmp	r3, #0
 80007ce:	d1f3      	bne.n	80007b8 <erase_chip_spi+0x54>
	}

	return HAL_OK;
 80007d0:	2300      	movs	r3, #0
}
 80007d2:	4618      	mov	r0, r3
 80007d4:	3718      	adds	r7, #24
 80007d6:	46bd      	mov	sp, r7
 80007d8:	bd80      	pop	{r7, pc}
 80007da:	bf00      	nop
 80007dc:	20000012 	.word	0x20000012

080007e0 <write_enable_spi>:

	write_enable_spi(hspi, flashNo);
	perform_operation(&FLASH_32K_ERS, hspi, config.GPIOx, config.GPIO_Pin_CS);
}

void write_enable_spi(SPI_HandleTypeDef *hspi, uint8_t flashNo) {
 80007e0:	b580      	push	{r7, lr}
 80007e2:	b084      	sub	sp, #16
 80007e4:	af00      	add	r7, sp, #0
 80007e6:	6078      	str	r0, [r7, #4]
 80007e8:	460b      	mov	r3, r1
 80007ea:	70fb      	strb	r3, [r7, #3]
	GPIO_Config config = getGPIOConfig(flashNo);
 80007ec:	f107 0308 	add.w	r3, r7, #8
 80007f0:	78fa      	ldrb	r2, [r7, #3]
 80007f2:	4611      	mov	r1, r2
 80007f4:	4618      	mov	r0, r3
 80007f6:	f7ff ff8d 	bl	8000714 <getGPIOConfig>
	perform_operation(&FLASH_WREN, hspi, config.GPIOx, config.GPIO_Pin_CS);
 80007fa:	68ba      	ldr	r2, [r7, #8]
 80007fc:	89bb      	ldrh	r3, [r7, #12]
 80007fe:	6879      	ldr	r1, [r7, #4]
 8000800:	4803      	ldr	r0, [pc, #12]	; (8000810 <write_enable_spi+0x30>)
 8000802:	f000 fd74 	bl	80012ee <perform_operation>
}
 8000806:	bf00      	nop
 8000808:	3710      	adds	r7, #16
 800080a:	46bd      	mov	sp, r7
 800080c:	bd80      	pop	{r7, pc}
 800080e:	bf00      	nop
 8000810:	2000000e 	.word	0x2000000e

08000814 <write_data_spi>:
void write_disable_spi(SPI_HandleTypeDef *hspi, uint8_t flashNo) {
	GPIO_Config config = getGPIOConfig(flashNo);
	perform_operation(&FLASH_WRDIS, hspi, config.GPIOx, config.GPIO_Pin_CS);
}

uint8_t write_data_spi(uint8_t page[PAGE_SIZE], GPIO_PinState flight_mode, SPI_HandleTypeDef *hspi, int addr, uint8_t flashNo) {
 8000814:	b580      	push	{r7, lr}
 8000816:	b08c      	sub	sp, #48	; 0x30
 8000818:	af04      	add	r7, sp, #16
 800081a:	60f8      	str	r0, [r7, #12]
 800081c:	607a      	str	r2, [r7, #4]
 800081e:	603b      	str	r3, [r7, #0]
 8000820:	460b      	mov	r3, r1
 8000822:	72fb      	strb	r3, [r7, #11]
	GPIO_Config config = getGPIOConfig(flashNo);
 8000824:	f107 0314 	add.w	r3, r7, #20
 8000828:	f897 2028 	ldrb.w	r2, [r7, #40]	; 0x28
 800082c:	4611      	mov	r1, r2
 800082e:	4618      	mov	r0, r3
 8000830:	f7ff ff70 	bl	8000714 <getGPIOConfig>
	uint8_t exit = EXIT_FAILURE;
 8000834:	2301      	movs	r3, #1
 8000836:	77fb      	strb	r3, [r7, #31]

	// If in flight mode, write data out to flash
	if(flight_mode == GPIO_PIN_SET) {
 8000838:	7afb      	ldrb	r3, [r7, #11]
 800083a:	2b01      	cmp	r3, #1
 800083c:	d125      	bne.n	800088a <write_data_spi+0x76>

		uint8_t busy = 0x01;
 800083e:	2301      	movs	r3, #1
 8000840:	77bb      	strb	r3, [r7, #30]
		while(busy) {
 8000842:	e009      	b.n	8000858 <write_data_spi+0x44>
			busy = (check_status_register(hspi, flashNo) & 0x01);	// Check if there is a write in progress
 8000844:	f897 3028 	ldrb.w	r3, [r7, #40]	; 0x28
 8000848:	4619      	mov	r1, r3
 800084a:	6878      	ldr	r0, [r7, #4]
 800084c:	f000 f826 	bl	800089c <check_status_register>
 8000850:	4603      	mov	r3, r0
 8000852:	f003 0301 	and.w	r3, r3, #1
 8000856:	77bb      	strb	r3, [r7, #30]
		while(busy) {
 8000858:	7fbb      	ldrb	r3, [r7, #30]
 800085a:	2b00      	cmp	r3, #0
 800085c:	d1f2      	bne.n	8000844 <write_data_spi+0x30>
		}

		// Send the write enable signal
		write_enable_spi(hspi, flashNo);
 800085e:	f897 3028 	ldrb.w	r3, [r7, #40]	; 0x28
 8000862:	4619      	mov	r1, r3
 8000864:	6878      	ldr	r0, [r7, #4]
 8000866:	f7ff ffbb 	bl	80007e0 <write_enable_spi>
		spi_write_data(&FLASH_PGWR, PAGE_SIZE, page, hspi, addr, config.GPIOx, config.GPIO_Pin_CS);
 800086a:	683b      	ldr	r3, [r7, #0]
 800086c:	697a      	ldr	r2, [r7, #20]
 800086e:	8b39      	ldrh	r1, [r7, #24]
 8000870:	9102      	str	r1, [sp, #8]
 8000872:	9201      	str	r2, [sp, #4]
 8000874:	9300      	str	r3, [sp, #0]
 8000876:	687b      	ldr	r3, [r7, #4]
 8000878:	68fa      	ldr	r2, [r7, #12]
 800087a:	f44f 7180 	mov.w	r1, #256	; 0x100
 800087e:	4806      	ldr	r0, [pc, #24]	; (8000898 <write_data_spi+0x84>)
 8000880:	f000 fd96 	bl	80013b0 <spi_write_data>
		exit = EXIT_SUCCESS;
 8000884:	2300      	movs	r3, #0
 8000886:	77fb      	strb	r3, [r7, #31]
 8000888:	e001      	b.n	800088e <write_data_spi+0x7a>

	// If not in flight mode, exit
	} else {
		exit = EXIT_SUCCESS;
 800088a:	2300      	movs	r3, #0
 800088c:	77fb      	strb	r3, [r7, #31]
	}
	return exit;
 800088e:	7ffb      	ldrb	r3, [r7, #31]
}
 8000890:	4618      	mov	r0, r3
 8000892:	3720      	adds	r7, #32
 8000894:	46bd      	mov	sp, r7
 8000896:	bd80      	pop	{r7, pc}
 8000898:	2000000f 	.word	0x2000000f

0800089c <check_status_register>:
 *      Author: aidencontini
 */

#include "data_read_spi.h"

uint8_t check_status_register(SPI_HandleTypeDef *hspi, uint8_t flashNo) {
 800089c:	b580      	push	{r7, lr}
 800089e:	b084      	sub	sp, #16
 80008a0:	af00      	add	r7, sp, #0
 80008a2:	6078      	str	r0, [r7, #4]
 80008a4:	460b      	mov	r3, r1
 80008a6:	70fb      	strb	r3, [r7, #3]
	GPIO_Config config = getGPIOConfig(flashNo);
 80008a8:	f107 0308 	add.w	r3, r7, #8
 80008ac:	78fa      	ldrb	r2, [r7, #3]
 80008ae:	4611      	mov	r1, r2
 80008b0:	4618      	mov	r0, r3
 80008b2:	f7ff ff2f 	bl	8000714 <getGPIOConfig>
	return spi_sendOp_readByte(&FLASH_READSR1, hspi, config.GPIOx, config.GPIO_Pin_CS);
 80008b6:	68ba      	ldr	r2, [r7, #8]
 80008b8:	89bb      	ldrh	r3, [r7, #12]
 80008ba:	6879      	ldr	r1, [r7, #4]
 80008bc:	4803      	ldr	r0, [pc, #12]	; (80008cc <check_status_register+0x30>)
 80008be:	f000 fcef 	bl	80012a0 <spi_sendOp_readByte>
 80008c2:	4603      	mov	r3, r0
}
 80008c4:	4618      	mov	r0, r3
 80008c6:	3710      	adds	r7, #16
 80008c8:	46bd      	mov	sp, r7
 80008ca:	bd80      	pop	{r7, pc}
 80008cc:	20000010 	.word	0x20000010

080008d0 <find_next_blank_page>:

uint32_t find_next_blank_page(SPI_HandleTypeDef *hspi, UART_HandleTypeDef *huart, GPIO_PinState *end_of_flash_ptr, uint8_t flashNo) {
 80008d0:	e92d 43f0 	stmdb	sp!, {r4, r5, r6, r7, r8, r9, lr}
 80008d4:	b093      	sub	sp, #76	; 0x4c
 80008d6:	af04      	add	r7, sp, #16
 80008d8:	60f8      	str	r0, [r7, #12]
 80008da:	60b9      	str	r1, [r7, #8]
 80008dc:	607a      	str	r2, [r7, #4]
 80008de:	70fb      	strb	r3, [r7, #3]
 80008e0:	466b      	mov	r3, sp
 80008e2:	461e      	mov	r6, r3
	uint8_t firstBytes = 4;
 80008e4:	2304      	movs	r3, #4
 80008e6:	f887 3026 	strb.w	r3, [r7, #38]	; 0x26
	GPIO_Config config = getGPIOConfig(flashNo);
 80008ea:	f107 0314 	add.w	r3, r7, #20
 80008ee:	78fa      	ldrb	r2, [r7, #3]
 80008f0:	4611      	mov	r1, r2
 80008f2:	4618      	mov	r0, r3
 80008f4:	f7ff ff0e 	bl	8000714 <getGPIOConfig>

	uint8_t page_start[firstBytes];
 80008f8:	f897 1026 	ldrb.w	r1, [r7, #38]	; 0x26
 80008fc:	460b      	mov	r3, r1
 80008fe:	3b01      	subs	r3, #1
 8000900:	623b      	str	r3, [r7, #32]
 8000902:	b2cb      	uxtb	r3, r1
 8000904:	2200      	movs	r2, #0
 8000906:	4698      	mov	r8, r3
 8000908:	4691      	mov	r9, r2
 800090a:	f04f 0200 	mov.w	r2, #0
 800090e:	f04f 0300 	mov.w	r3, #0
 8000912:	ea4f 03c9 	mov.w	r3, r9, lsl #3
 8000916:	ea43 7358 	orr.w	r3, r3, r8, lsr #29
 800091a:	ea4f 02c8 	mov.w	r2, r8, lsl #3
 800091e:	b2cb      	uxtb	r3, r1
 8000920:	2200      	movs	r2, #0
 8000922:	461c      	mov	r4, r3
 8000924:	4615      	mov	r5, r2
 8000926:	f04f 0200 	mov.w	r2, #0
 800092a:	f04f 0300 	mov.w	r3, #0
 800092e:	00eb      	lsls	r3, r5, #3
 8000930:	ea43 7354 	orr.w	r3, r3, r4, lsr #29
 8000934:	00e2      	lsls	r2, r4, #3
 8000936:	460b      	mov	r3, r1
 8000938:	3307      	adds	r3, #7
 800093a:	08db      	lsrs	r3, r3, #3
 800093c:	00db      	lsls	r3, r3, #3
 800093e:	ebad 0d03 	sub.w	sp, sp, r3
 8000942:	ab04      	add	r3, sp, #16
 8000944:	3300      	adds	r3, #0
 8000946:	61fb      	str	r3, [r7, #28]
	for (int i = 0; i < firstBytes; i++) {
 8000948:	2300      	movs	r3, #0
 800094a:	637b      	str	r3, [r7, #52]	; 0x34
 800094c:	e007      	b.n	800095e <find_next_blank_page+0x8e>
		page_start[i] = 0;
 800094e:	69fa      	ldr	r2, [r7, #28]
 8000950:	6b7b      	ldr	r3, [r7, #52]	; 0x34
 8000952:	4413      	add	r3, r2
 8000954:	2200      	movs	r2, #0
 8000956:	701a      	strb	r2, [r3, #0]
	for (int i = 0; i < firstBytes; i++) {
 8000958:	6b7b      	ldr	r3, [r7, #52]	; 0x34
 800095a:	3301      	adds	r3, #1
 800095c:	637b      	str	r3, [r7, #52]	; 0x34
 800095e:	f897 3026 	ldrb.w	r3, [r7, #38]	; 0x26
 8000962:	6b7a      	ldr	r2, [r7, #52]	; 0x34
 8000964:	429a      	cmp	r2, r3
 8000966:	dbf2      	blt.n	800094e <find_next_blank_page+0x7e>
	}

	uint32_t page_start_concat = (page_start[0] << 24) | (page_start[1] << 16) | (page_start[2] << 8) | page_start[3];
 8000968:	69fb      	ldr	r3, [r7, #28]
 800096a:	781b      	ldrb	r3, [r3, #0]
 800096c:	061a      	lsls	r2, r3, #24
 800096e:	69fb      	ldr	r3, [r7, #28]
 8000970:	785b      	ldrb	r3, [r3, #1]
 8000972:	041b      	lsls	r3, r3, #16
 8000974:	431a      	orrs	r2, r3
 8000976:	69fb      	ldr	r3, [r7, #28]
 8000978:	789b      	ldrb	r3, [r3, #2]
 800097a:	021b      	lsls	r3, r3, #8
 800097c:	4313      	orrs	r3, r2
 800097e:	69fa      	ldr	r2, [r7, #28]
 8000980:	78d2      	ldrb	r2, [r2, #3]
 8000982:	4313      	orrs	r3, r2
 8000984:	633b      	str	r3, [r7, #48]	; 0x30
	uint32_t temp = 0;
 8000986:	2300      	movs	r3, #0
 8000988:	62fb      	str	r3, [r7, #44]	; 0x2c
	uint32_t page_address = temp;
 800098a:	6afb      	ldr	r3, [r7, #44]	; 0x2c
 800098c:	62bb      	str	r3, [r7, #40]	; 0x28

	while ((page_start_concat != 0xFFFFFFFF) || (temp == NUM_OF_PAGES)) {
 800098e:	e034      	b.n	80009fa <find_next_blank_page+0x12a>
		page_address = temp;
 8000990:	6afb      	ldr	r3, [r7, #44]	; 0x2c
 8000992:	62bb      	str	r3, [r7, #40]	; 0x28

		uint8_t busy = 0x01;
 8000994:	2301      	movs	r3, #1
 8000996:	f887 3027 	strb.w	r3, [r7, #39]	; 0x27
		while(busy) {
 800099a:	e009      	b.n	80009b0 <find_next_blank_page+0xe0>
			busy = (check_status_register(hspi, flashNo) & 0x01);	// Check if there is a write in progress
 800099c:	78fb      	ldrb	r3, [r7, #3]
 800099e:	4619      	mov	r1, r3
 80009a0:	68f8      	ldr	r0, [r7, #12]
 80009a2:	f7ff ff7b 	bl	800089c <check_status_register>
 80009a6:	4603      	mov	r3, r0
 80009a8:	f003 0301 	and.w	r3, r3, #1
 80009ac:	f887 3027 	strb.w	r3, [r7, #39]	; 0x27
		while(busy) {
 80009b0:	f897 3027 	ldrb.w	r3, [r7, #39]	; 0x27
 80009b4:	2b00      	cmp	r3, #0
 80009b6:	d1f1      	bne.n	800099c <find_next_blank_page+0xcc>
		}

		spi_read_data(&FLASH_READEN, firstBytes, page_start, hspi, page_address, config.GPIOx, config.GPIO_Pin_CS);
 80009b8:	f897 3026 	ldrb.w	r3, [r7, #38]	; 0x26
 80009bc:	b299      	uxth	r1, r3
 80009be:	697b      	ldr	r3, [r7, #20]
 80009c0:	8b3a      	ldrh	r2, [r7, #24]
 80009c2:	9202      	str	r2, [sp, #8]
 80009c4:	9301      	str	r3, [sp, #4]
 80009c6:	6abb      	ldr	r3, [r7, #40]	; 0x28
 80009c8:	9300      	str	r3, [sp, #0]
 80009ca:	68fb      	ldr	r3, [r7, #12]
 80009cc:	69fa      	ldr	r2, [r7, #28]
 80009ce:	4816      	ldr	r0, [pc, #88]	; (8000a28 <find_next_blank_page+0x158>)
 80009d0:	f000 fcaa 	bl	8001328 <spi_read_data>

		page_start_concat = (page_start[0] << 24) | (page_start[1] << 16) | (page_start[2] << 8) | page_start[3];
 80009d4:	69fb      	ldr	r3, [r7, #28]
 80009d6:	781b      	ldrb	r3, [r3, #0]
 80009d8:	061a      	lsls	r2, r3, #24
 80009da:	69fb      	ldr	r3, [r7, #28]
 80009dc:	785b      	ldrb	r3, [r3, #1]
 80009de:	041b      	lsls	r3, r3, #16
 80009e0:	431a      	orrs	r2, r3
 80009e2:	69fb      	ldr	r3, [r7, #28]
 80009e4:	789b      	ldrb	r3, [r3, #2]
 80009e6:	021b      	lsls	r3, r3, #8
 80009e8:	4313      	orrs	r3, r2
 80009ea:	69fa      	ldr	r2, [r7, #28]
 80009ec:	78d2      	ldrb	r2, [r2, #3]
 80009ee:	4313      	orrs	r3, r2
 80009f0:	633b      	str	r3, [r7, #48]	; 0x30
		temp += PAGE_SIZE;
 80009f2:	6afb      	ldr	r3, [r7, #44]	; 0x2c
 80009f4:	f503 7380 	add.w	r3, r3, #256	; 0x100
 80009f8:	62fb      	str	r3, [r7, #44]	; 0x2c
	while ((page_start_concat != 0xFFFFFFFF) || (temp == NUM_OF_PAGES)) {
 80009fa:	6b3b      	ldr	r3, [r7, #48]	; 0x30
 80009fc:	f1b3 3fff 	cmp.w	r3, #4294967295	; 0xffffffff
 8000a00:	d1c6      	bne.n	8000990 <find_next_blank_page+0xc0>
 8000a02:	6afb      	ldr	r3, [r7, #44]	; 0x2c
 8000a04:	f5b3 3f80 	cmp.w	r3, #65536	; 0x10000
 8000a08:	d0c2      	beq.n	8000990 <find_next_blank_page+0xc0>
	}

	if (page_address == (NUM_OF_PAGES * PAGE_SIZE)) {
 8000a0a:	6abb      	ldr	r3, [r7, #40]	; 0x28
 8000a0c:	f1b3 7f80 	cmp.w	r3, #16777216	; 0x1000000
 8000a10:	d102      	bne.n	8000a18 <find_next_blank_page+0x148>
		*end_of_flash_ptr = GPIO_PIN_RESET;
 8000a12:	687b      	ldr	r3, [r7, #4]
 8000a14:	2200      	movs	r2, #0
 8000a16:	701a      	strb	r2, [r3, #0]
	}
	return page_address;
 8000a18:	6abb      	ldr	r3, [r7, #40]	; 0x28
 8000a1a:	46b5      	mov	sp, r6
}
 8000a1c:	4618      	mov	r0, r3
 8000a1e:	373c      	adds	r7, #60	; 0x3c
 8000a20:	46bd      	mov	sp, r7
 8000a22:	e8bd 83f0 	ldmia.w	sp!, {r4, r5, r6, r7, r8, r9, pc}
 8000a26:	bf00      	nop
 8000a28:	20000011 	.word	0x20000011

08000a2c <read_page_spi>:

void read_page_spi(uint8_t data_read[PAGE_SIZE], SPI_HandleTypeDef *hspi, uint32_t addr, uint8_t flashNo) {
 8000a2c:	b580      	push	{r7, lr}
 8000a2e:	b08c      	sub	sp, #48	; 0x30
 8000a30:	af04      	add	r7, sp, #16
 8000a32:	60f8      	str	r0, [r7, #12]
 8000a34:	60b9      	str	r1, [r7, #8]
 8000a36:	607a      	str	r2, [r7, #4]
 8000a38:	70fb      	strb	r3, [r7, #3]
	GPIO_Config config = getGPIOConfig(flashNo);
 8000a3a:	f107 0314 	add.w	r3, r7, #20
 8000a3e:	78fa      	ldrb	r2, [r7, #3]
 8000a40:	4611      	mov	r1, r2
 8000a42:	4618      	mov	r0, r3
 8000a44:	f7ff fe66 	bl	8000714 <getGPIOConfig>

	// Read the status register to ensure no write is currently in progress
	uint8_t busy = 0x01;
 8000a48:	2301      	movs	r3, #1
 8000a4a:	77fb      	strb	r3, [r7, #31]
	while(busy) {
 8000a4c:	e008      	b.n	8000a60 <read_page_spi+0x34>
		busy = (check_status_register(hspi, flashNo) & 0x01);	// Check if there is a write in progress
 8000a4e:	78fb      	ldrb	r3, [r7, #3]
 8000a50:	4619      	mov	r1, r3
 8000a52:	68b8      	ldr	r0, [r7, #8]
 8000a54:	f7ff ff22 	bl	800089c <check_status_register>
 8000a58:	4603      	mov	r3, r0
 8000a5a:	f003 0301 	and.w	r3, r3, #1
 8000a5e:	77fb      	strb	r3, [r7, #31]
	while(busy) {
 8000a60:	7ffb      	ldrb	r3, [r7, #31]
 8000a62:	2b00      	cmp	r3, #0
 8000a64:	d1f3      	bne.n	8000a4e <read_page_spi+0x22>
	}

	spi_read_data(&FLASH_READEN, PAGE_SIZE, data_read, hspi, addr, config.GPIOx, config.GPIO_Pin_CS);
 8000a66:	697b      	ldr	r3, [r7, #20]
 8000a68:	8b3a      	ldrh	r2, [r7, #24]
 8000a6a:	9202      	str	r2, [sp, #8]
 8000a6c:	9301      	str	r3, [sp, #4]
 8000a6e:	687b      	ldr	r3, [r7, #4]
 8000a70:	9300      	str	r3, [sp, #0]
 8000a72:	68bb      	ldr	r3, [r7, #8]
 8000a74:	68fa      	ldr	r2, [r7, #12]
 8000a76:	f44f 7180 	mov.w	r1, #256	; 0x100
 8000a7a:	4803      	ldr	r0, [pc, #12]	; (8000a88 <read_page_spi+0x5c>)
 8000a7c:	f000 fc54 	bl	8001328 <spi_read_data>
}
 8000a80:	bf00      	nop
 8000a82:	3720      	adds	r7, #32
 8000a84:	46bd      	mov	sp, r7
 8000a86:	bd80      	pop	{r7, pc}
 8000a88:	20000011 	.word	0x20000011

08000a8c <i2c_read_reg>:
 *      Author: aidencontini
 */

#include "i2c_driver.h"

uint8_t i2c_read_reg(I2C_HandleTypeDef* hi2c, uint8_t dev_addr, uint8_t* register_addr) {
 8000a8c:	b580      	push	{r7, lr}
 8000a8e:	b088      	sub	sp, #32
 8000a90:	af02      	add	r7, sp, #8
 8000a92:	60f8      	str	r0, [r7, #12]
 8000a94:	460b      	mov	r3, r1
 8000a96:	607a      	str	r2, [r7, #4]
 8000a98:	72fb      	strb	r3, [r7, #11]
	uint8_t read = 0x00;
 8000a9a:	2300      	movs	r3, #0
 8000a9c:	75fb      	strb	r3, [r7, #23]
	HAL_I2C_Master_Transmit(hi2c, (dev_addr << 1) | 0x00, register_addr, 1, 100);
 8000a9e:	7afb      	ldrb	r3, [r7, #11]
 8000aa0:	b29b      	uxth	r3, r3
 8000aa2:	005b      	lsls	r3, r3, #1
 8000aa4:	b299      	uxth	r1, r3
 8000aa6:	2364      	movs	r3, #100	; 0x64
 8000aa8:	9300      	str	r3, [sp, #0]
 8000aaa:	2301      	movs	r3, #1
 8000aac:	687a      	ldr	r2, [r7, #4]
 8000aae:	68f8      	ldr	r0, [r7, #12]
 8000ab0:	f001 fdbe 	bl	8002630 <HAL_I2C_Master_Transmit>
	HAL_I2C_Master_Receive(hi2c, (dev_addr << 1) | 0x01, &read, 1, 100);
 8000ab4:	7afb      	ldrb	r3, [r7, #11]
 8000ab6:	005b      	lsls	r3, r3, #1
 8000ab8:	b21b      	sxth	r3, r3
 8000aba:	f043 0301 	orr.w	r3, r3, #1
 8000abe:	b21b      	sxth	r3, r3
 8000ac0:	b299      	uxth	r1, r3
 8000ac2:	f107 0217 	add.w	r2, r7, #23
 8000ac6:	2364      	movs	r3, #100	; 0x64
 8000ac8:	9300      	str	r3, [sp, #0]
 8000aca:	2301      	movs	r3, #1
 8000acc:	68f8      	ldr	r0, [r7, #12]
 8000ace:	f001 fead 	bl	800282c <HAL_I2C_Master_Receive>
	return read;
 8000ad2:	7dfb      	ldrb	r3, [r7, #23]
}
 8000ad4:	4618      	mov	r0, r3
 8000ad6:	3718      	adds	r7, #24
 8000ad8:	46bd      	mov	sp, r7
 8000ada:	bd80      	pop	{r7, pc}

08000adc <i2c_write_reg>:

HAL_StatusTypeDef i2c_write_reg(I2C_HandleTypeDef* hi2c, uint8_t dev_addr, uint8_t* register_addr, uint8_t data) {
 8000adc:	b580      	push	{r7, lr}
 8000ade:	b088      	sub	sp, #32
 8000ae0:	af02      	add	r7, sp, #8
 8000ae2:	60f8      	str	r0, [r7, #12]
 8000ae4:	607a      	str	r2, [r7, #4]
 8000ae6:	461a      	mov	r2, r3
 8000ae8:	460b      	mov	r3, r1
 8000aea:	72fb      	strb	r3, [r7, #11]
 8000aec:	4613      	mov	r3, r2
 8000aee:	72bb      	strb	r3, [r7, #10]
	uint8_t data_tx[2] = {*register_addr, data};
 8000af0:	687b      	ldr	r3, [r7, #4]
 8000af2:	781b      	ldrb	r3, [r3, #0]
 8000af4:	753b      	strb	r3, [r7, #20]
 8000af6:	7abb      	ldrb	r3, [r7, #10]
 8000af8:	757b      	strb	r3, [r7, #21]
	return HAL_I2C_Master_Transmit(hi2c, (dev_addr << 1) | 0x00, data_tx, 2, 100);
 8000afa:	7afb      	ldrb	r3, [r7, #11]
 8000afc:	b29b      	uxth	r3, r3
 8000afe:	005b      	lsls	r3, r3, #1
 8000b00:	b299      	uxth	r1, r3
 8000b02:	f107 0214 	add.w	r2, r7, #20
 8000b06:	2364      	movs	r3, #100	; 0x64
 8000b08:	9300      	str	r3, [sp, #0]
 8000b0a:	2302      	movs	r3, #2
 8000b0c:	68f8      	ldr	r0, [r7, #12]
 8000b0e:	f001 fd8f 	bl	8002630 <HAL_I2C_Master_Transmit>
 8000b12:	4603      	mov	r3, r0
}
 8000b14:	4618      	mov	r0, r3
 8000b16:	3718      	adds	r7, #24
 8000b18:	46bd      	mov	sp, r7
 8000b1a:	bd80      	pop	{r7, pc}

08000b1c <main>:
/**
  * @brief  The application entry point.
  * @retval int
  */
int main(void)
{
 8000b1c:	b580      	push	{r7, lr}
 8000b1e:	b084      	sub	sp, #16
 8000b20:	af02      	add	r7, sp, #8
  /* USER CODE END 1 */

  /* MCU Configuration--------------------------------------------------------*/

  /* Reset of all peripherals, Initializes the Flash interface and the Systick. */
  HAL_Init();
 8000b22:	f001 f833 	bl	8001b8c <HAL_Init>
  /* USER CODE BEGIN Init */

  /* USER CODE END Init */

  /* Configure the system clock */
  SystemClock_Config();
 8000b26:	f000 f8a7 	bl	8000c78 <SystemClock_Config>
  /* USER CODE BEGIN SysInit */

  /* USER CODE END SysInit */

  /* Initialize all configured peripherals */
  MX_GPIO_Init();
 8000b2a:	f000 fa43 	bl	8000fb4 <MX_GPIO_Init>
  MX_I2C1_Init();
 8000b2e:	f000 f905 	bl	8000d3c <MX_I2C1_Init>
  MX_RTC_Init();
 8000b32:	f000 f983 	bl	8000e3c <MX_RTC_Init>
  MX_SPI1_Init();
 8000b36:	f000 f9a7 	bl	8000e88 <MX_SPI1_Init>
  MX_TIM6_Init();
 8000b3a:	f000 f9db 	bl	8000ef4 <MX_TIM6_Init>
  MX_USART2_UART_Init();
 8000b3e:	f000 fa0f 	bl	8000f60 <MX_USART2_UART_Init>
  MX_I2C2_Init();
 8000b42:	f000 f93b 	bl	8000dbc <MX_I2C2_Init>
  /* USER CODE BEGIN 2 */
  HAL_UART_Receive_IT(&huart2, UARTRxData,1);			// Initiate the UART Receive interrupt
 8000b46:	2201      	movs	r2, #1
 8000b48:	493e      	ldr	r1, [pc, #248]	; (8000c44 <main+0x128>)
 8000b4a:	483f      	ldr	r0, [pc, #252]	; (8000c48 <main+0x12c>)
 8000b4c:	f004 ffc5 	bl	8005ada <HAL_UART_Receive_IT>
  HAL_GPIO_WritePin(GPIOB, GPIO_PIN_7, GPIO_PIN_RESET);	// Turn LED off
 8000b50:	2200      	movs	r2, #0
 8000b52:	2180      	movs	r1, #128	; 0x80
 8000b54:	483d      	ldr	r0, [pc, #244]	; (8000c4c <main+0x130>)
 8000b56:	f001 fbf3 	bl	8002340 <HAL_GPIO_WritePin>
  HAL_TIM_Base_Start_IT(&htim6);
 8000b5a:	483d      	ldr	r0, [pc, #244]	; (8000c50 <main+0x134>)
 8000b5c:	f004 fbe4 	bl	8005328 <HAL_TIM_Base_Start_IT>
  byte_tracker = 0;
 8000b60:	4b3c      	ldr	r3, [pc, #240]	; (8000c54 <main+0x138>)
 8000b62:	2200      	movs	r2, #0
 8000b64:	801a      	strh	r2, [r3, #0]
  end_of_flash = GPIO_PIN_SET;
 8000b66:	4b3c      	ldr	r3, [pc, #240]	; (8000c58 <main+0x13c>)
 8000b68:	2201      	movs	r2, #1
 8000b6a:	701a      	strb	r2, [r3, #0]
  clean_data_buffer();
 8000b6c:	f000 fb0a 	bl	8001184 <clean_data_buffer>
  initialise_rtc_default(&hrtc);
 8000b70:	483a      	ldr	r0, [pc, #232]	; (8000c5c <main+0x140>)
 8000b72:	f000 fb27 	bl	80011c4 <initialise_rtc_default>
  init_accel(&hi2c1);
 8000b76:	483a      	ldr	r0, [pc, #232]	; (8000c60 <main+0x144>)
 8000b78:	f7ff fcbe 	bl	80004f8 <init_accel>
  init_bme280(&hi2c2, 0);
 8000b7c:	2100      	movs	r1, #0
 8000b7e:	4839      	ldr	r0, [pc, #228]	; (8000c64 <main+0x148>)
 8000b80:	f7ff fd56 	bl	8000630 <init_bme280>
//  init_bme280(&hi2c2, 1);
  HAL_UART_Receive_IT(&huart2, UARTRxData,1);				// Initiate the UART Receive interrupt
 8000b84:	2201      	movs	r2, #1
 8000b86:	492f      	ldr	r1, [pc, #188]	; (8000c44 <main+0x128>)
 8000b88:	482f      	ldr	r0, [pc, #188]	; (8000c48 <main+0x12c>)
 8000b8a:	f004 ffa6 	bl	8005ada <HAL_UART_Receive_IT>
  HAL_GPIO_WritePin(GPIOD, GPIO_PIN_2, GPIO_PIN_SET);		// SET SPI CS High to disable bus
 8000b8e:	2201      	movs	r2, #1
 8000b90:	2104      	movs	r1, #4
 8000b92:	4835      	ldr	r0, [pc, #212]	; (8000c68 <main+0x14c>)
 8000b94:	f001 fbd4 	bl	8002340 <HAL_GPIO_WritePin>
  HAL_GPIO_WritePin(GPIOB, GPIO_PIN_7, GPIO_PIN_RESET);		// Turn LED off
 8000b98:	2200      	movs	r2, #0
 8000b9a:	2180      	movs	r1, #128	; 0x80
 8000b9c:	482b      	ldr	r0, [pc, #172]	; (8000c4c <main+0x130>)
 8000b9e:	f001 fbcf 	bl	8002340 <HAL_GPIO_WritePin>

  /**
  next_blank_page = find_next_blank_page(&hspi1, &huart2, &end_of_flash);
  **/

  HAL_TIM_Base_Start_IT(&htim6);
 8000ba2:	482b      	ldr	r0, [pc, #172]	; (8000c50 <main+0x134>)
 8000ba4:	f004 fbc0 	bl	8005328 <HAL_TIM_Base_Start_IT>
  {
    /* USER CODE END WHILE */

    /* USER CODE BEGIN 3 */
    // If at the end of the data buffer, write the page out
    if(byte_tracker > (PAGE_SIZE - READ_SIZE)) {
 8000ba8:	4b2a      	ldr	r3, [pc, #168]	; (8000c54 <main+0x138>)
 8000baa:	881b      	ldrh	r3, [r3, #0]
 8000bac:	2bf6      	cmp	r3, #246	; 0xf6
 8000bae:	d9fb      	bls.n	8000ba8 <main+0x8c>
      GPIO_PinState flight_mode = HAL_GPIO_ReadPin(GPIOB, GPIO_PIN_1);
 8000bb0:	2102      	movs	r1, #2
 8000bb2:	4826      	ldr	r0, [pc, #152]	; (8000c4c <main+0x130>)
 8000bb4:	f001 fbac 	bl	8002310 <HAL_GPIO_ReadPin>
 8000bb8:	4603      	mov	r3, r0
 8000bba:	71fb      	strb	r3, [r7, #7]
      if((flight_mode & end_of_flash) == GPIO_PIN_SET) {
 8000bbc:	4b26      	ldr	r3, [pc, #152]	; (8000c58 <main+0x13c>)
 8000bbe:	781a      	ldrb	r2, [r3, #0]
 8000bc0:	79fb      	ldrb	r3, [r7, #7]
 8000bc2:	4013      	ands	r3, r2
 8000bc4:	b2db      	uxtb	r3, r3
 8000bc6:	2b01      	cmp	r3, #1
 8000bc8:	d136      	bne.n	8000c38 <main+0x11c>
        // Disable interrupts briefly
        HAL_UART_AbortReceive_IT(&huart2); // Disable UART receive interrupt
 8000bca:	481f      	ldr	r0, [pc, #124]	; (8000c48 <main+0x12c>)
 8000bcc:	f004 ffaa 	bl	8005b24 <HAL_UART_AbortReceive_IT>
        HAL_TIM_Base_Stop_IT(&htim6); // Disable timer interrupt
 8000bd0:	481f      	ldr	r0, [pc, #124]	; (8000c50 <main+0x134>)
 8000bd2:	f004 fc19 	bl	8005408 <HAL_TIM_Base_Stop_IT>
        HAL_GPIO_WritePin(GPIOB, GPIO_PIN_7, GPIO_PIN_SET);		// Toggle LED when writing data
 8000bd6:	2201      	movs	r2, #1
 8000bd8:	2180      	movs	r1, #128	; 0x80
 8000bda:	481c      	ldr	r0, [pc, #112]	; (8000c4c <main+0x130>)
 8000bdc:	f001 fbb0 	bl	8002340 <HAL_GPIO_WritePin>
        write_data_spi(data_buffer, flight_mode, &hspi1, next_blank_page, 0);
 8000be0:	4b22      	ldr	r3, [pc, #136]	; (8000c6c <main+0x150>)
 8000be2:	681b      	ldr	r3, [r3, #0]
 8000be4:	461a      	mov	r2, r3
 8000be6:	79f9      	ldrb	r1, [r7, #7]
 8000be8:	2300      	movs	r3, #0
 8000bea:	9300      	str	r3, [sp, #0]
 8000bec:	4613      	mov	r3, r2
 8000bee:	4a20      	ldr	r2, [pc, #128]	; (8000c70 <main+0x154>)
 8000bf0:	4820      	ldr	r0, [pc, #128]	; (8000c74 <main+0x158>)
 8000bf2:	f7ff fe0f 	bl	8000814 <write_data_spi>
        next_blank_page += PAGE_SIZE;
 8000bf6:	4b1d      	ldr	r3, [pc, #116]	; (8000c6c <main+0x150>)
 8000bf8:	681b      	ldr	r3, [r3, #0]
 8000bfa:	f503 7380 	add.w	r3, r3, #256	; 0x100
 8000bfe:	4a1b      	ldr	r2, [pc, #108]	; (8000c6c <main+0x150>)
 8000c00:	6013      	str	r3, [r2, #0]

        // Renenable interrupts
        HAL_UART_Receive_IT(&huart2, UARTRxData,1);			// Initiate the UART Receive interrupt
 8000c02:	2201      	movs	r2, #1
 8000c04:	490f      	ldr	r1, [pc, #60]	; (8000c44 <main+0x128>)
 8000c06:	4810      	ldr	r0, [pc, #64]	; (8000c48 <main+0x12c>)
 8000c08:	f004 ff67 	bl	8005ada <HAL_UART_Receive_IT>
        HAL_TIM_Base_Start_IT(&htim6);
 8000c0c:	4810      	ldr	r0, [pc, #64]	; (8000c50 <main+0x134>)
 8000c0e:	f004 fb8b 	bl	8005328 <HAL_TIM_Base_Start_IT>

        if(next_blank_page == (NUM_OF_PAGES*PAGE_SIZE)) {
 8000c12:	4b16      	ldr	r3, [pc, #88]	; (8000c6c <main+0x150>)
 8000c14:	681b      	ldr	r3, [r3, #0]
 8000c16:	f1b3 7f80 	cmp.w	r3, #16777216	; 0x1000000
 8000c1a:	d108      	bne.n	8000c2e <main+0x112>
          next_blank_page = find_next_blank_page(&hspi1, &huart2, &end_of_flash, 0);
 8000c1c:	2300      	movs	r3, #0
 8000c1e:	4a0e      	ldr	r2, [pc, #56]	; (8000c58 <main+0x13c>)
 8000c20:	4909      	ldr	r1, [pc, #36]	; (8000c48 <main+0x12c>)
 8000c22:	4813      	ldr	r0, [pc, #76]	; (8000c70 <main+0x154>)
 8000c24:	f7ff fe54 	bl	80008d0 <find_next_blank_page>
 8000c28:	4603      	mov	r3, r0
 8000c2a:	4a10      	ldr	r2, [pc, #64]	; (8000c6c <main+0x150>)
 8000c2c:	6013      	str	r3, [r2, #0]
        }
        HAL_GPIO_WritePin(GPIOB, GPIO_PIN_7, GPIO_PIN_RESET);		// Toggle LED when writing data
 8000c2e:	2200      	movs	r2, #0
 8000c30:	2180      	movs	r1, #128	; 0x80
 8000c32:	4806      	ldr	r0, [pc, #24]	; (8000c4c <main+0x130>)
 8000c34:	f001 fb84 	bl	8002340 <HAL_GPIO_WritePin>
      }
      byte_tracker = 0;
 8000c38:	4b06      	ldr	r3, [pc, #24]	; (8000c54 <main+0x138>)
 8000c3a:	2200      	movs	r2, #0
 8000c3c:	801a      	strh	r2, [r3, #0]
      clean_data_buffer();
 8000c3e:	f000 faa1 	bl	8001184 <clean_data_buffer>
    if(byte_tracker > (PAGE_SIZE - READ_SIZE)) {
 8000c42:	e7b1      	b.n	8000ba8 <main+0x8c>
 8000c44:	200001f0 	.word	0x200001f0
 8000c48:	200001a8 	.word	0x200001a8
 8000c4c:	40020400 	.word	0x40020400
 8000c50:	20000160 	.word	0x20000160
 8000c54:	200002f8 	.word	0x200002f8
 8000c58:	200002fa 	.word	0x200002fa
 8000c5c:	200000e8 	.word	0x200000e8
 8000c60:	20000040 	.word	0x20000040
 8000c64:	20000094 	.word	0x20000094
 8000c68:	40020c00 	.word	0x40020c00
 8000c6c:	200002f4 	.word	0x200002f4
 8000c70:	20000108 	.word	0x20000108
 8000c74:	200001f4 	.word	0x200001f4

08000c78 <SystemClock_Config>:
/**
  * @brief System Clock Configuration
  * @retval None
  */
void SystemClock_Config(void)
{
 8000c78:	b580      	push	{r7, lr}
 8000c7a:	b094      	sub	sp, #80	; 0x50
 8000c7c:	af00      	add	r7, sp, #0
  RCC_OscInitTypeDef RCC_OscInitStruct = {0};
 8000c7e:	f107 0320 	add.w	r3, r7, #32
 8000c82:	2230      	movs	r2, #48	; 0x30
 8000c84:	2100      	movs	r1, #0
 8000c86:	4618      	mov	r0, r3
 8000c88:	f005 ff76 	bl	8006b78 <memset>
  RCC_ClkInitTypeDef RCC_ClkInitStruct = {0};
 8000c8c:	f107 030c 	add.w	r3, r7, #12
 8000c90:	2200      	movs	r2, #0
 8000c92:	601a      	str	r2, [r3, #0]
 8000c94:	605a      	str	r2, [r3, #4]
 8000c96:	609a      	str	r2, [r3, #8]
 8000c98:	60da      	str	r2, [r3, #12]
 8000c9a:	611a      	str	r2, [r3, #16]

  /** Configure the main internal regulator output voltage
  */
  __HAL_RCC_PWR_CLK_ENABLE();
 8000c9c:	2300      	movs	r3, #0
 8000c9e:	60bb      	str	r3, [r7, #8]
 8000ca0:	4b24      	ldr	r3, [pc, #144]	; (8000d34 <SystemClock_Config+0xbc>)
 8000ca2:	6c1b      	ldr	r3, [r3, #64]	; 0x40
 8000ca4:	4a23      	ldr	r2, [pc, #140]	; (8000d34 <SystemClock_Config+0xbc>)
 8000ca6:	f043 5380 	orr.w	r3, r3, #268435456	; 0x10000000
 8000caa:	6413      	str	r3, [r2, #64]	; 0x40
 8000cac:	4b21      	ldr	r3, [pc, #132]	; (8000d34 <SystemClock_Config+0xbc>)
 8000cae:	6c1b      	ldr	r3, [r3, #64]	; 0x40
 8000cb0:	f003 5380 	and.w	r3, r3, #268435456	; 0x10000000
 8000cb4:	60bb      	str	r3, [r7, #8]
 8000cb6:	68bb      	ldr	r3, [r7, #8]
  __HAL_PWR_VOLTAGESCALING_CONFIG(PWR_REGULATOR_VOLTAGE_SCALE3);
 8000cb8:	2300      	movs	r3, #0
 8000cba:	607b      	str	r3, [r7, #4]
 8000cbc:	4b1e      	ldr	r3, [pc, #120]	; (8000d38 <SystemClock_Config+0xc0>)
 8000cbe:	681b      	ldr	r3, [r3, #0]
 8000cc0:	f423 4340 	bic.w	r3, r3, #49152	; 0xc000
 8000cc4:	4a1c      	ldr	r2, [pc, #112]	; (8000d38 <SystemClock_Config+0xc0>)
 8000cc6:	f443 4380 	orr.w	r3, r3, #16384	; 0x4000
 8000cca:	6013      	str	r3, [r2, #0]
 8000ccc:	4b1a      	ldr	r3, [pc, #104]	; (8000d38 <SystemClock_Config+0xc0>)
 8000cce:	681b      	ldr	r3, [r3, #0]
 8000cd0:	f403 4340 	and.w	r3, r3, #49152	; 0xc000
 8000cd4:	607b      	str	r3, [r7, #4]
 8000cd6:	687b      	ldr	r3, [r7, #4]

  /** Initializes the RCC Oscillators according to the specified parameters
  * in the RCC_OscInitTypeDef structure.
  */
  RCC_OscInitStruct.OscillatorType = RCC_OSCILLATORTYPE_HSI|RCC_OSCILLATORTYPE_LSI;
 8000cd8:	230a      	movs	r3, #10
 8000cda:	623b      	str	r3, [r7, #32]
  RCC_OscInitStruct.HSIState = RCC_HSI_ON;
 8000cdc:	2301      	movs	r3, #1
 8000cde:	62fb      	str	r3, [r7, #44]	; 0x2c
  RCC_OscInitStruct.HSICalibrationValue = RCC_HSICALIBRATION_DEFAULT;
 8000ce0:	2310      	movs	r3, #16
 8000ce2:	633b      	str	r3, [r7, #48]	; 0x30
  RCC_OscInitStruct.LSIState = RCC_LSI_ON;
 8000ce4:	2301      	movs	r3, #1
 8000ce6:	637b      	str	r3, [r7, #52]	; 0x34
  RCC_OscInitStruct.PLL.PLLState = RCC_PLL_NONE;
 8000ce8:	2300      	movs	r3, #0
 8000cea:	63bb      	str	r3, [r7, #56]	; 0x38
  if (HAL_RCC_OscConfig(&RCC_OscInitStruct) != HAL_OK)
 8000cec:	f107 0320 	add.w	r3, r7, #32
 8000cf0:	4618      	mov	r0, r3
 8000cf2:	f002 fbcf 	bl	8003494 <HAL_RCC_OscConfig>
 8000cf6:	4603      	mov	r3, r0
 8000cf8:	2b00      	cmp	r3, #0
 8000cfa:	d001      	beq.n	8000d00 <SystemClock_Config+0x88>
  {
    Error_Handler();
 8000cfc:	f000 fa5c 	bl	80011b8 <Error_Handler>
  }

  /** Initializes the CPU, AHB and APB buses clocks
  */
  RCC_ClkInitStruct.ClockType = RCC_CLOCKTYPE_HCLK|RCC_CLOCKTYPE_SYSCLK
 8000d00:	230f      	movs	r3, #15
 8000d02:	60fb      	str	r3, [r7, #12]
                              |RCC_CLOCKTYPE_PCLK1|RCC_CLOCKTYPE_PCLK2;
  RCC_ClkInitStruct.SYSCLKSource = RCC_SYSCLKSOURCE_HSI;
 8000d04:	2300      	movs	r3, #0
 8000d06:	613b      	str	r3, [r7, #16]
  RCC_ClkInitStruct.AHBCLKDivider = RCC_SYSCLK_DIV1;
 8000d08:	2300      	movs	r3, #0
 8000d0a:	617b      	str	r3, [r7, #20]
  RCC_ClkInitStruct.APB1CLKDivider = RCC_HCLK_DIV1;
 8000d0c:	2300      	movs	r3, #0
 8000d0e:	61bb      	str	r3, [r7, #24]
  RCC_ClkInitStruct.APB2CLKDivider = RCC_HCLK_DIV1;
 8000d10:	2300      	movs	r3, #0
 8000d12:	61fb      	str	r3, [r7, #28]

  if (HAL_RCC_ClockConfig(&RCC_ClkInitStruct, FLASH_LATENCY_0) != HAL_OK)
 8000d14:	f107 030c 	add.w	r3, r7, #12
 8000d18:	2100      	movs	r1, #0
 8000d1a:	4618      	mov	r0, r3
 8000d1c:	f002 fe32 	bl	8003984 <HAL_RCC_ClockConfig>
 8000d20:	4603      	mov	r3, r0
 8000d22:	2b00      	cmp	r3, #0
 8000d24:	d001      	beq.n	8000d2a <SystemClock_Config+0xb2>
  {
    Error_Handler();
 8000d26:	f000 fa47 	bl	80011b8 <Error_Handler>
  }
}
 8000d2a:	bf00      	nop
 8000d2c:	3750      	adds	r7, #80	; 0x50
 8000d2e:	46bd      	mov	sp, r7
 8000d30:	bd80      	pop	{r7, pc}
 8000d32:	bf00      	nop
 8000d34:	40023800 	.word	0x40023800
 8000d38:	40007000 	.word	0x40007000

08000d3c <MX_I2C1_Init>:
  * @brief I2C1 Initialization Function
  * @param None
  * @retval None
  */
static void MX_I2C1_Init(void)
{
 8000d3c:	b580      	push	{r7, lr}
 8000d3e:	af00      	add	r7, sp, #0
  /* USER CODE END I2C1_Init 0 */

  /* USER CODE BEGIN I2C1_Init 1 */

  /* USER CODE END I2C1_Init 1 */
  hi2c1.Instance = I2C1;
 8000d40:	4b1b      	ldr	r3, [pc, #108]	; (8000db0 <MX_I2C1_Init+0x74>)
 8000d42:	4a1c      	ldr	r2, [pc, #112]	; (8000db4 <MX_I2C1_Init+0x78>)
 8000d44:	601a      	str	r2, [r3, #0]
  hi2c1.Init.ClockSpeed = 100000;
 8000d46:	4b1a      	ldr	r3, [pc, #104]	; (8000db0 <MX_I2C1_Init+0x74>)
 8000d48:	4a1b      	ldr	r2, [pc, #108]	; (8000db8 <MX_I2C1_Init+0x7c>)
 8000d4a:	605a      	str	r2, [r3, #4]
  hi2c1.Init.DutyCycle = I2C_DUTYCYCLE_2;
 8000d4c:	4b18      	ldr	r3, [pc, #96]	; (8000db0 <MX_I2C1_Init+0x74>)
 8000d4e:	2200      	movs	r2, #0
 8000d50:	609a      	str	r2, [r3, #8]
  hi2c1.Init.OwnAddress1 = 0;
 8000d52:	4b17      	ldr	r3, [pc, #92]	; (8000db0 <MX_I2C1_Init+0x74>)
 8000d54:	2200      	movs	r2, #0
 8000d56:	60da      	str	r2, [r3, #12]
  hi2c1.Init.AddressingMode = I2C_ADDRESSINGMODE_7BIT;
 8000d58:	4b15      	ldr	r3, [pc, #84]	; (8000db0 <MX_I2C1_Init+0x74>)
 8000d5a:	f44f 4280 	mov.w	r2, #16384	; 0x4000
 8000d5e:	611a      	str	r2, [r3, #16]
  hi2c1.Init.DualAddressMode = I2C_DUALADDRESS_DISABLE;
 8000d60:	4b13      	ldr	r3, [pc, #76]	; (8000db0 <MX_I2C1_Init+0x74>)
 8000d62:	2200      	movs	r2, #0
 8000d64:	615a      	str	r2, [r3, #20]
  hi2c1.Init.OwnAddress2 = 0;
 8000d66:	4b12      	ldr	r3, [pc, #72]	; (8000db0 <MX_I2C1_Init+0x74>)
 8000d68:	2200      	movs	r2, #0
 8000d6a:	619a      	str	r2, [r3, #24]
  hi2c1.Init.GeneralCallMode = I2C_GENERALCALL_DISABLE;
 8000d6c:	4b10      	ldr	r3, [pc, #64]	; (8000db0 <MX_I2C1_Init+0x74>)
 8000d6e:	2200      	movs	r2, #0
 8000d70:	61da      	str	r2, [r3, #28]
  hi2c1.Init.NoStretchMode = I2C_NOSTRETCH_DISABLE;
 8000d72:	4b0f      	ldr	r3, [pc, #60]	; (8000db0 <MX_I2C1_Init+0x74>)
 8000d74:	2200      	movs	r2, #0
 8000d76:	621a      	str	r2, [r3, #32]
  if (HAL_I2C_Init(&hi2c1) != HAL_OK)
 8000d78:	480d      	ldr	r0, [pc, #52]	; (8000db0 <MX_I2C1_Init+0x74>)
 8000d7a:	f001 fb15 	bl	80023a8 <HAL_I2C_Init>
 8000d7e:	4603      	mov	r3, r0
 8000d80:	2b00      	cmp	r3, #0
 8000d82:	d001      	beq.n	8000d88 <MX_I2C1_Init+0x4c>
  {
    Error_Handler();
 8000d84:	f000 fa18 	bl	80011b8 <Error_Handler>
  }

  /** Configure Analogue filter
  */
  if (HAL_I2CEx_ConfigAnalogFilter(&hi2c1, I2C_ANALOGFILTER_ENABLE) != HAL_OK)
 8000d88:	2100      	movs	r1, #0
 8000d8a:	4809      	ldr	r0, [pc, #36]	; (8000db0 <MX_I2C1_Init+0x74>)
 8000d8c:	f002 fb06 	bl	800339c <HAL_I2CEx_ConfigAnalogFilter>
 8000d90:	4603      	mov	r3, r0
 8000d92:	2b00      	cmp	r3, #0
 8000d94:	d001      	beq.n	8000d9a <MX_I2C1_Init+0x5e>
  {
    Error_Handler();
 8000d96:	f000 fa0f 	bl	80011b8 <Error_Handler>
  }

  /** Configure Digital filter
  */
  if (HAL_I2CEx_ConfigDigitalFilter(&hi2c1, 0) != HAL_OK)
 8000d9a:	2100      	movs	r1, #0
 8000d9c:	4804      	ldr	r0, [pc, #16]	; (8000db0 <MX_I2C1_Init+0x74>)
 8000d9e:	f002 fb39 	bl	8003414 <HAL_I2CEx_ConfigDigitalFilter>
 8000da2:	4603      	mov	r3, r0
 8000da4:	2b00      	cmp	r3, #0
 8000da6:	d001      	beq.n	8000dac <MX_I2C1_Init+0x70>
  {
    Error_Handler();
 8000da8:	f000 fa06 	bl	80011b8 <Error_Handler>
  }
  /* USER CODE BEGIN I2C1_Init 2 */

  /* USER CODE END I2C1_Init 2 */

}
 8000dac:	bf00      	nop
 8000dae:	bd80      	pop	{r7, pc}
 8000db0:	20000040 	.word	0x20000040
 8000db4:	40005400 	.word	0x40005400
 8000db8:	000186a0 	.word	0x000186a0

08000dbc <MX_I2C2_Init>:
  * @brief I2C2 Initialization Function
  * @param None
  * @retval None
  */
static void MX_I2C2_Init(void)
{
 8000dbc:	b580      	push	{r7, lr}
 8000dbe:	af00      	add	r7, sp, #0
  /* USER CODE END I2C2_Init 0 */

  /* USER CODE BEGIN I2C2_Init 1 */

  /* USER CODE END I2C2_Init 1 */
  hi2c2.Instance = I2C2;
 8000dc0:	4b1b      	ldr	r3, [pc, #108]	; (8000e30 <MX_I2C2_Init+0x74>)
 8000dc2:	4a1c      	ldr	r2, [pc, #112]	; (8000e34 <MX_I2C2_Init+0x78>)
 8000dc4:	601a      	str	r2, [r3, #0]
  hi2c2.Init.ClockSpeed = 100000;
 8000dc6:	4b1a      	ldr	r3, [pc, #104]	; (8000e30 <MX_I2C2_Init+0x74>)
 8000dc8:	4a1b      	ldr	r2, [pc, #108]	; (8000e38 <MX_I2C2_Init+0x7c>)
 8000dca:	605a      	str	r2, [r3, #4]
  hi2c2.Init.DutyCycle = I2C_DUTYCYCLE_2;
 8000dcc:	4b18      	ldr	r3, [pc, #96]	; (8000e30 <MX_I2C2_Init+0x74>)
 8000dce:	2200      	movs	r2, #0
 8000dd0:	609a      	str	r2, [r3, #8]
  hi2c2.Init.OwnAddress1 = 0;
 8000dd2:	4b17      	ldr	r3, [pc, #92]	; (8000e30 <MX_I2C2_Init+0x74>)
 8000dd4:	2200      	movs	r2, #0
 8000dd6:	60da      	str	r2, [r3, #12]
  hi2c2.Init.AddressingMode = I2C_ADDRESSINGMODE_7BIT;
 8000dd8:	4b15      	ldr	r3, [pc, #84]	; (8000e30 <MX_I2C2_Init+0x74>)
 8000dda:	f44f 4280 	mov.w	r2, #16384	; 0x4000
 8000dde:	611a      	str	r2, [r3, #16]
  hi2c2.Init.DualAddressMode = I2C_DUALADDRESS_DISABLE;
 8000de0:	4b13      	ldr	r3, [pc, #76]	; (8000e30 <MX_I2C2_Init+0x74>)
 8000de2:	2200      	movs	r2, #0
 8000de4:	615a      	str	r2, [r3, #20]
  hi2c2.Init.OwnAddress2 = 0;
 8000de6:	4b12      	ldr	r3, [pc, #72]	; (8000e30 <MX_I2C2_Init+0x74>)
 8000de8:	2200      	movs	r2, #0
 8000dea:	619a      	str	r2, [r3, #24]
  hi2c2.Init.GeneralCallMode = I2C_GENERALCALL_DISABLE;
 8000dec:	4b10      	ldr	r3, [pc, #64]	; (8000e30 <MX_I2C2_Init+0x74>)
 8000dee:	2200      	movs	r2, #0
 8000df0:	61da      	str	r2, [r3, #28]
  hi2c2.Init.NoStretchMode = I2C_NOSTRETCH_DISABLE;
 8000df2:	4b0f      	ldr	r3, [pc, #60]	; (8000e30 <MX_I2C2_Init+0x74>)
 8000df4:	2200      	movs	r2, #0
 8000df6:	621a      	str	r2, [r3, #32]
  if (HAL_I2C_Init(&hi2c2) != HAL_OK)
 8000df8:	480d      	ldr	r0, [pc, #52]	; (8000e30 <MX_I2C2_Init+0x74>)
 8000dfa:	f001 fad5 	bl	80023a8 <HAL_I2C_Init>
 8000dfe:	4603      	mov	r3, r0
 8000e00:	2b00      	cmp	r3, #0
 8000e02:	d001      	beq.n	8000e08 <MX_I2C2_Init+0x4c>
  {
    Error_Handler();
 8000e04:	f000 f9d8 	bl	80011b8 <Error_Handler>
  }

  /** Configure Analogue filter
  */
  if (HAL_I2CEx_ConfigAnalogFilter(&hi2c2, I2C_ANALOGFILTER_ENABLE) != HAL_OK)
 8000e08:	2100      	movs	r1, #0
 8000e0a:	4809      	ldr	r0, [pc, #36]	; (8000e30 <MX_I2C2_Init+0x74>)
 8000e0c:	f002 fac6 	bl	800339c <HAL_I2CEx_ConfigAnalogFilter>
 8000e10:	4603      	mov	r3, r0
 8000e12:	2b00      	cmp	r3, #0
 8000e14:	d001      	beq.n	8000e1a <MX_I2C2_Init+0x5e>
  {
    Error_Handler();
 8000e16:	f000 f9cf 	bl	80011b8 <Error_Handler>
  }

  /** Configure Digital filter
  */
  if (HAL_I2CEx_ConfigDigitalFilter(&hi2c2, 0) != HAL_OK)
 8000e1a:	2100      	movs	r1, #0
 8000e1c:	4804      	ldr	r0, [pc, #16]	; (8000e30 <MX_I2C2_Init+0x74>)
 8000e1e:	f002 faf9 	bl	8003414 <HAL_I2CEx_ConfigDigitalFilter>
 8000e22:	4603      	mov	r3, r0
 8000e24:	2b00      	cmp	r3, #0
 8000e26:	d001      	beq.n	8000e2c <MX_I2C2_Init+0x70>
  {
    Error_Handler();
 8000e28:	f000 f9c6 	bl	80011b8 <Error_Handler>
  }
  /* USER CODE BEGIN I2C2_Init 2 */

  /* USER CODE END I2C2_Init 2 */

}
 8000e2c:	bf00      	nop
 8000e2e:	bd80      	pop	{r7, pc}
 8000e30:	20000094 	.word	0x20000094
 8000e34:	40005800 	.word	0x40005800
 8000e38:	000186a0 	.word	0x000186a0

08000e3c <MX_RTC_Init>:
  * @brief RTC Initialization Function
  * @param None
  * @retval None
  */
static void MX_RTC_Init(void)
{
 8000e3c:	b580      	push	{r7, lr}
 8000e3e:	af00      	add	r7, sp, #0

  /* USER CODE END RTC_Init 1 */

  /** Initialize RTC Only
  */
  hrtc.Instance = RTC;
 8000e40:	4b0f      	ldr	r3, [pc, #60]	; (8000e80 <MX_RTC_Init+0x44>)
 8000e42:	4a10      	ldr	r2, [pc, #64]	; (8000e84 <MX_RTC_Init+0x48>)
 8000e44:	601a      	str	r2, [r3, #0]
  hrtc.Init.HourFormat = RTC_HOURFORMAT_24;
 8000e46:	4b0e      	ldr	r3, [pc, #56]	; (8000e80 <MX_RTC_Init+0x44>)
 8000e48:	2200      	movs	r2, #0
 8000e4a:	605a      	str	r2, [r3, #4]
  hrtc.Init.AsynchPrediv = 127;
 8000e4c:	4b0c      	ldr	r3, [pc, #48]	; (8000e80 <MX_RTC_Init+0x44>)
 8000e4e:	227f      	movs	r2, #127	; 0x7f
 8000e50:	609a      	str	r2, [r3, #8]
  hrtc.Init.SynchPrediv = 255;
 8000e52:	4b0b      	ldr	r3, [pc, #44]	; (8000e80 <MX_RTC_Init+0x44>)
 8000e54:	22ff      	movs	r2, #255	; 0xff
 8000e56:	60da      	str	r2, [r3, #12]
  hrtc.Init.OutPut = RTC_OUTPUT_DISABLE;
 8000e58:	4b09      	ldr	r3, [pc, #36]	; (8000e80 <MX_RTC_Init+0x44>)
 8000e5a:	2200      	movs	r2, #0
 8000e5c:	611a      	str	r2, [r3, #16]
  hrtc.Init.OutPutPolarity = RTC_OUTPUT_POLARITY_HIGH;
 8000e5e:	4b08      	ldr	r3, [pc, #32]	; (8000e80 <MX_RTC_Init+0x44>)
 8000e60:	2200      	movs	r2, #0
 8000e62:	615a      	str	r2, [r3, #20]
  hrtc.Init.OutPutType = RTC_OUTPUT_TYPE_OPENDRAIN;
 8000e64:	4b06      	ldr	r3, [pc, #24]	; (8000e80 <MX_RTC_Init+0x44>)
 8000e66:	2200      	movs	r2, #0
 8000e68:	619a      	str	r2, [r3, #24]
  if (HAL_RTC_Init(&hrtc) != HAL_OK)
 8000e6a:	4805      	ldr	r0, [pc, #20]	; (8000e80 <MX_RTC_Init+0x44>)
 8000e6c:	f003 f92a 	bl	80040c4 <HAL_RTC_Init>
 8000e70:	4603      	mov	r3, r0
 8000e72:	2b00      	cmp	r3, #0
 8000e74:	d001      	beq.n	8000e7a <MX_RTC_Init+0x3e>
  {
    Error_Handler();
 8000e76:	f000 f99f 	bl	80011b8 <Error_Handler>
  }
  /* USER CODE BEGIN RTC_Init 2 */

  /* USER CODE END RTC_Init 2 */

}
 8000e7a:	bf00      	nop
 8000e7c:	bd80      	pop	{r7, pc}
 8000e7e:	bf00      	nop
 8000e80:	200000e8 	.word	0x200000e8
 8000e84:	40002800 	.word	0x40002800

08000e88 <MX_SPI1_Init>:
  * @brief SPI1 Initialization Function
  * @param None
  * @retval None
  */
static void MX_SPI1_Init(void)
{
 8000e88:	b580      	push	{r7, lr}
 8000e8a:	af00      	add	r7, sp, #0

  /* USER CODE BEGIN SPI1_Init 1 */

  /* USER CODE END SPI1_Init 1 */
  /* SPI1 parameter configuration*/
  hspi1.Instance = SPI1;
 8000e8c:	4b17      	ldr	r3, [pc, #92]	; (8000eec <MX_SPI1_Init+0x64>)
 8000e8e:	4a18      	ldr	r2, [pc, #96]	; (8000ef0 <MX_SPI1_Init+0x68>)
 8000e90:	601a      	str	r2, [r3, #0]
  hspi1.Init.Mode = SPI_MODE_MASTER;
 8000e92:	4b16      	ldr	r3, [pc, #88]	; (8000eec <MX_SPI1_Init+0x64>)
 8000e94:	f44f 7282 	mov.w	r2, #260	; 0x104
 8000e98:	605a      	str	r2, [r3, #4]
  hspi1.Init.Direction = SPI_DIRECTION_2LINES;
 8000e9a:	4b14      	ldr	r3, [pc, #80]	; (8000eec <MX_SPI1_Init+0x64>)
 8000e9c:	2200      	movs	r2, #0
 8000e9e:	609a      	str	r2, [r3, #8]
  hspi1.Init.DataSize = SPI_DATASIZE_8BIT;
 8000ea0:	4b12      	ldr	r3, [pc, #72]	; (8000eec <MX_SPI1_Init+0x64>)
 8000ea2:	2200      	movs	r2, #0
 8000ea4:	60da      	str	r2, [r3, #12]
  hspi1.Init.CLKPolarity = SPI_POLARITY_LOW;
 8000ea6:	4b11      	ldr	r3, [pc, #68]	; (8000eec <MX_SPI1_Init+0x64>)
 8000ea8:	2200      	movs	r2, #0
 8000eaa:	611a      	str	r2, [r3, #16]
  hspi1.Init.CLKPhase = SPI_PHASE_1EDGE;
 8000eac:	4b0f      	ldr	r3, [pc, #60]	; (8000eec <MX_SPI1_Init+0x64>)
 8000eae:	2200      	movs	r2, #0
 8000eb0:	615a      	str	r2, [r3, #20]
  hspi1.Init.NSS = SPI_NSS_SOFT;
 8000eb2:	4b0e      	ldr	r3, [pc, #56]	; (8000eec <MX_SPI1_Init+0x64>)
 8000eb4:	f44f 7200 	mov.w	r2, #512	; 0x200
 8000eb8:	619a      	str	r2, [r3, #24]
  hspi1.Init.BaudRatePrescaler = SPI_BAUDRATEPRESCALER_2;
 8000eba:	4b0c      	ldr	r3, [pc, #48]	; (8000eec <MX_SPI1_Init+0x64>)
 8000ebc:	2200      	movs	r2, #0
 8000ebe:	61da      	str	r2, [r3, #28]
  hspi1.Init.FirstBit = SPI_FIRSTBIT_MSB;
 8000ec0:	4b0a      	ldr	r3, [pc, #40]	; (8000eec <MX_SPI1_Init+0x64>)
 8000ec2:	2200      	movs	r2, #0
 8000ec4:	621a      	str	r2, [r3, #32]
  hspi1.Init.TIMode = SPI_TIMODE_DISABLE;
 8000ec6:	4b09      	ldr	r3, [pc, #36]	; (8000eec <MX_SPI1_Init+0x64>)
 8000ec8:	2200      	movs	r2, #0
 8000eca:	625a      	str	r2, [r3, #36]	; 0x24
  hspi1.Init.CRCCalculation = SPI_CRCCALCULATION_DISABLE;
 8000ecc:	4b07      	ldr	r3, [pc, #28]	; (8000eec <MX_SPI1_Init+0x64>)
 8000ece:	2200      	movs	r2, #0
 8000ed0:	629a      	str	r2, [r3, #40]	; 0x28
  hspi1.Init.CRCPolynomial = 10;
 8000ed2:	4b06      	ldr	r3, [pc, #24]	; (8000eec <MX_SPI1_Init+0x64>)
 8000ed4:	220a      	movs	r2, #10
 8000ed6:	62da      	str	r2, [r3, #44]	; 0x2c
  if (HAL_SPI_Init(&hspi1) != HAL_OK)
 8000ed8:	4804      	ldr	r0, [pc, #16]	; (8000eec <MX_SPI1_Init+0x64>)
 8000eda:	f003 fbff 	bl	80046dc <HAL_SPI_Init>
 8000ede:	4603      	mov	r3, r0
 8000ee0:	2b00      	cmp	r3, #0
 8000ee2:	d001      	beq.n	8000ee8 <MX_SPI1_Init+0x60>
  {
    Error_Handler();
 8000ee4:	f000 f968 	bl	80011b8 <Error_Handler>
  }
  /* USER CODE BEGIN SPI1_Init 2 */

  /* USER CODE END SPI1_Init 2 */

}
 8000ee8:	bf00      	nop
 8000eea:	bd80      	pop	{r7, pc}
 8000eec:	20000108 	.word	0x20000108
 8000ef0:	40013000 	.word	0x40013000

08000ef4 <MX_TIM6_Init>:
  * @brief TIM6 Initialization Function
  * @param None
  * @retval None
  */
static void MX_TIM6_Init(void)
{
 8000ef4:	b580      	push	{r7, lr}
 8000ef6:	b082      	sub	sp, #8
 8000ef8:	af00      	add	r7, sp, #0

  /* USER CODE BEGIN TIM6_Init 0 */

  /* USER CODE END TIM6_Init 0 */

  TIM_MasterConfigTypeDef sMasterConfig = {0};
 8000efa:	463b      	mov	r3, r7
 8000efc:	2200      	movs	r2, #0
 8000efe:	601a      	str	r2, [r3, #0]
 8000f00:	605a      	str	r2, [r3, #4]

  /* USER CODE BEGIN TIM6_Init 1 */

  /* USER CODE END TIM6_Init 1 */
  htim6.Instance = TIM6;
 8000f02:	4b15      	ldr	r3, [pc, #84]	; (8000f58 <MX_TIM6_Init+0x64>)
 8000f04:	4a15      	ldr	r2, [pc, #84]	; (8000f5c <MX_TIM6_Init+0x68>)
 8000f06:	601a      	str	r2, [r3, #0]
  htim6.Init.Prescaler = 15999;
 8000f08:	4b13      	ldr	r3, [pc, #76]	; (8000f58 <MX_TIM6_Init+0x64>)
 8000f0a:	f643 627f 	movw	r2, #15999	; 0x3e7f
 8000f0e:	605a      	str	r2, [r3, #4]
  htim6.Init.CounterMode = TIM_COUNTERMODE_UP;
 8000f10:	4b11      	ldr	r3, [pc, #68]	; (8000f58 <MX_TIM6_Init+0x64>)
 8000f12:	2200      	movs	r2, #0
 8000f14:	609a      	str	r2, [r3, #8]
  htim6.Init.Period = 1000;
 8000f16:	4b10      	ldr	r3, [pc, #64]	; (8000f58 <MX_TIM6_Init+0x64>)
 8000f18:	f44f 727a 	mov.w	r2, #1000	; 0x3e8
 8000f1c:	60da      	str	r2, [r3, #12]
  htim6.Init.AutoReloadPreload = TIM_AUTORELOAD_PRELOAD_DISABLE;
 8000f1e:	4b0e      	ldr	r3, [pc, #56]	; (8000f58 <MX_TIM6_Init+0x64>)
 8000f20:	2200      	movs	r2, #0
 8000f22:	619a      	str	r2, [r3, #24]
  if (HAL_TIM_Base_Init(&htim6) != HAL_OK)
 8000f24:	480c      	ldr	r0, [pc, #48]	; (8000f58 <MX_TIM6_Init+0x64>)
 8000f26:	f004 f9af 	bl	8005288 <HAL_TIM_Base_Init>
 8000f2a:	4603      	mov	r3, r0
 8000f2c:	2b00      	cmp	r3, #0
 8000f2e:	d001      	beq.n	8000f34 <MX_TIM6_Init+0x40>
  {
    Error_Handler();
 8000f30:	f000 f942 	bl	80011b8 <Error_Handler>
  }
  sMasterConfig.MasterOutputTrigger = TIM_TRGO_RESET;
 8000f34:	2300      	movs	r3, #0
 8000f36:	603b      	str	r3, [r7, #0]
  sMasterConfig.MasterSlaveMode = TIM_MASTERSLAVEMODE_DISABLE;
 8000f38:	2300      	movs	r3, #0
 8000f3a:	607b      	str	r3, [r7, #4]
  if (HAL_TIMEx_MasterConfigSynchronization(&htim6, &sMasterConfig) != HAL_OK)
 8000f3c:	463b      	mov	r3, r7
 8000f3e:	4619      	mov	r1, r3
 8000f40:	4805      	ldr	r0, [pc, #20]	; (8000f58 <MX_TIM6_Init+0x64>)
 8000f42:	f004 fc5f 	bl	8005804 <HAL_TIMEx_MasterConfigSynchronization>
 8000f46:	4603      	mov	r3, r0
 8000f48:	2b00      	cmp	r3, #0
 8000f4a:	d001      	beq.n	8000f50 <MX_TIM6_Init+0x5c>
  {
    Error_Handler();
 8000f4c:	f000 f934 	bl	80011b8 <Error_Handler>
  }
  /* USER CODE BEGIN TIM6_Init 2 */

  /* USER CODE END TIM6_Init 2 */

}
 8000f50:	bf00      	nop
 8000f52:	3708      	adds	r7, #8
 8000f54:	46bd      	mov	sp, r7
 8000f56:	bd80      	pop	{r7, pc}
 8000f58:	20000160 	.word	0x20000160
 8000f5c:	40001000 	.word	0x40001000

08000f60 <MX_USART2_UART_Init>:
  * @brief USART2 Initialization Function
  * @param None
  * @retval None
  */
static void MX_USART2_UART_Init(void)
{
 8000f60:	b580      	push	{r7, lr}
 8000f62:	af00      	add	r7, sp, #0
  /* USER CODE END USART2_Init 0 */

  /* USER CODE BEGIN USART2_Init 1 */

  /* USER CODE END USART2_Init 1 */
  huart2.Instance = USART2;
 8000f64:	4b11      	ldr	r3, [pc, #68]	; (8000fac <MX_USART2_UART_Init+0x4c>)
 8000f66:	4a12      	ldr	r2, [pc, #72]	; (8000fb0 <MX_USART2_UART_Init+0x50>)
 8000f68:	601a      	str	r2, [r3, #0]
  huart2.Init.BaudRate = 9600;
 8000f6a:	4b10      	ldr	r3, [pc, #64]	; (8000fac <MX_USART2_UART_Init+0x4c>)
 8000f6c:	f44f 5216 	mov.w	r2, #9600	; 0x2580
 8000f70:	605a      	str	r2, [r3, #4]
  huart2.Init.WordLength = UART_WORDLENGTH_8B;
 8000f72:	4b0e      	ldr	r3, [pc, #56]	; (8000fac <MX_USART2_UART_Init+0x4c>)
 8000f74:	2200      	movs	r2, #0
 8000f76:	609a      	str	r2, [r3, #8]
  huart2.Init.StopBits = UART_STOPBITS_1;
 8000f78:	4b0c      	ldr	r3, [pc, #48]	; (8000fac <MX_USART2_UART_Init+0x4c>)
 8000f7a:	2200      	movs	r2, #0
 8000f7c:	60da      	str	r2, [r3, #12]
  huart2.Init.Parity = UART_PARITY_NONE;
 8000f7e:	4b0b      	ldr	r3, [pc, #44]	; (8000fac <MX_USART2_UART_Init+0x4c>)
 8000f80:	2200      	movs	r2, #0
 8000f82:	611a      	str	r2, [r3, #16]
  huart2.Init.Mode = UART_MODE_TX_RX;
 8000f84:	4b09      	ldr	r3, [pc, #36]	; (8000fac <MX_USART2_UART_Init+0x4c>)
 8000f86:	220c      	movs	r2, #12
 8000f88:	615a      	str	r2, [r3, #20]
  huart2.Init.HwFlowCtl = UART_HWCONTROL_NONE;
 8000f8a:	4b08      	ldr	r3, [pc, #32]	; (8000fac <MX_USART2_UART_Init+0x4c>)
 8000f8c:	2200      	movs	r2, #0
 8000f8e:	619a      	str	r2, [r3, #24]
  huart2.Init.OverSampling = UART_OVERSAMPLING_16;
 8000f90:	4b06      	ldr	r3, [pc, #24]	; (8000fac <MX_USART2_UART_Init+0x4c>)
 8000f92:	2200      	movs	r2, #0
 8000f94:	61da      	str	r2, [r3, #28]
  if (HAL_UART_Init(&huart2) != HAL_OK)
 8000f96:	4805      	ldr	r0, [pc, #20]	; (8000fac <MX_USART2_UART_Init+0x4c>)
 8000f98:	f004 fcc4 	bl	8005924 <HAL_UART_Init>
 8000f9c:	4603      	mov	r3, r0
 8000f9e:	2b00      	cmp	r3, #0
 8000fa0:	d001      	beq.n	8000fa6 <MX_USART2_UART_Init+0x46>
  {
    Error_Handler();
 8000fa2:	f000 f909 	bl	80011b8 <Error_Handler>
  }
  /* USER CODE BEGIN USART2_Init 2 */

  /* USER CODE END USART2_Init 2 */

}
 8000fa6:	bf00      	nop
 8000fa8:	bd80      	pop	{r7, pc}
 8000faa:	bf00      	nop
 8000fac:	200001a8 	.word	0x200001a8
 8000fb0:	40004400 	.word	0x40004400

08000fb4 <MX_GPIO_Init>:
  * @brief GPIO Initialization Function
  * @param None
  * @retval None
  */
static void MX_GPIO_Init(void)
{
 8000fb4:	b580      	push	{r7, lr}
 8000fb6:	b08a      	sub	sp, #40	; 0x28
 8000fb8:	af00      	add	r7, sp, #0
  GPIO_InitTypeDef GPIO_InitStruct = {0};
 8000fba:	f107 0314 	add.w	r3, r7, #20
 8000fbe:	2200      	movs	r2, #0
 8000fc0:	601a      	str	r2, [r3, #0]
 8000fc2:	605a      	str	r2, [r3, #4]
 8000fc4:	609a      	str	r2, [r3, #8]
 8000fc6:	60da      	str	r2, [r3, #12]
 8000fc8:	611a      	str	r2, [r3, #16]
/* USER CODE BEGIN MX_GPIO_Init_1 */
/* USER CODE END MX_GPIO_Init_1 */

  /* GPIO Ports Clock Enable */
  __HAL_RCC_GPIOC_CLK_ENABLE();
 8000fca:	2300      	movs	r3, #0
 8000fcc:	613b      	str	r3, [r7, #16]
 8000fce:	4b68      	ldr	r3, [pc, #416]	; (8001170 <MX_GPIO_Init+0x1bc>)
 8000fd0:	6b1b      	ldr	r3, [r3, #48]	; 0x30
 8000fd2:	4a67      	ldr	r2, [pc, #412]	; (8001170 <MX_GPIO_Init+0x1bc>)
 8000fd4:	f043 0304 	orr.w	r3, r3, #4
 8000fd8:	6313      	str	r3, [r2, #48]	; 0x30
 8000fda:	4b65      	ldr	r3, [pc, #404]	; (8001170 <MX_GPIO_Init+0x1bc>)
 8000fdc:	6b1b      	ldr	r3, [r3, #48]	; 0x30
 8000fde:	f003 0304 	and.w	r3, r3, #4
 8000fe2:	613b      	str	r3, [r7, #16]
 8000fe4:	693b      	ldr	r3, [r7, #16]
  __HAL_RCC_GPIOH_CLK_ENABLE();
 8000fe6:	2300      	movs	r3, #0
 8000fe8:	60fb      	str	r3, [r7, #12]
 8000fea:	4b61      	ldr	r3, [pc, #388]	; (8001170 <MX_GPIO_Init+0x1bc>)
 8000fec:	6b1b      	ldr	r3, [r3, #48]	; 0x30
 8000fee:	4a60      	ldr	r2, [pc, #384]	; (8001170 <MX_GPIO_Init+0x1bc>)
 8000ff0:	f043 0380 	orr.w	r3, r3, #128	; 0x80
 8000ff4:	6313      	str	r3, [r2, #48]	; 0x30
 8000ff6:	4b5e      	ldr	r3, [pc, #376]	; (8001170 <MX_GPIO_Init+0x1bc>)
 8000ff8:	6b1b      	ldr	r3, [r3, #48]	; 0x30
 8000ffa:	f003 0380 	and.w	r3, r3, #128	; 0x80
 8000ffe:	60fb      	str	r3, [r7, #12]
 8001000:	68fb      	ldr	r3, [r7, #12]
  __HAL_RCC_GPIOA_CLK_ENABLE();
 8001002:	2300      	movs	r3, #0
 8001004:	60bb      	str	r3, [r7, #8]
 8001006:	4b5a      	ldr	r3, [pc, #360]	; (8001170 <MX_GPIO_Init+0x1bc>)
 8001008:	6b1b      	ldr	r3, [r3, #48]	; 0x30
 800100a:	4a59      	ldr	r2, [pc, #356]	; (8001170 <MX_GPIO_Init+0x1bc>)
 800100c:	f043 0301 	orr.w	r3, r3, #1
 8001010:	6313      	str	r3, [r2, #48]	; 0x30
 8001012:	4b57      	ldr	r3, [pc, #348]	; (8001170 <MX_GPIO_Init+0x1bc>)
 8001014:	6b1b      	ldr	r3, [r3, #48]	; 0x30
 8001016:	f003 0301 	and.w	r3, r3, #1
 800101a:	60bb      	str	r3, [r7, #8]
 800101c:	68bb      	ldr	r3, [r7, #8]
  __HAL_RCC_GPIOB_CLK_ENABLE();
 800101e:	2300      	movs	r3, #0
 8001020:	607b      	str	r3, [r7, #4]
 8001022:	4b53      	ldr	r3, [pc, #332]	; (8001170 <MX_GPIO_Init+0x1bc>)
 8001024:	6b1b      	ldr	r3, [r3, #48]	; 0x30
 8001026:	4a52      	ldr	r2, [pc, #328]	; (8001170 <MX_GPIO_Init+0x1bc>)
 8001028:	f043 0302 	orr.w	r3, r3, #2
 800102c:	6313      	str	r3, [r2, #48]	; 0x30
 800102e:	4b50      	ldr	r3, [pc, #320]	; (8001170 <MX_GPIO_Init+0x1bc>)
 8001030:	6b1b      	ldr	r3, [r3, #48]	; 0x30
 8001032:	f003 0302 	and.w	r3, r3, #2
 8001036:	607b      	str	r3, [r7, #4]
 8001038:	687b      	ldr	r3, [r7, #4]
  __HAL_RCC_GPIOD_CLK_ENABLE();
 800103a:	2300      	movs	r3, #0
 800103c:	603b      	str	r3, [r7, #0]
 800103e:	4b4c      	ldr	r3, [pc, #304]	; (8001170 <MX_GPIO_Init+0x1bc>)
 8001040:	6b1b      	ldr	r3, [r3, #48]	; 0x30
 8001042:	4a4b      	ldr	r2, [pc, #300]	; (8001170 <MX_GPIO_Init+0x1bc>)
 8001044:	f043 0308 	orr.w	r3, r3, #8
 8001048:	6313      	str	r3, [r2, #48]	; 0x30
 800104a:	4b49      	ldr	r3, [pc, #292]	; (8001170 <MX_GPIO_Init+0x1bc>)
 800104c:	6b1b      	ldr	r3, [r3, #48]	; 0x30
 800104e:	f003 0308 	and.w	r3, r3, #8
 8001052:	603b      	str	r3, [r7, #0]
 8001054:	683b      	ldr	r3, [r7, #0]

  /*Configure GPIO pin Output Level */
  HAL_GPIO_WritePin(SPI2_WP_GPIO_Port, SPI2_WP_Pin, GPIO_PIN_RESET);
 8001056:	2200      	movs	r2, #0
 8001058:	2101      	movs	r1, #1
 800105a:	4846      	ldr	r0, [pc, #280]	; (8001174 <MX_GPIO_Init+0x1c0>)
 800105c:	f001 f970 	bl	8002340 <HAL_GPIO_WritePin>

  /*Configure GPIO pin Output Level */
  HAL_GPIO_WritePin(GPIOB, SPI2_CS_Pin|LED3_Pin|LED2_Pin, GPIO_PIN_RESET);
 8001060:	2200      	movs	r2, #0
 8001062:	f44f 41a1 	mov.w	r1, #20608	; 0x5080
 8001066:	4844      	ldr	r0, [pc, #272]	; (8001178 <MX_GPIO_Init+0x1c4>)
 8001068:	f001 f96a 	bl	8002340 <HAL_GPIO_WritePin>

  /*Configure GPIO pin Output Level */
  HAL_GPIO_WritePin(GPIOD, SPI1_WP_Pin|SPI1_CS_Pin, GPIO_PIN_RESET);
 800106c:	2200      	movs	r2, #0
 800106e:	f244 0104 	movw	r1, #16388	; 0x4004
 8001072:	4842      	ldr	r0, [pc, #264]	; (800117c <MX_GPIO_Init+0x1c8>)
 8001074:	f001 f964 	bl	8002340 <HAL_GPIO_WritePin>

  /*Configure GPIO pin : SPI2_WP_Pin */
  GPIO_InitStruct.Pin = SPI2_WP_Pin;
 8001078:	2301      	movs	r3, #1
 800107a:	617b      	str	r3, [r7, #20]
  GPIO_InitStruct.Mode = GPIO_MODE_OUTPUT_PP;
 800107c:	2301      	movs	r3, #1
 800107e:	61bb      	str	r3, [r7, #24]
  GPIO_InitStruct.Pull = GPIO_PULLUP;
 8001080:	2301      	movs	r3, #1
 8001082:	61fb      	str	r3, [r7, #28]
  GPIO_InitStruct.Speed = GPIO_SPEED_FREQ_LOW;
 8001084:	2300      	movs	r3, #0
 8001086:	623b      	str	r3, [r7, #32]
  HAL_GPIO_Init(SPI2_WP_GPIO_Port, &GPIO_InitStruct);
 8001088:	f107 0314 	add.w	r3, r7, #20
 800108c:	4619      	mov	r1, r3
 800108e:	4839      	ldr	r0, [pc, #228]	; (8001174 <MX_GPIO_Init+0x1c0>)
 8001090:	f000 ff92 	bl	8001fb8 <HAL_GPIO_Init>

  /*Configure GPIO pins : PC2 PC3 */
  GPIO_InitStruct.Pin = GPIO_PIN_2|GPIO_PIN_3;
 8001094:	230c      	movs	r3, #12
 8001096:	617b      	str	r3, [r7, #20]
  GPIO_InitStruct.Mode = GPIO_MODE_AF_PP;
 8001098:	2302      	movs	r3, #2
 800109a:	61bb      	str	r3, [r7, #24]
  GPIO_InitStruct.Pull = GPIO_NOPULL;
 800109c:	2300      	movs	r3, #0
 800109e:	61fb      	str	r3, [r7, #28]
  GPIO_InitStruct.Speed = GPIO_SPEED_FREQ_VERY_HIGH;
 80010a0:	2303      	movs	r3, #3
 80010a2:	623b      	str	r3, [r7, #32]
  GPIO_InitStruct.Alternate = GPIO_AF5_SPI2;
 80010a4:	2305      	movs	r3, #5
 80010a6:	627b      	str	r3, [r7, #36]	; 0x24
  HAL_GPIO_Init(GPIOC, &GPIO_InitStruct);
 80010a8:	f107 0314 	add.w	r3, r7, #20
 80010ac:	4619      	mov	r1, r3
 80010ae:	4831      	ldr	r0, [pc, #196]	; (8001174 <MX_GPIO_Init+0x1c0>)
 80010b0:	f000 ff82 	bl	8001fb8 <HAL_GPIO_Init>

  /*Configure GPIO pin : JMP_Flight_Pin */
  GPIO_InitStruct.Pin = JMP_Flight_Pin;
 80010b4:	2302      	movs	r3, #2
 80010b6:	617b      	str	r3, [r7, #20]
  GPIO_InitStruct.Mode = GPIO_MODE_INPUT;
 80010b8:	2300      	movs	r3, #0
 80010ba:	61bb      	str	r3, [r7, #24]
  GPIO_InitStruct.Pull = GPIO_PULLDOWN;
 80010bc:	2302      	movs	r3, #2
 80010be:	61fb      	str	r3, [r7, #28]
  HAL_GPIO_Init(JMP_Flight_GPIO_Port, &GPIO_InitStruct);
 80010c0:	f107 0314 	add.w	r3, r7, #20
 80010c4:	4619      	mov	r1, r3
 80010c6:	482c      	ldr	r0, [pc, #176]	; (8001178 <MX_GPIO_Init+0x1c4>)
 80010c8:	f000 ff76 	bl	8001fb8 <HAL_GPIO_Init>

  /*Configure GPIO pin : SPI2_CS_Pin */
  GPIO_InitStruct.Pin = SPI2_CS_Pin;
 80010cc:	f44f 5380 	mov.w	r3, #4096	; 0x1000
 80010d0:	617b      	str	r3, [r7, #20]
  GPIO_InitStruct.Mode = GPIO_MODE_OUTPUT_PP;
 80010d2:	2301      	movs	r3, #1
 80010d4:	61bb      	str	r3, [r7, #24]
  GPIO_InitStruct.Pull = GPIO_PULLUP;
 80010d6:	2301      	movs	r3, #1
 80010d8:	61fb      	str	r3, [r7, #28]
  GPIO_InitStruct.Speed = GPIO_SPEED_FREQ_LOW;
 80010da:	2300      	movs	r3, #0
 80010dc:	623b      	str	r3, [r7, #32]
  HAL_GPIO_Init(SPI2_CS_GPIO_Port, &GPIO_InitStruct);
 80010de:	f107 0314 	add.w	r3, r7, #20
 80010e2:	4619      	mov	r1, r3
 80010e4:	4824      	ldr	r0, [pc, #144]	; (8001178 <MX_GPIO_Init+0x1c4>)
 80010e6:	f000 ff67 	bl	8001fb8 <HAL_GPIO_Init>

  /*Configure GPIO pins : LED3_Pin LED2_Pin */
  GPIO_InitStruct.Pin = LED3_Pin|LED2_Pin;
 80010ea:	f44f 4381 	mov.w	r3, #16512	; 0x4080
 80010ee:	617b      	str	r3, [r7, #20]
  GPIO_InitStruct.Mode = GPIO_MODE_OUTPUT_PP;
 80010f0:	2301      	movs	r3, #1
 80010f2:	61bb      	str	r3, [r7, #24]
  GPIO_InitStruct.Pull = GPIO_PULLDOWN;
 80010f4:	2302      	movs	r3, #2
 80010f6:	61fb      	str	r3, [r7, #28]
  GPIO_InitStruct.Speed = GPIO_SPEED_FREQ_LOW;
 80010f8:	2300      	movs	r3, #0
 80010fa:	623b      	str	r3, [r7, #32]
  HAL_GPIO_Init(GPIOB, &GPIO_InitStruct);
 80010fc:	f107 0314 	add.w	r3, r7, #20
 8001100:	4619      	mov	r1, r3
 8001102:	481d      	ldr	r0, [pc, #116]	; (8001178 <MX_GPIO_Init+0x1c4>)
 8001104:	f000 ff58 	bl	8001fb8 <HAL_GPIO_Init>

  /*Configure GPIO pins : SPI1_WP_Pin SPI1_CS_Pin */
  GPIO_InitStruct.Pin = SPI1_WP_Pin|SPI1_CS_Pin;
 8001108:	f244 0304 	movw	r3, #16388	; 0x4004
 800110c:	617b      	str	r3, [r7, #20]
  GPIO_InitStruct.Mode = GPIO_MODE_OUTPUT_PP;
 800110e:	2301      	movs	r3, #1
 8001110:	61bb      	str	r3, [r7, #24]
  GPIO_InitStruct.Pull = GPIO_PULLUP;
 8001112:	2301      	movs	r3, #1
 8001114:	61fb      	str	r3, [r7, #28]
  GPIO_InitStruct.Speed = GPIO_SPEED_FREQ_LOW;
 8001116:	2300      	movs	r3, #0
 8001118:	623b      	str	r3, [r7, #32]
  HAL_GPIO_Init(GPIOD, &GPIO_InitStruct);
 800111a:	f107 0314 	add.w	r3, r7, #20
 800111e:	4619      	mov	r1, r3
 8001120:	4816      	ldr	r0, [pc, #88]	; (800117c <MX_GPIO_Init+0x1c8>)
 8001122:	f000 ff49 	bl	8001fb8 <HAL_GPIO_Init>

  /*Configure GPIO pins : PA11 PA12 */
  GPIO_InitStruct.Pin = GPIO_PIN_11|GPIO_PIN_12;
 8001126:	f44f 53c0 	mov.w	r3, #6144	; 0x1800
 800112a:	617b      	str	r3, [r7, #20]
  GPIO_InitStruct.Mode = GPIO_MODE_AF_PP;
 800112c:	2302      	movs	r3, #2
 800112e:	61bb      	str	r3, [r7, #24]
  GPIO_InitStruct.Pull = GPIO_NOPULL;
 8001130:	2300      	movs	r3, #0
 8001132:	61fb      	str	r3, [r7, #28]
  GPIO_InitStruct.Speed = GPIO_SPEED_FREQ_VERY_HIGH;
 8001134:	2303      	movs	r3, #3
 8001136:	623b      	str	r3, [r7, #32]
  GPIO_InitStruct.Alternate = GPIO_AF9_CAN1;
 8001138:	2309      	movs	r3, #9
 800113a:	627b      	str	r3, [r7, #36]	; 0x24
  HAL_GPIO_Init(GPIOA, &GPIO_InitStruct);
 800113c:	f107 0314 	add.w	r3, r7, #20
 8001140:	4619      	mov	r1, r3
 8001142:	480f      	ldr	r0, [pc, #60]	; (8001180 <MX_GPIO_Init+0x1cc>)
 8001144:	f000 ff38 	bl	8001fb8 <HAL_GPIO_Init>

  /*Configure GPIO pin : PD3 */
  GPIO_InitStruct.Pin = GPIO_PIN_3;
 8001148:	2308      	movs	r3, #8
 800114a:	617b      	str	r3, [r7, #20]
  GPIO_InitStruct.Mode = GPIO_MODE_AF_PP;
 800114c:	2302      	movs	r3, #2
 800114e:	61bb      	str	r3, [r7, #24]
  GPIO_InitStruct.Pull = GPIO_NOPULL;
 8001150:	2300      	movs	r3, #0
 8001152:	61fb      	str	r3, [r7, #28]
  GPIO_InitStruct.Speed = GPIO_SPEED_FREQ_VERY_HIGH;
 8001154:	2303      	movs	r3, #3
 8001156:	623b      	str	r3, [r7, #32]
  GPIO_InitStruct.Alternate = GPIO_AF5_SPI2;
 8001158:	2305      	movs	r3, #5
 800115a:	627b      	str	r3, [r7, #36]	; 0x24
  HAL_GPIO_Init(GPIOD, &GPIO_InitStruct);
 800115c:	f107 0314 	add.w	r3, r7, #20
 8001160:	4619      	mov	r1, r3
 8001162:	4806      	ldr	r0, [pc, #24]	; (800117c <MX_GPIO_Init+0x1c8>)
 8001164:	f000 ff28 	bl	8001fb8 <HAL_GPIO_Init>

/* USER CODE BEGIN MX_GPIO_Init_2 */
/* USER CODE END MX_GPIO_Init_2 */
}
 8001168:	bf00      	nop
 800116a:	3728      	adds	r7, #40	; 0x28
 800116c:	46bd      	mov	sp, r7
 800116e:	bd80      	pop	{r7, pc}
 8001170:	40023800 	.word	0x40023800
 8001174:	40020800 	.word	0x40020800
 8001178:	40020400 	.word	0x40020400
 800117c:	40020c00 	.word	0x40020c00
 8001180:	40020000 	.word	0x40020000

08001184 <clean_data_buffer>:

/* USER CODE BEGIN 4 */
void clean_data_buffer() {
 8001184:	b480      	push	{r7}
 8001186:	b083      	sub	sp, #12
 8001188:	af00      	add	r7, sp, #0
    for (int i = 0; i < PAGE_SIZE; ++i) {
 800118a:	2300      	movs	r3, #0
 800118c:	607b      	str	r3, [r7, #4]
 800118e:	e007      	b.n	80011a0 <clean_data_buffer+0x1c>
        data_buffer[i] = 0xFF;  // Initialize each element to 0xFF
 8001190:	4a08      	ldr	r2, [pc, #32]	; (80011b4 <clean_data_buffer+0x30>)
 8001192:	687b      	ldr	r3, [r7, #4]
 8001194:	4413      	add	r3, r2
 8001196:	22ff      	movs	r2, #255	; 0xff
 8001198:	701a      	strb	r2, [r3, #0]
    for (int i = 0; i < PAGE_SIZE; ++i) {
 800119a:	687b      	ldr	r3, [r7, #4]
 800119c:	3301      	adds	r3, #1
 800119e:	607b      	str	r3, [r7, #4]
 80011a0:	687b      	ldr	r3, [r7, #4]
 80011a2:	2bff      	cmp	r3, #255	; 0xff
 80011a4:	ddf4      	ble.n	8001190 <clean_data_buffer+0xc>
    }
}
 80011a6:	bf00      	nop
 80011a8:	bf00      	nop
 80011aa:	370c      	adds	r7, #12
 80011ac:	46bd      	mov	sp, r7
 80011ae:	f85d 7b04 	ldr.w	r7, [sp], #4
 80011b2:	4770      	bx	lr
 80011b4:	200001f4 	.word	0x200001f4

080011b8 <Error_Handler>:
/**
  * @brief  This function is executed in case of error occurrence.
  * @retval None
  */
void Error_Handler(void)
{
 80011b8:	b480      	push	{r7}
 80011ba:	af00      	add	r7, sp, #0
  \details Disables IRQ interrupts by setting special-purpose register PRIMASK.
           Can only be executed in Privileged modes.
 */
__STATIC_FORCEINLINE void __disable_irq(void)
{
  __ASM volatile ("cpsid i" : : : "memory");
 80011bc:	b672      	cpsid	i
}
 80011be:	bf00      	nop
  /* USER CODE BEGIN Error_Handler_Debug */
  /* User can add his own implementation to report the HAL error return state */
  __disable_irq();
  while (1)
 80011c0:	e7fe      	b.n	80011c0 <Error_Handler+0x8>
	...

080011c4 <initialise_rtc_default>:
    .Month = RTC_MONTH_JANUARY, // Set default month (e.g., January)
    .Date = 1, // Set default day of the month
    .Year = 24 // Set default year (e.g., 2021)
};

void initialise_rtc_default(RTC_HandleTypeDef* hrtc) {
 80011c4:	b580      	push	{r7, lr}
 80011c6:	b082      	sub	sp, #8
 80011c8:	af00      	add	r7, sp, #0
 80011ca:	6078      	str	r0, [r7, #4]
	// Reset RTC on boot
	HAL_RTC_MspInit(hrtc); // Initialize RTC hardware
 80011cc:	6878      	ldr	r0, [r7, #4]
 80011ce:	f000 f9db 	bl	8001588 <HAL_RTC_MspInit>
	HAL_RTC_SetTime(hrtc, &defaultTime, RTC_FORMAT_BIN); // Set default time
 80011d2:	2200      	movs	r2, #0
 80011d4:	4906      	ldr	r1, [pc, #24]	; (80011f0 <initialise_rtc_default+0x2c>)
 80011d6:	6878      	ldr	r0, [r7, #4]
 80011d8:	f002 fff7 	bl	80041ca <HAL_RTC_SetTime>
	HAL_RTC_SetDate(hrtc, &defaultDate, RTC_FORMAT_BIN); // Set default date
 80011dc:	2200      	movs	r2, #0
 80011de:	4905      	ldr	r1, [pc, #20]	; (80011f4 <initialise_rtc_default+0x30>)
 80011e0:	6878      	ldr	r0, [r7, #4]
 80011e2:	f003 f8ea 	bl	80043ba <HAL_RTC_SetDate>
}
 80011e6:	bf00      	nop
 80011e8:	3708      	adds	r7, #8
 80011ea:	46bd      	mov	sp, r7
 80011ec:	bd80      	pop	{r7, pc}
 80011ee:	bf00      	nop
 80011f0:	200002fc 	.word	0x200002fc
 80011f4:	20000014 	.word	0x20000014

080011f8 <getTimestampMilliseconds>:

uint32_t getTimestampMilliseconds(RTC_HandleTypeDef* hrtc) {
 80011f8:	b580      	push	{r7, lr}
 80011fa:	b08c      	sub	sp, #48	; 0x30
 80011fc:	af00      	add	r7, sp, #0
 80011fe:	6078      	str	r0, [r7, #4]
    RTC_TimeTypeDef rtcTime;
    RTC_DateTypeDef rtcDate;

    // Read RTC time and date
    HAL_RTC_GetTime(hrtc, &rtcTime, RTC_FORMAT_BIN);
 8001200:	f107 0310 	add.w	r3, r7, #16
 8001204:	2200      	movs	r2, #0
 8001206:	4619      	mov	r1, r3
 8001208:	6878      	ldr	r0, [r7, #4]
 800120a:	f003 f878 	bl	80042fe <HAL_RTC_GetTime>
    HAL_RTC_GetDate(hrtc, &rtcDate, RTC_FORMAT_BIN);
 800120e:	f107 030c 	add.w	r3, r7, #12
 8001212:	2200      	movs	r2, #0
 8001214:	4619      	mov	r1, r3
 8001216:	6878      	ldr	r0, [r7, #4]
 8001218:	f003 f953 	bl	80044c2 <HAL_RTC_GetDate>

    // Calculate timestamp in milliseconds
    uint32_t timestampSeconds = rtcTime.Seconds + rtcTime.Minutes * 60 + rtcTime.Hours * 3600;
 800121c:	7cbb      	ldrb	r3, [r7, #18]
 800121e:	4619      	mov	r1, r3
 8001220:	7c7b      	ldrb	r3, [r7, #17]
 8001222:	461a      	mov	r2, r3
 8001224:	4613      	mov	r3, r2
 8001226:	011b      	lsls	r3, r3, #4
 8001228:	1a9b      	subs	r3, r3, r2
 800122a:	009b      	lsls	r3, r3, #2
 800122c:	18ca      	adds	r2, r1, r3
 800122e:	7c3b      	ldrb	r3, [r7, #16]
 8001230:	4619      	mov	r1, r3
 8001232:	f44f 6361 	mov.w	r3, #3600	; 0xe10
 8001236:	fb01 f303 	mul.w	r3, r1, r3
 800123a:	4413      	add	r3, r2
 800123c:	62fb      	str	r3, [r7, #44]	; 0x2c
    uint32_t timestampMilliseconds = timestampSeconds * 1000;
 800123e:	6afb      	ldr	r3, [r7, #44]	; 0x2c
 8001240:	f44f 727a 	mov.w	r2, #1000	; 0x3e8
 8001244:	fb02 f303 	mul.w	r3, r2, r3
 8001248:	62bb      	str	r3, [r7, #40]	; 0x28
    float subsecondsFraction = (float)(rtcTime.SecondFraction - rtcTime.SubSeconds) / (rtcTime.SecondFraction + 1);
 800124a:	69ba      	ldr	r2, [r7, #24]
 800124c:	697b      	ldr	r3, [r7, #20]
 800124e:	1ad3      	subs	r3, r2, r3
 8001250:	ee07 3a90 	vmov	s15, r3
 8001254:	eef8 6a67 	vcvt.f32.u32	s13, s15
 8001258:	69bb      	ldr	r3, [r7, #24]
 800125a:	3301      	adds	r3, #1
 800125c:	ee07 3a90 	vmov	s15, r3
 8001260:	eeb8 7a67 	vcvt.f32.u32	s14, s15
 8001264:	eec6 7a87 	vdiv.f32	s15, s13, s14
 8001268:	edc7 7a09 	vstr	s15, [r7, #36]	; 0x24
    timestampMilliseconds += subsecondsFraction * 1000;
 800126c:	6abb      	ldr	r3, [r7, #40]	; 0x28
 800126e:	ee07 3a90 	vmov	s15, r3
 8001272:	eeb8 7a67 	vcvt.f32.u32	s14, s15
 8001276:	edd7 7a09 	vldr	s15, [r7, #36]	; 0x24
 800127a:	eddf 6a08 	vldr	s13, [pc, #32]	; 800129c <getTimestampMilliseconds+0xa4>
 800127e:	ee67 7aa6 	vmul.f32	s15, s15, s13
 8001282:	ee77 7a27 	vadd.f32	s15, s14, s15
 8001286:	eefc 7ae7 	vcvt.u32.f32	s15, s15
 800128a:	ee17 3a90 	vmov	r3, s15
 800128e:	62bb      	str	r3, [r7, #40]	; 0x28

    return timestampMilliseconds;
 8001290:	6abb      	ldr	r3, [r7, #40]	; 0x28
}
 8001292:	4618      	mov	r0, r3
 8001294:	3730      	adds	r7, #48	; 0x30
 8001296:	46bd      	mov	sp, r7
 8001298:	bd80      	pop	{r7, pc}
 800129a:	bf00      	nop
 800129c:	447a0000 	.word	0x447a0000

080012a0 <spi_sendOp_readByte>:
#ifndef SRC_SPI_DRIVER_C_
#define SRC_SPI_DRIVER_C_

#include "spi_driver.h"

uint8_t spi_sendOp_readByte(uint8_t* opcode, SPI_HandleTypeDef *hspi, GPIO_TypeDef* GPIOx, uint16_t GPIO_Pin_CS) {
 80012a0:	b580      	push	{r7, lr}
 80012a2:	b086      	sub	sp, #24
 80012a4:	af00      	add	r7, sp, #0
 80012a6:	60f8      	str	r0, [r7, #12]
 80012a8:	60b9      	str	r1, [r7, #8]
 80012aa:	607a      	str	r2, [r7, #4]
 80012ac:	807b      	strh	r3, [r7, #2]
	uint8_t ret_data = 0x00;
 80012ae:	2300      	movs	r3, #0
 80012b0:	75fb      	strb	r3, [r7, #23]

	HAL_GPIO_WritePin(GPIOx, GPIO_Pin_CS, GPIO_PIN_RESET);	// Set the chip select pin to low to initiate SPI comms
 80012b2:	887b      	ldrh	r3, [r7, #2]
 80012b4:	2200      	movs	r2, #0
 80012b6:	4619      	mov	r1, r3
 80012b8:	6878      	ldr	r0, [r7, #4]
 80012ba:	f001 f841 	bl	8002340 <HAL_GPIO_WritePin>
	HAL_SPI_Transmit(hspi, opcode, 1, 100);	// Write the write enable value to the Flash to initial reading
 80012be:	2364      	movs	r3, #100	; 0x64
 80012c0:	2201      	movs	r2, #1
 80012c2:	68f9      	ldr	r1, [r7, #12]
 80012c4:	68b8      	ldr	r0, [r7, #8]
 80012c6:	f003 fa92 	bl	80047ee <HAL_SPI_Transmit>
	HAL_SPI_Receive(hspi, &ret_data, 1, 100);
 80012ca:	f107 0117 	add.w	r1, r7, #23
 80012ce:	2364      	movs	r3, #100	; 0x64
 80012d0:	2201      	movs	r2, #1
 80012d2:	68b8      	ldr	r0, [r7, #8]
 80012d4:	f003 fbce 	bl	8004a74 <HAL_SPI_Receive>
	HAL_GPIO_WritePin(GPIOx, GPIO_Pin_CS, GPIO_PIN_SET);
 80012d8:	887b      	ldrh	r3, [r7, #2]
 80012da:	2201      	movs	r2, #1
 80012dc:	4619      	mov	r1, r3
 80012de:	6878      	ldr	r0, [r7, #4]
 80012e0:	f001 f82e 	bl	8002340 <HAL_GPIO_WritePin>

	return ret_data;
 80012e4:	7dfb      	ldrb	r3, [r7, #23]
}
 80012e6:	4618      	mov	r0, r3
 80012e8:	3718      	adds	r7, #24
 80012ea:	46bd      	mov	sp, r7
 80012ec:	bd80      	pop	{r7, pc}

080012ee <perform_operation>:

void perform_operation(uint8_t* opcode, SPI_HandleTypeDef *hspi, GPIO_TypeDef* GPIOx, uint16_t GPIO_Pin_CS) {
 80012ee:	b580      	push	{r7, lr}
 80012f0:	b084      	sub	sp, #16
 80012f2:	af00      	add	r7, sp, #0
 80012f4:	60f8      	str	r0, [r7, #12]
 80012f6:	60b9      	str	r1, [r7, #8]
 80012f8:	607a      	str	r2, [r7, #4]
 80012fa:	807b      	strh	r3, [r7, #2]
	HAL_GPIO_WritePin(GPIOx, GPIO_Pin_CS, GPIO_PIN_RESET);	// Set the chip select pin to low to initiate SPI comms
 80012fc:	887b      	ldrh	r3, [r7, #2]
 80012fe:	2200      	movs	r2, #0
 8001300:	4619      	mov	r1, r3
 8001302:	6878      	ldr	r0, [r7, #4]
 8001304:	f001 f81c 	bl	8002340 <HAL_GPIO_WritePin>
	HAL_SPI_Transmit(hspi, opcode, 1, 100);				// Write the opcode value
 8001308:	2364      	movs	r3, #100	; 0x64
 800130a:	2201      	movs	r2, #1
 800130c:	68f9      	ldr	r1, [r7, #12]
 800130e:	68b8      	ldr	r0, [r7, #8]
 8001310:	f003 fa6d 	bl	80047ee <HAL_SPI_Transmit>
	HAL_GPIO_WritePin(GPIOx, GPIO_Pin_CS, GPIO_PIN_SET);
 8001314:	887b      	ldrh	r3, [r7, #2]
 8001316:	2201      	movs	r2, #1
 8001318:	4619      	mov	r1, r3
 800131a:	6878      	ldr	r0, [r7, #4]
 800131c:	f001 f810 	bl	8002340 <HAL_GPIO_WritePin>
}
 8001320:	bf00      	nop
 8001322:	3710      	adds	r7, #16
 8001324:	46bd      	mov	sp, r7
 8001326:	bd80      	pop	{r7, pc}

08001328 <spi_read_data>:


void spi_read_data(uint8_t* opcode, uint16_t data_size, uint8_t data_read[data_size], SPI_HandleTypeDef *hspi, uint32_t addr, GPIO_TypeDef* GPIOx, uint16_t GPIO_Pin_CS) {
 8001328:	b580      	push	{r7, lr}
 800132a:	b086      	sub	sp, #24
 800132c:	af00      	add	r7, sp, #0
 800132e:	60f8      	str	r0, [r7, #12]
 8001330:	607a      	str	r2, [r7, #4]
 8001332:	603b      	str	r3, [r7, #0]
 8001334:	460b      	mov	r3, r1
 8001336:	817b      	strh	r3, [r7, #10]
	// Split the 24 bit address into three 8 bit ints
	uint8_t addrL = addr & 0xFF;  // Get the low byte
 8001338:	6a3b      	ldr	r3, [r7, #32]
 800133a:	b2db      	uxtb	r3, r3
 800133c:	75fb      	strb	r3, [r7, #23]
	uint8_t addrM = (addr >> 8) & 0xFF;  // Get the middle byte
 800133e:	6a3b      	ldr	r3, [r7, #32]
 8001340:	0a1b      	lsrs	r3, r3, #8
 8001342:	b2db      	uxtb	r3, r3
 8001344:	75bb      	strb	r3, [r7, #22]
	uint8_t addrH = (addr >> 16) & 0xFF;  // Get the high byte
 8001346:	6a3b      	ldr	r3, [r7, #32]
 8001348:	0c1b      	lsrs	r3, r3, #16
 800134a:	b2db      	uxtb	r3, r3
 800134c:	757b      	strb	r3, [r7, #21]

	// Read the data denoted by the given address
	HAL_GPIO_WritePin(GPIOx, GPIO_Pin_CS, GPIO_PIN_RESET);
 800134e:	8d3b      	ldrh	r3, [r7, #40]	; 0x28
 8001350:	2200      	movs	r2, #0
 8001352:	4619      	mov	r1, r3
 8001354:	6a78      	ldr	r0, [r7, #36]	; 0x24
 8001356:	f000 fff3 	bl	8002340 <HAL_GPIO_WritePin>
	HAL_SPI_Transmit(hspi, opcode, 1, 100);	// Write the read enable value
 800135a:	2364      	movs	r3, #100	; 0x64
 800135c:	2201      	movs	r2, #1
 800135e:	68f9      	ldr	r1, [r7, #12]
 8001360:	6838      	ldr	r0, [r7, #0]
 8001362:	f003 fa44 	bl	80047ee <HAL_SPI_Transmit>

	// Transmit the 24 bit address of the page to initialise read from
	HAL_SPI_Transmit(hspi, &addrH, 1, 100);
 8001366:	f107 0115 	add.w	r1, r7, #21
 800136a:	2364      	movs	r3, #100	; 0x64
 800136c:	2201      	movs	r2, #1
 800136e:	6838      	ldr	r0, [r7, #0]
 8001370:	f003 fa3d 	bl	80047ee <HAL_SPI_Transmit>
	HAL_SPI_Transmit(hspi, &addrM, 1, 100);
 8001374:	f107 0116 	add.w	r1, r7, #22
 8001378:	2364      	movs	r3, #100	; 0x64
 800137a:	2201      	movs	r2, #1
 800137c:	6838      	ldr	r0, [r7, #0]
 800137e:	f003 fa36 	bl	80047ee <HAL_SPI_Transmit>
	HAL_SPI_Transmit(hspi, &addrL, 1, 100);
 8001382:	f107 0117 	add.w	r1, r7, #23
 8001386:	2364      	movs	r3, #100	; 0x64
 8001388:	2201      	movs	r2, #1
 800138a:	6838      	ldr	r0, [r7, #0]
 800138c:	f003 fa2f 	bl	80047ee <HAL_SPI_Transmit>

	HAL_SPI_Receive(hspi, data_read, 4, 100);
 8001390:	2364      	movs	r3, #100	; 0x64
 8001392:	2204      	movs	r2, #4
 8001394:	6879      	ldr	r1, [r7, #4]
 8001396:	6838      	ldr	r0, [r7, #0]
 8001398:	f003 fb6c 	bl	8004a74 <HAL_SPI_Receive>
	HAL_GPIO_WritePin(GPIOx, GPIO_Pin_CS, GPIO_PIN_SET);
 800139c:	8d3b      	ldrh	r3, [r7, #40]	; 0x28
 800139e:	2201      	movs	r2, #1
 80013a0:	4619      	mov	r1, r3
 80013a2:	6a78      	ldr	r0, [r7, #36]	; 0x24
 80013a4:	f000 ffcc 	bl	8002340 <HAL_GPIO_WritePin>
}
 80013a8:	bf00      	nop
 80013aa:	3718      	adds	r7, #24
 80013ac:	46bd      	mov	sp, r7
 80013ae:	bd80      	pop	{r7, pc}

080013b0 <spi_write_data>:

void spi_write_data(uint8_t* opcode, uint16_t data_size, uint8_t data_write[data_size], SPI_HandleTypeDef *hspi, uint32_t addr, GPIO_TypeDef* GPIOx, uint16_t GPIO_Pin_CS) {
 80013b0:	b580      	push	{r7, lr}
 80013b2:	b086      	sub	sp, #24
 80013b4:	af00      	add	r7, sp, #0
 80013b6:	60f8      	str	r0, [r7, #12]
 80013b8:	607a      	str	r2, [r7, #4]
 80013ba:	603b      	str	r3, [r7, #0]
 80013bc:	460b      	mov	r3, r1
 80013be:	817b      	strh	r3, [r7, #10]
	// Split the 24 bit address into three 8 bit ints
	uint8_t addrL = addr & 0xFF;  			// Get the low byte
 80013c0:	6a3b      	ldr	r3, [r7, #32]
 80013c2:	b2db      	uxtb	r3, r3
 80013c4:	75fb      	strb	r3, [r7, #23]
	uint8_t addrM = (addr >> 8) & 0xFF;  	// Get the middle byte
 80013c6:	6a3b      	ldr	r3, [r7, #32]
 80013c8:	0a1b      	lsrs	r3, r3, #8
 80013ca:	b2db      	uxtb	r3, r3
 80013cc:	75bb      	strb	r3, [r7, #22]
	uint8_t addrH = (addr >> 16) & 0xFF;  	// Get the high byte
 80013ce:	6a3b      	ldr	r3, [r7, #32]
 80013d0:	0c1b      	lsrs	r3, r3, #16
 80013d2:	b2db      	uxtb	r3, r3
 80013d4:	757b      	strb	r3, [r7, #21]

	// Send the PageWrite command
	HAL_GPIO_WritePin(GPIOx, GPIO_Pin_CS, GPIO_PIN_RESET);	// Set the chip select pin to low to initiate SPI comms
 80013d6:	8d3b      	ldrh	r3, [r7, #40]	; 0x28
 80013d8:	2200      	movs	r2, #0
 80013da:	4619      	mov	r1, r3
 80013dc:	6a78      	ldr	r0, [r7, #36]	; 0x24
 80013de:	f000 ffaf 	bl	8002340 <HAL_GPIO_WritePin>
	HAL_SPI_Transmit(hspi, opcode, 1, 100);					// Write the write enable value to the Flash to initial writing
 80013e2:	2364      	movs	r3, #100	; 0x64
 80013e4:	2201      	movs	r2, #1
 80013e6:	68f9      	ldr	r1, [r7, #12]
 80013e8:	6838      	ldr	r0, [r7, #0]
 80013ea:	f003 fa00 	bl	80047ee <HAL_SPI_Transmit>

	// Transmit the 24 bit address of the page to write to
	HAL_SPI_Transmit(hspi, &addrH, 1, 100);
 80013ee:	f107 0115 	add.w	r1, r7, #21
 80013f2:	2364      	movs	r3, #100	; 0x64
 80013f4:	2201      	movs	r2, #1
 80013f6:	6838      	ldr	r0, [r7, #0]
 80013f8:	f003 f9f9 	bl	80047ee <HAL_SPI_Transmit>
	HAL_SPI_Transmit(hspi, &addrM, 1, 100);
 80013fc:	f107 0116 	add.w	r1, r7, #22
 8001400:	2364      	movs	r3, #100	; 0x64
 8001402:	2201      	movs	r2, #1
 8001404:	6838      	ldr	r0, [r7, #0]
 8001406:	f003 f9f2 	bl	80047ee <HAL_SPI_Transmit>
	HAL_SPI_Transmit(hspi, &addrL, 1, 100);
 800140a:	f107 0117 	add.w	r1, r7, #23
 800140e:	2364      	movs	r3, #100	; 0x64
 8001410:	2201      	movs	r2, #1
 8001412:	6838      	ldr	r0, [r7, #0]
 8001414:	f003 f9eb 	bl	80047ee <HAL_SPI_Transmit>

	// Transmit the data to be written
	HAL_SPI_Transmit(hspi, data_write, data_size, 1000);
 8001418:	897a      	ldrh	r2, [r7, #10]
 800141a:	f44f 737a 	mov.w	r3, #1000	; 0x3e8
 800141e:	6879      	ldr	r1, [r7, #4]
 8001420:	6838      	ldr	r0, [r7, #0]
 8001422:	f003 f9e4 	bl	80047ee <HAL_SPI_Transmit>
	HAL_GPIO_WritePin(GPIOx, GPIO_Pin_CS, GPIO_PIN_SET);	// Set the chip select pin to high to remove the Flash from the SPI bus
 8001426:	8d3b      	ldrh	r3, [r7, #40]	; 0x28
 8001428:	2201      	movs	r2, #1
 800142a:	4619      	mov	r1, r3
 800142c:	6a78      	ldr	r0, [r7, #36]	; 0x24
 800142e:	f000 ff87 	bl	8002340 <HAL_GPIO_WritePin>
}
 8001432:	bf00      	nop
 8001434:	3718      	adds	r7, #24
 8001436:	46bd      	mov	sp, r7
 8001438:	bd80      	pop	{r7, pc}
	...

0800143c <HAL_MspInit>:
/* USER CODE END 0 */
/**
  * Initializes the Global MSP.
  */
void HAL_MspInit(void)
{
 800143c:	b480      	push	{r7}
 800143e:	b083      	sub	sp, #12
 8001440:	af00      	add	r7, sp, #0
  /* USER CODE BEGIN MspInit 0 */

  /* USER CODE END MspInit 0 */

  __HAL_RCC_SYSCFG_CLK_ENABLE();
 8001442:	2300      	movs	r3, #0
 8001444:	607b      	str	r3, [r7, #4]
 8001446:	4b10      	ldr	r3, [pc, #64]	; (8001488 <HAL_MspInit+0x4c>)
 8001448:	6c5b      	ldr	r3, [r3, #68]	; 0x44
 800144a:	4a0f      	ldr	r2, [pc, #60]	; (8001488 <HAL_MspInit+0x4c>)
 800144c:	f443 4380 	orr.w	r3, r3, #16384	; 0x4000
 8001450:	6453      	str	r3, [r2, #68]	; 0x44
 8001452:	4b0d      	ldr	r3, [pc, #52]	; (8001488 <HAL_MspInit+0x4c>)
 8001454:	6c5b      	ldr	r3, [r3, #68]	; 0x44
 8001456:	f403 4380 	and.w	r3, r3, #16384	; 0x4000
 800145a:	607b      	str	r3, [r7, #4]
 800145c:	687b      	ldr	r3, [r7, #4]
  __HAL_RCC_PWR_CLK_ENABLE();
 800145e:	2300      	movs	r3, #0
 8001460:	603b      	str	r3, [r7, #0]
 8001462:	4b09      	ldr	r3, [pc, #36]	; (8001488 <HAL_MspInit+0x4c>)
 8001464:	6c1b      	ldr	r3, [r3, #64]	; 0x40
 8001466:	4a08      	ldr	r2, [pc, #32]	; (8001488 <HAL_MspInit+0x4c>)
 8001468:	f043 5380 	orr.w	r3, r3, #268435456	; 0x10000000
 800146c:	6413      	str	r3, [r2, #64]	; 0x40
 800146e:	4b06      	ldr	r3, [pc, #24]	; (8001488 <HAL_MspInit+0x4c>)
 8001470:	6c1b      	ldr	r3, [r3, #64]	; 0x40
 8001472:	f003 5380 	and.w	r3, r3, #268435456	; 0x10000000
 8001476:	603b      	str	r3, [r7, #0]
 8001478:	683b      	ldr	r3, [r7, #0]
  /* System interrupt init*/

  /* USER CODE BEGIN MspInit 1 */

  /* USER CODE END MspInit 1 */
}
 800147a:	bf00      	nop
 800147c:	370c      	adds	r7, #12
 800147e:	46bd      	mov	sp, r7
 8001480:	f85d 7b04 	ldr.w	r7, [sp], #4
 8001484:	4770      	bx	lr
 8001486:	bf00      	nop
 8001488:	40023800 	.word	0x40023800

0800148c <HAL_I2C_MspInit>:
* This function configures the hardware resources used in this example
* @param hi2c: I2C handle pointer
* @retval None
*/
void HAL_I2C_MspInit(I2C_HandleTypeDef* hi2c)
{
 800148c:	b580      	push	{r7, lr}
 800148e:	b08c      	sub	sp, #48	; 0x30
 8001490:	af00      	add	r7, sp, #0
 8001492:	6078      	str	r0, [r7, #4]
  GPIO_InitTypeDef GPIO_InitStruct = {0};
 8001494:	f107 031c 	add.w	r3, r7, #28
 8001498:	2200      	movs	r2, #0
 800149a:	601a      	str	r2, [r3, #0]
 800149c:	605a      	str	r2, [r3, #4]
 800149e:	609a      	str	r2, [r3, #8]
 80014a0:	60da      	str	r2, [r3, #12]
 80014a2:	611a      	str	r2, [r3, #16]
  if(hi2c->Instance==I2C1)
 80014a4:	687b      	ldr	r3, [r7, #4]
 80014a6:	681b      	ldr	r3, [r3, #0]
 80014a8:	4a33      	ldr	r2, [pc, #204]	; (8001578 <HAL_I2C_MspInit+0xec>)
 80014aa:	4293      	cmp	r3, r2
 80014ac:	d12d      	bne.n	800150a <HAL_I2C_MspInit+0x7e>
  {
  /* USER CODE BEGIN I2C1_MspInit 0 */

  /* USER CODE END I2C1_MspInit 0 */

    __HAL_RCC_GPIOB_CLK_ENABLE();
 80014ae:	2300      	movs	r3, #0
 80014b0:	61bb      	str	r3, [r7, #24]
 80014b2:	4b32      	ldr	r3, [pc, #200]	; (800157c <HAL_I2C_MspInit+0xf0>)
 80014b4:	6b1b      	ldr	r3, [r3, #48]	; 0x30
 80014b6:	4a31      	ldr	r2, [pc, #196]	; (800157c <HAL_I2C_MspInit+0xf0>)
 80014b8:	f043 0302 	orr.w	r3, r3, #2
 80014bc:	6313      	str	r3, [r2, #48]	; 0x30
 80014be:	4b2f      	ldr	r3, [pc, #188]	; (800157c <HAL_I2C_MspInit+0xf0>)
 80014c0:	6b1b      	ldr	r3, [r3, #48]	; 0x30
 80014c2:	f003 0302 	and.w	r3, r3, #2
 80014c6:	61bb      	str	r3, [r7, #24]
 80014c8:	69bb      	ldr	r3, [r7, #24]
    /**I2C1 GPIO Configuration
    PB8     ------> I2C1_SCL
    PB9     ------> I2C1_SDA
    */
    GPIO_InitStruct.Pin = GPIO_PIN_8|GPIO_PIN_9;
 80014ca:	f44f 7340 	mov.w	r3, #768	; 0x300
 80014ce:	61fb      	str	r3, [r7, #28]
    GPIO_InitStruct.Mode = GPIO_MODE_AF_OD;
 80014d0:	2312      	movs	r3, #18
 80014d2:	623b      	str	r3, [r7, #32]
    GPIO_InitStruct.Pull = GPIO_NOPULL;
 80014d4:	2300      	movs	r3, #0
 80014d6:	627b      	str	r3, [r7, #36]	; 0x24
    GPIO_InitStruct.Speed = GPIO_SPEED_FREQ_VERY_HIGH;
 80014d8:	2303      	movs	r3, #3
 80014da:	62bb      	str	r3, [r7, #40]	; 0x28
    GPIO_InitStruct.Alternate = GPIO_AF4_I2C1;
 80014dc:	2304      	movs	r3, #4
 80014de:	62fb      	str	r3, [r7, #44]	; 0x2c
    HAL_GPIO_Init(GPIOB, &GPIO_InitStruct);
 80014e0:	f107 031c 	add.w	r3, r7, #28
 80014e4:	4619      	mov	r1, r3
 80014e6:	4826      	ldr	r0, [pc, #152]	; (8001580 <HAL_I2C_MspInit+0xf4>)
 80014e8:	f000 fd66 	bl	8001fb8 <HAL_GPIO_Init>

    /* Peripheral clock enable */
    __HAL_RCC_I2C1_CLK_ENABLE();
 80014ec:	2300      	movs	r3, #0
 80014ee:	617b      	str	r3, [r7, #20]
 80014f0:	4b22      	ldr	r3, [pc, #136]	; (800157c <HAL_I2C_MspInit+0xf0>)
 80014f2:	6c1b      	ldr	r3, [r3, #64]	; 0x40
 80014f4:	4a21      	ldr	r2, [pc, #132]	; (800157c <HAL_I2C_MspInit+0xf0>)
 80014f6:	f443 1300 	orr.w	r3, r3, #2097152	; 0x200000
 80014fa:	6413      	str	r3, [r2, #64]	; 0x40
 80014fc:	4b1f      	ldr	r3, [pc, #124]	; (800157c <HAL_I2C_MspInit+0xf0>)
 80014fe:	6c1b      	ldr	r3, [r3, #64]	; 0x40
 8001500:	f403 1300 	and.w	r3, r3, #2097152	; 0x200000
 8001504:	617b      	str	r3, [r7, #20]
 8001506:	697b      	ldr	r3, [r7, #20]
  /* USER CODE BEGIN I2C2_MspInit 1 */

  /* USER CODE END I2C2_MspInit 1 */
  }

}
 8001508:	e031      	b.n	800156e <HAL_I2C_MspInit+0xe2>
  else if(hi2c->Instance==I2C2)
 800150a:	687b      	ldr	r3, [r7, #4]
 800150c:	681b      	ldr	r3, [r3, #0]
 800150e:	4a1d      	ldr	r2, [pc, #116]	; (8001584 <HAL_I2C_MspInit+0xf8>)
 8001510:	4293      	cmp	r3, r2
 8001512:	d12c      	bne.n	800156e <HAL_I2C_MspInit+0xe2>
    __HAL_RCC_GPIOB_CLK_ENABLE();
 8001514:	2300      	movs	r3, #0
 8001516:	613b      	str	r3, [r7, #16]
 8001518:	4b18      	ldr	r3, [pc, #96]	; (800157c <HAL_I2C_MspInit+0xf0>)
 800151a:	6b1b      	ldr	r3, [r3, #48]	; 0x30
 800151c:	4a17      	ldr	r2, [pc, #92]	; (800157c <HAL_I2C_MspInit+0xf0>)
 800151e:	f043 0302 	orr.w	r3, r3, #2
 8001522:	6313      	str	r3, [r2, #48]	; 0x30
 8001524:	4b15      	ldr	r3, [pc, #84]	; (800157c <HAL_I2C_MspInit+0xf0>)
 8001526:	6b1b      	ldr	r3, [r3, #48]	; 0x30
 8001528:	f003 0302 	and.w	r3, r3, #2
 800152c:	613b      	str	r3, [r7, #16]
 800152e:	693b      	ldr	r3, [r7, #16]
    GPIO_InitStruct.Pin = GPIO_PIN_10|GPIO_PIN_11;
 8001530:	f44f 6340 	mov.w	r3, #3072	; 0xc00
 8001534:	61fb      	str	r3, [r7, #28]
    GPIO_InitStruct.Mode = GPIO_MODE_AF_OD;
 8001536:	2312      	movs	r3, #18
 8001538:	623b      	str	r3, [r7, #32]
    GPIO_InitStruct.Pull = GPIO_NOPULL;
 800153a:	2300      	movs	r3, #0
 800153c:	627b      	str	r3, [r7, #36]	; 0x24
    GPIO_InitStruct.Speed = GPIO_SPEED_FREQ_VERY_HIGH;
 800153e:	2303      	movs	r3, #3
 8001540:	62bb      	str	r3, [r7, #40]	; 0x28
    GPIO_InitStruct.Alternate = GPIO_AF4_I2C2;
 8001542:	2304      	movs	r3, #4
 8001544:	62fb      	str	r3, [r7, #44]	; 0x2c
    HAL_GPIO_Init(GPIOB, &GPIO_InitStruct);
 8001546:	f107 031c 	add.w	r3, r7, #28
 800154a:	4619      	mov	r1, r3
 800154c:	480c      	ldr	r0, [pc, #48]	; (8001580 <HAL_I2C_MspInit+0xf4>)
 800154e:	f000 fd33 	bl	8001fb8 <HAL_GPIO_Init>
    __HAL_RCC_I2C2_CLK_ENABLE();
 8001552:	2300      	movs	r3, #0
 8001554:	60fb      	str	r3, [r7, #12]
 8001556:	4b09      	ldr	r3, [pc, #36]	; (800157c <HAL_I2C_MspInit+0xf0>)
 8001558:	6c1b      	ldr	r3, [r3, #64]	; 0x40
 800155a:	4a08      	ldr	r2, [pc, #32]	; (800157c <HAL_I2C_MspInit+0xf0>)
 800155c:	f443 0380 	orr.w	r3, r3, #4194304	; 0x400000
 8001560:	6413      	str	r3, [r2, #64]	; 0x40
 8001562:	4b06      	ldr	r3, [pc, #24]	; (800157c <HAL_I2C_MspInit+0xf0>)
 8001564:	6c1b      	ldr	r3, [r3, #64]	; 0x40
 8001566:	f403 0380 	and.w	r3, r3, #4194304	; 0x400000
 800156a:	60fb      	str	r3, [r7, #12]
 800156c:	68fb      	ldr	r3, [r7, #12]
}
 800156e:	bf00      	nop
 8001570:	3730      	adds	r7, #48	; 0x30
 8001572:	46bd      	mov	sp, r7
 8001574:	bd80      	pop	{r7, pc}
 8001576:	bf00      	nop
 8001578:	40005400 	.word	0x40005400
 800157c:	40023800 	.word	0x40023800
 8001580:	40020400 	.word	0x40020400
 8001584:	40005800 	.word	0x40005800

08001588 <HAL_RTC_MspInit>:
* This function configures the hardware resources used in this example
* @param hrtc: RTC handle pointer
* @retval None
*/
void HAL_RTC_MspInit(RTC_HandleTypeDef* hrtc)
{
 8001588:	b580      	push	{r7, lr}
 800158a:	b08e      	sub	sp, #56	; 0x38
 800158c:	af00      	add	r7, sp, #0
 800158e:	6078      	str	r0, [r7, #4]
  RCC_PeriphCLKInitTypeDef PeriphClkInitStruct = {0};
 8001590:	f107 0308 	add.w	r3, r7, #8
 8001594:	2230      	movs	r2, #48	; 0x30
 8001596:	2100      	movs	r1, #0
 8001598:	4618      	mov	r0, r3
 800159a:	f005 faed 	bl	8006b78 <memset>
  if(hrtc->Instance==RTC)
 800159e:	687b      	ldr	r3, [r7, #4]
 80015a0:	681b      	ldr	r3, [r3, #0]
 80015a2:	4a0c      	ldr	r2, [pc, #48]	; (80015d4 <HAL_RTC_MspInit+0x4c>)
 80015a4:	4293      	cmp	r3, r2
 80015a6:	d111      	bne.n	80015cc <HAL_RTC_MspInit+0x44>

  /* USER CODE END RTC_MspInit 0 */

  /** Initializes the peripherals clock
  */
    PeriphClkInitStruct.PeriphClockSelection = RCC_PERIPHCLK_RTC;
 80015a8:	2320      	movs	r3, #32
 80015aa:	60bb      	str	r3, [r7, #8]
    PeriphClkInitStruct.RTCClockSelection = RCC_RTCCLKSOURCE_LSI;
 80015ac:	f44f 7300 	mov.w	r3, #512	; 0x200
 80015b0:	633b      	str	r3, [r7, #48]	; 0x30
    if (HAL_RCCEx_PeriphCLKConfig(&PeriphClkInitStruct) != HAL_OK)
 80015b2:	f107 0308 	add.w	r3, r7, #8
 80015b6:	4618      	mov	r0, r3
 80015b8:	f002 fbc4 	bl	8003d44 <HAL_RCCEx_PeriphCLKConfig>
 80015bc:	4603      	mov	r3, r0
 80015be:	2b00      	cmp	r3, #0
 80015c0:	d001      	beq.n	80015c6 <HAL_RTC_MspInit+0x3e>
    {
      Error_Handler();
 80015c2:	f7ff fdf9 	bl	80011b8 <Error_Handler>
    }

    /* Peripheral clock enable */
    __HAL_RCC_RTC_ENABLE();
 80015c6:	4b04      	ldr	r3, [pc, #16]	; (80015d8 <HAL_RTC_MspInit+0x50>)
 80015c8:	2201      	movs	r2, #1
 80015ca:	601a      	str	r2, [r3, #0]
  /* USER CODE BEGIN RTC_MspInit 1 */

  /* USER CODE END RTC_MspInit 1 */
  }

}
 80015cc:	bf00      	nop
 80015ce:	3738      	adds	r7, #56	; 0x38
 80015d0:	46bd      	mov	sp, r7
 80015d2:	bd80      	pop	{r7, pc}
 80015d4:	40002800 	.word	0x40002800
 80015d8:	42470e3c 	.word	0x42470e3c

080015dc <HAL_SPI_MspInit>:
* This function configures the hardware resources used in this example
* @param hspi: SPI handle pointer
* @retval None
*/
void HAL_SPI_MspInit(SPI_HandleTypeDef* hspi)
{
 80015dc:	b580      	push	{r7, lr}
 80015de:	b08a      	sub	sp, #40	; 0x28
 80015e0:	af00      	add	r7, sp, #0
 80015e2:	6078      	str	r0, [r7, #4]
  GPIO_InitTypeDef GPIO_InitStruct = {0};
 80015e4:	f107 0314 	add.w	r3, r7, #20
 80015e8:	2200      	movs	r2, #0
 80015ea:	601a      	str	r2, [r3, #0]
 80015ec:	605a      	str	r2, [r3, #4]
 80015ee:	609a      	str	r2, [r3, #8]
 80015f0:	60da      	str	r2, [r3, #12]
 80015f2:	611a      	str	r2, [r3, #16]
  if(hspi->Instance==SPI1)
 80015f4:	687b      	ldr	r3, [r7, #4]
 80015f6:	681b      	ldr	r3, [r3, #0]
 80015f8:	4a19      	ldr	r2, [pc, #100]	; (8001660 <HAL_SPI_MspInit+0x84>)
 80015fa:	4293      	cmp	r3, r2
 80015fc:	d12b      	bne.n	8001656 <HAL_SPI_MspInit+0x7a>
  {
  /* USER CODE BEGIN SPI1_MspInit 0 */

  /* USER CODE END SPI1_MspInit 0 */
    /* Peripheral clock enable */
    __HAL_RCC_SPI1_CLK_ENABLE();
 80015fe:	2300      	movs	r3, #0
 8001600:	613b      	str	r3, [r7, #16]
 8001602:	4b18      	ldr	r3, [pc, #96]	; (8001664 <HAL_SPI_MspInit+0x88>)
 8001604:	6c5b      	ldr	r3, [r3, #68]	; 0x44
 8001606:	4a17      	ldr	r2, [pc, #92]	; (8001664 <HAL_SPI_MspInit+0x88>)
 8001608:	f443 5380 	orr.w	r3, r3, #4096	; 0x1000
 800160c:	6453      	str	r3, [r2, #68]	; 0x44
 800160e:	4b15      	ldr	r3, [pc, #84]	; (8001664 <HAL_SPI_MspInit+0x88>)
 8001610:	6c5b      	ldr	r3, [r3, #68]	; 0x44
 8001612:	f403 5380 	and.w	r3, r3, #4096	; 0x1000
 8001616:	613b      	str	r3, [r7, #16]
 8001618:	693b      	ldr	r3, [r7, #16]

    __HAL_RCC_GPIOA_CLK_ENABLE();
 800161a:	2300      	movs	r3, #0
 800161c:	60fb      	str	r3, [r7, #12]
 800161e:	4b11      	ldr	r3, [pc, #68]	; (8001664 <HAL_SPI_MspInit+0x88>)
 8001620:	6b1b      	ldr	r3, [r3, #48]	; 0x30
 8001622:	4a10      	ldr	r2, [pc, #64]	; (8001664 <HAL_SPI_MspInit+0x88>)
 8001624:	f043 0301 	orr.w	r3, r3, #1
 8001628:	6313      	str	r3, [r2, #48]	; 0x30
 800162a:	4b0e      	ldr	r3, [pc, #56]	; (8001664 <HAL_SPI_MspInit+0x88>)
 800162c:	6b1b      	ldr	r3, [r3, #48]	; 0x30
 800162e:	f003 0301 	and.w	r3, r3, #1
 8001632:	60fb      	str	r3, [r7, #12]
 8001634:	68fb      	ldr	r3, [r7, #12]
    /**SPI1 GPIO Configuration
    PA5     ------> SPI1_SCK
    PA6     ------> SPI1_MISO
    PA7     ------> SPI1_MOSI
    */
    GPIO_InitStruct.Pin = GPIO_PIN_5|GPIO_PIN_6|GPIO_PIN_7;
 8001636:	23e0      	movs	r3, #224	; 0xe0
 8001638:	617b      	str	r3, [r7, #20]
    GPIO_InitStruct.Mode = GPIO_MODE_AF_PP;
 800163a:	2302      	movs	r3, #2
 800163c:	61bb      	str	r3, [r7, #24]
    GPIO_InitStruct.Pull = GPIO_NOPULL;
 800163e:	2300      	movs	r3, #0
 8001640:	61fb      	str	r3, [r7, #28]
    GPIO_InitStruct.Speed = GPIO_SPEED_FREQ_VERY_HIGH;
 8001642:	2303      	movs	r3, #3
 8001644:	623b      	str	r3, [r7, #32]
    GPIO_InitStruct.Alternate = GPIO_AF5_SPI1;
 8001646:	2305      	movs	r3, #5
 8001648:	627b      	str	r3, [r7, #36]	; 0x24
    HAL_GPIO_Init(GPIOA, &GPIO_InitStruct);
 800164a:	f107 0314 	add.w	r3, r7, #20
 800164e:	4619      	mov	r1, r3
 8001650:	4805      	ldr	r0, [pc, #20]	; (8001668 <HAL_SPI_MspInit+0x8c>)
 8001652:	f000 fcb1 	bl	8001fb8 <HAL_GPIO_Init>
  /* USER CODE BEGIN SPI1_MspInit 1 */

  /* USER CODE END SPI1_MspInit 1 */
  }

}
 8001656:	bf00      	nop
 8001658:	3728      	adds	r7, #40	; 0x28
 800165a:	46bd      	mov	sp, r7
 800165c:	bd80      	pop	{r7, pc}
 800165e:	bf00      	nop
 8001660:	40013000 	.word	0x40013000
 8001664:	40023800 	.word	0x40023800
 8001668:	40020000 	.word	0x40020000

0800166c <HAL_TIM_Base_MspInit>:
* This function configures the hardware resources used in this example
* @param htim_base: TIM_Base handle pointer
* @retval None
*/
void HAL_TIM_Base_MspInit(TIM_HandleTypeDef* htim_base)
{
 800166c:	b580      	push	{r7, lr}
 800166e:	b084      	sub	sp, #16
 8001670:	af00      	add	r7, sp, #0
 8001672:	6078      	str	r0, [r7, #4]
  if(htim_base->Instance==TIM6)
 8001674:	687b      	ldr	r3, [r7, #4]
 8001676:	681b      	ldr	r3, [r3, #0]
 8001678:	4a0e      	ldr	r2, [pc, #56]	; (80016b4 <HAL_TIM_Base_MspInit+0x48>)
 800167a:	4293      	cmp	r3, r2
 800167c:	d115      	bne.n	80016aa <HAL_TIM_Base_MspInit+0x3e>
  {
  /* USER CODE BEGIN TIM6_MspInit 0 */

  /* USER CODE END TIM6_MspInit 0 */
    /* Peripheral clock enable */
    __HAL_RCC_TIM6_CLK_ENABLE();
 800167e:	2300      	movs	r3, #0
 8001680:	60fb      	str	r3, [r7, #12]
 8001682:	4b0d      	ldr	r3, [pc, #52]	; (80016b8 <HAL_TIM_Base_MspInit+0x4c>)
 8001684:	6c1b      	ldr	r3, [r3, #64]	; 0x40
 8001686:	4a0c      	ldr	r2, [pc, #48]	; (80016b8 <HAL_TIM_Base_MspInit+0x4c>)
 8001688:	f043 0310 	orr.w	r3, r3, #16
 800168c:	6413      	str	r3, [r2, #64]	; 0x40
 800168e:	4b0a      	ldr	r3, [pc, #40]	; (80016b8 <HAL_TIM_Base_MspInit+0x4c>)
 8001690:	6c1b      	ldr	r3, [r3, #64]	; 0x40
 8001692:	f003 0310 	and.w	r3, r3, #16
 8001696:	60fb      	str	r3, [r7, #12]
 8001698:	68fb      	ldr	r3, [r7, #12]
    /* TIM6 interrupt Init */
    HAL_NVIC_SetPriority(TIM6_DAC_IRQn, 0, 0);
 800169a:	2200      	movs	r2, #0
 800169c:	2100      	movs	r1, #0
 800169e:	2036      	movs	r0, #54	; 0x36
 80016a0:	f000 fbc1 	bl	8001e26 <HAL_NVIC_SetPriority>
    HAL_NVIC_EnableIRQ(TIM6_DAC_IRQn);
 80016a4:	2036      	movs	r0, #54	; 0x36
 80016a6:	f000 fbda 	bl	8001e5e <HAL_NVIC_EnableIRQ>
  /* USER CODE BEGIN TIM6_MspInit 1 */

  /* USER CODE END TIM6_MspInit 1 */
  }

}
 80016aa:	bf00      	nop
 80016ac:	3710      	adds	r7, #16
 80016ae:	46bd      	mov	sp, r7
 80016b0:	bd80      	pop	{r7, pc}
 80016b2:	bf00      	nop
 80016b4:	40001000 	.word	0x40001000
 80016b8:	40023800 	.word	0x40023800

080016bc <HAL_UART_MspInit>:
* This function configures the hardware resources used in this example
* @param huart: UART handle pointer
* @retval None
*/
void HAL_UART_MspInit(UART_HandleTypeDef* huart)
{
 80016bc:	b580      	push	{r7, lr}
 80016be:	b08a      	sub	sp, #40	; 0x28
 80016c0:	af00      	add	r7, sp, #0
 80016c2:	6078      	str	r0, [r7, #4]
  GPIO_InitTypeDef GPIO_InitStruct = {0};
 80016c4:	f107 0314 	add.w	r3, r7, #20
 80016c8:	2200      	movs	r2, #0
 80016ca:	601a      	str	r2, [r3, #0]
 80016cc:	605a      	str	r2, [r3, #4]
 80016ce:	609a      	str	r2, [r3, #8]
 80016d0:	60da      	str	r2, [r3, #12]
 80016d2:	611a      	str	r2, [r3, #16]
  if(huart->Instance==USART2)
 80016d4:	687b      	ldr	r3, [r7, #4]
 80016d6:	681b      	ldr	r3, [r3, #0]
 80016d8:	4a1d      	ldr	r2, [pc, #116]	; (8001750 <HAL_UART_MspInit+0x94>)
 80016da:	4293      	cmp	r3, r2
 80016dc:	d133      	bne.n	8001746 <HAL_UART_MspInit+0x8a>
  {
  /* USER CODE BEGIN USART2_MspInit 0 */

  /* USER CODE END USART2_MspInit 0 */
    /* Peripheral clock enable */
    __HAL_RCC_USART2_CLK_ENABLE();
 80016de:	2300      	movs	r3, #0
 80016e0:	613b      	str	r3, [r7, #16]
 80016e2:	4b1c      	ldr	r3, [pc, #112]	; (8001754 <HAL_UART_MspInit+0x98>)
 80016e4:	6c1b      	ldr	r3, [r3, #64]	; 0x40
 80016e6:	4a1b      	ldr	r2, [pc, #108]	; (8001754 <HAL_UART_MspInit+0x98>)
 80016e8:	f443 3300 	orr.w	r3, r3, #131072	; 0x20000
 80016ec:	6413      	str	r3, [r2, #64]	; 0x40
 80016ee:	4b19      	ldr	r3, [pc, #100]	; (8001754 <HAL_UART_MspInit+0x98>)
 80016f0:	6c1b      	ldr	r3, [r3, #64]	; 0x40
 80016f2:	f403 3300 	and.w	r3, r3, #131072	; 0x20000
 80016f6:	613b      	str	r3, [r7, #16]
 80016f8:	693b      	ldr	r3, [r7, #16]

    __HAL_RCC_GPIOD_CLK_ENABLE();
 80016fa:	2300      	movs	r3, #0
 80016fc:	60fb      	str	r3, [r7, #12]
 80016fe:	4b15      	ldr	r3, [pc, #84]	; (8001754 <HAL_UART_MspInit+0x98>)
 8001700:	6b1b      	ldr	r3, [r3, #48]	; 0x30
 8001702:	4a14      	ldr	r2, [pc, #80]	; (8001754 <HAL_UART_MspInit+0x98>)
 8001704:	f043 0308 	orr.w	r3, r3, #8
 8001708:	6313      	str	r3, [r2, #48]	; 0x30
 800170a:	4b12      	ldr	r3, [pc, #72]	; (8001754 <HAL_UART_MspInit+0x98>)
 800170c:	6b1b      	ldr	r3, [r3, #48]	; 0x30
 800170e:	f003 0308 	and.w	r3, r3, #8
 8001712:	60fb      	str	r3, [r7, #12]
 8001714:	68fb      	ldr	r3, [r7, #12]
    /**USART2 GPIO Configuration
    PD5     ------> USART2_TX
    PD6     ------> USART2_RX
    */
    GPIO_InitStruct.Pin = GPIO_PIN_5|GPIO_PIN_6;
 8001716:	2360      	movs	r3, #96	; 0x60
 8001718:	617b      	str	r3, [r7, #20]
    GPIO_InitStruct.Mode = GPIO_MODE_AF_PP;
 800171a:	2302      	movs	r3, #2
 800171c:	61bb      	str	r3, [r7, #24]
    GPIO_InitStruct.Pull = GPIO_NOPULL;
 800171e:	2300      	movs	r3, #0
 8001720:	61fb      	str	r3, [r7, #28]
    GPIO_InitStruct.Speed = GPIO_SPEED_FREQ_VERY_HIGH;
 8001722:	2303      	movs	r3, #3
 8001724:	623b      	str	r3, [r7, #32]
    GPIO_InitStruct.Alternate = GPIO_AF7_USART2;
 8001726:	2307      	movs	r3, #7
 8001728:	627b      	str	r3, [r7, #36]	; 0x24
    HAL_GPIO_Init(GPIOD, &GPIO_InitStruct);
 800172a:	f107 0314 	add.w	r3, r7, #20
 800172e:	4619      	mov	r1, r3
 8001730:	4809      	ldr	r0, [pc, #36]	; (8001758 <HAL_UART_MspInit+0x9c>)
 8001732:	f000 fc41 	bl	8001fb8 <HAL_GPIO_Init>

    /* USART2 interrupt Init */
    HAL_NVIC_SetPriority(USART2_IRQn, 0, 0);
 8001736:	2200      	movs	r2, #0
 8001738:	2100      	movs	r1, #0
 800173a:	2026      	movs	r0, #38	; 0x26
 800173c:	f000 fb73 	bl	8001e26 <HAL_NVIC_SetPriority>
    HAL_NVIC_EnableIRQ(USART2_IRQn);
 8001740:	2026      	movs	r0, #38	; 0x26
 8001742:	f000 fb8c 	bl	8001e5e <HAL_NVIC_EnableIRQ>
  /* USER CODE BEGIN USART2_MspInit 1 */

  /* USER CODE END USART2_MspInit 1 */
  }

}
 8001746:	bf00      	nop
 8001748:	3728      	adds	r7, #40	; 0x28
 800174a:	46bd      	mov	sp, r7
 800174c:	bd80      	pop	{r7, pc}
 800174e:	bf00      	nop
 8001750:	40004400 	.word	0x40004400
 8001754:	40023800 	.word	0x40023800
 8001758:	40020c00 	.word	0x40020c00

0800175c <NMI_Handler>:
/******************************************************************************/
/**
  * @brief This function handles Non maskable interrupt.
  */
void NMI_Handler(void)
{
 800175c:	b480      	push	{r7}
 800175e:	af00      	add	r7, sp, #0
  /* USER CODE BEGIN NonMaskableInt_IRQn 0 */

  /* USER CODE END NonMaskableInt_IRQn 0 */
  /* USER CODE BEGIN NonMaskableInt_IRQn 1 */
  while (1)
 8001760:	e7fe      	b.n	8001760 <NMI_Handler+0x4>

08001762 <HardFault_Handler>:

/**
  * @brief This function handles Hard fault interrupt.
  */
void HardFault_Handler(void)
{
 8001762:	b480      	push	{r7}
 8001764:	af00      	add	r7, sp, #0
  /* USER CODE BEGIN HardFault_IRQn 0 */

  /* USER CODE END HardFault_IRQn 0 */
  while (1)
 8001766:	e7fe      	b.n	8001766 <HardFault_Handler+0x4>

08001768 <MemManage_Handler>:

/**
  * @brief This function handles Memory management fault.
  */
void MemManage_Handler(void)
{
 8001768:	b480      	push	{r7}
 800176a:	af00      	add	r7, sp, #0
  /* USER CODE BEGIN MemoryManagement_IRQn 0 */

  /* USER CODE END MemoryManagement_IRQn 0 */
  while (1)
 800176c:	e7fe      	b.n	800176c <MemManage_Handler+0x4>

0800176e <BusFault_Handler>:

/**
  * @brief This function handles Pre-fetch fault, memory access fault.
  */
void BusFault_Handler(void)
{
 800176e:	b480      	push	{r7}
 8001770:	af00      	add	r7, sp, #0
  /* USER CODE BEGIN BusFault_IRQn 0 */

  /* USER CODE END BusFault_IRQn 0 */
  while (1)
 8001772:	e7fe      	b.n	8001772 <BusFault_Handler+0x4>

08001774 <UsageFault_Handler>:

/**
  * @brief This function handles Undefined instruction or illegal state.
  */
void UsageFault_Handler(void)
{
 8001774:	b480      	push	{r7}
 8001776:	af00      	add	r7, sp, #0
  /* USER CODE BEGIN UsageFault_IRQn 0 */

  /* USER CODE END UsageFault_IRQn 0 */
  while (1)
 8001778:	e7fe      	b.n	8001778 <UsageFault_Handler+0x4>

0800177a <SVC_Handler>:

/**
  * @brief This function handles System service call via SWI instruction.
  */
void SVC_Handler(void)
{
 800177a:	b480      	push	{r7}
 800177c:	af00      	add	r7, sp, #0

  /* USER CODE END SVCall_IRQn 0 */
  /* USER CODE BEGIN SVCall_IRQn 1 */

  /* USER CODE END SVCall_IRQn 1 */
}
 800177e:	bf00      	nop
 8001780:	46bd      	mov	sp, r7
 8001782:	f85d 7b04 	ldr.w	r7, [sp], #4
 8001786:	4770      	bx	lr

08001788 <DebugMon_Handler>:

/**
  * @brief This function handles Debug monitor.
  */
void DebugMon_Handler(void)
{
 8001788:	b480      	push	{r7}
 800178a:	af00      	add	r7, sp, #0

  /* USER CODE END DebugMonitor_IRQn 0 */
  /* USER CODE BEGIN DebugMonitor_IRQn 1 */

  /* USER CODE END DebugMonitor_IRQn 1 */
}
 800178c:	bf00      	nop
 800178e:	46bd      	mov	sp, r7
 8001790:	f85d 7b04 	ldr.w	r7, [sp], #4
 8001794:	4770      	bx	lr

08001796 <PendSV_Handler>:

/**
  * @brief This function handles Pendable request for system service.
  */
void PendSV_Handler(void)
{
 8001796:	b480      	push	{r7}
 8001798:	af00      	add	r7, sp, #0

  /* USER CODE END PendSV_IRQn 0 */
  /* USER CODE BEGIN PendSV_IRQn 1 */

  /* USER CODE END PendSV_IRQn 1 */
}
 800179a:	bf00      	nop
 800179c:	46bd      	mov	sp, r7
 800179e:	f85d 7b04 	ldr.w	r7, [sp], #4
 80017a2:	4770      	bx	lr

080017a4 <SysTick_Handler>:

/**
  * @brief This function handles System tick timer.
  */
void SysTick_Handler(void)
{
 80017a4:	b580      	push	{r7, lr}
 80017a6:	af00      	add	r7, sp, #0
  /* USER CODE BEGIN SysTick_IRQn 0 */

  /* USER CODE END SysTick_IRQn 0 */
  HAL_IncTick();
 80017a8:	f000 fa42 	bl	8001c30 <HAL_IncTick>
  /* USER CODE BEGIN SysTick_IRQn 1 */

  /* USER CODE END SysTick_IRQn 1 */
}
 80017ac:	bf00      	nop
 80017ae:	bd80      	pop	{r7, pc}

080017b0 <USART2_IRQHandler>:

/**
  * @brief This function handles USART2 global interrupt.
  */
void USART2_IRQHandler(void)
{
 80017b0:	b580      	push	{r7, lr}
 80017b2:	af00      	add	r7, sp, #0
  /* USER CODE BEGIN USART2_IRQn 0 */

  /* USER CODE END USART2_IRQn 0 */
  HAL_UART_IRQHandler(&huart2);
 80017b4:	4802      	ldr	r0, [pc, #8]	; (80017c0 <USART2_IRQHandler+0x10>)
 80017b6:	f004 fa67 	bl	8005c88 <HAL_UART_IRQHandler>
  /* USER CODE BEGIN USART2_IRQn 1 */

  /* USER CODE END USART2_IRQn 1 */
}
 80017ba:	bf00      	nop
 80017bc:	bd80      	pop	{r7, pc}
 80017be:	bf00      	nop
 80017c0:	200001a8 	.word	0x200001a8

080017c4 <TIM6_DAC_IRQHandler>:

/**
  * @brief This function handles TIM6 global interrupt, DAC1 and DAC2 underrun error interrupts.
  */
void TIM6_DAC_IRQHandler(void)
{
 80017c4:	b580      	push	{r7, lr}
 80017c6:	b086      	sub	sp, #24
 80017c8:	af00      	add	r7, sp, #0
  /* USER CODE BEGIN TIM6_DAC_IRQn 0 */

  /* USER CODE END TIM6_DAC_IRQn 0 */
  HAL_TIM_IRQHandler(&htim6);
 80017ca:	482b      	ldr	r0, [pc, #172]	; (8001878 <TIM6_DAC_IRQHandler+0xb4>)
 80017cc:	f003 fe4b 	bl	8005466 <HAL_TIM_IRQHandler>
  /* USER CODE BEGIN TIM6_DAC_IRQn 1 */
  HAL_GPIO_TogglePin(GPIOB, GPIO_PIN_7);
 80017d0:	2180      	movs	r1, #128	; 0x80
 80017d2:	482a      	ldr	r0, [pc, #168]	; (800187c <TIM6_DAC_IRQHandler+0xb8>)
 80017d4:	f000 fdcd 	bl	8002372 <HAL_GPIO_TogglePin>

  uint8_t accel_data[6];
  readAccelerometer(accel_data, &hi2c1);
 80017d8:	1d3b      	adds	r3, r7, #4
 80017da:	4929      	ldr	r1, [pc, #164]	; (8001880 <TIM6_DAC_IRQHandler+0xbc>)
 80017dc:	4618      	mov	r0, r3
 80017de:	f7fe fea9 	bl	8000534 <readAccelerometer>

  uint32_t time = getTimestampMilliseconds(&hrtc);
 80017e2:	4828      	ldr	r0, [pc, #160]	; (8001884 <TIM6_DAC_IRQHandler+0xc0>)
 80017e4:	f7ff fd08 	bl	80011f8 <getTimestampMilliseconds>
 80017e8:	60f8      	str	r0, [r7, #12]

  // Store the time in the buffer
  if (byte_tracker < (PAGE_SIZE - READ_SIZE)) {
 80017ea:	4b27      	ldr	r3, [pc, #156]	; (8001888 <TIM6_DAC_IRQHandler+0xc4>)
 80017ec:	881b      	ldrh	r3, [r3, #0]
 80017ee:	2bf5      	cmp	r3, #245	; 0xf5
 80017f0:	d83d      	bhi.n	800186e <TIM6_DAC_IRQHandler+0xaa>
    data_buffer[byte_tracker + 0] = (uint8_t) ((time >> 24) & 0xFF); // Most significant byte (MSB)
 80017f2:	68fb      	ldr	r3, [r7, #12]
 80017f4:	0e19      	lsrs	r1, r3, #24
 80017f6:	4b24      	ldr	r3, [pc, #144]	; (8001888 <TIM6_DAC_IRQHandler+0xc4>)
 80017f8:	881b      	ldrh	r3, [r3, #0]
 80017fa:	461a      	mov	r2, r3
 80017fc:	b2c9      	uxtb	r1, r1
 80017fe:	4b23      	ldr	r3, [pc, #140]	; (800188c <TIM6_DAC_IRQHandler+0xc8>)
 8001800:	5499      	strb	r1, [r3, r2]
    data_buffer[byte_tracker + 1] = (uint8_t) ((time >> 16) & 0xFF);
 8001802:	68fb      	ldr	r3, [r7, #12]
 8001804:	0c1a      	lsrs	r2, r3, #16
 8001806:	4b20      	ldr	r3, [pc, #128]	; (8001888 <TIM6_DAC_IRQHandler+0xc4>)
 8001808:	881b      	ldrh	r3, [r3, #0]
 800180a:	3301      	adds	r3, #1
 800180c:	b2d1      	uxtb	r1, r2
 800180e:	4a1f      	ldr	r2, [pc, #124]	; (800188c <TIM6_DAC_IRQHandler+0xc8>)
 8001810:	54d1      	strb	r1, [r2, r3]
    data_buffer[byte_tracker + 2] = (uint8_t) ((time >> 8) & 0xFF);
 8001812:	68fb      	ldr	r3, [r7, #12]
 8001814:	0a1a      	lsrs	r2, r3, #8
 8001816:	4b1c      	ldr	r3, [pc, #112]	; (8001888 <TIM6_DAC_IRQHandler+0xc4>)
 8001818:	881b      	ldrh	r3, [r3, #0]
 800181a:	3302      	adds	r3, #2
 800181c:	b2d1      	uxtb	r1, r2
 800181e:	4a1b      	ldr	r2, [pc, #108]	; (800188c <TIM6_DAC_IRQHandler+0xc8>)
 8001820:	54d1      	strb	r1, [r2, r3]
    data_buffer[byte_tracker + 3] = (uint8_t) (time & 0xFF); // Least significant byte (LSB)
 8001822:	4b19      	ldr	r3, [pc, #100]	; (8001888 <TIM6_DAC_IRQHandler+0xc4>)
 8001824:	881b      	ldrh	r3, [r3, #0]
 8001826:	3303      	adds	r3, #3
 8001828:	68fa      	ldr	r2, [r7, #12]
 800182a:	b2d1      	uxtb	r1, r2
 800182c:	4a17      	ldr	r2, [pc, #92]	; (800188c <TIM6_DAC_IRQHandler+0xc8>)
 800182e:	54d1      	strb	r1, [r2, r3]

    uint8_t array_ptr = 4;
 8001830:	2304      	movs	r3, #4
 8001832:	75fb      	strb	r3, [r7, #23]
    for (int i = 0; i < 6; i++) {
 8001834:	2300      	movs	r3, #0
 8001836:	613b      	str	r3, [r7, #16]
 8001838:	e010      	b.n	800185c <TIM6_DAC_IRQHandler+0x98>
      data_buffer[byte_tracker + array_ptr] = accel_data[i];
 800183a:	4b13      	ldr	r3, [pc, #76]	; (8001888 <TIM6_DAC_IRQHandler+0xc4>)
 800183c:	881b      	ldrh	r3, [r3, #0]
 800183e:	461a      	mov	r2, r3
 8001840:	7dfb      	ldrb	r3, [r7, #23]
 8001842:	4413      	add	r3, r2
 8001844:	1d39      	adds	r1, r7, #4
 8001846:	693a      	ldr	r2, [r7, #16]
 8001848:	440a      	add	r2, r1
 800184a:	7811      	ldrb	r1, [r2, #0]
 800184c:	4a0f      	ldr	r2, [pc, #60]	; (800188c <TIM6_DAC_IRQHandler+0xc8>)
 800184e:	54d1      	strb	r1, [r2, r3]
      array_ptr += 1;
 8001850:	7dfb      	ldrb	r3, [r7, #23]
 8001852:	3301      	adds	r3, #1
 8001854:	75fb      	strb	r3, [r7, #23]
    for (int i = 0; i < 6; i++) {
 8001856:	693b      	ldr	r3, [r7, #16]
 8001858:	3301      	adds	r3, #1
 800185a:	613b      	str	r3, [r7, #16]
 800185c:	693b      	ldr	r3, [r7, #16]
 800185e:	2b05      	cmp	r3, #5
 8001860:	ddeb      	ble.n	800183a <TIM6_DAC_IRQHandler+0x76>
    }
    byte_tracker = byte_tracker + 10;
 8001862:	4b09      	ldr	r3, [pc, #36]	; (8001888 <TIM6_DAC_IRQHandler+0xc4>)
 8001864:	881b      	ldrh	r3, [r3, #0]
 8001866:	330a      	adds	r3, #10
 8001868:	b29a      	uxth	r2, r3
 800186a:	4b07      	ldr	r3, [pc, #28]	; (8001888 <TIM6_DAC_IRQHandler+0xc4>)
 800186c:	801a      	strh	r2, [r3, #0]
  }
  /* USER CODE END TIM6_DAC_IRQn 1 */
}
 800186e:	bf00      	nop
 8001870:	3718      	adds	r7, #24
 8001872:	46bd      	mov	sp, r7
 8001874:	bd80      	pop	{r7, pc}
 8001876:	bf00      	nop
 8001878:	20000160 	.word	0x20000160
 800187c:	40020400 	.word	0x40020400
 8001880:	20000040 	.word	0x20000040
 8001884:	200000e8 	.word	0x200000e8
 8001888:	200002f8 	.word	0x200002f8
 800188c:	200001f4 	.word	0x200001f4

08001890 <HAL_UART_RxCpltCallback>:

/* USER CODE BEGIN 1 */
void HAL_UART_RxCpltCallback(UART_HandleTypeDef *huart) {
 8001890:	b580      	push	{r7, lr}
 8001892:	b0ca      	sub	sp, #296	; 0x128
 8001894:	af00      	add	r7, sp, #0
 8001896:	f507 7394 	add.w	r3, r7, #296	; 0x128
 800189a:	f5a3 7392 	sub.w	r3, r3, #292	; 0x124
 800189e:	6018      	str	r0, [r3, #0]
	// Read the received data
	uint8_t received_data = huart2.Instance->DR;
 80018a0:	4b74      	ldr	r3, [pc, #464]	; (8001a74 <HAL_UART_RxCpltCallback+0x1e4>)
 80018a2:	681b      	ldr	r3, [r3, #0]
 80018a4:	685b      	ldr	r3, [r3, #4]
 80018a6:	f887 3117 	strb.w	r3, [r7, #279]	; 0x117

	// Check if the received data matches the expected value (0x68 = 'h')
	if (received_data == 0x68) {
 80018aa:	f897 3117 	ldrb.w	r3, [r7, #279]	; 0x117
 80018ae:	2b68      	cmp	r3, #104	; 0x68
 80018b0:	d112      	bne.n	80018d8 <HAL_UART_RxCpltCallback+0x48>
		HAL_GPIO_WritePin(GPIOB, GPIO_PIN_7,GPIO_PIN_SET);		// Activate the "write out" LED
 80018b2:	2201      	movs	r2, #1
 80018b4:	2180      	movs	r1, #128	; 0x80
 80018b6:	4870      	ldr	r0, [pc, #448]	; (8001a78 <HAL_UART_RxCpltCallback+0x1e8>)
 80018b8:	f000 fd42 	bl	8002340 <HAL_GPIO_WritePin>
		send_uart_string(huart, "**Heartbeat**\r\n");			// Transmit the data
 80018bc:	f507 7394 	add.w	r3, r7, #296	; 0x128
 80018c0:	f5a3 7392 	sub.w	r3, r3, #292	; 0x124
 80018c4:	496d      	ldr	r1, [pc, #436]	; (8001a7c <HAL_UART_RxCpltCallback+0x1ec>)
 80018c6:	6818      	ldr	r0, [r3, #0]
 80018c8:	f000 f90d 	bl	8001ae6 <send_uart_string>
		HAL_GPIO_WritePin(GPIOB, GPIO_PIN_7,GPIO_PIN_RESET);	// Deactivate the "write out" LED
 80018cc:	2200      	movs	r2, #0
 80018ce:	2180      	movs	r1, #128	; 0x80
 80018d0:	4869      	ldr	r0, [pc, #420]	; (8001a78 <HAL_UART_RxCpltCallback+0x1e8>)
 80018d2:	f000 fd35 	bl	8002340 <HAL_GPIO_WritePin>
 80018d6:	e0c3      	b.n	8001a60 <HAL_UART_RxCpltCallback+0x1d0>
	}

	// Check if the received data matches the expected value (0x65 = 'e')
	else if (received_data == 0x65) {
 80018d8:	f897 3117 	ldrb.w	r3, [r7, #279]	; 0x117
 80018dc:	2b65      	cmp	r3, #101	; 0x65
 80018de:	d12f      	bne.n	8001940 <HAL_UART_RxCpltCallback+0xb0>
		HAL_GPIO_WritePin(GPIOB, GPIO_PIN_7,GPIO_PIN_SET);		// Activate the "write out" LED
 80018e0:	2201      	movs	r2, #1
 80018e2:	2180      	movs	r1, #128	; 0x80
 80018e4:	4864      	ldr	r0, [pc, #400]	; (8001a78 <HAL_UART_RxCpltCallback+0x1e8>)
 80018e6:	f000 fd2b 	bl	8002340 <HAL_GPIO_WritePin>
		if (erase_chip_spi(&hspi1, 0) == HAL_OK) {
 80018ea:	2100      	movs	r1, #0
 80018ec:	4864      	ldr	r0, [pc, #400]	; (8001a80 <HAL_UART_RxCpltCallback+0x1f0>)
 80018ee:	f7fe ff39 	bl	8000764 <erase_chip_spi>
 80018f2:	4603      	mov	r3, r0
 80018f4:	2b00      	cmp	r3, #0
 80018f6:	d115      	bne.n	8001924 <HAL_UART_RxCpltCallback+0x94>
			send_uart_string(huart, "Successful Chip Erase\r\n");
 80018f8:	f507 7394 	add.w	r3, r7, #296	; 0x128
 80018fc:	f5a3 7392 	sub.w	r3, r3, #292	; 0x124
 8001900:	4960      	ldr	r1, [pc, #384]	; (8001a84 <HAL_UART_RxCpltCallback+0x1f4>)
 8001902:	6818      	ldr	r0, [r3, #0]
 8001904:	f000 f8ef 	bl	8001ae6 <send_uart_string>
			next_blank_page = find_next_blank_page(&hspi1, huart, &end_of_flash, 0);
 8001908:	f507 7394 	add.w	r3, r7, #296	; 0x128
 800190c:	f5a3 7192 	sub.w	r1, r3, #292	; 0x124
 8001910:	2300      	movs	r3, #0
 8001912:	4a5d      	ldr	r2, [pc, #372]	; (8001a88 <HAL_UART_RxCpltCallback+0x1f8>)
 8001914:	6809      	ldr	r1, [r1, #0]
 8001916:	485a      	ldr	r0, [pc, #360]	; (8001a80 <HAL_UART_RxCpltCallback+0x1f0>)
 8001918:	f7fe ffda 	bl	80008d0 <find_next_blank_page>
 800191c:	4603      	mov	r3, r0
 800191e:	4a5b      	ldr	r2, [pc, #364]	; (8001a8c <HAL_UART_RxCpltCallback+0x1fc>)
 8001920:	6013      	str	r3, [r2, #0]
 8001922:	e007      	b.n	8001934 <HAL_UART_RxCpltCallback+0xa4>
		} else {
			send_uart_string(huart, "Error during chip erase. Please check the connection and try again.\r\n");
 8001924:	f507 7394 	add.w	r3, r7, #296	; 0x128
 8001928:	f5a3 7392 	sub.w	r3, r3, #292	; 0x124
 800192c:	4958      	ldr	r1, [pc, #352]	; (8001a90 <HAL_UART_RxCpltCallback+0x200>)
 800192e:	6818      	ldr	r0, [r3, #0]
 8001930:	f000 f8d9 	bl	8001ae6 <send_uart_string>
		}
		HAL_GPIO_WritePin(GPIOB, GPIO_PIN_7,GPIO_PIN_RESET);	// Deactivate the "write out" LED
 8001934:	2200      	movs	r2, #0
 8001936:	2180      	movs	r1, #128	; 0x80
 8001938:	484f      	ldr	r0, [pc, #316]	; (8001a78 <HAL_UART_RxCpltCallback+0x1e8>)
 800193a:	f000 fd01 	bl	8002340 <HAL_GPIO_WritePin>
 800193e:	e08f      	b.n	8001a60 <HAL_UART_RxCpltCallback+0x1d0>
	}

	// Check if the received data matches the expected value (0x72 = 'r')
	else if (received_data == 0x72) {
 8001940:	f897 3117 	ldrb.w	r3, [r7, #279]	; 0x117
 8001944:	2b72      	cmp	r3, #114	; 0x72
 8001946:	d145      	bne.n	80019d4 <HAL_UART_RxCpltCallback+0x144>
		uint32_t num_of_pages = next_blank_page;
 8001948:	4b50      	ldr	r3, [pc, #320]	; (8001a8c <HAL_UART_RxCpltCallback+0x1fc>)
 800194a:	681b      	ldr	r3, [r3, #0]
 800194c:	f8c7 3124 	str.w	r3, [r7, #292]	; 0x124
		if(num_of_pages == 0) {
 8001950:	f8d7 3124 	ldr.w	r3, [r7, #292]	; 0x124
 8001954:	2b00      	cmp	r3, #0
 8001956:	d103      	bne.n	8001960 <HAL_UART_RxCpltCallback+0xd0>
			num_of_pages = PAGE_SIZE;
 8001958:	f44f 7380 	mov.w	r3, #256	; 0x100
 800195c:	f8c7 3124 	str.w	r3, [r7, #292]	; 0x124
		}
		num_of_pages = num_of_pages/PAGE_SIZE;
 8001960:	f8d7 3124 	ldr.w	r3, [r7, #292]	; 0x124
 8001964:	0a1b      	lsrs	r3, r3, #8
 8001966:	f8c7 3124 	str.w	r3, [r7, #292]	; 0x124
		uint32_t address = 0;
 800196a:	2300      	movs	r3, #0
 800196c:	f8c7 3120 	str.w	r3, [r7, #288]	; 0x120
		HAL_GPIO_WritePin(GPIOB, GPIO_PIN_7,GPIO_PIN_SET);		// Activate the "write out" LED
 8001970:	2201      	movs	r2, #1
 8001972:	2180      	movs	r1, #128	; 0x80
 8001974:	4840      	ldr	r0, [pc, #256]	; (8001a78 <HAL_UART_RxCpltCallback+0x1e8>)
 8001976:	f000 fce3 	bl	8002340 <HAL_GPIO_WritePin>

		for (int i = 0; i < (num_of_pages); i++) {
 800197a:	2300      	movs	r3, #0
 800197c:	f8c7 311c 	str.w	r3, [r7, #284]	; 0x11c
 8001980:	e01c      	b.n	80019bc <HAL_UART_RxCpltCallback+0x12c>
			uint8_t page[PAGE_SIZE];
			read_page_spi(page, &hspi1, address, 0);//
 8001982:	f107 000c 	add.w	r0, r7, #12
 8001986:	2300      	movs	r3, #0
 8001988:	f8d7 2120 	ldr.w	r2, [r7, #288]	; 0x120
 800198c:	493c      	ldr	r1, [pc, #240]	; (8001a80 <HAL_UART_RxCpltCallback+0x1f0>)
 800198e:	f7ff f84d 	bl	8000a2c <read_page_spi>
			uart_transmit_page(huart, page);						// Transmit the data//
 8001992:	f107 020c 	add.w	r2, r7, #12
 8001996:	f507 7394 	add.w	r3, r7, #296	; 0x128
 800199a:	f5a3 7392 	sub.w	r3, r3, #292	; 0x124
 800199e:	4611      	mov	r1, r2
 80019a0:	6818      	ldr	r0, [r3, #0]
 80019a2:	f000 f88f 	bl	8001ac4 <uart_transmit_page>
			address += PAGE_SIZE;
 80019a6:	f8d7 3120 	ldr.w	r3, [r7, #288]	; 0x120
 80019aa:	f503 7380 	add.w	r3, r3, #256	; 0x100
 80019ae:	f8c7 3120 	str.w	r3, [r7, #288]	; 0x120
		for (int i = 0; i < (num_of_pages); i++) {
 80019b2:	f8d7 311c 	ldr.w	r3, [r7, #284]	; 0x11c
 80019b6:	3301      	adds	r3, #1
 80019b8:	f8c7 311c 	str.w	r3, [r7, #284]	; 0x11c
 80019bc:	f8d7 311c 	ldr.w	r3, [r7, #284]	; 0x11c
 80019c0:	f8d7 2124 	ldr.w	r2, [r7, #292]	; 0x124
 80019c4:	429a      	cmp	r2, r3
 80019c6:	d8dc      	bhi.n	8001982 <HAL_UART_RxCpltCallback+0xf2>
		}

		HAL_GPIO_WritePin(GPIOB, GPIO_PIN_7,GPIO_PIN_RESET);	// Deactivate the "write out" LED
 80019c8:	2200      	movs	r2, #0
 80019ca:	2180      	movs	r1, #128	; 0x80
 80019cc:	482a      	ldr	r0, [pc, #168]	; (8001a78 <HAL_UART_RxCpltCallback+0x1e8>)
 80019ce:	f000 fcb7 	bl	8002340 <HAL_GPIO_WritePin>
 80019d2:	e045      	b.n	8001a60 <HAL_UART_RxCpltCallback+0x1d0>

		next_blank_page += PAGE_SIZE;
	}
************************************************************************************/
	// Read Accelerometer CTRL1 (data_rx = "c")
	else if (received_data == 0x63) {
 80019d4:	f897 3117 	ldrb.w	r3, [r7, #279]	; 0x117
 80019d8:	2b63      	cmp	r3, #99	; 0x63
 80019da:	d10e      	bne.n	80019fa <HAL_UART_RxCpltCallback+0x16a>
		uint8_t ctrl = readAccel_whoami(&hi2c1);
 80019dc:	482d      	ldr	r0, [pc, #180]	; (8001a94 <HAL_UART_RxCpltCallback+0x204>)
 80019de:	f7fe fe15 	bl	800060c <readAccel_whoami>
 80019e2:	4603      	mov	r3, r0
 80019e4:	f887 3115 	strb.w	r3, [r7, #277]	; 0x115
		HAL_UART_Transmit(&huart2, &ctrl, 1, HAL_MAX_DELAY);
 80019e8:	f207 1115 	addw	r1, r7, #277	; 0x115
 80019ec:	f04f 33ff 	mov.w	r3, #4294967295	; 0xffffffff
 80019f0:	2201      	movs	r2, #1
 80019f2:	4820      	ldr	r0, [pc, #128]	; (8001a74 <HAL_UART_RxCpltCallback+0x1e4>)
 80019f4:	f003 ffe6 	bl	80059c4 <HAL_UART_Transmit>
 80019f8:	e032      	b.n	8001a60 <HAL_UART_RxCpltCallback+0x1d0>
	}

	// Read the accelerometer and print to the UART (data_rx = "a")
	else if (received_data == 0x61) {
 80019fa:	f897 3117 	ldrb.w	r3, [r7, #279]	; 0x117
 80019fe:	2b61      	cmp	r3, #97	; 0x61
 8001a00:	d11d      	bne.n	8001a3e <HAL_UART_RxCpltCallback+0x1ae>
		uint8_t readings[6];
		readAccelerometer(readings, &hi2c1);
 8001a02:	f507 7386 	add.w	r3, r7, #268	; 0x10c
 8001a06:	4923      	ldr	r1, [pc, #140]	; (8001a94 <HAL_UART_RxCpltCallback+0x204>)
 8001a08:	4618      	mov	r0, r3
 8001a0a:	f7fe fd93 	bl	8000534 <readAccelerometer>
		for (int i = 0; i < 6; i++) {
 8001a0e:	2300      	movs	r3, #0
 8001a10:	f8c7 3118 	str.w	r3, [r7, #280]	; 0x118
 8001a14:	e00e      	b.n	8001a34 <HAL_UART_RxCpltCallback+0x1a4>
			send_uart_hex(&huart2, readings[i]);
 8001a16:	f507 7286 	add.w	r2, r7, #268	; 0x10c
 8001a1a:	f8d7 3118 	ldr.w	r3, [r7, #280]	; 0x118
 8001a1e:	4413      	add	r3, r2
 8001a20:	781b      	ldrb	r3, [r3, #0]
 8001a22:	4619      	mov	r1, r3
 8001a24:	4813      	ldr	r0, [pc, #76]	; (8001a74 <HAL_UART_RxCpltCallback+0x1e4>)
 8001a26:	f000 f872 	bl	8001b0e <send_uart_hex>
		for (int i = 0; i < 6; i++) {
 8001a2a:	f8d7 3118 	ldr.w	r3, [r7, #280]	; 0x118
 8001a2e:	3301      	adds	r3, #1
 8001a30:	f8c7 3118 	str.w	r3, [r7, #280]	; 0x118
 8001a34:	f8d7 3118 	ldr.w	r3, [r7, #280]	; 0x118
 8001a38:	2b05      	cmp	r3, #5
 8001a3a:	ddec      	ble.n	8001a16 <HAL_UART_RxCpltCallback+0x186>
 8001a3c:	e010      	b.n	8001a60 <HAL_UART_RxCpltCallback+0x1d0>
		}
	}

	// Read the temp sensor and print to the UART (data_rx = "t")
	else if (received_data == 0x74) {
 8001a3e:	f897 3117 	ldrb.w	r3, [r7, #279]	; 0x117
 8001a42:	2b74      	cmp	r3, #116	; 0x74
 8001a44:	d10c      	bne.n	8001a60 <HAL_UART_RxCpltCallback+0x1d0>
		uint8_t reading = readBME280_id_reg(&hi2c2, 0);
 8001a46:	2100      	movs	r1, #0
 8001a48:	4813      	ldr	r0, [pc, #76]	; (8001a98 <HAL_UART_RxCpltCallback+0x208>)
 8001a4a:	f7fe fe43 	bl	80006d4 <readBME280_id_reg>
 8001a4e:	4603      	mov	r3, r0
 8001a50:	f887 3116 	strb.w	r3, [r7, #278]	; 0x116
		send_uart_hex(&huart2, reading);
 8001a54:	f897 3116 	ldrb.w	r3, [r7, #278]	; 0x116
 8001a58:	4619      	mov	r1, r3
 8001a5a:	4806      	ldr	r0, [pc, #24]	; (8001a74 <HAL_UART_RxCpltCallback+0x1e4>)
 8001a5c:	f000 f857 	bl	8001b0e <send_uart_hex>
	}


	HAL_UART_Receive_IT(&huart2, UARTRxData, 1);
 8001a60:	2201      	movs	r2, #1
 8001a62:	490e      	ldr	r1, [pc, #56]	; (8001a9c <HAL_UART_RxCpltCallback+0x20c>)
 8001a64:	4803      	ldr	r0, [pc, #12]	; (8001a74 <HAL_UART_RxCpltCallback+0x1e4>)
 8001a66:	f004 f838 	bl	8005ada <HAL_UART_Receive_IT>
}
 8001a6a:	bf00      	nop
 8001a6c:	f507 7794 	add.w	r7, r7, #296	; 0x128
 8001a70:	46bd      	mov	sp, r7
 8001a72:	bd80      	pop	{r7, pc}
 8001a74:	200001a8 	.word	0x200001a8
 8001a78:	40020400 	.word	0x40020400
 8001a7c:	08006be8 	.word	0x08006be8
 8001a80:	20000108 	.word	0x20000108
 8001a84:	08006bf8 	.word	0x08006bf8
 8001a88:	200002fa 	.word	0x200002fa
 8001a8c:	200002f4 	.word	0x200002f4
 8001a90:	08006c10 	.word	0x08006c10
 8001a94:	20000040 	.word	0x20000040
 8001a98:	20000094 	.word	0x20000094
 8001a9c:	200001f0 	.word	0x200001f0

08001aa0 <SystemInit>:
  *         configuration.
  * @param  None
  * @retval None
  */
void SystemInit(void)
{
 8001aa0:	b480      	push	{r7}
 8001aa2:	af00      	add	r7, sp, #0
  /* FPU settings ------------------------------------------------------------*/
  #if (__FPU_PRESENT == 1) && (__FPU_USED == 1)
    SCB->CPACR |= ((3UL << 10*2)|(3UL << 11*2));  /* set CP10 and CP11 Full Access */
 8001aa4:	4b06      	ldr	r3, [pc, #24]	; (8001ac0 <SystemInit+0x20>)
 8001aa6:	f8d3 3088 	ldr.w	r3, [r3, #136]	; 0x88
 8001aaa:	4a05      	ldr	r2, [pc, #20]	; (8001ac0 <SystemInit+0x20>)
 8001aac:	f443 0370 	orr.w	r3, r3, #15728640	; 0xf00000
 8001ab0:	f8c2 3088 	str.w	r3, [r2, #136]	; 0x88

  /* Configure the Vector Table location -------------------------------------*/
#if defined(USER_VECT_TAB_ADDRESS)
  SCB->VTOR = VECT_TAB_BASE_ADDRESS | VECT_TAB_OFFSET; /* Vector Table Relocation in Internal SRAM */
#endif /* USER_VECT_TAB_ADDRESS */
}
 8001ab4:	bf00      	nop
 8001ab6:	46bd      	mov	sp, r7
 8001ab8:	f85d 7b04 	ldr.w	r7, [sp], #4
 8001abc:	4770      	bx	lr
 8001abe:	bf00      	nop
 8001ac0:	e000ed00 	.word	0xe000ed00

08001ac4 <uart_transmit_page>:

#include "uart_transmit.h"
/**
 * Transmit one single page over the UART interface
 */
void uart_transmit_page(UART_HandleTypeDef *huart, uint8_t page[PAGE_SIZE]) {
 8001ac4:	b580      	push	{r7, lr}
 8001ac6:	b082      	sub	sp, #8
 8001ac8:	af00      	add	r7, sp, #0
 8001aca:	6078      	str	r0, [r7, #4]
 8001acc:	6039      	str	r1, [r7, #0]
	HAL_UART_Transmit(huart, page, PAGE_SIZE, HAL_MAX_DELAY);
 8001ace:	f04f 33ff 	mov.w	r3, #4294967295	; 0xffffffff
 8001ad2:	f44f 7280 	mov.w	r2, #256	; 0x100
 8001ad6:	6839      	ldr	r1, [r7, #0]
 8001ad8:	6878      	ldr	r0, [r7, #4]
 8001ada:	f003 ff73 	bl	80059c4 <HAL_UART_Transmit>
}
 8001ade:	bf00      	nop
 8001ae0:	3708      	adds	r7, #8
 8001ae2:	46bd      	mov	sp, r7
 8001ae4:	bd80      	pop	{r7, pc}

08001ae6 <send_uart_string>:

void send_uart_string(UART_HandleTypeDef *huart, const char *str) {
 8001ae6:	b580      	push	{r7, lr}
 8001ae8:	b082      	sub	sp, #8
 8001aea:	af00      	add	r7, sp, #0
 8001aec:	6078      	str	r0, [r7, #4]
 8001aee:	6039      	str	r1, [r7, #0]
    HAL_UART_Transmit(huart, (uint8_t *)str, strlen(str), HAL_MAX_DELAY);
 8001af0:	6838      	ldr	r0, [r7, #0]
 8001af2:	f7fe fb7b 	bl	80001ec <strlen>
 8001af6:	4603      	mov	r3, r0
 8001af8:	b29a      	uxth	r2, r3
 8001afa:	f04f 33ff 	mov.w	r3, #4294967295	; 0xffffffff
 8001afe:	6839      	ldr	r1, [r7, #0]
 8001b00:	6878      	ldr	r0, [r7, #4]
 8001b02:	f003 ff5f 	bl	80059c4 <HAL_UART_Transmit>
}
 8001b06:	bf00      	nop
 8001b08:	3708      	adds	r7, #8
 8001b0a:	46bd      	mov	sp, r7
 8001b0c:	bd80      	pop	{r7, pc}

08001b0e <send_uart_hex>:
	// Call the send_uart_string function to send the value to UART
	send_uart_string(huart, value_str);
	send_uart_string(huart, "\r\n");
}

void send_uart_hex(UART_HandleTypeDef *huart, uint8_t value) {
 8001b0e:	b580      	push	{r7, lr}
 8001b10:	b084      	sub	sp, #16
 8001b12:	af00      	add	r7, sp, #0
 8001b14:	6078      	str	r0, [r7, #4]
 8001b16:	460b      	mov	r3, r1
 8001b18:	70fb      	strb	r3, [r7, #3]
	uint8_t buffer[1];
	buffer[0] = value;
 8001b1a:	78fb      	ldrb	r3, [r7, #3]
 8001b1c:	733b      	strb	r3, [r7, #12]
	HAL_UART_Transmit(huart, buffer, 1, HAL_MAX_DELAY);
 8001b1e:	f107 010c 	add.w	r1, r7, #12
 8001b22:	f04f 33ff 	mov.w	r3, #4294967295	; 0xffffffff
 8001b26:	2201      	movs	r2, #1
 8001b28:	6878      	ldr	r0, [r7, #4]
 8001b2a:	f003 ff4b 	bl	80059c4 <HAL_UART_Transmit>
}
 8001b2e:	bf00      	nop
 8001b30:	3710      	adds	r7, #16
 8001b32:	46bd      	mov	sp, r7
 8001b34:	bd80      	pop	{r7, pc}
	...

08001b38 <Reset_Handler>:

    .section  .text.Reset_Handler
  .weak  Reset_Handler
  .type  Reset_Handler, %function
Reset_Handler:  
  ldr   sp, =_estack     /* set stack pointer */
 8001b38:	f8df d034 	ldr.w	sp, [pc, #52]	; 8001b70 <LoopFillZerobss+0xe>
  
/* Call the clock system initialization function.*/
  bl  SystemInit  
 8001b3c:	f7ff ffb0 	bl	8001aa0 <SystemInit>

/* Copy the data segment initializers from flash to SRAM */  
  ldr r0, =_sdata
 8001b40:	480c      	ldr	r0, [pc, #48]	; (8001b74 <LoopFillZerobss+0x12>)
  ldr r1, =_edata
 8001b42:	490d      	ldr	r1, [pc, #52]	; (8001b78 <LoopFillZerobss+0x16>)
  ldr r2, =_sidata
 8001b44:	4a0d      	ldr	r2, [pc, #52]	; (8001b7c <LoopFillZerobss+0x1a>)
  movs r3, #0
 8001b46:	2300      	movs	r3, #0
  b LoopCopyDataInit
 8001b48:	e002      	b.n	8001b50 <LoopCopyDataInit>

08001b4a <CopyDataInit>:

CopyDataInit:
  ldr r4, [r2, r3]
 8001b4a:	58d4      	ldr	r4, [r2, r3]
  str r4, [r0, r3]
 8001b4c:	50c4      	str	r4, [r0, r3]
  adds r3, r3, #4
 8001b4e:	3304      	adds	r3, #4

08001b50 <LoopCopyDataInit>:

LoopCopyDataInit:
  adds r4, r0, r3
 8001b50:	18c4      	adds	r4, r0, r3
  cmp r4, r1
 8001b52:	428c      	cmp	r4, r1
  bcc CopyDataInit
 8001b54:	d3f9      	bcc.n	8001b4a <CopyDataInit>
  
/* Zero fill the bss segment. */
  ldr r2, =_sbss
 8001b56:	4a0a      	ldr	r2, [pc, #40]	; (8001b80 <LoopFillZerobss+0x1e>)
  ldr r4, =_ebss
 8001b58:	4c0a      	ldr	r4, [pc, #40]	; (8001b84 <LoopFillZerobss+0x22>)
  movs r3, #0
 8001b5a:	2300      	movs	r3, #0
  b LoopFillZerobss
 8001b5c:	e001      	b.n	8001b62 <LoopFillZerobss>

08001b5e <FillZerobss>:

FillZerobss:
  str  r3, [r2]
 8001b5e:	6013      	str	r3, [r2, #0]
  adds r2, r2, #4
 8001b60:	3204      	adds	r2, #4

08001b62 <LoopFillZerobss>:

LoopFillZerobss:
  cmp r2, r4
 8001b62:	42a2      	cmp	r2, r4
  bcc FillZerobss
 8001b64:	d3fb      	bcc.n	8001b5e <FillZerobss>

/* Call static constructors */
    bl __libc_init_array
 8001b66:	f005 f80f 	bl	8006b88 <__libc_init_array>
/* Call the application's entry point.*/
  bl  main
 8001b6a:	f7fe ffd7 	bl	8000b1c <main>
  bx  lr    
 8001b6e:	4770      	bx	lr
  ldr   sp, =_estack     /* set stack pointer */
 8001b70:	20030000 	.word	0x20030000
  ldr r0, =_sdata
 8001b74:	20000000 	.word	0x20000000
  ldr r1, =_edata
 8001b78:	20000024 	.word	0x20000024
  ldr r2, =_sidata
 8001b7c:	08006c80 	.word	0x08006c80
  ldr r2, =_sbss
 8001b80:	20000024 	.word	0x20000024
  ldr r4, =_ebss
 8001b84:	20000314 	.word	0x20000314

08001b88 <ADC_IRQHandler>:
 * @retval None       
*/
    .section  .text.Default_Handler,"ax",%progbits
Default_Handler:
Infinite_Loop:
  b  Infinite_Loop
 8001b88:	e7fe      	b.n	8001b88 <ADC_IRQHandler>
	...

08001b8c <HAL_Init>:
  *         need to ensure that the SysTick time base is always set to 1 millisecond
  *         to have correct HAL operation.
  * @retval HAL status
  */
HAL_StatusTypeDef HAL_Init(void)
{
 8001b8c:	b580      	push	{r7, lr}
 8001b8e:	af00      	add	r7, sp, #0
  /* Configure Flash prefetch, Instruction cache, Data cache */ 
#if (INSTRUCTION_CACHE_ENABLE != 0U)
  __HAL_FLASH_INSTRUCTION_CACHE_ENABLE();
 8001b90:	4b0e      	ldr	r3, [pc, #56]	; (8001bcc <HAL_Init+0x40>)
 8001b92:	681b      	ldr	r3, [r3, #0]
 8001b94:	4a0d      	ldr	r2, [pc, #52]	; (8001bcc <HAL_Init+0x40>)
 8001b96:	f443 7300 	orr.w	r3, r3, #512	; 0x200
 8001b9a:	6013      	str	r3, [r2, #0]
#endif /* INSTRUCTION_CACHE_ENABLE */

#if (DATA_CACHE_ENABLE != 0U)
  __HAL_FLASH_DATA_CACHE_ENABLE();
 8001b9c:	4b0b      	ldr	r3, [pc, #44]	; (8001bcc <HAL_Init+0x40>)
 8001b9e:	681b      	ldr	r3, [r3, #0]
 8001ba0:	4a0a      	ldr	r2, [pc, #40]	; (8001bcc <HAL_Init+0x40>)
 8001ba2:	f443 6380 	orr.w	r3, r3, #1024	; 0x400
 8001ba6:	6013      	str	r3, [r2, #0]
#endif /* DATA_CACHE_ENABLE */

#if (PREFETCH_ENABLE != 0U)
  __HAL_FLASH_PREFETCH_BUFFER_ENABLE();
 8001ba8:	4b08      	ldr	r3, [pc, #32]	; (8001bcc <HAL_Init+0x40>)
 8001baa:	681b      	ldr	r3, [r3, #0]
 8001bac:	4a07      	ldr	r2, [pc, #28]	; (8001bcc <HAL_Init+0x40>)
 8001bae:	f443 7380 	orr.w	r3, r3, #256	; 0x100
 8001bb2:	6013      	str	r3, [r2, #0]
#endif /* PREFETCH_ENABLE */

  /* Set Interrupt Group Priority */
  HAL_NVIC_SetPriorityGrouping(NVIC_PRIORITYGROUP_4);
 8001bb4:	2003      	movs	r0, #3
 8001bb6:	f000 f92b 	bl	8001e10 <HAL_NVIC_SetPriorityGrouping>

  /* Use systick as time base source and configure 1ms tick (default clock after Reset is HSI) */
  HAL_InitTick(TICK_INT_PRIORITY);
 8001bba:	200f      	movs	r0, #15
 8001bbc:	f000 f808 	bl	8001bd0 <HAL_InitTick>

  /* Init the low level hardware */
  HAL_MspInit();
 8001bc0:	f7ff fc3c 	bl	800143c <HAL_MspInit>

  /* Return function status */
  return HAL_OK;
 8001bc4:	2300      	movs	r3, #0
}
 8001bc6:	4618      	mov	r0, r3
 8001bc8:	bd80      	pop	{r7, pc}
 8001bca:	bf00      	nop
 8001bcc:	40023c00 	.word	0x40023c00

08001bd0 <HAL_InitTick>:
  *       implementation  in user file.
  * @param TickPriority Tick interrupt priority.
  * @retval HAL status
  */
__weak HAL_StatusTypeDef HAL_InitTick(uint32_t TickPriority)
{
 8001bd0:	b580      	push	{r7, lr}
 8001bd2:	b082      	sub	sp, #8
 8001bd4:	af00      	add	r7, sp, #0
 8001bd6:	6078      	str	r0, [r7, #4]
  /* Configure the SysTick to have interrupt in 1ms time basis*/
  if (HAL_SYSTICK_Config(SystemCoreClock / (1000U / uwTickFreq)) > 0U)
 8001bd8:	4b12      	ldr	r3, [pc, #72]	; (8001c24 <HAL_InitTick+0x54>)
 8001bda:	681a      	ldr	r2, [r3, #0]
 8001bdc:	4b12      	ldr	r3, [pc, #72]	; (8001c28 <HAL_InitTick+0x58>)
 8001bde:	781b      	ldrb	r3, [r3, #0]
 8001be0:	4619      	mov	r1, r3
 8001be2:	f44f 737a 	mov.w	r3, #1000	; 0x3e8
 8001be6:	fbb3 f3f1 	udiv	r3, r3, r1
 8001bea:	fbb2 f3f3 	udiv	r3, r2, r3
 8001bee:	4618      	mov	r0, r3
 8001bf0:	f000 f943 	bl	8001e7a <HAL_SYSTICK_Config>
 8001bf4:	4603      	mov	r3, r0
 8001bf6:	2b00      	cmp	r3, #0
 8001bf8:	d001      	beq.n	8001bfe <HAL_InitTick+0x2e>
  {
    return HAL_ERROR;
 8001bfa:	2301      	movs	r3, #1
 8001bfc:	e00e      	b.n	8001c1c <HAL_InitTick+0x4c>
  }

  /* Configure the SysTick IRQ priority */
  if (TickPriority < (1UL << __NVIC_PRIO_BITS))
 8001bfe:	687b      	ldr	r3, [r7, #4]
 8001c00:	2b0f      	cmp	r3, #15
 8001c02:	d80a      	bhi.n	8001c1a <HAL_InitTick+0x4a>
  {
    HAL_NVIC_SetPriority(SysTick_IRQn, TickPriority, 0U);
 8001c04:	2200      	movs	r2, #0
 8001c06:	6879      	ldr	r1, [r7, #4]
 8001c08:	f04f 30ff 	mov.w	r0, #4294967295	; 0xffffffff
 8001c0c:	f000 f90b 	bl	8001e26 <HAL_NVIC_SetPriority>
    uwTickPrio = TickPriority;
 8001c10:	4a06      	ldr	r2, [pc, #24]	; (8001c2c <HAL_InitTick+0x5c>)
 8001c12:	687b      	ldr	r3, [r7, #4]
 8001c14:	6013      	str	r3, [r2, #0]
  {
    return HAL_ERROR;
  }

  /* Return function status */
  return HAL_OK;
 8001c16:	2300      	movs	r3, #0
 8001c18:	e000      	b.n	8001c1c <HAL_InitTick+0x4c>
    return HAL_ERROR;
 8001c1a:	2301      	movs	r3, #1
}
 8001c1c:	4618      	mov	r0, r3
 8001c1e:	3708      	adds	r7, #8
 8001c20:	46bd      	mov	sp, r7
 8001c22:	bd80      	pop	{r7, pc}
 8001c24:	20000018 	.word	0x20000018
 8001c28:	20000020 	.word	0x20000020
 8001c2c:	2000001c 	.word	0x2000001c

08001c30 <HAL_IncTick>:
 * @note This function is declared as __weak to be overwritten in case of other 
  *      implementations in user file.
  * @retval None
  */
__weak void HAL_IncTick(void)
{
 8001c30:	b480      	push	{r7}
 8001c32:	af00      	add	r7, sp, #0
  uwTick += uwTickFreq;
 8001c34:	4b06      	ldr	r3, [pc, #24]	; (8001c50 <HAL_IncTick+0x20>)
 8001c36:	781b      	ldrb	r3, [r3, #0]
 8001c38:	461a      	mov	r2, r3
 8001c3a:	4b06      	ldr	r3, [pc, #24]	; (8001c54 <HAL_IncTick+0x24>)
 8001c3c:	681b      	ldr	r3, [r3, #0]
 8001c3e:	4413      	add	r3, r2
 8001c40:	4a04      	ldr	r2, [pc, #16]	; (8001c54 <HAL_IncTick+0x24>)
 8001c42:	6013      	str	r3, [r2, #0]
}
 8001c44:	bf00      	nop
 8001c46:	46bd      	mov	sp, r7
 8001c48:	f85d 7b04 	ldr.w	r7, [sp], #4
 8001c4c:	4770      	bx	lr
 8001c4e:	bf00      	nop
 8001c50:	20000020 	.word	0x20000020
 8001c54:	20000310 	.word	0x20000310

08001c58 <HAL_GetTick>:
  * @note This function is declared as __weak to be overwritten in case of other 
  *       implementations in user file.
  * @retval tick value
  */
__weak uint32_t HAL_GetTick(void)
{
 8001c58:	b480      	push	{r7}
 8001c5a:	af00      	add	r7, sp, #0
  return uwTick;
 8001c5c:	4b03      	ldr	r3, [pc, #12]	; (8001c6c <HAL_GetTick+0x14>)
 8001c5e:	681b      	ldr	r3, [r3, #0]
}
 8001c60:	4618      	mov	r0, r3
 8001c62:	46bd      	mov	sp, r7
 8001c64:	f85d 7b04 	ldr.w	r7, [sp], #4
 8001c68:	4770      	bx	lr
 8001c6a:	bf00      	nop
 8001c6c:	20000310 	.word	0x20000310

08001c70 <__NVIC_SetPriorityGrouping>:
           In case of a conflict between priority grouping and available
           priority bits (__NVIC_PRIO_BITS), the smallest possible priority group is set.
  \param [in]      PriorityGroup  Priority grouping field.
 */
__STATIC_INLINE void __NVIC_SetPriorityGrouping(uint32_t PriorityGroup)
{
 8001c70:	b480      	push	{r7}
 8001c72:	b085      	sub	sp, #20
 8001c74:	af00      	add	r7, sp, #0
 8001c76:	6078      	str	r0, [r7, #4]
  uint32_t reg_value;
  uint32_t PriorityGroupTmp = (PriorityGroup & (uint32_t)0x07UL);             /* only values 0..7 are used          */
 8001c78:	687b      	ldr	r3, [r7, #4]
 8001c7a:	f003 0307 	and.w	r3, r3, #7
 8001c7e:	60fb      	str	r3, [r7, #12]

  reg_value  =  SCB->AIRCR;                                                   /* read old register configuration    */
 8001c80:	4b0c      	ldr	r3, [pc, #48]	; (8001cb4 <__NVIC_SetPriorityGrouping+0x44>)
 8001c82:	68db      	ldr	r3, [r3, #12]
 8001c84:	60bb      	str	r3, [r7, #8]
  reg_value &= ~((uint32_t)(SCB_AIRCR_VECTKEY_Msk | SCB_AIRCR_PRIGROUP_Msk)); /* clear bits to change               */
 8001c86:	68ba      	ldr	r2, [r7, #8]
 8001c88:	f64f 03ff 	movw	r3, #63743	; 0xf8ff
 8001c8c:	4013      	ands	r3, r2
 8001c8e:	60bb      	str	r3, [r7, #8]
  reg_value  =  (reg_value                                   |
                ((uint32_t)0x5FAUL << SCB_AIRCR_VECTKEY_Pos) |
                (PriorityGroupTmp << SCB_AIRCR_PRIGROUP_Pos)  );              /* Insert write key and priority group */
 8001c90:	68fb      	ldr	r3, [r7, #12]
 8001c92:	021a      	lsls	r2, r3, #8
                ((uint32_t)0x5FAUL << SCB_AIRCR_VECTKEY_Pos) |
 8001c94:	68bb      	ldr	r3, [r7, #8]
 8001c96:	4313      	orrs	r3, r2
  reg_value  =  (reg_value                                   |
 8001c98:	f043 63bf 	orr.w	r3, r3, #100139008	; 0x5f80000
 8001c9c:	f443 3300 	orr.w	r3, r3, #131072	; 0x20000
 8001ca0:	60bb      	str	r3, [r7, #8]
  SCB->AIRCR =  reg_value;
 8001ca2:	4a04      	ldr	r2, [pc, #16]	; (8001cb4 <__NVIC_SetPriorityGrouping+0x44>)
 8001ca4:	68bb      	ldr	r3, [r7, #8]
 8001ca6:	60d3      	str	r3, [r2, #12]
}
 8001ca8:	bf00      	nop
 8001caa:	3714      	adds	r7, #20
 8001cac:	46bd      	mov	sp, r7
 8001cae:	f85d 7b04 	ldr.w	r7, [sp], #4
 8001cb2:	4770      	bx	lr
 8001cb4:	e000ed00 	.word	0xe000ed00

08001cb8 <__NVIC_GetPriorityGrouping>:
  \brief   Get Priority Grouping
  \details Reads the priority grouping field from the NVIC Interrupt Controller.
  \return                Priority grouping field (SCB->AIRCR [10:8] PRIGROUP field).
 */
__STATIC_INLINE uint32_t __NVIC_GetPriorityGrouping(void)
{
 8001cb8:	b480      	push	{r7}
 8001cba:	af00      	add	r7, sp, #0
  return ((uint32_t)((SCB->AIRCR & SCB_AIRCR_PRIGROUP_Msk) >> SCB_AIRCR_PRIGROUP_Pos));
 8001cbc:	4b04      	ldr	r3, [pc, #16]	; (8001cd0 <__NVIC_GetPriorityGrouping+0x18>)
 8001cbe:	68db      	ldr	r3, [r3, #12]
 8001cc0:	0a1b      	lsrs	r3, r3, #8
 8001cc2:	f003 0307 	and.w	r3, r3, #7
}
 8001cc6:	4618      	mov	r0, r3
 8001cc8:	46bd      	mov	sp, r7
 8001cca:	f85d 7b04 	ldr.w	r7, [sp], #4
 8001cce:	4770      	bx	lr
 8001cd0:	e000ed00 	.word	0xe000ed00

08001cd4 <__NVIC_EnableIRQ>:
  \details Enables a device specific interrupt in the NVIC interrupt controller.
  \param [in]      IRQn  Device specific interrupt number.
  \note    IRQn must not be negative.
 */
__STATIC_INLINE void __NVIC_EnableIRQ(IRQn_Type IRQn)
{
 8001cd4:	b480      	push	{r7}
 8001cd6:	b083      	sub	sp, #12
 8001cd8:	af00      	add	r7, sp, #0
 8001cda:	4603      	mov	r3, r0
 8001cdc:	71fb      	strb	r3, [r7, #7]
  if ((int32_t)(IRQn) >= 0)
 8001cde:	f997 3007 	ldrsb.w	r3, [r7, #7]
 8001ce2:	2b00      	cmp	r3, #0
 8001ce4:	db0b      	blt.n	8001cfe <__NVIC_EnableIRQ+0x2a>
  {
    __COMPILER_BARRIER();
    NVIC->ISER[(((uint32_t)IRQn) >> 5UL)] = (uint32_t)(1UL << (((uint32_t)IRQn) & 0x1FUL));
 8001ce6:	79fb      	ldrb	r3, [r7, #7]
 8001ce8:	f003 021f 	and.w	r2, r3, #31
 8001cec:	4907      	ldr	r1, [pc, #28]	; (8001d0c <__NVIC_EnableIRQ+0x38>)
 8001cee:	f997 3007 	ldrsb.w	r3, [r7, #7]
 8001cf2:	095b      	lsrs	r3, r3, #5
 8001cf4:	2001      	movs	r0, #1
 8001cf6:	fa00 f202 	lsl.w	r2, r0, r2
 8001cfa:	f841 2023 	str.w	r2, [r1, r3, lsl #2]
    __COMPILER_BARRIER();
  }
}
 8001cfe:	bf00      	nop
 8001d00:	370c      	adds	r7, #12
 8001d02:	46bd      	mov	sp, r7
 8001d04:	f85d 7b04 	ldr.w	r7, [sp], #4
 8001d08:	4770      	bx	lr
 8001d0a:	bf00      	nop
 8001d0c:	e000e100 	.word	0xe000e100

08001d10 <__NVIC_SetPriority>:
  \param [in]      IRQn  Interrupt number.
  \param [in]  priority  Priority to set.
  \note    The priority cannot be set for every processor exception.
 */
__STATIC_INLINE void __NVIC_SetPriority(IRQn_Type IRQn, uint32_t priority)
{
 8001d10:	b480      	push	{r7}
 8001d12:	b083      	sub	sp, #12
 8001d14:	af00      	add	r7, sp, #0
 8001d16:	4603      	mov	r3, r0
 8001d18:	6039      	str	r1, [r7, #0]
 8001d1a:	71fb      	strb	r3, [r7, #7]
  if ((int32_t)(IRQn) >= 0)
 8001d1c:	f997 3007 	ldrsb.w	r3, [r7, #7]
 8001d20:	2b00      	cmp	r3, #0
 8001d22:	db0a      	blt.n	8001d3a <__NVIC_SetPriority+0x2a>
  {
    NVIC->IP[((uint32_t)IRQn)]               = (uint8_t)((priority << (8U - __NVIC_PRIO_BITS)) & (uint32_t)0xFFUL);
 8001d24:	683b      	ldr	r3, [r7, #0]
 8001d26:	b2da      	uxtb	r2, r3
 8001d28:	490c      	ldr	r1, [pc, #48]	; (8001d5c <__NVIC_SetPriority+0x4c>)
 8001d2a:	f997 3007 	ldrsb.w	r3, [r7, #7]
 8001d2e:	0112      	lsls	r2, r2, #4
 8001d30:	b2d2      	uxtb	r2, r2
 8001d32:	440b      	add	r3, r1
 8001d34:	f883 2300 	strb.w	r2, [r3, #768]	; 0x300
  }
  else
  {
    SCB->SHP[(((uint32_t)IRQn) & 0xFUL)-4UL] = (uint8_t)((priority << (8U - __NVIC_PRIO_BITS)) & (uint32_t)0xFFUL);
  }
}
 8001d38:	e00a      	b.n	8001d50 <__NVIC_SetPriority+0x40>
    SCB->SHP[(((uint32_t)IRQn) & 0xFUL)-4UL] = (uint8_t)((priority << (8U - __NVIC_PRIO_BITS)) & (uint32_t)0xFFUL);
 8001d3a:	683b      	ldr	r3, [r7, #0]
 8001d3c:	b2da      	uxtb	r2, r3
 8001d3e:	4908      	ldr	r1, [pc, #32]	; (8001d60 <__NVIC_SetPriority+0x50>)
 8001d40:	79fb      	ldrb	r3, [r7, #7]
 8001d42:	f003 030f 	and.w	r3, r3, #15
 8001d46:	3b04      	subs	r3, #4
 8001d48:	0112      	lsls	r2, r2, #4
 8001d4a:	b2d2      	uxtb	r2, r2
 8001d4c:	440b      	add	r3, r1
 8001d4e:	761a      	strb	r2, [r3, #24]
}
 8001d50:	bf00      	nop
 8001d52:	370c      	adds	r7, #12
 8001d54:	46bd      	mov	sp, r7
 8001d56:	f85d 7b04 	ldr.w	r7, [sp], #4
 8001d5a:	4770      	bx	lr
 8001d5c:	e000e100 	.word	0xe000e100
 8001d60:	e000ed00 	.word	0xe000ed00

08001d64 <NVIC_EncodePriority>:
  \param [in]   PreemptPriority  Preemptive priority value (starting from 0).
  \param [in]       SubPriority  Subpriority value (starting from 0).
  \return                        Encoded priority. Value can be used in the function \ref NVIC_SetPriority().
 */
__STATIC_INLINE uint32_t NVIC_EncodePriority (uint32_t PriorityGroup, uint32_t PreemptPriority, uint32_t SubPriority)
{
 8001d64:	b480      	push	{r7}
 8001d66:	b089      	sub	sp, #36	; 0x24
 8001d68:	af00      	add	r7, sp, #0
 8001d6a:	60f8      	str	r0, [r7, #12]
 8001d6c:	60b9      	str	r1, [r7, #8]
 8001d6e:	607a      	str	r2, [r7, #4]
  uint32_t PriorityGroupTmp = (PriorityGroup & (uint32_t)0x07UL);   /* only values 0..7 are used          */
 8001d70:	68fb      	ldr	r3, [r7, #12]
 8001d72:	f003 0307 	and.w	r3, r3, #7
 8001d76:	61fb      	str	r3, [r7, #28]
  uint32_t PreemptPriorityBits;
  uint32_t SubPriorityBits;

  PreemptPriorityBits = ((7UL - PriorityGroupTmp) > (uint32_t)(__NVIC_PRIO_BITS)) ? (uint32_t)(__NVIC_PRIO_BITS) : (uint32_t)(7UL - PriorityGroupTmp);
 8001d78:	69fb      	ldr	r3, [r7, #28]
 8001d7a:	f1c3 0307 	rsb	r3, r3, #7
 8001d7e:	2b04      	cmp	r3, #4
 8001d80:	bf28      	it	cs
 8001d82:	2304      	movcs	r3, #4
 8001d84:	61bb      	str	r3, [r7, #24]
  SubPriorityBits     = ((PriorityGroupTmp + (uint32_t)(__NVIC_PRIO_BITS)) < (uint32_t)7UL) ? (uint32_t)0UL : (uint32_t)((PriorityGroupTmp - 7UL) + (uint32_t)(__NVIC_PRIO_BITS));
 8001d86:	69fb      	ldr	r3, [r7, #28]
 8001d88:	3304      	adds	r3, #4
 8001d8a:	2b06      	cmp	r3, #6
 8001d8c:	d902      	bls.n	8001d94 <NVIC_EncodePriority+0x30>
 8001d8e:	69fb      	ldr	r3, [r7, #28]
 8001d90:	3b03      	subs	r3, #3
 8001d92:	e000      	b.n	8001d96 <NVIC_EncodePriority+0x32>
 8001d94:	2300      	movs	r3, #0
 8001d96:	617b      	str	r3, [r7, #20]

  return (
           ((PreemptPriority & (uint32_t)((1UL << (PreemptPriorityBits)) - 1UL)) << SubPriorityBits) |
 8001d98:	f04f 32ff 	mov.w	r2, #4294967295	; 0xffffffff
 8001d9c:	69bb      	ldr	r3, [r7, #24]
 8001d9e:	fa02 f303 	lsl.w	r3, r2, r3
 8001da2:	43da      	mvns	r2, r3
 8001da4:	68bb      	ldr	r3, [r7, #8]
 8001da6:	401a      	ands	r2, r3
 8001da8:	697b      	ldr	r3, [r7, #20]
 8001daa:	409a      	lsls	r2, r3
           ((SubPriority     & (uint32_t)((1UL << (SubPriorityBits    )) - 1UL)))
 8001dac:	f04f 31ff 	mov.w	r1, #4294967295	; 0xffffffff
 8001db0:	697b      	ldr	r3, [r7, #20]
 8001db2:	fa01 f303 	lsl.w	r3, r1, r3
 8001db6:	43d9      	mvns	r1, r3
 8001db8:	687b      	ldr	r3, [r7, #4]
 8001dba:	400b      	ands	r3, r1
           ((PreemptPriority & (uint32_t)((1UL << (PreemptPriorityBits)) - 1UL)) << SubPriorityBits) |
 8001dbc:	4313      	orrs	r3, r2
         );
}
 8001dbe:	4618      	mov	r0, r3
 8001dc0:	3724      	adds	r7, #36	; 0x24
 8001dc2:	46bd      	mov	sp, r7
 8001dc4:	f85d 7b04 	ldr.w	r7, [sp], #4
 8001dc8:	4770      	bx	lr
	...

08001dcc <SysTick_Config>:
  \note    When the variable <b>__Vendor_SysTickConfig</b> is set to 1, then the
           function <b>SysTick_Config</b> is not included. In this case, the file <b><i>device</i>.h</b>
           must contain a vendor-specific implementation of this function.
 */
__STATIC_INLINE uint32_t SysTick_Config(uint32_t ticks)
{
 8001dcc:	b580      	push	{r7, lr}
 8001dce:	b082      	sub	sp, #8
 8001dd0:	af00      	add	r7, sp, #0
 8001dd2:	6078      	str	r0, [r7, #4]
  if ((ticks - 1UL) > SysTick_LOAD_RELOAD_Msk)
 8001dd4:	687b      	ldr	r3, [r7, #4]
 8001dd6:	3b01      	subs	r3, #1
 8001dd8:	f1b3 7f80 	cmp.w	r3, #16777216	; 0x1000000
 8001ddc:	d301      	bcc.n	8001de2 <SysTick_Config+0x16>
  {
    return (1UL);                                                   /* Reload value impossible */
 8001dde:	2301      	movs	r3, #1
 8001de0:	e00f      	b.n	8001e02 <SysTick_Config+0x36>
  }

  SysTick->LOAD  = (uint32_t)(ticks - 1UL);                         /* set reload register */
 8001de2:	4a0a      	ldr	r2, [pc, #40]	; (8001e0c <SysTick_Config+0x40>)
 8001de4:	687b      	ldr	r3, [r7, #4]
 8001de6:	3b01      	subs	r3, #1
 8001de8:	6053      	str	r3, [r2, #4]
  NVIC_SetPriority (SysTick_IRQn, (1UL << __NVIC_PRIO_BITS) - 1UL); /* set Priority for Systick Interrupt */
 8001dea:	210f      	movs	r1, #15
 8001dec:	f04f 30ff 	mov.w	r0, #4294967295	; 0xffffffff
 8001df0:	f7ff ff8e 	bl	8001d10 <__NVIC_SetPriority>
  SysTick->VAL   = 0UL;                                             /* Load the SysTick Counter Value */
 8001df4:	4b05      	ldr	r3, [pc, #20]	; (8001e0c <SysTick_Config+0x40>)
 8001df6:	2200      	movs	r2, #0
 8001df8:	609a      	str	r2, [r3, #8]
  SysTick->CTRL  = SysTick_CTRL_CLKSOURCE_Msk |
 8001dfa:	4b04      	ldr	r3, [pc, #16]	; (8001e0c <SysTick_Config+0x40>)
 8001dfc:	2207      	movs	r2, #7
 8001dfe:	601a      	str	r2, [r3, #0]
                   SysTick_CTRL_TICKINT_Msk   |
                   SysTick_CTRL_ENABLE_Msk;                         /* Enable SysTick IRQ and SysTick Timer */
  return (0UL);                                                     /* Function successful */
 8001e00:	2300      	movs	r3, #0
}
 8001e02:	4618      	mov	r0, r3
 8001e04:	3708      	adds	r7, #8
 8001e06:	46bd      	mov	sp, r7
 8001e08:	bd80      	pop	{r7, pc}
 8001e0a:	bf00      	nop
 8001e0c:	e000e010 	.word	0xe000e010

08001e10 <HAL_NVIC_SetPriorityGrouping>:
  * @note   When the NVIC_PriorityGroup_0 is selected, IRQ preemption is no more possible. 
  *         The pending IRQ priority will be managed only by the subpriority. 
  * @retval None
  */
void HAL_NVIC_SetPriorityGrouping(uint32_t PriorityGroup)
{
 8001e10:	b580      	push	{r7, lr}
 8001e12:	b082      	sub	sp, #8
 8001e14:	af00      	add	r7, sp, #0
 8001e16:	6078      	str	r0, [r7, #4]
  /* Check the parameters */
  assert_param(IS_NVIC_PRIORITY_GROUP(PriorityGroup));
  
  /* Set the PRIGROUP[10:8] bits according to the PriorityGroup parameter value */
  NVIC_SetPriorityGrouping(PriorityGroup);
 8001e18:	6878      	ldr	r0, [r7, #4]
 8001e1a:	f7ff ff29 	bl	8001c70 <__NVIC_SetPriorityGrouping>
}
 8001e1e:	bf00      	nop
 8001e20:	3708      	adds	r7, #8
 8001e22:	46bd      	mov	sp, r7
 8001e24:	bd80      	pop	{r7, pc}

08001e26 <HAL_NVIC_SetPriority>:
  *         This parameter can be a value between 0 and 15
  *         A lower priority value indicates a higher priority.          
  * @retval None
  */
void HAL_NVIC_SetPriority(IRQn_Type IRQn, uint32_t PreemptPriority, uint32_t SubPriority)
{ 
 8001e26:	b580      	push	{r7, lr}
 8001e28:	b086      	sub	sp, #24
 8001e2a:	af00      	add	r7, sp, #0
 8001e2c:	4603      	mov	r3, r0
 8001e2e:	60b9      	str	r1, [r7, #8]
 8001e30:	607a      	str	r2, [r7, #4]
 8001e32:	73fb      	strb	r3, [r7, #15]
  uint32_t prioritygroup = 0x00U;
 8001e34:	2300      	movs	r3, #0
 8001e36:	617b      	str	r3, [r7, #20]
  
  /* Check the parameters */
  assert_param(IS_NVIC_SUB_PRIORITY(SubPriority));
  assert_param(IS_NVIC_PREEMPTION_PRIORITY(PreemptPriority));
  
  prioritygroup = NVIC_GetPriorityGrouping();
 8001e38:	f7ff ff3e 	bl	8001cb8 <__NVIC_GetPriorityGrouping>
 8001e3c:	6178      	str	r0, [r7, #20]
  
  NVIC_SetPriority(IRQn, NVIC_EncodePriority(prioritygroup, PreemptPriority, SubPriority));
 8001e3e:	687a      	ldr	r2, [r7, #4]
 8001e40:	68b9      	ldr	r1, [r7, #8]
 8001e42:	6978      	ldr	r0, [r7, #20]
 8001e44:	f7ff ff8e 	bl	8001d64 <NVIC_EncodePriority>
 8001e48:	4602      	mov	r2, r0
 8001e4a:	f997 300f 	ldrsb.w	r3, [r7, #15]
 8001e4e:	4611      	mov	r1, r2
 8001e50:	4618      	mov	r0, r3
 8001e52:	f7ff ff5d 	bl	8001d10 <__NVIC_SetPriority>
}
 8001e56:	bf00      	nop
 8001e58:	3718      	adds	r7, #24
 8001e5a:	46bd      	mov	sp, r7
 8001e5c:	bd80      	pop	{r7, pc}

08001e5e <HAL_NVIC_EnableIRQ>:
  *         This parameter can be an enumerator of IRQn_Type enumeration
  *         (For the complete STM32 Devices IRQ Channels list, please refer to the appropriate CMSIS device file (stm32f4xxxx.h))
  * @retval None
  */
void HAL_NVIC_EnableIRQ(IRQn_Type IRQn)
{
 8001e5e:	b580      	push	{r7, lr}
 8001e60:	b082      	sub	sp, #8
 8001e62:	af00      	add	r7, sp, #0
 8001e64:	4603      	mov	r3, r0
 8001e66:	71fb      	strb	r3, [r7, #7]
  /* Check the parameters */
  assert_param(IS_NVIC_DEVICE_IRQ(IRQn));
  
  /* Enable interrupt */
  NVIC_EnableIRQ(IRQn);
 8001e68:	f997 3007 	ldrsb.w	r3, [r7, #7]
 8001e6c:	4618      	mov	r0, r3
 8001e6e:	f7ff ff31 	bl	8001cd4 <__NVIC_EnableIRQ>
}
 8001e72:	bf00      	nop
 8001e74:	3708      	adds	r7, #8
 8001e76:	46bd      	mov	sp, r7
 8001e78:	bd80      	pop	{r7, pc}

08001e7a <HAL_SYSTICK_Config>:
  * @param  TicksNumb Specifies the ticks Number of ticks between two interrupts.
  * @retval status:  - 0  Function succeeded.
  *                  - 1  Function failed.
  */
uint32_t HAL_SYSTICK_Config(uint32_t TicksNumb)
{
 8001e7a:	b580      	push	{r7, lr}
 8001e7c:	b082      	sub	sp, #8
 8001e7e:	af00      	add	r7, sp, #0
 8001e80:	6078      	str	r0, [r7, #4]
   return SysTick_Config(TicksNumb);
 8001e82:	6878      	ldr	r0, [r7, #4]
 8001e84:	f7ff ffa2 	bl	8001dcc <SysTick_Config>
 8001e88:	4603      	mov	r3, r0
}
 8001e8a:	4618      	mov	r0, r3
 8001e8c:	3708      	adds	r7, #8
 8001e8e:	46bd      	mov	sp, r7
 8001e90:	bd80      	pop	{r7, pc}

08001e92 <HAL_DMA_Abort>:
  *        and the Stream will be effectively disabled only after the transfer of
  *        this single data is finished.  
  * @retval HAL status
  */
HAL_StatusTypeDef HAL_DMA_Abort(DMA_HandleTypeDef *hdma)
{
 8001e92:	b580      	push	{r7, lr}
 8001e94:	b084      	sub	sp, #16
 8001e96:	af00      	add	r7, sp, #0
 8001e98:	6078      	str	r0, [r7, #4]
  /* calculate DMA base and stream number */
  DMA_Base_Registers *regs = (DMA_Base_Registers *)hdma->StreamBaseAddress;
 8001e9a:	687b      	ldr	r3, [r7, #4]
 8001e9c:	6d9b      	ldr	r3, [r3, #88]	; 0x58
 8001e9e:	60fb      	str	r3, [r7, #12]
  
  uint32_t tickstart = HAL_GetTick();
 8001ea0:	f7ff feda 	bl	8001c58 <HAL_GetTick>
 8001ea4:	60b8      	str	r0, [r7, #8]
  
  if(hdma->State != HAL_DMA_STATE_BUSY)
 8001ea6:	687b      	ldr	r3, [r7, #4]
 8001ea8:	f893 3035 	ldrb.w	r3, [r3, #53]	; 0x35
 8001eac:	b2db      	uxtb	r3, r3
 8001eae:	2b02      	cmp	r3, #2
 8001eb0:	d008      	beq.n	8001ec4 <HAL_DMA_Abort+0x32>
  {
    hdma->ErrorCode = HAL_DMA_ERROR_NO_XFER;
 8001eb2:	687b      	ldr	r3, [r7, #4]
 8001eb4:	2280      	movs	r2, #128	; 0x80
 8001eb6:	655a      	str	r2, [r3, #84]	; 0x54
    
    /* Process Unlocked */
    __HAL_UNLOCK(hdma);
 8001eb8:	687b      	ldr	r3, [r7, #4]
 8001eba:	2200      	movs	r2, #0
 8001ebc:	f883 2034 	strb.w	r2, [r3, #52]	; 0x34
    
    return HAL_ERROR;
 8001ec0:	2301      	movs	r3, #1
 8001ec2:	e052      	b.n	8001f6a <HAL_DMA_Abort+0xd8>
  }
  else
  {
    /* Disable all the transfer interrupts */
    hdma->Instance->CR  &= ~(DMA_IT_TC | DMA_IT_TE | DMA_IT_DME);
 8001ec4:	687b      	ldr	r3, [r7, #4]
 8001ec6:	681b      	ldr	r3, [r3, #0]
 8001ec8:	681a      	ldr	r2, [r3, #0]
 8001eca:	687b      	ldr	r3, [r7, #4]
 8001ecc:	681b      	ldr	r3, [r3, #0]
 8001ece:	f022 0216 	bic.w	r2, r2, #22
 8001ed2:	601a      	str	r2, [r3, #0]
    hdma->Instance->FCR &= ~(DMA_IT_FE);
 8001ed4:	687b      	ldr	r3, [r7, #4]
 8001ed6:	681b      	ldr	r3, [r3, #0]
 8001ed8:	695a      	ldr	r2, [r3, #20]
 8001eda:	687b      	ldr	r3, [r7, #4]
 8001edc:	681b      	ldr	r3, [r3, #0]
 8001ede:	f022 0280 	bic.w	r2, r2, #128	; 0x80
 8001ee2:	615a      	str	r2, [r3, #20]
    
    if((hdma->XferHalfCpltCallback != NULL) || (hdma->XferM1HalfCpltCallback != NULL))
 8001ee4:	687b      	ldr	r3, [r7, #4]
 8001ee6:	6c1b      	ldr	r3, [r3, #64]	; 0x40
 8001ee8:	2b00      	cmp	r3, #0
 8001eea:	d103      	bne.n	8001ef4 <HAL_DMA_Abort+0x62>
 8001eec:	687b      	ldr	r3, [r7, #4]
 8001eee:	6c9b      	ldr	r3, [r3, #72]	; 0x48
 8001ef0:	2b00      	cmp	r3, #0
 8001ef2:	d007      	beq.n	8001f04 <HAL_DMA_Abort+0x72>
    {
      hdma->Instance->CR  &= ~(DMA_IT_HT);
 8001ef4:	687b      	ldr	r3, [r7, #4]
 8001ef6:	681b      	ldr	r3, [r3, #0]
 8001ef8:	681a      	ldr	r2, [r3, #0]
 8001efa:	687b      	ldr	r3, [r7, #4]
 8001efc:	681b      	ldr	r3, [r3, #0]
 8001efe:	f022 0208 	bic.w	r2, r2, #8
 8001f02:	601a      	str	r2, [r3, #0]
    }
    
    /* Disable the stream */
    __HAL_DMA_DISABLE(hdma);
 8001f04:	687b      	ldr	r3, [r7, #4]
 8001f06:	681b      	ldr	r3, [r3, #0]
 8001f08:	681a      	ldr	r2, [r3, #0]
 8001f0a:	687b      	ldr	r3, [r7, #4]
 8001f0c:	681b      	ldr	r3, [r3, #0]
 8001f0e:	f022 0201 	bic.w	r2, r2, #1
 8001f12:	601a      	str	r2, [r3, #0]
    
    /* Check if the DMA Stream is effectively disabled */
    while((hdma->Instance->CR & DMA_SxCR_EN) != RESET)
 8001f14:	e013      	b.n	8001f3e <HAL_DMA_Abort+0xac>
    {
      /* Check for the Timeout */
      if((HAL_GetTick() - tickstart ) > HAL_TIMEOUT_DMA_ABORT)
 8001f16:	f7ff fe9f 	bl	8001c58 <HAL_GetTick>
 8001f1a:	4602      	mov	r2, r0
 8001f1c:	68bb      	ldr	r3, [r7, #8]
 8001f1e:	1ad3      	subs	r3, r2, r3
 8001f20:	2b05      	cmp	r3, #5
 8001f22:	d90c      	bls.n	8001f3e <HAL_DMA_Abort+0xac>
      {
        /* Update error code */
        hdma->ErrorCode = HAL_DMA_ERROR_TIMEOUT;
 8001f24:	687b      	ldr	r3, [r7, #4]
 8001f26:	2220      	movs	r2, #32
 8001f28:	655a      	str	r2, [r3, #84]	; 0x54
        
        /* Change the DMA state */
        hdma->State = HAL_DMA_STATE_TIMEOUT;
 8001f2a:	687b      	ldr	r3, [r7, #4]
 8001f2c:	2203      	movs	r2, #3
 8001f2e:	f883 2035 	strb.w	r2, [r3, #53]	; 0x35
        
        /* Process Unlocked */
        __HAL_UNLOCK(hdma);
 8001f32:	687b      	ldr	r3, [r7, #4]
 8001f34:	2200      	movs	r2, #0
 8001f36:	f883 2034 	strb.w	r2, [r3, #52]	; 0x34
        
        return HAL_TIMEOUT;
 8001f3a:	2303      	movs	r3, #3
 8001f3c:	e015      	b.n	8001f6a <HAL_DMA_Abort+0xd8>
    while((hdma->Instance->CR & DMA_SxCR_EN) != RESET)
 8001f3e:	687b      	ldr	r3, [r7, #4]
 8001f40:	681b      	ldr	r3, [r3, #0]
 8001f42:	681b      	ldr	r3, [r3, #0]
 8001f44:	f003 0301 	and.w	r3, r3, #1
 8001f48:	2b00      	cmp	r3, #0
 8001f4a:	d1e4      	bne.n	8001f16 <HAL_DMA_Abort+0x84>
      }
    }
    
    /* Clear all interrupt flags at correct offset within the register */
    regs->IFCR = 0x3FU << hdma->StreamIndex;
 8001f4c:	687b      	ldr	r3, [r7, #4]
 8001f4e:	6ddb      	ldr	r3, [r3, #92]	; 0x5c
 8001f50:	223f      	movs	r2, #63	; 0x3f
 8001f52:	409a      	lsls	r2, r3
 8001f54:	68fb      	ldr	r3, [r7, #12]
 8001f56:	609a      	str	r2, [r3, #8]
    
    /* Change the DMA state*/
    hdma->State = HAL_DMA_STATE_READY;
 8001f58:	687b      	ldr	r3, [r7, #4]
 8001f5a:	2201      	movs	r2, #1
 8001f5c:	f883 2035 	strb.w	r2, [r3, #53]	; 0x35
    
    /* Process Unlocked */
    __HAL_UNLOCK(hdma);
 8001f60:	687b      	ldr	r3, [r7, #4]
 8001f62:	2200      	movs	r2, #0
 8001f64:	f883 2034 	strb.w	r2, [r3, #52]	; 0x34
  }
  return HAL_OK;
 8001f68:	2300      	movs	r3, #0
}
 8001f6a:	4618      	mov	r0, r3
 8001f6c:	3710      	adds	r7, #16
 8001f6e:	46bd      	mov	sp, r7
 8001f70:	bd80      	pop	{r7, pc}

08001f72 <HAL_DMA_Abort_IT>:
  * @param  hdma   pointer to a DMA_HandleTypeDef structure that contains
  *                 the configuration information for the specified DMA Stream.
  * @retval HAL status
  */
HAL_StatusTypeDef HAL_DMA_Abort_IT(DMA_HandleTypeDef *hdma)
{
 8001f72:	b480      	push	{r7}
 8001f74:	b083      	sub	sp, #12
 8001f76:	af00      	add	r7, sp, #0
 8001f78:	6078      	str	r0, [r7, #4]
  if(hdma->State != HAL_DMA_STATE_BUSY)
 8001f7a:	687b      	ldr	r3, [r7, #4]
 8001f7c:	f893 3035 	ldrb.w	r3, [r3, #53]	; 0x35
 8001f80:	b2db      	uxtb	r3, r3
 8001f82:	2b02      	cmp	r3, #2
 8001f84:	d004      	beq.n	8001f90 <HAL_DMA_Abort_IT+0x1e>
  {
    hdma->ErrorCode = HAL_DMA_ERROR_NO_XFER;
 8001f86:	687b      	ldr	r3, [r7, #4]
 8001f88:	2280      	movs	r2, #128	; 0x80
 8001f8a:	655a      	str	r2, [r3, #84]	; 0x54
    return HAL_ERROR;
 8001f8c:	2301      	movs	r3, #1
 8001f8e:	e00c      	b.n	8001faa <HAL_DMA_Abort_IT+0x38>
  }
  else
  {
    /* Set Abort State  */
    hdma->State = HAL_DMA_STATE_ABORT;
 8001f90:	687b      	ldr	r3, [r7, #4]
 8001f92:	2205      	movs	r2, #5
 8001f94:	f883 2035 	strb.w	r2, [r3, #53]	; 0x35
    
    /* Disable the stream */
    __HAL_DMA_DISABLE(hdma);
 8001f98:	687b      	ldr	r3, [r7, #4]
 8001f9a:	681b      	ldr	r3, [r3, #0]
 8001f9c:	681a      	ldr	r2, [r3, #0]
 8001f9e:	687b      	ldr	r3, [r7, #4]
 8001fa0:	681b      	ldr	r3, [r3, #0]
 8001fa2:	f022 0201 	bic.w	r2, r2, #1
 8001fa6:	601a      	str	r2, [r3, #0]
  }

  return HAL_OK;
 8001fa8:	2300      	movs	r3, #0
}
 8001faa:	4618      	mov	r0, r3
 8001fac:	370c      	adds	r7, #12
 8001fae:	46bd      	mov	sp, r7
 8001fb0:	f85d 7b04 	ldr.w	r7, [sp], #4
 8001fb4:	4770      	bx	lr
	...

08001fb8 <HAL_GPIO_Init>:
  * @param  GPIO_Init pointer to a GPIO_InitTypeDef structure that contains
  *         the configuration information for the specified GPIO peripheral.
  * @retval None
  */
void HAL_GPIO_Init(GPIO_TypeDef  *GPIOx, GPIO_InitTypeDef *GPIO_Init)
{
 8001fb8:	b480      	push	{r7}
 8001fba:	b089      	sub	sp, #36	; 0x24
 8001fbc:	af00      	add	r7, sp, #0
 8001fbe:	6078      	str	r0, [r7, #4]
 8001fc0:	6039      	str	r1, [r7, #0]
  uint32_t position;
  uint32_t ioposition = 0x00U;
 8001fc2:	2300      	movs	r3, #0
 8001fc4:	617b      	str	r3, [r7, #20]
  uint32_t iocurrent = 0x00U;
 8001fc6:	2300      	movs	r3, #0
 8001fc8:	613b      	str	r3, [r7, #16]
  uint32_t temp = 0x00U;
 8001fca:	2300      	movs	r3, #0
 8001fcc:	61bb      	str	r3, [r7, #24]
  assert_param(IS_GPIO_ALL_INSTANCE(GPIOx));
  assert_param(IS_GPIO_PIN(GPIO_Init->Pin));
  assert_param(IS_GPIO_MODE(GPIO_Init->Mode));

  /* Configure the port pins */
  for(position = 0U; position < GPIO_NUMBER; position++)
 8001fce:	2300      	movs	r3, #0
 8001fd0:	61fb      	str	r3, [r7, #28]
 8001fd2:	e177      	b.n	80022c4 <HAL_GPIO_Init+0x30c>
  {
    /* Get the IO position */
    ioposition = 0x01U << position;
 8001fd4:	2201      	movs	r2, #1
 8001fd6:	69fb      	ldr	r3, [r7, #28]
 8001fd8:	fa02 f303 	lsl.w	r3, r2, r3
 8001fdc:	617b      	str	r3, [r7, #20]
    /* Get the current IO position */
    iocurrent = (uint32_t)(GPIO_Init->Pin) & ioposition;
 8001fde:	683b      	ldr	r3, [r7, #0]
 8001fe0:	681b      	ldr	r3, [r3, #0]
 8001fe2:	697a      	ldr	r2, [r7, #20]
 8001fe4:	4013      	ands	r3, r2
 8001fe6:	613b      	str	r3, [r7, #16]

    if(iocurrent == ioposition)
 8001fe8:	693a      	ldr	r2, [r7, #16]
 8001fea:	697b      	ldr	r3, [r7, #20]
 8001fec:	429a      	cmp	r2, r3
 8001fee:	f040 8166 	bne.w	80022be <HAL_GPIO_Init+0x306>
    {
      /*--------------------- GPIO Mode Configuration ------------------------*/
      /* In case of Output or Alternate function mode selection */
      if(((GPIO_Init->Mode & GPIO_MODE) == MODE_OUTPUT) || \
 8001ff2:	683b      	ldr	r3, [r7, #0]
 8001ff4:	685b      	ldr	r3, [r3, #4]
 8001ff6:	f003 0303 	and.w	r3, r3, #3
 8001ffa:	2b01      	cmp	r3, #1
 8001ffc:	d005      	beq.n	800200a <HAL_GPIO_Init+0x52>
          (GPIO_Init->Mode & GPIO_MODE) == MODE_AF)
 8001ffe:	683b      	ldr	r3, [r7, #0]
 8002000:	685b      	ldr	r3, [r3, #4]
 8002002:	f003 0303 	and.w	r3, r3, #3
      if(((GPIO_Init->Mode & GPIO_MODE) == MODE_OUTPUT) || \
 8002006:	2b02      	cmp	r3, #2
 8002008:	d130      	bne.n	800206c <HAL_GPIO_Init+0xb4>
      {
        /* Check the Speed parameter */
        assert_param(IS_GPIO_SPEED(GPIO_Init->Speed));
        /* Configure the IO Speed */
        temp = GPIOx->OSPEEDR; 
 800200a:	687b      	ldr	r3, [r7, #4]
 800200c:	689b      	ldr	r3, [r3, #8]
 800200e:	61bb      	str	r3, [r7, #24]
        temp &= ~(GPIO_OSPEEDER_OSPEEDR0 << (position * 2U));
 8002010:	69fb      	ldr	r3, [r7, #28]
 8002012:	005b      	lsls	r3, r3, #1
 8002014:	2203      	movs	r2, #3
 8002016:	fa02 f303 	lsl.w	r3, r2, r3
 800201a:	43db      	mvns	r3, r3
 800201c:	69ba      	ldr	r2, [r7, #24]
 800201e:	4013      	ands	r3, r2
 8002020:	61bb      	str	r3, [r7, #24]
        temp |= (GPIO_Init->Speed << (position * 2U));
 8002022:	683b      	ldr	r3, [r7, #0]
 8002024:	68da      	ldr	r2, [r3, #12]
 8002026:	69fb      	ldr	r3, [r7, #28]
 8002028:	005b      	lsls	r3, r3, #1
 800202a:	fa02 f303 	lsl.w	r3, r2, r3
 800202e:	69ba      	ldr	r2, [r7, #24]
 8002030:	4313      	orrs	r3, r2
 8002032:	61bb      	str	r3, [r7, #24]
        GPIOx->OSPEEDR = temp;
 8002034:	687b      	ldr	r3, [r7, #4]
 8002036:	69ba      	ldr	r2, [r7, #24]
 8002038:	609a      	str	r2, [r3, #8]

        /* Configure the IO Output Type */
        temp = GPIOx->OTYPER;
 800203a:	687b      	ldr	r3, [r7, #4]
 800203c:	685b      	ldr	r3, [r3, #4]
 800203e:	61bb      	str	r3, [r7, #24]
        temp &= ~(GPIO_OTYPER_OT_0 << position) ;
 8002040:	2201      	movs	r2, #1
 8002042:	69fb      	ldr	r3, [r7, #28]
 8002044:	fa02 f303 	lsl.w	r3, r2, r3
 8002048:	43db      	mvns	r3, r3
 800204a:	69ba      	ldr	r2, [r7, #24]
 800204c:	4013      	ands	r3, r2
 800204e:	61bb      	str	r3, [r7, #24]
        temp |= (((GPIO_Init->Mode & OUTPUT_TYPE) >> OUTPUT_TYPE_Pos) << position);
 8002050:	683b      	ldr	r3, [r7, #0]
 8002052:	685b      	ldr	r3, [r3, #4]
 8002054:	091b      	lsrs	r3, r3, #4
 8002056:	f003 0201 	and.w	r2, r3, #1
 800205a:	69fb      	ldr	r3, [r7, #28]
 800205c:	fa02 f303 	lsl.w	r3, r2, r3
 8002060:	69ba      	ldr	r2, [r7, #24]
 8002062:	4313      	orrs	r3, r2
 8002064:	61bb      	str	r3, [r7, #24]
        GPIOx->OTYPER = temp;
 8002066:	687b      	ldr	r3, [r7, #4]
 8002068:	69ba      	ldr	r2, [r7, #24]
 800206a:	605a      	str	r2, [r3, #4]
       }

      if((GPIO_Init->Mode & GPIO_MODE) != MODE_ANALOG)
 800206c:	683b      	ldr	r3, [r7, #0]
 800206e:	685b      	ldr	r3, [r3, #4]
 8002070:	f003 0303 	and.w	r3, r3, #3
 8002074:	2b03      	cmp	r3, #3
 8002076:	d017      	beq.n	80020a8 <HAL_GPIO_Init+0xf0>
      {
        /* Check the parameters */
        assert_param(IS_GPIO_PULL(GPIO_Init->Pull));
        
        /* Activate the Pull-up or Pull down resistor for the current IO */
        temp = GPIOx->PUPDR;
 8002078:	687b      	ldr	r3, [r7, #4]
 800207a:	68db      	ldr	r3, [r3, #12]
 800207c:	61bb      	str	r3, [r7, #24]
        temp &= ~(GPIO_PUPDR_PUPDR0 << (position * 2U));
 800207e:	69fb      	ldr	r3, [r7, #28]
 8002080:	005b      	lsls	r3, r3, #1
 8002082:	2203      	movs	r2, #3
 8002084:	fa02 f303 	lsl.w	r3, r2, r3
 8002088:	43db      	mvns	r3, r3
 800208a:	69ba      	ldr	r2, [r7, #24]
 800208c:	4013      	ands	r3, r2
 800208e:	61bb      	str	r3, [r7, #24]
        temp |= ((GPIO_Init->Pull) << (position * 2U));
 8002090:	683b      	ldr	r3, [r7, #0]
 8002092:	689a      	ldr	r2, [r3, #8]
 8002094:	69fb      	ldr	r3, [r7, #28]
 8002096:	005b      	lsls	r3, r3, #1
 8002098:	fa02 f303 	lsl.w	r3, r2, r3
 800209c:	69ba      	ldr	r2, [r7, #24]
 800209e:	4313      	orrs	r3, r2
 80020a0:	61bb      	str	r3, [r7, #24]
        GPIOx->PUPDR = temp;
 80020a2:	687b      	ldr	r3, [r7, #4]
 80020a4:	69ba      	ldr	r2, [r7, #24]
 80020a6:	60da      	str	r2, [r3, #12]
      }

      /* In case of Alternate function mode selection */
      if((GPIO_Init->Mode & GPIO_MODE) == MODE_AF)
 80020a8:	683b      	ldr	r3, [r7, #0]
 80020aa:	685b      	ldr	r3, [r3, #4]
 80020ac:	f003 0303 	and.w	r3, r3, #3
 80020b0:	2b02      	cmp	r3, #2
 80020b2:	d123      	bne.n	80020fc <HAL_GPIO_Init+0x144>
      {
        /* Check the Alternate function parameter */
        assert_param(IS_GPIO_AF(GPIO_Init->Alternate));
        /* Configure Alternate function mapped with the current IO */
        temp = GPIOx->AFR[position >> 3U];
 80020b4:	69fb      	ldr	r3, [r7, #28]
 80020b6:	08da      	lsrs	r2, r3, #3
 80020b8:	687b      	ldr	r3, [r7, #4]
 80020ba:	3208      	adds	r2, #8
 80020bc:	f853 3022 	ldr.w	r3, [r3, r2, lsl #2]
 80020c0:	61bb      	str	r3, [r7, #24]
        temp &= ~(0xFU << ((uint32_t)(position & 0x07U) * 4U)) ;
 80020c2:	69fb      	ldr	r3, [r7, #28]
 80020c4:	f003 0307 	and.w	r3, r3, #7
 80020c8:	009b      	lsls	r3, r3, #2
 80020ca:	220f      	movs	r2, #15
 80020cc:	fa02 f303 	lsl.w	r3, r2, r3
 80020d0:	43db      	mvns	r3, r3
 80020d2:	69ba      	ldr	r2, [r7, #24]
 80020d4:	4013      	ands	r3, r2
 80020d6:	61bb      	str	r3, [r7, #24]
        temp |= ((uint32_t)(GPIO_Init->Alternate) << (((uint32_t)position & 0x07U) * 4U));
 80020d8:	683b      	ldr	r3, [r7, #0]
 80020da:	691a      	ldr	r2, [r3, #16]
 80020dc:	69fb      	ldr	r3, [r7, #28]
 80020de:	f003 0307 	and.w	r3, r3, #7
 80020e2:	009b      	lsls	r3, r3, #2
 80020e4:	fa02 f303 	lsl.w	r3, r2, r3
 80020e8:	69ba      	ldr	r2, [r7, #24]
 80020ea:	4313      	orrs	r3, r2
 80020ec:	61bb      	str	r3, [r7, #24]
        GPIOx->AFR[position >> 3U] = temp;
 80020ee:	69fb      	ldr	r3, [r7, #28]
 80020f0:	08da      	lsrs	r2, r3, #3
 80020f2:	687b      	ldr	r3, [r7, #4]
 80020f4:	3208      	adds	r2, #8
 80020f6:	69b9      	ldr	r1, [r7, #24]
 80020f8:	f843 1022 	str.w	r1, [r3, r2, lsl #2]
      }

      /* Configure IO Direction mode (Input, Output, Alternate or Analog) */
      temp = GPIOx->MODER;
 80020fc:	687b      	ldr	r3, [r7, #4]
 80020fe:	681b      	ldr	r3, [r3, #0]
 8002100:	61bb      	str	r3, [r7, #24]
      temp &= ~(GPIO_MODER_MODER0 << (position * 2U));
 8002102:	69fb      	ldr	r3, [r7, #28]
 8002104:	005b      	lsls	r3, r3, #1
 8002106:	2203      	movs	r2, #3
 8002108:	fa02 f303 	lsl.w	r3, r2, r3
 800210c:	43db      	mvns	r3, r3
 800210e:	69ba      	ldr	r2, [r7, #24]
 8002110:	4013      	ands	r3, r2
 8002112:	61bb      	str	r3, [r7, #24]
      temp |= ((GPIO_Init->Mode & GPIO_MODE) << (position * 2U));
 8002114:	683b      	ldr	r3, [r7, #0]
 8002116:	685b      	ldr	r3, [r3, #4]
 8002118:	f003 0203 	and.w	r2, r3, #3
 800211c:	69fb      	ldr	r3, [r7, #28]
 800211e:	005b      	lsls	r3, r3, #1
 8002120:	fa02 f303 	lsl.w	r3, r2, r3
 8002124:	69ba      	ldr	r2, [r7, #24]
 8002126:	4313      	orrs	r3, r2
 8002128:	61bb      	str	r3, [r7, #24]
      GPIOx->MODER = temp;
 800212a:	687b      	ldr	r3, [r7, #4]
 800212c:	69ba      	ldr	r2, [r7, #24]
 800212e:	601a      	str	r2, [r3, #0]

      /*--------------------- EXTI Mode Configuration ------------------------*/
      /* Configure the External Interrupt or event for the current IO */
      if((GPIO_Init->Mode & EXTI_MODE) != 0x00U)
 8002130:	683b      	ldr	r3, [r7, #0]
 8002132:	685b      	ldr	r3, [r3, #4]
 8002134:	f403 3340 	and.w	r3, r3, #196608	; 0x30000
 8002138:	2b00      	cmp	r3, #0
 800213a:	f000 80c0 	beq.w	80022be <HAL_GPIO_Init+0x306>
      {
        /* Enable SYSCFG Clock */
        __HAL_RCC_SYSCFG_CLK_ENABLE();
 800213e:	2300      	movs	r3, #0
 8002140:	60fb      	str	r3, [r7, #12]
 8002142:	4b66      	ldr	r3, [pc, #408]	; (80022dc <HAL_GPIO_Init+0x324>)
 8002144:	6c5b      	ldr	r3, [r3, #68]	; 0x44
 8002146:	4a65      	ldr	r2, [pc, #404]	; (80022dc <HAL_GPIO_Init+0x324>)
 8002148:	f443 4380 	orr.w	r3, r3, #16384	; 0x4000
 800214c:	6453      	str	r3, [r2, #68]	; 0x44
 800214e:	4b63      	ldr	r3, [pc, #396]	; (80022dc <HAL_GPIO_Init+0x324>)
 8002150:	6c5b      	ldr	r3, [r3, #68]	; 0x44
 8002152:	f403 4380 	and.w	r3, r3, #16384	; 0x4000
 8002156:	60fb      	str	r3, [r7, #12]
 8002158:	68fb      	ldr	r3, [r7, #12]

        temp = SYSCFG->EXTICR[position >> 2U];
 800215a:	4a61      	ldr	r2, [pc, #388]	; (80022e0 <HAL_GPIO_Init+0x328>)
 800215c:	69fb      	ldr	r3, [r7, #28]
 800215e:	089b      	lsrs	r3, r3, #2
 8002160:	3302      	adds	r3, #2
 8002162:	f852 3023 	ldr.w	r3, [r2, r3, lsl #2]
 8002166:	61bb      	str	r3, [r7, #24]
        temp &= ~(0x0FU << (4U * (position & 0x03U)));
 8002168:	69fb      	ldr	r3, [r7, #28]
 800216a:	f003 0303 	and.w	r3, r3, #3
 800216e:	009b      	lsls	r3, r3, #2
 8002170:	220f      	movs	r2, #15
 8002172:	fa02 f303 	lsl.w	r3, r2, r3
 8002176:	43db      	mvns	r3, r3
 8002178:	69ba      	ldr	r2, [r7, #24]
 800217a:	4013      	ands	r3, r2
 800217c:	61bb      	str	r3, [r7, #24]
        temp |= ((uint32_t)(GPIO_GET_INDEX(GPIOx)) << (4U * (position & 0x03U)));
 800217e:	687b      	ldr	r3, [r7, #4]
 8002180:	4a58      	ldr	r2, [pc, #352]	; (80022e4 <HAL_GPIO_Init+0x32c>)
 8002182:	4293      	cmp	r3, r2
 8002184:	d037      	beq.n	80021f6 <HAL_GPIO_Init+0x23e>
 8002186:	687b      	ldr	r3, [r7, #4]
 8002188:	4a57      	ldr	r2, [pc, #348]	; (80022e8 <HAL_GPIO_Init+0x330>)
 800218a:	4293      	cmp	r3, r2
 800218c:	d031      	beq.n	80021f2 <HAL_GPIO_Init+0x23a>
 800218e:	687b      	ldr	r3, [r7, #4]
 8002190:	4a56      	ldr	r2, [pc, #344]	; (80022ec <HAL_GPIO_Init+0x334>)
 8002192:	4293      	cmp	r3, r2
 8002194:	d02b      	beq.n	80021ee <HAL_GPIO_Init+0x236>
 8002196:	687b      	ldr	r3, [r7, #4]
 8002198:	4a55      	ldr	r2, [pc, #340]	; (80022f0 <HAL_GPIO_Init+0x338>)
 800219a:	4293      	cmp	r3, r2
 800219c:	d025      	beq.n	80021ea <HAL_GPIO_Init+0x232>
 800219e:	687b      	ldr	r3, [r7, #4]
 80021a0:	4a54      	ldr	r2, [pc, #336]	; (80022f4 <HAL_GPIO_Init+0x33c>)
 80021a2:	4293      	cmp	r3, r2
 80021a4:	d01f      	beq.n	80021e6 <HAL_GPIO_Init+0x22e>
 80021a6:	687b      	ldr	r3, [r7, #4]
 80021a8:	4a53      	ldr	r2, [pc, #332]	; (80022f8 <HAL_GPIO_Init+0x340>)
 80021aa:	4293      	cmp	r3, r2
 80021ac:	d019      	beq.n	80021e2 <HAL_GPIO_Init+0x22a>
 80021ae:	687b      	ldr	r3, [r7, #4]
 80021b0:	4a52      	ldr	r2, [pc, #328]	; (80022fc <HAL_GPIO_Init+0x344>)
 80021b2:	4293      	cmp	r3, r2
 80021b4:	d013      	beq.n	80021de <HAL_GPIO_Init+0x226>
 80021b6:	687b      	ldr	r3, [r7, #4]
 80021b8:	4a51      	ldr	r2, [pc, #324]	; (8002300 <HAL_GPIO_Init+0x348>)
 80021ba:	4293      	cmp	r3, r2
 80021bc:	d00d      	beq.n	80021da <HAL_GPIO_Init+0x222>
 80021be:	687b      	ldr	r3, [r7, #4]
 80021c0:	4a50      	ldr	r2, [pc, #320]	; (8002304 <HAL_GPIO_Init+0x34c>)
 80021c2:	4293      	cmp	r3, r2
 80021c4:	d007      	beq.n	80021d6 <HAL_GPIO_Init+0x21e>
 80021c6:	687b      	ldr	r3, [r7, #4]
 80021c8:	4a4f      	ldr	r2, [pc, #316]	; (8002308 <HAL_GPIO_Init+0x350>)
 80021ca:	4293      	cmp	r3, r2
 80021cc:	d101      	bne.n	80021d2 <HAL_GPIO_Init+0x21a>
 80021ce:	2309      	movs	r3, #9
 80021d0:	e012      	b.n	80021f8 <HAL_GPIO_Init+0x240>
 80021d2:	230a      	movs	r3, #10
 80021d4:	e010      	b.n	80021f8 <HAL_GPIO_Init+0x240>
 80021d6:	2308      	movs	r3, #8
 80021d8:	e00e      	b.n	80021f8 <HAL_GPIO_Init+0x240>
 80021da:	2307      	movs	r3, #7
 80021dc:	e00c      	b.n	80021f8 <HAL_GPIO_Init+0x240>
 80021de:	2306      	movs	r3, #6
 80021e0:	e00a      	b.n	80021f8 <HAL_GPIO_Init+0x240>
 80021e2:	2305      	movs	r3, #5
 80021e4:	e008      	b.n	80021f8 <HAL_GPIO_Init+0x240>
 80021e6:	2304      	movs	r3, #4
 80021e8:	e006      	b.n	80021f8 <HAL_GPIO_Init+0x240>
 80021ea:	2303      	movs	r3, #3
 80021ec:	e004      	b.n	80021f8 <HAL_GPIO_Init+0x240>
 80021ee:	2302      	movs	r3, #2
 80021f0:	e002      	b.n	80021f8 <HAL_GPIO_Init+0x240>
 80021f2:	2301      	movs	r3, #1
 80021f4:	e000      	b.n	80021f8 <HAL_GPIO_Init+0x240>
 80021f6:	2300      	movs	r3, #0
 80021f8:	69fa      	ldr	r2, [r7, #28]
 80021fa:	f002 0203 	and.w	r2, r2, #3
 80021fe:	0092      	lsls	r2, r2, #2
 8002200:	4093      	lsls	r3, r2
 8002202:	69ba      	ldr	r2, [r7, #24]
 8002204:	4313      	orrs	r3, r2
 8002206:	61bb      	str	r3, [r7, #24]
        SYSCFG->EXTICR[position >> 2U] = temp;
 8002208:	4935      	ldr	r1, [pc, #212]	; (80022e0 <HAL_GPIO_Init+0x328>)
 800220a:	69fb      	ldr	r3, [r7, #28]
 800220c:	089b      	lsrs	r3, r3, #2
 800220e:	3302      	adds	r3, #2
 8002210:	69ba      	ldr	r2, [r7, #24]
 8002212:	f841 2023 	str.w	r2, [r1, r3, lsl #2]

        /* Clear Rising Falling edge configuration */
        temp = EXTI->RTSR;
 8002216:	4b3d      	ldr	r3, [pc, #244]	; (800230c <HAL_GPIO_Init+0x354>)
 8002218:	689b      	ldr	r3, [r3, #8]
 800221a:	61bb      	str	r3, [r7, #24]
        temp &= ~((uint32_t)iocurrent);
 800221c:	693b      	ldr	r3, [r7, #16]
 800221e:	43db      	mvns	r3, r3
 8002220:	69ba      	ldr	r2, [r7, #24]
 8002222:	4013      	ands	r3, r2
 8002224:	61bb      	str	r3, [r7, #24]
        if((GPIO_Init->Mode & TRIGGER_RISING) != 0x00U)
 8002226:	683b      	ldr	r3, [r7, #0]
 8002228:	685b      	ldr	r3, [r3, #4]
 800222a:	f403 1380 	and.w	r3, r3, #1048576	; 0x100000
 800222e:	2b00      	cmp	r3, #0
 8002230:	d003      	beq.n	800223a <HAL_GPIO_Init+0x282>
        {
          temp |= iocurrent;
 8002232:	69ba      	ldr	r2, [r7, #24]
 8002234:	693b      	ldr	r3, [r7, #16]
 8002236:	4313      	orrs	r3, r2
 8002238:	61bb      	str	r3, [r7, #24]
        }
        EXTI->RTSR = temp;
 800223a:	4a34      	ldr	r2, [pc, #208]	; (800230c <HAL_GPIO_Init+0x354>)
 800223c:	69bb      	ldr	r3, [r7, #24]
 800223e:	6093      	str	r3, [r2, #8]

        temp = EXTI->FTSR;
 8002240:	4b32      	ldr	r3, [pc, #200]	; (800230c <HAL_GPIO_Init+0x354>)
 8002242:	68db      	ldr	r3, [r3, #12]
 8002244:	61bb      	str	r3, [r7, #24]
        temp &= ~((uint32_t)iocurrent);
 8002246:	693b      	ldr	r3, [r7, #16]
 8002248:	43db      	mvns	r3, r3
 800224a:	69ba      	ldr	r2, [r7, #24]
 800224c:	4013      	ands	r3, r2
 800224e:	61bb      	str	r3, [r7, #24]
        if((GPIO_Init->Mode & TRIGGER_FALLING) != 0x00U)
 8002250:	683b      	ldr	r3, [r7, #0]
 8002252:	685b      	ldr	r3, [r3, #4]
 8002254:	f403 1300 	and.w	r3, r3, #2097152	; 0x200000
 8002258:	2b00      	cmp	r3, #0
 800225a:	d003      	beq.n	8002264 <HAL_GPIO_Init+0x2ac>
        {
          temp |= iocurrent;
 800225c:	69ba      	ldr	r2, [r7, #24]
 800225e:	693b      	ldr	r3, [r7, #16]
 8002260:	4313      	orrs	r3, r2
 8002262:	61bb      	str	r3, [r7, #24]
        }
        EXTI->FTSR = temp;
 8002264:	4a29      	ldr	r2, [pc, #164]	; (800230c <HAL_GPIO_Init+0x354>)
 8002266:	69bb      	ldr	r3, [r7, #24]
 8002268:	60d3      	str	r3, [r2, #12]

        temp = EXTI->EMR;
 800226a:	4b28      	ldr	r3, [pc, #160]	; (800230c <HAL_GPIO_Init+0x354>)
 800226c:	685b      	ldr	r3, [r3, #4]
 800226e:	61bb      	str	r3, [r7, #24]
        temp &= ~((uint32_t)iocurrent);
 8002270:	693b      	ldr	r3, [r7, #16]
 8002272:	43db      	mvns	r3, r3
 8002274:	69ba      	ldr	r2, [r7, #24]
 8002276:	4013      	ands	r3, r2
 8002278:	61bb      	str	r3, [r7, #24]
        if((GPIO_Init->Mode & EXTI_EVT) != 0x00U)
 800227a:	683b      	ldr	r3, [r7, #0]
 800227c:	685b      	ldr	r3, [r3, #4]
 800227e:	f403 3300 	and.w	r3, r3, #131072	; 0x20000
 8002282:	2b00      	cmp	r3, #0
 8002284:	d003      	beq.n	800228e <HAL_GPIO_Init+0x2d6>
        {
          temp |= iocurrent;
 8002286:	69ba      	ldr	r2, [r7, #24]
 8002288:	693b      	ldr	r3, [r7, #16]
 800228a:	4313      	orrs	r3, r2
 800228c:	61bb      	str	r3, [r7, #24]
        }
        EXTI->EMR = temp;
 800228e:	4a1f      	ldr	r2, [pc, #124]	; (800230c <HAL_GPIO_Init+0x354>)
 8002290:	69bb      	ldr	r3, [r7, #24]
 8002292:	6053      	str	r3, [r2, #4]

        /* Clear EXTI line configuration */
        temp = EXTI->IMR;
 8002294:	4b1d      	ldr	r3, [pc, #116]	; (800230c <HAL_GPIO_Init+0x354>)
 8002296:	681b      	ldr	r3, [r3, #0]
 8002298:	61bb      	str	r3, [r7, #24]
        temp &= ~((uint32_t)iocurrent);
 800229a:	693b      	ldr	r3, [r7, #16]
 800229c:	43db      	mvns	r3, r3
 800229e:	69ba      	ldr	r2, [r7, #24]
 80022a0:	4013      	ands	r3, r2
 80022a2:	61bb      	str	r3, [r7, #24]
        if((GPIO_Init->Mode & EXTI_IT) != 0x00U)
 80022a4:	683b      	ldr	r3, [r7, #0]
 80022a6:	685b      	ldr	r3, [r3, #4]
 80022a8:	f403 3380 	and.w	r3, r3, #65536	; 0x10000
 80022ac:	2b00      	cmp	r3, #0
 80022ae:	d003      	beq.n	80022b8 <HAL_GPIO_Init+0x300>
        {
          temp |= iocurrent;
 80022b0:	69ba      	ldr	r2, [r7, #24]
 80022b2:	693b      	ldr	r3, [r7, #16]
 80022b4:	4313      	orrs	r3, r2
 80022b6:	61bb      	str	r3, [r7, #24]
        }
        EXTI->IMR = temp;
 80022b8:	4a14      	ldr	r2, [pc, #80]	; (800230c <HAL_GPIO_Init+0x354>)
 80022ba:	69bb      	ldr	r3, [r7, #24]
 80022bc:	6013      	str	r3, [r2, #0]
  for(position = 0U; position < GPIO_NUMBER; position++)
 80022be:	69fb      	ldr	r3, [r7, #28]
 80022c0:	3301      	adds	r3, #1
 80022c2:	61fb      	str	r3, [r7, #28]
 80022c4:	69fb      	ldr	r3, [r7, #28]
 80022c6:	2b0f      	cmp	r3, #15
 80022c8:	f67f ae84 	bls.w	8001fd4 <HAL_GPIO_Init+0x1c>
      }
    }
  }
}
 80022cc:	bf00      	nop
 80022ce:	bf00      	nop
 80022d0:	3724      	adds	r7, #36	; 0x24
 80022d2:	46bd      	mov	sp, r7
 80022d4:	f85d 7b04 	ldr.w	r7, [sp], #4
 80022d8:	4770      	bx	lr
 80022da:	bf00      	nop
 80022dc:	40023800 	.word	0x40023800
 80022e0:	40013800 	.word	0x40013800
 80022e4:	40020000 	.word	0x40020000
 80022e8:	40020400 	.word	0x40020400
 80022ec:	40020800 	.word	0x40020800
 80022f0:	40020c00 	.word	0x40020c00
 80022f4:	40021000 	.word	0x40021000
 80022f8:	40021400 	.word	0x40021400
 80022fc:	40021800 	.word	0x40021800
 8002300:	40021c00 	.word	0x40021c00
 8002304:	40022000 	.word	0x40022000
 8002308:	40022400 	.word	0x40022400
 800230c:	40013c00 	.word	0x40013c00

08002310 <HAL_GPIO_ReadPin>:
  * @param  GPIO_Pin specifies the port bit to read.
  *         This parameter can be GPIO_PIN_x where x can be (0..15).
  * @retval The input port pin value.
  */
GPIO_PinState HAL_GPIO_ReadPin(GPIO_TypeDef* GPIOx, uint16_t GPIO_Pin)
{
 8002310:	b480      	push	{r7}
 8002312:	b085      	sub	sp, #20
 8002314:	af00      	add	r7, sp, #0
 8002316:	6078      	str	r0, [r7, #4]
 8002318:	460b      	mov	r3, r1
 800231a:	807b      	strh	r3, [r7, #2]
  GPIO_PinState bitstatus;

  /* Check the parameters */
  assert_param(IS_GPIO_PIN(GPIO_Pin));

  if((GPIOx->IDR & GPIO_Pin) != (uint32_t)GPIO_PIN_RESET)
 800231c:	687b      	ldr	r3, [r7, #4]
 800231e:	691a      	ldr	r2, [r3, #16]
 8002320:	887b      	ldrh	r3, [r7, #2]
 8002322:	4013      	ands	r3, r2
 8002324:	2b00      	cmp	r3, #0
 8002326:	d002      	beq.n	800232e <HAL_GPIO_ReadPin+0x1e>
  {
    bitstatus = GPIO_PIN_SET;
 8002328:	2301      	movs	r3, #1
 800232a:	73fb      	strb	r3, [r7, #15]
 800232c:	e001      	b.n	8002332 <HAL_GPIO_ReadPin+0x22>
  }
  else
  {
    bitstatus = GPIO_PIN_RESET;
 800232e:	2300      	movs	r3, #0
 8002330:	73fb      	strb	r3, [r7, #15]
  }
  return bitstatus;
 8002332:	7bfb      	ldrb	r3, [r7, #15]
}
 8002334:	4618      	mov	r0, r3
 8002336:	3714      	adds	r7, #20
 8002338:	46bd      	mov	sp, r7
 800233a:	f85d 7b04 	ldr.w	r7, [sp], #4
 800233e:	4770      	bx	lr

08002340 <HAL_GPIO_WritePin>:
  *            @arg GPIO_PIN_RESET: to clear the port pin
  *            @arg GPIO_PIN_SET: to set the port pin
  * @retval None
  */
void HAL_GPIO_WritePin(GPIO_TypeDef* GPIOx, uint16_t GPIO_Pin, GPIO_PinState PinState)
{
 8002340:	b480      	push	{r7}
 8002342:	b083      	sub	sp, #12
 8002344:	af00      	add	r7, sp, #0
 8002346:	6078      	str	r0, [r7, #4]
 8002348:	460b      	mov	r3, r1
 800234a:	807b      	strh	r3, [r7, #2]
 800234c:	4613      	mov	r3, r2
 800234e:	707b      	strb	r3, [r7, #1]
  /* Check the parameters */
  assert_param(IS_GPIO_PIN(GPIO_Pin));
  assert_param(IS_GPIO_PIN_ACTION(PinState));

  if(PinState != GPIO_PIN_RESET)
 8002350:	787b      	ldrb	r3, [r7, #1]
 8002352:	2b00      	cmp	r3, #0
 8002354:	d003      	beq.n	800235e <HAL_GPIO_WritePin+0x1e>
  {
    GPIOx->BSRR = GPIO_Pin;
 8002356:	887a      	ldrh	r2, [r7, #2]
 8002358:	687b      	ldr	r3, [r7, #4]
 800235a:	619a      	str	r2, [r3, #24]
  }
  else
  {
    GPIOx->BSRR = (uint32_t)GPIO_Pin << 16U;
  }
}
 800235c:	e003      	b.n	8002366 <HAL_GPIO_WritePin+0x26>
    GPIOx->BSRR = (uint32_t)GPIO_Pin << 16U;
 800235e:	887b      	ldrh	r3, [r7, #2]
 8002360:	041a      	lsls	r2, r3, #16
 8002362:	687b      	ldr	r3, [r7, #4]
 8002364:	619a      	str	r2, [r3, #24]
}
 8002366:	bf00      	nop
 8002368:	370c      	adds	r7, #12
 800236a:	46bd      	mov	sp, r7
 800236c:	f85d 7b04 	ldr.w	r7, [sp], #4
 8002370:	4770      	bx	lr

08002372 <HAL_GPIO_TogglePin>:
  *                      x can be (A..I) to select the GPIO peripheral for STM32F40XX and STM32F427X devices.
  * @param  GPIO_Pin Specifies the pins to be toggled.
  * @retval None
  */
void HAL_GPIO_TogglePin(GPIO_TypeDef* GPIOx, uint16_t GPIO_Pin)
{
 8002372:	b480      	push	{r7}
 8002374:	b085      	sub	sp, #20
 8002376:	af00      	add	r7, sp, #0
 8002378:	6078      	str	r0, [r7, #4]
 800237a:	460b      	mov	r3, r1
 800237c:	807b      	strh	r3, [r7, #2]

  /* Check the parameters */
  assert_param(IS_GPIO_PIN(GPIO_Pin));

  /* get current Output Data Register value */
  odr = GPIOx->ODR;
 800237e:	687b      	ldr	r3, [r7, #4]
 8002380:	695b      	ldr	r3, [r3, #20]
 8002382:	60fb      	str	r3, [r7, #12]

  /* Set selected pins that were at low level, and reset ones that were high */
  GPIOx->BSRR = ((odr & GPIO_Pin) << GPIO_NUMBER) | (~odr & GPIO_Pin);
 8002384:	887a      	ldrh	r2, [r7, #2]
 8002386:	68fb      	ldr	r3, [r7, #12]
 8002388:	4013      	ands	r3, r2
 800238a:	041a      	lsls	r2, r3, #16
 800238c:	68fb      	ldr	r3, [r7, #12]
 800238e:	43d9      	mvns	r1, r3
 8002390:	887b      	ldrh	r3, [r7, #2]
 8002392:	400b      	ands	r3, r1
 8002394:	431a      	orrs	r2, r3
 8002396:	687b      	ldr	r3, [r7, #4]
 8002398:	619a      	str	r2, [r3, #24]
}
 800239a:	bf00      	nop
 800239c:	3714      	adds	r7, #20
 800239e:	46bd      	mov	sp, r7
 80023a0:	f85d 7b04 	ldr.w	r7, [sp], #4
 80023a4:	4770      	bx	lr
	...

080023a8 <HAL_I2C_Init>:
  * @param  hi2c Pointer to a I2C_HandleTypeDef structure that contains
  *                the configuration information for the specified I2C.
  * @retval HAL status
  */
HAL_StatusTypeDef HAL_I2C_Init(I2C_HandleTypeDef *hi2c)
{
 80023a8:	b580      	push	{r7, lr}
 80023aa:	b084      	sub	sp, #16
 80023ac:	af00      	add	r7, sp, #0
 80023ae:	6078      	str	r0, [r7, #4]
  uint32_t freqrange;
  uint32_t pclk1;

  /* Check the I2C handle allocation */
  if (hi2c == NULL)
 80023b0:	687b      	ldr	r3, [r7, #4]
 80023b2:	2b00      	cmp	r3, #0
 80023b4:	d101      	bne.n	80023ba <HAL_I2C_Init+0x12>
  {
    return HAL_ERROR;
 80023b6:	2301      	movs	r3, #1
 80023b8:	e12b      	b.n	8002612 <HAL_I2C_Init+0x26a>
  assert_param(IS_I2C_DUAL_ADDRESS(hi2c->Init.DualAddressMode));
  assert_param(IS_I2C_OWN_ADDRESS2(hi2c->Init.OwnAddress2));
  assert_param(IS_I2C_GENERAL_CALL(hi2c->Init.GeneralCallMode));
  assert_param(IS_I2C_NO_STRETCH(hi2c->Init.NoStretchMode));

  if (hi2c->State == HAL_I2C_STATE_RESET)
 80023ba:	687b      	ldr	r3, [r7, #4]
 80023bc:	f893 303d 	ldrb.w	r3, [r3, #61]	; 0x3d
 80023c0:	b2db      	uxtb	r3, r3
 80023c2:	2b00      	cmp	r3, #0
 80023c4:	d106      	bne.n	80023d4 <HAL_I2C_Init+0x2c>
  {
    /* Allocate lock resource and initialize it */
    hi2c->Lock = HAL_UNLOCKED;
 80023c6:	687b      	ldr	r3, [r7, #4]
 80023c8:	2200      	movs	r2, #0
 80023ca:	f883 203c 	strb.w	r2, [r3, #60]	; 0x3c

    /* Init the low level hardware : GPIO, CLOCK, NVIC */
    hi2c->MspInitCallback(hi2c);
#else
    /* Init the low level hardware : GPIO, CLOCK, NVIC */
    HAL_I2C_MspInit(hi2c);
 80023ce:	6878      	ldr	r0, [r7, #4]
 80023d0:	f7ff f85c 	bl	800148c <HAL_I2C_MspInit>
#endif /* USE_HAL_I2C_REGISTER_CALLBACKS */
  }

  hi2c->State = HAL_I2C_STATE_BUSY;
 80023d4:	687b      	ldr	r3, [r7, #4]
 80023d6:	2224      	movs	r2, #36	; 0x24
 80023d8:	f883 203d 	strb.w	r2, [r3, #61]	; 0x3d

  /* Disable the selected I2C peripheral */
  __HAL_I2C_DISABLE(hi2c);
 80023dc:	687b      	ldr	r3, [r7, #4]
 80023de:	681b      	ldr	r3, [r3, #0]
 80023e0:	681a      	ldr	r2, [r3, #0]
 80023e2:	687b      	ldr	r3, [r7, #4]
 80023e4:	681b      	ldr	r3, [r3, #0]
 80023e6:	f022 0201 	bic.w	r2, r2, #1
 80023ea:	601a      	str	r2, [r3, #0]

  /*Reset I2C*/
  hi2c->Instance->CR1 |= I2C_CR1_SWRST;
 80023ec:	687b      	ldr	r3, [r7, #4]
 80023ee:	681b      	ldr	r3, [r3, #0]
 80023f0:	681a      	ldr	r2, [r3, #0]
 80023f2:	687b      	ldr	r3, [r7, #4]
 80023f4:	681b      	ldr	r3, [r3, #0]
 80023f6:	f442 4200 	orr.w	r2, r2, #32768	; 0x8000
 80023fa:	601a      	str	r2, [r3, #0]
  hi2c->Instance->CR1 &= ~I2C_CR1_SWRST;
 80023fc:	687b      	ldr	r3, [r7, #4]
 80023fe:	681b      	ldr	r3, [r3, #0]
 8002400:	681a      	ldr	r2, [r3, #0]
 8002402:	687b      	ldr	r3, [r7, #4]
 8002404:	681b      	ldr	r3, [r3, #0]
 8002406:	f422 4200 	bic.w	r2, r2, #32768	; 0x8000
 800240a:	601a      	str	r2, [r3, #0]

  /* Get PCLK1 frequency */
  pclk1 = HAL_RCC_GetPCLK1Freq();
 800240c:	f001 fc72 	bl	8003cf4 <HAL_RCC_GetPCLK1Freq>
 8002410:	60f8      	str	r0, [r7, #12]

  /* Check the minimum allowed PCLK1 frequency */
  if (I2C_MIN_PCLK_FREQ(pclk1, hi2c->Init.ClockSpeed) == 1U)
 8002412:	687b      	ldr	r3, [r7, #4]
 8002414:	685b      	ldr	r3, [r3, #4]
 8002416:	4a81      	ldr	r2, [pc, #516]	; (800261c <HAL_I2C_Init+0x274>)
 8002418:	4293      	cmp	r3, r2
 800241a:	d807      	bhi.n	800242c <HAL_I2C_Init+0x84>
 800241c:	68fb      	ldr	r3, [r7, #12]
 800241e:	4a80      	ldr	r2, [pc, #512]	; (8002620 <HAL_I2C_Init+0x278>)
 8002420:	4293      	cmp	r3, r2
 8002422:	bf94      	ite	ls
 8002424:	2301      	movls	r3, #1
 8002426:	2300      	movhi	r3, #0
 8002428:	b2db      	uxtb	r3, r3
 800242a:	e006      	b.n	800243a <HAL_I2C_Init+0x92>
 800242c:	68fb      	ldr	r3, [r7, #12]
 800242e:	4a7d      	ldr	r2, [pc, #500]	; (8002624 <HAL_I2C_Init+0x27c>)
 8002430:	4293      	cmp	r3, r2
 8002432:	bf94      	ite	ls
 8002434:	2301      	movls	r3, #1
 8002436:	2300      	movhi	r3, #0
 8002438:	b2db      	uxtb	r3, r3
 800243a:	2b00      	cmp	r3, #0
 800243c:	d001      	beq.n	8002442 <HAL_I2C_Init+0x9a>
  {
    return HAL_ERROR;
 800243e:	2301      	movs	r3, #1
 8002440:	e0e7      	b.n	8002612 <HAL_I2C_Init+0x26a>
  }

  /* Calculate frequency range */
  freqrange = I2C_FREQRANGE(pclk1);
 8002442:	68fb      	ldr	r3, [r7, #12]
 8002444:	4a78      	ldr	r2, [pc, #480]	; (8002628 <HAL_I2C_Init+0x280>)
 8002446:	fba2 2303 	umull	r2, r3, r2, r3
 800244a:	0c9b      	lsrs	r3, r3, #18
 800244c:	60bb      	str	r3, [r7, #8]

  /*---------------------------- I2Cx CR2 Configuration ----------------------*/
  /* Configure I2Cx: Frequency range */
  MODIFY_REG(hi2c->Instance->CR2, I2C_CR2_FREQ, freqrange);
 800244e:	687b      	ldr	r3, [r7, #4]
 8002450:	681b      	ldr	r3, [r3, #0]
 8002452:	685b      	ldr	r3, [r3, #4]
 8002454:	f023 013f 	bic.w	r1, r3, #63	; 0x3f
 8002458:	687b      	ldr	r3, [r7, #4]
 800245a:	681b      	ldr	r3, [r3, #0]
 800245c:	68ba      	ldr	r2, [r7, #8]
 800245e:	430a      	orrs	r2, r1
 8002460:	605a      	str	r2, [r3, #4]

  /*---------------------------- I2Cx TRISE Configuration --------------------*/
  /* Configure I2Cx: Rise Time */
  MODIFY_REG(hi2c->Instance->TRISE, I2C_TRISE_TRISE, I2C_RISE_TIME(freqrange, hi2c->Init.ClockSpeed));
 8002462:	687b      	ldr	r3, [r7, #4]
 8002464:	681b      	ldr	r3, [r3, #0]
 8002466:	6a1b      	ldr	r3, [r3, #32]
 8002468:	f023 013f 	bic.w	r1, r3, #63	; 0x3f
 800246c:	687b      	ldr	r3, [r7, #4]
 800246e:	685b      	ldr	r3, [r3, #4]
 8002470:	4a6a      	ldr	r2, [pc, #424]	; (800261c <HAL_I2C_Init+0x274>)
 8002472:	4293      	cmp	r3, r2
 8002474:	d802      	bhi.n	800247c <HAL_I2C_Init+0xd4>
 8002476:	68bb      	ldr	r3, [r7, #8]
 8002478:	3301      	adds	r3, #1
 800247a:	e009      	b.n	8002490 <HAL_I2C_Init+0xe8>
 800247c:	68bb      	ldr	r3, [r7, #8]
 800247e:	f44f 7296 	mov.w	r2, #300	; 0x12c
 8002482:	fb02 f303 	mul.w	r3, r2, r3
 8002486:	4a69      	ldr	r2, [pc, #420]	; (800262c <HAL_I2C_Init+0x284>)
 8002488:	fba2 2303 	umull	r2, r3, r2, r3
 800248c:	099b      	lsrs	r3, r3, #6
 800248e:	3301      	adds	r3, #1
 8002490:	687a      	ldr	r2, [r7, #4]
 8002492:	6812      	ldr	r2, [r2, #0]
 8002494:	430b      	orrs	r3, r1
 8002496:	6213      	str	r3, [r2, #32]

  /*---------------------------- I2Cx CCR Configuration ----------------------*/
  /* Configure I2Cx: Speed */
  MODIFY_REG(hi2c->Instance->CCR, (I2C_CCR_FS | I2C_CCR_DUTY | I2C_CCR_CCR), I2C_SPEED(pclk1, hi2c->Init.ClockSpeed, hi2c->Init.DutyCycle));
 8002498:	687b      	ldr	r3, [r7, #4]
 800249a:	681b      	ldr	r3, [r3, #0]
 800249c:	69db      	ldr	r3, [r3, #28]
 800249e:	f423 424f 	bic.w	r2, r3, #52992	; 0xcf00
 80024a2:	f022 02ff 	bic.w	r2, r2, #255	; 0xff
 80024a6:	687b      	ldr	r3, [r7, #4]
 80024a8:	685b      	ldr	r3, [r3, #4]
 80024aa:	495c      	ldr	r1, [pc, #368]	; (800261c <HAL_I2C_Init+0x274>)
 80024ac:	428b      	cmp	r3, r1
 80024ae:	d819      	bhi.n	80024e4 <HAL_I2C_Init+0x13c>
 80024b0:	68fb      	ldr	r3, [r7, #12]
 80024b2:	1e59      	subs	r1, r3, #1
 80024b4:	687b      	ldr	r3, [r7, #4]
 80024b6:	685b      	ldr	r3, [r3, #4]
 80024b8:	005b      	lsls	r3, r3, #1
 80024ba:	fbb1 f3f3 	udiv	r3, r1, r3
 80024be:	1c59      	adds	r1, r3, #1
 80024c0:	f640 73fc 	movw	r3, #4092	; 0xffc
 80024c4:	400b      	ands	r3, r1
 80024c6:	2b00      	cmp	r3, #0
 80024c8:	d00a      	beq.n	80024e0 <HAL_I2C_Init+0x138>
 80024ca:	68fb      	ldr	r3, [r7, #12]
 80024cc:	1e59      	subs	r1, r3, #1
 80024ce:	687b      	ldr	r3, [r7, #4]
 80024d0:	685b      	ldr	r3, [r3, #4]
 80024d2:	005b      	lsls	r3, r3, #1
 80024d4:	fbb1 f3f3 	udiv	r3, r1, r3
 80024d8:	3301      	adds	r3, #1
 80024da:	f3c3 030b 	ubfx	r3, r3, #0, #12
 80024de:	e051      	b.n	8002584 <HAL_I2C_Init+0x1dc>
 80024e0:	2304      	movs	r3, #4
 80024e2:	e04f      	b.n	8002584 <HAL_I2C_Init+0x1dc>
 80024e4:	687b      	ldr	r3, [r7, #4]
 80024e6:	689b      	ldr	r3, [r3, #8]
 80024e8:	2b00      	cmp	r3, #0
 80024ea:	d111      	bne.n	8002510 <HAL_I2C_Init+0x168>
 80024ec:	68fb      	ldr	r3, [r7, #12]
 80024ee:	1e58      	subs	r0, r3, #1
 80024f0:	687b      	ldr	r3, [r7, #4]
 80024f2:	6859      	ldr	r1, [r3, #4]
 80024f4:	460b      	mov	r3, r1
 80024f6:	005b      	lsls	r3, r3, #1
 80024f8:	440b      	add	r3, r1
 80024fa:	fbb0 f3f3 	udiv	r3, r0, r3
 80024fe:	3301      	adds	r3, #1
 8002500:	f3c3 030b 	ubfx	r3, r3, #0, #12
 8002504:	2b00      	cmp	r3, #0
 8002506:	bf0c      	ite	eq
 8002508:	2301      	moveq	r3, #1
 800250a:	2300      	movne	r3, #0
 800250c:	b2db      	uxtb	r3, r3
 800250e:	e012      	b.n	8002536 <HAL_I2C_Init+0x18e>
 8002510:	68fb      	ldr	r3, [r7, #12]
 8002512:	1e58      	subs	r0, r3, #1
 8002514:	687b      	ldr	r3, [r7, #4]
 8002516:	6859      	ldr	r1, [r3, #4]
 8002518:	460b      	mov	r3, r1
 800251a:	009b      	lsls	r3, r3, #2
 800251c:	440b      	add	r3, r1
 800251e:	0099      	lsls	r1, r3, #2
 8002520:	440b      	add	r3, r1
 8002522:	fbb0 f3f3 	udiv	r3, r0, r3
 8002526:	3301      	adds	r3, #1
 8002528:	f3c3 030b 	ubfx	r3, r3, #0, #12
 800252c:	2b00      	cmp	r3, #0
 800252e:	bf0c      	ite	eq
 8002530:	2301      	moveq	r3, #1
 8002532:	2300      	movne	r3, #0
 8002534:	b2db      	uxtb	r3, r3
 8002536:	2b00      	cmp	r3, #0
 8002538:	d001      	beq.n	800253e <HAL_I2C_Init+0x196>
 800253a:	2301      	movs	r3, #1
 800253c:	e022      	b.n	8002584 <HAL_I2C_Init+0x1dc>
 800253e:	687b      	ldr	r3, [r7, #4]
 8002540:	689b      	ldr	r3, [r3, #8]
 8002542:	2b00      	cmp	r3, #0
 8002544:	d10e      	bne.n	8002564 <HAL_I2C_Init+0x1bc>
 8002546:	68fb      	ldr	r3, [r7, #12]
 8002548:	1e58      	subs	r0, r3, #1
 800254a:	687b      	ldr	r3, [r7, #4]
 800254c:	6859      	ldr	r1, [r3, #4]
 800254e:	460b      	mov	r3, r1
 8002550:	005b      	lsls	r3, r3, #1
 8002552:	440b      	add	r3, r1
 8002554:	fbb0 f3f3 	udiv	r3, r0, r3
 8002558:	3301      	adds	r3, #1
 800255a:	f3c3 030b 	ubfx	r3, r3, #0, #12
 800255e:	f443 4300 	orr.w	r3, r3, #32768	; 0x8000
 8002562:	e00f      	b.n	8002584 <HAL_I2C_Init+0x1dc>
 8002564:	68fb      	ldr	r3, [r7, #12]
 8002566:	1e58      	subs	r0, r3, #1
 8002568:	687b      	ldr	r3, [r7, #4]
 800256a:	6859      	ldr	r1, [r3, #4]
 800256c:	460b      	mov	r3, r1
 800256e:	009b      	lsls	r3, r3, #2
 8002570:	440b      	add	r3, r1
 8002572:	0099      	lsls	r1, r3, #2
 8002574:	440b      	add	r3, r1
 8002576:	fbb0 f3f3 	udiv	r3, r0, r3
 800257a:	3301      	adds	r3, #1
 800257c:	f3c3 030b 	ubfx	r3, r3, #0, #12
 8002580:	f443 4340 	orr.w	r3, r3, #49152	; 0xc000
 8002584:	6879      	ldr	r1, [r7, #4]
 8002586:	6809      	ldr	r1, [r1, #0]
 8002588:	4313      	orrs	r3, r2
 800258a:	61cb      	str	r3, [r1, #28]

  /*---------------------------- I2Cx CR1 Configuration ----------------------*/
  /* Configure I2Cx: Generalcall and NoStretch mode */
  MODIFY_REG(hi2c->Instance->CR1, (I2C_CR1_ENGC | I2C_CR1_NOSTRETCH), (hi2c->Init.GeneralCallMode | hi2c->Init.NoStretchMode));
 800258c:	687b      	ldr	r3, [r7, #4]
 800258e:	681b      	ldr	r3, [r3, #0]
 8002590:	681b      	ldr	r3, [r3, #0]
 8002592:	f023 01c0 	bic.w	r1, r3, #192	; 0xc0
 8002596:	687b      	ldr	r3, [r7, #4]
 8002598:	69da      	ldr	r2, [r3, #28]
 800259a:	687b      	ldr	r3, [r7, #4]
 800259c:	6a1b      	ldr	r3, [r3, #32]
 800259e:	431a      	orrs	r2, r3
 80025a0:	687b      	ldr	r3, [r7, #4]
 80025a2:	681b      	ldr	r3, [r3, #0]
 80025a4:	430a      	orrs	r2, r1
 80025a6:	601a      	str	r2, [r3, #0]

  /*---------------------------- I2Cx OAR1 Configuration ---------------------*/
  /* Configure I2Cx: Own Address1 and addressing mode */
  MODIFY_REG(hi2c->Instance->OAR1, (I2C_OAR1_ADDMODE | I2C_OAR1_ADD8_9 | I2C_OAR1_ADD1_7 | I2C_OAR1_ADD0), (hi2c->Init.AddressingMode | hi2c->Init.OwnAddress1));
 80025a8:	687b      	ldr	r3, [r7, #4]
 80025aa:	681b      	ldr	r3, [r3, #0]
 80025ac:	689b      	ldr	r3, [r3, #8]
 80025ae:	f423 4303 	bic.w	r3, r3, #33536	; 0x8300
 80025b2:	f023 03ff 	bic.w	r3, r3, #255	; 0xff
 80025b6:	687a      	ldr	r2, [r7, #4]
 80025b8:	6911      	ldr	r1, [r2, #16]
 80025ba:	687a      	ldr	r2, [r7, #4]
 80025bc:	68d2      	ldr	r2, [r2, #12]
 80025be:	4311      	orrs	r1, r2
 80025c0:	687a      	ldr	r2, [r7, #4]
 80025c2:	6812      	ldr	r2, [r2, #0]
 80025c4:	430b      	orrs	r3, r1
 80025c6:	6093      	str	r3, [r2, #8]

  /*---------------------------- I2Cx OAR2 Configuration ---------------------*/
  /* Configure I2Cx: Dual mode and Own Address2 */
  MODIFY_REG(hi2c->Instance->OAR2, (I2C_OAR2_ENDUAL | I2C_OAR2_ADD2), (hi2c->Init.DualAddressMode | hi2c->Init.OwnAddress2));
 80025c8:	687b      	ldr	r3, [r7, #4]
 80025ca:	681b      	ldr	r3, [r3, #0]
 80025cc:	68db      	ldr	r3, [r3, #12]
 80025ce:	f023 01ff 	bic.w	r1, r3, #255	; 0xff
 80025d2:	687b      	ldr	r3, [r7, #4]
 80025d4:	695a      	ldr	r2, [r3, #20]
 80025d6:	687b      	ldr	r3, [r7, #4]
 80025d8:	699b      	ldr	r3, [r3, #24]
 80025da:	431a      	orrs	r2, r3
 80025dc:	687b      	ldr	r3, [r7, #4]
 80025de:	681b      	ldr	r3, [r3, #0]
 80025e0:	430a      	orrs	r2, r1
 80025e2:	60da      	str	r2, [r3, #12]

  /* Enable the selected I2C peripheral */
  __HAL_I2C_ENABLE(hi2c);
 80025e4:	687b      	ldr	r3, [r7, #4]
 80025e6:	681b      	ldr	r3, [r3, #0]
 80025e8:	681a      	ldr	r2, [r3, #0]
 80025ea:	687b      	ldr	r3, [r7, #4]
 80025ec:	681b      	ldr	r3, [r3, #0]
 80025ee:	f042 0201 	orr.w	r2, r2, #1
 80025f2:	601a      	str	r2, [r3, #0]

  hi2c->ErrorCode = HAL_I2C_ERROR_NONE;
 80025f4:	687b      	ldr	r3, [r7, #4]
 80025f6:	2200      	movs	r2, #0
 80025f8:	641a      	str	r2, [r3, #64]	; 0x40
  hi2c->State = HAL_I2C_STATE_READY;
 80025fa:	687b      	ldr	r3, [r7, #4]
 80025fc:	2220      	movs	r2, #32
 80025fe:	f883 203d 	strb.w	r2, [r3, #61]	; 0x3d
  hi2c->PreviousState = I2C_STATE_NONE;
 8002602:	687b      	ldr	r3, [r7, #4]
 8002604:	2200      	movs	r2, #0
 8002606:	631a      	str	r2, [r3, #48]	; 0x30
  hi2c->Mode = HAL_I2C_MODE_NONE;
 8002608:	687b      	ldr	r3, [r7, #4]
 800260a:	2200      	movs	r2, #0
 800260c:	f883 203e 	strb.w	r2, [r3, #62]	; 0x3e

  return HAL_OK;
 8002610:	2300      	movs	r3, #0
}
 8002612:	4618      	mov	r0, r3
 8002614:	3710      	adds	r7, #16
 8002616:	46bd      	mov	sp, r7
 8002618:	bd80      	pop	{r7, pc}
 800261a:	bf00      	nop
 800261c:	000186a0 	.word	0x000186a0
 8002620:	001e847f 	.word	0x001e847f
 8002624:	003d08ff 	.word	0x003d08ff
 8002628:	431bde83 	.word	0x431bde83
 800262c:	10624dd3 	.word	0x10624dd3

08002630 <HAL_I2C_Master_Transmit>:
  * @param  Size Amount of data to be sent
  * @param  Timeout Timeout duration
  * @retval HAL status
  */
HAL_StatusTypeDef HAL_I2C_Master_Transmit(I2C_HandleTypeDef *hi2c, uint16_t DevAddress, uint8_t *pData, uint16_t Size, uint32_t Timeout)
{
 8002630:	b580      	push	{r7, lr}
 8002632:	b088      	sub	sp, #32
 8002634:	af02      	add	r7, sp, #8
 8002636:	60f8      	str	r0, [r7, #12]
 8002638:	607a      	str	r2, [r7, #4]
 800263a:	461a      	mov	r2, r3
 800263c:	460b      	mov	r3, r1
 800263e:	817b      	strh	r3, [r7, #10]
 8002640:	4613      	mov	r3, r2
 8002642:	813b      	strh	r3, [r7, #8]
  /* Init tickstart for timeout management*/
  uint32_t tickstart = HAL_GetTick();
 8002644:	f7ff fb08 	bl	8001c58 <HAL_GetTick>
 8002648:	6178      	str	r0, [r7, #20]

  if (hi2c->State == HAL_I2C_STATE_READY)
 800264a:	68fb      	ldr	r3, [r7, #12]
 800264c:	f893 303d 	ldrb.w	r3, [r3, #61]	; 0x3d
 8002650:	b2db      	uxtb	r3, r3
 8002652:	2b20      	cmp	r3, #32
 8002654:	f040 80e0 	bne.w	8002818 <HAL_I2C_Master_Transmit+0x1e8>
  {
    /* Wait until BUSY flag is reset */
    if (I2C_WaitOnFlagUntilTimeout(hi2c, I2C_FLAG_BUSY, SET, I2C_TIMEOUT_BUSY_FLAG, tickstart) != HAL_OK)
 8002658:	697b      	ldr	r3, [r7, #20]
 800265a:	9300      	str	r3, [sp, #0]
 800265c:	2319      	movs	r3, #25
 800265e:	2201      	movs	r2, #1
 8002660:	4970      	ldr	r1, [pc, #448]	; (8002824 <HAL_I2C_Master_Transmit+0x1f4>)
 8002662:	68f8      	ldr	r0, [r7, #12]
 8002664:	f000 fc64 	bl	8002f30 <I2C_WaitOnFlagUntilTimeout>
 8002668:	4603      	mov	r3, r0
 800266a:	2b00      	cmp	r3, #0
 800266c:	d001      	beq.n	8002672 <HAL_I2C_Master_Transmit+0x42>
    {
      return HAL_BUSY;
 800266e:	2302      	movs	r3, #2
 8002670:	e0d3      	b.n	800281a <HAL_I2C_Master_Transmit+0x1ea>
    }

    /* Process Locked */
    __HAL_LOCK(hi2c);
 8002672:	68fb      	ldr	r3, [r7, #12]
 8002674:	f893 303c 	ldrb.w	r3, [r3, #60]	; 0x3c
 8002678:	2b01      	cmp	r3, #1
 800267a:	d101      	bne.n	8002680 <HAL_I2C_Master_Transmit+0x50>
 800267c:	2302      	movs	r3, #2
 800267e:	e0cc      	b.n	800281a <HAL_I2C_Master_Transmit+0x1ea>
 8002680:	68fb      	ldr	r3, [r7, #12]
 8002682:	2201      	movs	r2, #1
 8002684:	f883 203c 	strb.w	r2, [r3, #60]	; 0x3c

    /* Check if the I2C is already enabled */
    if ((hi2c->Instance->CR1 & I2C_CR1_PE) != I2C_CR1_PE)
 8002688:	68fb      	ldr	r3, [r7, #12]
 800268a:	681b      	ldr	r3, [r3, #0]
 800268c:	681b      	ldr	r3, [r3, #0]
 800268e:	f003 0301 	and.w	r3, r3, #1
 8002692:	2b01      	cmp	r3, #1
 8002694:	d007      	beq.n	80026a6 <HAL_I2C_Master_Transmit+0x76>
    {
      /* Enable I2C peripheral */
      __HAL_I2C_ENABLE(hi2c);
 8002696:	68fb      	ldr	r3, [r7, #12]
 8002698:	681b      	ldr	r3, [r3, #0]
 800269a:	681a      	ldr	r2, [r3, #0]
 800269c:	68fb      	ldr	r3, [r7, #12]
 800269e:	681b      	ldr	r3, [r3, #0]
 80026a0:	f042 0201 	orr.w	r2, r2, #1
 80026a4:	601a      	str	r2, [r3, #0]
    }

    /* Disable Pos */
    CLEAR_BIT(hi2c->Instance->CR1, I2C_CR1_POS);
 80026a6:	68fb      	ldr	r3, [r7, #12]
 80026a8:	681b      	ldr	r3, [r3, #0]
 80026aa:	681a      	ldr	r2, [r3, #0]
 80026ac:	68fb      	ldr	r3, [r7, #12]
 80026ae:	681b      	ldr	r3, [r3, #0]
 80026b0:	f422 6200 	bic.w	r2, r2, #2048	; 0x800
 80026b4:	601a      	str	r2, [r3, #0]

    hi2c->State       = HAL_I2C_STATE_BUSY_TX;
 80026b6:	68fb      	ldr	r3, [r7, #12]
 80026b8:	2221      	movs	r2, #33	; 0x21
 80026ba:	f883 203d 	strb.w	r2, [r3, #61]	; 0x3d
    hi2c->Mode        = HAL_I2C_MODE_MASTER;
 80026be:	68fb      	ldr	r3, [r7, #12]
 80026c0:	2210      	movs	r2, #16
 80026c2:	f883 203e 	strb.w	r2, [r3, #62]	; 0x3e
    hi2c->ErrorCode   = HAL_I2C_ERROR_NONE;
 80026c6:	68fb      	ldr	r3, [r7, #12]
 80026c8:	2200      	movs	r2, #0
 80026ca:	641a      	str	r2, [r3, #64]	; 0x40

    /* Prepare transfer parameters */
    hi2c->pBuffPtr    = pData;
 80026cc:	68fb      	ldr	r3, [r7, #12]
 80026ce:	687a      	ldr	r2, [r7, #4]
 80026d0:	625a      	str	r2, [r3, #36]	; 0x24
    hi2c->XferCount   = Size;
 80026d2:	68fb      	ldr	r3, [r7, #12]
 80026d4:	893a      	ldrh	r2, [r7, #8]
 80026d6:	855a      	strh	r2, [r3, #42]	; 0x2a
    hi2c->XferSize    = hi2c->XferCount;
 80026d8:	68fb      	ldr	r3, [r7, #12]
 80026da:	8d5b      	ldrh	r3, [r3, #42]	; 0x2a
 80026dc:	b29a      	uxth	r2, r3
 80026de:	68fb      	ldr	r3, [r7, #12]
 80026e0:	851a      	strh	r2, [r3, #40]	; 0x28
    hi2c->XferOptions = I2C_NO_OPTION_FRAME;
 80026e2:	68fb      	ldr	r3, [r7, #12]
 80026e4:	4a50      	ldr	r2, [pc, #320]	; (8002828 <HAL_I2C_Master_Transmit+0x1f8>)
 80026e6:	62da      	str	r2, [r3, #44]	; 0x2c

    /* Send Slave Address */
    if (I2C_MasterRequestWrite(hi2c, DevAddress, Timeout, tickstart) != HAL_OK)
 80026e8:	8979      	ldrh	r1, [r7, #10]
 80026ea:	697b      	ldr	r3, [r7, #20]
 80026ec:	6a3a      	ldr	r2, [r7, #32]
 80026ee:	68f8      	ldr	r0, [r7, #12]
 80026f0:	f000 face 	bl	8002c90 <I2C_MasterRequestWrite>
 80026f4:	4603      	mov	r3, r0
 80026f6:	2b00      	cmp	r3, #0
 80026f8:	d001      	beq.n	80026fe <HAL_I2C_Master_Transmit+0xce>
    {
      return HAL_ERROR;
 80026fa:	2301      	movs	r3, #1
 80026fc:	e08d      	b.n	800281a <HAL_I2C_Master_Transmit+0x1ea>
    }

    /* Clear ADDR flag */
    __HAL_I2C_CLEAR_ADDRFLAG(hi2c);
 80026fe:	2300      	movs	r3, #0
 8002700:	613b      	str	r3, [r7, #16]
 8002702:	68fb      	ldr	r3, [r7, #12]
 8002704:	681b      	ldr	r3, [r3, #0]
 8002706:	695b      	ldr	r3, [r3, #20]
 8002708:	613b      	str	r3, [r7, #16]
 800270a:	68fb      	ldr	r3, [r7, #12]
 800270c:	681b      	ldr	r3, [r3, #0]
 800270e:	699b      	ldr	r3, [r3, #24]
 8002710:	613b      	str	r3, [r7, #16]
 8002712:	693b      	ldr	r3, [r7, #16]

    while (hi2c->XferSize > 0U)
 8002714:	e066      	b.n	80027e4 <HAL_I2C_Master_Transmit+0x1b4>
    {
      /* Wait until TXE flag is set */
      if (I2C_WaitOnTXEFlagUntilTimeout(hi2c, Timeout, tickstart) != HAL_OK)
 8002716:	697a      	ldr	r2, [r7, #20]
 8002718:	6a39      	ldr	r1, [r7, #32]
 800271a:	68f8      	ldr	r0, [r7, #12]
 800271c:	f000 fd22 	bl	8003164 <I2C_WaitOnTXEFlagUntilTimeout>
 8002720:	4603      	mov	r3, r0
 8002722:	2b00      	cmp	r3, #0
 8002724:	d00d      	beq.n	8002742 <HAL_I2C_Master_Transmit+0x112>
      {
        if (hi2c->ErrorCode == HAL_I2C_ERROR_AF)
 8002726:	68fb      	ldr	r3, [r7, #12]
 8002728:	6c1b      	ldr	r3, [r3, #64]	; 0x40
 800272a:	2b04      	cmp	r3, #4
 800272c:	d107      	bne.n	800273e <HAL_I2C_Master_Transmit+0x10e>
        {
          /* Generate Stop */
          SET_BIT(hi2c->Instance->CR1, I2C_CR1_STOP);
 800272e:	68fb      	ldr	r3, [r7, #12]
 8002730:	681b      	ldr	r3, [r3, #0]
 8002732:	681a      	ldr	r2, [r3, #0]
 8002734:	68fb      	ldr	r3, [r7, #12]
 8002736:	681b      	ldr	r3, [r3, #0]
 8002738:	f442 7200 	orr.w	r2, r2, #512	; 0x200
 800273c:	601a      	str	r2, [r3, #0]
        }
        return HAL_ERROR;
 800273e:	2301      	movs	r3, #1
 8002740:	e06b      	b.n	800281a <HAL_I2C_Master_Transmit+0x1ea>
      }

      /* Write data to DR */
      hi2c->Instance->DR = *hi2c->pBuffPtr;
 8002742:	68fb      	ldr	r3, [r7, #12]
 8002744:	6a5b      	ldr	r3, [r3, #36]	; 0x24
 8002746:	781a      	ldrb	r2, [r3, #0]
 8002748:	68fb      	ldr	r3, [r7, #12]
 800274a:	681b      	ldr	r3, [r3, #0]
 800274c:	611a      	str	r2, [r3, #16]

      /* Increment Buffer pointer */
      hi2c->pBuffPtr++;
 800274e:	68fb      	ldr	r3, [r7, #12]
 8002750:	6a5b      	ldr	r3, [r3, #36]	; 0x24
 8002752:	1c5a      	adds	r2, r3, #1
 8002754:	68fb      	ldr	r3, [r7, #12]
 8002756:	625a      	str	r2, [r3, #36]	; 0x24

      /* Update counter */
      hi2c->XferCount--;
 8002758:	68fb      	ldr	r3, [r7, #12]
 800275a:	8d5b      	ldrh	r3, [r3, #42]	; 0x2a
 800275c:	b29b      	uxth	r3, r3
 800275e:	3b01      	subs	r3, #1
 8002760:	b29a      	uxth	r2, r3
 8002762:	68fb      	ldr	r3, [r7, #12]
 8002764:	855a      	strh	r2, [r3, #42]	; 0x2a
      hi2c->XferSize--;
 8002766:	68fb      	ldr	r3, [r7, #12]
 8002768:	8d1b      	ldrh	r3, [r3, #40]	; 0x28
 800276a:	3b01      	subs	r3, #1
 800276c:	b29a      	uxth	r2, r3
 800276e:	68fb      	ldr	r3, [r7, #12]
 8002770:	851a      	strh	r2, [r3, #40]	; 0x28

      if ((__HAL_I2C_GET_FLAG(hi2c, I2C_FLAG_BTF) == SET) && (hi2c->XferSize != 0U))
 8002772:	68fb      	ldr	r3, [r7, #12]
 8002774:	681b      	ldr	r3, [r3, #0]
 8002776:	695b      	ldr	r3, [r3, #20]
 8002778:	f003 0304 	and.w	r3, r3, #4
 800277c:	2b04      	cmp	r3, #4
 800277e:	d11b      	bne.n	80027b8 <HAL_I2C_Master_Transmit+0x188>
 8002780:	68fb      	ldr	r3, [r7, #12]
 8002782:	8d1b      	ldrh	r3, [r3, #40]	; 0x28
 8002784:	2b00      	cmp	r3, #0
 8002786:	d017      	beq.n	80027b8 <HAL_I2C_Master_Transmit+0x188>
      {
        /* Write data to DR */
        hi2c->Instance->DR = *hi2c->pBuffPtr;
 8002788:	68fb      	ldr	r3, [r7, #12]
 800278a:	6a5b      	ldr	r3, [r3, #36]	; 0x24
 800278c:	781a      	ldrb	r2, [r3, #0]
 800278e:	68fb      	ldr	r3, [r7, #12]
 8002790:	681b      	ldr	r3, [r3, #0]
 8002792:	611a      	str	r2, [r3, #16]

        /* Increment Buffer pointer */
        hi2c->pBuffPtr++;
 8002794:	68fb      	ldr	r3, [r7, #12]
 8002796:	6a5b      	ldr	r3, [r3, #36]	; 0x24
 8002798:	1c5a      	adds	r2, r3, #1
 800279a:	68fb      	ldr	r3, [r7, #12]
 800279c:	625a      	str	r2, [r3, #36]	; 0x24

        /* Update counter */
        hi2c->XferCount--;
 800279e:	68fb      	ldr	r3, [r7, #12]
 80027a0:	8d5b      	ldrh	r3, [r3, #42]	; 0x2a
 80027a2:	b29b      	uxth	r3, r3
 80027a4:	3b01      	subs	r3, #1
 80027a6:	b29a      	uxth	r2, r3
 80027a8:	68fb      	ldr	r3, [r7, #12]
 80027aa:	855a      	strh	r2, [r3, #42]	; 0x2a
        hi2c->XferSize--;
 80027ac:	68fb      	ldr	r3, [r7, #12]
 80027ae:	8d1b      	ldrh	r3, [r3, #40]	; 0x28
 80027b0:	3b01      	subs	r3, #1
 80027b2:	b29a      	uxth	r2, r3
 80027b4:	68fb      	ldr	r3, [r7, #12]
 80027b6:	851a      	strh	r2, [r3, #40]	; 0x28
      }

      /* Wait until BTF flag is set */
      if (I2C_WaitOnBTFFlagUntilTimeout(hi2c, Timeout, tickstart) != HAL_OK)
 80027b8:	697a      	ldr	r2, [r7, #20]
 80027ba:	6a39      	ldr	r1, [r7, #32]
 80027bc:	68f8      	ldr	r0, [r7, #12]
 80027be:	f000 fd19 	bl	80031f4 <I2C_WaitOnBTFFlagUntilTimeout>
 80027c2:	4603      	mov	r3, r0
 80027c4:	2b00      	cmp	r3, #0
 80027c6:	d00d      	beq.n	80027e4 <HAL_I2C_Master_Transmit+0x1b4>
      {
        if (hi2c->ErrorCode == HAL_I2C_ERROR_AF)
 80027c8:	68fb      	ldr	r3, [r7, #12]
 80027ca:	6c1b      	ldr	r3, [r3, #64]	; 0x40
 80027cc:	2b04      	cmp	r3, #4
 80027ce:	d107      	bne.n	80027e0 <HAL_I2C_Master_Transmit+0x1b0>
        {
          /* Generate Stop */
          SET_BIT(hi2c->Instance->CR1, I2C_CR1_STOP);
 80027d0:	68fb      	ldr	r3, [r7, #12]
 80027d2:	681b      	ldr	r3, [r3, #0]
 80027d4:	681a      	ldr	r2, [r3, #0]
 80027d6:	68fb      	ldr	r3, [r7, #12]
 80027d8:	681b      	ldr	r3, [r3, #0]
 80027da:	f442 7200 	orr.w	r2, r2, #512	; 0x200
 80027de:	601a      	str	r2, [r3, #0]
        }
        return HAL_ERROR;
 80027e0:	2301      	movs	r3, #1
 80027e2:	e01a      	b.n	800281a <HAL_I2C_Master_Transmit+0x1ea>
    while (hi2c->XferSize > 0U)
 80027e4:	68fb      	ldr	r3, [r7, #12]
 80027e6:	8d1b      	ldrh	r3, [r3, #40]	; 0x28
 80027e8:	2b00      	cmp	r3, #0
 80027ea:	d194      	bne.n	8002716 <HAL_I2C_Master_Transmit+0xe6>
      }
    }

    /* Generate Stop */
    SET_BIT(hi2c->Instance->CR1, I2C_CR1_STOP);
 80027ec:	68fb      	ldr	r3, [r7, #12]
 80027ee:	681b      	ldr	r3, [r3, #0]
 80027f0:	681a      	ldr	r2, [r3, #0]
 80027f2:	68fb      	ldr	r3, [r7, #12]
 80027f4:	681b      	ldr	r3, [r3, #0]
 80027f6:	f442 7200 	orr.w	r2, r2, #512	; 0x200
 80027fa:	601a      	str	r2, [r3, #0]

    hi2c->State = HAL_I2C_STATE_READY;
 80027fc:	68fb      	ldr	r3, [r7, #12]
 80027fe:	2220      	movs	r2, #32
 8002800:	f883 203d 	strb.w	r2, [r3, #61]	; 0x3d
    hi2c->Mode = HAL_I2C_MODE_NONE;
 8002804:	68fb      	ldr	r3, [r7, #12]
 8002806:	2200      	movs	r2, #0
 8002808:	f883 203e 	strb.w	r2, [r3, #62]	; 0x3e

    /* Process Unlocked */
    __HAL_UNLOCK(hi2c);
 800280c:	68fb      	ldr	r3, [r7, #12]
 800280e:	2200      	movs	r2, #0
 8002810:	f883 203c 	strb.w	r2, [r3, #60]	; 0x3c

    return HAL_OK;
 8002814:	2300      	movs	r3, #0
 8002816:	e000      	b.n	800281a <HAL_I2C_Master_Transmit+0x1ea>
  }
  else
  {
    return HAL_BUSY;
 8002818:	2302      	movs	r3, #2
  }
}
 800281a:	4618      	mov	r0, r3
 800281c:	3718      	adds	r7, #24
 800281e:	46bd      	mov	sp, r7
 8002820:	bd80      	pop	{r7, pc}
 8002822:	bf00      	nop
 8002824:	00100002 	.word	0x00100002
 8002828:	ffff0000 	.word	0xffff0000

0800282c <HAL_I2C_Master_Receive>:
  * @param  Size Amount of data to be sent
  * @param  Timeout Timeout duration
  * @retval HAL status
  */
HAL_StatusTypeDef HAL_I2C_Master_Receive(I2C_HandleTypeDef *hi2c, uint16_t DevAddress, uint8_t *pData, uint16_t Size, uint32_t Timeout)
{
 800282c:	b580      	push	{r7, lr}
 800282e:	b08c      	sub	sp, #48	; 0x30
 8002830:	af02      	add	r7, sp, #8
 8002832:	60f8      	str	r0, [r7, #12]
 8002834:	607a      	str	r2, [r7, #4]
 8002836:	461a      	mov	r2, r3
 8002838:	460b      	mov	r3, r1
 800283a:	817b      	strh	r3, [r7, #10]
 800283c:	4613      	mov	r3, r2
 800283e:	813b      	strh	r3, [r7, #8]
  /* Init tickstart for timeout management*/
  uint32_t tickstart = HAL_GetTick();
 8002840:	f7ff fa0a 	bl	8001c58 <HAL_GetTick>
 8002844:	6278      	str	r0, [r7, #36]	; 0x24

  if (hi2c->State == HAL_I2C_STATE_READY)
 8002846:	68fb      	ldr	r3, [r7, #12]
 8002848:	f893 303d 	ldrb.w	r3, [r3, #61]	; 0x3d
 800284c:	b2db      	uxtb	r3, r3
 800284e:	2b20      	cmp	r3, #32
 8002850:	f040 8217 	bne.w	8002c82 <HAL_I2C_Master_Receive+0x456>
  {
    /* Wait until BUSY flag is reset */
    if (I2C_WaitOnFlagUntilTimeout(hi2c, I2C_FLAG_BUSY, SET, I2C_TIMEOUT_BUSY_FLAG, tickstart) != HAL_OK)
 8002854:	6a7b      	ldr	r3, [r7, #36]	; 0x24
 8002856:	9300      	str	r3, [sp, #0]
 8002858:	2319      	movs	r3, #25
 800285a:	2201      	movs	r2, #1
 800285c:	497c      	ldr	r1, [pc, #496]	; (8002a50 <HAL_I2C_Master_Receive+0x224>)
 800285e:	68f8      	ldr	r0, [r7, #12]
 8002860:	f000 fb66 	bl	8002f30 <I2C_WaitOnFlagUntilTimeout>
 8002864:	4603      	mov	r3, r0
 8002866:	2b00      	cmp	r3, #0
 8002868:	d001      	beq.n	800286e <HAL_I2C_Master_Receive+0x42>
    {
      return HAL_BUSY;
 800286a:	2302      	movs	r3, #2
 800286c:	e20a      	b.n	8002c84 <HAL_I2C_Master_Receive+0x458>
    }

    /* Process Locked */
    __HAL_LOCK(hi2c);
 800286e:	68fb      	ldr	r3, [r7, #12]
 8002870:	f893 303c 	ldrb.w	r3, [r3, #60]	; 0x3c
 8002874:	2b01      	cmp	r3, #1
 8002876:	d101      	bne.n	800287c <HAL_I2C_Master_Receive+0x50>
 8002878:	2302      	movs	r3, #2
 800287a:	e203      	b.n	8002c84 <HAL_I2C_Master_Receive+0x458>
 800287c:	68fb      	ldr	r3, [r7, #12]
 800287e:	2201      	movs	r2, #1
 8002880:	f883 203c 	strb.w	r2, [r3, #60]	; 0x3c

    /* Check if the I2C is already enabled */
    if ((hi2c->Instance->CR1 & I2C_CR1_PE) != I2C_CR1_PE)
 8002884:	68fb      	ldr	r3, [r7, #12]
 8002886:	681b      	ldr	r3, [r3, #0]
 8002888:	681b      	ldr	r3, [r3, #0]
 800288a:	f003 0301 	and.w	r3, r3, #1
 800288e:	2b01      	cmp	r3, #1
 8002890:	d007      	beq.n	80028a2 <HAL_I2C_Master_Receive+0x76>
    {
      /* Enable I2C peripheral */
      __HAL_I2C_ENABLE(hi2c);
 8002892:	68fb      	ldr	r3, [r7, #12]
 8002894:	681b      	ldr	r3, [r3, #0]
 8002896:	681a      	ldr	r2, [r3, #0]
 8002898:	68fb      	ldr	r3, [r7, #12]
 800289a:	681b      	ldr	r3, [r3, #0]
 800289c:	f042 0201 	orr.w	r2, r2, #1
 80028a0:	601a      	str	r2, [r3, #0]
    }

    /* Disable Pos */
    CLEAR_BIT(hi2c->Instance->CR1, I2C_CR1_POS);
 80028a2:	68fb      	ldr	r3, [r7, #12]
 80028a4:	681b      	ldr	r3, [r3, #0]
 80028a6:	681a      	ldr	r2, [r3, #0]
 80028a8:	68fb      	ldr	r3, [r7, #12]
 80028aa:	681b      	ldr	r3, [r3, #0]
 80028ac:	f422 6200 	bic.w	r2, r2, #2048	; 0x800
 80028b0:	601a      	str	r2, [r3, #0]

    hi2c->State       = HAL_I2C_STATE_BUSY_RX;
 80028b2:	68fb      	ldr	r3, [r7, #12]
 80028b4:	2222      	movs	r2, #34	; 0x22
 80028b6:	f883 203d 	strb.w	r2, [r3, #61]	; 0x3d
    hi2c->Mode        = HAL_I2C_MODE_MASTER;
 80028ba:	68fb      	ldr	r3, [r7, #12]
 80028bc:	2210      	movs	r2, #16
 80028be:	f883 203e 	strb.w	r2, [r3, #62]	; 0x3e
    hi2c->ErrorCode   = HAL_I2C_ERROR_NONE;
 80028c2:	68fb      	ldr	r3, [r7, #12]
 80028c4:	2200      	movs	r2, #0
 80028c6:	641a      	str	r2, [r3, #64]	; 0x40

    /* Prepare transfer parameters */
    hi2c->pBuffPtr    = pData;
 80028c8:	68fb      	ldr	r3, [r7, #12]
 80028ca:	687a      	ldr	r2, [r7, #4]
 80028cc:	625a      	str	r2, [r3, #36]	; 0x24
    hi2c->XferCount   = Size;
 80028ce:	68fb      	ldr	r3, [r7, #12]
 80028d0:	893a      	ldrh	r2, [r7, #8]
 80028d2:	855a      	strh	r2, [r3, #42]	; 0x2a
    hi2c->XferSize    = hi2c->XferCount;
 80028d4:	68fb      	ldr	r3, [r7, #12]
 80028d6:	8d5b      	ldrh	r3, [r3, #42]	; 0x2a
 80028d8:	b29a      	uxth	r2, r3
 80028da:	68fb      	ldr	r3, [r7, #12]
 80028dc:	851a      	strh	r2, [r3, #40]	; 0x28
    hi2c->XferOptions = I2C_NO_OPTION_FRAME;
 80028de:	68fb      	ldr	r3, [r7, #12]
 80028e0:	4a5c      	ldr	r2, [pc, #368]	; (8002a54 <HAL_I2C_Master_Receive+0x228>)
 80028e2:	62da      	str	r2, [r3, #44]	; 0x2c

    /* Send Slave Address */
    if (I2C_MasterRequestRead(hi2c, DevAddress, Timeout, tickstart) != HAL_OK)
 80028e4:	8979      	ldrh	r1, [r7, #10]
 80028e6:	6a7b      	ldr	r3, [r7, #36]	; 0x24
 80028e8:	6b3a      	ldr	r2, [r7, #48]	; 0x30
 80028ea:	68f8      	ldr	r0, [r7, #12]
 80028ec:	f000 fa52 	bl	8002d94 <I2C_MasterRequestRead>
 80028f0:	4603      	mov	r3, r0
 80028f2:	2b00      	cmp	r3, #0
 80028f4:	d001      	beq.n	80028fa <HAL_I2C_Master_Receive+0xce>
    {
      return HAL_ERROR;
 80028f6:	2301      	movs	r3, #1
 80028f8:	e1c4      	b.n	8002c84 <HAL_I2C_Master_Receive+0x458>
    }

    if (hi2c->XferSize == 0U)
 80028fa:	68fb      	ldr	r3, [r7, #12]
 80028fc:	8d1b      	ldrh	r3, [r3, #40]	; 0x28
 80028fe:	2b00      	cmp	r3, #0
 8002900:	d113      	bne.n	800292a <HAL_I2C_Master_Receive+0xfe>
    {
      /* Clear ADDR flag */
      __HAL_I2C_CLEAR_ADDRFLAG(hi2c);
 8002902:	2300      	movs	r3, #0
 8002904:	623b      	str	r3, [r7, #32]
 8002906:	68fb      	ldr	r3, [r7, #12]
 8002908:	681b      	ldr	r3, [r3, #0]
 800290a:	695b      	ldr	r3, [r3, #20]
 800290c:	623b      	str	r3, [r7, #32]
 800290e:	68fb      	ldr	r3, [r7, #12]
 8002910:	681b      	ldr	r3, [r3, #0]
 8002912:	699b      	ldr	r3, [r3, #24]
 8002914:	623b      	str	r3, [r7, #32]
 8002916:	6a3b      	ldr	r3, [r7, #32]

      /* Generate Stop */
      SET_BIT(hi2c->Instance->CR1, I2C_CR1_STOP);
 8002918:	68fb      	ldr	r3, [r7, #12]
 800291a:	681b      	ldr	r3, [r3, #0]
 800291c:	681a      	ldr	r2, [r3, #0]
 800291e:	68fb      	ldr	r3, [r7, #12]
 8002920:	681b      	ldr	r3, [r3, #0]
 8002922:	f442 7200 	orr.w	r2, r2, #512	; 0x200
 8002926:	601a      	str	r2, [r3, #0]
 8002928:	e198      	b.n	8002c5c <HAL_I2C_Master_Receive+0x430>
    }
    else if (hi2c->XferSize == 1U)
 800292a:	68fb      	ldr	r3, [r7, #12]
 800292c:	8d1b      	ldrh	r3, [r3, #40]	; 0x28
 800292e:	2b01      	cmp	r3, #1
 8002930:	d11b      	bne.n	800296a <HAL_I2C_Master_Receive+0x13e>
    {
      /* Disable Acknowledge */
      CLEAR_BIT(hi2c->Instance->CR1, I2C_CR1_ACK);
 8002932:	68fb      	ldr	r3, [r7, #12]
 8002934:	681b      	ldr	r3, [r3, #0]
 8002936:	681a      	ldr	r2, [r3, #0]
 8002938:	68fb      	ldr	r3, [r7, #12]
 800293a:	681b      	ldr	r3, [r3, #0]
 800293c:	f422 6280 	bic.w	r2, r2, #1024	; 0x400
 8002940:	601a      	str	r2, [r3, #0]

      /* Clear ADDR flag */
      __HAL_I2C_CLEAR_ADDRFLAG(hi2c);
 8002942:	2300      	movs	r3, #0
 8002944:	61fb      	str	r3, [r7, #28]
 8002946:	68fb      	ldr	r3, [r7, #12]
 8002948:	681b      	ldr	r3, [r3, #0]
 800294a:	695b      	ldr	r3, [r3, #20]
 800294c:	61fb      	str	r3, [r7, #28]
 800294e:	68fb      	ldr	r3, [r7, #12]
 8002950:	681b      	ldr	r3, [r3, #0]
 8002952:	699b      	ldr	r3, [r3, #24]
 8002954:	61fb      	str	r3, [r7, #28]
 8002956:	69fb      	ldr	r3, [r7, #28]

      /* Generate Stop */
      SET_BIT(hi2c->Instance->CR1, I2C_CR1_STOP);
 8002958:	68fb      	ldr	r3, [r7, #12]
 800295a:	681b      	ldr	r3, [r3, #0]
 800295c:	681a      	ldr	r2, [r3, #0]
 800295e:	68fb      	ldr	r3, [r7, #12]
 8002960:	681b      	ldr	r3, [r3, #0]
 8002962:	f442 7200 	orr.w	r2, r2, #512	; 0x200
 8002966:	601a      	str	r2, [r3, #0]
 8002968:	e178      	b.n	8002c5c <HAL_I2C_Master_Receive+0x430>
    }
    else if (hi2c->XferSize == 2U)
 800296a:	68fb      	ldr	r3, [r7, #12]
 800296c:	8d1b      	ldrh	r3, [r3, #40]	; 0x28
 800296e:	2b02      	cmp	r3, #2
 8002970:	d11b      	bne.n	80029aa <HAL_I2C_Master_Receive+0x17e>
    {
      /* Disable Acknowledge */
      CLEAR_BIT(hi2c->Instance->CR1, I2C_CR1_ACK);
 8002972:	68fb      	ldr	r3, [r7, #12]
 8002974:	681b      	ldr	r3, [r3, #0]
 8002976:	681a      	ldr	r2, [r3, #0]
 8002978:	68fb      	ldr	r3, [r7, #12]
 800297a:	681b      	ldr	r3, [r3, #0]
 800297c:	f422 6280 	bic.w	r2, r2, #1024	; 0x400
 8002980:	601a      	str	r2, [r3, #0]

      /* Enable Pos */
      SET_BIT(hi2c->Instance->CR1, I2C_CR1_POS);
 8002982:	68fb      	ldr	r3, [r7, #12]
 8002984:	681b      	ldr	r3, [r3, #0]
 8002986:	681a      	ldr	r2, [r3, #0]
 8002988:	68fb      	ldr	r3, [r7, #12]
 800298a:	681b      	ldr	r3, [r3, #0]
 800298c:	f442 6200 	orr.w	r2, r2, #2048	; 0x800
 8002990:	601a      	str	r2, [r3, #0]

      /* Clear ADDR flag */
      __HAL_I2C_CLEAR_ADDRFLAG(hi2c);
 8002992:	2300      	movs	r3, #0
 8002994:	61bb      	str	r3, [r7, #24]
 8002996:	68fb      	ldr	r3, [r7, #12]
 8002998:	681b      	ldr	r3, [r3, #0]
 800299a:	695b      	ldr	r3, [r3, #20]
 800299c:	61bb      	str	r3, [r7, #24]
 800299e:	68fb      	ldr	r3, [r7, #12]
 80029a0:	681b      	ldr	r3, [r3, #0]
 80029a2:	699b      	ldr	r3, [r3, #24]
 80029a4:	61bb      	str	r3, [r7, #24]
 80029a6:	69bb      	ldr	r3, [r7, #24]
 80029a8:	e158      	b.n	8002c5c <HAL_I2C_Master_Receive+0x430>
    }
    else
    {
      /* Enable Acknowledge */
      SET_BIT(hi2c->Instance->CR1, I2C_CR1_ACK);
 80029aa:	68fb      	ldr	r3, [r7, #12]
 80029ac:	681b      	ldr	r3, [r3, #0]
 80029ae:	681a      	ldr	r2, [r3, #0]
 80029b0:	68fb      	ldr	r3, [r7, #12]
 80029b2:	681b      	ldr	r3, [r3, #0]
 80029b4:	f442 6280 	orr.w	r2, r2, #1024	; 0x400
 80029b8:	601a      	str	r2, [r3, #0]

      /* Clear ADDR flag */
      __HAL_I2C_CLEAR_ADDRFLAG(hi2c);
 80029ba:	2300      	movs	r3, #0
 80029bc:	617b      	str	r3, [r7, #20]
 80029be:	68fb      	ldr	r3, [r7, #12]
 80029c0:	681b      	ldr	r3, [r3, #0]
 80029c2:	695b      	ldr	r3, [r3, #20]
 80029c4:	617b      	str	r3, [r7, #20]
 80029c6:	68fb      	ldr	r3, [r7, #12]
 80029c8:	681b      	ldr	r3, [r3, #0]
 80029ca:	699b      	ldr	r3, [r3, #24]
 80029cc:	617b      	str	r3, [r7, #20]
 80029ce:	697b      	ldr	r3, [r7, #20]
    }

    while (hi2c->XferSize > 0U)
 80029d0:	e144      	b.n	8002c5c <HAL_I2C_Master_Receive+0x430>
    {
      if (hi2c->XferSize <= 3U)
 80029d2:	68fb      	ldr	r3, [r7, #12]
 80029d4:	8d1b      	ldrh	r3, [r3, #40]	; 0x28
 80029d6:	2b03      	cmp	r3, #3
 80029d8:	f200 80f1 	bhi.w	8002bbe <HAL_I2C_Master_Receive+0x392>
      {
        /* One byte */
        if (hi2c->XferSize == 1U)
 80029dc:	68fb      	ldr	r3, [r7, #12]
 80029de:	8d1b      	ldrh	r3, [r3, #40]	; 0x28
 80029e0:	2b01      	cmp	r3, #1
 80029e2:	d123      	bne.n	8002a2c <HAL_I2C_Master_Receive+0x200>
        {
          /* Wait until RXNE flag is set */
          if (I2C_WaitOnRXNEFlagUntilTimeout(hi2c, Timeout, tickstart) != HAL_OK)
 80029e4:	6a7a      	ldr	r2, [r7, #36]	; 0x24
 80029e6:	6b39      	ldr	r1, [r7, #48]	; 0x30
 80029e8:	68f8      	ldr	r0, [r7, #12]
 80029ea:	f000 fc4b 	bl	8003284 <I2C_WaitOnRXNEFlagUntilTimeout>
 80029ee:	4603      	mov	r3, r0
 80029f0:	2b00      	cmp	r3, #0
 80029f2:	d001      	beq.n	80029f8 <HAL_I2C_Master_Receive+0x1cc>
          {
            return HAL_ERROR;
 80029f4:	2301      	movs	r3, #1
 80029f6:	e145      	b.n	8002c84 <HAL_I2C_Master_Receive+0x458>
          }

          /* Read data from DR */
          *hi2c->pBuffPtr = (uint8_t)hi2c->Instance->DR;
 80029f8:	68fb      	ldr	r3, [r7, #12]
 80029fa:	681b      	ldr	r3, [r3, #0]
 80029fc:	691a      	ldr	r2, [r3, #16]
 80029fe:	68fb      	ldr	r3, [r7, #12]
 8002a00:	6a5b      	ldr	r3, [r3, #36]	; 0x24
 8002a02:	b2d2      	uxtb	r2, r2
 8002a04:	701a      	strb	r2, [r3, #0]

          /* Increment Buffer pointer */
          hi2c->pBuffPtr++;
 8002a06:	68fb      	ldr	r3, [r7, #12]
 8002a08:	6a5b      	ldr	r3, [r3, #36]	; 0x24
 8002a0a:	1c5a      	adds	r2, r3, #1
 8002a0c:	68fb      	ldr	r3, [r7, #12]
 8002a0e:	625a      	str	r2, [r3, #36]	; 0x24

          /* Update counter */
          hi2c->XferSize--;
 8002a10:	68fb      	ldr	r3, [r7, #12]
 8002a12:	8d1b      	ldrh	r3, [r3, #40]	; 0x28
 8002a14:	3b01      	subs	r3, #1
 8002a16:	b29a      	uxth	r2, r3
 8002a18:	68fb      	ldr	r3, [r7, #12]
 8002a1a:	851a      	strh	r2, [r3, #40]	; 0x28
          hi2c->XferCount--;
 8002a1c:	68fb      	ldr	r3, [r7, #12]
 8002a1e:	8d5b      	ldrh	r3, [r3, #42]	; 0x2a
 8002a20:	b29b      	uxth	r3, r3
 8002a22:	3b01      	subs	r3, #1
 8002a24:	b29a      	uxth	r2, r3
 8002a26:	68fb      	ldr	r3, [r7, #12]
 8002a28:	855a      	strh	r2, [r3, #42]	; 0x2a
 8002a2a:	e117      	b.n	8002c5c <HAL_I2C_Master_Receive+0x430>
        }
        /* Two bytes */
        else if (hi2c->XferSize == 2U)
 8002a2c:	68fb      	ldr	r3, [r7, #12]
 8002a2e:	8d1b      	ldrh	r3, [r3, #40]	; 0x28
 8002a30:	2b02      	cmp	r3, #2
 8002a32:	d14e      	bne.n	8002ad2 <HAL_I2C_Master_Receive+0x2a6>
        {
          /* Wait until BTF flag is set */
          if (I2C_WaitOnFlagUntilTimeout(hi2c, I2C_FLAG_BTF, RESET, Timeout, tickstart) != HAL_OK)
 8002a34:	6a7b      	ldr	r3, [r7, #36]	; 0x24
 8002a36:	9300      	str	r3, [sp, #0]
 8002a38:	6b3b      	ldr	r3, [r7, #48]	; 0x30
 8002a3a:	2200      	movs	r2, #0
 8002a3c:	4906      	ldr	r1, [pc, #24]	; (8002a58 <HAL_I2C_Master_Receive+0x22c>)
 8002a3e:	68f8      	ldr	r0, [r7, #12]
 8002a40:	f000 fa76 	bl	8002f30 <I2C_WaitOnFlagUntilTimeout>
 8002a44:	4603      	mov	r3, r0
 8002a46:	2b00      	cmp	r3, #0
 8002a48:	d008      	beq.n	8002a5c <HAL_I2C_Master_Receive+0x230>
          {
            return HAL_ERROR;
 8002a4a:	2301      	movs	r3, #1
 8002a4c:	e11a      	b.n	8002c84 <HAL_I2C_Master_Receive+0x458>
 8002a4e:	bf00      	nop
 8002a50:	00100002 	.word	0x00100002
 8002a54:	ffff0000 	.word	0xffff0000
 8002a58:	00010004 	.word	0x00010004
          }

          /* Generate Stop */
          SET_BIT(hi2c->Instance->CR1, I2C_CR1_STOP);
 8002a5c:	68fb      	ldr	r3, [r7, #12]
 8002a5e:	681b      	ldr	r3, [r3, #0]
 8002a60:	681a      	ldr	r2, [r3, #0]
 8002a62:	68fb      	ldr	r3, [r7, #12]
 8002a64:	681b      	ldr	r3, [r3, #0]
 8002a66:	f442 7200 	orr.w	r2, r2, #512	; 0x200
 8002a6a:	601a      	str	r2, [r3, #0]

          /* Read data from DR */
          *hi2c->pBuffPtr = (uint8_t)hi2c->Instance->DR;
 8002a6c:	68fb      	ldr	r3, [r7, #12]
 8002a6e:	681b      	ldr	r3, [r3, #0]
 8002a70:	691a      	ldr	r2, [r3, #16]
 8002a72:	68fb      	ldr	r3, [r7, #12]
 8002a74:	6a5b      	ldr	r3, [r3, #36]	; 0x24
 8002a76:	b2d2      	uxtb	r2, r2
 8002a78:	701a      	strb	r2, [r3, #0]

          /* Increment Buffer pointer */
          hi2c->pBuffPtr++;
 8002a7a:	68fb      	ldr	r3, [r7, #12]
 8002a7c:	6a5b      	ldr	r3, [r3, #36]	; 0x24
 8002a7e:	1c5a      	adds	r2, r3, #1
 8002a80:	68fb      	ldr	r3, [r7, #12]
 8002a82:	625a      	str	r2, [r3, #36]	; 0x24

          /* Update counter */
          hi2c->XferSize--;
 8002a84:	68fb      	ldr	r3, [r7, #12]
 8002a86:	8d1b      	ldrh	r3, [r3, #40]	; 0x28
 8002a88:	3b01      	subs	r3, #1
 8002a8a:	b29a      	uxth	r2, r3
 8002a8c:	68fb      	ldr	r3, [r7, #12]
 8002a8e:	851a      	strh	r2, [r3, #40]	; 0x28
          hi2c->XferCount--;
 8002a90:	68fb      	ldr	r3, [r7, #12]
 8002a92:	8d5b      	ldrh	r3, [r3, #42]	; 0x2a
 8002a94:	b29b      	uxth	r3, r3
 8002a96:	3b01      	subs	r3, #1
 8002a98:	b29a      	uxth	r2, r3
 8002a9a:	68fb      	ldr	r3, [r7, #12]
 8002a9c:	855a      	strh	r2, [r3, #42]	; 0x2a

          /* Read data from DR */
          *hi2c->pBuffPtr = (uint8_t)hi2c->Instance->DR;
 8002a9e:	68fb      	ldr	r3, [r7, #12]
 8002aa0:	681b      	ldr	r3, [r3, #0]
 8002aa2:	691a      	ldr	r2, [r3, #16]
 8002aa4:	68fb      	ldr	r3, [r7, #12]
 8002aa6:	6a5b      	ldr	r3, [r3, #36]	; 0x24
 8002aa8:	b2d2      	uxtb	r2, r2
 8002aaa:	701a      	strb	r2, [r3, #0]

          /* Increment Buffer pointer */
          hi2c->pBuffPtr++;
 8002aac:	68fb      	ldr	r3, [r7, #12]
 8002aae:	6a5b      	ldr	r3, [r3, #36]	; 0x24
 8002ab0:	1c5a      	adds	r2, r3, #1
 8002ab2:	68fb      	ldr	r3, [r7, #12]
 8002ab4:	625a      	str	r2, [r3, #36]	; 0x24

          /* Update counter */
          hi2c->XferSize--;
 8002ab6:	68fb      	ldr	r3, [r7, #12]
 8002ab8:	8d1b      	ldrh	r3, [r3, #40]	; 0x28
 8002aba:	3b01      	subs	r3, #1
 8002abc:	b29a      	uxth	r2, r3
 8002abe:	68fb      	ldr	r3, [r7, #12]
 8002ac0:	851a      	strh	r2, [r3, #40]	; 0x28
          hi2c->XferCount--;
 8002ac2:	68fb      	ldr	r3, [r7, #12]
 8002ac4:	8d5b      	ldrh	r3, [r3, #42]	; 0x2a
 8002ac6:	b29b      	uxth	r3, r3
 8002ac8:	3b01      	subs	r3, #1
 8002aca:	b29a      	uxth	r2, r3
 8002acc:	68fb      	ldr	r3, [r7, #12]
 8002ace:	855a      	strh	r2, [r3, #42]	; 0x2a
 8002ad0:	e0c4      	b.n	8002c5c <HAL_I2C_Master_Receive+0x430>
        }
        /* 3 Last bytes */
        else
        {
          /* Wait until BTF flag is set */
          if (I2C_WaitOnFlagUntilTimeout(hi2c, I2C_FLAG_BTF, RESET, Timeout, tickstart) != HAL_OK)
 8002ad2:	6a7b      	ldr	r3, [r7, #36]	; 0x24
 8002ad4:	9300      	str	r3, [sp, #0]
 8002ad6:	6b3b      	ldr	r3, [r7, #48]	; 0x30
 8002ad8:	2200      	movs	r2, #0
 8002ada:	496c      	ldr	r1, [pc, #432]	; (8002c8c <HAL_I2C_Master_Receive+0x460>)
 8002adc:	68f8      	ldr	r0, [r7, #12]
 8002ade:	f000 fa27 	bl	8002f30 <I2C_WaitOnFlagUntilTimeout>
 8002ae2:	4603      	mov	r3, r0
 8002ae4:	2b00      	cmp	r3, #0
 8002ae6:	d001      	beq.n	8002aec <HAL_I2C_Master_Receive+0x2c0>
          {
            return HAL_ERROR;
 8002ae8:	2301      	movs	r3, #1
 8002aea:	e0cb      	b.n	8002c84 <HAL_I2C_Master_Receive+0x458>
          }

          /* Disable Acknowledge */
          CLEAR_BIT(hi2c->Instance->CR1, I2C_CR1_ACK);
 8002aec:	68fb      	ldr	r3, [r7, #12]
 8002aee:	681b      	ldr	r3, [r3, #0]
 8002af0:	681a      	ldr	r2, [r3, #0]
 8002af2:	68fb      	ldr	r3, [r7, #12]
 8002af4:	681b      	ldr	r3, [r3, #0]
 8002af6:	f422 6280 	bic.w	r2, r2, #1024	; 0x400
 8002afa:	601a      	str	r2, [r3, #0]

          /* Read data from DR */
          *hi2c->pBuffPtr = (uint8_t)hi2c->Instance->DR;
 8002afc:	68fb      	ldr	r3, [r7, #12]
 8002afe:	681b      	ldr	r3, [r3, #0]
 8002b00:	691a      	ldr	r2, [r3, #16]
 8002b02:	68fb      	ldr	r3, [r7, #12]
 8002b04:	6a5b      	ldr	r3, [r3, #36]	; 0x24
 8002b06:	b2d2      	uxtb	r2, r2
 8002b08:	701a      	strb	r2, [r3, #0]

          /* Increment Buffer pointer */
          hi2c->pBuffPtr++;
 8002b0a:	68fb      	ldr	r3, [r7, #12]
 8002b0c:	6a5b      	ldr	r3, [r3, #36]	; 0x24
 8002b0e:	1c5a      	adds	r2, r3, #1
 8002b10:	68fb      	ldr	r3, [r7, #12]
 8002b12:	625a      	str	r2, [r3, #36]	; 0x24

          /* Update counter */
          hi2c->XferSize--;
 8002b14:	68fb      	ldr	r3, [r7, #12]
 8002b16:	8d1b      	ldrh	r3, [r3, #40]	; 0x28
 8002b18:	3b01      	subs	r3, #1
 8002b1a:	b29a      	uxth	r2, r3
 8002b1c:	68fb      	ldr	r3, [r7, #12]
 8002b1e:	851a      	strh	r2, [r3, #40]	; 0x28
          hi2c->XferCount--;
 8002b20:	68fb      	ldr	r3, [r7, #12]
 8002b22:	8d5b      	ldrh	r3, [r3, #42]	; 0x2a
 8002b24:	b29b      	uxth	r3, r3
 8002b26:	3b01      	subs	r3, #1
 8002b28:	b29a      	uxth	r2, r3
 8002b2a:	68fb      	ldr	r3, [r7, #12]
 8002b2c:	855a      	strh	r2, [r3, #42]	; 0x2a

          /* Wait until BTF flag is set */
          if (I2C_WaitOnFlagUntilTimeout(hi2c, I2C_FLAG_BTF, RESET, Timeout, tickstart) != HAL_OK)
 8002b2e:	6a7b      	ldr	r3, [r7, #36]	; 0x24
 8002b30:	9300      	str	r3, [sp, #0]
 8002b32:	6b3b      	ldr	r3, [r7, #48]	; 0x30
 8002b34:	2200      	movs	r2, #0
 8002b36:	4955      	ldr	r1, [pc, #340]	; (8002c8c <HAL_I2C_Master_Receive+0x460>)
 8002b38:	68f8      	ldr	r0, [r7, #12]
 8002b3a:	f000 f9f9 	bl	8002f30 <I2C_WaitOnFlagUntilTimeout>
 8002b3e:	4603      	mov	r3, r0
 8002b40:	2b00      	cmp	r3, #0
 8002b42:	d001      	beq.n	8002b48 <HAL_I2C_Master_Receive+0x31c>
          {
            return HAL_ERROR;
 8002b44:	2301      	movs	r3, #1
 8002b46:	e09d      	b.n	8002c84 <HAL_I2C_Master_Receive+0x458>
          }

          /* Generate Stop */
          SET_BIT(hi2c->Instance->CR1, I2C_CR1_STOP);
 8002b48:	68fb      	ldr	r3, [r7, #12]
 8002b4a:	681b      	ldr	r3, [r3, #0]
 8002b4c:	681a      	ldr	r2, [r3, #0]
 8002b4e:	68fb      	ldr	r3, [r7, #12]
 8002b50:	681b      	ldr	r3, [r3, #0]
 8002b52:	f442 7200 	orr.w	r2, r2, #512	; 0x200
 8002b56:	601a      	str	r2, [r3, #0]

          /* Read data from DR */
          *hi2c->pBuffPtr = (uint8_t)hi2c->Instance->DR;
 8002b58:	68fb      	ldr	r3, [r7, #12]
 8002b5a:	681b      	ldr	r3, [r3, #0]
 8002b5c:	691a      	ldr	r2, [r3, #16]
 8002b5e:	68fb      	ldr	r3, [r7, #12]
 8002b60:	6a5b      	ldr	r3, [r3, #36]	; 0x24
 8002b62:	b2d2      	uxtb	r2, r2
 8002b64:	701a      	strb	r2, [r3, #0]

          /* Increment Buffer pointer */
          hi2c->pBuffPtr++;
 8002b66:	68fb      	ldr	r3, [r7, #12]
 8002b68:	6a5b      	ldr	r3, [r3, #36]	; 0x24
 8002b6a:	1c5a      	adds	r2, r3, #1
 8002b6c:	68fb      	ldr	r3, [r7, #12]
 8002b6e:	625a      	str	r2, [r3, #36]	; 0x24

          /* Update counter */
          hi2c->XferSize--;
 8002b70:	68fb      	ldr	r3, [r7, #12]
 8002b72:	8d1b      	ldrh	r3, [r3, #40]	; 0x28
 8002b74:	3b01      	subs	r3, #1
 8002b76:	b29a      	uxth	r2, r3
 8002b78:	68fb      	ldr	r3, [r7, #12]
 8002b7a:	851a      	strh	r2, [r3, #40]	; 0x28
          hi2c->XferCount--;
 8002b7c:	68fb      	ldr	r3, [r7, #12]
 8002b7e:	8d5b      	ldrh	r3, [r3, #42]	; 0x2a
 8002b80:	b29b      	uxth	r3, r3
 8002b82:	3b01      	subs	r3, #1
 8002b84:	b29a      	uxth	r2, r3
 8002b86:	68fb      	ldr	r3, [r7, #12]
 8002b88:	855a      	strh	r2, [r3, #42]	; 0x2a

          /* Read data from DR */
          *hi2c->pBuffPtr = (uint8_t)hi2c->Instance->DR;
 8002b8a:	68fb      	ldr	r3, [r7, #12]
 8002b8c:	681b      	ldr	r3, [r3, #0]
 8002b8e:	691a      	ldr	r2, [r3, #16]
 8002b90:	68fb      	ldr	r3, [r7, #12]
 8002b92:	6a5b      	ldr	r3, [r3, #36]	; 0x24
 8002b94:	b2d2      	uxtb	r2, r2
 8002b96:	701a      	strb	r2, [r3, #0]

          /* Increment Buffer pointer */
          hi2c->pBuffPtr++;
 8002b98:	68fb      	ldr	r3, [r7, #12]
 8002b9a:	6a5b      	ldr	r3, [r3, #36]	; 0x24
 8002b9c:	1c5a      	adds	r2, r3, #1
 8002b9e:	68fb      	ldr	r3, [r7, #12]
 8002ba0:	625a      	str	r2, [r3, #36]	; 0x24

          /* Update counter */
          hi2c->XferSize--;
 8002ba2:	68fb      	ldr	r3, [r7, #12]
 8002ba4:	8d1b      	ldrh	r3, [r3, #40]	; 0x28
 8002ba6:	3b01      	subs	r3, #1
 8002ba8:	b29a      	uxth	r2, r3
 8002baa:	68fb      	ldr	r3, [r7, #12]
 8002bac:	851a      	strh	r2, [r3, #40]	; 0x28
          hi2c->XferCount--;
 8002bae:	68fb      	ldr	r3, [r7, #12]
 8002bb0:	8d5b      	ldrh	r3, [r3, #42]	; 0x2a
 8002bb2:	b29b      	uxth	r3, r3
 8002bb4:	3b01      	subs	r3, #1
 8002bb6:	b29a      	uxth	r2, r3
 8002bb8:	68fb      	ldr	r3, [r7, #12]
 8002bba:	855a      	strh	r2, [r3, #42]	; 0x2a
 8002bbc:	e04e      	b.n	8002c5c <HAL_I2C_Master_Receive+0x430>
        }
      }
      else
      {
        /* Wait until RXNE flag is set */
        if (I2C_WaitOnRXNEFlagUntilTimeout(hi2c, Timeout, tickstart) != HAL_OK)
 8002bbe:	6a7a      	ldr	r2, [r7, #36]	; 0x24
 8002bc0:	6b39      	ldr	r1, [r7, #48]	; 0x30
 8002bc2:	68f8      	ldr	r0, [r7, #12]
 8002bc4:	f000 fb5e 	bl	8003284 <I2C_WaitOnRXNEFlagUntilTimeout>
 8002bc8:	4603      	mov	r3, r0
 8002bca:	2b00      	cmp	r3, #0
 8002bcc:	d001      	beq.n	8002bd2 <HAL_I2C_Master_Receive+0x3a6>
        {
          return HAL_ERROR;
 8002bce:	2301      	movs	r3, #1
 8002bd0:	e058      	b.n	8002c84 <HAL_I2C_Master_Receive+0x458>
        }

        /* Read data from DR */
        *hi2c->pBuffPtr = (uint8_t)hi2c->Instance->DR;
 8002bd2:	68fb      	ldr	r3, [r7, #12]
 8002bd4:	681b      	ldr	r3, [r3, #0]
 8002bd6:	691a      	ldr	r2, [r3, #16]
 8002bd8:	68fb      	ldr	r3, [r7, #12]
 8002bda:	6a5b      	ldr	r3, [r3, #36]	; 0x24
 8002bdc:	b2d2      	uxtb	r2, r2
 8002bde:	701a      	strb	r2, [r3, #0]

        /* Increment Buffer pointer */
        hi2c->pBuffPtr++;
 8002be0:	68fb      	ldr	r3, [r7, #12]
 8002be2:	6a5b      	ldr	r3, [r3, #36]	; 0x24
 8002be4:	1c5a      	adds	r2, r3, #1
 8002be6:	68fb      	ldr	r3, [r7, #12]
 8002be8:	625a      	str	r2, [r3, #36]	; 0x24

        /* Update counter */
        hi2c->XferSize--;
 8002bea:	68fb      	ldr	r3, [r7, #12]
 8002bec:	8d1b      	ldrh	r3, [r3, #40]	; 0x28
 8002bee:	3b01      	subs	r3, #1
 8002bf0:	b29a      	uxth	r2, r3
 8002bf2:	68fb      	ldr	r3, [r7, #12]
 8002bf4:	851a      	strh	r2, [r3, #40]	; 0x28
        hi2c->XferCount--;
 8002bf6:	68fb      	ldr	r3, [r7, #12]
 8002bf8:	8d5b      	ldrh	r3, [r3, #42]	; 0x2a
 8002bfa:	b29b      	uxth	r3, r3
 8002bfc:	3b01      	subs	r3, #1
 8002bfe:	b29a      	uxth	r2, r3
 8002c00:	68fb      	ldr	r3, [r7, #12]
 8002c02:	855a      	strh	r2, [r3, #42]	; 0x2a

        if (__HAL_I2C_GET_FLAG(hi2c, I2C_FLAG_BTF) == SET)
 8002c04:	68fb      	ldr	r3, [r7, #12]
 8002c06:	681b      	ldr	r3, [r3, #0]
 8002c08:	695b      	ldr	r3, [r3, #20]
 8002c0a:	f003 0304 	and.w	r3, r3, #4
 8002c0e:	2b04      	cmp	r3, #4
 8002c10:	d124      	bne.n	8002c5c <HAL_I2C_Master_Receive+0x430>
        {

          if (hi2c->XferSize == 3U)
 8002c12:	68fb      	ldr	r3, [r7, #12]
 8002c14:	8d1b      	ldrh	r3, [r3, #40]	; 0x28
 8002c16:	2b03      	cmp	r3, #3
 8002c18:	d107      	bne.n	8002c2a <HAL_I2C_Master_Receive+0x3fe>
          {
            /* Disable Acknowledge */
            CLEAR_BIT(hi2c->Instance->CR1, I2C_CR1_ACK);
 8002c1a:	68fb      	ldr	r3, [r7, #12]
 8002c1c:	681b      	ldr	r3, [r3, #0]
 8002c1e:	681a      	ldr	r2, [r3, #0]
 8002c20:	68fb      	ldr	r3, [r7, #12]
 8002c22:	681b      	ldr	r3, [r3, #0]
 8002c24:	f422 6280 	bic.w	r2, r2, #1024	; 0x400
 8002c28:	601a      	str	r2, [r3, #0]
          }

          /* Read data from DR */
          *hi2c->pBuffPtr = (uint8_t)hi2c->Instance->DR;
 8002c2a:	68fb      	ldr	r3, [r7, #12]
 8002c2c:	681b      	ldr	r3, [r3, #0]
 8002c2e:	691a      	ldr	r2, [r3, #16]
 8002c30:	68fb      	ldr	r3, [r7, #12]
 8002c32:	6a5b      	ldr	r3, [r3, #36]	; 0x24
 8002c34:	b2d2      	uxtb	r2, r2
 8002c36:	701a      	strb	r2, [r3, #0]

          /* Increment Buffer pointer */
          hi2c->pBuffPtr++;
 8002c38:	68fb      	ldr	r3, [r7, #12]
 8002c3a:	6a5b      	ldr	r3, [r3, #36]	; 0x24
 8002c3c:	1c5a      	adds	r2, r3, #1
 8002c3e:	68fb      	ldr	r3, [r7, #12]
 8002c40:	625a      	str	r2, [r3, #36]	; 0x24

          /* Update counter */
          hi2c->XferSize--;
 8002c42:	68fb      	ldr	r3, [r7, #12]
 8002c44:	8d1b      	ldrh	r3, [r3, #40]	; 0x28
 8002c46:	3b01      	subs	r3, #1
 8002c48:	b29a      	uxth	r2, r3
 8002c4a:	68fb      	ldr	r3, [r7, #12]
 8002c4c:	851a      	strh	r2, [r3, #40]	; 0x28
          hi2c->XferCount--;
 8002c4e:	68fb      	ldr	r3, [r7, #12]
 8002c50:	8d5b      	ldrh	r3, [r3, #42]	; 0x2a
 8002c52:	b29b      	uxth	r3, r3
 8002c54:	3b01      	subs	r3, #1
 8002c56:	b29a      	uxth	r2, r3
 8002c58:	68fb      	ldr	r3, [r7, #12]
 8002c5a:	855a      	strh	r2, [r3, #42]	; 0x2a
    while (hi2c->XferSize > 0U)
 8002c5c:	68fb      	ldr	r3, [r7, #12]
 8002c5e:	8d1b      	ldrh	r3, [r3, #40]	; 0x28
 8002c60:	2b00      	cmp	r3, #0
 8002c62:	f47f aeb6 	bne.w	80029d2 <HAL_I2C_Master_Receive+0x1a6>
        }
      }
    }

    hi2c->State = HAL_I2C_STATE_READY;
 8002c66:	68fb      	ldr	r3, [r7, #12]
 8002c68:	2220      	movs	r2, #32
 8002c6a:	f883 203d 	strb.w	r2, [r3, #61]	; 0x3d
    hi2c->Mode = HAL_I2C_MODE_NONE;
 8002c6e:	68fb      	ldr	r3, [r7, #12]
 8002c70:	2200      	movs	r2, #0
 8002c72:	f883 203e 	strb.w	r2, [r3, #62]	; 0x3e

    /* Process Unlocked */
    __HAL_UNLOCK(hi2c);
 8002c76:	68fb      	ldr	r3, [r7, #12]
 8002c78:	2200      	movs	r2, #0
 8002c7a:	f883 203c 	strb.w	r2, [r3, #60]	; 0x3c

    return HAL_OK;
 8002c7e:	2300      	movs	r3, #0
 8002c80:	e000      	b.n	8002c84 <HAL_I2C_Master_Receive+0x458>
  }
  else
  {
    return HAL_BUSY;
 8002c82:	2302      	movs	r3, #2
  }
}
 8002c84:	4618      	mov	r0, r3
 8002c86:	3728      	adds	r7, #40	; 0x28
 8002c88:	46bd      	mov	sp, r7
 8002c8a:	bd80      	pop	{r7, pc}
 8002c8c:	00010004 	.word	0x00010004

08002c90 <I2C_MasterRequestWrite>:
  * @param  Timeout Timeout duration
  * @param  Tickstart Tick start value
  * @retval HAL status
  */
static HAL_StatusTypeDef I2C_MasterRequestWrite(I2C_HandleTypeDef *hi2c, uint16_t DevAddress, uint32_t Timeout, uint32_t Tickstart)
{
 8002c90:	b580      	push	{r7, lr}
 8002c92:	b088      	sub	sp, #32
 8002c94:	af02      	add	r7, sp, #8
 8002c96:	60f8      	str	r0, [r7, #12]
 8002c98:	607a      	str	r2, [r7, #4]
 8002c9a:	603b      	str	r3, [r7, #0]
 8002c9c:	460b      	mov	r3, r1
 8002c9e:	817b      	strh	r3, [r7, #10]
  /* Declaration of temporary variable to prevent undefined behavior of volatile usage */
  uint32_t CurrentXferOptions = hi2c->XferOptions;
 8002ca0:	68fb      	ldr	r3, [r7, #12]
 8002ca2:	6adb      	ldr	r3, [r3, #44]	; 0x2c
 8002ca4:	617b      	str	r3, [r7, #20]

  /* Generate Start condition if first transfer */
  if ((CurrentXferOptions == I2C_FIRST_AND_LAST_FRAME) || (CurrentXferOptions == I2C_FIRST_FRAME) || (CurrentXferOptions == I2C_NO_OPTION_FRAME))
 8002ca6:	697b      	ldr	r3, [r7, #20]
 8002ca8:	2b08      	cmp	r3, #8
 8002caa:	d006      	beq.n	8002cba <I2C_MasterRequestWrite+0x2a>
 8002cac:	697b      	ldr	r3, [r7, #20]
 8002cae:	2b01      	cmp	r3, #1
 8002cb0:	d003      	beq.n	8002cba <I2C_MasterRequestWrite+0x2a>
 8002cb2:	697b      	ldr	r3, [r7, #20]
 8002cb4:	f513 3f80 	cmn.w	r3, #65536	; 0x10000
 8002cb8:	d108      	bne.n	8002ccc <I2C_MasterRequestWrite+0x3c>
  {
    /* Generate Start */
    SET_BIT(hi2c->Instance->CR1, I2C_CR1_START);
 8002cba:	68fb      	ldr	r3, [r7, #12]
 8002cbc:	681b      	ldr	r3, [r3, #0]
 8002cbe:	681a      	ldr	r2, [r3, #0]
 8002cc0:	68fb      	ldr	r3, [r7, #12]
 8002cc2:	681b      	ldr	r3, [r3, #0]
 8002cc4:	f442 7280 	orr.w	r2, r2, #256	; 0x100
 8002cc8:	601a      	str	r2, [r3, #0]
 8002cca:	e00b      	b.n	8002ce4 <I2C_MasterRequestWrite+0x54>
  }
  else if (hi2c->PreviousState == I2C_STATE_MASTER_BUSY_RX)
 8002ccc:	68fb      	ldr	r3, [r7, #12]
 8002cce:	6b1b      	ldr	r3, [r3, #48]	; 0x30
 8002cd0:	2b12      	cmp	r3, #18
 8002cd2:	d107      	bne.n	8002ce4 <I2C_MasterRequestWrite+0x54>
  {
    /* Generate ReStart */
    SET_BIT(hi2c->Instance->CR1, I2C_CR1_START);
 8002cd4:	68fb      	ldr	r3, [r7, #12]
 8002cd6:	681b      	ldr	r3, [r3, #0]
 8002cd8:	681a      	ldr	r2, [r3, #0]
 8002cda:	68fb      	ldr	r3, [r7, #12]
 8002cdc:	681b      	ldr	r3, [r3, #0]
 8002cde:	f442 7280 	orr.w	r2, r2, #256	; 0x100
 8002ce2:	601a      	str	r2, [r3, #0]
  {
    /* Do nothing */
  }

  /* Wait until SB flag is set */
  if (I2C_WaitOnFlagUntilTimeout(hi2c, I2C_FLAG_SB, RESET, Timeout, Tickstart) != HAL_OK)
 8002ce4:	683b      	ldr	r3, [r7, #0]
 8002ce6:	9300      	str	r3, [sp, #0]
 8002ce8:	687b      	ldr	r3, [r7, #4]
 8002cea:	2200      	movs	r2, #0
 8002cec:	f04f 1101 	mov.w	r1, #65537	; 0x10001
 8002cf0:	68f8      	ldr	r0, [r7, #12]
 8002cf2:	f000 f91d 	bl	8002f30 <I2C_WaitOnFlagUntilTimeout>
 8002cf6:	4603      	mov	r3, r0
 8002cf8:	2b00      	cmp	r3, #0
 8002cfa:	d00d      	beq.n	8002d18 <I2C_MasterRequestWrite+0x88>
  {
    if (READ_BIT(hi2c->Instance->CR1, I2C_CR1_START) == I2C_CR1_START)
 8002cfc:	68fb      	ldr	r3, [r7, #12]
 8002cfe:	681b      	ldr	r3, [r3, #0]
 8002d00:	681b      	ldr	r3, [r3, #0]
 8002d02:	f403 7380 	and.w	r3, r3, #256	; 0x100
 8002d06:	f5b3 7f80 	cmp.w	r3, #256	; 0x100
 8002d0a:	d103      	bne.n	8002d14 <I2C_MasterRequestWrite+0x84>
    {
      hi2c->ErrorCode = HAL_I2C_WRONG_START;
 8002d0c:	68fb      	ldr	r3, [r7, #12]
 8002d0e:	f44f 7200 	mov.w	r2, #512	; 0x200
 8002d12:	641a      	str	r2, [r3, #64]	; 0x40
    }
    return HAL_TIMEOUT;
 8002d14:	2303      	movs	r3, #3
 8002d16:	e035      	b.n	8002d84 <I2C_MasterRequestWrite+0xf4>
  }

  if (hi2c->Init.AddressingMode == I2C_ADDRESSINGMODE_7BIT)
 8002d18:	68fb      	ldr	r3, [r7, #12]
 8002d1a:	691b      	ldr	r3, [r3, #16]
 8002d1c:	f5b3 4f80 	cmp.w	r3, #16384	; 0x4000
 8002d20:	d108      	bne.n	8002d34 <I2C_MasterRequestWrite+0xa4>
  {
    /* Send slave address */
    hi2c->Instance->DR = I2C_7BIT_ADD_WRITE(DevAddress);
 8002d22:	897b      	ldrh	r3, [r7, #10]
 8002d24:	b2db      	uxtb	r3, r3
 8002d26:	461a      	mov	r2, r3
 8002d28:	68fb      	ldr	r3, [r7, #12]
 8002d2a:	681b      	ldr	r3, [r3, #0]
 8002d2c:	f002 02fe 	and.w	r2, r2, #254	; 0xfe
 8002d30:	611a      	str	r2, [r3, #16]
 8002d32:	e01b      	b.n	8002d6c <I2C_MasterRequestWrite+0xdc>
  }
  else
  {
    /* Send header of slave address */
    hi2c->Instance->DR = I2C_10BIT_HEADER_WRITE(DevAddress);
 8002d34:	897b      	ldrh	r3, [r7, #10]
 8002d36:	11db      	asrs	r3, r3, #7
 8002d38:	b2db      	uxtb	r3, r3
 8002d3a:	f003 0306 	and.w	r3, r3, #6
 8002d3e:	b2db      	uxtb	r3, r3
 8002d40:	f063 030f 	orn	r3, r3, #15
 8002d44:	b2da      	uxtb	r2, r3
 8002d46:	68fb      	ldr	r3, [r7, #12]
 8002d48:	681b      	ldr	r3, [r3, #0]
 8002d4a:	611a      	str	r2, [r3, #16]

    /* Wait until ADD10 flag is set */
    if (I2C_WaitOnMasterAddressFlagUntilTimeout(hi2c, I2C_FLAG_ADD10, Timeout, Tickstart) != HAL_OK)
 8002d4c:	683b      	ldr	r3, [r7, #0]
 8002d4e:	687a      	ldr	r2, [r7, #4]
 8002d50:	490e      	ldr	r1, [pc, #56]	; (8002d8c <I2C_MasterRequestWrite+0xfc>)
 8002d52:	68f8      	ldr	r0, [r7, #12]
 8002d54:	f000 f966 	bl	8003024 <I2C_WaitOnMasterAddressFlagUntilTimeout>
 8002d58:	4603      	mov	r3, r0
 8002d5a:	2b00      	cmp	r3, #0
 8002d5c:	d001      	beq.n	8002d62 <I2C_MasterRequestWrite+0xd2>
    {
      return HAL_ERROR;
 8002d5e:	2301      	movs	r3, #1
 8002d60:	e010      	b.n	8002d84 <I2C_MasterRequestWrite+0xf4>
    }

    /* Send slave address */
    hi2c->Instance->DR = I2C_10BIT_ADDRESS(DevAddress);
 8002d62:	897b      	ldrh	r3, [r7, #10]
 8002d64:	b2da      	uxtb	r2, r3
 8002d66:	68fb      	ldr	r3, [r7, #12]
 8002d68:	681b      	ldr	r3, [r3, #0]
 8002d6a:	611a      	str	r2, [r3, #16]
  }

  /* Wait until ADDR flag is set */
  if (I2C_WaitOnMasterAddressFlagUntilTimeout(hi2c, I2C_FLAG_ADDR, Timeout, Tickstart) != HAL_OK)
 8002d6c:	683b      	ldr	r3, [r7, #0]
 8002d6e:	687a      	ldr	r2, [r7, #4]
 8002d70:	4907      	ldr	r1, [pc, #28]	; (8002d90 <I2C_MasterRequestWrite+0x100>)
 8002d72:	68f8      	ldr	r0, [r7, #12]
 8002d74:	f000 f956 	bl	8003024 <I2C_WaitOnMasterAddressFlagUntilTimeout>
 8002d78:	4603      	mov	r3, r0
 8002d7a:	2b00      	cmp	r3, #0
 8002d7c:	d001      	beq.n	8002d82 <I2C_MasterRequestWrite+0xf2>
  {
    return HAL_ERROR;
 8002d7e:	2301      	movs	r3, #1
 8002d80:	e000      	b.n	8002d84 <I2C_MasterRequestWrite+0xf4>
  }

  return HAL_OK;
 8002d82:	2300      	movs	r3, #0
}
 8002d84:	4618      	mov	r0, r3
 8002d86:	3718      	adds	r7, #24
 8002d88:	46bd      	mov	sp, r7
 8002d8a:	bd80      	pop	{r7, pc}
 8002d8c:	00010008 	.word	0x00010008
 8002d90:	00010002 	.word	0x00010002

08002d94 <I2C_MasterRequestRead>:
  * @param  Timeout Timeout duration
  * @param  Tickstart Tick start value
  * @retval HAL status
  */
static HAL_StatusTypeDef I2C_MasterRequestRead(I2C_HandleTypeDef *hi2c, uint16_t DevAddress, uint32_t Timeout, uint32_t Tickstart)
{
 8002d94:	b580      	push	{r7, lr}
 8002d96:	b088      	sub	sp, #32
 8002d98:	af02      	add	r7, sp, #8
 8002d9a:	60f8      	str	r0, [r7, #12]
 8002d9c:	607a      	str	r2, [r7, #4]
 8002d9e:	603b      	str	r3, [r7, #0]
 8002da0:	460b      	mov	r3, r1
 8002da2:	817b      	strh	r3, [r7, #10]
  /* Declaration of temporary variable to prevent undefined behavior of volatile usage */
  uint32_t CurrentXferOptions = hi2c->XferOptions;
 8002da4:	68fb      	ldr	r3, [r7, #12]
 8002da6:	6adb      	ldr	r3, [r3, #44]	; 0x2c
 8002da8:	617b      	str	r3, [r7, #20]

  /* Enable Acknowledge */
  SET_BIT(hi2c->Instance->CR1, I2C_CR1_ACK);
 8002daa:	68fb      	ldr	r3, [r7, #12]
 8002dac:	681b      	ldr	r3, [r3, #0]
 8002dae:	681a      	ldr	r2, [r3, #0]
 8002db0:	68fb      	ldr	r3, [r7, #12]
 8002db2:	681b      	ldr	r3, [r3, #0]
 8002db4:	f442 6280 	orr.w	r2, r2, #1024	; 0x400
 8002db8:	601a      	str	r2, [r3, #0]

  /* Generate Start condition if first transfer */
  if ((CurrentXferOptions == I2C_FIRST_AND_LAST_FRAME) || (CurrentXferOptions == I2C_FIRST_FRAME)  || (CurrentXferOptions == I2C_NO_OPTION_FRAME))
 8002dba:	697b      	ldr	r3, [r7, #20]
 8002dbc:	2b08      	cmp	r3, #8
 8002dbe:	d006      	beq.n	8002dce <I2C_MasterRequestRead+0x3a>
 8002dc0:	697b      	ldr	r3, [r7, #20]
 8002dc2:	2b01      	cmp	r3, #1
 8002dc4:	d003      	beq.n	8002dce <I2C_MasterRequestRead+0x3a>
 8002dc6:	697b      	ldr	r3, [r7, #20]
 8002dc8:	f513 3f80 	cmn.w	r3, #65536	; 0x10000
 8002dcc:	d108      	bne.n	8002de0 <I2C_MasterRequestRead+0x4c>
  {
    /* Generate Start */
    SET_BIT(hi2c->Instance->CR1, I2C_CR1_START);
 8002dce:	68fb      	ldr	r3, [r7, #12]
 8002dd0:	681b      	ldr	r3, [r3, #0]
 8002dd2:	681a      	ldr	r2, [r3, #0]
 8002dd4:	68fb      	ldr	r3, [r7, #12]
 8002dd6:	681b      	ldr	r3, [r3, #0]
 8002dd8:	f442 7280 	orr.w	r2, r2, #256	; 0x100
 8002ddc:	601a      	str	r2, [r3, #0]
 8002dde:	e00b      	b.n	8002df8 <I2C_MasterRequestRead+0x64>
  }
  else if (hi2c->PreviousState == I2C_STATE_MASTER_BUSY_TX)
 8002de0:	68fb      	ldr	r3, [r7, #12]
 8002de2:	6b1b      	ldr	r3, [r3, #48]	; 0x30
 8002de4:	2b11      	cmp	r3, #17
 8002de6:	d107      	bne.n	8002df8 <I2C_MasterRequestRead+0x64>
  {
    /* Generate ReStart */
    SET_BIT(hi2c->Instance->CR1, I2C_CR1_START);
 8002de8:	68fb      	ldr	r3, [r7, #12]
 8002dea:	681b      	ldr	r3, [r3, #0]
 8002dec:	681a      	ldr	r2, [r3, #0]
 8002dee:	68fb      	ldr	r3, [r7, #12]
 8002df0:	681b      	ldr	r3, [r3, #0]
 8002df2:	f442 7280 	orr.w	r2, r2, #256	; 0x100
 8002df6:	601a      	str	r2, [r3, #0]
  {
    /* Do nothing */
  }

  /* Wait until SB flag is set */
  if (I2C_WaitOnFlagUntilTimeout(hi2c, I2C_FLAG_SB, RESET, Timeout, Tickstart) != HAL_OK)
 8002df8:	683b      	ldr	r3, [r7, #0]
 8002dfa:	9300      	str	r3, [sp, #0]
 8002dfc:	687b      	ldr	r3, [r7, #4]
 8002dfe:	2200      	movs	r2, #0
 8002e00:	f04f 1101 	mov.w	r1, #65537	; 0x10001
 8002e04:	68f8      	ldr	r0, [r7, #12]
 8002e06:	f000 f893 	bl	8002f30 <I2C_WaitOnFlagUntilTimeout>
 8002e0a:	4603      	mov	r3, r0
 8002e0c:	2b00      	cmp	r3, #0
 8002e0e:	d00d      	beq.n	8002e2c <I2C_MasterRequestRead+0x98>
  {
    if (READ_BIT(hi2c->Instance->CR1, I2C_CR1_START) == I2C_CR1_START)
 8002e10:	68fb      	ldr	r3, [r7, #12]
 8002e12:	681b      	ldr	r3, [r3, #0]
 8002e14:	681b      	ldr	r3, [r3, #0]
 8002e16:	f403 7380 	and.w	r3, r3, #256	; 0x100
 8002e1a:	f5b3 7f80 	cmp.w	r3, #256	; 0x100
 8002e1e:	d103      	bne.n	8002e28 <I2C_MasterRequestRead+0x94>
    {
      hi2c->ErrorCode = HAL_I2C_WRONG_START;
 8002e20:	68fb      	ldr	r3, [r7, #12]
 8002e22:	f44f 7200 	mov.w	r2, #512	; 0x200
 8002e26:	641a      	str	r2, [r3, #64]	; 0x40
    }
    return HAL_TIMEOUT;
 8002e28:	2303      	movs	r3, #3
 8002e2a:	e079      	b.n	8002f20 <I2C_MasterRequestRead+0x18c>
  }

  if (hi2c->Init.AddressingMode == I2C_ADDRESSINGMODE_7BIT)
 8002e2c:	68fb      	ldr	r3, [r7, #12]
 8002e2e:	691b      	ldr	r3, [r3, #16]
 8002e30:	f5b3 4f80 	cmp.w	r3, #16384	; 0x4000
 8002e34:	d108      	bne.n	8002e48 <I2C_MasterRequestRead+0xb4>
  {
    /* Send slave address */
    hi2c->Instance->DR = I2C_7BIT_ADD_READ(DevAddress);
 8002e36:	897b      	ldrh	r3, [r7, #10]
 8002e38:	b2db      	uxtb	r3, r3
 8002e3a:	f043 0301 	orr.w	r3, r3, #1
 8002e3e:	b2da      	uxtb	r2, r3
 8002e40:	68fb      	ldr	r3, [r7, #12]
 8002e42:	681b      	ldr	r3, [r3, #0]
 8002e44:	611a      	str	r2, [r3, #16]
 8002e46:	e05f      	b.n	8002f08 <I2C_MasterRequestRead+0x174>
  }
  else
  {
    /* Send header of slave address */
    hi2c->Instance->DR = I2C_10BIT_HEADER_WRITE(DevAddress);
 8002e48:	897b      	ldrh	r3, [r7, #10]
 8002e4a:	11db      	asrs	r3, r3, #7
 8002e4c:	b2db      	uxtb	r3, r3
 8002e4e:	f003 0306 	and.w	r3, r3, #6
 8002e52:	b2db      	uxtb	r3, r3
 8002e54:	f063 030f 	orn	r3, r3, #15
 8002e58:	b2da      	uxtb	r2, r3
 8002e5a:	68fb      	ldr	r3, [r7, #12]
 8002e5c:	681b      	ldr	r3, [r3, #0]
 8002e5e:	611a      	str	r2, [r3, #16]

    /* Wait until ADD10 flag is set */
    if (I2C_WaitOnMasterAddressFlagUntilTimeout(hi2c, I2C_FLAG_ADD10, Timeout, Tickstart) != HAL_OK)
 8002e60:	683b      	ldr	r3, [r7, #0]
 8002e62:	687a      	ldr	r2, [r7, #4]
 8002e64:	4930      	ldr	r1, [pc, #192]	; (8002f28 <I2C_MasterRequestRead+0x194>)
 8002e66:	68f8      	ldr	r0, [r7, #12]
 8002e68:	f000 f8dc 	bl	8003024 <I2C_WaitOnMasterAddressFlagUntilTimeout>
 8002e6c:	4603      	mov	r3, r0
 8002e6e:	2b00      	cmp	r3, #0
 8002e70:	d001      	beq.n	8002e76 <I2C_MasterRequestRead+0xe2>
    {
      return HAL_ERROR;
 8002e72:	2301      	movs	r3, #1
 8002e74:	e054      	b.n	8002f20 <I2C_MasterRequestRead+0x18c>
    }

    /* Send slave address */
    hi2c->Instance->DR = I2C_10BIT_ADDRESS(DevAddress);
 8002e76:	897b      	ldrh	r3, [r7, #10]
 8002e78:	b2da      	uxtb	r2, r3
 8002e7a:	68fb      	ldr	r3, [r7, #12]
 8002e7c:	681b      	ldr	r3, [r3, #0]
 8002e7e:	611a      	str	r2, [r3, #16]

    /* Wait until ADDR flag is set */
    if (I2C_WaitOnMasterAddressFlagUntilTimeout(hi2c, I2C_FLAG_ADDR, Timeout, Tickstart) != HAL_OK)
 8002e80:	683b      	ldr	r3, [r7, #0]
 8002e82:	687a      	ldr	r2, [r7, #4]
 8002e84:	4929      	ldr	r1, [pc, #164]	; (8002f2c <I2C_MasterRequestRead+0x198>)
 8002e86:	68f8      	ldr	r0, [r7, #12]
 8002e88:	f000 f8cc 	bl	8003024 <I2C_WaitOnMasterAddressFlagUntilTimeout>
 8002e8c:	4603      	mov	r3, r0
 8002e8e:	2b00      	cmp	r3, #0
 8002e90:	d001      	beq.n	8002e96 <I2C_MasterRequestRead+0x102>
    {
      return HAL_ERROR;
 8002e92:	2301      	movs	r3, #1
 8002e94:	e044      	b.n	8002f20 <I2C_MasterRequestRead+0x18c>
    }

    /* Clear ADDR flag */
    __HAL_I2C_CLEAR_ADDRFLAG(hi2c);
 8002e96:	2300      	movs	r3, #0
 8002e98:	613b      	str	r3, [r7, #16]
 8002e9a:	68fb      	ldr	r3, [r7, #12]
 8002e9c:	681b      	ldr	r3, [r3, #0]
 8002e9e:	695b      	ldr	r3, [r3, #20]
 8002ea0:	613b      	str	r3, [r7, #16]
 8002ea2:	68fb      	ldr	r3, [r7, #12]
 8002ea4:	681b      	ldr	r3, [r3, #0]
 8002ea6:	699b      	ldr	r3, [r3, #24]
 8002ea8:	613b      	str	r3, [r7, #16]
 8002eaa:	693b      	ldr	r3, [r7, #16]

    /* Generate Restart */
    SET_BIT(hi2c->Instance->CR1, I2C_CR1_START);
 8002eac:	68fb      	ldr	r3, [r7, #12]
 8002eae:	681b      	ldr	r3, [r3, #0]
 8002eb0:	681a      	ldr	r2, [r3, #0]
 8002eb2:	68fb      	ldr	r3, [r7, #12]
 8002eb4:	681b      	ldr	r3, [r3, #0]
 8002eb6:	f442 7280 	orr.w	r2, r2, #256	; 0x100
 8002eba:	601a      	str	r2, [r3, #0]

    /* Wait until SB flag is set */
    if (I2C_WaitOnFlagUntilTimeout(hi2c, I2C_FLAG_SB, RESET, Timeout, Tickstart) != HAL_OK)
 8002ebc:	683b      	ldr	r3, [r7, #0]
 8002ebe:	9300      	str	r3, [sp, #0]
 8002ec0:	687b      	ldr	r3, [r7, #4]
 8002ec2:	2200      	movs	r2, #0
 8002ec4:	f04f 1101 	mov.w	r1, #65537	; 0x10001
 8002ec8:	68f8      	ldr	r0, [r7, #12]
 8002eca:	f000 f831 	bl	8002f30 <I2C_WaitOnFlagUntilTimeout>
 8002ece:	4603      	mov	r3, r0
 8002ed0:	2b00      	cmp	r3, #0
 8002ed2:	d00d      	beq.n	8002ef0 <I2C_MasterRequestRead+0x15c>
    {
      if (READ_BIT(hi2c->Instance->CR1, I2C_CR1_START) == I2C_CR1_START)
 8002ed4:	68fb      	ldr	r3, [r7, #12]
 8002ed6:	681b      	ldr	r3, [r3, #0]
 8002ed8:	681b      	ldr	r3, [r3, #0]
 8002eda:	f403 7380 	and.w	r3, r3, #256	; 0x100
 8002ede:	f5b3 7f80 	cmp.w	r3, #256	; 0x100
 8002ee2:	d103      	bne.n	8002eec <I2C_MasterRequestRead+0x158>
      {
        hi2c->ErrorCode = HAL_I2C_WRONG_START;
 8002ee4:	68fb      	ldr	r3, [r7, #12]
 8002ee6:	f44f 7200 	mov.w	r2, #512	; 0x200
 8002eea:	641a      	str	r2, [r3, #64]	; 0x40
      }
      return HAL_TIMEOUT;
 8002eec:	2303      	movs	r3, #3
 8002eee:	e017      	b.n	8002f20 <I2C_MasterRequestRead+0x18c>
    }

    /* Send header of slave address */
    hi2c->Instance->DR = I2C_10BIT_HEADER_READ(DevAddress);
 8002ef0:	897b      	ldrh	r3, [r7, #10]
 8002ef2:	11db      	asrs	r3, r3, #7
 8002ef4:	b2db      	uxtb	r3, r3
 8002ef6:	f003 0306 	and.w	r3, r3, #6
 8002efa:	b2db      	uxtb	r3, r3
 8002efc:	f063 030e 	orn	r3, r3, #14
 8002f00:	b2da      	uxtb	r2, r3
 8002f02:	68fb      	ldr	r3, [r7, #12]
 8002f04:	681b      	ldr	r3, [r3, #0]
 8002f06:	611a      	str	r2, [r3, #16]
  }

  /* Wait until ADDR flag is set */
  if (I2C_WaitOnMasterAddressFlagUntilTimeout(hi2c, I2C_FLAG_ADDR, Timeout, Tickstart) != HAL_OK)
 8002f08:	683b      	ldr	r3, [r7, #0]
 8002f0a:	687a      	ldr	r2, [r7, #4]
 8002f0c:	4907      	ldr	r1, [pc, #28]	; (8002f2c <I2C_MasterRequestRead+0x198>)
 8002f0e:	68f8      	ldr	r0, [r7, #12]
 8002f10:	f000 f888 	bl	8003024 <I2C_WaitOnMasterAddressFlagUntilTimeout>
 8002f14:	4603      	mov	r3, r0
 8002f16:	2b00      	cmp	r3, #0
 8002f18:	d001      	beq.n	8002f1e <I2C_MasterRequestRead+0x18a>
  {
    return HAL_ERROR;
 8002f1a:	2301      	movs	r3, #1
 8002f1c:	e000      	b.n	8002f20 <I2C_MasterRequestRead+0x18c>
  }

  return HAL_OK;
 8002f1e:	2300      	movs	r3, #0
}
 8002f20:	4618      	mov	r0, r3
 8002f22:	3718      	adds	r7, #24
 8002f24:	46bd      	mov	sp, r7
 8002f26:	bd80      	pop	{r7, pc}
 8002f28:	00010008 	.word	0x00010008
 8002f2c:	00010002 	.word	0x00010002

08002f30 <I2C_WaitOnFlagUntilTimeout>:
  * @param  Timeout Timeout duration
  * @param  Tickstart Tick start value
  * @retval HAL status
  */
static HAL_StatusTypeDef I2C_WaitOnFlagUntilTimeout(I2C_HandleTypeDef *hi2c, uint32_t Flag, FlagStatus Status, uint32_t Timeout, uint32_t Tickstart)
{
 8002f30:	b580      	push	{r7, lr}
 8002f32:	b084      	sub	sp, #16
 8002f34:	af00      	add	r7, sp, #0
 8002f36:	60f8      	str	r0, [r7, #12]
 8002f38:	60b9      	str	r1, [r7, #8]
 8002f3a:	603b      	str	r3, [r7, #0]
 8002f3c:	4613      	mov	r3, r2
 8002f3e:	71fb      	strb	r3, [r7, #7]
  /* Wait until flag is set */
  while (__HAL_I2C_GET_FLAG(hi2c, Flag) == Status)
 8002f40:	e048      	b.n	8002fd4 <I2C_WaitOnFlagUntilTimeout+0xa4>
  {
    /* Check for the Timeout */
    if (Timeout != HAL_MAX_DELAY)
 8002f42:	683b      	ldr	r3, [r7, #0]
 8002f44:	f1b3 3fff 	cmp.w	r3, #4294967295	; 0xffffffff
 8002f48:	d044      	beq.n	8002fd4 <I2C_WaitOnFlagUntilTimeout+0xa4>
    {
      if (((HAL_GetTick() - Tickstart) > Timeout) || (Timeout == 0U))
 8002f4a:	f7fe fe85 	bl	8001c58 <HAL_GetTick>
 8002f4e:	4602      	mov	r2, r0
 8002f50:	69bb      	ldr	r3, [r7, #24]
 8002f52:	1ad3      	subs	r3, r2, r3
 8002f54:	683a      	ldr	r2, [r7, #0]
 8002f56:	429a      	cmp	r2, r3
 8002f58:	d302      	bcc.n	8002f60 <I2C_WaitOnFlagUntilTimeout+0x30>
 8002f5a:	683b      	ldr	r3, [r7, #0]
 8002f5c:	2b00      	cmp	r3, #0
 8002f5e:	d139      	bne.n	8002fd4 <I2C_WaitOnFlagUntilTimeout+0xa4>
      {
        if ((__HAL_I2C_GET_FLAG(hi2c, Flag) == Status))
 8002f60:	68bb      	ldr	r3, [r7, #8]
 8002f62:	0c1b      	lsrs	r3, r3, #16
 8002f64:	b2db      	uxtb	r3, r3
 8002f66:	2b01      	cmp	r3, #1
 8002f68:	d10d      	bne.n	8002f86 <I2C_WaitOnFlagUntilTimeout+0x56>
 8002f6a:	68fb      	ldr	r3, [r7, #12]
 8002f6c:	681b      	ldr	r3, [r3, #0]
 8002f6e:	695b      	ldr	r3, [r3, #20]
 8002f70:	43da      	mvns	r2, r3
 8002f72:	68bb      	ldr	r3, [r7, #8]
 8002f74:	4013      	ands	r3, r2
 8002f76:	b29b      	uxth	r3, r3
 8002f78:	2b00      	cmp	r3, #0
 8002f7a:	bf0c      	ite	eq
 8002f7c:	2301      	moveq	r3, #1
 8002f7e:	2300      	movne	r3, #0
 8002f80:	b2db      	uxtb	r3, r3
 8002f82:	461a      	mov	r2, r3
 8002f84:	e00c      	b.n	8002fa0 <I2C_WaitOnFlagUntilTimeout+0x70>
 8002f86:	68fb      	ldr	r3, [r7, #12]
 8002f88:	681b      	ldr	r3, [r3, #0]
 8002f8a:	699b      	ldr	r3, [r3, #24]
 8002f8c:	43da      	mvns	r2, r3
 8002f8e:	68bb      	ldr	r3, [r7, #8]
 8002f90:	4013      	ands	r3, r2
 8002f92:	b29b      	uxth	r3, r3
 8002f94:	2b00      	cmp	r3, #0
 8002f96:	bf0c      	ite	eq
 8002f98:	2301      	moveq	r3, #1
 8002f9a:	2300      	movne	r3, #0
 8002f9c:	b2db      	uxtb	r3, r3
 8002f9e:	461a      	mov	r2, r3
 8002fa0:	79fb      	ldrb	r3, [r7, #7]
 8002fa2:	429a      	cmp	r2, r3
 8002fa4:	d116      	bne.n	8002fd4 <I2C_WaitOnFlagUntilTimeout+0xa4>
        {
          hi2c->PreviousState     = I2C_STATE_NONE;
 8002fa6:	68fb      	ldr	r3, [r7, #12]
 8002fa8:	2200      	movs	r2, #0
 8002faa:	631a      	str	r2, [r3, #48]	; 0x30
          hi2c->State             = HAL_I2C_STATE_READY;
 8002fac:	68fb      	ldr	r3, [r7, #12]
 8002fae:	2220      	movs	r2, #32
 8002fb0:	f883 203d 	strb.w	r2, [r3, #61]	; 0x3d
          hi2c->Mode              = HAL_I2C_MODE_NONE;
 8002fb4:	68fb      	ldr	r3, [r7, #12]
 8002fb6:	2200      	movs	r2, #0
 8002fb8:	f883 203e 	strb.w	r2, [r3, #62]	; 0x3e
          hi2c->ErrorCode         |= HAL_I2C_ERROR_TIMEOUT;
 8002fbc:	68fb      	ldr	r3, [r7, #12]
 8002fbe:	6c1b      	ldr	r3, [r3, #64]	; 0x40
 8002fc0:	f043 0220 	orr.w	r2, r3, #32
 8002fc4:	68fb      	ldr	r3, [r7, #12]
 8002fc6:	641a      	str	r2, [r3, #64]	; 0x40

          /* Process Unlocked */
          __HAL_UNLOCK(hi2c);
 8002fc8:	68fb      	ldr	r3, [r7, #12]
 8002fca:	2200      	movs	r2, #0
 8002fcc:	f883 203c 	strb.w	r2, [r3, #60]	; 0x3c

          return HAL_ERROR;
 8002fd0:	2301      	movs	r3, #1
 8002fd2:	e023      	b.n	800301c <I2C_WaitOnFlagUntilTimeout+0xec>
  while (__HAL_I2C_GET_FLAG(hi2c, Flag) == Status)
 8002fd4:	68bb      	ldr	r3, [r7, #8]
 8002fd6:	0c1b      	lsrs	r3, r3, #16
 8002fd8:	b2db      	uxtb	r3, r3
 8002fda:	2b01      	cmp	r3, #1
 8002fdc:	d10d      	bne.n	8002ffa <I2C_WaitOnFlagUntilTimeout+0xca>
 8002fde:	68fb      	ldr	r3, [r7, #12]
 8002fe0:	681b      	ldr	r3, [r3, #0]
 8002fe2:	695b      	ldr	r3, [r3, #20]
 8002fe4:	43da      	mvns	r2, r3
 8002fe6:	68bb      	ldr	r3, [r7, #8]
 8002fe8:	4013      	ands	r3, r2
 8002fea:	b29b      	uxth	r3, r3
 8002fec:	2b00      	cmp	r3, #0
 8002fee:	bf0c      	ite	eq
 8002ff0:	2301      	moveq	r3, #1
 8002ff2:	2300      	movne	r3, #0
 8002ff4:	b2db      	uxtb	r3, r3
 8002ff6:	461a      	mov	r2, r3
 8002ff8:	e00c      	b.n	8003014 <I2C_WaitOnFlagUntilTimeout+0xe4>
 8002ffa:	68fb      	ldr	r3, [r7, #12]
 8002ffc:	681b      	ldr	r3, [r3, #0]
 8002ffe:	699b      	ldr	r3, [r3, #24]
 8003000:	43da      	mvns	r2, r3
 8003002:	68bb      	ldr	r3, [r7, #8]
 8003004:	4013      	ands	r3, r2
 8003006:	b29b      	uxth	r3, r3
 8003008:	2b00      	cmp	r3, #0
 800300a:	bf0c      	ite	eq
 800300c:	2301      	moveq	r3, #1
 800300e:	2300      	movne	r3, #0
 8003010:	b2db      	uxtb	r3, r3
 8003012:	461a      	mov	r2, r3
 8003014:	79fb      	ldrb	r3, [r7, #7]
 8003016:	429a      	cmp	r2, r3
 8003018:	d093      	beq.n	8002f42 <I2C_WaitOnFlagUntilTimeout+0x12>
        }
      }
    }
  }
  return HAL_OK;
 800301a:	2300      	movs	r3, #0
}
 800301c:	4618      	mov	r0, r3
 800301e:	3710      	adds	r7, #16
 8003020:	46bd      	mov	sp, r7
 8003022:	bd80      	pop	{r7, pc}

08003024 <I2C_WaitOnMasterAddressFlagUntilTimeout>:
  * @param  Timeout Timeout duration
  * @param  Tickstart Tick start value
  * @retval HAL status
  */
static HAL_StatusTypeDef I2C_WaitOnMasterAddressFlagUntilTimeout(I2C_HandleTypeDef *hi2c, uint32_t Flag, uint32_t Timeout, uint32_t Tickstart)
{
 8003024:	b580      	push	{r7, lr}
 8003026:	b084      	sub	sp, #16
 8003028:	af00      	add	r7, sp, #0
 800302a:	60f8      	str	r0, [r7, #12]
 800302c:	60b9      	str	r1, [r7, #8]
 800302e:	607a      	str	r2, [r7, #4]
 8003030:	603b      	str	r3, [r7, #0]
  while (__HAL_I2C_GET_FLAG(hi2c, Flag) == RESET)
 8003032:	e071      	b.n	8003118 <I2C_WaitOnMasterAddressFlagUntilTimeout+0xf4>
  {
    if (__HAL_I2C_GET_FLAG(hi2c, I2C_FLAG_AF) == SET)
 8003034:	68fb      	ldr	r3, [r7, #12]
 8003036:	681b      	ldr	r3, [r3, #0]
 8003038:	695b      	ldr	r3, [r3, #20]
 800303a:	f403 6380 	and.w	r3, r3, #1024	; 0x400
 800303e:	f5b3 6f80 	cmp.w	r3, #1024	; 0x400
 8003042:	d123      	bne.n	800308c <I2C_WaitOnMasterAddressFlagUntilTimeout+0x68>
    {
      /* Generate Stop */
      SET_BIT(hi2c->Instance->CR1, I2C_CR1_STOP);
 8003044:	68fb      	ldr	r3, [r7, #12]
 8003046:	681b      	ldr	r3, [r3, #0]
 8003048:	681a      	ldr	r2, [r3, #0]
 800304a:	68fb      	ldr	r3, [r7, #12]
 800304c:	681b      	ldr	r3, [r3, #0]
 800304e:	f442 7200 	orr.w	r2, r2, #512	; 0x200
 8003052:	601a      	str	r2, [r3, #0]

      /* Clear AF Flag */
      __HAL_I2C_CLEAR_FLAG(hi2c, I2C_FLAG_AF);
 8003054:	68fb      	ldr	r3, [r7, #12]
 8003056:	681b      	ldr	r3, [r3, #0]
 8003058:	f46f 6280 	mvn.w	r2, #1024	; 0x400
 800305c:	615a      	str	r2, [r3, #20]

      hi2c->PreviousState       = I2C_STATE_NONE;
 800305e:	68fb      	ldr	r3, [r7, #12]
 8003060:	2200      	movs	r2, #0
 8003062:	631a      	str	r2, [r3, #48]	; 0x30
      hi2c->State               = HAL_I2C_STATE_READY;
 8003064:	68fb      	ldr	r3, [r7, #12]
 8003066:	2220      	movs	r2, #32
 8003068:	f883 203d 	strb.w	r2, [r3, #61]	; 0x3d
      hi2c->Mode                = HAL_I2C_MODE_NONE;
 800306c:	68fb      	ldr	r3, [r7, #12]
 800306e:	2200      	movs	r2, #0
 8003070:	f883 203e 	strb.w	r2, [r3, #62]	; 0x3e
      hi2c->ErrorCode           |= HAL_I2C_ERROR_AF;
 8003074:	68fb      	ldr	r3, [r7, #12]
 8003076:	6c1b      	ldr	r3, [r3, #64]	; 0x40
 8003078:	f043 0204 	orr.w	r2, r3, #4
 800307c:	68fb      	ldr	r3, [r7, #12]
 800307e:	641a      	str	r2, [r3, #64]	; 0x40

      /* Process Unlocked */
      __HAL_UNLOCK(hi2c);
 8003080:	68fb      	ldr	r3, [r7, #12]
 8003082:	2200      	movs	r2, #0
 8003084:	f883 203c 	strb.w	r2, [r3, #60]	; 0x3c

      return HAL_ERROR;
 8003088:	2301      	movs	r3, #1
 800308a:	e067      	b.n	800315c <I2C_WaitOnMasterAddressFlagUntilTimeout+0x138>
    }

    /* Check for the Timeout */
    if (Timeout != HAL_MAX_DELAY)
 800308c:	687b      	ldr	r3, [r7, #4]
 800308e:	f1b3 3fff 	cmp.w	r3, #4294967295	; 0xffffffff
 8003092:	d041      	beq.n	8003118 <I2C_WaitOnMasterAddressFlagUntilTimeout+0xf4>
    {
      if (((HAL_GetTick() - Tickstart) > Timeout) || (Timeout == 0U))
 8003094:	f7fe fde0 	bl	8001c58 <HAL_GetTick>
 8003098:	4602      	mov	r2, r0
 800309a:	683b      	ldr	r3, [r7, #0]
 800309c:	1ad3      	subs	r3, r2, r3
 800309e:	687a      	ldr	r2, [r7, #4]
 80030a0:	429a      	cmp	r2, r3
 80030a2:	d302      	bcc.n	80030aa <I2C_WaitOnMasterAddressFlagUntilTimeout+0x86>
 80030a4:	687b      	ldr	r3, [r7, #4]
 80030a6:	2b00      	cmp	r3, #0
 80030a8:	d136      	bne.n	8003118 <I2C_WaitOnMasterAddressFlagUntilTimeout+0xf4>
      {
        if ((__HAL_I2C_GET_FLAG(hi2c, Flag) == RESET))
 80030aa:	68bb      	ldr	r3, [r7, #8]
 80030ac:	0c1b      	lsrs	r3, r3, #16
 80030ae:	b2db      	uxtb	r3, r3
 80030b0:	2b01      	cmp	r3, #1
 80030b2:	d10c      	bne.n	80030ce <I2C_WaitOnMasterAddressFlagUntilTimeout+0xaa>
 80030b4:	68fb      	ldr	r3, [r7, #12]
 80030b6:	681b      	ldr	r3, [r3, #0]
 80030b8:	695b      	ldr	r3, [r3, #20]
 80030ba:	43da      	mvns	r2, r3
 80030bc:	68bb      	ldr	r3, [r7, #8]
 80030be:	4013      	ands	r3, r2
 80030c0:	b29b      	uxth	r3, r3
 80030c2:	2b00      	cmp	r3, #0
 80030c4:	bf14      	ite	ne
 80030c6:	2301      	movne	r3, #1
 80030c8:	2300      	moveq	r3, #0
 80030ca:	b2db      	uxtb	r3, r3
 80030cc:	e00b      	b.n	80030e6 <I2C_WaitOnMasterAddressFlagUntilTimeout+0xc2>
 80030ce:	68fb      	ldr	r3, [r7, #12]
 80030d0:	681b      	ldr	r3, [r3, #0]
 80030d2:	699b      	ldr	r3, [r3, #24]
 80030d4:	43da      	mvns	r2, r3
 80030d6:	68bb      	ldr	r3, [r7, #8]
 80030d8:	4013      	ands	r3, r2
 80030da:	b29b      	uxth	r3, r3
 80030dc:	2b00      	cmp	r3, #0
 80030de:	bf14      	ite	ne
 80030e0:	2301      	movne	r3, #1
 80030e2:	2300      	moveq	r3, #0
 80030e4:	b2db      	uxtb	r3, r3
 80030e6:	2b00      	cmp	r3, #0
 80030e8:	d016      	beq.n	8003118 <I2C_WaitOnMasterAddressFlagUntilTimeout+0xf4>
        {
          hi2c->PreviousState       = I2C_STATE_NONE;
 80030ea:	68fb      	ldr	r3, [r7, #12]
 80030ec:	2200      	movs	r2, #0
 80030ee:	631a      	str	r2, [r3, #48]	; 0x30
          hi2c->State               = HAL_I2C_STATE_READY;
 80030f0:	68fb      	ldr	r3, [r7, #12]
 80030f2:	2220      	movs	r2, #32
 80030f4:	f883 203d 	strb.w	r2, [r3, #61]	; 0x3d
          hi2c->Mode                = HAL_I2C_MODE_NONE;
 80030f8:	68fb      	ldr	r3, [r7, #12]
 80030fa:	2200      	movs	r2, #0
 80030fc:	f883 203e 	strb.w	r2, [r3, #62]	; 0x3e
          hi2c->ErrorCode           |= HAL_I2C_ERROR_TIMEOUT;
 8003100:	68fb      	ldr	r3, [r7, #12]
 8003102:	6c1b      	ldr	r3, [r3, #64]	; 0x40
 8003104:	f043 0220 	orr.w	r2, r3, #32
 8003108:	68fb      	ldr	r3, [r7, #12]
 800310a:	641a      	str	r2, [r3, #64]	; 0x40

          /* Process Unlocked */
          __HAL_UNLOCK(hi2c);
 800310c:	68fb      	ldr	r3, [r7, #12]
 800310e:	2200      	movs	r2, #0
 8003110:	f883 203c 	strb.w	r2, [r3, #60]	; 0x3c

          return HAL_ERROR;
 8003114:	2301      	movs	r3, #1
 8003116:	e021      	b.n	800315c <I2C_WaitOnMasterAddressFlagUntilTimeout+0x138>
  while (__HAL_I2C_GET_FLAG(hi2c, Flag) == RESET)
 8003118:	68bb      	ldr	r3, [r7, #8]
 800311a:	0c1b      	lsrs	r3, r3, #16
 800311c:	b2db      	uxtb	r3, r3
 800311e:	2b01      	cmp	r3, #1
 8003120:	d10c      	bne.n	800313c <I2C_WaitOnMasterAddressFlagUntilTimeout+0x118>
 8003122:	68fb      	ldr	r3, [r7, #12]
 8003124:	681b      	ldr	r3, [r3, #0]
 8003126:	695b      	ldr	r3, [r3, #20]
 8003128:	43da      	mvns	r2, r3
 800312a:	68bb      	ldr	r3, [r7, #8]
 800312c:	4013      	ands	r3, r2
 800312e:	b29b      	uxth	r3, r3
 8003130:	2b00      	cmp	r3, #0
 8003132:	bf14      	ite	ne
 8003134:	2301      	movne	r3, #1
 8003136:	2300      	moveq	r3, #0
 8003138:	b2db      	uxtb	r3, r3
 800313a:	e00b      	b.n	8003154 <I2C_WaitOnMasterAddressFlagUntilTimeout+0x130>
 800313c:	68fb      	ldr	r3, [r7, #12]
 800313e:	681b      	ldr	r3, [r3, #0]
 8003140:	699b      	ldr	r3, [r3, #24]
 8003142:	43da      	mvns	r2, r3
 8003144:	68bb      	ldr	r3, [r7, #8]
 8003146:	4013      	ands	r3, r2
 8003148:	b29b      	uxth	r3, r3
 800314a:	2b00      	cmp	r3, #0
 800314c:	bf14      	ite	ne
 800314e:	2301      	movne	r3, #1
 8003150:	2300      	moveq	r3, #0
 8003152:	b2db      	uxtb	r3, r3
 8003154:	2b00      	cmp	r3, #0
 8003156:	f47f af6d 	bne.w	8003034 <I2C_WaitOnMasterAddressFlagUntilTimeout+0x10>
        }
      }
    }
  }
  return HAL_OK;
 800315a:	2300      	movs	r3, #0
}
 800315c:	4618      	mov	r0, r3
 800315e:	3710      	adds	r7, #16
 8003160:	46bd      	mov	sp, r7
 8003162:	bd80      	pop	{r7, pc}

08003164 <I2C_WaitOnTXEFlagUntilTimeout>:
  * @param  Timeout Timeout duration
  * @param  Tickstart Tick start value
  * @retval HAL status
  */
static HAL_StatusTypeDef I2C_WaitOnTXEFlagUntilTimeout(I2C_HandleTypeDef *hi2c, uint32_t Timeout, uint32_t Tickstart)
{
 8003164:	b580      	push	{r7, lr}
 8003166:	b084      	sub	sp, #16
 8003168:	af00      	add	r7, sp, #0
 800316a:	60f8      	str	r0, [r7, #12]
 800316c:	60b9      	str	r1, [r7, #8]
 800316e:	607a      	str	r2, [r7, #4]
  while (__HAL_I2C_GET_FLAG(hi2c, I2C_FLAG_TXE) == RESET)
 8003170:	e034      	b.n	80031dc <I2C_WaitOnTXEFlagUntilTimeout+0x78>
  {
    /* Check if a NACK is detected */
    if (I2C_IsAcknowledgeFailed(hi2c) != HAL_OK)
 8003172:	68f8      	ldr	r0, [r7, #12]
 8003174:	f000 f8e3 	bl	800333e <I2C_IsAcknowledgeFailed>
 8003178:	4603      	mov	r3, r0
 800317a:	2b00      	cmp	r3, #0
 800317c:	d001      	beq.n	8003182 <I2C_WaitOnTXEFlagUntilTimeout+0x1e>
    {
      return HAL_ERROR;
 800317e:	2301      	movs	r3, #1
 8003180:	e034      	b.n	80031ec <I2C_WaitOnTXEFlagUntilTimeout+0x88>
    }

    /* Check for the Timeout */
    if (Timeout != HAL_MAX_DELAY)
 8003182:	68bb      	ldr	r3, [r7, #8]
 8003184:	f1b3 3fff 	cmp.w	r3, #4294967295	; 0xffffffff
 8003188:	d028      	beq.n	80031dc <I2C_WaitOnTXEFlagUntilTimeout+0x78>
    {
      if (((HAL_GetTick() - Tickstart) > Timeout) || (Timeout == 0U))
 800318a:	f7fe fd65 	bl	8001c58 <HAL_GetTick>
 800318e:	4602      	mov	r2, r0
 8003190:	687b      	ldr	r3, [r7, #4]
 8003192:	1ad3      	subs	r3, r2, r3
 8003194:	68ba      	ldr	r2, [r7, #8]
 8003196:	429a      	cmp	r2, r3
 8003198:	d302      	bcc.n	80031a0 <I2C_WaitOnTXEFlagUntilTimeout+0x3c>
 800319a:	68bb      	ldr	r3, [r7, #8]
 800319c:	2b00      	cmp	r3, #0
 800319e:	d11d      	bne.n	80031dc <I2C_WaitOnTXEFlagUntilTimeout+0x78>
      {
        if ((__HAL_I2C_GET_FLAG(hi2c, I2C_FLAG_TXE) == RESET))
 80031a0:	68fb      	ldr	r3, [r7, #12]
 80031a2:	681b      	ldr	r3, [r3, #0]
 80031a4:	695b      	ldr	r3, [r3, #20]
 80031a6:	f003 0380 	and.w	r3, r3, #128	; 0x80
 80031aa:	2b80      	cmp	r3, #128	; 0x80
 80031ac:	d016      	beq.n	80031dc <I2C_WaitOnTXEFlagUntilTimeout+0x78>
        {
          hi2c->PreviousState       = I2C_STATE_NONE;
 80031ae:	68fb      	ldr	r3, [r7, #12]
 80031b0:	2200      	movs	r2, #0
 80031b2:	631a      	str	r2, [r3, #48]	; 0x30
          hi2c->State               = HAL_I2C_STATE_READY;
 80031b4:	68fb      	ldr	r3, [r7, #12]
 80031b6:	2220      	movs	r2, #32
 80031b8:	f883 203d 	strb.w	r2, [r3, #61]	; 0x3d
          hi2c->Mode                = HAL_I2C_MODE_NONE;
 80031bc:	68fb      	ldr	r3, [r7, #12]
 80031be:	2200      	movs	r2, #0
 80031c0:	f883 203e 	strb.w	r2, [r3, #62]	; 0x3e
          hi2c->ErrorCode           |= HAL_I2C_ERROR_TIMEOUT;
 80031c4:	68fb      	ldr	r3, [r7, #12]
 80031c6:	6c1b      	ldr	r3, [r3, #64]	; 0x40
 80031c8:	f043 0220 	orr.w	r2, r3, #32
 80031cc:	68fb      	ldr	r3, [r7, #12]
 80031ce:	641a      	str	r2, [r3, #64]	; 0x40

          /* Process Unlocked */
          __HAL_UNLOCK(hi2c);
 80031d0:	68fb      	ldr	r3, [r7, #12]
 80031d2:	2200      	movs	r2, #0
 80031d4:	f883 203c 	strb.w	r2, [r3, #60]	; 0x3c

          return HAL_ERROR;
 80031d8:	2301      	movs	r3, #1
 80031da:	e007      	b.n	80031ec <I2C_WaitOnTXEFlagUntilTimeout+0x88>
  while (__HAL_I2C_GET_FLAG(hi2c, I2C_FLAG_TXE) == RESET)
 80031dc:	68fb      	ldr	r3, [r7, #12]
 80031de:	681b      	ldr	r3, [r3, #0]
 80031e0:	695b      	ldr	r3, [r3, #20]
 80031e2:	f003 0380 	and.w	r3, r3, #128	; 0x80
 80031e6:	2b80      	cmp	r3, #128	; 0x80
 80031e8:	d1c3      	bne.n	8003172 <I2C_WaitOnTXEFlagUntilTimeout+0xe>
        }
      }
    }
  }
  return HAL_OK;
 80031ea:	2300      	movs	r3, #0
}
 80031ec:	4618      	mov	r0, r3
 80031ee:	3710      	adds	r7, #16
 80031f0:	46bd      	mov	sp, r7
 80031f2:	bd80      	pop	{r7, pc}

080031f4 <I2C_WaitOnBTFFlagUntilTimeout>:
  * @param  Timeout Timeout duration
  * @param  Tickstart Tick start value
  * @retval HAL status
  */
static HAL_StatusTypeDef I2C_WaitOnBTFFlagUntilTimeout(I2C_HandleTypeDef *hi2c, uint32_t Timeout, uint32_t Tickstart)
{
 80031f4:	b580      	push	{r7, lr}
 80031f6:	b084      	sub	sp, #16
 80031f8:	af00      	add	r7, sp, #0
 80031fa:	60f8      	str	r0, [r7, #12]
 80031fc:	60b9      	str	r1, [r7, #8]
 80031fe:	607a      	str	r2, [r7, #4]
  while (__HAL_I2C_GET_FLAG(hi2c, I2C_FLAG_BTF) == RESET)
 8003200:	e034      	b.n	800326c <I2C_WaitOnBTFFlagUntilTimeout+0x78>
  {
    /* Check if a NACK is detected */
    if (I2C_IsAcknowledgeFailed(hi2c) != HAL_OK)
 8003202:	68f8      	ldr	r0, [r7, #12]
 8003204:	f000 f89b 	bl	800333e <I2C_IsAcknowledgeFailed>
 8003208:	4603      	mov	r3, r0
 800320a:	2b00      	cmp	r3, #0
 800320c:	d001      	beq.n	8003212 <I2C_WaitOnBTFFlagUntilTimeout+0x1e>
    {
      return HAL_ERROR;
 800320e:	2301      	movs	r3, #1
 8003210:	e034      	b.n	800327c <I2C_WaitOnBTFFlagUntilTimeout+0x88>
    }

    /* Check for the Timeout */
    if (Timeout != HAL_MAX_DELAY)
 8003212:	68bb      	ldr	r3, [r7, #8]
 8003214:	f1b3 3fff 	cmp.w	r3, #4294967295	; 0xffffffff
 8003218:	d028      	beq.n	800326c <I2C_WaitOnBTFFlagUntilTimeout+0x78>
    {
      if (((HAL_GetTick() - Tickstart) > Timeout) || (Timeout == 0U))
 800321a:	f7fe fd1d 	bl	8001c58 <HAL_GetTick>
 800321e:	4602      	mov	r2, r0
 8003220:	687b      	ldr	r3, [r7, #4]
 8003222:	1ad3      	subs	r3, r2, r3
 8003224:	68ba      	ldr	r2, [r7, #8]
 8003226:	429a      	cmp	r2, r3
 8003228:	d302      	bcc.n	8003230 <I2C_WaitOnBTFFlagUntilTimeout+0x3c>
 800322a:	68bb      	ldr	r3, [r7, #8]
 800322c:	2b00      	cmp	r3, #0
 800322e:	d11d      	bne.n	800326c <I2C_WaitOnBTFFlagUntilTimeout+0x78>
      {
        if ((__HAL_I2C_GET_FLAG(hi2c, I2C_FLAG_BTF) == RESET))
 8003230:	68fb      	ldr	r3, [r7, #12]
 8003232:	681b      	ldr	r3, [r3, #0]
 8003234:	695b      	ldr	r3, [r3, #20]
 8003236:	f003 0304 	and.w	r3, r3, #4
 800323a:	2b04      	cmp	r3, #4
 800323c:	d016      	beq.n	800326c <I2C_WaitOnBTFFlagUntilTimeout+0x78>
        {
          hi2c->PreviousState       = I2C_STATE_NONE;
 800323e:	68fb      	ldr	r3, [r7, #12]
 8003240:	2200      	movs	r2, #0
 8003242:	631a      	str	r2, [r3, #48]	; 0x30
          hi2c->State               = HAL_I2C_STATE_READY;
 8003244:	68fb      	ldr	r3, [r7, #12]
 8003246:	2220      	movs	r2, #32
 8003248:	f883 203d 	strb.w	r2, [r3, #61]	; 0x3d
          hi2c->Mode                = HAL_I2C_MODE_NONE;
 800324c:	68fb      	ldr	r3, [r7, #12]
 800324e:	2200      	movs	r2, #0
 8003250:	f883 203e 	strb.w	r2, [r3, #62]	; 0x3e
          hi2c->ErrorCode           |= HAL_I2C_ERROR_TIMEOUT;
 8003254:	68fb      	ldr	r3, [r7, #12]
 8003256:	6c1b      	ldr	r3, [r3, #64]	; 0x40
 8003258:	f043 0220 	orr.w	r2, r3, #32
 800325c:	68fb      	ldr	r3, [r7, #12]
 800325e:	641a      	str	r2, [r3, #64]	; 0x40

          /* Process Unlocked */
          __HAL_UNLOCK(hi2c);
 8003260:	68fb      	ldr	r3, [r7, #12]
 8003262:	2200      	movs	r2, #0
 8003264:	f883 203c 	strb.w	r2, [r3, #60]	; 0x3c

          return HAL_ERROR;
 8003268:	2301      	movs	r3, #1
 800326a:	e007      	b.n	800327c <I2C_WaitOnBTFFlagUntilTimeout+0x88>
  while (__HAL_I2C_GET_FLAG(hi2c, I2C_FLAG_BTF) == RESET)
 800326c:	68fb      	ldr	r3, [r7, #12]
 800326e:	681b      	ldr	r3, [r3, #0]
 8003270:	695b      	ldr	r3, [r3, #20]
 8003272:	f003 0304 	and.w	r3, r3, #4
 8003276:	2b04      	cmp	r3, #4
 8003278:	d1c3      	bne.n	8003202 <I2C_WaitOnBTFFlagUntilTimeout+0xe>
        }
      }
    }
  }
  return HAL_OK;
 800327a:	2300      	movs	r3, #0
}
 800327c:	4618      	mov	r0, r3
 800327e:	3710      	adds	r7, #16
 8003280:	46bd      	mov	sp, r7
 8003282:	bd80      	pop	{r7, pc}

08003284 <I2C_WaitOnRXNEFlagUntilTimeout>:
  * @param  Timeout Timeout duration
  * @param  Tickstart Tick start value
  * @retval HAL status
  */
static HAL_StatusTypeDef I2C_WaitOnRXNEFlagUntilTimeout(I2C_HandleTypeDef *hi2c, uint32_t Timeout, uint32_t Tickstart)
{
 8003284:	b580      	push	{r7, lr}
 8003286:	b084      	sub	sp, #16
 8003288:	af00      	add	r7, sp, #0
 800328a:	60f8      	str	r0, [r7, #12]
 800328c:	60b9      	str	r1, [r7, #8]
 800328e:	607a      	str	r2, [r7, #4]

  while (__HAL_I2C_GET_FLAG(hi2c, I2C_FLAG_RXNE) == RESET)
 8003290:	e049      	b.n	8003326 <I2C_WaitOnRXNEFlagUntilTimeout+0xa2>
  {
    /* Check if a STOPF is detected */
    if (__HAL_I2C_GET_FLAG(hi2c, I2C_FLAG_STOPF) == SET)
 8003292:	68fb      	ldr	r3, [r7, #12]
 8003294:	681b      	ldr	r3, [r3, #0]
 8003296:	695b      	ldr	r3, [r3, #20]
 8003298:	f003 0310 	and.w	r3, r3, #16
 800329c:	2b10      	cmp	r3, #16
 800329e:	d119      	bne.n	80032d4 <I2C_WaitOnRXNEFlagUntilTimeout+0x50>
    {
      /* Clear STOP Flag */
      __HAL_I2C_CLEAR_FLAG(hi2c, I2C_FLAG_STOPF);
 80032a0:	68fb      	ldr	r3, [r7, #12]
 80032a2:	681b      	ldr	r3, [r3, #0]
 80032a4:	f06f 0210 	mvn.w	r2, #16
 80032a8:	615a      	str	r2, [r3, #20]

      hi2c->PreviousState       = I2C_STATE_NONE;
 80032aa:	68fb      	ldr	r3, [r7, #12]
 80032ac:	2200      	movs	r2, #0
 80032ae:	631a      	str	r2, [r3, #48]	; 0x30
      hi2c->State               = HAL_I2C_STATE_READY;
 80032b0:	68fb      	ldr	r3, [r7, #12]
 80032b2:	2220      	movs	r2, #32
 80032b4:	f883 203d 	strb.w	r2, [r3, #61]	; 0x3d
      hi2c->Mode                = HAL_I2C_MODE_NONE;
 80032b8:	68fb      	ldr	r3, [r7, #12]
 80032ba:	2200      	movs	r2, #0
 80032bc:	f883 203e 	strb.w	r2, [r3, #62]	; 0x3e
      hi2c->ErrorCode           |= HAL_I2C_ERROR_NONE;
 80032c0:	68fb      	ldr	r3, [r7, #12]
 80032c2:	6c1a      	ldr	r2, [r3, #64]	; 0x40
 80032c4:	68fb      	ldr	r3, [r7, #12]
 80032c6:	641a      	str	r2, [r3, #64]	; 0x40

      /* Process Unlocked */
      __HAL_UNLOCK(hi2c);
 80032c8:	68fb      	ldr	r3, [r7, #12]
 80032ca:	2200      	movs	r2, #0
 80032cc:	f883 203c 	strb.w	r2, [r3, #60]	; 0x3c

      return HAL_ERROR;
 80032d0:	2301      	movs	r3, #1
 80032d2:	e030      	b.n	8003336 <I2C_WaitOnRXNEFlagUntilTimeout+0xb2>
    }

    /* Check for the Timeout */
    if (((HAL_GetTick() - Tickstart) > Timeout) || (Timeout == 0U))
 80032d4:	f7fe fcc0 	bl	8001c58 <HAL_GetTick>
 80032d8:	4602      	mov	r2, r0
 80032da:	687b      	ldr	r3, [r7, #4]
 80032dc:	1ad3      	subs	r3, r2, r3
 80032de:	68ba      	ldr	r2, [r7, #8]
 80032e0:	429a      	cmp	r2, r3
 80032e2:	d302      	bcc.n	80032ea <I2C_WaitOnRXNEFlagUntilTimeout+0x66>
 80032e4:	68bb      	ldr	r3, [r7, #8]
 80032e6:	2b00      	cmp	r3, #0
 80032e8:	d11d      	bne.n	8003326 <I2C_WaitOnRXNEFlagUntilTimeout+0xa2>
    {
      if ((__HAL_I2C_GET_FLAG(hi2c, I2C_FLAG_RXNE) == RESET))
 80032ea:	68fb      	ldr	r3, [r7, #12]
 80032ec:	681b      	ldr	r3, [r3, #0]
 80032ee:	695b      	ldr	r3, [r3, #20]
 80032f0:	f003 0340 	and.w	r3, r3, #64	; 0x40
 80032f4:	2b40      	cmp	r3, #64	; 0x40
 80032f6:	d016      	beq.n	8003326 <I2C_WaitOnRXNEFlagUntilTimeout+0xa2>
      {
        hi2c->PreviousState       = I2C_STATE_NONE;
 80032f8:	68fb      	ldr	r3, [r7, #12]
 80032fa:	2200      	movs	r2, #0
 80032fc:	631a      	str	r2, [r3, #48]	; 0x30
        hi2c->State               = HAL_I2C_STATE_READY;
 80032fe:	68fb      	ldr	r3, [r7, #12]
 8003300:	2220      	movs	r2, #32
 8003302:	f883 203d 	strb.w	r2, [r3, #61]	; 0x3d
        hi2c->Mode                = HAL_I2C_MODE_NONE;
 8003306:	68fb      	ldr	r3, [r7, #12]
 8003308:	2200      	movs	r2, #0
 800330a:	f883 203e 	strb.w	r2, [r3, #62]	; 0x3e
        hi2c->ErrorCode           |= HAL_I2C_ERROR_TIMEOUT;
 800330e:	68fb      	ldr	r3, [r7, #12]
 8003310:	6c1b      	ldr	r3, [r3, #64]	; 0x40
 8003312:	f043 0220 	orr.w	r2, r3, #32
 8003316:	68fb      	ldr	r3, [r7, #12]
 8003318:	641a      	str	r2, [r3, #64]	; 0x40

        /* Process Unlocked */
        __HAL_UNLOCK(hi2c);
 800331a:	68fb      	ldr	r3, [r7, #12]
 800331c:	2200      	movs	r2, #0
 800331e:	f883 203c 	strb.w	r2, [r3, #60]	; 0x3c

        return HAL_ERROR;
 8003322:	2301      	movs	r3, #1
 8003324:	e007      	b.n	8003336 <I2C_WaitOnRXNEFlagUntilTimeout+0xb2>
  while (__HAL_I2C_GET_FLAG(hi2c, I2C_FLAG_RXNE) == RESET)
 8003326:	68fb      	ldr	r3, [r7, #12]
 8003328:	681b      	ldr	r3, [r3, #0]
 800332a:	695b      	ldr	r3, [r3, #20]
 800332c:	f003 0340 	and.w	r3, r3, #64	; 0x40
 8003330:	2b40      	cmp	r3, #64	; 0x40
 8003332:	d1ae      	bne.n	8003292 <I2C_WaitOnRXNEFlagUntilTimeout+0xe>
      }
    }
  }
  return HAL_OK;
 8003334:	2300      	movs	r3, #0
}
 8003336:	4618      	mov	r0, r3
 8003338:	3710      	adds	r7, #16
 800333a:	46bd      	mov	sp, r7
 800333c:	bd80      	pop	{r7, pc}

0800333e <I2C_IsAcknowledgeFailed>:
  * @param  hi2c Pointer to a I2C_HandleTypeDef structure that contains
  *                the configuration information for the specified I2C.
  * @retval HAL status
  */
static HAL_StatusTypeDef I2C_IsAcknowledgeFailed(I2C_HandleTypeDef *hi2c)
{
 800333e:	b480      	push	{r7}
 8003340:	b083      	sub	sp, #12
 8003342:	af00      	add	r7, sp, #0
 8003344:	6078      	str	r0, [r7, #4]
  if (__HAL_I2C_GET_FLAG(hi2c, I2C_FLAG_AF) == SET)
 8003346:	687b      	ldr	r3, [r7, #4]
 8003348:	681b      	ldr	r3, [r3, #0]
 800334a:	695b      	ldr	r3, [r3, #20]
 800334c:	f403 6380 	and.w	r3, r3, #1024	; 0x400
 8003350:	f5b3 6f80 	cmp.w	r3, #1024	; 0x400
 8003354:	d11b      	bne.n	800338e <I2C_IsAcknowledgeFailed+0x50>
  {
    /* Clear NACKF Flag */
    __HAL_I2C_CLEAR_FLAG(hi2c, I2C_FLAG_AF);
 8003356:	687b      	ldr	r3, [r7, #4]
 8003358:	681b      	ldr	r3, [r3, #0]
 800335a:	f46f 6280 	mvn.w	r2, #1024	; 0x400
 800335e:	615a      	str	r2, [r3, #20]

    hi2c->PreviousState       = I2C_STATE_NONE;
 8003360:	687b      	ldr	r3, [r7, #4]
 8003362:	2200      	movs	r2, #0
 8003364:	631a      	str	r2, [r3, #48]	; 0x30
    hi2c->State               = HAL_I2C_STATE_READY;
 8003366:	687b      	ldr	r3, [r7, #4]
 8003368:	2220      	movs	r2, #32
 800336a:	f883 203d 	strb.w	r2, [r3, #61]	; 0x3d
    hi2c->Mode                = HAL_I2C_MODE_NONE;
 800336e:	687b      	ldr	r3, [r7, #4]
 8003370:	2200      	movs	r2, #0
 8003372:	f883 203e 	strb.w	r2, [r3, #62]	; 0x3e
    hi2c->ErrorCode           |= HAL_I2C_ERROR_AF;
 8003376:	687b      	ldr	r3, [r7, #4]
 8003378:	6c1b      	ldr	r3, [r3, #64]	; 0x40
 800337a:	f043 0204 	orr.w	r2, r3, #4
 800337e:	687b      	ldr	r3, [r7, #4]
 8003380:	641a      	str	r2, [r3, #64]	; 0x40

    /* Process Unlocked */
    __HAL_UNLOCK(hi2c);
 8003382:	687b      	ldr	r3, [r7, #4]
 8003384:	2200      	movs	r2, #0
 8003386:	f883 203c 	strb.w	r2, [r3, #60]	; 0x3c

    return HAL_ERROR;
 800338a:	2301      	movs	r3, #1
 800338c:	e000      	b.n	8003390 <I2C_IsAcknowledgeFailed+0x52>
  }
  return HAL_OK;
 800338e:	2300      	movs	r3, #0
}
 8003390:	4618      	mov	r0, r3
 8003392:	370c      	adds	r7, #12
 8003394:	46bd      	mov	sp, r7
 8003396:	f85d 7b04 	ldr.w	r7, [sp], #4
 800339a:	4770      	bx	lr

0800339c <HAL_I2CEx_ConfigAnalogFilter>:
  *                the configuration information for the specified I2Cx peripheral.
  * @param  AnalogFilter new state of the Analog filter.
  * @retval HAL status
  */
HAL_StatusTypeDef HAL_I2CEx_ConfigAnalogFilter(I2C_HandleTypeDef *hi2c, uint32_t AnalogFilter)
{
 800339c:	b480      	push	{r7}
 800339e:	b083      	sub	sp, #12
 80033a0:	af00      	add	r7, sp, #0
 80033a2:	6078      	str	r0, [r7, #4]
 80033a4:	6039      	str	r1, [r7, #0]
  /* Check the parameters */
  assert_param(IS_I2C_ALL_INSTANCE(hi2c->Instance));
  assert_param(IS_I2C_ANALOG_FILTER(AnalogFilter));

  if (hi2c->State == HAL_I2C_STATE_READY)
 80033a6:	687b      	ldr	r3, [r7, #4]
 80033a8:	f893 303d 	ldrb.w	r3, [r3, #61]	; 0x3d
 80033ac:	b2db      	uxtb	r3, r3
 80033ae:	2b20      	cmp	r3, #32
 80033b0:	d129      	bne.n	8003406 <HAL_I2CEx_ConfigAnalogFilter+0x6a>
  {
    hi2c->State = HAL_I2C_STATE_BUSY;
 80033b2:	687b      	ldr	r3, [r7, #4]
 80033b4:	2224      	movs	r2, #36	; 0x24
 80033b6:	f883 203d 	strb.w	r2, [r3, #61]	; 0x3d

    /* Disable the selected I2C peripheral */
    __HAL_I2C_DISABLE(hi2c);
 80033ba:	687b      	ldr	r3, [r7, #4]
 80033bc:	681b      	ldr	r3, [r3, #0]
 80033be:	681a      	ldr	r2, [r3, #0]
 80033c0:	687b      	ldr	r3, [r7, #4]
 80033c2:	681b      	ldr	r3, [r3, #0]
 80033c4:	f022 0201 	bic.w	r2, r2, #1
 80033c8:	601a      	str	r2, [r3, #0]

    /* Reset I2Cx ANOFF bit */
    hi2c->Instance->FLTR &= ~(I2C_FLTR_ANOFF);
 80033ca:	687b      	ldr	r3, [r7, #4]
 80033cc:	681b      	ldr	r3, [r3, #0]
 80033ce:	6a5a      	ldr	r2, [r3, #36]	; 0x24
 80033d0:	687b      	ldr	r3, [r7, #4]
 80033d2:	681b      	ldr	r3, [r3, #0]
 80033d4:	f022 0210 	bic.w	r2, r2, #16
 80033d8:	625a      	str	r2, [r3, #36]	; 0x24

    /* Disable the analog filter */
    hi2c->Instance->FLTR |= AnalogFilter;
 80033da:	687b      	ldr	r3, [r7, #4]
 80033dc:	681b      	ldr	r3, [r3, #0]
 80033de:	6a59      	ldr	r1, [r3, #36]	; 0x24
 80033e0:	687b      	ldr	r3, [r7, #4]
 80033e2:	681b      	ldr	r3, [r3, #0]
 80033e4:	683a      	ldr	r2, [r7, #0]
 80033e6:	430a      	orrs	r2, r1
 80033e8:	625a      	str	r2, [r3, #36]	; 0x24

    __HAL_I2C_ENABLE(hi2c);
 80033ea:	687b      	ldr	r3, [r7, #4]
 80033ec:	681b      	ldr	r3, [r3, #0]
 80033ee:	681a      	ldr	r2, [r3, #0]
 80033f0:	687b      	ldr	r3, [r7, #4]
 80033f2:	681b      	ldr	r3, [r3, #0]
 80033f4:	f042 0201 	orr.w	r2, r2, #1
 80033f8:	601a      	str	r2, [r3, #0]

    hi2c->State = HAL_I2C_STATE_READY;
 80033fa:	687b      	ldr	r3, [r7, #4]
 80033fc:	2220      	movs	r2, #32
 80033fe:	f883 203d 	strb.w	r2, [r3, #61]	; 0x3d

    return HAL_OK;
 8003402:	2300      	movs	r3, #0
 8003404:	e000      	b.n	8003408 <HAL_I2CEx_ConfigAnalogFilter+0x6c>
  }
  else
  {
    return HAL_BUSY;
 8003406:	2302      	movs	r3, #2
  }
}
 8003408:	4618      	mov	r0, r3
 800340a:	370c      	adds	r7, #12
 800340c:	46bd      	mov	sp, r7
 800340e:	f85d 7b04 	ldr.w	r7, [sp], #4
 8003412:	4770      	bx	lr

08003414 <HAL_I2CEx_ConfigDigitalFilter>:
  *                the configuration information for the specified I2Cx peripheral.
  * @param  DigitalFilter Coefficient of digital noise filter between 0x00 and 0x0F.
  * @retval HAL status
  */
HAL_StatusTypeDef HAL_I2CEx_ConfigDigitalFilter(I2C_HandleTypeDef *hi2c, uint32_t DigitalFilter)
{
 8003414:	b480      	push	{r7}
 8003416:	b085      	sub	sp, #20
 8003418:	af00      	add	r7, sp, #0
 800341a:	6078      	str	r0, [r7, #4]
 800341c:	6039      	str	r1, [r7, #0]
  uint16_t tmpreg = 0;
 800341e:	2300      	movs	r3, #0
 8003420:	81fb      	strh	r3, [r7, #14]

  /* Check the parameters */
  assert_param(IS_I2C_ALL_INSTANCE(hi2c->Instance));
  assert_param(IS_I2C_DIGITAL_FILTER(DigitalFilter));

  if (hi2c->State == HAL_I2C_STATE_READY)
 8003422:	687b      	ldr	r3, [r7, #4]
 8003424:	f893 303d 	ldrb.w	r3, [r3, #61]	; 0x3d
 8003428:	b2db      	uxtb	r3, r3
 800342a:	2b20      	cmp	r3, #32
 800342c:	d12a      	bne.n	8003484 <HAL_I2CEx_ConfigDigitalFilter+0x70>
  {
    hi2c->State = HAL_I2C_STATE_BUSY;
 800342e:	687b      	ldr	r3, [r7, #4]
 8003430:	2224      	movs	r2, #36	; 0x24
 8003432:	f883 203d 	strb.w	r2, [r3, #61]	; 0x3d

    /* Disable the selected I2C peripheral */
    __HAL_I2C_DISABLE(hi2c);
 8003436:	687b      	ldr	r3, [r7, #4]
 8003438:	681b      	ldr	r3, [r3, #0]
 800343a:	681a      	ldr	r2, [r3, #0]
 800343c:	687b      	ldr	r3, [r7, #4]
 800343e:	681b      	ldr	r3, [r3, #0]
 8003440:	f022 0201 	bic.w	r2, r2, #1
 8003444:	601a      	str	r2, [r3, #0]

    /* Get the old register value */
    tmpreg = hi2c->Instance->FLTR;
 8003446:	687b      	ldr	r3, [r7, #4]
 8003448:	681b      	ldr	r3, [r3, #0]
 800344a:	6a5b      	ldr	r3, [r3, #36]	; 0x24
 800344c:	81fb      	strh	r3, [r7, #14]

    /* Reset I2Cx DNF bit [3:0] */
    tmpreg &= ~(I2C_FLTR_DNF);
 800344e:	89fb      	ldrh	r3, [r7, #14]
 8003450:	f023 030f 	bic.w	r3, r3, #15
 8003454:	81fb      	strh	r3, [r7, #14]

    /* Set I2Cx DNF coefficient */
    tmpreg |= DigitalFilter;
 8003456:	683b      	ldr	r3, [r7, #0]
 8003458:	b29a      	uxth	r2, r3
 800345a:	89fb      	ldrh	r3, [r7, #14]
 800345c:	4313      	orrs	r3, r2
 800345e:	81fb      	strh	r3, [r7, #14]

    /* Store the new register value */
    hi2c->Instance->FLTR = tmpreg;
 8003460:	687b      	ldr	r3, [r7, #4]
 8003462:	681b      	ldr	r3, [r3, #0]
 8003464:	89fa      	ldrh	r2, [r7, #14]
 8003466:	625a      	str	r2, [r3, #36]	; 0x24

    __HAL_I2C_ENABLE(hi2c);
 8003468:	687b      	ldr	r3, [r7, #4]
 800346a:	681b      	ldr	r3, [r3, #0]
 800346c:	681a      	ldr	r2, [r3, #0]
 800346e:	687b      	ldr	r3, [r7, #4]
 8003470:	681b      	ldr	r3, [r3, #0]
 8003472:	f042 0201 	orr.w	r2, r2, #1
 8003476:	601a      	str	r2, [r3, #0]

    hi2c->State = HAL_I2C_STATE_READY;
 8003478:	687b      	ldr	r3, [r7, #4]
 800347a:	2220      	movs	r2, #32
 800347c:	f883 203d 	strb.w	r2, [r3, #61]	; 0x3d

    return HAL_OK;
 8003480:	2300      	movs	r3, #0
 8003482:	e000      	b.n	8003486 <HAL_I2CEx_ConfigDigitalFilter+0x72>
  }
  else
  {
    return HAL_BUSY;
 8003484:	2302      	movs	r3, #2
  }
}
 8003486:	4618      	mov	r0, r3
 8003488:	3714      	adds	r7, #20
 800348a:	46bd      	mov	sp, r7
 800348c:	f85d 7b04 	ldr.w	r7, [sp], #4
 8003490:	4770      	bx	lr
	...

08003494 <HAL_RCC_OscConfig>:
  *         supported by this API. User should request a transition to HSE Off
  *         first and then HSE On or HSE Bypass.
  * @retval HAL status
  */
__weak HAL_StatusTypeDef HAL_RCC_OscConfig(RCC_OscInitTypeDef  *RCC_OscInitStruct)
{
 8003494:	b580      	push	{r7, lr}
 8003496:	b086      	sub	sp, #24
 8003498:	af00      	add	r7, sp, #0
 800349a:	6078      	str	r0, [r7, #4]
  uint32_t tickstart, pll_config;

  /* Check Null pointer */
  if(RCC_OscInitStruct == NULL)
 800349c:	687b      	ldr	r3, [r7, #4]
 800349e:	2b00      	cmp	r3, #0
 80034a0:	d101      	bne.n	80034a6 <HAL_RCC_OscConfig+0x12>
  {
    return HAL_ERROR;
 80034a2:	2301      	movs	r3, #1
 80034a4:	e267      	b.n	8003976 <HAL_RCC_OscConfig+0x4e2>
  }

  /* Check the parameters */
  assert_param(IS_RCC_OSCILLATORTYPE(RCC_OscInitStruct->OscillatorType));
  /*------------------------------- HSE Configuration ------------------------*/
  if(((RCC_OscInitStruct->OscillatorType) & RCC_OSCILLATORTYPE_HSE) == RCC_OSCILLATORTYPE_HSE)
 80034a6:	687b      	ldr	r3, [r7, #4]
 80034a8:	681b      	ldr	r3, [r3, #0]
 80034aa:	f003 0301 	and.w	r3, r3, #1
 80034ae:	2b00      	cmp	r3, #0
 80034b0:	d075      	beq.n	800359e <HAL_RCC_OscConfig+0x10a>
  {
    /* Check the parameters */
    assert_param(IS_RCC_HSE(RCC_OscInitStruct->HSEState));
    /* When the HSE is used as system clock or clock source for PLL in these cases HSE will not disabled */
    if((__HAL_RCC_GET_SYSCLK_SOURCE() == RCC_CFGR_SWS_HSE) ||\
 80034b2:	4b88      	ldr	r3, [pc, #544]	; (80036d4 <HAL_RCC_OscConfig+0x240>)
 80034b4:	689b      	ldr	r3, [r3, #8]
 80034b6:	f003 030c 	and.w	r3, r3, #12
 80034ba:	2b04      	cmp	r3, #4
 80034bc:	d00c      	beq.n	80034d8 <HAL_RCC_OscConfig+0x44>
      ((__HAL_RCC_GET_SYSCLK_SOURCE() == RCC_CFGR_SWS_PLL) && ((RCC->PLLCFGR & RCC_PLLCFGR_PLLSRC) == RCC_PLLCFGR_PLLSRC_HSE)))
 80034be:	4b85      	ldr	r3, [pc, #532]	; (80036d4 <HAL_RCC_OscConfig+0x240>)
 80034c0:	689b      	ldr	r3, [r3, #8]
 80034c2:	f003 030c 	and.w	r3, r3, #12
    if((__HAL_RCC_GET_SYSCLK_SOURCE() == RCC_CFGR_SWS_HSE) ||\
 80034c6:	2b08      	cmp	r3, #8
 80034c8:	d112      	bne.n	80034f0 <HAL_RCC_OscConfig+0x5c>
      ((__HAL_RCC_GET_SYSCLK_SOURCE() == RCC_CFGR_SWS_PLL) && ((RCC->PLLCFGR & RCC_PLLCFGR_PLLSRC) == RCC_PLLCFGR_PLLSRC_HSE)))
 80034ca:	4b82      	ldr	r3, [pc, #520]	; (80036d4 <HAL_RCC_OscConfig+0x240>)
 80034cc:	685b      	ldr	r3, [r3, #4]
 80034ce:	f403 0380 	and.w	r3, r3, #4194304	; 0x400000
 80034d2:	f5b3 0f80 	cmp.w	r3, #4194304	; 0x400000
 80034d6:	d10b      	bne.n	80034f0 <HAL_RCC_OscConfig+0x5c>
    {
      if((__HAL_RCC_GET_FLAG(RCC_FLAG_HSERDY) != RESET) && (RCC_OscInitStruct->HSEState == RCC_HSE_OFF))
 80034d8:	4b7e      	ldr	r3, [pc, #504]	; (80036d4 <HAL_RCC_OscConfig+0x240>)
 80034da:	681b      	ldr	r3, [r3, #0]
 80034dc:	f403 3300 	and.w	r3, r3, #131072	; 0x20000
 80034e0:	2b00      	cmp	r3, #0
 80034e2:	d05b      	beq.n	800359c <HAL_RCC_OscConfig+0x108>
 80034e4:	687b      	ldr	r3, [r7, #4]
 80034e6:	685b      	ldr	r3, [r3, #4]
 80034e8:	2b00      	cmp	r3, #0
 80034ea:	d157      	bne.n	800359c <HAL_RCC_OscConfig+0x108>
      {
        return HAL_ERROR;
 80034ec:	2301      	movs	r3, #1
 80034ee:	e242      	b.n	8003976 <HAL_RCC_OscConfig+0x4e2>
      }
    }
    else
    {
      /* Set the new HSE configuration ---------------------------------------*/
      __HAL_RCC_HSE_CONFIG(RCC_OscInitStruct->HSEState);
 80034f0:	687b      	ldr	r3, [r7, #4]
 80034f2:	685b      	ldr	r3, [r3, #4]
 80034f4:	f5b3 3f80 	cmp.w	r3, #65536	; 0x10000
 80034f8:	d106      	bne.n	8003508 <HAL_RCC_OscConfig+0x74>
 80034fa:	4b76      	ldr	r3, [pc, #472]	; (80036d4 <HAL_RCC_OscConfig+0x240>)
 80034fc:	681b      	ldr	r3, [r3, #0]
 80034fe:	4a75      	ldr	r2, [pc, #468]	; (80036d4 <HAL_RCC_OscConfig+0x240>)
 8003500:	f443 3380 	orr.w	r3, r3, #65536	; 0x10000
 8003504:	6013      	str	r3, [r2, #0]
 8003506:	e01d      	b.n	8003544 <HAL_RCC_OscConfig+0xb0>
 8003508:	687b      	ldr	r3, [r7, #4]
 800350a:	685b      	ldr	r3, [r3, #4]
 800350c:	f5b3 2fa0 	cmp.w	r3, #327680	; 0x50000
 8003510:	d10c      	bne.n	800352c <HAL_RCC_OscConfig+0x98>
 8003512:	4b70      	ldr	r3, [pc, #448]	; (80036d4 <HAL_RCC_OscConfig+0x240>)
 8003514:	681b      	ldr	r3, [r3, #0]
 8003516:	4a6f      	ldr	r2, [pc, #444]	; (80036d4 <HAL_RCC_OscConfig+0x240>)
 8003518:	f443 2380 	orr.w	r3, r3, #262144	; 0x40000
 800351c:	6013      	str	r3, [r2, #0]
 800351e:	4b6d      	ldr	r3, [pc, #436]	; (80036d4 <HAL_RCC_OscConfig+0x240>)
 8003520:	681b      	ldr	r3, [r3, #0]
 8003522:	4a6c      	ldr	r2, [pc, #432]	; (80036d4 <HAL_RCC_OscConfig+0x240>)
 8003524:	f443 3380 	orr.w	r3, r3, #65536	; 0x10000
 8003528:	6013      	str	r3, [r2, #0]
 800352a:	e00b      	b.n	8003544 <HAL_RCC_OscConfig+0xb0>
 800352c:	4b69      	ldr	r3, [pc, #420]	; (80036d4 <HAL_RCC_OscConfig+0x240>)
 800352e:	681b      	ldr	r3, [r3, #0]
 8003530:	4a68      	ldr	r2, [pc, #416]	; (80036d4 <HAL_RCC_OscConfig+0x240>)
 8003532:	f423 3380 	bic.w	r3, r3, #65536	; 0x10000
 8003536:	6013      	str	r3, [r2, #0]
 8003538:	4b66      	ldr	r3, [pc, #408]	; (80036d4 <HAL_RCC_OscConfig+0x240>)
 800353a:	681b      	ldr	r3, [r3, #0]
 800353c:	4a65      	ldr	r2, [pc, #404]	; (80036d4 <HAL_RCC_OscConfig+0x240>)
 800353e:	f423 2380 	bic.w	r3, r3, #262144	; 0x40000
 8003542:	6013      	str	r3, [r2, #0]

      /* Check the HSE State */
      if((RCC_OscInitStruct->HSEState) != RCC_HSE_OFF)
 8003544:	687b      	ldr	r3, [r7, #4]
 8003546:	685b      	ldr	r3, [r3, #4]
 8003548:	2b00      	cmp	r3, #0
 800354a:	d013      	beq.n	8003574 <HAL_RCC_OscConfig+0xe0>
      {
        /* Get Start Tick */
        tickstart = HAL_GetTick();
 800354c:	f7fe fb84 	bl	8001c58 <HAL_GetTick>
 8003550:	6138      	str	r0, [r7, #16]

        /* Wait till HSE is ready */
        while(__HAL_RCC_GET_FLAG(RCC_FLAG_HSERDY) == RESET)
 8003552:	e008      	b.n	8003566 <HAL_RCC_OscConfig+0xd2>
        {
          if((HAL_GetTick() - tickstart ) > HSE_TIMEOUT_VALUE)
 8003554:	f7fe fb80 	bl	8001c58 <HAL_GetTick>
 8003558:	4602      	mov	r2, r0
 800355a:	693b      	ldr	r3, [r7, #16]
 800355c:	1ad3      	subs	r3, r2, r3
 800355e:	2b64      	cmp	r3, #100	; 0x64
 8003560:	d901      	bls.n	8003566 <HAL_RCC_OscConfig+0xd2>
          {
            return HAL_TIMEOUT;
 8003562:	2303      	movs	r3, #3
 8003564:	e207      	b.n	8003976 <HAL_RCC_OscConfig+0x4e2>
        while(__HAL_RCC_GET_FLAG(RCC_FLAG_HSERDY) == RESET)
 8003566:	4b5b      	ldr	r3, [pc, #364]	; (80036d4 <HAL_RCC_OscConfig+0x240>)
 8003568:	681b      	ldr	r3, [r3, #0]
 800356a:	f403 3300 	and.w	r3, r3, #131072	; 0x20000
 800356e:	2b00      	cmp	r3, #0
 8003570:	d0f0      	beq.n	8003554 <HAL_RCC_OscConfig+0xc0>
 8003572:	e014      	b.n	800359e <HAL_RCC_OscConfig+0x10a>
        }
      }
      else
      {
        /* Get Start Tick */
        tickstart = HAL_GetTick();
 8003574:	f7fe fb70 	bl	8001c58 <HAL_GetTick>
 8003578:	6138      	str	r0, [r7, #16]

        /* Wait till HSE is bypassed or disabled */
        while(__HAL_RCC_GET_FLAG(RCC_FLAG_HSERDY) != RESET)
 800357a:	e008      	b.n	800358e <HAL_RCC_OscConfig+0xfa>
        {
          if((HAL_GetTick() - tickstart ) > HSE_TIMEOUT_VALUE)
 800357c:	f7fe fb6c 	bl	8001c58 <HAL_GetTick>
 8003580:	4602      	mov	r2, r0
 8003582:	693b      	ldr	r3, [r7, #16]
 8003584:	1ad3      	subs	r3, r2, r3
 8003586:	2b64      	cmp	r3, #100	; 0x64
 8003588:	d901      	bls.n	800358e <HAL_RCC_OscConfig+0xfa>
          {
            return HAL_TIMEOUT;
 800358a:	2303      	movs	r3, #3
 800358c:	e1f3      	b.n	8003976 <HAL_RCC_OscConfig+0x4e2>
        while(__HAL_RCC_GET_FLAG(RCC_FLAG_HSERDY) != RESET)
 800358e:	4b51      	ldr	r3, [pc, #324]	; (80036d4 <HAL_RCC_OscConfig+0x240>)
 8003590:	681b      	ldr	r3, [r3, #0]
 8003592:	f403 3300 	and.w	r3, r3, #131072	; 0x20000
 8003596:	2b00      	cmp	r3, #0
 8003598:	d1f0      	bne.n	800357c <HAL_RCC_OscConfig+0xe8>
 800359a:	e000      	b.n	800359e <HAL_RCC_OscConfig+0x10a>
      if((__HAL_RCC_GET_FLAG(RCC_FLAG_HSERDY) != RESET) && (RCC_OscInitStruct->HSEState == RCC_HSE_OFF))
 800359c:	bf00      	nop
        }
      }
    }
  }
  /*----------------------------- HSI Configuration --------------------------*/
  if(((RCC_OscInitStruct->OscillatorType) & RCC_OSCILLATORTYPE_HSI) == RCC_OSCILLATORTYPE_HSI)
 800359e:	687b      	ldr	r3, [r7, #4]
 80035a0:	681b      	ldr	r3, [r3, #0]
 80035a2:	f003 0302 	and.w	r3, r3, #2
 80035a6:	2b00      	cmp	r3, #0
 80035a8:	d063      	beq.n	8003672 <HAL_RCC_OscConfig+0x1de>
    /* Check the parameters */
    assert_param(IS_RCC_HSI(RCC_OscInitStruct->HSIState));
    assert_param(IS_RCC_CALIBRATION_VALUE(RCC_OscInitStruct->HSICalibrationValue));

    /* Check if HSI is used as system clock or as PLL source when PLL is selected as system clock */
    if((__HAL_RCC_GET_SYSCLK_SOURCE() == RCC_CFGR_SWS_HSI) ||\
 80035aa:	4b4a      	ldr	r3, [pc, #296]	; (80036d4 <HAL_RCC_OscConfig+0x240>)
 80035ac:	689b      	ldr	r3, [r3, #8]
 80035ae:	f003 030c 	and.w	r3, r3, #12
 80035b2:	2b00      	cmp	r3, #0
 80035b4:	d00b      	beq.n	80035ce <HAL_RCC_OscConfig+0x13a>
      ((__HAL_RCC_GET_SYSCLK_SOURCE() == RCC_CFGR_SWS_PLL) && ((RCC->PLLCFGR & RCC_PLLCFGR_PLLSRC) == RCC_PLLCFGR_PLLSRC_HSI)))
 80035b6:	4b47      	ldr	r3, [pc, #284]	; (80036d4 <HAL_RCC_OscConfig+0x240>)
 80035b8:	689b      	ldr	r3, [r3, #8]
 80035ba:	f003 030c 	and.w	r3, r3, #12
    if((__HAL_RCC_GET_SYSCLK_SOURCE() == RCC_CFGR_SWS_HSI) ||\
 80035be:	2b08      	cmp	r3, #8
 80035c0:	d11c      	bne.n	80035fc <HAL_RCC_OscConfig+0x168>
      ((__HAL_RCC_GET_SYSCLK_SOURCE() == RCC_CFGR_SWS_PLL) && ((RCC->PLLCFGR & RCC_PLLCFGR_PLLSRC) == RCC_PLLCFGR_PLLSRC_HSI)))
 80035c2:	4b44      	ldr	r3, [pc, #272]	; (80036d4 <HAL_RCC_OscConfig+0x240>)
 80035c4:	685b      	ldr	r3, [r3, #4]
 80035c6:	f403 0380 	and.w	r3, r3, #4194304	; 0x400000
 80035ca:	2b00      	cmp	r3, #0
 80035cc:	d116      	bne.n	80035fc <HAL_RCC_OscConfig+0x168>
    {
      /* When HSI is used as system clock it will not disabled */
      if((__HAL_RCC_GET_FLAG(RCC_FLAG_HSIRDY) != RESET) && (RCC_OscInitStruct->HSIState != RCC_HSI_ON))
 80035ce:	4b41      	ldr	r3, [pc, #260]	; (80036d4 <HAL_RCC_OscConfig+0x240>)
 80035d0:	681b      	ldr	r3, [r3, #0]
 80035d2:	f003 0302 	and.w	r3, r3, #2
 80035d6:	2b00      	cmp	r3, #0
 80035d8:	d005      	beq.n	80035e6 <HAL_RCC_OscConfig+0x152>
 80035da:	687b      	ldr	r3, [r7, #4]
 80035dc:	68db      	ldr	r3, [r3, #12]
 80035de:	2b01      	cmp	r3, #1
 80035e0:	d001      	beq.n	80035e6 <HAL_RCC_OscConfig+0x152>
      {
        return HAL_ERROR;
 80035e2:	2301      	movs	r3, #1
 80035e4:	e1c7      	b.n	8003976 <HAL_RCC_OscConfig+0x4e2>
      }
      /* Otherwise, just the calibration is allowed */
      else
      {
        /* Adjusts the Internal High Speed oscillator (HSI) calibration value.*/
        __HAL_RCC_HSI_CALIBRATIONVALUE_ADJUST(RCC_OscInitStruct->HSICalibrationValue);
 80035e6:	4b3b      	ldr	r3, [pc, #236]	; (80036d4 <HAL_RCC_OscConfig+0x240>)
 80035e8:	681b      	ldr	r3, [r3, #0]
 80035ea:	f023 02f8 	bic.w	r2, r3, #248	; 0xf8
 80035ee:	687b      	ldr	r3, [r7, #4]
 80035f0:	691b      	ldr	r3, [r3, #16]
 80035f2:	00db      	lsls	r3, r3, #3
 80035f4:	4937      	ldr	r1, [pc, #220]	; (80036d4 <HAL_RCC_OscConfig+0x240>)
 80035f6:	4313      	orrs	r3, r2
 80035f8:	600b      	str	r3, [r1, #0]
      if((__HAL_RCC_GET_FLAG(RCC_FLAG_HSIRDY) != RESET) && (RCC_OscInitStruct->HSIState != RCC_HSI_ON))
 80035fa:	e03a      	b.n	8003672 <HAL_RCC_OscConfig+0x1de>
      }
    }
    else
    {
      /* Check the HSI State */
      if((RCC_OscInitStruct->HSIState)!= RCC_HSI_OFF)
 80035fc:	687b      	ldr	r3, [r7, #4]
 80035fe:	68db      	ldr	r3, [r3, #12]
 8003600:	2b00      	cmp	r3, #0
 8003602:	d020      	beq.n	8003646 <HAL_RCC_OscConfig+0x1b2>
      {
        /* Enable the Internal High Speed oscillator (HSI). */
        __HAL_RCC_HSI_ENABLE();
 8003604:	4b34      	ldr	r3, [pc, #208]	; (80036d8 <HAL_RCC_OscConfig+0x244>)
 8003606:	2201      	movs	r2, #1
 8003608:	601a      	str	r2, [r3, #0]

        /* Get Start Tick*/
        tickstart = HAL_GetTick();
 800360a:	f7fe fb25 	bl	8001c58 <HAL_GetTick>
 800360e:	6138      	str	r0, [r7, #16]

        /* Wait till HSI is ready */
        while(__HAL_RCC_GET_FLAG(RCC_FLAG_HSIRDY) == RESET)
 8003610:	e008      	b.n	8003624 <HAL_RCC_OscConfig+0x190>
        {
          if((HAL_GetTick() - tickstart ) > HSI_TIMEOUT_VALUE)
 8003612:	f7fe fb21 	bl	8001c58 <HAL_GetTick>
 8003616:	4602      	mov	r2, r0
 8003618:	693b      	ldr	r3, [r7, #16]
 800361a:	1ad3      	subs	r3, r2, r3
 800361c:	2b02      	cmp	r3, #2
 800361e:	d901      	bls.n	8003624 <HAL_RCC_OscConfig+0x190>
          {
            return HAL_TIMEOUT;
 8003620:	2303      	movs	r3, #3
 8003622:	e1a8      	b.n	8003976 <HAL_RCC_OscConfig+0x4e2>
        while(__HAL_RCC_GET_FLAG(RCC_FLAG_HSIRDY) == RESET)
 8003624:	4b2b      	ldr	r3, [pc, #172]	; (80036d4 <HAL_RCC_OscConfig+0x240>)
 8003626:	681b      	ldr	r3, [r3, #0]
 8003628:	f003 0302 	and.w	r3, r3, #2
 800362c:	2b00      	cmp	r3, #0
 800362e:	d0f0      	beq.n	8003612 <HAL_RCC_OscConfig+0x17e>
          }
        }

        /* Adjusts the Internal High Speed oscillator (HSI) calibration value. */
        __HAL_RCC_HSI_CALIBRATIONVALUE_ADJUST(RCC_OscInitStruct->HSICalibrationValue);
 8003630:	4b28      	ldr	r3, [pc, #160]	; (80036d4 <HAL_RCC_OscConfig+0x240>)
 8003632:	681b      	ldr	r3, [r3, #0]
 8003634:	f023 02f8 	bic.w	r2, r3, #248	; 0xf8
 8003638:	687b      	ldr	r3, [r7, #4]
 800363a:	691b      	ldr	r3, [r3, #16]
 800363c:	00db      	lsls	r3, r3, #3
 800363e:	4925      	ldr	r1, [pc, #148]	; (80036d4 <HAL_RCC_OscConfig+0x240>)
 8003640:	4313      	orrs	r3, r2
 8003642:	600b      	str	r3, [r1, #0]
 8003644:	e015      	b.n	8003672 <HAL_RCC_OscConfig+0x1de>
      }
      else
      {
        /* Disable the Internal High Speed oscillator (HSI). */
        __HAL_RCC_HSI_DISABLE();
 8003646:	4b24      	ldr	r3, [pc, #144]	; (80036d8 <HAL_RCC_OscConfig+0x244>)
 8003648:	2200      	movs	r2, #0
 800364a:	601a      	str	r2, [r3, #0]

        /* Get Start Tick*/
        tickstart = HAL_GetTick();
 800364c:	f7fe fb04 	bl	8001c58 <HAL_GetTick>
 8003650:	6138      	str	r0, [r7, #16]

        /* Wait till HSI is ready */
        while(__HAL_RCC_GET_FLAG(RCC_FLAG_HSIRDY) != RESET)
 8003652:	e008      	b.n	8003666 <HAL_RCC_OscConfig+0x1d2>
        {
          if((HAL_GetTick() - tickstart ) > HSI_TIMEOUT_VALUE)
 8003654:	f7fe fb00 	bl	8001c58 <HAL_GetTick>
 8003658:	4602      	mov	r2, r0
 800365a:	693b      	ldr	r3, [r7, #16]
 800365c:	1ad3      	subs	r3, r2, r3
 800365e:	2b02      	cmp	r3, #2
 8003660:	d901      	bls.n	8003666 <HAL_RCC_OscConfig+0x1d2>
          {
            return HAL_TIMEOUT;
 8003662:	2303      	movs	r3, #3
 8003664:	e187      	b.n	8003976 <HAL_RCC_OscConfig+0x4e2>
        while(__HAL_RCC_GET_FLAG(RCC_FLAG_HSIRDY) != RESET)
 8003666:	4b1b      	ldr	r3, [pc, #108]	; (80036d4 <HAL_RCC_OscConfig+0x240>)
 8003668:	681b      	ldr	r3, [r3, #0]
 800366a:	f003 0302 	and.w	r3, r3, #2
 800366e:	2b00      	cmp	r3, #0
 8003670:	d1f0      	bne.n	8003654 <HAL_RCC_OscConfig+0x1c0>
        }
      }
    }
  }
  /*------------------------------ LSI Configuration -------------------------*/
  if(((RCC_OscInitStruct->OscillatorType) & RCC_OSCILLATORTYPE_LSI) == RCC_OSCILLATORTYPE_LSI)
 8003672:	687b      	ldr	r3, [r7, #4]
 8003674:	681b      	ldr	r3, [r3, #0]
 8003676:	f003 0308 	and.w	r3, r3, #8
 800367a:	2b00      	cmp	r3, #0
 800367c:	d036      	beq.n	80036ec <HAL_RCC_OscConfig+0x258>
  {
    /* Check the parameters */
    assert_param(IS_RCC_LSI(RCC_OscInitStruct->LSIState));

    /* Check the LSI State */
    if((RCC_OscInitStruct->LSIState)!= RCC_LSI_OFF)
 800367e:	687b      	ldr	r3, [r7, #4]
 8003680:	695b      	ldr	r3, [r3, #20]
 8003682:	2b00      	cmp	r3, #0
 8003684:	d016      	beq.n	80036b4 <HAL_RCC_OscConfig+0x220>
    {
      /* Enable the Internal Low Speed oscillator (LSI). */
      __HAL_RCC_LSI_ENABLE();
 8003686:	4b15      	ldr	r3, [pc, #84]	; (80036dc <HAL_RCC_OscConfig+0x248>)
 8003688:	2201      	movs	r2, #1
 800368a:	601a      	str	r2, [r3, #0]

      /* Get Start Tick*/
      tickstart = HAL_GetTick();
 800368c:	f7fe fae4 	bl	8001c58 <HAL_GetTick>
 8003690:	6138      	str	r0, [r7, #16]

      /* Wait till LSI is ready */
      while(__HAL_RCC_GET_FLAG(RCC_FLAG_LSIRDY) == RESET)
 8003692:	e008      	b.n	80036a6 <HAL_RCC_OscConfig+0x212>
      {
        if((HAL_GetTick() - tickstart ) > LSI_TIMEOUT_VALUE)
 8003694:	f7fe fae0 	bl	8001c58 <HAL_GetTick>
 8003698:	4602      	mov	r2, r0
 800369a:	693b      	ldr	r3, [r7, #16]
 800369c:	1ad3      	subs	r3, r2, r3
 800369e:	2b02      	cmp	r3, #2
 80036a0:	d901      	bls.n	80036a6 <HAL_RCC_OscConfig+0x212>
        {
          return HAL_TIMEOUT;
 80036a2:	2303      	movs	r3, #3
 80036a4:	e167      	b.n	8003976 <HAL_RCC_OscConfig+0x4e2>
      while(__HAL_RCC_GET_FLAG(RCC_FLAG_LSIRDY) == RESET)
 80036a6:	4b0b      	ldr	r3, [pc, #44]	; (80036d4 <HAL_RCC_OscConfig+0x240>)
 80036a8:	6f5b      	ldr	r3, [r3, #116]	; 0x74
 80036aa:	f003 0302 	and.w	r3, r3, #2
 80036ae:	2b00      	cmp	r3, #0
 80036b0:	d0f0      	beq.n	8003694 <HAL_RCC_OscConfig+0x200>
 80036b2:	e01b      	b.n	80036ec <HAL_RCC_OscConfig+0x258>
      }
    }
    else
    {
      /* Disable the Internal Low Speed oscillator (LSI). */
      __HAL_RCC_LSI_DISABLE();
 80036b4:	4b09      	ldr	r3, [pc, #36]	; (80036dc <HAL_RCC_OscConfig+0x248>)
 80036b6:	2200      	movs	r2, #0
 80036b8:	601a      	str	r2, [r3, #0]

      /* Get Start Tick */
      tickstart = HAL_GetTick();
 80036ba:	f7fe facd 	bl	8001c58 <HAL_GetTick>
 80036be:	6138      	str	r0, [r7, #16]

      /* Wait till LSI is ready */
      while(__HAL_RCC_GET_FLAG(RCC_FLAG_LSIRDY) != RESET)
 80036c0:	e00e      	b.n	80036e0 <HAL_RCC_OscConfig+0x24c>
      {
        if((HAL_GetTick() - tickstart ) > LSI_TIMEOUT_VALUE)
 80036c2:	f7fe fac9 	bl	8001c58 <HAL_GetTick>
 80036c6:	4602      	mov	r2, r0
 80036c8:	693b      	ldr	r3, [r7, #16]
 80036ca:	1ad3      	subs	r3, r2, r3
 80036cc:	2b02      	cmp	r3, #2
 80036ce:	d907      	bls.n	80036e0 <HAL_RCC_OscConfig+0x24c>
        {
          return HAL_TIMEOUT;
 80036d0:	2303      	movs	r3, #3
 80036d2:	e150      	b.n	8003976 <HAL_RCC_OscConfig+0x4e2>
 80036d4:	40023800 	.word	0x40023800
 80036d8:	42470000 	.word	0x42470000
 80036dc:	42470e80 	.word	0x42470e80
      while(__HAL_RCC_GET_FLAG(RCC_FLAG_LSIRDY) != RESET)
 80036e0:	4b88      	ldr	r3, [pc, #544]	; (8003904 <HAL_RCC_OscConfig+0x470>)
 80036e2:	6f5b      	ldr	r3, [r3, #116]	; 0x74
 80036e4:	f003 0302 	and.w	r3, r3, #2
 80036e8:	2b00      	cmp	r3, #0
 80036ea:	d1ea      	bne.n	80036c2 <HAL_RCC_OscConfig+0x22e>
        }
      }
    }
  }
  /*------------------------------ LSE Configuration -------------------------*/
  if(((RCC_OscInitStruct->OscillatorType) & RCC_OSCILLATORTYPE_LSE) == RCC_OSCILLATORTYPE_LSE)
 80036ec:	687b      	ldr	r3, [r7, #4]
 80036ee:	681b      	ldr	r3, [r3, #0]
 80036f0:	f003 0304 	and.w	r3, r3, #4
 80036f4:	2b00      	cmp	r3, #0
 80036f6:	f000 8097 	beq.w	8003828 <HAL_RCC_OscConfig+0x394>
  {
    FlagStatus       pwrclkchanged = RESET;
 80036fa:	2300      	movs	r3, #0
 80036fc:	75fb      	strb	r3, [r7, #23]
    /* Check the parameters */
    assert_param(IS_RCC_LSE(RCC_OscInitStruct->LSEState));

    /* Update LSE configuration in Backup Domain control register    */
    /* Requires to enable write access to Backup Domain of necessary */
    if(__HAL_RCC_PWR_IS_CLK_DISABLED())
 80036fe:	4b81      	ldr	r3, [pc, #516]	; (8003904 <HAL_RCC_OscConfig+0x470>)
 8003700:	6c1b      	ldr	r3, [r3, #64]	; 0x40
 8003702:	f003 5380 	and.w	r3, r3, #268435456	; 0x10000000
 8003706:	2b00      	cmp	r3, #0
 8003708:	d10f      	bne.n	800372a <HAL_RCC_OscConfig+0x296>
    {
      __HAL_RCC_PWR_CLK_ENABLE();
 800370a:	2300      	movs	r3, #0
 800370c:	60bb      	str	r3, [r7, #8]
 800370e:	4b7d      	ldr	r3, [pc, #500]	; (8003904 <HAL_RCC_OscConfig+0x470>)
 8003710:	6c1b      	ldr	r3, [r3, #64]	; 0x40
 8003712:	4a7c      	ldr	r2, [pc, #496]	; (8003904 <HAL_RCC_OscConfig+0x470>)
 8003714:	f043 5380 	orr.w	r3, r3, #268435456	; 0x10000000
 8003718:	6413      	str	r3, [r2, #64]	; 0x40
 800371a:	4b7a      	ldr	r3, [pc, #488]	; (8003904 <HAL_RCC_OscConfig+0x470>)
 800371c:	6c1b      	ldr	r3, [r3, #64]	; 0x40
 800371e:	f003 5380 	and.w	r3, r3, #268435456	; 0x10000000
 8003722:	60bb      	str	r3, [r7, #8]
 8003724:	68bb      	ldr	r3, [r7, #8]
      pwrclkchanged = SET;
 8003726:	2301      	movs	r3, #1
 8003728:	75fb      	strb	r3, [r7, #23]
    }

    if(HAL_IS_BIT_CLR(PWR->CR, PWR_CR_DBP))
 800372a:	4b77      	ldr	r3, [pc, #476]	; (8003908 <HAL_RCC_OscConfig+0x474>)
 800372c:	681b      	ldr	r3, [r3, #0]
 800372e:	f403 7380 	and.w	r3, r3, #256	; 0x100
 8003732:	2b00      	cmp	r3, #0
 8003734:	d118      	bne.n	8003768 <HAL_RCC_OscConfig+0x2d4>
    {
      /* Enable write access to Backup domain */
      SET_BIT(PWR->CR, PWR_CR_DBP);
 8003736:	4b74      	ldr	r3, [pc, #464]	; (8003908 <HAL_RCC_OscConfig+0x474>)
 8003738:	681b      	ldr	r3, [r3, #0]
 800373a:	4a73      	ldr	r2, [pc, #460]	; (8003908 <HAL_RCC_OscConfig+0x474>)
 800373c:	f443 7380 	orr.w	r3, r3, #256	; 0x100
 8003740:	6013      	str	r3, [r2, #0]

      /* Wait for Backup domain Write protection disable */
      tickstart = HAL_GetTick();
 8003742:	f7fe fa89 	bl	8001c58 <HAL_GetTick>
 8003746:	6138      	str	r0, [r7, #16]

      while(HAL_IS_BIT_CLR(PWR->CR, PWR_CR_DBP))
 8003748:	e008      	b.n	800375c <HAL_RCC_OscConfig+0x2c8>
      {
        if((HAL_GetTick() - tickstart) > RCC_DBP_TIMEOUT_VALUE)
 800374a:	f7fe fa85 	bl	8001c58 <HAL_GetTick>
 800374e:	4602      	mov	r2, r0
 8003750:	693b      	ldr	r3, [r7, #16]
 8003752:	1ad3      	subs	r3, r2, r3
 8003754:	2b02      	cmp	r3, #2
 8003756:	d901      	bls.n	800375c <HAL_RCC_OscConfig+0x2c8>
        {
          return HAL_TIMEOUT;
 8003758:	2303      	movs	r3, #3
 800375a:	e10c      	b.n	8003976 <HAL_RCC_OscConfig+0x4e2>
      while(HAL_IS_BIT_CLR(PWR->CR, PWR_CR_DBP))
 800375c:	4b6a      	ldr	r3, [pc, #424]	; (8003908 <HAL_RCC_OscConfig+0x474>)
 800375e:	681b      	ldr	r3, [r3, #0]
 8003760:	f403 7380 	and.w	r3, r3, #256	; 0x100
 8003764:	2b00      	cmp	r3, #0
 8003766:	d0f0      	beq.n	800374a <HAL_RCC_OscConfig+0x2b6>
        }
      }
    }

    /* Set the new LSE configuration -----------------------------------------*/
    __HAL_RCC_LSE_CONFIG(RCC_OscInitStruct->LSEState);
 8003768:	687b      	ldr	r3, [r7, #4]
 800376a:	689b      	ldr	r3, [r3, #8]
 800376c:	2b01      	cmp	r3, #1
 800376e:	d106      	bne.n	800377e <HAL_RCC_OscConfig+0x2ea>
 8003770:	4b64      	ldr	r3, [pc, #400]	; (8003904 <HAL_RCC_OscConfig+0x470>)
 8003772:	6f1b      	ldr	r3, [r3, #112]	; 0x70
 8003774:	4a63      	ldr	r2, [pc, #396]	; (8003904 <HAL_RCC_OscConfig+0x470>)
 8003776:	f043 0301 	orr.w	r3, r3, #1
 800377a:	6713      	str	r3, [r2, #112]	; 0x70
 800377c:	e01c      	b.n	80037b8 <HAL_RCC_OscConfig+0x324>
 800377e:	687b      	ldr	r3, [r7, #4]
 8003780:	689b      	ldr	r3, [r3, #8]
 8003782:	2b05      	cmp	r3, #5
 8003784:	d10c      	bne.n	80037a0 <HAL_RCC_OscConfig+0x30c>
 8003786:	4b5f      	ldr	r3, [pc, #380]	; (8003904 <HAL_RCC_OscConfig+0x470>)
 8003788:	6f1b      	ldr	r3, [r3, #112]	; 0x70
 800378a:	4a5e      	ldr	r2, [pc, #376]	; (8003904 <HAL_RCC_OscConfig+0x470>)
 800378c:	f043 0304 	orr.w	r3, r3, #4
 8003790:	6713      	str	r3, [r2, #112]	; 0x70
 8003792:	4b5c      	ldr	r3, [pc, #368]	; (8003904 <HAL_RCC_OscConfig+0x470>)
 8003794:	6f1b      	ldr	r3, [r3, #112]	; 0x70
 8003796:	4a5b      	ldr	r2, [pc, #364]	; (8003904 <HAL_RCC_OscConfig+0x470>)
 8003798:	f043 0301 	orr.w	r3, r3, #1
 800379c:	6713      	str	r3, [r2, #112]	; 0x70
 800379e:	e00b      	b.n	80037b8 <HAL_RCC_OscConfig+0x324>
 80037a0:	4b58      	ldr	r3, [pc, #352]	; (8003904 <HAL_RCC_OscConfig+0x470>)
 80037a2:	6f1b      	ldr	r3, [r3, #112]	; 0x70
 80037a4:	4a57      	ldr	r2, [pc, #348]	; (8003904 <HAL_RCC_OscConfig+0x470>)
 80037a6:	f023 0301 	bic.w	r3, r3, #1
 80037aa:	6713      	str	r3, [r2, #112]	; 0x70
 80037ac:	4b55      	ldr	r3, [pc, #340]	; (8003904 <HAL_RCC_OscConfig+0x470>)
 80037ae:	6f1b      	ldr	r3, [r3, #112]	; 0x70
 80037b0:	4a54      	ldr	r2, [pc, #336]	; (8003904 <HAL_RCC_OscConfig+0x470>)
 80037b2:	f023 0304 	bic.w	r3, r3, #4
 80037b6:	6713      	str	r3, [r2, #112]	; 0x70
    /* Check the LSE State */
    if((RCC_OscInitStruct->LSEState) != RCC_LSE_OFF)
 80037b8:	687b      	ldr	r3, [r7, #4]
 80037ba:	689b      	ldr	r3, [r3, #8]
 80037bc:	2b00      	cmp	r3, #0
 80037be:	d015      	beq.n	80037ec <HAL_RCC_OscConfig+0x358>
    {
      /* Get Start Tick*/
      tickstart = HAL_GetTick();
 80037c0:	f7fe fa4a 	bl	8001c58 <HAL_GetTick>
 80037c4:	6138      	str	r0, [r7, #16]

      /* Wait till LSE is ready */
      while(__HAL_RCC_GET_FLAG(RCC_FLAG_LSERDY) == RESET)
 80037c6:	e00a      	b.n	80037de <HAL_RCC_OscConfig+0x34a>
      {
        if((HAL_GetTick() - tickstart ) > RCC_LSE_TIMEOUT_VALUE)
 80037c8:	f7fe fa46 	bl	8001c58 <HAL_GetTick>
 80037cc:	4602      	mov	r2, r0
 80037ce:	693b      	ldr	r3, [r7, #16]
 80037d0:	1ad3      	subs	r3, r2, r3
 80037d2:	f241 3288 	movw	r2, #5000	; 0x1388
 80037d6:	4293      	cmp	r3, r2
 80037d8:	d901      	bls.n	80037de <HAL_RCC_OscConfig+0x34a>
        {
          return HAL_TIMEOUT;
 80037da:	2303      	movs	r3, #3
 80037dc:	e0cb      	b.n	8003976 <HAL_RCC_OscConfig+0x4e2>
      while(__HAL_RCC_GET_FLAG(RCC_FLAG_LSERDY) == RESET)
 80037de:	4b49      	ldr	r3, [pc, #292]	; (8003904 <HAL_RCC_OscConfig+0x470>)
 80037e0:	6f1b      	ldr	r3, [r3, #112]	; 0x70
 80037e2:	f003 0302 	and.w	r3, r3, #2
 80037e6:	2b00      	cmp	r3, #0
 80037e8:	d0ee      	beq.n	80037c8 <HAL_RCC_OscConfig+0x334>
 80037ea:	e014      	b.n	8003816 <HAL_RCC_OscConfig+0x382>
      }
    }
    else
    {
      /* Get Start Tick */
      tickstart = HAL_GetTick();
 80037ec:	f7fe fa34 	bl	8001c58 <HAL_GetTick>
 80037f0:	6138      	str	r0, [r7, #16]

      /* Wait till LSE is ready */
      while(__HAL_RCC_GET_FLAG(RCC_FLAG_LSERDY) != RESET)
 80037f2:	e00a      	b.n	800380a <HAL_RCC_OscConfig+0x376>
      {
        if((HAL_GetTick() - tickstart ) > RCC_LSE_TIMEOUT_VALUE)
 80037f4:	f7fe fa30 	bl	8001c58 <HAL_GetTick>
 80037f8:	4602      	mov	r2, r0
 80037fa:	693b      	ldr	r3, [r7, #16]
 80037fc:	1ad3      	subs	r3, r2, r3
 80037fe:	f241 3288 	movw	r2, #5000	; 0x1388
 8003802:	4293      	cmp	r3, r2
 8003804:	d901      	bls.n	800380a <HAL_RCC_OscConfig+0x376>
        {
          return HAL_TIMEOUT;
 8003806:	2303      	movs	r3, #3
 8003808:	e0b5      	b.n	8003976 <HAL_RCC_OscConfig+0x4e2>
      while(__HAL_RCC_GET_FLAG(RCC_FLAG_LSERDY) != RESET)
 800380a:	4b3e      	ldr	r3, [pc, #248]	; (8003904 <HAL_RCC_OscConfig+0x470>)
 800380c:	6f1b      	ldr	r3, [r3, #112]	; 0x70
 800380e:	f003 0302 	and.w	r3, r3, #2
 8003812:	2b00      	cmp	r3, #0
 8003814:	d1ee      	bne.n	80037f4 <HAL_RCC_OscConfig+0x360>
        }
      }
    }

    /* Restore clock configuration if changed */
    if(pwrclkchanged == SET)
 8003816:	7dfb      	ldrb	r3, [r7, #23]
 8003818:	2b01      	cmp	r3, #1
 800381a:	d105      	bne.n	8003828 <HAL_RCC_OscConfig+0x394>
    {
      __HAL_RCC_PWR_CLK_DISABLE();
 800381c:	4b39      	ldr	r3, [pc, #228]	; (8003904 <HAL_RCC_OscConfig+0x470>)
 800381e:	6c1b      	ldr	r3, [r3, #64]	; 0x40
 8003820:	4a38      	ldr	r2, [pc, #224]	; (8003904 <HAL_RCC_OscConfig+0x470>)
 8003822:	f023 5380 	bic.w	r3, r3, #268435456	; 0x10000000
 8003826:	6413      	str	r3, [r2, #64]	; 0x40
    }
  }
  /*-------------------------------- PLL Configuration -----------------------*/
  /* Check the parameters */
  assert_param(IS_RCC_PLL(RCC_OscInitStruct->PLL.PLLState));
  if ((RCC_OscInitStruct->PLL.PLLState) != RCC_PLL_NONE)
 8003828:	687b      	ldr	r3, [r7, #4]
 800382a:	699b      	ldr	r3, [r3, #24]
 800382c:	2b00      	cmp	r3, #0
 800382e:	f000 80a1 	beq.w	8003974 <HAL_RCC_OscConfig+0x4e0>
  {
    /* Check if the PLL is used as system clock or not */
    if(__HAL_RCC_GET_SYSCLK_SOURCE() != RCC_CFGR_SWS_PLL)
 8003832:	4b34      	ldr	r3, [pc, #208]	; (8003904 <HAL_RCC_OscConfig+0x470>)
 8003834:	689b      	ldr	r3, [r3, #8]
 8003836:	f003 030c 	and.w	r3, r3, #12
 800383a:	2b08      	cmp	r3, #8
 800383c:	d05c      	beq.n	80038f8 <HAL_RCC_OscConfig+0x464>
    {
      if((RCC_OscInitStruct->PLL.PLLState) == RCC_PLL_ON)
 800383e:	687b      	ldr	r3, [r7, #4]
 8003840:	699b      	ldr	r3, [r3, #24]
 8003842:	2b02      	cmp	r3, #2
 8003844:	d141      	bne.n	80038ca <HAL_RCC_OscConfig+0x436>
        assert_param(IS_RCC_PLLN_VALUE(RCC_OscInitStruct->PLL.PLLN));
        assert_param(IS_RCC_PLLP_VALUE(RCC_OscInitStruct->PLL.PLLP));
        assert_param(IS_RCC_PLLQ_VALUE(RCC_OscInitStruct->PLL.PLLQ));

        /* Disable the main PLL. */
        __HAL_RCC_PLL_DISABLE();
 8003846:	4b31      	ldr	r3, [pc, #196]	; (800390c <HAL_RCC_OscConfig+0x478>)
 8003848:	2200      	movs	r2, #0
 800384a:	601a      	str	r2, [r3, #0]

        /* Get Start Tick */
        tickstart = HAL_GetTick();
 800384c:	f7fe fa04 	bl	8001c58 <HAL_GetTick>
 8003850:	6138      	str	r0, [r7, #16]

        /* Wait till PLL is disabled */
        while(__HAL_RCC_GET_FLAG(RCC_FLAG_PLLRDY) != RESET)
 8003852:	e008      	b.n	8003866 <HAL_RCC_OscConfig+0x3d2>
        {
          if((HAL_GetTick() - tickstart ) > PLL_TIMEOUT_VALUE)
 8003854:	f7fe fa00 	bl	8001c58 <HAL_GetTick>
 8003858:	4602      	mov	r2, r0
 800385a:	693b      	ldr	r3, [r7, #16]
 800385c:	1ad3      	subs	r3, r2, r3
 800385e:	2b02      	cmp	r3, #2
 8003860:	d901      	bls.n	8003866 <HAL_RCC_OscConfig+0x3d2>
          {
            return HAL_TIMEOUT;
 8003862:	2303      	movs	r3, #3
 8003864:	e087      	b.n	8003976 <HAL_RCC_OscConfig+0x4e2>
        while(__HAL_RCC_GET_FLAG(RCC_FLAG_PLLRDY) != RESET)
 8003866:	4b27      	ldr	r3, [pc, #156]	; (8003904 <HAL_RCC_OscConfig+0x470>)
 8003868:	681b      	ldr	r3, [r3, #0]
 800386a:	f003 7300 	and.w	r3, r3, #33554432	; 0x2000000
 800386e:	2b00      	cmp	r3, #0
 8003870:	d1f0      	bne.n	8003854 <HAL_RCC_OscConfig+0x3c0>
          }
        }

        /* Configure the main PLL clock source, multiplication and division factors. */
        WRITE_REG(RCC->PLLCFGR, (RCC_OscInitStruct->PLL.PLLSource                                            | \
 8003872:	687b      	ldr	r3, [r7, #4]
 8003874:	69da      	ldr	r2, [r3, #28]
 8003876:	687b      	ldr	r3, [r7, #4]
 8003878:	6a1b      	ldr	r3, [r3, #32]
 800387a:	431a      	orrs	r2, r3
 800387c:	687b      	ldr	r3, [r7, #4]
 800387e:	6a5b      	ldr	r3, [r3, #36]	; 0x24
 8003880:	019b      	lsls	r3, r3, #6
 8003882:	431a      	orrs	r2, r3
 8003884:	687b      	ldr	r3, [r7, #4]
 8003886:	6a9b      	ldr	r3, [r3, #40]	; 0x28
 8003888:	085b      	lsrs	r3, r3, #1
 800388a:	3b01      	subs	r3, #1
 800388c:	041b      	lsls	r3, r3, #16
 800388e:	431a      	orrs	r2, r3
 8003890:	687b      	ldr	r3, [r7, #4]
 8003892:	6adb      	ldr	r3, [r3, #44]	; 0x2c
 8003894:	061b      	lsls	r3, r3, #24
 8003896:	491b      	ldr	r1, [pc, #108]	; (8003904 <HAL_RCC_OscConfig+0x470>)
 8003898:	4313      	orrs	r3, r2
 800389a:	604b      	str	r3, [r1, #4]
                                 RCC_OscInitStruct->PLL.PLLM                                                 | \
                                 (RCC_OscInitStruct->PLL.PLLN << RCC_PLLCFGR_PLLN_Pos)             | \
                                 (((RCC_OscInitStruct->PLL.PLLP >> 1U) - 1U) << RCC_PLLCFGR_PLLP_Pos) | \
                                 (RCC_OscInitStruct->PLL.PLLQ << RCC_PLLCFGR_PLLQ_Pos)));
        /* Enable the main PLL. */
        __HAL_RCC_PLL_ENABLE();
 800389c:	4b1b      	ldr	r3, [pc, #108]	; (800390c <HAL_RCC_OscConfig+0x478>)
 800389e:	2201      	movs	r2, #1
 80038a0:	601a      	str	r2, [r3, #0]

        /* Get Start Tick */
        tickstart = HAL_GetTick();
 80038a2:	f7fe f9d9 	bl	8001c58 <HAL_GetTick>
 80038a6:	6138      	str	r0, [r7, #16]

        /* Wait till PLL is ready */
        while(__HAL_RCC_GET_FLAG(RCC_FLAG_PLLRDY) == RESET)
 80038a8:	e008      	b.n	80038bc <HAL_RCC_OscConfig+0x428>
        {
          if((HAL_GetTick() - tickstart ) > PLL_TIMEOUT_VALUE)
 80038aa:	f7fe f9d5 	bl	8001c58 <HAL_GetTick>
 80038ae:	4602      	mov	r2, r0
 80038b0:	693b      	ldr	r3, [r7, #16]
 80038b2:	1ad3      	subs	r3, r2, r3
 80038b4:	2b02      	cmp	r3, #2
 80038b6:	d901      	bls.n	80038bc <HAL_RCC_OscConfig+0x428>
          {
            return HAL_TIMEOUT;
 80038b8:	2303      	movs	r3, #3
 80038ba:	e05c      	b.n	8003976 <HAL_RCC_OscConfig+0x4e2>
        while(__HAL_RCC_GET_FLAG(RCC_FLAG_PLLRDY) == RESET)
 80038bc:	4b11      	ldr	r3, [pc, #68]	; (8003904 <HAL_RCC_OscConfig+0x470>)
 80038be:	681b      	ldr	r3, [r3, #0]
 80038c0:	f003 7300 	and.w	r3, r3, #33554432	; 0x2000000
 80038c4:	2b00      	cmp	r3, #0
 80038c6:	d0f0      	beq.n	80038aa <HAL_RCC_OscConfig+0x416>
 80038c8:	e054      	b.n	8003974 <HAL_RCC_OscConfig+0x4e0>
        }
      }
      else
      {
        /* Disable the main PLL. */
        __HAL_RCC_PLL_DISABLE();
 80038ca:	4b10      	ldr	r3, [pc, #64]	; (800390c <HAL_RCC_OscConfig+0x478>)
 80038cc:	2200      	movs	r2, #0
 80038ce:	601a      	str	r2, [r3, #0]

        /* Get Start Tick */
        tickstart = HAL_GetTick();
 80038d0:	f7fe f9c2 	bl	8001c58 <HAL_GetTick>
 80038d4:	6138      	str	r0, [r7, #16]

        /* Wait till PLL is disabled */
        while(__HAL_RCC_GET_FLAG(RCC_FLAG_PLLRDY) != RESET)
 80038d6:	e008      	b.n	80038ea <HAL_RCC_OscConfig+0x456>
        {
          if((HAL_GetTick() - tickstart ) > PLL_TIMEOUT_VALUE)
 80038d8:	f7fe f9be 	bl	8001c58 <HAL_GetTick>
 80038dc:	4602      	mov	r2, r0
 80038de:	693b      	ldr	r3, [r7, #16]
 80038e0:	1ad3      	subs	r3, r2, r3
 80038e2:	2b02      	cmp	r3, #2
 80038e4:	d901      	bls.n	80038ea <HAL_RCC_OscConfig+0x456>
          {
            return HAL_TIMEOUT;
 80038e6:	2303      	movs	r3, #3
 80038e8:	e045      	b.n	8003976 <HAL_RCC_OscConfig+0x4e2>
        while(__HAL_RCC_GET_FLAG(RCC_FLAG_PLLRDY) != RESET)
 80038ea:	4b06      	ldr	r3, [pc, #24]	; (8003904 <HAL_RCC_OscConfig+0x470>)
 80038ec:	681b      	ldr	r3, [r3, #0]
 80038ee:	f003 7300 	and.w	r3, r3, #33554432	; 0x2000000
 80038f2:	2b00      	cmp	r3, #0
 80038f4:	d1f0      	bne.n	80038d8 <HAL_RCC_OscConfig+0x444>
 80038f6:	e03d      	b.n	8003974 <HAL_RCC_OscConfig+0x4e0>
      }
    }
    else
    {
      /* Check if there is a request to disable the PLL used as System clock source */
      if((RCC_OscInitStruct->PLL.PLLState) == RCC_PLL_OFF)
 80038f8:	687b      	ldr	r3, [r7, #4]
 80038fa:	699b      	ldr	r3, [r3, #24]
 80038fc:	2b01      	cmp	r3, #1
 80038fe:	d107      	bne.n	8003910 <HAL_RCC_OscConfig+0x47c>
      {
        return HAL_ERROR;
 8003900:	2301      	movs	r3, #1
 8003902:	e038      	b.n	8003976 <HAL_RCC_OscConfig+0x4e2>
 8003904:	40023800 	.word	0x40023800
 8003908:	40007000 	.word	0x40007000
 800390c:	42470060 	.word	0x42470060
      }
      else
      {
        /* Do not return HAL_ERROR if request repeats the current configuration */
        pll_config = RCC->PLLCFGR;
 8003910:	4b1b      	ldr	r3, [pc, #108]	; (8003980 <HAL_RCC_OscConfig+0x4ec>)
 8003912:	685b      	ldr	r3, [r3, #4]
 8003914:	60fb      	str	r3, [r7, #12]
            (READ_BIT(pll_config, RCC_PLLCFGR_PLLN) != (RCC_OscInitStruct->PLL.PLLN) << RCC_PLLCFGR_PLLN_Pos) ||
            (READ_BIT(pll_config, RCC_PLLCFGR_PLLP) != (((RCC_OscInitStruct->PLL.PLLP >> 1U) - 1U)) << RCC_PLLCFGR_PLLP_Pos) ||
            (READ_BIT(pll_config, RCC_PLLCFGR_PLLQ) != (RCC_OscInitStruct->PLL.PLLQ << RCC_PLLCFGR_PLLQ_Pos)) ||
            (READ_BIT(pll_config, RCC_PLLCFGR_PLLR) != (RCC_OscInitStruct->PLL.PLLR << RCC_PLLCFGR_PLLR_Pos)))
#else
        if (((RCC_OscInitStruct->PLL.PLLState) == RCC_PLL_OFF) ||
 8003916:	687b      	ldr	r3, [r7, #4]
 8003918:	699b      	ldr	r3, [r3, #24]
 800391a:	2b01      	cmp	r3, #1
 800391c:	d028      	beq.n	8003970 <HAL_RCC_OscConfig+0x4dc>
            (READ_BIT(pll_config, RCC_PLLCFGR_PLLSRC) != RCC_OscInitStruct->PLL.PLLSource) ||
 800391e:	68fb      	ldr	r3, [r7, #12]
 8003920:	f403 0280 	and.w	r2, r3, #4194304	; 0x400000
 8003924:	687b      	ldr	r3, [r7, #4]
 8003926:	69db      	ldr	r3, [r3, #28]
        if (((RCC_OscInitStruct->PLL.PLLState) == RCC_PLL_OFF) ||
 8003928:	429a      	cmp	r2, r3
 800392a:	d121      	bne.n	8003970 <HAL_RCC_OscConfig+0x4dc>
            (READ_BIT(pll_config, RCC_PLLCFGR_PLLM) != (RCC_OscInitStruct->PLL.PLLM) << RCC_PLLCFGR_PLLM_Pos) ||
 800392c:	68fb      	ldr	r3, [r7, #12]
 800392e:	f003 023f 	and.w	r2, r3, #63	; 0x3f
 8003932:	687b      	ldr	r3, [r7, #4]
 8003934:	6a1b      	ldr	r3, [r3, #32]
            (READ_BIT(pll_config, RCC_PLLCFGR_PLLSRC) != RCC_OscInitStruct->PLL.PLLSource) ||
 8003936:	429a      	cmp	r2, r3
 8003938:	d11a      	bne.n	8003970 <HAL_RCC_OscConfig+0x4dc>
            (READ_BIT(pll_config, RCC_PLLCFGR_PLLN) != (RCC_OscInitStruct->PLL.PLLN) << RCC_PLLCFGR_PLLN_Pos) ||
 800393a:	68fa      	ldr	r2, [r7, #12]
 800393c:	f647 73c0 	movw	r3, #32704	; 0x7fc0
 8003940:	4013      	ands	r3, r2
 8003942:	687a      	ldr	r2, [r7, #4]
 8003944:	6a52      	ldr	r2, [r2, #36]	; 0x24
 8003946:	0192      	lsls	r2, r2, #6
            (READ_BIT(pll_config, RCC_PLLCFGR_PLLM) != (RCC_OscInitStruct->PLL.PLLM) << RCC_PLLCFGR_PLLM_Pos) ||
 8003948:	4293      	cmp	r3, r2
 800394a:	d111      	bne.n	8003970 <HAL_RCC_OscConfig+0x4dc>
            (READ_BIT(pll_config, RCC_PLLCFGR_PLLP) != (((RCC_OscInitStruct->PLL.PLLP >> 1U) - 1U)) << RCC_PLLCFGR_PLLP_Pos) ||
 800394c:	68fb      	ldr	r3, [r7, #12]
 800394e:	f403 3240 	and.w	r2, r3, #196608	; 0x30000
 8003952:	687b      	ldr	r3, [r7, #4]
 8003954:	6a9b      	ldr	r3, [r3, #40]	; 0x28
 8003956:	085b      	lsrs	r3, r3, #1
 8003958:	3b01      	subs	r3, #1
 800395a:	041b      	lsls	r3, r3, #16
            (READ_BIT(pll_config, RCC_PLLCFGR_PLLN) != (RCC_OscInitStruct->PLL.PLLN) << RCC_PLLCFGR_PLLN_Pos) ||
 800395c:	429a      	cmp	r2, r3
 800395e:	d107      	bne.n	8003970 <HAL_RCC_OscConfig+0x4dc>
            (READ_BIT(pll_config, RCC_PLLCFGR_PLLQ) != (RCC_OscInitStruct->PLL.PLLQ << RCC_PLLCFGR_PLLQ_Pos)))
 8003960:	68fb      	ldr	r3, [r7, #12]
 8003962:	f003 6270 	and.w	r2, r3, #251658240	; 0xf000000
 8003966:	687b      	ldr	r3, [r7, #4]
 8003968:	6adb      	ldr	r3, [r3, #44]	; 0x2c
 800396a:	061b      	lsls	r3, r3, #24
            (READ_BIT(pll_config, RCC_PLLCFGR_PLLP) != (((RCC_OscInitStruct->PLL.PLLP >> 1U) - 1U)) << RCC_PLLCFGR_PLLP_Pos) ||
 800396c:	429a      	cmp	r2, r3
 800396e:	d001      	beq.n	8003974 <HAL_RCC_OscConfig+0x4e0>
#endif
        {
          return HAL_ERROR;
 8003970:	2301      	movs	r3, #1
 8003972:	e000      	b.n	8003976 <HAL_RCC_OscConfig+0x4e2>
        }
      }
    }
  }
  return HAL_OK;
 8003974:	2300      	movs	r3, #0
}
 8003976:	4618      	mov	r0, r3
 8003978:	3718      	adds	r7, #24
 800397a:	46bd      	mov	sp, r7
 800397c:	bd80      	pop	{r7, pc}
 800397e:	bf00      	nop
 8003980:	40023800 	.word	0x40023800

08003984 <HAL_RCC_ClockConfig>:
  *         HPRE[3:0] bits to ensure that HCLK not exceed the maximum allowed frequency
  *         (for more details refer to section above "Initialization/de-initialization functions")
  * @retval None
  */
HAL_StatusTypeDef HAL_RCC_ClockConfig(RCC_ClkInitTypeDef  *RCC_ClkInitStruct, uint32_t FLatency)
{
 8003984:	b580      	push	{r7, lr}
 8003986:	b084      	sub	sp, #16
 8003988:	af00      	add	r7, sp, #0
 800398a:	6078      	str	r0, [r7, #4]
 800398c:	6039      	str	r1, [r7, #0]
  uint32_t tickstart;

  /* Check Null pointer */
  if(RCC_ClkInitStruct == NULL)
 800398e:	687b      	ldr	r3, [r7, #4]
 8003990:	2b00      	cmp	r3, #0
 8003992:	d101      	bne.n	8003998 <HAL_RCC_ClockConfig+0x14>
  {
    return HAL_ERROR;
 8003994:	2301      	movs	r3, #1
 8003996:	e0cc      	b.n	8003b32 <HAL_RCC_ClockConfig+0x1ae>
  /* To correctly read data from FLASH memory, the number of wait states (LATENCY)
    must be correctly programmed according to the frequency of the CPU clock
    (HCLK) and the supply voltage of the device. */

  /* Increasing the number of wait states because of higher CPU frequency */
  if(FLatency > __HAL_FLASH_GET_LATENCY())
 8003998:	4b68      	ldr	r3, [pc, #416]	; (8003b3c <HAL_RCC_ClockConfig+0x1b8>)
 800399a:	681b      	ldr	r3, [r3, #0]
 800399c:	f003 030f 	and.w	r3, r3, #15
 80039a0:	683a      	ldr	r2, [r7, #0]
 80039a2:	429a      	cmp	r2, r3
 80039a4:	d90c      	bls.n	80039c0 <HAL_RCC_ClockConfig+0x3c>
  {
    /* Program the new number of wait states to the LATENCY bits in the FLASH_ACR register */
    __HAL_FLASH_SET_LATENCY(FLatency);
 80039a6:	4b65      	ldr	r3, [pc, #404]	; (8003b3c <HAL_RCC_ClockConfig+0x1b8>)
 80039a8:	683a      	ldr	r2, [r7, #0]
 80039aa:	b2d2      	uxtb	r2, r2
 80039ac:	701a      	strb	r2, [r3, #0]

    /* Check that the new number of wait states is taken into account to access the Flash
    memory by reading the FLASH_ACR register */
    if(__HAL_FLASH_GET_LATENCY() != FLatency)
 80039ae:	4b63      	ldr	r3, [pc, #396]	; (8003b3c <HAL_RCC_ClockConfig+0x1b8>)
 80039b0:	681b      	ldr	r3, [r3, #0]
 80039b2:	f003 030f 	and.w	r3, r3, #15
 80039b6:	683a      	ldr	r2, [r7, #0]
 80039b8:	429a      	cmp	r2, r3
 80039ba:	d001      	beq.n	80039c0 <HAL_RCC_ClockConfig+0x3c>
    {
      return HAL_ERROR;
 80039bc:	2301      	movs	r3, #1
 80039be:	e0b8      	b.n	8003b32 <HAL_RCC_ClockConfig+0x1ae>
    }
  }

  /*-------------------------- HCLK Configuration --------------------------*/
  if(((RCC_ClkInitStruct->ClockType) & RCC_CLOCKTYPE_HCLK) == RCC_CLOCKTYPE_HCLK)
 80039c0:	687b      	ldr	r3, [r7, #4]
 80039c2:	681b      	ldr	r3, [r3, #0]
 80039c4:	f003 0302 	and.w	r3, r3, #2
 80039c8:	2b00      	cmp	r3, #0
 80039ca:	d020      	beq.n	8003a0e <HAL_RCC_ClockConfig+0x8a>
  {
    /* Set the highest APBx dividers in order to ensure that we do not go through
       a non-spec phase whatever we decrease or increase HCLK. */
    if(((RCC_ClkInitStruct->ClockType) & RCC_CLOCKTYPE_PCLK1) == RCC_CLOCKTYPE_PCLK1)
 80039cc:	687b      	ldr	r3, [r7, #4]
 80039ce:	681b      	ldr	r3, [r3, #0]
 80039d0:	f003 0304 	and.w	r3, r3, #4
 80039d4:	2b00      	cmp	r3, #0
 80039d6:	d005      	beq.n	80039e4 <HAL_RCC_ClockConfig+0x60>
    {
      MODIFY_REG(RCC->CFGR, RCC_CFGR_PPRE1, RCC_HCLK_DIV16);
 80039d8:	4b59      	ldr	r3, [pc, #356]	; (8003b40 <HAL_RCC_ClockConfig+0x1bc>)
 80039da:	689b      	ldr	r3, [r3, #8]
 80039dc:	4a58      	ldr	r2, [pc, #352]	; (8003b40 <HAL_RCC_ClockConfig+0x1bc>)
 80039de:	f443 53e0 	orr.w	r3, r3, #7168	; 0x1c00
 80039e2:	6093      	str	r3, [r2, #8]
    }

    if(((RCC_ClkInitStruct->ClockType) & RCC_CLOCKTYPE_PCLK2) == RCC_CLOCKTYPE_PCLK2)
 80039e4:	687b      	ldr	r3, [r7, #4]
 80039e6:	681b      	ldr	r3, [r3, #0]
 80039e8:	f003 0308 	and.w	r3, r3, #8
 80039ec:	2b00      	cmp	r3, #0
 80039ee:	d005      	beq.n	80039fc <HAL_RCC_ClockConfig+0x78>
    {
      MODIFY_REG(RCC->CFGR, RCC_CFGR_PPRE2, (RCC_HCLK_DIV16 << 3));
 80039f0:	4b53      	ldr	r3, [pc, #332]	; (8003b40 <HAL_RCC_ClockConfig+0x1bc>)
 80039f2:	689b      	ldr	r3, [r3, #8]
 80039f4:	4a52      	ldr	r2, [pc, #328]	; (8003b40 <HAL_RCC_ClockConfig+0x1bc>)
 80039f6:	f443 4360 	orr.w	r3, r3, #57344	; 0xe000
 80039fa:	6093      	str	r3, [r2, #8]
    }

    assert_param(IS_RCC_HCLK(RCC_ClkInitStruct->AHBCLKDivider));
    MODIFY_REG(RCC->CFGR, RCC_CFGR_HPRE, RCC_ClkInitStruct->AHBCLKDivider);
 80039fc:	4b50      	ldr	r3, [pc, #320]	; (8003b40 <HAL_RCC_ClockConfig+0x1bc>)
 80039fe:	689b      	ldr	r3, [r3, #8]
 8003a00:	f023 02f0 	bic.w	r2, r3, #240	; 0xf0
 8003a04:	687b      	ldr	r3, [r7, #4]
 8003a06:	689b      	ldr	r3, [r3, #8]
 8003a08:	494d      	ldr	r1, [pc, #308]	; (8003b40 <HAL_RCC_ClockConfig+0x1bc>)
 8003a0a:	4313      	orrs	r3, r2
 8003a0c:	608b      	str	r3, [r1, #8]
  }

  /*------------------------- SYSCLK Configuration ---------------------------*/
  if(((RCC_ClkInitStruct->ClockType) & RCC_CLOCKTYPE_SYSCLK) == RCC_CLOCKTYPE_SYSCLK)
 8003a0e:	687b      	ldr	r3, [r7, #4]
 8003a10:	681b      	ldr	r3, [r3, #0]
 8003a12:	f003 0301 	and.w	r3, r3, #1
 8003a16:	2b00      	cmp	r3, #0
 8003a18:	d044      	beq.n	8003aa4 <HAL_RCC_ClockConfig+0x120>
  {
    assert_param(IS_RCC_SYSCLKSOURCE(RCC_ClkInitStruct->SYSCLKSource));

    /* HSE is selected as System Clock Source */
    if(RCC_ClkInitStruct->SYSCLKSource == RCC_SYSCLKSOURCE_HSE)
 8003a1a:	687b      	ldr	r3, [r7, #4]
 8003a1c:	685b      	ldr	r3, [r3, #4]
 8003a1e:	2b01      	cmp	r3, #1
 8003a20:	d107      	bne.n	8003a32 <HAL_RCC_ClockConfig+0xae>
    {
      /* Check the HSE ready flag */
      if(__HAL_RCC_GET_FLAG(RCC_FLAG_HSERDY) == RESET)
 8003a22:	4b47      	ldr	r3, [pc, #284]	; (8003b40 <HAL_RCC_ClockConfig+0x1bc>)
 8003a24:	681b      	ldr	r3, [r3, #0]
 8003a26:	f403 3300 	and.w	r3, r3, #131072	; 0x20000
 8003a2a:	2b00      	cmp	r3, #0
 8003a2c:	d119      	bne.n	8003a62 <HAL_RCC_ClockConfig+0xde>
      {
        return HAL_ERROR;
 8003a2e:	2301      	movs	r3, #1
 8003a30:	e07f      	b.n	8003b32 <HAL_RCC_ClockConfig+0x1ae>
      }
    }
    /* PLL is selected as System Clock Source */
    else if((RCC_ClkInitStruct->SYSCLKSource == RCC_SYSCLKSOURCE_PLLCLK)   ||
 8003a32:	687b      	ldr	r3, [r7, #4]
 8003a34:	685b      	ldr	r3, [r3, #4]
 8003a36:	2b02      	cmp	r3, #2
 8003a38:	d003      	beq.n	8003a42 <HAL_RCC_ClockConfig+0xbe>
            (RCC_ClkInitStruct->SYSCLKSource == RCC_SYSCLKSOURCE_PLLRCLK))
 8003a3a:	687b      	ldr	r3, [r7, #4]
 8003a3c:	685b      	ldr	r3, [r3, #4]
    else if((RCC_ClkInitStruct->SYSCLKSource == RCC_SYSCLKSOURCE_PLLCLK)   ||
 8003a3e:	2b03      	cmp	r3, #3
 8003a40:	d107      	bne.n	8003a52 <HAL_RCC_ClockConfig+0xce>
    {
      /* Check the PLL ready flag */
      if(__HAL_RCC_GET_FLAG(RCC_FLAG_PLLRDY) == RESET)
 8003a42:	4b3f      	ldr	r3, [pc, #252]	; (8003b40 <HAL_RCC_ClockConfig+0x1bc>)
 8003a44:	681b      	ldr	r3, [r3, #0]
 8003a46:	f003 7300 	and.w	r3, r3, #33554432	; 0x2000000
 8003a4a:	2b00      	cmp	r3, #0
 8003a4c:	d109      	bne.n	8003a62 <HAL_RCC_ClockConfig+0xde>
      {
        return HAL_ERROR;
 8003a4e:	2301      	movs	r3, #1
 8003a50:	e06f      	b.n	8003b32 <HAL_RCC_ClockConfig+0x1ae>
    }
    /* HSI is selected as System Clock Source */
    else
    {
      /* Check the HSI ready flag */
      if(__HAL_RCC_GET_FLAG(RCC_FLAG_HSIRDY) == RESET)
 8003a52:	4b3b      	ldr	r3, [pc, #236]	; (8003b40 <HAL_RCC_ClockConfig+0x1bc>)
 8003a54:	681b      	ldr	r3, [r3, #0]
 8003a56:	f003 0302 	and.w	r3, r3, #2
 8003a5a:	2b00      	cmp	r3, #0
 8003a5c:	d101      	bne.n	8003a62 <HAL_RCC_ClockConfig+0xde>
      {
        return HAL_ERROR;
 8003a5e:	2301      	movs	r3, #1
 8003a60:	e067      	b.n	8003b32 <HAL_RCC_ClockConfig+0x1ae>
      }
    }

    __HAL_RCC_SYSCLK_CONFIG(RCC_ClkInitStruct->SYSCLKSource);
 8003a62:	4b37      	ldr	r3, [pc, #220]	; (8003b40 <HAL_RCC_ClockConfig+0x1bc>)
 8003a64:	689b      	ldr	r3, [r3, #8]
 8003a66:	f023 0203 	bic.w	r2, r3, #3
 8003a6a:	687b      	ldr	r3, [r7, #4]
 8003a6c:	685b      	ldr	r3, [r3, #4]
 8003a6e:	4934      	ldr	r1, [pc, #208]	; (8003b40 <HAL_RCC_ClockConfig+0x1bc>)
 8003a70:	4313      	orrs	r3, r2
 8003a72:	608b      	str	r3, [r1, #8]

    /* Get Start Tick */
    tickstart = HAL_GetTick();
 8003a74:	f7fe f8f0 	bl	8001c58 <HAL_GetTick>
 8003a78:	60f8      	str	r0, [r7, #12]

    while (__HAL_RCC_GET_SYSCLK_SOURCE() != (RCC_ClkInitStruct->SYSCLKSource << RCC_CFGR_SWS_Pos))
 8003a7a:	e00a      	b.n	8003a92 <HAL_RCC_ClockConfig+0x10e>
    {
      if ((HAL_GetTick() - tickstart) > CLOCKSWITCH_TIMEOUT_VALUE)
 8003a7c:	f7fe f8ec 	bl	8001c58 <HAL_GetTick>
 8003a80:	4602      	mov	r2, r0
 8003a82:	68fb      	ldr	r3, [r7, #12]
 8003a84:	1ad3      	subs	r3, r2, r3
 8003a86:	f241 3288 	movw	r2, #5000	; 0x1388
 8003a8a:	4293      	cmp	r3, r2
 8003a8c:	d901      	bls.n	8003a92 <HAL_RCC_ClockConfig+0x10e>
      {
        return HAL_TIMEOUT;
 8003a8e:	2303      	movs	r3, #3
 8003a90:	e04f      	b.n	8003b32 <HAL_RCC_ClockConfig+0x1ae>
    while (__HAL_RCC_GET_SYSCLK_SOURCE() != (RCC_ClkInitStruct->SYSCLKSource << RCC_CFGR_SWS_Pos))
 8003a92:	4b2b      	ldr	r3, [pc, #172]	; (8003b40 <HAL_RCC_ClockConfig+0x1bc>)
 8003a94:	689b      	ldr	r3, [r3, #8]
 8003a96:	f003 020c 	and.w	r2, r3, #12
 8003a9a:	687b      	ldr	r3, [r7, #4]
 8003a9c:	685b      	ldr	r3, [r3, #4]
 8003a9e:	009b      	lsls	r3, r3, #2
 8003aa0:	429a      	cmp	r2, r3
 8003aa2:	d1eb      	bne.n	8003a7c <HAL_RCC_ClockConfig+0xf8>
      }
    }
  }

  /* Decreasing the number of wait states because of lower CPU frequency */
  if(FLatency < __HAL_FLASH_GET_LATENCY())
 8003aa4:	4b25      	ldr	r3, [pc, #148]	; (8003b3c <HAL_RCC_ClockConfig+0x1b8>)
 8003aa6:	681b      	ldr	r3, [r3, #0]
 8003aa8:	f003 030f 	and.w	r3, r3, #15
 8003aac:	683a      	ldr	r2, [r7, #0]
 8003aae:	429a      	cmp	r2, r3
 8003ab0:	d20c      	bcs.n	8003acc <HAL_RCC_ClockConfig+0x148>
  {
     /* Program the new number of wait states to the LATENCY bits in the FLASH_ACR register */
    __HAL_FLASH_SET_LATENCY(FLatency);
 8003ab2:	4b22      	ldr	r3, [pc, #136]	; (8003b3c <HAL_RCC_ClockConfig+0x1b8>)
 8003ab4:	683a      	ldr	r2, [r7, #0]
 8003ab6:	b2d2      	uxtb	r2, r2
 8003ab8:	701a      	strb	r2, [r3, #0]

    /* Check that the new number of wait states is taken into account to access the Flash
    memory by reading the FLASH_ACR register */
    if(__HAL_FLASH_GET_LATENCY() != FLatency)
 8003aba:	4b20      	ldr	r3, [pc, #128]	; (8003b3c <HAL_RCC_ClockConfig+0x1b8>)
 8003abc:	681b      	ldr	r3, [r3, #0]
 8003abe:	f003 030f 	and.w	r3, r3, #15
 8003ac2:	683a      	ldr	r2, [r7, #0]
 8003ac4:	429a      	cmp	r2, r3
 8003ac6:	d001      	beq.n	8003acc <HAL_RCC_ClockConfig+0x148>
    {
      return HAL_ERROR;
 8003ac8:	2301      	movs	r3, #1
 8003aca:	e032      	b.n	8003b32 <HAL_RCC_ClockConfig+0x1ae>
    }
  }

  /*-------------------------- PCLK1 Configuration ---------------------------*/
  if(((RCC_ClkInitStruct->ClockType) & RCC_CLOCKTYPE_PCLK1) == RCC_CLOCKTYPE_PCLK1)
 8003acc:	687b      	ldr	r3, [r7, #4]
 8003ace:	681b      	ldr	r3, [r3, #0]
 8003ad0:	f003 0304 	and.w	r3, r3, #4
 8003ad4:	2b00      	cmp	r3, #0
 8003ad6:	d008      	beq.n	8003aea <HAL_RCC_ClockConfig+0x166>
  {
    assert_param(IS_RCC_PCLK(RCC_ClkInitStruct->APB1CLKDivider));
    MODIFY_REG(RCC->CFGR, RCC_CFGR_PPRE1, RCC_ClkInitStruct->APB1CLKDivider);
 8003ad8:	4b19      	ldr	r3, [pc, #100]	; (8003b40 <HAL_RCC_ClockConfig+0x1bc>)
 8003ada:	689b      	ldr	r3, [r3, #8]
 8003adc:	f423 52e0 	bic.w	r2, r3, #7168	; 0x1c00
 8003ae0:	687b      	ldr	r3, [r7, #4]
 8003ae2:	68db      	ldr	r3, [r3, #12]
 8003ae4:	4916      	ldr	r1, [pc, #88]	; (8003b40 <HAL_RCC_ClockConfig+0x1bc>)
 8003ae6:	4313      	orrs	r3, r2
 8003ae8:	608b      	str	r3, [r1, #8]
  }

  /*-------------------------- PCLK2 Configuration ---------------------------*/
  if(((RCC_ClkInitStruct->ClockType) & RCC_CLOCKTYPE_PCLK2) == RCC_CLOCKTYPE_PCLK2)
 8003aea:	687b      	ldr	r3, [r7, #4]
 8003aec:	681b      	ldr	r3, [r3, #0]
 8003aee:	f003 0308 	and.w	r3, r3, #8
 8003af2:	2b00      	cmp	r3, #0
 8003af4:	d009      	beq.n	8003b0a <HAL_RCC_ClockConfig+0x186>
  {
    assert_param(IS_RCC_PCLK(RCC_ClkInitStruct->APB2CLKDivider));
    MODIFY_REG(RCC->CFGR, RCC_CFGR_PPRE2, ((RCC_ClkInitStruct->APB2CLKDivider) << 3U));
 8003af6:	4b12      	ldr	r3, [pc, #72]	; (8003b40 <HAL_RCC_ClockConfig+0x1bc>)
 8003af8:	689b      	ldr	r3, [r3, #8]
 8003afa:	f423 4260 	bic.w	r2, r3, #57344	; 0xe000
 8003afe:	687b      	ldr	r3, [r7, #4]
 8003b00:	691b      	ldr	r3, [r3, #16]
 8003b02:	00db      	lsls	r3, r3, #3
 8003b04:	490e      	ldr	r1, [pc, #56]	; (8003b40 <HAL_RCC_ClockConfig+0x1bc>)
 8003b06:	4313      	orrs	r3, r2
 8003b08:	608b      	str	r3, [r1, #8]
  }

  /* Update the SystemCoreClock global variable */
  SystemCoreClock = HAL_RCC_GetSysClockFreq() >> AHBPrescTable[(RCC->CFGR & RCC_CFGR_HPRE)>> RCC_CFGR_HPRE_Pos];
 8003b0a:	f000 f821 	bl	8003b50 <HAL_RCC_GetSysClockFreq>
 8003b0e:	4602      	mov	r2, r0
 8003b10:	4b0b      	ldr	r3, [pc, #44]	; (8003b40 <HAL_RCC_ClockConfig+0x1bc>)
 8003b12:	689b      	ldr	r3, [r3, #8]
 8003b14:	091b      	lsrs	r3, r3, #4
 8003b16:	f003 030f 	and.w	r3, r3, #15
 8003b1a:	490a      	ldr	r1, [pc, #40]	; (8003b44 <HAL_RCC_ClockConfig+0x1c0>)
 8003b1c:	5ccb      	ldrb	r3, [r1, r3]
 8003b1e:	fa22 f303 	lsr.w	r3, r2, r3
 8003b22:	4a09      	ldr	r2, [pc, #36]	; (8003b48 <HAL_RCC_ClockConfig+0x1c4>)
 8003b24:	6013      	str	r3, [r2, #0]

  /* Configure the source of time base considering new system clocks settings */
  HAL_InitTick (uwTickPrio);
 8003b26:	4b09      	ldr	r3, [pc, #36]	; (8003b4c <HAL_RCC_ClockConfig+0x1c8>)
 8003b28:	681b      	ldr	r3, [r3, #0]
 8003b2a:	4618      	mov	r0, r3
 8003b2c:	f7fe f850 	bl	8001bd0 <HAL_InitTick>

  return HAL_OK;
 8003b30:	2300      	movs	r3, #0
}
 8003b32:	4618      	mov	r0, r3
 8003b34:	3710      	adds	r7, #16
 8003b36:	46bd      	mov	sp, r7
 8003b38:	bd80      	pop	{r7, pc}
 8003b3a:	bf00      	nop
 8003b3c:	40023c00 	.word	0x40023c00
 8003b40:	40023800 	.word	0x40023800
 8003b44:	08006c58 	.word	0x08006c58
 8003b48:	20000018 	.word	0x20000018
 8003b4c:	2000001c 	.word	0x2000001c

08003b50 <HAL_RCC_GetSysClockFreq>:
  *
  *
  * @retval SYSCLK frequency
  */
__weak uint32_t HAL_RCC_GetSysClockFreq(void)
{
 8003b50:	e92d 4fb0 	stmdb	sp!, {r4, r5, r7, r8, r9, sl, fp, lr}
 8003b54:	b090      	sub	sp, #64	; 0x40
 8003b56:	af00      	add	r7, sp, #0
  uint32_t pllm = 0U, pllvco = 0U, pllp = 0U;
 8003b58:	2300      	movs	r3, #0
 8003b5a:	637b      	str	r3, [r7, #52]	; 0x34
 8003b5c:	2300      	movs	r3, #0
 8003b5e:	63fb      	str	r3, [r7, #60]	; 0x3c
 8003b60:	2300      	movs	r3, #0
 8003b62:	633b      	str	r3, [r7, #48]	; 0x30
  uint32_t sysclockfreq = 0U;
 8003b64:	2300      	movs	r3, #0
 8003b66:	63bb      	str	r3, [r7, #56]	; 0x38

  /* Get SYSCLK source -------------------------------------------------------*/
  switch (RCC->CFGR & RCC_CFGR_SWS)
 8003b68:	4b59      	ldr	r3, [pc, #356]	; (8003cd0 <HAL_RCC_GetSysClockFreq+0x180>)
 8003b6a:	689b      	ldr	r3, [r3, #8]
 8003b6c:	f003 030c 	and.w	r3, r3, #12
 8003b70:	2b08      	cmp	r3, #8
 8003b72:	d00d      	beq.n	8003b90 <HAL_RCC_GetSysClockFreq+0x40>
 8003b74:	2b08      	cmp	r3, #8
 8003b76:	f200 80a1 	bhi.w	8003cbc <HAL_RCC_GetSysClockFreq+0x16c>
 8003b7a:	2b00      	cmp	r3, #0
 8003b7c:	d002      	beq.n	8003b84 <HAL_RCC_GetSysClockFreq+0x34>
 8003b7e:	2b04      	cmp	r3, #4
 8003b80:	d003      	beq.n	8003b8a <HAL_RCC_GetSysClockFreq+0x3a>
 8003b82:	e09b      	b.n	8003cbc <HAL_RCC_GetSysClockFreq+0x16c>
  {
    case RCC_CFGR_SWS_HSI:  /* HSI used as system clock source */
    {
      sysclockfreq = HSI_VALUE;
 8003b84:	4b53      	ldr	r3, [pc, #332]	; (8003cd4 <HAL_RCC_GetSysClockFreq+0x184>)
 8003b86:	63bb      	str	r3, [r7, #56]	; 0x38
       break;
 8003b88:	e09b      	b.n	8003cc2 <HAL_RCC_GetSysClockFreq+0x172>
    }
    case RCC_CFGR_SWS_HSE:  /* HSE used as system clock  source */
    {
      sysclockfreq = HSE_VALUE;
 8003b8a:	4b53      	ldr	r3, [pc, #332]	; (8003cd8 <HAL_RCC_GetSysClockFreq+0x188>)
 8003b8c:	63bb      	str	r3, [r7, #56]	; 0x38
      break;
 8003b8e:	e098      	b.n	8003cc2 <HAL_RCC_GetSysClockFreq+0x172>
    }
    case RCC_CFGR_SWS_PLL:  /* PLL used as system clock  source */
    {
      /* PLL_VCO = (HSE_VALUE or HSI_VALUE / PLLM) * PLLN
      SYSCLK = PLL_VCO / PLLP */
      pllm = RCC->PLLCFGR & RCC_PLLCFGR_PLLM;
 8003b90:	4b4f      	ldr	r3, [pc, #316]	; (8003cd0 <HAL_RCC_GetSysClockFreq+0x180>)
 8003b92:	685b      	ldr	r3, [r3, #4]
 8003b94:	f003 033f 	and.w	r3, r3, #63	; 0x3f
 8003b98:	637b      	str	r3, [r7, #52]	; 0x34
      if(__HAL_RCC_GET_PLL_OSCSOURCE() != RCC_PLLSOURCE_HSI)
 8003b9a:	4b4d      	ldr	r3, [pc, #308]	; (8003cd0 <HAL_RCC_GetSysClockFreq+0x180>)
 8003b9c:	685b      	ldr	r3, [r3, #4]
 8003b9e:	f403 0380 	and.w	r3, r3, #4194304	; 0x400000
 8003ba2:	2b00      	cmp	r3, #0
 8003ba4:	d028      	beq.n	8003bf8 <HAL_RCC_GetSysClockFreq+0xa8>
      {
        /* HSE used as PLL clock source */
        pllvco = (uint32_t) ((((uint64_t) HSE_VALUE * ((uint64_t) ((RCC->PLLCFGR & RCC_PLLCFGR_PLLN) >> RCC_PLLCFGR_PLLN_Pos)))) / (uint64_t)pllm);
 8003ba6:	4b4a      	ldr	r3, [pc, #296]	; (8003cd0 <HAL_RCC_GetSysClockFreq+0x180>)
 8003ba8:	685b      	ldr	r3, [r3, #4]
 8003baa:	099b      	lsrs	r3, r3, #6
 8003bac:	2200      	movs	r2, #0
 8003bae:	623b      	str	r3, [r7, #32]
 8003bb0:	627a      	str	r2, [r7, #36]	; 0x24
 8003bb2:	6a3b      	ldr	r3, [r7, #32]
 8003bb4:	f3c3 0008 	ubfx	r0, r3, #0, #9
 8003bb8:	2100      	movs	r1, #0
 8003bba:	4b47      	ldr	r3, [pc, #284]	; (8003cd8 <HAL_RCC_GetSysClockFreq+0x188>)
 8003bbc:	fb03 f201 	mul.w	r2, r3, r1
 8003bc0:	2300      	movs	r3, #0
 8003bc2:	fb00 f303 	mul.w	r3, r0, r3
 8003bc6:	4413      	add	r3, r2
 8003bc8:	4a43      	ldr	r2, [pc, #268]	; (8003cd8 <HAL_RCC_GetSysClockFreq+0x188>)
 8003bca:	fba0 1202 	umull	r1, r2, r0, r2
 8003bce:	62fa      	str	r2, [r7, #44]	; 0x2c
 8003bd0:	460a      	mov	r2, r1
 8003bd2:	62ba      	str	r2, [r7, #40]	; 0x28
 8003bd4:	6afa      	ldr	r2, [r7, #44]	; 0x2c
 8003bd6:	4413      	add	r3, r2
 8003bd8:	62fb      	str	r3, [r7, #44]	; 0x2c
 8003bda:	6b7b      	ldr	r3, [r7, #52]	; 0x34
 8003bdc:	2200      	movs	r2, #0
 8003bde:	61bb      	str	r3, [r7, #24]
 8003be0:	61fa      	str	r2, [r7, #28]
 8003be2:	e9d7 2306 	ldrd	r2, r3, [r7, #24]
 8003be6:	e9d7 010a 	ldrd	r0, r1, [r7, #40]	; 0x28
 8003bea:	f7fc fb07 	bl	80001fc <__aeabi_uldivmod>
 8003bee:	4602      	mov	r2, r0
 8003bf0:	460b      	mov	r3, r1
 8003bf2:	4613      	mov	r3, r2
 8003bf4:	63fb      	str	r3, [r7, #60]	; 0x3c
 8003bf6:	e053      	b.n	8003ca0 <HAL_RCC_GetSysClockFreq+0x150>
      }
      else
      {
        /* HSI used as PLL clock source */
        pllvco = (uint32_t) ((((uint64_t) HSI_VALUE * ((uint64_t) ((RCC->PLLCFGR & RCC_PLLCFGR_PLLN) >> RCC_PLLCFGR_PLLN_Pos)))) / (uint64_t)pllm);
 8003bf8:	4b35      	ldr	r3, [pc, #212]	; (8003cd0 <HAL_RCC_GetSysClockFreq+0x180>)
 8003bfa:	685b      	ldr	r3, [r3, #4]
 8003bfc:	099b      	lsrs	r3, r3, #6
 8003bfe:	2200      	movs	r2, #0
 8003c00:	613b      	str	r3, [r7, #16]
 8003c02:	617a      	str	r2, [r7, #20]
 8003c04:	693b      	ldr	r3, [r7, #16]
 8003c06:	f3c3 0a08 	ubfx	sl, r3, #0, #9
 8003c0a:	f04f 0b00 	mov.w	fp, #0
 8003c0e:	4652      	mov	r2, sl
 8003c10:	465b      	mov	r3, fp
 8003c12:	f04f 0000 	mov.w	r0, #0
 8003c16:	f04f 0100 	mov.w	r1, #0
 8003c1a:	0159      	lsls	r1, r3, #5
 8003c1c:	ea41 61d2 	orr.w	r1, r1, r2, lsr #27
 8003c20:	0150      	lsls	r0, r2, #5
 8003c22:	4602      	mov	r2, r0
 8003c24:	460b      	mov	r3, r1
 8003c26:	ebb2 080a 	subs.w	r8, r2, sl
 8003c2a:	eb63 090b 	sbc.w	r9, r3, fp
 8003c2e:	f04f 0200 	mov.w	r2, #0
 8003c32:	f04f 0300 	mov.w	r3, #0
 8003c36:	ea4f 1389 	mov.w	r3, r9, lsl #6
 8003c3a:	ea43 6398 	orr.w	r3, r3, r8, lsr #26
 8003c3e:	ea4f 1288 	mov.w	r2, r8, lsl #6
 8003c42:	ebb2 0408 	subs.w	r4, r2, r8
 8003c46:	eb63 0509 	sbc.w	r5, r3, r9
 8003c4a:	f04f 0200 	mov.w	r2, #0
 8003c4e:	f04f 0300 	mov.w	r3, #0
 8003c52:	00eb      	lsls	r3, r5, #3
 8003c54:	ea43 7354 	orr.w	r3, r3, r4, lsr #29
 8003c58:	00e2      	lsls	r2, r4, #3
 8003c5a:	4614      	mov	r4, r2
 8003c5c:	461d      	mov	r5, r3
 8003c5e:	eb14 030a 	adds.w	r3, r4, sl
 8003c62:	603b      	str	r3, [r7, #0]
 8003c64:	eb45 030b 	adc.w	r3, r5, fp
 8003c68:	607b      	str	r3, [r7, #4]
 8003c6a:	f04f 0200 	mov.w	r2, #0
 8003c6e:	f04f 0300 	mov.w	r3, #0
 8003c72:	e9d7 4500 	ldrd	r4, r5, [r7]
 8003c76:	4629      	mov	r1, r5
 8003c78:	028b      	lsls	r3, r1, #10
 8003c7a:	4621      	mov	r1, r4
 8003c7c:	ea43 5391 	orr.w	r3, r3, r1, lsr #22
 8003c80:	4621      	mov	r1, r4
 8003c82:	028a      	lsls	r2, r1, #10
 8003c84:	4610      	mov	r0, r2
 8003c86:	4619      	mov	r1, r3
 8003c88:	6b7b      	ldr	r3, [r7, #52]	; 0x34
 8003c8a:	2200      	movs	r2, #0
 8003c8c:	60bb      	str	r3, [r7, #8]
 8003c8e:	60fa      	str	r2, [r7, #12]
 8003c90:	e9d7 2302 	ldrd	r2, r3, [r7, #8]
 8003c94:	f7fc fab2 	bl	80001fc <__aeabi_uldivmod>
 8003c98:	4602      	mov	r2, r0
 8003c9a:	460b      	mov	r3, r1
 8003c9c:	4613      	mov	r3, r2
 8003c9e:	63fb      	str	r3, [r7, #60]	; 0x3c
      }
      pllp = ((((RCC->PLLCFGR & RCC_PLLCFGR_PLLP) >> RCC_PLLCFGR_PLLP_Pos) + 1U) *2U);
 8003ca0:	4b0b      	ldr	r3, [pc, #44]	; (8003cd0 <HAL_RCC_GetSysClockFreq+0x180>)
 8003ca2:	685b      	ldr	r3, [r3, #4]
 8003ca4:	0c1b      	lsrs	r3, r3, #16
 8003ca6:	f003 0303 	and.w	r3, r3, #3
 8003caa:	3301      	adds	r3, #1
 8003cac:	005b      	lsls	r3, r3, #1
 8003cae:	633b      	str	r3, [r7, #48]	; 0x30

      sysclockfreq = pllvco/pllp;
 8003cb0:	6bfa      	ldr	r2, [r7, #60]	; 0x3c
 8003cb2:	6b3b      	ldr	r3, [r7, #48]	; 0x30
 8003cb4:	fbb2 f3f3 	udiv	r3, r2, r3
 8003cb8:	63bb      	str	r3, [r7, #56]	; 0x38
      break;
 8003cba:	e002      	b.n	8003cc2 <HAL_RCC_GetSysClockFreq+0x172>
    }
    default:
    {
      sysclockfreq = HSI_VALUE;
 8003cbc:	4b05      	ldr	r3, [pc, #20]	; (8003cd4 <HAL_RCC_GetSysClockFreq+0x184>)
 8003cbe:	63bb      	str	r3, [r7, #56]	; 0x38
      break;
 8003cc0:	bf00      	nop
    }
  }
  return sysclockfreq;
 8003cc2:	6bbb      	ldr	r3, [r7, #56]	; 0x38
}
 8003cc4:	4618      	mov	r0, r3
 8003cc6:	3740      	adds	r7, #64	; 0x40
 8003cc8:	46bd      	mov	sp, r7
 8003cca:	e8bd 8fb0 	ldmia.w	sp!, {r4, r5, r7, r8, r9, sl, fp, pc}
 8003cce:	bf00      	nop
 8003cd0:	40023800 	.word	0x40023800
 8003cd4:	00f42400 	.word	0x00f42400
 8003cd8:	017d7840 	.word	0x017d7840

08003cdc <HAL_RCC_GetHCLKFreq>:
  * @note   The SystemCoreClock CMSIS variable is used to store System Clock Frequency
  *         and updated within this function
  * @retval HCLK frequency
  */
uint32_t HAL_RCC_GetHCLKFreq(void)
{
 8003cdc:	b480      	push	{r7}
 8003cde:	af00      	add	r7, sp, #0
  return SystemCoreClock;
 8003ce0:	4b03      	ldr	r3, [pc, #12]	; (8003cf0 <HAL_RCC_GetHCLKFreq+0x14>)
 8003ce2:	681b      	ldr	r3, [r3, #0]
}
 8003ce4:	4618      	mov	r0, r3
 8003ce6:	46bd      	mov	sp, r7
 8003ce8:	f85d 7b04 	ldr.w	r7, [sp], #4
 8003cec:	4770      	bx	lr
 8003cee:	bf00      	nop
 8003cf0:	20000018 	.word	0x20000018

08003cf4 <HAL_RCC_GetPCLK1Freq>:
  * @note   Each time PCLK1 changes, this function must be called to update the
  *         right PCLK1 value. Otherwise, any configuration based on this function will be incorrect.
  * @retval PCLK1 frequency
  */
uint32_t HAL_RCC_GetPCLK1Freq(void)
{
 8003cf4:	b580      	push	{r7, lr}
 8003cf6:	af00      	add	r7, sp, #0
  /* Get HCLK source and Compute PCLK1 frequency ---------------------------*/
  return (HAL_RCC_GetHCLKFreq() >> APBPrescTable[(RCC->CFGR & RCC_CFGR_PPRE1)>> RCC_CFGR_PPRE1_Pos]);
 8003cf8:	f7ff fff0 	bl	8003cdc <HAL_RCC_GetHCLKFreq>
 8003cfc:	4602      	mov	r2, r0
 8003cfe:	4b05      	ldr	r3, [pc, #20]	; (8003d14 <HAL_RCC_GetPCLK1Freq+0x20>)
 8003d00:	689b      	ldr	r3, [r3, #8]
 8003d02:	0a9b      	lsrs	r3, r3, #10
 8003d04:	f003 0307 	and.w	r3, r3, #7
 8003d08:	4903      	ldr	r1, [pc, #12]	; (8003d18 <HAL_RCC_GetPCLK1Freq+0x24>)
 8003d0a:	5ccb      	ldrb	r3, [r1, r3]
 8003d0c:	fa22 f303 	lsr.w	r3, r2, r3
}
 8003d10:	4618      	mov	r0, r3
 8003d12:	bd80      	pop	{r7, pc}
 8003d14:	40023800 	.word	0x40023800
 8003d18:	08006c68 	.word	0x08006c68

08003d1c <HAL_RCC_GetPCLK2Freq>:
  * @note   Each time PCLK2 changes, this function must be called to update the
  *         right PCLK2 value. Otherwise, any configuration based on this function will be incorrect.
  * @retval PCLK2 frequency
  */
uint32_t HAL_RCC_GetPCLK2Freq(void)
{
 8003d1c:	b580      	push	{r7, lr}
 8003d1e:	af00      	add	r7, sp, #0
  /* Get HCLK source and Compute PCLK2 frequency ---------------------------*/
  return (HAL_RCC_GetHCLKFreq()>> APBPrescTable[(RCC->CFGR & RCC_CFGR_PPRE2)>> RCC_CFGR_PPRE2_Pos]);
 8003d20:	f7ff ffdc 	bl	8003cdc <HAL_RCC_GetHCLKFreq>
 8003d24:	4602      	mov	r2, r0
 8003d26:	4b05      	ldr	r3, [pc, #20]	; (8003d3c <HAL_RCC_GetPCLK2Freq+0x20>)
 8003d28:	689b      	ldr	r3, [r3, #8]
 8003d2a:	0b5b      	lsrs	r3, r3, #13
 8003d2c:	f003 0307 	and.w	r3, r3, #7
 8003d30:	4903      	ldr	r1, [pc, #12]	; (8003d40 <HAL_RCC_GetPCLK2Freq+0x24>)
 8003d32:	5ccb      	ldrb	r3, [r1, r3]
 8003d34:	fa22 f303 	lsr.w	r3, r2, r3
}
 8003d38:	4618      	mov	r0, r3
 8003d3a:	bd80      	pop	{r7, pc}
 8003d3c:	40023800 	.word	0x40023800
 8003d40:	08006c68 	.word	0x08006c68

08003d44 <HAL_RCCEx_PeriphCLKConfig>:
  *         the backup registers) and RCC_BDCR register are set to their reset values.
  *
  * @retval HAL status
  */
HAL_StatusTypeDef HAL_RCCEx_PeriphCLKConfig(RCC_PeriphCLKInitTypeDef  *PeriphClkInit)
{
 8003d44:	b580      	push	{r7, lr}
 8003d46:	b086      	sub	sp, #24
 8003d48:	af00      	add	r7, sp, #0
 8003d4a:	6078      	str	r0, [r7, #4]
  uint32_t tickstart = 0U;
 8003d4c:	2300      	movs	r3, #0
 8003d4e:	617b      	str	r3, [r7, #20]
  uint32_t tmpreg1 = 0U;
 8003d50:	2300      	movs	r3, #0
 8003d52:	613b      	str	r3, [r7, #16]

  /*----------------------- SAI/I2S Configuration (PLLI2S) -------------------*/
  /*----------------------- Common configuration SAI/I2S ---------------------*/
  /* In Case of SAI or I2S Clock Configuration through PLLI2S, PLLI2SN division
     factor is common parameters for both peripherals */
  if((((PeriphClkInit->PeriphClockSelection) & RCC_PERIPHCLK_I2S) == RCC_PERIPHCLK_I2S) ||
 8003d54:	687b      	ldr	r3, [r7, #4]
 8003d56:	681b      	ldr	r3, [r3, #0]
 8003d58:	f003 0301 	and.w	r3, r3, #1
 8003d5c:	2b00      	cmp	r3, #0
 8003d5e:	d10b      	bne.n	8003d78 <HAL_RCCEx_PeriphCLKConfig+0x34>
     (((PeriphClkInit->PeriphClockSelection) & RCC_PERIPHCLK_SAI_PLLI2S) == RCC_PERIPHCLK_SAI_PLLI2S) ||
 8003d60:	687b      	ldr	r3, [r7, #4]
 8003d62:	681b      	ldr	r3, [r3, #0]
 8003d64:	f003 0302 	and.w	r3, r3, #2
  if((((PeriphClkInit->PeriphClockSelection) & RCC_PERIPHCLK_I2S) == RCC_PERIPHCLK_I2S) ||
 8003d68:	2b00      	cmp	r3, #0
 8003d6a:	d105      	bne.n	8003d78 <HAL_RCCEx_PeriphCLKConfig+0x34>
     (((PeriphClkInit->PeriphClockSelection) & RCC_PERIPHCLK_PLLI2S) == RCC_PERIPHCLK_PLLI2S))
 8003d6c:	687b      	ldr	r3, [r7, #4]
 8003d6e:	681b      	ldr	r3, [r3, #0]
 8003d70:	f003 0340 	and.w	r3, r3, #64	; 0x40
     (((PeriphClkInit->PeriphClockSelection) & RCC_PERIPHCLK_SAI_PLLI2S) == RCC_PERIPHCLK_SAI_PLLI2S) ||
 8003d74:	2b00      	cmp	r3, #0
 8003d76:	d075      	beq.n	8003e64 <HAL_RCCEx_PeriphCLKConfig+0x120>
  {
    /* check for Parameters */
    assert_param(IS_RCC_PLLI2SN_VALUE(PeriphClkInit->PLLI2S.PLLI2SN));

    /* Disable the PLLI2S */
    __HAL_RCC_PLLI2S_DISABLE();
 8003d78:	4b91      	ldr	r3, [pc, #580]	; (8003fc0 <HAL_RCCEx_PeriphCLKConfig+0x27c>)
 8003d7a:	2200      	movs	r2, #0
 8003d7c:	601a      	str	r2, [r3, #0]
    /* Get tick */
    tickstart = HAL_GetTick();
 8003d7e:	f7fd ff6b 	bl	8001c58 <HAL_GetTick>
 8003d82:	6178      	str	r0, [r7, #20]
    /* Wait till PLLI2S is disabled */
    while(__HAL_RCC_GET_FLAG(RCC_FLAG_PLLI2SRDY)  != RESET)
 8003d84:	e008      	b.n	8003d98 <HAL_RCCEx_PeriphCLKConfig+0x54>
    {
      if((HAL_GetTick() - tickstart ) > PLLI2S_TIMEOUT_VALUE)
 8003d86:	f7fd ff67 	bl	8001c58 <HAL_GetTick>
 8003d8a:	4602      	mov	r2, r0
 8003d8c:	697b      	ldr	r3, [r7, #20]
 8003d8e:	1ad3      	subs	r3, r2, r3
 8003d90:	2b02      	cmp	r3, #2
 8003d92:	d901      	bls.n	8003d98 <HAL_RCCEx_PeriphCLKConfig+0x54>
      {
        /* return in case of Timeout detected */
        return HAL_TIMEOUT;
 8003d94:	2303      	movs	r3, #3
 8003d96:	e189      	b.n	80040ac <HAL_RCCEx_PeriphCLKConfig+0x368>
    while(__HAL_RCC_GET_FLAG(RCC_FLAG_PLLI2SRDY)  != RESET)
 8003d98:	4b8a      	ldr	r3, [pc, #552]	; (8003fc4 <HAL_RCCEx_PeriphCLKConfig+0x280>)
 8003d9a:	681b      	ldr	r3, [r3, #0]
 8003d9c:	f003 6300 	and.w	r3, r3, #134217728	; 0x8000000
 8003da0:	2b00      	cmp	r3, #0
 8003da2:	d1f0      	bne.n	8003d86 <HAL_RCCEx_PeriphCLKConfig+0x42>
    }

    /*---------------------------- I2S configuration -------------------------*/
    /* In Case of I2S Clock Configuration through PLLI2S, PLLI2SR must be added
      only for I2S configuration */
    if(((PeriphClkInit->PeriphClockSelection) & RCC_PERIPHCLK_I2S) == (RCC_PERIPHCLK_I2S))
 8003da4:	687b      	ldr	r3, [r7, #4]
 8003da6:	681b      	ldr	r3, [r3, #0]
 8003da8:	f003 0301 	and.w	r3, r3, #1
 8003dac:	2b00      	cmp	r3, #0
 8003dae:	d009      	beq.n	8003dc4 <HAL_RCCEx_PeriphCLKConfig+0x80>
      /* check for Parameters */
      assert_param(IS_RCC_PLLI2SR_VALUE(PeriphClkInit->PLLI2S.PLLI2SR));
      /* Configure the PLLI2S division factors */
      /* PLLI2S_VCO = f(VCO clock) = f(PLLI2S clock input) * (PLLI2SN/PLLM) */
      /* I2SCLK = f(PLLI2S clock output) = f(VCO clock) / PLLI2SR */
      __HAL_RCC_PLLI2S_CONFIG(PeriphClkInit->PLLI2S.PLLI2SN , PeriphClkInit->PLLI2S.PLLI2SR);
 8003db0:	687b      	ldr	r3, [r7, #4]
 8003db2:	685b      	ldr	r3, [r3, #4]
 8003db4:	019a      	lsls	r2, r3, #6
 8003db6:	687b      	ldr	r3, [r7, #4]
 8003db8:	689b      	ldr	r3, [r3, #8]
 8003dba:	071b      	lsls	r3, r3, #28
 8003dbc:	4981      	ldr	r1, [pc, #516]	; (8003fc4 <HAL_RCCEx_PeriphCLKConfig+0x280>)
 8003dbe:	4313      	orrs	r3, r2
 8003dc0:	f8c1 3084 	str.w	r3, [r1, #132]	; 0x84
    }

    /*---------------------------- SAI configuration -------------------------*/
    /* In Case of SAI Clock Configuration through PLLI2S, PLLI2SQ and PLLI2S_DIVQ must
       be added only for SAI configuration */
    if(((PeriphClkInit->PeriphClockSelection) & RCC_PERIPHCLK_SAI_PLLI2S) == (RCC_PERIPHCLK_SAI_PLLI2S))
 8003dc4:	687b      	ldr	r3, [r7, #4]
 8003dc6:	681b      	ldr	r3, [r3, #0]
 8003dc8:	f003 0302 	and.w	r3, r3, #2
 8003dcc:	2b00      	cmp	r3, #0
 8003dce:	d01f      	beq.n	8003e10 <HAL_RCCEx_PeriphCLKConfig+0xcc>
      /* Check the PLLI2S division factors */
      assert_param(IS_RCC_PLLI2SQ_VALUE(PeriphClkInit->PLLI2S.PLLI2SQ));
      assert_param(IS_RCC_PLLI2S_DIVQ_VALUE(PeriphClkInit->PLLI2SDivQ));

      /* Read PLLI2SR value from PLLI2SCFGR register (this value is not need for SAI configuration) */
      tmpreg1 = ((RCC->PLLI2SCFGR & RCC_PLLI2SCFGR_PLLI2SR) >> RCC_PLLI2SCFGR_PLLI2SR_Pos);
 8003dd0:	4b7c      	ldr	r3, [pc, #496]	; (8003fc4 <HAL_RCCEx_PeriphCLKConfig+0x280>)
 8003dd2:	f8d3 3084 	ldr.w	r3, [r3, #132]	; 0x84
 8003dd6:	0f1b      	lsrs	r3, r3, #28
 8003dd8:	f003 0307 	and.w	r3, r3, #7
 8003ddc:	613b      	str	r3, [r7, #16]
      /* Configure the PLLI2S division factors */
      /* PLLI2S_VCO Input  = PLL_SOURCE/PLLM */
      /* PLLI2S_VCO Output = PLLI2S_VCO Input * PLLI2SN */
      /* SAI_CLK(first level) = PLLI2S_VCO Output/PLLI2SQ */
      __HAL_RCC_PLLI2S_SAICLK_CONFIG(PeriphClkInit->PLLI2S.PLLI2SN , PeriphClkInit->PLLI2S.PLLI2SQ , tmpreg1);
 8003dde:	687b      	ldr	r3, [r7, #4]
 8003de0:	685b      	ldr	r3, [r3, #4]
 8003de2:	019a      	lsls	r2, r3, #6
 8003de4:	687b      	ldr	r3, [r7, #4]
 8003de6:	68db      	ldr	r3, [r3, #12]
 8003de8:	061b      	lsls	r3, r3, #24
 8003dea:	431a      	orrs	r2, r3
 8003dec:	693b      	ldr	r3, [r7, #16]
 8003dee:	071b      	lsls	r3, r3, #28
 8003df0:	4974      	ldr	r1, [pc, #464]	; (8003fc4 <HAL_RCCEx_PeriphCLKConfig+0x280>)
 8003df2:	4313      	orrs	r3, r2
 8003df4:	f8c1 3084 	str.w	r3, [r1, #132]	; 0x84
      /* SAI_CLK_x = SAI_CLK(first level)/PLLI2SDIVQ */
      __HAL_RCC_PLLI2S_PLLSAICLKDIVQ_CONFIG(PeriphClkInit->PLLI2SDivQ);
 8003df8:	4b72      	ldr	r3, [pc, #456]	; (8003fc4 <HAL_RCCEx_PeriphCLKConfig+0x280>)
 8003dfa:	f8d3 308c 	ldr.w	r3, [r3, #140]	; 0x8c
 8003dfe:	f023 021f 	bic.w	r2, r3, #31
 8003e02:	687b      	ldr	r3, [r7, #4]
 8003e04:	69db      	ldr	r3, [r3, #28]
 8003e06:	3b01      	subs	r3, #1
 8003e08:	496e      	ldr	r1, [pc, #440]	; (8003fc4 <HAL_RCCEx_PeriphCLKConfig+0x280>)
 8003e0a:	4313      	orrs	r3, r2
 8003e0c:	f8c1 308c 	str.w	r3, [r1, #140]	; 0x8c
    }

    /*----------------- In Case of PLLI2S is just selected  -----------------*/
    if((PeriphClkInit->PeriphClockSelection & RCC_PERIPHCLK_PLLI2S) == RCC_PERIPHCLK_PLLI2S)
 8003e10:	687b      	ldr	r3, [r7, #4]
 8003e12:	681b      	ldr	r3, [r3, #0]
 8003e14:	f003 0340 	and.w	r3, r3, #64	; 0x40
 8003e18:	2b00      	cmp	r3, #0
 8003e1a:	d00d      	beq.n	8003e38 <HAL_RCCEx_PeriphCLKConfig+0xf4>
      /* Check for Parameters */
      assert_param(IS_RCC_PLLI2SQ_VALUE(PeriphClkInit->PLLI2S.PLLI2SQ));
      assert_param(IS_RCC_PLLI2SR_VALUE(PeriphClkInit->PLLI2S.PLLI2SR));

      /* Configure the PLLI2S multiplication and division factors */
      __HAL_RCC_PLLI2S_SAICLK_CONFIG(PeriphClkInit->PLLI2S.PLLI2SN, PeriphClkInit->PLLI2S.PLLI2SQ, PeriphClkInit->PLLI2S.PLLI2SR);
 8003e1c:	687b      	ldr	r3, [r7, #4]
 8003e1e:	685b      	ldr	r3, [r3, #4]
 8003e20:	019a      	lsls	r2, r3, #6
 8003e22:	687b      	ldr	r3, [r7, #4]
 8003e24:	68db      	ldr	r3, [r3, #12]
 8003e26:	061b      	lsls	r3, r3, #24
 8003e28:	431a      	orrs	r2, r3
 8003e2a:	687b      	ldr	r3, [r7, #4]
 8003e2c:	689b      	ldr	r3, [r3, #8]
 8003e2e:	071b      	lsls	r3, r3, #28
 8003e30:	4964      	ldr	r1, [pc, #400]	; (8003fc4 <HAL_RCCEx_PeriphCLKConfig+0x280>)
 8003e32:	4313      	orrs	r3, r2
 8003e34:	f8c1 3084 	str.w	r3, [r1, #132]	; 0x84
    }

    /* Enable the PLLI2S */
    __HAL_RCC_PLLI2S_ENABLE();
 8003e38:	4b61      	ldr	r3, [pc, #388]	; (8003fc0 <HAL_RCCEx_PeriphCLKConfig+0x27c>)
 8003e3a:	2201      	movs	r2, #1
 8003e3c:	601a      	str	r2, [r3, #0]
    /* Get tick */
    tickstart = HAL_GetTick();
 8003e3e:	f7fd ff0b 	bl	8001c58 <HAL_GetTick>
 8003e42:	6178      	str	r0, [r7, #20]
    /* Wait till PLLI2S is ready */
    while(__HAL_RCC_GET_FLAG(RCC_FLAG_PLLI2SRDY)  == RESET)
 8003e44:	e008      	b.n	8003e58 <HAL_RCCEx_PeriphCLKConfig+0x114>
    {
      if((HAL_GetTick() - tickstart ) > PLLI2S_TIMEOUT_VALUE)
 8003e46:	f7fd ff07 	bl	8001c58 <HAL_GetTick>
 8003e4a:	4602      	mov	r2, r0
 8003e4c:	697b      	ldr	r3, [r7, #20]
 8003e4e:	1ad3      	subs	r3, r2, r3
 8003e50:	2b02      	cmp	r3, #2
 8003e52:	d901      	bls.n	8003e58 <HAL_RCCEx_PeriphCLKConfig+0x114>
      {
        /* return in case of Timeout detected */
        return HAL_TIMEOUT;
 8003e54:	2303      	movs	r3, #3
 8003e56:	e129      	b.n	80040ac <HAL_RCCEx_PeriphCLKConfig+0x368>
    while(__HAL_RCC_GET_FLAG(RCC_FLAG_PLLI2SRDY)  == RESET)
 8003e58:	4b5a      	ldr	r3, [pc, #360]	; (8003fc4 <HAL_RCCEx_PeriphCLKConfig+0x280>)
 8003e5a:	681b      	ldr	r3, [r3, #0]
 8003e5c:	f003 6300 	and.w	r3, r3, #134217728	; 0x8000000
 8003e60:	2b00      	cmp	r3, #0
 8003e62:	d0f0      	beq.n	8003e46 <HAL_RCCEx_PeriphCLKConfig+0x102>

  /*----------------------- SAI/LTDC Configuration (PLLSAI) ------------------*/
  /*----------------------- Common configuration SAI/LTDC --------------------*/
  /* In Case of SAI or LTDC Clock Configuration through PLLSAI, PLLSAIN division
     factor is common parameters for both peripherals */
  if((((PeriphClkInit->PeriphClockSelection) & RCC_PERIPHCLK_SAI_PLLSAI) == RCC_PERIPHCLK_SAI_PLLSAI) ||
 8003e64:	687b      	ldr	r3, [r7, #4]
 8003e66:	681b      	ldr	r3, [r3, #0]
 8003e68:	f003 0304 	and.w	r3, r3, #4
 8003e6c:	2b00      	cmp	r3, #0
 8003e6e:	d105      	bne.n	8003e7c <HAL_RCCEx_PeriphCLKConfig+0x138>
     (((PeriphClkInit->PeriphClockSelection) & RCC_PERIPHCLK_LTDC) == RCC_PERIPHCLK_LTDC))
 8003e70:	687b      	ldr	r3, [r7, #4]
 8003e72:	681b      	ldr	r3, [r3, #0]
 8003e74:	f003 0308 	and.w	r3, r3, #8
  if((((PeriphClkInit->PeriphClockSelection) & RCC_PERIPHCLK_SAI_PLLSAI) == RCC_PERIPHCLK_SAI_PLLSAI) ||
 8003e78:	2b00      	cmp	r3, #0
 8003e7a:	d079      	beq.n	8003f70 <HAL_RCCEx_PeriphCLKConfig+0x22c>
  {
    /* Check the PLLSAI division factors */
    assert_param(IS_RCC_PLLSAIN_VALUE(PeriphClkInit->PLLSAI.PLLSAIN));

    /* Disable PLLSAI Clock */
    __HAL_RCC_PLLSAI_DISABLE();
 8003e7c:	4b52      	ldr	r3, [pc, #328]	; (8003fc8 <HAL_RCCEx_PeriphCLKConfig+0x284>)
 8003e7e:	2200      	movs	r2, #0
 8003e80:	601a      	str	r2, [r3, #0]
    /* Get tick */
    tickstart = HAL_GetTick();
 8003e82:	f7fd fee9 	bl	8001c58 <HAL_GetTick>
 8003e86:	6178      	str	r0, [r7, #20]
    /* Wait till PLLSAI is disabled */
    while(__HAL_RCC_PLLSAI_GET_FLAG() != RESET)
 8003e88:	e008      	b.n	8003e9c <HAL_RCCEx_PeriphCLKConfig+0x158>
    {
      if((HAL_GetTick() - tickstart ) > PLLSAI_TIMEOUT_VALUE)
 8003e8a:	f7fd fee5 	bl	8001c58 <HAL_GetTick>
 8003e8e:	4602      	mov	r2, r0
 8003e90:	697b      	ldr	r3, [r7, #20]
 8003e92:	1ad3      	subs	r3, r2, r3
 8003e94:	2b02      	cmp	r3, #2
 8003e96:	d901      	bls.n	8003e9c <HAL_RCCEx_PeriphCLKConfig+0x158>
      {
        /* return in case of Timeout detected */
        return HAL_TIMEOUT;
 8003e98:	2303      	movs	r3, #3
 8003e9a:	e107      	b.n	80040ac <HAL_RCCEx_PeriphCLKConfig+0x368>
    while(__HAL_RCC_PLLSAI_GET_FLAG() != RESET)
 8003e9c:	4b49      	ldr	r3, [pc, #292]	; (8003fc4 <HAL_RCCEx_PeriphCLKConfig+0x280>)
 8003e9e:	681b      	ldr	r3, [r3, #0]
 8003ea0:	f003 5300 	and.w	r3, r3, #536870912	; 0x20000000
 8003ea4:	f1b3 5f00 	cmp.w	r3, #536870912	; 0x20000000
 8003ea8:	d0ef      	beq.n	8003e8a <HAL_RCCEx_PeriphCLKConfig+0x146>
    }

    /*---------------------------- SAI configuration -------------------------*/
    /* In Case of SAI Clock Configuration through PLLSAI, PLLSAIQ and PLLSAI_DIVQ must
       be added only for SAI configuration */
    if(((PeriphClkInit->PeriphClockSelection) & RCC_PERIPHCLK_SAI_PLLSAI) == (RCC_PERIPHCLK_SAI_PLLSAI))
 8003eaa:	687b      	ldr	r3, [r7, #4]
 8003eac:	681b      	ldr	r3, [r3, #0]
 8003eae:	f003 0304 	and.w	r3, r3, #4
 8003eb2:	2b00      	cmp	r3, #0
 8003eb4:	d020      	beq.n	8003ef8 <HAL_RCCEx_PeriphCLKConfig+0x1b4>
    {
      assert_param(IS_RCC_PLLSAIQ_VALUE(PeriphClkInit->PLLSAI.PLLSAIQ));
      assert_param(IS_RCC_PLLSAI_DIVQ_VALUE(PeriphClkInit->PLLSAIDivQ));

      /* Read PLLSAIR value from PLLSAICFGR register (this value is not need for SAI configuration) */
      tmpreg1 = ((RCC->PLLSAICFGR & RCC_PLLSAICFGR_PLLSAIR) >> RCC_PLLSAICFGR_PLLSAIR_Pos);
 8003eb6:	4b43      	ldr	r3, [pc, #268]	; (8003fc4 <HAL_RCCEx_PeriphCLKConfig+0x280>)
 8003eb8:	f8d3 3088 	ldr.w	r3, [r3, #136]	; 0x88
 8003ebc:	0f1b      	lsrs	r3, r3, #28
 8003ebe:	f003 0307 	and.w	r3, r3, #7
 8003ec2:	613b      	str	r3, [r7, #16]
      /* PLLSAI_VCO Input  = PLL_SOURCE/PLLM */
      /* PLLSAI_VCO Output = PLLSAI_VCO Input * PLLSAIN */
      /* SAI_CLK(first level) = PLLSAI_VCO Output/PLLSAIQ */
      __HAL_RCC_PLLSAI_CONFIG(PeriphClkInit->PLLSAI.PLLSAIN , PeriphClkInit->PLLSAI.PLLSAIQ, tmpreg1);
 8003ec4:	687b      	ldr	r3, [r7, #4]
 8003ec6:	691b      	ldr	r3, [r3, #16]
 8003ec8:	019a      	lsls	r2, r3, #6
 8003eca:	687b      	ldr	r3, [r7, #4]
 8003ecc:	695b      	ldr	r3, [r3, #20]
 8003ece:	061b      	lsls	r3, r3, #24
 8003ed0:	431a      	orrs	r2, r3
 8003ed2:	693b      	ldr	r3, [r7, #16]
 8003ed4:	071b      	lsls	r3, r3, #28
 8003ed6:	493b      	ldr	r1, [pc, #236]	; (8003fc4 <HAL_RCCEx_PeriphCLKConfig+0x280>)
 8003ed8:	4313      	orrs	r3, r2
 8003eda:	f8c1 3088 	str.w	r3, [r1, #136]	; 0x88
      /* SAI_CLK_x = SAI_CLK(first level)/PLLSAIDIVQ */
      __HAL_RCC_PLLSAI_PLLSAICLKDIVQ_CONFIG(PeriphClkInit->PLLSAIDivQ);
 8003ede:	4b39      	ldr	r3, [pc, #228]	; (8003fc4 <HAL_RCCEx_PeriphCLKConfig+0x280>)
 8003ee0:	f8d3 308c 	ldr.w	r3, [r3, #140]	; 0x8c
 8003ee4:	f423 52f8 	bic.w	r2, r3, #7936	; 0x1f00
 8003ee8:	687b      	ldr	r3, [r7, #4]
 8003eea:	6a1b      	ldr	r3, [r3, #32]
 8003eec:	3b01      	subs	r3, #1
 8003eee:	021b      	lsls	r3, r3, #8
 8003ef0:	4934      	ldr	r1, [pc, #208]	; (8003fc4 <HAL_RCCEx_PeriphCLKConfig+0x280>)
 8003ef2:	4313      	orrs	r3, r2
 8003ef4:	f8c1 308c 	str.w	r3, [r1, #140]	; 0x8c
    }

    /*---------------------------- LTDC configuration ------------------------*/
    if(((PeriphClkInit->PeriphClockSelection) & RCC_PERIPHCLK_LTDC) == (RCC_PERIPHCLK_LTDC))
 8003ef8:	687b      	ldr	r3, [r7, #4]
 8003efa:	681b      	ldr	r3, [r3, #0]
 8003efc:	f003 0308 	and.w	r3, r3, #8
 8003f00:	2b00      	cmp	r3, #0
 8003f02:	d01e      	beq.n	8003f42 <HAL_RCCEx_PeriphCLKConfig+0x1fe>
    {
      assert_param(IS_RCC_PLLSAIR_VALUE(PeriphClkInit->PLLSAI.PLLSAIR));
      assert_param(IS_RCC_PLLSAI_DIVR_VALUE(PeriphClkInit->PLLSAIDivR));

      /* Read PLLSAIR value from PLLSAICFGR register (this value is not need for SAI configuration) */
      tmpreg1 = ((RCC->PLLSAICFGR & RCC_PLLSAICFGR_PLLSAIQ) >> RCC_PLLSAICFGR_PLLSAIQ_Pos);
 8003f04:	4b2f      	ldr	r3, [pc, #188]	; (8003fc4 <HAL_RCCEx_PeriphCLKConfig+0x280>)
 8003f06:	f8d3 3088 	ldr.w	r3, [r3, #136]	; 0x88
 8003f0a:	0e1b      	lsrs	r3, r3, #24
 8003f0c:	f003 030f 	and.w	r3, r3, #15
 8003f10:	613b      	str	r3, [r7, #16]
      /* PLLSAI_VCO Input  = PLL_SOURCE/PLLM */
      /* PLLSAI_VCO Output = PLLSAI_VCO Input * PLLSAIN */
      /* LTDC_CLK(first level) = PLLSAI_VCO Output/PLLSAIR */
      __HAL_RCC_PLLSAI_CONFIG(PeriphClkInit->PLLSAI.PLLSAIN , tmpreg1, PeriphClkInit->PLLSAI.PLLSAIR);
 8003f12:	687b      	ldr	r3, [r7, #4]
 8003f14:	691b      	ldr	r3, [r3, #16]
 8003f16:	019a      	lsls	r2, r3, #6
 8003f18:	693b      	ldr	r3, [r7, #16]
 8003f1a:	061b      	lsls	r3, r3, #24
 8003f1c:	431a      	orrs	r2, r3
 8003f1e:	687b      	ldr	r3, [r7, #4]
 8003f20:	699b      	ldr	r3, [r3, #24]
 8003f22:	071b      	lsls	r3, r3, #28
 8003f24:	4927      	ldr	r1, [pc, #156]	; (8003fc4 <HAL_RCCEx_PeriphCLKConfig+0x280>)
 8003f26:	4313      	orrs	r3, r2
 8003f28:	f8c1 3088 	str.w	r3, [r1, #136]	; 0x88
      /* LTDC_CLK = LTDC_CLK(first level)/PLLSAIDIVR */
      __HAL_RCC_PLLSAI_PLLSAICLKDIVR_CONFIG(PeriphClkInit->PLLSAIDivR);
 8003f2c:	4b25      	ldr	r3, [pc, #148]	; (8003fc4 <HAL_RCCEx_PeriphCLKConfig+0x280>)
 8003f2e:	f8d3 308c 	ldr.w	r3, [r3, #140]	; 0x8c
 8003f32:	f423 3240 	bic.w	r2, r3, #196608	; 0x30000
 8003f36:	687b      	ldr	r3, [r7, #4]
 8003f38:	6a5b      	ldr	r3, [r3, #36]	; 0x24
 8003f3a:	4922      	ldr	r1, [pc, #136]	; (8003fc4 <HAL_RCCEx_PeriphCLKConfig+0x280>)
 8003f3c:	4313      	orrs	r3, r2
 8003f3e:	f8c1 308c 	str.w	r3, [r1, #140]	; 0x8c
    }
    /* Enable PLLSAI Clock */
    __HAL_RCC_PLLSAI_ENABLE();
 8003f42:	4b21      	ldr	r3, [pc, #132]	; (8003fc8 <HAL_RCCEx_PeriphCLKConfig+0x284>)
 8003f44:	2201      	movs	r2, #1
 8003f46:	601a      	str	r2, [r3, #0]
    /* Get tick */
    tickstart = HAL_GetTick();
 8003f48:	f7fd fe86 	bl	8001c58 <HAL_GetTick>
 8003f4c:	6178      	str	r0, [r7, #20]
    /* Wait till PLLSAI is ready */
    while(__HAL_RCC_PLLSAI_GET_FLAG() == RESET)
 8003f4e:	e008      	b.n	8003f62 <HAL_RCCEx_PeriphCLKConfig+0x21e>
    {
      if((HAL_GetTick() - tickstart ) > PLLSAI_TIMEOUT_VALUE)
 8003f50:	f7fd fe82 	bl	8001c58 <HAL_GetTick>
 8003f54:	4602      	mov	r2, r0
 8003f56:	697b      	ldr	r3, [r7, #20]
 8003f58:	1ad3      	subs	r3, r2, r3
 8003f5a:	2b02      	cmp	r3, #2
 8003f5c:	d901      	bls.n	8003f62 <HAL_RCCEx_PeriphCLKConfig+0x21e>
      {
        /* return in case of Timeout detected */
        return HAL_TIMEOUT;
 8003f5e:	2303      	movs	r3, #3
 8003f60:	e0a4      	b.n	80040ac <HAL_RCCEx_PeriphCLKConfig+0x368>
    while(__HAL_RCC_PLLSAI_GET_FLAG() == RESET)
 8003f62:	4b18      	ldr	r3, [pc, #96]	; (8003fc4 <HAL_RCCEx_PeriphCLKConfig+0x280>)
 8003f64:	681b      	ldr	r3, [r3, #0]
 8003f66:	f003 5300 	and.w	r3, r3, #536870912	; 0x20000000
 8003f6a:	f1b3 5f00 	cmp.w	r3, #536870912	; 0x20000000
 8003f6e:	d1ef      	bne.n	8003f50 <HAL_RCCEx_PeriphCLKConfig+0x20c>
    }
  }
  /*--------------------------------------------------------------------------*/

  /*---------------------------- RTC configuration ---------------------------*/
  if(((PeriphClkInit->PeriphClockSelection) & RCC_PERIPHCLK_RTC) == (RCC_PERIPHCLK_RTC))
 8003f70:	687b      	ldr	r3, [r7, #4]
 8003f72:	681b      	ldr	r3, [r3, #0]
 8003f74:	f003 0320 	and.w	r3, r3, #32
 8003f78:	2b00      	cmp	r3, #0
 8003f7a:	f000 808b 	beq.w	8004094 <HAL_RCCEx_PeriphCLKConfig+0x350>
  {
    /* Check for RTC Parameters used to output RTCCLK */
    assert_param(IS_RCC_RTCCLKSOURCE(PeriphClkInit->RTCClockSelection));

    /* Enable Power Clock*/
    __HAL_RCC_PWR_CLK_ENABLE();
 8003f7e:	2300      	movs	r3, #0
 8003f80:	60fb      	str	r3, [r7, #12]
 8003f82:	4b10      	ldr	r3, [pc, #64]	; (8003fc4 <HAL_RCCEx_PeriphCLKConfig+0x280>)
 8003f84:	6c1b      	ldr	r3, [r3, #64]	; 0x40
 8003f86:	4a0f      	ldr	r2, [pc, #60]	; (8003fc4 <HAL_RCCEx_PeriphCLKConfig+0x280>)
 8003f88:	f043 5380 	orr.w	r3, r3, #268435456	; 0x10000000
 8003f8c:	6413      	str	r3, [r2, #64]	; 0x40
 8003f8e:	4b0d      	ldr	r3, [pc, #52]	; (8003fc4 <HAL_RCCEx_PeriphCLKConfig+0x280>)
 8003f90:	6c1b      	ldr	r3, [r3, #64]	; 0x40
 8003f92:	f003 5380 	and.w	r3, r3, #268435456	; 0x10000000
 8003f96:	60fb      	str	r3, [r7, #12]
 8003f98:	68fb      	ldr	r3, [r7, #12]

    /* Enable write access to Backup domain */
    PWR->CR |= PWR_CR_DBP;
 8003f9a:	4b0c      	ldr	r3, [pc, #48]	; (8003fcc <HAL_RCCEx_PeriphCLKConfig+0x288>)
 8003f9c:	681b      	ldr	r3, [r3, #0]
 8003f9e:	4a0b      	ldr	r2, [pc, #44]	; (8003fcc <HAL_RCCEx_PeriphCLKConfig+0x288>)
 8003fa0:	f443 7380 	orr.w	r3, r3, #256	; 0x100
 8003fa4:	6013      	str	r3, [r2, #0]

    /* Get tick */
    tickstart = HAL_GetTick();
 8003fa6:	f7fd fe57 	bl	8001c58 <HAL_GetTick>
 8003faa:	6178      	str	r0, [r7, #20]

    while((PWR->CR & PWR_CR_DBP) == RESET)
 8003fac:	e010      	b.n	8003fd0 <HAL_RCCEx_PeriphCLKConfig+0x28c>
    {
      if((HAL_GetTick() - tickstart ) > RCC_DBP_TIMEOUT_VALUE)
 8003fae:	f7fd fe53 	bl	8001c58 <HAL_GetTick>
 8003fb2:	4602      	mov	r2, r0
 8003fb4:	697b      	ldr	r3, [r7, #20]
 8003fb6:	1ad3      	subs	r3, r2, r3
 8003fb8:	2b02      	cmp	r3, #2
 8003fba:	d909      	bls.n	8003fd0 <HAL_RCCEx_PeriphCLKConfig+0x28c>
      {
        return HAL_TIMEOUT;
 8003fbc:	2303      	movs	r3, #3
 8003fbe:	e075      	b.n	80040ac <HAL_RCCEx_PeriphCLKConfig+0x368>
 8003fc0:	42470068 	.word	0x42470068
 8003fc4:	40023800 	.word	0x40023800
 8003fc8:	42470070 	.word	0x42470070
 8003fcc:	40007000 	.word	0x40007000
    while((PWR->CR & PWR_CR_DBP) == RESET)
 8003fd0:	4b38      	ldr	r3, [pc, #224]	; (80040b4 <HAL_RCCEx_PeriphCLKConfig+0x370>)
 8003fd2:	681b      	ldr	r3, [r3, #0]
 8003fd4:	f403 7380 	and.w	r3, r3, #256	; 0x100
 8003fd8:	2b00      	cmp	r3, #0
 8003fda:	d0e8      	beq.n	8003fae <HAL_RCCEx_PeriphCLKConfig+0x26a>
      }
    }
    /* Reset the Backup domain only if the RTC Clock source selection is modified from reset value */
    tmpreg1 = (RCC->BDCR & RCC_BDCR_RTCSEL);
 8003fdc:	4b36      	ldr	r3, [pc, #216]	; (80040b8 <HAL_RCCEx_PeriphCLKConfig+0x374>)
 8003fde:	6f1b      	ldr	r3, [r3, #112]	; 0x70
 8003fe0:	f403 7340 	and.w	r3, r3, #768	; 0x300
 8003fe4:	613b      	str	r3, [r7, #16]
    if((tmpreg1 != 0x00000000U) && ((tmpreg1) != (PeriphClkInit->RTCClockSelection & RCC_BDCR_RTCSEL)))
 8003fe6:	693b      	ldr	r3, [r7, #16]
 8003fe8:	2b00      	cmp	r3, #0
 8003fea:	d02f      	beq.n	800404c <HAL_RCCEx_PeriphCLKConfig+0x308>
 8003fec:	687b      	ldr	r3, [r7, #4]
 8003fee:	6a9b      	ldr	r3, [r3, #40]	; 0x28
 8003ff0:	f403 7340 	and.w	r3, r3, #768	; 0x300
 8003ff4:	693a      	ldr	r2, [r7, #16]
 8003ff6:	429a      	cmp	r2, r3
 8003ff8:	d028      	beq.n	800404c <HAL_RCCEx_PeriphCLKConfig+0x308>
    {
      /* Store the content of BDCR register before the reset of Backup Domain */
      tmpreg1 = (RCC->BDCR & ~(RCC_BDCR_RTCSEL));
 8003ffa:	4b2f      	ldr	r3, [pc, #188]	; (80040b8 <HAL_RCCEx_PeriphCLKConfig+0x374>)
 8003ffc:	6f1b      	ldr	r3, [r3, #112]	; 0x70
 8003ffe:	f423 7340 	bic.w	r3, r3, #768	; 0x300
 8004002:	613b      	str	r3, [r7, #16]
      /* RTC Clock selection can be changed only if the Backup Domain is reset */
      __HAL_RCC_BACKUPRESET_FORCE();
 8004004:	4b2d      	ldr	r3, [pc, #180]	; (80040bc <HAL_RCCEx_PeriphCLKConfig+0x378>)
 8004006:	2201      	movs	r2, #1
 8004008:	601a      	str	r2, [r3, #0]
      __HAL_RCC_BACKUPRESET_RELEASE();
 800400a:	4b2c      	ldr	r3, [pc, #176]	; (80040bc <HAL_RCCEx_PeriphCLKConfig+0x378>)
 800400c:	2200      	movs	r2, #0
 800400e:	601a      	str	r2, [r3, #0]
      /* Restore the Content of BDCR register */
      RCC->BDCR = tmpreg1;
 8004010:	4a29      	ldr	r2, [pc, #164]	; (80040b8 <HAL_RCCEx_PeriphCLKConfig+0x374>)
 8004012:	693b      	ldr	r3, [r7, #16]
 8004014:	6713      	str	r3, [r2, #112]	; 0x70

      /* Wait for LSE reactivation if LSE was enable prior to Backup Domain reset */
      if(HAL_IS_BIT_SET(RCC->BDCR, RCC_BDCR_LSEON))
 8004016:	4b28      	ldr	r3, [pc, #160]	; (80040b8 <HAL_RCCEx_PeriphCLKConfig+0x374>)
 8004018:	6f1b      	ldr	r3, [r3, #112]	; 0x70
 800401a:	f003 0301 	and.w	r3, r3, #1
 800401e:	2b01      	cmp	r3, #1
 8004020:	d114      	bne.n	800404c <HAL_RCCEx_PeriphCLKConfig+0x308>
      {
        /* Get tick */
        tickstart = HAL_GetTick();
 8004022:	f7fd fe19 	bl	8001c58 <HAL_GetTick>
 8004026:	6178      	str	r0, [r7, #20]

        /* Wait till LSE is ready */
        while(__HAL_RCC_GET_FLAG(RCC_FLAG_LSERDY) == RESET)
 8004028:	e00a      	b.n	8004040 <HAL_RCCEx_PeriphCLKConfig+0x2fc>
        {
          if((HAL_GetTick() - tickstart ) > RCC_LSE_TIMEOUT_VALUE)
 800402a:	f7fd fe15 	bl	8001c58 <HAL_GetTick>
 800402e:	4602      	mov	r2, r0
 8004030:	697b      	ldr	r3, [r7, #20]
 8004032:	1ad3      	subs	r3, r2, r3
 8004034:	f241 3288 	movw	r2, #5000	; 0x1388
 8004038:	4293      	cmp	r3, r2
 800403a:	d901      	bls.n	8004040 <HAL_RCCEx_PeriphCLKConfig+0x2fc>
          {
            return HAL_TIMEOUT;
 800403c:	2303      	movs	r3, #3
 800403e:	e035      	b.n	80040ac <HAL_RCCEx_PeriphCLKConfig+0x368>
        while(__HAL_RCC_GET_FLAG(RCC_FLAG_LSERDY) == RESET)
 8004040:	4b1d      	ldr	r3, [pc, #116]	; (80040b8 <HAL_RCCEx_PeriphCLKConfig+0x374>)
 8004042:	6f1b      	ldr	r3, [r3, #112]	; 0x70
 8004044:	f003 0302 	and.w	r3, r3, #2
 8004048:	2b00      	cmp	r3, #0
 800404a:	d0ee      	beq.n	800402a <HAL_RCCEx_PeriphCLKConfig+0x2e6>
          }
        }
      }
    }
    __HAL_RCC_RTC_CONFIG(PeriphClkInit->RTCClockSelection);
 800404c:	687b      	ldr	r3, [r7, #4]
 800404e:	6a9b      	ldr	r3, [r3, #40]	; 0x28
 8004050:	f403 7340 	and.w	r3, r3, #768	; 0x300
 8004054:	f5b3 7f40 	cmp.w	r3, #768	; 0x300
 8004058:	d10d      	bne.n	8004076 <HAL_RCCEx_PeriphCLKConfig+0x332>
 800405a:	4b17      	ldr	r3, [pc, #92]	; (80040b8 <HAL_RCCEx_PeriphCLKConfig+0x374>)
 800405c:	689b      	ldr	r3, [r3, #8]
 800405e:	f423 12f8 	bic.w	r2, r3, #2031616	; 0x1f0000
 8004062:	687b      	ldr	r3, [r7, #4]
 8004064:	6a9b      	ldr	r3, [r3, #40]	; 0x28
 8004066:	f023 4370 	bic.w	r3, r3, #4026531840	; 0xf0000000
 800406a:	f423 7340 	bic.w	r3, r3, #768	; 0x300
 800406e:	4912      	ldr	r1, [pc, #72]	; (80040b8 <HAL_RCCEx_PeriphCLKConfig+0x374>)
 8004070:	4313      	orrs	r3, r2
 8004072:	608b      	str	r3, [r1, #8]
 8004074:	e005      	b.n	8004082 <HAL_RCCEx_PeriphCLKConfig+0x33e>
 8004076:	4b10      	ldr	r3, [pc, #64]	; (80040b8 <HAL_RCCEx_PeriphCLKConfig+0x374>)
 8004078:	689b      	ldr	r3, [r3, #8]
 800407a:	4a0f      	ldr	r2, [pc, #60]	; (80040b8 <HAL_RCCEx_PeriphCLKConfig+0x374>)
 800407c:	f423 13f8 	bic.w	r3, r3, #2031616	; 0x1f0000
 8004080:	6093      	str	r3, [r2, #8]
 8004082:	4b0d      	ldr	r3, [pc, #52]	; (80040b8 <HAL_RCCEx_PeriphCLKConfig+0x374>)
 8004084:	6f1a      	ldr	r2, [r3, #112]	; 0x70
 8004086:	687b      	ldr	r3, [r7, #4]
 8004088:	6a9b      	ldr	r3, [r3, #40]	; 0x28
 800408a:	f3c3 030b 	ubfx	r3, r3, #0, #12
 800408e:	490a      	ldr	r1, [pc, #40]	; (80040b8 <HAL_RCCEx_PeriphCLKConfig+0x374>)
 8004090:	4313      	orrs	r3, r2
 8004092:	670b      	str	r3, [r1, #112]	; 0x70
  }
  /*--------------------------------------------------------------------------*/

  /*---------------------------- TIM configuration ---------------------------*/
  if(((PeriphClkInit->PeriphClockSelection) & RCC_PERIPHCLK_TIM) == (RCC_PERIPHCLK_TIM))
 8004094:	687b      	ldr	r3, [r7, #4]
 8004096:	681b      	ldr	r3, [r3, #0]
 8004098:	f003 0310 	and.w	r3, r3, #16
 800409c:	2b00      	cmp	r3, #0
 800409e:	d004      	beq.n	80040aa <HAL_RCCEx_PeriphCLKConfig+0x366>
  {
    __HAL_RCC_TIMCLKPRESCALER(PeriphClkInit->TIMPresSelection);
 80040a0:	687b      	ldr	r3, [r7, #4]
 80040a2:	f893 202c 	ldrb.w	r2, [r3, #44]	; 0x2c
 80040a6:	4b06      	ldr	r3, [pc, #24]	; (80040c0 <HAL_RCCEx_PeriphCLKConfig+0x37c>)
 80040a8:	601a      	str	r2, [r3, #0]
  }
  return HAL_OK;
 80040aa:	2300      	movs	r3, #0
}
 80040ac:	4618      	mov	r0, r3
 80040ae:	3718      	adds	r7, #24
 80040b0:	46bd      	mov	sp, r7
 80040b2:	bd80      	pop	{r7, pc}
 80040b4:	40007000 	.word	0x40007000
 80040b8:	40023800 	.word	0x40023800
 80040bc:	42470e40 	.word	0x42470e40
 80040c0:	424711e0 	.word	0x424711e0

080040c4 <HAL_RTC_Init>:
  * @param  hrtc pointer to a RTC_HandleTypeDef structure that contains
  *                the configuration information for RTC.
  * @retval HAL status
  */
HAL_StatusTypeDef HAL_RTC_Init(RTC_HandleTypeDef *hrtc)
{
 80040c4:	b580      	push	{r7, lr}
 80040c6:	b084      	sub	sp, #16
 80040c8:	af00      	add	r7, sp, #0
 80040ca:	6078      	str	r0, [r7, #4]
  HAL_StatusTypeDef status = HAL_ERROR;
 80040cc:	2301      	movs	r3, #1
 80040ce:	73fb      	strb	r3, [r7, #15]

  /* Check RTC handler validity */
  if (hrtc == NULL)
 80040d0:	687b      	ldr	r3, [r7, #4]
 80040d2:	2b00      	cmp	r3, #0
 80040d4:	d101      	bne.n	80040da <HAL_RTC_Init+0x16>
  {
    return HAL_ERROR;
 80040d6:	2301      	movs	r3, #1
 80040d8:	e073      	b.n	80041c2 <HAL_RTC_Init+0xfe>
    {
      hrtc->MspDeInitCallback = HAL_RTC_MspDeInit;
    }
  }
#else /* USE_HAL_RTC_REGISTER_CALLBACKS */
  if (hrtc->State == HAL_RTC_STATE_RESET)
 80040da:	687b      	ldr	r3, [r7, #4]
 80040dc:	7f5b      	ldrb	r3, [r3, #29]
 80040de:	b2db      	uxtb	r3, r3
 80040e0:	2b00      	cmp	r3, #0
 80040e2:	d105      	bne.n	80040f0 <HAL_RTC_Init+0x2c>
  {
    /* Allocate lock resource and initialize it */
    hrtc->Lock = HAL_UNLOCKED;
 80040e4:	687b      	ldr	r3, [r7, #4]
 80040e6:	2200      	movs	r2, #0
 80040e8:	771a      	strb	r2, [r3, #28]

    /* Initialize RTC MSP */
    HAL_RTC_MspInit(hrtc);
 80040ea:	6878      	ldr	r0, [r7, #4]
 80040ec:	f7fd fa4c 	bl	8001588 <HAL_RTC_MspInit>
  }
#endif /* USE_HAL_RTC_REGISTER_CALLBACKS */

  /* Set RTC state */
  hrtc->State = HAL_RTC_STATE_BUSY;
 80040f0:	687b      	ldr	r3, [r7, #4]
 80040f2:	2202      	movs	r2, #2
 80040f4:	775a      	strb	r2, [r3, #29]

  /* Check whether the calendar needs to be initialized */
  if (__HAL_RTC_IS_CALENDAR_INITIALIZED(hrtc) == 0U)
 80040f6:	687b      	ldr	r3, [r7, #4]
 80040f8:	681b      	ldr	r3, [r3, #0]
 80040fa:	68db      	ldr	r3, [r3, #12]
 80040fc:	f003 0310 	and.w	r3, r3, #16
 8004100:	2b10      	cmp	r3, #16
 8004102:	d055      	beq.n	80041b0 <HAL_RTC_Init+0xec>
  {
    /* Disable the write protection for RTC registers */
    __HAL_RTC_WRITEPROTECTION_DISABLE(hrtc);
 8004104:	687b      	ldr	r3, [r7, #4]
 8004106:	681b      	ldr	r3, [r3, #0]
 8004108:	22ca      	movs	r2, #202	; 0xca
 800410a:	625a      	str	r2, [r3, #36]	; 0x24
 800410c:	687b      	ldr	r3, [r7, #4]
 800410e:	681b      	ldr	r3, [r3, #0]
 8004110:	2253      	movs	r2, #83	; 0x53
 8004112:	625a      	str	r2, [r3, #36]	; 0x24

    /* Enter Initialization mode */
    status = RTC_EnterInitMode(hrtc);
 8004114:	6878      	ldr	r0, [r7, #4]
 8004116:	f000 fa49 	bl	80045ac <RTC_EnterInitMode>
 800411a:	4603      	mov	r3, r0
 800411c:	73fb      	strb	r3, [r7, #15]

    if (status == HAL_OK)
 800411e:	7bfb      	ldrb	r3, [r7, #15]
 8004120:	2b00      	cmp	r3, #0
 8004122:	d12c      	bne.n	800417e <HAL_RTC_Init+0xba>
    {
      /* Clear RTC_CR FMT, OSEL and POL Bits */
      hrtc->Instance->CR &= ((uint32_t)~(RTC_CR_FMT | RTC_CR_OSEL | RTC_CR_POL));
 8004124:	687b      	ldr	r3, [r7, #4]
 8004126:	681b      	ldr	r3, [r3, #0]
 8004128:	689b      	ldr	r3, [r3, #8]
 800412a:	687a      	ldr	r2, [r7, #4]
 800412c:	6812      	ldr	r2, [r2, #0]
 800412e:	f423 03e0 	bic.w	r3, r3, #7340032	; 0x700000
 8004132:	f023 0340 	bic.w	r3, r3, #64	; 0x40
 8004136:	6093      	str	r3, [r2, #8]
      /* Set RTC_CR register */
      hrtc->Instance->CR |= (uint32_t)(hrtc->Init.HourFormat | hrtc->Init.OutPut | hrtc->Init.OutPutPolarity);
 8004138:	687b      	ldr	r3, [r7, #4]
 800413a:	681b      	ldr	r3, [r3, #0]
 800413c:	6899      	ldr	r1, [r3, #8]
 800413e:	687b      	ldr	r3, [r7, #4]
 8004140:	685a      	ldr	r2, [r3, #4]
 8004142:	687b      	ldr	r3, [r7, #4]
 8004144:	691b      	ldr	r3, [r3, #16]
 8004146:	431a      	orrs	r2, r3
 8004148:	687b      	ldr	r3, [r7, #4]
 800414a:	695b      	ldr	r3, [r3, #20]
 800414c:	431a      	orrs	r2, r3
 800414e:	687b      	ldr	r3, [r7, #4]
 8004150:	681b      	ldr	r3, [r3, #0]
 8004152:	430a      	orrs	r2, r1
 8004154:	609a      	str	r2, [r3, #8]

      /* Configure the RTC PRER */
      hrtc->Instance->PRER = (uint32_t)(hrtc->Init.SynchPrediv);
 8004156:	687b      	ldr	r3, [r7, #4]
 8004158:	681b      	ldr	r3, [r3, #0]
 800415a:	687a      	ldr	r2, [r7, #4]
 800415c:	68d2      	ldr	r2, [r2, #12]
 800415e:	611a      	str	r2, [r3, #16]
      hrtc->Instance->PRER |= (uint32_t)(hrtc->Init.AsynchPrediv << RTC_PRER_PREDIV_A_Pos);
 8004160:	687b      	ldr	r3, [r7, #4]
 8004162:	681b      	ldr	r3, [r3, #0]
 8004164:	6919      	ldr	r1, [r3, #16]
 8004166:	687b      	ldr	r3, [r7, #4]
 8004168:	689b      	ldr	r3, [r3, #8]
 800416a:	041a      	lsls	r2, r3, #16
 800416c:	687b      	ldr	r3, [r7, #4]
 800416e:	681b      	ldr	r3, [r3, #0]
 8004170:	430a      	orrs	r2, r1
 8004172:	611a      	str	r2, [r3, #16]

      /* Exit Initialization mode */
      status = RTC_ExitInitMode(hrtc);
 8004174:	6878      	ldr	r0, [r7, #4]
 8004176:	f000 fa50 	bl	800461a <RTC_ExitInitMode>
 800417a:	4603      	mov	r3, r0
 800417c:	73fb      	strb	r3, [r7, #15]
    }

    if (status == HAL_OK)
 800417e:	7bfb      	ldrb	r3, [r7, #15]
 8004180:	2b00      	cmp	r3, #0
 8004182:	d110      	bne.n	80041a6 <HAL_RTC_Init+0xe2>
    {
      hrtc->Instance->TAFCR &= (uint32_t)~RTC_OUTPUT_TYPE_PUSHPULL;
 8004184:	687b      	ldr	r3, [r7, #4]
 8004186:	681b      	ldr	r3, [r3, #0]
 8004188:	6c1a      	ldr	r2, [r3, #64]	; 0x40
 800418a:	687b      	ldr	r3, [r7, #4]
 800418c:	681b      	ldr	r3, [r3, #0]
 800418e:	f422 2280 	bic.w	r2, r2, #262144	; 0x40000
 8004192:	641a      	str	r2, [r3, #64]	; 0x40
      hrtc->Instance->TAFCR |= (uint32_t)(hrtc->Init.OutPutType);
 8004194:	687b      	ldr	r3, [r7, #4]
 8004196:	681b      	ldr	r3, [r3, #0]
 8004198:	6c19      	ldr	r1, [r3, #64]	; 0x40
 800419a:	687b      	ldr	r3, [r7, #4]
 800419c:	699a      	ldr	r2, [r3, #24]
 800419e:	687b      	ldr	r3, [r7, #4]
 80041a0:	681b      	ldr	r3, [r3, #0]
 80041a2:	430a      	orrs	r2, r1
 80041a4:	641a      	str	r2, [r3, #64]	; 0x40
    }

    /* Enable the write protection for RTC registers */
    __HAL_RTC_WRITEPROTECTION_ENABLE(hrtc);
 80041a6:	687b      	ldr	r3, [r7, #4]
 80041a8:	681b      	ldr	r3, [r3, #0]
 80041aa:	22ff      	movs	r2, #255	; 0xff
 80041ac:	625a      	str	r2, [r3, #36]	; 0x24
 80041ae:	e001      	b.n	80041b4 <HAL_RTC_Init+0xf0>
  }
  else
  {
    /* The calendar is already initialized */
    status = HAL_OK;
 80041b0:	2300      	movs	r3, #0
 80041b2:	73fb      	strb	r3, [r7, #15]
  }

  if (status == HAL_OK)
 80041b4:	7bfb      	ldrb	r3, [r7, #15]
 80041b6:	2b00      	cmp	r3, #0
 80041b8:	d102      	bne.n	80041c0 <HAL_RTC_Init+0xfc>
  {
    hrtc->State = HAL_RTC_STATE_READY;
 80041ba:	687b      	ldr	r3, [r7, #4]
 80041bc:	2201      	movs	r2, #1
 80041be:	775a      	strb	r2, [r3, #29]
  }

  return status;
 80041c0:	7bfb      	ldrb	r3, [r7, #15]
}
 80041c2:	4618      	mov	r0, r3
 80041c4:	3710      	adds	r7, #16
 80041c6:	46bd      	mov	sp, r7
 80041c8:	bd80      	pop	{r7, pc}

080041ca <HAL_RTC_SetTime>:
  *            @arg RTC_FORMAT_BIN: Binary data format
  *            @arg RTC_FORMAT_BCD: BCD data format
  * @retval HAL status
  */
HAL_StatusTypeDef HAL_RTC_SetTime(RTC_HandleTypeDef *hrtc, RTC_TimeTypeDef *sTime, uint32_t Format)
{
 80041ca:	b590      	push	{r4, r7, lr}
 80041cc:	b087      	sub	sp, #28
 80041ce:	af00      	add	r7, sp, #0
 80041d0:	60f8      	str	r0, [r7, #12]
 80041d2:	60b9      	str	r1, [r7, #8]
 80041d4:	607a      	str	r2, [r7, #4]
  uint32_t tmpreg = 0U;
 80041d6:	2300      	movs	r3, #0
 80041d8:	617b      	str	r3, [r7, #20]
  assert_param(IS_RTC_FORMAT(Format));
  assert_param(IS_RTC_DAYLIGHT_SAVING(sTime->DayLightSaving));
  assert_param(IS_RTC_STORE_OPERATION(sTime->StoreOperation));

  /* Process Locked */
  __HAL_LOCK(hrtc);
 80041da:	68fb      	ldr	r3, [r7, #12]
 80041dc:	7f1b      	ldrb	r3, [r3, #28]
 80041de:	2b01      	cmp	r3, #1
 80041e0:	d101      	bne.n	80041e6 <HAL_RTC_SetTime+0x1c>
 80041e2:	2302      	movs	r3, #2
 80041e4:	e087      	b.n	80042f6 <HAL_RTC_SetTime+0x12c>
 80041e6:	68fb      	ldr	r3, [r7, #12]
 80041e8:	2201      	movs	r2, #1
 80041ea:	771a      	strb	r2, [r3, #28]

  hrtc->State = HAL_RTC_STATE_BUSY;
 80041ec:	68fb      	ldr	r3, [r7, #12]
 80041ee:	2202      	movs	r2, #2
 80041f0:	775a      	strb	r2, [r3, #29]

  if (Format == RTC_FORMAT_BIN)
 80041f2:	687b      	ldr	r3, [r7, #4]
 80041f4:	2b00      	cmp	r3, #0
 80041f6:	d126      	bne.n	8004246 <HAL_RTC_SetTime+0x7c>
  {
    if ((hrtc->Instance->CR & RTC_CR_FMT) != 0U)
 80041f8:	68fb      	ldr	r3, [r7, #12]
 80041fa:	681b      	ldr	r3, [r3, #0]
 80041fc:	689b      	ldr	r3, [r3, #8]
 80041fe:	f003 0340 	and.w	r3, r3, #64	; 0x40
 8004202:	2b00      	cmp	r3, #0
 8004204:	d102      	bne.n	800420c <HAL_RTC_SetTime+0x42>
      assert_param(IS_RTC_HOUR12(sTime->Hours));
      assert_param(IS_RTC_HOURFORMAT12(sTime->TimeFormat));
    }
    else
    {
      sTime->TimeFormat = 0x00U;
 8004206:	68bb      	ldr	r3, [r7, #8]
 8004208:	2200      	movs	r2, #0
 800420a:	70da      	strb	r2, [r3, #3]
      assert_param(IS_RTC_HOUR24(sTime->Hours));
    }
    assert_param(IS_RTC_MINUTES(sTime->Minutes));
    assert_param(IS_RTC_SECONDS(sTime->Seconds));

    tmpreg = (uint32_t)(( (uint32_t)RTC_ByteToBcd2(sTime->Hours)   << RTC_TR_HU_Pos)  | \
 800420c:	68bb      	ldr	r3, [r7, #8]
 800420e:	781b      	ldrb	r3, [r3, #0]
 8004210:	4618      	mov	r0, r3
 8004212:	f000 fa27 	bl	8004664 <RTC_ByteToBcd2>
 8004216:	4603      	mov	r3, r0
 8004218:	041c      	lsls	r4, r3, #16
                        ( (uint32_t)RTC_ByteToBcd2(sTime->Minutes) << RTC_TR_MNU_Pos) | \
 800421a:	68bb      	ldr	r3, [r7, #8]
 800421c:	785b      	ldrb	r3, [r3, #1]
 800421e:	4618      	mov	r0, r3
 8004220:	f000 fa20 	bl	8004664 <RTC_ByteToBcd2>
 8004224:	4603      	mov	r3, r0
 8004226:	021b      	lsls	r3, r3, #8
    tmpreg = (uint32_t)(( (uint32_t)RTC_ByteToBcd2(sTime->Hours)   << RTC_TR_HU_Pos)  | \
 8004228:	431c      	orrs	r4, r3
                        ( (uint32_t)RTC_ByteToBcd2(sTime->Seconds))                   | \
 800422a:	68bb      	ldr	r3, [r7, #8]
 800422c:	789b      	ldrb	r3, [r3, #2]
 800422e:	4618      	mov	r0, r3
 8004230:	f000 fa18 	bl	8004664 <RTC_ByteToBcd2>
 8004234:	4603      	mov	r3, r0
                        ( (uint32_t)RTC_ByteToBcd2(sTime->Minutes) << RTC_TR_MNU_Pos) | \
 8004236:	ea44 0203 	orr.w	r2, r4, r3
                        (((uint32_t)sTime->TimeFormat)             << RTC_TR_PM_Pos));
 800423a:	68bb      	ldr	r3, [r7, #8]
 800423c:	78db      	ldrb	r3, [r3, #3]
 800423e:	059b      	lsls	r3, r3, #22
    tmpreg = (uint32_t)(( (uint32_t)RTC_ByteToBcd2(sTime->Hours)   << RTC_TR_HU_Pos)  | \
 8004240:	4313      	orrs	r3, r2
 8004242:	617b      	str	r3, [r7, #20]
 8004244:	e018      	b.n	8004278 <HAL_RTC_SetTime+0xae>
  }
  else
  {
    if ((hrtc->Instance->CR & RTC_CR_FMT) != 0U)
 8004246:	68fb      	ldr	r3, [r7, #12]
 8004248:	681b      	ldr	r3, [r3, #0]
 800424a:	689b      	ldr	r3, [r3, #8]
 800424c:	f003 0340 	and.w	r3, r3, #64	; 0x40
 8004250:	2b00      	cmp	r3, #0
 8004252:	d102      	bne.n	800425a <HAL_RTC_SetTime+0x90>
      assert_param(IS_RTC_HOUR12(RTC_Bcd2ToByte(sTime->Hours)));
      assert_param(IS_RTC_HOURFORMAT12(sTime->TimeFormat));
    }
    else
    {
      sTime->TimeFormat = 0x00U;
 8004254:	68bb      	ldr	r3, [r7, #8]
 8004256:	2200      	movs	r2, #0
 8004258:	70da      	strb	r2, [r3, #3]
      assert_param(IS_RTC_HOUR24(RTC_Bcd2ToByte(sTime->Hours)));
    }
    assert_param(IS_RTC_MINUTES(RTC_Bcd2ToByte(sTime->Minutes)));
    assert_param(IS_RTC_SECONDS(RTC_Bcd2ToByte(sTime->Seconds)));
    tmpreg = (((uint32_t)(sTime->Hours)      << RTC_TR_HU_Pos)  | \
 800425a:	68bb      	ldr	r3, [r7, #8]
 800425c:	781b      	ldrb	r3, [r3, #0]
 800425e:	041a      	lsls	r2, r3, #16
              ((uint32_t)(sTime->Minutes)    << RTC_TR_MNU_Pos) | \
 8004260:	68bb      	ldr	r3, [r7, #8]
 8004262:	785b      	ldrb	r3, [r3, #1]
 8004264:	021b      	lsls	r3, r3, #8
    tmpreg = (((uint32_t)(sTime->Hours)      << RTC_TR_HU_Pos)  | \
 8004266:	4313      	orrs	r3, r2
              ((uint32_t) sTime->Seconds)                       | \
 8004268:	68ba      	ldr	r2, [r7, #8]
 800426a:	7892      	ldrb	r2, [r2, #2]
              ((uint32_t)(sTime->Minutes)    << RTC_TR_MNU_Pos) | \
 800426c:	431a      	orrs	r2, r3
              ((uint32_t)(sTime->TimeFormat) << RTC_TR_PM_Pos));
 800426e:	68bb      	ldr	r3, [r7, #8]
 8004270:	78db      	ldrb	r3, [r3, #3]
 8004272:	059b      	lsls	r3, r3, #22
    tmpreg = (((uint32_t)(sTime->Hours)      << RTC_TR_HU_Pos)  | \
 8004274:	4313      	orrs	r3, r2
 8004276:	617b      	str	r3, [r7, #20]
  }

  /* Disable the write protection for RTC registers */
  __HAL_RTC_WRITEPROTECTION_DISABLE(hrtc);
 8004278:	68fb      	ldr	r3, [r7, #12]
 800427a:	681b      	ldr	r3, [r3, #0]
 800427c:	22ca      	movs	r2, #202	; 0xca
 800427e:	625a      	str	r2, [r3, #36]	; 0x24
 8004280:	68fb      	ldr	r3, [r7, #12]
 8004282:	681b      	ldr	r3, [r3, #0]
 8004284:	2253      	movs	r2, #83	; 0x53
 8004286:	625a      	str	r2, [r3, #36]	; 0x24

  /* Enter Initialization mode */
  status = RTC_EnterInitMode(hrtc);
 8004288:	68f8      	ldr	r0, [r7, #12]
 800428a:	f000 f98f 	bl	80045ac <RTC_EnterInitMode>
 800428e:	4603      	mov	r3, r0
 8004290:	74fb      	strb	r3, [r7, #19]

  if (status == HAL_OK)
 8004292:	7cfb      	ldrb	r3, [r7, #19]
 8004294:	2b00      	cmp	r3, #0
 8004296:	d120      	bne.n	80042da <HAL_RTC_SetTime+0x110>
  {
    /* Set the RTC_TR register */
    hrtc->Instance->TR = (uint32_t)(tmpreg & RTC_TR_RESERVED_MASK);
 8004298:	68fb      	ldr	r3, [r7, #12]
 800429a:	681a      	ldr	r2, [r3, #0]
 800429c:	697b      	ldr	r3, [r7, #20]
 800429e:	f003 337f 	and.w	r3, r3, #2139062143	; 0x7f7f7f7f
 80042a2:	f023 43fe 	bic.w	r3, r3, #2130706432	; 0x7f000000
 80042a6:	6013      	str	r3, [r2, #0]

    /* Clear the bits to be configured (Deprecated. Use HAL_RTC_DST_xxx functions instead) */
    hrtc->Instance->CR &= (uint32_t)~RTC_CR_BKP;
 80042a8:	68fb      	ldr	r3, [r7, #12]
 80042aa:	681b      	ldr	r3, [r3, #0]
 80042ac:	689a      	ldr	r2, [r3, #8]
 80042ae:	68fb      	ldr	r3, [r7, #12]
 80042b0:	681b      	ldr	r3, [r3, #0]
 80042b2:	f422 2280 	bic.w	r2, r2, #262144	; 0x40000
 80042b6:	609a      	str	r2, [r3, #8]

    /* Configure the RTC_CR register (Deprecated. Use HAL_RTC_DST_xxx functions instead) */
    hrtc->Instance->CR |= (uint32_t)(sTime->DayLightSaving | sTime->StoreOperation);
 80042b8:	68fb      	ldr	r3, [r7, #12]
 80042ba:	681b      	ldr	r3, [r3, #0]
 80042bc:	6899      	ldr	r1, [r3, #8]
 80042be:	68bb      	ldr	r3, [r7, #8]
 80042c0:	68da      	ldr	r2, [r3, #12]
 80042c2:	68bb      	ldr	r3, [r7, #8]
 80042c4:	691b      	ldr	r3, [r3, #16]
 80042c6:	431a      	orrs	r2, r3
 80042c8:	68fb      	ldr	r3, [r7, #12]
 80042ca:	681b      	ldr	r3, [r3, #0]
 80042cc:	430a      	orrs	r2, r1
 80042ce:	609a      	str	r2, [r3, #8]

    /* Exit Initialization mode */
    status = RTC_ExitInitMode(hrtc);
 80042d0:	68f8      	ldr	r0, [r7, #12]
 80042d2:	f000 f9a2 	bl	800461a <RTC_ExitInitMode>
 80042d6:	4603      	mov	r3, r0
 80042d8:	74fb      	strb	r3, [r7, #19]
  }

  if (status == HAL_OK)
 80042da:	7cfb      	ldrb	r3, [r7, #19]
 80042dc:	2b00      	cmp	r3, #0
 80042de:	d102      	bne.n	80042e6 <HAL_RTC_SetTime+0x11c>
  {
    hrtc->State = HAL_RTC_STATE_READY;
 80042e0:	68fb      	ldr	r3, [r7, #12]
 80042e2:	2201      	movs	r2, #1
 80042e4:	775a      	strb	r2, [r3, #29]
  }

  /* Enable the write protection for RTC registers */
  __HAL_RTC_WRITEPROTECTION_ENABLE(hrtc);
 80042e6:	68fb      	ldr	r3, [r7, #12]
 80042e8:	681b      	ldr	r3, [r3, #0]
 80042ea:	22ff      	movs	r2, #255	; 0xff
 80042ec:	625a      	str	r2, [r3, #36]	; 0x24

  /* Process Unlocked */
  __HAL_UNLOCK(hrtc);
 80042ee:	68fb      	ldr	r3, [r7, #12]
 80042f0:	2200      	movs	r2, #0
 80042f2:	771a      	strb	r2, [r3, #28]

  return status;
 80042f4:	7cfb      	ldrb	r3, [r7, #19]
}
 80042f6:	4618      	mov	r0, r3
 80042f8:	371c      	adds	r7, #28
 80042fa:	46bd      	mov	sp, r7
 80042fc:	bd90      	pop	{r4, r7, pc}

080042fe <HAL_RTC_GetTime>:
  *        until current date is read to ensure consistency between the time and
  *        date values.
  * @retval HAL status
  */
HAL_StatusTypeDef HAL_RTC_GetTime(RTC_HandleTypeDef *hrtc, RTC_TimeTypeDef *sTime, uint32_t Format)
{
 80042fe:	b580      	push	{r7, lr}
 8004300:	b086      	sub	sp, #24
 8004302:	af00      	add	r7, sp, #0
 8004304:	60f8      	str	r0, [r7, #12]
 8004306:	60b9      	str	r1, [r7, #8]
 8004308:	607a      	str	r2, [r7, #4]
  uint32_t tmpreg = 0U;
 800430a:	2300      	movs	r3, #0
 800430c:	617b      	str	r3, [r7, #20]

  /* Check the parameters */
  assert_param(IS_RTC_FORMAT(Format));

  /* Get subseconds value from the corresponding register */
  sTime->SubSeconds = (uint32_t)(hrtc->Instance->SSR);
 800430e:	68fb      	ldr	r3, [r7, #12]
 8004310:	681b      	ldr	r3, [r3, #0]
 8004312:	6a9a      	ldr	r2, [r3, #40]	; 0x28
 8004314:	68bb      	ldr	r3, [r7, #8]
 8004316:	605a      	str	r2, [r3, #4]

  /* Get SecondFraction structure field from the corresponding register field*/
  sTime->SecondFraction = (uint32_t)(hrtc->Instance->PRER & RTC_PRER_PREDIV_S);
 8004318:	68fb      	ldr	r3, [r7, #12]
 800431a:	681b      	ldr	r3, [r3, #0]
 800431c:	691b      	ldr	r3, [r3, #16]
 800431e:	f3c3 020e 	ubfx	r2, r3, #0, #15
 8004322:	68bb      	ldr	r3, [r7, #8]
 8004324:	609a      	str	r2, [r3, #8]

  /* Get the TR register */
  tmpreg = (uint32_t)(hrtc->Instance->TR & RTC_TR_RESERVED_MASK);
 8004326:	68fb      	ldr	r3, [r7, #12]
 8004328:	681b      	ldr	r3, [r3, #0]
 800432a:	681b      	ldr	r3, [r3, #0]
 800432c:	f003 337f 	and.w	r3, r3, #2139062143	; 0x7f7f7f7f
 8004330:	f023 43fe 	bic.w	r3, r3, #2130706432	; 0x7f000000
 8004334:	617b      	str	r3, [r7, #20]

  /* Fill the structure fields with the read parameters */
  sTime->Hours      = (uint8_t)((tmpreg & (RTC_TR_HT  | RTC_TR_HU))  >> RTC_TR_HU_Pos);
 8004336:	697b      	ldr	r3, [r7, #20]
 8004338:	0c1b      	lsrs	r3, r3, #16
 800433a:	b2db      	uxtb	r3, r3
 800433c:	f003 033f 	and.w	r3, r3, #63	; 0x3f
 8004340:	b2da      	uxtb	r2, r3
 8004342:	68bb      	ldr	r3, [r7, #8]
 8004344:	701a      	strb	r2, [r3, #0]
  sTime->Minutes    = (uint8_t)((tmpreg & (RTC_TR_MNT | RTC_TR_MNU)) >> RTC_TR_MNU_Pos);
 8004346:	697b      	ldr	r3, [r7, #20]
 8004348:	0a1b      	lsrs	r3, r3, #8
 800434a:	b2db      	uxtb	r3, r3
 800434c:	f003 037f 	and.w	r3, r3, #127	; 0x7f
 8004350:	b2da      	uxtb	r2, r3
 8004352:	68bb      	ldr	r3, [r7, #8]
 8004354:	705a      	strb	r2, [r3, #1]
  sTime->Seconds    = (uint8_t)( tmpreg & (RTC_TR_ST  | RTC_TR_SU));
 8004356:	697b      	ldr	r3, [r7, #20]
 8004358:	b2db      	uxtb	r3, r3
 800435a:	f003 037f 	and.w	r3, r3, #127	; 0x7f
 800435e:	b2da      	uxtb	r2, r3
 8004360:	68bb      	ldr	r3, [r7, #8]
 8004362:	709a      	strb	r2, [r3, #2]
  sTime->TimeFormat = (uint8_t)((tmpreg & (RTC_TR_PM))               >> RTC_TR_PM_Pos);
 8004364:	697b      	ldr	r3, [r7, #20]
 8004366:	0d9b      	lsrs	r3, r3, #22
 8004368:	b2db      	uxtb	r3, r3
 800436a:	f003 0301 	and.w	r3, r3, #1
 800436e:	b2da      	uxtb	r2, r3
 8004370:	68bb      	ldr	r3, [r7, #8]
 8004372:	70da      	strb	r2, [r3, #3]

  /* Check the input parameters format */
  if (Format == RTC_FORMAT_BIN)
 8004374:	687b      	ldr	r3, [r7, #4]
 8004376:	2b00      	cmp	r3, #0
 8004378:	d11a      	bne.n	80043b0 <HAL_RTC_GetTime+0xb2>
  {
    /* Convert the time structure parameters to Binary format */
    sTime->Hours = (uint8_t)RTC_Bcd2ToByte(sTime->Hours);
 800437a:	68bb      	ldr	r3, [r7, #8]
 800437c:	781b      	ldrb	r3, [r3, #0]
 800437e:	4618      	mov	r0, r3
 8004380:	f000 f98e 	bl	80046a0 <RTC_Bcd2ToByte>
 8004384:	4603      	mov	r3, r0
 8004386:	461a      	mov	r2, r3
 8004388:	68bb      	ldr	r3, [r7, #8]
 800438a:	701a      	strb	r2, [r3, #0]
    sTime->Minutes = (uint8_t)RTC_Bcd2ToByte(sTime->Minutes);
 800438c:	68bb      	ldr	r3, [r7, #8]
 800438e:	785b      	ldrb	r3, [r3, #1]
 8004390:	4618      	mov	r0, r3
 8004392:	f000 f985 	bl	80046a0 <RTC_Bcd2ToByte>
 8004396:	4603      	mov	r3, r0
 8004398:	461a      	mov	r2, r3
 800439a:	68bb      	ldr	r3, [r7, #8]
 800439c:	705a      	strb	r2, [r3, #1]
    sTime->Seconds = (uint8_t)RTC_Bcd2ToByte(sTime->Seconds);
 800439e:	68bb      	ldr	r3, [r7, #8]
 80043a0:	789b      	ldrb	r3, [r3, #2]
 80043a2:	4618      	mov	r0, r3
 80043a4:	f000 f97c 	bl	80046a0 <RTC_Bcd2ToByte>
 80043a8:	4603      	mov	r3, r0
 80043aa:	461a      	mov	r2, r3
 80043ac:	68bb      	ldr	r3, [r7, #8]
 80043ae:	709a      	strb	r2, [r3, #2]
  }

  return HAL_OK;
 80043b0:	2300      	movs	r3, #0
}
 80043b2:	4618      	mov	r0, r3
 80043b4:	3718      	adds	r7, #24
 80043b6:	46bd      	mov	sp, r7
 80043b8:	bd80      	pop	{r7, pc}

080043ba <HAL_RTC_SetDate>:
  *            @arg RTC_FORMAT_BIN: Binary data format
  *            @arg RTC_FORMAT_BCD: BCD data format
  * @retval HAL status
  */
HAL_StatusTypeDef HAL_RTC_SetDate(RTC_HandleTypeDef *hrtc, RTC_DateTypeDef *sDate, uint32_t Format)
{
 80043ba:	b590      	push	{r4, r7, lr}
 80043bc:	b087      	sub	sp, #28
 80043be:	af00      	add	r7, sp, #0
 80043c0:	60f8      	str	r0, [r7, #12]
 80043c2:	60b9      	str	r1, [r7, #8]
 80043c4:	607a      	str	r2, [r7, #4]
  uint32_t datetmpreg = 0U;
 80043c6:	2300      	movs	r3, #0
 80043c8:	617b      	str	r3, [r7, #20]

  /* Check the parameters */
  assert_param(IS_RTC_FORMAT(Format));

  /* Process Locked */
  __HAL_LOCK(hrtc);
 80043ca:	68fb      	ldr	r3, [r7, #12]
 80043cc:	7f1b      	ldrb	r3, [r3, #28]
 80043ce:	2b01      	cmp	r3, #1
 80043d0:	d101      	bne.n	80043d6 <HAL_RTC_SetDate+0x1c>
 80043d2:	2302      	movs	r3, #2
 80043d4:	e071      	b.n	80044ba <HAL_RTC_SetDate+0x100>
 80043d6:	68fb      	ldr	r3, [r7, #12]
 80043d8:	2201      	movs	r2, #1
 80043da:	771a      	strb	r2, [r3, #28]

  hrtc->State = HAL_RTC_STATE_BUSY;
 80043dc:	68fb      	ldr	r3, [r7, #12]
 80043de:	2202      	movs	r2, #2
 80043e0:	775a      	strb	r2, [r3, #29]

  if ((Format == RTC_FORMAT_BIN) && ((sDate->Month & 0x10U) == 0x10U))
 80043e2:	687b      	ldr	r3, [r7, #4]
 80043e4:	2b00      	cmp	r3, #0
 80043e6:	d10e      	bne.n	8004406 <HAL_RTC_SetDate+0x4c>
 80043e8:	68bb      	ldr	r3, [r7, #8]
 80043ea:	785b      	ldrb	r3, [r3, #1]
 80043ec:	f003 0310 	and.w	r3, r3, #16
 80043f0:	2b00      	cmp	r3, #0
 80043f2:	d008      	beq.n	8004406 <HAL_RTC_SetDate+0x4c>
  {
    sDate->Month = (uint8_t)((sDate->Month & (uint8_t)~(0x10U)) + (uint8_t)0x0AU);
 80043f4:	68bb      	ldr	r3, [r7, #8]
 80043f6:	785b      	ldrb	r3, [r3, #1]
 80043f8:	f023 0310 	bic.w	r3, r3, #16
 80043fc:	b2db      	uxtb	r3, r3
 80043fe:	330a      	adds	r3, #10
 8004400:	b2da      	uxtb	r2, r3
 8004402:	68bb      	ldr	r3, [r7, #8]
 8004404:	705a      	strb	r2, [r3, #1]
  }

  assert_param(IS_RTC_WEEKDAY(sDate->WeekDay));

  if (Format == RTC_FORMAT_BIN)
 8004406:	687b      	ldr	r3, [r7, #4]
 8004408:	2b00      	cmp	r3, #0
 800440a:	d11c      	bne.n	8004446 <HAL_RTC_SetDate+0x8c>
  {
    assert_param(IS_RTC_YEAR(sDate->Year));
    assert_param(IS_RTC_MONTH(sDate->Month));
    assert_param(IS_RTC_DATE(sDate->Date));

    datetmpreg = (((uint32_t)RTC_ByteToBcd2(sDate->Year)  << RTC_DR_YU_Pos) | \
 800440c:	68bb      	ldr	r3, [r7, #8]
 800440e:	78db      	ldrb	r3, [r3, #3]
 8004410:	4618      	mov	r0, r3
 8004412:	f000 f927 	bl	8004664 <RTC_ByteToBcd2>
 8004416:	4603      	mov	r3, r0
 8004418:	041c      	lsls	r4, r3, #16
                  ((uint32_t)RTC_ByteToBcd2(sDate->Month) << RTC_DR_MU_Pos) | \
 800441a:	68bb      	ldr	r3, [r7, #8]
 800441c:	785b      	ldrb	r3, [r3, #1]
 800441e:	4618      	mov	r0, r3
 8004420:	f000 f920 	bl	8004664 <RTC_ByteToBcd2>
 8004424:	4603      	mov	r3, r0
 8004426:	021b      	lsls	r3, r3, #8
    datetmpreg = (((uint32_t)RTC_ByteToBcd2(sDate->Year)  << RTC_DR_YU_Pos) | \
 8004428:	431c      	orrs	r4, r3
                  ((uint32_t)RTC_ByteToBcd2(sDate->Date))                   | \
 800442a:	68bb      	ldr	r3, [r7, #8]
 800442c:	789b      	ldrb	r3, [r3, #2]
 800442e:	4618      	mov	r0, r3
 8004430:	f000 f918 	bl	8004664 <RTC_ByteToBcd2>
 8004434:	4603      	mov	r3, r0
                  ((uint32_t)RTC_ByteToBcd2(sDate->Month) << RTC_DR_MU_Pos) | \
 8004436:	ea44 0203 	orr.w	r2, r4, r3
                  ((uint32_t)sDate->WeekDay               << RTC_DR_WDU_Pos));
 800443a:	68bb      	ldr	r3, [r7, #8]
 800443c:	781b      	ldrb	r3, [r3, #0]
 800443e:	035b      	lsls	r3, r3, #13
    datetmpreg = (((uint32_t)RTC_ByteToBcd2(sDate->Year)  << RTC_DR_YU_Pos) | \
 8004440:	4313      	orrs	r3, r2
 8004442:	617b      	str	r3, [r7, #20]
 8004444:	e00e      	b.n	8004464 <HAL_RTC_SetDate+0xaa>
  {
    assert_param(IS_RTC_YEAR(RTC_Bcd2ToByte(sDate->Year)));
    assert_param(IS_RTC_MONTH(RTC_Bcd2ToByte(sDate->Month)));
    assert_param(IS_RTC_DATE(RTC_Bcd2ToByte(sDate->Date)));

    datetmpreg = ((((uint32_t)sDate->Year)    << RTC_DR_YU_Pos) | \
 8004446:	68bb      	ldr	r3, [r7, #8]
 8004448:	78db      	ldrb	r3, [r3, #3]
 800444a:	041a      	lsls	r2, r3, #16
                  (((uint32_t)sDate->Month)   << RTC_DR_MU_Pos) | \
 800444c:	68bb      	ldr	r3, [r7, #8]
 800444e:	785b      	ldrb	r3, [r3, #1]
 8004450:	021b      	lsls	r3, r3, #8
    datetmpreg = ((((uint32_t)sDate->Year)    << RTC_DR_YU_Pos) | \
 8004452:	4313      	orrs	r3, r2
                  ((uint32_t) sDate->Date)                      | \
 8004454:	68ba      	ldr	r2, [r7, #8]
 8004456:	7892      	ldrb	r2, [r2, #2]
                  (((uint32_t)sDate->Month)   << RTC_DR_MU_Pos) | \
 8004458:	431a      	orrs	r2, r3
                  (((uint32_t)sDate->WeekDay) << RTC_DR_WDU_Pos));
 800445a:	68bb      	ldr	r3, [r7, #8]
 800445c:	781b      	ldrb	r3, [r3, #0]
 800445e:	035b      	lsls	r3, r3, #13
    datetmpreg = ((((uint32_t)sDate->Year)    << RTC_DR_YU_Pos) | \
 8004460:	4313      	orrs	r3, r2
 8004462:	617b      	str	r3, [r7, #20]
  }

  /* Disable the write protection for RTC registers */
  __HAL_RTC_WRITEPROTECTION_DISABLE(hrtc);
 8004464:	68fb      	ldr	r3, [r7, #12]
 8004466:	681b      	ldr	r3, [r3, #0]
 8004468:	22ca      	movs	r2, #202	; 0xca
 800446a:	625a      	str	r2, [r3, #36]	; 0x24
 800446c:	68fb      	ldr	r3, [r7, #12]
 800446e:	681b      	ldr	r3, [r3, #0]
 8004470:	2253      	movs	r2, #83	; 0x53
 8004472:	625a      	str	r2, [r3, #36]	; 0x24

  /* Enter Initialization mode */
  status = RTC_EnterInitMode(hrtc);
 8004474:	68f8      	ldr	r0, [r7, #12]
 8004476:	f000 f899 	bl	80045ac <RTC_EnterInitMode>
 800447a:	4603      	mov	r3, r0
 800447c:	74fb      	strb	r3, [r7, #19]

  if (status == HAL_OK)
 800447e:	7cfb      	ldrb	r3, [r7, #19]
 8004480:	2b00      	cmp	r3, #0
 8004482:	d10c      	bne.n	800449e <HAL_RTC_SetDate+0xe4>
  {
    /* Set the RTC_DR register */
    hrtc->Instance->DR = (uint32_t)(datetmpreg & RTC_DR_RESERVED_MASK);
 8004484:	68fb      	ldr	r3, [r7, #12]
 8004486:	681a      	ldr	r2, [r3, #0]
 8004488:	697b      	ldr	r3, [r7, #20]
 800448a:	f023 437f 	bic.w	r3, r3, #4278190080	; 0xff000000
 800448e:	f023 03c0 	bic.w	r3, r3, #192	; 0xc0
 8004492:	6053      	str	r3, [r2, #4]

    /* Exit Initialization mode */
    status = RTC_ExitInitMode(hrtc);
 8004494:	68f8      	ldr	r0, [r7, #12]
 8004496:	f000 f8c0 	bl	800461a <RTC_ExitInitMode>
 800449a:	4603      	mov	r3, r0
 800449c:	74fb      	strb	r3, [r7, #19]
  }

  if (status == HAL_OK)
 800449e:	7cfb      	ldrb	r3, [r7, #19]
 80044a0:	2b00      	cmp	r3, #0
 80044a2:	d102      	bne.n	80044aa <HAL_RTC_SetDate+0xf0>
  {
    hrtc->State = HAL_RTC_STATE_READY;
 80044a4:	68fb      	ldr	r3, [r7, #12]
 80044a6:	2201      	movs	r2, #1
 80044a8:	775a      	strb	r2, [r3, #29]
  }

  /* Enable the write protection for RTC registers */
  __HAL_RTC_WRITEPROTECTION_ENABLE(hrtc);
 80044aa:	68fb      	ldr	r3, [r7, #12]
 80044ac:	681b      	ldr	r3, [r3, #0]
 80044ae:	22ff      	movs	r2, #255	; 0xff
 80044b0:	625a      	str	r2, [r3, #36]	; 0x24

  /* Process Unlocked */
  __HAL_UNLOCK(hrtc);
 80044b2:	68fb      	ldr	r3, [r7, #12]
 80044b4:	2200      	movs	r2, #0
 80044b6:	771a      	strb	r2, [r3, #28]

  return status;
 80044b8:	7cfb      	ldrb	r3, [r7, #19]
}
 80044ba:	4618      	mov	r0, r3
 80044bc:	371c      	adds	r7, #28
 80044be:	46bd      	mov	sp, r7
 80044c0:	bd90      	pop	{r4, r7, pc}

080044c2 <HAL_RTC_GetDate>:
  *        until current date is read to ensure consistency between the time and
  *        date values.
  * @retval HAL status
  */
HAL_StatusTypeDef HAL_RTC_GetDate(RTC_HandleTypeDef *hrtc, RTC_DateTypeDef *sDate, uint32_t Format)
{
 80044c2:	b580      	push	{r7, lr}
 80044c4:	b086      	sub	sp, #24
 80044c6:	af00      	add	r7, sp, #0
 80044c8:	60f8      	str	r0, [r7, #12]
 80044ca:	60b9      	str	r1, [r7, #8]
 80044cc:	607a      	str	r2, [r7, #4]
  uint32_t datetmpreg = 0U;
 80044ce:	2300      	movs	r3, #0
 80044d0:	617b      	str	r3, [r7, #20]

  /* Check the parameters */
  assert_param(IS_RTC_FORMAT(Format));

  /* Get the DR register */
  datetmpreg = (uint32_t)(hrtc->Instance->DR & RTC_DR_RESERVED_MASK);
 80044d2:	68fb      	ldr	r3, [r7, #12]
 80044d4:	681b      	ldr	r3, [r3, #0]
 80044d6:	685b      	ldr	r3, [r3, #4]
 80044d8:	f023 437f 	bic.w	r3, r3, #4278190080	; 0xff000000
 80044dc:	f023 03c0 	bic.w	r3, r3, #192	; 0xc0
 80044e0:	617b      	str	r3, [r7, #20]

  /* Fill the structure fields with the read parameters */
  sDate->Year    = (uint8_t)((datetmpreg & (RTC_DR_YT | RTC_DR_YU)) >> RTC_DR_YU_Pos);
 80044e2:	697b      	ldr	r3, [r7, #20]
 80044e4:	0c1b      	lsrs	r3, r3, #16
 80044e6:	b2da      	uxtb	r2, r3
 80044e8:	68bb      	ldr	r3, [r7, #8]
 80044ea:	70da      	strb	r2, [r3, #3]
  sDate->Month   = (uint8_t)((datetmpreg & (RTC_DR_MT | RTC_DR_MU)) >> RTC_DR_MU_Pos);
 80044ec:	697b      	ldr	r3, [r7, #20]
 80044ee:	0a1b      	lsrs	r3, r3, #8
 80044f0:	b2db      	uxtb	r3, r3
 80044f2:	f003 031f 	and.w	r3, r3, #31
 80044f6:	b2da      	uxtb	r2, r3
 80044f8:	68bb      	ldr	r3, [r7, #8]
 80044fa:	705a      	strb	r2, [r3, #1]
  sDate->Date    = (uint8_t) (datetmpreg & (RTC_DR_DT | RTC_DR_DU));
 80044fc:	697b      	ldr	r3, [r7, #20]
 80044fe:	b2db      	uxtb	r3, r3
 8004500:	f003 033f 	and.w	r3, r3, #63	; 0x3f
 8004504:	b2da      	uxtb	r2, r3
 8004506:	68bb      	ldr	r3, [r7, #8]
 8004508:	709a      	strb	r2, [r3, #2]
  sDate->WeekDay = (uint8_t)((datetmpreg & (RTC_DR_WDU))            >> RTC_DR_WDU_Pos);
 800450a:	697b      	ldr	r3, [r7, #20]
 800450c:	0b5b      	lsrs	r3, r3, #13
 800450e:	b2db      	uxtb	r3, r3
 8004510:	f003 0307 	and.w	r3, r3, #7
 8004514:	b2da      	uxtb	r2, r3
 8004516:	68bb      	ldr	r3, [r7, #8]
 8004518:	701a      	strb	r2, [r3, #0]

  /* Check the input parameters format */
  if (Format == RTC_FORMAT_BIN)
 800451a:	687b      	ldr	r3, [r7, #4]
 800451c:	2b00      	cmp	r3, #0
 800451e:	d11a      	bne.n	8004556 <HAL_RTC_GetDate+0x94>
  {
    /* Convert the date structure parameters to Binary format */
    sDate->Year  = (uint8_t)RTC_Bcd2ToByte(sDate->Year);
 8004520:	68bb      	ldr	r3, [r7, #8]
 8004522:	78db      	ldrb	r3, [r3, #3]
 8004524:	4618      	mov	r0, r3
 8004526:	f000 f8bb 	bl	80046a0 <RTC_Bcd2ToByte>
 800452a:	4603      	mov	r3, r0
 800452c:	461a      	mov	r2, r3
 800452e:	68bb      	ldr	r3, [r7, #8]
 8004530:	70da      	strb	r2, [r3, #3]
    sDate->Month = (uint8_t)RTC_Bcd2ToByte(sDate->Month);
 8004532:	68bb      	ldr	r3, [r7, #8]
 8004534:	785b      	ldrb	r3, [r3, #1]
 8004536:	4618      	mov	r0, r3
 8004538:	f000 f8b2 	bl	80046a0 <RTC_Bcd2ToByte>
 800453c:	4603      	mov	r3, r0
 800453e:	461a      	mov	r2, r3
 8004540:	68bb      	ldr	r3, [r7, #8]
 8004542:	705a      	strb	r2, [r3, #1]
    sDate->Date  = (uint8_t)RTC_Bcd2ToByte(sDate->Date);
 8004544:	68bb      	ldr	r3, [r7, #8]
 8004546:	789b      	ldrb	r3, [r3, #2]
 8004548:	4618      	mov	r0, r3
 800454a:	f000 f8a9 	bl	80046a0 <RTC_Bcd2ToByte>
 800454e:	4603      	mov	r3, r0
 8004550:	461a      	mov	r2, r3
 8004552:	68bb      	ldr	r3, [r7, #8]
 8004554:	709a      	strb	r2, [r3, #2]
  }
  return HAL_OK;
 8004556:	2300      	movs	r3, #0
}
 8004558:	4618      	mov	r0, r3
 800455a:	3718      	adds	r7, #24
 800455c:	46bd      	mov	sp, r7
 800455e:	bd80      	pop	{r7, pc}

08004560 <HAL_RTC_WaitForSynchro>:
  * @param  hrtc pointer to a RTC_HandleTypeDef structure that contains
  *                the configuration information for RTC.
  * @retval HAL status
  */
HAL_StatusTypeDef HAL_RTC_WaitForSynchro(RTC_HandleTypeDef *hrtc)
{
 8004560:	b580      	push	{r7, lr}
 8004562:	b084      	sub	sp, #16
 8004564:	af00      	add	r7, sp, #0
 8004566:	6078      	str	r0, [r7, #4]
  uint32_t tickstart = 0U;
 8004568:	2300      	movs	r3, #0
 800456a:	60fb      	str	r3, [r7, #12]

  /* Clear RSF flag, keep reserved bits at reset values (setting other flags has no effect) */
  hrtc->Instance->ISR = ((uint32_t)(RTC_RSF_MASK & RTC_ISR_RESERVED_MASK));
 800456c:	687b      	ldr	r3, [r7, #4]
 800456e:	681b      	ldr	r3, [r3, #0]
 8004570:	4a0d      	ldr	r2, [pc, #52]	; (80045a8 <HAL_RTC_WaitForSynchro+0x48>)
 8004572:	60da      	str	r2, [r3, #12]

  /* Get tick */
  tickstart = HAL_GetTick();
 8004574:	f7fd fb70 	bl	8001c58 <HAL_GetTick>
 8004578:	60f8      	str	r0, [r7, #12]

  /* Wait the registers to be synchronised */
  while ((hrtc->Instance->ISR & RTC_ISR_RSF) == 0U)
 800457a:	e009      	b.n	8004590 <HAL_RTC_WaitForSynchro+0x30>
  {
    if ((HAL_GetTick() - tickstart) > RTC_TIMEOUT_VALUE)
 800457c:	f7fd fb6c 	bl	8001c58 <HAL_GetTick>
 8004580:	4602      	mov	r2, r0
 8004582:	68fb      	ldr	r3, [r7, #12]
 8004584:	1ad3      	subs	r3, r2, r3
 8004586:	f5b3 7f7a 	cmp.w	r3, #1000	; 0x3e8
 800458a:	d901      	bls.n	8004590 <HAL_RTC_WaitForSynchro+0x30>
    {
      return HAL_TIMEOUT;
 800458c:	2303      	movs	r3, #3
 800458e:	e007      	b.n	80045a0 <HAL_RTC_WaitForSynchro+0x40>
  while ((hrtc->Instance->ISR & RTC_ISR_RSF) == 0U)
 8004590:	687b      	ldr	r3, [r7, #4]
 8004592:	681b      	ldr	r3, [r3, #0]
 8004594:	68db      	ldr	r3, [r3, #12]
 8004596:	f003 0320 	and.w	r3, r3, #32
 800459a:	2b00      	cmp	r3, #0
 800459c:	d0ee      	beq.n	800457c <HAL_RTC_WaitForSynchro+0x1c>
    }
  }

  return HAL_OK;
 800459e:	2300      	movs	r3, #0
}
 80045a0:	4618      	mov	r0, r3
 80045a2:	3710      	adds	r7, #16
 80045a4:	46bd      	mov	sp, r7
 80045a6:	bd80      	pop	{r7, pc}
 80045a8:	00017f5f 	.word	0x00017f5f

080045ac <RTC_EnterInitMode>:
  * @param  hrtc pointer to a RTC_HandleTypeDef structure that contains
  *                the configuration information for RTC.
  * @retval HAL status
  */
HAL_StatusTypeDef RTC_EnterInitMode(RTC_HandleTypeDef *hrtc)
{
 80045ac:	b580      	push	{r7, lr}
 80045ae:	b084      	sub	sp, #16
 80045b0:	af00      	add	r7, sp, #0
 80045b2:	6078      	str	r0, [r7, #4]
  uint32_t tickstart = 0U;
 80045b4:	2300      	movs	r3, #0
 80045b6:	60bb      	str	r3, [r7, #8]
  HAL_StatusTypeDef status = HAL_OK;
 80045b8:	2300      	movs	r3, #0
 80045ba:	73fb      	strb	r3, [r7, #15]

  /* Check that Initialization mode is not already set */
  if (READ_BIT(hrtc->Instance->ISR, RTC_ISR_INITF) == 0U)
 80045bc:	687b      	ldr	r3, [r7, #4]
 80045be:	681b      	ldr	r3, [r3, #0]
 80045c0:	68db      	ldr	r3, [r3, #12]
 80045c2:	f003 0340 	and.w	r3, r3, #64	; 0x40
 80045c6:	2b00      	cmp	r3, #0
 80045c8:	d122      	bne.n	8004610 <RTC_EnterInitMode+0x64>
  {
    /* Set INIT bit to enter Initialization mode */
    SET_BIT(hrtc->Instance->ISR, RTC_ISR_INIT);
 80045ca:	687b      	ldr	r3, [r7, #4]
 80045cc:	681b      	ldr	r3, [r3, #0]
 80045ce:	68da      	ldr	r2, [r3, #12]
 80045d0:	687b      	ldr	r3, [r7, #4]
 80045d2:	681b      	ldr	r3, [r3, #0]
 80045d4:	f042 0280 	orr.w	r2, r2, #128	; 0x80
 80045d8:	60da      	str	r2, [r3, #12]

    /* Get tick */
    tickstart = HAL_GetTick();
 80045da:	f7fd fb3d 	bl	8001c58 <HAL_GetTick>
 80045de:	60b8      	str	r0, [r7, #8]

    /* Wait till RTC is in INIT state and if timeout is reached exit */
    while ((READ_BIT(hrtc->Instance->ISR, RTC_ISR_INITF) == 0U) && (status != HAL_ERROR))
 80045e0:	e00c      	b.n	80045fc <RTC_EnterInitMode+0x50>
    {
      if ((HAL_GetTick() - tickstart) > RTC_TIMEOUT_VALUE)
 80045e2:	f7fd fb39 	bl	8001c58 <HAL_GetTick>
 80045e6:	4602      	mov	r2, r0
 80045e8:	68bb      	ldr	r3, [r7, #8]
 80045ea:	1ad3      	subs	r3, r2, r3
 80045ec:	f5b3 7f7a 	cmp.w	r3, #1000	; 0x3e8
 80045f0:	d904      	bls.n	80045fc <RTC_EnterInitMode+0x50>
      {
        /* Set RTC state */
        hrtc->State = HAL_RTC_STATE_ERROR;
 80045f2:	687b      	ldr	r3, [r7, #4]
 80045f4:	2204      	movs	r2, #4
 80045f6:	775a      	strb	r2, [r3, #29]
        status = HAL_ERROR;
 80045f8:	2301      	movs	r3, #1
 80045fa:	73fb      	strb	r3, [r7, #15]
    while ((READ_BIT(hrtc->Instance->ISR, RTC_ISR_INITF) == 0U) && (status != HAL_ERROR))
 80045fc:	687b      	ldr	r3, [r7, #4]
 80045fe:	681b      	ldr	r3, [r3, #0]
 8004600:	68db      	ldr	r3, [r3, #12]
 8004602:	f003 0340 	and.w	r3, r3, #64	; 0x40
 8004606:	2b00      	cmp	r3, #0
 8004608:	d102      	bne.n	8004610 <RTC_EnterInitMode+0x64>
 800460a:	7bfb      	ldrb	r3, [r7, #15]
 800460c:	2b01      	cmp	r3, #1
 800460e:	d1e8      	bne.n	80045e2 <RTC_EnterInitMode+0x36>
      }
    }
  }

  return status;
 8004610:	7bfb      	ldrb	r3, [r7, #15]
}
 8004612:	4618      	mov	r0, r3
 8004614:	3710      	adds	r7, #16
 8004616:	46bd      	mov	sp, r7
 8004618:	bd80      	pop	{r7, pc}

0800461a <RTC_ExitInitMode>:
  * @param  hrtc pointer to a RTC_HandleTypeDef structure that contains
  *                the configuration information for RTC.
  * @retval HAL status
  */
HAL_StatusTypeDef RTC_ExitInitMode(RTC_HandleTypeDef *hrtc)
{
 800461a:	b580      	push	{r7, lr}
 800461c:	b084      	sub	sp, #16
 800461e:	af00      	add	r7, sp, #0
 8004620:	6078      	str	r0, [r7, #4]
  HAL_StatusTypeDef status = HAL_OK;
 8004622:	2300      	movs	r3, #0
 8004624:	73fb      	strb	r3, [r7, #15]

  /* Clear INIT bit to exit Initialization mode */
  CLEAR_BIT(hrtc->Instance->ISR, RTC_ISR_INIT);
 8004626:	687b      	ldr	r3, [r7, #4]
 8004628:	681b      	ldr	r3, [r3, #0]
 800462a:	68da      	ldr	r2, [r3, #12]
 800462c:	687b      	ldr	r3, [r7, #4]
 800462e:	681b      	ldr	r3, [r3, #0]
 8004630:	f022 0280 	bic.w	r2, r2, #128	; 0x80
 8004634:	60da      	str	r2, [r3, #12]

  /* If CR_BYPSHAD bit = 0, wait for synchro */
  if (READ_BIT(hrtc->Instance->CR, RTC_CR_BYPSHAD) == 0U)
 8004636:	687b      	ldr	r3, [r7, #4]
 8004638:	681b      	ldr	r3, [r3, #0]
 800463a:	689b      	ldr	r3, [r3, #8]
 800463c:	f003 0320 	and.w	r3, r3, #32
 8004640:	2b00      	cmp	r3, #0
 8004642:	d10a      	bne.n	800465a <RTC_ExitInitMode+0x40>
  {
    if (HAL_RTC_WaitForSynchro(hrtc) != HAL_OK)
 8004644:	6878      	ldr	r0, [r7, #4]
 8004646:	f7ff ff8b 	bl	8004560 <HAL_RTC_WaitForSynchro>
 800464a:	4603      	mov	r3, r0
 800464c:	2b00      	cmp	r3, #0
 800464e:	d004      	beq.n	800465a <RTC_ExitInitMode+0x40>
    {
      /* Set RTC state */
      hrtc->State = HAL_RTC_STATE_ERROR;
 8004650:	687b      	ldr	r3, [r7, #4]
 8004652:	2204      	movs	r2, #4
 8004654:	775a      	strb	r2, [r3, #29]
      status = HAL_ERROR;
 8004656:	2301      	movs	r3, #1
 8004658:	73fb      	strb	r3, [r7, #15]
    }
  }

  return status;
 800465a:	7bfb      	ldrb	r3, [r7, #15]
}
 800465c:	4618      	mov	r0, r3
 800465e:	3710      	adds	r7, #16
 8004660:	46bd      	mov	sp, r7
 8004662:	bd80      	pop	{r7, pc}

08004664 <RTC_ByteToBcd2>:
  * @brief  Converts a 2-digit number from decimal to BCD format.
  * @param  number decimal-formatted number (from 0 to 99) to be converted
  * @retval Converted byte
  */
uint8_t RTC_ByteToBcd2(uint8_t number)
{
 8004664:	b480      	push	{r7}
 8004666:	b085      	sub	sp, #20
 8004668:	af00      	add	r7, sp, #0
 800466a:	4603      	mov	r3, r0
 800466c:	71fb      	strb	r3, [r7, #7]
  uint32_t bcdhigh = 0U;
 800466e:	2300      	movs	r3, #0
 8004670:	60fb      	str	r3, [r7, #12]

  while (number >= 10U)
 8004672:	e005      	b.n	8004680 <RTC_ByteToBcd2+0x1c>
  {
    bcdhigh++;
 8004674:	68fb      	ldr	r3, [r7, #12]
 8004676:	3301      	adds	r3, #1
 8004678:	60fb      	str	r3, [r7, #12]
    number -= 10U;
 800467a:	79fb      	ldrb	r3, [r7, #7]
 800467c:	3b0a      	subs	r3, #10
 800467e:	71fb      	strb	r3, [r7, #7]
  while (number >= 10U)
 8004680:	79fb      	ldrb	r3, [r7, #7]
 8004682:	2b09      	cmp	r3, #9
 8004684:	d8f6      	bhi.n	8004674 <RTC_ByteToBcd2+0x10>
  }

  return ((uint8_t)(bcdhigh << 4U) | number);
 8004686:	68fb      	ldr	r3, [r7, #12]
 8004688:	b2db      	uxtb	r3, r3
 800468a:	011b      	lsls	r3, r3, #4
 800468c:	b2da      	uxtb	r2, r3
 800468e:	79fb      	ldrb	r3, [r7, #7]
 8004690:	4313      	orrs	r3, r2
 8004692:	b2db      	uxtb	r3, r3
}
 8004694:	4618      	mov	r0, r3
 8004696:	3714      	adds	r7, #20
 8004698:	46bd      	mov	sp, r7
 800469a:	f85d 7b04 	ldr.w	r7, [sp], #4
 800469e:	4770      	bx	lr

080046a0 <RTC_Bcd2ToByte>:
  * @brief  Converts a 2-digit number from BCD to decimal format.
  * @param  number BCD-formatted number (from 00 to 99) to be converted
  * @retval Converted word
  */
uint8_t RTC_Bcd2ToByte(uint8_t number)
{
 80046a0:	b480      	push	{r7}
 80046a2:	b085      	sub	sp, #20
 80046a4:	af00      	add	r7, sp, #0
 80046a6:	4603      	mov	r3, r0
 80046a8:	71fb      	strb	r3, [r7, #7]
  uint32_t tens = 0U;
 80046aa:	2300      	movs	r3, #0
 80046ac:	60fb      	str	r3, [r7, #12]
  tens = (((uint32_t)number & 0xF0U) >> 4U) * 10U;
 80046ae:	79fb      	ldrb	r3, [r7, #7]
 80046b0:	091b      	lsrs	r3, r3, #4
 80046b2:	b2db      	uxtb	r3, r3
 80046b4:	461a      	mov	r2, r3
 80046b6:	4613      	mov	r3, r2
 80046b8:	009b      	lsls	r3, r3, #2
 80046ba:	4413      	add	r3, r2
 80046bc:	005b      	lsls	r3, r3, #1
 80046be:	60fb      	str	r3, [r7, #12]
  return (uint8_t)(tens + ((uint32_t)number & 0x0FU));
 80046c0:	68fb      	ldr	r3, [r7, #12]
 80046c2:	b2da      	uxtb	r2, r3
 80046c4:	79fb      	ldrb	r3, [r7, #7]
 80046c6:	f003 030f 	and.w	r3, r3, #15
 80046ca:	b2db      	uxtb	r3, r3
 80046cc:	4413      	add	r3, r2
 80046ce:	b2db      	uxtb	r3, r3
}
 80046d0:	4618      	mov	r0, r3
 80046d2:	3714      	adds	r7, #20
 80046d4:	46bd      	mov	sp, r7
 80046d6:	f85d 7b04 	ldr.w	r7, [sp], #4
 80046da:	4770      	bx	lr

080046dc <HAL_SPI_Init>:
  * @param  hspi pointer to a SPI_HandleTypeDef structure that contains
  *               the configuration information for SPI module.
  * @retval HAL status
  */
HAL_StatusTypeDef HAL_SPI_Init(SPI_HandleTypeDef *hspi)
{
 80046dc:	b580      	push	{r7, lr}
 80046de:	b082      	sub	sp, #8
 80046e0:	af00      	add	r7, sp, #0
 80046e2:	6078      	str	r0, [r7, #4]
  /* Check the SPI handle allocation */
  if (hspi == NULL)
 80046e4:	687b      	ldr	r3, [r7, #4]
 80046e6:	2b00      	cmp	r3, #0
 80046e8:	d101      	bne.n	80046ee <HAL_SPI_Init+0x12>
  {
    return HAL_ERROR;
 80046ea:	2301      	movs	r3, #1
 80046ec:	e07b      	b.n	80047e6 <HAL_SPI_Init+0x10a>
  assert_param(IS_SPI_DATASIZE(hspi->Init.DataSize));
  assert_param(IS_SPI_NSS(hspi->Init.NSS));
  assert_param(IS_SPI_BAUDRATE_PRESCALER(hspi->Init.BaudRatePrescaler));
  assert_param(IS_SPI_FIRST_BIT(hspi->Init.FirstBit));
  assert_param(IS_SPI_TIMODE(hspi->Init.TIMode));
  if (hspi->Init.TIMode == SPI_TIMODE_DISABLE)
 80046ee:	687b      	ldr	r3, [r7, #4]
 80046f0:	6a5b      	ldr	r3, [r3, #36]	; 0x24
 80046f2:	2b00      	cmp	r3, #0
 80046f4:	d108      	bne.n	8004708 <HAL_SPI_Init+0x2c>
  {
    assert_param(IS_SPI_CPOL(hspi->Init.CLKPolarity));
    assert_param(IS_SPI_CPHA(hspi->Init.CLKPhase));

    if (hspi->Init.Mode == SPI_MODE_MASTER)
 80046f6:	687b      	ldr	r3, [r7, #4]
 80046f8:	685b      	ldr	r3, [r3, #4]
 80046fa:	f5b3 7f82 	cmp.w	r3, #260	; 0x104
 80046fe:	d009      	beq.n	8004714 <HAL_SPI_Init+0x38>
      assert_param(IS_SPI_BAUDRATE_PRESCALER(hspi->Init.BaudRatePrescaler));
    }
    else
    {
      /* Baudrate prescaler not use in Motoraola Slave mode. force to default value */
      hspi->Init.BaudRatePrescaler = SPI_BAUDRATEPRESCALER_2;
 8004700:	687b      	ldr	r3, [r7, #4]
 8004702:	2200      	movs	r2, #0
 8004704:	61da      	str	r2, [r3, #28]
 8004706:	e005      	b.n	8004714 <HAL_SPI_Init+0x38>
  else
  {
    assert_param(IS_SPI_BAUDRATE_PRESCALER(hspi->Init.BaudRatePrescaler));

    /* Force polarity and phase to TI protocaol requirements */
    hspi->Init.CLKPolarity = SPI_POLARITY_LOW;
 8004708:	687b      	ldr	r3, [r7, #4]
 800470a:	2200      	movs	r2, #0
 800470c:	611a      	str	r2, [r3, #16]
    hspi->Init.CLKPhase    = SPI_PHASE_1EDGE;
 800470e:	687b      	ldr	r3, [r7, #4]
 8004710:	2200      	movs	r2, #0
 8004712:	615a      	str	r2, [r3, #20]
  if (hspi->Init.CRCCalculation == SPI_CRCCALCULATION_ENABLE)
  {
    assert_param(IS_SPI_CRC_POLYNOMIAL(hspi->Init.CRCPolynomial));
  }
#else
  hspi->Init.CRCCalculation = SPI_CRCCALCULATION_DISABLE;
 8004714:	687b      	ldr	r3, [r7, #4]
 8004716:	2200      	movs	r2, #0
 8004718:	629a      	str	r2, [r3, #40]	; 0x28
#endif /* USE_SPI_CRC */

  if (hspi->State == HAL_SPI_STATE_RESET)
 800471a:	687b      	ldr	r3, [r7, #4]
 800471c:	f893 3051 	ldrb.w	r3, [r3, #81]	; 0x51
 8004720:	b2db      	uxtb	r3, r3
 8004722:	2b00      	cmp	r3, #0
 8004724:	d106      	bne.n	8004734 <HAL_SPI_Init+0x58>
  {
    /* Allocate lock resource and initialize it */
    hspi->Lock = HAL_UNLOCKED;
 8004726:	687b      	ldr	r3, [r7, #4]
 8004728:	2200      	movs	r2, #0
 800472a:	f883 2050 	strb.w	r2, [r3, #80]	; 0x50

    /* Init the low level hardware : GPIO, CLOCK, NVIC... */
    hspi->MspInitCallback(hspi);
#else
    /* Init the low level hardware : GPIO, CLOCK, NVIC... */
    HAL_SPI_MspInit(hspi);
 800472e:	6878      	ldr	r0, [r7, #4]
 8004730:	f7fc ff54 	bl	80015dc <HAL_SPI_MspInit>
#endif /* USE_HAL_SPI_REGISTER_CALLBACKS */
  }

  hspi->State = HAL_SPI_STATE_BUSY;
 8004734:	687b      	ldr	r3, [r7, #4]
 8004736:	2202      	movs	r2, #2
 8004738:	f883 2051 	strb.w	r2, [r3, #81]	; 0x51

  /* Disable the selected SPI peripheral */
  __HAL_SPI_DISABLE(hspi);
 800473c:	687b      	ldr	r3, [r7, #4]
 800473e:	681b      	ldr	r3, [r3, #0]
 8004740:	681a      	ldr	r2, [r3, #0]
 8004742:	687b      	ldr	r3, [r7, #4]
 8004744:	681b      	ldr	r3, [r3, #0]
 8004746:	f022 0240 	bic.w	r2, r2, #64	; 0x40
 800474a:	601a      	str	r2, [r3, #0]

  /*----------------------- SPIx CR1 & CR2 Configuration ---------------------*/
  /* Configure : SPI Mode, Communication Mode, Data size, Clock polarity and phase, NSS management,
  Communication speed, First bit and CRC calculation state */
  WRITE_REG(hspi->Instance->CR1, ((hspi->Init.Mode & (SPI_CR1_MSTR | SPI_CR1_SSI)) |
 800474c:	687b      	ldr	r3, [r7, #4]
 800474e:	685b      	ldr	r3, [r3, #4]
 8004750:	f403 7282 	and.w	r2, r3, #260	; 0x104
 8004754:	687b      	ldr	r3, [r7, #4]
 8004756:	689b      	ldr	r3, [r3, #8]
 8004758:	f403 4304 	and.w	r3, r3, #33792	; 0x8400
 800475c:	431a      	orrs	r2, r3
 800475e:	687b      	ldr	r3, [r7, #4]
 8004760:	68db      	ldr	r3, [r3, #12]
 8004762:	f403 6300 	and.w	r3, r3, #2048	; 0x800
 8004766:	431a      	orrs	r2, r3
 8004768:	687b      	ldr	r3, [r7, #4]
 800476a:	691b      	ldr	r3, [r3, #16]
 800476c:	f003 0302 	and.w	r3, r3, #2
 8004770:	431a      	orrs	r2, r3
 8004772:	687b      	ldr	r3, [r7, #4]
 8004774:	695b      	ldr	r3, [r3, #20]
 8004776:	f003 0301 	and.w	r3, r3, #1
 800477a:	431a      	orrs	r2, r3
 800477c:	687b      	ldr	r3, [r7, #4]
 800477e:	699b      	ldr	r3, [r3, #24]
 8004780:	f403 7300 	and.w	r3, r3, #512	; 0x200
 8004784:	431a      	orrs	r2, r3
 8004786:	687b      	ldr	r3, [r7, #4]
 8004788:	69db      	ldr	r3, [r3, #28]
 800478a:	f003 0338 	and.w	r3, r3, #56	; 0x38
 800478e:	431a      	orrs	r2, r3
 8004790:	687b      	ldr	r3, [r7, #4]
 8004792:	6a1b      	ldr	r3, [r3, #32]
 8004794:	f003 0380 	and.w	r3, r3, #128	; 0x80
 8004798:	ea42 0103 	orr.w	r1, r2, r3
 800479c:	687b      	ldr	r3, [r7, #4]
 800479e:	6a9b      	ldr	r3, [r3, #40]	; 0x28
 80047a0:	f403 5200 	and.w	r2, r3, #8192	; 0x2000
 80047a4:	687b      	ldr	r3, [r7, #4]
 80047a6:	681b      	ldr	r3, [r3, #0]
 80047a8:	430a      	orrs	r2, r1
 80047aa:	601a      	str	r2, [r3, #0]
                                  (hspi->Init.BaudRatePrescaler & SPI_CR1_BR_Msk) |
                                  (hspi->Init.FirstBit  & SPI_CR1_LSBFIRST) |
                                  (hspi->Init.CRCCalculation & SPI_CR1_CRCEN)));

  /* Configure : NSS management, TI Mode */
  WRITE_REG(hspi->Instance->CR2, (((hspi->Init.NSS >> 16U) & SPI_CR2_SSOE) | (hspi->Init.TIMode & SPI_CR2_FRF)));
 80047ac:	687b      	ldr	r3, [r7, #4]
 80047ae:	699b      	ldr	r3, [r3, #24]
 80047b0:	0c1b      	lsrs	r3, r3, #16
 80047b2:	f003 0104 	and.w	r1, r3, #4
 80047b6:	687b      	ldr	r3, [r7, #4]
 80047b8:	6a5b      	ldr	r3, [r3, #36]	; 0x24
 80047ba:	f003 0210 	and.w	r2, r3, #16
 80047be:	687b      	ldr	r3, [r7, #4]
 80047c0:	681b      	ldr	r3, [r3, #0]
 80047c2:	430a      	orrs	r2, r1
 80047c4:	605a      	str	r2, [r3, #4]
  }
#endif /* USE_SPI_CRC */

#if defined(SPI_I2SCFGR_I2SMOD)
  /* Activate the SPI mode (Make sure that I2SMOD bit in I2SCFGR register is reset) */
  CLEAR_BIT(hspi->Instance->I2SCFGR, SPI_I2SCFGR_I2SMOD);
 80047c6:	687b      	ldr	r3, [r7, #4]
 80047c8:	681b      	ldr	r3, [r3, #0]
 80047ca:	69da      	ldr	r2, [r3, #28]
 80047cc:	687b      	ldr	r3, [r7, #4]
 80047ce:	681b      	ldr	r3, [r3, #0]
 80047d0:	f422 6200 	bic.w	r2, r2, #2048	; 0x800
 80047d4:	61da      	str	r2, [r3, #28]
#endif /* SPI_I2SCFGR_I2SMOD */

  hspi->ErrorCode = HAL_SPI_ERROR_NONE;
 80047d6:	687b      	ldr	r3, [r7, #4]
 80047d8:	2200      	movs	r2, #0
 80047da:	655a      	str	r2, [r3, #84]	; 0x54
  hspi->State     = HAL_SPI_STATE_READY;
 80047dc:	687b      	ldr	r3, [r7, #4]
 80047de:	2201      	movs	r2, #1
 80047e0:	f883 2051 	strb.w	r2, [r3, #81]	; 0x51

  return HAL_OK;
 80047e4:	2300      	movs	r3, #0
}
 80047e6:	4618      	mov	r0, r3
 80047e8:	3708      	adds	r7, #8
 80047ea:	46bd      	mov	sp, r7
 80047ec:	bd80      	pop	{r7, pc}

080047ee <HAL_SPI_Transmit>:
  * @param  Size amount of data to be sent
  * @param  Timeout Timeout duration
  * @retval HAL status
  */
HAL_StatusTypeDef HAL_SPI_Transmit(SPI_HandleTypeDef *hspi, uint8_t *pData, uint16_t Size, uint32_t Timeout)
{
 80047ee:	b580      	push	{r7, lr}
 80047f0:	b088      	sub	sp, #32
 80047f2:	af00      	add	r7, sp, #0
 80047f4:	60f8      	str	r0, [r7, #12]
 80047f6:	60b9      	str	r1, [r7, #8]
 80047f8:	603b      	str	r3, [r7, #0]
 80047fa:	4613      	mov	r3, r2
 80047fc:	80fb      	strh	r3, [r7, #6]
  uint32_t tickstart;
  HAL_StatusTypeDef errorcode = HAL_OK;
 80047fe:	2300      	movs	r3, #0
 8004800:	77fb      	strb	r3, [r7, #31]

  /* Check Direction parameter */
  assert_param(IS_SPI_DIRECTION_2LINES_OR_1LINE(hspi->Init.Direction));

  /* Process Locked */
  __HAL_LOCK(hspi);
 8004802:	68fb      	ldr	r3, [r7, #12]
 8004804:	f893 3050 	ldrb.w	r3, [r3, #80]	; 0x50
 8004808:	2b01      	cmp	r3, #1
 800480a:	d101      	bne.n	8004810 <HAL_SPI_Transmit+0x22>
 800480c:	2302      	movs	r3, #2
 800480e:	e12d      	b.n	8004a6c <HAL_SPI_Transmit+0x27e>
 8004810:	68fb      	ldr	r3, [r7, #12]
 8004812:	2201      	movs	r2, #1
 8004814:	f883 2050 	strb.w	r2, [r3, #80]	; 0x50

  /* Init tickstart for timeout management*/
  tickstart = HAL_GetTick();
 8004818:	f7fd fa1e 	bl	8001c58 <HAL_GetTick>
 800481c:	61b8      	str	r0, [r7, #24]
  initial_TxXferCount = Size;
 800481e:	88fb      	ldrh	r3, [r7, #6]
 8004820:	82fb      	strh	r3, [r7, #22]

  if (hspi->State != HAL_SPI_STATE_READY)
 8004822:	68fb      	ldr	r3, [r7, #12]
 8004824:	f893 3051 	ldrb.w	r3, [r3, #81]	; 0x51
 8004828:	b2db      	uxtb	r3, r3
 800482a:	2b01      	cmp	r3, #1
 800482c:	d002      	beq.n	8004834 <HAL_SPI_Transmit+0x46>
  {
    errorcode = HAL_BUSY;
 800482e:	2302      	movs	r3, #2
 8004830:	77fb      	strb	r3, [r7, #31]
    goto error;
 8004832:	e116      	b.n	8004a62 <HAL_SPI_Transmit+0x274>
  }

  if ((pData == NULL) || (Size == 0U))
 8004834:	68bb      	ldr	r3, [r7, #8]
 8004836:	2b00      	cmp	r3, #0
 8004838:	d002      	beq.n	8004840 <HAL_SPI_Transmit+0x52>
 800483a:	88fb      	ldrh	r3, [r7, #6]
 800483c:	2b00      	cmp	r3, #0
 800483e:	d102      	bne.n	8004846 <HAL_SPI_Transmit+0x58>
  {
    errorcode = HAL_ERROR;
 8004840:	2301      	movs	r3, #1
 8004842:	77fb      	strb	r3, [r7, #31]
    goto error;
 8004844:	e10d      	b.n	8004a62 <HAL_SPI_Transmit+0x274>
  }

  /* Set the transaction information */
  hspi->State       = HAL_SPI_STATE_BUSY_TX;
 8004846:	68fb      	ldr	r3, [r7, #12]
 8004848:	2203      	movs	r2, #3
 800484a:	f883 2051 	strb.w	r2, [r3, #81]	; 0x51
  hspi->ErrorCode   = HAL_SPI_ERROR_NONE;
 800484e:	68fb      	ldr	r3, [r7, #12]
 8004850:	2200      	movs	r2, #0
 8004852:	655a      	str	r2, [r3, #84]	; 0x54
  hspi->pTxBuffPtr  = (uint8_t *)pData;
 8004854:	68fb      	ldr	r3, [r7, #12]
 8004856:	68ba      	ldr	r2, [r7, #8]
 8004858:	631a      	str	r2, [r3, #48]	; 0x30
  hspi->TxXferSize  = Size;
 800485a:	68fb      	ldr	r3, [r7, #12]
 800485c:	88fa      	ldrh	r2, [r7, #6]
 800485e:	869a      	strh	r2, [r3, #52]	; 0x34
  hspi->TxXferCount = Size;
 8004860:	68fb      	ldr	r3, [r7, #12]
 8004862:	88fa      	ldrh	r2, [r7, #6]
 8004864:	86da      	strh	r2, [r3, #54]	; 0x36

  /*Init field not used in handle to zero */
  hspi->pRxBuffPtr  = (uint8_t *)NULL;
 8004866:	68fb      	ldr	r3, [r7, #12]
 8004868:	2200      	movs	r2, #0
 800486a:	639a      	str	r2, [r3, #56]	; 0x38
  hspi->RxXferSize  = 0U;
 800486c:	68fb      	ldr	r3, [r7, #12]
 800486e:	2200      	movs	r2, #0
 8004870:	879a      	strh	r2, [r3, #60]	; 0x3c
  hspi->RxXferCount = 0U;
 8004872:	68fb      	ldr	r3, [r7, #12]
 8004874:	2200      	movs	r2, #0
 8004876:	87da      	strh	r2, [r3, #62]	; 0x3e
  hspi->TxISR       = NULL;
 8004878:	68fb      	ldr	r3, [r7, #12]
 800487a:	2200      	movs	r2, #0
 800487c:	645a      	str	r2, [r3, #68]	; 0x44
  hspi->RxISR       = NULL;
 800487e:	68fb      	ldr	r3, [r7, #12]
 8004880:	2200      	movs	r2, #0
 8004882:	641a      	str	r2, [r3, #64]	; 0x40

  /* Configure communication direction : 1Line */
  if (hspi->Init.Direction == SPI_DIRECTION_1LINE)
 8004884:	68fb      	ldr	r3, [r7, #12]
 8004886:	689b      	ldr	r3, [r3, #8]
 8004888:	f5b3 4f00 	cmp.w	r3, #32768	; 0x8000
 800488c:	d10f      	bne.n	80048ae <HAL_SPI_Transmit+0xc0>
  {
    /* Disable SPI Peripheral before set 1Line direction (BIDIOE bit) */
    __HAL_SPI_DISABLE(hspi);
 800488e:	68fb      	ldr	r3, [r7, #12]
 8004890:	681b      	ldr	r3, [r3, #0]
 8004892:	681a      	ldr	r2, [r3, #0]
 8004894:	68fb      	ldr	r3, [r7, #12]
 8004896:	681b      	ldr	r3, [r3, #0]
 8004898:	f022 0240 	bic.w	r2, r2, #64	; 0x40
 800489c:	601a      	str	r2, [r3, #0]
    SPI_1LINE_TX(hspi);
 800489e:	68fb      	ldr	r3, [r7, #12]
 80048a0:	681b      	ldr	r3, [r3, #0]
 80048a2:	681a      	ldr	r2, [r3, #0]
 80048a4:	68fb      	ldr	r3, [r7, #12]
 80048a6:	681b      	ldr	r3, [r3, #0]
 80048a8:	f442 4280 	orr.w	r2, r2, #16384	; 0x4000
 80048ac:	601a      	str	r2, [r3, #0]
    SPI_RESET_CRC(hspi);
  }
#endif /* USE_SPI_CRC */

  /* Check if the SPI is already enabled */
  if ((hspi->Instance->CR1 & SPI_CR1_SPE) != SPI_CR1_SPE)
 80048ae:	68fb      	ldr	r3, [r7, #12]
 80048b0:	681b      	ldr	r3, [r3, #0]
 80048b2:	681b      	ldr	r3, [r3, #0]
 80048b4:	f003 0340 	and.w	r3, r3, #64	; 0x40
 80048b8:	2b40      	cmp	r3, #64	; 0x40
 80048ba:	d007      	beq.n	80048cc <HAL_SPI_Transmit+0xde>
  {
    /* Enable SPI peripheral */
    __HAL_SPI_ENABLE(hspi);
 80048bc:	68fb      	ldr	r3, [r7, #12]
 80048be:	681b      	ldr	r3, [r3, #0]
 80048c0:	681a      	ldr	r2, [r3, #0]
 80048c2:	68fb      	ldr	r3, [r7, #12]
 80048c4:	681b      	ldr	r3, [r3, #0]
 80048c6:	f042 0240 	orr.w	r2, r2, #64	; 0x40
 80048ca:	601a      	str	r2, [r3, #0]
  }

  /* Transmit data in 16 Bit mode */
  if (hspi->Init.DataSize == SPI_DATASIZE_16BIT)
 80048cc:	68fb      	ldr	r3, [r7, #12]
 80048ce:	68db      	ldr	r3, [r3, #12]
 80048d0:	f5b3 6f00 	cmp.w	r3, #2048	; 0x800
 80048d4:	d14f      	bne.n	8004976 <HAL_SPI_Transmit+0x188>
  {
    if ((hspi->Init.Mode == SPI_MODE_SLAVE) || (initial_TxXferCount == 0x01U))
 80048d6:	68fb      	ldr	r3, [r7, #12]
 80048d8:	685b      	ldr	r3, [r3, #4]
 80048da:	2b00      	cmp	r3, #0
 80048dc:	d002      	beq.n	80048e4 <HAL_SPI_Transmit+0xf6>
 80048de:	8afb      	ldrh	r3, [r7, #22]
 80048e0:	2b01      	cmp	r3, #1
 80048e2:	d142      	bne.n	800496a <HAL_SPI_Transmit+0x17c>
    {
      hspi->Instance->DR = *((uint16_t *)hspi->pTxBuffPtr);
 80048e4:	68fb      	ldr	r3, [r7, #12]
 80048e6:	6b1b      	ldr	r3, [r3, #48]	; 0x30
 80048e8:	881a      	ldrh	r2, [r3, #0]
 80048ea:	68fb      	ldr	r3, [r7, #12]
 80048ec:	681b      	ldr	r3, [r3, #0]
 80048ee:	60da      	str	r2, [r3, #12]
      hspi->pTxBuffPtr += sizeof(uint16_t);
 80048f0:	68fb      	ldr	r3, [r7, #12]
 80048f2:	6b1b      	ldr	r3, [r3, #48]	; 0x30
 80048f4:	1c9a      	adds	r2, r3, #2
 80048f6:	68fb      	ldr	r3, [r7, #12]
 80048f8:	631a      	str	r2, [r3, #48]	; 0x30
      hspi->TxXferCount--;
 80048fa:	68fb      	ldr	r3, [r7, #12]
 80048fc:	8edb      	ldrh	r3, [r3, #54]	; 0x36
 80048fe:	b29b      	uxth	r3, r3
 8004900:	3b01      	subs	r3, #1
 8004902:	b29a      	uxth	r2, r3
 8004904:	68fb      	ldr	r3, [r7, #12]
 8004906:	86da      	strh	r2, [r3, #54]	; 0x36
    }
    /* Transmit data in 16 Bit mode */
    while (hspi->TxXferCount > 0U)
 8004908:	e02f      	b.n	800496a <HAL_SPI_Transmit+0x17c>
    {
      /* Wait until TXE flag is set to send data */
      if (__HAL_SPI_GET_FLAG(hspi, SPI_FLAG_TXE))
 800490a:	68fb      	ldr	r3, [r7, #12]
 800490c:	681b      	ldr	r3, [r3, #0]
 800490e:	689b      	ldr	r3, [r3, #8]
 8004910:	f003 0302 	and.w	r3, r3, #2
 8004914:	2b02      	cmp	r3, #2
 8004916:	d112      	bne.n	800493e <HAL_SPI_Transmit+0x150>
      {
        hspi->Instance->DR = *((uint16_t *)hspi->pTxBuffPtr);
 8004918:	68fb      	ldr	r3, [r7, #12]
 800491a:	6b1b      	ldr	r3, [r3, #48]	; 0x30
 800491c:	881a      	ldrh	r2, [r3, #0]
 800491e:	68fb      	ldr	r3, [r7, #12]
 8004920:	681b      	ldr	r3, [r3, #0]
 8004922:	60da      	str	r2, [r3, #12]
        hspi->pTxBuffPtr += sizeof(uint16_t);
 8004924:	68fb      	ldr	r3, [r7, #12]
 8004926:	6b1b      	ldr	r3, [r3, #48]	; 0x30
 8004928:	1c9a      	adds	r2, r3, #2
 800492a:	68fb      	ldr	r3, [r7, #12]
 800492c:	631a      	str	r2, [r3, #48]	; 0x30
        hspi->TxXferCount--;
 800492e:	68fb      	ldr	r3, [r7, #12]
 8004930:	8edb      	ldrh	r3, [r3, #54]	; 0x36
 8004932:	b29b      	uxth	r3, r3
 8004934:	3b01      	subs	r3, #1
 8004936:	b29a      	uxth	r2, r3
 8004938:	68fb      	ldr	r3, [r7, #12]
 800493a:	86da      	strh	r2, [r3, #54]	; 0x36
 800493c:	e015      	b.n	800496a <HAL_SPI_Transmit+0x17c>
      }
      else
      {
        /* Timeout management */
        if ((((HAL_GetTick() - tickstart) >=  Timeout) && (Timeout != HAL_MAX_DELAY)) || (Timeout == 0U))
 800493e:	f7fd f98b 	bl	8001c58 <HAL_GetTick>
 8004942:	4602      	mov	r2, r0
 8004944:	69bb      	ldr	r3, [r7, #24]
 8004946:	1ad3      	subs	r3, r2, r3
 8004948:	683a      	ldr	r2, [r7, #0]
 800494a:	429a      	cmp	r2, r3
 800494c:	d803      	bhi.n	8004956 <HAL_SPI_Transmit+0x168>
 800494e:	683b      	ldr	r3, [r7, #0]
 8004950:	f1b3 3fff 	cmp.w	r3, #4294967295	; 0xffffffff
 8004954:	d102      	bne.n	800495c <HAL_SPI_Transmit+0x16e>
 8004956:	683b      	ldr	r3, [r7, #0]
 8004958:	2b00      	cmp	r3, #0
 800495a:	d106      	bne.n	800496a <HAL_SPI_Transmit+0x17c>
        {
          errorcode = HAL_TIMEOUT;
 800495c:	2303      	movs	r3, #3
 800495e:	77fb      	strb	r3, [r7, #31]
          hspi->State = HAL_SPI_STATE_READY;
 8004960:	68fb      	ldr	r3, [r7, #12]
 8004962:	2201      	movs	r2, #1
 8004964:	f883 2051 	strb.w	r2, [r3, #81]	; 0x51
          goto error;
 8004968:	e07b      	b.n	8004a62 <HAL_SPI_Transmit+0x274>
    while (hspi->TxXferCount > 0U)
 800496a:	68fb      	ldr	r3, [r7, #12]
 800496c:	8edb      	ldrh	r3, [r3, #54]	; 0x36
 800496e:	b29b      	uxth	r3, r3
 8004970:	2b00      	cmp	r3, #0
 8004972:	d1ca      	bne.n	800490a <HAL_SPI_Transmit+0x11c>
 8004974:	e050      	b.n	8004a18 <HAL_SPI_Transmit+0x22a>
    }
  }
  /* Transmit data in 8 Bit mode */
  else
  {
    if ((hspi->Init.Mode == SPI_MODE_SLAVE) || (initial_TxXferCount == 0x01U))
 8004976:	68fb      	ldr	r3, [r7, #12]
 8004978:	685b      	ldr	r3, [r3, #4]
 800497a:	2b00      	cmp	r3, #0
 800497c:	d002      	beq.n	8004984 <HAL_SPI_Transmit+0x196>
 800497e:	8afb      	ldrh	r3, [r7, #22]
 8004980:	2b01      	cmp	r3, #1
 8004982:	d144      	bne.n	8004a0e <HAL_SPI_Transmit+0x220>
    {
      *((__IO uint8_t *)&hspi->Instance->DR) = (*hspi->pTxBuffPtr);
 8004984:	68fb      	ldr	r3, [r7, #12]
 8004986:	6b1a      	ldr	r2, [r3, #48]	; 0x30
 8004988:	68fb      	ldr	r3, [r7, #12]
 800498a:	681b      	ldr	r3, [r3, #0]
 800498c:	330c      	adds	r3, #12
 800498e:	7812      	ldrb	r2, [r2, #0]
 8004990:	701a      	strb	r2, [r3, #0]
      hspi->pTxBuffPtr += sizeof(uint8_t);
 8004992:	68fb      	ldr	r3, [r7, #12]
 8004994:	6b1b      	ldr	r3, [r3, #48]	; 0x30
 8004996:	1c5a      	adds	r2, r3, #1
 8004998:	68fb      	ldr	r3, [r7, #12]
 800499a:	631a      	str	r2, [r3, #48]	; 0x30
      hspi->TxXferCount--;
 800499c:	68fb      	ldr	r3, [r7, #12]
 800499e:	8edb      	ldrh	r3, [r3, #54]	; 0x36
 80049a0:	b29b      	uxth	r3, r3
 80049a2:	3b01      	subs	r3, #1
 80049a4:	b29a      	uxth	r2, r3
 80049a6:	68fb      	ldr	r3, [r7, #12]
 80049a8:	86da      	strh	r2, [r3, #54]	; 0x36
    }
    while (hspi->TxXferCount > 0U)
 80049aa:	e030      	b.n	8004a0e <HAL_SPI_Transmit+0x220>
    {
      /* Wait until TXE flag is set to send data */
      if (__HAL_SPI_GET_FLAG(hspi, SPI_FLAG_TXE))
 80049ac:	68fb      	ldr	r3, [r7, #12]
 80049ae:	681b      	ldr	r3, [r3, #0]
 80049b0:	689b      	ldr	r3, [r3, #8]
 80049b2:	f003 0302 	and.w	r3, r3, #2
 80049b6:	2b02      	cmp	r3, #2
 80049b8:	d113      	bne.n	80049e2 <HAL_SPI_Transmit+0x1f4>
      {
        *((__IO uint8_t *)&hspi->Instance->DR) = (*hspi->pTxBuffPtr);
 80049ba:	68fb      	ldr	r3, [r7, #12]
 80049bc:	6b1a      	ldr	r2, [r3, #48]	; 0x30
 80049be:	68fb      	ldr	r3, [r7, #12]
 80049c0:	681b      	ldr	r3, [r3, #0]
 80049c2:	330c      	adds	r3, #12
 80049c4:	7812      	ldrb	r2, [r2, #0]
 80049c6:	701a      	strb	r2, [r3, #0]
        hspi->pTxBuffPtr += sizeof(uint8_t);
 80049c8:	68fb      	ldr	r3, [r7, #12]
 80049ca:	6b1b      	ldr	r3, [r3, #48]	; 0x30
 80049cc:	1c5a      	adds	r2, r3, #1
 80049ce:	68fb      	ldr	r3, [r7, #12]
 80049d0:	631a      	str	r2, [r3, #48]	; 0x30
        hspi->TxXferCount--;
 80049d2:	68fb      	ldr	r3, [r7, #12]
 80049d4:	8edb      	ldrh	r3, [r3, #54]	; 0x36
 80049d6:	b29b      	uxth	r3, r3
 80049d8:	3b01      	subs	r3, #1
 80049da:	b29a      	uxth	r2, r3
 80049dc:	68fb      	ldr	r3, [r7, #12]
 80049de:	86da      	strh	r2, [r3, #54]	; 0x36
 80049e0:	e015      	b.n	8004a0e <HAL_SPI_Transmit+0x220>
      }
      else
      {
        /* Timeout management */
        if ((((HAL_GetTick() - tickstart) >=  Timeout) && (Timeout != HAL_MAX_DELAY)) || (Timeout == 0U))
 80049e2:	f7fd f939 	bl	8001c58 <HAL_GetTick>
 80049e6:	4602      	mov	r2, r0
 80049e8:	69bb      	ldr	r3, [r7, #24]
 80049ea:	1ad3      	subs	r3, r2, r3
 80049ec:	683a      	ldr	r2, [r7, #0]
 80049ee:	429a      	cmp	r2, r3
 80049f0:	d803      	bhi.n	80049fa <HAL_SPI_Transmit+0x20c>
 80049f2:	683b      	ldr	r3, [r7, #0]
 80049f4:	f1b3 3fff 	cmp.w	r3, #4294967295	; 0xffffffff
 80049f8:	d102      	bne.n	8004a00 <HAL_SPI_Transmit+0x212>
 80049fa:	683b      	ldr	r3, [r7, #0]
 80049fc:	2b00      	cmp	r3, #0
 80049fe:	d106      	bne.n	8004a0e <HAL_SPI_Transmit+0x220>
        {
          errorcode = HAL_TIMEOUT;
 8004a00:	2303      	movs	r3, #3
 8004a02:	77fb      	strb	r3, [r7, #31]
          hspi->State = HAL_SPI_STATE_READY;
 8004a04:	68fb      	ldr	r3, [r7, #12]
 8004a06:	2201      	movs	r2, #1
 8004a08:	f883 2051 	strb.w	r2, [r3, #81]	; 0x51
          goto error;
 8004a0c:	e029      	b.n	8004a62 <HAL_SPI_Transmit+0x274>
    while (hspi->TxXferCount > 0U)
 8004a0e:	68fb      	ldr	r3, [r7, #12]
 8004a10:	8edb      	ldrh	r3, [r3, #54]	; 0x36
 8004a12:	b29b      	uxth	r3, r3
 8004a14:	2b00      	cmp	r3, #0
 8004a16:	d1c9      	bne.n	80049ac <HAL_SPI_Transmit+0x1be>
    SET_BIT(hspi->Instance->CR1, SPI_CR1_CRCNEXT);
  }
#endif /* USE_SPI_CRC */

  /* Check the end of the transaction */
  if (SPI_EndRxTxTransaction(hspi, Timeout, tickstart) != HAL_OK)
 8004a18:	69ba      	ldr	r2, [r7, #24]
 8004a1a:	6839      	ldr	r1, [r7, #0]
 8004a1c:	68f8      	ldr	r0, [r7, #12]
 8004a1e:	f000 fbdf 	bl	80051e0 <SPI_EndRxTxTransaction>
 8004a22:	4603      	mov	r3, r0
 8004a24:	2b00      	cmp	r3, #0
 8004a26:	d002      	beq.n	8004a2e <HAL_SPI_Transmit+0x240>
  {
    hspi->ErrorCode = HAL_SPI_ERROR_FLAG;
 8004a28:	68fb      	ldr	r3, [r7, #12]
 8004a2a:	2220      	movs	r2, #32
 8004a2c:	655a      	str	r2, [r3, #84]	; 0x54
  }

  /* Clear overrun flag in 2 Lines communication mode because received is not read */
  if (hspi->Init.Direction == SPI_DIRECTION_2LINES)
 8004a2e:	68fb      	ldr	r3, [r7, #12]
 8004a30:	689b      	ldr	r3, [r3, #8]
 8004a32:	2b00      	cmp	r3, #0
 8004a34:	d10a      	bne.n	8004a4c <HAL_SPI_Transmit+0x25e>
  {
    __HAL_SPI_CLEAR_OVRFLAG(hspi);
 8004a36:	2300      	movs	r3, #0
 8004a38:	613b      	str	r3, [r7, #16]
 8004a3a:	68fb      	ldr	r3, [r7, #12]
 8004a3c:	681b      	ldr	r3, [r3, #0]
 8004a3e:	68db      	ldr	r3, [r3, #12]
 8004a40:	613b      	str	r3, [r7, #16]
 8004a42:	68fb      	ldr	r3, [r7, #12]
 8004a44:	681b      	ldr	r3, [r3, #0]
 8004a46:	689b      	ldr	r3, [r3, #8]
 8004a48:	613b      	str	r3, [r7, #16]
 8004a4a:	693b      	ldr	r3, [r7, #16]
  }

  if (hspi->ErrorCode != HAL_SPI_ERROR_NONE)
 8004a4c:	68fb      	ldr	r3, [r7, #12]
 8004a4e:	6d5b      	ldr	r3, [r3, #84]	; 0x54
 8004a50:	2b00      	cmp	r3, #0
 8004a52:	d002      	beq.n	8004a5a <HAL_SPI_Transmit+0x26c>
  {
    errorcode = HAL_ERROR;
 8004a54:	2301      	movs	r3, #1
 8004a56:	77fb      	strb	r3, [r7, #31]
 8004a58:	e003      	b.n	8004a62 <HAL_SPI_Transmit+0x274>
  }
  else
  {
    hspi->State = HAL_SPI_STATE_READY;
 8004a5a:	68fb      	ldr	r3, [r7, #12]
 8004a5c:	2201      	movs	r2, #1
 8004a5e:	f883 2051 	strb.w	r2, [r3, #81]	; 0x51
  }

error:
  /* Process Unlocked */
  __HAL_UNLOCK(hspi);
 8004a62:	68fb      	ldr	r3, [r7, #12]
 8004a64:	2200      	movs	r2, #0
 8004a66:	f883 2050 	strb.w	r2, [r3, #80]	; 0x50
  return errorcode;
 8004a6a:	7ffb      	ldrb	r3, [r7, #31]
}
 8004a6c:	4618      	mov	r0, r3
 8004a6e:	3720      	adds	r7, #32
 8004a70:	46bd      	mov	sp, r7
 8004a72:	bd80      	pop	{r7, pc}

08004a74 <HAL_SPI_Receive>:
  * @param  Size amount of data to be received
  * @param  Timeout Timeout duration
  * @retval HAL status
  */
HAL_StatusTypeDef HAL_SPI_Receive(SPI_HandleTypeDef *hspi, uint8_t *pData, uint16_t Size, uint32_t Timeout)
{
 8004a74:	b580      	push	{r7, lr}
 8004a76:	b088      	sub	sp, #32
 8004a78:	af02      	add	r7, sp, #8
 8004a7a:	60f8      	str	r0, [r7, #12]
 8004a7c:	60b9      	str	r1, [r7, #8]
 8004a7e:	603b      	str	r3, [r7, #0]
 8004a80:	4613      	mov	r3, r2
 8004a82:	80fb      	strh	r3, [r7, #6]
#if (USE_SPI_CRC != 0U)
  __IO uint32_t tmpreg = 0U;
#endif /* USE_SPI_CRC */
  uint32_t tickstart;
  HAL_StatusTypeDef errorcode = HAL_OK;
 8004a84:	2300      	movs	r3, #0
 8004a86:	75fb      	strb	r3, [r7, #23]

  if (hspi->State != HAL_SPI_STATE_READY)
 8004a88:	68fb      	ldr	r3, [r7, #12]
 8004a8a:	f893 3051 	ldrb.w	r3, [r3, #81]	; 0x51
 8004a8e:	b2db      	uxtb	r3, r3
 8004a90:	2b01      	cmp	r3, #1
 8004a92:	d002      	beq.n	8004a9a <HAL_SPI_Receive+0x26>
  {
    errorcode = HAL_BUSY;
 8004a94:	2302      	movs	r3, #2
 8004a96:	75fb      	strb	r3, [r7, #23]
    goto error;
 8004a98:	e0fb      	b.n	8004c92 <HAL_SPI_Receive+0x21e>
  }

  if ((hspi->Init.Mode == SPI_MODE_MASTER) && (hspi->Init.Direction == SPI_DIRECTION_2LINES))
 8004a9a:	68fb      	ldr	r3, [r7, #12]
 8004a9c:	685b      	ldr	r3, [r3, #4]
 8004a9e:	f5b3 7f82 	cmp.w	r3, #260	; 0x104
 8004aa2:	d112      	bne.n	8004aca <HAL_SPI_Receive+0x56>
 8004aa4:	68fb      	ldr	r3, [r7, #12]
 8004aa6:	689b      	ldr	r3, [r3, #8]
 8004aa8:	2b00      	cmp	r3, #0
 8004aaa:	d10e      	bne.n	8004aca <HAL_SPI_Receive+0x56>
  {
    hspi->State = HAL_SPI_STATE_BUSY_RX;
 8004aac:	68fb      	ldr	r3, [r7, #12]
 8004aae:	2204      	movs	r2, #4
 8004ab0:	f883 2051 	strb.w	r2, [r3, #81]	; 0x51
    /* Call transmit-receive function to send Dummy data on Tx line and generate clock on CLK line */
    return HAL_SPI_TransmitReceive(hspi, pData, pData, Size, Timeout);
 8004ab4:	88fa      	ldrh	r2, [r7, #6]
 8004ab6:	683b      	ldr	r3, [r7, #0]
 8004ab8:	9300      	str	r3, [sp, #0]
 8004aba:	4613      	mov	r3, r2
 8004abc:	68ba      	ldr	r2, [r7, #8]
 8004abe:	68b9      	ldr	r1, [r7, #8]
 8004ac0:	68f8      	ldr	r0, [r7, #12]
 8004ac2:	f000 f8ef 	bl	8004ca4 <HAL_SPI_TransmitReceive>
 8004ac6:	4603      	mov	r3, r0
 8004ac8:	e0e8      	b.n	8004c9c <HAL_SPI_Receive+0x228>
  }

  /* Process Locked */
  __HAL_LOCK(hspi);
 8004aca:	68fb      	ldr	r3, [r7, #12]
 8004acc:	f893 3050 	ldrb.w	r3, [r3, #80]	; 0x50
 8004ad0:	2b01      	cmp	r3, #1
 8004ad2:	d101      	bne.n	8004ad8 <HAL_SPI_Receive+0x64>
 8004ad4:	2302      	movs	r3, #2
 8004ad6:	e0e1      	b.n	8004c9c <HAL_SPI_Receive+0x228>
 8004ad8:	68fb      	ldr	r3, [r7, #12]
 8004ada:	2201      	movs	r2, #1
 8004adc:	f883 2050 	strb.w	r2, [r3, #80]	; 0x50

  /* Init tickstart for timeout management*/
  tickstart = HAL_GetTick();
 8004ae0:	f7fd f8ba 	bl	8001c58 <HAL_GetTick>
 8004ae4:	6138      	str	r0, [r7, #16]

  if ((pData == NULL) || (Size == 0U))
 8004ae6:	68bb      	ldr	r3, [r7, #8]
 8004ae8:	2b00      	cmp	r3, #0
 8004aea:	d002      	beq.n	8004af2 <HAL_SPI_Receive+0x7e>
 8004aec:	88fb      	ldrh	r3, [r7, #6]
 8004aee:	2b00      	cmp	r3, #0
 8004af0:	d102      	bne.n	8004af8 <HAL_SPI_Receive+0x84>
  {
    errorcode = HAL_ERROR;
 8004af2:	2301      	movs	r3, #1
 8004af4:	75fb      	strb	r3, [r7, #23]
    goto error;
 8004af6:	e0cc      	b.n	8004c92 <HAL_SPI_Receive+0x21e>
  }

  /* Set the transaction information */
  hspi->State       = HAL_SPI_STATE_BUSY_RX;
 8004af8:	68fb      	ldr	r3, [r7, #12]
 8004afa:	2204      	movs	r2, #4
 8004afc:	f883 2051 	strb.w	r2, [r3, #81]	; 0x51
  hspi->ErrorCode   = HAL_SPI_ERROR_NONE;
 8004b00:	68fb      	ldr	r3, [r7, #12]
 8004b02:	2200      	movs	r2, #0
 8004b04:	655a      	str	r2, [r3, #84]	; 0x54
  hspi->pRxBuffPtr  = (uint8_t *)pData;
 8004b06:	68fb      	ldr	r3, [r7, #12]
 8004b08:	68ba      	ldr	r2, [r7, #8]
 8004b0a:	639a      	str	r2, [r3, #56]	; 0x38
  hspi->RxXferSize  = Size;
 8004b0c:	68fb      	ldr	r3, [r7, #12]
 8004b0e:	88fa      	ldrh	r2, [r7, #6]
 8004b10:	879a      	strh	r2, [r3, #60]	; 0x3c
  hspi->RxXferCount = Size;
 8004b12:	68fb      	ldr	r3, [r7, #12]
 8004b14:	88fa      	ldrh	r2, [r7, #6]
 8004b16:	87da      	strh	r2, [r3, #62]	; 0x3e

  /*Init field not used in handle to zero */
  hspi->pTxBuffPtr  = (uint8_t *)NULL;
 8004b18:	68fb      	ldr	r3, [r7, #12]
 8004b1a:	2200      	movs	r2, #0
 8004b1c:	631a      	str	r2, [r3, #48]	; 0x30
  hspi->TxXferSize  = 0U;
 8004b1e:	68fb      	ldr	r3, [r7, #12]
 8004b20:	2200      	movs	r2, #0
 8004b22:	869a      	strh	r2, [r3, #52]	; 0x34
  hspi->TxXferCount = 0U;
 8004b24:	68fb      	ldr	r3, [r7, #12]
 8004b26:	2200      	movs	r2, #0
 8004b28:	86da      	strh	r2, [r3, #54]	; 0x36
  hspi->RxISR       = NULL;
 8004b2a:	68fb      	ldr	r3, [r7, #12]
 8004b2c:	2200      	movs	r2, #0
 8004b2e:	641a      	str	r2, [r3, #64]	; 0x40
  hspi->TxISR       = NULL;
 8004b30:	68fb      	ldr	r3, [r7, #12]
 8004b32:	2200      	movs	r2, #0
 8004b34:	645a      	str	r2, [r3, #68]	; 0x44
    hspi->RxXferCount--;
  }
#endif /* USE_SPI_CRC */

  /* Configure communication direction: 1Line */
  if (hspi->Init.Direction == SPI_DIRECTION_1LINE)
 8004b36:	68fb      	ldr	r3, [r7, #12]
 8004b38:	689b      	ldr	r3, [r3, #8]
 8004b3a:	f5b3 4f00 	cmp.w	r3, #32768	; 0x8000
 8004b3e:	d10f      	bne.n	8004b60 <HAL_SPI_Receive+0xec>
  {
    /* Disable SPI Peripheral before set 1Line direction (BIDIOE bit) */
    __HAL_SPI_DISABLE(hspi);
 8004b40:	68fb      	ldr	r3, [r7, #12]
 8004b42:	681b      	ldr	r3, [r3, #0]
 8004b44:	681a      	ldr	r2, [r3, #0]
 8004b46:	68fb      	ldr	r3, [r7, #12]
 8004b48:	681b      	ldr	r3, [r3, #0]
 8004b4a:	f022 0240 	bic.w	r2, r2, #64	; 0x40
 8004b4e:	601a      	str	r2, [r3, #0]
    SPI_1LINE_RX(hspi);
 8004b50:	68fb      	ldr	r3, [r7, #12]
 8004b52:	681b      	ldr	r3, [r3, #0]
 8004b54:	681a      	ldr	r2, [r3, #0]
 8004b56:	68fb      	ldr	r3, [r7, #12]
 8004b58:	681b      	ldr	r3, [r3, #0]
 8004b5a:	f422 4280 	bic.w	r2, r2, #16384	; 0x4000
 8004b5e:	601a      	str	r2, [r3, #0]
  }

  /* Check if the SPI is already enabled */
  if ((hspi->Instance->CR1 & SPI_CR1_SPE) != SPI_CR1_SPE)
 8004b60:	68fb      	ldr	r3, [r7, #12]
 8004b62:	681b      	ldr	r3, [r3, #0]
 8004b64:	681b      	ldr	r3, [r3, #0]
 8004b66:	f003 0340 	and.w	r3, r3, #64	; 0x40
 8004b6a:	2b40      	cmp	r3, #64	; 0x40
 8004b6c:	d007      	beq.n	8004b7e <HAL_SPI_Receive+0x10a>
  {
    /* Enable SPI peripheral */
    __HAL_SPI_ENABLE(hspi);
 8004b6e:	68fb      	ldr	r3, [r7, #12]
 8004b70:	681b      	ldr	r3, [r3, #0]
 8004b72:	681a      	ldr	r2, [r3, #0]
 8004b74:	68fb      	ldr	r3, [r7, #12]
 8004b76:	681b      	ldr	r3, [r3, #0]
 8004b78:	f042 0240 	orr.w	r2, r2, #64	; 0x40
 8004b7c:	601a      	str	r2, [r3, #0]
  }

  /* Receive data in 8 Bit mode */
  if (hspi->Init.DataSize == SPI_DATASIZE_8BIT)
 8004b7e:	68fb      	ldr	r3, [r7, #12]
 8004b80:	68db      	ldr	r3, [r3, #12]
 8004b82:	2b00      	cmp	r3, #0
 8004b84:	d16a      	bne.n	8004c5c <HAL_SPI_Receive+0x1e8>
  {
    /* Transfer loop */
    while (hspi->RxXferCount > 0U)
 8004b86:	e032      	b.n	8004bee <HAL_SPI_Receive+0x17a>
    {
      /* Check the RXNE flag */
      if (__HAL_SPI_GET_FLAG(hspi, SPI_FLAG_RXNE))
 8004b88:	68fb      	ldr	r3, [r7, #12]
 8004b8a:	681b      	ldr	r3, [r3, #0]
 8004b8c:	689b      	ldr	r3, [r3, #8]
 8004b8e:	f003 0301 	and.w	r3, r3, #1
 8004b92:	2b01      	cmp	r3, #1
 8004b94:	d115      	bne.n	8004bc2 <HAL_SPI_Receive+0x14e>
      {
        /* read the received data */
        (* (uint8_t *)hspi->pRxBuffPtr) = *(__IO uint8_t *)&hspi->Instance->DR;
 8004b96:	68fb      	ldr	r3, [r7, #12]
 8004b98:	681b      	ldr	r3, [r3, #0]
 8004b9a:	f103 020c 	add.w	r2, r3, #12
 8004b9e:	68fb      	ldr	r3, [r7, #12]
 8004ba0:	6b9b      	ldr	r3, [r3, #56]	; 0x38
 8004ba2:	7812      	ldrb	r2, [r2, #0]
 8004ba4:	b2d2      	uxtb	r2, r2
 8004ba6:	701a      	strb	r2, [r3, #0]
        hspi->pRxBuffPtr += sizeof(uint8_t);
 8004ba8:	68fb      	ldr	r3, [r7, #12]
 8004baa:	6b9b      	ldr	r3, [r3, #56]	; 0x38
 8004bac:	1c5a      	adds	r2, r3, #1
 8004bae:	68fb      	ldr	r3, [r7, #12]
 8004bb0:	639a      	str	r2, [r3, #56]	; 0x38
        hspi->RxXferCount--;
 8004bb2:	68fb      	ldr	r3, [r7, #12]
 8004bb4:	8fdb      	ldrh	r3, [r3, #62]	; 0x3e
 8004bb6:	b29b      	uxth	r3, r3
 8004bb8:	3b01      	subs	r3, #1
 8004bba:	b29a      	uxth	r2, r3
 8004bbc:	68fb      	ldr	r3, [r7, #12]
 8004bbe:	87da      	strh	r2, [r3, #62]	; 0x3e
 8004bc0:	e015      	b.n	8004bee <HAL_SPI_Receive+0x17a>
      }
      else
      {
        /* Timeout management */
        if ((((HAL_GetTick() - tickstart) >=  Timeout) && (Timeout != HAL_MAX_DELAY)) || (Timeout == 0U))
 8004bc2:	f7fd f849 	bl	8001c58 <HAL_GetTick>
 8004bc6:	4602      	mov	r2, r0
 8004bc8:	693b      	ldr	r3, [r7, #16]
 8004bca:	1ad3      	subs	r3, r2, r3
 8004bcc:	683a      	ldr	r2, [r7, #0]
 8004bce:	429a      	cmp	r2, r3
 8004bd0:	d803      	bhi.n	8004bda <HAL_SPI_Receive+0x166>
 8004bd2:	683b      	ldr	r3, [r7, #0]
 8004bd4:	f1b3 3fff 	cmp.w	r3, #4294967295	; 0xffffffff
 8004bd8:	d102      	bne.n	8004be0 <HAL_SPI_Receive+0x16c>
 8004bda:	683b      	ldr	r3, [r7, #0]
 8004bdc:	2b00      	cmp	r3, #0
 8004bde:	d106      	bne.n	8004bee <HAL_SPI_Receive+0x17a>
        {
          errorcode = HAL_TIMEOUT;
 8004be0:	2303      	movs	r3, #3
 8004be2:	75fb      	strb	r3, [r7, #23]
          hspi->State = HAL_SPI_STATE_READY;
 8004be4:	68fb      	ldr	r3, [r7, #12]
 8004be6:	2201      	movs	r2, #1
 8004be8:	f883 2051 	strb.w	r2, [r3, #81]	; 0x51
          goto error;
 8004bec:	e051      	b.n	8004c92 <HAL_SPI_Receive+0x21e>
    while (hspi->RxXferCount > 0U)
 8004bee:	68fb      	ldr	r3, [r7, #12]
 8004bf0:	8fdb      	ldrh	r3, [r3, #62]	; 0x3e
 8004bf2:	b29b      	uxth	r3, r3
 8004bf4:	2b00      	cmp	r3, #0
 8004bf6:	d1c7      	bne.n	8004b88 <HAL_SPI_Receive+0x114>
 8004bf8:	e035      	b.n	8004c66 <HAL_SPI_Receive+0x1f2>
  {
    /* Transfer loop */
    while (hspi->RxXferCount > 0U)
    {
      /* Check the RXNE flag */
      if (__HAL_SPI_GET_FLAG(hspi, SPI_FLAG_RXNE))
 8004bfa:	68fb      	ldr	r3, [r7, #12]
 8004bfc:	681b      	ldr	r3, [r3, #0]
 8004bfe:	689b      	ldr	r3, [r3, #8]
 8004c00:	f003 0301 	and.w	r3, r3, #1
 8004c04:	2b01      	cmp	r3, #1
 8004c06:	d113      	bne.n	8004c30 <HAL_SPI_Receive+0x1bc>
      {
        *((uint16_t *)hspi->pRxBuffPtr) = (uint16_t)hspi->Instance->DR;
 8004c08:	68fb      	ldr	r3, [r7, #12]
 8004c0a:	681b      	ldr	r3, [r3, #0]
 8004c0c:	68da      	ldr	r2, [r3, #12]
 8004c0e:	68fb      	ldr	r3, [r7, #12]
 8004c10:	6b9b      	ldr	r3, [r3, #56]	; 0x38
 8004c12:	b292      	uxth	r2, r2
 8004c14:	801a      	strh	r2, [r3, #0]
        hspi->pRxBuffPtr += sizeof(uint16_t);
 8004c16:	68fb      	ldr	r3, [r7, #12]
 8004c18:	6b9b      	ldr	r3, [r3, #56]	; 0x38
 8004c1a:	1c9a      	adds	r2, r3, #2
 8004c1c:	68fb      	ldr	r3, [r7, #12]
 8004c1e:	639a      	str	r2, [r3, #56]	; 0x38
        hspi->RxXferCount--;
 8004c20:	68fb      	ldr	r3, [r7, #12]
 8004c22:	8fdb      	ldrh	r3, [r3, #62]	; 0x3e
 8004c24:	b29b      	uxth	r3, r3
 8004c26:	3b01      	subs	r3, #1
 8004c28:	b29a      	uxth	r2, r3
 8004c2a:	68fb      	ldr	r3, [r7, #12]
 8004c2c:	87da      	strh	r2, [r3, #62]	; 0x3e
 8004c2e:	e015      	b.n	8004c5c <HAL_SPI_Receive+0x1e8>
      }
      else
      {
        /* Timeout management */
        if ((((HAL_GetTick() - tickstart) >=  Timeout) && (Timeout != HAL_MAX_DELAY)) || (Timeout == 0U))
 8004c30:	f7fd f812 	bl	8001c58 <HAL_GetTick>
 8004c34:	4602      	mov	r2, r0
 8004c36:	693b      	ldr	r3, [r7, #16]
 8004c38:	1ad3      	subs	r3, r2, r3
 8004c3a:	683a      	ldr	r2, [r7, #0]
 8004c3c:	429a      	cmp	r2, r3
 8004c3e:	d803      	bhi.n	8004c48 <HAL_SPI_Receive+0x1d4>
 8004c40:	683b      	ldr	r3, [r7, #0]
 8004c42:	f1b3 3fff 	cmp.w	r3, #4294967295	; 0xffffffff
 8004c46:	d102      	bne.n	8004c4e <HAL_SPI_Receive+0x1da>
 8004c48:	683b      	ldr	r3, [r7, #0]
 8004c4a:	2b00      	cmp	r3, #0
 8004c4c:	d106      	bne.n	8004c5c <HAL_SPI_Receive+0x1e8>
        {
          errorcode = HAL_TIMEOUT;
 8004c4e:	2303      	movs	r3, #3
 8004c50:	75fb      	strb	r3, [r7, #23]
          hspi->State = HAL_SPI_STATE_READY;
 8004c52:	68fb      	ldr	r3, [r7, #12]
 8004c54:	2201      	movs	r2, #1
 8004c56:	f883 2051 	strb.w	r2, [r3, #81]	; 0x51
          goto error;
 8004c5a:	e01a      	b.n	8004c92 <HAL_SPI_Receive+0x21e>
    while (hspi->RxXferCount > 0U)
 8004c5c:	68fb      	ldr	r3, [r7, #12]
 8004c5e:	8fdb      	ldrh	r3, [r3, #62]	; 0x3e
 8004c60:	b29b      	uxth	r3, r3
 8004c62:	2b00      	cmp	r3, #0
 8004c64:	d1c9      	bne.n	8004bfa <HAL_SPI_Receive+0x186>
    UNUSED(tmpreg);
  }
#endif /* USE_SPI_CRC */

  /* Check the end of the transaction */
  if (SPI_EndRxTransaction(hspi, Timeout, tickstart) != HAL_OK)
 8004c66:	693a      	ldr	r2, [r7, #16]
 8004c68:	6839      	ldr	r1, [r7, #0]
 8004c6a:	68f8      	ldr	r0, [r7, #12]
 8004c6c:	f000 fa52 	bl	8005114 <SPI_EndRxTransaction>
 8004c70:	4603      	mov	r3, r0
 8004c72:	2b00      	cmp	r3, #0
 8004c74:	d002      	beq.n	8004c7c <HAL_SPI_Receive+0x208>
  {
    hspi->ErrorCode = HAL_SPI_ERROR_FLAG;
 8004c76:	68fb      	ldr	r3, [r7, #12]
 8004c78:	2220      	movs	r2, #32
 8004c7a:	655a      	str	r2, [r3, #84]	; 0x54
    SET_BIT(hspi->ErrorCode, HAL_SPI_ERROR_CRC);
    __HAL_SPI_CLEAR_CRCERRFLAG(hspi);
  }
#endif /* USE_SPI_CRC */

  if (hspi->ErrorCode != HAL_SPI_ERROR_NONE)
 8004c7c:	68fb      	ldr	r3, [r7, #12]
 8004c7e:	6d5b      	ldr	r3, [r3, #84]	; 0x54
 8004c80:	2b00      	cmp	r3, #0
 8004c82:	d002      	beq.n	8004c8a <HAL_SPI_Receive+0x216>
  {
    errorcode = HAL_ERROR;
 8004c84:	2301      	movs	r3, #1
 8004c86:	75fb      	strb	r3, [r7, #23]
 8004c88:	e003      	b.n	8004c92 <HAL_SPI_Receive+0x21e>
  }
  else
  {
    hspi->State = HAL_SPI_STATE_READY;
 8004c8a:	68fb      	ldr	r3, [r7, #12]
 8004c8c:	2201      	movs	r2, #1
 8004c8e:	f883 2051 	strb.w	r2, [r3, #81]	; 0x51
  }

error :
  __HAL_UNLOCK(hspi);
 8004c92:	68fb      	ldr	r3, [r7, #12]
 8004c94:	2200      	movs	r2, #0
 8004c96:	f883 2050 	strb.w	r2, [r3, #80]	; 0x50
  return errorcode;
 8004c9a:	7dfb      	ldrb	r3, [r7, #23]
}
 8004c9c:	4618      	mov	r0, r3
 8004c9e:	3718      	adds	r7, #24
 8004ca0:	46bd      	mov	sp, r7
 8004ca2:	bd80      	pop	{r7, pc}

08004ca4 <HAL_SPI_TransmitReceive>:
  * @param  Timeout Timeout duration
  * @retval HAL status
  */
HAL_StatusTypeDef HAL_SPI_TransmitReceive(SPI_HandleTypeDef *hspi, uint8_t *pTxData, uint8_t *pRxData, uint16_t Size,
                                          uint32_t Timeout)
{
 8004ca4:	b580      	push	{r7, lr}
 8004ca6:	b08c      	sub	sp, #48	; 0x30
 8004ca8:	af00      	add	r7, sp, #0
 8004caa:	60f8      	str	r0, [r7, #12]
 8004cac:	60b9      	str	r1, [r7, #8]
 8004cae:	607a      	str	r2, [r7, #4]
 8004cb0:	807b      	strh	r3, [r7, #2]
#if (USE_SPI_CRC != 0U)
  __IO uint32_t tmpreg = 0U;
#endif /* USE_SPI_CRC */

  /* Variable used to alternate Rx and Tx during transfer */
  uint32_t             txallowed = 1U;
 8004cb2:	2301      	movs	r3, #1
 8004cb4:	62fb      	str	r3, [r7, #44]	; 0x2c
  HAL_StatusTypeDef    errorcode = HAL_OK;
 8004cb6:	2300      	movs	r3, #0
 8004cb8:	f887 302b 	strb.w	r3, [r7, #43]	; 0x2b

  /* Check Direction parameter */
  assert_param(IS_SPI_DIRECTION_2LINES(hspi->Init.Direction));

  /* Process Locked */
  __HAL_LOCK(hspi);
 8004cbc:	68fb      	ldr	r3, [r7, #12]
 8004cbe:	f893 3050 	ldrb.w	r3, [r3, #80]	; 0x50
 8004cc2:	2b01      	cmp	r3, #1
 8004cc4:	d101      	bne.n	8004cca <HAL_SPI_TransmitReceive+0x26>
 8004cc6:	2302      	movs	r3, #2
 8004cc8:	e198      	b.n	8004ffc <HAL_SPI_TransmitReceive+0x358>
 8004cca:	68fb      	ldr	r3, [r7, #12]
 8004ccc:	2201      	movs	r2, #1
 8004cce:	f883 2050 	strb.w	r2, [r3, #80]	; 0x50

  /* Init tickstart for timeout management*/
  tickstart = HAL_GetTick();
 8004cd2:	f7fc ffc1 	bl	8001c58 <HAL_GetTick>
 8004cd6:	6278      	str	r0, [r7, #36]	; 0x24

  /* Init temporary variables */
  tmp_state           = hspi->State;
 8004cd8:	68fb      	ldr	r3, [r7, #12]
 8004cda:	f893 3051 	ldrb.w	r3, [r3, #81]	; 0x51
 8004cde:	f887 3023 	strb.w	r3, [r7, #35]	; 0x23
  tmp_mode            = hspi->Init.Mode;
 8004ce2:	68fb      	ldr	r3, [r7, #12]
 8004ce4:	685b      	ldr	r3, [r3, #4]
 8004ce6:	61fb      	str	r3, [r7, #28]
  initial_TxXferCount = Size;
 8004ce8:	887b      	ldrh	r3, [r7, #2]
 8004cea:	837b      	strh	r3, [r7, #26]

  if (!((tmp_state == HAL_SPI_STATE_READY) || \
 8004cec:	f897 3023 	ldrb.w	r3, [r7, #35]	; 0x23
 8004cf0:	2b01      	cmp	r3, #1
 8004cf2:	d00f      	beq.n	8004d14 <HAL_SPI_TransmitReceive+0x70>
 8004cf4:	69fb      	ldr	r3, [r7, #28]
 8004cf6:	f5b3 7f82 	cmp.w	r3, #260	; 0x104
 8004cfa:	d107      	bne.n	8004d0c <HAL_SPI_TransmitReceive+0x68>
        ((tmp_mode == SPI_MODE_MASTER) && (hspi->Init.Direction == SPI_DIRECTION_2LINES) && (tmp_state == HAL_SPI_STATE_BUSY_RX))))
 8004cfc:	68fb      	ldr	r3, [r7, #12]
 8004cfe:	689b      	ldr	r3, [r3, #8]
 8004d00:	2b00      	cmp	r3, #0
 8004d02:	d103      	bne.n	8004d0c <HAL_SPI_TransmitReceive+0x68>
 8004d04:	f897 3023 	ldrb.w	r3, [r7, #35]	; 0x23
 8004d08:	2b04      	cmp	r3, #4
 8004d0a:	d003      	beq.n	8004d14 <HAL_SPI_TransmitReceive+0x70>
  {
    errorcode = HAL_BUSY;
 8004d0c:	2302      	movs	r3, #2
 8004d0e:	f887 302b 	strb.w	r3, [r7, #43]	; 0x2b
    goto error;
 8004d12:	e16d      	b.n	8004ff0 <HAL_SPI_TransmitReceive+0x34c>
  }

  if ((pTxData == NULL) || (pRxData == NULL) || (Size == 0U))
 8004d14:	68bb      	ldr	r3, [r7, #8]
 8004d16:	2b00      	cmp	r3, #0
 8004d18:	d005      	beq.n	8004d26 <HAL_SPI_TransmitReceive+0x82>
 8004d1a:	687b      	ldr	r3, [r7, #4]
 8004d1c:	2b00      	cmp	r3, #0
 8004d1e:	d002      	beq.n	8004d26 <HAL_SPI_TransmitReceive+0x82>
 8004d20:	887b      	ldrh	r3, [r7, #2]
 8004d22:	2b00      	cmp	r3, #0
 8004d24:	d103      	bne.n	8004d2e <HAL_SPI_TransmitReceive+0x8a>
  {
    errorcode = HAL_ERROR;
 8004d26:	2301      	movs	r3, #1
 8004d28:	f887 302b 	strb.w	r3, [r7, #43]	; 0x2b
    goto error;
 8004d2c:	e160      	b.n	8004ff0 <HAL_SPI_TransmitReceive+0x34c>
  }

  /* Don't overwrite in case of HAL_SPI_STATE_BUSY_RX */
  if (hspi->State != HAL_SPI_STATE_BUSY_RX)
 8004d2e:	68fb      	ldr	r3, [r7, #12]
 8004d30:	f893 3051 	ldrb.w	r3, [r3, #81]	; 0x51
 8004d34:	b2db      	uxtb	r3, r3
 8004d36:	2b04      	cmp	r3, #4
 8004d38:	d003      	beq.n	8004d42 <HAL_SPI_TransmitReceive+0x9e>
  {
    hspi->State = HAL_SPI_STATE_BUSY_TX_RX;
 8004d3a:	68fb      	ldr	r3, [r7, #12]
 8004d3c:	2205      	movs	r2, #5
 8004d3e:	f883 2051 	strb.w	r2, [r3, #81]	; 0x51
  }

  /* Set the transaction information */
  hspi->ErrorCode   = HAL_SPI_ERROR_NONE;
 8004d42:	68fb      	ldr	r3, [r7, #12]
 8004d44:	2200      	movs	r2, #0
 8004d46:	655a      	str	r2, [r3, #84]	; 0x54
  hspi->pRxBuffPtr  = (uint8_t *)pRxData;
 8004d48:	68fb      	ldr	r3, [r7, #12]
 8004d4a:	687a      	ldr	r2, [r7, #4]
 8004d4c:	639a      	str	r2, [r3, #56]	; 0x38
  hspi->RxXferCount = Size;
 8004d4e:	68fb      	ldr	r3, [r7, #12]
 8004d50:	887a      	ldrh	r2, [r7, #2]
 8004d52:	87da      	strh	r2, [r3, #62]	; 0x3e
  hspi->RxXferSize  = Size;
 8004d54:	68fb      	ldr	r3, [r7, #12]
 8004d56:	887a      	ldrh	r2, [r7, #2]
 8004d58:	879a      	strh	r2, [r3, #60]	; 0x3c
  hspi->pTxBuffPtr  = (uint8_t *)pTxData;
 8004d5a:	68fb      	ldr	r3, [r7, #12]
 8004d5c:	68ba      	ldr	r2, [r7, #8]
 8004d5e:	631a      	str	r2, [r3, #48]	; 0x30
  hspi->TxXferCount = Size;
 8004d60:	68fb      	ldr	r3, [r7, #12]
 8004d62:	887a      	ldrh	r2, [r7, #2]
 8004d64:	86da      	strh	r2, [r3, #54]	; 0x36
  hspi->TxXferSize  = Size;
 8004d66:	68fb      	ldr	r3, [r7, #12]
 8004d68:	887a      	ldrh	r2, [r7, #2]
 8004d6a:	869a      	strh	r2, [r3, #52]	; 0x34

  /*Init field not used in handle to zero */
  hspi->RxISR       = NULL;
 8004d6c:	68fb      	ldr	r3, [r7, #12]
 8004d6e:	2200      	movs	r2, #0
 8004d70:	641a      	str	r2, [r3, #64]	; 0x40
  hspi->TxISR       = NULL;
 8004d72:	68fb      	ldr	r3, [r7, #12]
 8004d74:	2200      	movs	r2, #0
 8004d76:	645a      	str	r2, [r3, #68]	; 0x44
    SPI_RESET_CRC(hspi);
  }
#endif /* USE_SPI_CRC */

  /* Check if the SPI is already enabled */
  if ((hspi->Instance->CR1 & SPI_CR1_SPE) != SPI_CR1_SPE)
 8004d78:	68fb      	ldr	r3, [r7, #12]
 8004d7a:	681b      	ldr	r3, [r3, #0]
 8004d7c:	681b      	ldr	r3, [r3, #0]
 8004d7e:	f003 0340 	and.w	r3, r3, #64	; 0x40
 8004d82:	2b40      	cmp	r3, #64	; 0x40
 8004d84:	d007      	beq.n	8004d96 <HAL_SPI_TransmitReceive+0xf2>
  {
    /* Enable SPI peripheral */
    __HAL_SPI_ENABLE(hspi);
 8004d86:	68fb      	ldr	r3, [r7, #12]
 8004d88:	681b      	ldr	r3, [r3, #0]
 8004d8a:	681a      	ldr	r2, [r3, #0]
 8004d8c:	68fb      	ldr	r3, [r7, #12]
 8004d8e:	681b      	ldr	r3, [r3, #0]
 8004d90:	f042 0240 	orr.w	r2, r2, #64	; 0x40
 8004d94:	601a      	str	r2, [r3, #0]
  }

  /* Transmit and Receive data in 16 Bit mode */
  if (hspi->Init.DataSize == SPI_DATASIZE_16BIT)
 8004d96:	68fb      	ldr	r3, [r7, #12]
 8004d98:	68db      	ldr	r3, [r3, #12]
 8004d9a:	f5b3 6f00 	cmp.w	r3, #2048	; 0x800
 8004d9e:	d17c      	bne.n	8004e9a <HAL_SPI_TransmitReceive+0x1f6>
  {
    if ((hspi->Init.Mode == SPI_MODE_SLAVE) || (initial_TxXferCount == 0x01U))
 8004da0:	68fb      	ldr	r3, [r7, #12]
 8004da2:	685b      	ldr	r3, [r3, #4]
 8004da4:	2b00      	cmp	r3, #0
 8004da6:	d002      	beq.n	8004dae <HAL_SPI_TransmitReceive+0x10a>
 8004da8:	8b7b      	ldrh	r3, [r7, #26]
 8004daa:	2b01      	cmp	r3, #1
 8004dac:	d16a      	bne.n	8004e84 <HAL_SPI_TransmitReceive+0x1e0>
    {
      hspi->Instance->DR = *((uint16_t *)hspi->pTxBuffPtr);
 8004dae:	68fb      	ldr	r3, [r7, #12]
 8004db0:	6b1b      	ldr	r3, [r3, #48]	; 0x30
 8004db2:	881a      	ldrh	r2, [r3, #0]
 8004db4:	68fb      	ldr	r3, [r7, #12]
 8004db6:	681b      	ldr	r3, [r3, #0]
 8004db8:	60da      	str	r2, [r3, #12]
      hspi->pTxBuffPtr += sizeof(uint16_t);
 8004dba:	68fb      	ldr	r3, [r7, #12]
 8004dbc:	6b1b      	ldr	r3, [r3, #48]	; 0x30
 8004dbe:	1c9a      	adds	r2, r3, #2
 8004dc0:	68fb      	ldr	r3, [r7, #12]
 8004dc2:	631a      	str	r2, [r3, #48]	; 0x30
      hspi->TxXferCount--;
 8004dc4:	68fb      	ldr	r3, [r7, #12]
 8004dc6:	8edb      	ldrh	r3, [r3, #54]	; 0x36
 8004dc8:	b29b      	uxth	r3, r3
 8004dca:	3b01      	subs	r3, #1
 8004dcc:	b29a      	uxth	r2, r3
 8004dce:	68fb      	ldr	r3, [r7, #12]
 8004dd0:	86da      	strh	r2, [r3, #54]	; 0x36
        SET_BIT(hspi->Instance->CR1, SPI_CR1_CRCNEXT);
      }
#endif /* USE_SPI_CRC */

    }
    while ((hspi->TxXferCount > 0U) || (hspi->RxXferCount > 0U))
 8004dd2:	e057      	b.n	8004e84 <HAL_SPI_TransmitReceive+0x1e0>
    {
      /* Check TXE flag */
      if ((__HAL_SPI_GET_FLAG(hspi, SPI_FLAG_TXE)) && (hspi->TxXferCount > 0U) && (txallowed == 1U))
 8004dd4:	68fb      	ldr	r3, [r7, #12]
 8004dd6:	681b      	ldr	r3, [r3, #0]
 8004dd8:	689b      	ldr	r3, [r3, #8]
 8004dda:	f003 0302 	and.w	r3, r3, #2
 8004dde:	2b02      	cmp	r3, #2
 8004de0:	d11b      	bne.n	8004e1a <HAL_SPI_TransmitReceive+0x176>
 8004de2:	68fb      	ldr	r3, [r7, #12]
 8004de4:	8edb      	ldrh	r3, [r3, #54]	; 0x36
 8004de6:	b29b      	uxth	r3, r3
 8004de8:	2b00      	cmp	r3, #0
 8004dea:	d016      	beq.n	8004e1a <HAL_SPI_TransmitReceive+0x176>
 8004dec:	6afb      	ldr	r3, [r7, #44]	; 0x2c
 8004dee:	2b01      	cmp	r3, #1
 8004df0:	d113      	bne.n	8004e1a <HAL_SPI_TransmitReceive+0x176>
      {
        hspi->Instance->DR = *((uint16_t *)hspi->pTxBuffPtr);
 8004df2:	68fb      	ldr	r3, [r7, #12]
 8004df4:	6b1b      	ldr	r3, [r3, #48]	; 0x30
 8004df6:	881a      	ldrh	r2, [r3, #0]
 8004df8:	68fb      	ldr	r3, [r7, #12]
 8004dfa:	681b      	ldr	r3, [r3, #0]
 8004dfc:	60da      	str	r2, [r3, #12]
        hspi->pTxBuffPtr += sizeof(uint16_t);
 8004dfe:	68fb      	ldr	r3, [r7, #12]
 8004e00:	6b1b      	ldr	r3, [r3, #48]	; 0x30
 8004e02:	1c9a      	adds	r2, r3, #2
 8004e04:	68fb      	ldr	r3, [r7, #12]
 8004e06:	631a      	str	r2, [r3, #48]	; 0x30
        hspi->TxXferCount--;
 8004e08:	68fb      	ldr	r3, [r7, #12]
 8004e0a:	8edb      	ldrh	r3, [r3, #54]	; 0x36
 8004e0c:	b29b      	uxth	r3, r3
 8004e0e:	3b01      	subs	r3, #1
 8004e10:	b29a      	uxth	r2, r3
 8004e12:	68fb      	ldr	r3, [r7, #12]
 8004e14:	86da      	strh	r2, [r3, #54]	; 0x36
        /* Next Data is a reception (Rx). Tx not allowed */
        txallowed = 0U;
 8004e16:	2300      	movs	r3, #0
 8004e18:	62fb      	str	r3, [r7, #44]	; 0x2c
        }
#endif /* USE_SPI_CRC */
      }

      /* Check RXNE flag */
      if ((__HAL_SPI_GET_FLAG(hspi, SPI_FLAG_RXNE)) && (hspi->RxXferCount > 0U))
 8004e1a:	68fb      	ldr	r3, [r7, #12]
 8004e1c:	681b      	ldr	r3, [r3, #0]
 8004e1e:	689b      	ldr	r3, [r3, #8]
 8004e20:	f003 0301 	and.w	r3, r3, #1
 8004e24:	2b01      	cmp	r3, #1
 8004e26:	d119      	bne.n	8004e5c <HAL_SPI_TransmitReceive+0x1b8>
 8004e28:	68fb      	ldr	r3, [r7, #12]
 8004e2a:	8fdb      	ldrh	r3, [r3, #62]	; 0x3e
 8004e2c:	b29b      	uxth	r3, r3
 8004e2e:	2b00      	cmp	r3, #0
 8004e30:	d014      	beq.n	8004e5c <HAL_SPI_TransmitReceive+0x1b8>
      {
        *((uint16_t *)hspi->pRxBuffPtr) = (uint16_t)hspi->Instance->DR;
 8004e32:	68fb      	ldr	r3, [r7, #12]
 8004e34:	681b      	ldr	r3, [r3, #0]
 8004e36:	68da      	ldr	r2, [r3, #12]
 8004e38:	68fb      	ldr	r3, [r7, #12]
 8004e3a:	6b9b      	ldr	r3, [r3, #56]	; 0x38
 8004e3c:	b292      	uxth	r2, r2
 8004e3e:	801a      	strh	r2, [r3, #0]
        hspi->pRxBuffPtr += sizeof(uint16_t);
 8004e40:	68fb      	ldr	r3, [r7, #12]
 8004e42:	6b9b      	ldr	r3, [r3, #56]	; 0x38
 8004e44:	1c9a      	adds	r2, r3, #2
 8004e46:	68fb      	ldr	r3, [r7, #12]
 8004e48:	639a      	str	r2, [r3, #56]	; 0x38
        hspi->RxXferCount--;
 8004e4a:	68fb      	ldr	r3, [r7, #12]
 8004e4c:	8fdb      	ldrh	r3, [r3, #62]	; 0x3e
 8004e4e:	b29b      	uxth	r3, r3
 8004e50:	3b01      	subs	r3, #1
 8004e52:	b29a      	uxth	r2, r3
 8004e54:	68fb      	ldr	r3, [r7, #12]
 8004e56:	87da      	strh	r2, [r3, #62]	; 0x3e
        /* Next Data is a Transmission (Tx). Tx is allowed */
        txallowed = 1U;
 8004e58:	2301      	movs	r3, #1
 8004e5a:	62fb      	str	r3, [r7, #44]	; 0x2c
      }
      if (((HAL_GetTick() - tickstart) >=  Timeout) && (Timeout != HAL_MAX_DELAY))
 8004e5c:	f7fc fefc 	bl	8001c58 <HAL_GetTick>
 8004e60:	4602      	mov	r2, r0
 8004e62:	6a7b      	ldr	r3, [r7, #36]	; 0x24
 8004e64:	1ad3      	subs	r3, r2, r3
 8004e66:	6bba      	ldr	r2, [r7, #56]	; 0x38
 8004e68:	429a      	cmp	r2, r3
 8004e6a:	d80b      	bhi.n	8004e84 <HAL_SPI_TransmitReceive+0x1e0>
 8004e6c:	6bbb      	ldr	r3, [r7, #56]	; 0x38
 8004e6e:	f1b3 3fff 	cmp.w	r3, #4294967295	; 0xffffffff
 8004e72:	d007      	beq.n	8004e84 <HAL_SPI_TransmitReceive+0x1e0>
      {
        errorcode = HAL_TIMEOUT;
 8004e74:	2303      	movs	r3, #3
 8004e76:	f887 302b 	strb.w	r3, [r7, #43]	; 0x2b
        hspi->State = HAL_SPI_STATE_READY;
 8004e7a:	68fb      	ldr	r3, [r7, #12]
 8004e7c:	2201      	movs	r2, #1
 8004e7e:	f883 2051 	strb.w	r2, [r3, #81]	; 0x51
        goto error;
 8004e82:	e0b5      	b.n	8004ff0 <HAL_SPI_TransmitReceive+0x34c>
    while ((hspi->TxXferCount > 0U) || (hspi->RxXferCount > 0U))
 8004e84:	68fb      	ldr	r3, [r7, #12]
 8004e86:	8edb      	ldrh	r3, [r3, #54]	; 0x36
 8004e88:	b29b      	uxth	r3, r3
 8004e8a:	2b00      	cmp	r3, #0
 8004e8c:	d1a2      	bne.n	8004dd4 <HAL_SPI_TransmitReceive+0x130>
 8004e8e:	68fb      	ldr	r3, [r7, #12]
 8004e90:	8fdb      	ldrh	r3, [r3, #62]	; 0x3e
 8004e92:	b29b      	uxth	r3, r3
 8004e94:	2b00      	cmp	r3, #0
 8004e96:	d19d      	bne.n	8004dd4 <HAL_SPI_TransmitReceive+0x130>
 8004e98:	e080      	b.n	8004f9c <HAL_SPI_TransmitReceive+0x2f8>
    }
  }
  /* Transmit and Receive data in 8 Bit mode */
  else
  {
    if ((hspi->Init.Mode == SPI_MODE_SLAVE) || (initial_TxXferCount == 0x01U))
 8004e9a:	68fb      	ldr	r3, [r7, #12]
 8004e9c:	685b      	ldr	r3, [r3, #4]
 8004e9e:	2b00      	cmp	r3, #0
 8004ea0:	d002      	beq.n	8004ea8 <HAL_SPI_TransmitReceive+0x204>
 8004ea2:	8b7b      	ldrh	r3, [r7, #26]
 8004ea4:	2b01      	cmp	r3, #1
 8004ea6:	d16f      	bne.n	8004f88 <HAL_SPI_TransmitReceive+0x2e4>
    {
      *((__IO uint8_t *)&hspi->Instance->DR) = (*hspi->pTxBuffPtr);
 8004ea8:	68fb      	ldr	r3, [r7, #12]
 8004eaa:	6b1a      	ldr	r2, [r3, #48]	; 0x30
 8004eac:	68fb      	ldr	r3, [r7, #12]
 8004eae:	681b      	ldr	r3, [r3, #0]
 8004eb0:	330c      	adds	r3, #12
 8004eb2:	7812      	ldrb	r2, [r2, #0]
 8004eb4:	701a      	strb	r2, [r3, #0]
      hspi->pTxBuffPtr += sizeof(uint8_t);
 8004eb6:	68fb      	ldr	r3, [r7, #12]
 8004eb8:	6b1b      	ldr	r3, [r3, #48]	; 0x30
 8004eba:	1c5a      	adds	r2, r3, #1
 8004ebc:	68fb      	ldr	r3, [r7, #12]
 8004ebe:	631a      	str	r2, [r3, #48]	; 0x30
      hspi->TxXferCount--;
 8004ec0:	68fb      	ldr	r3, [r7, #12]
 8004ec2:	8edb      	ldrh	r3, [r3, #54]	; 0x36
 8004ec4:	b29b      	uxth	r3, r3
 8004ec6:	3b01      	subs	r3, #1
 8004ec8:	b29a      	uxth	r2, r3
 8004eca:	68fb      	ldr	r3, [r7, #12]
 8004ecc:	86da      	strh	r2, [r3, #54]	; 0x36
      {
        SET_BIT(hspi->Instance->CR1, SPI_CR1_CRCNEXT);
      }
#endif /* USE_SPI_CRC */
    }
    while ((hspi->TxXferCount > 0U) || (hspi->RxXferCount > 0U))
 8004ece:	e05b      	b.n	8004f88 <HAL_SPI_TransmitReceive+0x2e4>
    {
      /* Check TXE flag */
      if ((__HAL_SPI_GET_FLAG(hspi, SPI_FLAG_TXE)) && (hspi->TxXferCount > 0U) && (txallowed == 1U))
 8004ed0:	68fb      	ldr	r3, [r7, #12]
 8004ed2:	681b      	ldr	r3, [r3, #0]
 8004ed4:	689b      	ldr	r3, [r3, #8]
 8004ed6:	f003 0302 	and.w	r3, r3, #2
 8004eda:	2b02      	cmp	r3, #2
 8004edc:	d11c      	bne.n	8004f18 <HAL_SPI_TransmitReceive+0x274>
 8004ede:	68fb      	ldr	r3, [r7, #12]
 8004ee0:	8edb      	ldrh	r3, [r3, #54]	; 0x36
 8004ee2:	b29b      	uxth	r3, r3
 8004ee4:	2b00      	cmp	r3, #0
 8004ee6:	d017      	beq.n	8004f18 <HAL_SPI_TransmitReceive+0x274>
 8004ee8:	6afb      	ldr	r3, [r7, #44]	; 0x2c
 8004eea:	2b01      	cmp	r3, #1
 8004eec:	d114      	bne.n	8004f18 <HAL_SPI_TransmitReceive+0x274>
      {
        *(__IO uint8_t *)&hspi->Instance->DR = (*hspi->pTxBuffPtr);
 8004eee:	68fb      	ldr	r3, [r7, #12]
 8004ef0:	6b1a      	ldr	r2, [r3, #48]	; 0x30
 8004ef2:	68fb      	ldr	r3, [r7, #12]
 8004ef4:	681b      	ldr	r3, [r3, #0]
 8004ef6:	330c      	adds	r3, #12
 8004ef8:	7812      	ldrb	r2, [r2, #0]
 8004efa:	701a      	strb	r2, [r3, #0]
        hspi->pTxBuffPtr++;
 8004efc:	68fb      	ldr	r3, [r7, #12]
 8004efe:	6b1b      	ldr	r3, [r3, #48]	; 0x30
 8004f00:	1c5a      	adds	r2, r3, #1
 8004f02:	68fb      	ldr	r3, [r7, #12]
 8004f04:	631a      	str	r2, [r3, #48]	; 0x30
        hspi->TxXferCount--;
 8004f06:	68fb      	ldr	r3, [r7, #12]
 8004f08:	8edb      	ldrh	r3, [r3, #54]	; 0x36
 8004f0a:	b29b      	uxth	r3, r3
 8004f0c:	3b01      	subs	r3, #1
 8004f0e:	b29a      	uxth	r2, r3
 8004f10:	68fb      	ldr	r3, [r7, #12]
 8004f12:	86da      	strh	r2, [r3, #54]	; 0x36
        /* Next Data is a reception (Rx). Tx not allowed */
        txallowed = 0U;
 8004f14:	2300      	movs	r3, #0
 8004f16:	62fb      	str	r3, [r7, #44]	; 0x2c
        }
#endif /* USE_SPI_CRC */
      }

      /* Wait until RXNE flag is reset */
      if ((__HAL_SPI_GET_FLAG(hspi, SPI_FLAG_RXNE)) && (hspi->RxXferCount > 0U))
 8004f18:	68fb      	ldr	r3, [r7, #12]
 8004f1a:	681b      	ldr	r3, [r3, #0]
 8004f1c:	689b      	ldr	r3, [r3, #8]
 8004f1e:	f003 0301 	and.w	r3, r3, #1
 8004f22:	2b01      	cmp	r3, #1
 8004f24:	d119      	bne.n	8004f5a <HAL_SPI_TransmitReceive+0x2b6>
 8004f26:	68fb      	ldr	r3, [r7, #12]
 8004f28:	8fdb      	ldrh	r3, [r3, #62]	; 0x3e
 8004f2a:	b29b      	uxth	r3, r3
 8004f2c:	2b00      	cmp	r3, #0
 8004f2e:	d014      	beq.n	8004f5a <HAL_SPI_TransmitReceive+0x2b6>
      {
        (*(uint8_t *)hspi->pRxBuffPtr) = hspi->Instance->DR;
 8004f30:	68fb      	ldr	r3, [r7, #12]
 8004f32:	681b      	ldr	r3, [r3, #0]
 8004f34:	68da      	ldr	r2, [r3, #12]
 8004f36:	68fb      	ldr	r3, [r7, #12]
 8004f38:	6b9b      	ldr	r3, [r3, #56]	; 0x38
 8004f3a:	b2d2      	uxtb	r2, r2
 8004f3c:	701a      	strb	r2, [r3, #0]
        hspi->pRxBuffPtr++;
 8004f3e:	68fb      	ldr	r3, [r7, #12]
 8004f40:	6b9b      	ldr	r3, [r3, #56]	; 0x38
 8004f42:	1c5a      	adds	r2, r3, #1
 8004f44:	68fb      	ldr	r3, [r7, #12]
 8004f46:	639a      	str	r2, [r3, #56]	; 0x38
        hspi->RxXferCount--;
 8004f48:	68fb      	ldr	r3, [r7, #12]
 8004f4a:	8fdb      	ldrh	r3, [r3, #62]	; 0x3e
 8004f4c:	b29b      	uxth	r3, r3
 8004f4e:	3b01      	subs	r3, #1
 8004f50:	b29a      	uxth	r2, r3
 8004f52:	68fb      	ldr	r3, [r7, #12]
 8004f54:	87da      	strh	r2, [r3, #62]	; 0x3e
        /* Next Data is a Transmission (Tx). Tx is allowed */
        txallowed = 1U;
 8004f56:	2301      	movs	r3, #1
 8004f58:	62fb      	str	r3, [r7, #44]	; 0x2c
      }
      if ((((HAL_GetTick() - tickstart) >=  Timeout) && ((Timeout != HAL_MAX_DELAY))) || (Timeout == 0U))
 8004f5a:	f7fc fe7d 	bl	8001c58 <HAL_GetTick>
 8004f5e:	4602      	mov	r2, r0
 8004f60:	6a7b      	ldr	r3, [r7, #36]	; 0x24
 8004f62:	1ad3      	subs	r3, r2, r3
 8004f64:	6bba      	ldr	r2, [r7, #56]	; 0x38
 8004f66:	429a      	cmp	r2, r3
 8004f68:	d803      	bhi.n	8004f72 <HAL_SPI_TransmitReceive+0x2ce>
 8004f6a:	6bbb      	ldr	r3, [r7, #56]	; 0x38
 8004f6c:	f1b3 3fff 	cmp.w	r3, #4294967295	; 0xffffffff
 8004f70:	d102      	bne.n	8004f78 <HAL_SPI_TransmitReceive+0x2d4>
 8004f72:	6bbb      	ldr	r3, [r7, #56]	; 0x38
 8004f74:	2b00      	cmp	r3, #0
 8004f76:	d107      	bne.n	8004f88 <HAL_SPI_TransmitReceive+0x2e4>
      {
        errorcode = HAL_TIMEOUT;
 8004f78:	2303      	movs	r3, #3
 8004f7a:	f887 302b 	strb.w	r3, [r7, #43]	; 0x2b
        hspi->State = HAL_SPI_STATE_READY;
 8004f7e:	68fb      	ldr	r3, [r7, #12]
 8004f80:	2201      	movs	r2, #1
 8004f82:	f883 2051 	strb.w	r2, [r3, #81]	; 0x51
        goto error;
 8004f86:	e033      	b.n	8004ff0 <HAL_SPI_TransmitReceive+0x34c>
    while ((hspi->TxXferCount > 0U) || (hspi->RxXferCount > 0U))
 8004f88:	68fb      	ldr	r3, [r7, #12]
 8004f8a:	8edb      	ldrh	r3, [r3, #54]	; 0x36
 8004f8c:	b29b      	uxth	r3, r3
 8004f8e:	2b00      	cmp	r3, #0
 8004f90:	d19e      	bne.n	8004ed0 <HAL_SPI_TransmitReceive+0x22c>
 8004f92:	68fb      	ldr	r3, [r7, #12]
 8004f94:	8fdb      	ldrh	r3, [r3, #62]	; 0x3e
 8004f96:	b29b      	uxth	r3, r3
 8004f98:	2b00      	cmp	r3, #0
 8004f9a:	d199      	bne.n	8004ed0 <HAL_SPI_TransmitReceive+0x22c>
    errorcode = HAL_ERROR;
  }
#endif /* USE_SPI_CRC */

  /* Check the end of the transaction */
  if (SPI_EndRxTxTransaction(hspi, Timeout, tickstart) != HAL_OK)
 8004f9c:	6a7a      	ldr	r2, [r7, #36]	; 0x24
 8004f9e:	6bb9      	ldr	r1, [r7, #56]	; 0x38
 8004fa0:	68f8      	ldr	r0, [r7, #12]
 8004fa2:	f000 f91d 	bl	80051e0 <SPI_EndRxTxTransaction>
 8004fa6:	4603      	mov	r3, r0
 8004fa8:	2b00      	cmp	r3, #0
 8004faa:	d006      	beq.n	8004fba <HAL_SPI_TransmitReceive+0x316>
  {
    errorcode = HAL_ERROR;
 8004fac:	2301      	movs	r3, #1
 8004fae:	f887 302b 	strb.w	r3, [r7, #43]	; 0x2b
    hspi->ErrorCode = HAL_SPI_ERROR_FLAG;
 8004fb2:	68fb      	ldr	r3, [r7, #12]
 8004fb4:	2220      	movs	r2, #32
 8004fb6:	655a      	str	r2, [r3, #84]	; 0x54
    goto error;
 8004fb8:	e01a      	b.n	8004ff0 <HAL_SPI_TransmitReceive+0x34c>
  }

  /* Clear overrun flag in 2 Lines communication mode because received is not read */
  if (hspi->Init.Direction == SPI_DIRECTION_2LINES)
 8004fba:	68fb      	ldr	r3, [r7, #12]
 8004fbc:	689b      	ldr	r3, [r3, #8]
 8004fbe:	2b00      	cmp	r3, #0
 8004fc0:	d10a      	bne.n	8004fd8 <HAL_SPI_TransmitReceive+0x334>
  {
    __HAL_SPI_CLEAR_OVRFLAG(hspi);
 8004fc2:	2300      	movs	r3, #0
 8004fc4:	617b      	str	r3, [r7, #20]
 8004fc6:	68fb      	ldr	r3, [r7, #12]
 8004fc8:	681b      	ldr	r3, [r3, #0]
 8004fca:	68db      	ldr	r3, [r3, #12]
 8004fcc:	617b      	str	r3, [r7, #20]
 8004fce:	68fb      	ldr	r3, [r7, #12]
 8004fd0:	681b      	ldr	r3, [r3, #0]
 8004fd2:	689b      	ldr	r3, [r3, #8]
 8004fd4:	617b      	str	r3, [r7, #20]
 8004fd6:	697b      	ldr	r3, [r7, #20]
  }

  if (hspi->ErrorCode != HAL_SPI_ERROR_NONE)
 8004fd8:	68fb      	ldr	r3, [r7, #12]
 8004fda:	6d5b      	ldr	r3, [r3, #84]	; 0x54
 8004fdc:	2b00      	cmp	r3, #0
 8004fde:	d003      	beq.n	8004fe8 <HAL_SPI_TransmitReceive+0x344>
  {
    errorcode = HAL_ERROR;
 8004fe0:	2301      	movs	r3, #1
 8004fe2:	f887 302b 	strb.w	r3, [r7, #43]	; 0x2b
 8004fe6:	e003      	b.n	8004ff0 <HAL_SPI_TransmitReceive+0x34c>
  }
  else
  {
    hspi->State = HAL_SPI_STATE_READY;
 8004fe8:	68fb      	ldr	r3, [r7, #12]
 8004fea:	2201      	movs	r2, #1
 8004fec:	f883 2051 	strb.w	r2, [r3, #81]	; 0x51
  }
  
error :
  __HAL_UNLOCK(hspi);
 8004ff0:	68fb      	ldr	r3, [r7, #12]
 8004ff2:	2200      	movs	r2, #0
 8004ff4:	f883 2050 	strb.w	r2, [r3, #80]	; 0x50
  return errorcode;
 8004ff8:	f897 302b 	ldrb.w	r3, [r7, #43]	; 0x2b
}
 8004ffc:	4618      	mov	r0, r3
 8004ffe:	3730      	adds	r7, #48	; 0x30
 8005000:	46bd      	mov	sp, r7
 8005002:	bd80      	pop	{r7, pc}

08005004 <SPI_WaitFlagStateUntilTimeout>:
  * @param  Tickstart tick start value
  * @retval HAL status
  */
static HAL_StatusTypeDef SPI_WaitFlagStateUntilTimeout(SPI_HandleTypeDef *hspi, uint32_t Flag, FlagStatus State,
                                                       uint32_t Timeout, uint32_t Tickstart)
{
 8005004:	b580      	push	{r7, lr}
 8005006:	b088      	sub	sp, #32
 8005008:	af00      	add	r7, sp, #0
 800500a:	60f8      	str	r0, [r7, #12]
 800500c:	60b9      	str	r1, [r7, #8]
 800500e:	603b      	str	r3, [r7, #0]
 8005010:	4613      	mov	r3, r2
 8005012:	71fb      	strb	r3, [r7, #7]
  __IO uint32_t count;
  uint32_t tmp_timeout;
  uint32_t tmp_tickstart;

  /* Adjust Timeout value  in case of end of transfer */
  tmp_timeout   = Timeout - (HAL_GetTick() - Tickstart);
 8005014:	f7fc fe20 	bl	8001c58 <HAL_GetTick>
 8005018:	4602      	mov	r2, r0
 800501a:	6abb      	ldr	r3, [r7, #40]	; 0x28
 800501c:	1a9b      	subs	r3, r3, r2
 800501e:	683a      	ldr	r2, [r7, #0]
 8005020:	4413      	add	r3, r2
 8005022:	61fb      	str	r3, [r7, #28]
  tmp_tickstart = HAL_GetTick();
 8005024:	f7fc fe18 	bl	8001c58 <HAL_GetTick>
 8005028:	61b8      	str	r0, [r7, #24]

  /* Calculate Timeout based on a software loop to avoid blocking issue if Systick is disabled */
  count = tmp_timeout * ((SystemCoreClock * 32U) >> 20U);
 800502a:	4b39      	ldr	r3, [pc, #228]	; (8005110 <SPI_WaitFlagStateUntilTimeout+0x10c>)
 800502c:	681b      	ldr	r3, [r3, #0]
 800502e:	015b      	lsls	r3, r3, #5
 8005030:	0d1b      	lsrs	r3, r3, #20
 8005032:	69fa      	ldr	r2, [r7, #28]
 8005034:	fb02 f303 	mul.w	r3, r2, r3
 8005038:	617b      	str	r3, [r7, #20]

  while ((__HAL_SPI_GET_FLAG(hspi, Flag) ? SET : RESET) != State)
 800503a:	e054      	b.n	80050e6 <SPI_WaitFlagStateUntilTimeout+0xe2>
  {
    if (Timeout != HAL_MAX_DELAY)
 800503c:	683b      	ldr	r3, [r7, #0]
 800503e:	f1b3 3fff 	cmp.w	r3, #4294967295	; 0xffffffff
 8005042:	d050      	beq.n	80050e6 <SPI_WaitFlagStateUntilTimeout+0xe2>
    {
      if (((HAL_GetTick() - tmp_tickstart) >= tmp_timeout) || (tmp_timeout == 0U))
 8005044:	f7fc fe08 	bl	8001c58 <HAL_GetTick>
 8005048:	4602      	mov	r2, r0
 800504a:	69bb      	ldr	r3, [r7, #24]
 800504c:	1ad3      	subs	r3, r2, r3
 800504e:	69fa      	ldr	r2, [r7, #28]
 8005050:	429a      	cmp	r2, r3
 8005052:	d902      	bls.n	800505a <SPI_WaitFlagStateUntilTimeout+0x56>
 8005054:	69fb      	ldr	r3, [r7, #28]
 8005056:	2b00      	cmp	r3, #0
 8005058:	d13d      	bne.n	80050d6 <SPI_WaitFlagStateUntilTimeout+0xd2>
        /* Disable the SPI and reset the CRC: the CRC value should be cleared
           on both master and slave sides in order to resynchronize the master
           and slave for their respective CRC calculation */

        /* Disable TXE, RXNE and ERR interrupts for the interrupt process */
        __HAL_SPI_DISABLE_IT(hspi, (SPI_IT_TXE | SPI_IT_RXNE | SPI_IT_ERR));
 800505a:	68fb      	ldr	r3, [r7, #12]
 800505c:	681b      	ldr	r3, [r3, #0]
 800505e:	685a      	ldr	r2, [r3, #4]
 8005060:	68fb      	ldr	r3, [r7, #12]
 8005062:	681b      	ldr	r3, [r3, #0]
 8005064:	f022 02e0 	bic.w	r2, r2, #224	; 0xe0
 8005068:	605a      	str	r2, [r3, #4]

        if ((hspi->Init.Mode == SPI_MODE_MASTER) && ((hspi->Init.Direction == SPI_DIRECTION_1LINE)
 800506a:	68fb      	ldr	r3, [r7, #12]
 800506c:	685b      	ldr	r3, [r3, #4]
 800506e:	f5b3 7f82 	cmp.w	r3, #260	; 0x104
 8005072:	d111      	bne.n	8005098 <SPI_WaitFlagStateUntilTimeout+0x94>
 8005074:	68fb      	ldr	r3, [r7, #12]
 8005076:	689b      	ldr	r3, [r3, #8]
 8005078:	f5b3 4f00 	cmp.w	r3, #32768	; 0x8000
 800507c:	d004      	beq.n	8005088 <SPI_WaitFlagStateUntilTimeout+0x84>
                                                     || (hspi->Init.Direction == SPI_DIRECTION_2LINES_RXONLY)))
 800507e:	68fb      	ldr	r3, [r7, #12]
 8005080:	689b      	ldr	r3, [r3, #8]
 8005082:	f5b3 6f80 	cmp.w	r3, #1024	; 0x400
 8005086:	d107      	bne.n	8005098 <SPI_WaitFlagStateUntilTimeout+0x94>
        {
          /* Disable SPI peripheral */
          __HAL_SPI_DISABLE(hspi);
 8005088:	68fb      	ldr	r3, [r7, #12]
 800508a:	681b      	ldr	r3, [r3, #0]
 800508c:	681a      	ldr	r2, [r3, #0]
 800508e:	68fb      	ldr	r3, [r7, #12]
 8005090:	681b      	ldr	r3, [r3, #0]
 8005092:	f022 0240 	bic.w	r2, r2, #64	; 0x40
 8005096:	601a      	str	r2, [r3, #0]
        }

        /* Reset CRC Calculation */
        if (hspi->Init.CRCCalculation == SPI_CRCCALCULATION_ENABLE)
 8005098:	68fb      	ldr	r3, [r7, #12]
 800509a:	6a9b      	ldr	r3, [r3, #40]	; 0x28
 800509c:	f5b3 5f00 	cmp.w	r3, #8192	; 0x2000
 80050a0:	d10f      	bne.n	80050c2 <SPI_WaitFlagStateUntilTimeout+0xbe>
        {
          SPI_RESET_CRC(hspi);
 80050a2:	68fb      	ldr	r3, [r7, #12]
 80050a4:	681b      	ldr	r3, [r3, #0]
 80050a6:	681a      	ldr	r2, [r3, #0]
 80050a8:	68fb      	ldr	r3, [r7, #12]
 80050aa:	681b      	ldr	r3, [r3, #0]
 80050ac:	f422 5200 	bic.w	r2, r2, #8192	; 0x2000
 80050b0:	601a      	str	r2, [r3, #0]
 80050b2:	68fb      	ldr	r3, [r7, #12]
 80050b4:	681b      	ldr	r3, [r3, #0]
 80050b6:	681a      	ldr	r2, [r3, #0]
 80050b8:	68fb      	ldr	r3, [r7, #12]
 80050ba:	681b      	ldr	r3, [r3, #0]
 80050bc:	f442 5200 	orr.w	r2, r2, #8192	; 0x2000
 80050c0:	601a      	str	r2, [r3, #0]
        }

        hspi->State = HAL_SPI_STATE_READY;
 80050c2:	68fb      	ldr	r3, [r7, #12]
 80050c4:	2201      	movs	r2, #1
 80050c6:	f883 2051 	strb.w	r2, [r3, #81]	; 0x51

        /* Process Unlocked */
        __HAL_UNLOCK(hspi);
 80050ca:	68fb      	ldr	r3, [r7, #12]
 80050cc:	2200      	movs	r2, #0
 80050ce:	f883 2050 	strb.w	r2, [r3, #80]	; 0x50

        return HAL_TIMEOUT;
 80050d2:	2303      	movs	r3, #3
 80050d4:	e017      	b.n	8005106 <SPI_WaitFlagStateUntilTimeout+0x102>
      }
      /* If Systick is disabled or not incremented, deactivate timeout to go in disable loop procedure */
      if (count == 0U)
 80050d6:	697b      	ldr	r3, [r7, #20]
 80050d8:	2b00      	cmp	r3, #0
 80050da:	d101      	bne.n	80050e0 <SPI_WaitFlagStateUntilTimeout+0xdc>
      {
        tmp_timeout = 0U;
 80050dc:	2300      	movs	r3, #0
 80050de:	61fb      	str	r3, [r7, #28]
      }
      count--;
 80050e0:	697b      	ldr	r3, [r7, #20]
 80050e2:	3b01      	subs	r3, #1
 80050e4:	617b      	str	r3, [r7, #20]
  while ((__HAL_SPI_GET_FLAG(hspi, Flag) ? SET : RESET) != State)
 80050e6:	68fb      	ldr	r3, [r7, #12]
 80050e8:	681b      	ldr	r3, [r3, #0]
 80050ea:	689a      	ldr	r2, [r3, #8]
 80050ec:	68bb      	ldr	r3, [r7, #8]
 80050ee:	4013      	ands	r3, r2
 80050f0:	68ba      	ldr	r2, [r7, #8]
 80050f2:	429a      	cmp	r2, r3
 80050f4:	bf0c      	ite	eq
 80050f6:	2301      	moveq	r3, #1
 80050f8:	2300      	movne	r3, #0
 80050fa:	b2db      	uxtb	r3, r3
 80050fc:	461a      	mov	r2, r3
 80050fe:	79fb      	ldrb	r3, [r7, #7]
 8005100:	429a      	cmp	r2, r3
 8005102:	d19b      	bne.n	800503c <SPI_WaitFlagStateUntilTimeout+0x38>
    }
  }

  return HAL_OK;
 8005104:	2300      	movs	r3, #0
}
 8005106:	4618      	mov	r0, r3
 8005108:	3720      	adds	r7, #32
 800510a:	46bd      	mov	sp, r7
 800510c:	bd80      	pop	{r7, pc}
 800510e:	bf00      	nop
 8005110:	20000018 	.word	0x20000018

08005114 <SPI_EndRxTransaction>:
  * @param  Timeout Timeout duration
  * @param  Tickstart tick start value
  * @retval HAL status
  */
static HAL_StatusTypeDef SPI_EndRxTransaction(SPI_HandleTypeDef *hspi,  uint32_t Timeout, uint32_t Tickstart)
{
 8005114:	b580      	push	{r7, lr}
 8005116:	b086      	sub	sp, #24
 8005118:	af02      	add	r7, sp, #8
 800511a:	60f8      	str	r0, [r7, #12]
 800511c:	60b9      	str	r1, [r7, #8]
 800511e:	607a      	str	r2, [r7, #4]
  if ((hspi->Init.Mode == SPI_MODE_MASTER) && ((hspi->Init.Direction == SPI_DIRECTION_1LINE)
 8005120:	68fb      	ldr	r3, [r7, #12]
 8005122:	685b      	ldr	r3, [r3, #4]
 8005124:	f5b3 7f82 	cmp.w	r3, #260	; 0x104
 8005128:	d111      	bne.n	800514e <SPI_EndRxTransaction+0x3a>
 800512a:	68fb      	ldr	r3, [r7, #12]
 800512c:	689b      	ldr	r3, [r3, #8]
 800512e:	f5b3 4f00 	cmp.w	r3, #32768	; 0x8000
 8005132:	d004      	beq.n	800513e <SPI_EndRxTransaction+0x2a>
                                               || (hspi->Init.Direction == SPI_DIRECTION_2LINES_RXONLY)))
 8005134:	68fb      	ldr	r3, [r7, #12]
 8005136:	689b      	ldr	r3, [r3, #8]
 8005138:	f5b3 6f80 	cmp.w	r3, #1024	; 0x400
 800513c:	d107      	bne.n	800514e <SPI_EndRxTransaction+0x3a>
  {
    /* Disable SPI peripheral */
    __HAL_SPI_DISABLE(hspi);
 800513e:	68fb      	ldr	r3, [r7, #12]
 8005140:	681b      	ldr	r3, [r3, #0]
 8005142:	681a      	ldr	r2, [r3, #0]
 8005144:	68fb      	ldr	r3, [r7, #12]
 8005146:	681b      	ldr	r3, [r3, #0]
 8005148:	f022 0240 	bic.w	r2, r2, #64	; 0x40
 800514c:	601a      	str	r2, [r3, #0]
  }

  /* Erratasheet: BSY bit may stay high at the end of a data transfer in Slave mode */
  if (hspi->Init.Mode == SPI_MODE_MASTER)
 800514e:	68fb      	ldr	r3, [r7, #12]
 8005150:	685b      	ldr	r3, [r3, #4]
 8005152:	f5b3 7f82 	cmp.w	r3, #260	; 0x104
 8005156:	d12a      	bne.n	80051ae <SPI_EndRxTransaction+0x9a>
  {
    if (hspi->Init.Direction != SPI_DIRECTION_2LINES_RXONLY)
 8005158:	68fb      	ldr	r3, [r7, #12]
 800515a:	689b      	ldr	r3, [r3, #8]
 800515c:	f5b3 6f80 	cmp.w	r3, #1024	; 0x400
 8005160:	d012      	beq.n	8005188 <SPI_EndRxTransaction+0x74>
    {
      /* Control the BSY flag */
      if (SPI_WaitFlagStateUntilTimeout(hspi, SPI_FLAG_BSY, RESET, Timeout, Tickstart) != HAL_OK)
 8005162:	687b      	ldr	r3, [r7, #4]
 8005164:	9300      	str	r3, [sp, #0]
 8005166:	68bb      	ldr	r3, [r7, #8]
 8005168:	2200      	movs	r2, #0
 800516a:	2180      	movs	r1, #128	; 0x80
 800516c:	68f8      	ldr	r0, [r7, #12]
 800516e:	f7ff ff49 	bl	8005004 <SPI_WaitFlagStateUntilTimeout>
 8005172:	4603      	mov	r3, r0
 8005174:	2b00      	cmp	r3, #0
 8005176:	d02d      	beq.n	80051d4 <SPI_EndRxTransaction+0xc0>
      {
        SET_BIT(hspi->ErrorCode, HAL_SPI_ERROR_FLAG);
 8005178:	68fb      	ldr	r3, [r7, #12]
 800517a:	6d5b      	ldr	r3, [r3, #84]	; 0x54
 800517c:	f043 0220 	orr.w	r2, r3, #32
 8005180:	68fb      	ldr	r3, [r7, #12]
 8005182:	655a      	str	r2, [r3, #84]	; 0x54
        return HAL_TIMEOUT;
 8005184:	2303      	movs	r3, #3
 8005186:	e026      	b.n	80051d6 <SPI_EndRxTransaction+0xc2>
      }
    }
    else
    {
      /* Wait the RXNE reset */
      if (SPI_WaitFlagStateUntilTimeout(hspi, SPI_FLAG_RXNE, RESET, Timeout, Tickstart) != HAL_OK)
 8005188:	687b      	ldr	r3, [r7, #4]
 800518a:	9300      	str	r3, [sp, #0]
 800518c:	68bb      	ldr	r3, [r7, #8]
 800518e:	2200      	movs	r2, #0
 8005190:	2101      	movs	r1, #1
 8005192:	68f8      	ldr	r0, [r7, #12]
 8005194:	f7ff ff36 	bl	8005004 <SPI_WaitFlagStateUntilTimeout>
 8005198:	4603      	mov	r3, r0
 800519a:	2b00      	cmp	r3, #0
 800519c:	d01a      	beq.n	80051d4 <SPI_EndRxTransaction+0xc0>
      {
        SET_BIT(hspi->ErrorCode, HAL_SPI_ERROR_FLAG);
 800519e:	68fb      	ldr	r3, [r7, #12]
 80051a0:	6d5b      	ldr	r3, [r3, #84]	; 0x54
 80051a2:	f043 0220 	orr.w	r2, r3, #32
 80051a6:	68fb      	ldr	r3, [r7, #12]
 80051a8:	655a      	str	r2, [r3, #84]	; 0x54
        return HAL_TIMEOUT;
 80051aa:	2303      	movs	r3, #3
 80051ac:	e013      	b.n	80051d6 <SPI_EndRxTransaction+0xc2>
    }
  }
  else
  {
    /* Wait the RXNE reset */
    if (SPI_WaitFlagStateUntilTimeout(hspi, SPI_FLAG_RXNE, RESET, Timeout, Tickstart) != HAL_OK)
 80051ae:	687b      	ldr	r3, [r7, #4]
 80051b0:	9300      	str	r3, [sp, #0]
 80051b2:	68bb      	ldr	r3, [r7, #8]
 80051b4:	2200      	movs	r2, #0
 80051b6:	2101      	movs	r1, #1
 80051b8:	68f8      	ldr	r0, [r7, #12]
 80051ba:	f7ff ff23 	bl	8005004 <SPI_WaitFlagStateUntilTimeout>
 80051be:	4603      	mov	r3, r0
 80051c0:	2b00      	cmp	r3, #0
 80051c2:	d007      	beq.n	80051d4 <SPI_EndRxTransaction+0xc0>
    {
      SET_BIT(hspi->ErrorCode, HAL_SPI_ERROR_FLAG);
 80051c4:	68fb      	ldr	r3, [r7, #12]
 80051c6:	6d5b      	ldr	r3, [r3, #84]	; 0x54
 80051c8:	f043 0220 	orr.w	r2, r3, #32
 80051cc:	68fb      	ldr	r3, [r7, #12]
 80051ce:	655a      	str	r2, [r3, #84]	; 0x54
      return HAL_TIMEOUT;
 80051d0:	2303      	movs	r3, #3
 80051d2:	e000      	b.n	80051d6 <SPI_EndRxTransaction+0xc2>
    }
  }
  return HAL_OK;
 80051d4:	2300      	movs	r3, #0
}
 80051d6:	4618      	mov	r0, r3
 80051d8:	3710      	adds	r7, #16
 80051da:	46bd      	mov	sp, r7
 80051dc:	bd80      	pop	{r7, pc}
	...

080051e0 <SPI_EndRxTxTransaction>:
  * @param  Timeout Timeout duration
  * @param  Tickstart tick start value
  * @retval HAL status
  */
static HAL_StatusTypeDef SPI_EndRxTxTransaction(SPI_HandleTypeDef *hspi, uint32_t Timeout, uint32_t Tickstart)
{
 80051e0:	b580      	push	{r7, lr}
 80051e2:	b088      	sub	sp, #32
 80051e4:	af02      	add	r7, sp, #8
 80051e6:	60f8      	str	r0, [r7, #12]
 80051e8:	60b9      	str	r1, [r7, #8]
 80051ea:	607a      	str	r2, [r7, #4]
  /* Wait until TXE flag */
  if(SPI_WaitFlagStateUntilTimeout(hspi, SPI_FLAG_TXE, SET, Timeout, Tickstart) != HAL_OK)
 80051ec:	687b      	ldr	r3, [r7, #4]
 80051ee:	9300      	str	r3, [sp, #0]
 80051f0:	68bb      	ldr	r3, [r7, #8]
 80051f2:	2201      	movs	r2, #1
 80051f4:	2102      	movs	r1, #2
 80051f6:	68f8      	ldr	r0, [r7, #12]
 80051f8:	f7ff ff04 	bl	8005004 <SPI_WaitFlagStateUntilTimeout>
 80051fc:	4603      	mov	r3, r0
 80051fe:	2b00      	cmp	r3, #0
 8005200:	d007      	beq.n	8005212 <SPI_EndRxTxTransaction+0x32>
  {
    SET_BIT(hspi->ErrorCode, HAL_SPI_ERROR_FLAG);
 8005202:	68fb      	ldr	r3, [r7, #12]
 8005204:	6d5b      	ldr	r3, [r3, #84]	; 0x54
 8005206:	f043 0220 	orr.w	r2, r3, #32
 800520a:	68fb      	ldr	r3, [r7, #12]
 800520c:	655a      	str	r2, [r3, #84]	; 0x54
    return HAL_TIMEOUT;
 800520e:	2303      	movs	r3, #3
 8005210:	e032      	b.n	8005278 <SPI_EndRxTxTransaction+0x98>
  }

  /* Timeout in s */
  __IO uint32_t count = SPI_BSY_FLAG_WORKAROUND_TIMEOUT * (SystemCoreClock / 24U / 1000000U);
 8005212:	4b1b      	ldr	r3, [pc, #108]	; (8005280 <SPI_EndRxTxTransaction+0xa0>)
 8005214:	681b      	ldr	r3, [r3, #0]
 8005216:	4a1b      	ldr	r2, [pc, #108]	; (8005284 <SPI_EndRxTxTransaction+0xa4>)
 8005218:	fba2 2303 	umull	r2, r3, r2, r3
 800521c:	0d5b      	lsrs	r3, r3, #21
 800521e:	f44f 727a 	mov.w	r2, #1000	; 0x3e8
 8005222:	fb02 f303 	mul.w	r3, r2, r3
 8005226:	617b      	str	r3, [r7, #20]
  /* Erratasheet: BSY bit may stay high at the end of a data transfer in Slave mode */
  if (hspi->Init.Mode == SPI_MODE_MASTER)
 8005228:	68fb      	ldr	r3, [r7, #12]
 800522a:	685b      	ldr	r3, [r3, #4]
 800522c:	f5b3 7f82 	cmp.w	r3, #260	; 0x104
 8005230:	d112      	bne.n	8005258 <SPI_EndRxTxTransaction+0x78>
  {
    /* Control the BSY flag */
    if (SPI_WaitFlagStateUntilTimeout(hspi, SPI_FLAG_BSY, RESET, Timeout, Tickstart) != HAL_OK)
 8005232:	687b      	ldr	r3, [r7, #4]
 8005234:	9300      	str	r3, [sp, #0]
 8005236:	68bb      	ldr	r3, [r7, #8]
 8005238:	2200      	movs	r2, #0
 800523a:	2180      	movs	r1, #128	; 0x80
 800523c:	68f8      	ldr	r0, [r7, #12]
 800523e:	f7ff fee1 	bl	8005004 <SPI_WaitFlagStateUntilTimeout>
 8005242:	4603      	mov	r3, r0
 8005244:	2b00      	cmp	r3, #0
 8005246:	d016      	beq.n	8005276 <SPI_EndRxTxTransaction+0x96>
    {
      SET_BIT(hspi->ErrorCode, HAL_SPI_ERROR_FLAG);
 8005248:	68fb      	ldr	r3, [r7, #12]
 800524a:	6d5b      	ldr	r3, [r3, #84]	; 0x54
 800524c:	f043 0220 	orr.w	r2, r3, #32
 8005250:	68fb      	ldr	r3, [r7, #12]
 8005252:	655a      	str	r2, [r3, #84]	; 0x54
      return HAL_TIMEOUT;
 8005254:	2303      	movs	r3, #3
 8005256:	e00f      	b.n	8005278 <SPI_EndRxTxTransaction+0x98>
    * User have to calculate the timeout value to fit with the time of 1 byte transfer.
    * This time is directly link with the SPI clock from Master device.
    */
    do
    {
      if (count == 0U)
 8005258:	697b      	ldr	r3, [r7, #20]
 800525a:	2b00      	cmp	r3, #0
 800525c:	d00a      	beq.n	8005274 <SPI_EndRxTxTransaction+0x94>
      {
        break;
      }
      count--;
 800525e:	697b      	ldr	r3, [r7, #20]
 8005260:	3b01      	subs	r3, #1
 8005262:	617b      	str	r3, [r7, #20]
    } while (__HAL_SPI_GET_FLAG(hspi, SPI_FLAG_BSY) != RESET);
 8005264:	68fb      	ldr	r3, [r7, #12]
 8005266:	681b      	ldr	r3, [r3, #0]
 8005268:	689b      	ldr	r3, [r3, #8]
 800526a:	f003 0380 	and.w	r3, r3, #128	; 0x80
 800526e:	2b80      	cmp	r3, #128	; 0x80
 8005270:	d0f2      	beq.n	8005258 <SPI_EndRxTxTransaction+0x78>
 8005272:	e000      	b.n	8005276 <SPI_EndRxTxTransaction+0x96>
        break;
 8005274:	bf00      	nop
  }

  return HAL_OK;
 8005276:	2300      	movs	r3, #0
}
 8005278:	4618      	mov	r0, r3
 800527a:	3718      	adds	r7, #24
 800527c:	46bd      	mov	sp, r7
 800527e:	bd80      	pop	{r7, pc}
 8005280:	20000018 	.word	0x20000018
 8005284:	165e9f81 	.word	0x165e9f81

08005288 <HAL_TIM_Base_Init>:
  *         Ex: call @ref HAL_TIM_Base_DeInit() before HAL_TIM_Base_Init()
  * @param  htim TIM Base handle
  * @retval HAL status
  */
HAL_StatusTypeDef HAL_TIM_Base_Init(TIM_HandleTypeDef *htim)
{
 8005288:	b580      	push	{r7, lr}
 800528a:	b082      	sub	sp, #8
 800528c:	af00      	add	r7, sp, #0
 800528e:	6078      	str	r0, [r7, #4]
  /* Check the TIM handle allocation */
  if (htim == NULL)
 8005290:	687b      	ldr	r3, [r7, #4]
 8005292:	2b00      	cmp	r3, #0
 8005294:	d101      	bne.n	800529a <HAL_TIM_Base_Init+0x12>
  {
    return HAL_ERROR;
 8005296:	2301      	movs	r3, #1
 8005298:	e041      	b.n	800531e <HAL_TIM_Base_Init+0x96>
  assert_param(IS_TIM_COUNTER_MODE(htim->Init.CounterMode));
  assert_param(IS_TIM_CLOCKDIVISION_DIV(htim->Init.ClockDivision));
  assert_param(IS_TIM_PERIOD(htim, htim->Init.Period));
  assert_param(IS_TIM_AUTORELOAD_PRELOAD(htim->Init.AutoReloadPreload));

  if (htim->State == HAL_TIM_STATE_RESET)
 800529a:	687b      	ldr	r3, [r7, #4]
 800529c:	f893 303d 	ldrb.w	r3, [r3, #61]	; 0x3d
 80052a0:	b2db      	uxtb	r3, r3
 80052a2:	2b00      	cmp	r3, #0
 80052a4:	d106      	bne.n	80052b4 <HAL_TIM_Base_Init+0x2c>
  {
    /* Allocate lock resource and initialize it */
    htim->Lock = HAL_UNLOCKED;
 80052a6:	687b      	ldr	r3, [r7, #4]
 80052a8:	2200      	movs	r2, #0
 80052aa:	f883 203c 	strb.w	r2, [r3, #60]	; 0x3c
    }
    /* Init the low level hardware : GPIO, CLOCK, NVIC */
    htim->Base_MspInitCallback(htim);
#else
    /* Init the low level hardware : GPIO, CLOCK, NVIC */
    HAL_TIM_Base_MspInit(htim);
 80052ae:	6878      	ldr	r0, [r7, #4]
 80052b0:	f7fc f9dc 	bl	800166c <HAL_TIM_Base_MspInit>
#endif /* USE_HAL_TIM_REGISTER_CALLBACKS */
  }

  /* Set the TIM state */
  htim->State = HAL_TIM_STATE_BUSY;
 80052b4:	687b      	ldr	r3, [r7, #4]
 80052b6:	2202      	movs	r2, #2
 80052b8:	f883 203d 	strb.w	r2, [r3, #61]	; 0x3d

  /* Set the Time Base configuration */
  TIM_Base_SetConfig(htim->Instance, &htim->Init);
 80052bc:	687b      	ldr	r3, [r7, #4]
 80052be:	681a      	ldr	r2, [r3, #0]
 80052c0:	687b      	ldr	r3, [r7, #4]
 80052c2:	3304      	adds	r3, #4
 80052c4:	4619      	mov	r1, r3
 80052c6:	4610      	mov	r0, r2
 80052c8:	f000 f9f0 	bl	80056ac <TIM_Base_SetConfig>

  /* Initialize the DMA burst operation state */
  htim->DMABurstState = HAL_DMA_BURST_STATE_READY;
 80052cc:	687b      	ldr	r3, [r7, #4]
 80052ce:	2201      	movs	r2, #1
 80052d0:	f883 2046 	strb.w	r2, [r3, #70]	; 0x46

  /* Initialize the TIM channels state */
  TIM_CHANNEL_STATE_SET_ALL(htim, HAL_TIM_CHANNEL_STATE_READY);
 80052d4:	687b      	ldr	r3, [r7, #4]
 80052d6:	2201      	movs	r2, #1
 80052d8:	f883 203e 	strb.w	r2, [r3, #62]	; 0x3e
 80052dc:	687b      	ldr	r3, [r7, #4]
 80052de:	2201      	movs	r2, #1
 80052e0:	f883 203f 	strb.w	r2, [r3, #63]	; 0x3f
 80052e4:	687b      	ldr	r3, [r7, #4]
 80052e6:	2201      	movs	r2, #1
 80052e8:	f883 2040 	strb.w	r2, [r3, #64]	; 0x40
 80052ec:	687b      	ldr	r3, [r7, #4]
 80052ee:	2201      	movs	r2, #1
 80052f0:	f883 2041 	strb.w	r2, [r3, #65]	; 0x41
  TIM_CHANNEL_N_STATE_SET_ALL(htim, HAL_TIM_CHANNEL_STATE_READY);
 80052f4:	687b      	ldr	r3, [r7, #4]
 80052f6:	2201      	movs	r2, #1
 80052f8:	f883 2042 	strb.w	r2, [r3, #66]	; 0x42
 80052fc:	687b      	ldr	r3, [r7, #4]
 80052fe:	2201      	movs	r2, #1
 8005300:	f883 2043 	strb.w	r2, [r3, #67]	; 0x43
 8005304:	687b      	ldr	r3, [r7, #4]
 8005306:	2201      	movs	r2, #1
 8005308:	f883 2044 	strb.w	r2, [r3, #68]	; 0x44
 800530c:	687b      	ldr	r3, [r7, #4]
 800530e:	2201      	movs	r2, #1
 8005310:	f883 2045 	strb.w	r2, [r3, #69]	; 0x45

  /* Initialize the TIM state*/
  htim->State = HAL_TIM_STATE_READY;
 8005314:	687b      	ldr	r3, [r7, #4]
 8005316:	2201      	movs	r2, #1
 8005318:	f883 203d 	strb.w	r2, [r3, #61]	; 0x3d

  return HAL_OK;
 800531c:	2300      	movs	r3, #0
}
 800531e:	4618      	mov	r0, r3
 8005320:	3708      	adds	r7, #8
 8005322:	46bd      	mov	sp, r7
 8005324:	bd80      	pop	{r7, pc}
	...

08005328 <HAL_TIM_Base_Start_IT>:
  * @brief  Starts the TIM Base generation in interrupt mode.
  * @param  htim TIM Base handle
  * @retval HAL status
  */
HAL_StatusTypeDef HAL_TIM_Base_Start_IT(TIM_HandleTypeDef *htim)
{
 8005328:	b480      	push	{r7}
 800532a:	b085      	sub	sp, #20
 800532c:	af00      	add	r7, sp, #0
 800532e:	6078      	str	r0, [r7, #4]

  /* Check the parameters */
  assert_param(IS_TIM_INSTANCE(htim->Instance));

  /* Check the TIM state */
  if (htim->State != HAL_TIM_STATE_READY)
 8005330:	687b      	ldr	r3, [r7, #4]
 8005332:	f893 303d 	ldrb.w	r3, [r3, #61]	; 0x3d
 8005336:	b2db      	uxtb	r3, r3
 8005338:	2b01      	cmp	r3, #1
 800533a:	d001      	beq.n	8005340 <HAL_TIM_Base_Start_IT+0x18>
  {
    return HAL_ERROR;
 800533c:	2301      	movs	r3, #1
 800533e:	e04e      	b.n	80053de <HAL_TIM_Base_Start_IT+0xb6>
  }

  /* Set the TIM state */
  htim->State = HAL_TIM_STATE_BUSY;
 8005340:	687b      	ldr	r3, [r7, #4]
 8005342:	2202      	movs	r2, #2
 8005344:	f883 203d 	strb.w	r2, [r3, #61]	; 0x3d

  /* Enable the TIM Update interrupt */
  __HAL_TIM_ENABLE_IT(htim, TIM_IT_UPDATE);
 8005348:	687b      	ldr	r3, [r7, #4]
 800534a:	681b      	ldr	r3, [r3, #0]
 800534c:	68da      	ldr	r2, [r3, #12]
 800534e:	687b      	ldr	r3, [r7, #4]
 8005350:	681b      	ldr	r3, [r3, #0]
 8005352:	f042 0201 	orr.w	r2, r2, #1
 8005356:	60da      	str	r2, [r3, #12]

  /* Enable the Peripheral, except in trigger mode where enable is automatically done with trigger */
  if (IS_TIM_SLAVE_INSTANCE(htim->Instance))
 8005358:	687b      	ldr	r3, [r7, #4]
 800535a:	681b      	ldr	r3, [r3, #0]
 800535c:	4a23      	ldr	r2, [pc, #140]	; (80053ec <HAL_TIM_Base_Start_IT+0xc4>)
 800535e:	4293      	cmp	r3, r2
 8005360:	d022      	beq.n	80053a8 <HAL_TIM_Base_Start_IT+0x80>
 8005362:	687b      	ldr	r3, [r7, #4]
 8005364:	681b      	ldr	r3, [r3, #0]
 8005366:	f1b3 4f80 	cmp.w	r3, #1073741824	; 0x40000000
 800536a:	d01d      	beq.n	80053a8 <HAL_TIM_Base_Start_IT+0x80>
 800536c:	687b      	ldr	r3, [r7, #4]
 800536e:	681b      	ldr	r3, [r3, #0]
 8005370:	4a1f      	ldr	r2, [pc, #124]	; (80053f0 <HAL_TIM_Base_Start_IT+0xc8>)
 8005372:	4293      	cmp	r3, r2
 8005374:	d018      	beq.n	80053a8 <HAL_TIM_Base_Start_IT+0x80>
 8005376:	687b      	ldr	r3, [r7, #4]
 8005378:	681b      	ldr	r3, [r3, #0]
 800537a:	4a1e      	ldr	r2, [pc, #120]	; (80053f4 <HAL_TIM_Base_Start_IT+0xcc>)
 800537c:	4293      	cmp	r3, r2
 800537e:	d013      	beq.n	80053a8 <HAL_TIM_Base_Start_IT+0x80>
 8005380:	687b      	ldr	r3, [r7, #4]
 8005382:	681b      	ldr	r3, [r3, #0]
 8005384:	4a1c      	ldr	r2, [pc, #112]	; (80053f8 <HAL_TIM_Base_Start_IT+0xd0>)
 8005386:	4293      	cmp	r3, r2
 8005388:	d00e      	beq.n	80053a8 <HAL_TIM_Base_Start_IT+0x80>
 800538a:	687b      	ldr	r3, [r7, #4]
 800538c:	681b      	ldr	r3, [r3, #0]
 800538e:	4a1b      	ldr	r2, [pc, #108]	; (80053fc <HAL_TIM_Base_Start_IT+0xd4>)
 8005390:	4293      	cmp	r3, r2
 8005392:	d009      	beq.n	80053a8 <HAL_TIM_Base_Start_IT+0x80>
 8005394:	687b      	ldr	r3, [r7, #4]
 8005396:	681b      	ldr	r3, [r3, #0]
 8005398:	4a19      	ldr	r2, [pc, #100]	; (8005400 <HAL_TIM_Base_Start_IT+0xd8>)
 800539a:	4293      	cmp	r3, r2
 800539c:	d004      	beq.n	80053a8 <HAL_TIM_Base_Start_IT+0x80>
 800539e:	687b      	ldr	r3, [r7, #4]
 80053a0:	681b      	ldr	r3, [r3, #0]
 80053a2:	4a18      	ldr	r2, [pc, #96]	; (8005404 <HAL_TIM_Base_Start_IT+0xdc>)
 80053a4:	4293      	cmp	r3, r2
 80053a6:	d111      	bne.n	80053cc <HAL_TIM_Base_Start_IT+0xa4>
  {
    tmpsmcr = htim->Instance->SMCR & TIM_SMCR_SMS;
 80053a8:	687b      	ldr	r3, [r7, #4]
 80053aa:	681b      	ldr	r3, [r3, #0]
 80053ac:	689b      	ldr	r3, [r3, #8]
 80053ae:	f003 0307 	and.w	r3, r3, #7
 80053b2:	60fb      	str	r3, [r7, #12]
    if (!IS_TIM_SLAVEMODE_TRIGGER_ENABLED(tmpsmcr))
 80053b4:	68fb      	ldr	r3, [r7, #12]
 80053b6:	2b06      	cmp	r3, #6
 80053b8:	d010      	beq.n	80053dc <HAL_TIM_Base_Start_IT+0xb4>
    {
      __HAL_TIM_ENABLE(htim);
 80053ba:	687b      	ldr	r3, [r7, #4]
 80053bc:	681b      	ldr	r3, [r3, #0]
 80053be:	681a      	ldr	r2, [r3, #0]
 80053c0:	687b      	ldr	r3, [r7, #4]
 80053c2:	681b      	ldr	r3, [r3, #0]
 80053c4:	f042 0201 	orr.w	r2, r2, #1
 80053c8:	601a      	str	r2, [r3, #0]
    if (!IS_TIM_SLAVEMODE_TRIGGER_ENABLED(tmpsmcr))
 80053ca:	e007      	b.n	80053dc <HAL_TIM_Base_Start_IT+0xb4>
    }
  }
  else
  {
    __HAL_TIM_ENABLE(htim);
 80053cc:	687b      	ldr	r3, [r7, #4]
 80053ce:	681b      	ldr	r3, [r3, #0]
 80053d0:	681a      	ldr	r2, [r3, #0]
 80053d2:	687b      	ldr	r3, [r7, #4]
 80053d4:	681b      	ldr	r3, [r3, #0]
 80053d6:	f042 0201 	orr.w	r2, r2, #1
 80053da:	601a      	str	r2, [r3, #0]
  }

  /* Return function status */
  return HAL_OK;
 80053dc:	2300      	movs	r3, #0
}
 80053de:	4618      	mov	r0, r3
 80053e0:	3714      	adds	r7, #20
 80053e2:	46bd      	mov	sp, r7
 80053e4:	f85d 7b04 	ldr.w	r7, [sp], #4
 80053e8:	4770      	bx	lr
 80053ea:	bf00      	nop
 80053ec:	40010000 	.word	0x40010000
 80053f0:	40000400 	.word	0x40000400
 80053f4:	40000800 	.word	0x40000800
 80053f8:	40000c00 	.word	0x40000c00
 80053fc:	40010400 	.word	0x40010400
 8005400:	40014000 	.word	0x40014000
 8005404:	40001800 	.word	0x40001800

08005408 <HAL_TIM_Base_Stop_IT>:
  * @brief  Stops the TIM Base generation in interrupt mode.
  * @param  htim TIM Base handle
  * @retval HAL status
  */
HAL_StatusTypeDef HAL_TIM_Base_Stop_IT(TIM_HandleTypeDef *htim)
{
 8005408:	b480      	push	{r7}
 800540a:	b083      	sub	sp, #12
 800540c:	af00      	add	r7, sp, #0
 800540e:	6078      	str	r0, [r7, #4]
  /* Check the parameters */
  assert_param(IS_TIM_INSTANCE(htim->Instance));

  /* Disable the TIM Update interrupt */
  __HAL_TIM_DISABLE_IT(htim, TIM_IT_UPDATE);
 8005410:	687b      	ldr	r3, [r7, #4]
 8005412:	681b      	ldr	r3, [r3, #0]
 8005414:	68da      	ldr	r2, [r3, #12]
 8005416:	687b      	ldr	r3, [r7, #4]
 8005418:	681b      	ldr	r3, [r3, #0]
 800541a:	f022 0201 	bic.w	r2, r2, #1
 800541e:	60da      	str	r2, [r3, #12]

  /* Disable the Peripheral */
  __HAL_TIM_DISABLE(htim);
 8005420:	687b      	ldr	r3, [r7, #4]
 8005422:	681b      	ldr	r3, [r3, #0]
 8005424:	6a1a      	ldr	r2, [r3, #32]
 8005426:	f241 1311 	movw	r3, #4369	; 0x1111
 800542a:	4013      	ands	r3, r2
 800542c:	2b00      	cmp	r3, #0
 800542e:	d10f      	bne.n	8005450 <HAL_TIM_Base_Stop_IT+0x48>
 8005430:	687b      	ldr	r3, [r7, #4]
 8005432:	681b      	ldr	r3, [r3, #0]
 8005434:	6a1a      	ldr	r2, [r3, #32]
 8005436:	f240 4344 	movw	r3, #1092	; 0x444
 800543a:	4013      	ands	r3, r2
 800543c:	2b00      	cmp	r3, #0
 800543e:	d107      	bne.n	8005450 <HAL_TIM_Base_Stop_IT+0x48>
 8005440:	687b      	ldr	r3, [r7, #4]
 8005442:	681b      	ldr	r3, [r3, #0]
 8005444:	681a      	ldr	r2, [r3, #0]
 8005446:	687b      	ldr	r3, [r7, #4]
 8005448:	681b      	ldr	r3, [r3, #0]
 800544a:	f022 0201 	bic.w	r2, r2, #1
 800544e:	601a      	str	r2, [r3, #0]

  /* Set the TIM state */
  htim->State = HAL_TIM_STATE_READY;
 8005450:	687b      	ldr	r3, [r7, #4]
 8005452:	2201      	movs	r2, #1
 8005454:	f883 203d 	strb.w	r2, [r3, #61]	; 0x3d

  /* Return function status */
  return HAL_OK;
 8005458:	2300      	movs	r3, #0
}
 800545a:	4618      	mov	r0, r3
 800545c:	370c      	adds	r7, #12
 800545e:	46bd      	mov	sp, r7
 8005460:	f85d 7b04 	ldr.w	r7, [sp], #4
 8005464:	4770      	bx	lr

08005466 <HAL_TIM_IRQHandler>:
  * @brief  This function handles TIM interrupts requests.
  * @param  htim TIM  handle
  * @retval None
  */
void HAL_TIM_IRQHandler(TIM_HandleTypeDef *htim)
{
 8005466:	b580      	push	{r7, lr}
 8005468:	b084      	sub	sp, #16
 800546a:	af00      	add	r7, sp, #0
 800546c:	6078      	str	r0, [r7, #4]
  uint32_t itsource = htim->Instance->DIER;
 800546e:	687b      	ldr	r3, [r7, #4]
 8005470:	681b      	ldr	r3, [r3, #0]
 8005472:	68db      	ldr	r3, [r3, #12]
 8005474:	60fb      	str	r3, [r7, #12]
  uint32_t itflag   = htim->Instance->SR;
 8005476:	687b      	ldr	r3, [r7, #4]
 8005478:	681b      	ldr	r3, [r3, #0]
 800547a:	691b      	ldr	r3, [r3, #16]
 800547c:	60bb      	str	r3, [r7, #8]

  /* Capture compare 1 event */
  if ((itflag & (TIM_FLAG_CC1)) == (TIM_FLAG_CC1))
 800547e:	68bb      	ldr	r3, [r7, #8]
 8005480:	f003 0302 	and.w	r3, r3, #2
 8005484:	2b00      	cmp	r3, #0
 8005486:	d020      	beq.n	80054ca <HAL_TIM_IRQHandler+0x64>
  {
    if ((itsource & (TIM_IT_CC1)) == (TIM_IT_CC1))
 8005488:	68fb      	ldr	r3, [r7, #12]
 800548a:	f003 0302 	and.w	r3, r3, #2
 800548e:	2b00      	cmp	r3, #0
 8005490:	d01b      	beq.n	80054ca <HAL_TIM_IRQHandler+0x64>
    {
      {
        __HAL_TIM_CLEAR_FLAG(htim, TIM_FLAG_CC1);
 8005492:	687b      	ldr	r3, [r7, #4]
 8005494:	681b      	ldr	r3, [r3, #0]
 8005496:	f06f 0202 	mvn.w	r2, #2
 800549a:	611a      	str	r2, [r3, #16]
        htim->Channel = HAL_TIM_ACTIVE_CHANNEL_1;
 800549c:	687b      	ldr	r3, [r7, #4]
 800549e:	2201      	movs	r2, #1
 80054a0:	771a      	strb	r2, [r3, #28]

        /* Input capture event */
        if ((htim->Instance->CCMR1 & TIM_CCMR1_CC1S) != 0x00U)
 80054a2:	687b      	ldr	r3, [r7, #4]
 80054a4:	681b      	ldr	r3, [r3, #0]
 80054a6:	699b      	ldr	r3, [r3, #24]
 80054a8:	f003 0303 	and.w	r3, r3, #3
 80054ac:	2b00      	cmp	r3, #0
 80054ae:	d003      	beq.n	80054b8 <HAL_TIM_IRQHandler+0x52>
        {
#if (USE_HAL_TIM_REGISTER_CALLBACKS == 1)
          htim->IC_CaptureCallback(htim);
#else
          HAL_TIM_IC_CaptureCallback(htim);
 80054b0:	6878      	ldr	r0, [r7, #4]
 80054b2:	f000 f8dc 	bl	800566e <HAL_TIM_IC_CaptureCallback>
 80054b6:	e005      	b.n	80054c4 <HAL_TIM_IRQHandler+0x5e>
        {
#if (USE_HAL_TIM_REGISTER_CALLBACKS == 1)
          htim->OC_DelayElapsedCallback(htim);
          htim->PWM_PulseFinishedCallback(htim);
#else
          HAL_TIM_OC_DelayElapsedCallback(htim);
 80054b8:	6878      	ldr	r0, [r7, #4]
 80054ba:	f000 f8ce 	bl	800565a <HAL_TIM_OC_DelayElapsedCallback>
          HAL_TIM_PWM_PulseFinishedCallback(htim);
 80054be:	6878      	ldr	r0, [r7, #4]
 80054c0:	f000 f8df 	bl	8005682 <HAL_TIM_PWM_PulseFinishedCallback>
#endif /* USE_HAL_TIM_REGISTER_CALLBACKS */
        }
        htim->Channel = HAL_TIM_ACTIVE_CHANNEL_CLEARED;
 80054c4:	687b      	ldr	r3, [r7, #4]
 80054c6:	2200      	movs	r2, #0
 80054c8:	771a      	strb	r2, [r3, #28]
      }
    }
  }
  /* Capture compare 2 event */
  if ((itflag & (TIM_FLAG_CC2)) == (TIM_FLAG_CC2))
 80054ca:	68bb      	ldr	r3, [r7, #8]
 80054cc:	f003 0304 	and.w	r3, r3, #4
 80054d0:	2b00      	cmp	r3, #0
 80054d2:	d020      	beq.n	8005516 <HAL_TIM_IRQHandler+0xb0>
  {
    if ((itsource & (TIM_IT_CC2)) == (TIM_IT_CC2))
 80054d4:	68fb      	ldr	r3, [r7, #12]
 80054d6:	f003 0304 	and.w	r3, r3, #4
 80054da:	2b00      	cmp	r3, #0
 80054dc:	d01b      	beq.n	8005516 <HAL_TIM_IRQHandler+0xb0>
    {
      __HAL_TIM_CLEAR_FLAG(htim, TIM_FLAG_CC2);
 80054de:	687b      	ldr	r3, [r7, #4]
 80054e0:	681b      	ldr	r3, [r3, #0]
 80054e2:	f06f 0204 	mvn.w	r2, #4
 80054e6:	611a      	str	r2, [r3, #16]
      htim->Channel = HAL_TIM_ACTIVE_CHANNEL_2;
 80054e8:	687b      	ldr	r3, [r7, #4]
 80054ea:	2202      	movs	r2, #2
 80054ec:	771a      	strb	r2, [r3, #28]
      /* Input capture event */
      if ((htim->Instance->CCMR1 & TIM_CCMR1_CC2S) != 0x00U)
 80054ee:	687b      	ldr	r3, [r7, #4]
 80054f0:	681b      	ldr	r3, [r3, #0]
 80054f2:	699b      	ldr	r3, [r3, #24]
 80054f4:	f403 7340 	and.w	r3, r3, #768	; 0x300
 80054f8:	2b00      	cmp	r3, #0
 80054fa:	d003      	beq.n	8005504 <HAL_TIM_IRQHandler+0x9e>
      {
#if (USE_HAL_TIM_REGISTER_CALLBACKS == 1)
        htim->IC_CaptureCallback(htim);
#else
        HAL_TIM_IC_CaptureCallback(htim);
 80054fc:	6878      	ldr	r0, [r7, #4]
 80054fe:	f000 f8b6 	bl	800566e <HAL_TIM_IC_CaptureCallback>
 8005502:	e005      	b.n	8005510 <HAL_TIM_IRQHandler+0xaa>
      {
#if (USE_HAL_TIM_REGISTER_CALLBACKS == 1)
        htim->OC_DelayElapsedCallback(htim);
        htim->PWM_PulseFinishedCallback(htim);
#else
        HAL_TIM_OC_DelayElapsedCallback(htim);
 8005504:	6878      	ldr	r0, [r7, #4]
 8005506:	f000 f8a8 	bl	800565a <HAL_TIM_OC_DelayElapsedCallback>
        HAL_TIM_PWM_PulseFinishedCallback(htim);
 800550a:	6878      	ldr	r0, [r7, #4]
 800550c:	f000 f8b9 	bl	8005682 <HAL_TIM_PWM_PulseFinishedCallback>
#endif /* USE_HAL_TIM_REGISTER_CALLBACKS */
      }
      htim->Channel = HAL_TIM_ACTIVE_CHANNEL_CLEARED;
 8005510:	687b      	ldr	r3, [r7, #4]
 8005512:	2200      	movs	r2, #0
 8005514:	771a      	strb	r2, [r3, #28]
    }
  }
  /* Capture compare 3 event */
  if ((itflag & (TIM_FLAG_CC3)) == (TIM_FLAG_CC3))
 8005516:	68bb      	ldr	r3, [r7, #8]
 8005518:	f003 0308 	and.w	r3, r3, #8
 800551c:	2b00      	cmp	r3, #0
 800551e:	d020      	beq.n	8005562 <HAL_TIM_IRQHandler+0xfc>
  {
    if ((itsource & (TIM_IT_CC3)) == (TIM_IT_CC3))
 8005520:	68fb      	ldr	r3, [r7, #12]
 8005522:	f003 0308 	and.w	r3, r3, #8
 8005526:	2b00      	cmp	r3, #0
 8005528:	d01b      	beq.n	8005562 <HAL_TIM_IRQHandler+0xfc>
    {
      __HAL_TIM_CLEAR_FLAG(htim, TIM_FLAG_CC3);
 800552a:	687b      	ldr	r3, [r7, #4]
 800552c:	681b      	ldr	r3, [r3, #0]
 800552e:	f06f 0208 	mvn.w	r2, #8
 8005532:	611a      	str	r2, [r3, #16]
      htim->Channel = HAL_TIM_ACTIVE_CHANNEL_3;
 8005534:	687b      	ldr	r3, [r7, #4]
 8005536:	2204      	movs	r2, #4
 8005538:	771a      	strb	r2, [r3, #28]
      /* Input capture event */
      if ((htim->Instance->CCMR2 & TIM_CCMR2_CC3S) != 0x00U)
 800553a:	687b      	ldr	r3, [r7, #4]
 800553c:	681b      	ldr	r3, [r3, #0]
 800553e:	69db      	ldr	r3, [r3, #28]
 8005540:	f003 0303 	and.w	r3, r3, #3
 8005544:	2b00      	cmp	r3, #0
 8005546:	d003      	beq.n	8005550 <HAL_TIM_IRQHandler+0xea>
      {
#if (USE_HAL_TIM_REGISTER_CALLBACKS == 1)
        htim->IC_CaptureCallback(htim);
#else
        HAL_TIM_IC_CaptureCallback(htim);
 8005548:	6878      	ldr	r0, [r7, #4]
 800554a:	f000 f890 	bl	800566e <HAL_TIM_IC_CaptureCallback>
 800554e:	e005      	b.n	800555c <HAL_TIM_IRQHandler+0xf6>
      {
#if (USE_HAL_TIM_REGISTER_CALLBACKS == 1)
        htim->OC_DelayElapsedCallback(htim);
        htim->PWM_PulseFinishedCallback(htim);
#else
        HAL_TIM_OC_DelayElapsedCallback(htim);
 8005550:	6878      	ldr	r0, [r7, #4]
 8005552:	f000 f882 	bl	800565a <HAL_TIM_OC_DelayElapsedCallback>
        HAL_TIM_PWM_PulseFinishedCallback(htim);
 8005556:	6878      	ldr	r0, [r7, #4]
 8005558:	f000 f893 	bl	8005682 <HAL_TIM_PWM_PulseFinishedCallback>
#endif /* USE_HAL_TIM_REGISTER_CALLBACKS */
      }
      htim->Channel = HAL_TIM_ACTIVE_CHANNEL_CLEARED;
 800555c:	687b      	ldr	r3, [r7, #4]
 800555e:	2200      	movs	r2, #0
 8005560:	771a      	strb	r2, [r3, #28]
    }
  }
  /* Capture compare 4 event */
  if ((itflag & (TIM_FLAG_CC4)) == (TIM_FLAG_CC4))
 8005562:	68bb      	ldr	r3, [r7, #8]
 8005564:	f003 0310 	and.w	r3, r3, #16
 8005568:	2b00      	cmp	r3, #0
 800556a:	d020      	beq.n	80055ae <HAL_TIM_IRQHandler+0x148>
  {
    if ((itsource & (TIM_IT_CC4)) == (TIM_IT_CC4))
 800556c:	68fb      	ldr	r3, [r7, #12]
 800556e:	f003 0310 	and.w	r3, r3, #16
 8005572:	2b00      	cmp	r3, #0
 8005574:	d01b      	beq.n	80055ae <HAL_TIM_IRQHandler+0x148>
    {
      __HAL_TIM_CLEAR_FLAG(htim, TIM_FLAG_CC4);
 8005576:	687b      	ldr	r3, [r7, #4]
 8005578:	681b      	ldr	r3, [r3, #0]
 800557a:	f06f 0210 	mvn.w	r2, #16
 800557e:	611a      	str	r2, [r3, #16]
      htim->Channel = HAL_TIM_ACTIVE_CHANNEL_4;
 8005580:	687b      	ldr	r3, [r7, #4]
 8005582:	2208      	movs	r2, #8
 8005584:	771a      	strb	r2, [r3, #28]
      /* Input capture event */
      if ((htim->Instance->CCMR2 & TIM_CCMR2_CC4S) != 0x00U)
 8005586:	687b      	ldr	r3, [r7, #4]
 8005588:	681b      	ldr	r3, [r3, #0]
 800558a:	69db      	ldr	r3, [r3, #28]
 800558c:	f403 7340 	and.w	r3, r3, #768	; 0x300
 8005590:	2b00      	cmp	r3, #0
 8005592:	d003      	beq.n	800559c <HAL_TIM_IRQHandler+0x136>
      {
#if (USE_HAL_TIM_REGISTER_CALLBACKS == 1)
        htim->IC_CaptureCallback(htim);
#else
        HAL_TIM_IC_CaptureCallback(htim);
 8005594:	6878      	ldr	r0, [r7, #4]
 8005596:	f000 f86a 	bl	800566e <HAL_TIM_IC_CaptureCallback>
 800559a:	e005      	b.n	80055a8 <HAL_TIM_IRQHandler+0x142>
      {
#if (USE_HAL_TIM_REGISTER_CALLBACKS == 1)
        htim->OC_DelayElapsedCallback(htim);
        htim->PWM_PulseFinishedCallback(htim);
#else
        HAL_TIM_OC_DelayElapsedCallback(htim);
 800559c:	6878      	ldr	r0, [r7, #4]
 800559e:	f000 f85c 	bl	800565a <HAL_TIM_OC_DelayElapsedCallback>
        HAL_TIM_PWM_PulseFinishedCallback(htim);
 80055a2:	6878      	ldr	r0, [r7, #4]
 80055a4:	f000 f86d 	bl	8005682 <HAL_TIM_PWM_PulseFinishedCallback>
#endif /* USE_HAL_TIM_REGISTER_CALLBACKS */
      }
      htim->Channel = HAL_TIM_ACTIVE_CHANNEL_CLEARED;
 80055a8:	687b      	ldr	r3, [r7, #4]
 80055aa:	2200      	movs	r2, #0
 80055ac:	771a      	strb	r2, [r3, #28]
    }
  }
  /* TIM Update event */
  if ((itflag & (TIM_FLAG_UPDATE)) == (TIM_FLAG_UPDATE))
 80055ae:	68bb      	ldr	r3, [r7, #8]
 80055b0:	f003 0301 	and.w	r3, r3, #1
 80055b4:	2b00      	cmp	r3, #0
 80055b6:	d00c      	beq.n	80055d2 <HAL_TIM_IRQHandler+0x16c>
  {
    if ((itsource & (TIM_IT_UPDATE)) == (TIM_IT_UPDATE))
 80055b8:	68fb      	ldr	r3, [r7, #12]
 80055ba:	f003 0301 	and.w	r3, r3, #1
 80055be:	2b00      	cmp	r3, #0
 80055c0:	d007      	beq.n	80055d2 <HAL_TIM_IRQHandler+0x16c>
    {
      __HAL_TIM_CLEAR_FLAG(htim, TIM_FLAG_UPDATE);
 80055c2:	687b      	ldr	r3, [r7, #4]
 80055c4:	681b      	ldr	r3, [r3, #0]
 80055c6:	f06f 0201 	mvn.w	r2, #1
 80055ca:	611a      	str	r2, [r3, #16]
#if (USE_HAL_TIM_REGISTER_CALLBACKS == 1)
      htim->PeriodElapsedCallback(htim);
#else
      HAL_TIM_PeriodElapsedCallback(htim);
 80055cc:	6878      	ldr	r0, [r7, #4]
 80055ce:	f000 f83a 	bl	8005646 <HAL_TIM_PeriodElapsedCallback>
#endif /* USE_HAL_TIM_REGISTER_CALLBACKS */
    }
  }
  /* TIM Break input event */
  if ((itflag & (TIM_FLAG_BREAK)) == (TIM_FLAG_BREAK))
 80055d2:	68bb      	ldr	r3, [r7, #8]
 80055d4:	f003 0380 	and.w	r3, r3, #128	; 0x80
 80055d8:	2b00      	cmp	r3, #0
 80055da:	d00c      	beq.n	80055f6 <HAL_TIM_IRQHandler+0x190>
  {
    if ((itsource & (TIM_IT_BREAK)) == (TIM_IT_BREAK))
 80055dc:	68fb      	ldr	r3, [r7, #12]
 80055de:	f003 0380 	and.w	r3, r3, #128	; 0x80
 80055e2:	2b00      	cmp	r3, #0
 80055e4:	d007      	beq.n	80055f6 <HAL_TIM_IRQHandler+0x190>
    {
      __HAL_TIM_CLEAR_FLAG(htim, TIM_FLAG_BREAK);
 80055e6:	687b      	ldr	r3, [r7, #4]
 80055e8:	681b      	ldr	r3, [r3, #0]
 80055ea:	f06f 0280 	mvn.w	r2, #128	; 0x80
 80055ee:	611a      	str	r2, [r3, #16]
#if (USE_HAL_TIM_REGISTER_CALLBACKS == 1)
      htim->BreakCallback(htim);
#else
      HAL_TIMEx_BreakCallback(htim);
 80055f0:	6878      	ldr	r0, [r7, #4]
 80055f2:	f000 f98d 	bl	8005910 <HAL_TIMEx_BreakCallback>
#endif /* USE_HAL_TIM_REGISTER_CALLBACKS */
    }
  }
  /* TIM Trigger detection event */
  if ((itflag & (TIM_FLAG_TRIGGER)) == (TIM_FLAG_TRIGGER))
 80055f6:	68bb      	ldr	r3, [r7, #8]
 80055f8:	f003 0340 	and.w	r3, r3, #64	; 0x40
 80055fc:	2b00      	cmp	r3, #0
 80055fe:	d00c      	beq.n	800561a <HAL_TIM_IRQHandler+0x1b4>
  {
    if ((itsource & (TIM_IT_TRIGGER)) == (TIM_IT_TRIGGER))
 8005600:	68fb      	ldr	r3, [r7, #12]
 8005602:	f003 0340 	and.w	r3, r3, #64	; 0x40
 8005606:	2b00      	cmp	r3, #0
 8005608:	d007      	beq.n	800561a <HAL_TIM_IRQHandler+0x1b4>
    {
      __HAL_TIM_CLEAR_FLAG(htim, TIM_FLAG_TRIGGER);
 800560a:	687b      	ldr	r3, [r7, #4]
 800560c:	681b      	ldr	r3, [r3, #0]
 800560e:	f06f 0240 	mvn.w	r2, #64	; 0x40
 8005612:	611a      	str	r2, [r3, #16]
#if (USE_HAL_TIM_REGISTER_CALLBACKS == 1)
      htim->TriggerCallback(htim);
#else
      HAL_TIM_TriggerCallback(htim);
 8005614:	6878      	ldr	r0, [r7, #4]
 8005616:	f000 f83e 	bl	8005696 <HAL_TIM_TriggerCallback>
#endif /* USE_HAL_TIM_REGISTER_CALLBACKS */
    }
  }
  /* TIM commutation event */
  if ((itflag & (TIM_FLAG_COM)) == (TIM_FLAG_COM))
 800561a:	68bb      	ldr	r3, [r7, #8]
 800561c:	f003 0320 	and.w	r3, r3, #32
 8005620:	2b00      	cmp	r3, #0
 8005622:	d00c      	beq.n	800563e <HAL_TIM_IRQHandler+0x1d8>
  {
    if ((itsource & (TIM_IT_COM)) == (TIM_IT_COM))
 8005624:	68fb      	ldr	r3, [r7, #12]
 8005626:	f003 0320 	and.w	r3, r3, #32
 800562a:	2b00      	cmp	r3, #0
 800562c:	d007      	beq.n	800563e <HAL_TIM_IRQHandler+0x1d8>
    {
      __HAL_TIM_CLEAR_FLAG(htim, TIM_FLAG_COM);
 800562e:	687b      	ldr	r3, [r7, #4]
 8005630:	681b      	ldr	r3, [r3, #0]
 8005632:	f06f 0220 	mvn.w	r2, #32
 8005636:	611a      	str	r2, [r3, #16]
#if (USE_HAL_TIM_REGISTER_CALLBACKS == 1)
      htim->CommutationCallback(htim);
#else
      HAL_TIMEx_CommutCallback(htim);
 8005638:	6878      	ldr	r0, [r7, #4]
 800563a:	f000 f95f 	bl	80058fc <HAL_TIMEx_CommutCallback>
#endif /* USE_HAL_TIM_REGISTER_CALLBACKS */
    }
  }
}
 800563e:	bf00      	nop
 8005640:	3710      	adds	r7, #16
 8005642:	46bd      	mov	sp, r7
 8005644:	bd80      	pop	{r7, pc}

08005646 <HAL_TIM_PeriodElapsedCallback>:
  * @brief  Period elapsed callback in non-blocking mode
  * @param  htim TIM handle
  * @retval None
  */
__weak void HAL_TIM_PeriodElapsedCallback(TIM_HandleTypeDef *htim)
{
 8005646:	b480      	push	{r7}
 8005648:	b083      	sub	sp, #12
 800564a:	af00      	add	r7, sp, #0
 800564c:	6078      	str	r0, [r7, #4]
  UNUSED(htim);

  /* NOTE : This function should not be modified, when the callback is needed,
            the HAL_TIM_PeriodElapsedCallback could be implemented in the user file
   */
}
 800564e:	bf00      	nop
 8005650:	370c      	adds	r7, #12
 8005652:	46bd      	mov	sp, r7
 8005654:	f85d 7b04 	ldr.w	r7, [sp], #4
 8005658:	4770      	bx	lr

0800565a <HAL_TIM_OC_DelayElapsedCallback>:
  * @brief  Output Compare callback in non-blocking mode
  * @param  htim TIM OC handle
  * @retval None
  */
__weak void HAL_TIM_OC_DelayElapsedCallback(TIM_HandleTypeDef *htim)
{
 800565a:	b480      	push	{r7}
 800565c:	b083      	sub	sp, #12
 800565e:	af00      	add	r7, sp, #0
 8005660:	6078      	str	r0, [r7, #4]
  UNUSED(htim);

  /* NOTE : This function should not be modified, when the callback is needed,
            the HAL_TIM_OC_DelayElapsedCallback could be implemented in the user file
   */
}
 8005662:	bf00      	nop
 8005664:	370c      	adds	r7, #12
 8005666:	46bd      	mov	sp, r7
 8005668:	f85d 7b04 	ldr.w	r7, [sp], #4
 800566c:	4770      	bx	lr

0800566e <HAL_TIM_IC_CaptureCallback>:
  * @brief  Input Capture callback in non-blocking mode
  * @param  htim TIM IC handle
  * @retval None
  */
__weak void HAL_TIM_IC_CaptureCallback(TIM_HandleTypeDef *htim)
{
 800566e:	b480      	push	{r7}
 8005670:	b083      	sub	sp, #12
 8005672:	af00      	add	r7, sp, #0
 8005674:	6078      	str	r0, [r7, #4]
  UNUSED(htim);

  /* NOTE : This function should not be modified, when the callback is needed,
            the HAL_TIM_IC_CaptureCallback could be implemented in the user file
   */
}
 8005676:	bf00      	nop
 8005678:	370c      	adds	r7, #12
 800567a:	46bd      	mov	sp, r7
 800567c:	f85d 7b04 	ldr.w	r7, [sp], #4
 8005680:	4770      	bx	lr

08005682 <HAL_TIM_PWM_PulseFinishedCallback>:
  * @brief  PWM Pulse finished callback in non-blocking mode
  * @param  htim TIM handle
  * @retval None
  */
__weak void HAL_TIM_PWM_PulseFinishedCallback(TIM_HandleTypeDef *htim)
{
 8005682:	b480      	push	{r7}
 8005684:	b083      	sub	sp, #12
 8005686:	af00      	add	r7, sp, #0
 8005688:	6078      	str	r0, [r7, #4]
  UNUSED(htim);

  /* NOTE : This function should not be modified, when the callback is needed,
            the HAL_TIM_PWM_PulseFinishedCallback could be implemented in the user file
   */
}
 800568a:	bf00      	nop
 800568c:	370c      	adds	r7, #12
 800568e:	46bd      	mov	sp, r7
 8005690:	f85d 7b04 	ldr.w	r7, [sp], #4
 8005694:	4770      	bx	lr

08005696 <HAL_TIM_TriggerCallback>:
  * @brief  Hall Trigger detection callback in non-blocking mode
  * @param  htim TIM handle
  * @retval None
  */
__weak void HAL_TIM_TriggerCallback(TIM_HandleTypeDef *htim)
{
 8005696:	b480      	push	{r7}
 8005698:	b083      	sub	sp, #12
 800569a:	af00      	add	r7, sp, #0
 800569c:	6078      	str	r0, [r7, #4]
  UNUSED(htim);

  /* NOTE : This function should not be modified, when the callback is needed,
            the HAL_TIM_TriggerCallback could be implemented in the user file
   */
}
 800569e:	bf00      	nop
 80056a0:	370c      	adds	r7, #12
 80056a2:	46bd      	mov	sp, r7
 80056a4:	f85d 7b04 	ldr.w	r7, [sp], #4
 80056a8:	4770      	bx	lr
	...

080056ac <TIM_Base_SetConfig>:
  * @param  TIMx TIM peripheral
  * @param  Structure TIM Base configuration structure
  * @retval None
  */
void TIM_Base_SetConfig(TIM_TypeDef *TIMx, const TIM_Base_InitTypeDef *Structure)
{
 80056ac:	b480      	push	{r7}
 80056ae:	b085      	sub	sp, #20
 80056b0:	af00      	add	r7, sp, #0
 80056b2:	6078      	str	r0, [r7, #4]
 80056b4:	6039      	str	r1, [r7, #0]
  uint32_t tmpcr1;
  tmpcr1 = TIMx->CR1;
 80056b6:	687b      	ldr	r3, [r7, #4]
 80056b8:	681b      	ldr	r3, [r3, #0]
 80056ba:	60fb      	str	r3, [r7, #12]

  /* Set TIM Time Base Unit parameters ---------------------------------------*/
  if (IS_TIM_COUNTER_MODE_SELECT_INSTANCE(TIMx))
 80056bc:	687b      	ldr	r3, [r7, #4]
 80056be:	4a46      	ldr	r2, [pc, #280]	; (80057d8 <TIM_Base_SetConfig+0x12c>)
 80056c0:	4293      	cmp	r3, r2
 80056c2:	d013      	beq.n	80056ec <TIM_Base_SetConfig+0x40>
 80056c4:	687b      	ldr	r3, [r7, #4]
 80056c6:	f1b3 4f80 	cmp.w	r3, #1073741824	; 0x40000000
 80056ca:	d00f      	beq.n	80056ec <TIM_Base_SetConfig+0x40>
 80056cc:	687b      	ldr	r3, [r7, #4]
 80056ce:	4a43      	ldr	r2, [pc, #268]	; (80057dc <TIM_Base_SetConfig+0x130>)
 80056d0:	4293      	cmp	r3, r2
 80056d2:	d00b      	beq.n	80056ec <TIM_Base_SetConfig+0x40>
 80056d4:	687b      	ldr	r3, [r7, #4]
 80056d6:	4a42      	ldr	r2, [pc, #264]	; (80057e0 <TIM_Base_SetConfig+0x134>)
 80056d8:	4293      	cmp	r3, r2
 80056da:	d007      	beq.n	80056ec <TIM_Base_SetConfig+0x40>
 80056dc:	687b      	ldr	r3, [r7, #4]
 80056de:	4a41      	ldr	r2, [pc, #260]	; (80057e4 <TIM_Base_SetConfig+0x138>)
 80056e0:	4293      	cmp	r3, r2
 80056e2:	d003      	beq.n	80056ec <TIM_Base_SetConfig+0x40>
 80056e4:	687b      	ldr	r3, [r7, #4]
 80056e6:	4a40      	ldr	r2, [pc, #256]	; (80057e8 <TIM_Base_SetConfig+0x13c>)
 80056e8:	4293      	cmp	r3, r2
 80056ea:	d108      	bne.n	80056fe <TIM_Base_SetConfig+0x52>
  {
    /* Select the Counter Mode */
    tmpcr1 &= ~(TIM_CR1_DIR | TIM_CR1_CMS);
 80056ec:	68fb      	ldr	r3, [r7, #12]
 80056ee:	f023 0370 	bic.w	r3, r3, #112	; 0x70
 80056f2:	60fb      	str	r3, [r7, #12]
    tmpcr1 |= Structure->CounterMode;
 80056f4:	683b      	ldr	r3, [r7, #0]
 80056f6:	685b      	ldr	r3, [r3, #4]
 80056f8:	68fa      	ldr	r2, [r7, #12]
 80056fa:	4313      	orrs	r3, r2
 80056fc:	60fb      	str	r3, [r7, #12]
  }

  if (IS_TIM_CLOCK_DIVISION_INSTANCE(TIMx))
 80056fe:	687b      	ldr	r3, [r7, #4]
 8005700:	4a35      	ldr	r2, [pc, #212]	; (80057d8 <TIM_Base_SetConfig+0x12c>)
 8005702:	4293      	cmp	r3, r2
 8005704:	d02b      	beq.n	800575e <TIM_Base_SetConfig+0xb2>
 8005706:	687b      	ldr	r3, [r7, #4]
 8005708:	f1b3 4f80 	cmp.w	r3, #1073741824	; 0x40000000
 800570c:	d027      	beq.n	800575e <TIM_Base_SetConfig+0xb2>
 800570e:	687b      	ldr	r3, [r7, #4]
 8005710:	4a32      	ldr	r2, [pc, #200]	; (80057dc <TIM_Base_SetConfig+0x130>)
 8005712:	4293      	cmp	r3, r2
 8005714:	d023      	beq.n	800575e <TIM_Base_SetConfig+0xb2>
 8005716:	687b      	ldr	r3, [r7, #4]
 8005718:	4a31      	ldr	r2, [pc, #196]	; (80057e0 <TIM_Base_SetConfig+0x134>)
 800571a:	4293      	cmp	r3, r2
 800571c:	d01f      	beq.n	800575e <TIM_Base_SetConfig+0xb2>
 800571e:	687b      	ldr	r3, [r7, #4]
 8005720:	4a30      	ldr	r2, [pc, #192]	; (80057e4 <TIM_Base_SetConfig+0x138>)
 8005722:	4293      	cmp	r3, r2
 8005724:	d01b      	beq.n	800575e <TIM_Base_SetConfig+0xb2>
 8005726:	687b      	ldr	r3, [r7, #4]
 8005728:	4a2f      	ldr	r2, [pc, #188]	; (80057e8 <TIM_Base_SetConfig+0x13c>)
 800572a:	4293      	cmp	r3, r2
 800572c:	d017      	beq.n	800575e <TIM_Base_SetConfig+0xb2>
 800572e:	687b      	ldr	r3, [r7, #4]
 8005730:	4a2e      	ldr	r2, [pc, #184]	; (80057ec <TIM_Base_SetConfig+0x140>)
 8005732:	4293      	cmp	r3, r2
 8005734:	d013      	beq.n	800575e <TIM_Base_SetConfig+0xb2>
 8005736:	687b      	ldr	r3, [r7, #4]
 8005738:	4a2d      	ldr	r2, [pc, #180]	; (80057f0 <TIM_Base_SetConfig+0x144>)
 800573a:	4293      	cmp	r3, r2
 800573c:	d00f      	beq.n	800575e <TIM_Base_SetConfig+0xb2>
 800573e:	687b      	ldr	r3, [r7, #4]
 8005740:	4a2c      	ldr	r2, [pc, #176]	; (80057f4 <TIM_Base_SetConfig+0x148>)
 8005742:	4293      	cmp	r3, r2
 8005744:	d00b      	beq.n	800575e <TIM_Base_SetConfig+0xb2>
 8005746:	687b      	ldr	r3, [r7, #4]
 8005748:	4a2b      	ldr	r2, [pc, #172]	; (80057f8 <TIM_Base_SetConfig+0x14c>)
 800574a:	4293      	cmp	r3, r2
 800574c:	d007      	beq.n	800575e <TIM_Base_SetConfig+0xb2>
 800574e:	687b      	ldr	r3, [r7, #4]
 8005750:	4a2a      	ldr	r2, [pc, #168]	; (80057fc <TIM_Base_SetConfig+0x150>)
 8005752:	4293      	cmp	r3, r2
 8005754:	d003      	beq.n	800575e <TIM_Base_SetConfig+0xb2>
 8005756:	687b      	ldr	r3, [r7, #4]
 8005758:	4a29      	ldr	r2, [pc, #164]	; (8005800 <TIM_Base_SetConfig+0x154>)
 800575a:	4293      	cmp	r3, r2
 800575c:	d108      	bne.n	8005770 <TIM_Base_SetConfig+0xc4>
  {
    /* Set the clock division */
    tmpcr1 &= ~TIM_CR1_CKD;
 800575e:	68fb      	ldr	r3, [r7, #12]
 8005760:	f423 7340 	bic.w	r3, r3, #768	; 0x300
 8005764:	60fb      	str	r3, [r7, #12]
    tmpcr1 |= (uint32_t)Structure->ClockDivision;
 8005766:	683b      	ldr	r3, [r7, #0]
 8005768:	68db      	ldr	r3, [r3, #12]
 800576a:	68fa      	ldr	r2, [r7, #12]
 800576c:	4313      	orrs	r3, r2
 800576e:	60fb      	str	r3, [r7, #12]
  }

  /* Set the auto-reload preload */
  MODIFY_REG(tmpcr1, TIM_CR1_ARPE, Structure->AutoReloadPreload);
 8005770:	68fb      	ldr	r3, [r7, #12]
 8005772:	f023 0280 	bic.w	r2, r3, #128	; 0x80
 8005776:	683b      	ldr	r3, [r7, #0]
 8005778:	695b      	ldr	r3, [r3, #20]
 800577a:	4313      	orrs	r3, r2
 800577c:	60fb      	str	r3, [r7, #12]

  TIMx->CR1 = tmpcr1;
 800577e:	687b      	ldr	r3, [r7, #4]
 8005780:	68fa      	ldr	r2, [r7, #12]
 8005782:	601a      	str	r2, [r3, #0]

  /* Set the Autoreload value */
  TIMx->ARR = (uint32_t)Structure->Period ;
 8005784:	683b      	ldr	r3, [r7, #0]
 8005786:	689a      	ldr	r2, [r3, #8]
 8005788:	687b      	ldr	r3, [r7, #4]
 800578a:	62da      	str	r2, [r3, #44]	; 0x2c

  /* Set the Prescaler value */
  TIMx->PSC = Structure->Prescaler;
 800578c:	683b      	ldr	r3, [r7, #0]
 800578e:	681a      	ldr	r2, [r3, #0]
 8005790:	687b      	ldr	r3, [r7, #4]
 8005792:	629a      	str	r2, [r3, #40]	; 0x28

  if (IS_TIM_REPETITION_COUNTER_INSTANCE(TIMx))
 8005794:	687b      	ldr	r3, [r7, #4]
 8005796:	4a10      	ldr	r2, [pc, #64]	; (80057d8 <TIM_Base_SetConfig+0x12c>)
 8005798:	4293      	cmp	r3, r2
 800579a:	d003      	beq.n	80057a4 <TIM_Base_SetConfig+0xf8>
 800579c:	687b      	ldr	r3, [r7, #4]
 800579e:	4a12      	ldr	r2, [pc, #72]	; (80057e8 <TIM_Base_SetConfig+0x13c>)
 80057a0:	4293      	cmp	r3, r2
 80057a2:	d103      	bne.n	80057ac <TIM_Base_SetConfig+0x100>
  {
    /* Set the Repetition Counter value */
    TIMx->RCR = Structure->RepetitionCounter;
 80057a4:	683b      	ldr	r3, [r7, #0]
 80057a6:	691a      	ldr	r2, [r3, #16]
 80057a8:	687b      	ldr	r3, [r7, #4]
 80057aa:	631a      	str	r2, [r3, #48]	; 0x30
  }

  /* Generate an update event to reload the Prescaler
     and the repetition counter (only for advanced timer) value immediately */
  TIMx->EGR = TIM_EGR_UG;
 80057ac:	687b      	ldr	r3, [r7, #4]
 80057ae:	2201      	movs	r2, #1
 80057b0:	615a      	str	r2, [r3, #20]

  /* Check if the update flag is set after the Update Generation, if so clear the UIF flag */
  if (HAL_IS_BIT_SET(TIMx->SR, TIM_FLAG_UPDATE))
 80057b2:	687b      	ldr	r3, [r7, #4]
 80057b4:	691b      	ldr	r3, [r3, #16]
 80057b6:	f003 0301 	and.w	r3, r3, #1
 80057ba:	2b01      	cmp	r3, #1
 80057bc:	d105      	bne.n	80057ca <TIM_Base_SetConfig+0x11e>
  {
    /* Clear the update flag */
    CLEAR_BIT(TIMx->SR, TIM_FLAG_UPDATE);
 80057be:	687b      	ldr	r3, [r7, #4]
 80057c0:	691b      	ldr	r3, [r3, #16]
 80057c2:	f023 0201 	bic.w	r2, r3, #1
 80057c6:	687b      	ldr	r3, [r7, #4]
 80057c8:	611a      	str	r2, [r3, #16]
  }
}
 80057ca:	bf00      	nop
 80057cc:	3714      	adds	r7, #20
 80057ce:	46bd      	mov	sp, r7
 80057d0:	f85d 7b04 	ldr.w	r7, [sp], #4
 80057d4:	4770      	bx	lr
 80057d6:	bf00      	nop
 80057d8:	40010000 	.word	0x40010000
 80057dc:	40000400 	.word	0x40000400
 80057e0:	40000800 	.word	0x40000800
 80057e4:	40000c00 	.word	0x40000c00
 80057e8:	40010400 	.word	0x40010400
 80057ec:	40014000 	.word	0x40014000
 80057f0:	40014400 	.word	0x40014400
 80057f4:	40014800 	.word	0x40014800
 80057f8:	40001800 	.word	0x40001800
 80057fc:	40001c00 	.word	0x40001c00
 8005800:	40002000 	.word	0x40002000

08005804 <HAL_TIMEx_MasterConfigSynchronization>:
  *         mode.
  * @retval HAL status
  */
HAL_StatusTypeDef HAL_TIMEx_MasterConfigSynchronization(TIM_HandleTypeDef *htim,
                                                        const TIM_MasterConfigTypeDef *sMasterConfig)
{
 8005804:	b480      	push	{r7}
 8005806:	b085      	sub	sp, #20
 8005808:	af00      	add	r7, sp, #0
 800580a:	6078      	str	r0, [r7, #4]
 800580c:	6039      	str	r1, [r7, #0]
  assert_param(IS_TIM_MASTER_INSTANCE(htim->Instance));
  assert_param(IS_TIM_TRGO_SOURCE(sMasterConfig->MasterOutputTrigger));
  assert_param(IS_TIM_MSM_STATE(sMasterConfig->MasterSlaveMode));

  /* Check input state */
  __HAL_LOCK(htim);
 800580e:	687b      	ldr	r3, [r7, #4]
 8005810:	f893 303c 	ldrb.w	r3, [r3, #60]	; 0x3c
 8005814:	2b01      	cmp	r3, #1
 8005816:	d101      	bne.n	800581c <HAL_TIMEx_MasterConfigSynchronization+0x18>
 8005818:	2302      	movs	r3, #2
 800581a:	e05a      	b.n	80058d2 <HAL_TIMEx_MasterConfigSynchronization+0xce>
 800581c:	687b      	ldr	r3, [r7, #4]
 800581e:	2201      	movs	r2, #1
 8005820:	f883 203c 	strb.w	r2, [r3, #60]	; 0x3c

  /* Change the handler state */
  htim->State = HAL_TIM_STATE_BUSY;
 8005824:	687b      	ldr	r3, [r7, #4]
 8005826:	2202      	movs	r2, #2
 8005828:	f883 203d 	strb.w	r2, [r3, #61]	; 0x3d

  /* Get the TIMx CR2 register value */
  tmpcr2 = htim->Instance->CR2;
 800582c:	687b      	ldr	r3, [r7, #4]
 800582e:	681b      	ldr	r3, [r3, #0]
 8005830:	685b      	ldr	r3, [r3, #4]
 8005832:	60fb      	str	r3, [r7, #12]

  /* Get the TIMx SMCR register value */
  tmpsmcr = htim->Instance->SMCR;
 8005834:	687b      	ldr	r3, [r7, #4]
 8005836:	681b      	ldr	r3, [r3, #0]
 8005838:	689b      	ldr	r3, [r3, #8]
 800583a:	60bb      	str	r3, [r7, #8]

  /* Reset the MMS Bits */
  tmpcr2 &= ~TIM_CR2_MMS;
 800583c:	68fb      	ldr	r3, [r7, #12]
 800583e:	f023 0370 	bic.w	r3, r3, #112	; 0x70
 8005842:	60fb      	str	r3, [r7, #12]
  /* Select the TRGO source */
  tmpcr2 |=  sMasterConfig->MasterOutputTrigger;
 8005844:	683b      	ldr	r3, [r7, #0]
 8005846:	681b      	ldr	r3, [r3, #0]
 8005848:	68fa      	ldr	r2, [r7, #12]
 800584a:	4313      	orrs	r3, r2
 800584c:	60fb      	str	r3, [r7, #12]

  /* Update TIMx CR2 */
  htim->Instance->CR2 = tmpcr2;
 800584e:	687b      	ldr	r3, [r7, #4]
 8005850:	681b      	ldr	r3, [r3, #0]
 8005852:	68fa      	ldr	r2, [r7, #12]
 8005854:	605a      	str	r2, [r3, #4]

  if (IS_TIM_SLAVE_INSTANCE(htim->Instance))
 8005856:	687b      	ldr	r3, [r7, #4]
 8005858:	681b      	ldr	r3, [r3, #0]
 800585a:	4a21      	ldr	r2, [pc, #132]	; (80058e0 <HAL_TIMEx_MasterConfigSynchronization+0xdc>)
 800585c:	4293      	cmp	r3, r2
 800585e:	d022      	beq.n	80058a6 <HAL_TIMEx_MasterConfigSynchronization+0xa2>
 8005860:	687b      	ldr	r3, [r7, #4]
 8005862:	681b      	ldr	r3, [r3, #0]
 8005864:	f1b3 4f80 	cmp.w	r3, #1073741824	; 0x40000000
 8005868:	d01d      	beq.n	80058a6 <HAL_TIMEx_MasterConfigSynchronization+0xa2>
 800586a:	687b      	ldr	r3, [r7, #4]
 800586c:	681b      	ldr	r3, [r3, #0]
 800586e:	4a1d      	ldr	r2, [pc, #116]	; (80058e4 <HAL_TIMEx_MasterConfigSynchronization+0xe0>)
 8005870:	4293      	cmp	r3, r2
 8005872:	d018      	beq.n	80058a6 <HAL_TIMEx_MasterConfigSynchronization+0xa2>
 8005874:	687b      	ldr	r3, [r7, #4]
 8005876:	681b      	ldr	r3, [r3, #0]
 8005878:	4a1b      	ldr	r2, [pc, #108]	; (80058e8 <HAL_TIMEx_MasterConfigSynchronization+0xe4>)
 800587a:	4293      	cmp	r3, r2
 800587c:	d013      	beq.n	80058a6 <HAL_TIMEx_MasterConfigSynchronization+0xa2>
 800587e:	687b      	ldr	r3, [r7, #4]
 8005880:	681b      	ldr	r3, [r3, #0]
 8005882:	4a1a      	ldr	r2, [pc, #104]	; (80058ec <HAL_TIMEx_MasterConfigSynchronization+0xe8>)
 8005884:	4293      	cmp	r3, r2
 8005886:	d00e      	beq.n	80058a6 <HAL_TIMEx_MasterConfigSynchronization+0xa2>
 8005888:	687b      	ldr	r3, [r7, #4]
 800588a:	681b      	ldr	r3, [r3, #0]
 800588c:	4a18      	ldr	r2, [pc, #96]	; (80058f0 <HAL_TIMEx_MasterConfigSynchronization+0xec>)
 800588e:	4293      	cmp	r3, r2
 8005890:	d009      	beq.n	80058a6 <HAL_TIMEx_MasterConfigSynchronization+0xa2>
 8005892:	687b      	ldr	r3, [r7, #4]
 8005894:	681b      	ldr	r3, [r3, #0]
 8005896:	4a17      	ldr	r2, [pc, #92]	; (80058f4 <HAL_TIMEx_MasterConfigSynchronization+0xf0>)
 8005898:	4293      	cmp	r3, r2
 800589a:	d004      	beq.n	80058a6 <HAL_TIMEx_MasterConfigSynchronization+0xa2>
 800589c:	687b      	ldr	r3, [r7, #4]
 800589e:	681b      	ldr	r3, [r3, #0]
 80058a0:	4a15      	ldr	r2, [pc, #84]	; (80058f8 <HAL_TIMEx_MasterConfigSynchronization+0xf4>)
 80058a2:	4293      	cmp	r3, r2
 80058a4:	d10c      	bne.n	80058c0 <HAL_TIMEx_MasterConfigSynchronization+0xbc>
  {
    /* Reset the MSM Bit */
    tmpsmcr &= ~TIM_SMCR_MSM;
 80058a6:	68bb      	ldr	r3, [r7, #8]
 80058a8:	f023 0380 	bic.w	r3, r3, #128	; 0x80
 80058ac:	60bb      	str	r3, [r7, #8]
    /* Set master mode */
    tmpsmcr |= sMasterConfig->MasterSlaveMode;
 80058ae:	683b      	ldr	r3, [r7, #0]
 80058b0:	685b      	ldr	r3, [r3, #4]
 80058b2:	68ba      	ldr	r2, [r7, #8]
 80058b4:	4313      	orrs	r3, r2
 80058b6:	60bb      	str	r3, [r7, #8]

    /* Update TIMx SMCR */
    htim->Instance->SMCR = tmpsmcr;
 80058b8:	687b      	ldr	r3, [r7, #4]
 80058ba:	681b      	ldr	r3, [r3, #0]
 80058bc:	68ba      	ldr	r2, [r7, #8]
 80058be:	609a      	str	r2, [r3, #8]
  }

  /* Change the htim state */
  htim->State = HAL_TIM_STATE_READY;
 80058c0:	687b      	ldr	r3, [r7, #4]
 80058c2:	2201      	movs	r2, #1
 80058c4:	f883 203d 	strb.w	r2, [r3, #61]	; 0x3d

  __HAL_UNLOCK(htim);
 80058c8:	687b      	ldr	r3, [r7, #4]
 80058ca:	2200      	movs	r2, #0
 80058cc:	f883 203c 	strb.w	r2, [r3, #60]	; 0x3c

  return HAL_OK;
 80058d0:	2300      	movs	r3, #0
}
 80058d2:	4618      	mov	r0, r3
 80058d4:	3714      	adds	r7, #20
 80058d6:	46bd      	mov	sp, r7
 80058d8:	f85d 7b04 	ldr.w	r7, [sp], #4
 80058dc:	4770      	bx	lr
 80058de:	bf00      	nop
 80058e0:	40010000 	.word	0x40010000
 80058e4:	40000400 	.word	0x40000400
 80058e8:	40000800 	.word	0x40000800
 80058ec:	40000c00 	.word	0x40000c00
 80058f0:	40010400 	.word	0x40010400
 80058f4:	40014000 	.word	0x40014000
 80058f8:	40001800 	.word	0x40001800

080058fc <HAL_TIMEx_CommutCallback>:
  * @brief  Commutation callback in non-blocking mode
  * @param  htim TIM handle
  * @retval None
  */
__weak void HAL_TIMEx_CommutCallback(TIM_HandleTypeDef *htim)
{
 80058fc:	b480      	push	{r7}
 80058fe:	b083      	sub	sp, #12
 8005900:	af00      	add	r7, sp, #0
 8005902:	6078      	str	r0, [r7, #4]
  UNUSED(htim);

  /* NOTE : This function should not be modified, when the callback is needed,
            the HAL_TIMEx_CommutCallback could be implemented in the user file
   */
}
 8005904:	bf00      	nop
 8005906:	370c      	adds	r7, #12
 8005908:	46bd      	mov	sp, r7
 800590a:	f85d 7b04 	ldr.w	r7, [sp], #4
 800590e:	4770      	bx	lr

08005910 <HAL_TIMEx_BreakCallback>:
  * @brief  Break detection callback in non-blocking mode
  * @param  htim TIM handle
  * @retval None
  */
__weak void HAL_TIMEx_BreakCallback(TIM_HandleTypeDef *htim)
{
 8005910:	b480      	push	{r7}
 8005912:	b083      	sub	sp, #12
 8005914:	af00      	add	r7, sp, #0
 8005916:	6078      	str	r0, [r7, #4]
  UNUSED(htim);

  /* NOTE : This function should not be modified, when the callback is needed,
            the HAL_TIMEx_BreakCallback could be implemented in the user file
   */
}
 8005918:	bf00      	nop
 800591a:	370c      	adds	r7, #12
 800591c:	46bd      	mov	sp, r7
 800591e:	f85d 7b04 	ldr.w	r7, [sp], #4
 8005922:	4770      	bx	lr

08005924 <HAL_UART_Init>:
  * @param  huart  Pointer to a UART_HandleTypeDef structure that contains
  *                the configuration information for the specified UART module.
  * @retval HAL status
  */
HAL_StatusTypeDef HAL_UART_Init(UART_HandleTypeDef *huart)
{
 8005924:	b580      	push	{r7, lr}
 8005926:	b082      	sub	sp, #8
 8005928:	af00      	add	r7, sp, #0
 800592a:	6078      	str	r0, [r7, #4]
  /* Check the UART handle allocation */
  if (huart == NULL)
 800592c:	687b      	ldr	r3, [r7, #4]
 800592e:	2b00      	cmp	r3, #0
 8005930:	d101      	bne.n	8005936 <HAL_UART_Init+0x12>
  {
    return HAL_ERROR;
 8005932:	2301      	movs	r3, #1
 8005934:	e042      	b.n	80059bc <HAL_UART_Init+0x98>
    assert_param(IS_UART_INSTANCE(huart->Instance));
  }
  assert_param(IS_UART_WORD_LENGTH(huart->Init.WordLength));
  assert_param(IS_UART_OVERSAMPLING(huart->Init.OverSampling));

  if (huart->gState == HAL_UART_STATE_RESET)
 8005936:	687b      	ldr	r3, [r7, #4]
 8005938:	f893 3041 	ldrb.w	r3, [r3, #65]	; 0x41
 800593c:	b2db      	uxtb	r3, r3
 800593e:	2b00      	cmp	r3, #0
 8005940:	d106      	bne.n	8005950 <HAL_UART_Init+0x2c>
  {
    /* Allocate lock resource and initialize it */
    huart->Lock = HAL_UNLOCKED;
 8005942:	687b      	ldr	r3, [r7, #4]
 8005944:	2200      	movs	r2, #0
 8005946:	f883 2040 	strb.w	r2, [r3, #64]	; 0x40

    /* Init the low level hardware */
    huart->MspInitCallback(huart);
#else
    /* Init the low level hardware : GPIO, CLOCK */
    HAL_UART_MspInit(huart);
 800594a:	6878      	ldr	r0, [r7, #4]
 800594c:	f7fb feb6 	bl	80016bc <HAL_UART_MspInit>
#endif /* (USE_HAL_UART_REGISTER_CALLBACKS) */
  }

  huart->gState = HAL_UART_STATE_BUSY;
 8005950:	687b      	ldr	r3, [r7, #4]
 8005952:	2224      	movs	r2, #36	; 0x24
 8005954:	f883 2041 	strb.w	r2, [r3, #65]	; 0x41

  /* Disable the peripheral */
  __HAL_UART_DISABLE(huart);
 8005958:	687b      	ldr	r3, [r7, #4]
 800595a:	681b      	ldr	r3, [r3, #0]
 800595c:	68da      	ldr	r2, [r3, #12]
 800595e:	687b      	ldr	r3, [r7, #4]
 8005960:	681b      	ldr	r3, [r3, #0]
 8005962:	f422 5200 	bic.w	r2, r2, #8192	; 0x2000
 8005966:	60da      	str	r2, [r3, #12]

  /* Set the UART Communication parameters */
  UART_SetConfig(huart);
 8005968:	6878      	ldr	r0, [r7, #4]
 800596a:	f000 fe91 	bl	8006690 <UART_SetConfig>

  /* In asynchronous mode, the following bits must be kept cleared:
     - LINEN and CLKEN bits in the USART_CR2 register,
     - SCEN, HDSEL and IREN  bits in the USART_CR3 register.*/
  CLEAR_BIT(huart->Instance->CR2, (USART_CR2_LINEN | USART_CR2_CLKEN));
 800596e:	687b      	ldr	r3, [r7, #4]
 8005970:	681b      	ldr	r3, [r3, #0]
 8005972:	691a      	ldr	r2, [r3, #16]
 8005974:	687b      	ldr	r3, [r7, #4]
 8005976:	681b      	ldr	r3, [r3, #0]
 8005978:	f422 4290 	bic.w	r2, r2, #18432	; 0x4800
 800597c:	611a      	str	r2, [r3, #16]
  CLEAR_BIT(huart->Instance->CR3, (USART_CR3_SCEN | USART_CR3_HDSEL | USART_CR3_IREN));
 800597e:	687b      	ldr	r3, [r7, #4]
 8005980:	681b      	ldr	r3, [r3, #0]
 8005982:	695a      	ldr	r2, [r3, #20]
 8005984:	687b      	ldr	r3, [r7, #4]
 8005986:	681b      	ldr	r3, [r3, #0]
 8005988:	f022 022a 	bic.w	r2, r2, #42	; 0x2a
 800598c:	615a      	str	r2, [r3, #20]

  /* Enable the peripheral */
  __HAL_UART_ENABLE(huart);
 800598e:	687b      	ldr	r3, [r7, #4]
 8005990:	681b      	ldr	r3, [r3, #0]
 8005992:	68da      	ldr	r2, [r3, #12]
 8005994:	687b      	ldr	r3, [r7, #4]
 8005996:	681b      	ldr	r3, [r3, #0]
 8005998:	f442 5200 	orr.w	r2, r2, #8192	; 0x2000
 800599c:	60da      	str	r2, [r3, #12]

  /* Initialize the UART state */
  huart->ErrorCode = HAL_UART_ERROR_NONE;
 800599e:	687b      	ldr	r3, [r7, #4]
 80059a0:	2200      	movs	r2, #0
 80059a2:	645a      	str	r2, [r3, #68]	; 0x44
  huart->gState = HAL_UART_STATE_READY;
 80059a4:	687b      	ldr	r3, [r7, #4]
 80059a6:	2220      	movs	r2, #32
 80059a8:	f883 2041 	strb.w	r2, [r3, #65]	; 0x41
  huart->RxState = HAL_UART_STATE_READY;
 80059ac:	687b      	ldr	r3, [r7, #4]
 80059ae:	2220      	movs	r2, #32
 80059b0:	f883 2042 	strb.w	r2, [r3, #66]	; 0x42
  huart->RxEventType = HAL_UART_RXEVENT_TC;
 80059b4:	687b      	ldr	r3, [r7, #4]
 80059b6:	2200      	movs	r2, #0
 80059b8:	635a      	str	r2, [r3, #52]	; 0x34

  return HAL_OK;
 80059ba:	2300      	movs	r3, #0
}
 80059bc:	4618      	mov	r0, r3
 80059be:	3708      	adds	r7, #8
 80059c0:	46bd      	mov	sp, r7
 80059c2:	bd80      	pop	{r7, pc}

080059c4 <HAL_UART_Transmit>:
  * @param  Size  Amount of data elements (u8 or u16) to be sent
  * @param  Timeout Timeout duration
  * @retval HAL status
  */
HAL_StatusTypeDef HAL_UART_Transmit(UART_HandleTypeDef *huart, const uint8_t *pData, uint16_t Size, uint32_t Timeout)
{
 80059c4:	b580      	push	{r7, lr}
 80059c6:	b08a      	sub	sp, #40	; 0x28
 80059c8:	af02      	add	r7, sp, #8
 80059ca:	60f8      	str	r0, [r7, #12]
 80059cc:	60b9      	str	r1, [r7, #8]
 80059ce:	603b      	str	r3, [r7, #0]
 80059d0:	4613      	mov	r3, r2
 80059d2:	80fb      	strh	r3, [r7, #6]
  const uint8_t  *pdata8bits;
  const uint16_t *pdata16bits;
  uint32_t tickstart = 0U;
 80059d4:	2300      	movs	r3, #0
 80059d6:	617b      	str	r3, [r7, #20]

  /* Check that a Tx process is not already ongoing */
  if (huart->gState == HAL_UART_STATE_READY)
 80059d8:	68fb      	ldr	r3, [r7, #12]
 80059da:	f893 3041 	ldrb.w	r3, [r3, #65]	; 0x41
 80059de:	b2db      	uxtb	r3, r3
 80059e0:	2b20      	cmp	r3, #32
 80059e2:	d175      	bne.n	8005ad0 <HAL_UART_Transmit+0x10c>
  {
    if ((pData == NULL) || (Size == 0U))
 80059e4:	68bb      	ldr	r3, [r7, #8]
 80059e6:	2b00      	cmp	r3, #0
 80059e8:	d002      	beq.n	80059f0 <HAL_UART_Transmit+0x2c>
 80059ea:	88fb      	ldrh	r3, [r7, #6]
 80059ec:	2b00      	cmp	r3, #0
 80059ee:	d101      	bne.n	80059f4 <HAL_UART_Transmit+0x30>
    {
      return  HAL_ERROR;
 80059f0:	2301      	movs	r3, #1
 80059f2:	e06e      	b.n	8005ad2 <HAL_UART_Transmit+0x10e>
    }

    huart->ErrorCode = HAL_UART_ERROR_NONE;
 80059f4:	68fb      	ldr	r3, [r7, #12]
 80059f6:	2200      	movs	r2, #0
 80059f8:	645a      	str	r2, [r3, #68]	; 0x44
    huart->gState = HAL_UART_STATE_BUSY_TX;
 80059fa:	68fb      	ldr	r3, [r7, #12]
 80059fc:	2221      	movs	r2, #33	; 0x21
 80059fe:	f883 2041 	strb.w	r2, [r3, #65]	; 0x41

    /* Init tickstart for timeout management */
    tickstart = HAL_GetTick();
 8005a02:	f7fc f929 	bl	8001c58 <HAL_GetTick>
 8005a06:	6178      	str	r0, [r7, #20]

    huart->TxXferSize = Size;
 8005a08:	68fb      	ldr	r3, [r7, #12]
 8005a0a:	88fa      	ldrh	r2, [r7, #6]
 8005a0c:	849a      	strh	r2, [r3, #36]	; 0x24
    huart->TxXferCount = Size;
 8005a0e:	68fb      	ldr	r3, [r7, #12]
 8005a10:	88fa      	ldrh	r2, [r7, #6]
 8005a12:	84da      	strh	r2, [r3, #38]	; 0x26

    /* In case of 9bits/No Parity transfer, pData needs to be handled as a uint16_t pointer */
    if ((huart->Init.WordLength == UART_WORDLENGTH_9B) && (huart->Init.Parity == UART_PARITY_NONE))
 8005a14:	68fb      	ldr	r3, [r7, #12]
 8005a16:	689b      	ldr	r3, [r3, #8]
 8005a18:	f5b3 5f80 	cmp.w	r3, #4096	; 0x1000
 8005a1c:	d108      	bne.n	8005a30 <HAL_UART_Transmit+0x6c>
 8005a1e:	68fb      	ldr	r3, [r7, #12]
 8005a20:	691b      	ldr	r3, [r3, #16]
 8005a22:	2b00      	cmp	r3, #0
 8005a24:	d104      	bne.n	8005a30 <HAL_UART_Transmit+0x6c>
    {
      pdata8bits  = NULL;
 8005a26:	2300      	movs	r3, #0
 8005a28:	61fb      	str	r3, [r7, #28]
      pdata16bits = (const uint16_t *) pData;
 8005a2a:	68bb      	ldr	r3, [r7, #8]
 8005a2c:	61bb      	str	r3, [r7, #24]
 8005a2e:	e003      	b.n	8005a38 <HAL_UART_Transmit+0x74>
    }
    else
    {
      pdata8bits  = pData;
 8005a30:	68bb      	ldr	r3, [r7, #8]
 8005a32:	61fb      	str	r3, [r7, #28]
      pdata16bits = NULL;
 8005a34:	2300      	movs	r3, #0
 8005a36:	61bb      	str	r3, [r7, #24]
    }

    while (huart->TxXferCount > 0U)
 8005a38:	e02e      	b.n	8005a98 <HAL_UART_Transmit+0xd4>
    {
      if (UART_WaitOnFlagUntilTimeout(huart, UART_FLAG_TXE, RESET, tickstart, Timeout) != HAL_OK)
 8005a3a:	683b      	ldr	r3, [r7, #0]
 8005a3c:	9300      	str	r3, [sp, #0]
 8005a3e:	697b      	ldr	r3, [r7, #20]
 8005a40:	2200      	movs	r2, #0
 8005a42:	2180      	movs	r1, #128	; 0x80
 8005a44:	68f8      	ldr	r0, [r7, #12]
 8005a46:	f000 fbdb 	bl	8006200 <UART_WaitOnFlagUntilTimeout>
 8005a4a:	4603      	mov	r3, r0
 8005a4c:	2b00      	cmp	r3, #0
 8005a4e:	d005      	beq.n	8005a5c <HAL_UART_Transmit+0x98>
      {
        huart->gState = HAL_UART_STATE_READY;
 8005a50:	68fb      	ldr	r3, [r7, #12]
 8005a52:	2220      	movs	r2, #32
 8005a54:	f883 2041 	strb.w	r2, [r3, #65]	; 0x41

        return HAL_TIMEOUT;
 8005a58:	2303      	movs	r3, #3
 8005a5a:	e03a      	b.n	8005ad2 <HAL_UART_Transmit+0x10e>
      }
      if (pdata8bits == NULL)
 8005a5c:	69fb      	ldr	r3, [r7, #28]
 8005a5e:	2b00      	cmp	r3, #0
 8005a60:	d10b      	bne.n	8005a7a <HAL_UART_Transmit+0xb6>
      {
        huart->Instance->DR = (uint16_t)(*pdata16bits & 0x01FFU);
 8005a62:	69bb      	ldr	r3, [r7, #24]
 8005a64:	881b      	ldrh	r3, [r3, #0]
 8005a66:	461a      	mov	r2, r3
 8005a68:	68fb      	ldr	r3, [r7, #12]
 8005a6a:	681b      	ldr	r3, [r3, #0]
 8005a6c:	f3c2 0208 	ubfx	r2, r2, #0, #9
 8005a70:	605a      	str	r2, [r3, #4]
        pdata16bits++;
 8005a72:	69bb      	ldr	r3, [r7, #24]
 8005a74:	3302      	adds	r3, #2
 8005a76:	61bb      	str	r3, [r7, #24]
 8005a78:	e007      	b.n	8005a8a <HAL_UART_Transmit+0xc6>
      }
      else
      {
        huart->Instance->DR = (uint8_t)(*pdata8bits & 0xFFU);
 8005a7a:	69fb      	ldr	r3, [r7, #28]
 8005a7c:	781a      	ldrb	r2, [r3, #0]
 8005a7e:	68fb      	ldr	r3, [r7, #12]
 8005a80:	681b      	ldr	r3, [r3, #0]
 8005a82:	605a      	str	r2, [r3, #4]
        pdata8bits++;
 8005a84:	69fb      	ldr	r3, [r7, #28]
 8005a86:	3301      	adds	r3, #1
 8005a88:	61fb      	str	r3, [r7, #28]
      }
      huart->TxXferCount--;
 8005a8a:	68fb      	ldr	r3, [r7, #12]
 8005a8c:	8cdb      	ldrh	r3, [r3, #38]	; 0x26
 8005a8e:	b29b      	uxth	r3, r3
 8005a90:	3b01      	subs	r3, #1
 8005a92:	b29a      	uxth	r2, r3
 8005a94:	68fb      	ldr	r3, [r7, #12]
 8005a96:	84da      	strh	r2, [r3, #38]	; 0x26
    while (huart->TxXferCount > 0U)
 8005a98:	68fb      	ldr	r3, [r7, #12]
 8005a9a:	8cdb      	ldrh	r3, [r3, #38]	; 0x26
 8005a9c:	b29b      	uxth	r3, r3
 8005a9e:	2b00      	cmp	r3, #0
 8005aa0:	d1cb      	bne.n	8005a3a <HAL_UART_Transmit+0x76>
    }

    if (UART_WaitOnFlagUntilTimeout(huart, UART_FLAG_TC, RESET, tickstart, Timeout) != HAL_OK)
 8005aa2:	683b      	ldr	r3, [r7, #0]
 8005aa4:	9300      	str	r3, [sp, #0]
 8005aa6:	697b      	ldr	r3, [r7, #20]
 8005aa8:	2200      	movs	r2, #0
 8005aaa:	2140      	movs	r1, #64	; 0x40
 8005aac:	68f8      	ldr	r0, [r7, #12]
 8005aae:	f000 fba7 	bl	8006200 <UART_WaitOnFlagUntilTimeout>
 8005ab2:	4603      	mov	r3, r0
 8005ab4:	2b00      	cmp	r3, #0
 8005ab6:	d005      	beq.n	8005ac4 <HAL_UART_Transmit+0x100>
    {
      huart->gState = HAL_UART_STATE_READY;
 8005ab8:	68fb      	ldr	r3, [r7, #12]
 8005aba:	2220      	movs	r2, #32
 8005abc:	f883 2041 	strb.w	r2, [r3, #65]	; 0x41

      return HAL_TIMEOUT;
 8005ac0:	2303      	movs	r3, #3
 8005ac2:	e006      	b.n	8005ad2 <HAL_UART_Transmit+0x10e>
    }

    /* At end of Tx process, restore huart->gState to Ready */
    huart->gState = HAL_UART_STATE_READY;
 8005ac4:	68fb      	ldr	r3, [r7, #12]
 8005ac6:	2220      	movs	r2, #32
 8005ac8:	f883 2041 	strb.w	r2, [r3, #65]	; 0x41

    return HAL_OK;
 8005acc:	2300      	movs	r3, #0
 8005ace:	e000      	b.n	8005ad2 <HAL_UART_Transmit+0x10e>
  }
  else
  {
    return HAL_BUSY;
 8005ad0:	2302      	movs	r3, #2
  }
}
 8005ad2:	4618      	mov	r0, r3
 8005ad4:	3720      	adds	r7, #32
 8005ad6:	46bd      	mov	sp, r7
 8005ad8:	bd80      	pop	{r7, pc}

08005ada <HAL_UART_Receive_IT>:
  * @param  pData Pointer to data buffer (u8 or u16 data elements).
  * @param  Size  Amount of data elements (u8 or u16) to be received.
  * @retval HAL status
  */
HAL_StatusTypeDef HAL_UART_Receive_IT(UART_HandleTypeDef *huart, uint8_t *pData, uint16_t Size)
{
 8005ada:	b580      	push	{r7, lr}
 8005adc:	b084      	sub	sp, #16
 8005ade:	af00      	add	r7, sp, #0
 8005ae0:	60f8      	str	r0, [r7, #12]
 8005ae2:	60b9      	str	r1, [r7, #8]
 8005ae4:	4613      	mov	r3, r2
 8005ae6:	80fb      	strh	r3, [r7, #6]
  /* Check that a Rx process is not already ongoing */
  if (huart->RxState == HAL_UART_STATE_READY)
 8005ae8:	68fb      	ldr	r3, [r7, #12]
 8005aea:	f893 3042 	ldrb.w	r3, [r3, #66]	; 0x42
 8005aee:	b2db      	uxtb	r3, r3
 8005af0:	2b20      	cmp	r3, #32
 8005af2:	d112      	bne.n	8005b1a <HAL_UART_Receive_IT+0x40>
  {
    if ((pData == NULL) || (Size == 0U))
 8005af4:	68bb      	ldr	r3, [r7, #8]
 8005af6:	2b00      	cmp	r3, #0
 8005af8:	d002      	beq.n	8005b00 <HAL_UART_Receive_IT+0x26>
 8005afa:	88fb      	ldrh	r3, [r7, #6]
 8005afc:	2b00      	cmp	r3, #0
 8005afe:	d101      	bne.n	8005b04 <HAL_UART_Receive_IT+0x2a>
    {
      return HAL_ERROR;
 8005b00:	2301      	movs	r3, #1
 8005b02:	e00b      	b.n	8005b1c <HAL_UART_Receive_IT+0x42>
    }

    /* Set Reception type to Standard reception */
    huart->ReceptionType = HAL_UART_RECEPTION_STANDARD;
 8005b04:	68fb      	ldr	r3, [r7, #12]
 8005b06:	2200      	movs	r2, #0
 8005b08:	631a      	str	r2, [r3, #48]	; 0x30

    return (UART_Start_Receive_IT(huart, pData, Size));
 8005b0a:	88fb      	ldrh	r3, [r7, #6]
 8005b0c:	461a      	mov	r2, r3
 8005b0e:	68b9      	ldr	r1, [r7, #8]
 8005b10:	68f8      	ldr	r0, [r7, #12]
 8005b12:	f000 fbce 	bl	80062b2 <UART_Start_Receive_IT>
 8005b16:	4603      	mov	r3, r0
 8005b18:	e000      	b.n	8005b1c <HAL_UART_Receive_IT+0x42>
  }
  else
  {
    return HAL_BUSY;
 8005b1a:	2302      	movs	r3, #2
  }
}
 8005b1c:	4618      	mov	r0, r3
 8005b1e:	3710      	adds	r7, #16
 8005b20:	46bd      	mov	sp, r7
 8005b22:	bd80      	pop	{r7, pc}

08005b24 <HAL_UART_AbortReceive_IT>:
  * @note   This procedure is executed in Interrupt mode, meaning that abort procedure could be
  *         considered as completed only when user abort complete callback is executed (not when exiting function).
  * @retval HAL status
  */
HAL_StatusTypeDef HAL_UART_AbortReceive_IT(UART_HandleTypeDef *huart)
{
 8005b24:	b580      	push	{r7, lr}
 8005b26:	b09a      	sub	sp, #104	; 0x68
 8005b28:	af00      	add	r7, sp, #0
 8005b2a:	6078      	str	r0, [r7, #4]
  /* Disable RXNE, PE and ERR (Frame error, noise error, overrun error) interrupts */
  ATOMIC_CLEAR_BIT(huart->Instance->CR1, (USART_CR1_RXNEIE | USART_CR1_PEIE));
 8005b2c:	687b      	ldr	r3, [r7, #4]
 8005b2e:	681b      	ldr	r3, [r3, #0]
 8005b30:	330c      	adds	r3, #12
 8005b32:	64bb      	str	r3, [r7, #72]	; 0x48
   __ASM volatile ("ldrex %0, %1" : "=r" (result) : "Q" (*addr) );
 8005b34:	6cbb      	ldr	r3, [r7, #72]	; 0x48
 8005b36:	e853 3f00 	ldrex	r3, [r3]
 8005b3a:	647b      	str	r3, [r7, #68]	; 0x44
   return(result);
 8005b3c:	6c7b      	ldr	r3, [r7, #68]	; 0x44
 8005b3e:	f423 7390 	bic.w	r3, r3, #288	; 0x120
 8005b42:	667b      	str	r3, [r7, #100]	; 0x64
 8005b44:	687b      	ldr	r3, [r7, #4]
 8005b46:	681b      	ldr	r3, [r3, #0]
 8005b48:	330c      	adds	r3, #12
 8005b4a:	6e7a      	ldr	r2, [r7, #100]	; 0x64
 8005b4c:	657a      	str	r2, [r7, #84]	; 0x54
 8005b4e:	653b      	str	r3, [r7, #80]	; 0x50
   __ASM volatile ("strex %0, %2, %1" : "=&r" (result), "=Q" (*addr) : "r" (value) );
 8005b50:	6d39      	ldr	r1, [r7, #80]	; 0x50
 8005b52:	6d7a      	ldr	r2, [r7, #84]	; 0x54
 8005b54:	e841 2300 	strex	r3, r2, [r1]
 8005b58:	64fb      	str	r3, [r7, #76]	; 0x4c
   return(result);
 8005b5a:	6cfb      	ldr	r3, [r7, #76]	; 0x4c
 8005b5c:	2b00      	cmp	r3, #0
 8005b5e:	d1e5      	bne.n	8005b2c <HAL_UART_AbortReceive_IT+0x8>
  ATOMIC_CLEAR_BIT(huart->Instance->CR3, USART_CR3_EIE);
 8005b60:	687b      	ldr	r3, [r7, #4]
 8005b62:	681b      	ldr	r3, [r3, #0]
 8005b64:	3314      	adds	r3, #20
 8005b66:	637b      	str	r3, [r7, #52]	; 0x34
   __ASM volatile ("ldrex %0, %1" : "=r" (result) : "Q" (*addr) );
 8005b68:	6b7b      	ldr	r3, [r7, #52]	; 0x34
 8005b6a:	e853 3f00 	ldrex	r3, [r3]
 8005b6e:	633b      	str	r3, [r7, #48]	; 0x30
   return(result);
 8005b70:	6b3b      	ldr	r3, [r7, #48]	; 0x30
 8005b72:	f023 0301 	bic.w	r3, r3, #1
 8005b76:	663b      	str	r3, [r7, #96]	; 0x60
 8005b78:	687b      	ldr	r3, [r7, #4]
 8005b7a:	681b      	ldr	r3, [r3, #0]
 8005b7c:	3314      	adds	r3, #20
 8005b7e:	6e3a      	ldr	r2, [r7, #96]	; 0x60
 8005b80:	643a      	str	r2, [r7, #64]	; 0x40
 8005b82:	63fb      	str	r3, [r7, #60]	; 0x3c
   __ASM volatile ("strex %0, %2, %1" : "=&r" (result), "=Q" (*addr) : "r" (value) );
 8005b84:	6bf9      	ldr	r1, [r7, #60]	; 0x3c
 8005b86:	6c3a      	ldr	r2, [r7, #64]	; 0x40
 8005b88:	e841 2300 	strex	r3, r2, [r1]
 8005b8c:	63bb      	str	r3, [r7, #56]	; 0x38
   return(result);
 8005b8e:	6bbb      	ldr	r3, [r7, #56]	; 0x38
 8005b90:	2b00      	cmp	r3, #0
 8005b92:	d1e5      	bne.n	8005b60 <HAL_UART_AbortReceive_IT+0x3c>

  /* If Reception till IDLE event was ongoing, disable IDLEIE interrupt */
  if (huart->ReceptionType == HAL_UART_RECEPTION_TOIDLE)
 8005b94:	687b      	ldr	r3, [r7, #4]
 8005b96:	6b1b      	ldr	r3, [r3, #48]	; 0x30
 8005b98:	2b01      	cmp	r3, #1
 8005b9a:	d119      	bne.n	8005bd0 <HAL_UART_AbortReceive_IT+0xac>
  {
    ATOMIC_CLEAR_BIT(huart->Instance->CR1, (USART_CR1_IDLEIE));
 8005b9c:	687b      	ldr	r3, [r7, #4]
 8005b9e:	681b      	ldr	r3, [r3, #0]
 8005ba0:	330c      	adds	r3, #12
 8005ba2:	623b      	str	r3, [r7, #32]
   __ASM volatile ("ldrex %0, %1" : "=r" (result) : "Q" (*addr) );
 8005ba4:	6a3b      	ldr	r3, [r7, #32]
 8005ba6:	e853 3f00 	ldrex	r3, [r3]
 8005baa:	61fb      	str	r3, [r7, #28]
   return(result);
 8005bac:	69fb      	ldr	r3, [r7, #28]
 8005bae:	f023 0310 	bic.w	r3, r3, #16
 8005bb2:	65fb      	str	r3, [r7, #92]	; 0x5c
 8005bb4:	687b      	ldr	r3, [r7, #4]
 8005bb6:	681b      	ldr	r3, [r3, #0]
 8005bb8:	330c      	adds	r3, #12
 8005bba:	6dfa      	ldr	r2, [r7, #92]	; 0x5c
 8005bbc:	62fa      	str	r2, [r7, #44]	; 0x2c
 8005bbe:	62bb      	str	r3, [r7, #40]	; 0x28
   __ASM volatile ("strex %0, %2, %1" : "=&r" (result), "=Q" (*addr) : "r" (value) );
 8005bc0:	6ab9      	ldr	r1, [r7, #40]	; 0x28
 8005bc2:	6afa      	ldr	r2, [r7, #44]	; 0x2c
 8005bc4:	e841 2300 	strex	r3, r2, [r1]
 8005bc8:	627b      	str	r3, [r7, #36]	; 0x24
   return(result);
 8005bca:	6a7b      	ldr	r3, [r7, #36]	; 0x24
 8005bcc:	2b00      	cmp	r3, #0
 8005bce:	d1e5      	bne.n	8005b9c <HAL_UART_AbortReceive_IT+0x78>
  }

  /* Disable the UART DMA Rx request if enabled */
  if (HAL_IS_BIT_SET(huart->Instance->CR3, USART_CR3_DMAR))
 8005bd0:	687b      	ldr	r3, [r7, #4]
 8005bd2:	681b      	ldr	r3, [r3, #0]
 8005bd4:	695b      	ldr	r3, [r3, #20]
 8005bd6:	f003 0340 	and.w	r3, r3, #64	; 0x40
 8005bda:	2b40      	cmp	r3, #64	; 0x40
 8005bdc:	d13f      	bne.n	8005c5e <HAL_UART_AbortReceive_IT+0x13a>
  {
    ATOMIC_CLEAR_BIT(huart->Instance->CR3, USART_CR3_DMAR);
 8005bde:	687b      	ldr	r3, [r7, #4]
 8005be0:	681b      	ldr	r3, [r3, #0]
 8005be2:	3314      	adds	r3, #20
 8005be4:	60fb      	str	r3, [r7, #12]
   __ASM volatile ("ldrex %0, %1" : "=r" (result) : "Q" (*addr) );
 8005be6:	68fb      	ldr	r3, [r7, #12]
 8005be8:	e853 3f00 	ldrex	r3, [r3]
 8005bec:	60bb      	str	r3, [r7, #8]
   return(result);
 8005bee:	68bb      	ldr	r3, [r7, #8]
 8005bf0:	f023 0340 	bic.w	r3, r3, #64	; 0x40
 8005bf4:	65bb      	str	r3, [r7, #88]	; 0x58
 8005bf6:	687b      	ldr	r3, [r7, #4]
 8005bf8:	681b      	ldr	r3, [r3, #0]
 8005bfa:	3314      	adds	r3, #20
 8005bfc:	6dba      	ldr	r2, [r7, #88]	; 0x58
 8005bfe:	61ba      	str	r2, [r7, #24]
 8005c00:	617b      	str	r3, [r7, #20]
   __ASM volatile ("strex %0, %2, %1" : "=&r" (result), "=Q" (*addr) : "r" (value) );
 8005c02:	6979      	ldr	r1, [r7, #20]
 8005c04:	69ba      	ldr	r2, [r7, #24]
 8005c06:	e841 2300 	strex	r3, r2, [r1]
 8005c0a:	613b      	str	r3, [r7, #16]
   return(result);
 8005c0c:	693b      	ldr	r3, [r7, #16]
 8005c0e:	2b00      	cmp	r3, #0
 8005c10:	d1e5      	bne.n	8005bde <HAL_UART_AbortReceive_IT+0xba>

    /* Abort the UART DMA Rx stream : use blocking DMA Abort API (no callback) */
    if (huart->hdmarx != NULL)
 8005c12:	687b      	ldr	r3, [r7, #4]
 8005c14:	6bdb      	ldr	r3, [r3, #60]	; 0x3c
 8005c16:	2b00      	cmp	r3, #0
 8005c18:	d013      	beq.n	8005c42 <HAL_UART_AbortReceive_IT+0x11e>
    {
      /* Set the UART DMA Abort callback :
         will lead to call HAL_UART_AbortCpltCallback() at end of DMA abort procedure */
      huart->hdmarx->XferAbortCallback = UART_DMARxOnlyAbortCallback;
 8005c1a:	687b      	ldr	r3, [r7, #4]
 8005c1c:	6bdb      	ldr	r3, [r3, #60]	; 0x3c
 8005c1e:	4a19      	ldr	r2, [pc, #100]	; (8005c84 <HAL_UART_AbortReceive_IT+0x160>)
 8005c20:	651a      	str	r2, [r3, #80]	; 0x50

      /* Abort DMA RX */
      if (HAL_DMA_Abort_IT(huart->hdmarx) != HAL_OK)
 8005c22:	687b      	ldr	r3, [r7, #4]
 8005c24:	6bdb      	ldr	r3, [r3, #60]	; 0x3c
 8005c26:	4618      	mov	r0, r3
 8005c28:	f7fc f9a3 	bl	8001f72 <HAL_DMA_Abort_IT>
 8005c2c:	4603      	mov	r3, r0
 8005c2e:	2b00      	cmp	r3, #0
 8005c30:	d022      	beq.n	8005c78 <HAL_UART_AbortReceive_IT+0x154>
      {
        /* Call Directly huart->hdmarx->XferAbortCallback function in case of error */
        huart->hdmarx->XferAbortCallback(huart->hdmarx);
 8005c32:	687b      	ldr	r3, [r7, #4]
 8005c34:	6bdb      	ldr	r3, [r3, #60]	; 0x3c
 8005c36:	6d1b      	ldr	r3, [r3, #80]	; 0x50
 8005c38:	687a      	ldr	r2, [r7, #4]
 8005c3a:	6bd2      	ldr	r2, [r2, #60]	; 0x3c
 8005c3c:	4610      	mov	r0, r2
 8005c3e:	4798      	blx	r3
 8005c40:	e01a      	b.n	8005c78 <HAL_UART_AbortReceive_IT+0x154>
      }
    }
    else
    {
      /* Reset Rx transfer counter */
      huart->RxXferCount = 0x00U;
 8005c42:	687b      	ldr	r3, [r7, #4]
 8005c44:	2200      	movs	r2, #0
 8005c46:	85da      	strh	r2, [r3, #46]	; 0x2e

      /* Restore huart->RxState to Ready */
      huart->RxState = HAL_UART_STATE_READY;
 8005c48:	687b      	ldr	r3, [r7, #4]
 8005c4a:	2220      	movs	r2, #32
 8005c4c:	f883 2042 	strb.w	r2, [r3, #66]	; 0x42
      huart->ReceptionType = HAL_UART_RECEPTION_STANDARD;
 8005c50:	687b      	ldr	r3, [r7, #4]
 8005c52:	2200      	movs	r2, #0
 8005c54:	631a      	str	r2, [r3, #48]	; 0x30
#if (USE_HAL_UART_REGISTER_CALLBACKS == 1)
      /* Call registered Abort Receive Complete Callback */
      huart->AbortReceiveCpltCallback(huart);
#else
      /* Call legacy weak Abort Receive Complete Callback */
      HAL_UART_AbortReceiveCpltCallback(huart);
 8005c56:	6878      	ldr	r0, [r7, #4]
 8005c58:	f000 fabc 	bl	80061d4 <HAL_UART_AbortReceiveCpltCallback>
 8005c5c:	e00c      	b.n	8005c78 <HAL_UART_AbortReceive_IT+0x154>
    }
  }
  else
  {
    /* Reset Rx transfer counter */
    huart->RxXferCount = 0x00U;
 8005c5e:	687b      	ldr	r3, [r7, #4]
 8005c60:	2200      	movs	r2, #0
 8005c62:	85da      	strh	r2, [r3, #46]	; 0x2e

    /* Restore huart->RxState to Ready */
    huart->RxState = HAL_UART_STATE_READY;
 8005c64:	687b      	ldr	r3, [r7, #4]
 8005c66:	2220      	movs	r2, #32
 8005c68:	f883 2042 	strb.w	r2, [r3, #66]	; 0x42
    huart->ReceptionType = HAL_UART_RECEPTION_STANDARD;
 8005c6c:	687b      	ldr	r3, [r7, #4]
 8005c6e:	2200      	movs	r2, #0
 8005c70:	631a      	str	r2, [r3, #48]	; 0x30
#if (USE_HAL_UART_REGISTER_CALLBACKS == 1)
    /* Call registered Abort Receive Complete Callback */
    huart->AbortReceiveCpltCallback(huart);
#else
    /* Call legacy weak Abort Receive Complete Callback */
    HAL_UART_AbortReceiveCpltCallback(huart);
 8005c72:	6878      	ldr	r0, [r7, #4]
 8005c74:	f000 faae 	bl	80061d4 <HAL_UART_AbortReceiveCpltCallback>
#endif /* USE_HAL_UART_REGISTER_CALLBACKS */
  }

  return HAL_OK;
 8005c78:	2300      	movs	r3, #0
}
 8005c7a:	4618      	mov	r0, r3
 8005c7c:	3768      	adds	r7, #104	; 0x68
 8005c7e:	46bd      	mov	sp, r7
 8005c80:	bd80      	pop	{r7, pc}
 8005c82:	bf00      	nop
 8005c84:	08006415 	.word	0x08006415

08005c88 <HAL_UART_IRQHandler>:
  * @param  huart  Pointer to a UART_HandleTypeDef structure that contains
  *                the configuration information for the specified UART module.
  * @retval None
  */
void HAL_UART_IRQHandler(UART_HandleTypeDef *huart)
{
 8005c88:	b580      	push	{r7, lr}
 8005c8a:	b0ba      	sub	sp, #232	; 0xe8
 8005c8c:	af00      	add	r7, sp, #0
 8005c8e:	6078      	str	r0, [r7, #4]
  uint32_t isrflags   = READ_REG(huart->Instance->SR);
 8005c90:	687b      	ldr	r3, [r7, #4]
 8005c92:	681b      	ldr	r3, [r3, #0]
 8005c94:	681b      	ldr	r3, [r3, #0]
 8005c96:	f8c7 30e4 	str.w	r3, [r7, #228]	; 0xe4
  uint32_t cr1its     = READ_REG(huart->Instance->CR1);
 8005c9a:	687b      	ldr	r3, [r7, #4]
 8005c9c:	681b      	ldr	r3, [r3, #0]
 8005c9e:	68db      	ldr	r3, [r3, #12]
 8005ca0:	f8c7 30e0 	str.w	r3, [r7, #224]	; 0xe0
  uint32_t cr3its     = READ_REG(huart->Instance->CR3);
 8005ca4:	687b      	ldr	r3, [r7, #4]
 8005ca6:	681b      	ldr	r3, [r3, #0]
 8005ca8:	695b      	ldr	r3, [r3, #20]
 8005caa:	f8c7 30dc 	str.w	r3, [r7, #220]	; 0xdc
  uint32_t errorflags = 0x00U;
 8005cae:	2300      	movs	r3, #0
 8005cb0:	f8c7 30d8 	str.w	r3, [r7, #216]	; 0xd8
  uint32_t dmarequest = 0x00U;
 8005cb4:	2300      	movs	r3, #0
 8005cb6:	f8c7 30d4 	str.w	r3, [r7, #212]	; 0xd4

  /* If no error occurs */
  errorflags = (isrflags & (uint32_t)(USART_SR_PE | USART_SR_FE | USART_SR_ORE | USART_SR_NE));
 8005cba:	f8d7 30e4 	ldr.w	r3, [r7, #228]	; 0xe4
 8005cbe:	f003 030f 	and.w	r3, r3, #15
 8005cc2:	f8c7 30d8 	str.w	r3, [r7, #216]	; 0xd8
  if (errorflags == RESET)
 8005cc6:	f8d7 30d8 	ldr.w	r3, [r7, #216]	; 0xd8
 8005cca:	2b00      	cmp	r3, #0
 8005ccc:	d10f      	bne.n	8005cee <HAL_UART_IRQHandler+0x66>
  {
    /* UART in mode Receiver -------------------------------------------------*/
    if (((isrflags & USART_SR_RXNE) != RESET) && ((cr1its & USART_CR1_RXNEIE) != RESET))
 8005cce:	f8d7 30e4 	ldr.w	r3, [r7, #228]	; 0xe4
 8005cd2:	f003 0320 	and.w	r3, r3, #32
 8005cd6:	2b00      	cmp	r3, #0
 8005cd8:	d009      	beq.n	8005cee <HAL_UART_IRQHandler+0x66>
 8005cda:	f8d7 30e0 	ldr.w	r3, [r7, #224]	; 0xe0
 8005cde:	f003 0320 	and.w	r3, r3, #32
 8005ce2:	2b00      	cmp	r3, #0
 8005ce4:	d003      	beq.n	8005cee <HAL_UART_IRQHandler+0x66>
    {
      UART_Receive_IT(huart);
 8005ce6:	6878      	ldr	r0, [r7, #4]
 8005ce8:	f000 fc14 	bl	8006514 <UART_Receive_IT>
      return;
 8005cec:	e25b      	b.n	80061a6 <HAL_UART_IRQHandler+0x51e>
    }
  }

  /* If some errors occur */
  if ((errorflags != RESET) && (((cr3its & USART_CR3_EIE) != RESET)
 8005cee:	f8d7 30d8 	ldr.w	r3, [r7, #216]	; 0xd8
 8005cf2:	2b00      	cmp	r3, #0
 8005cf4:	f000 80de 	beq.w	8005eb4 <HAL_UART_IRQHandler+0x22c>
 8005cf8:	f8d7 30dc 	ldr.w	r3, [r7, #220]	; 0xdc
 8005cfc:	f003 0301 	and.w	r3, r3, #1
 8005d00:	2b00      	cmp	r3, #0
 8005d02:	d106      	bne.n	8005d12 <HAL_UART_IRQHandler+0x8a>
                                || ((cr1its & (USART_CR1_RXNEIE | USART_CR1_PEIE)) != RESET)))
 8005d04:	f8d7 30e0 	ldr.w	r3, [r7, #224]	; 0xe0
 8005d08:	f403 7390 	and.w	r3, r3, #288	; 0x120
 8005d0c:	2b00      	cmp	r3, #0
 8005d0e:	f000 80d1 	beq.w	8005eb4 <HAL_UART_IRQHandler+0x22c>
  {
    /* UART parity error interrupt occurred ----------------------------------*/
    if (((isrflags & USART_SR_PE) != RESET) && ((cr1its & USART_CR1_PEIE) != RESET))
 8005d12:	f8d7 30e4 	ldr.w	r3, [r7, #228]	; 0xe4
 8005d16:	f003 0301 	and.w	r3, r3, #1
 8005d1a:	2b00      	cmp	r3, #0
 8005d1c:	d00b      	beq.n	8005d36 <HAL_UART_IRQHandler+0xae>
 8005d1e:	f8d7 30e0 	ldr.w	r3, [r7, #224]	; 0xe0
 8005d22:	f403 7380 	and.w	r3, r3, #256	; 0x100
 8005d26:	2b00      	cmp	r3, #0
 8005d28:	d005      	beq.n	8005d36 <HAL_UART_IRQHandler+0xae>
    {
      huart->ErrorCode |= HAL_UART_ERROR_PE;
 8005d2a:	687b      	ldr	r3, [r7, #4]
 8005d2c:	6c5b      	ldr	r3, [r3, #68]	; 0x44
 8005d2e:	f043 0201 	orr.w	r2, r3, #1
 8005d32:	687b      	ldr	r3, [r7, #4]
 8005d34:	645a      	str	r2, [r3, #68]	; 0x44
    }

    /* UART noise error interrupt occurred -----------------------------------*/
    if (((isrflags & USART_SR_NE) != RESET) && ((cr3its & USART_CR3_EIE) != RESET))
 8005d36:	f8d7 30e4 	ldr.w	r3, [r7, #228]	; 0xe4
 8005d3a:	f003 0304 	and.w	r3, r3, #4
 8005d3e:	2b00      	cmp	r3, #0
 8005d40:	d00b      	beq.n	8005d5a <HAL_UART_IRQHandler+0xd2>
 8005d42:	f8d7 30dc 	ldr.w	r3, [r7, #220]	; 0xdc
 8005d46:	f003 0301 	and.w	r3, r3, #1
 8005d4a:	2b00      	cmp	r3, #0
 8005d4c:	d005      	beq.n	8005d5a <HAL_UART_IRQHandler+0xd2>
    {
      huart->ErrorCode |= HAL_UART_ERROR_NE;
 8005d4e:	687b      	ldr	r3, [r7, #4]
 8005d50:	6c5b      	ldr	r3, [r3, #68]	; 0x44
 8005d52:	f043 0202 	orr.w	r2, r3, #2
 8005d56:	687b      	ldr	r3, [r7, #4]
 8005d58:	645a      	str	r2, [r3, #68]	; 0x44
    }

    /* UART frame error interrupt occurred -----------------------------------*/
    if (((isrflags & USART_SR_FE) != RESET) && ((cr3its & USART_CR3_EIE) != RESET))
 8005d5a:	f8d7 30e4 	ldr.w	r3, [r7, #228]	; 0xe4
 8005d5e:	f003 0302 	and.w	r3, r3, #2
 8005d62:	2b00      	cmp	r3, #0
 8005d64:	d00b      	beq.n	8005d7e <HAL_UART_IRQHandler+0xf6>
 8005d66:	f8d7 30dc 	ldr.w	r3, [r7, #220]	; 0xdc
 8005d6a:	f003 0301 	and.w	r3, r3, #1
 8005d6e:	2b00      	cmp	r3, #0
 8005d70:	d005      	beq.n	8005d7e <HAL_UART_IRQHandler+0xf6>
    {
      huart->ErrorCode |= HAL_UART_ERROR_FE;
 8005d72:	687b      	ldr	r3, [r7, #4]
 8005d74:	6c5b      	ldr	r3, [r3, #68]	; 0x44
 8005d76:	f043 0204 	orr.w	r2, r3, #4
 8005d7a:	687b      	ldr	r3, [r7, #4]
 8005d7c:	645a      	str	r2, [r3, #68]	; 0x44
    }

    /* UART Over-Run interrupt occurred --------------------------------------*/
    if (((isrflags & USART_SR_ORE) != RESET) && (((cr1its & USART_CR1_RXNEIE) != RESET)
 8005d7e:	f8d7 30e4 	ldr.w	r3, [r7, #228]	; 0xe4
 8005d82:	f003 0308 	and.w	r3, r3, #8
 8005d86:	2b00      	cmp	r3, #0
 8005d88:	d011      	beq.n	8005dae <HAL_UART_IRQHandler+0x126>
 8005d8a:	f8d7 30e0 	ldr.w	r3, [r7, #224]	; 0xe0
 8005d8e:	f003 0320 	and.w	r3, r3, #32
 8005d92:	2b00      	cmp	r3, #0
 8005d94:	d105      	bne.n	8005da2 <HAL_UART_IRQHandler+0x11a>
                                                 || ((cr3its & USART_CR3_EIE) != RESET)))
 8005d96:	f8d7 30dc 	ldr.w	r3, [r7, #220]	; 0xdc
 8005d9a:	f003 0301 	and.w	r3, r3, #1
 8005d9e:	2b00      	cmp	r3, #0
 8005da0:	d005      	beq.n	8005dae <HAL_UART_IRQHandler+0x126>
    {
      huart->ErrorCode |= HAL_UART_ERROR_ORE;
 8005da2:	687b      	ldr	r3, [r7, #4]
 8005da4:	6c5b      	ldr	r3, [r3, #68]	; 0x44
 8005da6:	f043 0208 	orr.w	r2, r3, #8
 8005daa:	687b      	ldr	r3, [r7, #4]
 8005dac:	645a      	str	r2, [r3, #68]	; 0x44
    }

    /* Call UART Error Call back function if need be --------------------------*/
    if (huart->ErrorCode != HAL_UART_ERROR_NONE)
 8005dae:	687b      	ldr	r3, [r7, #4]
 8005db0:	6c5b      	ldr	r3, [r3, #68]	; 0x44
 8005db2:	2b00      	cmp	r3, #0
 8005db4:	f000 81f2 	beq.w	800619c <HAL_UART_IRQHandler+0x514>
    {
      /* UART in mode Receiver -----------------------------------------------*/
      if (((isrflags & USART_SR_RXNE) != RESET) && ((cr1its & USART_CR1_RXNEIE) != RESET))
 8005db8:	f8d7 30e4 	ldr.w	r3, [r7, #228]	; 0xe4
 8005dbc:	f003 0320 	and.w	r3, r3, #32
 8005dc0:	2b00      	cmp	r3, #0
 8005dc2:	d008      	beq.n	8005dd6 <HAL_UART_IRQHandler+0x14e>
 8005dc4:	f8d7 30e0 	ldr.w	r3, [r7, #224]	; 0xe0
 8005dc8:	f003 0320 	and.w	r3, r3, #32
 8005dcc:	2b00      	cmp	r3, #0
 8005dce:	d002      	beq.n	8005dd6 <HAL_UART_IRQHandler+0x14e>
      {
        UART_Receive_IT(huart);
 8005dd0:	6878      	ldr	r0, [r7, #4]
 8005dd2:	f000 fb9f 	bl	8006514 <UART_Receive_IT>
      }

      /* If Overrun error occurs, or if any error occurs in DMA mode reception,
         consider error as blocking */
      dmarequest = HAL_IS_BIT_SET(huart->Instance->CR3, USART_CR3_DMAR);
 8005dd6:	687b      	ldr	r3, [r7, #4]
 8005dd8:	681b      	ldr	r3, [r3, #0]
 8005dda:	695b      	ldr	r3, [r3, #20]
 8005ddc:	f003 0340 	and.w	r3, r3, #64	; 0x40
 8005de0:	2b40      	cmp	r3, #64	; 0x40
 8005de2:	bf0c      	ite	eq
 8005de4:	2301      	moveq	r3, #1
 8005de6:	2300      	movne	r3, #0
 8005de8:	b2db      	uxtb	r3, r3
 8005dea:	f8c7 30d4 	str.w	r3, [r7, #212]	; 0xd4
      if (((huart->ErrorCode & HAL_UART_ERROR_ORE) != RESET) || dmarequest)
 8005dee:	687b      	ldr	r3, [r7, #4]
 8005df0:	6c5b      	ldr	r3, [r3, #68]	; 0x44
 8005df2:	f003 0308 	and.w	r3, r3, #8
 8005df6:	2b00      	cmp	r3, #0
 8005df8:	d103      	bne.n	8005e02 <HAL_UART_IRQHandler+0x17a>
 8005dfa:	f8d7 30d4 	ldr.w	r3, [r7, #212]	; 0xd4
 8005dfe:	2b00      	cmp	r3, #0
 8005e00:	d04f      	beq.n	8005ea2 <HAL_UART_IRQHandler+0x21a>
      {
        /* Blocking error : transfer is aborted
           Set the UART state ready to be able to start again the process,
           Disable Rx Interrupts, and disable Rx DMA request, if ongoing */
        UART_EndRxTransfer(huart);
 8005e02:	6878      	ldr	r0, [r7, #4]
 8005e04:	f000 fa8f 	bl	8006326 <UART_EndRxTransfer>

        /* Disable the UART DMA Rx request if enabled */
        if (HAL_IS_BIT_SET(huart->Instance->CR3, USART_CR3_DMAR))
 8005e08:	687b      	ldr	r3, [r7, #4]
 8005e0a:	681b      	ldr	r3, [r3, #0]
 8005e0c:	695b      	ldr	r3, [r3, #20]
 8005e0e:	f003 0340 	and.w	r3, r3, #64	; 0x40
 8005e12:	2b40      	cmp	r3, #64	; 0x40
 8005e14:	d141      	bne.n	8005e9a <HAL_UART_IRQHandler+0x212>
        {
          ATOMIC_CLEAR_BIT(huart->Instance->CR3, USART_CR3_DMAR);
 8005e16:	687b      	ldr	r3, [r7, #4]
 8005e18:	681b      	ldr	r3, [r3, #0]
 8005e1a:	3314      	adds	r3, #20
 8005e1c:	f8c7 309c 	str.w	r3, [r7, #156]	; 0x9c
   __ASM volatile ("ldrex %0, %1" : "=r" (result) : "Q" (*addr) );
 8005e20:	f8d7 309c 	ldr.w	r3, [r7, #156]	; 0x9c
 8005e24:	e853 3f00 	ldrex	r3, [r3]
 8005e28:	f8c7 3098 	str.w	r3, [r7, #152]	; 0x98
   return(result);
 8005e2c:	f8d7 3098 	ldr.w	r3, [r7, #152]	; 0x98
 8005e30:	f023 0340 	bic.w	r3, r3, #64	; 0x40
 8005e34:	f8c7 30d0 	str.w	r3, [r7, #208]	; 0xd0
 8005e38:	687b      	ldr	r3, [r7, #4]
 8005e3a:	681b      	ldr	r3, [r3, #0]
 8005e3c:	3314      	adds	r3, #20
 8005e3e:	f8d7 20d0 	ldr.w	r2, [r7, #208]	; 0xd0
 8005e42:	f8c7 20a8 	str.w	r2, [r7, #168]	; 0xa8
 8005e46:	f8c7 30a4 	str.w	r3, [r7, #164]	; 0xa4
   __ASM volatile ("strex %0, %2, %1" : "=&r" (result), "=Q" (*addr) : "r" (value) );
 8005e4a:	f8d7 10a4 	ldr.w	r1, [r7, #164]	; 0xa4
 8005e4e:	f8d7 20a8 	ldr.w	r2, [r7, #168]	; 0xa8
 8005e52:	e841 2300 	strex	r3, r2, [r1]
 8005e56:	f8c7 30a0 	str.w	r3, [r7, #160]	; 0xa0
   return(result);
 8005e5a:	f8d7 30a0 	ldr.w	r3, [r7, #160]	; 0xa0
 8005e5e:	2b00      	cmp	r3, #0
 8005e60:	d1d9      	bne.n	8005e16 <HAL_UART_IRQHandler+0x18e>

          /* Abort the UART DMA Rx stream */
          if (huart->hdmarx != NULL)
 8005e62:	687b      	ldr	r3, [r7, #4]
 8005e64:	6bdb      	ldr	r3, [r3, #60]	; 0x3c
 8005e66:	2b00      	cmp	r3, #0
 8005e68:	d013      	beq.n	8005e92 <HAL_UART_IRQHandler+0x20a>
          {
            /* Set the UART DMA Abort callback :
               will lead to call HAL_UART_ErrorCallback() at end of DMA abort procedure */
            huart->hdmarx->XferAbortCallback = UART_DMAAbortOnError;
 8005e6a:	687b      	ldr	r3, [r7, #4]
 8005e6c:	6bdb      	ldr	r3, [r3, #60]	; 0x3c
 8005e6e:	4a7e      	ldr	r2, [pc, #504]	; (8006068 <HAL_UART_IRQHandler+0x3e0>)
 8005e70:	651a      	str	r2, [r3, #80]	; 0x50
            if (HAL_DMA_Abort_IT(huart->hdmarx) != HAL_OK)
 8005e72:	687b      	ldr	r3, [r7, #4]
 8005e74:	6bdb      	ldr	r3, [r3, #60]	; 0x3c
 8005e76:	4618      	mov	r0, r3
 8005e78:	f7fc f87b 	bl	8001f72 <HAL_DMA_Abort_IT>
 8005e7c:	4603      	mov	r3, r0
 8005e7e:	2b00      	cmp	r3, #0
 8005e80:	d016      	beq.n	8005eb0 <HAL_UART_IRQHandler+0x228>
            {
              /* Call Directly XferAbortCallback function in case of error */
              huart->hdmarx->XferAbortCallback(huart->hdmarx);
 8005e82:	687b      	ldr	r3, [r7, #4]
 8005e84:	6bdb      	ldr	r3, [r3, #60]	; 0x3c
 8005e86:	6d1b      	ldr	r3, [r3, #80]	; 0x50
 8005e88:	687a      	ldr	r2, [r7, #4]
 8005e8a:	6bd2      	ldr	r2, [r2, #60]	; 0x3c
 8005e8c:	4610      	mov	r0, r2
 8005e8e:	4798      	blx	r3
        if (HAL_IS_BIT_SET(huart->Instance->CR3, USART_CR3_DMAR))
 8005e90:	e00e      	b.n	8005eb0 <HAL_UART_IRQHandler+0x228>
#if (USE_HAL_UART_REGISTER_CALLBACKS == 1)
            /*Call registered error callback*/
            huart->ErrorCallback(huart);
#else
            /*Call legacy weak error callback*/
            HAL_UART_ErrorCallback(huart);
 8005e92:	6878      	ldr	r0, [r7, #4]
 8005e94:	f000 f994 	bl	80061c0 <HAL_UART_ErrorCallback>
        if (HAL_IS_BIT_SET(huart->Instance->CR3, USART_CR3_DMAR))
 8005e98:	e00a      	b.n	8005eb0 <HAL_UART_IRQHandler+0x228>
#if (USE_HAL_UART_REGISTER_CALLBACKS == 1)
          /*Call registered error callback*/
          huart->ErrorCallback(huart);
#else
          /*Call legacy weak error callback*/
          HAL_UART_ErrorCallback(huart);
 8005e9a:	6878      	ldr	r0, [r7, #4]
 8005e9c:	f000 f990 	bl	80061c0 <HAL_UART_ErrorCallback>
        if (HAL_IS_BIT_SET(huart->Instance->CR3, USART_CR3_DMAR))
 8005ea0:	e006      	b.n	8005eb0 <HAL_UART_IRQHandler+0x228>
#if (USE_HAL_UART_REGISTER_CALLBACKS == 1)
        /*Call registered error callback*/
        huart->ErrorCallback(huart);
#else
        /*Call legacy weak error callback*/
        HAL_UART_ErrorCallback(huart);
 8005ea2:	6878      	ldr	r0, [r7, #4]
 8005ea4:	f000 f98c 	bl	80061c0 <HAL_UART_ErrorCallback>
#endif /* USE_HAL_UART_REGISTER_CALLBACKS */

        huart->ErrorCode = HAL_UART_ERROR_NONE;
 8005ea8:	687b      	ldr	r3, [r7, #4]
 8005eaa:	2200      	movs	r2, #0
 8005eac:	645a      	str	r2, [r3, #68]	; 0x44
      }
    }
    return;
 8005eae:	e175      	b.n	800619c <HAL_UART_IRQHandler+0x514>
        if (HAL_IS_BIT_SET(huart->Instance->CR3, USART_CR3_DMAR))
 8005eb0:	bf00      	nop
    return;
 8005eb2:	e173      	b.n	800619c <HAL_UART_IRQHandler+0x514>
  } /* End if some error occurs */

  /* Check current reception Mode :
     If Reception till IDLE event has been selected : */
  if ((huart->ReceptionType == HAL_UART_RECEPTION_TOIDLE)
 8005eb4:	687b      	ldr	r3, [r7, #4]
 8005eb6:	6b1b      	ldr	r3, [r3, #48]	; 0x30
 8005eb8:	2b01      	cmp	r3, #1
 8005eba:	f040 814f 	bne.w	800615c <HAL_UART_IRQHandler+0x4d4>
      && ((isrflags & USART_SR_IDLE) != 0U)
 8005ebe:	f8d7 30e4 	ldr.w	r3, [r7, #228]	; 0xe4
 8005ec2:	f003 0310 	and.w	r3, r3, #16
 8005ec6:	2b00      	cmp	r3, #0
 8005ec8:	f000 8148 	beq.w	800615c <HAL_UART_IRQHandler+0x4d4>
      && ((cr1its & USART_SR_IDLE) != 0U))
 8005ecc:	f8d7 30e0 	ldr.w	r3, [r7, #224]	; 0xe0
 8005ed0:	f003 0310 	and.w	r3, r3, #16
 8005ed4:	2b00      	cmp	r3, #0
 8005ed6:	f000 8141 	beq.w	800615c <HAL_UART_IRQHandler+0x4d4>
  {
    __HAL_UART_CLEAR_IDLEFLAG(huart);
 8005eda:	2300      	movs	r3, #0
 8005edc:	60bb      	str	r3, [r7, #8]
 8005ede:	687b      	ldr	r3, [r7, #4]
 8005ee0:	681b      	ldr	r3, [r3, #0]
 8005ee2:	681b      	ldr	r3, [r3, #0]
 8005ee4:	60bb      	str	r3, [r7, #8]
 8005ee6:	687b      	ldr	r3, [r7, #4]
 8005ee8:	681b      	ldr	r3, [r3, #0]
 8005eea:	685b      	ldr	r3, [r3, #4]
 8005eec:	60bb      	str	r3, [r7, #8]
 8005eee:	68bb      	ldr	r3, [r7, #8]

    /* Check if DMA mode is enabled in UART */
    if (HAL_IS_BIT_SET(huart->Instance->CR3, USART_CR3_DMAR))
 8005ef0:	687b      	ldr	r3, [r7, #4]
 8005ef2:	681b      	ldr	r3, [r3, #0]
 8005ef4:	695b      	ldr	r3, [r3, #20]
 8005ef6:	f003 0340 	and.w	r3, r3, #64	; 0x40
 8005efa:	2b40      	cmp	r3, #64	; 0x40
 8005efc:	f040 80b6 	bne.w	800606c <HAL_UART_IRQHandler+0x3e4>
    {
      /* DMA mode enabled */
      /* Check received length : If all expected data are received, do nothing,
         (DMA cplt callback will be called).
         Otherwise, if at least one data has already been received, IDLE event is to be notified to user */
      uint16_t nb_remaining_rx_data = (uint16_t) __HAL_DMA_GET_COUNTER(huart->hdmarx);
 8005f00:	687b      	ldr	r3, [r7, #4]
 8005f02:	6bdb      	ldr	r3, [r3, #60]	; 0x3c
 8005f04:	681b      	ldr	r3, [r3, #0]
 8005f06:	685b      	ldr	r3, [r3, #4]
 8005f08:	f8a7 30be 	strh.w	r3, [r7, #190]	; 0xbe
      if ((nb_remaining_rx_data > 0U)
 8005f0c:	f8b7 30be 	ldrh.w	r3, [r7, #190]	; 0xbe
 8005f10:	2b00      	cmp	r3, #0
 8005f12:	f000 8145 	beq.w	80061a0 <HAL_UART_IRQHandler+0x518>
          && (nb_remaining_rx_data < huart->RxXferSize))
 8005f16:	687b      	ldr	r3, [r7, #4]
 8005f18:	8d9b      	ldrh	r3, [r3, #44]	; 0x2c
 8005f1a:	f8b7 20be 	ldrh.w	r2, [r7, #190]	; 0xbe
 8005f1e:	429a      	cmp	r2, r3
 8005f20:	f080 813e 	bcs.w	80061a0 <HAL_UART_IRQHandler+0x518>
      {
        /* Reception is not complete */
        huart->RxXferCount = nb_remaining_rx_data;
 8005f24:	687b      	ldr	r3, [r7, #4]
 8005f26:	f8b7 20be 	ldrh.w	r2, [r7, #190]	; 0xbe
 8005f2a:	85da      	strh	r2, [r3, #46]	; 0x2e

        /* In Normal mode, end DMA xfer and HAL UART Rx process*/
        if (huart->hdmarx->Init.Mode != DMA_CIRCULAR)
 8005f2c:	687b      	ldr	r3, [r7, #4]
 8005f2e:	6bdb      	ldr	r3, [r3, #60]	; 0x3c
 8005f30:	69db      	ldr	r3, [r3, #28]
 8005f32:	f5b3 7f80 	cmp.w	r3, #256	; 0x100
 8005f36:	f000 8088 	beq.w	800604a <HAL_UART_IRQHandler+0x3c2>
        {
          /* Disable PE and ERR (Frame error, noise error, overrun error) interrupts */
          ATOMIC_CLEAR_BIT(huart->Instance->CR1, USART_CR1_PEIE);
 8005f3a:	687b      	ldr	r3, [r7, #4]
 8005f3c:	681b      	ldr	r3, [r3, #0]
 8005f3e:	330c      	adds	r3, #12
 8005f40:	f8c7 3088 	str.w	r3, [r7, #136]	; 0x88
   __ASM volatile ("ldrex %0, %1" : "=r" (result) : "Q" (*addr) );
 8005f44:	f8d7 3088 	ldr.w	r3, [r7, #136]	; 0x88
 8005f48:	e853 3f00 	ldrex	r3, [r3]
 8005f4c:	f8c7 3084 	str.w	r3, [r7, #132]	; 0x84
   return(result);
 8005f50:	f8d7 3084 	ldr.w	r3, [r7, #132]	; 0x84
 8005f54:	f423 7380 	bic.w	r3, r3, #256	; 0x100
 8005f58:	f8c7 30b8 	str.w	r3, [r7, #184]	; 0xb8
 8005f5c:	687b      	ldr	r3, [r7, #4]
 8005f5e:	681b      	ldr	r3, [r3, #0]
 8005f60:	330c      	adds	r3, #12
 8005f62:	f8d7 20b8 	ldr.w	r2, [r7, #184]	; 0xb8
 8005f66:	f8c7 2094 	str.w	r2, [r7, #148]	; 0x94
 8005f6a:	f8c7 3090 	str.w	r3, [r7, #144]	; 0x90
   __ASM volatile ("strex %0, %2, %1" : "=&r" (result), "=Q" (*addr) : "r" (value) );
 8005f6e:	f8d7 1090 	ldr.w	r1, [r7, #144]	; 0x90
 8005f72:	f8d7 2094 	ldr.w	r2, [r7, #148]	; 0x94
 8005f76:	e841 2300 	strex	r3, r2, [r1]
 8005f7a:	f8c7 308c 	str.w	r3, [r7, #140]	; 0x8c
   return(result);
 8005f7e:	f8d7 308c 	ldr.w	r3, [r7, #140]	; 0x8c
 8005f82:	2b00      	cmp	r3, #0
 8005f84:	d1d9      	bne.n	8005f3a <HAL_UART_IRQHandler+0x2b2>
          ATOMIC_CLEAR_BIT(huart->Instance->CR3, USART_CR3_EIE);
 8005f86:	687b      	ldr	r3, [r7, #4]
 8005f88:	681b      	ldr	r3, [r3, #0]
 8005f8a:	3314      	adds	r3, #20
 8005f8c:	677b      	str	r3, [r7, #116]	; 0x74
   __ASM volatile ("ldrex %0, %1" : "=r" (result) : "Q" (*addr) );
 8005f8e:	6f7b      	ldr	r3, [r7, #116]	; 0x74
 8005f90:	e853 3f00 	ldrex	r3, [r3]
 8005f94:	673b      	str	r3, [r7, #112]	; 0x70
   return(result);
 8005f96:	6f3b      	ldr	r3, [r7, #112]	; 0x70
 8005f98:	f023 0301 	bic.w	r3, r3, #1
 8005f9c:	f8c7 30b4 	str.w	r3, [r7, #180]	; 0xb4
 8005fa0:	687b      	ldr	r3, [r7, #4]
 8005fa2:	681b      	ldr	r3, [r3, #0]
 8005fa4:	3314      	adds	r3, #20
 8005fa6:	f8d7 20b4 	ldr.w	r2, [r7, #180]	; 0xb4
 8005faa:	f8c7 2080 	str.w	r2, [r7, #128]	; 0x80
 8005fae:	67fb      	str	r3, [r7, #124]	; 0x7c
   __ASM volatile ("strex %0, %2, %1" : "=&r" (result), "=Q" (*addr) : "r" (value) );
 8005fb0:	6ff9      	ldr	r1, [r7, #124]	; 0x7c
 8005fb2:	f8d7 2080 	ldr.w	r2, [r7, #128]	; 0x80
 8005fb6:	e841 2300 	strex	r3, r2, [r1]
 8005fba:	67bb      	str	r3, [r7, #120]	; 0x78
   return(result);
 8005fbc:	6fbb      	ldr	r3, [r7, #120]	; 0x78
 8005fbe:	2b00      	cmp	r3, #0
 8005fc0:	d1e1      	bne.n	8005f86 <HAL_UART_IRQHandler+0x2fe>

          /* Disable the DMA transfer for the receiver request by resetting the DMAR bit
             in the UART CR3 register */
          ATOMIC_CLEAR_BIT(huart->Instance->CR3, USART_CR3_DMAR);
 8005fc2:	687b      	ldr	r3, [r7, #4]
 8005fc4:	681b      	ldr	r3, [r3, #0]
 8005fc6:	3314      	adds	r3, #20
 8005fc8:	663b      	str	r3, [r7, #96]	; 0x60
   __ASM volatile ("ldrex %0, %1" : "=r" (result) : "Q" (*addr) );
 8005fca:	6e3b      	ldr	r3, [r7, #96]	; 0x60
 8005fcc:	e853 3f00 	ldrex	r3, [r3]
 8005fd0:	65fb      	str	r3, [r7, #92]	; 0x5c
   return(result);
 8005fd2:	6dfb      	ldr	r3, [r7, #92]	; 0x5c
 8005fd4:	f023 0340 	bic.w	r3, r3, #64	; 0x40
 8005fd8:	f8c7 30b0 	str.w	r3, [r7, #176]	; 0xb0
 8005fdc:	687b      	ldr	r3, [r7, #4]
 8005fde:	681b      	ldr	r3, [r3, #0]
 8005fe0:	3314      	adds	r3, #20
 8005fe2:	f8d7 20b0 	ldr.w	r2, [r7, #176]	; 0xb0
 8005fe6:	66fa      	str	r2, [r7, #108]	; 0x6c
 8005fe8:	66bb      	str	r3, [r7, #104]	; 0x68
   __ASM volatile ("strex %0, %2, %1" : "=&r" (result), "=Q" (*addr) : "r" (value) );
 8005fea:	6eb9      	ldr	r1, [r7, #104]	; 0x68
 8005fec:	6efa      	ldr	r2, [r7, #108]	; 0x6c
 8005fee:	e841 2300 	strex	r3, r2, [r1]
 8005ff2:	667b      	str	r3, [r7, #100]	; 0x64
   return(result);
 8005ff4:	6e7b      	ldr	r3, [r7, #100]	; 0x64
 8005ff6:	2b00      	cmp	r3, #0
 8005ff8:	d1e3      	bne.n	8005fc2 <HAL_UART_IRQHandler+0x33a>

          /* At end of Rx process, restore huart->RxState to Ready */
          huart->RxState = HAL_UART_STATE_READY;
 8005ffa:	687b      	ldr	r3, [r7, #4]
 8005ffc:	2220      	movs	r2, #32
 8005ffe:	f883 2042 	strb.w	r2, [r3, #66]	; 0x42
          huart->ReceptionType = HAL_UART_RECEPTION_STANDARD;
 8006002:	687b      	ldr	r3, [r7, #4]
 8006004:	2200      	movs	r2, #0
 8006006:	631a      	str	r2, [r3, #48]	; 0x30

          ATOMIC_CLEAR_BIT(huart->Instance->CR1, USART_CR1_IDLEIE);
 8006008:	687b      	ldr	r3, [r7, #4]
 800600a:	681b      	ldr	r3, [r3, #0]
 800600c:	330c      	adds	r3, #12
 800600e:	64fb      	str	r3, [r7, #76]	; 0x4c
   __ASM volatile ("ldrex %0, %1" : "=r" (result) : "Q" (*addr) );
 8006010:	6cfb      	ldr	r3, [r7, #76]	; 0x4c
 8006012:	e853 3f00 	ldrex	r3, [r3]
 8006016:	64bb      	str	r3, [r7, #72]	; 0x48
   return(result);
 8006018:	6cbb      	ldr	r3, [r7, #72]	; 0x48
 800601a:	f023 0310 	bic.w	r3, r3, #16
 800601e:	f8c7 30ac 	str.w	r3, [r7, #172]	; 0xac
 8006022:	687b      	ldr	r3, [r7, #4]
 8006024:	681b      	ldr	r3, [r3, #0]
 8006026:	330c      	adds	r3, #12
 8006028:	f8d7 20ac 	ldr.w	r2, [r7, #172]	; 0xac
 800602c:	65ba      	str	r2, [r7, #88]	; 0x58
 800602e:	657b      	str	r3, [r7, #84]	; 0x54
   __ASM volatile ("strex %0, %2, %1" : "=&r" (result), "=Q" (*addr) : "r" (value) );
 8006030:	6d79      	ldr	r1, [r7, #84]	; 0x54
 8006032:	6dba      	ldr	r2, [r7, #88]	; 0x58
 8006034:	e841 2300 	strex	r3, r2, [r1]
 8006038:	653b      	str	r3, [r7, #80]	; 0x50
   return(result);
 800603a:	6d3b      	ldr	r3, [r7, #80]	; 0x50
 800603c:	2b00      	cmp	r3, #0
 800603e:	d1e3      	bne.n	8006008 <HAL_UART_IRQHandler+0x380>

          /* Last bytes received, so no need as the abort is immediate */
          (void)HAL_DMA_Abort(huart->hdmarx);
 8006040:	687b      	ldr	r3, [r7, #4]
 8006042:	6bdb      	ldr	r3, [r3, #60]	; 0x3c
 8006044:	4618      	mov	r0, r3
 8006046:	f7fb ff24 	bl	8001e92 <HAL_DMA_Abort>
        }

        /* Initialize type of RxEvent that correspond to RxEvent callback execution;
        In this case, Rx Event type is Idle Event */
        huart->RxEventType = HAL_UART_RXEVENT_IDLE;
 800604a:	687b      	ldr	r3, [r7, #4]
 800604c:	2202      	movs	r2, #2
 800604e:	635a      	str	r2, [r3, #52]	; 0x34
#if (USE_HAL_UART_REGISTER_CALLBACKS == 1)
        /*Call registered Rx Event callback*/
        huart->RxEventCallback(huart, (huart->RxXferSize - huart->RxXferCount));
#else
        /*Call legacy weak Rx Event callback*/
        HAL_UARTEx_RxEventCallback(huart, (huart->RxXferSize - huart->RxXferCount));
 8006050:	687b      	ldr	r3, [r7, #4]
 8006052:	8d9a      	ldrh	r2, [r3, #44]	; 0x2c
 8006054:	687b      	ldr	r3, [r7, #4]
 8006056:	8ddb      	ldrh	r3, [r3, #46]	; 0x2e
 8006058:	b29b      	uxth	r3, r3
 800605a:	1ad3      	subs	r3, r2, r3
 800605c:	b29b      	uxth	r3, r3
 800605e:	4619      	mov	r1, r3
 8006060:	6878      	ldr	r0, [r7, #4]
 8006062:	f000 f8c1 	bl	80061e8 <HAL_UARTEx_RxEventCallback>
#endif /* USE_HAL_UART_REGISTER_CALLBACKS */
      }
      return;
 8006066:	e09b      	b.n	80061a0 <HAL_UART_IRQHandler+0x518>
 8006068:	080063ed 	.word	0x080063ed
    else
    {
      /* DMA mode not enabled */
      /* Check received length : If all expected data are received, do nothing.
         Otherwise, if at least one data has already been received, IDLE event is to be notified to user */
      uint16_t nb_rx_data = huart->RxXferSize - huart->RxXferCount;
 800606c:	687b      	ldr	r3, [r7, #4]
 800606e:	8d9a      	ldrh	r2, [r3, #44]	; 0x2c
 8006070:	687b      	ldr	r3, [r7, #4]
 8006072:	8ddb      	ldrh	r3, [r3, #46]	; 0x2e
 8006074:	b29b      	uxth	r3, r3
 8006076:	1ad3      	subs	r3, r2, r3
 8006078:	f8a7 30ce 	strh.w	r3, [r7, #206]	; 0xce
      if ((huart->RxXferCount > 0U)
 800607c:	687b      	ldr	r3, [r7, #4]
 800607e:	8ddb      	ldrh	r3, [r3, #46]	; 0x2e
 8006080:	b29b      	uxth	r3, r3
 8006082:	2b00      	cmp	r3, #0
 8006084:	f000 808e 	beq.w	80061a4 <HAL_UART_IRQHandler+0x51c>
          && (nb_rx_data > 0U))
 8006088:	f8b7 30ce 	ldrh.w	r3, [r7, #206]	; 0xce
 800608c:	2b00      	cmp	r3, #0
 800608e:	f000 8089 	beq.w	80061a4 <HAL_UART_IRQHandler+0x51c>
      {
        /* Disable the UART Parity Error Interrupt and RXNE interrupts */
        ATOMIC_CLEAR_BIT(huart->Instance->CR1, (USART_CR1_RXNEIE | USART_CR1_PEIE));
 8006092:	687b      	ldr	r3, [r7, #4]
 8006094:	681b      	ldr	r3, [r3, #0]
 8006096:	330c      	adds	r3, #12
 8006098:	63bb      	str	r3, [r7, #56]	; 0x38
   __ASM volatile ("ldrex %0, %1" : "=r" (result) : "Q" (*addr) );
 800609a:	6bbb      	ldr	r3, [r7, #56]	; 0x38
 800609c:	e853 3f00 	ldrex	r3, [r3]
 80060a0:	637b      	str	r3, [r7, #52]	; 0x34
   return(result);
 80060a2:	6b7b      	ldr	r3, [r7, #52]	; 0x34
 80060a4:	f423 7390 	bic.w	r3, r3, #288	; 0x120
 80060a8:	f8c7 30c8 	str.w	r3, [r7, #200]	; 0xc8
 80060ac:	687b      	ldr	r3, [r7, #4]
 80060ae:	681b      	ldr	r3, [r3, #0]
 80060b0:	330c      	adds	r3, #12
 80060b2:	f8d7 20c8 	ldr.w	r2, [r7, #200]	; 0xc8
 80060b6:	647a      	str	r2, [r7, #68]	; 0x44
 80060b8:	643b      	str	r3, [r7, #64]	; 0x40
   __ASM volatile ("strex %0, %2, %1" : "=&r" (result), "=Q" (*addr) : "r" (value) );
 80060ba:	6c39      	ldr	r1, [r7, #64]	; 0x40
 80060bc:	6c7a      	ldr	r2, [r7, #68]	; 0x44
 80060be:	e841 2300 	strex	r3, r2, [r1]
 80060c2:	63fb      	str	r3, [r7, #60]	; 0x3c
   return(result);
 80060c4:	6bfb      	ldr	r3, [r7, #60]	; 0x3c
 80060c6:	2b00      	cmp	r3, #0
 80060c8:	d1e3      	bne.n	8006092 <HAL_UART_IRQHandler+0x40a>

        /* Disable the UART Error Interrupt: (Frame error, noise error, overrun error) */
        ATOMIC_CLEAR_BIT(huart->Instance->CR3, USART_CR3_EIE);
 80060ca:	687b      	ldr	r3, [r7, #4]
 80060cc:	681b      	ldr	r3, [r3, #0]
 80060ce:	3314      	adds	r3, #20
 80060d0:	627b      	str	r3, [r7, #36]	; 0x24
   __ASM volatile ("ldrex %0, %1" : "=r" (result) : "Q" (*addr) );
 80060d2:	6a7b      	ldr	r3, [r7, #36]	; 0x24
 80060d4:	e853 3f00 	ldrex	r3, [r3]
 80060d8:	623b      	str	r3, [r7, #32]
   return(result);
 80060da:	6a3b      	ldr	r3, [r7, #32]
 80060dc:	f023 0301 	bic.w	r3, r3, #1
 80060e0:	f8c7 30c4 	str.w	r3, [r7, #196]	; 0xc4
 80060e4:	687b      	ldr	r3, [r7, #4]
 80060e6:	681b      	ldr	r3, [r3, #0]
 80060e8:	3314      	adds	r3, #20
 80060ea:	f8d7 20c4 	ldr.w	r2, [r7, #196]	; 0xc4
 80060ee:	633a      	str	r2, [r7, #48]	; 0x30
 80060f0:	62fb      	str	r3, [r7, #44]	; 0x2c
   __ASM volatile ("strex %0, %2, %1" : "=&r" (result), "=Q" (*addr) : "r" (value) );
 80060f2:	6af9      	ldr	r1, [r7, #44]	; 0x2c
 80060f4:	6b3a      	ldr	r2, [r7, #48]	; 0x30
 80060f6:	e841 2300 	strex	r3, r2, [r1]
 80060fa:	62bb      	str	r3, [r7, #40]	; 0x28
   return(result);
 80060fc:	6abb      	ldr	r3, [r7, #40]	; 0x28
 80060fe:	2b00      	cmp	r3, #0
 8006100:	d1e3      	bne.n	80060ca <HAL_UART_IRQHandler+0x442>

        /* Rx process is completed, restore huart->RxState to Ready */
        huart->RxState = HAL_UART_STATE_READY;
 8006102:	687b      	ldr	r3, [r7, #4]
 8006104:	2220      	movs	r2, #32
 8006106:	f883 2042 	strb.w	r2, [r3, #66]	; 0x42
        huart->ReceptionType = HAL_UART_RECEPTION_STANDARD;
 800610a:	687b      	ldr	r3, [r7, #4]
 800610c:	2200      	movs	r2, #0
 800610e:	631a      	str	r2, [r3, #48]	; 0x30

        ATOMIC_CLEAR_BIT(huart->Instance->CR1, USART_CR1_IDLEIE);
 8006110:	687b      	ldr	r3, [r7, #4]
 8006112:	681b      	ldr	r3, [r3, #0]
 8006114:	330c      	adds	r3, #12
 8006116:	613b      	str	r3, [r7, #16]
   __ASM volatile ("ldrex %0, %1" : "=r" (result) : "Q" (*addr) );
 8006118:	693b      	ldr	r3, [r7, #16]
 800611a:	e853 3f00 	ldrex	r3, [r3]
 800611e:	60fb      	str	r3, [r7, #12]
   return(result);
 8006120:	68fb      	ldr	r3, [r7, #12]
 8006122:	f023 0310 	bic.w	r3, r3, #16
 8006126:	f8c7 30c0 	str.w	r3, [r7, #192]	; 0xc0
 800612a:	687b      	ldr	r3, [r7, #4]
 800612c:	681b      	ldr	r3, [r3, #0]
 800612e:	330c      	adds	r3, #12
 8006130:	f8d7 20c0 	ldr.w	r2, [r7, #192]	; 0xc0
 8006134:	61fa      	str	r2, [r7, #28]
 8006136:	61bb      	str	r3, [r7, #24]
   __ASM volatile ("strex %0, %2, %1" : "=&r" (result), "=Q" (*addr) : "r" (value) );
 8006138:	69b9      	ldr	r1, [r7, #24]
 800613a:	69fa      	ldr	r2, [r7, #28]
 800613c:	e841 2300 	strex	r3, r2, [r1]
 8006140:	617b      	str	r3, [r7, #20]
   return(result);
 8006142:	697b      	ldr	r3, [r7, #20]
 8006144:	2b00      	cmp	r3, #0
 8006146:	d1e3      	bne.n	8006110 <HAL_UART_IRQHandler+0x488>

        /* Initialize type of RxEvent that correspond to RxEvent callback execution;
           In this case, Rx Event type is Idle Event */
        huart->RxEventType = HAL_UART_RXEVENT_IDLE;
 8006148:	687b      	ldr	r3, [r7, #4]
 800614a:	2202      	movs	r2, #2
 800614c:	635a      	str	r2, [r3, #52]	; 0x34
#if (USE_HAL_UART_REGISTER_CALLBACKS == 1)
        /*Call registered Rx complete callback*/
        huart->RxEventCallback(huart, nb_rx_data);
#else
        /*Call legacy weak Rx Event callback*/
        HAL_UARTEx_RxEventCallback(huart, nb_rx_data);
 800614e:	f8b7 30ce 	ldrh.w	r3, [r7, #206]	; 0xce
 8006152:	4619      	mov	r1, r3
 8006154:	6878      	ldr	r0, [r7, #4]
 8006156:	f000 f847 	bl	80061e8 <HAL_UARTEx_RxEventCallback>
#endif /* USE_HAL_UART_REGISTER_CALLBACKS */
      }
      return;
 800615a:	e023      	b.n	80061a4 <HAL_UART_IRQHandler+0x51c>
    }
  }

  /* UART in mode Transmitter ------------------------------------------------*/
  if (((isrflags & USART_SR_TXE) != RESET) && ((cr1its & USART_CR1_TXEIE) != RESET))
 800615c:	f8d7 30e4 	ldr.w	r3, [r7, #228]	; 0xe4
 8006160:	f003 0380 	and.w	r3, r3, #128	; 0x80
 8006164:	2b00      	cmp	r3, #0
 8006166:	d009      	beq.n	800617c <HAL_UART_IRQHandler+0x4f4>
 8006168:	f8d7 30e0 	ldr.w	r3, [r7, #224]	; 0xe0
 800616c:	f003 0380 	and.w	r3, r3, #128	; 0x80
 8006170:	2b00      	cmp	r3, #0
 8006172:	d003      	beq.n	800617c <HAL_UART_IRQHandler+0x4f4>
  {
    UART_Transmit_IT(huart);
 8006174:	6878      	ldr	r0, [r7, #4]
 8006176:	f000 f965 	bl	8006444 <UART_Transmit_IT>
    return;
 800617a:	e014      	b.n	80061a6 <HAL_UART_IRQHandler+0x51e>
  }

  /* UART in mode Transmitter end --------------------------------------------*/
  if (((isrflags & USART_SR_TC) != RESET) && ((cr1its & USART_CR1_TCIE) != RESET))
 800617c:	f8d7 30e4 	ldr.w	r3, [r7, #228]	; 0xe4
 8006180:	f003 0340 	and.w	r3, r3, #64	; 0x40
 8006184:	2b00      	cmp	r3, #0
 8006186:	d00e      	beq.n	80061a6 <HAL_UART_IRQHandler+0x51e>
 8006188:	f8d7 30e0 	ldr.w	r3, [r7, #224]	; 0xe0
 800618c:	f003 0340 	and.w	r3, r3, #64	; 0x40
 8006190:	2b00      	cmp	r3, #0
 8006192:	d008      	beq.n	80061a6 <HAL_UART_IRQHandler+0x51e>
  {
    UART_EndTransmit_IT(huart);
 8006194:	6878      	ldr	r0, [r7, #4]
 8006196:	f000 f9a5 	bl	80064e4 <UART_EndTransmit_IT>
    return;
 800619a:	e004      	b.n	80061a6 <HAL_UART_IRQHandler+0x51e>
    return;
 800619c:	bf00      	nop
 800619e:	e002      	b.n	80061a6 <HAL_UART_IRQHandler+0x51e>
      return;
 80061a0:	bf00      	nop
 80061a2:	e000      	b.n	80061a6 <HAL_UART_IRQHandler+0x51e>
      return;
 80061a4:	bf00      	nop
  }
}
 80061a6:	37e8      	adds	r7, #232	; 0xe8
 80061a8:	46bd      	mov	sp, r7
 80061aa:	bd80      	pop	{r7, pc}

080061ac <HAL_UART_TxCpltCallback>:
  * @param  huart  Pointer to a UART_HandleTypeDef structure that contains
  *                the configuration information for the specified UART module.
  * @retval None
  */
__weak void HAL_UART_TxCpltCallback(UART_HandleTypeDef *huart)
{
 80061ac:	b480      	push	{r7}
 80061ae:	b083      	sub	sp, #12
 80061b0:	af00      	add	r7, sp, #0
 80061b2:	6078      	str	r0, [r7, #4]
  /* Prevent unused argument(s) compilation warning */
  UNUSED(huart);
  /* NOTE: This function should not be modified, when the callback is needed,
           the HAL_UART_TxCpltCallback could be implemented in the user file
   */
}
 80061b4:	bf00      	nop
 80061b6:	370c      	adds	r7, #12
 80061b8:	46bd      	mov	sp, r7
 80061ba:	f85d 7b04 	ldr.w	r7, [sp], #4
 80061be:	4770      	bx	lr

080061c0 <HAL_UART_ErrorCallback>:
  * @param  huart  Pointer to a UART_HandleTypeDef structure that contains
  *                the configuration information for the specified UART module.
  * @retval None
  */
__weak void HAL_UART_ErrorCallback(UART_HandleTypeDef *huart)
{
 80061c0:	b480      	push	{r7}
 80061c2:	b083      	sub	sp, #12
 80061c4:	af00      	add	r7, sp, #0
 80061c6:	6078      	str	r0, [r7, #4]
  /* Prevent unused argument(s) compilation warning */
  UNUSED(huart);
  /* NOTE: This function should not be modified, when the callback is needed,
           the HAL_UART_ErrorCallback could be implemented in the user file
   */
}
 80061c8:	bf00      	nop
 80061ca:	370c      	adds	r7, #12
 80061cc:	46bd      	mov	sp, r7
 80061ce:	f85d 7b04 	ldr.w	r7, [sp], #4
 80061d2:	4770      	bx	lr

080061d4 <HAL_UART_AbortReceiveCpltCallback>:
  * @brief  UART Abort Receive Complete callback.
  * @param  huart UART handle.
  * @retval None
  */
__weak void HAL_UART_AbortReceiveCpltCallback(UART_HandleTypeDef *huart)
{
 80061d4:	b480      	push	{r7}
 80061d6:	b083      	sub	sp, #12
 80061d8:	af00      	add	r7, sp, #0
 80061da:	6078      	str	r0, [r7, #4]
  UNUSED(huart);

  /* NOTE : This function should not be modified, when the callback is needed,
            the HAL_UART_AbortReceiveCpltCallback can be implemented in the user file.
   */
}
 80061dc:	bf00      	nop
 80061de:	370c      	adds	r7, #12
 80061e0:	46bd      	mov	sp, r7
 80061e2:	f85d 7b04 	ldr.w	r7, [sp], #4
 80061e6:	4770      	bx	lr

080061e8 <HAL_UARTEx_RxEventCallback>:
  * @param  Size  Number of data available in application reception buffer (indicates a position in
  *               reception buffer until which, data are available)
  * @retval None
  */
__weak void HAL_UARTEx_RxEventCallback(UART_HandleTypeDef *huart, uint16_t Size)
{
 80061e8:	b480      	push	{r7}
 80061ea:	b083      	sub	sp, #12
 80061ec:	af00      	add	r7, sp, #0
 80061ee:	6078      	str	r0, [r7, #4]
 80061f0:	460b      	mov	r3, r1
 80061f2:	807b      	strh	r3, [r7, #2]
  UNUSED(Size);

  /* NOTE : This function should not be modified, when the callback is needed,
            the HAL_UARTEx_RxEventCallback can be implemented in the user file.
   */
}
 80061f4:	bf00      	nop
 80061f6:	370c      	adds	r7, #12
 80061f8:	46bd      	mov	sp, r7
 80061fa:	f85d 7b04 	ldr.w	r7, [sp], #4
 80061fe:	4770      	bx	lr

08006200 <UART_WaitOnFlagUntilTimeout>:
  * @param  Timeout Timeout duration
  * @retval HAL status
  */
static HAL_StatusTypeDef UART_WaitOnFlagUntilTimeout(UART_HandleTypeDef *huart, uint32_t Flag, FlagStatus Status,
                                                     uint32_t Tickstart, uint32_t Timeout)
{
 8006200:	b580      	push	{r7, lr}
 8006202:	b086      	sub	sp, #24
 8006204:	af00      	add	r7, sp, #0
 8006206:	60f8      	str	r0, [r7, #12]
 8006208:	60b9      	str	r1, [r7, #8]
 800620a:	603b      	str	r3, [r7, #0]
 800620c:	4613      	mov	r3, r2
 800620e:	71fb      	strb	r3, [r7, #7]
  /* Wait until flag is set */
  while ((__HAL_UART_GET_FLAG(huart, Flag) ? SET : RESET) == Status)
 8006210:	e03b      	b.n	800628a <UART_WaitOnFlagUntilTimeout+0x8a>
  {
    /* Check for the Timeout */
    if (Timeout != HAL_MAX_DELAY)
 8006212:	6a3b      	ldr	r3, [r7, #32]
 8006214:	f1b3 3fff 	cmp.w	r3, #4294967295	; 0xffffffff
 8006218:	d037      	beq.n	800628a <UART_WaitOnFlagUntilTimeout+0x8a>
    {
      if (((HAL_GetTick() - Tickstart) > Timeout) || (Timeout == 0U))
 800621a:	f7fb fd1d 	bl	8001c58 <HAL_GetTick>
 800621e:	4602      	mov	r2, r0
 8006220:	683b      	ldr	r3, [r7, #0]
 8006222:	1ad3      	subs	r3, r2, r3
 8006224:	6a3a      	ldr	r2, [r7, #32]
 8006226:	429a      	cmp	r2, r3
 8006228:	d302      	bcc.n	8006230 <UART_WaitOnFlagUntilTimeout+0x30>
 800622a:	6a3b      	ldr	r3, [r7, #32]
 800622c:	2b00      	cmp	r3, #0
 800622e:	d101      	bne.n	8006234 <UART_WaitOnFlagUntilTimeout+0x34>
      {

        return HAL_TIMEOUT;
 8006230:	2303      	movs	r3, #3
 8006232:	e03a      	b.n	80062aa <UART_WaitOnFlagUntilTimeout+0xaa>
      }

      if ((READ_BIT(huart->Instance->CR1, USART_CR1_RE) != 0U) && (Flag != UART_FLAG_TXE) && (Flag != UART_FLAG_TC))
 8006234:	68fb      	ldr	r3, [r7, #12]
 8006236:	681b      	ldr	r3, [r3, #0]
 8006238:	68db      	ldr	r3, [r3, #12]
 800623a:	f003 0304 	and.w	r3, r3, #4
 800623e:	2b00      	cmp	r3, #0
 8006240:	d023      	beq.n	800628a <UART_WaitOnFlagUntilTimeout+0x8a>
 8006242:	68bb      	ldr	r3, [r7, #8]
 8006244:	2b80      	cmp	r3, #128	; 0x80
 8006246:	d020      	beq.n	800628a <UART_WaitOnFlagUntilTimeout+0x8a>
 8006248:	68bb      	ldr	r3, [r7, #8]
 800624a:	2b40      	cmp	r3, #64	; 0x40
 800624c:	d01d      	beq.n	800628a <UART_WaitOnFlagUntilTimeout+0x8a>
      {
        if (__HAL_UART_GET_FLAG(huart, UART_FLAG_ORE) == SET)
 800624e:	68fb      	ldr	r3, [r7, #12]
 8006250:	681b      	ldr	r3, [r3, #0]
 8006252:	681b      	ldr	r3, [r3, #0]
 8006254:	f003 0308 	and.w	r3, r3, #8
 8006258:	2b08      	cmp	r3, #8
 800625a:	d116      	bne.n	800628a <UART_WaitOnFlagUntilTimeout+0x8a>
        {
          /* Clear Overrun Error flag*/
          __HAL_UART_CLEAR_OREFLAG(huart);
 800625c:	2300      	movs	r3, #0
 800625e:	617b      	str	r3, [r7, #20]
 8006260:	68fb      	ldr	r3, [r7, #12]
 8006262:	681b      	ldr	r3, [r3, #0]
 8006264:	681b      	ldr	r3, [r3, #0]
 8006266:	617b      	str	r3, [r7, #20]
 8006268:	68fb      	ldr	r3, [r7, #12]
 800626a:	681b      	ldr	r3, [r3, #0]
 800626c:	685b      	ldr	r3, [r3, #4]
 800626e:	617b      	str	r3, [r7, #20]
 8006270:	697b      	ldr	r3, [r7, #20]

          /* Blocking error : transfer is aborted
          Set the UART state ready to be able to start again the process,
          Disable Rx Interrupts if ongoing */
          UART_EndRxTransfer(huart);
 8006272:	68f8      	ldr	r0, [r7, #12]
 8006274:	f000 f857 	bl	8006326 <UART_EndRxTransfer>

          huart->ErrorCode = HAL_UART_ERROR_ORE;
 8006278:	68fb      	ldr	r3, [r7, #12]
 800627a:	2208      	movs	r2, #8
 800627c:	645a      	str	r2, [r3, #68]	; 0x44

          /* Process Unlocked */
          __HAL_UNLOCK(huart);
 800627e:	68fb      	ldr	r3, [r7, #12]
 8006280:	2200      	movs	r2, #0
 8006282:	f883 2040 	strb.w	r2, [r3, #64]	; 0x40

          return HAL_ERROR;
 8006286:	2301      	movs	r3, #1
 8006288:	e00f      	b.n	80062aa <UART_WaitOnFlagUntilTimeout+0xaa>
  while ((__HAL_UART_GET_FLAG(huart, Flag) ? SET : RESET) == Status)
 800628a:	68fb      	ldr	r3, [r7, #12]
 800628c:	681b      	ldr	r3, [r3, #0]
 800628e:	681a      	ldr	r2, [r3, #0]
 8006290:	68bb      	ldr	r3, [r7, #8]
 8006292:	4013      	ands	r3, r2
 8006294:	68ba      	ldr	r2, [r7, #8]
 8006296:	429a      	cmp	r2, r3
 8006298:	bf0c      	ite	eq
 800629a:	2301      	moveq	r3, #1
 800629c:	2300      	movne	r3, #0
 800629e:	b2db      	uxtb	r3, r3
 80062a0:	461a      	mov	r2, r3
 80062a2:	79fb      	ldrb	r3, [r7, #7]
 80062a4:	429a      	cmp	r2, r3
 80062a6:	d0b4      	beq.n	8006212 <UART_WaitOnFlagUntilTimeout+0x12>
        }
      }
    }
  }
  return HAL_OK;
 80062a8:	2300      	movs	r3, #0
}
 80062aa:	4618      	mov	r0, r3
 80062ac:	3718      	adds	r7, #24
 80062ae:	46bd      	mov	sp, r7
 80062b0:	bd80      	pop	{r7, pc}

080062b2 <UART_Start_Receive_IT>:
  * @param  pData Pointer to data buffer (u8 or u16 data elements).
  * @param  Size  Amount of data elements (u8 or u16) to be received.
  * @retval HAL status
  */
HAL_StatusTypeDef UART_Start_Receive_IT(UART_HandleTypeDef *huart, uint8_t *pData, uint16_t Size)
{
 80062b2:	b480      	push	{r7}
 80062b4:	b085      	sub	sp, #20
 80062b6:	af00      	add	r7, sp, #0
 80062b8:	60f8      	str	r0, [r7, #12]
 80062ba:	60b9      	str	r1, [r7, #8]
 80062bc:	4613      	mov	r3, r2
 80062be:	80fb      	strh	r3, [r7, #6]
  huart->pRxBuffPtr = pData;
 80062c0:	68fb      	ldr	r3, [r7, #12]
 80062c2:	68ba      	ldr	r2, [r7, #8]
 80062c4:	629a      	str	r2, [r3, #40]	; 0x28
  huart->RxXferSize = Size;
 80062c6:	68fb      	ldr	r3, [r7, #12]
 80062c8:	88fa      	ldrh	r2, [r7, #6]
 80062ca:	859a      	strh	r2, [r3, #44]	; 0x2c
  huart->RxXferCount = Size;
 80062cc:	68fb      	ldr	r3, [r7, #12]
 80062ce:	88fa      	ldrh	r2, [r7, #6]
 80062d0:	85da      	strh	r2, [r3, #46]	; 0x2e

  huart->ErrorCode = HAL_UART_ERROR_NONE;
 80062d2:	68fb      	ldr	r3, [r7, #12]
 80062d4:	2200      	movs	r2, #0
 80062d6:	645a      	str	r2, [r3, #68]	; 0x44
  huart->RxState = HAL_UART_STATE_BUSY_RX;
 80062d8:	68fb      	ldr	r3, [r7, #12]
 80062da:	2222      	movs	r2, #34	; 0x22
 80062dc:	f883 2042 	strb.w	r2, [r3, #66]	; 0x42

  if (huart->Init.Parity != UART_PARITY_NONE)
 80062e0:	68fb      	ldr	r3, [r7, #12]
 80062e2:	691b      	ldr	r3, [r3, #16]
 80062e4:	2b00      	cmp	r3, #0
 80062e6:	d007      	beq.n	80062f8 <UART_Start_Receive_IT+0x46>
  {
    /* Enable the UART Parity Error Interrupt */
    __HAL_UART_ENABLE_IT(huart, UART_IT_PE);
 80062e8:	68fb      	ldr	r3, [r7, #12]
 80062ea:	681b      	ldr	r3, [r3, #0]
 80062ec:	68da      	ldr	r2, [r3, #12]
 80062ee:	68fb      	ldr	r3, [r7, #12]
 80062f0:	681b      	ldr	r3, [r3, #0]
 80062f2:	f442 7280 	orr.w	r2, r2, #256	; 0x100
 80062f6:	60da      	str	r2, [r3, #12]
  }

  /* Enable the UART Error Interrupt: (Frame error, noise error, overrun error) */
  __HAL_UART_ENABLE_IT(huart, UART_IT_ERR);
 80062f8:	68fb      	ldr	r3, [r7, #12]
 80062fa:	681b      	ldr	r3, [r3, #0]
 80062fc:	695a      	ldr	r2, [r3, #20]
 80062fe:	68fb      	ldr	r3, [r7, #12]
 8006300:	681b      	ldr	r3, [r3, #0]
 8006302:	f042 0201 	orr.w	r2, r2, #1
 8006306:	615a      	str	r2, [r3, #20]

  /* Enable the UART Data Register not empty Interrupt */
  __HAL_UART_ENABLE_IT(huart, UART_IT_RXNE);
 8006308:	68fb      	ldr	r3, [r7, #12]
 800630a:	681b      	ldr	r3, [r3, #0]
 800630c:	68da      	ldr	r2, [r3, #12]
 800630e:	68fb      	ldr	r3, [r7, #12]
 8006310:	681b      	ldr	r3, [r3, #0]
 8006312:	f042 0220 	orr.w	r2, r2, #32
 8006316:	60da      	str	r2, [r3, #12]

  return HAL_OK;
 8006318:	2300      	movs	r3, #0
}
 800631a:	4618      	mov	r0, r3
 800631c:	3714      	adds	r7, #20
 800631e:	46bd      	mov	sp, r7
 8006320:	f85d 7b04 	ldr.w	r7, [sp], #4
 8006324:	4770      	bx	lr

08006326 <UART_EndRxTransfer>:
  * @brief  End ongoing Rx transfer on UART peripheral (following error detection or Reception completion).
  * @param  huart UART handle.
  * @retval None
  */
static void UART_EndRxTransfer(UART_HandleTypeDef *huart)
{
 8006326:	b480      	push	{r7}
 8006328:	b095      	sub	sp, #84	; 0x54
 800632a:	af00      	add	r7, sp, #0
 800632c:	6078      	str	r0, [r7, #4]
  /* Disable RXNE, PE and ERR (Frame error, noise error, overrun error) interrupts */
  ATOMIC_CLEAR_BIT(huart->Instance->CR1, (USART_CR1_RXNEIE | USART_CR1_PEIE));
 800632e:	687b      	ldr	r3, [r7, #4]
 8006330:	681b      	ldr	r3, [r3, #0]
 8006332:	330c      	adds	r3, #12
 8006334:	637b      	str	r3, [r7, #52]	; 0x34
   __ASM volatile ("ldrex %0, %1" : "=r" (result) : "Q" (*addr) );
 8006336:	6b7b      	ldr	r3, [r7, #52]	; 0x34
 8006338:	e853 3f00 	ldrex	r3, [r3]
 800633c:	633b      	str	r3, [r7, #48]	; 0x30
   return(result);
 800633e:	6b3b      	ldr	r3, [r7, #48]	; 0x30
 8006340:	f423 7390 	bic.w	r3, r3, #288	; 0x120
 8006344:	64fb      	str	r3, [r7, #76]	; 0x4c
 8006346:	687b      	ldr	r3, [r7, #4]
 8006348:	681b      	ldr	r3, [r3, #0]
 800634a:	330c      	adds	r3, #12
 800634c:	6cfa      	ldr	r2, [r7, #76]	; 0x4c
 800634e:	643a      	str	r2, [r7, #64]	; 0x40
 8006350:	63fb      	str	r3, [r7, #60]	; 0x3c
   __ASM volatile ("strex %0, %2, %1" : "=&r" (result), "=Q" (*addr) : "r" (value) );
 8006352:	6bf9      	ldr	r1, [r7, #60]	; 0x3c
 8006354:	6c3a      	ldr	r2, [r7, #64]	; 0x40
 8006356:	e841 2300 	strex	r3, r2, [r1]
 800635a:	63bb      	str	r3, [r7, #56]	; 0x38
   return(result);
 800635c:	6bbb      	ldr	r3, [r7, #56]	; 0x38
 800635e:	2b00      	cmp	r3, #0
 8006360:	d1e5      	bne.n	800632e <UART_EndRxTransfer+0x8>
  ATOMIC_CLEAR_BIT(huart->Instance->CR3, USART_CR3_EIE);
 8006362:	687b      	ldr	r3, [r7, #4]
 8006364:	681b      	ldr	r3, [r3, #0]
 8006366:	3314      	adds	r3, #20
 8006368:	623b      	str	r3, [r7, #32]
   __ASM volatile ("ldrex %0, %1" : "=r" (result) : "Q" (*addr) );
 800636a:	6a3b      	ldr	r3, [r7, #32]
 800636c:	e853 3f00 	ldrex	r3, [r3]
 8006370:	61fb      	str	r3, [r7, #28]
   return(result);
 8006372:	69fb      	ldr	r3, [r7, #28]
 8006374:	f023 0301 	bic.w	r3, r3, #1
 8006378:	64bb      	str	r3, [r7, #72]	; 0x48
 800637a:	687b      	ldr	r3, [r7, #4]
 800637c:	681b      	ldr	r3, [r3, #0]
 800637e:	3314      	adds	r3, #20
 8006380:	6cba      	ldr	r2, [r7, #72]	; 0x48
 8006382:	62fa      	str	r2, [r7, #44]	; 0x2c
 8006384:	62bb      	str	r3, [r7, #40]	; 0x28
   __ASM volatile ("strex %0, %2, %1" : "=&r" (result), "=Q" (*addr) : "r" (value) );
 8006386:	6ab9      	ldr	r1, [r7, #40]	; 0x28
 8006388:	6afa      	ldr	r2, [r7, #44]	; 0x2c
 800638a:	e841 2300 	strex	r3, r2, [r1]
 800638e:	627b      	str	r3, [r7, #36]	; 0x24
   return(result);
 8006390:	6a7b      	ldr	r3, [r7, #36]	; 0x24
 8006392:	2b00      	cmp	r3, #0
 8006394:	d1e5      	bne.n	8006362 <UART_EndRxTransfer+0x3c>

  /* In case of reception waiting for IDLE event, disable also the IDLE IE interrupt source */
  if (huart->ReceptionType == HAL_UART_RECEPTION_TOIDLE)
 8006396:	687b      	ldr	r3, [r7, #4]
 8006398:	6b1b      	ldr	r3, [r3, #48]	; 0x30
 800639a:	2b01      	cmp	r3, #1
 800639c:	d119      	bne.n	80063d2 <UART_EndRxTransfer+0xac>
  {
    ATOMIC_CLEAR_BIT(huart->Instance->CR1, USART_CR1_IDLEIE);
 800639e:	687b      	ldr	r3, [r7, #4]
 80063a0:	681b      	ldr	r3, [r3, #0]
 80063a2:	330c      	adds	r3, #12
 80063a4:	60fb      	str	r3, [r7, #12]
   __ASM volatile ("ldrex %0, %1" : "=r" (result) : "Q" (*addr) );
 80063a6:	68fb      	ldr	r3, [r7, #12]
 80063a8:	e853 3f00 	ldrex	r3, [r3]
 80063ac:	60bb      	str	r3, [r7, #8]
   return(result);
 80063ae:	68bb      	ldr	r3, [r7, #8]
 80063b0:	f023 0310 	bic.w	r3, r3, #16
 80063b4:	647b      	str	r3, [r7, #68]	; 0x44
 80063b6:	687b      	ldr	r3, [r7, #4]
 80063b8:	681b      	ldr	r3, [r3, #0]
 80063ba:	330c      	adds	r3, #12
 80063bc:	6c7a      	ldr	r2, [r7, #68]	; 0x44
 80063be:	61ba      	str	r2, [r7, #24]
 80063c0:	617b      	str	r3, [r7, #20]
   __ASM volatile ("strex %0, %2, %1" : "=&r" (result), "=Q" (*addr) : "r" (value) );
 80063c2:	6979      	ldr	r1, [r7, #20]
 80063c4:	69ba      	ldr	r2, [r7, #24]
 80063c6:	e841 2300 	strex	r3, r2, [r1]
 80063ca:	613b      	str	r3, [r7, #16]
   return(result);
 80063cc:	693b      	ldr	r3, [r7, #16]
 80063ce:	2b00      	cmp	r3, #0
 80063d0:	d1e5      	bne.n	800639e <UART_EndRxTransfer+0x78>
  }

  /* At end of Rx process, restore huart->RxState to Ready */
  huart->RxState = HAL_UART_STATE_READY;
 80063d2:	687b      	ldr	r3, [r7, #4]
 80063d4:	2220      	movs	r2, #32
 80063d6:	f883 2042 	strb.w	r2, [r3, #66]	; 0x42
  huart->ReceptionType = HAL_UART_RECEPTION_STANDARD;
 80063da:	687b      	ldr	r3, [r7, #4]
 80063dc:	2200      	movs	r2, #0
 80063de:	631a      	str	r2, [r3, #48]	; 0x30
}
 80063e0:	bf00      	nop
 80063e2:	3754      	adds	r7, #84	; 0x54
 80063e4:	46bd      	mov	sp, r7
 80063e6:	f85d 7b04 	ldr.w	r7, [sp], #4
 80063ea:	4770      	bx	lr

080063ec <UART_DMAAbortOnError>:
  * @param  hdma  Pointer to a DMA_HandleTypeDef structure that contains
  *               the configuration information for the specified DMA module.
  * @retval None
  */
static void UART_DMAAbortOnError(DMA_HandleTypeDef *hdma)
{
 80063ec:	b580      	push	{r7, lr}
 80063ee:	b084      	sub	sp, #16
 80063f0:	af00      	add	r7, sp, #0
 80063f2:	6078      	str	r0, [r7, #4]
  UART_HandleTypeDef *huart = (UART_HandleTypeDef *)((DMA_HandleTypeDef *)hdma)->Parent;
 80063f4:	687b      	ldr	r3, [r7, #4]
 80063f6:	6b9b      	ldr	r3, [r3, #56]	; 0x38
 80063f8:	60fb      	str	r3, [r7, #12]
  huart->RxXferCount = 0x00U;
 80063fa:	68fb      	ldr	r3, [r7, #12]
 80063fc:	2200      	movs	r2, #0
 80063fe:	85da      	strh	r2, [r3, #46]	; 0x2e
  huart->TxXferCount = 0x00U;
 8006400:	68fb      	ldr	r3, [r7, #12]
 8006402:	2200      	movs	r2, #0
 8006404:	84da      	strh	r2, [r3, #38]	; 0x26
#if (USE_HAL_UART_REGISTER_CALLBACKS == 1)
  /*Call registered error callback*/
  huart->ErrorCallback(huart);
#else
  /*Call legacy weak error callback*/
  HAL_UART_ErrorCallback(huart);
 8006406:	68f8      	ldr	r0, [r7, #12]
 8006408:	f7ff feda 	bl	80061c0 <HAL_UART_ErrorCallback>
#endif /* USE_HAL_UART_REGISTER_CALLBACKS */
}
 800640c:	bf00      	nop
 800640e:	3710      	adds	r7, #16
 8006410:	46bd      	mov	sp, r7
 8006412:	bd80      	pop	{r7, pc}

08006414 <UART_DMARxOnlyAbortCallback>:
  * @param  hdma  Pointer to a DMA_HandleTypeDef structure that contains
  *               the configuration information for the specified DMA module.
  * @retval None
  */
static void UART_DMARxOnlyAbortCallback(DMA_HandleTypeDef *hdma)
{
 8006414:	b580      	push	{r7, lr}
 8006416:	b084      	sub	sp, #16
 8006418:	af00      	add	r7, sp, #0
 800641a:	6078      	str	r0, [r7, #4]
  UART_HandleTypeDef *huart = (UART_HandleTypeDef *)((DMA_HandleTypeDef *)hdma)->Parent;
 800641c:	687b      	ldr	r3, [r7, #4]
 800641e:	6b9b      	ldr	r3, [r3, #56]	; 0x38
 8006420:	60fb      	str	r3, [r7, #12]

  huart->RxXferCount = 0x00U;
 8006422:	68fb      	ldr	r3, [r7, #12]
 8006424:	2200      	movs	r2, #0
 8006426:	85da      	strh	r2, [r3, #46]	; 0x2e

  /* Restore huart->RxState to Ready */
  huart->RxState = HAL_UART_STATE_READY;
 8006428:	68fb      	ldr	r3, [r7, #12]
 800642a:	2220      	movs	r2, #32
 800642c:	f883 2042 	strb.w	r2, [r3, #66]	; 0x42
  huart->ReceptionType = HAL_UART_RECEPTION_STANDARD;
 8006430:	68fb      	ldr	r3, [r7, #12]
 8006432:	2200      	movs	r2, #0
 8006434:	631a      	str	r2, [r3, #48]	; 0x30
#if (USE_HAL_UART_REGISTER_CALLBACKS == 1)
  /* Call registered Abort Receive Complete Callback */
  huart->AbortReceiveCpltCallback(huart);
#else
  /* Call legacy weak Abort Receive Complete Callback */
  HAL_UART_AbortReceiveCpltCallback(huart);
 8006436:	68f8      	ldr	r0, [r7, #12]
 8006438:	f7ff fecc 	bl	80061d4 <HAL_UART_AbortReceiveCpltCallback>
#endif /* USE_HAL_UART_REGISTER_CALLBACKS */
}
 800643c:	bf00      	nop
 800643e:	3710      	adds	r7, #16
 8006440:	46bd      	mov	sp, r7
 8006442:	bd80      	pop	{r7, pc}

08006444 <UART_Transmit_IT>:
  * @param  huart  Pointer to a UART_HandleTypeDef structure that contains
  *                the configuration information for the specified UART module.
  * @retval HAL status
  */
static HAL_StatusTypeDef UART_Transmit_IT(UART_HandleTypeDef *huart)
{
 8006444:	b480      	push	{r7}
 8006446:	b085      	sub	sp, #20
 8006448:	af00      	add	r7, sp, #0
 800644a:	6078      	str	r0, [r7, #4]
  const uint16_t *tmp;

  /* Check that a Tx process is ongoing */
  if (huart->gState == HAL_UART_STATE_BUSY_TX)
 800644c:	687b      	ldr	r3, [r7, #4]
 800644e:	f893 3041 	ldrb.w	r3, [r3, #65]	; 0x41
 8006452:	b2db      	uxtb	r3, r3
 8006454:	2b21      	cmp	r3, #33	; 0x21
 8006456:	d13e      	bne.n	80064d6 <UART_Transmit_IT+0x92>
  {
    if ((huart->Init.WordLength == UART_WORDLENGTH_9B) && (huart->Init.Parity == UART_PARITY_NONE))
 8006458:	687b      	ldr	r3, [r7, #4]
 800645a:	689b      	ldr	r3, [r3, #8]
 800645c:	f5b3 5f80 	cmp.w	r3, #4096	; 0x1000
 8006460:	d114      	bne.n	800648c <UART_Transmit_IT+0x48>
 8006462:	687b      	ldr	r3, [r7, #4]
 8006464:	691b      	ldr	r3, [r3, #16]
 8006466:	2b00      	cmp	r3, #0
 8006468:	d110      	bne.n	800648c <UART_Transmit_IT+0x48>
    {
      tmp = (const uint16_t *) huart->pTxBuffPtr;
 800646a:	687b      	ldr	r3, [r7, #4]
 800646c:	6a1b      	ldr	r3, [r3, #32]
 800646e:	60fb      	str	r3, [r7, #12]
      huart->Instance->DR = (uint16_t)(*tmp & (uint16_t)0x01FF);
 8006470:	68fb      	ldr	r3, [r7, #12]
 8006472:	881b      	ldrh	r3, [r3, #0]
 8006474:	461a      	mov	r2, r3
 8006476:	687b      	ldr	r3, [r7, #4]
 8006478:	681b      	ldr	r3, [r3, #0]
 800647a:	f3c2 0208 	ubfx	r2, r2, #0, #9
 800647e:	605a      	str	r2, [r3, #4]
      huart->pTxBuffPtr += 2U;
 8006480:	687b      	ldr	r3, [r7, #4]
 8006482:	6a1b      	ldr	r3, [r3, #32]
 8006484:	1c9a      	adds	r2, r3, #2
 8006486:	687b      	ldr	r3, [r7, #4]
 8006488:	621a      	str	r2, [r3, #32]
 800648a:	e008      	b.n	800649e <UART_Transmit_IT+0x5a>
    }
    else
    {
      huart->Instance->DR = (uint8_t)(*huart->pTxBuffPtr++ & (uint8_t)0x00FF);
 800648c:	687b      	ldr	r3, [r7, #4]
 800648e:	6a1b      	ldr	r3, [r3, #32]
 8006490:	1c59      	adds	r1, r3, #1
 8006492:	687a      	ldr	r2, [r7, #4]
 8006494:	6211      	str	r1, [r2, #32]
 8006496:	781a      	ldrb	r2, [r3, #0]
 8006498:	687b      	ldr	r3, [r7, #4]
 800649a:	681b      	ldr	r3, [r3, #0]
 800649c:	605a      	str	r2, [r3, #4]
    }

    if (--huart->TxXferCount == 0U)
 800649e:	687b      	ldr	r3, [r7, #4]
 80064a0:	8cdb      	ldrh	r3, [r3, #38]	; 0x26
 80064a2:	b29b      	uxth	r3, r3
 80064a4:	3b01      	subs	r3, #1
 80064a6:	b29b      	uxth	r3, r3
 80064a8:	687a      	ldr	r2, [r7, #4]
 80064aa:	4619      	mov	r1, r3
 80064ac:	84d1      	strh	r1, [r2, #38]	; 0x26
 80064ae:	2b00      	cmp	r3, #0
 80064b0:	d10f      	bne.n	80064d2 <UART_Transmit_IT+0x8e>
    {
      /* Disable the UART Transmit Data Register Empty Interrupt */
      __HAL_UART_DISABLE_IT(huart, UART_IT_TXE);
 80064b2:	687b      	ldr	r3, [r7, #4]
 80064b4:	681b      	ldr	r3, [r3, #0]
 80064b6:	68da      	ldr	r2, [r3, #12]
 80064b8:	687b      	ldr	r3, [r7, #4]
 80064ba:	681b      	ldr	r3, [r3, #0]
 80064bc:	f022 0280 	bic.w	r2, r2, #128	; 0x80
 80064c0:	60da      	str	r2, [r3, #12]

      /* Enable the UART Transmit Complete Interrupt */
      __HAL_UART_ENABLE_IT(huart, UART_IT_TC);
 80064c2:	687b      	ldr	r3, [r7, #4]
 80064c4:	681b      	ldr	r3, [r3, #0]
 80064c6:	68da      	ldr	r2, [r3, #12]
 80064c8:	687b      	ldr	r3, [r7, #4]
 80064ca:	681b      	ldr	r3, [r3, #0]
 80064cc:	f042 0240 	orr.w	r2, r2, #64	; 0x40
 80064d0:	60da      	str	r2, [r3, #12]
    }
    return HAL_OK;
 80064d2:	2300      	movs	r3, #0
 80064d4:	e000      	b.n	80064d8 <UART_Transmit_IT+0x94>
  }
  else
  {
    return HAL_BUSY;
 80064d6:	2302      	movs	r3, #2
  }
}
 80064d8:	4618      	mov	r0, r3
 80064da:	3714      	adds	r7, #20
 80064dc:	46bd      	mov	sp, r7
 80064de:	f85d 7b04 	ldr.w	r7, [sp], #4
 80064e2:	4770      	bx	lr

080064e4 <UART_EndTransmit_IT>:
  * @param  huart  Pointer to a UART_HandleTypeDef structure that contains
  *                the configuration information for the specified UART module.
  * @retval HAL status
  */
static HAL_StatusTypeDef UART_EndTransmit_IT(UART_HandleTypeDef *huart)
{
 80064e4:	b580      	push	{r7, lr}
 80064e6:	b082      	sub	sp, #8
 80064e8:	af00      	add	r7, sp, #0
 80064ea:	6078      	str	r0, [r7, #4]
  /* Disable the UART Transmit Complete Interrupt */
  __HAL_UART_DISABLE_IT(huart, UART_IT_TC);
 80064ec:	687b      	ldr	r3, [r7, #4]
 80064ee:	681b      	ldr	r3, [r3, #0]
 80064f0:	68da      	ldr	r2, [r3, #12]
 80064f2:	687b      	ldr	r3, [r7, #4]
 80064f4:	681b      	ldr	r3, [r3, #0]
 80064f6:	f022 0240 	bic.w	r2, r2, #64	; 0x40
 80064fa:	60da      	str	r2, [r3, #12]

  /* Tx process is ended, restore huart->gState to Ready */
  huart->gState = HAL_UART_STATE_READY;
 80064fc:	687b      	ldr	r3, [r7, #4]
 80064fe:	2220      	movs	r2, #32
 8006500:	f883 2041 	strb.w	r2, [r3, #65]	; 0x41
#if (USE_HAL_UART_REGISTER_CALLBACKS == 1)
  /*Call registered Tx complete callback*/
  huart->TxCpltCallback(huart);
#else
  /*Call legacy weak Tx complete callback*/
  HAL_UART_TxCpltCallback(huart);
 8006504:	6878      	ldr	r0, [r7, #4]
 8006506:	f7ff fe51 	bl	80061ac <HAL_UART_TxCpltCallback>
#endif /* USE_HAL_UART_REGISTER_CALLBACKS */

  return HAL_OK;
 800650a:	2300      	movs	r3, #0
}
 800650c:	4618      	mov	r0, r3
 800650e:	3708      	adds	r7, #8
 8006510:	46bd      	mov	sp, r7
 8006512:	bd80      	pop	{r7, pc}

08006514 <UART_Receive_IT>:
  * @param  huart  Pointer to a UART_HandleTypeDef structure that contains
  *                the configuration information for the specified UART module.
  * @retval HAL status
  */
static HAL_StatusTypeDef UART_Receive_IT(UART_HandleTypeDef *huart)
{
 8006514:	b580      	push	{r7, lr}
 8006516:	b08c      	sub	sp, #48	; 0x30
 8006518:	af00      	add	r7, sp, #0
 800651a:	6078      	str	r0, [r7, #4]
  uint8_t  *pdata8bits;
  uint16_t *pdata16bits;

  /* Check that a Rx process is ongoing */
  if (huart->RxState == HAL_UART_STATE_BUSY_RX)
 800651c:	687b      	ldr	r3, [r7, #4]
 800651e:	f893 3042 	ldrb.w	r3, [r3, #66]	; 0x42
 8006522:	b2db      	uxtb	r3, r3
 8006524:	2b22      	cmp	r3, #34	; 0x22
 8006526:	f040 80ae 	bne.w	8006686 <UART_Receive_IT+0x172>
  {
    if ((huart->Init.WordLength == UART_WORDLENGTH_9B) && (huart->Init.Parity == UART_PARITY_NONE))
 800652a:	687b      	ldr	r3, [r7, #4]
 800652c:	689b      	ldr	r3, [r3, #8]
 800652e:	f5b3 5f80 	cmp.w	r3, #4096	; 0x1000
 8006532:	d117      	bne.n	8006564 <UART_Receive_IT+0x50>
 8006534:	687b      	ldr	r3, [r7, #4]
 8006536:	691b      	ldr	r3, [r3, #16]
 8006538:	2b00      	cmp	r3, #0
 800653a:	d113      	bne.n	8006564 <UART_Receive_IT+0x50>
    {
      pdata8bits  = NULL;
 800653c:	2300      	movs	r3, #0
 800653e:	62fb      	str	r3, [r7, #44]	; 0x2c
      pdata16bits = (uint16_t *) huart->pRxBuffPtr;
 8006540:	687b      	ldr	r3, [r7, #4]
 8006542:	6a9b      	ldr	r3, [r3, #40]	; 0x28
 8006544:	62bb      	str	r3, [r7, #40]	; 0x28
      *pdata16bits = (uint16_t)(huart->Instance->DR & (uint16_t)0x01FF);
 8006546:	687b      	ldr	r3, [r7, #4]
 8006548:	681b      	ldr	r3, [r3, #0]
 800654a:	685b      	ldr	r3, [r3, #4]
 800654c:	b29b      	uxth	r3, r3
 800654e:	f3c3 0308 	ubfx	r3, r3, #0, #9
 8006552:	b29a      	uxth	r2, r3
 8006554:	6abb      	ldr	r3, [r7, #40]	; 0x28
 8006556:	801a      	strh	r2, [r3, #0]
      huart->pRxBuffPtr += 2U;
 8006558:	687b      	ldr	r3, [r7, #4]
 800655a:	6a9b      	ldr	r3, [r3, #40]	; 0x28
 800655c:	1c9a      	adds	r2, r3, #2
 800655e:	687b      	ldr	r3, [r7, #4]
 8006560:	629a      	str	r2, [r3, #40]	; 0x28
 8006562:	e026      	b.n	80065b2 <UART_Receive_IT+0x9e>
    }
    else
    {
      pdata8bits = (uint8_t *) huart->pRxBuffPtr;
 8006564:	687b      	ldr	r3, [r7, #4]
 8006566:	6a9b      	ldr	r3, [r3, #40]	; 0x28
 8006568:	62fb      	str	r3, [r7, #44]	; 0x2c
      pdata16bits  = NULL;
 800656a:	2300      	movs	r3, #0
 800656c:	62bb      	str	r3, [r7, #40]	; 0x28

      if ((huart->Init.WordLength == UART_WORDLENGTH_9B) || ((huart->Init.WordLength == UART_WORDLENGTH_8B) && (huart->Init.Parity == UART_PARITY_NONE)))
 800656e:	687b      	ldr	r3, [r7, #4]
 8006570:	689b      	ldr	r3, [r3, #8]
 8006572:	f5b3 5f80 	cmp.w	r3, #4096	; 0x1000
 8006576:	d007      	beq.n	8006588 <UART_Receive_IT+0x74>
 8006578:	687b      	ldr	r3, [r7, #4]
 800657a:	689b      	ldr	r3, [r3, #8]
 800657c:	2b00      	cmp	r3, #0
 800657e:	d10a      	bne.n	8006596 <UART_Receive_IT+0x82>
 8006580:	687b      	ldr	r3, [r7, #4]
 8006582:	691b      	ldr	r3, [r3, #16]
 8006584:	2b00      	cmp	r3, #0
 8006586:	d106      	bne.n	8006596 <UART_Receive_IT+0x82>
      {
        *pdata8bits = (uint8_t)(huart->Instance->DR & (uint8_t)0x00FF);
 8006588:	687b      	ldr	r3, [r7, #4]
 800658a:	681b      	ldr	r3, [r3, #0]
 800658c:	685b      	ldr	r3, [r3, #4]
 800658e:	b2da      	uxtb	r2, r3
 8006590:	6afb      	ldr	r3, [r7, #44]	; 0x2c
 8006592:	701a      	strb	r2, [r3, #0]
 8006594:	e008      	b.n	80065a8 <UART_Receive_IT+0x94>
      }
      else
      {
        *pdata8bits = (uint8_t)(huart->Instance->DR & (uint8_t)0x007F);
 8006596:	687b      	ldr	r3, [r7, #4]
 8006598:	681b      	ldr	r3, [r3, #0]
 800659a:	685b      	ldr	r3, [r3, #4]
 800659c:	b2db      	uxtb	r3, r3
 800659e:	f003 037f 	and.w	r3, r3, #127	; 0x7f
 80065a2:	b2da      	uxtb	r2, r3
 80065a4:	6afb      	ldr	r3, [r7, #44]	; 0x2c
 80065a6:	701a      	strb	r2, [r3, #0]
      }
      huart->pRxBuffPtr += 1U;
 80065a8:	687b      	ldr	r3, [r7, #4]
 80065aa:	6a9b      	ldr	r3, [r3, #40]	; 0x28
 80065ac:	1c5a      	adds	r2, r3, #1
 80065ae:	687b      	ldr	r3, [r7, #4]
 80065b0:	629a      	str	r2, [r3, #40]	; 0x28
    }

    if (--huart->RxXferCount == 0U)
 80065b2:	687b      	ldr	r3, [r7, #4]
 80065b4:	8ddb      	ldrh	r3, [r3, #46]	; 0x2e
 80065b6:	b29b      	uxth	r3, r3
 80065b8:	3b01      	subs	r3, #1
 80065ba:	b29b      	uxth	r3, r3
 80065bc:	687a      	ldr	r2, [r7, #4]
 80065be:	4619      	mov	r1, r3
 80065c0:	85d1      	strh	r1, [r2, #46]	; 0x2e
 80065c2:	2b00      	cmp	r3, #0
 80065c4:	d15d      	bne.n	8006682 <UART_Receive_IT+0x16e>
    {
      /* Disable the UART Data Register not empty Interrupt */
      __HAL_UART_DISABLE_IT(huart, UART_IT_RXNE);
 80065c6:	687b      	ldr	r3, [r7, #4]
 80065c8:	681b      	ldr	r3, [r3, #0]
 80065ca:	68da      	ldr	r2, [r3, #12]
 80065cc:	687b      	ldr	r3, [r7, #4]
 80065ce:	681b      	ldr	r3, [r3, #0]
 80065d0:	f022 0220 	bic.w	r2, r2, #32
 80065d4:	60da      	str	r2, [r3, #12]

      /* Disable the UART Parity Error Interrupt */
      __HAL_UART_DISABLE_IT(huart, UART_IT_PE);
 80065d6:	687b      	ldr	r3, [r7, #4]
 80065d8:	681b      	ldr	r3, [r3, #0]
 80065da:	68da      	ldr	r2, [r3, #12]
 80065dc:	687b      	ldr	r3, [r7, #4]
 80065de:	681b      	ldr	r3, [r3, #0]
 80065e0:	f422 7280 	bic.w	r2, r2, #256	; 0x100
 80065e4:	60da      	str	r2, [r3, #12]

      /* Disable the UART Error Interrupt: (Frame error, noise error, overrun error) */
      __HAL_UART_DISABLE_IT(huart, UART_IT_ERR);
 80065e6:	687b      	ldr	r3, [r7, #4]
 80065e8:	681b      	ldr	r3, [r3, #0]
 80065ea:	695a      	ldr	r2, [r3, #20]
 80065ec:	687b      	ldr	r3, [r7, #4]
 80065ee:	681b      	ldr	r3, [r3, #0]
 80065f0:	f022 0201 	bic.w	r2, r2, #1
 80065f4:	615a      	str	r2, [r3, #20]

      /* Rx process is completed, restore huart->RxState to Ready */
      huart->RxState = HAL_UART_STATE_READY;
 80065f6:	687b      	ldr	r3, [r7, #4]
 80065f8:	2220      	movs	r2, #32
 80065fa:	f883 2042 	strb.w	r2, [r3, #66]	; 0x42

      /* Initialize type of RxEvent to Transfer Complete */
      huart->RxEventType = HAL_UART_RXEVENT_TC;
 80065fe:	687b      	ldr	r3, [r7, #4]
 8006600:	2200      	movs	r2, #0
 8006602:	635a      	str	r2, [r3, #52]	; 0x34

      /* Check current reception Mode :
         If Reception till IDLE event has been selected : */
      if (huart->ReceptionType == HAL_UART_RECEPTION_TOIDLE)
 8006604:	687b      	ldr	r3, [r7, #4]
 8006606:	6b1b      	ldr	r3, [r3, #48]	; 0x30
 8006608:	2b01      	cmp	r3, #1
 800660a:	d135      	bne.n	8006678 <UART_Receive_IT+0x164>
      {
        /* Set reception type to Standard */
        huart->ReceptionType = HAL_UART_RECEPTION_STANDARD;
 800660c:	687b      	ldr	r3, [r7, #4]
 800660e:	2200      	movs	r2, #0
 8006610:	631a      	str	r2, [r3, #48]	; 0x30

        /* Disable IDLE interrupt */
        ATOMIC_CLEAR_BIT(huart->Instance->CR1, USART_CR1_IDLEIE);
 8006612:	687b      	ldr	r3, [r7, #4]
 8006614:	681b      	ldr	r3, [r3, #0]
 8006616:	330c      	adds	r3, #12
 8006618:	617b      	str	r3, [r7, #20]
   __ASM volatile ("ldrex %0, %1" : "=r" (result) : "Q" (*addr) );
 800661a:	697b      	ldr	r3, [r7, #20]
 800661c:	e853 3f00 	ldrex	r3, [r3]
 8006620:	613b      	str	r3, [r7, #16]
   return(result);
 8006622:	693b      	ldr	r3, [r7, #16]
 8006624:	f023 0310 	bic.w	r3, r3, #16
 8006628:	627b      	str	r3, [r7, #36]	; 0x24
 800662a:	687b      	ldr	r3, [r7, #4]
 800662c:	681b      	ldr	r3, [r3, #0]
 800662e:	330c      	adds	r3, #12
 8006630:	6a7a      	ldr	r2, [r7, #36]	; 0x24
 8006632:	623a      	str	r2, [r7, #32]
 8006634:	61fb      	str	r3, [r7, #28]
   __ASM volatile ("strex %0, %2, %1" : "=&r" (result), "=Q" (*addr) : "r" (value) );
 8006636:	69f9      	ldr	r1, [r7, #28]
 8006638:	6a3a      	ldr	r2, [r7, #32]
 800663a:	e841 2300 	strex	r3, r2, [r1]
 800663e:	61bb      	str	r3, [r7, #24]
   return(result);
 8006640:	69bb      	ldr	r3, [r7, #24]
 8006642:	2b00      	cmp	r3, #0
 8006644:	d1e5      	bne.n	8006612 <UART_Receive_IT+0xfe>

        /* Check if IDLE flag is set */
        if (__HAL_UART_GET_FLAG(huart, UART_FLAG_IDLE))
 8006646:	687b      	ldr	r3, [r7, #4]
 8006648:	681b      	ldr	r3, [r3, #0]
 800664a:	681b      	ldr	r3, [r3, #0]
 800664c:	f003 0310 	and.w	r3, r3, #16
 8006650:	2b10      	cmp	r3, #16
 8006652:	d10a      	bne.n	800666a <UART_Receive_IT+0x156>
        {
          /* Clear IDLE flag in ISR */
          __HAL_UART_CLEAR_IDLEFLAG(huart);
 8006654:	2300      	movs	r3, #0
 8006656:	60fb      	str	r3, [r7, #12]
 8006658:	687b      	ldr	r3, [r7, #4]
 800665a:	681b      	ldr	r3, [r3, #0]
 800665c:	681b      	ldr	r3, [r3, #0]
 800665e:	60fb      	str	r3, [r7, #12]
 8006660:	687b      	ldr	r3, [r7, #4]
 8006662:	681b      	ldr	r3, [r3, #0]
 8006664:	685b      	ldr	r3, [r3, #4]
 8006666:	60fb      	str	r3, [r7, #12]
 8006668:	68fb      	ldr	r3, [r7, #12]
#if (USE_HAL_UART_REGISTER_CALLBACKS == 1)
        /*Call registered Rx Event callback*/
        huart->RxEventCallback(huart, huart->RxXferSize);
#else
        /*Call legacy weak Rx Event callback*/
        HAL_UARTEx_RxEventCallback(huart, huart->RxXferSize);
 800666a:	687b      	ldr	r3, [r7, #4]
 800666c:	8d9b      	ldrh	r3, [r3, #44]	; 0x2c
 800666e:	4619      	mov	r1, r3
 8006670:	6878      	ldr	r0, [r7, #4]
 8006672:	f7ff fdb9 	bl	80061e8 <HAL_UARTEx_RxEventCallback>
 8006676:	e002      	b.n	800667e <UART_Receive_IT+0x16a>
#if (USE_HAL_UART_REGISTER_CALLBACKS == 1)
        /*Call registered Rx complete callback*/
        huart->RxCpltCallback(huart);
#else
        /*Call legacy weak Rx complete callback*/
        HAL_UART_RxCpltCallback(huart);
 8006678:	6878      	ldr	r0, [r7, #4]
 800667a:	f7fb f909 	bl	8001890 <HAL_UART_RxCpltCallback>
#endif /* USE_HAL_UART_REGISTER_CALLBACKS */
      }

      return HAL_OK;
 800667e:	2300      	movs	r3, #0
 8006680:	e002      	b.n	8006688 <UART_Receive_IT+0x174>
    }
    return HAL_OK;
 8006682:	2300      	movs	r3, #0
 8006684:	e000      	b.n	8006688 <UART_Receive_IT+0x174>
  }
  else
  {
    return HAL_BUSY;
 8006686:	2302      	movs	r3, #2
  }
}
 8006688:	4618      	mov	r0, r3
 800668a:	3730      	adds	r7, #48	; 0x30
 800668c:	46bd      	mov	sp, r7
 800668e:	bd80      	pop	{r7, pc}

08006690 <UART_SetConfig>:
  * @param  huart  Pointer to a UART_HandleTypeDef structure that contains
  *                the configuration information for the specified UART module.
  * @retval None
  */
static void UART_SetConfig(UART_HandleTypeDef *huart)
{
 8006690:	e92d 4fb0 	stmdb	sp!, {r4, r5, r7, r8, r9, sl, fp, lr}
 8006694:	b0c0      	sub	sp, #256	; 0x100
 8006696:	af00      	add	r7, sp, #0
 8006698:	f8c7 00f4 	str.w	r0, [r7, #244]	; 0xf4
  assert_param(IS_UART_MODE(huart->Init.Mode));

  /*-------------------------- USART CR2 Configuration -----------------------*/
  /* Configure the UART Stop Bits: Set STOP[13:12] bits
     according to huart->Init.StopBits value */
  MODIFY_REG(huart->Instance->CR2, USART_CR2_STOP, huart->Init.StopBits);
 800669c:	f8d7 30f4 	ldr.w	r3, [r7, #244]	; 0xf4
 80066a0:	681b      	ldr	r3, [r3, #0]
 80066a2:	691b      	ldr	r3, [r3, #16]
 80066a4:	f423 5040 	bic.w	r0, r3, #12288	; 0x3000
 80066a8:	f8d7 30f4 	ldr.w	r3, [r7, #244]	; 0xf4
 80066ac:	68d9      	ldr	r1, [r3, #12]
 80066ae:	f8d7 30f4 	ldr.w	r3, [r7, #244]	; 0xf4
 80066b2:	681a      	ldr	r2, [r3, #0]
 80066b4:	ea40 0301 	orr.w	r3, r0, r1
 80066b8:	6113      	str	r3, [r2, #16]
     Set the M bits according to huart->Init.WordLength value
     Set PCE and PS bits according to huart->Init.Parity value
     Set TE and RE bits according to huart->Init.Mode value
     Set OVER8 bit according to huart->Init.OverSampling value */

  tmpreg = (uint32_t)huart->Init.WordLength | huart->Init.Parity | huart->Init.Mode | huart->Init.OverSampling;
 80066ba:	f8d7 30f4 	ldr.w	r3, [r7, #244]	; 0xf4
 80066be:	689a      	ldr	r2, [r3, #8]
 80066c0:	f8d7 30f4 	ldr.w	r3, [r7, #244]	; 0xf4
 80066c4:	691b      	ldr	r3, [r3, #16]
 80066c6:	431a      	orrs	r2, r3
 80066c8:	f8d7 30f4 	ldr.w	r3, [r7, #244]	; 0xf4
 80066cc:	695b      	ldr	r3, [r3, #20]
 80066ce:	431a      	orrs	r2, r3
 80066d0:	f8d7 30f4 	ldr.w	r3, [r7, #244]	; 0xf4
 80066d4:	69db      	ldr	r3, [r3, #28]
 80066d6:	4313      	orrs	r3, r2
 80066d8:	f8c7 30f8 	str.w	r3, [r7, #248]	; 0xf8
  MODIFY_REG(huart->Instance->CR1,
 80066dc:	f8d7 30f4 	ldr.w	r3, [r7, #244]	; 0xf4
 80066e0:	681b      	ldr	r3, [r3, #0]
 80066e2:	68db      	ldr	r3, [r3, #12]
 80066e4:	f423 4116 	bic.w	r1, r3, #38400	; 0x9600
 80066e8:	f021 010c 	bic.w	r1, r1, #12
 80066ec:	f8d7 30f4 	ldr.w	r3, [r7, #244]	; 0xf4
 80066f0:	681a      	ldr	r2, [r3, #0]
 80066f2:	f8d7 30f8 	ldr.w	r3, [r7, #248]	; 0xf8
 80066f6:	430b      	orrs	r3, r1
 80066f8:	60d3      	str	r3, [r2, #12]
             (uint32_t)(USART_CR1_M | USART_CR1_PCE | USART_CR1_PS | USART_CR1_TE | USART_CR1_RE | USART_CR1_OVER8),
             tmpreg);

  /*-------------------------- USART CR3 Configuration -----------------------*/
  /* Configure the UART HFC: Set CTSE and RTSE bits according to huart->Init.HwFlowCtl value */
  MODIFY_REG(huart->Instance->CR3, (USART_CR3_RTSE | USART_CR3_CTSE), huart->Init.HwFlowCtl);
 80066fa:	f8d7 30f4 	ldr.w	r3, [r7, #244]	; 0xf4
 80066fe:	681b      	ldr	r3, [r3, #0]
 8006700:	695b      	ldr	r3, [r3, #20]
 8006702:	f423 7040 	bic.w	r0, r3, #768	; 0x300
 8006706:	f8d7 30f4 	ldr.w	r3, [r7, #244]	; 0xf4
 800670a:	6999      	ldr	r1, [r3, #24]
 800670c:	f8d7 30f4 	ldr.w	r3, [r7, #244]	; 0xf4
 8006710:	681a      	ldr	r2, [r3, #0]
 8006712:	ea40 0301 	orr.w	r3, r0, r1
 8006716:	6153      	str	r3, [r2, #20]
    if ((huart->Instance == USART1) || (huart->Instance == USART6) || (huart->Instance == UART9) || (huart->Instance == UART10))
    {
      pclk = HAL_RCC_GetPCLK2Freq();
    }
#elif defined(USART6)
    if ((huart->Instance == USART1) || (huart->Instance == USART6))
 8006718:	f8d7 30f4 	ldr.w	r3, [r7, #244]	; 0xf4
 800671c:	681a      	ldr	r2, [r3, #0]
 800671e:	4b8f      	ldr	r3, [pc, #572]	; (800695c <UART_SetConfig+0x2cc>)
 8006720:	429a      	cmp	r2, r3
 8006722:	d005      	beq.n	8006730 <UART_SetConfig+0xa0>
 8006724:	f8d7 30f4 	ldr.w	r3, [r7, #244]	; 0xf4
 8006728:	681a      	ldr	r2, [r3, #0]
 800672a:	4b8d      	ldr	r3, [pc, #564]	; (8006960 <UART_SetConfig+0x2d0>)
 800672c:	429a      	cmp	r2, r3
 800672e:	d104      	bne.n	800673a <UART_SetConfig+0xaa>
    {
      pclk = HAL_RCC_GetPCLK2Freq();
 8006730:	f7fd faf4 	bl	8003d1c <HAL_RCC_GetPCLK2Freq>
 8006734:	f8c7 00fc 	str.w	r0, [r7, #252]	; 0xfc
 8006738:	e003      	b.n	8006742 <UART_SetConfig+0xb2>
      pclk = HAL_RCC_GetPCLK2Freq();
    }
#endif /* USART6 */
    else
    {
      pclk = HAL_RCC_GetPCLK1Freq();
 800673a:	f7fd fadb 	bl	8003cf4 <HAL_RCC_GetPCLK1Freq>
 800673e:	f8c7 00fc 	str.w	r0, [r7, #252]	; 0xfc
    }
  /*-------------------------- USART BRR Configuration ---------------------*/
  if (huart->Init.OverSampling == UART_OVERSAMPLING_8)
 8006742:	f8d7 30f4 	ldr.w	r3, [r7, #244]	; 0xf4
 8006746:	69db      	ldr	r3, [r3, #28]
 8006748:	f5b3 4f00 	cmp.w	r3, #32768	; 0x8000
 800674c:	f040 810c 	bne.w	8006968 <UART_SetConfig+0x2d8>
  {
    huart->Instance->BRR = UART_BRR_SAMPLING8(pclk, huart->Init.BaudRate);
 8006750:	f8d7 30fc 	ldr.w	r3, [r7, #252]	; 0xfc
 8006754:	2200      	movs	r2, #0
 8006756:	f8c7 30e8 	str.w	r3, [r7, #232]	; 0xe8
 800675a:	f8c7 20ec 	str.w	r2, [r7, #236]	; 0xec
 800675e:	e9d7 453a 	ldrd	r4, r5, [r7, #232]	; 0xe8
 8006762:	4622      	mov	r2, r4
 8006764:	462b      	mov	r3, r5
 8006766:	1891      	adds	r1, r2, r2
 8006768:	65b9      	str	r1, [r7, #88]	; 0x58
 800676a:	415b      	adcs	r3, r3
 800676c:	65fb      	str	r3, [r7, #92]	; 0x5c
 800676e:	e9d7 2316 	ldrd	r2, r3, [r7, #88]	; 0x58
 8006772:	4621      	mov	r1, r4
 8006774:	eb12 0801 	adds.w	r8, r2, r1
 8006778:	4629      	mov	r1, r5
 800677a:	eb43 0901 	adc.w	r9, r3, r1
 800677e:	f04f 0200 	mov.w	r2, #0
 8006782:	f04f 0300 	mov.w	r3, #0
 8006786:	ea4f 03c9 	mov.w	r3, r9, lsl #3
 800678a:	ea43 7358 	orr.w	r3, r3, r8, lsr #29
 800678e:	ea4f 02c8 	mov.w	r2, r8, lsl #3
 8006792:	4690      	mov	r8, r2
 8006794:	4699      	mov	r9, r3
 8006796:	4623      	mov	r3, r4
 8006798:	eb18 0303 	adds.w	r3, r8, r3
 800679c:	f8c7 30e0 	str.w	r3, [r7, #224]	; 0xe0
 80067a0:	462b      	mov	r3, r5
 80067a2:	eb49 0303 	adc.w	r3, r9, r3
 80067a6:	f8c7 30e4 	str.w	r3, [r7, #228]	; 0xe4
 80067aa:	f8d7 30f4 	ldr.w	r3, [r7, #244]	; 0xf4
 80067ae:	685b      	ldr	r3, [r3, #4]
 80067b0:	2200      	movs	r2, #0
 80067b2:	f8c7 30d8 	str.w	r3, [r7, #216]	; 0xd8
 80067b6:	f8c7 20dc 	str.w	r2, [r7, #220]	; 0xdc
 80067ba:	e9d7 1236 	ldrd	r1, r2, [r7, #216]	; 0xd8
 80067be:	460b      	mov	r3, r1
 80067c0:	18db      	adds	r3, r3, r3
 80067c2:	653b      	str	r3, [r7, #80]	; 0x50
 80067c4:	4613      	mov	r3, r2
 80067c6:	eb42 0303 	adc.w	r3, r2, r3
 80067ca:	657b      	str	r3, [r7, #84]	; 0x54
 80067cc:	e9d7 2314 	ldrd	r2, r3, [r7, #80]	; 0x50
 80067d0:	e9d7 0138 	ldrd	r0, r1, [r7, #224]	; 0xe0
 80067d4:	f7f9 fd12 	bl	80001fc <__aeabi_uldivmod>
 80067d8:	4602      	mov	r2, r0
 80067da:	460b      	mov	r3, r1
 80067dc:	4b61      	ldr	r3, [pc, #388]	; (8006964 <UART_SetConfig+0x2d4>)
 80067de:	fba3 2302 	umull	r2, r3, r3, r2
 80067e2:	095b      	lsrs	r3, r3, #5
 80067e4:	011c      	lsls	r4, r3, #4
 80067e6:	f8d7 30fc 	ldr.w	r3, [r7, #252]	; 0xfc
 80067ea:	2200      	movs	r2, #0
 80067ec:	f8c7 30d0 	str.w	r3, [r7, #208]	; 0xd0
 80067f0:	f8c7 20d4 	str.w	r2, [r7, #212]	; 0xd4
 80067f4:	e9d7 8934 	ldrd	r8, r9, [r7, #208]	; 0xd0
 80067f8:	4642      	mov	r2, r8
 80067fa:	464b      	mov	r3, r9
 80067fc:	1891      	adds	r1, r2, r2
 80067fe:	64b9      	str	r1, [r7, #72]	; 0x48
 8006800:	415b      	adcs	r3, r3
 8006802:	64fb      	str	r3, [r7, #76]	; 0x4c
 8006804:	e9d7 2312 	ldrd	r2, r3, [r7, #72]	; 0x48
 8006808:	4641      	mov	r1, r8
 800680a:	eb12 0a01 	adds.w	sl, r2, r1
 800680e:	4649      	mov	r1, r9
 8006810:	eb43 0b01 	adc.w	fp, r3, r1
 8006814:	f04f 0200 	mov.w	r2, #0
 8006818:	f04f 0300 	mov.w	r3, #0
 800681c:	ea4f 03cb 	mov.w	r3, fp, lsl #3
 8006820:	ea43 735a 	orr.w	r3, r3, sl, lsr #29
 8006824:	ea4f 02ca 	mov.w	r2, sl, lsl #3
 8006828:	4692      	mov	sl, r2
 800682a:	469b      	mov	fp, r3
 800682c:	4643      	mov	r3, r8
 800682e:	eb1a 0303 	adds.w	r3, sl, r3
 8006832:	f8c7 30c8 	str.w	r3, [r7, #200]	; 0xc8
 8006836:	464b      	mov	r3, r9
 8006838:	eb4b 0303 	adc.w	r3, fp, r3
 800683c:	f8c7 30cc 	str.w	r3, [r7, #204]	; 0xcc
 8006840:	f8d7 30f4 	ldr.w	r3, [r7, #244]	; 0xf4
 8006844:	685b      	ldr	r3, [r3, #4]
 8006846:	2200      	movs	r2, #0
 8006848:	f8c7 30c0 	str.w	r3, [r7, #192]	; 0xc0
 800684c:	f8c7 20c4 	str.w	r2, [r7, #196]	; 0xc4
 8006850:	e9d7 1230 	ldrd	r1, r2, [r7, #192]	; 0xc0
 8006854:	460b      	mov	r3, r1
 8006856:	18db      	adds	r3, r3, r3
 8006858:	643b      	str	r3, [r7, #64]	; 0x40
 800685a:	4613      	mov	r3, r2
 800685c:	eb42 0303 	adc.w	r3, r2, r3
 8006860:	647b      	str	r3, [r7, #68]	; 0x44
 8006862:	e9d7 2310 	ldrd	r2, r3, [r7, #64]	; 0x40
 8006866:	e9d7 0132 	ldrd	r0, r1, [r7, #200]	; 0xc8
 800686a:	f7f9 fcc7 	bl	80001fc <__aeabi_uldivmod>
 800686e:	4602      	mov	r2, r0
 8006870:	460b      	mov	r3, r1
 8006872:	4611      	mov	r1, r2
 8006874:	4b3b      	ldr	r3, [pc, #236]	; (8006964 <UART_SetConfig+0x2d4>)
 8006876:	fba3 2301 	umull	r2, r3, r3, r1
 800687a:	095b      	lsrs	r3, r3, #5
 800687c:	2264      	movs	r2, #100	; 0x64
 800687e:	fb02 f303 	mul.w	r3, r2, r3
 8006882:	1acb      	subs	r3, r1, r3
 8006884:	00db      	lsls	r3, r3, #3
 8006886:	f103 0232 	add.w	r2, r3, #50	; 0x32
 800688a:	4b36      	ldr	r3, [pc, #216]	; (8006964 <UART_SetConfig+0x2d4>)
 800688c:	fba3 2302 	umull	r2, r3, r3, r2
 8006890:	095b      	lsrs	r3, r3, #5
 8006892:	005b      	lsls	r3, r3, #1
 8006894:	f403 73f8 	and.w	r3, r3, #496	; 0x1f0
 8006898:	441c      	add	r4, r3
 800689a:	f8d7 30fc 	ldr.w	r3, [r7, #252]	; 0xfc
 800689e:	2200      	movs	r2, #0
 80068a0:	f8c7 30b8 	str.w	r3, [r7, #184]	; 0xb8
 80068a4:	f8c7 20bc 	str.w	r2, [r7, #188]	; 0xbc
 80068a8:	e9d7 892e 	ldrd	r8, r9, [r7, #184]	; 0xb8
 80068ac:	4642      	mov	r2, r8
 80068ae:	464b      	mov	r3, r9
 80068b0:	1891      	adds	r1, r2, r2
 80068b2:	63b9      	str	r1, [r7, #56]	; 0x38
 80068b4:	415b      	adcs	r3, r3
 80068b6:	63fb      	str	r3, [r7, #60]	; 0x3c
 80068b8:	e9d7 230e 	ldrd	r2, r3, [r7, #56]	; 0x38
 80068bc:	4641      	mov	r1, r8
 80068be:	1851      	adds	r1, r2, r1
 80068c0:	6339      	str	r1, [r7, #48]	; 0x30
 80068c2:	4649      	mov	r1, r9
 80068c4:	414b      	adcs	r3, r1
 80068c6:	637b      	str	r3, [r7, #52]	; 0x34
 80068c8:	f04f 0200 	mov.w	r2, #0
 80068cc:	f04f 0300 	mov.w	r3, #0
 80068d0:	e9d7 ab0c 	ldrd	sl, fp, [r7, #48]	; 0x30
 80068d4:	4659      	mov	r1, fp
 80068d6:	00cb      	lsls	r3, r1, #3
 80068d8:	4651      	mov	r1, sl
 80068da:	ea43 7351 	orr.w	r3, r3, r1, lsr #29
 80068de:	4651      	mov	r1, sl
 80068e0:	00ca      	lsls	r2, r1, #3
 80068e2:	4610      	mov	r0, r2
 80068e4:	4619      	mov	r1, r3
 80068e6:	4603      	mov	r3, r0
 80068e8:	4642      	mov	r2, r8
 80068ea:	189b      	adds	r3, r3, r2
 80068ec:	f8c7 30b0 	str.w	r3, [r7, #176]	; 0xb0
 80068f0:	464b      	mov	r3, r9
 80068f2:	460a      	mov	r2, r1
 80068f4:	eb42 0303 	adc.w	r3, r2, r3
 80068f8:	f8c7 30b4 	str.w	r3, [r7, #180]	; 0xb4
 80068fc:	f8d7 30f4 	ldr.w	r3, [r7, #244]	; 0xf4
 8006900:	685b      	ldr	r3, [r3, #4]
 8006902:	2200      	movs	r2, #0
 8006904:	f8c7 30a8 	str.w	r3, [r7, #168]	; 0xa8
 8006908:	f8c7 20ac 	str.w	r2, [r7, #172]	; 0xac
 800690c:	e9d7 122a 	ldrd	r1, r2, [r7, #168]	; 0xa8
 8006910:	460b      	mov	r3, r1
 8006912:	18db      	adds	r3, r3, r3
 8006914:	62bb      	str	r3, [r7, #40]	; 0x28
 8006916:	4613      	mov	r3, r2
 8006918:	eb42 0303 	adc.w	r3, r2, r3
 800691c:	62fb      	str	r3, [r7, #44]	; 0x2c
 800691e:	e9d7 230a 	ldrd	r2, r3, [r7, #40]	; 0x28
 8006922:	e9d7 012c 	ldrd	r0, r1, [r7, #176]	; 0xb0
 8006926:	f7f9 fc69 	bl	80001fc <__aeabi_uldivmod>
 800692a:	4602      	mov	r2, r0
 800692c:	460b      	mov	r3, r1
 800692e:	4b0d      	ldr	r3, [pc, #52]	; (8006964 <UART_SetConfig+0x2d4>)
 8006930:	fba3 1302 	umull	r1, r3, r3, r2
 8006934:	095b      	lsrs	r3, r3, #5
 8006936:	2164      	movs	r1, #100	; 0x64
 8006938:	fb01 f303 	mul.w	r3, r1, r3
 800693c:	1ad3      	subs	r3, r2, r3
 800693e:	00db      	lsls	r3, r3, #3
 8006940:	3332      	adds	r3, #50	; 0x32
 8006942:	4a08      	ldr	r2, [pc, #32]	; (8006964 <UART_SetConfig+0x2d4>)
 8006944:	fba2 2303 	umull	r2, r3, r2, r3
 8006948:	095b      	lsrs	r3, r3, #5
 800694a:	f003 0207 	and.w	r2, r3, #7
 800694e:	f8d7 30f4 	ldr.w	r3, [r7, #244]	; 0xf4
 8006952:	681b      	ldr	r3, [r3, #0]
 8006954:	4422      	add	r2, r4
 8006956:	609a      	str	r2, [r3, #8]
  }
  else
  {
    huart->Instance->BRR = UART_BRR_SAMPLING16(pclk, huart->Init.BaudRate);
  }
}
 8006958:	e106      	b.n	8006b68 <UART_SetConfig+0x4d8>
 800695a:	bf00      	nop
 800695c:	40011000 	.word	0x40011000
 8006960:	40011400 	.word	0x40011400
 8006964:	51eb851f 	.word	0x51eb851f
    huart->Instance->BRR = UART_BRR_SAMPLING16(pclk, huart->Init.BaudRate);
 8006968:	f8d7 30fc 	ldr.w	r3, [r7, #252]	; 0xfc
 800696c:	2200      	movs	r2, #0
 800696e:	f8c7 30a0 	str.w	r3, [r7, #160]	; 0xa0
 8006972:	f8c7 20a4 	str.w	r2, [r7, #164]	; 0xa4
 8006976:	e9d7 8928 	ldrd	r8, r9, [r7, #160]	; 0xa0
 800697a:	4642      	mov	r2, r8
 800697c:	464b      	mov	r3, r9
 800697e:	1891      	adds	r1, r2, r2
 8006980:	6239      	str	r1, [r7, #32]
 8006982:	415b      	adcs	r3, r3
 8006984:	627b      	str	r3, [r7, #36]	; 0x24
 8006986:	e9d7 2308 	ldrd	r2, r3, [r7, #32]
 800698a:	4641      	mov	r1, r8
 800698c:	1854      	adds	r4, r2, r1
 800698e:	4649      	mov	r1, r9
 8006990:	eb43 0501 	adc.w	r5, r3, r1
 8006994:	f04f 0200 	mov.w	r2, #0
 8006998:	f04f 0300 	mov.w	r3, #0
 800699c:	00eb      	lsls	r3, r5, #3
 800699e:	ea43 7354 	orr.w	r3, r3, r4, lsr #29
 80069a2:	00e2      	lsls	r2, r4, #3
 80069a4:	4614      	mov	r4, r2
 80069a6:	461d      	mov	r5, r3
 80069a8:	4643      	mov	r3, r8
 80069aa:	18e3      	adds	r3, r4, r3
 80069ac:	f8c7 3098 	str.w	r3, [r7, #152]	; 0x98
 80069b0:	464b      	mov	r3, r9
 80069b2:	eb45 0303 	adc.w	r3, r5, r3
 80069b6:	f8c7 309c 	str.w	r3, [r7, #156]	; 0x9c
 80069ba:	f8d7 30f4 	ldr.w	r3, [r7, #244]	; 0xf4
 80069be:	685b      	ldr	r3, [r3, #4]
 80069c0:	2200      	movs	r2, #0
 80069c2:	f8c7 3090 	str.w	r3, [r7, #144]	; 0x90
 80069c6:	f8c7 2094 	str.w	r2, [r7, #148]	; 0x94
 80069ca:	f04f 0200 	mov.w	r2, #0
 80069ce:	f04f 0300 	mov.w	r3, #0
 80069d2:	e9d7 4524 	ldrd	r4, r5, [r7, #144]	; 0x90
 80069d6:	4629      	mov	r1, r5
 80069d8:	008b      	lsls	r3, r1, #2
 80069da:	4621      	mov	r1, r4
 80069dc:	ea43 7391 	orr.w	r3, r3, r1, lsr #30
 80069e0:	4621      	mov	r1, r4
 80069e2:	008a      	lsls	r2, r1, #2
 80069e4:	e9d7 0126 	ldrd	r0, r1, [r7, #152]	; 0x98
 80069e8:	f7f9 fc08 	bl	80001fc <__aeabi_uldivmod>
 80069ec:	4602      	mov	r2, r0
 80069ee:	460b      	mov	r3, r1
 80069f0:	4b60      	ldr	r3, [pc, #384]	; (8006b74 <UART_SetConfig+0x4e4>)
 80069f2:	fba3 2302 	umull	r2, r3, r3, r2
 80069f6:	095b      	lsrs	r3, r3, #5
 80069f8:	011c      	lsls	r4, r3, #4
 80069fa:	f8d7 30fc 	ldr.w	r3, [r7, #252]	; 0xfc
 80069fe:	2200      	movs	r2, #0
 8006a00:	f8c7 3088 	str.w	r3, [r7, #136]	; 0x88
 8006a04:	f8c7 208c 	str.w	r2, [r7, #140]	; 0x8c
 8006a08:	e9d7 8922 	ldrd	r8, r9, [r7, #136]	; 0x88
 8006a0c:	4642      	mov	r2, r8
 8006a0e:	464b      	mov	r3, r9
 8006a10:	1891      	adds	r1, r2, r2
 8006a12:	61b9      	str	r1, [r7, #24]
 8006a14:	415b      	adcs	r3, r3
 8006a16:	61fb      	str	r3, [r7, #28]
 8006a18:	e9d7 2306 	ldrd	r2, r3, [r7, #24]
 8006a1c:	4641      	mov	r1, r8
 8006a1e:	1851      	adds	r1, r2, r1
 8006a20:	6139      	str	r1, [r7, #16]
 8006a22:	4649      	mov	r1, r9
 8006a24:	414b      	adcs	r3, r1
 8006a26:	617b      	str	r3, [r7, #20]
 8006a28:	f04f 0200 	mov.w	r2, #0
 8006a2c:	f04f 0300 	mov.w	r3, #0
 8006a30:	e9d7 ab04 	ldrd	sl, fp, [r7, #16]
 8006a34:	4659      	mov	r1, fp
 8006a36:	00cb      	lsls	r3, r1, #3
 8006a38:	4651      	mov	r1, sl
 8006a3a:	ea43 7351 	orr.w	r3, r3, r1, lsr #29
 8006a3e:	4651      	mov	r1, sl
 8006a40:	00ca      	lsls	r2, r1, #3
 8006a42:	4610      	mov	r0, r2
 8006a44:	4619      	mov	r1, r3
 8006a46:	4603      	mov	r3, r0
 8006a48:	4642      	mov	r2, r8
 8006a4a:	189b      	adds	r3, r3, r2
 8006a4c:	f8c7 3080 	str.w	r3, [r7, #128]	; 0x80
 8006a50:	464b      	mov	r3, r9
 8006a52:	460a      	mov	r2, r1
 8006a54:	eb42 0303 	adc.w	r3, r2, r3
 8006a58:	f8c7 3084 	str.w	r3, [r7, #132]	; 0x84
 8006a5c:	f8d7 30f4 	ldr.w	r3, [r7, #244]	; 0xf4
 8006a60:	685b      	ldr	r3, [r3, #4]
 8006a62:	2200      	movs	r2, #0
 8006a64:	67bb      	str	r3, [r7, #120]	; 0x78
 8006a66:	67fa      	str	r2, [r7, #124]	; 0x7c
 8006a68:	f04f 0200 	mov.w	r2, #0
 8006a6c:	f04f 0300 	mov.w	r3, #0
 8006a70:	e9d7 891e 	ldrd	r8, r9, [r7, #120]	; 0x78
 8006a74:	4649      	mov	r1, r9
 8006a76:	008b      	lsls	r3, r1, #2
 8006a78:	4641      	mov	r1, r8
 8006a7a:	ea43 7391 	orr.w	r3, r3, r1, lsr #30
 8006a7e:	4641      	mov	r1, r8
 8006a80:	008a      	lsls	r2, r1, #2
 8006a82:	e9d7 0120 	ldrd	r0, r1, [r7, #128]	; 0x80
 8006a86:	f7f9 fbb9 	bl	80001fc <__aeabi_uldivmod>
 8006a8a:	4602      	mov	r2, r0
 8006a8c:	460b      	mov	r3, r1
 8006a8e:	4611      	mov	r1, r2
 8006a90:	4b38      	ldr	r3, [pc, #224]	; (8006b74 <UART_SetConfig+0x4e4>)
 8006a92:	fba3 2301 	umull	r2, r3, r3, r1
 8006a96:	095b      	lsrs	r3, r3, #5
 8006a98:	2264      	movs	r2, #100	; 0x64
 8006a9a:	fb02 f303 	mul.w	r3, r2, r3
 8006a9e:	1acb      	subs	r3, r1, r3
 8006aa0:	011b      	lsls	r3, r3, #4
 8006aa2:	3332      	adds	r3, #50	; 0x32
 8006aa4:	4a33      	ldr	r2, [pc, #204]	; (8006b74 <UART_SetConfig+0x4e4>)
 8006aa6:	fba2 2303 	umull	r2, r3, r2, r3
 8006aaa:	095b      	lsrs	r3, r3, #5
 8006aac:	f003 03f0 	and.w	r3, r3, #240	; 0xf0
 8006ab0:	441c      	add	r4, r3
 8006ab2:	f8d7 30fc 	ldr.w	r3, [r7, #252]	; 0xfc
 8006ab6:	2200      	movs	r2, #0
 8006ab8:	673b      	str	r3, [r7, #112]	; 0x70
 8006aba:	677a      	str	r2, [r7, #116]	; 0x74
 8006abc:	e9d7 891c 	ldrd	r8, r9, [r7, #112]	; 0x70
 8006ac0:	4642      	mov	r2, r8
 8006ac2:	464b      	mov	r3, r9
 8006ac4:	1891      	adds	r1, r2, r2
 8006ac6:	60b9      	str	r1, [r7, #8]
 8006ac8:	415b      	adcs	r3, r3
 8006aca:	60fb      	str	r3, [r7, #12]
 8006acc:	e9d7 2302 	ldrd	r2, r3, [r7, #8]
 8006ad0:	4641      	mov	r1, r8
 8006ad2:	1851      	adds	r1, r2, r1
 8006ad4:	6039      	str	r1, [r7, #0]
 8006ad6:	4649      	mov	r1, r9
 8006ad8:	414b      	adcs	r3, r1
 8006ada:	607b      	str	r3, [r7, #4]
 8006adc:	f04f 0200 	mov.w	r2, #0
 8006ae0:	f04f 0300 	mov.w	r3, #0
 8006ae4:	e9d7 ab00 	ldrd	sl, fp, [r7]
 8006ae8:	4659      	mov	r1, fp
 8006aea:	00cb      	lsls	r3, r1, #3
 8006aec:	4651      	mov	r1, sl
 8006aee:	ea43 7351 	orr.w	r3, r3, r1, lsr #29
 8006af2:	4651      	mov	r1, sl
 8006af4:	00ca      	lsls	r2, r1, #3
 8006af6:	4610      	mov	r0, r2
 8006af8:	4619      	mov	r1, r3
 8006afa:	4603      	mov	r3, r0
 8006afc:	4642      	mov	r2, r8
 8006afe:	189b      	adds	r3, r3, r2
 8006b00:	66bb      	str	r3, [r7, #104]	; 0x68
 8006b02:	464b      	mov	r3, r9
 8006b04:	460a      	mov	r2, r1
 8006b06:	eb42 0303 	adc.w	r3, r2, r3
 8006b0a:	66fb      	str	r3, [r7, #108]	; 0x6c
 8006b0c:	f8d7 30f4 	ldr.w	r3, [r7, #244]	; 0xf4
 8006b10:	685b      	ldr	r3, [r3, #4]
 8006b12:	2200      	movs	r2, #0
 8006b14:	663b      	str	r3, [r7, #96]	; 0x60
 8006b16:	667a      	str	r2, [r7, #100]	; 0x64
 8006b18:	f04f 0200 	mov.w	r2, #0
 8006b1c:	f04f 0300 	mov.w	r3, #0
 8006b20:	e9d7 8918 	ldrd	r8, r9, [r7, #96]	; 0x60
 8006b24:	4649      	mov	r1, r9
 8006b26:	008b      	lsls	r3, r1, #2
 8006b28:	4641      	mov	r1, r8
 8006b2a:	ea43 7391 	orr.w	r3, r3, r1, lsr #30
 8006b2e:	4641      	mov	r1, r8
 8006b30:	008a      	lsls	r2, r1, #2
 8006b32:	e9d7 011a 	ldrd	r0, r1, [r7, #104]	; 0x68
 8006b36:	f7f9 fb61 	bl	80001fc <__aeabi_uldivmod>
 8006b3a:	4602      	mov	r2, r0
 8006b3c:	460b      	mov	r3, r1
 8006b3e:	4b0d      	ldr	r3, [pc, #52]	; (8006b74 <UART_SetConfig+0x4e4>)
 8006b40:	fba3 1302 	umull	r1, r3, r3, r2
 8006b44:	095b      	lsrs	r3, r3, #5
 8006b46:	2164      	movs	r1, #100	; 0x64
 8006b48:	fb01 f303 	mul.w	r3, r1, r3
 8006b4c:	1ad3      	subs	r3, r2, r3
 8006b4e:	011b      	lsls	r3, r3, #4
 8006b50:	3332      	adds	r3, #50	; 0x32
 8006b52:	4a08      	ldr	r2, [pc, #32]	; (8006b74 <UART_SetConfig+0x4e4>)
 8006b54:	fba2 2303 	umull	r2, r3, r2, r3
 8006b58:	095b      	lsrs	r3, r3, #5
 8006b5a:	f003 020f 	and.w	r2, r3, #15
 8006b5e:	f8d7 30f4 	ldr.w	r3, [r7, #244]	; 0xf4
 8006b62:	681b      	ldr	r3, [r3, #0]
 8006b64:	4422      	add	r2, r4
 8006b66:	609a      	str	r2, [r3, #8]
}
 8006b68:	bf00      	nop
 8006b6a:	f507 7780 	add.w	r7, r7, #256	; 0x100
 8006b6e:	46bd      	mov	sp, r7
 8006b70:	e8bd 8fb0 	ldmia.w	sp!, {r4, r5, r7, r8, r9, sl, fp, pc}
 8006b74:	51eb851f 	.word	0x51eb851f

08006b78 <memset>:
 8006b78:	4402      	add	r2, r0
 8006b7a:	4603      	mov	r3, r0
 8006b7c:	4293      	cmp	r3, r2
 8006b7e:	d100      	bne.n	8006b82 <memset+0xa>
 8006b80:	4770      	bx	lr
 8006b82:	f803 1b01 	strb.w	r1, [r3], #1
 8006b86:	e7f9      	b.n	8006b7c <memset+0x4>

08006b88 <__libc_init_array>:
 8006b88:	b570      	push	{r4, r5, r6, lr}
 8006b8a:	4d0d      	ldr	r5, [pc, #52]	; (8006bc0 <__libc_init_array+0x38>)
 8006b8c:	4c0d      	ldr	r4, [pc, #52]	; (8006bc4 <__libc_init_array+0x3c>)
 8006b8e:	1b64      	subs	r4, r4, r5
 8006b90:	10a4      	asrs	r4, r4, #2
 8006b92:	2600      	movs	r6, #0
 8006b94:	42a6      	cmp	r6, r4
 8006b96:	d109      	bne.n	8006bac <__libc_init_array+0x24>
 8006b98:	4d0b      	ldr	r5, [pc, #44]	; (8006bc8 <__libc_init_array+0x40>)
 8006b9a:	4c0c      	ldr	r4, [pc, #48]	; (8006bcc <__libc_init_array+0x44>)
 8006b9c:	f000 f818 	bl	8006bd0 <_init>
 8006ba0:	1b64      	subs	r4, r4, r5
 8006ba2:	10a4      	asrs	r4, r4, #2
 8006ba4:	2600      	movs	r6, #0
 8006ba6:	42a6      	cmp	r6, r4
 8006ba8:	d105      	bne.n	8006bb6 <__libc_init_array+0x2e>
 8006baa:	bd70      	pop	{r4, r5, r6, pc}
 8006bac:	f855 3b04 	ldr.w	r3, [r5], #4
 8006bb0:	4798      	blx	r3
 8006bb2:	3601      	adds	r6, #1
 8006bb4:	e7ee      	b.n	8006b94 <__libc_init_array+0xc>
 8006bb6:	f855 3b04 	ldr.w	r3, [r5], #4
 8006bba:	4798      	blx	r3
 8006bbc:	3601      	adds	r6, #1
 8006bbe:	e7f2      	b.n	8006ba6 <__libc_init_array+0x1e>
 8006bc0:	08006c78 	.word	0x08006c78
 8006bc4:	08006c78 	.word	0x08006c78
 8006bc8:	08006c78 	.word	0x08006c78
 8006bcc:	08006c7c 	.word	0x08006c7c

08006bd0 <_init>:
 8006bd0:	b5f8      	push	{r3, r4, r5, r6, r7, lr}
 8006bd2:	bf00      	nop
 8006bd4:	bcf8      	pop	{r3, r4, r5, r6, r7}
 8006bd6:	bc08      	pop	{r3}
 8006bd8:	469e      	mov	lr, r3
 8006bda:	4770      	bx	lr

08006bdc <_fini>:
 8006bdc:	b5f8      	push	{r3, r4, r5, r6, r7, lr}
 8006bde:	bf00      	nop
 8006be0:	bcf8      	pop	{r3, r4, r5, r6, r7}
 8006be2:	bc08      	pop	{r3}
 8006be4:	469e      	mov	lr, r3
 8006be6:	4770      	bx	lr
