
AuroraV_Payload_F439.elf:     file format elf32-littlearm

Sections:
Idx Name          Size      VMA       LMA       File off  Algn
  0 .isr_vector   000001ac  08000000  08000000  00001000  2**0
                  CONTENTS, ALLOC, LOAD, READONLY, DATA
  1 .text         0000534c  080001ac  080001ac  000011ac  2**2
                  CONTENTS, ALLOC, LOAD, READONLY, CODE
  2 .rodata       000000b4  080054f8  080054f8  000064f8  2**0
                  CONTENTS, ALLOC, LOAD, READONLY, DATA
  3 .ARM.extab    00000000  080055ac  080055ac  00007028  2**0
                  CONTENTS
  4 .ARM          00000008  080055ac  080055ac  000065ac  2**2
                  CONTENTS, ALLOC, LOAD, READONLY, DATA
  5 .preinit_array 00000000  080055b4  080055b4  00007028  2**0
                  CONTENTS, ALLOC, LOAD, DATA
  6 .init_array   00000004  080055b4  080055b4  000065b4  2**2
                  CONTENTS, ALLOC, LOAD, DATA
  7 .fini_array   00000004  080055b8  080055b8  000065b8  2**2
                  CONTENTS, ALLOC, LOAD, DATA
  8 .data         00000028  20000000  080055bc  00007000  2**2
                  CONTENTS, ALLOC, LOAD, DATA
  9 .ccmram       00000000  10000000  10000000  00007028  2**0
                  CONTENTS
 10 .bss          00000604  20000028  20000028  00007028  2**2
                  ALLOC
 11 ._user_heap_stack 00000604  2000062c  2000062c  00007028  2**0
                  ALLOC
 12 .ARM.attributes 00000030  00000000  00000000  00007028  2**0
                  CONTENTS, READONLY
 13 .comment      00000043  00000000  00000000  00007058  2**0
                  CONTENTS, READONLY
 14 .debug_frame  000000ac  00000000  00000000  0000709c  2**2
                  CONTENTS, READONLY, DEBUGGING, OCTETS

Disassembly of section .text:

080001ac <__do_global_dtors_aux>:
 80001ac:	b510      	push	{r4, lr}
 80001ae:	4c05      	ldr	r4, [pc, #20]	@ (80001c4 <__do_global_dtors_aux+0x18>)
 80001b0:	7823      	ldrb	r3, [r4, #0]
 80001b2:	b933      	cbnz	r3, 80001c2 <__do_global_dtors_aux+0x16>
 80001b4:	4b04      	ldr	r3, [pc, #16]	@ (80001c8 <__do_global_dtors_aux+0x1c>)
 80001b6:	b113      	cbz	r3, 80001be <__do_global_dtors_aux+0x12>
 80001b8:	4804      	ldr	r0, [pc, #16]	@ (80001cc <__do_global_dtors_aux+0x20>)
 80001ba:	f3af 8000 	nop.w
 80001be:	2301      	movs	r3, #1
 80001c0:	7023      	strb	r3, [r4, #0]
 80001c2:	bd10      	pop	{r4, pc}
 80001c4:	20000028 	.word	0x20000028
 80001c8:	00000000 	.word	0x00000000
 80001cc:	080054e0 	.word	0x080054e0

080001d0 <frame_dummy>:
 80001d0:	b508      	push	{r3, lr}
 80001d2:	4b03      	ldr	r3, [pc, #12]	@ (80001e0 <frame_dummy+0x10>)
 80001d4:	b11b      	cbz	r3, 80001de <frame_dummy+0xe>
 80001d6:	4903      	ldr	r1, [pc, #12]	@ (80001e4 <frame_dummy+0x14>)
 80001d8:	4803      	ldr	r0, [pc, #12]	@ (80001e8 <frame_dummy+0x18>)
 80001da:	f3af 8000 	nop.w
 80001de:	bd08      	pop	{r3, pc}
 80001e0:	00000000 	.word	0x00000000
 80001e4:	2000002c 	.word	0x2000002c
 80001e8:	080054e0 	.word	0x080054e0

080001ec <strlen>:
 80001ec:	4603      	mov	r3, r0
 80001ee:	f813 2b01 	ldrb.w	r2, [r3], #1
 80001f2:	2a00      	cmp	r2, #0
 80001f4:	d1fb      	bne.n	80001ee <strlen+0x2>
 80001f6:	1a18      	subs	r0, r3, r0
 80001f8:	3801      	subs	r0, #1
 80001fa:	4770      	bx	lr

080001fc <__aeabi_uldivmod>:
 80001fc:	b953      	cbnz	r3, 8000214 <__aeabi_uldivmod+0x18>
 80001fe:	b94a      	cbnz	r2, 8000214 <__aeabi_uldivmod+0x18>
 8000200:	2900      	cmp	r1, #0
 8000202:	bf08      	it	eq
 8000204:	2800      	cmpeq	r0, #0
 8000206:	bf1c      	itt	ne
 8000208:	f04f 31ff 	movne.w	r1, #4294967295	@ 0xffffffff
 800020c:	f04f 30ff 	movne.w	r0, #4294967295	@ 0xffffffff
 8000210:	f000 b96a 	b.w	80004e8 <__aeabi_idiv0>
 8000214:	f1ad 0c08 	sub.w	ip, sp, #8
 8000218:	e96d ce04 	strd	ip, lr, [sp, #-16]!
 800021c:	f000 f806 	bl	800022c <__udivmoddi4>
 8000220:	f8dd e004 	ldr.w	lr, [sp, #4]
 8000224:	e9dd 2302 	ldrd	r2, r3, [sp, #8]
 8000228:	b004      	add	sp, #16
 800022a:	4770      	bx	lr

0800022c <__udivmoddi4>:
 800022c:	e92d 47f0 	stmdb	sp!, {r4, r5, r6, r7, r8, r9, sl, lr}
 8000230:	9d08      	ldr	r5, [sp, #32]
 8000232:	460c      	mov	r4, r1
 8000234:	2b00      	cmp	r3, #0
 8000236:	d14e      	bne.n	80002d6 <__udivmoddi4+0xaa>
 8000238:	4694      	mov	ip, r2
 800023a:	458c      	cmp	ip, r1
 800023c:	4686      	mov	lr, r0
 800023e:	fab2 f282 	clz	r2, r2
 8000242:	d962      	bls.n	800030a <__udivmoddi4+0xde>
 8000244:	b14a      	cbz	r2, 800025a <__udivmoddi4+0x2e>
 8000246:	f1c2 0320 	rsb	r3, r2, #32
 800024a:	4091      	lsls	r1, r2
 800024c:	fa20 f303 	lsr.w	r3, r0, r3
 8000250:	fa0c fc02 	lsl.w	ip, ip, r2
 8000254:	4319      	orrs	r1, r3
 8000256:	fa00 fe02 	lsl.w	lr, r0, r2
 800025a:	ea4f 471c 	mov.w	r7, ip, lsr #16
 800025e:	fa1f f68c 	uxth.w	r6, ip
 8000262:	fbb1 f4f7 	udiv	r4, r1, r7
 8000266:	ea4f 431e 	mov.w	r3, lr, lsr #16
 800026a:	fb07 1114 	mls	r1, r7, r4, r1
 800026e:	ea43 4301 	orr.w	r3, r3, r1, lsl #16
 8000272:	fb04 f106 	mul.w	r1, r4, r6
 8000276:	4299      	cmp	r1, r3
 8000278:	d90a      	bls.n	8000290 <__udivmoddi4+0x64>
 800027a:	eb1c 0303 	adds.w	r3, ip, r3
 800027e:	f104 30ff 	add.w	r0, r4, #4294967295	@ 0xffffffff
 8000282:	f080 8112 	bcs.w	80004aa <__udivmoddi4+0x27e>
 8000286:	4299      	cmp	r1, r3
 8000288:	f240 810f 	bls.w	80004aa <__udivmoddi4+0x27e>
 800028c:	3c02      	subs	r4, #2
 800028e:	4463      	add	r3, ip
 8000290:	1a59      	subs	r1, r3, r1
 8000292:	fa1f f38e 	uxth.w	r3, lr
 8000296:	fbb1 f0f7 	udiv	r0, r1, r7
 800029a:	fb07 1110 	mls	r1, r7, r0, r1
 800029e:	ea43 4301 	orr.w	r3, r3, r1, lsl #16
 80002a2:	fb00 f606 	mul.w	r6, r0, r6
 80002a6:	429e      	cmp	r6, r3
 80002a8:	d90a      	bls.n	80002c0 <__udivmoddi4+0x94>
 80002aa:	eb1c 0303 	adds.w	r3, ip, r3
 80002ae:	f100 31ff 	add.w	r1, r0, #4294967295	@ 0xffffffff
 80002b2:	f080 80fc 	bcs.w	80004ae <__udivmoddi4+0x282>
 80002b6:	429e      	cmp	r6, r3
 80002b8:	f240 80f9 	bls.w	80004ae <__udivmoddi4+0x282>
 80002bc:	4463      	add	r3, ip
 80002be:	3802      	subs	r0, #2
 80002c0:	1b9b      	subs	r3, r3, r6
 80002c2:	ea40 4004 	orr.w	r0, r0, r4, lsl #16
 80002c6:	2100      	movs	r1, #0
 80002c8:	b11d      	cbz	r5, 80002d2 <__udivmoddi4+0xa6>
 80002ca:	40d3      	lsrs	r3, r2
 80002cc:	2200      	movs	r2, #0
 80002ce:	e9c5 3200 	strd	r3, r2, [r5]
 80002d2:	e8bd 87f0 	ldmia.w	sp!, {r4, r5, r6, r7, r8, r9, sl, pc}
 80002d6:	428b      	cmp	r3, r1
 80002d8:	d905      	bls.n	80002e6 <__udivmoddi4+0xba>
 80002da:	b10d      	cbz	r5, 80002e0 <__udivmoddi4+0xb4>
 80002dc:	e9c5 0100 	strd	r0, r1, [r5]
 80002e0:	2100      	movs	r1, #0
 80002e2:	4608      	mov	r0, r1
 80002e4:	e7f5      	b.n	80002d2 <__udivmoddi4+0xa6>
 80002e6:	fab3 f183 	clz	r1, r3
 80002ea:	2900      	cmp	r1, #0
 80002ec:	d146      	bne.n	800037c <__udivmoddi4+0x150>
 80002ee:	42a3      	cmp	r3, r4
 80002f0:	d302      	bcc.n	80002f8 <__udivmoddi4+0xcc>
 80002f2:	4290      	cmp	r0, r2
 80002f4:	f0c0 80f0 	bcc.w	80004d8 <__udivmoddi4+0x2ac>
 80002f8:	1a86      	subs	r6, r0, r2
 80002fa:	eb64 0303 	sbc.w	r3, r4, r3
 80002fe:	2001      	movs	r0, #1
 8000300:	2d00      	cmp	r5, #0
 8000302:	d0e6      	beq.n	80002d2 <__udivmoddi4+0xa6>
 8000304:	e9c5 6300 	strd	r6, r3, [r5]
 8000308:	e7e3      	b.n	80002d2 <__udivmoddi4+0xa6>
 800030a:	2a00      	cmp	r2, #0
 800030c:	f040 8090 	bne.w	8000430 <__udivmoddi4+0x204>
 8000310:	eba1 040c 	sub.w	r4, r1, ip
 8000314:	ea4f 481c 	mov.w	r8, ip, lsr #16
 8000318:	fa1f f78c 	uxth.w	r7, ip
 800031c:	2101      	movs	r1, #1
 800031e:	fbb4 f6f8 	udiv	r6, r4, r8
 8000322:	ea4f 431e 	mov.w	r3, lr, lsr #16
 8000326:	fb08 4416 	mls	r4, r8, r6, r4
 800032a:	ea43 4304 	orr.w	r3, r3, r4, lsl #16
 800032e:	fb07 f006 	mul.w	r0, r7, r6
 8000332:	4298      	cmp	r0, r3
 8000334:	d908      	bls.n	8000348 <__udivmoddi4+0x11c>
 8000336:	eb1c 0303 	adds.w	r3, ip, r3
 800033a:	f106 34ff 	add.w	r4, r6, #4294967295	@ 0xffffffff
 800033e:	d202      	bcs.n	8000346 <__udivmoddi4+0x11a>
 8000340:	4298      	cmp	r0, r3
 8000342:	f200 80cd 	bhi.w	80004e0 <__udivmoddi4+0x2b4>
 8000346:	4626      	mov	r6, r4
 8000348:	1a1c      	subs	r4, r3, r0
 800034a:	fa1f f38e 	uxth.w	r3, lr
 800034e:	fbb4 f0f8 	udiv	r0, r4, r8
 8000352:	fb08 4410 	mls	r4, r8, r0, r4
 8000356:	ea43 4304 	orr.w	r3, r3, r4, lsl #16
 800035a:	fb00 f707 	mul.w	r7, r0, r7
 800035e:	429f      	cmp	r7, r3
 8000360:	d908      	bls.n	8000374 <__udivmoddi4+0x148>
 8000362:	eb1c 0303 	adds.w	r3, ip, r3
 8000366:	f100 34ff 	add.w	r4, r0, #4294967295	@ 0xffffffff
 800036a:	d202      	bcs.n	8000372 <__udivmoddi4+0x146>
 800036c:	429f      	cmp	r7, r3
 800036e:	f200 80b0 	bhi.w	80004d2 <__udivmoddi4+0x2a6>
 8000372:	4620      	mov	r0, r4
 8000374:	1bdb      	subs	r3, r3, r7
 8000376:	ea40 4006 	orr.w	r0, r0, r6, lsl #16
 800037a:	e7a5      	b.n	80002c8 <__udivmoddi4+0x9c>
 800037c:	f1c1 0620 	rsb	r6, r1, #32
 8000380:	408b      	lsls	r3, r1
 8000382:	fa22 f706 	lsr.w	r7, r2, r6
 8000386:	431f      	orrs	r7, r3
 8000388:	fa20 fc06 	lsr.w	ip, r0, r6
 800038c:	fa04 f301 	lsl.w	r3, r4, r1
 8000390:	ea43 030c 	orr.w	r3, r3, ip
 8000394:	40f4      	lsrs	r4, r6
 8000396:	fa00 f801 	lsl.w	r8, r0, r1
 800039a:	0c38      	lsrs	r0, r7, #16
 800039c:	ea4f 4913 	mov.w	r9, r3, lsr #16
 80003a0:	fbb4 fef0 	udiv	lr, r4, r0
 80003a4:	fa1f fc87 	uxth.w	ip, r7
 80003a8:	fb00 441e 	mls	r4, r0, lr, r4
 80003ac:	ea49 4404 	orr.w	r4, r9, r4, lsl #16
 80003b0:	fb0e f90c 	mul.w	r9, lr, ip
 80003b4:	45a1      	cmp	r9, r4
 80003b6:	fa02 f201 	lsl.w	r2, r2, r1
 80003ba:	d90a      	bls.n	80003d2 <__udivmoddi4+0x1a6>
 80003bc:	193c      	adds	r4, r7, r4
 80003be:	f10e 3aff 	add.w	sl, lr, #4294967295	@ 0xffffffff
 80003c2:	f080 8084 	bcs.w	80004ce <__udivmoddi4+0x2a2>
 80003c6:	45a1      	cmp	r9, r4
 80003c8:	f240 8081 	bls.w	80004ce <__udivmoddi4+0x2a2>
 80003cc:	f1ae 0e02 	sub.w	lr, lr, #2
 80003d0:	443c      	add	r4, r7
 80003d2:	eba4 0409 	sub.w	r4, r4, r9
 80003d6:	fa1f f983 	uxth.w	r9, r3
 80003da:	fbb4 f3f0 	udiv	r3, r4, r0
 80003de:	fb00 4413 	mls	r4, r0, r3, r4
 80003e2:	ea49 4404 	orr.w	r4, r9, r4, lsl #16
 80003e6:	fb03 fc0c 	mul.w	ip, r3, ip
 80003ea:	45a4      	cmp	ip, r4
 80003ec:	d907      	bls.n	80003fe <__udivmoddi4+0x1d2>
 80003ee:	193c      	adds	r4, r7, r4
 80003f0:	f103 30ff 	add.w	r0, r3, #4294967295	@ 0xffffffff
 80003f4:	d267      	bcs.n	80004c6 <__udivmoddi4+0x29a>
 80003f6:	45a4      	cmp	ip, r4
 80003f8:	d965      	bls.n	80004c6 <__udivmoddi4+0x29a>
 80003fa:	3b02      	subs	r3, #2
 80003fc:	443c      	add	r4, r7
 80003fe:	ea43 400e 	orr.w	r0, r3, lr, lsl #16
 8000402:	fba0 9302 	umull	r9, r3, r0, r2
 8000406:	eba4 040c 	sub.w	r4, r4, ip
 800040a:	429c      	cmp	r4, r3
 800040c:	46ce      	mov	lr, r9
 800040e:	469c      	mov	ip, r3
 8000410:	d351      	bcc.n	80004b6 <__udivmoddi4+0x28a>
 8000412:	d04e      	beq.n	80004b2 <__udivmoddi4+0x286>
 8000414:	b155      	cbz	r5, 800042c <__udivmoddi4+0x200>
 8000416:	ebb8 030e 	subs.w	r3, r8, lr
 800041a:	eb64 040c 	sbc.w	r4, r4, ip
 800041e:	fa04 f606 	lsl.w	r6, r4, r6
 8000422:	40cb      	lsrs	r3, r1
 8000424:	431e      	orrs	r6, r3
 8000426:	40cc      	lsrs	r4, r1
 8000428:	e9c5 6400 	strd	r6, r4, [r5]
 800042c:	2100      	movs	r1, #0
 800042e:	e750      	b.n	80002d2 <__udivmoddi4+0xa6>
 8000430:	f1c2 0320 	rsb	r3, r2, #32
 8000434:	fa20 f103 	lsr.w	r1, r0, r3
 8000438:	fa0c fc02 	lsl.w	ip, ip, r2
 800043c:	fa24 f303 	lsr.w	r3, r4, r3
 8000440:	4094      	lsls	r4, r2
 8000442:	430c      	orrs	r4, r1
 8000444:	ea4f 481c 	mov.w	r8, ip, lsr #16
 8000448:	fa00 fe02 	lsl.w	lr, r0, r2
 800044c:	fa1f f78c 	uxth.w	r7, ip
 8000450:	fbb3 f0f8 	udiv	r0, r3, r8
 8000454:	fb08 3110 	mls	r1, r8, r0, r3
 8000458:	0c23      	lsrs	r3, r4, #16
 800045a:	ea43 4301 	orr.w	r3, r3, r1, lsl #16
 800045e:	fb00 f107 	mul.w	r1, r0, r7
 8000462:	4299      	cmp	r1, r3
 8000464:	d908      	bls.n	8000478 <__udivmoddi4+0x24c>
 8000466:	eb1c 0303 	adds.w	r3, ip, r3
 800046a:	f100 36ff 	add.w	r6, r0, #4294967295	@ 0xffffffff
 800046e:	d22c      	bcs.n	80004ca <__udivmoddi4+0x29e>
 8000470:	4299      	cmp	r1, r3
 8000472:	d92a      	bls.n	80004ca <__udivmoddi4+0x29e>
 8000474:	3802      	subs	r0, #2
 8000476:	4463      	add	r3, ip
 8000478:	1a5b      	subs	r3, r3, r1
 800047a:	b2a4      	uxth	r4, r4
 800047c:	fbb3 f1f8 	udiv	r1, r3, r8
 8000480:	fb08 3311 	mls	r3, r8, r1, r3
 8000484:	ea44 4403 	orr.w	r4, r4, r3, lsl #16
 8000488:	fb01 f307 	mul.w	r3, r1, r7
 800048c:	42a3      	cmp	r3, r4
 800048e:	d908      	bls.n	80004a2 <__udivmoddi4+0x276>
 8000490:	eb1c 0404 	adds.w	r4, ip, r4
 8000494:	f101 36ff 	add.w	r6, r1, #4294967295	@ 0xffffffff
 8000498:	d213      	bcs.n	80004c2 <__udivmoddi4+0x296>
 800049a:	42a3      	cmp	r3, r4
 800049c:	d911      	bls.n	80004c2 <__udivmoddi4+0x296>
 800049e:	3902      	subs	r1, #2
 80004a0:	4464      	add	r4, ip
 80004a2:	1ae4      	subs	r4, r4, r3
 80004a4:	ea41 4100 	orr.w	r1, r1, r0, lsl #16
 80004a8:	e739      	b.n	800031e <__udivmoddi4+0xf2>
 80004aa:	4604      	mov	r4, r0
 80004ac:	e6f0      	b.n	8000290 <__udivmoddi4+0x64>
 80004ae:	4608      	mov	r0, r1
 80004b0:	e706      	b.n	80002c0 <__udivmoddi4+0x94>
 80004b2:	45c8      	cmp	r8, r9
 80004b4:	d2ae      	bcs.n	8000414 <__udivmoddi4+0x1e8>
 80004b6:	ebb9 0e02 	subs.w	lr, r9, r2
 80004ba:	eb63 0c07 	sbc.w	ip, r3, r7
 80004be:	3801      	subs	r0, #1
 80004c0:	e7a8      	b.n	8000414 <__udivmoddi4+0x1e8>
 80004c2:	4631      	mov	r1, r6
 80004c4:	e7ed      	b.n	80004a2 <__udivmoddi4+0x276>
 80004c6:	4603      	mov	r3, r0
 80004c8:	e799      	b.n	80003fe <__udivmoddi4+0x1d2>
 80004ca:	4630      	mov	r0, r6
 80004cc:	e7d4      	b.n	8000478 <__udivmoddi4+0x24c>
 80004ce:	46d6      	mov	lr, sl
 80004d0:	e77f      	b.n	80003d2 <__udivmoddi4+0x1a6>
 80004d2:	4463      	add	r3, ip
 80004d4:	3802      	subs	r0, #2
 80004d6:	e74d      	b.n	8000374 <__udivmoddi4+0x148>
 80004d8:	4606      	mov	r6, r0
 80004da:	4623      	mov	r3, r4
 80004dc:	4608      	mov	r0, r1
 80004de:	e70f      	b.n	8000300 <__udivmoddi4+0xd4>
 80004e0:	3e02      	subs	r6, #2
 80004e2:	4463      	add	r3, ip
 80004e4:	e730      	b.n	8000348 <__udivmoddi4+0x11c>
 80004e6:	bf00      	nop

080004e8 <__aeabi_idiv0>:
 80004e8:	4770      	bx	lr
 80004ea:	bf00      	nop

080004ec <readAccelerometer>:
 80004ec:	b507      	push	{r0, r1, r2, lr}
 80004ee:	4603      	mov	r3, r0
 80004f0:	2200      	movs	r2, #0
 80004f2:	601a      	str	r2, [r3, #0]
 80004f4:	809a      	strh	r2, [r3, #4]
 80004f6:	4608      	mov	r0, r1
 80004f8:	4a05      	ldr	r2, [pc, #20]	@ (8000510 <readAccelerometer+0x24>)
 80004fa:	4906      	ldr	r1, [pc, #24]	@ (8000514 <readAccelerometer+0x28>)
 80004fc:	9300      	str	r3, [sp, #0]
 80004fe:	7812      	ldrb	r2, [r2, #0]
 8000500:	7809      	ldrb	r1, [r1, #0]
 8000502:	2306      	movs	r3, #6
 8000504:	f000 fa62 	bl	80009cc <i2c_burst_read>
 8000508:	b003      	add	sp, #12
 800050a:	f85d fb04 	ldr.w	pc, [sp], #4
 800050e:	bf00      	nop
 8000510:	20000000 	.word	0x20000000
 8000514:	20000007 	.word	0x20000007

08000518 <readAccel_whoami>:
 8000518:	b507      	push	{r0, r1, r2, lr}
 800051a:	4a07      	ldr	r2, [pc, #28]	@ (8000538 <readAccel_whoami+0x20>)
 800051c:	2300      	movs	r3, #0
 800051e:	f88d 3007 	strb.w	r3, [sp, #7]
 8000522:	7812      	ldrb	r2, [r2, #0]
 8000524:	4b05      	ldr	r3, [pc, #20]	@ (800053c <readAccel_whoami+0x24>)
 8000526:	f10d 0107 	add.w	r1, sp, #7
 800052a:	f000 fa38 	bl	800099e <i2c_read_reg>
 800052e:	f89d 0007 	ldrb.w	r0, [sp, #7]
 8000532:	b003      	add	sp, #12
 8000534:	f85d fb04 	ldr.w	pc, [sp], #4
 8000538:	20000007 	.word	0x20000007
 800053c:	20000044 	.word	0x20000044

08000540 <writeOffset>:
 8000540:	b570      	push	{r4, r5, r6, lr}
 8000542:	4d0a      	ldr	r5, [pc, #40]	@ (800056c <writeOffset+0x2c>)
 8000544:	4a0a      	ldr	r2, [pc, #40]	@ (8000570 <writeOffset+0x30>)
 8000546:	7829      	ldrb	r1, [r5, #0]
 8000548:	4604      	mov	r4, r0
 800054a:	2302      	movs	r3, #2
 800054c:	f000 fa59 	bl	8000a02 <i2c_write_reg>
 8000550:	7829      	ldrb	r1, [r5, #0]
 8000552:	4a08      	ldr	r2, [pc, #32]	@ (8000574 <writeOffset+0x34>)
 8000554:	2301      	movs	r3, #1
 8000556:	4620      	mov	r0, r4
 8000558:	f000 fa53 	bl	8000a02 <i2c_write_reg>
 800055c:	7829      	ldrb	r1, [r5, #0]
 800055e:	4a06      	ldr	r2, [pc, #24]	@ (8000578 <writeOffset+0x38>)
 8000560:	4620      	mov	r0, r4
 8000562:	2301      	movs	r3, #1
 8000564:	e8bd 4070 	ldmia.w	sp!, {r4, r5, r6, lr}
 8000568:	f000 ba4b 	b.w	8000a02 <i2c_write_reg>
 800056c:	20000007 	.word	0x20000007
 8000570:	20000003 	.word	0x20000003
 8000574:	20000002 	.word	0x20000002
 8000578:	20000001 	.word	0x20000001

0800057c <init_accel>:
 800057c:	b570      	push	{r4, r5, r6, lr}
 800057e:	4d0f      	ldr	r5, [pc, #60]	@ (80005bc <init_accel+0x40>)
 8000580:	4e0f      	ldr	r6, [pc, #60]	@ (80005c0 <init_accel+0x44>)
 8000582:	7829      	ldrb	r1, [r5, #0]
 8000584:	4604      	mov	r4, r0
 8000586:	4632      	mov	r2, r6
 8000588:	2300      	movs	r3, #0
 800058a:	f000 fa3a 	bl	8000a02 <i2c_write_reg>
 800058e:	7829      	ldrb	r1, [r5, #0]
 8000590:	4a0c      	ldr	r2, [pc, #48]	@ (80005c4 <init_accel+0x48>)
 8000592:	230b      	movs	r3, #11
 8000594:	4620      	mov	r0, r4
 8000596:	f000 fa34 	bl	8000a02 <i2c_write_reg>
 800059a:	7829      	ldrb	r1, [r5, #0]
 800059c:	4a0a      	ldr	r2, [pc, #40]	@ (80005c8 <init_accel+0x4c>)
 800059e:	230b      	movs	r3, #11
 80005a0:	4620      	mov	r0, r4
 80005a2:	f000 fa2e 	bl	8000a02 <i2c_write_reg>
 80005a6:	4620      	mov	r0, r4
 80005a8:	f7ff ffca 	bl	8000540 <writeOffset>
 80005ac:	7829      	ldrb	r1, [r5, #0]
 80005ae:	4632      	mov	r2, r6
 80005b0:	4620      	mov	r0, r4
 80005b2:	2308      	movs	r3, #8
 80005b4:	e8bd 4070 	ldmia.w	sp!, {r4, r5, r6, lr}
 80005b8:	f000 ba23 	b.w	8000a02 <i2c_write_reg>
 80005bc:	20000007 	.word	0x20000007
 80005c0:	20000005 	.word	0x20000005
 80005c4:	20000004 	.word	0x20000004
 80005c8:	20000006 	.word	0x20000006

080005cc <getBME280Config>:
 80005cc:	2300      	movs	r3, #0
 80005ce:	b120      	cbz	r0, 80005da <getBME280Config+0xe>
 80005d0:	2801      	cmp	r0, #1
 80005d2:	bf08      	it	eq
 80005d4:	2377      	moveq	r3, #119	@ 0x77
 80005d6:	4618      	mov	r0, r3
 80005d8:	4770      	bx	lr
 80005da:	2376      	movs	r3, #118	@ 0x76
 80005dc:	e7fb      	b.n	80005d6 <getBME280Config+0xa>
	...

080005e0 <init_bme280>:
 80005e0:	b5f7      	push	{r0, r1, r2, r4, r5, r6, r7, lr}
 80005e2:	4604      	mov	r4, r0
 80005e4:	4608      	mov	r0, r1
 80005e6:	f7ff fff1 	bl	80005cc <getBME280Config>
 80005ea:	4f16      	ldr	r7, [pc, #88]	@ (8000644 <init_bme280+0x64>)
 80005ec:	4a16      	ldr	r2, [pc, #88]	@ (8000648 <init_bme280+0x68>)
 80005ee:	b2c5      	uxtb	r5, r0
 80005f0:	2600      	movs	r6, #0
 80005f2:	4629      	mov	r1, r5
 80005f4:	23b6      	movs	r3, #182	@ 0xb6
 80005f6:	4620      	mov	r0, r4
 80005f8:	f88d 6007 	strb.w	r6, [sp, #7]
 80005fc:	f000 fa01 	bl	8000a02 <i2c_write_reg>
 8000600:	463b      	mov	r3, r7
 8000602:	462a      	mov	r2, r5
 8000604:	f10d 0107 	add.w	r1, sp, #7
 8000608:	4620      	mov	r0, r4
 800060a:	f000 f9c8 	bl	800099e <i2c_read_reg>
 800060e:	f89d 3007 	ldrb.w	r3, [sp, #7]
 8000612:	f023 0307 	bic.w	r3, r3, #7
 8000616:	f043 0301 	orr.w	r3, r3, #1
 800061a:	463a      	mov	r2, r7
 800061c:	4629      	mov	r1, r5
 800061e:	4620      	mov	r0, r4
 8000620:	f88d 3007 	strb.w	r3, [sp, #7]
 8000624:	f000 f9ed 	bl	8000a02 <i2c_write_reg>
 8000628:	4629      	mov	r1, r5
 800062a:	4a08      	ldr	r2, [pc, #32]	@ (800064c <init_bme280+0x6c>)
 800062c:	2327      	movs	r3, #39	@ 0x27
 800062e:	4620      	mov	r0, r4
 8000630:	f000 f9e7 	bl	8000a02 <i2c_write_reg>
 8000634:	4a06      	ldr	r2, [pc, #24]	@ (8000650 <init_bme280+0x70>)
 8000636:	4633      	mov	r3, r6
 8000638:	4629      	mov	r1, r5
 800063a:	4620      	mov	r0, r4
 800063c:	f000 f9e1 	bl	8000a02 <i2c_write_reg>
 8000640:	b003      	add	sp, #12
 8000642:	bdf0      	pop	{r4, r5, r6, r7, pc}
 8000644:	2000000d 	.word	0x2000000d
 8000648:	2000000e 	.word	0x2000000e
 800064c:	2000000c 	.word	0x2000000c
 8000650:	2000000b 	.word	0x2000000b

08000654 <readBME280_id_reg>:
 8000654:	b513      	push	{r0, r1, r4, lr}
 8000656:	4604      	mov	r4, r0
 8000658:	4608      	mov	r0, r1
 800065a:	f7ff ffb7 	bl	80005cc <getBME280Config>
 800065e:	2300      	movs	r3, #0
 8000660:	f88d 3007 	strb.w	r3, [sp, #7]
 8000664:	b2c2      	uxtb	r2, r0
 8000666:	4b05      	ldr	r3, [pc, #20]	@ (800067c <readBME280_id_reg+0x28>)
 8000668:	f10d 0107 	add.w	r1, sp, #7
 800066c:	4620      	mov	r0, r4
 800066e:	f000 f996 	bl	800099e <i2c_read_reg>
 8000672:	f89d 0007 	ldrb.w	r0, [sp, #7]
 8000676:	b002      	add	sp, #8
 8000678:	bd10      	pop	{r4, pc}
 800067a:	bf00      	nop
 800067c:	2000000f 	.word	0x2000000f

08000680 <readBME280_calib>:
 8000680:	b573      	push	{r0, r1, r4, r5, r6, lr}
 8000682:	4604      	mov	r4, r0
 8000684:	4608      	mov	r0, r1
 8000686:	461e      	mov	r6, r3
 8000688:	f7ff ffa0 	bl	80005cc <getBME280Config>
 800068c:	9200      	str	r2, [sp, #0]
 800068e:	4a09      	ldr	r2, [pc, #36]	@ (80006b4 <readBME280_calib+0x34>)
 8000690:	b2c5      	uxtb	r5, r0
 8000692:	4629      	mov	r1, r5
 8000694:	7812      	ldrb	r2, [r2, #0]
 8000696:	2319      	movs	r3, #25
 8000698:	4620      	mov	r0, r4
 800069a:	f000 f997 	bl	80009cc <i2c_burst_read>
 800069e:	4a06      	ldr	r2, [pc, #24]	@ (80006b8 <readBME280_calib+0x38>)
 80006a0:	9600      	str	r6, [sp, #0]
 80006a2:	7812      	ldrb	r2, [r2, #0]
 80006a4:	2307      	movs	r3, #7
 80006a6:	4629      	mov	r1, r5
 80006a8:	4620      	mov	r0, r4
 80006aa:	f000 f98f 	bl	80009cc <i2c_burst_read>
 80006ae:	b002      	add	sp, #8
 80006b0:	bd70      	pop	{r4, r5, r6, pc}
 80006b2:	bf00      	nop
 80006b4:	20000009 	.word	0x20000009
 80006b8:	20000008 	.word	0x20000008

080006bc <readTempHumPres>:
 80006bc:	b57f      	push	{r0, r1, r2, r3, r4, r5, r6, lr}
 80006be:	460d      	mov	r5, r1
 80006c0:	4917      	ldr	r1, [pc, #92]	@ (8000720 <readTempHumPres+0x64>)
 80006c2:	4604      	mov	r4, r0
 80006c4:	6808      	ldr	r0, [r1, #0]
 80006c6:	6849      	ldr	r1, [r1, #4]
 80006c8:	ab02      	add	r3, sp, #8
 80006ca:	c303      	stmia	r3!, {r0, r1}
 80006cc:	4610      	mov	r0, r2
 80006ce:	f7ff ff7d 	bl	80005cc <getBME280Config>
 80006d2:	4a14      	ldr	r2, [pc, #80]	@ (8000724 <readTempHumPres+0x68>)
 80006d4:	ae02      	add	r6, sp, #8
 80006d6:	9600      	str	r6, [sp, #0]
 80006d8:	b2c1      	uxtb	r1, r0
 80006da:	7812      	ldrb	r2, [r2, #0]
 80006dc:	2308      	movs	r3, #8
 80006de:	4628      	mov	r0, r5
 80006e0:	f000 f974 	bl	80009cc <i2c_burst_read>
 80006e4:	2300      	movs	r3, #0
 80006e6:	461a      	mov	r2, r3
 80006e8:	2124      	movs	r1, #36	@ 0x24
 80006ea:	fa21 f003 	lsr.w	r0, r1, r3
 80006ee:	07c0      	lsls	r0, r0, #31
 80006f0:	bf5c      	itt	pl
 80006f2:	5cf0      	ldrbpl	r0, [r6, r3]
 80006f4:	54a0      	strbpl	r0, [r4, r2]
 80006f6:	f103 0301 	add.w	r3, r3, #1
 80006fa:	bf5c      	itt	pl
 80006fc:	3201      	addpl	r2, #1
 80006fe:	b2d2      	uxtbpl	r2, r2
 8000700:	2b08      	cmp	r3, #8
 8000702:	d1f2      	bne.n	80006ea <readTempHumPres+0x2e>
 8000704:	7823      	ldrb	r3, [r4, #0]
 8000706:	7862      	ldrb	r2, [r4, #1]
 8000708:	7022      	strb	r2, [r4, #0]
 800070a:	7063      	strb	r3, [r4, #1]
 800070c:	78e2      	ldrb	r2, [r4, #3]
 800070e:	78a3      	ldrb	r3, [r4, #2]
 8000710:	70e3      	strb	r3, [r4, #3]
 8000712:	70a2      	strb	r2, [r4, #2]
 8000714:	7923      	ldrb	r3, [r4, #4]
 8000716:	7962      	ldrb	r2, [r4, #5]
 8000718:	7122      	strb	r2, [r4, #4]
 800071a:	7163      	strb	r3, [r4, #5]
 800071c:	b004      	add	sp, #16
 800071e:	bd70      	pop	{r4, r5, r6, pc}
 8000720:	080054f8 	.word	0x080054f8
 8000724:	2000000a 	.word	0x2000000a

08000728 <sendCAN_TxMessage>:
 8000728:	b510      	push	{r4, lr}
 800072a:	b086      	sub	sp, #24
 800072c:	f8bd 4020 	ldrh.w	r4, [sp, #32]
 8000730:	9400      	str	r4, [sp, #0]
 8000732:	9104      	str	r1, [sp, #16]
 8000734:	2400      	movs	r4, #0
 8000736:	4669      	mov	r1, sp
 8000738:	e9cd 4402 	strd	r4, r4, [sp, #8]
 800073c:	f88d 4014 	strb.w	r4, [sp, #20]
 8000740:	f001 fecb 	bl	80024da <HAL_CAN_AddTxMessage>
 8000744:	b006      	add	sp, #24
 8000746:	bd10      	pop	{r4, pc}

08000748 <check_status_register>:
 8000748:	b57f      	push	{r0, r1, r2, r3, r4, r5, r6, lr}
 800074a:	ab02      	add	r3, sp, #8
 800074c:	e883 0006 	stmia.w	r3, {r1, r2}
 8000750:	2300      	movs	r3, #0
 8000752:	f88d 3017 	strb.w	r3, [sp, #23]
 8000756:	f8bd 300c 	ldrh.w	r3, [sp, #12]
 800075a:	9300      	str	r3, [sp, #0]
 800075c:	f10d 0217 	add.w	r2, sp, #23
 8000760:	460b      	mov	r3, r1
 8000762:	4601      	mov	r1, r0
 8000764:	4803      	ldr	r0, [pc, #12]	@ (8000774 <check_status_register+0x2c>)
 8000766:	f001 f961 	bl	8001a2c <spi_sendOp_readByte>
 800076a:	f89d 0017 	ldrb.w	r0, [sp, #23]
 800076e:	b007      	add	sp, #28
 8000770:	f85d fb04 	ldr.w	pc, [sp], #4
 8000774:	20000015 	.word	0x20000015

08000778 <check_busy>:
 8000778:	e92d 41f3 	stmdb	sp!, {r0, r1, r4, r5, r6, r7, r8, lr}
 800077c:	466d      	mov	r5, sp
 800077e:	e885 0006 	stmia.w	r5, {r1, r2}
 8000782:	4607      	mov	r7, r0
 8000784:	4698      	mov	r8, r3
 8000786:	f001 fd61 	bl	800224c <HAL_GetTick>
 800078a:	4606      	mov	r6, r0
 800078c:	e895 0006 	ldmia.w	r5, {r1, r2}
 8000790:	4638      	mov	r0, r7
 8000792:	f7ff ffd9 	bl	8000748 <check_status_register>
 8000796:	f000 0401 	and.w	r4, r0, #1
 800079a:	f001 fd57 	bl	800224c <HAL_GetTick>
 800079e:	1b80      	subs	r0, r0, r6
 80007a0:	4540      	cmp	r0, r8
 80007a2:	d205      	bcs.n	80007b0 <check_busy+0x38>
 80007a4:	2c00      	cmp	r4, #0
 80007a6:	d1f1      	bne.n	800078c <check_busy+0x14>
 80007a8:	4620      	mov	r0, r4
 80007aa:	b002      	add	sp, #8
 80007ac:	e8bd 81f0 	ldmia.w	sp!, {r4, r5, r6, r7, r8, pc}
 80007b0:	2401      	movs	r4, #1
 80007b2:	e7f9      	b.n	80007a8 <check_busy+0x30>

080007b4 <write_enable_spi>:
 80007b4:	b082      	sub	sp, #8
 80007b6:	ab02      	add	r3, sp, #8
 80007b8:	e903 0006 	stmdb	r3, {r1, r2}
 80007bc:	460a      	mov	r2, r1
 80007be:	f8bd 3004 	ldrh.w	r3, [sp, #4]
 80007c2:	4601      	mov	r1, r0
 80007c4:	4801      	ldr	r0, [pc, #4]	@ (80007cc <write_enable_spi+0x18>)
 80007c6:	b002      	add	sp, #8
 80007c8:	f001 b952 	b.w	8001a70 <perform_operation>
 80007cc:	20000017 	.word	0x20000017

080007d0 <erase_chip_spi>:
 80007d0:	b537      	push	{r0, r1, r2, r4, r5, lr}
 80007d2:	466c      	mov	r4, sp
 80007d4:	e884 0006 	stmia.w	r4, {r1, r2}
 80007d8:	4605      	mov	r5, r0
 80007da:	e894 0006 	ldmia.w	r4, {r1, r2}
 80007de:	2305      	movs	r3, #5
 80007e0:	f7ff ffca 	bl	8000778 <check_busy>
 80007e4:	e894 0006 	ldmia.w	r4, {r1, r2}
 80007e8:	4628      	mov	r0, r5
 80007ea:	f7ff ffe3 	bl	80007b4 <write_enable_spi>
 80007ee:	f8bd 3004 	ldrh.w	r3, [sp, #4]
 80007f2:	9a00      	ldr	r2, [sp, #0]
 80007f4:	4806      	ldr	r0, [pc, #24]	@ (8000810 <erase_chip_spi+0x40>)
 80007f6:	4629      	mov	r1, r5
 80007f8:	f001 f93a 	bl	8001a70 <perform_operation>
 80007fc:	e894 0006 	ldmia.w	r4, {r1, r2}
 8000800:	4b04      	ldr	r3, [pc, #16]	@ (8000814 <erase_chip_spi+0x44>)
 8000802:	4628      	mov	r0, r5
 8000804:	f7ff ffb8 	bl	8000778 <check_busy>
 8000808:	2000      	movs	r0, #0
 800080a:	b003      	add	sp, #12
 800080c:	bd30      	pop	{r4, r5, pc}
 800080e:	bf00      	nop
 8000810:	20000012 	.word	0x20000012
 8000814:	00030d40 	.word	0x00030d40

08000818 <software_reset>:
 8000818:	b5f7      	push	{r0, r1, r2, r4, r5, r6, r7, lr}
 800081a:	466d      	mov	r5, sp
 800081c:	e885 0006 	stmia.w	r5, {r1, r2}
 8000820:	f8bd 7004 	ldrh.w	r7, [sp, #4]
 8000824:	4604      	mov	r4, r0
 8000826:	460e      	mov	r6, r1
 8000828:	2305      	movs	r3, #5
 800082a:	e895 0006 	ldmia.w	r5, {r1, r2}
 800082e:	f7ff ffa3 	bl	8000778 <check_busy>
 8000832:	463b      	mov	r3, r7
 8000834:	4632      	mov	r2, r6
 8000836:	4621      	mov	r1, r4
 8000838:	4807      	ldr	r0, [pc, #28]	@ (8000858 <software_reset+0x40>)
 800083a:	f001 f919 	bl	8001a70 <perform_operation>
 800083e:	463b      	mov	r3, r7
 8000840:	4632      	mov	r2, r6
 8000842:	4621      	mov	r1, r4
 8000844:	4805      	ldr	r0, [pc, #20]	@ (800085c <software_reset+0x44>)
 8000846:	f001 f913 	bl	8001a70 <perform_operation>
 800084a:	2005      	movs	r0, #5
 800084c:	b003      	add	sp, #12
 800084e:	e8bd 40f0 	ldmia.w	sp!, {r4, r5, r6, r7, lr}
 8000852:	f001 bd01 	b.w	8002258 <HAL_Delay>
 8000856:	bf00      	nop
 8000858:	20000011 	.word	0x20000011
 800085c:	20000010 	.word	0x20000010

08000860 <write_data_spi_dma>:
 8000860:	b082      	sub	sp, #8
 8000862:	b5f0      	push	{r4, r5, r6, r7, lr}
 8000864:	b085      	sub	sp, #20
 8000866:	ac0a      	add	r4, sp, #40	@ 0x28
 8000868:	460d      	mov	r5, r1
 800086a:	f844 3f04 	str.w	r3, [r4, #4]!
 800086e:	4606      	mov	r6, r0
 8000870:	4617      	mov	r7, r2
 8000872:	2305      	movs	r3, #5
 8000874:	e894 0006 	ldmia.w	r4, {r1, r2}
 8000878:	4628      	mov	r0, r5
 800087a:	f7ff ff7d 	bl	8000778 <check_busy>
 800087e:	e894 0006 	ldmia.w	r4, {r1, r2}
 8000882:	4628      	mov	r0, r5
 8000884:	f7ff ff96 	bl	80007b4 <write_enable_spi>
 8000888:	f8bd 3030 	ldrh.w	r3, [sp, #48]	@ 0x30
 800088c:	9302      	str	r3, [sp, #8]
 800088e:	9b0b      	ldr	r3, [sp, #44]	@ 0x2c
 8000890:	4807      	ldr	r0, [pc, #28]	@ (80008b0 <write_data_spi_dma+0x50>)
 8000892:	e9cd 7300 	strd	r7, r3, [sp]
 8000896:	4632      	mov	r2, r6
 8000898:	462b      	mov	r3, r5
 800089a:	f44f 7180 	mov.w	r1, #256	@ 0x100
 800089e:	f001 f941 	bl	8001b24 <spi_write_data_dma>
 80008a2:	2000      	movs	r0, #0
 80008a4:	b005      	add	sp, #20
 80008a6:	e8bd 40f0 	ldmia.w	sp!, {r4, r5, r6, r7, lr}
 80008aa:	b002      	add	sp, #8
 80008ac:	4770      	bx	lr
 80008ae:	bf00      	nop
 80008b0:	20000016 	.word	0x20000016

080008b4 <find_next_blank_page>:
 80008b4:	e92d 41f0 	stmdb	sp!, {r4, r5, r6, r7, r8, lr}
 80008b8:	b088      	sub	sp, #32
 80008ba:	af04      	add	r7, sp, #16
 80008bc:	e887 000c 	stmia.w	r7, {r2, r3}
 80008c0:	2400      	movs	r4, #0
 80008c2:	f8df 8050 	ldr.w	r8, [pc, #80]	@ 8000914 <find_next_blank_page+0x60>
 80008c6:	9407      	str	r4, [sp, #28]
 80008c8:	4606      	mov	r6, r0
 80008ca:	460d      	mov	r5, r1
 80008cc:	e897 0006 	ldmia.w	r7, {r1, r2}
 80008d0:	2305      	movs	r3, #5
 80008d2:	4630      	mov	r0, r6
 80008d4:	f7ff ff50 	bl	8000778 <check_busy>
 80008d8:	f8bd 3014 	ldrh.w	r3, [sp, #20]
 80008dc:	9302      	str	r3, [sp, #8]
 80008de:	9b04      	ldr	r3, [sp, #16]
 80008e0:	aa07      	add	r2, sp, #28
 80008e2:	e9cd 4300 	strd	r4, r3, [sp]
 80008e6:	2104      	movs	r1, #4
 80008e8:	4633      	mov	r3, r6
 80008ea:	4640      	mov	r0, r8
 80008ec:	f001 f8d8 	bl	8001aa0 <spi_read_data>
 80008f0:	9b07      	ldr	r3, [sp, #28]
 80008f2:	3301      	adds	r3, #1
 80008f4:	4620      	mov	r0, r4
 80008f6:	f504 7480 	add.w	r4, r4, #256	@ 0x100
 80008fa:	d1e7      	bne.n	80008cc <find_next_blank_page+0x18>
 80008fc:	4b04      	ldr	r3, [pc, #16]	@ (8000910 <find_next_blank_page+0x5c>)
 80008fe:	4298      	cmp	r0, r3
 8000900:	d103      	bne.n	800090a <find_next_blank_page+0x56>
 8000902:	782b      	ldrb	r3, [r5, #0]
 8000904:	b90b      	cbnz	r3, 800090a <find_next_blank_page+0x56>
 8000906:	2301      	movs	r3, #1
 8000908:	702b      	strb	r3, [r5, #0]
 800090a:	b008      	add	sp, #32
 800090c:	e8bd 81f0 	ldmia.w	sp!, {r4, r5, r6, r7, r8, pc}
 8000910:	00ffff00 	.word	0x00ffff00
 8000914:	20000014 	.word	0x20000014

08000918 <read_page_spi>:
 8000918:	b082      	sub	sp, #8
 800091a:	b57f      	push	{r0, r1, r2, r3, r4, r5, r6, lr}
 800091c:	460c      	mov	r4, r1
 800091e:	a908      	add	r1, sp, #32
 8000920:	4605      	mov	r5, r0
 8000922:	f841 3f04 	str.w	r3, [r1, #4]!
 8000926:	4616      	mov	r6, r2
 8000928:	2305      	movs	r3, #5
 800092a:	c906      	ldmia	r1, {r1, r2}
 800092c:	4620      	mov	r0, r4
 800092e:	f7ff ff23 	bl	8000778 <check_busy>
 8000932:	f8bd 3028 	ldrh.w	r3, [sp, #40]	@ 0x28
 8000936:	9302      	str	r3, [sp, #8]
 8000938:	9b09      	ldr	r3, [sp, #36]	@ 0x24
 800093a:	4807      	ldr	r0, [pc, #28]	@ (8000958 <read_page_spi+0x40>)
 800093c:	e9cd 6300 	strd	r6, r3, [sp]
 8000940:	462a      	mov	r2, r5
 8000942:	4623      	mov	r3, r4
 8000944:	f44f 7180 	mov.w	r1, #256	@ 0x100
 8000948:	f001 f8aa 	bl	8001aa0 <spi_read_data>
 800094c:	b004      	add	sp, #16
 800094e:	e8bd 4070 	ldmia.w	sp!, {r4, r5, r6, lr}
 8000952:	b002      	add	sp, #8
 8000954:	4770      	bx	lr
 8000956:	bf00      	nop
 8000958:	20000014 	.word	0x20000014

0800095c <read_manufacturer_id>:
 800095c:	b530      	push	{r4, r5, lr}
 800095e:	b087      	sub	sp, #28
 8000960:	460c      	mov	r4, r1
 8000962:	a904      	add	r1, sp, #16
 8000964:	e881 000c 	stmia.w	r1, {r2, r3}
 8000968:	4605      	mov	r5, r0
 800096a:	c906      	ldmia	r1, {r1, r2}
 800096c:	2305      	movs	r3, #5
 800096e:	4620      	mov	r0, r4
 8000970:	f7ff ff02 	bl	8000778 <check_busy>
 8000974:	f8bd 3014 	ldrh.w	r3, [sp, #20]
 8000978:	9302      	str	r3, [sp, #8]
 800097a:	9b04      	ldr	r3, [sp, #16]
 800097c:	9301      	str	r3, [sp, #4]
 800097e:	2300      	movs	r3, #0
 8000980:	9300      	str	r3, [sp, #0]
 8000982:	462a      	mov	r2, r5
 8000984:	4623      	mov	r3, r4
 8000986:	2102      	movs	r1, #2
 8000988:	4802      	ldr	r0, [pc, #8]	@ (8000994 <read_manufacturer_id+0x38>)
 800098a:	f001 f889 	bl	8001aa0 <spi_read_data>
 800098e:	b007      	add	sp, #28
 8000990:	bd30      	pop	{r4, r5, pc}
 8000992:	bf00      	nop
 8000994:	20000013 	.word	0x20000013

08000998 <create_GPIO_Config>:
 8000998:	6001      	str	r1, [r0, #0]
 800099a:	8082      	strh	r2, [r0, #4]
 800099c:	4770      	bx	lr

0800099e <i2c_read_reg>:
 800099e:	b5f7      	push	{r0, r1, r2, r4, r5, r6, r7, lr}
 80009a0:	4614      	mov	r4, r2
 80009a2:	2501      	movs	r5, #1
 80009a4:	0064      	lsls	r4, r4, #1
 80009a6:	4606      	mov	r6, r0
 80009a8:	460f      	mov	r7, r1
 80009aa:	461a      	mov	r2, r3
 80009ac:	f004 01fe 	and.w	r1, r4, #254	@ 0xfe
 80009b0:	462b      	mov	r3, r5
 80009b2:	9500      	str	r5, [sp, #0]
 80009b4:	f002 fc8c 	bl	80032d0 <HAL_I2C_Master_Transmit>
 80009b8:	9500      	str	r5, [sp, #0]
 80009ba:	462b      	mov	r3, r5
 80009bc:	463a      	mov	r2, r7
 80009be:	ea44 0105 	orr.w	r1, r4, r5
 80009c2:	4630      	mov	r0, r6
 80009c4:	f002 fd5e 	bl	8003484 <HAL_I2C_Master_Receive>
 80009c8:	b003      	add	sp, #12
 80009ca:	bdf0      	pop	{r4, r5, r6, r7, pc}

080009cc <i2c_burst_read>:
 80009cc:	b57f      	push	{r0, r1, r2, r3, r4, r5, r6, lr}
 80009ce:	461e      	mov	r6, r3
 80009d0:	004c      	lsls	r4, r1, #1
 80009d2:	2301      	movs	r3, #1
 80009d4:	f062 027f 	orn	r2, r2, #127	@ 0x7f
 80009d8:	f88d 200f 	strb.w	r2, [sp, #15]
 80009dc:	9300      	str	r3, [sp, #0]
 80009de:	f10d 020f 	add.w	r2, sp, #15
 80009e2:	f004 01fe 	and.w	r1, r4, #254	@ 0xfe
 80009e6:	4605      	mov	r5, r0
 80009e8:	f002 fc72 	bl	80032d0 <HAL_I2C_Master_Transmit>
 80009ec:	230a      	movs	r3, #10
 80009ee:	9300      	str	r3, [sp, #0]
 80009f0:	9a08      	ldr	r2, [sp, #32]
 80009f2:	4633      	mov	r3, r6
 80009f4:	f044 0101 	orr.w	r1, r4, #1
 80009f8:	4628      	mov	r0, r5
 80009fa:	f002 fd43 	bl	8003484 <HAL_I2C_Master_Receive>
 80009fe:	b004      	add	sp, #16
 8000a00:	bd70      	pop	{r4, r5, r6, pc}

08000a02 <i2c_write_reg>:
 8000a02:	b51f      	push	{r0, r1, r2, r3, r4, lr}
 8000a04:	0049      	lsls	r1, r1, #1
 8000a06:	7812      	ldrb	r2, [r2, #0]
 8000a08:	f88d 300d 	strb.w	r3, [sp, #13]
 8000a0c:	2301      	movs	r3, #1
 8000a0e:	f88d 200c 	strb.w	r2, [sp, #12]
 8000a12:	9300      	str	r3, [sp, #0]
 8000a14:	aa03      	add	r2, sp, #12
 8000a16:	2302      	movs	r3, #2
 8000a18:	f001 01fe 	and.w	r1, r1, #254	@ 0xfe
 8000a1c:	f002 fc58 	bl	80032d0 <HAL_I2C_Master_Transmit>
 8000a20:	b005      	add	sp, #20
 8000a22:	f85d fb04 	ldr.w	pc, [sp], #4
	...

08000a28 <SystemClock_Config>:
 8000a28:	b530      	push	{r4, r5, lr}
 8000a2a:	2400      	movs	r4, #0
 8000a2c:	b095      	sub	sp, #84	@ 0x54
 8000a2e:	2214      	movs	r2, #20
 8000a30:	4621      	mov	r1, r4
 8000a32:	a803      	add	r0, sp, #12
 8000a34:	e9cd 4409 	strd	r4, r4, [sp, #36]	@ 0x24
 8000a38:	f004 fd26 	bl	8005488 <memset>
 8000a3c:	4b1f      	ldr	r3, [pc, #124]	@ (8000abc <SystemClock_Config+0x94>)
 8000a3e:	9401      	str	r4, [sp, #4]
 8000a40:	6c1a      	ldr	r2, [r3, #64]	@ 0x40
 8000a42:	f042 5280 	orr.w	r2, r2, #268435456	@ 0x10000000
 8000a46:	641a      	str	r2, [r3, #64]	@ 0x40
 8000a48:	6c1b      	ldr	r3, [r3, #64]	@ 0x40
 8000a4a:	f003 5380 	and.w	r3, r3, #268435456	@ 0x10000000
 8000a4e:	9301      	str	r3, [sp, #4]
 8000a50:	9b01      	ldr	r3, [sp, #4]
 8000a52:	4b1b      	ldr	r3, [pc, #108]	@ (8000ac0 <SystemClock_Config+0x98>)
 8000a54:	9402      	str	r4, [sp, #8]
 8000a56:	681a      	ldr	r2, [r3, #0]
 8000a58:	f442 4240 	orr.w	r2, r2, #49152	@ 0xc000
 8000a5c:	601a      	str	r2, [r3, #0]
 8000a5e:	681b      	ldr	r3, [r3, #0]
 8000a60:	f403 4340 	and.w	r3, r3, #49152	@ 0xc000
 8000a64:	9302      	str	r3, [sp, #8]
 8000a66:	9b02      	ldr	r3, [sp, #8]
 8000a68:	230a      	movs	r3, #10
 8000a6a:	2201      	movs	r2, #1
 8000a6c:	9308      	str	r3, [sp, #32]
 8000a6e:	2310      	movs	r3, #16
 8000a70:	2502      	movs	r5, #2
 8000a72:	e9cd 230b 	strd	r2, r3, [sp, #44]	@ 0x2c
 8000a76:	9310      	str	r3, [sp, #64]	@ 0x40
 8000a78:	f44f 73a8 	mov.w	r3, #336	@ 0x150
 8000a7c:	e9cd 3511 	strd	r3, r5, [sp, #68]	@ 0x44
 8000a80:	a808      	add	r0, sp, #32
 8000a82:	2304      	movs	r3, #4
 8000a84:	e9cd 540e 	strd	r5, r4, [sp, #56]	@ 0x38
 8000a88:	920d      	str	r2, [sp, #52]	@ 0x34
 8000a8a:	9313      	str	r3, [sp, #76]	@ 0x4c
 8000a8c:	f002 fece 	bl	800382c <HAL_RCC_OscConfig>
 8000a90:	b108      	cbz	r0, 8000a96 <SystemClock_Config+0x6e>
 8000a92:	b672      	cpsid	i
 8000a94:	e7fe      	b.n	8000a94 <SystemClock_Config+0x6c>
 8000a96:	230f      	movs	r3, #15
 8000a98:	e9cd 3503 	strd	r3, r5, [sp, #12]
 8000a9c:	9005      	str	r0, [sp, #20]
 8000a9e:	f44f 52a0 	mov.w	r2, #5120	@ 0x1400
 8000aa2:	f44f 5380 	mov.w	r3, #4096	@ 0x1000
 8000aa6:	2105      	movs	r1, #5
 8000aa8:	a803      	add	r0, sp, #12
 8000aaa:	e9cd 2306 	strd	r2, r3, [sp, #24]
 8000aae:	f003 f899 	bl	8003be4 <HAL_RCC_ClockConfig>
 8000ab2:	b108      	cbz	r0, 8000ab8 <SystemClock_Config+0x90>
 8000ab4:	b672      	cpsid	i
 8000ab6:	e7fe      	b.n	8000ab6 <SystemClock_Config+0x8e>
 8000ab8:	b015      	add	sp, #84	@ 0x54
 8000aba:	bd30      	pop	{r4, r5, pc}
 8000abc:	40023800 	.word	0x40023800
 8000ac0:	40007000 	.word	0x40007000

08000ac4 <clean_data_buffer>:
 8000ac4:	4602      	mov	r2, r0
 8000ac6:	4608      	mov	r0, r1
 8000ac8:	21ff      	movs	r1, #255	@ 0xff
 8000aca:	f004 bcdd 	b.w	8005488 <memset>
	...

08000ad0 <gpio_set_config>:
 8000ad0:	b5f7      	push	{r0, r1, r2, r4, r5, r6, r7, lr}
 8000ad2:	4d2c      	ldr	r5, [pc, #176]	@ (8000b84 <gpio_set_config+0xb4>)
 8000ad4:	4e2c      	ldr	r6, [pc, #176]	@ (8000b88 <gpio_set_config+0xb8>)
 8000ad6:	4f2d      	ldr	r7, [pc, #180]	@ (8000b8c <gpio_set_config+0xbc>)
 8000ad8:	466c      	mov	r4, sp
 8000ada:	4629      	mov	r1, r5
 8000adc:	4620      	mov	r0, r4
 8000ade:	f44f 4280 	mov.w	r2, #16384	@ 0x4000
 8000ae2:	f7ff ff59 	bl	8000998 <create_GPIO_Config>
 8000ae6:	e894 0003 	ldmia.w	r4, {r0, r1}
 8000aea:	f44f 5200 	mov.w	r2, #8192	@ 0x2000
 8000aee:	e886 0003 	stmia.w	r6, {r0, r1}
 8000af2:	4629      	mov	r1, r5
 8000af4:	4620      	mov	r0, r4
 8000af6:	f7ff ff4f 	bl	8000998 <create_GPIO_Config>
 8000afa:	e894 0003 	ldmia.w	r4, {r0, r1}
 8000afe:	4e24      	ldr	r6, [pc, #144]	@ (8000b90 <gpio_set_config+0xc0>)
 8000b00:	f44f 5280 	mov.w	r2, #4096	@ 0x1000
 8000b04:	e886 0003 	stmia.w	r6, {r0, r1}
 8000b08:	4629      	mov	r1, r5
 8000b0a:	4620      	mov	r0, r4
 8000b0c:	f7ff ff44 	bl	8000998 <create_GPIO_Config>
 8000b10:	e894 0003 	ldmia.w	r4, {r0, r1}
 8000b14:	4e1f      	ldr	r6, [pc, #124]	@ (8000b94 <gpio_set_config+0xc4>)
 8000b16:	e886 0003 	stmia.w	r6, {r0, r1}
 8000b1a:	4e1f      	ldr	r6, [pc, #124]	@ (8000b98 <gpio_set_config+0xc8>)
 8000b1c:	4620      	mov	r0, r4
 8000b1e:	4631      	mov	r1, r6
 8000b20:	2210      	movs	r2, #16
 8000b22:	f7ff ff39 	bl	8000998 <create_GPIO_Config>
 8000b26:	e894 0003 	ldmia.w	r4, {r0, r1}
 8000b2a:	2210      	movs	r2, #16
 8000b2c:	e887 0003 	stmia.w	r7, {r0, r1}
 8000b30:	4620      	mov	r0, r4
 8000b32:	491a      	ldr	r1, [pc, #104]	@ (8000b9c <gpio_set_config+0xcc>)
 8000b34:	4f1a      	ldr	r7, [pc, #104]	@ (8000ba0 <gpio_set_config+0xd0>)
 8000b36:	f7ff ff2f 	bl	8000998 <create_GPIO_Config>
 8000b3a:	e894 0003 	ldmia.w	r4, {r0, r1}
 8000b3e:	2202      	movs	r2, #2
 8000b40:	e887 0003 	stmia.w	r7, {r0, r1}
 8000b44:	4631      	mov	r1, r6
 8000b46:	4620      	mov	r0, r4
 8000b48:	f7ff ff26 	bl	8000998 <create_GPIO_Config>
 8000b4c:	e894 0003 	ldmia.w	r4, {r0, r1}
 8000b50:	4f14      	ldr	r7, [pc, #80]	@ (8000ba4 <gpio_set_config+0xd4>)
 8000b52:	2201      	movs	r2, #1
 8000b54:	e887 0003 	stmia.w	r7, {r0, r1}
 8000b58:	4631      	mov	r1, r6
 8000b5a:	4620      	mov	r0, r4
 8000b5c:	f7ff ff1c 	bl	8000998 <create_GPIO_Config>
 8000b60:	e894 0003 	ldmia.w	r4, {r0, r1}
 8000b64:	4f10      	ldr	r7, [pc, #64]	@ (8000ba8 <gpio_set_config+0xd8>)
 8000b66:	4e11      	ldr	r6, [pc, #68]	@ (8000bac <gpio_set_config+0xdc>)
 8000b68:	e887 0003 	stmia.w	r7, {r0, r1}
 8000b6c:	2202      	movs	r2, #2
 8000b6e:	4629      	mov	r1, r5
 8000b70:	4620      	mov	r0, r4
 8000b72:	f7ff ff11 	bl	8000998 <create_GPIO_Config>
 8000b76:	e894 0003 	ldmia.w	r4, {r0, r1}
 8000b7a:	e886 0003 	stmia.w	r6, {r0, r1}
 8000b7e:	b003      	add	sp, #12
 8000b80:	bdf0      	pop	{r4, r5, r6, r7, pc}
 8000b82:	bf00      	nop
 8000b84:	40020400 	.word	0x40020400
 8000b88:	20000080 	.word	0x20000080
 8000b8c:	20000068 	.word	0x20000068
 8000b90:	20000078 	.word	0x20000078
 8000b94:	20000070 	.word	0x20000070
 8000b98:	40020800 	.word	0x40020800
 8000b9c:	40020000 	.word	0x40020000
 8000ba0:	20000060 	.word	0x20000060
 8000ba4:	20000058 	.word	0x20000058
 8000ba8:	20000050 	.word	0x20000050
 8000bac:	20000048 	.word	0x20000048

08000bb0 <handleCAN>:
 8000bb0:	b51f      	push	{r0, r1, r2, r3, r4, lr}
 8000bb2:	4b1c      	ldr	r3, [pc, #112]	@ (8000c24 <handleCAN+0x74>)
 8000bb4:	681b      	ldr	r3, [r3, #0]
 8000bb6:	f240 72ff 	movw	r2, #2047	@ 0x7ff
 8000bba:	4293      	cmp	r3, r2
 8000bbc:	d10e      	bne.n	8000bdc <handleCAN+0x2c>
 8000bbe:	4a1a      	ldr	r2, [pc, #104]	@ (8000c28 <handleCAN+0x78>)
 8000bc0:	2101      	movs	r1, #1
 8000bc2:	7011      	strb	r1, [r2, #0]
 8000bc4:	2200      	movs	r2, #0
 8000bc6:	9300      	str	r3, [sp, #0]
 8000bc8:	4b18      	ldr	r3, [pc, #96]	@ (8000c2c <handleCAN+0x7c>)
 8000bca:	f88d 200c 	strb.w	r2, [sp, #12]
 8000bce:	aa03      	add	r2, sp, #12
 8000bd0:	4817      	ldr	r0, [pc, #92]	@ (8000c30 <handleCAN+0x80>)
 8000bd2:	f7ff fda9 	bl	8000728 <sendCAN_TxMessage>
 8000bd6:	b005      	add	sp, #20
 8000bd8:	f85d fb04 	ldr.w	pc, [sp], #4
 8000bdc:	f240 5201 	movw	r2, #1281	@ 0x501
 8000be0:	4293      	cmp	r3, r2
 8000be2:	d104      	bne.n	8000bee <handleCAN+0x3e>
 8000be4:	9300      	str	r3, [sp, #0]
 8000be6:	4a13      	ldr	r2, [pc, #76]	@ (8000c34 <handleCAN+0x84>)
 8000be8:	4b10      	ldr	r3, [pc, #64]	@ (8000c2c <handleCAN+0x7c>)
 8000bea:	2106      	movs	r1, #6
 8000bec:	e7f0      	b.n	8000bd0 <handleCAN+0x20>
 8000bee:	f240 5202 	movw	r2, #1282	@ 0x502
 8000bf2:	4293      	cmp	r3, r2
 8000bf4:	d103      	bne.n	8000bfe <handleCAN+0x4e>
 8000bf6:	9300      	str	r3, [sp, #0]
 8000bf8:	4a0f      	ldr	r2, [pc, #60]	@ (8000c38 <handleCAN+0x88>)
 8000bfa:	4b0c      	ldr	r3, [pc, #48]	@ (8000c2c <handleCAN+0x7c>)
 8000bfc:	e7f5      	b.n	8000bea <handleCAN+0x3a>
 8000bfe:	f240 5203 	movw	r2, #1283	@ 0x503
 8000c02:	4293      	cmp	r3, r2
 8000c04:	d103      	bne.n	8000c0e <handleCAN+0x5e>
 8000c06:	9300      	str	r3, [sp, #0]
 8000c08:	4a0c      	ldr	r2, [pc, #48]	@ (8000c3c <handleCAN+0x8c>)
 8000c0a:	4b08      	ldr	r3, [pc, #32]	@ (8000c2c <handleCAN+0x7c>)
 8000c0c:	e7ed      	b.n	8000bea <handleCAN+0x3a>
 8000c0e:	f5b3 6fe0 	cmp.w	r3, #1792	@ 0x700
 8000c12:	d1e0      	bne.n	8000bd6 <handleCAN+0x26>
 8000c14:	4b0a      	ldr	r3, [pc, #40]	@ (8000c40 <handleCAN+0x90>)
 8000c16:	480b      	ldr	r0, [pc, #44]	@ (8000c44 <handleCAN+0x94>)
 8000c18:	7819      	ldrb	r1, [r3, #0]
 8000c1a:	b005      	add	sp, #20
 8000c1c:	f85d eb04 	ldr.w	lr, [sp], #4
 8000c20:	f001 ba93 	b.w	800214a <send_uart_hex>
 8000c24:	200002b0 	.word	0x200002b0
 8000c28:	20000045 	.word	0x20000045
 8000c2c:	200002cc 	.word	0x200002cc
 8000c30:	200005ec 	.word	0x200005ec
 8000c34:	20000097 	.word	0x20000097
 8000c38:	20000091 	.word	0x20000091
 8000c3c:	2000009d 	.word	0x2000009d
 8000c40:	20000046 	.word	0x20000046
 8000c44:	200002dc 	.word	0x200002dc

08000c48 <decodeASCII>:
 8000c48:	3830      	subs	r0, #48	@ 0x30
 8000c4a:	b2c3      	uxtb	r3, r0
 8000c4c:	2b09      	cmp	r3, #9
 8000c4e:	bf88      	it	hi
 8000c50:	f04f 30ff 	movhi.w	r0, #4294967295	@ 0xffffffff
 8000c54:	b2c0      	uxtb	r0, r0
 8000c56:	4770      	bx	lr

08000c58 <combine_system_status>:
 8000c58:	4b04      	ldr	r3, [pc, #16]	@ (8000c6c <combine_system_status+0x14>)
 8000c5a:	7818      	ldrb	r0, [r3, #0]
 8000c5c:	4b04      	ldr	r3, [pc, #16]	@ (8000c70 <combine_system_status+0x18>)
 8000c5e:	781b      	ldrb	r3, [r3, #0]
 8000c60:	f000 001f 	and.w	r0, r0, #31
 8000c64:	ea40 1043 	orr.w	r0, r0, r3, lsl #5
 8000c68:	b2c0      	uxtb	r0, r0
 8000c6a:	4770      	bx	lr
 8000c6c:	20000046 	.word	0x20000046
 8000c70:	20000045 	.word	0x20000045

08000c74 <configureCAN>:
 8000c74:	b500      	push	{lr}
 8000c76:	2300      	movs	r3, #0
 8000c78:	b08b      	sub	sp, #44	@ 0x2c
 8000c7a:	210a      	movs	r1, #10
 8000c7c:	e9cd 3104 	strd	r3, r1, [sp, #16]
 8000c80:	f44f 4120 	mov.w	r1, #40960	@ 0xa000
 8000c84:	2201      	movs	r2, #1
 8000c86:	e9cd 1300 	strd	r1, r3, [sp]
 8000c8a:	e9cd 1302 	strd	r1, r3, [sp, #8]
 8000c8e:	4805      	ldr	r0, [pc, #20]	@ (8000ca4 <configureCAN+0x30>)
 8000c90:	9208      	str	r2, [sp, #32]
 8000c92:	4669      	mov	r1, sp
 8000c94:	e9cd 3206 	strd	r3, r2, [sp, #24]
 8000c98:	9309      	str	r3, [sp, #36]	@ 0x24
 8000c9a:	f001 fb6d 	bl	8002378 <HAL_CAN_ConfigFilter>
 8000c9e:	b00b      	add	sp, #44	@ 0x2c
 8000ca0:	f85d fb04 	ldr.w	pc, [sp], #4
 8000ca4:	200005ec 	.word	0x200005ec

08000ca8 <find_next_blank_page_all>:
 8000ca8:	b508      	push	{r3, lr}
 8000caa:	4b05      	ldr	r3, [pc, #20]	@ (8000cc0 <find_next_blank_page_all+0x18>)
 8000cac:	4905      	ldr	r1, [pc, #20]	@ (8000cc4 <find_next_blank_page_all+0x1c>)
 8000cae:	4806      	ldr	r0, [pc, #24]	@ (8000cc8 <find_next_blank_page_all+0x20>)
 8000cb0:	cb0c      	ldmia	r3, {r2, r3}
 8000cb2:	f7ff fdff 	bl	80008b4 <find_next_blank_page>
 8000cb6:	4b05      	ldr	r3, [pc, #20]	@ (8000ccc <find_next_blank_page_all+0x24>)
 8000cb8:	ea20 70e0 	bic.w	r0, r0, r0, asr #31
 8000cbc:	6018      	str	r0, [r3, #0]
 8000cbe:	bd08      	pop	{r3, pc}
 8000cc0:	20000068 	.word	0x20000068
 8000cc4:	20000088 	.word	0x20000088
 8000cc8:	200004cc 	.word	0x200004cc
 8000ccc:	2000008c 	.word	0x2000008c

08000cd0 <systemInit>:
 8000cd0:	e92d 43f8 	stmdb	sp!, {r3, r4, r5, r6, r7, r8, r9, lr}
 8000cd4:	f8df 81a8 	ldr.w	r8, [pc, #424]	@ 8000e80 <systemInit+0x1b0>
 8000cd8:	4d4a      	ldr	r5, [pc, #296]	@ (8000e04 <systemInit+0x134>)
 8000cda:	4b4b      	ldr	r3, [pc, #300]	@ (8000e08 <systemInit+0x138>)
 8000cdc:	f8c8 3000 	str.w	r3, [r8]
 8000ce0:	4b4a      	ldr	r3, [pc, #296]	@ (8000e0c <systemInit+0x13c>)
 8000ce2:	602b      	str	r3, [r5, #0]
 8000ce4:	f7ff ffc6 	bl	8000c74 <configureCAN>
 8000ce8:	4b49      	ldr	r3, [pc, #292]	@ (8000e10 <systemInit+0x140>)
 8000cea:	494a      	ldr	r1, [pc, #296]	@ (8000e14 <systemInit+0x144>)
 8000cec:	4f4a      	ldr	r7, [pc, #296]	@ (8000e18 <systemInit+0x148>)
 8000cee:	4e4b      	ldr	r6, [pc, #300]	@ (8000e1c <systemInit+0x14c>)
 8000cf0:	f8df 9190 	ldr.w	r9, [pc, #400]	@ 8000e84 <systemInit+0x1b4>
 8000cf4:	2400      	movs	r4, #0
 8000cf6:	601c      	str	r4, [r3, #0]
 8000cf8:	4b49      	ldr	r3, [pc, #292]	@ (8000e20 <systemInit+0x150>)
 8000cfa:	2008      	movs	r0, #8
 8000cfc:	701c      	strb	r4, [r3, #0]
 8000cfe:	f7ff fee1 	bl	8000ac4 <clean_data_buffer>
 8000d02:	f7ff fee5 	bl	8000ad0 <gpio_set_config>
 8000d06:	4b47      	ldr	r3, [pc, #284]	@ (8000e24 <systemInit+0x154>)
 8000d08:	4622      	mov	r2, r4
 8000d0a:	8899      	ldrh	r1, [r3, #4]
 8000d0c:	6818      	ldr	r0, [r3, #0]
 8000d0e:	f002 f8f9 	bl	8002f04 <HAL_GPIO_WritePin>
 8000d12:	4b45      	ldr	r3, [pc, #276]	@ (8000e28 <systemInit+0x158>)
 8000d14:	4622      	mov	r2, r4
 8000d16:	8899      	ldrh	r1, [r3, #4]
 8000d18:	6818      	ldr	r0, [r3, #0]
 8000d1a:	f002 f8f3 	bl	8002f04 <HAL_GPIO_WritePin>
 8000d1e:	88b9      	ldrh	r1, [r7, #4]
 8000d20:	6838      	ldr	r0, [r7, #0]
 8000d22:	2201      	movs	r2, #1
 8000d24:	f002 f8ee 	bl	8002f04 <HAL_GPIO_WritePin>
 8000d28:	2201      	movs	r2, #1
 8000d2a:	88b1      	ldrh	r1, [r6, #4]
 8000d2c:	6830      	ldr	r0, [r6, #0]
 8000d2e:	f002 f8e9 	bl	8002f04 <HAL_GPIO_WritePin>
 8000d32:	4649      	mov	r1, r9
 8000d34:	f44f 7080 	mov.w	r0, #256	@ 0x100
 8000d38:	f7ff fec4 	bl	8000ac4 <clean_data_buffer>
 8000d3c:	f509 7180 	add.w	r1, r9, #256	@ 0x100
 8000d40:	f44f 7080 	mov.w	r0, #256	@ 0x100
 8000d44:	f7ff febe 	bl	8000ac4 <clean_data_buffer>
 8000d48:	4b38      	ldr	r3, [pc, #224]	@ (8000e2c <systemInit+0x15c>)
 8000d4a:	f8d8 0000 	ldr.w	r0, [r8]
 8000d4e:	601c      	str	r4, [r3, #0]
 8000d50:	809c      	strh	r4, [r3, #4]
 8000d52:	4b37      	ldr	r3, [pc, #220]	@ (8000e30 <systemInit+0x160>)
 8000d54:	f8df 9130 	ldr.w	r9, [pc, #304]	@ 8000e88 <systemInit+0x1b8>
 8000d58:	601c      	str	r4, [r3, #0]
 8000d5a:	809c      	strh	r4, [r3, #4]
 8000d5c:	4b35      	ldr	r3, [pc, #212]	@ (8000e34 <systemInit+0x164>)
 8000d5e:	601c      	str	r4, [r3, #0]
 8000d60:	809c      	strh	r4, [r3, #4]
 8000d62:	f7ff fc0b 	bl	800057c <init_accel>
 8000d66:	4621      	mov	r1, r4
 8000d68:	6828      	ldr	r0, [r5, #0]
 8000d6a:	f7ff fc39 	bl	80005e0 <init_bme280>
 8000d6e:	6828      	ldr	r0, [r5, #0]
 8000d70:	2101      	movs	r1, #1
 8000d72:	f7ff fc35 	bl	80005e0 <init_bme280>
 8000d76:	e897 0006 	ldmia.w	r7, {r1, r2}
 8000d7a:	4f2f      	ldr	r7, [pc, #188]	@ (8000e38 <systemInit+0x168>)
 8000d7c:	4648      	mov	r0, r9
 8000d7e:	f7ff fd4b 	bl	8000818 <software_reset>
 8000d82:	e896 0006 	ldmia.w	r6, {r1, r2}
 8000d86:	4638      	mov	r0, r7
 8000d88:	f7ff fd46 	bl	8000818 <software_reset>
 8000d8c:	4b2b      	ldr	r3, [pc, #172]	@ (8000e3c <systemInit+0x16c>)
 8000d8e:	701c      	strb	r4, [r3, #0]
 8000d90:	f7ff ff8a 	bl	8000ca8 <find_next_blank_page_all>
 8000d94:	4b2a      	ldr	r3, [pc, #168]	@ (8000e40 <systemInit+0x170>)
 8000d96:	682a      	ldr	r2, [r5, #0]
 8000d98:	6018      	str	r0, [r3, #0]
 8000d9a:	4b2a      	ldr	r3, [pc, #168]	@ (8000e44 <systemInit+0x174>)
 8000d9c:	701c      	strb	r4, [r3, #0]
 8000d9e:	4b2a      	ldr	r3, [pc, #168]	@ (8000e48 <systemInit+0x178>)
 8000da0:	801c      	strh	r4, [r3, #0]
 8000da2:	4b2a      	ldr	r3, [pc, #168]	@ (8000e4c <systemInit+0x17c>)
 8000da4:	701c      	strb	r4, [r3, #0]
 8000da6:	4b2a      	ldr	r3, [pc, #168]	@ (8000e50 <systemInit+0x180>)
 8000da8:	701c      	strb	r4, [r3, #0]
 8000daa:	4b2a      	ldr	r3, [pc, #168]	@ (8000e54 <systemInit+0x184>)
 8000dac:	701c      	strb	r4, [r3, #0]
 8000dae:	4b2a      	ldr	r3, [pc, #168]	@ (8000e58 <systemInit+0x188>)
 8000db0:	701c      	strb	r4, [r3, #0]
 8000db2:	4b2a      	ldr	r3, [pc, #168]	@ (8000e5c <systemInit+0x18c>)
 8000db4:	701c      	strb	r4, [r3, #0]
 8000db6:	4b2a      	ldr	r3, [pc, #168]	@ (8000e60 <systemInit+0x190>)
 8000db8:	4639      	mov	r1, r7
 8000dba:	701c      	strb	r4, [r3, #0]
 8000dbc:	4648      	mov	r0, r9
 8000dbe:	f8d8 3000 	ldr.w	r3, [r8]
 8000dc2:	4c28      	ldr	r4, [pc, #160]	@ (8000e64 <systemInit+0x194>)
 8000dc4:	f000 fc1c 	bl	8001600 <systemStatus>
 8000dc8:	4b27      	ldr	r3, [pc, #156]	@ (8000e68 <systemInit+0x198>)
 8000dca:	4601      	mov	r1, r0
 8000dcc:	7018      	strb	r0, [r3, #0]
 8000dce:	4620      	mov	r0, r4
 8000dd0:	f001 f9bb 	bl	800214a <send_uart_hex>
 8000dd4:	4620      	mov	r0, r4
 8000dd6:	4c25      	ldr	r4, [pc, #148]	@ (8000e6c <systemInit+0x19c>)
 8000dd8:	4925      	ldr	r1, [pc, #148]	@ (8000e70 <systemInit+0x1a0>)
 8000dda:	2202      	movs	r2, #2
 8000ddc:	f004 fb43 	bl	8005466 <HAL_UART_Receive_IT>
 8000de0:	4620      	mov	r0, r4
 8000de2:	f001 fb4f 	bl	8002484 <HAL_CAN_Start>
 8000de6:	2102      	movs	r1, #2
 8000de8:	4620      	mov	r0, r4
 8000dea:	f001 fc3d 	bl	8002668 <HAL_CAN_ActivateNotification>
 8000dee:	4821      	ldr	r0, [pc, #132]	@ (8000e74 <systemInit+0x1a4>)
 8000df0:	f000 fdb2 	bl	8001958 <initialise_rtc_default>
 8000df4:	4820      	ldr	r0, [pc, #128]	@ (8000e78 <systemInit+0x1a8>)
 8000df6:	f003 fe85 	bl	8004b04 <HAL_TIM_Base_Start_IT>
 8000dfa:	e8bd 43f8 	ldmia.w	sp!, {r3, r4, r5, r6, r7, r8, r9, lr}
 8000dfe:	481f      	ldr	r0, [pc, #124]	@ (8000e7c <systemInit+0x1ac>)
 8000e00:	f003 be80 	b.w	8004b04 <HAL_TIM_Base_Start_IT>
 8000e04:	200002d4 	.word	0x200002d4
 8000e08:	20000544 	.word	0x20000544
 8000e0c:	20000598 	.word	0x20000598
 8000e10:	200002cc 	.word	0x200002cc
 8000e14:	200002a8 	.word	0x200002a8
 8000e18:	20000068 	.word	0x20000068
 8000e1c:	20000058 	.word	0x20000058
 8000e20:	200002a6 	.word	0x200002a6
 8000e24:	20000080 	.word	0x20000080
 8000e28:	20000070 	.word	0x20000070
 8000e2c:	2000009d 	.word	0x2000009d
 8000e30:	20000097 	.word	0x20000097
 8000e34:	20000091 	.word	0x20000091
 8000e38:	20000474 	.word	0x20000474
 8000e3c:	20000088 	.word	0x20000088
 8000e40:	2000008c 	.word	0x2000008c
 8000e44:	20000090 	.word	0x20000090
 8000e48:	2000008a 	.word	0x2000008a
 8000e4c:	200002d0 	.word	0x200002d0
 8000e50:	200002a7 	.word	0x200002a7
 8000e54:	200002a5 	.word	0x200002a5
 8000e58:	200002a4 	.word	0x200002a4
 8000e5c:	20000045 	.word	0x20000045
 8000e60:	20000047 	.word	0x20000047
 8000e64:	200002dc 	.word	0x200002dc
 8000e68:	20000046 	.word	0x20000046
 8000e6c:	200005ec 	.word	0x200005ec
 8000e70:	200002d1 	.word	0x200002d1
 8000e74:	20000524 	.word	0x20000524
 8000e78:	2000036c 	.word	0x2000036c
 8000e7c:	20000324 	.word	0x20000324
 8000e80:	200002d8 	.word	0x200002d8
 8000e84:	200000a4 	.word	0x200000a4
 8000e88:	200004cc 	.word	0x200004cc

08000e8c <handleUART>:
 8000e8c:	b530      	push	{r4, r5, lr}
 8000e8e:	4c78      	ldr	r4, [pc, #480]	@ (8001070 <handleUART+0x1e4>)
 8000e90:	7823      	ldrb	r3, [r4, #0]
 8000e92:	2b68      	cmp	r3, #104	@ 0x68
 8000e94:	b085      	sub	sp, #20
 8000e96:	d10c      	bne.n	8000eb2 <handleUART+0x26>
 8000e98:	4876      	ldr	r0, [pc, #472]	@ (8001074 <handleUART+0x1e8>)
 8000e9a:	f000 fbf5 	bl	8001688 <heartbeatUART>
 8000e9e:	4b76      	ldr	r3, [pc, #472]	@ (8001078 <handleUART+0x1ec>)
 8000ea0:	4874      	ldr	r0, [pc, #464]	@ (8001074 <handleUART+0x1e8>)
 8000ea2:	7819      	ldrb	r1, [r3, #0]
 8000ea4:	f001 f951 	bl	800214a <send_uart_hex>
 8000ea8:	2300      	movs	r3, #0
 8000eaa:	7023      	strb	r3, [r4, #0]
 8000eac:	7063      	strb	r3, [r4, #1]
 8000eae:	b005      	add	sp, #20
 8000eb0:	bd30      	pop	{r4, r5, pc}
 8000eb2:	3b61      	subs	r3, #97	@ 0x61
 8000eb4:	2b17      	cmp	r3, #23
 8000eb6:	d8f7      	bhi.n	8000ea8 <handleUART+0x1c>
 8000eb8:	a201      	add	r2, pc, #4	@ (adr r2, 8000ec0 <handleUART+0x34>)
 8000eba:	f852 f023 	ldr.w	pc, [r2, r3, lsl #2]
 8000ebe:	bf00      	nop
 8000ec0:	08001011 	.word	0x08001011
 8000ec4:	08001019 	.word	0x08001019
 8000ec8:	08001005 	.word	0x08001005
 8000ecc:	08000ea9 	.word	0x08000ea9
 8000ed0:	08000f21 	.word	0x08000f21
 8000ed4:	08000ea9 	.word	0x08000ea9
 8000ed8:	08000ea9 	.word	0x08000ea9
 8000edc:	08000ea9 	.word	0x08000ea9
 8000ee0:	08000ea9 	.word	0x08000ea9
 8000ee4:	08000ea9 	.word	0x08000ea9
 8000ee8:	08000ea9 	.word	0x08000ea9
 8000eec:	08000ea9 	.word	0x08000ea9
 8000ef0:	08000f93 	.word	0x08000f93
 8000ef4:	08001055 	.word	0x08001055
 8000ef8:	08000ea9 	.word	0x08000ea9
 8000efc:	0800102f 	.word	0x0800102f
 8000f00:	08000ea9 	.word	0x08000ea9
 8000f04:	08000f63 	.word	0x08000f63
 8000f08:	08000ea9 	.word	0x08000ea9
 8000f0c:	08001045 	.word	0x08001045
 8000f10:	08000ea9 	.word	0x08000ea9
 8000f14:	08000ea9 	.word	0x08000ea9
 8000f18:	08000fb9 	.word	0x08000fb9
 8000f1c:	08000fdf 	.word	0x08000fdf
 8000f20:	4d56      	ldr	r5, [pc, #344]	@ (800107c <handleUART+0x1f0>)
 8000f22:	2201      	movs	r2, #1
 8000f24:	6828      	ldr	r0, [r5, #0]
 8000f26:	88a9      	ldrh	r1, [r5, #4]
 8000f28:	f001 ffec 	bl	8002f04 <HAL_GPIO_WritePin>
 8000f2c:	7860      	ldrb	r0, [r4, #1]
 8000f2e:	f7ff fe8b 	bl	8000c48 <decodeASCII>
 8000f32:	b978      	cbnz	r0, 8000f54 <handleUART+0xc8>
 8000f34:	4b52      	ldr	r3, [pc, #328]	@ (8001080 <handleUART+0x1f4>)
 8000f36:	494f      	ldr	r1, [pc, #316]	@ (8001074 <handleUART+0x1e8>)
 8000f38:	4852      	ldr	r0, [pc, #328]	@ (8001084 <handleUART+0x1f8>)
 8000f3a:	cb0c      	ldmia	r3, {r2, r3}
 8000f3c:	f000 fba8 	bl	8001690 <eraseFlashSPI>
 8000f40:	f7ff feb2 	bl	8000ca8 <find_next_blank_page_all>
 8000f44:	4b50      	ldr	r3, [pc, #320]	@ (8001088 <handleUART+0x1fc>)
 8000f46:	6018      	str	r0, [r3, #0]
 8000f48:	88a9      	ldrh	r1, [r5, #4]
 8000f4a:	6828      	ldr	r0, [r5, #0]
 8000f4c:	2200      	movs	r2, #0
 8000f4e:	f001 ffd9 	bl	8002f04 <HAL_GPIO_WritePin>
 8000f52:	e7a9      	b.n	8000ea8 <handleUART+0x1c>
 8000f54:	2801      	cmp	r0, #1
 8000f56:	d1f3      	bne.n	8000f40 <handleUART+0xb4>
 8000f58:	4b4c      	ldr	r3, [pc, #304]	@ (800108c <handleUART+0x200>)
 8000f5a:	4946      	ldr	r1, [pc, #280]	@ (8001074 <handleUART+0x1e8>)
 8000f5c:	484c      	ldr	r0, [pc, #304]	@ (8001090 <handleUART+0x204>)
 8000f5e:	cb0c      	ldmia	r3, {r2, r3}
 8000f60:	e7ec      	b.n	8000f3c <handleUART+0xb0>
 8000f62:	4d46      	ldr	r5, [pc, #280]	@ (800107c <handleUART+0x1f0>)
 8000f64:	2201      	movs	r2, #1
 8000f66:	6828      	ldr	r0, [r5, #0]
 8000f68:	88a9      	ldrh	r1, [r5, #4]
 8000f6a:	f001 ffcb 	bl	8002f04 <HAL_GPIO_WritePin>
 8000f6e:	7860      	ldrb	r0, [r4, #1]
 8000f70:	f7ff fe6a 	bl	8000c48 <decodeASCII>
 8000f74:	b930      	cbnz	r0, 8000f84 <handleUART+0xf8>
 8000f76:	4b42      	ldr	r3, [pc, #264]	@ (8001080 <handleUART+0x1f4>)
 8000f78:	493e      	ldr	r1, [pc, #248]	@ (8001074 <handleUART+0x1e8>)
 8000f7a:	4842      	ldr	r0, [pc, #264]	@ (8001084 <handleUART+0x1f8>)
 8000f7c:	cb0c      	ldmia	r3, {r2, r3}
 8000f7e:	f000 fb9d 	bl	80016bc <readFlashToUART>
 8000f82:	e7e1      	b.n	8000f48 <handleUART+0xbc>
 8000f84:	2801      	cmp	r0, #1
 8000f86:	d1df      	bne.n	8000f48 <handleUART+0xbc>
 8000f88:	4b40      	ldr	r3, [pc, #256]	@ (800108c <handleUART+0x200>)
 8000f8a:	493a      	ldr	r1, [pc, #232]	@ (8001074 <handleUART+0x1e8>)
 8000f8c:	4840      	ldr	r0, [pc, #256]	@ (8001090 <handleUART+0x204>)
 8000f8e:	cb0c      	ldmia	r3, {r2, r3}
 8000f90:	e7f5      	b.n	8000f7e <handleUART+0xf2>
 8000f92:	7860      	ldrb	r0, [r4, #1]
 8000f94:	f7ff fe58 	bl	8000c48 <decodeASCII>
 8000f98:	b930      	cbnz	r0, 8000fa8 <handleUART+0x11c>
 8000f9a:	4b39      	ldr	r3, [pc, #228]	@ (8001080 <handleUART+0x1f4>)
 8000f9c:	4935      	ldr	r1, [pc, #212]	@ (8001074 <handleUART+0x1e8>)
 8000f9e:	4839      	ldr	r0, [pc, #228]	@ (8001084 <handleUART+0x1f8>)
 8000fa0:	cb0c      	ldmia	r3, {r2, r3}
 8000fa2:	f000 fbb1 	bl	8001708 <readFlashManuSPI>
 8000fa6:	e77f      	b.n	8000ea8 <handleUART+0x1c>
 8000fa8:	2801      	cmp	r0, #1
 8000faa:	f47f af7d 	bne.w	8000ea8 <handleUART+0x1c>
 8000fae:	4b37      	ldr	r3, [pc, #220]	@ (800108c <handleUART+0x200>)
 8000fb0:	4930      	ldr	r1, [pc, #192]	@ (8001074 <handleUART+0x1e8>)
 8000fb2:	4837      	ldr	r0, [pc, #220]	@ (8001090 <handleUART+0x204>)
 8000fb4:	cb0c      	ldmia	r3, {r2, r3}
 8000fb6:	e7f4      	b.n	8000fa2 <handleUART+0x116>
 8000fb8:	7860      	ldrb	r0, [r4, #1]
 8000fba:	f7ff fe45 	bl	8000c48 <decodeASCII>
 8000fbe:	b930      	cbnz	r0, 8000fce <handleUART+0x142>
 8000fc0:	4b2f      	ldr	r3, [pc, #188]	@ (8001080 <handleUART+0x1f4>)
 8000fc2:	492c      	ldr	r1, [pc, #176]	@ (8001074 <handleUART+0x1e8>)
 8000fc4:	482f      	ldr	r0, [pc, #188]	@ (8001084 <handleUART+0x1f8>)
 8000fc6:	cb0c      	ldmia	r3, {r2, r3}
 8000fc8:	f000 fbb8 	bl	800173c <writePageSPI_W>
 8000fcc:	e76c      	b.n	8000ea8 <handleUART+0x1c>
 8000fce:	2801      	cmp	r0, #1
 8000fd0:	f47f af6a 	bne.w	8000ea8 <handleUART+0x1c>
 8000fd4:	4b2d      	ldr	r3, [pc, #180]	@ (800108c <handleUART+0x200>)
 8000fd6:	4927      	ldr	r1, [pc, #156]	@ (8001074 <handleUART+0x1e8>)
 8000fd8:	482d      	ldr	r0, [pc, #180]	@ (8001090 <handleUART+0x204>)
 8000fda:	cb0c      	ldmia	r3, {r2, r3}
 8000fdc:	e7f4      	b.n	8000fc8 <handleUART+0x13c>
 8000fde:	7860      	ldrb	r0, [r4, #1]
 8000fe0:	f7ff fe32 	bl	8000c48 <decodeASCII>
 8000fe4:	b930      	cbnz	r0, 8000ff4 <handleUART+0x168>
 8000fe6:	4b26      	ldr	r3, [pc, #152]	@ (8001080 <handleUART+0x1f4>)
 8000fe8:	4922      	ldr	r1, [pc, #136]	@ (8001074 <handleUART+0x1e8>)
 8000fea:	4826      	ldr	r0, [pc, #152]	@ (8001084 <handleUART+0x1f8>)
 8000fec:	cb0c      	ldmia	r3, {r2, r3}
 8000fee:	f000 fbc9 	bl	8001784 <resetSPIFlash>
 8000ff2:	e759      	b.n	8000ea8 <handleUART+0x1c>
 8000ff4:	2801      	cmp	r0, #1
 8000ff6:	f47f af57 	bne.w	8000ea8 <handleUART+0x1c>
 8000ffa:	4b24      	ldr	r3, [pc, #144]	@ (800108c <handleUART+0x200>)
 8000ffc:	491d      	ldr	r1, [pc, #116]	@ (8001074 <handleUART+0x1e8>)
 8000ffe:	4824      	ldr	r0, [pc, #144]	@ (8001090 <handleUART+0x204>)
 8001000:	cb0c      	ldmia	r3, {r2, r3}
 8001002:	e7f4      	b.n	8000fee <handleUART+0x162>
 8001004:	4b23      	ldr	r3, [pc, #140]	@ (8001094 <handleUART+0x208>)
 8001006:	491b      	ldr	r1, [pc, #108]	@ (8001074 <handleUART+0x1e8>)
 8001008:	6818      	ldr	r0, [r3, #0]
 800100a:	f000 fbcd 	bl	80017a8 <checkAccelWhoAmI>
 800100e:	e74b      	b.n	8000ea8 <handleUART+0x1c>
 8001010:	4818      	ldr	r0, [pc, #96]	@ (8001074 <handleUART+0x1e8>)
 8001012:	f000 fbd3 	bl	80017bc <accelToUART>
 8001016:	e747      	b.n	8000ea8 <handleUART+0x1c>
 8001018:	4b1f      	ldr	r3, [pc, #124]	@ (8001098 <handleUART+0x20c>)
 800101a:	7860      	ldrb	r0, [r4, #1]
 800101c:	681d      	ldr	r5, [r3, #0]
 800101e:	4915      	ldr	r1, [pc, #84]	@ (8001074 <handleUART+0x1e8>)
 8001020:	f7ff fe12 	bl	8000c48 <decodeASCII>
 8001024:	4602      	mov	r2, r0
 8001026:	4628      	mov	r0, r5
 8001028:	f000 fbd8 	bl	80017dc <readTempSensorID>
 800102c:	e73c      	b.n	8000ea8 <handleUART+0x1c>
 800102e:	4b1a      	ldr	r3, [pc, #104]	@ (8001098 <handleUART+0x20c>)
 8001030:	7860      	ldrb	r0, [r4, #1]
 8001032:	681d      	ldr	r5, [r3, #0]
 8001034:	490f      	ldr	r1, [pc, #60]	@ (8001074 <handleUART+0x1e8>)
 8001036:	f7ff fe07 	bl	8000c48 <decodeASCII>
 800103a:	4602      	mov	r2, r0
 800103c:	4628      	mov	r0, r5
 800103e:	f000 fbd8 	bl	80017f2 <readTempCalibration>
 8001042:	e731      	b.n	8000ea8 <handleUART+0x1c>
 8001044:	7860      	ldrb	r0, [r4, #1]
 8001046:	f7ff fdff 	bl	8000c48 <decodeASCII>
 800104a:	4601      	mov	r1, r0
 800104c:	4809      	ldr	r0, [pc, #36]	@ (8001074 <handleUART+0x1e8>)
 800104e:	f000 fc03 	bl	8001858 <readTempSensor>
 8001052:	e729      	b.n	8000ea8 <handleUART+0x1c>
 8001054:	7863      	ldrb	r3, [r4, #1]
 8001056:	f88d 300c 	strb.w	r3, [sp, #12]
 800105a:	f44f 63e0 	mov.w	r3, #1792	@ 0x700
 800105e:	9300      	str	r3, [sp, #0]
 8001060:	480e      	ldr	r0, [pc, #56]	@ (800109c <handleUART+0x210>)
 8001062:	4b0f      	ldr	r3, [pc, #60]	@ (80010a0 <handleUART+0x214>)
 8001064:	aa03      	add	r2, sp, #12
 8001066:	2101      	movs	r1, #1
 8001068:	f7ff fb5e 	bl	8000728 <sendCAN_TxMessage>
 800106c:	e71c      	b.n	8000ea8 <handleUART+0x1c>
 800106e:	bf00      	nop
 8001070:	200002d1 	.word	0x200002d1
 8001074:	200002dc 	.word	0x200002dc
 8001078:	20000046 	.word	0x20000046
 800107c:	20000078 	.word	0x20000078
 8001080:	20000068 	.word	0x20000068
 8001084:	200004cc 	.word	0x200004cc
 8001088:	2000008c 	.word	0x2000008c
 800108c:	20000058 	.word	0x20000058
 8001090:	20000474 	.word	0x20000474
 8001094:	200002d8 	.word	0x200002d8
 8001098:	200002d4 	.word	0x200002d4
 800109c:	200005ec 	.word	0x200005ec
 80010a0:	200002cc 	.word	0x200002cc

080010a4 <main>:
 80010a4:	e92d 47f0 	stmdb	sp!, {r4, r5, r6, r7, r8, r9, sl, lr}
 80010a8:	b08e      	sub	sp, #56	@ 0x38
 80010aa:	2400      	movs	r4, #0
 80010ac:	4dae      	ldr	r5, [pc, #696]	@ (8001368 <main+0x2c4>)
 80010ae:	f8df 92fc 	ldr.w	r9, [pc, #764]	@ 80013ac <main+0x308>
 80010b2:	f001 f8a5 	bl	8002200 <HAL_Init>
 80010b6:	f7ff fcb7 	bl	8000a28 <SystemClock_Config>
 80010ba:	2214      	movs	r2, #20
 80010bc:	2100      	movs	r1, #0
 80010be:	a809      	add	r0, sp, #36	@ 0x24
 80010c0:	f004 f9e2 	bl	8005488 <memset>
 80010c4:	9404      	str	r4, [sp, #16]
 80010c6:	6b2b      	ldr	r3, [r5, #48]	@ 0x30
 80010c8:	48a8      	ldr	r0, [pc, #672]	@ (800136c <main+0x2c8>)
 80010ca:	f043 0304 	orr.w	r3, r3, #4
 80010ce:	632b      	str	r3, [r5, #48]	@ 0x30
 80010d0:	6b2b      	ldr	r3, [r5, #48]	@ 0x30
 80010d2:	f003 0304 	and.w	r3, r3, #4
 80010d6:	9304      	str	r3, [sp, #16]
 80010d8:	9b04      	ldr	r3, [sp, #16]
 80010da:	9405      	str	r4, [sp, #20]
 80010dc:	6b2b      	ldr	r3, [r5, #48]	@ 0x30
 80010de:	f043 0380 	orr.w	r3, r3, #128	@ 0x80
 80010e2:	632b      	str	r3, [r5, #48]	@ 0x30
 80010e4:	6b2b      	ldr	r3, [r5, #48]	@ 0x30
 80010e6:	f003 0380 	and.w	r3, r3, #128	@ 0x80
 80010ea:	9305      	str	r3, [sp, #20]
 80010ec:	9b05      	ldr	r3, [sp, #20]
 80010ee:	9406      	str	r4, [sp, #24]
 80010f0:	6b2b      	ldr	r3, [r5, #48]	@ 0x30
 80010f2:	f043 0301 	orr.w	r3, r3, #1
 80010f6:	632b      	str	r3, [r5, #48]	@ 0x30
 80010f8:	6b2b      	ldr	r3, [r5, #48]	@ 0x30
 80010fa:	f003 0301 	and.w	r3, r3, #1
 80010fe:	9306      	str	r3, [sp, #24]
 8001100:	9b06      	ldr	r3, [sp, #24]
 8001102:	9407      	str	r4, [sp, #28]
 8001104:	6b2b      	ldr	r3, [r5, #48]	@ 0x30
 8001106:	f043 0302 	orr.w	r3, r3, #2
 800110a:	632b      	str	r3, [r5, #48]	@ 0x30
 800110c:	6b2b      	ldr	r3, [r5, #48]	@ 0x30
 800110e:	f003 0302 	and.w	r3, r3, #2
 8001112:	9307      	str	r3, [sp, #28]
 8001114:	9b07      	ldr	r3, [sp, #28]
 8001116:	9408      	str	r4, [sp, #32]
 8001118:	6b2b      	ldr	r3, [r5, #48]	@ 0x30
 800111a:	f043 0308 	orr.w	r3, r3, #8
 800111e:	632b      	str	r3, [r5, #48]	@ 0x30
 8001120:	6b2b      	ldr	r3, [r5, #48]	@ 0x30
 8001122:	f003 0308 	and.w	r3, r3, #8
 8001126:	9308      	str	r3, [sp, #32]
 8001128:	4622      	mov	r2, r4
 800112a:	2113      	movs	r1, #19
 800112c:	9b08      	ldr	r3, [sp, #32]
 800112e:	f001 fee9 	bl	8002f04 <HAL_GPIO_WritePin>
 8001132:	488f      	ldr	r0, [pc, #572]	@ (8001370 <main+0x2cc>)
 8001134:	4622      	mov	r2, r4
 8001136:	2110      	movs	r1, #16
 8001138:	f001 fee4 	bl	8002f04 <HAL_GPIO_WritePin>
 800113c:	4622      	mov	r2, r4
 800113e:	488d      	ldr	r0, [pc, #564]	@ (8001374 <main+0x2d0>)
 8001140:	f44f 41e0 	mov.w	r1, #28672	@ 0x7000
 8001144:	f001 fede 	bl	8002f04 <HAL_GPIO_WritePin>
 8001148:	2601      	movs	r6, #1
 800114a:	4888      	ldr	r0, [pc, #544]	@ (800136c <main+0x2c8>)
 800114c:	a909      	add	r1, sp, #36	@ 0x24
 800114e:	e9cd 6609 	strd	r6, r6, [sp, #36]	@ 0x24
 8001152:	e9cd 640b 	strd	r6, r4, [sp, #44]	@ 0x2c
 8001156:	f001 fdeb 	bl	8002d30 <HAL_GPIO_Init>
 800115a:	2312      	movs	r3, #18
 800115c:	4883      	ldr	r0, [pc, #524]	@ (800136c <main+0x2c8>)
 800115e:	a909      	add	r1, sp, #36	@ 0x24
 8001160:	e9cd 3609 	strd	r3, r6, [sp, #36]	@ 0x24
 8001164:	e9cd 440b 	strd	r4, r4, [sp, #44]	@ 0x2c
 8001168:	f001 fde2 	bl	8002d30 <HAL_GPIO_Init>
 800116c:	2310      	movs	r3, #16
 800116e:	4880      	ldr	r0, [pc, #512]	@ (8001370 <main+0x2cc>)
 8001170:	a909      	add	r1, sp, #36	@ 0x24
 8001172:	2702      	movs	r7, #2
 8001174:	e9cd 3609 	strd	r3, r6, [sp, #36]	@ 0x24
 8001178:	e9cd 640b 	strd	r6, r4, [sp, #44]	@ 0x2c
 800117c:	f001 fdd8 	bl	8002d30 <HAL_GPIO_Init>
 8001180:	f44f 1388 	mov.w	r3, #1114112	@ 0x110000
 8001184:	487b      	ldr	r0, [pc, #492]	@ (8001374 <main+0x2d0>)
 8001186:	940b      	str	r4, [sp, #44]	@ 0x2c
 8001188:	a909      	add	r1, sp, #36	@ 0x24
 800118a:	e9cd 7309 	strd	r7, r3, [sp, #36]	@ 0x24
 800118e:	f001 fdcf 	bl	8002d30 <HAL_GPIO_Init>
 8001192:	f44f 43e0 	mov.w	r3, #28672	@ 0x7000
 8001196:	4877      	ldr	r0, [pc, #476]	@ (8001374 <main+0x2d0>)
 8001198:	a909      	add	r1, sp, #36	@ 0x24
 800119a:	e9cd 3609 	strd	r3, r6, [sp, #36]	@ 0x24
 800119e:	e9cd 740b 	strd	r7, r4, [sp, #44]	@ 0x2c
 80011a2:	f001 fdc5 	bl	8002d30 <HAL_GPIO_Init>
 80011a6:	f44f 53c0 	mov.w	r3, #6144	@ 0x1800
 80011aa:	e9cd 3709 	strd	r3, r7, [sp, #36]	@ 0x24
 80011ae:	4870      	ldr	r0, [pc, #448]	@ (8001370 <main+0x2cc>)
 80011b0:	940b      	str	r4, [sp, #44]	@ 0x2c
 80011b2:	2309      	movs	r3, #9
 80011b4:	a909      	add	r1, sp, #36	@ 0x24
 80011b6:	f04f 0803 	mov.w	r8, #3
 80011ba:	e9cd 830c 	strd	r8, r3, [sp, #48]	@ 0x30
 80011be:	f001 fdb7 	bl	8002d30 <HAL_GPIO_Init>
 80011c2:	4622      	mov	r2, r4
 80011c4:	4621      	mov	r1, r4
 80011c6:	2007      	movs	r0, #7
 80011c8:	f001 fb82 	bl	80028d0 <HAL_NVIC_SetPriority>
 80011cc:	2007      	movs	r0, #7
 80011ce:	f001 fbb1 	bl	8002934 <HAL_NVIC_EnableIRQ>
 80011d2:	9402      	str	r4, [sp, #8]
 80011d4:	6b2b      	ldr	r3, [r5, #48]	@ 0x30
 80011d6:	f443 0380 	orr.w	r3, r3, #4194304	@ 0x400000
 80011da:	632b      	str	r3, [r5, #48]	@ 0x30
 80011dc:	6b2b      	ldr	r3, [r5, #48]	@ 0x30
 80011de:	f403 0380 	and.w	r3, r3, #4194304	@ 0x400000
 80011e2:	9302      	str	r3, [sp, #8]
 80011e4:	9b02      	ldr	r3, [sp, #8]
 80011e6:	9403      	str	r4, [sp, #12]
 80011e8:	6b2b      	ldr	r3, [r5, #48]	@ 0x30
 80011ea:	f443 1300 	orr.w	r3, r3, #2097152	@ 0x200000
 80011ee:	632b      	str	r3, [r5, #48]	@ 0x30
 80011f0:	6b2b      	ldr	r3, [r5, #48]	@ 0x30
 80011f2:	4d61      	ldr	r5, [pc, #388]	@ (8001378 <main+0x2d4>)
 80011f4:	f403 1300 	and.w	r3, r3, #2097152	@ 0x200000
 80011f8:	4622      	mov	r2, r4
 80011fa:	4621      	mov	r1, r4
 80011fc:	9303      	str	r3, [sp, #12]
 80011fe:	200f      	movs	r0, #15
 8001200:	9b03      	ldr	r3, [sp, #12]
 8001202:	f001 fb65 	bl	80028d0 <HAL_NVIC_SetPriority>
 8001206:	200f      	movs	r0, #15
 8001208:	f001 fb94 	bl	8002934 <HAL_NVIC_EnableIRQ>
 800120c:	4621      	mov	r1, r4
 800120e:	4622      	mov	r2, r4
 8001210:	203b      	movs	r0, #59	@ 0x3b
 8001212:	f001 fb5d 	bl	80028d0 <HAL_NVIC_SetPriority>
 8001216:	203b      	movs	r0, #59	@ 0x3b
 8001218:	f001 fb8c 	bl	8002934 <HAL_NVIC_EnableIRQ>
 800121c:	4b57      	ldr	r3, [pc, #348]	@ (800137c <main+0x2d8>)
 800121e:	622c      	str	r4, [r5, #32]
 8001220:	e9c5 9300 	strd	r9, r3, [r5]
 8001224:	4628      	mov	r0, r5
 8001226:	f44f 4380 	mov.w	r3, #16384	@ 0x4000
 800122a:	e9c5 4402 	strd	r4, r4, [r5, #8]
 800122e:	e9c5 3404 	strd	r3, r4, [r5, #16]
 8001232:	e9c5 4406 	strd	r4, r4, [r5, #24]
 8001236:	f001 ffa3 	bl	8003180 <HAL_I2C_Init>
 800123a:	4601      	mov	r1, r0
 800123c:	b108      	cbz	r0, 8001242 <main+0x19e>
 800123e:	b672      	cpsid	i
 8001240:	e7fe      	b.n	8001240 <main+0x19c>
 8001242:	4628      	mov	r0, r5
 8001244:	f002 fa98 	bl	8003778 <HAL_I2CEx_ConfigAnalogFilter>
 8001248:	4601      	mov	r1, r0
 800124a:	b108      	cbz	r0, 8001250 <main+0x1ac>
 800124c:	b672      	cpsid	i
 800124e:	e7fe      	b.n	800124e <main+0x1aa>
 8001250:	4628      	mov	r0, r5
 8001252:	f002 fab0 	bl	80037b6 <HAL_I2CEx_ConfigDigitalFilter>
 8001256:	4603      	mov	r3, r0
 8001258:	b108      	cbz	r0, 800125e <main+0x1ba>
 800125a:	b672      	cpsid	i
 800125c:	e7fe      	b.n	800125c <main+0x1b8>
 800125e:	4848      	ldr	r0, [pc, #288]	@ (8001380 <main+0x2dc>)
 8001260:	4a48      	ldr	r2, [pc, #288]	@ (8001384 <main+0x2e0>)
 8001262:	6183      	str	r3, [r0, #24]
 8001264:	e9c0 2300 	strd	r2, r3, [r0]
 8001268:	f04f 0e7f 	mov.w	lr, #127	@ 0x7f
 800126c:	22ff      	movs	r2, #255	@ 0xff
 800126e:	e9c0 3304 	strd	r3, r3, [r0, #16]
 8001272:	e9c0 e202 	strd	lr, r2, [r0, #8]
 8001276:	f002 fee8 	bl	800404a <HAL_RTC_Init>
 800127a:	4603      	mov	r3, r0
 800127c:	b108      	cbz	r0, 8001282 <main+0x1de>
 800127e:	b672      	cpsid	i
 8001280:	e7fe      	b.n	8001280 <main+0x1dc>
 8001282:	4841      	ldr	r0, [pc, #260]	@ (8001388 <main+0x2e4>)
 8001284:	4a41      	ldr	r2, [pc, #260]	@ (800138c <main+0x2e8>)
 8001286:	6283      	str	r3, [r0, #40]	@ 0x28
 8001288:	f44f 7582 	mov.w	r5, #260	@ 0x104
 800128c:	e9c0 2500 	strd	r2, r5, [r0]
 8001290:	f44f 7400 	mov.w	r4, #512	@ 0x200
 8001294:	2208      	movs	r2, #8
 8001296:	260a      	movs	r6, #10
 8001298:	e9c0 3302 	strd	r3, r3, [r0, #8]
 800129c:	e9c0 3304 	strd	r3, r3, [r0, #16]
 80012a0:	e9c0 4206 	strd	r4, r2, [r0, #24]
 80012a4:	e9c0 3308 	strd	r3, r3, [r0, #32]
 80012a8:	62c6      	str	r6, [r0, #44]	@ 0x2c
 80012aa:	f003 f8d1 	bl	8004450 <HAL_SPI_Init>
 80012ae:	b108      	cbz	r0, 80012b4 <main+0x210>
 80012b0:	b672      	cpsid	i
 80012b2:	e7fe      	b.n	80012b2 <main+0x20e>
 80012b4:	4f36      	ldr	r7, [pc, #216]	@ (8001390 <main+0x2ec>)
 80012b6:	f8df c0f8 	ldr.w	ip, [pc, #248]	@ 80013b0 <main+0x30c>
 80012ba:	60b8      	str	r0, [r7, #8]
 80012bc:	f245 2307 	movw	r3, #20999	@ 0x5207
 80012c0:	e9cd 0009 	strd	r0, r0, [sp, #36]	@ 0x24
 80012c4:	e9c7 c300 	strd	ip, r3, [r7]
 80012c8:	61b8      	str	r0, [r7, #24]
 80012ca:	2328      	movs	r3, #40	@ 0x28
 80012cc:	4638      	mov	r0, r7
 80012ce:	60fb      	str	r3, [r7, #12]
 80012d0:	f003 fd58 	bl	8004d84 <HAL_TIM_Base_Init>
 80012d4:	b108      	cbz	r0, 80012da <main+0x236>
 80012d6:	b672      	cpsid	i
 80012d8:	e7fe      	b.n	80012d8 <main+0x234>
 80012da:	e9cd 0009 	strd	r0, r0, [sp, #36]	@ 0x24
 80012de:	a909      	add	r1, sp, #36	@ 0x24
 80012e0:	4638      	mov	r0, r7
 80012e2:	f003 fd7b 	bl	8004ddc <HAL_TIMEx_MasterConfigSynchronization>
 80012e6:	4603      	mov	r3, r0
 80012e8:	b108      	cbz	r0, 80012ee <main+0x24a>
 80012ea:	b672      	cpsid	i
 80012ec:	e7fe      	b.n	80012ec <main+0x248>
 80012ee:	4829      	ldr	r0, [pc, #164]	@ (8001394 <main+0x2f0>)
 80012f0:	4f29      	ldr	r7, [pc, #164]	@ (8001398 <main+0x2f4>)
 80012f2:	6103      	str	r3, [r0, #16]
 80012f4:	f44f 32e1 	mov.w	r2, #115200	@ 0x1c200
 80012f8:	e9c0 7200 	strd	r7, r2, [r0]
 80012fc:	220c      	movs	r2, #12
 80012fe:	e9c0 3302 	strd	r3, r3, [r0, #8]
 8001302:	e9c0 2305 	strd	r2, r3, [r0, #20]
 8001306:	61c3      	str	r3, [r0, #28]
 8001308:	f003 fe66 	bl	8004fd8 <HAL_UART_Init>
 800130c:	4603      	mov	r3, r0
 800130e:	b108      	cbz	r0, 8001314 <main+0x270>
 8001310:	b672      	cpsid	i
 8001312:	e7fe      	b.n	8001312 <main+0x26e>
 8001314:	4821      	ldr	r0, [pc, #132]	@ (800139c <main+0x2f8>)
 8001316:	4a22      	ldr	r2, [pc, #136]	@ (80013a0 <main+0x2fc>)
 8001318:	e9c0 3302 	strd	r3, r3, [r0, #8]
 800131c:	e9c0 3304 	strd	r3, r3, [r0, #16]
 8001320:	e9c0 4306 	strd	r4, r3, [r0, #24]
 8001324:	e9c0 3308 	strd	r3, r3, [r0, #32]
 8001328:	e9c0 360a 	strd	r3, r6, [r0, #40]	@ 0x28
 800132c:	e9c0 2500 	strd	r2, r5, [r0]
 8001330:	f003 f88e 	bl	8004450 <HAL_SPI_Init>
 8001334:	4603      	mov	r3, r0
 8001336:	b108      	cbz	r0, 800133c <main+0x298>
 8001338:	b672      	cpsid	i
 800133a:	e7fe      	b.n	800133a <main+0x296>
 800133c:	4819      	ldr	r0, [pc, #100]	@ (80013a4 <main+0x300>)
 800133e:	4c1a      	ldr	r4, [pc, #104]	@ (80013a8 <main+0x304>)
 8001340:	6083      	str	r3, [r0, #8]
 8001342:	2218      	movs	r2, #24
 8001344:	e9c0 4200 	strd	r4, r2, [r0]
 8001348:	f04f 7580 	mov.w	r5, #16777216	@ 0x1000000
 800134c:	f44f 2220 	mov.w	r2, #655360	@ 0xa0000
 8001350:	e9c0 5203 	strd	r5, r2, [r0, #12]
 8001354:	f44f 1280 	mov.w	r2, #1048576	@ 0x100000
 8001358:	e9c0 2305 	strd	r2, r3, [r0, #20]
 800135c:	8383      	strh	r3, [r0, #28]
 800135e:	f000 ff8f 	bl	8002280 <HAL_CAN_Init>
 8001362:	b338      	cbz	r0, 80013b4 <main+0x310>
 8001364:	b672      	cpsid	i
 8001366:	e7fe      	b.n	8001366 <main+0x2c2>
 8001368:	40023800 	.word	0x40023800
 800136c:	40020800 	.word	0x40020800
 8001370:	40020000 	.word	0x40020000
 8001374:	40020400 	.word	0x40020400
 8001378:	20000598 	.word	0x20000598
 800137c:	000186a0 	.word	0x000186a0
 8001380:	20000524 	.word	0x20000524
 8001384:	40002800 	.word	0x40002800
 8001388:	200004cc 	.word	0x200004cc
 800138c:	40013000 	.word	0x40013000
 8001390:	2000036c 	.word	0x2000036c
 8001394:	200002dc 	.word	0x200002dc
 8001398:	40004400 	.word	0x40004400
 800139c:	20000474 	.word	0x20000474
 80013a0:	40003800 	.word	0x40003800
 80013a4:	200005ec 	.word	0x200005ec
 80013a8:	40006800 	.word	0x40006800
 80013ac:	40005400 	.word	0x40005400
 80013b0:	40001000 	.word	0x40001000
 80013b4:	4c73      	ldr	r4, [pc, #460]	@ (8001584 <main+0x4e0>)
 80013b6:	4974      	ldr	r1, [pc, #464]	@ (8001588 <main+0x4e4>)
 80013b8:	f245 2207 	movw	r2, #20999	@ 0x5207
 80013bc:	2300      	movs	r3, #0
 80013be:	e9c4 1200 	strd	r1, r2, [r4]
 80013c2:	4620      	mov	r0, r4
 80013c4:	f44f 627a 	mov.w	r2, #4000	@ 0xfa0
 80013c8:	e9cd 3309 	strd	r3, r3, [sp, #36]	@ 0x24
 80013cc:	60a3      	str	r3, [r4, #8]
 80013ce:	60e2      	str	r2, [r4, #12]
 80013d0:	61a3      	str	r3, [r4, #24]
 80013d2:	f003 fcd7 	bl	8004d84 <HAL_TIM_Base_Init>
 80013d6:	b108      	cbz	r0, 80013dc <main+0x338>
 80013d8:	b672      	cpsid	i
 80013da:	e7fe      	b.n	80013da <main+0x336>
 80013dc:	e9cd 0009 	strd	r0, r0, [sp, #36]	@ 0x24
 80013e0:	a909      	add	r1, sp, #36	@ 0x24
 80013e2:	4620      	mov	r0, r4
 80013e4:	f003 fcfa 	bl	8004ddc <HAL_TIMEx_MasterConfigSynchronization>
 80013e8:	b108      	cbz	r0, 80013ee <main+0x34a>
 80013ea:	b672      	cpsid	i
 80013ec:	e7fe      	b.n	80013ec <main+0x348>
 80013ee:	4c67      	ldr	r4, [pc, #412]	@ (800158c <main+0x4e8>)
 80013f0:	4a67      	ldr	r2, [pc, #412]	@ (8001590 <main+0x4ec>)
 80013f2:	4b68      	ldr	r3, [pc, #416]	@ (8001594 <main+0x4f0>)
 80013f4:	6220      	str	r0, [r4, #32]
 80013f6:	e9c4 2300 	strd	r2, r3, [r4]
 80013fa:	f44f 4380 	mov.w	r3, #16384	@ 0x4000
 80013fe:	e9c4 0002 	strd	r0, r0, [r4, #8]
 8001402:	e9c4 3004 	strd	r3, r0, [r4, #16]
 8001406:	e9c4 0006 	strd	r0, r0, [r4, #24]
 800140a:	4620      	mov	r0, r4
 800140c:	f001 feb8 	bl	8003180 <HAL_I2C_Init>
 8001410:	4601      	mov	r1, r0
 8001412:	b108      	cbz	r0, 8001418 <main+0x374>
 8001414:	b672      	cpsid	i
 8001416:	e7fe      	b.n	8001416 <main+0x372>
 8001418:	4620      	mov	r0, r4
 800141a:	f002 f9ad 	bl	8003778 <HAL_I2CEx_ConfigAnalogFilter>
 800141e:	4601      	mov	r1, r0
 8001420:	b108      	cbz	r0, 8001426 <main+0x382>
 8001422:	b672      	cpsid	i
 8001424:	e7fe      	b.n	8001424 <main+0x380>
 8001426:	4620      	mov	r0, r4
 8001428:	f002 f9c5 	bl	80037b6 <HAL_I2CEx_ConfigDigitalFilter>
 800142c:	b108      	cbz	r0, 8001432 <main+0x38e>
 800142e:	b672      	cpsid	i
 8001430:	e7fe      	b.n	8001430 <main+0x38c>
 8001432:	f7ff fc4d 	bl	8000cd0 <systemInit>
 8001436:	4f58      	ldr	r7, [pc, #352]	@ (8001598 <main+0x4f4>)
 8001438:	f8df 81b4 	ldr.w	r8, [pc, #436]	@ 80015f0 <main+0x54c>
 800143c:	783b      	ldrb	r3, [r7, #0]
 800143e:	2b01      	cmp	r3, #1
 8001440:	d104      	bne.n	800144c <main+0x3a8>
 8001442:	4856      	ldr	r0, [pc, #344]	@ (800159c <main+0x4f8>)
 8001444:	f000 fa88 	bl	8001958 <initialise_rtc_default>
 8001448:	2300      	movs	r3, #0
 800144a:	703b      	strb	r3, [r7, #0]
 800144c:	4c54      	ldr	r4, [pc, #336]	@ (80015a0 <main+0x4fc>)
 800144e:	7823      	ldrb	r3, [r4, #0]
 8001450:	2b01      	cmp	r3, #1
 8001452:	d103      	bne.n	800145c <main+0x3b8>
 8001454:	f7ff fd1a 	bl	8000e8c <handleUART>
 8001458:	2300      	movs	r3, #0
 800145a:	7023      	strb	r3, [r4, #0]
 800145c:	f898 3000 	ldrb.w	r3, [r8]
 8001460:	2b01      	cmp	r3, #1
 8001462:	d111      	bne.n	8001488 <main+0x3e4>
 8001464:	4b4f      	ldr	r3, [pc, #316]	@ (80015a4 <main+0x500>)
 8001466:	781a      	ldrb	r2, [r3, #0]
 8001468:	2a01      	cmp	r2, #1
 800146a:	d103      	bne.n	8001474 <main+0x3d0>
 800146c:	4b4e      	ldr	r3, [pc, #312]	@ (80015a8 <main+0x504>)
 800146e:	7819      	ldrb	r1, [r3, #0]
 8001470:	b901      	cbnz	r1, 8001474 <main+0x3d0>
 8001472:	701a      	strb	r2, [r3, #0]
 8001474:	f7ff fb9c 	bl	8000bb0 <handleCAN>
 8001478:	4b4c      	ldr	r3, [pc, #304]	@ (80015ac <main+0x508>)
 800147a:	8899      	ldrh	r1, [r3, #4]
 800147c:	6818      	ldr	r0, [r3, #0]
 800147e:	f001 fd46 	bl	8002f0e <HAL_GPIO_TogglePin>
 8001482:	2300      	movs	r3, #0
 8001484:	f888 3000 	strb.w	r3, [r8]
 8001488:	4c49      	ldr	r4, [pc, #292]	@ (80015b0 <main+0x50c>)
 800148a:	7825      	ldrb	r5, [r4, #0]
 800148c:	2d01      	cmp	r5, #1
 800148e:	d118      	bne.n	80014c2 <main+0x41e>
 8001490:	4b48      	ldr	r3, [pc, #288]	@ (80015b4 <main+0x510>)
 8001492:	8899      	ldrh	r1, [r3, #4]
 8001494:	6818      	ldr	r0, [r3, #0]
 8001496:	f001 fd3a 	bl	8002f0e <HAL_GPIO_TogglePin>
 800149a:	4b47      	ldr	r3, [pc, #284]	@ (80015b8 <main+0x514>)
 800149c:	4a47      	ldr	r2, [pc, #284]	@ (80015bc <main+0x518>)
 800149e:	681b      	ldr	r3, [r3, #0]
 80014a0:	6812      	ldr	r2, [r2, #0]
 80014a2:	4947      	ldr	r1, [pc, #284]	@ (80015c0 <main+0x51c>)
 80014a4:	4847      	ldr	r0, [pc, #284]	@ (80015c4 <main+0x520>)
 80014a6:	f000 f8ab 	bl	8001600 <systemStatus>
 80014aa:	4b47      	ldr	r3, [pc, #284]	@ (80015c8 <main+0x524>)
 80014ac:	7018      	strb	r0, [r3, #0]
 80014ae:	4b47      	ldr	r3, [pc, #284]	@ (80015cc <main+0x528>)
 80014b0:	2800      	cmp	r0, #0
 80014b2:	d164      	bne.n	800157e <main+0x4da>
 80014b4:	462a      	mov	r2, r5
 80014b6:	8899      	ldrh	r1, [r3, #4]
 80014b8:	6818      	ldr	r0, [r3, #0]
 80014ba:	f001 fd23 	bl	8002f04 <HAL_GPIO_WritePin>
 80014be:	2300      	movs	r3, #0
 80014c0:	7023      	strb	r3, [r4, #0]
 80014c2:	4c43      	ldr	r4, [pc, #268]	@ (80015d0 <main+0x52c>)
 80014c4:	7823      	ldrb	r3, [r4, #0]
 80014c6:	2b01      	cmp	r3, #1
 80014c8:	d108      	bne.n	80014dc <main+0x438>
 80014ca:	4b3c      	ldr	r3, [pc, #240]	@ (80015bc <main+0x518>)
 80014cc:	4a33      	ldr	r2, [pc, #204]	@ (800159c <main+0x4f8>)
 80014ce:	6819      	ldr	r1, [r3, #0]
 80014d0:	4b39      	ldr	r3, [pc, #228]	@ (80015b8 <main+0x514>)
 80014d2:	6818      	ldr	r0, [r3, #0]
 80014d4:	f000 f9e0 	bl	8001898 <readAllSensors>
 80014d8:	2300      	movs	r3, #0
 80014da:	7023      	strb	r3, [r4, #0]
 80014dc:	f8df 9114 	ldr.w	r9, [pc, #276]	@ 80015f4 <main+0x550>
 80014e0:	4c3c      	ldr	r4, [pc, #240]	@ (80015d4 <main+0x530>)
 80014e2:	f8b9 3000 	ldrh.w	r3, [r9]
 80014e6:	2beb      	cmp	r3, #235	@ 0xeb
 80014e8:	d93b      	bls.n	8001562 <main+0x4be>
 80014ea:	4b3b      	ldr	r3, [pc, #236]	@ (80015d8 <main+0x534>)
 80014ec:	4d3b      	ldr	r5, [pc, #236]	@ (80015dc <main+0x538>)
 80014ee:	6818      	ldr	r0, [r3, #0]
 80014f0:	8899      	ldrh	r1, [r3, #4]
 80014f2:	b289      	uxth	r1, r1
 80014f4:	f001 fd00 	bl	8002ef8 <HAL_GPIO_ReadPin>
 80014f8:	4b39      	ldr	r3, [pc, #228]	@ (80015e0 <main+0x53c>)
 80014fa:	781b      	ldrb	r3, [r3, #0]
 80014fc:	2b00      	cmp	r3, #0
 80014fe:	bf14      	ite	ne
 8001500:	2200      	movne	r2, #0
 8001502:	f000 0201 	andeq.w	r2, r0, #1
 8001506:	b32a      	cbz	r2, 8001554 <main+0x4b0>
 8001508:	4e28      	ldr	r6, [pc, #160]	@ (80015ac <main+0x508>)
 800150a:	f8df a0ec 	ldr.w	sl, [pc, #236]	@ 80015f8 <main+0x554>
 800150e:	88b1      	ldrh	r1, [r6, #4]
 8001510:	6830      	ldr	r0, [r6, #0]
 8001512:	f001 fcf7 	bl	8002f04 <HAL_GPIO_WritePin>
 8001516:	4b33      	ldr	r3, [pc, #204]	@ (80015e4 <main+0x540>)
 8001518:	7828      	ldrb	r0, [r5, #0]
 800151a:	685a      	ldr	r2, [r3, #4]
 800151c:	9200      	str	r2, [sp, #0]
 800151e:	681b      	ldr	r3, [r3, #0]
 8001520:	6822      	ldr	r2, [r4, #0]
 8001522:	4928      	ldr	r1, [pc, #160]	@ (80015c4 <main+0x520>)
 8001524:	eb0a 2000 	add.w	r0, sl, r0, lsl #8
 8001528:	f7ff f99a 	bl	8000860 <write_data_spi_dma>
 800152c:	4b2e      	ldr	r3, [pc, #184]	@ (80015e8 <main+0x544>)
 800152e:	7828      	ldrb	r0, [r5, #0]
 8001530:	685a      	ldr	r2, [r3, #4]
 8001532:	9200      	str	r2, [sp, #0]
 8001534:	681b      	ldr	r3, [r3, #0]
 8001536:	6822      	ldr	r2, [r4, #0]
 8001538:	4921      	ldr	r1, [pc, #132]	@ (80015c0 <main+0x51c>)
 800153a:	eb0a 2000 	add.w	r0, sl, r0, lsl #8
 800153e:	f7ff f98f 	bl	8000860 <write_data_spi_dma>
 8001542:	6823      	ldr	r3, [r4, #0]
 8001544:	88b1      	ldrh	r1, [r6, #4]
 8001546:	6830      	ldr	r0, [r6, #0]
 8001548:	f503 7380 	add.w	r3, r3, #256	@ 0x100
 800154c:	2200      	movs	r2, #0
 800154e:	6023      	str	r3, [r4, #0]
 8001550:	f001 fcd8 	bl	8002f04 <HAL_GPIO_WritePin>
 8001554:	782b      	ldrb	r3, [r5, #0]
 8001556:	f083 0301 	eor.w	r3, r3, #1
 800155a:	702b      	strb	r3, [r5, #0]
 800155c:	2300      	movs	r3, #0
 800155e:	f8a9 3000 	strh.w	r3, [r9]
 8001562:	6822      	ldr	r2, [r4, #0]
 8001564:	4b21      	ldr	r3, [pc, #132]	@ (80015ec <main+0x548>)
 8001566:	429a      	cmp	r2, r3
 8001568:	f47f af68 	bne.w	800143c <main+0x398>
 800156c:	4b1c      	ldr	r3, [pc, #112]	@ (80015e0 <main+0x53c>)
 800156e:	781b      	ldrb	r3, [r3, #0]
 8001570:	2b00      	cmp	r3, #0
 8001572:	f47f af63 	bne.w	800143c <main+0x398>
 8001576:	f7ff fb97 	bl	8000ca8 <find_next_blank_page_all>
 800157a:	6020      	str	r0, [r4, #0]
 800157c:	e75e      	b.n	800143c <main+0x398>
 800157e:	2200      	movs	r2, #0
 8001580:	e799      	b.n	80014b6 <main+0x412>
 8001582:	bf00      	nop
 8001584:	20000324 	.word	0x20000324
 8001588:	40001400 	.word	0x40001400
 800158c:	20000544 	.word	0x20000544
 8001590:	40005c00 	.word	0x40005c00
 8001594:	000186a0 	.word	0x000186a0
 8001598:	20000047 	.word	0x20000047
 800159c:	20000524 	.word	0x20000524
 80015a0:	200002d0 	.word	0x200002d0
 80015a4:	200002a6 	.word	0x200002a6
 80015a8:	20000045 	.word	0x20000045
 80015ac:	20000078 	.word	0x20000078
 80015b0:	200002a4 	.word	0x200002a4
 80015b4:	20000080 	.word	0x20000080
 80015b8:	200002d8 	.word	0x200002d8
 80015bc:	200002d4 	.word	0x200002d4
 80015c0:	20000474 	.word	0x20000474
 80015c4:	200004cc 	.word	0x200004cc
 80015c8:	20000046 	.word	0x20000046
 80015cc:	20000070 	.word	0x20000070
 80015d0:	200002a5 	.word	0x200002a5
 80015d4:	2000008c 	.word	0x2000008c
 80015d8:	20000048 	.word	0x20000048
 80015dc:	200000a3 	.word	0x200000a3
 80015e0:	20000088 	.word	0x20000088
 80015e4:	20000068 	.word	0x20000068
 80015e8:	20000058 	.word	0x20000058
 80015ec:	00ffff00 	.word	0x00ffff00
 80015f0:	200002a7 	.word	0x200002a7
 80015f4:	2000008a 	.word	0x2000008a
 80015f8:	200000a4 	.word	0x200000a4

080015fc <Error_Handler>:
 80015fc:	b672      	cpsid	i
 80015fe:	e7fe      	b.n	80015fe <Error_Handler+0x2>

08001600 <systemStatus>:
 8001600:	e92d 41f3 	stmdb	sp!, {r0, r1, r4, r5, r6, r7, r8, lr}
 8001604:	4607      	mov	r7, r0
 8001606:	4688      	mov	r8, r1
 8001608:	4610      	mov	r0, r2
 800160a:	2101      	movs	r1, #1
 800160c:	4615      	mov	r5, r2
 800160e:	461e      	mov	r6, r3
 8001610:	f7ff f820 	bl	8000654 <readBME280_id_reg>
 8001614:	2100      	movs	r1, #0
 8001616:	f1b0 0460 	subs.w	r4, r0, #96	@ 0x60
 800161a:	4628      	mov	r0, r5
 800161c:	bf18      	it	ne
 800161e:	2401      	movne	r4, #1
 8001620:	f7ff f818 	bl	8000654 <readBME280_id_reg>
 8001624:	0124      	lsls	r4, r4, #4
 8001626:	2860      	cmp	r0, #96	@ 0x60
 8001628:	4630      	mov	r0, r6
 800162a:	bf18      	it	ne
 800162c:	f044 0408 	orrne.w	r4, r4, #8
 8001630:	f7fe ff72 	bl	8000518 <readAccel_whoami>
 8001634:	4b12      	ldr	r3, [pc, #72]	@ (8001680 <systemStatus+0x80>)
 8001636:	28e5      	cmp	r0, #229	@ 0xe5
 8001638:	cb0c      	ldmia	r3, {r2, r3}
 800163a:	f04f 0500 	mov.w	r5, #0
 800163e:	4641      	mov	r1, r8
 8001640:	4668      	mov	r0, sp
 8001642:	bf18      	it	ne
 8001644:	f044 0404 	orrne.w	r4, r4, #4
 8001648:	f8ad 5000 	strh.w	r5, [sp]
 800164c:	f7ff f986 	bl	800095c <read_manufacturer_id>
 8001650:	f89d 3000 	ldrb.w	r3, [sp]
 8001654:	f8ad 5004 	strh.w	r5, [sp, #4]
 8001658:	2bef      	cmp	r3, #239	@ 0xef
 800165a:	4b0a      	ldr	r3, [pc, #40]	@ (8001684 <systemStatus+0x84>)
 800165c:	a801      	add	r0, sp, #4
 800165e:	cb0c      	ldmia	r3, {r2, r3}
 8001660:	4639      	mov	r1, r7
 8001662:	bf18      	it	ne
 8001664:	f044 0402 	orrne.w	r4, r4, #2
 8001668:	f7ff f978 	bl	800095c <read_manufacturer_id>
 800166c:	f89d 3004 	ldrb.w	r3, [sp, #4]
 8001670:	2bef      	cmp	r3, #239	@ 0xef
 8001672:	bf18      	it	ne
 8001674:	f044 0401 	orrne.w	r4, r4, #1
 8001678:	4620      	mov	r0, r4
 800167a:	b002      	add	sp, #8
 800167c:	e8bd 81f0 	ldmia.w	sp!, {r4, r5, r6, r7, r8, pc}
 8001680:	20000058 	.word	0x20000058
 8001684:	20000068 	.word	0x20000068

08001688 <heartbeatUART>:
 8001688:	2151      	movs	r1, #81	@ 0x51
 800168a:	f000 bd5e 	b.w	800214a <send_uart_hex>
	...

08001690 <eraseFlashSPI>:
 8001690:	b513      	push	{r0, r1, r4, lr}
 8001692:	460c      	mov	r4, r1
 8001694:	4669      	mov	r1, sp
 8001696:	e881 000c 	stmia.w	r1, {r2, r3}
 800169a:	c906      	ldmia	r1, {r1, r2}
 800169c:	f7ff f898 	bl	80007d0 <erase_chip_spi>
 80016a0:	b930      	cbnz	r0, 80016b0 <eraseFlashSPI+0x20>
 80016a2:	4904      	ldr	r1, [pc, #16]	@ (80016b4 <eraseFlashSPI+0x24>)
 80016a4:	4620      	mov	r0, r4
 80016a6:	b002      	add	sp, #8
 80016a8:	e8bd 4010 	ldmia.w	sp!, {r4, lr}
 80016ac:	f000 bd3e 	b.w	800212c <send_uart_string>
 80016b0:	4901      	ldr	r1, [pc, #4]	@ (80016b8 <eraseFlashSPI+0x28>)
 80016b2:	e7f7      	b.n	80016a4 <eraseFlashSPI+0x14>
 80016b4:	08005500 	.word	0x08005500
 80016b8:	08005518 	.word	0x08005518

080016bc <readFlashToUART>:
 80016bc:	e92d 41f0 	stmdb	sp!, {r4, r5, r6, r7, r8, lr}
 80016c0:	b0c4      	sub	sp, #272	@ 0x110
 80016c2:	ae02      	add	r6, sp, #8
 80016c4:	e886 000c 	stmia.w	r6, {r2, r3}
 80016c8:	4b0e      	ldr	r3, [pc, #56]	@ (8001704 <readFlashToUART+0x48>)
 80016ca:	681c      	ldr	r4, [r3, #0]
 80016cc:	2c00      	cmp	r4, #0
 80016ce:	bf08      	it	eq
 80016d0:	f44f 7480 	moveq.w	r4, #256	@ 0x100
 80016d4:	4607      	mov	r7, r0
 80016d6:	4688      	mov	r8, r1
 80016d8:	0a24      	lsrs	r4, r4, #8
 80016da:	2500      	movs	r5, #0
 80016dc:	42a5      	cmp	r5, r4
 80016de:	ea4f 2205 	mov.w	r2, r5, lsl #8
 80016e2:	d102      	bne.n	80016ea <readFlashToUART+0x2e>
 80016e4:	b044      	add	sp, #272	@ 0x110
 80016e6:	e8bd 81f0 	ldmia.w	sp!, {r4, r5, r6, r7, r8, pc}
 80016ea:	6873      	ldr	r3, [r6, #4]
 80016ec:	9300      	str	r3, [sp, #0]
 80016ee:	6833      	ldr	r3, [r6, #0]
 80016f0:	4639      	mov	r1, r7
 80016f2:	a804      	add	r0, sp, #16
 80016f4:	f7ff f910 	bl	8000918 <read_page_spi>
 80016f8:	a904      	add	r1, sp, #16
 80016fa:	4640      	mov	r0, r8
 80016fc:	f000 fd10 	bl	8002120 <uart_transmit_page>
 8001700:	3501      	adds	r5, #1
 8001702:	e7eb      	b.n	80016dc <readFlashToUART+0x20>
 8001704:	2000008c 	.word	0x2000008c

08001708 <readFlashManuSPI>:
 8001708:	b51f      	push	{r0, r1, r2, r3, r4, lr}
 800170a:	460c      	mov	r4, r1
 800170c:	4669      	mov	r1, sp
 800170e:	e881 000c 	stmia.w	r1, {r2, r3}
 8001712:	2300      	movs	r3, #0
 8001714:	f8ad 300c 	strh.w	r3, [sp, #12]
 8001718:	e891 000c 	ldmia.w	r1, {r2, r3}
 800171c:	4601      	mov	r1, r0
 800171e:	a803      	add	r0, sp, #12
 8001720:	f7ff f91c 	bl	800095c <read_manufacturer_id>
 8001724:	f89d 100c 	ldrb.w	r1, [sp, #12]
 8001728:	4620      	mov	r0, r4
 800172a:	f000 fd0e 	bl	800214a <send_uart_hex>
 800172e:	f89d 100d 	ldrb.w	r1, [sp, #13]
 8001732:	4620      	mov	r0, r4
 8001734:	f000 fd09 	bl	800214a <send_uart_hex>
 8001738:	b004      	add	sp, #16
 800173a:	bd10      	pop	{r4, pc}

0800173c <writePageSPI_W>:
 800173c:	b5f0      	push	{r4, r5, r6, r7, lr}
 800173e:	b0c5      	sub	sp, #276	@ 0x114
 8001740:	ac02      	add	r4, sp, #8
 8001742:	e884 000c 	stmia.w	r4, {r2, r3}
 8001746:	4607      	mov	r7, r0
 8001748:	460d      	mov	r5, r1
 800174a:	f44f 7280 	mov.w	r2, #256	@ 0x100
 800174e:	2177      	movs	r1, #119	@ 0x77
 8001750:	a804      	add	r0, sp, #16
 8001752:	f003 fe99 	bl	8005488 <memset>
 8001756:	4e09      	ldr	r6, [pc, #36]	@ (800177c <writePageSPI_W+0x40>)
 8001758:	6863      	ldr	r3, [r4, #4]
 800175a:	9300      	str	r3, [sp, #0]
 800175c:	6823      	ldr	r3, [r4, #0]
 800175e:	6832      	ldr	r2, [r6, #0]
 8001760:	4639      	mov	r1, r7
 8001762:	a804      	add	r0, sp, #16
 8001764:	f7ff f87c 	bl	8000860 <write_data_spi_dma>
 8001768:	6833      	ldr	r3, [r6, #0]
 800176a:	4905      	ldr	r1, [pc, #20]	@ (8001780 <writePageSPI_W+0x44>)
 800176c:	f503 7380 	add.w	r3, r3, #256	@ 0x100
 8001770:	4628      	mov	r0, r5
 8001772:	6033      	str	r3, [r6, #0]
 8001774:	f000 fcda 	bl	800212c <send_uart_string>
 8001778:	b045      	add	sp, #276	@ 0x114
 800177a:	bdf0      	pop	{r4, r5, r6, r7, pc}
 800177c:	2000008c 	.word	0x2000008c
 8001780:	0800555e 	.word	0x0800555e

08001784 <resetSPIFlash>:
 8001784:	b537      	push	{r0, r1, r2, r4, r5, lr}
 8001786:	466c      	mov	r4, sp
 8001788:	e884 000c 	stmia.w	r4, {r2, r3}
 800178c:	460d      	mov	r5, r1
 800178e:	e894 0006 	ldmia.w	r4, {r1, r2}
 8001792:	f7ff f841 	bl	8000818 <software_reset>
 8001796:	4903      	ldr	r1, [pc, #12]	@ (80017a4 <resetSPIFlash+0x20>)
 8001798:	4628      	mov	r0, r5
 800179a:	b003      	add	sp, #12
 800179c:	e8bd 4030 	ldmia.w	sp!, {r4, r5, lr}
 80017a0:	f000 bcc4 	b.w	800212c <send_uart_string>
 80017a4:	08005578 	.word	0x08005578

080017a8 <checkAccelWhoAmI>:
 80017a8:	b510      	push	{r4, lr}
 80017aa:	460c      	mov	r4, r1
 80017ac:	f7fe feb4 	bl	8000518 <readAccel_whoami>
 80017b0:	4601      	mov	r1, r0
 80017b2:	4620      	mov	r0, r4
 80017b4:	e8bd 4010 	ldmia.w	sp!, {r4, lr}
 80017b8:	f000 bcc7 	b.w	800214a <send_uart_hex>

080017bc <accelToUART>:
 80017bc:	b570      	push	{r4, r5, r6, lr}
 80017be:	4e06      	ldr	r6, [pc, #24]	@ (80017d8 <accelToUART+0x1c>)
 80017c0:	4605      	mov	r5, r0
 80017c2:	2400      	movs	r4, #0
 80017c4:	f816 1b01 	ldrb.w	r1, [r6], #1
 80017c8:	4628      	mov	r0, r5
 80017ca:	3401      	adds	r4, #1
 80017cc:	f000 fcbd 	bl	800214a <send_uart_hex>
 80017d0:	2c06      	cmp	r4, #6
 80017d2:	d1f7      	bne.n	80017c4 <accelToUART+0x8>
 80017d4:	bd70      	pop	{r4, r5, r6, pc}
 80017d6:	bf00      	nop
 80017d8:	2000009d 	.word	0x2000009d

080017dc <readTempSensorID>:
 80017dc:	b510      	push	{r4, lr}
 80017de:	460c      	mov	r4, r1
 80017e0:	4611      	mov	r1, r2
 80017e2:	f7fe ff37 	bl	8000654 <readBME280_id_reg>
 80017e6:	4601      	mov	r1, r0
 80017e8:	4620      	mov	r0, r4
 80017ea:	e8bd 4010 	ldmia.w	sp!, {r4, lr}
 80017ee:	f000 bcac 	b.w	800214a <send_uart_hex>

080017f2 <readTempCalibration>:
 80017f2:	b570      	push	{r4, r5, r6, lr}
 80017f4:	b08a      	sub	sp, #40	@ 0x28
 80017f6:	4604      	mov	r4, r0
 80017f8:	460d      	mov	r5, r1
 80017fa:	4616      	mov	r6, r2
 80017fc:	2100      	movs	r1, #0
 80017fe:	2219      	movs	r2, #25
 8001800:	a803      	add	r0, sp, #12
 8001802:	f003 fe41 	bl	8005488 <memset>
 8001806:	2300      	movs	r3, #0
 8001808:	a901      	add	r1, sp, #4
 800180a:	4618      	mov	r0, r3
 800180c:	2b06      	cmp	r3, #6
 800180e:	f103 0201 	add.w	r2, r3, #1
 8001812:	d802      	bhi.n	800181a <readTempCalibration+0x28>
 8001814:	5458      	strb	r0, [r3, r1]
 8001816:	4613      	mov	r3, r2
 8001818:	e7f8      	b.n	800180c <readTempCalibration+0x1a>
 800181a:	2a19      	cmp	r2, #25
 800181c:	4613      	mov	r3, r2
 800181e:	d1f5      	bne.n	800180c <readTempCalibration+0x1a>
 8001820:	4631      	mov	r1, r6
 8001822:	4620      	mov	r0, r4
 8001824:	ab01      	add	r3, sp, #4
 8001826:	aa03      	add	r2, sp, #12
 8001828:	f7fe ff2a 	bl	8000680 <readBME280_calib>
 800182c:	ac03      	add	r4, sp, #12
 800182e:	2600      	movs	r6, #0
 8001830:	f814 1b01 	ldrb.w	r1, [r4], #1
 8001834:	4628      	mov	r0, r5
 8001836:	3601      	adds	r6, #1
 8001838:	f000 fc87 	bl	800214a <send_uart_hex>
 800183c:	2e19      	cmp	r6, #25
 800183e:	d1f7      	bne.n	8001830 <readTempCalibration+0x3e>
 8001840:	ac01      	add	r4, sp, #4
 8001842:	2600      	movs	r6, #0
 8001844:	f814 1b01 	ldrb.w	r1, [r4], #1
 8001848:	4628      	mov	r0, r5
 800184a:	3601      	adds	r6, #1
 800184c:	f000 fc7d 	bl	800214a <send_uart_hex>
 8001850:	2e07      	cmp	r6, #7
 8001852:	d1f7      	bne.n	8001844 <readTempCalibration+0x52>
 8001854:	b00a      	add	sp, #40	@ 0x28
 8001856:	bd70      	pop	{r4, r5, r6, pc}

08001858 <readTempSensor>:
 8001858:	b570      	push	{r4, r5, r6, lr}
 800185a:	4605      	mov	r5, r0
 800185c:	460c      	mov	r4, r1
 800185e:	b949      	cbnz	r1, 8001874 <readTempSensor+0x1c>
 8001860:	4e0b      	ldr	r6, [pc, #44]	@ (8001890 <readTempSensor+0x38>)
 8001862:	f816 1b01 	ldrb.w	r1, [r6], #1
 8001866:	4628      	mov	r0, r5
 8001868:	3401      	adds	r4, #1
 800186a:	f000 fc6e 	bl	800214a <send_uart_hex>
 800186e:	2c06      	cmp	r4, #6
 8001870:	d1f7      	bne.n	8001862 <readTempSensor+0xa>
 8001872:	bd70      	pop	{r4, r5, r6, pc}
 8001874:	2901      	cmp	r1, #1
 8001876:	d1fc      	bne.n	8001872 <readTempSensor+0x1a>
 8001878:	4e06      	ldr	r6, [pc, #24]	@ (8001894 <readTempSensor+0x3c>)
 800187a:	2400      	movs	r4, #0
 800187c:	f816 1b01 	ldrb.w	r1, [r6], #1
 8001880:	4628      	mov	r0, r5
 8001882:	3401      	adds	r4, #1
 8001884:	f000 fc61 	bl	800214a <send_uart_hex>
 8001888:	2c06      	cmp	r4, #6
 800188a:	d1f7      	bne.n	800187c <readTempSensor+0x24>
 800188c:	e7f1      	b.n	8001872 <readTempSensor+0x1a>
 800188e:	bf00      	nop
 8001890:	20000097 	.word	0x20000097
 8001894:	20000091 	.word	0x20000091

08001898 <readAllSensors>:
 8001898:	e92d 43f8 	stmdb	sp!, {r3, r4, r5, r6, r7, r8, r9, lr}
 800189c:	f8df 80b4 	ldr.w	r8, [pc, #180]	@ 8001954 <readAllSensors+0xbc>
 80018a0:	4f27      	ldr	r7, [pc, #156]	@ (8001940 <readAllSensors+0xa8>)
 80018a2:	4e28      	ldr	r6, [pc, #160]	@ (8001944 <readAllSensors+0xac>)
 80018a4:	460c      	mov	r4, r1
 80018a6:	4601      	mov	r1, r0
 80018a8:	4640      	mov	r0, r8
 80018aa:	4615      	mov	r5, r2
 80018ac:	f7fe fe1e 	bl	80004ec <readAccelerometer>
 80018b0:	2200      	movs	r2, #0
 80018b2:	4621      	mov	r1, r4
 80018b4:	4638      	mov	r0, r7
 80018b6:	f7fe ff01 	bl	80006bc <readTempHumPres>
 80018ba:	4823      	ldr	r0, [pc, #140]	@ (8001948 <readAllSensors+0xb0>)
 80018bc:	2201      	movs	r2, #1
 80018be:	4621      	mov	r1, r4
 80018c0:	f7fe fefc 	bl	80006bc <readTempHumPres>
 80018c4:	4628      	mov	r0, r5
 80018c6:	f000 f877 	bl	80019b8 <getTimestampMilliseconds>
 80018ca:	8835      	ldrh	r5, [r6, #0]
 80018cc:	2dea      	cmp	r5, #234	@ 0xea
 80018ce:	d834      	bhi.n	800193a <readAllSensors+0xa2>
 80018d0:	4b1e      	ldr	r3, [pc, #120]	@ (800194c <readAllSensors+0xb4>)
 80018d2:	4c1f      	ldr	r4, [pc, #124]	@ (8001950 <readAllSensors+0xb8>)
 80018d4:	781a      	ldrb	r2, [r3, #0]
 80018d6:	f8d8 c000 	ldr.w	ip, [r8]
 80018da:	eb04 2302 	add.w	r3, r4, r2, lsl #8
 80018de:	1959      	adds	r1, r3, r5
 80018e0:	5558      	strb	r0, [r3, r5]
 80018e2:	f3c0 2007 	ubfx	r0, r0, #8, #8
 80018e6:	7048      	strb	r0, [r1, #1]
 80018e8:	eb05 2302 	add.w	r3, r5, r2, lsl #8
 80018ec:	1ca1      	adds	r1, r4, #2
 80018ee:	1858      	adds	r0, r3, r1
 80018f0:	f841 c003 	str.w	ip, [r1, r3]
 80018f4:	f8b8 1004 	ldrh.w	r1, [r8, #4]
 80018f8:	8081      	strh	r1, [r0, #4]
 80018fa:	f104 0108 	add.w	r1, r4, #8
 80018fe:	f8d7 c000 	ldr.w	ip, [r7]
 8001902:	f841 c003 	str.w	ip, [r1, r3]
 8001906:	1858      	adds	r0, r3, r1
 8001908:	88bb      	ldrh	r3, [r7, #4]
 800190a:	8083      	strh	r3, [r0, #4]
 800190c:	f105 030d 	add.w	r3, r5, #13
 8001910:	eb03 2302 	add.w	r3, r3, r2, lsl #8
 8001914:	490c      	ldr	r1, [pc, #48]	@ (8001948 <readAllSensors+0xb0>)
 8001916:	ea4f 2902 	mov.w	r9, r2, lsl #8
 800191a:	4423      	add	r3, r4
 800191c:	2206      	movs	r2, #6
 800191e:	f811 0b01 	ldrb.w	r0, [r1], #1
 8001922:	f803 0f01 	strb.w	r0, [r3, #1]!
 8001926:	3a01      	subs	r2, #1
 8001928:	d1f9      	bne.n	800191e <readAllSensors+0x86>
 800192a:	f7ff f995 	bl	8000c58 <combine_system_status>
 800192e:	444c      	add	r4, r9
 8001930:	8833      	ldrh	r3, [r6, #0]
 8001932:	442c      	add	r4, r5
 8001934:	3315      	adds	r3, #21
 8001936:	7520      	strb	r0, [r4, #20]
 8001938:	8033      	strh	r3, [r6, #0]
 800193a:	e8bd 83f8 	ldmia.w	sp!, {r3, r4, r5, r6, r7, r8, r9, pc}
 800193e:	bf00      	nop
 8001940:	20000097 	.word	0x20000097
 8001944:	2000008a 	.word	0x2000008a
 8001948:	20000091 	.word	0x20000091
 800194c:	200000a3 	.word	0x200000a3
 8001950:	200000a4 	.word	0x200000a4
 8001954:	2000009d 	.word	0x2000009d

08001958 <initialise_rtc_default>:
 8001958:	b537      	push	{r0, r1, r2, r4, r5, lr}
 800195a:	4b13      	ldr	r3, [pc, #76]	@ (80019a8 <initialise_rtc_default+0x50>)
 800195c:	2500      	movs	r5, #0
 800195e:	9501      	str	r5, [sp, #4]
 8001960:	6c1a      	ldr	r2, [r3, #64]	@ 0x40
 8001962:	f042 5280 	orr.w	r2, r2, #268435456	@ 0x10000000
 8001966:	641a      	str	r2, [r3, #64]	@ 0x40
 8001968:	6c1b      	ldr	r3, [r3, #64]	@ 0x40
 800196a:	f003 5380 	and.w	r3, r3, #268435456	@ 0x10000000
 800196e:	9301      	str	r3, [sp, #4]
 8001970:	4604      	mov	r4, r0
 8001972:	9b01      	ldr	r3, [sp, #4]
 8001974:	f001 ff3e 	bl	80037f4 <HAL_PWR_EnableBkUpAccess>
 8001978:	4b0c      	ldr	r3, [pc, #48]	@ (80019ac <initialise_rtc_default+0x54>)
 800197a:	2201      	movs	r2, #1
 800197c:	f8c3 2e40 	str.w	r2, [r3, #3648]	@ 0xe40
 8001980:	4620      	mov	r0, r4
 8001982:	f8c3 5e40 	str.w	r5, [r3, #3648]	@ 0xe40
 8001986:	f000 f9e5 	bl	8001d54 <HAL_RTC_MspInit>
 800198a:	462a      	mov	r2, r5
 800198c:	4908      	ldr	r1, [pc, #32]	@ (80019b0 <initialise_rtc_default+0x58>)
 800198e:	4620      	mov	r0, r4
 8001990:	f002 fbae 	bl	80040f0 <HAL_RTC_SetTime>
 8001994:	4907      	ldr	r1, [pc, #28]	@ (80019b4 <initialise_rtc_default+0x5c>)
 8001996:	462a      	mov	r2, r5
 8001998:	4620      	mov	r0, r4
 800199a:	f002 fc03 	bl	80041a4 <HAL_RTC_SetDate>
 800199e:	b003      	add	sp, #12
 80019a0:	e8bd 4030 	ldmia.w	sp!, {r4, r5, lr}
 80019a4:	f001 bf34 	b.w	8003810 <HAL_PWR_DisableBkUpAccess>
 80019a8:	40023800 	.word	0x40023800
 80019ac:	42470000 	.word	0x42470000
 80019b0:	20000614 	.word	0x20000614
 80019b4:	20000018 	.word	0x20000018

080019b8 <getTimestampMilliseconds>:
 80019b8:	b510      	push	{r4, lr}
 80019ba:	b086      	sub	sp, #24
 80019bc:	4604      	mov	r4, r0
 80019be:	a901      	add	r1, sp, #4
 80019c0:	2200      	movs	r2, #0
 80019c2:	f002 fc3f 	bl	8004244 <HAL_RTC_GetTime>
 80019c6:	4669      	mov	r1, sp
 80019c8:	2200      	movs	r2, #0
 80019ca:	4620      	mov	r0, r4
 80019cc:	f002 fc5d 	bl	800428a <HAL_RTC_GetDate>
 80019d0:	e9dd 2302 	ldrd	r2, r3, [sp, #8]
 80019d4:	1a9a      	subs	r2, r3, r2
 80019d6:	ee07 2a90 	vmov	s15, r2
 80019da:	3301      	adds	r3, #1
 80019dc:	eeb8 7a67 	vcvt.f32.u32	s14, s15
 80019e0:	ee07 3a90 	vmov	s15, r3
 80019e4:	eef8 7a67 	vcvt.f32.u32	s15, s15
 80019e8:	f89d 1005 	ldrb.w	r1, [sp, #5]
 80019ec:	f89d 2006 	ldrb.w	r2, [sp, #6]
 80019f0:	eec7 6a27 	vdiv.f32	s13, s14, s15
 80019f4:	233c      	movs	r3, #60	@ 0x3c
 80019f6:	fb13 2301 	smlabb	r3, r3, r1, r2
 80019fa:	f89d 2004 	ldrb.w	r2, [sp, #4]
 80019fe:	f44f 6161 	mov.w	r1, #3600	@ 0xe10
 8001a02:	fb01 3302 	mla	r3, r1, r2, r3
 8001a06:	f44f 727a 	mov.w	r2, #1000	@ 0x3e8
 8001a0a:	4353      	muls	r3, r2
 8001a0c:	ee07 3a90 	vmov	s15, r3
 8001a10:	ed9f 7a05 	vldr	s14, [pc, #20]	@ 8001a28 <getTimestampMilliseconds+0x70>
 8001a14:	eef8 7ae7 	vcvt.f32.s32	s15, s15
 8001a18:	eee6 7a87 	vfma.f32	s15, s13, s14
 8001a1c:	eefc 7ae7 	vcvt.u32.f32	s15, s15
 8001a20:	ee17 0a90 	vmov	r0, s15
 8001a24:	b006      	add	sp, #24
 8001a26:	bd10      	pop	{r4, pc}
 8001a28:	447a0000 	.word	0x447a0000

08001a2c <spi_sendOp_readByte>:
 8001a2c:	e92d 41f0 	stmdb	sp!, {r4, r5, r6, r7, r8, lr}
 8001a30:	f8bd 8018 	ldrh.w	r8, [sp, #24]
 8001a34:	460d      	mov	r5, r1
 8001a36:	4607      	mov	r7, r0
 8001a38:	4616      	mov	r6, r2
 8001a3a:	4641      	mov	r1, r8
 8001a3c:	4618      	mov	r0, r3
 8001a3e:	2200      	movs	r2, #0
 8001a40:	461c      	mov	r4, r3
 8001a42:	f001 fa5f 	bl	8002f04 <HAL_GPIO_WritePin>
 8001a46:	4639      	mov	r1, r7
 8001a48:	2302      	movs	r3, #2
 8001a4a:	2201      	movs	r2, #1
 8001a4c:	4628      	mov	r0, r5
 8001a4e:	f002 fd5b 	bl	8004508 <HAL_SPI_Transmit>
 8001a52:	2302      	movs	r3, #2
 8001a54:	4631      	mov	r1, r6
 8001a56:	2201      	movs	r2, #1
 8001a58:	4628      	mov	r0, r5
 8001a5a:	f002 ff00 	bl	800485e <HAL_SPI_Receive>
 8001a5e:	2201      	movs	r2, #1
 8001a60:	4605      	mov	r5, r0
 8001a62:	4641      	mov	r1, r8
 8001a64:	4620      	mov	r0, r4
 8001a66:	f001 fa4d 	bl	8002f04 <HAL_GPIO_WritePin>
 8001a6a:	4628      	mov	r0, r5
 8001a6c:	e8bd 81f0 	ldmia.w	sp!, {r4, r5, r6, r7, r8, pc}

08001a70 <perform_operation>:
 8001a70:	b5f8      	push	{r3, r4, r5, r6, r7, lr}
 8001a72:	4614      	mov	r4, r2
 8001a74:	4607      	mov	r7, r0
 8001a76:	460e      	mov	r6, r1
 8001a78:	4620      	mov	r0, r4
 8001a7a:	4619      	mov	r1, r3
 8001a7c:	2200      	movs	r2, #0
 8001a7e:	461d      	mov	r5, r3
 8001a80:	f001 fa40 	bl	8002f04 <HAL_GPIO_WritePin>
 8001a84:	2302      	movs	r3, #2
 8001a86:	4639      	mov	r1, r7
 8001a88:	2201      	movs	r2, #1
 8001a8a:	4630      	mov	r0, r6
 8001a8c:	f002 fd3c 	bl	8004508 <HAL_SPI_Transmit>
 8001a90:	2201      	movs	r2, #1
 8001a92:	4606      	mov	r6, r0
 8001a94:	4629      	mov	r1, r5
 8001a96:	4620      	mov	r0, r4
 8001a98:	f001 fa34 	bl	8002f04 <HAL_GPIO_WritePin>
 8001a9c:	4630      	mov	r0, r6
 8001a9e:	bdf8      	pop	{r3, r4, r5, r6, r7, pc}

08001aa0 <spi_read_data>:
 8001aa0:	e92d 43f7 	stmdb	sp!, {r0, r1, r2, r4, r5, r6, r7, r8, r9, lr}
 8001aa4:	461c      	mov	r4, r3
 8001aa6:	e9dd 360a 	ldrd	r3, r6, [sp, #40]	@ 0x28
 8001aaa:	f8bd 7030 	ldrh.w	r7, [sp, #48]	@ 0x30
 8001aae:	f88d 3005 	strb.w	r3, [sp, #5]
 8001ab2:	4615      	mov	r5, r2
 8001ab4:	0a1a      	lsrs	r2, r3, #8
 8001ab6:	4681      	mov	r9, r0
 8001ab8:	4688      	mov	r8, r1
 8001aba:	f88d 2006 	strb.w	r2, [sp, #6]
 8001abe:	0c1b      	lsrs	r3, r3, #16
 8001ac0:	4639      	mov	r1, r7
 8001ac2:	4630      	mov	r0, r6
 8001ac4:	2200      	movs	r2, #0
 8001ac6:	f88d 3007 	strb.w	r3, [sp, #7]
 8001aca:	f001 fa1b 	bl	8002f04 <HAL_GPIO_WritePin>
 8001ace:	4649      	mov	r1, r9
 8001ad0:	2302      	movs	r3, #2
 8001ad2:	2201      	movs	r2, #1
 8001ad4:	4620      	mov	r0, r4
 8001ad6:	f002 fd17 	bl	8004508 <HAL_SPI_Transmit>
 8001ada:	f10d 0107 	add.w	r1, sp, #7
 8001ade:	2302      	movs	r3, #2
 8001ae0:	2201      	movs	r2, #1
 8001ae2:	4620      	mov	r0, r4
 8001ae4:	f002 fd10 	bl	8004508 <HAL_SPI_Transmit>
 8001ae8:	f10d 0106 	add.w	r1, sp, #6
 8001aec:	2302      	movs	r3, #2
 8001aee:	2201      	movs	r2, #1
 8001af0:	4620      	mov	r0, r4
 8001af2:	f002 fd09 	bl	8004508 <HAL_SPI_Transmit>
 8001af6:	f10d 0105 	add.w	r1, sp, #5
 8001afa:	2302      	movs	r3, #2
 8001afc:	2201      	movs	r2, #1
 8001afe:	4620      	mov	r0, r4
 8001b00:	f002 fd02 	bl	8004508 <HAL_SPI_Transmit>
 8001b04:	2364      	movs	r3, #100	@ 0x64
 8001b06:	4642      	mov	r2, r8
 8001b08:	4629      	mov	r1, r5
 8001b0a:	4620      	mov	r0, r4
 8001b0c:	f002 fea7 	bl	800485e <HAL_SPI_Receive>
 8001b10:	2201      	movs	r2, #1
 8001b12:	4604      	mov	r4, r0
 8001b14:	4639      	mov	r1, r7
 8001b16:	4630      	mov	r0, r6
 8001b18:	f001 f9f4 	bl	8002f04 <HAL_GPIO_WritePin>
 8001b1c:	4620      	mov	r0, r4
 8001b1e:	b003      	add	sp, #12
 8001b20:	e8bd 83f0 	ldmia.w	sp!, {r4, r5, r6, r7, r8, r9, pc}

08001b24 <spi_write_data_dma>:
 8001b24:	b5f7      	push	{r0, r1, r2, r4, r5, r6, r7, lr}
 8001b26:	461c      	mov	r4, r3
 8001b28:	9b08      	ldr	r3, [sp, #32]
 8001b2a:	f88d 3005 	strb.w	r3, [sp, #5]
 8001b2e:	4615      	mov	r5, r2
 8001b30:	0a1a      	lsrs	r2, r3, #8
 8001b32:	4607      	mov	r7, r0
 8001b34:	460e      	mov	r6, r1
 8001b36:	9809      	ldr	r0, [sp, #36]	@ 0x24
 8001b38:	f8bd 1028 	ldrh.w	r1, [sp, #40]	@ 0x28
 8001b3c:	f88d 2006 	strb.w	r2, [sp, #6]
 8001b40:	0c1b      	lsrs	r3, r3, #16
 8001b42:	2200      	movs	r2, #0
 8001b44:	f88d 3007 	strb.w	r3, [sp, #7]
 8001b48:	f001 f9dc 	bl	8002f04 <HAL_GPIO_WritePin>
 8001b4c:	4639      	mov	r1, r7
 8001b4e:	2302      	movs	r3, #2
 8001b50:	2201      	movs	r2, #1
 8001b52:	4620      	mov	r0, r4
 8001b54:	f002 fcd8 	bl	8004508 <HAL_SPI_Transmit>
 8001b58:	f10d 0107 	add.w	r1, sp, #7
 8001b5c:	2302      	movs	r3, #2
 8001b5e:	2201      	movs	r2, #1
 8001b60:	4620      	mov	r0, r4
 8001b62:	f002 fcd1 	bl	8004508 <HAL_SPI_Transmit>
 8001b66:	f10d 0106 	add.w	r1, sp, #6
 8001b6a:	2302      	movs	r3, #2
 8001b6c:	2201      	movs	r2, #1
 8001b6e:	4620      	mov	r0, r4
 8001b70:	f002 fcca 	bl	8004508 <HAL_SPI_Transmit>
 8001b74:	2302      	movs	r3, #2
 8001b76:	f10d 0105 	add.w	r1, sp, #5
 8001b7a:	2201      	movs	r2, #1
 8001b7c:	4620      	mov	r0, r4
 8001b7e:	f002 fcc3 	bl	8004508 <HAL_SPI_Transmit>
 8001b82:	4632      	mov	r2, r6
 8001b84:	4629      	mov	r1, r5
 8001b86:	4620      	mov	r0, r4
 8001b88:	f002 ff0e 	bl	80049a8 <HAL_SPI_Transmit_DMA>
 8001b8c:	b003      	add	sp, #12
 8001b8e:	bdf0      	pop	{r4, r5, r6, r7, pc}

08001b90 <HAL_MspInit>:
 8001b90:	b082      	sub	sp, #8
 8001b92:	4b0c      	ldr	r3, [pc, #48]	@ (8001bc4 <HAL_MspInit+0x34>)
 8001b94:	2100      	movs	r1, #0
 8001b96:	9100      	str	r1, [sp, #0]
 8001b98:	6c5a      	ldr	r2, [r3, #68]	@ 0x44
 8001b9a:	f442 4280 	orr.w	r2, r2, #16384	@ 0x4000
 8001b9e:	645a      	str	r2, [r3, #68]	@ 0x44
 8001ba0:	6c5a      	ldr	r2, [r3, #68]	@ 0x44
 8001ba2:	f402 4280 	and.w	r2, r2, #16384	@ 0x4000
 8001ba6:	9200      	str	r2, [sp, #0]
 8001ba8:	9a00      	ldr	r2, [sp, #0]
 8001baa:	9101      	str	r1, [sp, #4]
 8001bac:	6c1a      	ldr	r2, [r3, #64]	@ 0x40
 8001bae:	f042 5280 	orr.w	r2, r2, #268435456	@ 0x10000000
 8001bb2:	641a      	str	r2, [r3, #64]	@ 0x40
 8001bb4:	6c1b      	ldr	r3, [r3, #64]	@ 0x40
 8001bb6:	f003 5380 	and.w	r3, r3, #268435456	@ 0x10000000
 8001bba:	9301      	str	r3, [sp, #4]
 8001bbc:	9b01      	ldr	r3, [sp, #4]
 8001bbe:	b002      	add	sp, #8
 8001bc0:	4770      	bx	lr
 8001bc2:	bf00      	nop
 8001bc4:	40023800 	.word	0x40023800

08001bc8 <HAL_CAN_MspInit>:
 8001bc8:	b510      	push	{r4, lr}
 8001bca:	4604      	mov	r4, r0
 8001bcc:	b088      	sub	sp, #32
 8001bce:	2214      	movs	r2, #20
 8001bd0:	2100      	movs	r1, #0
 8001bd2:	a803      	add	r0, sp, #12
 8001bd4:	f003 fc58 	bl	8005488 <memset>
 8001bd8:	6822      	ldr	r2, [r4, #0]
 8001bda:	4b1d      	ldr	r3, [pc, #116]	@ (8001c50 <HAL_CAN_MspInit+0x88>)
 8001bdc:	429a      	cmp	r2, r3
 8001bde:	d134      	bne.n	8001c4a <HAL_CAN_MspInit+0x82>
 8001be0:	f503 33e8 	add.w	r3, r3, #118784	@ 0x1d000
 8001be4:	2400      	movs	r4, #0
 8001be6:	9400      	str	r4, [sp, #0]
 8001be8:	6c1a      	ldr	r2, [r3, #64]	@ 0x40
 8001bea:	481a      	ldr	r0, [pc, #104]	@ (8001c54 <HAL_CAN_MspInit+0x8c>)
 8001bec:	f042 6280 	orr.w	r2, r2, #67108864	@ 0x4000000
 8001bf0:	641a      	str	r2, [r3, #64]	@ 0x40
 8001bf2:	6c1a      	ldr	r2, [r3, #64]	@ 0x40
 8001bf4:	f002 6280 	and.w	r2, r2, #67108864	@ 0x4000000
 8001bf8:	9200      	str	r2, [sp, #0]
 8001bfa:	9a00      	ldr	r2, [sp, #0]
 8001bfc:	9401      	str	r4, [sp, #4]
 8001bfe:	6c1a      	ldr	r2, [r3, #64]	@ 0x40
 8001c00:	f042 7200 	orr.w	r2, r2, #33554432	@ 0x2000000
 8001c04:	641a      	str	r2, [r3, #64]	@ 0x40
 8001c06:	6c1a      	ldr	r2, [r3, #64]	@ 0x40
 8001c08:	f002 7200 	and.w	r2, r2, #33554432	@ 0x2000000
 8001c0c:	9201      	str	r2, [sp, #4]
 8001c0e:	9a01      	ldr	r2, [sp, #4]
 8001c10:	9402      	str	r4, [sp, #8]
 8001c12:	6b1a      	ldr	r2, [r3, #48]	@ 0x30
 8001c14:	f042 0202 	orr.w	r2, r2, #2
 8001c18:	631a      	str	r2, [r3, #48]	@ 0x30
 8001c1a:	6b1b      	ldr	r3, [r3, #48]	@ 0x30
 8001c1c:	f003 0302 	and.w	r3, r3, #2
 8001c20:	9302      	str	r3, [sp, #8]
 8001c22:	2260      	movs	r2, #96	@ 0x60
 8001c24:	9b02      	ldr	r3, [sp, #8]
 8001c26:	2302      	movs	r3, #2
 8001c28:	e9cd 2303 	strd	r2, r3, [sp, #12]
 8001c2c:	2103      	movs	r1, #3
 8001c2e:	2309      	movs	r3, #9
 8001c30:	e9cd 1306 	strd	r1, r3, [sp, #24]
 8001c34:	a903      	add	r1, sp, #12
 8001c36:	f001 f87b 	bl	8002d30 <HAL_GPIO_Init>
 8001c3a:	2040      	movs	r0, #64	@ 0x40
 8001c3c:	4622      	mov	r2, r4
 8001c3e:	4621      	mov	r1, r4
 8001c40:	f000 fe46 	bl	80028d0 <HAL_NVIC_SetPriority>
 8001c44:	2040      	movs	r0, #64	@ 0x40
 8001c46:	f000 fe75 	bl	8002934 <HAL_NVIC_EnableIRQ>
 8001c4a:	b008      	add	sp, #32
 8001c4c:	bd10      	pop	{r4, pc}
 8001c4e:	bf00      	nop
 8001c50:	40006800 	.word	0x40006800
 8001c54:	40020400 	.word	0x40020400

08001c58 <HAL_I2C_MspInit>:
 8001c58:	e92d 41f0 	stmdb	sp!, {r4, r5, r6, r7, r8, lr}
 8001c5c:	2214      	movs	r2, #20
 8001c5e:	b08a      	sub	sp, #40	@ 0x28
 8001c60:	4604      	mov	r4, r0
 8001c62:	2100      	movs	r1, #0
 8001c64:	eb0d 0002 	add.w	r0, sp, r2
 8001c68:	f003 fc0e 	bl	8005488 <memset>
 8001c6c:	6823      	ldr	r3, [r4, #0]
 8001c6e:	4a33      	ldr	r2, [pc, #204]	@ (8001d3c <HAL_I2C_MspInit+0xe4>)
 8001c70:	4293      	cmp	r3, r2
 8001c72:	d125      	bne.n	8001cc0 <HAL_I2C_MspInit+0x68>
 8001c74:	4c32      	ldr	r4, [pc, #200]	@ (8001d40 <HAL_I2C_MspInit+0xe8>)
 8001c76:	4833      	ldr	r0, [pc, #204]	@ (8001d44 <HAL_I2C_MspInit+0xec>)
 8001c78:	2500      	movs	r5, #0
 8001c7a:	9500      	str	r5, [sp, #0]
 8001c7c:	6b23      	ldr	r3, [r4, #48]	@ 0x30
 8001c7e:	f043 0302 	orr.w	r3, r3, #2
 8001c82:	6323      	str	r3, [r4, #48]	@ 0x30
 8001c84:	6b23      	ldr	r3, [r4, #48]	@ 0x30
 8001c86:	f003 0302 	and.w	r3, r3, #2
 8001c8a:	9300      	str	r3, [sp, #0]
 8001c8c:	9b00      	ldr	r3, [sp, #0]
 8001c8e:	f44f 7240 	mov.w	r2, #768	@ 0x300
 8001c92:	2312      	movs	r3, #18
 8001c94:	e9cd 2305 	strd	r2, r3, [sp, #20]
 8001c98:	2103      	movs	r1, #3
 8001c9a:	2304      	movs	r3, #4
 8001c9c:	e9cd 1308 	strd	r1, r3, [sp, #32]
 8001ca0:	a905      	add	r1, sp, #20
 8001ca2:	f001 f845 	bl	8002d30 <HAL_GPIO_Init>
 8001ca6:	9501      	str	r5, [sp, #4]
 8001ca8:	6c23      	ldr	r3, [r4, #64]	@ 0x40
 8001caa:	f443 1300 	orr.w	r3, r3, #2097152	@ 0x200000
 8001cae:	6423      	str	r3, [r4, #64]	@ 0x40
 8001cb0:	6c23      	ldr	r3, [r4, #64]	@ 0x40
 8001cb2:	f403 1300 	and.w	r3, r3, #2097152	@ 0x200000
 8001cb6:	9301      	str	r3, [sp, #4]
 8001cb8:	9b01      	ldr	r3, [sp, #4]
 8001cba:	b00a      	add	sp, #40	@ 0x28
 8001cbc:	e8bd 81f0 	ldmia.w	sp!, {r4, r5, r6, r7, r8, pc}
 8001cc0:	4a21      	ldr	r2, [pc, #132]	@ (8001d48 <HAL_I2C_MspInit+0xf0>)
 8001cc2:	4293      	cmp	r3, r2
 8001cc4:	d1f9      	bne.n	8001cba <HAL_I2C_MspInit+0x62>
 8001cc6:	4c1e      	ldr	r4, [pc, #120]	@ (8001d40 <HAL_I2C_MspInit+0xe8>)
 8001cc8:	4820      	ldr	r0, [pc, #128]	@ (8001d4c <HAL_I2C_MspInit+0xf4>)
 8001cca:	2500      	movs	r5, #0
 8001ccc:	9502      	str	r5, [sp, #8]
 8001cce:	6b23      	ldr	r3, [r4, #48]	@ 0x30
 8001cd0:	f043 0304 	orr.w	r3, r3, #4
 8001cd4:	6323      	str	r3, [r4, #48]	@ 0x30
 8001cd6:	6b23      	ldr	r3, [r4, #48]	@ 0x30
 8001cd8:	f003 0304 	and.w	r3, r3, #4
 8001cdc:	9302      	str	r3, [sp, #8]
 8001cde:	9b02      	ldr	r3, [sp, #8]
 8001ce0:	9503      	str	r5, [sp, #12]
 8001ce2:	6b23      	ldr	r3, [r4, #48]	@ 0x30
 8001ce4:	f043 0301 	orr.w	r3, r3, #1
 8001ce8:	6323      	str	r3, [r4, #48]	@ 0x30
 8001cea:	6b23      	ldr	r3, [r4, #48]	@ 0x30
 8001cec:	f003 0301 	and.w	r3, r3, #1
 8001cf0:	9303      	str	r3, [sp, #12]
 8001cf2:	9b03      	ldr	r3, [sp, #12]
 8001cf4:	f04f 0812 	mov.w	r8, #18
 8001cf8:	f44f 7300 	mov.w	r3, #512	@ 0x200
 8001cfc:	2703      	movs	r7, #3
 8001cfe:	2604      	movs	r6, #4
 8001d00:	a905      	add	r1, sp, #20
 8001d02:	e9cd 3805 	strd	r3, r8, [sp, #20]
 8001d06:	e9cd 7608 	strd	r7, r6, [sp, #32]
 8001d0a:	f001 f811 	bl	8002d30 <HAL_GPIO_Init>
 8001d0e:	f44f 7380 	mov.w	r3, #256	@ 0x100
 8001d12:	480f      	ldr	r0, [pc, #60]	@ (8001d50 <HAL_I2C_MspInit+0xf8>)
 8001d14:	9609      	str	r6, [sp, #36]	@ 0x24
 8001d16:	a905      	add	r1, sp, #20
 8001d18:	e9cd 3805 	strd	r3, r8, [sp, #20]
 8001d1c:	e9cd 5707 	strd	r5, r7, [sp, #28]
 8001d20:	f001 f806 	bl	8002d30 <HAL_GPIO_Init>
 8001d24:	9504      	str	r5, [sp, #16]
 8001d26:	6c23      	ldr	r3, [r4, #64]	@ 0x40
 8001d28:	f443 0300 	orr.w	r3, r3, #8388608	@ 0x800000
 8001d2c:	6423      	str	r3, [r4, #64]	@ 0x40
 8001d2e:	6c23      	ldr	r3, [r4, #64]	@ 0x40
 8001d30:	f403 0300 	and.w	r3, r3, #8388608	@ 0x800000
 8001d34:	9304      	str	r3, [sp, #16]
 8001d36:	9b04      	ldr	r3, [sp, #16]
 8001d38:	e7bf      	b.n	8001cba <HAL_I2C_MspInit+0x62>
 8001d3a:	bf00      	nop
 8001d3c:	40005400 	.word	0x40005400
 8001d40:	40023800 	.word	0x40023800
 8001d44:	40020400 	.word	0x40020400
 8001d48:	40005c00 	.word	0x40005c00
 8001d4c:	40020800 	.word	0x40020800
 8001d50:	40020000 	.word	0x40020000

08001d54 <HAL_RTC_MspInit>:
 8001d54:	b510      	push	{r4, lr}
 8001d56:	4604      	mov	r4, r0
 8001d58:	b08c      	sub	sp, #48	@ 0x30
 8001d5a:	2230      	movs	r2, #48	@ 0x30
 8001d5c:	2100      	movs	r1, #0
 8001d5e:	4668      	mov	r0, sp
 8001d60:	f003 fb92 	bl	8005488 <memset>
 8001d64:	6822      	ldr	r2, [r4, #0]
 8001d66:	4b0a      	ldr	r3, [pc, #40]	@ (8001d90 <HAL_RTC_MspInit+0x3c>)
 8001d68:	429a      	cmp	r2, r3
 8001d6a:	d10e      	bne.n	8001d8a <HAL_RTC_MspInit+0x36>
 8001d6c:	2320      	movs	r3, #32
 8001d6e:	9300      	str	r3, [sp, #0]
 8001d70:	4668      	mov	r0, sp
 8001d72:	f44f 7300 	mov.w	r3, #512	@ 0x200
 8001d76:	930a      	str	r3, [sp, #40]	@ 0x28
 8001d78:	f001 ffee 	bl	8003d58 <HAL_RCCEx_PeriphCLKConfig>
 8001d7c:	b108      	cbz	r0, 8001d82 <HAL_RTC_MspInit+0x2e>
 8001d7e:	f7ff fc3d 	bl	80015fc <Error_Handler>
 8001d82:	4b04      	ldr	r3, [pc, #16]	@ (8001d94 <HAL_RTC_MspInit+0x40>)
 8001d84:	2201      	movs	r2, #1
 8001d86:	f8c3 2e3c 	str.w	r2, [r3, #3644]	@ 0xe3c
 8001d8a:	b00c      	add	sp, #48	@ 0x30
 8001d8c:	bd10      	pop	{r4, pc}
 8001d8e:	bf00      	nop
 8001d90:	40002800 	.word	0x40002800
 8001d94:	42470000 	.word	0x42470000

08001d98 <HAL_SPI_MspInit>:
 8001d98:	e92d 41f0 	stmdb	sp!, {r4, r5, r6, r7, r8, lr}
 8001d9c:	2214      	movs	r2, #20
 8001d9e:	b08a      	sub	sp, #40	@ 0x28
 8001da0:	4606      	mov	r6, r0
 8001da2:	2100      	movs	r1, #0
 8001da4:	eb0d 0002 	add.w	r0, sp, r2
 8001da8:	f003 fb6e 	bl	8005488 <memset>
 8001dac:	6833      	ldr	r3, [r6, #0]
 8001dae:	4a41      	ldr	r2, [pc, #260]	@ (8001eb4 <HAL_SPI_MspInit+0x11c>)
 8001db0:	4293      	cmp	r3, r2
 8001db2:	d13f      	bne.n	8001e34 <HAL_SPI_MspInit+0x9c>
 8001db4:	4b40      	ldr	r3, [pc, #256]	@ (8001eb8 <HAL_SPI_MspInit+0x120>)
 8001db6:	4841      	ldr	r0, [pc, #260]	@ (8001ebc <HAL_SPI_MspInit+0x124>)
 8001db8:	4c41      	ldr	r4, [pc, #260]	@ (8001ec0 <HAL_SPI_MspInit+0x128>)
 8001dba:	2500      	movs	r5, #0
 8001dbc:	9500      	str	r5, [sp, #0]
 8001dbe:	6c5a      	ldr	r2, [r3, #68]	@ 0x44
 8001dc0:	f442 5280 	orr.w	r2, r2, #4096	@ 0x1000
 8001dc4:	645a      	str	r2, [r3, #68]	@ 0x44
 8001dc6:	6c5a      	ldr	r2, [r3, #68]	@ 0x44
 8001dc8:	f402 5280 	and.w	r2, r2, #4096	@ 0x1000
 8001dcc:	9200      	str	r2, [sp, #0]
 8001dce:	9a00      	ldr	r2, [sp, #0]
 8001dd0:	9501      	str	r5, [sp, #4]
 8001dd2:	6b1a      	ldr	r2, [r3, #48]	@ 0x30
 8001dd4:	f042 0201 	orr.w	r2, r2, #1
 8001dd8:	631a      	str	r2, [r3, #48]	@ 0x30
 8001dda:	6b1b      	ldr	r3, [r3, #48]	@ 0x30
 8001ddc:	f003 0301 	and.w	r3, r3, #1
 8001de0:	9301      	str	r3, [sp, #4]
 8001de2:	9b01      	ldr	r3, [sp, #4]
 8001de4:	22e0      	movs	r2, #224	@ 0xe0
 8001de6:	2302      	movs	r3, #2
 8001de8:	e9cd 2305 	strd	r2, r3, [sp, #20]
 8001dec:	2103      	movs	r1, #3
 8001dee:	2305      	movs	r3, #5
 8001df0:	e9cd 1308 	strd	r1, r3, [sp, #32]
 8001df4:	a905      	add	r1, sp, #20
 8001df6:	f000 ff9b 	bl	8002d30 <HAL_GPIO_Init>
 8001dfa:	4832      	ldr	r0, [pc, #200]	@ (8001ec4 <HAL_SPI_MspInit+0x12c>)
 8001dfc:	f04f 63c0 	mov.w	r3, #100663296	@ 0x6000000
 8001e00:	e9c4 0300 	strd	r0, r3, [r4]
 8001e04:	2340      	movs	r3, #64	@ 0x40
 8001e06:	e9c4 3502 	strd	r3, r5, [r4, #8]
 8001e0a:	f44f 6380 	mov.w	r3, #1024	@ 0x400
 8001e0e:	e9c4 3504 	strd	r3, r5, [r4, #16]
 8001e12:	f44f 3380 	mov.w	r3, #65536	@ 0x10000
 8001e16:	e9c4 5506 	strd	r5, r5, [r4, #24]
 8001e1a:	e9c4 3508 	strd	r3, r5, [r4, #32]
 8001e1e:	4620      	mov	r0, r4
 8001e20:	f000 fdc0 	bl	80029a4 <HAL_DMA_Init>
 8001e24:	b108      	cbz	r0, 8001e2a <HAL_SPI_MspInit+0x92>
 8001e26:	f7ff fbe9 	bl	80015fc <Error_Handler>
 8001e2a:	64b4      	str	r4, [r6, #72]	@ 0x48
 8001e2c:	63a6      	str	r6, [r4, #56]	@ 0x38
 8001e2e:	b00a      	add	sp, #40	@ 0x28
 8001e30:	e8bd 81f0 	ldmia.w	sp!, {r4, r5, r6, r7, r8, pc}
 8001e34:	4a24      	ldr	r2, [pc, #144]	@ (8001ec8 <HAL_SPI_MspInit+0x130>)
 8001e36:	4293      	cmp	r3, r2
 8001e38:	d1f9      	bne.n	8001e2e <HAL_SPI_MspInit+0x96>
 8001e3a:	4b1f      	ldr	r3, [pc, #124]	@ (8001eb8 <HAL_SPI_MspInit+0x120>)
 8001e3c:	4823      	ldr	r0, [pc, #140]	@ (8001ecc <HAL_SPI_MspInit+0x134>)
 8001e3e:	2500      	movs	r5, #0
 8001e40:	9502      	str	r5, [sp, #8]
 8001e42:	6c1a      	ldr	r2, [r3, #64]	@ 0x40
 8001e44:	f442 4280 	orr.w	r2, r2, #16384	@ 0x4000
 8001e48:	641a      	str	r2, [r3, #64]	@ 0x40
 8001e4a:	6c1a      	ldr	r2, [r3, #64]	@ 0x40
 8001e4c:	f402 4280 	and.w	r2, r2, #16384	@ 0x4000
 8001e50:	9202      	str	r2, [sp, #8]
 8001e52:	9a02      	ldr	r2, [sp, #8]
 8001e54:	9503      	str	r5, [sp, #12]
 8001e56:	6b1a      	ldr	r2, [r3, #48]	@ 0x30
 8001e58:	f042 0204 	orr.w	r2, r2, #4
 8001e5c:	631a      	str	r2, [r3, #48]	@ 0x30
 8001e5e:	6b1a      	ldr	r2, [r3, #48]	@ 0x30
 8001e60:	f002 0204 	and.w	r2, r2, #4
 8001e64:	9203      	str	r2, [sp, #12]
 8001e66:	9a03      	ldr	r2, [sp, #12]
 8001e68:	9504      	str	r5, [sp, #16]
 8001e6a:	6b1a      	ldr	r2, [r3, #48]	@ 0x30
 8001e6c:	f042 0208 	orr.w	r2, r2, #8
 8001e70:	631a      	str	r2, [r3, #48]	@ 0x30
 8001e72:	6b1b      	ldr	r3, [r3, #48]	@ 0x30
 8001e74:	f003 0308 	and.w	r3, r3, #8
 8001e78:	9304      	str	r3, [sp, #16]
 8001e7a:	2405      	movs	r4, #5
 8001e7c:	9b04      	ldr	r3, [sp, #16]
 8001e7e:	f04f 0802 	mov.w	r8, #2
 8001e82:	230c      	movs	r3, #12
 8001e84:	2703      	movs	r7, #3
 8001e86:	a905      	add	r1, sp, #20
 8001e88:	e9cd 3805 	strd	r3, r8, [sp, #20]
 8001e8c:	e9cd 7408 	strd	r7, r4, [sp, #32]
 8001e90:	f000 ff4e 	bl	8002d30 <HAL_GPIO_Init>
 8001e94:	2308      	movs	r3, #8
 8001e96:	480e      	ldr	r0, [pc, #56]	@ (8001ed0 <HAL_SPI_MspInit+0x138>)
 8001e98:	9409      	str	r4, [sp, #36]	@ 0x24
 8001e9a:	a905      	add	r1, sp, #20
 8001e9c:	e9cd 3805 	strd	r3, r8, [sp, #20]
 8001ea0:	e9cd 5707 	strd	r5, r7, [sp, #28]
 8001ea4:	4c0b      	ldr	r4, [pc, #44]	@ (8001ed4 <HAL_SPI_MspInit+0x13c>)
 8001ea6:	f000 ff43 	bl	8002d30 <HAL_GPIO_Init>
 8001eaa:	4b0b      	ldr	r3, [pc, #44]	@ (8001ed8 <HAL_SPI_MspInit+0x140>)
 8001eac:	e9c4 3500 	strd	r3, r5, [r4]
 8001eb0:	e7a8      	b.n	8001e04 <HAL_SPI_MspInit+0x6c>
 8001eb2:	bf00      	nop
 8001eb4:	40013000 	.word	0x40013000
 8001eb8:	40023800 	.word	0x40023800
 8001ebc:	40020000 	.word	0x40020000
 8001ec0:	20000414 	.word	0x20000414
 8001ec4:	40026458 	.word	0x40026458
 8001ec8:	40003800 	.word	0x40003800
 8001ecc:	40020800 	.word	0x40020800
 8001ed0:	40020c00 	.word	0x40020c00
 8001ed4:	200003b4 	.word	0x200003b4
 8001ed8:	40026070 	.word	0x40026070

08001edc <HAL_TIM_Base_MspInit>:
 8001edc:	b507      	push	{r0, r1, r2, lr}
 8001ede:	6803      	ldr	r3, [r0, #0]
 8001ee0:	4a18      	ldr	r2, [pc, #96]	@ (8001f44 <HAL_TIM_Base_MspInit+0x68>)
 8001ee2:	4293      	cmp	r3, r2
 8001ee4:	d115      	bne.n	8001f12 <HAL_TIM_Base_MspInit+0x36>
 8001ee6:	4b18      	ldr	r3, [pc, #96]	@ (8001f48 <HAL_TIM_Base_MspInit+0x6c>)
 8001ee8:	2200      	movs	r2, #0
 8001eea:	9200      	str	r2, [sp, #0]
 8001eec:	6c19      	ldr	r1, [r3, #64]	@ 0x40
 8001eee:	f041 0110 	orr.w	r1, r1, #16
 8001ef2:	6419      	str	r1, [r3, #64]	@ 0x40
 8001ef4:	6c1b      	ldr	r3, [r3, #64]	@ 0x40
 8001ef6:	f003 0310 	and.w	r3, r3, #16
 8001efa:	9300      	str	r3, [sp, #0]
 8001efc:	2036      	movs	r0, #54	@ 0x36
 8001efe:	4611      	mov	r1, r2
 8001f00:	9b00      	ldr	r3, [sp, #0]
 8001f02:	f000 fce5 	bl	80028d0 <HAL_NVIC_SetPriority>
 8001f06:	2036      	movs	r0, #54	@ 0x36
 8001f08:	b003      	add	sp, #12
 8001f0a:	f85d eb04 	ldr.w	lr, [sp], #4
 8001f0e:	f000 bd11 	b.w	8002934 <HAL_NVIC_EnableIRQ>
 8001f12:	4a0e      	ldr	r2, [pc, #56]	@ (8001f4c <HAL_TIM_Base_MspInit+0x70>)
 8001f14:	4293      	cmp	r3, r2
 8001f16:	d111      	bne.n	8001f3c <HAL_TIM_Base_MspInit+0x60>
 8001f18:	4b0b      	ldr	r3, [pc, #44]	@ (8001f48 <HAL_TIM_Base_MspInit+0x6c>)
 8001f1a:	2200      	movs	r2, #0
 8001f1c:	9201      	str	r2, [sp, #4]
 8001f1e:	6c19      	ldr	r1, [r3, #64]	@ 0x40
 8001f20:	f041 0120 	orr.w	r1, r1, #32
 8001f24:	6419      	str	r1, [r3, #64]	@ 0x40
 8001f26:	6c1b      	ldr	r3, [r3, #64]	@ 0x40
 8001f28:	f003 0320 	and.w	r3, r3, #32
 8001f2c:	9301      	str	r3, [sp, #4]
 8001f2e:	2037      	movs	r0, #55	@ 0x37
 8001f30:	4611      	mov	r1, r2
 8001f32:	9b01      	ldr	r3, [sp, #4]
 8001f34:	f000 fccc 	bl	80028d0 <HAL_NVIC_SetPriority>
 8001f38:	2037      	movs	r0, #55	@ 0x37
 8001f3a:	e7e5      	b.n	8001f08 <HAL_TIM_Base_MspInit+0x2c>
 8001f3c:	b003      	add	sp, #12
 8001f3e:	f85d fb04 	ldr.w	pc, [sp], #4
 8001f42:	bf00      	nop
 8001f44:	40001000 	.word	0x40001000
 8001f48:	40023800 	.word	0x40023800
 8001f4c:	40001400 	.word	0x40001400

08001f50 <HAL_UART_MspInit>:
 8001f50:	b510      	push	{r4, lr}
 8001f52:	4604      	mov	r4, r0
 8001f54:	b088      	sub	sp, #32
 8001f56:	2214      	movs	r2, #20
 8001f58:	2100      	movs	r1, #0
 8001f5a:	a803      	add	r0, sp, #12
 8001f5c:	f003 fa94 	bl	8005488 <memset>
 8001f60:	6822      	ldr	r2, [r4, #0]
 8001f62:	4b18      	ldr	r3, [pc, #96]	@ (8001fc4 <HAL_UART_MspInit+0x74>)
 8001f64:	429a      	cmp	r2, r3
 8001f66:	d12a      	bne.n	8001fbe <HAL_UART_MspInit+0x6e>
 8001f68:	f503 33fa 	add.w	r3, r3, #128000	@ 0x1f400
 8001f6c:	2400      	movs	r4, #0
 8001f6e:	9401      	str	r4, [sp, #4]
 8001f70:	6c1a      	ldr	r2, [r3, #64]	@ 0x40
 8001f72:	4815      	ldr	r0, [pc, #84]	@ (8001fc8 <HAL_UART_MspInit+0x78>)
 8001f74:	f442 3200 	orr.w	r2, r2, #131072	@ 0x20000
 8001f78:	641a      	str	r2, [r3, #64]	@ 0x40
 8001f7a:	6c1a      	ldr	r2, [r3, #64]	@ 0x40
 8001f7c:	f402 3200 	and.w	r2, r2, #131072	@ 0x20000
 8001f80:	9201      	str	r2, [sp, #4]
 8001f82:	9a01      	ldr	r2, [sp, #4]
 8001f84:	9402      	str	r4, [sp, #8]
 8001f86:	6b1a      	ldr	r2, [r3, #48]	@ 0x30
 8001f88:	f042 0208 	orr.w	r2, r2, #8
 8001f8c:	631a      	str	r2, [r3, #48]	@ 0x30
 8001f8e:	6b1b      	ldr	r3, [r3, #48]	@ 0x30
 8001f90:	f003 0308 	and.w	r3, r3, #8
 8001f94:	9302      	str	r3, [sp, #8]
 8001f96:	2260      	movs	r2, #96	@ 0x60
 8001f98:	9b02      	ldr	r3, [sp, #8]
 8001f9a:	2302      	movs	r3, #2
 8001f9c:	e9cd 2303 	strd	r2, r3, [sp, #12]
 8001fa0:	2103      	movs	r1, #3
 8001fa2:	2307      	movs	r3, #7
 8001fa4:	e9cd 1306 	strd	r1, r3, [sp, #24]
 8001fa8:	a903      	add	r1, sp, #12
 8001faa:	f000 fec1 	bl	8002d30 <HAL_GPIO_Init>
 8001fae:	2026      	movs	r0, #38	@ 0x26
 8001fb0:	4622      	mov	r2, r4
 8001fb2:	4621      	mov	r1, r4
 8001fb4:	f000 fc8c 	bl	80028d0 <HAL_NVIC_SetPriority>
 8001fb8:	2026      	movs	r0, #38	@ 0x26
 8001fba:	f000 fcbb 	bl	8002934 <HAL_NVIC_EnableIRQ>
 8001fbe:	b008      	add	sp, #32
 8001fc0:	bd10      	pop	{r4, pc}
 8001fc2:	bf00      	nop
 8001fc4:	40004400 	.word	0x40004400
 8001fc8:	40020c00 	.word	0x40020c00

08001fcc <NMI_Handler>:
 8001fcc:	e7fe      	b.n	8001fcc <NMI_Handler>

08001fce <HardFault_Handler>:
 8001fce:	e7fe      	b.n	8001fce <HardFault_Handler>

08001fd0 <MemManage_Handler>:
 8001fd0:	e7fe      	b.n	8001fd0 <MemManage_Handler>

08001fd2 <BusFault_Handler>:
 8001fd2:	e7fe      	b.n	8001fd2 <BusFault_Handler>

08001fd4 <UsageFault_Handler>:
 8001fd4:	e7fe      	b.n	8001fd4 <UsageFault_Handler>

08001fd6 <SVC_Handler>:
 8001fd6:	4770      	bx	lr

08001fd8 <DebugMon_Handler>:
 8001fd8:	4770      	bx	lr

08001fda <PendSV_Handler>:
 8001fda:	4770      	bx	lr

08001fdc <SysTick_Handler>:
 8001fdc:	f000 b92a 	b.w	8002234 <HAL_IncTick>

08001fe0 <EXTI1_IRQHandler>:
 8001fe0:	2002      	movs	r0, #2
 8001fe2:	f000 bf9d 	b.w	8002f20 <HAL_GPIO_EXTI_IRQHandler>
	...

08001fe8 <DMA1_Stream4_IRQHandler>:
 8001fe8:	4801      	ldr	r0, [pc, #4]	@ (8001ff0 <DMA1_Stream4_IRQHandler+0x8>)
 8001fea:	f000 bde3 	b.w	8002bb4 <HAL_DMA_IRQHandler>
 8001fee:	bf00      	nop
 8001ff0:	200003b4 	.word	0x200003b4

08001ff4 <USART2_IRQHandler>:
 8001ff4:	4801      	ldr	r0, [pc, #4]	@ (8001ffc <USART2_IRQHandler+0x8>)
 8001ff6:	f003 b8d3 	b.w	80051a0 <HAL_UART_IRQHandler>
 8001ffa:	bf00      	nop
 8001ffc:	200002dc 	.word	0x200002dc

08002000 <TIM6_DAC_IRQHandler>:
 8002000:	b508      	push	{r3, lr}
 8002002:	4803      	ldr	r0, [pc, #12]	@ (8002010 <TIM6_DAC_IRQHandler+0x10>)
 8002004:	f002 fdbd 	bl	8004b82 <HAL_TIM_IRQHandler>
 8002008:	4b02      	ldr	r3, [pc, #8]	@ (8002014 <TIM6_DAC_IRQHandler+0x14>)
 800200a:	2201      	movs	r2, #1
 800200c:	701a      	strb	r2, [r3, #0]
 800200e:	bd08      	pop	{r3, pc}
 8002010:	2000036c 	.word	0x2000036c
 8002014:	200002a5 	.word	0x200002a5

08002018 <TIM7_IRQHandler>:
 8002018:	b508      	push	{r3, lr}
 800201a:	4803      	ldr	r0, [pc, #12]	@ (8002028 <TIM7_IRQHandler+0x10>)
 800201c:	f002 fdb1 	bl	8004b82 <HAL_TIM_IRQHandler>
 8002020:	4b02      	ldr	r3, [pc, #8]	@ (800202c <TIM7_IRQHandler+0x14>)
 8002022:	2201      	movs	r2, #1
 8002024:	701a      	strb	r2, [r3, #0]
 8002026:	bd08      	pop	{r3, pc}
 8002028:	20000324 	.word	0x20000324
 800202c:	200002a4 	.word	0x200002a4

08002030 <DMA2_Stream3_IRQHandler>:
 8002030:	4801      	ldr	r0, [pc, #4]	@ (8002038 <DMA2_Stream3_IRQHandler+0x8>)
 8002032:	f000 bdbf 	b.w	8002bb4 <HAL_DMA_IRQHandler>
 8002036:	bf00      	nop
 8002038:	20000414 	.word	0x20000414

0800203c <CAN2_RX0_IRQHandler>:
 800203c:	4801      	ldr	r0, [pc, #4]	@ (8002044 <CAN2_RX0_IRQHandler+0x8>)
 800203e:	f000 bb30 	b.w	80026a2 <HAL_CAN_IRQHandler>
 8002042:	bf00      	nop
 8002044:	200005ec 	.word	0x200005ec

08002048 <HAL_CAN_RxFifo0MsgPendingCallback>:
 8002048:	b508      	push	{r3, lr}
 800204a:	4a06      	ldr	r2, [pc, #24]	@ (8002064 <HAL_CAN_RxFifo0MsgPendingCallback+0x1c>)
 800204c:	4b06      	ldr	r3, [pc, #24]	@ (8002068 <HAL_CAN_RxFifo0MsgPendingCallback+0x20>)
 800204e:	2100      	movs	r1, #0
 8002050:	f000 fa8e 	bl	8002570 <HAL_CAN_GetRxMessage>
 8002054:	4b05      	ldr	r3, [pc, #20]	@ (800206c <HAL_CAN_RxFifo0MsgPendingCallback+0x24>)
 8002056:	2201      	movs	r2, #1
 8002058:	701a      	strb	r2, [r3, #0]
 800205a:	4b05      	ldr	r3, [pc, #20]	@ (8002070 <HAL_CAN_RxFifo0MsgPendingCallback+0x28>)
 800205c:	7819      	ldrb	r1, [r3, #0]
 800205e:	b901      	cbnz	r1, 8002062 <HAL_CAN_RxFifo0MsgPendingCallback+0x1a>
 8002060:	701a      	strb	r2, [r3, #0]
 8002062:	bd08      	pop	{r3, pc}
 8002064:	200002b0 	.word	0x200002b0
 8002068:	200002a8 	.word	0x200002a8
 800206c:	200002a7 	.word	0x200002a7
 8002070:	200002a6 	.word	0x200002a6

08002074 <HAL_GPIO_EXTI_Callback>:
 8002074:	4b04      	ldr	r3, [pc, #16]	@ (8002088 <HAL_GPIO_EXTI_Callback+0x14>)
 8002076:	889b      	ldrh	r3, [r3, #4]
 8002078:	b29b      	uxth	r3, r3
 800207a:	4283      	cmp	r3, r0
 800207c:	bf02      	ittt	eq
 800207e:	4b03      	ldreq	r3, [pc, #12]	@ (800208c <HAL_GPIO_EXTI_Callback+0x18>)
 8002080:	2201      	moveq	r2, #1
 8002082:	701a      	strbeq	r2, [r3, #0]
 8002084:	4770      	bx	lr
 8002086:	bf00      	nop
 8002088:	20000048 	.word	0x20000048
 800208c:	20000047 	.word	0x20000047

08002090 <HAL_SPI_TxCpltCallback>:
 8002090:	6803      	ldr	r3, [r0, #0]
 8002092:	4a11      	ldr	r2, [pc, #68]	@ (80020d8 <HAL_SPI_TxCpltCallback+0x48>)
 8002094:	4293      	cmp	r3, r2
 8002096:	b510      	push	{r4, lr}
 8002098:	4604      	mov	r4, r0
 800209a:	d117      	bne.n	80020cc <HAL_SPI_TxCpltCallback+0x3c>
 800209c:	4b0f      	ldr	r3, [pc, #60]	@ (80020dc <HAL_SPI_TxCpltCallback+0x4c>)
 800209e:	8899      	ldrh	r1, [r3, #4]
 80020a0:	6818      	ldr	r0, [r3, #0]
 80020a2:	2201      	movs	r2, #1
 80020a4:	f000 ff2e 	bl	8002f04 <HAL_GPIO_WritePin>
 80020a8:	6822      	ldr	r2, [r4, #0]
 80020aa:	490d      	ldr	r1, [pc, #52]	@ (80020e0 <HAL_SPI_TxCpltCallback+0x50>)
 80020ac:	6853      	ldr	r3, [r2, #4]
 80020ae:	f023 0302 	bic.w	r3, r3, #2
 80020b2:	6053      	str	r3, [r2, #4]
 80020b4:	4b0b      	ldr	r3, [pc, #44]	@ (80020e4 <HAL_SPI_TxCpltCallback+0x54>)
 80020b6:	781b      	ldrb	r3, [r3, #0]
 80020b8:	f083 0301 	eor.w	r3, r3, #1
 80020bc:	e8bd 4010 	ldmia.w	sp!, {r4, lr}
 80020c0:	eb01 2103 	add.w	r1, r1, r3, lsl #8
 80020c4:	f44f 7080 	mov.w	r0, #256	@ 0x100
 80020c8:	f7fe bcfc 	b.w	8000ac4 <clean_data_buffer>
 80020cc:	4a06      	ldr	r2, [pc, #24]	@ (80020e8 <HAL_SPI_TxCpltCallback+0x58>)
 80020ce:	4293      	cmp	r3, r2
 80020d0:	d1ea      	bne.n	80020a8 <HAL_SPI_TxCpltCallback+0x18>
 80020d2:	4b06      	ldr	r3, [pc, #24]	@ (80020ec <HAL_SPI_TxCpltCallback+0x5c>)
 80020d4:	e7e3      	b.n	800209e <HAL_SPI_TxCpltCallback+0xe>
 80020d6:	bf00      	nop
 80020d8:	40013000 	.word	0x40013000
 80020dc:	20000068 	.word	0x20000068
 80020e0:	200000a4 	.word	0x200000a4
 80020e4:	200000a3 	.word	0x200000a3
 80020e8:	40003800 	.word	0x40003800
 80020ec:	20000058 	.word	0x20000058

080020f0 <HAL_UART_RxCpltCallback>:
 80020f0:	4b03      	ldr	r3, [pc, #12]	@ (8002100 <HAL_UART_RxCpltCallback+0x10>)
 80020f2:	4904      	ldr	r1, [pc, #16]	@ (8002104 <HAL_UART_RxCpltCallback+0x14>)
 80020f4:	4804      	ldr	r0, [pc, #16]	@ (8002108 <HAL_UART_RxCpltCallback+0x18>)
 80020f6:	2201      	movs	r2, #1
 80020f8:	701a      	strb	r2, [r3, #0]
 80020fa:	2202      	movs	r2, #2
 80020fc:	f003 b9b3 	b.w	8005466 <HAL_UART_Receive_IT>
 8002100:	200002d0 	.word	0x200002d0
 8002104:	200002d1 	.word	0x200002d1
 8002108:	200002dc 	.word	0x200002dc

0800210c <SystemInit>:
 800210c:	4a03      	ldr	r2, [pc, #12]	@ (800211c <SystemInit+0x10>)
 800210e:	f8d2 3088 	ldr.w	r3, [r2, #136]	@ 0x88
 8002112:	f443 0370 	orr.w	r3, r3, #15728640	@ 0xf00000
 8002116:	f8c2 3088 	str.w	r3, [r2, #136]	@ 0x88
 800211a:	4770      	bx	lr
 800211c:	e000ed00 	.word	0xe000ed00

08002120 <uart_transmit_page>:
 8002120:	f04f 33ff 	mov.w	r3, #4294967295	@ 0xffffffff
 8002124:	f44f 7280 	mov.w	r2, #256	@ 0x100
 8002128:	f002 bf85 	b.w	8005036 <HAL_UART_Transmit>

0800212c <send_uart_string>:
 800212c:	b570      	push	{r4, r5, r6, lr}
 800212e:	4605      	mov	r5, r0
 8002130:	4608      	mov	r0, r1
 8002132:	460c      	mov	r4, r1
 8002134:	f7fe f85a 	bl	80001ec <strlen>
 8002138:	4621      	mov	r1, r4
 800213a:	b282      	uxth	r2, r0
 800213c:	f04f 33ff 	mov.w	r3, #4294967295	@ 0xffffffff
 8002140:	4628      	mov	r0, r5
 8002142:	e8bd 4070 	ldmia.w	sp!, {r4, r5, r6, lr}
 8002146:	f002 bf76 	b.w	8005036 <HAL_UART_Transmit>

0800214a <send_uart_hex>:
 800214a:	b507      	push	{r0, r1, r2, lr}
 800214c:	f04f 33ff 	mov.w	r3, #4294967295	@ 0xffffffff
 8002150:	f88d 1004 	strb.w	r1, [sp, #4]
 8002154:	2201      	movs	r2, #1
 8002156:	a901      	add	r1, sp, #4
 8002158:	f002 ff6d 	bl	8005036 <HAL_UART_Transmit>
 800215c:	b003      	add	sp, #12
 800215e:	f85d fb04 	ldr.w	pc, [sp], #4
	...

08002164 <Reset_Handler>:
 8002164:	f8df d034 	ldr.w	sp, [pc, #52]	@ 800219c <LoopFillZerobss+0xe>
 8002168:	f7ff ffd0 	bl	800210c <SystemInit>
 800216c:	480c      	ldr	r0, [pc, #48]	@ (80021a0 <LoopFillZerobss+0x12>)
 800216e:	490d      	ldr	r1, [pc, #52]	@ (80021a4 <LoopFillZerobss+0x16>)
 8002170:	4a0d      	ldr	r2, [pc, #52]	@ (80021a8 <LoopFillZerobss+0x1a>)
 8002172:	2300      	movs	r3, #0
 8002174:	e002      	b.n	800217c <LoopCopyDataInit>

08002176 <CopyDataInit>:
 8002176:	58d4      	ldr	r4, [r2, r3]
 8002178:	50c4      	str	r4, [r0, r3]
 800217a:	3304      	adds	r3, #4

0800217c <LoopCopyDataInit>:
 800217c:	18c4      	adds	r4, r0, r3
 800217e:	428c      	cmp	r4, r1
 8002180:	d3f9      	bcc.n	8002176 <CopyDataInit>
 8002182:	4a0a      	ldr	r2, [pc, #40]	@ (80021ac <LoopFillZerobss+0x1e>)
 8002184:	4c0a      	ldr	r4, [pc, #40]	@ (80021b0 <LoopFillZerobss+0x22>)
 8002186:	2300      	movs	r3, #0
 8002188:	e001      	b.n	800218e <LoopFillZerobss>

0800218a <FillZerobss>:
 800218a:	6013      	str	r3, [r2, #0]
 800218c:	3204      	adds	r2, #4

0800218e <LoopFillZerobss>:
 800218e:	42a2      	cmp	r2, r4
 8002190:	d3fb      	bcc.n	800218a <FillZerobss>
 8002192:	f003 f981 	bl	8005498 <__libc_init_array>
 8002196:	f7fe ff85 	bl	80010a4 <main>
 800219a:	4770      	bx	lr
 800219c:	20030000 	.word	0x20030000
 80021a0:	20000000 	.word	0x20000000
 80021a4:	20000028 	.word	0x20000028
 80021a8:	080055bc 	.word	0x080055bc
 80021ac:	20000028 	.word	0x20000028
 80021b0:	2000062c 	.word	0x2000062c

080021b4 <ADC_IRQHandler>:
 80021b4:	e7fe      	b.n	80021b4 <ADC_IRQHandler>
	...

080021b8 <HAL_InitTick>:
 80021b8:	b538      	push	{r3, r4, r5, lr}
 80021ba:	4b0e      	ldr	r3, [pc, #56]	@ (80021f4 <HAL_InitTick+0x3c>)
 80021bc:	781a      	ldrb	r2, [r3, #0]
 80021be:	f44f 737a 	mov.w	r3, #1000	@ 0x3e8
 80021c2:	fbb3 f3f2 	udiv	r3, r3, r2
 80021c6:	4a0c      	ldr	r2, [pc, #48]	@ (80021f8 <HAL_InitTick+0x40>)
 80021c8:	4605      	mov	r5, r0
 80021ca:	6810      	ldr	r0, [r2, #0]
 80021cc:	fbb0 f0f3 	udiv	r0, r0, r3
 80021d0:	f000 fbbe 	bl	8002950 <HAL_SYSTICK_Config>
 80021d4:	4604      	mov	r4, r0
 80021d6:	b958      	cbnz	r0, 80021f0 <HAL_InitTick+0x38>
 80021d8:	2d0f      	cmp	r5, #15
 80021da:	d809      	bhi.n	80021f0 <HAL_InitTick+0x38>
 80021dc:	4602      	mov	r2, r0
 80021de:	4629      	mov	r1, r5
 80021e0:	f04f 30ff 	mov.w	r0, #4294967295	@ 0xffffffff
 80021e4:	f000 fb74 	bl	80028d0 <HAL_NVIC_SetPriority>
 80021e8:	4b04      	ldr	r3, [pc, #16]	@ (80021fc <HAL_InitTick+0x44>)
 80021ea:	4620      	mov	r0, r4
 80021ec:	601d      	str	r5, [r3, #0]
 80021ee:	bd38      	pop	{r3, r4, r5, pc}
 80021f0:	2001      	movs	r0, #1
 80021f2:	e7fc      	b.n	80021ee <HAL_InitTick+0x36>
 80021f4:	20000020 	.word	0x20000020
 80021f8:	2000001c 	.word	0x2000001c
 80021fc:	20000024 	.word	0x20000024

08002200 <HAL_Init>:
 8002200:	b508      	push	{r3, lr}
 8002202:	4b0b      	ldr	r3, [pc, #44]	@ (8002230 <HAL_Init+0x30>)
 8002204:	681a      	ldr	r2, [r3, #0]
 8002206:	f442 7200 	orr.w	r2, r2, #512	@ 0x200
 800220a:	601a      	str	r2, [r3, #0]
 800220c:	681a      	ldr	r2, [r3, #0]
 800220e:	f442 6280 	orr.w	r2, r2, #1024	@ 0x400
 8002212:	601a      	str	r2, [r3, #0]
 8002214:	681a      	ldr	r2, [r3, #0]
 8002216:	f442 7280 	orr.w	r2, r2, #256	@ 0x100
 800221a:	601a      	str	r2, [r3, #0]
 800221c:	2003      	movs	r0, #3
 800221e:	f000 fb45 	bl	80028ac <HAL_NVIC_SetPriorityGrouping>
 8002222:	200f      	movs	r0, #15
 8002224:	f7ff ffc8 	bl	80021b8 <HAL_InitTick>
 8002228:	f7ff fcb2 	bl	8001b90 <HAL_MspInit>
 800222c:	2000      	movs	r0, #0
 800222e:	bd08      	pop	{r3, pc}
 8002230:	40023c00 	.word	0x40023c00

08002234 <HAL_IncTick>:
 8002234:	4a03      	ldr	r2, [pc, #12]	@ (8002244 <HAL_IncTick+0x10>)
 8002236:	4b04      	ldr	r3, [pc, #16]	@ (8002248 <HAL_IncTick+0x14>)
 8002238:	6811      	ldr	r1, [r2, #0]
 800223a:	781b      	ldrb	r3, [r3, #0]
 800223c:	440b      	add	r3, r1
 800223e:	6013      	str	r3, [r2, #0]
 8002240:	4770      	bx	lr
 8002242:	bf00      	nop
 8002244:	20000628 	.word	0x20000628
 8002248:	20000020 	.word	0x20000020

0800224c <HAL_GetTick>:
 800224c:	4b01      	ldr	r3, [pc, #4]	@ (8002254 <HAL_GetTick+0x8>)
 800224e:	6818      	ldr	r0, [r3, #0]
 8002250:	4770      	bx	lr
 8002252:	bf00      	nop
 8002254:	20000628 	.word	0x20000628

08002258 <HAL_Delay>:
 8002258:	b538      	push	{r3, r4, r5, lr}
 800225a:	4604      	mov	r4, r0
 800225c:	f7ff fff6 	bl	800224c <HAL_GetTick>
 8002260:	1c63      	adds	r3, r4, #1
 8002262:	bf1c      	itt	ne
 8002264:	4b05      	ldrne	r3, [pc, #20]	@ (800227c <HAL_Delay+0x24>)
 8002266:	781b      	ldrbne	r3, [r3, #0]
 8002268:	4605      	mov	r5, r0
 800226a:	bf18      	it	ne
 800226c:	18e4      	addne	r4, r4, r3
 800226e:	f7ff ffed 	bl	800224c <HAL_GetTick>
 8002272:	1b43      	subs	r3, r0, r5
 8002274:	42a3      	cmp	r3, r4
 8002276:	d3fa      	bcc.n	800226e <HAL_Delay+0x16>
 8002278:	bd38      	pop	{r3, r4, r5, pc}
 800227a:	bf00      	nop
 800227c:	20000020 	.word	0x20000020

08002280 <HAL_CAN_Init>:
 8002280:	b538      	push	{r3, r4, r5, lr}
 8002282:	4604      	mov	r4, r0
 8002284:	2800      	cmp	r0, #0
 8002286:	d06e      	beq.n	8002366 <HAL_CAN_Init+0xe6>
 8002288:	f890 3020 	ldrb.w	r3, [r0, #32]
 800228c:	b90b      	cbnz	r3, 8002292 <HAL_CAN_Init+0x12>
 800228e:	f7ff fc9b 	bl	8001bc8 <HAL_CAN_MspInit>
 8002292:	6822      	ldr	r2, [r4, #0]
 8002294:	6813      	ldr	r3, [r2, #0]
 8002296:	f043 0301 	orr.w	r3, r3, #1
 800229a:	6013      	str	r3, [r2, #0]
 800229c:	f7ff ffd6 	bl	800224c <HAL_GetTick>
 80022a0:	4605      	mov	r5, r0
 80022a2:	6823      	ldr	r3, [r4, #0]
 80022a4:	685a      	ldr	r2, [r3, #4]
 80022a6:	07d1      	lsls	r1, r2, #31
 80022a8:	d551      	bpl.n	800234e <HAL_CAN_Init+0xce>
 80022aa:	681a      	ldr	r2, [r3, #0]
 80022ac:	f022 0202 	bic.w	r2, r2, #2
 80022b0:	601a      	str	r2, [r3, #0]
 80022b2:	f7ff ffcb 	bl	800224c <HAL_GetTick>
 80022b6:	4605      	mov	r5, r0
 80022b8:	6823      	ldr	r3, [r4, #0]
 80022ba:	685a      	ldr	r2, [r3, #4]
 80022bc:	0792      	lsls	r2, r2, #30
 80022be:	d454      	bmi.n	800236a <HAL_CAN_Init+0xea>
 80022c0:	7e22      	ldrb	r2, [r4, #24]
 80022c2:	2a01      	cmp	r2, #1
 80022c4:	681a      	ldr	r2, [r3, #0]
 80022c6:	bf0c      	ite	eq
 80022c8:	f042 0280 	orreq.w	r2, r2, #128	@ 0x80
 80022cc:	f022 0280 	bicne.w	r2, r2, #128	@ 0x80
 80022d0:	601a      	str	r2, [r3, #0]
 80022d2:	7e62      	ldrb	r2, [r4, #25]
 80022d4:	2a01      	cmp	r2, #1
 80022d6:	681a      	ldr	r2, [r3, #0]
 80022d8:	bf0c      	ite	eq
 80022da:	f042 0240 	orreq.w	r2, r2, #64	@ 0x40
 80022de:	f022 0240 	bicne.w	r2, r2, #64	@ 0x40
 80022e2:	601a      	str	r2, [r3, #0]
 80022e4:	7ea2      	ldrb	r2, [r4, #26]
 80022e6:	2a01      	cmp	r2, #1
 80022e8:	681a      	ldr	r2, [r3, #0]
 80022ea:	bf0c      	ite	eq
 80022ec:	f042 0220 	orreq.w	r2, r2, #32
 80022f0:	f022 0220 	bicne.w	r2, r2, #32
 80022f4:	601a      	str	r2, [r3, #0]
 80022f6:	7ee2      	ldrb	r2, [r4, #27]
 80022f8:	2a01      	cmp	r2, #1
 80022fa:	681a      	ldr	r2, [r3, #0]
 80022fc:	bf0c      	ite	eq
 80022fe:	f022 0210 	biceq.w	r2, r2, #16
 8002302:	f042 0210 	orrne.w	r2, r2, #16
 8002306:	601a      	str	r2, [r3, #0]
 8002308:	7f22      	ldrb	r2, [r4, #28]
 800230a:	2a01      	cmp	r2, #1
 800230c:	681a      	ldr	r2, [r3, #0]
 800230e:	bf0c      	ite	eq
 8002310:	f042 0208 	orreq.w	r2, r2, #8
 8002314:	f022 0208 	bicne.w	r2, r2, #8
 8002318:	601a      	str	r2, [r3, #0]
 800231a:	7f62      	ldrb	r2, [r4, #29]
 800231c:	2a01      	cmp	r2, #1
 800231e:	681a      	ldr	r2, [r3, #0]
 8002320:	bf0c      	ite	eq
 8002322:	f042 0204 	orreq.w	r2, r2, #4
 8002326:	f022 0204 	bicne.w	r2, r2, #4
 800232a:	601a      	str	r2, [r3, #0]
 800232c:	e9d4 2102 	ldrd	r2, r1, [r4, #8]
 8002330:	430a      	orrs	r2, r1
 8002332:	6921      	ldr	r1, [r4, #16]
 8002334:	430a      	orrs	r2, r1
 8002336:	6961      	ldr	r1, [r4, #20]
 8002338:	430a      	orrs	r2, r1
 800233a:	6861      	ldr	r1, [r4, #4]
 800233c:	3901      	subs	r1, #1
 800233e:	430a      	orrs	r2, r1
 8002340:	61da      	str	r2, [r3, #28]
 8002342:	2000      	movs	r0, #0
 8002344:	2301      	movs	r3, #1
 8002346:	6260      	str	r0, [r4, #36]	@ 0x24
 8002348:	f884 3020 	strb.w	r3, [r4, #32]
 800234c:	e00c      	b.n	8002368 <HAL_CAN_Init+0xe8>
 800234e:	f7ff ff7d 	bl	800224c <HAL_GetTick>
 8002352:	1b40      	subs	r0, r0, r5
 8002354:	280a      	cmp	r0, #10
 8002356:	d9a4      	bls.n	80022a2 <HAL_CAN_Init+0x22>
 8002358:	6a63      	ldr	r3, [r4, #36]	@ 0x24
 800235a:	f443 3300 	orr.w	r3, r3, #131072	@ 0x20000
 800235e:	6263      	str	r3, [r4, #36]	@ 0x24
 8002360:	2305      	movs	r3, #5
 8002362:	f884 3020 	strb.w	r3, [r4, #32]
 8002366:	2001      	movs	r0, #1
 8002368:	bd38      	pop	{r3, r4, r5, pc}
 800236a:	f7ff ff6f 	bl	800224c <HAL_GetTick>
 800236e:	1b40      	subs	r0, r0, r5
 8002370:	280a      	cmp	r0, #10
 8002372:	d9a1      	bls.n	80022b8 <HAL_CAN_Init+0x38>
 8002374:	e7f0      	b.n	8002358 <HAL_CAN_Init+0xd8>
	...

08002378 <HAL_CAN_ConfigFilter>:
 8002378:	b530      	push	{r4, r5, lr}
 800237a:	f890 3020 	ldrb.w	r3, [r0, #32]
 800237e:	3b01      	subs	r3, #1
 8002380:	2b01      	cmp	r3, #1
 8002382:	d877      	bhi.n	8002474 <HAL_CAN_ConfigFilter+0xfc>
 8002384:	4b3e      	ldr	r3, [pc, #248]	@ (8002480 <HAL_CAN_ConfigFilter+0x108>)
 8002386:	f8d3 2200 	ldr.w	r2, [r3, #512]	@ 0x200
 800238a:	f042 0201 	orr.w	r2, r2, #1
 800238e:	f8c3 2200 	str.w	r2, [r3, #512]	@ 0x200
 8002392:	f8d3 2200 	ldr.w	r2, [r3, #512]	@ 0x200
 8002396:	f422 527c 	bic.w	r2, r2, #16128	@ 0x3f00
 800239a:	f8c3 2200 	str.w	r2, [r3, #512]	@ 0x200
 800239e:	f8d3 2200 	ldr.w	r2, [r3, #512]	@ 0x200
 80023a2:	6a48      	ldr	r0, [r1, #36]	@ 0x24
 80023a4:	ea42 2200 	orr.w	r2, r2, r0, lsl #8
 80023a8:	f8c3 2200 	str.w	r2, [r3, #512]	@ 0x200
 80023ac:	694a      	ldr	r2, [r1, #20]
 80023ae:	f8d3 521c 	ldr.w	r5, [r3, #540]	@ 0x21c
 80023b2:	f002 041f 	and.w	r4, r2, #31
 80023b6:	2001      	movs	r0, #1
 80023b8:	40a0      	lsls	r0, r4
 80023ba:	ea25 0500 	bic.w	r5, r5, r0
 80023be:	f8c3 521c 	str.w	r5, [r3, #540]	@ 0x21c
 80023c2:	69cd      	ldr	r5, [r1, #28]
 80023c4:	43c4      	mvns	r4, r0
 80023c6:	2d00      	cmp	r5, #0
 80023c8:	d135      	bne.n	8002436 <HAL_CAN_ConfigFilter+0xbe>
 80023ca:	f8d3 520c 	ldr.w	r5, [r3, #524]	@ 0x20c
 80023ce:	4025      	ands	r5, r4
 80023d0:	f8c3 520c 	str.w	r5, [r3, #524]	@ 0x20c
 80023d4:	68cb      	ldr	r3, [r1, #12]
 80023d6:	888d      	ldrh	r5, [r1, #4]
 80023d8:	ea45 4503 	orr.w	r5, r5, r3, lsl #16
 80023dc:	00d3      	lsls	r3, r2, #3
 80023de:	f103 4380 	add.w	r3, r3, #1073741824	@ 0x40000000
 80023e2:	f503 43c8 	add.w	r3, r3, #25600	@ 0x6400
 80023e6:	880a      	ldrh	r2, [r1, #0]
 80023e8:	f8c3 5240 	str.w	r5, [r3, #576]	@ 0x240
 80023ec:	688d      	ldr	r5, [r1, #8]
 80023ee:	ea42 4205 	orr.w	r2, r2, r5, lsl #16
 80023f2:	f8c3 2244 	str.w	r2, [r3, #580]	@ 0x244
 80023f6:	698a      	ldr	r2, [r1, #24]
 80023f8:	4b21      	ldr	r3, [pc, #132]	@ (8002480 <HAL_CAN_ConfigFilter+0x108>)
 80023fa:	bb8a      	cbnz	r2, 8002460 <HAL_CAN_ConfigFilter+0xe8>
 80023fc:	f8d3 2204 	ldr.w	r2, [r3, #516]	@ 0x204
 8002400:	4022      	ands	r2, r4
 8002402:	f8c3 2204 	str.w	r2, [r3, #516]	@ 0x204
 8002406:	690a      	ldr	r2, [r1, #16]
 8002408:	bb72      	cbnz	r2, 8002468 <HAL_CAN_ConfigFilter+0xf0>
 800240a:	f8d3 2214 	ldr.w	r2, [r3, #532]	@ 0x214
 800240e:	4014      	ands	r4, r2
 8002410:	f8c3 4214 	str.w	r4, [r3, #532]	@ 0x214
 8002414:	6a0b      	ldr	r3, [r1, #32]
 8002416:	2b01      	cmp	r3, #1
 8002418:	4b19      	ldr	r3, [pc, #100]	@ (8002480 <HAL_CAN_ConfigFilter+0x108>)
 800241a:	bf02      	ittt	eq
 800241c:	f8d3 221c 	ldreq.w	r2, [r3, #540]	@ 0x21c
 8002420:	4302      	orreq	r2, r0
 8002422:	f8c3 221c 	streq.w	r2, [r3, #540]	@ 0x21c
 8002426:	f8d3 2200 	ldr.w	r2, [r3, #512]	@ 0x200
 800242a:	f022 0201 	bic.w	r2, r2, #1
 800242e:	f8c3 2200 	str.w	r2, [r3, #512]	@ 0x200
 8002432:	2000      	movs	r0, #0
 8002434:	bd30      	pop	{r4, r5, pc}
 8002436:	2d01      	cmp	r5, #1
 8002438:	d1dd      	bne.n	80023f6 <HAL_CAN_ConfigFilter+0x7e>
 800243a:	f8d3 520c 	ldr.w	r5, [r3, #524]	@ 0x20c
 800243e:	4305      	orrs	r5, r0
 8002440:	f8c3 520c 	str.w	r5, [r3, #524]	@ 0x20c
 8002444:	680b      	ldr	r3, [r1, #0]
 8002446:	888d      	ldrh	r5, [r1, #4]
 8002448:	ea45 4503 	orr.w	r5, r5, r3, lsl #16
 800244c:	00d3      	lsls	r3, r2, #3
 800244e:	f103 4380 	add.w	r3, r3, #1073741824	@ 0x40000000
 8002452:	f503 43c8 	add.w	r3, r3, #25600	@ 0x6400
 8002456:	898a      	ldrh	r2, [r1, #12]
 8002458:	f8c3 5240 	str.w	r5, [r3, #576]	@ 0x240
 800245c:	688d      	ldr	r5, [r1, #8]
 800245e:	e7c6      	b.n	80023ee <HAL_CAN_ConfigFilter+0x76>
 8002460:	f8d3 2204 	ldr.w	r2, [r3, #516]	@ 0x204
 8002464:	4302      	orrs	r2, r0
 8002466:	e7cc      	b.n	8002402 <HAL_CAN_ConfigFilter+0x8a>
 8002468:	f8d3 2214 	ldr.w	r2, [r3, #532]	@ 0x214
 800246c:	4302      	orrs	r2, r0
 800246e:	f8c3 2214 	str.w	r2, [r3, #532]	@ 0x214
 8002472:	e7cf      	b.n	8002414 <HAL_CAN_ConfigFilter+0x9c>
 8002474:	6a43      	ldr	r3, [r0, #36]	@ 0x24
 8002476:	f443 2380 	orr.w	r3, r3, #262144	@ 0x40000
 800247a:	6243      	str	r3, [r0, #36]	@ 0x24
 800247c:	2001      	movs	r0, #1
 800247e:	e7d9      	b.n	8002434 <HAL_CAN_ConfigFilter+0xbc>
 8002480:	40006400 	.word	0x40006400

08002484 <HAL_CAN_Start>:
 8002484:	b538      	push	{r3, r4, r5, lr}
 8002486:	f890 3020 	ldrb.w	r3, [r0, #32]
 800248a:	2b01      	cmp	r3, #1
 800248c:	4604      	mov	r4, r0
 800248e:	d11f      	bne.n	80024d0 <HAL_CAN_Start+0x4c>
 8002490:	6802      	ldr	r2, [r0, #0]
 8002492:	2302      	movs	r3, #2
 8002494:	f880 3020 	strb.w	r3, [r0, #32]
 8002498:	6813      	ldr	r3, [r2, #0]
 800249a:	f023 0301 	bic.w	r3, r3, #1
 800249e:	6013      	str	r3, [r2, #0]
 80024a0:	f7ff fed4 	bl	800224c <HAL_GetTick>
 80024a4:	4605      	mov	r5, r0
 80024a6:	6823      	ldr	r3, [r4, #0]
 80024a8:	6858      	ldr	r0, [r3, #4]
 80024aa:	f010 0001 	ands.w	r0, r0, #1
 80024ae:	d101      	bne.n	80024b4 <HAL_CAN_Start+0x30>
 80024b0:	6260      	str	r0, [r4, #36]	@ 0x24
 80024b2:	bd38      	pop	{r3, r4, r5, pc}
 80024b4:	f7ff feca 	bl	800224c <HAL_GetTick>
 80024b8:	1b40      	subs	r0, r0, r5
 80024ba:	280a      	cmp	r0, #10
 80024bc:	d9f3      	bls.n	80024a6 <HAL_CAN_Start+0x22>
 80024be:	6a63      	ldr	r3, [r4, #36]	@ 0x24
 80024c0:	f443 3300 	orr.w	r3, r3, #131072	@ 0x20000
 80024c4:	6263      	str	r3, [r4, #36]	@ 0x24
 80024c6:	2305      	movs	r3, #5
 80024c8:	f884 3020 	strb.w	r3, [r4, #32]
 80024cc:	2001      	movs	r0, #1
 80024ce:	e7f0      	b.n	80024b2 <HAL_CAN_Start+0x2e>
 80024d0:	6a43      	ldr	r3, [r0, #36]	@ 0x24
 80024d2:	f443 2300 	orr.w	r3, r3, #524288	@ 0x80000
 80024d6:	6243      	str	r3, [r0, #36]	@ 0x24
 80024d8:	e7f8      	b.n	80024cc <HAL_CAN_Start+0x48>

080024da <HAL_CAN_AddTxMessage>:
 80024da:	b5f0      	push	{r4, r5, r6, r7, lr}
 80024dc:	f890 5020 	ldrb.w	r5, [r0, #32]
 80024e0:	6804      	ldr	r4, [r0, #0]
 80024e2:	3d01      	subs	r5, #1
 80024e4:	2d01      	cmp	r5, #1
 80024e6:	68a6      	ldr	r6, [r4, #8]
 80024e8:	d83e      	bhi.n	8002568 <HAL_CAN_AddTxMessage+0x8e>
 80024ea:	f016 5fe0 	tst.w	r6, #469762048	@ 0x1c000000
 80024ee:	d035      	beq.n	800255c <HAL_CAN_AddTxMessage+0x82>
 80024f0:	f3c6 6001 	ubfx	r0, r6, #24, #2
 80024f4:	2501      	movs	r5, #1
 80024f6:	4085      	lsls	r5, r0
 80024f8:	601d      	str	r5, [r3, #0]
 80024fa:	e9d1 5702 	ldrd	r5, r7, [r1, #8]
 80024fe:	f100 0318 	add.w	r3, r0, #24
 8002502:	bb25      	cbnz	r5, 800254e <HAL_CAN_AddTxMessage+0x74>
 8002504:	680d      	ldr	r5, [r1, #0]
 8002506:	011b      	lsls	r3, r3, #4
 8002508:	ea47 5745 	orr.w	r7, r7, r5, lsl #21
 800250c:	50e7      	str	r7, [r4, r3]
 800250e:	eb04 1300 	add.w	r3, r4, r0, lsl #4
 8002512:	690e      	ldr	r6, [r1, #16]
 8002514:	f8c3 6184 	str.w	r6, [r3, #388]	@ 0x184
 8002518:	7d09      	ldrb	r1, [r1, #20]
 800251a:	2901      	cmp	r1, #1
 800251c:	bf08      	it	eq
 800251e:	f8d3 1184 	ldreq.w	r1, [r3, #388]	@ 0x184
 8002522:	ea4f 1500 	mov.w	r5, r0, lsl #4
 8002526:	bf04      	itt	eq
 8002528:	f441 7180 	orreq.w	r1, r1, #256	@ 0x100
 800252c:	f8c3 1184 	streq.w	r1, [r3, #388]	@ 0x184
 8002530:	442c      	add	r4, r5
 8002532:	6851      	ldr	r1, [r2, #4]
 8002534:	f8c4 118c 	str.w	r1, [r4, #396]	@ 0x18c
 8002538:	6812      	ldr	r2, [r2, #0]
 800253a:	f8c4 2188 	str.w	r2, [r4, #392]	@ 0x188
 800253e:	f8d3 2180 	ldr.w	r2, [r3, #384]	@ 0x180
 8002542:	f042 0201 	orr.w	r2, r2, #1
 8002546:	f8c3 2180 	str.w	r2, [r3, #384]	@ 0x180
 800254a:	2000      	movs	r0, #0
 800254c:	bdf0      	pop	{r4, r5, r6, r7, pc}
 800254e:	684e      	ldr	r6, [r1, #4]
 8002550:	433d      	orrs	r5, r7
 8002552:	011b      	lsls	r3, r3, #4
 8002554:	ea45 05c6 	orr.w	r5, r5, r6, lsl #3
 8002558:	50e5      	str	r5, [r4, r3]
 800255a:	e7d8      	b.n	800250e <HAL_CAN_AddTxMessage+0x34>
 800255c:	6a43      	ldr	r3, [r0, #36]	@ 0x24
 800255e:	f443 1300 	orr.w	r3, r3, #2097152	@ 0x200000
 8002562:	6243      	str	r3, [r0, #36]	@ 0x24
 8002564:	2001      	movs	r0, #1
 8002566:	e7f1      	b.n	800254c <HAL_CAN_AddTxMessage+0x72>
 8002568:	6a43      	ldr	r3, [r0, #36]	@ 0x24
 800256a:	f443 2380 	orr.w	r3, r3, #262144	@ 0x40000
 800256e:	e7f8      	b.n	8002562 <HAL_CAN_AddTxMessage+0x88>

08002570 <HAL_CAN_GetRxMessage>:
 8002570:	b5f0      	push	{r4, r5, r6, r7, lr}
 8002572:	f890 4020 	ldrb.w	r4, [r0, #32]
 8002576:	3c01      	subs	r4, #1
 8002578:	2c01      	cmp	r4, #1
 800257a:	d871      	bhi.n	8002660 <HAL_CAN_GetRxMessage+0xf0>
 800257c:	6806      	ldr	r6, [r0, #0]
 800257e:	b941      	cbnz	r1, 8002592 <HAL_CAN_GetRxMessage+0x22>
 8002580:	68f4      	ldr	r4, [r6, #12]
 8002582:	07a4      	lsls	r4, r4, #30
 8002584:	d107      	bne.n	8002596 <HAL_CAN_GetRxMessage+0x26>
 8002586:	6a43      	ldr	r3, [r0, #36]	@ 0x24
 8002588:	f443 1300 	orr.w	r3, r3, #2097152	@ 0x200000
 800258c:	6243      	str	r3, [r0, #36]	@ 0x24
 800258e:	2001      	movs	r0, #1
 8002590:	bdf0      	pop	{r4, r5, r6, r7, pc}
 8002592:	6934      	ldr	r4, [r6, #16]
 8002594:	e7f5      	b.n	8002582 <HAL_CAN_GetRxMessage+0x12>
 8002596:	eb06 1501 	add.w	r5, r6, r1, lsl #4
 800259a:	010c      	lsls	r4, r1, #4
 800259c:	f8d5 71b0 	ldr.w	r7, [r5, #432]	@ 0x1b0
 80025a0:	f007 0704 	and.w	r7, r7, #4
 80025a4:	6097      	str	r7, [r2, #8]
 80025a6:	2f00      	cmp	r7, #0
 80025a8:	d150      	bne.n	800264c <HAL_CAN_GetRxMessage+0xdc>
 80025aa:	f8d5 71b0 	ldr.w	r7, [r5, #432]	@ 0x1b0
 80025ae:	0d7f      	lsrs	r7, r7, #21
 80025b0:	6017      	str	r7, [r2, #0]
 80025b2:	f8d5 71b0 	ldr.w	r7, [r5, #432]	@ 0x1b0
 80025b6:	f007 0702 	and.w	r7, r7, #2
 80025ba:	60d7      	str	r7, [r2, #12]
 80025bc:	f8d5 71b4 	ldr.w	r7, [r5, #436]	@ 0x1b4
 80025c0:	073f      	lsls	r7, r7, #28
 80025c2:	bf56      	itet	pl
 80025c4:	f8d5 71b4 	ldrpl.w	r7, [r5, #436]	@ 0x1b4
 80025c8:	2708      	movmi	r7, #8
 80025ca:	f007 070f 	andpl.w	r7, r7, #15
 80025ce:	6117      	str	r7, [r2, #16]
 80025d0:	f8d5 71b4 	ldr.w	r7, [r5, #436]	@ 0x1b4
 80025d4:	f8d5 51b4 	ldr.w	r5, [r5, #436]	@ 0x1b4
 80025d8:	4426      	add	r6, r4
 80025da:	f3c7 2707 	ubfx	r7, r7, #8, #8
 80025de:	0c2d      	lsrs	r5, r5, #16
 80025e0:	6197      	str	r7, [r2, #24]
 80025e2:	6155      	str	r5, [r2, #20]
 80025e4:	f8d6 21b8 	ldr.w	r2, [r6, #440]	@ 0x1b8
 80025e8:	701a      	strb	r2, [r3, #0]
 80025ea:	6802      	ldr	r2, [r0, #0]
 80025ec:	4422      	add	r2, r4
 80025ee:	f8d2 21b8 	ldr.w	r2, [r2, #440]	@ 0x1b8
 80025f2:	0a12      	lsrs	r2, r2, #8
 80025f4:	705a      	strb	r2, [r3, #1]
 80025f6:	6802      	ldr	r2, [r0, #0]
 80025f8:	4422      	add	r2, r4
 80025fa:	f8d2 21b8 	ldr.w	r2, [r2, #440]	@ 0x1b8
 80025fe:	0c12      	lsrs	r2, r2, #16
 8002600:	709a      	strb	r2, [r3, #2]
 8002602:	6802      	ldr	r2, [r0, #0]
 8002604:	4422      	add	r2, r4
 8002606:	f8d2 21b8 	ldr.w	r2, [r2, #440]	@ 0x1b8
 800260a:	0e12      	lsrs	r2, r2, #24
 800260c:	70da      	strb	r2, [r3, #3]
 800260e:	6802      	ldr	r2, [r0, #0]
 8002610:	4422      	add	r2, r4
 8002612:	f8d2 21bc 	ldr.w	r2, [r2, #444]	@ 0x1bc
 8002616:	711a      	strb	r2, [r3, #4]
 8002618:	6802      	ldr	r2, [r0, #0]
 800261a:	4422      	add	r2, r4
 800261c:	f8d2 21bc 	ldr.w	r2, [r2, #444]	@ 0x1bc
 8002620:	0a12      	lsrs	r2, r2, #8
 8002622:	715a      	strb	r2, [r3, #5]
 8002624:	6802      	ldr	r2, [r0, #0]
 8002626:	4422      	add	r2, r4
 8002628:	f8d2 21bc 	ldr.w	r2, [r2, #444]	@ 0x1bc
 800262c:	0c12      	lsrs	r2, r2, #16
 800262e:	719a      	strb	r2, [r3, #6]
 8002630:	6802      	ldr	r2, [r0, #0]
 8002632:	4422      	add	r2, r4
 8002634:	f8d2 21bc 	ldr.w	r2, [r2, #444]	@ 0x1bc
 8002638:	0e12      	lsrs	r2, r2, #24
 800263a:	71da      	strb	r2, [r3, #7]
 800263c:	6803      	ldr	r3, [r0, #0]
 800263e:	b951      	cbnz	r1, 8002656 <HAL_CAN_GetRxMessage+0xe6>
 8002640:	68da      	ldr	r2, [r3, #12]
 8002642:	f042 0220 	orr.w	r2, r2, #32
 8002646:	60da      	str	r2, [r3, #12]
 8002648:	2000      	movs	r0, #0
 800264a:	e7a1      	b.n	8002590 <HAL_CAN_GetRxMessage+0x20>
 800264c:	f8d5 71b0 	ldr.w	r7, [r5, #432]	@ 0x1b0
 8002650:	08ff      	lsrs	r7, r7, #3
 8002652:	6057      	str	r7, [r2, #4]
 8002654:	e7ad      	b.n	80025b2 <HAL_CAN_GetRxMessage+0x42>
 8002656:	691a      	ldr	r2, [r3, #16]
 8002658:	f042 0220 	orr.w	r2, r2, #32
 800265c:	611a      	str	r2, [r3, #16]
 800265e:	e7f3      	b.n	8002648 <HAL_CAN_GetRxMessage+0xd8>
 8002660:	6a43      	ldr	r3, [r0, #36]	@ 0x24
 8002662:	f443 2380 	orr.w	r3, r3, #262144	@ 0x40000
 8002666:	e791      	b.n	800258c <HAL_CAN_GetRxMessage+0x1c>

08002668 <HAL_CAN_ActivateNotification>:
 8002668:	f890 3020 	ldrb.w	r3, [r0, #32]
 800266c:	3b01      	subs	r3, #1
 800266e:	2b01      	cmp	r3, #1
 8002670:	d805      	bhi.n	800267e <HAL_CAN_ActivateNotification+0x16>
 8002672:	6802      	ldr	r2, [r0, #0]
 8002674:	6953      	ldr	r3, [r2, #20]
 8002676:	4319      	orrs	r1, r3
 8002678:	6151      	str	r1, [r2, #20]
 800267a:	2000      	movs	r0, #0
 800267c:	4770      	bx	lr
 800267e:	6a43      	ldr	r3, [r0, #36]	@ 0x24
 8002680:	f443 2380 	orr.w	r3, r3, #262144	@ 0x40000
 8002684:	6243      	str	r3, [r0, #36]	@ 0x24
 8002686:	2001      	movs	r0, #1
 8002688:	4770      	bx	lr

0800268a <HAL_CAN_TxMailbox0CompleteCallback>:
 800268a:	4770      	bx	lr

0800268c <HAL_CAN_TxMailbox1CompleteCallback>:
 800268c:	4770      	bx	lr

0800268e <HAL_CAN_TxMailbox2CompleteCallback>:
 800268e:	4770      	bx	lr

08002690 <HAL_CAN_TxMailbox0AbortCallback>:
 8002690:	4770      	bx	lr

08002692 <HAL_CAN_TxMailbox1AbortCallback>:
 8002692:	4770      	bx	lr

08002694 <HAL_CAN_TxMailbox2AbortCallback>:
 8002694:	4770      	bx	lr

08002696 <HAL_CAN_RxFifo0FullCallback>:
 8002696:	4770      	bx	lr

08002698 <HAL_CAN_RxFifo1MsgPendingCallback>:
 8002698:	4770      	bx	lr

0800269a <HAL_CAN_RxFifo1FullCallback>:
 800269a:	4770      	bx	lr

0800269c <HAL_CAN_SleepCallback>:
 800269c:	4770      	bx	lr

0800269e <HAL_CAN_WakeUpFromRxMsgCallback>:
 800269e:	4770      	bx	lr

080026a0 <HAL_CAN_ErrorCallback>:
 80026a0:	4770      	bx	lr

080026a2 <HAL_CAN_IRQHandler>:
 80026a2:	e92d 4ff8 	stmdb	sp!, {r3, r4, r5, r6, r7, r8, r9, sl, fp, lr}
 80026a6:	6803      	ldr	r3, [r0, #0]
 80026a8:	695e      	ldr	r6, [r3, #20]
 80026aa:	f8d3 9004 	ldr.w	r9, [r3, #4]
 80026ae:	f8d3 8008 	ldr.w	r8, [r3, #8]
 80026b2:	f8d3 b00c 	ldr.w	fp, [r3, #12]
 80026b6:	f8d3 a010 	ldr.w	sl, [r3, #16]
 80026ba:	699f      	ldr	r7, [r3, #24]
 80026bc:	f016 0401 	ands.w	r4, r6, #1
 80026c0:	4605      	mov	r5, r0
 80026c2:	d027      	beq.n	8002714 <HAL_CAN_IRQHandler+0x72>
 80026c4:	f018 0f01 	tst.w	r8, #1
 80026c8:	d007      	beq.n	80026da <HAL_CAN_IRQHandler+0x38>
 80026ca:	2201      	movs	r2, #1
 80026cc:	f018 0f02 	tst.w	r8, #2
 80026d0:	609a      	str	r2, [r3, #8]
 80026d2:	f000 80a6 	beq.w	8002822 <HAL_CAN_IRQHandler+0x180>
 80026d6:	f7ff ffd8 	bl	800268a <HAL_CAN_TxMailbox0CompleteCallback>
 80026da:	2400      	movs	r4, #0
 80026dc:	f418 7f80 	tst.w	r8, #256	@ 0x100
 80026e0:	d00a      	beq.n	80026f8 <HAL_CAN_IRQHandler+0x56>
 80026e2:	682b      	ldr	r3, [r5, #0]
 80026e4:	f44f 7280 	mov.w	r2, #256	@ 0x100
 80026e8:	f418 7f00 	tst.w	r8, #512	@ 0x200
 80026ec:	609a      	str	r2, [r3, #8]
 80026ee:	f000 80a7 	beq.w	8002840 <HAL_CAN_IRQHandler+0x19e>
 80026f2:	4628      	mov	r0, r5
 80026f4:	f7ff ffca 	bl	800268c <HAL_CAN_TxMailbox1CompleteCallback>
 80026f8:	f418 3f80 	tst.w	r8, #65536	@ 0x10000
 80026fc:	d00a      	beq.n	8002714 <HAL_CAN_IRQHandler+0x72>
 80026fe:	682b      	ldr	r3, [r5, #0]
 8002700:	f44f 3280 	mov.w	r2, #65536	@ 0x10000
 8002704:	f418 3f00 	tst.w	r8, #131072	@ 0x20000
 8002708:	609a      	str	r2, [r3, #8]
 800270a:	f000 80a9 	beq.w	8002860 <HAL_CAN_IRQHandler+0x1be>
 800270e:	4628      	mov	r0, r5
 8002710:	f7ff ffbd 	bl	800268e <HAL_CAN_TxMailbox2CompleteCallback>
 8002714:	0730      	lsls	r0, r6, #28
 8002716:	d507      	bpl.n	8002728 <HAL_CAN_IRQHandler+0x86>
 8002718:	f01b 0f10 	tst.w	fp, #16
 800271c:	bf1f      	itttt	ne
 800271e:	682b      	ldrne	r3, [r5, #0]
 8002720:	2210      	movne	r2, #16
 8002722:	f444 7400 	orrne.w	r4, r4, #512	@ 0x200
 8002726:	60da      	strne	r2, [r3, #12]
 8002728:	0771      	lsls	r1, r6, #29
 800272a:	d508      	bpl.n	800273e <HAL_CAN_IRQHandler+0x9c>
 800272c:	f01b 0f08 	tst.w	fp, #8
 8002730:	d005      	beq.n	800273e <HAL_CAN_IRQHandler+0x9c>
 8002732:	682b      	ldr	r3, [r5, #0]
 8002734:	2208      	movs	r2, #8
 8002736:	60da      	str	r2, [r3, #12]
 8002738:	4628      	mov	r0, r5
 800273a:	f7ff ffac 	bl	8002696 <HAL_CAN_RxFifo0FullCallback>
 800273e:	07b2      	lsls	r2, r6, #30
 8002740:	d506      	bpl.n	8002750 <HAL_CAN_IRQHandler+0xae>
 8002742:	682b      	ldr	r3, [r5, #0]
 8002744:	68db      	ldr	r3, [r3, #12]
 8002746:	079b      	lsls	r3, r3, #30
 8002748:	d002      	beq.n	8002750 <HAL_CAN_IRQHandler+0xae>
 800274a:	4628      	mov	r0, r5
 800274c:	f7ff fc7c 	bl	8002048 <HAL_CAN_RxFifo0MsgPendingCallback>
 8002750:	0670      	lsls	r0, r6, #25
 8002752:	d507      	bpl.n	8002764 <HAL_CAN_IRQHandler+0xc2>
 8002754:	f01a 0f10 	tst.w	sl, #16
 8002758:	bf1f      	itttt	ne
 800275a:	682b      	ldrne	r3, [r5, #0]
 800275c:	2210      	movne	r2, #16
 800275e:	f444 6480 	orrne.w	r4, r4, #1024	@ 0x400
 8002762:	611a      	strne	r2, [r3, #16]
 8002764:	06b1      	lsls	r1, r6, #26
 8002766:	d508      	bpl.n	800277a <HAL_CAN_IRQHandler+0xd8>
 8002768:	f01a 0f08 	tst.w	sl, #8
 800276c:	d005      	beq.n	800277a <HAL_CAN_IRQHandler+0xd8>
 800276e:	682b      	ldr	r3, [r5, #0]
 8002770:	2208      	movs	r2, #8
 8002772:	611a      	str	r2, [r3, #16]
 8002774:	4628      	mov	r0, r5
 8002776:	f7ff ff90 	bl	800269a <HAL_CAN_RxFifo1FullCallback>
 800277a:	06f2      	lsls	r2, r6, #27
 800277c:	d506      	bpl.n	800278c <HAL_CAN_IRQHandler+0xea>
 800277e:	682b      	ldr	r3, [r5, #0]
 8002780:	691b      	ldr	r3, [r3, #16]
 8002782:	079b      	lsls	r3, r3, #30
 8002784:	d002      	beq.n	800278c <HAL_CAN_IRQHandler+0xea>
 8002786:	4628      	mov	r0, r5
 8002788:	f7ff ff86 	bl	8002698 <HAL_CAN_RxFifo1MsgPendingCallback>
 800278c:	03b0      	lsls	r0, r6, #14
 800278e:	d508      	bpl.n	80027a2 <HAL_CAN_IRQHandler+0x100>
 8002790:	f019 0f10 	tst.w	r9, #16
 8002794:	d005      	beq.n	80027a2 <HAL_CAN_IRQHandler+0x100>
 8002796:	682b      	ldr	r3, [r5, #0]
 8002798:	2210      	movs	r2, #16
 800279a:	605a      	str	r2, [r3, #4]
 800279c:	4628      	mov	r0, r5
 800279e:	f7ff ff7d 	bl	800269c <HAL_CAN_SleepCallback>
 80027a2:	03f1      	lsls	r1, r6, #15
 80027a4:	d508      	bpl.n	80027b8 <HAL_CAN_IRQHandler+0x116>
 80027a6:	f019 0f08 	tst.w	r9, #8
 80027aa:	d005      	beq.n	80027b8 <HAL_CAN_IRQHandler+0x116>
 80027ac:	682b      	ldr	r3, [r5, #0]
 80027ae:	2208      	movs	r2, #8
 80027b0:	605a      	str	r2, [r3, #4]
 80027b2:	4628      	mov	r0, r5
 80027b4:	f7ff ff73 	bl	800269e <HAL_CAN_WakeUpFromRxMsgCallback>
 80027b8:	0432      	lsls	r2, r6, #16
 80027ba:	d529      	bpl.n	8002810 <HAL_CAN_IRQHandler+0x16e>
 80027bc:	f019 0f04 	tst.w	r9, #4
 80027c0:	682a      	ldr	r2, [r5, #0]
 80027c2:	d023      	beq.n	800280c <HAL_CAN_IRQHandler+0x16a>
 80027c4:	05f3      	lsls	r3, r6, #23
 80027c6:	d503      	bpl.n	80027d0 <HAL_CAN_IRQHandler+0x12e>
 80027c8:	07f8      	lsls	r0, r7, #31
 80027ca:	bf48      	it	mi
 80027cc:	f044 0401 	orrmi.w	r4, r4, #1
 80027d0:	05b1      	lsls	r1, r6, #22
 80027d2:	d503      	bpl.n	80027dc <HAL_CAN_IRQHandler+0x13a>
 80027d4:	07bb      	lsls	r3, r7, #30
 80027d6:	bf48      	it	mi
 80027d8:	f044 0402 	orrmi.w	r4, r4, #2
 80027dc:	0570      	lsls	r0, r6, #21
 80027de:	d503      	bpl.n	80027e8 <HAL_CAN_IRQHandler+0x146>
 80027e0:	0779      	lsls	r1, r7, #29
 80027e2:	bf48      	it	mi
 80027e4:	f044 0404 	orrmi.w	r4, r4, #4
 80027e8:	0533      	lsls	r3, r6, #20
 80027ea:	d50f      	bpl.n	800280c <HAL_CAN_IRQHandler+0x16a>
 80027ec:	f017 0370 	ands.w	r3, r7, #112	@ 0x70
 80027f0:	d00c      	beq.n	800280c <HAL_CAN_IRQHandler+0x16a>
 80027f2:	2b40      	cmp	r3, #64	@ 0x40
 80027f4:	d054      	beq.n	80028a0 <HAL_CAN_IRQHandler+0x1fe>
 80027f6:	d843      	bhi.n	8002880 <HAL_CAN_IRQHandler+0x1de>
 80027f8:	2b20      	cmp	r3, #32
 80027fa:	d04b      	beq.n	8002894 <HAL_CAN_IRQHandler+0x1f2>
 80027fc:	2b30      	cmp	r3, #48	@ 0x30
 80027fe:	d04c      	beq.n	800289a <HAL_CAN_IRQHandler+0x1f8>
 8002800:	2b10      	cmp	r3, #16
 8002802:	d044      	beq.n	800288e <HAL_CAN_IRQHandler+0x1ec>
 8002804:	6993      	ldr	r3, [r2, #24]
 8002806:	f023 0370 	bic.w	r3, r3, #112	@ 0x70
 800280a:	6193      	str	r3, [r2, #24]
 800280c:	2304      	movs	r3, #4
 800280e:	6053      	str	r3, [r2, #4]
 8002810:	b12c      	cbz	r4, 800281e <HAL_CAN_IRQHandler+0x17c>
 8002812:	6a6b      	ldr	r3, [r5, #36]	@ 0x24
 8002814:	4323      	orrs	r3, r4
 8002816:	626b      	str	r3, [r5, #36]	@ 0x24
 8002818:	4628      	mov	r0, r5
 800281a:	f7ff ff41 	bl	80026a0 <HAL_CAN_ErrorCallback>
 800281e:	e8bd 8ff8 	ldmia.w	sp!, {r3, r4, r5, r6, r7, r8, r9, sl, fp, pc}
 8002822:	f018 0f04 	tst.w	r8, #4
 8002826:	d105      	bne.n	8002834 <HAL_CAN_IRQHandler+0x192>
 8002828:	f018 0f08 	tst.w	r8, #8
 800282c:	d105      	bne.n	800283a <HAL_CAN_IRQHandler+0x198>
 800282e:	f7ff ff2f 	bl	8002690 <HAL_CAN_TxMailbox0AbortCallback>
 8002832:	e752      	b.n	80026da <HAL_CAN_IRQHandler+0x38>
 8002834:	f44f 6400 	mov.w	r4, #2048	@ 0x800
 8002838:	e750      	b.n	80026dc <HAL_CAN_IRQHandler+0x3a>
 800283a:	f44f 5480 	mov.w	r4, #4096	@ 0x1000
 800283e:	e74d      	b.n	80026dc <HAL_CAN_IRQHandler+0x3a>
 8002840:	f418 6f80 	tst.w	r8, #1024	@ 0x400
 8002844:	d002      	beq.n	800284c <HAL_CAN_IRQHandler+0x1aa>
 8002846:	f444 5400 	orr.w	r4, r4, #8192	@ 0x2000
 800284a:	e755      	b.n	80026f8 <HAL_CAN_IRQHandler+0x56>
 800284c:	f418 6f00 	tst.w	r8, #2048	@ 0x800
 8002850:	d002      	beq.n	8002858 <HAL_CAN_IRQHandler+0x1b6>
 8002852:	f444 4480 	orr.w	r4, r4, #16384	@ 0x4000
 8002856:	e74f      	b.n	80026f8 <HAL_CAN_IRQHandler+0x56>
 8002858:	4628      	mov	r0, r5
 800285a:	f7ff ff1a 	bl	8002692 <HAL_CAN_TxMailbox1AbortCallback>
 800285e:	e74b      	b.n	80026f8 <HAL_CAN_IRQHandler+0x56>
 8002860:	f418 2f80 	tst.w	r8, #262144	@ 0x40000
 8002864:	d002      	beq.n	800286c <HAL_CAN_IRQHandler+0x1ca>
 8002866:	f444 4400 	orr.w	r4, r4, #32768	@ 0x8000
 800286a:	e753      	b.n	8002714 <HAL_CAN_IRQHandler+0x72>
 800286c:	f418 2f00 	tst.w	r8, #524288	@ 0x80000
 8002870:	d002      	beq.n	8002878 <HAL_CAN_IRQHandler+0x1d6>
 8002872:	f444 3480 	orr.w	r4, r4, #65536	@ 0x10000
 8002876:	e74d      	b.n	8002714 <HAL_CAN_IRQHandler+0x72>
 8002878:	4628      	mov	r0, r5
 800287a:	f7ff ff0b 	bl	8002694 <HAL_CAN_TxMailbox2AbortCallback>
 800287e:	e749      	b.n	8002714 <HAL_CAN_IRQHandler+0x72>
 8002880:	2b50      	cmp	r3, #80	@ 0x50
 8002882:	d010      	beq.n	80028a6 <HAL_CAN_IRQHandler+0x204>
 8002884:	2b60      	cmp	r3, #96	@ 0x60
 8002886:	d1bd      	bne.n	8002804 <HAL_CAN_IRQHandler+0x162>
 8002888:	f444 7480 	orr.w	r4, r4, #256	@ 0x100
 800288c:	e7ba      	b.n	8002804 <HAL_CAN_IRQHandler+0x162>
 800288e:	f044 0408 	orr.w	r4, r4, #8
 8002892:	e7b7      	b.n	8002804 <HAL_CAN_IRQHandler+0x162>
 8002894:	f044 0410 	orr.w	r4, r4, #16
 8002898:	e7b4      	b.n	8002804 <HAL_CAN_IRQHandler+0x162>
 800289a:	f044 0420 	orr.w	r4, r4, #32
 800289e:	e7b1      	b.n	8002804 <HAL_CAN_IRQHandler+0x162>
 80028a0:	f044 0440 	orr.w	r4, r4, #64	@ 0x40
 80028a4:	e7ae      	b.n	8002804 <HAL_CAN_IRQHandler+0x162>
 80028a6:	f044 0480 	orr.w	r4, r4, #128	@ 0x80
 80028aa:	e7ab      	b.n	8002804 <HAL_CAN_IRQHandler+0x162>

080028ac <HAL_NVIC_SetPriorityGrouping>:
 80028ac:	4907      	ldr	r1, [pc, #28]	@ (80028cc <HAL_NVIC_SetPriorityGrouping+0x20>)
 80028ae:	68ca      	ldr	r2, [r1, #12]
 80028b0:	f422 62e0 	bic.w	r2, r2, #1792	@ 0x700
 80028b4:	0203      	lsls	r3, r0, #8
 80028b6:	0412      	lsls	r2, r2, #16
 80028b8:	f403 63e0 	and.w	r3, r3, #1792	@ 0x700
 80028bc:	0c12      	lsrs	r2, r2, #16
 80028be:	4313      	orrs	r3, r2
 80028c0:	f043 63bf 	orr.w	r3, r3, #100139008	@ 0x5f80000
 80028c4:	f443 3300 	orr.w	r3, r3, #131072	@ 0x20000
 80028c8:	60cb      	str	r3, [r1, #12]
 80028ca:	4770      	bx	lr
 80028cc:	e000ed00 	.word	0xe000ed00

080028d0 <HAL_NVIC_SetPriority>:
 80028d0:	4b16      	ldr	r3, [pc, #88]	@ (800292c <HAL_NVIC_SetPriority+0x5c>)
 80028d2:	b530      	push	{r4, r5, lr}
 80028d4:	68dc      	ldr	r4, [r3, #12]
 80028d6:	f3c4 2402 	ubfx	r4, r4, #8, #3
 80028da:	f1c4 0307 	rsb	r3, r4, #7
 80028de:	1d25      	adds	r5, r4, #4
 80028e0:	2b04      	cmp	r3, #4
 80028e2:	bf28      	it	cs
 80028e4:	2304      	movcs	r3, #4
 80028e6:	2d06      	cmp	r5, #6
 80028e8:	f04f 35ff 	mov.w	r5, #4294967295	@ 0xffffffff
 80028ec:	bf8c      	ite	hi
 80028ee:	3c03      	subhi	r4, #3
 80028f0:	2400      	movls	r4, #0
 80028f2:	fa05 f303 	lsl.w	r3, r5, r3
 80028f6:	ea21 0303 	bic.w	r3, r1, r3
 80028fa:	40a5      	lsls	r5, r4
 80028fc:	ea22 0205 	bic.w	r2, r2, r5
 8002900:	40a3      	lsls	r3, r4
 8002902:	2800      	cmp	r0, #0
 8002904:	ea43 0302 	orr.w	r3, r3, r2
 8002908:	bfac      	ite	ge
 800290a:	f100 4060 	addge.w	r0, r0, #3758096384	@ 0xe0000000
 800290e:	4a08      	ldrlt	r2, [pc, #32]	@ (8002930 <HAL_NVIC_SetPriority+0x60>)
 8002910:	ea4f 1303 	mov.w	r3, r3, lsl #4
 8002914:	bfb8      	it	lt
 8002916:	f000 000f 	andlt.w	r0, r0, #15
 800291a:	b2db      	uxtb	r3, r3
 800291c:	bfaa      	itet	ge
 800291e:	f500 4061 	addge.w	r0, r0, #57600	@ 0xe100
 8002922:	5413      	strblt	r3, [r2, r0]
 8002924:	f880 3300 	strbge.w	r3, [r0, #768]	@ 0x300
 8002928:	bd30      	pop	{r4, r5, pc}
 800292a:	bf00      	nop
 800292c:	e000ed00 	.word	0xe000ed00
 8002930:	e000ed14 	.word	0xe000ed14

08002934 <HAL_NVIC_EnableIRQ>:
 8002934:	2800      	cmp	r0, #0
 8002936:	db07      	blt.n	8002948 <HAL_NVIC_EnableIRQ+0x14>
 8002938:	4a04      	ldr	r2, [pc, #16]	@ (800294c <HAL_NVIC_EnableIRQ+0x18>)
 800293a:	0941      	lsrs	r1, r0, #5
 800293c:	2301      	movs	r3, #1
 800293e:	f000 001f 	and.w	r0, r0, #31
 8002942:	4083      	lsls	r3, r0
 8002944:	f842 3021 	str.w	r3, [r2, r1, lsl #2]
 8002948:	4770      	bx	lr
 800294a:	bf00      	nop
 800294c:	e000e100 	.word	0xe000e100

08002950 <HAL_SYSTICK_Config>:
 8002950:	3801      	subs	r0, #1
 8002952:	f1b0 7f80 	cmp.w	r0, #16777216	@ 0x1000000
 8002956:	d20b      	bcs.n	8002970 <HAL_SYSTICK_Config+0x20>
 8002958:	f04f 23e0 	mov.w	r3, #3758153728	@ 0xe000e000
 800295c:	4a05      	ldr	r2, [pc, #20]	@ (8002974 <HAL_SYSTICK_Config+0x24>)
 800295e:	6158      	str	r0, [r3, #20]
 8002960:	21f0      	movs	r1, #240	@ 0xf0
 8002962:	f882 1023 	strb.w	r1, [r2, #35]	@ 0x23
 8002966:	2000      	movs	r0, #0
 8002968:	2207      	movs	r2, #7
 800296a:	6198      	str	r0, [r3, #24]
 800296c:	611a      	str	r2, [r3, #16]
 800296e:	4770      	bx	lr
 8002970:	2001      	movs	r0, #1
 8002972:	4770      	bx	lr
 8002974:	e000ed00 	.word	0xe000ed00

08002978 <DMA_CalcBaseAndBitshift>:
 8002978:	6803      	ldr	r3, [r0, #0]
 800297a:	b510      	push	{r4, lr}
 800297c:	4c08      	ldr	r4, [pc, #32]	@ (80029a0 <DMA_CalcBaseAndBitshift+0x28>)
 800297e:	4602      	mov	r2, r0
 8002980:	b2d9      	uxtb	r1, r3
 8002982:	3910      	subs	r1, #16
 8002984:	2018      	movs	r0, #24
 8002986:	fbb1 f0f0 	udiv	r0, r1, r0
 800298a:	5c20      	ldrb	r0, [r4, r0]
 800298c:	65d0      	str	r0, [r2, #92]	@ 0x5c
 800298e:	f423 707f 	bic.w	r0, r3, #1020	@ 0x3fc
 8002992:	f020 0003 	bic.w	r0, r0, #3
 8002996:	295f      	cmp	r1, #95	@ 0x5f
 8002998:	bf88      	it	hi
 800299a:	3004      	addhi	r0, #4
 800299c:	6590      	str	r0, [r2, #88]	@ 0x58
 800299e:	bd10      	pop	{r4, pc}
 80029a0:	080055a3 	.word	0x080055a3

080029a4 <HAL_DMA_Init>:
 80029a4:	b570      	push	{r4, r5, r6, lr}
 80029a6:	4604      	mov	r4, r0
 80029a8:	f7ff fc50 	bl	800224c <HAL_GetTick>
 80029ac:	4605      	mov	r5, r0
 80029ae:	2c00      	cmp	r4, #0
 80029b0:	d060      	beq.n	8002a74 <HAL_DMA_Init+0xd0>
 80029b2:	2302      	movs	r3, #2
 80029b4:	f884 3035 	strb.w	r3, [r4, #53]	@ 0x35
 80029b8:	6822      	ldr	r2, [r4, #0]
 80029ba:	2300      	movs	r3, #0
 80029bc:	f884 3034 	strb.w	r3, [r4, #52]	@ 0x34
 80029c0:	6813      	ldr	r3, [r2, #0]
 80029c2:	f023 0301 	bic.w	r3, r3, #1
 80029c6:	6013      	str	r3, [r2, #0]
 80029c8:	6822      	ldr	r2, [r4, #0]
 80029ca:	6813      	ldr	r3, [r2, #0]
 80029cc:	07d8      	lsls	r0, r3, #31
 80029ce:	d42e      	bmi.n	8002a2e <HAL_DMA_Init+0x8a>
 80029d0:	6813      	ldr	r3, [r2, #0]
 80029d2:	4832      	ldr	r0, [pc, #200]	@ (8002a9c <HAL_DMA_Init+0xf8>)
 80029d4:	69a1      	ldr	r1, [r4, #24]
 80029d6:	4018      	ands	r0, r3
 80029d8:	e9d4 3501 	ldrd	r3, r5, [r4, #4]
 80029dc:	432b      	orrs	r3, r5
 80029de:	68e5      	ldr	r5, [r4, #12]
 80029e0:	432b      	orrs	r3, r5
 80029e2:	6925      	ldr	r5, [r4, #16]
 80029e4:	432b      	orrs	r3, r5
 80029e6:	6965      	ldr	r5, [r4, #20]
 80029e8:	432b      	orrs	r3, r5
 80029ea:	69e5      	ldr	r5, [r4, #28]
 80029ec:	430b      	orrs	r3, r1
 80029ee:	432b      	orrs	r3, r5
 80029f0:	6a25      	ldr	r5, [r4, #32]
 80029f2:	432b      	orrs	r3, r5
 80029f4:	4303      	orrs	r3, r0
 80029f6:	6a60      	ldr	r0, [r4, #36]	@ 0x24
 80029f8:	2804      	cmp	r0, #4
 80029fa:	bf02      	ittt	eq
 80029fc:	e9d4 560b 	ldrdeq	r5, r6, [r4, #44]	@ 0x2c
 8002a00:	4335      	orreq	r5, r6
 8002a02:	432b      	orreq	r3, r5
 8002a04:	6013      	str	r3, [r2, #0]
 8002a06:	6953      	ldr	r3, [r2, #20]
 8002a08:	2804      	cmp	r0, #4
 8002a0a:	f023 0307 	bic.w	r3, r3, #7
 8002a0e:	ea43 0300 	orr.w	r3, r3, r0
 8002a12:	d135      	bne.n	8002a80 <HAL_DMA_Init+0xdc>
 8002a14:	6aa0      	ldr	r0, [r4, #40]	@ 0x28
 8002a16:	6ae5      	ldr	r5, [r4, #44]	@ 0x2c
 8002a18:	4303      	orrs	r3, r0
 8002a1a:	b38d      	cbz	r5, 8002a80 <HAL_DMA_Init+0xdc>
 8002a1c:	b991      	cbnz	r1, 8002a44 <HAL_DMA_Init+0xa0>
 8002a1e:	2801      	cmp	r0, #1
 8002a20:	d020      	beq.n	8002a64 <HAL_DMA_Init+0xc0>
 8002a22:	f030 0102 	bics.w	r1, r0, #2
 8002a26:	d12b      	bne.n	8002a80 <HAL_DMA_Init+0xdc>
 8002a28:	01e9      	lsls	r1, r5, #7
 8002a2a:	d529      	bpl.n	8002a80 <HAL_DMA_Init+0xdc>
 8002a2c:	e01d      	b.n	8002a6a <HAL_DMA_Init+0xc6>
 8002a2e:	f7ff fc0d 	bl	800224c <HAL_GetTick>
 8002a32:	1b40      	subs	r0, r0, r5
 8002a34:	2805      	cmp	r0, #5
 8002a36:	d9c7      	bls.n	80029c8 <HAL_DMA_Init+0x24>
 8002a38:	2320      	movs	r3, #32
 8002a3a:	2003      	movs	r0, #3
 8002a3c:	6563      	str	r3, [r4, #84]	@ 0x54
 8002a3e:	f884 0035 	strb.w	r0, [r4, #53]	@ 0x35
 8002a42:	bd70      	pop	{r4, r5, r6, pc}
 8002a44:	f5b1 5f00 	cmp.w	r1, #8192	@ 0x2000
 8002a48:	d116      	bne.n	8002a78 <HAL_DMA_Init+0xd4>
 8002a4a:	2803      	cmp	r0, #3
 8002a4c:	d818      	bhi.n	8002a80 <HAL_DMA_Init+0xdc>
 8002a4e:	a101      	add	r1, pc, #4	@ (adr r1, 8002a54 <HAL_DMA_Init+0xb0>)
 8002a50:	f851 f020 	ldr.w	pc, [r1, r0, lsl #2]
 8002a54:	08002a6b 	.word	0x08002a6b
 8002a58:	08002a29 	.word	0x08002a29
 8002a5c:	08002a6b 	.word	0x08002a6b
 8002a60:	08002a65 	.word	0x08002a65
 8002a64:	f1b5 7fc0 	cmp.w	r5, #25165824	@ 0x1800000
 8002a68:	d10a      	bne.n	8002a80 <HAL_DMA_Init+0xdc>
 8002a6a:	2340      	movs	r3, #64	@ 0x40
 8002a6c:	6563      	str	r3, [r4, #84]	@ 0x54
 8002a6e:	2301      	movs	r3, #1
 8002a70:	f884 3035 	strb.w	r3, [r4, #53]	@ 0x35
 8002a74:	2001      	movs	r0, #1
 8002a76:	e7e4      	b.n	8002a42 <HAL_DMA_Init+0x9e>
 8002a78:	2802      	cmp	r0, #2
 8002a7a:	d9f6      	bls.n	8002a6a <HAL_DMA_Init+0xc6>
 8002a7c:	2803      	cmp	r0, #3
 8002a7e:	d0d3      	beq.n	8002a28 <HAL_DMA_Init+0x84>
 8002a80:	6153      	str	r3, [r2, #20]
 8002a82:	4620      	mov	r0, r4
 8002a84:	f7ff ff78 	bl	8002978 <DMA_CalcBaseAndBitshift>
 8002a88:	6de2      	ldr	r2, [r4, #92]	@ 0x5c
 8002a8a:	233f      	movs	r3, #63	@ 0x3f
 8002a8c:	4093      	lsls	r3, r2
 8002a8e:	6083      	str	r3, [r0, #8]
 8002a90:	2000      	movs	r0, #0
 8002a92:	2301      	movs	r3, #1
 8002a94:	6560      	str	r0, [r4, #84]	@ 0x54
 8002a96:	f884 3035 	strb.w	r3, [r4, #53]	@ 0x35
 8002a9a:	e7d2      	b.n	8002a42 <HAL_DMA_Init+0x9e>
 8002a9c:	f010803f 	.word	0xf010803f

08002aa0 <HAL_DMA_Start_IT>:
 8002aa0:	b570      	push	{r4, r5, r6, lr}
 8002aa2:	f890 4034 	ldrb.w	r4, [r0, #52]	@ 0x34
 8002aa6:	6d86      	ldr	r6, [r0, #88]	@ 0x58
 8002aa8:	2c01      	cmp	r4, #1
 8002aaa:	d030      	beq.n	8002b0e <HAL_DMA_Start_IT+0x6e>
 8002aac:	2401      	movs	r4, #1
 8002aae:	f880 4034 	strb.w	r4, [r0, #52]	@ 0x34
 8002ab2:	f890 4035 	ldrb.w	r4, [r0, #53]	@ 0x35
 8002ab6:	2c01      	cmp	r4, #1
 8002ab8:	f04f 0400 	mov.w	r4, #0
 8002abc:	d125      	bne.n	8002b0a <HAL_DMA_Start_IT+0x6a>
 8002abe:	2502      	movs	r5, #2
 8002ac0:	f880 5035 	strb.w	r5, [r0, #53]	@ 0x35
 8002ac4:	6544      	str	r4, [r0, #84]	@ 0x54
 8002ac6:	6804      	ldr	r4, [r0, #0]
 8002ac8:	6825      	ldr	r5, [r4, #0]
 8002aca:	f425 2580 	bic.w	r5, r5, #262144	@ 0x40000
 8002ace:	6025      	str	r5, [r4, #0]
 8002ad0:	6063      	str	r3, [r4, #4]
 8002ad2:	6883      	ldr	r3, [r0, #8]
 8002ad4:	2b40      	cmp	r3, #64	@ 0x40
 8002ad6:	bf0e      	itee	eq
 8002ad8:	60a2      	streq	r2, [r4, #8]
 8002ada:	60a1      	strne	r1, [r4, #8]
 8002adc:	60e2      	strne	r2, [r4, #12]
 8002ade:	6dc2      	ldr	r2, [r0, #92]	@ 0x5c
 8002ae0:	bf08      	it	eq
 8002ae2:	60e1      	streq	r1, [r4, #12]
 8002ae4:	233f      	movs	r3, #63	@ 0x3f
 8002ae6:	4093      	lsls	r3, r2
 8002ae8:	60b3      	str	r3, [r6, #8]
 8002aea:	6823      	ldr	r3, [r4, #0]
 8002aec:	f043 0316 	orr.w	r3, r3, #22
 8002af0:	6023      	str	r3, [r4, #0]
 8002af2:	6c03      	ldr	r3, [r0, #64]	@ 0x40
 8002af4:	b11b      	cbz	r3, 8002afe <HAL_DMA_Start_IT+0x5e>
 8002af6:	6823      	ldr	r3, [r4, #0]
 8002af8:	f043 0308 	orr.w	r3, r3, #8
 8002afc:	6023      	str	r3, [r4, #0]
 8002afe:	6823      	ldr	r3, [r4, #0]
 8002b00:	f043 0301 	orr.w	r3, r3, #1
 8002b04:	6023      	str	r3, [r4, #0]
 8002b06:	2000      	movs	r0, #0
 8002b08:	bd70      	pop	{r4, r5, r6, pc}
 8002b0a:	f880 4034 	strb.w	r4, [r0, #52]	@ 0x34
 8002b0e:	2002      	movs	r0, #2
 8002b10:	e7fa      	b.n	8002b08 <HAL_DMA_Start_IT+0x68>

08002b12 <HAL_DMA_Abort>:
 8002b12:	b570      	push	{r4, r5, r6, lr}
 8002b14:	4604      	mov	r4, r0
 8002b16:	6d86      	ldr	r6, [r0, #88]	@ 0x58
 8002b18:	f7ff fb98 	bl	800224c <HAL_GetTick>
 8002b1c:	f894 3035 	ldrb.w	r3, [r4, #53]	@ 0x35
 8002b20:	2b02      	cmp	r3, #2
 8002b22:	4605      	mov	r5, r0
 8002b24:	d006      	beq.n	8002b34 <HAL_DMA_Abort+0x22>
 8002b26:	2380      	movs	r3, #128	@ 0x80
 8002b28:	6563      	str	r3, [r4, #84]	@ 0x54
 8002b2a:	2001      	movs	r0, #1
 8002b2c:	2300      	movs	r3, #0
 8002b2e:	f884 3034 	strb.w	r3, [r4, #52]	@ 0x34
 8002b32:	bd70      	pop	{r4, r5, r6, pc}
 8002b34:	6823      	ldr	r3, [r4, #0]
 8002b36:	681a      	ldr	r2, [r3, #0]
 8002b38:	f022 0216 	bic.w	r2, r2, #22
 8002b3c:	601a      	str	r2, [r3, #0]
 8002b3e:	695a      	ldr	r2, [r3, #20]
 8002b40:	f022 0280 	bic.w	r2, r2, #128	@ 0x80
 8002b44:	615a      	str	r2, [r3, #20]
 8002b46:	6c22      	ldr	r2, [r4, #64]	@ 0x40
 8002b48:	b90a      	cbnz	r2, 8002b4e <HAL_DMA_Abort+0x3c>
 8002b4a:	6ca2      	ldr	r2, [r4, #72]	@ 0x48
 8002b4c:	b11a      	cbz	r2, 8002b56 <HAL_DMA_Abort+0x44>
 8002b4e:	681a      	ldr	r2, [r3, #0]
 8002b50:	f022 0208 	bic.w	r2, r2, #8
 8002b54:	601a      	str	r2, [r3, #0]
 8002b56:	681a      	ldr	r2, [r3, #0]
 8002b58:	f022 0201 	bic.w	r2, r2, #1
 8002b5c:	601a      	str	r2, [r3, #0]
 8002b5e:	6823      	ldr	r3, [r4, #0]
 8002b60:	6818      	ldr	r0, [r3, #0]
 8002b62:	f010 0001 	ands.w	r0, r0, #1
 8002b66:	d107      	bne.n	8002b78 <HAL_DMA_Abort+0x66>
 8002b68:	6de2      	ldr	r2, [r4, #92]	@ 0x5c
 8002b6a:	233f      	movs	r3, #63	@ 0x3f
 8002b6c:	4093      	lsls	r3, r2
 8002b6e:	60b3      	str	r3, [r6, #8]
 8002b70:	2301      	movs	r3, #1
 8002b72:	f884 3035 	strb.w	r3, [r4, #53]	@ 0x35
 8002b76:	e7d9      	b.n	8002b2c <HAL_DMA_Abort+0x1a>
 8002b78:	f7ff fb68 	bl	800224c <HAL_GetTick>
 8002b7c:	1b40      	subs	r0, r0, r5
 8002b7e:	2805      	cmp	r0, #5
 8002b80:	d9ed      	bls.n	8002b5e <HAL_DMA_Abort+0x4c>
 8002b82:	2320      	movs	r3, #32
 8002b84:	2003      	movs	r0, #3
 8002b86:	6563      	str	r3, [r4, #84]	@ 0x54
 8002b88:	f884 0035 	strb.w	r0, [r4, #53]	@ 0x35
 8002b8c:	e7ce      	b.n	8002b2c <HAL_DMA_Abort+0x1a>

08002b8e <HAL_DMA_Abort_IT>:
 8002b8e:	f890 3035 	ldrb.w	r3, [r0, #53]	@ 0x35
 8002b92:	2b02      	cmp	r3, #2
 8002b94:	d003      	beq.n	8002b9e <HAL_DMA_Abort_IT+0x10>
 8002b96:	2380      	movs	r3, #128	@ 0x80
 8002b98:	6543      	str	r3, [r0, #84]	@ 0x54
 8002b9a:	2001      	movs	r0, #1
 8002b9c:	4770      	bx	lr
 8002b9e:	6802      	ldr	r2, [r0, #0]
 8002ba0:	2305      	movs	r3, #5
 8002ba2:	f880 3035 	strb.w	r3, [r0, #53]	@ 0x35
 8002ba6:	6813      	ldr	r3, [r2, #0]
 8002ba8:	f023 0301 	bic.w	r3, r3, #1
 8002bac:	6013      	str	r3, [r2, #0]
 8002bae:	2000      	movs	r0, #0
 8002bb0:	4770      	bx	lr
	...

08002bb4 <HAL_DMA_IRQHandler>:
 8002bb4:	b5f7      	push	{r0, r1, r2, r4, r5, r6, r7, lr}
 8002bb6:	2300      	movs	r3, #0
 8002bb8:	9301      	str	r3, [sp, #4]
 8002bba:	4b5c      	ldr	r3, [pc, #368]	@ (8002d2c <HAL_DMA_IRQHandler+0x178>)
 8002bbc:	6d85      	ldr	r5, [r0, #88]	@ 0x58
 8002bbe:	681f      	ldr	r7, [r3, #0]
 8002bc0:	6dc3      	ldr	r3, [r0, #92]	@ 0x5c
 8002bc2:	682e      	ldr	r6, [r5, #0]
 8002bc4:	2208      	movs	r2, #8
 8002bc6:	409a      	lsls	r2, r3
 8002bc8:	4232      	tst	r2, r6
 8002bca:	4604      	mov	r4, r0
 8002bcc:	d00c      	beq.n	8002be8 <HAL_DMA_IRQHandler+0x34>
 8002bce:	6801      	ldr	r1, [r0, #0]
 8002bd0:	6808      	ldr	r0, [r1, #0]
 8002bd2:	0740      	lsls	r0, r0, #29
 8002bd4:	d508      	bpl.n	8002be8 <HAL_DMA_IRQHandler+0x34>
 8002bd6:	6808      	ldr	r0, [r1, #0]
 8002bd8:	f020 0004 	bic.w	r0, r0, #4
 8002bdc:	6008      	str	r0, [r1, #0]
 8002bde:	60aa      	str	r2, [r5, #8]
 8002be0:	6d62      	ldr	r2, [r4, #84]	@ 0x54
 8002be2:	f042 0201 	orr.w	r2, r2, #1
 8002be6:	6562      	str	r2, [r4, #84]	@ 0x54
 8002be8:	2201      	movs	r2, #1
 8002bea:	409a      	lsls	r2, r3
 8002bec:	4232      	tst	r2, r6
 8002bee:	d008      	beq.n	8002c02 <HAL_DMA_IRQHandler+0x4e>
 8002bf0:	6821      	ldr	r1, [r4, #0]
 8002bf2:	6949      	ldr	r1, [r1, #20]
 8002bf4:	0609      	lsls	r1, r1, #24
 8002bf6:	bf41      	itttt	mi
 8002bf8:	60aa      	strmi	r2, [r5, #8]
 8002bfa:	6d62      	ldrmi	r2, [r4, #84]	@ 0x54
 8002bfc:	f042 0202 	orrmi.w	r2, r2, #2
 8002c00:	6562      	strmi	r2, [r4, #84]	@ 0x54
 8002c02:	2204      	movs	r2, #4
 8002c04:	409a      	lsls	r2, r3
 8002c06:	4232      	tst	r2, r6
 8002c08:	d008      	beq.n	8002c1c <HAL_DMA_IRQHandler+0x68>
 8002c0a:	6821      	ldr	r1, [r4, #0]
 8002c0c:	6809      	ldr	r1, [r1, #0]
 8002c0e:	0788      	lsls	r0, r1, #30
 8002c10:	bf41      	itttt	mi
 8002c12:	60aa      	strmi	r2, [r5, #8]
 8002c14:	6d62      	ldrmi	r2, [r4, #84]	@ 0x54
 8002c16:	f042 0204 	orrmi.w	r2, r2, #4
 8002c1a:	6562      	strmi	r2, [r4, #84]	@ 0x54
 8002c1c:	2210      	movs	r2, #16
 8002c1e:	409a      	lsls	r2, r3
 8002c20:	4232      	tst	r2, r6
 8002c22:	d010      	beq.n	8002c46 <HAL_DMA_IRQHandler+0x92>
 8002c24:	6823      	ldr	r3, [r4, #0]
 8002c26:	6819      	ldr	r1, [r3, #0]
 8002c28:	0709      	lsls	r1, r1, #28
 8002c2a:	d50c      	bpl.n	8002c46 <HAL_DMA_IRQHandler+0x92>
 8002c2c:	60aa      	str	r2, [r5, #8]
 8002c2e:	681a      	ldr	r2, [r3, #0]
 8002c30:	0350      	lsls	r0, r2, #13
 8002c32:	d537      	bpl.n	8002ca4 <HAL_DMA_IRQHandler+0xf0>
 8002c34:	681b      	ldr	r3, [r3, #0]
 8002c36:	0319      	lsls	r1, r3, #12
 8002c38:	d401      	bmi.n	8002c3e <HAL_DMA_IRQHandler+0x8a>
 8002c3a:	6c23      	ldr	r3, [r4, #64]	@ 0x40
 8002c3c:	e000      	b.n	8002c40 <HAL_DMA_IRQHandler+0x8c>
 8002c3e:	6ca3      	ldr	r3, [r4, #72]	@ 0x48
 8002c40:	b10b      	cbz	r3, 8002c46 <HAL_DMA_IRQHandler+0x92>
 8002c42:	4620      	mov	r0, r4
 8002c44:	4798      	blx	r3
 8002c46:	6de1      	ldr	r1, [r4, #92]	@ 0x5c
 8002c48:	2220      	movs	r2, #32
 8002c4a:	408a      	lsls	r2, r1
 8002c4c:	4232      	tst	r2, r6
 8002c4e:	d03a      	beq.n	8002cc6 <HAL_DMA_IRQHandler+0x112>
 8002c50:	6823      	ldr	r3, [r4, #0]
 8002c52:	6818      	ldr	r0, [r3, #0]
 8002c54:	06c6      	lsls	r6, r0, #27
 8002c56:	d536      	bpl.n	8002cc6 <HAL_DMA_IRQHandler+0x112>
 8002c58:	60aa      	str	r2, [r5, #8]
 8002c5a:	f894 2035 	ldrb.w	r2, [r4, #53]	@ 0x35
 8002c5e:	2a05      	cmp	r2, #5
 8002c60:	681a      	ldr	r2, [r3, #0]
 8002c62:	d127      	bne.n	8002cb4 <HAL_DMA_IRQHandler+0x100>
 8002c64:	f022 0216 	bic.w	r2, r2, #22
 8002c68:	601a      	str	r2, [r3, #0]
 8002c6a:	695a      	ldr	r2, [r3, #20]
 8002c6c:	f022 0280 	bic.w	r2, r2, #128	@ 0x80
 8002c70:	615a      	str	r2, [r3, #20]
 8002c72:	6c22      	ldr	r2, [r4, #64]	@ 0x40
 8002c74:	b90a      	cbnz	r2, 8002c7a <HAL_DMA_IRQHandler+0xc6>
 8002c76:	6ca2      	ldr	r2, [r4, #72]	@ 0x48
 8002c78:	b11a      	cbz	r2, 8002c82 <HAL_DMA_IRQHandler+0xce>
 8002c7a:	681a      	ldr	r2, [r3, #0]
 8002c7c:	f022 0208 	bic.w	r2, r2, #8
 8002c80:	601a      	str	r2, [r3, #0]
 8002c82:	233f      	movs	r3, #63	@ 0x3f
 8002c84:	408b      	lsls	r3, r1
 8002c86:	60ab      	str	r3, [r5, #8]
 8002c88:	2301      	movs	r3, #1
 8002c8a:	f884 3035 	strb.w	r3, [r4, #53]	@ 0x35
 8002c8e:	2300      	movs	r3, #0
 8002c90:	f884 3034 	strb.w	r3, [r4, #52]	@ 0x34
 8002c94:	6d23      	ldr	r3, [r4, #80]	@ 0x50
 8002c96:	2b00      	cmp	r3, #0
 8002c98:	d045      	beq.n	8002d26 <HAL_DMA_IRQHandler+0x172>
 8002c9a:	4620      	mov	r0, r4
 8002c9c:	b003      	add	sp, #12
 8002c9e:	e8bd 40f0 	ldmia.w	sp!, {r4, r5, r6, r7, lr}
 8002ca2:	4718      	bx	r3
 8002ca4:	681a      	ldr	r2, [r3, #0]
 8002ca6:	05d2      	lsls	r2, r2, #23
 8002ca8:	bf5e      	ittt	pl
 8002caa:	681a      	ldrpl	r2, [r3, #0]
 8002cac:	f022 0208 	bicpl.w	r2, r2, #8
 8002cb0:	601a      	strpl	r2, [r3, #0]
 8002cb2:	e7c2      	b.n	8002c3a <HAL_DMA_IRQHandler+0x86>
 8002cb4:	0350      	lsls	r0, r2, #13
 8002cb6:	d527      	bpl.n	8002d08 <HAL_DMA_IRQHandler+0x154>
 8002cb8:	681b      	ldr	r3, [r3, #0]
 8002cba:	0319      	lsls	r1, r3, #12
 8002cbc:	d431      	bmi.n	8002d22 <HAL_DMA_IRQHandler+0x16e>
 8002cbe:	6c63      	ldr	r3, [r4, #68]	@ 0x44
 8002cc0:	b10b      	cbz	r3, 8002cc6 <HAL_DMA_IRQHandler+0x112>
 8002cc2:	4620      	mov	r0, r4
 8002cc4:	4798      	blx	r3
 8002cc6:	6d63      	ldr	r3, [r4, #84]	@ 0x54
 8002cc8:	b36b      	cbz	r3, 8002d26 <HAL_DMA_IRQHandler+0x172>
 8002cca:	6d63      	ldr	r3, [r4, #84]	@ 0x54
 8002ccc:	07da      	lsls	r2, r3, #31
 8002cce:	d519      	bpl.n	8002d04 <HAL_DMA_IRQHandler+0x150>
 8002cd0:	6822      	ldr	r2, [r4, #0]
 8002cd2:	f44f 5316 	mov.w	r3, #9600	@ 0x2580
 8002cd6:	fbb7 f7f3 	udiv	r7, r7, r3
 8002cda:	2305      	movs	r3, #5
 8002cdc:	f884 3035 	strb.w	r3, [r4, #53]	@ 0x35
 8002ce0:	6813      	ldr	r3, [r2, #0]
 8002ce2:	f023 0301 	bic.w	r3, r3, #1
 8002ce6:	6013      	str	r3, [r2, #0]
 8002ce8:	9b01      	ldr	r3, [sp, #4]
 8002cea:	3301      	adds	r3, #1
 8002cec:	42bb      	cmp	r3, r7
 8002cee:	9301      	str	r3, [sp, #4]
 8002cf0:	d802      	bhi.n	8002cf8 <HAL_DMA_IRQHandler+0x144>
 8002cf2:	6813      	ldr	r3, [r2, #0]
 8002cf4:	07db      	lsls	r3, r3, #31
 8002cf6:	d4f7      	bmi.n	8002ce8 <HAL_DMA_IRQHandler+0x134>
 8002cf8:	2301      	movs	r3, #1
 8002cfa:	f884 3035 	strb.w	r3, [r4, #53]	@ 0x35
 8002cfe:	2300      	movs	r3, #0
 8002d00:	f884 3034 	strb.w	r3, [r4, #52]	@ 0x34
 8002d04:	6ce3      	ldr	r3, [r4, #76]	@ 0x4c
 8002d06:	e7c6      	b.n	8002c96 <HAL_DMA_IRQHandler+0xe2>
 8002d08:	681a      	ldr	r2, [r3, #0]
 8002d0a:	f412 7280 	ands.w	r2, r2, #256	@ 0x100
 8002d0e:	d108      	bne.n	8002d22 <HAL_DMA_IRQHandler+0x16e>
 8002d10:	6819      	ldr	r1, [r3, #0]
 8002d12:	f021 0110 	bic.w	r1, r1, #16
 8002d16:	6019      	str	r1, [r3, #0]
 8002d18:	2301      	movs	r3, #1
 8002d1a:	f884 3035 	strb.w	r3, [r4, #53]	@ 0x35
 8002d1e:	f884 2034 	strb.w	r2, [r4, #52]	@ 0x34
 8002d22:	6be3      	ldr	r3, [r4, #60]	@ 0x3c
 8002d24:	e7cc      	b.n	8002cc0 <HAL_DMA_IRQHandler+0x10c>
 8002d26:	b003      	add	sp, #12
 8002d28:	bdf0      	pop	{r4, r5, r6, r7, pc}
 8002d2a:	bf00      	nop
 8002d2c:	2000001c 	.word	0x2000001c

08002d30 <HAL_GPIO_Init>:
 8002d30:	e92d 4ff7 	stmdb	sp!, {r0, r1, r2, r4, r5, r6, r7, r8, r9, sl, fp, lr}
 8002d34:	f8df 91bc 	ldr.w	r9, [pc, #444]	@ 8002ef4 <HAL_GPIO_Init+0x1c4>
 8002d38:	4a6c      	ldr	r2, [pc, #432]	@ (8002eec <HAL_GPIO_Init+0x1bc>)
 8002d3a:	2300      	movs	r3, #0
 8002d3c:	680d      	ldr	r5, [r1, #0]
 8002d3e:	2401      	movs	r4, #1
 8002d40:	409c      	lsls	r4, r3
 8002d42:	ea04 0605 	and.w	r6, r4, r5
 8002d46:	43ac      	bics	r4, r5
 8002d48:	f040 80b7 	bne.w	8002eba <HAL_GPIO_Init+0x18a>
 8002d4c:	684d      	ldr	r5, [r1, #4]
 8002d4e:	2703      	movs	r7, #3
 8002d50:	f005 0403 	and.w	r4, r5, #3
 8002d54:	ea4f 0843 	mov.w	r8, r3, lsl #1
 8002d58:	fa07 fc08 	lsl.w	ip, r7, r8
 8002d5c:	1e67      	subs	r7, r4, #1
 8002d5e:	2f01      	cmp	r7, #1
 8002d60:	ea6f 0c0c 	mvn.w	ip, ip
 8002d64:	d834      	bhi.n	8002dd0 <HAL_GPIO_Init+0xa0>
 8002d66:	6887      	ldr	r7, [r0, #8]
 8002d68:	ea07 0e0c 	and.w	lr, r7, ip
 8002d6c:	68cf      	ldr	r7, [r1, #12]
 8002d6e:	fa07 f708 	lsl.w	r7, r7, r8
 8002d72:	ea47 070e 	orr.w	r7, r7, lr
 8002d76:	6087      	str	r7, [r0, #8]
 8002d78:	6847      	ldr	r7, [r0, #4]
 8002d7a:	ea27 0e06 	bic.w	lr, r7, r6
 8002d7e:	f3c5 1700 	ubfx	r7, r5, #4, #1
 8002d82:	409f      	lsls	r7, r3
 8002d84:	ea47 070e 	orr.w	r7, r7, lr
 8002d88:	6047      	str	r7, [r0, #4]
 8002d8a:	68c7      	ldr	r7, [r0, #12]
 8002d8c:	ea07 0e0c 	and.w	lr, r7, ip
 8002d90:	688f      	ldr	r7, [r1, #8]
 8002d92:	fa07 f708 	lsl.w	r7, r7, r8
 8002d96:	ea47 070e 	orr.w	r7, r7, lr
 8002d9a:	2c02      	cmp	r4, #2
 8002d9c:	60c7      	str	r7, [r0, #12]
 8002d9e:	d119      	bne.n	8002dd4 <HAL_GPIO_Init+0xa4>
 8002da0:	ea4f 0ad3 	mov.w	sl, r3, lsr #3
 8002da4:	eb00 0a8a 	add.w	sl, r0, sl, lsl #2
 8002da8:	f003 0b07 	and.w	fp, r3, #7
 8002dac:	f8da 7020 	ldr.w	r7, [sl, #32]
 8002db0:	ea4f 0b8b 	mov.w	fp, fp, lsl #2
 8002db4:	f04f 0e0f 	mov.w	lr, #15
 8002db8:	fa0e fe0b 	lsl.w	lr, lr, fp
 8002dbc:	ea27 0e0e 	bic.w	lr, r7, lr
 8002dc0:	690f      	ldr	r7, [r1, #16]
 8002dc2:	fa07 f70b 	lsl.w	r7, r7, fp
 8002dc6:	ea47 070e 	orr.w	r7, r7, lr
 8002dca:	f8ca 7020 	str.w	r7, [sl, #32]
 8002dce:	e001      	b.n	8002dd4 <HAL_GPIO_Init+0xa4>
 8002dd0:	2c03      	cmp	r4, #3
 8002dd2:	d1da      	bne.n	8002d8a <HAL_GPIO_Init+0x5a>
 8002dd4:	6807      	ldr	r7, [r0, #0]
 8002dd6:	fa04 f408 	lsl.w	r4, r4, r8
 8002dda:	ea07 070c 	and.w	r7, r7, ip
 8002dde:	433c      	orrs	r4, r7
 8002de0:	f415 3f40 	tst.w	r5, #196608	@ 0x30000
 8002de4:	6004      	str	r4, [r0, #0]
 8002de6:	d068      	beq.n	8002eba <HAL_GPIO_Init+0x18a>
 8002de8:	2400      	movs	r4, #0
 8002dea:	9401      	str	r4, [sp, #4]
 8002dec:	f8d9 4044 	ldr.w	r4, [r9, #68]	@ 0x44
 8002df0:	f444 4480 	orr.w	r4, r4, #16384	@ 0x4000
 8002df4:	f8c9 4044 	str.w	r4, [r9, #68]	@ 0x44
 8002df8:	f8d9 4044 	ldr.w	r4, [r9, #68]	@ 0x44
 8002dfc:	f023 0703 	bic.w	r7, r3, #3
 8002e00:	f107 4780 	add.w	r7, r7, #1073741824	@ 0x40000000
 8002e04:	f404 4480 	and.w	r4, r4, #16384	@ 0x4000
 8002e08:	f507 379c 	add.w	r7, r7, #79872	@ 0x13800
 8002e0c:	9401      	str	r4, [sp, #4]
 8002e0e:	f003 0c03 	and.w	ip, r3, #3
 8002e12:	9c01      	ldr	r4, [sp, #4]
 8002e14:	f8d7 e008 	ldr.w	lr, [r7, #8]
 8002e18:	ea4f 0c8c 	mov.w	ip, ip, lsl #2
 8002e1c:	240f      	movs	r4, #15
 8002e1e:	fa04 f40c 	lsl.w	r4, r4, ip
 8002e22:	ea2e 0e04 	bic.w	lr, lr, r4
 8002e26:	4c32      	ldr	r4, [pc, #200]	@ (8002ef0 <HAL_GPIO_Init+0x1c0>)
 8002e28:	42a0      	cmp	r0, r4
 8002e2a:	d04d      	beq.n	8002ec8 <HAL_GPIO_Init+0x198>
 8002e2c:	f504 6480 	add.w	r4, r4, #1024	@ 0x400
 8002e30:	42a0      	cmp	r0, r4
 8002e32:	d04b      	beq.n	8002ecc <HAL_GPIO_Init+0x19c>
 8002e34:	f504 6480 	add.w	r4, r4, #1024	@ 0x400
 8002e38:	42a0      	cmp	r0, r4
 8002e3a:	d049      	beq.n	8002ed0 <HAL_GPIO_Init+0x1a0>
 8002e3c:	f504 6480 	add.w	r4, r4, #1024	@ 0x400
 8002e40:	42a0      	cmp	r0, r4
 8002e42:	d047      	beq.n	8002ed4 <HAL_GPIO_Init+0x1a4>
 8002e44:	f504 6480 	add.w	r4, r4, #1024	@ 0x400
 8002e48:	42a0      	cmp	r0, r4
 8002e4a:	d045      	beq.n	8002ed8 <HAL_GPIO_Init+0x1a8>
 8002e4c:	f504 6480 	add.w	r4, r4, #1024	@ 0x400
 8002e50:	42a0      	cmp	r0, r4
 8002e52:	d043      	beq.n	8002edc <HAL_GPIO_Init+0x1ac>
 8002e54:	f504 6480 	add.w	r4, r4, #1024	@ 0x400
 8002e58:	42a0      	cmp	r0, r4
 8002e5a:	d041      	beq.n	8002ee0 <HAL_GPIO_Init+0x1b0>
 8002e5c:	f504 6480 	add.w	r4, r4, #1024	@ 0x400
 8002e60:	42a0      	cmp	r0, r4
 8002e62:	d03f      	beq.n	8002ee4 <HAL_GPIO_Init+0x1b4>
 8002e64:	f504 6480 	add.w	r4, r4, #1024	@ 0x400
 8002e68:	42a0      	cmp	r0, r4
 8002e6a:	d03d      	beq.n	8002ee8 <HAL_GPIO_Init+0x1b8>
 8002e6c:	f504 6480 	add.w	r4, r4, #1024	@ 0x400
 8002e70:	42a0      	cmp	r0, r4
 8002e72:	bf14      	ite	ne
 8002e74:	240a      	movne	r4, #10
 8002e76:	2409      	moveq	r4, #9
 8002e78:	fa04 f40c 	lsl.w	r4, r4, ip
 8002e7c:	ea44 040e 	orr.w	r4, r4, lr
 8002e80:	60bc      	str	r4, [r7, #8]
 8002e82:	6894      	ldr	r4, [r2, #8]
 8002e84:	43f7      	mvns	r7, r6
 8002e86:	f415 1f80 	tst.w	r5, #1048576	@ 0x100000
 8002e8a:	bf0c      	ite	eq
 8002e8c:	403c      	andeq	r4, r7
 8002e8e:	4334      	orrne	r4, r6
 8002e90:	6094      	str	r4, [r2, #8]
 8002e92:	68d4      	ldr	r4, [r2, #12]
 8002e94:	f415 1f00 	tst.w	r5, #2097152	@ 0x200000
 8002e98:	bf0c      	ite	eq
 8002e9a:	403c      	andeq	r4, r7
 8002e9c:	4334      	orrne	r4, r6
 8002e9e:	60d4      	str	r4, [r2, #12]
 8002ea0:	6854      	ldr	r4, [r2, #4]
 8002ea2:	f415 3f00 	tst.w	r5, #131072	@ 0x20000
 8002ea6:	bf0c      	ite	eq
 8002ea8:	403c      	andeq	r4, r7
 8002eaa:	4334      	orrne	r4, r6
 8002eac:	6054      	str	r4, [r2, #4]
 8002eae:	6814      	ldr	r4, [r2, #0]
 8002eb0:	03ed      	lsls	r5, r5, #15
 8002eb2:	bf54      	ite	pl
 8002eb4:	403c      	andpl	r4, r7
 8002eb6:	4334      	orrmi	r4, r6
 8002eb8:	6014      	str	r4, [r2, #0]
 8002eba:	3301      	adds	r3, #1
 8002ebc:	2b10      	cmp	r3, #16
 8002ebe:	f47f af3d 	bne.w	8002d3c <HAL_GPIO_Init+0xc>
 8002ec2:	b003      	add	sp, #12
 8002ec4:	e8bd 8ff0 	ldmia.w	sp!, {r4, r5, r6, r7, r8, r9, sl, fp, pc}
 8002ec8:	2400      	movs	r4, #0
 8002eca:	e7d5      	b.n	8002e78 <HAL_GPIO_Init+0x148>
 8002ecc:	2401      	movs	r4, #1
 8002ece:	e7d3      	b.n	8002e78 <HAL_GPIO_Init+0x148>
 8002ed0:	2402      	movs	r4, #2
 8002ed2:	e7d1      	b.n	8002e78 <HAL_GPIO_Init+0x148>
 8002ed4:	2403      	movs	r4, #3
 8002ed6:	e7cf      	b.n	8002e78 <HAL_GPIO_Init+0x148>
 8002ed8:	2404      	movs	r4, #4
 8002eda:	e7cd      	b.n	8002e78 <HAL_GPIO_Init+0x148>
 8002edc:	2405      	movs	r4, #5
 8002ede:	e7cb      	b.n	8002e78 <HAL_GPIO_Init+0x148>
 8002ee0:	2406      	movs	r4, #6
 8002ee2:	e7c9      	b.n	8002e78 <HAL_GPIO_Init+0x148>
 8002ee4:	2407      	movs	r4, #7
 8002ee6:	e7c7      	b.n	8002e78 <HAL_GPIO_Init+0x148>
 8002ee8:	2408      	movs	r4, #8
 8002eea:	e7c5      	b.n	8002e78 <HAL_GPIO_Init+0x148>
 8002eec:	40013c00 	.word	0x40013c00
 8002ef0:	40020000 	.word	0x40020000
 8002ef4:	40023800 	.word	0x40023800

08002ef8 <HAL_GPIO_ReadPin>:
 8002ef8:	6903      	ldr	r3, [r0, #16]
 8002efa:	4219      	tst	r1, r3
 8002efc:	bf14      	ite	ne
 8002efe:	2001      	movne	r0, #1
 8002f00:	2000      	moveq	r0, #0
 8002f02:	4770      	bx	lr

08002f04 <HAL_GPIO_WritePin>:
 8002f04:	b10a      	cbz	r2, 8002f0a <HAL_GPIO_WritePin+0x6>
 8002f06:	6181      	str	r1, [r0, #24]
 8002f08:	4770      	bx	lr
 8002f0a:	0409      	lsls	r1, r1, #16
 8002f0c:	e7fb      	b.n	8002f06 <HAL_GPIO_WritePin+0x2>

08002f0e <HAL_GPIO_TogglePin>:
 8002f0e:	6943      	ldr	r3, [r0, #20]
 8002f10:	ea01 0203 	and.w	r2, r1, r3
 8002f14:	ea21 0103 	bic.w	r1, r1, r3
 8002f18:	ea41 4102 	orr.w	r1, r1, r2, lsl #16
 8002f1c:	6181      	str	r1, [r0, #24]
 8002f1e:	4770      	bx	lr

08002f20 <HAL_GPIO_EXTI_IRQHandler>:
 8002f20:	4a04      	ldr	r2, [pc, #16]	@ (8002f34 <HAL_GPIO_EXTI_IRQHandler+0x14>)
 8002f22:	6951      	ldr	r1, [r2, #20]
 8002f24:	4201      	tst	r1, r0
 8002f26:	b508      	push	{r3, lr}
 8002f28:	d002      	beq.n	8002f30 <HAL_GPIO_EXTI_IRQHandler+0x10>
 8002f2a:	6150      	str	r0, [r2, #20]
 8002f2c:	f7ff f8a2 	bl	8002074 <HAL_GPIO_EXTI_Callback>
 8002f30:	bd08      	pop	{r3, pc}
 8002f32:	bf00      	nop
 8002f34:	40013c00 	.word	0x40013c00

08002f38 <I2C_IsAcknowledgeFailed>:
 8002f38:	6801      	ldr	r1, [r0, #0]
 8002f3a:	694b      	ldr	r3, [r1, #20]
 8002f3c:	f413 6380 	ands.w	r3, r3, #1024	@ 0x400
 8002f40:	f04f 0200 	mov.w	r2, #0
 8002f44:	d010      	beq.n	8002f68 <I2C_IsAcknowledgeFailed+0x30>
 8002f46:	f46f 6380 	mvn.w	r3, #1024	@ 0x400
 8002f4a:	614b      	str	r3, [r1, #20]
 8002f4c:	2320      	movs	r3, #32
 8002f4e:	6302      	str	r2, [r0, #48]	@ 0x30
 8002f50:	f880 303d 	strb.w	r3, [r0, #61]	@ 0x3d
 8002f54:	f880 203e 	strb.w	r2, [r0, #62]	@ 0x3e
 8002f58:	6c03      	ldr	r3, [r0, #64]	@ 0x40
 8002f5a:	f880 203c 	strb.w	r2, [r0, #60]	@ 0x3c
 8002f5e:	f043 0304 	orr.w	r3, r3, #4
 8002f62:	6403      	str	r3, [r0, #64]	@ 0x40
 8002f64:	2001      	movs	r0, #1
 8002f66:	4770      	bx	lr
 8002f68:	4618      	mov	r0, r3
 8002f6a:	4770      	bx	lr

08002f6c <I2C_WaitOnFlagUntilTimeout>:
 8002f6c:	e92d 46f8 	stmdb	sp!, {r3, r4, r5, r6, r7, r9, sl, lr}
 8002f70:	4606      	mov	r6, r0
 8002f72:	460f      	mov	r7, r1
 8002f74:	4691      	mov	r9, r2
 8002f76:	461d      	mov	r5, r3
 8002f78:	ea4f 4a11 	mov.w	sl, r1, lsr #16
 8002f7c:	6833      	ldr	r3, [r6, #0]
 8002f7e:	f1ba 0f01 	cmp.w	sl, #1
 8002f82:	bf0c      	ite	eq
 8002f84:	695c      	ldreq	r4, [r3, #20]
 8002f86:	699c      	ldrne	r4, [r3, #24]
 8002f88:	ea27 0404 	bic.w	r4, r7, r4
 8002f8c:	b2a4      	uxth	r4, r4
 8002f8e:	fab4 f484 	clz	r4, r4
 8002f92:	0964      	lsrs	r4, r4, #5
 8002f94:	45a1      	cmp	r9, r4
 8002f96:	d001      	beq.n	8002f9c <I2C_WaitOnFlagUntilTimeout+0x30>
 8002f98:	2000      	movs	r0, #0
 8002f9a:	e025      	b.n	8002fe8 <I2C_WaitOnFlagUntilTimeout+0x7c>
 8002f9c:	1c6a      	adds	r2, r5, #1
 8002f9e:	d0ee      	beq.n	8002f7e <I2C_WaitOnFlagUntilTimeout+0x12>
 8002fa0:	f7ff f954 	bl	800224c <HAL_GetTick>
 8002fa4:	9b08      	ldr	r3, [sp, #32]
 8002fa6:	1ac0      	subs	r0, r0, r3
 8002fa8:	42a8      	cmp	r0, r5
 8002faa:	d801      	bhi.n	8002fb0 <I2C_WaitOnFlagUntilTimeout+0x44>
 8002fac:	2d00      	cmp	r5, #0
 8002fae:	d1e5      	bne.n	8002f7c <I2C_WaitOnFlagUntilTimeout+0x10>
 8002fb0:	6833      	ldr	r3, [r6, #0]
 8002fb2:	f1ba 0f01 	cmp.w	sl, #1
 8002fb6:	bf0c      	ite	eq
 8002fb8:	695b      	ldreq	r3, [r3, #20]
 8002fba:	699b      	ldrne	r3, [r3, #24]
 8002fbc:	ea27 0303 	bic.w	r3, r7, r3
 8002fc0:	b29b      	uxth	r3, r3
 8002fc2:	fab3 f383 	clz	r3, r3
 8002fc6:	095b      	lsrs	r3, r3, #5
 8002fc8:	4599      	cmp	r9, r3
 8002fca:	d1d7      	bne.n	8002f7c <I2C_WaitOnFlagUntilTimeout+0x10>
 8002fcc:	2300      	movs	r3, #0
 8002fce:	2220      	movs	r2, #32
 8002fd0:	6333      	str	r3, [r6, #48]	@ 0x30
 8002fd2:	f886 203d 	strb.w	r2, [r6, #61]	@ 0x3d
 8002fd6:	f886 303e 	strb.w	r3, [r6, #62]	@ 0x3e
 8002fda:	6c32      	ldr	r2, [r6, #64]	@ 0x40
 8002fdc:	f886 303c 	strb.w	r3, [r6, #60]	@ 0x3c
 8002fe0:	f042 0220 	orr.w	r2, r2, #32
 8002fe4:	6432      	str	r2, [r6, #64]	@ 0x40
 8002fe6:	2001      	movs	r0, #1
 8002fe8:	e8bd 86f8 	ldmia.w	sp!, {r3, r4, r5, r6, r7, r9, sl, pc}

08002fec <I2C_WaitOnMasterAddressFlagUntilTimeout>:
 8002fec:	e92d 41f0 	stmdb	sp!, {r4, r5, r6, r7, r8, lr}
 8002ff0:	4604      	mov	r4, r0
 8002ff2:	460f      	mov	r7, r1
 8002ff4:	4616      	mov	r6, r2
 8002ff6:	4698      	mov	r8, r3
 8002ff8:	6825      	ldr	r5, [r4, #0]
 8002ffa:	6968      	ldr	r0, [r5, #20]
 8002ffc:	ea27 0000 	bic.w	r0, r7, r0
 8003000:	b280      	uxth	r0, r0
 8003002:	b1c0      	cbz	r0, 8003036 <I2C_WaitOnMasterAddressFlagUntilTimeout+0x4a>
 8003004:	696b      	ldr	r3, [r5, #20]
 8003006:	055a      	lsls	r2, r3, #21
 8003008:	d517      	bpl.n	800303a <I2C_WaitOnMasterAddressFlagUntilTimeout+0x4e>
 800300a:	682b      	ldr	r3, [r5, #0]
 800300c:	f443 7300 	orr.w	r3, r3, #512	@ 0x200
 8003010:	602b      	str	r3, [r5, #0]
 8003012:	f46f 6380 	mvn.w	r3, #1024	@ 0x400
 8003016:	616b      	str	r3, [r5, #20]
 8003018:	2220      	movs	r2, #32
 800301a:	2300      	movs	r3, #0
 800301c:	6323      	str	r3, [r4, #48]	@ 0x30
 800301e:	f884 203d 	strb.w	r2, [r4, #61]	@ 0x3d
 8003022:	f884 303e 	strb.w	r3, [r4, #62]	@ 0x3e
 8003026:	6c23      	ldr	r3, [r4, #64]	@ 0x40
 8003028:	f043 0304 	orr.w	r3, r3, #4
 800302c:	6423      	str	r3, [r4, #64]	@ 0x40
 800302e:	2300      	movs	r3, #0
 8003030:	f884 303c 	strb.w	r3, [r4, #60]	@ 0x3c
 8003034:	2001      	movs	r0, #1
 8003036:	e8bd 81f0 	ldmia.w	sp!, {r4, r5, r6, r7, r8, pc}
 800303a:	1c73      	adds	r3, r6, #1
 800303c:	d0dd      	beq.n	8002ffa <I2C_WaitOnMasterAddressFlagUntilTimeout+0xe>
 800303e:	f7ff f905 	bl	800224c <HAL_GetTick>
 8003042:	eba0 0008 	sub.w	r0, r0, r8
 8003046:	42b0      	cmp	r0, r6
 8003048:	d801      	bhi.n	800304e <I2C_WaitOnMasterAddressFlagUntilTimeout+0x62>
 800304a:	2e00      	cmp	r6, #0
 800304c:	d1d4      	bne.n	8002ff8 <I2C_WaitOnMasterAddressFlagUntilTimeout+0xc>
 800304e:	6823      	ldr	r3, [r4, #0]
 8003050:	695a      	ldr	r2, [r3, #20]
 8003052:	ea27 0202 	bic.w	r2, r7, r2
 8003056:	b292      	uxth	r2, r2
 8003058:	2a00      	cmp	r2, #0
 800305a:	d0cd      	beq.n	8002ff8 <I2C_WaitOnMasterAddressFlagUntilTimeout+0xc>
 800305c:	2300      	movs	r3, #0
 800305e:	2220      	movs	r2, #32
 8003060:	6323      	str	r3, [r4, #48]	@ 0x30
 8003062:	f884 203d 	strb.w	r2, [r4, #61]	@ 0x3d
 8003066:	f884 303e 	strb.w	r3, [r4, #62]	@ 0x3e
 800306a:	6c23      	ldr	r3, [r4, #64]	@ 0x40
 800306c:	4313      	orrs	r3, r2
 800306e:	e7dd      	b.n	800302c <I2C_WaitOnMasterAddressFlagUntilTimeout+0x40>

08003070 <I2C_WaitOnTXEFlagUntilTimeout>:
 8003070:	b570      	push	{r4, r5, r6, lr}
 8003072:	4604      	mov	r4, r0
 8003074:	460d      	mov	r5, r1
 8003076:	4616      	mov	r6, r2
 8003078:	6823      	ldr	r3, [r4, #0]
 800307a:	695b      	ldr	r3, [r3, #20]
 800307c:	061b      	lsls	r3, r3, #24
 800307e:	d501      	bpl.n	8003084 <I2C_WaitOnTXEFlagUntilTimeout+0x14>
 8003080:	2000      	movs	r0, #0
 8003082:	e01e      	b.n	80030c2 <I2C_WaitOnTXEFlagUntilTimeout+0x52>
 8003084:	4620      	mov	r0, r4
 8003086:	f7ff ff57 	bl	8002f38 <I2C_IsAcknowledgeFailed>
 800308a:	b9c8      	cbnz	r0, 80030c0 <I2C_WaitOnTXEFlagUntilTimeout+0x50>
 800308c:	1c6a      	adds	r2, r5, #1
 800308e:	d0f3      	beq.n	8003078 <I2C_WaitOnTXEFlagUntilTimeout+0x8>
 8003090:	f7ff f8dc 	bl	800224c <HAL_GetTick>
 8003094:	1b80      	subs	r0, r0, r6
 8003096:	42a8      	cmp	r0, r5
 8003098:	d801      	bhi.n	800309e <I2C_WaitOnTXEFlagUntilTimeout+0x2e>
 800309a:	2d00      	cmp	r5, #0
 800309c:	d1ec      	bne.n	8003078 <I2C_WaitOnTXEFlagUntilTimeout+0x8>
 800309e:	6823      	ldr	r3, [r4, #0]
 80030a0:	695b      	ldr	r3, [r3, #20]
 80030a2:	f013 0380 	ands.w	r3, r3, #128	@ 0x80
 80030a6:	d1e7      	bne.n	8003078 <I2C_WaitOnTXEFlagUntilTimeout+0x8>
 80030a8:	2220      	movs	r2, #32
 80030aa:	6323      	str	r3, [r4, #48]	@ 0x30
 80030ac:	f884 203d 	strb.w	r2, [r4, #61]	@ 0x3d
 80030b0:	f884 303e 	strb.w	r3, [r4, #62]	@ 0x3e
 80030b4:	6c22      	ldr	r2, [r4, #64]	@ 0x40
 80030b6:	f884 303c 	strb.w	r3, [r4, #60]	@ 0x3c
 80030ba:	f042 0220 	orr.w	r2, r2, #32
 80030be:	6422      	str	r2, [r4, #64]	@ 0x40
 80030c0:	2001      	movs	r0, #1
 80030c2:	bd70      	pop	{r4, r5, r6, pc}

080030c4 <I2C_WaitOnBTFFlagUntilTimeout>:
 80030c4:	b570      	push	{r4, r5, r6, lr}
 80030c6:	4604      	mov	r4, r0
 80030c8:	460d      	mov	r5, r1
 80030ca:	4616      	mov	r6, r2
 80030cc:	6823      	ldr	r3, [r4, #0]
 80030ce:	695b      	ldr	r3, [r3, #20]
 80030d0:	075b      	lsls	r3, r3, #29
 80030d2:	d501      	bpl.n	80030d8 <I2C_WaitOnBTFFlagUntilTimeout+0x14>
 80030d4:	2000      	movs	r0, #0
 80030d6:	e01e      	b.n	8003116 <I2C_WaitOnBTFFlagUntilTimeout+0x52>
 80030d8:	4620      	mov	r0, r4
 80030da:	f7ff ff2d 	bl	8002f38 <I2C_IsAcknowledgeFailed>
 80030de:	b9c8      	cbnz	r0, 8003114 <I2C_WaitOnBTFFlagUntilTimeout+0x50>
 80030e0:	1c6a      	adds	r2, r5, #1
 80030e2:	d0f3      	beq.n	80030cc <I2C_WaitOnBTFFlagUntilTimeout+0x8>
 80030e4:	f7ff f8b2 	bl	800224c <HAL_GetTick>
 80030e8:	1b80      	subs	r0, r0, r6
 80030ea:	42a8      	cmp	r0, r5
 80030ec:	d801      	bhi.n	80030f2 <I2C_WaitOnBTFFlagUntilTimeout+0x2e>
 80030ee:	2d00      	cmp	r5, #0
 80030f0:	d1ec      	bne.n	80030cc <I2C_WaitOnBTFFlagUntilTimeout+0x8>
 80030f2:	6823      	ldr	r3, [r4, #0]
 80030f4:	695b      	ldr	r3, [r3, #20]
 80030f6:	f013 0304 	ands.w	r3, r3, #4
 80030fa:	d1e7      	bne.n	80030cc <I2C_WaitOnBTFFlagUntilTimeout+0x8>
 80030fc:	2220      	movs	r2, #32
 80030fe:	6323      	str	r3, [r4, #48]	@ 0x30
 8003100:	f884 203d 	strb.w	r2, [r4, #61]	@ 0x3d
 8003104:	f884 303e 	strb.w	r3, [r4, #62]	@ 0x3e
 8003108:	6c22      	ldr	r2, [r4, #64]	@ 0x40
 800310a:	f884 303c 	strb.w	r3, [r4, #60]	@ 0x3c
 800310e:	f042 0220 	orr.w	r2, r2, #32
 8003112:	6422      	str	r2, [r4, #64]	@ 0x40
 8003114:	2001      	movs	r0, #1
 8003116:	bd70      	pop	{r4, r5, r6, pc}

08003118 <I2C_WaitOnRXNEFlagUntilTimeout>:
 8003118:	b570      	push	{r4, r5, r6, lr}
 800311a:	4604      	mov	r4, r0
 800311c:	460d      	mov	r5, r1
 800311e:	4616      	mov	r6, r2
 8003120:	6821      	ldr	r1, [r4, #0]
 8003122:	694b      	ldr	r3, [r1, #20]
 8003124:	f013 0340 	ands.w	r3, r3, #64	@ 0x40
 8003128:	d001      	beq.n	800312e <I2C_WaitOnRXNEFlagUntilTimeout+0x16>
 800312a:	2000      	movs	r0, #0
 800312c:	e011      	b.n	8003152 <I2C_WaitOnRXNEFlagUntilTimeout+0x3a>
 800312e:	694a      	ldr	r2, [r1, #20]
 8003130:	06d2      	lsls	r2, r2, #27
 8003132:	d50f      	bpl.n	8003154 <I2C_WaitOnRXNEFlagUntilTimeout+0x3c>
 8003134:	f06f 0210 	mvn.w	r2, #16
 8003138:	614a      	str	r2, [r1, #20]
 800313a:	2220      	movs	r2, #32
 800313c:	6323      	str	r3, [r4, #48]	@ 0x30
 800313e:	f884 203d 	strb.w	r2, [r4, #61]	@ 0x3d
 8003142:	f884 303e 	strb.w	r3, [r4, #62]	@ 0x3e
 8003146:	6c23      	ldr	r3, [r4, #64]	@ 0x40
 8003148:	6423      	str	r3, [r4, #64]	@ 0x40
 800314a:	2300      	movs	r3, #0
 800314c:	f884 303c 	strb.w	r3, [r4, #60]	@ 0x3c
 8003150:	2001      	movs	r0, #1
 8003152:	bd70      	pop	{r4, r5, r6, pc}
 8003154:	f7ff f87a 	bl	800224c <HAL_GetTick>
 8003158:	1b80      	subs	r0, r0, r6
 800315a:	42a8      	cmp	r0, r5
 800315c:	d801      	bhi.n	8003162 <I2C_WaitOnRXNEFlagUntilTimeout+0x4a>
 800315e:	2d00      	cmp	r5, #0
 8003160:	d1de      	bne.n	8003120 <I2C_WaitOnRXNEFlagUntilTimeout+0x8>
 8003162:	6823      	ldr	r3, [r4, #0]
 8003164:	695b      	ldr	r3, [r3, #20]
 8003166:	f013 0340 	ands.w	r3, r3, #64	@ 0x40
 800316a:	d1d9      	bne.n	8003120 <I2C_WaitOnRXNEFlagUntilTimeout+0x8>
 800316c:	2220      	movs	r2, #32
 800316e:	6323      	str	r3, [r4, #48]	@ 0x30
 8003170:	f884 203d 	strb.w	r2, [r4, #61]	@ 0x3d
 8003174:	f884 303e 	strb.w	r3, [r4, #62]	@ 0x3e
 8003178:	6c23      	ldr	r3, [r4, #64]	@ 0x40
 800317a:	4313      	orrs	r3, r2
 800317c:	e7e4      	b.n	8003148 <I2C_WaitOnRXNEFlagUntilTimeout+0x30>
	...

08003180 <HAL_I2C_Init>:
 8003180:	b570      	push	{r4, r5, r6, lr}
 8003182:	4604      	mov	r4, r0
 8003184:	b908      	cbnz	r0, 800318a <HAL_I2C_Init+0xa>
 8003186:	2001      	movs	r0, #1
 8003188:	bd70      	pop	{r4, r5, r6, pc}
 800318a:	f890 303d 	ldrb.w	r3, [r0, #61]	@ 0x3d
 800318e:	f003 02ff 	and.w	r2, r3, #255	@ 0xff
 8003192:	b91b      	cbnz	r3, 800319c <HAL_I2C_Init+0x1c>
 8003194:	f880 203c 	strb.w	r2, [r0, #60]	@ 0x3c
 8003198:	f7fe fd5e 	bl	8001c58 <HAL_I2C_MspInit>
 800319c:	2324      	movs	r3, #36	@ 0x24
 800319e:	f884 303d 	strb.w	r3, [r4, #61]	@ 0x3d
 80031a2:	6823      	ldr	r3, [r4, #0]
 80031a4:	681a      	ldr	r2, [r3, #0]
 80031a6:	f022 0201 	bic.w	r2, r2, #1
 80031aa:	601a      	str	r2, [r3, #0]
 80031ac:	681a      	ldr	r2, [r3, #0]
 80031ae:	f442 4200 	orr.w	r2, r2, #32768	@ 0x8000
 80031b2:	601a      	str	r2, [r3, #0]
 80031b4:	681a      	ldr	r2, [r3, #0]
 80031b6:	f422 4200 	bic.w	r2, r2, #32768	@ 0x8000
 80031ba:	601a      	str	r2, [r3, #0]
 80031bc:	f000 fdac 	bl	8003d18 <HAL_RCC_GetPCLK1Freq>
 80031c0:	4b3f      	ldr	r3, [pc, #252]	@ (80032c0 <HAL_I2C_Init+0x140>)
 80031c2:	6865      	ldr	r5, [r4, #4]
 80031c4:	429d      	cmp	r5, r3
 80031c6:	bf94      	ite	ls
 80031c8:	4b3e      	ldrls	r3, [pc, #248]	@ (80032c4 <HAL_I2C_Init+0x144>)
 80031ca:	4b3f      	ldrhi	r3, [pc, #252]	@ (80032c8 <HAL_I2C_Init+0x148>)
 80031cc:	4298      	cmp	r0, r3
 80031ce:	bf8c      	ite	hi
 80031d0:	2300      	movhi	r3, #0
 80031d2:	2301      	movls	r3, #1
 80031d4:	2b00      	cmp	r3, #0
 80031d6:	d1d6      	bne.n	8003186 <HAL_I2C_Init+0x6>
 80031d8:	6822      	ldr	r2, [r4, #0]
 80031da:	4e39      	ldr	r6, [pc, #228]	@ (80032c0 <HAL_I2C_Init+0x140>)
 80031dc:	6851      	ldr	r1, [r2, #4]
 80031de:	4b3b      	ldr	r3, [pc, #236]	@ (80032cc <HAL_I2C_Init+0x14c>)
 80031e0:	fbb0 f3f3 	udiv	r3, r0, r3
 80031e4:	f021 013f 	bic.w	r1, r1, #63	@ 0x3f
 80031e8:	4319      	orrs	r1, r3
 80031ea:	42b5      	cmp	r5, r6
 80031ec:	6051      	str	r1, [r2, #4]
 80031ee:	bf88      	it	hi
 80031f0:	f44f 7696 	movhi.w	r6, #300	@ 0x12c
 80031f4:	6a11      	ldr	r1, [r2, #32]
 80031f6:	bf88      	it	hi
 80031f8:	4373      	mulhi	r3, r6
 80031fa:	f021 013f 	bic.w	r1, r1, #63	@ 0x3f
 80031fe:	bf84      	itt	hi
 8003200:	f44f 767a 	movhi.w	r6, #1000	@ 0x3e8
 8003204:	fbb3 f3f6 	udivhi	r3, r3, r6
 8003208:	3301      	adds	r3, #1
 800320a:	430b      	orrs	r3, r1
 800320c:	6213      	str	r3, [r2, #32]
 800320e:	69d1      	ldr	r1, [r2, #28]
 8003210:	1e43      	subs	r3, r0, #1
 8003212:	482b      	ldr	r0, [pc, #172]	@ (80032c0 <HAL_I2C_Init+0x140>)
 8003214:	f421 414f 	bic.w	r1, r1, #52992	@ 0xcf00
 8003218:	4285      	cmp	r5, r0
 800321a:	f021 01ff 	bic.w	r1, r1, #255	@ 0xff
 800321e:	d832      	bhi.n	8003286 <HAL_I2C_Init+0x106>
 8003220:	006d      	lsls	r5, r5, #1
 8003222:	f640 70fc 	movw	r0, #4092	@ 0xffc
 8003226:	fbb3 f3f5 	udiv	r3, r3, r5
 800322a:	3301      	adds	r3, #1
 800322c:	4203      	tst	r3, r0
 800322e:	d042      	beq.n	80032b6 <HAL_I2C_Init+0x136>
 8003230:	f3c3 030b 	ubfx	r3, r3, #0, #12
 8003234:	4319      	orrs	r1, r3
 8003236:	61d1      	str	r1, [r2, #28]
 8003238:	e9d4 3007 	ldrd	r3, r0, [r4, #28]
 800323c:	6811      	ldr	r1, [r2, #0]
 800323e:	4303      	orrs	r3, r0
 8003240:	f021 01c0 	bic.w	r1, r1, #192	@ 0xc0
 8003244:	430b      	orrs	r3, r1
 8003246:	6013      	str	r3, [r2, #0]
 8003248:	6891      	ldr	r1, [r2, #8]
 800324a:	e9d4 0303 	ldrd	r0, r3, [r4, #12]
 800324e:	f421 4103 	bic.w	r1, r1, #33536	@ 0x8300
 8003252:	4303      	orrs	r3, r0
 8003254:	f021 01ff 	bic.w	r1, r1, #255	@ 0xff
 8003258:	430b      	orrs	r3, r1
 800325a:	6093      	str	r3, [r2, #8]
 800325c:	e9d4 3005 	ldrd	r3, r0, [r4, #20]
 8003260:	68d1      	ldr	r1, [r2, #12]
 8003262:	4303      	orrs	r3, r0
 8003264:	f021 01ff 	bic.w	r1, r1, #255	@ 0xff
 8003268:	430b      	orrs	r3, r1
 800326a:	60d3      	str	r3, [r2, #12]
 800326c:	6813      	ldr	r3, [r2, #0]
 800326e:	f043 0301 	orr.w	r3, r3, #1
 8003272:	6013      	str	r3, [r2, #0]
 8003274:	2000      	movs	r0, #0
 8003276:	2320      	movs	r3, #32
 8003278:	6420      	str	r0, [r4, #64]	@ 0x40
 800327a:	f884 303d 	strb.w	r3, [r4, #61]	@ 0x3d
 800327e:	6320      	str	r0, [r4, #48]	@ 0x30
 8003280:	f884 003e 	strb.w	r0, [r4, #62]	@ 0x3e
 8003284:	e780      	b.n	8003188 <HAL_I2C_Init+0x8>
 8003286:	68a0      	ldr	r0, [r4, #8]
 8003288:	b950      	cbnz	r0, 80032a0 <HAL_I2C_Init+0x120>
 800328a:	eb05 0545 	add.w	r5, r5, r5, lsl #1
 800328e:	fbb3 f3f5 	udiv	r3, r3, r5
 8003292:	3301      	adds	r3, #1
 8003294:	f3c3 030b 	ubfx	r3, r3, #0, #12
 8003298:	b17b      	cbz	r3, 80032ba <HAL_I2C_Init+0x13a>
 800329a:	f443 4300 	orr.w	r3, r3, #32768	@ 0x8000
 800329e:	e7c9      	b.n	8003234 <HAL_I2C_Init+0xb4>
 80032a0:	2019      	movs	r0, #25
 80032a2:	4368      	muls	r0, r5
 80032a4:	fbb3 f3f0 	udiv	r3, r3, r0
 80032a8:	3301      	adds	r3, #1
 80032aa:	f3c3 030b 	ubfx	r3, r3, #0, #12
 80032ae:	b123      	cbz	r3, 80032ba <HAL_I2C_Init+0x13a>
 80032b0:	f443 4340 	orr.w	r3, r3, #49152	@ 0xc000
 80032b4:	e7be      	b.n	8003234 <HAL_I2C_Init+0xb4>
 80032b6:	2304      	movs	r3, #4
 80032b8:	e7bc      	b.n	8003234 <HAL_I2C_Init+0xb4>
 80032ba:	2301      	movs	r3, #1
 80032bc:	e7ba      	b.n	8003234 <HAL_I2C_Init+0xb4>
 80032be:	bf00      	nop
 80032c0:	000186a0 	.word	0x000186a0
 80032c4:	001e847f 	.word	0x001e847f
 80032c8:	003d08ff 	.word	0x003d08ff
 80032cc:	000f4240 	.word	0x000f4240

080032d0 <HAL_I2C_Master_Transmit>:
 80032d0:	e92d 43f0 	stmdb	sp!, {r4, r5, r6, r7, r8, r9, lr}
 80032d4:	4604      	mov	r4, r0
 80032d6:	b085      	sub	sp, #20
 80032d8:	4698      	mov	r8, r3
 80032da:	9f0c      	ldr	r7, [sp, #48]	@ 0x30
 80032dc:	460d      	mov	r5, r1
 80032de:	4691      	mov	r9, r2
 80032e0:	f7fe ffb4 	bl	800224c <HAL_GetTick>
 80032e4:	f894 303d 	ldrb.w	r3, [r4, #61]	@ 0x3d
 80032e8:	2b20      	cmp	r3, #32
 80032ea:	4606      	mov	r6, r0
 80032ec:	d004      	beq.n	80032f8 <HAL_I2C_Master_Transmit+0x28>
 80032ee:	2502      	movs	r5, #2
 80032f0:	4628      	mov	r0, r5
 80032f2:	b005      	add	sp, #20
 80032f4:	e8bd 83f0 	ldmia.w	sp!, {r4, r5, r6, r7, r8, r9, pc}
 80032f8:	9000      	str	r0, [sp, #0]
 80032fa:	495e      	ldr	r1, [pc, #376]	@ (8003474 <HAL_I2C_Master_Transmit+0x1a4>)
 80032fc:	2319      	movs	r3, #25
 80032fe:	2201      	movs	r2, #1
 8003300:	4620      	mov	r0, r4
 8003302:	f7ff fe33 	bl	8002f6c <I2C_WaitOnFlagUntilTimeout>
 8003306:	2800      	cmp	r0, #0
 8003308:	d1f1      	bne.n	80032ee <HAL_I2C_Master_Transmit+0x1e>
 800330a:	f894 303c 	ldrb.w	r3, [r4, #60]	@ 0x3c
 800330e:	2b01      	cmp	r3, #1
 8003310:	d0ed      	beq.n	80032ee <HAL_I2C_Master_Transmit+0x1e>
 8003312:	6821      	ldr	r1, [r4, #0]
 8003314:	2301      	movs	r3, #1
 8003316:	f884 303c 	strb.w	r3, [r4, #60]	@ 0x3c
 800331a:	680b      	ldr	r3, [r1, #0]
 800331c:	07da      	lsls	r2, r3, #31
 800331e:	bf5e      	ittt	pl
 8003320:	680b      	ldrpl	r3, [r1, #0]
 8003322:	f043 0301 	orrpl.w	r3, r3, #1
 8003326:	600b      	strpl	r3, [r1, #0]
 8003328:	680b      	ldr	r3, [r1, #0]
 800332a:	f423 6300 	bic.w	r3, r3, #2048	@ 0x800
 800332e:	600b      	str	r3, [r1, #0]
 8003330:	2321      	movs	r3, #33	@ 0x21
 8003332:	f884 303d 	strb.w	r3, [r4, #61]	@ 0x3d
 8003336:	2310      	movs	r3, #16
 8003338:	f884 303e 	strb.w	r3, [r4, #62]	@ 0x3e
 800333c:	2300      	movs	r3, #0
 800333e:	6423      	str	r3, [r4, #64]	@ 0x40
 8003340:	f8a4 802a 	strh.w	r8, [r4, #42]	@ 0x2a
 8003344:	8d63      	ldrh	r3, [r4, #42]	@ 0x2a
 8003346:	8523      	strh	r3, [r4, #40]	@ 0x28
 8003348:	4b4b      	ldr	r3, [pc, #300]	@ (8003478 <HAL_I2C_Master_Transmit+0x1a8>)
 800334a:	62e3      	str	r3, [r4, #44]	@ 0x2c
 800334c:	6ae3      	ldr	r3, [r4, #44]	@ 0x2c
 800334e:	f8c4 9024 	str.w	r9, [r4, #36]	@ 0x24
 8003352:	2b08      	cmp	r3, #8
 8003354:	d004      	beq.n	8003360 <HAL_I2C_Master_Transmit+0x90>
 8003356:	2b01      	cmp	r3, #1
 8003358:	d002      	beq.n	8003360 <HAL_I2C_Master_Transmit+0x90>
 800335a:	f513 3f80 	cmn.w	r3, #65536	@ 0x10000
 800335e:	d104      	bne.n	800336a <HAL_I2C_Master_Transmit+0x9a>
 8003360:	680b      	ldr	r3, [r1, #0]
 8003362:	f443 7380 	orr.w	r3, r3, #256	@ 0x100
 8003366:	600b      	str	r3, [r1, #0]
 8003368:	e002      	b.n	8003370 <HAL_I2C_Master_Transmit+0xa0>
 800336a:	6b23      	ldr	r3, [r4, #48]	@ 0x30
 800336c:	2b12      	cmp	r3, #18
 800336e:	d0f7      	beq.n	8003360 <HAL_I2C_Master_Transmit+0x90>
 8003370:	2200      	movs	r2, #0
 8003372:	9600      	str	r6, [sp, #0]
 8003374:	463b      	mov	r3, r7
 8003376:	f04f 1101 	mov.w	r1, #65537	@ 0x10001
 800337a:	4620      	mov	r0, r4
 800337c:	f7ff fdf6 	bl	8002f6c <I2C_WaitOnFlagUntilTimeout>
 8003380:	6822      	ldr	r2, [r4, #0]
 8003382:	b140      	cbz	r0, 8003396 <HAL_I2C_Master_Transmit+0xc6>
 8003384:	6813      	ldr	r3, [r2, #0]
 8003386:	05db      	lsls	r3, r3, #23
 8003388:	d401      	bmi.n	800338e <HAL_I2C_Master_Transmit+0xbe>
 800338a:	2501      	movs	r5, #1
 800338c:	e7b0      	b.n	80032f0 <HAL_I2C_Master_Transmit+0x20>
 800338e:	f44f 7300 	mov.w	r3, #512	@ 0x200
 8003392:	6423      	str	r3, [r4, #64]	@ 0x40
 8003394:	e7f9      	b.n	800338a <HAL_I2C_Master_Transmit+0xba>
 8003396:	6923      	ldr	r3, [r4, #16]
 8003398:	f5b3 4f80 	cmp.w	r3, #16384	@ 0x4000
 800339c:	d121      	bne.n	80033e2 <HAL_I2C_Master_Transmit+0x112>
 800339e:	f005 05fe 	and.w	r5, r5, #254	@ 0xfe
 80033a2:	6115      	str	r5, [r2, #16]
 80033a4:	4935      	ldr	r1, [pc, #212]	@ (800347c <HAL_I2C_Master_Transmit+0x1ac>)
 80033a6:	4633      	mov	r3, r6
 80033a8:	463a      	mov	r2, r7
 80033aa:	4620      	mov	r0, r4
 80033ac:	f7ff fe1e 	bl	8002fec <I2C_WaitOnMasterAddressFlagUntilTimeout>
 80033b0:	4605      	mov	r5, r0
 80033b2:	2800      	cmp	r0, #0
 80033b4:	d1e9      	bne.n	800338a <HAL_I2C_Master_Transmit+0xba>
 80033b6:	6823      	ldr	r3, [r4, #0]
 80033b8:	9003      	str	r0, [sp, #12]
 80033ba:	695a      	ldr	r2, [r3, #20]
 80033bc:	9203      	str	r2, [sp, #12]
 80033be:	699b      	ldr	r3, [r3, #24]
 80033c0:	9303      	str	r3, [sp, #12]
 80033c2:	9b03      	ldr	r3, [sp, #12]
 80033c4:	8d23      	ldrh	r3, [r4, #40]	@ 0x28
 80033c6:	b9f3      	cbnz	r3, 8003406 <HAL_I2C_Master_Transmit+0x136>
 80033c8:	6821      	ldr	r1, [r4, #0]
 80033ca:	680a      	ldr	r2, [r1, #0]
 80033cc:	f442 7200 	orr.w	r2, r2, #512	@ 0x200
 80033d0:	600a      	str	r2, [r1, #0]
 80033d2:	2220      	movs	r2, #32
 80033d4:	f884 203d 	strb.w	r2, [r4, #61]	@ 0x3d
 80033d8:	f884 303c 	strb.w	r3, [r4, #60]	@ 0x3c
 80033dc:	f884 303e 	strb.w	r3, [r4, #62]	@ 0x3e
 80033e0:	e786      	b.n	80032f0 <HAL_I2C_Master_Transmit+0x20>
 80033e2:	11eb      	asrs	r3, r5, #7
 80033e4:	f003 0306 	and.w	r3, r3, #6
 80033e8:	f043 03f0 	orr.w	r3, r3, #240	@ 0xf0
 80033ec:	6113      	str	r3, [r2, #16]
 80033ee:	4924      	ldr	r1, [pc, #144]	@ (8003480 <HAL_I2C_Master_Transmit+0x1b0>)
 80033f0:	4633      	mov	r3, r6
 80033f2:	463a      	mov	r2, r7
 80033f4:	4620      	mov	r0, r4
 80033f6:	f7ff fdf9 	bl	8002fec <I2C_WaitOnMasterAddressFlagUntilTimeout>
 80033fa:	2800      	cmp	r0, #0
 80033fc:	d1c5      	bne.n	800338a <HAL_I2C_Master_Transmit+0xba>
 80033fe:	6823      	ldr	r3, [r4, #0]
 8003400:	b2ed      	uxtb	r5, r5
 8003402:	611d      	str	r5, [r3, #16]
 8003404:	e7ce      	b.n	80033a4 <HAL_I2C_Master_Transmit+0xd4>
 8003406:	4632      	mov	r2, r6
 8003408:	4639      	mov	r1, r7
 800340a:	4620      	mov	r0, r4
 800340c:	f7ff fe30 	bl	8003070 <I2C_WaitOnTXEFlagUntilTimeout>
 8003410:	b140      	cbz	r0, 8003424 <HAL_I2C_Master_Transmit+0x154>
 8003412:	6c23      	ldr	r3, [r4, #64]	@ 0x40
 8003414:	2b04      	cmp	r3, #4
 8003416:	d1b8      	bne.n	800338a <HAL_I2C_Master_Transmit+0xba>
 8003418:	6822      	ldr	r2, [r4, #0]
 800341a:	6813      	ldr	r3, [r2, #0]
 800341c:	f443 7300 	orr.w	r3, r3, #512	@ 0x200
 8003420:	6013      	str	r3, [r2, #0]
 8003422:	e7b2      	b.n	800338a <HAL_I2C_Master_Transmit+0xba>
 8003424:	6a63      	ldr	r3, [r4, #36]	@ 0x24
 8003426:	6820      	ldr	r0, [r4, #0]
 8003428:	461a      	mov	r2, r3
 800342a:	f812 1b01 	ldrb.w	r1, [r2], #1
 800342e:	6101      	str	r1, [r0, #16]
 8003430:	6262      	str	r2, [r4, #36]	@ 0x24
 8003432:	8d62      	ldrh	r2, [r4, #42]	@ 0x2a
 8003434:	3a01      	subs	r2, #1
 8003436:	b292      	uxth	r2, r2
 8003438:	8562      	strh	r2, [r4, #42]	@ 0x2a
 800343a:	8d22      	ldrh	r2, [r4, #40]	@ 0x28
 800343c:	f8d0 c014 	ldr.w	ip, [r0, #20]
 8003440:	1e51      	subs	r1, r2, #1
 8003442:	b289      	uxth	r1, r1
 8003444:	f01c 0f04 	tst.w	ip, #4
 8003448:	8521      	strh	r1, [r4, #40]	@ 0x28
 800344a:	d00a      	beq.n	8003462 <HAL_I2C_Master_Transmit+0x192>
 800344c:	b149      	cbz	r1, 8003462 <HAL_I2C_Master_Transmit+0x192>
 800344e:	7859      	ldrb	r1, [r3, #1]
 8003450:	6101      	str	r1, [r0, #16]
 8003452:	3302      	adds	r3, #2
 8003454:	6263      	str	r3, [r4, #36]	@ 0x24
 8003456:	8d63      	ldrh	r3, [r4, #42]	@ 0x2a
 8003458:	3b01      	subs	r3, #1
 800345a:	b29b      	uxth	r3, r3
 800345c:	3a02      	subs	r2, #2
 800345e:	8563      	strh	r3, [r4, #42]	@ 0x2a
 8003460:	8522      	strh	r2, [r4, #40]	@ 0x28
 8003462:	4632      	mov	r2, r6
 8003464:	4639      	mov	r1, r7
 8003466:	4620      	mov	r0, r4
 8003468:	f7ff fe2c 	bl	80030c4 <I2C_WaitOnBTFFlagUntilTimeout>
 800346c:	2800      	cmp	r0, #0
 800346e:	d0a9      	beq.n	80033c4 <HAL_I2C_Master_Transmit+0xf4>
 8003470:	e7cf      	b.n	8003412 <HAL_I2C_Master_Transmit+0x142>
 8003472:	bf00      	nop
 8003474:	00100002 	.word	0x00100002
 8003478:	ffff0000 	.word	0xffff0000
 800347c:	00010002 	.word	0x00010002
 8003480:	00010008 	.word	0x00010008

08003484 <HAL_I2C_Master_Receive>:
 8003484:	e92d 43f0 	stmdb	sp!, {r4, r5, r6, r7, r8, r9, lr}
 8003488:	4604      	mov	r4, r0
 800348a:	b089      	sub	sp, #36	@ 0x24
 800348c:	4698      	mov	r8, r3
 800348e:	9f10      	ldr	r7, [sp, #64]	@ 0x40
 8003490:	460e      	mov	r6, r1
 8003492:	4691      	mov	r9, r2
 8003494:	f7fe feda 	bl	800224c <HAL_GetTick>
 8003498:	f894 303d 	ldrb.w	r3, [r4, #61]	@ 0x3d
 800349c:	2b20      	cmp	r3, #32
 800349e:	4605      	mov	r5, r0
 80034a0:	d004      	beq.n	80034ac <HAL_I2C_Master_Receive+0x28>
 80034a2:	2602      	movs	r6, #2
 80034a4:	4630      	mov	r0, r6
 80034a6:	b009      	add	sp, #36	@ 0x24
 80034a8:	e8bd 83f0 	ldmia.w	sp!, {r4, r5, r6, r7, r8, r9, pc}
 80034ac:	9000      	str	r0, [sp, #0]
 80034ae:	499a      	ldr	r1, [pc, #616]	@ (8003718 <HAL_I2C_Master_Receive+0x294>)
 80034b0:	2319      	movs	r3, #25
 80034b2:	2201      	movs	r2, #1
 80034b4:	4620      	mov	r0, r4
 80034b6:	f7ff fd59 	bl	8002f6c <I2C_WaitOnFlagUntilTimeout>
 80034ba:	2800      	cmp	r0, #0
 80034bc:	d1f1      	bne.n	80034a2 <HAL_I2C_Master_Receive+0x1e>
 80034be:	f894 303c 	ldrb.w	r3, [r4, #60]	@ 0x3c
 80034c2:	2b01      	cmp	r3, #1
 80034c4:	d0ed      	beq.n	80034a2 <HAL_I2C_Master_Receive+0x1e>
 80034c6:	6821      	ldr	r1, [r4, #0]
 80034c8:	2301      	movs	r3, #1
 80034ca:	f884 303c 	strb.w	r3, [r4, #60]	@ 0x3c
 80034ce:	680b      	ldr	r3, [r1, #0]
 80034d0:	07db      	lsls	r3, r3, #31
 80034d2:	bf5e      	ittt	pl
 80034d4:	680b      	ldrpl	r3, [r1, #0]
 80034d6:	f043 0301 	orrpl.w	r3, r3, #1
 80034da:	600b      	strpl	r3, [r1, #0]
 80034dc:	680b      	ldr	r3, [r1, #0]
 80034de:	f423 6300 	bic.w	r3, r3, #2048	@ 0x800
 80034e2:	600b      	str	r3, [r1, #0]
 80034e4:	2322      	movs	r3, #34	@ 0x22
 80034e6:	f884 303d 	strb.w	r3, [r4, #61]	@ 0x3d
 80034ea:	2310      	movs	r3, #16
 80034ec:	f884 303e 	strb.w	r3, [r4, #62]	@ 0x3e
 80034f0:	2300      	movs	r3, #0
 80034f2:	6423      	str	r3, [r4, #64]	@ 0x40
 80034f4:	f8a4 802a 	strh.w	r8, [r4, #42]	@ 0x2a
 80034f8:	8d63      	ldrh	r3, [r4, #42]	@ 0x2a
 80034fa:	8523      	strh	r3, [r4, #40]	@ 0x28
 80034fc:	4b87      	ldr	r3, [pc, #540]	@ (800371c <HAL_I2C_Master_Receive+0x298>)
 80034fe:	62e3      	str	r3, [r4, #44]	@ 0x2c
 8003500:	6ae3      	ldr	r3, [r4, #44]	@ 0x2c
 8003502:	680a      	ldr	r2, [r1, #0]
 8003504:	f8c4 9024 	str.w	r9, [r4, #36]	@ 0x24
 8003508:	f442 6280 	orr.w	r2, r2, #1024	@ 0x400
 800350c:	2b08      	cmp	r3, #8
 800350e:	600a      	str	r2, [r1, #0]
 8003510:	d004      	beq.n	800351c <HAL_I2C_Master_Receive+0x98>
 8003512:	2b01      	cmp	r3, #1
 8003514:	d002      	beq.n	800351c <HAL_I2C_Master_Receive+0x98>
 8003516:	f513 3f80 	cmn.w	r3, #65536	@ 0x10000
 800351a:	d104      	bne.n	8003526 <HAL_I2C_Master_Receive+0xa2>
 800351c:	680b      	ldr	r3, [r1, #0]
 800351e:	f443 7380 	orr.w	r3, r3, #256	@ 0x100
 8003522:	600b      	str	r3, [r1, #0]
 8003524:	e002      	b.n	800352c <HAL_I2C_Master_Receive+0xa8>
 8003526:	6b23      	ldr	r3, [r4, #48]	@ 0x30
 8003528:	2b11      	cmp	r3, #17
 800352a:	d0f7      	beq.n	800351c <HAL_I2C_Master_Receive+0x98>
 800352c:	463b      	mov	r3, r7
 800352e:	9500      	str	r5, [sp, #0]
 8003530:	2200      	movs	r2, #0
 8003532:	f04f 1101 	mov.w	r1, #65537	@ 0x10001
 8003536:	4620      	mov	r0, r4
 8003538:	f7ff fd18 	bl	8002f6c <I2C_WaitOnFlagUntilTimeout>
 800353c:	6823      	ldr	r3, [r4, #0]
 800353e:	b138      	cbz	r0, 8003550 <HAL_I2C_Master_Receive+0xcc>
 8003540:	681b      	ldr	r3, [r3, #0]
 8003542:	05dd      	lsls	r5, r3, #23
 8003544:	bf44      	itt	mi
 8003546:	f44f 7300 	movmi.w	r3, #512	@ 0x200
 800354a:	6423      	strmi	r3, [r4, #64]	@ 0x40
 800354c:	2601      	movs	r6, #1
 800354e:	e7a9      	b.n	80034a4 <HAL_I2C_Master_Receive+0x20>
 8003550:	6922      	ldr	r2, [r4, #16]
 8003552:	f5b2 4f80 	cmp.w	r2, #16384	@ 0x4000
 8003556:	d127      	bne.n	80035a8 <HAL_I2C_Master_Receive+0x124>
 8003558:	f046 0601 	orr.w	r6, r6, #1
 800355c:	b2f6      	uxtb	r6, r6
 800355e:	611e      	str	r6, [r3, #16]
 8003560:	496f      	ldr	r1, [pc, #444]	@ (8003720 <HAL_I2C_Master_Receive+0x29c>)
 8003562:	462b      	mov	r3, r5
 8003564:	463a      	mov	r2, r7
 8003566:	4620      	mov	r0, r4
 8003568:	f7ff fd40 	bl	8002fec <I2C_WaitOnMasterAddressFlagUntilTimeout>
 800356c:	4606      	mov	r6, r0
 800356e:	2800      	cmp	r0, #0
 8003570:	d1ec      	bne.n	800354c <HAL_I2C_Master_Receive+0xc8>
 8003572:	8d23      	ldrh	r3, [r4, #40]	@ 0x28
 8003574:	6821      	ldr	r1, [r4, #0]
 8003576:	2b00      	cmp	r3, #0
 8003578:	d14b      	bne.n	8003612 <HAL_I2C_Master_Receive+0x18e>
 800357a:	9003      	str	r0, [sp, #12]
 800357c:	694b      	ldr	r3, [r1, #20]
 800357e:	9303      	str	r3, [sp, #12]
 8003580:	698b      	ldr	r3, [r1, #24]
 8003582:	9303      	str	r3, [sp, #12]
 8003584:	9b03      	ldr	r3, [sp, #12]
 8003586:	680b      	ldr	r3, [r1, #0]
 8003588:	f443 7300 	orr.w	r3, r3, #512	@ 0x200
 800358c:	600b      	str	r3, [r1, #0]
 800358e:	f8df 8198 	ldr.w	r8, [pc, #408]	@ 8003728 <HAL_I2C_Master_Receive+0x2a4>
 8003592:	8d23      	ldrh	r3, [r4, #40]	@ 0x28
 8003594:	2b00      	cmp	r3, #0
 8003596:	d164      	bne.n	8003662 <HAL_I2C_Master_Receive+0x1de>
 8003598:	2220      	movs	r2, #32
 800359a:	f884 203d 	strb.w	r2, [r4, #61]	@ 0x3d
 800359e:	f884 303c 	strb.w	r3, [r4, #60]	@ 0x3c
 80035a2:	f884 303e 	strb.w	r3, [r4, #62]	@ 0x3e
 80035a6:	e77d      	b.n	80034a4 <HAL_I2C_Master_Receive+0x20>
 80035a8:	ea4f 18e6 	mov.w	r8, r6, asr #7
 80035ac:	f008 0806 	and.w	r8, r8, #6
 80035b0:	f048 02f0 	orr.w	r2, r8, #240	@ 0xf0
 80035b4:	611a      	str	r2, [r3, #16]
 80035b6:	495b      	ldr	r1, [pc, #364]	@ (8003724 <HAL_I2C_Master_Receive+0x2a0>)
 80035b8:	462b      	mov	r3, r5
 80035ba:	463a      	mov	r2, r7
 80035bc:	4620      	mov	r0, r4
 80035be:	f7ff fd15 	bl	8002fec <I2C_WaitOnMasterAddressFlagUntilTimeout>
 80035c2:	2800      	cmp	r0, #0
 80035c4:	d1c2      	bne.n	800354c <HAL_I2C_Master_Receive+0xc8>
 80035c6:	6823      	ldr	r3, [r4, #0]
 80035c8:	4955      	ldr	r1, [pc, #340]	@ (8003720 <HAL_I2C_Master_Receive+0x29c>)
 80035ca:	b2f6      	uxtb	r6, r6
 80035cc:	611e      	str	r6, [r3, #16]
 80035ce:	463a      	mov	r2, r7
 80035d0:	462b      	mov	r3, r5
 80035d2:	4620      	mov	r0, r4
 80035d4:	f7ff fd0a 	bl	8002fec <I2C_WaitOnMasterAddressFlagUntilTimeout>
 80035d8:	4602      	mov	r2, r0
 80035da:	2800      	cmp	r0, #0
 80035dc:	d1b6      	bne.n	800354c <HAL_I2C_Master_Receive+0xc8>
 80035de:	6823      	ldr	r3, [r4, #0]
 80035e0:	9007      	str	r0, [sp, #28]
 80035e2:	6959      	ldr	r1, [r3, #20]
 80035e4:	9107      	str	r1, [sp, #28]
 80035e6:	6999      	ldr	r1, [r3, #24]
 80035e8:	9107      	str	r1, [sp, #28]
 80035ea:	9907      	ldr	r1, [sp, #28]
 80035ec:	6819      	ldr	r1, [r3, #0]
 80035ee:	f441 7180 	orr.w	r1, r1, #256	@ 0x100
 80035f2:	6019      	str	r1, [r3, #0]
 80035f4:	4620      	mov	r0, r4
 80035f6:	9500      	str	r5, [sp, #0]
 80035f8:	463b      	mov	r3, r7
 80035fa:	f04f 1101 	mov.w	r1, #65537	@ 0x10001
 80035fe:	f7ff fcb5 	bl	8002f6c <I2C_WaitOnFlagUntilTimeout>
 8003602:	6822      	ldr	r2, [r4, #0]
 8003604:	b108      	cbz	r0, 800360a <HAL_I2C_Master_Receive+0x186>
 8003606:	6813      	ldr	r3, [r2, #0]
 8003608:	e79b      	b.n	8003542 <HAL_I2C_Master_Receive+0xbe>
 800360a:	f048 03f1 	orr.w	r3, r8, #241	@ 0xf1
 800360e:	6113      	str	r3, [r2, #16]
 8003610:	e7a6      	b.n	8003560 <HAL_I2C_Master_Receive+0xdc>
 8003612:	2b01      	cmp	r3, #1
 8003614:	d10a      	bne.n	800362c <HAL_I2C_Master_Receive+0x1a8>
 8003616:	680b      	ldr	r3, [r1, #0]
 8003618:	f423 6380 	bic.w	r3, r3, #1024	@ 0x400
 800361c:	600b      	str	r3, [r1, #0]
 800361e:	9004      	str	r0, [sp, #16]
 8003620:	694b      	ldr	r3, [r1, #20]
 8003622:	9304      	str	r3, [sp, #16]
 8003624:	698b      	ldr	r3, [r1, #24]
 8003626:	9304      	str	r3, [sp, #16]
 8003628:	9b04      	ldr	r3, [sp, #16]
 800362a:	e7ac      	b.n	8003586 <HAL_I2C_Master_Receive+0x102>
 800362c:	2b02      	cmp	r3, #2
 800362e:	680b      	ldr	r3, [r1, #0]
 8003630:	d10d      	bne.n	800364e <HAL_I2C_Master_Receive+0x1ca>
 8003632:	f423 6380 	bic.w	r3, r3, #1024	@ 0x400
 8003636:	600b      	str	r3, [r1, #0]
 8003638:	680b      	ldr	r3, [r1, #0]
 800363a:	f443 6300 	orr.w	r3, r3, #2048	@ 0x800
 800363e:	600b      	str	r3, [r1, #0]
 8003640:	9005      	str	r0, [sp, #20]
 8003642:	694b      	ldr	r3, [r1, #20]
 8003644:	9305      	str	r3, [sp, #20]
 8003646:	698b      	ldr	r3, [r1, #24]
 8003648:	9305      	str	r3, [sp, #20]
 800364a:	9b05      	ldr	r3, [sp, #20]
 800364c:	e79f      	b.n	800358e <HAL_I2C_Master_Receive+0x10a>
 800364e:	f443 6380 	orr.w	r3, r3, #1024	@ 0x400
 8003652:	600b      	str	r3, [r1, #0]
 8003654:	9006      	str	r0, [sp, #24]
 8003656:	694b      	ldr	r3, [r1, #20]
 8003658:	9306      	str	r3, [sp, #24]
 800365a:	698b      	ldr	r3, [r1, #24]
 800365c:	9306      	str	r3, [sp, #24]
 800365e:	9b06      	ldr	r3, [sp, #24]
 8003660:	e795      	b.n	800358e <HAL_I2C_Master_Receive+0x10a>
 8003662:	2b03      	cmp	r3, #3
 8003664:	d862      	bhi.n	800372c <HAL_I2C_Master_Receive+0x2a8>
 8003666:	2b01      	cmp	r3, #1
 8003668:	d116      	bne.n	8003698 <HAL_I2C_Master_Receive+0x214>
 800366a:	462a      	mov	r2, r5
 800366c:	4639      	mov	r1, r7
 800366e:	4620      	mov	r0, r4
 8003670:	f7ff fd52 	bl	8003118 <I2C_WaitOnRXNEFlagUntilTimeout>
 8003674:	2800      	cmp	r0, #0
 8003676:	f47f af69 	bne.w	800354c <HAL_I2C_Master_Receive+0xc8>
 800367a:	6823      	ldr	r3, [r4, #0]
 800367c:	691a      	ldr	r2, [r3, #16]
 800367e:	6a63      	ldr	r3, [r4, #36]	@ 0x24
 8003680:	701a      	strb	r2, [r3, #0]
 8003682:	6a63      	ldr	r3, [r4, #36]	@ 0x24
 8003684:	3301      	adds	r3, #1
 8003686:	6263      	str	r3, [r4, #36]	@ 0x24
 8003688:	8d23      	ldrh	r3, [r4, #40]	@ 0x28
 800368a:	3b01      	subs	r3, #1
 800368c:	8523      	strh	r3, [r4, #40]	@ 0x28
 800368e:	8d63      	ldrh	r3, [r4, #42]	@ 0x2a
 8003690:	3b01      	subs	r3, #1
 8003692:	b29b      	uxth	r3, r3
 8003694:	8563      	strh	r3, [r4, #42]	@ 0x2a
 8003696:	e77c      	b.n	8003592 <HAL_I2C_Master_Receive+0x10e>
 8003698:	2b02      	cmp	r3, #2
 800369a:	9500      	str	r5, [sp, #0]
 800369c:	463b      	mov	r3, r7
 800369e:	f04f 0200 	mov.w	r2, #0
 80036a2:	4641      	mov	r1, r8
 80036a4:	4620      	mov	r0, r4
 80036a6:	d11a      	bne.n	80036de <HAL_I2C_Master_Receive+0x25a>
 80036a8:	f7ff fc60 	bl	8002f6c <I2C_WaitOnFlagUntilTimeout>
 80036ac:	2800      	cmp	r0, #0
 80036ae:	f47f af4d 	bne.w	800354c <HAL_I2C_Master_Receive+0xc8>
 80036b2:	6823      	ldr	r3, [r4, #0]
 80036b4:	681a      	ldr	r2, [r3, #0]
 80036b6:	f442 7200 	orr.w	r2, r2, #512	@ 0x200
 80036ba:	601a      	str	r2, [r3, #0]
 80036bc:	691a      	ldr	r2, [r3, #16]
 80036be:	6a63      	ldr	r3, [r4, #36]	@ 0x24
 80036c0:	701a      	strb	r2, [r3, #0]
 80036c2:	6a62      	ldr	r2, [r4, #36]	@ 0x24
 80036c4:	1c53      	adds	r3, r2, #1
 80036c6:	6263      	str	r3, [r4, #36]	@ 0x24
 80036c8:	8d23      	ldrh	r3, [r4, #40]	@ 0x28
 80036ca:	3b01      	subs	r3, #1
 80036cc:	8523      	strh	r3, [r4, #40]	@ 0x28
 80036ce:	8d63      	ldrh	r3, [r4, #42]	@ 0x2a
 80036d0:	3b01      	subs	r3, #1
 80036d2:	b29b      	uxth	r3, r3
 80036d4:	8563      	strh	r3, [r4, #42]	@ 0x2a
 80036d6:	6823      	ldr	r3, [r4, #0]
 80036d8:	691b      	ldr	r3, [r3, #16]
 80036da:	7053      	strb	r3, [r2, #1]
 80036dc:	e7d1      	b.n	8003682 <HAL_I2C_Master_Receive+0x1fe>
 80036de:	f7ff fc45 	bl	8002f6c <I2C_WaitOnFlagUntilTimeout>
 80036e2:	4602      	mov	r2, r0
 80036e4:	2800      	cmp	r0, #0
 80036e6:	f47f af31 	bne.w	800354c <HAL_I2C_Master_Receive+0xc8>
 80036ea:	6823      	ldr	r3, [r4, #0]
 80036ec:	6819      	ldr	r1, [r3, #0]
 80036ee:	f421 6180 	bic.w	r1, r1, #1024	@ 0x400
 80036f2:	6019      	str	r1, [r3, #0]
 80036f4:	6919      	ldr	r1, [r3, #16]
 80036f6:	6a63      	ldr	r3, [r4, #36]	@ 0x24
 80036f8:	7019      	strb	r1, [r3, #0]
 80036fa:	6a63      	ldr	r3, [r4, #36]	@ 0x24
 80036fc:	3301      	adds	r3, #1
 80036fe:	6263      	str	r3, [r4, #36]	@ 0x24
 8003700:	8d23      	ldrh	r3, [r4, #40]	@ 0x28
 8003702:	3b01      	subs	r3, #1
 8003704:	8523      	strh	r3, [r4, #40]	@ 0x28
 8003706:	8d63      	ldrh	r3, [r4, #42]	@ 0x2a
 8003708:	3b01      	subs	r3, #1
 800370a:	b29b      	uxth	r3, r3
 800370c:	8563      	strh	r3, [r4, #42]	@ 0x2a
 800370e:	4641      	mov	r1, r8
 8003710:	9500      	str	r5, [sp, #0]
 8003712:	463b      	mov	r3, r7
 8003714:	4620      	mov	r0, r4
 8003716:	e7c7      	b.n	80036a8 <HAL_I2C_Master_Receive+0x224>
 8003718:	00100002 	.word	0x00100002
 800371c:	ffff0000 	.word	0xffff0000
 8003720:	00010002 	.word	0x00010002
 8003724:	00010008 	.word	0x00010008
 8003728:	00010004 	.word	0x00010004
 800372c:	462a      	mov	r2, r5
 800372e:	4639      	mov	r1, r7
 8003730:	4620      	mov	r0, r4
 8003732:	f7ff fcf1 	bl	8003118 <I2C_WaitOnRXNEFlagUntilTimeout>
 8003736:	2800      	cmp	r0, #0
 8003738:	f47f af08 	bne.w	800354c <HAL_I2C_Master_Receive+0xc8>
 800373c:	6823      	ldr	r3, [r4, #0]
 800373e:	691a      	ldr	r2, [r3, #16]
 8003740:	6a63      	ldr	r3, [r4, #36]	@ 0x24
 8003742:	701a      	strb	r2, [r3, #0]
 8003744:	8d62      	ldrh	r2, [r4, #42]	@ 0x2a
 8003746:	6a61      	ldr	r1, [r4, #36]	@ 0x24
 8003748:	3a01      	subs	r2, #1
 800374a:	b292      	uxth	r2, r2
 800374c:	1c4b      	adds	r3, r1, #1
 800374e:	8562      	strh	r2, [r4, #42]	@ 0x2a
 8003750:	6822      	ldr	r2, [r4, #0]
 8003752:	6263      	str	r3, [r4, #36]	@ 0x24
 8003754:	8d23      	ldrh	r3, [r4, #40]	@ 0x28
 8003756:	6950      	ldr	r0, [r2, #20]
 8003758:	3b01      	subs	r3, #1
 800375a:	b29b      	uxth	r3, r3
 800375c:	0740      	lsls	r0, r0, #29
 800375e:	8523      	strh	r3, [r4, #40]	@ 0x28
 8003760:	f57f af17 	bpl.w	8003592 <HAL_I2C_Master_Receive+0x10e>
 8003764:	2b03      	cmp	r3, #3
 8003766:	bf02      	ittt	eq
 8003768:	6813      	ldreq	r3, [r2, #0]
 800376a:	f423 6380 	biceq.w	r3, r3, #1024	@ 0x400
 800376e:	6013      	streq	r3, [r2, #0]
 8003770:	6913      	ldr	r3, [r2, #16]
 8003772:	704b      	strb	r3, [r1, #1]
 8003774:	e785      	b.n	8003682 <HAL_I2C_Master_Receive+0x1fe>
 8003776:	bf00      	nop

08003778 <HAL_I2CEx_ConfigAnalogFilter>:
 8003778:	b510      	push	{r4, lr}
 800377a:	f890 303d 	ldrb.w	r3, [r0, #61]	@ 0x3d
 800377e:	2b20      	cmp	r3, #32
 8003780:	b2dc      	uxtb	r4, r3
 8003782:	d116      	bne.n	80037b2 <HAL_I2CEx_ConfigAnalogFilter+0x3a>
 8003784:	2324      	movs	r3, #36	@ 0x24
 8003786:	f880 303d 	strb.w	r3, [r0, #61]	@ 0x3d
 800378a:	6803      	ldr	r3, [r0, #0]
 800378c:	681a      	ldr	r2, [r3, #0]
 800378e:	f022 0201 	bic.w	r2, r2, #1
 8003792:	601a      	str	r2, [r3, #0]
 8003794:	6a5a      	ldr	r2, [r3, #36]	@ 0x24
 8003796:	f022 0210 	bic.w	r2, r2, #16
 800379a:	625a      	str	r2, [r3, #36]	@ 0x24
 800379c:	6a5a      	ldr	r2, [r3, #36]	@ 0x24
 800379e:	4311      	orrs	r1, r2
 80037a0:	6259      	str	r1, [r3, #36]	@ 0x24
 80037a2:	681a      	ldr	r2, [r3, #0]
 80037a4:	f042 0201 	orr.w	r2, r2, #1
 80037a8:	601a      	str	r2, [r3, #0]
 80037aa:	f880 403d 	strb.w	r4, [r0, #61]	@ 0x3d
 80037ae:	2000      	movs	r0, #0
 80037b0:	bd10      	pop	{r4, pc}
 80037b2:	2002      	movs	r0, #2
 80037b4:	e7fc      	b.n	80037b0 <HAL_I2CEx_ConfigAnalogFilter+0x38>

080037b6 <HAL_I2CEx_ConfigDigitalFilter>:
 80037b6:	b530      	push	{r4, r5, lr}
 80037b8:	f890 303d 	ldrb.w	r3, [r0, #61]	@ 0x3d
 80037bc:	2b20      	cmp	r3, #32
 80037be:	b2dc      	uxtb	r4, r3
 80037c0:	d116      	bne.n	80037f0 <HAL_I2CEx_ConfigDigitalFilter+0x3a>
 80037c2:	6802      	ldr	r2, [r0, #0]
 80037c4:	2324      	movs	r3, #36	@ 0x24
 80037c6:	f880 303d 	strb.w	r3, [r0, #61]	@ 0x3d
 80037ca:	6813      	ldr	r3, [r2, #0]
 80037cc:	f023 0301 	bic.w	r3, r3, #1
 80037d0:	6013      	str	r3, [r2, #0]
 80037d2:	6a55      	ldr	r5, [r2, #36]	@ 0x24
 80037d4:	f64f 73f0 	movw	r3, #65520	@ 0xfff0
 80037d8:	402b      	ands	r3, r5
 80037da:	430b      	orrs	r3, r1
 80037dc:	b29b      	uxth	r3, r3
 80037de:	6253      	str	r3, [r2, #36]	@ 0x24
 80037e0:	6813      	ldr	r3, [r2, #0]
 80037e2:	f043 0301 	orr.w	r3, r3, #1
 80037e6:	6013      	str	r3, [r2, #0]
 80037e8:	f880 403d 	strb.w	r4, [r0, #61]	@ 0x3d
 80037ec:	2000      	movs	r0, #0
 80037ee:	bd30      	pop	{r4, r5, pc}
 80037f0:	2002      	movs	r0, #2
 80037f2:	e7fc      	b.n	80037ee <HAL_I2CEx_ConfigDigitalFilter+0x38>

080037f4 <HAL_PWR_EnableBkUpAccess>:
 80037f4:	4b04      	ldr	r3, [pc, #16]	@ (8003808 <HAL_PWR_EnableBkUpAccess+0x14>)
 80037f6:	2201      	movs	r2, #1
 80037f8:	621a      	str	r2, [r3, #32]
 80037fa:	4b04      	ldr	r3, [pc, #16]	@ (800380c <HAL_PWR_EnableBkUpAccess+0x18>)
 80037fc:	b082      	sub	sp, #8
 80037fe:	681b      	ldr	r3, [r3, #0]
 8003800:	9301      	str	r3, [sp, #4]
 8003802:	9b01      	ldr	r3, [sp, #4]
 8003804:	b002      	add	sp, #8
 8003806:	4770      	bx	lr
 8003808:	420e0000 	.word	0x420e0000
 800380c:	40007000 	.word	0x40007000

08003810 <HAL_PWR_DisableBkUpAccess>:
 8003810:	4b04      	ldr	r3, [pc, #16]	@ (8003824 <HAL_PWR_DisableBkUpAccess+0x14>)
 8003812:	2200      	movs	r2, #0
 8003814:	621a      	str	r2, [r3, #32]
 8003816:	4b04      	ldr	r3, [pc, #16]	@ (8003828 <HAL_PWR_DisableBkUpAccess+0x18>)
 8003818:	b082      	sub	sp, #8
 800381a:	681b      	ldr	r3, [r3, #0]
 800381c:	9301      	str	r3, [sp, #4]
 800381e:	9b01      	ldr	r3, [sp, #4]
 8003820:	b002      	add	sp, #8
 8003822:	4770      	bx	lr
 8003824:	420e0000 	.word	0x420e0000
 8003828:	40007000 	.word	0x40007000

0800382c <HAL_RCC_OscConfig>:
 800382c:	e92d 41f3 	stmdb	sp!, {r0, r1, r4, r5, r6, r7, r8, lr}
 8003830:	4604      	mov	r4, r0
 8003832:	b340      	cbz	r0, 8003886 <HAL_RCC_OscConfig+0x5a>
 8003834:	6803      	ldr	r3, [r0, #0]
 8003836:	07de      	lsls	r6, r3, #31
 8003838:	d410      	bmi.n	800385c <HAL_RCC_OscConfig+0x30>
 800383a:	6823      	ldr	r3, [r4, #0]
 800383c:	079d      	lsls	r5, r3, #30
 800383e:	d45b      	bmi.n	80038f8 <HAL_RCC_OscConfig+0xcc>
 8003840:	6823      	ldr	r3, [r4, #0]
 8003842:	0719      	lsls	r1, r3, #28
 8003844:	f100 809d 	bmi.w	8003982 <HAL_RCC_OscConfig+0x156>
 8003848:	6823      	ldr	r3, [r4, #0]
 800384a:	075a      	lsls	r2, r3, #29
 800384c:	f100 80bd 	bmi.w	80039ca <HAL_RCC_OscConfig+0x19e>
 8003850:	69a3      	ldr	r3, [r4, #24]
 8003852:	2b00      	cmp	r3, #0
 8003854:	f040 8124 	bne.w	8003aa0 <HAL_RCC_OscConfig+0x274>
 8003858:	2000      	movs	r0, #0
 800385a:	e02c      	b.n	80038b6 <HAL_RCC_OscConfig+0x8a>
 800385c:	4b8d      	ldr	r3, [pc, #564]	@ (8003a94 <HAL_RCC_OscConfig+0x268>)
 800385e:	689a      	ldr	r2, [r3, #8]
 8003860:	f002 020c 	and.w	r2, r2, #12
 8003864:	2a04      	cmp	r2, #4
 8003866:	d007      	beq.n	8003878 <HAL_RCC_OscConfig+0x4c>
 8003868:	689a      	ldr	r2, [r3, #8]
 800386a:	f002 020c 	and.w	r2, r2, #12
 800386e:	2a08      	cmp	r2, #8
 8003870:	d10b      	bne.n	800388a <HAL_RCC_OscConfig+0x5e>
 8003872:	685b      	ldr	r3, [r3, #4]
 8003874:	0259      	lsls	r1, r3, #9
 8003876:	d508      	bpl.n	800388a <HAL_RCC_OscConfig+0x5e>
 8003878:	4b86      	ldr	r3, [pc, #536]	@ (8003a94 <HAL_RCC_OscConfig+0x268>)
 800387a:	681b      	ldr	r3, [r3, #0]
 800387c:	039a      	lsls	r2, r3, #14
 800387e:	d5dc      	bpl.n	800383a <HAL_RCC_OscConfig+0xe>
 8003880:	6863      	ldr	r3, [r4, #4]
 8003882:	2b00      	cmp	r3, #0
 8003884:	d1d9      	bne.n	800383a <HAL_RCC_OscConfig+0xe>
 8003886:	2001      	movs	r0, #1
 8003888:	e015      	b.n	80038b6 <HAL_RCC_OscConfig+0x8a>
 800388a:	6863      	ldr	r3, [r4, #4]
 800388c:	4d81      	ldr	r5, [pc, #516]	@ (8003a94 <HAL_RCC_OscConfig+0x268>)
 800388e:	f5b3 3f80 	cmp.w	r3, #65536	@ 0x10000
 8003892:	d113      	bne.n	80038bc <HAL_RCC_OscConfig+0x90>
 8003894:	682b      	ldr	r3, [r5, #0]
 8003896:	f443 3380 	orr.w	r3, r3, #65536	@ 0x10000
 800389a:	602b      	str	r3, [r5, #0]
 800389c:	f7fe fcd6 	bl	800224c <HAL_GetTick>
 80038a0:	4e7c      	ldr	r6, [pc, #496]	@ (8003a94 <HAL_RCC_OscConfig+0x268>)
 80038a2:	4605      	mov	r5, r0
 80038a4:	6833      	ldr	r3, [r6, #0]
 80038a6:	039b      	lsls	r3, r3, #14
 80038a8:	d4c7      	bmi.n	800383a <HAL_RCC_OscConfig+0xe>
 80038aa:	f7fe fccf 	bl	800224c <HAL_GetTick>
 80038ae:	1b40      	subs	r0, r0, r5
 80038b0:	2864      	cmp	r0, #100	@ 0x64
 80038b2:	d9f7      	bls.n	80038a4 <HAL_RCC_OscConfig+0x78>
 80038b4:	2003      	movs	r0, #3
 80038b6:	b002      	add	sp, #8
 80038b8:	e8bd 81f0 	ldmia.w	sp!, {r4, r5, r6, r7, r8, pc}
 80038bc:	f5b3 2fa0 	cmp.w	r3, #327680	@ 0x50000
 80038c0:	d104      	bne.n	80038cc <HAL_RCC_OscConfig+0xa0>
 80038c2:	682b      	ldr	r3, [r5, #0]
 80038c4:	f443 2380 	orr.w	r3, r3, #262144	@ 0x40000
 80038c8:	602b      	str	r3, [r5, #0]
 80038ca:	e7e3      	b.n	8003894 <HAL_RCC_OscConfig+0x68>
 80038cc:	682a      	ldr	r2, [r5, #0]
 80038ce:	f422 3280 	bic.w	r2, r2, #65536	@ 0x10000
 80038d2:	602a      	str	r2, [r5, #0]
 80038d4:	682a      	ldr	r2, [r5, #0]
 80038d6:	f422 2280 	bic.w	r2, r2, #262144	@ 0x40000
 80038da:	602a      	str	r2, [r5, #0]
 80038dc:	2b00      	cmp	r3, #0
 80038de:	d1dd      	bne.n	800389c <HAL_RCC_OscConfig+0x70>
 80038e0:	f7fe fcb4 	bl	800224c <HAL_GetTick>
 80038e4:	4606      	mov	r6, r0
 80038e6:	682b      	ldr	r3, [r5, #0]
 80038e8:	039f      	lsls	r7, r3, #14
 80038ea:	d5a6      	bpl.n	800383a <HAL_RCC_OscConfig+0xe>
 80038ec:	f7fe fcae 	bl	800224c <HAL_GetTick>
 80038f0:	1b80      	subs	r0, r0, r6
 80038f2:	2864      	cmp	r0, #100	@ 0x64
 80038f4:	d9f7      	bls.n	80038e6 <HAL_RCC_OscConfig+0xba>
 80038f6:	e7dd      	b.n	80038b4 <HAL_RCC_OscConfig+0x88>
 80038f8:	4b66      	ldr	r3, [pc, #408]	@ (8003a94 <HAL_RCC_OscConfig+0x268>)
 80038fa:	689a      	ldr	r2, [r3, #8]
 80038fc:	f012 0f0c 	tst.w	r2, #12
 8003900:	d007      	beq.n	8003912 <HAL_RCC_OscConfig+0xe6>
 8003902:	689a      	ldr	r2, [r3, #8]
 8003904:	f002 020c 	and.w	r2, r2, #12
 8003908:	2a08      	cmp	r2, #8
 800390a:	d111      	bne.n	8003930 <HAL_RCC_OscConfig+0x104>
 800390c:	685b      	ldr	r3, [r3, #4]
 800390e:	025d      	lsls	r5, r3, #9
 8003910:	d40e      	bmi.n	8003930 <HAL_RCC_OscConfig+0x104>
 8003912:	4a60      	ldr	r2, [pc, #384]	@ (8003a94 <HAL_RCC_OscConfig+0x268>)
 8003914:	6813      	ldr	r3, [r2, #0]
 8003916:	0799      	lsls	r1, r3, #30
 8003918:	d502      	bpl.n	8003920 <HAL_RCC_OscConfig+0xf4>
 800391a:	68e3      	ldr	r3, [r4, #12]
 800391c:	2b01      	cmp	r3, #1
 800391e:	d1b2      	bne.n	8003886 <HAL_RCC_OscConfig+0x5a>
 8003920:	6813      	ldr	r3, [r2, #0]
 8003922:	6921      	ldr	r1, [r4, #16]
 8003924:	f023 03f8 	bic.w	r3, r3, #248	@ 0xf8
 8003928:	ea43 03c1 	orr.w	r3, r3, r1, lsl #3
 800392c:	6013      	str	r3, [r2, #0]
 800392e:	e787      	b.n	8003840 <HAL_RCC_OscConfig+0x14>
 8003930:	68e2      	ldr	r2, [r4, #12]
 8003932:	4b59      	ldr	r3, [pc, #356]	@ (8003a98 <HAL_RCC_OscConfig+0x26c>)
 8003934:	b1b2      	cbz	r2, 8003964 <HAL_RCC_OscConfig+0x138>
 8003936:	2201      	movs	r2, #1
 8003938:	601a      	str	r2, [r3, #0]
 800393a:	f7fe fc87 	bl	800224c <HAL_GetTick>
 800393e:	4d55      	ldr	r5, [pc, #340]	@ (8003a94 <HAL_RCC_OscConfig+0x268>)
 8003940:	4606      	mov	r6, r0
 8003942:	682b      	ldr	r3, [r5, #0]
 8003944:	079b      	lsls	r3, r3, #30
 8003946:	d507      	bpl.n	8003958 <HAL_RCC_OscConfig+0x12c>
 8003948:	682b      	ldr	r3, [r5, #0]
 800394a:	6922      	ldr	r2, [r4, #16]
 800394c:	f023 03f8 	bic.w	r3, r3, #248	@ 0xf8
 8003950:	ea43 03c2 	orr.w	r3, r3, r2, lsl #3
 8003954:	602b      	str	r3, [r5, #0]
 8003956:	e773      	b.n	8003840 <HAL_RCC_OscConfig+0x14>
 8003958:	f7fe fc78 	bl	800224c <HAL_GetTick>
 800395c:	1b80      	subs	r0, r0, r6
 800395e:	2802      	cmp	r0, #2
 8003960:	d9ef      	bls.n	8003942 <HAL_RCC_OscConfig+0x116>
 8003962:	e7a7      	b.n	80038b4 <HAL_RCC_OscConfig+0x88>
 8003964:	601a      	str	r2, [r3, #0]
 8003966:	f7fe fc71 	bl	800224c <HAL_GetTick>
 800396a:	4e4a      	ldr	r6, [pc, #296]	@ (8003a94 <HAL_RCC_OscConfig+0x268>)
 800396c:	4605      	mov	r5, r0
 800396e:	6833      	ldr	r3, [r6, #0]
 8003970:	079f      	lsls	r7, r3, #30
 8003972:	f57f af65 	bpl.w	8003840 <HAL_RCC_OscConfig+0x14>
 8003976:	f7fe fc69 	bl	800224c <HAL_GetTick>
 800397a:	1b40      	subs	r0, r0, r5
 800397c:	2802      	cmp	r0, #2
 800397e:	d9f6      	bls.n	800396e <HAL_RCC_OscConfig+0x142>
 8003980:	e798      	b.n	80038b4 <HAL_RCC_OscConfig+0x88>
 8003982:	6962      	ldr	r2, [r4, #20]
 8003984:	4b44      	ldr	r3, [pc, #272]	@ (8003a98 <HAL_RCC_OscConfig+0x26c>)
 8003986:	b182      	cbz	r2, 80039aa <HAL_RCC_OscConfig+0x17e>
 8003988:	2201      	movs	r2, #1
 800398a:	f8c3 2e80 	str.w	r2, [r3, #3712]	@ 0xe80
 800398e:	f7fe fc5d 	bl	800224c <HAL_GetTick>
 8003992:	4e40      	ldr	r6, [pc, #256]	@ (8003a94 <HAL_RCC_OscConfig+0x268>)
 8003994:	4605      	mov	r5, r0
 8003996:	6f73      	ldr	r3, [r6, #116]	@ 0x74
 8003998:	079b      	lsls	r3, r3, #30
 800399a:	f53f af55 	bmi.w	8003848 <HAL_RCC_OscConfig+0x1c>
 800399e:	f7fe fc55 	bl	800224c <HAL_GetTick>
 80039a2:	1b40      	subs	r0, r0, r5
 80039a4:	2802      	cmp	r0, #2
 80039a6:	d9f6      	bls.n	8003996 <HAL_RCC_OscConfig+0x16a>
 80039a8:	e784      	b.n	80038b4 <HAL_RCC_OscConfig+0x88>
 80039aa:	f8c3 2e80 	str.w	r2, [r3, #3712]	@ 0xe80
 80039ae:	f7fe fc4d 	bl	800224c <HAL_GetTick>
 80039b2:	4e38      	ldr	r6, [pc, #224]	@ (8003a94 <HAL_RCC_OscConfig+0x268>)
 80039b4:	4605      	mov	r5, r0
 80039b6:	6f73      	ldr	r3, [r6, #116]	@ 0x74
 80039b8:	079f      	lsls	r7, r3, #30
 80039ba:	f57f af45 	bpl.w	8003848 <HAL_RCC_OscConfig+0x1c>
 80039be:	f7fe fc45 	bl	800224c <HAL_GetTick>
 80039c2:	1b40      	subs	r0, r0, r5
 80039c4:	2802      	cmp	r0, #2
 80039c6:	d9f6      	bls.n	80039b6 <HAL_RCC_OscConfig+0x18a>
 80039c8:	e774      	b.n	80038b4 <HAL_RCC_OscConfig+0x88>
 80039ca:	4b32      	ldr	r3, [pc, #200]	@ (8003a94 <HAL_RCC_OscConfig+0x268>)
 80039cc:	6c1a      	ldr	r2, [r3, #64]	@ 0x40
 80039ce:	f012 5280 	ands.w	r2, r2, #268435456	@ 0x10000000
 80039d2:	d128      	bne.n	8003a26 <HAL_RCC_OscConfig+0x1fa>
 80039d4:	9201      	str	r2, [sp, #4]
 80039d6:	6c1a      	ldr	r2, [r3, #64]	@ 0x40
 80039d8:	f042 5280 	orr.w	r2, r2, #268435456	@ 0x10000000
 80039dc:	641a      	str	r2, [r3, #64]	@ 0x40
 80039de:	6c1b      	ldr	r3, [r3, #64]	@ 0x40
 80039e0:	f003 5380 	and.w	r3, r3, #268435456	@ 0x10000000
 80039e4:	9301      	str	r3, [sp, #4]
 80039e6:	9b01      	ldr	r3, [sp, #4]
 80039e8:	2701      	movs	r7, #1
 80039ea:	4d2c      	ldr	r5, [pc, #176]	@ (8003a9c <HAL_RCC_OscConfig+0x270>)
 80039ec:	682b      	ldr	r3, [r5, #0]
 80039ee:	05d8      	lsls	r0, r3, #23
 80039f0:	d51b      	bpl.n	8003a2a <HAL_RCC_OscConfig+0x1fe>
 80039f2:	68a3      	ldr	r3, [r4, #8]
 80039f4:	4d27      	ldr	r5, [pc, #156]	@ (8003a94 <HAL_RCC_OscConfig+0x268>)
 80039f6:	2b01      	cmp	r3, #1
 80039f8:	d127      	bne.n	8003a4a <HAL_RCC_OscConfig+0x21e>
 80039fa:	6f2b      	ldr	r3, [r5, #112]	@ 0x70
 80039fc:	f043 0301 	orr.w	r3, r3, #1
 8003a00:	672b      	str	r3, [r5, #112]	@ 0x70
 8003a02:	f7fe fc23 	bl	800224c <HAL_GetTick>
 8003a06:	4e23      	ldr	r6, [pc, #140]	@ (8003a94 <HAL_RCC_OscConfig+0x268>)
 8003a08:	4605      	mov	r5, r0
 8003a0a:	f241 3888 	movw	r8, #5000	@ 0x1388
 8003a0e:	6f33      	ldr	r3, [r6, #112]	@ 0x70
 8003a10:	079a      	lsls	r2, r3, #30
 8003a12:	d539      	bpl.n	8003a88 <HAL_RCC_OscConfig+0x25c>
 8003a14:	2f00      	cmp	r7, #0
 8003a16:	f43f af1b 	beq.w	8003850 <HAL_RCC_OscConfig+0x24>
 8003a1a:	4a1e      	ldr	r2, [pc, #120]	@ (8003a94 <HAL_RCC_OscConfig+0x268>)
 8003a1c:	6c13      	ldr	r3, [r2, #64]	@ 0x40
 8003a1e:	f023 5380 	bic.w	r3, r3, #268435456	@ 0x10000000
 8003a22:	6413      	str	r3, [r2, #64]	@ 0x40
 8003a24:	e714      	b.n	8003850 <HAL_RCC_OscConfig+0x24>
 8003a26:	2700      	movs	r7, #0
 8003a28:	e7df      	b.n	80039ea <HAL_RCC_OscConfig+0x1be>
 8003a2a:	682b      	ldr	r3, [r5, #0]
 8003a2c:	f443 7380 	orr.w	r3, r3, #256	@ 0x100
 8003a30:	602b      	str	r3, [r5, #0]
 8003a32:	f7fe fc0b 	bl	800224c <HAL_GetTick>
 8003a36:	4606      	mov	r6, r0
 8003a38:	682b      	ldr	r3, [r5, #0]
 8003a3a:	05d9      	lsls	r1, r3, #23
 8003a3c:	d4d9      	bmi.n	80039f2 <HAL_RCC_OscConfig+0x1c6>
 8003a3e:	f7fe fc05 	bl	800224c <HAL_GetTick>
 8003a42:	1b80      	subs	r0, r0, r6
 8003a44:	2802      	cmp	r0, #2
 8003a46:	d9f7      	bls.n	8003a38 <HAL_RCC_OscConfig+0x20c>
 8003a48:	e734      	b.n	80038b4 <HAL_RCC_OscConfig+0x88>
 8003a4a:	2b05      	cmp	r3, #5
 8003a4c:	d104      	bne.n	8003a58 <HAL_RCC_OscConfig+0x22c>
 8003a4e:	6f2b      	ldr	r3, [r5, #112]	@ 0x70
 8003a50:	f043 0304 	orr.w	r3, r3, #4
 8003a54:	672b      	str	r3, [r5, #112]	@ 0x70
 8003a56:	e7d0      	b.n	80039fa <HAL_RCC_OscConfig+0x1ce>
 8003a58:	6f2a      	ldr	r2, [r5, #112]	@ 0x70
 8003a5a:	f022 0201 	bic.w	r2, r2, #1
 8003a5e:	672a      	str	r2, [r5, #112]	@ 0x70
 8003a60:	6f2a      	ldr	r2, [r5, #112]	@ 0x70
 8003a62:	f022 0204 	bic.w	r2, r2, #4
 8003a66:	672a      	str	r2, [r5, #112]	@ 0x70
 8003a68:	2b00      	cmp	r3, #0
 8003a6a:	d1ca      	bne.n	8003a02 <HAL_RCC_OscConfig+0x1d6>
 8003a6c:	f7fe fbee 	bl	800224c <HAL_GetTick>
 8003a70:	f241 3888 	movw	r8, #5000	@ 0x1388
 8003a74:	4606      	mov	r6, r0
 8003a76:	6f2b      	ldr	r3, [r5, #112]	@ 0x70
 8003a78:	079b      	lsls	r3, r3, #30
 8003a7a:	d5cb      	bpl.n	8003a14 <HAL_RCC_OscConfig+0x1e8>
 8003a7c:	f7fe fbe6 	bl	800224c <HAL_GetTick>
 8003a80:	1b80      	subs	r0, r0, r6
 8003a82:	4540      	cmp	r0, r8
 8003a84:	d9f7      	bls.n	8003a76 <HAL_RCC_OscConfig+0x24a>
 8003a86:	e715      	b.n	80038b4 <HAL_RCC_OscConfig+0x88>
 8003a88:	f7fe fbe0 	bl	800224c <HAL_GetTick>
 8003a8c:	1b40      	subs	r0, r0, r5
 8003a8e:	4540      	cmp	r0, r8
 8003a90:	d9bd      	bls.n	8003a0e <HAL_RCC_OscConfig+0x1e2>
 8003a92:	e70f      	b.n	80038b4 <HAL_RCC_OscConfig+0x88>
 8003a94:	40023800 	.word	0x40023800
 8003a98:	42470000 	.word	0x42470000
 8003a9c:	40007000 	.word	0x40007000
 8003aa0:	4d37      	ldr	r5, [pc, #220]	@ (8003b80 <HAL_RCC_OscConfig+0x354>)
 8003aa2:	68aa      	ldr	r2, [r5, #8]
 8003aa4:	f002 020c 	and.w	r2, r2, #12
 8003aa8:	2a08      	cmp	r2, #8
 8003aaa:	d03e      	beq.n	8003b2a <HAL_RCC_OscConfig+0x2fe>
 8003aac:	2b02      	cmp	r3, #2
 8003aae:	4b35      	ldr	r3, [pc, #212]	@ (8003b84 <HAL_RCC_OscConfig+0x358>)
 8003ab0:	f04f 0200 	mov.w	r2, #0
 8003ab4:	661a      	str	r2, [r3, #96]	@ 0x60
 8003ab6:	d12b      	bne.n	8003b10 <HAL_RCC_OscConfig+0x2e4>
 8003ab8:	f7fe fbc8 	bl	800224c <HAL_GetTick>
 8003abc:	4606      	mov	r6, r0
 8003abe:	682b      	ldr	r3, [r5, #0]
 8003ac0:	0199      	lsls	r1, r3, #6
 8003ac2:	d41f      	bmi.n	8003b04 <HAL_RCC_OscConfig+0x2d8>
 8003ac4:	e9d4 3207 	ldrd	r3, r2, [r4, #28]
 8003ac8:	4313      	orrs	r3, r2
 8003aca:	6a62      	ldr	r2, [r4, #36]	@ 0x24
 8003acc:	ea43 1382 	orr.w	r3, r3, r2, lsl #6
 8003ad0:	6ae2      	ldr	r2, [r4, #44]	@ 0x2c
 8003ad2:	ea43 6302 	orr.w	r3, r3, r2, lsl #24
 8003ad6:	6aa2      	ldr	r2, [r4, #40]	@ 0x28
 8003ad8:	0852      	lsrs	r2, r2, #1
 8003ada:	3a01      	subs	r2, #1
 8003adc:	ea43 4302 	orr.w	r3, r3, r2, lsl #16
 8003ae0:	606b      	str	r3, [r5, #4]
 8003ae2:	4b28      	ldr	r3, [pc, #160]	@ (8003b84 <HAL_RCC_OscConfig+0x358>)
 8003ae4:	4d26      	ldr	r5, [pc, #152]	@ (8003b80 <HAL_RCC_OscConfig+0x354>)
 8003ae6:	2201      	movs	r2, #1
 8003ae8:	661a      	str	r2, [r3, #96]	@ 0x60
 8003aea:	f7fe fbaf 	bl	800224c <HAL_GetTick>
 8003aee:	4604      	mov	r4, r0
 8003af0:	682b      	ldr	r3, [r5, #0]
 8003af2:	019a      	lsls	r2, r3, #6
 8003af4:	f53f aeb0 	bmi.w	8003858 <HAL_RCC_OscConfig+0x2c>
 8003af8:	f7fe fba8 	bl	800224c <HAL_GetTick>
 8003afc:	1b00      	subs	r0, r0, r4
 8003afe:	2802      	cmp	r0, #2
 8003b00:	d9f6      	bls.n	8003af0 <HAL_RCC_OscConfig+0x2c4>
 8003b02:	e6d7      	b.n	80038b4 <HAL_RCC_OscConfig+0x88>
 8003b04:	f7fe fba2 	bl	800224c <HAL_GetTick>
 8003b08:	1b80      	subs	r0, r0, r6
 8003b0a:	2802      	cmp	r0, #2
 8003b0c:	d9d7      	bls.n	8003abe <HAL_RCC_OscConfig+0x292>
 8003b0e:	e6d1      	b.n	80038b4 <HAL_RCC_OscConfig+0x88>
 8003b10:	f7fe fb9c 	bl	800224c <HAL_GetTick>
 8003b14:	4604      	mov	r4, r0
 8003b16:	682b      	ldr	r3, [r5, #0]
 8003b18:	019b      	lsls	r3, r3, #6
 8003b1a:	f57f ae9d 	bpl.w	8003858 <HAL_RCC_OscConfig+0x2c>
 8003b1e:	f7fe fb95 	bl	800224c <HAL_GetTick>
 8003b22:	1b00      	subs	r0, r0, r4
 8003b24:	2802      	cmp	r0, #2
 8003b26:	d9f6      	bls.n	8003b16 <HAL_RCC_OscConfig+0x2ea>
 8003b28:	e6c4      	b.n	80038b4 <HAL_RCC_OscConfig+0x88>
 8003b2a:	2b01      	cmp	r3, #1
 8003b2c:	f43f aeab 	beq.w	8003886 <HAL_RCC_OscConfig+0x5a>
 8003b30:	686b      	ldr	r3, [r5, #4]
 8003b32:	69e2      	ldr	r2, [r4, #28]
 8003b34:	f403 0180 	and.w	r1, r3, #4194304	@ 0x400000
 8003b38:	4291      	cmp	r1, r2
 8003b3a:	f47f aea4 	bne.w	8003886 <HAL_RCC_OscConfig+0x5a>
 8003b3e:	6a21      	ldr	r1, [r4, #32]
 8003b40:	f003 023f 	and.w	r2, r3, #63	@ 0x3f
 8003b44:	428a      	cmp	r2, r1
 8003b46:	f47f ae9e 	bne.w	8003886 <HAL_RCC_OscConfig+0x5a>
 8003b4a:	6a61      	ldr	r1, [r4, #36]	@ 0x24
 8003b4c:	f647 72c0 	movw	r2, #32704	@ 0x7fc0
 8003b50:	401a      	ands	r2, r3
 8003b52:	ebb2 1f81 	cmp.w	r2, r1, lsl #6
 8003b56:	f47f ae96 	bne.w	8003886 <HAL_RCC_OscConfig+0x5a>
 8003b5a:	6aa2      	ldr	r2, [r4, #40]	@ 0x28
 8003b5c:	0852      	lsrs	r2, r2, #1
 8003b5e:	f403 3140 	and.w	r1, r3, #196608	@ 0x30000
 8003b62:	3a01      	subs	r2, #1
 8003b64:	ebb1 4f02 	cmp.w	r1, r2, lsl #16
 8003b68:	f47f ae8d 	bne.w	8003886 <HAL_RCC_OscConfig+0x5a>
 8003b6c:	6ae2      	ldr	r2, [r4, #44]	@ 0x2c
 8003b6e:	f003 6370 	and.w	r3, r3, #251658240	@ 0xf000000
 8003b72:	ebb3 6f02 	cmp.w	r3, r2, lsl #24
 8003b76:	bf14      	ite	ne
 8003b78:	2001      	movne	r0, #1
 8003b7a:	2000      	moveq	r0, #0
 8003b7c:	e69b      	b.n	80038b6 <HAL_RCC_OscConfig+0x8a>
 8003b7e:	bf00      	nop
 8003b80:	40023800 	.word	0x40023800
 8003b84:	42470000 	.word	0x42470000

08003b88 <HAL_RCC_GetSysClockFreq>:
 8003b88:	4913      	ldr	r1, [pc, #76]	@ (8003bd8 <HAL_RCC_GetSysClockFreq+0x50>)
 8003b8a:	b508      	push	{r3, lr}
 8003b8c:	688b      	ldr	r3, [r1, #8]
 8003b8e:	f003 030c 	and.w	r3, r3, #12
 8003b92:	2b04      	cmp	r3, #4
 8003b94:	d01c      	beq.n	8003bd0 <HAL_RCC_GetSysClockFreq+0x48>
 8003b96:	2b08      	cmp	r3, #8
 8003b98:	d11c      	bne.n	8003bd4 <HAL_RCC_GetSysClockFreq+0x4c>
 8003b9a:	684a      	ldr	r2, [r1, #4]
 8003b9c:	684b      	ldr	r3, [r1, #4]
 8003b9e:	6849      	ldr	r1, [r1, #4]
 8003ba0:	f413 0380 	ands.w	r3, r3, #4194304	@ 0x400000
 8003ba4:	bf14      	ite	ne
 8003ba6:	480d      	ldrne	r0, [pc, #52]	@ (8003bdc <HAL_RCC_GetSysClockFreq+0x54>)
 8003ba8:	480d      	ldreq	r0, [pc, #52]	@ (8003be0 <HAL_RCC_GetSysClockFreq+0x58>)
 8003baa:	f3c1 1188 	ubfx	r1, r1, #6, #9
 8003bae:	bf18      	it	ne
 8003bb0:	2300      	movne	r3, #0
 8003bb2:	f002 023f 	and.w	r2, r2, #63	@ 0x3f
 8003bb6:	fba1 0100 	umull	r0, r1, r1, r0
 8003bba:	f7fc fb1f 	bl	80001fc <__aeabi_uldivmod>
 8003bbe:	4b06      	ldr	r3, [pc, #24]	@ (8003bd8 <HAL_RCC_GetSysClockFreq+0x50>)
 8003bc0:	685b      	ldr	r3, [r3, #4]
 8003bc2:	f3c3 4301 	ubfx	r3, r3, #16, #2
 8003bc6:	3301      	adds	r3, #1
 8003bc8:	005b      	lsls	r3, r3, #1
 8003bca:	fbb0 f0f3 	udiv	r0, r0, r3
 8003bce:	bd08      	pop	{r3, pc}
 8003bd0:	4802      	ldr	r0, [pc, #8]	@ (8003bdc <HAL_RCC_GetSysClockFreq+0x54>)
 8003bd2:	e7fc      	b.n	8003bce <HAL_RCC_GetSysClockFreq+0x46>
 8003bd4:	4802      	ldr	r0, [pc, #8]	@ (8003be0 <HAL_RCC_GetSysClockFreq+0x58>)
 8003bd6:	e7fa      	b.n	8003bce <HAL_RCC_GetSysClockFreq+0x46>
 8003bd8:	40023800 	.word	0x40023800
 8003bdc:	017d7840 	.word	0x017d7840
 8003be0:	00f42400 	.word	0x00f42400

08003be4 <HAL_RCC_ClockConfig>:
 8003be4:	e92d 41f0 	stmdb	sp!, {r4, r5, r6, r7, r8, lr}
 8003be8:	460d      	mov	r5, r1
 8003bea:	4604      	mov	r4, r0
 8003bec:	b910      	cbnz	r0, 8003bf4 <HAL_RCC_ClockConfig+0x10>
 8003bee:	2001      	movs	r0, #1
 8003bf0:	e8bd 81f0 	ldmia.w	sp!, {r4, r5, r6, r7, r8, pc}
 8003bf4:	4b43      	ldr	r3, [pc, #268]	@ (8003d04 <HAL_RCC_ClockConfig+0x120>)
 8003bf6:	681a      	ldr	r2, [r3, #0]
 8003bf8:	f002 020f 	and.w	r2, r2, #15
 8003bfc:	428a      	cmp	r2, r1
 8003bfe:	d328      	bcc.n	8003c52 <HAL_RCC_ClockConfig+0x6e>
 8003c00:	6821      	ldr	r1, [r4, #0]
 8003c02:	078f      	lsls	r7, r1, #30
 8003c04:	d42d      	bmi.n	8003c62 <HAL_RCC_ClockConfig+0x7e>
 8003c06:	07c8      	lsls	r0, r1, #31
 8003c08:	d440      	bmi.n	8003c8c <HAL_RCC_ClockConfig+0xa8>
 8003c0a:	4b3e      	ldr	r3, [pc, #248]	@ (8003d04 <HAL_RCC_ClockConfig+0x120>)
 8003c0c:	681a      	ldr	r2, [r3, #0]
 8003c0e:	f002 020f 	and.w	r2, r2, #15
 8003c12:	42aa      	cmp	r2, r5
 8003c14:	d865      	bhi.n	8003ce2 <HAL_RCC_ClockConfig+0xfe>
 8003c16:	6822      	ldr	r2, [r4, #0]
 8003c18:	0751      	lsls	r1, r2, #29
 8003c1a:	d46b      	bmi.n	8003cf4 <HAL_RCC_ClockConfig+0x110>
 8003c1c:	0713      	lsls	r3, r2, #28
 8003c1e:	d507      	bpl.n	8003c30 <HAL_RCC_ClockConfig+0x4c>
 8003c20:	4a39      	ldr	r2, [pc, #228]	@ (8003d08 <HAL_RCC_ClockConfig+0x124>)
 8003c22:	6921      	ldr	r1, [r4, #16]
 8003c24:	6893      	ldr	r3, [r2, #8]
 8003c26:	f423 4360 	bic.w	r3, r3, #57344	@ 0xe000
 8003c2a:	ea43 03c1 	orr.w	r3, r3, r1, lsl #3
 8003c2e:	6093      	str	r3, [r2, #8]
 8003c30:	f7ff ffaa 	bl	8003b88 <HAL_RCC_GetSysClockFreq>
 8003c34:	4b34      	ldr	r3, [pc, #208]	@ (8003d08 <HAL_RCC_ClockConfig+0x124>)
 8003c36:	4a35      	ldr	r2, [pc, #212]	@ (8003d0c <HAL_RCC_ClockConfig+0x128>)
 8003c38:	689b      	ldr	r3, [r3, #8]
 8003c3a:	f3c3 1303 	ubfx	r3, r3, #4, #4
 8003c3e:	5cd3      	ldrb	r3, [r2, r3]
 8003c40:	40d8      	lsrs	r0, r3
 8003c42:	4b33      	ldr	r3, [pc, #204]	@ (8003d10 <HAL_RCC_ClockConfig+0x12c>)
 8003c44:	6018      	str	r0, [r3, #0]
 8003c46:	4b33      	ldr	r3, [pc, #204]	@ (8003d14 <HAL_RCC_ClockConfig+0x130>)
 8003c48:	6818      	ldr	r0, [r3, #0]
 8003c4a:	f7fe fab5 	bl	80021b8 <HAL_InitTick>
 8003c4e:	2000      	movs	r0, #0
 8003c50:	e7ce      	b.n	8003bf0 <HAL_RCC_ClockConfig+0xc>
 8003c52:	b2ca      	uxtb	r2, r1
 8003c54:	701a      	strb	r2, [r3, #0]
 8003c56:	681b      	ldr	r3, [r3, #0]
 8003c58:	f003 030f 	and.w	r3, r3, #15
 8003c5c:	428b      	cmp	r3, r1
 8003c5e:	d1c6      	bne.n	8003bee <HAL_RCC_ClockConfig+0xa>
 8003c60:	e7ce      	b.n	8003c00 <HAL_RCC_ClockConfig+0x1c>
 8003c62:	4b29      	ldr	r3, [pc, #164]	@ (8003d08 <HAL_RCC_ClockConfig+0x124>)
 8003c64:	f011 0f04 	tst.w	r1, #4
 8003c68:	bf1e      	ittt	ne
 8003c6a:	689a      	ldrne	r2, [r3, #8]
 8003c6c:	f442 52e0 	orrne.w	r2, r2, #7168	@ 0x1c00
 8003c70:	609a      	strne	r2, [r3, #8]
 8003c72:	070e      	lsls	r6, r1, #28
 8003c74:	bf42      	ittt	mi
 8003c76:	689a      	ldrmi	r2, [r3, #8]
 8003c78:	f442 4260 	orrmi.w	r2, r2, #57344	@ 0xe000
 8003c7c:	609a      	strmi	r2, [r3, #8]
 8003c7e:	689a      	ldr	r2, [r3, #8]
 8003c80:	68a0      	ldr	r0, [r4, #8]
 8003c82:	f022 02f0 	bic.w	r2, r2, #240	@ 0xf0
 8003c86:	4302      	orrs	r2, r0
 8003c88:	609a      	str	r2, [r3, #8]
 8003c8a:	e7bc      	b.n	8003c06 <HAL_RCC_ClockConfig+0x22>
 8003c8c:	6862      	ldr	r2, [r4, #4]
 8003c8e:	4b1e      	ldr	r3, [pc, #120]	@ (8003d08 <HAL_RCC_ClockConfig+0x124>)
 8003c90:	2a01      	cmp	r2, #1
 8003c92:	d11c      	bne.n	8003cce <HAL_RCC_ClockConfig+0xea>
 8003c94:	681b      	ldr	r3, [r3, #0]
 8003c96:	f413 3f00 	tst.w	r3, #131072	@ 0x20000
 8003c9a:	d0a8      	beq.n	8003bee <HAL_RCC_ClockConfig+0xa>
 8003c9c:	4e1a      	ldr	r6, [pc, #104]	@ (8003d08 <HAL_RCC_ClockConfig+0x124>)
 8003c9e:	68b3      	ldr	r3, [r6, #8]
 8003ca0:	f023 0303 	bic.w	r3, r3, #3
 8003ca4:	4313      	orrs	r3, r2
 8003ca6:	60b3      	str	r3, [r6, #8]
 8003ca8:	f7fe fad0 	bl	800224c <HAL_GetTick>
 8003cac:	f241 3888 	movw	r8, #5000	@ 0x1388
 8003cb0:	4607      	mov	r7, r0
 8003cb2:	68b3      	ldr	r3, [r6, #8]
 8003cb4:	6862      	ldr	r2, [r4, #4]
 8003cb6:	f003 030c 	and.w	r3, r3, #12
 8003cba:	ebb3 0f82 	cmp.w	r3, r2, lsl #2
 8003cbe:	d0a4      	beq.n	8003c0a <HAL_RCC_ClockConfig+0x26>
 8003cc0:	f7fe fac4 	bl	800224c <HAL_GetTick>
 8003cc4:	1bc0      	subs	r0, r0, r7
 8003cc6:	4540      	cmp	r0, r8
 8003cc8:	d9f3      	bls.n	8003cb2 <HAL_RCC_ClockConfig+0xce>
 8003cca:	2003      	movs	r0, #3
 8003ccc:	e790      	b.n	8003bf0 <HAL_RCC_ClockConfig+0xc>
 8003cce:	1e91      	subs	r1, r2, #2
 8003cd0:	2901      	cmp	r1, #1
 8003cd2:	681b      	ldr	r3, [r3, #0]
 8003cd4:	d802      	bhi.n	8003cdc <HAL_RCC_ClockConfig+0xf8>
 8003cd6:	f013 7f00 	tst.w	r3, #33554432	@ 0x2000000
 8003cda:	e7de      	b.n	8003c9a <HAL_RCC_ClockConfig+0xb6>
 8003cdc:	f013 0f02 	tst.w	r3, #2
 8003ce0:	e7db      	b.n	8003c9a <HAL_RCC_ClockConfig+0xb6>
 8003ce2:	b2ea      	uxtb	r2, r5
 8003ce4:	701a      	strb	r2, [r3, #0]
 8003ce6:	681b      	ldr	r3, [r3, #0]
 8003ce8:	f003 030f 	and.w	r3, r3, #15
 8003cec:	42ab      	cmp	r3, r5
 8003cee:	f47f af7e 	bne.w	8003bee <HAL_RCC_ClockConfig+0xa>
 8003cf2:	e790      	b.n	8003c16 <HAL_RCC_ClockConfig+0x32>
 8003cf4:	4904      	ldr	r1, [pc, #16]	@ (8003d08 <HAL_RCC_ClockConfig+0x124>)
 8003cf6:	68e0      	ldr	r0, [r4, #12]
 8003cf8:	688b      	ldr	r3, [r1, #8]
 8003cfa:	f423 53e0 	bic.w	r3, r3, #7168	@ 0x1c00
 8003cfe:	4303      	orrs	r3, r0
 8003d00:	608b      	str	r3, [r1, #8]
 8003d02:	e78b      	b.n	8003c1c <HAL_RCC_ClockConfig+0x38>
 8003d04:	40023c00 	.word	0x40023c00
 8003d08:	40023800 	.word	0x40023800
 8003d0c:	08005593 	.word	0x08005593
 8003d10:	2000001c 	.word	0x2000001c
 8003d14:	20000024 	.word	0x20000024

08003d18 <HAL_RCC_GetPCLK1Freq>:
 8003d18:	4b04      	ldr	r3, [pc, #16]	@ (8003d2c <HAL_RCC_GetPCLK1Freq+0x14>)
 8003d1a:	4a05      	ldr	r2, [pc, #20]	@ (8003d30 <HAL_RCC_GetPCLK1Freq+0x18>)
 8003d1c:	689b      	ldr	r3, [r3, #8]
 8003d1e:	f3c3 2382 	ubfx	r3, r3, #10, #3
 8003d22:	5cd3      	ldrb	r3, [r2, r3]
 8003d24:	4a03      	ldr	r2, [pc, #12]	@ (8003d34 <HAL_RCC_GetPCLK1Freq+0x1c>)
 8003d26:	6810      	ldr	r0, [r2, #0]
 8003d28:	40d8      	lsrs	r0, r3
 8003d2a:	4770      	bx	lr
 8003d2c:	40023800 	.word	0x40023800
 8003d30:	0800558b 	.word	0x0800558b
 8003d34:	2000001c 	.word	0x2000001c

08003d38 <HAL_RCC_GetPCLK2Freq>:
 8003d38:	4b04      	ldr	r3, [pc, #16]	@ (8003d4c <HAL_RCC_GetPCLK2Freq+0x14>)
 8003d3a:	4a05      	ldr	r2, [pc, #20]	@ (8003d50 <HAL_RCC_GetPCLK2Freq+0x18>)
 8003d3c:	689b      	ldr	r3, [r3, #8]
 8003d3e:	f3c3 3342 	ubfx	r3, r3, #13, #3
 8003d42:	5cd3      	ldrb	r3, [r2, r3]
 8003d44:	4a03      	ldr	r2, [pc, #12]	@ (8003d54 <HAL_RCC_GetPCLK2Freq+0x1c>)
 8003d46:	6810      	ldr	r0, [r2, #0]
 8003d48:	40d8      	lsrs	r0, r3
 8003d4a:	4770      	bx	lr
 8003d4c:	40023800 	.word	0x40023800
 8003d50:	0800558b 	.word	0x0800558b
 8003d54:	2000001c 	.word	0x2000001c

08003d58 <HAL_RCCEx_PeriphCLKConfig>:
 8003d58:	6803      	ldr	r3, [r0, #0]
 8003d5a:	f013 0f43 	tst.w	r3, #67	@ 0x43
 8003d5e:	b5f7      	push	{r0, r1, r2, r4, r5, r6, r7, lr}
 8003d60:	4604      	mov	r4, r0
 8003d62:	f040 8088 	bne.w	8003e76 <HAL_RCCEx_PeriphCLKConfig+0x11e>
 8003d66:	6823      	ldr	r3, [r4, #0]
 8003d68:	f013 0f0c 	tst.w	r3, #12
 8003d6c:	d045      	beq.n	8003dfa <HAL_RCCEx_PeriphCLKConfig+0xa2>
 8003d6e:	4b8c      	ldr	r3, [pc, #560]	@ (8003fa0 <HAL_RCCEx_PeriphCLKConfig+0x248>)
 8003d70:	4d8c      	ldr	r5, [pc, #560]	@ (8003fa4 <HAL_RCCEx_PeriphCLKConfig+0x24c>)
 8003d72:	2200      	movs	r2, #0
 8003d74:	671a      	str	r2, [r3, #112]	@ 0x70
 8003d76:	f7fe fa69 	bl	800224c <HAL_GetTick>
 8003d7a:	4606      	mov	r6, r0
 8003d7c:	682b      	ldr	r3, [r5, #0]
 8003d7e:	0099      	lsls	r1, r3, #2
 8003d80:	f100 80cb 	bmi.w	8003f1a <HAL_RCCEx_PeriphCLKConfig+0x1c2>
 8003d84:	6821      	ldr	r1, [r4, #0]
 8003d86:	074a      	lsls	r2, r1, #29
 8003d88:	d515      	bpl.n	8003db6 <HAL_RCCEx_PeriphCLKConfig+0x5e>
 8003d8a:	e9d4 0304 	ldrd	r0, r3, [r4, #16]
 8003d8e:	f8d5 2088 	ldr.w	r2, [r5, #136]	@ 0x88
 8003d92:	061b      	lsls	r3, r3, #24
 8003d94:	f002 42e0 	and.w	r2, r2, #1879048192	@ 0x70000000
 8003d98:	ea43 1380 	orr.w	r3, r3, r0, lsl #6
 8003d9c:	4313      	orrs	r3, r2
 8003d9e:	f8c5 3088 	str.w	r3, [r5, #136]	@ 0x88
 8003da2:	f8d5 308c 	ldr.w	r3, [r5, #140]	@ 0x8c
 8003da6:	6a22      	ldr	r2, [r4, #32]
 8003da8:	f423 53f8 	bic.w	r3, r3, #7936	@ 0x1f00
 8003dac:	3a01      	subs	r2, #1
 8003dae:	ea43 2302 	orr.w	r3, r3, r2, lsl #8
 8003db2:	f8c5 308c 	str.w	r3, [r5, #140]	@ 0x8c
 8003db6:	070b      	lsls	r3, r1, #28
 8003db8:	d514      	bpl.n	8003de4 <HAL_RCCEx_PeriphCLKConfig+0x8c>
 8003dba:	4a7a      	ldr	r2, [pc, #488]	@ (8003fa4 <HAL_RCCEx_PeriphCLKConfig+0x24c>)
 8003dbc:	69a3      	ldr	r3, [r4, #24]
 8003dbe:	f8d2 1088 	ldr.w	r1, [r2, #136]	@ 0x88
 8003dc2:	6920      	ldr	r0, [r4, #16]
 8003dc4:	071b      	lsls	r3, r3, #28
 8003dc6:	f001 6170 	and.w	r1, r1, #251658240	@ 0xf000000
 8003dca:	ea43 1380 	orr.w	r3, r3, r0, lsl #6
 8003dce:	430b      	orrs	r3, r1
 8003dd0:	f8c2 3088 	str.w	r3, [r2, #136]	@ 0x88
 8003dd4:	f8d2 308c 	ldr.w	r3, [r2, #140]	@ 0x8c
 8003dd8:	6a61      	ldr	r1, [r4, #36]	@ 0x24
 8003dda:	f423 3340 	bic.w	r3, r3, #196608	@ 0x30000
 8003dde:	430b      	orrs	r3, r1
 8003de0:	f8c2 308c 	str.w	r3, [r2, #140]	@ 0x8c
 8003de4:	4b6e      	ldr	r3, [pc, #440]	@ (8003fa0 <HAL_RCCEx_PeriphCLKConfig+0x248>)
 8003de6:	4e6f      	ldr	r6, [pc, #444]	@ (8003fa4 <HAL_RCCEx_PeriphCLKConfig+0x24c>)
 8003de8:	2201      	movs	r2, #1
 8003dea:	671a      	str	r2, [r3, #112]	@ 0x70
 8003dec:	f7fe fa2e 	bl	800224c <HAL_GetTick>
 8003df0:	4605      	mov	r5, r0
 8003df2:	6833      	ldr	r3, [r6, #0]
 8003df4:	009f      	lsls	r7, r3, #2
 8003df6:	f140 8097 	bpl.w	8003f28 <HAL_RCCEx_PeriphCLKConfig+0x1d0>
 8003dfa:	6823      	ldr	r3, [r4, #0]
 8003dfc:	0698      	lsls	r0, r3, #26
 8003dfe:	d534      	bpl.n	8003e6a <HAL_RCCEx_PeriphCLKConfig+0x112>
 8003e00:	2300      	movs	r3, #0
 8003e02:	9301      	str	r3, [sp, #4]
 8003e04:	4b67      	ldr	r3, [pc, #412]	@ (8003fa4 <HAL_RCCEx_PeriphCLKConfig+0x24c>)
 8003e06:	4d68      	ldr	r5, [pc, #416]	@ (8003fa8 <HAL_RCCEx_PeriphCLKConfig+0x250>)
 8003e08:	6c1a      	ldr	r2, [r3, #64]	@ 0x40
 8003e0a:	f042 5280 	orr.w	r2, r2, #268435456	@ 0x10000000
 8003e0e:	641a      	str	r2, [r3, #64]	@ 0x40
 8003e10:	6c1b      	ldr	r3, [r3, #64]	@ 0x40
 8003e12:	f003 5380 	and.w	r3, r3, #268435456	@ 0x10000000
 8003e16:	9301      	str	r3, [sp, #4]
 8003e18:	9b01      	ldr	r3, [sp, #4]
 8003e1a:	682b      	ldr	r3, [r5, #0]
 8003e1c:	f443 7380 	orr.w	r3, r3, #256	@ 0x100
 8003e20:	602b      	str	r3, [r5, #0]
 8003e22:	f7fe fa13 	bl	800224c <HAL_GetTick>
 8003e26:	4606      	mov	r6, r0
 8003e28:	682b      	ldr	r3, [r5, #0]
 8003e2a:	05d8      	lsls	r0, r3, #23
 8003e2c:	f140 8083 	bpl.w	8003f36 <HAL_RCCEx_PeriphCLKConfig+0x1de>
 8003e30:	4d5c      	ldr	r5, [pc, #368]	@ (8003fa4 <HAL_RCCEx_PeriphCLKConfig+0x24c>)
 8003e32:	6aa2      	ldr	r2, [r4, #40]	@ 0x28
 8003e34:	6f2b      	ldr	r3, [r5, #112]	@ 0x70
 8003e36:	f413 7340 	ands.w	r3, r3, #768	@ 0x300
 8003e3a:	f040 8083 	bne.w	8003f44 <HAL_RCCEx_PeriphCLKConfig+0x1ec>
 8003e3e:	6aa3      	ldr	r3, [r4, #40]	@ 0x28
 8003e40:	f403 7240 	and.w	r2, r3, #768	@ 0x300
 8003e44:	f5b2 7f40 	cmp.w	r2, #768	@ 0x300
 8003e48:	4a56      	ldr	r2, [pc, #344]	@ (8003fa4 <HAL_RCCEx_PeriphCLKConfig+0x24c>)
 8003e4a:	f040 809e 	bne.w	8003f8a <HAL_RCCEx_PeriphCLKConfig+0x232>
 8003e4e:	6891      	ldr	r1, [r2, #8]
 8003e50:	f023 4070 	bic.w	r0, r3, #4026531840	@ 0xf0000000
 8003e54:	f421 11f8 	bic.w	r1, r1, #2031616	@ 0x1f0000
 8003e58:	f420 7040 	bic.w	r0, r0, #768	@ 0x300
 8003e5c:	4301      	orrs	r1, r0
 8003e5e:	6091      	str	r1, [r2, #8]
 8003e60:	6f11      	ldr	r1, [r2, #112]	@ 0x70
 8003e62:	f3c3 030b 	ubfx	r3, r3, #0, #12
 8003e66:	430b      	orrs	r3, r1
 8003e68:	6713      	str	r3, [r2, #112]	@ 0x70
 8003e6a:	6823      	ldr	r3, [r4, #0]
 8003e6c:	06db      	lsls	r3, r3, #27
 8003e6e:	f100 8090 	bmi.w	8003f92 <HAL_RCCEx_PeriphCLKConfig+0x23a>
 8003e72:	2000      	movs	r0, #0
 8003e74:	e04f      	b.n	8003f16 <HAL_RCCEx_PeriphCLKConfig+0x1be>
 8003e76:	4b4a      	ldr	r3, [pc, #296]	@ (8003fa0 <HAL_RCCEx_PeriphCLKConfig+0x248>)
 8003e78:	4e4a      	ldr	r6, [pc, #296]	@ (8003fa4 <HAL_RCCEx_PeriphCLKConfig+0x24c>)
 8003e7a:	2200      	movs	r2, #0
 8003e7c:	669a      	str	r2, [r3, #104]	@ 0x68
 8003e7e:	f7fe f9e5 	bl	800224c <HAL_GetTick>
 8003e82:	4605      	mov	r5, r0
 8003e84:	6833      	ldr	r3, [r6, #0]
 8003e86:	011f      	lsls	r7, r3, #4
 8003e88:	d43f      	bmi.n	8003f0a <HAL_RCCEx_PeriphCLKConfig+0x1b2>
 8003e8a:	6821      	ldr	r1, [r4, #0]
 8003e8c:	07c8      	lsls	r0, r1, #31
 8003e8e:	bf41      	itttt	mi
 8003e90:	e9d4 2301 	ldrdmi	r2, r3, [r4, #4]
 8003e94:	071b      	lslmi	r3, r3, #28
 8003e96:	ea43 1382 	orrmi.w	r3, r3, r2, lsl #6
 8003e9a:	f8c6 3084 	strmi.w	r3, [r6, #132]	@ 0x84
 8003e9e:	078a      	lsls	r2, r1, #30
 8003ea0:	d515      	bpl.n	8003ece <HAL_RCCEx_PeriphCLKConfig+0x176>
 8003ea2:	4a40      	ldr	r2, [pc, #256]	@ (8003fa4 <HAL_RCCEx_PeriphCLKConfig+0x24c>)
 8003ea4:	68e3      	ldr	r3, [r4, #12]
 8003ea6:	f8d2 0084 	ldr.w	r0, [r2, #132]	@ 0x84
 8003eaa:	6865      	ldr	r5, [r4, #4]
 8003eac:	061b      	lsls	r3, r3, #24
 8003eae:	f000 40e0 	and.w	r0, r0, #1879048192	@ 0x70000000
 8003eb2:	ea43 1385 	orr.w	r3, r3, r5, lsl #6
 8003eb6:	4303      	orrs	r3, r0
 8003eb8:	f8c2 3084 	str.w	r3, [r2, #132]	@ 0x84
 8003ebc:	f8d2 008c 	ldr.w	r0, [r2, #140]	@ 0x8c
 8003ec0:	69e3      	ldr	r3, [r4, #28]
 8003ec2:	f020 001f 	bic.w	r0, r0, #31
 8003ec6:	3b01      	subs	r3, #1
 8003ec8:	4303      	orrs	r3, r0
 8003eca:	f8c2 308c 	str.w	r3, [r2, #140]	@ 0x8c
 8003ece:	064b      	lsls	r3, r1, #25
 8003ed0:	d50a      	bpl.n	8003ee8 <HAL_RCCEx_PeriphCLKConfig+0x190>
 8003ed2:	68e3      	ldr	r3, [r4, #12]
 8003ed4:	6862      	ldr	r2, [r4, #4]
 8003ed6:	061b      	lsls	r3, r3, #24
 8003ed8:	ea43 1382 	orr.w	r3, r3, r2, lsl #6
 8003edc:	68a2      	ldr	r2, [r4, #8]
 8003ede:	ea43 7302 	orr.w	r3, r3, r2, lsl #28
 8003ee2:	4a30      	ldr	r2, [pc, #192]	@ (8003fa4 <HAL_RCCEx_PeriphCLKConfig+0x24c>)
 8003ee4:	f8c2 3084 	str.w	r3, [r2, #132]	@ 0x84
 8003ee8:	4b2d      	ldr	r3, [pc, #180]	@ (8003fa0 <HAL_RCCEx_PeriphCLKConfig+0x248>)
 8003eea:	4e2e      	ldr	r6, [pc, #184]	@ (8003fa4 <HAL_RCCEx_PeriphCLKConfig+0x24c>)
 8003eec:	2201      	movs	r2, #1
 8003eee:	669a      	str	r2, [r3, #104]	@ 0x68
 8003ef0:	f7fe f9ac 	bl	800224c <HAL_GetTick>
 8003ef4:	4605      	mov	r5, r0
 8003ef6:	6833      	ldr	r3, [r6, #0]
 8003ef8:	011f      	lsls	r7, r3, #4
 8003efa:	f53f af34 	bmi.w	8003d66 <HAL_RCCEx_PeriphCLKConfig+0xe>
 8003efe:	f7fe f9a5 	bl	800224c <HAL_GetTick>
 8003f02:	1b40      	subs	r0, r0, r5
 8003f04:	2802      	cmp	r0, #2
 8003f06:	d9f6      	bls.n	8003ef6 <HAL_RCCEx_PeriphCLKConfig+0x19e>
 8003f08:	e004      	b.n	8003f14 <HAL_RCCEx_PeriphCLKConfig+0x1bc>
 8003f0a:	f7fe f99f 	bl	800224c <HAL_GetTick>
 8003f0e:	1b40      	subs	r0, r0, r5
 8003f10:	2802      	cmp	r0, #2
 8003f12:	d9b7      	bls.n	8003e84 <HAL_RCCEx_PeriphCLKConfig+0x12c>
 8003f14:	2003      	movs	r0, #3
 8003f16:	b003      	add	sp, #12
 8003f18:	bdf0      	pop	{r4, r5, r6, r7, pc}
 8003f1a:	f7fe f997 	bl	800224c <HAL_GetTick>
 8003f1e:	1b80      	subs	r0, r0, r6
 8003f20:	2802      	cmp	r0, #2
 8003f22:	f67f af2b 	bls.w	8003d7c <HAL_RCCEx_PeriphCLKConfig+0x24>
 8003f26:	e7f5      	b.n	8003f14 <HAL_RCCEx_PeriphCLKConfig+0x1bc>
 8003f28:	f7fe f990 	bl	800224c <HAL_GetTick>
 8003f2c:	1b40      	subs	r0, r0, r5
 8003f2e:	2802      	cmp	r0, #2
 8003f30:	f67f af5f 	bls.w	8003df2 <HAL_RCCEx_PeriphCLKConfig+0x9a>
 8003f34:	e7ee      	b.n	8003f14 <HAL_RCCEx_PeriphCLKConfig+0x1bc>
 8003f36:	f7fe f989 	bl	800224c <HAL_GetTick>
 8003f3a:	1b80      	subs	r0, r0, r6
 8003f3c:	2802      	cmp	r0, #2
 8003f3e:	f67f af73 	bls.w	8003e28 <HAL_RCCEx_PeriphCLKConfig+0xd0>
 8003f42:	e7e7      	b.n	8003f14 <HAL_RCCEx_PeriphCLKConfig+0x1bc>
 8003f44:	f402 7240 	and.w	r2, r2, #768	@ 0x300
 8003f48:	4293      	cmp	r3, r2
 8003f4a:	f43f af78 	beq.w	8003e3e <HAL_RCCEx_PeriphCLKConfig+0xe6>
 8003f4e:	6f2b      	ldr	r3, [r5, #112]	@ 0x70
 8003f50:	4a13      	ldr	r2, [pc, #76]	@ (8003fa0 <HAL_RCCEx_PeriphCLKConfig+0x248>)
 8003f52:	2101      	movs	r1, #1
 8003f54:	f8c2 1e40 	str.w	r1, [r2, #3648]	@ 0xe40
 8003f58:	f423 7340 	bic.w	r3, r3, #768	@ 0x300
 8003f5c:	2100      	movs	r1, #0
 8003f5e:	f8c2 1e40 	str.w	r1, [r2, #3648]	@ 0xe40
 8003f62:	672b      	str	r3, [r5, #112]	@ 0x70
 8003f64:	6f2b      	ldr	r3, [r5, #112]	@ 0x70
 8003f66:	07d9      	lsls	r1, r3, #31
 8003f68:	f57f af69 	bpl.w	8003e3e <HAL_RCCEx_PeriphCLKConfig+0xe6>
 8003f6c:	f7fe f96e 	bl	800224c <HAL_GetTick>
 8003f70:	f241 3788 	movw	r7, #5000	@ 0x1388
 8003f74:	4606      	mov	r6, r0
 8003f76:	6f2b      	ldr	r3, [r5, #112]	@ 0x70
 8003f78:	079a      	lsls	r2, r3, #30
 8003f7a:	f53f af60 	bmi.w	8003e3e <HAL_RCCEx_PeriphCLKConfig+0xe6>
 8003f7e:	f7fe f965 	bl	800224c <HAL_GetTick>
 8003f82:	1b80      	subs	r0, r0, r6
 8003f84:	42b8      	cmp	r0, r7
 8003f86:	d9f6      	bls.n	8003f76 <HAL_RCCEx_PeriphCLKConfig+0x21e>
 8003f88:	e7c4      	b.n	8003f14 <HAL_RCCEx_PeriphCLKConfig+0x1bc>
 8003f8a:	6891      	ldr	r1, [r2, #8]
 8003f8c:	f421 11f8 	bic.w	r1, r1, #2031616	@ 0x1f0000
 8003f90:	e765      	b.n	8003e5e <HAL_RCCEx_PeriphCLKConfig+0x106>
 8003f92:	4b06      	ldr	r3, [pc, #24]	@ (8003fac <HAL_RCCEx_PeriphCLKConfig+0x254>)
 8003f94:	f894 202c 	ldrb.w	r2, [r4, #44]	@ 0x2c
 8003f98:	f8c3 21e0 	str.w	r2, [r3, #480]	@ 0x1e0
 8003f9c:	e769      	b.n	8003e72 <HAL_RCCEx_PeriphCLKConfig+0x11a>
 8003f9e:	bf00      	nop
 8003fa0:	42470000 	.word	0x42470000
 8003fa4:	40023800 	.word	0x40023800
 8003fa8:	40007000 	.word	0x40007000
 8003fac:	42471000 	.word	0x42471000

08003fb0 <HAL_RTC_WaitForSynchro>:
 8003fb0:	b538      	push	{r3, r4, r5, lr}
 8003fb2:	6803      	ldr	r3, [r0, #0]
 8003fb4:	4a09      	ldr	r2, [pc, #36]	@ (8003fdc <HAL_RTC_WaitForSynchro+0x2c>)
 8003fb6:	60da      	str	r2, [r3, #12]
 8003fb8:	4604      	mov	r4, r0
 8003fba:	f7fe f947 	bl	800224c <HAL_GetTick>
 8003fbe:	4605      	mov	r5, r0
 8003fc0:	6823      	ldr	r3, [r4, #0]
 8003fc2:	68db      	ldr	r3, [r3, #12]
 8003fc4:	069b      	lsls	r3, r3, #26
 8003fc6:	d501      	bpl.n	8003fcc <HAL_RTC_WaitForSynchro+0x1c>
 8003fc8:	2000      	movs	r0, #0
 8003fca:	bd38      	pop	{r3, r4, r5, pc}
 8003fcc:	f7fe f93e 	bl	800224c <HAL_GetTick>
 8003fd0:	1b40      	subs	r0, r0, r5
 8003fd2:	f5b0 7f7a 	cmp.w	r0, #1000	@ 0x3e8
 8003fd6:	d9f3      	bls.n	8003fc0 <HAL_RTC_WaitForSynchro+0x10>
 8003fd8:	2003      	movs	r0, #3
 8003fda:	e7f6      	b.n	8003fca <HAL_RTC_WaitForSynchro+0x1a>
 8003fdc:	00017f5f 	.word	0x00017f5f

08003fe0 <RTC_EnterInitMode>:
 8003fe0:	6803      	ldr	r3, [r0, #0]
 8003fe2:	b570      	push	{r4, r5, r6, lr}
 8003fe4:	68dc      	ldr	r4, [r3, #12]
 8003fe6:	f014 0440 	ands.w	r4, r4, #64	@ 0x40
 8003fea:	4605      	mov	r5, r0
 8003fec:	d117      	bne.n	800401e <RTC_EnterInitMode+0x3e>
 8003fee:	68da      	ldr	r2, [r3, #12]
 8003ff0:	f042 0280 	orr.w	r2, r2, #128	@ 0x80
 8003ff4:	60da      	str	r2, [r3, #12]
 8003ff6:	f7fe f929 	bl	800224c <HAL_GetTick>
 8003ffa:	4606      	mov	r6, r0
 8003ffc:	682b      	ldr	r3, [r5, #0]
 8003ffe:	68db      	ldr	r3, [r3, #12]
 8004000:	065b      	lsls	r3, r3, #25
 8004002:	d400      	bmi.n	8004006 <RTC_EnterInitMode+0x26>
 8004004:	b10c      	cbz	r4, 800400a <RTC_EnterInitMode+0x2a>
 8004006:	4620      	mov	r0, r4
 8004008:	bd70      	pop	{r4, r5, r6, pc}
 800400a:	f7fe f91f 	bl	800224c <HAL_GetTick>
 800400e:	1b80      	subs	r0, r0, r6
 8004010:	f5b0 7f7a 	cmp.w	r0, #1000	@ 0x3e8
 8004014:	bf82      	ittt	hi
 8004016:	2304      	movhi	r3, #4
 8004018:	776b      	strbhi	r3, [r5, #29]
 800401a:	2401      	movhi	r4, #1
 800401c:	e7ee      	b.n	8003ffc <RTC_EnterInitMode+0x1c>
 800401e:	2400      	movs	r4, #0
 8004020:	e7f1      	b.n	8004006 <RTC_EnterInitMode+0x26>

08004022 <RTC_ExitInitMode>:
 8004022:	6803      	ldr	r3, [r0, #0]
 8004024:	68da      	ldr	r2, [r3, #12]
 8004026:	f022 0280 	bic.w	r2, r2, #128	@ 0x80
 800402a:	b510      	push	{r4, lr}
 800402c:	60da      	str	r2, [r3, #12]
 800402e:	689b      	ldr	r3, [r3, #8]
 8004030:	069b      	lsls	r3, r3, #26
 8004032:	4604      	mov	r4, r0
 8004034:	d501      	bpl.n	800403a <RTC_ExitInitMode+0x18>
 8004036:	2000      	movs	r0, #0
 8004038:	bd10      	pop	{r4, pc}
 800403a:	f7ff ffb9 	bl	8003fb0 <HAL_RTC_WaitForSynchro>
 800403e:	2800      	cmp	r0, #0
 8004040:	d0f9      	beq.n	8004036 <RTC_ExitInitMode+0x14>
 8004042:	2304      	movs	r3, #4
 8004044:	7763      	strb	r3, [r4, #29]
 8004046:	2001      	movs	r0, #1
 8004048:	e7f6      	b.n	8004038 <RTC_ExitInitMode+0x16>

0800404a <HAL_RTC_Init>:
 800404a:	b510      	push	{r4, lr}
 800404c:	4604      	mov	r4, r0
 800404e:	2800      	cmp	r0, #0
 8004050:	d041      	beq.n	80040d6 <HAL_RTC_Init+0x8c>
 8004052:	7f43      	ldrb	r3, [r0, #29]
 8004054:	f003 02ff 	and.w	r2, r3, #255	@ 0xff
 8004058:	b913      	cbnz	r3, 8004060 <HAL_RTC_Init+0x16>
 800405a:	7702      	strb	r2, [r0, #28]
 800405c:	f7fd fe7a 	bl	8001d54 <HAL_RTC_MspInit>
 8004060:	2302      	movs	r3, #2
 8004062:	7763      	strb	r3, [r4, #29]
 8004064:	6823      	ldr	r3, [r4, #0]
 8004066:	68da      	ldr	r2, [r3, #12]
 8004068:	06d2      	lsls	r2, r2, #27
 800406a:	d503      	bpl.n	8004074 <HAL_RTC_Init+0x2a>
 800406c:	2301      	movs	r3, #1
 800406e:	7763      	strb	r3, [r4, #29]
 8004070:	2000      	movs	r0, #0
 8004072:	bd10      	pop	{r4, pc}
 8004074:	22ca      	movs	r2, #202	@ 0xca
 8004076:	625a      	str	r2, [r3, #36]	@ 0x24
 8004078:	2253      	movs	r2, #83	@ 0x53
 800407a:	625a      	str	r2, [r3, #36]	@ 0x24
 800407c:	4620      	mov	r0, r4
 800407e:	f7ff ffaf 	bl	8003fe0 <RTC_EnterInitMode>
 8004082:	bb10      	cbnz	r0, 80040ca <HAL_RTC_Init+0x80>
 8004084:	6823      	ldr	r3, [r4, #0]
 8004086:	6920      	ldr	r0, [r4, #16]
 8004088:	689a      	ldr	r2, [r3, #8]
 800408a:	f422 02e0 	bic.w	r2, r2, #7340032	@ 0x700000
 800408e:	f022 0240 	bic.w	r2, r2, #64	@ 0x40
 8004092:	609a      	str	r2, [r3, #8]
 8004094:	6862      	ldr	r2, [r4, #4]
 8004096:	6899      	ldr	r1, [r3, #8]
 8004098:	4302      	orrs	r2, r0
 800409a:	6960      	ldr	r0, [r4, #20]
 800409c:	4302      	orrs	r2, r0
 800409e:	430a      	orrs	r2, r1
 80040a0:	609a      	str	r2, [r3, #8]
 80040a2:	68e2      	ldr	r2, [r4, #12]
 80040a4:	611a      	str	r2, [r3, #16]
 80040a6:	691a      	ldr	r2, [r3, #16]
 80040a8:	68a1      	ldr	r1, [r4, #8]
 80040aa:	ea42 4201 	orr.w	r2, r2, r1, lsl #16
 80040ae:	611a      	str	r2, [r3, #16]
 80040b0:	4620      	mov	r0, r4
 80040b2:	f7ff ffb6 	bl	8004022 <RTC_ExitInitMode>
 80040b6:	b940      	cbnz	r0, 80040ca <HAL_RTC_Init+0x80>
 80040b8:	6823      	ldr	r3, [r4, #0]
 80040ba:	69a1      	ldr	r1, [r4, #24]
 80040bc:	6c1a      	ldr	r2, [r3, #64]	@ 0x40
 80040be:	f422 2280 	bic.w	r2, r2, #262144	@ 0x40000
 80040c2:	641a      	str	r2, [r3, #64]	@ 0x40
 80040c4:	6c1a      	ldr	r2, [r3, #64]	@ 0x40
 80040c6:	430a      	orrs	r2, r1
 80040c8:	641a      	str	r2, [r3, #64]	@ 0x40
 80040ca:	6823      	ldr	r3, [r4, #0]
 80040cc:	22ff      	movs	r2, #255	@ 0xff
 80040ce:	625a      	str	r2, [r3, #36]	@ 0x24
 80040d0:	2800      	cmp	r0, #0
 80040d2:	d0cb      	beq.n	800406c <HAL_RTC_Init+0x22>
 80040d4:	e7cd      	b.n	8004072 <HAL_RTC_Init+0x28>
 80040d6:	2001      	movs	r0, #1
 80040d8:	e7cb      	b.n	8004072 <HAL_RTC_Init+0x28>

080040da <RTC_ByteToBcd2>:
 80040da:	2300      	movs	r3, #0
 80040dc:	2809      	cmp	r0, #9
 80040de:	d803      	bhi.n	80040e8 <RTC_ByteToBcd2+0xe>
 80040e0:	ea40 1003 	orr.w	r0, r0, r3, lsl #4
 80040e4:	b2c0      	uxtb	r0, r0
 80040e6:	4770      	bx	lr
 80040e8:	380a      	subs	r0, #10
 80040ea:	3301      	adds	r3, #1
 80040ec:	b2c0      	uxtb	r0, r0
 80040ee:	e7f5      	b.n	80040dc <RTC_ByteToBcd2+0x2>

080040f0 <HAL_RTC_SetTime>:
 80040f0:	e92d 41f0 	stmdb	sp!, {r4, r5, r6, r7, r8, lr}
 80040f4:	7f03      	ldrb	r3, [r0, #28]
 80040f6:	2b01      	cmp	r3, #1
 80040f8:	4606      	mov	r6, r0
 80040fa:	460f      	mov	r7, r1
 80040fc:	f04f 0002 	mov.w	r0, #2
 8004100:	d041      	beq.n	8004186 <HAL_RTC_SetTime+0x96>
 8004102:	2301      	movs	r3, #1
 8004104:	6831      	ldr	r1, [r6, #0]
 8004106:	7733      	strb	r3, [r6, #28]
 8004108:	7770      	strb	r0, [r6, #29]
 800410a:	7838      	ldrb	r0, [r7, #0]
 800410c:	787d      	ldrb	r5, [r7, #1]
 800410e:	78bc      	ldrb	r4, [r7, #2]
 8004110:	688b      	ldr	r3, [r1, #8]
 8004112:	2a00      	cmp	r2, #0
 8004114:	d139      	bne.n	800418a <HAL_RTC_SetTime+0x9a>
 8004116:	f013 0340 	ands.w	r3, r3, #64	@ 0x40
 800411a:	bf08      	it	eq
 800411c:	70fb      	strbeq	r3, [r7, #3]
 800411e:	f7ff ffdc 	bl	80040da <RTC_ByteToBcd2>
 8004122:	4680      	mov	r8, r0
 8004124:	4628      	mov	r0, r5
 8004126:	f7ff ffd8 	bl	80040da <RTC_ByteToBcd2>
 800412a:	4602      	mov	r2, r0
 800412c:	4620      	mov	r0, r4
 800412e:	f7ff ffd4 	bl	80040da <RTC_ByteToBcd2>
 8004132:	78fb      	ldrb	r3, [r7, #3]
 8004134:	ea40 5383 	orr.w	r3, r0, r3, lsl #22
 8004138:	ea43 4308 	orr.w	r3, r3, r8, lsl #16
 800413c:	ea43 2402 	orr.w	r4, r3, r2, lsl #8
 8004140:	23ca      	movs	r3, #202	@ 0xca
 8004142:	624b      	str	r3, [r1, #36]	@ 0x24
 8004144:	2353      	movs	r3, #83	@ 0x53
 8004146:	624b      	str	r3, [r1, #36]	@ 0x24
 8004148:	4630      	mov	r0, r6
 800414a:	f7ff ff49 	bl	8003fe0 <RTC_EnterInitMode>
 800414e:	b9a8      	cbnz	r0, 800417c <HAL_RTC_SetTime+0x8c>
 8004150:	6832      	ldr	r2, [r6, #0]
 8004152:	f004 347f 	and.w	r4, r4, #2139062143	@ 0x7f7f7f7f
 8004156:	f024 44fe 	bic.w	r4, r4, #2130706432	@ 0x7f000000
 800415a:	6014      	str	r4, [r2, #0]
 800415c:	6893      	ldr	r3, [r2, #8]
 800415e:	f423 2380 	bic.w	r3, r3, #262144	@ 0x40000
 8004162:	6093      	str	r3, [r2, #8]
 8004164:	e9d7 3003 	ldrd	r3, r0, [r7, #12]
 8004168:	6891      	ldr	r1, [r2, #8]
 800416a:	4303      	orrs	r3, r0
 800416c:	430b      	orrs	r3, r1
 800416e:	6093      	str	r3, [r2, #8]
 8004170:	4630      	mov	r0, r6
 8004172:	f7ff ff56 	bl	8004022 <RTC_ExitInitMode>
 8004176:	b908      	cbnz	r0, 800417c <HAL_RTC_SetTime+0x8c>
 8004178:	2301      	movs	r3, #1
 800417a:	7773      	strb	r3, [r6, #29]
 800417c:	6833      	ldr	r3, [r6, #0]
 800417e:	22ff      	movs	r2, #255	@ 0xff
 8004180:	625a      	str	r2, [r3, #36]	@ 0x24
 8004182:	2300      	movs	r3, #0
 8004184:	7733      	strb	r3, [r6, #28]
 8004186:	e8bd 81f0 	ldmia.w	sp!, {r4, r5, r6, r7, r8, pc}
 800418a:	f013 0340 	ands.w	r3, r3, #64	@ 0x40
 800418e:	bf08      	it	eq
 8004190:	70fb      	strbeq	r3, [r7, #3]
 8004192:	022d      	lsls	r5, r5, #8
 8004194:	78fa      	ldrb	r2, [r7, #3]
 8004196:	ea45 4500 	orr.w	r5, r5, r0, lsl #16
 800419a:	ea45 0304 	orr.w	r3, r5, r4
 800419e:	ea43 5482 	orr.w	r4, r3, r2, lsl #22
 80041a2:	e7cd      	b.n	8004140 <HAL_RTC_SetTime+0x50>

080041a4 <HAL_RTC_SetDate>:
 80041a4:	b5f8      	push	{r3, r4, r5, r6, r7, lr}
 80041a6:	7f03      	ldrb	r3, [r0, #28]
 80041a8:	2b01      	cmp	r3, #1
 80041aa:	4605      	mov	r5, r0
 80041ac:	f04f 0002 	mov.w	r0, #2
 80041b0:	d027      	beq.n	8004202 <HAL_RTC_SetDate+0x5e>
 80041b2:	2301      	movs	r3, #1
 80041b4:	772b      	strb	r3, [r5, #28]
 80041b6:	7768      	strb	r0, [r5, #29]
 80041b8:	780e      	ldrb	r6, [r1, #0]
 80041ba:	78c8      	ldrb	r0, [r1, #3]
 80041bc:	784c      	ldrb	r4, [r1, #1]
 80041be:	788f      	ldrb	r7, [r1, #2]
 80041c0:	0376      	lsls	r6, r6, #13
 80041c2:	b1fa      	cbz	r2, 8004204 <HAL_RTC_SetDate+0x60>
 80041c4:	ea46 4300 	orr.w	r3, r6, r0, lsl #16
 80041c8:	433b      	orrs	r3, r7
 80041ca:	ea43 2404 	orr.w	r4, r3, r4, lsl #8
 80041ce:	682b      	ldr	r3, [r5, #0]
 80041d0:	22ca      	movs	r2, #202	@ 0xca
 80041d2:	625a      	str	r2, [r3, #36]	@ 0x24
 80041d4:	2253      	movs	r2, #83	@ 0x53
 80041d6:	625a      	str	r2, [r3, #36]	@ 0x24
 80041d8:	4628      	mov	r0, r5
 80041da:	f7ff ff01 	bl	8003fe0 <RTC_EnterInitMode>
 80041de:	b958      	cbnz	r0, 80041f8 <HAL_RTC_SetDate+0x54>
 80041e0:	682a      	ldr	r2, [r5, #0]
 80041e2:	f024 447f 	bic.w	r4, r4, #4278190080	@ 0xff000000
 80041e6:	f024 04c0 	bic.w	r4, r4, #192	@ 0xc0
 80041ea:	6054      	str	r4, [r2, #4]
 80041ec:	4628      	mov	r0, r5
 80041ee:	f7ff ff18 	bl	8004022 <RTC_ExitInitMode>
 80041f2:	b908      	cbnz	r0, 80041f8 <HAL_RTC_SetDate+0x54>
 80041f4:	2301      	movs	r3, #1
 80041f6:	776b      	strb	r3, [r5, #29]
 80041f8:	682b      	ldr	r3, [r5, #0]
 80041fa:	22ff      	movs	r2, #255	@ 0xff
 80041fc:	625a      	str	r2, [r3, #36]	@ 0x24
 80041fe:	2300      	movs	r3, #0
 8004200:	772b      	strb	r3, [r5, #28]
 8004202:	bdf8      	pop	{r3, r4, r5, r6, r7, pc}
 8004204:	06e3      	lsls	r3, r4, #27
 8004206:	bf42      	ittt	mi
 8004208:	f024 0410 	bicmi.w	r4, r4, #16
 800420c:	340a      	addmi	r4, #10
 800420e:	704c      	strbmi	r4, [r1, #1]
 8004210:	f7ff ff63 	bl	80040da <RTC_ByteToBcd2>
 8004214:	4604      	mov	r4, r0
 8004216:	7848      	ldrb	r0, [r1, #1]
 8004218:	f7ff ff5f 	bl	80040da <RTC_ByteToBcd2>
 800421c:	4602      	mov	r2, r0
 800421e:	4638      	mov	r0, r7
 8004220:	f7ff ff5b 	bl	80040da <RTC_ByteToBcd2>
 8004224:	ea40 0306 	orr.w	r3, r0, r6
 8004228:	ea43 4304 	orr.w	r3, r3, r4, lsl #16
 800422c:	ea43 2402 	orr.w	r4, r3, r2, lsl #8
 8004230:	e7cd      	b.n	80041ce <HAL_RTC_SetDate+0x2a>

08004232 <RTC_Bcd2ToByte>:
 8004232:	0903      	lsrs	r3, r0, #4
 8004234:	eb03 0383 	add.w	r3, r3, r3, lsl #2
 8004238:	f000 000f 	and.w	r0, r0, #15
 800423c:	eb00 0043 	add.w	r0, r0, r3, lsl #1
 8004240:	b2c0      	uxtb	r0, r0
 8004242:	4770      	bx	lr

08004244 <HAL_RTC_GetTime>:
 8004244:	b538      	push	{r3, r4, r5, lr}
 8004246:	6803      	ldr	r3, [r0, #0]
 8004248:	6a98      	ldr	r0, [r3, #40]	@ 0x28
 800424a:	6048      	str	r0, [r1, #4]
 800424c:	6918      	ldr	r0, [r3, #16]
 800424e:	681b      	ldr	r3, [r3, #0]
 8004250:	f3c0 000e 	ubfx	r0, r0, #0, #15
 8004254:	f3c3 2506 	ubfx	r5, r3, #8, #7
 8004258:	f003 047f 	and.w	r4, r3, #127	@ 0x7f
 800425c:	6088      	str	r0, [r1, #8]
 800425e:	f3c3 4005 	ubfx	r0, r3, #16, #6
 8004262:	f3c3 5380 	ubfx	r3, r3, #22, #1
 8004266:	7008      	strb	r0, [r1, #0]
 8004268:	704d      	strb	r5, [r1, #1]
 800426a:	708c      	strb	r4, [r1, #2]
 800426c:	70cb      	strb	r3, [r1, #3]
 800426e:	b952      	cbnz	r2, 8004286 <HAL_RTC_GetTime+0x42>
 8004270:	f7ff ffdf 	bl	8004232 <RTC_Bcd2ToByte>
 8004274:	7008      	strb	r0, [r1, #0]
 8004276:	4628      	mov	r0, r5
 8004278:	f7ff ffdb 	bl	8004232 <RTC_Bcd2ToByte>
 800427c:	7048      	strb	r0, [r1, #1]
 800427e:	4620      	mov	r0, r4
 8004280:	f7ff ffd7 	bl	8004232 <RTC_Bcd2ToByte>
 8004284:	7088      	strb	r0, [r1, #2]
 8004286:	2000      	movs	r0, #0
 8004288:	bd38      	pop	{r3, r4, r5, pc}

0800428a <HAL_RTC_GetDate>:
 800428a:	b538      	push	{r3, r4, r5, lr}
 800428c:	6803      	ldr	r3, [r0, #0]
 800428e:	685b      	ldr	r3, [r3, #4]
 8004290:	f3c3 4007 	ubfx	r0, r3, #16, #8
 8004294:	f3c3 2504 	ubfx	r5, r3, #8, #5
 8004298:	f003 043f 	and.w	r4, r3, #63	@ 0x3f
 800429c:	f3c3 3342 	ubfx	r3, r3, #13, #3
 80042a0:	70c8      	strb	r0, [r1, #3]
 80042a2:	704d      	strb	r5, [r1, #1]
 80042a4:	708c      	strb	r4, [r1, #2]
 80042a6:	700b      	strb	r3, [r1, #0]
 80042a8:	b952      	cbnz	r2, 80042c0 <HAL_RTC_GetDate+0x36>
 80042aa:	f7ff ffc2 	bl	8004232 <RTC_Bcd2ToByte>
 80042ae:	70c8      	strb	r0, [r1, #3]
 80042b0:	4628      	mov	r0, r5
 80042b2:	f7ff ffbe 	bl	8004232 <RTC_Bcd2ToByte>
 80042b6:	7048      	strb	r0, [r1, #1]
 80042b8:	4620      	mov	r0, r4
 80042ba:	f7ff ffba 	bl	8004232 <RTC_Bcd2ToByte>
 80042be:	7088      	strb	r0, [r1, #2]
 80042c0:	2000      	movs	r0, #0
 80042c2:	bd38      	pop	{r3, r4, r5, pc}

080042c4 <SPI_WaitFlagStateUntilTimeout>:
 80042c4:	e92d 47f3 	stmdb	sp!, {r0, r1, r4, r5, r6, r7, r8, r9, sl, lr}
 80042c8:	461f      	mov	r7, r3
 80042ca:	4689      	mov	r9, r1
 80042cc:	4690      	mov	r8, r2
 80042ce:	4604      	mov	r4, r0
 80042d0:	f7fd ffbc 	bl	800224c <HAL_GetTick>
 80042d4:	9d0a      	ldr	r5, [sp, #40]	@ 0x28
 80042d6:	443d      	add	r5, r7
 80042d8:	1a2d      	subs	r5, r5, r0
 80042da:	f7fd ffb7 	bl	800224c <HAL_GetTick>
 80042de:	4b26      	ldr	r3, [pc, #152]	@ (8004378 <SPI_WaitFlagStateUntilTimeout+0xb4>)
 80042e0:	681e      	ldr	r6, [r3, #0]
 80042e2:	f3c6 36cb 	ubfx	r6, r6, #15, #12
 80042e6:	436e      	muls	r6, r5
 80042e8:	4682      	mov	sl, r0
 80042ea:	9601      	str	r6, [sp, #4]
 80042ec:	6822      	ldr	r2, [r4, #0]
 80042ee:	6893      	ldr	r3, [r2, #8]
 80042f0:	ea39 0303 	bics.w	r3, r9, r3
 80042f4:	bf0c      	ite	eq
 80042f6:	2301      	moveq	r3, #1
 80042f8:	2300      	movne	r3, #0
 80042fa:	4543      	cmp	r3, r8
 80042fc:	d101      	bne.n	8004302 <SPI_WaitFlagStateUntilTimeout+0x3e>
 80042fe:	2000      	movs	r0, #0
 8004300:	e02e      	b.n	8004360 <SPI_WaitFlagStateUntilTimeout+0x9c>
 8004302:	1c7b      	adds	r3, r7, #1
 8004304:	d0f3      	beq.n	80042ee <SPI_WaitFlagStateUntilTimeout+0x2a>
 8004306:	f7fd ffa1 	bl	800224c <HAL_GetTick>
 800430a:	eba0 000a 	sub.w	r0, r0, sl
 800430e:	42a8      	cmp	r0, r5
 8004310:	d329      	bcc.n	8004366 <SPI_WaitFlagStateUntilTimeout+0xa2>
 8004312:	6823      	ldr	r3, [r4, #0]
 8004314:	685a      	ldr	r2, [r3, #4]
 8004316:	f022 02e0 	bic.w	r2, r2, #224	@ 0xe0
 800431a:	605a      	str	r2, [r3, #4]
 800431c:	6862      	ldr	r2, [r4, #4]
 800431e:	f5b2 7f82 	cmp.w	r2, #260	@ 0x104
 8004322:	d10a      	bne.n	800433a <SPI_WaitFlagStateUntilTimeout+0x76>
 8004324:	68a2      	ldr	r2, [r4, #8]
 8004326:	f5b2 4f00 	cmp.w	r2, #32768	@ 0x8000
 800432a:	d002      	beq.n	8004332 <SPI_WaitFlagStateUntilTimeout+0x6e>
 800432c:	f5b2 6f80 	cmp.w	r2, #1024	@ 0x400
 8004330:	d103      	bne.n	800433a <SPI_WaitFlagStateUntilTimeout+0x76>
 8004332:	681a      	ldr	r2, [r3, #0]
 8004334:	f022 0240 	bic.w	r2, r2, #64	@ 0x40
 8004338:	601a      	str	r2, [r3, #0]
 800433a:	6aa2      	ldr	r2, [r4, #40]	@ 0x28
 800433c:	f5b2 5f00 	cmp.w	r2, #8192	@ 0x2000
 8004340:	d107      	bne.n	8004352 <SPI_WaitFlagStateUntilTimeout+0x8e>
 8004342:	681a      	ldr	r2, [r3, #0]
 8004344:	f422 5200 	bic.w	r2, r2, #8192	@ 0x2000
 8004348:	601a      	str	r2, [r3, #0]
 800434a:	681a      	ldr	r2, [r3, #0]
 800434c:	f442 5200 	orr.w	r2, r2, #8192	@ 0x2000
 8004350:	601a      	str	r2, [r3, #0]
 8004352:	2301      	movs	r3, #1
 8004354:	f884 3051 	strb.w	r3, [r4, #81]	@ 0x51
 8004358:	2300      	movs	r3, #0
 800435a:	f884 3050 	strb.w	r3, [r4, #80]	@ 0x50
 800435e:	2003      	movs	r0, #3
 8004360:	b002      	add	sp, #8
 8004362:	e8bd 87f0 	ldmia.w	sp!, {r4, r5, r6, r7, r8, r9, sl, pc}
 8004366:	9a01      	ldr	r2, [sp, #4]
 8004368:	9b01      	ldr	r3, [sp, #4]
 800436a:	2a00      	cmp	r2, #0
 800436c:	f103 33ff 	add.w	r3, r3, #4294967295	@ 0xffffffff
 8004370:	9301      	str	r3, [sp, #4]
 8004372:	bf08      	it	eq
 8004374:	4615      	moveq	r5, r2
 8004376:	e7b9      	b.n	80042ec <SPI_WaitFlagStateUntilTimeout+0x28>
 8004378:	2000001c 	.word	0x2000001c

0800437c <SPI_EndRxTxTransaction>:
 800437c:	b5f0      	push	{r4, r5, r6, r7, lr}
 800437e:	b085      	sub	sp, #20
 8004380:	460b      	mov	r3, r1
 8004382:	9200      	str	r2, [sp, #0]
 8004384:	460e      	mov	r6, r1
 8004386:	4617      	mov	r7, r2
 8004388:	2102      	movs	r1, #2
 800438a:	2201      	movs	r2, #1
 800438c:	4604      	mov	r4, r0
 800438e:	f7ff ff99 	bl	80042c4 <SPI_WaitFlagStateUntilTimeout>
 8004392:	4605      	mov	r5, r0
 8004394:	b128      	cbz	r0, 80043a2 <SPI_EndRxTxTransaction+0x26>
 8004396:	6d63      	ldr	r3, [r4, #84]	@ 0x54
 8004398:	f043 0320 	orr.w	r3, r3, #32
 800439c:	6563      	str	r3, [r4, #84]	@ 0x54
 800439e:	2503      	movs	r5, #3
 80043a0:	e015      	b.n	80043ce <SPI_EndRxTxTransaction+0x52>
 80043a2:	4b12      	ldr	r3, [pc, #72]	@ (80043ec <SPI_EndRxTxTransaction+0x70>)
 80043a4:	6818      	ldr	r0, [r3, #0]
 80043a6:	4b12      	ldr	r3, [pc, #72]	@ (80043f0 <SPI_EndRxTxTransaction+0x74>)
 80043a8:	fbb0 f0f3 	udiv	r0, r0, r3
 80043ac:	f44f 737a 	mov.w	r3, #1000	@ 0x3e8
 80043b0:	4358      	muls	r0, r3
 80043b2:	6863      	ldr	r3, [r4, #4]
 80043b4:	9003      	str	r0, [sp, #12]
 80043b6:	f5b3 7f82 	cmp.w	r3, #260	@ 0x104
 80043ba:	d10b      	bne.n	80043d4 <SPI_EndRxTxTransaction+0x58>
 80043bc:	9700      	str	r7, [sp, #0]
 80043be:	4633      	mov	r3, r6
 80043c0:	462a      	mov	r2, r5
 80043c2:	2180      	movs	r1, #128	@ 0x80
 80043c4:	4620      	mov	r0, r4
 80043c6:	f7ff ff7d 	bl	80042c4 <SPI_WaitFlagStateUntilTimeout>
 80043ca:	2800      	cmp	r0, #0
 80043cc:	d1e3      	bne.n	8004396 <SPI_EndRxTxTransaction+0x1a>
 80043ce:	4628      	mov	r0, r5
 80043d0:	b005      	add	sp, #20
 80043d2:	bdf0      	pop	{r4, r5, r6, r7, pc}
 80043d4:	9b03      	ldr	r3, [sp, #12]
 80043d6:	2b00      	cmp	r3, #0
 80043d8:	d0f9      	beq.n	80043ce <SPI_EndRxTxTransaction+0x52>
 80043da:	9b03      	ldr	r3, [sp, #12]
 80043dc:	3b01      	subs	r3, #1
 80043de:	9303      	str	r3, [sp, #12]
 80043e0:	6823      	ldr	r3, [r4, #0]
 80043e2:	689b      	ldr	r3, [r3, #8]
 80043e4:	061b      	lsls	r3, r3, #24
 80043e6:	d4f5      	bmi.n	80043d4 <SPI_EndRxTxTransaction+0x58>
 80043e8:	e7f1      	b.n	80043ce <SPI_EndRxTxTransaction+0x52>
 80043ea:	bf00      	nop
 80043ec:	2000001c 	.word	0x2000001c
 80043f0:	016e3600 	.word	0x016e3600

080043f4 <SPI_EndRxTransaction>:
 80043f4:	b537      	push	{r0, r1, r2, r4, r5, lr}
 80043f6:	460b      	mov	r3, r1
 80043f8:	6841      	ldr	r1, [r0, #4]
 80043fa:	f5b1 7f82 	cmp.w	r1, #260	@ 0x104
 80043fe:	4604      	mov	r4, r0
 8004400:	d008      	beq.n	8004414 <SPI_EndRxTransaction+0x20>
 8004402:	9200      	str	r2, [sp, #0]
 8004404:	2101      	movs	r1, #1
 8004406:	2200      	movs	r2, #0
 8004408:	f7ff ff5c 	bl	80042c4 <SPI_WaitFlagStateUntilTimeout>
 800440c:	b9d0      	cbnz	r0, 8004444 <SPI_EndRxTransaction+0x50>
 800440e:	2000      	movs	r0, #0
 8004410:	b003      	add	sp, #12
 8004412:	bd30      	pop	{r4, r5, pc}
 8004414:	6881      	ldr	r1, [r0, #8]
 8004416:	f5b1 4f00 	cmp.w	r1, #32768	@ 0x8000
 800441a:	d002      	beq.n	8004422 <SPI_EndRxTransaction+0x2e>
 800441c:	f5b1 6f80 	cmp.w	r1, #1024	@ 0x400
 8004420:	d107      	bne.n	8004432 <SPI_EndRxTransaction+0x3e>
 8004422:	6825      	ldr	r5, [r4, #0]
 8004424:	6828      	ldr	r0, [r5, #0]
 8004426:	f5b1 6f80 	cmp.w	r1, #1024	@ 0x400
 800442a:	f020 0040 	bic.w	r0, r0, #64	@ 0x40
 800442e:	6028      	str	r0, [r5, #0]
 8004430:	d004      	beq.n	800443c <SPI_EndRxTransaction+0x48>
 8004432:	9200      	str	r2, [sp, #0]
 8004434:	2180      	movs	r1, #128	@ 0x80
 8004436:	2200      	movs	r2, #0
 8004438:	4620      	mov	r0, r4
 800443a:	e7e5      	b.n	8004408 <SPI_EndRxTransaction+0x14>
 800443c:	9200      	str	r2, [sp, #0]
 800443e:	2101      	movs	r1, #1
 8004440:	2200      	movs	r2, #0
 8004442:	e7f9      	b.n	8004438 <SPI_EndRxTransaction+0x44>
 8004444:	6d63      	ldr	r3, [r4, #84]	@ 0x54
 8004446:	f043 0320 	orr.w	r3, r3, #32
 800444a:	6563      	str	r3, [r4, #84]	@ 0x54
 800444c:	2003      	movs	r0, #3
 800444e:	e7df      	b.n	8004410 <SPI_EndRxTransaction+0x1c>

08004450 <HAL_SPI_Init>:
 8004450:	b510      	push	{r4, lr}
 8004452:	4604      	mov	r4, r0
 8004454:	2800      	cmp	r0, #0
 8004456:	d055      	beq.n	8004504 <HAL_SPI_Init+0xb4>
 8004458:	6a43      	ldr	r3, [r0, #36]	@ 0x24
 800445a:	2b00      	cmp	r3, #0
 800445c:	d14e      	bne.n	80044fc <HAL_SPI_Init+0xac>
 800445e:	6842      	ldr	r2, [r0, #4]
 8004460:	f5b2 7f82 	cmp.w	r2, #260	@ 0x104
 8004464:	d000      	beq.n	8004468 <HAL_SPI_Init+0x18>
 8004466:	61c3      	str	r3, [r0, #28]
 8004468:	2300      	movs	r3, #0
 800446a:	62a3      	str	r3, [r4, #40]	@ 0x28
 800446c:	f894 3051 	ldrb.w	r3, [r4, #81]	@ 0x51
 8004470:	f003 02ff 	and.w	r2, r3, #255	@ 0xff
 8004474:	b923      	cbnz	r3, 8004480 <HAL_SPI_Init+0x30>
 8004476:	f884 2050 	strb.w	r2, [r4, #80]	@ 0x50
 800447a:	4620      	mov	r0, r4
 800447c:	f7fd fc8c 	bl	8001d98 <HAL_SPI_MspInit>
 8004480:	6821      	ldr	r1, [r4, #0]
 8004482:	68a0      	ldr	r0, [r4, #8]
 8004484:	69a2      	ldr	r2, [r4, #24]
 8004486:	2302      	movs	r3, #2
 8004488:	f884 3051 	strb.w	r3, [r4, #81]	@ 0x51
 800448c:	680b      	ldr	r3, [r1, #0]
 800448e:	f023 0340 	bic.w	r3, r3, #64	@ 0x40
 8004492:	600b      	str	r3, [r1, #0]
 8004494:	6863      	ldr	r3, [r4, #4]
 8004496:	f400 4004 	and.w	r0, r0, #33792	@ 0x8400
 800449a:	f403 7382 	and.w	r3, r3, #260	@ 0x104
 800449e:	4303      	orrs	r3, r0
 80044a0:	68e0      	ldr	r0, [r4, #12]
 80044a2:	f400 6000 	and.w	r0, r0, #2048	@ 0x800
 80044a6:	4303      	orrs	r3, r0
 80044a8:	6920      	ldr	r0, [r4, #16]
 80044aa:	f000 0002 	and.w	r0, r0, #2
 80044ae:	4303      	orrs	r3, r0
 80044b0:	6960      	ldr	r0, [r4, #20]
 80044b2:	f000 0001 	and.w	r0, r0, #1
 80044b6:	4303      	orrs	r3, r0
 80044b8:	f402 7000 	and.w	r0, r2, #512	@ 0x200
 80044bc:	4303      	orrs	r3, r0
 80044be:	69e0      	ldr	r0, [r4, #28]
 80044c0:	f000 0038 	and.w	r0, r0, #56	@ 0x38
 80044c4:	4303      	orrs	r3, r0
 80044c6:	6a20      	ldr	r0, [r4, #32]
 80044c8:	f000 0080 	and.w	r0, r0, #128	@ 0x80
 80044cc:	4303      	orrs	r3, r0
 80044ce:	6aa0      	ldr	r0, [r4, #40]	@ 0x28
 80044d0:	f400 5000 	and.w	r0, r0, #8192	@ 0x2000
 80044d4:	4303      	orrs	r3, r0
 80044d6:	600b      	str	r3, [r1, #0]
 80044d8:	6a63      	ldr	r3, [r4, #36]	@ 0x24
 80044da:	0c12      	lsrs	r2, r2, #16
 80044dc:	f003 0310 	and.w	r3, r3, #16
 80044e0:	f002 0204 	and.w	r2, r2, #4
 80044e4:	431a      	orrs	r2, r3
 80044e6:	604a      	str	r2, [r1, #4]
 80044e8:	69cb      	ldr	r3, [r1, #28]
 80044ea:	f423 6300 	bic.w	r3, r3, #2048	@ 0x800
 80044ee:	61cb      	str	r3, [r1, #28]
 80044f0:	2000      	movs	r0, #0
 80044f2:	2301      	movs	r3, #1
 80044f4:	6560      	str	r0, [r4, #84]	@ 0x54
 80044f6:	f884 3051 	strb.w	r3, [r4, #81]	@ 0x51
 80044fa:	bd10      	pop	{r4, pc}
 80044fc:	2300      	movs	r3, #0
 80044fe:	e9c0 3304 	strd	r3, r3, [r0, #16]
 8004502:	e7b1      	b.n	8004468 <HAL_SPI_Init+0x18>
 8004504:	2001      	movs	r0, #1
 8004506:	e7f8      	b.n	80044fa <HAL_SPI_Init+0xaa>

08004508 <HAL_SPI_Transmit>:
 8004508:	e92d 47f3 	stmdb	sp!, {r0, r1, r4, r5, r6, r7, r8, r9, sl, lr}
 800450c:	461f      	mov	r7, r3
 800450e:	f890 3050 	ldrb.w	r3, [r0, #80]	@ 0x50
 8004512:	2b01      	cmp	r3, #1
 8004514:	4604      	mov	r4, r0
 8004516:	460d      	mov	r5, r1
 8004518:	4690      	mov	r8, r2
 800451a:	f000 80a6 	beq.w	800466a <HAL_SPI_Transmit+0x162>
 800451e:	2301      	movs	r3, #1
 8004520:	f880 3050 	strb.w	r3, [r0, #80]	@ 0x50
 8004524:	f7fd fe92 	bl	800224c <HAL_GetTick>
 8004528:	f894 3051 	ldrb.w	r3, [r4, #81]	@ 0x51
 800452c:	2b01      	cmp	r3, #1
 800452e:	4682      	mov	sl, r0
 8004530:	fa5f f983 	uxtb.w	r9, r3
 8004534:	f040 8096 	bne.w	8004664 <HAL_SPI_Transmit+0x15c>
 8004538:	2d00      	cmp	r5, #0
 800453a:	d067      	beq.n	800460c <HAL_SPI_Transmit+0x104>
 800453c:	f1b8 0f00 	cmp.w	r8, #0
 8004540:	d064      	beq.n	800460c <HAL_SPI_Transmit+0x104>
 8004542:	2303      	movs	r3, #3
 8004544:	f884 3051 	strb.w	r3, [r4, #81]	@ 0x51
 8004548:	2300      	movs	r3, #0
 800454a:	6563      	str	r3, [r4, #84]	@ 0x54
 800454c:	e9c4 3310 	strd	r3, r3, [r4, #64]	@ 0x40
 8004550:	f8a4 8036 	strh.w	r8, [r4, #54]	@ 0x36
 8004554:	63a3      	str	r3, [r4, #56]	@ 0x38
 8004556:	87a3      	strh	r3, [r4, #60]	@ 0x3c
 8004558:	87e3      	strh	r3, [r4, #62]	@ 0x3e
 800455a:	68a3      	ldr	r3, [r4, #8]
 800455c:	6826      	ldr	r6, [r4, #0]
 800455e:	6325      	str	r5, [r4, #48]	@ 0x30
 8004560:	f5b3 4f00 	cmp.w	r3, #32768	@ 0x8000
 8004564:	f8a4 8034 	strh.w	r8, [r4, #52]	@ 0x34
 8004568:	d107      	bne.n	800457a <HAL_SPI_Transmit+0x72>
 800456a:	6833      	ldr	r3, [r6, #0]
 800456c:	f023 0340 	bic.w	r3, r3, #64	@ 0x40
 8004570:	6033      	str	r3, [r6, #0]
 8004572:	6833      	ldr	r3, [r6, #0]
 8004574:	f443 4380 	orr.w	r3, r3, #16384	@ 0x4000
 8004578:	6033      	str	r3, [r6, #0]
 800457a:	6833      	ldr	r3, [r6, #0]
 800457c:	6862      	ldr	r2, [r4, #4]
 800457e:	065b      	lsls	r3, r3, #25
 8004580:	bf5e      	ittt	pl
 8004582:	6833      	ldrpl	r3, [r6, #0]
 8004584:	f043 0340 	orrpl.w	r3, r3, #64	@ 0x40
 8004588:	6033      	strpl	r3, [r6, #0]
 800458a:	68e3      	ldr	r3, [r4, #12]
 800458c:	f5b3 6f00 	cmp.w	r3, #2048	@ 0x800
 8004590:	d143      	bne.n	800461a <HAL_SPI_Transmit+0x112>
 8004592:	b112      	cbz	r2, 800459a <HAL_SPI_Transmit+0x92>
 8004594:	f1b8 0f01 	cmp.w	r8, #1
 8004598:	d107      	bne.n	80045aa <HAL_SPI_Transmit+0xa2>
 800459a:	f835 3b02 	ldrh.w	r3, [r5], #2
 800459e:	60f3      	str	r3, [r6, #12]
 80045a0:	6325      	str	r5, [r4, #48]	@ 0x30
 80045a2:	8ee3      	ldrh	r3, [r4, #54]	@ 0x36
 80045a4:	3b01      	subs	r3, #1
 80045a6:	b29b      	uxth	r3, r3
 80045a8:	86e3      	strh	r3, [r4, #54]	@ 0x36
 80045aa:	8ee3      	ldrh	r3, [r4, #54]	@ 0x36
 80045ac:	b29b      	uxth	r3, r3
 80045ae:	b9b3      	cbnz	r3, 80045de <HAL_SPI_Transmit+0xd6>
 80045b0:	4652      	mov	r2, sl
 80045b2:	4639      	mov	r1, r7
 80045b4:	4620      	mov	r0, r4
 80045b6:	f7ff fee1 	bl	800437c <SPI_EndRxTxTransaction>
 80045ba:	2800      	cmp	r0, #0
 80045bc:	d14f      	bne.n	800465e <HAL_SPI_Transmit+0x156>
 80045be:	68a3      	ldr	r3, [r4, #8]
 80045c0:	b933      	cbnz	r3, 80045d0 <HAL_SPI_Transmit+0xc8>
 80045c2:	9301      	str	r3, [sp, #4]
 80045c4:	6823      	ldr	r3, [r4, #0]
 80045c6:	68da      	ldr	r2, [r3, #12]
 80045c8:	9201      	str	r2, [sp, #4]
 80045ca:	689b      	ldr	r3, [r3, #8]
 80045cc:	9301      	str	r3, [sp, #4]
 80045ce:	9b01      	ldr	r3, [sp, #4]
 80045d0:	6d63      	ldr	r3, [r4, #84]	@ 0x54
 80045d2:	b9db      	cbnz	r3, 800460c <HAL_SPI_Transmit+0x104>
 80045d4:	2201      	movs	r2, #1
 80045d6:	f884 2051 	strb.w	r2, [r4, #81]	@ 0x51
 80045da:	4699      	mov	r9, r3
 80045dc:	e016      	b.n	800460c <HAL_SPI_Transmit+0x104>
 80045de:	6822      	ldr	r2, [r4, #0]
 80045e0:	6893      	ldr	r3, [r2, #8]
 80045e2:	0798      	lsls	r0, r3, #30
 80045e4:	d505      	bpl.n	80045f2 <HAL_SPI_Transmit+0xea>
 80045e6:	6b23      	ldr	r3, [r4, #48]	@ 0x30
 80045e8:	f833 1b02 	ldrh.w	r1, [r3], #2
 80045ec:	60d1      	str	r1, [r2, #12]
 80045ee:	6323      	str	r3, [r4, #48]	@ 0x30
 80045f0:	e7d7      	b.n	80045a2 <HAL_SPI_Transmit+0x9a>
 80045f2:	f7fd fe2b 	bl	800224c <HAL_GetTick>
 80045f6:	eba0 000a 	sub.w	r0, r0, sl
 80045fa:	42b8      	cmp	r0, r7
 80045fc:	d3d5      	bcc.n	80045aa <HAL_SPI_Transmit+0xa2>
 80045fe:	1c79      	adds	r1, r7, #1
 8004600:	d0d3      	beq.n	80045aa <HAL_SPI_Transmit+0xa2>
 8004602:	2301      	movs	r3, #1
 8004604:	f884 3051 	strb.w	r3, [r4, #81]	@ 0x51
 8004608:	f04f 0903 	mov.w	r9, #3
 800460c:	2300      	movs	r3, #0
 800460e:	f884 3050 	strb.w	r3, [r4, #80]	@ 0x50
 8004612:	4648      	mov	r0, r9
 8004614:	b002      	add	sp, #8
 8004616:	e8bd 87f0 	ldmia.w	sp!, {r4, r5, r6, r7, r8, r9, sl, pc}
 800461a:	b112      	cbz	r2, 8004622 <HAL_SPI_Transmit+0x11a>
 800461c:	f1b8 0f01 	cmp.w	r8, #1
 8004620:	d108      	bne.n	8004634 <HAL_SPI_Transmit+0x12c>
 8004622:	782b      	ldrb	r3, [r5, #0]
 8004624:	7333      	strb	r3, [r6, #12]
 8004626:	6b23      	ldr	r3, [r4, #48]	@ 0x30
 8004628:	3301      	adds	r3, #1
 800462a:	6323      	str	r3, [r4, #48]	@ 0x30
 800462c:	8ee3      	ldrh	r3, [r4, #54]	@ 0x36
 800462e:	3b01      	subs	r3, #1
 8004630:	b29b      	uxth	r3, r3
 8004632:	86e3      	strh	r3, [r4, #54]	@ 0x36
 8004634:	8ee3      	ldrh	r3, [r4, #54]	@ 0x36
 8004636:	b29b      	uxth	r3, r3
 8004638:	2b00      	cmp	r3, #0
 800463a:	d0b9      	beq.n	80045b0 <HAL_SPI_Transmit+0xa8>
 800463c:	6823      	ldr	r3, [r4, #0]
 800463e:	689a      	ldr	r2, [r3, #8]
 8004640:	0792      	lsls	r2, r2, #30
 8004642:	d503      	bpl.n	800464c <HAL_SPI_Transmit+0x144>
 8004644:	6b22      	ldr	r2, [r4, #48]	@ 0x30
 8004646:	7812      	ldrb	r2, [r2, #0]
 8004648:	731a      	strb	r2, [r3, #12]
 800464a:	e7ec      	b.n	8004626 <HAL_SPI_Transmit+0x11e>
 800464c:	f7fd fdfe 	bl	800224c <HAL_GetTick>
 8004650:	eba0 000a 	sub.w	r0, r0, sl
 8004654:	42b8      	cmp	r0, r7
 8004656:	d3ed      	bcc.n	8004634 <HAL_SPI_Transmit+0x12c>
 8004658:	1c7b      	adds	r3, r7, #1
 800465a:	d0eb      	beq.n	8004634 <HAL_SPI_Transmit+0x12c>
 800465c:	e7d1      	b.n	8004602 <HAL_SPI_Transmit+0xfa>
 800465e:	2320      	movs	r3, #32
 8004660:	6563      	str	r3, [r4, #84]	@ 0x54
 8004662:	e7ac      	b.n	80045be <HAL_SPI_Transmit+0xb6>
 8004664:	f04f 0902 	mov.w	r9, #2
 8004668:	e7d0      	b.n	800460c <HAL_SPI_Transmit+0x104>
 800466a:	f04f 0902 	mov.w	r9, #2
 800466e:	e7d0      	b.n	8004612 <HAL_SPI_Transmit+0x10a>

08004670 <HAL_SPI_TransmitReceive>:
 8004670:	e92d 43f7 	stmdb	sp!, {r0, r1, r2, r4, r5, r6, r7, r8, r9, lr}
 8004674:	461e      	mov	r6, r3
 8004676:	f890 3050 	ldrb.w	r3, [r0, #80]	@ 0x50
 800467a:	f8dd 8028 	ldr.w	r8, [sp, #40]	@ 0x28
 800467e:	2b01      	cmp	r3, #1
 8004680:	4604      	mov	r4, r0
 8004682:	460d      	mov	r5, r1
 8004684:	4691      	mov	r9, r2
 8004686:	f000 80e8 	beq.w	800485a <HAL_SPI_TransmitReceive+0x1ea>
 800468a:	2301      	movs	r3, #1
 800468c:	f880 3050 	strb.w	r3, [r0, #80]	@ 0x50
 8004690:	f7fd fddc 	bl	800224c <HAL_GetTick>
 8004694:	f894 3051 	ldrb.w	r3, [r4, #81]	@ 0x51
 8004698:	6862      	ldr	r2, [r4, #4]
 800469a:	2b01      	cmp	r3, #1
 800469c:	4607      	mov	r7, r0
 800469e:	b2d9      	uxtb	r1, r3
 80046a0:	d00a      	beq.n	80046b8 <HAL_SPI_TransmitReceive+0x48>
 80046a2:	f5b2 7f82 	cmp.w	r2, #260	@ 0x104
 80046a6:	f040 80d6 	bne.w	8004856 <HAL_SPI_TransmitReceive+0x1e6>
 80046aa:	68a3      	ldr	r3, [r4, #8]
 80046ac:	2b00      	cmp	r3, #0
 80046ae:	f040 80d2 	bne.w	8004856 <HAL_SPI_TransmitReceive+0x1e6>
 80046b2:	2904      	cmp	r1, #4
 80046b4:	f040 80cf 	bne.w	8004856 <HAL_SPI_TransmitReceive+0x1e6>
 80046b8:	2d00      	cmp	r5, #0
 80046ba:	d03f      	beq.n	800473c <HAL_SPI_TransmitReceive+0xcc>
 80046bc:	f1b9 0f00 	cmp.w	r9, #0
 80046c0:	d03c      	beq.n	800473c <HAL_SPI_TransmitReceive+0xcc>
 80046c2:	2e00      	cmp	r6, #0
 80046c4:	d03a      	beq.n	800473c <HAL_SPI_TransmitReceive+0xcc>
 80046c6:	f894 3051 	ldrb.w	r3, [r4, #81]	@ 0x51
 80046ca:	f8c4 9038 	str.w	r9, [r4, #56]	@ 0x38
 80046ce:	2b04      	cmp	r3, #4
 80046d0:	bf1c      	itt	ne
 80046d2:	2305      	movne	r3, #5
 80046d4:	f884 3051 	strbne.w	r3, [r4, #81]	@ 0x51
 80046d8:	2300      	movs	r3, #0
 80046da:	6563      	str	r3, [r4, #84]	@ 0x54
 80046dc:	e9c4 3310 	strd	r3, r3, [r4, #64]	@ 0x40
 80046e0:	6823      	ldr	r3, [r4, #0]
 80046e2:	87e6      	strh	r6, [r4, #62]	@ 0x3e
 80046e4:	86e6      	strh	r6, [r4, #54]	@ 0x36
 80046e6:	6819      	ldr	r1, [r3, #0]
 80046e8:	87a6      	strh	r6, [r4, #60]	@ 0x3c
 80046ea:	0649      	lsls	r1, r1, #25
 80046ec:	bf58      	it	pl
 80046ee:	6819      	ldrpl	r1, [r3, #0]
 80046f0:	6325      	str	r5, [r4, #48]	@ 0x30
 80046f2:	bf58      	it	pl
 80046f4:	f041 0140 	orrpl.w	r1, r1, #64	@ 0x40
 80046f8:	86a6      	strh	r6, [r4, #52]	@ 0x34
 80046fa:	bf58      	it	pl
 80046fc:	6019      	strpl	r1, [r3, #0]
 80046fe:	68e1      	ldr	r1, [r4, #12]
 8004700:	f5b1 6f00 	cmp.w	r1, #2048	@ 0x800
 8004704:	d151      	bne.n	80047aa <HAL_SPI_TransmitReceive+0x13a>
 8004706:	b10a      	cbz	r2, 800470c <HAL_SPI_TransmitReceive+0x9c>
 8004708:	2e01      	cmp	r6, #1
 800470a:	d107      	bne.n	800471c <HAL_SPI_TransmitReceive+0xac>
 800470c:	f835 2b02 	ldrh.w	r2, [r5], #2
 8004710:	60da      	str	r2, [r3, #12]
 8004712:	8ee3      	ldrh	r3, [r4, #54]	@ 0x36
 8004714:	6325      	str	r5, [r4, #48]	@ 0x30
 8004716:	3b01      	subs	r3, #1
 8004718:	b29b      	uxth	r3, r3
 800471a:	86e3      	strh	r3, [r4, #54]	@ 0x36
 800471c:	2501      	movs	r5, #1
 800471e:	8ee3      	ldrh	r3, [r4, #54]	@ 0x36
 8004720:	b29b      	uxth	r3, r3
 8004722:	b96b      	cbnz	r3, 8004740 <HAL_SPI_TransmitReceive+0xd0>
 8004724:	8fe3      	ldrh	r3, [r4, #62]	@ 0x3e
 8004726:	b29b      	uxth	r3, r3
 8004728:	b953      	cbnz	r3, 8004740 <HAL_SPI_TransmitReceive+0xd0>
 800472a:	463a      	mov	r2, r7
 800472c:	4641      	mov	r1, r8
 800472e:	4620      	mov	r0, r4
 8004730:	f7ff fe24 	bl	800437c <SPI_EndRxTxTransaction>
 8004734:	2800      	cmp	r0, #0
 8004736:	d07d      	beq.n	8004834 <HAL_SPI_TransmitReceive+0x1c4>
 8004738:	2320      	movs	r3, #32
 800473a:	6563      	str	r3, [r4, #84]	@ 0x54
 800473c:	2001      	movs	r0, #1
 800473e:	e02e      	b.n	800479e <HAL_SPI_TransmitReceive+0x12e>
 8004740:	6821      	ldr	r1, [r4, #0]
 8004742:	688b      	ldr	r3, [r1, #8]
 8004744:	079a      	lsls	r2, r3, #30
 8004746:	d50d      	bpl.n	8004764 <HAL_SPI_TransmitReceive+0xf4>
 8004748:	8ee3      	ldrh	r3, [r4, #54]	@ 0x36
 800474a:	b29b      	uxth	r3, r3
 800474c:	b153      	cbz	r3, 8004764 <HAL_SPI_TransmitReceive+0xf4>
 800474e:	b145      	cbz	r5, 8004762 <HAL_SPI_TransmitReceive+0xf2>
 8004750:	6b23      	ldr	r3, [r4, #48]	@ 0x30
 8004752:	f833 2b02 	ldrh.w	r2, [r3], #2
 8004756:	60ca      	str	r2, [r1, #12]
 8004758:	6323      	str	r3, [r4, #48]	@ 0x30
 800475a:	8ee3      	ldrh	r3, [r4, #54]	@ 0x36
 800475c:	3b01      	subs	r3, #1
 800475e:	b29b      	uxth	r3, r3
 8004760:	86e3      	strh	r3, [r4, #54]	@ 0x36
 8004762:	2500      	movs	r5, #0
 8004764:	688a      	ldr	r2, [r1, #8]
 8004766:	f012 0201 	ands.w	r2, r2, #1
 800476a:	d00c      	beq.n	8004786 <HAL_SPI_TransmitReceive+0x116>
 800476c:	8fe3      	ldrh	r3, [r4, #62]	@ 0x3e
 800476e:	b29b      	uxth	r3, r3
 8004770:	b14b      	cbz	r3, 8004786 <HAL_SPI_TransmitReceive+0x116>
 8004772:	6ba3      	ldr	r3, [r4, #56]	@ 0x38
 8004774:	68c9      	ldr	r1, [r1, #12]
 8004776:	f823 1b02 	strh.w	r1, [r3], #2
 800477a:	63a3      	str	r3, [r4, #56]	@ 0x38
 800477c:	8fe3      	ldrh	r3, [r4, #62]	@ 0x3e
 800477e:	3b01      	subs	r3, #1
 8004780:	b29b      	uxth	r3, r3
 8004782:	87e3      	strh	r3, [r4, #62]	@ 0x3e
 8004784:	4615      	mov	r5, r2
 8004786:	f7fd fd61 	bl	800224c <HAL_GetTick>
 800478a:	1bc0      	subs	r0, r0, r7
 800478c:	4540      	cmp	r0, r8
 800478e:	d3c6      	bcc.n	800471e <HAL_SPI_TransmitReceive+0xae>
 8004790:	f1b8 3fff 	cmp.w	r8, #4294967295	@ 0xffffffff
 8004794:	d0c3      	beq.n	800471e <HAL_SPI_TransmitReceive+0xae>
 8004796:	2301      	movs	r3, #1
 8004798:	f884 3051 	strb.w	r3, [r4, #81]	@ 0x51
 800479c:	2003      	movs	r0, #3
 800479e:	2300      	movs	r3, #0
 80047a0:	f884 3050 	strb.w	r3, [r4, #80]	@ 0x50
 80047a4:	b003      	add	sp, #12
 80047a6:	e8bd 83f0 	ldmia.w	sp!, {r4, r5, r6, r7, r8, r9, pc}
 80047aa:	b10a      	cbz	r2, 80047b0 <HAL_SPI_TransmitReceive+0x140>
 80047ac:	2e01      	cmp	r6, #1
 80047ae:	d108      	bne.n	80047c2 <HAL_SPI_TransmitReceive+0x152>
 80047b0:	782a      	ldrb	r2, [r5, #0]
 80047b2:	731a      	strb	r2, [r3, #12]
 80047b4:	6b23      	ldr	r3, [r4, #48]	@ 0x30
 80047b6:	3301      	adds	r3, #1
 80047b8:	6323      	str	r3, [r4, #48]	@ 0x30
 80047ba:	8ee3      	ldrh	r3, [r4, #54]	@ 0x36
 80047bc:	3b01      	subs	r3, #1
 80047be:	b29b      	uxth	r3, r3
 80047c0:	86e3      	strh	r3, [r4, #54]	@ 0x36
 80047c2:	2501      	movs	r5, #1
 80047c4:	e02d      	b.n	8004822 <HAL_SPI_TransmitReceive+0x1b2>
 80047c6:	6822      	ldr	r2, [r4, #0]
 80047c8:	6893      	ldr	r3, [r2, #8]
 80047ca:	079b      	lsls	r3, r3, #30
 80047cc:	d50e      	bpl.n	80047ec <HAL_SPI_TransmitReceive+0x17c>
 80047ce:	8ee3      	ldrh	r3, [r4, #54]	@ 0x36
 80047d0:	b29b      	uxth	r3, r3
 80047d2:	b15b      	cbz	r3, 80047ec <HAL_SPI_TransmitReceive+0x17c>
 80047d4:	b14d      	cbz	r5, 80047ea <HAL_SPI_TransmitReceive+0x17a>
 80047d6:	6b23      	ldr	r3, [r4, #48]	@ 0x30
 80047d8:	781b      	ldrb	r3, [r3, #0]
 80047da:	7313      	strb	r3, [r2, #12]
 80047dc:	6b23      	ldr	r3, [r4, #48]	@ 0x30
 80047de:	3301      	adds	r3, #1
 80047e0:	6323      	str	r3, [r4, #48]	@ 0x30
 80047e2:	8ee3      	ldrh	r3, [r4, #54]	@ 0x36
 80047e4:	3b01      	subs	r3, #1
 80047e6:	b29b      	uxth	r3, r3
 80047e8:	86e3      	strh	r3, [r4, #54]	@ 0x36
 80047ea:	2500      	movs	r5, #0
 80047ec:	6822      	ldr	r2, [r4, #0]
 80047ee:	6891      	ldr	r1, [r2, #8]
 80047f0:	f011 0101 	ands.w	r1, r1, #1
 80047f4:	d00d      	beq.n	8004812 <HAL_SPI_TransmitReceive+0x1a2>
 80047f6:	8fe3      	ldrh	r3, [r4, #62]	@ 0x3e
 80047f8:	b29b      	uxth	r3, r3
 80047fa:	b153      	cbz	r3, 8004812 <HAL_SPI_TransmitReceive+0x1a2>
 80047fc:	6ba3      	ldr	r3, [r4, #56]	@ 0x38
 80047fe:	68d2      	ldr	r2, [r2, #12]
 8004800:	701a      	strb	r2, [r3, #0]
 8004802:	6ba3      	ldr	r3, [r4, #56]	@ 0x38
 8004804:	3301      	adds	r3, #1
 8004806:	63a3      	str	r3, [r4, #56]	@ 0x38
 8004808:	8fe3      	ldrh	r3, [r4, #62]	@ 0x3e
 800480a:	3b01      	subs	r3, #1
 800480c:	b29b      	uxth	r3, r3
 800480e:	87e3      	strh	r3, [r4, #62]	@ 0x3e
 8004810:	460d      	mov	r5, r1
 8004812:	f7fd fd1b 	bl	800224c <HAL_GetTick>
 8004816:	1bc0      	subs	r0, r0, r7
 8004818:	4540      	cmp	r0, r8
 800481a:	d302      	bcc.n	8004822 <HAL_SPI_TransmitReceive+0x1b2>
 800481c:	f1b8 3fff 	cmp.w	r8, #4294967295	@ 0xffffffff
 8004820:	d1b9      	bne.n	8004796 <HAL_SPI_TransmitReceive+0x126>
 8004822:	8ee3      	ldrh	r3, [r4, #54]	@ 0x36
 8004824:	b29b      	uxth	r3, r3
 8004826:	2b00      	cmp	r3, #0
 8004828:	d1cd      	bne.n	80047c6 <HAL_SPI_TransmitReceive+0x156>
 800482a:	8fe3      	ldrh	r3, [r4, #62]	@ 0x3e
 800482c:	b29b      	uxth	r3, r3
 800482e:	2b00      	cmp	r3, #0
 8004830:	d1c9      	bne.n	80047c6 <HAL_SPI_TransmitReceive+0x156>
 8004832:	e77a      	b.n	800472a <HAL_SPI_TransmitReceive+0xba>
 8004834:	68a3      	ldr	r3, [r4, #8]
 8004836:	b933      	cbnz	r3, 8004846 <HAL_SPI_TransmitReceive+0x1d6>
 8004838:	6823      	ldr	r3, [r4, #0]
 800483a:	9001      	str	r0, [sp, #4]
 800483c:	68da      	ldr	r2, [r3, #12]
 800483e:	9201      	str	r2, [sp, #4]
 8004840:	689b      	ldr	r3, [r3, #8]
 8004842:	9301      	str	r3, [sp, #4]
 8004844:	9b01      	ldr	r3, [sp, #4]
 8004846:	6d63      	ldr	r3, [r4, #84]	@ 0x54
 8004848:	2b00      	cmp	r3, #0
 800484a:	f47f af77 	bne.w	800473c <HAL_SPI_TransmitReceive+0xcc>
 800484e:	2301      	movs	r3, #1
 8004850:	f884 3051 	strb.w	r3, [r4, #81]	@ 0x51
 8004854:	e7a3      	b.n	800479e <HAL_SPI_TransmitReceive+0x12e>
 8004856:	2002      	movs	r0, #2
 8004858:	e7a1      	b.n	800479e <HAL_SPI_TransmitReceive+0x12e>
 800485a:	2002      	movs	r0, #2
 800485c:	e7a2      	b.n	80047a4 <HAL_SPI_TransmitReceive+0x134>

0800485e <HAL_SPI_Receive>:
 800485e:	e92d 47f3 	stmdb	sp!, {r0, r1, r4, r5, r6, r7, r8, r9, sl, lr}
 8004862:	461e      	mov	r6, r3
 8004864:	f890 3051 	ldrb.w	r3, [r0, #81]	@ 0x51
 8004868:	2b01      	cmp	r3, #1
 800486a:	4604      	mov	r4, r0
 800486c:	468a      	mov	sl, r1
 800486e:	4690      	mov	r8, r2
 8004870:	b2dd      	uxtb	r5, r3
 8004872:	f040 8095 	bne.w	80049a0 <HAL_SPI_Receive+0x142>
 8004876:	6843      	ldr	r3, [r0, #4]
 8004878:	f5b3 7f82 	cmp.w	r3, #260	@ 0x104
 800487c:	d10e      	bne.n	800489c <HAL_SPI_Receive+0x3e>
 800487e:	6883      	ldr	r3, [r0, #8]
 8004880:	b963      	cbnz	r3, 800489c <HAL_SPI_Receive+0x3e>
 8004882:	2304      	movs	r3, #4
 8004884:	f880 3051 	strb.w	r3, [r0, #81]	@ 0x51
 8004888:	4613      	mov	r3, r2
 800488a:	9600      	str	r6, [sp, #0]
 800488c:	460a      	mov	r2, r1
 800488e:	f7ff feef 	bl	8004670 <HAL_SPI_TransmitReceive>
 8004892:	4605      	mov	r5, r0
 8004894:	4628      	mov	r0, r5
 8004896:	b002      	add	sp, #8
 8004898:	e8bd 87f0 	ldmia.w	sp!, {r4, r5, r6, r7, r8, r9, sl, pc}
 800489c:	f894 3050 	ldrb.w	r3, [r4, #80]	@ 0x50
 80048a0:	2b01      	cmp	r3, #1
 80048a2:	d07f      	beq.n	80049a4 <HAL_SPI_Receive+0x146>
 80048a4:	2301      	movs	r3, #1
 80048a6:	f884 3050 	strb.w	r3, [r4, #80]	@ 0x50
 80048aa:	f7fd fccf 	bl	800224c <HAL_GetTick>
 80048ae:	4681      	mov	r9, r0
 80048b0:	f1ba 0f00 	cmp.w	sl, #0
 80048b4:	d064      	beq.n	8004980 <HAL_SPI_Receive+0x122>
 80048b6:	f1b8 0f00 	cmp.w	r8, #0
 80048ba:	d061      	beq.n	8004980 <HAL_SPI_Receive+0x122>
 80048bc:	68a2      	ldr	r2, [r4, #8]
 80048be:	f8c4 a038 	str.w	sl, [r4, #56]	@ 0x38
 80048c2:	2700      	movs	r7, #0
 80048c4:	2304      	movs	r3, #4
 80048c6:	f5b2 4f00 	cmp.w	r2, #32768	@ 0x8000
 80048ca:	f884 3051 	strb.w	r3, [r4, #81]	@ 0x51
 80048ce:	e9c4 7710 	strd	r7, r7, [r4, #64]	@ 0x40
 80048d2:	6567      	str	r7, [r4, #84]	@ 0x54
 80048d4:	6823      	ldr	r3, [r4, #0]
 80048d6:	f8a4 803e 	strh.w	r8, [r4, #62]	@ 0x3e
 80048da:	f8a4 803c 	strh.w	r8, [r4, #60]	@ 0x3c
 80048de:	6327      	str	r7, [r4, #48]	@ 0x30
 80048e0:	86a7      	strh	r7, [r4, #52]	@ 0x34
 80048e2:	86e7      	strh	r7, [r4, #54]	@ 0x36
 80048e4:	d107      	bne.n	80048f6 <HAL_SPI_Receive+0x98>
 80048e6:	681a      	ldr	r2, [r3, #0]
 80048e8:	f022 0240 	bic.w	r2, r2, #64	@ 0x40
 80048ec:	601a      	str	r2, [r3, #0]
 80048ee:	681a      	ldr	r2, [r3, #0]
 80048f0:	f422 4280 	bic.w	r2, r2, #16384	@ 0x4000
 80048f4:	601a      	str	r2, [r3, #0]
 80048f6:	681a      	ldr	r2, [r3, #0]
 80048f8:	0657      	lsls	r7, r2, #25
 80048fa:	bf5e      	ittt	pl
 80048fc:	681a      	ldrpl	r2, [r3, #0]
 80048fe:	f042 0240 	orrpl.w	r2, r2, #64	@ 0x40
 8004902:	601a      	strpl	r2, [r3, #0]
 8004904:	68e3      	ldr	r3, [r4, #12]
 8004906:	b1f3      	cbz	r3, 8004946 <HAL_SPI_Receive+0xe8>
 8004908:	8fe3      	ldrh	r3, [r4, #62]	@ 0x3e
 800490a:	b29b      	uxth	r3, r3
 800490c:	b1fb      	cbz	r3, 800494e <HAL_SPI_Receive+0xf0>
 800490e:	6823      	ldr	r3, [r4, #0]
 8004910:	689a      	ldr	r2, [r3, #8]
 8004912:	07d2      	lsls	r2, r2, #31
 8004914:	d538      	bpl.n	8004988 <HAL_SPI_Receive+0x12a>
 8004916:	68da      	ldr	r2, [r3, #12]
 8004918:	6ba3      	ldr	r3, [r4, #56]	@ 0x38
 800491a:	f823 2b02 	strh.w	r2, [r3], #2
 800491e:	63a3      	str	r3, [r4, #56]	@ 0x38
 8004920:	8fe3      	ldrh	r3, [r4, #62]	@ 0x3e
 8004922:	3b01      	subs	r3, #1
 8004924:	b29b      	uxth	r3, r3
 8004926:	87e3      	strh	r3, [r4, #62]	@ 0x3e
 8004928:	e7ee      	b.n	8004908 <HAL_SPI_Receive+0xaa>
 800492a:	6823      	ldr	r3, [r4, #0]
 800492c:	689a      	ldr	r2, [r3, #8]
 800492e:	07d0      	lsls	r0, r2, #31
 8004930:	d51a      	bpl.n	8004968 <HAL_SPI_Receive+0x10a>
 8004932:	6ba2      	ldr	r2, [r4, #56]	@ 0x38
 8004934:	7b1b      	ldrb	r3, [r3, #12]
 8004936:	7013      	strb	r3, [r2, #0]
 8004938:	6ba3      	ldr	r3, [r4, #56]	@ 0x38
 800493a:	3301      	adds	r3, #1
 800493c:	63a3      	str	r3, [r4, #56]	@ 0x38
 800493e:	8fe3      	ldrh	r3, [r4, #62]	@ 0x3e
 8004940:	3b01      	subs	r3, #1
 8004942:	b29b      	uxth	r3, r3
 8004944:	87e3      	strh	r3, [r4, #62]	@ 0x3e
 8004946:	8fe3      	ldrh	r3, [r4, #62]	@ 0x3e
 8004948:	b29b      	uxth	r3, r3
 800494a:	2b00      	cmp	r3, #0
 800494c:	d1ed      	bne.n	800492a <HAL_SPI_Receive+0xcc>
 800494e:	464a      	mov	r2, r9
 8004950:	4631      	mov	r1, r6
 8004952:	4620      	mov	r0, r4
 8004954:	f7ff fd4e 	bl	80043f4 <SPI_EndRxTransaction>
 8004958:	b9f8      	cbnz	r0, 800499a <HAL_SPI_Receive+0x13c>
 800495a:	6d63      	ldr	r3, [r4, #84]	@ 0x54
 800495c:	b983      	cbnz	r3, 8004980 <HAL_SPI_Receive+0x122>
 800495e:	2201      	movs	r2, #1
 8004960:	f884 2051 	strb.w	r2, [r4, #81]	@ 0x51
 8004964:	461d      	mov	r5, r3
 8004966:	e00b      	b.n	8004980 <HAL_SPI_Receive+0x122>
 8004968:	f7fd fc70 	bl	800224c <HAL_GetTick>
 800496c:	eba0 0009 	sub.w	r0, r0, r9
 8004970:	42b0      	cmp	r0, r6
 8004972:	d3e8      	bcc.n	8004946 <HAL_SPI_Receive+0xe8>
 8004974:	1c71      	adds	r1, r6, #1
 8004976:	d0e6      	beq.n	8004946 <HAL_SPI_Receive+0xe8>
 8004978:	2301      	movs	r3, #1
 800497a:	f884 3051 	strb.w	r3, [r4, #81]	@ 0x51
 800497e:	2503      	movs	r5, #3
 8004980:	2300      	movs	r3, #0
 8004982:	f884 3050 	strb.w	r3, [r4, #80]	@ 0x50
 8004986:	e785      	b.n	8004894 <HAL_SPI_Receive+0x36>
 8004988:	f7fd fc60 	bl	800224c <HAL_GetTick>
 800498c:	eba0 0009 	sub.w	r0, r0, r9
 8004990:	42b0      	cmp	r0, r6
 8004992:	d3b9      	bcc.n	8004908 <HAL_SPI_Receive+0xaa>
 8004994:	1c73      	adds	r3, r6, #1
 8004996:	d0b7      	beq.n	8004908 <HAL_SPI_Receive+0xaa>
 8004998:	e7ee      	b.n	8004978 <HAL_SPI_Receive+0x11a>
 800499a:	2320      	movs	r3, #32
 800499c:	6563      	str	r3, [r4, #84]	@ 0x54
 800499e:	e7dc      	b.n	800495a <HAL_SPI_Receive+0xfc>
 80049a0:	2502      	movs	r5, #2
 80049a2:	e7ed      	b.n	8004980 <HAL_SPI_Receive+0x122>
 80049a4:	2502      	movs	r5, #2
 80049a6:	e775      	b.n	8004894 <HAL_SPI_Receive+0x36>

080049a8 <HAL_SPI_Transmit_DMA>:
 80049a8:	b538      	push	{r3, r4, r5, lr}
 80049aa:	f890 3050 	ldrb.w	r3, [r0, #80]	@ 0x50
 80049ae:	2b01      	cmp	r3, #1
 80049b0:	4604      	mov	r4, r0
 80049b2:	d051      	beq.n	8004a58 <HAL_SPI_Transmit_DMA+0xb0>
 80049b4:	2301      	movs	r3, #1
 80049b6:	f880 3050 	strb.w	r3, [r0, #80]	@ 0x50
 80049ba:	f890 3051 	ldrb.w	r3, [r0, #81]	@ 0x51
 80049be:	2b01      	cmp	r3, #1
 80049c0:	b2dd      	uxtb	r5, r3
 80049c2:	d147      	bne.n	8004a54 <HAL_SPI_Transmit_DMA+0xac>
 80049c4:	2900      	cmp	r1, #0
 80049c6:	d02e      	beq.n	8004a26 <HAL_SPI_Transmit_DMA+0x7e>
 80049c8:	2a00      	cmp	r2, #0
 80049ca:	d02c      	beq.n	8004a26 <HAL_SPI_Transmit_DMA+0x7e>
 80049cc:	2303      	movs	r3, #3
 80049ce:	f880 3051 	strb.w	r3, [r0, #81]	@ 0x51
 80049d2:	2300      	movs	r3, #0
 80049d4:	6543      	str	r3, [r0, #84]	@ 0x54
 80049d6:	e9c0 3310 	strd	r3, r3, [r0, #64]	@ 0x40
 80049da:	86c2      	strh	r2, [r0, #54]	@ 0x36
 80049dc:	6383      	str	r3, [r0, #56]	@ 0x38
 80049de:	8783      	strh	r3, [r0, #60]	@ 0x3c
 80049e0:	87c3      	strh	r3, [r0, #62]	@ 0x3e
 80049e2:	6883      	ldr	r3, [r0, #8]
 80049e4:	8682      	strh	r2, [r0, #52]	@ 0x34
 80049e6:	f5b3 4f00 	cmp.w	r3, #32768	@ 0x8000
 80049ea:	6802      	ldr	r2, [r0, #0]
 80049ec:	6301      	str	r1, [r0, #48]	@ 0x30
 80049ee:	d107      	bne.n	8004a00 <HAL_SPI_Transmit_DMA+0x58>
 80049f0:	6813      	ldr	r3, [r2, #0]
 80049f2:	f023 0340 	bic.w	r3, r3, #64	@ 0x40
 80049f6:	6013      	str	r3, [r2, #0]
 80049f8:	6813      	ldr	r3, [r2, #0]
 80049fa:	f443 4380 	orr.w	r3, r3, #16384	@ 0x4000
 80049fe:	6013      	str	r3, [r2, #0]
 8004a00:	6ca0      	ldr	r0, [r4, #72]	@ 0x48
 8004a02:	4b16      	ldr	r3, [pc, #88]	@ (8004a5c <HAL_SPI_Transmit_DMA+0xb4>)
 8004a04:	6403      	str	r3, [r0, #64]	@ 0x40
 8004a06:	4b16      	ldr	r3, [pc, #88]	@ (8004a60 <HAL_SPI_Transmit_DMA+0xb8>)
 8004a08:	63c3      	str	r3, [r0, #60]	@ 0x3c
 8004a0a:	4b16      	ldr	r3, [pc, #88]	@ (8004a64 <HAL_SPI_Transmit_DMA+0xbc>)
 8004a0c:	64c3      	str	r3, [r0, #76]	@ 0x4c
 8004a0e:	2300      	movs	r3, #0
 8004a10:	6503      	str	r3, [r0, #80]	@ 0x50
 8004a12:	8ee3      	ldrh	r3, [r4, #54]	@ 0x36
 8004a14:	320c      	adds	r2, #12
 8004a16:	b29b      	uxth	r3, r3
 8004a18:	f7fe f842 	bl	8002aa0 <HAL_DMA_Start_IT>
 8004a1c:	b140      	cbz	r0, 8004a30 <HAL_SPI_Transmit_DMA+0x88>
 8004a1e:	6d63      	ldr	r3, [r4, #84]	@ 0x54
 8004a20:	f043 0310 	orr.w	r3, r3, #16
 8004a24:	6563      	str	r3, [r4, #84]	@ 0x54
 8004a26:	2300      	movs	r3, #0
 8004a28:	f884 3050 	strb.w	r3, [r4, #80]	@ 0x50
 8004a2c:	4628      	mov	r0, r5
 8004a2e:	bd38      	pop	{r3, r4, r5, pc}
 8004a30:	6823      	ldr	r3, [r4, #0]
 8004a32:	681a      	ldr	r2, [r3, #0]
 8004a34:	0652      	lsls	r2, r2, #25
 8004a36:	bf5e      	ittt	pl
 8004a38:	681a      	ldrpl	r2, [r3, #0]
 8004a3a:	f042 0240 	orrpl.w	r2, r2, #64	@ 0x40
 8004a3e:	601a      	strpl	r2, [r3, #0]
 8004a40:	685a      	ldr	r2, [r3, #4]
 8004a42:	f042 0220 	orr.w	r2, r2, #32
 8004a46:	605a      	str	r2, [r3, #4]
 8004a48:	685a      	ldr	r2, [r3, #4]
 8004a4a:	f042 0202 	orr.w	r2, r2, #2
 8004a4e:	605a      	str	r2, [r3, #4]
 8004a50:	2500      	movs	r5, #0
 8004a52:	e7e8      	b.n	8004a26 <HAL_SPI_Transmit_DMA+0x7e>
 8004a54:	2502      	movs	r5, #2
 8004a56:	e7e6      	b.n	8004a26 <HAL_SPI_Transmit_DMA+0x7e>
 8004a58:	2502      	movs	r5, #2
 8004a5a:	e7e7      	b.n	8004a2c <HAL_SPI_Transmit_DMA+0x84>
 8004a5c:	08004a6b 	.word	0x08004a6b
 8004a60:	08004a99 	.word	0x08004a99
 8004a64:	08004a77 	.word	0x08004a77

08004a68 <HAL_SPI_TxHalfCpltCallback>:
 8004a68:	4770      	bx	lr

08004a6a <SPI_DMAHalfTransmitCplt>:
 8004a6a:	b508      	push	{r3, lr}
 8004a6c:	6b80      	ldr	r0, [r0, #56]	@ 0x38
 8004a6e:	f7ff fffb 	bl	8004a68 <HAL_SPI_TxHalfCpltCallback>
 8004a72:	bd08      	pop	{r3, pc}

08004a74 <HAL_SPI_ErrorCallback>:
 8004a74:	4770      	bx	lr

08004a76 <SPI_DMAError>:
 8004a76:	6b80      	ldr	r0, [r0, #56]	@ 0x38
 8004a78:	6802      	ldr	r2, [r0, #0]
 8004a7a:	b508      	push	{r3, lr}
 8004a7c:	6853      	ldr	r3, [r2, #4]
 8004a7e:	f023 0303 	bic.w	r3, r3, #3
 8004a82:	6053      	str	r3, [r2, #4]
 8004a84:	6d43      	ldr	r3, [r0, #84]	@ 0x54
 8004a86:	f043 0310 	orr.w	r3, r3, #16
 8004a8a:	6543      	str	r3, [r0, #84]	@ 0x54
 8004a8c:	2301      	movs	r3, #1
 8004a8e:	f880 3051 	strb.w	r3, [r0, #81]	@ 0x51
 8004a92:	f7ff ffef 	bl	8004a74 <HAL_SPI_ErrorCallback>
 8004a96:	bd08      	pop	{r3, pc}

08004a98 <SPI_DMATransmitCplt>:
 8004a98:	b537      	push	{r0, r1, r2, r4, r5, lr}
 8004a9a:	4605      	mov	r5, r0
 8004a9c:	6b84      	ldr	r4, [r0, #56]	@ 0x38
 8004a9e:	f7fd fbd5 	bl	800224c <HAL_GetTick>
 8004aa2:	682b      	ldr	r3, [r5, #0]
 8004aa4:	681b      	ldr	r3, [r3, #0]
 8004aa6:	05db      	lsls	r3, r3, #23
 8004aa8:	4602      	mov	r2, r0
 8004aaa:	d426      	bmi.n	8004afa <SPI_DMATransmitCplt+0x62>
 8004aac:	6823      	ldr	r3, [r4, #0]
 8004aae:	6859      	ldr	r1, [r3, #4]
 8004ab0:	f021 0120 	bic.w	r1, r1, #32
 8004ab4:	6059      	str	r1, [r3, #4]
 8004ab6:	6859      	ldr	r1, [r3, #4]
 8004ab8:	f021 0102 	bic.w	r1, r1, #2
 8004abc:	6059      	str	r1, [r3, #4]
 8004abe:	4620      	mov	r0, r4
 8004ac0:	2164      	movs	r1, #100	@ 0x64
 8004ac2:	f7ff fc5b 	bl	800437c <SPI_EndRxTxTransaction>
 8004ac6:	b118      	cbz	r0, 8004ad0 <SPI_DMATransmitCplt+0x38>
 8004ac8:	6d63      	ldr	r3, [r4, #84]	@ 0x54
 8004aca:	f043 0320 	orr.w	r3, r3, #32
 8004ace:	6563      	str	r3, [r4, #84]	@ 0x54
 8004ad0:	68a3      	ldr	r3, [r4, #8]
 8004ad2:	b933      	cbnz	r3, 8004ae2 <SPI_DMATransmitCplt+0x4a>
 8004ad4:	9301      	str	r3, [sp, #4]
 8004ad6:	6823      	ldr	r3, [r4, #0]
 8004ad8:	68da      	ldr	r2, [r3, #12]
 8004ada:	9201      	str	r2, [sp, #4]
 8004adc:	689b      	ldr	r3, [r3, #8]
 8004ade:	9301      	str	r3, [sp, #4]
 8004ae0:	9b01      	ldr	r3, [sp, #4]
 8004ae2:	2300      	movs	r3, #0
 8004ae4:	86e3      	strh	r3, [r4, #54]	@ 0x36
 8004ae6:	2301      	movs	r3, #1
 8004ae8:	f884 3051 	strb.w	r3, [r4, #81]	@ 0x51
 8004aec:	6d63      	ldr	r3, [r4, #84]	@ 0x54
 8004aee:	b123      	cbz	r3, 8004afa <SPI_DMATransmitCplt+0x62>
 8004af0:	4620      	mov	r0, r4
 8004af2:	f7ff ffbf 	bl	8004a74 <HAL_SPI_ErrorCallback>
 8004af6:	b003      	add	sp, #12
 8004af8:	bd30      	pop	{r4, r5, pc}
 8004afa:	4620      	mov	r0, r4
 8004afc:	f7fd fac8 	bl	8002090 <HAL_SPI_TxCpltCallback>
 8004b00:	e7f9      	b.n	8004af6 <SPI_DMATransmitCplt+0x5e>
	...

08004b04 <HAL_TIM_Base_Start_IT>:
 8004b04:	f890 303d 	ldrb.w	r3, [r0, #61]	@ 0x3d
 8004b08:	2b01      	cmp	r3, #1
 8004b0a:	d130      	bne.n	8004b6e <HAL_TIM_Base_Start_IT+0x6a>
 8004b0c:	2302      	movs	r3, #2
 8004b0e:	f880 303d 	strb.w	r3, [r0, #61]	@ 0x3d
 8004b12:	6803      	ldr	r3, [r0, #0]
 8004b14:	68da      	ldr	r2, [r3, #12]
 8004b16:	f042 0201 	orr.w	r2, r2, #1
 8004b1a:	60da      	str	r2, [r3, #12]
 8004b1c:	4a15      	ldr	r2, [pc, #84]	@ (8004b74 <HAL_TIM_Base_Start_IT+0x70>)
 8004b1e:	4293      	cmp	r3, r2
 8004b20:	d01a      	beq.n	8004b58 <HAL_TIM_Base_Start_IT+0x54>
 8004b22:	f1b3 4f80 	cmp.w	r3, #1073741824	@ 0x40000000
 8004b26:	d017      	beq.n	8004b58 <HAL_TIM_Base_Start_IT+0x54>
 8004b28:	f5a2 427c 	sub.w	r2, r2, #64512	@ 0xfc00
 8004b2c:	4293      	cmp	r3, r2
 8004b2e:	d013      	beq.n	8004b58 <HAL_TIM_Base_Start_IT+0x54>
 8004b30:	f502 6280 	add.w	r2, r2, #1024	@ 0x400
 8004b34:	4293      	cmp	r3, r2
 8004b36:	d00f      	beq.n	8004b58 <HAL_TIM_Base_Start_IT+0x54>
 8004b38:	f502 6280 	add.w	r2, r2, #1024	@ 0x400
 8004b3c:	4293      	cmp	r3, r2
 8004b3e:	d00b      	beq.n	8004b58 <HAL_TIM_Base_Start_IT+0x54>
 8004b40:	f502 4278 	add.w	r2, r2, #63488	@ 0xf800
 8004b44:	4293      	cmp	r3, r2
 8004b46:	d007      	beq.n	8004b58 <HAL_TIM_Base_Start_IT+0x54>
 8004b48:	f502 5270 	add.w	r2, r2, #15360	@ 0x3c00
 8004b4c:	4293      	cmp	r3, r2
 8004b4e:	d003      	beq.n	8004b58 <HAL_TIM_Base_Start_IT+0x54>
 8004b50:	f5a2 3294 	sub.w	r2, r2, #75776	@ 0x12800
 8004b54:	4293      	cmp	r3, r2
 8004b56:	d104      	bne.n	8004b62 <HAL_TIM_Base_Start_IT+0x5e>
 8004b58:	689a      	ldr	r2, [r3, #8]
 8004b5a:	f002 0207 	and.w	r2, r2, #7
 8004b5e:	2a06      	cmp	r2, #6
 8004b60:	d003      	beq.n	8004b6a <HAL_TIM_Base_Start_IT+0x66>
 8004b62:	681a      	ldr	r2, [r3, #0]
 8004b64:	f042 0201 	orr.w	r2, r2, #1
 8004b68:	601a      	str	r2, [r3, #0]
 8004b6a:	2000      	movs	r0, #0
 8004b6c:	4770      	bx	lr
 8004b6e:	2001      	movs	r0, #1
 8004b70:	4770      	bx	lr
 8004b72:	bf00      	nop
 8004b74:	40010000 	.word	0x40010000

08004b78 <HAL_TIM_PeriodElapsedCallback>:
 8004b78:	4770      	bx	lr

08004b7a <HAL_TIM_OC_DelayElapsedCallback>:
 8004b7a:	4770      	bx	lr

08004b7c <HAL_TIM_IC_CaptureCallback>:
 8004b7c:	4770      	bx	lr

08004b7e <HAL_TIM_PWM_PulseFinishedCallback>:
 8004b7e:	4770      	bx	lr

08004b80 <HAL_TIM_TriggerCallback>:
 8004b80:	4770      	bx	lr

08004b82 <HAL_TIM_IRQHandler>:
 8004b82:	6803      	ldr	r3, [r0, #0]
 8004b84:	b570      	push	{r4, r5, r6, lr}
 8004b86:	68dd      	ldr	r5, [r3, #12]
 8004b88:	691e      	ldr	r6, [r3, #16]
 8004b8a:	07b1      	lsls	r1, r6, #30
 8004b8c:	4604      	mov	r4, r0
 8004b8e:	d50d      	bpl.n	8004bac <HAL_TIM_IRQHandler+0x2a>
 8004b90:	07aa      	lsls	r2, r5, #30
 8004b92:	d50b      	bpl.n	8004bac <HAL_TIM_IRQHandler+0x2a>
 8004b94:	f06f 0202 	mvn.w	r2, #2
 8004b98:	611a      	str	r2, [r3, #16]
 8004b9a:	2201      	movs	r2, #1
 8004b9c:	7702      	strb	r2, [r0, #28]
 8004b9e:	699b      	ldr	r3, [r3, #24]
 8004ba0:	079b      	lsls	r3, r3, #30
 8004ba2:	d069      	beq.n	8004c78 <HAL_TIM_IRQHandler+0xf6>
 8004ba4:	f7ff ffea 	bl	8004b7c <HAL_TIM_IC_CaptureCallback>
 8004ba8:	2300      	movs	r3, #0
 8004baa:	7723      	strb	r3, [r4, #28]
 8004bac:	0771      	lsls	r1, r6, #29
 8004bae:	d510      	bpl.n	8004bd2 <HAL_TIM_IRQHandler+0x50>
 8004bb0:	076a      	lsls	r2, r5, #29
 8004bb2:	d50e      	bpl.n	8004bd2 <HAL_TIM_IRQHandler+0x50>
 8004bb4:	6823      	ldr	r3, [r4, #0]
 8004bb6:	f06f 0204 	mvn.w	r2, #4
 8004bba:	611a      	str	r2, [r3, #16]
 8004bbc:	2202      	movs	r2, #2
 8004bbe:	7722      	strb	r2, [r4, #28]
 8004bc0:	699b      	ldr	r3, [r3, #24]
 8004bc2:	f413 7f40 	tst.w	r3, #768	@ 0x300
 8004bc6:	4620      	mov	r0, r4
 8004bc8:	d05c      	beq.n	8004c84 <HAL_TIM_IRQHandler+0x102>
 8004bca:	f7ff ffd7 	bl	8004b7c <HAL_TIM_IC_CaptureCallback>
 8004bce:	2300      	movs	r3, #0
 8004bd0:	7723      	strb	r3, [r4, #28]
 8004bd2:	0733      	lsls	r3, r6, #28
 8004bd4:	d50f      	bpl.n	8004bf6 <HAL_TIM_IRQHandler+0x74>
 8004bd6:	0728      	lsls	r0, r5, #28
 8004bd8:	d50d      	bpl.n	8004bf6 <HAL_TIM_IRQHandler+0x74>
 8004bda:	6823      	ldr	r3, [r4, #0]
 8004bdc:	f06f 0208 	mvn.w	r2, #8
 8004be0:	611a      	str	r2, [r3, #16]
 8004be2:	2204      	movs	r2, #4
 8004be4:	7722      	strb	r2, [r4, #28]
 8004be6:	69db      	ldr	r3, [r3, #28]
 8004be8:	0799      	lsls	r1, r3, #30
 8004bea:	4620      	mov	r0, r4
 8004bec:	d050      	beq.n	8004c90 <HAL_TIM_IRQHandler+0x10e>
 8004bee:	f7ff ffc5 	bl	8004b7c <HAL_TIM_IC_CaptureCallback>
 8004bf2:	2300      	movs	r3, #0
 8004bf4:	7723      	strb	r3, [r4, #28]
 8004bf6:	06f2      	lsls	r2, r6, #27
 8004bf8:	d510      	bpl.n	8004c1c <HAL_TIM_IRQHandler+0x9a>
 8004bfa:	06eb      	lsls	r3, r5, #27
 8004bfc:	d50e      	bpl.n	8004c1c <HAL_TIM_IRQHandler+0x9a>
 8004bfe:	6823      	ldr	r3, [r4, #0]
 8004c00:	f06f 0210 	mvn.w	r2, #16
 8004c04:	611a      	str	r2, [r3, #16]
 8004c06:	2208      	movs	r2, #8
 8004c08:	7722      	strb	r2, [r4, #28]
 8004c0a:	69db      	ldr	r3, [r3, #28]
 8004c0c:	f413 7f40 	tst.w	r3, #768	@ 0x300
 8004c10:	4620      	mov	r0, r4
 8004c12:	d043      	beq.n	8004c9c <HAL_TIM_IRQHandler+0x11a>
 8004c14:	f7ff ffb2 	bl	8004b7c <HAL_TIM_IC_CaptureCallback>
 8004c18:	2300      	movs	r3, #0
 8004c1a:	7723      	strb	r3, [r4, #28]
 8004c1c:	07f0      	lsls	r0, r6, #31
 8004c1e:	d508      	bpl.n	8004c32 <HAL_TIM_IRQHandler+0xb0>
 8004c20:	07e9      	lsls	r1, r5, #31
 8004c22:	d506      	bpl.n	8004c32 <HAL_TIM_IRQHandler+0xb0>
 8004c24:	6823      	ldr	r3, [r4, #0]
 8004c26:	f06f 0201 	mvn.w	r2, #1
 8004c2a:	611a      	str	r2, [r3, #16]
 8004c2c:	4620      	mov	r0, r4
 8004c2e:	f7ff ffa3 	bl	8004b78 <HAL_TIM_PeriodElapsedCallback>
 8004c32:	0632      	lsls	r2, r6, #24
 8004c34:	d508      	bpl.n	8004c48 <HAL_TIM_IRQHandler+0xc6>
 8004c36:	062b      	lsls	r3, r5, #24
 8004c38:	d506      	bpl.n	8004c48 <HAL_TIM_IRQHandler+0xc6>
 8004c3a:	6823      	ldr	r3, [r4, #0]
 8004c3c:	f06f 0280 	mvn.w	r2, #128	@ 0x80
 8004c40:	611a      	str	r2, [r3, #16]
 8004c42:	4620      	mov	r0, r4
 8004c44:	f000 f909 	bl	8004e5a <HAL_TIMEx_BreakCallback>
 8004c48:	0670      	lsls	r0, r6, #25
 8004c4a:	d508      	bpl.n	8004c5e <HAL_TIM_IRQHandler+0xdc>
 8004c4c:	0669      	lsls	r1, r5, #25
 8004c4e:	d506      	bpl.n	8004c5e <HAL_TIM_IRQHandler+0xdc>
 8004c50:	6823      	ldr	r3, [r4, #0]
 8004c52:	f06f 0240 	mvn.w	r2, #64	@ 0x40
 8004c56:	611a      	str	r2, [r3, #16]
 8004c58:	4620      	mov	r0, r4
 8004c5a:	f7ff ff91 	bl	8004b80 <HAL_TIM_TriggerCallback>
 8004c5e:	06b2      	lsls	r2, r6, #26
 8004c60:	d522      	bpl.n	8004ca8 <HAL_TIM_IRQHandler+0x126>
 8004c62:	06ab      	lsls	r3, r5, #26
 8004c64:	d520      	bpl.n	8004ca8 <HAL_TIM_IRQHandler+0x126>
 8004c66:	6823      	ldr	r3, [r4, #0]
 8004c68:	f06f 0220 	mvn.w	r2, #32
 8004c6c:	4620      	mov	r0, r4
 8004c6e:	611a      	str	r2, [r3, #16]
 8004c70:	e8bd 4070 	ldmia.w	sp!, {r4, r5, r6, lr}
 8004c74:	f000 b8f0 	b.w	8004e58 <HAL_TIMEx_CommutCallback>
 8004c78:	f7ff ff7f 	bl	8004b7a <HAL_TIM_OC_DelayElapsedCallback>
 8004c7c:	4620      	mov	r0, r4
 8004c7e:	f7ff ff7e 	bl	8004b7e <HAL_TIM_PWM_PulseFinishedCallback>
 8004c82:	e791      	b.n	8004ba8 <HAL_TIM_IRQHandler+0x26>
 8004c84:	f7ff ff79 	bl	8004b7a <HAL_TIM_OC_DelayElapsedCallback>
 8004c88:	4620      	mov	r0, r4
 8004c8a:	f7ff ff78 	bl	8004b7e <HAL_TIM_PWM_PulseFinishedCallback>
 8004c8e:	e79e      	b.n	8004bce <HAL_TIM_IRQHandler+0x4c>
 8004c90:	f7ff ff73 	bl	8004b7a <HAL_TIM_OC_DelayElapsedCallback>
 8004c94:	4620      	mov	r0, r4
 8004c96:	f7ff ff72 	bl	8004b7e <HAL_TIM_PWM_PulseFinishedCallback>
 8004c9a:	e7aa      	b.n	8004bf2 <HAL_TIM_IRQHandler+0x70>
 8004c9c:	f7ff ff6d 	bl	8004b7a <HAL_TIM_OC_DelayElapsedCallback>
 8004ca0:	4620      	mov	r0, r4
 8004ca2:	f7ff ff6c 	bl	8004b7e <HAL_TIM_PWM_PulseFinishedCallback>
 8004ca6:	e7b7      	b.n	8004c18 <HAL_TIM_IRQHandler+0x96>
 8004ca8:	bd70      	pop	{r4, r5, r6, pc}
	...

08004cac <TIM_Base_SetConfig>:
 8004cac:	4a33      	ldr	r2, [pc, #204]	@ (8004d7c <TIM_Base_SetConfig+0xd0>)
 8004cae:	6803      	ldr	r3, [r0, #0]
 8004cb0:	4290      	cmp	r0, r2
 8004cb2:	d012      	beq.n	8004cda <TIM_Base_SetConfig+0x2e>
 8004cb4:	f1b0 4f80 	cmp.w	r0, #1073741824	@ 0x40000000
 8004cb8:	d00f      	beq.n	8004cda <TIM_Base_SetConfig+0x2e>
 8004cba:	f5a2 427c 	sub.w	r2, r2, #64512	@ 0xfc00
 8004cbe:	4290      	cmp	r0, r2
 8004cc0:	d00b      	beq.n	8004cda <TIM_Base_SetConfig+0x2e>
 8004cc2:	f502 6280 	add.w	r2, r2, #1024	@ 0x400
 8004cc6:	4290      	cmp	r0, r2
 8004cc8:	d007      	beq.n	8004cda <TIM_Base_SetConfig+0x2e>
 8004cca:	f502 6280 	add.w	r2, r2, #1024	@ 0x400
 8004cce:	4290      	cmp	r0, r2
 8004cd0:	d003      	beq.n	8004cda <TIM_Base_SetConfig+0x2e>
 8004cd2:	f502 4278 	add.w	r2, r2, #63488	@ 0xf800
 8004cd6:	4290      	cmp	r0, r2
 8004cd8:	d119      	bne.n	8004d0e <TIM_Base_SetConfig+0x62>
 8004cda:	684a      	ldr	r2, [r1, #4]
 8004cdc:	f023 0370 	bic.w	r3, r3, #112	@ 0x70
 8004ce0:	4313      	orrs	r3, r2
 8004ce2:	4a26      	ldr	r2, [pc, #152]	@ (8004d7c <TIM_Base_SetConfig+0xd0>)
 8004ce4:	4290      	cmp	r0, r2
 8004ce6:	d029      	beq.n	8004d3c <TIM_Base_SetConfig+0x90>
 8004ce8:	f1b0 4f80 	cmp.w	r0, #1073741824	@ 0x40000000
 8004cec:	d026      	beq.n	8004d3c <TIM_Base_SetConfig+0x90>
 8004cee:	f5a2 427c 	sub.w	r2, r2, #64512	@ 0xfc00
 8004cf2:	4290      	cmp	r0, r2
 8004cf4:	d022      	beq.n	8004d3c <TIM_Base_SetConfig+0x90>
 8004cf6:	f502 6280 	add.w	r2, r2, #1024	@ 0x400
 8004cfa:	4290      	cmp	r0, r2
 8004cfc:	d01e      	beq.n	8004d3c <TIM_Base_SetConfig+0x90>
 8004cfe:	f502 6280 	add.w	r2, r2, #1024	@ 0x400
 8004d02:	4290      	cmp	r0, r2
 8004d04:	d01a      	beq.n	8004d3c <TIM_Base_SetConfig+0x90>
 8004d06:	f502 4278 	add.w	r2, r2, #63488	@ 0xf800
 8004d0a:	4290      	cmp	r0, r2
 8004d0c:	d016      	beq.n	8004d3c <TIM_Base_SetConfig+0x90>
 8004d0e:	4a1c      	ldr	r2, [pc, #112]	@ (8004d80 <TIM_Base_SetConfig+0xd4>)
 8004d10:	4290      	cmp	r0, r2
 8004d12:	d013      	beq.n	8004d3c <TIM_Base_SetConfig+0x90>
 8004d14:	f502 6280 	add.w	r2, r2, #1024	@ 0x400
 8004d18:	4290      	cmp	r0, r2
 8004d1a:	d00f      	beq.n	8004d3c <TIM_Base_SetConfig+0x90>
 8004d1c:	f502 6280 	add.w	r2, r2, #1024	@ 0x400
 8004d20:	4290      	cmp	r0, r2
 8004d22:	d00b      	beq.n	8004d3c <TIM_Base_SetConfig+0x90>
 8004d24:	f5a2 3298 	sub.w	r2, r2, #77824	@ 0x13000
 8004d28:	4290      	cmp	r0, r2
 8004d2a:	d007      	beq.n	8004d3c <TIM_Base_SetConfig+0x90>
 8004d2c:	f502 6280 	add.w	r2, r2, #1024	@ 0x400
 8004d30:	4290      	cmp	r0, r2
 8004d32:	d003      	beq.n	8004d3c <TIM_Base_SetConfig+0x90>
 8004d34:	f502 6280 	add.w	r2, r2, #1024	@ 0x400
 8004d38:	4290      	cmp	r0, r2
 8004d3a:	d103      	bne.n	8004d44 <TIM_Base_SetConfig+0x98>
 8004d3c:	68ca      	ldr	r2, [r1, #12]
 8004d3e:	f423 7340 	bic.w	r3, r3, #768	@ 0x300
 8004d42:	4313      	orrs	r3, r2
 8004d44:	694a      	ldr	r2, [r1, #20]
 8004d46:	f023 0380 	bic.w	r3, r3, #128	@ 0x80
 8004d4a:	4313      	orrs	r3, r2
 8004d4c:	6003      	str	r3, [r0, #0]
 8004d4e:	688b      	ldr	r3, [r1, #8]
 8004d50:	62c3      	str	r3, [r0, #44]	@ 0x2c
 8004d52:	680b      	ldr	r3, [r1, #0]
 8004d54:	6283      	str	r3, [r0, #40]	@ 0x28
 8004d56:	4b09      	ldr	r3, [pc, #36]	@ (8004d7c <TIM_Base_SetConfig+0xd0>)
 8004d58:	4298      	cmp	r0, r3
 8004d5a:	d003      	beq.n	8004d64 <TIM_Base_SetConfig+0xb8>
 8004d5c:	f503 6380 	add.w	r3, r3, #1024	@ 0x400
 8004d60:	4298      	cmp	r0, r3
 8004d62:	d101      	bne.n	8004d68 <TIM_Base_SetConfig+0xbc>
 8004d64:	690b      	ldr	r3, [r1, #16]
 8004d66:	6303      	str	r3, [r0, #48]	@ 0x30
 8004d68:	2301      	movs	r3, #1
 8004d6a:	6143      	str	r3, [r0, #20]
 8004d6c:	6903      	ldr	r3, [r0, #16]
 8004d6e:	07db      	lsls	r3, r3, #31
 8004d70:	bf42      	ittt	mi
 8004d72:	6903      	ldrmi	r3, [r0, #16]
 8004d74:	f023 0301 	bicmi.w	r3, r3, #1
 8004d78:	6103      	strmi	r3, [r0, #16]
 8004d7a:	4770      	bx	lr
 8004d7c:	40010000 	.word	0x40010000
 8004d80:	40014000 	.word	0x40014000

08004d84 <HAL_TIM_Base_Init>:
 8004d84:	b510      	push	{r4, lr}
 8004d86:	4604      	mov	r4, r0
 8004d88:	b330      	cbz	r0, 8004dd8 <HAL_TIM_Base_Init+0x54>
 8004d8a:	f890 303d 	ldrb.w	r3, [r0, #61]	@ 0x3d
 8004d8e:	f003 02ff 	and.w	r2, r3, #255	@ 0xff
 8004d92:	b91b      	cbnz	r3, 8004d9c <HAL_TIM_Base_Init+0x18>
 8004d94:	f880 203c 	strb.w	r2, [r0, #60]	@ 0x3c
 8004d98:	f7fd f8a0 	bl	8001edc <HAL_TIM_Base_MspInit>
 8004d9c:	2302      	movs	r3, #2
 8004d9e:	6820      	ldr	r0, [r4, #0]
 8004da0:	f884 303d 	strb.w	r3, [r4, #61]	@ 0x3d
 8004da4:	1d21      	adds	r1, r4, #4
 8004da6:	f7ff ff81 	bl	8004cac <TIM_Base_SetConfig>
 8004daa:	2301      	movs	r3, #1
 8004dac:	f884 3046 	strb.w	r3, [r4, #70]	@ 0x46
 8004db0:	2000      	movs	r0, #0
 8004db2:	f884 303e 	strb.w	r3, [r4, #62]	@ 0x3e
 8004db6:	f884 303f 	strb.w	r3, [r4, #63]	@ 0x3f
 8004dba:	f884 3040 	strb.w	r3, [r4, #64]	@ 0x40
 8004dbe:	f884 3041 	strb.w	r3, [r4, #65]	@ 0x41
 8004dc2:	f884 3042 	strb.w	r3, [r4, #66]	@ 0x42
 8004dc6:	f884 3043 	strb.w	r3, [r4, #67]	@ 0x43
 8004dca:	f884 3044 	strb.w	r3, [r4, #68]	@ 0x44
 8004dce:	f884 3045 	strb.w	r3, [r4, #69]	@ 0x45
 8004dd2:	f884 303d 	strb.w	r3, [r4, #61]	@ 0x3d
 8004dd6:	bd10      	pop	{r4, pc}
 8004dd8:	2001      	movs	r0, #1
 8004dda:	e7fc      	b.n	8004dd6 <HAL_TIM_Base_Init+0x52>

08004ddc <HAL_TIMEx_MasterConfigSynchronization>:
 8004ddc:	b530      	push	{r4, r5, lr}
 8004dde:	f890 303c 	ldrb.w	r3, [r0, #60]	@ 0x3c
 8004de2:	2b01      	cmp	r3, #1
 8004de4:	4602      	mov	r2, r0
 8004de6:	f04f 0002 	mov.w	r0, #2
 8004dea:	d032      	beq.n	8004e52 <HAL_TIMEx_MasterConfigSynchronization+0x76>
 8004dec:	6813      	ldr	r3, [r2, #0]
 8004dee:	f882 003d 	strb.w	r0, [r2, #61]	@ 0x3d
 8004df2:	685c      	ldr	r4, [r3, #4]
 8004df4:	680d      	ldr	r5, [r1, #0]
 8004df6:	6898      	ldr	r0, [r3, #8]
 8004df8:	f024 0470 	bic.w	r4, r4, #112	@ 0x70
 8004dfc:	432c      	orrs	r4, r5
 8004dfe:	605c      	str	r4, [r3, #4]
 8004e00:	4c14      	ldr	r4, [pc, #80]	@ (8004e54 <HAL_TIMEx_MasterConfigSynchronization+0x78>)
 8004e02:	42a3      	cmp	r3, r4
 8004e04:	d01a      	beq.n	8004e3c <HAL_TIMEx_MasterConfigSynchronization+0x60>
 8004e06:	f1b3 4f80 	cmp.w	r3, #1073741824	@ 0x40000000
 8004e0a:	d017      	beq.n	8004e3c <HAL_TIMEx_MasterConfigSynchronization+0x60>
 8004e0c:	f5a4 447c 	sub.w	r4, r4, #64512	@ 0xfc00
 8004e10:	42a3      	cmp	r3, r4
 8004e12:	d013      	beq.n	8004e3c <HAL_TIMEx_MasterConfigSynchronization+0x60>
 8004e14:	f504 6480 	add.w	r4, r4, #1024	@ 0x400
 8004e18:	42a3      	cmp	r3, r4
 8004e1a:	d00f      	beq.n	8004e3c <HAL_TIMEx_MasterConfigSynchronization+0x60>
 8004e1c:	f504 6480 	add.w	r4, r4, #1024	@ 0x400
 8004e20:	42a3      	cmp	r3, r4
 8004e22:	d00b      	beq.n	8004e3c <HAL_TIMEx_MasterConfigSynchronization+0x60>
 8004e24:	f504 4478 	add.w	r4, r4, #63488	@ 0xf800
 8004e28:	42a3      	cmp	r3, r4
 8004e2a:	d007      	beq.n	8004e3c <HAL_TIMEx_MasterConfigSynchronization+0x60>
 8004e2c:	f504 5470 	add.w	r4, r4, #15360	@ 0x3c00
 8004e30:	42a3      	cmp	r3, r4
 8004e32:	d003      	beq.n	8004e3c <HAL_TIMEx_MasterConfigSynchronization+0x60>
 8004e34:	f5a4 3494 	sub.w	r4, r4, #75776	@ 0x12800
 8004e38:	42a3      	cmp	r3, r4
 8004e3a:	d104      	bne.n	8004e46 <HAL_TIMEx_MasterConfigSynchronization+0x6a>
 8004e3c:	6849      	ldr	r1, [r1, #4]
 8004e3e:	f020 0080 	bic.w	r0, r0, #128	@ 0x80
 8004e42:	4301      	orrs	r1, r0
 8004e44:	6099      	str	r1, [r3, #8]
 8004e46:	2301      	movs	r3, #1
 8004e48:	2000      	movs	r0, #0
 8004e4a:	f882 303d 	strb.w	r3, [r2, #61]	@ 0x3d
 8004e4e:	f882 003c 	strb.w	r0, [r2, #60]	@ 0x3c
 8004e52:	bd30      	pop	{r4, r5, pc}
 8004e54:	40010000 	.word	0x40010000

08004e58 <HAL_TIMEx_CommutCallback>:
 8004e58:	4770      	bx	lr

08004e5a <HAL_TIMEx_BreakCallback>:
 8004e5a:	4770      	bx	lr

08004e5c <UART_EndRxTransfer>:
 8004e5c:	6802      	ldr	r2, [r0, #0]
 8004e5e:	f102 030c 	add.w	r3, r2, #12
 8004e62:	e853 3f00 	ldrex	r3, [r3]
 8004e66:	f423 7390 	bic.w	r3, r3, #288	@ 0x120
 8004e6a:	320c      	adds	r2, #12
 8004e6c:	e842 3100 	strex	r1, r3, [r2]
 8004e70:	6802      	ldr	r2, [r0, #0]
 8004e72:	2900      	cmp	r1, #0
 8004e74:	d1f2      	bne.n	8004e5c <UART_EndRxTransfer>
 8004e76:	f102 0314 	add.w	r3, r2, #20
 8004e7a:	e853 3f00 	ldrex	r3, [r3]
 8004e7e:	f023 0301 	bic.w	r3, r3, #1
 8004e82:	f102 0c14 	add.w	ip, r2, #20
 8004e86:	e84c 3100 	strex	r1, r3, [ip]
 8004e8a:	2900      	cmp	r1, #0
 8004e8c:	d1f3      	bne.n	8004e76 <UART_EndRxTransfer+0x1a>
 8004e8e:	6b03      	ldr	r3, [r0, #48]	@ 0x30
 8004e90:	2b01      	cmp	r3, #1
 8004e92:	d10b      	bne.n	8004eac <UART_EndRxTransfer+0x50>
 8004e94:	f102 030c 	add.w	r3, r2, #12
 8004e98:	e853 3f00 	ldrex	r3, [r3]
 8004e9c:	f023 0310 	bic.w	r3, r3, #16
 8004ea0:	f102 0c0c 	add.w	ip, r2, #12
 8004ea4:	e84c 3100 	strex	r1, r3, [ip]
 8004ea8:	2900      	cmp	r1, #0
 8004eaa:	d1f3      	bne.n	8004e94 <UART_EndRxTransfer+0x38>
 8004eac:	2320      	movs	r3, #32
 8004eae:	f880 3042 	strb.w	r3, [r0, #66]	@ 0x42
 8004eb2:	2300      	movs	r3, #0
 8004eb4:	6303      	str	r3, [r0, #48]	@ 0x30
 8004eb6:	4770      	bx	lr

08004eb8 <UART_SetConfig>:
 8004eb8:	6802      	ldr	r2, [r0, #0]
 8004eba:	68c1      	ldr	r1, [r0, #12]
 8004ebc:	b538      	push	{r3, r4, r5, lr}
 8004ebe:	6913      	ldr	r3, [r2, #16]
 8004ec0:	f423 5340 	bic.w	r3, r3, #12288	@ 0x3000
 8004ec4:	430b      	orrs	r3, r1
 8004ec6:	6113      	str	r3, [r2, #16]
 8004ec8:	4605      	mov	r5, r0
 8004eca:	6883      	ldr	r3, [r0, #8]
 8004ecc:	6900      	ldr	r0, [r0, #16]
 8004ece:	68d1      	ldr	r1, [r2, #12]
 8004ed0:	4303      	orrs	r3, r0
 8004ed2:	6968      	ldr	r0, [r5, #20]
 8004ed4:	4303      	orrs	r3, r0
 8004ed6:	69e8      	ldr	r0, [r5, #28]
 8004ed8:	f421 4116 	bic.w	r1, r1, #38400	@ 0x9600
 8004edc:	f021 010c 	bic.w	r1, r1, #12
 8004ee0:	4303      	orrs	r3, r0
 8004ee2:	430b      	orrs	r3, r1
 8004ee4:	60d3      	str	r3, [r2, #12]
 8004ee6:	6953      	ldr	r3, [r2, #20]
 8004ee8:	69a9      	ldr	r1, [r5, #24]
 8004eea:	f423 7340 	bic.w	r3, r3, #768	@ 0x300
 8004eee:	430b      	orrs	r3, r1
 8004ef0:	6153      	str	r3, [r2, #20]
 8004ef2:	4b1f      	ldr	r3, [pc, #124]	@ (8004f70 <UART_SetConfig+0xb8>)
 8004ef4:	429a      	cmp	r2, r3
 8004ef6:	d003      	beq.n	8004f00 <UART_SetConfig+0x48>
 8004ef8:	f503 6380 	add.w	r3, r3, #1024	@ 0x400
 8004efc:	429a      	cmp	r2, r3
 8004efe:	d124      	bne.n	8004f4a <UART_SetConfig+0x92>
 8004f00:	f7fe ff1a 	bl	8003d38 <HAL_RCC_GetPCLK2Freq>
 8004f04:	69ea      	ldr	r2, [r5, #28]
 8004f06:	2119      	movs	r1, #25
 8004f08:	f5b2 4f00 	cmp.w	r2, #32768	@ 0x8000
 8004f0c:	e9d5 4300 	ldrd	r4, r3, [r5]
 8004f10:	fba0 0101 	umull	r0, r1, r0, r1
 8004f14:	d11c      	bne.n	8004f50 <UART_SetConfig+0x98>
 8004f16:	18da      	adds	r2, r3, r3
 8004f18:	f04f 0500 	mov.w	r5, #0
 8004f1c:	eb45 0305 	adc.w	r3, r5, r5
 8004f20:	f7fb f96c 	bl	80001fc <__aeabi_uldivmod>
 8004f24:	2264      	movs	r2, #100	@ 0x64
 8004f26:	fbb0 f1f2 	udiv	r1, r0, r2
 8004f2a:	fb02 0311 	mls	r3, r2, r1, r0
 8004f2e:	00db      	lsls	r3, r3, #3
 8004f30:	3332      	adds	r3, #50	@ 0x32
 8004f32:	fbb3 f3f2 	udiv	r3, r3, r2
 8004f36:	f003 0207 	and.w	r2, r3, #7
 8004f3a:	005b      	lsls	r3, r3, #1
 8004f3c:	eb02 1201 	add.w	r2, r2, r1, lsl #4
 8004f40:	f403 73f8 	and.w	r3, r3, #496	@ 0x1f0
 8004f44:	4413      	add	r3, r2
 8004f46:	60a3      	str	r3, [r4, #8]
 8004f48:	bd38      	pop	{r3, r4, r5, pc}
 8004f4a:	f7fe fee5 	bl	8003d18 <HAL_RCC_GetPCLK1Freq>
 8004f4e:	e7d9      	b.n	8004f04 <UART_SetConfig+0x4c>
 8004f50:	009a      	lsls	r2, r3, #2
 8004f52:	0f9b      	lsrs	r3, r3, #30
 8004f54:	f7fb f952 	bl	80001fc <__aeabi_uldivmod>
 8004f58:	2264      	movs	r2, #100	@ 0x64
 8004f5a:	fbb0 f1f2 	udiv	r1, r0, r2
 8004f5e:	fb02 0311 	mls	r3, r2, r1, r0
 8004f62:	011b      	lsls	r3, r3, #4
 8004f64:	3332      	adds	r3, #50	@ 0x32
 8004f66:	fbb3 f3f2 	udiv	r3, r3, r2
 8004f6a:	eb03 1301 	add.w	r3, r3, r1, lsl #4
 8004f6e:	e7ea      	b.n	8004f46 <UART_SetConfig+0x8e>
 8004f70:	40011000 	.word	0x40011000

08004f74 <UART_WaitOnFlagUntilTimeout.constprop.0>:
 8004f74:	b5f7      	push	{r0, r1, r2, r4, r5, r6, r7, lr}
 8004f76:	4605      	mov	r5, r0
 8004f78:	460c      	mov	r4, r1
 8004f7a:	4617      	mov	r7, r2
 8004f7c:	461e      	mov	r6, r3
 8004f7e:	682a      	ldr	r2, [r5, #0]
 8004f80:	6813      	ldr	r3, [r2, #0]
 8004f82:	ea34 0303 	bics.w	r3, r4, r3
 8004f86:	d101      	bne.n	8004f8c <UART_WaitOnFlagUntilTimeout.constprop.0+0x18>
 8004f88:	2000      	movs	r0, #0
 8004f8a:	e021      	b.n	8004fd0 <UART_WaitOnFlagUntilTimeout.constprop.0+0x5c>
 8004f8c:	1c70      	adds	r0, r6, #1
 8004f8e:	d0f7      	beq.n	8004f80 <UART_WaitOnFlagUntilTimeout.constprop.0+0xc>
 8004f90:	f7fd f95c 	bl	800224c <HAL_GetTick>
 8004f94:	1bc0      	subs	r0, r0, r7
 8004f96:	4286      	cmp	r6, r0
 8004f98:	d31c      	bcc.n	8004fd4 <UART_WaitOnFlagUntilTimeout.constprop.0+0x60>
 8004f9a:	b1de      	cbz	r6, 8004fd4 <UART_WaitOnFlagUntilTimeout.constprop.0+0x60>
 8004f9c:	682b      	ldr	r3, [r5, #0]
 8004f9e:	68da      	ldr	r2, [r3, #12]
 8004fa0:	0751      	lsls	r1, r2, #29
 8004fa2:	d5ec      	bpl.n	8004f7e <UART_WaitOnFlagUntilTimeout.constprop.0+0xa>
 8004fa4:	2c80      	cmp	r4, #128	@ 0x80
 8004fa6:	d0ea      	beq.n	8004f7e <UART_WaitOnFlagUntilTimeout.constprop.0+0xa>
 8004fa8:	2c40      	cmp	r4, #64	@ 0x40
 8004faa:	d0e8      	beq.n	8004f7e <UART_WaitOnFlagUntilTimeout.constprop.0+0xa>
 8004fac:	681a      	ldr	r2, [r3, #0]
 8004fae:	0712      	lsls	r2, r2, #28
 8004fb0:	d5e5      	bpl.n	8004f7e <UART_WaitOnFlagUntilTimeout.constprop.0+0xa>
 8004fb2:	2400      	movs	r4, #0
 8004fb4:	9401      	str	r4, [sp, #4]
 8004fb6:	681a      	ldr	r2, [r3, #0]
 8004fb8:	9201      	str	r2, [sp, #4]
 8004fba:	685b      	ldr	r3, [r3, #4]
 8004fbc:	9301      	str	r3, [sp, #4]
 8004fbe:	4628      	mov	r0, r5
 8004fc0:	9b01      	ldr	r3, [sp, #4]
 8004fc2:	f7ff ff4b 	bl	8004e5c <UART_EndRxTransfer>
 8004fc6:	2308      	movs	r3, #8
 8004fc8:	646b      	str	r3, [r5, #68]	@ 0x44
 8004fca:	f885 4040 	strb.w	r4, [r5, #64]	@ 0x40
 8004fce:	2001      	movs	r0, #1
 8004fd0:	b003      	add	sp, #12
 8004fd2:	bdf0      	pop	{r4, r5, r6, r7, pc}
 8004fd4:	2003      	movs	r0, #3
 8004fd6:	e7fb      	b.n	8004fd0 <UART_WaitOnFlagUntilTimeout.constprop.0+0x5c>

08004fd8 <HAL_UART_Init>:
 8004fd8:	b510      	push	{r4, lr}
 8004fda:	4604      	mov	r4, r0
 8004fdc:	b348      	cbz	r0, 8005032 <HAL_UART_Init+0x5a>
 8004fde:	f890 3041 	ldrb.w	r3, [r0, #65]	@ 0x41
 8004fe2:	f003 02ff 	and.w	r2, r3, #255	@ 0xff
 8004fe6:	b91b      	cbnz	r3, 8004ff0 <HAL_UART_Init+0x18>
 8004fe8:	f880 2040 	strb.w	r2, [r0, #64]	@ 0x40
 8004fec:	f7fc ffb0 	bl	8001f50 <HAL_UART_MspInit>
 8004ff0:	6822      	ldr	r2, [r4, #0]
 8004ff2:	2324      	movs	r3, #36	@ 0x24
 8004ff4:	f884 3041 	strb.w	r3, [r4, #65]	@ 0x41
 8004ff8:	68d3      	ldr	r3, [r2, #12]
 8004ffa:	f423 5300 	bic.w	r3, r3, #8192	@ 0x2000
 8004ffe:	60d3      	str	r3, [r2, #12]
 8005000:	4620      	mov	r0, r4
 8005002:	f7ff ff59 	bl	8004eb8 <UART_SetConfig>
 8005006:	6823      	ldr	r3, [r4, #0]
 8005008:	691a      	ldr	r2, [r3, #16]
 800500a:	f422 4290 	bic.w	r2, r2, #18432	@ 0x4800
 800500e:	611a      	str	r2, [r3, #16]
 8005010:	695a      	ldr	r2, [r3, #20]
 8005012:	f022 022a 	bic.w	r2, r2, #42	@ 0x2a
 8005016:	615a      	str	r2, [r3, #20]
 8005018:	68da      	ldr	r2, [r3, #12]
 800501a:	f442 5200 	orr.w	r2, r2, #8192	@ 0x2000
 800501e:	60da      	str	r2, [r3, #12]
 8005020:	2000      	movs	r0, #0
 8005022:	2320      	movs	r3, #32
 8005024:	6460      	str	r0, [r4, #68]	@ 0x44
 8005026:	f884 3041 	strb.w	r3, [r4, #65]	@ 0x41
 800502a:	f884 3042 	strb.w	r3, [r4, #66]	@ 0x42
 800502e:	6360      	str	r0, [r4, #52]	@ 0x34
 8005030:	bd10      	pop	{r4, pc}
 8005032:	2001      	movs	r0, #1
 8005034:	e7fc      	b.n	8005030 <HAL_UART_Init+0x58>

08005036 <HAL_UART_Transmit>:
 8005036:	e92d 43f8 	stmdb	sp!, {r3, r4, r5, r6, r7, r8, r9, lr}
 800503a:	4698      	mov	r8, r3
 800503c:	f890 3041 	ldrb.w	r3, [r0, #65]	@ 0x41
 8005040:	2b20      	cmp	r3, #32
 8005042:	4604      	mov	r4, r0
 8005044:	460e      	mov	r6, r1
 8005046:	4617      	mov	r7, r2
 8005048:	d13f      	bne.n	80050ca <HAL_UART_Transmit+0x94>
 800504a:	2900      	cmp	r1, #0
 800504c:	d03f      	beq.n	80050ce <HAL_UART_Transmit+0x98>
 800504e:	2a00      	cmp	r2, #0
 8005050:	d03d      	beq.n	80050ce <HAL_UART_Transmit+0x98>
 8005052:	2321      	movs	r3, #33	@ 0x21
 8005054:	2500      	movs	r5, #0
 8005056:	6445      	str	r5, [r0, #68]	@ 0x44
 8005058:	f880 3041 	strb.w	r3, [r0, #65]	@ 0x41
 800505c:	f7fd f8f6 	bl	800224c <HAL_GetTick>
 8005060:	68a3      	ldr	r3, [r4, #8]
 8005062:	84a7      	strh	r7, [r4, #36]	@ 0x24
 8005064:	f5b3 5f80 	cmp.w	r3, #4096	@ 0x1000
 8005068:	4681      	mov	r9, r0
 800506a:	84e7      	strh	r7, [r4, #38]	@ 0x26
 800506c:	d103      	bne.n	8005076 <HAL_UART_Transmit+0x40>
 800506e:	6923      	ldr	r3, [r4, #16]
 8005070:	b90b      	cbnz	r3, 8005076 <HAL_UART_Transmit+0x40>
 8005072:	4635      	mov	r5, r6
 8005074:	461e      	mov	r6, r3
 8005076:	8ce3      	ldrh	r3, [r4, #38]	@ 0x26
 8005078:	b29b      	uxth	r3, r3
 800507a:	b953      	cbnz	r3, 8005092 <HAL_UART_Transmit+0x5c>
 800507c:	4643      	mov	r3, r8
 800507e:	464a      	mov	r2, r9
 8005080:	2140      	movs	r1, #64	@ 0x40
 8005082:	4620      	mov	r0, r4
 8005084:	f7ff ff76 	bl	8004f74 <UART_WaitOnFlagUntilTimeout.constprop.0>
 8005088:	2320      	movs	r3, #32
 800508a:	b950      	cbnz	r0, 80050a2 <HAL_UART_Transmit+0x6c>
 800508c:	f884 3041 	strb.w	r3, [r4, #65]	@ 0x41
 8005090:	e00a      	b.n	80050a8 <HAL_UART_Transmit+0x72>
 8005092:	4643      	mov	r3, r8
 8005094:	464a      	mov	r2, r9
 8005096:	2180      	movs	r1, #128	@ 0x80
 8005098:	4620      	mov	r0, r4
 800509a:	f7ff ff6b 	bl	8004f74 <UART_WaitOnFlagUntilTimeout.constprop.0>
 800509e:	b128      	cbz	r0, 80050ac <HAL_UART_Transmit+0x76>
 80050a0:	2320      	movs	r3, #32
 80050a2:	f884 3041 	strb.w	r3, [r4, #65]	@ 0x41
 80050a6:	2003      	movs	r0, #3
 80050a8:	e8bd 83f8 	ldmia.w	sp!, {r3, r4, r5, r6, r7, r8, r9, pc}
 80050ac:	6822      	ldr	r2, [r4, #0]
 80050ae:	b94e      	cbnz	r6, 80050c4 <HAL_UART_Transmit+0x8e>
 80050b0:	f835 3b02 	ldrh.w	r3, [r5], #2
 80050b4:	f3c3 0308 	ubfx	r3, r3, #0, #9
 80050b8:	6053      	str	r3, [r2, #4]
 80050ba:	8ce1      	ldrh	r1, [r4, #38]	@ 0x26
 80050bc:	3901      	subs	r1, #1
 80050be:	b289      	uxth	r1, r1
 80050c0:	84e1      	strh	r1, [r4, #38]	@ 0x26
 80050c2:	e7d8      	b.n	8005076 <HAL_UART_Transmit+0x40>
 80050c4:	f816 3b01 	ldrb.w	r3, [r6], #1
 80050c8:	e7f6      	b.n	80050b8 <HAL_UART_Transmit+0x82>
 80050ca:	2002      	movs	r0, #2
 80050cc:	e7ec      	b.n	80050a8 <HAL_UART_Transmit+0x72>
 80050ce:	2001      	movs	r0, #1
 80050d0:	e7ea      	b.n	80050a8 <HAL_UART_Transmit+0x72>

080050d2 <HAL_UART_TxCpltCallback>:
 80050d2:	4770      	bx	lr

080050d4 <HAL_UART_ErrorCallback>:
 80050d4:	4770      	bx	lr

080050d6 <UART_DMAAbortOnError>:
 80050d6:	b508      	push	{r3, lr}
 80050d8:	6b80      	ldr	r0, [r0, #56]	@ 0x38
 80050da:	2300      	movs	r3, #0
 80050dc:	85c3      	strh	r3, [r0, #46]	@ 0x2e
 80050de:	84c3      	strh	r3, [r0, #38]	@ 0x26
 80050e0:	f7ff fff8 	bl	80050d4 <HAL_UART_ErrorCallback>
 80050e4:	bd08      	pop	{r3, pc}

080050e6 <HAL_UARTEx_RxEventCallback>:
 80050e6:	4770      	bx	lr

080050e8 <UART_Receive_IT.isra.0>:
 80050e8:	f890 3042 	ldrb.w	r3, [r0, #66]	@ 0x42
 80050ec:	2b22      	cmp	r3, #34	@ 0x22
 80050ee:	b507      	push	{r0, r1, r2, lr}
 80050f0:	d142      	bne.n	8005178 <UART_Receive_IT.isra.0+0x90>
 80050f2:	6881      	ldr	r1, [r0, #8]
 80050f4:	6802      	ldr	r2, [r0, #0]
 80050f6:	6a83      	ldr	r3, [r0, #40]	@ 0x28
 80050f8:	f5b1 5f80 	cmp.w	r1, #4096	@ 0x1000
 80050fc:	d13f      	bne.n	800517e <UART_Receive_IT.isra.0+0x96>
 80050fe:	6901      	ldr	r1, [r0, #16]
 8005100:	2900      	cmp	r1, #0
 8005102:	d13f      	bne.n	8005184 <UART_Receive_IT.isra.0+0x9c>
 8005104:	6852      	ldr	r2, [r2, #4]
 8005106:	f3c2 0208 	ubfx	r2, r2, #0, #9
 800510a:	f823 2b02 	strh.w	r2, [r3], #2
 800510e:	6283      	str	r3, [r0, #40]	@ 0x28
 8005110:	8dc3      	ldrh	r3, [r0, #46]	@ 0x2e
 8005112:	3b01      	subs	r3, #1
 8005114:	b29b      	uxth	r3, r3
 8005116:	85c3      	strh	r3, [r0, #46]	@ 0x2e
 8005118:	2b00      	cmp	r3, #0
 800511a:	d12d      	bne.n	8005178 <UART_Receive_IT.isra.0+0x90>
 800511c:	6802      	ldr	r2, [r0, #0]
 800511e:	68d1      	ldr	r1, [r2, #12]
 8005120:	f021 0120 	bic.w	r1, r1, #32
 8005124:	60d1      	str	r1, [r2, #12]
 8005126:	68d1      	ldr	r1, [r2, #12]
 8005128:	f421 7180 	bic.w	r1, r1, #256	@ 0x100
 800512c:	60d1      	str	r1, [r2, #12]
 800512e:	6951      	ldr	r1, [r2, #20]
 8005130:	f021 0101 	bic.w	r1, r1, #1
 8005134:	6151      	str	r1, [r2, #20]
 8005136:	2220      	movs	r2, #32
 8005138:	f880 2042 	strb.w	r2, [r0, #66]	@ 0x42
 800513c:	6343      	str	r3, [r0, #52]	@ 0x34
 800513e:	6b02      	ldr	r2, [r0, #48]	@ 0x30
 8005140:	2a01      	cmp	r2, #1
 8005142:	6802      	ldr	r2, [r0, #0]
 8005144:	d128      	bne.n	8005198 <UART_Receive_IT.isra.0+0xb0>
 8005146:	6303      	str	r3, [r0, #48]	@ 0x30
 8005148:	f102 030c 	add.w	r3, r2, #12
 800514c:	e853 3f00 	ldrex	r3, [r3]
 8005150:	f023 0310 	bic.w	r3, r3, #16
 8005154:	f102 0c0c 	add.w	ip, r2, #12
 8005158:	e84c 3100 	strex	r1, r3, [ip]
 800515c:	2900      	cmp	r1, #0
 800515e:	d1f3      	bne.n	8005148 <UART_Receive_IT.isra.0+0x60>
 8005160:	6813      	ldr	r3, [r2, #0]
 8005162:	06db      	lsls	r3, r3, #27
 8005164:	d505      	bpl.n	8005172 <UART_Receive_IT.isra.0+0x8a>
 8005166:	9101      	str	r1, [sp, #4]
 8005168:	6813      	ldr	r3, [r2, #0]
 800516a:	9301      	str	r3, [sp, #4]
 800516c:	6853      	ldr	r3, [r2, #4]
 800516e:	9301      	str	r3, [sp, #4]
 8005170:	9b01      	ldr	r3, [sp, #4]
 8005172:	8d81      	ldrh	r1, [r0, #44]	@ 0x2c
 8005174:	f7ff ffb7 	bl	80050e6 <HAL_UARTEx_RxEventCallback>
 8005178:	b003      	add	sp, #12
 800517a:	f85d fb04 	ldr.w	pc, [sp], #4
 800517e:	b939      	cbnz	r1, 8005190 <UART_Receive_IT.isra.0+0xa8>
 8005180:	6901      	ldr	r1, [r0, #16]
 8005182:	b929      	cbnz	r1, 8005190 <UART_Receive_IT.isra.0+0xa8>
 8005184:	6852      	ldr	r2, [r2, #4]
 8005186:	b2d2      	uxtb	r2, r2
 8005188:	701a      	strb	r2, [r3, #0]
 800518a:	6a83      	ldr	r3, [r0, #40]	@ 0x28
 800518c:	3301      	adds	r3, #1
 800518e:	e7be      	b.n	800510e <UART_Receive_IT.isra.0+0x26>
 8005190:	6852      	ldr	r2, [r2, #4]
 8005192:	f002 027f 	and.w	r2, r2, #127	@ 0x7f
 8005196:	e7f7      	b.n	8005188 <UART_Receive_IT.isra.0+0xa0>
 8005198:	f7fc ffaa 	bl	80020f0 <HAL_UART_RxCpltCallback>
 800519c:	e7ec      	b.n	8005178 <UART_Receive_IT.isra.0+0x90>
	...

080051a0 <HAL_UART_IRQHandler>:
 80051a0:	6803      	ldr	r3, [r0, #0]
 80051a2:	681a      	ldr	r2, [r3, #0]
 80051a4:	b573      	push	{r0, r1, r4, r5, r6, lr}
 80051a6:	0716      	lsls	r6, r2, #28
 80051a8:	68d9      	ldr	r1, [r3, #12]
 80051aa:	695d      	ldr	r5, [r3, #20]
 80051ac:	4604      	mov	r4, r0
 80051ae:	d108      	bne.n	80051c2 <HAL_UART_IRQHandler+0x22>
 80051b0:	0696      	lsls	r6, r2, #26
 80051b2:	d568      	bpl.n	8005286 <HAL_UART_IRQHandler+0xe6>
 80051b4:	068d      	lsls	r5, r1, #26
 80051b6:	d566      	bpl.n	8005286 <HAL_UART_IRQHandler+0xe6>
 80051b8:	b002      	add	sp, #8
 80051ba:	e8bd 4070 	ldmia.w	sp!, {r4, r5, r6, lr}
 80051be:	f7ff bf93 	b.w	80050e8 <UART_Receive_IT.isra.0>
 80051c2:	f005 0001 	and.w	r0, r5, #1
 80051c6:	f401 7590 	and.w	r5, r1, #288	@ 0x120
 80051ca:	4305      	orrs	r5, r0
 80051cc:	d05b      	beq.n	8005286 <HAL_UART_IRQHandler+0xe6>
 80051ce:	07d6      	lsls	r6, r2, #31
 80051d0:	d505      	bpl.n	80051de <HAL_UART_IRQHandler+0x3e>
 80051d2:	05cd      	lsls	r5, r1, #23
 80051d4:	bf42      	ittt	mi
 80051d6:	6c63      	ldrmi	r3, [r4, #68]	@ 0x44
 80051d8:	f043 0301 	orrmi.w	r3, r3, #1
 80051dc:	6463      	strmi	r3, [r4, #68]	@ 0x44
 80051de:	0753      	lsls	r3, r2, #29
 80051e0:	d504      	bpl.n	80051ec <HAL_UART_IRQHandler+0x4c>
 80051e2:	b118      	cbz	r0, 80051ec <HAL_UART_IRQHandler+0x4c>
 80051e4:	6c63      	ldr	r3, [r4, #68]	@ 0x44
 80051e6:	f043 0302 	orr.w	r3, r3, #2
 80051ea:	6463      	str	r3, [r4, #68]	@ 0x44
 80051ec:	0796      	lsls	r6, r2, #30
 80051ee:	d504      	bpl.n	80051fa <HAL_UART_IRQHandler+0x5a>
 80051f0:	b118      	cbz	r0, 80051fa <HAL_UART_IRQHandler+0x5a>
 80051f2:	6c63      	ldr	r3, [r4, #68]	@ 0x44
 80051f4:	f043 0304 	orr.w	r3, r3, #4
 80051f8:	6463      	str	r3, [r4, #68]	@ 0x44
 80051fa:	0715      	lsls	r5, r2, #28
 80051fc:	d507      	bpl.n	800520e <HAL_UART_IRQHandler+0x6e>
 80051fe:	f001 0320 	and.w	r3, r1, #32
 8005202:	4303      	orrs	r3, r0
 8005204:	bf1e      	ittt	ne
 8005206:	6c63      	ldrne	r3, [r4, #68]	@ 0x44
 8005208:	f043 0308 	orrne.w	r3, r3, #8
 800520c:	6463      	strne	r3, [r4, #68]	@ 0x44
 800520e:	6c63      	ldr	r3, [r4, #68]	@ 0x44
 8005210:	2b00      	cmp	r3, #0
 8005212:	d032      	beq.n	800527a <HAL_UART_IRQHandler+0xda>
 8005214:	0692      	lsls	r2, r2, #26
 8005216:	d504      	bpl.n	8005222 <HAL_UART_IRQHandler+0x82>
 8005218:	068b      	lsls	r3, r1, #26
 800521a:	d502      	bpl.n	8005222 <HAL_UART_IRQHandler+0x82>
 800521c:	4620      	mov	r0, r4
 800521e:	f7ff ff63 	bl	80050e8 <UART_Receive_IT.isra.0>
 8005222:	6826      	ldr	r6, [r4, #0]
 8005224:	6973      	ldr	r3, [r6, #20]
 8005226:	6c62      	ldr	r2, [r4, #68]	@ 0x44
 8005228:	f003 0340 	and.w	r3, r3, #64	@ 0x40
 800522c:	f002 0208 	and.w	r2, r2, #8
 8005230:	ea53 0502 	orrs.w	r5, r3, r2
 8005234:	4620      	mov	r0, r4
 8005236:	d022      	beq.n	800527e <HAL_UART_IRQHandler+0xde>
 8005238:	f7ff fe10 	bl	8004e5c <UART_EndRxTransfer>
 800523c:	6973      	ldr	r3, [r6, #20]
 800523e:	065e      	lsls	r6, r3, #25
 8005240:	d518      	bpl.n	8005274 <HAL_UART_IRQHandler+0xd4>
 8005242:	6822      	ldr	r2, [r4, #0]
 8005244:	f102 0314 	add.w	r3, r2, #20
 8005248:	e853 3f00 	ldrex	r3, [r3]
 800524c:	f023 0340 	bic.w	r3, r3, #64	@ 0x40
 8005250:	3214      	adds	r2, #20
 8005252:	e842 3100 	strex	r1, r3, [r2]
 8005256:	2900      	cmp	r1, #0
 8005258:	d1f3      	bne.n	8005242 <HAL_UART_IRQHandler+0xa2>
 800525a:	6be0      	ldr	r0, [r4, #60]	@ 0x3c
 800525c:	b150      	cbz	r0, 8005274 <HAL_UART_IRQHandler+0xd4>
 800525e:	4b74      	ldr	r3, [pc, #464]	@ (8005430 <HAL_UART_IRQHandler+0x290>)
 8005260:	6503      	str	r3, [r0, #80]	@ 0x50
 8005262:	f7fd fc94 	bl	8002b8e <HAL_DMA_Abort_IT>
 8005266:	b140      	cbz	r0, 800527a <HAL_UART_IRQHandler+0xda>
 8005268:	6be0      	ldr	r0, [r4, #60]	@ 0x3c
 800526a:	6d03      	ldr	r3, [r0, #80]	@ 0x50
 800526c:	b002      	add	sp, #8
 800526e:	e8bd 4070 	ldmia.w	sp!, {r4, r5, r6, lr}
 8005272:	4718      	bx	r3
 8005274:	4620      	mov	r0, r4
 8005276:	f7ff ff2d 	bl	80050d4 <HAL_UART_ErrorCallback>
 800527a:	b002      	add	sp, #8
 800527c:	bd70      	pop	{r4, r5, r6, pc}
 800527e:	f7ff ff29 	bl	80050d4 <HAL_UART_ErrorCallback>
 8005282:	6465      	str	r5, [r4, #68]	@ 0x44
 8005284:	e7f9      	b.n	800527a <HAL_UART_IRQHandler+0xda>
 8005286:	6b20      	ldr	r0, [r4, #48]	@ 0x30
 8005288:	2801      	cmp	r0, #1
 800528a:	f040 8095 	bne.w	80053b8 <HAL_UART_IRQHandler+0x218>
 800528e:	06d5      	lsls	r5, r2, #27
 8005290:	f140 8092 	bpl.w	80053b8 <HAL_UART_IRQHandler+0x218>
 8005294:	06c8      	lsls	r0, r1, #27
 8005296:	f140 808f 	bpl.w	80053b8 <HAL_UART_IRQHandler+0x218>
 800529a:	2200      	movs	r2, #0
 800529c:	9201      	str	r2, [sp, #4]
 800529e:	681a      	ldr	r2, [r3, #0]
 80052a0:	9201      	str	r2, [sp, #4]
 80052a2:	685a      	ldr	r2, [r3, #4]
 80052a4:	9201      	str	r2, [sp, #4]
 80052a6:	9a01      	ldr	r2, [sp, #4]
 80052a8:	695a      	ldr	r2, [r3, #20]
 80052aa:	0652      	lsls	r2, r2, #25
 80052ac:	d54e      	bpl.n	800534c <HAL_UART_IRQHandler+0x1ac>
 80052ae:	6be1      	ldr	r1, [r4, #60]	@ 0x3c
 80052b0:	680a      	ldr	r2, [r1, #0]
 80052b2:	6852      	ldr	r2, [r2, #4]
 80052b4:	b292      	uxth	r2, r2
 80052b6:	2a00      	cmp	r2, #0
 80052b8:	d0df      	beq.n	800527a <HAL_UART_IRQHandler+0xda>
 80052ba:	8da0      	ldrh	r0, [r4, #44]	@ 0x2c
 80052bc:	4290      	cmp	r0, r2
 80052be:	d9dc      	bls.n	800527a <HAL_UART_IRQHandler+0xda>
 80052c0:	85e2      	strh	r2, [r4, #46]	@ 0x2e
 80052c2:	69ca      	ldr	r2, [r1, #28]
 80052c4:	f5b2 7f80 	cmp.w	r2, #256	@ 0x100
 80052c8:	d036      	beq.n	8005338 <HAL_UART_IRQHandler+0x198>
 80052ca:	f103 020c 	add.w	r2, r3, #12
 80052ce:	e852 2f00 	ldrex	r2, [r2]
 80052d2:	f422 7280 	bic.w	r2, r2, #256	@ 0x100
 80052d6:	f103 000c 	add.w	r0, r3, #12
 80052da:	e840 2100 	strex	r1, r2, [r0]
 80052de:	2900      	cmp	r1, #0
 80052e0:	d1f3      	bne.n	80052ca <HAL_UART_IRQHandler+0x12a>
 80052e2:	f103 0214 	add.w	r2, r3, #20
 80052e6:	e852 2f00 	ldrex	r2, [r2]
 80052ea:	f022 0201 	bic.w	r2, r2, #1
 80052ee:	f103 0014 	add.w	r0, r3, #20
 80052f2:	e840 2100 	strex	r1, r2, [r0]
 80052f6:	2900      	cmp	r1, #0
 80052f8:	d1f3      	bne.n	80052e2 <HAL_UART_IRQHandler+0x142>
 80052fa:	f103 0214 	add.w	r2, r3, #20
 80052fe:	e852 2f00 	ldrex	r2, [r2]
 8005302:	f022 0240 	bic.w	r2, r2, #64	@ 0x40
 8005306:	f103 0014 	add.w	r0, r3, #20
 800530a:	e840 2100 	strex	r1, r2, [r0]
 800530e:	2900      	cmp	r1, #0
 8005310:	d1f3      	bne.n	80052fa <HAL_UART_IRQHandler+0x15a>
 8005312:	2220      	movs	r2, #32
 8005314:	f884 2042 	strb.w	r2, [r4, #66]	@ 0x42
 8005318:	6321      	str	r1, [r4, #48]	@ 0x30
 800531a:	f103 020c 	add.w	r2, r3, #12
 800531e:	e852 2f00 	ldrex	r2, [r2]
 8005322:	f022 0210 	bic.w	r2, r2, #16
 8005326:	f103 000c 	add.w	r0, r3, #12
 800532a:	e840 2100 	strex	r1, r2, [r0]
 800532e:	2900      	cmp	r1, #0
 8005330:	d1f3      	bne.n	800531a <HAL_UART_IRQHandler+0x17a>
 8005332:	6be0      	ldr	r0, [r4, #60]	@ 0x3c
 8005334:	f7fd fbed 	bl	8002b12 <HAL_DMA_Abort>
 8005338:	2302      	movs	r3, #2
 800533a:	6363      	str	r3, [r4, #52]	@ 0x34
 800533c:	8de3      	ldrh	r3, [r4, #46]	@ 0x2e
 800533e:	8da1      	ldrh	r1, [r4, #44]	@ 0x2c
 8005340:	1ac9      	subs	r1, r1, r3
 8005342:	b289      	uxth	r1, r1
 8005344:	4620      	mov	r0, r4
 8005346:	f7ff fece 	bl	80050e6 <HAL_UARTEx_RxEventCallback>
 800534a:	e796      	b.n	800527a <HAL_UART_IRQHandler+0xda>
 800534c:	8de2      	ldrh	r2, [r4, #46]	@ 0x2e
 800534e:	8de0      	ldrh	r0, [r4, #46]	@ 0x2e
 8005350:	8da1      	ldrh	r1, [r4, #44]	@ 0x2c
 8005352:	b280      	uxth	r0, r0
 8005354:	b292      	uxth	r2, r2
 8005356:	2800      	cmp	r0, #0
 8005358:	d08f      	beq.n	800527a <HAL_UART_IRQHandler+0xda>
 800535a:	1a89      	subs	r1, r1, r2
 800535c:	b289      	uxth	r1, r1
 800535e:	2900      	cmp	r1, #0
 8005360:	d08b      	beq.n	800527a <HAL_UART_IRQHandler+0xda>
 8005362:	f103 020c 	add.w	r2, r3, #12
 8005366:	e852 2f00 	ldrex	r2, [r2]
 800536a:	f422 7290 	bic.w	r2, r2, #288	@ 0x120
 800536e:	f103 050c 	add.w	r5, r3, #12
 8005372:	e845 2000 	strex	r0, r2, [r5]
 8005376:	2800      	cmp	r0, #0
 8005378:	d1f3      	bne.n	8005362 <HAL_UART_IRQHandler+0x1c2>
 800537a:	f103 0214 	add.w	r2, r3, #20
 800537e:	e852 2f00 	ldrex	r2, [r2]
 8005382:	f022 0201 	bic.w	r2, r2, #1
 8005386:	f103 0514 	add.w	r5, r3, #20
 800538a:	e845 2000 	strex	r0, r2, [r5]
 800538e:	2800      	cmp	r0, #0
 8005390:	d1f3      	bne.n	800537a <HAL_UART_IRQHandler+0x1da>
 8005392:	2220      	movs	r2, #32
 8005394:	f884 2042 	strb.w	r2, [r4, #66]	@ 0x42
 8005398:	6320      	str	r0, [r4, #48]	@ 0x30
 800539a:	f103 020c 	add.w	r2, r3, #12
 800539e:	e852 2f00 	ldrex	r2, [r2]
 80053a2:	f022 0210 	bic.w	r2, r2, #16
 80053a6:	f103 050c 	add.w	r5, r3, #12
 80053aa:	e845 2000 	strex	r0, r2, [r5]
 80053ae:	2800      	cmp	r0, #0
 80053b0:	d1f3      	bne.n	800539a <HAL_UART_IRQHandler+0x1fa>
 80053b2:	2302      	movs	r3, #2
 80053b4:	6363      	str	r3, [r4, #52]	@ 0x34
 80053b6:	e7c5      	b.n	8005344 <HAL_UART_IRQHandler+0x1a4>
 80053b8:	0616      	lsls	r6, r2, #24
 80053ba:	d528      	bpl.n	800540e <HAL_UART_IRQHandler+0x26e>
 80053bc:	060d      	lsls	r5, r1, #24
 80053be:	d526      	bpl.n	800540e <HAL_UART_IRQHandler+0x26e>
 80053c0:	f894 2041 	ldrb.w	r2, [r4, #65]	@ 0x41
 80053c4:	2a21      	cmp	r2, #33	@ 0x21
 80053c6:	f47f af58 	bne.w	800527a <HAL_UART_IRQHandler+0xda>
 80053ca:	68a1      	ldr	r1, [r4, #8]
 80053cc:	6a22      	ldr	r2, [r4, #32]
 80053ce:	f5b1 5f80 	cmp.w	r1, #4096	@ 0x1000
 80053d2:	d117      	bne.n	8005404 <HAL_UART_IRQHandler+0x264>
 80053d4:	6921      	ldr	r1, [r4, #16]
 80053d6:	b9a9      	cbnz	r1, 8005404 <HAL_UART_IRQHandler+0x264>
 80053d8:	f832 1b02 	ldrh.w	r1, [r2], #2
 80053dc:	f3c1 0108 	ubfx	r1, r1, #0, #9
 80053e0:	6059      	str	r1, [r3, #4]
 80053e2:	6222      	str	r2, [r4, #32]
 80053e4:	8ce2      	ldrh	r2, [r4, #38]	@ 0x26
 80053e6:	3a01      	subs	r2, #1
 80053e8:	b292      	uxth	r2, r2
 80053ea:	84e2      	strh	r2, [r4, #38]	@ 0x26
 80053ec:	2a00      	cmp	r2, #0
 80053ee:	f47f af44 	bne.w	800527a <HAL_UART_IRQHandler+0xda>
 80053f2:	68da      	ldr	r2, [r3, #12]
 80053f4:	f022 0280 	bic.w	r2, r2, #128	@ 0x80
 80053f8:	60da      	str	r2, [r3, #12]
 80053fa:	68da      	ldr	r2, [r3, #12]
 80053fc:	f042 0240 	orr.w	r2, r2, #64	@ 0x40
 8005400:	60da      	str	r2, [r3, #12]
 8005402:	e73a      	b.n	800527a <HAL_UART_IRQHandler+0xda>
 8005404:	1c51      	adds	r1, r2, #1
 8005406:	6221      	str	r1, [r4, #32]
 8005408:	7812      	ldrb	r2, [r2, #0]
 800540a:	605a      	str	r2, [r3, #4]
 800540c:	e7ea      	b.n	80053e4 <HAL_UART_IRQHandler+0x244>
 800540e:	0650      	lsls	r0, r2, #25
 8005410:	f57f af33 	bpl.w	800527a <HAL_UART_IRQHandler+0xda>
 8005414:	064a      	lsls	r2, r1, #25
 8005416:	f57f af30 	bpl.w	800527a <HAL_UART_IRQHandler+0xda>
 800541a:	68da      	ldr	r2, [r3, #12]
 800541c:	f022 0240 	bic.w	r2, r2, #64	@ 0x40
 8005420:	60da      	str	r2, [r3, #12]
 8005422:	2320      	movs	r3, #32
 8005424:	f884 3041 	strb.w	r3, [r4, #65]	@ 0x41
 8005428:	4620      	mov	r0, r4
 800542a:	f7ff fe52 	bl	80050d2 <HAL_UART_TxCpltCallback>
 800542e:	e724      	b.n	800527a <HAL_UART_IRQHandler+0xda>
 8005430:	080050d7 	.word	0x080050d7

08005434 <UART_Start_Receive_IT>:
 8005434:	85c2      	strh	r2, [r0, #46]	@ 0x2e
 8005436:	2300      	movs	r3, #0
 8005438:	8582      	strh	r2, [r0, #44]	@ 0x2c
 800543a:	6902      	ldr	r2, [r0, #16]
 800543c:	6443      	str	r3, [r0, #68]	@ 0x44
 800543e:	2322      	movs	r3, #34	@ 0x22
 8005440:	f880 3042 	strb.w	r3, [r0, #66]	@ 0x42
 8005444:	6281      	str	r1, [r0, #40]	@ 0x28
 8005446:	6803      	ldr	r3, [r0, #0]
 8005448:	b11a      	cbz	r2, 8005452 <UART_Start_Receive_IT+0x1e>
 800544a:	68da      	ldr	r2, [r3, #12]
 800544c:	f442 7280 	orr.w	r2, r2, #256	@ 0x100
 8005450:	60da      	str	r2, [r3, #12]
 8005452:	695a      	ldr	r2, [r3, #20]
 8005454:	f042 0201 	orr.w	r2, r2, #1
 8005458:	615a      	str	r2, [r3, #20]
 800545a:	68da      	ldr	r2, [r3, #12]
 800545c:	f042 0220 	orr.w	r2, r2, #32
 8005460:	60da      	str	r2, [r3, #12]
 8005462:	2000      	movs	r0, #0
 8005464:	4770      	bx	lr

08005466 <HAL_UART_Receive_IT>:
 8005466:	b470      	push	{r4, r5, r6}
 8005468:	f890 6042 	ldrb.w	r6, [r0, #66]	@ 0x42
 800546c:	2e20      	cmp	r6, #32
 800546e:	d106      	bne.n	800547e <HAL_UART_Receive_IT+0x18>
 8005470:	b141      	cbz	r1, 8005484 <HAL_UART_Receive_IT+0x1e>
 8005472:	b13a      	cbz	r2, 8005484 <HAL_UART_Receive_IT+0x1e>
 8005474:	2400      	movs	r4, #0
 8005476:	6304      	str	r4, [r0, #48]	@ 0x30
 8005478:	bc70      	pop	{r4, r5, r6}
 800547a:	f7ff bfdb 	b.w	8005434 <UART_Start_Receive_IT>
 800547e:	2002      	movs	r0, #2
 8005480:	bc70      	pop	{r4, r5, r6}
 8005482:	4770      	bx	lr
 8005484:	2001      	movs	r0, #1
 8005486:	e7fb      	b.n	8005480 <HAL_UART_Receive_IT+0x1a>

08005488 <memset>:
 8005488:	4402      	add	r2, r0
 800548a:	4603      	mov	r3, r0
 800548c:	4293      	cmp	r3, r2
 800548e:	d100      	bne.n	8005492 <memset+0xa>
 8005490:	4770      	bx	lr
 8005492:	f803 1b01 	strb.w	r1, [r3], #1
 8005496:	e7f9      	b.n	800548c <memset+0x4>

08005498 <__libc_init_array>:
 8005498:	b570      	push	{r4, r5, r6, lr}
 800549a:	4d0d      	ldr	r5, [pc, #52]	@ (80054d0 <__libc_init_array+0x38>)
 800549c:	4c0d      	ldr	r4, [pc, #52]	@ (80054d4 <__libc_init_array+0x3c>)
 800549e:	1b64      	subs	r4, r4, r5
 80054a0:	10a4      	asrs	r4, r4, #2
 80054a2:	2600      	movs	r6, #0
 80054a4:	42a6      	cmp	r6, r4
 80054a6:	d109      	bne.n	80054bc <__libc_init_array+0x24>
 80054a8:	4d0b      	ldr	r5, [pc, #44]	@ (80054d8 <__libc_init_array+0x40>)
 80054aa:	4c0c      	ldr	r4, [pc, #48]	@ (80054dc <__libc_init_array+0x44>)
 80054ac:	f000 f818 	bl	80054e0 <_init>
 80054b0:	1b64      	subs	r4, r4, r5
 80054b2:	10a4      	asrs	r4, r4, #2
 80054b4:	2600      	movs	r6, #0
 80054b6:	42a6      	cmp	r6, r4
 80054b8:	d105      	bne.n	80054c6 <__libc_init_array+0x2e>
 80054ba:	bd70      	pop	{r4, r5, r6, pc}
 80054bc:	f855 3b04 	ldr.w	r3, [r5], #4
 80054c0:	4798      	blx	r3
 80054c2:	3601      	adds	r6, #1
 80054c4:	e7ee      	b.n	80054a4 <__libc_init_array+0xc>
 80054c6:	f855 3b04 	ldr.w	r3, [r5], #4
 80054ca:	4798      	blx	r3
 80054cc:	3601      	adds	r6, #1
 80054ce:	e7f2      	b.n	80054b6 <__libc_init_array+0x1e>
 80054d0:	080055b4 	.word	0x080055b4
 80054d4:	080055b4 	.word	0x080055b4
 80054d8:	080055b4 	.word	0x080055b4
 80054dc:	080055b8 	.word	0x080055b8

080054e0 <_init>:
 80054e0:	b5f8      	push	{r3, r4, r5, r6, r7, lr}
 80054e2:	bf00      	nop
 80054e4:	bcf8      	pop	{r3, r4, r5, r6, r7}
 80054e6:	bc08      	pop	{r3}
 80054e8:	469e      	mov	lr, r3
 80054ea:	4770      	bx	lr

080054ec <_fini>:
 80054ec:	b5f8      	push	{r3, r4, r5, r6, r7, lr}
 80054ee:	bf00      	nop
 80054f0:	bcf8      	pop	{r3, r4, r5, r6, r7}
 80054f2:	bc08      	pop	{r3}
 80054f4:	469e      	mov	lr, r3
 80054f6:	4770      	bx	lr
